


Disassembly of section .text:

00000000000040a0 <_start>:
    40a0:	f3 0f 1e fa          	endbr64 
    40a4:	31 ed                	xor    %ebp,%ebp
    40a6:	49 89 d1             	mov    %rdx,%r9
    40a9:	5e                   	pop    %rsi
    40aa:	48 89 e2             	mov    %rsp,%rdx
    40ad:	48 83 e4 f0          	and    $0xfffffffffffffff0,%rsp
    40b1:	50                   	push   %rax
    40b2:	54                   	push   %rsp
    40b3:	4c 8d 05 66 e6 00 00 	lea    0xe666(%rip),%r8        # 12720 <__libc_csu_fini>
    40ba:	48 8d 0d ef e5 00 00 	lea    0xe5ef(%rip),%rcx        # 126b0 <__libc_csu_init>
    40c1:	48 8d 3d c3 d7 00 00 	lea    0xd7c3(%rip),%rdi        # 1188b <main>
    40c8:	ff 15 02 2f 01 00    	callq  *0x12f02(%rip)        # 16fd0 <__libc_start_main@GLIBC_2.2.5>
    40ce:	f4                   	hlt    
    40cf:	90                   	nop

00000000000040d0 <deregister_tm_clones>:
    40d0:	48 8d 3d 39 4e 01 00 	lea    0x14e39(%rip),%rdi        # 18f10 <__TMC_END__>
    40d7:	48 8d 05 32 4e 01 00 	lea    0x14e32(%rip),%rax        # 18f10 <__TMC_END__>
    40de:	48 39 f8             	cmp    %rdi,%rax
    40e1:	74 15                	je     40f8 <deregister_tm_clones+0x28>
    40e3:	48 8b 05 de 2e 01 00 	mov    0x12ede(%rip),%rax        # 16fc8 <_ITM_deregisterTMCloneTable>
    40ea:	48 85 c0             	test   %rax,%rax
    40ed:	74 09                	je     40f8 <deregister_tm_clones+0x28>
    40ef:	ff e0                	jmpq   *%rax
    40f1:	0f 1f 80 00 00 00 00 	nopl   0x0(%rax)
    40f8:	c3                   	retq   
    40f9:	0f 1f 80 00 00 00 00 	nopl   0x0(%rax)

0000000000004100 <register_tm_clones>:
    4100:	48 8d 3d 09 4e 01 00 	lea    0x14e09(%rip),%rdi        # 18f10 <__TMC_END__>
    4107:	48 8d 35 02 4e 01 00 	lea    0x14e02(%rip),%rsi        # 18f10 <__TMC_END__>
    410e:	48 29 fe             	sub    %rdi,%rsi
    4111:	48 89 f0             	mov    %rsi,%rax
    4114:	48 c1 ee 3f          	shr    $0x3f,%rsi
    4118:	48 c1 f8 03          	sar    $0x3,%rax
    411c:	48 01 c6             	add    %rax,%rsi
    411f:	48 d1 fe             	sar    %rsi
    4122:	74 14                	je     4138 <register_tm_clones+0x38>
    4124:	48 8b 05 b5 2e 01 00 	mov    0x12eb5(%rip),%rax        # 16fe0 <_ITM_registerTMCloneTable>
    412b:	48 85 c0             	test   %rax,%rax
    412e:	74 08                	je     4138 <register_tm_clones+0x38>
    4130:	ff e0                	jmpq   *%rax
    4132:	66 0f 1f 44 00 00    	nopw   0x0(%rax,%rax,1)
    4138:	c3                   	retq   
    4139:	0f 1f 80 00 00 00 00 	nopl   0x0(%rax)

0000000000004140 <__do_global_dtors_aux>:
    4140:	f3 0f 1e fa          	endbr64 
    4144:	80 3d d5 4d 01 00 00 	cmpb   $0x0,0x14dd5(%rip)        # 18f20 <completed.8061>
    414b:	75 2b                	jne    4178 <__do_global_dtors_aux+0x38>
    414d:	55                   	push   %rbp
    414e:	48 83 3d 92 2e 01 00 	cmpq   $0x0,0x12e92(%rip)        # 16fe8 <__cxa_finalize@GLIBC_2.2.5>
    4155:	00 
    4156:	48 89 e5             	mov    %rsp,%rbp
    4159:	74 0c                	je     4167 <__do_global_dtors_aux+0x27>
    415b:	48 8b 3d a6 2e 01 00 	mov    0x12ea6(%rip),%rdi        # 17008 <__dso_handle>
    4162:	e8 f9 fe ff ff       	callq  4060 <__cxa_finalize@plt>
    4167:	e8 64 ff ff ff       	callq  40d0 <deregister_tm_clones>
    416c:	c6 05 ad 4d 01 00 01 	movb   $0x1,0x14dad(%rip)        # 18f20 <completed.8061>
    4173:	5d                   	pop    %rbp
    4174:	c3                   	retq   
    4175:	0f 1f 00             	nopl   (%rax)
    4178:	c3                   	retq   
    4179:	0f 1f 80 00 00 00 00 	nopl   0x0(%rax)

0000000000004180 <frame_dummy>:
    4180:	f3 0f 1e fa          	endbr64 
    4184:	e9 77 ff ff ff       	jmpq   4100 <register_tm_clones>

0000000000004189 <platform_main_begin>:
    4189:	f3 0f 1e fa          	endbr64 
    418d:	55                   	push   %rbp
    418e:	48 89 e5             	mov    %rsp,%rbp
    4191:	90                   	nop
    4192:	5d                   	pop    %rbp
    4193:	c3                   	retq   

0000000000004194 <platform_main_end>:
    4194:	f3 0f 1e fa          	endbr64 
    4198:	55                   	push   %rbp
    4199:	48 89 e5             	mov    %rsp,%rbp
    419c:	48 83 ec 10          	sub    $0x10,%rsp
    41a0:	89 7d fc             	mov    %edi,-0x4(%rbp)
    41a3:	89 75 f8             	mov    %esi,-0x8(%rbp)
    41a6:	8b 45 fc             	mov    -0x4(%rbp),%eax
    41a9:	89 c6                	mov    %eax,%esi
    41ab:	48 8d 3d 6e ee 00 00 	lea    0xee6e(%rip),%rdi        # 13020 <_IO_stdin_used+0x20>
    41b2:	b8 00 00 00 00       	mov    $0x0,%eax
    41b7:	e8 c4 fe ff ff       	callq  4080 <printf@plt>
    41bc:	90                   	nop
    41bd:	c9                   	leaveq 
    41be:	c3                   	retq   

00000000000041bf <safe_unary_minus_func_int8_t_s>:
    41bf:	f3 0f 1e fa          	endbr64 
    41c3:	55                   	push   %rbp
    41c4:	48 89 e5             	mov    %rsp,%rbp
    41c7:	89 f8                	mov    %edi,%eax
    41c9:	88 45 fc             	mov    %al,-0x4(%rbp)
    41cc:	0f b6 45 fc          	movzbl -0x4(%rbp),%eax
    41d0:	f7 d8                	neg    %eax
    41d2:	5d                   	pop    %rbp
    41d3:	c3                   	retq   

00000000000041d4 <safe_add_func_int8_t_s_s>:
    41d4:	f3 0f 1e fa          	endbr64 
    41d8:	55                   	push   %rbp
    41d9:	48 89 e5             	mov    %rsp,%rbp
    41dc:	89 fa                	mov    %edi,%edx
    41de:	89 f0                	mov    %esi,%eax
    41e0:	88 55 fc             	mov    %dl,-0x4(%rbp)
    41e3:	88 45 f8             	mov    %al,-0x8(%rbp)
    41e6:	0f b6 55 fc          	movzbl -0x4(%rbp),%edx
    41ea:	0f b6 45 f8          	movzbl -0x8(%rbp),%eax
    41ee:	01 d0                	add    %edx,%eax
    41f0:	5d                   	pop    %rbp
    41f1:	c3                   	retq   

00000000000041f2 <safe_sub_func_int8_t_s_s>:
    41f2:	f3 0f 1e fa          	endbr64 
    41f6:	55                   	push   %rbp
    41f7:	48 89 e5             	mov    %rsp,%rbp
    41fa:	89 fa                	mov    %edi,%edx
    41fc:	89 f0                	mov    %esi,%eax
    41fe:	88 55 fc             	mov    %dl,-0x4(%rbp)
    4201:	88 45 f8             	mov    %al,-0x8(%rbp)
    4204:	0f b6 55 fc          	movzbl -0x4(%rbp),%edx
    4208:	0f b6 45 f8          	movzbl -0x8(%rbp),%eax
    420c:	29 c2                	sub    %eax,%edx
    420e:	89 d0                	mov    %edx,%eax
    4210:	5d                   	pop    %rbp
    4211:	c3                   	retq   

0000000000004212 <safe_mul_func_int8_t_s_s>:
    4212:	f3 0f 1e fa          	endbr64 
    4216:	55                   	push   %rbp
    4217:	48 89 e5             	mov    %rsp,%rbp
    421a:	89 fa                	mov    %edi,%edx
    421c:	89 f0                	mov    %esi,%eax
    421e:	88 55 fc             	mov    %dl,-0x4(%rbp)
    4221:	88 45 f8             	mov    %al,-0x8(%rbp)
    4224:	0f b6 45 fc          	movzbl -0x4(%rbp),%eax
    4228:	0f b6 55 f8          	movzbl -0x8(%rbp),%edx
    422c:	0f af c2             	imul   %edx,%eax
    422f:	5d                   	pop    %rbp
    4230:	c3                   	retq   

0000000000004231 <safe_mod_func_int8_t_s_s>:
    4231:	f3 0f 1e fa          	endbr64 
    4235:	55                   	push   %rbp
    4236:	48 89 e5             	mov    %rsp,%rbp
    4239:	89 fa                	mov    %edi,%edx
    423b:	89 f0                	mov    %esi,%eax
    423d:	88 55 fc             	mov    %dl,-0x4(%rbp)
    4240:	88 45 f8             	mov    %al,-0x8(%rbp)
    4243:	80 7d f8 00          	cmpb   $0x0,-0x8(%rbp)
    4247:	74 1b                	je     4264 <safe_mod_func_int8_t_s_s+0x33>
    4249:	80 7d fc 80          	cmpb   $0x80,-0x4(%rbp)
    424d:	75 06                	jne    4255 <safe_mod_func_int8_t_s_s+0x24>
    424f:	80 7d f8 ff          	cmpb   $0xff,-0x8(%rbp)
    4253:	74 0f                	je     4264 <safe_mod_func_int8_t_s_s+0x33>
    4255:	0f be 45 fc          	movsbl -0x4(%rbp),%eax
    4259:	0f be 4d f8          	movsbl -0x8(%rbp),%ecx
    425d:	99                   	cltd   
    425e:	f7 f9                	idiv   %ecx
    4260:	89 d0                	mov    %edx,%eax
    4262:	eb 04                	jmp    4268 <safe_mod_func_int8_t_s_s+0x37>
    4264:	0f b6 45 fc          	movzbl -0x4(%rbp),%eax
    4268:	5d                   	pop    %rbp
    4269:	c3                   	retq   

000000000000426a <safe_div_func_int8_t_s_s>:
    426a:	f3 0f 1e fa          	endbr64 
    426e:	55                   	push   %rbp
    426f:	48 89 e5             	mov    %rsp,%rbp
    4272:	89 fa                	mov    %edi,%edx
    4274:	89 f0                	mov    %esi,%eax
    4276:	88 55 fc             	mov    %dl,-0x4(%rbp)
    4279:	88 45 f8             	mov    %al,-0x8(%rbp)
    427c:	80 7d f8 00          	cmpb   $0x0,-0x8(%rbp)
    4280:	74 19                	je     429b <safe_div_func_int8_t_s_s+0x31>
    4282:	80 7d fc 80          	cmpb   $0x80,-0x4(%rbp)
    4286:	75 06                	jne    428e <safe_div_func_int8_t_s_s+0x24>
    4288:	80 7d f8 ff          	cmpb   $0xff,-0x8(%rbp)
    428c:	74 0d                	je     429b <safe_div_func_int8_t_s_s+0x31>
    428e:	0f be 45 fc          	movsbl -0x4(%rbp),%eax
    4292:	0f be 4d f8          	movsbl -0x8(%rbp),%ecx
    4296:	99                   	cltd   
    4297:	f7 f9                	idiv   %ecx
    4299:	eb 04                	jmp    429f <safe_div_func_int8_t_s_s+0x35>
    429b:	0f b6 45 fc          	movzbl -0x4(%rbp),%eax
    429f:	5d                   	pop    %rbp
    42a0:	c3                   	retq   

00000000000042a1 <safe_lshift_func_int8_t_s_s>:
    42a1:	f3 0f 1e fa          	endbr64 
    42a5:	55                   	push   %rbp
    42a6:	48 89 e5             	mov    %rsp,%rbp
    42a9:	89 f8                	mov    %edi,%eax
    42ab:	89 75 f8             	mov    %esi,-0x8(%rbp)
    42ae:	88 45 fc             	mov    %al,-0x4(%rbp)
    42b1:	80 7d fc 00          	cmpb   $0x0,-0x4(%rbp)
    42b5:	78 31                	js     42e8 <safe_lshift_func_int8_t_s_s+0x47>
    42b7:	83 7d f8 00          	cmpl   $0x0,-0x8(%rbp)
    42bb:	78 2b                	js     42e8 <safe_lshift_func_int8_t_s_s+0x47>
    42bd:	83 7d f8 1f          	cmpl   $0x1f,-0x8(%rbp)
    42c1:	7f 25                	jg     42e8 <safe_lshift_func_int8_t_s_s+0x47>
    42c3:	0f be 55 fc          	movsbl -0x4(%rbp),%edx
    42c7:	8b 45 f8             	mov    -0x8(%rbp),%eax
    42ca:	be 7f 00 00 00       	mov    $0x7f,%esi
    42cf:	89 c1                	mov    %eax,%ecx
    42d1:	d3 fe                	sar    %cl,%esi
    42d3:	89 f0                	mov    %esi,%eax
    42d5:	39 c2                	cmp    %eax,%edx
    42d7:	7f 0f                	jg     42e8 <safe_lshift_func_int8_t_s_s+0x47>
    42d9:	0f be 55 fc          	movsbl -0x4(%rbp),%edx
    42dd:	8b 45 f8             	mov    -0x8(%rbp),%eax
    42e0:	89 c1                	mov    %eax,%ecx
    42e2:	d3 e2                	shl    %cl,%edx
    42e4:	89 d0                	mov    %edx,%eax
    42e6:	eb 04                	jmp    42ec <safe_lshift_func_int8_t_s_s+0x4b>
    42e8:	0f b6 45 fc          	movzbl -0x4(%rbp),%eax
    42ec:	5d                   	pop    %rbp
    42ed:	c3                   	retq   

00000000000042ee <safe_lshift_func_int8_t_s_u>:
    42ee:	f3 0f 1e fa          	endbr64 
    42f2:	55                   	push   %rbp
    42f3:	48 89 e5             	mov    %rsp,%rbp
    42f6:	89 f8                	mov    %edi,%eax
    42f8:	89 75 f8             	mov    %esi,-0x8(%rbp)
    42fb:	88 45 fc             	mov    %al,-0x4(%rbp)
    42fe:	80 7d fc 00          	cmpb   $0x0,-0x4(%rbp)
    4302:	78 2b                	js     432f <safe_lshift_func_int8_t_s_u+0x41>
    4304:	83 7d f8 1f          	cmpl   $0x1f,-0x8(%rbp)
    4308:	77 25                	ja     432f <safe_lshift_func_int8_t_s_u+0x41>
    430a:	0f be 55 fc          	movsbl -0x4(%rbp),%edx
    430e:	8b 45 f8             	mov    -0x8(%rbp),%eax
    4311:	be 7f 00 00 00       	mov    $0x7f,%esi
    4316:	89 c1                	mov    %eax,%ecx
    4318:	d3 fe                	sar    %cl,%esi
    431a:	89 f0                	mov    %esi,%eax
    431c:	39 c2                	cmp    %eax,%edx
    431e:	7f 0f                	jg     432f <safe_lshift_func_int8_t_s_u+0x41>
    4320:	0f be 55 fc          	movsbl -0x4(%rbp),%edx
    4324:	8b 45 f8             	mov    -0x8(%rbp),%eax
    4327:	89 c1                	mov    %eax,%ecx
    4329:	d3 e2                	shl    %cl,%edx
    432b:	89 d0                	mov    %edx,%eax
    432d:	eb 04                	jmp    4333 <safe_lshift_func_int8_t_s_u+0x45>
    432f:	0f b6 45 fc          	movzbl -0x4(%rbp),%eax
    4333:	5d                   	pop    %rbp
    4334:	c3                   	retq   

0000000000004335 <safe_rshift_func_int8_t_s_s>:
    4335:	f3 0f 1e fa          	endbr64 
    4339:	55                   	push   %rbp
    433a:	48 89 e5             	mov    %rsp,%rbp
    433d:	89 f8                	mov    %edi,%eax
    433f:	89 75 f8             	mov    %esi,-0x8(%rbp)
    4342:	88 45 fc             	mov    %al,-0x4(%rbp)
    4345:	80 7d fc 00          	cmpb   $0x0,-0x4(%rbp)
    4349:	78 1b                	js     4366 <safe_rshift_func_int8_t_s_s+0x31>
    434b:	83 7d f8 00          	cmpl   $0x0,-0x8(%rbp)
    434f:	78 15                	js     4366 <safe_rshift_func_int8_t_s_s+0x31>
    4351:	83 7d f8 1f          	cmpl   $0x1f,-0x8(%rbp)
    4355:	7f 0f                	jg     4366 <safe_rshift_func_int8_t_s_s+0x31>
    4357:	0f be 55 fc          	movsbl -0x4(%rbp),%edx
    435b:	8b 45 f8             	mov    -0x8(%rbp),%eax
    435e:	89 c1                	mov    %eax,%ecx
    4360:	d3 fa                	sar    %cl,%edx
    4362:	89 d0                	mov    %edx,%eax
    4364:	eb 04                	jmp    436a <safe_rshift_func_int8_t_s_s+0x35>
    4366:	0f b6 45 fc          	movzbl -0x4(%rbp),%eax
    436a:	5d                   	pop    %rbp
    436b:	c3                   	retq   

000000000000436c <safe_rshift_func_int8_t_s_u>:
    436c:	f3 0f 1e fa          	endbr64 
    4370:	55                   	push   %rbp
    4371:	48 89 e5             	mov    %rsp,%rbp
    4374:	89 f8                	mov    %edi,%eax
    4376:	89 75 f8             	mov    %esi,-0x8(%rbp)
    4379:	88 45 fc             	mov    %al,-0x4(%rbp)
    437c:	80 7d fc 00          	cmpb   $0x0,-0x4(%rbp)
    4380:	78 15                	js     4397 <safe_rshift_func_int8_t_s_u+0x2b>
    4382:	83 7d f8 1f          	cmpl   $0x1f,-0x8(%rbp)
    4386:	77 0f                	ja     4397 <safe_rshift_func_int8_t_s_u+0x2b>
    4388:	0f be 55 fc          	movsbl -0x4(%rbp),%edx
    438c:	8b 45 f8             	mov    -0x8(%rbp),%eax
    438f:	89 c1                	mov    %eax,%ecx
    4391:	d3 fa                	sar    %cl,%edx
    4393:	89 d0                	mov    %edx,%eax
    4395:	eb 04                	jmp    439b <safe_rshift_func_int8_t_s_u+0x2f>
    4397:	0f b6 45 fc          	movzbl -0x4(%rbp),%eax
    439b:	5d                   	pop    %rbp
    439c:	c3                   	retq   

000000000000439d <safe_unary_minus_func_int16_t_s>:
    439d:	f3 0f 1e fa          	endbr64 
    43a1:	55                   	push   %rbp
    43a2:	48 89 e5             	mov    %rsp,%rbp
    43a5:	89 f8                	mov    %edi,%eax
    43a7:	66 89 45 fc          	mov    %ax,-0x4(%rbp)
    43ab:	0f b7 45 fc          	movzwl -0x4(%rbp),%eax
    43af:	f7 d8                	neg    %eax
    43b1:	5d                   	pop    %rbp
    43b2:	c3                   	retq   

00000000000043b3 <safe_add_func_int16_t_s_s>:
    43b3:	f3 0f 1e fa          	endbr64 
    43b7:	55                   	push   %rbp
    43b8:	48 89 e5             	mov    %rsp,%rbp
    43bb:	89 fa                	mov    %edi,%edx
    43bd:	89 f0                	mov    %esi,%eax
    43bf:	66 89 55 fc          	mov    %dx,-0x4(%rbp)
    43c3:	66 89 45 f8          	mov    %ax,-0x8(%rbp)
    43c7:	0f b7 55 fc          	movzwl -0x4(%rbp),%edx
    43cb:	0f b7 45 f8          	movzwl -0x8(%rbp),%eax
    43cf:	01 d0                	add    %edx,%eax
    43d1:	5d                   	pop    %rbp
    43d2:	c3                   	retq   

00000000000043d3 <safe_sub_func_int16_t_s_s>:
    43d3:	f3 0f 1e fa          	endbr64 
    43d7:	55                   	push   %rbp
    43d8:	48 89 e5             	mov    %rsp,%rbp
    43db:	89 fa                	mov    %edi,%edx
    43dd:	89 f0                	mov    %esi,%eax
    43df:	66 89 55 fc          	mov    %dx,-0x4(%rbp)
    43e3:	66 89 45 f8          	mov    %ax,-0x8(%rbp)
    43e7:	0f b7 55 fc          	movzwl -0x4(%rbp),%edx
    43eb:	0f b7 45 f8          	movzwl -0x8(%rbp),%eax
    43ef:	29 c2                	sub    %eax,%edx
    43f1:	89 d0                	mov    %edx,%eax
    43f3:	5d                   	pop    %rbp
    43f4:	c3                   	retq   

00000000000043f5 <safe_mul_func_int16_t_s_s>:
    43f5:	f3 0f 1e fa          	endbr64 
    43f9:	55                   	push   %rbp
    43fa:	48 89 e5             	mov    %rsp,%rbp
    43fd:	89 fa                	mov    %edi,%edx
    43ff:	89 f0                	mov    %esi,%eax
    4401:	66 89 55 fc          	mov    %dx,-0x4(%rbp)
    4405:	66 89 45 f8          	mov    %ax,-0x8(%rbp)
    4409:	0f b7 55 fc          	movzwl -0x4(%rbp),%edx
    440d:	0f b7 45 f8          	movzwl -0x8(%rbp),%eax
    4411:	0f af c2             	imul   %edx,%eax
    4414:	5d                   	pop    %rbp
    4415:	c3                   	retq   

0000000000004416 <safe_mod_func_int16_t_s_s>:
    4416:	f3 0f 1e fa          	endbr64 
    441a:	55                   	push   %rbp
    441b:	48 89 e5             	mov    %rsp,%rbp
    441e:	89 fa                	mov    %edi,%edx
    4420:	89 f0                	mov    %esi,%eax
    4422:	66 89 55 fc          	mov    %dx,-0x4(%rbp)
    4426:	66 89 45 f8          	mov    %ax,-0x8(%rbp)
    442a:	66 83 7d f8 00       	cmpw   $0x0,-0x8(%rbp)
    442f:	74 1e                	je     444f <safe_mod_func_int16_t_s_s+0x39>
    4431:	66 81 7d fc 00 80    	cmpw   $0x8000,-0x4(%rbp)
    4437:	75 07                	jne    4440 <safe_mod_func_int16_t_s_s+0x2a>
    4439:	66 83 7d f8 ff       	cmpw   $0xffff,-0x8(%rbp)
    443e:	74 0f                	je     444f <safe_mod_func_int16_t_s_s+0x39>
    4440:	0f bf 45 fc          	movswl -0x4(%rbp),%eax
    4444:	0f bf 4d f8          	movswl -0x8(%rbp),%ecx
    4448:	99                   	cltd   
    4449:	f7 f9                	idiv   %ecx
    444b:	89 d0                	mov    %edx,%eax
    444d:	eb 04                	jmp    4453 <safe_mod_func_int16_t_s_s+0x3d>
    444f:	0f b7 45 fc          	movzwl -0x4(%rbp),%eax
    4453:	5d                   	pop    %rbp
    4454:	c3                   	retq   

0000000000004455 <safe_div_func_int16_t_s_s>:
    4455:	f3 0f 1e fa          	endbr64 
    4459:	55                   	push   %rbp
    445a:	48 89 e5             	mov    %rsp,%rbp
    445d:	89 fa                	mov    %edi,%edx
    445f:	89 f0                	mov    %esi,%eax
    4461:	66 89 55 fc          	mov    %dx,-0x4(%rbp)
    4465:	66 89 45 f8          	mov    %ax,-0x8(%rbp)
    4469:	66 83 7d f8 00       	cmpw   $0x0,-0x8(%rbp)
    446e:	74 1c                	je     448c <safe_div_func_int16_t_s_s+0x37>
    4470:	66 81 7d fc 00 80    	cmpw   $0x8000,-0x4(%rbp)
    4476:	75 07                	jne    447f <safe_div_func_int16_t_s_s+0x2a>
    4478:	66 83 7d f8 ff       	cmpw   $0xffff,-0x8(%rbp)
    447d:	74 0d                	je     448c <safe_div_func_int16_t_s_s+0x37>
    447f:	0f bf 45 fc          	movswl -0x4(%rbp),%eax
    4483:	0f bf 4d f8          	movswl -0x8(%rbp),%ecx
    4487:	99                   	cltd   
    4488:	f7 f9                	idiv   %ecx
    448a:	eb 04                	jmp    4490 <safe_div_func_int16_t_s_s+0x3b>
    448c:	0f b7 45 fc          	movzwl -0x4(%rbp),%eax
    4490:	5d                   	pop    %rbp
    4491:	c3                   	retq   

0000000000004492 <safe_lshift_func_int16_t_s_s>:
    4492:	f3 0f 1e fa          	endbr64 
    4496:	55                   	push   %rbp
    4497:	48 89 e5             	mov    %rsp,%rbp
    449a:	89 f8                	mov    %edi,%eax
    449c:	89 75 f8             	mov    %esi,-0x8(%rbp)
    449f:	66 89 45 fc          	mov    %ax,-0x4(%rbp)
    44a3:	66 83 7d fc 00       	cmpw   $0x0,-0x4(%rbp)
    44a8:	78 31                	js     44db <safe_lshift_func_int16_t_s_s+0x49>
    44aa:	83 7d f8 00          	cmpl   $0x0,-0x8(%rbp)
    44ae:	78 2b                	js     44db <safe_lshift_func_int16_t_s_s+0x49>
    44b0:	83 7d f8 1f          	cmpl   $0x1f,-0x8(%rbp)
    44b4:	7f 25                	jg     44db <safe_lshift_func_int16_t_s_s+0x49>
    44b6:	0f bf 55 fc          	movswl -0x4(%rbp),%edx
    44ba:	8b 45 f8             	mov    -0x8(%rbp),%eax
    44bd:	be ff 7f 00 00       	mov    $0x7fff,%esi
    44c2:	89 c1                	mov    %eax,%ecx
    44c4:	d3 fe                	sar    %cl,%esi
    44c6:	89 f0                	mov    %esi,%eax
    44c8:	39 c2                	cmp    %eax,%edx
    44ca:	7f 0f                	jg     44db <safe_lshift_func_int16_t_s_s+0x49>
    44cc:	0f bf 55 fc          	movswl -0x4(%rbp),%edx
    44d0:	8b 45 f8             	mov    -0x8(%rbp),%eax
    44d3:	89 c1                	mov    %eax,%ecx
    44d5:	d3 e2                	shl    %cl,%edx
    44d7:	89 d0                	mov    %edx,%eax
    44d9:	eb 04                	jmp    44df <safe_lshift_func_int16_t_s_s+0x4d>
    44db:	0f b7 45 fc          	movzwl -0x4(%rbp),%eax
    44df:	5d                   	pop    %rbp
    44e0:	c3                   	retq   

00000000000044e1 <safe_lshift_func_int16_t_s_u>:
    44e1:	f3 0f 1e fa          	endbr64 
    44e5:	55                   	push   %rbp
    44e6:	48 89 e5             	mov    %rsp,%rbp
    44e9:	89 f8                	mov    %edi,%eax
    44eb:	89 75 f8             	mov    %esi,-0x8(%rbp)
    44ee:	66 89 45 fc          	mov    %ax,-0x4(%rbp)
    44f2:	66 83 7d fc 00       	cmpw   $0x0,-0x4(%rbp)
    44f7:	78 2b                	js     4524 <safe_lshift_func_int16_t_s_u+0x43>
    44f9:	83 7d f8 1f          	cmpl   $0x1f,-0x8(%rbp)
    44fd:	77 25                	ja     4524 <safe_lshift_func_int16_t_s_u+0x43>
    44ff:	0f bf 55 fc          	movswl -0x4(%rbp),%edx
    4503:	8b 45 f8             	mov    -0x8(%rbp),%eax
    4506:	be ff 7f 00 00       	mov    $0x7fff,%esi
    450b:	89 c1                	mov    %eax,%ecx
    450d:	d3 fe                	sar    %cl,%esi
    450f:	89 f0                	mov    %esi,%eax
    4511:	39 c2                	cmp    %eax,%edx
    4513:	7f 0f                	jg     4524 <safe_lshift_func_int16_t_s_u+0x43>
    4515:	0f bf 55 fc          	movswl -0x4(%rbp),%edx
    4519:	8b 45 f8             	mov    -0x8(%rbp),%eax
    451c:	89 c1                	mov    %eax,%ecx
    451e:	d3 e2                	shl    %cl,%edx
    4520:	89 d0                	mov    %edx,%eax
    4522:	eb 04                	jmp    4528 <safe_lshift_func_int16_t_s_u+0x47>
    4524:	0f b7 45 fc          	movzwl -0x4(%rbp),%eax
    4528:	5d                   	pop    %rbp
    4529:	c3                   	retq   

000000000000452a <safe_rshift_func_int16_t_s_s>:
    452a:	f3 0f 1e fa          	endbr64 
    452e:	55                   	push   %rbp
    452f:	48 89 e5             	mov    %rsp,%rbp
    4532:	89 f8                	mov    %edi,%eax
    4534:	89 75 f8             	mov    %esi,-0x8(%rbp)
    4537:	66 89 45 fc          	mov    %ax,-0x4(%rbp)
    453b:	66 83 7d fc 00       	cmpw   $0x0,-0x4(%rbp)
    4540:	78 1b                	js     455d <safe_rshift_func_int16_t_s_s+0x33>
    4542:	83 7d f8 00          	cmpl   $0x0,-0x8(%rbp)
    4546:	78 15                	js     455d <safe_rshift_func_int16_t_s_s+0x33>
    4548:	83 7d f8 1f          	cmpl   $0x1f,-0x8(%rbp)
    454c:	7f 0f                	jg     455d <safe_rshift_func_int16_t_s_s+0x33>
    454e:	0f bf 55 fc          	movswl -0x4(%rbp),%edx
    4552:	8b 45 f8             	mov    -0x8(%rbp),%eax
    4555:	89 c1                	mov    %eax,%ecx
    4557:	d3 fa                	sar    %cl,%edx
    4559:	89 d0                	mov    %edx,%eax
    455b:	eb 04                	jmp    4561 <safe_rshift_func_int16_t_s_s+0x37>
    455d:	0f b7 45 fc          	movzwl -0x4(%rbp),%eax
    4561:	5d                   	pop    %rbp
    4562:	c3                   	retq   

0000000000004563 <safe_rshift_func_int16_t_s_u>:
    4563:	f3 0f 1e fa          	endbr64 
    4567:	55                   	push   %rbp
    4568:	48 89 e5             	mov    %rsp,%rbp
    456b:	89 f8                	mov    %edi,%eax
    456d:	89 75 f8             	mov    %esi,-0x8(%rbp)
    4570:	66 89 45 fc          	mov    %ax,-0x4(%rbp)
    4574:	66 83 7d fc 00       	cmpw   $0x0,-0x4(%rbp)
    4579:	78 15                	js     4590 <safe_rshift_func_int16_t_s_u+0x2d>
    457b:	83 7d f8 1f          	cmpl   $0x1f,-0x8(%rbp)
    457f:	77 0f                	ja     4590 <safe_rshift_func_int16_t_s_u+0x2d>
    4581:	0f bf 55 fc          	movswl -0x4(%rbp),%edx
    4585:	8b 45 f8             	mov    -0x8(%rbp),%eax
    4588:	89 c1                	mov    %eax,%ecx
    458a:	d3 fa                	sar    %cl,%edx
    458c:	89 d0                	mov    %edx,%eax
    458e:	eb 04                	jmp    4594 <safe_rshift_func_int16_t_s_u+0x31>
    4590:	0f b7 45 fc          	movzwl -0x4(%rbp),%eax
    4594:	5d                   	pop    %rbp
    4595:	c3                   	retq   

0000000000004596 <safe_unary_minus_func_int32_t_s>:
    4596:	f3 0f 1e fa          	endbr64 
    459a:	55                   	push   %rbp
    459b:	48 89 e5             	mov    %rsp,%rbp
    459e:	89 7d fc             	mov    %edi,-0x4(%rbp)
    45a1:	81 7d fc 00 00 00 80 	cmpl   $0x80000000,-0x4(%rbp)
    45a8:	74 07                	je     45b1 <safe_unary_minus_func_int32_t_s+0x1b>
    45aa:	8b 45 fc             	mov    -0x4(%rbp),%eax
    45ad:	f7 d8                	neg    %eax
    45af:	eb 03                	jmp    45b4 <safe_unary_minus_func_int32_t_s+0x1e>
    45b1:	8b 45 fc             	mov    -0x4(%rbp),%eax
    45b4:	5d                   	pop    %rbp
    45b5:	c3                   	retq   

00000000000045b6 <safe_add_func_int32_t_s_s>:
    45b6:	f3 0f 1e fa          	endbr64 
    45ba:	55                   	push   %rbp
    45bb:	48 89 e5             	mov    %rsp,%rbp
    45be:	89 7d fc             	mov    %edi,-0x4(%rbp)
    45c1:	89 75 f8             	mov    %esi,-0x8(%rbp)
    45c4:	83 7d fc 00          	cmpl   $0x0,-0x4(%rbp)
    45c8:	7e 13                	jle    45dd <safe_add_func_int32_t_s_s+0x27>
    45ca:	83 7d f8 00          	cmpl   $0x0,-0x8(%rbp)
    45ce:	7e 0d                	jle    45dd <safe_add_func_int32_t_s_s+0x27>
    45d0:	b8 ff ff ff 7f       	mov    $0x7fffffff,%eax
    45d5:	2b 45 f8             	sub    -0x8(%rbp),%eax
    45d8:	39 45 fc             	cmp    %eax,-0x4(%rbp)
    45db:	7f 23                	jg     4600 <safe_add_func_int32_t_s_s+0x4a>
    45dd:	83 7d fc 00          	cmpl   $0x0,-0x4(%rbp)
    45e1:	79 13                	jns    45f6 <safe_add_func_int32_t_s_s+0x40>
    45e3:	83 7d f8 00          	cmpl   $0x0,-0x8(%rbp)
    45e7:	79 0d                	jns    45f6 <safe_add_func_int32_t_s_s+0x40>
    45e9:	b8 00 00 00 80       	mov    $0x80000000,%eax
    45ee:	2b 45 f8             	sub    -0x8(%rbp),%eax
    45f1:	39 45 fc             	cmp    %eax,-0x4(%rbp)
    45f4:	7c 0a                	jl     4600 <safe_add_func_int32_t_s_s+0x4a>
    45f6:	8b 55 fc             	mov    -0x4(%rbp),%edx
    45f9:	8b 45 f8             	mov    -0x8(%rbp),%eax
    45fc:	01 d0                	add    %edx,%eax
    45fe:	eb 03                	jmp    4603 <safe_add_func_int32_t_s_s+0x4d>
    4600:	8b 45 fc             	mov    -0x4(%rbp),%eax
    4603:	5d                   	pop    %rbp
    4604:	c3                   	retq   

0000000000004605 <safe_sub_func_int32_t_s_s>:
    4605:	f3 0f 1e fa          	endbr64 
    4609:	55                   	push   %rbp
    460a:	48 89 e5             	mov    %rsp,%rbp
    460d:	89 7d fc             	mov    %edi,-0x4(%rbp)
    4610:	89 75 f8             	mov    %esi,-0x8(%rbp)
    4613:	8b 45 fc             	mov    -0x4(%rbp),%eax
    4616:	33 45 f8             	xor    -0x8(%rbp),%eax
    4619:	89 c2                	mov    %eax,%edx
    461b:	8b 45 fc             	mov    -0x4(%rbp),%eax
    461e:	33 45 f8             	xor    -0x8(%rbp),%eax
    4621:	25 00 00 00 80       	and    $0x80000000,%eax
    4626:	33 45 fc             	xor    -0x4(%rbp),%eax
    4629:	2b 45 f8             	sub    -0x8(%rbp),%eax
    462c:	33 45 f8             	xor    -0x8(%rbp),%eax
    462f:	21 d0                	and    %edx,%eax
    4631:	85 c0                	test   %eax,%eax
    4633:	78 08                	js     463d <safe_sub_func_int32_t_s_s+0x38>
    4635:	8b 45 fc             	mov    -0x4(%rbp),%eax
    4638:	2b 45 f8             	sub    -0x8(%rbp),%eax
    463b:	eb 03                	jmp    4640 <safe_sub_func_int32_t_s_s+0x3b>
    463d:	8b 45 fc             	mov    -0x4(%rbp),%eax
    4640:	5d                   	pop    %rbp
    4641:	c3                   	retq   

0000000000004642 <safe_mul_func_int32_t_s_s>:
    4642:	f3 0f 1e fa          	endbr64 
    4646:	55                   	push   %rbp
    4647:	48 89 e5             	mov    %rsp,%rbp
    464a:	89 7d fc             	mov    %edi,-0x4(%rbp)
    464d:	89 75 f8             	mov    %esi,-0x8(%rbp)
    4650:	83 7d fc 00          	cmpl   $0x0,-0x4(%rbp)
    4654:	7e 14                	jle    466a <safe_mul_func_int32_t_s_s+0x28>
    4656:	83 7d f8 00          	cmpl   $0x0,-0x8(%rbp)
    465a:	7e 0e                	jle    466a <safe_mul_func_int32_t_s_s+0x28>
    465c:	b8 ff ff ff 7f       	mov    $0x7fffffff,%eax
    4661:	99                   	cltd   
    4662:	f7 7d f8             	idivl  -0x8(%rbp)
    4665:	39 45 fc             	cmp    %eax,-0x4(%rbp)
    4668:	7f 5d                	jg     46c7 <safe_mul_func_int32_t_s_s+0x85>
    466a:	83 7d fc 00          	cmpl   $0x0,-0x4(%rbp)
    466e:	7e 14                	jle    4684 <safe_mul_func_int32_t_s_s+0x42>
    4670:	83 7d f8 00          	cmpl   $0x0,-0x8(%rbp)
    4674:	7f 0e                	jg     4684 <safe_mul_func_int32_t_s_s+0x42>
    4676:	b8 00 00 00 80       	mov    $0x80000000,%eax
    467b:	99                   	cltd   
    467c:	f7 7d fc             	idivl  -0x4(%rbp)
    467f:	39 45 f8             	cmp    %eax,-0x8(%rbp)
    4682:	7c 43                	jl     46c7 <safe_mul_func_int32_t_s_s+0x85>
    4684:	83 7d fc 00          	cmpl   $0x0,-0x4(%rbp)
    4688:	7f 14                	jg     469e <safe_mul_func_int32_t_s_s+0x5c>
    468a:	83 7d f8 00          	cmpl   $0x0,-0x8(%rbp)
    468e:	7e 0e                	jle    469e <safe_mul_func_int32_t_s_s+0x5c>
    4690:	b8 00 00 00 80       	mov    $0x80000000,%eax
    4695:	99                   	cltd   
    4696:	f7 7d f8             	idivl  -0x8(%rbp)
    4699:	39 45 fc             	cmp    %eax,-0x4(%rbp)
    469c:	7c 29                	jl     46c7 <safe_mul_func_int32_t_s_s+0x85>
    469e:	83 7d fc 00          	cmpl   $0x0,-0x4(%rbp)
    46a2:	7f 1a                	jg     46be <safe_mul_func_int32_t_s_s+0x7c>
    46a4:	83 7d f8 00          	cmpl   $0x0,-0x8(%rbp)
    46a8:	7f 14                	jg     46be <safe_mul_func_int32_t_s_s+0x7c>
    46aa:	83 7d fc 00          	cmpl   $0x0,-0x4(%rbp)
    46ae:	74 0e                	je     46be <safe_mul_func_int32_t_s_s+0x7c>
    46b0:	b8 ff ff ff 7f       	mov    $0x7fffffff,%eax
    46b5:	99                   	cltd   
    46b6:	f7 7d fc             	idivl  -0x4(%rbp)
    46b9:	39 45 f8             	cmp    %eax,-0x8(%rbp)
    46bc:	7c 09                	jl     46c7 <safe_mul_func_int32_t_s_s+0x85>
    46be:	8b 45 fc             	mov    -0x4(%rbp),%eax
    46c1:	0f af 45 f8          	imul   -0x8(%rbp),%eax
    46c5:	eb 03                	jmp    46ca <safe_mul_func_int32_t_s_s+0x88>
    46c7:	8b 45 fc             	mov    -0x4(%rbp),%eax
    46ca:	5d                   	pop    %rbp
    46cb:	c3                   	retq   

00000000000046cc <safe_mod_func_int32_t_s_s>:
    46cc:	f3 0f 1e fa          	endbr64 
    46d0:	55                   	push   %rbp
    46d1:	48 89 e5             	mov    %rsp,%rbp
    46d4:	89 7d fc             	mov    %edi,-0x4(%rbp)
    46d7:	89 75 f8             	mov    %esi,-0x8(%rbp)
    46da:	83 7d f8 00          	cmpl   $0x0,-0x8(%rbp)
    46de:	74 1a                	je     46fa <safe_mod_func_int32_t_s_s+0x2e>
    46e0:	81 7d fc 00 00 00 80 	cmpl   $0x80000000,-0x4(%rbp)
    46e7:	75 06                	jne    46ef <safe_mod_func_int32_t_s_s+0x23>
    46e9:	83 7d f8 ff          	cmpl   $0xffffffff,-0x8(%rbp)
    46ed:	74 0b                	je     46fa <safe_mod_func_int32_t_s_s+0x2e>
    46ef:	8b 45 fc             	mov    -0x4(%rbp),%eax
    46f2:	99                   	cltd   
    46f3:	f7 7d f8             	idivl  -0x8(%rbp)
    46f6:	89 d0                	mov    %edx,%eax
    46f8:	eb 03                	jmp    46fd <safe_mod_func_int32_t_s_s+0x31>
    46fa:	8b 45 fc             	mov    -0x4(%rbp),%eax
    46fd:	5d                   	pop    %rbp
    46fe:	c3                   	retq   

00000000000046ff <safe_div_func_int32_t_s_s>:
    46ff:	f3 0f 1e fa          	endbr64 
    4703:	55                   	push   %rbp
    4704:	48 89 e5             	mov    %rsp,%rbp
    4707:	89 7d fc             	mov    %edi,-0x4(%rbp)
    470a:	89 75 f8             	mov    %esi,-0x8(%rbp)
    470d:	83 7d f8 00          	cmpl   $0x0,-0x8(%rbp)
    4711:	74 18                	je     472b <safe_div_func_int32_t_s_s+0x2c>
    4713:	81 7d fc 00 00 00 80 	cmpl   $0x80000000,-0x4(%rbp)
    471a:	75 06                	jne    4722 <safe_div_func_int32_t_s_s+0x23>
    471c:	83 7d f8 ff          	cmpl   $0xffffffff,-0x8(%rbp)
    4720:	74 09                	je     472b <safe_div_func_int32_t_s_s+0x2c>
    4722:	8b 45 fc             	mov    -0x4(%rbp),%eax
    4725:	99                   	cltd   
    4726:	f7 7d f8             	idivl  -0x8(%rbp)
    4729:	eb 03                	jmp    472e <safe_div_func_int32_t_s_s+0x2f>
    472b:	8b 45 fc             	mov    -0x4(%rbp),%eax
    472e:	5d                   	pop    %rbp
    472f:	c3                   	retq   

0000000000004730 <safe_lshift_func_int32_t_s_s>:
    4730:	f3 0f 1e fa          	endbr64 
    4734:	55                   	push   %rbp
    4735:	48 89 e5             	mov    %rsp,%rbp
    4738:	89 7d fc             	mov    %edi,-0x4(%rbp)
    473b:	89 75 f8             	mov    %esi,-0x8(%rbp)
    473e:	83 7d fc 00          	cmpl   $0x0,-0x4(%rbp)
    4742:	78 2d                	js     4771 <safe_lshift_func_int32_t_s_s+0x41>
    4744:	83 7d f8 00          	cmpl   $0x0,-0x8(%rbp)
    4748:	78 27                	js     4771 <safe_lshift_func_int32_t_s_s+0x41>
    474a:	83 7d f8 1f          	cmpl   $0x1f,-0x8(%rbp)
    474e:	7f 21                	jg     4771 <safe_lshift_func_int32_t_s_s+0x41>
    4750:	8b 45 f8             	mov    -0x8(%rbp),%eax
    4753:	ba ff ff ff 7f       	mov    $0x7fffffff,%edx
    4758:	89 c1                	mov    %eax,%ecx
    475a:	d3 fa                	sar    %cl,%edx
    475c:	89 d0                	mov    %edx,%eax
    475e:	39 45 fc             	cmp    %eax,-0x4(%rbp)
    4761:	7f 0e                	jg     4771 <safe_lshift_func_int32_t_s_s+0x41>
    4763:	8b 45 f8             	mov    -0x8(%rbp),%eax
    4766:	8b 55 fc             	mov    -0x4(%rbp),%edx
    4769:	89 c1                	mov    %eax,%ecx
    476b:	d3 e2                	shl    %cl,%edx
    476d:	89 d0                	mov    %edx,%eax
    476f:	eb 03                	jmp    4774 <safe_lshift_func_int32_t_s_s+0x44>
    4771:	8b 45 fc             	mov    -0x4(%rbp),%eax
    4774:	5d                   	pop    %rbp
    4775:	c3                   	retq   

0000000000004776 <safe_lshift_func_int32_t_s_u>:
    4776:	f3 0f 1e fa          	endbr64 
    477a:	55                   	push   %rbp
    477b:	48 89 e5             	mov    %rsp,%rbp
    477e:	89 7d fc             	mov    %edi,-0x4(%rbp)
    4781:	89 75 f8             	mov    %esi,-0x8(%rbp)
    4784:	83 7d fc 00          	cmpl   $0x0,-0x4(%rbp)
    4788:	78 27                	js     47b1 <safe_lshift_func_int32_t_s_u+0x3b>
    478a:	83 7d f8 1f          	cmpl   $0x1f,-0x8(%rbp)
    478e:	77 21                	ja     47b1 <safe_lshift_func_int32_t_s_u+0x3b>
    4790:	8b 45 f8             	mov    -0x8(%rbp),%eax
    4793:	ba ff ff ff 7f       	mov    $0x7fffffff,%edx
    4798:	89 c1                	mov    %eax,%ecx
    479a:	d3 fa                	sar    %cl,%edx
    479c:	89 d0                	mov    %edx,%eax
    479e:	39 45 fc             	cmp    %eax,-0x4(%rbp)
    47a1:	7f 0e                	jg     47b1 <safe_lshift_func_int32_t_s_u+0x3b>
    47a3:	8b 45 f8             	mov    -0x8(%rbp),%eax
    47a6:	8b 55 fc             	mov    -0x4(%rbp),%edx
    47a9:	89 c1                	mov    %eax,%ecx
    47ab:	d3 e2                	shl    %cl,%edx
    47ad:	89 d0                	mov    %edx,%eax
    47af:	eb 03                	jmp    47b4 <safe_lshift_func_int32_t_s_u+0x3e>
    47b1:	8b 45 fc             	mov    -0x4(%rbp),%eax
    47b4:	5d                   	pop    %rbp
    47b5:	c3                   	retq   

00000000000047b6 <safe_rshift_func_int32_t_s_s>:
    47b6:	f3 0f 1e fa          	endbr64 
    47ba:	55                   	push   %rbp
    47bb:	48 89 e5             	mov    %rsp,%rbp
    47be:	89 7d fc             	mov    %edi,-0x4(%rbp)
    47c1:	89 75 f8             	mov    %esi,-0x8(%rbp)
    47c4:	83 7d fc 00          	cmpl   $0x0,-0x4(%rbp)
    47c8:	78 1a                	js     47e4 <safe_rshift_func_int32_t_s_s+0x2e>
    47ca:	83 7d f8 00          	cmpl   $0x0,-0x8(%rbp)
    47ce:	78 14                	js     47e4 <safe_rshift_func_int32_t_s_s+0x2e>
    47d0:	83 7d f8 1f          	cmpl   $0x1f,-0x8(%rbp)
    47d4:	7f 0e                	jg     47e4 <safe_rshift_func_int32_t_s_s+0x2e>
    47d6:	8b 45 f8             	mov    -0x8(%rbp),%eax
    47d9:	8b 55 fc             	mov    -0x4(%rbp),%edx
    47dc:	89 c1                	mov    %eax,%ecx
    47de:	d3 fa                	sar    %cl,%edx
    47e0:	89 d0                	mov    %edx,%eax
    47e2:	eb 03                	jmp    47e7 <safe_rshift_func_int32_t_s_s+0x31>
    47e4:	8b 45 fc             	mov    -0x4(%rbp),%eax
    47e7:	5d                   	pop    %rbp
    47e8:	c3                   	retq   

00000000000047e9 <safe_rshift_func_int32_t_s_u>:
    47e9:	f3 0f 1e fa          	endbr64 
    47ed:	55                   	push   %rbp
    47ee:	48 89 e5             	mov    %rsp,%rbp
    47f1:	89 7d fc             	mov    %edi,-0x4(%rbp)
    47f4:	89 75 f8             	mov    %esi,-0x8(%rbp)
    47f7:	83 7d fc 00          	cmpl   $0x0,-0x4(%rbp)
    47fb:	78 14                	js     4811 <safe_rshift_func_int32_t_s_u+0x28>
    47fd:	83 7d f8 1f          	cmpl   $0x1f,-0x8(%rbp)
    4801:	77 0e                	ja     4811 <safe_rshift_func_int32_t_s_u+0x28>
    4803:	8b 45 f8             	mov    -0x8(%rbp),%eax
    4806:	8b 55 fc             	mov    -0x4(%rbp),%edx
    4809:	89 c1                	mov    %eax,%ecx
    480b:	d3 fa                	sar    %cl,%edx
    480d:	89 d0                	mov    %edx,%eax
    480f:	eb 03                	jmp    4814 <safe_rshift_func_int32_t_s_u+0x2b>
    4811:	8b 45 fc             	mov    -0x4(%rbp),%eax
    4814:	5d                   	pop    %rbp
    4815:	c3                   	retq   

0000000000004816 <safe_unary_minus_func_int64_t_s>:
    4816:	f3 0f 1e fa          	endbr64 
    481a:	55                   	push   %rbp
    481b:	48 89 e5             	mov    %rsp,%rbp
    481e:	48 89 7d f8          	mov    %rdi,-0x8(%rbp)
    4822:	48 b8 00 00 00 00 00 	movabs $0x8000000000000000,%rax
    4829:	00 00 80 
    482c:	48 39 45 f8          	cmp    %rax,-0x8(%rbp)
    4830:	74 09                	je     483b <safe_unary_minus_func_int64_t_s+0x25>
    4832:	48 8b 45 f8          	mov    -0x8(%rbp),%rax
    4836:	48 f7 d8             	neg    %rax
    4839:	eb 04                	jmp    483f <safe_unary_minus_func_int64_t_s+0x29>
    483b:	48 8b 45 f8          	mov    -0x8(%rbp),%rax
    483f:	5d                   	pop    %rbp
    4840:	c3                   	retq   

0000000000004841 <safe_add_func_int64_t_s_s>:
    4841:	f3 0f 1e fa          	endbr64 
    4845:	55                   	push   %rbp
    4846:	48 89 e5             	mov    %rsp,%rbp
    4849:	48 89 7d f8          	mov    %rdi,-0x8(%rbp)
    484d:	48 89 75 f0          	mov    %rsi,-0x10(%rbp)
    4851:	48 83 7d f8 00       	cmpq   $0x0,-0x8(%rbp)
    4856:	7e 1b                	jle    4873 <safe_add_func_int64_t_s_s+0x32>
    4858:	48 83 7d f0 00       	cmpq   $0x0,-0x10(%rbp)
    485d:	7e 14                	jle    4873 <safe_add_func_int64_t_s_s+0x32>
    485f:	48 b8 ff ff ff ff ff 	movabs $0x7fffffffffffffff,%rax
    4866:	ff ff 7f 
    4869:	48 2b 45 f0          	sub    -0x10(%rbp),%rax
    486d:	48 39 45 f8          	cmp    %rax,-0x8(%rbp)
    4871:	7f 2f                	jg     48a2 <safe_add_func_int64_t_s_s+0x61>
    4873:	48 83 7d f8 00       	cmpq   $0x0,-0x8(%rbp)
    4878:	79 1b                	jns    4895 <safe_add_func_int64_t_s_s+0x54>
    487a:	48 83 7d f0 00       	cmpq   $0x0,-0x10(%rbp)
    487f:	79 14                	jns    4895 <safe_add_func_int64_t_s_s+0x54>
    4881:	48 b8 00 00 00 00 00 	movabs $0x8000000000000000,%rax
    4888:	00 00 80 
    488b:	48 2b 45 f0          	sub    -0x10(%rbp),%rax
    488f:	48 39 45 f8          	cmp    %rax,-0x8(%rbp)
    4893:	7c 0d                	jl     48a2 <safe_add_func_int64_t_s_s+0x61>
    4895:	48 8b 55 f8          	mov    -0x8(%rbp),%rdx
    4899:	48 8b 45 f0          	mov    -0x10(%rbp),%rax
    489d:	48 01 d0             	add    %rdx,%rax
    48a0:	eb 04                	jmp    48a6 <safe_add_func_int64_t_s_s+0x65>
    48a2:	48 8b 45 f8          	mov    -0x8(%rbp),%rax
    48a6:	5d                   	pop    %rbp
    48a7:	c3                   	retq   

00000000000048a8 <safe_sub_func_int64_t_s_s>:
    48a8:	f3 0f 1e fa          	endbr64 
    48ac:	55                   	push   %rbp
    48ad:	48 89 e5             	mov    %rsp,%rbp
    48b0:	48 89 7d f8          	mov    %rdi,-0x8(%rbp)
    48b4:	48 89 75 f0          	mov    %rsi,-0x10(%rbp)
    48b8:	48 8b 45 f8          	mov    -0x8(%rbp),%rax
    48bc:	48 33 45 f0          	xor    -0x10(%rbp),%rax
    48c0:	48 89 c2             	mov    %rax,%rdx
    48c3:	48 8b 45 f8          	mov    -0x8(%rbp),%rax
    48c7:	48 33 45 f0          	xor    -0x10(%rbp),%rax
    48cb:	48 b9 00 00 00 00 00 	movabs $0x8000000000000000,%rcx
    48d2:	00 00 80 
    48d5:	48 21 c8             	and    %rcx,%rax
    48d8:	48 33 45 f8          	xor    -0x8(%rbp),%rax
    48dc:	48 2b 45 f0          	sub    -0x10(%rbp),%rax
    48e0:	48 33 45 f0          	xor    -0x10(%rbp),%rax
    48e4:	48 21 d0             	and    %rdx,%rax
    48e7:	48 85 c0             	test   %rax,%rax
    48ea:	78 0a                	js     48f6 <safe_sub_func_int64_t_s_s+0x4e>
    48ec:	48 8b 45 f8          	mov    -0x8(%rbp),%rax
    48f0:	48 2b 45 f0          	sub    -0x10(%rbp),%rax
    48f4:	eb 04                	jmp    48fa <safe_sub_func_int64_t_s_s+0x52>
    48f6:	48 8b 45 f8          	mov    -0x8(%rbp),%rax
    48fa:	5d                   	pop    %rbp
    48fb:	c3                   	retq   

00000000000048fc <safe_mul_func_int64_t_s_s>:
    48fc:	f3 0f 1e fa          	endbr64 
    4900:	55                   	push   %rbp
    4901:	48 89 e5             	mov    %rsp,%rbp
    4904:	48 89 7d f8          	mov    %rdi,-0x8(%rbp)
    4908:	48 89 75 f0          	mov    %rsi,-0x10(%rbp)
    490c:	48 83 7d f8 00       	cmpq   $0x0,-0x8(%rbp)
    4911:	7e 1d                	jle    4930 <safe_mul_func_int64_t_s_s+0x34>
    4913:	48 83 7d f0 00       	cmpq   $0x0,-0x10(%rbp)
    4918:	7e 16                	jle    4930 <safe_mul_func_int64_t_s_s+0x34>
    491a:	48 b8 ff ff ff ff ff 	movabs $0x7fffffffffffffff,%rax
    4921:	ff ff 7f 
    4924:	48 99                	cqto   
    4926:	48 f7 7d f0          	idivq  -0x10(%rbp)
    492a:	48 39 45 f8          	cmp    %rax,-0x8(%rbp)
    492e:	7f 7e                	jg     49ae <safe_mul_func_int64_t_s_s+0xb2>
    4930:	48 83 7d f8 00       	cmpq   $0x0,-0x8(%rbp)
    4935:	7e 1d                	jle    4954 <safe_mul_func_int64_t_s_s+0x58>
    4937:	48 83 7d f0 00       	cmpq   $0x0,-0x10(%rbp)
    493c:	7f 16                	jg     4954 <safe_mul_func_int64_t_s_s+0x58>
    493e:	48 b8 00 00 00 00 00 	movabs $0x8000000000000000,%rax
    4945:	00 00 80 
    4948:	48 99                	cqto   
    494a:	48 f7 7d f8          	idivq  -0x8(%rbp)
    494e:	48 39 45 f0          	cmp    %rax,-0x10(%rbp)
    4952:	7c 5a                	jl     49ae <safe_mul_func_int64_t_s_s+0xb2>
    4954:	48 83 7d f8 00       	cmpq   $0x0,-0x8(%rbp)
    4959:	7f 1d                	jg     4978 <safe_mul_func_int64_t_s_s+0x7c>
    495b:	48 83 7d f0 00       	cmpq   $0x0,-0x10(%rbp)
    4960:	7e 16                	jle    4978 <safe_mul_func_int64_t_s_s+0x7c>
    4962:	48 b8 00 00 00 00 00 	movabs $0x8000000000000000,%rax
    4969:	00 00 80 
    496c:	48 99                	cqto   
    496e:	48 f7 7d f0          	idivq  -0x10(%rbp)
    4972:	48 39 45 f8          	cmp    %rax,-0x8(%rbp)
    4976:	7c 36                	jl     49ae <safe_mul_func_int64_t_s_s+0xb2>
    4978:	48 83 7d f8 00       	cmpq   $0x0,-0x8(%rbp)
    497d:	7f 24                	jg     49a3 <safe_mul_func_int64_t_s_s+0xa7>
    497f:	48 83 7d f0 00       	cmpq   $0x0,-0x10(%rbp)
    4984:	7f 1d                	jg     49a3 <safe_mul_func_int64_t_s_s+0xa7>
    4986:	48 83 7d f8 00       	cmpq   $0x0,-0x8(%rbp)
    498b:	74 16                	je     49a3 <safe_mul_func_int64_t_s_s+0xa7>
    498d:	48 b8 ff ff ff ff ff 	movabs $0x7fffffffffffffff,%rax
    4994:	ff ff 7f 
    4997:	48 99                	cqto   
    4999:	48 f7 7d f8          	idivq  -0x8(%rbp)
    499d:	48 39 45 f0          	cmp    %rax,-0x10(%rbp)
    49a1:	7c 0b                	jl     49ae <safe_mul_func_int64_t_s_s+0xb2>
    49a3:	48 8b 45 f8          	mov    -0x8(%rbp),%rax
    49a7:	48 0f af 45 f0       	imul   -0x10(%rbp),%rax
    49ac:	eb 04                	jmp    49b2 <safe_mul_func_int64_t_s_s+0xb6>
    49ae:	48 8b 45 f8          	mov    -0x8(%rbp),%rax
    49b2:	5d                   	pop    %rbp
    49b3:	c3                   	retq   

00000000000049b4 <safe_mod_func_int64_t_s_s>:
    49b4:	f3 0f 1e fa          	endbr64 
    49b8:	55                   	push   %rbp
    49b9:	48 89 e5             	mov    %rsp,%rbp
    49bc:	48 89 7d f8          	mov    %rdi,-0x8(%rbp)
    49c0:	48 89 75 f0          	mov    %rsi,-0x10(%rbp)
    49c4:	48 83 7d f0 00       	cmpq   $0x0,-0x10(%rbp)
    49c9:	74 26                	je     49f1 <safe_mod_func_int64_t_s_s+0x3d>
    49cb:	48 b8 00 00 00 00 00 	movabs $0x8000000000000000,%rax
    49d2:	00 00 80 
    49d5:	48 39 45 f8          	cmp    %rax,-0x8(%rbp)
    49d9:	75 07                	jne    49e2 <safe_mod_func_int64_t_s_s+0x2e>
    49db:	48 83 7d f0 ff       	cmpq   $0xffffffffffffffff,-0x10(%rbp)
    49e0:	74 0f                	je     49f1 <safe_mod_func_int64_t_s_s+0x3d>
    49e2:	48 8b 45 f8          	mov    -0x8(%rbp),%rax
    49e6:	48 99                	cqto   
    49e8:	48 f7 7d f0          	idivq  -0x10(%rbp)
    49ec:	48 89 d0             	mov    %rdx,%rax
    49ef:	eb 04                	jmp    49f5 <safe_mod_func_int64_t_s_s+0x41>
    49f1:	48 8b 45 f8          	mov    -0x8(%rbp),%rax
    49f5:	5d                   	pop    %rbp
    49f6:	c3                   	retq   

00000000000049f7 <safe_div_func_int64_t_s_s>:
    49f7:	f3 0f 1e fa          	endbr64 
    49fb:	55                   	push   %rbp
    49fc:	48 89 e5             	mov    %rsp,%rbp
    49ff:	48 89 7d f8          	mov    %rdi,-0x8(%rbp)
    4a03:	48 89 75 f0          	mov    %rsi,-0x10(%rbp)
    4a07:	48 83 7d f0 00       	cmpq   $0x0,-0x10(%rbp)
    4a0c:	74 23                	je     4a31 <safe_div_func_int64_t_s_s+0x3a>
    4a0e:	48 b8 00 00 00 00 00 	movabs $0x8000000000000000,%rax
    4a15:	00 00 80 
    4a18:	48 39 45 f8          	cmp    %rax,-0x8(%rbp)
    4a1c:	75 07                	jne    4a25 <safe_div_func_int64_t_s_s+0x2e>
    4a1e:	48 83 7d f0 ff       	cmpq   $0xffffffffffffffff,-0x10(%rbp)
    4a23:	74 0c                	je     4a31 <safe_div_func_int64_t_s_s+0x3a>
    4a25:	48 8b 45 f8          	mov    -0x8(%rbp),%rax
    4a29:	48 99                	cqto   
    4a2b:	48 f7 7d f0          	idivq  -0x10(%rbp)
    4a2f:	eb 04                	jmp    4a35 <safe_div_func_int64_t_s_s+0x3e>
    4a31:	48 8b 45 f8          	mov    -0x8(%rbp),%rax
    4a35:	5d                   	pop    %rbp
    4a36:	c3                   	retq   

0000000000004a37 <safe_lshift_func_int64_t_s_s>:
    4a37:	f3 0f 1e fa          	endbr64 
    4a3b:	55                   	push   %rbp
    4a3c:	48 89 e5             	mov    %rsp,%rbp
    4a3f:	48 89 7d f8          	mov    %rdi,-0x8(%rbp)
    4a43:	89 75 f4             	mov    %esi,-0xc(%rbp)
    4a46:	48 83 7d f8 00       	cmpq   $0x0,-0x8(%rbp)
    4a4b:	78 38                	js     4a85 <safe_lshift_func_int64_t_s_s+0x4e>
    4a4d:	83 7d f4 00          	cmpl   $0x0,-0xc(%rbp)
    4a51:	78 32                	js     4a85 <safe_lshift_func_int64_t_s_s+0x4e>
    4a53:	83 7d f4 1f          	cmpl   $0x1f,-0xc(%rbp)
    4a57:	7f 2c                	jg     4a85 <safe_lshift_func_int64_t_s_s+0x4e>
    4a59:	8b 45 f4             	mov    -0xc(%rbp),%eax
    4a5c:	48 ba ff ff ff ff ff 	movabs $0x7fffffffffffffff,%rdx
    4a63:	ff ff 7f 
    4a66:	89 c1                	mov    %eax,%ecx
    4a68:	48 d3 fa             	sar    %cl,%rdx
    4a6b:	48 89 d0             	mov    %rdx,%rax
    4a6e:	48 39 45 f8          	cmp    %rax,-0x8(%rbp)
    4a72:	7f 11                	jg     4a85 <safe_lshift_func_int64_t_s_s+0x4e>
    4a74:	8b 45 f4             	mov    -0xc(%rbp),%eax
    4a77:	48 8b 55 f8          	mov    -0x8(%rbp),%rdx
    4a7b:	89 c1                	mov    %eax,%ecx
    4a7d:	48 d3 e2             	shl    %cl,%rdx
    4a80:	48 89 d0             	mov    %rdx,%rax
    4a83:	eb 04                	jmp    4a89 <safe_lshift_func_int64_t_s_s+0x52>
    4a85:	48 8b 45 f8          	mov    -0x8(%rbp),%rax
    4a89:	5d                   	pop    %rbp
    4a8a:	c3                   	retq   

0000000000004a8b <safe_lshift_func_int64_t_s_u>:
    4a8b:	f3 0f 1e fa          	endbr64 
    4a8f:	55                   	push   %rbp
    4a90:	48 89 e5             	mov    %rsp,%rbp
    4a93:	48 89 7d f8          	mov    %rdi,-0x8(%rbp)
    4a97:	89 75 f4             	mov    %esi,-0xc(%rbp)
    4a9a:	48 83 7d f8 00       	cmpq   $0x0,-0x8(%rbp)
    4a9f:	78 32                	js     4ad3 <safe_lshift_func_int64_t_s_u+0x48>
    4aa1:	83 7d f4 1f          	cmpl   $0x1f,-0xc(%rbp)
    4aa5:	77 2c                	ja     4ad3 <safe_lshift_func_int64_t_s_u+0x48>
    4aa7:	8b 45 f4             	mov    -0xc(%rbp),%eax
    4aaa:	48 ba ff ff ff ff ff 	movabs $0x7fffffffffffffff,%rdx
    4ab1:	ff ff 7f 
    4ab4:	89 c1                	mov    %eax,%ecx
    4ab6:	48 d3 fa             	sar    %cl,%rdx
    4ab9:	48 89 d0             	mov    %rdx,%rax
    4abc:	48 39 45 f8          	cmp    %rax,-0x8(%rbp)
    4ac0:	7f 11                	jg     4ad3 <safe_lshift_func_int64_t_s_u+0x48>
    4ac2:	8b 45 f4             	mov    -0xc(%rbp),%eax
    4ac5:	48 8b 55 f8          	mov    -0x8(%rbp),%rdx
    4ac9:	89 c1                	mov    %eax,%ecx
    4acb:	48 d3 e2             	shl    %cl,%rdx
    4ace:	48 89 d0             	mov    %rdx,%rax
    4ad1:	eb 04                	jmp    4ad7 <safe_lshift_func_int64_t_s_u+0x4c>
    4ad3:	48 8b 45 f8          	mov    -0x8(%rbp),%rax
    4ad7:	5d                   	pop    %rbp
    4ad8:	c3                   	retq   

0000000000004ad9 <safe_rshift_func_int64_t_s_s>:
    4ad9:	f3 0f 1e fa          	endbr64 
    4add:	55                   	push   %rbp
    4ade:	48 89 e5             	mov    %rsp,%rbp
    4ae1:	48 89 7d f8          	mov    %rdi,-0x8(%rbp)
    4ae5:	89 75 f4             	mov    %esi,-0xc(%rbp)
    4ae8:	48 83 7d f8 00       	cmpq   $0x0,-0x8(%rbp)
    4aed:	78 1d                	js     4b0c <safe_rshift_func_int64_t_s_s+0x33>
    4aef:	83 7d f4 00          	cmpl   $0x0,-0xc(%rbp)
    4af3:	78 17                	js     4b0c <safe_rshift_func_int64_t_s_s+0x33>
    4af5:	83 7d f4 1f          	cmpl   $0x1f,-0xc(%rbp)
    4af9:	7f 11                	jg     4b0c <safe_rshift_func_int64_t_s_s+0x33>
    4afb:	8b 45 f4             	mov    -0xc(%rbp),%eax
    4afe:	48 8b 55 f8          	mov    -0x8(%rbp),%rdx
    4b02:	89 c1                	mov    %eax,%ecx
    4b04:	48 d3 fa             	sar    %cl,%rdx
    4b07:	48 89 d0             	mov    %rdx,%rax
    4b0a:	eb 04                	jmp    4b10 <safe_rshift_func_int64_t_s_s+0x37>
    4b0c:	48 8b 45 f8          	mov    -0x8(%rbp),%rax
    4b10:	5d                   	pop    %rbp
    4b11:	c3                   	retq   

0000000000004b12 <safe_rshift_func_int64_t_s_u>:
    4b12:	f3 0f 1e fa          	endbr64 
    4b16:	55                   	push   %rbp
    4b17:	48 89 e5             	mov    %rsp,%rbp
    4b1a:	48 89 7d f8          	mov    %rdi,-0x8(%rbp)
    4b1e:	89 75 f4             	mov    %esi,-0xc(%rbp)
    4b21:	48 83 7d f8 00       	cmpq   $0x0,-0x8(%rbp)
    4b26:	78 17                	js     4b3f <safe_rshift_func_int64_t_s_u+0x2d>
    4b28:	83 7d f4 1f          	cmpl   $0x1f,-0xc(%rbp)
    4b2c:	77 11                	ja     4b3f <safe_rshift_func_int64_t_s_u+0x2d>
    4b2e:	8b 45 f4             	mov    -0xc(%rbp),%eax
    4b31:	48 8b 55 f8          	mov    -0x8(%rbp),%rdx
    4b35:	89 c1                	mov    %eax,%ecx
    4b37:	48 d3 fa             	sar    %cl,%rdx
    4b3a:	48 89 d0             	mov    %rdx,%rax
    4b3d:	eb 04                	jmp    4b43 <safe_rshift_func_int64_t_s_u+0x31>
    4b3f:	48 8b 45 f8          	mov    -0x8(%rbp),%rax
    4b43:	5d                   	pop    %rbp
    4b44:	c3                   	retq   

0000000000004b45 <safe_unary_minus_func_uint8_t_u>:
    4b45:	f3 0f 1e fa          	endbr64 
    4b49:	55                   	push   %rbp
    4b4a:	48 89 e5             	mov    %rsp,%rbp
    4b4d:	89 f8                	mov    %edi,%eax
    4b4f:	88 45 fc             	mov    %al,-0x4(%rbp)
    4b52:	0f b6 45 fc          	movzbl -0x4(%rbp),%eax
    4b56:	f7 d8                	neg    %eax
    4b58:	5d                   	pop    %rbp
    4b59:	c3                   	retq   

0000000000004b5a <safe_add_func_uint8_t_u_u>:
    4b5a:	f3 0f 1e fa          	endbr64 
    4b5e:	55                   	push   %rbp
    4b5f:	48 89 e5             	mov    %rsp,%rbp
    4b62:	89 fa                	mov    %edi,%edx
    4b64:	89 f0                	mov    %esi,%eax
    4b66:	88 55 fc             	mov    %dl,-0x4(%rbp)
    4b69:	88 45 f8             	mov    %al,-0x8(%rbp)
    4b6c:	0f b6 55 fc          	movzbl -0x4(%rbp),%edx
    4b70:	0f b6 45 f8          	movzbl -0x8(%rbp),%eax
    4b74:	01 d0                	add    %edx,%eax
    4b76:	5d                   	pop    %rbp
    4b77:	c3                   	retq   

0000000000004b78 <safe_sub_func_uint8_t_u_u>:
    4b78:	f3 0f 1e fa          	endbr64 
    4b7c:	55                   	push   %rbp
    4b7d:	48 89 e5             	mov    %rsp,%rbp
    4b80:	89 fa                	mov    %edi,%edx
    4b82:	89 f0                	mov    %esi,%eax
    4b84:	88 55 fc             	mov    %dl,-0x4(%rbp)
    4b87:	88 45 f8             	mov    %al,-0x8(%rbp)
    4b8a:	0f b6 45 fc          	movzbl -0x4(%rbp),%eax
    4b8e:	2a 45 f8             	sub    -0x8(%rbp),%al
    4b91:	5d                   	pop    %rbp
    4b92:	c3                   	retq   

0000000000004b93 <safe_mul_func_uint8_t_u_u>:
    4b93:	f3 0f 1e fa          	endbr64 
    4b97:	55                   	push   %rbp
    4b98:	48 89 e5             	mov    %rsp,%rbp
    4b9b:	89 fa                	mov    %edi,%edx
    4b9d:	89 f0                	mov    %esi,%eax
    4b9f:	88 55 fc             	mov    %dl,-0x4(%rbp)
    4ba2:	88 45 f8             	mov    %al,-0x8(%rbp)
    4ba5:	0f b6 45 fc          	movzbl -0x4(%rbp),%eax
    4ba9:	f6 65 f8             	mulb   -0x8(%rbp)
    4bac:	5d                   	pop    %rbp
    4bad:	c3                   	retq   

0000000000004bae <safe_mod_func_uint8_t_u_u>:
    4bae:	f3 0f 1e fa          	endbr64 
    4bb2:	55                   	push   %rbp
    4bb3:	48 89 e5             	mov    %rsp,%rbp
    4bb6:	89 fa                	mov    %edi,%edx
    4bb8:	89 f0                	mov    %esi,%eax
    4bba:	88 55 fc             	mov    %dl,-0x4(%rbp)
    4bbd:	88 45 f8             	mov    %al,-0x8(%rbp)
    4bc0:	80 7d f8 00          	cmpb   $0x0,-0x8(%rbp)
    4bc4:	74 0f                	je     4bd5 <safe_mod_func_uint8_t_u_u+0x27>
    4bc6:	0f b6 45 fc          	movzbl -0x4(%rbp),%eax
    4bca:	0f b6 c0             	movzbl %al,%eax
    4bcd:	f6 75 f8             	divb   -0x8(%rbp)
    4bd0:	0f b6 c4             	movzbl %ah,%eax
    4bd3:	eb 04                	jmp    4bd9 <safe_mod_func_uint8_t_u_u+0x2b>
    4bd5:	0f b6 45 fc          	movzbl -0x4(%rbp),%eax
    4bd9:	5d                   	pop    %rbp
    4bda:	c3                   	retq   

0000000000004bdb <safe_div_func_uint8_t_u_u>:
    4bdb:	f3 0f 1e fa          	endbr64 
    4bdf:	55                   	push   %rbp
    4be0:	48 89 e5             	mov    %rsp,%rbp
    4be3:	89 fa                	mov    %edi,%edx
    4be5:	89 f0                	mov    %esi,%eax
    4be7:	88 55 fc             	mov    %dl,-0x4(%rbp)
    4bea:	88 45 f8             	mov    %al,-0x8(%rbp)
    4bed:	80 7d f8 00          	cmpb   $0x0,-0x8(%rbp)
    4bf1:	74 0c                	je     4bff <safe_div_func_uint8_t_u_u+0x24>
    4bf3:	0f b6 45 fc          	movzbl -0x4(%rbp),%eax
    4bf7:	0f b6 c0             	movzbl %al,%eax
    4bfa:	f6 75 f8             	divb   -0x8(%rbp)
    4bfd:	eb 04                	jmp    4c03 <safe_div_func_uint8_t_u_u+0x28>
    4bff:	0f b6 45 fc          	movzbl -0x4(%rbp),%eax
    4c03:	5d                   	pop    %rbp
    4c04:	c3                   	retq   

0000000000004c05 <safe_lshift_func_uint8_t_u_s>:
    4c05:	f3 0f 1e fa          	endbr64 
    4c09:	55                   	push   %rbp
    4c0a:	48 89 e5             	mov    %rsp,%rbp
    4c0d:	89 f8                	mov    %edi,%eax
    4c0f:	89 75 f8             	mov    %esi,-0x8(%rbp)
    4c12:	88 45 fc             	mov    %al,-0x4(%rbp)
    4c15:	83 7d f8 00          	cmpl   $0x0,-0x8(%rbp)
    4c19:	78 2b                	js     4c46 <safe_lshift_func_uint8_t_u_s+0x41>
    4c1b:	83 7d f8 1f          	cmpl   $0x1f,-0x8(%rbp)
    4c1f:	7f 25                	jg     4c46 <safe_lshift_func_uint8_t_u_s+0x41>
    4c21:	0f b6 55 fc          	movzbl -0x4(%rbp),%edx
    4c25:	8b 45 f8             	mov    -0x8(%rbp),%eax
    4c28:	be ff 00 00 00       	mov    $0xff,%esi
    4c2d:	89 c1                	mov    %eax,%ecx
    4c2f:	d3 fe                	sar    %cl,%esi
    4c31:	89 f0                	mov    %esi,%eax
    4c33:	39 c2                	cmp    %eax,%edx
    4c35:	7f 0f                	jg     4c46 <safe_lshift_func_uint8_t_u_s+0x41>
    4c37:	0f b6 55 fc          	movzbl -0x4(%rbp),%edx
    4c3b:	8b 45 f8             	mov    -0x8(%rbp),%eax
    4c3e:	89 c1                	mov    %eax,%ecx
    4c40:	d3 e2                	shl    %cl,%edx
    4c42:	89 d0                	mov    %edx,%eax
    4c44:	eb 04                	jmp    4c4a <safe_lshift_func_uint8_t_u_s+0x45>
    4c46:	0f b6 45 fc          	movzbl -0x4(%rbp),%eax
    4c4a:	5d                   	pop    %rbp
    4c4b:	c3                   	retq   

0000000000004c4c <safe_lshift_func_uint8_t_u_u>:
    4c4c:	f3 0f 1e fa          	endbr64 
    4c50:	55                   	push   %rbp
    4c51:	48 89 e5             	mov    %rsp,%rbp
    4c54:	89 f8                	mov    %edi,%eax
    4c56:	89 75 f8             	mov    %esi,-0x8(%rbp)
    4c59:	88 45 fc             	mov    %al,-0x4(%rbp)
    4c5c:	83 7d f8 1f          	cmpl   $0x1f,-0x8(%rbp)
    4c60:	77 25                	ja     4c87 <safe_lshift_func_uint8_t_u_u+0x3b>
    4c62:	0f b6 55 fc          	movzbl -0x4(%rbp),%edx
    4c66:	8b 45 f8             	mov    -0x8(%rbp),%eax
    4c69:	be ff 00 00 00       	mov    $0xff,%esi
    4c6e:	89 c1                	mov    %eax,%ecx
    4c70:	d3 fe                	sar    %cl,%esi
    4c72:	89 f0                	mov    %esi,%eax
    4c74:	39 c2                	cmp    %eax,%edx
    4c76:	7f 0f                	jg     4c87 <safe_lshift_func_uint8_t_u_u+0x3b>
    4c78:	0f b6 55 fc          	movzbl -0x4(%rbp),%edx
    4c7c:	8b 45 f8             	mov    -0x8(%rbp),%eax
    4c7f:	89 c1                	mov    %eax,%ecx
    4c81:	d3 e2                	shl    %cl,%edx
    4c83:	89 d0                	mov    %edx,%eax
    4c85:	eb 04                	jmp    4c8b <safe_lshift_func_uint8_t_u_u+0x3f>
    4c87:	0f b6 45 fc          	movzbl -0x4(%rbp),%eax
    4c8b:	5d                   	pop    %rbp
    4c8c:	c3                   	retq   

0000000000004c8d <safe_rshift_func_uint8_t_u_s>:
    4c8d:	f3 0f 1e fa          	endbr64 
    4c91:	55                   	push   %rbp
    4c92:	48 89 e5             	mov    %rsp,%rbp
    4c95:	89 f8                	mov    %edi,%eax
    4c97:	89 75 f8             	mov    %esi,-0x8(%rbp)
    4c9a:	88 45 fc             	mov    %al,-0x4(%rbp)
    4c9d:	83 7d f8 00          	cmpl   $0x0,-0x8(%rbp)
    4ca1:	78 15                	js     4cb8 <safe_rshift_func_uint8_t_u_s+0x2b>
    4ca3:	83 7d f8 1f          	cmpl   $0x1f,-0x8(%rbp)
    4ca7:	7f 0f                	jg     4cb8 <safe_rshift_func_uint8_t_u_s+0x2b>
    4ca9:	0f b6 55 fc          	movzbl -0x4(%rbp),%edx
    4cad:	8b 45 f8             	mov    -0x8(%rbp),%eax
    4cb0:	89 c1                	mov    %eax,%ecx
    4cb2:	d3 fa                	sar    %cl,%edx
    4cb4:	89 d0                	mov    %edx,%eax
    4cb6:	eb 04                	jmp    4cbc <safe_rshift_func_uint8_t_u_s+0x2f>
    4cb8:	0f b6 45 fc          	movzbl -0x4(%rbp),%eax
    4cbc:	5d                   	pop    %rbp
    4cbd:	c3                   	retq   

0000000000004cbe <safe_rshift_func_uint8_t_u_u>:
    4cbe:	f3 0f 1e fa          	endbr64 
    4cc2:	55                   	push   %rbp
    4cc3:	48 89 e5             	mov    %rsp,%rbp
    4cc6:	89 f8                	mov    %edi,%eax
    4cc8:	89 75 f8             	mov    %esi,-0x8(%rbp)
    4ccb:	88 45 fc             	mov    %al,-0x4(%rbp)
    4cce:	83 7d f8 1f          	cmpl   $0x1f,-0x8(%rbp)
    4cd2:	77 0f                	ja     4ce3 <safe_rshift_func_uint8_t_u_u+0x25>
    4cd4:	0f b6 55 fc          	movzbl -0x4(%rbp),%edx
    4cd8:	8b 45 f8             	mov    -0x8(%rbp),%eax
    4cdb:	89 c1                	mov    %eax,%ecx
    4cdd:	d3 fa                	sar    %cl,%edx
    4cdf:	89 d0                	mov    %edx,%eax
    4ce1:	eb 04                	jmp    4ce7 <safe_rshift_func_uint8_t_u_u+0x29>
    4ce3:	0f b6 45 fc          	movzbl -0x4(%rbp),%eax
    4ce7:	5d                   	pop    %rbp
    4ce8:	c3                   	retq   

0000000000004ce9 <safe_unary_minus_func_uint16_t_u>:
    4ce9:	f3 0f 1e fa          	endbr64 
    4ced:	55                   	push   %rbp
    4cee:	48 89 e5             	mov    %rsp,%rbp
    4cf1:	89 f8                	mov    %edi,%eax
    4cf3:	66 89 45 fc          	mov    %ax,-0x4(%rbp)
    4cf7:	0f b7 45 fc          	movzwl -0x4(%rbp),%eax
    4cfb:	f7 d8                	neg    %eax
    4cfd:	5d                   	pop    %rbp
    4cfe:	c3                   	retq   

0000000000004cff <safe_add_func_uint16_t_u_u>:
    4cff:	f3 0f 1e fa          	endbr64 
    4d03:	55                   	push   %rbp
    4d04:	48 89 e5             	mov    %rsp,%rbp
    4d07:	89 fa                	mov    %edi,%edx
    4d09:	89 f0                	mov    %esi,%eax
    4d0b:	66 89 55 fc          	mov    %dx,-0x4(%rbp)
    4d0f:	66 89 45 f8          	mov    %ax,-0x8(%rbp)
    4d13:	0f b7 55 fc          	movzwl -0x4(%rbp),%edx
    4d17:	0f b7 45 f8          	movzwl -0x8(%rbp),%eax
    4d1b:	01 d0                	add    %edx,%eax
    4d1d:	5d                   	pop    %rbp
    4d1e:	c3                   	retq   

0000000000004d1f <safe_sub_func_uint16_t_u_u>:
    4d1f:	f3 0f 1e fa          	endbr64 
    4d23:	55                   	push   %rbp
    4d24:	48 89 e5             	mov    %rsp,%rbp
    4d27:	89 fa                	mov    %edi,%edx
    4d29:	89 f0                	mov    %esi,%eax
    4d2b:	66 89 55 fc          	mov    %dx,-0x4(%rbp)
    4d2f:	66 89 45 f8          	mov    %ax,-0x8(%rbp)
    4d33:	0f b7 45 fc          	movzwl -0x4(%rbp),%eax
    4d37:	66 2b 45 f8          	sub    -0x8(%rbp),%ax
    4d3b:	5d                   	pop    %rbp
    4d3c:	c3                   	retq   

0000000000004d3d <safe_mul_func_uint16_t_u_u>:
    4d3d:	f3 0f 1e fa          	endbr64 
    4d41:	55                   	push   %rbp
    4d42:	48 89 e5             	mov    %rsp,%rbp
    4d45:	89 fa                	mov    %edi,%edx
    4d47:	89 f0                	mov    %esi,%eax
    4d49:	66 89 55 fc          	mov    %dx,-0x4(%rbp)
    4d4d:	66 89 45 f8          	mov    %ax,-0x8(%rbp)
    4d51:	0f b7 45 fc          	movzwl -0x4(%rbp),%eax
    4d55:	66 0f af 45 f8       	imul   -0x8(%rbp),%ax
    4d5a:	5d                   	pop    %rbp
    4d5b:	c3                   	retq   

0000000000004d5c <safe_mod_func_uint16_t_u_u>:
    4d5c:	f3 0f 1e fa          	endbr64 
    4d60:	55                   	push   %rbp
    4d61:	48 89 e5             	mov    %rsp,%rbp
    4d64:	89 fa                	mov    %edi,%edx
    4d66:	89 f0                	mov    %esi,%eax
    4d68:	66 89 55 fc          	mov    %dx,-0x4(%rbp)
    4d6c:	66 89 45 f8          	mov    %ax,-0x8(%rbp)
    4d70:	66 83 7d f8 00       	cmpw   $0x0,-0x8(%rbp)
    4d75:	74 11                	je     4d88 <safe_mod_func_uint16_t_u_u+0x2c>
    4d77:	0f b7 45 fc          	movzwl -0x4(%rbp),%eax
    4d7b:	ba 00 00 00 00       	mov    $0x0,%edx
    4d80:	66 f7 75 f8          	divw   -0x8(%rbp)
    4d84:	89 d0                	mov    %edx,%eax
    4d86:	eb 04                	jmp    4d8c <safe_mod_func_uint16_t_u_u+0x30>
    4d88:	0f b7 45 fc          	movzwl -0x4(%rbp),%eax
    4d8c:	5d                   	pop    %rbp
    4d8d:	c3                   	retq   

0000000000004d8e <safe_div_func_uint16_t_u_u>:
    4d8e:	f3 0f 1e fa          	endbr64 
    4d92:	55                   	push   %rbp
    4d93:	48 89 e5             	mov    %rsp,%rbp
    4d96:	89 fa                	mov    %edi,%edx
    4d98:	89 f0                	mov    %esi,%eax
    4d9a:	66 89 55 fc          	mov    %dx,-0x4(%rbp)
    4d9e:	66 89 45 f8          	mov    %ax,-0x8(%rbp)
    4da2:	66 83 7d f8 00       	cmpw   $0x0,-0x8(%rbp)
    4da7:	74 0f                	je     4db8 <safe_div_func_uint16_t_u_u+0x2a>
    4da9:	0f b7 45 fc          	movzwl -0x4(%rbp),%eax
    4dad:	ba 00 00 00 00       	mov    $0x0,%edx
    4db2:	66 f7 75 f8          	divw   -0x8(%rbp)
    4db6:	eb 04                	jmp    4dbc <safe_div_func_uint16_t_u_u+0x2e>
    4db8:	0f b7 45 fc          	movzwl -0x4(%rbp),%eax
    4dbc:	5d                   	pop    %rbp
    4dbd:	c3                   	retq   

0000000000004dbe <safe_lshift_func_uint16_t_u_s>:
    4dbe:	f3 0f 1e fa          	endbr64 
    4dc2:	55                   	push   %rbp
    4dc3:	48 89 e5             	mov    %rsp,%rbp
    4dc6:	89 f8                	mov    %edi,%eax
    4dc8:	89 75 f8             	mov    %esi,-0x8(%rbp)
    4dcb:	66 89 45 fc          	mov    %ax,-0x4(%rbp)
    4dcf:	83 7d f8 00          	cmpl   $0x0,-0x8(%rbp)
    4dd3:	78 2b                	js     4e00 <safe_lshift_func_uint16_t_u_s+0x42>
    4dd5:	83 7d f8 1f          	cmpl   $0x1f,-0x8(%rbp)
    4dd9:	7f 25                	jg     4e00 <safe_lshift_func_uint16_t_u_s+0x42>
    4ddb:	0f b7 55 fc          	movzwl -0x4(%rbp),%edx
    4ddf:	8b 45 f8             	mov    -0x8(%rbp),%eax
    4de2:	be ff ff 00 00       	mov    $0xffff,%esi
    4de7:	89 c1                	mov    %eax,%ecx
    4de9:	d3 fe                	sar    %cl,%esi
    4deb:	89 f0                	mov    %esi,%eax
    4ded:	39 c2                	cmp    %eax,%edx
    4def:	7f 0f                	jg     4e00 <safe_lshift_func_uint16_t_u_s+0x42>
    4df1:	0f b7 55 fc          	movzwl -0x4(%rbp),%edx
    4df5:	8b 45 f8             	mov    -0x8(%rbp),%eax
    4df8:	89 c1                	mov    %eax,%ecx
    4dfa:	d3 e2                	shl    %cl,%edx
    4dfc:	89 d0                	mov    %edx,%eax
    4dfe:	eb 04                	jmp    4e04 <safe_lshift_func_uint16_t_u_s+0x46>
    4e00:	0f b7 45 fc          	movzwl -0x4(%rbp),%eax
    4e04:	5d                   	pop    %rbp
    4e05:	c3                   	retq   

0000000000004e06 <safe_lshift_func_uint16_t_u_u>:
    4e06:	f3 0f 1e fa          	endbr64 
    4e0a:	55                   	push   %rbp
    4e0b:	48 89 e5             	mov    %rsp,%rbp
    4e0e:	89 f8                	mov    %edi,%eax
    4e10:	89 75 f8             	mov    %esi,-0x8(%rbp)
    4e13:	66 89 45 fc          	mov    %ax,-0x4(%rbp)
    4e17:	83 7d f8 1f          	cmpl   $0x1f,-0x8(%rbp)
    4e1b:	77 25                	ja     4e42 <safe_lshift_func_uint16_t_u_u+0x3c>
    4e1d:	0f b7 55 fc          	movzwl -0x4(%rbp),%edx
    4e21:	8b 45 f8             	mov    -0x8(%rbp),%eax
    4e24:	be ff ff 00 00       	mov    $0xffff,%esi
    4e29:	89 c1                	mov    %eax,%ecx
    4e2b:	d3 fe                	sar    %cl,%esi
    4e2d:	89 f0                	mov    %esi,%eax
    4e2f:	39 c2                	cmp    %eax,%edx
    4e31:	7f 0f                	jg     4e42 <safe_lshift_func_uint16_t_u_u+0x3c>
    4e33:	0f b7 55 fc          	movzwl -0x4(%rbp),%edx
    4e37:	8b 45 f8             	mov    -0x8(%rbp),%eax
    4e3a:	89 c1                	mov    %eax,%ecx
    4e3c:	d3 e2                	shl    %cl,%edx
    4e3e:	89 d0                	mov    %edx,%eax
    4e40:	eb 04                	jmp    4e46 <safe_lshift_func_uint16_t_u_u+0x40>
    4e42:	0f b7 45 fc          	movzwl -0x4(%rbp),%eax
    4e46:	5d                   	pop    %rbp
    4e47:	c3                   	retq   

0000000000004e48 <safe_rshift_func_uint16_t_u_s>:
    4e48:	f3 0f 1e fa          	endbr64 
    4e4c:	55                   	push   %rbp
    4e4d:	48 89 e5             	mov    %rsp,%rbp
    4e50:	89 f8                	mov    %edi,%eax
    4e52:	89 75 f8             	mov    %esi,-0x8(%rbp)
    4e55:	66 89 45 fc          	mov    %ax,-0x4(%rbp)
    4e59:	83 7d f8 00          	cmpl   $0x0,-0x8(%rbp)
    4e5d:	78 15                	js     4e74 <safe_rshift_func_uint16_t_u_s+0x2c>
    4e5f:	83 7d f8 1f          	cmpl   $0x1f,-0x8(%rbp)
    4e63:	7f 0f                	jg     4e74 <safe_rshift_func_uint16_t_u_s+0x2c>
    4e65:	0f b7 55 fc          	movzwl -0x4(%rbp),%edx
    4e69:	8b 45 f8             	mov    -0x8(%rbp),%eax
    4e6c:	89 c1                	mov    %eax,%ecx
    4e6e:	d3 fa                	sar    %cl,%edx
    4e70:	89 d0                	mov    %edx,%eax
    4e72:	eb 04                	jmp    4e78 <safe_rshift_func_uint16_t_u_s+0x30>
    4e74:	0f b7 45 fc          	movzwl -0x4(%rbp),%eax
    4e78:	5d                   	pop    %rbp
    4e79:	c3                   	retq   

0000000000004e7a <safe_rshift_func_uint16_t_u_u>:
    4e7a:	f3 0f 1e fa          	endbr64 
    4e7e:	55                   	push   %rbp
    4e7f:	48 89 e5             	mov    %rsp,%rbp
    4e82:	89 f8                	mov    %edi,%eax
    4e84:	89 75 f8             	mov    %esi,-0x8(%rbp)
    4e87:	66 89 45 fc          	mov    %ax,-0x4(%rbp)
    4e8b:	83 7d f8 1f          	cmpl   $0x1f,-0x8(%rbp)
    4e8f:	77 0f                	ja     4ea0 <safe_rshift_func_uint16_t_u_u+0x26>
    4e91:	0f b7 55 fc          	movzwl -0x4(%rbp),%edx
    4e95:	8b 45 f8             	mov    -0x8(%rbp),%eax
    4e98:	89 c1                	mov    %eax,%ecx
    4e9a:	d3 fa                	sar    %cl,%edx
    4e9c:	89 d0                	mov    %edx,%eax
    4e9e:	eb 04                	jmp    4ea4 <safe_rshift_func_uint16_t_u_u+0x2a>
    4ea0:	0f b7 45 fc          	movzwl -0x4(%rbp),%eax
    4ea4:	5d                   	pop    %rbp
    4ea5:	c3                   	retq   

0000000000004ea6 <safe_unary_minus_func_uint32_t_u>:
    4ea6:	f3 0f 1e fa          	endbr64 
    4eaa:	55                   	push   %rbp
    4eab:	48 89 e5             	mov    %rsp,%rbp
    4eae:	89 7d fc             	mov    %edi,-0x4(%rbp)
    4eb1:	8b 45 fc             	mov    -0x4(%rbp),%eax
    4eb4:	f7 d8                	neg    %eax
    4eb6:	5d                   	pop    %rbp
    4eb7:	c3                   	retq   

0000000000004eb8 <safe_add_func_uint32_t_u_u>:
    4eb8:	f3 0f 1e fa          	endbr64 
    4ebc:	55                   	push   %rbp
    4ebd:	48 89 e5             	mov    %rsp,%rbp
    4ec0:	89 7d fc             	mov    %edi,-0x4(%rbp)
    4ec3:	89 75 f8             	mov    %esi,-0x8(%rbp)
    4ec6:	8b 55 fc             	mov    -0x4(%rbp),%edx
    4ec9:	8b 45 f8             	mov    -0x8(%rbp),%eax
    4ecc:	01 d0                	add    %edx,%eax
    4ece:	5d                   	pop    %rbp
    4ecf:	c3                   	retq   

0000000000004ed0 <safe_sub_func_uint32_t_u_u>:
    4ed0:	f3 0f 1e fa          	endbr64 
    4ed4:	55                   	push   %rbp
    4ed5:	48 89 e5             	mov    %rsp,%rbp
    4ed8:	89 7d fc             	mov    %edi,-0x4(%rbp)
    4edb:	89 75 f8             	mov    %esi,-0x8(%rbp)
    4ede:	8b 45 fc             	mov    -0x4(%rbp),%eax
    4ee1:	2b 45 f8             	sub    -0x8(%rbp),%eax
    4ee4:	5d                   	pop    %rbp
    4ee5:	c3                   	retq   

0000000000004ee6 <safe_mul_func_uint32_t_u_u>:
    4ee6:	f3 0f 1e fa          	endbr64 
    4eea:	55                   	push   %rbp
    4eeb:	48 89 e5             	mov    %rsp,%rbp
    4eee:	89 7d fc             	mov    %edi,-0x4(%rbp)
    4ef1:	89 75 f8             	mov    %esi,-0x8(%rbp)
    4ef4:	8b 45 fc             	mov    -0x4(%rbp),%eax
    4ef7:	0f af 45 f8          	imul   -0x8(%rbp),%eax
    4efb:	5d                   	pop    %rbp
    4efc:	c3                   	retq   

0000000000004efd <safe_mod_func_uint32_t_u_u>:
    4efd:	f3 0f 1e fa          	endbr64 
    4f01:	55                   	push   %rbp
    4f02:	48 89 e5             	mov    %rsp,%rbp
    4f05:	89 7d fc             	mov    %edi,-0x4(%rbp)
    4f08:	89 75 f8             	mov    %esi,-0x8(%rbp)
    4f0b:	83 7d f8 00          	cmpl   $0x0,-0x8(%rbp)
    4f0f:	74 0f                	je     4f20 <safe_mod_func_uint32_t_u_u+0x23>
    4f11:	8b 45 fc             	mov    -0x4(%rbp),%eax
    4f14:	ba 00 00 00 00       	mov    $0x0,%edx
    4f19:	f7 75 f8             	divl   -0x8(%rbp)
    4f1c:	89 d0                	mov    %edx,%eax
    4f1e:	eb 03                	jmp    4f23 <safe_mod_func_uint32_t_u_u+0x26>
    4f20:	8b 45 fc             	mov    -0x4(%rbp),%eax
    4f23:	5d                   	pop    %rbp
    4f24:	c3                   	retq   

0000000000004f25 <safe_div_func_uint32_t_u_u>:
    4f25:	f3 0f 1e fa          	endbr64 
    4f29:	55                   	push   %rbp
    4f2a:	48 89 e5             	mov    %rsp,%rbp
    4f2d:	89 7d fc             	mov    %edi,-0x4(%rbp)
    4f30:	89 75 f8             	mov    %esi,-0x8(%rbp)
    4f33:	83 7d f8 00          	cmpl   $0x0,-0x8(%rbp)
    4f37:	74 0d                	je     4f46 <safe_div_func_uint32_t_u_u+0x21>
    4f39:	8b 45 fc             	mov    -0x4(%rbp),%eax
    4f3c:	ba 00 00 00 00       	mov    $0x0,%edx
    4f41:	f7 75 f8             	divl   -0x8(%rbp)
    4f44:	eb 03                	jmp    4f49 <safe_div_func_uint32_t_u_u+0x24>
    4f46:	8b 45 fc             	mov    -0x4(%rbp),%eax
    4f49:	5d                   	pop    %rbp
    4f4a:	c3                   	retq   

0000000000004f4b <safe_lshift_func_uint32_t_u_s>:
    4f4b:	f3 0f 1e fa          	endbr64 
    4f4f:	55                   	push   %rbp
    4f50:	48 89 e5             	mov    %rsp,%rbp
    4f53:	89 7d fc             	mov    %edi,-0x4(%rbp)
    4f56:	89 75 f8             	mov    %esi,-0x8(%rbp)
    4f59:	83 7d f8 00          	cmpl   $0x0,-0x8(%rbp)
    4f5d:	78 27                	js     4f86 <safe_lshift_func_uint32_t_u_s+0x3b>
    4f5f:	83 7d f8 1f          	cmpl   $0x1f,-0x8(%rbp)
    4f63:	7f 21                	jg     4f86 <safe_lshift_func_uint32_t_u_s+0x3b>
    4f65:	8b 45 f8             	mov    -0x8(%rbp),%eax
    4f68:	ba ff ff ff ff       	mov    $0xffffffff,%edx
    4f6d:	89 c1                	mov    %eax,%ecx
    4f6f:	d3 ea                	shr    %cl,%edx
    4f71:	89 d0                	mov    %edx,%eax
    4f73:	39 45 fc             	cmp    %eax,-0x4(%rbp)
    4f76:	77 0e                	ja     4f86 <safe_lshift_func_uint32_t_u_s+0x3b>
    4f78:	8b 45 f8             	mov    -0x8(%rbp),%eax
    4f7b:	8b 55 fc             	mov    -0x4(%rbp),%edx
    4f7e:	89 c1                	mov    %eax,%ecx
    4f80:	d3 e2                	shl    %cl,%edx
    4f82:	89 d0                	mov    %edx,%eax
    4f84:	eb 03                	jmp    4f89 <safe_lshift_func_uint32_t_u_s+0x3e>
    4f86:	8b 45 fc             	mov    -0x4(%rbp),%eax
    4f89:	5d                   	pop    %rbp
    4f8a:	c3                   	retq   

0000000000004f8b <safe_lshift_func_uint32_t_u_u>:
    4f8b:	f3 0f 1e fa          	endbr64 
    4f8f:	55                   	push   %rbp
    4f90:	48 89 e5             	mov    %rsp,%rbp
    4f93:	89 7d fc             	mov    %edi,-0x4(%rbp)
    4f96:	89 75 f8             	mov    %esi,-0x8(%rbp)
    4f99:	83 7d f8 1f          	cmpl   $0x1f,-0x8(%rbp)
    4f9d:	77 21                	ja     4fc0 <safe_lshift_func_uint32_t_u_u+0x35>
    4f9f:	8b 45 f8             	mov    -0x8(%rbp),%eax
    4fa2:	ba ff ff ff ff       	mov    $0xffffffff,%edx
    4fa7:	89 c1                	mov    %eax,%ecx
    4fa9:	d3 ea                	shr    %cl,%edx
    4fab:	89 d0                	mov    %edx,%eax
    4fad:	39 45 fc             	cmp    %eax,-0x4(%rbp)
    4fb0:	77 0e                	ja     4fc0 <safe_lshift_func_uint32_t_u_u+0x35>
    4fb2:	8b 45 f8             	mov    -0x8(%rbp),%eax
    4fb5:	8b 55 fc             	mov    -0x4(%rbp),%edx
    4fb8:	89 c1                	mov    %eax,%ecx
    4fba:	d3 e2                	shl    %cl,%edx
    4fbc:	89 d0                	mov    %edx,%eax
    4fbe:	eb 03                	jmp    4fc3 <safe_lshift_func_uint32_t_u_u+0x38>
    4fc0:	8b 45 fc             	mov    -0x4(%rbp),%eax
    4fc3:	5d                   	pop    %rbp
    4fc4:	c3                   	retq   

0000000000004fc5 <safe_rshift_func_uint32_t_u_s>:
    4fc5:	f3 0f 1e fa          	endbr64 
    4fc9:	55                   	push   %rbp
    4fca:	48 89 e5             	mov    %rsp,%rbp
    4fcd:	89 7d fc             	mov    %edi,-0x4(%rbp)
    4fd0:	89 75 f8             	mov    %esi,-0x8(%rbp)
    4fd3:	83 7d f8 00          	cmpl   $0x0,-0x8(%rbp)
    4fd7:	78 14                	js     4fed <safe_rshift_func_uint32_t_u_s+0x28>
    4fd9:	83 7d f8 1f          	cmpl   $0x1f,-0x8(%rbp)
    4fdd:	7f 0e                	jg     4fed <safe_rshift_func_uint32_t_u_s+0x28>
    4fdf:	8b 45 f8             	mov    -0x8(%rbp),%eax
    4fe2:	8b 55 fc             	mov    -0x4(%rbp),%edx
    4fe5:	89 c1                	mov    %eax,%ecx
    4fe7:	d3 ea                	shr    %cl,%edx
    4fe9:	89 d0                	mov    %edx,%eax
    4feb:	eb 03                	jmp    4ff0 <safe_rshift_func_uint32_t_u_s+0x2b>
    4fed:	8b 45 fc             	mov    -0x4(%rbp),%eax
    4ff0:	5d                   	pop    %rbp
    4ff1:	c3                   	retq   

0000000000004ff2 <safe_rshift_func_uint32_t_u_u>:
    4ff2:	f3 0f 1e fa          	endbr64 
    4ff6:	55                   	push   %rbp
    4ff7:	48 89 e5             	mov    %rsp,%rbp
    4ffa:	89 7d fc             	mov    %edi,-0x4(%rbp)
    4ffd:	89 75 f8             	mov    %esi,-0x8(%rbp)
    5000:	83 7d f8 1f          	cmpl   $0x1f,-0x8(%rbp)
    5004:	77 0e                	ja     5014 <safe_rshift_func_uint32_t_u_u+0x22>
    5006:	8b 45 f8             	mov    -0x8(%rbp),%eax
    5009:	8b 55 fc             	mov    -0x4(%rbp),%edx
    500c:	89 c1                	mov    %eax,%ecx
    500e:	d3 ea                	shr    %cl,%edx
    5010:	89 d0                	mov    %edx,%eax
    5012:	eb 03                	jmp    5017 <safe_rshift_func_uint32_t_u_u+0x25>
    5014:	8b 45 fc             	mov    -0x4(%rbp),%eax
    5017:	5d                   	pop    %rbp
    5018:	c3                   	retq   

0000000000005019 <safe_unary_minus_func_uint64_t_u>:
    5019:	f3 0f 1e fa          	endbr64 
    501d:	55                   	push   %rbp
    501e:	48 89 e5             	mov    %rsp,%rbp
    5021:	48 89 7d f8          	mov    %rdi,-0x8(%rbp)
    5025:	48 8b 45 f8          	mov    -0x8(%rbp),%rax
    5029:	48 f7 d8             	neg    %rax
    502c:	5d                   	pop    %rbp
    502d:	c3                   	retq   

000000000000502e <safe_add_func_uint64_t_u_u>:
    502e:	f3 0f 1e fa          	endbr64 
    5032:	55                   	push   %rbp
    5033:	48 89 e5             	mov    %rsp,%rbp
    5036:	48 89 7d f8          	mov    %rdi,-0x8(%rbp)
    503a:	48 89 75 f0          	mov    %rsi,-0x10(%rbp)
    503e:	48 8b 55 f8          	mov    -0x8(%rbp),%rdx
    5042:	48 8b 45 f0          	mov    -0x10(%rbp),%rax
    5046:	48 01 d0             	add    %rdx,%rax
    5049:	5d                   	pop    %rbp
    504a:	c3                   	retq   

000000000000504b <safe_sub_func_uint64_t_u_u>:
    504b:	f3 0f 1e fa          	endbr64 
    504f:	55                   	push   %rbp
    5050:	48 89 e5             	mov    %rsp,%rbp
    5053:	48 89 7d f8          	mov    %rdi,-0x8(%rbp)
    5057:	48 89 75 f0          	mov    %rsi,-0x10(%rbp)
    505b:	48 8b 45 f8          	mov    -0x8(%rbp),%rax
    505f:	48 2b 45 f0          	sub    -0x10(%rbp),%rax
    5063:	5d                   	pop    %rbp
    5064:	c3                   	retq   

0000000000005065 <safe_mul_func_uint64_t_u_u>:
    5065:	f3 0f 1e fa          	endbr64 
    5069:	55                   	push   %rbp
    506a:	48 89 e5             	mov    %rsp,%rbp
    506d:	48 89 7d f8          	mov    %rdi,-0x8(%rbp)
    5071:	48 89 75 f0          	mov    %rsi,-0x10(%rbp)
    5075:	48 8b 45 f8          	mov    -0x8(%rbp),%rax
    5079:	48 0f af 45 f0       	imul   -0x10(%rbp),%rax
    507e:	5d                   	pop    %rbp
    507f:	c3                   	retq   

0000000000005080 <safe_mod_func_uint64_t_u_u>:
    5080:	f3 0f 1e fa          	endbr64 
    5084:	55                   	push   %rbp
    5085:	48 89 e5             	mov    %rsp,%rbp
    5088:	48 89 7d f8          	mov    %rdi,-0x8(%rbp)
    508c:	48 89 75 f0          	mov    %rsi,-0x10(%rbp)
    5090:	48 83 7d f0 00       	cmpq   $0x0,-0x10(%rbp)
    5095:	74 12                	je     50a9 <safe_mod_func_uint64_t_u_u+0x29>
    5097:	48 8b 45 f8          	mov    -0x8(%rbp),%rax
    509b:	ba 00 00 00 00       	mov    $0x0,%edx
    50a0:	48 f7 75 f0          	divq   -0x10(%rbp)
    50a4:	48 89 d0             	mov    %rdx,%rax
    50a7:	eb 04                	jmp    50ad <safe_mod_func_uint64_t_u_u+0x2d>
    50a9:	48 8b 45 f8          	mov    -0x8(%rbp),%rax
    50ad:	5d                   	pop    %rbp
    50ae:	c3                   	retq   

00000000000050af <safe_div_func_uint64_t_u_u>:
    50af:	f3 0f 1e fa          	endbr64 
    50b3:	55                   	push   %rbp
    50b4:	48 89 e5             	mov    %rsp,%rbp
    50b7:	48 89 7d f8          	mov    %rdi,-0x8(%rbp)
    50bb:	48 89 75 f0          	mov    %rsi,-0x10(%rbp)
    50bf:	48 83 7d f0 00       	cmpq   $0x0,-0x10(%rbp)
    50c4:	74 0f                	je     50d5 <safe_div_func_uint64_t_u_u+0x26>
    50c6:	48 8b 45 f8          	mov    -0x8(%rbp),%rax
    50ca:	ba 00 00 00 00       	mov    $0x0,%edx
    50cf:	48 f7 75 f0          	divq   -0x10(%rbp)
    50d3:	eb 04                	jmp    50d9 <safe_div_func_uint64_t_u_u+0x2a>
    50d5:	48 8b 45 f8          	mov    -0x8(%rbp),%rax
    50d9:	5d                   	pop    %rbp
    50da:	c3                   	retq   

00000000000050db <safe_lshift_func_uint64_t_u_s>:
    50db:	f3 0f 1e fa          	endbr64 
    50df:	55                   	push   %rbp
    50e0:	48 89 e5             	mov    %rsp,%rbp
    50e3:	48 89 7d f8          	mov    %rdi,-0x8(%rbp)
    50e7:	89 75 f4             	mov    %esi,-0xc(%rbp)
    50ea:	83 7d f4 00          	cmpl   $0x0,-0xc(%rbp)
    50ee:	78 2f                	js     511f <safe_lshift_func_uint64_t_u_s+0x44>
    50f0:	83 7d f4 1f          	cmpl   $0x1f,-0xc(%rbp)
    50f4:	7f 29                	jg     511f <safe_lshift_func_uint64_t_u_s+0x44>
    50f6:	8b 45 f4             	mov    -0xc(%rbp),%eax
    50f9:	48 c7 c2 ff ff ff ff 	mov    $0xffffffffffffffff,%rdx
    5100:	89 c1                	mov    %eax,%ecx
    5102:	48 d3 ea             	shr    %cl,%rdx
    5105:	48 89 d0             	mov    %rdx,%rax
    5108:	48 39 45 f8          	cmp    %rax,-0x8(%rbp)
    510c:	77 11                	ja     511f <safe_lshift_func_uint64_t_u_s+0x44>
    510e:	8b 45 f4             	mov    -0xc(%rbp),%eax
    5111:	48 8b 55 f8          	mov    -0x8(%rbp),%rdx
    5115:	89 c1                	mov    %eax,%ecx
    5117:	48 d3 e2             	shl    %cl,%rdx
    511a:	48 89 d0             	mov    %rdx,%rax
    511d:	eb 04                	jmp    5123 <safe_lshift_func_uint64_t_u_s+0x48>
    511f:	48 8b 45 f8          	mov    -0x8(%rbp),%rax
    5123:	5d                   	pop    %rbp
    5124:	c3                   	retq   

0000000000005125 <safe_lshift_func_uint64_t_u_u>:
    5125:	f3 0f 1e fa          	endbr64 
    5129:	55                   	push   %rbp
    512a:	48 89 e5             	mov    %rsp,%rbp
    512d:	48 89 7d f8          	mov    %rdi,-0x8(%rbp)
    5131:	89 75 f4             	mov    %esi,-0xc(%rbp)
    5134:	83 7d f4 1f          	cmpl   $0x1f,-0xc(%rbp)
    5138:	77 29                	ja     5163 <safe_lshift_func_uint64_t_u_u+0x3e>
    513a:	8b 45 f4             	mov    -0xc(%rbp),%eax
    513d:	48 c7 c2 ff ff ff ff 	mov    $0xffffffffffffffff,%rdx
    5144:	89 c1                	mov    %eax,%ecx
    5146:	48 d3 ea             	shr    %cl,%rdx
    5149:	48 89 d0             	mov    %rdx,%rax
    514c:	48 39 45 f8          	cmp    %rax,-0x8(%rbp)
    5150:	77 11                	ja     5163 <safe_lshift_func_uint64_t_u_u+0x3e>
    5152:	8b 45 f4             	mov    -0xc(%rbp),%eax
    5155:	48 8b 55 f8          	mov    -0x8(%rbp),%rdx
    5159:	89 c1                	mov    %eax,%ecx
    515b:	48 d3 e2             	shl    %cl,%rdx
    515e:	48 89 d0             	mov    %rdx,%rax
    5161:	eb 04                	jmp    5167 <safe_lshift_func_uint64_t_u_u+0x42>
    5163:	48 8b 45 f8          	mov    -0x8(%rbp),%rax
    5167:	5d                   	pop    %rbp
    5168:	c3                   	retq   

0000000000005169 <safe_rshift_func_uint64_t_u_s>:
    5169:	f3 0f 1e fa          	endbr64 
    516d:	55                   	push   %rbp
    516e:	48 89 e5             	mov    %rsp,%rbp
    5171:	48 89 7d f8          	mov    %rdi,-0x8(%rbp)
    5175:	89 75 f4             	mov    %esi,-0xc(%rbp)
    5178:	83 7d f4 00          	cmpl   $0x0,-0xc(%rbp)
    517c:	78 17                	js     5195 <safe_rshift_func_uint64_t_u_s+0x2c>
    517e:	83 7d f4 1f          	cmpl   $0x1f,-0xc(%rbp)
    5182:	7f 11                	jg     5195 <safe_rshift_func_uint64_t_u_s+0x2c>
    5184:	8b 45 f4             	mov    -0xc(%rbp),%eax
    5187:	48 8b 55 f8          	mov    -0x8(%rbp),%rdx
    518b:	89 c1                	mov    %eax,%ecx
    518d:	48 d3 ea             	shr    %cl,%rdx
    5190:	48 89 d0             	mov    %rdx,%rax
    5193:	eb 04                	jmp    5199 <safe_rshift_func_uint64_t_u_s+0x30>
    5195:	48 8b 45 f8          	mov    -0x8(%rbp),%rax
    5199:	5d                   	pop    %rbp
    519a:	c3                   	retq   

000000000000519b <safe_rshift_func_uint64_t_u_u>:
    519b:	f3 0f 1e fa          	endbr64 
    519f:	55                   	push   %rbp
    51a0:	48 89 e5             	mov    %rsp,%rbp
    51a3:	48 89 7d f8          	mov    %rdi,-0x8(%rbp)
    51a7:	89 75 f4             	mov    %esi,-0xc(%rbp)
    51aa:	83 7d f4 1f          	cmpl   $0x1f,-0xc(%rbp)
    51ae:	77 11                	ja     51c1 <safe_rshift_func_uint64_t_u_u+0x26>
    51b0:	8b 45 f4             	mov    -0xc(%rbp),%eax
    51b3:	48 8b 55 f8          	mov    -0x8(%rbp),%rdx
    51b7:	89 c1                	mov    %eax,%ecx
    51b9:	48 d3 ea             	shr    %cl,%rdx
    51bc:	48 89 d0             	mov    %rdx,%rax
    51bf:	eb 04                	jmp    51c5 <safe_rshift_func_uint64_t_u_u+0x2a>
    51c1:	48 8b 45 f8          	mov    -0x8(%rbp),%rax
    51c5:	5d                   	pop    %rbp
    51c6:	c3                   	retq   

00000000000051c7 <safe_add_func_float_f_f>:
    51c7:	f3 0f 1e fa          	endbr64 
    51cb:	55                   	push   %rbp
    51cc:	48 89 e5             	mov    %rsp,%rbp
    51cf:	f3 0f 11 45 fc       	movss  %xmm0,-0x4(%rbp)
    51d4:	f3 0f 11 4d f8       	movss  %xmm1,-0x8(%rbp)
    51d9:	f3 0f 10 4d fc       	movss  -0x4(%rbp),%xmm1
    51de:	f3 0f 10 05 da ed 00 	movss  0xedda(%rip),%xmm0        # 13fc0 <l_973.4512+0x2a0>
    51e5:	00 
    51e6:	f3 0f 59 c8          	mulss  %xmm0,%xmm1
    51ea:	f3 0f 10 55 f8       	movss  -0x8(%rbp),%xmm2
    51ef:	f3 0f 10 05 c9 ed 00 	movss  0xedc9(%rip),%xmm0        # 13fc0 <l_973.4512+0x2a0>
    51f6:	00 
    51f7:	f3 0f 59 c2          	mulss  %xmm2,%xmm0
    51fb:	f3 0f 58 c1          	addss  %xmm1,%xmm0
    51ff:	f3 0f 10 0d c9 ed 00 	movss  0xedc9(%rip),%xmm1        # 13fd0 <l_973.4512+0x2b0>
    5206:	00 
    5207:	0f 54 c1             	andps  %xmm1,%xmm0
    520a:	0f 2f 05 cf ed 00 00 	comiss 0xedcf(%rip),%xmm0        # 13fe0 <l_973.4512+0x2c0>
    5211:	76 07                	jbe    521a <safe_add_func_float_f_f+0x53>
    5213:	f3 0f 10 45 fc       	movss  -0x4(%rbp),%xmm0
    5218:	eb 0a                	jmp    5224 <safe_add_func_float_f_f+0x5d>
    521a:	f3 0f 10 45 fc       	movss  -0x4(%rbp),%xmm0
    521f:	f3 0f 58 45 f8       	addss  -0x8(%rbp),%xmm0
    5224:	5d                   	pop    %rbp
    5225:	c3                   	retq   

0000000000005226 <safe_sub_func_float_f_f>:
    5226:	f3 0f 1e fa          	endbr64 
    522a:	55                   	push   %rbp
    522b:	48 89 e5             	mov    %rsp,%rbp
    522e:	f3 0f 11 45 fc       	movss  %xmm0,-0x4(%rbp)
    5233:	f3 0f 11 4d f8       	movss  %xmm1,-0x8(%rbp)
    5238:	f3 0f 10 4d fc       	movss  -0x4(%rbp),%xmm1
    523d:	f3 0f 10 05 7b ed 00 	movss  0xed7b(%rip),%xmm0        # 13fc0 <l_973.4512+0x2a0>
    5244:	00 
    5245:	f3 0f 59 c1          	mulss  %xmm1,%xmm0
    5249:	f3 0f 10 55 f8       	movss  -0x8(%rbp),%xmm2
    524e:	f3 0f 10 0d 6a ed 00 	movss  0xed6a(%rip),%xmm1        # 13fc0 <l_973.4512+0x2a0>
    5255:	00 
    5256:	f3 0f 59 ca          	mulss  %xmm2,%xmm1
    525a:	f3 0f 5c c1          	subss  %xmm1,%xmm0
    525e:	f3 0f 10 0d 6a ed 00 	movss  0xed6a(%rip),%xmm1        # 13fd0 <l_973.4512+0x2b0>
    5265:	00 
    5266:	0f 54 c1             	andps  %xmm1,%xmm0
    5269:	0f 2f 05 70 ed 00 00 	comiss 0xed70(%rip),%xmm0        # 13fe0 <l_973.4512+0x2c0>
    5270:	76 07                	jbe    5279 <safe_sub_func_float_f_f+0x53>
    5272:	f3 0f 10 45 fc       	movss  -0x4(%rbp),%xmm0
    5277:	eb 0a                	jmp    5283 <safe_sub_func_float_f_f+0x5d>
    5279:	f3 0f 10 45 fc       	movss  -0x4(%rbp),%xmm0
    527e:	f3 0f 5c 45 f8       	subss  -0x8(%rbp),%xmm0
    5283:	5d                   	pop    %rbp
    5284:	c3                   	retq   

0000000000005285 <safe_mul_func_float_f_f>:
    5285:	f3 0f 1e fa          	endbr64 
    5289:	55                   	push   %rbp
    528a:	48 89 e5             	mov    %rsp,%rbp
    528d:	f3 0f 11 45 fc       	movss  %xmm0,-0x4(%rbp)
    5292:	f3 0f 11 4d f8       	movss  %xmm1,-0x8(%rbp)
    5297:	f3 0f 10 4d fc       	movss  -0x4(%rbp),%xmm1
    529c:	f3 0f 10 05 40 ed 00 	movss  0xed40(%rip),%xmm0        # 13fe4 <l_973.4512+0x2c4>
    52a3:	00 
    52a4:	f3 0f 59 c8          	mulss  %xmm0,%xmm1
    52a8:	f3 0f 10 55 f8       	movss  -0x8(%rbp),%xmm2
    52ad:	f3 0f 10 05 33 ed 00 	movss  0xed33(%rip),%xmm0        # 13fe8 <l_973.4512+0x2c8>
    52b4:	00 
    52b5:	f3 0f 59 c2          	mulss  %xmm2,%xmm0
    52b9:	f3 0f 59 c1          	mulss  %xmm1,%xmm0
    52bd:	f3 0f 10 0d 0b ed 00 	movss  0xed0b(%rip),%xmm1        # 13fd0 <l_973.4512+0x2b0>
    52c4:	00 
    52c5:	0f 54 c1             	andps  %xmm1,%xmm0
    52c8:	0f 2f 05 1d ed 00 00 	comiss 0xed1d(%rip),%xmm0        # 13fec <l_973.4512+0x2cc>
    52cf:	76 07                	jbe    52d8 <safe_mul_func_float_f_f+0x53>
    52d1:	f3 0f 10 45 fc       	movss  -0x4(%rbp),%xmm0
    52d6:	eb 0a                	jmp    52e2 <safe_mul_func_float_f_f+0x5d>
    52d8:	f3 0f 10 45 fc       	movss  -0x4(%rbp),%xmm0
    52dd:	f3 0f 59 45 f8       	mulss  -0x8(%rbp),%xmm0
    52e2:	5d                   	pop    %rbp
    52e3:	c3                   	retq   

00000000000052e4 <safe_div_func_float_f_f>:
    52e4:	f3 0f 1e fa          	endbr64 
    52e8:	55                   	push   %rbp
    52e9:	48 89 e5             	mov    %rsp,%rbp
    52ec:	f3 0f 11 45 fc       	movss  %xmm0,-0x4(%rbp)
    52f1:	f3 0f 11 4d f8       	movss  %xmm1,-0x8(%rbp)
    52f6:	f3 0f 10 45 f8       	movss  -0x8(%rbp),%xmm0
    52fb:	f3 0f 10 0d cd ec 00 	movss  0xeccd(%rip),%xmm1        # 13fd0 <l_973.4512+0x2b0>
    5302:	00 
    5303:	0f 54 c8             	andps  %xmm0,%xmm1
    5306:	f3 0f 10 05 e2 ec 00 	movss  0xece2(%rip),%xmm0        # 13ff0 <l_973.4512+0x2d0>
    530d:	00 
    530e:	0f 2f c1             	comiss %xmm1,%xmm0
    5311:	0f 97 c0             	seta   %al
    5314:	83 f0 01             	xor    $0x1,%eax
    5317:	84 c0                	test   %al,%al
    5319:	75 56                	jne    5371 <safe_div_func_float_f_f+0x8d>
    531b:	66 0f ef c0          	pxor   %xmm0,%xmm0
    531f:	0f 2e 45 f8          	ucomiss -0x8(%rbp),%xmm0
    5323:	7a 0a                	jp     532f <safe_div_func_float_f_f+0x4b>
    5325:	66 0f ef c0          	pxor   %xmm0,%xmm0
    5329:	0f 2e 45 f8          	ucomiss -0x8(%rbp),%xmm0
    532d:	74 4e                	je     537d <safe_div_func_float_f_f+0x99>
    532f:	f3 0f 10 4d fc       	movss  -0x4(%rbp),%xmm1
    5334:	f3 0f 10 05 b8 ec 00 	movss  0xecb8(%rip),%xmm0        # 13ff4 <l_973.4512+0x2d4>
    533b:	00 
    533c:	f3 0f 59 c1          	mulss  %xmm1,%xmm0
    5340:	f3 0f 10 55 f8       	movss  -0x8(%rbp),%xmm2
    5345:	f3 0f 10 0d ab ec 00 	movss  0xecab(%rip),%xmm1        # 13ff8 <l_973.4512+0x2d8>
    534c:	00 
    534d:	f3 0f 59 ca          	mulss  %xmm2,%xmm1
    5351:	f3 0f 5e c1          	divss  %xmm1,%xmm0
    5355:	f3 0f 10 0d 73 ec 00 	movss  0xec73(%rip),%xmm1        # 13fd0 <l_973.4512+0x2b0>
    535c:	00 
    535d:	0f 54 c1             	andps  %xmm1,%xmm0
    5360:	0f 2f 05 95 ec 00 00 	comiss 0xec95(%rip),%xmm0        # 13ffc <l_973.4512+0x2dc>
    5367:	0f 97 c0             	seta   %al
    536a:	83 f0 01             	xor    $0x1,%eax
    536d:	84 c0                	test   %al,%al
    536f:	74 0c                	je     537d <safe_div_func_float_f_f+0x99>
    5371:	f3 0f 10 45 fc       	movss  -0x4(%rbp),%xmm0
    5376:	f3 0f 5e 45 f8       	divss  -0x8(%rbp),%xmm0
    537b:	eb 05                	jmp    5382 <safe_div_func_float_f_f+0x9e>
    537d:	f3 0f 10 45 fc       	movss  -0x4(%rbp),%xmm0
    5382:	5d                   	pop    %rbp
    5383:	c3                   	retq   

0000000000005384 <safe_add_func_double_f_f>:
    5384:	f3 0f 1e fa          	endbr64 
    5388:	55                   	push   %rbp
    5389:	48 89 e5             	mov    %rsp,%rbp
    538c:	f2 0f 11 45 f8       	movsd  %xmm0,-0x8(%rbp)
    5391:	f2 0f 11 4d f0       	movsd  %xmm1,-0x10(%rbp)
    5396:	f2 0f 10 4d f8       	movsd  -0x8(%rbp),%xmm1
    539b:	f2 0f 10 05 5d ec 00 	movsd  0xec5d(%rip),%xmm0        # 14000 <l_973.4512+0x2e0>
    53a2:	00 
    53a3:	f2 0f 59 c8          	mulsd  %xmm0,%xmm1
    53a7:	f2 0f 10 55 f0       	movsd  -0x10(%rbp),%xmm2
    53ac:	f2 0f 10 05 4c ec 00 	movsd  0xec4c(%rip),%xmm0        # 14000 <l_973.4512+0x2e0>
    53b3:	00 
    53b4:	f2 0f 59 c2          	mulsd  %xmm2,%xmm0
    53b8:	f2 0f 58 c1          	addsd  %xmm1,%xmm0
    53bc:	f3 0f 7e 0d 4c ec 00 	movq   0xec4c(%rip),%xmm1        # 14010 <l_973.4512+0x2f0>
    53c3:	00 
    53c4:	66 0f 54 c1          	andpd  %xmm1,%xmm0
    53c8:	66 0f 2f 05 50 ec 00 	comisd 0xec50(%rip),%xmm0        # 14020 <l_973.4512+0x300>
    53cf:	00 
    53d0:	76 07                	jbe    53d9 <safe_add_func_double_f_f+0x55>
    53d2:	f2 0f 10 45 f8       	movsd  -0x8(%rbp),%xmm0
    53d7:	eb 0a                	jmp    53e3 <safe_add_func_double_f_f+0x5f>
    53d9:	f2 0f 10 45 f8       	movsd  -0x8(%rbp),%xmm0
    53de:	f2 0f 58 45 f0       	addsd  -0x10(%rbp),%xmm0
    53e3:	5d                   	pop    %rbp
    53e4:	c3                   	retq   

00000000000053e5 <safe_sub_func_double_f_f>:
    53e5:	f3 0f 1e fa          	endbr64 
    53e9:	55                   	push   %rbp
    53ea:	48 89 e5             	mov    %rsp,%rbp
    53ed:	f2 0f 11 45 f8       	movsd  %xmm0,-0x8(%rbp)
    53f2:	f2 0f 11 4d f0       	movsd  %xmm1,-0x10(%rbp)
    53f7:	f2 0f 10 4d f8       	movsd  -0x8(%rbp),%xmm1
    53fc:	f2 0f 10 05 fc eb 00 	movsd  0xebfc(%rip),%xmm0        # 14000 <l_973.4512+0x2e0>
    5403:	00 
    5404:	f2 0f 59 c1          	mulsd  %xmm1,%xmm0
    5408:	f2 0f 10 55 f0       	movsd  -0x10(%rbp),%xmm2
    540d:	f2 0f 10 0d eb eb 00 	movsd  0xebeb(%rip),%xmm1        # 14000 <l_973.4512+0x2e0>
    5414:	00 
    5415:	f2 0f 59 ca          	mulsd  %xmm2,%xmm1
    5419:	f2 0f 5c c1          	subsd  %xmm1,%xmm0
    541d:	f3 0f 7e 0d eb eb 00 	movq   0xebeb(%rip),%xmm1        # 14010 <l_973.4512+0x2f0>
    5424:	00 
    5425:	66 0f 54 c1          	andpd  %xmm1,%xmm0
    5429:	66 0f 2f 05 ef eb 00 	comisd 0xebef(%rip),%xmm0        # 14020 <l_973.4512+0x300>
    5430:	00 
    5431:	76 07                	jbe    543a <safe_sub_func_double_f_f+0x55>
    5433:	f2 0f 10 45 f8       	movsd  -0x8(%rbp),%xmm0
    5438:	eb 0a                	jmp    5444 <safe_sub_func_double_f_f+0x5f>
    543a:	f2 0f 10 45 f8       	movsd  -0x8(%rbp),%xmm0
    543f:	f2 0f 5c 45 f0       	subsd  -0x10(%rbp),%xmm0
    5444:	5d                   	pop    %rbp
    5445:	c3                   	retq   

0000000000005446 <safe_mul_func_double_f_f>:
    5446:	f3 0f 1e fa          	endbr64 
    544a:	55                   	push   %rbp
    544b:	48 89 e5             	mov    %rsp,%rbp
    544e:	f2 0f 11 45 f8       	movsd  %xmm0,-0x8(%rbp)
    5453:	f2 0f 11 4d f0       	movsd  %xmm1,-0x10(%rbp)
    5458:	f2 0f 10 4d f8       	movsd  -0x8(%rbp),%xmm1
    545d:	f2 0f 10 05 c3 eb 00 	movsd  0xebc3(%rip),%xmm0        # 14028 <l_973.4512+0x308>
    5464:	00 
    5465:	f2 0f 59 c8          	mulsd  %xmm0,%xmm1
    5469:	f2 0f 10 55 f0       	movsd  -0x10(%rbp),%xmm2
    546e:	f2 0f 10 05 ba eb 00 	movsd  0xebba(%rip),%xmm0        # 14030 <l_973.4512+0x310>
    5475:	00 
    5476:	f2 0f 59 c2          	mulsd  %xmm2,%xmm0
    547a:	f2 0f 59 c1          	mulsd  %xmm1,%xmm0
    547e:	f3 0f 7e 0d 8a eb 00 	movq   0xeb8a(%rip),%xmm1        # 14010 <l_973.4512+0x2f0>
    5485:	00 
    5486:	66 0f 54 c1          	andpd  %xmm1,%xmm0
    548a:	66 0f 2f 05 a6 eb 00 	comisd 0xeba6(%rip),%xmm0        # 14038 <l_973.4512+0x318>
    5491:	00 
    5492:	76 07                	jbe    549b <safe_mul_func_double_f_f+0x55>
    5494:	f2 0f 10 45 f8       	movsd  -0x8(%rbp),%xmm0
    5499:	eb 0a                	jmp    54a5 <safe_mul_func_double_f_f+0x5f>
    549b:	f2 0f 10 45 f8       	movsd  -0x8(%rbp),%xmm0
    54a0:	f2 0f 59 45 f0       	mulsd  -0x10(%rbp),%xmm0
    54a5:	5d                   	pop    %rbp
    54a6:	c3                   	retq   

00000000000054a7 <safe_div_func_double_f_f>:
    54a7:	f3 0f 1e fa          	endbr64 
    54ab:	55                   	push   %rbp
    54ac:	48 89 e5             	mov    %rsp,%rbp
    54af:	f2 0f 11 45 f8       	movsd  %xmm0,-0x8(%rbp)
    54b4:	f2 0f 11 4d f0       	movsd  %xmm1,-0x10(%rbp)
    54b9:	f2 0f 10 45 f0       	movsd  -0x10(%rbp),%xmm0
    54be:	f3 0f 7e 0d 4a eb 00 	movq   0xeb4a(%rip),%xmm1        # 14010 <l_973.4512+0x2f0>
    54c5:	00 
    54c6:	66 0f 54 c8          	andpd  %xmm0,%xmm1
    54ca:	f2 0f 10 05 6e eb 00 	movsd  0xeb6e(%rip),%xmm0        # 14040 <l_973.4512+0x320>
    54d1:	00 
    54d2:	66 0f 2f c1          	comisd %xmm1,%xmm0
    54d6:	0f 97 c0             	seta   %al
    54d9:	83 f0 01             	xor    $0x1,%eax
    54dc:	84 c0                	test   %al,%al
    54de:	75 5a                	jne    553a <safe_div_func_double_f_f+0x93>
    54e0:	66 0f ef c0          	pxor   %xmm0,%xmm0
    54e4:	66 0f 2e 45 f0       	ucomisd -0x10(%rbp),%xmm0
    54e9:	7a 0b                	jp     54f6 <safe_div_func_double_f_f+0x4f>
    54eb:	66 0f ef c0          	pxor   %xmm0,%xmm0
    54ef:	66 0f 2e 45 f0       	ucomisd -0x10(%rbp),%xmm0
    54f4:	74 50                	je     5546 <safe_div_func_double_f_f+0x9f>
    54f6:	f2 0f 10 4d f8       	movsd  -0x8(%rbp),%xmm1
    54fb:	f2 0f 10 05 45 eb 00 	movsd  0xeb45(%rip),%xmm0        # 14048 <l_973.4512+0x328>
    5502:	00 
    5503:	f2 0f 59 c1          	mulsd  %xmm1,%xmm0
    5507:	f2 0f 10 55 f0       	movsd  -0x10(%rbp),%xmm2
    550c:	f2 0f 10 0d 3c eb 00 	movsd  0xeb3c(%rip),%xmm1        # 14050 <l_973.4512+0x330>
    5513:	00 
    5514:	f2 0f 59 ca          	mulsd  %xmm2,%xmm1
    5518:	f2 0f 5e c1          	divsd  %xmm1,%xmm0
    551c:	f3 0f 7e 0d ec ea 00 	movq   0xeaec(%rip),%xmm1        # 14010 <l_973.4512+0x2f0>
    5523:	00 
    5524:	66 0f 54 c1          	andpd  %xmm1,%xmm0
    5528:	66 0f 2f 05 28 eb 00 	comisd 0xeb28(%rip),%xmm0        # 14058 <l_973.4512+0x338>
    552f:	00 
    5530:	0f 97 c0             	seta   %al
    5533:	83 f0 01             	xor    $0x1,%eax
    5536:	84 c0                	test   %al,%al
    5538:	74 0c                	je     5546 <safe_div_func_double_f_f+0x9f>
    553a:	f2 0f 10 45 f8       	movsd  -0x8(%rbp),%xmm0
    553f:	f2 0f 5e 45 f0       	divsd  -0x10(%rbp),%xmm0
    5544:	eb 05                	jmp    554b <safe_div_func_double_f_f+0xa4>
    5546:	f2 0f 10 45 f8       	movsd  -0x8(%rbp),%xmm0
    554b:	5d                   	pop    %rbp
    554c:	c3                   	retq   

000000000000554d <safe_convert_func_float_to_int32_t>:
    554d:	f3 0f 1e fa          	endbr64 
    5551:	55                   	push   %rbp
    5552:	48 89 e5             	mov    %rsp,%rbp
    5555:	f3 0f 11 45 fc       	movss  %xmm0,-0x4(%rbp)
    555a:	f3 0f 10 05 fe ea 00 	movss  0xeafe(%rip),%xmm0        # 14060 <l_973.4512+0x340>
    5561:	00 
    5562:	0f 2f 45 fc          	comiss -0x4(%rbp),%xmm0
    5566:	0f 93 c0             	setae  %al
    5569:	83 f0 01             	xor    $0x1,%eax
    556c:	84 c0                	test   %al,%al
    556e:	74 21                	je     5591 <safe_convert_func_float_to_int32_t+0x44>
    5570:	f3 0f 10 45 fc       	movss  -0x4(%rbp),%xmm0
    5575:	0f 2f 05 e8 ea 00 00 	comiss 0xeae8(%rip),%xmm0        # 14064 <l_973.4512+0x344>
    557c:	0f 93 c0             	setae  %al
    557f:	83 f0 01             	xor    $0x1,%eax
    5582:	84 c0                	test   %al,%al
    5584:	74 0b                	je     5591 <safe_convert_func_float_to_int32_t+0x44>
    5586:	f3 0f 10 45 fc       	movss  -0x4(%rbp),%xmm0
    558b:	f3 0f 2c c0          	cvttss2si %xmm0,%eax
    558f:	eb 05                	jmp    5596 <safe_convert_func_float_to_int32_t+0x49>
    5591:	b8 ff ff ff 7f       	mov    $0x7fffffff,%eax
    5596:	5d                   	pop    %rbp
    5597:	c3                   	retq   

0000000000005598 <crc32_gentab>:
    5598:	f3 0f 1e fa          	endbr64 
    559c:	55                   	push   %rbp
    559d:	48 89 e5             	mov    %rsp,%rbp
    55a0:	c7 45 fc 20 83 b8 ed 	movl   $0xedb88320,-0x4(%rbp)
    55a7:	c7 45 f4 00 00 00 00 	movl   $0x0,-0xc(%rbp)
    55ae:	eb 51                	jmp    5601 <crc32_gentab+0x69>
    55b0:	8b 45 f4             	mov    -0xc(%rbp),%eax
    55b3:	89 45 f0             	mov    %eax,-0x10(%rbp)
    55b6:	c7 45 f8 08 00 00 00 	movl   $0x8,-0x8(%rbp)
    55bd:	eb 1e                	jmp    55dd <crc32_gentab+0x45>
    55bf:	8b 45 f0             	mov    -0x10(%rbp),%eax
    55c2:	83 e0 01             	and    $0x1,%eax
    55c5:	85 c0                	test   %eax,%eax
    55c7:	74 0d                	je     55d6 <crc32_gentab+0x3e>
    55c9:	8b 45 f0             	mov    -0x10(%rbp),%eax
    55cc:	d1 e8                	shr    %eax
    55ce:	33 45 fc             	xor    -0x4(%rbp),%eax
    55d1:	89 45 f0             	mov    %eax,-0x10(%rbp)
    55d4:	eb 03                	jmp    55d9 <crc32_gentab+0x41>
    55d6:	d1 6d f0             	shrl   -0x10(%rbp)
    55d9:	83 6d f8 01          	subl   $0x1,-0x8(%rbp)
    55dd:	83 7d f8 00          	cmpl   $0x0,-0x8(%rbp)
    55e1:	7f dc                	jg     55bf <crc32_gentab+0x27>
    55e3:	8b 45 f4             	mov    -0xc(%rbp),%eax
    55e6:	48 98                	cltq   
    55e8:	48 8d 0c 85 00 00 00 	lea    0x0(,%rax,4),%rcx
    55ef:	00 
    55f0:	48 8d 15 49 39 01 00 	lea    0x13949(%rip),%rdx        # 18f40 <crc32_tab>
    55f7:	8b 45 f0             	mov    -0x10(%rbp),%eax
    55fa:	89 04 11             	mov    %eax,(%rcx,%rdx,1)
    55fd:	83 45 f4 01          	addl   $0x1,-0xc(%rbp)
    5601:	81 7d f4 ff 00 00 00 	cmpl   $0xff,-0xc(%rbp)
    5608:	7e a6                	jle    55b0 <crc32_gentab+0x18>
    560a:	90                   	nop
    560b:	90                   	nop
    560c:	5d                   	pop    %rbp
    560d:	c3                   	retq   

000000000000560e <crc32_byte>:
    560e:	f3 0f 1e fa          	endbr64 
    5612:	55                   	push   %rbp
    5613:	48 89 e5             	mov    %rsp,%rbp
    5616:	89 f8                	mov    %edi,%eax
    5618:	88 45 fc             	mov    %al,-0x4(%rbp)
    561b:	8b 05 ff 19 01 00    	mov    0x119ff(%rip),%eax        # 17020 <crc32_context>
    5621:	c1 e8 08             	shr    $0x8,%eax
    5624:	89 c1                	mov    %eax,%ecx
    5626:	0f b6 55 fc          	movzbl -0x4(%rbp),%edx
    562a:	8b 05 f0 19 01 00    	mov    0x119f0(%rip),%eax        # 17020 <crc32_context>
    5630:	31 d0                	xor    %edx,%eax
    5632:	0f b6 c0             	movzbl %al,%eax
    5635:	89 c0                	mov    %eax,%eax
    5637:	48 8d 14 85 00 00 00 	lea    0x0(,%rax,4),%rdx
    563e:	00 
    563f:	48 8d 05 fa 38 01 00 	lea    0x138fa(%rip),%rax        # 18f40 <crc32_tab>
    5646:	8b 04 02             	mov    (%rdx,%rax,1),%eax
    5649:	31 c8                	xor    %ecx,%eax
    564b:	89 05 cf 19 01 00    	mov    %eax,0x119cf(%rip)        # 17020 <crc32_context>
    5651:	90                   	nop
    5652:	5d                   	pop    %rbp
    5653:	c3                   	retq   

0000000000005654 <crc32_8bytes>:
    5654:	f3 0f 1e fa          	endbr64 
    5658:	55                   	push   %rbp
    5659:	48 89 e5             	mov    %rsp,%rbp
    565c:	48 83 ec 08          	sub    $0x8,%rsp
    5660:	48 89 7d f8          	mov    %rdi,-0x8(%rbp)
    5664:	48 8b 45 f8          	mov    -0x8(%rbp),%rax
    5668:	0f b6 c0             	movzbl %al,%eax
    566b:	89 c7                	mov    %eax,%edi
    566d:	e8 9c ff ff ff       	callq  560e <crc32_byte>
    5672:	48 8b 45 f8          	mov    -0x8(%rbp),%rax
    5676:	48 c1 e8 08          	shr    $0x8,%rax
    567a:	0f b6 c0             	movzbl %al,%eax
    567d:	89 c7                	mov    %eax,%edi
    567f:	e8 8a ff ff ff       	callq  560e <crc32_byte>
    5684:	48 8b 45 f8          	mov    -0x8(%rbp),%rax
    5688:	48 c1 e8 10          	shr    $0x10,%rax
    568c:	0f b6 c0             	movzbl %al,%eax
    568f:	89 c7                	mov    %eax,%edi
    5691:	e8 78 ff ff ff       	callq  560e <crc32_byte>
    5696:	48 8b 45 f8          	mov    -0x8(%rbp),%rax
    569a:	48 c1 e8 18          	shr    $0x18,%rax
    569e:	0f b6 c0             	movzbl %al,%eax
    56a1:	89 c7                	mov    %eax,%edi
    56a3:	e8 66 ff ff ff       	callq  560e <crc32_byte>
    56a8:	48 8b 45 f8          	mov    -0x8(%rbp),%rax
    56ac:	48 c1 e8 20          	shr    $0x20,%rax
    56b0:	0f b6 c0             	movzbl %al,%eax
    56b3:	89 c7                	mov    %eax,%edi
    56b5:	e8 54 ff ff ff       	callq  560e <crc32_byte>
    56ba:	48 8b 45 f8          	mov    -0x8(%rbp),%rax
    56be:	48 c1 e8 28          	shr    $0x28,%rax
    56c2:	0f b6 c0             	movzbl %al,%eax
    56c5:	89 c7                	mov    %eax,%edi
    56c7:	e8 42 ff ff ff       	callq  560e <crc32_byte>
    56cc:	48 8b 45 f8          	mov    -0x8(%rbp),%rax
    56d0:	48 c1 e8 30          	shr    $0x30,%rax
    56d4:	0f b6 c0             	movzbl %al,%eax
    56d7:	89 c7                	mov    %eax,%edi
    56d9:	e8 30 ff ff ff       	callq  560e <crc32_byte>
    56de:	48 8b 45 f8          	mov    -0x8(%rbp),%rax
    56e2:	48 c1 e8 38          	shr    $0x38,%rax
    56e6:	0f b6 c0             	movzbl %al,%eax
    56e9:	89 c7                	mov    %eax,%edi
    56eb:	e8 1e ff ff ff       	callq  560e <crc32_byte>
    56f0:	90                   	nop
    56f1:	c9                   	leaveq 
    56f2:	c3                   	retq   

00000000000056f3 <transparent_crc>:
    56f3:	f3 0f 1e fa          	endbr64 
    56f7:	55                   	push   %rbp
    56f8:	48 89 e5             	mov    %rsp,%rbp
    56fb:	48 83 ec 20          	sub    $0x20,%rsp
    56ff:	48 89 7d f8          	mov    %rdi,-0x8(%rbp)
    5703:	48 89 75 f0          	mov    %rsi,-0x10(%rbp)
    5707:	89 55 ec             	mov    %edx,-0x14(%rbp)
    570a:	48 8b 45 f8          	mov    -0x8(%rbp),%rax
    570e:	48 89 c7             	mov    %rax,%rdi
    5711:	e8 3e ff ff ff       	callq  5654 <crc32_8bytes>
    5716:	83 7d ec 00          	cmpl   $0x0,-0x14(%rbp)
    571a:	74 22                	je     573e <transparent_crc+0x4b>
    571c:	8b 05 fe 18 01 00    	mov    0x118fe(%rip),%eax        # 17020 <crc32_context>
    5722:	f7 d0                	not    %eax
    5724:	89 c2                	mov    %eax,%edx
    5726:	48 8b 45 f0          	mov    -0x10(%rbp),%rax
    572a:	48 89 c6             	mov    %rax,%rsi
    572d:	48 8d 3d fc d8 00 00 	lea    0xd8fc(%rip),%rdi        # 13030 <_IO_stdin_used+0x30>
    5734:	b8 00 00 00 00       	mov    $0x0,%eax
    5739:	e8 42 e9 ff ff       	callq  4080 <printf@plt>
    573e:	90                   	nop
    573f:	c9                   	leaveq 
    5740:	c3                   	retq   

0000000000005741 <transparent_crc_bytes>:
    5741:	f3 0f 1e fa          	endbr64 
    5745:	55                   	push   %rbp
    5746:	48 89 e5             	mov    %rsp,%rbp
    5749:	48 83 ec 30          	sub    $0x30,%rsp
    574d:	48 89 7d e8          	mov    %rdi,-0x18(%rbp)
    5751:	89 75 e4             	mov    %esi,-0x1c(%rbp)
    5754:	48 89 55 d8          	mov    %rdx,-0x28(%rbp)
    5758:	89 4d e0             	mov    %ecx,-0x20(%rbp)
    575b:	c7 45 fc 00 00 00 00 	movl   $0x0,-0x4(%rbp)
    5762:	eb 1e                	jmp    5782 <transparent_crc_bytes+0x41>
    5764:	8b 45 fc             	mov    -0x4(%rbp),%eax
    5767:	48 63 d0             	movslq %eax,%rdx
    576a:	48 8b 45 e8          	mov    -0x18(%rbp),%rax
    576e:	48 01 d0             	add    %rdx,%rax
    5771:	0f b6 00             	movzbl (%rax),%eax
    5774:	0f b6 c0             	movzbl %al,%eax
    5777:	89 c7                	mov    %eax,%edi
    5779:	e8 90 fe ff ff       	callq  560e <crc32_byte>
    577e:	83 45 fc 01          	addl   $0x1,-0x4(%rbp)
    5782:	8b 45 fc             	mov    -0x4(%rbp),%eax
    5785:	3b 45 e4             	cmp    -0x1c(%rbp),%eax
    5788:	7c da                	jl     5764 <transparent_crc_bytes+0x23>
    578a:	83 7d e0 00          	cmpl   $0x0,-0x20(%rbp)
    578e:	74 22                	je     57b2 <transparent_crc_bytes+0x71>
    5790:	8b 05 8a 18 01 00    	mov    0x1188a(%rip),%eax        # 17020 <crc32_context>
    5796:	f7 d0                	not    %eax
    5798:	89 c2                	mov    %eax,%edx
    579a:	48 8b 45 d8          	mov    -0x28(%rbp),%rax
    579e:	48 89 c6             	mov    %rax,%rsi
    57a1:	48 8d 3d 88 d8 00 00 	lea    0xd888(%rip),%rdi        # 13030 <_IO_stdin_used+0x30>
    57a8:	b8 00 00 00 00       	mov    $0x0,%eax
    57ad:	e8 ce e8 ff ff       	callq  4080 <printf@plt>
    57b2:	90                   	nop
    57b3:	c9                   	leaveq 
    57b4:	c3                   	retq   

00000000000057b5 <func_1>:
    57b5:	f3 0f 1e fa          	endbr64 
    57b9:	55                   	push   %rbp
    57ba:	48 89 e5             	mov    %rsp,%rbp
    57bd:	41 57                	push   %r15
    57bf:	41 56                	push   %r14
    57c1:	41 55                	push   %r13
    57c3:	41 54                	push   %r12
    57c5:	53                   	push   %rbx
    57c6:	48 83 ec 38          	sub    $0x38,%rsp
    57ca:	c7 45 b8 38 2f 9a e4 	movl   $0xe49a2f38,-0x48(%rbp)
    57d1:	48 8d 05 b0 1d 01 00 	lea    0x11db0(%rip),%rax        # 17588 <g_532+0x28>
    57d8:	48 89 45 c0          	mov    %rax,-0x40(%rbp)
    57dc:	48 8d 05 ff 1c 01 00 	lea    0x11cff(%rip),%rax        # 174e2 <g_261>
    57e3:	48 89 45 c8          	mov    %rax,-0x38(%rbp)
    57e7:	c7 45 bc 13 2b 6c 0a 	movl   $0xa6c2b13,-0x44(%rbp)
    57ee:	8b 05 b4 1d 01 00    	mov    0x11db4(%rip),%eax        # 175a8 <g_547>
    57f4:	44 0f b7 e0          	movzwl %ax,%r12d
    57f8:	48 8b 05 f1 35 01 00 	mov    0x135f1(%rip),%rax        # 18df0 <g_776>
    57ff:	8b 18                	mov    (%rax),%ebx
    5801:	8b 05 0d 1d 01 00    	mov    0x11d0d(%rip),%eax        # 17514 <g_414+0x14>
    5807:	4c 63 f0             	movslq %eax,%r14
    580a:	8b 45 b8             	mov    -0x48(%rbp),%eax
    580d:	44 0f b7 e8          	movzwl %ax,%r13d
    5811:	48 8b 05 60 21 01 00 	mov    0x12160(%rip),%rax        # 17978 <g_937>
    5818:	48 89 45 a8          	mov    %rax,-0x58(%rbp)
    581c:	44 8b 7d b8          	mov    -0x48(%rbp),%r15d
    5820:	8b 45 b8             	mov    -0x48(%rbp),%eax
    5823:	89 c7                	mov    %eax,%edi
    5825:	e8 32 01 00 00       	callq  595c <func_4>
    582a:	0f b7 c0             	movzwl %ax,%eax
    582d:	48 8b 15 f4 17 01 00 	mov    0x117f4(%rip),%rdx        # 17028 <g_6>
    5834:	89 c6                	mov    %eax,%esi
    5836:	89 d7                	mov    %edx,%edi
    5838:	e8 93 f6 ff ff       	callq  4ed0 <safe_sub_func_uint32_t_u_u>
    583d:	83 e0 fe             	and    $0xfffffffe,%eax
    5840:	98                   	cwtl   
    5841:	89 c6                	mov    %eax,%esi
    5843:	bf 00 00 00 00       	mov    $0x0,%edi
    5848:	e8 86 eb ff ff       	callq  43d3 <safe_sub_func_int16_t_s_s>
    584d:	48 0f bf c0          	movswq %ax,%rax
    5851:	4c 89 fe             	mov    %r15,%rsi
    5854:	48 89 c7             	mov    %rax,%rdi
    5857:	e8 4c f0 ff ff       	callq  48a8 <safe_sub_func_int64_t_s_s>
    585c:	89 c7                	mov    %eax,%edi
    585e:	e8 5f 58 00 00       	callq  b0c2 <func_30>
    5863:	48 8b 55 c0          	mov    -0x40(%rbp),%rdx
    5867:	48 8b 12             	mov    (%rdx),%rdx
    586a:	48 09 c2             	or     %rax,%rdx
    586d:	48 8b 45 c0          	mov    -0x40(%rbp),%rax
    5871:	48 89 10             	mov    %rdx,(%rax)
    5874:	48 8b 45 c0          	mov    -0x40(%rbp),%rax
    5878:	48 8b 00             	mov    (%rax),%rax
    587b:	48 8b 75 a8          	mov    -0x58(%rbp),%rsi
    587f:	48 89 c7             	mov    %rax,%rdi
    5882:	e8 70 f1 ff ff       	callq  49f7 <safe_div_func_int64_t_s_s>
    5887:	0f be d0             	movsbl %al,%edx
    588a:	8b 45 b8             	mov    -0x48(%rbp),%eax
    588d:	0f be c0             	movsbl %al,%eax
    5890:	89 d6                	mov    %edx,%esi
    5892:	89 c7                	mov    %eax,%edi
    5894:	e8 59 e9 ff ff       	callq  41f2 <safe_sub_func_int8_t_s_s>
    5899:	0f be c0             	movsbl %al,%eax
    589c:	8b 55 b8             	mov    -0x48(%rbp),%edx
    589f:	89 d6                	mov    %edx,%esi
    58a1:	89 c7                	mov    %eax,%edi
    58a3:	e8 c4 ea ff ff       	callq  436c <safe_rshift_func_int8_t_s_u>
    58a8:	48 8b 05 d9 1c 01 00 	mov    0x11cd9(%rip),%rax        # 17588 <g_532+0x28>
    58af:	48 8b 15 72 17 01 00 	mov    0x11772(%rip),%rdx        # 17028 <g_6>
    58b6:	48 89 c6             	mov    %rax,%rsi
    58b9:	48 89 d7             	mov    %rdx,%rdi
    58bc:	e8 80 ef ff ff       	callq  4841 <safe_add_func_int64_t_s_s>
    58c1:	98                   	cwtl   
    58c2:	8b 55 b8             	mov    -0x48(%rbp),%edx
    58c5:	89 d6                	mov    %edx,%esi
    58c7:	89 c7                	mov    %eax,%edi
    58c9:	e8 13 ec ff ff       	callq  44e1 <safe_lshift_func_int16_t_s_u>
    58ce:	66 83 f8 46          	cmp    $0x46,%ax
    58d2:	0f 94 c0             	sete   %al
    58d5:	0f b6 c0             	movzbl %al,%eax
    58d8:	4c 89 f2             	mov    %r14,%rdx
    58db:	44 89 ee             	mov    %r13d,%esi
    58de:	89 c7                	mov    %eax,%edi
    58e0:	e8 68 54 00 00       	callq  ad4d <func_14>
    58e5:	89 c2                	mov    %eax,%edx
    58e7:	8b 45 b8             	mov    -0x48(%rbp),%eax
    58ea:	89 c6                	mov    %eax,%esi
    58ec:	89 d7                	mov    %edx,%edi
    58ee:	e8 32 f6 ff ff       	callq  4f25 <safe_div_func_uint32_t_u_u>
    58f3:	44 89 e2             	mov    %r12d,%edx
    58f6:	89 de                	mov    %ebx,%esi
    58f8:	89 c7                	mov    %eax,%edi
    58fa:	e8 84 00 00 00       	callq  5983 <func_8>
    58ff:	48 8b 55 c8          	mov    -0x38(%rbp),%rdx
    5903:	66 89 02             	mov    %ax,(%rdx)
    5906:	48 8b 45 c8          	mov    -0x38(%rbp),%rax
    590a:	0f b7 00             	movzwl (%rax),%eax
    590d:	0f b7 d8             	movzwl %ax,%ebx
    5910:	48 8b 05 11 17 01 00 	mov    0x11711(%rip),%rax        # 17028 <g_6>
    5917:	89 c7                	mov    %eax,%edi
    5919:	e8 3e 00 00 00       	callq  595c <func_4>
    591e:	0f b7 c0             	movzwl %ax,%eax
    5921:	89 de                	mov    %ebx,%esi
    5923:	89 c7                	mov    %eax,%edi
    5925:	e8 32 f4 ff ff       	callq  4d5c <safe_mod_func_uint16_t_u_u>
    592a:	8b 45 b8             	mov    -0x48(%rbp),%eax
    592d:	89 45 bc             	mov    %eax,-0x44(%rbp)
    5930:	48 8b 05 d1 35 01 00 	mov    0x135d1(%rip),%rax        # 18f08 <g_1651>
    5937:	48 8d 15 5a 35 01 00 	lea    0x1355a(%rip),%rdx        # 18e98 <g_1337>
    593e:	48 89 10             	mov    %rdx,(%rax)
    5941:	8b 45 bc             	mov    -0x44(%rbp),%eax
    5944:	0b 45 b8             	or     -0x48(%rbp),%eax
    5947:	89 45 bc             	mov    %eax,-0x44(%rbp)
    594a:	8b 45 b8             	mov    -0x48(%rbp),%eax
    594d:	48 83 c4 38          	add    $0x38,%rsp
    5951:	5b                   	pop    %rbx
    5952:	41 5c                	pop    %r12
    5954:	41 5d                	pop    %r13
    5956:	41 5e                	pop    %r14
    5958:	41 5f                	pop    %r15
    595a:	5d                   	pop    %rbp
    595b:	c3                   	retq   

000000000000595c <func_4>:
    595c:	f3 0f 1e fa          	endbr64 
    5960:	55                   	push   %rbp
    5961:	48 89 e5             	mov    %rsp,%rbp
    5964:	89 7d ec             	mov    %edi,-0x14(%rbp)
    5967:	48 b8 d1 44 65 c3 f2 	movabs $0x65925ef2c36544d1,%rax
    596e:	5e 92 65 
    5971:	48 89 45 f8          	mov    %rax,-0x8(%rbp)
    5975:	b8 a5 5f c2 9c       	mov    $0x9cc25fa5,%eax
    597a:	48 89 45 f8          	mov    %rax,-0x8(%rbp)
    597e:	8b 45 ec             	mov    -0x14(%rbp),%eax
    5981:	5d                   	pop    %rbp
    5982:	c3                   	retq   

0000000000005983 <func_8>:
    5983:	f3 0f 1e fa          	endbr64 
    5987:	55                   	push   %rbp
    5988:	48 89 e5             	mov    %rsp,%rbp
    598b:	41 57                	push   %r15
    598d:	41 56                	push   %r14
    598f:	41 55                	push   %r13
    5991:	41 54                	push   %r12
    5993:	53                   	push   %rbx
    5994:	48 81 ec 00 10 00 00 	sub    $0x1000,%rsp
    599b:	48 83 0c 24 00       	orq    $0x0,(%rsp)
    59a0:	48 81 ec 58 0b 00 00 	sub    $0xb58,%rsp
    59a7:	89 bd 8c e4 ff ff    	mov    %edi,-0x1b74(%rbp)
    59ad:	89 b5 88 e4 ff ff    	mov    %esi,-0x1b78(%rbp)
    59b3:	89 d0                	mov    %edx,%eax
    59b5:	66 89 85 84 e4 ff ff 	mov    %ax,-0x1b7c(%rbp)
    59bc:	64 48 8b 04 25 28 00 	mov    %fs:0x28,%rax
    59c3:	00 00 
    59c5:	48 89 45 c8          	mov    %rax,-0x38(%rbp)
    59c9:	31 c0                	xor    %eax,%eax
    59cb:	c7 85 28 e5 ff ff fb 	movl   $0xfffffffb,-0x1ad8(%rbp)
    59d2:	ff ff ff 
    59d5:	c7 85 b4 e4 ff ff f8 	movl   $0xfffffff8,-0x1b4c(%rbp)
    59dc:	ff ff ff 
    59df:	c7 85 b8 e4 ff ff ee 	movl   $0xe4efb3ee,-0x1b48(%rbp)
    59e6:	b3 ef e4 
    59e9:	c7 85 2c e5 ff ff 00 	movl   $0x0,-0x1ad4(%rbp)
    59f0:	00 00 00 
    59f3:	c7 85 c0 eb ff ff cc 	movl   $0x433cdbcc,-0x1440(%rbp)
    59fa:	db 3c 43 
    59fd:	c7 85 c4 eb ff ff 06 	movl   $0x5fd65406,-0x143c(%rbp)
    5a04:	54 d6 5f 
    5a07:	c7 85 c8 eb ff ff cc 	movl   $0x433cdbcc,-0x1438(%rbp)
    5a0e:	db 3c 43 
    5a11:	c7 85 cc eb ff ff 06 	movl   $0x5fd65406,-0x1434(%rbp)
    5a18:	54 d6 5f 
    5a1b:	c7 85 d0 eb ff ff cc 	movl   $0x433cdbcc,-0x1430(%rbp)
    5a22:	db 3c 43 
    5a25:	c7 85 d4 eb ff ff 06 	movl   $0x5fd65406,-0x142c(%rbp)
    5a2c:	54 d6 5f 
    5a2f:	c7 85 d8 eb ff ff cc 	movl   $0x433cdbcc,-0x1428(%rbp)
    5a36:	db 3c 43 
    5a39:	c7 85 dc eb ff ff 06 	movl   $0x5fd65406,-0x1424(%rbp)
    5a40:	54 d6 5f 
    5a43:	c7 85 e0 eb ff ff cc 	movl   $0x433cdbcc,-0x1420(%rbp)
    5a4a:	db 3c 43 
    5a4d:	c7 85 e4 eb ff ff 06 	movl   $0x5fd65406,-0x141c(%rbp)
    5a54:	54 d6 5f 
    5a57:	c7 85 e8 eb ff ff cc 	movl   $0x433cdbcc,-0x1418(%rbp)
    5a5e:	db 3c 43 
    5a61:	c7 85 ec eb ff ff 06 	movl   $0x5fd65406,-0x1414(%rbp)
    5a68:	54 d6 5f 
    5a6b:	c7 85 f0 eb ff ff cc 	movl   $0x433cdbcc,-0x1410(%rbp)
    5a72:	db 3c 43 
    5a75:	c7 85 f4 eb ff ff 06 	movl   $0x5fd65406,-0x140c(%rbp)
    5a7c:	54 d6 5f 
    5a7f:	c7 85 f8 eb ff ff cc 	movl   $0x433cdbcc,-0x1408(%rbp)
    5a86:	db 3c 43 
    5a89:	c7 85 fc eb ff ff 06 	movl   $0x5fd65406,-0x1404(%rbp)
    5a90:	54 d6 5f 
    5a93:	c7 85 00 ec ff ff cc 	movl   $0x433cdbcc,-0x1400(%rbp)
    5a9a:	db 3c 43 
    5a9d:	c7 85 04 ec ff ff 06 	movl   $0x5fd65406,-0x13fc(%rbp)
    5aa4:	54 d6 5f 
    5aa7:	c7 85 08 ec ff ff cc 	movl   $0x433cdbcc,-0x13f8(%rbp)
    5aae:	db 3c 43 
    5ab1:	c7 85 0c ec ff ff 06 	movl   $0x5fd65406,-0x13f4(%rbp)
    5ab8:	54 d6 5f 
    5abb:	c7 85 10 ec ff ff cc 	movl   $0x433cdbcc,-0x13f0(%rbp)
    5ac2:	db 3c 43 
    5ac5:	c7 85 14 ec ff ff 06 	movl   $0x5fd65406,-0x13ec(%rbp)
    5acc:	54 d6 5f 
    5acf:	c7 85 18 ec ff ff cc 	movl   $0x433cdbcc,-0x13e8(%rbp)
    5ad6:	db 3c 43 
    5ad9:	c7 85 1c ec ff ff 06 	movl   $0x5fd65406,-0x13e4(%rbp)
    5ae0:	54 d6 5f 
    5ae3:	c7 85 e8 e4 ff ff 93 	movl   $0xea329793,-0x1b18(%rbp)
    5aea:	97 32 ea 
    5aed:	48 8d 85 20 f4 ff ff 	lea    -0xbe0(%rbp),%rax
    5af4:	48 8d 15 85 d5 00 00 	lea    0xd585(%rip),%rdx        # 13080 <g_1236+0x1c>
    5afb:	b9 78 00 00 00       	mov    $0x78,%ecx
    5b00:	48 89 c7             	mov    %rax,%rdi
    5b03:	48 89 d6             	mov    %rdx,%rsi
    5b06:	f3 48 a5             	rep movsq %ds:(%rsi),%es:(%rdi)
    5b09:	48 8d 05 e8 32 01 00 	lea    0x132e8(%rip),%rax        # 18df8 <g_775>
    5b10:	48 89 85 f8 e5 ff ff 	mov    %rax,-0x1a08(%rbp)
    5b17:	48 8d 05 4a 38 01 00 	lea    0x1384a(%rip),%rax        # 19368 <g_993>
    5b1e:	48 89 85 00 e6 ff ff 	mov    %rax,-0x1a00(%rbp)
    5b25:	66 c7 85 d0 e8 ff ff 	movw   $0x936a,-0x1730(%rbp)
    5b2c:	6a 93 
    5b2e:	66 c7 85 d2 e8 ff ff 	movw   $0x936a,-0x172e(%rbp)
    5b35:	6a 93 
    5b37:	66 c7 85 d4 e8 ff ff 	movw   $0x936a,-0x172c(%rbp)
    5b3e:	6a 93 
    5b40:	66 c7 85 d6 e8 ff ff 	movw   $0x936a,-0x172a(%rbp)
    5b47:	6a 93 
    5b49:	66 c7 85 d8 e8 ff ff 	movw   $0x936a,-0x1728(%rbp)
    5b50:	6a 93 
    5b52:	66 c7 85 da e8 ff ff 	movw   $0x936a,-0x1726(%rbp)
    5b59:	6a 93 
    5b5b:	66 c7 85 dc e8 ff ff 	movw   $0x936a,-0x1724(%rbp)
    5b62:	6a 93 
    5b64:	66 c7 85 de e8 ff ff 	movw   $0x936a,-0x1722(%rbp)
    5b6b:	6a 93 
    5b6d:	66 c7 85 e0 e8 ff ff 	movw   $0x936a,-0x1720(%rbp)
    5b74:	6a 93 
    5b76:	48 8d 05 f3 1d 01 00 	lea    0x11df3(%rip),%rax        # 17970 <g_894>
    5b7d:	48 89 85 08 e6 ff ff 	mov    %rax,-0x19f8(%rbp)
    5b84:	48 8d 85 08 e6 ff ff 	lea    -0x19f8(%rbp),%rax
    5b8b:	48 89 85 70 e6 ff ff 	mov    %rax,-0x1990(%rbp)
    5b92:	c7 85 30 e5 ff ff 6b 	movl   $0xdc8f9e6b,-0x1ad0(%rbp)
    5b99:	9e 8f dc 
    5b9c:	48 8d 05 65 28 01 00 	lea    0x12865(%rip),%rax        # 18408 <g_343+0x8>
    5ba3:	48 89 85 10 e6 ff ff 	mov    %rax,-0x19f0(%rbp)
    5baa:	48 8d 85 10 e6 ff ff 	lea    -0x19f0(%rbp),%rax
    5bb1:	48 89 85 18 e6 ff ff 	mov    %rax,-0x19e8(%rbp)
    5bb8:	48 8d 05 f1 18 01 00 	lea    0x118f1(%rip),%rax        # 174b0 <g_132>
    5bbf:	48 89 85 d0 ea ff ff 	mov    %rax,-0x1530(%rbp)
    5bc6:	48 8d 05 e3 18 01 00 	lea    0x118e3(%rip),%rax        # 174b0 <g_132>
    5bcd:	48 89 85 d8 ea ff ff 	mov    %rax,-0x1528(%rbp)
    5bd4:	48 8d 05 d5 18 01 00 	lea    0x118d5(%rip),%rax        # 174b0 <g_132>
    5bdb:	48 89 85 e0 ea ff ff 	mov    %rax,-0x1520(%rbp)
    5be2:	48 8d 05 c7 18 01 00 	lea    0x118c7(%rip),%rax        # 174b0 <g_132>
    5be9:	48 89 85 e8 ea ff ff 	mov    %rax,-0x1518(%rbp)
    5bf0:	48 8d 05 b9 18 01 00 	lea    0x118b9(%rip),%rax        # 174b0 <g_132>
    5bf7:	48 89 85 f0 ea ff ff 	mov    %rax,-0x1510(%rbp)
    5bfe:	48 8d 05 ab 18 01 00 	lea    0x118ab(%rip),%rax        # 174b0 <g_132>
    5c05:	48 89 85 f8 ea ff ff 	mov    %rax,-0x1508(%rbp)
    5c0c:	48 8d 05 9d 18 01 00 	lea    0x1189d(%rip),%rax        # 174b0 <g_132>
    5c13:	48 89 85 00 eb ff ff 	mov    %rax,-0x1500(%rbp)
    5c1a:	48 8d 05 8f 18 01 00 	lea    0x1188f(%rip),%rax        # 174b0 <g_132>
    5c21:	48 89 85 08 eb ff ff 	mov    %rax,-0x14f8(%rbp)
    5c28:	48 8d 05 81 18 01 00 	lea    0x11881(%rip),%rax        # 174b0 <g_132>
    5c2f:	48 89 85 10 eb ff ff 	mov    %rax,-0x14f0(%rbp)
    5c36:	48 8d 05 73 18 01 00 	lea    0x11873(%rip),%rax        # 174b0 <g_132>
    5c3d:	48 89 85 18 eb ff ff 	mov    %rax,-0x14e8(%rbp)
    5c44:	48 8d 05 5e 18 01 00 	lea    0x1185e(%rip),%rax        # 174a9 <g_107+0x1>
    5c4b:	48 89 85 20 e6 ff ff 	mov    %rax,-0x19e0(%rbp)
    5c52:	48 8d 85 20 e6 ff ff 	lea    -0x19e0(%rbp),%rax
    5c59:	48 89 85 78 e6 ff ff 	mov    %rax,-0x1988(%rbp)
    5c60:	66 c7 85 a6 e4 ff ff 	movw   $0x993,-0x1b5a(%rbp)
    5c67:	93 09 
    5c69:	66 c7 85 a8 e4 ff ff 	movw   $0x6,-0x1b58(%rbp)
    5c70:	06 00 
    5c72:	48 b8 3b e9 5b d4 15 	movabs $0x78654715d45be93b,%rax
    5c79:	47 65 78 
    5c7c:	48 89 85 80 e6 ff ff 	mov    %rax,-0x1980(%rbp)
    5c83:	0f b7 85 84 e4 ff ff 	movzwl -0x1b7c(%rbp),%eax
    5c8a:	0f b7 c0             	movzwl %ax,%eax
    5c8d:	39 85 88 e4 ff ff    	cmp    %eax,-0x1b78(%rbp)
    5c93:	0f 87 7d 4c 00 00    	ja     a916 <func_8+0x4f93>
    5c99:	48 8d 05 c0 36 01 00 	lea    0x136c0(%rip),%rax        # 19360 <g_616>
    5ca0:	48 89 85 28 e6 ff ff 	mov    %rax,-0x19d8(%rbp)
    5ca7:	48 8d 85 28 e6 ff ff 	lea    -0x19d8(%rbp),%rax
    5cae:	48 89 85 b8 e6 ff ff 	mov    %rax,-0x1948(%rbp)
    5cb5:	48 8d 05 26 18 01 00 	lea    0x11826(%rip),%rax        # 174e2 <g_261>
    5cbc:	48 89 85 c0 e6 ff ff 	mov    %rax,-0x1940(%rbp)
    5cc3:	c7 85 bc e4 ff ff 47 	movl   $0x68180847,-0x1b44(%rbp)
    5cca:	08 18 68 
    5ccd:	48 8d 05 b4 18 01 00 	lea    0x118b4(%rip),%rax        # 17588 <g_532+0x28>
    5cd4:	48 89 85 30 e6 ff ff 	mov    %rax,-0x19d0(%rbp)
    5cdb:	48 8d 85 d0 f0 ff ff 	lea    -0xf30(%rbp),%rax
    5ce2:	48 8d 15 17 1d 01 00 	lea    0x11d17(%rip),%rdx        # 17a00 <g_1533+0x8>
    5ce9:	b9 69 00 00 00       	mov    $0x69,%ecx
    5cee:	48 89 c7             	mov    %rax,%rdi
    5cf1:	48 89 d6             	mov    %rdx,%rsi
    5cf4:	f3 48 a5             	rep movsq %ds:(%rsi),%es:(%rdi)
    5cf7:	48 8d 05 82 1c 01 00 	lea    0x11c82(%rip),%rax        # 17980 <g_1041>
    5cfe:	48 89 85 c8 e6 ff ff 	mov    %rax,-0x1938(%rbp)
    5d05:	c7 85 3c e5 ff ff ff 	movl   $0xffffffff,-0x1ac4(%rbp)
    5d0c:	ff ff ff 
    5d0f:	c6 85 a0 e4 ff ff 68 	movb   $0x68,-0x1b60(%rbp)
    5d16:	48 8d 05 db 30 01 00 	lea    0x130db(%rip),%rax        # 18df8 <g_775>
    5d1d:	48 89 85 38 e6 ff ff 	mov    %rax,-0x19c8(%rbp)
    5d24:	c7 85 c0 e4 ff ff a3 	movl   $0xcfbc8aa3,-0x1b40(%rbp)
    5d2b:	8a bc cf 
    5d2e:	c7 85 40 e5 ff ff f8 	movl   $0xfffffff8,-0x1ac0(%rbp)
    5d35:	ff ff ff 
    5d38:	c7 85 44 e5 ff ff bc 	movl   $0xb328e0bc,-0x1abc(%rbp)
    5d3f:	e0 28 b3 
    5d42:	c7 85 c4 e4 ff ff 00 	movl   $0x0,-0x1b3c(%rbp)
    5d49:	00 00 00 
    5d4c:	c7 85 48 e5 ff ff d2 	movl   $0x1617b0d2,-0x1ab8(%rbp)
    5d53:	b0 17 16 
    5d56:	c7 85 c8 e4 ff ff 78 	movl   $0xe4d16d78,-0x1b38(%rbp)
    5d5d:	6d d1 e4 
    5d60:	c6 85 9d e4 ff ff 02 	movb   $0x2,-0x1b63(%rbp)
    5d67:	c7 85 4c e5 ff ff 54 	movl   $0xa77f5254,-0x1ab4(%rbp)
    5d6e:	52 7f a7 
    5d71:	c7 85 50 e5 ff ff 1f 	movl   $0xdbbec61f,-0x1ab0(%rbp)
    5d78:	c6 be db 
    5d7b:	c7 85 cc e4 ff ff 00 	movl   $0x0,-0x1b34(%rbp)
    5d82:	00 00 00 
    5d85:	c7 85 d0 e4 ff ff 6f 	movl   $0xae0a216f,-0x1b30(%rbp)
    5d8c:	21 0a ae 
    5d8f:	c7 85 70 e9 ff ff f7 	movl   $0xfffffff7,-0x1690(%rbp)
    5d96:	ff ff ff 
    5d99:	c7 85 74 e9 ff ff 86 	movl   $0xa2a77486,-0x168c(%rbp)
    5da0:	74 a7 a2 
    5da3:	c7 85 78 e9 ff ff f7 	movl   $0xfffffff7,-0x1688(%rbp)
    5daa:	ff ff ff 
    5dad:	c7 85 7c e9 ff ff 86 	movl   $0xa2a77486,-0x1684(%rbp)
    5db4:	74 a7 a2 
    5db7:	c7 85 80 e9 ff ff f7 	movl   $0xfffffff7,-0x1680(%rbp)
    5dbe:	ff ff ff 
    5dc1:	c7 85 84 e9 ff ff 86 	movl   $0xa2a77486,-0x167c(%rbp)
    5dc8:	74 a7 a2 
    5dcb:	c7 85 88 e9 ff ff f7 	movl   $0xfffffff7,-0x1678(%rbp)
    5dd2:	ff ff ff 
    5dd5:	c7 85 8c e9 ff ff 86 	movl   $0xa2a77486,-0x1674(%rbp)
    5ddc:	74 a7 a2 
    5ddf:	c7 85 90 e9 ff ff f7 	movl   $0xfffffff7,-0x1670(%rbp)
    5de6:	ff ff ff 
    5de9:	c7 85 94 e9 ff ff 86 	movl   $0xa2a77486,-0x166c(%rbp)
    5df0:	74 a7 a2 
    5df3:	c7 85 98 e9 ff ff f7 	movl   $0xfffffff7,-0x1668(%rbp)
    5dfa:	ff ff ff 
    5dfd:	c7 85 9c e9 ff ff 86 	movl   $0xa2a77486,-0x1664(%rbp)
    5e04:	74 a7 a2 
    5e07:	c7 85 d4 e4 ff ff 01 	movl   $0x1,-0x1b2c(%rbp)
    5e0e:	00 00 00 
    5e11:	48 c7 85 40 e6 ff ff 	movq   $0x1,-0x19c0(%rbp)
    5e18:	01 00 00 00 
    5e1c:	48 8d 85 20 ec ff ff 	lea    -0x13e0(%rbp),%rax
    5e23:	48 83 c0 20          	add    $0x20,%rax
    5e27:	48 89 85 48 e6 ff ff 	mov    %rax,-0x19b8(%rbp)
    5e2e:	48 c7 85 e0 f7 ff ff 	movq   $0x0,-0x820(%rbp)
    5e35:	00 00 00 00 
    5e39:	48 c7 85 e8 f7 ff ff 	movq   $0x0,-0x818(%rbp)
    5e40:	00 00 00 00 
    5e44:	48 8d 85 48 e6 ff ff 	lea    -0x19b8(%rbp),%rax
    5e4b:	48 89 85 f0 f7 ff ff 	mov    %rax,-0x810(%rbp)
    5e52:	48 8d 85 48 e6 ff ff 	lea    -0x19b8(%rbp),%rax
    5e59:	48 89 85 f8 f7 ff ff 	mov    %rax,-0x808(%rbp)
    5e60:	48 c7 85 00 f8 ff ff 	movq   $0x0,-0x800(%rbp)
    5e67:	00 00 00 00 
    5e6b:	48 c7 85 08 f8 ff ff 	movq   $0x0,-0x7f8(%rbp)
    5e72:	00 00 00 00 
    5e76:	48 8d 85 48 e6 ff ff 	lea    -0x19b8(%rbp),%rax
    5e7d:	48 89 85 10 f8 ff ff 	mov    %rax,-0x7f0(%rbp)
    5e84:	48 c7 85 18 f8 ff ff 	movq   $0x0,-0x7e8(%rbp)
    5e8b:	00 00 00 00 
    5e8f:	48 c7 85 20 f8 ff ff 	movq   $0x0,-0x7e0(%rbp)
    5e96:	00 00 00 00 
    5e9a:	48 8d 85 48 e6 ff ff 	lea    -0x19b8(%rbp),%rax
    5ea1:	48 89 85 28 f8 ff ff 	mov    %rax,-0x7d8(%rbp)
    5ea8:	48 8d 85 48 e6 ff ff 	lea    -0x19b8(%rbp),%rax
    5eaf:	48 89 85 30 f8 ff ff 	mov    %rax,-0x7d0(%rbp)
    5eb6:	48 8d 85 48 e6 ff ff 	lea    -0x19b8(%rbp),%rax
    5ebd:	48 89 85 38 f8 ff ff 	mov    %rax,-0x7c8(%rbp)
    5ec4:	48 8d 85 48 e6 ff ff 	lea    -0x19b8(%rbp),%rax
    5ecb:	48 89 85 40 f8 ff ff 	mov    %rax,-0x7c0(%rbp)
    5ed2:	48 8d 85 48 e6 ff ff 	lea    -0x19b8(%rbp),%rax
    5ed9:	48 89 85 48 f8 ff ff 	mov    %rax,-0x7b8(%rbp)
    5ee0:	48 8d 85 48 e6 ff ff 	lea    -0x19b8(%rbp),%rax
    5ee7:	48 89 85 50 f8 ff ff 	mov    %rax,-0x7b0(%rbp)
    5eee:	48 c7 85 58 f8 ff ff 	movq   $0x0,-0x7a8(%rbp)
    5ef5:	00 00 00 00 
    5ef9:	48 c7 85 60 f8 ff ff 	movq   $0x0,-0x7a0(%rbp)
    5f00:	00 00 00 00 
    5f04:	48 8d 85 48 e6 ff ff 	lea    -0x19b8(%rbp),%rax
    5f0b:	48 89 85 68 f8 ff ff 	mov    %rax,-0x798(%rbp)
    5f12:	48 8d 85 48 e6 ff ff 	lea    -0x19b8(%rbp),%rax
    5f19:	48 89 85 70 f8 ff ff 	mov    %rax,-0x790(%rbp)
    5f20:	48 8d 85 48 e6 ff ff 	lea    -0x19b8(%rbp),%rax
    5f27:	48 89 85 78 f8 ff ff 	mov    %rax,-0x788(%rbp)
    5f2e:	48 8d 85 48 e6 ff ff 	lea    -0x19b8(%rbp),%rax
    5f35:	48 89 85 80 f8 ff ff 	mov    %rax,-0x780(%rbp)
    5f3c:	48 8d 85 48 e6 ff ff 	lea    -0x19b8(%rbp),%rax
    5f43:	48 89 85 88 f8 ff ff 	mov    %rax,-0x778(%rbp)
    5f4a:	48 c7 85 90 f8 ff ff 	movq   $0x0,-0x770(%rbp)
    5f51:	00 00 00 00 
    5f55:	48 8d 85 48 e6 ff ff 	lea    -0x19b8(%rbp),%rax
    5f5c:	48 89 85 98 f8 ff ff 	mov    %rax,-0x768(%rbp)
    5f63:	48 8d 85 48 e6 ff ff 	lea    -0x19b8(%rbp),%rax
    5f6a:	48 89 85 a0 f8 ff ff 	mov    %rax,-0x760(%rbp)
    5f71:	48 8d 85 48 e6 ff ff 	lea    -0x19b8(%rbp),%rax
    5f78:	48 89 85 a8 f8 ff ff 	mov    %rax,-0x758(%rbp)
    5f7f:	48 8d 85 48 e6 ff ff 	lea    -0x19b8(%rbp),%rax
    5f86:	48 89 85 b0 f8 ff ff 	mov    %rax,-0x750(%rbp)
    5f8d:	48 c7 85 b8 f8 ff ff 	movq   $0x0,-0x748(%rbp)
    5f94:	00 00 00 00 
    5f98:	48 8d 85 48 e6 ff ff 	lea    -0x19b8(%rbp),%rax
    5f9f:	48 89 85 c0 f8 ff ff 	mov    %rax,-0x740(%rbp)
    5fa6:	48 c7 85 c8 f8 ff ff 	movq   $0x0,-0x738(%rbp)
    5fad:	00 00 00 00 
    5fb1:	48 8d 85 48 e6 ff ff 	lea    -0x19b8(%rbp),%rax
    5fb8:	48 89 85 d0 f8 ff ff 	mov    %rax,-0x730(%rbp)
    5fbf:	48 c7 85 d8 f8 ff ff 	movq   $0x0,-0x728(%rbp)
    5fc6:	00 00 00 00 
    5fca:	48 8d 85 48 e6 ff ff 	lea    -0x19b8(%rbp),%rax
    5fd1:	48 89 85 e0 f8 ff ff 	mov    %rax,-0x720(%rbp)
    5fd8:	48 c7 85 e8 f8 ff ff 	movq   $0x0,-0x718(%rbp)
    5fdf:	00 00 00 00 
    5fe3:	48 8d 85 48 e6 ff ff 	lea    -0x19b8(%rbp),%rax
    5fea:	48 89 85 f0 f8 ff ff 	mov    %rax,-0x710(%rbp)
    5ff1:	48 8d 85 48 e6 ff ff 	lea    -0x19b8(%rbp),%rax
    5ff8:	48 89 85 f8 f8 ff ff 	mov    %rax,-0x708(%rbp)
    5fff:	48 8d 85 48 e6 ff ff 	lea    -0x19b8(%rbp),%rax
    6006:	48 89 85 00 f9 ff ff 	mov    %rax,-0x700(%rbp)
    600d:	48 c7 85 08 f9 ff ff 	movq   $0x0,-0x6f8(%rbp)
    6014:	00 00 00 00 
    6018:	48 8d 85 48 e6 ff ff 	lea    -0x19b8(%rbp),%rax
    601f:	48 89 85 10 f9 ff ff 	mov    %rax,-0x6f0(%rbp)
    6026:	48 8d 85 48 e6 ff ff 	lea    -0x19b8(%rbp),%rax
    602d:	48 89 85 18 f9 ff ff 	mov    %rax,-0x6e8(%rbp)
    6034:	48 8d 85 48 e6 ff ff 	lea    -0x19b8(%rbp),%rax
    603b:	48 89 85 20 f9 ff ff 	mov    %rax,-0x6e0(%rbp)
    6042:	48 8d 85 48 e6 ff ff 	lea    -0x19b8(%rbp),%rax
    6049:	48 89 85 28 f9 ff ff 	mov    %rax,-0x6d8(%rbp)
    6050:	48 8d 85 48 e6 ff ff 	lea    -0x19b8(%rbp),%rax
    6057:	48 89 85 30 f9 ff ff 	mov    %rax,-0x6d0(%rbp)
    605e:	48 8d 85 48 e6 ff ff 	lea    -0x19b8(%rbp),%rax
    6065:	48 89 85 38 f9 ff ff 	mov    %rax,-0x6c8(%rbp)
    606c:	48 c7 85 40 f9 ff ff 	movq   $0x0,-0x6c0(%rbp)
    6073:	00 00 00 00 
    6077:	48 c7 85 48 f9 ff ff 	movq   $0x0,-0x6b8(%rbp)
    607e:	00 00 00 00 
    6082:	48 8d 85 48 e6 ff ff 	lea    -0x19b8(%rbp),%rax
    6089:	48 89 85 50 f9 ff ff 	mov    %rax,-0x6b0(%rbp)
    6090:	48 c7 85 58 f9 ff ff 	movq   $0x0,-0x6a8(%rbp)
    6097:	00 00 00 00 
    609b:	48 8d 85 48 e6 ff ff 	lea    -0x19b8(%rbp),%rax
    60a2:	48 89 85 60 f9 ff ff 	mov    %rax,-0x6a0(%rbp)
    60a9:	48 8d 85 48 e6 ff ff 	lea    -0x19b8(%rbp),%rax
    60b0:	48 89 85 68 f9 ff ff 	mov    %rax,-0x698(%rbp)
    60b7:	48 c7 85 70 f9 ff ff 	movq   $0x0,-0x690(%rbp)
    60be:	00 00 00 00 
    60c2:	48 c7 85 78 f9 ff ff 	movq   $0x0,-0x688(%rbp)
    60c9:	00 00 00 00 
    60cd:	48 8d 85 48 e6 ff ff 	lea    -0x19b8(%rbp),%rax
    60d4:	48 89 85 80 f9 ff ff 	mov    %rax,-0x680(%rbp)
    60db:	48 8d 85 48 e6 ff ff 	lea    -0x19b8(%rbp),%rax
    60e2:	48 89 85 88 f9 ff ff 	mov    %rax,-0x678(%rbp)
    60e9:	48 c7 85 90 f9 ff ff 	movq   $0x0,-0x670(%rbp)
    60f0:	00 00 00 00 
    60f4:	48 c7 85 98 f9 ff ff 	movq   $0x0,-0x668(%rbp)
    60fb:	00 00 00 00 
    60ff:	48 8d 85 48 e6 ff ff 	lea    -0x19b8(%rbp),%rax
    6106:	48 89 85 a0 f9 ff ff 	mov    %rax,-0x660(%rbp)
    610d:	48 c7 85 a8 f9 ff ff 	movq   $0x0,-0x658(%rbp)
    6114:	00 00 00 00 
    6118:	48 8d 85 48 e6 ff ff 	lea    -0x19b8(%rbp),%rax
    611f:	48 89 85 b0 f9 ff ff 	mov    %rax,-0x650(%rbp)
    6126:	48 8d 85 48 e6 ff ff 	lea    -0x19b8(%rbp),%rax
    612d:	48 89 85 b8 f9 ff ff 	mov    %rax,-0x648(%rbp)
    6134:	48 8d 85 48 e6 ff ff 	lea    -0x19b8(%rbp),%rax
    613b:	48 89 85 c0 f9 ff ff 	mov    %rax,-0x640(%rbp)
    6142:	48 8d 85 48 e6 ff ff 	lea    -0x19b8(%rbp),%rax
    6149:	48 89 85 c8 f9 ff ff 	mov    %rax,-0x638(%rbp)
    6150:	48 c7 85 d0 f9 ff ff 	movq   $0x0,-0x630(%rbp)
    6157:	00 00 00 00 
    615b:	48 8d 85 48 e6 ff ff 	lea    -0x19b8(%rbp),%rax
    6162:	48 89 85 d8 f9 ff ff 	mov    %rax,-0x628(%rbp)
    6169:	48 c7 85 e0 f9 ff ff 	movq   $0x0,-0x620(%rbp)
    6170:	00 00 00 00 
    6174:	48 8d 85 48 e6 ff ff 	lea    -0x19b8(%rbp),%rax
    617b:	48 89 85 e8 f9 ff ff 	mov    %rax,-0x618(%rbp)
    6182:	48 c7 85 f0 f9 ff ff 	movq   $0x0,-0x610(%rbp)
    6189:	00 00 00 00 
    618d:	48 c7 85 f8 f9 ff ff 	movq   $0x0,-0x608(%rbp)
    6194:	00 00 00 00 
    6198:	48 c7 85 00 fa ff ff 	movq   $0x0,-0x600(%rbp)
    619f:	00 00 00 00 
    61a3:	48 8d 85 48 e6 ff ff 	lea    -0x19b8(%rbp),%rax
    61aa:	48 89 85 08 fa ff ff 	mov    %rax,-0x5f8(%rbp)
    61b1:	48 8d 85 48 e6 ff ff 	lea    -0x19b8(%rbp),%rax
    61b8:	48 89 85 10 fa ff ff 	mov    %rax,-0x5f0(%rbp)
    61bf:	48 c7 85 18 fa ff ff 	movq   $0x0,-0x5e8(%rbp)
    61c6:	00 00 00 00 
    61ca:	48 8d 85 48 e6 ff ff 	lea    -0x19b8(%rbp),%rax
    61d1:	48 89 85 20 fa ff ff 	mov    %rax,-0x5e0(%rbp)
    61d8:	48 8d 85 48 e6 ff ff 	lea    -0x19b8(%rbp),%rax
    61df:	48 89 85 28 fa ff ff 	mov    %rax,-0x5d8(%rbp)
    61e6:	48 8d 85 48 e6 ff ff 	lea    -0x19b8(%rbp),%rax
    61ed:	48 89 85 30 fa ff ff 	mov    %rax,-0x5d0(%rbp)
    61f4:	48 8d 85 48 e6 ff ff 	lea    -0x19b8(%rbp),%rax
    61fb:	48 89 85 38 fa ff ff 	mov    %rax,-0x5c8(%rbp)
    6202:	48 8d 85 48 e6 ff ff 	lea    -0x19b8(%rbp),%rax
    6209:	48 89 85 40 fa ff ff 	mov    %rax,-0x5c0(%rbp)
    6210:	48 c7 85 48 fa ff ff 	movq   $0x0,-0x5b8(%rbp)
    6217:	00 00 00 00 
    621b:	48 8d 85 48 e6 ff ff 	lea    -0x19b8(%rbp),%rax
    6222:	48 89 85 50 fa ff ff 	mov    %rax,-0x5b0(%rbp)
    6229:	48 8d 85 48 e6 ff ff 	lea    -0x19b8(%rbp),%rax
    6230:	48 89 85 58 fa ff ff 	mov    %rax,-0x5a8(%rbp)
    6237:	48 8d 85 48 e6 ff ff 	lea    -0x19b8(%rbp),%rax
    623e:	48 89 85 60 fa ff ff 	mov    %rax,-0x5a0(%rbp)
    6245:	48 8d 85 48 e6 ff ff 	lea    -0x19b8(%rbp),%rax
    624c:	48 89 85 68 fa ff ff 	mov    %rax,-0x598(%rbp)
    6253:	48 8d 85 48 e6 ff ff 	lea    -0x19b8(%rbp),%rax
    625a:	48 89 85 70 fa ff ff 	mov    %rax,-0x590(%rbp)
    6261:	48 8d 85 48 e6 ff ff 	lea    -0x19b8(%rbp),%rax
    6268:	48 89 85 78 fa ff ff 	mov    %rax,-0x588(%rbp)
    626f:	48 c7 85 80 fa ff ff 	movq   $0x0,-0x580(%rbp)
    6276:	00 00 00 00 
    627a:	48 c7 85 88 fa ff ff 	movq   $0x0,-0x578(%rbp)
    6281:	00 00 00 00 
    6285:	48 8d 85 48 e6 ff ff 	lea    -0x19b8(%rbp),%rax
    628c:	48 89 85 90 fa ff ff 	mov    %rax,-0x570(%rbp)
    6293:	48 c7 85 98 fa ff ff 	movq   $0x0,-0x568(%rbp)
    629a:	00 00 00 00 
    629e:	48 c7 85 a0 fa ff ff 	movq   $0x0,-0x560(%rbp)
    62a5:	00 00 00 00 
    62a9:	48 c7 85 a8 fa ff ff 	movq   $0x0,-0x558(%rbp)
    62b0:	00 00 00 00 
    62b4:	48 c7 85 b0 fa ff ff 	movq   $0x0,-0x550(%rbp)
    62bb:	00 00 00 00 
    62bf:	48 8d 85 48 e6 ff ff 	lea    -0x19b8(%rbp),%rax
    62c6:	48 89 85 b8 fa ff ff 	mov    %rax,-0x548(%rbp)
    62cd:	48 8d 85 48 e6 ff ff 	lea    -0x19b8(%rbp),%rax
    62d4:	48 89 85 c0 fa ff ff 	mov    %rax,-0x540(%rbp)
    62db:	48 8d 85 48 e6 ff ff 	lea    -0x19b8(%rbp),%rax
    62e2:	48 89 85 c8 fa ff ff 	mov    %rax,-0x538(%rbp)
    62e9:	48 8d 85 48 e6 ff ff 	lea    -0x19b8(%rbp),%rax
    62f0:	48 89 85 d0 fa ff ff 	mov    %rax,-0x530(%rbp)
    62f7:	48 c7 85 d8 fa ff ff 	movq   $0x0,-0x528(%rbp)
    62fe:	00 00 00 00 
    6302:	48 8d 85 48 e6 ff ff 	lea    -0x19b8(%rbp),%rax
    6309:	48 89 85 e0 fa ff ff 	mov    %rax,-0x520(%rbp)
    6310:	48 c7 85 e8 fa ff ff 	movq   $0x0,-0x518(%rbp)
    6317:	00 00 00 00 
    631b:	48 8d 85 48 e6 ff ff 	lea    -0x19b8(%rbp),%rax
    6322:	48 89 85 f0 fa ff ff 	mov    %rax,-0x510(%rbp)
    6329:	48 8d 85 48 e6 ff ff 	lea    -0x19b8(%rbp),%rax
    6330:	48 89 85 f8 fa ff ff 	mov    %rax,-0x508(%rbp)
    6337:	48 c7 85 00 fb ff ff 	movq   $0x0,-0x500(%rbp)
    633e:	00 00 00 00 
    6342:	48 c7 85 08 fb ff ff 	movq   $0x0,-0x4f8(%rbp)
    6349:	00 00 00 00 
    634d:	48 8d 85 48 e6 ff ff 	lea    -0x19b8(%rbp),%rax
    6354:	48 89 85 10 fb ff ff 	mov    %rax,-0x4f0(%rbp)
    635b:	48 8d 85 48 e6 ff ff 	lea    -0x19b8(%rbp),%rax
    6362:	48 89 85 18 fb ff ff 	mov    %rax,-0x4e8(%rbp)
    6369:	48 c7 85 20 fb ff ff 	movq   $0x0,-0x4e0(%rbp)
    6370:	00 00 00 00 
    6374:	48 c7 85 28 fb ff ff 	movq   $0x0,-0x4d8(%rbp)
    637b:	00 00 00 00 
    637f:	48 8d 85 48 e6 ff ff 	lea    -0x19b8(%rbp),%rax
    6386:	48 89 85 30 fb ff ff 	mov    %rax,-0x4d0(%rbp)
    638d:	48 c7 85 38 fb ff ff 	movq   $0x0,-0x4c8(%rbp)
    6394:	00 00 00 00 
    6398:	48 8d 85 48 e6 ff ff 	lea    -0x19b8(%rbp),%rax
    639f:	48 89 85 40 fb ff ff 	mov    %rax,-0x4c0(%rbp)
    63a6:	48 8d 85 48 e6 ff ff 	lea    -0x19b8(%rbp),%rax
    63ad:	48 89 85 48 fb ff ff 	mov    %rax,-0x4b8(%rbp)
    63b4:	48 8d 85 48 e6 ff ff 	lea    -0x19b8(%rbp),%rax
    63bb:	48 89 85 50 fb ff ff 	mov    %rax,-0x4b0(%rbp)
    63c2:	48 8d 85 48 e6 ff ff 	lea    -0x19b8(%rbp),%rax
    63c9:	48 89 85 58 fb ff ff 	mov    %rax,-0x4a8(%rbp)
    63d0:	48 c7 85 60 fb ff ff 	movq   $0x0,-0x4a0(%rbp)
    63d7:	00 00 00 00 
    63db:	48 8d 85 48 e6 ff ff 	lea    -0x19b8(%rbp),%rax
    63e2:	48 89 85 68 fb ff ff 	mov    %rax,-0x498(%rbp)
    63e9:	48 8d 85 48 e6 ff ff 	lea    -0x19b8(%rbp),%rax
    63f0:	48 89 85 70 fb ff ff 	mov    %rax,-0x490(%rbp)
    63f7:	48 c7 85 78 fb ff ff 	movq   $0x0,-0x488(%rbp)
    63fe:	00 00 00 00 
    6402:	48 c7 85 80 fb ff ff 	movq   $0x0,-0x480(%rbp)
    6409:	00 00 00 00 
    640d:	48 8d 85 48 e6 ff ff 	lea    -0x19b8(%rbp),%rax
    6414:	48 89 85 88 fb ff ff 	mov    %rax,-0x478(%rbp)
    641b:	48 8d 85 48 e6 ff ff 	lea    -0x19b8(%rbp),%rax
    6422:	48 89 85 90 fb ff ff 	mov    %rax,-0x470(%rbp)
    6429:	48 8d 85 48 e6 ff ff 	lea    -0x19b8(%rbp),%rax
    6430:	48 89 85 98 fb ff ff 	mov    %rax,-0x468(%rbp)
    6437:	48 8d 85 48 e6 ff ff 	lea    -0x19b8(%rbp),%rax
    643e:	48 89 85 a0 fb ff ff 	mov    %rax,-0x460(%rbp)
    6445:	48 8d 85 48 e6 ff ff 	lea    -0x19b8(%rbp),%rax
    644c:	48 89 85 a8 fb ff ff 	mov    %rax,-0x458(%rbp)
    6453:	48 8d 85 48 e6 ff ff 	lea    -0x19b8(%rbp),%rax
    645a:	48 89 85 b0 fb ff ff 	mov    %rax,-0x450(%rbp)
    6461:	48 8d 85 48 e6 ff ff 	lea    -0x19b8(%rbp),%rax
    6468:	48 89 85 b8 fb ff ff 	mov    %rax,-0x448(%rbp)
    646f:	48 8d 85 48 e6 ff ff 	lea    -0x19b8(%rbp),%rax
    6476:	48 89 85 c0 fb ff ff 	mov    %rax,-0x440(%rbp)
    647d:	48 8d 85 48 e6 ff ff 	lea    -0x19b8(%rbp),%rax
    6484:	48 89 85 c8 fb ff ff 	mov    %rax,-0x438(%rbp)
    648b:	48 8d 85 48 e6 ff ff 	lea    -0x19b8(%rbp),%rax
    6492:	48 89 85 d0 fb ff ff 	mov    %rax,-0x430(%rbp)
    6499:	48 c7 85 d8 fb ff ff 	movq   $0x0,-0x428(%rbp)
    64a0:	00 00 00 00 
    64a4:	48 8d 85 48 e6 ff ff 	lea    -0x19b8(%rbp),%rax
    64ab:	48 89 85 e0 fb ff ff 	mov    %rax,-0x420(%rbp)
    64b2:	48 8d 85 48 e6 ff ff 	lea    -0x19b8(%rbp),%rax
    64b9:	48 89 85 e8 fb ff ff 	mov    %rax,-0x418(%rbp)
    64c0:	48 8d 85 48 e6 ff ff 	lea    -0x19b8(%rbp),%rax
    64c7:	48 89 85 f0 fb ff ff 	mov    %rax,-0x410(%rbp)
    64ce:	48 8d 85 48 e6 ff ff 	lea    -0x19b8(%rbp),%rax
    64d5:	48 89 85 f8 fb ff ff 	mov    %rax,-0x408(%rbp)
    64dc:	48 8d 85 48 e6 ff ff 	lea    -0x19b8(%rbp),%rax
    64e3:	48 89 85 00 fc ff ff 	mov    %rax,-0x400(%rbp)
    64ea:	48 8d 85 48 e6 ff ff 	lea    -0x19b8(%rbp),%rax
    64f1:	48 89 85 08 fc ff ff 	mov    %rax,-0x3f8(%rbp)
    64f8:	48 8d 85 48 e6 ff ff 	lea    -0x19b8(%rbp),%rax
    64ff:	48 89 85 10 fc ff ff 	mov    %rax,-0x3f0(%rbp)
    6506:	48 8d 85 48 e6 ff ff 	lea    -0x19b8(%rbp),%rax
    650d:	48 89 85 18 fc ff ff 	mov    %rax,-0x3e8(%rbp)
    6514:	48 c7 85 20 fc ff ff 	movq   $0x0,-0x3e0(%rbp)
    651b:	00 00 00 00 
    651f:	48 8d 85 48 e6 ff ff 	lea    -0x19b8(%rbp),%rax
    6526:	48 89 85 28 fc ff ff 	mov    %rax,-0x3d8(%rbp)
    652d:	48 8d 85 48 e6 ff ff 	lea    -0x19b8(%rbp),%rax
    6534:	48 89 85 30 fc ff ff 	mov    %rax,-0x3d0(%rbp)
    653b:	48 c7 85 38 fc ff ff 	movq   $0x0,-0x3c8(%rbp)
    6542:	00 00 00 00 
    6546:	48 c7 85 40 fc ff ff 	movq   $0x0,-0x3c0(%rbp)
    654d:	00 00 00 00 
    6551:	48 8d 85 48 e6 ff ff 	lea    -0x19b8(%rbp),%rax
    6558:	48 89 85 48 fc ff ff 	mov    %rax,-0x3b8(%rbp)
    655f:	48 8d 85 48 e6 ff ff 	lea    -0x19b8(%rbp),%rax
    6566:	48 89 85 50 fc ff ff 	mov    %rax,-0x3b0(%rbp)
    656d:	48 8d 85 48 e6 ff ff 	lea    -0x19b8(%rbp),%rax
    6574:	48 89 85 58 fc ff ff 	mov    %rax,-0x3a8(%rbp)
    657b:	48 8d 85 48 e6 ff ff 	lea    -0x19b8(%rbp),%rax
    6582:	48 89 85 60 fc ff ff 	mov    %rax,-0x3a0(%rbp)
    6589:	48 c7 85 68 fc ff ff 	movq   $0x0,-0x398(%rbp)
    6590:	00 00 00 00 
    6594:	48 c7 85 70 fc ff ff 	movq   $0x0,-0x390(%rbp)
    659b:	00 00 00 00 
    659f:	48 8d 85 48 e6 ff ff 	lea    -0x19b8(%rbp),%rax
    65a6:	48 89 85 78 fc ff ff 	mov    %rax,-0x388(%rbp)
    65ad:	48 8d 85 48 e6 ff ff 	lea    -0x19b8(%rbp),%rax
    65b4:	48 89 85 80 fc ff ff 	mov    %rax,-0x380(%rbp)
    65bb:	48 8d 85 48 e6 ff ff 	lea    -0x19b8(%rbp),%rax
    65c2:	48 89 85 88 fc ff ff 	mov    %rax,-0x378(%rbp)
    65c9:	48 8d 85 48 e6 ff ff 	lea    -0x19b8(%rbp),%rax
    65d0:	48 89 85 90 fc ff ff 	mov    %rax,-0x370(%rbp)
    65d7:	48 c7 85 98 fc ff ff 	movq   $0x0,-0x368(%rbp)
    65de:	00 00 00 00 
    65e2:	48 8d 85 48 e6 ff ff 	lea    -0x19b8(%rbp),%rax
    65e9:	48 89 85 a0 fc ff ff 	mov    %rax,-0x360(%rbp)
    65f0:	48 8d 85 48 e6 ff ff 	lea    -0x19b8(%rbp),%rax
    65f7:	48 89 85 a8 fc ff ff 	mov    %rax,-0x358(%rbp)
    65fe:	48 8d 85 48 e6 ff ff 	lea    -0x19b8(%rbp),%rax
    6605:	48 89 85 b0 fc ff ff 	mov    %rax,-0x350(%rbp)
    660c:	48 8d 85 48 e6 ff ff 	lea    -0x19b8(%rbp),%rax
    6613:	48 89 85 b8 fc ff ff 	mov    %rax,-0x348(%rbp)
    661a:	48 8d 85 48 e6 ff ff 	lea    -0x19b8(%rbp),%rax
    6621:	48 89 85 c0 fc ff ff 	mov    %rax,-0x340(%rbp)
    6628:	48 8d 85 48 e6 ff ff 	lea    -0x19b8(%rbp),%rax
    662f:	48 89 85 c8 fc ff ff 	mov    %rax,-0x338(%rbp)
    6636:	48 8d 85 48 e6 ff ff 	lea    -0x19b8(%rbp),%rax
    663d:	48 89 85 d0 fc ff ff 	mov    %rax,-0x330(%rbp)
    6644:	48 8d 85 48 e6 ff ff 	lea    -0x19b8(%rbp),%rax
    664b:	48 89 85 d8 fc ff ff 	mov    %rax,-0x328(%rbp)
    6652:	48 8d 85 48 e6 ff ff 	lea    -0x19b8(%rbp),%rax
    6659:	48 89 85 e0 fc ff ff 	mov    %rax,-0x320(%rbp)
    6660:	48 8d 85 48 e6 ff ff 	lea    -0x19b8(%rbp),%rax
    6667:	48 89 85 e8 fc ff ff 	mov    %rax,-0x318(%rbp)
    666e:	48 8d 85 48 e6 ff ff 	lea    -0x19b8(%rbp),%rax
    6675:	48 89 85 f0 fc ff ff 	mov    %rax,-0x310(%rbp)
    667c:	48 c7 85 f8 fc ff ff 	movq   $0x0,-0x308(%rbp)
    6683:	00 00 00 00 
    6687:	48 8d 85 48 e6 ff ff 	lea    -0x19b8(%rbp),%rax
    668e:	48 89 85 00 fd ff ff 	mov    %rax,-0x300(%rbp)
    6695:	48 8d 85 48 e6 ff ff 	lea    -0x19b8(%rbp),%rax
    669c:	48 89 85 08 fd ff ff 	mov    %rax,-0x2f8(%rbp)
    66a3:	48 c7 85 10 fd ff ff 	movq   $0x0,-0x2f0(%rbp)
    66aa:	00 00 00 00 
    66ae:	48 8d 85 48 e6 ff ff 	lea    -0x19b8(%rbp),%rax
    66b5:	48 89 85 18 fd ff ff 	mov    %rax,-0x2e8(%rbp)
    66bc:	48 c7 85 20 fd ff ff 	movq   $0x0,-0x2e0(%rbp)
    66c3:	00 00 00 00 
    66c7:	48 c7 85 28 fd ff ff 	movq   $0x0,-0x2d8(%rbp)
    66ce:	00 00 00 00 
    66d2:	48 8d 85 48 e6 ff ff 	lea    -0x19b8(%rbp),%rax
    66d9:	48 89 85 30 fd ff ff 	mov    %rax,-0x2d0(%rbp)
    66e0:	48 c7 85 38 fd ff ff 	movq   $0x0,-0x2c8(%rbp)
    66e7:	00 00 00 00 
    66eb:	48 8d 85 48 e6 ff ff 	lea    -0x19b8(%rbp),%rax
    66f2:	48 89 85 40 fd ff ff 	mov    %rax,-0x2c0(%rbp)
    66f9:	48 8d 85 48 e6 ff ff 	lea    -0x19b8(%rbp),%rax
    6700:	48 89 85 48 fd ff ff 	mov    %rax,-0x2b8(%rbp)
    6707:	48 8d 85 48 e6 ff ff 	lea    -0x19b8(%rbp),%rax
    670e:	48 89 85 50 fd ff ff 	mov    %rax,-0x2b0(%rbp)
    6715:	48 8d 85 48 e6 ff ff 	lea    -0x19b8(%rbp),%rax
    671c:	48 89 85 58 fd ff ff 	mov    %rax,-0x2a8(%rbp)
    6723:	48 8d 85 48 e6 ff ff 	lea    -0x19b8(%rbp),%rax
    672a:	48 89 85 60 fd ff ff 	mov    %rax,-0x2a0(%rbp)
    6731:	48 8d 85 48 e6 ff ff 	lea    -0x19b8(%rbp),%rax
    6738:	48 89 85 68 fd ff ff 	mov    %rax,-0x298(%rbp)
    673f:	48 8d 85 48 e6 ff ff 	lea    -0x19b8(%rbp),%rax
    6746:	48 89 85 70 fd ff ff 	mov    %rax,-0x290(%rbp)
    674d:	48 8d 85 48 e6 ff ff 	lea    -0x19b8(%rbp),%rax
    6754:	48 89 85 78 fd ff ff 	mov    %rax,-0x288(%rbp)
    675b:	48 c7 85 80 fd ff ff 	movq   $0x0,-0x280(%rbp)
    6762:	00 00 00 00 
    6766:	48 c7 85 88 fd ff ff 	movq   $0x0,-0x278(%rbp)
    676d:	00 00 00 00 
    6771:	48 8d 85 48 e6 ff ff 	lea    -0x19b8(%rbp),%rax
    6778:	48 89 85 90 fd ff ff 	mov    %rax,-0x270(%rbp)
    677f:	48 c7 85 98 fd ff ff 	movq   $0x0,-0x268(%rbp)
    6786:	00 00 00 00 
    678a:	48 8d 85 48 e6 ff ff 	lea    -0x19b8(%rbp),%rax
    6791:	48 89 85 a0 fd ff ff 	mov    %rax,-0x260(%rbp)
    6798:	48 8d 85 48 e6 ff ff 	lea    -0x19b8(%rbp),%rax
    679f:	48 89 85 a8 fd ff ff 	mov    %rax,-0x258(%rbp)
    67a6:	48 8d 85 48 e6 ff ff 	lea    -0x19b8(%rbp),%rax
    67ad:	48 89 85 b0 fd ff ff 	mov    %rax,-0x250(%rbp)
    67b4:	48 c7 85 b8 fd ff ff 	movq   $0x0,-0x248(%rbp)
    67bb:	00 00 00 00 
    67bf:	48 c7 85 c0 fd ff ff 	movq   $0x0,-0x240(%rbp)
    67c6:	00 00 00 00 
    67ca:	48 8d 85 48 e6 ff ff 	lea    -0x19b8(%rbp),%rax
    67d1:	48 89 85 c8 fd ff ff 	mov    %rax,-0x238(%rbp)
    67d8:	48 c7 85 d0 fd ff ff 	movq   $0x0,-0x230(%rbp)
    67df:	00 00 00 00 
    67e3:	48 8d 85 48 e6 ff ff 	lea    -0x19b8(%rbp),%rax
    67ea:	48 89 85 d8 fd ff ff 	mov    %rax,-0x228(%rbp)
    67f1:	48 8d 85 48 e6 ff ff 	lea    -0x19b8(%rbp),%rax
    67f8:	48 89 85 e0 fd ff ff 	mov    %rax,-0x220(%rbp)
    67ff:	48 8d 85 48 e6 ff ff 	lea    -0x19b8(%rbp),%rax
    6806:	48 89 85 e8 fd ff ff 	mov    %rax,-0x218(%rbp)
    680d:	48 8d 85 48 e6 ff ff 	lea    -0x19b8(%rbp),%rax
    6814:	48 89 85 f0 fd ff ff 	mov    %rax,-0x210(%rbp)
    681b:	48 c7 85 f8 fd ff ff 	movq   $0x0,-0x208(%rbp)
    6822:	00 00 00 00 
    6826:	48 c7 85 00 fe ff ff 	movq   $0x0,-0x200(%rbp)
    682d:	00 00 00 00 
    6831:	48 c7 85 08 fe ff ff 	movq   $0x0,-0x1f8(%rbp)
    6838:	00 00 00 00 
    683c:	48 8d 85 48 e6 ff ff 	lea    -0x19b8(%rbp),%rax
    6843:	48 89 85 10 fe ff ff 	mov    %rax,-0x1f0(%rbp)
    684a:	48 8d 85 48 e6 ff ff 	lea    -0x19b8(%rbp),%rax
    6851:	48 89 85 18 fe ff ff 	mov    %rax,-0x1e8(%rbp)
    6858:	48 8d 85 48 e6 ff ff 	lea    -0x19b8(%rbp),%rax
    685f:	48 89 85 20 fe ff ff 	mov    %rax,-0x1e0(%rbp)
    6866:	48 8d 85 48 e6 ff ff 	lea    -0x19b8(%rbp),%rax
    686d:	48 89 85 28 fe ff ff 	mov    %rax,-0x1d8(%rbp)
    6874:	48 8d 85 48 e6 ff ff 	lea    -0x19b8(%rbp),%rax
    687b:	48 89 85 30 fe ff ff 	mov    %rax,-0x1d0(%rbp)
    6882:	48 8d 85 48 e6 ff ff 	lea    -0x19b8(%rbp),%rax
    6889:	48 89 85 38 fe ff ff 	mov    %rax,-0x1c8(%rbp)
    6890:	48 c7 85 40 fe ff ff 	movq   $0x0,-0x1c0(%rbp)
    6897:	00 00 00 00 
    689b:	48 8d 85 48 e6 ff ff 	lea    -0x19b8(%rbp),%rax
    68a2:	48 89 85 48 fe ff ff 	mov    %rax,-0x1b8(%rbp)
    68a9:	48 8d 85 48 e6 ff ff 	lea    -0x19b8(%rbp),%rax
    68b0:	48 89 85 50 fe ff ff 	mov    %rax,-0x1b0(%rbp)
    68b7:	48 8d 85 48 e6 ff ff 	lea    -0x19b8(%rbp),%rax
    68be:	48 89 85 58 fe ff ff 	mov    %rax,-0x1a8(%rbp)
    68c5:	48 c7 85 60 fe ff ff 	movq   $0x0,-0x1a0(%rbp)
    68cc:	00 00 00 00 
    68d0:	48 8d 85 48 e6 ff ff 	lea    -0x19b8(%rbp),%rax
    68d7:	48 89 85 68 fe ff ff 	mov    %rax,-0x198(%rbp)
    68de:	48 8d 85 48 e6 ff ff 	lea    -0x19b8(%rbp),%rax
    68e5:	48 89 85 70 fe ff ff 	mov    %rax,-0x190(%rbp)
    68ec:	48 8d 85 48 e6 ff ff 	lea    -0x19b8(%rbp),%rax
    68f3:	48 89 85 78 fe ff ff 	mov    %rax,-0x188(%rbp)
    68fa:	48 c7 85 80 fe ff ff 	movq   $0x0,-0x180(%rbp)
    6901:	00 00 00 00 
    6905:	48 8d 85 48 e6 ff ff 	lea    -0x19b8(%rbp),%rax
    690c:	48 89 85 88 fe ff ff 	mov    %rax,-0x178(%rbp)
    6913:	48 c7 85 90 fe ff ff 	movq   $0x0,-0x170(%rbp)
    691a:	00 00 00 00 
    691e:	48 8d 85 48 e6 ff ff 	lea    -0x19b8(%rbp),%rax
    6925:	48 89 85 98 fe ff ff 	mov    %rax,-0x168(%rbp)
    692c:	48 8d 85 48 e6 ff ff 	lea    -0x19b8(%rbp),%rax
    6933:	48 89 85 a0 fe ff ff 	mov    %rax,-0x160(%rbp)
    693a:	48 8d 85 48 e6 ff ff 	lea    -0x19b8(%rbp),%rax
    6941:	48 89 85 a8 fe ff ff 	mov    %rax,-0x158(%rbp)
    6948:	48 c7 85 b0 fe ff ff 	movq   $0x0,-0x150(%rbp)
    694f:	00 00 00 00 
    6953:	48 8d 85 48 e6 ff ff 	lea    -0x19b8(%rbp),%rax
    695a:	48 89 85 b8 fe ff ff 	mov    %rax,-0x148(%rbp)
    6961:	48 c7 85 c0 fe ff ff 	movq   $0x0,-0x140(%rbp)
    6968:	00 00 00 00 
    696c:	48 8d 85 48 e6 ff ff 	lea    -0x19b8(%rbp),%rax
    6973:	48 89 85 c8 fe ff ff 	mov    %rax,-0x138(%rbp)
    697a:	48 8d 85 48 e6 ff ff 	lea    -0x19b8(%rbp),%rax
    6981:	48 89 85 d0 fe ff ff 	mov    %rax,-0x130(%rbp)
    6988:	48 c7 85 d8 fe ff ff 	movq   $0x0,-0x128(%rbp)
    698f:	00 00 00 00 
    6993:	48 c7 85 e0 fe ff ff 	movq   $0x0,-0x120(%rbp)
    699a:	00 00 00 00 
    699e:	48 8d 85 48 e6 ff ff 	lea    -0x19b8(%rbp),%rax
    69a5:	48 89 85 e8 fe ff ff 	mov    %rax,-0x118(%rbp)
    69ac:	48 8d 85 48 e6 ff ff 	lea    -0x19b8(%rbp),%rax
    69b3:	48 89 85 f0 fe ff ff 	mov    %rax,-0x110(%rbp)
    69ba:	48 8d 85 48 e6 ff ff 	lea    -0x19b8(%rbp),%rax
    69c1:	48 89 85 f8 fe ff ff 	mov    %rax,-0x108(%rbp)
    69c8:	48 8d 85 48 e6 ff ff 	lea    -0x19b8(%rbp),%rax
    69cf:	48 89 85 00 ff ff ff 	mov    %rax,-0x100(%rbp)
    69d6:	48 c7 85 08 ff ff ff 	movq   $0x0,-0xf8(%rbp)
    69dd:	00 00 00 00 
    69e1:	48 8d 85 48 e6 ff ff 	lea    -0x19b8(%rbp),%rax
    69e8:	48 89 85 10 ff ff ff 	mov    %rax,-0xf0(%rbp)
    69ef:	48 8d 85 48 e6 ff ff 	lea    -0x19b8(%rbp),%rax
    69f6:	48 89 85 18 ff ff ff 	mov    %rax,-0xe8(%rbp)
    69fd:	48 8d 85 48 e6 ff ff 	lea    -0x19b8(%rbp),%rax
    6a04:	48 89 85 20 ff ff ff 	mov    %rax,-0xe0(%rbp)
    6a0b:	48 8d 85 48 e6 ff ff 	lea    -0x19b8(%rbp),%rax
    6a12:	48 89 85 28 ff ff ff 	mov    %rax,-0xd8(%rbp)
    6a19:	48 8d 85 48 e6 ff ff 	lea    -0x19b8(%rbp),%rax
    6a20:	48 89 85 30 ff ff ff 	mov    %rax,-0xd0(%rbp)
    6a27:	48 8d 85 48 e6 ff ff 	lea    -0x19b8(%rbp),%rax
    6a2e:	48 89 85 38 ff ff ff 	mov    %rax,-0xc8(%rbp)
    6a35:	48 8d 85 48 e6 ff ff 	lea    -0x19b8(%rbp),%rax
    6a3c:	48 89 85 40 ff ff ff 	mov    %rax,-0xc0(%rbp)
    6a43:	48 c7 85 48 ff ff ff 	movq   $0x0,-0xb8(%rbp)
    6a4a:	00 00 00 00 
    6a4e:	48 8d 85 48 e6 ff ff 	lea    -0x19b8(%rbp),%rax
    6a55:	48 89 85 50 ff ff ff 	mov    %rax,-0xb0(%rbp)
    6a5c:	48 8d 85 48 e6 ff ff 	lea    -0x19b8(%rbp),%rax
    6a63:	48 89 85 58 ff ff ff 	mov    %rax,-0xa8(%rbp)
    6a6a:	48 c7 85 60 ff ff ff 	movq   $0x0,-0xa0(%rbp)
    6a71:	00 00 00 00 
    6a75:	48 c7 85 68 ff ff ff 	movq   $0x0,-0x98(%rbp)
    6a7c:	00 00 00 00 
    6a80:	48 8d 85 48 e6 ff ff 	lea    -0x19b8(%rbp),%rax
    6a87:	48 89 85 70 ff ff ff 	mov    %rax,-0x90(%rbp)
    6a8e:	48 8d 85 48 e6 ff ff 	lea    -0x19b8(%rbp),%rax
    6a95:	48 89 85 78 ff ff ff 	mov    %rax,-0x88(%rbp)
    6a9c:	48 8d 85 48 e6 ff ff 	lea    -0x19b8(%rbp),%rax
    6aa3:	48 89 45 80          	mov    %rax,-0x80(%rbp)
    6aa7:	48 8d 85 48 e6 ff ff 	lea    -0x19b8(%rbp),%rax
    6aae:	48 89 45 88          	mov    %rax,-0x78(%rbp)
    6ab2:	48 8d 85 48 e6 ff ff 	lea    -0x19b8(%rbp),%rax
    6ab9:	48 89 45 90          	mov    %rax,-0x70(%rbp)
    6abd:	48 8d 85 48 e6 ff ff 	lea    -0x19b8(%rbp),%rax
    6ac4:	48 89 45 98          	mov    %rax,-0x68(%rbp)
    6ac8:	48 c7 45 a0 00 00 00 	movq   $0x0,-0x60(%rbp)
    6acf:	00 
    6ad0:	48 8d 85 48 e6 ff ff 	lea    -0x19b8(%rbp),%rax
    6ad7:	48 89 45 a8          	mov    %rax,-0x58(%rbp)
    6adb:	48 c7 45 b0 00 00 00 	movq   $0x0,-0x50(%rbp)
    6ae2:	00 
    6ae3:	48 8d 85 48 e6 ff ff 	lea    -0x19b8(%rbp),%rax
    6aea:	48 89 45 b8          	mov    %rax,-0x48(%rbp)
    6aee:	48 8d 85 e0 f7 ff ff 	lea    -0x820(%rbp),%rax
    6af5:	48 05 d0 05 00 00    	add    $0x5d0,%rax
    6afb:	48 89 85 d0 e6 ff ff 	mov    %rax,-0x1930(%rbp)
    6b02:	48 b8 c3 95 0a 86 be 	movabs $0xb73040be860a95c3,%rax
    6b09:	40 30 b7 
    6b0c:	48 89 85 30 ea ff ff 	mov    %rax,-0x15d0(%rbp)
    6b13:	48 89 85 38 ea ff ff 	mov    %rax,-0x15c8(%rbp)
    6b1a:	48 89 85 40 ea ff ff 	mov    %rax,-0x15c0(%rbp)
    6b21:	48 89 85 48 ea ff ff 	mov    %rax,-0x15b8(%rbp)
    6b28:	48 89 85 50 ea ff ff 	mov    %rax,-0x15b0(%rbp)
    6b2f:	48 89 85 58 ea ff ff 	mov    %rax,-0x15a8(%rbp)
    6b36:	48 89 85 60 ea ff ff 	mov    %rax,-0x15a0(%rbp)
    6b3d:	48 89 85 68 ea ff ff 	mov    %rax,-0x1598(%rbp)
    6b44:	48 89 85 70 ea ff ff 	mov    %rax,-0x1590(%rbp)
    6b4b:	c7 85 54 e5 ff ff a1 	movl   $0x6b72fa1,-0x1aac(%rbp)
    6b52:	2f b7 06 
    6b55:	c7 85 e4 e4 ff ff 09 	movl   $0x9,-0x1b1c(%rbp)
    6b5c:	00 00 00 
    6b5f:	48 c7 85 50 e6 ff ff 	movq   $0x0,-0x19b0(%rbp)
    6b66:	00 00 00 00 
    6b6a:	48 8d 85 50 e6 ff ff 	lea    -0x19b0(%rbp),%rax
    6b71:	48 89 85 20 eb ff ff 	mov    %rax,-0x14e0(%rbp)
    6b78:	48 8d 85 50 e6 ff ff 	lea    -0x19b0(%rbp),%rax
    6b7f:	48 89 85 28 eb ff ff 	mov    %rax,-0x14d8(%rbp)
    6b86:	48 8d 85 50 e6 ff ff 	lea    -0x19b0(%rbp),%rax
    6b8d:	48 89 85 30 eb ff ff 	mov    %rax,-0x14d0(%rbp)
    6b94:	48 8d 85 50 e6 ff ff 	lea    -0x19b0(%rbp),%rax
    6b9b:	48 89 85 38 eb ff ff 	mov    %rax,-0x14c8(%rbp)
    6ba2:	48 8d 85 50 e6 ff ff 	lea    -0x19b0(%rbp),%rax
    6ba9:	48 89 85 40 eb ff ff 	mov    %rax,-0x14c0(%rbp)
    6bb0:	48 8d 85 50 e6 ff ff 	lea    -0x19b0(%rbp),%rax
    6bb7:	48 89 85 48 eb ff ff 	mov    %rax,-0x14b8(%rbp)
    6bbe:	48 8d 85 50 e6 ff ff 	lea    -0x19b0(%rbp),%rax
    6bc5:	48 89 85 50 eb ff ff 	mov    %rax,-0x14b0(%rbp)
    6bcc:	48 8d 85 50 e6 ff ff 	lea    -0x19b0(%rbp),%rax
    6bd3:	48 89 85 58 eb ff ff 	mov    %rax,-0x14a8(%rbp)
    6bda:	48 8d 85 50 e6 ff ff 	lea    -0x19b0(%rbp),%rax
    6be1:	48 89 85 60 eb ff ff 	mov    %rax,-0x14a0(%rbp)
    6be8:	48 8d 85 50 e6 ff ff 	lea    -0x19b0(%rbp),%rax
    6bef:	48 89 85 68 eb ff ff 	mov    %rax,-0x1498(%rbp)
    6bf6:	c7 85 ec e4 ff ff 00 	movl   $0x0,-0x1b14(%rbp)
    6bfd:	00 00 00 
    6c00:	eb 1e                	jmp    6c20 <func_8+0x129d>
    6c02:	8b 85 ec e4 ff ff    	mov    -0x1b14(%rbp),%eax
    6c08:	48 98                	cltq   
    6c0a:	48 8d 15 ce 08 01 00 	lea    0x108ce(%rip),%rdx        # 174df <g_247+0x3>
    6c11:	48 89 94 c5 c0 e8 ff 	mov    %rdx,-0x1740(%rbp,%rax,8)
    6c18:	ff 
    6c19:	83 85 ec e4 ff ff 01 	addl   $0x1,-0x1b14(%rbp)
    6c20:	83 bd ec e4 ff ff 01 	cmpl   $0x1,-0x1b14(%rbp)
    6c27:	7e d9                	jle    6c02 <func_8+0x127f>
    6c29:	c7 85 ec e4 ff ff 00 	movl   $0x0,-0x1b14(%rbp)
    6c30:	00 00 00 
    6c33:	eb 53                	jmp    6c88 <func_8+0x1305>
    6c35:	c7 85 f0 e4 ff ff 00 	movl   $0x0,-0x1b10(%rbp)
    6c3c:	00 00 00 
    6c3f:	eb 37                	jmp    6c78 <func_8+0x12f5>
    6c41:	8b 85 f0 e4 ff ff    	mov    -0x1b10(%rbp),%eax
    6c47:	48 63 c8             	movslq %eax,%rcx
    6c4a:	8b 85 ec e4 ff ff    	mov    -0x1b14(%rbp),%eax
    6c50:	48 63 d0             	movslq %eax,%rdx
    6c53:	48 89 d0             	mov    %rdx,%rax
    6c56:	48 01 c0             	add    %rax,%rax
    6c59:	48 01 d0             	add    %rdx,%rax
    6c5c:	48 01 c8             	add    %rcx,%rax
    6c5f:	48 bb 0b d6 a3 c3 21 	movabs $0x9f29c621c3a3d60b,%rbx
    6c66:	c6 29 9f 
    6c69:	48 89 9c c5 e0 e9 ff 	mov    %rbx,-0x1620(%rbp,%rax,8)
    6c70:	ff 
    6c71:	83 85 f0 e4 ff ff 01 	addl   $0x1,-0x1b10(%rbp)
    6c78:	83 bd f0 e4 ff ff 02 	cmpl   $0x2,-0x1b10(%rbp)
    6c7f:	7e c0                	jle    6c41 <func_8+0x12be>
    6c81:	83 85 ec e4 ff ff 01 	addl   $0x1,-0x1b14(%rbp)
    6c88:	83 bd ec e4 ff ff 02 	cmpl   $0x2,-0x1b14(%rbp)
    6c8f:	7e a4                	jle    6c35 <func_8+0x12b2>
    6c91:	c7 85 ec e4 ff ff 00 	movl   $0x0,-0x1b14(%rbp)
    6c98:	00 00 00 
    6c9b:	eb 1a                	jmp    6cb7 <func_8+0x1334>
    6c9d:	8b 85 ec e4 ff ff    	mov    -0x1b14(%rbp),%eax
    6ca3:	48 98                	cltq   
    6ca5:	c7 84 85 f0 e8 ff ff 	movl   $0x0,-0x1710(%rbp,%rax,4)
    6cac:	00 00 00 00 
    6cb0:	83 85 ec e4 ff ff 01 	addl   $0x1,-0x1b14(%rbp)
    6cb7:	83 bd ec e4 ff ff 05 	cmpl   $0x5,-0x1b14(%rbp)
    6cbe:	7e dd                	jle    6c9d <func_8+0x131a>
    6cc0:	c7 85 ec e4 ff ff 00 	movl   $0x0,-0x1b14(%rbp)
    6cc7:	00 00 00 
    6cca:	eb 4a                	jmp    6d16 <func_8+0x1393>
    6ccc:	c7 85 f0 e4 ff ff 00 	movl   $0x0,-0x1b10(%rbp)
    6cd3:	00 00 00 
    6cd6:	eb 2e                	jmp    6d06 <func_8+0x1383>
    6cd8:	8b 85 f0 e4 ff ff    	mov    -0x1b10(%rbp),%eax
    6cde:	48 98                	cltq   
    6ce0:	8b 95 ec e4 ff ff    	mov    -0x1b14(%rbp),%edx
    6ce6:	48 63 d2             	movslq %edx,%rdx
    6ce9:	48 c1 e2 02          	shl    $0x2,%rdx
    6ced:	48 01 d0             	add    %rdx,%rax
    6cf0:	48 8d 15 e7 0c 01 00 	lea    0x10ce7(%rip),%rdx        # 179de <g_1306+0x6>
    6cf7:	48 89 94 c5 20 ec ff 	mov    %rdx,-0x13e0(%rbp,%rax,8)
    6cfe:	ff 
    6cff:	83 85 f0 e4 ff ff 01 	addl   $0x1,-0x1b10(%rbp)
    6d06:	83 bd f0 e4 ff ff 03 	cmpl   $0x3,-0x1b10(%rbp)
    6d0d:	7e c9                	jle    6cd8 <func_8+0x1355>
    6d0f:	83 85 ec e4 ff ff 01 	addl   $0x1,-0x1b14(%rbp)
    6d16:	83 bd ec e4 ff ff 02 	cmpl   $0x2,-0x1b14(%rbp)
    6d1d:	7e ad                	jle    6ccc <func_8+0x1349>
    6d1f:	c7 85 ec e4 ff ff 00 	movl   $0x0,-0x1b14(%rbp)
    6d26:	00 00 00 
    6d29:	eb 54                	jmp    6d7f <func_8+0x13fc>
    6d2b:	c7 85 f0 e4 ff ff 00 	movl   $0x0,-0x1b10(%rbp)
    6d32:	00 00 00 
    6d35:	eb 38                	jmp    6d6f <func_8+0x13ec>
    6d37:	8b 85 f0 e4 ff ff    	mov    -0x1b10(%rbp),%eax
    6d3d:	48 63 c8             	movslq %eax,%rcx
    6d40:	8b 85 ec e4 ff ff    	mov    -0x1b14(%rbp),%eax
    6d46:	48 63 d0             	movslq %eax,%rdx
    6d49:	48 89 d0             	mov    %rdx,%rax
    6d4c:	48 c1 e0 02          	shl    $0x2,%rax
    6d50:	48 01 d0             	add    %rdx,%rax
    6d53:	48 01 c8             	add    %rcx,%rax
    6d56:	48 bb 93 64 cb bf 44 	movabs $0x5d20d044bfcb6493,%rbx
    6d5d:	d0 20 5d 
    6d60:	48 89 9c c5 10 e9 ff 	mov    %rbx,-0x16f0(%rbp,%rax,8)
    6d67:	ff 
    6d68:	83 85 f0 e4 ff ff 01 	addl   $0x1,-0x1b10(%rbp)
    6d6f:	83 bd f0 e4 ff ff 04 	cmpl   $0x4,-0x1b10(%rbp)
    6d76:	7e bf                	jle    6d37 <func_8+0x13b4>
    6d78:	83 85 ec e4 ff ff 01 	addl   $0x1,-0x1b14(%rbp)
    6d7f:	83 bd ec e4 ff ff 00 	cmpl   $0x0,-0x1b14(%rbp)
    6d86:	7e a3                	jle    6d2b <func_8+0x13a8>
    6d88:	8b 85 28 e5 ff ff    	mov    -0x1ad8(%rbp),%eax
    6d8e:	89 85 b4 e4 ff ff    	mov    %eax,-0x1b4c(%rbp)
    6d94:	8b 85 b4 e4 ff ff    	mov    -0x1b4c(%rbp),%eax
    6d9a:	83 f8 ff             	cmp    $0xffffffff,%eax
    6d9d:	0f 84 bb 00 00 00    	je     6e5e <func_8+0x14db>
    6da3:	8b 85 bc e4 ff ff    	mov    -0x1b44(%rbp),%eax
    6da9:	48 63 d0             	movslq %eax,%rdx
    6dac:	8b 85 bc e4 ff ff    	mov    -0x1b44(%rbp),%eax
    6db2:	39 85 28 e5 ff ff    	cmp    %eax,-0x1ad8(%rbp)
    6db8:	76 0a                	jbe    6dc4 <func_8+0x1441>
    6dba:	8b 85 bc e4 ff ff    	mov    -0x1b44(%rbp),%eax
    6dc0:	85 c0                	test   %eax,%eax
    6dc2:	74 07                	je     6dcb <func_8+0x1448>
    6dc4:	b9 01 00 00 00       	mov    $0x1,%ecx
    6dc9:	eb 05                	jmp    6dd0 <func_8+0x144d>
    6dcb:	b9 00 00 00 00       	mov    $0x0,%ecx
    6dd0:	8b 85 bc e4 ff ff    	mov    -0x1b44(%rbp),%eax
    6dd6:	39 c1                	cmp    %eax,%ecx
    6dd8:	0f 9d c0             	setge  %al
    6ddb:	0f b6 c0             	movzbl %al,%eax
    6dde:	89 c1                	mov    %eax,%ecx
    6de0:	8b 05 ea 06 01 00    	mov    0x106ea(%rip),%eax        # 174d0 <g_215>
    6de6:	09 c1                	or     %eax,%ecx
    6de8:	0f b7 85 84 e4 ff ff 	movzwl -0x1b7c(%rbp),%eax
    6def:	0f b7 c0             	movzwl %ax,%eax
    6df2:	39 c1                	cmp    %eax,%ecx
    6df4:	0f 97 c1             	seta   %cl
    6df7:	48 8b 85 30 e6 ff ff 	mov    -0x19d0(%rbp),%rax
    6dfe:	0f b6 c9             	movzbl %cl,%ecx
    6e01:	48 89 08             	mov    %rcx,(%rax)
    6e04:	48 8b 00             	mov    (%rax),%rax
    6e07:	48 89 d6             	mov    %rdx,%rsi
    6e0a:	48 89 c7             	mov    %rax,%rdi
    6e0d:	e8 96 da ff ff       	callq  48a8 <safe_sub_func_int64_t_s_s>
    6e12:	8b 85 88 e4 ff ff    	mov    -0x1b78(%rbp),%eax
    6e18:	88 05 3a 07 01 00    	mov    %al,0x1073a(%rip)        # 17558 <g_485>
    6e1e:	0f b6 05 33 07 01 00 	movzbl 0x10733(%rip),%eax        # 17558 <g_485>
    6e25:	0f be c0             	movsbl %al,%eax
    6e28:	be 01 00 00 00       	mov    $0x1,%esi
    6e2d:	89 c7                	mov    %eax,%edi
    6e2f:	e8 38 d5 ff ff       	callq  436c <safe_rshift_func_int8_t_s_u>
    6e34:	48 0f be c0          	movsbq %al,%rax
    6e38:	25 36 0a f2 39       	and    $0x39f20a36,%eax
    6e3d:	89 c2                	mov    %eax,%edx
    6e3f:	8b 85 b4 e4 ff ff    	mov    -0x1b4c(%rbp),%eax
    6e45:	09 d0                	or     %edx,%eax
    6e47:	89 85 b4 e4 ff ff    	mov    %eax,-0x1b4c(%rbp)
    6e4d:	8b 85 b4 e4 ff ff    	mov    -0x1b4c(%rbp),%eax
    6e53:	85 c0                	test   %eax,%eax
    6e55:	74 07                	je     6e5e <func_8+0x14db>
    6e57:	b8 01 00 00 00       	mov    $0x1,%eax
    6e5c:	eb 05                	jmp    6e63 <func_8+0x14e0>
    6e5e:	b8 00 00 00 00       	mov    $0x0,%eax
    6e63:	88 05 5b 06 01 00    	mov    %al,0x1065b(%rip)        # 174c4 <g_159>
    6e69:	0f b6 05 54 06 01 00 	movzbl 0x10654(%rip),%eax        # 174c4 <g_159>
    6e70:	0f b6 c0             	movzbl %al,%eax
    6e73:	be 46 00 00 00       	mov    $0x46,%esi
    6e78:	89 c7                	mov    %eax,%edi
    6e7a:	e8 14 dd ff ff       	callq  4b93 <safe_mul_func_uint8_t_u_u>
    6e7f:	0f b6 c0             	movzbl %al,%eax
    6e82:	25 a7 00 00 00       	and    $0xa7,%eax
    6e87:	be 03 00 00 00       	mov    $0x3,%esi
    6e8c:	89 c7                	mov    %eax,%edi
    6e8e:	e8 72 dd ff ff       	callq  4c05 <safe_lshift_func_uint8_t_u_s>
    6e93:	0f b6 d8             	movzbl %al,%ebx
    6e96:	0f b7 95 84 e4 ff ff 	movzwl -0x1b7c(%rbp),%edx
    6e9d:	48 8b 85 c0 e6 ff ff 	mov    -0x1940(%rbp),%rax
    6ea4:	66 89 10             	mov    %dx,(%rax)
    6ea7:	48 8b 85 c0 e6 ff ff 	mov    -0x1940(%rbp),%rax
    6eae:	0f b7 00             	movzwl (%rax),%eax
    6eb1:	0f b7 d0             	movzwl %ax,%edx
    6eb4:	8b 85 28 e5 ff ff    	mov    -0x1ad8(%rbp),%eax
    6eba:	0f b7 c0             	movzwl %ax,%eax
    6ebd:	89 d6                	mov    %edx,%esi
    6ebf:	89 c7                	mov    %eax,%edi
    6ec1:	e8 59 de ff ff       	callq  4d1f <safe_sub_func_uint16_t_u_u>
    6ec6:	89 c2                	mov    %eax,%edx
    6ec8:	0f b7 85 84 e4 ff ff 	movzwl -0x1b7c(%rbp),%eax
    6ecf:	09 d0                	or     %edx,%eax
    6ed1:	0f b6 c0             	movzbl %al,%eax
    6ed4:	89 de                	mov    %ebx,%esi
    6ed6:	89 c7                	mov    %eax,%edi
    6ed8:	e8 b6 dc ff ff       	callq  4b93 <safe_mul_func_uint8_t_u_u>
    6edd:	0f b6 d0             	movzbl %al,%edx
    6ee0:	48 8b 85 c8 e6 ff ff 	mov    -0x1938(%rbp),%rax
    6ee7:	66 89 10             	mov    %dx,(%rax)
    6eea:	48 8b 85 c8 e6 ff ff 	mov    -0x1938(%rbp),%rax
    6ef1:	0f b7 00             	movzwl (%rax),%eax
    6ef4:	0f b7 c0             	movzwl %ax,%eax
    6ef7:	21 85 3c e5 ff ff    	and    %eax,-0x1ac4(%rbp)
    6efd:	83 bd 3c e5 ff ff 00 	cmpl   $0x0,-0x1ac4(%rbp)
    6f04:	74 07                	je     6f0d <func_8+0x158a>
    6f06:	80 bd a0 e4 ff ff 00 	cmpb   $0x0,-0x1b60(%rbp)
    6f0d:	0f b7 95 84 e4 ff ff 	movzwl -0x1b7c(%rbp),%edx
    6f14:	48 8b 05 55 14 01 00 	mov    0x11455(%rip),%rax        # 18370 <g_167>
    6f1b:	48 8b 00             	mov    (%rax),%rax
    6f1e:	0f b7 d2             	movzwl %dx,%edx
    6f21:	89 10                	mov    %edx,(%rax)
    6f23:	8b 10                	mov    (%rax),%edx
    6f25:	8b 85 bc e4 ff ff    	mov    -0x1b44(%rbp),%eax
    6f2b:	39 c2                	cmp    %eax,%edx
    6f2d:	0f 94 c0             	sete   %al
    6f30:	0f b6 c0             	movzbl %al,%eax
    6f33:	8b 95 28 e5 ff ff    	mov    -0x1ad8(%rbp),%edx
    6f39:	89 d6                	mov    %edx,%esi
    6f3b:	89 c7                	mov    %eax,%edi
    6f3d:	e8 bb df ff ff       	callq  4efd <safe_mod_func_uint32_t_u_u>
    6f42:	85 c0                	test   %eax,%eax
    6f44:	0f 84 99 2b 00 00    	je     9ae3 <func_8+0x4160>
    6f4a:	48 b8 80 31 b0 87 0f 	movabs $0x1106750f87b03180,%rax
    6f51:	75 06 11 
    6f54:	48 89 85 40 e7 ff ff 	mov    %rax,-0x18c0(%rbp)
    6f5b:	48 8d 05 10 09 01 00 	lea    0x10910(%rip),%rax        # 17872 <g_851>
    6f62:	48 89 85 48 e7 ff ff 	mov    %rax,-0x18b8(%rbp)
    6f69:	48 8d 05 ec 05 01 00 	lea    0x105ec(%rip),%rax        # 1755c <g_525>
    6f70:	48 89 85 50 e7 ff ff 	mov    %rax,-0x18b0(%rbp)
    6f77:	c7 85 7c e5 ff ff 06 	movl   $0x6,-0x1a84(%rbp)
    6f7e:	00 00 00 
    6f81:	c7 85 d8 e4 ff ff 02 	movl   $0x2,-0x1b28(%rbp)
    6f88:	00 00 00 
    6f8b:	c7 85 f4 e4 ff ff 32 	movl   $0xe33cce32,-0x1b0c(%rbp)
    6f92:	ce 3c e3 
    6f95:	c7 85 dc e4 ff ff 42 	movl   $0x8d628842,-0x1b24(%rbp)
    6f9c:	88 62 8d 
    6f9f:	c7 85 80 e5 ff ff 27 	movl   $0xf7aeaa27,-0x1a80(%rbp)
    6fa6:	aa ae f7 
    6fa9:	c7 85 40 e9 ff ff 7e 	movl   $0x6777627e,-0x16c0(%rbp)
    6fb0:	62 77 67 
    6fb3:	c7 85 44 e9 ff ff 7e 	movl   $0x6777627e,-0x16bc(%rbp)
    6fba:	62 77 67 
    6fbd:	c7 85 48 e9 ff ff ed 	movl   $0x202efeed,-0x16b8(%rbp)
    6fc4:	fe 2e 20 
    6fc7:	c7 85 4c e9 ff ff 7e 	movl   $0x6777627e,-0x16b4(%rbp)
    6fce:	62 77 67 
    6fd1:	c7 85 50 e9 ff ff 7e 	movl   $0x6777627e,-0x16b0(%rbp)
    6fd8:	62 77 67 
    6fdb:	c7 85 54 e9 ff ff ed 	movl   $0x202efeed,-0x16ac(%rbp)
    6fe2:	fe 2e 20 
    6fe5:	c7 85 58 e9 ff ff 7e 	movl   $0x6777627e,-0x16a8(%rbp)
    6fec:	62 77 67 
    6fef:	48 8d 85 d0 f0 ff ff 	lea    -0xf30(%rbp),%rax
    6ff6:	48 05 f0 01 00 00    	add    $0x1f0,%rax
    6ffc:	48 89 85 58 e7 ff ff 	mov    %rax,-0x18a8(%rbp)
    7003:	48 8d 05 66 23 01 00 	lea    0x12366(%rip),%rax        # 19370 <g_1138>
    700a:	48 89 85 60 e7 ff ff 	mov    %rax,-0x18a0(%rbp)
    7011:	c7 85 e0 e4 ff ff 1a 	movl   $0x37b6921a,-0x1b20(%rbp)
    7018:	92 b6 37 
    701b:	48 8d 05 d6 1d 01 00 	lea    0x11dd6(%rip),%rax        # 18df8 <g_775>
    7022:	48 89 85 68 e7 ff ff 	mov    %rax,-0x1898(%rbp)
    7029:	48 8d 05 34 c0 00 00 	lea    0xc034(%rip),%rax        # 13064 <g_1236>
    7030:	48 89 85 70 e7 ff ff 	mov    %rax,-0x1890(%rbp)
    7037:	c7 85 84 e5 ff ff 01 	movl   $0x1,-0x1a7c(%rbp)
    703e:	00 00 00 
    7041:	48 c7 85 78 e7 ff ff 	movq   $0x0,-0x1888(%rbp)
    7048:	00 00 00 00 
    704c:	48 8d 05 6f 04 01 00 	lea    0x1046f(%rip),%rax        # 174c2 <g_157>
    7053:	48 89 85 80 e7 ff ff 	mov    %rax,-0x1880(%rbp)
    705a:	48 c7 85 88 e7 ff ff 	movq   $0x0,-0x1878(%rbp)
    7061:	00 00 00 00 
    7065:	48 c7 85 90 e7 ff ff 	movq   $0x1,-0x1870(%rbp)
    706c:	01 00 00 00 
    7070:	c6 85 a3 e4 ff ff 01 	movb   $0x1,-0x1b5d(%rbp)
    7077:	48 8d 05 d2 04 01 00 	lea    0x104d2(%rip),%rax        # 17550 <g_476>
    707e:	48 89 85 a0 e9 ff ff 	mov    %rax,-0x1660(%rbp)
    7085:	48 8d 05 c4 04 01 00 	lea    0x104c4(%rip),%rax        # 17550 <g_476>
    708c:	48 89 85 a8 e9 ff ff 	mov    %rax,-0x1658(%rbp)
    7093:	48 8d 05 b6 04 01 00 	lea    0x104b6(%rip),%rax        # 17550 <g_476>
    709a:	48 89 85 b0 e9 ff ff 	mov    %rax,-0x1650(%rbp)
    70a1:	48 8d 05 a8 04 01 00 	lea    0x104a8(%rip),%rax        # 17550 <g_476>
    70a8:	48 89 85 b8 e9 ff ff 	mov    %rax,-0x1648(%rbp)
    70af:	48 8d 05 9a 04 01 00 	lea    0x1049a(%rip),%rax        # 17550 <g_476>
    70b6:	48 89 85 c0 e9 ff ff 	mov    %rax,-0x1640(%rbp)
    70bd:	8b 05 9d 07 01 00    	mov    0x1079d(%rip),%eax        # 17860 <g_722>
    70c3:	8b 05 87 04 01 00    	mov    0x10487(%rip),%eax        # 17550 <g_476>
    70c9:	0f b6 d8             	movzbl %al,%ebx
    70cc:	48 8b 85 38 e6 ff ff 	mov    -0x19c8(%rbp),%rax
    70d3:	48 85 c0             	test   %rax,%rax
    70d6:	0f 95 c0             	setne  %al
    70d9:	0f b6 c0             	movzbl %al,%eax
    70dc:	89 85 bc e4 ff ff    	mov    %eax,-0x1b44(%rbp)
    70e2:	0f b7 85 84 e4 ff ff 	movzwl -0x1b7c(%rbp),%eax
    70e9:	44 0f bf e0          	movswl %ax,%r12d
    70ed:	8b 85 bc e4 ff ff    	mov    -0x1b44(%rbp),%eax
    70f3:	0f b7 c0             	movzwl %ax,%eax
    70f6:	be 0a 00 00 00       	mov    $0xa,%esi
    70fb:	89 c7                	mov    %eax,%edi
    70fd:	e8 46 dd ff ff       	callq  4e48 <safe_rshift_func_uint16_t_u_s>
    7102:	8b 85 88 e4 ff ff    	mov    -0x1b78(%rbp),%eax
    7108:	44 0f b6 e8          	movzbl %al,%r13d
    710c:	8b 85 88 e4 ff ff    	mov    -0x1b78(%rbp),%eax
    7112:	44 0f be f0          	movsbl %al,%r14d
    7116:	48 8b 85 40 e7 ff ff 	mov    -0x18c0(%rbp),%rax
    711d:	41 89 c7             	mov    %eax,%r15d
    7120:	0f b7 85 84 e4 ff ff 	movzwl -0x1b7c(%rbp),%eax
    7127:	0f bf d0             	movswl %ax,%edx
    712a:	8b 85 8c e4 ff ff    	mov    -0x1b74(%rbp),%eax
    7130:	48 39 85 40 e7 ff ff 	cmp    %rax,-0x18c0(%rbp)
    7137:	0f 9f c0             	setg   %al
    713a:	0f b6 c0             	movzbl %al,%eax
    713d:	89 d6                	mov    %edx,%esi
    713f:	89 c7                	mov    %eax,%edi
    7141:	e8 0f d3 ff ff       	callq  4455 <safe_div_func_int16_t_s_s>
    7146:	98                   	cwtl   
    7147:	8b 95 88 e4 ff ff    	mov    -0x1b78(%rbp),%edx
    714d:	89 d6                	mov    %edx,%esi
    714f:	89 c7                	mov    %eax,%edi
    7151:	e8 62 dd ff ff       	callq  4eb8 <safe_add_func_uint32_t_u_u>
    7156:	89 c2                	mov    %eax,%edx
    7158:	48 8b 05 99 1c 01 00 	mov    0x11c99(%rip),%rax        # 18df8 <g_775>
    715f:	48 8b 00             	mov    (%rax),%rax
    7162:	8b 08                	mov    (%rax),%ecx
    7164:	48 8b 05 8d 1c 01 00 	mov    0x11c8d(%rip),%rax        # 18df8 <g_775>
    716b:	48 8b 00             	mov    (%rax),%rax
    716e:	09 ca                	or     %ecx,%edx
    7170:	89 10                	mov    %edx,(%rax)
    7172:	b8 01 00 00 00       	mov    $0x1,%eax
    7177:	48 98                	cltq   
    7179:	48 39 85 40 e7 ff ff 	cmp    %rax,-0x18c0(%rbp)
    7180:	0f 9c c0             	setl   %al
    7183:	0f b6 c0             	movzbl %al,%eax
    7186:	44 89 fe             	mov    %r15d,%esi
    7189:	89 c7                	mov    %eax,%edi
    718b:	e8 d3 d3 ff ff       	callq  4563 <safe_rshift_func_int16_t_s_u>
    7190:	88 05 14 03 01 00    	mov    %al,0x10314(%rip)        # 174aa <g_107+0x2>
    7196:	0f b6 05 0d 03 01 00 	movzbl 0x1030d(%rip),%eax        # 174aa <g_107+0x2>
    719d:	0f be c0             	movsbl %al,%eax
    71a0:	44 89 f6             	mov    %r14d,%esi
    71a3:	89 c7                	mov    %eax,%edi
    71a5:	e8 87 d0 ff ff       	callq  4231 <safe_mod_func_int8_t_s_s>
    71aa:	8b 85 88 e4 ff ff    	mov    -0x1b78(%rbp),%eax
    71b0:	98                   	cwtl   
    71b1:	be 00 00 00 00       	mov    $0x0,%esi
    71b6:	89 c7                	mov    %eax,%edi
    71b8:	e8 6d d3 ff ff       	callq  452a <safe_rshift_func_int16_t_s_s>
    71bd:	48 be fa 7b c3 cb ad 	movabs $0xb536e1adcbc37bfa,%rsi
    71c4:	e1 36 b5 
    71c7:	bf 00 00 00 00       	mov    $0x0,%edi
    71cc:	e8 af de ff ff       	callq  5080 <safe_mod_func_uint64_t_u_u>
    71d1:	0f b6 c0             	movzbl %al,%eax
    71d4:	44 89 ee             	mov    %r13d,%esi
    71d7:	89 c7                	mov    %eax,%edi
    71d9:	e8 b5 d9 ff ff       	callq  4b93 <safe_mul_func_uint8_t_u_u>
    71de:	0f b6 c0             	movzbl %al,%eax
    71e1:	ba 01 00 00 00       	mov    $0x1,%edx
    71e6:	39 d0                	cmp    %edx,%eax
    71e8:	0f 95 c0             	setne  %al
    71eb:	0f b6 d0             	movzbl %al,%edx
    71ee:	48 8b 85 48 e7 ff ff 	mov    -0x18b8(%rbp),%rax
    71f5:	66 89 10             	mov    %dx,(%rax)
    71f8:	48 8b 85 48 e7 ff ff 	mov    -0x18b8(%rbp),%rax
    71ff:	0f b7 00             	movzwl (%rax),%eax
    7202:	66 85 c0             	test   %ax,%ax
    7205:	8b 85 3c e5 ff ff    	mov    -0x1ac4(%rbp),%eax
    720b:	0f bf d0             	movswl %ax,%edx
    720e:	48 8b 85 40 e7 ff ff 	mov    -0x18c0(%rbp),%rax
    7215:	98                   	cwtl   
    7216:	89 d6                	mov    %edx,%esi
    7218:	89 c7                	mov    %eax,%edi
    721a:	e8 d6 d1 ff ff       	callq  43f5 <safe_mul_func_int16_t_s_s>
    721f:	48 8b 95 50 e7 ff ff 	mov    -0x18b0(%rbp),%rdx
    7226:	8b 12                	mov    (%rdx),%edx
    7228:	98                   	cwtl   
    7229:	21 c2                	and    %eax,%edx
    722b:	48 8b 85 50 e7 ff ff 	mov    -0x18b0(%rbp),%rax
    7232:	89 10                	mov    %edx,(%rax)
    7234:	48 8b 85 50 e7 ff ff 	mov    -0x18b0(%rbp),%rax
    723b:	8b 00                	mov    (%rax),%eax
    723d:	89 c2                	mov    %eax,%edx
    723f:	0f b7 05 3c 07 01 00 	movzwl 0x1073c(%rip),%eax        # 17982 <g_1053>
    7246:	0f b7 c0             	movzwl %ax,%eax
    7249:	89 d6                	mov    %edx,%esi
    724b:	89 c7                	mov    %eax,%edi
    724d:	e8 7a d4 ff ff       	callq  46cc <safe_mod_func_int32_t_s_s>
    7252:	89 c2                	mov    %eax,%edx
    7254:	8b 85 88 e4 ff ff    	mov    -0x1b78(%rbp),%eax
    725a:	89 c6                	mov    %eax,%esi
    725c:	89 d7                	mov    %edx,%edi
    725e:	e8 c2 dc ff ff       	callq  4f25 <safe_div_func_uint32_t_u_u>
    7263:	8b 85 b4 e4 ff ff    	mov    -0x1b4c(%rbp),%eax
    7269:	89 c2                	mov    %eax,%edx
    726b:	8b 85 bc e4 ff ff    	mov    -0x1b44(%rbp),%eax
    7271:	09 d0                	or     %edx,%eax
    7273:	0f b6 c0             	movzbl %al,%eax
    7276:	44 89 e6             	mov    %r12d,%esi
    7279:	89 c7                	mov    %eax,%edi
    727b:	e8 ee 41 00 00       	callq  b46e <func_56>
    7280:	66 0f be 95 a0 e4 ff 	movsbw -0x1b60(%rbp),%dx
    7287:	ff 
    7288:	48 8b 85 c8 e6 ff ff 	mov    -0x1938(%rbp),%rax
    728f:	66 89 10             	mov    %dx,(%rax)
    7292:	0f b7 85 84 e4 ff ff 	movzwl -0x1b7c(%rbp),%eax
    7299:	0f b6 c0             	movzbl %al,%eax
    729c:	89 de                	mov    %ebx,%esi
    729e:	89 c7                	mov    %eax,%edi
    72a0:	e8 36 d9 ff ff       	callq  4bdb <safe_div_func_uint8_t_u_u>
    72a5:	0f b6 d0             	movzbl %al,%edx
    72a8:	0f b7 85 84 e4 ff ff 	movzwl -0x1b7c(%rbp),%eax
    72af:	66 39 c2             	cmp    %ax,%dx
    72b2:	0f b7 05 97 20 01 00 	movzwl 0x12097(%rip),%eax        # 19350 <g_507>
    72b9:	0f b6 c0             	movzbl %al,%eax
    72bc:	be 02 00 00 00       	mov    $0x2,%esi
    72c1:	89 c7                	mov    %eax,%edi
    72c3:	e8 3d d9 ff ff       	callq  4c05 <safe_lshift_func_uint8_t_u_s>
    72c8:	0f b6 d0             	movzbl %al,%edx
    72cb:	48 8b 85 50 e7 ff ff 	mov    -0x18b0(%rbp),%rax
    72d2:	89 10                	mov    %edx,(%rax)
    72d4:	48 8b 85 50 e7 ff ff 	mov    -0x18b0(%rbp),%rax
    72db:	8b 10                	mov    (%rax),%edx
    72dd:	48 8b 05 3c 11 01 00 	mov    0x1113c(%rip),%rax        # 18420 <g_494>
    72e4:	8b 00                	mov    (%rax),%eax
    72e6:	39 c2                	cmp    %eax,%edx
    72e8:	0f 97 c0             	seta   %al
    72eb:	0f b6 d0             	movzbl %al,%edx
    72ee:	48 8b 05 7b 06 01 00 	mov    0x1067b(%rip),%rax        # 17970 <g_894>
    72f5:	48 09 c2             	or     %rax,%rdx
    72f8:	48 8b 05 21 11 01 00 	mov    0x11121(%rip),%rax        # 18420 <g_494>
    72ff:	8b 00                	mov    (%rax),%eax
    7301:	48 98                	cltq   
    7303:	48 39 c2             	cmp    %rax,%rdx
    7306:	0f 86 10 02 00 00    	jbe    751c <func_8+0x1b99>
    730c:	48 8d 05 9d 01 01 00 	lea    0x1019d(%rip),%rax        # 174b0 <g_132>
    7313:	48 89 85 e8 e7 ff ff 	mov    %rax,-0x1818(%rbp)
    731a:	48 8d 85 bc e4 ff ff 	lea    -0x1b44(%rbp),%rax
    7321:	48 89 85 f0 e7 ff ff 	mov    %rax,-0x1810(%rbp)
    7328:	48 8d 05 69 01 01 00 	lea    0x10169(%rip),%rax        # 17498 <g_46+0x8>
    732f:	48 89 85 f8 e7 ff ff 	mov    %rax,-0x1808(%rbp)
    7336:	48 8d 05 73 01 01 00 	lea    0x10173(%rip),%rax        # 174b0 <g_132>
    733d:	48 89 85 00 e8 ff ff 	mov    %rax,-0x1800(%rbp)
    7344:	48 c7 85 40 ee ff ff 	movq   $0x0,-0x11c0(%rbp)
    734b:	00 00 00 00 
    734f:	48 c7 85 48 ee ff ff 	movq   $0x0,-0x11b8(%rbp)
    7356:	00 00 00 00 
    735a:	48 c7 85 50 ee ff ff 	movq   $0x0,-0x11b0(%rbp)
    7361:	00 00 00 00 
    7365:	48 c7 85 58 ee ff ff 	movq   $0x0,-0x11a8(%rbp)
    736c:	00 00 00 00 
    7370:	0f b6 85 9d e4 ff ff 	movzbl -0x1b63(%rbp),%eax
    7377:	83 e8 01             	sub    $0x1,%eax
    737a:	88 85 9d e4 ff ff    	mov    %al,-0x1b63(%rbp)
    7380:	48 8b 05 61 1a 01 00 	mov    0x11a61(%rip),%rax        # 18de8 <g_673>
    7387:	48 8b 00             	mov    (%rax),%rax
    738a:	0f b6 00             	movzbl (%rax),%eax
    738d:	0f be d0             	movsbl %al,%edx
    7390:	8b 85 8c e4 ff ff    	mov    -0x1b74(%rbp),%eax
    7396:	89 d6                	mov    %edx,%esi
    7398:	89 c7                	mov    %eax,%edi
    739a:	e8 6a 46 00 00       	callq  ba09 <func_101>
    739f:	48 89 85 70 e7 ff ff 	mov    %rax,-0x1890(%rbp)
    73a6:	48 8d 85 e0 e4 ff ff 	lea    -0x1b20(%rbp),%rax
    73ad:	48 39 85 70 e7 ff ff 	cmp    %rax,-0x1890(%rbp)
    73b4:	0f 94 c0             	sete   %al
    73b7:	0f b6 d0             	movzbl %al,%edx
    73ba:	48 8d 85 84 e4 ff ff 	lea    -0x1b7c(%rbp),%rax
    73c1:	48 39 85 c0 e6 ff ff 	cmp    %rax,-0x1940(%rbp)
    73c8:	0f 94 c0             	sete   %al
    73cb:	0f b6 c0             	movzbl %al,%eax
    73ce:	39 c2                	cmp    %eax,%edx
    73d0:	0f 9f c0             	setg   %al
    73d3:	0f b6 d0             	movzbl %al,%edx
    73d6:	48 8b 05 eb 05 01 00 	mov    0x105eb(%rip),%rax        # 179c8 <g_1234>
    73dd:	48 89 d1             	mov    %rdx,%rcx
    73e0:	48 21 c1             	and    %rax,%rcx
    73e3:	48 8b 05 86 0f 01 00 	mov    0x10f86(%rip),%rax        # 18370 <g_167>
    73ea:	48 8b 00             	mov    (%rax),%rax
    73ed:	8b 10                	mov    (%rax),%edx
    73ef:	48 8b 05 7a 0f 01 00 	mov    0x10f7a(%rip),%rax        # 18370 <g_167>
    73f6:	48 8b 00             	mov    (%rax),%rax
    73f9:	21 ca                	and    %ecx,%edx
    73fb:	89 10                	mov    %edx,(%rax)
    73fd:	48 8b 05 dc 19 01 00 	mov    0x119dc(%rip),%rax        # 18de0 <g_674>
    7404:	0f b6 00             	movzbl (%rax),%eax
    7407:	0f be d8             	movsbl %al,%ebx
    740a:	8b 85 d4 e4 ff ff    	mov    -0x1b2c(%rbp),%eax
    7410:	44 0f b7 e0          	movzwl %ax,%r12d
    7414:	0f b7 85 84 e4 ff ff 	movzwl -0x1b7c(%rbp),%eax
    741b:	66 83 f8 07          	cmp    $0x7,%ax
    741f:	0f 97 c0             	seta   %al
    7422:	0f b6 d0             	movzbl %al,%edx
    7425:	8b 85 88 e4 ff ff    	mov    -0x1b78(%rbp),%eax
    742b:	0f b7 c0             	movzwl %ax,%eax
    742e:	89 d6                	mov    %edx,%esi
    7430:	89 c7                	mov    %eax,%edi
    7432:	e8 e8 d8 ff ff       	callq  4d1f <safe_sub_func_uint16_t_u_u>
    7437:	98                   	cwtl   
    7438:	be 01 00 00 00       	mov    $0x1,%esi
    743d:	89 c7                	mov    %eax,%edi
    743f:	e8 9d d0 ff ff       	callq  44e1 <safe_lshift_func_int16_t_s_u>
    7444:	0f b7 c0             	movzwl %ax,%eax
    7447:	44 89 e6             	mov    %r12d,%esi
    744a:	89 c7                	mov    %eax,%edi
    744c:	e8 0b d9 ff ff       	callq  4d5c <safe_mod_func_uint16_t_u_u>
    7451:	83 c8 01             	or     $0x1,%eax
    7454:	0f b7 d0             	movzwl %ax,%edx
    7457:	8b 85 80 e9 ff ff    	mov    -0x1680(%rbp),%eax
    745d:	48 98                	cltq   
    745f:	48 39 c2             	cmp    %rax,%rdx
    7462:	0f 95 c0             	setne  %al
    7465:	0f b6 c0             	movzbl %al,%eax
    7468:	89 c6                	mov    %eax,%esi
    746a:	bf 7c 7e 00 00       	mov    $0x7e7c,%edi
    746f:	e8 c9 d8 ff ff       	callq  4d3d <safe_mul_func_uint16_t_u_u>
    7474:	0f b7 d0             	movzwl %ax,%edx
    7477:	48 8b 85 48 e7 ff ff 	mov    -0x18b8(%rbp),%rax
    747e:	0f b7 08             	movzwl (%rax),%ecx
    7481:	0f b7 85 84 e4 ff ff 	movzwl -0x1b7c(%rbp),%eax
    7488:	0f b7 f0             	movzwl %ax,%esi
    748b:	0f b7 05 de 03 01 00 	movzwl 0x103de(%rip),%eax        # 17870 <g_832>
    7492:	98                   	cwtl   
    7493:	39 c6                	cmp    %eax,%esi
    7495:	0f 9e c0             	setle  %al
    7498:	0f b6 c0             	movzbl %al,%eax
    749b:	31 c1                	xor    %eax,%ecx
    749d:	48 8b 85 48 e7 ff ff 	mov    -0x18b8(%rbp),%rax
    74a4:	66 89 08             	mov    %cx,(%rax)
    74a7:	48 8b 85 48 e7 ff ff 	mov    -0x18b8(%rbp),%rax
    74ae:	0f b7 00             	movzwl (%rax),%eax
    74b1:	f7 d0                	not    %eax
    74b3:	98                   	cwtl   
    74b4:	89 d6                	mov    %edx,%esi
    74b6:	89 c7                	mov    %eax,%edi
    74b8:	e8 a6 d0 ff ff       	callq  4563 <safe_rshift_func_int16_t_s_u>
    74bd:	48 8b 95 80 e7 ff ff 	mov    -0x1880(%rbp),%rdx
    74c4:	0f b7 12             	movzwl (%rdx),%edx
    74c7:	09 c2                	or     %eax,%edx
    74c9:	48 8b 85 80 e7 ff ff 	mov    -0x1880(%rbp),%rax
    74d0:	66 89 10             	mov    %dx,(%rax)
    74d3:	48 8b 85 80 e7 ff ff 	mov    -0x1880(%rbp),%rax
    74da:	0f b7 00             	movzwl (%rax),%eax
    74dd:	0f bf d0             	movswl %ax,%edx
    74e0:	8b 85 f8 e8 ff ff    	mov    -0x1708(%rbp),%eax
    74e6:	39 c2                	cmp    %eax,%edx
    74e8:	0f 9f c0             	setg   %al
    74eb:	0f b6 d0             	movzbl %al,%edx
    74ee:	8b 85 b8 e4 ff ff    	mov    -0x1b48(%rbp),%eax
    74f4:	21 d0                	and    %edx,%eax
    74f6:	4c 8b 25 73 0e 01 00 	mov    0x10e73(%rip),%r12        # 18370 <g_167>
    74fd:	89 de                	mov    %ebx,%esi
    74ff:	89 c7                	mov    %eax,%edi
    7501:	e8 03 45 00 00       	callq  ba09 <func_101>
    7506:	49 89 04 24          	mov    %rax,(%r12)
    750a:	83 bd 88 e4 ff ff 00 	cmpl   $0x0,-0x1b78(%rbp)
    7511:	0f 84 5c 12 00 00    	je     8773 <func_8+0x2df0>
    7517:	e9 66 0a 00 00       	jmpq   7f82 <func_8+0x25ff>
    751c:	48 8d 05 71 ff 00 00 	lea    0xff71(%rip),%rax        # 17494 <g_46+0x4>
    7523:	48 89 85 98 e7 ff ff 	mov    %rax,-0x1868(%rbp)
    752a:	48 8d 85 b4 e4 ff ff 	lea    -0x1b4c(%rbp),%rax
    7531:	48 89 85 a0 e7 ff ff 	mov    %rax,-0x1860(%rbp)
    7538:	48 8d 85 c0 eb ff ff 	lea    -0x1440(%rbp),%rax
    753f:	48 83 c0 1c          	add    $0x1c,%rax
    7543:	48 89 85 a8 e7 ff ff 	mov    %rax,-0x1858(%rbp)
    754a:	48 8d 85 b8 e4 ff ff 	lea    -0x1b48(%rbp),%rax
    7551:	48 89 85 20 ed ff ff 	mov    %rax,-0x12e0(%rbp)
    7558:	48 8d 85 b8 e4 ff ff 	lea    -0x1b48(%rbp),%rax
    755f:	48 89 85 28 ed ff ff 	mov    %rax,-0x12d8(%rbp)
    7566:	48 8d 85 bc e4 ff ff 	lea    -0x1b44(%rbp),%rax
    756d:	48 89 85 30 ed ff ff 	mov    %rax,-0x12d0(%rbp)
    7574:	48 8d 85 bc e4 ff ff 	lea    -0x1b44(%rbp),%rax
    757b:	48 89 85 38 ed ff ff 	mov    %rax,-0x12c8(%rbp)
    7582:	48 8d 85 b8 e4 ff ff 	lea    -0x1b48(%rbp),%rax
    7589:	48 89 85 40 ed ff ff 	mov    %rax,-0x12c0(%rbp)
    7590:	48 8d 85 b8 e4 ff ff 	lea    -0x1b48(%rbp),%rax
    7597:	48 89 85 48 ed ff ff 	mov    %rax,-0x12b8(%rbp)
    759e:	48 8d 85 bc e4 ff ff 	lea    -0x1b44(%rbp),%rax
    75a5:	48 89 85 50 ed ff ff 	mov    %rax,-0x12b0(%rbp)
    75ac:	48 8d 85 bc e4 ff ff 	lea    -0x1b44(%rbp),%rax
    75b3:	48 89 85 58 ed ff ff 	mov    %rax,-0x12a8(%rbp)
    75ba:	48 8d 85 b8 e4 ff ff 	lea    -0x1b48(%rbp),%rax
    75c1:	48 89 85 60 ed ff ff 	mov    %rax,-0x12a0(%rbp)
    75c8:	48 8d 05 c5 fe 00 00 	lea    0xfec5(%rip),%rax        # 17494 <g_46+0x4>
    75cf:	48 89 85 68 ed ff ff 	mov    %rax,-0x1298(%rbp)
    75d6:	48 c7 85 70 ed ff ff 	movq   $0x0,-0x1290(%rbp)
    75dd:	00 00 00 00 
    75e1:	48 8d 05 ac fe 00 00 	lea    0xfeac(%rip),%rax        # 17494 <g_46+0x4>
    75e8:	48 89 85 78 ed ff ff 	mov    %rax,-0x1288(%rbp)
    75ef:	48 c7 85 80 ed ff ff 	movq   $0x0,-0x1280(%rbp)
    75f6:	00 00 00 00 
    75fa:	48 8d 05 93 fe 00 00 	lea    0xfe93(%rip),%rax        # 17494 <g_46+0x4>
    7601:	48 89 85 88 ed ff ff 	mov    %rax,-0x1278(%rbp)
    7608:	48 c7 85 90 ed ff ff 	movq   $0x0,-0x1270(%rbp)
    760f:	00 00 00 00 
    7613:	48 8d 05 7a fe 00 00 	lea    0xfe7a(%rip),%rax        # 17494 <g_46+0x4>
    761a:	48 89 85 98 ed ff ff 	mov    %rax,-0x1268(%rbp)
    7621:	48 c7 85 a0 ed ff ff 	movq   $0x0,-0x1260(%rbp)
    7628:	00 00 00 00 
    762c:	48 8d 05 61 fe 00 00 	lea    0xfe61(%rip),%rax        # 17494 <g_46+0x4>
    7633:	48 89 85 a8 ed ff ff 	mov    %rax,-0x1258(%rbp)
    763a:	c7 85 60 e6 ff ff e9 	movl   $0xa19b7ee9,-0x19a0(%rbp)
    7641:	7e 9b a1 
    7644:	48 8d 05 ad 17 01 00 	lea    0x117ad(%rip),%rax        # 18df8 <g_775>
    764b:	48 89 85 b0 e7 ff ff 	mov    %rax,-0x1850(%rbp)
    7652:	48 c7 85 b8 e7 ff ff 	movq   $0x1,-0x1848(%rbp)
    7659:	01 00 00 00 
    765d:	48 8d 85 00 e6 ff ff 	lea    -0x1a00(%rbp),%rax
    7664:	48 89 85 c0 e7 ff ff 	mov    %rax,-0x1840(%rbp)
    766b:	83 85 e8 e4 ff ff 01 	addl   $0x1,-0x1b18(%rbp)
    7672:	66 c7 05 67 fe 00 00 	movw   $0x0,0xfe67(%rip)        # 174e2 <g_261>
    7679:	00 00 
    767b:	e9 77 08 00 00       	jmpq   7ef7 <func_8+0x2574>
    7680:	c7 85 88 e5 ff ff 5b 	movl   $0xe9026e5b,-0x1a78(%rbp)
    7687:	6e 02 e9 
    768a:	48 8d 05 4f ff 00 00 	lea    0xff4f(%rip),%rax        # 175e0 <g_671+0x20>
    7691:	48 89 85 c8 e7 ff ff 	mov    %rax,-0x1838(%rbp)
    7698:	48 8d 05 d9 02 01 00 	lea    0x102d9(%rip),%rax        # 17978 <g_937>
    769f:	48 89 85 d0 e7 ff ff 	mov    %rax,-0x1830(%rbp)
    76a6:	c7 85 40 ee ff ff 88 	movl   $0x6bf3c888,-0x11c0(%rbp)
    76ad:	c8 f3 6b 
    76b0:	c7 85 44 ee ff ff 9f 	movl   $0x866b3d9f,-0x11bc(%rbp)
    76b7:	3d 6b 86 
    76ba:	c7 85 48 ee ff ff 9f 	movl   $0x866b3d9f,-0x11b8(%rbp)
    76c1:	3d 6b 86 
    76c4:	c7 85 4c ee ff ff 88 	movl   $0x6bf3c888,-0x11b4(%rbp)
    76cb:	c8 f3 6b 
    76ce:	c7 85 50 ee ff ff 9f 	movl   $0x866b3d9f,-0x11b0(%rbp)
    76d5:	3d 6b 86 
    76d8:	c7 85 54 ee ff ff 9f 	movl   $0x866b3d9f,-0x11ac(%rbp)
    76df:	3d 6b 86 
    76e2:	c7 85 58 ee ff ff 88 	movl   $0x6bf3c888,-0x11a8(%rbp)
    76e9:	c8 f3 6b 
    76ec:	c7 85 5c ee ff ff 9f 	movl   $0x866b3d9f,-0x11a4(%rbp)
    76f3:	3d 6b 86 
    76f6:	c7 85 60 ee ff ff 9f 	movl   $0x866b3d9f,-0x11a0(%rbp)
    76fd:	3d 6b 86 
    7700:	c7 85 64 ee ff ff 88 	movl   $0x6bf3c888,-0x119c(%rbp)
    7707:	c8 f3 6b 
    770a:	c7 85 68 ee ff ff 9f 	movl   $0x866b3d9f,-0x1198(%rbp)
    7711:	3d 6b 86 
    7714:	c7 85 6c ee ff ff 9f 	movl   $0x866b3d9f,-0x1194(%rbp)
    771b:	3d 6b 86 
    771e:	c7 85 70 ee ff ff 88 	movl   $0x6bf3c888,-0x1190(%rbp)
    7725:	c8 f3 6b 
    7728:	c7 85 74 ee ff ff 9f 	movl   $0x866b3d9f,-0x118c(%rbp)
    772f:	3d 6b 86 
    7732:	c7 85 78 ee ff ff 9f 	movl   $0x866b3d9f,-0x1188(%rbp)
    7739:	3d 6b 86 
    773c:	c7 85 7c ee ff ff 88 	movl   $0x6bf3c888,-0x1184(%rbp)
    7743:	c8 f3 6b 
    7746:	c7 85 80 ee ff ff 9f 	movl   $0x866b3d9f,-0x1180(%rbp)
    774d:	3d 6b 86 
    7750:	c7 85 84 ee ff ff 9f 	movl   $0x866b3d9f,-0x117c(%rbp)
    7757:	3d 6b 86 
    775a:	c7 85 88 ee ff ff 88 	movl   $0x6bf3c888,-0x1178(%rbp)
    7761:	c8 f3 6b 
    7764:	c7 85 8c ee ff ff 9f 	movl   $0x866b3d9f,-0x1174(%rbp)
    776b:	3d 6b 86 
    776e:	c7 85 90 ee ff ff 9f 	movl   $0x866b3d9f,-0x1170(%rbp)
    7775:	3d 6b 86 
    7778:	c7 85 94 ee ff ff 88 	movl   $0x6bf3c888,-0x116c(%rbp)
    777f:	c8 f3 6b 
    7782:	c7 85 98 ee ff ff 9f 	movl   $0x866b3d9f,-0x1168(%rbp)
    7789:	3d 6b 86 
    778c:	c7 85 9c ee ff ff 9f 	movl   $0x866b3d9f,-0x1164(%rbp)
    7793:	3d 6b 86 
    7796:	c7 85 a0 ee ff ff 88 	movl   $0x6bf3c888,-0x1160(%rbp)
    779d:	c8 f3 6b 
    77a0:	c7 85 a4 ee ff ff 9f 	movl   $0x866b3d9f,-0x115c(%rbp)
    77a7:	3d 6b 86 
    77aa:	c7 85 a8 ee ff ff 9f 	movl   $0x866b3d9f,-0x1158(%rbp)
    77b1:	3d 6b 86 
    77b4:	c7 85 ac ee ff ff 88 	movl   $0x6bf3c888,-0x1154(%rbp)
    77bb:	c8 f3 6b 
    77be:	c7 85 b0 ee ff ff 9f 	movl   $0x866b3d9f,-0x1150(%rbp)
    77c5:	3d 6b 86 
    77c8:	c7 85 b4 ee ff ff 9f 	movl   $0x866b3d9f,-0x114c(%rbp)
    77cf:	3d 6b 86 
    77d2:	c7 85 b8 ee ff ff 88 	movl   $0x6bf3c888,-0x1148(%rbp)
    77d9:	c8 f3 6b 
    77dc:	c7 85 bc ee ff ff 9f 	movl   $0x866b3d9f,-0x1144(%rbp)
    77e3:	3d 6b 86 
    77e6:	c7 85 c0 ee ff ff 9f 	movl   $0x866b3d9f,-0x1140(%rbp)
    77ed:	3d 6b 86 
    77f0:	c7 85 c4 ee ff ff 88 	movl   $0x6bf3c888,-0x113c(%rbp)
    77f7:	c8 f3 6b 
    77fa:	c7 85 c8 ee ff ff 9f 	movl   $0x866b3d9f,-0x1138(%rbp)
    7801:	3d 6b 86 
    7804:	c7 85 cc ee ff ff 9f 	movl   $0x866b3d9f,-0x1134(%rbp)
    780b:	3d 6b 86 
    780e:	c7 85 d0 ee ff ff 88 	movl   $0x6bf3c888,-0x1130(%rbp)
    7815:	c8 f3 6b 
    7818:	c7 85 d4 ee ff ff 9f 	movl   $0x866b3d9f,-0x112c(%rbp)
    781f:	3d 6b 86 
    7822:	c7 85 d8 ee ff ff 9f 	movl   $0x866b3d9f,-0x1128(%rbp)
    7829:	3d 6b 86 
    782c:	c7 85 dc ee ff ff 88 	movl   $0x6bf3c888,-0x1124(%rbp)
    7833:	c8 f3 6b 
    7836:	c7 85 e0 ee ff ff 9f 	movl   $0x866b3d9f,-0x1120(%rbp)
    783d:	3d 6b 86 
    7840:	c7 85 e4 ee ff ff 9f 	movl   $0x866b3d9f,-0x111c(%rbp)
    7847:	3d 6b 86 
    784a:	48 8d 05 17 1b 01 00 	lea    0x11b17(%rip),%rax        # 19368 <g_993>
    7851:	48 89 85 d8 e7 ff ff 	mov    %rax,-0x1828(%rbp)
    7858:	48 8d 85 30 e6 ff ff 	lea    -0x19d0(%rbp),%rax
    785f:	48 89 85 e0 e7 ff ff 	mov    %rax,-0x1820(%rbp)
    7866:	bf f6 00 00 00       	mov    $0xf6,%edi
    786b:	e8 d5 d2 ff ff       	callq  4b45 <safe_unary_minus_func_uint8_t_u>
    7870:	0f b6 9d 9d e4 ff ff 	movzbl -0x1b63(%rbp),%ebx
    7877:	8b 85 dc e4 ff ff    	mov    -0x1b24(%rbp),%eax
    787d:	44 0f bf e0          	movswl %ax,%r12d
    7881:	44 8b ad 88 e4 ff ff 	mov    -0x1b78(%rbp),%r13d
    7888:	48 8b 85 c0 f4 ff ff 	mov    -0xb40(%rbp),%rax
    788f:	44 0f be f0          	movsbl %al,%r14d
    7893:	48 8d 05 46 15 01 00 	lea    0x11546(%rip),%rax        # 18de0 <g_674>
    789a:	48 39 85 58 e7 ff ff 	cmp    %rax,-0x18a8(%rbp)
    78a1:	0f 94 c0             	sete   %al
    78a4:	0f b6 d0             	movzbl %al,%edx
    78a7:	8b 85 88 e5 ff ff    	mov    -0x1a78(%rbp),%eax
    78ad:	89 d6                	mov    %edx,%esi
    78af:	89 c7                	mov    %eax,%edi
    78b1:	e8 4f cd ff ff       	callq  4605 <safe_sub_func_int32_t_s_s>
    78b6:	0f be c0             	movsbl %al,%eax
    78b9:	44 89 f6             	mov    %r14d,%esi
    78bc:	89 c7                	mov    %eax,%edi
    78be:	e8 6e c9 ff ff       	callq  4231 <safe_mod_func_int8_t_s_s>
    78c3:	0f b6 c0             	movzbl %al,%eax
    78c6:	be fc 00 00 00       	mov    $0xfc,%esi
    78cb:	89 c7                	mov    %eax,%edi
    78cd:	e8 c1 d2 ff ff       	callq  4b93 <safe_mul_func_uint8_t_u_u>
    78d2:	0f b6 c0             	movzbl %al,%eax
    78d5:	44 89 ee             	mov    %r13d,%esi
    78d8:	89 c7                	mov    %eax,%edi
    78da:	e8 ae d3 ff ff       	callq  4c8d <safe_rshift_func_uint8_t_u_s>
    78df:	0f b6 d0             	movzbl %al,%edx
    78e2:	48 8b 85 50 e7 ff ff 	mov    -0x18b0(%rbp),%rax
    78e9:	89 10                	mov    %edx,(%rax)
    78eb:	48 8b 85 50 e7 ff ff 	mov    -0x18b0(%rbp),%rax
    78f2:	8b 00                	mov    (%rax),%eax
    78f4:	66 35 cf 7f          	xor    $0x7fcf,%ax
    78f8:	98                   	cwtl   
    78f9:	44 89 e6             	mov    %r12d,%esi
    78fc:	89 c7                	mov    %eax,%edi
    78fe:	e8 b0 ca ff ff       	callq  43b3 <safe_add_func_int16_t_s_s>
    7903:	8b 85 8c e4 ff ff    	mov    -0x1b74(%rbp),%eax
    7909:	0f be c0             	movsbl %al,%eax
    790c:	8b 95 8c e4 ff ff    	mov    -0x1b74(%rbp),%edx
    7912:	89 d6                	mov    %edx,%esi
    7914:	89 c7                	mov    %eax,%edi
    7916:	e8 d3 c9 ff ff       	callq  42ee <safe_lshift_func_int8_t_s_u>
    791b:	b9 01 00 00 00       	mov    $0x1,%ecx
    7920:	48 8b 85 c8 e7 ff ff 	mov    -0x1838(%rbp),%rax
    7927:	48 8b 10             	mov    (%rax),%rdx
    792a:	48 63 c1             	movslq %ecx,%rax
    792d:	48 09 c2             	or     %rax,%rdx
    7930:	48 8b 85 c8 e7 ff ff 	mov    -0x1838(%rbp),%rax
    7937:	48 89 10             	mov    %rdx,(%rax)
    793a:	48 8b 85 c8 e7 ff ff 	mov    -0x1838(%rbp),%rax
    7941:	48 8b 10             	mov    (%rax),%rdx
    7944:	48 8b 85 d0 e7 ff ff 	mov    -0x1830(%rbp),%rax
    794b:	48 89 10             	mov    %rdx,(%rax)
    794e:	b8 01 00 00 00       	mov    $0x1,%eax
    7953:	0f b7 c0             	movzwl %ax,%eax
    7956:	be 0a 00 00 00       	mov    $0xa,%esi
    795b:	89 c7                	mov    %eax,%edi
    795d:	e8 18 d5 ff ff       	callq  4e7a <safe_rshift_func_uint16_t_u_u>
    7962:	0f b7 c0             	movzwl %ax,%eax
    7965:	89 85 b4 e4 ff ff    	mov    %eax,-0x1b4c(%rbp)
    796b:	8b 95 b4 e4 ff ff    	mov    -0x1b4c(%rbp),%edx
    7971:	0f b6 05 4c fb 00 00 	movzbl 0xfb4c(%rip),%eax        # 174c4 <g_159>
    7978:	0f b6 c0             	movzbl %al,%eax
    797b:	21 c2                	and    %eax,%edx
    797d:	48 8b 85 48 e7 ff ff 	mov    -0x18b8(%rbp),%rax
    7984:	0f b7 00             	movzwl (%rax),%eax
    7987:	09 c2                	or     %eax,%edx
    7989:	48 8b 85 48 e7 ff ff 	mov    -0x18b8(%rbp),%rax
    7990:	66 89 10             	mov    %dx,(%rax)
    7993:	48 8b 85 48 e7 ff ff 	mov    -0x18b8(%rbp),%rax
    799a:	0f b7 00             	movzwl (%rax),%eax
    799d:	98                   	cwtl   
    799e:	89 de                	mov    %ebx,%esi
    79a0:	89 c7                	mov    %eax,%edi
    79a2:	e8 bc cb ff ff       	callq  4563 <safe_rshift_func_int16_t_s_u>
    79a7:	be 00 00 00 00       	mov    $0x0,%esi
    79ac:	bf 91 00 00 00       	mov    $0x91,%edi
    79b1:	e8 96 d2 ff ff       	callq  4c4c <safe_lshift_func_uint8_t_u_u>
    79b6:	0f b6 d0             	movzbl %al,%edx
    79b9:	48 8b 05 c8 fb 00 00 	mov    0xfbc8(%rip),%rax        # 17588 <g_532+0x28>
    79c0:	48 39 c2             	cmp    %rax,%rdx
    79c3:	0f 9e c0             	setle  %al
    79c6:	0f b6 d0             	movzbl %al,%edx
    79c9:	48 8b 05 10 14 01 00 	mov    0x11410(%rip),%rax        # 18de0 <g_674>
    79d0:	0f b6 00             	movzbl (%rax),%eax
    79d3:	0f be c0             	movsbl %al,%eax
    79d6:	39 c2                	cmp    %eax,%edx
    79d8:	7f 21                	jg     79fb <func_8+0x2078>
    79da:	66 c7 85 b0 e4 ff ff 	movw   $0x0,-0x1b50(%rbp)
    79e1:	00 00 
    79e3:	48 8b 05 3e 14 01 00 	mov    0x1143e(%rip),%rax        # 18e28 <g_1137>
    79ea:	48 89 85 60 e7 ff ff 	mov    %rax,-0x18a0(%rbp)
    79f1:	66 83 ad b0 e4 ff ff 	subw   $0x1,-0x1b50(%rbp)
    79f8:	01 
    79f9:	eb 75                	jmp    7a70 <func_8+0x20ed>
    79fb:	0f b7 85 84 e4 ff ff 	movzwl -0x1b7c(%rbp),%eax
    7a02:	0f b7 d0             	movzwl %ax,%edx
    7a05:	48 8b 85 a8 e7 ff ff 	mov    -0x1858(%rbp),%rax
    7a0c:	89 10                	mov    %edx,(%rax)
    7a0e:	48 8b 05 5b 09 01 00 	mov    0x1095b(%rip),%rax        # 18370 <g_167>
    7a15:	48 8d 95 60 e6 ff ff 	lea    -0x19a0(%rbp),%rdx
    7a1c:	48 89 10             	mov    %rdx,(%rax)
    7a1f:	48 8b 05 4a 09 01 00 	mov    0x1094a(%rip),%rax        # 18370 <g_167>
    7a26:	48 8d 95 dc e4 ff ff 	lea    -0x1b24(%rbp),%rdx
    7a2d:	48 89 10             	mov    %rdx,(%rax)
    7a30:	48 8d 05 31 19 01 00 	lea    0x11931(%rip),%rax        # 19368 <g_993>
    7a37:	48 39 85 d8 e7 ff ff 	cmp    %rax,-0x1828(%rbp)
    7a3e:	0f 94 c0             	sete   %al
    7a41:	0f b6 c0             	movzbl %al,%eax
    7a44:	48 8b 95 c8 f4 ff ff 	mov    -0xb38(%rbp),%rdx
    7a4b:	89 c6                	mov    %eax,%esi
    7a4d:	89 d7                	mov    %edx,%edi
    7a4f:	e8 64 d4 ff ff       	callq  4eb8 <safe_add_func_uint32_t_u_u>
    7a54:	0f be c0             	movsbl %al,%eax
    7a57:	8b 95 b8 e4 ff ff    	mov    -0x1b48(%rbp),%edx
    7a5d:	48 8b 1d 0c 09 01 00 	mov    0x1090c(%rip),%rbx        # 18370 <g_167>
    7a64:	89 c6                	mov    %eax,%esi
    7a66:	89 d7                	mov    %edx,%edi
    7a68:	e8 9c 3f 00 00       	callq  ba09 <func_101>
    7a6d:	48 89 03             	mov    %rax,(%rbx)
    7a70:	66 c7 05 f9 fd 00 00 	movw   $0x1,0xfdf9(%rip)        # 17872 <g_851>
    7a77:	01 00 
    7a79:	e9 53 01 00 00       	jmpq   7bd1 <func_8+0x224e>
    7a7e:	c7 85 ac e5 ff ff 08 	movl   $0x873b4208,-0x1a54(%rbp)
    7a85:	42 3b 87 
    7a88:	8b 85 8c e4 ff ff    	mov    -0x1b74(%rbp),%eax
    7a8e:	0f bf d8             	movswl %ax,%ebx
    7a91:	44 8b a5 8c e4 ff ff 	mov    -0x1b74(%rbp),%r12d
    7a98:	8b 05 ca 18 01 00    	mov    0x118ca(%rip),%eax        # 19368 <g_993>
    7a9e:	0f bf d0             	movswl %ax,%edx
    7aa1:	48 8b 05 80 09 01 00 	mov    0x10980(%rip),%rax        # 18428 <g_506>
    7aa8:	0f b7 08             	movzwl (%rax),%ecx
    7aab:	48 8b 85 c8 e6 ff ff 	mov    -0x1938(%rbp),%rax
    7ab2:	0f b7 00             	movzwl (%rax),%eax
    7ab5:	8d 70 ff             	lea    -0x1(%rax),%esi
    7ab8:	48 8b 85 c8 e6 ff ff 	mov    -0x1938(%rbp),%rax
    7abf:	66 89 30             	mov    %si,(%rax)
    7ac2:	48 8b 85 c8 e6 ff ff 	mov    -0x1938(%rbp),%rax
    7ac9:	0f b7 00             	movzwl (%rax),%eax
    7acc:	66 39 c1             	cmp    %ax,%cx
    7acf:	73 0e                	jae    7adf <func_8+0x215c>
    7ad1:	48 8b 85 50 e7 ff ff 	mov    -0x18b0(%rbp),%rax
    7ad8:	c7 00 ff ff ff ff    	movl   $0xffffffff,(%rax)
    7ade:	90                   	nop
    7adf:	b8 00 00 00 00       	mov    $0x0,%eax
    7ae4:	89 c1                	mov    %eax,%ecx
    7ae6:	0f b7 85 84 e4 ff ff 	movzwl -0x1b7c(%rbp),%eax
    7aed:	09 c8                	or     %ecx,%eax
    7aef:	98                   	cwtl   
    7af0:	89 d6                	mov    %edx,%esi
    7af2:	89 c7                	mov    %eax,%edi
    7af4:	e8 da c8 ff ff       	callq  43d3 <safe_sub_func_int16_t_s_s>
    7af9:	48 8b 05 e0 12 01 00 	mov    0x112e0(%rip),%rax        # 18de0 <g_674>
    7b00:	0f b6 00             	movzbl (%rax),%eax
    7b03:	0f b6 d0             	movzbl %al,%edx
    7b06:	8b 85 8c e4 ff ff    	mov    -0x1b74(%rbp),%eax
    7b0c:	0f b6 c0             	movzbl %al,%eax
    7b0f:	89 d6                	mov    %edx,%esi
    7b11:	89 c7                	mov    %eax,%edi
    7b13:	e8 c3 d0 ff ff       	callq  4bdb <safe_div_func_uint8_t_u_u>
    7b18:	0f b6 c0             	movzbl %al,%eax
    7b1b:	44 89 e6             	mov    %r12d,%esi
    7b1e:	89 c7                	mov    %eax,%edi
    7b20:	e8 05 ca ff ff       	callq  452a <safe_rshift_func_int16_t_s_s>
    7b25:	0f bf d0             	movswl %ax,%edx
    7b28:	8b 85 d0 e4 ff ff    	mov    -0x1b30(%rbp),%eax
    7b2e:	39 c2                	cmp    %eax,%edx
    7b30:	0f 94 c0             	sete   %al
    7b33:	0f b6 c0             	movzbl %al,%eax
    7b36:	be 00 00 00 00       	mov    $0x0,%esi
    7b3b:	89 c7                	mov    %eax,%edi
    7b3d:	e8 7c d2 ff ff       	callq  4dbe <safe_lshift_func_uint16_t_u_s>
    7b42:	48 8b 95 c0 f4 ff ff 	mov    -0xb40(%rbp),%rdx
    7b49:	8b 85 88 e4 ff ff    	mov    -0x1b78(%rbp),%eax
    7b4f:	48 39 c2             	cmp    %rax,%rdx
    7b52:	0f 94 c0             	sete   %al
    7b55:	0f b6 c0             	movzbl %al,%eax
    7b58:	39 85 8c e4 ff ff    	cmp    %eax,-0x1b74(%rbp)
    7b5e:	0f 97 c0             	seta   %al
    7b61:	0f b6 c0             	movzbl %al,%eax
    7b64:	89 85 48 e5 ff ff    	mov    %eax,-0x1ab8(%rbp)
    7b6a:	8b 85 48 e5 ff ff    	mov    -0x1ab8(%rbp),%eax
    7b70:	0f be c0             	movsbl %al,%eax
    7b73:	89 c6                	mov    %eax,%esi
    7b75:	bf 14 00 00 00       	mov    $0x14,%edi
    7b7a:	e8 93 c6 ff ff       	callq  4212 <safe_mul_func_int8_t_s_s>
    7b7f:	0f b6 15 3e f9 00 00 	movzbl 0xf93e(%rip),%edx        # 174c4 <g_159>
    7b86:	21 d0                	and    %edx,%eax
    7b88:	0f b6 c0             	movzbl %al,%eax
    7b8b:	be 08 00 00 00       	mov    $0x8,%esi
    7b90:	89 c7                	mov    %eax,%edi
    7b92:	e8 44 d0 ff ff       	callq  4bdb <safe_div_func_uint8_t_u_u>
    7b97:	0f b6 c0             	movzbl %al,%eax
    7b9a:	89 de                	mov    %ebx,%esi
    7b9c:	89 c7                	mov    %eax,%edi
    7b9e:	e8 52 c8 ff ff       	callq  43f5 <safe_mul_func_int16_t_s_s>
    7ba3:	48 8b 15 c6 07 01 00 	mov    0x107c6(%rip),%rdx        # 18370 <g_167>
    7baa:	48 8b 12             	mov    (%rdx),%rdx
    7bad:	8b 0a                	mov    (%rdx),%ecx
    7baf:	0f bf d0             	movswl %ax,%edx
    7bb2:	48 8b 05 b7 07 01 00 	mov    0x107b7(%rip),%rax        # 18370 <g_167>
    7bb9:	48 8b 00             	mov    (%rax),%rax
    7bbc:	21 ca                	and    %ecx,%edx
    7bbe:	89 10                	mov    %edx,(%rax)
    7bc0:	0f b7 05 ab fc 00 00 	movzwl 0xfcab(%rip),%eax        # 17872 <g_851>
    7bc7:	83 c0 01             	add    $0x1,%eax
    7bca:	66 89 05 a1 fc 00 00 	mov    %ax,0xfca1(%rip)        # 17872 <g_851>
    7bd1:	0f b7 05 9a fc 00 00 	movzwl 0xfc9a(%rip),%eax        # 17872 <g_851>
    7bd8:	66 83 f8 04          	cmp    $0x4,%ax
    7bdc:	0f 8e 9c fe ff ff    	jle    7a7e <func_8+0x20fb>
    7be2:	48 8b 85 a0 e7 ff ff 	mov    -0x1860(%rbp),%rax
    7be9:	8b 00                	mov    (%rax),%eax
    7beb:	41 89 c4             	mov    %eax,%r12d
    7bee:	48 8b 05 db f8 00 00 	mov    0xf8db(%rip),%rax        # 174d0 <g_215>
    7bf5:	0f b6 c0             	movzbl %al,%eax
    7bf8:	be 02 00 00 00       	mov    $0x2,%esi
    7bfd:	89 c7                	mov    %eax,%edi
    7bff:	e8 89 d0 ff ff       	callq  4c8d <safe_rshift_func_uint8_t_u_s>
    7c04:	89 c3                	mov    %eax,%ebx
    7c06:	8b 05 a8 f8 00 00    	mov    0xf8a8(%rip),%eax        # 174b4 <g_148>
    7c0c:	89 c6                	mov    %eax,%esi
    7c0e:	bf 04 00 00 00       	mov    $0x4,%edi
    7c13:	e8 89 c6 ff ff       	callq  42a1 <safe_lshift_func_int8_t_s_s>
    7c18:	48 0f be d0          	movsbq %al,%rdx
    7c1c:	8b 85 e8 e4 ff ff    	mov    -0x1b18(%rbp),%eax
    7c22:	48 89 d6             	mov    %rdx,%rsi
    7c25:	48 89 c7             	mov    %rax,%rdi
    7c28:	e8 01 d4 ff ff       	callq  502e <safe_add_func_uint64_t_u_u>
    7c2d:	89 c2                	mov    %eax,%edx
    7c2f:	8b 85 88 e4 ff ff    	mov    -0x1b78(%rbp),%eax
    7c35:	89 c6                	mov    %eax,%esi
    7c37:	89 d7                	mov    %edx,%edi
    7c39:	e8 e7 d2 ff ff       	callq  4f25 <safe_div_func_uint32_t_u_u>
    7c3e:	21 d8                	and    %ebx,%eax
    7c40:	0f b6 c0             	movzbl %al,%eax
    7c43:	be 00 00 00 00       	mov    $0x0,%esi
    7c48:	89 c7                	mov    %eax,%edi
    7c4a:	e8 3e d0 ff ff       	callq  4c8d <safe_rshift_func_uint8_t_u_s>
    7c4f:	48 8b 05 8a f9 00 00 	mov    0xf98a(%rip),%rax        # 175e0 <g_671+0x20>
    7c56:	48 83 c0 01          	add    $0x1,%rax
    7c5a:	48 89 05 7f f9 00 00 	mov    %rax,0xf97f(%rip)        # 175e0 <g_671+0x20>
    7c61:	48 8b 05 78 f9 00 00 	mov    0xf978(%rip),%rax        # 175e0 <g_671+0x20>
    7c68:	89 c2                	mov    %eax,%edx
    7c6a:	8b 85 f4 e4 ff ff    	mov    -0x1b0c(%rbp),%eax
    7c70:	21 d0                	and    %edx,%eax
    7c72:	89 85 f4 e4 ff ff    	mov    %eax,-0x1b0c(%rbp)
    7c78:	83 bd 8c e4 ff ff 01 	cmpl   $0x1,-0x1b74(%rbp)
    7c7f:	0f 97 c0             	seta   %al
    7c82:	0f b6 c0             	movzbl %al,%eax
    7c85:	be 89 00 00 00       	mov    $0x89,%esi
    7c8a:	89 c7                	mov    %eax,%edi
    7c8c:	e8 02 cf ff ff       	callq  4b93 <safe_mul_func_uint8_t_u_u>
    7c91:	84 c0                	test   %al,%al
    7c93:	75 09                	jne    7c9e <func_8+0x231b>
    7c95:	83 bd 40 e5 ff ff 00 	cmpl   $0x0,-0x1ac0(%rbp)
    7c9c:	74 07                	je     7ca5 <func_8+0x2322>
    7c9e:	b8 01 00 00 00       	mov    $0x1,%eax
    7ca3:	eb 05                	jmp    7caa <func_8+0x2327>
    7ca5:	b8 00 00 00 00       	mov    $0x0,%eax
    7caa:	83 f0 07             	xor    $0x7,%eax
    7cad:	48 63 d0             	movslq %eax,%rdx
    7cb0:	48 8b 05 69 11 01 00 	mov    0x11169(%rip),%rax        # 18e20 <g_1002>
    7cb7:	48 8b 00             	mov    (%rax),%rax
    7cba:	48 8b 00             	mov    (%rax),%rax
    7cbd:	48 39 c2             	cmp    %rax,%rdx
    7cc0:	0f 94 c0             	sete   %al
    7cc3:	0f b6 c0             	movzbl %al,%eax
    7cc6:	39 85 f4 e4 ff ff    	cmp    %eax,-0x1b0c(%rbp)
    7ccc:	0f 94 c0             	sete   %al
    7ccf:	0f b6 c0             	movzbl %al,%eax
    7cd2:	89 c6                	mov    %eax,%esi
    7cd4:	bf 05 00 00 00       	mov    $0x5,%edi
    7cd9:	e8 da d1 ff ff       	callq  4eb8 <safe_add_func_uint32_t_u_u>
    7cde:	44 89 e6             	mov    %r12d,%esi
    7ce1:	bf ff ff ff ff       	mov    $0xffffffff,%edi
    7ce6:	e8 03 c6 ff ff       	callq  42ee <safe_lshift_func_int8_t_s_u>
    7ceb:	0f be d0             	movsbl %al,%edx
    7cee:	8b 85 dc e4 ff ff    	mov    -0x1b24(%rbp),%eax
    7cf4:	39 c2                	cmp    %eax,%edx
    7cf6:	0f 9c c0             	setl   %al
    7cf9:	0f b6 d0             	movzbl %al,%edx
    7cfc:	8b 05 5a f8 00 00    	mov    0xf85a(%rip),%eax        # 1755c <g_525>
    7d02:	39 c2                	cmp    %eax,%edx
    7d04:	48 8b 05 bd 06 01 00 	mov    0x106bd(%rip),%rax        # 183c8 <g_284>
    7d0b:	48 8b 00             	mov    (%rax),%rax
    7d0e:	48 8b 00             	mov    (%rax),%rax
    7d11:	c7 00 00 00 00 00    	movl   $0x0,(%rax)
    7d17:	c7 85 e8 e4 ff ff 00 	movl   $0x0,-0x1b18(%rbp)
    7d1e:	00 00 00 
    7d21:	e9 a5 01 00 00       	jmpq   7ecb <func_8+0x2548>
    7d26:	c6 85 a4 e4 ff ff 09 	movb   $0x9,-0x1b5c(%rbp)
    7d2d:	c7 85 8c e5 ff ff 06 	movl   $0x6,-0x1a74(%rbp)
    7d34:	00 00 00 
    7d37:	c7 85 90 e5 ff ff 09 	movl   $0x9,-0x1a70(%rbp)
    7d3e:	00 00 00 
    7d41:	c7 85 94 e5 ff ff 0e 	movl   $0x34d0f80e,-0x1a6c(%rbp)
    7d48:	f8 d0 34 
    7d4b:	c7 85 98 e5 ff ff 7e 	movl   $0x48d0e97e,-0x1a68(%rbp)
    7d52:	e9 d0 48 
    7d55:	c7 85 9c e5 ff ff 00 	movl   $0x0,-0x1a64(%rbp)
    7d5c:	00 00 00 
    7d5f:	c7 85 a0 e5 ff ff 00 	movl   $0x0,-0x1a60(%rbp)
    7d66:	00 00 00 
    7d69:	c7 85 a4 e5 ff ff 02 	movl   $0x2,-0x1a5c(%rbp)
    7d70:	00 00 00 
    7d73:	c7 85 a8 e5 ff ff 29 	movl   $0x11695b29,-0x1a58(%rbp)
    7d7a:	5b 69 11 
    7d7d:	66 c7 85 b2 e4 ff ff 	movw   $0x7,-0x1b4e(%rbp)
    7d84:	07 00 
    7d86:	0f b7 05 e5 fa 00 00 	movzwl 0xfae5(%rip),%eax        # 17872 <g_851>
    7d8d:	66 85 c0             	test   %ax,%ax
    7d90:	0f 85 55 01 00 00    	jne    7eeb <func_8+0x2568>
    7d96:	0f b7 05 45 f7 00 00 	movzwl 0xf745(%rip),%eax        # 174e2 <g_261>
    7d9d:	66 85 c0             	test   %ax,%ax
    7da0:	0f 85 4b 01 00 00    	jne    7ef1 <func_8+0x256e>
    7da6:	48 8b 85 10 ea ff ff 	mov    -0x15f0(%rbp),%rax
    7dad:	48 83 c0 01          	add    $0x1,%rax
    7db1:	48 89 85 10 ea ff ff 	mov    %rax,-0x15f0(%rbp)
    7db8:	48 8b 85 f8 e5 ff ff 	mov    -0x1a08(%rbp),%rax
    7dbf:	48 89 85 b0 e7 ff ff 	mov    %rax,-0x1850(%rbp)
    7dc6:	48 8b 85 b0 e7 ff ff 	mov    -0x1850(%rbp),%rax
    7dcd:	48 3b 85 68 e7 ff ff 	cmp    -0x1898(%rbp),%rax
    7dd4:	0f 95 c0             	setne  %al
    7dd7:	44 0f b6 e0          	movzbl %al,%r12d
    7ddb:	8b 05 ef f6 00 00    	mov    0xf6ef(%rip),%eax        # 174d0 <g_215>
    7de1:	8b 85 e0 e4 ff ff    	mov    -0x1b20(%rbp),%eax
    7de7:	48 63 d8             	movslq %eax,%rbx
    7dea:	8b 85 f8 e8 ff ff    	mov    -0x1708(%rbp),%eax
    7df0:	83 f8 04             	cmp    $0x4,%eax
    7df3:	7e 09                	jle    7dfe <func_8+0x247b>
    7df5:	83 bd 8c e4 ff ff 00 	cmpl   $0x0,-0x1b74(%rbp)
    7dfc:	74 07                	je     7e05 <func_8+0x2482>
    7dfe:	b8 01 00 00 00       	mov    $0x1,%eax
    7e03:	eb 05                	jmp    7e0a <func_8+0x2487>
    7e05:	b8 00 00 00 00       	mov    $0x0,%eax
    7e0a:	89 c7                	mov    %eax,%edi
    7e0c:	e8 85 c7 ff ff       	callq  4596 <safe_unary_minus_func_int32_t_s>
    7e11:	48 8b 85 e0 e7 ff ff 	mov    -0x1820(%rbp),%rax
    7e18:	48 89 05 21 10 01 00 	mov    %rax,0x11021(%rip)        # 18e40 <g_1215>
    7e1f:	48 8b 05 c2 0f 01 00 	mov    0x10fc2(%rip),%rax        # 18de8 <g_673>
    7e26:	48 8b 10             	mov    (%rax),%rdx
    7e29:	48 8b 85 58 e7 ff ff 	mov    -0x18a8(%rbp),%rax
    7e30:	48 8b 00             	mov    (%rax),%rax
    7e33:	48 39 c2             	cmp    %rax,%rdx
    7e36:	0f 94 c0             	sete   %al
    7e39:	0f b6 c0             	movzbl %al,%eax
    7e3c:	48 33 85 40 e7 ff ff 	xor    -0x18c0(%rbp),%rax
    7e43:	48 39 85 b8 e7 ff ff 	cmp    %rax,-0x1848(%rbp)
    7e4a:	0f 9d c0             	setge  %al
    7e4d:	0f b6 c0             	movzbl %al,%eax
    7e50:	48 89 de             	mov    %rbx,%rsi
    7e53:	48 89 c7             	mov    %rax,%rdi
    7e56:	e8 59 cb ff ff       	callq  49b4 <safe_mod_func_int64_t_s_s>
    7e5b:	98                   	cwtl   
    7e5c:	8b 95 e8 e4 ff ff    	mov    -0x1b18(%rbp),%edx
    7e62:	89 d6                	mov    %edx,%esi
    7e64:	89 c7                	mov    %eax,%edi
    7e66:	e8 76 c6 ff ff       	callq  44e1 <safe_lshift_func_int16_t_s_u>
    7e6b:	0f bf d0             	movswl %ax,%edx
    7e6e:	8b 85 f8 eb ff ff    	mov    -0x1408(%rbp),%eax
    7e74:	39 c2                	cmp    %eax,%edx
    7e76:	0f 9d c0             	setge  %al
    7e79:	0f b6 c0             	movzbl %al,%eax
    7e7c:	41 39 c4             	cmp    %eax,%r12d
    7e7f:	0f 9e c0             	setle  %al
    7e82:	0f b6 c0             	movzbl %al,%eax
    7e85:	be 8a ff ff ff       	mov    $0xffffff8a,%esi
    7e8a:	89 c7                	mov    %eax,%edi
    7e8c:	e8 d9 c3 ff ff       	callq  426a <safe_div_func_int8_t_s_s>
    7e91:	0f be c0             	movsbl %al,%eax
    7e94:	be 00 00 00 00       	mov    $0x0,%esi
    7e99:	89 c7                	mov    %eax,%edi
    7e9b:	e8 33 c5 ff ff       	callq  43d3 <safe_sub_func_int16_t_s_s>
    7ea0:	66 85 c0             	test   %ax,%ax
    7ea3:	75 0a                	jne    7eaf <func_8+0x252c>
    7ea5:	8b 85 78 ee ff ff    	mov    -0x1188(%rbp),%eax
    7eab:	85 c0                	test   %eax,%eax
    7ead:	74 07                	je     7eb6 <func_8+0x2533>
    7eaf:	ba 01 00 00 00       	mov    $0x1,%edx
    7eb4:	eb 05                	jmp    7ebb <func_8+0x2538>
    7eb6:	ba 00 00 00 00       	mov    $0x0,%edx
    7ebb:	48 8b 85 98 e7 ff ff 	mov    -0x1868(%rbp),%rax
    7ec2:	89 10                	mov    %edx,(%rax)
    7ec4:	83 85 e8 e4 ff ff 01 	addl   $0x1,-0x1b18(%rbp)
    7ecb:	83 bd e8 e4 ff ff 04 	cmpl   $0x4,-0x1b18(%rbp)
    7ed2:	0f 86 4e fe ff ff    	jbe    7d26 <func_8+0x23a3>
    7ed8:	0f b7 05 03 f6 00 00 	movzwl 0xf603(%rip),%eax        # 174e2 <g_261>
    7edf:	83 c0 01             	add    $0x1,%eax
    7ee2:	66 89 05 f9 f5 00 00 	mov    %ax,0xf5f9(%rip)        # 174e2 <g_261>
    7ee9:	eb 0c                	jmp    7ef7 <func_8+0x2574>
    7eeb:	90                   	nop
    7eec:	e9 7a f7 ff ff       	jmpq   766b <func_8+0x1ce8>
    7ef1:	90                   	nop
    7ef2:	e9 74 f7 ff ff       	jmpq   766b <func_8+0x1ce8>
    7ef7:	0f b7 05 e4 f5 00 00 	movzwl 0xf5e4(%rip),%eax        # 174e2 <g_261>
    7efe:	66 83 f8 04          	cmp    $0x4,%ax
    7f02:	0f 86 78 f7 ff ff    	jbe    7680 <func_8+0x1cfd>
    7f08:	0f b7 85 da e8 ff ff 	movzwl -0x1726(%rbp),%eax
    7f0f:	0f b7 d0             	movzwl %ax,%edx
    7f12:	48 8b 8d 20 f7 ff ff 	mov    -0x8e0(%rbp),%rcx
    7f19:	8b 85 88 e4 ff ff    	mov    -0x1b78(%rbp),%eax
    7f1f:	48 39 c1             	cmp    %rax,%rcx
    7f22:	0f 9e c0             	setle  %al
    7f25:	0f b6 c0             	movzbl %al,%eax
    7f28:	21 d0                	and    %edx,%eax
    7f2a:	48 63 d0             	movslq %eax,%rdx
    7f2d:	48 8b 8d 00 e6 ff ff 	mov    -0x1a00(%rbp),%rcx
    7f34:	48 8b 85 c0 e7 ff ff 	mov    -0x1840(%rbp),%rax
    7f3b:	48 89 08             	mov    %rcx,(%rax)
    7f3e:	48 8b 85 c0 e7 ff ff 	mov    -0x1840(%rbp),%rax
    7f45:	48 8b 08             	mov    (%rax),%rcx
    7f48:	48 8d 85 d4 e4 ff ff 	lea    -0x1b2c(%rbp),%rax
    7f4f:	48 39 c1             	cmp    %rax,%rcx
    7f52:	0f 94 c0             	sete   %al
    7f55:	0f b6 c0             	movzbl %al,%eax
    7f58:	48 89 d6             	mov    %rdx,%rsi
    7f5b:	48 89 c7             	mov    %rax,%rdi
    7f5e:	e8 45 c9 ff ff       	callq  48a8 <safe_sub_func_int64_t_s_s>
    7f63:	48 8b 95 a8 e7 ff ff 	mov    -0x1858(%rbp),%rdx
    7f6a:	8b 12                	mov    (%rdx),%edx
    7f6c:	31 c2                	xor    %eax,%edx
    7f6e:	48 8b 85 a8 e7 ff ff 	mov    -0x1858(%rbp),%rax
    7f75:	89 10                	mov    %edx,(%rax)
    7f77:	8b 85 18 ec ff ff    	mov    -0x13e8(%rbp),%eax
    7f7d:	e9 a5 2d 00 00       	jmpq   ad27 <func_8+0x53a4>
    7f82:	48 c7 85 70 e8 ff ff 	movq   $0x0,-0x1790(%rbp)
    7f89:	00 00 00 00 
    7f8d:	c7 85 ec e5 ff ff bc 	movl   $0x38f78dbc,-0x1a14(%rbp)
    7f94:	8d f7 38 
    7f97:	48 8d 05 c2 f8 00 00 	lea    0xf8c2(%rip),%rax        # 17860 <g_722>
    7f9e:	48 89 85 78 e8 ff ff 	mov    %rax,-0x1788(%rbp)
    7fa5:	48 8b 85 70 e6 ff ff 	mov    -0x1990(%rbp),%rax
    7fac:	48 89 05 c5 0e 01 00 	mov    %rax,0x10ec5(%rip)        # 18e78 <g_1253>
    7fb3:	48 8b 05 3e 0e 01 00 	mov    0x10e3e(%rip),%rax        # 18df8 <g_775>
    7fba:	48 8b 10             	mov    (%rax),%rdx
    7fbd:	48 8b 85 f8 e5 ff ff 	mov    -0x1a08(%rbp),%rax
    7fc4:	48 8b 00             	mov    (%rax),%rax
    7fc7:	48 8b 00             	mov    (%rax),%rax
    7fca:	48 39 c2             	cmp    %rax,%rdx
    7fcd:	0f 95 c2             	setne  %dl
    7fd0:	48 8b 05 f1 03 01 00 	mov    0x103f1(%rip),%rax        # 183c8 <g_284>
    7fd7:	48 8b 00             	mov    (%rax),%rax
    7fda:	48 8b 00             	mov    (%rax),%rax
    7fdd:	0f b6 d2             	movzbl %dl,%edx
    7fe0:	89 10                	mov    %edx,(%rax)
    7fe2:	8b 00                	mov    (%rax),%eax
    7fe4:	85 c0                	test   %eax,%eax
    7fe6:	74 0e                	je     7ff6 <func_8+0x2673>
    7fe8:	48 8b 85 70 e7 ff ff 	mov    -0x1890(%rbp),%rax
    7fef:	8b 00                	mov    (%rax),%eax
    7ff1:	e9 31 2d 00 00       	jmpq   ad27 <func_8+0x53a4>
    7ff6:	c6 85 a5 e4 ff ff 00 	movb   $0x0,-0x1b5b(%rbp)
    7ffd:	48 c7 85 80 e8 ff ff 	movq   $0x0,-0x1780(%rbp)
    8004:	00 00 00 00 
    8008:	48 c7 85 88 e8 ff ff 	movq   $0x0,-0x1778(%rbp)
    800f:	00 00 00 00 
    8013:	48 8d 05 5e f9 00 00 	lea    0xf95e(%rip),%rax        # 17978 <g_937>
    801a:	48 89 85 90 e8 ff ff 	mov    %rax,-0x1770(%rbp)
    8021:	48 8d 05 38 f8 00 00 	lea    0xf838(%rip),%rax        # 17860 <g_722>
    8028:	48 89 85 98 e8 ff ff 	mov    %rax,-0x1768(%rbp)
    802f:	c7 85 f0 e5 ff ff 36 	movl   $0x360a3636,-0x1a10(%rbp)
    8036:	36 0a 36 
    8039:	48 8d 85 40 e9 ff ff 	lea    -0x16c0(%rbp),%rax
    8040:	48 83 c0 14          	add    $0x14,%rax
    8044:	48 89 85 68 e6 ff ff 	mov    %rax,-0x1998(%rbp)
    804b:	48 8d 05 0e 13 01 00 	lea    0x1130e(%rip),%rax        # 19360 <g_616>
    8052:	48 89 85 a0 e8 ff ff 	mov    %rax,-0x1760(%rbp)
    8059:	c7 85 f8 e4 ff ff 00 	movl   $0x0,-0x1b08(%rbp)
    8060:	00 00 00 
    8063:	eb 1e                	jmp    8083 <func_8+0x2700>
    8065:	8b 85 f8 e4 ff ff    	mov    -0x1b08(%rbp),%eax
    806b:	48 98                	cltq   
    806d:	48 8d 95 30 e6 ff ff 	lea    -0x19d0(%rbp),%rdx
    8074:	48 89 94 c5 20 ed ff 	mov    %rdx,-0x12e0(%rbp,%rax,8)
    807b:	ff 
    807c:	83 85 f8 e4 ff ff 01 	addl   $0x1,-0x1b08(%rbp)
    8083:	83 bd f8 e4 ff ff 01 	cmpl   $0x1,-0x1b08(%rbp)
    808a:	7e d9                	jle    8065 <func_8+0x26e2>
    808c:	8b 85 8c e4 ff ff    	mov    -0x1b74(%rbp),%eax
    8092:	0f be c0             	movsbl %al,%eax
    8095:	89 c6                	mov    %eax,%esi
    8097:	bf f9 ff ff ff       	mov    $0xfffffff9,%edi
    809c:	e8 71 c1 ff ff       	callq  4212 <safe_mul_func_int8_t_s_s>
    80a1:	41 89 c6             	mov    %eax,%r14d
    80a4:	48 8b 85 70 e7 ff ff 	mov    -0x1890(%rbp),%rax
    80ab:	8b 00                	mov    (%rax),%eax
    80ad:	0f be d8             	movsbl %al,%ebx
    80b0:	8b 85 88 e4 ff ff    	mov    -0x1b78(%rbp),%eax
    80b6:	89 85 f4 e4 ff ff    	mov    %eax,-0x1b0c(%rbp)
    80bc:	8b 85 f4 e4 ff ff    	mov    -0x1b0c(%rbp),%eax
    80c2:	0f b6 15 15 f4 00 00 	movzbl 0xf415(%rip),%edx        # 174de <g_247+0x2>
    80c9:	21 d0                	and    %edx,%eax
    80cb:	88 05 0d f4 00 00    	mov    %al,0xf40d(%rip)        # 174de <g_247+0x2>
    80d1:	0f b6 05 06 f4 00 00 	movzbl 0xf406(%rip),%eax        # 174de <g_247+0x2>
    80d8:	0f b6 c0             	movzbl %al,%eax
    80db:	39 85 8c e4 ff ff    	cmp    %eax,-0x1b74(%rbp)
    80e1:	0f 94 85 83 e4 ff ff 	sete   -0x1b7d(%rbp)
    80e8:	83 bd ec e5 ff ff 00 	cmpl   $0x0,-0x1a14(%rbp)
    80ef:	0f 84 d4 00 00 00    	je     81c9 <func_8+0x2846>
    80f5:	48 8b 85 70 e7 ff ff 	mov    -0x1890(%rbp),%rax
    80fc:	8b 00                	mov    (%rax),%eax
    80fe:	44 0f bf e0          	movswl %ax,%r12d
    8102:	8b 85 8c e4 ff ff    	mov    -0x1b74(%rbp),%eax
    8108:	44 0f b6 e8          	movzbl %al,%r13d
    810c:	48 8b 85 70 e7 ff ff 	mov    -0x1890(%rbp),%rax
    8113:	8b 00                	mov    (%rax),%eax
    8115:	41 89 c7             	mov    %eax,%r15d
    8118:	8b 85 80 e9 ff ff    	mov    -0x1680(%rbp),%eax
    811e:	0f b6 d0             	movzbl %al,%edx
    8121:	81 bd 44 e5 ff ff fc 	cmpl   $0xde8dcbfc,-0x1abc(%rbp)
    8128:	cb 8d de 
    812b:	0f 94 c0             	sete   %al
    812e:	0f b6 c0             	movzbl %al,%eax
    8131:	89 d6                	mov    %edx,%esi
    8133:	89 c7                	mov    %eax,%edi
    8135:	e8 74 ca ff ff       	callq  4bae <safe_mod_func_uint8_t_u_u>
    813a:	8b 85 ec e5 ff ff    	mov    -0x1a14(%rbp),%eax
    8140:	0f b7 c0             	movzwl %ax,%eax
    8143:	be 06 00 00 00       	mov    $0x6,%esi
    8148:	89 c7                	mov    %eax,%edi
    814a:	e8 f9 cc ff ff       	callq  4e48 <safe_rshift_func_uint16_t_u_s>
    814f:	8b 85 28 e5 ff ff    	mov    -0x1ad8(%rbp),%eax
    8155:	98                   	cwtl   
    8156:	44 89 fe             	mov    %r15d,%esi
    8159:	89 c7                	mov    %eax,%edi
    815b:	e8 03 c4 ff ff       	callq  4563 <safe_rshift_func_int16_t_s_u>
    8160:	66 85 c0             	test   %ax,%ax
    8163:	74 14                	je     8179 <func_8+0x27f6>
    8165:	48 8b 85 70 e7 ff ff 	mov    -0x1890(%rbp),%rax
    816c:	8b 00                	mov    (%rax),%eax
    816e:	85 c0                	test   %eax,%eax
    8170:	74 07                	je     8179 <func_8+0x27f6>
    8172:	b8 01 00 00 00       	mov    $0x1,%eax
    8177:	eb 05                	jmp    817e <func_8+0x27fb>
    8179:	b8 00 00 00 00       	mov    $0x0,%eax
    817e:	0f b6 c0             	movzbl %al,%eax
    8181:	44 89 ee             	mov    %r13d,%esi
    8184:	89 c7                	mov    %eax,%edi
    8186:	e8 08 ca ff ff       	callq  4b93 <safe_mul_func_uint8_t_u_u>
    818b:	44 89 e6             	mov    %r12d,%esi
    818e:	bf a4 f6 ff ff       	mov    $0xfffff6a4,%edi
    8193:	e8 1b c2 ff ff       	callq  43b3 <safe_add_func_int16_t_s_s>
    8198:	48 8b 95 98 e8 ff ff 	mov    -0x1768(%rbp),%rdx
    819f:	48 8b 12             	mov    (%rdx),%rdx
    81a2:	48 0f bf c0          	movswq %ax,%rax
    81a6:	48 21 c2             	and    %rax,%rdx
    81a9:	48 8b 85 98 e8 ff ff 	mov    -0x1768(%rbp),%rax
    81b0:	48 89 10             	mov    %rdx,(%rax)
    81b3:	48 8b 85 98 e8 ff ff 	mov    -0x1768(%rbp),%rax
    81ba:	48 8b 00             	mov    (%rax),%rax
    81bd:	48 85 c0             	test   %rax,%rax
    81c0:	74 07                	je     81c9 <func_8+0x2846>
    81c2:	b8 01 00 00 00       	mov    $0x1,%eax
    81c7:	eb 05                	jmp    81ce <func_8+0x284b>
    81c9:	b8 00 00 00 00       	mov    $0x0,%eax
    81ce:	98                   	cwtl   
    81cf:	be 00 00 00 00       	mov    $0x0,%esi
    81d4:	89 c7                	mov    %eax,%edi
    81d6:	e8 b7 c2 ff ff       	callq  4492 <safe_lshift_func_int16_t_s_s>
    81db:	83 f0 fb             	xor    $0xfffffffb,%eax
    81de:	0f bf d0             	movswl %ax,%edx
    81e1:	48 8b 85 70 e7 ff ff 	mov    -0x1890(%rbp),%rax
    81e8:	8b 00                	mov    (%rax),%eax
    81ea:	39 c2                	cmp    %eax,%edx
    81ec:	0f 9d c0             	setge  %al
    81ef:	0a 85 83 e4 ff ff    	or     -0x1b7d(%rbp),%al
    81f5:	89 c2                	mov    %eax,%edx
    81f7:	8b 85 c4 e4 ff ff    	mov    -0x1b3c(%rbp),%eax
    81fd:	31 d0                	xor    %edx,%eax
    81ff:	0f be c0             	movsbl %al,%eax
    8202:	89 de                	mov    %ebx,%esi
    8204:	89 c7                	mov    %eax,%edi
    8206:	e8 07 c0 ff ff       	callq  4212 <safe_mul_func_int8_t_s_s>
    820b:	41 38 c6             	cmp    %al,%r14b
    820e:	0f 95 c2             	setne  %dl
    8211:	48 8b 05 08 ff 00 00 	mov    0xff08(%rip),%rax        # 18120 <g_165>
    8218:	0f b6 d2             	movzbl %dl,%edx
    821b:	89 10                	mov    %edx,(%rax)
    821d:	8b 00                	mov    (%rax),%eax
    821f:	85 c0                	test   %eax,%eax
    8221:	0f 84 7b 01 00 00    	je     83a2 <func_8+0x2a1f>
    8227:	48 83 bd 90 e8 ff ff 	cmpq   $0x0,-0x1770(%rbp)
    822e:	00 
    822f:	0f 94 c0             	sete   %al
    8232:	0f b6 c0             	movzbl %al,%eax
    8235:	be 01 00 00 00       	mov    $0x1,%esi
    823a:	89 c7                	mov    %eax,%edi
    823c:	e8 ad c0 ff ff       	callq  42ee <safe_lshift_func_int8_t_s_u>
    8241:	66 98                	cbtw   
    8243:	0f b7 c0             	movzwl %ax,%eax
    8246:	be 03 00 00 00       	mov    $0x3,%esi
    824b:	89 c7                	mov    %eax,%edi
    824d:	e8 b4 cb ff ff       	callq  4e06 <safe_lshift_func_uint16_t_u_u>
    8252:	48 8b 15 c7 fe 00 00 	mov    0xfec7(%rip),%rdx        # 18120 <g_165>
    8259:	8b 0a                	mov    (%rdx),%ecx
    825b:	0f b7 d0             	movzwl %ax,%edx
    825e:	48 8b 05 bb fe 00 00 	mov    0xfebb(%rip),%rax        # 18120 <g_165>
    8265:	21 ca                	and    %ecx,%edx
    8267:	89 10                	mov    %edx,(%rax)
    8269:	83 bd 8c e4 ff ff 00 	cmpl   $0x0,-0x1b74(%rbp)
    8270:	0f 84 a3 00 00 00    	je     8319 <func_8+0x2996>
    8276:	8b 05 a4 f2 00 00    	mov    0xf2a4(%rip),%eax        # 17520 <g_414+0x20>
    827c:	85 c0                	test   %eax,%eax
    827e:	0f 84 8e 00 00 00    	je     8312 <func_8+0x298f>
    8284:	0f b6 05 cd f2 00 00 	movzbl 0xf2cd(%rip),%eax        # 17558 <g_485>
    828b:	0f be d8             	movsbl %al,%ebx
    828e:	8b 05 fc 10 01 00    	mov    0x110fc(%rip),%eax        # 19390 <g_1305>
    8294:	39 85 88 e4 ff ff    	cmp    %eax,-0x1b78(%rbp)
    829a:	0f 92 c0             	setb   %al
    829d:	0f b6 c0             	movzbl %al,%eax
    82a0:	be d8 54 00 00       	mov    $0x54d8,%esi
    82a5:	89 c7                	mov    %eax,%edi
    82a7:	e8 49 c1 ff ff       	callq  43f5 <safe_mul_func_int16_t_s_s>
    82ac:	0f bf d0             	movswl %ax,%edx
    82af:	0f b7 85 84 e4 ff ff 	movzwl -0x1b7c(%rbp),%eax
    82b6:	0f b7 c0             	movzwl %ax,%eax
    82b9:	89 d6                	mov    %edx,%esi
    82bb:	89 c7                	mov    %eax,%edi
    82bd:	e8 43 c3 ff ff       	callq  4605 <safe_sub_func_int32_t_s_s>
    82c2:	0f be 95 a5 e4 ff ff 	movsbl -0x1b5b(%rbp),%edx
    82c9:	0f b7 85 84 e4 ff ff 	movzwl -0x1b7c(%rbp),%eax
    82d0:	0f b7 c0             	movzwl %ax,%eax
    82d3:	39 c2                	cmp    %eax,%edx
    82d5:	0f 9d c2             	setge  %dl
    82d8:	48 8b 85 30 e6 ff ff 	mov    -0x19d0(%rbp),%rax
    82df:	0f b6 d2             	movzbl %dl,%edx
    82e2:	48 89 10             	mov    %rdx,(%rax)
    82e5:	48 8b 00             	mov    (%rax),%rax
    82e8:	48 85 c0             	test   %rax,%rax
    82eb:	75 0c                	jne    82f9 <func_8+0x2976>
    82ed:	0f b7 05 ea f6 00 00 	movzwl 0xf6ea(%rip),%eax        # 179de <g_1306+0x6>
    82f4:	66 85 c0             	test   %ax,%ax
    82f7:	74 07                	je     8300 <func_8+0x297d>
    82f9:	b8 01 00 00 00       	mov    $0x1,%eax
    82fe:	eb 05                	jmp    8305 <func_8+0x2982>
    8300:	b8 00 00 00 00       	mov    $0x0,%eax
    8305:	98                   	cwtl   
    8306:	89 de                	mov    %ebx,%esi
    8308:	89 c7                	mov    %eax,%edi
    830a:	e8 c4 c0 ff ff       	callq  43d3 <safe_sub_func_int16_t_s_s>
    830f:	66 85 c0             	test   %ax,%ax
    8312:	b8 01 00 00 00       	mov    $0x1,%eax
    8317:	eb 05                	jmp    831e <func_8+0x299b>
    8319:	b8 00 00 00 00       	mov    $0x0,%eax
    831e:	0f b6 c0             	movzbl %al,%eax
    8321:	be 02 00 00 00       	mov    $0x2,%esi
    8326:	89 c7                	mov    %eax,%edi
    8328:	e8 91 c9 ff ff       	callq  4cbe <safe_rshift_func_uint8_t_u_u>
    832d:	0f b6 d0             	movzbl %al,%edx
    8330:	8b 05 5e f1 00 00    	mov    0xf15e(%rip),%eax        # 17494 <g_46+0x4>
    8336:	0f b6 c0             	movzbl %al,%eax
    8339:	89 d6                	mov    %edx,%esi
    833b:	89 c7                	mov    %eax,%edi
    833d:	e8 4b c9 ff ff       	callq  4c8d <safe_rshift_func_uint8_t_u_s>
    8342:	0f b6 d8             	movzbl %al,%ebx
    8345:	48 8b 05 a4 f5 00 00 	mov    0xf5a4(%rip),%rax        # 178f0 <g_864+0x70>
    834c:	48 89 c1             	mov    %rax,%rcx
    834f:	48 8b 15 12 f5 00 00 	mov    0xf512(%rip),%rdx        # 17868 <g_724>
    8356:	48 8b 05 2b 0b 01 00 	mov    0x10b2b(%rip),%rax        # 18e88 <g_1291>
    835d:	48 39 c2             	cmp    %rax,%rdx
    8360:	0f 95 c0             	setne  %al
    8363:	0f b6 c0             	movzbl %al,%eax
    8366:	48 89 ce             	mov    %rcx,%rsi
    8369:	48 89 c7             	mov    %rax,%rdi
    836c:	e8 da cc ff ff       	callq  504b <safe_sub_func_uint64_t_u_u>
    8371:	98                   	cwtl   
    8372:	89 de                	mov    %ebx,%esi
    8374:	89 c7                	mov    %eax,%edi
    8376:	e8 38 c0 ff ff       	callq  43b3 <safe_add_func_int16_t_s_s>
    837b:	0f b6 c0             	movzbl %al,%eax
    837e:	8b 95 88 e4 ff ff    	mov    -0x1b78(%rbp),%edx
    8384:	89 d6                	mov    %edx,%esi
    8386:	89 c7                	mov    %eax,%edi
    8388:	e8 31 c9 ff ff       	callq  4cbe <safe_rshift_func_uint8_t_u_u>
    838d:	48 8b 05 dc ff 00 00 	mov    0xffdc(%rip),%rax        # 18370 <g_167>
    8394:	48 8b 00             	mov    (%rax),%rax
    8397:	c7 00 41 6f 9f c9    	movl   $0xc99f6f41,(%rax)
    839d:	e9 37 02 00 00       	jmpq   85d9 <func_8+0x2c56>
    83a2:	48 8d 05 63 f1 00 00 	lea    0xf163(%rip),%rax        # 1750c <g_414+0xc>
    83a9:	48 89 85 40 ee ff ff 	mov    %rax,-0x11c0(%rbp)
    83b0:	48 8d 05 55 f1 00 00 	lea    0xf155(%rip),%rax        # 1750c <g_414+0xc>
    83b7:	48 89 85 48 ee ff ff 	mov    %rax,-0x11b8(%rbp)
    83be:	48 c7 85 50 ee ff ff 	movq   $0x0,-0x11b0(%rbp)
    83c5:	00 00 00 00 
    83c9:	48 c7 85 58 ee ff ff 	movq   $0x0,-0x11a8(%rbp)
    83d0:	00 00 00 00 
    83d4:	48 8d 85 c0 e4 ff ff 	lea    -0x1b40(%rbp),%rax
    83db:	48 89 85 60 ee ff ff 	mov    %rax,-0x11a0(%rbp)
    83e2:	48 8d 85 c0 e4 ff ff 	lea    -0x1b40(%rbp),%rax
    83e9:	48 89 85 68 ee ff ff 	mov    %rax,-0x1198(%rbp)
    83f0:	48 c7 85 70 ee ff ff 	movq   $0x0,-0x1190(%rbp)
    83f7:	00 00 00 00 
    83fb:	48 c7 85 78 ee ff ff 	movq   $0x0,-0x1188(%rbp)
    8402:	00 00 00 00 
    8406:	48 8d 05 ff f0 00 00 	lea    0xf0ff(%rip),%rax        # 1750c <g_414+0xc>
    840d:	48 89 85 80 ee ff ff 	mov    %rax,-0x1180(%rbp)
    8414:	48 8d 05 f1 f0 00 00 	lea    0xf0f1(%rip),%rax        # 1750c <g_414+0xc>
    841b:	48 89 85 88 ee ff ff 	mov    %rax,-0x1178(%rbp)
    8422:	48 c7 85 90 ee ff ff 	movq   $0x0,-0x1170(%rbp)
    8429:	00 00 00 00 
    842d:	48 c7 85 98 ee ff ff 	movq   $0x0,-0x1168(%rbp)
    8434:	00 00 00 00 
    8438:	48 8d 85 c0 e4 ff ff 	lea    -0x1b40(%rbp),%rax
    843f:	48 89 85 a0 ee ff ff 	mov    %rax,-0x1160(%rbp)
    8446:	48 8d 85 c0 e4 ff ff 	lea    -0x1b40(%rbp),%rax
    844d:	48 89 85 a8 ee ff ff 	mov    %rax,-0x1158(%rbp)
    8454:	48 c7 85 b0 ee ff ff 	movq   $0x0,-0x1150(%rbp)
    845b:	00 00 00 00 
    845f:	48 c7 85 b8 ee ff ff 	movq   $0x0,-0x1148(%rbp)
    8466:	00 00 00 00 
    846a:	48 8d 05 9b f0 00 00 	lea    0xf09b(%rip),%rax        # 1750c <g_414+0xc>
    8471:	48 89 85 c0 ee ff ff 	mov    %rax,-0x1140(%rbp)
    8478:	48 8d 05 8d f0 00 00 	lea    0xf08d(%rip),%rax        # 1750c <g_414+0xc>
    847f:	48 89 85 c8 ee ff ff 	mov    %rax,-0x1138(%rbp)
    8486:	48 c7 85 d0 ee ff ff 	movq   $0x0,-0x1130(%rbp)
    848d:	00 00 00 00 
    8491:	48 c7 85 d8 ee ff ff 	movq   $0x0,-0x1128(%rbp)
    8498:	00 00 00 00 
    849c:	48 8d 85 c0 e4 ff ff 	lea    -0x1b40(%rbp),%rax
    84a3:	48 89 85 e0 ee ff ff 	mov    %rax,-0x1120(%rbp)
    84aa:	48 8d 85 c0 e4 ff ff 	lea    -0x1b40(%rbp),%rax
    84b1:	48 89 85 e8 ee ff ff 	mov    %rax,-0x1118(%rbp)
    84b8:	48 c7 85 f0 ee ff ff 	movq   $0x0,-0x1110(%rbp)
    84bf:	00 00 00 00 
    84c3:	48 c7 85 f8 ee ff ff 	movq   $0x0,-0x1108(%rbp)
    84ca:	00 00 00 00 
    84ce:	48 8d 05 37 f0 00 00 	lea    0xf037(%rip),%rax        # 1750c <g_414+0xc>
    84d5:	48 89 85 00 ef ff ff 	mov    %rax,-0x1100(%rbp)
    84dc:	48 8d 05 29 f0 00 00 	lea    0xf029(%rip),%rax        # 1750c <g_414+0xc>
    84e3:	48 89 85 08 ef ff ff 	mov    %rax,-0x10f8(%rbp)
    84ea:	48 c7 85 10 ef ff ff 	movq   $0x0,-0x10f0(%rbp)
    84f1:	00 00 00 00 
    84f5:	48 c7 85 18 ef ff ff 	movq   $0x0,-0x10e8(%rbp)
    84fc:	00 00 00 00 
    8500:	48 8d 85 c0 e4 ff ff 	lea    -0x1b40(%rbp),%rax
    8507:	48 89 85 20 ef ff ff 	mov    %rax,-0x10e0(%rbp)
    850e:	48 8d 85 c0 e4 ff ff 	lea    -0x1b40(%rbp),%rax
    8515:	48 89 85 28 ef ff ff 	mov    %rax,-0x10d8(%rbp)
    851c:	48 c7 85 30 ef ff ff 	movq   $0x0,-0x10d0(%rbp)
    8523:	00 00 00 00 
    8527:	48 c7 85 38 ef ff ff 	movq   $0x0,-0x10c8(%rbp)
    852e:	00 00 00 00 
    8532:	48 8d 05 d3 ef 00 00 	lea    0xefd3(%rip),%rax        # 1750c <g_414+0xc>
    8539:	48 89 85 40 ef ff ff 	mov    %rax,-0x10c0(%rbp)
    8540:	48 8d 05 c5 ef 00 00 	lea    0xefc5(%rip),%rax        # 1750c <g_414+0xc>
    8547:	48 89 85 48 ef ff ff 	mov    %rax,-0x10b8(%rbp)
    854e:	48 c7 85 50 ef ff ff 	movq   $0x0,-0x10b0(%rbp)
    8555:	00 00 00 00 
    8559:	48 c7 85 58 ef ff ff 	movq   $0x0,-0x10a8(%rbp)
    8560:	00 00 00 00 
    8564:	48 8d 85 c0 e4 ff ff 	lea    -0x1b40(%rbp),%rax
    856b:	48 89 85 60 ef ff ff 	mov    %rax,-0x10a0(%rbp)
    8572:	48 8d 85 c0 e4 ff ff 	lea    -0x1b40(%rbp),%rax
    8579:	48 89 85 68 ef ff ff 	mov    %rax,-0x1098(%rbp)
    8580:	48 c7 85 70 ef ff ff 	movq   $0x0,-0x1090(%rbp)
    8587:	00 00 00 00 
    858b:	48 c7 85 78 ef ff ff 	movq   $0x0,-0x1088(%rbp)
    8592:	00 00 00 00 
    8596:	48 8d 85 18 e6 ff ff 	lea    -0x19e8(%rbp),%rax
    859d:	48 89 85 a8 e8 ff ff 	mov    %rax,-0x1758(%rbp)
    85a4:	83 ad 30 e5 ff ff 01 	subl   $0x1,-0x1ad0(%rbp)
    85ab:	48 8b 85 40 e6 ff ff 	mov    -0x19c0(%rbp),%rax
    85b2:	48 83 e8 01          	sub    $0x1,%rax
    85b6:	48 89 85 40 e6 ff ff 	mov    %rax,-0x19c0(%rbp)
    85bd:	48 8b 95 18 e6 ff ff 	mov    -0x19e8(%rbp),%rdx
    85c4:	48 8b 85 a8 e8 ff ff 	mov    -0x1758(%rbp),%rax
    85cb:	48 89 10             	mov    %rdx,(%rax)
    85ce:	48 c7 85 68 e6 ff ff 	movq   $0x0,-0x1998(%rbp)
    85d5:	00 00 00 00 
    85d9:	48 8b 05 a8 08 01 00 	mov    0x108a8(%rip),%rax        # 18e88 <g_1291>
    85e0:	48 8b 00             	mov    (%rax),%rax
    85e3:	48 39 85 a0 e8 ff ff 	cmp    %rax,-0x1760(%rbp)
    85ea:	0f 94 c0             	sete   %al
    85ed:	0f b6 c0             	movzbl %al,%eax
    85f0:	be 05 00 00 00       	mov    $0x5,%esi
    85f5:	89 c7                	mov    %eax,%edi
    85f7:	e8 bc c8 ff ff       	callq  4eb8 <safe_add_func_uint32_t_u_u>
    85fc:	8b 95 80 e9 ff ff    	mov    -0x1680(%rbp),%edx
    8602:	31 d0                	xor    %edx,%eax
    8604:	89 85 80 e9 ff ff    	mov    %eax,-0x1680(%rbp)
    860a:	48 c7 85 40 e6 ff ff 	movq   $0x0,-0x19c0(%rbp)
    8611:	00 00 00 00 
    8615:	90                   	nop
    8616:	48 8b 85 40 e6 ff ff 	mov    -0x19c0(%rbp),%rax
    861d:	48 83 f8 0f          	cmp    $0xf,%rax
    8621:	75 0e                	jne    8631 <func_8+0x2cae>
    8623:	48 8b 85 70 e7 ff ff 	mov    -0x1890(%rbp),%rax
    862a:	8b 00                	mov    (%rax),%eax
    862c:	e9 f6 26 00 00       	jmpq   ad27 <func_8+0x53a4>
    8631:	8b 85 88 e4 ff ff    	mov    -0x1b78(%rbp),%eax
    8637:	0f b6 d8             	movzbl %al,%ebx
    863a:	0f b7 85 84 e4 ff ff 	movzwl -0x1b7c(%rbp),%eax
    8641:	0f b7 c0             	movzwl %ax,%eax
    8644:	33 85 ec e5 ff ff    	xor    -0x1a14(%rbp),%eax
    864a:	89 c2                	mov    %eax,%edx
    864c:	0f b7 05 87 f3 00 00 	movzwl 0xf387(%rip),%eax        # 179da <g_1306+0x2>
    8653:	98                   	cwtl   
    8654:	39 85 e8 e4 ff ff    	cmp    %eax,-0x1b18(%rbp)
    865a:	0f 93 c0             	setae  %al
    865d:	0f b6 c0             	movzbl %al,%eax
    8660:	39 c2                	cmp    %eax,%edx
    8662:	0f 95 c0             	setne  %al
    8665:	0f b6 d0             	movzbl %al,%edx
    8668:	48 8b 05 71 07 01 00 	mov    0x10771(%rip),%rax        # 18de0 <g_674>
    866f:	0f b6 00             	movzbl (%rax),%eax
    8672:	88 05 e0 ee 00 00    	mov    %al,0xeee0(%rip)        # 17558 <g_485>
    8678:	0f b6 05 d9 ee 00 00 	movzbl 0xeed9(%rip),%eax        # 17558 <g_485>
    867f:	66 0f be c8          	movsbw %al,%cx
    8683:	48 8b 85 70 e7 ff ff 	mov    -0x1890(%rbp),%rax
    868a:	8b 00                	mov    (%rax),%eax
    868c:	21 c8                	and    %ecx,%eax
    868e:	98                   	cwtl   
    868f:	89 d6                	mov    %edx,%esi
    8691:	89 c7                	mov    %eax,%edi
    8693:	e8 5d bd ff ff       	callq  43f5 <safe_mul_func_int16_t_s_s>
    8698:	0f b6 c0             	movzbl %al,%eax
    869b:	be 05 00 00 00       	mov    $0x5,%esi
    86a0:	89 c7                	mov    %eax,%edi
    86a2:	e8 17 c6 ff ff       	callq  4cbe <safe_rshift_func_uint8_t_u_u>
    86a7:	0f b6 15 fc ed 00 00 	movzbl 0xedfc(%rip),%edx        # 174aa <g_107+0x2>
    86ae:	48 8b 05 bb fc 00 00 	mov    0xfcbb(%rip),%rax        # 18370 <g_167>
    86b5:	48 8b 00             	mov    (%rax),%rax
    86b8:	8b 00                	mov    (%rax),%eax
    86ba:	89 c1                	mov    %eax,%ecx
    86bc:	48 8d 05 0d f3 00 00 	lea    0xf30d(%rip),%rax        # 179d0 <g_1255>
    86c3:	8b 00                	mov    (%rax),%eax
    86c5:	39 c1                	cmp    %eax,%ecx
    86c7:	0f 92 c0             	setb   %al
    86ca:	21 d0                	and    %edx,%eax
    86cc:	88 05 d8 ed 00 00    	mov    %al,0xedd8(%rip)        # 174aa <g_107+0x2>
    86d2:	0f b6 05 d1 ed 00 00 	movzbl 0xedd1(%rip),%eax        # 174aa <g_107+0x2>
    86d9:	84 c0                	test   %al,%al
    86db:	48 8d 05 86 0c 01 00 	lea    0x10c86(%rip),%rax        # 19368 <g_993>
    86e2:	48 39 85 68 e6 ff ff 	cmp    %rax,-0x1998(%rbp)
    86e9:	0f 95 c0             	setne  %al
    86ec:	f7 d0                	not    %eax
    86ee:	0f b6 c0             	movzbl %al,%eax
    86f1:	89 de                	mov    %ebx,%esi
    86f3:	89 c7                	mov    %eax,%edi
    86f5:	e8 7e c4 ff ff       	callq  4b78 <safe_sub_func_uint8_t_u_u>
    86fa:	0f be c0             	movsbl %al,%eax
    86fd:	be 06 00 00 00       	mov    $0x6,%esi
    8702:	89 c7                	mov    %eax,%edi
    8704:	e8 e9 ba ff ff       	callq  41f2 <safe_sub_func_int8_t_s_s>
    8709:	89 c2                	mov    %eax,%edx
    870b:	48 8b 05 5e fc 00 00 	mov    0xfc5e(%rip),%rax        # 18370 <g_167>
    8712:	48 8b 00             	mov    (%rax),%rax
    8715:	0f be d2             	movsbl %dl,%edx
    8718:	89 10                	mov    %edx,(%rax)
    871a:	48 8b 05 77 07 01 00 	mov    0x10777(%rip),%rax        # 18e98 <g_1337>
    8721:	48 8b 95 78 e8 ff ff 	mov    -0x1788(%rbp),%rdx
    8728:	48 89 10             	mov    %rdx,(%rax)
    872b:	c7 85 c4 e4 ff ff fc 	movl   $0xfffffffc,-0x1b3c(%rbp)
    8732:	ff ff ff 
    8735:	eb 2c                	jmp    8763 <func_8+0x2de0>
    8737:	c7 85 f4 e5 ff ff 00 	movl   $0x0,-0x1a0c(%rbp)
    873e:	00 00 00 
    8741:	83 ad f4 e5 ff ff 01 	subl   $0x1,-0x1a0c(%rbp)
    8748:	8b 85 c4 e4 ff ff    	mov    -0x1b3c(%rbp),%eax
    874e:	48 98                	cltq   
    8750:	be 09 00 00 00       	mov    $0x9,%esi
    8755:	48 89 c7             	mov    %rax,%rdi
    8758:	e8 e4 c0 ff ff       	callq  4841 <safe_add_func_int64_t_s_s>
    875d:	89 85 c4 e4 ff ff    	mov    %eax,-0x1b3c(%rbp)
    8763:	8b 85 c4 e4 ff ff    	mov    -0x1b3c(%rbp),%eax
    8769:	83 f8 17             	cmp    $0x17,%eax
    876c:	75 c9                	jne    8737 <func_8+0x2db4>
    876e:	e9 ae 25 00 00       	jmpq   ad21 <func_8+0x539e>
    8773:	c6 85 9e e4 ff ff 05 	movb   $0x5,-0x1b62(%rbp)
    877a:	c7 85 fc e4 ff ff fc 	movl   $0xfffffffc,-0x1b04(%rbp)
    8781:	ff ff ff 
    8784:	c7 85 b0 e5 ff ff 00 	movl   $0x0,-0x1a50(%rbp)
    878b:	00 00 00 
    878e:	48 8d 85 18 e6 ff ff 	lea    -0x19e8(%rbp),%rax
    8795:	48 89 85 08 e8 ff ff 	mov    %rax,-0x17f8(%rbp)
    879c:	c7 85 b4 e5 ff ff fb 	movl   $0xfffffffb,-0x1a4c(%rbp)
    87a3:	ff ff ff 
    87a6:	48 8d 05 b3 0b 01 00 	lea    0x10bb3(%rip),%rax        # 19360 <g_616>
    87ad:	48 89 85 10 e8 ff ff 	mov    %rax,-0x17f0(%rbp)
    87b4:	c7 85 80 ec ff ff 93 	movl   $0x9c91bb93,-0x1380(%rbp)
    87bb:	bb 91 9c 
    87be:	c7 85 84 ec ff ff 42 	movl   $0xec6fe542,-0x137c(%rbp)
    87c5:	e5 6f ec 
    87c8:	c7 85 88 ec ff ff 93 	movl   $0x9c91bb93,-0x1378(%rbp)
    87cf:	bb 91 9c 
    87d2:	c7 85 8c ec ff ff 71 	movl   $0xe0536f71,-0x1374(%rbp)
    87d9:	6f 53 e0 
    87dc:	c7 85 90 ec ff ff 93 	movl   $0x9c91bb93,-0x1370(%rbp)
    87e3:	bb 91 9c 
    87e6:	c7 85 94 ec ff ff 42 	movl   $0xec6fe542,-0x136c(%rbp)
    87ed:	e5 6f ec 
    87f0:	c7 85 98 ec ff ff 93 	movl   $0x9c91bb93,-0x1368(%rbp)
    87f7:	bb 91 9c 
    87fa:	c7 85 9c ec ff ff 71 	movl   $0xe0536f71,-0x1364(%rbp)
    8801:	6f 53 e0 
    8804:	c7 85 a0 ec ff ff 93 	movl   $0x9c91bb93,-0x1360(%rbp)
    880b:	bb 91 9c 
    880e:	c7 85 a4 ec ff ff 42 	movl   $0xec6fe542,-0x135c(%rbp)
    8815:	e5 6f ec 
    8818:	c7 85 a8 ec ff ff 93 	movl   $0x9c91bb93,-0x1358(%rbp)
    881f:	bb 91 9c 
    8822:	c7 85 ac ec ff ff 71 	movl   $0xe0536f71,-0x1354(%rbp)
    8829:	6f 53 e0 
    882c:	c7 85 b0 ec ff ff 93 	movl   $0x9c91bb93,-0x1350(%rbp)
    8833:	bb 91 9c 
    8836:	c7 85 b4 ec ff ff 42 	movl   $0xec6fe542,-0x134c(%rbp)
    883d:	e5 6f ec 
    8840:	c7 85 b8 ec ff ff 93 	movl   $0x9c91bb93,-0x1348(%rbp)
    8847:	bb 91 9c 
    884a:	c7 85 bc ec ff ff 71 	movl   $0xe0536f71,-0x1344(%rbp)
    8851:	6f 53 e0 
    8854:	c7 85 c0 ec ff ff 93 	movl   $0x9c91bb93,-0x1340(%rbp)
    885b:	bb 91 9c 
    885e:	c7 85 c4 ec ff ff 42 	movl   $0xec6fe542,-0x133c(%rbp)
    8865:	e5 6f ec 
    8868:	c7 85 c8 ec ff ff 93 	movl   $0x9c91bb93,-0x1338(%rbp)
    886f:	bb 91 9c 
    8872:	c7 85 cc ec ff ff 71 	movl   $0xe0536f71,-0x1334(%rbp)
    8879:	6f 53 e0 
    887c:	c7 85 d0 ec ff ff 93 	movl   $0x9c91bb93,-0x1330(%rbp)
    8883:	bb 91 9c 
    8886:	c7 85 d4 ec ff ff 42 	movl   $0xec6fe542,-0x132c(%rbp)
    888d:	e5 6f ec 
    8890:	c7 85 d8 ec ff ff 93 	movl   $0x9c91bb93,-0x1328(%rbp)
    8897:	bb 91 9c 
    889a:	c7 85 dc ec ff ff 71 	movl   $0xe0536f71,-0x1324(%rbp)
    88a1:	6f 53 e0 
    88a4:	c7 85 e0 ec ff ff 93 	movl   $0x9c91bb93,-0x1320(%rbp)
    88ab:	bb 91 9c 
    88ae:	c7 85 e4 ec ff ff 42 	movl   $0xec6fe542,-0x131c(%rbp)
    88b5:	e5 6f ec 
    88b8:	c7 85 e8 ec ff ff 93 	movl   $0x9c91bb93,-0x1318(%rbp)
    88bf:	bb 91 9c 
    88c2:	c7 85 ec ec ff ff 71 	movl   $0xe0536f71,-0x1314(%rbp)
    88c9:	6f 53 e0 
    88cc:	c7 85 f0 ec ff ff 93 	movl   $0x9c91bb93,-0x1310(%rbp)
    88d3:	bb 91 9c 
    88d6:	c7 85 f4 ec ff ff 42 	movl   $0xec6fe542,-0x130c(%rbp)
    88dd:	e5 6f ec 
    88e0:	c7 85 f8 ec ff ff 93 	movl   $0x9c91bb93,-0x1308(%rbp)
    88e7:	bb 91 9c 
    88ea:	c7 85 fc ec ff ff 71 	movl   $0xe0536f71,-0x1304(%rbp)
    88f1:	6f 53 e0 
    88f4:	c7 85 00 ed ff ff 93 	movl   $0x9c91bb93,-0x1300(%rbp)
    88fb:	bb 91 9c 
    88fe:	c7 85 04 ed ff ff 42 	movl   $0xec6fe542,-0x12fc(%rbp)
    8905:	e5 6f ec 
    8908:	c7 85 08 ed ff ff 93 	movl   $0x9c91bb93,-0x12f8(%rbp)
    890f:	bb 91 9c 
    8912:	c7 85 0c ed ff ff 71 	movl   $0xe0536f71,-0x12f4(%rbp)
    8919:	6f 53 e0 
    891c:	c7 85 10 ed ff ff 93 	movl   $0x9c91bb93,-0x12f0(%rbp)
    8923:	bb 91 9c 
    8926:	c7 85 14 ed ff ff 42 	movl   $0xec6fe542,-0x12ec(%rbp)
    892d:	e5 6f ec 
    8930:	c7 85 18 ed ff ff 93 	movl   $0x9c91bb93,-0x12e8(%rbp)
    8937:	bb 91 9c 
    893a:	c7 85 1c ed ff ff 71 	movl   $0xe0536f71,-0x12e4(%rbp)
    8941:	6f 53 e0 
    8944:	48 8d 85 d8 e4 ff ff 	lea    -0x1b28(%rbp),%rax
    894b:	48 89 85 20 ed ff ff 	mov    %rax,-0x12e0(%rbp)
    8952:	48 8d 85 d8 e4 ff ff 	lea    -0x1b28(%rbp),%rax
    8959:	48 89 85 28 ed ff ff 	mov    %rax,-0x12d8(%rbp)
    8960:	48 8d 85 d8 e4 ff ff 	lea    -0x1b28(%rbp),%rax
    8967:	48 89 85 30 ed ff ff 	mov    %rax,-0x12d0(%rbp)
    896e:	48 8d 85 d8 e4 ff ff 	lea    -0x1b28(%rbp),%rax
    8975:	48 89 85 38 ed ff ff 	mov    %rax,-0x12c8(%rbp)
    897c:	48 8d 85 d8 e4 ff ff 	lea    -0x1b28(%rbp),%rax
    8983:	48 89 85 40 ed ff ff 	mov    %rax,-0x12c0(%rbp)
    898a:	48 8d 85 d8 e4 ff ff 	lea    -0x1b28(%rbp),%rax
    8991:	48 89 85 48 ed ff ff 	mov    %rax,-0x12b8(%rbp)
    8998:	48 8d 85 d8 e4 ff ff 	lea    -0x1b28(%rbp),%rax
    899f:	48 89 85 50 ed ff ff 	mov    %rax,-0x12b0(%rbp)
    89a6:	48 8d 85 d8 e4 ff ff 	lea    -0x1b28(%rbp),%rax
    89ad:	48 89 85 58 ed ff ff 	mov    %rax,-0x12a8(%rbp)
    89b4:	48 8d 85 d8 e4 ff ff 	lea    -0x1b28(%rbp),%rax
    89bb:	48 89 85 60 ed ff ff 	mov    %rax,-0x12a0(%rbp)
    89c2:	48 8d 85 d8 e4 ff ff 	lea    -0x1b28(%rbp),%rax
    89c9:	48 89 85 68 ed ff ff 	mov    %rax,-0x1298(%rbp)
    89d0:	48 8d 85 d8 e4 ff ff 	lea    -0x1b28(%rbp),%rax
    89d7:	48 89 85 70 ed ff ff 	mov    %rax,-0x1290(%rbp)
    89de:	48 8d 85 d8 e4 ff ff 	lea    -0x1b28(%rbp),%rax
    89e5:	48 89 85 78 ed ff ff 	mov    %rax,-0x1288(%rbp)
    89ec:	48 8d 85 d8 e4 ff ff 	lea    -0x1b28(%rbp),%rax
    89f3:	48 89 85 80 ed ff ff 	mov    %rax,-0x1280(%rbp)
    89fa:	48 8d 85 d8 e4 ff ff 	lea    -0x1b28(%rbp),%rax
    8a01:	48 89 85 88 ed ff ff 	mov    %rax,-0x1278(%rbp)
    8a08:	48 8d 85 d8 e4 ff ff 	lea    -0x1b28(%rbp),%rax
    8a0f:	48 89 85 90 ed ff ff 	mov    %rax,-0x1270(%rbp)
    8a16:	48 8d 85 d8 e4 ff ff 	lea    -0x1b28(%rbp),%rax
    8a1d:	48 89 85 98 ed ff ff 	mov    %rax,-0x1268(%rbp)
    8a24:	48 8d 85 d8 e4 ff ff 	lea    -0x1b28(%rbp),%rax
    8a2b:	48 89 85 a0 ed ff ff 	mov    %rax,-0x1260(%rbp)
    8a32:	48 8d 85 d8 e4 ff ff 	lea    -0x1b28(%rbp),%rax
    8a39:	48 89 85 a8 ed ff ff 	mov    %rax,-0x1258(%rbp)
    8a40:	48 8d 85 d8 e4 ff ff 	lea    -0x1b28(%rbp),%rax
    8a47:	48 89 85 b0 ed ff ff 	mov    %rax,-0x1250(%rbp)
    8a4e:	48 8d 85 d8 e4 ff ff 	lea    -0x1b28(%rbp),%rax
    8a55:	48 89 85 b8 ed ff ff 	mov    %rax,-0x1248(%rbp)
    8a5c:	48 8d 85 d8 e4 ff ff 	lea    -0x1b28(%rbp),%rax
    8a63:	48 89 85 c0 ed ff ff 	mov    %rax,-0x1240(%rbp)
    8a6a:	48 8d 85 d8 e4 ff ff 	lea    -0x1b28(%rbp),%rax
    8a71:	48 89 85 c8 ed ff ff 	mov    %rax,-0x1238(%rbp)
    8a78:	48 8d 85 d8 e4 ff ff 	lea    -0x1b28(%rbp),%rax
    8a7f:	48 89 85 d0 ed ff ff 	mov    %rax,-0x1230(%rbp)
    8a86:	48 8d 85 d8 e4 ff ff 	lea    -0x1b28(%rbp),%rax
    8a8d:	48 89 85 d8 ed ff ff 	mov    %rax,-0x1228(%rbp)
    8a94:	48 c7 05 d9 ee 00 00 	movq   $0x0,0xeed9(%rip)        # 17978 <g_937>
    8a9b:	00 00 00 00 
    8a9f:	e9 12 07 00 00       	jmpq   91b6 <func_8+0x3833>
    8aa4:	48 8d 05 69 ea 00 00 	lea    0xea69(%rip),%rax        # 17514 <g_414+0x14>
    8aab:	48 89 85 58 e8 ff ff 	mov    %rax,-0x17a8(%rbp)
    8ab2:	48 8d 05 5b ea 00 00 	lea    0xea5b(%rip),%rax        # 17514 <g_414+0x14>
    8ab9:	48 89 85 70 eb ff ff 	mov    %rax,-0x1490(%rbp)
    8ac0:	48 c7 85 78 eb ff ff 	movq   $0x0,-0x1488(%rbp)
    8ac7:	00 00 00 00 
    8acb:	48 8d 05 42 ea 00 00 	lea    0xea42(%rip),%rax        # 17514 <g_414+0x14>
    8ad2:	48 89 85 80 eb ff ff 	mov    %rax,-0x1480(%rbp)
    8ad9:	48 c7 85 88 eb ff ff 	movq   $0x0,-0x1478(%rbp)
    8ae0:	00 00 00 00 
    8ae4:	48 8d 05 29 ea 00 00 	lea    0xea29(%rip),%rax        # 17514 <g_414+0x14>
    8aeb:	48 89 85 90 eb ff ff 	mov    %rax,-0x1470(%rbp)
    8af2:	48 c7 85 98 eb ff ff 	movq   $0x0,-0x1468(%rbp)
    8af9:	00 00 00 00 
    8afd:	48 8d 05 10 ea 00 00 	lea    0xea10(%rip),%rax        # 17514 <g_414+0x14>
    8b04:	48 89 85 a0 eb ff ff 	mov    %rax,-0x1460(%rbp)
    8b0b:	48 c7 85 a8 eb ff ff 	movq   $0x0,-0x1458(%rbp)
    8b12:	00 00 00 00 
    8b16:	48 8d 05 f7 e9 00 00 	lea    0xe9f7(%rip),%rax        # 17514 <g_414+0x14>
    8b1d:	48 89 85 b0 eb ff ff 	mov    %rax,-0x1450(%rbp)
    8b24:	48 c7 85 b8 eb ff ff 	movq   $0x0,-0x1448(%rbp)
    8b2b:	00 00 00 00 
    8b2f:	0f b6 85 9e e4 ff ff 	movzbl -0x1b62(%rbp),%eax
    8b36:	83 e8 01             	sub    $0x1,%eax
    8b39:	88 85 9e e4 ff ff    	mov    %al,-0x1b62(%rbp)
    8b3f:	0f b7 85 84 e4 ff ff 	movzwl -0x1b7c(%rbp),%eax
    8b46:	66 85 c0             	test   %ax,%ax
    8b49:	0f 85 4a 06 00 00    	jne    9199 <func_8+0x3816>
    8b4f:	c7 05 0f 08 01 00 00 	movl   $0x0,0x1080f(%rip)        # 19368 <g_993>
    8b56:	00 00 00 
    8b59:	e9 2a 06 00 00       	jmpq   9188 <func_8+0x3805>
    8b5e:	c7 85 e8 e5 ff ff fe 	movl   $0xfffffffe,-0x1a18(%rbp)
    8b65:	ff ff ff 
    8b68:	48 8d 85 80 ea ff ff 	lea    -0x1580(%rbp),%rax
    8b6f:	48 83 c0 18          	add    $0x18,%rax
    8b73:	48 89 85 58 e6 ff ff 	mov    %rax,-0x19a8(%rbp)
    8b7a:	48 8d 85 58 e6 ff ff 	lea    -0x19a8(%rbp),%rax
    8b81:	48 89 85 60 e6 ff ff 	mov    %rax,-0x19a0(%rbp)
    8b88:	48 8d 85 60 e6 ff ff 	lea    -0x19a0(%rbp),%rax
    8b8f:	48 89 85 60 e8 ff ff 	mov    %rax,-0x17a0(%rbp)
    8b96:	48 8d 85 e0 e9 ff ff 	lea    -0x1620(%rbp),%rax
    8b9d:	48 83 c0 30          	add    $0x30,%rax
    8ba1:	48 89 85 68 e8 ff ff 	mov    %rax,-0x1798(%rbp)
    8ba8:	48 8d 05 c9 ed 00 00 	lea    0xedc9(%rip),%rax        # 17978 <g_937>
    8baf:	48 89 85 40 ee ff ff 	mov    %rax,-0x11c0(%rbp)
    8bb6:	48 c7 85 48 ee ff ff 	movq   $0x0,-0x11b8(%rbp)
    8bbd:	00 00 00 00 
    8bc1:	48 8d 05 b0 ed 00 00 	lea    0xedb0(%rip),%rax        # 17978 <g_937>
    8bc8:	48 89 85 50 ee ff ff 	mov    %rax,-0x11b0(%rbp)
    8bcf:	48 8d 05 7a e9 00 00 	lea    0xe97a(%rip),%rax        # 17550 <g_476>
    8bd6:	48 89 85 58 ee ff ff 	mov    %rax,-0x11a8(%rbp)
    8bdd:	48 8d 05 6c e9 00 00 	lea    0xe96c(%rip),%rax        # 17550 <g_476>
    8be4:	48 89 85 60 ee ff ff 	mov    %rax,-0x11a0(%rbp)
    8beb:	48 8d 05 86 ed 00 00 	lea    0xed86(%rip),%rax        # 17978 <g_937>
    8bf2:	48 89 85 68 ee ff ff 	mov    %rax,-0x1198(%rbp)
    8bf9:	48 c7 85 70 ee ff ff 	movq   $0x0,-0x1190(%rbp)
    8c00:	00 00 00 00 
    8c04:	48 8d 05 6d ed 00 00 	lea    0xed6d(%rip),%rax        # 17978 <g_937>
    8c0b:	48 89 85 78 ee ff ff 	mov    %rax,-0x1188(%rbp)
    8c12:	48 8d 05 5f ed 00 00 	lea    0xed5f(%rip),%rax        # 17978 <g_937>
    8c19:	48 89 85 80 ee ff ff 	mov    %rax,-0x1180(%rbp)
    8c20:	48 c7 85 88 ee ff ff 	movq   $0x0,-0x1178(%rbp)
    8c27:	00 00 00 00 
    8c2b:	48 8d 05 2e ec 00 00 	lea    0xec2e(%rip),%rax        # 17860 <g_722>
    8c32:	48 89 85 90 ee ff ff 	mov    %rax,-0x1170(%rbp)
    8c39:	48 8d 85 40 e6 ff ff 	lea    -0x19c0(%rbp),%rax
    8c40:	48 89 85 98 ee ff ff 	mov    %rax,-0x1168(%rbp)
    8c47:	48 c7 85 a0 ee ff ff 	movq   $0x0,-0x1160(%rbp)
    8c4e:	00 00 00 00 
    8c52:	48 8d 05 07 ec 00 00 	lea    0xec07(%rip),%rax        # 17860 <g_722>
    8c59:	48 89 85 a8 ee ff ff 	mov    %rax,-0x1158(%rbp)
    8c60:	48 8d 05 f9 eb 00 00 	lea    0xebf9(%rip),%rax        # 17860 <g_722>
    8c67:	48 89 85 b0 ee ff ff 	mov    %rax,-0x1150(%rbp)
    8c6e:	48 c7 85 b8 ee ff ff 	movq   $0x0,-0x1148(%rbp)
    8c75:	00 00 00 00 
    8c79:	48 8d 85 40 e6 ff ff 	lea    -0x19c0(%rbp),%rax
    8c80:	48 89 85 c0 ee ff ff 	mov    %rax,-0x1140(%rbp)
    8c87:	48 8d 05 d2 eb 00 00 	lea    0xebd2(%rip),%rax        # 17860 <g_722>
    8c8e:	48 89 85 c8 ee ff ff 	mov    %rax,-0x1138(%rbp)
    8c95:	48 8d 05 b4 e8 00 00 	lea    0xe8b4(%rip),%rax        # 17550 <g_476>
    8c9c:	48 89 85 d0 ee ff ff 	mov    %rax,-0x1130(%rbp)
    8ca3:	48 8d 05 ce ec 00 00 	lea    0xecce(%rip),%rax        # 17978 <g_937>
    8caa:	48 89 85 d8 ee ff ff 	mov    %rax,-0x1128(%rbp)
    8cb1:	48 8d 05 98 e8 00 00 	lea    0xe898(%rip),%rax        # 17550 <g_476>
    8cb8:	48 89 85 e0 ee ff ff 	mov    %rax,-0x1120(%rbp)
    8cbf:	48 8d 05 b2 ec 00 00 	lea    0xecb2(%rip),%rax        # 17978 <g_937>
    8cc6:	48 89 85 e8 ee ff ff 	mov    %rax,-0x1118(%rbp)
    8ccd:	48 8d 05 54 e3 00 00 	lea    0xe354(%rip),%rax        # 17028 <g_6>
    8cd4:	48 89 85 f0 ee ff ff 	mov    %rax,-0x1110(%rbp)
    8cdb:	48 c7 85 f8 ee ff ff 	movq   $0x0,-0x1108(%rbp)
    8ce2:	00 00 00 00 
    8ce6:	48 c7 85 00 ef ff ff 	movq   $0x0,-0x1100(%rbp)
    8ced:	00 00 00 00 
    8cf1:	48 8d 05 30 e3 00 00 	lea    0xe330(%rip),%rax        # 17028 <g_6>
    8cf8:	48 89 85 08 ef ff ff 	mov    %rax,-0x10f8(%rbp)
    8cff:	48 8d 05 72 ec 00 00 	lea    0xec72(%rip),%rax        # 17978 <g_937>
    8d06:	48 89 85 10 ef ff ff 	mov    %rax,-0x10f0(%rbp)
    8d0d:	48 c7 85 18 ef ff ff 	movq   $0x0,-0x10e8(%rbp)
    8d14:	00 00 00 00 
    8d18:	48 8d 85 40 e6 ff ff 	lea    -0x19c0(%rbp),%rax
    8d1f:	48 89 85 20 ef ff ff 	mov    %rax,-0x10e0(%rbp)
    8d26:	48 c7 85 28 ef ff ff 	movq   $0x0,-0x10d8(%rbp)
    8d2d:	00 00 00 00 
    8d31:	48 8d 85 40 e6 ff ff 	lea    -0x19c0(%rbp),%rax
    8d38:	48 89 85 30 ef ff ff 	mov    %rax,-0x10d0(%rbp)
    8d3f:	48 c7 85 38 ef ff ff 	movq   $0x0,-0x10c8(%rbp)
    8d46:	00 00 00 00 
    8d4a:	48 c7 85 40 ef ff ff 	movq   $0x0,-0x10c0(%rbp)
    8d51:	00 00 00 00 
    8d55:	48 8d 85 40 e6 ff ff 	lea    -0x19c0(%rbp),%rax
    8d5c:	48 89 85 48 ef ff ff 	mov    %rax,-0x10b8(%rbp)
    8d63:	48 8d 85 40 e6 ff ff 	lea    -0x19c0(%rbp),%rax
    8d6a:	48 89 85 50 ef ff ff 	mov    %rax,-0x10b0(%rbp)
    8d71:	48 c7 85 58 ef ff ff 	movq   $0x0,-0x10a8(%rbp)
    8d78:	00 00 00 00 
    8d7c:	48 8d 05 cd e7 00 00 	lea    0xe7cd(%rip),%rax        # 17550 <g_476>
    8d83:	48 89 85 60 ef ff ff 	mov    %rax,-0x10a0(%rbp)
    8d8a:	48 8d 05 e7 eb 00 00 	lea    0xebe7(%rip),%rax        # 17978 <g_937>
    8d91:	48 89 85 68 ef ff ff 	mov    %rax,-0x1098(%rbp)
    8d98:	48 8d 05 b1 e7 00 00 	lea    0xe7b1(%rip),%rax        # 17550 <g_476>
    8d9f:	48 89 85 70 ef ff ff 	mov    %rax,-0x1090(%rbp)
    8da6:	48 8d 05 cb eb 00 00 	lea    0xebcb(%rip),%rax        # 17978 <g_937>
    8dad:	48 89 85 78 ef ff ff 	mov    %rax,-0x1088(%rbp)
    8db4:	48 8d 05 95 e7 00 00 	lea    0xe795(%rip),%rax        # 17550 <g_476>
    8dbb:	48 89 85 80 ef ff ff 	mov    %rax,-0x1080(%rbp)
    8dc2:	48 8d 05 af eb 00 00 	lea    0xebaf(%rip),%rax        # 17978 <g_937>
    8dc9:	48 89 85 88 ef ff ff 	mov    %rax,-0x1078(%rbp)
    8dd0:	48 8d 05 51 e2 00 00 	lea    0xe251(%rip),%rax        # 17028 <g_6>
    8dd7:	48 89 85 90 ef ff ff 	mov    %rax,-0x1070(%rbp)
    8dde:	48 c7 85 98 ef ff ff 	movq   $0x0,-0x1068(%rbp)
    8de5:	00 00 00 00 
    8de9:	48 c7 85 a0 ef ff ff 	movq   $0x0,-0x1060(%rbp)
    8df0:	00 00 00 00 
    8df4:	48 8d 85 40 e6 ff ff 	lea    -0x19c0(%rbp),%rax
    8dfb:	48 89 85 a8 ef ff ff 	mov    %rax,-0x1058(%rbp)
    8e02:	48 8d 05 57 ea 00 00 	lea    0xea57(%rip),%rax        # 17860 <g_722>
    8e09:	48 89 85 b0 ef ff ff 	mov    %rax,-0x1050(%rbp)
    8e10:	48 c7 85 b8 ef ff ff 	movq   $0x0,-0x1048(%rbp)
    8e17:	00 00 00 00 
    8e1b:	48 8d 85 40 e6 ff ff 	lea    -0x19c0(%rbp),%rax
    8e22:	48 89 85 c0 ef ff ff 	mov    %rax,-0x1040(%rbp)
    8e29:	48 c7 85 c8 ef ff ff 	movq   $0x0,-0x1038(%rbp)
    8e30:	00 00 00 00 
    8e34:	48 8d 05 25 ea 00 00 	lea    0xea25(%rip),%rax        # 17860 <g_722>
    8e3b:	48 89 85 d0 ef ff ff 	mov    %rax,-0x1030(%rbp)
    8e42:	48 8d 85 40 e6 ff ff 	lea    -0x19c0(%rbp),%rax
    8e49:	48 89 85 d8 ef ff ff 	mov    %rax,-0x1028(%rbp)
    8e50:	48 c7 85 e0 ef ff ff 	movq   $0x0,-0x1020(%rbp)
    8e57:	00 00 00 00 
    8e5b:	48 8d 05 fe e9 00 00 	lea    0xe9fe(%rip),%rax        # 17860 <g_722>
    8e62:	48 89 85 e8 ef ff ff 	mov    %rax,-0x1018(%rbp)
    8e69:	48 8d 05 08 eb 00 00 	lea    0xeb08(%rip),%rax        # 17978 <g_937>
    8e70:	48 89 85 f0 ef ff ff 	mov    %rax,-0x1010(%rbp)
    8e77:	48 c7 85 f8 ef ff ff 	movq   $0x0,-0x1008(%rbp)
    8e7e:	00 00 00 00 
    8e82:	48 8d 05 ef ea 00 00 	lea    0xeaef(%rip),%rax        # 17978 <g_937>
    8e89:	48 89 85 00 f0 ff ff 	mov    %rax,-0x1000(%rbp)
    8e90:	48 8d 05 e1 ea 00 00 	lea    0xeae1(%rip),%rax        # 17978 <g_937>
    8e97:	48 89 85 08 f0 ff ff 	mov    %rax,-0xff8(%rbp)
    8e9e:	48 c7 85 10 f0 ff ff 	movq   $0x0,-0xff0(%rbp)
    8ea5:	00 00 00 00 
    8ea9:	48 8d 05 c8 ea 00 00 	lea    0xeac8(%rip),%rax        # 17978 <g_937>
    8eb0:	48 89 85 18 f0 ff ff 	mov    %rax,-0xfe8(%rbp)
    8eb7:	48 8d 05 ba ea 00 00 	lea    0xeaba(%rip),%rax        # 17978 <g_937>
    8ebe:	48 89 85 20 f0 ff ff 	mov    %rax,-0xfe0(%rbp)
    8ec5:	48 c7 85 28 f0 ff ff 	movq   $0x0,-0xfd8(%rbp)
    8ecc:	00 00 00 00 
    8ed0:	48 8d 05 a1 ea 00 00 	lea    0xeaa1(%rip),%rax        # 17978 <g_937>
    8ed7:	48 89 85 30 f0 ff ff 	mov    %rax,-0xfd0(%rbp)
    8ede:	48 8d 05 7b e9 00 00 	lea    0xe97b(%rip),%rax        # 17860 <g_722>
    8ee5:	48 89 85 38 f0 ff ff 	mov    %rax,-0xfc8(%rbp)
    8eec:	48 8d 05 ed e6 00 00 	lea    0xe6ed(%rip),%rax        # 175e0 <g_671+0x20>
    8ef3:	48 89 85 40 f0 ff ff 	mov    %rax,-0xfc0(%rbp)
    8efa:	48 8d 85 40 e6 ff ff 	lea    -0x19c0(%rbp),%rax
    8f01:	48 89 85 48 f0 ff ff 	mov    %rax,-0xfb8(%rbp)
    8f08:	48 c7 85 50 f0 ff ff 	movq   $0x0,-0xfb0(%rbp)
    8f0f:	00 00 00 00 
    8f13:	48 8d 05 6e ea 00 00 	lea    0xea6e(%rip),%rax        # 17988 <g_1075>
    8f1a:	48 89 85 58 f0 ff ff 	mov    %rax,-0xfa8(%rbp)
    8f21:	48 c7 85 60 f0 ff ff 	movq   $0x0,-0xfa0(%rbp)
    8f28:	00 00 00 00 
    8f2c:	48 8d 05 55 ea 00 00 	lea    0xea55(%rip),%rax        # 17988 <g_1075>
    8f33:	48 89 85 68 f0 ff ff 	mov    %rax,-0xf98(%rbp)
    8f3a:	48 c7 85 70 f0 ff ff 	movq   $0x0,-0xf90(%rbp)
    8f41:	00 00 00 00 
    8f45:	48 8d 85 40 e6 ff ff 	lea    -0x19c0(%rbp),%rax
    8f4c:	48 89 85 78 f0 ff ff 	mov    %rax,-0xf88(%rbp)
    8f53:	48 8d 05 ce e0 00 00 	lea    0xe0ce(%rip),%rax        # 17028 <g_6>
    8f5a:	48 89 85 80 f0 ff ff 	mov    %rax,-0xf80(%rbp)
    8f61:	48 8d 05 c0 e0 00 00 	lea    0xe0c0(%rip),%rax        # 17028 <g_6>
    8f68:	48 89 85 88 f0 ff ff 	mov    %rax,-0xf78(%rbp)
    8f6f:	48 8d 05 02 ea 00 00 	lea    0xea02(%rip),%rax        # 17978 <g_937>
    8f76:	48 89 85 90 f0 ff ff 	mov    %rax,-0xf70(%rbp)
    8f7d:	48 8d 05 cc e5 00 00 	lea    0xe5cc(%rip),%rax        # 17550 <g_476>
    8f84:	48 89 85 98 f0 ff ff 	mov    %rax,-0xf68(%rbp)
    8f8b:	48 c7 85 a0 f0 ff ff 	movq   $0x0,-0xf60(%rbp)
    8f92:	00 00 00 00 
    8f96:	48 c7 85 a8 f0 ff ff 	movq   $0x0,-0xf58(%rbp)
    8f9d:	00 00 00 00 
    8fa1:	48 8d 05 d0 e9 00 00 	lea    0xe9d0(%rip),%rax        # 17978 <g_937>
    8fa8:	48 89 85 b0 f0 ff ff 	mov    %rax,-0xf50(%rbp)
    8faf:	48 c7 85 b8 f0 ff ff 	movq   $0x0,-0xf48(%rbp)
    8fb6:	00 00 00 00 
    8fba:	48 c7 85 c0 f0 ff ff 	movq   $0x0,-0xf40(%rbp)
    8fc1:	00 00 00 00 
    8fc5:	66 c7 85 b2 e8 ff ff 	movw   $0x9cd9,-0x174e(%rbp)
    8fcc:	d9 9c 
    8fce:	66 c7 85 b4 e8 ff ff 	movw   $0x99c9,-0x174c(%rbp)
    8fd5:	c9 99 
    8fd7:	66 c7 85 b6 e8 ff ff 	movw   $0x99c9,-0x174a(%rbp)
    8fde:	c9 99 
    8fe0:	66 c7 85 b8 e8 ff ff 	movw   $0x9cd9,-0x1748(%rbp)
    8fe7:	d9 9c 
    8fe9:	66 c7 85 ba e8 ff ff 	movw   $0x99c9,-0x1746(%rbp)
    8ff0:	c9 99 
    8ff2:	66 c7 85 bc e8 ff ff 	movw   $0x99c9,-0x1744(%rbp)
    8ff9:	c9 99 
    8ffb:	66 c7 85 be e8 ff ff 	movw   $0x9cd9,-0x1742(%rbp)
    9002:	d9 9c 
    9004:	c7 85 00 e5 ff ff 00 	movl   $0x0,-0x1b00(%rbp)
    900b:	00 00 00 
    900e:	eb 50                	jmp    9060 <func_8+0x36dd>
    9010:	c7 85 04 e5 ff ff 00 	movl   $0x0,-0x1afc(%rbp)
    9017:	00 00 00 
    901a:	eb 34                	jmp    9050 <func_8+0x36cd>
    901c:	8b 85 04 e5 ff ff    	mov    -0x1afc(%rbp),%eax
    9022:	48 63 c8             	movslq %eax,%rcx
    9025:	8b 85 00 e5 ff ff    	mov    -0x1b00(%rbp),%eax
    902b:	48 63 d0             	movslq %eax,%rdx
    902e:	48 89 d0             	mov    %rdx,%rax
    9031:	48 01 c0             	add    %rax,%rax
    9034:	48 01 d0             	add    %rdx,%rax
    9037:	48 01 c8             	add    %rcx,%rax
    903a:	48 8d 15 1f a0 00 00 	lea    0xa01f(%rip),%rdx        # 13060 <g_436>
    9041:	48 89 94 c5 80 ea ff 	mov    %rdx,-0x1580(%rbp,%rax,8)
    9048:	ff 
    9049:	83 85 04 e5 ff ff 01 	addl   $0x1,-0x1afc(%rbp)
    9050:	83 bd 04 e5 ff ff 02 	cmpl   $0x2,-0x1afc(%rbp)
    9057:	7e c3                	jle    901c <func_8+0x3699>
    9059:	83 85 00 e5 ff ff 01 	addl   $0x1,-0x1b00(%rbp)
    9060:	83 bd 00 e5 ff ff 01 	cmpl   $0x1,-0x1b00(%rbp)
    9067:	7e a7                	jle    9010 <func_8+0x368d>
    9069:	8b 95 88 e4 ff ff    	mov    -0x1b78(%rbp),%edx
    906f:	48 8b 85 30 e6 ff ff 	mov    -0x19d0(%rbp),%rax
    9076:	48 bb 4f f2 84 7d c5 	movabs $0xcd01cec57d84f24f,%rbx
    907d:	ce 01 cd 
    9080:	48 89 18             	mov    %rbx,(%rax)
    9083:	48 8b 00             	mov    (%rax),%rax
    9086:	48 39 c2             	cmp    %rax,%rdx
    9089:	0f 9d c0             	setge  %al
    908c:	0f b6 c0             	movzbl %al,%eax
    908f:	be ff ff ff ff       	mov    $0xffffffff,%esi
    9094:	89 c7                	mov    %eax,%edi
    9096:	e8 5a b3 ff ff       	callq  43f5 <safe_mul_func_int16_t_s_s>
    909b:	89 c3                	mov    %eax,%ebx
    909d:	0f b7 85 84 e4 ff ff 	movzwl -0x1b7c(%rbp),%eax
    90a4:	66 85 c0             	test   %ax,%ax
    90a7:	75 21                	jne    90ca <func_8+0x3747>
    90a9:	0f b7 85 84 e4 ff ff 	movzwl -0x1b7c(%rbp),%eax
    90b0:	0f b7 c0             	movzwl %ax,%eax
    90b3:	0f b6 95 9e e4 ff ff 	movzbl -0x1b62(%rbp),%edx
    90ba:	89 95 fc e4 ff ff    	mov    %edx,-0x1b04(%rbp)
    90c0:	0b 85 fc e4 ff ff    	or     -0x1b04(%rbp),%eax
    90c6:	85 c0                	test   %eax,%eax
    90c8:	74 07                	je     90d1 <func_8+0x374e>
    90ca:	b8 01 00 00 00       	mov    $0x1,%eax
    90cf:	eb 05                	jmp    90d6 <func_8+0x3753>
    90d1:	b8 00 00 00 00       	mov    $0x0,%eax
    90d6:	41 89 c4             	mov    %eax,%r12d
    90d9:	0f b6 85 9e e4 ff ff 	movzbl -0x1b62(%rbp),%eax
    90e0:	89 c6                	mov    %eax,%esi
    90e2:	bf 00 00 00 00       	mov    $0x0,%edi
    90e7:	e8 69 b3 ff ff       	callq  4455 <safe_div_func_int16_t_s_s>
    90ec:	48 8b 85 68 e8 ff ff 	mov    -0x1798(%rbp),%rax
    90f3:	48 c7 00 00 00 00 00 	movq   $0x0,(%rax)
    90fa:	48 8b 85 68 e8 ff ff 	mov    -0x1798(%rbp),%rax
    9101:	48 8b 00             	mov    (%rax),%rax
    9104:	89 85 c0 eb ff ff    	mov    %eax,-0x1440(%rbp)
    910a:	8b 85 c0 eb ff ff    	mov    -0x1440(%rbp),%eax
    9110:	44 31 e0             	xor    %r12d,%eax
    9113:	66 89 85 b8 e8 ff ff 	mov    %ax,-0x1748(%rbp)
    911a:	8b 85 88 e4 ff ff    	mov    -0x1b78(%rbp),%eax
    9120:	0f b7 c0             	movzwl %ax,%eax
    9123:	be 00 00 00 00       	mov    $0x0,%esi
    9128:	89 c7                	mov    %eax,%edi
    912a:	e8 d7 bc ff ff       	callq  4e06 <safe_lshift_func_uint16_t_u_u>
    912f:	48 8b 05 3a f2 00 00 	mov    0xf23a(%rip),%rax        # 18370 <g_167>
    9136:	48 8b 00             	mov    (%rax),%rax
    9139:	8b 08                	mov    (%rax),%ecx
    913b:	0f bf d3             	movswl %bx,%edx
    913e:	48 8b 05 2b f2 00 00 	mov    0xf22b(%rip),%rax        # 18370 <g_167>
    9145:	48 8b 00             	mov    (%rax),%rax
    9148:	09 ca                	or     %ecx,%edx
    914a:	89 10                	mov    %edx,(%rax)
    914c:	83 bd 88 e4 ff ff 00 	cmpl   $0x0,-0x1b78(%rbp)
    9153:	75 10                	jne    9165 <func_8+0x37e2>
    9155:	83 bd fc e4 ff ff 00 	cmpl   $0x0,-0x1b04(%rbp)
    915c:	74 07                	je     9165 <func_8+0x37e2>
    915e:	b8 01 00 00 00       	mov    $0x1,%eax
    9163:	eb 05                	jmp    916a <func_8+0x37e7>
    9165:	b8 00 00 00 00       	mov    $0x0,%eax
    916a:	89 85 b0 e5 ff ff    	mov    %eax,-0x1a50(%rbp)
    9170:	8b 05 f2 01 01 00    	mov    0x101f2(%rip),%eax        # 19368 <g_993>
    9176:	be 03 00 00 00       	mov    $0x3,%esi
    917b:	89 c7                	mov    %eax,%edi
    917d:	e8 34 b4 ff ff       	callq  45b6 <safe_add_func_int32_t_s_s>
    9182:	89 05 e0 01 01 00    	mov    %eax,0x101e0(%rip)        # 19368 <g_993>
    9188:	8b 05 da 01 01 00    	mov    0x101da(%rip),%eax        # 19368 <g_993>
    918e:	83 f8 0f             	cmp    $0xf,%eax
    9191:	0f 8e c7 f9 ff ff    	jle    8b5e <func_8+0x31db>
    9197:	eb 01                	jmp    919a <func_8+0x3817>
    9199:	90                   	nop
    919a:	48 8b 05 d7 e7 00 00 	mov    0xe7d7(%rip),%rax        # 17978 <g_937>
    91a1:	be 03 00 00 00       	mov    $0x3,%esi
    91a6:	89 c7                	mov    %eax,%edi
    91a8:	e8 09 b4 ff ff       	callq  45b6 <safe_add_func_int32_t_s_s>
    91ad:	48 98                	cltq   
    91af:	48 89 05 c2 e7 00 00 	mov    %rax,0xe7c2(%rip)        # 17978 <g_937>
    91b6:	48 8b 05 bb e7 00 00 	mov    0xe7bb(%rip),%rax        # 17978 <g_937>
    91bd:	48 83 f8 10          	cmp    $0x10,%rax
    91c1:	0f 86 dd f8 ff ff    	jbe    8aa4 <func_8+0x3121>
    91c7:	8b 85 88 e4 ff ff    	mov    -0x1b78(%rbp),%eax
    91cd:	0f b6 d8             	movzbl %al,%ebx
    91d0:	8b 85 8c e4 ff ff    	mov    -0x1b74(%rbp),%eax
    91d6:	0f b6 c0             	movzbl %al,%eax
    91d9:	be 05 00 00 00       	mov    $0x5,%esi
    91de:	89 c7                	mov    %eax,%edi
    91e0:	e8 20 ba ff ff       	callq  4c05 <safe_lshift_func_uint8_t_u_s>
    91e5:	83 f0 7a             	xor    $0x7a,%eax
    91e8:	0f b6 c0             	movzbl %al,%eax
    91eb:	89 de                	mov    %ebx,%esi
    91ed:	89 c7                	mov    %eax,%edi
    91ef:	e8 9f b9 ff ff       	callq  4b93 <safe_mul_func_uint8_t_u_u>
    91f4:	0f b6 d0             	movzbl %al,%edx
    91f7:	8b 85 e8 e4 ff ff    	mov    -0x1b18(%rbp),%eax
    91fd:	48 89 d6             	mov    %rdx,%rsi
    9200:	48 89 c7             	mov    %rax,%rdi
    9203:	e8 26 be ff ff       	callq  502e <safe_add_func_uint64_t_u_u>
    9208:	48 8b 85 38 e6 ff ff 	mov    -0x19c8(%rbp),%rax
    920f:	48 8b 00             	mov    (%rax),%rax
    9212:	48 8b 00             	mov    (%rax),%rax
    9215:	48 c7 85 88 e7 ff ff 	movq   $0x0,-0x1878(%rbp)
    921c:	00 00 00 00 
    9220:	48 39 85 88 e7 ff ff 	cmp    %rax,-0x1878(%rbp)
    9227:	0f 94 c0             	sete   %al
    922a:	0f b6 d0             	movzbl %al,%edx
    922d:	48 8b 85 70 e7 ff ff 	mov    -0x1890(%rbp),%rax
    9234:	8b 00                	mov    (%rax),%eax
    9236:	0f b6 c0             	movzbl %al,%eax
    9239:	89 d6                	mov    %edx,%esi
    923b:	89 c7                	mov    %eax,%edi
    923d:	e8 4b ba ff ff       	callq  4c8d <safe_rshift_func_uint8_t_u_s>
    9242:	8b 85 8c e4 ff ff    	mov    -0x1b74(%rbp),%eax
    9248:	0f be c0             	movsbl %al,%eax
    924b:	be 05 00 00 00       	mov    $0x5,%esi
    9250:	89 c7                	mov    %eax,%edi
    9252:	e8 4a b0 ff ff       	callq  42a1 <safe_lshift_func_int8_t_s_s>
    9257:	89 c2                	mov    %eax,%edx
    9259:	48 8b 05 68 f1 00 00 	mov    0xf168(%rip),%rax        # 183c8 <g_284>
    9260:	48 8b 00             	mov    (%rax),%rax
    9263:	48 8b 00             	mov    (%rax),%rax
    9266:	0f be d2             	movsbl %dl,%edx
    9269:	89 10                	mov    %edx,(%rax)
    926b:	66 c7 05 fe e5 00 00 	movw   $0x5,0xe5fe(%rip)        # 17872 <g_851>
    9272:	05 00 
    9274:	e9 e0 06 00 00       	jmpq   9959 <func_8+0x3fd6>
    9279:	48 c7 85 18 e8 ff ff 	movq   $0x0,-0x17e8(%rbp)
    9280:	00 00 00 00 
    9284:	c7 85 b8 e5 ff ff 00 	movl   $0x0,-0x1a48(%rbp)
    928b:	00 00 00 
    928e:	c7 85 bc e5 ff ff ee 	movl   $0x154d2ee,-0x1a44(%rbp)
    9295:	d2 54 01 
    9298:	c7 85 c0 e5 ff ff 9c 	movl   $0xba98d09c,-0x1a40(%rbp)
    929f:	d0 98 ba 
    92a2:	c7 85 c4 e5 ff ff 01 	movl   $0x1,-0x1a3c(%rbp)
    92a9:	00 00 00 
    92ac:	c7 85 c8 e5 ff ff ff 	movl   $0xffffffff,-0x1a38(%rbp)
    92b3:	ff ff ff 
    92b6:	c7 85 cc e5 ff ff 4d 	movl   $0x99e9ea4d,-0x1a34(%rbp)
    92bd:	ea e9 99 
    92c0:	c7 85 d0 e5 ff ff bb 	movl   $0xe33cc8bb,-0x1a30(%rbp)
    92c7:	c8 3c e3 
    92ca:	c7 85 d4 e5 ff ff 01 	movl   $0x1,-0x1a2c(%rbp)
    92d1:	00 00 00 
    92d4:	c7 85 d8 e5 ff ff fe 	movl   $0xfffffffe,-0x1a28(%rbp)
    92db:	ff ff ff 
    92de:	c7 85 dc e5 ff ff fc 	movl   $0xfffffffc,-0x1a24(%rbp)
    92e5:	ff ff ff 
    92e8:	c7 85 e0 e5 ff ff 05 	movl   $0x5,-0x1a20(%rbp)
    92ef:	00 00 00 
    92f2:	c7 85 08 e5 ff ff ff 	movl   $0xffffffff,-0x1af8(%rbp)
    92f9:	ff ff ff 
    92fc:	c7 85 0c e5 ff ff 00 	movl   $0x0,-0x1af4(%rbp)
    9303:	00 00 00 
    9306:	eb 1a                	jmp    9322 <func_8+0x399f>
    9308:	8b 85 0c e5 ff ff    	mov    -0x1af4(%rbp),%eax
    930e:	48 98                	cltq   
    9310:	c7 84 85 80 ea ff ff 	movl   $0xffffffff,-0x1580(%rbp,%rax,4)
    9317:	ff ff ff ff 
    931b:	83 85 0c e5 ff ff 01 	addl   $0x1,-0x1af4(%rbp)
    9322:	83 bd 0c e5 ff ff 04 	cmpl   $0x4,-0x1af4(%rbp)
    9329:	7e dd                	jle    9308 <func_8+0x3985>
    932b:	c7 85 c0 e4 ff ff 00 	movl   $0x0,-0x1b40(%rbp)
    9332:	00 00 00 
    9335:	e9 ca 01 00 00       	jmpq   9504 <func_8+0x3b81>
    933a:	c7 85 e4 e5 ff ff d4 	movl   $0xc97e31d4,-0x1a1c(%rbp)
    9341:	31 7e c9 
    9344:	48 8d 85 a0 e9 ff ff 	lea    -0x1660(%rbp),%rax
    934b:	48 89 85 20 e8 ff ff 	mov    %rax,-0x17e0(%rbp)
    9352:	48 8b 05 1f fb 00 00 	mov    0xfb1f(%rip),%rax        # 18e78 <g_1253>
    9359:	48 8b 00             	mov    (%rax),%rax
    935c:	8b 00                	mov    (%rax),%eax
    935e:	89 c3                	mov    %eax,%ebx
    9360:	0f b7 05 0b e5 00 00 	movzwl 0xe50b(%rip),%eax        # 17872 <g_851>
    9367:	98                   	cwtl   
    9368:	48 98                	cltq   
    936a:	48 8d 14 00          	lea    (%rax,%rax,1),%rdx
    936e:	48 8d 05 63 e6 00 00 	lea    0xe663(%rip),%rax        # 179d8 <g_1306>
    9375:	0f b7 04 02          	movzwl (%rdx,%rax,1),%eax
    9379:	83 f0 18             	xor    $0x18,%eax
    937c:	89 c2                	mov    %eax,%edx
    937e:	48 8b 85 30 e6 ff ff 	mov    -0x19d0(%rbp),%rax
    9385:	48 0f bf d2          	movswq %dx,%rdx
    9389:	48 89 10             	mov    %rdx,(%rax)
    938c:	48 8b 00             	mov    (%rax),%rax
    938f:	48 85 c0             	test   %rax,%rax
    9392:	75 69                	jne    93fd <func_8+0x3a7a>
    9394:	48 8b 05 fd e5 00 00 	mov    0xe5fd(%rip),%rax        # 17998 <g_1218>
    939b:	0f b6 d0             	movzbl %al,%edx
    939e:	48 8b 05 f3 ff 00 00 	mov    0xfff3(%rip),%rax        # 19398 <g_1317>
    93a5:	48 39 85 08 e8 ff ff 	cmp    %rax,-0x17f8(%rbp)
    93ac:	0f 94 c0             	sete   %al
    93af:	0f b6 c8             	movzbl %al,%ecx
    93b2:	0f b7 05 b9 e4 00 00 	movzwl 0xe4b9(%rip),%eax        # 17872 <g_851>
    93b9:	98                   	cwtl   
    93ba:	83 c0 03             	add    $0x3,%eax
    93bd:	48 98                	cltq   
    93bf:	48 8d 34 c5 00 00 00 	lea    0x0(,%rax,8),%rsi
    93c6:	00 
    93c7:	48 8d 05 92 e1 00 00 	lea    0xe192(%rip),%rax        # 17560 <g_532>
    93ce:	48 8b 04 06          	mov    (%rsi,%rax,1),%rax
    93d2:	48 39 c1             	cmp    %rax,%rcx
    93d5:	0f 94 c0             	sete   %al
    93d8:	0f b6 c0             	movzbl %al,%eax
    93db:	89 d6                	mov    %edx,%esi
    93dd:	89 c7                	mov    %eax,%edi
    93df:	e8 f7 b7 ff ff       	callq  4bdb <safe_div_func_uint8_t_u_u>
    93e4:	8b 85 c4 e4 ff ff    	mov    -0x1b3c(%rbp),%eax
    93ea:	83 e0 01             	and    $0x1,%eax
    93ed:	85 c0                	test   %eax,%eax
    93ef:	75 0c                	jne    93fd <func_8+0x3a7a>
    93f1:	48 8b 85 e8 e9 ff ff 	mov    -0x1618(%rbp),%rax
    93f8:	48 85 c0             	test   %rax,%rax
    93fb:	74 07                	je     9404 <func_8+0x3a81>
    93fd:	b8 01 00 00 00       	mov    $0x1,%eax
    9402:	eb 05                	jmp    9409 <func_8+0x3a86>
    9404:	b8 00 00 00 00       	mov    $0x0,%eax
    9409:	89 de                	mov    %ebx,%esi
    940b:	89 c7                	mov    %eax,%edi
    940d:	e8 f3 b1 ff ff       	callq  4605 <safe_sub_func_int32_t_s_s>
    9412:	98                   	cwtl   
    9413:	be 0a 00 00 00       	mov    $0xa,%esi
    9418:	89 c7                	mov    %eax,%edi
    941a:	e8 73 b0 ff ff       	callq  4492 <safe_lshift_func_int16_t_s_s>
    941f:	98                   	cwtl   
    9420:	39 85 b8 e5 ff ff    	cmp    %eax,-0x1a48(%rbp)
    9426:	0f 9c c0             	setl   %al
    9429:	0f b6 c0             	movzbl %al,%eax
    942c:	89 85 e4 e5 ff ff    	mov    %eax,-0x1a1c(%rbp)
    9432:	8b 85 e4 e5 ff ff    	mov    -0x1a1c(%rbp),%eax
    9438:	0f be c0             	movsbl %al,%eax
    943b:	be 03 00 00 00       	mov    $0x3,%esi
    9440:	89 c7                	mov    %eax,%edi
    9442:	e8 ee ae ff ff       	callq  4335 <safe_rshift_func_int8_t_s_s>
    9447:	48 0f be c0          	movsbq %al,%rax
    944b:	48 c7 c6 fc ff ff ff 	mov    $0xfffffffffffffffc,%rsi
    9452:	48 89 c7             	mov    %rax,%rdi
    9455:	e8 55 bc ff ff       	callq  50af <safe_div_func_uint64_t_u_u>
    945a:	8b 85 88 e4 ff ff    	mov    -0x1b78(%rbp),%eax
    9460:	89 85 b4 e5 ff ff    	mov    %eax,-0x1a4c(%rbp)
    9466:	0f b7 85 84 e4 ff ff 	movzwl -0x1b7c(%rbp),%eax
    946d:	66 85 c0             	test   %ax,%ax
    9470:	0f 85 9f 00 00 00    	jne    9515 <func_8+0x3b92>
    9476:	8b 85 8c e4 ff ff    	mov    -0x1b74(%rbp),%eax
    947c:	3b 85 88 e4 ff ff    	cmp    -0x1b78(%rbp),%eax
    9482:	0f 93 c0             	setae  %al
    9485:	0f b6 d0             	movzbl %al,%edx
    9488:	0f b6 85 a3 e4 ff ff 	movzbl -0x1b5d(%rbp),%eax
    948f:	48 35 98 ee 00 00    	xor    $0xee98,%rax
    9495:	48 85 c0             	test   %rax,%rax
    9498:	0f 9e c0             	setle  %al
    949b:	0f b6 c8             	movzbl %al,%ecx
    949e:	48 8b 05 e3 f9 00 00 	mov    0xf9e3(%rip),%rax        # 18e88 <g_1291>
    94a5:	48 8b 00             	mov    (%rax),%rax
    94a8:	48 39 85 10 e8 ff ff 	cmp    %rax,-0x17f0(%rbp)
    94af:	0f 94 c0             	sete   %al
    94b2:	0f b6 c0             	movzbl %al,%eax
    94b5:	31 c8                	xor    %ecx,%eax
    94b7:	48 98                	cltq   
    94b9:	48 89 d6             	mov    %rdx,%rsi
    94bc:	48 89 c7             	mov    %rax,%rdi
    94bf:	e8 e4 b3 ff ff       	callq  48a8 <safe_sub_func_int64_t_s_s>
    94c4:	0f b7 95 de e8 ff ff 	movzwl -0x1722(%rbp),%edx
    94cb:	0f b7 d2             	movzwl %dx,%edx
    94ce:	48 09 d0             	or     %rdx,%rax
    94d1:	48 39 85 90 e7 ff ff 	cmp    %rax,-0x1870(%rbp)
    94d8:	0f 9c c0             	setl   %al
    94db:	0f b6 c0             	movzbl %al,%eax
    94de:	31 85 fc e4 ff ff    	xor    %eax,-0x1b04(%rbp)
    94e4:	48 8b 95 a0 e9 ff ff 	mov    -0x1660(%rbp),%rdx
    94eb:	48 8b 85 20 e8 ff ff 	mov    -0x17e0(%rbp),%rax
    94f2:	48 89 10             	mov    %rdx,(%rax)
    94f5:	8b 85 c0 e4 ff ff    	mov    -0x1b40(%rbp),%eax
    94fb:	83 c0 01             	add    $0x1,%eax
    94fe:	89 85 c0 e4 ff ff    	mov    %eax,-0x1b40(%rbp)
    9504:	8b 85 c0 e4 ff ff    	mov    -0x1b40(%rbp),%eax
    950a:	83 f8 08             	cmp    $0x8,%eax
    950d:	0f 8e 27 fe ff ff    	jle    933a <func_8+0x39b7>
    9513:	eb 01                	jmp    9516 <func_8+0x3b93>
    9515:	90                   	nop
    9516:	48 8b 85 70 e7 ff ff 	mov    -0x1890(%rbp),%rax
    951d:	8b 00                	mov    (%rax),%eax
    951f:	85 c0                	test   %eax,%eax
    9521:	0f 85 20 04 00 00    	jne    9947 <func_8+0x3fc4>
    9527:	c6 85 9d e4 ff ff 01 	movb   $0x1,-0x1b63(%rbp)
    952e:	e9 05 04 00 00       	jmpq   9938 <func_8+0x3fb5>
    9533:	48 c7 85 28 e8 ff ff 	movq   $0x0,-0x17d8(%rbp)
    953a:	00 00 00 00 
    953e:	48 8d 05 53 df 00 00 	lea    0xdf53(%rip),%rax        # 17498 <g_46+0x8>
    9545:	48 89 85 30 e8 ff ff 	mov    %rax,-0x17d0(%rbp)
    954c:	48 8d 85 dc e4 ff ff 	lea    -0x1b24(%rbp),%rax
    9553:	48 89 85 38 e8 ff ff 	mov    %rax,-0x17c8(%rbp)
    955a:	48 8d 85 d0 e4 ff ff 	lea    -0x1b30(%rbp),%rax
    9561:	48 89 85 40 e8 ff ff 	mov    %rax,-0x17c0(%rbp)
    9568:	48 c7 85 48 e8 ff ff 	movq   $0x0,-0x17b8(%rbp)
    956f:	00 00 00 00 
    9573:	48 8d 85 c0 e4 ff ff 	lea    -0x1b40(%rbp),%rax
    957a:	48 89 85 40 ee ff ff 	mov    %rax,-0x11c0(%rbp)
    9581:	48 8d 85 dc e4 ff ff 	lea    -0x1b24(%rbp),%rax
    9588:	48 89 85 48 ee ff ff 	mov    %rax,-0x11b8(%rbp)
    958f:	48 8d 85 cc e4 ff ff 	lea    -0x1b34(%rbp),%rax
    9596:	48 89 85 50 ee ff ff 	mov    %rax,-0x11b0(%rbp)
    959d:	48 8d 85 c0 eb ff ff 	lea    -0x1440(%rbp),%rax
    95a4:	48 89 85 58 ee ff ff 	mov    %rax,-0x11a8(%rbp)
    95ab:	48 c7 85 60 ee ff ff 	movq   $0x0,-0x11a0(%rbp)
    95b2:	00 00 00 00 
    95b6:	48 8d 85 c0 eb ff ff 	lea    -0x1440(%rbp),%rax
    95bd:	48 89 85 68 ee ff ff 	mov    %rax,-0x1198(%rbp)
    95c4:	48 8d 85 c0 e4 ff ff 	lea    -0x1b40(%rbp),%rax
    95cb:	48 89 85 70 ee ff ff 	mov    %rax,-0x1190(%rbp)
    95d2:	48 8d 85 c0 eb ff ff 	lea    -0x1440(%rbp),%rax
    95d9:	48 89 85 78 ee ff ff 	mov    %rax,-0x1188(%rbp)
    95e0:	48 8d 85 cc e4 ff ff 	lea    -0x1b34(%rbp),%rax
    95e7:	48 89 85 80 ee ff ff 	mov    %rax,-0x1180(%rbp)
    95ee:	48 8d 85 c4 e4 ff ff 	lea    -0x1b3c(%rbp),%rax
    95f5:	48 89 85 88 ee ff ff 	mov    %rax,-0x1178(%rbp)
    95fc:	48 c7 85 90 ee ff ff 	movq   $0x0,-0x1170(%rbp)
    9603:	00 00 00 00 
    9607:	48 8d 85 c4 e4 ff ff 	lea    -0x1b3c(%rbp),%rax
    960e:	48 89 85 98 ee ff ff 	mov    %rax,-0x1168(%rbp)
    9615:	48 8d 85 c0 e4 ff ff 	lea    -0x1b40(%rbp),%rax
    961c:	48 89 85 a0 ee ff ff 	mov    %rax,-0x1160(%rbp)
    9623:	48 8d 85 dc e4 ff ff 	lea    -0x1b24(%rbp),%rax
    962a:	48 89 85 a8 ee ff ff 	mov    %rax,-0x1158(%rbp)
    9631:	48 8d 85 cc e4 ff ff 	lea    -0x1b34(%rbp),%rax
    9638:	48 89 85 b0 ee ff ff 	mov    %rax,-0x1150(%rbp)
    963f:	48 8d 85 c0 eb ff ff 	lea    -0x1440(%rbp),%rax
    9646:	48 89 85 b8 ee ff ff 	mov    %rax,-0x1148(%rbp)
    964d:	48 c7 85 c0 ee ff ff 	movq   $0x0,-0x1140(%rbp)
    9654:	00 00 00 00 
    9658:	48 8d 85 c0 eb ff ff 	lea    -0x1440(%rbp),%rax
    965f:	48 89 85 c8 ee ff ff 	mov    %rax,-0x1138(%rbp)
    9666:	48 8d 85 c0 e4 ff ff 	lea    -0x1b40(%rbp),%rax
    966d:	48 89 85 d0 ee ff ff 	mov    %rax,-0x1130(%rbp)
    9674:	48 8d 85 c0 eb ff ff 	lea    -0x1440(%rbp),%rax
    967b:	48 89 85 d8 ee ff ff 	mov    %rax,-0x1128(%rbp)
    9682:	48 8d 85 cc e4 ff ff 	lea    -0x1b34(%rbp),%rax
    9689:	48 89 85 e0 ee ff ff 	mov    %rax,-0x1120(%rbp)
    9690:	48 8d 85 c4 e4 ff ff 	lea    -0x1b3c(%rbp),%rax
    9697:	48 89 85 e8 ee ff ff 	mov    %rax,-0x1118(%rbp)
    969e:	48 c7 85 f0 ee ff ff 	movq   $0x0,-0x1110(%rbp)
    96a5:	00 00 00 00 
    96a9:	48 8d 85 c4 e4 ff ff 	lea    -0x1b3c(%rbp),%rax
    96b0:	48 89 85 f8 ee ff ff 	mov    %rax,-0x1108(%rbp)
    96b7:	48 8d 85 c0 e4 ff ff 	lea    -0x1b40(%rbp),%rax
    96be:	48 89 85 00 ef ff ff 	mov    %rax,-0x1100(%rbp)
    96c5:	48 8d 85 dc e4 ff ff 	lea    -0x1b24(%rbp),%rax
    96cc:	48 89 85 08 ef ff ff 	mov    %rax,-0x10f8(%rbp)
    96d3:	48 8d 85 cc e4 ff ff 	lea    -0x1b34(%rbp),%rax
    96da:	48 89 85 10 ef ff ff 	mov    %rax,-0x10f0(%rbp)
    96e1:	48 8d 85 c0 eb ff ff 	lea    -0x1440(%rbp),%rax
    96e8:	48 89 85 18 ef ff ff 	mov    %rax,-0x10e8(%rbp)
    96ef:	48 c7 85 20 ef ff ff 	movq   $0x0,-0x10e0(%rbp)
    96f6:	00 00 00 00 
    96fa:	48 8d 85 c0 eb ff ff 	lea    -0x1440(%rbp),%rax
    9701:	48 89 85 28 ef ff ff 	mov    %rax,-0x10d8(%rbp)
    9708:	48 8d 85 c0 e4 ff ff 	lea    -0x1b40(%rbp),%rax
    970f:	48 89 85 30 ef ff ff 	mov    %rax,-0x10d0(%rbp)
    9716:	48 8d 85 c0 eb ff ff 	lea    -0x1440(%rbp),%rax
    971d:	48 89 85 38 ef ff ff 	mov    %rax,-0x10c8(%rbp)
    9724:	48 8d 85 cc e4 ff ff 	lea    -0x1b34(%rbp),%rax
    972b:	48 89 85 40 ef ff ff 	mov    %rax,-0x10c0(%rbp)
    9732:	48 8d 85 c4 e4 ff ff 	lea    -0x1b3c(%rbp),%rax
    9739:	48 89 85 48 ef ff ff 	mov    %rax,-0x10b8(%rbp)
    9740:	48 c7 85 50 ef ff ff 	movq   $0x0,-0x10b0(%rbp)
    9747:	00 00 00 00 
    974b:	48 8d 85 c4 e4 ff ff 	lea    -0x1b3c(%rbp),%rax
    9752:	48 89 85 58 ef ff ff 	mov    %rax,-0x10a8(%rbp)
    9759:	48 8d 85 c0 e4 ff ff 	lea    -0x1b40(%rbp),%rax
    9760:	48 89 85 60 ef ff ff 	mov    %rax,-0x10a0(%rbp)
    9767:	48 8d 85 dc e4 ff ff 	lea    -0x1b24(%rbp),%rax
    976e:	48 89 85 68 ef ff ff 	mov    %rax,-0x1098(%rbp)
    9775:	48 8d 85 cc e4 ff ff 	lea    -0x1b34(%rbp),%rax
    977c:	48 89 85 70 ef ff ff 	mov    %rax,-0x1090(%rbp)
    9783:	48 8d 85 c0 eb ff ff 	lea    -0x1440(%rbp),%rax
    978a:	48 89 85 78 ef ff ff 	mov    %rax,-0x1088(%rbp)
    9791:	48 c7 85 80 ef ff ff 	movq   $0x0,-0x1080(%rbp)
    9798:	00 00 00 00 
    979c:	48 8d 85 c0 eb ff ff 	lea    -0x1440(%rbp),%rax
    97a3:	48 89 85 88 ef ff ff 	mov    %rax,-0x1078(%rbp)
    97aa:	48 8d 85 c0 e4 ff ff 	lea    -0x1b40(%rbp),%rax
    97b1:	48 89 85 90 ef ff ff 	mov    %rax,-0x1070(%rbp)
    97b8:	48 8d 85 c0 eb ff ff 	lea    -0x1440(%rbp),%rax
    97bf:	48 89 85 98 ef ff ff 	mov    %rax,-0x1068(%rbp)
    97c6:	48 8d 85 cc e4 ff ff 	lea    -0x1b34(%rbp),%rax
    97cd:	48 89 85 a0 ef ff ff 	mov    %rax,-0x1060(%rbp)
    97d4:	48 8d 85 c4 e4 ff ff 	lea    -0x1b3c(%rbp),%rax
    97db:	48 89 85 a8 ef ff ff 	mov    %rax,-0x1058(%rbp)
    97e2:	48 c7 85 b0 ef ff ff 	movq   $0x0,-0x1050(%rbp)
    97e9:	00 00 00 00 
    97ed:	48 8d 85 c4 e4 ff ff 	lea    -0x1b3c(%rbp),%rax
    97f4:	48 89 85 b8 ef ff ff 	mov    %rax,-0x1048(%rbp)
    97fb:	48 8d 85 c0 e4 ff ff 	lea    -0x1b40(%rbp),%rax
    9802:	48 89 85 c0 ef ff ff 	mov    %rax,-0x1040(%rbp)
    9809:	48 8d 85 dc e4 ff ff 	lea    -0x1b24(%rbp),%rax
    9810:	48 89 85 c8 ef ff ff 	mov    %rax,-0x1038(%rbp)
    9817:	48 8d 85 cc e4 ff ff 	lea    -0x1b34(%rbp),%rax
    981e:	48 89 85 d0 ef ff ff 	mov    %rax,-0x1030(%rbp)
    9825:	48 8d 85 c0 eb ff ff 	lea    -0x1440(%rbp),%rax
    982c:	48 89 85 d8 ef ff ff 	mov    %rax,-0x1028(%rbp)
    9833:	48 c7 85 e0 ef ff ff 	movq   $0x0,-0x1020(%rbp)
    983a:	00 00 00 00 
    983e:	48 8d 85 c0 eb ff ff 	lea    -0x1440(%rbp),%rax
    9845:	48 89 85 e8 ef ff ff 	mov    %rax,-0x1018(%rbp)
    984c:	48 8d 85 c0 e4 ff ff 	lea    -0x1b40(%rbp),%rax
    9853:	48 89 85 f0 ef ff ff 	mov    %rax,-0x1010(%rbp)
    985a:	48 8d 85 c0 eb ff ff 	lea    -0x1440(%rbp),%rax
    9861:	48 89 85 f8 ef ff ff 	mov    %rax,-0x1008(%rbp)
    9868:	48 8d 85 cc e4 ff ff 	lea    -0x1b34(%rbp),%rax
    986f:	48 89 85 00 f0 ff ff 	mov    %rax,-0x1000(%rbp)
    9876:	48 8d 85 c4 e4 ff ff 	lea    -0x1b3c(%rbp),%rax
    987d:	48 89 85 08 f0 ff ff 	mov    %rax,-0xff8(%rbp)
    9884:	48 8d 05 89 dc 00 00 	lea    0xdc89(%rip),%rax        # 17514 <g_414+0x14>
    988b:	48 89 85 10 f0 ff ff 	mov    %rax,-0xff0(%rbp)
    9892:	48 8d 85 c8 e4 ff ff 	lea    -0x1b38(%rbp),%rax
    9899:	48 89 85 18 f0 ff ff 	mov    %rax,-0xfe8(%rbp)
    98a0:	48 8d 85 f8 e5 ff ff 	lea    -0x1a08(%rbp),%rax
    98a7:	48 89 85 70 eb ff ff 	mov    %rax,-0x1490(%rbp)
    98ae:	48 c7 85 78 eb ff ff 	movq   $0x0,-0x1488(%rbp)
    98b5:	00 00 00 00 
    98b9:	48 8d 85 f8 e5 ff ff 	lea    -0x1a08(%rbp),%rax
    98c0:	48 89 85 80 eb ff ff 	mov    %rax,-0x1480(%rbp)
    98c7:	48 8d 85 f8 e5 ff ff 	lea    -0x1a08(%rbp),%rax
    98ce:	48 89 85 88 eb ff ff 	mov    %rax,-0x1478(%rbp)
    98d5:	48 c7 85 90 eb ff ff 	movq   $0x0,-0x1470(%rbp)
    98dc:	00 00 00 00 
    98e0:	48 8d 85 f8 e5 ff ff 	lea    -0x1a08(%rbp),%rax
    98e7:	48 89 85 98 eb ff ff 	mov    %rax,-0x1468(%rbp)
    98ee:	48 8d 85 f8 e5 ff ff 	lea    -0x1a08(%rbp),%rax
    98f5:	48 89 85 a0 eb ff ff 	mov    %rax,-0x1460(%rbp)
    98fc:	48 8d 85 70 eb ff ff 	lea    -0x1490(%rbp),%rax
    9903:	48 83 c0 10          	add    $0x10,%rax
    9907:	48 89 85 50 e8 ff ff 	mov    %rax,-0x17b0(%rbp)
    990e:	48 8d 85 e0 e4 ff ff 	lea    -0x1b20(%rbp),%rax
    9915:	48 89 85 28 e8 ff ff 	mov    %rax,-0x17d8(%rbp)
    991c:	83 85 08 e5 ff ff 01 	addl   $0x1,-0x1af8(%rbp)
    9923:	48 8b 85 50 e8 ff ff 	mov    -0x17b0(%rbp),%rax
    992a:	48 c7 00 00 00 00 00 	movq   $0x0,(%rax)
    9931:	80 85 9d e4 ff ff 01 	addb   $0x1,-0x1b63(%rbp)
    9938:	80 bd 9d e4 ff ff 05 	cmpb   $0x5,-0x1b63(%rbp)
    993f:	0f 86 ee fb ff ff    	jbe    9533 <func_8+0x3bb0>
    9945:	eb 01                	jmp    9948 <func_8+0x3fc5>
    9947:	90                   	nop
    9948:	0f b7 05 23 df 00 00 	movzwl 0xdf23(%rip),%eax        # 17872 <g_851>
    994f:	83 e8 01             	sub    $0x1,%eax
    9952:	66 89 05 19 df 00 00 	mov    %ax,0xdf19(%rip)        # 17872 <g_851>
    9959:	0f b7 05 12 df 00 00 	movzwl 0xdf12(%rip),%eax        # 17872 <g_851>
    9960:	66 85 c0             	test   %ax,%ax
    9963:	0f 8f 10 f9 ff ff    	jg     9279 <func_8+0x38f6>
    9969:	48 8b 85 28 e9 ff ff 	mov    -0x16d8(%rbp),%rax
    9970:	89 c2                	mov    %eax,%edx
    9972:	0f b7 85 84 e4 ff ff 	movzwl -0x1b7c(%rbp),%eax
    9979:	0f be c0             	movsbl %al,%eax
    997c:	89 d6                	mov    %edx,%esi
    997e:	89 c7                	mov    %eax,%edi
    9980:	e8 e7 a9 ff ff       	callq  436c <safe_rshift_func_int8_t_s_u>
    9985:	44 0f be e8          	movsbl %al,%r13d
    9989:	48 8b 05 50 f4 00 00 	mov    0xf450(%rip),%rax        # 18de0 <g_674>
    9990:	0f b6 00             	movzbl (%rax),%eax
    9993:	0f be c0             	movsbl %al,%eax
    9996:	39 85 88 e4 ff ff    	cmp    %eax,-0x1b78(%rbp)
    999c:	0f 95 c0             	setne  %al
    999f:	44 0f b6 f0          	movzbl %al,%r14d
    99a3:	0f b7 85 84 e4 ff ff 	movzwl -0x1b7c(%rbp),%eax
    99aa:	0f b7 d8             	movzwl %ax,%ebx
    99ad:	b8 ff ff ff ff       	mov    $0xffffffff,%eax
    99b2:	44 0f be e0          	movsbl %al,%r12d
    99b6:	48 8b 05 bb f4 00 00 	mov    0xf4bb(%rip),%rax        # 18e78 <g_1253>
    99bd:	48 8b 00             	mov    (%rax),%rax
    99c0:	8b 00                	mov    (%rax),%eax
    99c2:	3d 55 35 5d 9a       	cmp    $0x9a5d3555,%eax
    99c7:	0f 97 c0             	seta   %al
    99ca:	0f b6 d0             	movzbl %al,%edx
    99cd:	48 8b 85 70 e7 ff ff 	mov    -0x1890(%rbp),%rax
    99d4:	8b 00                	mov    (%rax),%eax
    99d6:	0f b6 c0             	movzbl %al,%eax
    99d9:	89 d6                	mov    %edx,%esi
    99db:	89 c7                	mov    %eax,%edi
    99dd:	e8 78 b1 ff ff       	callq  4b5a <safe_add_func_uint8_t_u_u>
    99e2:	0f b7 85 84 e4 ff ff 	movzwl -0x1b7c(%rbp),%eax
    99e9:	0f b7 c0             	movzwl %ax,%eax
    99ec:	39 85 88 e4 ff ff    	cmp    %eax,-0x1b78(%rbp)
    99f2:	0f 92 c0             	setb   %al
    99f5:	0f b6 c0             	movzbl %al,%eax
    99f8:	23 85 8c e4 ff ff    	and    -0x1b74(%rbp),%eax
    99fe:	89 c2                	mov    %eax,%edx
    9a00:	48 8b 05 51 dd 00 00 	mov    0xdd51(%rip),%rax        # 17758 <g_705+0x18>
    9a07:	48 39 c2             	cmp    %rax,%rdx
    9a0a:	0f 9f c0             	setg   %al
    9a0d:	0f b6 c0             	movzbl %al,%eax
    9a10:	44 89 e6             	mov    %r12d,%esi
    9a13:	89 c7                	mov    %eax,%edi
    9a15:	e8 d8 a7 ff ff       	callq  41f2 <safe_sub_func_int8_t_s_s>
    9a1a:	0f be c0             	movsbl %al,%eax
    9a1d:	be 01 00 00 00       	mov    $0x1,%esi
    9a22:	89 c7                	mov    %eax,%edi
    9a24:	e8 2c aa ff ff       	callq  4455 <safe_div_func_int16_t_s_s>
    9a29:	0f b6 c0             	movzbl %al,%eax
    9a2c:	89 de                	mov    %ebx,%esi
    9a2e:	89 c7                	mov    %eax,%edi
    9a30:	e8 58 b2 ff ff       	callq  4c8d <safe_rshift_func_uint8_t_u_s>
    9a35:	84 c0                	test   %al,%al
    9a37:	75 0a                	jne    9a43 <func_8+0x40c0>
    9a39:	8b 85 f8 e8 ff ff    	mov    -0x1708(%rbp),%eax
    9a3f:	85 c0                	test   %eax,%eax
    9a41:	74 07                	je     9a4a <func_8+0x40c7>
    9a43:	b8 01 00 00 00       	mov    $0x1,%eax
    9a48:	eb 05                	jmp    9a4f <func_8+0x40cc>
    9a4a:	b8 00 00 00 00       	mov    $0x0,%eax
    9a4f:	44 31 f0             	xor    %r14d,%eax
    9a52:	89 c2                	mov    %eax,%edx
    9a54:	8b 85 c0 eb ff ff    	mov    -0x1440(%rbp),%eax
    9a5a:	09 d0                	or     %edx,%eax
    9a5c:	89 85 c0 eb ff ff    	mov    %eax,-0x1440(%rbp)
    9a62:	8b 85 c0 eb ff ff    	mov    -0x1440(%rbp),%eax
    9a68:	48 63 d0             	movslq %eax,%rdx
    9a6b:	48 8b 05 7e de 00 00 	mov    0xde7e(%rip),%rax        # 178f0 <g_864+0x70>
    9a72:	48 39 c2             	cmp    %rax,%rdx
    9a75:	0f 94 c0             	sete   %al
    9a78:	0f b6 c0             	movzbl %al,%eax
    9a7b:	89 85 b4 e4 ff ff    	mov    %eax,-0x1b4c(%rbp)
    9a81:	8b 85 b4 e4 ff ff    	mov    -0x1b4c(%rbp),%eax
    9a87:	88 05 52 da 00 00    	mov    %al,0xda52(%rip)        # 174df <g_247+0x3>
    9a8d:	0f b6 05 4b da 00 00 	movzbl 0xda4b(%rip),%eax        # 174df <g_247+0x3>
    9a94:	0f b6 c0             	movzbl %al,%eax
    9a97:	41 39 c5             	cmp    %eax,%r13d
    9a9a:	0f 9f c0             	setg   %al
    9a9d:	0f b6 c0             	movzbl %al,%eax
    9aa0:	be 05 00 00 00       	mov    $0x5,%esi
    9aa5:	89 c7                	mov    %eax,%edi
    9aa7:	e8 a0 b1 ff ff       	callq  4c4c <safe_lshift_func_uint8_t_u_u>
    9aac:	38 85 9e e4 ff ff    	cmp    %al,-0x1b62(%rbp)
    9ab2:	0f 94 c0             	sete   %al
    9ab5:	0f b6 c0             	movzbl %al,%eax
    9ab8:	89 c6                	mov    %eax,%esi
    9aba:	bf 01 00 00 00       	mov    $0x1,%edi
    9abf:	e8 79 b2 ff ff       	callq  4d3d <safe_mul_func_uint16_t_u_u>
    9ac4:	0f b7 d0             	movzwl %ax,%edx
    9ac7:	8b 85 88 e4 ff ff    	mov    -0x1b78(%rbp),%eax
    9acd:	48 89 d6             	mov    %rdx,%rsi
    9ad0:	48 89 c7             	mov    %rax,%rdi
    9ad3:	e8 1f af ff ff       	callq  49f7 <safe_div_func_int64_t_s_s>
    9ad8:	31 85 3c e5 ff ff    	xor    %eax,-0x1ac4(%rbp)
    9ade:	e9 3e 12 00 00       	jmpq   ad21 <func_8+0x539e>
    9ae3:	48 b8 8b 8b 8b 8b 8b 	movabs $0x8b8b8b8b8b8b8b8b,%rax
    9aea:	8b 8b 8b 
    9aed:	48 89 85 40 e9 ff ff 	mov    %rax,-0x16c0(%rbp)
    9af4:	48 89 85 48 e9 ff ff 	mov    %rax,-0x16b8(%rbp)
    9afb:	48 89 85 50 e9 ff ff 	mov    %rax,-0x16b0(%rbp)
    9b02:	48 89 85 58 e9 ff ff 	mov    %rax,-0x16a8(%rbp)
    9b09:	48 89 85 60 e9 ff ff 	mov    %rax,-0x16a0(%rbp)
    9b10:	48 8d 85 d0 f0 ff ff 	lea    -0xf30(%rbp),%rax
    9b17:	48 05 98 00 00 00    	add    $0x98,%rax
    9b1d:	48 89 85 d8 e6 ff ff 	mov    %rax,-0x1928(%rbp)
    9b24:	c7 85 58 e5 ff ff 7a 	movl   $0x21d06e7a,-0x1aa8(%rbp)
    9b2b:	6e d0 21 
    9b2e:	48 8d 85 20 ed ff ff 	lea    -0x12e0(%rbp),%rax
    9b35:	48 8d 15 24 e2 00 00 	lea    0xe224(%rip),%rdx        # 17d60 <g_1533+0x368>
    9b3c:	b9 24 00 00 00       	mov    $0x24,%ecx
    9b41:	48 89 c7             	mov    %rax,%rdi
    9b44:	48 89 d6             	mov    %rdx,%rsi
    9b47:	f3 48 a5             	rep movsq %ds:(%rsi),%es:(%rdi)
    9b4a:	48 c7 85 e0 e6 ff ff 	movq   $0x0,-0x1920(%rbp)
    9b51:	00 00 00 00 
    9b55:	c7 85 10 e5 ff ff 00 	movl   $0x0,-0x1af0(%rbp)
    9b5c:	00 00 00 
    9b5f:	eb 22                	jmp    9b83 <func_8+0x4200>
    9b61:	8b 85 10 e5 ff ff    	mov    -0x1af0(%rbp),%eax
    9b67:	48 98                	cltq   
    9b69:	48 8d 95 20 ed ff ff 	lea    -0x12e0(%rbp),%rdx
    9b70:	48 83 ea 80          	sub    $0xffffffffffffff80,%rdx
    9b74:	48 89 94 c5 a0 e9 ff 	mov    %rdx,-0x1660(%rbp,%rax,8)
    9b7b:	ff 
    9b7c:	83 85 10 e5 ff ff 01 	addl   $0x1,-0x1af0(%rbp)
    9b83:	83 bd 10 e5 ff ff 06 	cmpl   $0x6,-0x1af0(%rbp)
    9b8a:	7e d5                	jle    9b61 <func_8+0x41de>
    9b8c:	48 8b 05 95 e8 00 00 	mov    0xe895(%rip),%rax        # 18428 <g_506>
    9b93:	0f b7 00             	movzwl (%rax),%eax
    9b96:	0f b7 c0             	movzwl %ax,%eax
    9b99:	be 01 00 00 00       	mov    $0x1,%esi
    9b9e:	89 c7                	mov    %eax,%edi
    9ba0:	e8 98 b1 ff ff       	callq  4d3d <safe_mul_func_uint16_t_u_u>
    9ba5:	89 c2                	mov    %eax,%edx
    9ba7:	48 8b 05 1a e8 00 00 	mov    0xe81a(%rip),%rax        # 183c8 <g_284>
    9bae:	48 8b 00             	mov    (%rax),%rax
    9bb1:	48 8b 00             	mov    (%rax),%rax
    9bb4:	0f b7 d2             	movzwl %dx,%edx
    9bb7:	89 10                	mov    %edx,(%rax)
    9bb9:	48 8b 05 b0 e7 00 00 	mov    0xe7b0(%rip),%rax        # 18370 <g_167>
    9bc0:	48 8b 00             	mov    (%rax),%rax
    9bc3:	48 89 85 e8 ea ff ff 	mov    %rax,-0x1518(%rbp)
    9bca:	c7 05 14 de 00 00 00 	movl   $0x0,0xde14(%rip)        # 179e8 <g_1375>
    9bd1:	00 00 00 
    9bd4:	e9 29 0d 00 00       	jmpq   a902 <func_8+0x4f7f>
    9bd9:	66 c7 85 aa e4 ff ff 	movw   $0xfff8,-0x1b56(%rbp)
    9be0:	f8 ff 
    9be2:	48 8d 05 cf d8 00 00 	lea    0xd8cf(%rip),%rax        # 174b8 <g_152>
    9be9:	48 89 85 e8 e6 ff ff 	mov    %rax,-0x1918(%rbp)
    9bf0:	c7 85 5c e5 ff ff 06 	movl   $0x6,-0x1aa4(%rbp)
    9bf7:	00 00 00 
    9bfa:	48 8d 85 30 e6 ff ff 	lea    -0x19d0(%rbp),%rax
    9c01:	48 89 85 f0 e6 ff ff 	mov    %rax,-0x1910(%rbp)
    9c08:	c6 85 9f e4 ff ff 47 	movb   $0x47,-0x1b61(%rbp)
    9c0f:	48 c7 85 f8 e6 ff ff 	movq   $0x1,-0x1908(%rbp)
    9c16:	01 00 00 00 
    9c1a:	c7 85 60 e5 ff ff 43 	movl   $0xc2b87643,-0x1aa0(%rbp)
    9c21:	76 b8 c2 
    9c24:	c7 45 c2 6d 34 34 6d 	movl   $0x6d34346d,-0x3e(%rbp)
    9c2b:	66 c7 45 c6 34 34    	movw   $0x3434,-0x3a(%rbp)
    9c31:	48 8d 85 40 ee ff ff 	lea    -0x11c0(%rbp),%rax
    9c38:	48 8d 15 41 e2 00 00 	lea    0xe241(%rip),%rdx        # 17e80 <g_1533+0x488>
    9c3f:	b9 51 00 00 00       	mov    $0x51,%ecx
    9c44:	48 89 c7             	mov    %rax,%rdi
    9c47:	48 89 d6             	mov    %rdx,%rsi
    9c4a:	f3 48 a5             	rep movsq %ds:(%rsi),%es:(%rdi)
    9c4d:	c7 85 14 e5 ff ff 00 	movl   $0x0,-0x1aec(%rbp)
    9c54:	00 00 00 
    9c57:	eb 1e                	jmp    9c77 <func_8+0x42f4>
    9c59:	8b 85 14 e5 ff ff    	mov    -0x1aec(%rbp),%eax
    9c5f:	48 98                	cltq   
    9c61:	48 8d 95 f8 e5 ff ff 	lea    -0x1a08(%rbp),%rdx
    9c68:	48 89 94 c5 70 eb ff 	mov    %rdx,-0x1490(%rbp,%rax,8)
    9c6f:	ff 
    9c70:	83 85 14 e5 ff ff 01 	addl   $0x1,-0x1aec(%rbp)
    9c77:	83 bd 14 e5 ff ff 09 	cmpl   $0x9,-0x1aec(%rbp)
    9c7e:	7e d9                	jle    9c59 <func_8+0x42d6>
    9c80:	8b 05 62 dd 00 00    	mov    0xdd62(%rip),%eax        # 179e8 <g_1375>
    9c86:	41 89 c5             	mov    %eax,%r13d
    9c89:	8b 05 d9 d3 00 00    	mov    0xd3d9(%rip),%eax        # 17068 <g_41+0x28>
    9c8f:	39 85 5c e5 ff ff    	cmp    %eax,-0x1aa4(%rbp)
    9c95:	7c 10                	jl     9ca7 <func_8+0x4324>
    9c97:	83 bd 5c e5 ff ff 00 	cmpl   $0x0,-0x1aa4(%rbp)
    9c9e:	74 07                	je     9ca7 <func_8+0x4324>
    9ca0:	b8 01 00 00 00       	mov    $0x1,%eax
    9ca5:	eb 05                	jmp    9cac <func_8+0x4329>
    9ca7:	b8 00 00 00 00       	mov    $0x0,%eax
    9cac:	0f be c0             	movsbl %al,%eax
    9caf:	89 c7                	mov    %eax,%edi
    9cb1:	e8 09 a5 ff ff       	callq  41bf <safe_unary_minus_func_int8_t_s>
    9cb6:	0f be d8             	movsbl %al,%ebx
    9cb9:	48 8b 05 b0 e6 00 00 	mov    0xe6b0(%rip),%rax        # 18370 <g_167>
    9cc0:	48 8b 00             	mov    (%rax),%rax
    9cc3:	8b 08                	mov    (%rax),%ecx
    9cc5:	83 bd 8c e4 ff ff 01 	cmpl   $0x1,-0x1b74(%rbp)
    9ccc:	0f 94 c0             	sete   %al
    9ccf:	0f b6 d0             	movzbl %al,%edx
    9cd2:	48 8b 05 97 e6 00 00 	mov    0xe697(%rip),%rax        # 18370 <g_167>
    9cd9:	48 8b 00             	mov    (%rax),%rax
    9cdc:	21 ca                	and    %ecx,%edx
    9cde:	89 10                	mov    %edx,(%rax)
    9ce0:	8b 10                	mov    (%rax),%edx
    9ce2:	0f b6 85 43 e9 ff ff 	movzbl -0x16bd(%rbp),%eax
    9ce9:	0f b6 c0             	movzbl %al,%eax
    9cec:	66 89 85 aa e4 ff ff 	mov    %ax,-0x1b56(%rbp)
    9cf3:	0f b7 85 aa e4 ff ff 	movzwl -0x1b56(%rbp),%eax
    9cfa:	39 c2                	cmp    %eax,%edx
    9cfc:	0f 94 c0             	sete   %al
    9cff:	44 0f b6 e0          	movzbl %al,%r12d
    9d03:	48 8b 05 1e d3 00 00 	mov    0xd31e(%rip),%rax        # 17028 <g_6>
    9d0a:	0f b6 c0             	movzbl %al,%eax
    9d0d:	be 00 00 00 00       	mov    $0x0,%esi
    9d12:	89 c7                	mov    %eax,%edi
    9d14:	e8 ec ae ff ff       	callq  4c05 <safe_lshift_func_uint8_t_u_s>
    9d19:	0f b6 d0             	movzbl %al,%edx
    9d1c:	48 8b 85 18 e6 ff ff 	mov    -0x19e8(%rbp),%rax
    9d23:	48 8b 00             	mov    (%rax),%rax
    9d26:	48 8b 00             	mov    (%rax),%rax
    9d29:	0f b7 08             	movzwl (%rax),%ecx
    9d2c:	44 89 e6             	mov    %r12d,%esi
    9d2f:	48 8b 85 18 e6 ff ff 	mov    -0x19e8(%rbp),%rax
    9d36:	48 8b 00             	mov    (%rax),%rax
    9d39:	48 8b 00             	mov    (%rax),%rax
    9d3c:	31 f1                	xor    %esi,%ecx
    9d3e:	66 89 08             	mov    %cx,(%rax)
    9d41:	0f b7 00             	movzwl (%rax),%eax
    9d44:	98                   	cwtl   
    9d45:	83 e0 01             	and    $0x1,%eax
    9d48:	39 c2                	cmp    %eax,%edx
    9d4a:	0f 9d c0             	setge  %al
    9d4d:	0f b6 c0             	movzbl %al,%eax
    9d50:	c7 85 48 e5 ff ff 38 	movl   $0x38,-0x1ab8(%rbp)
    9d57:	00 00 00 
    9d5a:	39 85 48 e5 ff ff    	cmp    %eax,-0x1ab8(%rbp)
    9d60:	0f 94 c0             	sete   %al
    9d63:	0f b6 d0             	movzbl %al,%edx
    9d66:	48 8b 85 e8 e6 ff ff 	mov    -0x1918(%rbp),%rax
    9d6d:	48 89 10             	mov    %rdx,(%rax)
    9d70:	48 8b 85 e8 e6 ff ff 	mov    -0x1918(%rbp),%rax
    9d77:	48 8b 10             	mov    (%rax),%rdx
    9d7a:	8b 85 54 e5 ff ff    	mov    -0x1aac(%rbp),%eax
    9d80:	48 89 d6             	mov    %rdx,%rsi
    9d83:	48 89 c7             	mov    %rax,%rdi
    9d86:	e8 c0 b2 ff ff       	callq  504b <safe_sub_func_uint64_t_u_u>
    9d8b:	89 de                	mov    %ebx,%esi
    9d8d:	89 c7                	mov    %eax,%edi
    9d8f:	e8 6b a9 ff ff       	callq  46ff <safe_div_func_int32_t_s_s>
    9d94:	48 98                	cltq   
    9d96:	4c 89 ee             	mov    %r13,%rsi
    9d99:	48 89 c7             	mov    %rax,%rdi
    9d9c:	e8 8d b2 ff ff       	callq  502e <safe_add_func_uint64_t_u_u>
    9da1:	48 8b 95 10 ea ff ff 	mov    -0x15f0(%rbp),%rdx
    9da8:	48 21 d0             	and    %rdx,%rax
    9dab:	48 85 c0             	test   %rax,%rax
    9dae:	0f 84 85 03 00 00    	je     a139 <func_8+0x47b6>
    9db4:	66 c7 85 ac e4 ff ff 	movw   $0xffe0,-0x1b54(%rbp)
    9dbb:	e0 ff 
    9dbd:	c7 05 c1 db 00 00 00 	movl   $0x0,0xdbc1(%rip)        # 17988 <g_1075>
    9dc4:	00 00 00 
    9dc7:	e9 62 01 00 00       	jmpq   9f2e <func_8+0x45ab>
    9dcc:	c6 85 a2 e4 ff ff 5e 	movb   $0x5e,-0x1b5e(%rbp)
    9dd3:	83 bd 8c e4 ff ff 00 	cmpl   $0x0,-0x1b74(%rbp)
    9dda:	0f 85 5f 01 00 00    	jne    9f3f <func_8+0x45bc>
    9de0:	8b 85 88 e4 ff ff    	mov    -0x1b78(%rbp),%eax
    9de6:	0f be d8             	movsbl %al,%ebx
    9de9:	0f b7 85 84 e4 ff ff 	movzwl -0x1b7c(%rbp),%eax
    9df0:	44 0f be e0          	movsbl %al,%r12d
    9df4:	48 8b 05 ad db 00 00 	mov    0xdbad(%rip),%rax        # 179a8 <g_1220>
    9dfb:	49 89 c6             	mov    %rax,%r14
    9dfe:	48 8d 85 30 e6 ff ff 	lea    -0x19d0(%rbp),%rax
    9e05:	48 39 85 f0 e6 ff ff 	cmp    %rax,-0x1910(%rbp)
    9e0c:	0f 94 c0             	sete   %al
    9e0f:	0f b6 c0             	movzbl %al,%eax
    9e12:	66 89 05 c9 d6 00 00 	mov    %ax,0xd6c9(%rip)        # 174e2 <g_261>
    9e19:	0f b7 05 c2 d6 00 00 	movzwl 0xd6c2(%rip),%eax        # 174e2 <g_261>
    9e20:	0f b7 c0             	movzwl %ax,%eax
    9e23:	be 45 10 00 00       	mov    $0x1045,%esi
    9e28:	89 c7                	mov    %eax,%edi
    9e2a:	e8 f0 ae ff ff       	callq  4d1f <safe_sub_func_uint16_t_u_u>
    9e2f:	44 0f b7 e8          	movzwl %ax,%r13d
    9e33:	8b 95 8c e4 ff ff    	mov    -0x1b74(%rbp),%edx
    9e39:	80 b5 a2 e4 ff ff 7e 	xorb   $0x7e,-0x1b5e(%rbp)
    9e40:	83 b5 e4 e4 ff ff fa 	xorl   $0xfffffffa,-0x1b1c(%rbp)
    9e47:	8b 85 88 e4 ff ff    	mov    -0x1b78(%rbp),%eax
    9e4d:	48 89 d6             	mov    %rdx,%rsi
    9e50:	48 89 c7             	mov    %rax,%rdi
    9e53:	e8 e9 a9 ff ff       	callq  4841 <safe_add_func_int64_t_s_s>
    9e58:	8b 95 88 e4 ff ff    	mov    -0x1b78(%rbp),%edx
    9e5e:	48 39 d0             	cmp    %rdx,%rax
    9e61:	0f 9d c0             	setge  %al
    9e64:	0f b6 c0             	movzbl %al,%eax
    9e67:	41 39 c5             	cmp    %eax,%r13d
    9e6a:	0f 94 c0             	sete   %al
    9e6d:	44 0f b6 e8          	movzbl %al,%r13d
    9e71:	8b 05 25 d2 00 00    	mov    0xd225(%rip),%eax        # 1709c <g_41+0x5c>
    9e77:	0f b6 c0             	movzbl %al,%eax
    9e7a:	be 04 00 00 00       	mov    $0x4,%esi
    9e7f:	89 c7                	mov    %eax,%edi
    9e81:	e8 07 ae ff ff       	callq  4c8d <safe_rshift_func_uint8_t_u_s>
    9e86:	8b 85 88 e9 ff ff    	mov    -0x1678(%rbp),%eax
    9e8c:	85 c0                	test   %eax,%eax
    9e8e:	74 07                	je     9e97 <func_8+0x4514>
    9e90:	b8 01 00 00 00       	mov    $0x1,%eax
    9e95:	eb 05                	jmp    9e9c <func_8+0x4519>
    9e97:	b8 00 00 00 00       	mov    $0x0,%eax
    9e9c:	89 c2                	mov    %eax,%edx
    9e9e:	8b 85 8c e4 ff ff    	mov    -0x1b74(%rbp),%eax
    9ea4:	09 d0                	or     %edx,%eax
    9ea6:	0f b7 c0             	movzwl %ax,%eax
    9ea9:	44 89 ee             	mov    %r13d,%esi
    9eac:	89 c7                	mov    %eax,%edi
    9eae:	e8 8a ae ff ff       	callq  4d3d <safe_mul_func_uint16_t_u_u>
    9eb3:	8b 85 88 e4 ff ff    	mov    -0x1b78(%rbp),%eax
    9eb9:	be ef b8 10 26       	mov    $0x2610b8ef,%esi
    9ebe:	89 c7                	mov    %eax,%edi
    9ec0:	e8 38 b0 ff ff       	callq  4efd <safe_mod_func_uint32_t_u_u>
    9ec5:	89 c0                	mov    %eax,%eax
    9ec7:	4c 89 f6             	mov    %r14,%rsi
    9eca:	48 89 c7             	mov    %rax,%rdi
    9ecd:	e8 79 b1 ff ff       	callq  504b <safe_sub_func_uint64_t_u_u>
    9ed2:	0f be c0             	movsbl %al,%eax
    9ed5:	44 89 e6             	mov    %r12d,%esi
    9ed8:	89 c7                	mov    %eax,%edi
    9eda:	e8 33 a3 ff ff       	callq  4212 <safe_mul_func_int8_t_s_s>
    9edf:	3c f9                	cmp    $0xf9,%al
    9ee1:	0f 9c c0             	setl   %al
    9ee4:	0f b6 c0             	movzbl %al,%eax
    9ee7:	be 0a 00 00 00       	mov    $0xa,%esi
    9eec:	89 c7                	mov    %eax,%edi
    9eee:	e8 87 af ff ff       	callq  4e7a <safe_rshift_func_uint16_t_u_u>
    9ef3:	0f b7 c0             	movzwl %ax,%eax
    9ef6:	48 8b 15 cb e4 00 00 	mov    0xe4cb(%rip),%rdx        # 183c8 <g_284>
    9efd:	4c 8b 22             	mov    (%rdx),%r12
    9f00:	89 de                	mov    %ebx,%esi
    9f02:	89 c7                	mov    %eax,%edi
    9f04:	e8 00 1b 00 00       	callq  ba09 <func_101>
    9f09:	49 89 04 24          	mov    %rax,(%r12)
    9f0d:	48 8b 05 5c e4 00 00 	mov    0xe45c(%rip),%rax        # 18370 <g_167>
    9f14:	48 8b 00             	mov    (%rax),%rax
    9f17:	8b 95 88 e4 ff ff    	mov    -0x1b78(%rbp),%edx
    9f1d:	89 10                	mov    %edx,(%rax)
    9f1f:	8b 05 63 da 00 00    	mov    0xda63(%rip),%eax        # 17988 <g_1075>
    9f25:	83 c0 01             	add    $0x1,%eax
    9f28:	89 05 5a da 00 00    	mov    %eax,0xda5a(%rip)        # 17988 <g_1075>
    9f2e:	8b 05 54 da 00 00    	mov    0xda54(%rip),%eax        # 17988 <g_1075>
    9f34:	83 f8 3a             	cmp    $0x3a,%eax
    9f37:	0f 86 8f fe ff ff    	jbe    9dcc <func_8+0x4449>
    9f3d:	eb 01                	jmp    9f40 <func_8+0x45bd>
    9f3f:	90                   	nop
    9f40:	c7 05 26 da 00 00 00 	movl   $0x0,0xda26(%rip)        # 17970 <g_894>
    9f47:	00 00 00 
    9f4a:	e9 8b 00 00 00       	jmpq   9fda <func_8+0x4657>
    9f4f:	48 c7 85 80 ec ff ff 	movq   $0x0,-0x1380(%rbp)
    9f56:	00 00 00 00 
    9f5a:	48 c7 85 88 ec ff ff 	movq   $0x0,-0x1378(%rbp)
    9f61:	00 00 00 00 
    9f65:	48 c7 85 90 ec ff ff 	movq   $0x0,-0x1370(%rbp)
    9f6c:	00 00 00 00 
    9f70:	48 c7 85 98 ec ff ff 	movq   $0x0,-0x1368(%rbp)
    9f77:	00 00 00 00 
    9f7b:	48 c7 85 a0 ec ff ff 	movq   $0x0,-0x1360(%rbp)
    9f82:	00 00 00 00 
    9f86:	48 c7 85 a8 ec ff ff 	movq   $0x0,-0x1358(%rbp)
    9f8d:	00 00 00 00 
    9f91:	48 8d 85 80 ec ff ff 	lea    -0x1380(%rbp),%rax
    9f98:	48 83 c0 28          	add    $0x28,%rax
    9f9c:	48 89 85 20 e7 ff ff 	mov    %rax,-0x18e0(%rbp)
    9fa3:	48 8b 05 1e e4 00 00 	mov    0xe41e(%rip),%rax        # 183c8 <g_284>
    9faa:	48 8b 00             	mov    (%rax),%rax
    9fad:	48 8b 00             	mov    (%rax),%rax
    9fb0:	8b 00                	mov    (%rax),%eax
    9fb2:	85 c0                	test   %eax,%eax
    9fb4:	75 35                	jne    9feb <func_8+0x4668>
    9fb6:	80 ad 9f e4 ff ff 01 	subb   $0x1,-0x1b61(%rbp)
    9fbd:	48 8b 85 20 e7 ff ff 	mov    -0x18e0(%rbp),%rax
    9fc4:	48 c7 00 00 00 00 00 	movq   $0x0,(%rax)
    9fcb:	8b 05 9f d9 00 00    	mov    0xd99f(%rip),%eax        # 17970 <g_894>
    9fd1:	83 c0 01             	add    $0x1,%eax
    9fd4:	89 05 96 d9 00 00    	mov    %eax,0xd996(%rip)        # 17970 <g_894>
    9fda:	8b 05 90 d9 00 00    	mov    0xd990(%rip),%eax        # 17970 <g_894>
    9fe0:	83 f8 03             	cmp    $0x3,%eax
    9fe3:	0f 86 66 ff ff ff    	jbe    9f4f <func_8+0x45cc>
    9fe9:	eb 01                	jmp    9fec <func_8+0x4669>
    9feb:	90                   	nop
    9fec:	c7 85 cc e4 ff ff f4 	movl   $0xfffffff4,-0x1b34(%rbp)
    9ff3:	ff ff ff 
    9ff6:	e9 2a 01 00 00       	jmpq   a125 <func_8+0x47a2>
    9ffb:	48 8d 05 9a d4 00 00 	lea    0xd49a(%rip),%rax        # 1749c <g_61>
    a002:	48 89 85 28 e7 ff ff 	mov    %rax,-0x18d8(%rbp)
    a009:	c7 85 74 e5 ff ff 84 	movl   $0x9db4884,-0x1a8c(%rbp)
    a010:	48 db 09 
    a013:	48 8b 05 56 e3 00 00 	mov    0xe356(%rip),%rax        # 18370 <g_167>
    a01a:	48 8b 00             	mov    (%rax),%rax
    a01d:	8b 00                	mov    (%rax),%eax
    a01f:	85 c0                	test   %eax,%eax
    a021:	0f 85 b7 05 00 00    	jne    a5de <func_8+0x4c5b>
    a027:	bf 66 58 00 00       	mov    $0x5866,%edi
    a02c:	e8 6c a3 ff ff       	callq  439d <safe_unary_minus_func_int16_t_s>
    a031:	0f b7 15 aa d4 00 00 	movzwl 0xd4aa(%rip),%edx        # 174e2 <g_261>
    a038:	31 d0                	xor    %edx,%eax
    a03a:	66 89 05 a1 d4 00 00 	mov    %ax,0xd4a1(%rip)        # 174e2 <g_261>
    a041:	0f b7 05 9a d4 00 00 	movzwl 0xd49a(%rip),%eax        # 174e2 <g_261>
    a048:	0f b7 c0             	movzwl %ax,%eax
    a04b:	be 03 00 00 00       	mov    $0x3,%esi
    a050:	89 c7                	mov    %eax,%edi
    a052:	e8 67 ad ff ff       	callq  4dbe <safe_lshift_func_uint16_t_u_s>
    a057:	0f b7 85 84 e4 ff ff 	movzwl -0x1b7c(%rbp),%eax
    a05e:	0f be d0             	movsbl %al,%edx
    a061:	8b 8d 50 e5 ff ff    	mov    -0x1ab0(%rbp),%ecx
    a067:	48 8b 85 28 e7 ff ff 	mov    -0x18d8(%rbp),%rax
    a06e:	89 08                	mov    %ecx,(%rax)
    a070:	48 8b 85 28 e7 ff ff 	mov    -0x18d8(%rbp),%rax
    a077:	8b 00                	mov    (%rax),%eax
    a079:	89 d6                	mov    %edx,%esi
    a07b:	89 c7                	mov    %eax,%edi
    a07d:	e8 87 19 00 00       	callq  ba09 <func_101>
    a082:	8b 85 88 e4 ff ff    	mov    -0x1b78(%rbp),%eax
    a088:	0f b6 c0             	movzbl %al,%eax
    a08b:	83 e0 01             	and    $0x1,%eax
    a08e:	be 01 00 00 00       	mov    $0x1,%esi
    a093:	89 c7                	mov    %eax,%edi
    a095:	e8 24 ac ff ff       	callq  4cbe <safe_rshift_func_uint8_t_u_u>
    a09a:	89 c2                	mov    %eax,%edx
    a09c:	48 8b 05 25 e3 00 00 	mov    0xe325(%rip),%rax        # 183c8 <g_284>
    a0a3:	48 8b 00             	mov    (%rax),%rax
    a0a6:	48 8b 00             	mov    (%rax),%rax
    a0a9:	0f b6 d2             	movzbl %dl,%edx
    a0ac:	89 10                	mov    %edx,(%rax)
    a0ae:	48 8b 05 6b e3 00 00 	mov    0xe36b(%rip),%rax        # 18420 <g_494>
    a0b5:	8b 00                	mov    (%rax),%eax
    a0b7:	85 c0                	test   %eax,%eax
    a0b9:	0f 85 22 05 00 00    	jne    a5e1 <func_8+0x4c5e>
    a0bf:	48 8b 85 30 e6 ff ff 	mov    -0x19d0(%rbp),%rax
    a0c6:	48 bb 23 57 03 00 93 	movabs $0xe9c5269300035723,%rbx
    a0cd:	26 c5 e9 
    a0d0:	48 89 18             	mov    %rbx,(%rax)
    a0d3:	8b 85 74 e5 ff ff    	mov    -0x1a8c(%rbp),%eax
    a0d9:	48 98                	cltq   
    a0db:	48 be 23 57 03 00 93 	movabs $0xe9c5269300035723,%rsi
    a0e2:	26 c5 e9 
    a0e5:	48 89 c7             	mov    %rax,%rdi
    a0e8:	e8 93 af ff ff       	callq  5080 <safe_mod_func_uint64_t_u_u>
    a0ed:	48 8b 15 7c e2 00 00 	mov    0xe27c(%rip),%rdx        # 18370 <g_167>
    a0f4:	48 8b 12             	mov    (%rdx),%rdx
    a0f7:	8b 12                	mov    (%rdx),%edx
    a0f9:	31 c2                	xor    %eax,%edx
    a0fb:	48 8b 05 6e e2 00 00 	mov    0xe26e(%rip),%rax        # 18370 <g_167>
    a102:	48 8b 00             	mov    (%rax),%rax
    a105:	89 10                	mov    %edx,(%rax)
    a107:	8b 85 cc e4 ff ff    	mov    -0x1b34(%rbp),%eax
    a10d:	0f b7 c0             	movzwl %ax,%eax
    a110:	be 09 00 00 00       	mov    $0x9,%esi
    a115:	89 c7                	mov    %eax,%edi
    a117:	e8 e3 ab ff ff       	callq  4cff <safe_add_func_uint16_t_u_u>
    a11c:	0f b7 c0             	movzwl %ax,%eax
    a11f:	89 85 cc e4 ff ff    	mov    %eax,-0x1b34(%rbp)
    a125:	8b 85 cc e4 ff ff    	mov    -0x1b34(%rbp),%eax
    a12b:	83 f8 f8             	cmp    $0xfffffff8,%eax
    a12e:	0f 8d c7 fe ff ff    	jge    9ffb <func_8+0x4678>
    a134:	e9 a9 04 00 00       	jmpq   a5e2 <func_8+0x4c5f>
    a139:	c7 85 64 e5 ff ff b6 	movl   $0xc8e302b6,-0x1a9c(%rbp)
    a140:	02 e3 c8 
    a143:	48 8d 85 38 e6 ff ff 	lea    -0x19c8(%rbp),%rax
    a14a:	48 89 85 00 e7 ff ff 	mov    %rax,-0x1900(%rbp)
    a151:	c7 85 68 e5 ff ff 06 	movl   $0x6,-0x1a98(%rbp)
    a158:	00 00 00 
    a15b:	48 8d 85 d0 e8 ff ff 	lea    -0x1730(%rbp),%rax
    a162:	48 83 c0 0a          	add    $0xa,%rax
    a166:	48 89 85 60 e6 ff ff 	mov    %rax,-0x19a0(%rbp)
    a16d:	48 8d 85 60 e6 ff ff 	lea    -0x19a0(%rbp),%rax
    a174:	48 89 85 08 e7 ff ff 	mov    %rax,-0x18f8(%rbp)
    a17b:	c7 85 18 e5 ff ff 00 	movl   $0x0,-0x1ae8(%rbp)
    a182:	00 00 00 
    a185:	eb 1e                	jmp    a1a5 <func_8+0x4822>
    a187:	8b 85 18 e5 ff ff    	mov    -0x1ae8(%rbp),%eax
    a18d:	48 98                	cltq   
    a18f:	48 8d 15 32 e2 00 00 	lea    0xe232(%rip),%rdx        # 183c8 <g_284>
    a196:	48 89 94 c5 80 ea ff 	mov    %rdx,-0x1580(%rbp,%rax,8)
    a19d:	ff 
    a19e:	83 85 18 e5 ff ff 01 	addl   $0x1,-0x1ae8(%rbp)
    a1a5:	83 bd 18 e5 ff ff 08 	cmpl   $0x8,-0x1ae8(%rbp)
    a1ac:	7e d9                	jle    a187 <func_8+0x4804>
    a1ae:	48 8b 05 33 ec 00 00 	mov    0xec33(%rip),%rax        # 18de8 <g_673>
    a1b5:	48 8b 00             	mov    (%rax),%rax
    a1b8:	0f b6 00             	movzbl (%rax),%eax
    a1bb:	0f be d8             	movsbl %al,%ebx
    a1be:	8b 85 64 e5 ff ff    	mov    -0x1a9c(%rbp),%eax
    a1c4:	98                   	cwtl   
    a1c5:	be 03 00 00 00       	mov    $0x3,%esi
    a1ca:	89 c7                	mov    %eax,%edi
    a1cc:	e8 59 a3 ff ff       	callq  452a <safe_rshift_func_int16_t_s_s>
    a1d1:	89 c2                	mov    %eax,%edx
    a1d3:	0f b6 05 b6 d7 00 00 	movzbl 0xd7b6(%rip),%eax        # 17990 <g_1076>
    a1da:	21 d0                	and    %edx,%eax
    a1dc:	88 05 ae d7 00 00    	mov    %al,0xd7ae(%rip)        # 17990 <g_1076>
    a1e2:	0f b6 05 a7 d7 00 00 	movzbl 0xd7a7(%rip),%eax        # 17990 <g_1076>
    a1e9:	0f be c0             	movsbl %al,%eax
    a1ec:	89 de                	mov    %ebx,%esi
    a1ee:	89 c7                	mov    %eax,%edi
    a1f0:	e8 ac a0 ff ff       	callq  42a1 <safe_lshift_func_int8_t_s_s>
    a1f5:	0f be c0             	movsbl %al,%eax
    a1f8:	be ff ff ff ff       	mov    $0xffffffff,%esi
    a1fd:	89 c7                	mov    %eax,%edi
    a1ff:	e8 af a1 ff ff       	callq  43b3 <safe_add_func_int16_t_s_s>
    a204:	8b 85 50 e5 ff ff    	mov    -0x1ab0(%rbp),%eax
    a20a:	0f b6 d0             	movzbl %al,%edx
    a20d:	0f b7 85 84 e4 ff ff 	movzwl -0x1b7c(%rbp),%eax
    a214:	88 05 aa d2 00 00    	mov    %al,0xd2aa(%rip)        # 174c4 <g_159>
    a21a:	0f b6 05 a3 d2 00 00 	movzbl 0xd2a3(%rip),%eax        # 174c4 <g_159>
    a221:	0f b6 c0             	movzbl %al,%eax
    a224:	89 d6                	mov    %edx,%esi
    a226:	89 c7                	mov    %eax,%edi
    a228:	e8 66 a9 ff ff       	callq  4b93 <safe_mul_func_uint8_t_u_u>
    a22d:	0f b6 d8             	movzbl %al,%ebx
    a230:	48 8b 85 18 e6 ff ff 	mov    -0x19e8(%rbp),%rax
    a237:	48 8b 00             	mov    (%rax),%rax
    a23a:	48 85 c0             	test   %rax,%rax
    a23d:	0f 95 c0             	setne  %al
    a240:	0f b6 d0             	movzbl %al,%edx
    a243:	0f b6 05 0f d3 00 00 	movzbl 0xd30f(%rip),%eax        # 17559 <g_495>
    a24a:	83 e8 01             	sub    $0x1,%eax
    a24d:	88 05 06 d3 00 00    	mov    %al,0xd306(%rip)        # 17559 <g_495>
    a253:	0f b6 05 ff d2 00 00 	movzbl 0xd2ff(%rip),%eax        # 17559 <g_495>
    a25a:	0f b6 c0             	movzbl %al,%eax
    a25d:	89 d6                	mov    %edx,%esi
    a25f:	89 c7                	mov    %eax,%edi
    a261:	e8 e6 a9 ff ff       	callq  4c4c <safe_lshift_func_uint8_t_u_u>
    a266:	84 c0                	test   %al,%al
    a268:	75 0c                	jne    a276 <func_8+0x48f3>
    a26a:	0f b7 85 84 e4 ff ff 	movzwl -0x1b7c(%rbp),%eax
    a271:	66 85 c0             	test   %ax,%ax
    a274:	74 07                	je     a27d <func_8+0x48fa>
    a276:	b8 01 00 00 00       	mov    $0x1,%eax
    a27b:	eb 05                	jmp    a282 <func_8+0x48ff>
    a27d:	b8 00 00 00 00       	mov    $0x0,%eax
    a282:	89 c2                	mov    %eax,%edx
    a284:	48 8b 85 c8 e6 ff ff 	mov    -0x1938(%rbp),%rax
    a28b:	66 89 10             	mov    %dx,(%rax)
    a28e:	48 8b 85 c8 e6 ff ff 	mov    -0x1938(%rbp),%rax
    a295:	0f b7 00             	movzwl (%rax),%eax
    a298:	0f b7 c0             	movzwl %ax,%eax
    a29b:	89 de                	mov    %ebx,%esi
    a29d:	89 c7                	mov    %eax,%edi
    a29f:	e8 1a ab ff ff       	callq  4dbe <safe_lshift_func_uint16_t_u_s>
    a2a4:	0f b7 c0             	movzwl %ax,%eax
    a2a7:	48 ba ac 59 44 2f c1 	movabs $0xcc854bc12f4459ac,%rdx
    a2ae:	4b 85 cc 
    a2b1:	48 21 d0             	and    %rdx,%rax
    a2b4:	48 85 c0             	test   %rax,%rax
    a2b7:	74 31                	je     a2ea <func_8+0x4967>
    a2b9:	83 bd 28 e5 ff ff 00 	cmpl   $0x0,-0x1ad8(%rbp)
    a2c0:	74 05                	je     a2c7 <func_8+0x4944>
    a2c2:	e9 f2 f8 ff ff       	jmpq   9bb9 <func_8+0x4236>
    a2c7:	48 8b 05 a2 e0 00 00 	mov    0xe0a2(%rip),%rax        # 18370 <g_167>
    a2ce:	48 8b 00             	mov    (%rax),%rax
    a2d1:	8b 00                	mov    (%rax),%eax
    a2d3:	21 85 5c e5 ff ff    	and    %eax,-0x1aa4(%rbp)
    a2d9:	0f b7 85 84 e4 ff ff 	movzwl -0x1b7c(%rbp),%eax
    a2e0:	66 85 c0             	test   %ax,%ax
    a2e3:	74 26                	je     a30b <func_8+0x4988>
    a2e5:	e9 00 06 00 00       	jmpq   a8ea <func_8+0x4f67>
    a2ea:	48 8b 05 7f e0 00 00 	mov    0xe07f(%rip),%rax        # 18370 <g_167>
    a2f1:	48 8b 00             	mov    (%rax),%rax
    a2f4:	8b 00                	mov    (%rax),%eax
    a2f6:	85 c0                	test   %eax,%eax
    a2f8:	0f 85 23 0a 00 00    	jne    ad21 <func_8+0x539e>
    a2fe:	83 bd 64 e5 ff ff 00 	cmpl   $0x0,-0x1a9c(%rbp)
    a305:	0f 85 de 05 00 00    	jne    a8e9 <func_8+0x4f66>
    a30b:	8b 85 68 e5 ff ff    	mov    -0x1a98(%rbp),%eax
    a311:	98                   	cwtl   
    a312:	89 c6                	mov    %eax,%esi
    a314:	bf 7f a3 ff ff       	mov    $0xffffa37f,%edi
    a319:	e8 95 a0 ff ff       	callq  43b3 <safe_add_func_int16_t_s_s>
    a31e:	48 8b 85 c0 ea ff ff 	mov    -0x1540(%rbp),%rax
    a325:	48 85 c0             	test   %rax,%rax
    a328:	0f b7 85 84 e4 ff ff 	movzwl -0x1b7c(%rbp),%eax
    a32f:	66 85 c0             	test   %ax,%ax
    a332:	75 12                	jne    a346 <func_8+0x49c3>
    a334:	48 8b 05 bd d6 00 00 	mov    0xd6bd(%rip),%rax        # 179f8 <g_1533>
    a33b:	0f b6 85 67 e9 ff ff 	movzbl -0x1699(%rbp),%eax
    a342:	84 c0                	test   %al,%al
    a344:	74 07                	je     a34d <func_8+0x49ca>
    a346:	b8 01 00 00 00       	mov    $0x1,%eax
    a34b:	eb 05                	jmp    a352 <func_8+0x49cf>
    a34d:	b8 00 00 00 00       	mov    $0x0,%eax
    a352:	48 98                	cltq   
    a354:	25 ad 00 00 00       	and    $0xad,%eax
    a359:	48 89 c2             	mov    %rax,%rdx
    a35c:	0f b6 85 4b e9 ff ff 	movzbl -0x16b5(%rbp),%eax
    a363:	0f b6 c0             	movzbl %al,%eax
    a366:	48 39 c2             	cmp    %rax,%rdx
    a369:	0f 9e c2             	setle  %dl
    a36c:	48 8b 05 55 e0 00 00 	mov    0xe055(%rip),%rax        # 183c8 <g_284>
    a373:	48 8b 00             	mov    (%rax),%rax
    a376:	48 8b 00             	mov    (%rax),%rax
    a379:	0f b6 d2             	movzbl %dl,%edx
    a37c:	89 10                	mov    %edx,(%rax)
    a37e:	8b 00                	mov    (%rax),%eax
    a380:	85 c0                	test   %eax,%eax
    a382:	0f 84 c1 00 00 00    	je     a449 <func_8+0x4ac6>
    a388:	c6 85 a1 e4 ff ff 05 	movb   $0x5,-0x1b5f(%rbp)
    a38f:	83 bd 88 e4 ff ff 00 	cmpl   $0x0,-0x1b78(%rbp)
    a396:	74 60                	je     a3f8 <func_8+0x4a75>
    a398:	0f b6 85 5e e9 ff ff 	movzbl -0x16a2(%rbp),%eax
    a39f:	0f b6 d0             	movzbl %al,%edx
    a3a2:	48 83 bd 08 e7 ff ff 	cmpq   $0x0,-0x18f8(%rbp)
    a3a9:	00 
    a3aa:	0f 95 c0             	setne  %al
    a3ad:	0f b6 c0             	movzbl %al,%eax
    a3b0:	48 39 85 f8 e6 ff ff 	cmp    %rax,-0x1908(%rbp)
    a3b7:	0f 94 c0             	sete   %al
    a3ba:	0f b6 c0             	movzbl %al,%eax
    a3bd:	21 d0                	and    %edx,%eax
    a3bf:	89 c2                	mov    %eax,%edx
    a3c1:	48 8b 05 08 eb 00 00 	mov    0xeb08(%rip),%rax        # 18ed0 <g_1540+0x10>
    a3c8:	48 39 85 d8 e6 ff ff 	cmp    %rax,-0x1928(%rbp)
    a3cf:	0f 94 c0             	sete   %al
    a3d2:	0f b6 c0             	movzbl %al,%eax
    a3d5:	89 d6                	mov    %edx,%esi
    a3d7:	89 c7                	mov    %eax,%edi
    a3d9:	e8 03 a1 ff ff       	callq  44e1 <safe_lshift_func_int16_t_s_u>
    a3de:	0f be c0             	movsbl %al,%eax
    a3e1:	be ff ff ff ff       	mov    $0xffffffff,%esi
    a3e6:	89 c7                	mov    %eax,%edi
    a3e8:	e8 e7 9d ff ff       	callq  41d4 <safe_add_func_int8_t_s_s>
    a3ed:	84 c0                	test   %al,%al
    a3ef:	74 07                	je     a3f8 <func_8+0x4a75>
    a3f1:	b8 01 00 00 00       	mov    $0x1,%eax
    a3f6:	eb 05                	jmp    a3fd <func_8+0x4a7a>
    a3f8:	b8 00 00 00 00       	mov    $0x0,%eax
    a3fd:	3b 85 60 e5 ff ff    	cmp    -0x1aa0(%rbp),%eax
    a403:	0f 94 c0             	sete   %al
    a406:	0f b6 d0             	movzbl %al,%edx
    a409:	0f b7 85 aa e4 ff ff 	movzwl -0x1b56(%rbp),%eax
    a410:	39 c2                	cmp    %eax,%edx
    a412:	0f 9c c0             	setl   %al
    a415:	0f b6 c8             	movzbl %al,%ecx
    a418:	48 8b 05 01 dd 00 00 	mov    0xdd01(%rip),%rax        # 18120 <g_165>
    a41f:	8b 10                	mov    (%rax),%edx
    a421:	48 8b 05 f8 dc 00 00 	mov    0xdcf8(%rip),%rax        # 18120 <g_165>
    a428:	09 ca                	or     %ecx,%edx
    a42a:	89 10                	mov    %edx,(%rax)
    a42c:	8b 00                	mov    (%rax),%eax
    a42e:	0f b6 55 c5          	movzbl -0x3b(%rbp),%edx
    a432:	09 d0                	or     %edx,%eax
    a434:	88 45 c5             	mov    %al,-0x3b(%rbp)
    a437:	0f b6 45 c5          	movzbl -0x3b(%rbp),%eax
    a43b:	0f b6 c0             	movzbl %al,%eax
    a43e:	89 85 44 e5 ff ff    	mov    %eax,-0x1abc(%rbp)
    a444:	e9 99 01 00 00       	jmpq   a5e2 <func_8+0x4c5f>
    a449:	c7 85 6c e5 ff ff 9b 	movl   $0x729c279b,-0x1a94(%rbp)
    a450:	27 9c 72 
    a453:	48 c7 85 10 e7 ff ff 	movq   $0x0,-0x18f0(%rbp)
    a45a:	00 00 00 00 
    a45e:	48 c7 85 18 e7 ff ff 	movq   $0x0,-0x18e8(%rbp)
    a465:	00 00 00 00 
    a469:	c7 85 70 e5 ff ff 04 	movl   $0x4,-0x1a90(%rbp)
    a470:	00 00 00 
    a473:	c7 85 1c e5 ff ff 00 	movl   $0x0,-0x1ae4(%rbp)
    a47a:	00 00 00 
    a47d:	eb 1b                	jmp    a49a <func_8+0x4b17>
    a47f:	8b 85 1c e5 ff ff    	mov    -0x1ae4(%rbp),%eax
    a485:	48 98                	cltq   
    a487:	48 c7 84 c5 80 ec ff 	movq   $0xffffffffffffffff,-0x1380(%rbp,%rax,8)
    a48e:	ff ff ff ff ff 
    a493:	83 85 1c e5 ff ff 01 	addl   $0x1,-0x1ae4(%rbp)
    a49a:	83 bd 1c e5 ff ff 09 	cmpl   $0x9,-0x1ae4(%rbp)
    a4a1:	7e dc                	jle    a47f <func_8+0x4afc>
    a4a3:	48 8b 05 2e e9 00 00 	mov    0xe92e(%rip),%rax        # 18dd8 <g_562>
    a4aa:	8b 10                	mov    (%rax),%edx
    a4ac:	81 ca a5 e0 40 1d    	or     $0x1d40e0a5,%edx
    a4b2:	89 10                	mov    %edx,(%rax)
    a4b4:	8b 85 8c e4 ff ff    	mov    -0x1b74(%rbp),%eax
    a4ba:	89 85 6c e5 ff ff    	mov    %eax,-0x1a94(%rbp)
    a4c0:	48 c7 05 95 ee 00 00 	movq   $0x0,0xee95(%rip)        # 19360 <g_616>
    a4c7:	00 00 00 00 
    a4cb:	48 8b 05 8e ee 00 00 	mov    0xee8e(%rip),%rax        # 19360 <g_616>
    a4d2:	48 c7 85 18 e7 ff ff 	movq   $0x0,-0x18e8(%rbp)
    a4d9:	00 00 00 00 
    a4dd:	48 39 85 18 e7 ff ff 	cmp    %rax,-0x18e8(%rbp)
    a4e4:	0f 94 c0             	sete   %al
    a4e7:	0f b6 c0             	movzbl %al,%eax
    a4ea:	89 c6                	mov    %eax,%esi
    a4ec:	bf 1d 00 00 00       	mov    $0x1d,%edi
    a4f1:	e8 de 9c ff ff       	callq  41d4 <safe_add_func_int8_t_s_s>
    a4f6:	44 0f be e8          	movsbl %al,%r13d
    a4fa:	48 8b 85 88 ec ff ff 	mov    -0x1378(%rbp),%rax
    a501:	0f b7 d8             	movzwl %ax,%ebx
    a504:	0f b6 05 d4 cf 00 00 	movzbl 0xcfd4(%rip),%eax        # 174df <g_247+0x3>
    a50b:	44 0f b6 e0          	movzbl %al,%r12d
    a50f:	0f b7 85 84 e4 ff ff 	movzwl -0x1b7c(%rbp),%eax
    a516:	0f bf d0             	movswl %ax,%edx
    a519:	8b 85 60 e5 ff ff    	mov    -0x1aa0(%rbp),%eax
    a51f:	39 85 88 e4 ff ff    	cmp    %eax,-0x1b78(%rbp)
    a525:	0f 95 c0             	setne  %al
    a528:	0f b6 c0             	movzbl %al,%eax
    a52b:	89 d6                	mov    %edx,%esi
    a52d:	89 c7                	mov    %eax,%edi
    a52f:	e8 21 9f ff ff       	callq  4455 <safe_div_func_int16_t_s_s>
    a534:	c7 85 40 e5 ff ff 01 	movl   $0x1,-0x1ac0(%rbp)
    a53b:	00 00 00 
    a53e:	0f b6 45 c5          	movzbl -0x3b(%rbp),%eax
    a542:	0f be c0             	movsbl %al,%eax
    a545:	8b 95 40 e5 ff ff    	mov    -0x1ac0(%rbp),%edx
    a54b:	89 d6                	mov    %edx,%esi
    a54d:	89 c7                	mov    %eax,%edi
    a54f:	e8 4d 9d ff ff       	callq  42a1 <safe_lshift_func_int8_t_s_s>
    a554:	66 98                	cbtw   
    a556:	0f b7 c0             	movzwl %ax,%eax
    a559:	be 00 00 00 00       	mov    $0x0,%esi
    a55e:	89 c7                	mov    %eax,%edi
    a560:	e8 a1 a8 ff ff       	callq  4e06 <safe_lshift_func_uint16_t_u_u>
    a565:	0f b7 d0             	movzwl %ax,%edx
    a568:	0f b6 45 c5          	movzbl -0x3b(%rbp),%eax
    a56c:	0f b6 c0             	movzbl %al,%eax
    a56f:	48 89 d6             	mov    %rdx,%rsi
    a572:	48 89 c7             	mov    %rax,%rdi
    a575:	e8 c7 a2 ff ff       	callq  4841 <safe_add_func_int64_t_s_s>
    a57a:	0f b6 85 45 e9 ff ff 	movzbl -0x16bb(%rbp),%eax
    a581:	0f b6 c0             	movzbl %al,%eax
    a584:	48 c7 c6 ff ff ff ff 	mov    $0xffffffffffffffff,%rsi
    a58b:	48 89 c7             	mov    %rax,%rdi
    a58e:	e8 64 a4 ff ff       	callq  49f7 <safe_div_func_int64_t_s_s>
    a593:	8b 85 cc e4 ff ff    	mov    -0x1b34(%rbp),%eax
    a599:	0f b6 c0             	movzbl %al,%eax
    a59c:	44 89 e6             	mov    %r12d,%esi
    a59f:	89 c7                	mov    %eax,%edi
    a5a1:	e8 18 a7 ff ff       	callq  4cbe <safe_rshift_func_uint8_t_u_u>
    a5a6:	0f b6 c0             	movzbl %al,%eax
    a5a9:	89 de                	mov    %ebx,%esi
    a5ab:	89 c7                	mov    %eax,%edi
    a5ad:	e8 6d a7 ff ff       	callq  4d1f <safe_sub_func_uint16_t_u_u>
    a5b2:	0f b7 c0             	movzwl %ax,%eax
    a5b5:	44 31 e8             	xor    %r13d,%eax
    a5b8:	48 98                	cltq   
    a5ba:	48 be 5c c6 36 fa 02 	movabs $0x88348d02fa36c65c,%rsi
    a5c1:	8d 34 88 
    a5c4:	48 89 c7             	mov    %rax,%rdi
    a5c7:	e8 b4 aa ff ff       	callq  5080 <safe_mod_func_uint64_t_u_u>
    a5cc:	89 c2                	mov    %eax,%edx
    a5ce:	8b 85 70 e5 ff ff    	mov    -0x1a90(%rbp),%eax
    a5d4:	21 d0                	and    %edx,%eax
    a5d6:	89 85 70 e5 ff ff    	mov    %eax,-0x1a90(%rbp)
    a5dc:	eb 04                	jmp    a5e2 <func_8+0x4c5f>
    a5de:	90                   	nop
    a5df:	eb 01                	jmp    a5e2 <func_8+0x4c5f>
    a5e1:	90                   	nop
    a5e2:	c7 05 a4 ed 00 00 00 	movl   $0x0,0xeda4(%rip)        # 19390 <g_1305>
    a5e9:	00 00 00 
    a5ec:	e9 e8 02 00 00       	jmpq   a8d9 <func_8+0x4f56>
    a5f1:	66 c7 85 ae e4 ff ff 	movw   $0xce05,-0x1b52(%rbp)
    a5f8:	05 ce 
    a5fa:	c7 85 78 e5 ff ff 67 	movl   $0x5c4e0c67,-0x1a88(%rbp)
    a601:	0c 4e 5c 
    a604:	c7 85 20 e5 ff ff 00 	movl   $0x0,-0x1ae0(%rbp)
    a60b:	00 00 00 
    a60e:	eb 1a                	jmp    a62a <func_8+0x4ca7>
    a610:	8b 85 20 e5 ff ff    	mov    -0x1ae0(%rbp),%eax
    a616:	48 98                	cltq   
    a618:	c7 84 85 80 ec ff ff 	movl   $0x15887ca9,-0x1380(%rbp,%rax,4)
    a61f:	a9 7c 88 15 
    a623:	83 85 20 e5 ff ff 01 	addl   $0x1,-0x1ae0(%rbp)
    a62a:	83 bd 20 e5 ff ff 05 	cmpl   $0x5,-0x1ae0(%rbp)
    a631:	7e dd                	jle    a610 <func_8+0x4c8d>
    a633:	66 83 85 ae e4 ff ff 	addw   $0x1,-0x1b52(%rbp)
    a63a:	01 
    a63b:	8b 85 50 e5 ff ff    	mov    -0x1ab0(%rbp),%eax
    a641:	0f bf d8             	movswl %ax,%ebx
    a644:	48 8b 05 9d e7 00 00 	mov    0xe79d(%rip),%rax        # 18de8 <g_673>
    a64b:	48 8b 00             	mov    (%rax),%rax
    a64e:	0f b6 00             	movzbl (%rax),%eax
    a651:	44 0f b6 e0          	movzbl %al,%r12d
    a655:	0f b7 85 84 e4 ff ff 	movzwl -0x1b7c(%rbp),%eax
    a65c:	44 0f b7 e8          	movzwl %ax,%r13d
    a660:	8b 85 88 e4 ff ff    	mov    -0x1b78(%rbp),%eax
    a666:	89 c6                	mov    %eax,%esi
    a668:	bf 01 00 00 00       	mov    $0x1,%edi
    a66d:	e8 94 a7 ff ff       	callq  4e06 <safe_lshift_func_uint16_t_u_u>
    a672:	66 85 c0             	test   %ax,%ax
    a675:	74 11                	je     a688 <func_8+0x4d05>
    a677:	8b 85 c4 e4 ff ff    	mov    -0x1b3c(%rbp),%eax
    a67d:	85 c0                	test   %eax,%eax
    a67f:	74 07                	je     a688 <func_8+0x4d05>
    a681:	b8 01 00 00 00       	mov    $0x1,%eax
    a686:	eb 05                	jmp    a68d <func_8+0x4d0a>
    a688:	b8 00 00 00 00       	mov    $0x0,%eax
    a68d:	85 c0                	test   %eax,%eax
    a68f:	0f 95 c0             	setne  %al
    a692:	0f b6 c0             	movzbl %al,%eax
    a695:	8b 95 88 e4 ff ff    	mov    -0x1b78(%rbp),%edx
    a69b:	89 d6                	mov    %edx,%esi
    a69d:	89 c7                	mov    %eax,%edi
    a69f:	e8 bf 9e ff ff       	callq  4563 <safe_rshift_func_int16_t_s_u>
    a6a4:	98                   	cwtl   
    a6a5:	41 39 c5             	cmp    %eax,%r13d
    a6a8:	74 13                	je     a6bd <func_8+0x4d3a>
    a6aa:	0f b7 85 84 e4 ff ff 	movzwl -0x1b7c(%rbp),%eax
    a6b1:	66 85 c0             	test   %ax,%ax
    a6b4:	74 07                	je     a6bd <func_8+0x4d3a>
    a6b6:	b8 01 00 00 00       	mov    $0x1,%eax
    a6bb:	eb 05                	jmp    a6c2 <func_8+0x4d3f>
    a6bd:	b8 00 00 00 00       	mov    $0x0,%eax
    a6c2:	0f b7 d0             	movzwl %ax,%edx
    a6c5:	0f b7 85 ae e4 ff ff 	movzwl -0x1b52(%rbp),%eax
    a6cc:	89 d6                	mov    %edx,%esi
    a6ce:	89 c7                	mov    %eax,%edi
    a6d0:	e8 b9 a6 ff ff       	callq  4d8e <safe_div_func_uint16_t_u_u>
    a6d5:	44 89 e6             	mov    %r12d,%esi
    a6d8:	bf 00 00 00 00       	mov    $0x0,%edi
    a6dd:	e8 78 a4 ff ff       	callq  4b5a <safe_add_func_uint8_t_u_u>
    a6e2:	0f b7 85 ae e4 ff ff 	movzwl -0x1b52(%rbp),%eax
    a6e9:	66 89 85 a6 e4 ff ff 	mov    %ax,-0x1b5a(%rbp)
    a6f0:	0f b7 85 a6 e4 ff ff 	movzwl -0x1b5a(%rbp),%eax
    a6f7:	66 39 85 aa e4 ff ff 	cmp    %ax,-0x1b56(%rbp)
    a6fe:	75 07                	jne    a707 <func_8+0x4d84>
    a700:	b8 01 00 00 00       	mov    $0x1,%eax
    a705:	eb 05                	jmp    a70c <func_8+0x4d89>
    a707:	b8 00 00 00 00       	mov    $0x0,%eax
    a70c:	0f b6 c0             	movzbl %al,%eax
    a70f:	8b 95 8c e4 ff ff    	mov    -0x1b74(%rbp),%edx
    a715:	89 d6                	mov    %edx,%esi
    a717:	89 c7                	mov    %eax,%edi
    a719:	e8 a0 a5 ff ff       	callq  4cbe <safe_rshift_func_uint8_t_u_u>
    a71e:	0f b6 c0             	movzbl %al,%eax
    a721:	48 c7 c6 fc ff ff ff 	mov    $0xfffffffffffffffc,%rsi
    a728:	48 89 c7             	mov    %rax,%rdi
    a72b:	e8 7f a9 ff ff       	callq  50af <safe_div_func_uint64_t_u_u>
    a730:	98                   	cwtl   
    a731:	89 de                	mov    %ebx,%esi
    a733:	89 c7                	mov    %eax,%edi
    a735:	e8 bb 9c ff ff       	callq  43f5 <safe_mul_func_int16_t_s_s>
    a73a:	66 85 c0             	test   %ax,%ax
    a73d:	48 8b 95 a0 e9 ff ff 	mov    -0x1660(%rbp),%rdx
    a744:	48 8b 85 40 eb ff ff 	mov    -0x14c0(%rbp),%rax
    a74b:	48 39 c2             	cmp    %rax,%rdx
    a74e:	75 07                	jne    a757 <func_8+0x4dd4>
    a750:	ba f3 7c 9d 0e       	mov    $0xe9d7cf3,%edx
    a755:	eb 05                	jmp    a75c <func_8+0x4dd9>
    a757:	ba f2 7c 9d 0e       	mov    $0xe9d7cf2,%edx
    a75c:	48 8b 05 b5 d0 00 00 	mov    0xd0b5(%rip),%rax        # 17818 <g_705+0xd8>
    a763:	48 83 f8 3b          	cmp    $0x3b,%rax
    a767:	0f 9e c0             	setle  %al
    a76a:	0f b6 c0             	movzbl %al,%eax
    a76d:	89 d6                	mov    %edx,%esi
    a76f:	89 c7                	mov    %eax,%edi
    a771:	e8 f6 9b ff ff       	callq  436c <safe_rshift_func_int8_t_s_u>
    a776:	48 8d 05 8b dc 00 00 	lea    0xdc8b(%rip),%rax        # 18408 <g_343+0x8>
    a77d:	48 89 85 30 e7 ff ff 	mov    %rax,-0x18d0(%rbp)
    a784:	48 8d 85 d0 ea ff ff 	lea    -0x1530(%rbp),%rax
    a78b:	48 83 c0 08          	add    $0x8,%rax
    a78f:	48 89 85 38 e7 ff ff 	mov    %rax,-0x18c8(%rbp)
    a796:	48 8b 05 c3 d0 00 00 	mov    0xd0c3(%rip),%rax        # 17860 <g_722>
    a79d:	0f be d8             	movsbl %al,%ebx
    a7a0:	48 8b 05 d1 e6 00 00 	mov    0xe6d1(%rip),%rax        # 18e78 <g_1253>
    a7a7:	48 8b 00             	mov    (%rax),%rax
    a7aa:	8b 00                	mov    (%rax),%eax
    a7ac:	41 89 c4             	mov    %eax,%r12d
    a7af:	8b 85 88 e4 ff ff    	mov    -0x1b78(%rbp),%eax
    a7b5:	89 c6                	mov    %eax,%esi
    a7b7:	bf 00 00 00 00       	mov    $0x0,%edi
    a7bc:	e8 b9 a6 ff ff       	callq  4e7a <safe_rshift_func_uint16_t_u_u>
    a7c1:	0f b7 d0             	movzwl %ax,%edx
    a7c4:	48 8b 05 55 e6 00 00 	mov    0xe655(%rip),%rax        # 18e20 <g_1002>
    a7cb:	48 8b 00             	mov    (%rax),%rax
    a7ce:	48 8b 00             	mov    (%rax),%rax
    a7d1:	0f b7 c0             	movzwl %ax,%eax
    a7d4:	89 d6                	mov    %edx,%esi
    a7d6:	89 c7                	mov    %eax,%edi
    a7d8:	e8 22 a5 ff ff       	callq  4cff <safe_add_func_uint16_t_u_u>
    a7dd:	89 c2                	mov    %eax,%edx
    a7df:	8b 85 78 e5 ff ff    	mov    -0x1a88(%rbp),%eax
    a7e5:	31 d0                	xor    %edx,%eax
    a7e7:	0f b6 c0             	movzbl %al,%eax
    a7ea:	be 01 00 00 00       	mov    $0x1,%esi
    a7ef:	89 c7                	mov    %eax,%edi
    a7f1:	e8 9d a3 ff ff       	callq  4b93 <safe_mul_func_uint8_t_u_u>
    a7f6:	0f b6 c0             	movzbl %al,%eax
    a7f9:	39 85 8c e4 ff ff    	cmp    %eax,-0x1b74(%rbp)
    a7ff:	0f 96 c0             	setbe  %al
    a802:	0f b6 c0             	movzbl %al,%eax
    a805:	be 08 00 00 00       	mov    $0x8,%esi
    a80a:	89 c7                	mov    %eax,%edi
    a80c:	e8 2c a5 ff ff       	callq  4d3d <safe_mul_func_uint16_t_u_u>
    a811:	0f b7 c0             	movzwl %ax,%eax
    a814:	44 89 e6             	mov    %r12d,%esi
    a817:	89 c7                	mov    %eax,%edi
    a819:	e8 ae 9e ff ff       	callq  46cc <safe_mod_func_int32_t_s_s>
    a81e:	48 8b 85 a0 f0 ff ff 	mov    -0xf60(%rbp),%rax
    a825:	48 39 85 30 e7 ff ff 	cmp    %rax,-0x18d0(%rbp)
    a82c:	0f 95 c0             	setne  %al
    a82f:	0f b6 c8             	movzbl %al,%ecx
    a832:	48 8b 05 47 e6 00 00 	mov    0xe647(%rip),%rax        # 18e80 <g_1292>
    a839:	48 8b 30             	mov    (%rax),%rsi
    a83c:	48 8b 85 28 e6 ff ff 	mov    -0x19d8(%rbp),%rax
    a843:	48 8b 15 16 eb 00 00 	mov    0xeb16(%rip),%rdx        # 19360 <g_616>
    a84a:	48 89 10             	mov    %rdx,(%rax)
    a84d:	48 8b 00             	mov    (%rax),%rax
    a850:	48 39 c6             	cmp    %rax,%rsi
    a853:	40 0f 95 c6          	setne  %sil
    a857:	48 8b 85 e8 e6 ff ff 	mov    -0x1918(%rbp),%rax
    a85e:	48 8b 10             	mov    (%rax),%rdx
    a861:	48 63 c1             	movslq %ecx,%rax
    a864:	48 31 c2             	xor    %rax,%rdx
    a867:	48 8b 85 e8 e6 ff ff 	mov    -0x1918(%rbp),%rax
    a86e:	48 89 10             	mov    %rdx,(%rax)
    a871:	48 8b 85 e8 e6 ff ff 	mov    -0x1918(%rbp),%rax
    a878:	48 8b 10             	mov    (%rax),%rdx
    a87b:	8b 85 8c e4 ff ff    	mov    -0x1b74(%rbp),%eax
    a881:	48 39 c2             	cmp    %rax,%rdx
    a884:	0f 96 c0             	setbe  %al
    a887:	31 f0                	xor    %esi,%eax
    a889:	0f b6 c0             	movzbl %al,%eax
    a88c:	89 de                	mov    %ebx,%esi
    a88e:	89 c7                	mov    %eax,%edi
    a890:	e8 d5 99 ff ff       	callq  426a <safe_div_func_int8_t_s_s>
    a895:	8b 95 84 ec ff ff    	mov    -0x137c(%rbp),%edx
    a89b:	0f be c0             	movsbl %al,%eax
    a89e:	31 d0                	xor    %edx,%eax
    a8a0:	89 85 84 ec ff ff    	mov    %eax,-0x137c(%rbp)
    a8a6:	c7 05 40 d1 00 00 00 	movl   $0x0,0xd140(%rip)        # 179f0 <g_1407>
    a8ad:	00 00 00 
    a8b0:	90                   	nop
    a8b1:	8b 05 39 d1 00 00    	mov    0xd139(%rip),%eax        # 179f0 <g_1407>
    a8b7:	85 c0                	test   %eax,%eax
    a8b9:	75 0f                	jne    a8ca <func_8+0x4f47>
    a8bb:	48 8b 05 66 db 00 00 	mov    0xdb66(%rip),%rax        # 18428 <g_506>
    a8c2:	0f b7 00             	movzwl (%rax),%eax
    a8c5:	e9 5d 04 00 00       	jmpq   ad27 <func_8+0x53a4>
    a8ca:	8b 05 c0 ea 00 00    	mov    0xeac0(%rip),%eax        # 19390 <g_1305>
    a8d0:	83 c0 01             	add    $0x1,%eax
    a8d3:	89 05 b7 ea 00 00    	mov    %eax,0xeab7(%rip)        # 19390 <g_1305>
    a8d9:	8b 05 b1 ea 00 00    	mov    0xeab1(%rip),%eax        # 19390 <g_1305>
    a8df:	85 c0                	test   %eax,%eax
    a8e1:	0f 84 0a fd ff ff    	je     a5f1 <func_8+0x4c6e>
    a8e7:	eb 01                	jmp    a8ea <func_8+0x4f67>
    a8e9:	90                   	nop
    a8ea:	8b 05 f8 d0 00 00    	mov    0xd0f8(%rip),%eax        # 179e8 <g_1375>
    a8f0:	be 04 00 00 00       	mov    $0x4,%esi
    a8f5:	89 c7                	mov    %eax,%edi
    a8f7:	e8 ba 9c ff ff       	callq  45b6 <safe_add_func_int32_t_s_s>
    a8fc:	89 05 e6 d0 00 00    	mov    %eax,0xd0e6(%rip)        # 179e8 <g_1375>
    a902:	8b 05 e0 d0 00 00    	mov    0xd0e0(%rip),%eax        # 179e8 <g_1375>
    a908:	83 f8 14             	cmp    $0x14,%eax
    a90b:	0f 87 c8 f2 ff ff    	ja     9bd9 <func_8+0x4256>
    a911:	e9 0b 04 00 00       	jmpq   ad21 <func_8+0x539e>
    a916:	66 c7 85 60 e6 ff ff 	movw   $0xfff7,-0x19a0(%rbp)
    a91d:	f7 ff 
    a91f:	48 c7 85 e0 f7 ff ff 	movq   $0x0,-0x820(%rbp)
    a926:	00 00 00 00 
    a92a:	48 c7 85 e8 f7 ff ff 	movq   $0x0,-0x818(%rbp)
    a931:	00 00 00 00 
    a935:	48 8d 85 a6 e4 ff ff 	lea    -0x1b5a(%rbp),%rax
    a93c:	48 89 85 f0 f7 ff ff 	mov    %rax,-0x810(%rbp)
    a943:	48 c7 85 f8 f7 ff ff 	movq   $0x0,-0x808(%rbp)
    a94a:	00 00 00 00 
    a94e:	48 8d 85 a6 e4 ff ff 	lea    -0x1b5a(%rbp),%rax
    a955:	48 89 85 00 f8 ff ff 	mov    %rax,-0x800(%rbp)
    a95c:	48 c7 85 08 f8 ff ff 	movq   $0x0,-0x7f8(%rbp)
    a963:	00 00 00 00 
    a967:	48 c7 85 10 f8 ff ff 	movq   $0x0,-0x7f0(%rbp)
    a96e:	00 00 00 00 
    a972:	48 8d 85 d0 e8 ff ff 	lea    -0x1730(%rbp),%rax
    a979:	48 83 c0 0c          	add    $0xc,%rax
    a97d:	48 89 85 18 f8 ff ff 	mov    %rax,-0x7e8(%rbp)
    a984:	48 8d 85 60 e6 ff ff 	lea    -0x19a0(%rbp),%rax
    a98b:	48 89 85 20 f8 ff ff 	mov    %rax,-0x7e0(%rbp)
    a992:	48 8d 85 d0 e8 ff ff 	lea    -0x1730(%rbp),%rax
    a999:	48 83 c0 0c          	add    $0xc,%rax
    a99d:	48 89 85 28 f8 ff ff 	mov    %rax,-0x7d8(%rbp)
    a9a4:	48 8d 85 a6 e4 ff ff 	lea    -0x1b5a(%rbp),%rax
    a9ab:	48 89 85 30 f8 ff ff 	mov    %rax,-0x7d0(%rbp)
    a9b2:	48 8d 85 d0 e8 ff ff 	lea    -0x1730(%rbp),%rax
    a9b9:	48 83 c0 0c          	add    $0xc,%rax
    a9bd:	48 89 85 38 f8 ff ff 	mov    %rax,-0x7c8(%rbp)
    a9c4:	48 8d 85 a6 e4 ff ff 	lea    -0x1b5a(%rbp),%rax
    a9cb:	48 89 85 40 f8 ff ff 	mov    %rax,-0x7c0(%rbp)
    a9d2:	48 c7 85 48 f8 ff ff 	movq   $0x0,-0x7b8(%rbp)
    a9d9:	00 00 00 00 
    a9dd:	48 8d 85 a6 e4 ff ff 	lea    -0x1b5a(%rbp),%rax
    a9e4:	48 89 85 50 f8 ff ff 	mov    %rax,-0x7b0(%rbp)
    a9eb:	48 8d 85 a6 e4 ff ff 	lea    -0x1b5a(%rbp),%rax
    a9f2:	48 89 85 58 f8 ff ff 	mov    %rax,-0x7a8(%rbp)
    a9f9:	48 8d 85 d0 e8 ff ff 	lea    -0x1730(%rbp),%rax
    aa00:	48 83 c0 0c          	add    $0xc,%rax
    aa04:	48 89 85 60 f8 ff ff 	mov    %rax,-0x7a0(%rbp)
    aa0b:	48 c7 85 68 f8 ff ff 	movq   $0x0,-0x798(%rbp)
    aa12:	00 00 00 00 
    aa16:	48 8d 85 a6 e4 ff ff 	lea    -0x1b5a(%rbp),%rax
    aa1d:	48 89 85 70 f8 ff ff 	mov    %rax,-0x790(%rbp)
    aa24:	48 c7 85 78 f8 ff ff 	movq   $0x0,-0x788(%rbp)
    aa2b:	00 00 00 00 
    aa2f:	48 c7 85 80 f8 ff ff 	movq   $0x0,-0x780(%rbp)
    aa36:	00 00 00 00 
    aa3a:	48 8d 85 a6 e4 ff ff 	lea    -0x1b5a(%rbp),%rax
    aa41:	48 89 85 88 f8 ff ff 	mov    %rax,-0x778(%rbp)
    aa48:	48 c7 85 90 f8 ff ff 	movq   $0x0,-0x770(%rbp)
    aa4f:	00 00 00 00 
    aa53:	48 8d 85 a6 e4 ff ff 	lea    -0x1b5a(%rbp),%rax
    aa5a:	48 89 85 98 f8 ff ff 	mov    %rax,-0x768(%rbp)
    aa61:	48 c7 85 a0 f8 ff ff 	movq   $0x0,-0x760(%rbp)
    aa68:	00 00 00 00 
    aa6c:	48 c7 85 a8 f8 ff ff 	movq   $0x0,-0x758(%rbp)
    aa73:	00 00 00 00 
    aa77:	48 8d 85 a6 e4 ff ff 	lea    -0x1b5a(%rbp),%rax
    aa7e:	48 89 85 b0 f8 ff ff 	mov    %rax,-0x750(%rbp)
    aa85:	48 8d 85 d0 e8 ff ff 	lea    -0x1730(%rbp),%rax
    aa8c:	48 83 c0 0c          	add    $0xc,%rax
    aa90:	48 89 85 b8 f8 ff ff 	mov    %rax,-0x748(%rbp)
    aa97:	48 c7 85 c0 f8 ff ff 	movq   $0x0,-0x740(%rbp)
    aa9e:	00 00 00 00 
    aaa2:	48 8d 85 a6 e4 ff ff 	lea    -0x1b5a(%rbp),%rax
    aaa9:	48 89 85 c8 f8 ff ff 	mov    %rax,-0x738(%rbp)
    aab0:	48 c7 85 d0 f8 ff ff 	movq   $0x0,-0x730(%rbp)
    aab7:	00 00 00 00 
    aabb:	48 8d 85 d0 e8 ff ff 	lea    -0x1730(%rbp),%rax
    aac2:	48 83 c0 0c          	add    $0xc,%rax
    aac6:	48 89 85 d8 f8 ff ff 	mov    %rax,-0x728(%rbp)
    aacd:	48 8d 85 d0 e8 ff ff 	lea    -0x1730(%rbp),%rax
    aad4:	48 83 c0 0c          	add    $0xc,%rax
    aad8:	48 89 85 e0 f8 ff ff 	mov    %rax,-0x720(%rbp)
    aadf:	48 c7 85 e8 f8 ff ff 	movq   $0x0,-0x718(%rbp)
    aae6:	00 00 00 00 
    aaea:	48 c7 85 f0 f8 ff ff 	movq   $0x0,-0x710(%rbp)
    aaf1:	00 00 00 00 
    aaf5:	48 c7 85 88 e6 ff ff 	movq   $0x0,-0x1978(%rbp)
    aafc:	00 00 00 00 
    ab00:	48 8d 05 e9 e3 00 00 	lea    0xe3e9(%rip),%rax        # 18ef0 <g_1633>
    ab07:	48 89 85 90 e6 ff ff 	mov    %rax,-0x1970(%rbp)
    ab0e:	48 c7 85 98 e6 ff ff 	movq   $0x0,-0x1968(%rbp)
    ab15:	00 00 00 00 
    ab19:	48 c7 85 a0 e6 ff ff 	movq   $0x0,-0x1960(%rbp)
    ab20:	00 00 00 00 
    ab24:	48 c7 85 a8 e6 ff ff 	movq   $0x0,-0x1958(%rbp)
    ab2b:	00 00 00 00 
    ab2f:	48 8d 05 a7 c9 00 00 	lea    0xc9a7(%rip),%rax        # 174dd <g_247+0x1>
    ab36:	48 89 85 b0 e6 ff ff 	mov    %rax,-0x1950(%rbp)
    ab3d:	c7 85 34 e5 ff ff fe 	movl   $0xfffffffe,-0x1acc(%rbp)
    ab44:	ff ff ff 
    ab47:	c7 85 38 e5 ff ff 09 	movl   $0x9,-0x1ac8(%rbp)
    ab4e:	00 00 00 
    ab51:	c7 85 24 e5 ff ff 00 	movl   $0x0,-0x1adc(%rbp)
    ab58:	00 00 00 
    ab5b:	eb 1e                	jmp    ab7b <func_8+0x51f8>
    ab5d:	8b 85 24 e5 ff ff    	mov    -0x1adc(%rbp),%eax
    ab63:	48 98                	cltq   
    ab65:	48 8d 15 04 ce 00 00 	lea    0xce04(%rip),%rdx        # 17970 <g_894>
    ab6c:	48 89 94 c5 d0 f0 ff 	mov    %rdx,-0xf30(%rbp,%rax,8)
    ab73:	ff 
    ab74:	83 85 24 e5 ff ff 01 	addl   $0x1,-0x1adc(%rbp)
    ab7b:	83 bd 24 e5 ff ff 00 	cmpl   $0x0,-0x1adc(%rbp)
    ab82:	7e d9                	jle    ab5d <func_8+0x51da>
    ab84:	0f b7 85 60 e6 ff ff 	movzwl -0x19a0(%rbp),%eax
    ab8b:	0f bf d8             	movswl %ax,%ebx
    ab8e:	0f b7 05 4d c9 00 00 	movzwl 0xc94d(%rip),%eax        # 174e2 <g_261>
    ab95:	83 e8 01             	sub    $0x1,%eax
    ab98:	66 89 05 43 c9 00 00 	mov    %ax,0xc943(%rip)        # 174e2 <g_261>
    ab9f:	0f b7 85 60 e6 ff ff 	movzwl -0x19a0(%rbp),%eax
    aba6:	0f b7 c0             	movzwl %ax,%eax
    aba9:	be 0e 00 00 00       	mov    $0xe,%esi
    abae:	89 c7                	mov    %eax,%edi
    abb0:	e8 93 a2 ff ff       	callq  4e48 <safe_rshift_func_uint16_t_u_s>
    abb5:	66 85 c0             	test   %ax,%ax
    abb8:	0f 84 b5 00 00 00    	je     ac73 <func_8+0x52f0>
    abbe:	48 8b 05 5b e2 00 00 	mov    0xe25b(%rip),%rax        # 18e20 <g_1002>
    abc5:	48 8b 00             	mov    (%rax),%rax
    abc8:	48 8b 00             	mov    (%rax),%rax
    abcb:	49 89 c4             	mov    %rax,%r12
    abce:	48 8b 05 9b d7 00 00 	mov    0xd79b(%rip),%rax        # 18370 <g_167>
    abd5:	48 8b 00             	mov    (%rax),%rax
    abd8:	0f bf 95 a8 e4 ff ff 	movswl -0x1b58(%rbp),%edx
    abdf:	89 10                	mov    %edx,(%rax)
    abe1:	0f b7 85 60 e6 ff ff 	movzwl -0x19a0(%rbp),%eax
    abe8:	0f b7 c0             	movzwl %ax,%eax
    abeb:	48 89 85 80 e6 ff ff 	mov    %rax,-0x1980(%rbp)
    abf2:	48 8b 85 80 e6 ff ff 	mov    -0x1980(%rbp),%rax
    abf9:	48 89 c6             	mov    %rax,%rsi
    abfc:	48 bf 55 0a fe c1 3a 	movabs $0x85647e3ac1fe0a55,%rdi
    ac03:	7e 64 85 
    ac06:	e8 23 a4 ff ff       	callq  502e <safe_add_func_uint64_t_u_u>
    ac0b:	48 83 f8 fc          	cmp    $0xfffffffffffffffc,%rax
    ac0f:	0f 96 c0             	setbe  %al
    ac12:	0f b6 d0             	movzbl %al,%edx
    ac15:	48 8b 85 b0 e6 ff ff 	mov    -0x1950(%rbp),%rax
    ac1c:	0f b6 00             	movzbl (%rax),%eax
    ac1f:	89 c1                	mov    %eax,%ecx
    ac21:	89 d0                	mov    %edx,%eax
    ac23:	31 c8                	xor    %ecx,%eax
    ac25:	89 c2                	mov    %eax,%edx
    ac27:	48 8b 85 b0 e6 ff ff 	mov    -0x1950(%rbp),%rax
    ac2e:	88 10                	mov    %dl,(%rax)
    ac30:	48 8b 85 b0 e6 ff ff 	mov    -0x1950(%rbp),%rax
    ac37:	0f b6 00             	movzbl (%rax),%eax
    ac3a:	84 c0                	test   %al,%al
    ac3c:	75 07                	jne    ac45 <func_8+0x52c2>
    ac3e:	83 bd 8c e4 ff ff 00 	cmpl   $0x0,-0x1b74(%rbp)
    ac45:	48 8b 05 ac e2 00 00 	mov    0xe2ac(%rip),%rax        # 18ef8 <g_1632>
    ac4c:	48 89 85 90 e6 ff ff 	mov    %rax,-0x1970(%rbp)
    ac53:	48 83 bd 90 e6 ff ff 	cmpq   $0x0,-0x1970(%rbp)
    ac5a:	00 
    ac5b:	0f 94 c0             	sete   %al
    ac5e:	0f b6 c0             	movzbl %al,%eax
    ac61:	4c 89 e6             	mov    %r12,%rsi
    ac64:	48 89 c7             	mov    %rax,%rdi
    ac67:	e8 d5 9b ff ff       	callq  4841 <safe_add_func_int64_t_s_s>
    ac6c:	83 bd 34 e5 ff ff 00 	cmpl   $0x0,-0x1acc(%rbp)
    ac73:	8b 85 34 e5 ff ff    	mov    -0x1acc(%rbp),%eax
    ac79:	48 63 d0             	movslq %eax,%rdx
    ac7c:	0f b7 85 60 e6 ff ff 	movzwl -0x19a0(%rbp),%eax
    ac83:	0f b7 c0             	movzwl %ax,%eax
    ac86:	48 89 d6             	mov    %rdx,%rsi
    ac89:	48 89 c7             	mov    %rax,%rdi
    ac8c:	e8 b0 9b ff ff       	callq  4841 <safe_add_func_int64_t_s_s>
    ac91:	8b 95 34 e5 ff ff    	mov    -0x1acc(%rbp),%edx
    ac97:	48 63 d2             	movslq %edx,%rdx
    ac9a:	48 39 d0             	cmp    %rdx,%rax
    ac9d:	0f 95 c0             	setne  %al
    aca0:	0f b6 c0             	movzbl %al,%eax
    aca3:	39 85 34 e5 ff ff    	cmp    %eax,-0x1acc(%rbp)
    aca9:	0f 9c c0             	setl   %al
    acac:	0f b6 c0             	movzbl %al,%eax
    acaf:	39 85 88 e4 ff ff    	cmp    %eax,-0x1b78(%rbp)
    acb5:	0f 95 c0             	setne  %al
    acb8:	0f b6 c0             	movzbl %al,%eax
    acbb:	be 01 00 00 00       	mov    $0x1,%esi
    acc0:	89 c7                	mov    %eax,%edi
    acc2:	e8 3e 9f ff ff       	callq  4c05 <safe_lshift_func_uint8_t_u_s>
    acc7:	0f b6 c0             	movzbl %al,%eax
    acca:	89 85 34 e5 ff ff    	mov    %eax,-0x1acc(%rbp)
    acd0:	8b 85 34 e5 ff ff    	mov    -0x1acc(%rbp),%eax
    acd6:	89 c2                	mov    %eax,%edx
    acd8:	8b 05 02 c9 00 00    	mov    0xc902(%rip),%eax        # 175e0 <g_671+0x20>
    acde:	31 d0                	xor    %edx,%eax
    ace0:	98                   	cwtl   
    ace1:	89 de                	mov    %ebx,%esi
    ace3:	89 c7                	mov    %eax,%edi
    ace5:	e8 e9 96 ff ff       	callq  43d3 <safe_sub_func_int16_t_s_s>
    acea:	48 0f bf c0          	movswq %ax,%rax
    acee:	ba 01 00 00 00       	mov    $0x1,%edx
    acf3:	48 09 c2             	or     %rax,%rdx
    acf6:	48 b8 70 13 50 2b ff 	movabs $0xffffffff2b501370,%rax
    acfd:	ff ff ff 
    ad00:	48 39 c2             	cmp    %rax,%rdx
    ad03:	0f 97 c0             	seta   %al
    ad06:	0f b6 d0             	movzbl %al,%edx
    ad09:	0f b7 85 84 e4 ff ff 	movzwl -0x1b7c(%rbp),%eax
    ad10:	0f b7 c0             	movzwl %ax,%eax
    ad13:	39 c2                	cmp    %eax,%edx
    ad15:	0f 94 c0             	sete   %al
    ad18:	0f b6 c0             	movzbl %al,%eax
    ad1b:	89 85 38 e5 ff ff    	mov    %eax,-0x1ac8(%rbp)
    ad21:	8b 85 88 e4 ff ff    	mov    -0x1b78(%rbp),%eax
    ad27:	48 8b 5d c8          	mov    -0x38(%rbp),%rbx
    ad2b:	64 48 33 1c 25 28 00 	xor    %fs:0x28,%rbx
    ad32:	00 00 
    ad34:	74 05                	je     ad3b <func_8+0x53b8>
    ad36:	e8 35 93 ff ff       	callq  4070 <__stack_chk_fail@plt>
    ad3b:	48 81 c4 58 1b 00 00 	add    $0x1b58,%rsp
    ad42:	5b                   	pop    %rbx
    ad43:	41 5c                	pop    %r12
    ad45:	41 5d                	pop    %r13
    ad47:	41 5e                	pop    %r14
    ad49:	41 5f                	pop    %r15
    ad4b:	5d                   	pop    %rbp
    ad4c:	c3                   	retq   

000000000000ad4d <func_14>:
    ad4d:	f3 0f 1e fa          	endbr64 
    ad51:	55                   	push   %rbp
    ad52:	48 89 e5             	mov    %rsp,%rbp
    ad55:	41 55                	push   %r13
    ad57:	41 54                	push   %r12
    ad59:	53                   	push   %rbx
    ad5a:	48 81 ec 98 00 00 00 	sub    $0x98,%rsp
    ad61:	89 f9                	mov    %edi,%ecx
    ad63:	89 f0                	mov    %esi,%eax
    ad65:	48 89 95 50 ff ff ff 	mov    %rdx,-0xb0(%rbp)
    ad6c:	89 ca                	mov    %ecx,%edx
    ad6e:	88 95 5c ff ff ff    	mov    %dl,-0xa4(%rbp)
    ad74:	66 89 85 58 ff ff ff 	mov    %ax,-0xa8(%rbp)
    ad7b:	64 48 8b 04 25 28 00 	mov    %fs:0x28,%rax
    ad82:	00 00 
    ad84:	48 89 45 d8          	mov    %rax,-0x28(%rbp)
    ad88:	31 c0                	xor    %eax,%eax
    ad8a:	48 8d 05 cf e5 00 00 	lea    0xe5cf(%rip),%rax        # 19360 <g_616>
    ad91:	48 89 85 70 ff ff ff 	mov    %rax,-0x90(%rbp)
    ad98:	48 c7 85 78 ff ff ff 	movq   $0x0,-0x88(%rbp)
    ad9f:	00 00 00 00 
    ada3:	48 8d 05 1a c7 00 00 	lea    0xc71a(%rip),%rax        # 174c4 <g_159>
    adaa:	48 89 45 80          	mov    %rax,-0x80(%rbp)
    adae:	48 8d 05 2b c8 00 00 	lea    0xc82b(%rip),%rax        # 175e0 <g_671+0x20>
    adb5:	48 89 45 88          	mov    %rax,-0x78(%rbp)
    adb9:	66 c7 85 66 ff ff ff 	movw   $0x3,-0x9a(%rbp)
    adc0:	03 00 
    adc2:	48 8d 05 9f e5 00 00 	lea    0xe59f(%rip),%rax        # 19368 <g_993>
    adc9:	48 89 45 90          	mov    %rax,-0x70(%rbp)
    adcd:	c7 85 6c ff ff ff ff 	movl   $0xffffffff,-0x94(%rbp)
    add4:	ff ff ff 
    add7:	c7 05 97 cb 00 00 00 	movl   $0x0,0xcb97(%rip)        # 17978 <g_937>
    adde:	00 00 00 
    ade1:	90                   	nop
    ade2:	8b 05 90 cb 00 00    	mov    0xcb90(%rip),%eax        # 17978 <g_937>
    ade8:	83 f8 2d             	cmp    $0x2d,%eax
    adeb:	77 0c                	ja     adf9 <func_14+0xac>
    aded:	0f b6 85 5c ff ff ff 	movzbl -0xa4(%rbp),%eax
    adf4:	e9 a7 02 00 00       	jmpq   b0a0 <func_14+0x353>
    adf9:	8b 85 6c ff ff ff    	mov    -0x94(%rbp),%eax
    adff:	0f b7 d8             	movzwl %ax,%ebx
    ae02:	bf 2d 37 00 00       	mov    $0x372d,%edi
    ae07:	e8 91 95 ff ff       	callq  439d <safe_unary_minus_func_int16_t_s>
    ae0c:	48 8b 45 80          	mov    -0x80(%rbp),%rax
    ae10:	0f b6 00             	movzbl (%rax),%eax
    ae13:	8d 50 ff             	lea    -0x1(%rax),%edx
    ae16:	48 8b 45 80          	mov    -0x80(%rbp),%rax
    ae1a:	88 10                	mov    %dl,(%rax)
    ae1c:	0f b7 05 9f c6 00 00 	movzwl 0xc69f(%rip),%eax        # 174c2 <g_157>
    ae23:	44 0f bf e0          	movswl %ax,%r12d
    ae27:	be 06 00 00 00       	mov    $0x6,%esi
    ae2c:	bf 01 00 00 00       	mov    $0x1,%edi
    ae31:	e8 ff 94 ff ff       	callq  4335 <safe_rshift_func_int8_t_s_s>
    ae36:	8b 05 24 ca 00 00    	mov    0xca24(%rip),%eax        # 17860 <g_722>
    ae3c:	41 89 c5             	mov    %eax,%r13d
    ae3f:	0f b7 85 66 ff ff ff 	movzwl -0x9a(%rbp),%eax
    ae46:	be cb fe 00 00       	mov    $0xfecb,%esi
    ae4b:	89 c7                	mov    %eax,%edi
    ae4d:	e8 3c 9f ff ff       	callq  4d8e <safe_div_func_uint16_t_u_u>
    ae52:	0f b7 c0             	movzwl %ax,%eax
    ae55:	4c 89 ee             	mov    %r13,%rsi
    ae58:	48 89 c7             	mov    %rax,%rdi
    ae5b:	e8 20 a2 ff ff       	callq  5080 <safe_mod_func_uint64_t_u_u>
    ae60:	48 8b 45 88          	mov    -0x78(%rbp),%rax
    ae64:	48 8b 00             	mov    (%rax),%rax
    ae67:	48 8d 50 ff          	lea    -0x1(%rax),%rdx
    ae6b:	48 8b 45 88          	mov    -0x78(%rbp),%rax
    ae6f:	48 89 10             	mov    %rdx,(%rax)
    ae72:	0f b7 85 66 ff ff ff 	movzwl -0x9a(%rbp),%eax
    ae79:	0f b6 c0             	movzbl %al,%eax
    ae7c:	44 89 e6             	mov    %r12d,%esi
    ae7f:	89 c7                	mov    %eax,%edi
    ae81:	e8 07 9e ff ff       	callq  4c8d <safe_rshift_func_uint8_t_u_s>
    ae86:	84 c0                	test   %al,%al
    ae88:	0f 95 c0             	setne  %al
    ae8b:	0f b6 d0             	movzbl %al,%edx
    ae8e:	0f b7 85 66 ff ff ff 	movzwl -0x9a(%rbp),%eax
    ae95:	21 d0                	and    %edx,%eax
    ae97:	89 c7                	mov    %eax,%edi
    ae99:	e8 f8 96 ff ff       	callq  4596 <safe_unary_minus_func_int32_t_s>
    ae9e:	8b 15 6c 90 00 00    	mov    0x906c(%rip),%edx        # 13f10 <l_973.4512+0x1f0>
    aea4:	39 d0                	cmp    %edx,%eax
    aea6:	0f 94 c0             	sete   %al
    aea9:	0f b6 d0             	movzbl %al,%edx
    aeac:	48 8b 85 50 ff ff ff 	mov    -0xb0(%rbp),%rax
    aeb3:	98                   	cwtl   
    aeb4:	89 d6                	mov    %edx,%esi
    aeb6:	89 c7                	mov    %eax,%edi
    aeb8:	e8 16 95 ff ff       	callq  43d3 <safe_sub_func_int16_t_s_s>
    aebd:	0f bf d0             	movswl %ax,%edx
    aec0:	48 8b 45 90          	mov    -0x70(%rbp),%rax
    aec4:	89 10                	mov    %edx,(%rax)
    aec6:	66 83 bd 66 ff ff ff 	cmpw   $0x0,-0x9a(%rbp)
    aecd:	00 
    aece:	74 1a                	je     aeea <func_14+0x19d>
    aed0:	48 8b 05 f1 d4 00 00 	mov    0xd4f1(%rip),%rax        # 183c8 <g_284>
    aed7:	48 8b 00             	mov    (%rax),%rax
    aeda:	48 8b 00             	mov    (%rax),%rax
    aedd:	8b 00                	mov    (%rax),%eax
    aedf:	85 c0                	test   %eax,%eax
    aee1:	74 07                	je     aeea <func_14+0x19d>
    aee3:	b8 01 00 00 00       	mov    $0x1,%eax
    aee8:	eb 05                	jmp    aeef <func_14+0x1a2>
    aeea:	b8 00 00 00 00       	mov    $0x0,%eax
    aeef:	0f b7 c0             	movzwl %ax,%eax
    aef2:	89 de                	mov    %ebx,%esi
    aef4:	89 c7                	mov    %eax,%edi
    aef6:	e8 04 9e ff ff       	callq  4cff <safe_add_func_uint16_t_u_u>
    aefb:	0f b7 05 4e e4 00 00 	movzwl 0xe44e(%rip),%eax        # 19350 <g_507>
    af02:	48 8b 85 70 ff ff ff 	mov    -0x90(%rbp),%rax
    af09:	48 89 85 78 ff ff ff 	mov    %rax,-0x88(%rbp)
    af10:	bf 00 00 00 00       	mov    $0x0,%edi
    af15:	e8 fc 98 ff ff       	callq  4816 <safe_unary_minus_func_int64_t_s>
    af1a:	98                   	cwtl   
    af1b:	be 08 00 00 00       	mov    $0x8,%esi
    af20:	89 c7                	mov    %eax,%edi
    af22:	e8 03 96 ff ff       	callq  452a <safe_rshift_func_int16_t_s_s>
    af27:	66 85 c0             	test   %ax,%ax
    af2a:	0f 84 46 01 00 00    	je     b076 <func_14+0x329>
    af30:	c7 45 a0 67 b8 8e e2 	movl   $0xe28eb867,-0x60(%rbp)
    af37:	c7 45 a4 84 62 36 f0 	movl   $0xf0366284,-0x5c(%rbp)
    af3e:	c7 45 a8 67 b8 8e e2 	movl   $0xe28eb867,-0x58(%rbp)
    af45:	c7 45 ac 84 62 36 f0 	movl   $0xf0366284,-0x54(%rbp)
    af4c:	48 8d 05 05 c6 00 00 	lea    0xc605(%rip),%rax        # 17558 <g_485>
    af53:	48 89 45 98          	mov    %rax,-0x68(%rbp)
    af57:	c7 85 68 ff ff ff 00 	movl   $0x0,-0x98(%rbp)
    af5e:	00 00 00 
    af61:	eb 18                	jmp    af7b <func_14+0x22e>
    af63:	8b 85 68 ff ff ff    	mov    -0x98(%rbp),%eax
    af69:	48 98                	cltq   
    af6b:	48 c7 44 c5 b0 01 00 	movq   $0x1,-0x50(%rbp,%rax,8)
    af72:	00 00 
    af74:	83 85 68 ff ff ff 01 	addl   $0x1,-0x98(%rbp)
    af7b:	83 bd 68 ff ff ff 04 	cmpl   $0x4,-0x98(%rbp)
    af82:	7e df                	jle    af63 <func_14+0x216>
    af84:	48 8b 45 c8          	mov    -0x38(%rbp),%rax
    af88:	89 45 a0             	mov    %eax,-0x60(%rbp)
    af8b:	8b 45 a0             	mov    -0x60(%rbp),%eax
    af8e:	3d f7 ff 00 00       	cmp    $0xfff7,%eax
    af93:	0f 97 c0             	seta   %al
    af96:	0f b6 c0             	movzbl %al,%eax
    af99:	48 89 05 18 c5 00 00 	mov    %rax,0xc518(%rip)        # 174b8 <g_152>
    afa0:	0f b7 85 58 ff ff ff 	movzwl -0xa8(%rbp),%eax
    afa7:	0f be d0             	movsbl %al,%edx
    afaa:	0f b7 85 66 ff ff ff 	movzwl -0x9a(%rbp),%eax
    afb1:	0f be c0             	movsbl %al,%eax
    afb4:	89 d6                	mov    %edx,%esi
    afb6:	89 c7                	mov    %eax,%edi
    afb8:	e8 17 92 ff ff       	callq  41d4 <safe_add_func_int8_t_s_s>
    afbd:	0f b7 85 58 ff ff ff 	movzwl -0xa8(%rbp),%eax
    afc4:	0f be d8             	movsbl %al,%ebx
    afc7:	44 0f b6 a5 5c ff ff 	movzbl -0xa4(%rbp),%r12d
    afce:	ff 
    afcf:	44 8b 2d d2 c5 00 00 	mov    0xc5d2(%rip),%r13d        # 175a8 <g_547>
    afd6:	0f b7 85 66 ff ff ff 	movzwl -0x9a(%rbp),%eax
    afdd:	0f be d0             	movsbl %al,%edx
    afe0:	8b 85 6c ff ff ff    	mov    -0x94(%rbp),%eax
    afe6:	0f be c0             	movsbl %al,%eax
    afe9:	89 d6                	mov    %edx,%esi
    afeb:	89 c7                	mov    %eax,%edi
    afed:	e8 20 92 ff ff       	callq  4212 <safe_mul_func_int8_t_s_s>
    aff2:	48 8b 55 98          	mov    -0x68(%rbp),%rdx
    aff6:	88 02                	mov    %al,(%rdx)
    aff8:	48 8b 45 98          	mov    -0x68(%rbp),%rax
    affc:	0f b6 00             	movzbl (%rax),%eax
    afff:	0f be c0             	movsbl %al,%eax
    b002:	44 89 ee             	mov    %r13d,%esi
    b005:	89 c7                	mov    %eax,%edi
    b007:	e8 60 93 ff ff       	callq  436c <safe_rshift_func_int8_t_s_u>
    b00c:	0f be c0             	movsbl %al,%eax
    b00f:	44 89 e6             	mov    %r12d,%esi
    b012:	89 c7                	mov    %eax,%edi
    b014:	e8 e4 9e ff ff       	callq  4efd <safe_mod_func_uint32_t_u_u>
    b019:	89 c2                	mov    %eax,%edx
    b01b:	0f b7 85 66 ff ff ff 	movzwl -0x9a(%rbp),%eax
    b022:	21 d0                	and    %edx,%eax
    b024:	0f be c0             	movsbl %al,%eax
    b027:	89 de                	mov    %ebx,%esi
    b029:	89 c7                	mov    %eax,%edi
    b02b:	e8 01 92 ff ff       	callq  4231 <safe_mod_func_int8_t_s_s>
    b030:	84 c0                	test   %al,%al
    b032:	be 06 00 00 00       	mov    $0x6,%esi
    b037:	bf d2 76 00 00       	mov    $0x76d2,%edi
    b03c:	e8 e9 94 ff ff       	callq  452a <safe_rshift_func_int16_t_s_s>
    b041:	0f bf d0             	movswl %ax,%edx
    b044:	0f b7 85 58 ff ff ff 	movzwl -0xa8(%rbp),%eax
    b04b:	39 c2                	cmp    %eax,%edx
    b04d:	0f 95 c0             	setne  %al
    b050:	0f b6 c8             	movzbl %al,%ecx
    b053:	48 8b 05 16 d3 00 00 	mov    0xd316(%rip),%rax        # 18370 <g_167>
    b05a:	48 8b 00             	mov    (%rax),%rax
    b05d:	8b 10                	mov    (%rax),%edx
    b05f:	48 8b 05 0a d3 00 00 	mov    0xd30a(%rip),%rax        # 18370 <g_167>
    b066:	48 8b 00             	mov    (%rax),%rax
    b069:	21 ca                	and    %ecx,%edx
    b06b:	89 10                	mov    %edx,(%rax)
    b06d:	48 8b 85 50 ff ff ff 	mov    -0xb0(%rbp),%rax
    b074:	eb 2a                	jmp    b0a0 <func_14+0x353>
    b076:	48 8b 05 f3 d2 00 00 	mov    0xd2f3(%rip),%rax        # 18370 <g_167>
    b07d:	48 8b 00             	mov    (%rax),%rax
    b080:	8b 08                	mov    (%rax),%ecx
    b082:	48 8b 05 97 d3 00 00 	mov    0xd397(%rip),%rax        # 18420 <g_494>
    b089:	8b 10                	mov    (%rax),%edx
    b08b:	48 8b 05 de d2 00 00 	mov    0xd2de(%rip),%rax        # 18370 <g_167>
    b092:	48 8b 00             	mov    (%rax),%rax
    b095:	09 ca                	or     %ecx,%edx
    b097:	89 10                	mov    %edx,(%rax)
    b099:	0f b7 85 66 ff ff ff 	movzwl -0x9a(%rbp),%eax
    b0a0:	48 8b 5d d8          	mov    -0x28(%rbp),%rbx
    b0a4:	64 48 33 1c 25 28 00 	xor    %fs:0x28,%rbx
    b0ab:	00 00 
    b0ad:	74 05                	je     b0b4 <func_14+0x367>
    b0af:	e8 bc 8f ff ff       	callq  4070 <__stack_chk_fail@plt>
    b0b4:	48 81 c4 98 00 00 00 	add    $0x98,%rsp
    b0bb:	5b                   	pop    %rbx
    b0bc:	41 5c                	pop    %r12
    b0be:	41 5d                	pop    %r13
    b0c0:	5d                   	pop    %rbp
    b0c1:	c3                   	retq   

000000000000b0c2 <func_30>:
    b0c2:	f3 0f 1e fa          	endbr64 
    b0c6:	55                   	push   %rbp
    b0c7:	48 89 e5             	mov    %rsp,%rbp
    b0ca:	41 55                	push   %r13
    b0cc:	41 54                	push   %r12
    b0ce:	53                   	push   %rbx
    b0cf:	48 81 ec e8 00 00 00 	sub    $0xe8,%rsp
    b0d6:	89 bd 0c ff ff ff    	mov    %edi,-0xf4(%rbp)
    b0dc:	64 48 8b 04 25 28 00 	mov    %fs:0x28,%rax
    b0e3:	00 00 
    b0e5:	48 89 45 d8          	mov    %rax,-0x28(%rbp)
    b0e9:	31 c0                	xor    %eax,%eax
    b0eb:	c6 85 1f ff ff ff 01 	movb   $0x1,-0xe1(%rbp)
    b0f2:	48 8d 05 1f c4 00 00 	lea    0xc41f(%rip),%rax        # 17518 <g_414+0x18>
    b0f9:	48 89 85 30 ff ff ff 	mov    %rax,-0xd0(%rbp)
    b100:	48 8d 05 89 c3 00 00 	lea    0xc389(%rip),%rax        # 17490 <g_46>
    b107:	48 89 85 38 ff ff ff 	mov    %rax,-0xc8(%rbp)
    b10e:	c7 85 20 ff ff ff 00 	movl   $0x0,-0xe0(%rbp)
    b115:	00 00 00 
    b118:	eb 14                	jmp    b12e <func_30+0x6c>
    b11a:	8b 85 20 ff ff ff    	mov    -0xe0(%rbp),%eax
    b120:	48 98                	cltq   
    b122:	c6 44 05 d6 fd       	movb   $0xfd,-0x2a(%rbp,%rax,1)
    b127:	83 85 20 ff ff ff 01 	addl   $0x1,-0xe0(%rbp)
    b12e:	83 bd 20 ff ff ff 01 	cmpl   $0x1,-0xe0(%rbp)
    b135:	7e e3                	jle    b11a <func_30+0x58>
    b137:	83 bd 0c ff ff ff 00 	cmpl   $0x0,-0xf4(%rbp)
    b13e:	74 4b                	je     b18b <func_30+0xc9>
    b140:	c7 85 0c ff ff ff e8 	movl   $0xffffffe8,-0xf4(%rbp)
    b147:	ff ff ff 
    b14a:	eb 31                	jmp    b17d <func_30+0xbb>
    b14c:	c7 05 3e c3 00 00 01 	movl   $0x1,0xc33e(%rip)        # 17494 <g_46+0x4>
    b153:	00 00 00 
    b156:	90                   	nop
    b157:	8b 05 37 c3 00 00    	mov    0xc337(%rip),%eax        # 17494 <g_46+0x4>
    b15d:	85 c0                	test   %eax,%eax
    b15f:	78 15                	js     b176 <func_30+0xb4>
    b161:	8b 05 2d c3 00 00    	mov    0xc32d(%rip),%eax        # 17494 <g_46+0x4>
    b167:	48 98                	cltq   
    b169:	0f b6 44 05 d6       	movzbl -0x2a(%rbp,%rax,1),%eax
    b16e:	0f b6 c0             	movzbl %al,%eax
    b171:	e9 d6 02 00 00       	jmpq   b44c <func_30+0x38a>
    b176:	83 85 0c ff ff ff 01 	addl   $0x1,-0xf4(%rbp)
    b17d:	83 bd 0c ff ff ff 2d 	cmpl   $0x2d,-0xf4(%rbp)
    b184:	74 c6                	je     b14c <func_30+0x8a>
    b186:	e9 bb 02 00 00       	jmpq   b446 <func_30+0x384>
    b18b:	48 8d 05 fe c2 00 00 	lea    0xc2fe(%rip),%rax        # 17490 <g_46>
    b192:	48 89 45 a0          	mov    %rax,-0x60(%rbp)
    b196:	48 8d 05 f7 c2 00 00 	lea    0xc2f7(%rip),%rax        # 17494 <g_46+0x4>
    b19d:	48 89 45 a8          	mov    %rax,-0x58(%rbp)
    b1a1:	48 8d 05 ec c2 00 00 	lea    0xc2ec(%rip),%rax        # 17494 <g_46+0x4>
    b1a8:	48 89 45 b0          	mov    %rax,-0x50(%rbp)
    b1ac:	48 8d 05 dd c2 00 00 	lea    0xc2dd(%rip),%rax        # 17490 <g_46>
    b1b3:	48 89 45 b8          	mov    %rax,-0x48(%rbp)
    b1b7:	48 8d 05 d6 c2 00 00 	lea    0xc2d6(%rip),%rax        # 17494 <g_46+0x4>
    b1be:	48 89 45 c0          	mov    %rax,-0x40(%rbp)
    b1c2:	48 8d 05 cb c2 00 00 	lea    0xc2cb(%rip),%rax        # 17494 <g_46+0x4>
    b1c9:	48 89 45 c8          	mov    %rax,-0x38(%rbp)
    b1cd:	c7 85 28 ff ff ff 2e 	movl   $0xee04be2e,-0xd8(%rbp)
    b1d4:	be 04 ee 
    b1d7:	80 ad 1f ff ff ff 01 	subb   $0x1,-0xe1(%rbp)
    b1de:	8b 05 b4 c2 00 00    	mov    0xc2b4(%rip),%eax        # 17498 <g_46+0x8>
    b1e4:	25 70 b0 4c 27       	and    $0x274cb070,%eax
    b1e9:	89 05 a9 c2 00 00    	mov    %eax,0xc2a9(%rip)        # 17498 <g_46+0x8>
    b1ef:	8b 05 a3 c2 00 00    	mov    0xc2a3(%rip),%eax        # 17498 <g_46+0x8>
    b1f5:	85 c0                	test   %eax,%eax
    b1f7:	0f 84 46 01 00 00    	je     b343 <func_30+0x281>
    b1fd:	c7 85 2c ff ff ff 2d 	movl   $0x37c2b42d,-0xd4(%rbp)
    b204:	b4 c2 37 
    b207:	48 8d 05 52 c6 00 00 	lea    0xc652(%rip),%rax        # 17860 <g_722>
    b20e:	48 89 85 60 ff ff ff 	mov    %rax,-0xa0(%rbp)
    b215:	48 8d 05 a6 c2 00 00 	lea    0xc2a6(%rip),%rax        # 174c2 <g_157>
    b21c:	48 89 85 68 ff ff ff 	mov    %rax,-0x98(%rbp)
    b223:	48 c7 85 70 ff ff ff 	movq   $0x0,-0x90(%rbp)
    b22a:	00 00 00 00 
    b22e:	48 8d 05 3b c6 00 00 	lea    0xc63b(%rip),%rax        # 17870 <g_832>
    b235:	48 89 85 78 ff ff ff 	mov    %rax,-0x88(%rbp)
    b23c:	83 ad 2c ff ff ff 01 	subl   $0x1,-0xd4(%rbp)
    b243:	8b 85 2c ff ff ff    	mov    -0xd4(%rbp),%eax
    b249:	0f b6 d8             	movzbl %al,%ebx
    b24c:	8b 05 42 c2 00 00    	mov    0xc242(%rip),%eax        # 17494 <g_46+0x4>
    b252:	0f bf d0             	movswl %ax,%edx
    b255:	8b 85 0c ff ff ff    	mov    -0xf4(%rbp),%eax
    b25b:	0f b6 c0             	movzbl %al,%eax
    b25e:	89 d6                	mov    %edx,%esi
    b260:	89 c7                	mov    %eax,%edi
    b262:	e8 07 02 00 00       	callq  b46e <func_56>
    b267:	44 8b ad 0c ff ff ff 	mov    -0xf4(%rbp),%r13d
    b26e:	8b 85 2c ff ff ff    	mov    -0xd4(%rbp),%eax
    b274:	89 c6                	mov    %eax,%esi
    b276:	bf 98 a2 7f 6c       	mov    $0x6c7fa298,%edi
    b27b:	e8 50 9c ff ff       	callq  4ed0 <safe_sub_func_uint32_t_u_u>
    b280:	41 89 c4             	mov    %eax,%r12d
    b283:	83 bd 0c ff ff ff 00 	cmpl   $0x0,-0xf4(%rbp)
    b28a:	75 09                	jne    b295 <func_30+0x1d3>
    b28c:	83 bd 2c ff ff ff 00 	cmpl   $0x0,-0xd4(%rbp)
    b293:	74 07                	je     b29c <func_30+0x1da>
    b295:	b8 01 00 00 00       	mov    $0x1,%eax
    b29a:	eb 05                	jmp    b2a1 <func_30+0x1df>
    b29c:	b8 00 00 00 00       	mov    $0x0,%eax
    b2a1:	0f bf d0             	movswl %ax,%edx
    b2a4:	8b 85 0c ff ff ff    	mov    -0xf4(%rbp),%eax
    b2aa:	98                   	cwtl   
    b2ab:	89 d6                	mov    %edx,%esi
    b2ad:	89 c7                	mov    %eax,%edi
    b2af:	e8 1f 91 ff ff       	callq  43d3 <safe_sub_func_int16_t_s_s>
    b2b4:	0f bf d0             	movswl %ax,%edx
    b2b7:	0f b6 85 1f ff ff ff 	movzbl -0xe1(%rbp),%eax
    b2be:	39 c2                	cmp    %eax,%edx
    b2c0:	0f 9d c0             	setge  %al
    b2c3:	0f b6 c0             	movzbl %al,%eax
    b2c6:	41 39 c4             	cmp    %eax,%r12d
    b2c9:	0f 96 c0             	setbe  %al
    b2cc:	0f b6 d0             	movzbl %al,%edx
    b2cf:	8b 85 2c ff ff ff    	mov    -0xd4(%rbp),%eax
    b2d5:	98                   	cwtl   
    b2d6:	89 d6                	mov    %edx,%esi
    b2d8:	89 c7                	mov    %eax,%edi
    b2da:	e8 b3 91 ff ff       	callq  4492 <safe_lshift_func_int16_t_s_s>
    b2df:	48 0f bf d0          	movswq %ax,%rdx
    b2e3:	48 8b 85 60 ff ff ff 	mov    -0xa0(%rbp),%rax
    b2ea:	48 89 10             	mov    %rdx,(%rax)
    b2ed:	48 8b 85 60 ff ff ff 	mov    -0xa0(%rbp),%rax
    b2f4:	48 8b 00             	mov    (%rax),%rax
    b2f7:	49 39 c5             	cmp    %rax,%r13
    b2fa:	0f 92 c0             	setb   %al
    b2fd:	0f b6 d0             	movzbl %al,%edx
    b300:	48 8b 85 68 ff ff ff 	mov    -0x98(%rbp),%rax
    b307:	66 89 10             	mov    %dx,(%rax)
    b30a:	48 8b 85 68 ff ff ff 	mov    -0x98(%rbp),%rax
    b311:	0f b7 10             	movzwl (%rax),%edx
    b314:	48 8b 85 78 ff ff ff 	mov    -0x88(%rbp),%rax
    b31b:	66 89 10             	mov    %dx,(%rax)
    b31e:	89 de                	mov    %ebx,%esi
    b320:	bf 01 00 00 00       	mov    $0x1,%edi
    b325:	e8 b1 98 ff ff       	callq  4bdb <safe_div_func_uint8_t_u_u>
    b32a:	89 c2                	mov    %eax,%edx
    b32c:	48 8b 05 95 d0 00 00 	mov    0xd095(%rip),%rax        # 183c8 <g_284>
    b333:	48 8b 00             	mov    (%rax),%rax
    b336:	48 8b 00             	mov    (%rax),%rax
    b339:	0f b6 d2             	movzbl %dl,%edx
    b33c:	89 10                	mov    %edx,(%rax)
    b33e:	e9 fb 00 00 00       	jmpq   b43e <func_30+0x37c>
    b343:	48 b8 e6 f6 b3 ae 34 	movabs $0x50063734aeb3f6e6,%rax
    b34a:	37 06 50 
    b34d:	48 89 85 40 ff ff ff 	mov    %rax,-0xc0(%rbp)
    b354:	48 c7 85 48 ff ff ff 	movq   $0x0,-0xb8(%rbp)
    b35b:	00 00 00 00 
    b35f:	48 8d 05 e2 c4 00 00 	lea    0xc4e2(%rip),%rax        # 17848 <g_705+0x108>
    b366:	48 89 85 50 ff ff ff 	mov    %rax,-0xb0(%rbp)
    b36d:	48 8d 05 6e c1 00 00 	lea    0xc16e(%rip),%rax        # 174e2 <g_261>
    b374:	48 89 85 58 ff ff ff 	mov    %rax,-0xa8(%rbp)
    b37b:	c7 85 24 ff ff ff 00 	movl   $0x0,-0xdc(%rbp)
    b382:	00 00 00 
    b385:	eb 18                	jmp    b39f <func_30+0x2dd>
    b387:	8b 85 24 ff ff ff    	mov    -0xdc(%rbp),%eax
    b38d:	48 98                	cltq   
    b38f:	48 c7 44 c5 80 00 00 	movq   $0x0,-0x80(%rbp,%rax,8)
    b396:	00 00 
    b398:	83 85 24 ff ff ff 01 	addl   $0x1,-0xdc(%rbp)
    b39f:	83 bd 24 ff ff ff 02 	cmpl   $0x2,-0xdc(%rbp)
    b3a6:	7e df                	jle    b387 <func_30+0x2c5>
    b3a8:	48 8b 85 40 ff ff ff 	mov    -0xc0(%rbp),%rax
    b3af:	89 c2                	mov    %eax,%edx
    b3b1:	0f b6 45 d6          	movzbl -0x2a(%rbp),%eax
    b3b5:	0f b6 c0             	movzbl %al,%eax
    b3b8:	39 85 0c ff ff ff    	cmp    %eax,-0xf4(%rbp)
    b3be:	0f 92 c0             	setb   %al
    b3c1:	0f b6 c0             	movzbl %al,%eax
    b3c4:	89 d6                	mov    %edx,%esi
    b3c6:	89 c7                	mov    %eax,%edi
    b3c8:	e8 21 8f ff ff       	callq  42ee <safe_lshift_func_int8_t_s_u>
    b3cd:	66 0f be d0          	movsbw %al,%dx
    b3d1:	48 8b 85 58 ff ff ff 	mov    -0xa8(%rbp),%rax
    b3d8:	66 89 10             	mov    %dx,(%rax)
    b3db:	48 8b 85 58 ff ff ff 	mov    -0xa8(%rbp),%rax
    b3e2:	0f b7 00             	movzwl (%rax),%eax
    b3e5:	0f b7 c0             	movzwl %ax,%eax
    b3e8:	8b 95 28 ff ff ff    	mov    -0xd8(%rbp),%edx
    b3ee:	89 d6                	mov    %edx,%esi
    b3f0:	89 c7                	mov    %eax,%edi
    b3f2:	e8 51 9a ff ff       	callq  4e48 <safe_rshift_func_uint16_t_u_s>
    b3f7:	0f b7 d0             	movzwl %ax,%edx
    b3fa:	8b 05 70 c5 00 00    	mov    0xc570(%rip),%eax        # 17970 <g_894>
    b400:	39 c2                	cmp    %eax,%edx
    b402:	0f 97 c0             	seta   %al
    b405:	0f b6 d0             	movzbl %al,%edx
    b408:	8b 05 fe c0 00 00    	mov    0xc0fe(%rip),%eax        # 1750c <g_414+0xc>
    b40e:	39 c2                	cmp    %eax,%edx
    b410:	0f 9d c0             	setge  %al
    b413:	0f b6 c8             	movzbl %al,%ecx
    b416:	48 8b 05 53 cf 00 00 	mov    0xcf53(%rip),%rax        # 18370 <g_167>
    b41d:	48 8b 00             	mov    (%rax),%rax
    b420:	8b 10                	mov    (%rax),%edx
    b422:	48 8b 05 47 cf 00 00 	mov    0xcf47(%rip),%rax        # 18370 <g_167>
    b429:	48 8b 00             	mov    (%rax),%rax
    b42c:	31 ca                	xor    %ecx,%edx
    b42e:	89 10                	mov    %edx,(%rax)
    b430:	48 8b 85 30 ff ff ff 	mov    -0xd0(%rbp),%rax
    b437:	48 89 85 38 ff ff ff 	mov    %rax,-0xc8(%rbp)
    b43e:	8b 85 0c ff ff ff    	mov    -0xf4(%rbp),%eax
    b444:	eb 06                	jmp    b44c <func_30+0x38a>
    b446:	8b 85 0c ff ff ff    	mov    -0xf4(%rbp),%eax
    b44c:	48 8b 4d d8          	mov    -0x28(%rbp),%rcx
    b450:	64 48 33 0c 25 28 00 	xor    %fs:0x28,%rcx
    b457:	00 00 
    b459:	74 05                	je     b460 <func_30+0x39e>
    b45b:	e8 10 8c ff ff       	callq  4070 <__stack_chk_fail@plt>
    b460:	48 81 c4 e8 00 00 00 	add    $0xe8,%rsp
    b467:	5b                   	pop    %rbx
    b468:	41 5c                	pop    %r12
    b46a:	41 5d                	pop    %r13
    b46c:	5d                   	pop    %rbp
    b46d:	c3                   	retq   

000000000000b46e <func_56>:
    b46e:	f3 0f 1e fa          	endbr64 
    b472:	55                   	push   %rbp
    b473:	48 89 e5             	mov    %rsp,%rbp
    b476:	48 81 ec d0 01 00 00 	sub    $0x1d0,%rsp
    b47d:	89 fa                	mov    %edi,%edx
    b47f:	89 f0                	mov    %esi,%eax
    b481:	88 95 3c fe ff ff    	mov    %dl,-0x1c4(%rbp)
    b487:	66 89 85 38 fe ff ff 	mov    %ax,-0x1c8(%rbp)
    b48e:	64 48 8b 04 25 28 00 	mov    %fs:0x28,%rax
    b495:	00 00 
    b497:	48 89 45 f8          	mov    %rax,-0x8(%rbp)
    b49b:	31 c0                	xor    %eax,%eax
    b49d:	66 c7 85 50 fe ff ff 	movw   $0x1,-0x1b0(%rbp)
    b4a4:	01 00 
    b4a6:	48 8d 05 ef bf 00 00 	lea    0xbfef(%rip),%rax        # 1749c <g_61>
    b4ad:	48 89 85 90 fe ff ff 	mov    %rax,-0x170(%rbp)
    b4b4:	c7 85 58 fe ff ff 37 	movl   $0x17b1ab37,-0x1a8(%rbp)
    b4bb:	ab b1 17 
    b4be:	c7 85 5c fe ff ff 30 	movl   $0xf8612730,-0x1a4(%rbp)
    b4c5:	27 61 f8 
    b4c8:	c7 85 60 fe ff ff 01 	movl   $0x1,-0x1a0(%rbp)
    b4cf:	00 00 00 
    b4d2:	c7 85 64 fe ff ff a8 	movl   $0x6a2a5ea8,-0x19c(%rbp)
    b4d9:	5e 2a 6a 
    b4dc:	c7 85 60 ff ff ff b2 	movl   $0x994868b2,-0xa0(%rbp)
    b4e3:	68 48 99 
    b4e6:	c7 85 64 ff ff ff 09 	movl   $0x9,-0x9c(%rbp)
    b4ed:	00 00 00 
    b4f0:	c7 85 68 ff ff ff 09 	movl   $0x9,-0x98(%rbp)
    b4f7:	00 00 00 
    b4fa:	c7 85 6c ff ff ff b2 	movl   $0x994868b2,-0x94(%rbp)
    b501:	68 48 99 
    b504:	c7 85 70 ff ff ff 09 	movl   $0x9,-0x90(%rbp)
    b50b:	00 00 00 
    b50e:	c7 85 74 ff ff ff be 	movl   $0xc113e7be,-0x8c(%rbp)
    b515:	e7 13 c1 
    b518:	c7 85 78 ff ff ff be 	movl   $0xc113e7be,-0x88(%rbp)
    b51f:	e7 13 c1 
    b522:	c7 85 7c ff ff ff 08 	movl   $0x8,-0x84(%rbp)
    b529:	00 00 00 
    b52c:	c7 45 80 be e7 13 c1 	movl   $0xc113e7be,-0x80(%rbp)
    b533:	c7 45 84 be e7 13 c1 	movl   $0xc113e7be,-0x7c(%rbp)
    b53a:	c7 45 88 09 00 00 00 	movl   $0x9,-0x78(%rbp)
    b541:	c7 45 8c b2 68 48 99 	movl   $0x994868b2,-0x74(%rbp)
    b548:	c7 45 90 09 00 00 00 	movl   $0x9,-0x70(%rbp)
    b54f:	c7 45 94 09 00 00 00 	movl   $0x9,-0x6c(%rbp)
    b556:	c7 45 98 b2 68 48 99 	movl   $0x994868b2,-0x68(%rbp)
    b55d:	c7 45 9c be e7 13 c1 	movl   $0xc113e7be,-0x64(%rbp)
    b564:	c7 45 a0 2e 59 e5 9d 	movl   $0x9de5592e,-0x60(%rbp)
    b56b:	c7 45 a4 2e 59 e5 9d 	movl   $0x9de5592e,-0x5c(%rbp)
    b572:	c7 45 a8 be e7 13 c1 	movl   $0xc113e7be,-0x58(%rbp)
    b579:	c7 45 ac 2e 59 e5 9d 	movl   $0x9de5592e,-0x54(%rbp)
    b580:	c7 45 b0 b2 68 48 99 	movl   $0x994868b2,-0x50(%rbp)
    b587:	c7 45 b4 b2 68 48 99 	movl   $0x994868b2,-0x4c(%rbp)
    b58e:	c7 45 b8 4f 33 1b 2c 	movl   $0x2c1b334f,-0x48(%rbp)
    b595:	c7 45 bc b2 68 48 99 	movl   $0x994868b2,-0x44(%rbp)
    b59c:	c7 45 c0 b2 68 48 99 	movl   $0x994868b2,-0x40(%rbp)
    b5a3:	c7 45 c4 2e 59 e5 9d 	movl   $0x9de5592e,-0x3c(%rbp)
    b5aa:	c7 45 c8 be e7 13 c1 	movl   $0xc113e7be,-0x38(%rbp)
    b5b1:	c7 45 cc 2e 59 e5 9d 	movl   $0x9de5592e,-0x34(%rbp)
    b5b8:	c7 45 d0 2e 59 e5 9d 	movl   $0x9de5592e,-0x30(%rbp)
    b5bf:	c7 45 d4 be e7 13 c1 	movl   $0xc113e7be,-0x2c(%rbp)
    b5c6:	c7 45 d8 b2 68 48 99 	movl   $0x994868b2,-0x28(%rbp)
    b5cd:	c7 45 dc 09 00 00 00 	movl   $0x9,-0x24(%rbp)
    b5d4:	c7 45 e0 09 00 00 00 	movl   $0x9,-0x20(%rbp)
    b5db:	c7 45 e4 b2 68 48 99 	movl   $0x994868b2,-0x1c(%rbp)
    b5e2:	c7 45 e8 09 00 00 00 	movl   $0x9,-0x18(%rbp)
    b5e9:	48 8d 05 6a bf 00 00 	lea    0xbf6a(%rip),%rax        # 1755a <g_503>
    b5f0:	48 89 85 70 fe ff ff 	mov    %rax,-0x190(%rbp)
    b5f7:	66 c7 85 52 fe ff ff 	movw   $0xba6c,-0x1ae(%rbp)
    b5fe:	6c ba 
    b600:	48 8d 05 01 ce 00 00 	lea    0xce01(%rip),%rax        # 18408 <g_343+0x8>
    b607:	48 89 85 78 fe ff ff 	mov    %rax,-0x188(%rbp)
    b60e:	48 8d 85 78 fe ff ff 	lea    -0x188(%rbp),%rax
    b615:	48 89 85 98 fe ff ff 	mov    %rax,-0x168(%rbp)
    b61c:	48 8d 05 85 bf 00 00 	lea    0xbf85(%rip),%rax        # 175a8 <g_547>
    b623:	48 89 85 10 ff ff ff 	mov    %rax,-0xf0(%rbp)
    b62a:	48 8d 05 77 bf 00 00 	lea    0xbf77(%rip),%rax        # 175a8 <g_547>
    b631:	48 89 85 18 ff ff ff 	mov    %rax,-0xe8(%rbp)
    b638:	48 8d 05 69 bf 00 00 	lea    0xbf69(%rip),%rax        # 175a8 <g_547>
    b63f:	48 89 85 20 ff ff ff 	mov    %rax,-0xe0(%rbp)
    b646:	48 8d 05 5b bf 00 00 	lea    0xbf5b(%rip),%rax        # 175a8 <g_547>
    b64d:	48 89 85 28 ff ff ff 	mov    %rax,-0xd8(%rbp)
    b654:	48 8d 05 4d bf 00 00 	lea    0xbf4d(%rip),%rax        # 175a8 <g_547>
    b65b:	48 89 85 30 ff ff ff 	mov    %rax,-0xd0(%rbp)
    b662:	48 8d 05 3f bf 00 00 	lea    0xbf3f(%rip),%rax        # 175a8 <g_547>
    b669:	48 89 85 38 ff ff ff 	mov    %rax,-0xc8(%rbp)
    b670:	48 8d 05 31 bf 00 00 	lea    0xbf31(%rip),%rax        # 175a8 <g_547>
    b677:	48 89 85 40 ff ff ff 	mov    %rax,-0xc0(%rbp)
    b67e:	48 8d 05 23 bf 00 00 	lea    0xbf23(%rip),%rax        # 175a8 <g_547>
    b685:	48 89 85 48 ff ff ff 	mov    %rax,-0xb8(%rbp)
    b68c:	48 8d 05 15 bf 00 00 	lea    0xbf15(%rip),%rax        # 175a8 <g_547>
    b693:	48 89 85 50 ff ff ff 	mov    %rax,-0xb0(%rbp)
    b69a:	48 8d 85 10 ff ff ff 	lea    -0xf0(%rbp),%rax
    b6a1:	48 89 85 a0 fe ff ff 	mov    %rax,-0x160(%rbp)
    b6a8:	c6 85 4f fe ff ff b0 	movb   $0xb0,-0x1b1(%rbp)
    b6af:	c7 85 68 fe ff ff 00 	movl   $0x0,-0x198(%rbp)
    b6b6:	00 00 00 
    b6b9:	48 c7 85 a8 fe ff ff 	movq   $0x0,-0x158(%rbp)
    b6c0:	00 00 00 00 
    b6c4:	48 8d 85 d0 fe ff ff 	lea    -0x130(%rbp),%rax
    b6cb:	48 83 c0 28          	add    $0x28,%rax
    b6cf:	48 89 85 b0 fe ff ff 	mov    %rax,-0x150(%rbp)
    b6d6:	48 8d 05 bf bd 00 00 	lea    0xbdbf(%rip),%rax        # 1749c <g_61>
    b6dd:	48 89 85 80 fe ff ff 	mov    %rax,-0x180(%rbp)
    b6e4:	48 8d 85 80 fe ff ff 	lea    -0x180(%rbp),%rax
    b6eb:	48 89 85 88 fe ff ff 	mov    %rax,-0x178(%rbp)
    b6f2:	48 8d 85 88 fe ff ff 	lea    -0x178(%rbp),%rax
    b6f9:	48 89 85 b8 fe ff ff 	mov    %rax,-0x148(%rbp)
    b700:	c7 85 6c fe ff ff fa 	movl   $0xfffffffa,-0x194(%rbp)
    b707:	ff ff ff 
    b70a:	c7 85 54 fe ff ff 00 	movl   $0x0,-0x1ac(%rbp)
    b711:	00 00 00 
    b714:	eb 1e                	jmp    b734 <func_56+0x2c6>
    b716:	8b 85 54 fe ff ff    	mov    -0x1ac(%rbp),%eax
    b71c:	48 98                	cltq   
    b71e:	48 8d 95 70 fe ff ff 	lea    -0x190(%rbp),%rdx
    b725:	48 89 94 c5 c0 fe ff 	mov    %rdx,-0x140(%rbp,%rax,8)
    b72c:	ff 
    b72d:	83 85 54 fe ff ff 01 	addl   $0x1,-0x1ac(%rbp)
    b734:	83 bd 54 fe ff ff 01 	cmpl   $0x1,-0x1ac(%rbp)
    b73b:	7e d9                	jle    b716 <func_56+0x2a8>
    b73d:	c7 85 54 fe ff ff 00 	movl   $0x0,-0x1ac(%rbp)
    b744:	00 00 00 
    b747:	eb 1b                	jmp    b764 <func_56+0x2f6>
    b749:	8b 85 54 fe ff ff    	mov    -0x1ac(%rbp),%eax
    b74f:	48 98                	cltq   
    b751:	48 c7 84 c5 d0 fe ff 	movq   $0x0,-0x130(%rbp,%rax,8)
    b758:	ff 00 00 00 00 
    b75d:	83 85 54 fe ff ff 01 	addl   $0x1,-0x1ac(%rbp)
    b764:	83 bd 54 fe ff ff 07 	cmpl   $0x7,-0x1ac(%rbp)
    b76b:	7e dc                	jle    b749 <func_56+0x2db>
    b76d:	b8 01 00 00 00       	mov    $0x1,%eax
    b772:	48 8b 4d f8          	mov    -0x8(%rbp),%rcx
    b776:	64 48 33 0c 25 28 00 	xor    %fs:0x28,%rcx
    b77d:	00 00 
    b77f:	74 05                	je     b786 <func_56+0x318>
    b781:	e8 ea 88 ff ff       	callq  4070 <__stack_chk_fail@plt>
    b786:	c9                   	leaveq 
    b787:	c3                   	retq   

000000000000b788 <func_96>:
    b788:	f3 0f 1e fa          	endbr64 
    b78c:	55                   	push   %rbp
    b78d:	48 89 e5             	mov    %rsp,%rbp
    b790:	53                   	push   %rbx
    b791:	48 81 ec a8 04 00 00 	sub    $0x4a8,%rsp
    b798:	48 89 bd 68 fb ff ff 	mov    %rdi,-0x498(%rbp)
    b79f:	89 d0                	mov    %edx,%eax
    b7a1:	48 89 8d 58 fb ff ff 	mov    %rcx,-0x4a8(%rbp)
    b7a8:	89 f2                	mov    %esi,%edx
    b7aa:	88 95 64 fb ff ff    	mov    %dl,-0x49c(%rbp)
    b7b0:	66 89 85 60 fb ff ff 	mov    %ax,-0x4a0(%rbp)
    b7b7:	64 48 8b 04 25 28 00 	mov    %fs:0x28,%rax
    b7be:	00 00 
    b7c0:	48 89 45 e8          	mov    %rax,-0x18(%rbp)
    b7c4:	31 c0                	xor    %eax,%eax
    b7c6:	48 8d 85 c0 fb ff ff 	lea    -0x440(%rbp),%rax
    b7cd:	48 83 c0 18          	add    $0x18,%rax
    b7d1:	48 89 85 88 fb ff ff 	mov    %rax,-0x478(%rbp)
    b7d8:	48 8d 05 cb bc 00 00 	lea    0xbccb(%rip),%rax        # 174aa <g_107+0x2>
    b7df:	48 89 85 78 fb ff ff 	mov    %rax,-0x488(%rbp)
    b7e6:	48 8d 85 78 fb ff ff 	lea    -0x488(%rbp),%rax
    b7ed:	48 89 85 90 fb ff ff 	mov    %rax,-0x470(%rbp)
    b7f4:	48 8d 85 e0 fb ff ff 	lea    -0x420(%rbp),%rax
    b7fb:	48 8d 15 3e 7c 00 00 	lea    0x7c3e(%rip),%rdx        # 13440 <g_1236+0x3dc>
    b802:	b9 80 00 00 00       	mov    $0x80,%ecx
    b807:	48 89 c7             	mov    %rax,%rdi
    b80a:	48 89 d6             	mov    %rdx,%rsi
    b80d:	f3 48 a5             	rep movsq %ds:(%rsi),%es:(%rdi)
    b810:	48 8d 05 b1 cb 00 00 	lea    0xcbb1(%rip),%rax        # 183c8 <g_284>
    b817:	48 89 85 80 fb ff ff 	mov    %rax,-0x480(%rbp)
    b81e:	48 c7 85 98 fb ff ff 	movq   $0x0,-0x468(%rbp)
    b825:	00 00 00 00 
    b829:	48 8d 05 58 bd 00 00 	lea    0xbd58(%rip),%rax        # 17588 <g_532+0x28>
    b830:	48 89 85 a0 fb ff ff 	mov    %rax,-0x460(%rbp)
    b837:	48 8d 05 7a bc 00 00 	lea    0xbc7a(%rip),%rax        # 174b8 <g_152>
    b83e:	48 89 85 a8 fb ff ff 	mov    %rax,-0x458(%rbp)
    b845:	c7 85 74 fb ff ff ff 	movl   $0xffffffff,-0x48c(%rbp)
    b84c:	ff ff ff 
    b84f:	c7 85 70 fb ff ff 00 	movl   $0x0,-0x490(%rbp)
    b856:	00 00 00 
    b859:	eb 1e                	jmp    b879 <func_96+0xf1>
    b85b:	8b 85 70 fb ff ff    	mov    -0x490(%rbp),%eax
    b861:	48 98                	cltq   
    b863:	48 8d 15 ee bc 00 00 	lea    0xbcee(%rip),%rdx        # 17558 <g_485>
    b86a:	48 89 94 c5 c0 fb ff 	mov    %rdx,-0x440(%rbp,%rax,8)
    b871:	ff 
    b872:	83 85 70 fb ff ff 01 	addl   $0x1,-0x490(%rbp)
    b879:	83 bd 70 fb ff ff 03 	cmpl   $0x3,-0x490(%rbp)
    b880:	7e d9                	jle    b85b <func_96+0xd3>
    b882:	c7 85 70 fb ff ff 00 	movl   $0x0,-0x490(%rbp)
    b889:	00 00 00 
    b88c:	eb 1e                	jmp    b8ac <func_96+0x124>
    b88e:	8b 85 70 fb ff ff    	mov    -0x490(%rbp),%eax
    b894:	48 98                	cltq   
    b896:	48 8d 95 80 fb ff ff 	lea    -0x480(%rbp),%rdx
    b89d:	48 89 94 c5 b0 fb ff 	mov    %rdx,-0x450(%rbp,%rax,8)
    b8a4:	ff 
    b8a5:	83 85 70 fb ff ff 01 	addl   $0x1,-0x490(%rbp)
    b8ac:	83 bd 70 fb ff ff 01 	cmpl   $0x1,-0x490(%rbp)
    b8b3:	7e d9                	jle    b88e <func_96+0x106>
    b8b5:	48 0f be 9d 64 fb ff 	movsbq -0x49c(%rbp),%rbx
    b8bc:	ff 
    b8bd:	48 8b 85 88 fb ff ff 	mov    -0x478(%rbp),%rax
    b8c4:	48 c7 00 00 00 00 00 	movq   $0x0,(%rax)
    b8cb:	48 8b 85 88 fb ff ff 	mov    -0x478(%rbp),%rax
    b8d2:	48 8b 08             	mov    (%rax),%rcx
    b8d5:	48 8b 95 78 fb ff ff 	mov    -0x488(%rbp),%rdx
    b8dc:	48 8b 85 90 fb ff ff 	mov    -0x470(%rbp),%rax
    b8e3:	48 89 10             	mov    %rdx,(%rax)
    b8e6:	48 8b 85 90 fb ff ff 	mov    -0x470(%rbp),%rax
    b8ed:	48 8b 00             	mov    (%rax),%rax
    b8f0:	48 39 c1             	cmp    %rax,%rcx
    b8f3:	0f 85 a4 00 00 00    	jne    b99d <func_96+0x215>
    b8f9:	8b 85 04 fe ff ff    	mov    -0x1fc(%rbp),%eax
    b8ff:	0f b7 d0             	movzwl %ax,%edx
    b902:	8b 85 1c ff ff ff    	mov    -0xe4(%rbp),%eax
    b908:	0f b7 c0             	movzwl %ax,%eax
    b90b:	89 d6                	mov    %edx,%esi
    b90d:	89 c7                	mov    %eax,%edi
    b90f:	e8 0b 94 ff ff       	callq  4d1f <safe_sub_func_uint16_t_u_u>
    b914:	0f b7 c8             	movzwl %ax,%ecx
    b917:	8b 95 dc fc ff ff    	mov    -0x324(%rbp),%edx
    b91d:	48 8b 85 68 fb ff ff 	mov    -0x498(%rbp),%rax
    b924:	89 10                	mov    %edx,(%rax)
    b926:	48 8b 85 68 fb ff ff 	mov    -0x498(%rbp),%rax
    b92d:	8b 00                	mov    (%rax),%eax
    b92f:	39 c1                	cmp    %eax,%ecx
    b931:	7e 63                	jle    b996 <func_96+0x20e>
    b933:	48 8b 85 b0 fb ff ff 	mov    -0x450(%rbp),%rax
    b93a:	48 89 85 98 fb ff ff 	mov    %rax,-0x468(%rbp)
    b941:	8b 05 09 bc 00 00    	mov    0xbc09(%rip),%eax        # 17550 <g_476>
    b947:	89 c2                	mov    %eax,%edx
    b949:	48 8b 85 a0 fb ff ff 	mov    -0x460(%rbp),%rax
    b950:	48 89 10             	mov    %rdx,(%rax)
    b953:	48 8b 85 a0 fb ff ff 	mov    -0x460(%rbp),%rax
    b95a:	48 8b 00             	mov    (%rax),%rax
    b95d:	48 be 76 a1 64 6f 1a 	movabs $0x73d5c81a6f64a176,%rsi
    b964:	c8 d5 73 
    b967:	48 89 c7             	mov    %rax,%rdi
    b96a:	e8 45 90 ff ff       	callq  49b4 <safe_mod_func_int64_t_s_s>
    b96f:	0f b6 05 e4 bb 00 00 	movzbl 0xbbe4(%rip),%eax        # 1755a <g_503>
    b976:	48 0f be c0          	movsbq %al,%rax
    b97a:	c7 05 d8 bb 00 00 00 	movl   $0x0,0xbbd8(%rip)        # 1755c <g_525>
    b981:	00 00 00 
    b984:	48 89 c6             	mov    %rax,%rsi
    b987:	bf 00 00 00 00       	mov    $0x0,%edi
    b98c:	e8 66 90 ff ff       	callq  49f7 <safe_div_func_int64_t_s_s>
    b991:	48 85 c0             	test   %rax,%rax
    b994:	74 07                	je     b99d <func_96+0x215>
    b996:	b8 01 00 00 00       	mov    $0x1,%eax
    b99b:	eb 05                	jmp    b9a2 <func_96+0x21a>
    b99d:	b8 00 00 00 00       	mov    $0x0,%eax
    b9a2:	48 63 d0             	movslq %eax,%rdx
    b9a5:	48 8b 85 a8 fb ff ff 	mov    -0x458(%rbp),%rax
    b9ac:	48 89 10             	mov    %rdx,(%rax)
    b9af:	48 8b 85 a8 fb ff ff 	mov    -0x458(%rbp),%rax
    b9b6:	48 8b 00             	mov    (%rax),%rax
    b9b9:	48 89 de             	mov    %rbx,%rsi
    b9bc:	48 89 c7             	mov    %rax,%rdi
    b9bf:	e8 87 96 ff ff       	callq  504b <safe_sub_func_uint64_t_u_u>
    b9c4:	48 3d 59 f1 00 00    	cmp    $0xf159,%rax
    b9ca:	77 0b                	ja     b9d7 <func_96+0x24f>
    b9cc:	48 8b 85 68 fb ff ff 	mov    -0x498(%rbp),%rax
    b9d3:	8b 00                	mov    (%rax),%eax
    b9d5:	85 c0                	test   %eax,%eax
    b9d7:	c7 85 74 fb ff ff 1f 	movl   $0xda0b9a1f,-0x48c(%rbp)
    b9de:	9a 0b da 
    b9e1:	48 8b 85 58 fb ff ff 	mov    -0x4a8(%rbp),%rax
    b9e8:	48 8b 00             	mov    (%rax),%rax
    b9eb:	48 8b 5d e8          	mov    -0x18(%rbp),%rbx
    b9ef:	64 48 33 1c 25 28 00 	xor    %fs:0x28,%rbx
    b9f6:	00 00 
    b9f8:	74 05                	je     b9ff <func_96+0x277>
    b9fa:	e8 71 86 ff ff       	callq  4070 <__stack_chk_fail@plt>
    b9ff:	48 81 c4 a8 04 00 00 	add    $0x4a8,%rsp
    ba06:	5b                   	pop    %rbx
    ba07:	5d                   	pop    %rbp
    ba08:	c3                   	retq   

000000000000ba09 <func_101>:
    ba09:	f3 0f 1e fa          	endbr64 
    ba0d:	55                   	push   %rbp
    ba0e:	48 89 e5             	mov    %rsp,%rbp
    ba11:	48 83 ec 50          	sub    $0x50,%rsp
    ba15:	89 7d bc             	mov    %edi,-0x44(%rbp)
    ba18:	89 f0                	mov    %esi,%eax
    ba1a:	88 45 b8             	mov    %al,-0x48(%rbp)
    ba1d:	64 48 8b 04 25 28 00 	mov    %fs:0x28,%rax
    ba24:	00 00 
    ba26:	48 89 45 f8          	mov    %rax,-0x8(%rbp)
    ba2a:	31 c0                	xor    %eax,%eax
    ba2c:	c7 45 c8 e4 e4 d0 3b 	movl   $0x3bd0e4e4,-0x38(%rbp)
    ba33:	48 8d 05 7e ba 00 00 	lea    0xba7e(%rip),%rax        # 174b8 <g_152>
    ba3a:	48 89 45 d8          	mov    %rax,-0x28(%rbp)
    ba3e:	c7 45 cc ff ff ff ff 	movl   $0xffffffff,-0x34(%rbp)
    ba45:	48 8d 05 96 ba 00 00 	lea    0xba96(%rip),%rax        # 174e2 <g_261>
    ba4c:	48 89 45 d0          	mov    %rax,-0x30(%rbp)
    ba50:	48 8d 45 d0          	lea    -0x30(%rbp),%rax
    ba54:	48 89 45 e0          	mov    %rax,-0x20(%rbp)
    ba58:	48 8d 05 31 ba 00 00 	lea    0xba31(%rip),%rax        # 17490 <g_46>
    ba5f:	48 89 45 e8          	mov    %rax,-0x18(%rbp)
    ba63:	48 8d 05 26 ba 00 00 	lea    0xba26(%rip),%rax        # 17490 <g_46>
    ba6a:	48 89 45 f0          	mov    %rax,-0x10(%rbp)
    ba6e:	48 8b 45 d8          	mov    -0x28(%rbp),%rax
    ba72:	48 8b 00             	mov    (%rax),%rax
    ba75:	48 8d 48 ff          	lea    -0x1(%rax),%rcx
    ba79:	48 8b 55 d8          	mov    -0x28(%rbp),%rdx
    ba7d:	48 89 0a             	mov    %rcx,(%rdx)
    ba80:	8b 15 66 b8 00 00    	mov    0xb866(%rip),%edx        # 172ec <g_42+0x22c>
    ba86:	88 15 ce ba 00 00    	mov    %dl,0xbace(%rip)        # 1755a <g_503>
    ba8c:	0f b6 15 c7 ba 00 00 	movzbl 0xbac7(%rip),%edx        # 1755a <g_503>
    ba93:	48 0f be d2          	movsbq %dl,%rdx
    ba97:	48 39 d0             	cmp    %rdx,%rax
    ba9a:	0f 95 c0             	setne  %al
    ba9d:	0f b6 c0             	movzbl %al,%eax
    baa0:	89 c6                	mov    %eax,%esi
    baa2:	bf 00 00 00 00       	mov    $0x0,%edi
    baa7:	e8 e7 90 ff ff       	callq  4b93 <safe_mul_func_uint8_t_u_u>
    baac:	0f b6 c0             	movzbl %al,%eax
    baaf:	09 45 cc             	or     %eax,-0x34(%rbp)
    bab2:	0f be 45 b8          	movsbl -0x48(%rbp),%eax
    bab6:	89 45 cc             	mov    %eax,-0x34(%rbp)
    bab9:	48 8b 05 58 cc 00 00 	mov    0xcc58(%rip),%rax        # 18718 <g_505+0x2d8>
    bac0:	48 39 45 e0          	cmp    %rax,-0x20(%rbp)
    bac4:	0f 94 c0             	sete   %al
    bac7:	0f b6 d0             	movzbl %al,%edx
    baca:	48 8b 45 e8          	mov    -0x18(%rbp),%rax
    bace:	8b 00                	mov    (%rax),%eax
    bad0:	09 c2                	or     %eax,%edx
    bad2:	48 8b 45 e8          	mov    -0x18(%rbp),%rax
    bad6:	89 10                	mov    %edx,(%rax)
    bad8:	48 8b 45 f0          	mov    -0x10(%rbp),%rax
    badc:	48 8b 4d f8          	mov    -0x8(%rbp),%rcx
    bae0:	64 48 33 0c 25 28 00 	xor    %fs:0x28,%rcx
    bae7:	00 00 
    bae9:	74 05                	je     baf0 <func_101+0xe7>
    baeb:	e8 80 85 ff ff       	callq  4070 <__stack_chk_fail@plt>
    baf0:	c9                   	leaveq 
    baf1:	c3                   	retq   

000000000000baf2 <func_109>:
    baf2:	f3 0f 1e fa          	endbr64 
    baf6:	55                   	push   %rbp
    baf7:	48 89 e5             	mov    %rsp,%rbp
    bafa:	41 54                	push   %r12
    bafc:	53                   	push   %rbx
    bafd:	48 83 c4 80          	add    $0xffffffffffffff80,%rsp
    bb01:	89 f8                	mov    %edi,%eax
    bb03:	48 89 b5 70 ff ff ff 	mov    %rsi,-0x90(%rbp)
    bb0a:	66 89 85 7c ff ff ff 	mov    %ax,-0x84(%rbp)
    bb11:	64 48 8b 04 25 28 00 	mov    %fs:0x28,%rax
    bb18:	00 00 
    bb1a:	48 89 45 e8          	mov    %rax,-0x18(%rbp)
    bb1e:	31 c0                	xor    %eax,%eax
    bb20:	48 8d 05 a1 c8 00 00 	lea    0xc8a1(%rip),%rax        # 183c8 <g_284>
    bb27:	48 89 45 c0          	mov    %rax,-0x40(%rbp)
    bb2b:	48 8d 05 96 c8 00 00 	lea    0xc896(%rip),%rax        # 183c8 <g_284>
    bb32:	48 89 45 c8          	mov    %rax,-0x38(%rbp)
    bb36:	48 8d 05 8b c8 00 00 	lea    0xc88b(%rip),%rax        # 183c8 <g_284>
    bb3d:	48 89 45 d0          	mov    %rax,-0x30(%rbp)
    bb41:	48 8d 05 80 c8 00 00 	lea    0xc880(%rip),%rax        # 183c8 <g_284>
    bb48:	48 89 45 d8          	mov    %rax,-0x28(%rbp)
    bb4c:	48 8d 05 75 c8 00 00 	lea    0xc875(%rip),%rax        # 183c8 <g_284>
    bb53:	48 89 45 e0          	mov    %rax,-0x20(%rbp)
    bb57:	48 8d 45 c0          	lea    -0x40(%rbp),%rax
    bb5b:	48 83 c0 20          	add    $0x20,%rax
    bb5f:	48 89 45 88          	mov    %rax,-0x78(%rbp)
    bb63:	48 c7 45 90 00 00 00 	movq   $0x0,-0x70(%rbp)
    bb6a:	00 
    bb6b:	48 8d 05 e6 b9 00 00 	lea    0xb9e6(%rip),%rax        # 17558 <g_485>
    bb72:	48 89 45 98          	mov    %rax,-0x68(%rbp)
    bb76:	48 8b 05 4b c8 00 00 	mov    0xc84b(%rip),%rax        # 183c8 <g_284>
    bb7d:	48 8b 00             	mov    (%rax),%rax
    bb80:	48 c7 00 00 00 00 00 	movq   $0x0,(%rax)
    bb87:	48 8b 55 e0          	mov    -0x20(%rbp),%rdx
    bb8b:	48 8b 45 88          	mov    -0x78(%rbp),%rax
    bb8f:	48 89 10             	mov    %rdx,(%rax)
    bb92:	48 8b 45 88          	mov    -0x78(%rbp),%rax
    bb96:	48 8b 00             	mov    (%rax),%rax
    bb99:	48 85 c0             	test   %rax,%rax
    bb9c:	74 08                	je     bba6 <func_109+0xb4>
    bb9e:	41 bc d9 f2 00 00    	mov    $0xf2d9,%r12d
    bba4:	eb 06                	jmp    bbac <func_109+0xba>
    bba6:	41 bc d8 f2 00 00    	mov    $0xf2d8,%r12d
    bbac:	8b 1d a6 74 00 00    	mov    0x74a6(%rip),%ebx        # 13058 <g_327>
    bbb2:	0f b7 05 29 b9 00 00 	movzwl 0xb929(%rip),%eax        # 174e2 <g_261>
    bbb9:	0f be c0             	movsbl %al,%eax
    bbbc:	be 02 00 00 00       	mov    $0x2,%esi
    bbc1:	89 c7                	mov    %eax,%edi
    bbc3:	e8 d9 86 ff ff       	callq  42a1 <safe_lshift_func_int8_t_s_s>
    bbc8:	48 0f be c0          	movsbq %al,%rax
    bbcc:	48 89 c6             	mov    %rax,%rsi
    bbcf:	48 c7 c7 ff ff ff ff 	mov    $0xffffffffffffffff,%rdi
    bbd6:	e8 a5 94 ff ff       	callq  5080 <safe_mod_func_uint64_t_u_u>
    bbdb:	89 de                	mov    %ebx,%esi
    bbdd:	bf 01 00 00 00       	mov    $0x1,%edi
    bbe2:	e8 fa 88 ff ff       	callq  44e1 <safe_lshift_func_int16_t_s_u>
    bbe7:	66 83 f8 fd          	cmp    $0xfffd,%ax
    bbeb:	0f 95 c0             	setne  %al
    bbee:	89 c2                	mov    %eax,%edx
    bbf0:	48 8b 45 98          	mov    -0x68(%rbp),%rax
    bbf4:	88 10                	mov    %dl,(%rax)
    bbf6:	48 8b 45 98          	mov    -0x68(%rbp),%rax
    bbfa:	0f b6 00             	movzbl (%rax),%eax
    bbfd:	48 0f be c0          	movsbq %al,%rax
    bc01:	49 39 c4             	cmp    %rax,%r12
    bc04:	0f 9f c0             	setg   %al
    bc07:	0f b6 c0             	movzbl %al,%eax
    bc0a:	be 78 60 00 00       	mov    $0x6078,%esi
    bc0f:	89 c7                	mov    %eax,%edi
    bc11:	e8 df 87 ff ff       	callq  43f5 <safe_mul_func_int16_t_s_s>
    bc16:	66 85 c0             	test   %ax,%ax
    bc19:	74 0c                	je     bc27 <func_109+0x135>
    bc1b:	0f b7 85 7c ff ff ff 	movzwl -0x84(%rbp),%eax
    bc22:	e9 e5 00 00 00       	jmpq   bd0c <func_109+0x21a>
    bc27:	48 c7 05 86 b8 00 00 	movq   $0x0,0xb886(%rip)        # 174b8 <g_152>
    bc2e:	00 00 00 00 
    bc32:	e9 af 00 00 00       	jmpq   bce6 <func_109+0x1f4>
    bc37:	c7 45 84 02 00 00 00 	movl   $0x2,-0x7c(%rbp)
    bc3e:	c7 05 80 b8 00 00 16 	movl   $0x16,0xb880(%rip)        # 174c8 <g_214>
    bc45:	00 00 00 
    bc48:	eb 7b                	jmp    bcc5 <func_109+0x1d3>
    bc4a:	66 c7 05 8f b8 00 00 	movw   $0x0,0xb88f(%rip)        # 174e2 <g_261>
    bc51:	00 00 
    bc53:	eb 4c                	jmp    bca1 <func_109+0x1af>
    bc55:	48 c7 45 a0 03 00 00 	movq   $0x3,-0x60(%rbp)
    bc5c:	00 
    bc5d:	48 c7 45 a8 03 00 00 	movq   $0x3,-0x58(%rbp)
    bc64:	00 
    bc65:	48 c7 45 b0 03 00 00 	movq   $0x3,-0x50(%rbp)
    bc6c:	00 
    bc6d:	48 c7 45 b8 03 00 00 	movq   $0x3,-0x48(%rbp)
    bc74:	00 
    bc75:	48 8b 45 a8          	mov    -0x58(%rbp),%rax
    bc79:	09 45 84             	or     %eax,-0x7c(%rbp)
    bc7c:	66 83 bd 7c ff ff ff 	cmpw   $0x0,-0x84(%rbp)
    bc83:	00 
    bc84:	0f b7 05 57 b8 00 00 	movzwl 0xb857(%rip),%eax        # 174e2 <g_261>
    bc8b:	0f b7 c0             	movzwl %ax,%eax
    bc8e:	be 03 00 00 00       	mov    $0x3,%esi
    bc93:	89 c7                	mov    %eax,%edi
    bc95:	e8 65 90 ff ff       	callq  4cff <safe_add_func_uint16_t_u_u>
    bc9a:	66 89 05 41 b8 00 00 	mov    %ax,0xb841(%rip)        # 174e2 <g_261>
    bca1:	0f b7 05 3a b8 00 00 	movzwl 0xb83a(%rip),%eax        # 174e2 <g_261>
    bca8:	66 83 f8 03          	cmp    $0x3,%ax
    bcac:	75 a7                	jne    bc55 <func_109+0x163>
    bcae:	66 83 bd 7c ff ff ff 	cmpw   $0x0,-0x84(%rbp)
    bcb5:	00 
    bcb6:	8b 05 0c b8 00 00    	mov    0xb80c(%rip),%eax        # 174c8 <g_214>
    bcbc:	83 e8 01             	sub    $0x1,%eax
    bcbf:	89 05 03 b8 00 00    	mov    %eax,0xb803(%rip)        # 174c8 <g_214>
    bcc5:	8b 05 fd b7 00 00    	mov    0xb7fd(%rip),%eax        # 174c8 <g_214>
    bccb:	83 f8 09             	cmp    $0x9,%eax
    bcce:	0f 87 76 ff ff ff    	ja     bc4a <func_109+0x158>
    bcd4:	48 8b 05 dd b7 00 00 	mov    0xb7dd(%rip),%rax        # 174b8 <g_152>
    bcdb:	48 83 c0 01          	add    $0x1,%rax
    bcdf:	48 89 05 d2 b7 00 00 	mov    %rax,0xb7d2(%rip)        # 174b8 <g_152>
    bce6:	48 8b 05 cb b7 00 00 	mov    0xb7cb(%rip),%rax        # 174b8 <g_152>
    bced:	48 83 f8 23          	cmp    $0x23,%rax
    bcf1:	0f 84 40 ff ff ff    	je     bc37 <func_109+0x145>
    bcf7:	48 8b 85 70 ff ff ff 	mov    -0x90(%rbp),%rax
    bcfe:	48 89 05 1b c7 00 00 	mov    %rax,0xc71b(%rip)        # 18420 <g_494>
    bd05:	0f b7 85 7c ff ff ff 	movzwl -0x84(%rbp),%eax
    bd0c:	48 8b 4d e8          	mov    -0x18(%rbp),%rcx
    bd10:	64 48 33 0c 25 28 00 	xor    %fs:0x28,%rcx
    bd17:	00 00 
    bd19:	74 05                	je     bd20 <func_109+0x22e>
    bd1b:	e8 50 83 ff ff       	callq  4070 <__stack_chk_fail@plt>
    bd20:	48 83 ec 80          	sub    $0xffffffffffffff80,%rsp
    bd24:	5b                   	pop    %rbx
    bd25:	41 5c                	pop    %r12
    bd27:	5d                   	pop    %rbp
    bd28:	c3                   	retq   

000000000000bd29 <func_113>:
    bd29:	f3 0f 1e fa          	endbr64 
    bd2d:	55                   	push   %rbp
    bd2e:	48 89 e5             	mov    %rsp,%rbp
    bd31:	41 57                	push   %r15
    bd33:	41 56                	push   %r14
    bd35:	41 55                	push   %r13
    bd37:	41 54                	push   %r12
    bd39:	53                   	push   %rbx
    bd3a:	48 81 ec 00 10 00 00 	sub    $0x1000,%rsp
    bd41:	48 83 0c 24 00       	orq    $0x0,(%rsp)
    bd46:	48 81 ec c8 0c 00 00 	sub    $0xcc8,%rsp
    bd4d:	48 89 bd 18 e3 ff ff 	mov    %rdi,-0x1ce8(%rbp)
    bd54:	64 48 8b 04 25 28 00 	mov    %fs:0x28,%rax
    bd5b:	00 00 
    bd5d:	48 89 45 c8          	mov    %rax,-0x38(%rbp)
    bd61:	31 c0                	xor    %eax,%eax
    bd63:	48 8d 05 ea 72 00 00 	lea    0x72ea(%rip),%rax        # 13054 <g_122>
    bd6a:	48 89 85 c8 e3 ff ff 	mov    %rax,-0x1c38(%rbp)
    bd71:	48 8d 85 d0 e8 ff ff 	lea    -0x1730(%rbp),%rax
    bd78:	48 8d 15 c1 7a 00 00 	lea    0x7ac1(%rip),%rdx        # 13840 <g_1236+0x7dc>
    bd7f:	b9 3f 00 00 00       	mov    $0x3f,%ecx
    bd84:	48 89 c7             	mov    %rax,%rdi
    bd87:	48 89 d6             	mov    %rdx,%rsi
    bd8a:	f3 48 a5             	rep movsq %ds:(%rsi),%es:(%rdi)
    bd8d:	c6 85 27 e3 ff ff 05 	movb   $0x5,-0x1cd9(%rbp)
    bd94:	48 8d 05 15 b7 00 00 	lea    0xb715(%rip),%rax        # 174b0 <g_132>
    bd9b:	48 89 85 c0 e3 ff ff 	mov    %rax,-0x1c40(%rbp)
    bda2:	48 8d 05 f3 b6 00 00 	lea    0xb6f3(%rip),%rax        # 1749c <g_61>
    bda9:	48 89 85 20 e6 ff ff 	mov    %rax,-0x19e0(%rbp)
    bdb0:	48 8d 05 e5 b6 00 00 	lea    0xb6e5(%rip),%rax        # 1749c <g_61>
    bdb7:	48 89 85 28 e6 ff ff 	mov    %rax,-0x19d8(%rbp)
    bdbe:	48 8d 05 d7 b6 00 00 	lea    0xb6d7(%rip),%rax        # 1749c <g_61>
    bdc5:	48 89 85 30 e6 ff ff 	mov    %rax,-0x19d0(%rbp)
    bdcc:	48 8d 05 c9 b6 00 00 	lea    0xb6c9(%rip),%rax        # 1749c <g_61>
    bdd3:	48 89 85 38 e6 ff ff 	mov    %rax,-0x19c8(%rbp)
    bdda:	48 8d 05 bb b6 00 00 	lea    0xb6bb(%rip),%rax        # 1749c <g_61>
    bde1:	48 89 85 40 e6 ff ff 	mov    %rax,-0x19c0(%rbp)
    bde8:	48 8d 05 c5 b6 00 00 	lea    0xb6c5(%rip),%rax        # 174b4 <g_148>
    bdef:	48 89 85 80 e3 ff ff 	mov    %rax,-0x1c80(%rbp)
    bdf6:	48 c7 85 d0 e3 ff ff 	movq   $0x0,-0x1c30(%rbp)
    bdfd:	00 00 00 00 
    be01:	48 8d 05 b8 b6 00 00 	lea    0xb6b8(%rip),%rax        # 174c0 <g_155>
    be08:	48 89 85 88 e3 ff ff 	mov    %rax,-0x1c78(%rbp)
    be0f:	48 8d 05 ac b6 00 00 	lea    0xb6ac(%rip),%rax        # 174c2 <g_157>
    be16:	48 89 85 d8 e3 ff ff 	mov    %rax,-0x1c28(%rbp)
    be1d:	48 8d 05 a0 b6 00 00 	lea    0xb6a0(%rip),%rax        # 174c4 <g_159>
    be24:	48 89 85 e0 e3 ff ff 	mov    %rax,-0x1c20(%rbp)
    be2b:	66 c7 85 2c e3 ff ff 	movw   $0x5af2,-0x1cd4(%rbp)
    be32:	f2 5a 
    be34:	c7 85 38 e3 ff ff 01 	movl   $0x1,-0x1cc8(%rbp)
    be3b:	00 00 00 
    be3e:	c7 85 a0 e5 ff ff 01 	movl   $0x1,-0x1a60(%rbp)
    be45:	00 00 00 
    be48:	c7 85 a4 e5 ff ff 01 	movl   $0x1,-0x1a5c(%rbp)
    be4f:	00 00 00 
    be52:	c7 85 a8 e5 ff ff 01 	movl   $0x1,-0x1a58(%rbp)
    be59:	00 00 00 
    be5c:	c7 85 ac e5 ff ff 01 	movl   $0x1,-0x1a54(%rbp)
    be63:	00 00 00 
    be66:	c7 85 b0 e5 ff ff 01 	movl   $0x1,-0x1a50(%rbp)
    be6d:	00 00 00 
    be70:	48 8d 05 c1 c4 00 00 	lea    0xc4c1(%rip),%rax        # 18338 <g_164+0x1f8>
    be77:	48 89 85 90 e3 ff ff 	mov    %rax,-0x1c70(%rbp)
    be7e:	48 8d 85 d0 e8 ff ff 	lea    -0x1730(%rbp),%rax
    be85:	48 05 f4 01 00 00    	add    $0x1f4,%rax
    be8b:	48 89 85 e8 e3 ff ff 	mov    %rax,-0x1c18(%rbp)
    be92:	66 c7 85 2e e3 ff ff 	movw   $0xffff,-0x1cd2(%rbp)
    be99:	ff ff 
    be9b:	c6 85 28 e3 ff ff 08 	movb   $0x8,-0x1cd8(%rbp)
    bea2:	c7 85 5c e3 ff ff b7 	movl   $0x65fffeb7,-0x1ca4(%rbp)
    bea9:	fe ff 65 
    beac:	c7 85 60 e3 ff ff fe 	movl   $0xfffffffe,-0x1ca0(%rbp)
    beb3:	ff ff ff 
    beb6:	48 8d 85 a0 e5 ff ff 	lea    -0x1a60(%rbp),%rax
    bebd:	48 83 c0 10          	add    $0x10,%rax
    bec1:	48 89 85 f0 e3 ff ff 	mov    %rax,-0x1c10(%rbp)
    bec8:	48 8d 85 a0 e5 ff ff 	lea    -0x1a60(%rbp),%rax
    becf:	48 83 c0 0c          	add    $0xc,%rax
    bed3:	48 89 85 f8 e3 ff ff 	mov    %rax,-0x1c08(%rbp)
    beda:	48 8d 05 33 b6 00 00 	lea    0xb633(%rip),%rax        # 17514 <g_414+0x14>
    bee1:	48 89 85 00 e4 ff ff 	mov    %rax,-0x1c00(%rbp)
    bee8:	48 c7 85 08 e4 ff ff 	movq   $0x0,-0x1bf8(%rbp)
    beef:	00 00 00 00 
    bef3:	48 8d 05 0e b6 00 00 	lea    0xb60e(%rip),%rax        # 17508 <g_414+0x8>
    befa:	48 89 85 10 e4 ff ff 	mov    %rax,-0x1bf0(%rbp)
    bf01:	48 c7 85 18 e4 ff ff 	movq   $0x0,-0x1be8(%rbp)
    bf08:	00 00 00 00 
    bf0c:	48 8d 85 38 e3 ff ff 	lea    -0x1cc8(%rbp),%rax
    bf13:	48 89 85 20 e4 ff ff 	mov    %rax,-0x1be0(%rbp)
    bf1a:	66 c7 85 30 e3 ff ff 	movw   $0xffff,-0x1cd0(%rbp)
    bf21:	ff ff 
    bf23:	48 c7 85 28 e4 ff ff 	movq   $0x1,-0x1bd8(%rbp)
    bf2a:	01 00 00 00 
    bf2e:	48 8d 85 a0 e5 ff ff 	lea    -0x1a60(%rbp),%rax
    bf35:	48 83 c0 0c          	add    $0xc,%rax
    bf39:	48 89 85 30 e4 ff ff 	mov    %rax,-0x1bd0(%rbp)
    bf40:	48 8d 85 a0 e5 ff ff 	lea    -0x1a60(%rbp),%rax
    bf47:	48 83 c0 0c          	add    $0xc,%rax
    bf4b:	48 89 85 38 e4 ff ff 	mov    %rax,-0x1bc8(%rbp)
    bf52:	c7 85 44 e3 ff ff 00 	movl   $0x0,-0x1cbc(%rbp)
    bf59:	00 00 00 
    bf5c:	eb 1e                	jmp    bf7c <func_113+0x253>
    bf5e:	8b 85 44 e3 ff ff    	mov    -0x1cbc(%rbp),%eax
    bf64:	48 98                	cltq   
    bf66:	48 8d 15 4b b5 00 00 	lea    0xb54b(%rip),%rdx        # 174b8 <g_152>
    bf6d:	48 89 94 c5 50 e6 ff 	mov    %rdx,-0x19b0(%rbp,%rax,8)
    bf74:	ff 
    bf75:	83 85 44 e3 ff ff 01 	addl   $0x1,-0x1cbc(%rbp)
    bf7c:	83 bd 44 e3 ff ff 09 	cmpl   $0x9,-0x1cbc(%rbp)
    bf83:	7e d9                	jle    bf5e <func_113+0x235>
    bf85:	c7 85 44 e3 ff ff 00 	movl   $0x0,-0x1cbc(%rbp)
    bf8c:	00 00 00 
    bf8f:	eb 1e                	jmp    bfaf <func_113+0x286>
    bf91:	8b 85 44 e3 ff ff    	mov    -0x1cbc(%rbp),%eax
    bf97:	48 98                	cltq   
    bf99:	48 8d 15 14 b5 00 00 	lea    0xb514(%rip),%rdx        # 174b4 <g_148>
    bfa0:	48 89 94 c5 80 e5 ff 	mov    %rdx,-0x1a80(%rbp,%rax,8)
    bfa7:	ff 
    bfa8:	83 85 44 e3 ff ff 01 	addl   $0x1,-0x1cbc(%rbp)
    bfaf:	83 bd 44 e3 ff ff 00 	cmpl   $0x0,-0x1cbc(%rbp)
    bfb6:	7e d9                	jle    bf91 <func_113+0x268>
    bfb8:	8b 05 d6 b4 00 00    	mov    0xb4d6(%rip),%eax        # 17494 <g_46+0x4>
    bfbe:	48 63 d8             	movslq %eax,%rbx
    bfc1:	8b 15 cd b4 00 00    	mov    0xb4cd(%rip),%edx        # 17494 <g_46+0x4>
    bfc7:	8b 05 bf b4 00 00    	mov    0xb4bf(%rip),%eax        # 1748c <g_45>
    bfcd:	39 c2                	cmp    %eax,%edx
    bfcf:	0f 9c c0             	setl   %al
    bfd2:	44 0f b6 e8          	movzbl %al,%r13d
    bfd6:	0f b6 85 27 e3 ff ff 	movzbl -0x1cd9(%rbp),%eax
    bfdd:	44 0f be e0          	movsbl %al,%r12d
    bfe1:	8b 85 50 ea ff ff    	mov    -0x15b0(%rbp),%eax
    bfe7:	98                   	cwtl   
    bfe8:	89 c6                	mov    %eax,%esi
    bfea:	bf 9a 0c 00 00       	mov    $0xc9a,%edi
    bfef:	e8 df 83 ff ff       	callq  43d3 <safe_sub_func_int16_t_s_s>
    bff4:	0f bf d0             	movswl %ax,%edx
    bff7:	8b 85 74 e9 ff ff    	mov    -0x168c(%rbp),%eax
    bffd:	39 c2                	cmp    %eax,%edx
    bfff:	0f 92 c0             	setb   %al
    c002:	0f b6 c0             	movzbl %al,%eax
    c005:	48 c7 85 18 e3 ff ff 	movq   $0x0,-0x1ce8(%rbp)
    c00c:	00 00 00 00 
    c010:	89 c6                	mov    %eax,%esi
    c012:	bf fc ff ff ff       	mov    $0xfffffffc,%edi
    c017:	e8 9a 85 ff ff       	callq  45b6 <safe_add_func_int32_t_s_s>
    c01c:	be dd b4 3b db       	mov    $0xdb3bb4dd,%esi
    c021:	bf 00 00 00 00       	mov    $0x0,%edi
    c026:	e8 da 85 ff ff       	callq  4605 <safe_sub_func_int32_t_s_s>
    c02b:	8b 15 63 b4 00 00    	mov    0xb463(%rip),%edx        # 17494 <g_46+0x4>
    c031:	31 d0                	xor    %edx,%eax
    c033:	44 89 e6             	mov    %r12d,%esi
    c036:	89 c7                	mov    %eax,%edi
    c038:	e8 8f 86 ff ff       	callq  46cc <safe_mod_func_int32_t_s_s>
    c03d:	41 39 c5             	cmp    %eax,%r13d
    c040:	0f 9d c0             	setge  %al
    c043:	0f b6 c0             	movzbl %al,%eax
    c046:	48 89 de             	mov    %rbx,%rsi
    c049:	48 89 c7             	mov    %rax,%rdi
    c04c:	e8 63 89 ff ff       	callq  49b4 <safe_mod_func_int64_t_s_s>
    c051:	8b 95 50 ea ff ff    	mov    -0x15b0(%rbp),%edx
    c057:	48 8b 85 c0 e3 ff ff 	mov    -0x1c40(%rbp),%rax
    c05e:	8b 00                	mov    (%rax),%eax
    c060:	09 d0                	or     %edx,%eax
    c062:	89 c2                	mov    %eax,%edx
    c064:	48 8b 85 c0 e3 ff ff 	mov    -0x1c40(%rbp),%rax
    c06b:	89 10                	mov    %edx,(%rax)
    c06d:	0f b7 85 2c e3 ff ff 	movzwl -0x1cd4(%rbp),%eax
    c074:	48 0f bf d8          	movswq %ax,%rbx
    c078:	44 8b 25 05 b4 00 00 	mov    0xb405(%rip),%r12d        # 17484 <g_43+0x4>
    c07f:	48 8b 85 c0 e3 ff ff 	mov    -0x1c40(%rbp),%rax
    c086:	8b 00                	mov    (%rax),%eax
    c088:	48 63 d0             	movslq %eax,%rdx
    c08b:	48 8b 85 40 e6 ff ff 	mov    -0x19c0(%rbp),%rax
    c092:	48 8d 0d 03 b4 00 00 	lea    0xb403(%rip),%rcx        # 1749c <g_61>
    c099:	48 39 c8             	cmp    %rcx,%rax
    c09c:	0f 95 c0             	setne  %al
    c09f:	0f b6 c0             	movzbl %al,%eax
    c0a2:	48 89 d6             	mov    %rdx,%rsi
    c0a5:	48 89 c7             	mov    %rax,%rdi
    c0a8:	e8 94 87 ff ff       	callq  4841 <safe_add_func_int64_t_s_s>
    c0ad:	49 89 c5             	mov    %rax,%r13
    c0b0:	48 8b 85 80 e3 ff ff 	mov    -0x1c80(%rbp),%rax
    c0b7:	48 8b 95 c0 e3 ff ff 	mov    -0x1c40(%rbp),%rdx
    c0be:	8b 12                	mov    (%rdx),%edx
    c0c0:	89 10                	mov    %edx,(%rax)
    c0c2:	48 c7 05 eb b3 00 00 	movq   $0xfffffffffffffffb,0xb3eb(%rip)        # 174b8 <g_152>
    c0c9:	fb ff ff ff 
    c0cd:	48 8b 85 18 e3 ff ff 	mov    -0x1ce8(%rbp),%rax
    c0d4:	48 c7 c6 fb ff ff ff 	mov    $0xfffffffffffffffb,%rsi
    c0db:	48 89 c7             	mov    %rax,%rdi
    c0de:	e8 c5 87 ff ff       	callq  48a8 <safe_sub_func_int64_t_s_s>
    c0e3:	48 85 c0             	test   %rax,%rax
    c0e6:	74 11                	je     c0f9 <func_113+0x3d0>
    c0e8:	48 83 bd 18 e3 ff ff 	cmpq   $0x0,-0x1ce8(%rbp)
    c0ef:	00 
    c0f0:	74 07                	je     c0f9 <func_113+0x3d0>
    c0f2:	ba 01 00 00 00       	mov    $0x1,%edx
    c0f7:	eb 05                	jmp    c0fe <func_113+0x3d5>
    c0f9:	ba 00 00 00 00       	mov    $0x0,%edx
    c0fe:	8b 05 ac b3 00 00    	mov    0xb3ac(%rip),%eax        # 174b0 <g_132>
    c104:	39 c2                	cmp    %eax,%edx
    c106:	0f 9d c0             	setge  %al
    c109:	0f b6 c8             	movzbl %al,%ecx
    c10c:	48 8b 85 88 e3 ff ff 	mov    -0x1c78(%rbp),%rax
    c113:	0f b7 10             	movzwl (%rax),%edx
    c116:	48 8b 85 88 e3 ff ff 	mov    -0x1c78(%rbp),%rax
    c11d:	21 ca                	and    %ecx,%edx
    c11f:	66 89 10             	mov    %dx,(%rax)
    c122:	0f b7 10             	movzwl (%rax),%edx
    c125:	48 8b 85 d8 e3 ff ff 	mov    -0x1c28(%rbp),%rax
    c12c:	0f b7 00             	movzwl (%rax),%eax
    c12f:	21 c2                	and    %eax,%edx
    c131:	48 8b 85 d8 e3 ff ff 	mov    -0x1c28(%rbp),%rax
    c138:	66 89 10             	mov    %dx,(%rax)
    c13b:	48 8b 85 d8 e3 ff ff 	mov    -0x1c28(%rbp),%rax
    c142:	0f b7 00             	movzwl (%rax),%eax
    c145:	98                   	cwtl   
    c146:	3d f9 ff 00 00       	cmp    $0xfff9,%eax
    c14b:	0f 94 c0             	sete   %al
    c14e:	89 c2                	mov    %eax,%edx
    c150:	48 8b 85 e0 e3 ff ff 	mov    -0x1c20(%rbp),%rax
    c157:	88 10                	mov    %dl,(%rax)
    c159:	48 8b 85 e0 e3 ff ff 	mov    -0x1c20(%rbp),%rax
    c160:	0f b6 00             	movzbl (%rax),%eax
    c163:	0f b6 c0             	movzbl %al,%eax
    c166:	49 39 c5             	cmp    %rax,%r13
    c169:	0f 9d c0             	setge  %al
    c16c:	0f b6 c0             	movzbl %al,%eax
    c16f:	44 89 e6             	mov    %r12d,%esi
    c172:	89 c7                	mov    %eax,%edi
    c174:	e8 45 8c ff ff       	callq  4dbe <safe_lshift_func_uint16_t_u_s>
    c179:	48 8b 85 80 e3 ff ff 	mov    -0x1c80(%rbp),%rax
    c180:	8b 00                	mov    (%rax),%eax
    c182:	48 98                	cltq   
    c184:	48 89 de             	mov    %rbx,%rsi
    c187:	48 89 c7             	mov    %rax,%rdi
    c18a:	e8 f1 8e ff ff       	callq  5080 <safe_mod_func_uint64_t_u_u>
    c18f:	48 8d 05 06 b3 00 00 	lea    0xb306(%rip),%rax        # 1749c <g_61>
    c196:	48 39 85 c0 e3 ff ff 	cmp    %rax,-0x1c40(%rbp)
    c19d:	75 08                	jne    c1a7 <func_113+0x47e>
    c19f:	48 83 bd 18 e3 ff ff 	cmpq   $0x0,-0x1ce8(%rbp)
    c1a6:	00 
    c1a7:	be 08 00 00 00       	mov    $0x8,%esi
    c1ac:	bf 05 b8 00 00       	mov    $0xb805,%edi
    c1b1:	e8 c4 8c ff ff       	callq  4e7a <safe_rshift_func_uint16_t_u_u>
    c1b6:	0f b7 c0             	movzwl %ax,%eax
    c1b9:	be e5 92 00 00       	mov    $0x92e5,%esi
    c1be:	89 c7                	mov    %eax,%edi
    c1c0:	e8 78 8b ff ff       	callq  4d3d <safe_mul_func_uint16_t_u_u>
    c1c5:	0f b7 c0             	movzwl %ax,%eax
    c1c8:	48 23 85 18 e3 ff ff 	and    -0x1ce8(%rbp),%rax
    c1cf:	48 85 c0             	test   %rax,%rax
    c1d2:	0f 84 3a 2c 00 00    	je     ee12 <func_113+0x30e9>
    c1d8:	c7 85 98 e3 ff ff dd 	movl   $0xd9f1b8dd,-0x1c68(%rbp)
    c1df:	b8 f1 d9 
    c1e2:	48 8d 85 a0 e5 ff ff 	lea    -0x1a60(%rbp),%rax
    c1e9:	48 83 c0 0c          	add    $0xc,%rax
    c1ed:	48 89 85 d0 ea ff ff 	mov    %rax,-0x1530(%rbp)
    c1f4:	48 8d 05 99 b2 00 00 	lea    0xb299(%rip),%rax        # 17494 <g_46+0x4>
    c1fb:	48 89 85 d8 ea ff ff 	mov    %rax,-0x1528(%rbp)
    c202:	48 c7 85 e0 ea ff ff 	movq   $0x0,-0x1520(%rbp)
    c209:	00 00 00 00 
    c20d:	48 8d 85 a0 e5 ff ff 	lea    -0x1a60(%rbp),%rax
    c214:	48 83 c0 10          	add    $0x10,%rax
    c218:	48 89 85 e8 ea ff ff 	mov    %rax,-0x1518(%rbp)
    c21f:	48 8d 85 a0 e5 ff ff 	lea    -0x1a60(%rbp),%rax
    c226:	48 83 c0 04          	add    $0x4,%rax
    c22a:	48 89 85 f0 ea ff ff 	mov    %rax,-0x1510(%rbp)
    c231:	48 c7 85 f8 ea ff ff 	movq   $0x0,-0x1508(%rbp)
    c238:	00 00 00 00 
    c23c:	48 c7 85 00 eb ff ff 	movq   $0x0,-0x1500(%rbp)
    c243:	00 00 00 00 
    c247:	48 c7 85 08 eb ff ff 	movq   $0x0,-0x14f8(%rbp)
    c24e:	00 00 00 00 
    c252:	48 c7 85 10 eb ff ff 	movq   $0x0,-0x14f0(%rbp)
    c259:	00 00 00 00 
    c25d:	48 8d 05 50 b2 00 00 	lea    0xb250(%rip),%rax        # 174b4 <g_148>
    c264:	48 89 85 18 eb ff ff 	mov    %rax,-0x14e8(%rbp)
    c26b:	48 c7 85 20 eb ff ff 	movq   $0x0,-0x14e0(%rbp)
    c272:	00 00 00 00 
    c276:	48 8d 85 a0 e5 ff ff 	lea    -0x1a60(%rbp),%rax
    c27d:	48 83 c0 0c          	add    $0xc,%rax
    c281:	48 89 85 28 eb ff ff 	mov    %rax,-0x14d8(%rbp)
    c288:	48 c7 85 30 eb ff ff 	movq   $0x0,-0x14d0(%rbp)
    c28f:	00 00 00 00 
    c293:	48 c7 85 38 eb ff ff 	movq   $0x0,-0x14c8(%rbp)
    c29a:	00 00 00 00 
    c29e:	48 8d 85 a0 e5 ff ff 	lea    -0x1a60(%rbp),%rax
    c2a5:	48 89 85 40 eb ff ff 	mov    %rax,-0x14c0(%rbp)
    c2ac:	48 c7 85 48 eb ff ff 	movq   $0x0,-0x14b8(%rbp)
    c2b3:	00 00 00 00 
    c2b7:	48 c7 85 50 eb ff ff 	movq   $0x0,-0x14b0(%rbp)
    c2be:	00 00 00 00 
    c2c2:	48 c7 85 58 eb ff ff 	movq   $0x0,-0x14a8(%rbp)
    c2c9:	00 00 00 00 
    c2cd:	48 8d 05 c0 b1 00 00 	lea    0xb1c0(%rip),%rax        # 17494 <g_46+0x4>
    c2d4:	48 89 85 60 eb ff ff 	mov    %rax,-0x14a0(%rbp)
    c2db:	48 8d 85 a0 e5 ff ff 	lea    -0x1a60(%rbp),%rax
    c2e2:	48 83 c0 04          	add    $0x4,%rax
    c2e6:	48 89 85 68 eb ff ff 	mov    %rax,-0x1498(%rbp)
    c2ed:	48 c7 85 70 eb ff ff 	movq   $0x0,-0x1490(%rbp)
    c2f4:	00 00 00 00 
    c2f8:	48 c7 85 78 eb ff ff 	movq   $0x0,-0x1488(%rbp)
    c2ff:	00 00 00 00 
    c303:	48 8d 05 8a b1 00 00 	lea    0xb18a(%rip),%rax        # 17494 <g_46+0x4>
    c30a:	48 89 85 80 eb ff ff 	mov    %rax,-0x1480(%rbp)
    c311:	48 8d 85 a0 e5 ff ff 	lea    -0x1a60(%rbp),%rax
    c318:	48 83 c0 10          	add    $0x10,%rax
    c31c:	48 89 85 88 eb ff ff 	mov    %rax,-0x1478(%rbp)
    c323:	48 c7 85 90 eb ff ff 	movq   $0x0,-0x1470(%rbp)
    c32a:	00 00 00 00 
    c32e:	48 8d 85 a0 e5 ff ff 	lea    -0x1a60(%rbp),%rax
    c335:	48 83 c0 0c          	add    $0xc,%rax
    c339:	48 89 85 98 eb ff ff 	mov    %rax,-0x1468(%rbp)
    c340:	48 8d 85 a0 e5 ff ff 	lea    -0x1a60(%rbp),%rax
    c347:	48 83 c0 10          	add    $0x10,%rax
    c34b:	48 89 85 a0 eb ff ff 	mov    %rax,-0x1460(%rbp)
    c352:	48 8d 05 5b b1 00 00 	lea    0xb15b(%rip),%rax        # 174b4 <g_148>
    c359:	48 89 85 a8 eb ff ff 	mov    %rax,-0x1458(%rbp)
    c360:	48 8d 05 2d b1 00 00 	lea    0xb12d(%rip),%rax        # 17494 <g_46+0x4>
    c367:	48 89 85 b0 eb ff ff 	mov    %rax,-0x1450(%rbp)
    c36e:	48 c7 85 b8 eb ff ff 	movq   $0x0,-0x1448(%rbp)
    c375:	00 00 00 00 
    c379:	48 c7 85 c0 eb ff ff 	movq   $0x0,-0x1440(%rbp)
    c380:	00 00 00 00 
    c384:	48 8d 85 38 e3 ff ff 	lea    -0x1cc8(%rbp),%rax
    c38b:	48 89 85 c8 eb ff ff 	mov    %rax,-0x1438(%rbp)
    c392:	48 c7 85 d0 eb ff ff 	movq   $0x0,-0x1430(%rbp)
    c399:	00 00 00 00 
    c39d:	48 8d 85 a0 e5 ff ff 	lea    -0x1a60(%rbp),%rax
    c3a4:	48 83 c0 10          	add    $0x10,%rax
    c3a8:	48 89 85 d8 eb ff ff 	mov    %rax,-0x1428(%rbp)
    c3af:	48 8d 05 de b0 00 00 	lea    0xb0de(%rip),%rax        # 17494 <g_46+0x4>
    c3b6:	48 89 85 e0 eb ff ff 	mov    %rax,-0x1420(%rbp)
    c3bd:	48 8d 85 a0 e5 ff ff 	lea    -0x1a60(%rbp),%rax
    c3c4:	48 89 85 e8 eb ff ff 	mov    %rax,-0x1418(%rbp)
    c3cb:	48 8d 85 a0 e5 ff ff 	lea    -0x1a60(%rbp),%rax
    c3d2:	48 83 c0 0c          	add    $0xc,%rax
    c3d6:	48 89 85 f0 eb ff ff 	mov    %rax,-0x1410(%rbp)
    c3dd:	48 8d 85 a0 e5 ff ff 	lea    -0x1a60(%rbp),%rax
    c3e4:	48 83 c0 0c          	add    $0xc,%rax
    c3e8:	48 89 85 f8 eb ff ff 	mov    %rax,-0x1408(%rbp)
    c3ef:	48 8d 85 a0 e5 ff ff 	lea    -0x1a60(%rbp),%rax
    c3f6:	48 83 c0 0c          	add    $0xc,%rax
    c3fa:	48 89 85 00 ec ff ff 	mov    %rax,-0x1400(%rbp)
    c401:	48 8d 85 a0 e5 ff ff 	lea    -0x1a60(%rbp),%rax
    c408:	48 83 c0 0c          	add    $0xc,%rax
    c40c:	48 89 85 08 ec ff ff 	mov    %rax,-0x13f8(%rbp)
    c413:	48 8d 05 7a b0 00 00 	lea    0xb07a(%rip),%rax        # 17494 <g_46+0x4>
    c41a:	48 89 85 10 ec ff ff 	mov    %rax,-0x13f0(%rbp)
    c421:	48 c7 85 18 ec ff ff 	movq   $0x0,-0x13e8(%rbp)
    c428:	00 00 00 00 
    c42c:	48 8d 85 a0 e5 ff ff 	lea    -0x1a60(%rbp),%rax
    c433:	48 83 c0 10          	add    $0x10,%rax
    c437:	48 89 85 20 ec ff ff 	mov    %rax,-0x13e0(%rbp)
    c43e:	48 8d 85 a0 e5 ff ff 	lea    -0x1a60(%rbp),%rax
    c445:	48 83 c0 04          	add    $0x4,%rax
    c449:	48 89 85 28 ec ff ff 	mov    %rax,-0x13d8(%rbp)
    c450:	48 c7 85 30 ec ff ff 	movq   $0x0,-0x13d0(%rbp)
    c457:	00 00 00 00 
    c45b:	48 c7 85 38 ec ff ff 	movq   $0x0,-0x13c8(%rbp)
    c462:	00 00 00 00 
    c466:	48 c7 85 40 ec ff ff 	movq   $0x0,-0x13c0(%rbp)
    c46d:	00 00 00 00 
    c471:	48 c7 85 48 ec ff ff 	movq   $0x0,-0x13b8(%rbp)
    c478:	00 00 00 00 
    c47c:	48 8d 05 31 b0 00 00 	lea    0xb031(%rip),%rax        # 174b4 <g_148>
    c483:	48 89 85 50 ec ff ff 	mov    %rax,-0x13b0(%rbp)
    c48a:	48 c7 85 58 ec ff ff 	movq   $0x0,-0x13a8(%rbp)
    c491:	00 00 00 00 
    c495:	48 8d 85 a0 e5 ff ff 	lea    -0x1a60(%rbp),%rax
    c49c:	48 83 c0 0c          	add    $0xc,%rax
    c4a0:	48 89 85 60 ec ff ff 	mov    %rax,-0x13a0(%rbp)
    c4a7:	48 c7 85 68 ec ff ff 	movq   $0x0,-0x1398(%rbp)
    c4ae:	00 00 00 00 
    c4b2:	48 c7 85 70 ec ff ff 	movq   $0x0,-0x1390(%rbp)
    c4b9:	00 00 00 00 
    c4bd:	48 8d 85 a0 e5 ff ff 	lea    -0x1a60(%rbp),%rax
    c4c4:	48 89 85 78 ec ff ff 	mov    %rax,-0x1388(%rbp)
    c4cb:	48 c7 85 80 ec ff ff 	movq   $0x0,-0x1380(%rbp)
    c4d2:	00 00 00 00 
    c4d6:	48 c7 85 88 ec ff ff 	movq   $0x0,-0x1378(%rbp)
    c4dd:	00 00 00 00 
    c4e1:	48 c7 85 90 ec ff ff 	movq   $0x0,-0x1370(%rbp)
    c4e8:	00 00 00 00 
    c4ec:	48 8d 05 a1 af 00 00 	lea    0xafa1(%rip),%rax        # 17494 <g_46+0x4>
    c4f3:	48 89 85 98 ec ff ff 	mov    %rax,-0x1368(%rbp)
    c4fa:	48 8d 85 a0 e5 ff ff 	lea    -0x1a60(%rbp),%rax
    c501:	48 83 c0 04          	add    $0x4,%rax
    c505:	48 89 85 a0 ec ff ff 	mov    %rax,-0x1360(%rbp)
    c50c:	48 c7 85 a8 ec ff ff 	movq   $0x0,-0x1358(%rbp)
    c513:	00 00 00 00 
    c517:	48 c7 85 b0 ec ff ff 	movq   $0x0,-0x1350(%rbp)
    c51e:	00 00 00 00 
    c522:	48 8d 05 6b af 00 00 	lea    0xaf6b(%rip),%rax        # 17494 <g_46+0x4>
    c529:	48 89 85 b8 ec ff ff 	mov    %rax,-0x1348(%rbp)
    c530:	48 8d 85 a0 e5 ff ff 	lea    -0x1a60(%rbp),%rax
    c537:	48 83 c0 10          	add    $0x10,%rax
    c53b:	48 89 85 c0 ec ff ff 	mov    %rax,-0x1340(%rbp)
    c542:	48 c7 85 c8 ec ff ff 	movq   $0x0,-0x1338(%rbp)
    c549:	00 00 00 00 
    c54d:	48 8d 85 a0 e5 ff ff 	lea    -0x1a60(%rbp),%rax
    c554:	48 83 c0 0c          	add    $0xc,%rax
    c558:	48 89 85 d0 ec ff ff 	mov    %rax,-0x1330(%rbp)
    c55f:	48 8d 85 a0 e5 ff ff 	lea    -0x1a60(%rbp),%rax
    c566:	48 83 c0 10          	add    $0x10,%rax
    c56a:	48 89 85 d8 ec ff ff 	mov    %rax,-0x1328(%rbp)
    c571:	48 8d 05 3c af 00 00 	lea    0xaf3c(%rip),%rax        # 174b4 <g_148>
    c578:	48 89 85 e0 ec ff ff 	mov    %rax,-0x1320(%rbp)
    c57f:	48 8d 05 0e af 00 00 	lea    0xaf0e(%rip),%rax        # 17494 <g_46+0x4>
    c586:	48 89 85 e8 ec ff ff 	mov    %rax,-0x1318(%rbp)
    c58d:	48 c7 85 f0 ec ff ff 	movq   $0x0,-0x1310(%rbp)
    c594:	00 00 00 00 
    c598:	48 c7 85 f8 ec ff ff 	movq   $0x0,-0x1308(%rbp)
    c59f:	00 00 00 00 
    c5a3:	48 8d 85 38 e3 ff ff 	lea    -0x1cc8(%rbp),%rax
    c5aa:	48 89 85 00 ed ff ff 	mov    %rax,-0x1300(%rbp)
    c5b1:	48 c7 85 08 ed ff ff 	movq   $0x0,-0x12f8(%rbp)
    c5b8:	00 00 00 00 
    c5bc:	48 8d 85 a0 e5 ff ff 	lea    -0x1a60(%rbp),%rax
    c5c3:	48 83 c0 10          	add    $0x10,%rax
    c5c7:	48 89 85 10 ed ff ff 	mov    %rax,-0x12f0(%rbp)
    c5ce:	48 8d 05 bf ae 00 00 	lea    0xaebf(%rip),%rax        # 17494 <g_46+0x4>
    c5d5:	48 89 85 18 ed ff ff 	mov    %rax,-0x12e8(%rbp)
    c5dc:	48 8d 85 a0 e5 ff ff 	lea    -0x1a60(%rbp),%rax
    c5e3:	48 89 85 20 ed ff ff 	mov    %rax,-0x12e0(%rbp)
    c5ea:	48 8d 85 a0 e5 ff ff 	lea    -0x1a60(%rbp),%rax
    c5f1:	48 83 c0 0c          	add    $0xc,%rax
    c5f5:	48 89 85 28 ed ff ff 	mov    %rax,-0x12d8(%rbp)
    c5fc:	48 8d 85 a0 e5 ff ff 	lea    -0x1a60(%rbp),%rax
    c603:	48 83 c0 0c          	add    $0xc,%rax
    c607:	48 89 85 30 ed ff ff 	mov    %rax,-0x12d0(%rbp)
    c60e:	48 8d 85 a0 e5 ff ff 	lea    -0x1a60(%rbp),%rax
    c615:	48 83 c0 0c          	add    $0xc,%rax
    c619:	48 89 85 38 ed ff ff 	mov    %rax,-0x12c8(%rbp)
    c620:	48 8d 85 a0 e5 ff ff 	lea    -0x1a60(%rbp),%rax
    c627:	48 83 c0 0c          	add    $0xc,%rax
    c62b:	48 89 85 40 ed ff ff 	mov    %rax,-0x12c0(%rbp)
    c632:	48 8d 05 5b ae 00 00 	lea    0xae5b(%rip),%rax        # 17494 <g_46+0x4>
    c639:	48 89 85 48 ed ff ff 	mov    %rax,-0x12b8(%rbp)
    c640:	48 c7 85 50 ed ff ff 	movq   $0x0,-0x12b0(%rbp)
    c647:	00 00 00 00 
    c64b:	48 8d 85 a0 e5 ff ff 	lea    -0x1a60(%rbp),%rax
    c652:	48 83 c0 10          	add    $0x10,%rax
    c656:	48 89 85 58 ed ff ff 	mov    %rax,-0x12a8(%rbp)
    c65d:	48 8d 85 a0 e5 ff ff 	lea    -0x1a60(%rbp),%rax
    c664:	48 83 c0 04          	add    $0x4,%rax
    c668:	48 89 85 60 ed ff ff 	mov    %rax,-0x12a0(%rbp)
    c66f:	48 c7 85 68 ed ff ff 	movq   $0x0,-0x1298(%rbp)
    c676:	00 00 00 00 
    c67a:	48 c7 85 70 ed ff ff 	movq   $0x0,-0x1290(%rbp)
    c681:	00 00 00 00 
    c685:	48 c7 85 78 ed ff ff 	movq   $0x0,-0x1288(%rbp)
    c68c:	00 00 00 00 
    c690:	48 c7 85 80 ed ff ff 	movq   $0x0,-0x1280(%rbp)
    c697:	00 00 00 00 
    c69b:	48 8d 05 12 ae 00 00 	lea    0xae12(%rip),%rax        # 174b4 <g_148>
    c6a2:	48 89 85 88 ed ff ff 	mov    %rax,-0x1278(%rbp)
    c6a9:	48 c7 85 90 ed ff ff 	movq   $0x0,-0x1270(%rbp)
    c6b0:	00 00 00 00 
    c6b4:	48 8d 85 a0 e5 ff ff 	lea    -0x1a60(%rbp),%rax
    c6bb:	48 83 c0 0c          	add    $0xc,%rax
    c6bf:	48 89 85 98 ed ff ff 	mov    %rax,-0x1268(%rbp)
    c6c6:	48 c7 85 a0 ed ff ff 	movq   $0x0,-0x1260(%rbp)
    c6cd:	00 00 00 00 
    c6d1:	48 c7 85 a8 ed ff ff 	movq   $0x0,-0x1258(%rbp)
    c6d8:	00 00 00 00 
    c6dc:	48 8d 85 a0 e5 ff ff 	lea    -0x1a60(%rbp),%rax
    c6e3:	48 89 85 b0 ed ff ff 	mov    %rax,-0x1250(%rbp)
    c6ea:	48 c7 85 b8 ed ff ff 	movq   $0x0,-0x1248(%rbp)
    c6f1:	00 00 00 00 
    c6f5:	48 c7 85 c0 ed ff ff 	movq   $0x0,-0x1240(%rbp)
    c6fc:	00 00 00 00 
    c700:	48 c7 85 c8 ed ff ff 	movq   $0x0,-0x1238(%rbp)
    c707:	00 00 00 00 
    c70b:	48 8d 05 82 ad 00 00 	lea    0xad82(%rip),%rax        # 17494 <g_46+0x4>
    c712:	48 89 85 d0 ed ff ff 	mov    %rax,-0x1230(%rbp)
    c719:	48 8d 85 a0 e5 ff ff 	lea    -0x1a60(%rbp),%rax
    c720:	48 83 c0 04          	add    $0x4,%rax
    c724:	48 89 85 d8 ed ff ff 	mov    %rax,-0x1228(%rbp)
    c72b:	48 c7 85 e0 ed ff ff 	movq   $0x0,-0x1220(%rbp)
    c732:	00 00 00 00 
    c736:	48 c7 85 e8 ed ff ff 	movq   $0x0,-0x1218(%rbp)
    c73d:	00 00 00 00 
    c741:	48 8d 05 4c ad 00 00 	lea    0xad4c(%rip),%rax        # 17494 <g_46+0x4>
    c748:	48 89 85 f0 ed ff ff 	mov    %rax,-0x1210(%rbp)
    c74f:	48 8d 85 a0 e5 ff ff 	lea    -0x1a60(%rbp),%rax
    c756:	48 83 c0 10          	add    $0x10,%rax
    c75a:	48 89 85 f8 ed ff ff 	mov    %rax,-0x1208(%rbp)
    c761:	48 c7 85 00 ee ff ff 	movq   $0x0,-0x1200(%rbp)
    c768:	00 00 00 00 
    c76c:	48 8d 85 a0 e5 ff ff 	lea    -0x1a60(%rbp),%rax
    c773:	48 83 c0 0c          	add    $0xc,%rax
    c777:	48 89 85 08 ee ff ff 	mov    %rax,-0x11f8(%rbp)
    c77e:	48 8d 85 a0 e5 ff ff 	lea    -0x1a60(%rbp),%rax
    c785:	48 83 c0 10          	add    $0x10,%rax
    c789:	48 89 85 10 ee ff ff 	mov    %rax,-0x11f0(%rbp)
    c790:	48 8d 05 1d ad 00 00 	lea    0xad1d(%rip),%rax        # 174b4 <g_148>
    c797:	48 89 85 18 ee ff ff 	mov    %rax,-0x11e8(%rbp)
    c79e:	48 8d 05 ef ac 00 00 	lea    0xacef(%rip),%rax        # 17494 <g_46+0x4>
    c7a5:	48 89 85 20 ee ff ff 	mov    %rax,-0x11e0(%rbp)
    c7ac:	48 c7 85 28 ee ff ff 	movq   $0x0,-0x11d8(%rbp)
    c7b3:	00 00 00 00 
    c7b7:	48 c7 85 30 ee ff ff 	movq   $0x0,-0x11d0(%rbp)
    c7be:	00 00 00 00 
    c7c2:	48 8d 85 38 e3 ff ff 	lea    -0x1cc8(%rbp),%rax
    c7c9:	48 89 85 38 ee ff ff 	mov    %rax,-0x11c8(%rbp)
    c7d0:	48 c7 85 40 ee ff ff 	movq   $0x0,-0x11c0(%rbp)
    c7d7:	00 00 00 00 
    c7db:	48 8d 85 a0 e5 ff ff 	lea    -0x1a60(%rbp),%rax
    c7e2:	48 83 c0 10          	add    $0x10,%rax
    c7e6:	48 89 85 48 ee ff ff 	mov    %rax,-0x11b8(%rbp)
    c7ed:	48 8d 05 a0 ac 00 00 	lea    0xaca0(%rip),%rax        # 17494 <g_46+0x4>
    c7f4:	48 89 85 50 ee ff ff 	mov    %rax,-0x11b0(%rbp)
    c7fb:	48 8d 85 a0 e5 ff ff 	lea    -0x1a60(%rbp),%rax
    c802:	48 89 85 58 ee ff ff 	mov    %rax,-0x11a8(%rbp)
    c809:	48 8d 85 a0 e5 ff ff 	lea    -0x1a60(%rbp),%rax
    c810:	48 83 c0 0c          	add    $0xc,%rax
    c814:	48 89 85 60 ee ff ff 	mov    %rax,-0x11a0(%rbp)
    c81b:	48 8d 85 a0 e5 ff ff 	lea    -0x1a60(%rbp),%rax
    c822:	48 83 c0 0c          	add    $0xc,%rax
    c826:	48 89 85 68 ee ff ff 	mov    %rax,-0x1198(%rbp)
    c82d:	48 8d 85 a0 e5 ff ff 	lea    -0x1a60(%rbp),%rax
    c834:	48 83 c0 0c          	add    $0xc,%rax
    c838:	48 89 85 70 ee ff ff 	mov    %rax,-0x1190(%rbp)
    c83f:	48 8d 85 a0 e5 ff ff 	lea    -0x1a60(%rbp),%rax
    c846:	48 83 c0 0c          	add    $0xc,%rax
    c84a:	48 89 85 78 ee ff ff 	mov    %rax,-0x1188(%rbp)
    c851:	48 8d 85 a0 e5 ff ff 	lea    -0x1a60(%rbp),%rax
    c858:	48 83 c0 0c          	add    $0xc,%rax
    c85c:	48 89 85 80 ee ff ff 	mov    %rax,-0x1180(%rbp)
    c863:	48 c7 85 88 ee ff ff 	movq   $0x0,-0x1178(%rbp)
    c86a:	00 00 00 00 
    c86e:	48 8d 85 a0 e5 ff ff 	lea    -0x1a60(%rbp),%rax
    c875:	48 83 c0 0c          	add    $0xc,%rax
    c879:	48 89 85 90 ee ff ff 	mov    %rax,-0x1170(%rbp)
    c880:	48 8d 05 0d ac 00 00 	lea    0xac0d(%rip),%rax        # 17494 <g_46+0x4>
    c887:	48 89 85 98 ee ff ff 	mov    %rax,-0x1168(%rbp)
    c88e:	48 c7 85 a0 ee ff ff 	movq   $0x0,-0x1160(%rbp)
    c895:	00 00 00 00 
    c899:	48 c7 85 a8 ee ff ff 	movq   $0x0,-0x1158(%rbp)
    c8a0:	00 00 00 00 
    c8a4:	48 8d 05 09 ac 00 00 	lea    0xac09(%rip),%rax        # 174b4 <g_148>
    c8ab:	48 89 85 b0 ee ff ff 	mov    %rax,-0x1150(%rbp)
    c8b2:	48 c7 85 b8 ee ff ff 	movq   $0x0,-0x1148(%rbp)
    c8b9:	00 00 00 00 
    c8bd:	48 8d 05 ec ab 00 00 	lea    0xabec(%rip),%rax        # 174b0 <g_132>
    c8c4:	48 89 85 c0 ee ff ff 	mov    %rax,-0x1140(%rbp)
    c8cb:	48 8d 85 38 e3 ff ff 	lea    -0x1cc8(%rbp),%rax
    c8d2:	48 89 85 c8 ee ff ff 	mov    %rax,-0x1138(%rbp)
    c8d9:	48 8d 05 d0 ab 00 00 	lea    0xabd0(%rip),%rax        # 174b0 <g_132>
    c8e0:	48 89 85 d0 ee ff ff 	mov    %rax,-0x1130(%rbp)
    c8e7:	48 8d 85 a0 e5 ff ff 	lea    -0x1a60(%rbp),%rax
    c8ee:	48 83 c0 04          	add    $0x4,%rax
    c8f2:	48 89 85 d8 ee ff ff 	mov    %rax,-0x1128(%rbp)
    c8f9:	48 8d 85 38 e3 ff ff 	lea    -0x1cc8(%rbp),%rax
    c900:	48 89 85 e0 ee ff ff 	mov    %rax,-0x1120(%rbp)
    c907:	48 c7 85 e8 ee ff ff 	movq   $0x0,-0x1118(%rbp)
    c90e:	00 00 00 00 
    c912:	48 8d 05 77 ab 00 00 	lea    0xab77(%rip),%rax        # 17490 <g_46>
    c919:	48 89 85 f0 ee ff ff 	mov    %rax,-0x1110(%rbp)
    c920:	48 8d 05 8d ab 00 00 	lea    0xab8d(%rip),%rax        # 174b4 <g_148>
    c927:	48 89 85 f8 ee ff ff 	mov    %rax,-0x1108(%rbp)
    c92e:	48 8d 05 7b ab 00 00 	lea    0xab7b(%rip),%rax        # 174b0 <g_132>
    c935:	48 89 85 00 ef ff ff 	mov    %rax,-0x1100(%rbp)
    c93c:	48 8d 05 51 ab 00 00 	lea    0xab51(%rip),%rax        # 17494 <g_46+0x4>
    c943:	48 89 85 08 ef ff ff 	mov    %rax,-0x10f8(%rbp)
    c94a:	48 8d 05 43 ab 00 00 	lea    0xab43(%rip),%rax        # 17494 <g_46+0x4>
    c951:	48 89 85 10 ef ff ff 	mov    %rax,-0x10f0(%rbp)
    c958:	48 8d 05 31 ab 00 00 	lea    0xab31(%rip),%rax        # 17490 <g_46>
    c95f:	48 89 85 18 ef ff ff 	mov    %rax,-0x10e8(%rbp)
    c966:	48 8d 05 23 ab 00 00 	lea    0xab23(%rip),%rax        # 17490 <g_46>
    c96d:	48 89 85 20 ef ff ff 	mov    %rax,-0x10e0(%rbp)
    c974:	48 8d 85 a0 e5 ff ff 	lea    -0x1a60(%rbp),%rax
    c97b:	48 83 c0 0c          	add    $0xc,%rax
    c97f:	48 89 85 28 ef ff ff 	mov    %rax,-0x10d8(%rbp)
    c986:	48 8d 85 a0 e5 ff ff 	lea    -0x1a60(%rbp),%rax
    c98d:	48 83 c0 0c          	add    $0xc,%rax
    c991:	48 89 85 30 ef ff ff 	mov    %rax,-0x10d0(%rbp)
    c998:	48 8d 85 a0 e5 ff ff 	lea    -0x1a60(%rbp),%rax
    c99f:	48 83 c0 04          	add    $0x4,%rax
    c9a3:	48 89 85 38 ef ff ff 	mov    %rax,-0x10c8(%rbp)
    c9aa:	48 c7 85 40 ef ff ff 	movq   $0x0,-0x10c0(%rbp)
    c9b1:	00 00 00 00 
    c9b5:	48 8d 85 a0 e5 ff ff 	lea    -0x1a60(%rbp),%rax
    c9bc:	48 83 c0 0c          	add    $0xc,%rax
    c9c0:	48 89 85 48 ef ff ff 	mov    %rax,-0x10b8(%rbp)
    c9c7:	48 8d 05 e2 aa 00 00 	lea    0xaae2(%rip),%rax        # 174b0 <g_132>
    c9ce:	48 89 85 50 ef ff ff 	mov    %rax,-0x10b0(%rbp)
    c9d5:	48 8d 85 a0 e5 ff ff 	lea    -0x1a60(%rbp),%rax
    c9dc:	48 89 85 58 ef ff ff 	mov    %rax,-0x10a8(%rbp)
    c9e3:	48 8d 05 a6 aa 00 00 	lea    0xaaa6(%rip),%rax        # 17490 <g_46>
    c9ea:	48 89 85 60 ef ff ff 	mov    %rax,-0x10a0(%rbp)
    c9f1:	48 c7 85 68 ef ff ff 	movq   $0x0,-0x1098(%rbp)
    c9f8:	00 00 00 00 
    c9fc:	48 8d 85 a0 e5 ff ff 	lea    -0x1a60(%rbp),%rax
    ca03:	48 83 c0 0c          	add    $0xc,%rax
    ca07:	48 89 85 70 ef ff ff 	mov    %rax,-0x1090(%rbp)
    ca0e:	48 8d 05 9b aa 00 00 	lea    0xaa9b(%rip),%rax        # 174b0 <g_132>
    ca15:	48 89 85 78 ef ff ff 	mov    %rax,-0x1088(%rbp)
    ca1c:	48 8d 85 a0 e5 ff ff 	lea    -0x1a60(%rbp),%rax
    ca23:	48 83 c0 0c          	add    $0xc,%rax
    ca27:	48 89 85 80 ef ff ff 	mov    %rax,-0x1080(%rbp)
    ca2e:	48 8d 85 a0 e5 ff ff 	lea    -0x1a60(%rbp),%rax
    ca35:	48 89 85 88 ef ff ff 	mov    %rax,-0x1078(%rbp)
    ca3c:	48 c7 85 90 ef ff ff 	movq   $0x0,-0x1070(%rbp)
    ca43:	00 00 00 00 
    ca47:	48 8d 85 a0 e5 ff ff 	lea    -0x1a60(%rbp),%rax
    ca4e:	48 83 c0 0c          	add    $0xc,%rax
    ca52:	48 89 85 98 ef ff ff 	mov    %rax,-0x1068(%rbp)
    ca59:	48 c7 85 a0 ef ff ff 	movq   $0x0,-0x1060(%rbp)
    ca60:	00 00 00 00 
    ca64:	48 8d 05 45 aa 00 00 	lea    0xaa45(%rip),%rax        # 174b0 <g_132>
    ca6b:	48 89 85 a8 ef ff ff 	mov    %rax,-0x1058(%rbp)
    ca72:	48 8d 85 a0 e5 ff ff 	lea    -0x1a60(%rbp),%rax
    ca79:	48 83 c0 0c          	add    $0xc,%rax
    ca7d:	48 89 85 b0 ef ff ff 	mov    %rax,-0x1050(%rbp)
    ca84:	48 8d 85 a0 e5 ff ff 	lea    -0x1a60(%rbp),%rax
    ca8b:	48 83 c0 0c          	add    $0xc,%rax
    ca8f:	48 89 85 b8 ef ff ff 	mov    %rax,-0x1048(%rbp)
    ca96:	48 c7 85 c0 ef ff ff 	movq   $0x0,-0x1040(%rbp)
    ca9d:	00 00 00 00 
    caa1:	48 8d 85 a0 e5 ff ff 	lea    -0x1a60(%rbp),%rax
    caa8:	48 83 c0 0c          	add    $0xc,%rax
    caac:	48 89 85 c8 ef ff ff 	mov    %rax,-0x1038(%rbp)
    cab3:	48 8d 05 da a9 00 00 	lea    0xa9da(%rip),%rax        # 17494 <g_46+0x4>
    caba:	48 89 85 d0 ef ff ff 	mov    %rax,-0x1030(%rbp)
    cac1:	48 c7 85 d8 ef ff ff 	movq   $0x0,-0x1028(%rbp)
    cac8:	00 00 00 00 
    cacc:	48 c7 85 e0 ef ff ff 	movq   $0x0,-0x1020(%rbp)
    cad3:	00 00 00 00 
    cad7:	48 8d 05 d6 a9 00 00 	lea    0xa9d6(%rip),%rax        # 174b4 <g_148>
    cade:	48 89 85 e8 ef ff ff 	mov    %rax,-0x1018(%rbp)
    cae5:	48 c7 85 f0 ef ff ff 	movq   $0x0,-0x1010(%rbp)
    caec:	00 00 00 00 
    caf0:	48 8d 05 b9 a9 00 00 	lea    0xa9b9(%rip),%rax        # 174b0 <g_132>
    caf7:	48 89 85 f8 ef ff ff 	mov    %rax,-0x1008(%rbp)
    cafe:	48 8d 85 38 e3 ff ff 	lea    -0x1cc8(%rbp),%rax
    cb05:	48 89 85 00 f0 ff ff 	mov    %rax,-0x1000(%rbp)
    cb0c:	48 8d 05 9d a9 00 00 	lea    0xa99d(%rip),%rax        # 174b0 <g_132>
    cb13:	48 89 85 08 f0 ff ff 	mov    %rax,-0xff8(%rbp)
    cb1a:	48 8d 85 a0 e5 ff ff 	lea    -0x1a60(%rbp),%rax
    cb21:	48 83 c0 04          	add    $0x4,%rax
    cb25:	48 89 85 10 f0 ff ff 	mov    %rax,-0xff0(%rbp)
    cb2c:	48 8d 85 38 e3 ff ff 	lea    -0x1cc8(%rbp),%rax
    cb33:	48 89 85 18 f0 ff ff 	mov    %rax,-0xfe8(%rbp)
    cb3a:	48 c7 85 20 f0 ff ff 	movq   $0x0,-0xfe0(%rbp)
    cb41:	00 00 00 00 
    cb45:	48 8d 05 44 a9 00 00 	lea    0xa944(%rip),%rax        # 17490 <g_46>
    cb4c:	48 89 85 28 f0 ff ff 	mov    %rax,-0xfd8(%rbp)
    cb53:	48 8d 05 5a a9 00 00 	lea    0xa95a(%rip),%rax        # 174b4 <g_148>
    cb5a:	48 89 85 30 f0 ff ff 	mov    %rax,-0xfd0(%rbp)
    cb61:	48 8d 05 48 a9 00 00 	lea    0xa948(%rip),%rax        # 174b0 <g_132>
    cb68:	48 89 85 38 f0 ff ff 	mov    %rax,-0xfc8(%rbp)
    cb6f:	48 8d 05 1e a9 00 00 	lea    0xa91e(%rip),%rax        # 17494 <g_46+0x4>
    cb76:	48 89 85 40 f0 ff ff 	mov    %rax,-0xfc0(%rbp)
    cb7d:	48 8d 05 10 a9 00 00 	lea    0xa910(%rip),%rax        # 17494 <g_46+0x4>
    cb84:	48 89 85 48 f0 ff ff 	mov    %rax,-0xfb8(%rbp)
    cb8b:	48 8d 05 fe a8 00 00 	lea    0xa8fe(%rip),%rax        # 17490 <g_46>
    cb92:	48 89 85 50 f0 ff ff 	mov    %rax,-0xfb0(%rbp)
    cb99:	48 8d 05 f0 a8 00 00 	lea    0xa8f0(%rip),%rax        # 17490 <g_46>
    cba0:	48 89 85 58 f0 ff ff 	mov    %rax,-0xfa8(%rbp)
    cba7:	48 8d 85 a0 e5 ff ff 	lea    -0x1a60(%rbp),%rax
    cbae:	48 83 c0 0c          	add    $0xc,%rax
    cbb2:	48 89 85 60 f0 ff ff 	mov    %rax,-0xfa0(%rbp)
    cbb9:	48 8d 85 a0 e5 ff ff 	lea    -0x1a60(%rbp),%rax
    cbc0:	48 83 c0 0c          	add    $0xc,%rax
    cbc4:	48 89 85 68 f0 ff ff 	mov    %rax,-0xf98(%rbp)
    cbcb:	48 8d 85 d0 ea ff ff 	lea    -0x1530(%rbp),%rax
    cbd2:	48 05 20 05 00 00    	add    $0x520,%rax
    cbd8:	48 89 85 a0 e3 ff ff 	mov    %rax,-0x1c60(%rbp)
    cbdf:	48 8d 85 a0 e3 ff ff 	lea    -0x1c60(%rbp),%rax
    cbe6:	48 89 85 20 e5 ff ff 	mov    %rax,-0x1ae0(%rbp)
    cbed:	48 8d 05 ce a8 00 00 	lea    0xa8ce(%rip),%rax        # 174c2 <g_157>
    cbf4:	48 89 85 28 e5 ff ff 	mov    %rax,-0x1ad8(%rbp)
    cbfb:	48 8d 05 d6 a8 00 00 	lea    0xa8d6(%rip),%rax        # 174d8 <g_216>
    cc02:	48 89 85 a8 e3 ff ff 	mov    %rax,-0x1c58(%rbp)
    cc09:	48 8d 85 a8 e3 ff ff 	lea    -0x1c58(%rbp),%rax
    cc10:	48 89 85 f0 f7 ff ff 	mov    %rax,-0x810(%rbp)
    cc17:	48 8d 85 a8 e3 ff ff 	lea    -0x1c58(%rbp),%rax
    cc1e:	48 89 85 f8 f7 ff ff 	mov    %rax,-0x808(%rbp)
    cc25:	48 8d 85 a8 e3 ff ff 	lea    -0x1c58(%rbp),%rax
    cc2c:	48 89 85 00 f8 ff ff 	mov    %rax,-0x800(%rbp)
    cc33:	48 8d 85 a8 e3 ff ff 	lea    -0x1c58(%rbp),%rax
    cc3a:	48 89 85 08 f8 ff ff 	mov    %rax,-0x7f8(%rbp)
    cc41:	48 c7 85 10 f8 ff ff 	movq   $0x0,-0x7f0(%rbp)
    cc48:	00 00 00 00 
    cc4c:	48 8d 85 a8 e3 ff ff 	lea    -0x1c58(%rbp),%rax
    cc53:	48 89 85 18 f8 ff ff 	mov    %rax,-0x7e8(%rbp)
    cc5a:	48 8d 85 a8 e3 ff ff 	lea    -0x1c58(%rbp),%rax
    cc61:	48 89 85 20 f8 ff ff 	mov    %rax,-0x7e0(%rbp)
    cc68:	48 8d 85 a8 e3 ff ff 	lea    -0x1c58(%rbp),%rax
    cc6f:	48 89 85 28 f8 ff ff 	mov    %rax,-0x7d8(%rbp)
    cc76:	48 8d 85 a8 e3 ff ff 	lea    -0x1c58(%rbp),%rax
    cc7d:	48 89 85 30 f8 ff ff 	mov    %rax,-0x7d0(%rbp)
    cc84:	48 8d 85 a8 e3 ff ff 	lea    -0x1c58(%rbp),%rax
    cc8b:	48 89 85 38 f8 ff ff 	mov    %rax,-0x7c8(%rbp)
    cc92:	48 8d 85 a8 e3 ff ff 	lea    -0x1c58(%rbp),%rax
    cc99:	48 89 85 40 f8 ff ff 	mov    %rax,-0x7c0(%rbp)
    cca0:	48 8d 85 a8 e3 ff ff 	lea    -0x1c58(%rbp),%rax
    cca7:	48 89 85 48 f8 ff ff 	mov    %rax,-0x7b8(%rbp)
    ccae:	48 8d 85 a8 e3 ff ff 	lea    -0x1c58(%rbp),%rax
    ccb5:	48 89 85 50 f8 ff ff 	mov    %rax,-0x7b0(%rbp)
    ccbc:	48 8d 85 a8 e3 ff ff 	lea    -0x1c58(%rbp),%rax
    ccc3:	48 89 85 58 f8 ff ff 	mov    %rax,-0x7a8(%rbp)
    ccca:	48 8d 85 a8 e3 ff ff 	lea    -0x1c58(%rbp),%rax
    ccd1:	48 89 85 60 f8 ff ff 	mov    %rax,-0x7a0(%rbp)
    ccd8:	48 8d 85 a8 e3 ff ff 	lea    -0x1c58(%rbp),%rax
    ccdf:	48 89 85 68 f8 ff ff 	mov    %rax,-0x798(%rbp)
    cce6:	48 8d 85 a8 e3 ff ff 	lea    -0x1c58(%rbp),%rax
    cced:	48 89 85 70 f8 ff ff 	mov    %rax,-0x790(%rbp)
    ccf4:	48 8d 85 a8 e3 ff ff 	lea    -0x1c58(%rbp),%rax
    ccfb:	48 89 85 78 f8 ff ff 	mov    %rax,-0x788(%rbp)
    cd02:	48 8d 85 a8 e3 ff ff 	lea    -0x1c58(%rbp),%rax
    cd09:	48 89 85 80 f8 ff ff 	mov    %rax,-0x780(%rbp)
    cd10:	48 8d 85 a8 e3 ff ff 	lea    -0x1c58(%rbp),%rax
    cd17:	48 89 85 88 f8 ff ff 	mov    %rax,-0x778(%rbp)
    cd1e:	48 8d 85 a8 e3 ff ff 	lea    -0x1c58(%rbp),%rax
    cd25:	48 89 85 90 f8 ff ff 	mov    %rax,-0x770(%rbp)
    cd2c:	48 c7 85 98 f8 ff ff 	movq   $0x0,-0x768(%rbp)
    cd33:	00 00 00 00 
    cd37:	48 8d 85 a8 e3 ff ff 	lea    -0x1c58(%rbp),%rax
    cd3e:	48 89 85 a0 f8 ff ff 	mov    %rax,-0x760(%rbp)
    cd45:	48 8d 85 a8 e3 ff ff 	lea    -0x1c58(%rbp),%rax
    cd4c:	48 89 85 a8 f8 ff ff 	mov    %rax,-0x758(%rbp)
    cd53:	48 8d 85 a8 e3 ff ff 	lea    -0x1c58(%rbp),%rax
    cd5a:	48 89 85 b0 f8 ff ff 	mov    %rax,-0x750(%rbp)
    cd61:	48 8d 85 a8 e3 ff ff 	lea    -0x1c58(%rbp),%rax
    cd68:	48 89 85 b8 f8 ff ff 	mov    %rax,-0x748(%rbp)
    cd6f:	48 8d 85 a8 e3 ff ff 	lea    -0x1c58(%rbp),%rax
    cd76:	48 89 85 c0 f8 ff ff 	mov    %rax,-0x740(%rbp)
    cd7d:	48 8d 85 a8 e3 ff ff 	lea    -0x1c58(%rbp),%rax
    cd84:	48 89 85 c8 f8 ff ff 	mov    %rax,-0x738(%rbp)
    cd8b:	48 c7 85 d0 f8 ff ff 	movq   $0x0,-0x730(%rbp)
    cd92:	00 00 00 00 
    cd96:	48 c7 85 d8 f8 ff ff 	movq   $0x0,-0x728(%rbp)
    cd9d:	00 00 00 00 
    cda1:	48 8d 85 a8 e3 ff ff 	lea    -0x1c58(%rbp),%rax
    cda8:	48 89 85 e0 f8 ff ff 	mov    %rax,-0x720(%rbp)
    cdaf:	48 8d 85 a8 e3 ff ff 	lea    -0x1c58(%rbp),%rax
    cdb6:	48 89 85 e8 f8 ff ff 	mov    %rax,-0x718(%rbp)
    cdbd:	48 c7 85 f0 f8 ff ff 	movq   $0x0,-0x710(%rbp)
    cdc4:	00 00 00 00 
    cdc8:	48 c7 85 f8 f8 ff ff 	movq   $0x0,-0x708(%rbp)
    cdcf:	00 00 00 00 
    cdd3:	48 8d 85 a8 e3 ff ff 	lea    -0x1c58(%rbp),%rax
    cdda:	48 89 85 00 f9 ff ff 	mov    %rax,-0x700(%rbp)
    cde1:	48 8d 85 a8 e3 ff ff 	lea    -0x1c58(%rbp),%rax
    cde8:	48 89 85 08 f9 ff ff 	mov    %rax,-0x6f8(%rbp)
    cdef:	48 c7 85 10 f9 ff ff 	movq   $0x0,-0x6f0(%rbp)
    cdf6:	00 00 00 00 
    cdfa:	48 8d 85 a8 e3 ff ff 	lea    -0x1c58(%rbp),%rax
    ce01:	48 89 85 18 f9 ff ff 	mov    %rax,-0x6e8(%rbp)
    ce08:	48 8d 85 a8 e3 ff ff 	lea    -0x1c58(%rbp),%rax
    ce0f:	48 89 85 20 f9 ff ff 	mov    %rax,-0x6e0(%rbp)
    ce16:	48 8d 85 a8 e3 ff ff 	lea    -0x1c58(%rbp),%rax
    ce1d:	48 89 85 28 f9 ff ff 	mov    %rax,-0x6d8(%rbp)
    ce24:	48 8d 85 a8 e3 ff ff 	lea    -0x1c58(%rbp),%rax
    ce2b:	48 89 85 30 f9 ff ff 	mov    %rax,-0x6d0(%rbp)
    ce32:	48 8d 85 a8 e3 ff ff 	lea    -0x1c58(%rbp),%rax
    ce39:	48 89 85 38 f9 ff ff 	mov    %rax,-0x6c8(%rbp)
    ce40:	48 8d 85 a8 e3 ff ff 	lea    -0x1c58(%rbp),%rax
    ce47:	48 89 85 40 f9 ff ff 	mov    %rax,-0x6c0(%rbp)
    ce4e:	48 c7 85 48 f9 ff ff 	movq   $0x0,-0x6b8(%rbp)
    ce55:	00 00 00 00 
    ce59:	48 8d 85 a8 e3 ff ff 	lea    -0x1c58(%rbp),%rax
    ce60:	48 89 85 50 f9 ff ff 	mov    %rax,-0x6b0(%rbp)
    ce67:	48 8d 85 a8 e3 ff ff 	lea    -0x1c58(%rbp),%rax
    ce6e:	48 89 85 58 f9 ff ff 	mov    %rax,-0x6a8(%rbp)
    ce75:	48 c7 85 60 f9 ff ff 	movq   $0x0,-0x6a0(%rbp)
    ce7c:	00 00 00 00 
    ce80:	48 8d 85 a8 e3 ff ff 	lea    -0x1c58(%rbp),%rax
    ce87:	48 89 85 68 f9 ff ff 	mov    %rax,-0x698(%rbp)
    ce8e:	48 c7 85 70 f9 ff ff 	movq   $0x0,-0x690(%rbp)
    ce95:	00 00 00 00 
    ce99:	48 8d 85 a8 e3 ff ff 	lea    -0x1c58(%rbp),%rax
    cea0:	48 89 85 78 f9 ff ff 	mov    %rax,-0x688(%rbp)
    cea7:	48 8d 85 a8 e3 ff ff 	lea    -0x1c58(%rbp),%rax
    ceae:	48 89 85 80 f9 ff ff 	mov    %rax,-0x680(%rbp)
    ceb5:	48 8d 85 a8 e3 ff ff 	lea    -0x1c58(%rbp),%rax
    cebc:	48 89 85 88 f9 ff ff 	mov    %rax,-0x678(%rbp)
    cec3:	48 8d 85 a8 e3 ff ff 	lea    -0x1c58(%rbp),%rax
    ceca:	48 89 85 90 f9 ff ff 	mov    %rax,-0x670(%rbp)
    ced1:	48 8d 85 a8 e3 ff ff 	lea    -0x1c58(%rbp),%rax
    ced8:	48 89 85 98 f9 ff ff 	mov    %rax,-0x668(%rbp)
    cedf:	48 c7 85 a0 f9 ff ff 	movq   $0x0,-0x660(%rbp)
    cee6:	00 00 00 00 
    ceea:	48 8d 85 a8 e3 ff ff 	lea    -0x1c58(%rbp),%rax
    cef1:	48 89 85 a8 f9 ff ff 	mov    %rax,-0x658(%rbp)
    cef8:	48 8d 85 a8 e3 ff ff 	lea    -0x1c58(%rbp),%rax
    ceff:	48 89 85 b0 f9 ff ff 	mov    %rax,-0x650(%rbp)
    cf06:	48 8d 85 a8 e3 ff ff 	lea    -0x1c58(%rbp),%rax
    cf0d:	48 89 85 b8 f9 ff ff 	mov    %rax,-0x648(%rbp)
    cf14:	48 c7 85 c0 f9 ff ff 	movq   $0x0,-0x640(%rbp)
    cf1b:	00 00 00 00 
    cf1f:	48 8d 85 a8 e3 ff ff 	lea    -0x1c58(%rbp),%rax
    cf26:	48 89 85 c8 f9 ff ff 	mov    %rax,-0x638(%rbp)
    cf2d:	48 8d 85 a8 e3 ff ff 	lea    -0x1c58(%rbp),%rax
    cf34:	48 89 85 d0 f9 ff ff 	mov    %rax,-0x630(%rbp)
    cf3b:	48 8d 85 a8 e3 ff ff 	lea    -0x1c58(%rbp),%rax
    cf42:	48 89 85 d8 f9 ff ff 	mov    %rax,-0x628(%rbp)
    cf49:	48 c7 85 e0 f9 ff ff 	movq   $0x0,-0x620(%rbp)
    cf50:	00 00 00 00 
    cf54:	48 8d 85 a8 e3 ff ff 	lea    -0x1c58(%rbp),%rax
    cf5b:	48 89 85 e8 f9 ff ff 	mov    %rax,-0x618(%rbp)
    cf62:	48 8d 85 a8 e3 ff ff 	lea    -0x1c58(%rbp),%rax
    cf69:	48 89 85 f0 f9 ff ff 	mov    %rax,-0x610(%rbp)
    cf70:	48 8d 85 a8 e3 ff ff 	lea    -0x1c58(%rbp),%rax
    cf77:	48 89 85 f8 f9 ff ff 	mov    %rax,-0x608(%rbp)
    cf7e:	48 8d 85 a8 e3 ff ff 	lea    -0x1c58(%rbp),%rax
    cf85:	48 89 85 00 fa ff ff 	mov    %rax,-0x600(%rbp)
    cf8c:	48 8d 85 a8 e3 ff ff 	lea    -0x1c58(%rbp),%rax
    cf93:	48 89 85 08 fa ff ff 	mov    %rax,-0x5f8(%rbp)
    cf9a:	48 8d 85 a8 e3 ff ff 	lea    -0x1c58(%rbp),%rax
    cfa1:	48 89 85 10 fa ff ff 	mov    %rax,-0x5f0(%rbp)
    cfa8:	48 8d 85 a8 e3 ff ff 	lea    -0x1c58(%rbp),%rax
    cfaf:	48 89 85 18 fa ff ff 	mov    %rax,-0x5e8(%rbp)
    cfb6:	48 8d 85 a8 e3 ff ff 	lea    -0x1c58(%rbp),%rax
    cfbd:	48 89 85 20 fa ff ff 	mov    %rax,-0x5e0(%rbp)
    cfc4:	48 8d 85 a8 e3 ff ff 	lea    -0x1c58(%rbp),%rax
    cfcb:	48 89 85 28 fa ff ff 	mov    %rax,-0x5d8(%rbp)
    cfd2:	48 8d 85 a8 e3 ff ff 	lea    -0x1c58(%rbp),%rax
    cfd9:	48 89 85 30 fa ff ff 	mov    %rax,-0x5d0(%rbp)
    cfe0:	48 c7 85 38 fa ff ff 	movq   $0x0,-0x5c8(%rbp)
    cfe7:	00 00 00 00 
    cfeb:	48 8d 85 a8 e3 ff ff 	lea    -0x1c58(%rbp),%rax
    cff2:	48 89 85 40 fa ff ff 	mov    %rax,-0x5c0(%rbp)
    cff9:	48 8d 85 a8 e3 ff ff 	lea    -0x1c58(%rbp),%rax
    d000:	48 89 85 48 fa ff ff 	mov    %rax,-0x5b8(%rbp)
    d007:	48 8d 85 a8 e3 ff ff 	lea    -0x1c58(%rbp),%rax
    d00e:	48 89 85 50 fa ff ff 	mov    %rax,-0x5b0(%rbp)
    d015:	48 8d 85 a8 e3 ff ff 	lea    -0x1c58(%rbp),%rax
    d01c:	48 89 85 58 fa ff ff 	mov    %rax,-0x5a8(%rbp)
    d023:	48 8d 85 a8 e3 ff ff 	lea    -0x1c58(%rbp),%rax
    d02a:	48 89 85 60 fa ff ff 	mov    %rax,-0x5a0(%rbp)
    d031:	48 8d 85 a8 e3 ff ff 	lea    -0x1c58(%rbp),%rax
    d038:	48 89 85 68 fa ff ff 	mov    %rax,-0x598(%rbp)
    d03f:	48 8d 85 a8 e3 ff ff 	lea    -0x1c58(%rbp),%rax
    d046:	48 89 85 70 fa ff ff 	mov    %rax,-0x590(%rbp)
    d04d:	48 8d 85 a8 e3 ff ff 	lea    -0x1c58(%rbp),%rax
    d054:	48 89 85 78 fa ff ff 	mov    %rax,-0x588(%rbp)
    d05b:	48 c7 85 80 fa ff ff 	movq   $0x0,-0x580(%rbp)
    d062:	00 00 00 00 
    d066:	48 8d 85 a8 e3 ff ff 	lea    -0x1c58(%rbp),%rax
    d06d:	48 89 85 88 fa ff ff 	mov    %rax,-0x578(%rbp)
    d074:	48 8d 85 a8 e3 ff ff 	lea    -0x1c58(%rbp),%rax
    d07b:	48 89 85 90 fa ff ff 	mov    %rax,-0x570(%rbp)
    d082:	48 c7 85 98 fa ff ff 	movq   $0x0,-0x568(%rbp)
    d089:	00 00 00 00 
    d08d:	48 8d 85 a8 e3 ff ff 	lea    -0x1c58(%rbp),%rax
    d094:	48 89 85 a0 fa ff ff 	mov    %rax,-0x560(%rbp)
    d09b:	48 8d 85 a8 e3 ff ff 	lea    -0x1c58(%rbp),%rax
    d0a2:	48 89 85 a8 fa ff ff 	mov    %rax,-0x558(%rbp)
    d0a9:	48 8d 85 a8 e3 ff ff 	lea    -0x1c58(%rbp),%rax
    d0b0:	48 89 85 b0 fa ff ff 	mov    %rax,-0x550(%rbp)
    d0b7:	48 c7 85 b8 fa ff ff 	movq   $0x0,-0x548(%rbp)
    d0be:	00 00 00 00 
    d0c2:	48 8d 85 a8 e3 ff ff 	lea    -0x1c58(%rbp),%rax
    d0c9:	48 89 85 c0 fa ff ff 	mov    %rax,-0x540(%rbp)
    d0d0:	48 8d 85 a8 e3 ff ff 	lea    -0x1c58(%rbp),%rax
    d0d7:	48 89 85 c8 fa ff ff 	mov    %rax,-0x538(%rbp)
    d0de:	48 8d 85 a8 e3 ff ff 	lea    -0x1c58(%rbp),%rax
    d0e5:	48 89 85 d0 fa ff ff 	mov    %rax,-0x530(%rbp)
    d0ec:	48 8d 85 a8 e3 ff ff 	lea    -0x1c58(%rbp),%rax
    d0f3:	48 89 85 d8 fa ff ff 	mov    %rax,-0x528(%rbp)
    d0fa:	48 8d 85 a8 e3 ff ff 	lea    -0x1c58(%rbp),%rax
    d101:	48 89 85 e0 fa ff ff 	mov    %rax,-0x520(%rbp)
    d108:	48 c7 85 e8 fa ff ff 	movq   $0x0,-0x518(%rbp)
    d10f:	00 00 00 00 
    d113:	48 8d 85 a8 e3 ff ff 	lea    -0x1c58(%rbp),%rax
    d11a:	48 89 85 f0 fa ff ff 	mov    %rax,-0x510(%rbp)
    d121:	48 8d 85 a8 e3 ff ff 	lea    -0x1c58(%rbp),%rax
    d128:	48 89 85 f8 fa ff ff 	mov    %rax,-0x508(%rbp)
    d12f:	48 8d 85 a8 e3 ff ff 	lea    -0x1c58(%rbp),%rax
    d136:	48 89 85 00 fb ff ff 	mov    %rax,-0x500(%rbp)
    d13d:	48 8d 85 a8 e3 ff ff 	lea    -0x1c58(%rbp),%rax
    d144:	48 89 85 08 fb ff ff 	mov    %rax,-0x4f8(%rbp)
    d14b:	48 8d 85 a8 e3 ff ff 	lea    -0x1c58(%rbp),%rax
    d152:	48 89 85 10 fb ff ff 	mov    %rax,-0x4f0(%rbp)
    d159:	48 8d 85 a8 e3 ff ff 	lea    -0x1c58(%rbp),%rax
    d160:	48 89 85 18 fb ff ff 	mov    %rax,-0x4e8(%rbp)
    d167:	48 c7 85 20 fb ff ff 	movq   $0x0,-0x4e0(%rbp)
    d16e:	00 00 00 00 
    d172:	48 c7 85 28 fb ff ff 	movq   $0x0,-0x4d8(%rbp)
    d179:	00 00 00 00 
    d17d:	48 8d 85 a8 e3 ff ff 	lea    -0x1c58(%rbp),%rax
    d184:	48 89 85 30 fb ff ff 	mov    %rax,-0x4d0(%rbp)
    d18b:	48 8d 85 a8 e3 ff ff 	lea    -0x1c58(%rbp),%rax
    d192:	48 89 85 38 fb ff ff 	mov    %rax,-0x4c8(%rbp)
    d199:	48 8d 85 a8 e3 ff ff 	lea    -0x1c58(%rbp),%rax
    d1a0:	48 89 85 40 fb ff ff 	mov    %rax,-0x4c0(%rbp)
    d1a7:	48 8d 85 a8 e3 ff ff 	lea    -0x1c58(%rbp),%rax
    d1ae:	48 89 85 48 fb ff ff 	mov    %rax,-0x4b8(%rbp)
    d1b5:	48 8d 85 a8 e3 ff ff 	lea    -0x1c58(%rbp),%rax
    d1bc:	48 89 85 50 fb ff ff 	mov    %rax,-0x4b0(%rbp)
    d1c3:	48 8d 85 a8 e3 ff ff 	lea    -0x1c58(%rbp),%rax
    d1ca:	48 89 85 58 fb ff ff 	mov    %rax,-0x4a8(%rbp)
    d1d1:	48 c7 85 60 fb ff ff 	movq   $0x0,-0x4a0(%rbp)
    d1d8:	00 00 00 00 
    d1dc:	48 8d 85 a8 e3 ff ff 	lea    -0x1c58(%rbp),%rax
    d1e3:	48 89 85 68 fb ff ff 	mov    %rax,-0x498(%rbp)
    d1ea:	48 8d 85 a8 e3 ff ff 	lea    -0x1c58(%rbp),%rax
    d1f1:	48 89 85 70 fb ff ff 	mov    %rax,-0x490(%rbp)
    d1f8:	48 8d 85 a8 e3 ff ff 	lea    -0x1c58(%rbp),%rax
    d1ff:	48 89 85 78 fb ff ff 	mov    %rax,-0x488(%rbp)
    d206:	48 8d 85 a8 e3 ff ff 	lea    -0x1c58(%rbp),%rax
    d20d:	48 89 85 80 fb ff ff 	mov    %rax,-0x480(%rbp)
    d214:	48 8d 85 a8 e3 ff ff 	lea    -0x1c58(%rbp),%rax
    d21b:	48 89 85 88 fb ff ff 	mov    %rax,-0x478(%rbp)
    d222:	48 8d 85 a8 e3 ff ff 	lea    -0x1c58(%rbp),%rax
    d229:	48 89 85 90 fb ff ff 	mov    %rax,-0x470(%rbp)
    d230:	48 8d 85 a8 e3 ff ff 	lea    -0x1c58(%rbp),%rax
    d237:	48 89 85 98 fb ff ff 	mov    %rax,-0x468(%rbp)
    d23e:	48 8d 85 a8 e3 ff ff 	lea    -0x1c58(%rbp),%rax
    d245:	48 89 85 a0 fb ff ff 	mov    %rax,-0x460(%rbp)
    d24c:	48 8d 85 a8 e3 ff ff 	lea    -0x1c58(%rbp),%rax
    d253:	48 89 85 a8 fb ff ff 	mov    %rax,-0x458(%rbp)
    d25a:	48 c7 85 b0 fb ff ff 	movq   $0x0,-0x450(%rbp)
    d261:	00 00 00 00 
    d265:	48 8d 85 a8 e3 ff ff 	lea    -0x1c58(%rbp),%rax
    d26c:	48 89 85 b8 fb ff ff 	mov    %rax,-0x448(%rbp)
    d273:	48 8d 85 a8 e3 ff ff 	lea    -0x1c58(%rbp),%rax
    d27a:	48 89 85 c0 fb ff ff 	mov    %rax,-0x440(%rbp)
    d281:	48 8d 85 a8 e3 ff ff 	lea    -0x1c58(%rbp),%rax
    d288:	48 89 85 c8 fb ff ff 	mov    %rax,-0x438(%rbp)
    d28f:	48 8d 85 a8 e3 ff ff 	lea    -0x1c58(%rbp),%rax
    d296:	48 89 85 d0 fb ff ff 	mov    %rax,-0x430(%rbp)
    d29d:	48 8d 85 a8 e3 ff ff 	lea    -0x1c58(%rbp),%rax
    d2a4:	48 89 85 d8 fb ff ff 	mov    %rax,-0x428(%rbp)
    d2ab:	48 8d 85 a8 e3 ff ff 	lea    -0x1c58(%rbp),%rax
    d2b2:	48 89 85 e0 fb ff ff 	mov    %rax,-0x420(%rbp)
    d2b9:	48 8d 85 a8 e3 ff ff 	lea    -0x1c58(%rbp),%rax
    d2c0:	48 89 85 e8 fb ff ff 	mov    %rax,-0x418(%rbp)
    d2c7:	48 8d 85 a8 e3 ff ff 	lea    -0x1c58(%rbp),%rax
    d2ce:	48 89 85 f0 fb ff ff 	mov    %rax,-0x410(%rbp)
    d2d5:	48 8d 85 a8 e3 ff ff 	lea    -0x1c58(%rbp),%rax
    d2dc:	48 89 85 f8 fb ff ff 	mov    %rax,-0x408(%rbp)
    d2e3:	48 8d 85 a8 e3 ff ff 	lea    -0x1c58(%rbp),%rax
    d2ea:	48 89 85 00 fc ff ff 	mov    %rax,-0x400(%rbp)
    d2f1:	48 8d 85 a8 e3 ff ff 	lea    -0x1c58(%rbp),%rax
    d2f8:	48 89 85 08 fc ff ff 	mov    %rax,-0x3f8(%rbp)
    d2ff:	48 8d 85 a8 e3 ff ff 	lea    -0x1c58(%rbp),%rax
    d306:	48 89 85 10 fc ff ff 	mov    %rax,-0x3f0(%rbp)
    d30d:	48 8d 85 a8 e3 ff ff 	lea    -0x1c58(%rbp),%rax
    d314:	48 89 85 18 fc ff ff 	mov    %rax,-0x3e8(%rbp)
    d31b:	48 8d 85 a8 e3 ff ff 	lea    -0x1c58(%rbp),%rax
    d322:	48 89 85 20 fc ff ff 	mov    %rax,-0x3e0(%rbp)
    d329:	48 8d 85 a8 e3 ff ff 	lea    -0x1c58(%rbp),%rax
    d330:	48 89 85 28 fc ff ff 	mov    %rax,-0x3d8(%rbp)
    d337:	48 8d 85 a8 e3 ff ff 	lea    -0x1c58(%rbp),%rax
    d33e:	48 89 85 30 fc ff ff 	mov    %rax,-0x3d0(%rbp)
    d345:	48 c7 85 38 fc ff ff 	movq   $0x0,-0x3c8(%rbp)
    d34c:	00 00 00 00 
    d350:	48 8d 85 a8 e3 ff ff 	lea    -0x1c58(%rbp),%rax
    d357:	48 89 85 40 fc ff ff 	mov    %rax,-0x3c0(%rbp)
    d35e:	48 c7 85 48 fc ff ff 	movq   $0x0,-0x3b8(%rbp)
    d365:	00 00 00 00 
    d369:	48 8d 85 a8 e3 ff ff 	lea    -0x1c58(%rbp),%rax
    d370:	48 89 85 50 fc ff ff 	mov    %rax,-0x3b0(%rbp)
    d377:	48 8d 85 a8 e3 ff ff 	lea    -0x1c58(%rbp),%rax
    d37e:	48 89 85 58 fc ff ff 	mov    %rax,-0x3a8(%rbp)
    d385:	48 8d 85 a8 e3 ff ff 	lea    -0x1c58(%rbp),%rax
    d38c:	48 89 85 60 fc ff ff 	mov    %rax,-0x3a0(%rbp)
    d393:	48 8d 85 a8 e3 ff ff 	lea    -0x1c58(%rbp),%rax
    d39a:	48 89 85 68 fc ff ff 	mov    %rax,-0x398(%rbp)
    d3a1:	48 8d 85 a8 e3 ff ff 	lea    -0x1c58(%rbp),%rax
    d3a8:	48 89 85 70 fc ff ff 	mov    %rax,-0x390(%rbp)
    d3af:	48 8d 85 a8 e3 ff ff 	lea    -0x1c58(%rbp),%rax
    d3b6:	48 89 85 78 fc ff ff 	mov    %rax,-0x388(%rbp)
    d3bd:	48 8d 85 a8 e3 ff ff 	lea    -0x1c58(%rbp),%rax
    d3c4:	48 89 85 80 fc ff ff 	mov    %rax,-0x380(%rbp)
    d3cb:	48 8d 85 a8 e3 ff ff 	lea    -0x1c58(%rbp),%rax
    d3d2:	48 89 85 88 fc ff ff 	mov    %rax,-0x378(%rbp)
    d3d9:	48 8d 85 a8 e3 ff ff 	lea    -0x1c58(%rbp),%rax
    d3e0:	48 89 85 90 fc ff ff 	mov    %rax,-0x370(%rbp)
    d3e7:	48 8d 85 a8 e3 ff ff 	lea    -0x1c58(%rbp),%rax
    d3ee:	48 89 85 98 fc ff ff 	mov    %rax,-0x368(%rbp)
    d3f5:	48 8d 85 a8 e3 ff ff 	lea    -0x1c58(%rbp),%rax
    d3fc:	48 89 85 a0 fc ff ff 	mov    %rax,-0x360(%rbp)
    d403:	48 8d 85 a8 e3 ff ff 	lea    -0x1c58(%rbp),%rax
    d40a:	48 89 85 a8 fc ff ff 	mov    %rax,-0x358(%rbp)
    d411:	48 c7 85 b0 fc ff ff 	movq   $0x0,-0x350(%rbp)
    d418:	00 00 00 00 
    d41c:	48 c7 85 b8 fc ff ff 	movq   $0x0,-0x348(%rbp)
    d423:	00 00 00 00 
    d427:	48 c7 85 c0 fc ff ff 	movq   $0x0,-0x340(%rbp)
    d42e:	00 00 00 00 
    d432:	48 8d 85 a8 e3 ff ff 	lea    -0x1c58(%rbp),%rax
    d439:	48 89 85 c8 fc ff ff 	mov    %rax,-0x338(%rbp)
    d440:	48 8d 85 a8 e3 ff ff 	lea    -0x1c58(%rbp),%rax
    d447:	48 89 85 d0 fc ff ff 	mov    %rax,-0x330(%rbp)
    d44e:	48 c7 85 d8 fc ff ff 	movq   $0x0,-0x328(%rbp)
    d455:	00 00 00 00 
    d459:	48 8d 85 a8 e3 ff ff 	lea    -0x1c58(%rbp),%rax
    d460:	48 89 85 e0 fc ff ff 	mov    %rax,-0x320(%rbp)
    d467:	48 8d 85 a8 e3 ff ff 	lea    -0x1c58(%rbp),%rax
    d46e:	48 89 85 e8 fc ff ff 	mov    %rax,-0x318(%rbp)
    d475:	48 c7 85 f0 fc ff ff 	movq   $0x0,-0x310(%rbp)
    d47c:	00 00 00 00 
    d480:	48 8d 85 a8 e3 ff ff 	lea    -0x1c58(%rbp),%rax
    d487:	48 89 85 f8 fc ff ff 	mov    %rax,-0x308(%rbp)
    d48e:	48 c7 85 00 fd ff ff 	movq   $0x0,-0x300(%rbp)
    d495:	00 00 00 00 
    d499:	48 8d 85 a8 e3 ff ff 	lea    -0x1c58(%rbp),%rax
    d4a0:	48 89 85 08 fd ff ff 	mov    %rax,-0x2f8(%rbp)
    d4a7:	48 8d 85 a8 e3 ff ff 	lea    -0x1c58(%rbp),%rax
    d4ae:	48 89 85 10 fd ff ff 	mov    %rax,-0x2f0(%rbp)
    d4b5:	48 c7 85 18 fd ff ff 	movq   $0x0,-0x2e8(%rbp)
    d4bc:	00 00 00 00 
    d4c0:	48 c7 85 20 fd ff ff 	movq   $0x0,-0x2e0(%rbp)
    d4c7:	00 00 00 00 
    d4cb:	48 8d 85 a8 e3 ff ff 	lea    -0x1c58(%rbp),%rax
    d4d2:	48 89 85 28 fd ff ff 	mov    %rax,-0x2d8(%rbp)
    d4d9:	48 8d 85 a8 e3 ff ff 	lea    -0x1c58(%rbp),%rax
    d4e0:	48 89 85 30 fd ff ff 	mov    %rax,-0x2d0(%rbp)
    d4e7:	48 8d 85 a8 e3 ff ff 	lea    -0x1c58(%rbp),%rax
    d4ee:	48 89 85 38 fd ff ff 	mov    %rax,-0x2c8(%rbp)
    d4f5:	48 8d 85 a8 e3 ff ff 	lea    -0x1c58(%rbp),%rax
    d4fc:	48 89 85 40 fd ff ff 	mov    %rax,-0x2c0(%rbp)
    d503:	48 8d 85 a8 e3 ff ff 	lea    -0x1c58(%rbp),%rax
    d50a:	48 89 85 48 fd ff ff 	mov    %rax,-0x2b8(%rbp)
    d511:	48 8d 85 a8 e3 ff ff 	lea    -0x1c58(%rbp),%rax
    d518:	48 89 85 50 fd ff ff 	mov    %rax,-0x2b0(%rbp)
    d51f:	48 8d 85 a8 e3 ff ff 	lea    -0x1c58(%rbp),%rax
    d526:	48 89 85 58 fd ff ff 	mov    %rax,-0x2a8(%rbp)
    d52d:	48 8d 85 a8 e3 ff ff 	lea    -0x1c58(%rbp),%rax
    d534:	48 89 85 60 fd ff ff 	mov    %rax,-0x2a0(%rbp)
    d53b:	48 8d 85 a8 e3 ff ff 	lea    -0x1c58(%rbp),%rax
    d542:	48 89 85 68 fd ff ff 	mov    %rax,-0x298(%rbp)
    d549:	48 c7 85 70 fd ff ff 	movq   $0x0,-0x290(%rbp)
    d550:	00 00 00 00 
    d554:	48 c7 85 78 fd ff ff 	movq   $0x0,-0x288(%rbp)
    d55b:	00 00 00 00 
    d55f:	48 8d 85 a8 e3 ff ff 	lea    -0x1c58(%rbp),%rax
    d566:	48 89 85 80 fd ff ff 	mov    %rax,-0x280(%rbp)
    d56d:	48 8d 85 a8 e3 ff ff 	lea    -0x1c58(%rbp),%rax
    d574:	48 89 85 88 fd ff ff 	mov    %rax,-0x278(%rbp)
    d57b:	48 8d 85 a8 e3 ff ff 	lea    -0x1c58(%rbp),%rax
    d582:	48 89 85 90 fd ff ff 	mov    %rax,-0x270(%rbp)
    d589:	48 8d 85 a8 e3 ff ff 	lea    -0x1c58(%rbp),%rax
    d590:	48 89 85 98 fd ff ff 	mov    %rax,-0x268(%rbp)
    d597:	48 8d 85 a8 e3 ff ff 	lea    -0x1c58(%rbp),%rax
    d59e:	48 89 85 a0 fd ff ff 	mov    %rax,-0x260(%rbp)
    d5a5:	48 8d 85 a8 e3 ff ff 	lea    -0x1c58(%rbp),%rax
    d5ac:	48 89 85 a8 fd ff ff 	mov    %rax,-0x258(%rbp)
    d5b3:	48 8d 85 a8 e3 ff ff 	lea    -0x1c58(%rbp),%rax
    d5ba:	48 89 85 b0 fd ff ff 	mov    %rax,-0x250(%rbp)
    d5c1:	48 8d 85 a8 e3 ff ff 	lea    -0x1c58(%rbp),%rax
    d5c8:	48 89 85 b8 fd ff ff 	mov    %rax,-0x248(%rbp)
    d5cf:	48 8d 85 a8 e3 ff ff 	lea    -0x1c58(%rbp),%rax
    d5d6:	48 89 85 c0 fd ff ff 	mov    %rax,-0x240(%rbp)
    d5dd:	48 8d 85 a8 e3 ff ff 	lea    -0x1c58(%rbp),%rax
    d5e4:	48 89 85 c8 fd ff ff 	mov    %rax,-0x238(%rbp)
    d5eb:	48 c7 85 d0 fd ff ff 	movq   $0x0,-0x230(%rbp)
    d5f2:	00 00 00 00 
    d5f6:	48 8d 85 a8 e3 ff ff 	lea    -0x1c58(%rbp),%rax
    d5fd:	48 89 85 d8 fd ff ff 	mov    %rax,-0x228(%rbp)
    d604:	48 8d 85 a8 e3 ff ff 	lea    -0x1c58(%rbp),%rax
    d60b:	48 89 85 e0 fd ff ff 	mov    %rax,-0x220(%rbp)
    d612:	48 8d 85 a8 e3 ff ff 	lea    -0x1c58(%rbp),%rax
    d619:	48 89 85 e8 fd ff ff 	mov    %rax,-0x218(%rbp)
    d620:	48 8d 85 a8 e3 ff ff 	lea    -0x1c58(%rbp),%rax
    d627:	48 89 85 f0 fd ff ff 	mov    %rax,-0x210(%rbp)
    d62e:	48 8d 85 a8 e3 ff ff 	lea    -0x1c58(%rbp),%rax
    d635:	48 89 85 f8 fd ff ff 	mov    %rax,-0x208(%rbp)
    d63c:	48 8d 85 a8 e3 ff ff 	lea    -0x1c58(%rbp),%rax
    d643:	48 89 85 00 fe ff ff 	mov    %rax,-0x200(%rbp)
    d64a:	48 8d 85 a8 e3 ff ff 	lea    -0x1c58(%rbp),%rax
    d651:	48 89 85 08 fe ff ff 	mov    %rax,-0x1f8(%rbp)
    d658:	48 c7 85 10 fe ff ff 	movq   $0x0,-0x1f0(%rbp)
    d65f:	00 00 00 00 
    d663:	48 8d 85 a8 e3 ff ff 	lea    -0x1c58(%rbp),%rax
    d66a:	48 89 85 18 fe ff ff 	mov    %rax,-0x1e8(%rbp)
    d671:	48 8d 85 a8 e3 ff ff 	lea    -0x1c58(%rbp),%rax
    d678:	48 89 85 20 fe ff ff 	mov    %rax,-0x1e0(%rbp)
    d67f:	48 8d 85 a8 e3 ff ff 	lea    -0x1c58(%rbp),%rax
    d686:	48 89 85 28 fe ff ff 	mov    %rax,-0x1d8(%rbp)
    d68d:	48 8d 85 a8 e3 ff ff 	lea    -0x1c58(%rbp),%rax
    d694:	48 89 85 30 fe ff ff 	mov    %rax,-0x1d0(%rbp)
    d69b:	48 c7 85 38 fe ff ff 	movq   $0x0,-0x1c8(%rbp)
    d6a2:	00 00 00 00 
    d6a6:	48 8d 85 a8 e3 ff ff 	lea    -0x1c58(%rbp),%rax
    d6ad:	48 89 85 40 fe ff ff 	mov    %rax,-0x1c0(%rbp)
    d6b4:	48 8d 85 a8 e3 ff ff 	lea    -0x1c58(%rbp),%rax
    d6bb:	48 89 85 48 fe ff ff 	mov    %rax,-0x1b8(%rbp)
    d6c2:	48 c7 85 50 fe ff ff 	movq   $0x0,-0x1b0(%rbp)
    d6c9:	00 00 00 00 
    d6cd:	48 8d 85 a8 e3 ff ff 	lea    -0x1c58(%rbp),%rax
    d6d4:	48 89 85 58 fe ff ff 	mov    %rax,-0x1a8(%rbp)
    d6db:	48 8d 85 a8 e3 ff ff 	lea    -0x1c58(%rbp),%rax
    d6e2:	48 89 85 60 fe ff ff 	mov    %rax,-0x1a0(%rbp)
    d6e9:	48 c7 85 68 fe ff ff 	movq   $0x0,-0x198(%rbp)
    d6f0:	00 00 00 00 
    d6f4:	48 8d 85 a8 e3 ff ff 	lea    -0x1c58(%rbp),%rax
    d6fb:	48 89 85 70 fe ff ff 	mov    %rax,-0x190(%rbp)
    d702:	48 c7 85 78 fe ff ff 	movq   $0x0,-0x188(%rbp)
    d709:	00 00 00 00 
    d70d:	48 8d 85 a8 e3 ff ff 	lea    -0x1c58(%rbp),%rax
    d714:	48 89 85 80 fe ff ff 	mov    %rax,-0x180(%rbp)
    d71b:	48 8d 85 a8 e3 ff ff 	lea    -0x1c58(%rbp),%rax
    d722:	48 89 85 88 fe ff ff 	mov    %rax,-0x178(%rbp)
    d729:	48 8d 85 a8 e3 ff ff 	lea    -0x1c58(%rbp),%rax
    d730:	48 89 85 90 fe ff ff 	mov    %rax,-0x170(%rbp)
    d737:	48 8d 85 a8 e3 ff ff 	lea    -0x1c58(%rbp),%rax
    d73e:	48 89 85 98 fe ff ff 	mov    %rax,-0x168(%rbp)
    d745:	48 8d 85 a8 e3 ff ff 	lea    -0x1c58(%rbp),%rax
    d74c:	48 89 85 a0 fe ff ff 	mov    %rax,-0x160(%rbp)
    d753:	48 8d 85 a8 e3 ff ff 	lea    -0x1c58(%rbp),%rax
    d75a:	48 89 85 a8 fe ff ff 	mov    %rax,-0x158(%rbp)
    d761:	48 8d 85 a8 e3 ff ff 	lea    -0x1c58(%rbp),%rax
    d768:	48 89 85 b0 fe ff ff 	mov    %rax,-0x150(%rbp)
    d76f:	48 8d 85 a8 e3 ff ff 	lea    -0x1c58(%rbp),%rax
    d776:	48 89 85 b8 fe ff ff 	mov    %rax,-0x148(%rbp)
    d77d:	48 8d 85 a8 e3 ff ff 	lea    -0x1c58(%rbp),%rax
    d784:	48 89 85 c0 fe ff ff 	mov    %rax,-0x140(%rbp)
    d78b:	48 8d 85 a8 e3 ff ff 	lea    -0x1c58(%rbp),%rax
    d792:	48 89 85 c8 fe ff ff 	mov    %rax,-0x138(%rbp)
    d799:	48 8d 85 a8 e3 ff ff 	lea    -0x1c58(%rbp),%rax
    d7a0:	48 89 85 d0 fe ff ff 	mov    %rax,-0x130(%rbp)
    d7a7:	48 8d 85 a8 e3 ff ff 	lea    -0x1c58(%rbp),%rax
    d7ae:	48 89 85 d8 fe ff ff 	mov    %rax,-0x128(%rbp)
    d7b5:	48 c7 85 e0 fe ff ff 	movq   $0x0,-0x120(%rbp)
    d7bc:	00 00 00 00 
    d7c0:	48 c7 85 e8 fe ff ff 	movq   $0x0,-0x118(%rbp)
    d7c7:	00 00 00 00 
    d7cb:	48 8d 85 a8 e3 ff ff 	lea    -0x1c58(%rbp),%rax
    d7d2:	48 89 85 f0 fe ff ff 	mov    %rax,-0x110(%rbp)
    d7d9:	48 8d 85 a8 e3 ff ff 	lea    -0x1c58(%rbp),%rax
    d7e0:	48 89 85 f8 fe ff ff 	mov    %rax,-0x108(%rbp)
    d7e7:	48 c7 85 00 ff ff ff 	movq   $0x0,-0x100(%rbp)
    d7ee:	00 00 00 00 
    d7f2:	48 c7 85 08 ff ff ff 	movq   $0x0,-0xf8(%rbp)
    d7f9:	00 00 00 00 
    d7fd:	48 8d 85 a8 e3 ff ff 	lea    -0x1c58(%rbp),%rax
    d804:	48 89 85 10 ff ff ff 	mov    %rax,-0xf0(%rbp)
    d80b:	48 c7 85 18 ff ff ff 	movq   $0x0,-0xe8(%rbp)
    d812:	00 00 00 00 
    d816:	48 c7 85 20 ff ff ff 	movq   $0x0,-0xe0(%rbp)
    d81d:	00 00 00 00 
    d821:	48 c7 85 28 ff ff ff 	movq   $0x0,-0xd8(%rbp)
    d828:	00 00 00 00 
    d82c:	48 8d 85 a8 e3 ff ff 	lea    -0x1c58(%rbp),%rax
    d833:	48 89 85 30 ff ff ff 	mov    %rax,-0xd0(%rbp)
    d83a:	48 8d 85 a8 e3 ff ff 	lea    -0x1c58(%rbp),%rax
    d841:	48 89 85 38 ff ff ff 	mov    %rax,-0xc8(%rbp)
    d848:	48 8d 85 a8 e3 ff ff 	lea    -0x1c58(%rbp),%rax
    d84f:	48 89 85 40 ff ff ff 	mov    %rax,-0xc0(%rbp)
    d856:	48 8d 85 a8 e3 ff ff 	lea    -0x1c58(%rbp),%rax
    d85d:	48 89 85 48 ff ff ff 	mov    %rax,-0xb8(%rbp)
    d864:	48 8d 85 a8 e3 ff ff 	lea    -0x1c58(%rbp),%rax
    d86b:	48 89 85 50 ff ff ff 	mov    %rax,-0xb0(%rbp)
    d872:	48 c7 85 58 ff ff ff 	movq   $0x0,-0xa8(%rbp)
    d879:	00 00 00 00 
    d87d:	48 8d 85 a8 e3 ff ff 	lea    -0x1c58(%rbp),%rax
    d884:	48 89 85 60 ff ff ff 	mov    %rax,-0xa0(%rbp)
    d88b:	48 8d 85 a8 e3 ff ff 	lea    -0x1c58(%rbp),%rax
    d892:	48 89 85 68 ff ff ff 	mov    %rax,-0x98(%rbp)
    d899:	48 8d 85 a8 e3 ff ff 	lea    -0x1c58(%rbp),%rax
    d8a0:	48 89 85 70 ff ff ff 	mov    %rax,-0x90(%rbp)
    d8a7:	48 c7 85 78 ff ff ff 	movq   $0x0,-0x88(%rbp)
    d8ae:	00 00 00 00 
    d8b2:	48 8d 85 a8 e3 ff ff 	lea    -0x1c58(%rbp),%rax
    d8b9:	48 89 45 80          	mov    %rax,-0x80(%rbp)
    d8bd:	48 8d 85 a8 e3 ff ff 	lea    -0x1c58(%rbp),%rax
    d8c4:	48 89 45 88          	mov    %rax,-0x78(%rbp)
    d8c8:	48 8d 85 a8 e3 ff ff 	lea    -0x1c58(%rbp),%rax
    d8cf:	48 89 45 90          	mov    %rax,-0x70(%rbp)
    d8d3:	48 c7 45 98 00 00 00 	movq   $0x0,-0x68(%rbp)
    d8da:	00 
    d8db:	48 8d 85 a8 e3 ff ff 	lea    -0x1c58(%rbp),%rax
    d8e2:	48 89 45 a0          	mov    %rax,-0x60(%rbp)
    d8e6:	48 8d 85 a8 e3 ff ff 	lea    -0x1c58(%rbp),%rax
    d8ed:	48 89 45 a8          	mov    %rax,-0x58(%rbp)
    d8f1:	48 c7 45 b0 00 00 00 	movq   $0x0,-0x50(%rbp)
    d8f8:	00 
    d8f9:	48 8d 85 a8 e3 ff ff 	lea    -0x1c58(%rbp),%rax
    d900:	48 89 45 b8          	mov    %rax,-0x48(%rbp)
    d904:	8b 15 8e 9b 00 00    	mov    0x9b8e(%rip),%edx        # 17498 <g_46+0x8>
    d90a:	b8 85 ff ff ff       	mov    $0xffffff85,%eax
    d90f:	0f be c0             	movsbl %al,%eax
    d912:	39 c2                	cmp    %eax,%edx
    d914:	0f 9d c0             	setge  %al
    d917:	0f b6 c0             	movzbl %al,%eax
    d91a:	48 39 85 18 e3 ff ff 	cmp    %rax,-0x1ce8(%rbp)
    d921:	0f 9c c2             	setl   %dl
    d924:	48 8b 85 80 e3 ff ff 	mov    -0x1c80(%rbp),%rax
    d92b:	0f b6 d2             	movzbl %dl,%edx
    d92e:	89 10                	mov    %edx,(%rax)
    d930:	8b 00                	mov    (%rax),%eax
    d932:	85 c0                	test   %eax,%eax
    d934:	0f 84 56 01 00 00    	je     da90 <func_113+0x1d67>
    d93a:	48 8d 05 e7 a8 00 00 	lea    0xa8e7(%rip),%rax        # 18228 <g_164+0xe8>
    d941:	48 89 85 60 e5 ff ff 	mov    %rax,-0x1aa0(%rbp)
    d948:	66 c7 85 36 e3 ff ff 	movw   $0x69aa,-0x1cca(%rbp)
    d94f:	aa 69 
    d951:	48 8d 85 80 e3 ff ff 	lea    -0x1c80(%rbp),%rax
    d958:	48 89 85 68 e5 ff ff 	mov    %rax,-0x1a98(%rbp)
    d95f:	48 8d 05 4e 9b 00 00 	lea    0x9b4e(%rip),%rax        # 174b4 <g_148>
    d966:	48 89 85 70 e5 ff ff 	mov    %rax,-0x1a90(%rbp)
    d96d:	48 8d 05 3c 9b 00 00 	lea    0x9b3c(%rip),%rax        # 174b0 <g_132>
    d974:	48 89 85 78 e5 ff ff 	mov    %rax,-0x1a88(%rbp)
    d97b:	48 c7 85 70 f0 ff ff 	movq   $0x0,-0xf90(%rbp)
    d982:	00 00 00 00 
    d986:	48 c7 85 78 f0 ff ff 	movq   $0x0,-0xf88(%rbp)
    d98d:	00 00 00 00 
    d991:	48 c7 85 80 f0 ff ff 	movq   $0x0,-0xf80(%rbp)
    d998:	00 00 00 00 
    d99c:	48 c7 85 88 f0 ff ff 	movq   $0x0,-0xf78(%rbp)
    d9a3:	00 00 00 00 
    d9a7:	48 c7 85 90 f0 ff ff 	movq   $0x0,-0xf70(%rbp)
    d9ae:	00 00 00 00 
    d9b2:	48 c7 85 98 f0 ff ff 	movq   $0x0,-0xf68(%rbp)
    d9b9:	00 00 00 00 
    d9bd:	48 8b 85 c0 e3 ff ff 	mov    -0x1c40(%rbp),%rax
    d9c4:	8b 00                	mov    (%rax),%eax
    d9c6:	89 c6                	mov    %eax,%esi
    d9c8:	bf ff 00 00 00       	mov    $0xff,%edi
    d9cd:	e8 33 72 ff ff       	callq  4c05 <safe_lshift_func_uint8_t_u_s>
    d9d2:	0f b6 d0             	movzbl %al,%edx
    d9d5:	48 8b 0d 5c a9 00 00 	mov    0xa95c(%rip),%rcx        # 18338 <g_164+0x1f8>
    d9dc:	48 8b 85 60 e5 ff ff 	mov    -0x1aa0(%rbp),%rax
    d9e3:	48 89 08             	mov    %rcx,(%rax)
    d9e6:	48 8b 85 60 e5 ff ff 	mov    -0x1aa0(%rbp),%rax
    d9ed:	48 8b 00             	mov    (%rax),%rax
    d9f0:	48 85 c0             	test   %rax,%rax
    d9f3:	0f 94 c0             	sete   %al
    d9f6:	0f b6 c8             	movzbl %al,%ecx
    d9f9:	48 8d 05 20 a7 00 00 	lea    0xa720(%rip),%rax        # 18120 <g_165>
    da00:	48 89 05 69 a9 00 00 	mov    %rax,0xa969(%rip)        # 18370 <g_167>
    da07:	48 8b 05 62 a9 00 00 	mov    0xa962(%rip),%rax        # 18370 <g_167>
    da0e:	48 8d 35 0b a7 00 00 	lea    0xa70b(%rip),%rsi        # 18120 <g_165>
    da15:	48 39 f0             	cmp    %rsi,%rax
    da18:	0f 94 c0             	sete   %al
    da1b:	0f b6 c0             	movzbl %al,%eax
    da1e:	39 c1                	cmp    %eax,%ecx
    da20:	0f 9c c0             	setl   %al
    da23:	0f b6 c8             	movzbl %al,%ecx
    da26:	8b 05 40 96 00 00    	mov    0x9640(%rip),%eax        # 1706c <g_41+0x2c>
    da2c:	39 c1                	cmp    %eax,%ecx
    da2e:	0f 9c c0             	setl   %al
    da31:	0f b6 c0             	movzbl %al,%eax
    da34:	89 d6                	mov    %edx,%esi
    da36:	89 c7                	mov    %eax,%edi
    da38:	e8 79 6b ff ff       	callq  45b6 <safe_add_func_int32_t_s_s>
    da3d:	48 8b 95 80 e3 ff ff 	mov    -0x1c80(%rbp),%rdx
    da44:	48 8b 85 68 e5 ff ff 	mov    -0x1a98(%rbp),%rax
    da4b:	48 89 10             	mov    %rdx,(%rax)
    da4e:	48 8b 85 68 e5 ff ff 	mov    -0x1a98(%rbp),%rax
    da55:	48 8b 10             	mov    (%rax),%rdx
    da58:	48 8b 85 40 e6 ff ff 	mov    -0x19c0(%rbp),%rax
    da5f:	48 39 c2             	cmp    %rax,%rdx
    da62:	0f 95 c0             	setne  %al
    da65:	0f b6 d0             	movzbl %al,%edx
    da68:	48 8b 85 70 e5 ff ff 	mov    -0x1a90(%rbp),%rax
    da6f:	8b 00                	mov    (%rax),%eax
    da71:	09 c2                	or     %eax,%edx
    da73:	48 8b 85 70 e5 ff ff 	mov    -0x1a90(%rbp),%rax
    da7a:	89 10                	mov    %edx,(%rax)
    da7c:	8b 85 98 e3 ff ff    	mov    -0x1c68(%rbp),%eax
    da82:	83 e8 01             	sub    $0x1,%eax
    da85:	89 85 98 e3 ff ff    	mov    %eax,-0x1c68(%rbp)
    da8b:	e9 73 13 00 00       	jmpq   ee03 <func_113+0x30da>
    da90:	48 c7 85 30 e5 ff ff 	movq   $0x0,-0x1ad0(%rbp)
    da97:	00 00 00 00 
    da9b:	48 8d 05 b6 a7 00 00 	lea    0xa7b6(%rip),%rax        # 18258 <g_164+0x118>
    daa2:	48 89 85 38 e5 ff ff 	mov    %rax,-0x1ac8(%rbp)
    daa9:	48 c7 85 70 f0 ff ff 	movq   $0x0,-0xf90(%rbp)
    dab0:	00 00 00 00 
    dab4:	48 c7 85 78 f0 ff ff 	movq   $0x0,-0xf88(%rbp)
    dabb:	00 00 00 00 
    dabf:	48 8d 85 27 e3 ff ff 	lea    -0x1cd9(%rbp),%rax
    dac6:	48 89 85 80 f0 ff ff 	mov    %rax,-0xf80(%rbp)
    dacd:	48 8d 85 27 e3 ff ff 	lea    -0x1cd9(%rbp),%rax
    dad4:	48 89 85 88 f0 ff ff 	mov    %rax,-0xf78(%rbp)
    dadb:	48 8d 85 27 e3 ff ff 	lea    -0x1cd9(%rbp),%rax
    dae2:	48 89 85 90 f0 ff ff 	mov    %rax,-0xf70(%rbp)
    dae9:	48 c7 85 98 f0 ff ff 	movq   $0x0,-0xf68(%rbp)
    daf0:	00 00 00 00 
    daf4:	48 8d 85 27 e3 ff ff 	lea    -0x1cd9(%rbp),%rax
    dafb:	48 89 85 a0 f0 ff ff 	mov    %rax,-0xf60(%rbp)
    db02:	48 8d 85 27 e3 ff ff 	lea    -0x1cd9(%rbp),%rax
    db09:	48 89 85 a8 f0 ff ff 	mov    %rax,-0xf58(%rbp)
    db10:	48 c7 85 b0 f0 ff ff 	movq   $0x0,-0xf50(%rbp)
    db17:	00 00 00 00 
    db1b:	48 c7 85 b8 f0 ff ff 	movq   $0x0,-0xf48(%rbp)
    db22:	00 00 00 00 
    db26:	48 8d 85 27 e3 ff ff 	lea    -0x1cd9(%rbp),%rax
    db2d:	48 89 85 c0 f0 ff ff 	mov    %rax,-0xf40(%rbp)
    db34:	48 8d 85 27 e3 ff ff 	lea    -0x1cd9(%rbp),%rax
    db3b:	48 89 85 c8 f0 ff ff 	mov    %rax,-0xf38(%rbp)
    db42:	48 8d 85 27 e3 ff ff 	lea    -0x1cd9(%rbp),%rax
    db49:	48 89 85 d0 f0 ff ff 	mov    %rax,-0xf30(%rbp)
    db50:	48 8d 85 27 e3 ff ff 	lea    -0x1cd9(%rbp),%rax
    db57:	48 89 85 d8 f0 ff ff 	mov    %rax,-0xf28(%rbp)
    db5e:	48 8d 85 27 e3 ff ff 	lea    -0x1cd9(%rbp),%rax
    db65:	48 89 85 e0 f0 ff ff 	mov    %rax,-0xf20(%rbp)
    db6c:	48 8d 85 27 e3 ff ff 	lea    -0x1cd9(%rbp),%rax
    db73:	48 89 85 e8 f0 ff ff 	mov    %rax,-0xf18(%rbp)
    db7a:	48 c7 85 f0 f0 ff ff 	movq   $0x0,-0xf10(%rbp)
    db81:	00 00 00 00 
    db85:	48 c7 85 f8 f0 ff ff 	movq   $0x0,-0xf08(%rbp)
    db8c:	00 00 00 00 
    db90:	48 c7 85 00 f1 ff ff 	movq   $0x0,-0xf00(%rbp)
    db97:	00 00 00 00 
    db9b:	48 8d 85 27 e3 ff ff 	lea    -0x1cd9(%rbp),%rax
    dba2:	48 89 85 08 f1 ff ff 	mov    %rax,-0xef8(%rbp)
    dba9:	48 8d 85 27 e3 ff ff 	lea    -0x1cd9(%rbp),%rax
    dbb0:	48 89 85 10 f1 ff ff 	mov    %rax,-0xef0(%rbp)
    dbb7:	48 8d 85 27 e3 ff ff 	lea    -0x1cd9(%rbp),%rax
    dbbe:	48 89 85 18 f1 ff ff 	mov    %rax,-0xee8(%rbp)
    dbc5:	48 8d 85 27 e3 ff ff 	lea    -0x1cd9(%rbp),%rax
    dbcc:	48 89 85 20 f1 ff ff 	mov    %rax,-0xee0(%rbp)
    dbd3:	48 8d 85 27 e3 ff ff 	lea    -0x1cd9(%rbp),%rax
    dbda:	48 89 85 28 f1 ff ff 	mov    %rax,-0xed8(%rbp)
    dbe1:	48 8d 85 27 e3 ff ff 	lea    -0x1cd9(%rbp),%rax
    dbe8:	48 89 85 30 f1 ff ff 	mov    %rax,-0xed0(%rbp)
    dbef:	48 c7 85 38 f1 ff ff 	movq   $0x0,-0xec8(%rbp)
    dbf6:	00 00 00 00 
    dbfa:	48 8d 85 27 e3 ff ff 	lea    -0x1cd9(%rbp),%rax
    dc01:	48 89 85 40 f1 ff ff 	mov    %rax,-0xec0(%rbp)
    dc08:	48 c7 85 48 f1 ff ff 	movq   $0x0,-0xeb8(%rbp)
    dc0f:	00 00 00 00 
    dc13:	48 8d 85 27 e3 ff ff 	lea    -0x1cd9(%rbp),%rax
    dc1a:	48 89 85 50 f1 ff ff 	mov    %rax,-0xeb0(%rbp)
    dc21:	48 8d 85 27 e3 ff ff 	lea    -0x1cd9(%rbp),%rax
    dc28:	48 89 85 58 f1 ff ff 	mov    %rax,-0xea8(%rbp)
    dc2f:	48 8d 85 27 e3 ff ff 	lea    -0x1cd9(%rbp),%rax
    dc36:	48 89 85 60 f1 ff ff 	mov    %rax,-0xea0(%rbp)
    dc3d:	48 c7 85 68 f1 ff ff 	movq   $0x0,-0xe98(%rbp)
    dc44:	00 00 00 00 
    dc48:	48 8d 85 27 e3 ff ff 	lea    -0x1cd9(%rbp),%rax
    dc4f:	48 89 85 70 f1 ff ff 	mov    %rax,-0xe90(%rbp)
    dc56:	48 8d 85 27 e3 ff ff 	lea    -0x1cd9(%rbp),%rax
    dc5d:	48 89 85 78 f1 ff ff 	mov    %rax,-0xe88(%rbp)
    dc64:	48 8d 85 27 e3 ff ff 	lea    -0x1cd9(%rbp),%rax
    dc6b:	48 89 85 80 f1 ff ff 	mov    %rax,-0xe80(%rbp)
    dc72:	48 8d 85 27 e3 ff ff 	lea    -0x1cd9(%rbp),%rax
    dc79:	48 89 85 88 f1 ff ff 	mov    %rax,-0xe78(%rbp)
    dc80:	48 c7 85 90 f1 ff ff 	movq   $0x0,-0xe70(%rbp)
    dc87:	00 00 00 00 
    dc8b:	48 8d 85 27 e3 ff ff 	lea    -0x1cd9(%rbp),%rax
    dc92:	48 89 85 98 f1 ff ff 	mov    %rax,-0xe68(%rbp)
    dc99:	48 8d 85 27 e3 ff ff 	lea    -0x1cd9(%rbp),%rax
    dca0:	48 89 85 a0 f1 ff ff 	mov    %rax,-0xe60(%rbp)
    dca7:	48 c7 85 a8 f1 ff ff 	movq   $0x0,-0xe58(%rbp)
    dcae:	00 00 00 00 
    dcb2:	48 8d 85 27 e3 ff ff 	lea    -0x1cd9(%rbp),%rax
    dcb9:	48 89 85 b0 f1 ff ff 	mov    %rax,-0xe50(%rbp)
    dcc0:	48 8d 85 27 e3 ff ff 	lea    -0x1cd9(%rbp),%rax
    dcc7:	48 89 85 b8 f1 ff ff 	mov    %rax,-0xe48(%rbp)
    dcce:	48 c7 85 c0 f1 ff ff 	movq   $0x0,-0xe40(%rbp)
    dcd5:	00 00 00 00 
    dcd9:	48 8d 85 27 e3 ff ff 	lea    -0x1cd9(%rbp),%rax
    dce0:	48 89 85 c8 f1 ff ff 	mov    %rax,-0xe38(%rbp)
    dce7:	48 8d 85 27 e3 ff ff 	lea    -0x1cd9(%rbp),%rax
    dcee:	48 89 85 d0 f1 ff ff 	mov    %rax,-0xe30(%rbp)
    dcf5:	48 c7 85 d8 f1 ff ff 	movq   $0x0,-0xe28(%rbp)
    dcfc:	00 00 00 00 
    dd00:	48 8d 85 27 e3 ff ff 	lea    -0x1cd9(%rbp),%rax
    dd07:	48 89 85 e0 f1 ff ff 	mov    %rax,-0xe20(%rbp)
    dd0e:	48 8d 85 27 e3 ff ff 	lea    -0x1cd9(%rbp),%rax
    dd15:	48 89 85 e8 f1 ff ff 	mov    %rax,-0xe18(%rbp)
    dd1c:	48 8d 85 27 e3 ff ff 	lea    -0x1cd9(%rbp),%rax
    dd23:	48 89 85 f0 f1 ff ff 	mov    %rax,-0xe10(%rbp)
    dd2a:	48 8d 85 27 e3 ff ff 	lea    -0x1cd9(%rbp),%rax
    dd31:	48 89 85 f8 f1 ff ff 	mov    %rax,-0xe08(%rbp)
    dd38:	48 8d 85 27 e3 ff ff 	lea    -0x1cd9(%rbp),%rax
    dd3f:	48 89 85 00 f2 ff ff 	mov    %rax,-0xe00(%rbp)
    dd46:	48 8d 85 27 e3 ff ff 	lea    -0x1cd9(%rbp),%rax
    dd4d:	48 89 85 08 f2 ff ff 	mov    %rax,-0xdf8(%rbp)
    dd54:	48 c7 85 10 f2 ff ff 	movq   $0x0,-0xdf0(%rbp)
    dd5b:	00 00 00 00 
    dd5f:	48 8d 85 27 e3 ff ff 	lea    -0x1cd9(%rbp),%rax
    dd66:	48 89 85 18 f2 ff ff 	mov    %rax,-0xde8(%rbp)
    dd6d:	48 8d 85 27 e3 ff ff 	lea    -0x1cd9(%rbp),%rax
    dd74:	48 89 85 20 f2 ff ff 	mov    %rax,-0xde0(%rbp)
    dd7b:	48 c7 85 28 f2 ff ff 	movq   $0x0,-0xdd8(%rbp)
    dd82:	00 00 00 00 
    dd86:	48 8d 85 27 e3 ff ff 	lea    -0x1cd9(%rbp),%rax
    dd8d:	48 89 85 30 f2 ff ff 	mov    %rax,-0xdd0(%rbp)
    dd94:	48 8d 85 27 e3 ff ff 	lea    -0x1cd9(%rbp),%rax
    dd9b:	48 89 85 38 f2 ff ff 	mov    %rax,-0xdc8(%rbp)
    dda2:	48 8d 85 27 e3 ff ff 	lea    -0x1cd9(%rbp),%rax
    dda9:	48 89 85 40 f2 ff ff 	mov    %rax,-0xdc0(%rbp)
    ddb0:	48 8d 85 27 e3 ff ff 	lea    -0x1cd9(%rbp),%rax
    ddb7:	48 89 85 48 f2 ff ff 	mov    %rax,-0xdb8(%rbp)
    ddbe:	48 8d 85 27 e3 ff ff 	lea    -0x1cd9(%rbp),%rax
    ddc5:	48 89 85 50 f2 ff ff 	mov    %rax,-0xdb0(%rbp)
    ddcc:	48 8d 85 27 e3 ff ff 	lea    -0x1cd9(%rbp),%rax
    ddd3:	48 89 85 58 f2 ff ff 	mov    %rax,-0xda8(%rbp)
    ddda:	48 8d 85 27 e3 ff ff 	lea    -0x1cd9(%rbp),%rax
    dde1:	48 89 85 60 f2 ff ff 	mov    %rax,-0xda0(%rbp)
    dde8:	48 8d 85 27 e3 ff ff 	lea    -0x1cd9(%rbp),%rax
    ddef:	48 89 85 68 f2 ff ff 	mov    %rax,-0xd98(%rbp)
    ddf6:	48 c7 85 70 f2 ff ff 	movq   $0x0,-0xd90(%rbp)
    ddfd:	00 00 00 00 
    de01:	48 8d 85 27 e3 ff ff 	lea    -0x1cd9(%rbp),%rax
    de08:	48 89 85 78 f2 ff ff 	mov    %rax,-0xd88(%rbp)
    de0f:	48 8d 85 27 e3 ff ff 	lea    -0x1cd9(%rbp),%rax
    de16:	48 89 85 80 f2 ff ff 	mov    %rax,-0xd80(%rbp)
    de1d:	48 8d 85 27 e3 ff ff 	lea    -0x1cd9(%rbp),%rax
    de24:	48 89 85 88 f2 ff ff 	mov    %rax,-0xd78(%rbp)
    de2b:	48 8d 85 27 e3 ff ff 	lea    -0x1cd9(%rbp),%rax
    de32:	48 89 85 90 f2 ff ff 	mov    %rax,-0xd70(%rbp)
    de39:	48 8d 85 27 e3 ff ff 	lea    -0x1cd9(%rbp),%rax
    de40:	48 89 85 98 f2 ff ff 	mov    %rax,-0xd68(%rbp)
    de47:	48 8d 85 27 e3 ff ff 	lea    -0x1cd9(%rbp),%rax
    de4e:	48 89 85 a0 f2 ff ff 	mov    %rax,-0xd60(%rbp)
    de55:	48 8d 85 27 e3 ff ff 	lea    -0x1cd9(%rbp),%rax
    de5c:	48 89 85 a8 f2 ff ff 	mov    %rax,-0xd58(%rbp)
    de63:	48 8d 85 27 e3 ff ff 	lea    -0x1cd9(%rbp),%rax
    de6a:	48 89 85 b0 f2 ff ff 	mov    %rax,-0xd50(%rbp)
    de71:	48 8d 85 27 e3 ff ff 	lea    -0x1cd9(%rbp),%rax
    de78:	48 89 85 b8 f2 ff ff 	mov    %rax,-0xd48(%rbp)
    de7f:	48 c7 85 c0 f2 ff ff 	movq   $0x0,-0xd40(%rbp)
    de86:	00 00 00 00 
    de8a:	48 8d 85 27 e3 ff ff 	lea    -0x1cd9(%rbp),%rax
    de91:	48 89 85 c8 f2 ff ff 	mov    %rax,-0xd38(%rbp)
    de98:	48 8d 85 27 e3 ff ff 	lea    -0x1cd9(%rbp),%rax
    de9f:	48 89 85 d0 f2 ff ff 	mov    %rax,-0xd30(%rbp)
    dea6:	48 8d 85 27 e3 ff ff 	lea    -0x1cd9(%rbp),%rax
    dead:	48 89 85 d8 f2 ff ff 	mov    %rax,-0xd28(%rbp)
    deb4:	48 8d 85 27 e3 ff ff 	lea    -0x1cd9(%rbp),%rax
    debb:	48 89 85 e0 f2 ff ff 	mov    %rax,-0xd20(%rbp)
    dec2:	48 8d 85 27 e3 ff ff 	lea    -0x1cd9(%rbp),%rax
    dec9:	48 89 85 e8 f2 ff ff 	mov    %rax,-0xd18(%rbp)
    ded0:	48 8d 85 27 e3 ff ff 	lea    -0x1cd9(%rbp),%rax
    ded7:	48 89 85 f0 f2 ff ff 	mov    %rax,-0xd10(%rbp)
    dede:	48 c7 85 f8 f2 ff ff 	movq   $0x0,-0xd08(%rbp)
    dee5:	00 00 00 00 
    dee9:	48 8d 85 27 e3 ff ff 	lea    -0x1cd9(%rbp),%rax
    def0:	48 89 85 00 f3 ff ff 	mov    %rax,-0xd00(%rbp)
    def7:	48 8d 85 27 e3 ff ff 	lea    -0x1cd9(%rbp),%rax
    defe:	48 89 85 08 f3 ff ff 	mov    %rax,-0xcf8(%rbp)
    df05:	48 c7 85 10 f3 ff ff 	movq   $0x0,-0xcf0(%rbp)
    df0c:	00 00 00 00 
    df10:	48 8d 85 27 e3 ff ff 	lea    -0x1cd9(%rbp),%rax
    df17:	48 89 85 18 f3 ff ff 	mov    %rax,-0xce8(%rbp)
    df1e:	48 8d 85 27 e3 ff ff 	lea    -0x1cd9(%rbp),%rax
    df25:	48 89 85 20 f3 ff ff 	mov    %rax,-0xce0(%rbp)
    df2c:	48 8d 85 27 e3 ff ff 	lea    -0x1cd9(%rbp),%rax
    df33:	48 89 85 28 f3 ff ff 	mov    %rax,-0xcd8(%rbp)
    df3a:	48 c7 85 30 f3 ff ff 	movq   $0x0,-0xcd0(%rbp)
    df41:	00 00 00 00 
    df45:	48 8d 85 27 e3 ff ff 	lea    -0x1cd9(%rbp),%rax
    df4c:	48 89 85 38 f3 ff ff 	mov    %rax,-0xcc8(%rbp)
    df53:	48 c7 85 40 f3 ff ff 	movq   $0x0,-0xcc0(%rbp)
    df5a:	00 00 00 00 
    df5e:	48 8d 85 27 e3 ff ff 	lea    -0x1cd9(%rbp),%rax
    df65:	48 89 85 48 f3 ff ff 	mov    %rax,-0xcb8(%rbp)
    df6c:	48 c7 85 50 f3 ff ff 	movq   $0x0,-0xcb0(%rbp)
    df73:	00 00 00 00 
    df77:	48 8d 85 27 e3 ff ff 	lea    -0x1cd9(%rbp),%rax
    df7e:	48 89 85 58 f3 ff ff 	mov    %rax,-0xca8(%rbp)
    df85:	48 c7 85 60 f3 ff ff 	movq   $0x0,-0xca0(%rbp)
    df8c:	00 00 00 00 
    df90:	48 8d 85 27 e3 ff ff 	lea    -0x1cd9(%rbp),%rax
    df97:	48 89 85 68 f3 ff ff 	mov    %rax,-0xc98(%rbp)
    df9e:	48 8d 85 27 e3 ff ff 	lea    -0x1cd9(%rbp),%rax
    dfa5:	48 89 85 70 f3 ff ff 	mov    %rax,-0xc90(%rbp)
    dfac:	48 8d 85 27 e3 ff ff 	lea    -0x1cd9(%rbp),%rax
    dfb3:	48 89 85 78 f3 ff ff 	mov    %rax,-0xc88(%rbp)
    dfba:	48 8d 85 27 e3 ff ff 	lea    -0x1cd9(%rbp),%rax
    dfc1:	48 89 85 80 f3 ff ff 	mov    %rax,-0xc80(%rbp)
    dfc8:	48 8d 85 27 e3 ff ff 	lea    -0x1cd9(%rbp),%rax
    dfcf:	48 89 85 88 f3 ff ff 	mov    %rax,-0xc78(%rbp)
    dfd6:	48 8d 85 27 e3 ff ff 	lea    -0x1cd9(%rbp),%rax
    dfdd:	48 89 85 90 f3 ff ff 	mov    %rax,-0xc70(%rbp)
    dfe4:	48 8d 85 27 e3 ff ff 	lea    -0x1cd9(%rbp),%rax
    dfeb:	48 89 85 98 f3 ff ff 	mov    %rax,-0xc68(%rbp)
    dff2:	48 c7 85 a0 f3 ff ff 	movq   $0x0,-0xc60(%rbp)
    dff9:	00 00 00 00 
    dffd:	48 8d 85 27 e3 ff ff 	lea    -0x1cd9(%rbp),%rax
    e004:	48 89 85 a8 f3 ff ff 	mov    %rax,-0xc58(%rbp)
    e00b:	48 8d 85 27 e3 ff ff 	lea    -0x1cd9(%rbp),%rax
    e012:	48 89 85 b0 f3 ff ff 	mov    %rax,-0xc50(%rbp)
    e019:	48 c7 85 b8 f3 ff ff 	movq   $0x0,-0xc48(%rbp)
    e020:	00 00 00 00 
    e024:	48 8d 85 27 e3 ff ff 	lea    -0x1cd9(%rbp),%rax
    e02b:	48 89 85 c0 f3 ff ff 	mov    %rax,-0xc40(%rbp)
    e032:	48 8d 85 27 e3 ff ff 	lea    -0x1cd9(%rbp),%rax
    e039:	48 89 85 c8 f3 ff ff 	mov    %rax,-0xc38(%rbp)
    e040:	48 8d 85 27 e3 ff ff 	lea    -0x1cd9(%rbp),%rax
    e047:	48 89 85 d0 f3 ff ff 	mov    %rax,-0xc30(%rbp)
    e04e:	48 8d 85 27 e3 ff ff 	lea    -0x1cd9(%rbp),%rax
    e055:	48 89 85 d8 f3 ff ff 	mov    %rax,-0xc28(%rbp)
    e05c:	48 8d 85 27 e3 ff ff 	lea    -0x1cd9(%rbp),%rax
    e063:	48 89 85 e0 f3 ff ff 	mov    %rax,-0xc20(%rbp)
    e06a:	48 8d 85 27 e3 ff ff 	lea    -0x1cd9(%rbp),%rax
    e071:	48 89 85 e8 f3 ff ff 	mov    %rax,-0xc18(%rbp)
    e078:	48 8d 85 27 e3 ff ff 	lea    -0x1cd9(%rbp),%rax
    e07f:	48 89 85 f0 f3 ff ff 	mov    %rax,-0xc10(%rbp)
    e086:	48 c7 85 f8 f3 ff ff 	movq   $0x0,-0xc08(%rbp)
    e08d:	00 00 00 00 
    e091:	48 8d 85 27 e3 ff ff 	lea    -0x1cd9(%rbp),%rax
    e098:	48 89 85 00 f4 ff ff 	mov    %rax,-0xc00(%rbp)
    e09f:	48 8d 85 27 e3 ff ff 	lea    -0x1cd9(%rbp),%rax
    e0a6:	48 89 85 08 f4 ff ff 	mov    %rax,-0xbf8(%rbp)
    e0ad:	48 8d 85 27 e3 ff ff 	lea    -0x1cd9(%rbp),%rax
    e0b4:	48 89 85 10 f4 ff ff 	mov    %rax,-0xbf0(%rbp)
    e0bb:	48 8d 85 27 e3 ff ff 	lea    -0x1cd9(%rbp),%rax
    e0c2:	48 89 85 18 f4 ff ff 	mov    %rax,-0xbe8(%rbp)
    e0c9:	48 8d 85 27 e3 ff ff 	lea    -0x1cd9(%rbp),%rax
    e0d0:	48 89 85 20 f4 ff ff 	mov    %rax,-0xbe0(%rbp)
    e0d7:	48 8d 85 27 e3 ff ff 	lea    -0x1cd9(%rbp),%rax
    e0de:	48 89 85 28 f4 ff ff 	mov    %rax,-0xbd8(%rbp)
    e0e5:	48 8d 85 27 e3 ff ff 	lea    -0x1cd9(%rbp),%rax
    e0ec:	48 89 85 30 f4 ff ff 	mov    %rax,-0xbd0(%rbp)
    e0f3:	48 8d 85 27 e3 ff ff 	lea    -0x1cd9(%rbp),%rax
    e0fa:	48 89 85 38 f4 ff ff 	mov    %rax,-0xbc8(%rbp)
    e101:	48 c7 85 40 f4 ff ff 	movq   $0x0,-0xbc0(%rbp)
    e108:	00 00 00 00 
    e10c:	48 8d 85 27 e3 ff ff 	lea    -0x1cd9(%rbp),%rax
    e113:	48 89 85 48 f4 ff ff 	mov    %rax,-0xbb8(%rbp)
    e11a:	48 8d 85 27 e3 ff ff 	lea    -0x1cd9(%rbp),%rax
    e121:	48 89 85 50 f4 ff ff 	mov    %rax,-0xbb0(%rbp)
    e128:	48 8d 85 27 e3 ff ff 	lea    -0x1cd9(%rbp),%rax
    e12f:	48 89 85 58 f4 ff ff 	mov    %rax,-0xba8(%rbp)
    e136:	48 c7 85 60 f4 ff ff 	movq   $0x0,-0xba0(%rbp)
    e13d:	00 00 00 00 
    e141:	48 8d 85 27 e3 ff ff 	lea    -0x1cd9(%rbp),%rax
    e148:	48 89 85 68 f4 ff ff 	mov    %rax,-0xb98(%rbp)
    e14f:	48 8d 85 27 e3 ff ff 	lea    -0x1cd9(%rbp),%rax
    e156:	48 89 85 70 f4 ff ff 	mov    %rax,-0xb90(%rbp)
    e15d:	48 c7 85 78 f4 ff ff 	movq   $0x0,-0xb88(%rbp)
    e164:	00 00 00 00 
    e168:	48 8d 85 27 e3 ff ff 	lea    -0x1cd9(%rbp),%rax
    e16f:	48 89 85 80 f4 ff ff 	mov    %rax,-0xb80(%rbp)
    e176:	48 8d 85 27 e3 ff ff 	lea    -0x1cd9(%rbp),%rax
    e17d:	48 89 85 88 f4 ff ff 	mov    %rax,-0xb78(%rbp)
    e184:	48 8d 85 27 e3 ff ff 	lea    -0x1cd9(%rbp),%rax
    e18b:	48 89 85 90 f4 ff ff 	mov    %rax,-0xb70(%rbp)
    e192:	48 c7 85 98 f4 ff ff 	movq   $0x0,-0xb68(%rbp)
    e199:	00 00 00 00 
    e19d:	48 8d 85 27 e3 ff ff 	lea    -0x1cd9(%rbp),%rax
    e1a4:	48 89 85 a0 f4 ff ff 	mov    %rax,-0xb60(%rbp)
    e1ab:	48 8d 85 27 e3 ff ff 	lea    -0x1cd9(%rbp),%rax
    e1b2:	48 89 85 a8 f4 ff ff 	mov    %rax,-0xb58(%rbp)
    e1b9:	48 c7 85 b0 f4 ff ff 	movq   $0x0,-0xb50(%rbp)
    e1c0:	00 00 00 00 
    e1c4:	48 8d 85 27 e3 ff ff 	lea    -0x1cd9(%rbp),%rax
    e1cb:	48 89 85 b8 f4 ff ff 	mov    %rax,-0xb48(%rbp)
    e1d2:	48 8d 85 27 e3 ff ff 	lea    -0x1cd9(%rbp),%rax
    e1d9:	48 89 85 c0 f4 ff ff 	mov    %rax,-0xb40(%rbp)
    e1e0:	48 c7 85 c8 f4 ff ff 	movq   $0x0,-0xb38(%rbp)
    e1e7:	00 00 00 00 
    e1eb:	48 c7 85 d0 f4 ff ff 	movq   $0x0,-0xb30(%rbp)
    e1f2:	00 00 00 00 
    e1f6:	48 8d 85 27 e3 ff ff 	lea    -0x1cd9(%rbp),%rax
    e1fd:	48 89 85 d8 f4 ff ff 	mov    %rax,-0xb28(%rbp)
    e204:	48 8d 85 27 e3 ff ff 	lea    -0x1cd9(%rbp),%rax
    e20b:	48 89 85 e0 f4 ff ff 	mov    %rax,-0xb20(%rbp)
    e212:	48 8d 85 27 e3 ff ff 	lea    -0x1cd9(%rbp),%rax
    e219:	48 89 85 e8 f4 ff ff 	mov    %rax,-0xb18(%rbp)
    e220:	48 8d 85 27 e3 ff ff 	lea    -0x1cd9(%rbp),%rax
    e227:	48 89 85 f0 f4 ff ff 	mov    %rax,-0xb10(%rbp)
    e22e:	48 8d 85 27 e3 ff ff 	lea    -0x1cd9(%rbp),%rax
    e235:	48 89 85 f8 f4 ff ff 	mov    %rax,-0xb08(%rbp)
    e23c:	48 8d 85 27 e3 ff ff 	lea    -0x1cd9(%rbp),%rax
    e243:	48 89 85 00 f5 ff ff 	mov    %rax,-0xb00(%rbp)
    e24a:	48 8d 85 27 e3 ff ff 	lea    -0x1cd9(%rbp),%rax
    e251:	48 89 85 08 f5 ff ff 	mov    %rax,-0xaf8(%rbp)
    e258:	48 8d 85 27 e3 ff ff 	lea    -0x1cd9(%rbp),%rax
    e25f:	48 89 85 10 f5 ff ff 	mov    %rax,-0xaf0(%rbp)
    e266:	48 c7 85 18 f5 ff ff 	movq   $0x0,-0xae8(%rbp)
    e26d:	00 00 00 00 
    e271:	48 8d 85 27 e3 ff ff 	lea    -0x1cd9(%rbp),%rax
    e278:	48 89 85 20 f5 ff ff 	mov    %rax,-0xae0(%rbp)
    e27f:	48 8d 85 27 e3 ff ff 	lea    -0x1cd9(%rbp),%rax
    e286:	48 89 85 28 f5 ff ff 	mov    %rax,-0xad8(%rbp)
    e28d:	48 8d 85 27 e3 ff ff 	lea    -0x1cd9(%rbp),%rax
    e294:	48 89 85 30 f5 ff ff 	mov    %rax,-0xad0(%rbp)
    e29b:	48 8d 85 27 e3 ff ff 	lea    -0x1cd9(%rbp),%rax
    e2a2:	48 89 85 38 f5 ff ff 	mov    %rax,-0xac8(%rbp)
    e2a9:	48 8d 85 27 e3 ff ff 	lea    -0x1cd9(%rbp),%rax
    e2b0:	48 89 85 40 f5 ff ff 	mov    %rax,-0xac0(%rbp)
    e2b7:	48 8d 85 27 e3 ff ff 	lea    -0x1cd9(%rbp),%rax
    e2be:	48 89 85 48 f5 ff ff 	mov    %rax,-0xab8(%rbp)
    e2c5:	48 8d 85 27 e3 ff ff 	lea    -0x1cd9(%rbp),%rax
    e2cc:	48 89 85 50 f5 ff ff 	mov    %rax,-0xab0(%rbp)
    e2d3:	48 8d 85 27 e3 ff ff 	lea    -0x1cd9(%rbp),%rax
    e2da:	48 89 85 58 f5 ff ff 	mov    %rax,-0xaa8(%rbp)
    e2e1:	48 8d 85 27 e3 ff ff 	lea    -0x1cd9(%rbp),%rax
    e2e8:	48 89 85 60 f5 ff ff 	mov    %rax,-0xaa0(%rbp)
    e2ef:	48 c7 85 68 f5 ff ff 	movq   $0x0,-0xa98(%rbp)
    e2f6:	00 00 00 00 
    e2fa:	48 c7 85 70 f5 ff ff 	movq   $0x0,-0xa90(%rbp)
    e301:	00 00 00 00 
    e305:	48 8d 85 27 e3 ff ff 	lea    -0x1cd9(%rbp),%rax
    e30c:	48 89 85 78 f5 ff ff 	mov    %rax,-0xa88(%rbp)
    e313:	48 8d 85 27 e3 ff ff 	lea    -0x1cd9(%rbp),%rax
    e31a:	48 89 85 80 f5 ff ff 	mov    %rax,-0xa80(%rbp)
    e321:	48 8d 85 27 e3 ff ff 	lea    -0x1cd9(%rbp),%rax
    e328:	48 89 85 88 f5 ff ff 	mov    %rax,-0xa78(%rbp)
    e32f:	48 8d 85 27 e3 ff ff 	lea    -0x1cd9(%rbp),%rax
    e336:	48 89 85 90 f5 ff ff 	mov    %rax,-0xa70(%rbp)
    e33d:	48 8d 85 27 e3 ff ff 	lea    -0x1cd9(%rbp),%rax
    e344:	48 89 85 98 f5 ff ff 	mov    %rax,-0xa68(%rbp)
    e34b:	48 8d 85 27 e3 ff ff 	lea    -0x1cd9(%rbp),%rax
    e352:	48 89 85 a0 f5 ff ff 	mov    %rax,-0xa60(%rbp)
    e359:	48 8d 85 27 e3 ff ff 	lea    -0x1cd9(%rbp),%rax
    e360:	48 89 85 a8 f5 ff ff 	mov    %rax,-0xa58(%rbp)
    e367:	48 c7 85 b0 f5 ff ff 	movq   $0x0,-0xa50(%rbp)
    e36e:	00 00 00 00 
    e372:	48 8d 85 27 e3 ff ff 	lea    -0x1cd9(%rbp),%rax
    e379:	48 89 85 b8 f5 ff ff 	mov    %rax,-0xa48(%rbp)
    e380:	48 8d 85 27 e3 ff ff 	lea    -0x1cd9(%rbp),%rax
    e387:	48 89 85 c0 f5 ff ff 	mov    %rax,-0xa40(%rbp)
    e38e:	48 8d 85 27 e3 ff ff 	lea    -0x1cd9(%rbp),%rax
    e395:	48 89 85 c8 f5 ff ff 	mov    %rax,-0xa38(%rbp)
    e39c:	48 8d 85 27 e3 ff ff 	lea    -0x1cd9(%rbp),%rax
    e3a3:	48 89 85 d0 f5 ff ff 	mov    %rax,-0xa30(%rbp)
    e3aa:	48 8d 85 27 e3 ff ff 	lea    -0x1cd9(%rbp),%rax
    e3b1:	48 89 85 d8 f5 ff ff 	mov    %rax,-0xa28(%rbp)
    e3b8:	48 8d 85 27 e3 ff ff 	lea    -0x1cd9(%rbp),%rax
    e3bf:	48 89 85 e0 f5 ff ff 	mov    %rax,-0xa20(%rbp)
    e3c6:	48 8d 85 27 e3 ff ff 	lea    -0x1cd9(%rbp),%rax
    e3cd:	48 89 85 e8 f5 ff ff 	mov    %rax,-0xa18(%rbp)
    e3d4:	48 8d 85 27 e3 ff ff 	lea    -0x1cd9(%rbp),%rax
    e3db:	48 89 85 f0 f5 ff ff 	mov    %rax,-0xa10(%rbp)
    e3e2:	48 8d 85 27 e3 ff ff 	lea    -0x1cd9(%rbp),%rax
    e3e9:	48 89 85 f8 f5 ff ff 	mov    %rax,-0xa08(%rbp)
    e3f0:	48 8d 85 27 e3 ff ff 	lea    -0x1cd9(%rbp),%rax
    e3f7:	48 89 85 00 f6 ff ff 	mov    %rax,-0xa00(%rbp)
    e3fe:	48 8d 85 27 e3 ff ff 	lea    -0x1cd9(%rbp),%rax
    e405:	48 89 85 08 f6 ff ff 	mov    %rax,-0x9f8(%rbp)
    e40c:	48 8d 85 27 e3 ff ff 	lea    -0x1cd9(%rbp),%rax
    e413:	48 89 85 10 f6 ff ff 	mov    %rax,-0x9f0(%rbp)
    e41a:	48 c7 85 18 f6 ff ff 	movq   $0x0,-0x9e8(%rbp)
    e421:	00 00 00 00 
    e425:	48 8d 85 27 e3 ff ff 	lea    -0x1cd9(%rbp),%rax
    e42c:	48 89 85 20 f6 ff ff 	mov    %rax,-0x9e0(%rbp)
    e433:	48 8d 85 27 e3 ff ff 	lea    -0x1cd9(%rbp),%rax
    e43a:	48 89 85 28 f6 ff ff 	mov    %rax,-0x9d8(%rbp)
    e441:	48 c7 85 30 f6 ff ff 	movq   $0x0,-0x9d0(%rbp)
    e448:	00 00 00 00 
    e44c:	48 8d 85 27 e3 ff ff 	lea    -0x1cd9(%rbp),%rax
    e453:	48 89 85 38 f6 ff ff 	mov    %rax,-0x9c8(%rbp)
    e45a:	48 c7 85 40 f6 ff ff 	movq   $0x0,-0x9c0(%rbp)
    e461:	00 00 00 00 
    e465:	48 c7 85 48 f6 ff ff 	movq   $0x0,-0x9b8(%rbp)
    e46c:	00 00 00 00 
    e470:	48 c7 85 50 f6 ff ff 	movq   $0x0,-0x9b0(%rbp)
    e477:	00 00 00 00 
    e47b:	48 8d 85 27 e3 ff ff 	lea    -0x1cd9(%rbp),%rax
    e482:	48 89 85 58 f6 ff ff 	mov    %rax,-0x9a8(%rbp)
    e489:	48 8d 85 27 e3 ff ff 	lea    -0x1cd9(%rbp),%rax
    e490:	48 89 85 60 f6 ff ff 	mov    %rax,-0x9a0(%rbp)
    e497:	48 c7 85 68 f6 ff ff 	movq   $0x0,-0x998(%rbp)
    e49e:	00 00 00 00 
    e4a2:	48 8d 85 27 e3 ff ff 	lea    -0x1cd9(%rbp),%rax
    e4a9:	48 89 85 70 f6 ff ff 	mov    %rax,-0x990(%rbp)
    e4b0:	48 8d 85 27 e3 ff ff 	lea    -0x1cd9(%rbp),%rax
    e4b7:	48 89 85 78 f6 ff ff 	mov    %rax,-0x988(%rbp)
    e4be:	48 8d 85 27 e3 ff ff 	lea    -0x1cd9(%rbp),%rax
    e4c5:	48 89 85 80 f6 ff ff 	mov    %rax,-0x980(%rbp)
    e4cc:	48 c7 85 88 f6 ff ff 	movq   $0x0,-0x978(%rbp)
    e4d3:	00 00 00 00 
    e4d7:	48 c7 85 90 f6 ff ff 	movq   $0x0,-0x970(%rbp)
    e4de:	00 00 00 00 
    e4e2:	48 c7 85 98 f6 ff ff 	movq   $0x0,-0x968(%rbp)
    e4e9:	00 00 00 00 
    e4ed:	48 c7 85 a0 f6 ff ff 	movq   $0x0,-0x960(%rbp)
    e4f4:	00 00 00 00 
    e4f8:	48 8d 85 27 e3 ff ff 	lea    -0x1cd9(%rbp),%rax
    e4ff:	48 89 85 a8 f6 ff ff 	mov    %rax,-0x958(%rbp)
    e506:	48 8d 85 27 e3 ff ff 	lea    -0x1cd9(%rbp),%rax
    e50d:	48 89 85 b0 f6 ff ff 	mov    %rax,-0x950(%rbp)
    e514:	48 8d 85 27 e3 ff ff 	lea    -0x1cd9(%rbp),%rax
    e51b:	48 89 85 b8 f6 ff ff 	mov    %rax,-0x948(%rbp)
    e522:	48 8d 85 27 e3 ff ff 	lea    -0x1cd9(%rbp),%rax
    e529:	48 89 85 c0 f6 ff ff 	mov    %rax,-0x940(%rbp)
    e530:	48 8d 85 27 e3 ff ff 	lea    -0x1cd9(%rbp),%rax
    e537:	48 89 85 c8 f6 ff ff 	mov    %rax,-0x938(%rbp)
    e53e:	48 8d 85 27 e3 ff ff 	lea    -0x1cd9(%rbp),%rax
    e545:	48 89 85 d0 f6 ff ff 	mov    %rax,-0x930(%rbp)
    e54c:	48 8d 85 27 e3 ff ff 	lea    -0x1cd9(%rbp),%rax
    e553:	48 89 85 d8 f6 ff ff 	mov    %rax,-0x928(%rbp)
    e55a:	48 8d 85 27 e3 ff ff 	lea    -0x1cd9(%rbp),%rax
    e561:	48 89 85 e0 f6 ff ff 	mov    %rax,-0x920(%rbp)
    e568:	48 8d 85 27 e3 ff ff 	lea    -0x1cd9(%rbp),%rax
    e56f:	48 89 85 e8 f6 ff ff 	mov    %rax,-0x918(%rbp)
    e576:	48 8d 85 27 e3 ff ff 	lea    -0x1cd9(%rbp),%rax
    e57d:	48 89 85 f0 f6 ff ff 	mov    %rax,-0x910(%rbp)
    e584:	48 8d 85 27 e3 ff ff 	lea    -0x1cd9(%rbp),%rax
    e58b:	48 89 85 f8 f6 ff ff 	mov    %rax,-0x908(%rbp)
    e592:	48 c7 85 00 f7 ff ff 	movq   $0x0,-0x900(%rbp)
    e599:	00 00 00 00 
    e59d:	48 8d 85 27 e3 ff ff 	lea    -0x1cd9(%rbp),%rax
    e5a4:	48 89 85 08 f7 ff ff 	mov    %rax,-0x8f8(%rbp)
    e5ab:	48 c7 85 10 f7 ff ff 	movq   $0x0,-0x8f0(%rbp)
    e5b2:	00 00 00 00 
    e5b6:	48 8d 85 27 e3 ff ff 	lea    -0x1cd9(%rbp),%rax
    e5bd:	48 89 85 18 f7 ff ff 	mov    %rax,-0x8e8(%rbp)
    e5c4:	48 8d 85 27 e3 ff ff 	lea    -0x1cd9(%rbp),%rax
    e5cb:	48 89 85 20 f7 ff ff 	mov    %rax,-0x8e0(%rbp)
    e5d2:	48 8d 85 27 e3 ff ff 	lea    -0x1cd9(%rbp),%rax
    e5d9:	48 89 85 28 f7 ff ff 	mov    %rax,-0x8d8(%rbp)
    e5e0:	48 8d 85 27 e3 ff ff 	lea    -0x1cd9(%rbp),%rax
    e5e7:	48 89 85 30 f7 ff ff 	mov    %rax,-0x8d0(%rbp)
    e5ee:	48 8d 85 27 e3 ff ff 	lea    -0x1cd9(%rbp),%rax
    e5f5:	48 89 85 38 f7 ff ff 	mov    %rax,-0x8c8(%rbp)
    e5fc:	48 8d 85 27 e3 ff ff 	lea    -0x1cd9(%rbp),%rax
    e603:	48 89 85 40 f7 ff ff 	mov    %rax,-0x8c0(%rbp)
    e60a:	48 8d 85 27 e3 ff ff 	lea    -0x1cd9(%rbp),%rax
    e611:	48 89 85 48 f7 ff ff 	mov    %rax,-0x8b8(%rbp)
    e618:	48 8d 85 27 e3 ff ff 	lea    -0x1cd9(%rbp),%rax
    e61f:	48 89 85 50 f7 ff ff 	mov    %rax,-0x8b0(%rbp)
    e626:	48 8d 85 27 e3 ff ff 	lea    -0x1cd9(%rbp),%rax
    e62d:	48 89 85 58 f7 ff ff 	mov    %rax,-0x8a8(%rbp)
    e634:	48 8d 85 27 e3 ff ff 	lea    -0x1cd9(%rbp),%rax
    e63b:	48 89 85 60 f7 ff ff 	mov    %rax,-0x8a0(%rbp)
    e642:	48 c7 85 68 f7 ff ff 	movq   $0x0,-0x898(%rbp)
    e649:	00 00 00 00 
    e64d:	48 8d 85 27 e3 ff ff 	lea    -0x1cd9(%rbp),%rax
    e654:	48 89 85 70 f7 ff ff 	mov    %rax,-0x890(%rbp)
    e65b:	48 8d 85 27 e3 ff ff 	lea    -0x1cd9(%rbp),%rax
    e662:	48 89 85 78 f7 ff ff 	mov    %rax,-0x888(%rbp)
    e669:	48 8d 85 27 e3 ff ff 	lea    -0x1cd9(%rbp),%rax
    e670:	48 89 85 80 f7 ff ff 	mov    %rax,-0x880(%rbp)
    e677:	48 8d 85 27 e3 ff ff 	lea    -0x1cd9(%rbp),%rax
    e67e:	48 89 85 88 f7 ff ff 	mov    %rax,-0x878(%rbp)
    e685:	48 8d 85 27 e3 ff ff 	lea    -0x1cd9(%rbp),%rax
    e68c:	48 89 85 90 f7 ff ff 	mov    %rax,-0x870(%rbp)
    e693:	48 c7 85 98 f7 ff ff 	movq   $0x0,-0x868(%rbp)
    e69a:	00 00 00 00 
    e69e:	48 8d 85 27 e3 ff ff 	lea    -0x1cd9(%rbp),%rax
    e6a5:	48 89 85 a0 f7 ff ff 	mov    %rax,-0x860(%rbp)
    e6ac:	48 8d 85 27 e3 ff ff 	lea    -0x1cd9(%rbp),%rax
    e6b3:	48 89 85 a8 f7 ff ff 	mov    %rax,-0x858(%rbp)
    e6ba:	48 8d 85 27 e3 ff ff 	lea    -0x1cd9(%rbp),%rax
    e6c1:	48 89 85 b0 f7 ff ff 	mov    %rax,-0x850(%rbp)
    e6c8:	48 8d 85 27 e3 ff ff 	lea    -0x1cd9(%rbp),%rax
    e6cf:	48 89 85 b8 f7 ff ff 	mov    %rax,-0x848(%rbp)
    e6d6:	48 8d 85 27 e3 ff ff 	lea    -0x1cd9(%rbp),%rax
    e6dd:	48 89 85 c0 f7 ff ff 	mov    %rax,-0x840(%rbp)
    e6e4:	48 8d 85 27 e3 ff ff 	lea    -0x1cd9(%rbp),%rax
    e6eb:	48 89 85 c8 f7 ff ff 	mov    %rax,-0x838(%rbp)
    e6f2:	48 8d 85 27 e3 ff ff 	lea    -0x1cd9(%rbp),%rax
    e6f9:	48 89 85 d0 f7 ff ff 	mov    %rax,-0x830(%rbp)
    e700:	48 8d 85 27 e3 ff ff 	lea    -0x1cd9(%rbp),%rax
    e707:	48 89 85 d8 f7 ff ff 	mov    %rax,-0x828(%rbp)
    e70e:	48 8d 85 27 e3 ff ff 	lea    -0x1cd9(%rbp),%rax
    e715:	48 89 85 e0 f7 ff ff 	mov    %rax,-0x820(%rbp)
    e71c:	48 8d 85 27 e3 ff ff 	lea    -0x1cd9(%rbp),%rax
    e723:	48 89 85 e8 f7 ff ff 	mov    %rax,-0x818(%rbp)
    e72a:	c6 85 2b e3 ff ff 00 	movb   $0x0,-0x1cd5(%rbp)
    e731:	48 c7 05 7c 8d 00 00 	movq   $0x0,0x8d7c(%rip)        # 174b8 <g_152>
    e738:	00 00 00 00 
    e73c:	e9 89 06 00 00       	jmpq   edca <func_113+0x30a1>
    e741:	48 c7 85 40 e5 ff ff 	movq   $0x0,-0x1ac0(%rbp)
    e748:	00 00 00 00 
    e74c:	48 8d 05 3d 8d 00 00 	lea    0x8d3d(%rip),%rax        # 17490 <g_46>
    e753:	48 89 85 b0 e3 ff ff 	mov    %rax,-0x1c50(%rbp)
    e75a:	48 8d 85 b0 e3 ff ff 	lea    -0x1c50(%rbp),%rax
    e761:	48 89 85 a0 e6 ff ff 	mov    %rax,-0x1960(%rbp)
    e768:	48 8d 85 b0 e3 ff ff 	lea    -0x1c50(%rbp),%rax
    e76f:	48 89 85 a8 e6 ff ff 	mov    %rax,-0x1958(%rbp)
    e776:	48 8d 85 b0 e3 ff ff 	lea    -0x1c50(%rbp),%rax
    e77d:	48 89 85 b0 e6 ff ff 	mov    %rax,-0x1950(%rbp)
    e784:	48 8d 85 b0 e3 ff ff 	lea    -0x1c50(%rbp),%rax
    e78b:	48 89 85 b8 e6 ff ff 	mov    %rax,-0x1948(%rbp)
    e792:	48 8d 85 b0 e3 ff ff 	lea    -0x1c50(%rbp),%rax
    e799:	48 89 85 c0 e6 ff ff 	mov    %rax,-0x1940(%rbp)
    e7a0:	48 8d 85 b0 e3 ff ff 	lea    -0x1c50(%rbp),%rax
    e7a7:	48 89 85 c8 e6 ff ff 	mov    %rax,-0x1938(%rbp)
    e7ae:	48 8d 85 b0 e3 ff ff 	lea    -0x1c50(%rbp),%rax
    e7b5:	48 89 85 d0 e6 ff ff 	mov    %rax,-0x1930(%rbp)
    e7bc:	48 8d 85 b0 e3 ff ff 	lea    -0x1c50(%rbp),%rax
    e7c3:	48 89 85 d8 e6 ff ff 	mov    %rax,-0x1928(%rbp)
    e7ca:	48 8d 85 b0 e3 ff ff 	lea    -0x1c50(%rbp),%rax
    e7d1:	48 89 85 e0 e6 ff ff 	mov    %rax,-0x1920(%rbp)
    e7d8:	48 8d 85 b0 e3 ff ff 	lea    -0x1c50(%rbp),%rax
    e7df:	48 89 85 e8 e6 ff ff 	mov    %rax,-0x1918(%rbp)
    e7e6:	48 8d 85 a0 e6 ff ff 	lea    -0x1960(%rbp),%rax
    e7ed:	48 83 c0 30          	add    $0x30,%rax
    e7f1:	48 89 85 b8 e3 ff ff 	mov    %rax,-0x1c48(%rbp)
    e7f8:	48 8d 85 b8 e3 ff ff 	lea    -0x1c48(%rbp),%rax
    e7ff:	48 89 85 f0 e6 ff ff 	mov    %rax,-0x1910(%rbp)
    e806:	48 8d 85 b8 e3 ff ff 	lea    -0x1c48(%rbp),%rax
    e80d:	48 89 85 f8 e6 ff ff 	mov    %rax,-0x1908(%rbp)
    e814:	48 8d 85 b8 e3 ff ff 	lea    -0x1c48(%rbp),%rax
    e81b:	48 89 85 00 e7 ff ff 	mov    %rax,-0x1900(%rbp)
    e822:	48 8d 85 b8 e3 ff ff 	lea    -0x1c48(%rbp),%rax
    e829:	48 89 85 08 e7 ff ff 	mov    %rax,-0x18f8(%rbp)
    e830:	48 8d 85 b8 e3 ff ff 	lea    -0x1c48(%rbp),%rax
    e837:	48 89 85 10 e7 ff ff 	mov    %rax,-0x18f0(%rbp)
    e83e:	48 8d 85 b8 e3 ff ff 	lea    -0x1c48(%rbp),%rax
    e845:	48 89 85 18 e7 ff ff 	mov    %rax,-0x18e8(%rbp)
    e84c:	48 8d 85 b8 e3 ff ff 	lea    -0x1c48(%rbp),%rax
    e853:	48 89 85 20 e7 ff ff 	mov    %rax,-0x18e0(%rbp)
    e85a:	48 8d 85 b8 e3 ff ff 	lea    -0x1c48(%rbp),%rax
    e861:	48 89 85 28 e7 ff ff 	mov    %rax,-0x18d8(%rbp)
    e868:	48 8d 85 b8 e3 ff ff 	lea    -0x1c48(%rbp),%rax
    e86f:	48 89 85 30 e7 ff ff 	mov    %rax,-0x18d0(%rbp)
    e876:	48 8d 85 b8 e3 ff ff 	lea    -0x1c48(%rbp),%rax
    e87d:	48 89 85 38 e7 ff ff 	mov    %rax,-0x18c8(%rbp)
    e884:	48 8d 85 b8 e3 ff ff 	lea    -0x1c48(%rbp),%rax
    e88b:	48 89 85 40 e7 ff ff 	mov    %rax,-0x18c0(%rbp)
    e892:	48 8d 85 b8 e3 ff ff 	lea    -0x1c48(%rbp),%rax
    e899:	48 89 85 48 e7 ff ff 	mov    %rax,-0x18b8(%rbp)
    e8a0:	48 8d 85 b8 e3 ff ff 	lea    -0x1c48(%rbp),%rax
    e8a7:	48 89 85 50 e7 ff ff 	mov    %rax,-0x18b0(%rbp)
    e8ae:	48 8d 85 b8 e3 ff ff 	lea    -0x1c48(%rbp),%rax
    e8b5:	48 89 85 58 e7 ff ff 	mov    %rax,-0x18a8(%rbp)
    e8bc:	48 8d 85 b8 e3 ff ff 	lea    -0x1c48(%rbp),%rax
    e8c3:	48 89 85 60 e7 ff ff 	mov    %rax,-0x18a0(%rbp)
    e8ca:	48 8d 85 b8 e3 ff ff 	lea    -0x1c48(%rbp),%rax
    e8d1:	48 89 85 68 e7 ff ff 	mov    %rax,-0x1898(%rbp)
    e8d8:	48 8d 85 b8 e3 ff ff 	lea    -0x1c48(%rbp),%rax
    e8df:	48 89 85 70 e7 ff ff 	mov    %rax,-0x1890(%rbp)
    e8e6:	48 8d 85 b8 e3 ff ff 	lea    -0x1c48(%rbp),%rax
    e8ed:	48 89 85 78 e7 ff ff 	mov    %rax,-0x1888(%rbp)
    e8f4:	48 8d 85 b8 e3 ff ff 	lea    -0x1c48(%rbp),%rax
    e8fb:	48 89 85 80 e7 ff ff 	mov    %rax,-0x1880(%rbp)
    e902:	48 8d 85 b8 e3 ff ff 	lea    -0x1c48(%rbp),%rax
    e909:	48 89 85 88 e7 ff ff 	mov    %rax,-0x1878(%rbp)
    e910:	48 8d 85 b8 e3 ff ff 	lea    -0x1c48(%rbp),%rax
    e917:	48 89 85 90 e7 ff ff 	mov    %rax,-0x1870(%rbp)
    e91e:	48 8d 85 b8 e3 ff ff 	lea    -0x1c48(%rbp),%rax
    e925:	48 89 85 98 e7 ff ff 	mov    %rax,-0x1868(%rbp)
    e92c:	48 8d 85 b8 e3 ff ff 	lea    -0x1c48(%rbp),%rax
    e933:	48 89 85 a0 e7 ff ff 	mov    %rax,-0x1860(%rbp)
    e93a:	48 8d 85 b8 e3 ff ff 	lea    -0x1c48(%rbp),%rax
    e941:	48 89 85 a8 e7 ff ff 	mov    %rax,-0x1858(%rbp)
    e948:	48 8d 85 b8 e3 ff ff 	lea    -0x1c48(%rbp),%rax
    e94f:	48 89 85 b0 e7 ff ff 	mov    %rax,-0x1850(%rbp)
    e956:	48 8d 85 b8 e3 ff ff 	lea    -0x1c48(%rbp),%rax
    e95d:	48 89 85 b8 e7 ff ff 	mov    %rax,-0x1848(%rbp)
    e964:	48 8d 85 b8 e3 ff ff 	lea    -0x1c48(%rbp),%rax
    e96b:	48 89 85 c0 e7 ff ff 	mov    %rax,-0x1840(%rbp)
    e972:	48 8d 85 b8 e3 ff ff 	lea    -0x1c48(%rbp),%rax
    e979:	48 89 85 c8 e7 ff ff 	mov    %rax,-0x1838(%rbp)
    e980:	48 8d 85 b8 e3 ff ff 	lea    -0x1c48(%rbp),%rax
    e987:	48 89 85 d0 e7 ff ff 	mov    %rax,-0x1830(%rbp)
    e98e:	48 8d 85 b8 e3 ff ff 	lea    -0x1c48(%rbp),%rax
    e995:	48 89 85 d8 e7 ff ff 	mov    %rax,-0x1828(%rbp)
    e99c:	48 8d 85 b8 e3 ff ff 	lea    -0x1c48(%rbp),%rax
    e9a3:	48 89 85 e0 e7 ff ff 	mov    %rax,-0x1820(%rbp)
    e9aa:	48 8d 85 b8 e3 ff ff 	lea    -0x1c48(%rbp),%rax
    e9b1:	48 89 85 e8 e7 ff ff 	mov    %rax,-0x1818(%rbp)
    e9b8:	48 8d 85 b8 e3 ff ff 	lea    -0x1c48(%rbp),%rax
    e9bf:	48 89 85 f0 e7 ff ff 	mov    %rax,-0x1810(%rbp)
    e9c6:	48 8d 85 b8 e3 ff ff 	lea    -0x1c48(%rbp),%rax
    e9cd:	48 89 85 f8 e7 ff ff 	mov    %rax,-0x1808(%rbp)
    e9d4:	48 8d 85 b8 e3 ff ff 	lea    -0x1c48(%rbp),%rax
    e9db:	48 89 85 00 e8 ff ff 	mov    %rax,-0x1800(%rbp)
    e9e2:	48 8d 85 b8 e3 ff ff 	lea    -0x1c48(%rbp),%rax
    e9e9:	48 89 85 08 e8 ff ff 	mov    %rax,-0x17f8(%rbp)
    e9f0:	48 8d 85 b8 e3 ff ff 	lea    -0x1c48(%rbp),%rax
    e9f7:	48 89 85 10 e8 ff ff 	mov    %rax,-0x17f0(%rbp)
    e9fe:	48 8d 85 b8 e3 ff ff 	lea    -0x1c48(%rbp),%rax
    ea05:	48 89 85 18 e8 ff ff 	mov    %rax,-0x17e8(%rbp)
    ea0c:	48 8d 85 b8 e3 ff ff 	lea    -0x1c48(%rbp),%rax
    ea13:	48 89 85 20 e8 ff ff 	mov    %rax,-0x17e0(%rbp)
    ea1a:	48 8d 85 b8 e3 ff ff 	lea    -0x1c48(%rbp),%rax
    ea21:	48 89 85 28 e8 ff ff 	mov    %rax,-0x17d8(%rbp)
    ea28:	48 8d 85 b8 e3 ff ff 	lea    -0x1c48(%rbp),%rax
    ea2f:	48 89 85 30 e8 ff ff 	mov    %rax,-0x17d0(%rbp)
    ea36:	48 8d 85 b8 e3 ff ff 	lea    -0x1c48(%rbp),%rax
    ea3d:	48 89 85 38 e8 ff ff 	mov    %rax,-0x17c8(%rbp)
    ea44:	48 8d 85 b8 e3 ff ff 	lea    -0x1c48(%rbp),%rax
    ea4b:	48 89 85 40 e8 ff ff 	mov    %rax,-0x17c0(%rbp)
    ea52:	48 8d 85 b8 e3 ff ff 	lea    -0x1c48(%rbp),%rax
    ea59:	48 89 85 48 e8 ff ff 	mov    %rax,-0x17b8(%rbp)
    ea60:	48 8d 85 b8 e3 ff ff 	lea    -0x1c48(%rbp),%rax
    ea67:	48 89 85 50 e8 ff ff 	mov    %rax,-0x17b0(%rbp)
    ea6e:	48 8d 85 b8 e3 ff ff 	lea    -0x1c48(%rbp),%rax
    ea75:	48 89 85 58 e8 ff ff 	mov    %rax,-0x17a8(%rbp)
    ea7c:	48 8d 85 b8 e3 ff ff 	lea    -0x1c48(%rbp),%rax
    ea83:	48 89 85 60 e8 ff ff 	mov    %rax,-0x17a0(%rbp)
    ea8a:	48 8d 85 b8 e3 ff ff 	lea    -0x1c48(%rbp),%rax
    ea91:	48 89 85 68 e8 ff ff 	mov    %rax,-0x1798(%rbp)
    ea98:	48 8d 85 b8 e3 ff ff 	lea    -0x1c48(%rbp),%rax
    ea9f:	48 89 85 70 e8 ff ff 	mov    %rax,-0x1790(%rbp)
    eaa6:	48 8d 85 b8 e3 ff ff 	lea    -0x1c48(%rbp),%rax
    eaad:	48 89 85 78 e8 ff ff 	mov    %rax,-0x1788(%rbp)
    eab4:	48 8d 85 b8 e3 ff ff 	lea    -0x1c48(%rbp),%rax
    eabb:	48 89 85 80 e8 ff ff 	mov    %rax,-0x1780(%rbp)
    eac2:	48 8d 85 b8 e3 ff ff 	lea    -0x1c48(%rbp),%rax
    eac9:	48 89 85 88 e8 ff ff 	mov    %rax,-0x1778(%rbp)
    ead0:	48 8d 85 b8 e3 ff ff 	lea    -0x1c48(%rbp),%rax
    ead7:	48 89 85 90 e8 ff ff 	mov    %rax,-0x1770(%rbp)
    eade:	48 8d 85 b8 e3 ff ff 	lea    -0x1c48(%rbp),%rax
    eae5:	48 89 85 98 e8 ff ff 	mov    %rax,-0x1768(%rbp)
    eaec:	48 8d 85 b8 e3 ff ff 	lea    -0x1c48(%rbp),%rax
    eaf3:	48 89 85 a0 e8 ff ff 	mov    %rax,-0x1760(%rbp)
    eafa:	48 8d 85 b8 e3 ff ff 	lea    -0x1c48(%rbp),%rax
    eb01:	48 89 85 a8 e8 ff ff 	mov    %rax,-0x1758(%rbp)
    eb08:	48 8d 85 b8 e3 ff ff 	lea    -0x1c48(%rbp),%rax
    eb0f:	48 89 85 b0 e8 ff ff 	mov    %rax,-0x1750(%rbp)
    eb16:	48 8d 85 b8 e3 ff ff 	lea    -0x1c48(%rbp),%rax
    eb1d:	48 89 85 b8 e8 ff ff 	mov    %rax,-0x1748(%rbp)
    eb24:	48 8d 85 b8 e3 ff ff 	lea    -0x1c48(%rbp),%rax
    eb2b:	48 89 85 c0 e8 ff ff 	mov    %rax,-0x1740(%rbp)
    eb32:	48 8d 85 b8 e3 ff ff 	lea    -0x1c48(%rbp),%rax
    eb39:	48 89 85 c8 e8 ff ff 	mov    %rax,-0x1738(%rbp)
    eb40:	48 c7 85 48 e5 ff ff 	movq   $0x0,-0x1ab8(%rbp)
    eb47:	00 00 00 00 
    eb4b:	48 8d 85 98 e3 ff ff 	lea    -0x1c68(%rbp),%rax
    eb52:	48 89 85 50 e5 ff ff 	mov    %rax,-0x1ab0(%rbp)
    eb59:	48 c7 85 58 e5 ff ff 	movq   $0x1,-0x1aa8(%rbp)
    eb60:	01 00 00 00 
    eb64:	8b 05 2a 89 00 00    	mov    0x892a(%rip),%eax        # 17494 <g_46+0x4>
    eb6a:	0f b6 d8             	movzbl %al,%ebx
    eb6d:	48 8b 85 18 e3 ff ff 	mov    -0x1ce8(%rbp),%rax
    eb74:	41 89 c4             	mov    %eax,%r12d
    eb77:	48 8b 05 a2 95 00 00 	mov    0x95a2(%rip),%rax        # 18120 <g_165>
    eb7e:	8b 00                	mov    (%rax),%eax
    eb80:	89 c6                	mov    %eax,%esi
    eb82:	48 8d 05 af 97 00 00 	lea    0x97af(%rip),%rax        # 18338 <g_164+0x1f8>
    eb89:	48 89 85 20 e5 ff ff 	mov    %rax,-0x1ae0(%rbp)
    eb90:	48 8b 85 20 e5 ff ff 	mov    -0x1ae0(%rbp),%rax
    eb97:	48 3b 85 38 e5 ff ff 	cmp    -0x1ac8(%rbp),%rax
    eb9e:	0f 95 c0             	setne  %al
    eba1:	0f b6 c0             	movzbl %al,%eax
    eba4:	48 39 85 18 e3 ff ff 	cmp    %rax,-0x1ce8(%rbp)
    ebab:	0f 9c c0             	setl   %al
    ebae:	0f b6 d0             	movzbl %al,%edx
    ebb1:	48 8b 85 18 e3 ff ff 	mov    -0x1ce8(%rbp),%rax
    ebb8:	b9 fe ff ff ff       	mov    $0xfffffffe,%ecx
    ebbd:	48 39 c8             	cmp    %rcx,%rax
    ebc0:	76 14                	jbe    ebd6 <func_113+0x2ead>
    ebc2:	48 8b 85 80 e3 ff ff 	mov    -0x1c80(%rbp),%rax
    ebc9:	8b 00                	mov    (%rax),%eax
    ebcb:	85 c0                	test   %eax,%eax
    ebcd:	74 07                	je     ebd6 <func_113+0x2ead>
    ebcf:	b9 01 00 00 00       	mov    $0x1,%ecx
    ebd4:	eb 05                	jmp    ebdb <func_113+0x2eb2>
    ebd6:	b9 00 00 00 00       	mov    $0x0,%ecx
    ebdb:	48 8b 05 8e 97 00 00 	mov    0x978e(%rip),%rax        # 18370 <g_167>
    ebe2:	48 8b 00             	mov    (%rax),%rax
    ebe5:	8b 00                	mov    (%rax),%eax
    ebe7:	39 c1                	cmp    %eax,%ecx
    ebe9:	0f 9e c0             	setle  %al
    ebec:	0f b6 c0             	movzbl %al,%eax
    ebef:	39 c2                	cmp    %eax,%edx
    ebf1:	48 8b 05 a8 88 00 00 	mov    0x88a8(%rip),%rax        # 174a0 <g_87>
    ebf8:	48 83 bd 18 e3 ff ff 	cmpq   $0x0,-0x1ce8(%rbp)
    ebff:	00 
    ec00:	0f 94 c0             	sete   %al
    ec03:	0f b6 c0             	movzbl %al,%eax
    ec06:	48 8b 95 18 e3 ff ff 	mov    -0x1ce8(%rbp),%rdx
    ec0d:	09 d0                	or     %edx,%eax
    ec0f:	89 c7                	mov    %eax,%edi
    ec11:	e8 a2 62 ff ff       	callq  4eb8 <safe_add_func_uint32_t_u_u>
    ec16:	8b 15 74 88 00 00    	mov    0x8874(%rip),%edx        # 17490 <g_46>
    ec1c:	8b 05 8e 88 00 00    	mov    0x888e(%rip),%eax        # 174b0 <g_132>
    ec22:	39 c2                	cmp    %eax,%edx
    ec24:	0f 94 c0             	sete   %al
    ec27:	0f b6 c0             	movzbl %al,%eax
    ec2a:	44 89 e6             	mov    %r12d,%esi
    ec2d:	89 c7                	mov    %eax,%edi
    ec2f:	e8 d2 61 ff ff       	callq  4e06 <safe_lshift_func_uint16_t_u_u>
    ec34:	0f b7 d0             	movzwl %ax,%edx
    ec37:	48 8b 85 50 e5 ff ff 	mov    -0x1ab0(%rbp),%rax
    ec3e:	89 10                	mov    %edx,(%rax)
    ec40:	b8 01 00 00 00       	mov    $0x1,%eax
    ec45:	0f b6 c0             	movzbl %al,%eax
    ec48:	89 de                	mov    %ebx,%esi
    ec4a:	89 c7                	mov    %eax,%edi
    ec4c:	e8 8a 5f ff ff       	callq  4bdb <safe_div_func_uint8_t_u_u>
    ec51:	0f b6 d0             	movzbl %al,%edx
    ec54:	0f b7 05 67 88 00 00 	movzwl 0x8867(%rip),%eax        # 174c2 <g_157>
    ec5b:	98                   	cwtl   
    ec5c:	89 d6                	mov    %edx,%esi
    ec5e:	89 c7                	mov    %eax,%edi
    ec60:	e8 2d 58 ff ff       	callq  4492 <safe_lshift_func_int16_t_s_s>
    ec65:	89 c2                	mov    %eax,%edx
    ec67:	48 8b 85 80 e3 ff ff 	mov    -0x1c80(%rbp),%rax
    ec6e:	0f bf d2             	movswl %dx,%edx
    ec71:	89 10                	mov    %edx,(%rax)
    ec73:	48 8b 15 a6 94 00 00 	mov    0x94a6(%rip),%rdx        # 18120 <g_165>
    ec7a:	8b 00                	mov    (%rax),%eax
    ec7c:	89 02                	mov    %eax,(%rdx)
    ec7e:	48 8b 05 9b 94 00 00 	mov    0x949b(%rip),%rax        # 18120 <g_165>
    ec85:	48 8b 95 18 e3 ff ff 	mov    -0x1ce8(%rbp),%rdx
    ec8c:	89 10                	mov    %edx,(%rax)
    ec8e:	48 8b 05 23 88 00 00 	mov    0x8823(%rip),%rax        # 174b8 <g_152>
    ec95:	48 c7 c6 ff ff ff ff 	mov    $0xffffffffffffffff,%rsi
    ec9c:	48 89 c7             	mov    %rax,%rdi
    ec9f:	e8 0b 64 ff ff       	callq  50af <safe_div_func_uint64_t_u_u>
    eca4:	48 8b 05 0d 88 00 00 	mov    0x880d(%rip),%rax        # 174b8 <g_152>
    ecab:	41 89 c4             	mov    %eax,%r12d
    ecae:	8b 05 d0 87 00 00    	mov    0x87d0(%rip),%eax        # 17484 <g_43+0x4>
    ecb4:	85 c0                	test   %eax,%eax
    ecb6:	0f 85 b7 00 00 00    	jne    ed73 <func_113+0x304a>
    ecbc:	0f b6 05 01 88 00 00 	movzbl 0x8801(%rip),%eax        # 174c4 <g_159>
    ecc3:	0f b6 d8             	movzbl %al,%ebx
    ecc6:	48 8b 05 03 88 00 00 	mov    0x8803(%rip),%rax        # 174d0 <g_215>
    eccd:	ba 00 00 00 00       	mov    $0x0,%edx
    ecd2:	48 8b 85 c0 e3 ff ff 	mov    -0x1c40(%rbp),%rax
    ecd9:	8b 00                	mov    (%rax),%eax
    ecdb:	09 c2                	or     %eax,%edx
    ecdd:	48 8b 85 c0 e3 ff ff 	mov    -0x1c40(%rbp),%rax
    ece4:	89 10                	mov    %edx,(%rax)
    ece6:	8b 05 dc 87 00 00    	mov    0x87dc(%rip),%eax        # 174c8 <g_214>
    ecec:	25 db 00 00 00       	and    $0xdb,%eax
    ecf1:	89 05 d1 87 00 00    	mov    %eax,0x87d1(%rip)        # 174c8 <g_214>
    ecf7:	8b 15 ef 85 00 00    	mov    0x85ef(%rip),%edx        # 172ec <g_42+0x22c>
    ecfd:	0f b7 05 bc 87 00 00 	movzwl 0x87bc(%rip),%eax        # 174c0 <g_155>
    ed04:	98                   	cwtl   
    ed05:	39 c2                	cmp    %eax,%edx
    ed07:	0f 94 c0             	sete   %al
    ed0a:	0f b6 c0             	movzbl %al,%eax
    ed0d:	48 23 85 18 e3 ff ff 	and    -0x1ce8(%rbp),%rax
    ed14:	48 23 85 18 e3 ff ff 	and    -0x1ce8(%rbp),%rax
    ed1b:	48 89 c2             	mov    %rax,%rdx
    ed1e:	48 8b 05 93 87 00 00 	mov    0x8793(%rip),%rax        # 174b8 <g_152>
    ed25:	48 39 c2             	cmp    %rax,%rdx
    ed28:	0f 92 c0             	setb   %al
    ed2b:	0f b6 d0             	movzbl %al,%edx
    ed2e:	8b 05 68 87 00 00    	mov    0x8768(%rip),%eax        # 1749c <g_61>
    ed34:	3d 30 ca f2 4c       	cmp    $0x4cf2ca30,%eax
    ed39:	0f 97 c0             	seta   %al
    ed3c:	0f b6 c0             	movzbl %al,%eax
    ed3f:	89 d6                	mov    %edx,%esi
    ed41:	89 c7                	mov    %eax,%edi
    ed43:	e8 ad 56 ff ff       	callq  43f5 <safe_mul_func_int16_t_s_s>
    ed48:	0f b6 c0             	movzbl %al,%eax
    ed4b:	89 c6                	mov    %eax,%esi
    ed4d:	bf 9b 00 00 00       	mov    $0x9b,%edi
    ed52:	e8 3c 5e ff ff       	callq  4b93 <safe_mul_func_uint8_t_u_u>
    ed57:	0f b6 c0             	movzbl %al,%eax
    ed5a:	8b 15 78 87 00 00    	mov    0x8778(%rip),%edx        # 174d8 <g_216>
    ed60:	21 d0                	and    %edx,%eax
    ed62:	0f b7 c0             	movzwl %ax,%eax
    ed65:	89 de                	mov    %ebx,%esi
    ed67:	89 c7                	mov    %eax,%edi
    ed69:	e8 20 60 ff ff       	callq  4d8e <safe_div_func_uint16_t_u_u>
    ed6e:	66 85 c0             	test   %ax,%ax
    ed71:	74 07                	je     ed7a <func_113+0x3051>
    ed73:	b8 01 00 00 00       	mov    $0x1,%eax
    ed78:	eb 05                	jmp    ed7f <func_113+0x3056>
    ed7a:	b8 00 00 00 00       	mov    $0x0,%eax
    ed7f:	0f b6 c0             	movzbl %al,%eax
    ed82:	44 89 e6             	mov    %r12d,%esi
    ed85:	89 c7                	mov    %eax,%edi
    ed87:	e8 32 5f ff ff       	callq  4cbe <safe_rshift_func_uint8_t_u_u>
    ed8c:	48 8b 95 e0 e3 ff ff 	mov    -0x1c20(%rbp),%rdx
    ed93:	88 02                	mov    %al,(%rdx)
    ed95:	b9 01 00 00 00       	mov    $0x1,%ecx
    ed9a:	48 8b 85 80 e3 ff ff 	mov    -0x1c80(%rbp),%rax
    eda1:	8b 10                	mov    (%rax),%edx
    eda3:	48 8b 85 80 e3 ff ff 	mov    -0x1c80(%rbp),%rax
    edaa:	21 ca                	and    %ecx,%edx
    edac:	89 10                	mov    %edx,(%rax)
    edae:	48 83 bd 18 e3 ff ff 	cmpq   $0x0,-0x1ce8(%rbp)
    edb5:	00 
    edb6:	75 25                	jne    eddd <func_113+0x30b4>
    edb8:	48 8b 05 f9 86 00 00 	mov    0x86f9(%rip),%rax        # 174b8 <g_152>
    edbf:	48 83 c0 01          	add    $0x1,%rax
    edc3:	48 89 05 ee 86 00 00 	mov    %rax,0x86ee(%rip)        # 174b8 <g_152>
    edca:	48 8b 05 e7 86 00 00 	mov    0x86e7(%rip),%rax        # 174b8 <g_152>
    edd1:	48 83 f8 01          	cmp    $0x1,%rax
    edd5:	0f 85 66 f9 ff ff    	jne    e741 <func_113+0x2a18>
    eddb:	eb 01                	jmp    edde <func_113+0x30b5>
    eddd:	90                   	nop
    edde:	48 8d 85 2c e3 ff ff 	lea    -0x1cd4(%rbp),%rax
    ede5:	48 39 85 28 e5 ff ff 	cmp    %rax,-0x1ad8(%rbp)
    edec:	0f 94 c0             	sete   %al
    edef:	88 85 2b e3 ff ff    	mov    %al,-0x1cd5(%rbp)
    edf5:	48 8b 85 e0 fd ff ff 	mov    -0x220(%rbp),%rax
    edfc:	48 89 85 e0 fd ff ff 	mov    %rax,-0x220(%rbp)
    ee03:	48 8b 05 66 95 00 00 	mov    0x9566(%rip),%rax        # 18370 <g_167>
    ee0a:	48 8b 00             	mov    (%rax),%rax
    ee0d:	e9 53 2a 00 00       	jmpq   11865 <func_113+0x5b3c>
    ee12:	48 b8 3f 7a 3d 65 72 	movabs $0x102d3572653d7a3f,%rax
    ee19:	35 2d 10 
    ee1c:	48 89 85 98 e3 ff ff 	mov    %rax,-0x1c68(%rbp)
    ee23:	c7 85 64 e3 ff ff 00 	movl   $0x0,-0x1c9c(%rbp)
    ee2a:	00 00 00 
    ee2d:	c7 85 68 e3 ff ff fc 	movl   $0xfffffffc,-0x1c98(%rbp)
    ee34:	ff ff ff 
    ee37:	48 c7 85 a0 e3 ff ff 	movq   $0x0,-0x1c60(%rbp)
    ee3e:	00 00 00 00 
    ee42:	48 8d 85 a0 e3 ff ff 	lea    -0x1c60(%rbp),%rax
    ee49:	48 89 85 40 e4 ff ff 	mov    %rax,-0x1bc0(%rbp)
    ee50:	48 8d 05 69 86 00 00 	lea    0x8669(%rip),%rax        # 174c0 <g_155>
    ee57:	48 89 85 48 e4 ff ff 	mov    %rax,-0x1bb8(%rbp)
    ee5e:	c6 85 29 e3 ff ff c8 	movb   $0xc8,-0x1cd7(%rbp)
    ee65:	c7 85 6c e3 ff ff 03 	movl   $0x3,-0x1c94(%rbp)
    ee6c:	00 00 00 
    ee6f:	c7 85 48 e3 ff ff a3 	movl   $0x208dea3,-0x1cb8(%rbp)
    ee76:	de 08 02 
    ee79:	48 c7 85 50 e4 ff ff 	movq   $0xffffffffffffffff,-0x1bb0(%rbp)
    ee80:	ff ff ff ff 
    ee84:	48 8d 05 d5 41 00 00 	lea    0x41d5(%rip),%rax        # 13060 <g_436>
    ee8b:	48 89 85 a8 e3 ff ff 	mov    %rax,-0x1c58(%rbp)
    ee92:	48 c7 85 70 f0 ff ff 	movq   $0x0,-0xf90(%rbp)
    ee99:	00 00 00 00 
    ee9d:	48 c7 85 78 f0 ff ff 	movq   $0x0,-0xf88(%rbp)
    eea4:	00 00 00 00 
    eea8:	48 c7 85 80 f0 ff ff 	movq   $0x0,-0xf80(%rbp)
    eeaf:	00 00 00 00 
    eeb3:	48 c7 85 88 f0 ff ff 	movq   $0x0,-0xf78(%rbp)
    eeba:	00 00 00 00 
    eebe:	48 8d 85 a8 e3 ff ff 	lea    -0x1c58(%rbp),%rax
    eec5:	48 89 85 90 f0 ff ff 	mov    %rax,-0xf70(%rbp)
    eecc:	48 8d 85 a8 e3 ff ff 	lea    -0x1c58(%rbp),%rax
    eed3:	48 89 85 98 f0 ff ff 	mov    %rax,-0xf68(%rbp)
    eeda:	48 c7 85 a0 f0 ff ff 	movq   $0x0,-0xf60(%rbp)
    eee1:	00 00 00 00 
    eee5:	48 8d 85 a8 e3 ff ff 	lea    -0x1c58(%rbp),%rax
    eeec:	48 89 85 a8 f0 ff ff 	mov    %rax,-0xf58(%rbp)
    eef3:	48 8d 85 a8 e3 ff ff 	lea    -0x1c58(%rbp),%rax
    eefa:	48 89 85 b0 f0 ff ff 	mov    %rax,-0xf50(%rbp)
    ef01:	48 c7 85 b8 f0 ff ff 	movq   $0x0,-0xf48(%rbp)
    ef08:	00 00 00 00 
    ef0c:	48 c7 85 c0 f0 ff ff 	movq   $0x0,-0xf40(%rbp)
    ef13:	00 00 00 00 
    ef17:	48 c7 85 c8 f0 ff ff 	movq   $0x0,-0xf38(%rbp)
    ef1e:	00 00 00 00 
    ef22:	48 c7 85 d0 f0 ff ff 	movq   $0x0,-0xf30(%rbp)
    ef29:	00 00 00 00 
    ef2d:	48 c7 85 d8 f0 ff ff 	movq   $0x0,-0xf28(%rbp)
    ef34:	00 00 00 00 
    ef38:	48 8d 85 a8 e3 ff ff 	lea    -0x1c58(%rbp),%rax
    ef3f:	48 89 85 e0 f0 ff ff 	mov    %rax,-0xf20(%rbp)
    ef46:	48 8d 85 a8 e3 ff ff 	lea    -0x1c58(%rbp),%rax
    ef4d:	48 89 85 e8 f0 ff ff 	mov    %rax,-0xf18(%rbp)
    ef54:	48 c7 85 f0 f0 ff ff 	movq   $0x0,-0xf10(%rbp)
    ef5b:	00 00 00 00 
    ef5f:	48 8d 85 a8 e3 ff ff 	lea    -0x1c58(%rbp),%rax
    ef66:	48 89 85 f8 f0 ff ff 	mov    %rax,-0xf08(%rbp)
    ef6d:	48 8d 85 a8 e3 ff ff 	lea    -0x1c58(%rbp),%rax
    ef74:	48 89 85 00 f1 ff ff 	mov    %rax,-0xf00(%rbp)
    ef7b:	48 c7 85 08 f1 ff ff 	movq   $0x0,-0xef8(%rbp)
    ef82:	00 00 00 00 
    ef86:	48 c7 85 10 f1 ff ff 	movq   $0x0,-0xef0(%rbp)
    ef8d:	00 00 00 00 
    ef91:	48 c7 85 18 f1 ff ff 	movq   $0x0,-0xee8(%rbp)
    ef98:	00 00 00 00 
    ef9c:	48 c7 85 20 f1 ff ff 	movq   $0x0,-0xee0(%rbp)
    efa3:	00 00 00 00 
    efa7:	48 c7 85 28 f1 ff ff 	movq   $0x0,-0xed8(%rbp)
    efae:	00 00 00 00 
    efb2:	48 8d 85 a8 e3 ff ff 	lea    -0x1c58(%rbp),%rax
    efb9:	48 89 85 30 f1 ff ff 	mov    %rax,-0xed0(%rbp)
    efc0:	48 8d 85 a8 e3 ff ff 	lea    -0x1c58(%rbp),%rax
    efc7:	48 89 85 38 f1 ff ff 	mov    %rax,-0xec8(%rbp)
    efce:	48 c7 85 40 f1 ff ff 	movq   $0x0,-0xec0(%rbp)
    efd5:	00 00 00 00 
    efd9:	48 8d 85 a8 e3 ff ff 	lea    -0x1c58(%rbp),%rax
    efe0:	48 89 85 48 f1 ff ff 	mov    %rax,-0xeb8(%rbp)
    efe7:	48 8d 85 a8 e3 ff ff 	lea    -0x1c58(%rbp),%rax
    efee:	48 89 85 50 f1 ff ff 	mov    %rax,-0xeb0(%rbp)
    eff5:	48 c7 85 58 f1 ff ff 	movq   $0x0,-0xea8(%rbp)
    effc:	00 00 00 00 
    f000:	48 c7 85 60 f1 ff ff 	movq   $0x0,-0xea0(%rbp)
    f007:	00 00 00 00 
    f00b:	48 c7 85 68 f1 ff ff 	movq   $0x0,-0xe98(%rbp)
    f012:	00 00 00 00 
    f016:	48 c7 85 70 f1 ff ff 	movq   $0x0,-0xe90(%rbp)
    f01d:	00 00 00 00 
    f021:	48 c7 85 78 f1 ff ff 	movq   $0x0,-0xe88(%rbp)
    f028:	00 00 00 00 
    f02c:	48 8d 85 a8 e3 ff ff 	lea    -0x1c58(%rbp),%rax
    f033:	48 89 85 80 f1 ff ff 	mov    %rax,-0xe80(%rbp)
    f03a:	48 8d 85 a8 e3 ff ff 	lea    -0x1c58(%rbp),%rax
    f041:	48 89 85 88 f1 ff ff 	mov    %rax,-0xe78(%rbp)
    f048:	48 c7 85 90 f1 ff ff 	movq   $0x0,-0xe70(%rbp)
    f04f:	00 00 00 00 
    f053:	48 8d 85 a8 e3 ff ff 	lea    -0x1c58(%rbp),%rax
    f05a:	48 89 85 98 f1 ff ff 	mov    %rax,-0xe68(%rbp)
    f061:	48 8d 85 a8 e3 ff ff 	lea    -0x1c58(%rbp),%rax
    f068:	48 89 85 a0 f1 ff ff 	mov    %rax,-0xe60(%rbp)
    f06f:	48 c7 85 a8 f1 ff ff 	movq   $0x0,-0xe58(%rbp)
    f076:	00 00 00 00 
    f07a:	48 c7 85 b0 f1 ff ff 	movq   $0x0,-0xe50(%rbp)
    f081:	00 00 00 00 
    f085:	48 c7 85 b8 f1 ff ff 	movq   $0x0,-0xe48(%rbp)
    f08c:	00 00 00 00 
    f090:	48 c7 85 c0 f1 ff ff 	movq   $0x0,-0xe40(%rbp)
    f097:	00 00 00 00 
    f09b:	48 c7 85 c8 f1 ff ff 	movq   $0x0,-0xe38(%rbp)
    f0a2:	00 00 00 00 
    f0a6:	48 8d 85 a8 e3 ff ff 	lea    -0x1c58(%rbp),%rax
    f0ad:	48 89 85 d0 f1 ff ff 	mov    %rax,-0xe30(%rbp)
    f0b4:	48 8d 85 a8 e3 ff ff 	lea    -0x1c58(%rbp),%rax
    f0bb:	48 89 85 d8 f1 ff ff 	mov    %rax,-0xe28(%rbp)
    f0c2:	48 c7 85 e0 f1 ff ff 	movq   $0x0,-0xe20(%rbp)
    f0c9:	00 00 00 00 
    f0cd:	48 8d 85 a8 e3 ff ff 	lea    -0x1c58(%rbp),%rax
    f0d4:	48 89 85 e8 f1 ff ff 	mov    %rax,-0xe18(%rbp)
    f0db:	48 8d 85 a8 e3 ff ff 	lea    -0x1c58(%rbp),%rax
    f0e2:	48 89 85 f0 f1 ff ff 	mov    %rax,-0xe10(%rbp)
    f0e9:	48 c7 85 f8 f1 ff ff 	movq   $0x0,-0xe08(%rbp)
    f0f0:	00 00 00 00 
    f0f4:	48 c7 85 00 f2 ff ff 	movq   $0x0,-0xe00(%rbp)
    f0fb:	00 00 00 00 
    f0ff:	48 c7 85 08 f2 ff ff 	movq   $0x0,-0xdf8(%rbp)
    f106:	00 00 00 00 
    f10a:	48 c7 85 10 f2 ff ff 	movq   $0x0,-0xdf0(%rbp)
    f111:	00 00 00 00 
    f115:	48 c7 85 18 f2 ff ff 	movq   $0x0,-0xde8(%rbp)
    f11c:	00 00 00 00 
    f120:	48 8d 85 a8 e3 ff ff 	lea    -0x1c58(%rbp),%rax
    f127:	48 89 85 20 f2 ff ff 	mov    %rax,-0xde0(%rbp)
    f12e:	48 8d 85 a8 e3 ff ff 	lea    -0x1c58(%rbp),%rax
    f135:	48 89 85 28 f2 ff ff 	mov    %rax,-0xdd8(%rbp)
    f13c:	48 c7 85 30 f2 ff ff 	movq   $0x0,-0xdd0(%rbp)
    f143:	00 00 00 00 
    f147:	48 8d 85 a8 e3 ff ff 	lea    -0x1c58(%rbp),%rax
    f14e:	48 89 85 38 f2 ff ff 	mov    %rax,-0xdc8(%rbp)
    f155:	48 8d 85 a8 e3 ff ff 	lea    -0x1c58(%rbp),%rax
    f15c:	48 89 85 40 f2 ff ff 	mov    %rax,-0xdc0(%rbp)
    f163:	48 c7 85 48 f2 ff ff 	movq   $0x0,-0xdb8(%rbp)
    f16a:	00 00 00 00 
    f16e:	48 c7 85 50 f2 ff ff 	movq   $0x0,-0xdb0(%rbp)
    f175:	00 00 00 00 
    f179:	48 c7 85 58 f2 ff ff 	movq   $0x0,-0xda8(%rbp)
    f180:	00 00 00 00 
    f184:	48 c7 85 60 f2 ff ff 	movq   $0x0,-0xda0(%rbp)
    f18b:	00 00 00 00 
    f18f:	48 c7 85 68 f2 ff ff 	movq   $0x0,-0xd98(%rbp)
    f196:	00 00 00 00 
    f19a:	48 8d 85 a8 e3 ff ff 	lea    -0x1c58(%rbp),%rax
    f1a1:	48 89 85 70 f2 ff ff 	mov    %rax,-0xd90(%rbp)
    f1a8:	48 8d 85 a8 e3 ff ff 	lea    -0x1c58(%rbp),%rax
    f1af:	48 89 85 78 f2 ff ff 	mov    %rax,-0xd88(%rbp)
    f1b6:	48 c7 85 80 f2 ff ff 	movq   $0x0,-0xd80(%rbp)
    f1bd:	00 00 00 00 
    f1c1:	48 8d 85 a8 e3 ff ff 	lea    -0x1c58(%rbp),%rax
    f1c8:	48 89 85 88 f2 ff ff 	mov    %rax,-0xd78(%rbp)
    f1cf:	48 8d 85 a8 e3 ff ff 	lea    -0x1c58(%rbp),%rax
    f1d6:	48 89 85 90 f2 ff ff 	mov    %rax,-0xd70(%rbp)
    f1dd:	48 c7 85 98 f2 ff ff 	movq   $0x0,-0xd68(%rbp)
    f1e4:	00 00 00 00 
    f1e8:	48 c7 85 a0 f2 ff ff 	movq   $0x0,-0xd60(%rbp)
    f1ef:	00 00 00 00 
    f1f3:	48 c7 85 a8 f2 ff ff 	movq   $0x0,-0xd58(%rbp)
    f1fa:	00 00 00 00 
    f1fe:	48 c7 85 b0 f2 ff ff 	movq   $0x0,-0xd50(%rbp)
    f205:	00 00 00 00 
    f209:	48 c7 85 b8 f2 ff ff 	movq   $0x0,-0xd48(%rbp)
    f210:	00 00 00 00 
    f214:	48 8d 85 a8 e3 ff ff 	lea    -0x1c58(%rbp),%rax
    f21b:	48 89 85 c0 f2 ff ff 	mov    %rax,-0xd40(%rbp)
    f222:	48 8d 85 a8 e3 ff ff 	lea    -0x1c58(%rbp),%rax
    f229:	48 89 85 c8 f2 ff ff 	mov    %rax,-0xd38(%rbp)
    f230:	48 c7 85 d0 f2 ff ff 	movq   $0x0,-0xd30(%rbp)
    f237:	00 00 00 00 
    f23b:	48 8d 85 a8 e3 ff ff 	lea    -0x1c58(%rbp),%rax
    f242:	48 89 85 d8 f2 ff ff 	mov    %rax,-0xd28(%rbp)
    f249:	48 8d 85 a8 e3 ff ff 	lea    -0x1c58(%rbp),%rax
    f250:	48 89 85 e0 f2 ff ff 	mov    %rax,-0xd20(%rbp)
    f257:	48 c7 85 e8 f2 ff ff 	movq   $0x0,-0xd18(%rbp)
    f25e:	00 00 00 00 
    f262:	48 c7 85 f0 f2 ff ff 	movq   $0x0,-0xd10(%rbp)
    f269:	00 00 00 00 
    f26d:	48 c7 85 f8 f2 ff ff 	movq   $0x0,-0xd08(%rbp)
    f274:	00 00 00 00 
    f278:	48 c7 85 00 f3 ff ff 	movq   $0x0,-0xd00(%rbp)
    f27f:	00 00 00 00 
    f283:	48 c7 85 08 f3 ff ff 	movq   $0x0,-0xcf8(%rbp)
    f28a:	00 00 00 00 
    f28e:	48 8d 85 a8 e3 ff ff 	lea    -0x1c58(%rbp),%rax
    f295:	48 89 85 10 f3 ff ff 	mov    %rax,-0xcf0(%rbp)
    f29c:	48 8d 85 a8 e3 ff ff 	lea    -0x1c58(%rbp),%rax
    f2a3:	48 89 85 18 f3 ff ff 	mov    %rax,-0xce8(%rbp)
    f2aa:	48 c7 85 20 f3 ff ff 	movq   $0x0,-0xce0(%rbp)
    f2b1:	00 00 00 00 
    f2b5:	48 8d 85 a8 e3 ff ff 	lea    -0x1c58(%rbp),%rax
    f2bc:	48 89 85 28 f3 ff ff 	mov    %rax,-0xcd8(%rbp)
    f2c3:	48 8d 85 a8 e3 ff ff 	lea    -0x1c58(%rbp),%rax
    f2ca:	48 89 85 30 f3 ff ff 	mov    %rax,-0xcd0(%rbp)
    f2d1:	48 c7 85 38 f3 ff ff 	movq   $0x0,-0xcc8(%rbp)
    f2d8:	00 00 00 00 
    f2dc:	48 c7 85 40 f3 ff ff 	movq   $0x0,-0xcc0(%rbp)
    f2e3:	00 00 00 00 
    f2e7:	48 c7 85 48 f3 ff ff 	movq   $0x0,-0xcb8(%rbp)
    f2ee:	00 00 00 00 
    f2f2:	48 c7 85 50 f3 ff ff 	movq   $0x0,-0xcb0(%rbp)
    f2f9:	00 00 00 00 
    f2fd:	48 c7 85 58 f3 ff ff 	movq   $0x0,-0xca8(%rbp)
    f304:	00 00 00 00 
    f308:	48 8d 85 a8 e3 ff ff 	lea    -0x1c58(%rbp),%rax
    f30f:	48 89 85 60 f3 ff ff 	mov    %rax,-0xca0(%rbp)
    f316:	48 8d 85 a8 e3 ff ff 	lea    -0x1c58(%rbp),%rax
    f31d:	48 89 85 68 f3 ff ff 	mov    %rax,-0xc98(%rbp)
    f324:	48 c7 85 70 f3 ff ff 	movq   $0x0,-0xc90(%rbp)
    f32b:	00 00 00 00 
    f32f:	48 8d 85 a8 e3 ff ff 	lea    -0x1c58(%rbp),%rax
    f336:	48 89 85 78 f3 ff ff 	mov    %rax,-0xc88(%rbp)
    f33d:	48 8d 85 a8 e3 ff ff 	lea    -0x1c58(%rbp),%rax
    f344:	48 89 85 80 f3 ff ff 	mov    %rax,-0xc80(%rbp)
    f34b:	48 c7 85 88 f3 ff ff 	movq   $0x0,-0xc78(%rbp)
    f352:	00 00 00 00 
    f356:	48 c7 85 90 f3 ff ff 	movq   $0x0,-0xc70(%rbp)
    f35d:	00 00 00 00 
    f361:	48 c7 85 98 f3 ff ff 	movq   $0x0,-0xc68(%rbp)
    f368:	00 00 00 00 
    f36c:	48 c7 85 a0 f3 ff ff 	movq   $0x0,-0xc60(%rbp)
    f373:	00 00 00 00 
    f377:	48 c7 85 a8 f3 ff ff 	movq   $0x0,-0xc58(%rbp)
    f37e:	00 00 00 00 
    f382:	48 8d 85 a8 e3 ff ff 	lea    -0x1c58(%rbp),%rax
    f389:	48 89 85 b0 f3 ff ff 	mov    %rax,-0xc50(%rbp)
    f390:	48 8d 85 a8 e3 ff ff 	lea    -0x1c58(%rbp),%rax
    f397:	48 89 85 b8 f3 ff ff 	mov    %rax,-0xc48(%rbp)
    f39e:	48 c7 85 c0 f3 ff ff 	movq   $0x0,-0xc40(%rbp)
    f3a5:	00 00 00 00 
    f3a9:	48 8d 85 a8 e3 ff ff 	lea    -0x1c58(%rbp),%rax
    f3b0:	48 89 85 c8 f3 ff ff 	mov    %rax,-0xc38(%rbp)
    f3b7:	48 8d 85 a8 e3 ff ff 	lea    -0x1c58(%rbp),%rax
    f3be:	48 89 85 d0 f3 ff ff 	mov    %rax,-0xc30(%rbp)
    f3c5:	48 c7 85 d8 f3 ff ff 	movq   $0x0,-0xc28(%rbp)
    f3cc:	00 00 00 00 
    f3d0:	48 c7 85 e0 f3 ff ff 	movq   $0x0,-0xc20(%rbp)
    f3d7:	00 00 00 00 
    f3db:	48 c7 85 e8 f3 ff ff 	movq   $0x0,-0xc18(%rbp)
    f3e2:	00 00 00 00 
    f3e6:	48 c7 85 f0 f3 ff ff 	movq   $0x0,-0xc10(%rbp)
    f3ed:	00 00 00 00 
    f3f1:	48 c7 85 f8 f3 ff ff 	movq   $0x0,-0xc08(%rbp)
    f3f8:	00 00 00 00 
    f3fc:	48 8d 85 a8 e3 ff ff 	lea    -0x1c58(%rbp),%rax
    f403:	48 89 85 00 f4 ff ff 	mov    %rax,-0xc00(%rbp)
    f40a:	48 8d 85 a8 e3 ff ff 	lea    -0x1c58(%rbp),%rax
    f411:	48 89 85 08 f4 ff ff 	mov    %rax,-0xbf8(%rbp)
    f418:	48 c7 85 10 f4 ff ff 	movq   $0x0,-0xbf0(%rbp)
    f41f:	00 00 00 00 
    f423:	48 8d 85 a8 e3 ff ff 	lea    -0x1c58(%rbp),%rax
    f42a:	48 89 85 18 f4 ff ff 	mov    %rax,-0xbe8(%rbp)
    f431:	48 8d 85 a8 e3 ff ff 	lea    -0x1c58(%rbp),%rax
    f438:	48 89 85 20 f4 ff ff 	mov    %rax,-0xbe0(%rbp)
    f43f:	48 c7 85 28 f4 ff ff 	movq   $0x0,-0xbd8(%rbp)
    f446:	00 00 00 00 
    f44a:	48 c7 85 30 f4 ff ff 	movq   $0x0,-0xbd0(%rbp)
    f451:	00 00 00 00 
    f455:	48 c7 85 38 f4 ff ff 	movq   $0x0,-0xbc8(%rbp)
    f45c:	00 00 00 00 
    f460:	48 c7 85 40 f4 ff ff 	movq   $0x0,-0xbc0(%rbp)
    f467:	00 00 00 00 
    f46b:	48 c7 85 48 f4 ff ff 	movq   $0x0,-0xbb8(%rbp)
    f472:	00 00 00 00 
    f476:	48 8d 85 a8 e3 ff ff 	lea    -0x1c58(%rbp),%rax
    f47d:	48 89 85 50 f4 ff ff 	mov    %rax,-0xbb0(%rbp)
    f484:	48 8d 85 a8 e3 ff ff 	lea    -0x1c58(%rbp),%rax
    f48b:	48 89 85 58 f4 ff ff 	mov    %rax,-0xba8(%rbp)
    f492:	48 c7 85 60 f4 ff ff 	movq   $0x0,-0xba0(%rbp)
    f499:	00 00 00 00 
    f49d:	48 8d 85 a8 e3 ff ff 	lea    -0x1c58(%rbp),%rax
    f4a4:	48 89 85 68 f4 ff ff 	mov    %rax,-0xb98(%rbp)
    f4ab:	48 8d 85 a8 e3 ff ff 	lea    -0x1c58(%rbp),%rax
    f4b2:	48 89 85 70 f4 ff ff 	mov    %rax,-0xb90(%rbp)
    f4b9:	48 c7 85 78 f4 ff ff 	movq   $0x0,-0xb88(%rbp)
    f4c0:	00 00 00 00 
    f4c4:	48 c7 85 80 f4 ff ff 	movq   $0x0,-0xb80(%rbp)
    f4cb:	00 00 00 00 
    f4cf:	48 c7 85 88 f4 ff ff 	movq   $0x0,-0xb78(%rbp)
    f4d6:	00 00 00 00 
    f4da:	48 c7 85 90 f4 ff ff 	movq   $0x0,-0xb70(%rbp)
    f4e1:	00 00 00 00 
    f4e5:	48 c7 85 98 f4 ff ff 	movq   $0x0,-0xb68(%rbp)
    f4ec:	00 00 00 00 
    f4f0:	48 8d 85 a8 e3 ff ff 	lea    -0x1c58(%rbp),%rax
    f4f7:	48 89 85 a0 f4 ff ff 	mov    %rax,-0xb60(%rbp)
    f4fe:	48 c7 85 a8 f4 ff ff 	movq   $0x0,-0xb58(%rbp)
    f505:	00 00 00 00 
    f509:	48 8d 85 a8 e3 ff ff 	lea    -0x1c58(%rbp),%rax
    f510:	48 89 85 b0 f4 ff ff 	mov    %rax,-0xb50(%rbp)
    f517:	48 c7 85 b8 f4 ff ff 	movq   $0x0,-0xb48(%rbp)
    f51e:	00 00 00 00 
    f522:	48 8d 85 a8 e3 ff ff 	lea    -0x1c58(%rbp),%rax
    f529:	48 89 85 c0 f4 ff ff 	mov    %rax,-0xb40(%rbp)
    f530:	48 8d 85 a8 e3 ff ff 	lea    -0x1c58(%rbp),%rax
    f537:	48 89 85 c8 f4 ff ff 	mov    %rax,-0xb38(%rbp)
    f53e:	48 c7 85 d0 f4 ff ff 	movq   $0x0,-0xb30(%rbp)
    f545:	00 00 00 00 
    f549:	48 c7 85 d8 f4 ff ff 	movq   $0x0,-0xb28(%rbp)
    f550:	00 00 00 00 
    f554:	48 c7 85 e0 f4 ff ff 	movq   $0x0,-0xb20(%rbp)
    f55b:	00 00 00 00 
    f55f:	48 8d 85 a8 e3 ff ff 	lea    -0x1c58(%rbp),%rax
    f566:	48 89 85 e8 f4 ff ff 	mov    %rax,-0xb18(%rbp)
    f56d:	c7 85 4c e3 ff ff 00 	movl   $0x0,-0x1cb4(%rbp)
    f574:	00 00 00 
    f577:	eb 1e                	jmp    f597 <func_113+0x386e>
    f579:	8b 85 4c e3 ff ff    	mov    -0x1cb4(%rbp),%eax
    f57f:	48 98                	cltq   
    f581:	48 8d 95 2c e3 ff ff 	lea    -0x1cd4(%rbp),%rdx
    f588:	48 89 94 c5 88 e5 ff 	mov    %rdx,-0x1a78(%rbp,%rax,8)
    f58f:	ff 
    f590:	83 85 4c e3 ff ff 01 	addl   $0x1,-0x1cb4(%rbp)
    f597:	83 bd 4c e3 ff ff 00 	cmpl   $0x0,-0x1cb4(%rbp)
    f59e:	7e d9                	jle    f579 <func_113+0x3850>
    f5a0:	48 8b 05 19 8e 00 00 	mov    0x8e19(%rip),%rax        # 183c0 <g_223>
    f5a7:	48 b8 20 45 8b 1e 5c 	movabs $0xa177585c1e8b4520,%rax
    f5ae:	58 77 a1 
    f5b1:	48 89 85 f0 e6 ff ff 	mov    %rax,-0x1910(%rbp)
    f5b8:	48 89 85 f8 e6 ff ff 	mov    %rax,-0x1908(%rbp)
    f5bf:	48 89 85 00 e7 ff ff 	mov    %rax,-0x1900(%rbp)
    f5c6:	48 89 85 08 e7 ff ff 	mov    %rax,-0x18f8(%rbp)
    f5cd:	c7 85 70 e3 ff ff ff 	movl   $0xffffffff,-0x1c90(%rbp)
    f5d4:	ff ff ff 
    f5d7:	48 8d 85 38 e3 ff ff 	lea    -0x1cc8(%rbp),%rax
    f5de:	48 89 85 58 e4 ff ff 	mov    %rax,-0x1ba8(%rbp)
    f5e5:	66 c7 85 32 e3 ff ff 	movw   $0xfd81,-0x1cce(%rbp)
    f5ec:	81 fd 
    f5ee:	48 c7 85 60 e4 ff ff 	movq   $0x0,-0x1ba0(%rbp)
    f5f5:	00 00 00 00 
    f5f9:	48 8d 05 e2 7e 00 00 	lea    0x7ee2(%rip),%rax        # 174e2 <g_261>
    f600:	48 89 85 68 e4 ff ff 	mov    %rax,-0x1b98(%rbp)
    f607:	48 c7 85 b8 e3 ff ff 	movq   $0x0,-0x1c48(%rbp)
    f60e:	00 00 00 00 
    f612:	48 8d 85 b8 e3 ff ff 	lea    -0x1c48(%rbp),%rax
    f619:	48 89 85 70 e4 ff ff 	mov    %rax,-0x1b90(%rbp)
    f620:	48 8d 85 f0 f7 ff ff 	lea    -0x810(%rbp),%rax
    f627:	48 83 c0 18          	add    $0x18,%rax
    f62b:	48 89 85 78 e4 ff ff 	mov    %rax,-0x1b88(%rbp)
    f632:	c7 85 50 e3 ff ff 00 	movl   $0x0,-0x1cb0(%rbp)
    f639:	00 00 00 
    f63c:	eb 1e                	jmp    f65c <func_113+0x3933>
    f63e:	8b 85 50 e3 ff ff    	mov    -0x1cb0(%rbp),%eax
    f644:	48 98                	cltq   
    f646:	48 8d 15 95 7e 00 00 	lea    0x7e95(%rip),%rdx        # 174e2 <g_261>
    f64d:	48 89 94 c5 f0 f7 ff 	mov    %rdx,-0x810(%rbp,%rax,8)
    f654:	ff 
    f655:	83 85 50 e3 ff ff 01 	addl   $0x1,-0x1cb0(%rbp)
    f65c:	83 bd 50 e3 ff ff 07 	cmpl   $0x7,-0x1cb0(%rbp)
    f663:	7e d9                	jle    f63e <func_113+0x3915>
    f665:	48 83 bd 18 e3 ff ff 	cmpq   $0x0,-0x1ce8(%rbp)
    f66c:	00 
    f66d:	0f 84 4d 01 00 00    	je     f7c0 <func_113+0x3a97>
    f673:	48 8d 05 5e 7e 00 00 	lea    0x7e5e(%rip),%rax        # 174d8 <g_216>
    f67a:	48 89 85 d0 ea ff ff 	mov    %rax,-0x1530(%rbp)
    f681:	48 8d 05 50 7e 00 00 	lea    0x7e50(%rip),%rax        # 174d8 <g_216>
    f688:	48 89 85 d8 ea ff ff 	mov    %rax,-0x1528(%rbp)
    f68f:	48 8d 05 42 7e 00 00 	lea    0x7e42(%rip),%rax        # 174d8 <g_216>
    f696:	48 89 85 e0 ea ff ff 	mov    %rax,-0x1520(%rbp)
    f69d:	48 8d 05 34 7e 00 00 	lea    0x7e34(%rip),%rax        # 174d8 <g_216>
    f6a4:	48 89 85 e8 ea ff ff 	mov    %rax,-0x1518(%rbp)
    f6ab:	48 8d 05 26 7e 00 00 	lea    0x7e26(%rip),%rax        # 174d8 <g_216>
    f6b2:	48 89 85 f0 ea ff ff 	mov    %rax,-0x1510(%rbp)
    f6b9:	48 8b 85 18 e3 ff ff 	mov    -0x1ce8(%rbp),%rax
    f6c0:	0f bf d8             	movswl %ax,%ebx
    f6c3:	48 8b 95 98 e3 ff ff 	mov    -0x1c68(%rbp),%rdx
    f6ca:	48 8b 85 98 e3 ff ff 	mov    -0x1c68(%rbp),%rax
    f6d1:	48 89 d6             	mov    %rdx,%rsi
    f6d4:	48 89 c7             	mov    %rax,%rdi
    f6d7:	e8 65 51 ff ff       	callq  4841 <safe_add_func_int64_t_s_s>
    f6dc:	48 8b 85 00 e7 ff ff 	mov    -0x1900(%rbp),%rax
    f6e3:	48 be a4 b1 e0 89 6e 	movabs $0x4b8be36e89e0b1a4,%rsi
    f6ea:	e3 8b 4b 
    f6ed:	48 89 c7             	mov    %rax,%rdi
    f6f0:	e8 bf 52 ff ff       	callq  49b4 <safe_mod_func_int64_t_s_s>
    f6f5:	48 8b 85 d0 ea ff ff 	mov    -0x1530(%rbp),%rax
    f6fc:	48 85 c0             	test   %rax,%rax
    f6ff:	0f 95 c0             	setne  %al
    f702:	0f b6 c0             	movzbl %al,%eax
    f705:	48 8b 95 98 e3 ff ff 	mov    -0x1c68(%rbp),%rdx
    f70c:	21 95 70 e3 ff ff    	and    %edx,-0x1c90(%rbp)
    f712:	33 85 70 e3 ff ff    	xor    -0x1c90(%rbp),%eax
    f718:	48 98                	cltq   
    f71a:	48 39 85 18 e3 ff ff 	cmp    %rax,-0x1ce8(%rbp)
    f721:	0f 9e c0             	setle  %al
    f724:	0f b6 d0             	movzbl %al,%edx
    f727:	48 8b 85 98 e3 ff ff 	mov    -0x1c68(%rbp),%rax
    f72e:	48 39 c2             	cmp    %rax,%rdx
    f731:	7f 07                	jg     f73a <func_113+0x3a11>
    f733:	b8 fc ff ff ff       	mov    $0xfffffffc,%eax
    f738:	eb 05                	jmp    f73f <func_113+0x3a16>
    f73a:	b8 fd ff ff ff       	mov    $0xfffffffd,%eax
    f73f:	89 de                	mov    %ebx,%esi
    f741:	89 c7                	mov    %eax,%edi
    f743:	e8 ad 4c ff ff       	callq  43f5 <safe_mul_func_int16_t_s_s>
    f748:	48 0f bf d0          	movswq %ax,%rdx
    f74c:	48 8b 85 98 e3 ff ff 	mov    -0x1c68(%rbp),%rax
    f753:	48 39 c2             	cmp    %rax,%rdx
    f756:	0f 9f c0             	setg   %al
    f759:	0f b6 d8             	movzbl %al,%ebx
    f75c:	48 8b 85 18 e3 ff ff 	mov    -0x1ce8(%rbp),%rax
    f763:	98                   	cwtl   
    f764:	89 c7                	mov    %eax,%edi
    f766:	e8 32 4c ff ff       	callq  439d <safe_unary_minus_func_int16_t_s>
    f76b:	0f b6 c0             	movzbl %al,%eax
    f76e:	89 de                	mov    %ebx,%esi
    f770:	89 c7                	mov    %eax,%edi
    f772:	e8 d5 54 ff ff       	callq  4c4c <safe_lshift_func_uint8_t_u_u>
    f777:	0f b6 d0             	movzbl %al,%edx
    f77a:	48 8b 85 98 e3 ff ff 	mov    -0x1c68(%rbp),%rax
    f781:	48 89 d1             	mov    %rdx,%rcx
    f784:	48 21 c1             	and    %rax,%rcx
    f787:	48 8b 05 e2 8b 00 00 	mov    0x8be2(%rip),%rax        # 18370 <g_167>
    f78e:	48 8b 00             	mov    (%rax),%rax
    f791:	8b 10                	mov    (%rax),%edx
    f793:	48 8b 05 d6 8b 00 00 	mov    0x8bd6(%rip),%rax        # 18370 <g_167>
    f79a:	48 8b 00             	mov    (%rax),%rax
    f79d:	31 ca                	xor    %ecx,%edx
    f79f:	89 10                	mov    %edx,(%rax)
    f7a1:	c7 05 1d 7d 00 00 e2 	movl   $0xffffffe2,0x7d1d(%rip)        # 174c8 <g_214>
    f7a8:	ff ff ff 
    f7ab:	90                   	nop
    f7ac:	8b 05 16 7d 00 00    	mov    0x7d16(%rip),%eax        # 174c8 <g_214>
    f7b2:	83 f8 16             	cmp    $0x16,%eax
    f7b5:	0f 86 b1 06 00 00    	jbe    fe6c <func_113+0x4143>
    f7bb:	e9 c3 06 00 00       	jmpq   fe83 <func_113+0x415a>
    f7c0:	48 8d 05 18 7d 00 00 	lea    0x7d18(%rip),%rax        # 174df <g_247+0x3>
    f7c7:	48 89 85 80 e4 ff ff 	mov    %rax,-0x1b80(%rbp)
    f7ce:	48 8d 85 d0 e8 ff ff 	lea    -0x1730(%rbp),%rax
    f7d5:	48 05 74 01 00 00    	add    $0x174,%rax
    f7db:	48 89 85 88 e4 ff ff 	mov    %rax,-0x1b78(%rbp)
    f7e2:	c7 85 74 e3 ff ff 01 	movl   $0x1,-0x1c8c(%rbp)
    f7e9:	00 00 00 
    f7ec:	c7 85 54 e3 ff ff 00 	movl   $0x0,-0x1cac(%rbp)
    f7f3:	00 00 00 
    f7f6:	eb 1e                	jmp    f816 <func_113+0x3aed>
    f7f8:	8b 85 54 e3 ff ff    	mov    -0x1cac(%rbp),%eax
    f7fe:	48 98                	cltq   
    f800:	48 8d 15 db 7c 00 00 	lea    0x7cdb(%rip),%rdx        # 174e2 <g_261>
    f807:	48 89 94 c5 d0 ea ff 	mov    %rdx,-0x1530(%rbp,%rax,8)
    f80e:	ff 
    f80f:	83 85 54 e3 ff ff 01 	addl   $0x1,-0x1cac(%rbp)
    f816:	83 bd 54 e3 ff ff 00 	cmpl   $0x0,-0x1cac(%rbp)
    f81d:	7e d9                	jle    f7f8 <func_113+0x3acf>
    f81f:	48 8b 05 92 7c 00 00 	mov    0x7c92(%rip),%rax        # 174b8 <g_152>
    f826:	48 83 c0 01          	add    $0x1,%rax
    f82a:	48 89 05 87 7c 00 00 	mov    %rax,0x7c87(%rip)        # 174b8 <g_152>
    f831:	48 8b 1d 80 7c 00 00 	mov    0x7c80(%rip),%rbx        # 174b8 <g_152>
    f838:	8b 05 92 7c 00 00    	mov    0x7c92(%rip),%eax        # 174d0 <g_215>
    f83e:	89 c2                	mov    %eax,%edx
    f840:	48 8b 85 18 e3 ff ff 	mov    -0x1ce8(%rbp),%rax
    f847:	31 c2                	xor    %eax,%edx
    f849:	8b 05 89 7c 00 00    	mov    0x7c89(%rip),%eax        # 174d8 <g_216>
    f84f:	0f be c0             	movsbl %al,%eax
    f852:	89 d6                	mov    %edx,%esi
    f854:	89 c7                	mov    %eax,%edi
    f856:	e8 da 4a ff ff       	callq  4335 <safe_rshift_func_int8_t_s_s>
    f85b:	48 0f be c0          	movsbq %al,%rax
    f85f:	48 39 c3             	cmp    %rax,%rbx
    f862:	0f 93 c0             	setae  %al
    f865:	44 0f b6 e0          	movzbl %al,%r12d
    f869:	48 8b 85 e0 e3 ff ff 	mov    -0x1c20(%rbp),%rax
    f870:	c6 00 00             	movb   $0x0,(%rax)
    f873:	48 8b 85 e0 e3 ff ff 	mov    -0x1c20(%rbp),%rax
    f87a:	0f b6 10             	movzbl (%rax),%edx
    f87d:	48 8b 85 80 e4 ff ff 	mov    -0x1b80(%rbp),%rax
    f884:	88 10                	mov    %dl,(%rax)
    f886:	0f b6 05 52 7c 00 00 	movzbl 0x7c52(%rip),%eax        # 174df <g_247+0x3>
    f88d:	0f be d8             	movsbl %al,%ebx
    f890:	be 01 00 00 00       	mov    $0x1,%esi
    f895:	bf ee ff ff ff       	mov    $0xffffffee,%edi
    f89a:	e8 35 49 ff ff       	callq  41d4 <safe_add_func_int8_t_s_s>
    f89f:	0f be c0             	movsbl %al,%eax
    f8a2:	48 8b 95 18 e3 ff ff 	mov    -0x1ce8(%rbp),%rdx
    f8a9:	89 c6                	mov    %eax,%esi
    f8ab:	89 d7                	mov    %edx,%edi
    f8ad:	e8 4d 4e ff ff       	callq  46ff <safe_div_func_int32_t_s_s>
    f8b2:	89 c2                	mov    %eax,%edx
    f8b4:	48 8b 85 88 e4 ff ff 	mov    -0x1b78(%rbp),%rax
    f8bb:	89 10                	mov    %edx,(%rax)
    f8bd:	48 8b 85 88 e4 ff ff 	mov    -0x1b78(%rbp),%rax
    f8c4:	8b 00                	mov    (%rax),%eax
    f8c6:	35 0f 5f 92 5d       	xor    $0x5d925f0f,%eax
    f8cb:	89 c2                	mov    %eax,%edx
    f8cd:	0f b6 05 0b 7c 00 00 	movzbl 0x7c0b(%rip),%eax        # 174df <g_247+0x3>
    f8d4:	0f b6 c0             	movzbl %al,%eax
    f8d7:	39 c2                	cmp    %eax,%edx
    f8d9:	0f 93 c0             	setae  %al
    f8dc:	0f b6 c0             	movzbl %al,%eax
    f8df:	89 de                	mov    %ebx,%esi
    f8e1:	89 c7                	mov    %eax,%edi
    f8e3:	e8 ec 48 ff ff       	callq  41d4 <safe_add_func_int8_t_s_s>
    f8e8:	48 0f be c0          	movsbq %al,%rax
    f8ec:	be 09 00 00 00       	mov    $0x9,%esi
    f8f1:	48 89 c7             	mov    %rax,%rdi
    f8f4:	e8 af 4f ff ff       	callq  48a8 <safe_sub_func_int64_t_s_s>
    f8f9:	98                   	cwtl   
    f8fa:	be 09 00 00 00       	mov    $0x9,%esi
    f8ff:	89 c7                	mov    %eax,%edi
    f901:	e8 24 4c ff ff       	callq  452a <safe_rshift_func_int16_t_s_s>
    f906:	98                   	cwtl   
    f907:	39 85 68 e3 ff ff    	cmp    %eax,-0x1c98(%rbp)
    f90d:	74 07                	je     f916 <func_113+0x3bed>
    f90f:	b8 01 00 00 00       	mov    $0x1,%eax
    f914:	eb 05                	jmp    f91b <func_113+0x3bf2>
    f916:	b8 00 00 00 00       	mov    $0x0,%eax
    f91b:	89 c2                	mov    %eax,%edx
    f91d:	48 8b 85 80 e3 ff ff 	mov    -0x1c80(%rbp),%rax
    f924:	8b 00                	mov    (%rax),%eax
    f926:	31 d0                	xor    %edx,%eax
    f928:	66 89 05 b3 7b 00 00 	mov    %ax,0x7bb3(%rip)        # 174e2 <g_261>
    f92f:	0f b7 05 ac 7b 00 00 	movzwl 0x7bac(%rip),%eax        # 174e2 <g_261>
    f936:	0f b7 c0             	movzwl %ax,%eax
    f939:	41 39 c4             	cmp    %eax,%r12d
    f93c:	7f 11                	jg     f94f <func_113+0x3c26>
    f93e:	48 83 bd 18 e3 ff ff 	cmpq   $0x0,-0x1ce8(%rbp)
    f945:	00 
    f946:	74 07                	je     f94f <func_113+0x3c26>
    f948:	b8 01 00 00 00       	mov    $0x1,%eax
    f94d:	eb 05                	jmp    f954 <func_113+0x3c2b>
    f94f:	b8 00 00 00 00       	mov    $0x0,%eax
    f954:	0f b7 d0             	movzwl %ax,%edx
    f957:	48 8b 85 18 e3 ff ff 	mov    -0x1ce8(%rbp),%rax
    f95e:	0f b7 c0             	movzwl %ax,%eax
    f961:	89 d6                	mov    %edx,%esi
    f963:	89 c7                	mov    %eax,%edi
    f965:	e8 d3 53 ff ff       	callq  4d3d <safe_mul_func_uint16_t_u_u>
    f96a:	66 85 c0             	test   %ax,%ax
    f96d:	74 33                	je     f9a2 <func_113+0x3c79>
    f96f:	c6 85 2a e3 ff ff 62 	movb   $0x62,-0x1cd6(%rbp)
    f976:	48 8d 85 a0 e5 ff ff 	lea    -0x1a60(%rbp),%rax
    f97d:	48 83 c0 0c          	add    $0xc,%rax
    f981:	48 89 85 c0 e4 ff ff 	mov    %rax,-0x1b40(%rbp)
    f988:	80 85 2a e3 ff ff 01 	addb   $0x1,-0x1cd6(%rbp)
    f98f:	48 8b 85 c0 e4 ff ff 	mov    -0x1b40(%rbp),%rax
    f996:	48 89 85 58 e4 ff ff 	mov    %rax,-0x1ba8(%rbp)
    f99d:	e9 be 04 00 00       	jmpq   fe60 <func_113+0x4137>
    f9a2:	48 c7 85 90 e4 ff ff 	movq   $0x0,-0x1b70(%rbp)
    f9a9:	00 00 00 00 
    f9ad:	48 8d 05 a0 36 00 00 	lea    0x36a0(%rip),%rax        # 13054 <g_122>
    f9b4:	48 89 85 98 e4 ff ff 	mov    %rax,-0x1b68(%rbp)
    f9bb:	c7 85 78 e3 ff ff 01 	movl   $0x1,-0x1c88(%rbp)
    f9c2:	00 00 00 
    f9c5:	48 8b 85 18 e3 ff ff 	mov    -0x1ce8(%rbp),%rax
    f9cc:	0f bf d8             	movswl %ax,%ebx
    f9cf:	48 83 bd 90 e4 ff ff 	cmpq   $0x0,-0x1b70(%rbp)
    f9d6:	00 
    f9d7:	0f 94 c0             	sete   %al
    f9da:	44 0f b6 e8          	movzbl %al,%r13d
    f9de:	48 8b 05 eb 7a 00 00 	mov    0x7aeb(%rip),%rax        # 174d0 <g_215>
    f9e5:	44 0f b7 e0          	movzwl %ax,%r12d
    f9e9:	48 83 bd 18 e3 ff ff 	cmpq   $0x0,-0x1ce8(%rbp)
    f9f0:	00 
    f9f1:	75 28                	jne    fa1b <func_113+0x3cf2>
    f9f3:	0f b7 05 e8 7a 00 00 	movzwl 0x7ae8(%rip),%eax        # 174e2 <g_261>
    f9fa:	0f b7 c0             	movzwl %ax,%eax
    f9fd:	48 39 85 18 e3 ff ff 	cmp    %rax,-0x1ce8(%rbp)
    fa04:	0f 95 c0             	setne  %al
    fa07:	0f b6 c0             	movzbl %al,%eax
    fa0a:	48 89 05 a7 7a 00 00 	mov    %rax,0x7aa7(%rip)        # 174b8 <g_152>
    fa11:	48 8b 05 a0 7a 00 00 	mov    0x7aa0(%rip),%rax        # 174b8 <g_152>
    fa18:	48 85 c0             	test   %rax,%rax
    fa1b:	48 8b 15 fe 86 00 00 	mov    0x86fe(%rip),%rdx        # 18120 <g_165>
    fa22:	48 8b 05 f7 86 00 00 	mov    0x86f7(%rip),%rax        # 18120 <g_165>
    fa29:	8b 12                	mov    (%rdx),%edx
    fa2b:	89 10                	mov    %edx,(%rax)
    fa2d:	8b 00                	mov    (%rax),%eax
    fa2f:	be 01 00 00 00       	mov    $0x1,%esi
    fa34:	89 c7                	mov    %eax,%edi
    fa36:	e8 07 4c ff ff       	callq  4642 <safe_mul_func_int32_t_s_s>
    fa3b:	0f b7 c0             	movzwl %ax,%eax
    fa3e:	44 89 e6             	mov    %r12d,%esi
    fa41:	89 c7                	mov    %eax,%edi
    fa43:	e8 14 53 ff ff       	callq  4d5c <safe_mod_func_uint16_t_u_u>
    fa48:	48 8b 05 a9 89 00 00 	mov    0x89a9(%rip),%rax        # 183f8 <g_283+0x18>
    fa4f:	48 39 85 40 e4 ff ff 	cmp    %rax,-0x1bc0(%rbp)
    fa56:	0f 94 c0             	sete   %al
    fa59:	0f b6 c0             	movzbl %al,%eax
    fa5c:	be 44 7e 00 00       	mov    $0x7e44,%esi
    fa61:	89 c7                	mov    %eax,%edi
    fa63:	e8 6b 49 ff ff       	callq  43d3 <safe_sub_func_int16_t_s_s>
    fa68:	0f b6 c0             	movzbl %al,%eax
    fa6b:	be eb 00 00 00       	mov    $0xeb,%esi
    fa70:	89 c7                	mov    %eax,%edi
    fa72:	e8 64 51 ff ff       	callq  4bdb <safe_div_func_uint8_t_u_u>
    fa77:	0f b6 c0             	movzbl %al,%eax
    fa7a:	48 23 85 18 e3 ff ff 	and    -0x1ce8(%rbp),%rax
    fa81:	4c 89 ea             	mov    %r13,%rdx
    fa84:	48 09 c2             	or     %rax,%rdx
    fa87:	0f b6 05 51 7a 00 00 	movzbl 0x7a51(%rip),%eax        # 174df <g_247+0x3>
    fa8e:	0f b6 c0             	movzbl %al,%eax
    fa91:	48 39 c2             	cmp    %rax,%rdx
    fa94:	0f 9d c0             	setge  %al
    fa97:	0f b6 c0             	movzbl %al,%eax
    fa9a:	89 de                	mov    %ebx,%esi
    fa9c:	89 c7                	mov    %eax,%edi
    fa9e:	e8 10 49 ff ff       	callq  43b3 <safe_add_func_int16_t_s_s>
    faa3:	98                   	cwtl   
    faa4:	f7 d0                	not    %eax
    faa6:	89 c2                	mov    %eax,%edx
    faa8:	48 8b 85 80 e3 ff ff 	mov    -0x1c80(%rbp),%rax
    faaf:	8b 00                	mov    (%rax),%eax
    fab1:	09 d0                	or     %edx,%eax
    fab3:	85 c0                	test   %eax,%eax
    fab5:	0f 84 4f 01 00 00    	je     fc0a <func_113+0x3ee1>
    fabb:	48 8d 05 20 7a 00 00 	lea    0x7a20(%rip),%rax        # 174e2 <g_261>
    fac2:	48 89 85 b0 e4 ff ff 	mov    %rax,-0x1b50(%rbp)
    fac9:	c7 85 7c e3 ff ff 01 	movl   $0x1,-0x1c84(%rbp)
    fad0:	00 00 00 
    fad3:	48 8d 85 98 e3 ff ff 	lea    -0x1c68(%rbp),%rax
    fada:	48 89 85 b8 e4 ff ff 	mov    %rax,-0x1b48(%rbp)
    fae1:	8b 05 a5 79 00 00    	mov    0x79a5(%rip),%eax        # 1748c <g_45>
    fae7:	85 c0                	test   %eax,%eax
    fae9:	0f 84 e3 00 00 00    	je     fbd2 <func_113+0x3ea9>
    faef:	8b 85 7c e3 ff ff    	mov    -0x1c84(%rbp),%eax
    faf5:	0f be d8             	movsbl %al,%ebx
    faf8:	48 8b 85 18 e3 ff ff 	mov    -0x1ce8(%rbp),%rax
    faff:	48 8d 15 4e 35 00 00 	lea    0x354e(%rip),%rdx        # 13054 <g_122>
    fb06:	48 39 95 98 e4 ff ff 	cmp    %rdx,-0x1b68(%rbp)
    fb0d:	0f 95 c2             	setne  %dl
    fb10:	0f b6 ca             	movzbl %dl,%ecx
    fb13:	0f b7 15 a8 79 00 00 	movzwl 0x79a8(%rip),%edx        # 174c2 <g_157>
    fb1a:	66 83 fa ff          	cmp    $0xffff,%dx
    fb1e:	0f 95 c2             	setne  %dl
    fb21:	0f b6 d2             	movzbl %dl,%edx
    fb24:	39 d1                	cmp    %edx,%ecx
    fb26:	0f 9c c2             	setl   %dl
    fb29:	0f b6 ca             	movzbl %dl,%ecx
    fb2c:	8b 15 9e 79 00 00    	mov    0x799e(%rip),%edx        # 174d0 <g_215>
    fb32:	09 ca                	or     %ecx,%edx
    fb34:	89 d2                	mov    %edx,%edx
    fb36:	48 89 c6             	mov    %rax,%rsi
    fb39:	48 89 d7             	mov    %rdx,%rdi
    fb3c:	e8 6e 55 ff ff       	callq  50af <safe_div_func_uint64_t_u_u>
    fb41:	89 c2                	mov    %eax,%edx
    fb43:	0f b6 05 93 79 00 00 	movzbl 0x7993(%rip),%eax        # 174dd <g_247+0x1>
    fb4a:	21 d0                	and    %edx,%eax
    fb4c:	0f be c0             	movsbl %al,%eax
    fb4f:	be 00 00 00 00       	mov    $0x0,%esi
    fb54:	89 c7                	mov    %eax,%edi
    fb56:	e8 97 46 ff ff       	callq  41f2 <safe_sub_func_int8_t_s_s>
    fb5b:	0f be c0             	movsbl %al,%eax
    fb5e:	89 de                	mov    %ebx,%esi
    fb60:	89 c7                	mov    %eax,%edi
    fb62:	e8 ca 46 ff ff       	callq  4231 <safe_mod_func_int8_t_s_s>
    fb67:	0f b6 d8             	movzbl %al,%ebx
    fb6a:	48 8b 85 18 e3 ff ff 	mov    -0x1ce8(%rbp),%rax
    fb71:	0f b6 c0             	movzbl %al,%eax
    fb74:	be 06 00 00 00       	mov    $0x6,%esi
    fb79:	89 c7                	mov    %eax,%edi
    fb7b:	e8 3e 51 ff ff       	callq  4cbe <safe_rshift_func_uint8_t_u_u>
    fb80:	0f b6 c0             	movzbl %al,%eax
    fb83:	89 de                	mov    %ebx,%esi
    fb85:	89 c7                	mov    %eax,%edi
    fb87:	e8 07 50 ff ff       	callq  4b93 <safe_mul_func_uint8_t_u_u>
    fb8c:	48 83 bd 48 e4 ff ff 	cmpq   $0x0,-0x1bb8(%rbp)
    fb93:	00 
    fb94:	0f 95 c0             	setne  %al
    fb97:	0f b6 d0             	movzbl %al,%edx
    fb9a:	48 8b 05 7f 85 00 00 	mov    0x857f(%rip),%rax        # 18120 <g_165>
    fba1:	8b 00                	mov    (%rax),%eax
    fba3:	31 d0                	xor    %edx,%eax
    fba5:	48 63 d0             	movslq %eax,%rdx
    fba8:	48 8b 85 b8 e4 ff ff 	mov    -0x1b48(%rbp),%rax
    fbaf:	48 89 10             	mov    %rdx,(%rax)
    fbb2:	48 8b 85 b8 e4 ff ff 	mov    -0x1b48(%rbp),%rax
    fbb9:	48 8b 00             	mov    (%rax),%rax
    fbbc:	48 85 c0             	test   %rax,%rax
    fbbf:	74 11                	je     fbd2 <func_113+0x3ea9>
    fbc1:	8b 05 11 79 00 00    	mov    0x7911(%rip),%eax        # 174d8 <g_216>
    fbc7:	85 c0                	test   %eax,%eax
    fbc9:	74 07                	je     fbd2 <func_113+0x3ea9>
    fbcb:	b8 01 00 00 00       	mov    $0x1,%eax
    fbd0:	eb 05                	jmp    fbd7 <func_113+0x3eae>
    fbd2:	b8 00 00 00 00       	mov    $0x0,%eax
    fbd7:	0f b7 c0             	movzwl %ax,%eax
    fbda:	89 c6                	mov    %eax,%esi
    fbdc:	bf d7 81 00 00       	mov    $0x81d7,%edi
    fbe1:	e8 19 51 ff ff       	callq  4cff <safe_add_func_uint16_t_u_u>
    fbe6:	0f b7 d0             	movzwl %ax,%edx
    fbe9:	0f b6 05 ef 78 00 00 	movzbl 0x78ef(%rip),%eax        # 174df <g_247+0x3>
    fbf0:	0f b6 c0             	movzbl %al,%eax
    fbf3:	48 89 d6             	mov    %rdx,%rsi
    fbf6:	48 89 c7             	mov    %rax,%rdi
    fbf9:	e8 43 4c ff ff       	callq  4841 <safe_add_func_int64_t_s_s>
    fbfe:	66 09 85 32 e3 ff ff 	or     %ax,-0x1cce(%rbp)
    fc05:	e9 56 02 00 00       	jmpq   fe60 <func_113+0x4137>
    fc0a:	48 b8 30 86 d6 9c c0 	movabs $0xf9ae73c09cd68630,%rax
    fc11:	73 ae f9 
    fc14:	48 89 85 a0 e4 ff ff 	mov    %rax,-0x1b60(%rbp)
    fc1b:	48 8d 85 88 e3 ff ff 	lea    -0x1c78(%rbp),%rax
    fc22:	48 89 85 a8 e4 ff ff 	mov    %rax,-0x1b58(%rbp)
    fc29:	48 8b 85 18 e3 ff ff 	mov    -0x1ce8(%rbp),%rax
    fc30:	0f b6 d8             	movzbl %al,%ebx
    fc33:	8b 85 74 e3 ff ff    	mov    -0x1c8c(%rbp),%eax
    fc39:	44 0f be e0          	movsbl %al,%r12d
    fc3d:	48 8b 85 18 e3 ff ff 	mov    -0x1ce8(%rbp),%rax
    fc44:	44 0f b6 e8          	movzbl %al,%r13d
    fc48:	4c 8b b5 18 e3 ff ff 	mov    -0x1ce8(%rbp),%r14
    fc4f:	48 8b 85 18 e3 ff ff 	mov    -0x1ce8(%rbp),%rax
    fc56:	89 c2                	mov    %eax,%edx
    fc58:	48 8b 85 80 e3 ff ff 	mov    -0x1c80(%rbp),%rax
    fc5f:	8b 00                	mov    (%rax),%eax
    fc61:	89 d6                	mov    %edx,%esi
    fc63:	89 c7                	mov    %eax,%edi
    fc65:	e8 9b 49 ff ff       	callq  4605 <safe_sub_func_int32_t_s_s>
    fc6a:	48 98                	cltq   
    fc6c:	4c 89 f6             	mov    %r14,%rsi
    fc6f:	48 89 c7             	mov    %rax,%rdi
    fc72:	e8 38 54 ff ff       	callq  50af <safe_div_func_uint64_t_u_u>
    fc77:	0f b6 c0             	movzbl %al,%eax
    fc7a:	44 89 ee             	mov    %r13d,%esi
    fc7d:	89 c7                	mov    %eax,%edi
    fc7f:	e8 f4 4e ff ff       	callq  4b78 <safe_sub_func_uint8_t_u_u>
    fc84:	48 8b 85 d0 ea ff ff 	mov    -0x1530(%rbp),%rax
    fc8b:	48 8d 15 50 78 00 00 	lea    0x7850(%rip),%rdx        # 174e2 <g_261>
    fc92:	48 39 d0             	cmp    %rdx,%rax
    fc95:	0f 95 c0             	setne  %al
    fc98:	0f b6 c0             	movzbl %al,%eax
    fc9b:	48 39 85 18 e3 ff ff 	cmp    %rax,-0x1ce8(%rbp)
    fca2:	0f 94 c0             	sete   %al
    fca5:	0f b6 c0             	movzbl %al,%eax
    fca8:	48 39 85 18 e3 ff ff 	cmp    %rax,-0x1ce8(%rbp)
    fcaf:	0f 9e c0             	setle  %al
    fcb2:	0f b6 d0             	movzbl %al,%edx
    fcb5:	48 8b 85 80 e3 ff ff 	mov    -0x1c80(%rbp),%rax
    fcbc:	8b 00                	mov    (%rax),%eax
    fcbe:	09 d0                	or     %edx,%eax
    fcc0:	48 63 d0             	movslq %eax,%rdx
    fcc3:	48 8b 85 90 e3 ff ff 	mov    -0x1c70(%rbp),%rax
    fcca:	48 85 c0             	test   %rax,%rax
    fccd:	0f 95 c0             	setne  %al
    fcd0:	0f b6 c0             	movzbl %al,%eax
    fcd3:	48 89 d6             	mov    %rdx,%rsi
    fcd6:	48 89 c7             	mov    %rax,%rdi
    fcd9:	e8 d1 53 ff ff       	callq  50af <safe_div_func_uint64_t_u_u>
    fcde:	48 89 c6             	mov    %rax,%rsi
    fce1:	48 bf 9f 58 23 fa 53 	movabs $0xc309f253fa23589f,%rdi
    fce8:	f2 09 c3 
    fceb:	e8 5b 53 ff ff       	callq  504b <safe_sub_func_uint64_t_u_u>
    fcf0:	48 8b 95 18 e3 ff ff 	mov    -0x1ce8(%rbp),%rdx
    fcf7:	48 39 d0             	cmp    %rdx,%rax
    fcfa:	0f 93 c0             	setae  %al
    fcfd:	89 c2                	mov    %eax,%edx
    fcff:	48 8b 85 80 e4 ff ff 	mov    -0x1b80(%rbp),%rax
    fd06:	88 10                	mov    %dl,(%rax)
    fd08:	48 81 bd 18 e3 ff ff 	cmpq   $0x9008,-0x1ce8(%rbp)
    fd0f:	08 90 00 00 
    fd13:	0f 9f c0             	setg   %al
    fd16:	0f b6 c0             	movzbl %al,%eax
    fd19:	89 c7                	mov    %eax,%edi
    fd1b:	e8 86 51 ff ff       	callq  4ea6 <safe_unary_minus_func_uint32_t_u>
    fd20:	48 8b 85 a0 e4 ff ff 	mov    -0x1b60(%rbp),%rax
    fd27:	98                   	cwtl   
    fd28:	be 0a 00 00 00       	mov    $0xa,%esi
    fd2d:	89 c7                	mov    %eax,%edi
    fd2f:	e8 2f 48 ff ff       	callq  4563 <safe_rshift_func_int16_t_s_u>
    fd34:	48 8b 05 ed 72 00 00 	mov    0x72ed(%rip),%rax        # 17028 <g_6>
    fd3b:	83 c8 01             	or     $0x1,%eax
    fd3e:	0f b6 c0             	movzbl %al,%eax
    fd41:	be c1 00 00 00       	mov    $0xc1,%esi
    fd46:	89 c7                	mov    %eax,%edi
    fd48:	e8 2b 4e ff ff       	callq  4b78 <safe_sub_func_uint8_t_u_u>
    fd4d:	0f b6 15 70 77 00 00 	movzbl 0x7770(%rip),%edx        # 174c4 <g_159>
    fd54:	38 d0                	cmp    %dl,%al
    fd56:	0f 94 c0             	sete   %al
    fd59:	0f b6 d0             	movzbl %al,%edx
    fd5c:	48 8b 85 48 e4 ff ff 	mov    -0x1bb8(%rbp),%rax
    fd63:	66 89 10             	mov    %dx,(%rax)
    fd66:	48 8b 85 48 e4 ff ff 	mov    -0x1bb8(%rbp),%rax
    fd6d:	0f b7 00             	movzwl (%rax),%eax
    fd70:	98                   	cwtl   
    fd71:	be ff ff ff ff       	mov    $0xffffffff,%esi
    fd76:	89 c7                	mov    %eax,%edi
    fd78:	e8 36 46 ff ff       	callq  43b3 <safe_add_func_int16_t_s_s>
    fd7d:	83 f0 0c             	xor    $0xc,%eax
    fd80:	0f be c0             	movsbl %al,%eax
    fd83:	44 89 e6             	mov    %r12d,%esi
    fd86:	89 c7                	mov    %eax,%edi
    fd88:	e8 85 44 ff ff       	callq  4212 <safe_mul_func_int8_t_s_s>
    fd8d:	48 8b 85 c0 e3 ff ff 	mov    -0x1c40(%rbp),%rax
    fd94:	8b 00                	mov    (%rax),%eax
    fd96:	85 c0                	test   %eax,%eax
    fd98:	75 0a                	jne    fda4 <func_113+0x407b>
    fd9a:	8b 05 10 77 00 00    	mov    0x7710(%rip),%eax        # 174b0 <g_132>
    fda0:	85 c0                	test   %eax,%eax
    fda2:	74 07                	je     fdab <func_113+0x4082>
    fda4:	b8 01 00 00 00       	mov    $0x1,%eax
    fda9:	eb 05                	jmp    fdb0 <func_113+0x4087>
    fdab:	b8 00 00 00 00       	mov    $0x0,%eax
    fdb0:	83 f0 01             	xor    $0x1,%eax
    fdb3:	48 98                	cltq   
    fdb5:	48 39 85 18 e3 ff ff 	cmp    %rax,-0x1ce8(%rbp)
    fdbc:	74 0b                	je     fdc9 <func_113+0x40a0>
    fdbe:	48 8b 85 58 e4 ff ff 	mov    -0x1ba8(%rbp),%rax
    fdc5:	8b 00                	mov    (%rax),%eax
    fdc7:	85 c0                	test   %eax,%eax
    fdc9:	8b 05 09 77 00 00    	mov    0x7709(%rip),%eax        # 174d8 <g_216>
    fdcf:	0f b6 c0             	movzbl %al,%eax
    fdd2:	89 de                	mov    %ebx,%esi
    fdd4:	89 c7                	mov    %eax,%edi
    fdd6:	e8 9d 4d ff ff       	callq  4b78 <safe_sub_func_uint8_t_u_u>
    fddb:	0f b6 d0             	movzbl %al,%edx
    fdde:	48 8b 85 c0 e3 ff ff 	mov    -0x1c40(%rbp),%rax
    fde5:	89 10                	mov    %edx,(%rax)
    fde7:	48 8b 85 80 e3 ff ff 	mov    -0x1c80(%rbp),%rax
    fdee:	48 8b 95 c0 e3 ff ff 	mov    -0x1c40(%rbp),%rdx
    fdf5:	8b 12                	mov    (%rdx),%edx
    fdf7:	89 10                	mov    %edx,(%rax)
    fdf9:	48 8b 85 58 e4 ff ff 	mov    -0x1ba8(%rbp),%rax
    fe00:	8b 10                	mov    (%rax),%edx
    fe02:	48 8b 05 97 76 00 00 	mov    0x7697(%rip),%rax        # 174a0 <g_87>
    fe09:	89 c1                	mov    %eax,%ecx
    fe0b:	48 8b 05 b6 85 00 00 	mov    0x85b6(%rip),%rax        # 183c8 <g_284>
    fe12:	48 8b 00             	mov    (%rax),%rax
    fe15:	48 8b 00             	mov    (%rax),%rax
    fe18:	31 ca                	xor    %ecx,%edx
    fe1a:	89 10                	mov    %edx,(%rax)
    fe1c:	48 8b 85 a8 e4 ff ff 	mov    -0x1b58(%rbp),%rax
    fe23:	48 8d 15 98 76 00 00 	lea    0x7698(%rip),%rdx        # 174c2 <g_157>
    fe2a:	48 89 10             	mov    %rdx,(%rax)
    fe2d:	48 8b 85 a8 e4 ff ff 	mov    -0x1b58(%rbp),%rax
    fe34:	48 8b 00             	mov    (%rax),%rax
    fe37:	48 8d 15 82 76 00 00 	lea    0x7682(%rip),%rdx        # 174c0 <g_155>
    fe3e:	48 39 d0             	cmp    %rdx,%rax
    fe41:	0f 95 c2             	setne  %dl
    fe44:	48 8b 05 25 85 00 00 	mov    0x8525(%rip),%rax        # 18370 <g_167>
    fe4b:	48 8b 00             	mov    (%rax),%rax
    fe4e:	0f b6 d2             	movzbl %dl,%edx
    fe51:	89 10                	mov    %edx,(%rax)
    fe53:	0f b6 85 29 e3 ff ff 	movzbl -0x1cd7(%rbp),%eax
    fe5a:	89 85 78 e3 ff ff    	mov    %eax,-0x1c88(%rbp)
    fe60:	48 8b 85 60 e4 ff ff 	mov    -0x1ba0(%rbp),%rax
    fe67:	e9 f9 19 00 00       	jmpq   11865 <func_113+0x5b3c>
    fe6c:	48 c7 85 18 e5 ff ff 	movq   $0x0,-0x1ae8(%rbp)
    fe73:	00 00 00 00 
    fe77:	48 8b 85 18 e5 ff ff 	mov    -0x1ae8(%rbp),%rax
    fe7e:	e9 e2 19 00 00       	jmpq   11865 <func_113+0x5b3c>
    fe83:	b8 01 00 00 00       	mov    $0x1,%eax
    fe88:	0f be d8             	movsbl %al,%ebx
    fe8b:	0f b7 05 2e 76 00 00 	movzwl 0x762e(%rip),%eax        # 174c0 <g_155>
    fe92:	44 0f be e0          	movsbl %al,%r12d
    fe96:	4c 8b ad 18 e3 ff ff 	mov    -0x1ce8(%rbp),%r13
    fe9d:	8b 05 c9 71 00 00    	mov    0x71c9(%rip),%eax        # 1706c <g_41+0x2c>
    fea3:	44 0f bf b5 2e e3 ff 	movswl -0x1cd2(%rbp),%r14d
    feaa:	ff 
    feab:	48 8b 85 18 e3 ff ff 	mov    -0x1ce8(%rbp),%rax
    feb2:	41 89 c7             	mov    %eax,%r15d
    feb5:	48 8b 85 18 e3 ff ff 	mov    -0x1ce8(%rbp),%rax
    febc:	48 be e9 0b f7 f9 db 	movabs $0xd701b9dbf9f70be9,%rsi
    fec3:	b9 01 d7 
    fec6:	48 89 c7             	mov    %rax,%rdi
    fec9:	e8 29 4b ff ff       	callq  49f7 <safe_div_func_int64_t_s_s>
    fece:	89 c2                	mov    %eax,%edx
    fed0:	48 8b 85 d8 e3 ff ff 	mov    -0x1c28(%rbp),%rax
    fed7:	66 89 10             	mov    %dx,(%rax)
    feda:	48 8b 85 d8 e3 ff ff 	mov    -0x1c28(%rbp),%rax
    fee1:	0f b7 00             	movzwl (%rax),%eax
    fee4:	98                   	cwtl   
    fee5:	44 89 fe             	mov    %r15d,%esi
    fee8:	89 c7                	mov    %eax,%edi
    feea:	e8 f2 45 ff ff       	callq  44e1 <safe_lshift_func_int16_t_s_u>
    feef:	48 8b 95 18 e3 ff ff 	mov    -0x1ce8(%rbp),%rdx
    fef6:	09 d0                	or     %edx,%eax
    fef8:	98                   	cwtl   
    fef9:	44 89 f6             	mov    %r14d,%esi
    fefc:	89 c7                	mov    %eax,%edi
    fefe:	e8 8f 45 ff ff       	callq  4492 <safe_lshift_func_int16_t_s_s>
    ff03:	48 0f bf d0          	movswq %ax,%rdx
    ff07:	48 8b 05 aa 75 00 00 	mov    0x75aa(%rip),%rax        # 174b8 <g_152>
    ff0e:	48 31 d0             	xor    %rdx,%rax
    ff11:	48 89 05 a0 75 00 00 	mov    %rax,0x75a0(%rip)        # 174b8 <g_152>
    ff18:	48 8b 85 78 e4 ff ff 	mov    -0x1b88(%rbp),%rax
    ff1f:	48 8d 15 bc 75 00 00 	lea    0x75bc(%rip),%rdx        # 174e2 <g_261>
    ff26:	48 89 10             	mov    %rdx,(%rax)
    ff29:	48 8b 85 78 e4 ff ff 	mov    -0x1b88(%rbp),%rax
    ff30:	48 8b 00             	mov    (%rax),%rax
    ff33:	48 8d 15 a8 75 00 00 	lea    0x75a8(%rip),%rdx        # 174e2 <g_261>
    ff3a:	48 39 d0             	cmp    %rdx,%rax
    ff3d:	48 8d 85 2c e3 ff ff 	lea    -0x1cd4(%rbp),%rax
    ff44:	48 89 05 bd 84 00 00 	mov    %rax,0x84bd(%rip)        # 18408 <g_343+0x8>
    ff4b:	48 8d 05 90 75 00 00 	lea    0x7590(%rip),%rax        # 174e2 <g_261>
    ff52:	48 89 85 68 e4 ff ff 	mov    %rax,-0x1b98(%rbp)
    ff59:	48 8b 85 70 e4 ff ff 	mov    -0x1b90(%rbp),%rax
    ff60:	48 8b 95 68 e4 ff ff 	mov    -0x1b98(%rbp),%rdx
    ff67:	48 89 10             	mov    %rdx,(%rax)
    ff6a:	48 8b 85 70 e4 ff ff 	mov    -0x1b90(%rbp),%rax
    ff71:	48 8b 00             	mov    (%rax),%rax
    ff74:	48 8d 15 67 75 00 00 	lea    0x7567(%rip),%rdx        # 174e2 <g_261>
    ff7b:	48 39 d0             	cmp    %rdx,%rax
    ff7e:	0f 94 c0             	sete   %al
    ff81:	0f b6 d0             	movzbl %al,%edx
    ff84:	48 8b 85 58 e4 ff ff 	mov    -0x1ba8(%rbp),%rax
    ff8b:	8b 00                	mov    (%rax),%eax
    ff8d:	39 c2                	cmp    %eax,%edx
    ff8f:	0f 9e c0             	setle  %al
    ff92:	0f b6 c0             	movzbl %al,%eax
    ff95:	4c 89 ee             	mov    %r13,%rsi
    ff98:	48 89 c7             	mov    %rax,%rdi
    ff9b:	e8 e0 50 ff ff       	callq  5080 <safe_mod_func_uint64_t_u_u>
    ffa0:	b8 01 00 00 00       	mov    $0x1,%eax
    ffa5:	83 c8 e9             	or     $0xffffffe9,%eax
    ffa8:	0f be c0             	movsbl %al,%eax
    ffab:	44 89 e6             	mov    %r12d,%esi
    ffae:	89 c7                	mov    %eax,%edi
    ffb0:	e8 1f 42 ff ff       	callq  41d4 <safe_add_func_int8_t_s_s>
    ffb5:	89 de                	mov    %ebx,%esi
    ffb7:	bf 01 00 00 00       	mov    $0x1,%edi
    ffbc:	e8 51 42 ff ff       	callq  4212 <safe_mul_func_int8_t_s_s>
    ffc1:	48 8b 15 a8 83 00 00 	mov    0x83a8(%rip),%rdx        # 18370 <g_167>
    ffc8:	48 8b 12             	mov    (%rdx),%rdx
    ffcb:	8b 0a                	mov    (%rdx),%ecx
    ffcd:	0f be d0             	movsbl %al,%edx
    ffd0:	48 8b 05 99 83 00 00 	mov    0x8399(%rip),%rax        # 18370 <g_167>
    ffd7:	48 8b 00             	mov    (%rax),%rax
    ffda:	09 ca                	or     %ecx,%edx
    ffdc:	89 10                	mov    %edx,(%rax)
    ffde:	c7 85 38 e3 ff ff 00 	movl   $0x0,-0x1cc8(%rbp)
    ffe5:	00 00 00 
    ffe8:	e9 3f 01 00 00       	jmpq   1012c <func_113+0x4403>
    ffed:	48 c7 85 08 e5 ff ff 	movq   $0x2,-0x1af8(%rbp)
    fff4:	02 00 00 00 
    fff8:	48 8d 05 21 81 00 00 	lea    0x8121(%rip),%rax        # 18120 <g_165>
    ffff:	48 89 85 10 e5 ff ff 	mov    %rax,-0x1af0(%rbp)
   10006:	0f b6 05 b7 74 00 00 	movzbl 0x74b7(%rip),%eax        # 174c4 <g_159>
   1000d:	0f b6 d8             	movzbl %al,%ebx
   10010:	48 8b 85 88 e5 ff ff 	mov    -0x1a78(%rbp),%rax
   10017:	48 85 c0             	test   %rax,%rax
   1001a:	0f 95 c0             	setne  %al
   1001d:	0f b6 c0             	movzbl %al,%eax
   10020:	48 89 85 08 e5 ff ff 	mov    %rax,-0x1af8(%rbp)
   10027:	0f b6 05 af 74 00 00 	movzbl 0x74af(%rip),%eax        # 174dd <g_247+0x1>
   1002e:	41 89 c5             	mov    %eax,%r13d
   10031:	4c 8b 25 68 74 00 00 	mov    0x7468(%rip),%r12        # 174a0 <g_87>
   10038:	48 8b 85 18 e3 ff ff 	mov    -0x1ce8(%rbp),%rax
   1003f:	89 c2                	mov    %eax,%edx
   10041:	48 8b 05 80 83 00 00 	mov    0x8380(%rip),%rax        # 183c8 <g_284>
   10048:	48 8b 00             	mov    (%rax),%rax
   1004b:	48 89 85 10 e5 ff ff 	mov    %rax,-0x1af0(%rbp)
   10052:	48 8b 85 90 e3 ff ff 	mov    -0x1c70(%rbp),%rax
   10059:	48 8b 00             	mov    (%rax),%rax
   1005c:	48 39 85 10 e5 ff ff 	cmp    %rax,-0x1af0(%rbp)
   10063:	0f 94 c0             	sete   %al
   10066:	0f b6 c0             	movzbl %al,%eax
   10069:	89 d6                	mov    %edx,%esi
   1006b:	89 c7                	mov    %eax,%edi
   1006d:	e8 20 44 ff ff       	callq  4492 <safe_lshift_func_int16_t_s_s>
   10072:	0f bf d0             	movswl %ax,%edx
   10075:	48 8b 85 c0 e3 ff ff 	mov    -0x1c40(%rbp),%rax
   1007c:	8b 00                	mov    (%rax),%eax
   1007e:	39 c2                	cmp    %eax,%edx
   10080:	0f 9c c0             	setl   %al
   10083:	0f b6 c0             	movzbl %al,%eax
   10086:	4c 89 e6             	mov    %r12,%rsi
   10089:	48 89 c7             	mov    %rax,%rdi
   1008c:	e8 b0 47 ff ff       	callq  4841 <safe_add_func_int64_t_s_s>
   10091:	48 85 c0             	test   %rax,%rax
   10094:	75 0a                	jne    100a0 <func_113+0x4377>
   10096:	48 83 bd 18 e3 ff ff 	cmpq   $0x0,-0x1ce8(%rbp)
   1009d:	00 
   1009e:	74 07                	je     100a7 <func_113+0x437e>
   100a0:	b8 01 00 00 00       	mov    $0x1,%eax
   100a5:	eb 05                	jmp    100ac <func_113+0x4383>
   100a7:	b8 00 00 00 00       	mov    $0x0,%eax
   100ac:	44 09 e8             	or     %r13d,%eax
   100af:	0f be c0             	movsbl %al,%eax
   100b2:	89 c7                	mov    %eax,%edi
   100b4:	e8 06 41 ff ff       	callq  41bf <safe_unary_minus_func_int8_t_s>
   100b9:	48 8b 85 90 e3 ff ff 	mov    -0x1c70(%rbp),%rax
   100c0:	48 8b 10             	mov    (%rax),%rdx
   100c3:	48 8b 05 fe 82 00 00 	mov    0x82fe(%rip),%rax        # 183c8 <g_284>
   100ca:	48 8b 00             	mov    (%rax),%rax
   100cd:	48 39 c2             	cmp    %rax,%rdx
   100d0:	0f 94 c0             	sete   %al
   100d3:	0f b6 c0             	movzbl %al,%eax
   100d6:	f7 d0                	not    %eax
   100d8:	89 c1                	mov    %eax,%ecx
   100da:	48 8d 05 df 73 00 00 	lea    0x73df(%rip),%rax        # 174c0 <g_155>
   100e1:	48 39 85 48 e4 ff ff 	cmp    %rax,-0x1bb8(%rbp)
   100e8:	0f 95 c0             	setne  %al
   100eb:	0f b6 d0             	movzbl %al,%edx
   100ee:	8b 05 d4 73 00 00    	mov    0x73d4(%rip),%eax        # 174c8 <g_214>
   100f4:	39 c2                	cmp    %eax,%edx
   100f6:	0f 93 c0             	setae  %al
   100f9:	0f b6 c0             	movzbl %al,%eax
   100fc:	09 c8                	or     %ecx,%eax
   100fe:	48 98                	cltq   
   10100:	48 89 de             	mov    %rbx,%rsi
   10103:	48 89 c7             	mov    %rax,%rdi
   10106:	e8 40 4f ff ff       	callq  504b <safe_sub_func_uint64_t_u_u>
   1010b:	48 89 c2             	mov    %rax,%rdx
   1010e:	48 8b 05 b3 82 00 00 	mov    0x82b3(%rip),%rax        # 183c8 <g_284>
   10115:	48 8b 00             	mov    (%rax),%rax
   10118:	48 8b 00             	mov    (%rax),%rax
   1011b:	89 10                	mov    %edx,(%rax)
   1011d:	8b 85 38 e3 ff ff    	mov    -0x1cc8(%rbp),%eax
   10123:	83 e8 01             	sub    $0x1,%eax
   10126:	89 85 38 e3 ff ff    	mov    %eax,-0x1cc8(%rbp)
   1012c:	8b 85 38 e3 ff ff    	mov    -0x1cc8(%rbp),%eax
   10132:	83 f8 fb             	cmp    $0xfffffffb,%eax
   10135:	0f 8d b2 fe ff ff    	jge    ffed <func_113+0x42c4>
   1013b:	66 c7 05 7e 73 00 00 	movw   $0x3,0x737e(%rip)        # 174c2 <g_157>
   10142:	03 00 
   10144:	e9 f9 16 00 00       	jmpq   11842 <func_113+0x5b19>
   10149:	48 c7 85 b0 e3 ff ff 	movq   $0x0,-0x1c50(%rbp)
   10150:	00 00 00 00 
   10154:	66 c7 85 34 e3 ff ff 	movw   $0x1,-0x1ccc(%rbp)
   1015b:	01 00 
   1015d:	c7 85 90 e5 ff ff e2 	movl   $0x1a5716e2,-0x1a70(%rbp)
   10164:	16 57 1a 
   10167:	c7 85 94 e5 ff ff e2 	movl   $0x1a5716e2,-0x1a6c(%rbp)
   1016e:	16 57 1a 
   10171:	c7 85 98 e5 ff ff e2 	movl   $0x1a5716e2,-0x1a68(%rbp)
   10178:	16 57 1a 
   1017b:	c7 85 9c e5 ff ff e2 	movl   $0x1a5716e2,-0x1a64(%rbp)
   10182:	16 57 1a 
   10185:	48 8d 05 36 73 00 00 	lea    0x7336(%rip),%rax        # 174c2 <g_157>
   1018c:	48 89 85 b8 e3 ff ff 	mov    %rax,-0x1c48(%rbp)
   10193:	48 c7 85 f0 f7 ff ff 	movq   $0x0,-0x810(%rbp)
   1019a:	00 00 00 00 
   1019e:	48 8d 85 b8 e3 ff ff 	lea    -0x1c48(%rbp),%rax
   101a5:	48 89 85 f8 f7 ff ff 	mov    %rax,-0x808(%rbp)
   101ac:	48 c7 85 00 f8 ff ff 	movq   $0x0,-0x800(%rbp)
   101b3:	00 00 00 00 
   101b7:	48 8d 85 b8 e3 ff ff 	lea    -0x1c48(%rbp),%rax
   101be:	48 89 85 08 f8 ff ff 	mov    %rax,-0x7f8(%rbp)
   101c5:	48 8d 85 b8 e3 ff ff 	lea    -0x1c48(%rbp),%rax
   101cc:	48 89 85 10 f8 ff ff 	mov    %rax,-0x7f0(%rbp)
   101d3:	48 8d 85 b8 e3 ff ff 	lea    -0x1c48(%rbp),%rax
   101da:	48 89 85 18 f8 ff ff 	mov    %rax,-0x7e8(%rbp)
   101e1:	48 8d 85 b8 e3 ff ff 	lea    -0x1c48(%rbp),%rax
   101e8:	48 89 85 20 f8 ff ff 	mov    %rax,-0x7e0(%rbp)
   101ef:	48 8d 85 b8 e3 ff ff 	lea    -0x1c48(%rbp),%rax
   101f6:	48 89 85 28 f8 ff ff 	mov    %rax,-0x7d8(%rbp)
   101fd:	48 8d 85 b8 e3 ff ff 	lea    -0x1c48(%rbp),%rax
   10204:	48 89 85 30 f8 ff ff 	mov    %rax,-0x7d0(%rbp)
   1020b:	48 8d 85 b8 e3 ff ff 	lea    -0x1c48(%rbp),%rax
   10212:	48 89 85 38 f8 ff ff 	mov    %rax,-0x7c8(%rbp)
   10219:	48 c7 85 40 f8 ff ff 	movq   $0x0,-0x7c0(%rbp)
   10220:	00 00 00 00 
   10224:	48 8d 85 b8 e3 ff ff 	lea    -0x1c48(%rbp),%rax
   1022b:	48 89 85 48 f8 ff ff 	mov    %rax,-0x7b8(%rbp)
   10232:	48 8d 85 b8 e3 ff ff 	lea    -0x1c48(%rbp),%rax
   10239:	48 89 85 50 f8 ff ff 	mov    %rax,-0x7b0(%rbp)
   10240:	48 8d 85 b8 e3 ff ff 	lea    -0x1c48(%rbp),%rax
   10247:	48 89 85 58 f8 ff ff 	mov    %rax,-0x7a8(%rbp)
   1024e:	48 c7 85 60 f8 ff ff 	movq   $0x0,-0x7a0(%rbp)
   10255:	00 00 00 00 
   10259:	48 8d 85 b8 e3 ff ff 	lea    -0x1c48(%rbp),%rax
   10260:	48 89 85 68 f8 ff ff 	mov    %rax,-0x798(%rbp)
   10267:	48 c7 85 70 f8 ff ff 	movq   $0x0,-0x790(%rbp)
   1026e:	00 00 00 00 
   10272:	48 c7 85 78 f8 ff ff 	movq   $0x0,-0x788(%rbp)
   10279:	00 00 00 00 
   1027d:	48 8d 85 b8 e3 ff ff 	lea    -0x1c48(%rbp),%rax
   10284:	48 89 85 80 f8 ff ff 	mov    %rax,-0x780(%rbp)
   1028b:	48 8d 85 b8 e3 ff ff 	lea    -0x1c48(%rbp),%rax
   10292:	48 89 85 88 f8 ff ff 	mov    %rax,-0x778(%rbp)
   10299:	48 8d 85 b8 e3 ff ff 	lea    -0x1c48(%rbp),%rax
   102a0:	48 89 85 90 f8 ff ff 	mov    %rax,-0x770(%rbp)
   102a7:	48 8d 85 b8 e3 ff ff 	lea    -0x1c48(%rbp),%rax
   102ae:	48 89 85 98 f8 ff ff 	mov    %rax,-0x768(%rbp)
   102b5:	48 c7 85 a0 f8 ff ff 	movq   $0x0,-0x760(%rbp)
   102bc:	00 00 00 00 
   102c0:	48 8d 85 b8 e3 ff ff 	lea    -0x1c48(%rbp),%rax
   102c7:	48 89 85 a8 f8 ff ff 	mov    %rax,-0x758(%rbp)
   102ce:	48 8d 85 b8 e3 ff ff 	lea    -0x1c48(%rbp),%rax
   102d5:	48 89 85 b0 f8 ff ff 	mov    %rax,-0x750(%rbp)
   102dc:	48 8d 85 b8 e3 ff ff 	lea    -0x1c48(%rbp),%rax
   102e3:	48 89 85 b8 f8 ff ff 	mov    %rax,-0x748(%rbp)
   102ea:	48 8d 85 b8 e3 ff ff 	lea    -0x1c48(%rbp),%rax
   102f1:	48 89 85 c0 f8 ff ff 	mov    %rax,-0x740(%rbp)
   102f8:	48 8d 85 b8 e3 ff ff 	lea    -0x1c48(%rbp),%rax
   102ff:	48 89 85 c8 f8 ff ff 	mov    %rax,-0x738(%rbp)
   10306:	48 c7 85 d0 f8 ff ff 	movq   $0x0,-0x730(%rbp)
   1030d:	00 00 00 00 
   10311:	48 8d 85 b8 e3 ff ff 	lea    -0x1c48(%rbp),%rax
   10318:	48 89 85 d8 f8 ff ff 	mov    %rax,-0x728(%rbp)
   1031f:	48 8d 85 b8 e3 ff ff 	lea    -0x1c48(%rbp),%rax
   10326:	48 89 85 e0 f8 ff ff 	mov    %rax,-0x720(%rbp)
   1032d:	48 8d 85 b8 e3 ff ff 	lea    -0x1c48(%rbp),%rax
   10334:	48 89 85 e8 f8 ff ff 	mov    %rax,-0x718(%rbp)
   1033b:	48 c7 85 f0 f8 ff ff 	movq   $0x0,-0x710(%rbp)
   10342:	00 00 00 00 
   10346:	48 8d 85 b8 e3 ff ff 	lea    -0x1c48(%rbp),%rax
   1034d:	48 89 85 f8 f8 ff ff 	mov    %rax,-0x708(%rbp)
   10354:	48 c7 85 00 f9 ff ff 	movq   $0x0,-0x700(%rbp)
   1035b:	00 00 00 00 
   1035f:	48 8d 85 b8 e3 ff ff 	lea    -0x1c48(%rbp),%rax
   10366:	48 89 85 08 f9 ff ff 	mov    %rax,-0x6f8(%rbp)
   1036d:	48 8d 85 b8 e3 ff ff 	lea    -0x1c48(%rbp),%rax
   10374:	48 89 85 10 f9 ff ff 	mov    %rax,-0x6f0(%rbp)
   1037b:	48 8d 85 b8 e3 ff ff 	lea    -0x1c48(%rbp),%rax
   10382:	48 89 85 18 f9 ff ff 	mov    %rax,-0x6e8(%rbp)
   10389:	48 8d 85 b8 e3 ff ff 	lea    -0x1c48(%rbp),%rax
   10390:	48 89 85 20 f9 ff ff 	mov    %rax,-0x6e0(%rbp)
   10397:	48 8d 85 b8 e3 ff ff 	lea    -0x1c48(%rbp),%rax
   1039e:	48 89 85 28 f9 ff ff 	mov    %rax,-0x6d8(%rbp)
   103a5:	48 8d 85 b8 e3 ff ff 	lea    -0x1c48(%rbp),%rax
   103ac:	48 89 85 30 f9 ff ff 	mov    %rax,-0x6d0(%rbp)
   103b3:	48 8d 85 b8 e3 ff ff 	lea    -0x1c48(%rbp),%rax
   103ba:	48 89 85 38 f9 ff ff 	mov    %rax,-0x6c8(%rbp)
   103c1:	48 8d 85 b8 e3 ff ff 	lea    -0x1c48(%rbp),%rax
   103c8:	48 89 85 40 f9 ff ff 	mov    %rax,-0x6c0(%rbp)
   103cf:	48 8d 85 b8 e3 ff ff 	lea    -0x1c48(%rbp),%rax
   103d6:	48 89 85 48 f9 ff ff 	mov    %rax,-0x6b8(%rbp)
   103dd:	48 8d 85 b8 e3 ff ff 	lea    -0x1c48(%rbp),%rax
   103e4:	48 89 85 50 f9 ff ff 	mov    %rax,-0x6b0(%rbp)
   103eb:	48 8d 85 b8 e3 ff ff 	lea    -0x1c48(%rbp),%rax
   103f2:	48 89 85 58 f9 ff ff 	mov    %rax,-0x6a8(%rbp)
   103f9:	48 8d 85 b8 e3 ff ff 	lea    -0x1c48(%rbp),%rax
   10400:	48 89 85 60 f9 ff ff 	mov    %rax,-0x6a0(%rbp)
   10407:	48 8d 85 b8 e3 ff ff 	lea    -0x1c48(%rbp),%rax
   1040e:	48 89 85 68 f9 ff ff 	mov    %rax,-0x698(%rbp)
   10415:	48 8d 85 b8 e3 ff ff 	lea    -0x1c48(%rbp),%rax
   1041c:	48 89 85 70 f9 ff ff 	mov    %rax,-0x690(%rbp)
   10423:	48 8d 85 b8 e3 ff ff 	lea    -0x1c48(%rbp),%rax
   1042a:	48 89 85 78 f9 ff ff 	mov    %rax,-0x688(%rbp)
   10431:	48 8d 85 b8 e3 ff ff 	lea    -0x1c48(%rbp),%rax
   10438:	48 89 85 80 f9 ff ff 	mov    %rax,-0x680(%rbp)
   1043f:	48 8d 85 b8 e3 ff ff 	lea    -0x1c48(%rbp),%rax
   10446:	48 89 85 88 f9 ff ff 	mov    %rax,-0x678(%rbp)
   1044d:	48 8d 85 b8 e3 ff ff 	lea    -0x1c48(%rbp),%rax
   10454:	48 89 85 90 f9 ff ff 	mov    %rax,-0x670(%rbp)
   1045b:	48 8d 85 b8 e3 ff ff 	lea    -0x1c48(%rbp),%rax
   10462:	48 89 85 98 f9 ff ff 	mov    %rax,-0x668(%rbp)
   10469:	48 c7 85 a0 f9 ff ff 	movq   $0x0,-0x660(%rbp)
   10470:	00 00 00 00 
   10474:	48 8d 85 b8 e3 ff ff 	lea    -0x1c48(%rbp),%rax
   1047b:	48 89 85 a8 f9 ff ff 	mov    %rax,-0x658(%rbp)
   10482:	48 8d 85 b8 e3 ff ff 	lea    -0x1c48(%rbp),%rax
   10489:	48 89 85 b0 f9 ff ff 	mov    %rax,-0x650(%rbp)
   10490:	48 8d 85 b8 e3 ff ff 	lea    -0x1c48(%rbp),%rax
   10497:	48 89 85 b8 f9 ff ff 	mov    %rax,-0x648(%rbp)
   1049e:	48 8d 85 b8 e3 ff ff 	lea    -0x1c48(%rbp),%rax
   104a5:	48 89 85 c0 f9 ff ff 	mov    %rax,-0x640(%rbp)
   104ac:	48 8d 85 b8 e3 ff ff 	lea    -0x1c48(%rbp),%rax
   104b3:	48 89 85 c8 f9 ff ff 	mov    %rax,-0x638(%rbp)
   104ba:	48 c7 85 d0 f9 ff ff 	movq   $0x0,-0x630(%rbp)
   104c1:	00 00 00 00 
   104c5:	48 8d 85 b8 e3 ff ff 	lea    -0x1c48(%rbp),%rax
   104cc:	48 89 85 d8 f9 ff ff 	mov    %rax,-0x628(%rbp)
   104d3:	48 8d 85 b8 e3 ff ff 	lea    -0x1c48(%rbp),%rax
   104da:	48 89 85 e0 f9 ff ff 	mov    %rax,-0x620(%rbp)
   104e1:	48 8d 85 b8 e3 ff ff 	lea    -0x1c48(%rbp),%rax
   104e8:	48 89 85 e8 f9 ff ff 	mov    %rax,-0x618(%rbp)
   104ef:	48 8d 85 b8 e3 ff ff 	lea    -0x1c48(%rbp),%rax
   104f6:	48 89 85 f0 f9 ff ff 	mov    %rax,-0x610(%rbp)
   104fd:	48 8d 85 b8 e3 ff ff 	lea    -0x1c48(%rbp),%rax
   10504:	48 89 85 f8 f9 ff ff 	mov    %rax,-0x608(%rbp)
   1050b:	48 8d 85 b8 e3 ff ff 	lea    -0x1c48(%rbp),%rax
   10512:	48 89 85 00 fa ff ff 	mov    %rax,-0x600(%rbp)
   10519:	48 8d 85 b8 e3 ff ff 	lea    -0x1c48(%rbp),%rax
   10520:	48 89 85 08 fa ff ff 	mov    %rax,-0x5f8(%rbp)
   10527:	48 8d 85 b8 e3 ff ff 	lea    -0x1c48(%rbp),%rax
   1052e:	48 89 85 10 fa ff ff 	mov    %rax,-0x5f0(%rbp)
   10535:	48 8d 85 b8 e3 ff ff 	lea    -0x1c48(%rbp),%rax
   1053c:	48 89 85 18 fa ff ff 	mov    %rax,-0x5e8(%rbp)
   10543:	48 c7 85 20 fa ff ff 	movq   $0x0,-0x5e0(%rbp)
   1054a:	00 00 00 00 
   1054e:	48 8d 85 b8 e3 ff ff 	lea    -0x1c48(%rbp),%rax
   10555:	48 89 85 28 fa ff ff 	mov    %rax,-0x5d8(%rbp)
   1055c:	48 8d 85 b8 e3 ff ff 	lea    -0x1c48(%rbp),%rax
   10563:	48 89 85 30 fa ff ff 	mov    %rax,-0x5d0(%rbp)
   1056a:	48 8d 85 b8 e3 ff ff 	lea    -0x1c48(%rbp),%rax
   10571:	48 89 85 38 fa ff ff 	mov    %rax,-0x5c8(%rbp)
   10578:	48 c7 85 40 fa ff ff 	movq   $0x0,-0x5c0(%rbp)
   1057f:	00 00 00 00 
   10583:	48 c7 85 48 fa ff ff 	movq   $0x0,-0x5b8(%rbp)
   1058a:	00 00 00 00 
   1058e:	48 c7 85 50 fa ff ff 	movq   $0x0,-0x5b0(%rbp)
   10595:	00 00 00 00 
   10599:	48 8d 85 b8 e3 ff ff 	lea    -0x1c48(%rbp),%rax
   105a0:	48 89 85 58 fa ff ff 	mov    %rax,-0x5a8(%rbp)
   105a7:	48 8d 85 b8 e3 ff ff 	lea    -0x1c48(%rbp),%rax
   105ae:	48 89 85 60 fa ff ff 	mov    %rax,-0x5a0(%rbp)
   105b5:	48 c7 85 68 fa ff ff 	movq   $0x0,-0x598(%rbp)
   105bc:	00 00 00 00 
   105c0:	48 8d 85 b8 e3 ff ff 	lea    -0x1c48(%rbp),%rax
   105c7:	48 89 85 70 fa ff ff 	mov    %rax,-0x590(%rbp)
   105ce:	48 8d 85 b8 e3 ff ff 	lea    -0x1c48(%rbp),%rax
   105d5:	48 89 85 78 fa ff ff 	mov    %rax,-0x588(%rbp)
   105dc:	48 c7 85 80 fa ff ff 	movq   $0x0,-0x580(%rbp)
   105e3:	00 00 00 00 
   105e7:	48 8d 85 b8 e3 ff ff 	lea    -0x1c48(%rbp),%rax
   105ee:	48 89 85 88 fa ff ff 	mov    %rax,-0x578(%rbp)
   105f5:	48 c7 85 90 fa ff ff 	movq   $0x0,-0x570(%rbp)
   105fc:	00 00 00 00 
   10600:	48 8d 85 b8 e3 ff ff 	lea    -0x1c48(%rbp),%rax
   10607:	48 89 85 98 fa ff ff 	mov    %rax,-0x568(%rbp)
   1060e:	48 8d 85 b8 e3 ff ff 	lea    -0x1c48(%rbp),%rax
   10615:	48 89 85 a0 fa ff ff 	mov    %rax,-0x560(%rbp)
   1061c:	48 8d 85 b8 e3 ff ff 	lea    -0x1c48(%rbp),%rax
   10623:	48 89 85 a8 fa ff ff 	mov    %rax,-0x558(%rbp)
   1062a:	48 8d 85 b8 e3 ff ff 	lea    -0x1c48(%rbp),%rax
   10631:	48 89 85 b0 fa ff ff 	mov    %rax,-0x550(%rbp)
   10638:	48 8d 85 b8 e3 ff ff 	lea    -0x1c48(%rbp),%rax
   1063f:	48 89 85 b8 fa ff ff 	mov    %rax,-0x548(%rbp)
   10646:	48 c7 85 c0 fa ff ff 	movq   $0x0,-0x540(%rbp)
   1064d:	00 00 00 00 
   10651:	48 8d 85 b8 e3 ff ff 	lea    -0x1c48(%rbp),%rax
   10658:	48 89 85 c8 fa ff ff 	mov    %rax,-0x538(%rbp)
   1065f:	48 c7 85 d0 fa ff ff 	movq   $0x0,-0x530(%rbp)
   10666:	00 00 00 00 
   1066a:	48 8d 85 b8 e3 ff ff 	lea    -0x1c48(%rbp),%rax
   10671:	48 89 85 d8 fa ff ff 	mov    %rax,-0x528(%rbp)
   10678:	48 8d 85 b8 e3 ff ff 	lea    -0x1c48(%rbp),%rax
   1067f:	48 89 85 e0 fa ff ff 	mov    %rax,-0x520(%rbp)
   10686:	48 8d 85 b8 e3 ff ff 	lea    -0x1c48(%rbp),%rax
   1068d:	48 89 85 e8 fa ff ff 	mov    %rax,-0x518(%rbp)
   10694:	48 8d 85 b8 e3 ff ff 	lea    -0x1c48(%rbp),%rax
   1069b:	48 89 85 f0 fa ff ff 	mov    %rax,-0x510(%rbp)
   106a2:	48 c7 85 f8 fa ff ff 	movq   $0x0,-0x508(%rbp)
   106a9:	00 00 00 00 
   106ad:	48 8d 85 b8 e3 ff ff 	lea    -0x1c48(%rbp),%rax
   106b4:	48 89 85 00 fb ff ff 	mov    %rax,-0x500(%rbp)
   106bb:	48 8d 85 b8 e3 ff ff 	lea    -0x1c48(%rbp),%rax
   106c2:	48 89 85 08 fb ff ff 	mov    %rax,-0x4f8(%rbp)
   106c9:	48 8d 85 b8 e3 ff ff 	lea    -0x1c48(%rbp),%rax
   106d0:	48 89 85 10 fb ff ff 	mov    %rax,-0x4f0(%rbp)
   106d7:	48 8d 85 b8 e3 ff ff 	lea    -0x1c48(%rbp),%rax
   106de:	48 89 85 18 fb ff ff 	mov    %rax,-0x4e8(%rbp)
   106e5:	48 8d 85 b8 e3 ff ff 	lea    -0x1c48(%rbp),%rax
   106ec:	48 89 85 20 fb ff ff 	mov    %rax,-0x4e0(%rbp)
   106f3:	48 8d 85 b8 e3 ff ff 	lea    -0x1c48(%rbp),%rax
   106fa:	48 89 85 28 fb ff ff 	mov    %rax,-0x4d8(%rbp)
   10701:	48 c7 85 30 fb ff ff 	movq   $0x0,-0x4d0(%rbp)
   10708:	00 00 00 00 
   1070c:	48 c7 85 38 fb ff ff 	movq   $0x0,-0x4c8(%rbp)
   10713:	00 00 00 00 
   10717:	48 8d 85 b8 e3 ff ff 	lea    -0x1c48(%rbp),%rax
   1071e:	48 89 85 40 fb ff ff 	mov    %rax,-0x4c0(%rbp)
   10725:	48 8d 85 b8 e3 ff ff 	lea    -0x1c48(%rbp),%rax
   1072c:	48 89 85 48 fb ff ff 	mov    %rax,-0x4b8(%rbp)
   10733:	48 c7 85 50 fb ff ff 	movq   $0x0,-0x4b0(%rbp)
   1073a:	00 00 00 00 
   1073e:	48 8d 85 b8 e3 ff ff 	lea    -0x1c48(%rbp),%rax
   10745:	48 89 85 58 fb ff ff 	mov    %rax,-0x4a8(%rbp)
   1074c:	48 c7 85 60 fb ff ff 	movq   $0x0,-0x4a0(%rbp)
   10753:	00 00 00 00 
   10757:	48 8d 85 b8 e3 ff ff 	lea    -0x1c48(%rbp),%rax
   1075e:	48 89 85 68 fb ff ff 	mov    %rax,-0x498(%rbp)
   10765:	48 c7 85 70 fb ff ff 	movq   $0x0,-0x490(%rbp)
   1076c:	00 00 00 00 
   10770:	48 8d 85 b8 e3 ff ff 	lea    -0x1c48(%rbp),%rax
   10777:	48 89 85 78 fb ff ff 	mov    %rax,-0x488(%rbp)
   1077e:	48 8d 85 b8 e3 ff ff 	lea    -0x1c48(%rbp),%rax
   10785:	48 89 85 80 fb ff ff 	mov    %rax,-0x480(%rbp)
   1078c:	48 8d 85 b8 e3 ff ff 	lea    -0x1c48(%rbp),%rax
   10793:	48 89 85 88 fb ff ff 	mov    %rax,-0x478(%rbp)
   1079a:	48 8d 85 b8 e3 ff ff 	lea    -0x1c48(%rbp),%rax
   107a1:	48 89 85 90 fb ff ff 	mov    %rax,-0x470(%rbp)
   107a8:	48 8d 85 b8 e3 ff ff 	lea    -0x1c48(%rbp),%rax
   107af:	48 89 85 98 fb ff ff 	mov    %rax,-0x468(%rbp)
   107b6:	48 8d 85 b8 e3 ff ff 	lea    -0x1c48(%rbp),%rax
   107bd:	48 89 85 a0 fb ff ff 	mov    %rax,-0x460(%rbp)
   107c4:	48 8d 85 b8 e3 ff ff 	lea    -0x1c48(%rbp),%rax
   107cb:	48 89 85 a8 fb ff ff 	mov    %rax,-0x458(%rbp)
   107d2:	48 c7 85 b0 fb ff ff 	movq   $0x0,-0x450(%rbp)
   107d9:	00 00 00 00 
   107dd:	48 8d 85 b8 e3 ff ff 	lea    -0x1c48(%rbp),%rax
   107e4:	48 89 85 b8 fb ff ff 	mov    %rax,-0x448(%rbp)
   107eb:	48 8d 85 b8 e3 ff ff 	lea    -0x1c48(%rbp),%rax
   107f2:	48 89 85 c0 fb ff ff 	mov    %rax,-0x440(%rbp)
   107f9:	48 8d 85 b8 e3 ff ff 	lea    -0x1c48(%rbp),%rax
   10800:	48 89 85 c8 fb ff ff 	mov    %rax,-0x438(%rbp)
   10807:	48 c7 85 d0 fb ff ff 	movq   $0x0,-0x430(%rbp)
   1080e:	00 00 00 00 
   10812:	48 8d 85 b8 e3 ff ff 	lea    -0x1c48(%rbp),%rax
   10819:	48 89 85 d8 fb ff ff 	mov    %rax,-0x428(%rbp)
   10820:	48 c7 85 e0 fb ff ff 	movq   $0x0,-0x420(%rbp)
   10827:	00 00 00 00 
   1082b:	48 c7 85 e8 fb ff ff 	movq   $0x0,-0x418(%rbp)
   10832:	00 00 00 00 
   10836:	48 8d 85 b8 e3 ff ff 	lea    -0x1c48(%rbp),%rax
   1083d:	48 89 85 f0 fb ff ff 	mov    %rax,-0x410(%rbp)
   10844:	48 8d 85 b8 e3 ff ff 	lea    -0x1c48(%rbp),%rax
   1084b:	48 89 85 f8 fb ff ff 	mov    %rax,-0x408(%rbp)
   10852:	48 8d 85 b8 e3 ff ff 	lea    -0x1c48(%rbp),%rax
   10859:	48 89 85 00 fc ff ff 	mov    %rax,-0x400(%rbp)
   10860:	48 8d 85 b8 e3 ff ff 	lea    -0x1c48(%rbp),%rax
   10867:	48 89 85 08 fc ff ff 	mov    %rax,-0x3f8(%rbp)
   1086e:	48 c7 85 10 fc ff ff 	movq   $0x0,-0x3f0(%rbp)
   10875:	00 00 00 00 
   10879:	48 8d 85 b8 e3 ff ff 	lea    -0x1c48(%rbp),%rax
   10880:	48 89 85 18 fc ff ff 	mov    %rax,-0x3e8(%rbp)
   10887:	48 8d 85 b8 e3 ff ff 	lea    -0x1c48(%rbp),%rax
   1088e:	48 89 85 20 fc ff ff 	mov    %rax,-0x3e0(%rbp)
   10895:	48 8d 85 b8 e3 ff ff 	lea    -0x1c48(%rbp),%rax
   1089c:	48 89 85 28 fc ff ff 	mov    %rax,-0x3d8(%rbp)
   108a3:	48 8d 85 b8 e3 ff ff 	lea    -0x1c48(%rbp),%rax
   108aa:	48 89 85 30 fc ff ff 	mov    %rax,-0x3d0(%rbp)
   108b1:	48 8d 85 b8 e3 ff ff 	lea    -0x1c48(%rbp),%rax
   108b8:	48 89 85 38 fc ff ff 	mov    %rax,-0x3c8(%rbp)
   108bf:	48 c7 85 40 fc ff ff 	movq   $0x0,-0x3c0(%rbp)
   108c6:	00 00 00 00 
   108ca:	48 8d 85 b8 e3 ff ff 	lea    -0x1c48(%rbp),%rax
   108d1:	48 89 85 48 fc ff ff 	mov    %rax,-0x3b8(%rbp)
   108d8:	48 8d 85 b8 e3 ff ff 	lea    -0x1c48(%rbp),%rax
   108df:	48 89 85 50 fc ff ff 	mov    %rax,-0x3b0(%rbp)
   108e6:	48 8d 85 b8 e3 ff ff 	lea    -0x1c48(%rbp),%rax
   108ed:	48 89 85 58 fc ff ff 	mov    %rax,-0x3a8(%rbp)
   108f4:	48 c7 85 60 fc ff ff 	movq   $0x0,-0x3a0(%rbp)
   108fb:	00 00 00 00 
   108ff:	48 8d 85 b8 e3 ff ff 	lea    -0x1c48(%rbp),%rax
   10906:	48 89 85 68 fc ff ff 	mov    %rax,-0x398(%rbp)
   1090d:	48 c7 85 70 fc ff ff 	movq   $0x0,-0x390(%rbp)
   10914:	00 00 00 00 
   10918:	48 8d 85 b8 e3 ff ff 	lea    -0x1c48(%rbp),%rax
   1091f:	48 89 85 78 fc ff ff 	mov    %rax,-0x388(%rbp)
   10926:	48 8d 85 b8 e3 ff ff 	lea    -0x1c48(%rbp),%rax
   1092d:	48 89 85 80 fc ff ff 	mov    %rax,-0x380(%rbp)
   10934:	48 8d 85 b8 e3 ff ff 	lea    -0x1c48(%rbp),%rax
   1093b:	48 89 85 88 fc ff ff 	mov    %rax,-0x378(%rbp)
   10942:	48 8d 85 b8 e3 ff ff 	lea    -0x1c48(%rbp),%rax
   10949:	48 89 85 90 fc ff ff 	mov    %rax,-0x370(%rbp)
   10950:	48 8d 85 b8 e3 ff ff 	lea    -0x1c48(%rbp),%rax
   10957:	48 89 85 98 fc ff ff 	mov    %rax,-0x368(%rbp)
   1095e:	48 8d 85 b8 e3 ff ff 	lea    -0x1c48(%rbp),%rax
   10965:	48 89 85 a0 fc ff ff 	mov    %rax,-0x360(%rbp)
   1096c:	48 8d 85 b8 e3 ff ff 	lea    -0x1c48(%rbp),%rax
   10973:	48 89 85 a8 fc ff ff 	mov    %rax,-0x358(%rbp)
   1097a:	48 8d 85 b8 e3 ff ff 	lea    -0x1c48(%rbp),%rax
   10981:	48 89 85 b0 fc ff ff 	mov    %rax,-0x350(%rbp)
   10988:	48 8d 85 b8 e3 ff ff 	lea    -0x1c48(%rbp),%rax
   1098f:	48 89 85 b8 fc ff ff 	mov    %rax,-0x348(%rbp)
   10996:	48 8d 85 b8 e3 ff ff 	lea    -0x1c48(%rbp),%rax
   1099d:	48 89 85 c0 fc ff ff 	mov    %rax,-0x340(%rbp)
   109a4:	48 8d 85 b8 e3 ff ff 	lea    -0x1c48(%rbp),%rax
   109ab:	48 89 85 c8 fc ff ff 	mov    %rax,-0x338(%rbp)
   109b2:	48 8d 85 b8 e3 ff ff 	lea    -0x1c48(%rbp),%rax
   109b9:	48 89 85 d0 fc ff ff 	mov    %rax,-0x330(%rbp)
   109c0:	48 8d 85 b8 e3 ff ff 	lea    -0x1c48(%rbp),%rax
   109c7:	48 89 85 d8 fc ff ff 	mov    %rax,-0x328(%rbp)
   109ce:	48 8d 85 b8 e3 ff ff 	lea    -0x1c48(%rbp),%rax
   109d5:	48 89 85 e0 fc ff ff 	mov    %rax,-0x320(%rbp)
   109dc:	48 8d 85 b8 e3 ff ff 	lea    -0x1c48(%rbp),%rax
   109e3:	48 89 85 e8 fc ff ff 	mov    %rax,-0x318(%rbp)
   109ea:	48 8d 85 b8 e3 ff ff 	lea    -0x1c48(%rbp),%rax
   109f1:	48 89 85 f0 fc ff ff 	mov    %rax,-0x310(%rbp)
   109f8:	48 8d 85 b8 e3 ff ff 	lea    -0x1c48(%rbp),%rax
   109ff:	48 89 85 f8 fc ff ff 	mov    %rax,-0x308(%rbp)
   10a06:	48 8d 85 b8 e3 ff ff 	lea    -0x1c48(%rbp),%rax
   10a0d:	48 89 85 00 fd ff ff 	mov    %rax,-0x300(%rbp)
   10a14:	48 8d 85 b8 e3 ff ff 	lea    -0x1c48(%rbp),%rax
   10a1b:	48 89 85 08 fd ff ff 	mov    %rax,-0x2f8(%rbp)
   10a22:	48 c7 85 10 fd ff ff 	movq   $0x0,-0x2f0(%rbp)
   10a29:	00 00 00 00 
   10a2d:	48 8d 85 b8 e3 ff ff 	lea    -0x1c48(%rbp),%rax
   10a34:	48 89 85 18 fd ff ff 	mov    %rax,-0x2e8(%rbp)
   10a3b:	48 8d 85 b8 e3 ff ff 	lea    -0x1c48(%rbp),%rax
   10a42:	48 89 85 20 fd ff ff 	mov    %rax,-0x2e0(%rbp)
   10a49:	48 8d 85 b8 e3 ff ff 	lea    -0x1c48(%rbp),%rax
   10a50:	48 89 85 28 fd ff ff 	mov    %rax,-0x2d8(%rbp)
   10a57:	48 8d 85 b8 e3 ff ff 	lea    -0x1c48(%rbp),%rax
   10a5e:	48 89 85 30 fd ff ff 	mov    %rax,-0x2d0(%rbp)
   10a65:	48 c7 85 38 fd ff ff 	movq   $0x0,-0x2c8(%rbp)
   10a6c:	00 00 00 00 
   10a70:	48 8d 85 b8 e3 ff ff 	lea    -0x1c48(%rbp),%rax
   10a77:	48 89 85 40 fd ff ff 	mov    %rax,-0x2c0(%rbp)
   10a7e:	48 8d 85 b8 e3 ff ff 	lea    -0x1c48(%rbp),%rax
   10a85:	48 89 85 48 fd ff ff 	mov    %rax,-0x2b8(%rbp)
   10a8c:	48 8d 85 b8 e3 ff ff 	lea    -0x1c48(%rbp),%rax
   10a93:	48 89 85 50 fd ff ff 	mov    %rax,-0x2b0(%rbp)
   10a9a:	48 8d 85 b8 e3 ff ff 	lea    -0x1c48(%rbp),%rax
   10aa1:	48 89 85 58 fd ff ff 	mov    %rax,-0x2a8(%rbp)
   10aa8:	48 c7 85 60 fd ff ff 	movq   $0x0,-0x2a0(%rbp)
   10aaf:	00 00 00 00 
   10ab3:	48 c7 85 68 fd ff ff 	movq   $0x0,-0x298(%rbp)
   10aba:	00 00 00 00 
   10abe:	48 8d 85 b8 e3 ff ff 	lea    -0x1c48(%rbp),%rax
   10ac5:	48 89 85 70 fd ff ff 	mov    %rax,-0x290(%rbp)
   10acc:	48 c7 85 78 fd ff ff 	movq   $0x0,-0x288(%rbp)
   10ad3:	00 00 00 00 
   10ad7:	48 8d 85 b8 e3 ff ff 	lea    -0x1c48(%rbp),%rax
   10ade:	48 89 85 80 fd ff ff 	mov    %rax,-0x280(%rbp)
   10ae5:	48 c7 85 88 fd ff ff 	movq   $0x0,-0x278(%rbp)
   10aec:	00 00 00 00 
   10af0:	48 c7 85 90 fd ff ff 	movq   $0x0,-0x270(%rbp)
   10af7:	00 00 00 00 
   10afb:	48 8d 85 b8 e3 ff ff 	lea    -0x1c48(%rbp),%rax
   10b02:	48 89 85 98 fd ff ff 	mov    %rax,-0x268(%rbp)
   10b09:	48 8d 85 b8 e3 ff ff 	lea    -0x1c48(%rbp),%rax
   10b10:	48 89 85 a0 fd ff ff 	mov    %rax,-0x260(%rbp)
   10b17:	48 8d 85 b8 e3 ff ff 	lea    -0x1c48(%rbp),%rax
   10b1e:	48 89 85 a8 fd ff ff 	mov    %rax,-0x258(%rbp)
   10b25:	48 8d 85 b8 e3 ff ff 	lea    -0x1c48(%rbp),%rax
   10b2c:	48 89 85 b0 fd ff ff 	mov    %rax,-0x250(%rbp)
   10b33:	48 8d 85 b8 e3 ff ff 	lea    -0x1c48(%rbp),%rax
   10b3a:	48 89 85 b8 fd ff ff 	mov    %rax,-0x248(%rbp)
   10b41:	48 8d 85 b8 e3 ff ff 	lea    -0x1c48(%rbp),%rax
   10b48:	48 89 85 c0 fd ff ff 	mov    %rax,-0x240(%rbp)
   10b4f:	48 8d 85 b8 e3 ff ff 	lea    -0x1c48(%rbp),%rax
   10b56:	48 89 85 c8 fd ff ff 	mov    %rax,-0x238(%rbp)
   10b5d:	48 8d 85 b8 e3 ff ff 	lea    -0x1c48(%rbp),%rax
   10b64:	48 89 85 d0 fd ff ff 	mov    %rax,-0x230(%rbp)
   10b6b:	48 8d 85 b8 e3 ff ff 	lea    -0x1c48(%rbp),%rax
   10b72:	48 89 85 d8 fd ff ff 	mov    %rax,-0x228(%rbp)
   10b79:	48 8d 85 b8 e3 ff ff 	lea    -0x1c48(%rbp),%rax
   10b80:	48 89 85 e0 fd ff ff 	mov    %rax,-0x220(%rbp)
   10b87:	48 8d 85 b8 e3 ff ff 	lea    -0x1c48(%rbp),%rax
   10b8e:	48 89 85 e8 fd ff ff 	mov    %rax,-0x218(%rbp)
   10b95:	48 8d 85 b8 e3 ff ff 	lea    -0x1c48(%rbp),%rax
   10b9c:	48 89 85 f0 fd ff ff 	mov    %rax,-0x210(%rbp)
   10ba3:	48 8d 85 b8 e3 ff ff 	lea    -0x1c48(%rbp),%rax
   10baa:	48 89 85 f8 fd ff ff 	mov    %rax,-0x208(%rbp)
   10bb1:	48 8d 85 b8 e3 ff ff 	lea    -0x1c48(%rbp),%rax
   10bb8:	48 89 85 00 fe ff ff 	mov    %rax,-0x200(%rbp)
   10bbf:	48 8d 85 b8 e3 ff ff 	lea    -0x1c48(%rbp),%rax
   10bc6:	48 89 85 08 fe ff ff 	mov    %rax,-0x1f8(%rbp)
   10bcd:	48 8d 85 b8 e3 ff ff 	lea    -0x1c48(%rbp),%rax
   10bd4:	48 89 85 10 fe ff ff 	mov    %rax,-0x1f0(%rbp)
   10bdb:	48 c7 85 18 fe ff ff 	movq   $0x0,-0x1e8(%rbp)
   10be2:	00 00 00 00 
   10be6:	48 8d 85 b8 e3 ff ff 	lea    -0x1c48(%rbp),%rax
   10bed:	48 89 85 20 fe ff ff 	mov    %rax,-0x1e0(%rbp)
   10bf4:	48 c7 85 28 fe ff ff 	movq   $0x0,-0x1d8(%rbp)
   10bfb:	00 00 00 00 
   10bff:	48 8d 85 b8 e3 ff ff 	lea    -0x1c48(%rbp),%rax
   10c06:	48 89 85 30 fe ff ff 	mov    %rax,-0x1d0(%rbp)
   10c0d:	48 8d 85 b8 e3 ff ff 	lea    -0x1c48(%rbp),%rax
   10c14:	48 89 85 38 fe ff ff 	mov    %rax,-0x1c8(%rbp)
   10c1b:	48 c7 85 40 fe ff ff 	movq   $0x0,-0x1c0(%rbp)
   10c22:	00 00 00 00 
   10c26:	48 8d 85 b8 e3 ff ff 	lea    -0x1c48(%rbp),%rax
   10c2d:	48 89 85 48 fe ff ff 	mov    %rax,-0x1b8(%rbp)
   10c34:	48 c7 85 50 fe ff ff 	movq   $0x0,-0x1b0(%rbp)
   10c3b:	00 00 00 00 
   10c3f:	48 8d 85 b8 e3 ff ff 	lea    -0x1c48(%rbp),%rax
   10c46:	48 89 85 58 fe ff ff 	mov    %rax,-0x1a8(%rbp)
   10c4d:	48 8d 85 b8 e3 ff ff 	lea    -0x1c48(%rbp),%rax
   10c54:	48 89 85 60 fe ff ff 	mov    %rax,-0x1a0(%rbp)
   10c5b:	48 8d 85 b8 e3 ff ff 	lea    -0x1c48(%rbp),%rax
   10c62:	48 89 85 68 fe ff ff 	mov    %rax,-0x198(%rbp)
   10c69:	48 c7 85 70 fe ff ff 	movq   $0x0,-0x190(%rbp)
   10c70:	00 00 00 00 
   10c74:	48 c7 85 78 fe ff ff 	movq   $0x0,-0x188(%rbp)
   10c7b:	00 00 00 00 
   10c7f:	48 8d 85 b8 e3 ff ff 	lea    -0x1c48(%rbp),%rax
   10c86:	48 89 85 80 fe ff ff 	mov    %rax,-0x180(%rbp)
   10c8d:	48 8d 85 b8 e3 ff ff 	lea    -0x1c48(%rbp),%rax
   10c94:	48 89 85 88 fe ff ff 	mov    %rax,-0x178(%rbp)
   10c9b:	48 8d 85 b8 e3 ff ff 	lea    -0x1c48(%rbp),%rax
   10ca2:	48 89 85 90 fe ff ff 	mov    %rax,-0x170(%rbp)
   10ca9:	48 8d 85 b8 e3 ff ff 	lea    -0x1c48(%rbp),%rax
   10cb0:	48 89 85 98 fe ff ff 	mov    %rax,-0x168(%rbp)
   10cb7:	48 8d 85 b8 e3 ff ff 	lea    -0x1c48(%rbp),%rax
   10cbe:	48 89 85 a0 fe ff ff 	mov    %rax,-0x160(%rbp)
   10cc5:	48 8d 85 b8 e3 ff ff 	lea    -0x1c48(%rbp),%rax
   10ccc:	48 89 85 a8 fe ff ff 	mov    %rax,-0x158(%rbp)
   10cd3:	48 8d 85 b8 e3 ff ff 	lea    -0x1c48(%rbp),%rax
   10cda:	48 89 85 b0 fe ff ff 	mov    %rax,-0x150(%rbp)
   10ce1:	48 8d 85 b8 e3 ff ff 	lea    -0x1c48(%rbp),%rax
   10ce8:	48 89 85 b8 fe ff ff 	mov    %rax,-0x148(%rbp)
   10cef:	48 8d 85 b8 e3 ff ff 	lea    -0x1c48(%rbp),%rax
   10cf6:	48 89 85 c0 fe ff ff 	mov    %rax,-0x140(%rbp)
   10cfd:	48 8d 85 b8 e3 ff ff 	lea    -0x1c48(%rbp),%rax
   10d04:	48 89 85 c8 fe ff ff 	mov    %rax,-0x138(%rbp)
   10d0b:	48 c7 85 d0 fe ff ff 	movq   $0x0,-0x130(%rbp)
   10d12:	00 00 00 00 
   10d16:	48 8d 85 b8 e3 ff ff 	lea    -0x1c48(%rbp),%rax
   10d1d:	48 89 85 d8 fe ff ff 	mov    %rax,-0x128(%rbp)
   10d24:	48 8d 85 b8 e3 ff ff 	lea    -0x1c48(%rbp),%rax
   10d2b:	48 89 85 e0 fe ff ff 	mov    %rax,-0x120(%rbp)
   10d32:	48 8d 85 b8 e3 ff ff 	lea    -0x1c48(%rbp),%rax
   10d39:	48 89 85 e8 fe ff ff 	mov    %rax,-0x118(%rbp)
   10d40:	48 8d 85 b8 e3 ff ff 	lea    -0x1c48(%rbp),%rax
   10d47:	48 89 85 f0 fe ff ff 	mov    %rax,-0x110(%rbp)
   10d4e:	48 c7 85 f8 fe ff ff 	movq   $0x0,-0x108(%rbp)
   10d55:	00 00 00 00 
   10d59:	48 8d 85 b8 e3 ff ff 	lea    -0x1c48(%rbp),%rax
   10d60:	48 89 85 00 ff ff ff 	mov    %rax,-0x100(%rbp)
   10d67:	48 8d 85 b8 e3 ff ff 	lea    -0x1c48(%rbp),%rax
   10d6e:	48 89 85 08 ff ff ff 	mov    %rax,-0xf8(%rbp)
   10d75:	48 8d 85 b8 e3 ff ff 	lea    -0x1c48(%rbp),%rax
   10d7c:	48 89 85 10 ff ff ff 	mov    %rax,-0xf0(%rbp)
   10d83:	48 8d 85 b8 e3 ff ff 	lea    -0x1c48(%rbp),%rax
   10d8a:	48 89 85 18 ff ff ff 	mov    %rax,-0xe8(%rbp)
   10d91:	48 8d 85 b8 e3 ff ff 	lea    -0x1c48(%rbp),%rax
   10d98:	48 89 85 20 ff ff ff 	mov    %rax,-0xe0(%rbp)
   10d9f:	48 8d 85 b8 e3 ff ff 	lea    -0x1c48(%rbp),%rax
   10da6:	48 89 85 28 ff ff ff 	mov    %rax,-0xd8(%rbp)
   10dad:	48 8d 85 b8 e3 ff ff 	lea    -0x1c48(%rbp),%rax
   10db4:	48 89 85 30 ff ff ff 	mov    %rax,-0xd0(%rbp)
   10dbb:	48 8d 85 b8 e3 ff ff 	lea    -0x1c48(%rbp),%rax
   10dc2:	48 89 85 38 ff ff ff 	mov    %rax,-0xc8(%rbp)
   10dc9:	48 8d 85 b8 e3 ff ff 	lea    -0x1c48(%rbp),%rax
   10dd0:	48 89 85 40 ff ff ff 	mov    %rax,-0xc0(%rbp)
   10dd7:	48 8d 85 b8 e3 ff ff 	lea    -0x1c48(%rbp),%rax
   10dde:	48 89 85 48 ff ff ff 	mov    %rax,-0xb8(%rbp)
   10de5:	48 8d 85 b8 e3 ff ff 	lea    -0x1c48(%rbp),%rax
   10dec:	48 89 85 50 ff ff ff 	mov    %rax,-0xb0(%rbp)
   10df3:	48 8d 85 b8 e3 ff ff 	lea    -0x1c48(%rbp),%rax
   10dfa:	48 89 85 58 ff ff ff 	mov    %rax,-0xa8(%rbp)
   10e01:	48 8d 85 b8 e3 ff ff 	lea    -0x1c48(%rbp),%rax
   10e08:	48 89 85 60 ff ff ff 	mov    %rax,-0xa0(%rbp)
   10e0f:	48 8d 85 b8 e3 ff ff 	lea    -0x1c48(%rbp),%rax
   10e16:	48 89 85 68 ff ff ff 	mov    %rax,-0x98(%rbp)
   10e1d:	48 8d 85 b8 e3 ff ff 	lea    -0x1c48(%rbp),%rax
   10e24:	48 89 85 70 ff ff ff 	mov    %rax,-0x90(%rbp)
   10e2b:	48 8d 85 b8 e3 ff ff 	lea    -0x1c48(%rbp),%rax
   10e32:	48 89 85 78 ff ff ff 	mov    %rax,-0x88(%rbp)
   10e39:	48 c7 45 80 00 00 00 	movq   $0x0,-0x80(%rbp)
   10e40:	00 
   10e41:	48 8d 85 b8 e3 ff ff 	lea    -0x1c48(%rbp),%rax
   10e48:	48 89 45 88          	mov    %rax,-0x78(%rbp)
   10e4c:	48 c7 45 90 00 00 00 	movq   $0x0,-0x70(%rbp)
   10e53:	00 
   10e54:	48 8d 85 2c e3 ff ff 	lea    -0x1cd4(%rbp),%rax
   10e5b:	48 89 85 c8 e4 ff ff 	mov    %rax,-0x1b38(%rbp)
   10e62:	48 8d 85 90 e5 ff ff 	lea    -0x1a70(%rbp),%rax
   10e69:	48 83 c0 04          	add    $0x4,%rax
   10e6d:	48 89 85 d0 e4 ff ff 	mov    %rax,-0x1b30(%rbp)
   10e74:	c7 85 58 e3 ff ff 00 	movl   $0x0,-0x1ca8(%rbp)
   10e7b:	00 00 00 
   10e7e:	eb 46                	jmp    10ec6 <func_113+0x519d>
   10e80:	c7 85 3c e3 ff ff 00 	movl   $0x0,-0x1cc4(%rbp)
   10e87:	00 00 00 
   10e8a:	eb 2a                	jmp    10eb6 <func_113+0x518d>
   10e8c:	8b 85 3c e3 ff ff    	mov    -0x1cc4(%rbp),%eax
   10e92:	48 63 d0             	movslq %eax,%rdx
   10e95:	8b 85 58 e3 ff ff    	mov    -0x1ca8(%rbp),%eax
   10e9b:	48 98                	cltq   
   10e9d:	48 01 c2             	add    %rax,%rdx
   10ea0:	48 8d 85 b0 e3 ff ff 	lea    -0x1c50(%rbp),%rax
   10ea7:	48 89 84 d5 e0 e5 ff 	mov    %rax,-0x1a20(%rbp,%rdx,8)
   10eae:	ff 
   10eaf:	83 85 3c e3 ff ff 01 	addl   $0x1,-0x1cc4(%rbp)
   10eb6:	83 bd 3c e3 ff ff 00 	cmpl   $0x0,-0x1cc4(%rbp)
   10ebd:	7e cd                	jle    10e8c <func_113+0x5163>
   10ebf:	83 85 58 e3 ff ff 01 	addl   $0x1,-0x1ca8(%rbp)
   10ec6:	83 bd 58 e3 ff ff 02 	cmpl   $0x2,-0x1ca8(%rbp)
   10ecd:	7e b1                	jle    10e80 <func_113+0x5157>
   10ecf:	48 8b 85 e0 e3 ff ff 	mov    -0x1c20(%rbp),%rax
   10ed6:	0f b6 00             	movzbl (%rax),%eax
   10ed9:	8d 50 ff             	lea    -0x1(%rax),%edx
   10edc:	48 8b 85 e0 e3 ff ff 	mov    -0x1c20(%rbp),%rax
   10ee3:	88 10                	mov    %dl,(%rax)
   10ee5:	48 8b 85 e0 e3 ff ff 	mov    -0x1c20(%rbp),%rax
   10eec:	0f b6 00             	movzbl (%rax),%eax
   10eef:	44 0f b6 e8          	movzbl %al,%r13d
   10ef3:	48 8b 85 18 e3 ff ff 	mov    -0x1ce8(%rbp),%rax
   10efa:	0f bf d8             	movswl %ax,%ebx
   10efd:	48 8b 85 18 e3 ff ff 	mov    -0x1ce8(%rbp),%rax
   10f04:	44 0f bf e0          	movswl %ax,%r12d
   10f08:	48 8b 85 18 e3 ff ff 	mov    -0x1ce8(%rbp),%rax
   10f0f:	48 89 c6             	mov    %rax,%rsi
   10f12:	48 bf d6 cd 55 39 1f 	movabs $0xb1c4671f3955cdd6,%rdi
   10f19:	67 c4 b1 
   10f1c:	e8 93 3a ff ff       	callq  49b4 <safe_mod_func_int64_t_s_s>
   10f21:	98                   	cwtl   
   10f22:	44 89 e6             	mov    %r12d,%esi
   10f25:	89 c7                	mov    %eax,%edi
   10f27:	e8 a7 34 ff ff       	callq  43d3 <safe_sub_func_int16_t_s_s>
   10f2c:	8b 85 60 e3 ff ff    	mov    -0x1ca0(%rbp),%eax
   10f32:	0f b6 d0             	movzbl %al,%edx
   10f35:	48 8b 85 e0 e5 ff ff 	mov    -0x1a20(%rbp),%rax
   10f3c:	48 85 c0             	test   %rax,%rax
   10f3f:	0f 94 c0             	sete   %al
   10f42:	0f b6 c0             	movzbl %al,%eax
   10f45:	89 d6                	mov    %edx,%esi
   10f47:	89 c7                	mov    %eax,%edi
   10f49:	e8 8d 3c ff ff       	callq  4bdb <safe_div_func_uint8_t_u_u>
   10f4e:	44 0f b6 e0          	movzbl %al,%r12d
   10f52:	be 0d 00 00 00       	mov    $0xd,%esi
   10f57:	bf 04 00 00 00       	mov    $0x4,%edi
   10f5c:	e8 02 36 ff ff       	callq  4563 <safe_rshift_func_int16_t_s_u>
   10f61:	98                   	cwtl   
   10f62:	41 39 c4             	cmp    %eax,%r12d
   10f65:	0f 94 c0             	sete   %al
   10f68:	0f b6 c0             	movzbl %al,%eax
   10f6b:	be 00 00 00 00       	mov    $0x0,%esi
   10f70:	89 c7                	mov    %eax,%edi
   10f72:	e8 6a 35 ff ff       	callq  44e1 <safe_lshift_func_int16_t_s_u>
   10f77:	66 83 f8 ff          	cmp    $0xffff,%ax
   10f7b:	0f 9d c0             	setge  %al
   10f7e:	0f b6 c0             	movzbl %al,%eax
   10f81:	89 de                	mov    %ebx,%esi
   10f83:	89 c7                	mov    %eax,%edi
   10f85:	e8 cb 34 ff ff       	callq  4455 <safe_div_func_int16_t_s_s>
   10f8a:	8b 15 84 65 00 00    	mov    0x6584(%rip),%edx        # 17514 <g_414+0x14>
   10f90:	21 d0                	and    %edx,%eax
   10f92:	0f b7 d0             	movzwl %ax,%edx
   10f95:	0f b6 05 42 65 00 00 	movzbl 0x6542(%rip),%eax        # 174de <g_247+0x2>
   10f9c:	0f b6 c0             	movzbl %al,%eax
   10f9f:	89 d6                	mov    %edx,%esi
   10fa1:	89 c7                	mov    %eax,%edi
   10fa3:	e8 b4 3d ff ff       	callq  4d5c <safe_mod_func_uint16_t_u_u>
   10fa8:	66 41 39 c5          	cmp    %ax,%r13w
   10fac:	0f 97 c0             	seta   %al
   10faf:	0f b6 d0             	movzbl %al,%edx
   10fb2:	48 8b 85 80 e3 ff ff 	mov    -0x1c80(%rbp),%rax
   10fb9:	8b 00                	mov    (%rax),%eax
   10fbb:	98                   	cwtl   
   10fbc:	89 d6                	mov    %edx,%esi
   10fbe:	89 c7                	mov    %eax,%edi
   10fc0:	e8 1c 35 ff ff       	callq  44e1 <safe_lshift_func_int16_t_s_u>
   10fc5:	48 8d 85 98 e3 ff ff 	lea    -0x1c68(%rbp),%rax
   10fcc:	48 89 85 d8 e4 ff ff 	mov    %rax,-0x1b28(%rbp)
   10fd3:	c7 85 c0 e5 ff ff 0c 	movl   $0xad20d30c,-0x1a40(%rbp)
   10fda:	d3 20 ad 
   10fdd:	c7 85 c4 e5 ff ff 0c 	movl   $0xad20d30c,-0x1a3c(%rbp)
   10fe4:	d3 20 ad 
   10fe7:	c7 85 c8 e5 ff ff 0c 	movl   $0xad20d30c,-0x1a38(%rbp)
   10fee:	d3 20 ad 
   10ff1:	c7 85 cc e5 ff ff 0c 	movl   $0xad20d30c,-0x1a34(%rbp)
   10ff8:	d3 20 ad 
   10ffb:	c7 85 d0 e5 ff ff 0c 	movl   $0xad20d30c,-0x1a30(%rbp)
   11002:	d3 20 ad 
   11005:	48 c7 85 e0 e4 ff ff 	movq   $0x0,-0x1b20(%rbp)
   1100c:	00 00 00 00 
   11010:	48 8d 05 fd 64 00 00 	lea    0x64fd(%rip),%rax        # 17514 <g_414+0x14>
   11017:	48 89 85 e8 e4 ff ff 	mov    %rax,-0x1b18(%rbp)
   1101e:	48 c7 85 f0 e4 ff ff 	movq   $0x0,-0x1b10(%rbp)
   11025:	00 00 00 00 
   11029:	48 8d 05 84 64 00 00 	lea    0x6484(%rip),%rax        # 174b4 <g_148>
   11030:	48 89 85 f0 e6 ff ff 	mov    %rax,-0x1910(%rbp)
   11037:	48 8d 05 56 64 00 00 	lea    0x6456(%rip),%rax        # 17494 <g_46+0x4>
   1103e:	48 89 85 f8 e6 ff ff 	mov    %rax,-0x1908(%rbp)
   11045:	48 8d 85 38 e3 ff ff 	lea    -0x1cc8(%rbp),%rax
   1104c:	48 89 85 00 e7 ff ff 	mov    %rax,-0x1900(%rbp)
   11053:	48 8d 05 3a 64 00 00 	lea    0x643a(%rip),%rax        # 17494 <g_46+0x4>
   1105a:	48 89 85 08 e7 ff ff 	mov    %rax,-0x18f8(%rbp)
   11061:	48 8d 05 4c 64 00 00 	lea    0x644c(%rip),%rax        # 174b4 <g_148>
   11068:	48 89 85 10 e7 ff ff 	mov    %rax,-0x18f0(%rbp)
   1106f:	48 8d 05 1e 64 00 00 	lea    0x641e(%rip),%rax        # 17494 <g_46+0x4>
   11076:	48 89 85 18 e7 ff ff 	mov    %rax,-0x18e8(%rbp)
   1107d:	48 8d 85 c0 e5 ff ff 	lea    -0x1a40(%rbp),%rax
   11084:	48 83 c0 04          	add    $0x4,%rax
   11088:	48 89 85 20 e7 ff ff 	mov    %rax,-0x18e0(%rbp)
   1108f:	48 8d 85 a0 e5 ff ff 	lea    -0x1a60(%rbp),%rax
   11096:	48 83 c0 0c          	add    $0xc,%rax
   1109a:	48 89 85 28 e7 ff ff 	mov    %rax,-0x18d8(%rbp)
   110a1:	48 8d 85 c0 e5 ff ff 	lea    -0x1a40(%rbp),%rax
   110a8:	48 83 c0 04          	add    $0x4,%rax
   110ac:	48 89 85 30 e7 ff ff 	mov    %rax,-0x18d0(%rbp)
   110b3:	48 8d 05 da 63 00 00 	lea    0x63da(%rip),%rax        # 17494 <g_46+0x4>
   110ba:	48 89 85 38 e7 ff ff 	mov    %rax,-0x18c8(%rbp)
   110c1:	48 8d 85 c0 e5 ff ff 	lea    -0x1a40(%rbp),%rax
   110c8:	48 83 c0 04          	add    $0x4,%rax
   110cc:	48 89 85 40 e7 ff ff 	mov    %rax,-0x18c0(%rbp)
   110d3:	48 8d 85 a0 e5 ff ff 	lea    -0x1a60(%rbp),%rax
   110da:	48 83 c0 0c          	add    $0xc,%rax
   110de:	48 89 85 48 e7 ff ff 	mov    %rax,-0x18b8(%rbp)
   110e5:	48 8d 05 c8 63 00 00 	lea    0x63c8(%rip),%rax        # 174b4 <g_148>
   110ec:	48 89 85 50 e7 ff ff 	mov    %rax,-0x18b0(%rbp)
   110f3:	48 8d 85 a0 e5 ff ff 	lea    -0x1a60(%rbp),%rax
   110fa:	48 83 c0 0c          	add    $0xc,%rax
   110fe:	48 89 85 58 e7 ff ff 	mov    %rax,-0x18a8(%rbp)
   11105:	48 8d 85 38 e3 ff ff 	lea    -0x1cc8(%rbp),%rax
   1110c:	48 89 85 60 e7 ff ff 	mov    %rax,-0x18a0(%rbp)
   11113:	48 8d 85 a0 e5 ff ff 	lea    -0x1a60(%rbp),%rax
   1111a:	48 83 c0 0c          	add    $0xc,%rax
   1111e:	48 89 85 68 e7 ff ff 	mov    %rax,-0x1898(%rbp)
   11125:	48 8d 05 88 63 00 00 	lea    0x6388(%rip),%rax        # 174b4 <g_148>
   1112c:	48 89 85 70 e7 ff ff 	mov    %rax,-0x1890(%rbp)
   11133:	48 8d 85 a0 e5 ff ff 	lea    -0x1a60(%rbp),%rax
   1113a:	48 83 c0 0c          	add    $0xc,%rax
   1113e:	48 89 85 78 e7 ff ff 	mov    %rax,-0x1888(%rbp)
   11145:	48 8d 85 c0 e5 ff ff 	lea    -0x1a40(%rbp),%rax
   1114c:	48 83 c0 04          	add    $0x4,%rax
   11150:	48 89 85 80 e7 ff ff 	mov    %rax,-0x1880(%rbp)
   11157:	48 8d 05 36 63 00 00 	lea    0x6336(%rip),%rax        # 17494 <g_46+0x4>
   1115e:	48 89 85 88 e7 ff ff 	mov    %rax,-0x1878(%rbp)
   11165:	48 8d 85 c0 e5 ff ff 	lea    -0x1a40(%rbp),%rax
   1116c:	48 83 c0 04          	add    $0x4,%rax
   11170:	48 89 85 90 e7 ff ff 	mov    %rax,-0x1870(%rbp)
   11177:	48 8d 85 a0 e5 ff ff 	lea    -0x1a60(%rbp),%rax
   1117e:	48 83 c0 0c          	add    $0xc,%rax
   11182:	48 89 85 98 e7 ff ff 	mov    %rax,-0x1868(%rbp)
   11189:	48 8d 85 c0 e5 ff ff 	lea    -0x1a40(%rbp),%rax
   11190:	48 83 c0 04          	add    $0x4,%rax
   11194:	48 89 85 a0 e7 ff ff 	mov    %rax,-0x1860(%rbp)
   1119b:	48 8d 05 f2 62 00 00 	lea    0x62f2(%rip),%rax        # 17494 <g_46+0x4>
   111a2:	48 89 85 a8 e7 ff ff 	mov    %rax,-0x1858(%rbp)
   111a9:	48 8d 05 04 63 00 00 	lea    0x6304(%rip),%rax        # 174b4 <g_148>
   111b0:	48 89 85 b0 e7 ff ff 	mov    %rax,-0x1850(%rbp)
   111b7:	48 8d 05 d6 62 00 00 	lea    0x62d6(%rip),%rax        # 17494 <g_46+0x4>
   111be:	48 89 85 b8 e7 ff ff 	mov    %rax,-0x1848(%rbp)
   111c5:	48 8d 85 38 e3 ff ff 	lea    -0x1cc8(%rbp),%rax
   111cc:	48 89 85 c0 e7 ff ff 	mov    %rax,-0x1840(%rbp)
   111d3:	48 8d 05 ba 62 00 00 	lea    0x62ba(%rip),%rax        # 17494 <g_46+0x4>
   111da:	48 89 85 c8 e7 ff ff 	mov    %rax,-0x1838(%rbp)
   111e1:	48 8d 05 cc 62 00 00 	lea    0x62cc(%rip),%rax        # 174b4 <g_148>
   111e8:	48 89 85 d0 e7 ff ff 	mov    %rax,-0x1830(%rbp)
   111ef:	48 8d 05 9e 62 00 00 	lea    0x629e(%rip),%rax        # 17494 <g_46+0x4>
   111f6:	48 89 85 d8 e7 ff ff 	mov    %rax,-0x1828(%rbp)
   111fd:	48 8d 85 c0 e5 ff ff 	lea    -0x1a40(%rbp),%rax
   11204:	48 83 c0 04          	add    $0x4,%rax
   11208:	48 89 85 e0 e7 ff ff 	mov    %rax,-0x1820(%rbp)
   1120f:	48 8d 85 a0 e5 ff ff 	lea    -0x1a60(%rbp),%rax
   11216:	48 83 c0 0c          	add    $0xc,%rax
   1121a:	48 89 85 e8 e7 ff ff 	mov    %rax,-0x1818(%rbp)
   11221:	48 8d 85 c0 e5 ff ff 	lea    -0x1a40(%rbp),%rax
   11228:	48 83 c0 04          	add    $0x4,%rax
   1122c:	48 89 85 f0 e7 ff ff 	mov    %rax,-0x1810(%rbp)
   11233:	48 8d 05 5a 62 00 00 	lea    0x625a(%rip),%rax        # 17494 <g_46+0x4>
   1123a:	48 89 85 f8 e7 ff ff 	mov    %rax,-0x1808(%rbp)
   11241:	48 8d 85 c0 e5 ff ff 	lea    -0x1a40(%rbp),%rax
   11248:	48 83 c0 04          	add    $0x4,%rax
   1124c:	48 89 85 00 e8 ff ff 	mov    %rax,-0x1800(%rbp)
   11253:	48 8d 85 a0 e5 ff ff 	lea    -0x1a60(%rbp),%rax
   1125a:	48 83 c0 0c          	add    $0xc,%rax
   1125e:	48 89 85 08 e8 ff ff 	mov    %rax,-0x17f8(%rbp)
   11265:	48 c7 85 f8 e4 ff ff 	movq   $0x0,-0x1b08(%rbp)
   1126c:	00 00 00 00 
   11270:	c7 85 40 e3 ff ff 00 	movl   $0x0,-0x1cc0(%rbp)
   11277:	00 00 00 
   1127a:	eb 25                	jmp    112a1 <func_113+0x5578>
   1127c:	8b 85 40 e3 ff ff    	mov    -0x1cc0(%rbp),%eax
   11282:	48 98                	cltq   
   11284:	48 8d 95 f0 f7 ff ff 	lea    -0x810(%rbp),%rdx
   1128b:	48 81 c2 d0 02 00 00 	add    $0x2d0,%rdx
   11292:	48 89 94 c5 00 e6 ff 	mov    %rdx,-0x1a00(%rbp,%rax,8)
   11299:	ff 
   1129a:	83 85 40 e3 ff ff 01 	addl   $0x1,-0x1cc0(%rbp)
   112a1:	83 bd 40 e3 ff ff 02 	cmpl   $0x2,-0x1cc0(%rbp)
   112a8:	7e d2                	jle    1127c <func_113+0x5553>
   112aa:	c7 85 40 e3 ff ff 00 	movl   $0x0,-0x1cc0(%rbp)
   112b1:	00 00 00 
   112b4:	eb 1e                	jmp    112d4 <func_113+0x55ab>
   112b6:	8b 85 40 e3 ff ff    	mov    -0x1cc0(%rbp),%eax
   112bc:	48 98                	cltq   
   112be:	48 8d 95 88 e5 ff ff 	lea    -0x1a78(%rbp),%rdx
   112c5:	48 89 94 c5 a0 e6 ff 	mov    %rdx,-0x1960(%rbp,%rax,8)
   112cc:	ff 
   112cd:	83 85 40 e3 ff ff 01 	addl   $0x1,-0x1cc0(%rbp)
   112d4:	83 bd 40 e3 ff ff 06 	cmpl   $0x6,-0x1cc0(%rbp)
   112db:	7e d9                	jle    112b6 <func_113+0x558d>
   112dd:	48 8b 85 d8 e4 ff ff 	mov    -0x1b28(%rbp),%rax
   112e4:	48 8b 95 18 e3 ff ff 	mov    -0x1ce8(%rbp),%rdx
   112eb:	48 89 10             	mov    %rdx,(%rax)
   112ee:	48 8b 05 7b 70 00 00 	mov    0x707b(%rip),%rax        # 18370 <g_167>
   112f5:	48 8b 00             	mov    (%rax),%rax
   112f8:	c7 00 00 00 00 00    	movl   $0x0,(%rax)
   112fe:	8b 00                	mov    (%rax),%eax
   11300:	89 85 c8 e5 ff ff    	mov    %eax,-0x1a38(%rbp)
   11306:	48 8b 05 13 6e 00 00 	mov    0x6e13(%rip),%rax        # 18120 <g_165>
   1130d:	c7 00 31 43 df 38    	movl   $0x38df4331,(%rax)
   11313:	8b 05 17 62 00 00    	mov    0x6217(%rip),%eax        # 17530 <g_426>
   11319:	83 c0 01             	add    $0x1,%eax
   1131c:	89 05 0e 62 00 00    	mov    %eax,0x620e(%rip)        # 17530 <g_426>
   11322:	44 8b 25 a7 61 00 00 	mov    0x61a7(%rip),%r12d        # 174d0 <g_215>
   11329:	48 8b 85 80 e3 ff ff 	mov    -0x1c80(%rbp),%rax
   11330:	8b 18                	mov    (%rax),%ebx
   11332:	0f b7 85 34 e3 ff ff 	movzwl -0x1ccc(%rbp),%eax
   11339:	0f b6 c0             	movzbl %al,%eax
   1133c:	be 06 00 00 00       	mov    $0x6,%esi
   11341:	89 c7                	mov    %eax,%edi
   11343:	e8 04 39 ff ff       	callq  4c4c <safe_lshift_func_uint8_t_u_u>
   11348:	0f b6 c0             	movzbl %al,%eax
   1134b:	89 c6                	mov    %eax,%esi
   1134d:	bf 01 00 00 00       	mov    $0x1,%edi
   11352:	e8 e6 39 ff ff       	callq  4d3d <safe_mul_func_uint16_t_u_u>
   11357:	48 83 bd 18 e3 ff ff 	cmpq   $0x0,-0x1ce8(%rbp)
   1135e:	00 
   1135f:	0f 95 c0             	setne  %al
   11362:	0f b6 c0             	movzbl %al,%eax
   11365:	be 02 00 00 00       	mov    $0x2,%esi
   1136a:	89 c7                	mov    %eax,%edi
   1136c:	e8 c4 2f ff ff       	callq  4335 <safe_rshift_func_int8_t_s_s>
   11371:	48 c7 85 c8 e4 ff ff 	movq   $0x0,-0x1b38(%rbp)
   11378:	00 00 00 00 
   1137c:	48 8d 05 3d 61 00 00 	lea    0x613d(%rip),%rax        # 174c0 <g_155>
   11383:	48 39 85 c8 e4 ff ff 	cmp    %rax,-0x1b38(%rbp)
   1138a:	48 8b 85 c0 fa ff ff 	mov    -0x540(%rbp),%rax
   11391:	48 89 85 c8 f0 ff ff 	mov    %rax,-0xf38(%rbp)
   11398:	b8 01 00 00 00       	mov    $0x1,%eax
   1139d:	48 98                	cltq   
   1139f:	25 b2 eb 41 ee       	and    $0xee41ebb2,%eax
   113a4:	48 ba 80 ba 2d e1 1d 	movabs $0xd963e11de12dba80,%rdx
   113ab:	e1 63 d9 
   113ae:	48 39 d0             	cmp    %rdx,%rax
   113b1:	0f 94 c0             	sete   %al
   113b4:	0f b6 c0             	movzbl %al,%eax
   113b7:	89 de                	mov    %ebx,%esi
   113b9:	89 c7                	mov    %eax,%edi
   113bb:	e8 3f 33 ff ff       	callq  46ff <safe_div_func_int32_t_s_s>
   113c0:	41 39 c4             	cmp    %eax,%r12d
   113c3:	0f 95 c0             	setne  %al
   113c6:	0f b6 d0             	movzbl %al,%edx
   113c9:	48 8b 85 48 e4 ff ff 	mov    -0x1bb8(%rbp),%rax
   113d0:	66 89 10             	mov    %dx,(%rax)
   113d3:	48 8b 85 48 e4 ff ff 	mov    -0x1bb8(%rbp),%rax
   113da:	0f b7 00             	movzwl (%rax),%eax
   113dd:	98                   	cwtl   
   113de:	31 85 48 e3 ff ff    	xor    %eax,-0x1cb8(%rbp)
   113e4:	48 8b 05 35 6d 00 00 	mov    0x6d35(%rip),%rax        # 18120 <g_165>
   113eb:	8b 00                	mov    (%rax),%eax
   113ed:	85 c0                	test   %eax,%eax
   113ef:	0f 84 19 04 00 00    	je     1180e <func_113+0x5ae5>
   113f5:	48 8d 85 a0 e5 ff ff 	lea    -0x1a60(%rbp),%rax
   113fc:	48 83 c0 0c          	add    $0xc,%rax
   11400:	48 89 85 d0 ea ff ff 	mov    %rax,-0x1530(%rbp)
   11407:	48 8d 05 06 61 00 00 	lea    0x6106(%rip),%rax        # 17514 <g_414+0x14>
   1140e:	48 89 85 d8 ea ff ff 	mov    %rax,-0x1528(%rbp)
   11415:	48 8d 85 a0 e5 ff ff 	lea    -0x1a60(%rbp),%rax
   1141c:	48 83 c0 0c          	add    $0xc,%rax
   11420:	48 89 85 e0 ea ff ff 	mov    %rax,-0x1520(%rbp)
   11427:	48 8d 05 e6 60 00 00 	lea    0x60e6(%rip),%rax        # 17514 <g_414+0x14>
   1142e:	48 89 85 e8 ea ff ff 	mov    %rax,-0x1518(%rbp)
   11435:	48 8d 85 a0 e5 ff ff 	lea    -0x1a60(%rbp),%rax
   1143c:	48 83 c0 0c          	add    $0xc,%rax
   11440:	48 89 85 f0 ea ff ff 	mov    %rax,-0x1510(%rbp)
   11447:	48 8d 85 c0 e5 ff ff 	lea    -0x1a40(%rbp),%rax
   1144e:	48 83 c0 0c          	add    $0xc,%rax
   11452:	48 89 85 f8 ea ff ff 	mov    %rax,-0x1508(%rbp)
   11459:	48 8d 85 a0 e5 ff ff 	lea    -0x1a60(%rbp),%rax
   11460:	48 83 c0 0c          	add    $0xc,%rax
   11464:	48 89 85 00 eb ff ff 	mov    %rax,-0x1500(%rbp)
   1146b:	48 8d 05 a2 60 00 00 	lea    0x60a2(%rip),%rax        # 17514 <g_414+0x14>
   11472:	48 89 85 08 eb ff ff 	mov    %rax,-0x14f8(%rbp)
   11479:	48 8d 85 a0 e5 ff ff 	lea    -0x1a60(%rbp),%rax
   11480:	48 83 c0 0c          	add    $0xc,%rax
   11484:	48 89 85 10 eb ff ff 	mov    %rax,-0x14f0(%rbp)
   1148b:	48 8d 05 82 60 00 00 	lea    0x6082(%rip),%rax        # 17514 <g_414+0x14>
   11492:	48 89 85 18 eb ff ff 	mov    %rax,-0x14e8(%rbp)
   11499:	48 8d 85 a0 e5 ff ff 	lea    -0x1a60(%rbp),%rax
   114a0:	48 83 c0 0c          	add    $0xc,%rax
   114a4:	48 89 85 20 eb ff ff 	mov    %rax,-0x14e0(%rbp)
   114ab:	48 8d 85 c0 e5 ff ff 	lea    -0x1a40(%rbp),%rax
   114b2:	48 83 c0 0c          	add    $0xc,%rax
   114b6:	48 89 85 28 eb ff ff 	mov    %rax,-0x14d8(%rbp)
   114bd:	48 8d 85 a0 e5 ff ff 	lea    -0x1a60(%rbp),%rax
   114c4:	48 83 c0 0c          	add    $0xc,%rax
   114c8:	48 89 85 30 eb ff ff 	mov    %rax,-0x14d0(%rbp)
   114cf:	48 8d 05 3e 60 00 00 	lea    0x603e(%rip),%rax        # 17514 <g_414+0x14>
   114d6:	48 89 85 38 eb ff ff 	mov    %rax,-0x14c8(%rbp)
   114dd:	48 8d 85 a0 e5 ff ff 	lea    -0x1a60(%rbp),%rax
   114e4:	48 83 c0 0c          	add    $0xc,%rax
   114e8:	48 89 85 40 eb ff ff 	mov    %rax,-0x14c0(%rbp)
   114ef:	48 8d 05 1e 60 00 00 	lea    0x601e(%rip),%rax        # 17514 <g_414+0x14>
   114f6:	48 89 85 48 eb ff ff 	mov    %rax,-0x14b8(%rbp)
   114fd:	48 8d 85 a0 e5 ff ff 	lea    -0x1a60(%rbp),%rax
   11504:	48 83 c0 0c          	add    $0xc,%rax
   11508:	48 89 85 50 eb ff ff 	mov    %rax,-0x14b0(%rbp)
   1150f:	48 8d 85 c0 e5 ff ff 	lea    -0x1a40(%rbp),%rax
   11516:	48 83 c0 0c          	add    $0xc,%rax
   1151a:	48 89 85 58 eb ff ff 	mov    %rax,-0x14a8(%rbp)
   11521:	48 8d 85 a0 e5 ff ff 	lea    -0x1a60(%rbp),%rax
   11528:	48 83 c0 0c          	add    $0xc,%rax
   1152c:	48 89 85 60 eb ff ff 	mov    %rax,-0x14a0(%rbp)
   11533:	48 8d 05 da 5f 00 00 	lea    0x5fda(%rip),%rax        # 17514 <g_414+0x14>
   1153a:	48 89 85 68 eb ff ff 	mov    %rax,-0x1498(%rbp)
   11541:	48 8d 85 a0 e5 ff ff 	lea    -0x1a60(%rbp),%rax
   11548:	48 83 c0 0c          	add    $0xc,%rax
   1154c:	48 89 85 70 eb ff ff 	mov    %rax,-0x1490(%rbp)
   11553:	48 8d 05 ba 5f 00 00 	lea    0x5fba(%rip),%rax        # 17514 <g_414+0x14>
   1155a:	48 89 85 78 eb ff ff 	mov    %rax,-0x1488(%rbp)
   11561:	48 8d 85 a0 e5 ff ff 	lea    -0x1a60(%rbp),%rax
   11568:	48 83 c0 0c          	add    $0xc,%rax
   1156c:	48 89 85 80 eb ff ff 	mov    %rax,-0x1480(%rbp)
   11573:	48 8d 85 c0 e5 ff ff 	lea    -0x1a40(%rbp),%rax
   1157a:	48 83 c0 0c          	add    $0xc,%rax
   1157e:	48 89 85 88 eb ff ff 	mov    %rax,-0x1478(%rbp)
   11585:	48 8d 85 a0 e5 ff ff 	lea    -0x1a60(%rbp),%rax
   1158c:	48 83 c0 0c          	add    $0xc,%rax
   11590:	48 89 85 90 eb ff ff 	mov    %rax,-0x1470(%rbp)
   11597:	48 8d 05 76 5f 00 00 	lea    0x5f76(%rip),%rax        # 17514 <g_414+0x14>
   1159e:	48 89 85 98 eb ff ff 	mov    %rax,-0x1468(%rbp)
   115a5:	48 8d 85 a0 e5 ff ff 	lea    -0x1a60(%rbp),%rax
   115ac:	48 83 c0 0c          	add    $0xc,%rax
   115b0:	48 89 85 a0 eb ff ff 	mov    %rax,-0x1460(%rbp)
   115b7:	48 8d 05 56 5f 00 00 	lea    0x5f56(%rip),%rax        # 17514 <g_414+0x14>
   115be:	48 89 85 a8 eb ff ff 	mov    %rax,-0x1458(%rbp)
   115c5:	48 8d 85 a0 e5 ff ff 	lea    -0x1a60(%rbp),%rax
   115cc:	48 83 c0 0c          	add    $0xc,%rax
   115d0:	48 89 85 b0 eb ff ff 	mov    %rax,-0x1450(%rbp)
   115d7:	48 8d 85 c0 e5 ff ff 	lea    -0x1a40(%rbp),%rax
   115de:	48 83 c0 0c          	add    $0xc,%rax
   115e2:	48 89 85 b8 eb ff ff 	mov    %rax,-0x1448(%rbp)
   115e9:	48 8d 85 a0 e5 ff ff 	lea    -0x1a60(%rbp),%rax
   115f0:	48 83 c0 0c          	add    $0xc,%rax
   115f4:	48 89 85 c0 eb ff ff 	mov    %rax,-0x1440(%rbp)
   115fb:	48 8d 05 12 5f 00 00 	lea    0x5f12(%rip),%rax        # 17514 <g_414+0x14>
   11602:	48 89 85 c8 eb ff ff 	mov    %rax,-0x1438(%rbp)
   11609:	48 8d 85 a0 e5 ff ff 	lea    -0x1a60(%rbp),%rax
   11610:	48 83 c0 0c          	add    $0xc,%rax
   11614:	48 89 85 d0 eb ff ff 	mov    %rax,-0x1430(%rbp)
   1161b:	48 8d 05 f2 5e 00 00 	lea    0x5ef2(%rip),%rax        # 17514 <g_414+0x14>
   11622:	48 89 85 d8 eb ff ff 	mov    %rax,-0x1428(%rbp)
   11629:	48 8d 85 a0 e5 ff ff 	lea    -0x1a60(%rbp),%rax
   11630:	48 83 c0 0c          	add    $0xc,%rax
   11634:	48 89 85 e0 eb ff ff 	mov    %rax,-0x1420(%rbp)
   1163b:	48 8d 85 c0 e5 ff ff 	lea    -0x1a40(%rbp),%rax
   11642:	48 83 c0 0c          	add    $0xc,%rax
   11646:	48 89 85 e8 eb ff ff 	mov    %rax,-0x1418(%rbp)
   1164d:	48 8d 85 a0 e5 ff ff 	lea    -0x1a60(%rbp),%rax
   11654:	48 83 c0 0c          	add    $0xc,%rax
   11658:	48 89 85 f0 eb ff ff 	mov    %rax,-0x1410(%rbp)
   1165f:	48 8d 05 ae 5e 00 00 	lea    0x5eae(%rip),%rax        # 17514 <g_414+0x14>
   11666:	48 89 85 f8 eb ff ff 	mov    %rax,-0x1408(%rbp)
   1166d:	48 8d 85 a0 e5 ff ff 	lea    -0x1a60(%rbp),%rax
   11674:	48 83 c0 0c          	add    $0xc,%rax
   11678:	48 89 85 00 ec ff ff 	mov    %rax,-0x1400(%rbp)
   1167f:	48 8d 05 8e 5e 00 00 	lea    0x5e8e(%rip),%rax        # 17514 <g_414+0x14>
   11686:	48 89 85 08 ec ff ff 	mov    %rax,-0x13f8(%rbp)
   1168d:	48 8d 85 a0 e5 ff ff 	lea    -0x1a60(%rbp),%rax
   11694:	48 83 c0 0c          	add    $0xc,%rax
   11698:	48 89 85 10 ec ff ff 	mov    %rax,-0x13f0(%rbp)
   1169f:	48 8d 85 c0 e5 ff ff 	lea    -0x1a40(%rbp),%rax
   116a6:	48 83 c0 0c          	add    $0xc,%rax
   116aa:	48 89 85 18 ec ff ff 	mov    %rax,-0x13e8(%rbp)
   116b1:	48 8d 85 a0 e5 ff ff 	lea    -0x1a60(%rbp),%rax
   116b8:	48 83 c0 0c          	add    $0xc,%rax
   116bc:	48 89 85 20 ec ff ff 	mov    %rax,-0x13e0(%rbp)
   116c3:	48 8d 05 4a 5e 00 00 	lea    0x5e4a(%rip),%rax        # 17514 <g_414+0x14>
   116ca:	48 89 85 28 ec ff ff 	mov    %rax,-0x13d8(%rbp)
   116d1:	48 8d 85 a0 e5 ff ff 	lea    -0x1a60(%rbp),%rax
   116d8:	48 83 c0 0c          	add    $0xc,%rax
   116dc:	48 89 85 30 ec ff ff 	mov    %rax,-0x13d0(%rbp)
   116e3:	48 8d 05 2a 5e 00 00 	lea    0x5e2a(%rip),%rax        # 17514 <g_414+0x14>
   116ea:	48 89 85 38 ec ff ff 	mov    %rax,-0x13c8(%rbp)
   116f1:	48 8d 85 a0 e5 ff ff 	lea    -0x1a60(%rbp),%rax
   116f8:	48 83 c0 0c          	add    $0xc,%rax
   116fc:	48 89 85 40 ec ff ff 	mov    %rax,-0x13c0(%rbp)
   11703:	48 8d 85 c0 e5 ff ff 	lea    -0x1a40(%rbp),%rax
   1170a:	48 83 c0 0c          	add    $0xc,%rax
   1170e:	48 89 85 48 ec ff ff 	mov    %rax,-0x13b8(%rbp)
   11715:	48 8d 85 a0 e5 ff ff 	lea    -0x1a60(%rbp),%rax
   1171c:	48 83 c0 0c          	add    $0xc,%rax
   11720:	48 89 85 50 ec ff ff 	mov    %rax,-0x13b0(%rbp)
   11727:	48 8d 05 e6 5d 00 00 	lea    0x5de6(%rip),%rax        # 17514 <g_414+0x14>
   1172e:	48 89 85 58 ec ff ff 	mov    %rax,-0x13a8(%rbp)
   11735:	48 8d 85 a0 e5 ff ff 	lea    -0x1a60(%rbp),%rax
   1173c:	48 83 c0 0c          	add    $0xc,%rax
   11740:	48 89 85 60 ec ff ff 	mov    %rax,-0x13a0(%rbp)
   11747:	48 8d 05 c6 5d 00 00 	lea    0x5dc6(%rip),%rax        # 17514 <g_414+0x14>
   1174e:	48 89 85 68 ec ff ff 	mov    %rax,-0x1398(%rbp)
   11755:	48 8d 85 a0 e5 ff ff 	lea    -0x1a60(%rbp),%rax
   1175c:	48 83 c0 0c          	add    $0xc,%rax
   11760:	48 89 85 70 ec ff ff 	mov    %rax,-0x1390(%rbp)
   11767:	48 8d 85 c0 e5 ff ff 	lea    -0x1a40(%rbp),%rax
   1176e:	48 83 c0 0c          	add    $0xc,%rax
   11772:	48 89 85 78 ec ff ff 	mov    %rax,-0x1388(%rbp)
   11779:	48 8d 85 a0 e5 ff ff 	lea    -0x1a60(%rbp),%rax
   11780:	48 83 c0 0c          	add    $0xc,%rax
   11784:	48 89 85 80 ec ff ff 	mov    %rax,-0x1380(%rbp)
   1178b:	48 8d 05 82 5d 00 00 	lea    0x5d82(%rip),%rax        # 17514 <g_414+0x14>
   11792:	48 89 85 88 ec ff ff 	mov    %rax,-0x1378(%rbp)
   11799:	48 8d 85 a0 e5 ff ff 	lea    -0x1a60(%rbp),%rax
   117a0:	48 83 c0 0c          	add    $0xc,%rax
   117a4:	48 89 85 90 ec ff ff 	mov    %rax,-0x1370(%rbp)
   117ab:	48 8d 05 62 5d 00 00 	lea    0x5d62(%rip),%rax        # 17514 <g_414+0x14>
   117b2:	48 89 85 98 ec ff ff 	mov    %rax,-0x1368(%rbp)
   117b9:	48 8d 85 a0 e5 ff ff 	lea    -0x1a60(%rbp),%rax
   117c0:	48 83 c0 0c          	add    $0xc,%rax
   117c4:	48 89 85 a0 ec ff ff 	mov    %rax,-0x1360(%rbp)
   117cb:	48 8d 85 c0 e5 ff ff 	lea    -0x1a40(%rbp),%rax
   117d2:	48 83 c0 0c          	add    $0xc,%rax
   117d6:	48 89 85 a8 ec ff ff 	mov    %rax,-0x1358(%rbp)
   117dd:	c7 05 cd 5c 00 00 00 	movl   $0x0,0x5ccd(%rip)        # 174b4 <g_148>
   117e4:	00 00 00 
   117e7:	90                   	nop
   117e8:	8b 05 c6 5c 00 00    	mov    0x5cc6(%rip),%eax        # 174b4 <g_148>
   117ee:	83 f8 18             	cmp    $0x18,%eax
   117f1:	7f 3e                	jg     11831 <func_113+0x5b08>
   117f3:	48 8d 85 c0 e5 ff ff 	lea    -0x1a40(%rbp),%rax
   117fa:	48 83 c0 10          	add    $0x10,%rax
   117fe:	48 89 85 00 e5 ff ff 	mov    %rax,-0x1b00(%rbp)
   11805:	48 8b 85 f8 e4 ff ff 	mov    -0x1b08(%rbp),%rax
   1180c:	eb 57                	jmp    11865 <func_113+0x5b3c>
   1180e:	66 c7 85 2c e3 ff ff 	movw   $0x0,-0x1cd4(%rbp)
   11815:	00 00 
   11817:	90                   	nop
   11818:	0f b7 85 2c e3 ff ff 	movzwl -0x1cd4(%rbp),%eax
   1181f:	66 83 f8 0e          	cmp    $0xe,%ax
   11823:	7f 0c                	jg     11831 <func_113+0x5b08>
   11825:	48 8b 05 44 6b 00 00 	mov    0x6b44(%rip),%rax        # 18370 <g_167>
   1182c:	48 8b 00             	mov    (%rax),%rax
   1182f:	eb 34                	jmp    11865 <func_113+0x5b3c>
   11831:	0f b7 05 8a 5c 00 00 	movzwl 0x5c8a(%rip),%eax        # 174c2 <g_157>
   11838:	83 e8 01             	sub    $0x1,%eax
   1183b:	66 89 05 80 5c 00 00 	mov    %ax,0x5c80(%rip)        # 174c2 <g_157>
   11842:	0f b7 05 79 5c 00 00 	movzwl 0x5c79(%rip),%eax        # 174c2 <g_157>
   11849:	66 83 f8 ee          	cmp    $0xffee,%ax
   1184d:	0f 8c f6 e8 ff ff    	jl     10149 <func_113+0x4420>
   11853:	48 83 85 28 e4 ff ff 	addq   $0x1,-0x1bd8(%rbp)
   1185a:	01 
   1185b:	48 8b 05 0e 6b 00 00 	mov    0x6b0e(%rip),%rax        # 18370 <g_167>
   11862:	48 8b 00             	mov    (%rax),%rax
   11865:	48 8b 5d c8          	mov    -0x38(%rbp),%rbx
   11869:	64 48 33 1c 25 28 00 	xor    %fs:0x28,%rbx
   11870:	00 00 
   11872:	74 05                	je     11879 <func_113+0x5b50>
   11874:	e8 f7 27 ff ff       	callq  4070 <__stack_chk_fail@plt>
   11879:	48 81 c4 c8 1c 00 00 	add    $0x1cc8,%rsp
   11880:	5b                   	pop    %rbx
   11881:	41 5c                	pop    %r12
   11883:	41 5d                	pop    %r13
   11885:	41 5e                	pop    %r14
   11887:	41 5f                	pop    %r15
   11889:	5d                   	pop    %rbp
   1188a:	c3                   	retq   

000000000001188b <main>:
   1188b:	f3 0f 1e fa          	endbr64 
   1188f:	55                   	push   %rbp
   11890:	48 89 e5             	mov    %rsp,%rbp
   11893:	48 83 ec 20          	sub    $0x20,%rsp
   11897:	89 7d ec             	mov    %edi,-0x14(%rbp)
   1189a:	48 89 75 e0          	mov    %rsi,-0x20(%rbp)
   1189e:	c7 45 fc 00 00 00 00 	movl   $0x0,-0x4(%rbp)
   118a5:	83 7d ec 02          	cmpl   $0x2,-0x14(%rbp)
   118a9:	75 25                	jne    118d0 <main+0x45>
   118ab:	48 8b 45 e0          	mov    -0x20(%rbp),%rax
   118af:	48 83 c0 08          	add    $0x8,%rax
   118b3:	48 8b 00             	mov    (%rax),%rax
   118b6:	48 8d 35 7b 21 00 00 	lea    0x217b(%rip),%rsi        # 13a38 <g_1236+0x9d4>
   118bd:	48 89 c7             	mov    %rax,%rdi
   118c0:	e8 cb 27 ff ff       	callq  4090 <strcmp@plt>
   118c5:	85 c0                	test   %eax,%eax
   118c7:	75 07                	jne    118d0 <main+0x45>
   118c9:	c7 45 fc 01 00 00 00 	movl   $0x1,-0x4(%rbp)
   118d0:	e8 b4 28 ff ff       	callq  4189 <platform_main_begin>
   118d5:	e8 be 3c ff ff       	callq  5598 <crc32_gentab>
   118da:	e8 d6 3e ff ff       	callq  57b5 <func_1>
   118df:	48 8b 05 42 57 00 00 	mov    0x5742(%rip),%rax        # 17028 <g_6>
   118e6:	8b 55 fc             	mov    -0x4(%rbp),%edx
   118e9:	48 8d 35 4a 21 00 00 	lea    0x214a(%rip),%rsi        # 13a3a <g_1236+0x9d6>
   118f0:	48 89 c7             	mov    %rax,%rdi
   118f3:	e8 fb 3d ff ff       	callq  56f3 <transparent_crc>
   118f8:	c7 45 f0 00 00 00 00 	movl   $0x0,-0x10(%rbp)
   118ff:	eb 75                	jmp    11976 <main+0xeb>
   11901:	c7 45 f4 00 00 00 00 	movl   $0x0,-0xc(%rbp)
   11908:	eb 62                	jmp    1196c <main+0xe1>
   1190a:	8b 45 f4             	mov    -0xc(%rbp),%eax
   1190d:	48 63 c8             	movslq %eax,%rcx
   11910:	8b 45 f0             	mov    -0x10(%rbp),%eax
   11913:	48 63 d0             	movslq %eax,%rdx
   11916:	48 89 d0             	mov    %rdx,%rax
   11919:	48 c1 e0 02          	shl    $0x2,%rax
   1191d:	48 01 d0             	add    %rdx,%rax
   11920:	48 01 c8             	add    %rcx,%rax
   11923:	48 8d 14 85 00 00 00 	lea    0x0(,%rax,4),%rdx
   1192a:	00 
   1192b:	48 8d 05 0e 57 00 00 	lea    0x570e(%rip),%rax        # 17040 <g_41>
   11932:	8b 04 02             	mov    (%rdx,%rax,1),%eax
   11935:	48 98                	cltq   
   11937:	8b 55 fc             	mov    -0x4(%rbp),%edx
   1193a:	48 8d 35 fd 20 00 00 	lea    0x20fd(%rip),%rsi        # 13a3e <g_1236+0x9da>
   11941:	48 89 c7             	mov    %rax,%rdi
   11944:	e8 aa 3d ff ff       	callq  56f3 <transparent_crc>
   11949:	83 7d fc 00          	cmpl   $0x0,-0x4(%rbp)
   1194d:	74 19                	je     11968 <main+0xdd>
   1194f:	8b 55 f4             	mov    -0xc(%rbp),%edx
   11952:	8b 45 f0             	mov    -0x10(%rbp),%eax
   11955:	89 c6                	mov    %eax,%esi
   11957:	48 8d 3d eb 20 00 00 	lea    0x20eb(%rip),%rdi        # 13a49 <g_1236+0x9e5>
   1195e:	b8 00 00 00 00       	mov    $0x0,%eax
   11963:	e8 18 27 ff ff       	callq  4080 <printf@plt>
   11968:	83 45 f4 01          	addl   $0x1,-0xc(%rbp)
   1196c:	83 7d f4 04          	cmpl   $0x4,-0xc(%rbp)
   11970:	7e 98                	jle    1190a <main+0x7f>
   11972:	83 45 f0 01          	addl   $0x1,-0x10(%rbp)
   11976:	83 7d f0 05          	cmpl   $0x5,-0x10(%rbp)
   1197a:	7e 85                	jle    11901 <main+0x76>
   1197c:	c7 45 f0 00 00 00 00 	movl   $0x0,-0x10(%rbp)
   11983:	e9 a1 00 00 00       	jmpq   11a29 <main+0x19e>
   11988:	c7 45 f4 00 00 00 00 	movl   $0x0,-0xc(%rbp)
   1198f:	e9 87 00 00 00       	jmpq   11a1b <main+0x190>
   11994:	c7 45 f8 00 00 00 00 	movl   $0x0,-0x8(%rbp)
   1199b:	eb 74                	jmp    11a11 <main+0x186>
   1199d:	8b 45 f8             	mov    -0x8(%rbp),%eax
   119a0:	48 63 c8             	movslq %eax,%rcx
   119a3:	8b 45 f0             	mov    -0x10(%rbp),%eax
   119a6:	48 63 d0             	movslq %eax,%rdx
   119a9:	8b 45 f4             	mov    -0xc(%rbp),%eax
   119ac:	48 63 f0             	movslq %eax,%rsi
   119af:	48 89 d0             	mov    %rdx,%rax
   119b2:	48 01 c0             	add    %rax,%rax
   119b5:	48 01 d0             	add    %rdx,%rax
   119b8:	48 01 c0             	add    %rax,%rax
   119bb:	48 01 f0             	add    %rsi,%rax
   119be:	48 c1 e0 03          	shl    $0x3,%rax
   119c2:	48 01 c8             	add    %rcx,%rax
   119c5:	48 8d 14 85 00 00 00 	lea    0x0(,%rax,4),%rdx
   119cc:	00 
   119cd:	48 8d 05 ec 56 00 00 	lea    0x56ec(%rip),%rax        # 170c0 <g_42>
   119d4:	8b 04 02             	mov    (%rdx,%rax,1),%eax
   119d7:	48 98                	cltq   
   119d9:	8b 55 fc             	mov    -0x4(%rbp),%edx
   119dc:	48 8d 35 78 20 00 00 	lea    0x2078(%rip),%rsi        # 13a5b <g_1236+0x9f7>
   119e3:	48 89 c7             	mov    %rax,%rdi
   119e6:	e8 08 3d ff ff       	callq  56f3 <transparent_crc>
   119eb:	83 7d fc 00          	cmpl   $0x0,-0x4(%rbp)
   119ef:	74 1c                	je     11a0d <main+0x182>
   119f1:	8b 4d f8             	mov    -0x8(%rbp),%ecx
   119f4:	8b 55 f4             	mov    -0xc(%rbp),%edx
   119f7:	8b 45 f0             	mov    -0x10(%rbp),%eax
   119fa:	89 c6                	mov    %eax,%esi
   119fc:	48 8d 3d 66 20 00 00 	lea    0x2066(%rip),%rdi        # 13a69 <g_1236+0xa05>
   11a03:	b8 00 00 00 00       	mov    $0x0,%eax
   11a08:	e8 73 26 ff ff       	callq  4080 <printf@plt>
   11a0d:	83 45 f8 01          	addl   $0x1,-0x8(%rbp)
   11a11:	83 7d f8 07          	cmpl   $0x7,-0x8(%rbp)
   11a15:	7e 86                	jle    1199d <main+0x112>
   11a17:	83 45 f4 01          	addl   $0x1,-0xc(%rbp)
   11a1b:	83 7d f4 05          	cmpl   $0x5,-0xc(%rbp)
   11a1f:	0f 8e 6f ff ff ff    	jle    11994 <main+0x109>
   11a25:	83 45 f0 01          	addl   $0x1,-0x10(%rbp)
   11a29:	83 7d f0 04          	cmpl   $0x4,-0x10(%rbp)
   11a2d:	0f 8e 55 ff ff ff    	jle    11988 <main+0xfd>
   11a33:	c7 45 f0 00 00 00 00 	movl   $0x0,-0x10(%rbp)
   11a3a:	eb 4b                	jmp    11a87 <main+0x1fc>
   11a3c:	8b 45 f0             	mov    -0x10(%rbp),%eax
   11a3f:	48 98                	cltq   
   11a41:	48 8d 14 85 00 00 00 	lea    0x0(,%rax,4),%rdx
   11a48:	00 
   11a49:	48 8d 05 30 5a 00 00 	lea    0x5a30(%rip),%rax        # 17480 <g_43>
   11a50:	8b 04 02             	mov    (%rdx,%rax,1),%eax
   11a53:	48 98                	cltq   
   11a55:	8b 55 fc             	mov    -0x4(%rbp),%edx
   11a58:	48 8d 35 20 20 00 00 	lea    0x2020(%rip),%rsi        # 13a7f <g_1236+0xa1b>
   11a5f:	48 89 c7             	mov    %rax,%rdi
   11a62:	e8 8c 3c ff ff       	callq  56f3 <transparent_crc>
   11a67:	83 7d fc 00          	cmpl   $0x0,-0x4(%rbp)
   11a6b:	74 16                	je     11a83 <main+0x1f8>
   11a6d:	8b 45 f0             	mov    -0x10(%rbp),%eax
   11a70:	89 c6                	mov    %eax,%esi
   11a72:	48 8d 3d 0e 20 00 00 	lea    0x200e(%rip),%rdi        # 13a87 <g_1236+0xa23>
   11a79:	b8 00 00 00 00       	mov    $0x0,%eax
   11a7e:	e8 fd 25 ff ff       	callq  4080 <printf@plt>
   11a83:	83 45 f0 01          	addl   $0x1,-0x10(%rbp)
   11a87:	83 7d f0 01          	cmpl   $0x1,-0x10(%rbp)
   11a8b:	7e af                	jle    11a3c <main+0x1b1>
   11a8d:	8b 05 f5 59 00 00    	mov    0x59f5(%rip),%eax        # 17488 <g_44>
   11a93:	48 98                	cltq   
   11a95:	8b 55 fc             	mov    -0x4(%rbp),%edx
   11a98:	48 8d 35 f6 1f 00 00 	lea    0x1ff6(%rip),%rsi        # 13a95 <g_1236+0xa31>
   11a9f:	48 89 c7             	mov    %rax,%rdi
   11aa2:	e8 4c 3c ff ff       	callq  56f3 <transparent_crc>
   11aa7:	8b 05 df 59 00 00    	mov    0x59df(%rip),%eax        # 1748c <g_45>
   11aad:	48 98                	cltq   
   11aaf:	8b 55 fc             	mov    -0x4(%rbp),%edx
   11ab2:	48 8d 35 e1 1f 00 00 	lea    0x1fe1(%rip),%rsi        # 13a9a <g_1236+0xa36>
   11ab9:	48 89 c7             	mov    %rax,%rdi
   11abc:	e8 32 3c ff ff       	callq  56f3 <transparent_crc>
   11ac1:	c7 45 f0 00 00 00 00 	movl   $0x0,-0x10(%rbp)
   11ac8:	eb 4b                	jmp    11b15 <main+0x28a>
   11aca:	8b 45 f0             	mov    -0x10(%rbp),%eax
   11acd:	48 98                	cltq   
   11acf:	48 8d 14 85 00 00 00 	lea    0x0(,%rax,4),%rdx
   11ad6:	00 
   11ad7:	48 8d 05 b2 59 00 00 	lea    0x59b2(%rip),%rax        # 17490 <g_46>
   11ade:	8b 04 02             	mov    (%rdx,%rax,1),%eax
   11ae1:	48 98                	cltq   
   11ae3:	8b 55 fc             	mov    -0x4(%rbp),%edx
   11ae6:	48 8d 35 b2 1f 00 00 	lea    0x1fb2(%rip),%rsi        # 13a9f <g_1236+0xa3b>
   11aed:	48 89 c7             	mov    %rax,%rdi
   11af0:	e8 fe 3b ff ff       	callq  56f3 <transparent_crc>
   11af5:	83 7d fc 00          	cmpl   $0x0,-0x4(%rbp)
   11af9:	74 16                	je     11b11 <main+0x286>
   11afb:	8b 45 f0             	mov    -0x10(%rbp),%eax
   11afe:	89 c6                	mov    %eax,%esi
   11b00:	48 8d 3d 80 1f 00 00 	lea    0x1f80(%rip),%rdi        # 13a87 <g_1236+0xa23>
   11b07:	b8 00 00 00 00       	mov    $0x0,%eax
   11b0c:	e8 6f 25 ff ff       	callq  4080 <printf@plt>
   11b11:	83 45 f0 01          	addl   $0x1,-0x10(%rbp)
   11b15:	83 7d f0 02          	cmpl   $0x2,-0x10(%rbp)
   11b19:	7e af                	jle    11aca <main+0x23f>
   11b1b:	8b 05 7b 59 00 00    	mov    0x597b(%rip),%eax        # 1749c <g_61>
   11b21:	89 c1                	mov    %eax,%ecx
   11b23:	8b 45 fc             	mov    -0x4(%rbp),%eax
   11b26:	89 c2                	mov    %eax,%edx
   11b28:	48 8d 35 78 1f 00 00 	lea    0x1f78(%rip),%rsi        # 13aa7 <g_1236+0xa43>
   11b2f:	48 89 cf             	mov    %rcx,%rdi
   11b32:	e8 bc 3b ff ff       	callq  56f3 <transparent_crc>
   11b37:	48 8b 05 62 59 00 00 	mov    0x5962(%rip),%rax        # 174a0 <g_87>
   11b3e:	48 89 c1             	mov    %rax,%rcx
   11b41:	8b 45 fc             	mov    -0x4(%rbp),%eax
   11b44:	89 c2                	mov    %eax,%edx
   11b46:	48 8d 35 5f 1f 00 00 	lea    0x1f5f(%rip),%rsi        # 13aac <g_1236+0xa48>
   11b4d:	48 89 cf             	mov    %rcx,%rdi
   11b50:	e8 9e 3b ff ff       	callq  56f3 <transparent_crc>
   11b55:	c7 45 f0 00 00 00 00 	movl   $0x0,-0x10(%rbp)
   11b5c:	eb 46                	jmp    11ba4 <main+0x319>
   11b5e:	8b 45 f0             	mov    -0x10(%rbp),%eax
   11b61:	48 98                	cltq   
   11b63:	48 8d 15 3e 59 00 00 	lea    0x593e(%rip),%rdx        # 174a8 <g_107>
   11b6a:	0f b6 04 10          	movzbl (%rax,%rdx,1),%eax
   11b6e:	48 0f be c0          	movsbq %al,%rax
   11b72:	8b 55 fc             	mov    -0x4(%rbp),%edx
   11b75:	48 8d 35 35 1f 00 00 	lea    0x1f35(%rip),%rsi        # 13ab1 <g_1236+0xa4d>
   11b7c:	48 89 c7             	mov    %rax,%rdi
   11b7f:	e8 6f 3b ff ff       	callq  56f3 <transparent_crc>
   11b84:	83 7d fc 00          	cmpl   $0x0,-0x4(%rbp)
   11b88:	74 16                	je     11ba0 <main+0x315>
   11b8a:	8b 45 f0             	mov    -0x10(%rbp),%eax
   11b8d:	89 c6                	mov    %eax,%esi
   11b8f:	48 8d 3d f1 1e 00 00 	lea    0x1ef1(%rip),%rdi        # 13a87 <g_1236+0xa23>
   11b96:	b8 00 00 00 00       	mov    $0x0,%eax
   11b9b:	e8 e0 24 ff ff       	callq  4080 <printf@plt>
   11ba0:	83 45 f0 01          	addl   $0x1,-0x10(%rbp)
   11ba4:	83 7d f0 05          	cmpl   $0x5,-0x10(%rbp)
   11ba8:	7e b4                	jle    11b5e <main+0x2d3>
   11baa:	b8 85 ff ff ff       	mov    $0xffffff85,%eax
   11baf:	48 0f be c0          	movsbq %al,%rax
   11bb3:	8b 55 fc             	mov    -0x4(%rbp),%edx
   11bb6:	48 8d 35 fd 1e 00 00 	lea    0x1efd(%rip),%rsi        # 13aba <g_1236+0xa56>
   11bbd:	48 89 c7             	mov    %rax,%rdi
   11bc0:	e8 2e 3b ff ff       	callq  56f3 <transparent_crc>
   11bc5:	8b 05 e5 58 00 00    	mov    0x58e5(%rip),%eax        # 174b0 <g_132>
   11bcb:	48 98                	cltq   
   11bcd:	8b 55 fc             	mov    -0x4(%rbp),%edx
   11bd0:	48 8d 35 e9 1e 00 00 	lea    0x1ee9(%rip),%rsi        # 13ac0 <g_1236+0xa5c>
   11bd7:	48 89 c7             	mov    %rax,%rdi
   11bda:	e8 14 3b ff ff       	callq  56f3 <transparent_crc>
   11bdf:	8b 05 cf 58 00 00    	mov    0x58cf(%rip),%eax        # 174b4 <g_148>
   11be5:	48 98                	cltq   
   11be7:	8b 55 fc             	mov    -0x4(%rbp),%edx
   11bea:	48 8d 35 d5 1e 00 00 	lea    0x1ed5(%rip),%rsi        # 13ac6 <g_1236+0xa62>
   11bf1:	48 89 c7             	mov    %rax,%rdi
   11bf4:	e8 fa 3a ff ff       	callq  56f3 <transparent_crc>
   11bf9:	48 8b 05 b8 58 00 00 	mov    0x58b8(%rip),%rax        # 174b8 <g_152>
   11c00:	8b 55 fc             	mov    -0x4(%rbp),%edx
   11c03:	48 8d 35 c2 1e 00 00 	lea    0x1ec2(%rip),%rsi        # 13acc <g_1236+0xa68>
   11c0a:	48 89 c7             	mov    %rax,%rdi
   11c0d:	e8 e1 3a ff ff       	callq  56f3 <transparent_crc>
   11c12:	0f b7 05 a7 58 00 00 	movzwl 0x58a7(%rip),%eax        # 174c0 <g_155>
   11c19:	48 0f bf c0          	movswq %ax,%rax
   11c1d:	8b 55 fc             	mov    -0x4(%rbp),%edx
   11c20:	48 8d 35 ab 1e 00 00 	lea    0x1eab(%rip),%rsi        # 13ad2 <g_1236+0xa6e>
   11c27:	48 89 c7             	mov    %rax,%rdi
   11c2a:	e8 c4 3a ff ff       	callq  56f3 <transparent_crc>
   11c2f:	0f b7 05 8c 58 00 00 	movzwl 0x588c(%rip),%eax        # 174c2 <g_157>
   11c36:	48 0f bf c0          	movswq %ax,%rax
   11c3a:	8b 55 fc             	mov    -0x4(%rbp),%edx
   11c3d:	48 8d 35 94 1e 00 00 	lea    0x1e94(%rip),%rsi        # 13ad8 <g_1236+0xa74>
   11c44:	48 89 c7             	mov    %rax,%rdi
   11c47:	e8 a7 3a ff ff       	callq  56f3 <transparent_crc>
   11c4c:	0f b6 05 71 58 00 00 	movzbl 0x5871(%rip),%eax        # 174c4 <g_159>
   11c53:	0f b6 c0             	movzbl %al,%eax
   11c56:	8b 55 fc             	mov    -0x4(%rbp),%edx
   11c59:	48 8d 35 7e 1e 00 00 	lea    0x1e7e(%rip),%rsi        # 13ade <g_1236+0xa7a>
   11c60:	48 89 c7             	mov    %rax,%rdi
   11c63:	e8 8b 3a ff ff       	callq  56f3 <transparent_crc>
   11c68:	8b 05 5a 58 00 00    	mov    0x585a(%rip),%eax        # 174c8 <g_214>
   11c6e:	89 c1                	mov    %eax,%ecx
   11c70:	8b 45 fc             	mov    -0x4(%rbp),%eax
   11c73:	89 c2                	mov    %eax,%edx
   11c75:	48 8d 35 68 1e 00 00 	lea    0x1e68(%rip),%rsi        # 13ae4 <g_1236+0xa80>
   11c7c:	48 89 cf             	mov    %rcx,%rdi
   11c7f:	e8 6f 3a ff ff       	callq  56f3 <transparent_crc>
   11c84:	48 8b 05 45 58 00 00 	mov    0x5845(%rip),%rax        # 174d0 <g_215>
   11c8b:	8b 55 fc             	mov    -0x4(%rbp),%edx
   11c8e:	48 8d 35 55 1e 00 00 	lea    0x1e55(%rip),%rsi        # 13aea <g_1236+0xa86>
   11c95:	48 89 c7             	mov    %rax,%rdi
   11c98:	e8 56 3a ff ff       	callq  56f3 <transparent_crc>
   11c9d:	8b 05 2d 58 00 00    	mov    0x582d(%rip),%eax        # 174d0 <g_215>
   11ca3:	89 c1                	mov    %eax,%ecx
   11ca5:	8b 45 fc             	mov    -0x4(%rbp),%eax
   11ca8:	89 c2                	mov    %eax,%edx
   11caa:	48 8d 35 42 1e 00 00 	lea    0x1e42(%rip),%rsi        # 13af3 <g_1236+0xa8f>
   11cb1:	48 89 cf             	mov    %rcx,%rdi
   11cb4:	e8 3a 3a ff ff       	callq  56f3 <transparent_crc>
   11cb9:	8b 05 11 58 00 00    	mov    0x5811(%rip),%eax        # 174d0 <g_215>
   11cbf:	89 c1                	mov    %eax,%ecx
   11cc1:	8b 45 fc             	mov    -0x4(%rbp),%eax
   11cc4:	89 c2                	mov    %eax,%edx
   11cc6:	48 8d 35 2f 1e 00 00 	lea    0x1e2f(%rip),%rsi        # 13afc <g_1236+0xa98>
   11ccd:	48 89 cf             	mov    %rcx,%rdi
   11cd0:	e8 1e 3a ff ff       	callq  56f3 <transparent_crc>
   11cd5:	8b 05 fd 57 00 00    	mov    0x57fd(%rip),%eax        # 174d8 <g_216>
   11cdb:	89 c1                	mov    %eax,%ecx
   11cdd:	8b 45 fc             	mov    -0x4(%rbp),%eax
   11ce0:	89 c2                	mov    %eax,%edx
   11ce2:	48 8d 35 1c 1e 00 00 	lea    0x1e1c(%rip),%rsi        # 13b05 <g_1236+0xaa1>
   11ce9:	48 89 cf             	mov    %rcx,%rdi
   11cec:	e8 02 3a ff ff       	callq  56f3 <transparent_crc>
   11cf1:	c7 45 f0 00 00 00 00 	movl   $0x0,-0x10(%rbp)
   11cf8:	eb 45                	jmp    11d3f <main+0x4b4>
   11cfa:	8b 45 f0             	mov    -0x10(%rbp),%eax
   11cfd:	48 98                	cltq   
   11cff:	48 8d 15 d6 57 00 00 	lea    0x57d6(%rip),%rdx        # 174dc <g_247>
   11d06:	0f b6 04 10          	movzbl (%rax,%rdx,1),%eax
   11d0a:	0f b6 c0             	movzbl %al,%eax
   11d0d:	8b 55 fc             	mov    -0x4(%rbp),%edx
   11d10:	48 8d 35 f4 1d 00 00 	lea    0x1df4(%rip),%rsi        # 13b0b <g_1236+0xaa7>
   11d17:	48 89 c7             	mov    %rax,%rdi
   11d1a:	e8 d4 39 ff ff       	callq  56f3 <transparent_crc>
   11d1f:	83 7d fc 00          	cmpl   $0x0,-0x4(%rbp)
   11d23:	74 16                	je     11d3b <main+0x4b0>
   11d25:	8b 45 f0             	mov    -0x10(%rbp),%eax
   11d28:	89 c6                	mov    %eax,%esi
   11d2a:	48 8d 3d 56 1d 00 00 	lea    0x1d56(%rip),%rdi        # 13a87 <g_1236+0xa23>
   11d31:	b8 00 00 00 00       	mov    $0x0,%eax
   11d36:	e8 45 23 ff ff       	callq  4080 <printf@plt>
   11d3b:	83 45 f0 01          	addl   $0x1,-0x10(%rbp)
   11d3f:	83 7d f0 04          	cmpl   $0x4,-0x10(%rbp)
   11d43:	7e b5                	jle    11cfa <main+0x46f>
   11d45:	0f b7 05 96 57 00 00 	movzwl 0x5796(%rip),%eax        # 174e2 <g_261>
   11d4c:	0f b7 c0             	movzwl %ax,%eax
   11d4f:	8b 55 fc             	mov    -0x4(%rbp),%edx
   11d52:	48 8d 35 bb 1d 00 00 	lea    0x1dbb(%rip),%rsi        # 13b14 <g_1236+0xab0>
   11d59:	48 89 c7             	mov    %rax,%rdi
   11d5c:	e8 92 39 ff ff       	callq  56f3 <transparent_crc>
   11d61:	b9 01 00 00 00       	mov    $0x1,%ecx
   11d66:	8b 45 fc             	mov    -0x4(%rbp),%eax
   11d69:	89 c2                	mov    %eax,%edx
   11d6b:	48 8d 35 a8 1d 00 00 	lea    0x1da8(%rip),%rsi        # 13b1a <g_1236+0xab6>
   11d72:	48 89 cf             	mov    %rcx,%rdi
   11d75:	e8 79 39 ff ff       	callq  56f3 <transparent_crc>
   11d7a:	b8 01 00 00 00       	mov    $0x1,%eax
   11d7f:	89 c1                	mov    %eax,%ecx
   11d81:	8b 45 fc             	mov    -0x4(%rbp),%eax
   11d84:	89 c2                	mov    %eax,%edx
   11d86:	48 8d 35 96 1d 00 00 	lea    0x1d96(%rip),%rsi        # 13b23 <g_1236+0xabf>
   11d8d:	48 89 cf             	mov    %rcx,%rdi
   11d90:	e8 5e 39 ff ff       	callq  56f3 <transparent_crc>
   11d95:	8b 05 bd 12 00 00    	mov    0x12bd(%rip),%eax        # 13058 <g_327>
   11d9b:	89 c1                	mov    %eax,%ecx
   11d9d:	8b 45 fc             	mov    -0x4(%rbp),%eax
   11da0:	89 c2                	mov    %eax,%edx
   11da2:	48 8d 35 83 1d 00 00 	lea    0x1d83(%rip),%rsi        # 13b2c <g_1236+0xac8>
   11da9:	48 89 cf             	mov    %rcx,%rdi
   11dac:	e8 42 39 ff ff       	callq  56f3 <transparent_crc>
   11db1:	c7 45 f0 00 00 00 00 	movl   $0x0,-0x10(%rbp)
   11db8:	eb 6a                	jmp    11e24 <main+0x599>
   11dba:	c7 45 f4 00 00 00 00 	movl   $0x0,-0xc(%rbp)
   11dc1:	eb 57                	jmp    11e1a <main+0x58f>
   11dc3:	8b 45 f4             	mov    -0xc(%rbp),%eax
   11dc6:	48 63 d0             	movslq %eax,%rdx
   11dc9:	8b 45 f0             	mov    -0x10(%rbp),%eax
   11dcc:	48 98                	cltq   
   11dce:	48 01 d0             	add    %rdx,%rax
   11dd1:	48 8d 14 85 00 00 00 	lea    0x0(,%rax,4),%rdx
   11dd8:	00 
   11dd9:	48 8d 05 20 57 00 00 	lea    0x5720(%rip),%rax        # 17500 <g_414>
   11de0:	8b 04 02             	mov    (%rdx,%rax,1),%eax
   11de3:	48 98                	cltq   
   11de5:	8b 55 fc             	mov    -0x4(%rbp),%edx
   11de8:	48 8d 35 46 1d 00 00 	lea    0x1d46(%rip),%rsi        # 13b35 <g_1236+0xad1>
   11def:	48 89 c7             	mov    %rax,%rdi
   11df2:	e8 fc 38 ff ff       	callq  56f3 <transparent_crc>
   11df7:	83 7d fc 00          	cmpl   $0x0,-0x4(%rbp)
   11dfb:	74 19                	je     11e16 <main+0x58b>
   11dfd:	8b 55 f4             	mov    -0xc(%rbp),%edx
   11e00:	8b 45 f0             	mov    -0x10(%rbp),%eax
   11e03:	89 c6                	mov    %eax,%esi
   11e05:	48 8d 3d 3d 1c 00 00 	lea    0x1c3d(%rip),%rdi        # 13a49 <g_1236+0x9e5>
   11e0c:	b8 00 00 00 00       	mov    $0x0,%eax
   11e11:	e8 6a 22 ff ff       	callq  4080 <printf@plt>
   11e16:	83 45 f4 01          	addl   $0x1,-0xc(%rbp)
   11e1a:	83 7d f4 00          	cmpl   $0x0,-0xc(%rbp)
   11e1e:	7e a3                	jle    11dc3 <main+0x538>
   11e20:	83 45 f0 01          	addl   $0x1,-0x10(%rbp)
   11e24:	83 7d f0 08          	cmpl   $0x8,-0x10(%rbp)
   11e28:	7e 90                	jle    11dba <main+0x52f>
   11e2a:	c7 45 f0 00 00 00 00 	movl   $0x0,-0x10(%rbp)
   11e31:	eb 4d                	jmp    11e80 <main+0x5f5>
   11e33:	8b 45 f0             	mov    -0x10(%rbp),%eax
   11e36:	48 98                	cltq   
   11e38:	48 8d 14 85 00 00 00 	lea    0x0(,%rax,4),%rdx
   11e3f:	00 
   11e40:	48 8d 05 e9 56 00 00 	lea    0x56e9(%rip),%rax        # 17530 <g_426>
   11e47:	8b 04 02             	mov    (%rdx,%rax,1),%eax
   11e4a:	89 c1                	mov    %eax,%ecx
   11e4c:	8b 45 fc             	mov    -0x4(%rbp),%eax
   11e4f:	89 c2                	mov    %eax,%edx
   11e51:	48 8d 35 e9 1c 00 00 	lea    0x1ce9(%rip),%rsi        # 13b41 <g_1236+0xadd>
   11e58:	48 89 cf             	mov    %rcx,%rdi
   11e5b:	e8 93 38 ff ff       	callq  56f3 <transparent_crc>
   11e60:	83 7d fc 00          	cmpl   $0x0,-0x4(%rbp)
   11e64:	74 16                	je     11e7c <main+0x5f1>
   11e66:	8b 45 f0             	mov    -0x10(%rbp),%eax
   11e69:	89 c6                	mov    %eax,%esi
   11e6b:	48 8d 3d 15 1c 00 00 	lea    0x1c15(%rip),%rdi        # 13a87 <g_1236+0xa23>
   11e72:	b8 00 00 00 00       	mov    $0x0,%eax
   11e77:	e8 04 22 ff ff       	callq  4080 <printf@plt>
   11e7c:	83 45 f0 01          	addl   $0x1,-0x10(%rbp)
   11e80:	83 7d f0 06          	cmpl   $0x6,-0x10(%rbp)
   11e84:	7e ad                	jle    11e33 <main+0x5a8>
   11e86:	b8 ff ff ff ff       	mov    $0xffffffff,%eax
   11e8b:	48 0f bf c0          	movswq %ax,%rax
   11e8f:	8b 55 fc             	mov    -0x4(%rbp),%edx
   11e92:	48 8d 35 b1 1c 00 00 	lea    0x1cb1(%rip),%rsi        # 13b4a <g_1236+0xae6>
   11e99:	48 89 c7             	mov    %rax,%rdi
   11e9c:	e8 52 38 ff ff       	callq  56f3 <transparent_crc>
   11ea1:	48 8b 05 a8 56 00 00 	mov    0x56a8(%rip),%rax        # 17550 <g_476>
   11ea8:	8b 55 fc             	mov    -0x4(%rbp),%edx
   11eab:	48 8d 35 9e 1c 00 00 	lea    0x1c9e(%rip),%rsi        # 13b50 <g_1236+0xaec>
   11eb2:	48 89 c7             	mov    %rax,%rdi
   11eb5:	e8 39 38 ff ff       	callq  56f3 <transparent_crc>
   11eba:	8b 05 90 56 00 00    	mov    0x5690(%rip),%eax        # 17550 <g_476>
   11ec0:	89 c1                	mov    %eax,%ecx
   11ec2:	8b 45 fc             	mov    -0x4(%rbp),%eax
   11ec5:	89 c2                	mov    %eax,%edx
   11ec7:	48 8d 35 8b 1c 00 00 	lea    0x1c8b(%rip),%rsi        # 13b59 <g_1236+0xaf5>
   11ece:	48 89 cf             	mov    %rcx,%rdi
   11ed1:	e8 1d 38 ff ff       	callq  56f3 <transparent_crc>
   11ed6:	8b 05 74 56 00 00    	mov    0x5674(%rip),%eax        # 17550 <g_476>
   11edc:	89 c1                	mov    %eax,%ecx
   11ede:	8b 45 fc             	mov    -0x4(%rbp),%eax
   11ee1:	89 c2                	mov    %eax,%edx
   11ee3:	48 8d 35 78 1c 00 00 	lea    0x1c78(%rip),%rsi        # 13b62 <g_1236+0xafe>
   11eea:	48 89 cf             	mov    %rcx,%rdi
   11eed:	e8 01 38 ff ff       	callq  56f3 <transparent_crc>
   11ef2:	0f b6 05 5f 56 00 00 	movzbl 0x565f(%rip),%eax        # 17558 <g_485>
   11ef9:	48 0f be c0          	movsbq %al,%rax
   11efd:	8b 55 fc             	mov    -0x4(%rbp),%edx
   11f00:	48 8d 35 64 1c 00 00 	lea    0x1c64(%rip),%rsi        # 13b6b <g_1236+0xb07>
   11f07:	48 89 c7             	mov    %rax,%rdi
   11f0a:	e8 e4 37 ff ff       	callq  56f3 <transparent_crc>
   11f0f:	0f b6 05 43 56 00 00 	movzbl 0x5643(%rip),%eax        # 17559 <g_495>
   11f16:	0f b6 c0             	movzbl %al,%eax
   11f19:	8b 55 fc             	mov    -0x4(%rbp),%edx
   11f1c:	48 8d 35 4e 1c 00 00 	lea    0x1c4e(%rip),%rsi        # 13b71 <g_1236+0xb0d>
   11f23:	48 89 c7             	mov    %rax,%rdi
   11f26:	e8 c8 37 ff ff       	callq  56f3 <transparent_crc>
   11f2b:	0f b6 05 28 56 00 00 	movzbl 0x5628(%rip),%eax        # 1755a <g_503>
   11f32:	48 0f be c0          	movsbq %al,%rax
   11f36:	8b 55 fc             	mov    -0x4(%rbp),%edx
   11f39:	48 8d 35 37 1c 00 00 	lea    0x1c37(%rip),%rsi        # 13b77 <g_1236+0xb13>
   11f40:	48 89 c7             	mov    %rax,%rdi
   11f43:	e8 ab 37 ff ff       	callq  56f3 <transparent_crc>
   11f48:	0f b7 05 01 74 00 00 	movzwl 0x7401(%rip),%eax        # 19350 <g_507>
   11f4f:	0f b7 c0             	movzwl %ax,%eax
   11f52:	8b 55 fc             	mov    -0x4(%rbp),%edx
   11f55:	48 8d 35 21 1c 00 00 	lea    0x1c21(%rip),%rsi        # 13b7d <g_1236+0xb19>
   11f5c:	48 89 c7             	mov    %rax,%rdi
   11f5f:	e8 8f 37 ff ff       	callq  56f3 <transparent_crc>
   11f64:	8b 05 f2 55 00 00    	mov    0x55f2(%rip),%eax        # 1755c <g_525>
   11f6a:	89 c1                	mov    %eax,%ecx
   11f6c:	8b 45 fc             	mov    -0x4(%rbp),%eax
   11f6f:	89 c2                	mov    %eax,%edx
   11f71:	48 8d 35 0b 1c 00 00 	lea    0x1c0b(%rip),%rsi        # 13b83 <g_1236+0xb1f>
   11f78:	48 89 cf             	mov    %rcx,%rdi
   11f7b:	e8 73 37 ff ff       	callq  56f3 <transparent_crc>
   11f80:	c7 45 f0 00 00 00 00 	movl   $0x0,-0x10(%rbp)
   11f87:	eb 4f                	jmp    11fd8 <main+0x74d>
   11f89:	8b 45 f0             	mov    -0x10(%rbp),%eax
   11f8c:	48 98                	cltq   
   11f8e:	48 8d 14 c5 00 00 00 	lea    0x0(,%rax,8),%rdx
   11f95:	00 
   11f96:	48 8d 05 c3 55 00 00 	lea    0x55c3(%rip),%rax        # 17560 <g_532>
   11f9d:	48 8b 04 02          	mov    (%rdx,%rax,1),%rax
   11fa1:	48 89 c1             	mov    %rax,%rcx
   11fa4:	8b 45 fc             	mov    -0x4(%rbp),%eax
   11fa7:	89 c2                	mov    %eax,%edx
   11fa9:	48 8d 35 d9 1b 00 00 	lea    0x1bd9(%rip),%rsi        # 13b89 <g_1236+0xb25>
   11fb0:	48 89 cf             	mov    %rcx,%rdi
   11fb3:	e8 3b 37 ff ff       	callq  56f3 <transparent_crc>
   11fb8:	83 7d fc 00          	cmpl   $0x0,-0x4(%rbp)
   11fbc:	74 16                	je     11fd4 <main+0x749>
   11fbe:	8b 45 f0             	mov    -0x10(%rbp),%eax
   11fc1:	89 c6                	mov    %eax,%esi
   11fc3:	48 8d 3d bd 1a 00 00 	lea    0x1abd(%rip),%rdi        # 13a87 <g_1236+0xa23>
   11fca:	b8 00 00 00 00       	mov    $0x0,%eax
   11fcf:	e8 ac 20 ff ff       	callq  4080 <printf@plt>
   11fd4:	83 45 f0 01          	addl   $0x1,-0x10(%rbp)
   11fd8:	83 7d f0 08          	cmpl   $0x8,-0x10(%rbp)
   11fdc:	7e ab                	jle    11f89 <main+0x6fe>
   11fde:	8b 05 c4 55 00 00    	mov    0x55c4(%rip),%eax        # 175a8 <g_547>
   11fe4:	89 c1                	mov    %eax,%ecx
   11fe6:	8b 45 fc             	mov    -0x4(%rbp),%eax
   11fe9:	89 c2                	mov    %eax,%edx
   11feb:	48 8d 35 a0 1b 00 00 	lea    0x1ba0(%rip),%rsi        # 13b92 <g_1236+0xb2e>
   11ff2:	48 89 cf             	mov    %rcx,%rdi
   11ff5:	e8 f9 36 ff ff       	callq  56f3 <transparent_crc>
   11ffa:	c7 45 f0 00 00 00 00 	movl   $0x0,-0x10(%rbp)
   12001:	e9 fd 00 00 00       	jmpq   12103 <main+0x878>
   12006:	c7 45 f4 00 00 00 00 	movl   $0x0,-0xc(%rbp)
   1200d:	e9 e3 00 00 00       	jmpq   120f5 <main+0x86a>
   12012:	8b 45 f4             	mov    -0xc(%rbp),%eax
   12015:	48 63 c8             	movslq %eax,%rcx
   12018:	8b 45 f0             	mov    -0x10(%rbp),%eax
   1201b:	48 63 d0             	movslq %eax,%rdx
   1201e:	48 89 d0             	mov    %rdx,%rax
   12021:	48 c1 e0 03          	shl    $0x3,%rax
   12025:	48 01 d0             	add    %rdx,%rax
   12028:	48 01 c8             	add    %rcx,%rax
   1202b:	48 8d 14 c5 00 00 00 	lea    0x0(,%rax,8),%rdx
   12032:	00 
   12033:	48 8d 05 86 55 00 00 	lea    0x5586(%rip),%rax        # 175c0 <g_671>
   1203a:	48 8b 04 02          	mov    (%rdx,%rax,1),%rax
   1203e:	8b 55 fc             	mov    -0x4(%rbp),%edx
   12041:	48 8d 35 50 1b 00 00 	lea    0x1b50(%rip),%rsi        # 13b98 <g_1236+0xb34>
   12048:	48 89 c7             	mov    %rax,%rdi
   1204b:	e8 a3 36 ff ff       	callq  56f3 <transparent_crc>
   12050:	8b 45 f4             	mov    -0xc(%rbp),%eax
   12053:	48 63 c8             	movslq %eax,%rcx
   12056:	8b 45 f0             	mov    -0x10(%rbp),%eax
   12059:	48 63 d0             	movslq %eax,%rdx
   1205c:	48 89 d0             	mov    %rdx,%rax
   1205f:	48 c1 e0 03          	shl    $0x3,%rax
   12063:	48 01 d0             	add    %rdx,%rax
   12066:	48 01 c8             	add    %rcx,%rax
   12069:	48 8d 14 c5 00 00 00 	lea    0x0(,%rax,8),%rdx
   12070:	00 
   12071:	48 8d 05 48 55 00 00 	lea    0x5548(%rip),%rax        # 175c0 <g_671>
   12078:	8b 04 02             	mov    (%rdx,%rax,1),%eax
   1207b:	89 c1                	mov    %eax,%ecx
   1207d:	8b 45 fc             	mov    -0x4(%rbp),%eax
   12080:	89 c2                	mov    %eax,%edx
   12082:	48 8d 35 1e 1b 00 00 	lea    0x1b1e(%rip),%rsi        # 13ba7 <g_1236+0xb43>
   12089:	48 89 cf             	mov    %rcx,%rdi
   1208c:	e8 62 36 ff ff       	callq  56f3 <transparent_crc>
   12091:	8b 45 f4             	mov    -0xc(%rbp),%eax
   12094:	48 63 c8             	movslq %eax,%rcx
   12097:	8b 45 f0             	mov    -0x10(%rbp),%eax
   1209a:	48 63 d0             	movslq %eax,%rdx
   1209d:	48 89 d0             	mov    %rdx,%rax
   120a0:	48 c1 e0 03          	shl    $0x3,%rax
   120a4:	48 01 d0             	add    %rdx,%rax
   120a7:	48 01 c8             	add    %rcx,%rax
   120aa:	48 8d 14 c5 00 00 00 	lea    0x0(,%rax,8),%rdx
   120b1:	00 
   120b2:	48 8d 05 07 55 00 00 	lea    0x5507(%rip),%rax        # 175c0 <g_671>
   120b9:	8b 04 02             	mov    (%rdx,%rax,1),%eax
   120bc:	89 c1                	mov    %eax,%ecx
   120be:	8b 45 fc             	mov    -0x4(%rbp),%eax
   120c1:	89 c2                	mov    %eax,%edx
   120c3:	48 8d 35 ec 1a 00 00 	lea    0x1aec(%rip),%rsi        # 13bb6 <g_1236+0xb52>
   120ca:	48 89 cf             	mov    %rcx,%rdi
   120cd:	e8 21 36 ff ff       	callq  56f3 <transparent_crc>
   120d2:	83 7d fc 00          	cmpl   $0x0,-0x4(%rbp)
   120d6:	74 19                	je     120f1 <main+0x866>
   120d8:	8b 55 f4             	mov    -0xc(%rbp),%edx
   120db:	8b 45 f0             	mov    -0x10(%rbp),%eax
   120de:	89 c6                	mov    %eax,%esi
   120e0:	48 8d 3d 62 19 00 00 	lea    0x1962(%rip),%rdi        # 13a49 <g_1236+0x9e5>
   120e7:	b8 00 00 00 00       	mov    $0x0,%eax
   120ec:	e8 8f 1f ff ff       	callq  4080 <printf@plt>
   120f1:	83 45 f4 01          	addl   $0x1,-0xc(%rbp)
   120f5:	83 7d f4 08          	cmpl   $0x8,-0xc(%rbp)
   120f9:	0f 8e 13 ff ff ff    	jle    12012 <main+0x787>
   120ff:	83 45 f0 01          	addl   $0x1,-0x10(%rbp)
   12103:	83 7d f0 04          	cmpl   $0x4,-0x10(%rbp)
   12107:	0f 8e f9 fe ff ff    	jle    12006 <main+0x77b>
   1210d:	0f b6 05 14 56 00 00 	movzbl 0x5614(%rip),%eax        # 17728 <g_675>
   12114:	48 0f be c0          	movsbq %al,%rax
   12118:	8b 55 fc             	mov    -0x4(%rbp),%edx
   1211b:	48 8d 35 a3 1a 00 00 	lea    0x1aa3(%rip),%rsi        # 13bc5 <g_1236+0xb61>
   12122:	48 89 c7             	mov    %rax,%rdi
   12125:	e8 c9 35 ff ff       	callq  56f3 <transparent_crc>
   1212a:	c7 45 f0 00 00 00 00 	movl   $0x0,-0x10(%rbp)
   12131:	eb 7b                	jmp    121ae <main+0x923>
   12133:	c7 45 f4 00 00 00 00 	movl   $0x0,-0xc(%rbp)
   1213a:	eb 68                	jmp    121a4 <main+0x919>
   1213c:	8b 45 f4             	mov    -0xc(%rbp),%eax
   1213f:	48 63 c8             	movslq %eax,%rcx
   12142:	8b 45 f0             	mov    -0x10(%rbp),%eax
   12145:	48 63 d0             	movslq %eax,%rdx
   12148:	48 89 d0             	mov    %rdx,%rax
   1214b:	48 01 c0             	add    %rax,%rax
   1214e:	48 01 d0             	add    %rdx,%rax
   12151:	48 01 c0             	add    %rax,%rax
   12154:	48 01 c8             	add    %rcx,%rax
   12157:	48 8d 14 c5 00 00 00 	lea    0x0(,%rax,8),%rdx
   1215e:	00 
   1215f:	48 8d 05 da 55 00 00 	lea    0x55da(%rip),%rax        # 17740 <g_705>
   12166:	48 8b 04 02          	mov    (%rdx,%rax,1),%rax
   1216a:	48 89 c1             	mov    %rax,%rcx
   1216d:	8b 45 fc             	mov    -0x4(%rbp),%eax
   12170:	89 c2                	mov    %eax,%edx
   12172:	48 8d 35 52 1a 00 00 	lea    0x1a52(%rip),%rsi        # 13bcb <g_1236+0xb67>
   12179:	48 89 cf             	mov    %rcx,%rdi
   1217c:	e8 72 35 ff ff       	callq  56f3 <transparent_crc>
   12181:	83 7d fc 00          	cmpl   $0x0,-0x4(%rbp)
   12185:	74 19                	je     121a0 <main+0x915>
   12187:	8b 55 f4             	mov    -0xc(%rbp),%edx
   1218a:	8b 45 f0             	mov    -0x10(%rbp),%eax
   1218d:	89 c6                	mov    %eax,%esi
   1218f:	48 8d 3d b3 18 00 00 	lea    0x18b3(%rip),%rdi        # 13a49 <g_1236+0x9e5>
   12196:	b8 00 00 00 00       	mov    $0x0,%eax
   1219b:	e8 e0 1e ff ff       	callq  4080 <printf@plt>
   121a0:	83 45 f4 01          	addl   $0x1,-0xc(%rbp)
   121a4:	83 7d f4 05          	cmpl   $0x5,-0xc(%rbp)
   121a8:	7e 92                	jle    1213c <main+0x8b1>
   121aa:	83 45 f0 01          	addl   $0x1,-0x10(%rbp)
   121ae:	83 7d f0 05          	cmpl   $0x5,-0x10(%rbp)
   121b2:	0f 8e 7b ff ff ff    	jle    12133 <main+0x8a8>
   121b8:	48 8b 05 a1 56 00 00 	mov    0x56a1(%rip),%rax        # 17860 <g_722>
   121bf:	8b 55 fc             	mov    -0x4(%rbp),%edx
   121c2:	48 8d 35 0e 1a 00 00 	lea    0x1a0e(%rip),%rsi        # 13bd7 <g_1236+0xb73>
   121c9:	48 89 c7             	mov    %rax,%rdi
   121cc:	e8 22 35 ff ff       	callq  56f3 <transparent_crc>
   121d1:	8b 05 89 56 00 00    	mov    0x5689(%rip),%eax        # 17860 <g_722>
   121d7:	89 c1                	mov    %eax,%ecx
   121d9:	8b 45 fc             	mov    -0x4(%rbp),%eax
   121dc:	89 c2                	mov    %eax,%edx
   121de:	48 8d 35 fb 19 00 00 	lea    0x19fb(%rip),%rsi        # 13be0 <g_1236+0xb7c>
   121e5:	48 89 cf             	mov    %rcx,%rdi
   121e8:	e8 06 35 ff ff       	callq  56f3 <transparent_crc>
   121ed:	8b 05 6d 56 00 00    	mov    0x566d(%rip),%eax        # 17860 <g_722>
   121f3:	89 c1                	mov    %eax,%ecx
   121f5:	8b 45 fc             	mov    -0x4(%rbp),%eax
   121f8:	89 c2                	mov    %eax,%edx
   121fa:	48 8d 35 e8 19 00 00 	lea    0x19e8(%rip),%rsi        # 13be9 <g_1236+0xb85>
   12201:	48 89 cf             	mov    %rcx,%rdi
   12204:	e8 ea 34 ff ff       	callq  56f3 <transparent_crc>
   12209:	0f b7 05 60 56 00 00 	movzwl 0x5660(%rip),%eax        # 17870 <g_832>
   12210:	48 0f bf c0          	movswq %ax,%rax
   12214:	8b 55 fc             	mov    -0x4(%rbp),%edx
   12217:	48 8d 35 d4 19 00 00 	lea    0x19d4(%rip),%rsi        # 13bf2 <g_1236+0xb8e>
   1221e:	48 89 c7             	mov    %rax,%rdi
   12221:	e8 cd 34 ff ff       	callq  56f3 <transparent_crc>
   12226:	0f b7 05 45 56 00 00 	movzwl 0x5645(%rip),%eax        # 17872 <g_851>
   1222d:	48 0f bf c0          	movswq %ax,%rax
   12231:	8b 55 fc             	mov    -0x4(%rbp),%edx
   12234:	48 8d 35 bd 19 00 00 	lea    0x19bd(%rip),%rsi        # 13bf8 <g_1236+0xb94>
   1223b:	48 89 c7             	mov    %rax,%rdi
   1223e:	e8 b0 34 ff ff       	callq  56f3 <transparent_crc>
   12243:	c7 45 f0 00 00 00 00 	movl   $0x0,-0x10(%rbp)
   1224a:	e9 a1 00 00 00       	jmpq   122f0 <main+0xa65>
   1224f:	c7 45 f4 00 00 00 00 	movl   $0x0,-0xc(%rbp)
   12256:	e9 87 00 00 00       	jmpq   122e2 <main+0xa57>
   1225b:	c7 45 f8 00 00 00 00 	movl   $0x0,-0x8(%rbp)
   12262:	eb 74                	jmp    122d8 <main+0xa4d>
   12264:	8b 45 f8             	mov    -0x8(%rbp),%eax
   12267:	48 63 f0             	movslq %eax,%rsi
   1226a:	8b 45 f4             	mov    -0xc(%rbp),%eax
   1226d:	48 63 c8             	movslq %eax,%rcx
   12270:	8b 45 f0             	mov    -0x10(%rbp),%eax
   12273:	48 63 d0             	movslq %eax,%rdx
   12276:	48 89 d0             	mov    %rdx,%rax
   12279:	48 01 c0             	add    %rax,%rax
   1227c:	48 01 d0             	add    %rdx,%rax
   1227f:	48 01 c0             	add    %rax,%rax
   12282:	48 01 f0             	add    %rsi,%rax
   12285:	48 01 c8             	add    %rcx,%rax
   12288:	48 8d 14 c5 00 00 00 	lea    0x0(,%rax,8),%rdx
   1228f:	00 
   12290:	48 8d 05 e9 55 00 00 	lea    0x55e9(%rip),%rax        # 17880 <g_864>
   12297:	48 8b 04 02          	mov    (%rdx,%rax,1),%rax
   1229b:	48 89 c1             	mov    %rax,%rcx
   1229e:	8b 45 fc             	mov    -0x4(%rbp),%eax
   122a1:	89 c2                	mov    %eax,%edx
   122a3:	48 8d 35 54 19 00 00 	lea    0x1954(%rip),%rsi        # 13bfe <g_1236+0xb9a>
   122aa:	48 89 cf             	mov    %rcx,%rdi
   122ad:	e8 41 34 ff ff       	callq  56f3 <transparent_crc>
   122b2:	83 7d fc 00          	cmpl   $0x0,-0x4(%rbp)
   122b6:	74 1c                	je     122d4 <main+0xa49>
   122b8:	8b 4d f8             	mov    -0x8(%rbp),%ecx
   122bb:	8b 55 f4             	mov    -0xc(%rbp),%edx
   122be:	8b 45 f0             	mov    -0x10(%rbp),%eax
   122c1:	89 c6                	mov    %eax,%esi
   122c3:	48 8d 3d 9f 17 00 00 	lea    0x179f(%rip),%rdi        # 13a69 <g_1236+0xa05>
   122ca:	b8 00 00 00 00       	mov    $0x0,%eax
   122cf:	e8 ac 1d ff ff       	callq  4080 <printf@plt>
   122d4:	83 45 f8 01          	addl   $0x1,-0x8(%rbp)
   122d8:	83 7d f8 00          	cmpl   $0x0,-0x8(%rbp)
   122dc:	7e 86                	jle    12264 <main+0x9d9>
   122de:	83 45 f4 01          	addl   $0x1,-0xc(%rbp)
   122e2:	83 7d f4 05          	cmpl   $0x5,-0xc(%rbp)
   122e6:	0f 8e 6f ff ff ff    	jle    1225b <main+0x9d0>
   122ec:	83 45 f0 01          	addl   $0x1,-0x10(%rbp)
   122f0:	83 7d f0 04          	cmpl   $0x4,-0x10(%rbp)
   122f4:	0f 8e 55 ff ff ff    	jle    1224f <main+0x9c4>
   122fa:	8b 05 70 56 00 00    	mov    0x5670(%rip),%eax        # 17970 <g_894>
   12300:	89 c1                	mov    %eax,%ecx
   12302:	8b 45 fc             	mov    -0x4(%rbp),%eax
   12305:	89 c2                	mov    %eax,%edx
   12307:	48 8d 35 ff 18 00 00 	lea    0x18ff(%rip),%rsi        # 13c0d <g_1236+0xba9>
   1230e:	48 89 cf             	mov    %rcx,%rdi
   12311:	e8 dd 33 ff ff       	callq  56f3 <transparent_crc>
   12316:	8b 05 54 56 00 00    	mov    0x5654(%rip),%eax        # 17970 <g_894>
   1231c:	89 c1                	mov    %eax,%ecx
   1231e:	8b 45 fc             	mov    -0x4(%rbp),%eax
   12321:	89 c2                	mov    %eax,%edx
   12323:	48 8d 35 ec 18 00 00 	lea    0x18ec(%rip),%rsi        # 13c16 <g_1236+0xbb2>
   1232a:	48 89 cf             	mov    %rcx,%rdi
   1232d:	e8 c1 33 ff ff       	callq  56f3 <transparent_crc>
   12332:	8b 05 40 56 00 00    	mov    0x5640(%rip),%eax        # 17978 <g_937>
   12338:	89 c1                	mov    %eax,%ecx
   1233a:	8b 45 fc             	mov    -0x4(%rbp),%eax
   1233d:	89 c2                	mov    %eax,%edx
   1233f:	48 8d 35 d9 18 00 00 	lea    0x18d9(%rip),%rsi        # 13c1f <g_1236+0xbbb>
   12346:	48 89 cf             	mov    %rcx,%rdi
   12349:	e8 a5 33 ff ff       	callq  56f3 <transparent_crc>
   1234e:	8b 05 24 56 00 00    	mov    0x5624(%rip),%eax        # 17978 <g_937>
   12354:	89 c1                	mov    %eax,%ecx
   12356:	8b 45 fc             	mov    -0x4(%rbp),%eax
   12359:	89 c2                	mov    %eax,%edx
   1235b:	48 8d 35 c6 18 00 00 	lea    0x18c6(%rip),%rsi        # 13c28 <g_1236+0xbc4>
   12362:	48 89 cf             	mov    %rcx,%rdi
   12365:	e8 89 33 ff ff       	callq  56f3 <transparent_crc>
   1236a:	8b 05 f8 6f 00 00    	mov    0x6ff8(%rip),%eax        # 19368 <g_993>
   12370:	48 98                	cltq   
   12372:	8b 55 fc             	mov    -0x4(%rbp),%edx
   12375:	48 8d 35 b5 18 00 00 	lea    0x18b5(%rip),%rsi        # 13c31 <g_1236+0xbcd>
   1237c:	48 89 c7             	mov    %rax,%rdi
   1237f:	e8 6f 33 ff ff       	callq  56f3 <transparent_crc>
   12384:	0f b7 05 f5 55 00 00 	movzwl 0x55f5(%rip),%eax        # 17980 <g_1041>
   1238b:	0f b7 c0             	movzwl %ax,%eax
   1238e:	8b 55 fc             	mov    -0x4(%rbp),%edx
   12391:	48 8d 35 9f 18 00 00 	lea    0x189f(%rip),%rsi        # 13c37 <g_1236+0xbd3>
   12398:	48 89 c7             	mov    %rax,%rdi
   1239b:	e8 53 33 ff ff       	callq  56f3 <transparent_crc>
   123a0:	0f b7 05 db 55 00 00 	movzwl 0x55db(%rip),%eax        # 17982 <g_1053>
   123a7:	0f b7 c0             	movzwl %ax,%eax
   123aa:	8b 55 fc             	mov    -0x4(%rbp),%edx
   123ad:	48 8d 35 8a 18 00 00 	lea    0x188a(%rip),%rsi        # 13c3e <g_1236+0xbda>
   123b4:	48 89 c7             	mov    %rax,%rdi
   123b7:	e8 37 33 ff ff       	callq  56f3 <transparent_crc>
   123bc:	8b 05 c6 55 00 00    	mov    0x55c6(%rip),%eax        # 17988 <g_1075>
   123c2:	89 c1                	mov    %eax,%ecx
   123c4:	8b 45 fc             	mov    -0x4(%rbp),%eax
   123c7:	89 c2                	mov    %eax,%edx
   123c9:	48 8d 35 75 18 00 00 	lea    0x1875(%rip),%rsi        # 13c45 <g_1236+0xbe1>
   123d0:	48 89 cf             	mov    %rcx,%rdi
   123d3:	e8 1b 33 ff ff       	callq  56f3 <transparent_crc>
   123d8:	8b 05 aa 55 00 00    	mov    0x55aa(%rip),%eax        # 17988 <g_1075>
   123de:	89 c1                	mov    %eax,%ecx
   123e0:	8b 45 fc             	mov    -0x4(%rbp),%eax
   123e3:	89 c2                	mov    %eax,%edx
   123e5:	48 8d 35 63 18 00 00 	lea    0x1863(%rip),%rsi        # 13c4f <g_1236+0xbeb>
   123ec:	48 89 cf             	mov    %rcx,%rdi
   123ef:	e8 ff 32 ff ff       	callq  56f3 <transparent_crc>
   123f4:	0f b6 05 95 55 00 00 	movzbl 0x5595(%rip),%eax        # 17990 <g_1076>
   123fb:	48 0f be c0          	movsbq %al,%rax
   123ff:	8b 55 fc             	mov    -0x4(%rbp),%edx
   12402:	48 8d 35 50 18 00 00 	lea    0x1850(%rip),%rsi        # 13c59 <g_1236+0xbf5>
   12409:	48 89 c7             	mov    %rax,%rdi
   1240c:	e8 e2 32 ff ff       	callq  56f3 <transparent_crc>
   12411:	48 8b 05 60 6f 00 00 	mov    0x6f60(%rip),%rax        # 19378 <g_1217>
   12418:	48 89 c1             	mov    %rax,%rcx
   1241b:	8b 45 fc             	mov    -0x4(%rbp),%eax
   1241e:	89 c2                	mov    %eax,%edx
   12420:	48 8d 35 39 18 00 00 	lea    0x1839(%rip),%rsi        # 13c60 <g_1236+0xbfc>
   12427:	48 89 cf             	mov    %rcx,%rdi
   1242a:	e8 c4 32 ff ff       	callq  56f3 <transparent_crc>
   1242f:	48 8b 05 62 55 00 00 	mov    0x5562(%rip),%rax        # 17998 <g_1218>
   12436:	48 89 c1             	mov    %rax,%rcx
   12439:	8b 45 fc             	mov    -0x4(%rbp),%eax
   1243c:	89 c2                	mov    %eax,%edx
   1243e:	48 8d 35 22 18 00 00 	lea    0x1822(%rip),%rsi        # 13c67 <g_1236+0xc03>
   12445:	48 89 cf             	mov    %rcx,%rdi
   12448:	e8 a6 32 ff ff       	callq  56f3 <transparent_crc>
   1244d:	48 8b 05 4c 55 00 00 	mov    0x554c(%rip),%rax        # 179a0 <g_1219>
   12454:	48 89 c1             	mov    %rax,%rcx
   12457:	8b 45 fc             	mov    -0x4(%rbp),%eax
   1245a:	89 c2                	mov    %eax,%edx
   1245c:	48 8d 35 0b 18 00 00 	lea    0x180b(%rip),%rsi        # 13c6e <g_1236+0xc0a>
   12463:	48 89 cf             	mov    %rcx,%rdi
   12466:	e8 88 32 ff ff       	callq  56f3 <transparent_crc>
   1246b:	48 8b 05 36 55 00 00 	mov    0x5536(%rip),%rax        # 179a8 <g_1220>
   12472:	48 89 c1             	mov    %rax,%rcx
   12475:	8b 45 fc             	mov    -0x4(%rbp),%eax
   12478:	89 c2                	mov    %eax,%edx
   1247a:	48 8d 35 f4 17 00 00 	lea    0x17f4(%rip),%rsi        # 13c75 <g_1236+0xc11>
   12481:	48 89 cf             	mov    %rcx,%rdi
   12484:	e8 6a 32 ff ff       	callq  56f3 <transparent_crc>
   12489:	48 8b 05 20 55 00 00 	mov    0x5520(%rip),%rax        # 179b0 <g_1221>
   12490:	48 89 c1             	mov    %rax,%rcx
   12493:	8b 45 fc             	mov    -0x4(%rbp),%eax
   12496:	89 c2                	mov    %eax,%edx
   12498:	48 8d 35 dd 17 00 00 	lea    0x17dd(%rip),%rsi        # 13c7c <g_1236+0xc18>
   1249f:	48 89 cf             	mov    %rcx,%rdi
   124a2:	e8 4c 32 ff ff       	callq  56f3 <transparent_crc>
   124a7:	48 8b 05 d2 6e 00 00 	mov    0x6ed2(%rip),%rax        # 19380 <g_1222>
   124ae:	48 89 c1             	mov    %rax,%rcx
   124b1:	8b 45 fc             	mov    -0x4(%rbp),%eax
   124b4:	89 c2                	mov    %eax,%edx
   124b6:	48 8d 35 c6 17 00 00 	lea    0x17c6(%rip),%rsi        # 13c83 <g_1236+0xc1f>
   124bd:	48 89 cf             	mov    %rcx,%rdi
   124c0:	e8 2e 32 ff ff       	callq  56f3 <transparent_crc>
   124c5:	48 8b 05 ec 54 00 00 	mov    0x54ec(%rip),%rax        # 179b8 <g_1223>
   124cc:	48 89 c1             	mov    %rax,%rcx
   124cf:	8b 45 fc             	mov    -0x4(%rbp),%eax
   124d2:	89 c2                	mov    %eax,%edx
   124d4:	48 8d 35 af 17 00 00 	lea    0x17af(%rip),%rsi        # 13c8a <g_1236+0xc26>
   124db:	48 89 cf             	mov    %rcx,%rdi
   124de:	e8 10 32 ff ff       	callq  56f3 <transparent_crc>
   124e3:	48 8b 05 d6 54 00 00 	mov    0x54d6(%rip),%rax        # 179c0 <g_1224>
   124ea:	48 89 c1             	mov    %rax,%rcx
   124ed:	8b 45 fc             	mov    -0x4(%rbp),%eax
   124f0:	89 c2                	mov    %eax,%edx
   124f2:	48 8d 35 98 17 00 00 	lea    0x1798(%rip),%rsi        # 13c91 <g_1236+0xc2d>
   124f9:	48 89 cf             	mov    %rcx,%rdi
   124fc:	e8 f2 31 ff ff       	callq  56f3 <transparent_crc>
   12501:	48 8b 05 c0 54 00 00 	mov    0x54c0(%rip),%rax        # 179c8 <g_1234>
   12508:	48 89 c1             	mov    %rax,%rcx
   1250b:	8b 45 fc             	mov    -0x4(%rbp),%eax
   1250e:	89 c2                	mov    %eax,%edx
   12510:	48 8d 35 81 17 00 00 	lea    0x1781(%rip),%rsi        # 13c98 <g_1236+0xc34>
   12517:	48 89 cf             	mov    %rcx,%rdi
   1251a:	e8 d4 31 ff ff       	callq  56f3 <transparent_crc>
   1251f:	b8 01 00 00 00       	mov    $0x1,%eax
   12524:	48 98                	cltq   
   12526:	8b 55 fc             	mov    -0x4(%rbp),%edx
   12529:	48 8d 35 6f 17 00 00 	lea    0x176f(%rip),%rsi        # 13c9f <g_1236+0xc3b>
   12530:	48 89 c7             	mov    %rax,%rdi
   12533:	e8 bb 31 ff ff       	callq  56f3 <transparent_crc>
   12538:	8b 05 92 54 00 00    	mov    0x5492(%rip),%eax        # 179d0 <g_1255>
   1253e:	89 c1                	mov    %eax,%ecx
   12540:	8b 45 fc             	mov    -0x4(%rbp),%eax
   12543:	89 c2                	mov    %eax,%edx
   12545:	48 8d 35 5a 17 00 00 	lea    0x175a(%rip),%rsi        # 13ca6 <g_1236+0xc42>
   1254c:	48 89 cf             	mov    %rcx,%rdi
   1254f:	e8 9f 31 ff ff       	callq  56f3 <transparent_crc>
   12554:	8b 05 36 6e 00 00    	mov    0x6e36(%rip),%eax        # 19390 <g_1305>
   1255a:	89 c1                	mov    %eax,%ecx
   1255c:	8b 45 fc             	mov    -0x4(%rbp),%eax
   1255f:	89 c2                	mov    %eax,%edx
   12561:	48 8d 35 45 17 00 00 	lea    0x1745(%rip),%rsi        # 13cad <g_1236+0xc49>
   12568:	48 89 cf             	mov    %rcx,%rdi
   1256b:	e8 83 31 ff ff       	callq  56f3 <transparent_crc>
   12570:	c7 45 f0 00 00 00 00 	movl   $0x0,-0x10(%rbp)
   12577:	eb 4a                	jmp    125c3 <main+0xd38>
   12579:	8b 45 f0             	mov    -0x10(%rbp),%eax
   1257c:	48 98                	cltq   
   1257e:	48 8d 14 00          	lea    (%rax,%rax,1),%rdx
   12582:	48 8d 05 4f 54 00 00 	lea    0x544f(%rip),%rax        # 179d8 <g_1306>
   12589:	0f b7 04 02          	movzwl (%rdx,%rax,1),%eax
   1258d:	48 0f bf c0          	movswq %ax,%rax
   12591:	8b 55 fc             	mov    -0x4(%rbp),%edx
   12594:	48 8d 35 19 17 00 00 	lea    0x1719(%rip),%rsi        # 13cb4 <g_1236+0xc50>
   1259b:	48 89 c7             	mov    %rax,%rdi
   1259e:	e8 50 31 ff ff       	callq  56f3 <transparent_crc>
   125a3:	83 7d fc 00          	cmpl   $0x0,-0x4(%rbp)
   125a7:	74 16                	je     125bf <main+0xd34>
   125a9:	8b 45 f0             	mov    -0x10(%rbp),%eax
   125ac:	89 c6                	mov    %eax,%esi
   125ae:	48 8d 3d d2 14 00 00 	lea    0x14d2(%rip),%rdi        # 13a87 <g_1236+0xa23>
   125b5:	b8 00 00 00 00       	mov    $0x0,%eax
   125ba:	e8 c1 1a ff ff       	callq  4080 <printf@plt>
   125bf:	83 45 f0 01          	addl   $0x1,-0x10(%rbp)
   125c3:	83 7d f0 05          	cmpl   $0x5,-0x10(%rbp)
   125c7:	7e b0                	jle    12579 <main+0xcee>
   125c9:	8b 05 19 54 00 00    	mov    0x5419(%rip),%eax        # 179e8 <g_1375>
   125cf:	89 c1                	mov    %eax,%ecx
   125d1:	8b 45 fc             	mov    -0x4(%rbp),%eax
   125d4:	89 c2                	mov    %eax,%edx
   125d6:	48 8d 35 e1 16 00 00 	lea    0x16e1(%rip),%rsi        # 13cbe <g_1236+0xc5a>
   125dd:	48 89 cf             	mov    %rcx,%rdi
   125e0:	e8 0e 31 ff ff       	callq  56f3 <transparent_crc>
   125e5:	8b 05 fd 53 00 00    	mov    0x53fd(%rip),%eax        # 179e8 <g_1375>
   125eb:	89 c1                	mov    %eax,%ecx
   125ed:	8b 45 fc             	mov    -0x4(%rbp),%eax
   125f0:	89 c2                	mov    %eax,%edx
   125f2:	48 8d 35 cf 16 00 00 	lea    0x16cf(%rip),%rsi        # 13cc8 <g_1236+0xc64>
   125f9:	48 89 cf             	mov    %rcx,%rdi
   125fc:	e8 f2 30 ff ff       	callq  56f3 <transparent_crc>
   12601:	8b 05 e9 53 00 00    	mov    0x53e9(%rip),%eax        # 179f0 <g_1407>
   12607:	89 c1                	mov    %eax,%ecx
   12609:	8b 45 fc             	mov    -0x4(%rbp),%eax
   1260c:	89 c2                	mov    %eax,%edx
   1260e:	48 8d 35 bd 16 00 00 	lea    0x16bd(%rip),%rsi        # 13cd2 <g_1236+0xc6e>
   12615:	48 89 cf             	mov    %rcx,%rdi
   12618:	e8 d6 30 ff ff       	callq  56f3 <transparent_crc>
   1261d:	8b 05 cd 53 00 00    	mov    0x53cd(%rip),%eax        # 179f0 <g_1407>
   12623:	89 c1                	mov    %eax,%ecx
   12625:	8b 45 fc             	mov    -0x4(%rbp),%eax
   12628:	89 c2                	mov    %eax,%edx
   1262a:	48 8d 35 ab 16 00 00 	lea    0x16ab(%rip),%rsi        # 13cdc <g_1236+0xc78>
   12631:	48 89 cf             	mov    %rcx,%rdi
   12634:	e8 ba 30 ff ff       	callq  56f3 <transparent_crc>
   12639:	48 8b 05 b8 53 00 00 	mov    0x53b8(%rip),%rax        # 179f8 <g_1533>
   12640:	8b 55 fc             	mov    -0x4(%rbp),%edx
   12643:	48 8d 35 9c 16 00 00 	lea    0x169c(%rip),%rsi        # 13ce6 <g_1236+0xc82>
   1264a:	48 89 c7             	mov    %rax,%rdi
   1264d:	e8 a1 30 ff ff       	callq  56f3 <transparent_crc>
   12652:	8b 05 a0 53 00 00    	mov    0x53a0(%rip),%eax        # 179f8 <g_1533>
   12658:	89 c1                	mov    %eax,%ecx
   1265a:	8b 45 fc             	mov    -0x4(%rbp),%eax
   1265d:	89 c2                	mov    %eax,%edx
   1265f:	48 8d 35 8a 16 00 00 	lea    0x168a(%rip),%rsi        # 13cf0 <g_1236+0xc8c>
   12666:	48 89 cf             	mov    %rcx,%rdi
   12669:	e8 85 30 ff ff       	callq  56f3 <transparent_crc>
   1266e:	8b 05 84 53 00 00    	mov    0x5384(%rip),%eax        # 179f8 <g_1533>
   12674:	89 c1                	mov    %eax,%ecx
   12676:	8b 45 fc             	mov    -0x4(%rbp),%eax
   12679:	89 c2                	mov    %eax,%edx
   1267b:	48 8d 35 78 16 00 00 	lea    0x1678(%rip),%rsi        # 13cfa <g_1236+0xc96>
   12682:	48 89 cf             	mov    %rcx,%rdi
   12685:	e8 69 30 ff ff       	callq  56f3 <transparent_crc>
   1268a:	8b 05 90 49 00 00    	mov    0x4990(%rip),%eax        # 17020 <crc32_context>
   12690:	f7 d0                	not    %eax
   12692:	89 c2                	mov    %eax,%edx
   12694:	8b 45 fc             	mov    -0x4(%rbp),%eax
   12697:	89 c6                	mov    %eax,%esi
   12699:	89 d7                	mov    %edx,%edi
   1269b:	e8 f4 1a ff ff       	callq  4194 <platform_main_end>
   126a0:	b8 00 00 00 00       	mov    $0x0,%eax
   126a5:	c9                   	leaveq 
   126a6:	c3                   	retq   
   126a7:	66 0f 1f 84 00 00 00 	nopw   0x0(%rax,%rax,1)
   126ae:	00 00 

00000000000126b0 <__libc_csu_init>:
   126b0:	f3 0f 1e fa          	endbr64 
   126b4:	41 57                	push   %r15
   126b6:	4c 8d 3d 93 45 00 00 	lea    0x4593(%rip),%r15        # 16c50 <__frame_dummy_init_array_entry>
   126bd:	41 56                	push   %r14
   126bf:	49 89 d6             	mov    %rdx,%r14
   126c2:	41 55                	push   %r13
   126c4:	49 89 f5             	mov    %rsi,%r13
   126c7:	41 54                	push   %r12
   126c9:	41 89 fc             	mov    %edi,%r12d
   126cc:	55                   	push   %rbp
   126cd:	48 8d 2d 84 45 00 00 	lea    0x4584(%rip),%rbp        # 16c58 <__do_global_dtors_aux_fini_array_entry>
   126d4:	53                   	push   %rbx
   126d5:	4c 29 fd             	sub    %r15,%rbp
   126d8:	48 83 ec 08          	sub    $0x8,%rsp
   126dc:	e8 1f 19 ff ff       	callq  4000 <_init>
   126e1:	48 c1 fd 03          	sar    $0x3,%rbp
   126e5:	74 1f                	je     12706 <__libc_csu_init+0x56>
   126e7:	31 db                	xor    %ebx,%ebx
   126e9:	0f 1f 80 00 00 00 00 	nopl   0x0(%rax)
   126f0:	4c 89 f2             	mov    %r14,%rdx
   126f3:	4c 89 ee             	mov    %r13,%rsi
   126f6:	44 89 e7             	mov    %r12d,%edi
   126f9:	41 ff 14 df          	callq  *(%r15,%rbx,8)
   126fd:	48 83 c3 01          	add    $0x1,%rbx
   12701:	48 39 dd             	cmp    %rbx,%rbp
   12704:	75 ea                	jne    126f0 <__libc_csu_init+0x40>
   12706:	48 83 c4 08          	add    $0x8,%rsp
   1270a:	5b                   	pop    %rbx
   1270b:	5d                   	pop    %rbp
   1270c:	41 5c                	pop    %r12
   1270e:	41 5d                	pop    %r13
   12710:	41 5e                	pop    %r14
   12712:	41 5f                	pop    %r15
   12714:	c3                   	retq   
   12715:	66 66 2e 0f 1f 84 00 	data16 nopw %cs:0x0(%rax,%rax,1)
   1271c:	00 00 00 00 

0000000000012720 <__libc_csu_fini>:
   12720:	f3 0f 1e fa          	endbr64 
   12724:	c3                   	retq   
