


Disassembly of section .text:

00000000000100a0 <_start>:
   100a0:	f3 0f 1e fa          	endbr64 
   100a4:	31 ed                	xor    %ebp,%ebp
   100a6:	49 89 d1             	mov    %rdx,%r9
   100a9:	5e                   	pop    %rsi
   100aa:	48 89 e2             	mov    %rsp,%rdx
   100ad:	48 83 e4 f0          	and    $0xfffffffffffffff0,%rsp
   100b1:	50                   	push   %rax
   100b2:	54                   	push   %rsp
   100b3:	4c 8d 05 86 16 01 00 	lea    0x11686(%rip),%r8        # 21740 <__libc_csu_fini>
   100ba:	48 8d 0d 0f 16 01 00 	lea    0x1160f(%rip),%rcx        # 216d0 <__libc_csu_init>
   100c1:	48 8d 3d e9 ff 00 00 	lea    0xffe9(%rip),%rdi        # 200b1 <main>
   100c8:	ff 15 12 6f 01 00    	callq  *0x16f12(%rip)        # 26fe0 <__libc_start_main@GLIBC_2.2.5>
   100ce:	f4                   	hlt    
   100cf:	90                   	nop

00000000000100d0 <deregister_tm_clones>:
   100d0:	48 8d 3d 69 d5 01 00 	lea    0x1d569(%rip),%rdi        # 2d640 <__TMC_END__>
   100d7:	48 8d 05 62 d5 01 00 	lea    0x1d562(%rip),%rax        # 2d640 <__TMC_END__>
   100de:	48 39 f8             	cmp    %rdi,%rax
   100e1:	74 15                	je     100f8 <deregister_tm_clones+0x28>
   100e3:	48 8b 05 ee 6e 01 00 	mov    0x16eee(%rip),%rax        # 26fd8 <_ITM_deregisterTMCloneTable>
   100ea:	48 85 c0             	test   %rax,%rax
   100ed:	74 09                	je     100f8 <deregister_tm_clones+0x28>
   100ef:	ff e0                	jmpq   *%rax
   100f1:	0f 1f 80 00 00 00 00 	nopl   0x0(%rax)
   100f8:	c3                   	retq   
   100f9:	0f 1f 80 00 00 00 00 	nopl   0x0(%rax)

0000000000010100 <register_tm_clones>:
   10100:	48 8d 3d 39 d5 01 00 	lea    0x1d539(%rip),%rdi        # 2d640 <__TMC_END__>
   10107:	48 8d 35 32 d5 01 00 	lea    0x1d532(%rip),%rsi        # 2d640 <__TMC_END__>
   1010e:	48 29 fe             	sub    %rdi,%rsi
   10111:	48 89 f0             	mov    %rsi,%rax
   10114:	48 c1 ee 3f          	shr    $0x3f,%rsi
   10118:	48 c1 f8 03          	sar    $0x3,%rax
   1011c:	48 01 c6             	add    %rax,%rsi
   1011f:	48 d1 fe             	sar    %rsi
   10122:	74 14                	je     10138 <register_tm_clones+0x38>
   10124:	48 8b 05 c5 6e 01 00 	mov    0x16ec5(%rip),%rax        # 26ff0 <_ITM_registerTMCloneTable>
   1012b:	48 85 c0             	test   %rax,%rax
   1012e:	74 08                	je     10138 <register_tm_clones+0x38>
   10130:	ff e0                	jmpq   *%rax
   10132:	66 0f 1f 44 00 00    	nopw   0x0(%rax,%rax,1)
   10138:	c3                   	retq   
   10139:	0f 1f 80 00 00 00 00 	nopl   0x0(%rax)

0000000000010140 <__do_global_dtors_aux>:
   10140:	f3 0f 1e fa          	endbr64 
   10144:	80 3d f5 d4 01 00 00 	cmpb   $0x0,0x1d4f5(%rip)        # 2d640 <__TMC_END__>
   1014b:	75 2b                	jne    10178 <__do_global_dtors_aux+0x38>
   1014d:	55                   	push   %rbp
   1014e:	48 83 3d a2 6e 01 00 	cmpq   $0x0,0x16ea2(%rip)        # 26ff8 <__cxa_finalize@GLIBC_2.2.5>
   10155:	00 
   10156:	48 89 e5             	mov    %rsp,%rbp
   10159:	74 0c                	je     10167 <__do_global_dtors_aux+0x27>
   1015b:	48 8b 3d a6 6e 01 00 	mov    0x16ea6(%rip),%rdi        # 27008 <__dso_handle>
   10162:	e8 f9 fe ff ff       	callq  10060 <__cxa_finalize@plt>
   10167:	e8 64 ff ff ff       	callq  100d0 <deregister_tm_clones>
   1016c:	c6 05 cd d4 01 00 01 	movb   $0x1,0x1d4cd(%rip)        # 2d640 <__TMC_END__>
   10173:	5d                   	pop    %rbp
   10174:	c3                   	retq   
   10175:	0f 1f 00             	nopl   (%rax)
   10178:	c3                   	retq   
   10179:	0f 1f 80 00 00 00 00 	nopl   0x0(%rax)

0000000000010180 <frame_dummy>:
   10180:	f3 0f 1e fa          	endbr64 
   10184:	e9 77 ff ff ff       	jmpq   10100 <register_tm_clones>

0000000000010189 <platform_main_begin>:
   10189:	f3 0f 1e fa          	endbr64 
   1018d:	55                   	push   %rbp
   1018e:	48 89 e5             	mov    %rsp,%rbp
   10191:	90                   	nop
   10192:	5d                   	pop    %rbp
   10193:	c3                   	retq   

0000000000010194 <platform_main_end>:
   10194:	f3 0f 1e fa          	endbr64 
   10198:	55                   	push   %rbp
   10199:	48 89 e5             	mov    %rsp,%rbp
   1019c:	48 83 ec 10          	sub    $0x10,%rsp
   101a0:	89 7d fc             	mov    %edi,-0x4(%rbp)
   101a3:	89 75 f8             	mov    %esi,-0x8(%rbp)
   101a6:	8b 45 fc             	mov    -0x4(%rbp),%eax
   101a9:	89 c6                	mov    %eax,%esi
   101ab:	48 8d 3d 6e 1e 01 00 	lea    0x11e6e(%rip),%rdi        # 22020 <_IO_stdin_used+0x20>
   101b2:	b8 00 00 00 00       	mov    $0x0,%eax
   101b7:	e8 c4 fe ff ff       	callq  10080 <printf@plt>
   101bc:	90                   	nop
   101bd:	c9                   	leaveq 
   101be:	c3                   	retq   

00000000000101bf <safe_unary_minus_func_int8_t_s>:
   101bf:	f3 0f 1e fa          	endbr64 
   101c3:	55                   	push   %rbp
   101c4:	48 89 e5             	mov    %rsp,%rbp
   101c7:	89 f8                	mov    %edi,%eax
   101c9:	88 45 fc             	mov    %al,-0x4(%rbp)
   101cc:	0f b6 45 fc          	movzbl -0x4(%rbp),%eax
   101d0:	f7 d8                	neg    %eax
   101d2:	5d                   	pop    %rbp
   101d3:	c3                   	retq   

00000000000101d4 <safe_add_func_int8_t_s_s>:
   101d4:	f3 0f 1e fa          	endbr64 
   101d8:	55                   	push   %rbp
   101d9:	48 89 e5             	mov    %rsp,%rbp
   101dc:	89 fa                	mov    %edi,%edx
   101de:	89 f0                	mov    %esi,%eax
   101e0:	88 55 fc             	mov    %dl,-0x4(%rbp)
   101e3:	88 45 f8             	mov    %al,-0x8(%rbp)
   101e6:	0f b6 55 fc          	movzbl -0x4(%rbp),%edx
   101ea:	0f b6 45 f8          	movzbl -0x8(%rbp),%eax
   101ee:	01 d0                	add    %edx,%eax
   101f0:	5d                   	pop    %rbp
   101f1:	c3                   	retq   

00000000000101f2 <safe_sub_func_int8_t_s_s>:
   101f2:	f3 0f 1e fa          	endbr64 
   101f6:	55                   	push   %rbp
   101f7:	48 89 e5             	mov    %rsp,%rbp
   101fa:	89 fa                	mov    %edi,%edx
   101fc:	89 f0                	mov    %esi,%eax
   101fe:	88 55 fc             	mov    %dl,-0x4(%rbp)
   10201:	88 45 f8             	mov    %al,-0x8(%rbp)
   10204:	0f b6 55 fc          	movzbl -0x4(%rbp),%edx
   10208:	0f b6 45 f8          	movzbl -0x8(%rbp),%eax
   1020c:	29 c2                	sub    %eax,%edx
   1020e:	89 d0                	mov    %edx,%eax
   10210:	5d                   	pop    %rbp
   10211:	c3                   	retq   

0000000000010212 <safe_mul_func_int8_t_s_s>:
   10212:	f3 0f 1e fa          	endbr64 
   10216:	55                   	push   %rbp
   10217:	48 89 e5             	mov    %rsp,%rbp
   1021a:	89 fa                	mov    %edi,%edx
   1021c:	89 f0                	mov    %esi,%eax
   1021e:	88 55 fc             	mov    %dl,-0x4(%rbp)
   10221:	88 45 f8             	mov    %al,-0x8(%rbp)
   10224:	0f b6 45 fc          	movzbl -0x4(%rbp),%eax
   10228:	0f b6 55 f8          	movzbl -0x8(%rbp),%edx
   1022c:	0f af c2             	imul   %edx,%eax
   1022f:	5d                   	pop    %rbp
   10230:	c3                   	retq   

0000000000010231 <safe_mod_func_int8_t_s_s>:
   10231:	f3 0f 1e fa          	endbr64 
   10235:	55                   	push   %rbp
   10236:	48 89 e5             	mov    %rsp,%rbp
   10239:	89 fa                	mov    %edi,%edx
   1023b:	89 f0                	mov    %esi,%eax
   1023d:	88 55 fc             	mov    %dl,-0x4(%rbp)
   10240:	88 45 f8             	mov    %al,-0x8(%rbp)
   10243:	80 7d f8 00          	cmpb   $0x0,-0x8(%rbp)
   10247:	74 1b                	je     10264 <safe_mod_func_int8_t_s_s+0x33>
   10249:	80 7d fc 80          	cmpb   $0x80,-0x4(%rbp)
   1024d:	75 06                	jne    10255 <safe_mod_func_int8_t_s_s+0x24>
   1024f:	80 7d f8 ff          	cmpb   $0xff,-0x8(%rbp)
   10253:	74 0f                	je     10264 <safe_mod_func_int8_t_s_s+0x33>
   10255:	0f be 45 fc          	movsbl -0x4(%rbp),%eax
   10259:	0f be 4d f8          	movsbl -0x8(%rbp),%ecx
   1025d:	99                   	cltd   
   1025e:	f7 f9                	idiv   %ecx
   10260:	89 d0                	mov    %edx,%eax
   10262:	eb 04                	jmp    10268 <safe_mod_func_int8_t_s_s+0x37>
   10264:	0f b6 45 fc          	movzbl -0x4(%rbp),%eax
   10268:	5d                   	pop    %rbp
   10269:	c3                   	retq   

000000000001026a <safe_div_func_int8_t_s_s>:
   1026a:	f3 0f 1e fa          	endbr64 
   1026e:	55                   	push   %rbp
   1026f:	48 89 e5             	mov    %rsp,%rbp
   10272:	89 fa                	mov    %edi,%edx
   10274:	89 f0                	mov    %esi,%eax
   10276:	88 55 fc             	mov    %dl,-0x4(%rbp)
   10279:	88 45 f8             	mov    %al,-0x8(%rbp)
   1027c:	80 7d f8 00          	cmpb   $0x0,-0x8(%rbp)
   10280:	74 19                	je     1029b <safe_div_func_int8_t_s_s+0x31>
   10282:	80 7d fc 80          	cmpb   $0x80,-0x4(%rbp)
   10286:	75 06                	jne    1028e <safe_div_func_int8_t_s_s+0x24>
   10288:	80 7d f8 ff          	cmpb   $0xff,-0x8(%rbp)
   1028c:	74 0d                	je     1029b <safe_div_func_int8_t_s_s+0x31>
   1028e:	0f be 45 fc          	movsbl -0x4(%rbp),%eax
   10292:	0f be 4d f8          	movsbl -0x8(%rbp),%ecx
   10296:	99                   	cltd   
   10297:	f7 f9                	idiv   %ecx
   10299:	eb 04                	jmp    1029f <safe_div_func_int8_t_s_s+0x35>
   1029b:	0f b6 45 fc          	movzbl -0x4(%rbp),%eax
   1029f:	5d                   	pop    %rbp
   102a0:	c3                   	retq   

00000000000102a1 <safe_lshift_func_int8_t_s_s>:
   102a1:	f3 0f 1e fa          	endbr64 
   102a5:	55                   	push   %rbp
   102a6:	48 89 e5             	mov    %rsp,%rbp
   102a9:	89 f8                	mov    %edi,%eax
   102ab:	89 75 f8             	mov    %esi,-0x8(%rbp)
   102ae:	88 45 fc             	mov    %al,-0x4(%rbp)
   102b1:	80 7d fc 00          	cmpb   $0x0,-0x4(%rbp)
   102b5:	78 31                	js     102e8 <safe_lshift_func_int8_t_s_s+0x47>
   102b7:	83 7d f8 00          	cmpl   $0x0,-0x8(%rbp)
   102bb:	78 2b                	js     102e8 <safe_lshift_func_int8_t_s_s+0x47>
   102bd:	83 7d f8 1f          	cmpl   $0x1f,-0x8(%rbp)
   102c1:	7f 25                	jg     102e8 <safe_lshift_func_int8_t_s_s+0x47>
   102c3:	0f be 55 fc          	movsbl -0x4(%rbp),%edx
   102c7:	8b 45 f8             	mov    -0x8(%rbp),%eax
   102ca:	be 7f 00 00 00       	mov    $0x7f,%esi
   102cf:	89 c1                	mov    %eax,%ecx
   102d1:	d3 fe                	sar    %cl,%esi
   102d3:	89 f0                	mov    %esi,%eax
   102d5:	39 c2                	cmp    %eax,%edx
   102d7:	7f 0f                	jg     102e8 <safe_lshift_func_int8_t_s_s+0x47>
   102d9:	0f be 55 fc          	movsbl -0x4(%rbp),%edx
   102dd:	8b 45 f8             	mov    -0x8(%rbp),%eax
   102e0:	89 c1                	mov    %eax,%ecx
   102e2:	d3 e2                	shl    %cl,%edx
   102e4:	89 d0                	mov    %edx,%eax
   102e6:	eb 04                	jmp    102ec <safe_lshift_func_int8_t_s_s+0x4b>
   102e8:	0f b6 45 fc          	movzbl -0x4(%rbp),%eax
   102ec:	5d                   	pop    %rbp
   102ed:	c3                   	retq   

00000000000102ee <safe_lshift_func_int8_t_s_u>:
   102ee:	f3 0f 1e fa          	endbr64 
   102f2:	55                   	push   %rbp
   102f3:	48 89 e5             	mov    %rsp,%rbp
   102f6:	89 f8                	mov    %edi,%eax
   102f8:	89 75 f8             	mov    %esi,-0x8(%rbp)
   102fb:	88 45 fc             	mov    %al,-0x4(%rbp)
   102fe:	80 7d fc 00          	cmpb   $0x0,-0x4(%rbp)
   10302:	78 2b                	js     1032f <safe_lshift_func_int8_t_s_u+0x41>
   10304:	83 7d f8 1f          	cmpl   $0x1f,-0x8(%rbp)
   10308:	77 25                	ja     1032f <safe_lshift_func_int8_t_s_u+0x41>
   1030a:	0f be 55 fc          	movsbl -0x4(%rbp),%edx
   1030e:	8b 45 f8             	mov    -0x8(%rbp),%eax
   10311:	be 7f 00 00 00       	mov    $0x7f,%esi
   10316:	89 c1                	mov    %eax,%ecx
   10318:	d3 fe                	sar    %cl,%esi
   1031a:	89 f0                	mov    %esi,%eax
   1031c:	39 c2                	cmp    %eax,%edx
   1031e:	7f 0f                	jg     1032f <safe_lshift_func_int8_t_s_u+0x41>
   10320:	0f be 55 fc          	movsbl -0x4(%rbp),%edx
   10324:	8b 45 f8             	mov    -0x8(%rbp),%eax
   10327:	89 c1                	mov    %eax,%ecx
   10329:	d3 e2                	shl    %cl,%edx
   1032b:	89 d0                	mov    %edx,%eax
   1032d:	eb 04                	jmp    10333 <safe_lshift_func_int8_t_s_u+0x45>
   1032f:	0f b6 45 fc          	movzbl -0x4(%rbp),%eax
   10333:	5d                   	pop    %rbp
   10334:	c3                   	retq   

0000000000010335 <safe_rshift_func_int8_t_s_s>:
   10335:	f3 0f 1e fa          	endbr64 
   10339:	55                   	push   %rbp
   1033a:	48 89 e5             	mov    %rsp,%rbp
   1033d:	89 f8                	mov    %edi,%eax
   1033f:	89 75 f8             	mov    %esi,-0x8(%rbp)
   10342:	88 45 fc             	mov    %al,-0x4(%rbp)
   10345:	80 7d fc 00          	cmpb   $0x0,-0x4(%rbp)
   10349:	78 1b                	js     10366 <safe_rshift_func_int8_t_s_s+0x31>
   1034b:	83 7d f8 00          	cmpl   $0x0,-0x8(%rbp)
   1034f:	78 15                	js     10366 <safe_rshift_func_int8_t_s_s+0x31>
   10351:	83 7d f8 1f          	cmpl   $0x1f,-0x8(%rbp)
   10355:	7f 0f                	jg     10366 <safe_rshift_func_int8_t_s_s+0x31>
   10357:	0f be 55 fc          	movsbl -0x4(%rbp),%edx
   1035b:	8b 45 f8             	mov    -0x8(%rbp),%eax
   1035e:	89 c1                	mov    %eax,%ecx
   10360:	d3 fa                	sar    %cl,%edx
   10362:	89 d0                	mov    %edx,%eax
   10364:	eb 04                	jmp    1036a <safe_rshift_func_int8_t_s_s+0x35>
   10366:	0f b6 45 fc          	movzbl -0x4(%rbp),%eax
   1036a:	5d                   	pop    %rbp
   1036b:	c3                   	retq   

000000000001036c <safe_rshift_func_int8_t_s_u>:
   1036c:	f3 0f 1e fa          	endbr64 
   10370:	55                   	push   %rbp
   10371:	48 89 e5             	mov    %rsp,%rbp
   10374:	89 f8                	mov    %edi,%eax
   10376:	89 75 f8             	mov    %esi,-0x8(%rbp)
   10379:	88 45 fc             	mov    %al,-0x4(%rbp)
   1037c:	80 7d fc 00          	cmpb   $0x0,-0x4(%rbp)
   10380:	78 15                	js     10397 <safe_rshift_func_int8_t_s_u+0x2b>
   10382:	83 7d f8 1f          	cmpl   $0x1f,-0x8(%rbp)
   10386:	77 0f                	ja     10397 <safe_rshift_func_int8_t_s_u+0x2b>
   10388:	0f be 55 fc          	movsbl -0x4(%rbp),%edx
   1038c:	8b 45 f8             	mov    -0x8(%rbp),%eax
   1038f:	89 c1                	mov    %eax,%ecx
   10391:	d3 fa                	sar    %cl,%edx
   10393:	89 d0                	mov    %edx,%eax
   10395:	eb 04                	jmp    1039b <safe_rshift_func_int8_t_s_u+0x2f>
   10397:	0f b6 45 fc          	movzbl -0x4(%rbp),%eax
   1039b:	5d                   	pop    %rbp
   1039c:	c3                   	retq   

000000000001039d <safe_unary_minus_func_int16_t_s>:
   1039d:	f3 0f 1e fa          	endbr64 
   103a1:	55                   	push   %rbp
   103a2:	48 89 e5             	mov    %rsp,%rbp
   103a5:	89 f8                	mov    %edi,%eax
   103a7:	66 89 45 fc          	mov    %ax,-0x4(%rbp)
   103ab:	0f b7 45 fc          	movzwl -0x4(%rbp),%eax
   103af:	f7 d8                	neg    %eax
   103b1:	5d                   	pop    %rbp
   103b2:	c3                   	retq   

00000000000103b3 <safe_add_func_int16_t_s_s>:
   103b3:	f3 0f 1e fa          	endbr64 
   103b7:	55                   	push   %rbp
   103b8:	48 89 e5             	mov    %rsp,%rbp
   103bb:	89 fa                	mov    %edi,%edx
   103bd:	89 f0                	mov    %esi,%eax
   103bf:	66 89 55 fc          	mov    %dx,-0x4(%rbp)
   103c3:	66 89 45 f8          	mov    %ax,-0x8(%rbp)
   103c7:	0f b7 55 fc          	movzwl -0x4(%rbp),%edx
   103cb:	0f b7 45 f8          	movzwl -0x8(%rbp),%eax
   103cf:	01 d0                	add    %edx,%eax
   103d1:	5d                   	pop    %rbp
   103d2:	c3                   	retq   

00000000000103d3 <safe_sub_func_int16_t_s_s>:
   103d3:	f3 0f 1e fa          	endbr64 
   103d7:	55                   	push   %rbp
   103d8:	48 89 e5             	mov    %rsp,%rbp
   103db:	89 fa                	mov    %edi,%edx
   103dd:	89 f0                	mov    %esi,%eax
   103df:	66 89 55 fc          	mov    %dx,-0x4(%rbp)
   103e3:	66 89 45 f8          	mov    %ax,-0x8(%rbp)
   103e7:	0f b7 55 fc          	movzwl -0x4(%rbp),%edx
   103eb:	0f b7 45 f8          	movzwl -0x8(%rbp),%eax
   103ef:	29 c2                	sub    %eax,%edx
   103f1:	89 d0                	mov    %edx,%eax
   103f3:	5d                   	pop    %rbp
   103f4:	c3                   	retq   

00000000000103f5 <safe_mul_func_int16_t_s_s>:
   103f5:	f3 0f 1e fa          	endbr64 
   103f9:	55                   	push   %rbp
   103fa:	48 89 e5             	mov    %rsp,%rbp
   103fd:	89 fa                	mov    %edi,%edx
   103ff:	89 f0                	mov    %esi,%eax
   10401:	66 89 55 fc          	mov    %dx,-0x4(%rbp)
   10405:	66 89 45 f8          	mov    %ax,-0x8(%rbp)
   10409:	0f b7 55 fc          	movzwl -0x4(%rbp),%edx
   1040d:	0f b7 45 f8          	movzwl -0x8(%rbp),%eax
   10411:	0f af c2             	imul   %edx,%eax
   10414:	5d                   	pop    %rbp
   10415:	c3                   	retq   

0000000000010416 <safe_mod_func_int16_t_s_s>:
   10416:	f3 0f 1e fa          	endbr64 
   1041a:	55                   	push   %rbp
   1041b:	48 89 e5             	mov    %rsp,%rbp
   1041e:	89 fa                	mov    %edi,%edx
   10420:	89 f0                	mov    %esi,%eax
   10422:	66 89 55 fc          	mov    %dx,-0x4(%rbp)
   10426:	66 89 45 f8          	mov    %ax,-0x8(%rbp)
   1042a:	66 83 7d f8 00       	cmpw   $0x0,-0x8(%rbp)
   1042f:	74 1e                	je     1044f <safe_mod_func_int16_t_s_s+0x39>
   10431:	66 81 7d fc 00 80    	cmpw   $0x8000,-0x4(%rbp)
   10437:	75 07                	jne    10440 <safe_mod_func_int16_t_s_s+0x2a>
   10439:	66 83 7d f8 ff       	cmpw   $0xffff,-0x8(%rbp)
   1043e:	74 0f                	je     1044f <safe_mod_func_int16_t_s_s+0x39>
   10440:	0f bf 45 fc          	movswl -0x4(%rbp),%eax
   10444:	0f bf 4d f8          	movswl -0x8(%rbp),%ecx
   10448:	99                   	cltd   
   10449:	f7 f9                	idiv   %ecx
   1044b:	89 d0                	mov    %edx,%eax
   1044d:	eb 04                	jmp    10453 <safe_mod_func_int16_t_s_s+0x3d>
   1044f:	0f b7 45 fc          	movzwl -0x4(%rbp),%eax
   10453:	5d                   	pop    %rbp
   10454:	c3                   	retq   

0000000000010455 <safe_div_func_int16_t_s_s>:
   10455:	f3 0f 1e fa          	endbr64 
   10459:	55                   	push   %rbp
   1045a:	48 89 e5             	mov    %rsp,%rbp
   1045d:	89 fa                	mov    %edi,%edx
   1045f:	89 f0                	mov    %esi,%eax
   10461:	66 89 55 fc          	mov    %dx,-0x4(%rbp)
   10465:	66 89 45 f8          	mov    %ax,-0x8(%rbp)
   10469:	66 83 7d f8 00       	cmpw   $0x0,-0x8(%rbp)
   1046e:	74 1c                	je     1048c <safe_div_func_int16_t_s_s+0x37>
   10470:	66 81 7d fc 00 80    	cmpw   $0x8000,-0x4(%rbp)
   10476:	75 07                	jne    1047f <safe_div_func_int16_t_s_s+0x2a>
   10478:	66 83 7d f8 ff       	cmpw   $0xffff,-0x8(%rbp)
   1047d:	74 0d                	je     1048c <safe_div_func_int16_t_s_s+0x37>
   1047f:	0f bf 45 fc          	movswl -0x4(%rbp),%eax
   10483:	0f bf 4d f8          	movswl -0x8(%rbp),%ecx
   10487:	99                   	cltd   
   10488:	f7 f9                	idiv   %ecx
   1048a:	eb 04                	jmp    10490 <safe_div_func_int16_t_s_s+0x3b>
   1048c:	0f b7 45 fc          	movzwl -0x4(%rbp),%eax
   10490:	5d                   	pop    %rbp
   10491:	c3                   	retq   

0000000000010492 <safe_lshift_func_int16_t_s_s>:
   10492:	f3 0f 1e fa          	endbr64 
   10496:	55                   	push   %rbp
   10497:	48 89 e5             	mov    %rsp,%rbp
   1049a:	89 f8                	mov    %edi,%eax
   1049c:	89 75 f8             	mov    %esi,-0x8(%rbp)
   1049f:	66 89 45 fc          	mov    %ax,-0x4(%rbp)
   104a3:	66 83 7d fc 00       	cmpw   $0x0,-0x4(%rbp)
   104a8:	78 31                	js     104db <safe_lshift_func_int16_t_s_s+0x49>
   104aa:	83 7d f8 00          	cmpl   $0x0,-0x8(%rbp)
   104ae:	78 2b                	js     104db <safe_lshift_func_int16_t_s_s+0x49>
   104b0:	83 7d f8 1f          	cmpl   $0x1f,-0x8(%rbp)
   104b4:	7f 25                	jg     104db <safe_lshift_func_int16_t_s_s+0x49>
   104b6:	0f bf 55 fc          	movswl -0x4(%rbp),%edx
   104ba:	8b 45 f8             	mov    -0x8(%rbp),%eax
   104bd:	be ff 7f 00 00       	mov    $0x7fff,%esi
   104c2:	89 c1                	mov    %eax,%ecx
   104c4:	d3 fe                	sar    %cl,%esi
   104c6:	89 f0                	mov    %esi,%eax
   104c8:	39 c2                	cmp    %eax,%edx
   104ca:	7f 0f                	jg     104db <safe_lshift_func_int16_t_s_s+0x49>
   104cc:	0f bf 55 fc          	movswl -0x4(%rbp),%edx
   104d0:	8b 45 f8             	mov    -0x8(%rbp),%eax
   104d3:	89 c1                	mov    %eax,%ecx
   104d5:	d3 e2                	shl    %cl,%edx
   104d7:	89 d0                	mov    %edx,%eax
   104d9:	eb 04                	jmp    104df <safe_lshift_func_int16_t_s_s+0x4d>
   104db:	0f b7 45 fc          	movzwl -0x4(%rbp),%eax
   104df:	5d                   	pop    %rbp
   104e0:	c3                   	retq   

00000000000104e1 <safe_lshift_func_int16_t_s_u>:
   104e1:	f3 0f 1e fa          	endbr64 
   104e5:	55                   	push   %rbp
   104e6:	48 89 e5             	mov    %rsp,%rbp
   104e9:	89 f8                	mov    %edi,%eax
   104eb:	89 75 f8             	mov    %esi,-0x8(%rbp)
   104ee:	66 89 45 fc          	mov    %ax,-0x4(%rbp)
   104f2:	66 83 7d fc 00       	cmpw   $0x0,-0x4(%rbp)
   104f7:	78 2b                	js     10524 <safe_lshift_func_int16_t_s_u+0x43>
   104f9:	83 7d f8 1f          	cmpl   $0x1f,-0x8(%rbp)
   104fd:	77 25                	ja     10524 <safe_lshift_func_int16_t_s_u+0x43>
   104ff:	0f bf 55 fc          	movswl -0x4(%rbp),%edx
   10503:	8b 45 f8             	mov    -0x8(%rbp),%eax
   10506:	be ff 7f 00 00       	mov    $0x7fff,%esi
   1050b:	89 c1                	mov    %eax,%ecx
   1050d:	d3 fe                	sar    %cl,%esi
   1050f:	89 f0                	mov    %esi,%eax
   10511:	39 c2                	cmp    %eax,%edx
   10513:	7f 0f                	jg     10524 <safe_lshift_func_int16_t_s_u+0x43>
   10515:	0f bf 55 fc          	movswl -0x4(%rbp),%edx
   10519:	8b 45 f8             	mov    -0x8(%rbp),%eax
   1051c:	89 c1                	mov    %eax,%ecx
   1051e:	d3 e2                	shl    %cl,%edx
   10520:	89 d0                	mov    %edx,%eax
   10522:	eb 04                	jmp    10528 <safe_lshift_func_int16_t_s_u+0x47>
   10524:	0f b7 45 fc          	movzwl -0x4(%rbp),%eax
   10528:	5d                   	pop    %rbp
   10529:	c3                   	retq   

000000000001052a <safe_rshift_func_int16_t_s_s>:
   1052a:	f3 0f 1e fa          	endbr64 
   1052e:	55                   	push   %rbp
   1052f:	48 89 e5             	mov    %rsp,%rbp
   10532:	89 f8                	mov    %edi,%eax
   10534:	89 75 f8             	mov    %esi,-0x8(%rbp)
   10537:	66 89 45 fc          	mov    %ax,-0x4(%rbp)
   1053b:	66 83 7d fc 00       	cmpw   $0x0,-0x4(%rbp)
   10540:	78 1b                	js     1055d <safe_rshift_func_int16_t_s_s+0x33>
   10542:	83 7d f8 00          	cmpl   $0x0,-0x8(%rbp)
   10546:	78 15                	js     1055d <safe_rshift_func_int16_t_s_s+0x33>
   10548:	83 7d f8 1f          	cmpl   $0x1f,-0x8(%rbp)
   1054c:	7f 0f                	jg     1055d <safe_rshift_func_int16_t_s_s+0x33>
   1054e:	0f bf 55 fc          	movswl -0x4(%rbp),%edx
   10552:	8b 45 f8             	mov    -0x8(%rbp),%eax
   10555:	89 c1                	mov    %eax,%ecx
   10557:	d3 fa                	sar    %cl,%edx
   10559:	89 d0                	mov    %edx,%eax
   1055b:	eb 04                	jmp    10561 <safe_rshift_func_int16_t_s_s+0x37>
   1055d:	0f b7 45 fc          	movzwl -0x4(%rbp),%eax
   10561:	5d                   	pop    %rbp
   10562:	c3                   	retq   

0000000000010563 <safe_rshift_func_int16_t_s_u>:
   10563:	f3 0f 1e fa          	endbr64 
   10567:	55                   	push   %rbp
   10568:	48 89 e5             	mov    %rsp,%rbp
   1056b:	89 f8                	mov    %edi,%eax
   1056d:	89 75 f8             	mov    %esi,-0x8(%rbp)
   10570:	66 89 45 fc          	mov    %ax,-0x4(%rbp)
   10574:	66 83 7d fc 00       	cmpw   $0x0,-0x4(%rbp)
   10579:	78 15                	js     10590 <safe_rshift_func_int16_t_s_u+0x2d>
   1057b:	83 7d f8 1f          	cmpl   $0x1f,-0x8(%rbp)
   1057f:	77 0f                	ja     10590 <safe_rshift_func_int16_t_s_u+0x2d>
   10581:	0f bf 55 fc          	movswl -0x4(%rbp),%edx
   10585:	8b 45 f8             	mov    -0x8(%rbp),%eax
   10588:	89 c1                	mov    %eax,%ecx
   1058a:	d3 fa                	sar    %cl,%edx
   1058c:	89 d0                	mov    %edx,%eax
   1058e:	eb 04                	jmp    10594 <safe_rshift_func_int16_t_s_u+0x31>
   10590:	0f b7 45 fc          	movzwl -0x4(%rbp),%eax
   10594:	5d                   	pop    %rbp
   10595:	c3                   	retq   

0000000000010596 <safe_unary_minus_func_int32_t_s>:
   10596:	f3 0f 1e fa          	endbr64 
   1059a:	55                   	push   %rbp
   1059b:	48 89 e5             	mov    %rsp,%rbp
   1059e:	89 7d fc             	mov    %edi,-0x4(%rbp)
   105a1:	81 7d fc 00 00 00 80 	cmpl   $0x80000000,-0x4(%rbp)
   105a8:	74 07                	je     105b1 <safe_unary_minus_func_int32_t_s+0x1b>
   105aa:	8b 45 fc             	mov    -0x4(%rbp),%eax
   105ad:	f7 d8                	neg    %eax
   105af:	eb 03                	jmp    105b4 <safe_unary_minus_func_int32_t_s+0x1e>
   105b1:	8b 45 fc             	mov    -0x4(%rbp),%eax
   105b4:	5d                   	pop    %rbp
   105b5:	c3                   	retq   

00000000000105b6 <safe_add_func_int32_t_s_s>:
   105b6:	f3 0f 1e fa          	endbr64 
   105ba:	55                   	push   %rbp
   105bb:	48 89 e5             	mov    %rsp,%rbp
   105be:	89 7d fc             	mov    %edi,-0x4(%rbp)
   105c1:	89 75 f8             	mov    %esi,-0x8(%rbp)
   105c4:	83 7d fc 00          	cmpl   $0x0,-0x4(%rbp)
   105c8:	7e 13                	jle    105dd <safe_add_func_int32_t_s_s+0x27>
   105ca:	83 7d f8 00          	cmpl   $0x0,-0x8(%rbp)
   105ce:	7e 0d                	jle    105dd <safe_add_func_int32_t_s_s+0x27>
   105d0:	b8 ff ff ff 7f       	mov    $0x7fffffff,%eax
   105d5:	2b 45 f8             	sub    -0x8(%rbp),%eax
   105d8:	39 45 fc             	cmp    %eax,-0x4(%rbp)
   105db:	7f 23                	jg     10600 <safe_add_func_int32_t_s_s+0x4a>
   105dd:	83 7d fc 00          	cmpl   $0x0,-0x4(%rbp)
   105e1:	79 13                	jns    105f6 <safe_add_func_int32_t_s_s+0x40>
   105e3:	83 7d f8 00          	cmpl   $0x0,-0x8(%rbp)
   105e7:	79 0d                	jns    105f6 <safe_add_func_int32_t_s_s+0x40>
   105e9:	b8 00 00 00 80       	mov    $0x80000000,%eax
   105ee:	2b 45 f8             	sub    -0x8(%rbp),%eax
   105f1:	39 45 fc             	cmp    %eax,-0x4(%rbp)
   105f4:	7c 0a                	jl     10600 <safe_add_func_int32_t_s_s+0x4a>
   105f6:	8b 55 fc             	mov    -0x4(%rbp),%edx
   105f9:	8b 45 f8             	mov    -0x8(%rbp),%eax
   105fc:	01 d0                	add    %edx,%eax
   105fe:	eb 03                	jmp    10603 <safe_add_func_int32_t_s_s+0x4d>
   10600:	8b 45 fc             	mov    -0x4(%rbp),%eax
   10603:	5d                   	pop    %rbp
   10604:	c3                   	retq   

0000000000010605 <safe_sub_func_int32_t_s_s>:
   10605:	f3 0f 1e fa          	endbr64 
   10609:	55                   	push   %rbp
   1060a:	48 89 e5             	mov    %rsp,%rbp
   1060d:	89 7d fc             	mov    %edi,-0x4(%rbp)
   10610:	89 75 f8             	mov    %esi,-0x8(%rbp)
   10613:	8b 45 fc             	mov    -0x4(%rbp),%eax
   10616:	33 45 f8             	xor    -0x8(%rbp),%eax
   10619:	89 c2                	mov    %eax,%edx
   1061b:	8b 45 fc             	mov    -0x4(%rbp),%eax
   1061e:	33 45 f8             	xor    -0x8(%rbp),%eax
   10621:	25 00 00 00 80       	and    $0x80000000,%eax
   10626:	33 45 fc             	xor    -0x4(%rbp),%eax
   10629:	2b 45 f8             	sub    -0x8(%rbp),%eax
   1062c:	33 45 f8             	xor    -0x8(%rbp),%eax
   1062f:	21 d0                	and    %edx,%eax
   10631:	85 c0                	test   %eax,%eax
   10633:	78 08                	js     1063d <safe_sub_func_int32_t_s_s+0x38>
   10635:	8b 45 fc             	mov    -0x4(%rbp),%eax
   10638:	2b 45 f8             	sub    -0x8(%rbp),%eax
   1063b:	eb 03                	jmp    10640 <safe_sub_func_int32_t_s_s+0x3b>
   1063d:	8b 45 fc             	mov    -0x4(%rbp),%eax
   10640:	5d                   	pop    %rbp
   10641:	c3                   	retq   

0000000000010642 <safe_mul_func_int32_t_s_s>:
   10642:	f3 0f 1e fa          	endbr64 
   10646:	55                   	push   %rbp
   10647:	48 89 e5             	mov    %rsp,%rbp
   1064a:	89 7d fc             	mov    %edi,-0x4(%rbp)
   1064d:	89 75 f8             	mov    %esi,-0x8(%rbp)
   10650:	83 7d fc 00          	cmpl   $0x0,-0x4(%rbp)
   10654:	7e 14                	jle    1066a <safe_mul_func_int32_t_s_s+0x28>
   10656:	83 7d f8 00          	cmpl   $0x0,-0x8(%rbp)
   1065a:	7e 0e                	jle    1066a <safe_mul_func_int32_t_s_s+0x28>
   1065c:	b8 ff ff ff 7f       	mov    $0x7fffffff,%eax
   10661:	99                   	cltd   
   10662:	f7 7d f8             	idivl  -0x8(%rbp)
   10665:	39 45 fc             	cmp    %eax,-0x4(%rbp)
   10668:	7f 5d                	jg     106c7 <safe_mul_func_int32_t_s_s+0x85>
   1066a:	83 7d fc 00          	cmpl   $0x0,-0x4(%rbp)
   1066e:	7e 14                	jle    10684 <safe_mul_func_int32_t_s_s+0x42>
   10670:	83 7d f8 00          	cmpl   $0x0,-0x8(%rbp)
   10674:	7f 0e                	jg     10684 <safe_mul_func_int32_t_s_s+0x42>
   10676:	b8 00 00 00 80       	mov    $0x80000000,%eax
   1067b:	99                   	cltd   
   1067c:	f7 7d fc             	idivl  -0x4(%rbp)
   1067f:	39 45 f8             	cmp    %eax,-0x8(%rbp)
   10682:	7c 43                	jl     106c7 <safe_mul_func_int32_t_s_s+0x85>
   10684:	83 7d fc 00          	cmpl   $0x0,-0x4(%rbp)
   10688:	7f 14                	jg     1069e <safe_mul_func_int32_t_s_s+0x5c>
   1068a:	83 7d f8 00          	cmpl   $0x0,-0x8(%rbp)
   1068e:	7e 0e                	jle    1069e <safe_mul_func_int32_t_s_s+0x5c>
   10690:	b8 00 00 00 80       	mov    $0x80000000,%eax
   10695:	99                   	cltd   
   10696:	f7 7d f8             	idivl  -0x8(%rbp)
   10699:	39 45 fc             	cmp    %eax,-0x4(%rbp)
   1069c:	7c 29                	jl     106c7 <safe_mul_func_int32_t_s_s+0x85>
   1069e:	83 7d fc 00          	cmpl   $0x0,-0x4(%rbp)
   106a2:	7f 1a                	jg     106be <safe_mul_func_int32_t_s_s+0x7c>
   106a4:	83 7d f8 00          	cmpl   $0x0,-0x8(%rbp)
   106a8:	7f 14                	jg     106be <safe_mul_func_int32_t_s_s+0x7c>
   106aa:	83 7d fc 00          	cmpl   $0x0,-0x4(%rbp)
   106ae:	74 0e                	je     106be <safe_mul_func_int32_t_s_s+0x7c>
   106b0:	b8 ff ff ff 7f       	mov    $0x7fffffff,%eax
   106b5:	99                   	cltd   
   106b6:	f7 7d fc             	idivl  -0x4(%rbp)
   106b9:	39 45 f8             	cmp    %eax,-0x8(%rbp)
   106bc:	7c 09                	jl     106c7 <safe_mul_func_int32_t_s_s+0x85>
   106be:	8b 45 fc             	mov    -0x4(%rbp),%eax
   106c1:	0f af 45 f8          	imul   -0x8(%rbp),%eax
   106c5:	eb 03                	jmp    106ca <safe_mul_func_int32_t_s_s+0x88>
   106c7:	8b 45 fc             	mov    -0x4(%rbp),%eax
   106ca:	5d                   	pop    %rbp
   106cb:	c3                   	retq   

00000000000106cc <safe_mod_func_int32_t_s_s>:
   106cc:	f3 0f 1e fa          	endbr64 
   106d0:	55                   	push   %rbp
   106d1:	48 89 e5             	mov    %rsp,%rbp
   106d4:	89 7d fc             	mov    %edi,-0x4(%rbp)
   106d7:	89 75 f8             	mov    %esi,-0x8(%rbp)
   106da:	83 7d f8 00          	cmpl   $0x0,-0x8(%rbp)
   106de:	74 1a                	je     106fa <safe_mod_func_int32_t_s_s+0x2e>
   106e0:	81 7d fc 00 00 00 80 	cmpl   $0x80000000,-0x4(%rbp)
   106e7:	75 06                	jne    106ef <safe_mod_func_int32_t_s_s+0x23>
   106e9:	83 7d f8 ff          	cmpl   $0xffffffff,-0x8(%rbp)
   106ed:	74 0b                	je     106fa <safe_mod_func_int32_t_s_s+0x2e>
   106ef:	8b 45 fc             	mov    -0x4(%rbp),%eax
   106f2:	99                   	cltd   
   106f3:	f7 7d f8             	idivl  -0x8(%rbp)
   106f6:	89 d0                	mov    %edx,%eax
   106f8:	eb 03                	jmp    106fd <safe_mod_func_int32_t_s_s+0x31>
   106fa:	8b 45 fc             	mov    -0x4(%rbp),%eax
   106fd:	5d                   	pop    %rbp
   106fe:	c3                   	retq   

00000000000106ff <safe_div_func_int32_t_s_s>:
   106ff:	f3 0f 1e fa          	endbr64 
   10703:	55                   	push   %rbp
   10704:	48 89 e5             	mov    %rsp,%rbp
   10707:	89 7d fc             	mov    %edi,-0x4(%rbp)
   1070a:	89 75 f8             	mov    %esi,-0x8(%rbp)
   1070d:	83 7d f8 00          	cmpl   $0x0,-0x8(%rbp)
   10711:	74 18                	je     1072b <safe_div_func_int32_t_s_s+0x2c>
   10713:	81 7d fc 00 00 00 80 	cmpl   $0x80000000,-0x4(%rbp)
   1071a:	75 06                	jne    10722 <safe_div_func_int32_t_s_s+0x23>
   1071c:	83 7d f8 ff          	cmpl   $0xffffffff,-0x8(%rbp)
   10720:	74 09                	je     1072b <safe_div_func_int32_t_s_s+0x2c>
   10722:	8b 45 fc             	mov    -0x4(%rbp),%eax
   10725:	99                   	cltd   
   10726:	f7 7d f8             	idivl  -0x8(%rbp)
   10729:	eb 03                	jmp    1072e <safe_div_func_int32_t_s_s+0x2f>
   1072b:	8b 45 fc             	mov    -0x4(%rbp),%eax
   1072e:	5d                   	pop    %rbp
   1072f:	c3                   	retq   

0000000000010730 <safe_lshift_func_int32_t_s_s>:
   10730:	f3 0f 1e fa          	endbr64 
   10734:	55                   	push   %rbp
   10735:	48 89 e5             	mov    %rsp,%rbp
   10738:	89 7d fc             	mov    %edi,-0x4(%rbp)
   1073b:	89 75 f8             	mov    %esi,-0x8(%rbp)
   1073e:	83 7d fc 00          	cmpl   $0x0,-0x4(%rbp)
   10742:	78 2d                	js     10771 <safe_lshift_func_int32_t_s_s+0x41>
   10744:	83 7d f8 00          	cmpl   $0x0,-0x8(%rbp)
   10748:	78 27                	js     10771 <safe_lshift_func_int32_t_s_s+0x41>
   1074a:	83 7d f8 1f          	cmpl   $0x1f,-0x8(%rbp)
   1074e:	7f 21                	jg     10771 <safe_lshift_func_int32_t_s_s+0x41>
   10750:	8b 45 f8             	mov    -0x8(%rbp),%eax
   10753:	ba ff ff ff 7f       	mov    $0x7fffffff,%edx
   10758:	89 c1                	mov    %eax,%ecx
   1075a:	d3 fa                	sar    %cl,%edx
   1075c:	89 d0                	mov    %edx,%eax
   1075e:	39 45 fc             	cmp    %eax,-0x4(%rbp)
   10761:	7f 0e                	jg     10771 <safe_lshift_func_int32_t_s_s+0x41>
   10763:	8b 45 f8             	mov    -0x8(%rbp),%eax
   10766:	8b 55 fc             	mov    -0x4(%rbp),%edx
   10769:	89 c1                	mov    %eax,%ecx
   1076b:	d3 e2                	shl    %cl,%edx
   1076d:	89 d0                	mov    %edx,%eax
   1076f:	eb 03                	jmp    10774 <safe_lshift_func_int32_t_s_s+0x44>
   10771:	8b 45 fc             	mov    -0x4(%rbp),%eax
   10774:	5d                   	pop    %rbp
   10775:	c3                   	retq   

0000000000010776 <safe_lshift_func_int32_t_s_u>:
   10776:	f3 0f 1e fa          	endbr64 
   1077a:	55                   	push   %rbp
   1077b:	48 89 e5             	mov    %rsp,%rbp
   1077e:	89 7d fc             	mov    %edi,-0x4(%rbp)
   10781:	89 75 f8             	mov    %esi,-0x8(%rbp)
   10784:	83 7d fc 00          	cmpl   $0x0,-0x4(%rbp)
   10788:	78 27                	js     107b1 <safe_lshift_func_int32_t_s_u+0x3b>
   1078a:	83 7d f8 1f          	cmpl   $0x1f,-0x8(%rbp)
   1078e:	77 21                	ja     107b1 <safe_lshift_func_int32_t_s_u+0x3b>
   10790:	8b 45 f8             	mov    -0x8(%rbp),%eax
   10793:	ba ff ff ff 7f       	mov    $0x7fffffff,%edx
   10798:	89 c1                	mov    %eax,%ecx
   1079a:	d3 fa                	sar    %cl,%edx
   1079c:	89 d0                	mov    %edx,%eax
   1079e:	39 45 fc             	cmp    %eax,-0x4(%rbp)
   107a1:	7f 0e                	jg     107b1 <safe_lshift_func_int32_t_s_u+0x3b>
   107a3:	8b 45 f8             	mov    -0x8(%rbp),%eax
   107a6:	8b 55 fc             	mov    -0x4(%rbp),%edx
   107a9:	89 c1                	mov    %eax,%ecx
   107ab:	d3 e2                	shl    %cl,%edx
   107ad:	89 d0                	mov    %edx,%eax
   107af:	eb 03                	jmp    107b4 <safe_lshift_func_int32_t_s_u+0x3e>
   107b1:	8b 45 fc             	mov    -0x4(%rbp),%eax
   107b4:	5d                   	pop    %rbp
   107b5:	c3                   	retq   

00000000000107b6 <safe_rshift_func_int32_t_s_s>:
   107b6:	f3 0f 1e fa          	endbr64 
   107ba:	55                   	push   %rbp
   107bb:	48 89 e5             	mov    %rsp,%rbp
   107be:	89 7d fc             	mov    %edi,-0x4(%rbp)
   107c1:	89 75 f8             	mov    %esi,-0x8(%rbp)
   107c4:	83 7d fc 00          	cmpl   $0x0,-0x4(%rbp)
   107c8:	78 1a                	js     107e4 <safe_rshift_func_int32_t_s_s+0x2e>
   107ca:	83 7d f8 00          	cmpl   $0x0,-0x8(%rbp)
   107ce:	78 14                	js     107e4 <safe_rshift_func_int32_t_s_s+0x2e>
   107d0:	83 7d f8 1f          	cmpl   $0x1f,-0x8(%rbp)
   107d4:	7f 0e                	jg     107e4 <safe_rshift_func_int32_t_s_s+0x2e>
   107d6:	8b 45 f8             	mov    -0x8(%rbp),%eax
   107d9:	8b 55 fc             	mov    -0x4(%rbp),%edx
   107dc:	89 c1                	mov    %eax,%ecx
   107de:	d3 fa                	sar    %cl,%edx
   107e0:	89 d0                	mov    %edx,%eax
   107e2:	eb 03                	jmp    107e7 <safe_rshift_func_int32_t_s_s+0x31>
   107e4:	8b 45 fc             	mov    -0x4(%rbp),%eax
   107e7:	5d                   	pop    %rbp
   107e8:	c3                   	retq   

00000000000107e9 <safe_rshift_func_int32_t_s_u>:
   107e9:	f3 0f 1e fa          	endbr64 
   107ed:	55                   	push   %rbp
   107ee:	48 89 e5             	mov    %rsp,%rbp
   107f1:	89 7d fc             	mov    %edi,-0x4(%rbp)
   107f4:	89 75 f8             	mov    %esi,-0x8(%rbp)
   107f7:	83 7d fc 00          	cmpl   $0x0,-0x4(%rbp)
   107fb:	78 14                	js     10811 <safe_rshift_func_int32_t_s_u+0x28>
   107fd:	83 7d f8 1f          	cmpl   $0x1f,-0x8(%rbp)
   10801:	77 0e                	ja     10811 <safe_rshift_func_int32_t_s_u+0x28>
   10803:	8b 45 f8             	mov    -0x8(%rbp),%eax
   10806:	8b 55 fc             	mov    -0x4(%rbp),%edx
   10809:	89 c1                	mov    %eax,%ecx
   1080b:	d3 fa                	sar    %cl,%edx
   1080d:	89 d0                	mov    %edx,%eax
   1080f:	eb 03                	jmp    10814 <safe_rshift_func_int32_t_s_u+0x2b>
   10811:	8b 45 fc             	mov    -0x4(%rbp),%eax
   10814:	5d                   	pop    %rbp
   10815:	c3                   	retq   

0000000000010816 <safe_unary_minus_func_int64_t_s>:
   10816:	f3 0f 1e fa          	endbr64 
   1081a:	55                   	push   %rbp
   1081b:	48 89 e5             	mov    %rsp,%rbp
   1081e:	48 89 7d f8          	mov    %rdi,-0x8(%rbp)
   10822:	48 b8 00 00 00 00 00 	movabs $0x8000000000000000,%rax
   10829:	00 00 80 
   1082c:	48 39 45 f8          	cmp    %rax,-0x8(%rbp)
   10830:	74 09                	je     1083b <safe_unary_minus_func_int64_t_s+0x25>
   10832:	48 8b 45 f8          	mov    -0x8(%rbp),%rax
   10836:	48 f7 d8             	neg    %rax
   10839:	eb 04                	jmp    1083f <safe_unary_minus_func_int64_t_s+0x29>
   1083b:	48 8b 45 f8          	mov    -0x8(%rbp),%rax
   1083f:	5d                   	pop    %rbp
   10840:	c3                   	retq   

0000000000010841 <safe_add_func_int64_t_s_s>:
   10841:	f3 0f 1e fa          	endbr64 
   10845:	55                   	push   %rbp
   10846:	48 89 e5             	mov    %rsp,%rbp
   10849:	48 89 7d f8          	mov    %rdi,-0x8(%rbp)
   1084d:	48 89 75 f0          	mov    %rsi,-0x10(%rbp)
   10851:	48 83 7d f8 00       	cmpq   $0x0,-0x8(%rbp)
   10856:	7e 1b                	jle    10873 <safe_add_func_int64_t_s_s+0x32>
   10858:	48 83 7d f0 00       	cmpq   $0x0,-0x10(%rbp)
   1085d:	7e 14                	jle    10873 <safe_add_func_int64_t_s_s+0x32>
   1085f:	48 b8 ff ff ff ff ff 	movabs $0x7fffffffffffffff,%rax
   10866:	ff ff 7f 
   10869:	48 2b 45 f0          	sub    -0x10(%rbp),%rax
   1086d:	48 39 45 f8          	cmp    %rax,-0x8(%rbp)
   10871:	7f 2f                	jg     108a2 <safe_add_func_int64_t_s_s+0x61>
   10873:	48 83 7d f8 00       	cmpq   $0x0,-0x8(%rbp)
   10878:	79 1b                	jns    10895 <safe_add_func_int64_t_s_s+0x54>
   1087a:	48 83 7d f0 00       	cmpq   $0x0,-0x10(%rbp)
   1087f:	79 14                	jns    10895 <safe_add_func_int64_t_s_s+0x54>
   10881:	48 b8 00 00 00 00 00 	movabs $0x8000000000000000,%rax
   10888:	00 00 80 
   1088b:	48 2b 45 f0          	sub    -0x10(%rbp),%rax
   1088f:	48 39 45 f8          	cmp    %rax,-0x8(%rbp)
   10893:	7c 0d                	jl     108a2 <safe_add_func_int64_t_s_s+0x61>
   10895:	48 8b 55 f8          	mov    -0x8(%rbp),%rdx
   10899:	48 8b 45 f0          	mov    -0x10(%rbp),%rax
   1089d:	48 01 d0             	add    %rdx,%rax
   108a0:	eb 04                	jmp    108a6 <safe_add_func_int64_t_s_s+0x65>
   108a2:	48 8b 45 f8          	mov    -0x8(%rbp),%rax
   108a6:	5d                   	pop    %rbp
   108a7:	c3                   	retq   

00000000000108a8 <safe_sub_func_int64_t_s_s>:
   108a8:	f3 0f 1e fa          	endbr64 
   108ac:	55                   	push   %rbp
   108ad:	48 89 e5             	mov    %rsp,%rbp
   108b0:	48 89 7d f8          	mov    %rdi,-0x8(%rbp)
   108b4:	48 89 75 f0          	mov    %rsi,-0x10(%rbp)
   108b8:	48 8b 45 f8          	mov    -0x8(%rbp),%rax
   108bc:	48 33 45 f0          	xor    -0x10(%rbp),%rax
   108c0:	48 89 c2             	mov    %rax,%rdx
   108c3:	48 8b 45 f8          	mov    -0x8(%rbp),%rax
   108c7:	48 33 45 f0          	xor    -0x10(%rbp),%rax
   108cb:	48 b9 00 00 00 00 00 	movabs $0x8000000000000000,%rcx
   108d2:	00 00 80 
   108d5:	48 21 c8             	and    %rcx,%rax
   108d8:	48 33 45 f8          	xor    -0x8(%rbp),%rax
   108dc:	48 2b 45 f0          	sub    -0x10(%rbp),%rax
   108e0:	48 33 45 f0          	xor    -0x10(%rbp),%rax
   108e4:	48 21 d0             	and    %rdx,%rax
   108e7:	48 85 c0             	test   %rax,%rax
   108ea:	78 0a                	js     108f6 <safe_sub_func_int64_t_s_s+0x4e>
   108ec:	48 8b 45 f8          	mov    -0x8(%rbp),%rax
   108f0:	48 2b 45 f0          	sub    -0x10(%rbp),%rax
   108f4:	eb 04                	jmp    108fa <safe_sub_func_int64_t_s_s+0x52>
   108f6:	48 8b 45 f8          	mov    -0x8(%rbp),%rax
   108fa:	5d                   	pop    %rbp
   108fb:	c3                   	retq   

00000000000108fc <safe_mul_func_int64_t_s_s>:
   108fc:	f3 0f 1e fa          	endbr64 
   10900:	55                   	push   %rbp
   10901:	48 89 e5             	mov    %rsp,%rbp
   10904:	48 89 7d f8          	mov    %rdi,-0x8(%rbp)
   10908:	48 89 75 f0          	mov    %rsi,-0x10(%rbp)
   1090c:	48 83 7d f8 00       	cmpq   $0x0,-0x8(%rbp)
   10911:	7e 1d                	jle    10930 <safe_mul_func_int64_t_s_s+0x34>
   10913:	48 83 7d f0 00       	cmpq   $0x0,-0x10(%rbp)
   10918:	7e 16                	jle    10930 <safe_mul_func_int64_t_s_s+0x34>
   1091a:	48 b8 ff ff ff ff ff 	movabs $0x7fffffffffffffff,%rax
   10921:	ff ff 7f 
   10924:	48 99                	cqto   
   10926:	48 f7 7d f0          	idivq  -0x10(%rbp)
   1092a:	48 39 45 f8          	cmp    %rax,-0x8(%rbp)
   1092e:	7f 7e                	jg     109ae <safe_mul_func_int64_t_s_s+0xb2>
   10930:	48 83 7d f8 00       	cmpq   $0x0,-0x8(%rbp)
   10935:	7e 1d                	jle    10954 <safe_mul_func_int64_t_s_s+0x58>
   10937:	48 83 7d f0 00       	cmpq   $0x0,-0x10(%rbp)
   1093c:	7f 16                	jg     10954 <safe_mul_func_int64_t_s_s+0x58>
   1093e:	48 b8 00 00 00 00 00 	movabs $0x8000000000000000,%rax
   10945:	00 00 80 
   10948:	48 99                	cqto   
   1094a:	48 f7 7d f8          	idivq  -0x8(%rbp)
   1094e:	48 39 45 f0          	cmp    %rax,-0x10(%rbp)
   10952:	7c 5a                	jl     109ae <safe_mul_func_int64_t_s_s+0xb2>
   10954:	48 83 7d f8 00       	cmpq   $0x0,-0x8(%rbp)
   10959:	7f 1d                	jg     10978 <safe_mul_func_int64_t_s_s+0x7c>
   1095b:	48 83 7d f0 00       	cmpq   $0x0,-0x10(%rbp)
   10960:	7e 16                	jle    10978 <safe_mul_func_int64_t_s_s+0x7c>
   10962:	48 b8 00 00 00 00 00 	movabs $0x8000000000000000,%rax
   10969:	00 00 80 
   1096c:	48 99                	cqto   
   1096e:	48 f7 7d f0          	idivq  -0x10(%rbp)
   10972:	48 39 45 f8          	cmp    %rax,-0x8(%rbp)
   10976:	7c 36                	jl     109ae <safe_mul_func_int64_t_s_s+0xb2>
   10978:	48 83 7d f8 00       	cmpq   $0x0,-0x8(%rbp)
   1097d:	7f 24                	jg     109a3 <safe_mul_func_int64_t_s_s+0xa7>
   1097f:	48 83 7d f0 00       	cmpq   $0x0,-0x10(%rbp)
   10984:	7f 1d                	jg     109a3 <safe_mul_func_int64_t_s_s+0xa7>
   10986:	48 83 7d f8 00       	cmpq   $0x0,-0x8(%rbp)
   1098b:	74 16                	je     109a3 <safe_mul_func_int64_t_s_s+0xa7>
   1098d:	48 b8 ff ff ff ff ff 	movabs $0x7fffffffffffffff,%rax
   10994:	ff ff 7f 
   10997:	48 99                	cqto   
   10999:	48 f7 7d f8          	idivq  -0x8(%rbp)
   1099d:	48 39 45 f0          	cmp    %rax,-0x10(%rbp)
   109a1:	7c 0b                	jl     109ae <safe_mul_func_int64_t_s_s+0xb2>
   109a3:	48 8b 45 f8          	mov    -0x8(%rbp),%rax
   109a7:	48 0f af 45 f0       	imul   -0x10(%rbp),%rax
   109ac:	eb 04                	jmp    109b2 <safe_mul_func_int64_t_s_s+0xb6>
   109ae:	48 8b 45 f8          	mov    -0x8(%rbp),%rax
   109b2:	5d                   	pop    %rbp
   109b3:	c3                   	retq   

00000000000109b4 <safe_mod_func_int64_t_s_s>:
   109b4:	f3 0f 1e fa          	endbr64 
   109b8:	55                   	push   %rbp
   109b9:	48 89 e5             	mov    %rsp,%rbp
   109bc:	48 89 7d f8          	mov    %rdi,-0x8(%rbp)
   109c0:	48 89 75 f0          	mov    %rsi,-0x10(%rbp)
   109c4:	48 83 7d f0 00       	cmpq   $0x0,-0x10(%rbp)
   109c9:	74 26                	je     109f1 <safe_mod_func_int64_t_s_s+0x3d>
   109cb:	48 b8 00 00 00 00 00 	movabs $0x8000000000000000,%rax
   109d2:	00 00 80 
   109d5:	48 39 45 f8          	cmp    %rax,-0x8(%rbp)
   109d9:	75 07                	jne    109e2 <safe_mod_func_int64_t_s_s+0x2e>
   109db:	48 83 7d f0 ff       	cmpq   $0xffffffffffffffff,-0x10(%rbp)
   109e0:	74 0f                	je     109f1 <safe_mod_func_int64_t_s_s+0x3d>
   109e2:	48 8b 45 f8          	mov    -0x8(%rbp),%rax
   109e6:	48 99                	cqto   
   109e8:	48 f7 7d f0          	idivq  -0x10(%rbp)
   109ec:	48 89 d0             	mov    %rdx,%rax
   109ef:	eb 04                	jmp    109f5 <safe_mod_func_int64_t_s_s+0x41>
   109f1:	48 8b 45 f8          	mov    -0x8(%rbp),%rax
   109f5:	5d                   	pop    %rbp
   109f6:	c3                   	retq   

00000000000109f7 <safe_div_func_int64_t_s_s>:
   109f7:	f3 0f 1e fa          	endbr64 
   109fb:	55                   	push   %rbp
   109fc:	48 89 e5             	mov    %rsp,%rbp
   109ff:	48 89 7d f8          	mov    %rdi,-0x8(%rbp)
   10a03:	48 89 75 f0          	mov    %rsi,-0x10(%rbp)
   10a07:	48 83 7d f0 00       	cmpq   $0x0,-0x10(%rbp)
   10a0c:	74 23                	je     10a31 <safe_div_func_int64_t_s_s+0x3a>
   10a0e:	48 b8 00 00 00 00 00 	movabs $0x8000000000000000,%rax
   10a15:	00 00 80 
   10a18:	48 39 45 f8          	cmp    %rax,-0x8(%rbp)
   10a1c:	75 07                	jne    10a25 <safe_div_func_int64_t_s_s+0x2e>
   10a1e:	48 83 7d f0 ff       	cmpq   $0xffffffffffffffff,-0x10(%rbp)
   10a23:	74 0c                	je     10a31 <safe_div_func_int64_t_s_s+0x3a>
   10a25:	48 8b 45 f8          	mov    -0x8(%rbp),%rax
   10a29:	48 99                	cqto   
   10a2b:	48 f7 7d f0          	idivq  -0x10(%rbp)
   10a2f:	eb 04                	jmp    10a35 <safe_div_func_int64_t_s_s+0x3e>
   10a31:	48 8b 45 f8          	mov    -0x8(%rbp),%rax
   10a35:	5d                   	pop    %rbp
   10a36:	c3                   	retq   

0000000000010a37 <safe_lshift_func_int64_t_s_s>:
   10a37:	f3 0f 1e fa          	endbr64 
   10a3b:	55                   	push   %rbp
   10a3c:	48 89 e5             	mov    %rsp,%rbp
   10a3f:	48 89 7d f8          	mov    %rdi,-0x8(%rbp)
   10a43:	89 75 f4             	mov    %esi,-0xc(%rbp)
   10a46:	48 83 7d f8 00       	cmpq   $0x0,-0x8(%rbp)
   10a4b:	78 38                	js     10a85 <safe_lshift_func_int64_t_s_s+0x4e>
   10a4d:	83 7d f4 00          	cmpl   $0x0,-0xc(%rbp)
   10a51:	78 32                	js     10a85 <safe_lshift_func_int64_t_s_s+0x4e>
   10a53:	83 7d f4 1f          	cmpl   $0x1f,-0xc(%rbp)
   10a57:	7f 2c                	jg     10a85 <safe_lshift_func_int64_t_s_s+0x4e>
   10a59:	8b 45 f4             	mov    -0xc(%rbp),%eax
   10a5c:	48 ba ff ff ff ff ff 	movabs $0x7fffffffffffffff,%rdx
   10a63:	ff ff 7f 
   10a66:	89 c1                	mov    %eax,%ecx
   10a68:	48 d3 fa             	sar    %cl,%rdx
   10a6b:	48 89 d0             	mov    %rdx,%rax
   10a6e:	48 39 45 f8          	cmp    %rax,-0x8(%rbp)
   10a72:	7f 11                	jg     10a85 <safe_lshift_func_int64_t_s_s+0x4e>
   10a74:	8b 45 f4             	mov    -0xc(%rbp),%eax
   10a77:	48 8b 55 f8          	mov    -0x8(%rbp),%rdx
   10a7b:	89 c1                	mov    %eax,%ecx
   10a7d:	48 d3 e2             	shl    %cl,%rdx
   10a80:	48 89 d0             	mov    %rdx,%rax
   10a83:	eb 04                	jmp    10a89 <safe_lshift_func_int64_t_s_s+0x52>
   10a85:	48 8b 45 f8          	mov    -0x8(%rbp),%rax
   10a89:	5d                   	pop    %rbp
   10a8a:	c3                   	retq   

0000000000010a8b <safe_lshift_func_int64_t_s_u>:
   10a8b:	f3 0f 1e fa          	endbr64 
   10a8f:	55                   	push   %rbp
   10a90:	48 89 e5             	mov    %rsp,%rbp
   10a93:	48 89 7d f8          	mov    %rdi,-0x8(%rbp)
   10a97:	89 75 f4             	mov    %esi,-0xc(%rbp)
   10a9a:	48 83 7d f8 00       	cmpq   $0x0,-0x8(%rbp)
   10a9f:	78 32                	js     10ad3 <safe_lshift_func_int64_t_s_u+0x48>
   10aa1:	83 7d f4 1f          	cmpl   $0x1f,-0xc(%rbp)
   10aa5:	77 2c                	ja     10ad3 <safe_lshift_func_int64_t_s_u+0x48>
   10aa7:	8b 45 f4             	mov    -0xc(%rbp),%eax
   10aaa:	48 ba ff ff ff ff ff 	movabs $0x7fffffffffffffff,%rdx
   10ab1:	ff ff 7f 
   10ab4:	89 c1                	mov    %eax,%ecx
   10ab6:	48 d3 fa             	sar    %cl,%rdx
   10ab9:	48 89 d0             	mov    %rdx,%rax
   10abc:	48 39 45 f8          	cmp    %rax,-0x8(%rbp)
   10ac0:	7f 11                	jg     10ad3 <safe_lshift_func_int64_t_s_u+0x48>
   10ac2:	8b 45 f4             	mov    -0xc(%rbp),%eax
   10ac5:	48 8b 55 f8          	mov    -0x8(%rbp),%rdx
   10ac9:	89 c1                	mov    %eax,%ecx
   10acb:	48 d3 e2             	shl    %cl,%rdx
   10ace:	48 89 d0             	mov    %rdx,%rax
   10ad1:	eb 04                	jmp    10ad7 <safe_lshift_func_int64_t_s_u+0x4c>
   10ad3:	48 8b 45 f8          	mov    -0x8(%rbp),%rax
   10ad7:	5d                   	pop    %rbp
   10ad8:	c3                   	retq   

0000000000010ad9 <safe_rshift_func_int64_t_s_s>:
   10ad9:	f3 0f 1e fa          	endbr64 
   10add:	55                   	push   %rbp
   10ade:	48 89 e5             	mov    %rsp,%rbp
   10ae1:	48 89 7d f8          	mov    %rdi,-0x8(%rbp)
   10ae5:	89 75 f4             	mov    %esi,-0xc(%rbp)
   10ae8:	48 83 7d f8 00       	cmpq   $0x0,-0x8(%rbp)
   10aed:	78 1d                	js     10b0c <safe_rshift_func_int64_t_s_s+0x33>
   10aef:	83 7d f4 00          	cmpl   $0x0,-0xc(%rbp)
   10af3:	78 17                	js     10b0c <safe_rshift_func_int64_t_s_s+0x33>
   10af5:	83 7d f4 1f          	cmpl   $0x1f,-0xc(%rbp)
   10af9:	7f 11                	jg     10b0c <safe_rshift_func_int64_t_s_s+0x33>
   10afb:	8b 45 f4             	mov    -0xc(%rbp),%eax
   10afe:	48 8b 55 f8          	mov    -0x8(%rbp),%rdx
   10b02:	89 c1                	mov    %eax,%ecx
   10b04:	48 d3 fa             	sar    %cl,%rdx
   10b07:	48 89 d0             	mov    %rdx,%rax
   10b0a:	eb 04                	jmp    10b10 <safe_rshift_func_int64_t_s_s+0x37>
   10b0c:	48 8b 45 f8          	mov    -0x8(%rbp),%rax
   10b10:	5d                   	pop    %rbp
   10b11:	c3                   	retq   

0000000000010b12 <safe_rshift_func_int64_t_s_u>:
   10b12:	f3 0f 1e fa          	endbr64 
   10b16:	55                   	push   %rbp
   10b17:	48 89 e5             	mov    %rsp,%rbp
   10b1a:	48 89 7d f8          	mov    %rdi,-0x8(%rbp)
   10b1e:	89 75 f4             	mov    %esi,-0xc(%rbp)
   10b21:	48 83 7d f8 00       	cmpq   $0x0,-0x8(%rbp)
   10b26:	78 17                	js     10b3f <safe_rshift_func_int64_t_s_u+0x2d>
   10b28:	83 7d f4 1f          	cmpl   $0x1f,-0xc(%rbp)
   10b2c:	77 11                	ja     10b3f <safe_rshift_func_int64_t_s_u+0x2d>
   10b2e:	8b 45 f4             	mov    -0xc(%rbp),%eax
   10b31:	48 8b 55 f8          	mov    -0x8(%rbp),%rdx
   10b35:	89 c1                	mov    %eax,%ecx
   10b37:	48 d3 fa             	sar    %cl,%rdx
   10b3a:	48 89 d0             	mov    %rdx,%rax
   10b3d:	eb 04                	jmp    10b43 <safe_rshift_func_int64_t_s_u+0x31>
   10b3f:	48 8b 45 f8          	mov    -0x8(%rbp),%rax
   10b43:	5d                   	pop    %rbp
   10b44:	c3                   	retq   

0000000000010b45 <safe_unary_minus_func_uint8_t_u>:
   10b45:	f3 0f 1e fa          	endbr64 
   10b49:	55                   	push   %rbp
   10b4a:	48 89 e5             	mov    %rsp,%rbp
   10b4d:	89 f8                	mov    %edi,%eax
   10b4f:	88 45 fc             	mov    %al,-0x4(%rbp)
   10b52:	0f b6 45 fc          	movzbl -0x4(%rbp),%eax
   10b56:	f7 d8                	neg    %eax
   10b58:	5d                   	pop    %rbp
   10b59:	c3                   	retq   

0000000000010b5a <safe_add_func_uint8_t_u_u>:
   10b5a:	f3 0f 1e fa          	endbr64 
   10b5e:	55                   	push   %rbp
   10b5f:	48 89 e5             	mov    %rsp,%rbp
   10b62:	89 fa                	mov    %edi,%edx
   10b64:	89 f0                	mov    %esi,%eax
   10b66:	88 55 fc             	mov    %dl,-0x4(%rbp)
   10b69:	88 45 f8             	mov    %al,-0x8(%rbp)
   10b6c:	0f b6 55 fc          	movzbl -0x4(%rbp),%edx
   10b70:	0f b6 45 f8          	movzbl -0x8(%rbp),%eax
   10b74:	01 d0                	add    %edx,%eax
   10b76:	5d                   	pop    %rbp
   10b77:	c3                   	retq   

0000000000010b78 <safe_sub_func_uint8_t_u_u>:
   10b78:	f3 0f 1e fa          	endbr64 
   10b7c:	55                   	push   %rbp
   10b7d:	48 89 e5             	mov    %rsp,%rbp
   10b80:	89 fa                	mov    %edi,%edx
   10b82:	89 f0                	mov    %esi,%eax
   10b84:	88 55 fc             	mov    %dl,-0x4(%rbp)
   10b87:	88 45 f8             	mov    %al,-0x8(%rbp)
   10b8a:	0f b6 45 fc          	movzbl -0x4(%rbp),%eax
   10b8e:	2a 45 f8             	sub    -0x8(%rbp),%al
   10b91:	5d                   	pop    %rbp
   10b92:	c3                   	retq   

0000000000010b93 <safe_mul_func_uint8_t_u_u>:
   10b93:	f3 0f 1e fa          	endbr64 
   10b97:	55                   	push   %rbp
   10b98:	48 89 e5             	mov    %rsp,%rbp
   10b9b:	89 fa                	mov    %edi,%edx
   10b9d:	89 f0                	mov    %esi,%eax
   10b9f:	88 55 fc             	mov    %dl,-0x4(%rbp)
   10ba2:	88 45 f8             	mov    %al,-0x8(%rbp)
   10ba5:	0f b6 45 fc          	movzbl -0x4(%rbp),%eax
   10ba9:	f6 65 f8             	mulb   -0x8(%rbp)
   10bac:	5d                   	pop    %rbp
   10bad:	c3                   	retq   

0000000000010bae <safe_mod_func_uint8_t_u_u>:
   10bae:	f3 0f 1e fa          	endbr64 
   10bb2:	55                   	push   %rbp
   10bb3:	48 89 e5             	mov    %rsp,%rbp
   10bb6:	89 fa                	mov    %edi,%edx
   10bb8:	89 f0                	mov    %esi,%eax
   10bba:	88 55 fc             	mov    %dl,-0x4(%rbp)
   10bbd:	88 45 f8             	mov    %al,-0x8(%rbp)
   10bc0:	80 7d f8 00          	cmpb   $0x0,-0x8(%rbp)
   10bc4:	74 0f                	je     10bd5 <safe_mod_func_uint8_t_u_u+0x27>
   10bc6:	0f b6 45 fc          	movzbl -0x4(%rbp),%eax
   10bca:	0f b6 c0             	movzbl %al,%eax
   10bcd:	f6 75 f8             	divb   -0x8(%rbp)
   10bd0:	0f b6 c4             	movzbl %ah,%eax
   10bd3:	eb 04                	jmp    10bd9 <safe_mod_func_uint8_t_u_u+0x2b>
   10bd5:	0f b6 45 fc          	movzbl -0x4(%rbp),%eax
   10bd9:	5d                   	pop    %rbp
   10bda:	c3                   	retq   

0000000000010bdb <safe_div_func_uint8_t_u_u>:
   10bdb:	f3 0f 1e fa          	endbr64 
   10bdf:	55                   	push   %rbp
   10be0:	48 89 e5             	mov    %rsp,%rbp
   10be3:	89 fa                	mov    %edi,%edx
   10be5:	89 f0                	mov    %esi,%eax
   10be7:	88 55 fc             	mov    %dl,-0x4(%rbp)
   10bea:	88 45 f8             	mov    %al,-0x8(%rbp)
   10bed:	80 7d f8 00          	cmpb   $0x0,-0x8(%rbp)
   10bf1:	74 0c                	je     10bff <safe_div_func_uint8_t_u_u+0x24>
   10bf3:	0f b6 45 fc          	movzbl -0x4(%rbp),%eax
   10bf7:	0f b6 c0             	movzbl %al,%eax
   10bfa:	f6 75 f8             	divb   -0x8(%rbp)
   10bfd:	eb 04                	jmp    10c03 <safe_div_func_uint8_t_u_u+0x28>
   10bff:	0f b6 45 fc          	movzbl -0x4(%rbp),%eax
   10c03:	5d                   	pop    %rbp
   10c04:	c3                   	retq   

0000000000010c05 <safe_lshift_func_uint8_t_u_s>:
   10c05:	f3 0f 1e fa          	endbr64 
   10c09:	55                   	push   %rbp
   10c0a:	48 89 e5             	mov    %rsp,%rbp
   10c0d:	89 f8                	mov    %edi,%eax
   10c0f:	89 75 f8             	mov    %esi,-0x8(%rbp)
   10c12:	88 45 fc             	mov    %al,-0x4(%rbp)
   10c15:	83 7d f8 00          	cmpl   $0x0,-0x8(%rbp)
   10c19:	78 2b                	js     10c46 <safe_lshift_func_uint8_t_u_s+0x41>
   10c1b:	83 7d f8 1f          	cmpl   $0x1f,-0x8(%rbp)
   10c1f:	7f 25                	jg     10c46 <safe_lshift_func_uint8_t_u_s+0x41>
   10c21:	0f b6 55 fc          	movzbl -0x4(%rbp),%edx
   10c25:	8b 45 f8             	mov    -0x8(%rbp),%eax
   10c28:	be ff 00 00 00       	mov    $0xff,%esi
   10c2d:	89 c1                	mov    %eax,%ecx
   10c2f:	d3 fe                	sar    %cl,%esi
   10c31:	89 f0                	mov    %esi,%eax
   10c33:	39 c2                	cmp    %eax,%edx
   10c35:	7f 0f                	jg     10c46 <safe_lshift_func_uint8_t_u_s+0x41>
   10c37:	0f b6 55 fc          	movzbl -0x4(%rbp),%edx
   10c3b:	8b 45 f8             	mov    -0x8(%rbp),%eax
   10c3e:	89 c1                	mov    %eax,%ecx
   10c40:	d3 e2                	shl    %cl,%edx
   10c42:	89 d0                	mov    %edx,%eax
   10c44:	eb 04                	jmp    10c4a <safe_lshift_func_uint8_t_u_s+0x45>
   10c46:	0f b6 45 fc          	movzbl -0x4(%rbp),%eax
   10c4a:	5d                   	pop    %rbp
   10c4b:	c3                   	retq   

0000000000010c4c <safe_lshift_func_uint8_t_u_u>:
   10c4c:	f3 0f 1e fa          	endbr64 
   10c50:	55                   	push   %rbp
   10c51:	48 89 e5             	mov    %rsp,%rbp
   10c54:	89 f8                	mov    %edi,%eax
   10c56:	89 75 f8             	mov    %esi,-0x8(%rbp)
   10c59:	88 45 fc             	mov    %al,-0x4(%rbp)
   10c5c:	83 7d f8 1f          	cmpl   $0x1f,-0x8(%rbp)
   10c60:	77 25                	ja     10c87 <safe_lshift_func_uint8_t_u_u+0x3b>
   10c62:	0f b6 55 fc          	movzbl -0x4(%rbp),%edx
   10c66:	8b 45 f8             	mov    -0x8(%rbp),%eax
   10c69:	be ff 00 00 00       	mov    $0xff,%esi
   10c6e:	89 c1                	mov    %eax,%ecx
   10c70:	d3 fe                	sar    %cl,%esi
   10c72:	89 f0                	mov    %esi,%eax
   10c74:	39 c2                	cmp    %eax,%edx
   10c76:	7f 0f                	jg     10c87 <safe_lshift_func_uint8_t_u_u+0x3b>
   10c78:	0f b6 55 fc          	movzbl -0x4(%rbp),%edx
   10c7c:	8b 45 f8             	mov    -0x8(%rbp),%eax
   10c7f:	89 c1                	mov    %eax,%ecx
   10c81:	d3 e2                	shl    %cl,%edx
   10c83:	89 d0                	mov    %edx,%eax
   10c85:	eb 04                	jmp    10c8b <safe_lshift_func_uint8_t_u_u+0x3f>
   10c87:	0f b6 45 fc          	movzbl -0x4(%rbp),%eax
   10c8b:	5d                   	pop    %rbp
   10c8c:	c3                   	retq   

0000000000010c8d <safe_rshift_func_uint8_t_u_s>:
   10c8d:	f3 0f 1e fa          	endbr64 
   10c91:	55                   	push   %rbp
   10c92:	48 89 e5             	mov    %rsp,%rbp
   10c95:	89 f8                	mov    %edi,%eax
   10c97:	89 75 f8             	mov    %esi,-0x8(%rbp)
   10c9a:	88 45 fc             	mov    %al,-0x4(%rbp)
   10c9d:	83 7d f8 00          	cmpl   $0x0,-0x8(%rbp)
   10ca1:	78 15                	js     10cb8 <safe_rshift_func_uint8_t_u_s+0x2b>
   10ca3:	83 7d f8 1f          	cmpl   $0x1f,-0x8(%rbp)
   10ca7:	7f 0f                	jg     10cb8 <safe_rshift_func_uint8_t_u_s+0x2b>
   10ca9:	0f b6 55 fc          	movzbl -0x4(%rbp),%edx
   10cad:	8b 45 f8             	mov    -0x8(%rbp),%eax
   10cb0:	89 c1                	mov    %eax,%ecx
   10cb2:	d3 fa                	sar    %cl,%edx
   10cb4:	89 d0                	mov    %edx,%eax
   10cb6:	eb 04                	jmp    10cbc <safe_rshift_func_uint8_t_u_s+0x2f>
   10cb8:	0f b6 45 fc          	movzbl -0x4(%rbp),%eax
   10cbc:	5d                   	pop    %rbp
   10cbd:	c3                   	retq   

0000000000010cbe <safe_rshift_func_uint8_t_u_u>:
   10cbe:	f3 0f 1e fa          	endbr64 
   10cc2:	55                   	push   %rbp
   10cc3:	48 89 e5             	mov    %rsp,%rbp
   10cc6:	89 f8                	mov    %edi,%eax
   10cc8:	89 75 f8             	mov    %esi,-0x8(%rbp)
   10ccb:	88 45 fc             	mov    %al,-0x4(%rbp)
   10cce:	83 7d f8 1f          	cmpl   $0x1f,-0x8(%rbp)
   10cd2:	77 0f                	ja     10ce3 <safe_rshift_func_uint8_t_u_u+0x25>
   10cd4:	0f b6 55 fc          	movzbl -0x4(%rbp),%edx
   10cd8:	8b 45 f8             	mov    -0x8(%rbp),%eax
   10cdb:	89 c1                	mov    %eax,%ecx
   10cdd:	d3 fa                	sar    %cl,%edx
   10cdf:	89 d0                	mov    %edx,%eax
   10ce1:	eb 04                	jmp    10ce7 <safe_rshift_func_uint8_t_u_u+0x29>
   10ce3:	0f b6 45 fc          	movzbl -0x4(%rbp),%eax
   10ce7:	5d                   	pop    %rbp
   10ce8:	c3                   	retq   

0000000000010ce9 <safe_unary_minus_func_uint16_t_u>:
   10ce9:	f3 0f 1e fa          	endbr64 
   10ced:	55                   	push   %rbp
   10cee:	48 89 e5             	mov    %rsp,%rbp
   10cf1:	89 f8                	mov    %edi,%eax
   10cf3:	66 89 45 fc          	mov    %ax,-0x4(%rbp)
   10cf7:	0f b7 45 fc          	movzwl -0x4(%rbp),%eax
   10cfb:	f7 d8                	neg    %eax
   10cfd:	5d                   	pop    %rbp
   10cfe:	c3                   	retq   

0000000000010cff <safe_add_func_uint16_t_u_u>:
   10cff:	f3 0f 1e fa          	endbr64 
   10d03:	55                   	push   %rbp
   10d04:	48 89 e5             	mov    %rsp,%rbp
   10d07:	89 fa                	mov    %edi,%edx
   10d09:	89 f0                	mov    %esi,%eax
   10d0b:	66 89 55 fc          	mov    %dx,-0x4(%rbp)
   10d0f:	66 89 45 f8          	mov    %ax,-0x8(%rbp)
   10d13:	0f b7 55 fc          	movzwl -0x4(%rbp),%edx
   10d17:	0f b7 45 f8          	movzwl -0x8(%rbp),%eax
   10d1b:	01 d0                	add    %edx,%eax
   10d1d:	5d                   	pop    %rbp
   10d1e:	c3                   	retq   

0000000000010d1f <safe_sub_func_uint16_t_u_u>:
   10d1f:	f3 0f 1e fa          	endbr64 
   10d23:	55                   	push   %rbp
   10d24:	48 89 e5             	mov    %rsp,%rbp
   10d27:	89 fa                	mov    %edi,%edx
   10d29:	89 f0                	mov    %esi,%eax
   10d2b:	66 89 55 fc          	mov    %dx,-0x4(%rbp)
   10d2f:	66 89 45 f8          	mov    %ax,-0x8(%rbp)
   10d33:	0f b7 45 fc          	movzwl -0x4(%rbp),%eax
   10d37:	66 2b 45 f8          	sub    -0x8(%rbp),%ax
   10d3b:	5d                   	pop    %rbp
   10d3c:	c3                   	retq   

0000000000010d3d <safe_mul_func_uint16_t_u_u>:
   10d3d:	f3 0f 1e fa          	endbr64 
   10d41:	55                   	push   %rbp
   10d42:	48 89 e5             	mov    %rsp,%rbp
   10d45:	89 fa                	mov    %edi,%edx
   10d47:	89 f0                	mov    %esi,%eax
   10d49:	66 89 55 fc          	mov    %dx,-0x4(%rbp)
   10d4d:	66 89 45 f8          	mov    %ax,-0x8(%rbp)
   10d51:	0f b7 45 fc          	movzwl -0x4(%rbp),%eax
   10d55:	66 0f af 45 f8       	imul   -0x8(%rbp),%ax
   10d5a:	5d                   	pop    %rbp
   10d5b:	c3                   	retq   

0000000000010d5c <safe_mod_func_uint16_t_u_u>:
   10d5c:	f3 0f 1e fa          	endbr64 
   10d60:	55                   	push   %rbp
   10d61:	48 89 e5             	mov    %rsp,%rbp
   10d64:	89 fa                	mov    %edi,%edx
   10d66:	89 f0                	mov    %esi,%eax
   10d68:	66 89 55 fc          	mov    %dx,-0x4(%rbp)
   10d6c:	66 89 45 f8          	mov    %ax,-0x8(%rbp)
   10d70:	66 83 7d f8 00       	cmpw   $0x0,-0x8(%rbp)
   10d75:	74 11                	je     10d88 <safe_mod_func_uint16_t_u_u+0x2c>
   10d77:	0f b7 45 fc          	movzwl -0x4(%rbp),%eax
   10d7b:	ba 00 00 00 00       	mov    $0x0,%edx
   10d80:	66 f7 75 f8          	divw   -0x8(%rbp)
   10d84:	89 d0                	mov    %edx,%eax
   10d86:	eb 04                	jmp    10d8c <safe_mod_func_uint16_t_u_u+0x30>
   10d88:	0f b7 45 fc          	movzwl -0x4(%rbp),%eax
   10d8c:	5d                   	pop    %rbp
   10d8d:	c3                   	retq   

0000000000010d8e <safe_div_func_uint16_t_u_u>:
   10d8e:	f3 0f 1e fa          	endbr64 
   10d92:	55                   	push   %rbp
   10d93:	48 89 e5             	mov    %rsp,%rbp
   10d96:	89 fa                	mov    %edi,%edx
   10d98:	89 f0                	mov    %esi,%eax
   10d9a:	66 89 55 fc          	mov    %dx,-0x4(%rbp)
   10d9e:	66 89 45 f8          	mov    %ax,-0x8(%rbp)
   10da2:	66 83 7d f8 00       	cmpw   $0x0,-0x8(%rbp)
   10da7:	74 0f                	je     10db8 <safe_div_func_uint16_t_u_u+0x2a>
   10da9:	0f b7 45 fc          	movzwl -0x4(%rbp),%eax
   10dad:	ba 00 00 00 00       	mov    $0x0,%edx
   10db2:	66 f7 75 f8          	divw   -0x8(%rbp)
   10db6:	eb 04                	jmp    10dbc <safe_div_func_uint16_t_u_u+0x2e>
   10db8:	0f b7 45 fc          	movzwl -0x4(%rbp),%eax
   10dbc:	5d                   	pop    %rbp
   10dbd:	c3                   	retq   

0000000000010dbe <safe_lshift_func_uint16_t_u_s>:
   10dbe:	f3 0f 1e fa          	endbr64 
   10dc2:	55                   	push   %rbp
   10dc3:	48 89 e5             	mov    %rsp,%rbp
   10dc6:	89 f8                	mov    %edi,%eax
   10dc8:	89 75 f8             	mov    %esi,-0x8(%rbp)
   10dcb:	66 89 45 fc          	mov    %ax,-0x4(%rbp)
   10dcf:	83 7d f8 00          	cmpl   $0x0,-0x8(%rbp)
   10dd3:	78 2b                	js     10e00 <safe_lshift_func_uint16_t_u_s+0x42>
   10dd5:	83 7d f8 1f          	cmpl   $0x1f,-0x8(%rbp)
   10dd9:	7f 25                	jg     10e00 <safe_lshift_func_uint16_t_u_s+0x42>
   10ddb:	0f b7 55 fc          	movzwl -0x4(%rbp),%edx
   10ddf:	8b 45 f8             	mov    -0x8(%rbp),%eax
   10de2:	be ff ff 00 00       	mov    $0xffff,%esi
   10de7:	89 c1                	mov    %eax,%ecx
   10de9:	d3 fe                	sar    %cl,%esi
   10deb:	89 f0                	mov    %esi,%eax
   10ded:	39 c2                	cmp    %eax,%edx
   10def:	7f 0f                	jg     10e00 <safe_lshift_func_uint16_t_u_s+0x42>
   10df1:	0f b7 55 fc          	movzwl -0x4(%rbp),%edx
   10df5:	8b 45 f8             	mov    -0x8(%rbp),%eax
   10df8:	89 c1                	mov    %eax,%ecx
   10dfa:	d3 e2                	shl    %cl,%edx
   10dfc:	89 d0                	mov    %edx,%eax
   10dfe:	eb 04                	jmp    10e04 <safe_lshift_func_uint16_t_u_s+0x46>
   10e00:	0f b7 45 fc          	movzwl -0x4(%rbp),%eax
   10e04:	5d                   	pop    %rbp
   10e05:	c3                   	retq   

0000000000010e06 <safe_lshift_func_uint16_t_u_u>:
   10e06:	f3 0f 1e fa          	endbr64 
   10e0a:	55                   	push   %rbp
   10e0b:	48 89 e5             	mov    %rsp,%rbp
   10e0e:	89 f8                	mov    %edi,%eax
   10e10:	89 75 f8             	mov    %esi,-0x8(%rbp)
   10e13:	66 89 45 fc          	mov    %ax,-0x4(%rbp)
   10e17:	83 7d f8 1f          	cmpl   $0x1f,-0x8(%rbp)
   10e1b:	77 25                	ja     10e42 <safe_lshift_func_uint16_t_u_u+0x3c>
   10e1d:	0f b7 55 fc          	movzwl -0x4(%rbp),%edx
   10e21:	8b 45 f8             	mov    -0x8(%rbp),%eax
   10e24:	be ff ff 00 00       	mov    $0xffff,%esi
   10e29:	89 c1                	mov    %eax,%ecx
   10e2b:	d3 fe                	sar    %cl,%esi
   10e2d:	89 f0                	mov    %esi,%eax
   10e2f:	39 c2                	cmp    %eax,%edx
   10e31:	7f 0f                	jg     10e42 <safe_lshift_func_uint16_t_u_u+0x3c>
   10e33:	0f b7 55 fc          	movzwl -0x4(%rbp),%edx
   10e37:	8b 45 f8             	mov    -0x8(%rbp),%eax
   10e3a:	89 c1                	mov    %eax,%ecx
   10e3c:	d3 e2                	shl    %cl,%edx
   10e3e:	89 d0                	mov    %edx,%eax
   10e40:	eb 04                	jmp    10e46 <safe_lshift_func_uint16_t_u_u+0x40>
   10e42:	0f b7 45 fc          	movzwl -0x4(%rbp),%eax
   10e46:	5d                   	pop    %rbp
   10e47:	c3                   	retq   

0000000000010e48 <safe_rshift_func_uint16_t_u_s>:
   10e48:	f3 0f 1e fa          	endbr64 
   10e4c:	55                   	push   %rbp
   10e4d:	48 89 e5             	mov    %rsp,%rbp
   10e50:	89 f8                	mov    %edi,%eax
   10e52:	89 75 f8             	mov    %esi,-0x8(%rbp)
   10e55:	66 89 45 fc          	mov    %ax,-0x4(%rbp)
   10e59:	83 7d f8 00          	cmpl   $0x0,-0x8(%rbp)
   10e5d:	78 15                	js     10e74 <safe_rshift_func_uint16_t_u_s+0x2c>
   10e5f:	83 7d f8 1f          	cmpl   $0x1f,-0x8(%rbp)
   10e63:	7f 0f                	jg     10e74 <safe_rshift_func_uint16_t_u_s+0x2c>
   10e65:	0f b7 55 fc          	movzwl -0x4(%rbp),%edx
   10e69:	8b 45 f8             	mov    -0x8(%rbp),%eax
   10e6c:	89 c1                	mov    %eax,%ecx
   10e6e:	d3 fa                	sar    %cl,%edx
   10e70:	89 d0                	mov    %edx,%eax
   10e72:	eb 04                	jmp    10e78 <safe_rshift_func_uint16_t_u_s+0x30>
   10e74:	0f b7 45 fc          	movzwl -0x4(%rbp),%eax
   10e78:	5d                   	pop    %rbp
   10e79:	c3                   	retq   

0000000000010e7a <safe_rshift_func_uint16_t_u_u>:
   10e7a:	f3 0f 1e fa          	endbr64 
   10e7e:	55                   	push   %rbp
   10e7f:	48 89 e5             	mov    %rsp,%rbp
   10e82:	89 f8                	mov    %edi,%eax
   10e84:	89 75 f8             	mov    %esi,-0x8(%rbp)
   10e87:	66 89 45 fc          	mov    %ax,-0x4(%rbp)
   10e8b:	83 7d f8 1f          	cmpl   $0x1f,-0x8(%rbp)
   10e8f:	77 0f                	ja     10ea0 <safe_rshift_func_uint16_t_u_u+0x26>
   10e91:	0f b7 55 fc          	movzwl -0x4(%rbp),%edx
   10e95:	8b 45 f8             	mov    -0x8(%rbp),%eax
   10e98:	89 c1                	mov    %eax,%ecx
   10e9a:	d3 fa                	sar    %cl,%edx
   10e9c:	89 d0                	mov    %edx,%eax
   10e9e:	eb 04                	jmp    10ea4 <safe_rshift_func_uint16_t_u_u+0x2a>
   10ea0:	0f b7 45 fc          	movzwl -0x4(%rbp),%eax
   10ea4:	5d                   	pop    %rbp
   10ea5:	c3                   	retq   

0000000000010ea6 <safe_unary_minus_func_uint32_t_u>:
   10ea6:	f3 0f 1e fa          	endbr64 
   10eaa:	55                   	push   %rbp
   10eab:	48 89 e5             	mov    %rsp,%rbp
   10eae:	89 7d fc             	mov    %edi,-0x4(%rbp)
   10eb1:	8b 45 fc             	mov    -0x4(%rbp),%eax
   10eb4:	f7 d8                	neg    %eax
   10eb6:	5d                   	pop    %rbp
   10eb7:	c3                   	retq   

0000000000010eb8 <safe_add_func_uint32_t_u_u>:
   10eb8:	f3 0f 1e fa          	endbr64 
   10ebc:	55                   	push   %rbp
   10ebd:	48 89 e5             	mov    %rsp,%rbp
   10ec0:	89 7d fc             	mov    %edi,-0x4(%rbp)
   10ec3:	89 75 f8             	mov    %esi,-0x8(%rbp)
   10ec6:	8b 55 fc             	mov    -0x4(%rbp),%edx
   10ec9:	8b 45 f8             	mov    -0x8(%rbp),%eax
   10ecc:	01 d0                	add    %edx,%eax
   10ece:	5d                   	pop    %rbp
   10ecf:	c3                   	retq   

0000000000010ed0 <safe_sub_func_uint32_t_u_u>:
   10ed0:	f3 0f 1e fa          	endbr64 
   10ed4:	55                   	push   %rbp
   10ed5:	48 89 e5             	mov    %rsp,%rbp
   10ed8:	89 7d fc             	mov    %edi,-0x4(%rbp)
   10edb:	89 75 f8             	mov    %esi,-0x8(%rbp)
   10ede:	8b 45 fc             	mov    -0x4(%rbp),%eax
   10ee1:	2b 45 f8             	sub    -0x8(%rbp),%eax
   10ee4:	5d                   	pop    %rbp
   10ee5:	c3                   	retq   

0000000000010ee6 <safe_mul_func_uint32_t_u_u>:
   10ee6:	f3 0f 1e fa          	endbr64 
   10eea:	55                   	push   %rbp
   10eeb:	48 89 e5             	mov    %rsp,%rbp
   10eee:	89 7d fc             	mov    %edi,-0x4(%rbp)
   10ef1:	89 75 f8             	mov    %esi,-0x8(%rbp)
   10ef4:	8b 45 fc             	mov    -0x4(%rbp),%eax
   10ef7:	0f af 45 f8          	imul   -0x8(%rbp),%eax
   10efb:	5d                   	pop    %rbp
   10efc:	c3                   	retq   

0000000000010efd <safe_mod_func_uint32_t_u_u>:
   10efd:	f3 0f 1e fa          	endbr64 
   10f01:	55                   	push   %rbp
   10f02:	48 89 e5             	mov    %rsp,%rbp
   10f05:	89 7d fc             	mov    %edi,-0x4(%rbp)
   10f08:	89 75 f8             	mov    %esi,-0x8(%rbp)
   10f0b:	83 7d f8 00          	cmpl   $0x0,-0x8(%rbp)
   10f0f:	74 0f                	je     10f20 <safe_mod_func_uint32_t_u_u+0x23>
   10f11:	8b 45 fc             	mov    -0x4(%rbp),%eax
   10f14:	ba 00 00 00 00       	mov    $0x0,%edx
   10f19:	f7 75 f8             	divl   -0x8(%rbp)
   10f1c:	89 d0                	mov    %edx,%eax
   10f1e:	eb 03                	jmp    10f23 <safe_mod_func_uint32_t_u_u+0x26>
   10f20:	8b 45 fc             	mov    -0x4(%rbp),%eax
   10f23:	5d                   	pop    %rbp
   10f24:	c3                   	retq   

0000000000010f25 <safe_div_func_uint32_t_u_u>:
   10f25:	f3 0f 1e fa          	endbr64 
   10f29:	55                   	push   %rbp
   10f2a:	48 89 e5             	mov    %rsp,%rbp
   10f2d:	89 7d fc             	mov    %edi,-0x4(%rbp)
   10f30:	89 75 f8             	mov    %esi,-0x8(%rbp)
   10f33:	83 7d f8 00          	cmpl   $0x0,-0x8(%rbp)
   10f37:	74 0d                	je     10f46 <safe_div_func_uint32_t_u_u+0x21>
   10f39:	8b 45 fc             	mov    -0x4(%rbp),%eax
   10f3c:	ba 00 00 00 00       	mov    $0x0,%edx
   10f41:	f7 75 f8             	divl   -0x8(%rbp)
   10f44:	eb 03                	jmp    10f49 <safe_div_func_uint32_t_u_u+0x24>
   10f46:	8b 45 fc             	mov    -0x4(%rbp),%eax
   10f49:	5d                   	pop    %rbp
   10f4a:	c3                   	retq   

0000000000010f4b <safe_lshift_func_uint32_t_u_s>:
   10f4b:	f3 0f 1e fa          	endbr64 
   10f4f:	55                   	push   %rbp
   10f50:	48 89 e5             	mov    %rsp,%rbp
   10f53:	89 7d fc             	mov    %edi,-0x4(%rbp)
   10f56:	89 75 f8             	mov    %esi,-0x8(%rbp)
   10f59:	83 7d f8 00          	cmpl   $0x0,-0x8(%rbp)
   10f5d:	78 27                	js     10f86 <safe_lshift_func_uint32_t_u_s+0x3b>
   10f5f:	83 7d f8 1f          	cmpl   $0x1f,-0x8(%rbp)
   10f63:	7f 21                	jg     10f86 <safe_lshift_func_uint32_t_u_s+0x3b>
   10f65:	8b 45 f8             	mov    -0x8(%rbp),%eax
   10f68:	ba ff ff ff ff       	mov    $0xffffffff,%edx
   10f6d:	89 c1                	mov    %eax,%ecx
   10f6f:	d3 ea                	shr    %cl,%edx
   10f71:	89 d0                	mov    %edx,%eax
   10f73:	39 45 fc             	cmp    %eax,-0x4(%rbp)
   10f76:	77 0e                	ja     10f86 <safe_lshift_func_uint32_t_u_s+0x3b>
   10f78:	8b 45 f8             	mov    -0x8(%rbp),%eax
   10f7b:	8b 55 fc             	mov    -0x4(%rbp),%edx
   10f7e:	89 c1                	mov    %eax,%ecx
   10f80:	d3 e2                	shl    %cl,%edx
   10f82:	89 d0                	mov    %edx,%eax
   10f84:	eb 03                	jmp    10f89 <safe_lshift_func_uint32_t_u_s+0x3e>
   10f86:	8b 45 fc             	mov    -0x4(%rbp),%eax
   10f89:	5d                   	pop    %rbp
   10f8a:	c3                   	retq   

0000000000010f8b <safe_lshift_func_uint32_t_u_u>:
   10f8b:	f3 0f 1e fa          	endbr64 
   10f8f:	55                   	push   %rbp
   10f90:	48 89 e5             	mov    %rsp,%rbp
   10f93:	89 7d fc             	mov    %edi,-0x4(%rbp)
   10f96:	89 75 f8             	mov    %esi,-0x8(%rbp)
   10f99:	83 7d f8 1f          	cmpl   $0x1f,-0x8(%rbp)
   10f9d:	77 21                	ja     10fc0 <safe_lshift_func_uint32_t_u_u+0x35>
   10f9f:	8b 45 f8             	mov    -0x8(%rbp),%eax
   10fa2:	ba ff ff ff ff       	mov    $0xffffffff,%edx
   10fa7:	89 c1                	mov    %eax,%ecx
   10fa9:	d3 ea                	shr    %cl,%edx
   10fab:	89 d0                	mov    %edx,%eax
   10fad:	39 45 fc             	cmp    %eax,-0x4(%rbp)
   10fb0:	77 0e                	ja     10fc0 <safe_lshift_func_uint32_t_u_u+0x35>
   10fb2:	8b 45 f8             	mov    -0x8(%rbp),%eax
   10fb5:	8b 55 fc             	mov    -0x4(%rbp),%edx
   10fb8:	89 c1                	mov    %eax,%ecx
   10fba:	d3 e2                	shl    %cl,%edx
   10fbc:	89 d0                	mov    %edx,%eax
   10fbe:	eb 03                	jmp    10fc3 <safe_lshift_func_uint32_t_u_u+0x38>
   10fc0:	8b 45 fc             	mov    -0x4(%rbp),%eax
   10fc3:	5d                   	pop    %rbp
   10fc4:	c3                   	retq   

0000000000010fc5 <safe_rshift_func_uint32_t_u_s>:
   10fc5:	f3 0f 1e fa          	endbr64 
   10fc9:	55                   	push   %rbp
   10fca:	48 89 e5             	mov    %rsp,%rbp
   10fcd:	89 7d fc             	mov    %edi,-0x4(%rbp)
   10fd0:	89 75 f8             	mov    %esi,-0x8(%rbp)
   10fd3:	83 7d f8 00          	cmpl   $0x0,-0x8(%rbp)
   10fd7:	78 14                	js     10fed <safe_rshift_func_uint32_t_u_s+0x28>
   10fd9:	83 7d f8 1f          	cmpl   $0x1f,-0x8(%rbp)
   10fdd:	7f 0e                	jg     10fed <safe_rshift_func_uint32_t_u_s+0x28>
   10fdf:	8b 45 f8             	mov    -0x8(%rbp),%eax
   10fe2:	8b 55 fc             	mov    -0x4(%rbp),%edx
   10fe5:	89 c1                	mov    %eax,%ecx
   10fe7:	d3 ea                	shr    %cl,%edx
   10fe9:	89 d0                	mov    %edx,%eax
   10feb:	eb 03                	jmp    10ff0 <safe_rshift_func_uint32_t_u_s+0x2b>
   10fed:	8b 45 fc             	mov    -0x4(%rbp),%eax
   10ff0:	5d                   	pop    %rbp
   10ff1:	c3                   	retq   

0000000000010ff2 <safe_rshift_func_uint32_t_u_u>:
   10ff2:	f3 0f 1e fa          	endbr64 
   10ff6:	55                   	push   %rbp
   10ff7:	48 89 e5             	mov    %rsp,%rbp
   10ffa:	89 7d fc             	mov    %edi,-0x4(%rbp)
   10ffd:	89 75 f8             	mov    %esi,-0x8(%rbp)
   11000:	83 7d f8 1f          	cmpl   $0x1f,-0x8(%rbp)
   11004:	77 0e                	ja     11014 <safe_rshift_func_uint32_t_u_u+0x22>
   11006:	8b 45 f8             	mov    -0x8(%rbp),%eax
   11009:	8b 55 fc             	mov    -0x4(%rbp),%edx
   1100c:	89 c1                	mov    %eax,%ecx
   1100e:	d3 ea                	shr    %cl,%edx
   11010:	89 d0                	mov    %edx,%eax
   11012:	eb 03                	jmp    11017 <safe_rshift_func_uint32_t_u_u+0x25>
   11014:	8b 45 fc             	mov    -0x4(%rbp),%eax
   11017:	5d                   	pop    %rbp
   11018:	c3                   	retq   

0000000000011019 <safe_unary_minus_func_uint64_t_u>:
   11019:	f3 0f 1e fa          	endbr64 
   1101d:	55                   	push   %rbp
   1101e:	48 89 e5             	mov    %rsp,%rbp
   11021:	48 89 7d f8          	mov    %rdi,-0x8(%rbp)
   11025:	48 8b 45 f8          	mov    -0x8(%rbp),%rax
   11029:	48 f7 d8             	neg    %rax
   1102c:	5d                   	pop    %rbp
   1102d:	c3                   	retq   

000000000001102e <safe_add_func_uint64_t_u_u>:
   1102e:	f3 0f 1e fa          	endbr64 
   11032:	55                   	push   %rbp
   11033:	48 89 e5             	mov    %rsp,%rbp
   11036:	48 89 7d f8          	mov    %rdi,-0x8(%rbp)
   1103a:	48 89 75 f0          	mov    %rsi,-0x10(%rbp)
   1103e:	48 8b 55 f8          	mov    -0x8(%rbp),%rdx
   11042:	48 8b 45 f0          	mov    -0x10(%rbp),%rax
   11046:	48 01 d0             	add    %rdx,%rax
   11049:	5d                   	pop    %rbp
   1104a:	c3                   	retq   

000000000001104b <safe_sub_func_uint64_t_u_u>:
   1104b:	f3 0f 1e fa          	endbr64 
   1104f:	55                   	push   %rbp
   11050:	48 89 e5             	mov    %rsp,%rbp
   11053:	48 89 7d f8          	mov    %rdi,-0x8(%rbp)
   11057:	48 89 75 f0          	mov    %rsi,-0x10(%rbp)
   1105b:	48 8b 45 f8          	mov    -0x8(%rbp),%rax
   1105f:	48 2b 45 f0          	sub    -0x10(%rbp),%rax
   11063:	5d                   	pop    %rbp
   11064:	c3                   	retq   

0000000000011065 <safe_mul_func_uint64_t_u_u>:
   11065:	f3 0f 1e fa          	endbr64 
   11069:	55                   	push   %rbp
   1106a:	48 89 e5             	mov    %rsp,%rbp
   1106d:	48 89 7d f8          	mov    %rdi,-0x8(%rbp)
   11071:	48 89 75 f0          	mov    %rsi,-0x10(%rbp)
   11075:	48 8b 45 f8          	mov    -0x8(%rbp),%rax
   11079:	48 0f af 45 f0       	imul   -0x10(%rbp),%rax
   1107e:	5d                   	pop    %rbp
   1107f:	c3                   	retq   

0000000000011080 <safe_mod_func_uint64_t_u_u>:
   11080:	f3 0f 1e fa          	endbr64 
   11084:	55                   	push   %rbp
   11085:	48 89 e5             	mov    %rsp,%rbp
   11088:	48 89 7d f8          	mov    %rdi,-0x8(%rbp)
   1108c:	48 89 75 f0          	mov    %rsi,-0x10(%rbp)
   11090:	48 83 7d f0 00       	cmpq   $0x0,-0x10(%rbp)
   11095:	74 12                	je     110a9 <safe_mod_func_uint64_t_u_u+0x29>
   11097:	48 8b 45 f8          	mov    -0x8(%rbp),%rax
   1109b:	ba 00 00 00 00       	mov    $0x0,%edx
   110a0:	48 f7 75 f0          	divq   -0x10(%rbp)
   110a4:	48 89 d0             	mov    %rdx,%rax
   110a7:	eb 04                	jmp    110ad <safe_mod_func_uint64_t_u_u+0x2d>
   110a9:	48 8b 45 f8          	mov    -0x8(%rbp),%rax
   110ad:	5d                   	pop    %rbp
   110ae:	c3                   	retq   

00000000000110af <safe_div_func_uint64_t_u_u>:
   110af:	f3 0f 1e fa          	endbr64 
   110b3:	55                   	push   %rbp
   110b4:	48 89 e5             	mov    %rsp,%rbp
   110b7:	48 89 7d f8          	mov    %rdi,-0x8(%rbp)
   110bb:	48 89 75 f0          	mov    %rsi,-0x10(%rbp)
   110bf:	48 83 7d f0 00       	cmpq   $0x0,-0x10(%rbp)
   110c4:	74 0f                	je     110d5 <safe_div_func_uint64_t_u_u+0x26>
   110c6:	48 8b 45 f8          	mov    -0x8(%rbp),%rax
   110ca:	ba 00 00 00 00       	mov    $0x0,%edx
   110cf:	48 f7 75 f0          	divq   -0x10(%rbp)
   110d3:	eb 04                	jmp    110d9 <safe_div_func_uint64_t_u_u+0x2a>
   110d5:	48 8b 45 f8          	mov    -0x8(%rbp),%rax
   110d9:	5d                   	pop    %rbp
   110da:	c3                   	retq   

00000000000110db <safe_lshift_func_uint64_t_u_s>:
   110db:	f3 0f 1e fa          	endbr64 
   110df:	55                   	push   %rbp
   110e0:	48 89 e5             	mov    %rsp,%rbp
   110e3:	48 89 7d f8          	mov    %rdi,-0x8(%rbp)
   110e7:	89 75 f4             	mov    %esi,-0xc(%rbp)
   110ea:	83 7d f4 00          	cmpl   $0x0,-0xc(%rbp)
   110ee:	78 2f                	js     1111f <safe_lshift_func_uint64_t_u_s+0x44>
   110f0:	83 7d f4 1f          	cmpl   $0x1f,-0xc(%rbp)
   110f4:	7f 29                	jg     1111f <safe_lshift_func_uint64_t_u_s+0x44>
   110f6:	8b 45 f4             	mov    -0xc(%rbp),%eax
   110f9:	48 c7 c2 ff ff ff ff 	mov    $0xffffffffffffffff,%rdx
   11100:	89 c1                	mov    %eax,%ecx
   11102:	48 d3 ea             	shr    %cl,%rdx
   11105:	48 89 d0             	mov    %rdx,%rax
   11108:	48 39 45 f8          	cmp    %rax,-0x8(%rbp)
   1110c:	77 11                	ja     1111f <safe_lshift_func_uint64_t_u_s+0x44>
   1110e:	8b 45 f4             	mov    -0xc(%rbp),%eax
   11111:	48 8b 55 f8          	mov    -0x8(%rbp),%rdx
   11115:	89 c1                	mov    %eax,%ecx
   11117:	48 d3 e2             	shl    %cl,%rdx
   1111a:	48 89 d0             	mov    %rdx,%rax
   1111d:	eb 04                	jmp    11123 <safe_lshift_func_uint64_t_u_s+0x48>
   1111f:	48 8b 45 f8          	mov    -0x8(%rbp),%rax
   11123:	5d                   	pop    %rbp
   11124:	c3                   	retq   

0000000000011125 <safe_lshift_func_uint64_t_u_u>:
   11125:	f3 0f 1e fa          	endbr64 
   11129:	55                   	push   %rbp
   1112a:	48 89 e5             	mov    %rsp,%rbp
   1112d:	48 89 7d f8          	mov    %rdi,-0x8(%rbp)
   11131:	89 75 f4             	mov    %esi,-0xc(%rbp)
   11134:	83 7d f4 1f          	cmpl   $0x1f,-0xc(%rbp)
   11138:	77 29                	ja     11163 <safe_lshift_func_uint64_t_u_u+0x3e>
   1113a:	8b 45 f4             	mov    -0xc(%rbp),%eax
   1113d:	48 c7 c2 ff ff ff ff 	mov    $0xffffffffffffffff,%rdx
   11144:	89 c1                	mov    %eax,%ecx
   11146:	48 d3 ea             	shr    %cl,%rdx
   11149:	48 89 d0             	mov    %rdx,%rax
   1114c:	48 39 45 f8          	cmp    %rax,-0x8(%rbp)
   11150:	77 11                	ja     11163 <safe_lshift_func_uint64_t_u_u+0x3e>
   11152:	8b 45 f4             	mov    -0xc(%rbp),%eax
   11155:	48 8b 55 f8          	mov    -0x8(%rbp),%rdx
   11159:	89 c1                	mov    %eax,%ecx
   1115b:	48 d3 e2             	shl    %cl,%rdx
   1115e:	48 89 d0             	mov    %rdx,%rax
   11161:	eb 04                	jmp    11167 <safe_lshift_func_uint64_t_u_u+0x42>
   11163:	48 8b 45 f8          	mov    -0x8(%rbp),%rax
   11167:	5d                   	pop    %rbp
   11168:	c3                   	retq   

0000000000011169 <safe_rshift_func_uint64_t_u_s>:
   11169:	f3 0f 1e fa          	endbr64 
   1116d:	55                   	push   %rbp
   1116e:	48 89 e5             	mov    %rsp,%rbp
   11171:	48 89 7d f8          	mov    %rdi,-0x8(%rbp)
   11175:	89 75 f4             	mov    %esi,-0xc(%rbp)
   11178:	83 7d f4 00          	cmpl   $0x0,-0xc(%rbp)
   1117c:	78 17                	js     11195 <safe_rshift_func_uint64_t_u_s+0x2c>
   1117e:	83 7d f4 1f          	cmpl   $0x1f,-0xc(%rbp)
   11182:	7f 11                	jg     11195 <safe_rshift_func_uint64_t_u_s+0x2c>
   11184:	8b 45 f4             	mov    -0xc(%rbp),%eax
   11187:	48 8b 55 f8          	mov    -0x8(%rbp),%rdx
   1118b:	89 c1                	mov    %eax,%ecx
   1118d:	48 d3 ea             	shr    %cl,%rdx
   11190:	48 89 d0             	mov    %rdx,%rax
   11193:	eb 04                	jmp    11199 <safe_rshift_func_uint64_t_u_s+0x30>
   11195:	48 8b 45 f8          	mov    -0x8(%rbp),%rax
   11199:	5d                   	pop    %rbp
   1119a:	c3                   	retq   

000000000001119b <safe_rshift_func_uint64_t_u_u>:
   1119b:	f3 0f 1e fa          	endbr64 
   1119f:	55                   	push   %rbp
   111a0:	48 89 e5             	mov    %rsp,%rbp
   111a3:	48 89 7d f8          	mov    %rdi,-0x8(%rbp)
   111a7:	89 75 f4             	mov    %esi,-0xc(%rbp)
   111aa:	83 7d f4 1f          	cmpl   $0x1f,-0xc(%rbp)
   111ae:	77 11                	ja     111c1 <safe_rshift_func_uint64_t_u_u+0x26>
   111b0:	8b 45 f4             	mov    -0xc(%rbp),%eax
   111b3:	48 8b 55 f8          	mov    -0x8(%rbp),%rdx
   111b7:	89 c1                	mov    %eax,%ecx
   111b9:	48 d3 ea             	shr    %cl,%rdx
   111bc:	48 89 d0             	mov    %rdx,%rax
   111bf:	eb 04                	jmp    111c5 <safe_rshift_func_uint64_t_u_u+0x2a>
   111c1:	48 8b 45 f8          	mov    -0x8(%rbp),%rax
   111c5:	5d                   	pop    %rbp
   111c6:	c3                   	retq   

00000000000111c7 <safe_add_func_float_f_f>:
   111c7:	f3 0f 1e fa          	endbr64 
   111cb:	55                   	push   %rbp
   111cc:	48 89 e5             	mov    %rsp,%rbp
   111cf:	f3 0f 11 45 fc       	movss  %xmm0,-0x4(%rbp)
   111d4:	f3 0f 11 4d f8       	movss  %xmm1,-0x8(%rbp)
   111d9:	f3 0f 10 4d fc       	movss  -0x4(%rbp),%xmm1
   111de:	f3 0f 10 05 7e 2b 01 	movss  0x12b7e(%rip),%xmm0        # 23d64 <g_1760+0x1c04>
   111e5:	00 
   111e6:	f3 0f 59 c8          	mulss  %xmm0,%xmm1
   111ea:	f3 0f 10 55 f8       	movss  -0x8(%rbp),%xmm2
   111ef:	f3 0f 10 05 6d 2b 01 	movss  0x12b6d(%rip),%xmm0        # 23d64 <g_1760+0x1c04>
   111f6:	00 
   111f7:	f3 0f 59 c2          	mulss  %xmm2,%xmm0
   111fb:	f3 0f 58 c1          	addss  %xmm1,%xmm0
   111ff:	f3 0f 10 0d 69 2b 01 	movss  0x12b69(%rip),%xmm1        # 23d70 <g_1760+0x1c10>
   11206:	00 
   11207:	0f 54 c1             	andps  %xmm1,%xmm0
   1120a:	0f 2f 05 6f 2b 01 00 	comiss 0x12b6f(%rip),%xmm0        # 23d80 <g_1760+0x1c20>
   11211:	76 07                	jbe    1121a <safe_add_func_float_f_f+0x53>
   11213:	f3 0f 10 45 fc       	movss  -0x4(%rbp),%xmm0
   11218:	eb 0a                	jmp    11224 <safe_add_func_float_f_f+0x5d>
   1121a:	f3 0f 10 45 fc       	movss  -0x4(%rbp),%xmm0
   1121f:	f3 0f 58 45 f8       	addss  -0x8(%rbp),%xmm0
   11224:	5d                   	pop    %rbp
   11225:	c3                   	retq   

0000000000011226 <safe_sub_func_float_f_f>:
   11226:	f3 0f 1e fa          	endbr64 
   1122a:	55                   	push   %rbp
   1122b:	48 89 e5             	mov    %rsp,%rbp
   1122e:	f3 0f 11 45 fc       	movss  %xmm0,-0x4(%rbp)
   11233:	f3 0f 11 4d f8       	movss  %xmm1,-0x8(%rbp)
   11238:	f3 0f 10 4d fc       	movss  -0x4(%rbp),%xmm1
   1123d:	f3 0f 10 05 1f 2b 01 	movss  0x12b1f(%rip),%xmm0        # 23d64 <g_1760+0x1c04>
   11244:	00 
   11245:	f3 0f 59 c1          	mulss  %xmm1,%xmm0
   11249:	f3 0f 10 55 f8       	movss  -0x8(%rbp),%xmm2
   1124e:	f3 0f 10 0d 0e 2b 01 	movss  0x12b0e(%rip),%xmm1        # 23d64 <g_1760+0x1c04>
   11255:	00 
   11256:	f3 0f 59 ca          	mulss  %xmm2,%xmm1
   1125a:	f3 0f 5c c1          	subss  %xmm1,%xmm0
   1125e:	f3 0f 10 0d 0a 2b 01 	movss  0x12b0a(%rip),%xmm1        # 23d70 <g_1760+0x1c10>
   11265:	00 
   11266:	0f 54 c1             	andps  %xmm1,%xmm0
   11269:	0f 2f 05 10 2b 01 00 	comiss 0x12b10(%rip),%xmm0        # 23d80 <g_1760+0x1c20>
   11270:	76 07                	jbe    11279 <safe_sub_func_float_f_f+0x53>
   11272:	f3 0f 10 45 fc       	movss  -0x4(%rbp),%xmm0
   11277:	eb 0a                	jmp    11283 <safe_sub_func_float_f_f+0x5d>
   11279:	f3 0f 10 45 fc       	movss  -0x4(%rbp),%xmm0
   1127e:	f3 0f 5c 45 f8       	subss  -0x8(%rbp),%xmm0
   11283:	5d                   	pop    %rbp
   11284:	c3                   	retq   

0000000000011285 <safe_mul_func_float_f_f>:
   11285:	f3 0f 1e fa          	endbr64 
   11289:	55                   	push   %rbp
   1128a:	48 89 e5             	mov    %rsp,%rbp
   1128d:	f3 0f 11 45 fc       	movss  %xmm0,-0x4(%rbp)
   11292:	f3 0f 11 4d f8       	movss  %xmm1,-0x8(%rbp)
   11297:	f3 0f 10 4d fc       	movss  -0x4(%rbp),%xmm1
   1129c:	f3 0f 10 05 e0 2a 01 	movss  0x12ae0(%rip),%xmm0        # 23d84 <g_1760+0x1c24>
   112a3:	00 
   112a4:	f3 0f 59 c8          	mulss  %xmm0,%xmm1
   112a8:	f3 0f 10 55 f8       	movss  -0x8(%rbp),%xmm2
   112ad:	f3 0f 10 05 d3 2a 01 	movss  0x12ad3(%rip),%xmm0        # 23d88 <g_1760+0x1c28>
   112b4:	00 
   112b5:	f3 0f 59 c2          	mulss  %xmm2,%xmm0
   112b9:	f3 0f 59 c1          	mulss  %xmm1,%xmm0
   112bd:	f3 0f 10 0d ab 2a 01 	movss  0x12aab(%rip),%xmm1        # 23d70 <g_1760+0x1c10>
   112c4:	00 
   112c5:	0f 54 c1             	andps  %xmm1,%xmm0
   112c8:	0f 2f 05 bd 2a 01 00 	comiss 0x12abd(%rip),%xmm0        # 23d8c <g_1760+0x1c2c>
   112cf:	76 07                	jbe    112d8 <safe_mul_func_float_f_f+0x53>
   112d1:	f3 0f 10 45 fc       	movss  -0x4(%rbp),%xmm0
   112d6:	eb 0a                	jmp    112e2 <safe_mul_func_float_f_f+0x5d>
   112d8:	f3 0f 10 45 fc       	movss  -0x4(%rbp),%xmm0
   112dd:	f3 0f 59 45 f8       	mulss  -0x8(%rbp),%xmm0
   112e2:	5d                   	pop    %rbp
   112e3:	c3                   	retq   

00000000000112e4 <safe_div_func_float_f_f>:
   112e4:	f3 0f 1e fa          	endbr64 
   112e8:	55                   	push   %rbp
   112e9:	48 89 e5             	mov    %rsp,%rbp
   112ec:	f3 0f 11 45 fc       	movss  %xmm0,-0x4(%rbp)
   112f1:	f3 0f 11 4d f8       	movss  %xmm1,-0x8(%rbp)
   112f6:	f3 0f 10 45 f8       	movss  -0x8(%rbp),%xmm0
   112fb:	f3 0f 10 0d 6d 2a 01 	movss  0x12a6d(%rip),%xmm1        # 23d70 <g_1760+0x1c10>
   11302:	00 
   11303:	0f 54 c8             	andps  %xmm0,%xmm1
   11306:	f3 0f 10 05 82 2a 01 	movss  0x12a82(%rip),%xmm0        # 23d90 <g_1760+0x1c30>
   1130d:	00 
   1130e:	0f 2f c1             	comiss %xmm1,%xmm0
   11311:	0f 97 c0             	seta   %al
   11314:	83 f0 01             	xor    $0x1,%eax
   11317:	84 c0                	test   %al,%al
   11319:	75 56                	jne    11371 <safe_div_func_float_f_f+0x8d>
   1131b:	66 0f ef c0          	pxor   %xmm0,%xmm0
   1131f:	0f 2e 45 f8          	ucomiss -0x8(%rbp),%xmm0
   11323:	7a 0a                	jp     1132f <safe_div_func_float_f_f+0x4b>
   11325:	66 0f ef c0          	pxor   %xmm0,%xmm0
   11329:	0f 2e 45 f8          	ucomiss -0x8(%rbp),%xmm0
   1132d:	74 4e                	je     1137d <safe_div_func_float_f_f+0x99>
   1132f:	f3 0f 10 4d fc       	movss  -0x4(%rbp),%xmm1
   11334:	f3 0f 10 05 58 2a 01 	movss  0x12a58(%rip),%xmm0        # 23d94 <g_1760+0x1c34>
   1133b:	00 
   1133c:	f3 0f 59 c1          	mulss  %xmm1,%xmm0
   11340:	f3 0f 10 55 f8       	movss  -0x8(%rbp),%xmm2
   11345:	f3 0f 10 0d 4b 2a 01 	movss  0x12a4b(%rip),%xmm1        # 23d98 <g_1760+0x1c38>
   1134c:	00 
   1134d:	f3 0f 59 ca          	mulss  %xmm2,%xmm1
   11351:	f3 0f 5e c1          	divss  %xmm1,%xmm0
   11355:	f3 0f 10 0d 13 2a 01 	movss  0x12a13(%rip),%xmm1        # 23d70 <g_1760+0x1c10>
   1135c:	00 
   1135d:	0f 54 c1             	andps  %xmm1,%xmm0
   11360:	0f 2f 05 35 2a 01 00 	comiss 0x12a35(%rip),%xmm0        # 23d9c <g_1760+0x1c3c>
   11367:	0f 97 c0             	seta   %al
   1136a:	83 f0 01             	xor    $0x1,%eax
   1136d:	84 c0                	test   %al,%al
   1136f:	74 0c                	je     1137d <safe_div_func_float_f_f+0x99>
   11371:	f3 0f 10 45 fc       	movss  -0x4(%rbp),%xmm0
   11376:	f3 0f 5e 45 f8       	divss  -0x8(%rbp),%xmm0
   1137b:	eb 05                	jmp    11382 <safe_div_func_float_f_f+0x9e>
   1137d:	f3 0f 10 45 fc       	movss  -0x4(%rbp),%xmm0
   11382:	5d                   	pop    %rbp
   11383:	c3                   	retq   

0000000000011384 <safe_add_func_double_f_f>:
   11384:	f3 0f 1e fa          	endbr64 
   11388:	55                   	push   %rbp
   11389:	48 89 e5             	mov    %rsp,%rbp
   1138c:	f2 0f 11 45 f8       	movsd  %xmm0,-0x8(%rbp)
   11391:	f2 0f 11 4d f0       	movsd  %xmm1,-0x10(%rbp)
   11396:	f2 0f 10 4d f8       	movsd  -0x8(%rbp),%xmm1
   1139b:	f2 0f 10 05 fd 29 01 	movsd  0x129fd(%rip),%xmm0        # 23da0 <g_1760+0x1c40>
   113a2:	00 
   113a3:	f2 0f 59 c8          	mulsd  %xmm0,%xmm1
   113a7:	f2 0f 10 55 f0       	movsd  -0x10(%rbp),%xmm2
   113ac:	f2 0f 10 05 ec 29 01 	movsd  0x129ec(%rip),%xmm0        # 23da0 <g_1760+0x1c40>
   113b3:	00 
   113b4:	f2 0f 59 c2          	mulsd  %xmm2,%xmm0
   113b8:	f2 0f 58 c1          	addsd  %xmm1,%xmm0
   113bc:	f3 0f 7e 0d ec 29 01 	movq   0x129ec(%rip),%xmm1        # 23db0 <g_1760+0x1c50>
   113c3:	00 
   113c4:	66 0f 54 c1          	andpd  %xmm1,%xmm0
   113c8:	66 0f 2f 05 f0 29 01 	comisd 0x129f0(%rip),%xmm0        # 23dc0 <g_1760+0x1c60>
   113cf:	00 
   113d0:	76 07                	jbe    113d9 <safe_add_func_double_f_f+0x55>
   113d2:	f2 0f 10 45 f8       	movsd  -0x8(%rbp),%xmm0
   113d7:	eb 0a                	jmp    113e3 <safe_add_func_double_f_f+0x5f>
   113d9:	f2 0f 10 45 f8       	movsd  -0x8(%rbp),%xmm0
   113de:	f2 0f 58 45 f0       	addsd  -0x10(%rbp),%xmm0
   113e3:	5d                   	pop    %rbp
   113e4:	c3                   	retq   

00000000000113e5 <safe_sub_func_double_f_f>:
   113e5:	f3 0f 1e fa          	endbr64 
   113e9:	55                   	push   %rbp
   113ea:	48 89 e5             	mov    %rsp,%rbp
   113ed:	f2 0f 11 45 f8       	movsd  %xmm0,-0x8(%rbp)
   113f2:	f2 0f 11 4d f0       	movsd  %xmm1,-0x10(%rbp)
   113f7:	f2 0f 10 4d f8       	movsd  -0x8(%rbp),%xmm1
   113fc:	f2 0f 10 05 9c 29 01 	movsd  0x1299c(%rip),%xmm0        # 23da0 <g_1760+0x1c40>
   11403:	00 
   11404:	f2 0f 59 c1          	mulsd  %xmm1,%xmm0
   11408:	f2 0f 10 55 f0       	movsd  -0x10(%rbp),%xmm2
   1140d:	f2 0f 10 0d 8b 29 01 	movsd  0x1298b(%rip),%xmm1        # 23da0 <g_1760+0x1c40>
   11414:	00 
   11415:	f2 0f 59 ca          	mulsd  %xmm2,%xmm1
   11419:	f2 0f 5c c1          	subsd  %xmm1,%xmm0
   1141d:	f3 0f 7e 0d 8b 29 01 	movq   0x1298b(%rip),%xmm1        # 23db0 <g_1760+0x1c50>
   11424:	00 
   11425:	66 0f 54 c1          	andpd  %xmm1,%xmm0
   11429:	66 0f 2f 05 8f 29 01 	comisd 0x1298f(%rip),%xmm0        # 23dc0 <g_1760+0x1c60>
   11430:	00 
   11431:	76 07                	jbe    1143a <safe_sub_func_double_f_f+0x55>
   11433:	f2 0f 10 45 f8       	movsd  -0x8(%rbp),%xmm0
   11438:	eb 0a                	jmp    11444 <safe_sub_func_double_f_f+0x5f>
   1143a:	f2 0f 10 45 f8       	movsd  -0x8(%rbp),%xmm0
   1143f:	f2 0f 5c 45 f0       	subsd  -0x10(%rbp),%xmm0
   11444:	5d                   	pop    %rbp
   11445:	c3                   	retq   

0000000000011446 <safe_mul_func_double_f_f>:
   11446:	f3 0f 1e fa          	endbr64 
   1144a:	55                   	push   %rbp
   1144b:	48 89 e5             	mov    %rsp,%rbp
   1144e:	f2 0f 11 45 f8       	movsd  %xmm0,-0x8(%rbp)
   11453:	f2 0f 11 4d f0       	movsd  %xmm1,-0x10(%rbp)
   11458:	f2 0f 10 4d f8       	movsd  -0x8(%rbp),%xmm1
   1145d:	f2 0f 10 05 63 29 01 	movsd  0x12963(%rip),%xmm0        # 23dc8 <g_1760+0x1c68>
   11464:	00 
   11465:	f2 0f 59 c8          	mulsd  %xmm0,%xmm1
   11469:	f2 0f 10 55 f0       	movsd  -0x10(%rbp),%xmm2
   1146e:	f2 0f 10 05 5a 29 01 	movsd  0x1295a(%rip),%xmm0        # 23dd0 <g_1760+0x1c70>
   11475:	00 
   11476:	f2 0f 59 c2          	mulsd  %xmm2,%xmm0
   1147a:	f2 0f 59 c1          	mulsd  %xmm1,%xmm0
   1147e:	f3 0f 7e 0d 2a 29 01 	movq   0x1292a(%rip),%xmm1        # 23db0 <g_1760+0x1c50>
   11485:	00 
   11486:	66 0f 54 c1          	andpd  %xmm1,%xmm0
   1148a:	66 0f 2f 05 46 29 01 	comisd 0x12946(%rip),%xmm0        # 23dd8 <g_1760+0x1c78>
   11491:	00 
   11492:	76 07                	jbe    1149b <safe_mul_func_double_f_f+0x55>
   11494:	f2 0f 10 45 f8       	movsd  -0x8(%rbp),%xmm0
   11499:	eb 0a                	jmp    114a5 <safe_mul_func_double_f_f+0x5f>
   1149b:	f2 0f 10 45 f8       	movsd  -0x8(%rbp),%xmm0
   114a0:	f2 0f 59 45 f0       	mulsd  -0x10(%rbp),%xmm0
   114a5:	5d                   	pop    %rbp
   114a6:	c3                   	retq   

00000000000114a7 <safe_div_func_double_f_f>:
   114a7:	f3 0f 1e fa          	endbr64 
   114ab:	55                   	push   %rbp
   114ac:	48 89 e5             	mov    %rsp,%rbp
   114af:	f2 0f 11 45 f8       	movsd  %xmm0,-0x8(%rbp)
   114b4:	f2 0f 11 4d f0       	movsd  %xmm1,-0x10(%rbp)
   114b9:	f2 0f 10 45 f0       	movsd  -0x10(%rbp),%xmm0
   114be:	f3 0f 7e 0d ea 28 01 	movq   0x128ea(%rip),%xmm1        # 23db0 <g_1760+0x1c50>
   114c5:	00 
   114c6:	66 0f 54 c8          	andpd  %xmm0,%xmm1
   114ca:	f2 0f 10 05 0e 29 01 	movsd  0x1290e(%rip),%xmm0        # 23de0 <g_1760+0x1c80>
   114d1:	00 
   114d2:	66 0f 2f c1          	comisd %xmm1,%xmm0
   114d6:	0f 97 c0             	seta   %al
   114d9:	83 f0 01             	xor    $0x1,%eax
   114dc:	84 c0                	test   %al,%al
   114de:	75 5a                	jne    1153a <safe_div_func_double_f_f+0x93>
   114e0:	66 0f ef c0          	pxor   %xmm0,%xmm0
   114e4:	66 0f 2e 45 f0       	ucomisd -0x10(%rbp),%xmm0
   114e9:	7a 0b                	jp     114f6 <safe_div_func_double_f_f+0x4f>
   114eb:	66 0f ef c0          	pxor   %xmm0,%xmm0
   114ef:	66 0f 2e 45 f0       	ucomisd -0x10(%rbp),%xmm0
   114f4:	74 50                	je     11546 <safe_div_func_double_f_f+0x9f>
   114f6:	f2 0f 10 4d f8       	movsd  -0x8(%rbp),%xmm1
   114fb:	f2 0f 10 05 e5 28 01 	movsd  0x128e5(%rip),%xmm0        # 23de8 <g_1760+0x1c88>
   11502:	00 
   11503:	f2 0f 59 c1          	mulsd  %xmm1,%xmm0
   11507:	f2 0f 10 55 f0       	movsd  -0x10(%rbp),%xmm2
   1150c:	f2 0f 10 0d dc 28 01 	movsd  0x128dc(%rip),%xmm1        # 23df0 <g_1760+0x1c90>
   11513:	00 
   11514:	f2 0f 59 ca          	mulsd  %xmm2,%xmm1
   11518:	f2 0f 5e c1          	divsd  %xmm1,%xmm0
   1151c:	f3 0f 7e 0d 8c 28 01 	movq   0x1288c(%rip),%xmm1        # 23db0 <g_1760+0x1c50>
   11523:	00 
   11524:	66 0f 54 c1          	andpd  %xmm1,%xmm0
   11528:	66 0f 2f 05 c8 28 01 	comisd 0x128c8(%rip),%xmm0        # 23df8 <g_1760+0x1c98>
   1152f:	00 
   11530:	0f 97 c0             	seta   %al
   11533:	83 f0 01             	xor    $0x1,%eax
   11536:	84 c0                	test   %al,%al
   11538:	74 0c                	je     11546 <safe_div_func_double_f_f+0x9f>
   1153a:	f2 0f 10 45 f8       	movsd  -0x8(%rbp),%xmm0
   1153f:	f2 0f 5e 45 f0       	divsd  -0x10(%rbp),%xmm0
   11544:	eb 05                	jmp    1154b <safe_div_func_double_f_f+0xa4>
   11546:	f2 0f 10 45 f8       	movsd  -0x8(%rbp),%xmm0
   1154b:	5d                   	pop    %rbp
   1154c:	c3                   	retq   

000000000001154d <safe_convert_func_float_to_int32_t>:
   1154d:	f3 0f 1e fa          	endbr64 
   11551:	55                   	push   %rbp
   11552:	48 89 e5             	mov    %rsp,%rbp
   11555:	f3 0f 11 45 fc       	movss  %xmm0,-0x4(%rbp)
   1155a:	f3 0f 10 05 9e 28 01 	movss  0x1289e(%rip),%xmm0        # 23e00 <g_1760+0x1ca0>
   11561:	00 
   11562:	0f 2f 45 fc          	comiss -0x4(%rbp),%xmm0
   11566:	0f 93 c0             	setae  %al
   11569:	83 f0 01             	xor    $0x1,%eax
   1156c:	84 c0                	test   %al,%al
   1156e:	74 21                	je     11591 <safe_convert_func_float_to_int32_t+0x44>
   11570:	f3 0f 10 45 fc       	movss  -0x4(%rbp),%xmm0
   11575:	0f 2f 05 88 28 01 00 	comiss 0x12888(%rip),%xmm0        # 23e04 <g_1760+0x1ca4>
   1157c:	0f 93 c0             	setae  %al
   1157f:	83 f0 01             	xor    $0x1,%eax
   11582:	84 c0                	test   %al,%al
   11584:	74 0b                	je     11591 <safe_convert_func_float_to_int32_t+0x44>
   11586:	f3 0f 10 45 fc       	movss  -0x4(%rbp),%xmm0
   1158b:	f3 0f 2c c0          	cvttss2si %xmm0,%eax
   1158f:	eb 05                	jmp    11596 <safe_convert_func_float_to_int32_t+0x49>
   11591:	b8 ff ff ff 7f       	mov    $0x7fffffff,%eax
   11596:	5d                   	pop    %rbp
   11597:	c3                   	retq   

0000000000011598 <crc32_gentab>:
   11598:	f3 0f 1e fa          	endbr64 
   1159c:	55                   	push   %rbp
   1159d:	48 89 e5             	mov    %rsp,%rbp
   115a0:	c7 45 fc 20 83 b8 ed 	movl   $0xedb88320,-0x4(%rbp)
   115a7:	c7 45 f4 00 00 00 00 	movl   $0x0,-0xc(%rbp)
   115ae:	eb 51                	jmp    11601 <crc32_gentab+0x69>
   115b0:	8b 45 f4             	mov    -0xc(%rbp),%eax
   115b3:	89 45 f0             	mov    %eax,-0x10(%rbp)
   115b6:	c7 45 f8 08 00 00 00 	movl   $0x8,-0x8(%rbp)
   115bd:	eb 1e                	jmp    115dd <crc32_gentab+0x45>
   115bf:	8b 45 f0             	mov    -0x10(%rbp),%eax
   115c2:	83 e0 01             	and    $0x1,%eax
   115c5:	85 c0                	test   %eax,%eax
   115c7:	74 0d                	je     115d6 <crc32_gentab+0x3e>
   115c9:	8b 45 f0             	mov    -0x10(%rbp),%eax
   115cc:	d1 e8                	shr    %eax
   115ce:	33 45 fc             	xor    -0x4(%rbp),%eax
   115d1:	89 45 f0             	mov    %eax,-0x10(%rbp)
   115d4:	eb 03                	jmp    115d9 <crc32_gentab+0x41>
   115d6:	d1 6d f0             	shrl   -0x10(%rbp)
   115d9:	83 6d f8 01          	subl   $0x1,-0x8(%rbp)
   115dd:	83 7d f8 00          	cmpl   $0x0,-0x8(%rbp)
   115e1:	7f dc                	jg     115bf <crc32_gentab+0x27>
   115e3:	8b 45 f4             	mov    -0xc(%rbp),%eax
   115e6:	48 98                	cltq   
   115e8:	48 8d 0c 85 00 00 00 	lea    0x0(,%rax,4),%rcx
   115ef:	00 
   115f0:	48 8d 15 69 c0 01 00 	lea    0x1c069(%rip),%rdx        # 2d660 <crc32_tab>
   115f7:	8b 45 f0             	mov    -0x10(%rbp),%eax
   115fa:	89 04 11             	mov    %eax,(%rcx,%rdx,1)
   115fd:	83 45 f4 01          	addl   $0x1,-0xc(%rbp)
   11601:	81 7d f4 ff 00 00 00 	cmpl   $0xff,-0xc(%rbp)
   11608:	7e a6                	jle    115b0 <crc32_gentab+0x18>
   1160a:	90                   	nop
   1160b:	90                   	nop
   1160c:	5d                   	pop    %rbp
   1160d:	c3                   	retq   

000000000001160e <crc32_byte>:
   1160e:	f3 0f 1e fa          	endbr64 
   11612:	55                   	push   %rbp
   11613:	48 89 e5             	mov    %rsp,%rbp
   11616:	89 f8                	mov    %edi,%eax
   11618:	88 45 fc             	mov    %al,-0x4(%rbp)
   1161b:	8b 05 ff 59 01 00    	mov    0x159ff(%rip),%eax        # 27020 <crc32_context>
   11621:	c1 e8 08             	shr    $0x8,%eax
   11624:	89 c1                	mov    %eax,%ecx
   11626:	0f b6 55 fc          	movzbl -0x4(%rbp),%edx
   1162a:	8b 05 f0 59 01 00    	mov    0x159f0(%rip),%eax        # 27020 <crc32_context>
   11630:	31 d0                	xor    %edx,%eax
   11632:	0f b6 c0             	movzbl %al,%eax
   11635:	89 c0                	mov    %eax,%eax
   11637:	48 8d 14 85 00 00 00 	lea    0x0(,%rax,4),%rdx
   1163e:	00 
   1163f:	48 8d 05 1a c0 01 00 	lea    0x1c01a(%rip),%rax        # 2d660 <crc32_tab>
   11646:	8b 04 02             	mov    (%rdx,%rax,1),%eax
   11649:	31 c8                	xor    %ecx,%eax
   1164b:	89 05 cf 59 01 00    	mov    %eax,0x159cf(%rip)        # 27020 <crc32_context>
   11651:	90                   	nop
   11652:	5d                   	pop    %rbp
   11653:	c3                   	retq   

0000000000011654 <crc32_8bytes>:
   11654:	f3 0f 1e fa          	endbr64 
   11658:	55                   	push   %rbp
   11659:	48 89 e5             	mov    %rsp,%rbp
   1165c:	48 83 ec 08          	sub    $0x8,%rsp
   11660:	48 89 7d f8          	mov    %rdi,-0x8(%rbp)
   11664:	48 8b 45 f8          	mov    -0x8(%rbp),%rax
   11668:	0f b6 c0             	movzbl %al,%eax
   1166b:	89 c7                	mov    %eax,%edi
   1166d:	e8 9c ff ff ff       	callq  1160e <crc32_byte>
   11672:	48 8b 45 f8          	mov    -0x8(%rbp),%rax
   11676:	48 c1 e8 08          	shr    $0x8,%rax
   1167a:	0f b6 c0             	movzbl %al,%eax
   1167d:	89 c7                	mov    %eax,%edi
   1167f:	e8 8a ff ff ff       	callq  1160e <crc32_byte>
   11684:	48 8b 45 f8          	mov    -0x8(%rbp),%rax
   11688:	48 c1 e8 10          	shr    $0x10,%rax
   1168c:	0f b6 c0             	movzbl %al,%eax
   1168f:	89 c7                	mov    %eax,%edi
   11691:	e8 78 ff ff ff       	callq  1160e <crc32_byte>
   11696:	48 8b 45 f8          	mov    -0x8(%rbp),%rax
   1169a:	48 c1 e8 18          	shr    $0x18,%rax
   1169e:	0f b6 c0             	movzbl %al,%eax
   116a1:	89 c7                	mov    %eax,%edi
   116a3:	e8 66 ff ff ff       	callq  1160e <crc32_byte>
   116a8:	48 8b 45 f8          	mov    -0x8(%rbp),%rax
   116ac:	48 c1 e8 20          	shr    $0x20,%rax
   116b0:	0f b6 c0             	movzbl %al,%eax
   116b3:	89 c7                	mov    %eax,%edi
   116b5:	e8 54 ff ff ff       	callq  1160e <crc32_byte>
   116ba:	48 8b 45 f8          	mov    -0x8(%rbp),%rax
   116be:	48 c1 e8 28          	shr    $0x28,%rax
   116c2:	0f b6 c0             	movzbl %al,%eax
   116c5:	89 c7                	mov    %eax,%edi
   116c7:	e8 42 ff ff ff       	callq  1160e <crc32_byte>
   116cc:	48 8b 45 f8          	mov    -0x8(%rbp),%rax
   116d0:	48 c1 e8 30          	shr    $0x30,%rax
   116d4:	0f b6 c0             	movzbl %al,%eax
   116d7:	89 c7                	mov    %eax,%edi
   116d9:	e8 30 ff ff ff       	callq  1160e <crc32_byte>
   116de:	48 8b 45 f8          	mov    -0x8(%rbp),%rax
   116e2:	48 c1 e8 38          	shr    $0x38,%rax
   116e6:	0f b6 c0             	movzbl %al,%eax
   116e9:	89 c7                	mov    %eax,%edi
   116eb:	e8 1e ff ff ff       	callq  1160e <crc32_byte>
   116f0:	90                   	nop
   116f1:	c9                   	leaveq 
   116f2:	c3                   	retq   

00000000000116f3 <transparent_crc>:
   116f3:	f3 0f 1e fa          	endbr64 
   116f7:	55                   	push   %rbp
   116f8:	48 89 e5             	mov    %rsp,%rbp
   116fb:	48 83 ec 20          	sub    $0x20,%rsp
   116ff:	48 89 7d f8          	mov    %rdi,-0x8(%rbp)
   11703:	48 89 75 f0          	mov    %rsi,-0x10(%rbp)
   11707:	89 55 ec             	mov    %edx,-0x14(%rbp)
   1170a:	48 8b 45 f8          	mov    -0x8(%rbp),%rax
   1170e:	48 89 c7             	mov    %rax,%rdi
   11711:	e8 3e ff ff ff       	callq  11654 <crc32_8bytes>
   11716:	83 7d ec 00          	cmpl   $0x0,-0x14(%rbp)
   1171a:	74 22                	je     1173e <transparent_crc+0x4b>
   1171c:	8b 05 fe 58 01 00    	mov    0x158fe(%rip),%eax        # 27020 <crc32_context>
   11722:	f7 d0                	not    %eax
   11724:	89 c2                	mov    %eax,%edx
   11726:	48 8b 45 f0          	mov    -0x10(%rbp),%rax
   1172a:	48 89 c6             	mov    %rax,%rsi
   1172d:	48 8d 3d fc 08 01 00 	lea    0x108fc(%rip),%rdi        # 22030 <_IO_stdin_used+0x30>
   11734:	b8 00 00 00 00       	mov    $0x0,%eax
   11739:	e8 42 e9 ff ff       	callq  10080 <printf@plt>
   1173e:	90                   	nop
   1173f:	c9                   	leaveq 
   11740:	c3                   	retq   

0000000000011741 <transparent_crc_bytes>:
   11741:	f3 0f 1e fa          	endbr64 
   11745:	55                   	push   %rbp
   11746:	48 89 e5             	mov    %rsp,%rbp
   11749:	48 83 ec 30          	sub    $0x30,%rsp
   1174d:	48 89 7d e8          	mov    %rdi,-0x18(%rbp)
   11751:	89 75 e4             	mov    %esi,-0x1c(%rbp)
   11754:	48 89 55 d8          	mov    %rdx,-0x28(%rbp)
   11758:	89 4d e0             	mov    %ecx,-0x20(%rbp)
   1175b:	c7 45 fc 00 00 00 00 	movl   $0x0,-0x4(%rbp)
   11762:	eb 1e                	jmp    11782 <transparent_crc_bytes+0x41>
   11764:	8b 45 fc             	mov    -0x4(%rbp),%eax
   11767:	48 63 d0             	movslq %eax,%rdx
   1176a:	48 8b 45 e8          	mov    -0x18(%rbp),%rax
   1176e:	48 01 d0             	add    %rdx,%rax
   11771:	0f b6 00             	movzbl (%rax),%eax
   11774:	0f b6 c0             	movzbl %al,%eax
   11777:	89 c7                	mov    %eax,%edi
   11779:	e8 90 fe ff ff       	callq  1160e <crc32_byte>
   1177e:	83 45 fc 01          	addl   $0x1,-0x4(%rbp)
   11782:	8b 45 fc             	mov    -0x4(%rbp),%eax
   11785:	3b 45 e4             	cmp    -0x1c(%rbp),%eax
   11788:	7c da                	jl     11764 <transparent_crc_bytes+0x23>
   1178a:	83 7d e0 00          	cmpl   $0x0,-0x20(%rbp)
   1178e:	74 22                	je     117b2 <transparent_crc_bytes+0x71>
   11790:	8b 05 8a 58 01 00    	mov    0x1588a(%rip),%eax        # 27020 <crc32_context>
   11796:	f7 d0                	not    %eax
   11798:	89 c2                	mov    %eax,%edx
   1179a:	48 8b 45 d8          	mov    -0x28(%rbp),%rax
   1179e:	48 89 c6             	mov    %rax,%rsi
   117a1:	48 8d 3d 88 08 01 00 	lea    0x10888(%rip),%rdi        # 22030 <_IO_stdin_used+0x30>
   117a8:	b8 00 00 00 00       	mov    $0x0,%eax
   117ad:	e8 ce e8 ff ff       	callq  10080 <printf@plt>
   117b2:	90                   	nop
   117b3:	c9                   	leaveq 
   117b4:	c3                   	retq   

00000000000117b5 <func_1>:
   117b5:	f3 0f 1e fa          	endbr64 
   117b9:	55                   	push   %rbp
   117ba:	48 89 e5             	mov    %rsp,%rbp
   117bd:	41 57                	push   %r15
   117bf:	41 56                	push   %r14
   117c1:	41 55                	push   %r13
   117c3:	41 54                	push   %r12
   117c5:	53                   	push   %rbx
   117c6:	48 81 ec 00 10 00 00 	sub    $0x1000,%rsp
   117cd:	48 83 0c 24 00       	orq    $0x0,(%rsp)
   117d2:	48 81 ec e8 02 00 00 	sub    $0x2e8,%rsp
   117d9:	64 48 8b 04 25 28 00 	mov    %fs:0x28,%rax
   117e0:	00 00 
   117e2:	48 89 45 c8          	mov    %rax,-0x38(%rbp)
   117e6:	31 c0                	xor    %eax,%eax
   117e8:	c6 85 04 ed ff ff ef 	movb   $0xef,-0x12fc(%rbp)
   117ef:	c7 85 38 ed ff ff 09 	movl   $0x9,-0x12c8(%rbp)
   117f6:	00 00 00 
   117f9:	66 c7 85 0a ed ff ff 	movw   $0x9,-0x12f6(%rbp)
   11800:	09 00 
   11802:	48 8d 05 97 c3 01 00 	lea    0x1c397(%rip),%rax        # 2dba0 <g_1982>
   11809:	48 89 85 18 ee ff ff 	mov    %rax,-0x11e8(%rbp)
   11810:	48 8d 05 79 a5 01 00 	lea    0x1a579(%rip),%rax        # 2bd90 <g_1291>
   11817:	48 89 85 c0 ed ff ff 	mov    %rax,-0x1240(%rbp)
   1181e:	48 c7 85 00 f0 ff ff 	movq   $0x0,-0x1000(%rbp)
   11825:	00 00 00 00 
   11829:	48 c7 85 08 f0 ff ff 	movq   $0x0,-0xff8(%rbp)
   11830:	00 00 00 00 
   11834:	48 c7 85 10 f0 ff ff 	movq   $0x0,-0xff0(%rbp)
   1183b:	00 00 00 00 
   1183f:	48 c7 85 18 f0 ff ff 	movq   $0x0,-0xfe8(%rbp)
   11846:	00 00 00 00 
   1184a:	48 c7 85 20 f0 ff ff 	movq   $0x0,-0xfe0(%rbp)
   11851:	00 00 00 00 
   11855:	48 c7 85 28 f0 ff ff 	movq   $0x0,-0xfd8(%rbp)
   1185c:	00 00 00 00 
   11860:	c7 85 60 ed ff ff ae 	movl   $0xa7c08cae,-0x12a0(%rbp)
   11867:	8c c0 a7 
   1186a:	c7 85 64 ed ff ff 00 	movl   $0x0,-0x129c(%rbp)
   11871:	00 00 00 
   11874:	c7 85 68 ed ff ff 51 	movl   $0xcc45ce51,-0x1298(%rbp)
   1187b:	ce 45 cc 
   1187e:	c7 85 6c ed ff ff 23 	movl   $0xda56a923,-0x1294(%rbp)
   11885:	a9 56 da 
   11888:	c7 85 1c ed ff ff 44 	movl   $0x90565544,-0x12e4(%rbp)
   1188f:	55 56 90 
   11892:	48 c7 85 08 ee ff ff 	movq   $0x1,-0x11f8(%rbp)
   11899:	01 00 00 00 
   1189d:	48 8d 05 f4 9d 01 00 	lea    0x19df4(%rip),%rax        # 2b698 <g_1000>
   118a4:	48 89 85 c8 ed ff ff 	mov    %rax,-0x1238(%rbp)
   118ab:	48 c7 85 20 ee ff ff 	movq   $0x0,-0x11e0(%rbp)
   118b2:	00 00 00 00 
   118b6:	48 8d 05 e3 9d 01 00 	lea    0x19de3(%rip),%rax        # 2b6a0 <g_1006>
   118bd:	48 89 85 28 ee ff ff 	mov    %rax,-0x11d8(%rbp)
   118c4:	c7 85 70 ed ff ff d7 	movl   $0xb07a36d7,-0x1290(%rbp)
   118cb:	36 7a b0 
   118ce:	c7 45 c1 2d 2d 2d 2d 	movl   $0x2d2d2d2d,-0x3f(%rbp)
   118d5:	66 c7 45 c5 2d 2d    	movw   $0x2d2d,-0x3b(%rbp)
   118db:	c6 45 c7 2d          	movb   $0x2d,-0x39(%rbp)
   118df:	48 8d 05 a2 ae 01 00 	lea    0x1aea2(%rip),%rax        # 2c788 <g_2673+0x8>
   118e6:	48 89 85 30 ee ff ff 	mov    %rax,-0x11d0(%rbp)
   118ed:	48 8d 05 6c 57 01 00 	lea    0x1576c(%rip),%rax        # 27060 <g_113>
   118f4:	48 89 85 38 ee ff ff 	mov    %rax,-0x11c8(%rbp)
   118fb:	48 8d 05 26 57 01 00 	lea    0x15726(%rip),%rax        # 27028 <g_4>
   11902:	48 89 85 a0 ef ff ff 	mov    %rax,-0x1060(%rbp)
   11909:	48 8d 05 18 57 01 00 	lea    0x15718(%rip),%rax        # 27028 <g_4>
   11910:	48 89 85 a8 ef ff ff 	mov    %rax,-0x1058(%rbp)
   11917:	48 8d 05 0a 57 01 00 	lea    0x1570a(%rip),%rax        # 27028 <g_4>
   1191e:	48 89 85 b0 ef ff ff 	mov    %rax,-0x1050(%rbp)
   11925:	48 8d 05 fc 56 01 00 	lea    0x156fc(%rip),%rax        # 27028 <g_4>
   1192c:	48 89 85 b8 ef ff ff 	mov    %rax,-0x1048(%rbp)
   11933:	c7 85 74 ed ff ff 96 	movl   $0x3a44ad96,-0x128c(%rbp)
   1193a:	ad 44 3a 
   1193d:	c7 85 3c ed ff ff 00 	movl   $0x0,-0x12c4(%rbp)
   11944:	00 00 00 
   11947:	e9 82 00 00 00       	jmpq   119ce <func_1+0x219>
   1194c:	c7 85 30 ed ff ff 00 	movl   $0x0,-0x12d0(%rbp)
   11953:	00 00 00 
   11956:	eb 66                	jmp    119be <func_1+0x209>
   11958:	c7 85 34 ed ff ff 00 	movl   $0x0,-0x12cc(%rbp)
   1195f:	00 00 00 
   11962:	eb 4a                	jmp    119ae <func_1+0x1f9>
   11964:	8b 85 34 ed ff ff    	mov    -0x12cc(%rbp),%eax
   1196a:	48 63 f0             	movslq %eax,%rsi
   1196d:	8b 85 3c ed ff ff    	mov    -0x12c4(%rbp),%eax
   11973:	48 63 d0             	movslq %eax,%rdx
   11976:	8b 85 30 ed ff ff    	mov    -0x12d0(%rbp),%eax
   1197c:	48 63 c8             	movslq %eax,%rcx
   1197f:	48 89 d0             	mov    %rdx,%rax
   11982:	48 c1 e0 03          	shl    $0x3,%rax
   11986:	48 29 d0             	sub    %rdx,%rax
   11989:	48 c1 e0 02          	shl    $0x2,%rax
   1198d:	48 89 ca             	mov    %rcx,%rdx
   11990:	48 c1 e2 03          	shl    $0x3,%rdx
   11994:	48 29 ca             	sub    %rcx,%rdx
   11997:	48 01 d0             	add    %rdx,%rax
   1199a:	48 01 f0             	add    %rsi,%rax
   1199d:	66 c7 84 45 80 f1 ff 	movw   $0xfffa,-0xe80(%rbp,%rax,2)
   119a4:	ff fa ff 
   119a7:	83 85 34 ed ff ff 01 	addl   $0x1,-0x12cc(%rbp)
   119ae:	83 bd 34 ed ff ff 06 	cmpl   $0x6,-0x12cc(%rbp)
   119b5:	7e ad                	jle    11964 <func_1+0x1af>
   119b7:	83 85 30 ed ff ff 01 	addl   $0x1,-0x12d0(%rbp)
   119be:	83 bd 30 ed ff ff 03 	cmpl   $0x3,-0x12d0(%rbp)
   119c5:	7e 91                	jle    11958 <func_1+0x1a3>
   119c7:	83 85 3c ed ff ff 01 	addl   $0x1,-0x12c4(%rbp)
   119ce:	83 bd 3c ed ff ff 02 	cmpl   $0x2,-0x12c4(%rbp)
   119d5:	0f 8e 71 ff ff ff    	jle    1194c <func_1+0x197>
   119db:	c7 05 43 56 01 00 06 	movl   $0x6,0x15643(%rip)        # 27028 <g_4>
   119e2:	00 00 00 
   119e5:	e9 62 26 00 00       	jmpq   1404c <func_1+0x2897>
   119ea:	c7 85 30 f0 ff ff dd 	movl   $0xb62a77dd,-0xfd0(%rbp)
   119f1:	77 2a b6 
   119f4:	c7 85 34 f0 ff ff dd 	movl   $0xb62a77dd,-0xfcc(%rbp)
   119fb:	77 2a b6 
   119fe:	c7 85 38 f0 ff ff dd 	movl   $0xb62a77dd,-0xfc8(%rbp)
   11a05:	77 2a b6 
   11a08:	c7 85 3c f0 ff ff dd 	movl   $0xb62a77dd,-0xfc4(%rbp)
   11a0f:	77 2a b6 
   11a12:	c7 85 40 f0 ff ff dd 	movl   $0xb62a77dd,-0xfc0(%rbp)
   11a19:	77 2a b6 
   11a1c:	c7 85 44 f0 ff ff dd 	movl   $0xb62a77dd,-0xfbc(%rbp)
   11a23:	77 2a b6 
   11a26:	c7 85 48 f0 ff ff dd 	movl   $0xb62a77dd,-0xfb8(%rbp)
   11a2d:	77 2a b6 
   11a30:	c7 85 4c f0 ff ff dd 	movl   $0xb62a77dd,-0xfb4(%rbp)
   11a37:	77 2a b6 
   11a3a:	c7 85 50 f0 ff ff dd 	movl   $0xb62a77dd,-0xfb0(%rbp)
   11a41:	77 2a b6 
   11a44:	c7 85 54 f0 ff ff dd 	movl   $0xb62a77dd,-0xfac(%rbp)
   11a4b:	77 2a b6 
   11a4e:	c7 85 58 f0 ff ff dd 	movl   $0xb62a77dd,-0xfa8(%rbp)
   11a55:	77 2a b6 
   11a58:	c7 85 5c f0 ff ff dd 	movl   $0xb62a77dd,-0xfa4(%rbp)
   11a5f:	77 2a b6 
   11a62:	48 c7 85 c0 ef ff ff 	movq   $0x0,-0x1040(%rbp)
   11a69:	00 00 00 00 
   11a6d:	48 c7 85 c8 ef ff ff 	movq   $0x0,-0x1038(%rbp)
   11a74:	00 00 00 00 
   11a78:	48 c7 85 d0 ef ff ff 	movq   $0x0,-0x1030(%rbp)
   11a7f:	00 00 00 00 
   11a83:	48 c7 85 d8 ef ff ff 	movq   $0x0,-0x1028(%rbp)
   11a8a:	00 00 00 00 
   11a8e:	48 8d 85 c0 ef ff ff 	lea    -0x1040(%rbp),%rax
   11a95:	48 89 85 40 ee ff ff 	mov    %rax,-0x11c0(%rbp)
   11a9c:	c7 85 24 ed ff ff cf 	movl   $0x75be74cf,-0x12dc(%rbp)
   11aa3:	74 be 75 
   11aa6:	48 8d 05 d3 56 01 00 	lea    0x156d3(%rip),%rax        # 27180 <g_273>
   11aad:	48 89 85 48 ee ff ff 	mov    %rax,-0x11b8(%rbp)
   11ab4:	48 8d 05 57 57 01 00 	lea    0x15757(%rip),%rax        # 27212 <g_545+0x2>
   11abb:	48 89 85 d0 ed ff ff 	mov    %rax,-0x1230(%rbp)
   11ac2:	c7 85 30 f2 ff ff fa 	movl   $0xfffffffa,-0xdd0(%rbp)
   11ac9:	ff ff ff 
   11acc:	c7 85 34 f2 ff ff ff 	movl   $0x61be2eff,-0xdcc(%rbp)
   11ad3:	2e be 61 
   11ad6:	c7 85 38 f2 ff ff ff 	movl   $0xffffffff,-0xdc8(%rbp)
   11add:	ff ff ff 
   11ae0:	c7 85 3c f2 ff ff ff 	movl   $0x61be2eff,-0xdc4(%rbp)
   11ae7:	2e be 61 
   11aea:	c7 85 40 f2 ff ff fa 	movl   $0xfffffffa,-0xdc0(%rbp)
   11af1:	ff ff ff 
   11af4:	c7 85 44 f2 ff ff 8a 	movl   $0xc997ff8a,-0xdbc(%rbp)
   11afb:	ff 97 c9 
   11afe:	c7 85 48 f2 ff ff 94 	movl   $0xaec78794,-0xdb8(%rbp)
   11b05:	87 c7 ae 
   11b08:	c7 85 4c f2 ff ff fa 	movl   $0xfffffffa,-0xdb4(%rbp)
   11b0f:	ff ff ff 
   11b12:	c7 85 50 f2 ff ff f7 	movl   $0xfffffff7,-0xdb0(%rbp)
   11b19:	ff ff ff 
   11b1c:	c7 85 54 f2 ff ff d6 	movl   $0x16988ad6,-0xdac(%rbp)
   11b23:	8a 98 16 
   11b26:	c7 85 58 f2 ff ff fa 	movl   $0xfffffffa,-0xda8(%rbp)
   11b2d:	ff ff ff 
   11b30:	c7 85 5c f2 ff ff ff 	movl   $0xffffffff,-0xda4(%rbp)
   11b37:	ff ff ff 
   11b3a:	c7 85 60 f2 ff ff 94 	movl   $0xaec78794,-0xda0(%rbp)
   11b41:	87 c7 ae 
   11b44:	c7 85 64 f2 ff ff ff 	movl   $0xffffffff,-0xd9c(%rbp)
   11b4b:	ff ff ff 
   11b4e:	c7 85 68 f2 ff ff ff 	movl   $0xffffffff,-0xd98(%rbp)
   11b55:	ff ff ff 
   11b58:	c7 85 6c f2 ff ff 94 	movl   $0xaec78794,-0xd94(%rbp)
   11b5f:	87 c7 ae 
   11b62:	c7 85 70 f2 ff ff d6 	movl   $0x16988ad6,-0xd90(%rbp)
   11b69:	8a 98 16 
   11b6c:	c7 85 74 f2 ff ff 42 	movl   $0x4d1b9f42,-0xd8c(%rbp)
   11b73:	9f 1b 4d 
   11b76:	c7 85 78 f2 ff ff fa 	movl   $0xfffffffa,-0xd88(%rbp)
   11b7d:	ff ff ff 
   11b80:	c7 85 7c f2 ff ff d6 	movl   $0x16988ad6,-0xd84(%rbp)
   11b87:	8a 98 16 
   11b8a:	c7 85 80 f2 ff ff 8a 	movl   $0xc997ff8a,-0xd80(%rbp)
   11b91:	ff 97 c9 
   11b94:	c7 85 84 f2 ff ff ff 	movl   $0xffffffff,-0xd7c(%rbp)
   11b9b:	ff ff ff 
   11b9e:	c7 85 88 f2 ff ff ff 	movl   $0xffffffff,-0xd78(%rbp)
   11ba5:	ff ff ff 
   11ba8:	c7 85 8c f2 ff ff 8a 	movl   $0xc997ff8a,-0xd74(%rbp)
   11baf:	ff 97 c9 
   11bb2:	c7 85 90 f2 ff ff d6 	movl   $0x16988ad6,-0xd70(%rbp)
   11bb9:	8a 98 16 
   11bbc:	c7 85 94 f2 ff ff fa 	movl   $0xfffffffa,-0xd6c(%rbp)
   11bc3:	ff ff ff 
   11bc6:	c7 85 98 f2 ff ff ff 	movl   $0xffffffff,-0xd68(%rbp)
   11bcd:	ff ff ff 
   11bd0:	c7 85 9c f2 ff ff ff 	movl   $0x61be2eff,-0xd64(%rbp)
   11bd7:	2e be 61 
   11bda:	c7 85 a0 f2 ff ff fa 	movl   $0xfffffffa,-0xd60(%rbp)
   11be1:	ff ff ff 
   11be4:	c7 85 a4 f2 ff ff 8a 	movl   $0xc997ff8a,-0xd5c(%rbp)
   11beb:	ff 97 c9 
   11bee:	c7 85 a8 f2 ff ff 94 	movl   $0xaec78794,-0xd58(%rbp)
   11bf5:	87 c7 ae 
   11bf8:	c7 85 ac f2 ff ff fa 	movl   $0xfffffffa,-0xd54(%rbp)
   11bff:	ff ff ff 
   11c02:	c7 85 b0 f2 ff ff f7 	movl   $0xfffffff7,-0xd50(%rbp)
   11c09:	ff ff ff 
   11c0c:	c7 85 b4 f2 ff ff ff 	movl   $0xffffffff,-0xd4c(%rbp)
   11c13:	ff ff ff 
   11c16:	c7 85 b8 f2 ff ff ff 	movl   $0x61be2eff,-0xd48(%rbp)
   11c1d:	2e be 61 
   11c20:	c7 85 bc f2 ff ff f8 	movl   $0xfffffff8,-0xd44(%rbp)
   11c27:	ff ff ff 
   11c2a:	c7 85 c0 f2 ff ff ff 	movl   $0x61be2eff,-0xd40(%rbp)
   11c31:	2e be 61 
   11c34:	c7 85 c4 f2 ff ff d6 	movl   $0x16988ad6,-0xd3c(%rbp)
   11c3b:	8a 98 16 
   11c3e:	c7 85 c8 f2 ff ff ff 	movl   $0xffffffff,-0xd38(%rbp)
   11c45:	ff ff ff 
   11c48:	c7 85 cc f2 ff ff ff 	movl   $0x61be2eff,-0xd34(%rbp)
   11c4f:	2e be 61 
   11c52:	c7 85 d0 f2 ff ff fa 	movl   $0xfffffffa,-0xd30(%rbp)
   11c59:	ff ff ff 
   11c5c:	c7 85 d4 f2 ff ff f8 	movl   $0xfffffff8,-0xd2c(%rbp)
   11c63:	ff ff ff 
   11c66:	c7 85 d8 f2 ff ff fa 	movl   $0xfffffffa,-0xd28(%rbp)
   11c6d:	ff ff ff 
   11c70:	c7 85 dc f2 ff ff ff 	movl   $0x61be2eff,-0xd24(%rbp)
   11c77:	2e be 61 
   11c7a:	c7 85 e0 f2 ff ff ff 	movl   $0xffffffff,-0xd20(%rbp)
   11c81:	ff ff ff 
   11c84:	c7 85 e4 f2 ff ff fa 	movl   $0xfffffffa,-0xd1c(%rbp)
   11c8b:	ff ff ff 
   11c8e:	c7 85 e8 f2 ff ff fa 	movl   $0xfffffffa,-0xd18(%rbp)
   11c95:	ff ff ff 
   11c98:	c7 85 ec f2 ff ff ff 	movl   $0xffffffff,-0xd14(%rbp)
   11c9f:	ff ff ff 
   11ca2:	c7 85 f0 f2 ff ff fa 	movl   $0xfffffffa,-0xd10(%rbp)
   11ca9:	ff ff ff 
   11cac:	c7 85 f4 f2 ff ff e3 	movl   $0x9fdcdee3,-0xd0c(%rbp)
   11cb3:	de dc 9f 
   11cb6:	c7 85 f8 f2 ff ff f8 	movl   $0xfffffff8,-0xd08(%rbp)
   11cbd:	ff ff ff 
   11cc0:	c7 85 fc f2 ff ff ff 	movl   $0xffffffff,-0xd04(%rbp)
   11cc7:	ff ff ff 
   11cca:	c7 85 00 f3 ff ff fa 	movl   $0xfffffffa,-0xd00(%rbp)
   11cd1:	ff ff ff 
   11cd4:	c7 85 04 f3 ff ff 42 	movl   $0x4d1b9f42,-0xcfc(%rbp)
   11cdb:	9f 1b 4d 
   11cde:	48 8d 05 3b be 01 00 	lea    0x1be3b(%rip),%rax        # 2db20 <g_725>
   11ce5:	48 89 85 d8 ed ff ff 	mov    %rax,-0x1228(%rbp)
   11cec:	48 8d 85 d8 ed ff ff 	lea    -0x1228(%rbp),%rax
   11cf3:	48 89 85 e0 ed ff ff 	mov    %rax,-0x1220(%rbp)
   11cfa:	48 c7 85 e0 f0 ff ff 	movq   $0x0,-0xf20(%rbp)
   11d01:	00 00 00 00 
   11d05:	48 8d 85 e0 ed ff ff 	lea    -0x1220(%rbp),%rax
   11d0c:	48 89 85 e8 f0 ff ff 	mov    %rax,-0xf18(%rbp)
   11d13:	48 c7 85 f0 f0 ff ff 	movq   $0x0,-0xf10(%rbp)
   11d1a:	00 00 00 00 
   11d1e:	48 8d 85 e0 ed ff ff 	lea    -0x1220(%rbp),%rax
   11d25:	48 89 85 f8 f0 ff ff 	mov    %rax,-0xf08(%rbp)
   11d2c:	48 c7 85 00 f1 ff ff 	movq   $0x0,-0xf00(%rbp)
   11d33:	00 00 00 00 
   11d37:	48 8d 85 e0 ed ff ff 	lea    -0x1220(%rbp),%rax
   11d3e:	48 89 85 08 f1 ff ff 	mov    %rax,-0xef8(%rbp)
   11d45:	48 8d 85 e0 ed ff ff 	lea    -0x1220(%rbp),%rax
   11d4c:	48 89 85 10 f1 ff ff 	mov    %rax,-0xef0(%rbp)
   11d53:	48 8d 85 e0 ed ff ff 	lea    -0x1220(%rbp),%rax
   11d5a:	48 89 85 18 f1 ff ff 	mov    %rax,-0xee8(%rbp)
   11d61:	48 8d 85 e0 ed ff ff 	lea    -0x1220(%rbp),%rax
   11d68:	48 89 85 20 f1 ff ff 	mov    %rax,-0xee0(%rbp)
   11d6f:	48 8d 85 e0 ed ff ff 	lea    -0x1220(%rbp),%rax
   11d76:	48 89 85 28 f1 ff ff 	mov    %rax,-0xed8(%rbp)
   11d7d:	48 8d 85 e0 f0 ff ff 	lea    -0xf20(%rbp),%rax
   11d84:	48 83 c0 28          	add    $0x28,%rax
   11d88:	48 89 85 50 ee ff ff 	mov    %rax,-0x11b0(%rbp)
   11d8f:	66 c7 85 08 ed ff ff 	movw   $0xffff,-0x12f8(%rbp)
   11d96:	ff ff 
   11d98:	c6 85 03 ed ff ff 7a 	movb   $0x7a,-0x12fd(%rbp)
   11d9f:	48 b8 8f c6 b5 de de 	movabs $0x43cfa8dedeb5c68f,%rax
   11da6:	a8 cf 43 
   11da9:	48 89 85 e8 ed ff ff 	mov    %rax,-0x1218(%rbp)
   11db0:	48 8d 05 81 a7 01 00 	lea    0x1a781(%rip),%rax        # 2c538 <g_2279+0x18>
   11db7:	48 89 85 f0 ed ff ff 	mov    %rax,-0x1210(%rbp)
   11dbe:	48 8d 05 01 53 01 00 	lea    0x15301(%rip),%rax        # 270c6 <g_192>
   11dc5:	48 89 85 f8 ed ff ff 	mov    %rax,-0x1208(%rbp)
   11dcc:	48 8d 85 f8 ed ff ff 	lea    -0x1208(%rbp),%rax
   11dd3:	48 89 85 58 ee ff ff 	mov    %rax,-0x11a8(%rbp)
   11dda:	66 c7 85 0c ed ff ff 	movw   $0xcae8,-0x12f4(%rbp)
   11de1:	e8 ca 
   11de3:	c7 85 78 ed ff ff c0 	movl   $0xf56ddec0,-0x1288(%rbp)
   11dea:	de 6d f5 
   11ded:	48 8d 85 f0 ed ff ff 	lea    -0x1210(%rbp),%rax
   11df4:	48 89 85 60 ee ff ff 	mov    %rax,-0x11a0(%rbp)
   11dfb:	48 8d 85 10 f3 ff ff 	lea    -0xcf0(%rbp),%rax
   11e02:	48 8d 15 77 03 01 00 	lea    0x10377(%rip),%rdx        # 22180 <g_1760+0x20>
   11e09:	b9 28 00 00 00       	mov    $0x28,%ecx
   11e0e:	48 89 c7             	mov    %rax,%rdi
   11e11:	48 89 d6             	mov    %rdx,%rsi
   11e14:	f3 48 a5             	rep movsq %ds:(%rsi),%es:(%rdi)
   11e17:	c7 85 28 ed ff ff 01 	movl   $0x1,-0x12d8(%rbp)
   11e1e:	00 00 00 
   11e21:	c7 85 7c ed ff ff fa 	movl   $0xfffffffa,-0x1284(%rbp)
   11e28:	ff ff ff 
   11e2b:	48 8d 45 c1          	lea    -0x3f(%rbp),%rax
   11e2f:	48 83 c0 05          	add    $0x5,%rax
   11e33:	48 89 85 68 ee ff ff 	mov    %rax,-0x1198(%rbp)
   11e3a:	48 8d 05 c7 53 01 00 	lea    0x153c7(%rip),%rax        # 27208 <g_542>
   11e41:	48 89 85 70 ee ff ff 	mov    %rax,-0x1190(%rbp)
   11e48:	48 8b 05 b9 55 01 00 	mov    0x155b9(%rip),%rax        # 27408 <g_803>
   11e4f:	0f be d8             	movsbl %al,%ebx
   11e52:	66 0f be 85 04 ed ff 	movsbw -0x12fc(%rbp),%ax
   11e59:	ff 
   11e5a:	44 0f b7 e8          	movzwl %ax,%r13d
   11e5e:	8b 85 24 ed ff ff    	mov    -0x12dc(%rbp),%eax
   11e64:	4c 63 e0             	movslq %eax,%r12
   11e67:	0f b6 85 04 ed ff ff 	movzbl -0x12fc(%rbp),%eax
   11e6e:	0f b6 c0             	movzbl %al,%eax
   11e71:	89 c7                	mov    %eax,%edi
   11e73:	e8 a1 2b 00 00       	callq  14a19 <func_13>
   11e78:	8b 95 38 f0 ff ff    	mov    -0xfc8(%rbp),%edx
   11e7e:	21 d0                	and    %edx,%eax
   11e80:	89 85 38 f0 ff ff    	mov    %eax,-0xfc8(%rbp)
   11e86:	8b 95 38 f0 ff ff    	mov    -0xfc8(%rbp),%edx
   11e8c:	0f be 85 04 ed ff ff 	movsbl -0x12fc(%rbp),%eax
   11e93:	39 c2                	cmp    %eax,%edx
   11e95:	8b 85 24 ed ff ff    	mov    -0x12dc(%rbp),%eax
   11e9b:	0f be c0             	movsbl %al,%eax
   11e9e:	be 01 00 00 00       	mov    $0x1,%esi
   11ea3:	89 c7                	mov    %eax,%edi
   11ea5:	e8 f7 e3 ff ff       	callq  102a1 <safe_lshift_func_int8_t_s_s>
   11eaa:	0f be d0             	movsbl %al,%edx
   11ead:	48 8b 85 48 ee ff ff 	mov    -0x11b8(%rbp),%rax
   11eb4:	8b 00                	mov    (%rax),%eax
   11eb6:	8d 48 ff             	lea    -0x1(%rax),%ecx
   11eb9:	48 8b 85 48 ee ff ff 	mov    -0x11b8(%rbp),%rax
   11ec0:	89 08                	mov    %ecx,(%rax)
   11ec2:	48 8b 85 48 ee ff ff 	mov    -0x11b8(%rbp),%rax
   11ec9:	8b 00                	mov    (%rax),%eax
   11ecb:	39 c2                	cmp    %eax,%edx
   11ecd:	74 08                	je     11ed7 <func_1+0x722>
   11ecf:	41 be 01 00 00 00    	mov    $0x1,%r14d
   11ed5:	eb 06                	jmp    11edd <func_1+0x728>
   11ed7:	41 be 00 00 00 00    	mov    $0x0,%r14d
   11edd:	48 0f be 85 04 ed ff 	movsbq -0x12fc(%rbp),%rax
   11ee4:	ff 
   11ee5:	48 c7 c6 f7 ff ff ff 	mov    $0xfffffffffffffff7,%rsi
   11eec:	48 89 c7             	mov    %rax,%rdi
   11eef:	e8 b4 e9 ff ff       	callq  108a8 <safe_sub_func_int64_t_s_s>
   11ef4:	0f b7 d0             	movzwl %ax,%edx
   11ef7:	8b 85 24 ed ff ff    	mov    -0x12dc(%rbp),%eax
   11efd:	0f b7 c0             	movzwl %ax,%eax
   11f00:	89 d6                	mov    %edx,%esi
   11f02:	89 c7                	mov    %eax,%edi
   11f04:	e8 34 ee ff ff       	callq  10d3d <safe_mul_func_uint16_t_u_u>
   11f09:	0f b7 c0             	movzwl %ax,%eax
   11f0c:	41 39 c6             	cmp    %eax,%r14d
   11f0f:	0f 9d c0             	setge  %al
   11f12:	0f b6 d0             	movzbl %al,%edx
   11f15:	0f be 85 04 ed ff ff 	movsbl -0x12fc(%rbp),%eax
   11f1c:	39 c2                	cmp    %eax,%edx
   11f1e:	0f 9d c2             	setge  %dl
   11f21:	48 8b 85 d0 ed ff ff 	mov    -0x1230(%rbp),%rax
   11f28:	0f b6 d2             	movzbl %dl,%edx
   11f2b:	66 89 10             	mov    %dx,(%rax)
   11f2e:	0f b7 00             	movzwl (%rax),%eax
   11f31:	98                   	cwtl   
   11f32:	39 85 24 ed ff ff    	cmp    %eax,-0x12dc(%rbp)
   11f38:	8b 85 38 f0 ff ff    	mov    -0xfc8(%rbp),%eax
   11f3e:	83 f8 f7             	cmp    $0xfffffff7,%eax
   11f41:	0f 95 c0             	setne  %al
   11f44:	0f b6 c0             	movzbl %al,%eax
   11f47:	44 89 ea             	mov    %r13d,%edx
   11f4a:	4c 89 e6             	mov    %r12,%rsi
   11f4d:	89 c7                	mov    %eax,%edi
   11f4f:	e8 33 21 00 00       	callq  14087 <func_9>
   11f54:	0f b7 05 15 53 01 00 	movzwl 0x15315(%rip),%eax        # 27270 <g_726>
   11f5b:	0f be c0             	movsbl %al,%eax
   11f5e:	89 de                	mov    %ebx,%esi
   11f60:	89 c7                	mov    %eax,%edi
   11f62:	e8 6d e2 ff ff       	callq  101d4 <safe_add_func_int8_t_s_s>
   11f67:	0f be c0             	movsbl %al,%eax
   11f6a:	89 85 38 ed ff ff    	mov    %eax,-0x12c8(%rbp)
   11f70:	ba af b0 11 b5       	mov    $0xb511b0af,%edx
   11f75:	8b 85 e0 f2 ff ff    	mov    -0xd20(%rbp),%eax
   11f7b:	21 d0                	and    %edx,%eax
   11f7d:	89 85 e0 f2 ff ff    	mov    %eax,-0xd20(%rbp)
   11f83:	8b 85 e0 f2 ff ff    	mov    -0xd20(%rbp),%eax
   11f89:	85 c0                	test   %eax,%eax
   11f8b:	0f 84 76 05 00 00    	je     12507 <func_1+0xd52>
   11f91:	66 c7 85 1a ed ff ff 	movw   $0x9b51,-0x12e6(%rbp)
   11f98:	51 9b 
   11f9a:	48 c7 85 50 ef ff ff 	movq   $0x0,-0x10b0(%rbp)
   11fa1:	00 00 00 00 
   11fa5:	c6 05 f6 54 01 00 0a 	movb   $0xa,0x154f6(%rip)        # 274a2 <g_991>
   11fac:	e9 35 05 00 00       	jmpq   124e6 <func_1+0xd31>
   11fb1:	c6 85 06 ed ff ff 07 	movb   $0x7,-0x12fa(%rbp)
   11fb8:	c7 85 2c ed ff ff 07 	movl   $0x7,-0x12d4(%rbp)
   11fbf:	00 00 00 
   11fc2:	48 8d 05 3f 55 01 00 	lea    0x1553f(%rip),%rax        # 27508 <g_1574>
   11fc9:	48 89 85 00 ee ff ff 	mov    %rax,-0x1200(%rbp)
   11fd0:	48 8d 85 00 ee ff ff 	lea    -0x1200(%rbp),%rax
   11fd7:	48 89 85 58 ef ff ff 	mov    %rax,-0x10a8(%rbp)
   11fde:	48 83 bd 50 ee ff ff 	cmpq   $0x0,-0x11b0(%rbp)
   11fe5:	00 
   11fe6:	0f 95 c0             	setne  %al
   11fe9:	0f b6 c0             	movzbl %al,%eax
   11fec:	be 00 00 00 00       	mov    $0x0,%esi
   11ff1:	89 c7                	mov    %eax,%edi
   11ff3:	e8 80 eb ff ff       	callq  10b78 <safe_sub_func_uint8_t_u_u>
   11ff8:	0f b6 c0             	movzbl %al,%eax
   11ffb:	31 85 2c ed ff ff    	xor    %eax,-0x12d4(%rbp)
   12001:	83 bd 2c ed ff ff 00 	cmpl   $0x0,-0x12d4(%rbp)
   12008:	0f 84 2d 03 00 00    	je     1233b <func_1+0xb86>
   1200e:	c6 85 07 ed ff ff 4c 	movb   $0x4c,-0x12f9(%rbp)
   12015:	48 c7 85 10 ee ff ff 	movq   $0x0,-0x11f0(%rbp)
   1201c:	00 00 00 00 
   12020:	c6 05 e5 51 01 00 00 	movb   $0x0,0x151e5(%rip)        # 2720c <g_544>
   12027:	e9 e0 02 00 00       	jmpq   1230c <func_1+0xb57>
   1202c:	48 8d 05 9d 50 01 00 	lea    0x1509d(%rip),%rax        # 270d0 <g_212>
   12033:	48 89 85 68 ef ff ff 	mov    %rax,-0x1098(%rbp)
   1203a:	48 8d 05 57 54 01 00 	lea    0x15457(%rip),%rax        # 27498 <g_903>
   12041:	48 89 85 70 ef ff ff 	mov    %rax,-0x1090(%rbp)
   12048:	c7 85 bc ed ff ff 9c 	movl   $0xa1205c9c,-0x1244(%rbp)
   1204f:	5c 20 a1 
   12052:	c7 85 40 ed ff ff 00 	movl   $0x0,-0x12c0(%rbp)
   12059:	00 00 00 
   1205c:	eb 4a                	jmp    120a8 <func_1+0x8f3>
   1205e:	c7 85 44 ed ff ff 00 	movl   $0x0,-0x12bc(%rbp)
   12065:	00 00 00 
   12068:	eb 2e                	jmp    12098 <func_1+0x8e3>
   1206a:	8b 85 44 ed ff ff    	mov    -0x12bc(%rbp),%eax
   12070:	48 98                	cltq   
   12072:	8b 95 40 ed ff ff    	mov    -0x12c0(%rbp),%edx
   12078:	48 63 d2             	movslq %edx,%rdx
   1207b:	48 c1 e2 02          	shl    $0x2,%rdx
   1207f:	48 01 d0             	add    %rdx,%rax
   12082:	48 8d 15 07 54 01 00 	lea    0x15407(%rip),%rdx        # 27490 <g_899>
   12089:	48 89 94 c5 40 f8 ff 	mov    %rdx,-0x7c0(%rbp,%rax,8)
   12090:	ff 
   12091:	83 85 44 ed ff ff 01 	addl   $0x1,-0x12bc(%rbp)
   12098:	83 bd 44 ed ff ff 03 	cmpl   $0x3,-0x12bc(%rbp)
   1209f:	7e c9                	jle    1206a <func_1+0x8b5>
   120a1:	83 85 40 ed ff ff 01 	addl   $0x1,-0x12c0(%rbp)
   120a8:	83 bd 40 ed ff ff 04 	cmpl   $0x4,-0x12c0(%rbp)
   120af:	7e ad                	jle    1205e <func_1+0x8a9>
   120b1:	0f b7 85 08 ed ff ff 	movzwl -0x12f8(%rbp),%eax
   120b8:	66 85 c0             	test   %ax,%ax
   120bb:	0f 85 5c 02 00 00    	jne    1231d <func_1+0xb68>
   120c1:	48 8b 05 20 a4 01 00 	mov    0x1a420(%rip),%rax        # 2c4e8 <g_1881>
   120c8:	8b 00                	mov    (%rax),%eax
   120ca:	85 c0                	test   %eax,%eax
   120cc:	0f 85 29 02 00 00    	jne    122fb <func_1+0xb46>
   120d2:	48 8b 05 07 ba 01 00 	mov    0x1ba07(%rip),%rax        # 2dae0 <g_269+0x20>
   120d9:	41 89 c7             	mov    %eax,%r15d
   120dc:	0f b6 05 e5 4f 01 00 	movzbl 0x14fe5(%rip),%eax        # 270c8 <g_211>
   120e3:	0f b6 d8             	movzbl %al,%ebx
   120e6:	66 0f be 85 06 ed ff 	movsbw -0x12fa(%rbp),%ax
   120ed:	ff 
   120ee:	44 0f b7 e0          	movzwl %ax,%r12d
   120f2:	8b 05 70 56 01 00    	mov    0x15670(%rip),%eax        # 27768 <g_2733>
   120f8:	0f b7 85 08 ed ff ff 	movzwl -0x12f8(%rbp),%eax
   120ff:	44 0f b7 e8          	movzwl %ax,%r13d
   12103:	8b 85 3c f0 ff ff    	mov    -0xfc4(%rbp),%eax
   12109:	4c 63 f0             	movslq %eax,%r14
   1210c:	48 8b 05 7d 9c 01 00 	mov    0x19c7d(%rip),%rax        # 2bd90 <g_1291>
   12113:	48 8b 00             	mov    (%rax),%rax
   12116:	48 8b 00             	mov    (%rax),%rax
   12119:	48 8b 00             	mov    (%rax),%rax
   1211c:	48 89 85 f8 ec ff ff 	mov    %rax,-0x1308(%rbp)
   12123:	8b 85 38 f0 ff ff    	mov    -0xfc8(%rbp),%eax
   12129:	0f b7 d0             	movzwl %ax,%edx
   1212c:	48 0f be 85 06 ed ff 	movsbq -0x12fa(%rbp),%rax
   12133:	ff 
   12134:	48 21 85 10 ee ff ff 	and    %rax,-0x11f0(%rbp)
   1213b:	48 8b 85 10 ee ff ff 	mov    -0x11f0(%rbp),%rax
   12142:	0f b7 c0             	movzwl %ax,%eax
   12145:	89 d6                	mov    %edx,%esi
   12147:	89 c7                	mov    %eax,%edi
   12149:	e8 b1 eb ff ff       	callq  10cff <safe_add_func_uint16_t_u_u>
   1214e:	0f b7 d0             	movzwl %ax,%edx
   12151:	48 8b 85 68 ef ff ff 	mov    -0x1098(%rbp),%rax
   12158:	48 89 10             	mov    %rdx,(%rax)
   1215b:	48 8b 85 68 ef ff ff 	mov    -0x1098(%rbp),%rax
   12162:	48 8b 00             	mov    (%rax),%rax
   12165:	89 c2                	mov    %eax,%edx
   12167:	0f b7 85 1a ed ff ff 	movzwl -0x12e6(%rbp),%eax
   1216e:	09 d0                	or     %edx,%eax
   12170:	0f be c0             	movsbl %al,%eax
   12173:	be 04 00 00 00       	mov    $0x4,%esi
   12178:	89 c7                	mov    %eax,%edi
   1217a:	e8 ed e1 ff ff       	callq  1036c <safe_rshift_func_int8_t_s_u>
   1217f:	3c 03                	cmp    $0x3,%al
   12181:	0f 95 c0             	setne  %al
   12184:	0f b6 c0             	movzbl %al,%eax
   12187:	48 8b b5 f8 ec ff ff 	mov    -0x1308(%rbp),%rsi
   1218e:	48 89 c7             	mov    %rax,%rdi
   12191:	e8 b5 ee ff ff       	callq  1104b <safe_sub_func_uint64_t_u_u>
   12196:	48 8b 05 e3 9b 01 00 	mov    0x19be3(%rip),%rax        # 2bd80 <g_1206>
   1219d:	48 8b 00             	mov    (%rax),%rax
   121a0:	48 8b 00             	mov    (%rax),%rax
   121a3:	48 8b 00             	mov    (%rax),%rax
   121a6:	4c 89 f6             	mov    %r14,%rsi
   121a9:	48 89 c7             	mov    %rax,%rdi
   121ac:	e8 03 e8 ff ff       	callq  109b4 <safe_mod_func_int64_t_s_s>
   121b1:	8b 85 e0 f2 ff ff    	mov    -0xd20(%rbp),%eax
   121b7:	83 c8 01             	or     $0x1,%eax
   121ba:	98                   	cwtl   
   121bb:	be 13 76 00 00       	mov    $0x7613,%esi
   121c0:	89 c7                	mov    %eax,%edi
   121c2:	e8 0c e2 ff ff       	callq  103d3 <safe_sub_func_int16_t_s_s>
   121c7:	48 0f be 85 07 ed ff 	movsbq -0x12f9(%rbp),%rax
   121ce:	ff 
   121cf:	be 01 00 00 00       	mov    $0x1,%esi
   121d4:	48 89 c7             	mov    %rax,%rdi
   121d7:	e8 6f ee ff ff       	callq  1104b <safe_sub_func_uint64_t_u_u>
   121dc:	48 85 c0             	test   %rax,%rax
   121df:	75 09                	jne    121ea <func_1+0xa35>
   121e1:	80 bd 06 ed ff ff 00 	cmpb   $0x0,-0x12fa(%rbp)
   121e8:	74 07                	je     121f1 <func_1+0xa3c>
   121ea:	b8 01 00 00 00       	mov    $0x1,%eax
   121ef:	eb 05                	jmp    121f6 <func_1+0xa41>
   121f1:	b8 00 00 00 00       	mov    $0x0,%eax
   121f6:	0f b7 c0             	movzwl %ax,%eax
   121f9:	44 89 ee             	mov    %r13d,%esi
   121fc:	89 c7                	mov    %eax,%edi
   121fe:	e8 45 ec ff ff       	callq  10e48 <safe_rshift_func_uint16_t_u_s>
   12203:	be 01 00 00 00       	mov    $0x1,%esi
   12208:	bf 01 00 00 00       	mov    $0x1,%edi
   1220d:	e8 dc e0 ff ff       	callq  102ee <safe_lshift_func_int8_t_s_u>
   12212:	80 bd 07 ed ff ff 01 	cmpb   $0x1,-0x12f9(%rbp)
   12219:	7e 08                	jle    12223 <func_1+0xa6e>
   1221b:	8b 05 07 4e 01 00    	mov    0x14e07(%rip),%eax        # 27028 <g_4>
   12221:	85 c0                	test   %eax,%eax
   12223:	8b 85 38 f0 ff ff    	mov    -0xfc8(%rbp),%eax
   12229:	0f b7 c0             	movzwl %ax,%eax
   1222c:	44 89 e6             	mov    %r12d,%esi
   1222f:	89 c7                	mov    %eax,%edi
   12231:	e8 26 eb ff ff       	callq  10d5c <safe_mod_func_uint16_t_u_u>
   12236:	0f b6 c0             	movzbl %al,%eax
   12239:	83 e0 55             	and    $0x55,%eax
   1223c:	89 de                	mov    %ebx,%esi
   1223e:	89 c7                	mov    %eax,%edi
   12240:	e8 15 e9 ff ff       	callq  10b5a <safe_add_func_uint8_t_u_u>
   12245:	89 c2                	mov    %eax,%edx
   12247:	48 8b 85 70 ef ff ff 	mov    -0x1090(%rbp),%rax
   1224e:	0f b6 00             	movzbl (%rax),%eax
   12251:	31 c2                	xor    %eax,%edx
   12253:	48 8b 85 70 ef ff ff 	mov    -0x1090(%rbp),%rax
   1225a:	88 10                	mov    %dl,(%rax)
   1225c:	48 8b 85 70 ef ff ff 	mov    -0x1090(%rbp),%rax
   12263:	0f b6 00             	movzbl (%rax),%eax
   12266:	0f b6 c0             	movzbl %al,%eax
   12269:	44 89 fe             	mov    %r15d,%esi
   1226c:	89 c7                	mov    %eax,%edi
   1226e:	e8 92 e9 ff ff       	callq  10c05 <safe_lshift_func_uint8_t_u_s>
   12273:	0f b6 85 06 ed ff ff 	movzbl -0x12fa(%rbp),%eax
   1227a:	0f b6 d0             	movzbl %al,%edx
   1227d:	0f b7 85 1a ed ff ff 	movzwl -0x12e6(%rbp),%eax
   12284:	89 85 2c ed ff ff    	mov    %eax,-0x12d4(%rbp)
   1228a:	8b 85 2c ed ff ff    	mov    -0x12d4(%rbp),%eax
   12290:	0f b6 c0             	movzbl %al,%eax
   12293:	89 d6                	mov    %edx,%esi
   12295:	89 c7                	mov    %eax,%edi
   12297:	e8 dc e8 ff ff       	callq  10b78 <safe_sub_func_uint8_t_u_u>
   1229c:	89 c2                	mov    %eax,%edx
   1229e:	0f b7 85 1a ed ff ff 	movzwl -0x12e6(%rbp),%eax
   122a5:	22 85 06 ed ff ff    	and    -0x12fa(%rbp),%al
   122ab:	21 d0                	and    %edx,%eax
   122ad:	88 05 f0 51 01 00    	mov    %al,0x151f0(%rip)        # 274a3 <g_992>
   122b3:	0f b6 05 e9 51 01 00 	movzbl 0x151e9(%rip),%eax        # 274a3 <g_992>
   122ba:	0f be c0             	movsbl %al,%eax
   122bd:	39 85 bc ed ff ff    	cmp    %eax,-0x1244(%rbp)
   122c3:	0f 9d c0             	setge  %al
   122c6:	89 c2                	mov    %eax,%edx
   122c8:	48 8b 05 d1 93 01 00 	mov    0x193d1(%rip),%rax        # 2b6a0 <g_1006>
   122cf:	48 8b 00             	mov    (%rax),%rax
   122d2:	21 d0                	and    %edx,%eax
   122d4:	0f be c0             	movsbl %al,%eax
   122d7:	be 1b 00 00 00       	mov    $0x1b,%esi
   122dc:	89 c7                	mov    %eax,%edi
   122de:	e8 f1 de ff ff       	callq  101d4 <safe_add_func_int8_t_s_s>
   122e3:	0f be c0             	movsbl %al,%eax
   122e6:	89 85 24 ed ff ff    	mov    %eax,-0x12dc(%rbp)
   122ec:	48 8b 05 f5 a1 01 00 	mov    0x1a1f5(%rip),%rax        # 2c4e8 <g_1881>
   122f3:	8b 00                	mov    (%rax),%eax
   122f5:	85 c0                	test   %eax,%eax
   122f7:	75 27                	jne    12320 <func_1+0xb6b>
   122f9:	eb 01                	jmp    122fc <func_1+0xb47>
   122fb:	90                   	nop
   122fc:	0f b6 05 09 4f 01 00 	movzbl 0x14f09(%rip),%eax        # 2720c <g_544>
   12303:	83 e8 01             	sub    $0x1,%eax
   12306:	88 05 00 4f 01 00    	mov    %al,0x14f00(%rip)        # 2720c <g_544>
   1230c:	0f b6 05 f9 4e 01 00 	movzbl 0x14ef9(%rip),%eax        # 2720c <g_544>
   12313:	3c e3                	cmp    $0xe3,%al
   12315:	0f 8d 11 fd ff ff    	jge    1202c <func_1+0x877>
   1231b:	eb 04                	jmp    12321 <func_1+0xb6c>
   1231d:	90                   	nop
   1231e:	eb 01                	jmp    12321 <func_1+0xb6c>
   12320:	90                   	nop
   12321:	48 8b 05 70 93 01 00 	mov    0x19370(%rip),%rax        # 2b698 <g_1000>
   12328:	c7 00 01 00 00 00    	movl   $0x1,(%rax)
   1232e:	8b 00                	mov    (%rax),%eax
   12330:	31 85 2c ed ff ff    	xor    %eax,-0x12d4(%rbp)
   12336:	e9 9b 01 00 00       	jmpq   124d6 <func_1+0xd21>
   1233b:	48 8d 85 08 ed ff ff 	lea    -0x12f8(%rbp),%rax
   12342:	48 89 85 60 ef ff ff 	mov    %rax,-0x10a0(%rbp)
   12349:	c7 85 b8 ed ff ff 00 	movl   $0x0,-0x1248(%rbp)
   12350:	00 00 00 
   12353:	48 8d 95 40 f8 ff ff 	lea    -0x7c0(%rbp),%rdx
   1235a:	b8 00 00 00 00       	mov    $0x0,%eax
   1235f:	b9 0c 00 00 00       	mov    $0xc,%ecx
   12364:	48 89 d7             	mov    %rdx,%rdi
   12367:	f3 48 ab             	rep stos %rax,%es:(%rdi)
   1236a:	8b 9d b8 ed ff ff    	mov    -0x1248(%rbp),%ebx
   12370:	0f b7 05 a1 50 01 00 	movzwl 0x150a1(%rip),%eax        # 27418 <g_860>
   12377:	44 0f b6 e0          	movzbl %al,%r12d
   1237b:	48 8b 85 60 ef ff ff 	mov    -0x10a0(%rbp),%rax
   12382:	0f b7 00             	movzwl (%rax),%eax
   12385:	8d 48 01             	lea    0x1(%rax),%ecx
   12388:	48 8b 95 60 ef ff ff 	mov    -0x10a0(%rbp),%rdx
   1238f:	66 89 0a             	mov    %cx,(%rdx)
   12392:	66 85 c0             	test   %ax,%ax
   12395:	0f 85 f3 00 00 00    	jne    1248e <func_1+0xcd9>
   1239b:	48 8b 05 3e 4d 01 00 	mov    0x14d3e(%rip),%rax        # 270e0 <g_216>
   123a2:	89 85 f8 ec ff ff    	mov    %eax,-0x1308(%rbp)
   123a8:	48 8b 05 39 91 01 00 	mov    0x19139(%rip),%rax        # 2b4e8 <g_450>
   123af:	0f b6 00             	movzbl (%rax),%eax
   123b2:	44 0f b6 e8          	movzbl %al,%r13d
   123b6:	44 0f b7 b5 1a ed ff 	movzwl -0x12e6(%rbp),%r14d
   123bd:	ff 
   123be:	48 8b 05 2b 91 01 00 	mov    0x1912b(%rip),%rax        # 2b4f0 <g_449>
   123c5:	48 8b 00             	mov    (%rax),%rax
   123c8:	0f b6 00             	movzbl (%rax),%eax
   123cb:	44 0f b6 f8          	movzbl %al,%r15d
   123cf:	be 06 00 00 00       	mov    $0x6,%esi
   123d4:	bf 01 00 00 00       	mov    $0x1,%edi
   123d9:	e8 57 df ff ff       	callq  10335 <safe_rshift_func_int8_t_s_s>
   123de:	66 98                	cbtw   
   123e0:	44 09 f8             	or     %r15d,%eax
   123e3:	0f b7 c0             	movzwl %ax,%eax
   123e6:	44 89 f6             	mov    %r14d,%esi
   123e9:	89 c7                	mov    %eax,%edi
   123eb:	e8 4d e9 ff ff       	callq  10d3d <safe_mul_func_uint16_t_u_u>
   123f0:	0f be c0             	movsbl %al,%eax
   123f3:	44 89 ee             	mov    %r13d,%esi
   123f6:	89 c7                	mov    %eax,%edi
   123f8:	e8 f1 de ff ff       	callq  102ee <safe_lshift_func_int8_t_s_u>
   123fd:	20 85 03 ed ff ff    	and    %al,-0x12fd(%rbp)
   12403:	0f be 85 03 ed ff ff 	movsbl -0x12fd(%rbp),%eax
   1240a:	8b b5 f8 ec ff ff    	mov    -0x1308(%rbp),%esi
   12410:	89 c7                	mov    %eax,%edi
   12412:	e8 8a de ff ff       	callq  102a1 <safe_lshift_func_int8_t_s_s>
   12417:	0f be c0             	movsbl %al,%eax
   1241a:	39 85 24 ed ff ff    	cmp    %eax,-0x12dc(%rbp)
   12420:	0f 9c c0             	setl   %al
   12423:	0f b6 d0             	movzbl %al,%edx
   12426:	0f bf 8d 0a ed ff ff 	movswl -0x12f6(%rbp),%ecx
   1242d:	0f be 85 06 ed ff ff 	movsbl -0x12fa(%rbp),%eax
   12434:	0b 85 38 ed ff ff    	or     -0x12c8(%rbp),%eax
   1243a:	39 c1                	cmp    %eax,%ecx
   1243c:	0f 95 c0             	setne  %al
   1243f:	0f b6 c0             	movzbl %al,%eax
   12442:	89 d6                	mov    %edx,%esi
   12444:	89 c7                	mov    %eax,%edi
   12446:	e8 f2 e8 ff ff       	callq  10d3d <safe_mul_func_uint16_t_u_u>
   1244b:	0f b7 c0             	movzwl %ax,%eax
   1244e:	48 89 c6             	mov    %rax,%rsi
   12451:	48 bf f8 0e 7c 7e a9 	movabs $0xb6dd22a97e7c0ef8,%rdi
   12458:	22 dd b6 
   1245b:	e8 e1 e3 ff ff       	callq  10841 <safe_add_func_int64_t_s_s>
   12460:	48 3d a6 c0 40 61    	cmp    $0x6140c0a6,%rax
   12466:	0f 9e c0             	setle  %al
   12469:	0f b6 c0             	movzbl %al,%eax
   1246c:	33 85 b8 ed ff ff    	xor    -0x1248(%rbp),%eax
   12472:	39 85 b8 ed ff ff    	cmp    %eax,-0x1248(%rbp)
   12478:	0f 9c c0             	setl   %al
   1247b:	0f b6 c0             	movzbl %al,%eax
   1247e:	23 85 2c ed ff ff    	and    -0x12d4(%rbp),%eax
   12484:	48 98                	cltq   
   12486:	83 e0 01             	and    $0x1,%eax
   12489:	48 85 c0             	test   %rax,%rax
   1248c:	74 07                	je     12495 <func_1+0xce0>
   1248e:	b8 01 00 00 00       	mov    $0x1,%eax
   12493:	eb 05                	jmp    1249a <func_1+0xce5>
   12495:	b8 00 00 00 00       	mov    $0x0,%eax
   1249a:	0f be c0             	movsbl %al,%eax
   1249d:	be 04 00 00 00       	mov    $0x4,%esi
   124a2:	89 c7                	mov    %eax,%edi
   124a4:	e8 f8 dd ff ff       	callq  102a1 <safe_lshift_func_int8_t_s_s>
   124a9:	0f b6 c0             	movzbl %al,%eax
   124ac:	44 89 e6             	mov    %r12d,%esi
   124af:	89 c7                	mov    %eax,%edi
   124b1:	e8 f8 e6 ff ff       	callq  10bae <safe_mod_func_uint8_t_u_u>
   124b6:	0f b6 c0             	movzbl %al,%eax
   124b9:	89 de                	mov    %ebx,%esi
   124bb:	89 c7                	mov    %eax,%edi
   124bd:	e8 63 ea ff ff       	callq  10f25 <safe_div_func_uint32_t_u_u>
   124c2:	48 8b 15 cf 91 01 00 	mov    0x191cf(%rip),%rdx        # 2b698 <g_1000>
   124c9:	8b 12                	mov    (%rdx),%edx
   124cb:	21 c2                	and    %eax,%edx
   124cd:	48 8b 05 c4 91 01 00 	mov    0x191c4(%rip),%rax        # 2b698 <g_1000>
   124d4:	89 10                	mov    %edx,(%rax)
   124d6:	0f b6 05 c5 4f 01 00 	movzbl 0x14fc5(%rip),%eax        # 274a2 <g_991>
   124dd:	83 c0 01             	add    $0x1,%eax
   124e0:	88 05 bc 4f 01 00    	mov    %al,0x14fbc(%rip)        # 274a2 <g_991>
   124e6:	0f b6 05 b5 4f 01 00 	movzbl 0x14fb5(%rip),%eax        # 274a2 <g_991>
   124ed:	3c 0f                	cmp    $0xf,%al
   124ef:	0f 8e bc fa ff ff    	jle    11fb1 <func_1+0x7fc>
   124f5:	83 bd 24 ed ff ff 00 	cmpl   $0x0,-0x12dc(%rbp)
   124fc:	0f 84 57 18 00 00    	je     13d59 <func_1+0x25a4>
   12502:	e9 54 1b 00 00       	jmpq   1405b <func_1+0x28a6>
   12507:	66 c7 85 0e ed ff ff 	movw   $0xe1ea,-0x12f2(%rbp)
   1250e:	ea e1 
   12510:	c7 85 48 ed ff ff f7 	movl   $0xc0375df7,-0x12b8(%rbp)
   12517:	5d 37 c0 
   1251a:	c7 85 20 ed ff ff 01 	movl   $0x1,-0x12e0(%rbp)
   12521:	00 00 00 
   12524:	48 8d 05 cd 8f 01 00 	lea    0x18fcd(%rip),%rax        # 2b4f8 <g_596>
   1252b:	48 89 85 78 ee ff ff 	mov    %rax,-0x1188(%rbp)
   12532:	c7 85 4c ed ff ff 1c 	movl   $0x598351c,-0x12b4(%rbp)
   12539:	35 98 05 
   1253c:	66 c7 85 10 ed ff ff 	movw   $0x7aea,-0x12f0(%rbp)
   12543:	ea 7a 
   12545:	48 8d 85 40 f8 ff ff 	lea    -0x7c0(%rbp),%rax
   1254c:	48 8d 15 cd 53 01 00 	lea    0x153cd(%rip),%rdx        # 27920 <g_3136+0x20>
   12553:	b9 90 00 00 00       	mov    $0x90,%ecx
   12558:	48 89 c7             	mov    %rax,%rdi
   1255b:	48 89 d6             	mov    %rdx,%rsi
   1255e:	f3 48 a5             	rep movsq %ds:(%rsi),%es:(%rdi)
   12561:	48 b8 d5 b2 d9 ff 15 	movabs $0xa66c8e15ffd9b2d5,%rax
   12568:	8e 6c a6 
   1256b:	48 89 85 80 ee ff ff 	mov    %rax,-0x1180(%rbp)
   12572:	66 c7 85 12 ed ff ff 	movw   $0x0,-0x12ee(%rbp)
   12579:	00 00 
   1257b:	48 8d 05 0e 98 01 00 	lea    0x1980e(%rip),%rax        # 2bd90 <g_1291>
   12582:	48 89 85 88 ee ff ff 	mov    %rax,-0x1178(%rbp)
   12589:	c7 85 50 ed ff ff 00 	movl   $0x0,-0x12b0(%rbp)
   12590:	00 00 00 
   12593:	eb 1a                	jmp    125af <func_1+0xdfa>
   12595:	8b 85 50 ed ff ff    	mov    -0x12b0(%rbp),%eax
   1259b:	48 98                	cltq   
   1259d:	c7 84 85 7c ef ff ff 	movl   $0x1,-0x1084(%rbp,%rax,4)
   125a4:	01 00 00 00 
   125a8:	83 85 50 ed ff ff 01 	addl   $0x1,-0x12b0(%rbp)
   125af:	83 bd 50 ed ff ff 00 	cmpl   $0x0,-0x12b0(%rbp)
   125b6:	7e dd                	jle    12595 <func_1+0xde0>
   125b8:	c7 85 50 ed ff ff 00 	movl   $0x0,-0x12b0(%rbp)
   125bf:	00 00 00 
   125c2:	eb 14                	jmp    125d8 <func_1+0xe23>
   125c4:	8b 85 50 ed ff ff    	mov    -0x12b0(%rbp),%eax
   125ca:	48 98                	cltq   
   125cc:	c6 44 05 c0 fe       	movb   $0xfe,-0x40(%rbp,%rax,1)
   125d1:	83 85 50 ed ff ff 01 	addl   $0x1,-0x12b0(%rbp)
   125d8:	83 bd 50 ed ff ff 00 	cmpl   $0x0,-0x12b0(%rbp)
   125df:	7e e3                	jle    125c4 <func_1+0xe0f>
   125e1:	c7 05 2d 4e 01 00 f6 	movl   $0xfffffff6,0x14e2d(%rip)        # 27418 <g_860>
   125e8:	ff ff ff 
   125eb:	e9 e1 06 00 00       	jmpq   12cd1 <func_1+0x151c>
   125f0:	48 c7 85 30 f1 ff ff 	movq   $0x0,-0xed0(%rbp)
   125f7:	00 00 00 00 
   125fb:	48 c7 85 38 f1 ff ff 	movq   $0x0,-0xec8(%rbp)
   12602:	00 00 00 00 
   12606:	48 c7 85 40 f1 ff ff 	movq   $0x0,-0xec0(%rbp)
   1260d:	00 00 00 00 
   12611:	48 c7 85 48 f1 ff ff 	movq   $0x0,-0xeb8(%rbp)
   12618:	00 00 00 00 
   1261c:	48 c7 85 50 f1 ff ff 	movq   $0x0,-0xeb0(%rbp)
   12623:	00 00 00 00 
   12627:	48 c7 85 58 f1 ff ff 	movq   $0x0,-0xea8(%rbp)
   1262e:	00 00 00 00 
   12632:	48 c7 85 60 f1 ff ff 	movq   $0x0,-0xea0(%rbp)
   12639:	00 00 00 00 
   1263d:	48 c7 85 68 f1 ff ff 	movq   $0x0,-0xe98(%rbp)
   12644:	00 00 00 00 
   12648:	48 c7 85 70 f1 ff ff 	movq   $0x0,-0xe90(%rbp)
   1264f:	00 00 00 00 
   12653:	48 c7 85 78 f1 ff ff 	movq   $0x0,-0xe88(%rbp)
   1265a:	00 00 00 00 
   1265e:	c7 85 54 ed ff ff 09 	movl   $0x9,-0x12ac(%rbp)
   12665:	00 00 00 
   12668:	48 8d 85 7c ef ff ff 	lea    -0x1084(%rbp),%rax
   1266f:	48 89 85 00 ee ff ff 	mov    %rax,-0x1200(%rbp)
   12676:	48 8d 85 30 f0 ff ff 	lea    -0xfd0(%rbp),%rax
   1267d:	48 83 c0 20          	add    $0x20,%rax
   12681:	48 89 85 10 ef ff ff 	mov    %rax,-0x10f0(%rbp)
   12688:	48 8d 85 7c ef ff ff 	lea    -0x1084(%rbp),%rax
   1268f:	48 89 85 18 ef ff ff 	mov    %rax,-0x10e8(%rbp)
   12696:	48 c7 85 20 ef ff ff 	movq   $0x0,-0x10e0(%rbp)
   1269d:	00 00 00 00 
   126a1:	48 8d 85 7c ef ff ff 	lea    -0x1084(%rbp),%rax
   126a8:	48 89 85 28 ef ff ff 	mov    %rax,-0x10d8(%rbp)
   126af:	48 c7 85 60 f0 ff ff 	movq   $0x0,-0xfa0(%rbp)
   126b6:	00 00 00 00 
   126ba:	48 c7 85 68 f0 ff ff 	movq   $0x0,-0xf98(%rbp)
   126c1:	00 00 00 00 
   126c5:	48 8d 05 6c 4d 01 00 	lea    0x14d6c(%rip),%rax        # 27438 <g_888>
   126cc:	48 89 85 70 f0 ff ff 	mov    %rax,-0xf90(%rbp)
   126d3:	48 c7 85 78 f0 ff ff 	movq   $0x0,-0xf88(%rbp)
   126da:	00 00 00 00 
   126de:	48 c7 85 80 f0 ff ff 	movq   $0x0,-0xf80(%rbp)
   126e5:	00 00 00 00 
   126e9:	48 8d 05 48 4d 01 00 	lea    0x14d48(%rip),%rax        # 27438 <g_888>
   126f0:	48 89 85 88 f0 ff ff 	mov    %rax,-0xf78(%rbp)
   126f7:	48 c7 85 90 f0 ff ff 	movq   $0x0,-0xf70(%rbp)
   126fe:	00 00 00 00 
   12702:	48 b8 99 98 f7 85 f8 	movabs $0xa49a58f885f79899,%rax
   12709:	58 9a a4 
   1270c:	48 89 85 30 ef ff ff 	mov    %rax,-0x10d0(%rbp)
   12713:	c7 05 a3 b4 01 00 00 	movl   $0x0,0x1b4a3(%rip)        # 2dbc0 <g_2393>
   1271a:	00 00 00 
   1271d:	e9 69 05 00 00       	jmpq   12c8b <func_1+0x14d6>
   12722:	48 c7 85 38 ef ff ff 	movq   $0x0,-0x10c8(%rbp)
   12729:	00 00 00 00 
   1272d:	48 8d 85 50 f4 ff ff 	lea    -0xbb0(%rbp),%rax
   12734:	48 8d 15 85 fb 00 00 	lea    0xfb85(%rip),%rdx        # 222c0 <g_1760+0x160>
   1273b:	b9 7e 00 00 00       	mov    $0x7e,%ecx
   12740:	48 89 c7             	mov    %rax,%rdi
   12743:	48 89 d6             	mov    %rdx,%rsi
   12746:	f3 48 a5             	rep movsq %ds:(%rsi),%es:(%rdi)
   12749:	c7 85 ac ed ff ff dd 	movl   $0x5bbfebdd,-0x1254(%rbp)
   12750:	eb bf 5b 
   12753:	c7 85 38 ed ff ff 00 	movl   $0x0,-0x12c8(%rbp)
   1275a:	00 00 00 
   1275d:	c7 05 c1 b3 01 00 00 	movl   $0x0,0x1b3c1(%rip)        # 2db28 <g_736>
   12764:	00 00 00 
   12767:	eb 19                	jmp    12782 <func_1+0xfcd>
   12769:	48 83 bd 38 ef ff ff 	cmpq   $0x0,-0x10c8(%rbp)
   12770:	00 
   12771:	75 1b                	jne    1278e <func_1+0xfd9>
   12773:	8b 05 af b3 01 00    	mov    0x1b3af(%rip),%eax        # 2db28 <g_736>
   12779:	83 c0 01             	add    $0x1,%eax
   1277c:	89 05 a6 b3 01 00    	mov    %eax,0x1b3a6(%rip)        # 2db28 <g_736>
   12782:	8b 05 a0 b3 01 00    	mov    0x1b3a0(%rip),%eax        # 2db28 <g_736>
   12788:	85 c0                	test   %eax,%eax
   1278a:	74 dd                	je     12769 <func_1+0xfb4>
   1278c:	eb 01                	jmp    1278f <func_1+0xfda>
   1278e:	90                   	nop
   1278f:	48 83 bd 38 ef ff ff 	cmpq   $0x0,-0x10c8(%rbp)
   12796:	00 
   12797:	74 54                	je     127ed <func_1+0x1038>
   12799:	c7 85 b0 ed ff ff 00 	movl   $0x0,-0x1250(%rbp)
   127a0:	00 00 00 
   127a3:	83 bd b0 ed ff ff 00 	cmpl   $0x0,-0x1250(%rbp)
   127aa:	0f 85 eb 04 00 00    	jne    12c9b <func_1+0x14e6>
   127b0:	48 8b 05 39 8d 01 00 	mov    0x18d39(%rip),%rax        # 2b4f0 <g_449>
   127b7:	48 8b 00             	mov    (%rax),%rax
   127ba:	0f b6 00             	movzbl (%rax),%eax
   127bd:	0f b6 c0             	movzbl %al,%eax
   127c0:	48 8b 1d 09 8d 01 00 	mov    0x18d09(%rip),%rbx        # 2b4d0 <g_325>
   127c7:	48 8d 95 30 f0 ff ff 	lea    -0xfd0(%rbp),%rdx
   127ce:	48 83 c2 10          	add    $0x10,%rdx
   127d2:	48 89 d6             	mov    %rdx,%rsi
   127d5:	89 c7                	mov    %eax,%edi
   127d7:	e8 e9 23 00 00       	callq  14bc5 <func_19>
   127dc:	48 89 03             	mov    %rax,(%rbx)
   127df:	66 c7 85 08 ed ff ff 	movw   $0x0,-0x12f8(%rbp)
   127e6:	00 00 
   127e8:	e9 7f 04 00 00       	jmpq   12c6c <func_1+0x14b7>
   127ed:	c7 85 24 ed ff ff a9 	movl   $0x97a70fa9,-0x12dc(%rbp)
   127f4:	0f a7 97 
   127f7:	8b 85 38 f0 ff ff    	mov    -0xfc8(%rbp),%eax
   127fd:	89 85 7c f5 ff ff    	mov    %eax,-0xa84(%rbp)
   12803:	8b 05 b7 b3 01 00    	mov    0x1b3b7(%rip),%eax        # 2dbc0 <g_2393>
   12809:	8d 48 03             	lea    0x3(%rax),%ecx
   1280c:	8b 05 ae b3 01 00    	mov    0x1b3ae(%rip),%eax        # 2dbc0 <g_2393>
   12812:	89 c2                	mov    %eax,%edx
   12814:	89 c8                	mov    %ecx,%eax
   12816:	48 01 d0             	add    %rdx,%rax
   12819:	48 8d 14 85 00 00 00 	lea    0x0(,%rax,4),%rdx
   12820:	00 
   12821:	48 8d 05 b8 4c 01 00 	lea    0x14cb8(%rip),%rax        # 274e0 <g_1397>
   12828:	8b 04 02             	mov    (%rdx,%rax,1),%eax
   1282b:	e9 31 18 00 00       	jmpq   14061 <func_1+0x28ac>
   12830:	48 c7 85 a0 f0 ff ff 	movq   $0x0,-0xf60(%rbp)
   12837:	00 00 00 00 
   1283b:	48 c7 85 a8 f0 ff ff 	movq   $0x0,-0xf58(%rbp)
   12842:	00 00 00 00 
   12846:	48 c7 85 b0 f0 ff ff 	movq   $0x0,-0xf50(%rbp)
   1284d:	00 00 00 00 
   12851:	48 c7 85 b8 f0 ff ff 	movq   $0x0,-0xf48(%rbp)
   12858:	00 00 00 00 
   1285c:	48 c7 85 c0 f0 ff ff 	movq   $0x0,-0xf40(%rbp)
   12863:	00 00 00 00 
   12867:	48 c7 85 c8 f0 ff ff 	movq   $0x0,-0xf38(%rbp)
   1286e:	00 00 00 00 
   12872:	48 c7 85 d0 f0 ff ff 	movq   $0x0,-0xf30(%rbp)
   12879:	00 00 00 00 
   1287d:	48 c7 85 d8 f0 ff ff 	movq   $0x0,-0xf28(%rbp)
   12884:	00 00 00 00 
   12888:	48 8d 05 01 4d 01 00 	lea    0x14d01(%rip),%rax        # 27590 <g_2466>
   1288f:	48 89 85 40 ef ff ff 	mov    %rax,-0x10c0(%rbp)
   12896:	48 8d 05 03 8e 01 00 	lea    0x18e03(%rip),%rax        # 2b6a0 <g_1006>
   1289d:	48 89 85 48 ef ff ff 	mov    %rax,-0x10b8(%rbp)
   128a4:	c7 85 b4 ed ff ff a4 	movl   $0x1295b1a4,-0x124c(%rbp)
   128ab:	b1 95 12 
   128ae:	48 8d 85 d0 ed ff ff 	lea    -0x1230(%rbp),%rax
   128b5:	48 89 05 e4 9e 01 00 	mov    %rax,0x19ee4(%rip)        # 2c7a0 <g_2692>
   128bc:	48 8b 05 3d a0 01 00 	mov    0x1a03d(%rip),%rax        # 2c900 <g_2791>
   128c3:	48 8b 15 d6 9e 01 00 	mov    0x19ed6(%rip),%rdx        # 2c7a0 <g_2692>
   128ca:	48 89 10             	mov    %rdx,(%rax)
   128cd:	0f b7 05 be 4d 01 00 	movzwl 0x14dbe(%rip),%eax        # 27692 <g_2536+0xf2>
   128d4:	0f b6 d0             	movzbl %al,%edx
   128d7:	48 8b b5 40 f1 ff ff 	mov    -0xec0(%rbp),%rsi
   128de:	48 8b 05 13 8c 01 00 	mov    0x18c13(%rip),%rax        # 2b4f8 <g_596>
   128e5:	48 8b 8d 40 ef ff ff 	mov    -0x10c0(%rbp),%rcx
   128ec:	48 89 08             	mov    %rcx,(%rax)
   128ef:	48 8b 00             	mov    (%rax),%rax
   128f2:	48 39 c6             	cmp    %rax,%rsi
   128f5:	0f 95 c0             	setne  %al
   128f8:	0f b6 c0             	movzbl %al,%eax
   128fb:	89 d6                	mov    %edx,%esi
   128fd:	89 c7                	mov    %eax,%edi
   128ff:	e8 d7 e2 ff ff       	callq  10bdb <safe_div_func_uint8_t_u_u>
   12904:	0f b6 c0             	movzbl %al,%eax
   12907:	89 85 a0 f6 ff ff    	mov    %eax,-0x960(%rbp)
   1290d:	48 8b 85 48 ef ff ff 	mov    -0x10b8(%rbp),%rax
   12914:	48 c7 00 00 00 00 00 	movq   $0x0,(%rax)
   1291b:	48 8b 85 48 ef ff ff 	mov    -0x10b8(%rbp),%rax
   12922:	48 8b 00             	mov    (%rax),%rax
   12925:	48 8d 15 34 f8 00 00 	lea    0xf834(%rip),%rdx        # 22160 <g_1760>
   1292c:	48 39 d0             	cmp    %rdx,%rax
   1292f:	48 8b 05 6a 9e 01 00 	mov    0x19e6a(%rip),%rax        # 2c7a0 <g_2692>
   12936:	48 8b 00             	mov    (%rax),%rax
   12939:	66 c7 00 00 00       	movw   $0x0,(%rax)
   1293e:	83 bd 38 ed ff ff 00 	cmpl   $0x0,-0x12c8(%rbp)
   12945:	0f 94 c0             	sete   %al
   12948:	0f b6 d8             	movzbl %al,%ebx
   1294b:	48 8b 85 38 ef ff ff 	mov    -0x10c8(%rbp),%rax
   12952:	89 c2                	mov    %eax,%edx
   12954:	0f b6 05 48 4b 01 00 	movzbl 0x14b48(%rip),%eax        # 274a3 <g_992>
   1295b:	22 85 03 ed ff ff    	and    -0x12fd(%rbp),%al
   12961:	88 05 3c 4b 01 00    	mov    %al,0x14b3c(%rip)        # 274a3 <g_992>
   12967:	0f b6 05 35 4b 01 00 	movzbl 0x14b35(%rip),%eax        # 274a3 <g_992>
   1296e:	0f be c0             	movsbl %al,%eax
   12971:	89 d6                	mov    %edx,%esi
   12973:	89 c7                	mov    %eax,%edi
   12975:	e8 74 d9 ff ff       	callq  102ee <safe_lshift_func_int8_t_s_u>
   1297a:	89 da                	mov    %ebx,%edx
   1297c:	8b 05 fe 47 01 00    	mov    0x147fe(%rip),%eax        # 27180 <g_273>
   12982:	31 d0                	xor    %edx,%eax
   12984:	89 05 f6 47 01 00    	mov    %eax,0x147f6(%rip)        # 27180 <g_273>
   1298a:	8b 05 f0 47 01 00    	mov    0x147f0(%rip),%eax        # 27180 <g_273>
   12990:	8b 95 5c f0 ff ff    	mov    -0xfa4(%rbp),%edx
   12996:	39 d0                	cmp    %edx,%eax
   12998:	48 8b 05 11 8b 01 00 	mov    0x18b11(%rip),%rax        # 2b4b0 <g_119>
   1299f:	48 8b 00             	mov    (%rax),%rax
   129a2:	c7 00 01 00 00 00    	movl   $0x1,(%rax)
   129a8:	48 8b 05 51 9b 01 00 	mov    0x19b51(%rip),%rax        # 2c500 <g_1878>
   129af:	48 8b 00             	mov    (%rax),%rax
   129b2:	48 8b 00             	mov    (%rax),%rax
   129b5:	48 8b 10             	mov    (%rax),%rdx
   129b8:	48 8b 05 d9 8c 01 00 	mov    0x18cd9(%rip),%rax        # 2b698 <g_1000>
   129bf:	8b 12                	mov    (%rdx),%edx
   129c1:	89 10                	mov    %edx,(%rax)
   129c3:	0f be 85 04 ed ff ff 	movsbl -0x12fc(%rbp),%eax
   129ca:	89 85 f8 ec ff ff    	mov    %eax,-0x1308(%rbp)
   129d0:	48 8b 85 38 ef ff ff 	mov    -0x10c8(%rbp),%rax
   129d7:	89 85 f4 ec ff ff    	mov    %eax,-0x130c(%rbp)
   129dd:	8b 9d 54 ed ff ff    	mov    -0x12ac(%rbp),%ebx
   129e3:	8b 85 24 ed ff ff    	mov    -0x12dc(%rbp),%eax
   129e9:	44 0f b7 e0          	movzwl %ax,%r12d
   129ed:	8b 85 ac ed ff ff    	mov    -0x1254(%rbp),%eax
   129f3:	44 0f b6 e8          	movzbl %al,%r13d
   129f7:	48 8b 05 a2 9d 01 00 	mov    0x19da2(%rip),%rax        # 2c7a0 <g_2692>
   129fe:	48 8b 00             	mov    (%rax),%rax
   12a01:	0f b7 00             	movzwl (%rax),%eax
   12a04:	44 0f bf f0          	movswl %ax,%r14d
   12a08:	44 0f b7 bd 0e ed ff 	movzwl -0x12f2(%rbp),%r15d
   12a0f:	ff 
   12a10:	48 8b 05 a1 4a 01 00 	mov    0x14aa1(%rip),%rax        # 274b8 <g_1205>
   12a17:	89 85 f0 ec ff ff    	mov    %eax,-0x1310(%rbp)
   12a1d:	80 bd 04 ed ff ff 00 	cmpb   $0x0,-0x12fc(%rbp)
   12a24:	0f 95 c0             	setne  %al
   12a27:	0f b6 c0             	movzbl %al,%eax
   12a2a:	48 89 c7             	mov    %rax,%rdi
   12a2d:	e8 e4 dd ff ff       	callq  10816 <safe_unary_minus_func_int64_t_s>
   12a32:	48 89 c6             	mov    %rax,%rsi
   12a35:	bf 01 00 00 00       	mov    $0x1,%edi
   12a3a:	e8 0c e6 ff ff       	callq  1104b <safe_sub_func_uint64_t_u_u>
   12a3f:	0f b6 c0             	movzbl %al,%eax
   12a42:	8b b5 f0 ec ff ff    	mov    -0x1310(%rbp),%esi
   12a48:	89 c7                	mov    %eax,%edi
   12a4a:	e8 3e e2 ff ff       	callq  10c8d <safe_rshift_func_uint8_t_u_s>
   12a4f:	0f b6 c0             	movzbl %al,%eax
   12a52:	8b 15 d8 46 01 00    	mov    0x146d8(%rip),%edx        # 27130 <g_220+0x30>
   12a58:	09 d0                	or     %edx,%eax
   12a5a:	0f b7 c0             	movzwl %ax,%eax
   12a5d:	44 89 fe             	mov    %r15d,%esi
   12a60:	89 c7                	mov    %eax,%edi
   12a62:	e8 98 e2 ff ff       	callq  10cff <safe_add_func_uint16_t_u_u>
   12a67:	98                   	cwtl   
   12a68:	be b0 26 00 00       	mov    $0x26b0,%esi
   12a6d:	89 c7                	mov    %eax,%edi
   12a6f:	e8 a2 d9 ff ff       	callq  10416 <safe_mod_func_int16_t_s_s>
   12a74:	66 85 c0             	test   %ax,%ax
   12a77:	74 10                	je     12a89 <func_1+0x12d4>
   12a79:	83 bd b4 ed ff ff 00 	cmpl   $0x0,-0x124c(%rbp)
   12a80:	74 07                	je     12a89 <func_1+0x12d4>
   12a82:	b8 01 00 00 00       	mov    $0x1,%eax
   12a87:	eb 05                	jmp    12a8e <func_1+0x12d9>
   12a89:	b8 00 00 00 00       	mov    $0x0,%eax
   12a8e:	89 c2                	mov    %eax,%edx
   12a90:	8b 85 b4 ed ff ff    	mov    -0x124c(%rbp),%eax
   12a96:	21 d0                	and    %edx,%eax
   12a98:	98                   	cwtl   
   12a99:	44 89 f6             	mov    %r14d,%esi
   12a9c:	89 c7                	mov    %eax,%edi
   12a9e:	e8 52 d9 ff ff       	callq  103f5 <safe_mul_func_int16_t_s_s>
   12aa3:	0f b7 85 0a ed ff ff 	movzwl -0x12f6(%rbp),%eax
   12aaa:	0f b6 c0             	movzbl %al,%eax
   12aad:	44 89 ee             	mov    %r13d,%esi
   12ab0:	89 c7                	mov    %eax,%edi
   12ab2:	e8 dc e0 ff ff       	callq  10b93 <safe_mul_func_uint8_t_u_u>
   12ab7:	8b 85 b4 ed ff ff    	mov    -0x124c(%rbp),%eax
   12abd:	0f b7 c0             	movzwl %ax,%eax
   12ac0:	44 89 e6             	mov    %r12d,%esi
   12ac3:	89 c7                	mov    %eax,%edi
   12ac5:	e8 c4 e2 ff ff       	callq  10d8e <safe_div_func_uint16_t_u_u>
   12aca:	0f b7 c0             	movzwl %ax,%eax
   12acd:	89 de                	mov    %ebx,%esi
   12acf:	89 c7                	mov    %eax,%edi
   12ad1:	e8 27 e4 ff ff       	callq  10efd <safe_mod_func_uint32_t_u_u>
   12ad6:	8b 95 b4 ed ff ff    	mov    -0x124c(%rbp),%edx
   12adc:	39 d0                	cmp    %edx,%eax
   12ade:	0f 92 c0             	setb   %al
   12ae1:	0f b6 c0             	movzbl %al,%eax
   12ae4:	be 0c 00 00 00       	mov    $0xc,%esi
   12ae9:	89 c7                	mov    %eax,%edi
   12aeb:	e8 ce e2 ff ff       	callq  10dbe <safe_lshift_func_uint16_t_u_s>
   12af0:	48 8b 85 08 f0 ff ff 	mov    -0xff8(%rbp),%rax
   12af7:	48 85 c0             	test   %rax,%rax
   12afa:	0f 95 c0             	setne  %al
   12afd:	0f b6 c0             	movzbl %al,%eax
   12b00:	be a5 00 00 00       	mov    $0xa5,%esi
   12b05:	89 c7                	mov    %eax,%edi
   12b07:	e8 6c e0 ff ff       	callq  10b78 <safe_sub_func_uint8_t_u_u>
   12b0c:	84 c0                	test   %al,%al
   12b0e:	0f 94 c0             	sete   %al
   12b11:	0f b6 c0             	movzbl %al,%eax
   12b14:	8b 95 60 ed ff ff    	mov    -0x12a0(%rbp),%edx
   12b1a:	89 d6                	mov    %edx,%esi
   12b1c:	89 c7                	mov    %eax,%edi
   12b1e:	e8 95 e3 ff ff       	callq  10eb8 <safe_add_func_uint32_t_u_u>
   12b23:	48 8b 05 66 92 01 00 	mov    0x19266(%rip),%rax        # 2bd90 <g_1291>
   12b2a:	48 8b 00             	mov    (%rax),%rax
   12b2d:	48 8b 00             	mov    (%rax),%rax
   12b30:	48 8b 00             	mov    (%rax),%rax
   12b33:	48 89 c7             	mov    %rax,%rdi
   12b36:	e8 db dc ff ff       	callq  10816 <safe_unary_minus_func_int64_t_s>
   12b3b:	89 85 7c ef ff ff    	mov    %eax,-0x1084(%rbp)
   12b41:	8b 85 7c ef ff ff    	mov    -0x1084(%rbp),%eax
   12b47:	48 98                	cltq   
   12b49:	48 be 79 33 a7 e8 f6 	movabs $0xc192abf6e8a73379,%rsi
   12b50:	ab 92 c1 
   12b53:	48 89 c7             	mov    %rax,%rdi
   12b56:	e8 f0 e4 ff ff       	callq  1104b <safe_sub_func_uint64_t_u_u>
   12b5b:	0f b7 c0             	movzwl %ax,%eax
   12b5e:	48 8b 15 cb 44 01 00 	mov    0x144cb(%rip),%rdx        # 27030 <g_32>
   12b65:	48 39 d0             	cmp    %rdx,%rax
   12b68:	74 10                	je     12b7a <func_1+0x13c5>
   12b6a:	83 bd b4 ed ff ff 00 	cmpl   $0x0,-0x124c(%rbp)
   12b71:	74 07                	je     12b7a <func_1+0x13c5>
   12b73:	ba 01 00 00 00       	mov    $0x1,%edx
   12b78:	eb 05                	jmp    12b7f <func_1+0x13ca>
   12b7a:	ba 00 00 00 00       	mov    $0x0,%edx
   12b7f:	48 8b 85 d0 ed ff ff 	mov    -0x1230(%rbp),%rax
   12b86:	66 89 10             	mov    %dx,(%rax)
   12b89:	0f b7 00             	movzwl (%rax),%eax
   12b8c:	98                   	cwtl   
   12b8d:	8b b5 f4 ec ff ff    	mov    -0x130c(%rbp),%esi
   12b93:	89 c7                	mov    %eax,%edi
   12b95:	e8 c9 d9 ff ff       	callq  10563 <safe_rshift_func_int16_t_s_u>
   12b9a:	66 85 c0             	test   %ax,%ax
   12b9d:	74 08                	je     12ba7 <func_1+0x13f2>
   12b9f:	66 83 bd 0e ed ff ff 	cmpw   $0x0,-0x12f2(%rbp)
   12ba6:	00 
   12ba7:	8b 85 7c ef ff ff    	mov    -0x1084(%rbp),%eax
   12bad:	0f bf d8             	movswl %ax,%ebx
   12bb0:	0f b7 05 b7 4b 01 00 	movzwl 0x14bb7(%rip),%eax        # 2776e <g_2813>
   12bb7:	0f b6 d0             	movzbl %al,%edx
   12bba:	8b 85 b4 ed ff ff    	mov    -0x124c(%rbp),%eax
   12bc0:	89 85 7c f5 ff ff    	mov    %eax,-0xa84(%rbp)
   12bc6:	8b 85 7c f5 ff ff    	mov    -0xa84(%rbp),%eax
   12bcc:	0f b6 c0             	movzbl %al,%eax
   12bcf:	89 d6                	mov    %edx,%esi
   12bd1:	89 c7                	mov    %eax,%edi
   12bd3:	e8 bb df ff ff       	callq  10b93 <safe_mul_func_uint8_t_u_u>
   12bd8:	0f b6 c0             	movzbl %al,%eax
   12bdb:	89 de                	mov    %ebx,%esi
   12bdd:	89 c7                	mov    %eax,%edi
   12bdf:	e8 11 d8 ff ff       	callq  103f5 <safe_mul_func_int16_t_s_s>
   12be4:	bf 01 00 00 00       	mov    $0x1,%edi
   12be9:	e8 2b e4 ff ff       	callq  11019 <safe_unary_minus_func_uint64_t_u>
   12bee:	48 8b 15 93 48 01 00 	mov    0x14893(%rip),%rdx        # 27488 <g_898>
   12bf5:	48 39 d0             	cmp    %rdx,%rax
   12bf8:	8b 85 b4 ed ff ff    	mov    -0x124c(%rbp),%eax
   12bfe:	89 85 54 ed ff ff    	mov    %eax,-0x12ac(%rbp)
   12c04:	0f b6 05 97 48 01 00 	movzbl 0x14897(%rip),%eax        # 274a2 <g_991>
   12c0b:	0f be c0             	movsbl %al,%eax
   12c0e:	39 85 54 ed ff ff    	cmp    %eax,-0x12ac(%rbp)
   12c14:	48 8b 05 55 9b 01 00 	mov    0x19b55(%rip),%rax        # 2c770 <g_2657>
   12c1b:	48 8b 00             	mov    (%rax),%rax
   12c1e:	48 85 c0             	test   %rax,%rax
   12c21:	0f 95 c0             	setne  %al
   12c24:	0f b6 c0             	movzbl %al,%eax
   12c27:	f7 d0                	not    %eax
   12c29:	0f b7 c0             	movzwl %ax,%eax
   12c2c:	be 79 0c 00 00       	mov    $0xc79,%esi
   12c31:	89 c7                	mov    %eax,%edi
   12c33:	e8 e7 e0 ff ff       	callq  10d1f <safe_sub_func_uint16_t_u_u>
   12c38:	0f b7 c0             	movzwl %ax,%eax
   12c3b:	39 85 f8 ec ff ff    	cmp    %eax,-0x1308(%rbp)
   12c41:	0f 9c c0             	setl   %al
   12c44:	0f b6 c8             	movzbl %al,%ecx
   12c47:	48 8b 05 4a 8a 01 00 	mov    0x18a4a(%rip),%rax        # 2b698 <g_1000>
   12c4e:	8b 10                	mov    (%rax),%edx
   12c50:	48 8b 05 41 8a 01 00 	mov    0x18a41(%rip),%rax        # 2b698 <g_1000>
   12c57:	09 ca                	or     %ecx,%edx
   12c59:	89 10                	mov    %edx,(%rax)
   12c5b:	0f b7 85 08 ed ff ff 	movzwl -0x12f8(%rbp),%eax
   12c62:	83 c0 01             	add    $0x1,%eax
   12c65:	66 89 85 08 ed ff ff 	mov    %ax,-0x12f8(%rbp)
   12c6c:	0f b7 85 08 ed ff ff 	movzwl -0x12f8(%rbp),%eax
   12c73:	66 85 c0             	test   %ax,%ax
   12c76:	0f 84 b4 fb ff ff    	je     12830 <func_1+0x107b>
   12c7c:	8b 05 3e af 01 00    	mov    0x1af3e(%rip),%eax        # 2dbc0 <g_2393>
   12c82:	83 c0 01             	add    $0x1,%eax
   12c85:	89 05 35 af 01 00    	mov    %eax,0x1af35(%rip)        # 2dbc0 <g_2393>
   12c8b:	8b 05 2f af 01 00    	mov    0x1af2f(%rip),%eax        # 2dbc0 <g_2393>
   12c91:	85 c0                	test   %eax,%eax
   12c93:	0f 84 89 fa ff ff    	je     12722 <func_1+0xf6d>
   12c99:	eb 01                	jmp    12c9c <func_1+0x14e7>
   12c9b:	90                   	nop
   12c9c:	83 ad 48 ed ff ff 01 	subl   $0x1,-0x12b8(%rbp)
   12ca3:	48 83 85 08 ee ff ff 	addq   $0x1,-0x11f8(%rbp)
   12caa:	01 
   12cab:	48 8d 85 00 ee ff ff 	lea    -0x1200(%rbp),%rax
   12cb2:	48 89 85 f0 ed ff ff 	mov    %rax,-0x1210(%rbp)
   12cb9:	8b 05 59 47 01 00    	mov    0x14759(%rip),%eax        # 27418 <g_860>
   12cbf:	be 08 00 00 00       	mov    $0x8,%esi
   12cc4:	89 c7                	mov    %eax,%edi
   12cc6:	e8 eb d8 ff ff       	callq  105b6 <safe_add_func_int32_t_s_s>
   12ccb:	89 05 47 47 01 00    	mov    %eax,0x14747(%rip)        # 27418 <g_860>
   12cd1:	8b 05 41 47 01 00    	mov    0x14741(%rip),%eax        # 27418 <g_860>
   12cd7:	83 f8 18             	cmp    $0x18,%eax
   12cda:	0f 86 10 f9 ff ff    	jbe    125f0 <func_1+0xe3b>
   12ce0:	c7 05 aa 47 01 00 f6 	movl   $0xfffffff6,0x147aa(%rip)        # 27494 <g_900>
   12ce7:	ff ff ff 
   12cea:	e9 50 10 00 00       	jmpq   13d3f <func_1+0x258a>
   12cef:	c7 85 00 ee ff ff 01 	movl   $0xf39c9801,-0x1200(%rbp)
   12cf6:	98 9c f3 
   12cf9:	c7 85 80 ed ff ff 88 	movl   $0x82cb2f88,-0x1280(%rbp)
   12d00:	2f cb 82 
   12d03:	48 8d 85 c0 ed ff ff 	lea    -0x1240(%rbp),%rax
   12d0a:	48 89 85 30 f1 ff ff 	mov    %rax,-0xed0(%rbp)
   12d11:	48 8d 85 c0 ed ff ff 	lea    -0x1240(%rbp),%rax
   12d18:	48 89 85 38 f1 ff ff 	mov    %rax,-0xec8(%rbp)
   12d1f:	48 8d 85 c0 ed ff ff 	lea    -0x1240(%rbp),%rax
   12d26:	48 89 85 40 f1 ff ff 	mov    %rax,-0xec0(%rbp)
   12d2d:	48 8d 85 c0 ed ff ff 	lea    -0x1240(%rbp),%rax
   12d34:	48 89 85 48 f1 ff ff 	mov    %rax,-0xeb8(%rbp)
   12d3b:	48 8d 85 c0 ed ff ff 	lea    -0x1240(%rbp),%rax
   12d42:	48 89 85 50 f1 ff ff 	mov    %rax,-0xeb0(%rbp)
   12d49:	48 8d 85 c0 ed ff ff 	lea    -0x1240(%rbp),%rax
   12d50:	48 89 85 58 f1 ff ff 	mov    %rax,-0xea8(%rbp)
   12d57:	48 8d 85 c0 ed ff ff 	lea    -0x1240(%rbp),%rax
   12d5e:	48 89 85 60 f1 ff ff 	mov    %rax,-0xea0(%rbp)
   12d65:	48 8d 85 c0 ed ff ff 	lea    -0x1240(%rbp),%rax
   12d6c:	48 89 85 68 f1 ff ff 	mov    %rax,-0xe98(%rbp)
   12d73:	48 8d 85 c0 ed ff ff 	lea    -0x1240(%rbp),%rax
   12d7a:	48 89 85 70 f1 ff ff 	mov    %rax,-0xe90(%rbp)
   12d81:	48 8d 85 c0 ed ff ff 	lea    -0x1240(%rbp),%rax
   12d88:	48 89 85 78 f1 ff ff 	mov    %rax,-0xe88(%rbp)
   12d8f:	c7 85 84 ed ff ff 00 	movl   $0x0,-0x127c(%rbp)
   12d96:	00 00 00 
   12d99:	48 8d 05 38 87 01 00 	lea    0x18738(%rip),%rax        # 2b4d8 <g_397>
   12da0:	48 89 85 90 ee ff ff 	mov    %rax,-0x1170(%rbp)
   12da7:	48 8d 05 f2 88 01 00 	lea    0x188f2(%rip),%rax        # 2b6a0 <g_1006>
   12dae:	48 89 85 60 f0 ff ff 	mov    %rax,-0xfa0(%rbp)
   12db5:	48 8d 05 e4 88 01 00 	lea    0x188e4(%rip),%rax        # 2b6a0 <g_1006>
   12dbc:	48 89 85 68 f0 ff ff 	mov    %rax,-0xf98(%rbp)
   12dc3:	48 8d 05 d6 88 01 00 	lea    0x188d6(%rip),%rax        # 2b6a0 <g_1006>
   12dca:	48 89 85 70 f0 ff ff 	mov    %rax,-0xf90(%rbp)
   12dd1:	48 8d 05 c8 88 01 00 	lea    0x188c8(%rip),%rax        # 2b6a0 <g_1006>
   12dd8:	48 89 85 78 f0 ff ff 	mov    %rax,-0xf88(%rbp)
   12ddf:	48 8d 05 ba 88 01 00 	lea    0x188ba(%rip),%rax        # 2b6a0 <g_1006>
   12de6:	48 89 85 80 f0 ff ff 	mov    %rax,-0xf80(%rbp)
   12ded:	48 8d 05 ac 88 01 00 	lea    0x188ac(%rip),%rax        # 2b6a0 <g_1006>
   12df4:	48 89 85 88 f0 ff ff 	mov    %rax,-0xf78(%rbp)
   12dfb:	66 c7 85 14 ed ff ff 	movw   $0xfff8,-0x12ec(%rbp)
   12e02:	f8 ff 
   12e04:	48 8d 05 05 ad 01 00 	lea    0x1ad05(%rip),%rax        # 2db10 <g_587>
   12e0b:	48 89 85 98 ee ff ff 	mov    %rax,-0x1168(%rbp)
   12e12:	c7 85 88 ed ff ff ff 	movl   $0xffffffff,-0x1278(%rbp)
   12e19:	ff ff ff 
   12e1c:	c7 85 8c ed ff ff ef 	movl   $0xa38b07ef,-0x1274(%rbp)
   12e23:	07 8b a3 
   12e26:	66 c7 85 80 ef ff ff 	movw   $0x2f15,-0x1080(%rbp)
   12e2d:	15 2f 
   12e2f:	66 c7 85 82 ef ff ff 	movw   $0x6,-0x107e(%rbp)
   12e36:	06 00 
   12e38:	66 c7 85 84 ef ff ff 	movw   $0x6,-0x107c(%rbp)
   12e3f:	06 00 
   12e41:	66 c7 85 86 ef ff ff 	movw   $0x2f15,-0x107a(%rbp)
   12e48:	15 2f 
   12e4a:	66 c7 85 88 ef ff ff 	movw   $0x6,-0x1078(%rbp)
   12e51:	06 00 
   12e53:	66 c7 85 8a ef ff ff 	movw   $0x6,-0x1076(%rbp)
   12e5a:	06 00 
   12e5c:	66 c7 85 8c ef ff ff 	movw   $0x2f15,-0x1074(%rbp)
   12e63:	15 2f 
   12e65:	66 c7 85 8e ef ff ff 	movw   $0x6,-0x1072(%rbp)
   12e6c:	06 00 
   12e6e:	66 c7 85 90 ef ff ff 	movw   $0x6,-0x1070(%rbp)
   12e75:	06 00 
   12e77:	c7 85 58 ed ff ff 00 	movl   $0x0,-0x12a8(%rbp)
   12e7e:	00 00 00 
   12e81:	eb 1e                	jmp    12ea1 <func_1+0x16ec>
   12e83:	8b 85 58 ed ff ff    	mov    -0x12a8(%rbp),%eax
   12e89:	48 98                	cltq   
   12e8b:	48 8d 15 8e 96 01 00 	lea    0x1968e(%rip),%rdx        # 2c520 <g_2279>
   12e92:	48 89 94 c5 e0 ef ff 	mov    %rdx,-0x1020(%rbp,%rax,8)
   12e99:	ff 
   12e9a:	83 85 58 ed ff ff 01 	addl   $0x1,-0x12a8(%rbp)
   12ea1:	83 bd 58 ed ff ff 03 	cmpl   $0x3,-0x12a8(%rbp)
   12ea8:	7e d9                	jle    12e83 <func_1+0x16ce>
   12eaa:	66 83 bd 0e ed ff ff 	cmpw   $0x0,-0x12f2(%rbp)
   12eb1:	00 
   12eb2:	0f 84 66 0c 00 00    	je     13b1e <func_1+0x2369>
   12eb8:	48 8d 05 0b 42 01 00 	lea    0x1420b(%rip),%rax        # 270ca <g_211+0x2>
   12ebf:	48 89 85 c0 ee ff ff 	mov    %rax,-0x1140(%rbp)
   12ec6:	48 8d 05 cb 45 01 00 	lea    0x145cb(%rip),%rax        # 27498 <g_903>
   12ecd:	48 89 85 c8 ee ff ff 	mov    %rax,-0x1138(%rbp)
   12ed4:	48 c7 85 d0 ee ff ff 	movq   $0x0,-0x1130(%rbp)
   12edb:	00 00 00 00 
   12edf:	48 8d 05 8a 48 01 00 	lea    0x1488a(%rip),%rax        # 27770 <g_2895>
   12ee6:	48 89 85 d8 ee ff ff 	mov    %rax,-0x1128(%rbp)
   12eed:	c7 85 98 ed ff ff 8b 	movl   $0xcf82778b,-0x1268(%rbp)
   12ef4:	77 82 cf 
   12ef7:	48 8d 85 1c ed ff ff 	lea    -0x12e4(%rbp),%rax
   12efe:	48 89 85 e0 ee ff ff 	mov    %rax,-0x1120(%rbp)
   12f05:	48 8d 05 b4 41 01 00 	lea    0x141b4(%rip),%rax        # 270c0 <g_149>
   12f0c:	48 89 85 e8 ee ff ff 	mov    %rax,-0x1118(%rbp)
   12f13:	c7 85 9c ed ff ff 6f 	movl   $0xea072e6f,-0x1264(%rbp)
   12f1a:	2e 07 ea 
   12f1d:	66 c7 85 16 ed ff ff 	movw   $0xffff,-0x12ea(%rbp)
   12f24:	ff ff 
   12f26:	48 8d 05 57 42 01 00 	lea    0x14257(%rip),%rax        # 27184 <g_340>
   12f2d:	48 89 85 50 f4 ff ff 	mov    %rax,-0xbb0(%rbp)
   12f34:	48 8d 05 89 41 01 00 	lea    0x14189(%rip),%rax        # 270c4 <g_164>
   12f3b:	48 89 85 58 f4 ff ff 	mov    %rax,-0xba8(%rbp)
   12f42:	48 8d 05 7b 41 01 00 	lea    0x1417b(%rip),%rax        # 270c4 <g_164>
   12f49:	48 89 85 60 f4 ff ff 	mov    %rax,-0xba0(%rbp)
   12f50:	48 8d 05 2d 42 01 00 	lea    0x1422d(%rip),%rax        # 27184 <g_340>
   12f57:	48 89 85 68 f4 ff ff 	mov    %rax,-0xb98(%rbp)
   12f5e:	48 8d 05 5f 41 01 00 	lea    0x1415f(%rip),%rax        # 270c4 <g_164>
   12f65:	48 89 85 70 f4 ff ff 	mov    %rax,-0xb90(%rbp)
   12f6c:	48 8d 05 51 41 01 00 	lea    0x14151(%rip),%rax        # 270c4 <g_164>
   12f73:	48 89 85 78 f4 ff ff 	mov    %rax,-0xb88(%rbp)
   12f7a:	48 8d 05 03 42 01 00 	lea    0x14203(%rip),%rax        # 27184 <g_340>
   12f81:	48 89 85 80 f4 ff ff 	mov    %rax,-0xb80(%rbp)
   12f88:	48 8d 05 35 41 01 00 	lea    0x14135(%rip),%rax        # 270c4 <g_164>
   12f8f:	48 89 85 88 f4 ff ff 	mov    %rax,-0xb78(%rbp)
   12f96:	48 8d 05 27 41 01 00 	lea    0x14127(%rip),%rax        # 270c4 <g_164>
   12f9d:	48 89 85 90 f4 ff ff 	mov    %rax,-0xb70(%rbp)
   12fa4:	48 8d 05 d9 41 01 00 	lea    0x141d9(%rip),%rax        # 27184 <g_340>
   12fab:	48 89 85 98 f4 ff ff 	mov    %rax,-0xb68(%rbp)
   12fb2:	48 8d 05 0b 41 01 00 	lea    0x1410b(%rip),%rax        # 270c4 <g_164>
   12fb9:	48 89 85 a0 f4 ff ff 	mov    %rax,-0xb60(%rbp)
   12fc0:	48 8d 05 fd 40 01 00 	lea    0x140fd(%rip),%rax        # 270c4 <g_164>
   12fc7:	48 89 85 a8 f4 ff ff 	mov    %rax,-0xb58(%rbp)
   12fce:	48 8d 05 af 41 01 00 	lea    0x141af(%rip),%rax        # 27184 <g_340>
   12fd5:	48 89 85 b0 f4 ff ff 	mov    %rax,-0xb50(%rbp)
   12fdc:	48 8d 05 e1 40 01 00 	lea    0x140e1(%rip),%rax        # 270c4 <g_164>
   12fe3:	48 89 85 b8 f4 ff ff 	mov    %rax,-0xb48(%rbp)
   12fea:	48 8d 05 d3 40 01 00 	lea    0x140d3(%rip),%rax        # 270c4 <g_164>
   12ff1:	48 89 85 c0 f4 ff ff 	mov    %rax,-0xb40(%rbp)
   12ff8:	48 8d 05 85 41 01 00 	lea    0x14185(%rip),%rax        # 27184 <g_340>
   12fff:	48 89 85 c8 f4 ff ff 	mov    %rax,-0xb38(%rbp)
   13006:	48 8d 05 b7 40 01 00 	lea    0x140b7(%rip),%rax        # 270c4 <g_164>
   1300d:	48 89 85 d0 f4 ff ff 	mov    %rax,-0xb30(%rbp)
   13014:	48 8d 05 a9 40 01 00 	lea    0x140a9(%rip),%rax        # 270c4 <g_164>
   1301b:	48 89 85 d8 f4 ff ff 	mov    %rax,-0xb28(%rbp)
   13022:	48 8d 05 5b 41 01 00 	lea    0x1415b(%rip),%rax        # 27184 <g_340>
   13029:	48 89 85 e0 f4 ff ff 	mov    %rax,-0xb20(%rbp)
   13030:	48 8d 05 8d 40 01 00 	lea    0x1408d(%rip),%rax        # 270c4 <g_164>
   13037:	48 89 85 e8 f4 ff ff 	mov    %rax,-0xb18(%rbp)
   1303e:	48 8d 05 7f 40 01 00 	lea    0x1407f(%rip),%rax        # 270c4 <g_164>
   13045:	48 89 85 f0 f4 ff ff 	mov    %rax,-0xb10(%rbp)
   1304c:	48 8d 05 31 41 01 00 	lea    0x14131(%rip),%rax        # 27184 <g_340>
   13053:	48 89 85 f8 f4 ff ff 	mov    %rax,-0xb08(%rbp)
   1305a:	48 8d 05 63 40 01 00 	lea    0x14063(%rip),%rax        # 270c4 <g_164>
   13061:	48 89 85 00 f5 ff ff 	mov    %rax,-0xb00(%rbp)
   13068:	48 8d 05 55 40 01 00 	lea    0x14055(%rip),%rax        # 270c4 <g_164>
   1306f:	48 89 85 08 f5 ff ff 	mov    %rax,-0xaf8(%rbp)
   13076:	48 8b 05 f3 96 01 00 	mov    0x196f3(%rip),%rax        # 2c770 <g_2657>
   1307d:	48 8b 00             	mov    (%rax),%rax
   13080:	48 8b 00             	mov    (%rax),%rax
   13083:	48 8b 00             	mov    (%rax),%rax
   13086:	0f b7 00             	movzwl (%rax),%eax
   13089:	0f bf d8             	movswl %ax,%ebx
   1308c:	48 83 bd 58 ee ff ff 	cmpq   $0x0,-0x11a8(%rbp)
   13093:	00 
   13094:	8b 85 98 ed ff ff    	mov    -0x1268(%rbp),%eax
   1309a:	44 0f bf e0          	movswl %ax,%r12d
   1309e:	48 8b 85 d8 ee ff ff 	mov    -0x1128(%rbp),%rax
   130a5:	0f b6 00             	movzbl (%rax),%eax
   130a8:	8d 48 ff             	lea    -0x1(%rax),%ecx
   130ab:	48 8b 95 d8 ee ff ff 	mov    -0x1128(%rbp),%rdx
   130b2:	88 0a                	mov    %cl,(%rdx)
   130b4:	0f b6 d0             	movzbl %al,%edx
   130b7:	48 8b 85 c0 ee ff ff 	mov    -0x1140(%rbp),%rax
   130be:	0f b6 00             	movzbl (%rax),%eax
   130c1:	89 c1                	mov    %eax,%ecx
   130c3:	8b 85 00 ee ff ff    	mov    -0x1200(%rbp),%eax
   130c9:	09 c8                	or     %ecx,%eax
   130cb:	89 c1                	mov    %eax,%ecx
   130cd:	48 8b 85 c0 ee ff ff 	mov    -0x1140(%rbp),%rax
   130d4:	88 08                	mov    %cl,(%rax)
   130d6:	48 8b 85 c0 ee ff ff 	mov    -0x1140(%rbp),%rax
   130dd:	0f b6 08             	movzbl (%rax),%ecx
   130e0:	48 8b 85 c8 ee ff ff 	mov    -0x1138(%rbp),%rax
   130e7:	0f b6 00             	movzbl (%rax),%eax
   130ea:	09 c1                	or     %eax,%ecx
   130ec:	48 8b 85 c8 ee ff ff 	mov    -0x1138(%rbp),%rax
   130f3:	88 08                	mov    %cl,(%rax)
   130f5:	48 8b 85 c8 ee ff ff 	mov    -0x1138(%rbp),%rax
   130fc:	0f b6 00             	movzbl (%rax),%eax
   130ff:	0f b6 c0             	movzbl %al,%eax
   13102:	89 d6                	mov    %edx,%esi
   13104:	89 c7                	mov    %eax,%edi
   13106:	e8 4f da ff ff       	callq  10b5a <safe_add_func_uint8_t_u_u>
   1310b:	44 8b ad 7c ef ff ff 	mov    -0x1084(%rbp),%r13d
   13112:	8b 95 7c ef ff ff    	mov    -0x1084(%rbp),%edx
   13118:	48 8b 85 78 f1 ff ff 	mov    -0xe88(%rbp),%rax
   1311f:	48 85 c0             	test   %rax,%rax
   13122:	0f 95 c0             	setne  %al
   13125:	0f b6 c0             	movzbl %al,%eax
   13128:	89 d6                	mov    %edx,%esi
   1312a:	89 c7                	mov    %eax,%edi
   1312c:	e8 5c db ff ff       	callq  10c8d <safe_rshift_func_uint8_t_u_s>
   13131:	48 8b 05 60 85 01 00 	mov    0x18560(%rip),%rax        # 2b698 <g_1000>
   13138:	c7 00 61 14 fa a3    	movl   $0xa3fa1461,(%rax)
   1313e:	44 89 ee             	mov    %r13d,%esi
   13141:	bf 00 00 00 00       	mov    $0x0,%edi
   13146:	e8 73 dc ff ff       	callq  10dbe <safe_lshift_func_uint16_t_u_s>
   1314b:	0f b6 c0             	movzbl %al,%eax
   1314e:	be 02 00 00 00       	mov    $0x2,%esi
   13153:	89 c7                	mov    %eax,%edi
   13155:	e8 64 db ff ff       	callq  10cbe <safe_rshift_func_uint8_t_u_u>
   1315a:	0f b6 c0             	movzbl %al,%eax
   1315d:	be c1 00 00 00       	mov    $0xc1,%esi
   13162:	89 c7                	mov    %eax,%edi
   13164:	e8 45 da ff ff       	callq  10bae <safe_mod_func_uint8_t_u_u>
   13169:	0f b6 d0             	movzbl %al,%edx
   1316c:	48 8b 0d 0d aa 01 00 	mov    0x1aa0d(%rip),%rcx        # 2db80 <g_995>
   13173:	48 8b 85 f8 ed ff ff 	mov    -0x1208(%rbp),%rax
   1317a:	88 08                	mov    %cl,(%rax)
   1317c:	0f b6 00             	movzbl (%rax),%eax
   1317f:	0f be c0             	movsbl %al,%eax
   13182:	89 d6                	mov    %edx,%esi
   13184:	89 c7                	mov    %eax,%edi
   13186:	e8 aa d1 ff ff       	callq  10335 <safe_rshift_func_int8_t_s_s>
   1318b:	48 be 0d be 09 8d 25 	movabs $0x506c4f258d09be0d,%rsi
   13192:	4f 6c 50 
   13195:	bf 01 00 00 00       	mov    $0x1,%edi
   1319a:	e8 8f de ff ff       	callq  1102e <safe_add_func_uint64_t_u_u>
   1319f:	89 c2                	mov    %eax,%edx
   131a1:	8b 85 98 ed ff ff    	mov    -0x1268(%rbp),%eax
   131a7:	09 d0                	or     %edx,%eax
   131a9:	98                   	cwtl   
   131aa:	89 c7                	mov    %eax,%edi
   131ac:	e8 ec d1 ff ff       	callq  1039d <safe_unary_minus_func_int16_t_s>
   131b1:	8b 85 48 ed ff ff    	mov    -0x12b8(%rbp),%eax
   131b7:	0f b6 c0             	movzbl %al,%eax
   131ba:	89 c7                	mov    %eax,%edi
   131bc:	e8 84 d9 ff ff       	callq  10b45 <safe_unary_minus_func_uint8_t_u>
   131c1:	0f b6 c0             	movzbl %al,%eax
   131c4:	39 85 84 ed ff ff    	cmp    %eax,-0x127c(%rbp)
   131ca:	0f 97 c0             	seta   %al
   131cd:	0f b6 c0             	movzbl %al,%eax
   131d0:	44 89 e6             	mov    %r12d,%esi
   131d3:	89 c7                	mov    %eax,%edi
   131d5:	e8 7b d2 ff ff       	callq  10455 <safe_div_func_int16_t_s_s>
   131da:	89 de                	mov    %ebx,%esi
   131dc:	bf 01 00 00 00       	mov    $0x1,%edi
   131e1:	e8 ed d1 ff ff       	callq  103d3 <safe_sub_func_int16_t_s_s>
   131e6:	0f b6 55 c0          	movzbl -0x40(%rbp),%edx
   131ea:	66 0f be d2          	movsbw %dl,%dx
   131ee:	66 39 d0             	cmp    %dx,%ax
   131f1:	0f 9f c0             	setg   %al
   131f4:	0f b6 c0             	movzbl %al,%eax
   131f7:	48 be 97 6c 32 fc 10 	movabs $0x2096c10fc326c97,%rsi
   131fe:	6c 09 02 
   13201:	48 89 c7             	mov    %rax,%rdi
   13204:	e8 42 de ff ff       	callq  1104b <safe_sub_func_uint64_t_u_u>
   13209:	0f be c0             	movsbl %al,%eax
   1320c:	be 01 00 00 00       	mov    $0x1,%esi
   13211:	89 c7                	mov    %eax,%edi
   13213:	e8 bc cf ff ff       	callq  101d4 <safe_add_func_int8_t_s_s>
   13218:	0f be c0             	movsbl %al,%eax
   1321b:	8b 95 38 ed ff ff    	mov    -0x12c8(%rbp),%edx
   13221:	89 d6                	mov    %edx,%esi
   13223:	89 c7                	mov    %eax,%edi
   13225:	e8 77 d0 ff ff       	callq  102a1 <safe_lshift_func_int8_t_s_s>
   1322a:	48 0f be c0          	movsbq %al,%rax
   1322e:	be 00 00 00 00       	mov    $0x0,%esi
   13233:	48 89 c7             	mov    %rax,%rdi
   13236:	e8 6d d6 ff ff       	callq  108a8 <safe_sub_func_int64_t_s_s>
   1323b:	c7 85 a0 ed ff ff ff 	movl   $0xffffffff,-0x1260(%rbp)
   13242:	ff ff ff 
   13245:	48 8d 05 44 43 01 00 	lea    0x14344(%rip),%rax        # 27590 <g_2466>
   1324c:	48 89 85 f0 ee ff ff 	mov    %rax,-0x1110(%rbp)
   13253:	48 8b 05 76 82 01 00 	mov    0x18276(%rip),%rax        # 2b4d0 <g_325>
   1325a:	48 8b 95 20 ee ff ff 	mov    -0x11e0(%rbp),%rdx
   13261:	48 89 10             	mov    %rdx,(%rax)
   13264:	48 8b 05 55 82 01 00 	mov    0x18255(%rip),%rax        # 2b4c0 <g_296>
   1326b:	48 8b 00             	mov    (%rax),%rax
   1326e:	48 8b 00             	mov    (%rax),%rax
   13271:	49 89 c4             	mov    %rax,%r12
   13274:	0f b7 05 05 43 01 00 	movzwl 0x14305(%rip),%eax        # 27580 <g_2174>
   1327b:	0f be d8             	movsbl %al,%ebx
   1327e:	48 8b 85 e0 ee ff ff 	mov    -0x1120(%rbp),%rax
   13285:	8b 00                	mov    (%rax),%eax
   13287:	41 89 c5             	mov    %eax,%r13d
   1328a:	48 8b 85 c8 ed ff ff 	mov    -0x1238(%rbp),%rax
   13291:	48 8b 00             	mov    (%rax),%rax
   13294:	8b 00                	mov    (%rax),%eax
   13296:	85 c0                	test   %eax,%eax
   13298:	74 3f                	je     132d9 <func_1+0x1b24>
   1329a:	48 8b 85 80 f0 ff ff 	mov    -0xf80(%rbp),%rax
   132a1:	48 39 85 28 ee ff ff 	cmp    %rax,-0x11d8(%rbp)
   132a8:	0f 95 c0             	setne  %al
   132ab:	0f b6 d0             	movzbl %al,%edx
   132ae:	8b 85 48 ed ff ff    	mov    -0x12b8(%rbp),%eax
   132b4:	89 d6                	mov    %edx,%esi
   132b6:	89 c7                	mov    %eax,%edi
   132b8:	e8 13 dc ff ff       	callq  10ed0 <safe_sub_func_uint32_t_u_u>
   132bd:	89 c6                	mov    %eax,%esi
   132bf:	bf 00 00 00 00       	mov    $0x0,%edi
   132c4:	e8 ef db ff ff       	callq  10eb8 <safe_add_func_uint32_t_u_u>
   132c9:	25 77 d8 47 2c       	and    $0x2c47d877,%eax
   132ce:	85 c0                	test   %eax,%eax
   132d0:	74 07                	je     132d9 <func_1+0x1b24>
   132d2:	b9 01 00 00 00       	mov    $0x1,%ecx
   132d7:	eb 05                	jmp    132de <func_1+0x1b29>
   132d9:	b9 00 00 00 00       	mov    $0x0,%ecx
   132de:	48 8b 85 d0 ed ff ff 	mov    -0x1230(%rbp),%rax
   132e5:	0f b7 10             	movzwl (%rax),%edx
   132e8:	48 8b 85 d0 ed ff ff 	mov    -0x1230(%rbp),%rax
   132ef:	31 ca                	xor    %ecx,%edx
   132f1:	66 89 10             	mov    %dx,(%rax)
   132f4:	0f b7 00             	movzwl (%rax),%eax
   132f7:	66 85 c0             	test   %ax,%ax
   132fa:	75 0a                	jne    13306 <func_1+0x1b51>
   132fc:	66 83 bd 14 ed ff ff 	cmpw   $0x0,-0x12ec(%rbp)
   13303:	00 
   13304:	74 07                	je     1330d <func_1+0x1b58>
   13306:	b8 01 00 00 00       	mov    $0x1,%eax
   1330b:	eb 05                	jmp    13312 <func_1+0x1b5d>
   1330d:	b8 00 00 00 00       	mov    $0x0,%eax
   13312:	44 89 ee             	mov    %r13d,%esi
   13315:	89 c7                	mov    %eax,%edi
   13317:	e8 9c db ff ff       	callq  10eb8 <safe_add_func_uint32_t_u_u>
   1331c:	0f be c0             	movsbl %al,%eax
   1331f:	89 de                	mov    %ebx,%esi
   13321:	89 c7                	mov    %eax,%edi
   13323:	e8 ca ce ff ff       	callq  101f2 <safe_sub_func_int8_t_s_s>
   13328:	66 98                	cbtw   
   1332a:	0f b7 c0             	movzwl %ax,%eax
   1332d:	be 0a 00 00 00       	mov    $0xa,%esi
   13332:	89 c7                	mov    %eax,%edi
   13334:	e8 41 db ff ff       	callq  10e7a <safe_rshift_func_uint16_t_u_u>
   13339:	98                   	cwtl   
   1333a:	be ed 4d 00 00       	mov    $0x4ded,%esi
   1333f:	89 c7                	mov    %eax,%edi
   13341:	e8 af d0 ff ff       	callq  103f5 <safe_mul_func_int16_t_s_s>
   13346:	8b 05 50 41 01 00    	mov    0x14150(%rip),%eax        # 2749c <g_925>
   1334c:	0f be c0             	movsbl %al,%eax
   1334f:	be 07 00 00 00       	mov    $0x7,%esi
   13354:	89 c7                	mov    %eax,%edi
   13356:	e8 11 d0 ff ff       	callq  1036c <safe_rshift_func_int8_t_s_u>
   1335b:	84 c0                	test   %al,%al
   1335d:	74 07                	je     13366 <func_1+0x1bb1>
   1335f:	b8 01 00 00 00       	mov    $0x1,%eax
   13364:	eb 05                	jmp    1336b <func_1+0x1bb6>
   13366:	b8 00 00 00 00       	mov    $0x0,%eax
   1336b:	0f be c0             	movsbl %al,%eax
   1336e:	48 8b 95 f8 ed ff ff 	mov    -0x1208(%rbp),%rdx
   13375:	c6 02 a6             	movb   $0xa6,(%rdx)
   13378:	89 c6                	mov    %eax,%esi
   1337a:	bf a6 ff ff ff       	mov    $0xffffffa6,%edi
   1337f:	e8 8e ce ff ff       	callq  10212 <safe_mul_func_int8_t_s_s>
   13384:	48 0f be c0          	movsbq %al,%rax
   13388:	4c 89 e6             	mov    %r12,%rsi
   1338b:	48 89 c7             	mov    %rax,%rdi
   1338e:	e8 ed dc ff ff       	callq  11080 <safe_mod_func_uint64_t_u_u>
   13393:	48 8b 85 e0 ee ff ff 	mov    -0x1120(%rbp),%rax
   1339a:	8b 00                	mov    (%rax),%eax
   1339c:	0f b6 c0             	movzbl %al,%eax
   1339f:	be ee 00 00 00       	mov    $0xee,%esi
   133a4:	89 c7                	mov    %eax,%edi
   133a6:	e8 e8 d7 ff ff       	callq  10b93 <safe_mul_func_uint8_t_u_u>
   133ab:	89 c2                	mov    %eax,%edx
   133ad:	48 8b 05 e4 82 01 00 	mov    0x182e4(%rip),%rax        # 2b698 <g_1000>
   133b4:	0f b6 d2             	movzbl %dl,%edx
   133b7:	89 10                	mov    %edx,(%rax)
   133b9:	48 8b 85 c8 ed ff ff 	mov    -0x1238(%rbp),%rax
   133c0:	48 8b 00             	mov    (%rax),%rax
   133c3:	44 8b 28             	mov    (%rax),%r13d
   133c6:	8b 95 7c ef ff ff    	mov    -0x1084(%rbp),%edx
   133cc:	48 8b 05 9d 93 01 00 	mov    0x1939d(%rip),%rax        # 2c770 <g_2657>
   133d3:	48 8b 00             	mov    (%rax),%rax
   133d6:	48 39 85 78 ee ff ff 	cmp    %rax,-0x1188(%rbp)
   133dd:	0f 95 c0             	setne  %al
   133e0:	0f b6 c0             	movzbl %al,%eax
   133e3:	39 c2                	cmp    %eax,%edx
   133e5:	48 8b 05 ec a6 01 00 	mov    0x1a6ec(%rip),%rax        # 2dad8 <g_269+0x18>
   133ec:	0f be d8             	movsbl %al,%ebx
   133ef:	48 8b 05 52 40 01 00 	mov    0x14052(%rip),%rax        # 27448 <g_890+0x8>
   133f6:	44 0f be e0          	movsbl %al,%r12d
   133fa:	48 8b 85 c8 ed ff ff 	mov    -0x1238(%rbp),%rax
   13401:	48 8b 00             	mov    (%rax),%rax
   13404:	8b 00                	mov    (%rax),%eax
   13406:	89 c1                	mov    %eax,%ecx
   13408:	48 8b 85 f0 ee ff ff 	mov    -0x1110(%rbp),%rax
   1340f:	0f b7 00             	movzwl (%rax),%eax
   13412:	66 25 50 67          	and    $0x6750,%ax
   13416:	89 c2                	mov    %eax,%edx
   13418:	48 8b 85 f0 ee ff ff 	mov    -0x1110(%rbp),%rax
   1341f:	66 89 10             	mov    %dx,(%rax)
   13422:	89 ce                	mov    %ecx,%esi
   13424:	bf 01 00 00 00       	mov    $0x1,%edi
   13429:	e8 4c da ff ff       	callq  10e7a <safe_rshift_func_uint16_t_u_u>
   1342e:	0f b7 c0             	movzwl %ax,%eax
   13431:	89 c7                	mov    %eax,%edi
   13433:	e8 b1 d8 ff ff       	callq  10ce9 <safe_unary_minus_func_uint16_t_u>
   13438:	0f b7 c0             	movzwl %ax,%eax
   1343b:	8b 95 a0 ed ff ff    	mov    -0x1260(%rbp),%edx
   13441:	89 d6                	mov    %edx,%esi
   13443:	89 c7                	mov    %eax,%edi
   13445:	e8 fe d9 ff ff       	callq  10e48 <safe_rshift_func_uint16_t_u_s>
   1344a:	89 c1                	mov    %eax,%ecx
   1344c:	48 8b 85 e0 ee ff ff 	mov    -0x1120(%rbp),%rax
   13453:	8b 00                	mov    (%rax),%eax
   13455:	89 c2                	mov    %eax,%edx
   13457:	48 8b 85 d0 ed ff ff 	mov    -0x1230(%rbp),%rax
   1345e:	21 ca                	and    %ecx,%edx
   13460:	66 89 10             	mov    %dx,(%rax)
   13463:	0f b7 00             	movzwl (%rax),%eax
   13466:	98                   	cwtl   
   13467:	89 c7                	mov    %eax,%edi
   13469:	e8 2f cf ff ff       	callq  1039d <safe_unary_minus_func_int16_t_s>
   1346e:	48 0f bf c0          	movswq %ax,%rax
   13472:	be 07 00 00 00       	mov    $0x7,%esi
   13477:	48 89 c7             	mov    %rax,%rdi
   1347a:	e8 30 dc ff ff       	callq  110af <safe_div_func_uint64_t_u_u>
   1347f:	48 be 5f 03 38 36 97 	movabs $0xc03a26973638035f,%rsi
   13486:	26 3a c0 
   13489:	bf 00 00 00 00       	mov    $0x0,%edi
   1348e:	e8 1c dc ff ff       	callq  110af <safe_div_func_uint64_t_u_u>
   13493:	48 89 c2             	mov    %rax,%rdx
   13496:	48 8b 85 58 ee ff ff 	mov    -0x11a8(%rbp),%rax
   1349d:	48 8b 00             	mov    (%rax),%rax
   134a0:	88 10                	mov    %dl,(%rax)
   134a2:	0f b6 00             	movzbl (%rax),%eax
   134a5:	0f be c0             	movsbl %al,%eax
   134a8:	44 89 e6             	mov    %r12d,%esi
   134ab:	89 c7                	mov    %eax,%edi
   134ad:	e8 b8 cd ff ff       	callq  1026a <safe_div_func_int8_t_s_s>
   134b2:	89 de                	mov    %ebx,%esi
   134b4:	bf 21 00 00 00       	mov    $0x21,%edi
   134b9:	e8 54 cd ff ff       	callq  10212 <safe_mul_func_int8_t_s_s>
   134be:	3c 01                	cmp    $0x1,%al
   134c0:	7e 09                	jle    134cb <func_1+0x1d16>
   134c2:	83 bd a0 ed ff ff 00 	cmpl   $0x0,-0x1260(%rbp)
   134c9:	74 07                	je     134d2 <func_1+0x1d1d>
   134cb:	b8 01 00 00 00       	mov    $0x1,%eax
   134d0:	eb 05                	jmp    134d7 <func_1+0x1d22>
   134d2:	b8 00 00 00 00       	mov    $0x0,%eax
   134d7:	0f b6 d0             	movzbl %al,%edx
   134da:	48 8b 05 0f 80 01 00 	mov    0x1800f(%rip),%rax        # 2b4f0 <g_449>
   134e1:	48 8b 00             	mov    (%rax),%rax
   134e4:	0f b6 00             	movzbl (%rax),%eax
   134e7:	0f b6 c0             	movzbl %al,%eax
   134ea:	89 d6                	mov    %edx,%esi
   134ec:	89 c7                	mov    %eax,%edi
   134ee:	e8 a0 d6 ff ff       	callq  10b93 <safe_mul_func_uint8_t_u_u>
   134f3:	48 8b 85 d8 ee ff ff 	mov    -0x1128(%rbp),%rax
   134fa:	c6 00 01             	movb   $0x1,(%rax)
   134fd:	48 8b 85 d8 ee ff ff 	mov    -0x1128(%rbp),%rax
   13504:	0f b6 00             	movzbl (%rax),%eax
   13507:	0f b6 c0             	movzbl %al,%eax
   1350a:	41 39 c5             	cmp    %eax,%r13d
   1350d:	0f 95 c2             	setne  %dl
   13510:	48 8b 05 99 7f 01 00 	mov    0x17f99(%rip),%rax        # 2b4b0 <g_119>
   13517:	48 8b 00             	mov    (%rax),%rax
   1351a:	0f b6 d2             	movzbl %dl,%edx
   1351d:	89 10                	mov    %edx,(%rax)
   1351f:	48 8b 05 8a 7f 01 00 	mov    0x17f8a(%rip),%rax        # 2b4b0 <g_119>
   13526:	48 8b 00             	mov    (%rax),%rax
   13529:	c7 00 f4 b7 cc b2    	movl   $0xb2ccb7f4,(%rax)
   1352f:	48 8d 05 ea 93 01 00 	lea    0x193ea(%rip),%rax        # 2c920 <g_2978>
   13536:	48 85 c0             	test   %rax,%rax
   13539:	0f 95 c0             	setne  %al
   1353c:	44 0f b6 e0          	movzbl %al,%r12d
   13540:	0f b6 45 c2          	movzbl -0x3e(%rbp),%eax
   13544:	0f b6 d8             	movzbl %al,%ebx
   13547:	8b 85 7c ef ff ff    	mov    -0x1084(%rbp),%eax
   1354d:	85 c0                	test   %eax,%eax
   1354f:	0f 84 bf 00 00 00    	je     13614 <func_1+0x1e5f>
   13555:	48 8b 85 c8 ed ff ff 	mov    -0x1238(%rbp),%rax
   1355c:	48 8b 00             	mov    (%rax),%rax
   1355f:	8b 00                	mov    (%rax),%eax
   13561:	41 89 c5             	mov    %eax,%r13d
   13564:	48 8b 05 7d 7f 01 00 	mov    0x17f7d(%rip),%rax        # 2b4e8 <g_450>
   1356b:	0f b6 00             	movzbl (%rax),%eax
   1356e:	0f b6 d0             	movzbl %al,%edx
   13571:	8b 85 48 ed ff ff    	mov    -0x12b8(%rbp),%eax
   13577:	0f b6 c0             	movzbl %al,%eax
   1357a:	89 d6                	mov    %edx,%esi
   1357c:	89 c7                	mov    %eax,%edi
   1357e:	e8 58 d6 ff ff       	callq  10bdb <safe_div_func_uint8_t_u_u>
   13583:	0f b6 c0             	movzbl %al,%eax
   13586:	89 c6                	mov    %eax,%esi
   13588:	bf 7e 0b 08 61       	mov    $0x61080b7e,%edi
   1358d:	e8 6d d1 ff ff       	callq  106ff <safe_div_func_int32_t_s_s>
   13592:	89 c2                	mov    %eax,%edx
   13594:	48 8b 85 48 ee ff ff 	mov    -0x11b8(%rbp),%rax
   1359b:	89 10                	mov    %edx,(%rax)
   1359d:	48 8b 85 48 ee ff ff 	mov    -0x11b8(%rbp),%rax
   135a4:	8b 10                	mov    (%rax),%edx
   135a6:	48 8b 85 e8 ee ff ff 	mov    -0x1118(%rbp),%rax
   135ad:	89 10                	mov    %edx,(%rax)
   135af:	48 8b 85 e8 ee ff ff 	mov    -0x1118(%rbp),%rax
   135b6:	8b 00                	mov    (%rax),%eax
   135b8:	85 c0                	test   %eax,%eax
   135ba:	74 07                	je     135c3 <func_1+0x1e0e>
   135bc:	ba 01 00 00 00       	mov    $0x1,%edx
   135c1:	eb 05                	jmp    135c8 <func_1+0x1e13>
   135c3:	ba 00 00 00 00       	mov    $0x0,%edx
   135c8:	0f bf 85 0c ed ff ff 	movswl -0x12f4(%rbp),%eax
   135cf:	39 c2                	cmp    %eax,%edx
   135d1:	0f 9f c0             	setg   %al
   135d4:	0f b6 c0             	movzbl %al,%eax
   135d7:	be f2 bc ff ff       	mov    $0xffffbcf2,%esi
   135dc:	89 c7                	mov    %eax,%edi
   135de:	e8 72 ce ff ff       	callq  10455 <safe_div_func_int16_t_s_s>
   135e3:	48 8b 05 d6 7e 01 00 	mov    0x17ed6(%rip),%rax        # 2b4c0 <g_296>
   135ea:	48 8b 00             	mov    (%rax),%rax
   135ed:	be 00 00 00 00       	mov    $0x0,%esi
   135f2:	bf 00 00 00 00       	mov    $0x0,%edi
   135f7:	e8 23 d7 ff ff       	callq  10d1f <safe_sub_func_uint16_t_u_u>
   135fc:	0f b7 c0             	movzwl %ax,%eax
   135ff:	44 89 ee             	mov    %r13d,%esi
   13602:	89 c7                	mov    %eax,%edi
   13604:	e8 c7 d8 ff ff       	callq  10ed0 <safe_sub_func_uint32_t_u_u>
   13609:	85 c0                	test   %eax,%eax
   1360b:	74 07                	je     13614 <func_1+0x1e5f>
   1360d:	b8 01 00 00 00       	mov    $0x1,%eax
   13612:	eb 05                	jmp    13619 <func_1+0x1e64>
   13614:	b8 00 00 00 00       	mov    $0x0,%eax
   13619:	0f b7 c0             	movzwl %ax,%eax
   1361c:	89 de                	mov    %ebx,%esi
   1361e:	89 c7                	mov    %eax,%edi
   13620:	e8 37 d7 ff ff       	callq  10d5c <safe_mod_func_uint16_t_u_u>
   13625:	0f b7 c0             	movzwl %ax,%eax
   13628:	8b 95 9c ed ff ff    	mov    -0x1264(%rbp),%edx
   1362e:	89 d6                	mov    %edx,%esi
   13630:	89 c7                	mov    %eax,%edi
   13632:	e8 95 d0 ff ff       	callq  106cc <safe_mod_func_int32_t_s_s>
   13637:	41 39 c4             	cmp    %eax,%r12d
   1363a:	0f 9d c0             	setge  %al
   1363d:	0f b6 d0             	movzbl %al,%edx
   13640:	0f b7 05 bf 3b 01 00 	movzwl 0x13bbf(%rip),%eax        # 27206 <g_514>
   13647:	f7 d0                	not    %eax
   13649:	89 c1                	mov    %eax,%ecx
   1364b:	48 8b 05 9e 8e 01 00 	mov    0x18e9e(%rip),%rax        # 2c4f0 <g_1880>
   13652:	48 8b 00             	mov    (%rax),%rax
   13655:	8b 00                	mov    (%rax),%eax
   13657:	85 c0                	test   %eax,%eax
   13659:	0f 94 c0             	sete   %al
   1365c:	09 c8                	or     %ecx,%eax
   1365e:	0f b6 c0             	movzbl %al,%eax
   13661:	89 d6                	mov    %edx,%esi
   13663:	89 c7                	mov    %eax,%edi
   13665:	e8 29 d5 ff ff       	callq  10b93 <safe_mul_func_uint8_t_u_u>
   1366a:	0f b6 c0             	movzbl %al,%eax
   1366d:	31 85 4c ed ff ff    	xor    %eax,-0x12b4(%rbp)
   13673:	48 8d 85 d0 ed ff ff 	lea    -0x1230(%rbp),%rax
   1367a:	48 89 05 c7 92 01 00 	mov    %rax,0x192c7(%rip)        # 2c948 <g_3002>
   13681:	c7 85 a4 ed ff ff f9 	movl   $0xfffffff9,-0x125c(%rbp)
   13688:	ff ff ff 
   1368b:	48 8d 05 f2 3a 01 00 	lea    0x13af2(%rip),%rax        # 27184 <g_340>
   13692:	48 89 85 f8 ee ff ff 	mov    %rax,-0x1108(%rbp)
   13699:	48 8d 05 c4 40 01 00 	lea    0x140c4(%rip),%rax        # 27764 <g_2642>
   136a0:	48 89 85 00 ef ff ff 	mov    %rax,-0x1100(%rbp)
   136a7:	48 8d 05 ea 90 01 00 	lea    0x190ea(%rip),%rax        # 2c798 <g_2673+0x18>
   136ae:	48 89 85 30 ee ff ff 	mov    %rax,-0x11d0(%rbp)
   136b5:	8b 9d 4c ed ff ff    	mov    -0x12b4(%rbp),%ebx
   136bb:	8b 85 7c ef ff ff    	mov    -0x1084(%rbp),%eax
   136c1:	44 0f b7 e0          	movzwl %ax,%r12d
   136c5:	48 8b 05 a4 90 01 00 	mov    0x190a4(%rip),%rax        # 2c770 <g_2657>
   136cc:	48 8b 00             	mov    (%rax),%rax
   136cf:	48 8b 00             	mov    (%rax),%rax
   136d2:	48 8b 00             	mov    (%rax),%rax
   136d5:	0f b7 00             	movzwl (%rax),%eax
   136d8:	0f b7 d0             	movzwl %ax,%edx
   136db:	48 8b 05 6e 92 01 00 	mov    0x1926e(%rip),%rax        # 2c950 <g_3015>
   136e2:	48 85 c0             	test   %rax,%rax
   136e5:	0f 95 c0             	setne  %al
   136e8:	0f b6 c0             	movzbl %al,%eax
   136eb:	39 c2                	cmp    %eax,%edx
   136ed:	0f 95 c0             	setne  %al
   136f0:	44 0f b6 f8          	movzbl %al,%r15d
   136f4:	8b 85 7c ef ff ff    	mov    -0x1084(%rbp),%eax
   136fa:	44 0f b7 e8          	movzwl %ax,%r13d
   136fe:	0f b7 05 9b 3d 01 00 	movzwl 0x13d9b(%rip),%eax        # 274a0 <g_953>
   13705:	44 0f b7 f0          	movzwl %ax,%r14d
   13709:	8b 85 4c ed ff ff    	mov    -0x12b4(%rbp),%eax
   1370f:	8b 95 20 ed ff ff    	mov    -0x12e0(%rbp),%edx
   13715:	81 fa 02 8e e0 46    	cmp    $0x46e08e02,%edx
   1371b:	89 c6                	mov    %eax,%esi
   1371d:	bf 8a ff ff ff       	mov    $0xffffff8a,%edi
   13722:	e8 ba cd ff ff       	callq  104e1 <safe_lshift_func_int16_t_s_u>
   13727:	0f b6 c0             	movzbl %al,%eax
   1372a:	44 89 f6             	mov    %r14d,%esi
   1372d:	89 c7                	mov    %eax,%edi
   1372f:	e8 d1 d4 ff ff       	callq  10c05 <safe_lshift_func_uint8_t_u_s>
   13734:	48 8b 95 c8 ed ff ff 	mov    -0x1238(%rbp),%rdx
   1373b:	48 8b 12             	mov    (%rdx),%rdx
   1373e:	8b 0a                	mov    (%rdx),%ecx
   13740:	48 8b 95 f8 ee ff ff 	mov    -0x1108(%rbp),%rdx
   13747:	0f b7 12             	movzwl (%rdx),%edx
   1374a:	0f b6 c0             	movzbl %al,%eax
   1374d:	09 c2                	or     %eax,%edx
   1374f:	48 8b 85 f8 ee ff ff 	mov    -0x1108(%rbp),%rax
   13756:	66 89 10             	mov    %dx,(%rax)
   13759:	48 8b 85 f8 ee ff ff 	mov    -0x1108(%rbp),%rax
   13760:	0f b7 00             	movzwl (%rax),%eax
   13763:	0f b7 c0             	movzwl %ax,%eax
   13766:	39 c1                	cmp    %eax,%ecx
   13768:	0f 95 c0             	setne  %al
   1376b:	0f b6 c0             	movzbl %al,%eax
   1376e:	be 6e 00 00 00       	mov    $0x6e,%esi
   13773:	89 c7                	mov    %eax,%edi
   13775:	e8 f0 ca ff ff       	callq  1026a <safe_div_func_int8_t_s_s>
   1377a:	0f b6 c0             	movzbl %al,%eax
   1377d:	be 1a 00 00 00       	mov    $0x1a,%esi
   13782:	89 c7                	mov    %eax,%edi
   13784:	e8 25 d4 ff ff       	callq  10bae <safe_mod_func_uint8_t_u_u>
   13789:	0f b7 95 10 ed ff ff 	movzwl -0x12f0(%rbp),%edx
   13790:	48 8b 85 00 ef ff ff 	mov    -0x1100(%rbp),%rax
   13797:	66 89 10             	mov    %dx,(%rax)
   1379a:	48 8b 85 00 ef ff ff 	mov    -0x1100(%rbp),%rax
   137a1:	0f b7 00             	movzwl (%rax),%eax
   137a4:	0f b7 c0             	movzwl %ax,%eax
   137a7:	44 89 ee             	mov    %r13d,%esi
   137aa:	89 c7                	mov    %eax,%edi
   137ac:	e8 dd d5 ff ff       	callq  10d8e <safe_div_func_uint16_t_u_u>
   137b1:	89 c2                	mov    %eax,%edx
   137b3:	8b 85 9c ed ff ff    	mov    -0x1264(%rbp),%eax
   137b9:	09 d0                	or     %edx,%eax
   137bb:	44 09 f8             	or     %r15d,%eax
   137be:	0f b7 c0             	movzwl %ax,%eax
   137c1:	44 89 e6             	mov    %r12d,%esi
   137c4:	89 c7                	mov    %eax,%edi
   137c6:	e8 72 d5 ff ff       	callq  10d3d <safe_mul_func_uint16_t_u_u>
   137cb:	48 83 bd d0 ee ff ff 	cmpq   $0x0,-0x1130(%rbp)
   137d2:	00 
   137d3:	48 8b 85 10 fb ff ff 	mov    -0x4f0(%rbp),%rax
   137da:	48 89 05 77 91 01 00 	mov    %rax,0x19177(%rip)        # 2c958 <g_3031>
   137e1:	48 8b 15 70 91 01 00 	mov    0x19170(%rip),%rdx        # 2c958 <g_3031>
   137e8:	48 8b 85 10 fb ff ff 	mov    -0x4f0(%rbp),%rax
   137ef:	48 39 c2             	cmp    %rax,%rdx
   137f2:	0f b7 05 85 3f 01 00 	movzwl 0x13f85(%rip),%eax        # 2777e <g_3032>
   137f9:	0f be d0             	movsbl %al,%edx
   137fc:	0f b7 85 0e ed ff ff 	movzwl -0x12f2(%rbp),%eax
   13803:	0f be c0             	movsbl %al,%eax
   13806:	89 d6                	mov    %edx,%esi
   13808:	89 c7                	mov    %eax,%edi
   1380a:	e8 c5 c9 ff ff       	callq  101d4 <safe_add_func_int8_t_s_s>
   1380f:	0f be c0             	movsbl %al,%eax
   13812:	39 85 a4 ed ff ff    	cmp    %eax,-0x125c(%rbp)
   13818:	0f 92 c0             	setb   %al
   1381b:	89 c2                	mov    %eax,%edx
   1381d:	8b 85 78 ed ff ff    	mov    -0x1288(%rbp),%eax
   13823:	31 d0                	xor    %edx,%eax
   13825:	0f be c0             	movsbl %al,%eax
   13828:	89 de                	mov    %ebx,%esi
   1382a:	89 c7                	mov    %eax,%edi
   1382c:	e8 3b cb ff ff       	callq  1036c <safe_rshift_func_int8_t_s_u>
   13831:	48 0f be c0          	movsbq %al,%rax
   13835:	48 35 29 0a 00 00    	xor    $0xa29,%rax
   1383b:	66 21 85 16 ed ff ff 	and    %ax,-0x12ea(%rbp)
   13842:	8b 85 9c ed ff ff    	mov    -0x1264(%rbp),%eax
   13848:	0f b7 c0             	movzwl %ax,%eax
   1384b:	be 0c 00 00 00       	mov    $0xc,%esi
   13850:	89 c7                	mov    %eax,%edi
   13852:	e8 67 d5 ff ff       	callq  10dbe <safe_lshift_func_uint16_t_u_s>
   13857:	0f b7 d0             	movzwl %ax,%edx
   1385a:	8b 85 88 ed ff ff    	mov    -0x1278(%rbp),%eax
   13860:	0f b7 c0             	movzwl %ax,%eax
   13863:	89 d6                	mov    %edx,%esi
   13865:	89 c7                	mov    %eax,%edi
   13867:	e8 52 d5 ff ff       	callq  10dbe <safe_lshift_func_uint16_t_u_s>
   1386c:	48 8b 05 ed 8e 01 00 	mov    0x18eed(%rip),%rax        # 2c760 <g_2659>
   13873:	48 8b 00             	mov    (%rax),%rax
   13876:	0f b7 00             	movzwl (%rax),%eax
   13879:	89 c3                	mov    %eax,%ebx
   1387b:	0f b7 05 fc 3e 01 00 	movzwl 0x13efc(%rip),%eax        # 2777e <g_3032>
   13882:	0f b7 c0             	movzwl %ax,%eax
   13885:	48 be 0f f4 8f 85 08 	movabs $0xfc064e08858ff40f,%rsi
   1388c:	4e 06 fc 
   1388f:	48 89 c7             	mov    %rax,%rdi
   13892:	e8 b4 d7 ff ff       	callq  1104b <safe_sub_func_uint64_t_u_u>
   13897:	09 85 8c ed ff ff    	or     %eax,-0x1274(%rbp)
   1389d:	8b 85 8c ed ff ff    	mov    -0x1274(%rbp),%eax
   138a3:	0f b6 c0             	movzbl %al,%eax
   138a6:	be 62 00 00 00       	mov    $0x62,%esi
   138ab:	89 c7                	mov    %eax,%edi
   138ad:	e8 fc d2 ff ff       	callq  10bae <safe_mod_func_uint8_t_u_u>
   138b2:	09 d8                	or     %ebx,%eax
   138b4:	89 c2                	mov    %eax,%edx
   138b6:	48 8b 85 c8 ed ff ff 	mov    -0x1238(%rbp),%rax
   138bd:	48 8b 00             	mov    (%rax),%rax
   138c0:	8b 00                	mov    (%rax),%eax
   138c2:	21 d0                	and    %edx,%eax
   138c4:	0f be d0             	movsbl %al,%edx
   138c7:	c7 85 98 ed ff ff 38 	movl   $0xc338,-0x1268(%rbp)
   138ce:	c3 00 00 
   138d1:	8b 85 98 ed ff ff    	mov    -0x1268(%rbp),%eax
   138d7:	83 f0 02             	xor    $0x2,%eax
   138da:	0f be c0             	movsbl %al,%eax
   138dd:	89 d6                	mov    %edx,%esi
   138df:	89 c7                	mov    %eax,%edi
   138e1:	e8 ee c8 ff ff       	callq  101d4 <safe_add_func_int8_t_s_s>
   138e6:	0f b6 c0             	movzbl %al,%eax
   138e9:	89 c7                	mov    %eax,%edi
   138eb:	e8 55 d2 ff ff       	callq  10b45 <safe_unary_minus_func_uint8_t_u>
   138f0:	84 c0                	test   %al,%al
   138f2:	75 0a                	jne    138fe <func_1+0x2149>
   138f4:	48 83 bd 80 ee ff ff 	cmpq   $0x0,-0x1180(%rbp)
   138fb:	00 
   138fc:	74 13                	je     13911 <func_1+0x215c>
   138fe:	0f b7 85 88 ef ff ff 	movzwl -0x1078(%rbp),%eax
   13905:	66 85 c0             	test   %ax,%ax
   13908:	74 07                	je     13911 <func_1+0x215c>
   1390a:	b8 01 00 00 00       	mov    $0x1,%eax
   1390f:	eb 05                	jmp    13916 <func_1+0x2161>
   13911:	b8 00 00 00 00       	mov    $0x0,%eax
   13916:	0f b7 c0             	movzwl %ax,%eax
   13919:	be 04 00 00 00       	mov    $0x4,%esi
   1391e:	89 c7                	mov    %eax,%edi
   13920:	e8 99 d4 ff ff       	callq  10dbe <safe_lshift_func_uint16_t_u_s>
   13925:	66 85 c0             	test   %ax,%ax
   13928:	74 34                	je     1395e <func_1+0x21a9>
   1392a:	be b4 00 00 00       	mov    $0xb4,%esi
   1392f:	bf 4e ef 00 00       	mov    $0xef4e,%edi
   13934:	e8 04 d4 ff ff       	callq  10d3d <safe_mul_func_uint16_t_u_u>
   13939:	0f be c0             	movsbl %al,%eax
   1393c:	be 07 00 00 00       	mov    $0x7,%esi
   13941:	89 c7                	mov    %eax,%edi
   13943:	e8 24 ca ff ff       	callq  1036c <safe_rshift_func_int8_t_s_u>
   13948:	89 c2                	mov    %eax,%edx
   1394a:	48 8b 85 c8 ed ff ff 	mov    -0x1238(%rbp),%rax
   13951:	48 8b 00             	mov    (%rax),%rax
   13954:	0f be d2             	movsbl %dl,%edx
   13957:	89 10                	mov    %edx,(%rax)
   13959:	e9 d2 03 00 00       	jmpq   13d30 <func_1+0x257b>
   1395e:	c7 85 a8 ed ff ff b4 	movl   $0xe7b214b4,-0x1258(%rbp)
   13965:	14 b2 e7 
   13968:	48 8d 85 c8 ed ff ff 	lea    -0x1238(%rbp),%rax
   1396f:	48 89 85 08 ef ff ff 	mov    %rax,-0x10f8(%rbp)
   13976:	66 c7 85 18 ed ff ff 	movw   $0x3404,-0x12e8(%rbp)
   1397d:	04 34 
   1397f:	c6 85 05 ed ff ff 74 	movb   $0x74,-0x12fb(%rbp)
   13986:	48 c7 85 a0 f0 ff ff 	movq   $0x0,-0xf60(%rbp)
   1398d:	00 00 00 00 
   13991:	48 c7 85 a8 f0 ff ff 	movq   $0x0,-0xf58(%rbp)
   13998:	00 00 00 00 
   1399c:	48 c7 85 b0 f0 ff ff 	movq   $0x0,-0xf50(%rbp)
   139a3:	00 00 00 00 
   139a7:	48 c7 85 b8 f0 ff ff 	movq   $0x0,-0xf48(%rbp)
   139ae:	00 00 00 00 
   139b2:	48 c7 85 c0 f0 ff ff 	movq   $0x0,-0xf40(%rbp)
   139b9:	00 00 00 00 
   139bd:	48 c7 85 c8 f0 ff ff 	movq   $0x0,-0xf38(%rbp)
   139c4:	00 00 00 00 
   139c8:	48 c7 85 d0 f0 ff ff 	movq   $0x0,-0xf30(%rbp)
   139cf:	00 00 00 00 
   139d3:	48 c7 85 d8 f0 ff ff 	movq   $0x0,-0xf28(%rbp)
   139da:	00 00 00 00 
   139de:	8b 9d 7c ef ff ff    	mov    -0x1084(%rbp),%ebx
   139e4:	44 0f be a5 05 ed ff 	movsbl -0x12fb(%rbp),%r12d
   139eb:	ff 
   139ec:	48 8d 05 2d 8f 01 00 	lea    0x18f2d(%rip),%rax        # 2c920 <g_2978>
   139f3:	48 8b 00             	mov    (%rax),%rax
   139f6:	48 85 c0             	test   %rax,%rax
   139f9:	0f 95 c0             	setne  %al
   139fc:	44 0f b6 e8          	movzbl %al,%r13d
   13a00:	48 8b 05 79 83 01 00 	mov    0x18379(%rip),%rax        # 2bd80 <g_1206>
   13a07:	48 8b 00             	mov    (%rax),%rax
   13a0a:	48 8b 00             	mov    (%rax),%rax
   13a0d:	48 8b 00             	mov    (%rax),%rax
   13a10:	48 89 c1             	mov    %rax,%rcx
   13a13:	48 8b 85 08 ef ff ff 	mov    -0x10f8(%rbp),%rax
   13a1a:	48 3b 85 60 ee ff ff 	cmp    -0x11a0(%rbp),%rax
   13a21:	0f 95 c0             	setne  %al
   13a24:	0f b6 d0             	movzbl %al,%edx
   13a27:	0f bf 85 10 ed ff ff 	movswl -0x12f0(%rbp),%eax
   13a2e:	39 c2                	cmp    %eax,%edx
   13a30:	0f 9e c0             	setle  %al
   13a33:	0f b6 c0             	movzbl %al,%eax
   13a36:	48 89 ce             	mov    %rcx,%rsi
   13a39:	48 89 c7             	mov    %rax,%rdi
   13a3c:	e8 6e d6 ff ff       	callq  110af <safe_div_func_uint64_t_u_u>
   13a41:	48 85 c0             	test   %rax,%rax
   13a44:	74 08                	je     13a4e <func_1+0x2299>
   13a46:	66 83 bd 18 ed ff ff 	cmpw   $0x0,-0x12e8(%rbp)
   13a4d:	00 
   13a4e:	48 8d 85 e0 ef ff ff 	lea    -0x1020(%rbp),%rax
   13a55:	48 83 c0 08          	add    $0x8,%rax
   13a59:	48 39 85 08 ef ff ff 	cmp    %rax,-0x10f8(%rbp)
   13a60:	0f 95 c0             	setne  %al
   13a63:	0f b6 c0             	movzbl %al,%eax
   13a66:	23 85 a8 ed ff ff    	and    -0x1258(%rbp),%eax
   13a6c:	09 85 4c ed ff ff    	or     %eax,-0x12b4(%rbp)
   13a72:	8b 85 4c ed ff ff    	mov    -0x12b4(%rbp),%eax
   13a78:	89 c6                	mov    %eax,%esi
   13a7a:	bf f7 ff ff ff       	mov    $0xfffffff7,%edi
   13a7f:	e8 7b cc ff ff       	callq  106ff <safe_div_func_int32_t_s_s>
   13a84:	89 c1                	mov    %eax,%ecx
   13a86:	48 8b 85 c8 ed ff ff 	mov    -0x1238(%rbp),%rax
   13a8d:	48 8b 10             	mov    (%rax),%rdx
   13a90:	48 8b 05 01 7c 01 00 	mov    0x17c01(%rip),%rax        # 2b698 <g_1000>
   13a97:	8b 12                	mov    (%rdx),%edx
   13a99:	89 10                	mov    %edx,(%rax)
   13a9b:	89 ce                	mov    %ecx,%esi
   13a9d:	bf 01 00 00 00       	mov    $0x1,%edi
   13aa2:	e8 47 c8 ff ff       	callq  102ee <safe_lshift_func_int8_t_s_u>
   13aa7:	0f be c0             	movsbl %al,%eax
   13aaa:	41 39 c5             	cmp    %eax,%r13d
   13aad:	0f 9f c0             	setg   %al
   13ab0:	0f b6 c0             	movzbl %al,%eax
   13ab3:	44 89 e6             	mov    %r12d,%esi
   13ab6:	89 c7                	mov    %eax,%edi
   13ab8:	e8 0f cc ff ff       	callq  106cc <safe_mod_func_int32_t_s_s>
   13abd:	0f b7 95 c2 f3 ff ff 	movzwl -0xc3e(%rbp),%edx
   13ac4:	0f b7 d2             	movzwl %dx,%edx
   13ac7:	39 d0                	cmp    %edx,%eax
   13ac9:	0f 9d c2             	setge  %dl
   13acc:	48 8b 05 75 8e 01 00 	mov    0x18e75(%rip),%rax        # 2c948 <g_3002>
   13ad3:	48 8b 00             	mov    (%rax),%rax
   13ad6:	0f b6 d2             	movzbl %dl,%edx
   13ad9:	66 89 10             	mov    %dx,(%rax)
   13adc:	0f b7 00             	movzwl (%rax),%eax
   13adf:	98                   	cwtl   
   13ae0:	4c 8b 25 e9 79 01 00 	mov    0x179e9(%rip),%r12        # 2b4d0 <g_325>
   13ae7:	48 8b 8d 38 ee ff ff 	mov    -0x11c8(%rbp),%rcx
   13aee:	89 da                	mov    %ebx,%edx
   13af0:	48 89 ce             	mov    %rcx,%rsi
   13af3:	89 c7                	mov    %eax,%edi
   13af5:	e8 a1 9a 00 00       	callq  1d59b <func_57>
   13afa:	49 89 04 24          	mov    %rax,(%r12)
   13afe:	83 85 28 ed ff ff 01 	addl   $0x1,-0x12d8(%rbp)
   13b05:	48 8b 05 ec 89 01 00 	mov    0x189ec(%rip),%rax        # 2c4f8 <g_1879>
   13b0c:	48 8b 00             	mov    (%rax),%rax
   13b0f:	48 8b 00             	mov    (%rax),%rax
   13b12:	48 89 85 b0 ef ff ff 	mov    %rax,-0x1050(%rbp)
   13b19:	e9 12 02 00 00       	jmpq   13d30 <func_1+0x257b>
   13b1e:	48 b8 ae fb 51 4c a9 	movabs $0x299994a94c51fbae,%rax
   13b25:	94 99 29 
   13b28:	48 89 85 a0 ee ff ff 	mov    %rax,-0x1160(%rbp)
   13b2f:	48 c7 85 a8 ee ff ff 	movq   $0x0,-0x1158(%rbp)
   13b36:	00 00 00 00 
   13b3a:	c7 85 5c ed ff ff 00 	movl   $0x0,-0x12a4(%rbp)
   13b41:	00 00 00 
   13b44:	eb 1b                	jmp    13b61 <func_1+0x23ac>
   13b46:	8b 85 5c ed ff ff    	mov    -0x12a4(%rbp),%eax
   13b4c:	48 98                	cltq   
   13b4e:	48 c7 84 c5 50 f4 ff 	movq   $0x0,-0xbb0(%rbp,%rax,8)
   13b55:	ff 00 00 00 00 
   13b5a:	83 85 5c ed ff ff 01 	addl   $0x1,-0x12a4(%rbp)
   13b61:	83 bd 5c ed ff ff 04 	cmpl   $0x4,-0x12a4(%rbp)
   13b68:	7e dc                	jle    13b46 <func_1+0x2391>
   13b6a:	48 c7 05 93 9f 01 00 	movq   $0x0,0x19f93(%rip)        # 2db08 <g_546>
   13b71:	00 00 00 00 
   13b75:	90                   	nop
   13b76:	48 8b 05 8b 9f 01 00 	mov    0x19f8b(%rip),%rax        # 2db08 <g_546>
   13b7d:	48 83 f8 01          	cmp    $0x1,%rax
   13b81:	0f 87 87 01 00 00    	ja     13d0e <func_1+0x2559>
   13b87:	48 c7 85 b0 ee ff ff 	movq   $0x0,-0x1150(%rbp)
   13b8e:	00 00 00 00 
   13b92:	c7 85 90 ed ff ff 00 	movl   $0x0,-0x1270(%rbp)
   13b99:	00 00 00 
   13b9c:	c7 85 94 ed ff ff 7c 	movl   $0xc043797c,-0x126c(%rbp)
   13ba3:	79 43 c0 
   13ba6:	48 8d 85 7c ef ff ff 	lea    -0x1084(%rbp),%rax
   13bad:	48 89 85 b8 ee ff ff 	mov    %rax,-0x1148(%rbp)
   13bb4:	48 8b 05 f5 78 01 00 	mov    0x178f5(%rip),%rax        # 2b4b0 <g_119>
   13bbb:	48 8b 00             	mov    (%rax),%rax
   13bbe:	8b 08                	mov    (%rax),%ecx
   13bc0:	8b 95 7c ef ff ff    	mov    -0x1084(%rbp),%edx
   13bc6:	48 8b 05 e3 78 01 00 	mov    0x178e3(%rip),%rax        # 2b4b0 <g_119>
   13bcd:	48 8b 00             	mov    (%rax),%rax
   13bd0:	09 ca                	or     %ecx,%edx
   13bd2:	89 10                	mov    %edx,(%rax)
   13bd4:	48 8b 05 15 79 01 00 	mov    0x17915(%rip),%rax        # 2b4f0 <g_449>
   13bdb:	48 8b 00             	mov    (%rax),%rax
   13bde:	0f b6 00             	movzbl (%rax),%eax
   13be1:	0f be d8             	movsbl %al,%ebx
   13be4:	48 8b 05 15 89 01 00 	mov    0x18915(%rip),%rax        # 2c500 <g_1878>
   13beb:	48 8b 00             	mov    (%rax),%rax
   13bee:	48 8b 00             	mov    (%rax),%rax
   13bf1:	48 8b 00             	mov    (%rax),%rax
   13bf4:	8b 00                	mov    (%rax),%eax
   13bf6:	41 89 c4             	mov    %eax,%r12d
   13bf9:	48 8b 85 78 ee ff ff 	mov    -0x1188(%rbp),%rax
   13c00:	48 8b 00             	mov    (%rax),%rax
   13c03:	48 89 85 60 f4 ff ff 	mov    %rax,-0xba0(%rbp)
   13c0a:	48 8b 05 af 9e 01 00 	mov    0x19eaf(%rip),%rax        # 2dac0 <g_269>
   13c11:	48 8d 50 01          	lea    0x1(%rax),%rdx
   13c15:	48 89 15 a4 9e 01 00 	mov    %rdx,0x19ea4(%rip)        # 2dac0 <g_269>
   13c1c:	83 f0 01             	xor    $0x1,%eax
   13c1f:	89 c2                	mov    %eax,%edx
   13c21:	48 8b 85 c8 ed ff ff 	mov    -0x1238(%rbp),%rax
   13c28:	48 8b 00             	mov    (%rax),%rax
   13c2b:	89 10                	mov    %edx,(%rax)
   13c2d:	8b 00                	mov    (%rax),%eax
   13c2f:	41 89 c5             	mov    %eax,%r13d
   13c32:	48 8b 15 f7 37 01 00 	mov    0x137f7(%rip),%rdx        # 27430 <g_886+0x10>
   13c39:	48 8b 05 20 8b 01 00 	mov    0x18b20(%rip),%rax        # 2c760 <g_2659>
   13c40:	48 8b 00             	mov    (%rax),%rax
   13c43:	0f b7 00             	movzwl (%rax),%eax
   13c46:	66 85 c0             	test   %ax,%ax
   13c49:	75 07                	jne    13c52 <func_1+0x249d>
   13c4b:	83 a5 7c ed ff ff 01 	andl   $0x1,-0x1284(%rbp)
   13c52:	b8 01 00 00 00       	mov    $0x1,%eax
   13c57:	31 85 90 ed ff ff    	xor    %eax,-0x1270(%rbp)
   13c5d:	48 8b 05 84 78 01 00 	mov    0x17884(%rip),%rax        # 2b4e8 <g_450>
   13c64:	0f b6 00             	movzbl (%rax),%eax
   13c67:	0f b6 c0             	movzbl %al,%eax
   13c6a:	39 85 90 ed ff ff    	cmp    %eax,-0x1270(%rbp)
   13c70:	48 8b 85 a0 ee ff ff 	mov    -0x1160(%rbp),%rax
   13c77:	48 8d 0d 42 38 01 00 	lea    0x13842(%rip),%rcx        # 274c0 <g_1209>
   13c7e:	48 8b 09             	mov    (%rcx),%rcx
   13c81:	48 31 c1             	xor    %rax,%rcx
   13c84:	48 8d 05 35 38 01 00 	lea    0x13835(%rip),%rax        # 274c0 <g_1209>
   13c8b:	48 89 08             	mov    %rcx,(%rax)
   13c8e:	48 8b 00             	mov    (%rax),%rax
   13c91:	48 89 d6             	mov    %rdx,%rsi
   13c94:	48 89 c7             	mov    %rax,%rdi
   13c97:	e8 5b cd ff ff       	callq  109f7 <safe_div_func_int64_t_s_s>
   13c9c:	be 99 03 17 ee       	mov    $0xee170399,%esi
   13ca1:	89 c7                	mov    %eax,%edi
   13ca3:	e8 57 ca ff ff       	callq  106ff <safe_div_func_int32_t_s_s>
   13ca8:	48 8b 85 48 ee ff ff 	mov    -0x11b8(%rbp),%rax
   13caf:	c7 00 01 00 00 00    	movl   $0x1,(%rax)
   13cb5:	48 8b 85 48 ee ff ff 	mov    -0x11b8(%rbp),%rax
   13cbc:	8b 00                	mov    (%rax),%eax
   13cbe:	41 39 c5             	cmp    %eax,%r13d
   13cc1:	0f 97 c0             	seta   %al
   13cc4:	0f b6 c0             	movzbl %al,%eax
   13cc7:	44 89 e6             	mov    %r12d,%esi
   13cca:	89 c7                	mov    %eax,%edi
   13ccc:	e8 54 d2 ff ff       	callq  10f25 <safe_div_func_uint32_t_u_u>
   13cd1:	0f be c0             	movsbl %al,%eax
   13cd4:	89 de                	mov    %ebx,%esi
   13cd6:	89 c7                	mov    %eax,%edi
   13cd8:	e8 35 c5 ff ff       	callq  10212 <safe_mul_func_int8_t_s_s>
   13cdd:	0f be c0             	movsbl %al,%eax
   13ce0:	48 8b 95 a0 ee ff ff 	mov    -0x1160(%rbp),%rdx
   13ce7:	21 c2                	and    %eax,%edx
   13ce9:	48 8b 05 c0 77 01 00 	mov    0x177c0(%rip),%rax        # 2b4b0 <g_119>
   13cf0:	48 8b 00             	mov    (%rax),%rax
   13cf3:	89 10                	mov    %edx,(%rax)
   13cf5:	48 8b 85 a8 ee ff ff 	mov    -0x1158(%rbp),%rax
   13cfc:	48 89 85 b8 ee ff ff 	mov    %rax,-0x1148(%rbp)
   13d03:	8b 05 87 3a 01 00    	mov    0x13a87(%rip),%eax        # 27790 <g_3101>
   13d09:	e9 53 03 00 00       	jmpq   14061 <func_1+0x28ac>
   13d0e:	66 c7 05 55 3a 01 00 	movw   $0xffe2,0x13a55(%rip)        # 2776c <g_2765>
   13d15:	e2 ff 
   13d17:	90                   	nop
   13d18:	0f b7 05 4d 3a 01 00 	movzwl 0x13a4d(%rip),%eax        # 2776c <g_2765>
   13d1f:	66 83 f8 e9          	cmp    $0xffe9,%ax
   13d23:	74 0b                	je     13d30 <func_1+0x257b>
   13d25:	8b 05 75 3a 01 00    	mov    0x13a75(%rip),%eax        # 277a0 <g_3104>
   13d2b:	e9 31 03 00 00       	jmpq   14061 <func_1+0x28ac>
   13d30:	8b 05 5e 37 01 00    	mov    0x1375e(%rip),%eax        # 27494 <g_900>
   13d36:	83 c0 01             	add    $0x1,%eax
   13d39:	89 05 55 37 01 00    	mov    %eax,0x13755(%rip)        # 27494 <g_900>
   13d3f:	8b 05 4f 37 01 00    	mov    0x1374f(%rip),%eax        # 27494 <g_900>
   13d45:	83 f8 18             	cmp    $0x18,%eax
   13d48:	0f 85 a1 ef ff ff    	jne    12cef <func_1+0x153a>
   13d4e:	8b 05 20 3b 01 00    	mov    0x13b20(%rip),%eax        # 27874 <g_3105+0x94>
   13d54:	e9 08 03 00 00       	jmpq   14061 <func_1+0x28ac>
   13d59:	48 8b 05 08 8a 01 00 	mov    0x18a08(%rip),%rax        # 2c768 <g_2658>
   13d60:	48 8b 00             	mov    (%rax),%rax
   13d63:	48 8b 00             	mov    (%rax),%rax
   13d66:	0f b7 00             	movzwl (%rax),%eax
   13d69:	0f bf d8             	movswl %ax,%ebx
   13d6c:	48 8b 05 25 79 01 00 	mov    0x17925(%rip),%rax        # 2b698 <g_1000>
   13d73:	8b 10                	mov    (%rax),%edx
   13d75:	48 8b 05 1c 79 01 00 	mov    0x1791c(%rip),%rax        # 2b698 <g_1000>
   13d7c:	81 e2 34 d4 ea 60    	and    $0x60ead434,%edx
   13d82:	89 10                	mov    %edx,(%rax)
   13d84:	48 8b 85 60 ee ff ff 	mov    -0x11a0(%rbp),%rax
   13d8b:	48 8b 00             	mov    (%rax),%rax
   13d8e:	48 8b 00             	mov    (%rax),%rax
   13d91:	8b 00                	mov    (%rax),%eax
   13d93:	85 c0                	test   %eax,%eax
   13d95:	74 7c                	je     13e13 <func_1+0x265e>
   13d97:	48 8b 85 f0 ed ff ff 	mov    -0x1210(%rbp),%rax
   13d9e:	48 8b 00             	mov    (%rax),%rax
   13da1:	8b 00                	mov    (%rax),%eax
   13da3:	89 c2                	mov    %eax,%edx
   13da5:	48 8b 85 68 ee ff ff 	mov    -0x1198(%rbp),%rax
   13dac:	88 10                	mov    %dl,(%rax)
   13dae:	48 8b 85 68 ee ff ff 	mov    -0x1198(%rbp),%rax
   13db5:	0f b6 00             	movzbl (%rax),%eax
   13db8:	3c 09                	cmp    $0x9,%al
   13dba:	0f 95 c0             	setne  %al
   13dbd:	0f b6 c0             	movzbl %al,%eax
   13dc0:	be 01 00 00 00       	mov    $0x1,%esi
   13dc5:	89 c7                	mov    %eax,%edi
   13dc7:	e8 31 d1 ff ff       	callq  10efd <safe_mod_func_uint32_t_u_u>
   13dcc:	85 c0                	test   %eax,%eax
   13dce:	75 13                	jne    13de3 <func_1+0x262e>
   13dd0:	48 8b 85 60 ee ff ff 	mov    -0x11a0(%rbp),%rax
   13dd7:	48 8b 00             	mov    (%rax),%rax
   13dda:	48 8b 00             	mov    (%rax),%rax
   13ddd:	8b 00                	mov    (%rax),%eax
   13ddf:	85 c0                	test   %eax,%eax
   13de1:	74 07                	je     13dea <func_1+0x2635>
   13de3:	ba 01 00 00 00       	mov    $0x1,%edx
   13de8:	eb 05                	jmp    13def <func_1+0x263a>
   13dea:	ba 00 00 00 00       	mov    $0x0,%edx
   13def:	48 8b 85 d0 ed ff ff 	mov    -0x1230(%rbp),%rax
   13df6:	66 89 10             	mov    %dx,(%rax)
   13df9:	0f b7 00             	movzwl (%rax),%eax
   13dfc:	98                   	cwtl   
   13dfd:	89 c7                	mov    %eax,%edi
   13dff:	e8 99 c5 ff ff       	callq  1039d <safe_unary_minus_func_int16_t_s>
   13e04:	48 8b 85 f0 ed ff ff 	mov    -0x1210(%rbp),%rax
   13e0b:	48 8b 00             	mov    (%rax),%rax
   13e0e:	8b 00                	mov    (%rax),%eax
   13e10:	83 f8 ff             	cmp    $0xffffffff,%eax
   13e13:	be 01 00 00 00       	mov    $0x1,%esi
   13e18:	48 bf 8a 9c 49 27 d4 	movabs $0xbe92a3d427499c8a,%rdi
   13e1f:	a3 92 be 
   13e22:	e8 24 d2 ff ff       	callq  1104b <safe_sub_func_uint64_t_u_u>
   13e27:	48 85 c0             	test   %rax,%rax
   13e2a:	0f 95 c0             	setne  %al
   13e2d:	0f b6 c0             	movzbl %al,%eax
   13e30:	89 de                	mov    %ebx,%esi
   13e32:	89 c7                	mov    %eax,%edi
   13e34:	e8 7a c5 ff ff       	callq  103b3 <safe_add_func_int16_t_s_s>
   13e39:	89 c2                	mov    %eax,%edx
   13e3b:	48 8b 85 f0 ed ff ff 	mov    -0x1210(%rbp),%rax
   13e42:	48 8b 00             	mov    (%rax),%rax
   13e45:	0f bf d2             	movswl %dx,%edx
   13e48:	89 10                	mov    %edx,(%rax)
   13e4a:	66 c7 05 2b 39 01 00 	movw   $0x1,0x1392b(%rip)        # 2777e <g_3032>
   13e51:	01 00 
   13e53:	eb 7b                	jmp    13ed0 <func_1+0x271b>
   13e55:	48 c7 05 28 36 01 00 	movq   $0x0,0x13628(%rip)        # 27488 <g_898>
   13e5c:	00 00 00 00 
   13e60:	eb 50                	jmp    13eb2 <func_1+0x26fd>
   13e62:	48 8d 85 40 f8 ff ff 	lea    -0x7c0(%rbp),%rax
   13e69:	48 8d 15 50 e8 00 00 	lea    0xe850(%rip),%rdx        # 226c0 <g_1760+0x560>
   13e70:	b9 f0 00 00 00       	mov    $0xf0,%ecx
   13e75:	48 89 c7             	mov    %rax,%rdi
   13e78:	48 89 d6             	mov    %rdx,%rsi
   13e7b:	f3 48 a5             	rep movsq %ds:(%rsi),%es:(%rdi)
   13e7e:	48 8b 95 b8 fa ff ff 	mov    -0x548(%rbp),%rdx
   13e85:	48 8b 85 60 ee ff ff 	mov    -0x11a0(%rbp),%rax
   13e8c:	48 8b 00             	mov    (%rax),%rax
   13e8f:	48 8b 00             	mov    (%rax),%rax
   13e92:	8b 00                	mov    (%rax),%eax
   13e94:	48 98                	cltq   
   13e96:	48 31 d0             	xor    %rdx,%rax
   13e99:	48 89 85 b8 fa ff ff 	mov    %rax,-0x548(%rbp)
   13ea0:	48 8b 05 e1 35 01 00 	mov    0x135e1(%rip),%rax        # 27488 <g_898>
   13ea7:	48 83 c0 01          	add    $0x1,%rax
   13eab:	48 89 05 d6 35 01 00 	mov    %rax,0x135d6(%rip)        # 27488 <g_898>
   13eb2:	48 8b 05 cf 35 01 00 	mov    0x135cf(%rip),%rax        # 27488 <g_898>
   13eb9:	48 83 f8 1a          	cmp    $0x1a,%rax
   13ebd:	7f a3                	jg     13e62 <func_1+0x26ad>
   13ebf:	0f b7 05 b8 38 01 00 	movzwl 0x138b8(%rip),%eax        # 2777e <g_3032>
   13ec6:	83 c0 01             	add    $0x1,%eax
   13ec9:	66 89 05 ae 38 01 00 	mov    %ax,0x138ae(%rip)        # 2777e <g_3032>
   13ed0:	0f b7 05 a7 38 01 00 	movzwl 0x138a7(%rip),%eax        # 2777e <g_3032>
   13ed7:	66 83 f8 07          	cmp    $0x7,%ax
   13edb:	0f 87 74 ff ff ff    	ja     13e55 <func_1+0x26a0>
   13ee1:	48 8b 05 18 88 01 00 	mov    0x18818(%rip),%rax        # 2c700 <g_2301>
   13ee8:	8b 00                	mov    (%rax),%eax
   13eea:	48 8b 05 0f 86 01 00 	mov    0x1860f(%rip),%rax        # 2c500 <g_1878>
   13ef1:	48 8b 00             	mov    (%rax),%rax
   13ef4:	48 8b 00             	mov    (%rax),%rax
   13ef7:	48 8b 00             	mov    (%rax),%rax
   13efa:	8b 00                	mov    (%rax),%eax
   13efc:	41 89 c4             	mov    %eax,%r12d
   13eff:	48 8b 85 60 ee ff ff 	mov    -0x11a0(%rbp),%rax
   13f06:	48 8b 00             	mov    (%rax),%rax
   13f09:	48 8b 00             	mov    (%rax),%rax
   13f0c:	8b 00                	mov    (%rax),%eax
   13f0e:	0f be d8             	movsbl %al,%ebx
   13f11:	48 8b 05 60 8a 01 00 	mov    0x18a60(%rip),%rax        # 2c978 <g_3124>
   13f18:	48 89 05 59 8a 01 00 	mov    %rax,0x18a59(%rip)        # 2c978 <g_3124>
   13f1f:	48 8b 05 52 8a 01 00 	mov    0x18a52(%rip),%rax        # 2c978 <g_3124>
   13f26:	48 89 05 8b 93 01 00 	mov    %rax,0x1938b(%rip)        # 2d2b8 <g_3129+0x338>
   13f2d:	48 8b 85 70 ee ff ff 	mov    -0x1190(%rbp),%rax
   13f34:	c7 00 01 00 00 00    	movl   $0x1,(%rax)
   13f3a:	48 8b 05 0f 8a 01 00 	mov    0x18a0f(%rip),%rax        # 2c950 <g_3015>
   13f41:	48 8b 00             	mov    (%rax),%rax
   13f44:	8b 00                	mov    (%rax),%eax
   13f46:	48 8b 85 f0 ed ff ff 	mov    -0x1210(%rbp),%rax
   13f4d:	48 8b 00             	mov    (%rax),%rax
   13f50:	8b 00                	mov    (%rax),%eax
   13f52:	83 f8 26             	cmp    $0x26,%eax
   13f55:	0f 9e c0             	setle  %al
   13f58:	0f b6 c0             	movzbl %al,%eax
   13f5b:	be fa ff ff ff       	mov    $0xfffffffa,%esi
   13f60:	89 c7                	mov    %eax,%edi
   13f62:	e8 8b c2 ff ff       	callq  101f2 <safe_sub_func_int8_t_s_s>
   13f67:	48 8b 85 f0 ed ff ff 	mov    -0x1210(%rbp),%rax
   13f6e:	48 8b 10             	mov    (%rax),%rdx
   13f71:	48 8b 85 c8 ed ff ff 	mov    -0x1238(%rbp),%rax
   13f78:	48 8b 00             	mov    (%rax),%rax
   13f7b:	8b 12                	mov    (%rdx),%edx
   13f7d:	89 10                	mov    %edx,(%rax)
   13f7f:	8b 00                	mov    (%rax),%eax
   13f81:	83 f8 01             	cmp    $0x1,%eax
   13f84:	74 07                	je     13f8d <func_1+0x27d8>
   13f86:	b8 01 00 00 00       	mov    $0x1,%eax
   13f8b:	eb 05                	jmp    13f92 <func_1+0x27dd>
   13f8d:	b8 00 00 00 00       	mov    $0x0,%eax
   13f92:	84 c0                	test   %al,%al
   13f94:	74 07                	je     13f9d <func_1+0x27e8>
   13f96:	b8 01 00 00 00       	mov    $0x1,%eax
   13f9b:	eb 05                	jmp    13fa2 <func_1+0x27ed>
   13f9d:	b8 00 00 00 00       	mov    $0x0,%eax
   13fa2:	39 85 74 ed ff ff    	cmp    %eax,-0x128c(%rbp)
   13fa8:	74 07                	je     13fb1 <func_1+0x27fc>
   13faa:	b8 fb ff ff ff       	mov    $0xfffffffb,%eax
   13faf:	eb 05                	jmp    13fb6 <func_1+0x2801>
   13fb1:	b8 fa ff ff ff       	mov    $0xfffffffa,%eax
   13fb6:	89 de                	mov    %ebx,%esi
   13fb8:	89 c7                	mov    %eax,%edi
   13fba:	e8 33 c2 ff ff       	callq  101f2 <safe_sub_func_int8_t_s_s>
   13fbf:	0f be d0             	movsbl %al,%edx
   13fc2:	48 8b 85 48 ee ff ff 	mov    -0x11b8(%rbp),%rax
   13fc9:	89 10                	mov    %edx,(%rax)
   13fcb:	48 8b 85 48 ee ff ff 	mov    -0x11b8(%rbp),%rax
   13fd2:	8b 00                	mov    (%rax),%eax
   13fd4:	44 89 e6             	mov    %r12d,%esi
   13fd7:	89 c7                	mov    %eax,%edi
   13fd9:	e8 f2 ce ff ff       	callq  10ed0 <safe_sub_func_uint32_t_u_u>
   13fde:	8b 15 dc 30 01 00    	mov    0x130dc(%rip),%edx        # 270c0 <g_149>
   13fe4:	21 d0                	and    %edx,%eax
   13fe6:	3d 94 84 1a e2       	cmp    $0xe21a8494,%eax
   13feb:	0f 95 c0             	setne  %al
   13fee:	0f b6 d0             	movzbl %al,%edx
   13ff1:	48 8b 85 f0 ed ff ff 	mov    -0x1210(%rbp),%rax
   13ff8:	48 8b 00             	mov    (%rax),%rax
   13ffb:	8b 00                	mov    (%rax),%eax
   13ffd:	39 c2                	cmp    %eax,%edx
   13fff:	7f 11                	jg     14012 <func_1+0x285d>
   14001:	48 8b 85 60 ee ff ff 	mov    -0x11a0(%rbp),%rax
   14008:	48 8b 00             	mov    (%rax),%rax
   1400b:	48 8b 00             	mov    (%rax),%rax
   1400e:	8b 00                	mov    (%rax),%eax
   14010:	85 c0                	test   %eax,%eax
   14012:	48 8b 05 b7 74 01 00 	mov    0x174b7(%rip),%rax        # 2b4d0 <g_325>
   14019:	48 8b 10             	mov    (%rax),%rdx
   1401c:	48 8b 05 c5 74 01 00 	mov    0x174c5(%rip),%rax        # 2b4e8 <g_450>
   14023:	0f b6 00             	movzbl (%rax),%eax
   14026:	0f b6 c0             	movzbl %al,%eax
   14029:	48 8b 1d a0 74 01 00 	mov    0x174a0(%rip),%rbx        # 2b4d0 <g_325>
   14030:	48 89 d6             	mov    %rdx,%rsi
   14033:	89 c7                	mov    %eax,%edi
   14035:	e8 8b 0b 00 00       	callq  14bc5 <func_19>
   1403a:	48 89 03             	mov    %rax,(%rbx)
   1403d:	8b 05 e5 2f 01 00    	mov    0x12fe5(%rip),%eax        # 27028 <g_4>
   14043:	83 e8 01             	sub    $0x1,%eax
   14046:	89 05 dc 2f 01 00    	mov    %eax,0x12fdc(%rip)        # 27028 <g_4>
   1404c:	8b 05 d6 2f 01 00    	mov    0x12fd6(%rip),%eax        # 27028 <g_4>
   14052:	83 f8 eb             	cmp    $0xffffffeb,%eax
   14055:	0f 85 8f d9 ff ff    	jne    119ea <func_1+0x235>
   1405b:	8b 05 9f 38 01 00    	mov    0x1389f(%rip),%eax        # 27900 <g_3136>
   14061:	48 8b 5d c8          	mov    -0x38(%rbp),%rbx
   14065:	64 48 33 1c 25 28 00 	xor    %fs:0x28,%rbx
   1406c:	00 00 
   1406e:	74 05                	je     14075 <func_1+0x28c0>
   14070:	e8 fb bf ff ff       	callq  10070 <__stack_chk_fail@plt>
   14075:	48 81 c4 e8 12 00 00 	add    $0x12e8,%rsp
   1407c:	5b                   	pop    %rbx
   1407d:	41 5c                	pop    %r12
   1407f:	41 5d                	pop    %r13
   14081:	41 5e                	pop    %r14
   14083:	41 5f                	pop    %r15
   14085:	5d                   	pop    %rbp
   14086:	c3                   	retq   

0000000000014087 <func_9>:
   14087:	f3 0f 1e fa          	endbr64 
   1408b:	55                   	push   %rbp
   1408c:	48 89 e5             	mov    %rsp,%rbp
   1408f:	41 57                	push   %r15
   14091:	41 56                	push   %r14
   14093:	41 55                	push   %r13
   14095:	41 54                	push   %r12
   14097:	53                   	push   %rbx
   14098:	48 81 ec a8 08 00 00 	sub    $0x8a8,%rsp
   1409f:	89 bd 4c f7 ff ff    	mov    %edi,-0x8b4(%rbp)
   140a5:	48 89 b5 40 f7 ff ff 	mov    %rsi,-0x8c0(%rbp)
   140ac:	89 d0                	mov    %edx,%eax
   140ae:	66 89 85 48 f7 ff ff 	mov    %ax,-0x8b8(%rbp)
   140b5:	64 48 8b 04 25 28 00 	mov    %fs:0x28,%rax
   140bc:	00 00 
   140be:	48 89 45 c8          	mov    %rax,-0x38(%rbp)
   140c2:	31 c0                	xor    %eax,%eax
   140c4:	48 8d 05 d1 33 01 00 	lea    0x133d1(%rip),%rax        # 2749c <g_925>
   140cb:	48 89 85 78 f7 ff ff 	mov    %rax,-0x888(%rbp)
   140d2:	48 8d 85 c0 fa ff ff 	lea    -0x540(%rbp),%rax
   140d9:	48 8d 15 c0 3c 01 00 	lea    0x13cc0(%rip),%rdx        # 27da0 <g_3136+0x4a0>
   140e0:	b9 a0 00 00 00       	mov    $0xa0,%ecx
   140e5:	48 89 c7             	mov    %rax,%rdi
   140e8:	48 89 d6             	mov    %rdx,%rsi
   140eb:	f3 48 a5             	rep movsq %ds:(%rsi),%es:(%rdi)
   140ee:	48 8d 85 c0 fa ff ff 	lea    -0x540(%rbp),%rax
   140f5:	48 05 c0 03 00 00    	add    $0x3c0,%rax
   140fb:	48 89 85 90 f7 ff ff 	mov    %rax,-0x870(%rbp)
   14102:	48 8d 05 7f 2f 01 00 	lea    0x12f7f(%rip),%rax        # 27088 <g_146+0x8>
   14109:	48 89 85 98 f7 ff ff 	mov    %rax,-0x868(%rbp)
   14110:	c7 45 c3 fa fa fa fa 	movl   $0xfafafafa,-0x3d(%rbp)
   14117:	c6 45 c7 fa          	movb   $0xfa,-0x39(%rbp)
   1411b:	c7 85 64 f7 ff ff ef 	movl   $0xcd03f4ef,-0x89c(%rbp)
   14122:	f4 03 cd 
   14125:	c7 85 68 f7 ff ff fc 	movl   $0xfffffffc,-0x898(%rbp)
   1412c:	ff ff ff 
   1412f:	c7 85 60 f8 ff ff 95 	movl   $0x1ebf7795,-0x7a0(%rbp)
   14136:	77 bf 1e 
   14139:	c7 85 64 f8 ff ff 2b 	movl   $0xd6df752b,-0x79c(%rbp)
   14140:	75 df d6 
   14143:	c7 85 68 f8 ff ff 2b 	movl   $0xd6df752b,-0x798(%rbp)
   1414a:	75 df d6 
   1414d:	c7 85 6c f8 ff ff 95 	movl   $0x1ebf7795,-0x794(%rbp)
   14154:	77 bf 1e 
   14157:	c7 85 70 f8 ff ff 95 	movl   $0x1ebf7795,-0x790(%rbp)
   1415e:	77 bf 1e 
   14161:	c7 85 74 f8 ff ff fa 	movl   $0xfffffffa,-0x78c(%rbp)
   14168:	ff ff ff 
   1416b:	c7 85 78 f8 ff ff fb 	movl   $0xfffffffb,-0x788(%rbp)
   14172:	ff ff ff 
   14175:	c7 85 7c f8 ff ff fa 	movl   $0xfffffffa,-0x784(%rbp)
   1417c:	ff ff ff 
   1417f:	c7 85 80 f8 ff ff fb 	movl   $0xfffffffb,-0x780(%rbp)
   14186:	ff ff ff 
   14189:	c7 85 84 f8 ff ff fa 	movl   $0xfffffffa,-0x77c(%rbp)
   14190:	ff ff ff 
   14193:	c7 85 88 f8 ff ff 95 	movl   $0x1ebf7795,-0x778(%rbp)
   1419a:	77 bf 1e 
   1419d:	c7 85 8c f8 ff ff 95 	movl   $0x1ebf7795,-0x774(%rbp)
   141a4:	77 bf 1e 
   141a7:	c7 85 90 f8 ff ff 2b 	movl   $0xd6df752b,-0x770(%rbp)
   141ae:	75 df d6 
   141b1:	c7 85 94 f8 ff ff 2b 	movl   $0xd6df752b,-0x76c(%rbp)
   141b8:	75 df d6 
   141bb:	c7 85 98 f8 ff ff 95 	movl   $0x1ebf7795,-0x768(%rbp)
   141c2:	77 bf 1e 
   141c5:	c7 85 9c f8 ff ff 05 	movl   $0x5,-0x764(%rbp)
   141cc:	00 00 00 
   141cf:	c7 85 a0 f8 ff ff fb 	movl   $0xfffffffb,-0x760(%rbp)
   141d6:	ff ff ff 
   141d9:	c7 85 a4 f8 ff ff 05 	movl   $0x5,-0x75c(%rbp)
   141e0:	00 00 00 
   141e3:	c7 85 a8 f8 ff ff fb 	movl   $0xfffffffb,-0x758(%rbp)
   141ea:	ff ff ff 
   141ed:	c7 85 ac f8 ff ff 05 	movl   $0x5,-0x754(%rbp)
   141f4:	00 00 00 
   141f7:	c6 85 57 f7 ff ff fd 	movb   $0xfd,-0x8a9(%rbp)
   141fe:	48 8d 85 00 f9 ff ff 	lea    -0x700(%rbp),%rax
   14205:	48 8d 15 94 40 01 00 	lea    0x14094(%rip),%rdx        # 282a0 <g_3136+0x9a0>
   1420c:	b9 38 00 00 00       	mov    $0x38,%ecx
   14211:	48 89 c7             	mov    %rax,%rdi
   14214:	48 89 d6             	mov    %rdx,%rsi
   14217:	f3 48 a5             	rep movsq %ds:(%rsi),%es:(%rdi)
   1421a:	48 c7 85 b0 f8 ff ff 	movq   $0x0,-0x750(%rbp)
   14221:	00 00 00 00 
   14225:	48 c7 85 b8 f8 ff ff 	movq   $0x0,-0x748(%rbp)
   1422c:	00 00 00 00 
   14230:	48 c7 85 c0 f8 ff ff 	movq   $0x0,-0x740(%rbp)
   14237:	00 00 00 00 
   1423b:	48 c7 85 c8 f8 ff ff 	movq   $0x0,-0x738(%rbp)
   14242:	00 00 00 00 
   14246:	48 c7 85 d0 f8 ff ff 	movq   $0x0,-0x730(%rbp)
   1424d:	00 00 00 00 
   14251:	48 c7 85 d8 f8 ff ff 	movq   $0x0,-0x728(%rbp)
   14258:	00 00 00 00 
   1425c:	48 c7 85 e0 f8 ff ff 	movq   $0x0,-0x720(%rbp)
   14263:	00 00 00 00 
   14267:	48 c7 85 e8 f8 ff ff 	movq   $0x0,-0x718(%rbp)
   1426e:	00 00 00 00 
   14272:	48 c7 85 f0 f8 ff ff 	movq   $0x0,-0x710(%rbp)
   14279:	00 00 00 00 
   1427d:	48 c7 85 f8 f8 ff ff 	movq   $0x0,-0x708(%rbp)
   14284:	00 00 00 00 
   14288:	48 8d 05 41 99 01 00 	lea    0x19941(%rip),%rax        # 2dbd0 <g_2674>
   1428f:	48 89 85 a0 f7 ff ff 	mov    %rax,-0x860(%rbp)
   14296:	48 c7 85 80 f7 ff ff 	movq   $0x0,-0x880(%rbp)
   1429d:	00 00 00 00 
   142a1:	48 8d 85 80 f7 ff ff 	lea    -0x880(%rbp),%rax
   142a8:	48 89 85 a8 f7 ff ff 	mov    %rax,-0x858(%rbp)
   142af:	c7 85 58 f7 ff ff 00 	movl   $0x0,-0x8a8(%rbp)
   142b6:	00 00 00 
   142b9:	eb 1b                	jmp    142d6 <func_9+0x24f>
   142bb:	8b 85 58 f7 ff ff    	mov    -0x8a8(%rbp),%eax
   142c1:	48 98                	cltq   
   142c3:	48 c7 84 c5 30 f8 ff 	movq   $0x0,-0x7d0(%rbp,%rax,8)
   142ca:	ff 00 00 00 00 
   142cf:	83 85 58 f7 ff ff 01 	addl   $0x1,-0x8a8(%rbp)
   142d6:	83 bd 58 f7 ff ff 05 	cmpl   $0x5,-0x8a8(%rbp)
   142dd:	7e dc                	jle    142bb <func_9+0x234>
   142df:	c7 85 58 f7 ff ff 00 	movl   $0x0,-0x8a8(%rbp)
   142e6:	00 00 00 
   142e9:	eb 1e                	jmp    14309 <func_9+0x282>
   142eb:	8b 85 58 f7 ff ff    	mov    -0x8a8(%rbp),%eax
   142f1:	48 98                	cltq   
   142f3:	48 8d 15 16 98 01 00 	lea    0x19816(%rip),%rdx        # 2db10 <g_587>
   142fa:	48 89 94 c5 e8 f7 ff 	mov    %rdx,-0x818(%rbp,%rax,8)
   14301:	ff 
   14302:	83 85 58 f7 ff ff 01 	addl   $0x1,-0x8a8(%rbp)
   14309:	83 bd 58 f7 ff ff 00 	cmpl   $0x0,-0x8a8(%rbp)
   14310:	7e d9                	jle    142eb <func_9+0x264>
   14312:	c7 85 58 f7 ff ff 00 	movl   $0x0,-0x8a8(%rbp)
   14319:	00 00 00 
   1431c:	eb 1b                	jmp    14339 <func_9+0x2b2>
   1431e:	8b 85 58 f7 ff ff    	mov    -0x8a8(%rbp),%eax
   14324:	48 98                	cltq   
   14326:	48 c7 84 c5 f0 f7 ff 	movq   $0x0,-0x810(%rbp,%rax,8)
   1432d:	ff 00 00 00 00 
   14332:	83 85 58 f7 ff ff 01 	addl   $0x1,-0x8a8(%rbp)
   14339:	83 bd 58 f7 ff ff 02 	cmpl   $0x2,-0x8a8(%rbp)
   14340:	7e dc                	jle    1431e <func_9+0x297>
   14342:	0f b7 05 f7 2e 01 00 	movzwl 0x12ef7(%rip),%eax        # 27240 <g_724>
   14349:	44 0f b7 f8          	movzwl %ax,%r15d
   1434d:	83 bd 4c f7 ff ff 00 	cmpl   $0x0,-0x8b4(%rbp)
   14354:	0f 84 26 02 00 00    	je     14580 <func_9+0x4f9>
   1435a:	48 8b 85 40 f7 ff ff 	mov    -0x8c0(%rbp),%rax
   14361:	89 85 3c f7 ff ff    	mov    %eax,-0x8c4(%rbp)
   14367:	8b 05 f3 33 01 00    	mov    0x133f3(%rip),%eax        # 27760 <g_2641>
   1436d:	0f b7 d8             	movzwl %ax,%ebx
   14370:	44 0f b7 a5 48 f7 ff 	movzwl -0x8b8(%rbp),%r12d
   14377:	ff 
   14378:	0f b6 45 c7          	movzbl -0x39(%rbp),%eax
   1437c:	44 0f b6 e8          	movzbl %al,%r13d
   14380:	44 0f b7 b5 48 f7 ff 	movzwl -0x8b8(%rbp),%r14d
   14387:	ff 
   14388:	0f b6 05 38 2d 01 00 	movzbl 0x12d38(%rip),%eax        # 270c7 <g_202>
   1438f:	0f b6 c8             	movzbl %al,%ecx
   14392:	48 83 bd 40 f7 ff ff 	cmpq   $0x0,-0x8c0(%rbp)
   14399:	00 
   1439a:	0f 95 c0             	setne  %al
   1439d:	0f b6 d0             	movzbl %al,%edx
   143a0:	48 8b 85 98 f7 ff ff 	mov    -0x868(%rbp),%rax
   143a7:	48 89 10             	mov    %rdx,(%rax)
   143aa:	48 8b 85 98 f7 ff ff 	mov    -0x868(%rbp),%rax
   143b1:	48 8b 00             	mov    (%rax),%rax
   143b4:	48 85 c0             	test   %rax,%rax
   143b7:	75 06                	jne    143bf <func_9+0x338>
   143b9:	0f b6 45 c6          	movzbl -0x3a(%rbp),%eax
   143bd:	84 c0                	test   %al,%al
   143bf:	66 c7 05 4a 2e 01 00 	movw   $0x1,0x12e4a(%rip)        # 27212 <g_545+0x2>
   143c6:	01 00 
   143c8:	0f b7 05 43 2e 01 00 	movzwl 0x12e43(%rip),%eax        # 27212 <g_545+0x2>
   143cf:	48 0f bf c0          	movswq %ax,%rax
   143d3:	48 0d ff ff 00 00    	or     $0xffff,%rax
   143d9:	48 89 c6             	mov    %rax,%rsi
   143dc:	48 8b 05 dd 70 01 00 	mov    0x170dd(%rip),%rax        # 2b4c0 <g_296>
   143e3:	48 8b 00             	mov    (%rax),%rax
   143e6:	48 8b 10             	mov    (%rax),%rdx
   143e9:	48 21 f2             	and    %rsi,%rdx
   143ec:	48 89 10             	mov    %rdx,(%rax)
   143ef:	48 8b 85 90 f7 ff ff 	mov    -0x870(%rbp),%rax
   143f6:	48 c7 00 00 00 00 00 	movq   $0x0,(%rax)
   143fd:	48 8b 85 90 f7 ff ff 	mov    -0x870(%rbp),%rax
   14404:	48 8b 00             	mov    (%rax),%rax
   14407:	48 8d 15 fa 2d 01 00 	lea    0x12dfa(%rip),%rdx        # 27208 <g_542>
   1440e:	48 39 d0             	cmp    %rdx,%rax
   14411:	0f 95 c0             	setne  %al
   14414:	0f b6 f8             	movzbl %al,%edi
   14417:	48 8b 05 82 72 01 00 	mov    0x17282(%rip),%rax        # 2b6a0 <g_1006>
   1441e:	48 8b 10             	mov    (%rax),%rdx
   14421:	48 8d 72 01          	lea    0x1(%rdx),%rsi
   14425:	48 89 30             	mov    %rsi,(%rax)
   14428:	48 39 d7             	cmp    %rdx,%rdi
   1442b:	0f 96 c0             	setbe  %al
   1442e:	0f b6 d0             	movzbl %al,%edx
   14431:	0f b7 85 48 f7 ff ff 	movzwl -0x8b8(%rbp),%eax
   14438:	48 39 85 40 f7 ff ff 	cmp    %rax,-0x8c0(%rbp)
   1443f:	0f 9e c0             	setle  %al
   14442:	0f b6 c0             	movzbl %al,%eax
   14445:	48 33 85 40 f7 ff ff 	xor    -0x8c0(%rbp),%rax
   1444c:	48 39 c2             	cmp    %rax,%rdx
   1444f:	0f 9c c0             	setl   %al
   14452:	0f b6 c0             	movzbl %al,%eax
   14455:	89 ce                	mov    %ecx,%esi
   14457:	89 c7                	mov    %eax,%edi
   14459:	e8 35 c7 ff ff       	callq  10b93 <safe_mul_func_uint8_t_u_u>
   1445e:	84 c0                	test   %al,%al
   14460:	74 07                	je     14469 <func_9+0x3e2>
   14462:	ba 01 00 00 00       	mov    $0x1,%edx
   14467:	eb 05                	jmp    1446e <func_9+0x3e7>
   14469:	ba 00 00 00 00       	mov    $0x0,%edx
   1446e:	0f b6 45 c7          	movzbl -0x39(%rbp),%eax
   14472:	0f b6 c0             	movzbl %al,%eax
   14475:	39 c2                	cmp    %eax,%edx
   14477:	0f 95 c0             	setne  %al
   1447a:	0f b6 c0             	movzbl %al,%eax
   1447d:	21 85 64 f7 ff ff    	and    %eax,-0x89c(%rbp)
   14483:	81 bd 64 f7 ff ff 21 	cmpl   $0x1626821,-0x89c(%rbp)
   1448a:	68 62 01 
   1448d:	48 8b 85 58 f8 ff ff 	mov    -0x7a8(%rbp),%rax
   14494:	48 8d 15 f5 71 01 00 	lea    0x171f5(%rip),%rdx        # 2b690 <g_718>
   1449b:	48 39 d0             	cmp    %rdx,%rax
   1449e:	0f 95 c0             	setne  %al
   144a1:	0f b6 c0             	movzbl %al,%eax
   144a4:	48 89 c6             	mov    %rax,%rsi
   144a7:	48 bf 6f 92 b0 1a 5d 	movabs $0x40fa6e5d1ab0926f,%rdi
   144ae:	6e fa 40 
   144b1:	e8 8b c3 ff ff       	callq  10841 <safe_add_func_int64_t_s_s>
   144b6:	89 85 68 f7 ff ff    	mov    %eax,-0x898(%rbp)
   144bc:	8b 85 68 f7 ff ff    	mov    -0x898(%rbp),%eax
   144c2:	44 89 f6             	mov    %r14d,%esi
   144c5:	89 c7                	mov    %eax,%edi
   144c7:	e8 33 c2 ff ff       	callq  106ff <safe_div_func_int32_t_s_s>
   144cc:	83 e0 fd             	and    $0xfffffffd,%eax
   144cf:	44 89 ee             	mov    %r13d,%esi
   144d2:	89 c7                	mov    %eax,%edi
   144d4:	e8 f3 c1 ff ff       	callq  106cc <safe_mod_func_int32_t_s_s>
   144d9:	48 8b 85 78 f7 ff ff 	mov    -0x888(%rbp),%rax
   144e0:	8b 10                	mov    (%rax),%edx
   144e2:	83 ea 01             	sub    $0x1,%edx
   144e5:	89 10                	mov    %edx,(%rax)
   144e7:	8b 05 9b 2c 01 00    	mov    0x12c9b(%rip),%eax        # 27188 <g_352>
   144ed:	83 f0 01             	xor    $0x1,%eax
   144f0:	89 c2                	mov    %eax,%edx
   144f2:	0f b6 45 c7          	movzbl -0x39(%rbp),%eax
   144f6:	0f b6 c0             	movzbl %al,%eax
   144f9:	39 c2                	cmp    %eax,%edx
   144fb:	0f 95 c0             	setne  %al
   144fe:	0f b6 d0             	movzbl %al,%edx
   14501:	48 8b 05 00 96 01 00 	mov    0x19600(%rip),%rax        # 2db08 <g_546>
   14508:	48 39 c2             	cmp    %rax,%rdx
   1450b:	0f 95 c0             	setne  %al
   1450e:	0f b6 c0             	movzbl %al,%eax
   14511:	44 89 e6             	mov    %r12d,%esi
   14514:	89 c7                	mov    %eax,%edi
   14516:	e8 2d c9 ff ff       	callq  10e48 <safe_rshift_func_uint16_t_u_s>
   1451b:	0f b7 c0             	movzwl %ax,%eax
   1451e:	89 de                	mov    %ebx,%esi
   14520:	89 c7                	mov    %eax,%edi
   14522:	e8 16 c8 ff ff       	callq  10d3d <safe_mul_func_uint16_t_u_u>
   14527:	66 85 c0             	test   %ax,%ax
   1452a:	74 13                	je     1453f <func_9+0x4b8>
   1452c:	0f b7 05 31 32 01 00 	movzwl 0x13231(%rip),%eax        # 27764 <g_2642>
   14533:	66 85 c0             	test   %ax,%ax
   14536:	74 07                	je     1453f <func_9+0x4b8>
   14538:	b8 01 00 00 00       	mov    $0x1,%eax
   1453d:	eb 05                	jmp    14544 <func_9+0x4bd>
   1453f:	b8 00 00 00 00       	mov    $0x0,%eax
   14544:	89 85 60 f8 ff ff    	mov    %eax,-0x7a0(%rbp)
   1454a:	8b 95 60 f8 ff ff    	mov    -0x7a0(%rbp),%edx
   14550:	8b 05 82 2b 01 00    	mov    0x12b82(%rip),%eax        # 270d8 <g_213>
   14556:	0f be c0             	movsbl %al,%eax
   14559:	89 d6                	mov    %edx,%esi
   1455b:	89 c7                	mov    %eax,%edi
   1455d:	e8 d3 bd ff ff       	callq  10335 <safe_rshift_func_int8_t_s_s>
   14562:	66 98                	cbtw   
   14564:	0f b7 c0             	movzwl %ax,%eax
   14567:	8b b5 3c f7 ff ff    	mov    -0x8c4(%rbp),%esi
   1456d:	89 c7                	mov    %eax,%edi
   1456f:	e8 4a c8 ff ff       	callq  10dbe <safe_lshift_func_uint16_t_u_s>
   14574:	66 85 c0             	test   %ax,%ax
   14577:	74 07                	je     14580 <func_9+0x4f9>
   14579:	b8 01 00 00 00       	mov    $0x1,%eax
   1457e:	eb 05                	jmp    14585 <func_9+0x4fe>
   14580:	b8 00 00 00 00       	mov    $0x0,%eax
   14585:	48 98                	cltq   
   14587:	48 39 85 40 f7 ff ff 	cmp    %rax,-0x8c0(%rbp)
   1458e:	0f 9e c0             	setle  %al
   14591:	0f b6 c0             	movzbl %al,%eax
   14594:	44 09 f8             	or     %r15d,%eax
   14597:	20 85 57 f7 ff ff    	and    %al,-0x8a9(%rbp)
   1459d:	be 00 00 00 00       	mov    $0x0,%esi
   145a2:	bf 00 00 00 00       	mov    $0x0,%edi
   145a7:	e8 42 bd ff ff       	callq  102ee <safe_lshift_func_int8_t_s_u>
   145ac:	84 c0                	test   %al,%al
   145ae:	0f 84 be 01 00 00    	je     14772 <func_9+0x6eb>
   145b4:	48 8d 05 3d 6f 01 00 	lea    0x16f3d(%rip),%rax        # 2b4f8 <g_596>
   145bb:	48 89 85 88 f7 ff ff 	mov    %rax,-0x878(%rbp)
   145c2:	48 8d 85 88 f7 ff ff 	lea    -0x878(%rbp),%rax
   145c9:	48 89 85 d0 f7 ff ff 	mov    %rax,-0x830(%rbp)
   145d0:	48 8d 85 00 f9 ff ff 	lea    -0x700(%rbp),%rax
   145d7:	48 83 c0 60          	add    $0x60,%rax
   145db:	48 89 85 d8 f7 ff ff 	mov    %rax,-0x828(%rbp)
   145e2:	c7 85 74 f7 ff ff 65 	movl   $0x25318a65,-0x88c(%rbp)
   145e9:	8a 31 25 
   145ec:	48 8d 45 c3          	lea    -0x3d(%rbp),%rax
   145f0:	48 83 c0 04          	add    $0x4,%rax
   145f4:	48 89 85 e0 f7 ff ff 	mov    %rax,-0x820(%rbp)
   145fb:	0f b7 9d 48 f7 ff ff 	movzwl -0x8b8(%rbp),%ebx
   14602:	48 8b 05 e7 6e 01 00 	mov    0x16ee7(%rip),%rax        # 2b4f0 <g_449>
   14609:	48 8b 00             	mov    (%rax),%rax
   1460c:	0f b6 00             	movzbl (%rax),%eax
   1460f:	44 0f be e0          	movsbl %al,%r12d
   14613:	48 8b 05 b6 2a 01 00 	mov    0x12ab6(%rip),%rax        # 270d0 <g_212>
   1461a:	0f bf d0             	movswl %ax,%edx
   1461d:	48 8b 05 cc 6e 01 00 	mov    0x16ecc(%rip),%rax        # 2b4f0 <g_449>
   14624:	48 8b 00             	mov    (%rax),%rax
   14627:	48 39 85 e0 f7 ff ff 	cmp    %rax,-0x820(%rbp)
   1462e:	0f 95 c0             	setne  %al
   14631:	0f b6 c0             	movzbl %al,%eax
   14634:	89 d6                	mov    %edx,%esi
   14636:	89 c7                	mov    %eax,%edi
   14638:	e8 d9 bd ff ff       	callq  10416 <safe_mod_func_int16_t_s_s>
   1463d:	0f be c0             	movsbl %al,%eax
   14640:	44 89 e6             	mov    %r12d,%esi
   14643:	89 c7                	mov    %eax,%edi
   14645:	e8 e7 bb ff ff       	callq  10231 <safe_mod_func_int8_t_s_s>
   1464a:	0f be d0             	movsbl %al,%edx
   1464d:	48 8b 8d a0 f9 ff ff 	mov    -0x660(%rbp),%rcx
   14654:	48 8b 85 d8 f7 ff ff 	mov    -0x828(%rbp),%rax
   1465b:	48 89 08             	mov    %rcx,(%rax)
   1465e:	48 8b 85 d8 f7 ff ff 	mov    -0x828(%rbp),%rax
   14665:	48 8b 00             	mov    (%rax),%rax
   14668:	48 85 c0             	test   %rax,%rax
   1466b:	0f 95 c0             	setne  %al
   1466e:	0f b6 c0             	movzbl %al,%eax
   14671:	39 85 74 f7 ff ff    	cmp    %eax,-0x88c(%rbp)
   14677:	0f 9d c0             	setge  %al
   1467a:	0f b6 c0             	movzbl %al,%eax
   1467d:	89 d6                	mov    %edx,%esi
   1467f:	89 c7                	mov    %eax,%edi
   14681:	e8 a4 be ff ff       	callq  1052a <safe_rshift_func_int16_t_s_s>
   14686:	48 8b 15 13 70 01 00 	mov    0x17013(%rip),%rdx        # 2b6a0 <g_1006>
   1468d:	48 8b 0a             	mov    (%rdx),%rcx
   14690:	48 0f bf d0          	movswq %ax,%rdx
   14694:	48 8b 05 05 70 01 00 	mov    0x17005(%rip),%rax        # 2b6a0 <g_1006>
   1469b:	48 21 ca             	and    %rcx,%rdx
   1469e:	48 89 10             	mov    %rdx,(%rax)
   146a1:	48 8b 00             	mov    (%rax),%rax
   146a4:	48 c7 c6 fa ff ff ff 	mov    $0xfffffffffffffffa,%rsi
   146ab:	48 89 c7             	mov    %rax,%rdi
   146ae:	e8 98 c9 ff ff       	callq  1104b <safe_sub_func_uint64_t_u_u>
   146b3:	48 8b 85 40 f7 ff ff 	mov    -0x8c0(%rbp),%rax
   146ba:	66 89 05 51 2b 01 00 	mov    %ax,0x12b51(%rip)        # 27212 <g_545+0x2>
   146c1:	0f b7 05 4a 2b 01 00 	movzwl 0x12b4a(%rip),%eax        # 27212 <g_545+0x2>
   146c8:	98                   	cwtl   
   146c9:	be ff ff ff ff       	mov    $0xffffffff,%esi
   146ce:	89 c7                	mov    %eax,%edi
   146d0:	e8 de bc ff ff       	callq  103b3 <safe_add_func_int16_t_s_s>
   146d5:	98                   	cwtl   
   146d6:	39 85 4c f7 ff ff    	cmp    %eax,-0x8b4(%rbp)
   146dc:	0f 93 c0             	setae  %al
   146df:	0f b6 c0             	movzbl %al,%eax
   146e2:	be ff 00 00 00       	mov    $0xff,%esi
   146e7:	89 c7                	mov    %eax,%edi
   146e9:	e8 6c c4 ff ff       	callq  10b5a <safe_add_func_uint8_t_u_u>
   146ee:	48 c7 c6 ff ff ff ff 	mov    $0xffffffffffffffff,%rsi
   146f5:	bf 01 00 00 00       	mov    $0x1,%edi
   146fa:	e8 81 c9 ff ff       	callq  11080 <safe_mod_func_uint64_t_u_u>
   146ff:	48 8b 15 7a 76 01 00 	mov    0x1767a(%rip),%rdx        # 2bd80 <g_1206>
   14706:	48 8b 12             	mov    (%rdx),%rdx
   14709:	48 8b 12             	mov    (%rdx),%rdx
   1470c:	48 8b 12             	mov    (%rdx),%rdx
   1470f:	48 09 c2             	or     %rax,%rdx
   14712:	48 8b 05 67 76 01 00 	mov    0x17667(%rip),%rax        # 2bd80 <g_1206>
   14719:	48 8b 00             	mov    (%rax),%rax
   1471c:	48 8b 00             	mov    (%rax),%rax
   1471f:	48 89 10             	mov    %rdx,(%rax)
   14722:	8b 85 60 f8 ff ff    	mov    -0x7a0(%rbp),%eax
   14728:	3d 85 00 00 00       	cmp    $0x85,%eax
   1472d:	74 11                	je     14740 <func_9+0x6b9>
   1472f:	48 83 bd 40 f7 ff ff 	cmpq   $0x0,-0x8c0(%rbp)
   14736:	00 
   14737:	74 07                	je     14740 <func_9+0x6b9>
   14739:	b8 01 00 00 00       	mov    $0x1,%eax
   1473e:	eb 05                	jmp    14745 <func_9+0x6be>
   14740:	b8 00 00 00 00       	mov    $0x0,%eax
   14745:	48 98                	cltq   
   14747:	48 89 de             	mov    %rbx,%rsi
   1474a:	48 89 c7             	mov    %rax,%rdi
   1474d:	e8 dc c8 ff ff       	callq  1102e <safe_add_func_uint64_t_u_u>
   14752:	48 8b 15 3f 6f 01 00 	mov    0x16f3f(%rip),%rdx        # 2b698 <g_1000>
   14759:	8b 12                	mov    (%rdx),%edx
   1475b:	09 c2                	or     %eax,%edx
   1475d:	48 8b 05 34 6f 01 00 	mov    0x16f34(%rip),%rax        # 2b698 <g_1000>
   14764:	89 10                	mov    %edx,(%rax)
   14766:	48 8b 85 40 f7 ff ff 	mov    -0x8c0(%rbp),%rax
   1476d:	e9 81 02 00 00       	jmpq   149f3 <func_9+0x96c>
   14772:	c7 85 5c f7 ff ff 00 	movl   $0x0,-0x8a4(%rbp)
   14779:	00 00 00 
   1477c:	48 c7 05 49 29 01 00 	movq   $0x2,0x12949(%rip)        # 270d0 <g_212>
   14783:	02 00 00 00 
   14787:	e9 cf 00 00 00       	jmpq   1485b <func_9+0x7d4>
   1478c:	48 8d 85 60 f8 ff ff 	lea    -0x7a0(%rbp),%rax
   14793:	48 83 c0 4c          	add    $0x4c,%rax
   14797:	48 89 85 b0 f7 ff ff 	mov    %rax,-0x850(%rbp)
   1479e:	48 8d 05 93 2c 01 00 	lea    0x12c93(%rip),%rax        # 27438 <g_888>
   147a5:	48 89 85 b8 f7 ff ff 	mov    %rax,-0x848(%rbp)
   147ac:	48 c7 85 c0 f7 ff ff 	movq   $0x0,-0x840(%rbp)
   147b3:	00 00 00 00 
   147b7:	c7 85 6c f7 ff ff ff 	movl   $0xffffffff,-0x894(%rbp)
   147be:	ff ff ff 
   147c1:	48 8d 05 70 2c 01 00 	lea    0x12c70(%rip),%rax        # 27438 <g_888>
   147c8:	48 89 85 c8 f7 ff ff 	mov    %rax,-0x838(%rbp)
   147cf:	c7 85 70 f7 ff ff 2d 	movl   $0xa1e9c32d,-0x890(%rbp)
   147d6:	c3 e9 a1 
   147d9:	c7 85 60 f7 ff ff 00 	movl   $0x0,-0x8a0(%rbp)
   147e0:	00 00 00 
   147e3:	eb 1e                	jmp    14803 <func_9+0x77c>
   147e5:	8b 85 60 f7 ff ff    	mov    -0x8a0(%rbp),%eax
   147eb:	48 98                	cltq   
   147ed:	48 8d 15 a4 7f 01 00 	lea    0x17fa4(%rip),%rdx        # 2c798 <g_2673+0x18>
   147f4:	48 89 94 c5 10 f8 ff 	mov    %rdx,-0x7f0(%rbp,%rax,8)
   147fb:	ff 
   147fc:	83 85 60 f7 ff ff 01 	addl   $0x1,-0x8a0(%rbp)
   14803:	83 bd 60 f7 ff ff 03 	cmpl   $0x3,-0x8a0(%rbp)
   1480a:	7e d9                	jle    147e5 <func_9+0x75e>
   1480c:	48 8b 05 85 7f 01 00 	mov    0x17f85(%rip),%rax        # 2c798 <g_2673+0x18>
   14813:	48 89 85 b0 f8 ff ff 	mov    %rax,-0x750(%rbp)
   1481a:	48 8b 85 b0 f8 ff ff 	mov    -0x750(%rbp),%rax
   14821:	48 39 85 a0 f7 ff ff 	cmp    %rax,-0x860(%rbp)
   14828:	0f 95 c0             	setne  %al
   1482b:	0f b6 c8             	movzbl %al,%ecx
   1482e:	48 8b 05 63 6e 01 00 	mov    0x16e63(%rip),%rax        # 2b698 <g_1000>
   14835:	8b 10                	mov    (%rax),%edx
   14837:	48 8b 05 5a 6e 01 00 	mov    0x16e5a(%rip),%rax        # 2b698 <g_1000>
   1483e:	09 ca                	or     %ecx,%edx
   14840:	89 10                	mov    %edx,(%rax)
   14842:	83 85 5c f7 ff ff 01 	addl   $0x1,-0x8a4(%rbp)
   14849:	48 8b 05 80 28 01 00 	mov    0x12880(%rip),%rax        # 270d0 <g_212>
   14850:	48 83 c0 01          	add    $0x1,%rax
   14854:	48 89 05 75 28 01 00 	mov    %rax,0x12875(%rip)        # 270d0 <g_212>
   1485b:	48 8b 05 6e 28 01 00 	mov    0x1286e(%rip),%rax        # 270d0 <g_212>
   14862:	48 83 f8 05          	cmp    $0x5,%rax
   14866:	0f 87 20 ff ff ff    	ja     1478c <func_9+0x705>
   1486c:	48 8b 85 a8 f7 ff ff 	mov    -0x858(%rbp),%rax
   14873:	48 8d 95 78 f7 ff ff 	lea    -0x888(%rbp),%rdx
   1487a:	48 89 10             	mov    %rdx,(%rax)
   1487d:	c7 85 64 f7 ff ff fe 	movl   $0xfffffffe,-0x89c(%rbp)
   14884:	ff ff ff 
   14887:	48 8b 85 e8 f7 ff ff 	mov    -0x818(%rbp),%rax
   1488e:	48 89 05 0b 7f 01 00 	mov    %rax,0x17f0b(%rip)        # 2c7a0 <g_2692>
   14895:	48 8b 05 04 7f 01 00 	mov    0x17f04(%rip),%rax        # 2c7a0 <g_2692>
   1489c:	48 8d 15 6d 92 01 00 	lea    0x1926d(%rip),%rdx        # 2db10 <g_587>
   148a3:	48 39 d0             	cmp    %rdx,%rax
   148a6:	0f 95 c0             	setne  %al
   148a9:	44 0f b6 e8          	movzbl %al,%r13d
   148ad:	48 83 bd 40 f7 ff ff 	cmpq   $0x0,-0x8c0(%rbp)
   148b4:	00 
   148b5:	0f 85 cc 00 00 00    	jne    14987 <func_9+0x900>
   148bb:	48 8b 85 40 f7 ff ff 	mov    -0x8c0(%rbp),%rax
   148c2:	0f b7 d8             	movzwl %ax,%ebx
   148c5:	0f b6 45 c6          	movzbl -0x3a(%rbp),%eax
   148c9:	44 0f b6 e0          	movzbl %al,%r12d
   148cd:	be 01 00 00 00       	mov    $0x1,%esi
   148d2:	bf 01 00 00 00       	mov    $0x1,%edi
   148d7:	e8 59 ba ff ff       	callq  10335 <safe_rshift_func_int8_t_s_s>
   148dc:	8b 85 4c f7 ff ff    	mov    -0x8b4(%rbp),%eax
   148e2:	0f b6 c0             	movzbl %al,%eax
   148e5:	44 89 e6             	mov    %r12d,%esi
   148e8:	89 c7                	mov    %eax,%edi
   148ea:	e8 89 c2 ff ff       	callq  10b78 <safe_sub_func_uint8_t_u_u>
   148ef:	0f b6 c0             	movzbl %al,%eax
   148f2:	89 c6                	mov    %eax,%esi
   148f4:	bf f7 ff 00 00       	mov    $0xfff7,%edi
   148f9:	e8 21 c4 ff ff       	callq  10d1f <safe_sub_func_uint16_t_u_u>
   148fe:	0f b7 85 48 f7 ff ff 	movzwl -0x8b8(%rbp),%eax
   14905:	89 de                	mov    %ebx,%esi
   14907:	89 c7                	mov    %eax,%edi
   14909:	e8 11 c4 ff ff       	callq  10d1f <safe_sub_func_uint16_t_u_u>
   1490e:	8b 05 74 28 01 00    	mov    0x12874(%rip),%eax        # 27188 <g_352>
   14914:	89 c2                	mov    %eax,%edx
   14916:	48 8b 05 eb 91 01 00 	mov    0x191eb(%rip),%rax        # 2db08 <g_546>
   1491d:	48 39 c2             	cmp    %rax,%rdx
   14920:	76 09                	jbe    1492b <func_9+0x8a4>
   14922:	83 bd 4c f7 ff ff 00 	cmpl   $0x0,-0x8b4(%rbp)
   14929:	74 07                	je     14932 <func_9+0x8ab>
   1492b:	b8 01 00 00 00       	mov    $0x1,%eax
   14930:	eb 05                	jmp    14937 <func_9+0x8b0>
   14932:	b8 00 00 00 00       	mov    $0x0,%eax
   14937:	48 63 d8             	movslq %eax,%rbx
   1493a:	48 8b 05 1f 7e 01 00 	mov    0x17e1f(%rip),%rax        # 2c760 <g_2659>
   14941:	48 8b 00             	mov    (%rax),%rax
   14944:	0f b7 00             	movzwl (%rax),%eax
   14947:	0f b7 d0             	movzwl %ax,%edx
   1494a:	8b 85 60 f8 ff ff    	mov    -0x7a0(%rbp),%eax
   14950:	89 85 68 f7 ff ff    	mov    %eax,-0x898(%rbp)
   14956:	81 bd 68 f7 ff ff 42 	cmpl   $0xba42,-0x898(%rbp)
   1495d:	ba 00 00 
   14960:	0f 95 c0             	setne  %al
   14963:	0f b6 c0             	movzbl %al,%eax
   14966:	89 d6                	mov    %edx,%esi
   14968:	89 c7                	mov    %eax,%edi
   1496a:	e8 0b c5 ff ff       	callq  10e7a <safe_rshift_func_uint16_t_u_u>
   1496f:	0f b7 c0             	movzwl %ax,%eax
   14972:	48 89 de             	mov    %rbx,%rsi
   14975:	48 89 c7             	mov    %rax,%rdi
   14978:	e8 37 c0 ff ff       	callq  109b4 <safe_mod_func_int64_t_s_s>
   1497d:	8b 85 7c f8 ff ff    	mov    -0x784(%rbp),%eax
   14983:	85 c0                	test   %eax,%eax
   14985:	74 07                	je     1498e <func_9+0x907>
   14987:	b8 01 00 00 00       	mov    $0x1,%eax
   1498c:	eb 05                	jmp    14993 <func_9+0x90c>
   1498e:	b8 00 00 00 00       	mov    $0x0,%eax
   14993:	44 31 e8             	xor    %r13d,%eax
   14996:	09 85 64 f7 ff ff    	or     %eax,-0x89c(%rbp)
   1499c:	83 bd 64 f7 ff ff 00 	cmpl   $0x0,-0x89c(%rbp)
   149a3:	74 12                	je     149b7 <func_9+0x930>
   149a5:	0f b6 05 ba 2d 01 00 	movzbl 0x12dba(%rip),%eax        # 27766 <g_2705>
   149ac:	84 c0                	test   %al,%al
   149ae:	74 07                	je     149b7 <func_9+0x930>
   149b0:	b9 01 00 00 00       	mov    $0x1,%ecx
   149b5:	eb 05                	jmp    149bc <func_9+0x935>
   149b7:	b9 00 00 00 00       	mov    $0x0,%ecx
   149bc:	48 8b 05 d5 6c 01 00 	mov    0x16cd5(%rip),%rax        # 2b698 <g_1000>
   149c3:	8b 10                	mov    (%rax),%edx
   149c5:	48 8b 05 cc 6c 01 00 	mov    0x16ccc(%rip),%rax        # 2b698 <g_1000>
   149cc:	09 ca                	or     %ecx,%edx
   149ce:	89 10                	mov    %edx,(%rax)
   149d0:	48 8b 85 80 f7 ff ff 	mov    -0x880(%rbp),%rax
   149d7:	48 8b 00             	mov    (%rax),%rax
   149da:	48 85 c0             	test   %rax,%rax
   149dd:	0f 95 c2             	setne  %dl
   149e0:	48 8b 05 c9 6a 01 00 	mov    0x16ac9(%rip),%rax        # 2b4b0 <g_119>
   149e7:	48 8b 00             	mov    (%rax),%rax
   149ea:	0f b6 d2             	movzbl %dl,%edx
   149ed:	89 10                	mov    %edx,(%rax)
   149ef:	0f b6 45 c6          	movzbl -0x3a(%rbp),%eax
   149f3:	48 8b 5d c8          	mov    -0x38(%rbp),%rbx
   149f7:	64 48 33 1c 25 28 00 	xor    %fs:0x28,%rbx
   149fe:	00 00 
   14a00:	74 05                	je     14a07 <func_9+0x980>
   14a02:	e8 69 b6 ff ff       	callq  10070 <__stack_chk_fail@plt>
   14a07:	48 81 c4 a8 08 00 00 	add    $0x8a8,%rsp
   14a0e:	5b                   	pop    %rbx
   14a0f:	41 5c                	pop    %r12
   14a11:	41 5d                	pop    %r13
   14a13:	41 5e                	pop    %r14
   14a15:	41 5f                	pop    %r15
   14a17:	5d                   	pop    %rbp
   14a18:	c3                   	retq   

0000000000014a19 <func_13>:
   14a19:	f3 0f 1e fa          	endbr64 
   14a1d:	55                   	push   %rbp
   14a1e:	48 89 e5             	mov    %rsp,%rbp
   14a21:	41 55                	push   %r13
   14a23:	41 54                	push   %r12
   14a25:	53                   	push   %rbx
   14a26:	48 83 ec 58          	sub    $0x58,%rsp
   14a2a:	89 f8                	mov    %edi,%eax
   14a2c:	88 45 9c             	mov    %al,-0x64(%rbp)
   14a2f:	64 48 8b 04 25 28 00 	mov    %fs:0x28,%rax
   14a36:	00 00 
   14a38:	48 89 45 d8          	mov    %rax,-0x28(%rbp)
   14a3c:	31 c0                	xor    %eax,%eax
   14a3e:	c7 45 a4 00 00 00 00 	movl   $0x0,-0x5c(%rbp)
   14a45:	c6 45 9c ec          	movb   $0xec,-0x64(%rbp)
   14a49:	e9 47 01 00 00       	jmpq   14b95 <func_13+0x17c>
   14a4e:	c7 45 b0 26 4e 5f d6 	movl   $0xd65f4e26,-0x50(%rbp)
   14a55:	c7 45 b4 01 00 00 00 	movl   $0x1,-0x4c(%rbp)
   14a5c:	c7 45 b8 26 4e 5f d6 	movl   $0xd65f4e26,-0x48(%rbp)
   14a63:	c7 45 bc 26 4e 5f d6 	movl   $0xd65f4e26,-0x44(%rbp)
   14a6a:	c7 45 c0 01 00 00 00 	movl   $0x1,-0x40(%rbp)
   14a71:	c7 45 c4 26 4e 5f d6 	movl   $0xd65f4e26,-0x3c(%rbp)
   14a78:	c7 45 c8 26 4e 5f d6 	movl   $0xd65f4e26,-0x38(%rbp)
   14a7f:	c7 45 cc 01 00 00 00 	movl   $0x1,-0x34(%rbp)
   14a86:	48 c7 45 a8 00 00 00 	movq   $0x0,-0x58(%rbp)
   14a8d:	00 
   14a8e:	8b 05 fc 8f 01 00    	mov    0x18ffc(%rip),%eax        # 2da90 <g_3+0x10>
   14a94:	0f b6 c0             	movzbl %al,%eax
   14a97:	48 8b 1d 32 6a 01 00 	mov    0x16a32(%rip),%rbx        # 2b4d0 <g_325>
   14a9e:	48 8d 35 83 25 01 00 	lea    0x12583(%rip),%rsi        # 27028 <g_4>
   14aa5:	89 c7                	mov    %eax,%edi
   14aa7:	e8 19 01 00 00       	callq  14bc5 <func_19>
   14aac:	48 89 03             	mov    %rax,(%rbx)
   14aaf:	0f b6 5d 9c          	movzbl -0x64(%rbp),%ebx
   14ab3:	44 0f b6 6d 9c       	movzbl -0x64(%rbp),%r13d
   14ab8:	44 0f b6 65 9c       	movzbl -0x64(%rbp),%r12d
   14abd:	bf 4b 01 62 67       	mov    $0x6762014b,%edi
   14ac2:	e8 df c3 ff ff       	callq  10ea6 <safe_unary_minus_func_uint32_t_u>
   14ac7:	be c3 1e 45 3e       	mov    $0x3e451ec3,%esi
   14acc:	89 c7                	mov    %eax,%edi
   14ace:	e8 e3 ba ff ff       	callq  105b6 <safe_add_func_int32_t_s_s>
   14ad3:	48 8b 15 2e 7a 01 00 	mov    0x17a2e(%rip),%rdx        # 2c508 <g_1877>
   14ada:	48 8b 12             	mov    (%rdx),%rdx
   14add:	48 8b 12             	mov    (%rdx),%rdx
   14ae0:	48 8b 12             	mov    (%rdx),%rdx
   14ae3:	48 8b 12             	mov    (%rdx),%rdx
   14ae6:	8b 12                	mov    (%rdx),%edx
   14ae8:	39 d0                	cmp    %edx,%eax
   14aea:	0f 95 c0             	setne  %al
   14aed:	0f b6 d0             	movzbl %al,%edx
   14af0:	0f b6 45 9c          	movzbl -0x64(%rbp),%eax
   14af4:	39 c2                	cmp    %eax,%edx
   14af6:	0f 9d c0             	setge  %al
   14af9:	0f b6 c0             	movzbl %al,%eax
   14afc:	89 c7                	mov    %eax,%edi
   14afe:	e8 93 ba ff ff       	callq  10596 <safe_unary_minus_func_int32_t_s>
   14b03:	98                   	cwtl   
   14b04:	44 89 e6             	mov    %r12d,%esi
   14b07:	89 c7                	mov    %eax,%edi
   14b09:	e8 a5 b8 ff ff       	callq  103b3 <safe_add_func_int16_t_s_s>
   14b0e:	98                   	cwtl   
   14b0f:	39 45 a4             	cmp    %eax,-0x5c(%rbp)
   14b12:	0f 9d c0             	setge  %al
   14b15:	0f b6 d0             	movzbl %al,%edx
   14b18:	0f b6 45 9c          	movzbl -0x64(%rbp),%eax
   14b1c:	48 89 d6             	mov    %rdx,%rsi
   14b1f:	48 89 c7             	mov    %rax,%rdi
   14b22:	e8 24 c5 ff ff       	callq  1104b <safe_sub_func_uint64_t_u_u>
   14b27:	98                   	cwtl   
   14b28:	be c1 a9 ff ff       	mov    $0xffffa9c1,%esi
   14b2d:	89 c7                	mov    %eax,%edi
   14b2f:	e8 9f b8 ff ff       	callq  103d3 <safe_sub_func_int16_t_s_s>
   14b34:	98                   	cwtl   
   14b35:	41 39 c5             	cmp    %eax,%r13d
   14b38:	0f 95 c0             	setne  %al
   14b3b:	0f b6 c0             	movzbl %al,%eax
   14b3e:	be 0f 00 00 00       	mov    $0xf,%esi
   14b43:	89 c7                	mov    %eax,%edi
   14b45:	e8 e0 b9 ff ff       	callq  1052a <safe_rshift_func_int16_t_s_s>
   14b4a:	8b 45 c4             	mov    -0x3c(%rbp),%eax
   14b4d:	83 f8 60             	cmp    $0x60,%eax
   14b50:	0f 9e c0             	setle  %al
   14b53:	0f b6 c0             	movzbl %al,%eax
   14b56:	be 0e 00 00 00       	mov    $0xe,%esi
   14b5b:	89 c7                	mov    %eax,%edi
   14b5d:	e8 30 b9 ff ff       	callq  10492 <safe_lshift_func_int16_t_s_s>
   14b62:	89 de                	mov    %ebx,%esi
   14b64:	bf 00 00 00 00       	mov    $0x0,%edi
   14b69:	e8 97 c0 ff ff       	callq  10c05 <safe_lshift_func_uint8_t_u_s>
   14b6e:	c7 45 c4 01 00 00 00 	movl   $0x1,-0x3c(%rbp)
   14b75:	81 65 a4 ff ff 00 00 	andl   $0xffff,-0x5c(%rbp)
   14b7c:	80 7d 9c 00          	cmpb   $0x0,-0x64(%rbp)
   14b80:	75 1f                	jne    14ba1 <func_13+0x188>
   14b82:	0f b6 45 9c          	movzbl -0x64(%rbp),%eax
   14b86:	be 04 00 00 00       	mov    $0x4,%esi
   14b8b:	89 c7                	mov    %eax,%edi
   14b8d:	e8 c8 bf ff ff       	callq  10b5a <safe_add_func_uint8_t_u_u>
   14b92:	88 45 9c             	mov    %al,-0x64(%rbp)
   14b95:	80 7d 9c 0b          	cmpb   $0xb,-0x64(%rbp)
   14b99:	0f 86 af fe ff ff    	jbe    14a4e <func_13+0x35>
   14b9f:	eb 01                	jmp    14ba2 <func_13+0x189>
   14ba1:	90                   	nop
   14ba2:	0f b6 45 9c          	movzbl -0x64(%rbp),%eax
   14ba6:	48 8b 4d d8          	mov    -0x28(%rbp),%rcx
   14baa:	64 48 33 0c 25 28 00 	xor    %fs:0x28,%rcx
   14bb1:	00 00 
   14bb3:	74 05                	je     14bba <func_13+0x1a1>
   14bb5:	e8 b6 b4 ff ff       	callq  10070 <__stack_chk_fail@plt>
   14bba:	48 83 c4 58          	add    $0x58,%rsp
   14bbe:	5b                   	pop    %rbx
   14bbf:	41 5c                	pop    %r12
   14bc1:	41 5d                	pop    %r13
   14bc3:	5d                   	pop    %rbp
   14bc4:	c3                   	retq   

0000000000014bc5 <func_19>:
   14bc5:	f3 0f 1e fa          	endbr64 
   14bc9:	55                   	push   %rbp
   14bca:	48 89 e5             	mov    %rsp,%rbp
   14bcd:	48 81 ec 40 0c 00 00 	sub    $0xc40,%rsp
   14bd4:	89 f8                	mov    %edi,%eax
   14bd6:	48 89 b5 c0 f3 ff ff 	mov    %rsi,-0xc40(%rbp)
   14bdd:	88 85 cc f3 ff ff    	mov    %al,-0xc34(%rbp)
   14be3:	64 48 8b 04 25 28 00 	mov    %fs:0x28,%rax
   14bea:	00 00 
   14bec:	48 89 45 f8          	mov    %rax,-0x8(%rbp)
   14bf0:	31 c0                	xor    %eax,%eax
   14bf2:	48 c7 85 18 f4 ff ff 	movq   $0x0,-0xbe8(%rbp)
   14bf9:	00 00 00 00 
   14bfd:	48 8d 05 2c 24 01 00 	lea    0x1242c(%rip),%rax        # 27030 <g_32>
   14c04:	48 89 85 00 f4 ff ff 	mov    %rax,-0xc00(%rbp)
   14c0b:	48 8d 05 36 24 01 00 	lea    0x12436(%rip),%rax        # 27048 <g_34>
   14c12:	48 89 85 08 f4 ff ff 	mov    %rax,-0xbf8(%rbp)
   14c19:	c7 85 f0 f3 ff ff 00 	movl   $0x0,-0xc10(%rbp)
   14c20:	00 00 00 
   14c23:	c7 85 90 f4 ff ff ff 	movl   $0xffffffff,-0xb70(%rbp)
   14c2a:	ff ff ff 
   14c2d:	c7 85 94 f4 ff ff 9a 	movl   $0x34fa629a,-0xb6c(%rbp)
   14c34:	62 fa 34 
   14c37:	c7 85 98 f4 ff ff 9a 	movl   $0x34fa629a,-0xb68(%rbp)
   14c3e:	62 fa 34 
   14c41:	c7 85 9c f4 ff ff ff 	movl   $0xffffffff,-0xb64(%rbp)
   14c48:	ff ff ff 
   14c4b:	c7 85 a0 f4 ff ff 9a 	movl   $0x34fa629a,-0xb60(%rbp)
   14c52:	62 fa 34 
   14c55:	c7 85 a4 f4 ff ff 9a 	movl   $0x34fa629a,-0xb5c(%rbp)
   14c5c:	62 fa 34 
   14c5f:	c7 85 a8 f4 ff ff ff 	movl   $0xffffffff,-0xb58(%rbp)
   14c66:	ff ff ff 
   14c69:	c7 85 ac f4 ff ff 9a 	movl   $0x34fa629a,-0xb54(%rbp)
   14c70:	62 fa 34 
   14c73:	48 8d 85 20 f5 ff ff 	lea    -0xae0(%rbp),%rax
   14c7a:	48 8d 15 bf e1 00 00 	lea    0xe1bf(%rip),%rdx        # 22e40 <g_1760+0xce0>
   14c81:	b9 23 00 00 00       	mov    $0x23,%ecx
   14c86:	48 89 c7             	mov    %rax,%rdi
   14c89:	48 89 d6             	mov    %rdx,%rsi
   14c8c:	f3 48 a5             	rep movsq %ds:(%rsi),%es:(%rdi)
   14c8f:	48 c7 85 20 f4 ff ff 	movq   $0xfffffffffffffffa,-0xbe0(%rbp)
   14c96:	fa ff ff ff 
   14c9a:	48 8d 05 77 26 01 00 	lea    0x12677(%rip),%rax        # 27318 <g_731>
   14ca1:	48 89 85 28 f4 ff ff 	mov    %rax,-0xbd8(%rbp)
   14ca8:	48 8d 05 e9 27 01 00 	lea    0x127e9(%rip),%rax        # 27498 <g_903>
   14caf:	48 89 85 30 f4 ff ff 	mov    %rax,-0xbd0(%rbp)
   14cb6:	48 8d 05 9b 23 01 00 	lea    0x1239b(%rip),%rax        # 27058 <g_104>
   14cbd:	48 89 85 38 f4 ff ff 	mov    %rax,-0xbc8(%rbp)
   14cc4:	48 c7 85 40 f4 ff ff 	movq   $0x0,-0xbc0(%rbp)
   14ccb:	00 00 00 00 
   14ccf:	48 8d 85 b0 f9 ff ff 	lea    -0x650(%rbp),%rax
   14cd6:	48 8d 15 83 37 01 00 	lea    0x13783(%rip),%rdx        # 28460 <g_3136+0xb60>
   14cdd:	b9 c8 00 00 00       	mov    $0xc8,%ecx
   14ce2:	48 89 c7             	mov    %rax,%rdi
   14ce5:	48 89 d6             	mov    %rdx,%rsi
   14ce8:	f3 48 a5             	rep movsq %ds:(%rsi),%es:(%rdi)
   14ceb:	c7 85 f4 f3 ff ff f8 	movl   $0xfffffff8,-0xc0c(%rbp)
   14cf2:	ff ff ff 
   14cf5:	48 8d 05 c4 8d 01 00 	lea    0x18dc4(%rip),%rax        # 2dac0 <g_269>
   14cfc:	48 89 85 48 f4 ff ff 	mov    %rax,-0xbb8(%rbp)
   14d03:	48 8d 05 ae 67 01 00 	lea    0x167ae(%rip),%rax        # 2b4b8 <g_297>
   14d0a:	48 89 85 40 f6 ff ff 	mov    %rax,-0x9c0(%rbp)
   14d11:	48 8d 85 00 f4 ff ff 	lea    -0xc00(%rbp),%rax
   14d18:	48 89 85 48 f6 ff ff 	mov    %rax,-0x9b8(%rbp)
   14d1f:	48 c7 85 50 f6 ff ff 	movq   $0x0,-0x9b0(%rbp)
   14d26:	00 00 00 00 
   14d2a:	48 c7 85 58 f6 ff ff 	movq   $0x0,-0x9a8(%rbp)
   14d31:	00 00 00 00 
   14d35:	48 c7 85 60 f6 ff ff 	movq   $0x0,-0x9a0(%rbp)
   14d3c:	00 00 00 00 
   14d40:	48 c7 85 68 f6 ff ff 	movq   $0x0,-0x998(%rbp)
   14d47:	00 00 00 00 
   14d4b:	48 8d 85 00 f4 ff ff 	lea    -0xc00(%rbp),%rax
   14d52:	48 89 85 70 f6 ff ff 	mov    %rax,-0x990(%rbp)
   14d59:	48 8d 05 58 67 01 00 	lea    0x16758(%rip),%rax        # 2b4b8 <g_297>
   14d60:	48 89 85 78 f6 ff ff 	mov    %rax,-0x988(%rbp)
   14d67:	48 c7 85 80 f6 ff ff 	movq   $0x0,-0x980(%rbp)
   14d6e:	00 00 00 00 
   14d72:	48 8d 05 3f 67 01 00 	lea    0x1673f(%rip),%rax        # 2b4b8 <g_297>
   14d79:	48 89 85 88 f6 ff ff 	mov    %rax,-0x978(%rbp)
   14d80:	48 c7 85 90 f6 ff ff 	movq   $0x0,-0x970(%rbp)
   14d87:	00 00 00 00 
   14d8b:	48 8d 85 08 f4 ff ff 	lea    -0xbf8(%rbp),%rax
   14d92:	48 89 85 98 f6 ff ff 	mov    %rax,-0x968(%rbp)
   14d99:	48 8d 05 e0 1f 01 00 	lea    0x11fe0(%rip),%rax        # 26d80 <g_1208>
   14da0:	48 89 85 a0 f6 ff ff 	mov    %rax,-0x960(%rbp)
   14da7:	48 c7 85 a8 f6 ff ff 	movq   $0x0,-0x958(%rbp)
   14dae:	00 00 00 00 
   14db2:	48 8d 05 c7 1f 01 00 	lea    0x11fc7(%rip),%rax        # 26d80 <g_1208>
   14db9:	48 89 85 b0 f6 ff ff 	mov    %rax,-0x950(%rbp)
   14dc0:	48 8d 85 08 f4 ff ff 	lea    -0xbf8(%rbp),%rax
   14dc7:	48 89 85 b8 f6 ff ff 	mov    %rax,-0x948(%rbp)
   14dce:	48 c7 85 c0 f6 ff ff 	movq   $0x0,-0x940(%rbp)
   14dd5:	00 00 00 00 
   14dd9:	48 c7 85 c8 f6 ff ff 	movq   $0x0,-0x938(%rbp)
   14de0:	00 00 00 00 
   14de4:	48 c7 85 d0 f6 ff ff 	movq   $0x0,-0x930(%rbp)
   14deb:	00 00 00 00 
   14def:	48 c7 85 d8 f6 ff ff 	movq   $0x0,-0x928(%rbp)
   14df6:	00 00 00 00 
   14dfa:	48 c7 85 e0 f6 ff ff 	movq   $0x0,-0x920(%rbp)
   14e01:	00 00 00 00 
   14e05:	48 8d 05 ac 66 01 00 	lea    0x166ac(%rip),%rax        # 2b4b8 <g_297>
   14e0c:	48 89 85 e8 f6 ff ff 	mov    %rax,-0x918(%rbp)
   14e13:	48 8d 05 66 1f 01 00 	lea    0x11f66(%rip),%rax        # 26d80 <g_1208>
   14e1a:	48 89 85 f0 f6 ff ff 	mov    %rax,-0x910(%rbp)
   14e21:	48 8d 05 58 1f 01 00 	lea    0x11f58(%rip),%rax        # 26d80 <g_1208>
   14e28:	48 89 85 f8 f6 ff ff 	mov    %rax,-0x908(%rbp)
   14e2f:	48 8d 05 82 66 01 00 	lea    0x16682(%rip),%rax        # 2b4b8 <g_297>
   14e36:	48 89 85 00 f7 ff ff 	mov    %rax,-0x900(%rbp)
   14e3d:	48 c7 85 08 f7 ff ff 	movq   $0x0,-0x8f8(%rbp)
   14e44:	00 00 00 00 
   14e48:	48 8d 85 08 f4 ff ff 	lea    -0xbf8(%rbp),%rax
   14e4f:	48 89 85 10 f7 ff ff 	mov    %rax,-0x8f0(%rbp)
   14e56:	48 8d 05 5b 66 01 00 	lea    0x1665b(%rip),%rax        # 2b4b8 <g_297>
   14e5d:	48 89 85 18 f7 ff ff 	mov    %rax,-0x8e8(%rbp)
   14e64:	48 8d 85 08 f4 ff ff 	lea    -0xbf8(%rbp),%rax
   14e6b:	48 89 85 20 f7 ff ff 	mov    %rax,-0x8e0(%rbp)
   14e72:	48 c7 85 28 f7 ff ff 	movq   $0x0,-0x8d8(%rbp)
   14e79:	00 00 00 00 
   14e7d:	48 8d 85 00 f4 ff ff 	lea    -0xc00(%rbp),%rax
   14e84:	48 89 85 30 f7 ff ff 	mov    %rax,-0x8d0(%rbp)
   14e8b:	48 8d 05 26 66 01 00 	lea    0x16626(%rip),%rax        # 2b4b8 <g_297>
   14e92:	48 89 85 38 f7 ff ff 	mov    %rax,-0x8c8(%rbp)
   14e99:	48 c7 85 40 f7 ff ff 	movq   $0x0,-0x8c0(%rbp)
   14ea0:	00 00 00 00 
   14ea4:	48 8d 05 0d 66 01 00 	lea    0x1660d(%rip),%rax        # 2b4b8 <g_297>
   14eab:	48 89 85 48 f7 ff ff 	mov    %rax,-0x8b8(%rbp)
   14eb2:	48 8d 85 00 f4 ff ff 	lea    -0xc00(%rbp),%rax
   14eb9:	48 89 85 50 f7 ff ff 	mov    %rax,-0x8b0(%rbp)
   14ec0:	48 c7 85 58 f7 ff ff 	movq   $0x0,-0x8a8(%rbp)
   14ec7:	00 00 00 00 
   14ecb:	48 c7 85 60 f7 ff ff 	movq   $0x0,-0x8a0(%rbp)
   14ed2:	00 00 00 00 
   14ed6:	48 c7 85 68 f7 ff ff 	movq   $0x0,-0x898(%rbp)
   14edd:	00 00 00 00 
   14ee1:	48 c7 85 70 f7 ff ff 	movq   $0x0,-0x890(%rbp)
   14ee8:	00 00 00 00 
   14eec:	48 8d 85 00 f4 ff ff 	lea    -0xc00(%rbp),%rax
   14ef3:	48 89 85 78 f7 ff ff 	mov    %rax,-0x888(%rbp)
   14efa:	48 8d 85 40 f6 ff ff 	lea    -0x9c0(%rbp),%rax
   14f01:	48 05 98 00 00 00    	add    $0x98,%rax
   14f07:	48 89 85 50 f4 ff ff 	mov    %rax,-0xbb0(%rbp)
   14f0e:	48 8d 05 47 23 01 00 	lea    0x12347(%rip),%rax        # 2725c <g_724+0x1c>
   14f15:	48 89 85 58 f4 ff ff 	mov    %rax,-0xba8(%rbp)
   14f1c:	66 c7 85 dc f3 ff ff 	movw   $0xd4bf,-0xc24(%rbp)
   14f23:	bf d4 
   14f25:	48 8d 05 04 25 01 00 	lea    0x12504(%rip),%rax        # 27430 <g_886+0x10>
   14f2c:	48 89 85 10 f4 ff ff 	mov    %rax,-0xbf0(%rbp)
   14f33:	48 8d 85 10 f4 ff ff 	lea    -0xbf0(%rbp),%rax
   14f3a:	48 89 85 60 f4 ff ff 	mov    %rax,-0xba0(%rbp)
   14f41:	48 b8 4b 31 04 70 10 	movabs $0xeaefb107004314b,%rax
   14f48:	fb ae 0e 
   14f4b:	48 89 85 68 f4 ff ff 	mov    %rax,-0xb98(%rbp)
   14f52:	c7 85 f8 f3 ff ff 51 	movl   $0xe4f5e651,-0xc08(%rbp)
   14f59:	e6 f5 e4 
   14f5c:	48 8d 05 0d 8c 01 00 	lea    0x18c0d(%rip),%rax        # 2db70 <g_717+0x30>
   14f63:	48 89 85 70 f4 ff ff 	mov    %rax,-0xb90(%rbp)
   14f6a:	48 8d 05 1f 67 01 00 	lea    0x1671f(%rip),%rax        # 2b690 <g_718>
   14f71:	48 89 85 78 f4 ff ff 	mov    %rax,-0xb88(%rbp)
   14f78:	c7 85 b0 f4 ff ff 89 	movl   $0xad871f89,-0xb50(%rbp)
   14f7f:	1f 87 ad 
   14f82:	c7 85 b4 f4 ff ff 89 	movl   $0xad871f89,-0xb4c(%rbp)
   14f89:	1f 87 ad 
   14f8c:	c7 85 b8 f4 ff ff 89 	movl   $0xad871f89,-0xb48(%rbp)
   14f93:	1f 87 ad 
   14f96:	c7 85 bc f4 ff ff 89 	movl   $0xad871f89,-0xb44(%rbp)
   14f9d:	1f 87 ad 
   14fa0:	c7 85 c0 f4 ff ff 89 	movl   $0xad871f89,-0xb40(%rbp)
   14fa7:	1f 87 ad 
   14faa:	c7 85 c4 f4 ff ff 89 	movl   $0xad871f89,-0xb3c(%rbp)
   14fb1:	1f 87 ad 
   14fb4:	c7 85 c8 f4 ff ff 89 	movl   $0xad871f89,-0xb38(%rbp)
   14fbb:	1f 87 ad 
   14fbe:	c7 85 cc f4 ff ff 89 	movl   $0xad871f89,-0xb34(%rbp)
   14fc5:	1f 87 ad 
   14fc8:	c7 85 d0 f4 ff ff 89 	movl   $0xad871f89,-0xb30(%rbp)
   14fcf:	1f 87 ad 
   14fd2:	c7 85 d4 f4 ff ff 89 	movl   $0xad871f89,-0xb2c(%rbp)
   14fd9:	1f 87 ad 
   14fdc:	c7 85 d8 f4 ff ff 89 	movl   $0xad871f89,-0xb28(%rbp)
   14fe3:	1f 87 ad 
   14fe6:	c7 85 dc f4 ff ff 89 	movl   $0xad871f89,-0xb24(%rbp)
   14fed:	1f 87 ad 
   14ff0:	66 c7 85 de f3 ff ff 	movw   $0x6,-0xc22(%rbp)
   14ff7:	06 00 
   14ff9:	c7 85 fc f3 ff ff 91 	movl   $0x546ca791,-0xc04(%rbp)
   15000:	a7 6c 54 
   15003:	c6 85 da f3 ff ff 95 	movb   $0x95,-0xc26(%rbp)
   1500a:	48 8d 05 7f 6d 01 00 	lea    0x16d7f(%rip),%rax        # 2bd90 <g_1291>
   15011:	48 89 85 80 f4 ff ff 	mov    %rax,-0xb80(%rbp)
   15018:	66 c7 85 e0 f3 ff ff 	movw   $0x7e9e,-0xc20(%rbp)
   1501f:	9e 7e 
   15021:	c6 85 db f3 ff ff 55 	movb   $0x55,-0xc25(%rbp)
   15028:	66 c7 85 e2 f3 ff ff 	movw   $0xfffc,-0xc1e(%rbp)
   1502f:	fc ff 
   15031:	48 c7 85 e0 f4 ff ff 	movq   $0x0,-0xb20(%rbp)
   15038:	00 00 00 00 
   1503c:	48 c7 85 e8 f4 ff ff 	movq   $0x0,-0xb18(%rbp)
   15043:	00 00 00 00 
   15047:	48 c7 85 f0 f4 ff ff 	movq   $0x0,-0xb10(%rbp)
   1504e:	00 00 00 00 
   15052:	48 c7 85 f8 f4 ff ff 	movq   $0x0,-0xb08(%rbp)
   15059:	00 00 00 00 
   1505d:	48 c7 85 00 f5 ff ff 	movq   $0x0,-0xb00(%rbp)
   15064:	00 00 00 00 
   15068:	48 c7 85 08 f5 ff ff 	movq   $0x0,-0xaf8(%rbp)
   1506f:	00 00 00 00 
   15073:	48 c7 85 10 f5 ff ff 	movq   $0x0,-0xaf0(%rbp)
   1507a:	00 00 00 00 
   1507e:	c7 85 e4 f3 ff ff 00 	movl   $0x0,-0xc1c(%rbp)
   15085:	00 00 00 
   15088:	eb 1e                	jmp    150a8 <func_19+0x4e3>
   1508a:	8b 85 e4 f3 ff ff    	mov    -0xc1c(%rbp),%eax
   15090:	48 98                	cltq   
   15092:	48 8d 15 2f 20 01 00 	lea    0x1202f(%rip),%rdx        # 270c8 <g_211>
   15099:	48 89 94 c5 88 f4 ff 	mov    %rdx,-0xb78(%rbp,%rax,8)
   150a0:	ff 
   150a1:	83 85 e4 f3 ff ff 01 	addl   $0x1,-0xc1c(%rbp)
   150a8:	83 bd e4 f3 ff ff 00 	cmpl   $0x0,-0xc1c(%rbp)
   150af:	7e d9                	jle    1508a <func_19+0x4c5>
   150b1:	c7 85 e4 f3 ff ff 00 	movl   $0x0,-0xc1c(%rbp)
   150b8:	00 00 00 
   150bb:	eb 79                	jmp    15136 <func_19+0x571>
   150bd:	c7 85 e8 f3 ff ff 00 	movl   $0x0,-0xc18(%rbp)
   150c4:	00 00 00 
   150c7:	eb 5d                	jmp    15126 <func_19+0x561>
   150c9:	c7 85 ec f3 ff ff 00 	movl   $0x0,-0xc14(%rbp)
   150d0:	00 00 00 
   150d3:	eb 41                	jmp    15116 <func_19+0x551>
   150d5:	8b 85 ec f3 ff ff    	mov    -0xc14(%rbp),%eax
   150db:	48 63 c8             	movslq %eax,%rcx
   150de:	8b 85 e4 f3 ff ff    	mov    -0xc1c(%rbp),%eax
   150e4:	48 63 d0             	movslq %eax,%rdx
   150e7:	8b 85 e8 f3 ff ff    	mov    -0xc18(%rbp),%eax
   150ed:	48 63 f0             	movslq %eax,%rsi
   150f0:	48 89 d0             	mov    %rdx,%rax
   150f3:	48 c1 e0 02          	shl    $0x2,%rax
   150f7:	48 01 d0             	add    %rdx,%rax
   150fa:	48 01 f0             	add    %rsi,%rax
   150fd:	48 01 c0             	add    %rax,%rax
   15100:	48 01 c8             	add    %rcx,%rax
   15103:	48 c7 84 c5 80 f7 ff 	movq   $0x0,-0x880(%rbp,%rax,8)
   1510a:	ff 00 00 00 00 
   1510f:	83 85 ec f3 ff ff 01 	addl   $0x1,-0xc14(%rbp)
   15116:	83 bd ec f3 ff ff 01 	cmpl   $0x1,-0xc14(%rbp)
   1511d:	7e b6                	jle    150d5 <func_19+0x510>
   1511f:	83 85 e8 f3 ff ff 01 	addl   $0x1,-0xc18(%rbp)
   15126:	83 bd e8 f3 ff ff 04 	cmpl   $0x4,-0xc18(%rbp)
   1512d:	7e 9a                	jle    150c9 <func_19+0x504>
   1512f:	83 85 e4 f3 ff ff 01 	addl   $0x1,-0xc1c(%rbp)
   15136:	83 bd e4 f3 ff ff 06 	cmpl   $0x6,-0xc1c(%rbp)
   1513d:	0f 8e 7a ff ff ff    	jle    150bd <func_19+0x4f8>
   15143:	48 8b 85 10 f5 ff ff 	mov    -0xaf0(%rbp),%rax
   1514a:	48 8b 7d f8          	mov    -0x8(%rbp),%rdi
   1514e:	64 48 33 3c 25 28 00 	xor    %fs:0x28,%rdi
   15155:	00 00 
   15157:	74 05                	je     1515e <func_19+0x599>
   15159:	e8 12 af ff ff       	callq  10070 <__stack_chk_fail@plt>
   1515e:	c9                   	leaveq 
   1515f:	c3                   	retq   

0000000000015160 <func_39>:
   15160:	f3 0f 1e fa          	endbr64 
   15164:	55                   	push   %rbp
   15165:	48 89 e5             	mov    %rsp,%rbp
   15168:	41 57                	push   %r15
   1516a:	41 56                	push   %r14
   1516c:	41 55                	push   %r13
   1516e:	41 54                	push   %r12
   15170:	53                   	push   %rbx
   15171:	48 81 ec d8 0a 00 00 	sub    $0xad8,%rsp
   15178:	89 bd 1c f5 ff ff    	mov    %edi,-0xae4(%rbp)
   1517e:	89 f0                	mov    %esi,%eax
   15180:	48 89 95 10 f5 ff ff 	mov    %rdx,-0xaf0(%rbp)
   15187:	88 85 18 f5 ff ff    	mov    %al,-0xae8(%rbp)
   1518d:	64 48 8b 04 25 28 00 	mov    %fs:0x28,%rax
   15194:	00 00 
   15196:	48 89 45 c8          	mov    %rax,-0x38(%rbp)
   1519a:	31 c0                	xor    %eax,%eax
   1519c:	48 8d 05 25 23 01 00 	lea    0x12325(%rip),%rax        # 274c8 <g_1297>
   151a3:	48 89 85 90 f5 ff ff 	mov    %rax,-0xa70(%rbp)
   151aa:	48 8d 05 5f 89 01 00 	lea    0x1895f(%rip),%rax        # 2db10 <g_587>
   151b1:	48 89 85 c0 f5 ff ff 	mov    %rax,-0xa40(%rbp)
   151b8:	48 c7 85 98 f5 ff ff 	movq   $0x0,-0xa68(%rbp)
   151bf:	00 00 00 00 
   151c3:	c7 85 54 f5 ff ff 07 	movl   $0x7,-0xaac(%rbp)
   151ca:	00 00 00 
   151cd:	c7 85 58 f5 ff ff f9 	movl   $0xc597eff9,-0xaa8(%rbp)
   151d4:	ef 97 c5 
   151d7:	48 8d 05 2a 20 01 00 	lea    0x1202a(%rip),%rax        # 27208 <g_542>
   151de:	48 89 85 c8 f5 ff ff 	mov    %rax,-0xa38(%rbp)
   151e5:	48 c7 85 d0 f5 ff ff 	movq   $0x0,-0xa30(%rbp)
   151ec:	00 00 00 00 
   151f0:	48 8d 85 10 f7 ff ff 	lea    -0x8f0(%rbp),%rax
   151f7:	48 83 c0 10          	add    $0x10,%rax
   151fb:	48 89 85 d8 f5 ff ff 	mov    %rax,-0xa28(%rbp)
   15202:	c7 85 5c f5 ff ff 01 	movl   $0x1,-0xaa4(%rbp)
   15209:	00 00 00 
   1520c:	66 c7 85 2c f5 ff ff 	movw   $0xc184,-0xad4(%rbp)
   15213:	84 c1 
   15215:	48 8d 05 9c 22 01 00 	lea    0x1229c(%rip),%rax        # 274b8 <g_1205>
   1521c:	48 89 85 e0 f5 ff ff 	mov    %rax,-0xa20(%rbp)
   15223:	66 c7 85 2e f5 ff ff 	movw   $0x9ae1,-0xad2(%rbp)
   1522a:	e1 9a 
   1522c:	c7 85 34 f5 ff ff 12 	movl   $0x8581be12,-0xacc(%rbp)
   15233:	be 81 85 
   15236:	48 c7 85 e8 f5 ff ff 	movq   $0x0,-0xa18(%rbp)
   1523d:	00 00 00 00 
   15241:	48 b8 5a 34 66 f4 df 	movabs $0xf9796bdff466345a,%rax
   15248:	6b 79 f9 
   1524b:	48 89 85 f0 f5 ff ff 	mov    %rax,-0xa10(%rbp)
   15252:	48 c7 85 40 f7 ff ff 	movq   $0x0,-0x8c0(%rbp)
   15259:	00 00 00 00 
   1525d:	48 c7 85 48 f7 ff ff 	movq   $0x0,-0x8b8(%rbp)
   15264:	00 00 00 00 
   15268:	48 c7 85 50 f7 ff ff 	movq   $0x0,-0x8b0(%rbp)
   1526f:	00 00 00 00 
   15273:	48 c7 85 58 f7 ff ff 	movq   $0x0,-0x8a8(%rbp)
   1527a:	00 00 00 00 
   1527e:	48 c7 85 60 f7 ff ff 	movq   $0x0,-0x8a0(%rbp)
   15285:	00 00 00 00 
   15289:	c7 85 60 f5 ff ff e5 	movl   $0xfa4797e5,-0xaa0(%rbp)
   15290:	97 47 fa 
   15293:	c7 85 64 f5 ff ff cc 	movl   $0x3cddeccc,-0xa9c(%rbp)
   1529a:	ec dd 3c 
   1529d:	48 c7 85 f8 f5 ff ff 	movq   $0xfffffffffffffff8,-0xa08(%rbp)
   152a4:	f8 ff ff ff 
   152a8:	c7 85 70 f7 ff ff fa 	movl   $0x3be92cfa,-0x890(%rbp)
   152af:	2c e9 3b 
   152b2:	c7 85 74 f7 ff ff ff 	movl   $0xffffffff,-0x88c(%rbp)
   152b9:	ff ff ff 
   152bc:	c7 85 78 f7 ff ff fa 	movl   $0x3be92cfa,-0x888(%rbp)
   152c3:	2c e9 3b 
   152c6:	c7 85 7c f7 ff ff ff 	movl   $0xffffffff,-0x884(%rbp)
   152cd:	ff ff ff 
   152d0:	c7 85 80 f7 ff ff ff 	movl   $0xffffffff,-0x880(%rbp)
   152d7:	ff ff ff 
   152da:	c7 85 84 f7 ff ff fa 	movl   $0x3be92cfa,-0x87c(%rbp)
   152e1:	2c e9 3b 
   152e4:	c7 85 88 f7 ff ff ff 	movl   $0xffffffff,-0x878(%rbp)
   152eb:	ff ff ff 
   152ee:	c7 85 8c f7 ff ff fa 	movl   $0x3be92cfa,-0x874(%rbp)
   152f5:	2c e9 3b 
   152f8:	c7 85 90 f7 ff ff ff 	movl   $0xffffffff,-0x870(%rbp)
   152ff:	ff ff ff 
   15302:	c7 85 94 f7 ff ff ff 	movl   $0xffffffff,-0x86c(%rbp)
   15309:	ff ff ff 
   1530c:	c7 85 68 f5 ff ff fe 	movl   $0xfffffffe,-0xa98(%rbp)
   15313:	ff ff ff 
   15316:	48 c7 85 a0 f5 ff ff 	movq   $0x0,-0xa60(%rbp)
   1531d:	00 00 00 00 
   15321:	48 8d 85 a0 f5 ff ff 	lea    -0xa60(%rbp),%rax
   15328:	48 89 85 a8 f5 ff ff 	mov    %rax,-0xa58(%rbp)
   1532f:	48 b8 21 0a d7 73 4c 	movabs $0xeeb05f4c73d70a21,%rax
   15336:	5f b0 ee 
   15339:	48 89 85 a0 f7 ff ff 	mov    %rax,-0x860(%rbp)
   15340:	48 bb 49 12 9b 6c c7 	movabs $0xe0f3cfc76c9b1249,%rbx
   15347:	cf f3 e0 
   1534a:	48 89 9d a8 f7 ff ff 	mov    %rbx,-0x858(%rbp)
   15351:	48 89 85 b0 f7 ff ff 	mov    %rax,-0x850(%rbp)
   15358:	48 89 85 b8 f7 ff ff 	mov    %rax,-0x848(%rbp)
   1535f:	48 89 9d c0 f7 ff ff 	mov    %rbx,-0x840(%rbp)
   15366:	48 89 85 c8 f7 ff ff 	mov    %rax,-0x838(%rbp)
   1536d:	48 8d 85 90 f5 ff ff 	lea    -0xa70(%rbp),%rax
   15374:	48 89 85 b0 f5 ff ff 	mov    %rax,-0xa50(%rbp)
   1537b:	c7 85 38 f5 ff ff 00 	movl   $0x0,-0xac8(%rbp)
   15382:	00 00 00 
   15385:	eb 1e                	jmp    153a5 <func_39+0x245>
   15387:	8b 85 38 f5 ff ff    	mov    -0xac8(%rbp),%eax
   1538d:	48 98                	cltq   
   1538f:	48 8d 15 0e 87 01 00 	lea    0x1870e(%rip),%rdx        # 2daa4 <g_126>
   15396:	48 89 94 c5 10 f7 ff 	mov    %rdx,-0x8f0(%rbp,%rax,8)
   1539d:	ff 
   1539e:	83 85 38 f5 ff ff 01 	addl   $0x1,-0xac8(%rbp)
   153a5:	83 bd 38 f5 ff ff 04 	cmpl   $0x4,-0xac8(%rbp)
   153ac:	7e d9                	jle    15387 <func_39+0x227>
   153ae:	c7 85 38 f5 ff ff 00 	movl   $0x0,-0xac8(%rbp)
   153b5:	00 00 00 
   153b8:	eb 1a                	jmp    153d4 <func_39+0x274>
   153ba:	8b 85 38 f5 ff ff    	mov    -0xac8(%rbp),%eax
   153c0:	48 98                	cltq   
   153c2:	c7 84 85 f0 f6 ff ff 	movl   $0x2203c760,-0x910(%rbp,%rax,4)
   153c9:	60 c7 03 22 
   153cd:	83 85 38 f5 ff ff 01 	addl   $0x1,-0xac8(%rbp)
   153d4:	83 bd 38 f5 ff ff 05 	cmpl   $0x5,-0xac8(%rbp)
   153db:	7e dd                	jle    153ba <func_39+0x25a>
   153dd:	c7 85 38 f5 ff ff 00 	movl   $0x0,-0xac8(%rbp)
   153e4:	00 00 00 
   153e7:	eb 1e                	jmp    15407 <func_39+0x2a7>
   153e9:	8b 85 38 f5 ff ff    	mov    -0xac8(%rbp),%eax
   153ef:	48 98                	cltq   
   153f1:	48 8d 95 b0 f5 ff ff 	lea    -0xa50(%rbp),%rdx
   153f8:	48 89 94 c5 c0 f6 ff 	mov    %rdx,-0x940(%rbp,%rax,8)
   153ff:	ff 
   15400:	83 85 38 f5 ff ff 01 	addl   $0x1,-0xac8(%rbp)
   15407:	83 bd 38 f5 ff ff 01 	cmpl   $0x1,-0xac8(%rbp)
   1540e:	7e d9                	jle    153e9 <func_39+0x289>
   15410:	c7 05 fe 1f 01 00 00 	movl   $0x0,0x11ffe(%rip)        # 27418 <g_860>
   15417:	00 00 00 
   1541a:	e9 1b 02 00 00       	jmpq   1563a <func_39+0x4da>
   1541f:	48 8d 05 8a 61 01 00 	lea    0x1618a(%rip),%rax        # 2b5b0 <g_719+0xb0>
   15426:	48 89 85 90 f6 ff ff 	mov    %rax,-0x970(%rbp)
   1542d:	48 8d 05 93 1c 01 00 	lea    0x11c93(%rip),%rax        # 270c7 <g_202>
   15434:	48 89 85 98 f6 ff ff 	mov    %rax,-0x968(%rbp)
   1543b:	48 8d 85 98 f5 ff ff 	lea    -0xa68(%rbp),%rax
   15442:	48 89 85 a0 f6 ff ff 	mov    %rax,-0x960(%rbp)
   15449:	48 c7 85 d0 f7 ff ff 	movq   $0x0,-0x830(%rbp)
   15450:	00 00 00 00 
   15454:	48 c7 85 d8 f7 ff ff 	movq   $0x0,-0x828(%rbp)
   1545b:	00 00 00 00 
   1545f:	48 c7 85 e0 f7 ff ff 	movq   $0x0,-0x820(%rbp)
   15466:	00 00 00 00 
   1546a:	48 c7 85 e8 f7 ff ff 	movq   $0x0,-0x818(%rbp)
   15471:	00 00 00 00 
   15475:	48 c7 85 f0 f7 ff ff 	movq   $0x0,-0x810(%rbp)
   1547c:	00 00 00 00 
   15480:	48 c7 85 f8 f7 ff ff 	movq   $0x0,-0x808(%rbp)
   15487:	00 00 00 00 
   1548b:	48 c7 85 00 f8 ff ff 	movq   $0x0,-0x800(%rbp)
   15492:	00 00 00 00 
   15496:	48 c7 85 08 f8 ff ff 	movq   $0x0,-0x7f8(%rbp)
   1549d:	00 00 00 00 
   154a1:	48 c7 85 a8 f6 ff ff 	movq   $0x0,-0x958(%rbp)
   154a8:	00 00 00 00 
   154ac:	48 8d 05 5d 1d 01 00 	lea    0x11d5d(%rip),%rax        # 27210 <g_545>
   154b3:	48 89 85 b0 f6 ff ff 	mov    %rax,-0x950(%rbp)
   154ba:	48 8d 85 d0 f7 ff ff 	lea    -0x830(%rbp),%rax
   154c1:	48 83 c0 30          	add    $0x30,%rax
   154c5:	48 89 85 b8 f6 ff ff 	mov    %rax,-0x948(%rbp)
   154cc:	c7 85 88 f5 ff ff 04 	movl   $0x4,-0xa78(%rbp)
   154d3:	00 00 00 
   154d6:	66 c7 85 32 f5 ff ff 	movw   $0x8cf2,-0xace(%rbp)
   154dd:	f2 8c 
   154df:	c6 85 2b f5 ff ff d1 	movb   $0xd1,-0xad5(%rbp)
   154e6:	c7 85 8c f5 ff ff 6b 	movl   $0x6c8726b,-0xa74(%rbp)
   154ed:	72 c8 06 
   154f0:	c7 85 3c f5 ff ff 00 	movl   $0x0,-0xac4(%rbp)
   154f7:	00 00 00 
   154fa:	e9 84 00 00 00       	jmpq   15583 <func_39+0x423>
   154ff:	c7 85 40 f5 ff ff 00 	movl   $0x0,-0xac0(%rbp)
   15506:	00 00 00 
   15509:	eb 68                	jmp    15573 <func_39+0x413>
   1550b:	c7 85 44 f5 ff ff 00 	movl   $0x0,-0xabc(%rbp)
   15512:	00 00 00 
   15515:	eb 4c                	jmp    15563 <func_39+0x403>
   15517:	8b 85 44 f5 ff ff    	mov    -0xabc(%rbp),%eax
   1551d:	48 63 f0             	movslq %eax,%rsi
   15520:	8b 85 3c f5 ff ff    	mov    -0xac4(%rbp),%eax
   15526:	48 63 d0             	movslq %eax,%rdx
   15529:	8b 85 40 f5 ff ff    	mov    -0xac0(%rbp),%eax
   1552f:	48 63 c8             	movslq %eax,%rcx
   15532:	48 89 d0             	mov    %rdx,%rax
   15535:	48 c1 e0 02          	shl    $0x2,%rax
   15539:	48 01 d0             	add    %rdx,%rax
   1553c:	48 c1 e0 02          	shl    $0x2,%rax
   15540:	48 89 ca             	mov    %rcx,%rdx
   15543:	48 c1 e2 02          	shl    $0x2,%rdx
   15547:	48 01 ca             	add    %rcx,%rdx
   1554a:	48 01 d0             	add    %rdx,%rax
   1554d:	48 01 f0             	add    %rsi,%rax
   15550:	48 c7 84 c5 00 f9 ff 	movq   $0x0,-0x700(%rbp,%rax,8)
   15557:	ff 00 00 00 00 
   1555c:	83 85 44 f5 ff ff 01 	addl   $0x1,-0xabc(%rbp)
   15563:	83 bd 44 f5 ff ff 04 	cmpl   $0x4,-0xabc(%rbp)
   1556a:	7e ab                	jle    15517 <func_39+0x3b7>
   1556c:	83 85 40 f5 ff ff 01 	addl   $0x1,-0xac0(%rbp)
   15573:	83 bd 40 f5 ff ff 03 	cmpl   $0x3,-0xac0(%rbp)
   1557a:	7e 8f                	jle    1550b <func_39+0x3ab>
   1557c:	83 85 3c f5 ff ff 01 	addl   $0x1,-0xac4(%rbp)
   15583:	83 bd 3c f5 ff ff 00 	cmpl   $0x0,-0xac4(%rbp)
   1558a:	0f 8e 6f ff ff ff    	jle    154ff <func_39+0x39f>
   15590:	c7 85 3c f5 ff ff 00 	movl   $0x0,-0xac4(%rbp)
   15597:	00 00 00 
   1559a:	eb 1e                	jmp    155ba <func_39+0x45a>
   1559c:	8b 85 3c f5 ff ff    	mov    -0xac4(%rbp),%eax
   155a2:	48 98                	cltq   
   155a4:	48 8d 15 f8 1e 01 00 	lea    0x11ef8(%rip),%rdx        # 274a3 <g_992>
   155ab:	48 89 94 c5 10 f8 ff 	mov    %rdx,-0x7f0(%rbp,%rax,8)
   155b2:	ff 
   155b3:	83 85 3c f5 ff ff 01 	addl   $0x1,-0xac4(%rbp)
   155ba:	83 bd 3c f5 ff ff 09 	cmpl   $0x9,-0xac4(%rbp)
   155c1:	7e d9                	jle    1559c <func_39+0x43c>
   155c3:	c7 85 3c f5 ff ff 00 	movl   $0x0,-0xac4(%rbp)
   155ca:	00 00 00 
   155cd:	eb 42                	jmp    15611 <func_39+0x4b1>
   155cf:	c7 85 40 f5 ff ff 00 	movl   $0x0,-0xac0(%rbp)
   155d6:	00 00 00 
   155d9:	eb 26                	jmp    15601 <func_39+0x4a1>
   155db:	8b 85 40 f5 ff ff    	mov    -0xac0(%rbp),%eax
   155e1:	48 63 d0             	movslq %eax,%rdx
   155e4:	8b 85 3c f5 ff ff    	mov    -0xac4(%rbp),%eax
   155ea:	48 98                	cltq   
   155ec:	48 01 d0             	add    %rdx,%rax
   155ef:	c7 84 85 d0 f6 ff ff 	movl   $0xffffffff,-0x930(%rbp,%rax,4)
   155f6:	ff ff ff ff 
   155fa:	83 85 40 f5 ff ff 01 	addl   $0x1,-0xac0(%rbp)
   15601:	83 bd 40 f5 ff ff 00 	cmpl   $0x0,-0xac0(%rbp)
   15608:	7e d1                	jle    155db <func_39+0x47b>
   1560a:	83 85 3c f5 ff ff 01 	addl   $0x1,-0xac4(%rbp)
   15611:	83 bd 3c f5 ff ff 04 	cmpl   $0x4,-0xac4(%rbp)
   15618:	7e b5                	jle    155cf <func_39+0x46f>
   1561a:	48 8b 95 90 f5 ff ff 	mov    -0xa70(%rbp),%rdx
   15621:	48 8b 85 90 f6 ff ff 	mov    -0x970(%rbp),%rax
   15628:	48 89 10             	mov    %rdx,(%rax)
   1562b:	8b 05 e7 1d 01 00    	mov    0x11de7(%rip),%eax        # 27418 <g_860>
   15631:	83 c0 01             	add    $0x1,%eax
   15634:	89 05 de 1d 01 00    	mov    %eax,0x11dde(%rip)        # 27418 <g_860>
   1563a:	8b 05 d8 1d 01 00    	mov    0x11dd8(%rip),%eax        # 27418 <g_860>
   15640:	83 f8 06             	cmp    $0x6,%eax
   15643:	0f 86 d6 fd ff ff    	jbe    1541f <func_39+0x2bf>
   15649:	48 8b 95 40 f7 ff ff 	mov    -0x8c0(%rbp),%rdx
   15650:	48 8b 85 48 f7 ff ff 	mov    -0x8b8(%rbp),%rax
   15657:	48 39 c2             	cmp    %rax,%rdx
   1565a:	0f 95 c0             	setne  %al
   1565d:	0f b6 c0             	movzbl %al,%eax
   15660:	be 00 00 00 00       	mov    $0x0,%esi
   15665:	89 c7                	mov    %eax,%edi
   15667:	e8 68 ab ff ff       	callq  101d4 <safe_add_func_int8_t_s_s>
   1566c:	0f b6 8d 18 f5 ff ff 	movzbl -0xae8(%rbp),%ecx
   15673:	48 8b 15 16 60 01 00 	mov    0x16016(%rip),%rdx        # 2b690 <g_718>
   1567a:	48 8b 05 0f 60 01 00 	mov    0x1600f(%rip),%rax        # 2b690 <g_718>
   15681:	48 8b 12             	mov    (%rdx),%rdx
   15684:	48 89 10             	mov    %rdx,(%rax)
   15687:	48 8b 00             	mov    (%rax),%rax
   1568a:	48 85 c0             	test   %rax,%rax
   1568d:	0f 95 c0             	setne  %al
   15690:	0f b6 c0             	movzbl %al,%eax
   15693:	21 c1                	and    %eax,%ecx
   15695:	89 ca                	mov    %ecx,%edx
   15697:	48 8b 85 e8 f5 ff ff 	mov    -0xa18(%rbp),%rax
   1569e:	98                   	cwtl   
   1569f:	89 d6                	mov    %edx,%esi
   156a1:	89 c7                	mov    %eax,%edi
   156a3:	e8 ea ad ff ff       	callq  10492 <safe_lshift_func_int16_t_s_s>
   156a8:	66 85 c0             	test   %ax,%ax
   156ab:	0f 84 c6 0f 00 00    	je     16677 <func_39+0x1517>
   156b1:	c6 85 29 f5 ff ff bf 	movb   $0xbf,-0xad7(%rbp)
   156b8:	48 c7 85 40 f6 ff ff 	movq   $0x0,-0x9c0(%rbp)
   156bf:	00 00 00 00 
   156c3:	48 c7 85 10 f8 ff ff 	movq   $0x0,-0x7f0(%rbp)
   156ca:	00 00 00 00 
   156ce:	48 8d 05 f8 19 01 00 	lea    0x119f8(%rip),%rax        # 270cd <g_211+0x5>
   156d5:	48 89 85 18 f8 ff ff 	mov    %rax,-0x7e8(%rbp)
   156dc:	48 8d 05 ea 19 01 00 	lea    0x119ea(%rip),%rax        # 270cd <g_211+0x5>
   156e3:	48 89 85 20 f8 ff ff 	mov    %rax,-0x7e0(%rbp)
   156ea:	48 c7 85 28 f8 ff ff 	movq   $0x0,-0x7d8(%rbp)
   156f1:	00 00 00 00 
   156f5:	48 8d 05 cc 19 01 00 	lea    0x119cc(%rip),%rax        # 270c8 <g_211>
   156fc:	48 89 85 30 f8 ff ff 	mov    %rax,-0x7d0(%rbp)
   15703:	48 c7 85 38 f8 ff ff 	movq   $0x0,-0x7c8(%rbp)
   1570a:	00 00 00 00 
   1570e:	48 c7 85 40 f8 ff ff 	movq   $0x0,-0x7c0(%rbp)
   15715:	00 00 00 00 
   15719:	48 c7 85 48 f8 ff ff 	movq   $0x0,-0x7b8(%rbp)
   15720:	00 00 00 00 
   15724:	48 c7 85 50 f8 ff ff 	movq   $0x0,-0x7b0(%rbp)
   1572b:	00 00 00 00 
   1572f:	48 8d 05 62 1d 01 00 	lea    0x11d62(%rip),%rax        # 27498 <g_903>
   15736:	48 89 85 58 f8 ff ff 	mov    %rax,-0x7a8(%rbp)
   1573d:	48 c7 85 60 f8 ff ff 	movq   $0x0,-0x7a0(%rbp)
   15744:	00 00 00 00 
   15748:	48 8d 05 7e 19 01 00 	lea    0x1197e(%rip),%rax        # 270cd <g_211+0x5>
   1574f:	48 89 85 68 f8 ff ff 	mov    %rax,-0x798(%rbp)
   15756:	48 8d 05 70 19 01 00 	lea    0x11970(%rip),%rax        # 270cd <g_211+0x5>
   1575d:	48 89 85 70 f8 ff ff 	mov    %rax,-0x790(%rbp)
   15764:	48 c7 85 78 f8 ff ff 	movq   $0x0,-0x788(%rbp)
   1576b:	00 00 00 00 
   1576f:	48 8d 05 52 19 01 00 	lea    0x11952(%rip),%rax        # 270c8 <g_211>
   15776:	48 89 85 80 f8 ff ff 	mov    %rax,-0x780(%rbp)
   1577d:	48 c7 85 88 f8 ff ff 	movq   $0x0,-0x778(%rbp)
   15784:	00 00 00 00 
   15788:	48 c7 85 90 f8 ff ff 	movq   $0x0,-0x770(%rbp)
   1578f:	00 00 00 00 
   15793:	48 c7 85 98 f8 ff ff 	movq   $0x0,-0x768(%rbp)
   1579a:	00 00 00 00 
   1579e:	48 c7 85 a0 f8 ff ff 	movq   $0x0,-0x760(%rbp)
   157a5:	00 00 00 00 
   157a9:	48 8d 05 e8 1c 01 00 	lea    0x11ce8(%rip),%rax        # 27498 <g_903>
   157b0:	48 89 85 a8 f8 ff ff 	mov    %rax,-0x758(%rbp)
   157b7:	48 c7 85 b0 f8 ff ff 	movq   $0x0,-0x750(%rbp)
   157be:	00 00 00 00 
   157c2:	48 8d 05 04 19 01 00 	lea    0x11904(%rip),%rax        # 270cd <g_211+0x5>
   157c9:	48 89 85 b8 f8 ff ff 	mov    %rax,-0x748(%rbp)
   157d0:	48 8d 05 f6 18 01 00 	lea    0x118f6(%rip),%rax        # 270cd <g_211+0x5>
   157d7:	48 89 85 c0 f8 ff ff 	mov    %rax,-0x740(%rbp)
   157de:	48 c7 85 c8 f8 ff ff 	movq   $0x0,-0x738(%rbp)
   157e5:	00 00 00 00 
   157e9:	48 8d 05 d8 18 01 00 	lea    0x118d8(%rip),%rax        # 270c8 <g_211>
   157f0:	48 89 85 d0 f8 ff ff 	mov    %rax,-0x730(%rbp)
   157f7:	48 c7 85 d8 f8 ff ff 	movq   $0x0,-0x728(%rbp)
   157fe:	00 00 00 00 
   15802:	48 c7 85 e0 f8 ff ff 	movq   $0x0,-0x720(%rbp)
   15809:	00 00 00 00 
   1580d:	48 c7 85 e8 f8 ff ff 	movq   $0x0,-0x718(%rbp)
   15814:	00 00 00 00 
   15818:	48 c7 85 f0 f8 ff ff 	movq   $0x0,-0x710(%rbp)
   1581f:	00 00 00 00 
   15823:	48 8d 05 6e 1c 01 00 	lea    0x11c6e(%rip),%rax        # 27498 <g_903>
   1582a:	48 89 85 f8 f8 ff ff 	mov    %rax,-0x708(%rbp)
   15831:	48 8d 05 68 5e 01 00 	lea    0x15e68(%rip),%rax        # 2b6a0 <g_1006>
   15838:	48 89 85 48 f6 ff ff 	mov    %rax,-0x9b8(%rbp)
   1583f:	48 8d 05 c0 19 01 00 	lea    0x119c0(%rip),%rax        # 27206 <g_514>
   15846:	48 89 85 50 f6 ff ff 	mov    %rax,-0x9b0(%rbp)
   1584d:	48 8d 85 34 f5 ff ff 	lea    -0xacc(%rbp),%rax
   15854:	48 89 85 58 f6 ff ff 	mov    %rax,-0x9a8(%rbp)
   1585b:	48 8d 05 ae c8 00 00 	lea    0xc8ae(%rip),%rax        # 22110 <g_1630+0x10>
   15862:	48 89 85 b8 f5 ff ff 	mov    %rax,-0xa48(%rbp)
   15869:	48 8d 85 b8 f5 ff ff 	lea    -0xa48(%rbp),%rax
   15870:	48 89 85 60 f6 ff ff 	mov    %rax,-0x9a0(%rbp)
   15877:	48 c7 85 68 f6 ff ff 	movq   $0x1,-0x998(%rbp)
   1587e:	01 00 00 00 
   15882:	48 8d 05 1b 1c 01 00 	lea    0x11c1b(%rip),%rax        # 274a4 <g_994>
   15889:	48 89 85 00 f9 ff ff 	mov    %rax,-0x700(%rbp)
   15890:	48 c7 85 08 f9 ff ff 	movq   $0x0,-0x6f8(%rbp)
   15897:	00 00 00 00 
   1589b:	48 8d 05 24 18 01 00 	lea    0x11824(%rip),%rax        # 270c6 <g_192>
   158a2:	48 89 85 10 f9 ff ff 	mov    %rax,-0x6f0(%rbp)
   158a9:	48 8d 05 5c 19 01 00 	lea    0x1195c(%rip),%rax        # 2720c <g_544>
   158b0:	48 89 85 18 f9 ff ff 	mov    %rax,-0x6e8(%rbp)
   158b7:	48 8d 05 46 19 01 00 	lea    0x11946(%rip),%rax        # 27204 <g_512>
   158be:	48 89 85 20 f9 ff ff 	mov    %rax,-0x6e0(%rbp)
   158c5:	48 8d 05 38 19 01 00 	lea    0x11938(%rip),%rax        # 27204 <g_512>
   158cc:	48 89 85 28 f9 ff ff 	mov    %rax,-0x6d8(%rbp)
   158d3:	48 8d 05 ec 17 01 00 	lea    0x117ec(%rip),%rax        # 270c6 <g_192>
   158da:	48 89 85 30 f9 ff ff 	mov    %rax,-0x6d0(%rbp)
   158e1:	48 8d 05 de 17 01 00 	lea    0x117de(%rip),%rax        # 270c6 <g_192>
   158e8:	48 89 85 38 f9 ff ff 	mov    %rax,-0x6c8(%rbp)
   158ef:	48 8d 05 d0 17 01 00 	lea    0x117d0(%rip),%rax        # 270c6 <g_192>
   158f6:	48 89 85 40 f9 ff ff 	mov    %rax,-0x6c0(%rbp)
   158fd:	48 8d 05 08 19 01 00 	lea    0x11908(%rip),%rax        # 2720c <g_544>
   15904:	48 89 85 48 f9 ff ff 	mov    %rax,-0x6b8(%rbp)
   1590b:	48 8d 05 7e 1b 01 00 	lea    0x11b7e(%rip),%rax        # 27490 <g_899>
   15912:	48 89 85 50 f9 ff ff 	mov    %rax,-0x6b0(%rbp)
   15919:	48 8d 05 70 1b 01 00 	lea    0x11b70(%rip),%rax        # 27490 <g_899>
   15920:	48 89 85 58 f9 ff ff 	mov    %rax,-0x6a8(%rbp)
   15927:	48 8d 05 d6 18 01 00 	lea    0x118d6(%rip),%rax        # 27204 <g_512>
   1592e:	48 89 85 60 f9 ff ff 	mov    %rax,-0x6a0(%rbp)
   15935:	48 8d 05 8b 17 01 00 	lea    0x1178b(%rip),%rax        # 270c7 <g_202>
   1593c:	48 89 85 68 f9 ff ff 	mov    %rax,-0x698(%rbp)
   15943:	48 8d 05 5a 1b 01 00 	lea    0x11b5a(%rip),%rax        # 274a4 <g_994>
   1594a:	48 89 85 70 f9 ff ff 	mov    %rax,-0x690(%rbp)
   15951:	48 8d 05 4b 1b 01 00 	lea    0x11b4b(%rip),%rax        # 274a3 <g_992>
   15958:	48 89 85 78 f9 ff ff 	mov    %rax,-0x688(%rbp)
   1595f:	48 c7 85 80 f9 ff ff 	movq   $0x0,-0x680(%rbp)
   15966:	00 00 00 00 
   1596a:	48 8d 05 9b 18 01 00 	lea    0x1189b(%rip),%rax        # 2720c <g_544>
   15971:	48 89 85 88 f9 ff ff 	mov    %rax,-0x678(%rbp)
   15978:	48 8d 85 29 f5 ff ff 	lea    -0xad7(%rbp),%rax
   1597f:	48 89 85 90 f9 ff ff 	mov    %rax,-0x670(%rbp)
   15986:	48 8d 05 16 1b 01 00 	lea    0x11b16(%rip),%rax        # 274a3 <g_992>
   1598d:	48 89 85 98 f9 ff ff 	mov    %rax,-0x668(%rbp)
   15994:	48 8d 05 69 18 01 00 	lea    0x11869(%rip),%rax        # 27204 <g_512>
   1599b:	48 89 85 a0 f9 ff ff 	mov    %rax,-0x660(%rbp)
   159a2:	48 8d 05 f9 1a 01 00 	lea    0x11af9(%rip),%rax        # 274a2 <g_991>
   159a9:	48 89 85 a8 f9 ff ff 	mov    %rax,-0x658(%rbp)
   159b0:	48 8d 05 ed 1a 01 00 	lea    0x11aed(%rip),%rax        # 274a4 <g_994>
   159b7:	48 89 85 b0 f9 ff ff 	mov    %rax,-0x650(%rbp)
   159be:	48 8d 05 dd 1a 01 00 	lea    0x11add(%rip),%rax        # 274a2 <g_991>
   159c5:	48 89 85 b8 f9 ff ff 	mov    %rax,-0x648(%rbp)
   159cc:	48 8d 05 cf 1a 01 00 	lea    0x11acf(%rip),%rax        # 274a2 <g_991>
   159d3:	48 89 85 c0 f9 ff ff 	mov    %rax,-0x640(%rbp)
   159da:	48 8d 05 c2 1a 01 00 	lea    0x11ac2(%rip),%rax        # 274a3 <g_992>
   159e1:	48 89 85 c8 f9 ff ff 	mov    %rax,-0x638(%rbp)
   159e8:	48 c7 85 d0 f9 ff ff 	movq   $0x0,-0x630(%rbp)
   159ef:	00 00 00 00 
   159f3:	48 c7 85 d8 f9 ff ff 	movq   $0x0,-0x628(%rbp)
   159fa:	00 00 00 00 
   159fe:	48 c7 85 e0 f9 ff ff 	movq   $0x0,-0x620(%rbp)
   15a05:	00 00 00 00 
   15a09:	48 8d 85 29 f5 ff ff 	lea    -0xad7(%rbp),%rax
   15a10:	48 89 85 e8 f9 ff ff 	mov    %rax,-0x618(%rbp)
   15a17:	48 c7 85 f0 f9 ff ff 	movq   $0x0,-0x610(%rbp)
   15a1e:	00 00 00 00 
   15a22:	48 8d 05 9e 16 01 00 	lea    0x1169e(%rip),%rax        # 270c7 <g_202>
   15a29:	48 89 85 f8 f9 ff ff 	mov    %rax,-0x608(%rbp)
   15a30:	48 8d 85 29 f5 ff ff 	lea    -0xad7(%rbp),%rax
   15a37:	48 89 85 00 fa ff ff 	mov    %rax,-0x600(%rbp)
   15a3e:	48 8d 05 4b 1a 01 00 	lea    0x11a4b(%rip),%rax        # 27490 <g_899>
   15a45:	48 89 85 08 fa ff ff 	mov    %rax,-0x5f8(%rbp)
   15a4c:	48 8d 05 3d 1a 01 00 	lea    0x11a3d(%rip),%rax        # 27490 <g_899>
   15a53:	48 89 85 10 fa ff ff 	mov    %rax,-0x5f0(%rbp)
   15a5a:	48 c7 85 18 fa ff ff 	movq   $0x0,-0x5e8(%rbp)
   15a61:	00 00 00 00 
   15a65:	48 8d 05 5b 16 01 00 	lea    0x1165b(%rip),%rax        # 270c7 <g_202>
   15a6c:	48 89 85 20 fa ff ff 	mov    %rax,-0x5e0(%rbp)
   15a73:	48 8d 05 4c 16 01 00 	lea    0x1164c(%rip),%rax        # 270c6 <g_192>
   15a7a:	48 89 85 28 fa ff ff 	mov    %rax,-0x5d8(%rbp)
   15a81:	48 8d 05 08 1a 01 00 	lea    0x11a08(%rip),%rax        # 27490 <g_899>
   15a88:	48 89 85 30 fa ff ff 	mov    %rax,-0x5d0(%rbp)
   15a8f:	48 8d 05 6e 17 01 00 	lea    0x1176e(%rip),%rax        # 27204 <g_512>
   15a96:	48 89 85 38 fa ff ff 	mov    %rax,-0x5c8(%rbp)
   15a9d:	48 8d 05 60 17 01 00 	lea    0x11760(%rip),%rax        # 27204 <g_512>
   15aa4:	48 89 85 40 fa ff ff 	mov    %rax,-0x5c0(%rbp)
   15aab:	48 8d 05 14 16 01 00 	lea    0x11614(%rip),%rax        # 270c6 <g_192>
   15ab2:	48 89 85 48 fa ff ff 	mov    %rax,-0x5b8(%rbp)
   15ab9:	48 8d 05 06 16 01 00 	lea    0x11606(%rip),%rax        # 270c6 <g_192>
   15ac0:	48 89 85 50 fa ff ff 	mov    %rax,-0x5b0(%rbp)
   15ac7:	48 c7 85 58 fa ff ff 	movq   $0x0,-0x5a8(%rbp)
   15ace:	00 00 00 00 
   15ad2:	48 8d 05 ed 15 01 00 	lea    0x115ed(%rip),%rax        # 270c6 <g_192>
   15ad9:	48 89 85 60 fa ff ff 	mov    %rax,-0x5a0(%rbp)
   15ae0:	48 8d 05 bb 19 01 00 	lea    0x119bb(%rip),%rax        # 274a2 <g_991>
   15ae7:	48 89 85 68 fa ff ff 	mov    %rax,-0x598(%rbp)
   15aee:	48 c7 85 70 fa ff ff 	movq   $0x0,-0x590(%rbp)
   15af5:	00 00 00 00 
   15af9:	48 8d 85 29 f5 ff ff 	lea    -0xad7(%rbp),%rax
   15b00:	48 89 85 78 fa ff ff 	mov    %rax,-0x588(%rbp)
   15b07:	48 8d 05 82 19 01 00 	lea    0x11982(%rip),%rax        # 27490 <g_899>
   15b0e:	48 89 85 80 fa ff ff 	mov    %rax,-0x580(%rbp)
   15b15:	48 8d 05 aa 15 01 00 	lea    0x115aa(%rip),%rax        # 270c6 <g_192>
   15b1c:	48 89 85 88 fa ff ff 	mov    %rax,-0x578(%rbp)
   15b23:	48 8d 05 da 16 01 00 	lea    0x116da(%rip),%rax        # 27204 <g_512>
   15b2a:	48 89 85 90 fa ff ff 	mov    %rax,-0x570(%rbp)
   15b31:	48 8d 05 d4 16 01 00 	lea    0x116d4(%rip),%rax        # 2720c <g_544>
   15b38:	48 89 85 98 fa ff ff 	mov    %rax,-0x568(%rbp)
   15b3f:	48 8d 05 c6 16 01 00 	lea    0x116c6(%rip),%rax        # 2720c <g_544>
   15b46:	48 89 85 a0 fa ff ff 	mov    %rax,-0x560(%rbp)
   15b4d:	48 c7 85 a8 fa ff ff 	movq   $0x0,-0x558(%rbp)
   15b54:	00 00 00 00 
   15b58:	48 c7 85 b0 fa ff ff 	movq   $0x0,-0x550(%rbp)
   15b5f:	00 00 00 00 
   15b63:	48 8d 05 9a 16 01 00 	lea    0x1169a(%rip),%rax        # 27204 <g_512>
   15b6a:	48 89 85 b8 fa ff ff 	mov    %rax,-0x548(%rbp)
   15b71:	48 8d 05 8c 16 01 00 	lea    0x1168c(%rip),%rax        # 27204 <g_512>
   15b78:	48 89 85 c0 fa ff ff 	mov    %rax,-0x540(%rbp)
   15b7f:	48 8d 05 86 16 01 00 	lea    0x11686(%rip),%rax        # 2720c <g_544>
   15b86:	48 89 85 c8 fa ff ff 	mov    %rax,-0x538(%rbp)
   15b8d:	48 8d 05 0e 19 01 00 	lea    0x1190e(%rip),%rax        # 274a2 <g_991>
   15b94:	48 89 85 d0 fa ff ff 	mov    %rax,-0x530(%rbp)
   15b9b:	48 8d 05 6a 16 01 00 	lea    0x1166a(%rip),%rax        # 2720c <g_544>
   15ba2:	48 89 85 d8 fa ff ff 	mov    %rax,-0x528(%rbp)
   15ba9:	48 8d 05 17 15 01 00 	lea    0x11517(%rip),%rax        # 270c7 <g_202>
   15bb0:	48 89 85 e0 fa ff ff 	mov    %rax,-0x520(%rbp)
   15bb7:	48 8d 05 09 15 01 00 	lea    0x11509(%rip),%rax        # 270c7 <g_202>
   15bbe:	48 89 85 e8 fa ff ff 	mov    %rax,-0x518(%rbp)
   15bc5:	48 8d 05 c4 18 01 00 	lea    0x118c4(%rip),%rax        # 27490 <g_899>
   15bcc:	48 89 85 f0 fa ff ff 	mov    %rax,-0x510(%rbp)
   15bd3:	48 8d 05 ec 14 01 00 	lea    0x114ec(%rip),%rax        # 270c6 <g_192>
   15bda:	48 89 85 f8 fa ff ff 	mov    %rax,-0x508(%rbp)
   15be1:	48 8d 85 29 f5 ff ff 	lea    -0xad7(%rbp),%rax
   15be8:	48 89 85 00 fb ff ff 	mov    %rax,-0x500(%rbp)
   15bef:	48 8d 05 d1 14 01 00 	lea    0x114d1(%rip),%rax        # 270c7 <g_202>
   15bf6:	48 89 85 08 fb ff ff 	mov    %rax,-0x4f8(%rbp)
   15bfd:	48 8d 05 9e 18 01 00 	lea    0x1189e(%rip),%rax        # 274a2 <g_991>
   15c04:	48 89 85 10 fb ff ff 	mov    %rax,-0x4f0(%rbp)
   15c0b:	48 8d 05 f2 15 01 00 	lea    0x115f2(%rip),%rax        # 27204 <g_512>
   15c12:	48 89 85 18 fb ff ff 	mov    %rax,-0x4e8(%rbp)
   15c19:	48 8d 05 a6 14 01 00 	lea    0x114a6(%rip),%rax        # 270c6 <g_192>
   15c20:	48 89 85 20 fb ff ff 	mov    %rax,-0x4e0(%rbp)
   15c27:	48 8d 05 98 14 01 00 	lea    0x11498(%rip),%rax        # 270c6 <g_192>
   15c2e:	48 89 85 28 fb ff ff 	mov    %rax,-0x4d8(%rbp)
   15c35:	48 8d 05 d0 15 01 00 	lea    0x115d0(%rip),%rax        # 2720c <g_544>
   15c3c:	48 89 85 30 fb ff ff 	mov    %rax,-0x4d0(%rbp)
   15c43:	48 8d 05 58 18 01 00 	lea    0x11858(%rip),%rax        # 274a2 <g_991>
   15c4a:	48 89 85 38 fb ff ff 	mov    %rax,-0x4c8(%rbp)
   15c51:	48 8d 05 4a 18 01 00 	lea    0x1184a(%rip),%rax        # 274a2 <g_991>
   15c58:	48 89 85 40 fb ff ff 	mov    %rax,-0x4c0(%rbp)
   15c5f:	48 c7 85 48 fb ff ff 	movq   $0x0,-0x4b8(%rbp)
   15c66:	00 00 00 00 
   15c6a:	48 c7 85 50 fb ff ff 	movq   $0x0,-0x4b0(%rbp)
   15c71:	00 00 00 00 
   15c75:	48 8d 05 4a 14 01 00 	lea    0x1144a(%rip),%rax        # 270c6 <g_192>
   15c7c:	48 89 85 58 fb ff ff 	mov    %rax,-0x4a8(%rbp)
   15c83:	48 8d 05 3c 14 01 00 	lea    0x1143c(%rip),%rax        # 270c6 <g_192>
   15c8a:	48 89 85 60 fb ff ff 	mov    %rax,-0x4a0(%rbp)
   15c91:	48 8d 85 29 f5 ff ff 	lea    -0xad7(%rbp),%rax
   15c98:	48 89 85 68 fb ff ff 	mov    %rax,-0x498(%rbp)
   15c9f:	48 8d 05 21 14 01 00 	lea    0x11421(%rip),%rax        # 270c7 <g_202>
   15ca6:	48 89 85 70 fb ff ff 	mov    %rax,-0x490(%rbp)
   15cad:	48 8d 05 13 14 01 00 	lea    0x11413(%rip),%rax        # 270c7 <g_202>
   15cb4:	48 89 85 78 fb ff ff 	mov    %rax,-0x488(%rbp)
   15cbb:	48 8d 05 04 14 01 00 	lea    0x11404(%rip),%rax        # 270c6 <g_192>
   15cc2:	48 89 85 80 fb ff ff 	mov    %rax,-0x480(%rbp)
   15cc9:	48 8d 05 3c 15 01 00 	lea    0x1153c(%rip),%rax        # 2720c <g_544>
   15cd0:	48 89 85 88 fb ff ff 	mov    %rax,-0x478(%rbp)
   15cd7:	48 8d 05 c5 17 01 00 	lea    0x117c5(%rip),%rax        # 274a3 <g_992>
   15cde:	48 89 85 90 fb ff ff 	mov    %rax,-0x470(%rbp)
   15ce5:	48 8d 05 b8 17 01 00 	lea    0x117b8(%rip),%rax        # 274a4 <g_994>
   15cec:	48 89 85 98 fb ff ff 	mov    %rax,-0x468(%rbp)
   15cf3:	48 c7 85 a0 fb ff ff 	movq   $0x0,-0x460(%rbp)
   15cfa:	00 00 00 00 
   15cfe:	48 c7 85 a8 fb ff ff 	movq   $0x0,-0x458(%rbp)
   15d05:	00 00 00 00 
   15d09:	48 8d 05 92 17 01 00 	lea    0x11792(%rip),%rax        # 274a2 <g_991>
   15d10:	48 89 85 b0 fb ff ff 	mov    %rax,-0x450(%rbp)
   15d17:	48 8d 05 ee 14 01 00 	lea    0x114ee(%rip),%rax        # 2720c <g_544>
   15d1e:	48 89 85 b8 fb ff ff 	mov    %rax,-0x448(%rbp)
   15d25:	48 8d 85 29 f5 ff ff 	lea    -0xad7(%rbp),%rax
   15d2c:	48 89 85 c0 fb ff ff 	mov    %rax,-0x440(%rbp)
   15d33:	48 8d 05 6a 17 01 00 	lea    0x1176a(%rip),%rax        # 274a4 <g_994>
   15d3a:	48 89 85 c8 fb ff ff 	mov    %rax,-0x438(%rbp)
   15d41:	48 8d 05 48 17 01 00 	lea    0x11748(%rip),%rax        # 27490 <g_899>
   15d48:	48 89 85 d0 fb ff ff 	mov    %rax,-0x430(%rbp)
   15d4f:	48 c7 85 d8 fb ff ff 	movq   $0x0,-0x428(%rbp)
   15d56:	00 00 00 00 
   15d5a:	48 8d 05 41 17 01 00 	lea    0x11741(%rip),%rax        # 274a2 <g_991>
   15d61:	48 89 85 e0 fb ff ff 	mov    %rax,-0x420(%rbp)
   15d68:	48 8d 05 33 17 01 00 	lea    0x11733(%rip),%rax        # 274a2 <g_991>
   15d6f:	48 89 85 e8 fb ff ff 	mov    %rax,-0x418(%rbp)
   15d76:	48 8d 05 25 17 01 00 	lea    0x11725(%rip),%rax        # 274a2 <g_991>
   15d7d:	48 89 85 f0 fb ff ff 	mov    %rax,-0x410(%rbp)
   15d84:	48 8d 85 29 f5 ff ff 	lea    -0xad7(%rbp),%rax
   15d8b:	48 89 85 f8 fb ff ff 	mov    %rax,-0x408(%rbp)
   15d92:	48 8d 05 2d 13 01 00 	lea    0x1132d(%rip),%rax        # 270c6 <g_192>
   15d99:	48 89 85 00 fc ff ff 	mov    %rax,-0x400(%rbp)
   15da0:	48 8d 05 5d 14 01 00 	lea    0x1145d(%rip),%rax        # 27204 <g_512>
   15da7:	48 89 85 08 fc ff ff 	mov    %rax,-0x3f8(%rbp)
   15dae:	48 c7 85 10 fc ff ff 	movq   $0x0,-0x3f0(%rbp)
   15db5:	00 00 00 00 
   15db9:	48 8d 05 44 14 01 00 	lea    0x11444(%rip),%rax        # 27204 <g_512>
   15dc0:	48 89 85 18 fc ff ff 	mov    %rax,-0x3e8(%rbp)
   15dc7:	48 8d 05 3e 14 01 00 	lea    0x1143e(%rip),%rax        # 2720c <g_544>
   15dce:	48 89 85 20 fc ff ff 	mov    %rax,-0x3e0(%rbp)
   15dd5:	48 8d 05 b4 16 01 00 	lea    0x116b4(%rip),%rax        # 27490 <g_899>
   15ddc:	48 89 85 28 fc ff ff 	mov    %rax,-0x3d8(%rbp)
   15de3:	48 8d 05 dd 12 01 00 	lea    0x112dd(%rip),%rax        # 270c7 <g_202>
   15dea:	48 89 85 30 fc ff ff 	mov    %rax,-0x3d0(%rbp)
   15df1:	48 c7 85 38 fc ff ff 	movq   $0x0,-0x3c8(%rbp)
   15df8:	00 00 00 00 
   15dfc:	48 c7 85 40 fc ff ff 	movq   $0x0,-0x3c0(%rbp)
   15e03:	00 00 00 00 
   15e07:	48 8d 05 82 16 01 00 	lea    0x11682(%rip),%rax        # 27490 <g_899>
   15e0e:	48 89 85 48 fc ff ff 	mov    %rax,-0x3b8(%rbp)
   15e15:	48 8d 05 74 16 01 00 	lea    0x11674(%rip),%rax        # 27490 <g_899>
   15e1c:	48 89 85 50 fc ff ff 	mov    %rax,-0x3b0(%rbp)
   15e23:	48 8d 85 29 f5 ff ff 	lea    -0xad7(%rbp),%rax
   15e2a:	48 89 85 58 fc ff ff 	mov    %rax,-0x3a8(%rbp)
   15e31:	48 c7 85 60 fc ff ff 	movq   $0x0,-0x3a0(%rbp)
   15e38:	00 00 00 00 
   15e3c:	48 c7 85 68 fc ff ff 	movq   $0x0,-0x398(%rbp)
   15e43:	00 00 00 00 
   15e47:	48 8d 05 55 16 01 00 	lea    0x11655(%rip),%rax        # 274a3 <g_992>
   15e4e:	48 89 85 70 fc ff ff 	mov    %rax,-0x390(%rbp)
   15e55:	48 c7 85 78 fc ff ff 	movq   $0x0,-0x388(%rbp)
   15e5c:	00 00 00 00 
   15e60:	48 8d 05 60 12 01 00 	lea    0x11260(%rip),%rax        # 270c7 <g_202>
   15e67:	48 89 85 80 fc ff ff 	mov    %rax,-0x380(%rbp)
   15e6e:	48 8d 85 29 f5 ff ff 	lea    -0xad7(%rbp),%rax
   15e75:	48 89 85 88 fc ff ff 	mov    %rax,-0x378(%rbp)
   15e7c:	48 8d 05 1f 16 01 00 	lea    0x1161f(%rip),%rax        # 274a2 <g_991>
   15e83:	48 89 85 90 fc ff ff 	mov    %rax,-0x370(%rbp)
   15e8a:	48 c7 85 98 fc ff ff 	movq   $0x0,-0x368(%rbp)
   15e91:	00 00 00 00 
   15e95:	48 8d 05 2b 12 01 00 	lea    0x1122b(%rip),%rax        # 270c7 <g_202>
   15e9c:	48 89 85 a0 fc ff ff 	mov    %rax,-0x360(%rbp)
   15ea3:	48 8d 05 f8 15 01 00 	lea    0x115f8(%rip),%rax        # 274a2 <g_991>
   15eaa:	48 89 85 a8 fc ff ff 	mov    %rax,-0x358(%rbp)
   15eb1:	48 c7 85 b0 fc ff ff 	movq   $0x0,-0x350(%rbp)
   15eb8:	00 00 00 00 
   15ebc:	48 8d 85 29 f5 ff ff 	lea    -0xad7(%rbp),%rax
   15ec3:	48 89 85 b8 fc ff ff 	mov    %rax,-0x348(%rbp)
   15eca:	48 8d 85 29 f5 ff ff 	lea    -0xad7(%rbp),%rax
   15ed1:	48 89 85 c0 fc ff ff 	mov    %rax,-0x340(%rbp)
   15ed8:	48 8d 05 b1 15 01 00 	lea    0x115b1(%rip),%rax        # 27490 <g_899>
   15edf:	48 89 85 c8 fc ff ff 	mov    %rax,-0x338(%rbp)
   15ee6:	48 8d 05 b6 15 01 00 	lea    0x115b6(%rip),%rax        # 274a3 <g_992>
   15eed:	48 89 85 d0 fc ff ff 	mov    %rax,-0x330(%rbp)
   15ef4:	48 8d 05 a8 15 01 00 	lea    0x115a8(%rip),%rax        # 274a3 <g_992>
   15efb:	48 89 85 d8 fc ff ff 	mov    %rax,-0x328(%rbp)
   15f02:	48 c7 85 e0 fc ff ff 	movq   $0x0,-0x320(%rbp)
   15f09:	00 00 00 00 
   15f0d:	48 8d 85 29 f5 ff ff 	lea    -0xad7(%rbp),%rax
   15f14:	48 89 85 e8 fc ff ff 	mov    %rax,-0x318(%rbp)
   15f1b:	48 8d 05 e2 12 01 00 	lea    0x112e2(%rip),%rax        # 27204 <g_512>
   15f22:	48 89 85 f0 fc ff ff 	mov    %rax,-0x310(%rbp)
   15f29:	48 8d 05 d4 12 01 00 	lea    0x112d4(%rip),%rax        # 27204 <g_512>
   15f30:	48 89 85 f8 fc ff ff 	mov    %rax,-0x308(%rbp)
   15f37:	48 8d 05 88 11 01 00 	lea    0x11188(%rip),%rax        # 270c6 <g_192>
   15f3e:	48 89 85 00 fd ff ff 	mov    %rax,-0x300(%rbp)
   15f45:	48 c7 85 08 fd ff ff 	movq   $0x0,-0x2f8(%rbp)
   15f4c:	00 00 00 00 
   15f50:	48 8d 05 39 15 01 00 	lea    0x11539(%rip),%rax        # 27490 <g_899>
   15f57:	48 89 85 10 fd ff ff 	mov    %rax,-0x2f0(%rbp)
   15f5e:	48 8d 05 2b 15 01 00 	lea    0x1152b(%rip),%rax        # 27490 <g_899>
   15f65:	48 89 85 18 fd ff ff 	mov    %rax,-0x2e8(%rbp)
   15f6c:	48 8d 05 91 12 01 00 	lea    0x11291(%rip),%rax        # 27204 <g_512>
   15f73:	48 89 85 20 fd ff ff 	mov    %rax,-0x2e0(%rbp)
   15f7a:	48 8d 05 22 15 01 00 	lea    0x11522(%rip),%rax        # 274a3 <g_992>
   15f81:	48 89 85 28 fd ff ff 	mov    %rax,-0x2d8(%rbp)
   15f88:	48 8d 05 38 11 01 00 	lea    0x11138(%rip),%rax        # 270c7 <g_202>
   15f8f:	48 89 85 30 fd ff ff 	mov    %rax,-0x2d0(%rbp)
   15f96:	48 8d 05 2a 11 01 00 	lea    0x1112a(%rip),%rax        # 270c7 <g_202>
   15f9d:	48 89 85 38 fd ff ff 	mov    %rax,-0x2c8(%rbp)
   15fa4:	48 8d 05 61 12 01 00 	lea    0x11261(%rip),%rax        # 2720c <g_544>
   15fab:	48 89 85 40 fd ff ff 	mov    %rax,-0x2c0(%rbp)
   15fb2:	48 8d 05 4b 12 01 00 	lea    0x1124b(%rip),%rax        # 27204 <g_512>
   15fb9:	48 89 85 48 fd ff ff 	mov    %rax,-0x2b8(%rbp)
   15fc0:	48 8d 05 00 11 01 00 	lea    0x11100(%rip),%rax        # 270c7 <g_202>
   15fc7:	48 89 85 50 fd ff ff 	mov    %rax,-0x2b0(%rbp)
   15fce:	48 8d 05 f2 10 01 00 	lea    0x110f2(%rip),%rax        # 270c7 <g_202>
   15fd5:	48 89 85 58 fd ff ff 	mov    %rax,-0x2a8(%rbp)
   15fdc:	48 8d 05 c1 14 01 00 	lea    0x114c1(%rip),%rax        # 274a4 <g_994>
   15fe3:	48 89 85 60 fd ff ff 	mov    %rax,-0x2a0(%rbp)
   15fea:	48 8d 05 d6 10 01 00 	lea    0x110d6(%rip),%rax        # 270c7 <g_202>
   15ff1:	48 89 85 68 fd ff ff 	mov    %rax,-0x298(%rbp)
   15ff8:	48 c7 85 70 fd ff ff 	movq   $0x0,-0x290(%rbp)
   15fff:	00 00 00 00 
   16003:	48 8d 05 bc 10 01 00 	lea    0x110bc(%rip),%rax        # 270c6 <g_192>
   1600a:	48 89 85 78 fd ff ff 	mov    %rax,-0x288(%rbp)
   16011:	48 c7 85 80 fd ff ff 	movq   $0x0,-0x280(%rbp)
   16018:	00 00 00 00 
   1601c:	48 8d 05 a3 10 01 00 	lea    0x110a3(%rip),%rax        # 270c6 <g_192>
   16023:	48 89 85 88 fd ff ff 	mov    %rax,-0x278(%rbp)
   1602a:	48 8d 05 71 14 01 00 	lea    0x11471(%rip),%rax        # 274a2 <g_991>
   16031:	48 89 85 90 fd ff ff 	mov    %rax,-0x270(%rbp)
   16038:	48 8d 05 87 10 01 00 	lea    0x11087(%rip),%rax        # 270c6 <g_192>
   1603f:	48 89 85 98 fd ff ff 	mov    %rax,-0x268(%rbp)
   16046:	48 8d 05 b7 11 01 00 	lea    0x111b7(%rip),%rax        # 27204 <g_512>
   1604d:	48 89 85 a0 fd ff ff 	mov    %rax,-0x260(%rbp)
   16054:	48 c7 85 a8 fd ff ff 	movq   $0x0,-0x258(%rbp)
   1605b:	00 00 00 00 
   1605f:	48 8d 05 3d 14 01 00 	lea    0x1143d(%rip),%rax        # 274a3 <g_992>
   16066:	48 89 85 b0 fd ff ff 	mov    %rax,-0x250(%rbp)
   1606d:	48 8d 05 90 11 01 00 	lea    0x11190(%rip),%rax        # 27204 <g_512>
   16074:	48 89 85 b8 fd ff ff 	mov    %rax,-0x248(%rbp)
   1607b:	48 8d 05 82 11 01 00 	lea    0x11182(%rip),%rax        # 27204 <g_512>
   16082:	48 89 85 c0 fd ff ff 	mov    %rax,-0x240(%rbp)
   16089:	48 8d 85 29 f5 ff ff 	lea    -0xad7(%rbp),%rax
   16090:	48 89 85 c8 fd ff ff 	mov    %rax,-0x238(%rbp)
   16097:	48 8d 05 29 10 01 00 	lea    0x11029(%rip),%rax        # 270c7 <g_202>
   1609e:	48 89 85 d0 fd ff ff 	mov    %rax,-0x230(%rbp)
   160a5:	48 8d 05 1b 10 01 00 	lea    0x1101b(%rip),%rax        # 270c7 <g_202>
   160ac:	48 89 85 d8 fd ff ff 	mov    %rax,-0x228(%rbp)
   160b3:	48 8d 05 d6 13 01 00 	lea    0x113d6(%rip),%rax        # 27490 <g_899>
   160ba:	48 89 85 e0 fd ff ff 	mov    %rax,-0x220(%rbp)
   160c1:	48 8d 05 c8 13 01 00 	lea    0x113c8(%rip),%rax        # 27490 <g_899>
   160c8:	48 89 85 e8 fd ff ff 	mov    %rax,-0x218(%rbp)
   160cf:	48 8d 05 f1 0f 01 00 	lea    0x10ff1(%rip),%rax        # 270c7 <g_202>
   160d6:	48 89 85 f0 fd ff ff 	mov    %rax,-0x210(%rbp)
   160dd:	48 8d 05 c0 13 01 00 	lea    0x113c0(%rip),%rax        # 274a4 <g_994>
   160e4:	48 89 85 f8 fd ff ff 	mov    %rax,-0x208(%rbp)
   160eb:	48 8d 05 b0 13 01 00 	lea    0x113b0(%rip),%rax        # 274a2 <g_991>
   160f2:	48 89 85 00 fe ff ff 	mov    %rax,-0x200(%rbp)
   160f9:	48 8d 85 29 f5 ff ff 	lea    -0xad7(%rbp),%rax
   16100:	48 89 85 08 fe ff ff 	mov    %rax,-0x1f8(%rbp)
   16107:	48 8d 05 f6 10 01 00 	lea    0x110f6(%rip),%rax        # 27204 <g_512>
   1610e:	48 89 85 10 fe ff ff 	mov    %rax,-0x1f0(%rbp)
   16115:	48 8d 05 e8 10 01 00 	lea    0x110e8(%rip),%rax        # 27204 <g_512>
   1611c:	48 89 85 18 fe ff ff 	mov    %rax,-0x1e8(%rbp)
   16123:	48 8d 85 29 f5 ff ff 	lea    -0xad7(%rbp),%rax
   1612a:	48 89 85 20 fe ff ff 	mov    %rax,-0x1e0(%rbp)
   16131:	48 8d 05 8f 0f 01 00 	lea    0x10f8f(%rip),%rax        # 270c7 <g_202>
   16138:	48 89 85 28 fe ff ff 	mov    %rax,-0x1d8(%rbp)
   1613f:	48 8d 05 5c 13 01 00 	lea    0x1135c(%rip),%rax        # 274a2 <g_991>
   16146:	48 89 85 30 fe ff ff 	mov    %rax,-0x1d0(%rbp)
   1614d:	48 c7 85 38 fe ff ff 	movq   $0x0,-0x1c8(%rbp)
   16154:	00 00 00 00 
   16158:	48 8d 05 44 13 01 00 	lea    0x11344(%rip),%rax        # 274a3 <g_992>
   1615f:	48 89 85 40 fe ff ff 	mov    %rax,-0x1c0(%rbp)
   16166:	48 8d 05 23 13 01 00 	lea    0x11323(%rip),%rax        # 27490 <g_899>
   1616d:	48 89 85 48 fe ff ff 	mov    %rax,-0x1b8(%rbp)
   16174:	48 8d 05 27 13 01 00 	lea    0x11327(%rip),%rax        # 274a2 <g_991>
   1617b:	48 89 85 50 fe ff ff 	mov    %rax,-0x1b0(%rbp)
   16182:	48 8d 05 83 10 01 00 	lea    0x11083(%rip),%rax        # 2720c <g_544>
   16189:	48 89 85 58 fe ff ff 	mov    %rax,-0x1a8(%rbp)
   16190:	48 8d 05 30 0f 01 00 	lea    0x10f30(%rip),%rax        # 270c7 <g_202>
   16197:	48 89 85 60 fe ff ff 	mov    %rax,-0x1a0(%rbp)
   1619e:	48 8d 05 22 0f 01 00 	lea    0x10f22(%rip),%rax        # 270c7 <g_202>
   161a5:	48 89 85 68 fe ff ff 	mov    %rax,-0x198(%rbp)
   161ac:	48 8d 05 14 0f 01 00 	lea    0x10f14(%rip),%rax        # 270c7 <g_202>
   161b3:	48 89 85 70 fe ff ff 	mov    %rax,-0x190(%rbp)
   161ba:	48 8d 05 43 10 01 00 	lea    0x11043(%rip),%rax        # 27204 <g_512>
   161c1:	48 89 85 78 fe ff ff 	mov    %rax,-0x188(%rbp)
   161c8:	48 8d 05 d4 12 01 00 	lea    0x112d4(%rip),%rax        # 274a3 <g_992>
   161cf:	48 89 85 80 fe ff ff 	mov    %rax,-0x180(%rbp)
   161d6:	48 8d 05 ea 0e 01 00 	lea    0x10eea(%rip),%rax        # 270c7 <g_202>
   161dd:	48 89 85 88 fe ff ff 	mov    %rax,-0x178(%rbp)
   161e4:	48 8d 05 19 10 01 00 	lea    0x11019(%rip),%rax        # 27204 <g_512>
   161eb:	48 89 85 90 fe ff ff 	mov    %rax,-0x170(%rbp)
   161f2:	48 8d 05 cd 0e 01 00 	lea    0x10ecd(%rip),%rax        # 270c6 <g_192>
   161f9:	48 89 85 98 fe ff ff 	mov    %rax,-0x168(%rbp)
   16200:	48 8d 05 05 10 01 00 	lea    0x11005(%rip),%rax        # 2720c <g_544>
   16207:	48 89 85 a0 fe ff ff 	mov    %rax,-0x160(%rbp)
   1620e:	48 8d 05 b1 0e 01 00 	lea    0x10eb1(%rip),%rax        # 270c6 <g_192>
   16215:	48 89 85 a8 fe ff ff 	mov    %rax,-0x158(%rbp)
   1621c:	48 8d 05 a4 0e 01 00 	lea    0x10ea4(%rip),%rax        # 270c7 <g_202>
   16223:	48 89 85 b0 fe ff ff 	mov    %rax,-0x150(%rbp)
   1622a:	48 8d 05 95 0e 01 00 	lea    0x10e95(%rip),%rax        # 270c6 <g_192>
   16231:	48 89 85 b8 fe ff ff 	mov    %rax,-0x148(%rbp)
   16238:	48 c7 85 c0 fe ff ff 	movq   $0x0,-0x140(%rbp)
   1623f:	00 00 00 00 
   16243:	48 8d 05 ba 0f 01 00 	lea    0x10fba(%rip),%rax        # 27204 <g_512>
   1624a:	48 89 85 c8 fe ff ff 	mov    %rax,-0x138(%rbp)
   16251:	48 c7 85 d0 fe ff ff 	movq   $0x0,-0x130(%rbp)
   16258:	00 00 00 00 
   1625c:	48 8d 05 64 0e 01 00 	lea    0x10e64(%rip),%rax        # 270c7 <g_202>
   16263:	48 89 85 d8 fe ff ff 	mov    %rax,-0x128(%rbp)
   1626a:	48 8d 85 29 f5 ff ff 	lea    -0xad7(%rbp),%rax
   16271:	48 89 85 e0 fe ff ff 	mov    %rax,-0x120(%rbp)
   16278:	48 8d 05 47 0e 01 00 	lea    0x10e47(%rip),%rax        # 270c6 <g_192>
   1627f:	48 89 85 e8 fe ff ff 	mov    %rax,-0x118(%rbp)
   16286:	48 8d 05 7f 0f 01 00 	lea    0x10f7f(%rip),%rax        # 2720c <g_544>
   1628d:	48 89 85 f0 fe ff ff 	mov    %rax,-0x110(%rbp)
   16294:	48 8d 05 f5 11 01 00 	lea    0x111f5(%rip),%rax        # 27490 <g_899>
   1629b:	48 89 85 f8 fe ff ff 	mov    %rax,-0x108(%rbp)
   162a2:	48 c7 85 00 ff ff ff 	movq   $0x0,-0x100(%rbp)
   162a9:	00 00 00 00 
   162ad:	48 8d 05 ef 11 01 00 	lea    0x111ef(%rip),%rax        # 274a3 <g_992>
   162b4:	48 89 85 08 ff ff ff 	mov    %rax,-0xf8(%rbp)
   162bb:	48 c7 85 10 ff ff ff 	movq   $0x0,-0xf0(%rbp)
   162c2:	00 00 00 00 
   162c6:	48 8d 05 3f 0f 01 00 	lea    0x10f3f(%rip),%rax        # 2720c <g_544>
   162cd:	48 89 85 18 ff ff ff 	mov    %rax,-0xe8(%rbp)
   162d4:	48 8d 05 b5 11 01 00 	lea    0x111b5(%rip),%rax        # 27490 <g_899>
   162db:	48 89 85 20 ff ff ff 	mov    %rax,-0xe0(%rbp)
   162e2:	48 8d 05 de 0d 01 00 	lea    0x10dde(%rip),%rax        # 270c7 <g_202>
   162e9:	48 89 85 28 ff ff ff 	mov    %rax,-0xd8(%rbp)
   162f0:	48 8d 05 d0 0d 01 00 	lea    0x10dd0(%rip),%rax        # 270c7 <g_202>
   162f7:	48 89 85 30 ff ff ff 	mov    %rax,-0xd0(%rbp)
   162fe:	48 8d 05 ff 0e 01 00 	lea    0x10eff(%rip),%rax        # 27204 <g_512>
   16305:	48 89 85 38 ff ff ff 	mov    %rax,-0xc8(%rbp)
   1630c:	48 8d 05 b4 0d 01 00 	lea    0x10db4(%rip),%rax        # 270c7 <g_202>
   16313:	48 89 85 40 ff ff ff 	mov    %rax,-0xc0(%rbp)
   1631a:	48 8d 05 6f 11 01 00 	lea    0x1116f(%rip),%rax        # 27490 <g_899>
   16321:	48 89 85 48 ff ff ff 	mov    %rax,-0xb8(%rbp)
   16328:	48 8d 05 97 0d 01 00 	lea    0x10d97(%rip),%rax        # 270c6 <g_192>
   1632f:	48 89 85 50 ff ff ff 	mov    %rax,-0xb0(%rbp)
   16336:	48 8d 05 c7 0e 01 00 	lea    0x10ec7(%rip),%rax        # 27204 <g_512>
   1633d:	48 89 85 58 ff ff ff 	mov    %rax,-0xa8(%rbp)
   16344:	48 8d 05 b9 0e 01 00 	lea    0x10eb9(%rip),%rax        # 27204 <g_512>
   1634b:	48 89 85 60 ff ff ff 	mov    %rax,-0xa0(%rbp)
   16352:	48 8d 05 49 11 01 00 	lea    0x11149(%rip),%rax        # 274a2 <g_991>
   16359:	48 89 85 68 ff ff ff 	mov    %rax,-0x98(%rbp)
   16360:	48 8d 05 29 11 01 00 	lea    0x11129(%rip),%rax        # 27490 <g_899>
   16367:	48 89 85 70 ff ff ff 	mov    %rax,-0x90(%rbp)
   1636e:	48 8d 85 29 f5 ff ff 	lea    -0xad7(%rbp),%rax
   16375:	48 89 85 78 ff ff ff 	mov    %rax,-0x88(%rbp)
   1637c:	48 8d 05 44 0d 01 00 	lea    0x10d44(%rip),%rax        # 270c7 <g_202>
   16383:	48 89 45 80          	mov    %rax,-0x80(%rbp)
   16387:	48 8d 05 7e 0e 01 00 	lea    0x10e7e(%rip),%rax        # 2720c <g_544>
   1638e:	48 89 45 88          	mov    %rax,-0x78(%rbp)
   16392:	48 8d 05 2d 0d 01 00 	lea    0x10d2d(%rip),%rax        # 270c6 <g_192>
   16399:	48 89 45 90          	mov    %rax,-0x70(%rbp)
   1639d:	48 8d 05 23 0d 01 00 	lea    0x10d23(%rip),%rax        # 270c7 <g_202>
   163a4:	48 89 45 98          	mov    %rax,-0x68(%rbp)
   163a8:	48 8d 05 55 0e 01 00 	lea    0x10e55(%rip),%rax        # 27204 <g_512>
   163af:	48 89 45 a0          	mov    %rax,-0x60(%rbp)
   163b3:	48 8d 85 29 f5 ff ff 	lea    -0xad7(%rbp),%rax
   163ba:	48 89 45 a8          	mov    %rax,-0x58(%rbp)
   163be:	48 8d 05 47 0e 01 00 	lea    0x10e47(%rip),%rax        # 2720c <g_544>
   163c5:	48 89 45 b0          	mov    %rax,-0x50(%rbp)
   163c9:	48 8d 05 c0 10 01 00 	lea    0x110c0(%rip),%rax        # 27490 <g_899>
   163d0:	48 89 45 b8          	mov    %rax,-0x48(%rbp)
   163d4:	c7 85 80 f5 ff ff cc 	movl   $0xdee7eecc,-0xa80(%rbp)
   163db:	ee e7 de 
   163de:	c7 85 84 f5 ff ff 01 	movl   $0x1,-0xa7c(%rbp)
   163e5:	00 00 00 
   163e8:	48 8d 05 49 10 01 00 	lea    0x11049(%rip),%rax        # 27438 <g_888>
   163ef:	48 89 85 70 f6 ff ff 	mov    %rax,-0x990(%rbp)
   163f6:	48 c7 85 78 f6 ff ff 	movq   $0x0,-0x988(%rbp)
   163fd:	00 00 00 00 
   16401:	48 c7 85 80 f6 ff ff 	movq   $0x0,-0x980(%rbp)
   16408:	00 00 00 00 
   1640c:	48 8d 05 3d 0c 01 00 	lea    0x10c3d(%rip),%rax        # 27050 <g_87>
   16413:	48 89 85 88 f6 ff ff 	mov    %rax,-0x978(%rbp)
   1641a:	0f b6 85 29 f5 ff ff 	movzbl -0xad7(%rbp),%eax
   16421:	66 98                	cbtw   
   16423:	0f b7 d0             	movzwl %ax,%edx
   16426:	0f b6 85 29 f5 ff ff 	movzbl -0xad7(%rbp),%eax
   1642d:	88 05 95 0c 01 00    	mov    %al,0x10c95(%rip)        # 270c8 <g_211>
   16433:	0f b6 05 8e 0c 01 00 	movzbl 0x10c8e(%rip),%eax        # 270c8 <g_211>
   1643a:	84 c0                	test   %al,%al
   1643c:	75 0a                	jne    16448 <func_39+0x12e8>
   1643e:	48 83 bd 48 f6 ff ff 	cmpq   $0x0,-0x9b8(%rbp)
   16445:	00 
   16446:	74 07                	je     1644f <func_39+0x12ef>
   16448:	b8 01 00 00 00       	mov    $0x1,%eax
   1644d:	eb 05                	jmp    16454 <func_39+0x12f4>
   1644f:	b8 00 00 00 00       	mov    $0x0,%eax
   16454:	89 c1                	mov    %eax,%ecx
   16456:	48 8b 85 50 f6 ff ff 	mov    -0x9b0(%rbp),%rax
   1645d:	66 89 08             	mov    %cx,(%rax)
   16460:	48 8b 85 50 f6 ff ff 	mov    -0x9b0(%rbp),%rax
   16467:	0f b7 00             	movzwl (%rax),%eax
   1646a:	0f b7 c0             	movzwl %ax,%eax
   1646d:	89 d6                	mov    %edx,%esi
   1646f:	89 c7                	mov    %eax,%edi
   16471:	e8 18 a9 ff ff       	callq  10d8e <safe_div_func_uint16_t_u_u>
   16476:	48 8b 95 58 f6 ff ff 	mov    -0x9a8(%rbp),%rdx
   1647d:	8b 12                	mov    (%rdx),%edx
   1647f:	0f b7 c0             	movzwl %ax,%eax
   16482:	31 c2                	xor    %eax,%edx
   16484:	48 8b 85 58 f6 ff ff 	mov    -0x9a8(%rbp),%rax
   1648b:	89 10                	mov    %edx,(%rax)
   1648d:	48 8b 05 64 50 01 00 	mov    0x15064(%rip),%rax        # 2b4f8 <g_596>
   16494:	48 c7 00 00 00 00 00 	movq   $0x0,(%rax)
   1649b:	48 8b 00             	mov    (%rax),%rax
   1649e:	48 85 c0             	test   %rax,%rax
   164a1:	0f 95 c0             	setne  %al
   164a4:	0f b6 d0             	movzbl %al,%edx
   164a7:	48 8b 85 60 f6 ff ff 	mov    -0x9a0(%rbp),%rax
   164ae:	48 8b 8d 50 f6 ff ff 	mov    -0x9b0(%rbp),%rcx
   164b5:	48 89 08             	mov    %rcx,(%rax)
   164b8:	48 8b 85 60 f6 ff ff 	mov    -0x9a0(%rbp),%rax
   164bf:	48 8b 00             	mov    (%rax),%rax
   164c2:	48 85 c0             	test   %rax,%rax
   164c5:	0f 95 c0             	setne  %al
   164c8:	0f b6 c0             	movzbl %al,%eax
   164cb:	89 d6                	mov    %edx,%esi
   164cd:	89 c7                	mov    %eax,%edi
   164cf:	e8 bf a6 ff ff       	callq  10b93 <safe_mul_func_uint8_t_u_u>
   164d4:	0f b6 c0             	movzbl %al,%eax
   164d7:	89 85 f4 f6 ff ff    	mov    %eax,-0x90c(%rbp)
   164dd:	48 8b 85 58 f6 ff ff 	mov    -0x9a8(%rbp),%rax
   164e4:	8b 18                	mov    (%rax),%ebx
   164e6:	48 8b 85 10 f5 ff ff 	mov    -0xaf0(%rbp),%rax
   164ed:	8b 00                	mov    (%rax),%eax
   164ef:	89 85 0c f5 ff ff    	mov    %eax,-0xaf4(%rbp)
   164f5:	44 8b bd fc f6 ff ff 	mov    -0x904(%rbp),%r15d
   164fc:	48 8b 05 9d 51 01 00 	mov    0x1519d(%rip),%rax        # 2b6a0 <g_1006>
   16503:	48 8b 10             	mov    (%rax),%rdx
   16506:	48 8b 05 93 51 01 00 	mov    0x15193(%rip),%rax        # 2b6a0 <g_1006>
   1650d:	48 8b 00             	mov    (%rax),%rax
   16510:	48 89 d6             	mov    %rdx,%rsi
   16513:	48 89 c7             	mov    %rax,%rdi
   16516:	e8 65 ab ff ff       	callq  11080 <safe_mod_func_uint64_t_u_u>
   1651b:	48 85 c0             	test   %rax,%rax
   1651e:	0f 85 90 00 00 00    	jne    165b4 <func_39+0x1454>
   16524:	48 8b 85 58 f6 ff ff 	mov    -0x9a8(%rbp),%rax
   1652b:	8b 00                	mov    (%rax),%eax
   1652d:	44 0f b7 e0          	movzwl %ax,%r12d
   16531:	8b 85 58 f5 ff ff    	mov    -0xaa8(%rbp),%eax
   16537:	44 0f b7 e8          	movzwl %ax,%r13d
   1653b:	48 8b 85 58 f6 ff ff 	mov    -0x9a8(%rbp),%rax
   16542:	8b 00                	mov    (%rax),%eax
   16544:	0f be d0             	movsbl %al,%edx
   16547:	0f b6 05 78 0b 01 00 	movzbl 0x10b78(%rip),%eax        # 270c6 <g_192>
   1654e:	83 c8 01             	or     $0x1,%eax
   16551:	88 05 6f 0b 01 00    	mov    %al,0x10b6f(%rip)        # 270c6 <g_192>
   16557:	0f b6 05 68 0b 01 00 	movzbl 0x10b68(%rip),%eax        # 270c6 <g_192>
   1655e:	0f be c0             	movsbl %al,%eax
   16561:	89 85 80 f5 ff ff    	mov    %eax,-0xa80(%rbp)
   16567:	8b 85 80 f5 ff ff    	mov    -0xa80(%rbp),%eax
   1656d:	0f be c0             	movsbl %al,%eax
   16570:	89 d6                	mov    %edx,%esi
   16572:	89 c7                	mov    %eax,%edi
   16574:	e8 f1 9c ff ff       	callq  1026a <safe_div_func_int8_t_s_s>
   16579:	4c 0f be f0          	movsbq %al,%r14
   1657d:	0f b6 85 18 f5 ff ff 	movzbl -0xae8(%rbp),%eax
   16584:	48 89 c7             	mov    %rax,%rdi
   16587:	e8 8a a2 ff ff       	callq  10816 <safe_unary_minus_func_int64_t_s>
   1658c:	4c 89 f6             	mov    %r14,%rsi
   1658f:	48 89 c7             	mov    %rax,%rdi
   16592:	e8 aa a2 ff ff       	callq  10841 <safe_add_func_int64_t_s_s>
   16597:	0f b7 c0             	movzwl %ax,%eax
   1659a:	44 89 ee             	mov    %r13d,%esi
   1659d:	89 c7                	mov    %eax,%edi
   1659f:	e8 b8 a7 ff ff       	callq  10d5c <safe_mod_func_uint16_t_u_u>
   165a4:	0f b7 c0             	movzwl %ax,%eax
   165a7:	83 e0 4b             	and    $0x4b,%eax
   165aa:	44 89 e6             	mov    %r12d,%esi
   165ad:	89 c7                	mov    %eax,%edi
   165af:	e8 4b a7 ff ff       	callq  10cff <safe_add_func_uint16_t_u_u>
   165b4:	ba 01 00 00 00       	mov    $0x1,%edx
   165b9:	8b 85 fc f6 ff ff    	mov    -0x904(%rbp),%eax
   165bf:	39 c2                	cmp    %eax,%edx
   165c1:	0f 95 c0             	setne  %al
   165c4:	0f b6 c0             	movzbl %al,%eax
   165c7:	44 31 f8             	xor    %r15d,%eax
   165ca:	33 85 60 f5 ff ff    	xor    -0xaa0(%rbp),%eax
   165d0:	89 c2                	mov    %eax,%edx
   165d2:	48 8b 85 68 f6 ff ff 	mov    -0x998(%rbp),%rax
   165d9:	09 d0                	or     %edx,%eax
   165db:	8b b5 0c f5 ff ff    	mov    -0xaf4(%rbp),%esi
   165e1:	89 c7                	mov    %eax,%edi
   165e3:	e8 15 a9 ff ff       	callq  10efd <safe_mod_func_uint32_t_u_u>
   165e8:	89 c2                	mov    %eax,%edx
   165ea:	8b 85 64 f5 ff ff    	mov    -0xa9c(%rbp),%eax
   165f0:	31 d0                	xor    %edx,%eax
   165f2:	0f b7 c0             	movzwl %ax,%eax
   165f5:	89 c7                	mov    %eax,%edi
   165f7:	e8 ed a6 ff ff       	callq  10ce9 <safe_unary_minus_func_uint16_t_u>
   165fc:	b8 01 00 00 00       	mov    $0x1,%eax
   16601:	31 85 84 f5 ff ff    	xor    %eax,-0xa7c(%rbp)
   16607:	83 bd 84 f5 ff ff 00 	cmpl   $0x0,-0xa7c(%rbp)
   1660e:	74 16                	je     16626 <func_39+0x14c6>
   16610:	48 8b 05 89 50 01 00 	mov    0x15089(%rip),%rax        # 2b6a0 <g_1006>
   16617:	48 8b 00             	mov    (%rax),%rax
   1661a:	48 85 c0             	test   %rax,%rax
   1661d:	74 07                	je     16626 <func_39+0x14c6>
   1661f:	ba 01 00 00 00       	mov    $0x1,%edx
   16624:	eb 05                	jmp    1662b <func_39+0x14cb>
   16626:	ba 00 00 00 00       	mov    $0x0,%edx
   1662b:	8b 85 34 f5 ff ff    	mov    -0xacc(%rbp),%eax
   16631:	09 d0                	or     %edx,%eax
   16633:	89 de                	mov    %ebx,%esi
   16635:	89 c7                	mov    %eax,%edi
   16637:	e8 7a 9f ff ff       	callq  105b6 <safe_add_func_int32_t_s_s>
   1663c:	ba 92 5f 55 c5       	mov    $0xc5555f92,%edx
   16641:	48 8b 85 70 f6 ff ff 	mov    -0x990(%rbp),%rax
   16648:	8b 00                	mov    (%rax),%eax
   1664a:	31 c2                	xor    %eax,%edx
   1664c:	48 8b 85 70 f6 ff ff 	mov    -0x990(%rbp),%rax
   16653:	89 10                	mov    %edx,(%rax)
   16655:	48 8b 85 70 f6 ff ff 	mov    -0x990(%rbp),%rax
   1665c:	8b 10                	mov    (%rax),%edx
   1665e:	48 8b 85 88 f6 ff ff 	mov    -0x978(%rbp),%rax
   16665:	8b 00                	mov    (%rax),%eax
   16667:	09 c2                	or     %eax,%edx
   16669:	48 8b 85 88 f6 ff ff 	mov    -0x978(%rbp),%rax
   16670:	89 10                	mov    %edx,(%rax)
   16672:	e9 c9 07 00 00       	jmpq   16e40 <func_39+0x1ce0>
   16677:	48 8d 05 52 4e 01 00 	lea    0x14e52(%rip),%rax        # 2b4d0 <g_325>
   1667e:	48 89 85 b8 f5 ff ff 	mov    %rax,-0xa48(%rbp)
   16685:	c7 85 6c f5 ff ff 01 	movl   $0x1,-0xa94(%rbp)
   1668c:	00 00 00 
   1668f:	48 8d 05 0d 0e 01 00 	lea    0x10e0d(%rip),%rax        # 274a3 <g_992>
   16696:	48 89 85 00 f6 ff ff 	mov    %rax,-0xa00(%rbp)
   1669d:	48 8d 05 dc 74 01 00 	lea    0x174dc(%rip),%rax        # 2db80 <g_995>
   166a4:	48 89 85 08 f6 ff ff 	mov    %rax,-0x9f8(%rbp)
   166ab:	c6 85 2a f5 ff ff f7 	movb   $0xf7,-0xad6(%rbp)
   166b2:	48 8d 05 d7 56 01 00 	lea    0x156d7(%rip),%rax        # 2bd90 <g_1291>
   166b9:	48 89 85 10 f6 ff ff 	mov    %rax,-0x9f0(%rbp)
   166c0:	48 8d 85 90 f5 ff ff 	lea    -0xa70(%rbp),%rax
   166c7:	48 89 85 10 f8 ff ff 	mov    %rax,-0x7f0(%rbp)
   166ce:	48 c7 85 18 f6 ff ff 	movq   $0x0,-0x9e8(%rbp)
   166d5:	00 00 00 00 
   166d9:	48 8d 85 40 f7 ff ff 	lea    -0x8c0(%rbp),%rax
   166e0:	48 83 c0 10          	add    $0x10,%rax
   166e4:	48 89 85 20 f6 ff ff 	mov    %rax,-0x9e0(%rbp)
   166eb:	c7 85 70 f5 ff ff 40 	movl   $0x6f0ea340,-0xa90(%rbp)
   166f2:	a3 0e 6f 
   166f5:	48 8d 85 f0 f6 ff ff 	lea    -0x910(%rbp),%rax
   166fc:	48 83 c0 0c          	add    $0xc,%rax
   16700:	48 89 85 28 f6 ff ff 	mov    %rax,-0x9d8(%rbp)
   16707:	c7 85 74 f5 ff ff d3 	movl   $0xc07415d3,-0xa8c(%rbp)
   1670e:	15 74 c0 
   16711:	c7 85 48 f5 ff ff 00 	movl   $0x0,-0xab8(%rbp)
   16718:	00 00 00 
   1671b:	eb 7a                	jmp    16797 <func_39+0x1637>
   1671d:	c7 85 4c f5 ff ff 00 	movl   $0x0,-0xab4(%rbp)
   16724:	00 00 00 
   16727:	eb 5e                	jmp    16787 <func_39+0x1627>
   16729:	c7 85 50 f5 ff ff 00 	movl   $0x0,-0xab0(%rbp)
   16730:	00 00 00 
   16733:	eb 42                	jmp    16777 <func_39+0x1617>
   16735:	8b 85 50 f5 ff ff    	mov    -0xab0(%rbp),%eax
   1673b:	48 63 c8             	movslq %eax,%rcx
   1673e:	8b 85 48 f5 ff ff    	mov    -0xab8(%rbp),%eax
   16744:	48 63 d0             	movslq %eax,%rdx
   16747:	8b 85 4c f5 ff ff    	mov    -0xab4(%rbp),%eax
   1674d:	48 98                	cltq   
   1674f:	48 01 c2             	add    %rax,%rdx
   16752:	48 89 d0             	mov    %rdx,%rax
   16755:	48 01 c0             	add    %rax,%rax
   16758:	48 01 d0             	add    %rdx,%rax
   1675b:	48 01 c0             	add    %rax,%rax
   1675e:	48 01 c8             	add    %rcx,%rax
   16761:	48 8d 15 65 09 01 00 	lea    0x10965(%rip),%rdx        # 270cd <g_211+0x5>
   16768:	48 89 94 c5 00 f9 ff 	mov    %rdx,-0x700(%rbp,%rax,8)
   1676f:	ff 
   16770:	83 85 50 f5 ff ff 01 	addl   $0x1,-0xab0(%rbp)
   16777:	83 bd 50 f5 ff ff 05 	cmpl   $0x5,-0xab0(%rbp)
   1677e:	7e b5                	jle    16735 <func_39+0x15d5>
   16780:	83 85 4c f5 ff ff 01 	addl   $0x1,-0xab4(%rbp)
   16787:	83 bd 4c f5 ff ff 00 	cmpl   $0x0,-0xab4(%rbp)
   1678e:	7e 99                	jle    16729 <func_39+0x15c9>
   16790:	83 85 48 f5 ff ff 01 	addl   $0x1,-0xab8(%rbp)
   16797:	83 bd 48 f5 ff ff 01 	cmpl   $0x1,-0xab8(%rbp)
   1679e:	0f 8e 79 ff ff ff    	jle    1671d <func_39+0x15bd>
   167a4:	48 8b 05 25 4d 01 00 	mov    0x14d25(%rip),%rax        # 2b4d0 <g_325>
   167ab:	48 8b 95 10 f5 ff ff 	mov    -0xaf0(%rbp),%rdx
   167b2:	48 89 10             	mov    %rdx,(%rax)
   167b5:	c7 05 65 0a 01 00 00 	movl   $0x0,0x10a65(%rip)        # 27224 <g_723>
   167bc:	00 00 00 
   167bf:	e9 27 05 00 00       	jmpq   16ceb <func_39+0x1b8b>
   167c4:	48 8d 85 34 f5 ff ff 	lea    -0xacc(%rbp),%rax
   167cb:	48 89 85 30 f6 ff ff 	mov    %rax,-0x9d0(%rbp)
   167d2:	48 8b 05 f7 4c 01 00 	mov    0x14cf7(%rip),%rax        # 2b4d0 <g_325>
   167d9:	48 8b 95 30 f6 ff ff 	mov    -0x9d0(%rbp),%rdx
   167e0:	48 89 10             	mov    %rdx,(%rax)
   167e3:	c7 05 bb 0c 01 00 00 	movl   $0x0,0x10cbb(%rip)        # 274a8 <g_1145>
   167ea:	00 00 00 
   167ed:	e9 db 04 00 00       	jmpq   16ccd <func_39+0x1b6d>
   167f2:	c7 85 78 f5 ff ff f5 	movl   $0x49b900f5,-0xa88(%rbp)
   167f9:	00 b9 49 
   167fc:	48 8d 85 a8 f5 ff ff 	lea    -0xa58(%rbp),%rax
   16803:	48 89 85 38 f6 ff ff 	mov    %rax,-0x9c8(%rbp)
   1680a:	c7 85 7c f5 ff ff fa 	movl   $0xfffffffa,-0xa84(%rbp)
   16811:	ff ff ff 
   16814:	c7 05 fa 0b 01 00 00 	movl   $0x0,0x10bfa(%rip)        # 27418 <g_860>
   1681b:	00 00 00 
   1681e:	e9 be 03 00 00       	jmpq   16be1 <func_39+0x1a81>
   16823:	48 8b 85 30 f6 ff ff 	mov    -0x9d0(%rbp),%rax
   1682a:	8b 00                	mov    (%rax),%eax
   1682c:	0f be d8             	movsbl %al,%ebx
   1682f:	8b 15 73 0c 01 00    	mov    0x10c73(%rip),%edx        # 274a8 <g_1145>
   16835:	8b 05 6d 0c 01 00    	mov    0x10c6d(%rip),%eax        # 274a8 <g_1145>
   1683b:	83 c0 01             	add    $0x1,%eax
   1683e:	89 c1                	mov    %eax,%ecx
   16840:	89 d2                	mov    %edx,%edx
   16842:	48 89 d0             	mov    %rdx,%rax
   16845:	48 01 c0             	add    %rax,%rax
   16848:	48 01 d0             	add    %rdx,%rax
   1684b:	48 01 c0             	add    %rax,%rax
   1684e:	48 01 c8             	add    %rcx,%rax
   16851:	48 8d 14 85 00 00 00 	lea    0x0(,%rax,4),%rdx
   16858:	00 
   16859:	48 8d 05 40 09 01 00 	lea    0x10940(%rip),%rax        # 271a0 <g_398>
   16860:	8b 04 02             	mov    (%rdx,%rax,1),%eax
   16863:	0f be c0             	movsbl %al,%eax
   16866:	89 c6                	mov    %eax,%esi
   16868:	bf 7b 00 00 00       	mov    $0x7b,%edi
   1686d:	e8 f8 99 ff ff       	callq  1026a <safe_div_func_int8_t_s_s>
   16872:	0f be c0             	movsbl %al,%eax
   16875:	89 de                	mov    %ebx,%esi
   16877:	89 c7                	mov    %eax,%edi
   16879:	e8 56 99 ff ff       	callq  101d4 <safe_add_func_int8_t_s_s>
   1687e:	0f be c0             	movsbl %al,%eax
   16881:	39 85 1c f5 ff ff    	cmp    %eax,-0xae4(%rbp)
   16887:	74 21                	je     168aa <func_39+0x174a>
   16889:	80 bd 18 f5 ff ff 01 	cmpb   $0x1,-0xae8(%rbp)
   16890:	0f 97 c2             	seta   %dl
   16893:	48 8b 85 b8 f5 ff ff 	mov    -0xa48(%rbp),%rax
   1689a:	48 8b 00             	mov    (%rax),%rax
   1689d:	48 8b 00             	mov    (%rax),%rax
   168a0:	0f b6 d2             	movzbl %dl,%edx
   168a3:	89 10                	mov    %edx,(%rax)
   168a5:	e9 e0 01 00 00       	jmpq   16a8a <func_39+0x192a>
   168aa:	66 c7 85 30 f5 ff ff 	movw   $0x0,-0xad0(%rbp)
   168b1:	00 00 
   168b3:	66 83 bd 30 f5 ff ff 	cmpw   $0x0,-0xad0(%rbp)
   168ba:	00 
   168bb:	0f 85 31 03 00 00    	jne    16bf2 <func_39+0x1a92>
   168c1:	8b 85 1c f5 ff ff    	mov    -0xae4(%rbp),%eax
   168c7:	0f bf d8             	movswl %ax,%ebx
   168ca:	44 0f b6 a5 18 f5 ff 	movzbl -0xae8(%rbp),%r12d
   168d1:	ff 
   168d2:	8b 15 d0 0b 01 00    	mov    0x10bd0(%rip),%edx        # 274a8 <g_1145>
   168d8:	8b 05 ca 0b 01 00    	mov    0x10bca(%rip),%eax        # 274a8 <g_1145>
   168de:	83 c0 01             	add    $0x1,%eax
   168e1:	89 c1                	mov    %eax,%ecx
   168e3:	89 d2                	mov    %edx,%edx
   168e5:	48 89 d0             	mov    %rdx,%rax
   168e8:	48 01 c0             	add    %rax,%rax
   168eb:	48 01 d0             	add    %rdx,%rax
   168ee:	48 01 c0             	add    %rax,%rax
   168f1:	48 01 c8             	add    %rcx,%rax
   168f4:	48 8d 14 85 00 00 00 	lea    0x0(,%rax,4),%rdx
   168fb:	00 
   168fc:	48 8d 05 9d 08 01 00 	lea    0x1089d(%rip),%rax        # 271a0 <g_398>
   16903:	8b 04 02             	mov    (%rdx,%rax,1),%eax
   16906:	89 85 0c f5 ff ff    	mov    %eax,-0xaf4(%rbp)
   1690c:	44 0f b6 ad 18 f5 ff 	movzbl -0xae8(%rbp),%r13d
   16913:	ff 
   16914:	44 0f b6 b5 18 f5 ff 	movzbl -0xae8(%rbp),%r14d
   1691b:	ff 
   1691c:	8b 85 1c f5 ff ff    	mov    -0xae4(%rbp),%eax
   16922:	44 0f be f8          	movsbl %al,%r15d
   16926:	0f bf 95 30 f5 ff ff 	movswl -0xad0(%rbp),%edx
   1692d:	0f b6 85 18 f5 ff ff 	movzbl -0xae8(%rbp),%eax
   16934:	89 d6                	mov    %edx,%esi
   16936:	89 c7                	mov    %eax,%edi
   16938:	e8 b8 9a ff ff       	callq  103f5 <safe_mul_func_int16_t_s_s>
   1693d:	98                   	cwtl   
   1693e:	89 c6                	mov    %eax,%esi
   16940:	bf 4e 62 00 00       	mov    $0x624e,%edi
   16945:	e8 89 9a ff ff       	callq  103d3 <safe_sub_func_int16_t_s_s>
   1694a:	0f b7 05 73 07 01 00 	movzwl 0x10773(%rip),%eax        # 270c4 <g_164>
   16951:	83 c8 01             	or     $0x1,%eax
   16954:	0f b7 d0             	movzwl %ax,%edx
   16957:	8b 8d 1c f5 ff ff    	mov    -0xae4(%rbp),%ecx
   1695d:	48 8d 05 1c 04 01 00 	lea    0x1041c(%rip),%rax        # 26d80 <g_1208>
   16964:	48 8b 00             	mov    (%rax),%rax
   16967:	48 bf 4c 6f c4 25 f9 	movabs $0xf226c9f925c46f4c,%rdi
   1696e:	c9 26 f2 
   16971:	48 89 38             	mov    %rdi,(%rax)
   16974:	48 8b 00             	mov    (%rax),%rax
   16977:	48 39 c1             	cmp    %rax,%rcx
   1697a:	0f 9e c0             	setle  %al
   1697d:	0f b6 c0             	movzbl %al,%eax
   16980:	39 85 1c f5 ff ff    	cmp    %eax,-0xae4(%rbp)
   16986:	0f 96 c0             	setbe  %al
   16989:	0f b6 c0             	movzbl %al,%eax
   1698c:	48 89 d6             	mov    %rdx,%rsi
   1698f:	48 89 c7             	mov    %rax,%rdi
   16992:	e8 aa 9e ff ff       	callq  10841 <safe_add_func_int64_t_s_s>
   16997:	8b 95 1c f5 ff ff    	mov    -0xae4(%rbp),%edx
   1699d:	48 39 d0             	cmp    %rdx,%rax
   169a0:	0f 95 c0             	setne  %al
   169a3:	0f b6 d0             	movzbl %al,%edx
   169a6:	0f b6 85 18 f5 ff ff 	movzbl -0xae8(%rbp),%eax
   169ad:	39 c2                	cmp    %eax,%edx
   169af:	0f 9f c0             	setg   %al
   169b2:	0f b6 c0             	movzbl %al,%eax
   169b5:	44 89 fe             	mov    %r15d,%esi
   169b8:	89 c7                	mov    %eax,%edi
   169ba:	e8 53 98 ff ff       	callq  10212 <safe_mul_func_int8_t_s_s>
   169bf:	44 89 f6             	mov    %r14d,%esi
   169c2:	bf 6c 00 00 00       	mov    $0x6c,%edi
   169c7:	e8 69 99 ff ff       	callq  10335 <safe_rshift_func_int8_t_s_s>
   169cc:	0f be c0             	movsbl %al,%eax
   169cf:	44 89 ee             	mov    %r13d,%esi
   169d2:	89 c7                	mov    %eax,%edi
   169d4:	e8 15 99 ff ff       	callq  102ee <safe_lshift_func_int8_t_s_u>
   169d9:	0f be c0             	movsbl %al,%eax
   169dc:	23 85 1c f5 ff ff    	and    -0xae4(%rbp),%eax
   169e2:	3d fb 11 a8 96       	cmp    $0x96a811fb,%eax
   169e7:	0f 95 c0             	setne  %al
   169ea:	0f b6 c0             	movzbl %al,%eax
   169ed:	39 85 0c f5 ff ff    	cmp    %eax,-0xaf4(%rbp)
   169f3:	0f 95 c0             	setne  %al
   169f6:	0f b6 c0             	movzbl %al,%eax
   169f9:	f7 d0                	not    %eax
   169fb:	89 c2                	mov    %eax,%edx
   169fd:	0f b6 05 94 0a 01 00 	movzbl 0x10a94(%rip),%eax        # 27498 <g_903>
   16a04:	0f b6 c0             	movzbl %al,%eax
   16a07:	31 d0                	xor    %edx,%eax
   16a09:	23 85 1c f5 ff ff    	and    -0xae4(%rbp),%eax
   16a0f:	89 c2                	mov    %eax,%edx
   16a11:	0f b6 85 18 f5 ff ff 	movzbl -0xae8(%rbp),%eax
   16a18:	39 c2                	cmp    %eax,%edx
   16a1a:	8b 15 88 0a 01 00    	mov    0x10a88(%rip),%edx        # 274a8 <g_1145>
   16a20:	8b 05 82 0a 01 00    	mov    0x10a82(%rip),%eax        # 274a8 <g_1145>
   16a26:	83 c0 01             	add    $0x1,%eax
   16a29:	89 c1                	mov    %eax,%ecx
   16a2b:	89 d2                	mov    %edx,%edx
   16a2d:	48 89 d0             	mov    %rdx,%rax
   16a30:	48 01 c0             	add    %rax,%rax
   16a33:	48 01 d0             	add    %rdx,%rax
   16a36:	48 01 c0             	add    %rax,%rax
   16a39:	48 01 c8             	add    %rcx,%rax
   16a3c:	48 8d 14 85 00 00 00 	lea    0x0(,%rax,4),%rdx
   16a43:	00 
   16a44:	48 8d 05 55 07 01 00 	lea    0x10755(%rip),%rax        # 271a0 <g_398>
   16a4b:	8b 04 02             	mov    (%rdx,%rax,1),%eax
   16a4e:	0f b7 c0             	movzwl %ax,%eax
   16a51:	44 89 e6             	mov    %r12d,%esi
   16a54:	89 c7                	mov    %eax,%edi
   16a56:	e8 e2 a2 ff ff       	callq  10d3d <safe_mul_func_uint16_t_u_u>
   16a5b:	98                   	cwtl   
   16a5c:	89 de                	mov    %ebx,%esi
   16a5e:	89 c7                	mov    %eax,%edi
   16a60:	e8 6e 99 ff ff       	callq  103d3 <safe_sub_func_int16_t_s_s>
   16a65:	66 85 c0             	test   %ax,%ax
   16a68:	74 07                	je     16a71 <func_39+0x1911>
   16a6a:	b9 01 00 00 00       	mov    $0x1,%ecx
   16a6f:	eb 05                	jmp    16a76 <func_39+0x1916>
   16a71:	b9 00 00 00 00       	mov    $0x0,%ecx
   16a76:	48 8b 05 4b 4a 01 00 	mov    0x14a4b(%rip),%rax        # 2b4c8 <g_326>
   16a7d:	8b 10                	mov    (%rax),%edx
   16a7f:	48 8b 05 42 4a 01 00 	mov    0x14a42(%rip),%rax        # 2b4c8 <g_326>
   16a86:	31 ca                	xor    %ecx,%edx
   16a88:	89 10                	mov    %edx,(%rax)
   16a8a:	be 07 00 00 00       	mov    $0x7,%esi
   16a8f:	bf e5 00 00 00       	mov    $0xe5,%edi
   16a94:	e8 25 a2 ff ff       	callq  10cbe <safe_rshift_func_uint8_t_u_u>
   16a99:	84 c0                	test   %al,%al
   16a9b:	0f 94 c0             	sete   %al
   16a9e:	44 0f b6 f0          	movzbl %al,%r14d
   16aa2:	8b 15 00 0a 01 00    	mov    0x10a00(%rip),%edx        # 274a8 <g_1145>
   16aa8:	8b 05 fa 09 01 00    	mov    0x109fa(%rip),%eax        # 274a8 <g_1145>
   16aae:	83 c0 01             	add    $0x1,%eax
   16ab1:	89 c1                	mov    %eax,%ecx
   16ab3:	89 d2                	mov    %edx,%edx
   16ab5:	48 89 d0             	mov    %rdx,%rax
   16ab8:	48 01 c0             	add    %rax,%rax
   16abb:	48 01 d0             	add    %rdx,%rax
   16abe:	48 01 c0             	add    %rax,%rax
   16ac1:	48 01 c8             	add    %rcx,%rax
   16ac4:	48 8d 14 85 00 00 00 	lea    0x0(,%rax,4),%rdx
   16acb:	00 
   16acc:	48 8d 05 cd 06 01 00 	lea    0x106cd(%rip),%rax        # 271a0 <g_398>
   16ad3:	8b 04 02             	mov    (%rdx,%rax,1),%eax
   16ad6:	0f b7 d8             	movzwl %ax,%ebx
   16ad9:	44 0f b6 bd 2a f5 ff 	movzbl -0xad6(%rbp),%r15d
   16ae0:	ff 
   16ae1:	0f b6 85 18 f5 ff ff 	movzbl -0xae8(%rbp),%eax
   16ae8:	89 85 0c f5 ff ff    	mov    %eax,-0xaf4(%rbp)
   16aee:	0f b6 85 18 f5 ff ff 	movzbl -0xae8(%rbp),%eax
   16af5:	44 0f be e0          	movsbl %al,%r12d
   16af9:	48 8b 05 f0 49 01 00 	mov    0x149f0(%rip),%rax        # 2b4f0 <g_449>
   16b00:	48 8b 00             	mov    (%rax),%rax
   16b03:	0f b6 00             	movzbl (%rax),%eax
   16b06:	44 0f be e8          	movsbl %al,%r13d
   16b0a:	48 8b 05 8f 4b 01 00 	mov    0x14b8f(%rip),%rax        # 2b6a0 <g_1006>
   16b11:	48 8b 00             	mov    (%rax),%rax
   16b14:	48 89 85 00 f5 ff ff 	mov    %rax,-0xb00(%rbp)
   16b1b:	8b 95 94 f7 ff ff    	mov    -0x86c(%rbp),%edx
   16b21:	8b 0d 81 09 01 00    	mov    0x10981(%rip),%ecx        # 274a8 <g_1145>
   16b27:	8b 05 7b 09 01 00    	mov    0x1097b(%rip),%eax        # 274a8 <g_1145>
   16b2d:	83 c0 01             	add    $0x1,%eax
   16b30:	89 c6                	mov    %eax,%esi
   16b32:	89 c9                	mov    %ecx,%ecx
   16b34:	48 89 c8             	mov    %rcx,%rax
   16b37:	48 01 c0             	add    %rax,%rax
   16b3a:	48 01 c8             	add    %rcx,%rax
   16b3d:	48 01 c0             	add    %rax,%rax
   16b40:	48 01 f0             	add    %rsi,%rax
   16b43:	48 8d 0c 85 00 00 00 	lea    0x0(,%rax,4),%rcx
   16b4a:	00 
   16b4b:	48 8d 05 4e 06 01 00 	lea    0x1064e(%rip),%rax        # 271a0 <g_398>
   16b52:	8b 04 01             	mov    (%rcx,%rax,1),%eax
   16b55:	98                   	cwtl   
   16b56:	89 d6                	mov    %edx,%esi
   16b58:	89 c7                	mov    %eax,%edi
   16b5a:	e8 33 99 ff ff       	callq  10492 <safe_lshift_func_int16_t_s_s>
   16b5f:	48 8b b5 00 f5 ff ff 	mov    -0xb00(%rbp),%rsi
   16b66:	bf 01 00 00 00       	mov    $0x1,%edi
   16b6b:	e8 d1 9c ff ff       	callq  10841 <safe_add_func_int64_t_s_s>
   16b70:	0f be c0             	movsbl %al,%eax
   16b73:	44 89 ee             	mov    %r13d,%esi
   16b76:	89 c7                	mov    %eax,%edi
   16b78:	e8 75 96 ff ff       	callq  101f2 <safe_sub_func_int8_t_s_s>
   16b7d:	44 89 e6             	mov    %r12d,%esi
   16b80:	bf 00 00 00 00       	mov    $0x0,%edi
   16b85:	e8 88 96 ff ff       	callq  10212 <safe_mul_func_int8_t_s_s>
   16b8a:	0f be c0             	movsbl %al,%eax
   16b8d:	39 85 0c f5 ff ff    	cmp    %eax,-0xaf4(%rbp)
   16b93:	0f 9d c0             	setge  %al
   16b96:	0f b6 c0             	movzbl %al,%eax
   16b99:	41 39 c7             	cmp    %eax,%r15d
   16b9c:	0f 9e c0             	setle  %al
   16b9f:	0f b6 c0             	movzbl %al,%eax
   16ba2:	89 de                	mov    %ebx,%esi
   16ba4:	89 c7                	mov    %eax,%edi
   16ba6:	e8 92 a1 ff ff       	callq  10d3d <safe_mul_func_uint16_t_u_u>
   16bab:	0f b7 c0             	movzwl %ax,%eax
   16bae:	41 39 c6             	cmp    %eax,%r14d
   16bb1:	0f 95 c0             	setne  %al
   16bb4:	0f b6 d0             	movzbl %al,%edx
   16bb7:	0f b6 05 4e 06 01 00 	movzbl 0x1064e(%rip),%eax        # 2720c <g_544>
   16bbe:	0f be c0             	movsbl %al,%eax
   16bc1:	39 c2                	cmp    %eax,%edx
   16bc3:	0f 9f c2             	setg   %dl
   16bc6:	48 8b 05 fb 48 01 00 	mov    0x148fb(%rip),%rax        # 2b4c8 <g_326>
   16bcd:	0f b6 d2             	movzbl %dl,%edx
   16bd0:	89 10                	mov    %edx,(%rax)
   16bd2:	8b 05 40 08 01 00    	mov    0x10840(%rip),%eax        # 27418 <g_860>
   16bd8:	83 c0 01             	add    $0x1,%eax
   16bdb:	89 05 37 08 01 00    	mov    %eax,0x10837(%rip)        # 27418 <g_860>
   16be1:	8b 05 31 08 01 00    	mov    0x10831(%rip),%eax        # 27418 <g_860>
   16be7:	83 f8 03             	cmp    $0x3,%eax
   16bea:	0f 86 33 fc ff ff    	jbe    16823 <func_39+0x16c3>
   16bf0:	eb 01                	jmp    16bf3 <func_39+0x1a93>
   16bf2:	90                   	nop
   16bf3:	48 8b 95 a8 f5 ff ff 	mov    -0xa58(%rbp),%rdx
   16bfa:	48 8b 85 38 f6 ff ff 	mov    -0x9c8(%rbp),%rax
   16c01:	48 89 10             	mov    %rdx,(%rax)
   16c04:	48 8b 85 38 f6 ff ff 	mov    -0x9c8(%rbp),%rax
   16c0b:	48 8b 10             	mov    (%rax),%rdx
   16c0e:	48 8d 85 b8 f5 ff ff 	lea    -0xa48(%rbp),%rax
   16c15:	48 39 c2             	cmp    %rax,%rdx
   16c18:	75 07                	jne    16c21 <func_39+0x1ac1>
   16c1a:	83 bd 1c f5 ff ff 00 	cmpl   $0x0,-0xae4(%rbp)
   16c21:	48 8b 85 30 f6 ff ff 	mov    -0x9d0(%rbp),%rax
   16c28:	8b 10                	mov    (%rax),%edx
   16c2a:	48 8b 85 b8 f5 ff ff 	mov    -0xa48(%rbp),%rax
   16c31:	48 8b 00             	mov    (%rax),%rax
   16c34:	48 8b 00             	mov    (%rax),%rax
   16c37:	8b 00                	mov    (%rax),%eax
   16c39:	31 c2                	xor    %eax,%edx
   16c3b:	0f b6 85 18 f5 ff ff 	movzbl -0xae8(%rbp),%eax
   16c42:	39 c2                	cmp    %eax,%edx
   16c44:	48 83 bd e8 f5 ff ff 	cmpq   $0xffffffffffffffff,-0xa18(%rbp)
   16c4b:	ff 
   16c4c:	0f 95 c0             	setne  %al
   16c4f:	0f b6 c0             	movzbl %al,%eax
   16c52:	be 06 00 00 00       	mov    $0x6,%esi
   16c57:	89 c7                	mov    %eax,%edi
   16c59:	e8 60 a0 ff ff       	callq  10cbe <safe_rshift_func_uint8_t_u_u>
   16c5e:	0f b6 d0             	movzbl %al,%edx
   16c61:	48 8b 05 20 04 01 00 	mov    0x10420(%rip),%rax        # 27088 <g_146+0x8>
   16c68:	48 39 c2             	cmp    %rax,%rdx
   16c6b:	0f 92 c0             	setb   %al
   16c6e:	0f b6 c0             	movzbl %al,%eax
   16c71:	39 85 1c f5 ff ff    	cmp    %eax,-0xae4(%rbp)
   16c77:	0f 92 c0             	setb   %al
   16c7a:	0f b6 d0             	movzbl %al,%edx
   16c7d:	48 8b 05 1c 4a 01 00 	mov    0x14a1c(%rip),%rax        # 2b6a0 <g_1006>
   16c84:	48 8b 00             	mov    (%rax),%rax
   16c87:	48 89 d6             	mov    %rdx,%rsi
   16c8a:	48 89 c7             	mov    %rax,%rdi
   16c8d:	e8 b9 a3 ff ff       	callq  1104b <safe_sub_func_uint64_t_u_u>
   16c92:	48 8d 05 27 08 01 00 	lea    0x10827(%rip),%rax        # 274c0 <g_1209>
   16c99:	48 8b 00             	mov    (%rax),%rax
   16c9c:	48 c7 c6 ff ff ff ff 	mov    $0xffffffffffffffff,%rsi
   16ca3:	48 89 c7             	mov    %rax,%rdi
   16ca6:	e8 fd 9b ff ff       	callq  108a8 <safe_sub_func_int64_t_s_s>
   16cab:	48 8b 85 b8 f5 ff ff 	mov    -0xa48(%rbp),%rax
   16cb2:	48 8b 00             	mov    (%rax),%rax
   16cb5:	48 8b 00             	mov    (%rax),%rax
   16cb8:	c7 00 7c 92 b1 16    	movl   $0x16b1927c,(%rax)
   16cbe:	8b 05 e4 07 01 00    	mov    0x107e4(%rip),%eax        # 274a8 <g_1145>
   16cc4:	83 c0 01             	add    $0x1,%eax
   16cc7:	89 05 db 07 01 00    	mov    %eax,0x107db(%rip)        # 274a8 <g_1145>
   16ccd:	8b 05 d5 07 01 00    	mov    0x107d5(%rip),%eax        # 274a8 <g_1145>
   16cd3:	83 f8 03             	cmp    $0x3,%eax
   16cd6:	0f 86 16 fb ff ff    	jbe    167f2 <func_39+0x1692>
   16cdc:	8b 05 42 05 01 00    	mov    0x10542(%rip),%eax        # 27224 <g_723>
   16ce2:	83 c0 01             	add    $0x1,%eax
   16ce5:	89 05 39 05 01 00    	mov    %eax,0x10539(%rip)        # 27224 <g_723>
   16ceb:	8b 05 33 05 01 00    	mov    0x10533(%rip),%eax        # 27224 <g_723>
   16cf1:	83 f8 0c             	cmp    $0xc,%eax
   16cf4:	0f 85 ca fa ff ff    	jne    167c4 <func_39+0x1664>
   16cfa:	8b 85 1c f5 ff ff    	mov    -0xae4(%rbp),%eax
   16d00:	0f be c0             	movsbl %al,%eax
   16d03:	89 c6                	mov    %eax,%esi
   16d05:	bf 01 00 00 00       	mov    $0x1,%edi
   16d0a:	e8 22 95 ff ff       	callq  10231 <safe_mod_func_int8_t_s_s>
   16d0f:	48 8b 85 10 f5 ff ff 	mov    -0xaf0(%rbp),%rax
   16d16:	44 8b 20             	mov    (%rax),%r12d
   16d19:	44 0f b6 ad 18 f5 ff 	movzbl -0xae8(%rbp),%r13d
   16d20:	ff 
   16d21:	8b 85 1c f5 ff ff    	mov    -0xae4(%rbp),%eax
   16d27:	0f b7 d8             	movzwl %ax,%ebx
   16d2a:	0f b6 85 18 f5 ff ff 	movzbl -0xae8(%rbp),%eax
   16d31:	48 89 c6             	mov    %rax,%rsi
   16d34:	bf 01 00 00 00       	mov    $0x1,%edi
   16d39:	e8 0d a3 ff ff       	callq  1104b <safe_sub_func_uint64_t_u_u>
   16d3e:	89 c2                	mov    %eax,%edx
   16d40:	8b 85 60 f5 ff ff    	mov    -0xaa0(%rbp),%eax
   16d46:	09 d0                	or     %edx,%eax
   16d48:	89 85 60 f5 ff ff    	mov    %eax,-0xaa0(%rbp)
   16d4e:	8b 85 60 f5 ff ff    	mov    -0xaa0(%rbp),%eax
   16d54:	83 f8 06             	cmp    $0x6,%eax
   16d57:	0f 96 c0             	setbe  %al
   16d5a:	0f b6 d0             	movzbl %al,%edx
   16d5d:	48 8d 05 1c 00 01 00 	lea    0x1001c(%rip),%rax        # 26d80 <g_1208>
   16d64:	48 8b 00             	mov    (%rax),%rax
   16d67:	48 8b 00             	mov    (%rax),%rax
   16d6a:	48 39 c2             	cmp    %rax,%rdx
   16d6d:	0f 9f c0             	setg   %al
   16d70:	0f b6 c0             	movzbl %al,%eax
   16d73:	89 85 6c f5 ff ff    	mov    %eax,-0xa94(%rbp)
   16d79:	83 bd 6c f5 ff ff 00 	cmpl   $0x0,-0xa94(%rbp)
   16d80:	74 1a                	je     16d9c <func_39+0x1c3c>
   16d82:	48 8b 85 b8 f5 ff ff 	mov    -0xa48(%rbp),%rax
   16d89:	48 8b 00             	mov    (%rax),%rax
   16d8c:	48 8b 00             	mov    (%rax),%rax
   16d8f:	8b 00                	mov    (%rax),%eax
   16d91:	85 c0                	test   %eax,%eax
   16d93:	74 07                	je     16d9c <func_39+0x1c3c>
   16d95:	b8 01 00 00 00       	mov    $0x1,%eax
   16d9a:	eb 05                	jmp    16da1 <func_39+0x1c41>
   16d9c:	b8 00 00 00 00       	mov    $0x0,%eax
   16da1:	0f b7 c0             	movzwl %ax,%eax
   16da4:	89 de                	mov    %ebx,%esi
   16da6:	89 c7                	mov    %eax,%edi
   16da8:	e8 af 9f ff ff       	callq  10d5c <safe_mod_func_uint16_t_u_u>
   16dad:	66 85 c0             	test   %ax,%ax
   16db0:	0f 94 c0             	sete   %al
   16db3:	0f b6 c0             	movzbl %al,%eax
   16db6:	41 39 c5             	cmp    %eax,%r13d
   16db9:	0f 9f c0             	setg   %al
   16dbc:	0f b6 d0             	movzbl %al,%edx
   16dbf:	8b 05 f7 03 01 00    	mov    0x103f7(%rip),%eax        # 271bc <g_398+0x1c>
   16dc5:	09 d0                	or     %edx,%eax
   16dc7:	89 c0                	mov    %eax,%eax
   16dc9:	48 89 c7             	mov    %rax,%rdi
   16dcc:	e8 48 a2 ff ff       	callq  11019 <safe_unary_minus_func_uint64_t_u>
   16dd1:	48 8b 85 20 f6 ff ff 	mov    -0x9e0(%rbp),%rax
   16dd8:	48 8b 95 18 f6 ff ff 	mov    -0x9e8(%rbp),%rdx
   16ddf:	48 89 10             	mov    %rdx,(%rax)
   16de2:	48 8b 85 20 f6 ff ff 	mov    -0x9e0(%rbp),%rax
   16de9:	48 8b 10             	mov    (%rax),%rdx
   16dec:	48 8b 85 c8 f6 ff ff 	mov    -0x938(%rbp),%rax
   16df3:	48 39 c2             	cmp    %rax,%rdx
   16df6:	0f 95 c0             	setne  %al
   16df9:	0f b6 c0             	movzbl %al,%eax
   16dfc:	be ff ff ff ff       	mov    $0xffffffff,%esi
   16e01:	89 c7                	mov    %eax,%edi
   16e03:	e8 cb 95 ff ff       	callq  103d3 <safe_sub_func_int16_t_s_s>
   16e08:	98                   	cwtl   
   16e09:	41 39 c4             	cmp    %eax,%r12d
   16e0c:	0f 95 c0             	setne  %al
   16e0f:	0f b6 d0             	movzbl %al,%edx
   16e12:	0f b7 05 f7 03 01 00 	movzwl 0x103f7(%rip),%eax        # 27210 <g_545>
   16e19:	09 d0                	or     %edx,%eax
   16e1b:	66 89 05 ee 03 01 00 	mov    %ax,0x103ee(%rip)        # 27210 <g_545>
   16e22:	8b 95 70 f5 ff ff    	mov    -0xa90(%rbp),%edx
   16e28:	48 8b 85 28 f6 ff ff 	mov    -0x9d8(%rbp),%rax
   16e2f:	89 10                	mov    %edx,(%rax)
   16e31:	48 8b 85 28 f6 ff ff 	mov    -0x9d8(%rbp),%rax
   16e38:	8b 00                	mov    (%rax),%eax
   16e3a:	31 85 74 f5 ff ff    	xor    %eax,-0xa8c(%rbp)
   16e40:	48 8d 05 39 ff 00 00 	lea    0xff39(%rip),%rax        # 26d80 <g_1208>
   16e47:	48 8b 00             	mov    (%rax),%rax
   16e4a:	48 8b 00             	mov    (%rax),%rax
   16e4d:	48 8b 5d c8          	mov    -0x38(%rbp),%rbx
   16e51:	64 48 33 1c 25 28 00 	xor    %fs:0x28,%rbx
   16e58:	00 00 
   16e5a:	74 05                	je     16e61 <func_39+0x1d01>
   16e5c:	e8 0f 92 ff ff       	callq  10070 <__stack_chk_fail@plt>
   16e61:	48 81 c4 d8 0a 00 00 	add    $0xad8,%rsp
   16e68:	5b                   	pop    %rbx
   16e69:	41 5c                	pop    %r12
   16e6b:	41 5d                	pop    %r13
   16e6d:	41 5e                	pop    %r14
   16e6f:	41 5f                	pop    %r15
   16e71:	5d                   	pop    %rbp
   16e72:	c3                   	retq   

0000000000016e73 <func_47>:
   16e73:	f3 0f 1e fa          	endbr64 
   16e77:	55                   	push   %rbp
   16e78:	48 89 e5             	mov    %rsp,%rbp
   16e7b:	41 57                	push   %r15
   16e7d:	41 56                	push   %r14
   16e7f:	41 55                	push   %r13
   16e81:	41 54                	push   %r12
   16e83:	53                   	push   %rbx
   16e84:	48 81 ec 00 10 00 00 	sub    $0x1000,%rsp
   16e8b:	48 83 0c 24 00       	orq    $0x0,(%rsp)
   16e90:	48 81 ec 78 0c 00 00 	sub    $0xc78,%rsp
   16e97:	48 89 b5 90 e3 ff ff 	mov    %rsi,-0x1c70(%rbp)
   16e9e:	89 d0                	mov    %edx,%eax
   16ea0:	48 89 8d 88 e3 ff ff 	mov    %rcx,-0x1c78(%rbp)
   16ea7:	89 fa                	mov    %edi,%edx
   16ea9:	88 95 9c e3 ff ff    	mov    %dl,-0x1c64(%rbp)
   16eaf:	66 89 85 98 e3 ff ff 	mov    %ax,-0x1c68(%rbp)
   16eb6:	64 48 8b 04 25 28 00 	mov    %fs:0x28,%rax
   16ebd:	00 00 
   16ebf:	48 89 45 c8          	mov    %rax,-0x38(%rbp)
   16ec3:	31 c0                	xor    %eax,%eax
   16ec5:	c6 85 a4 e3 ff ff 1c 	movb   $0x1c,-0x1c5c(%rbp)
   16ecc:	c7 85 b8 e3 ff ff f8 	movl   $0xfffffff8,-0x1c48(%rbp)
   16ed3:	ff ff ff 
   16ed6:	66 c7 85 b0 e3 ff ff 	movw   $0x9434,-0x1c50(%rbp)
   16edd:	34 94 
   16edf:	c7 85 b0 e7 ff ff 01 	movl   $0x1,-0x1850(%rbp)
   16ee6:	00 00 00 
   16ee9:	c7 85 b4 e7 ff ff 01 	movl   $0x1,-0x184c(%rbp)
   16ef0:	00 00 00 
   16ef3:	c7 85 b8 e7 ff ff 01 	movl   $0x1,-0x1848(%rbp)
   16efa:	00 00 00 
   16efd:	c7 85 bc e7 ff ff 01 	movl   $0x1,-0x1844(%rbp)
   16f04:	00 00 00 
   16f07:	c7 85 c0 e7 ff ff 01 	movl   $0x1,-0x1840(%rbp)
   16f0e:	00 00 00 
   16f11:	c7 85 c4 e7 ff ff 01 	movl   $0x1,-0x183c(%rbp)
   16f18:	00 00 00 
   16f1b:	c7 85 24 e4 ff ff 1c 	movl   $0x4837541c,-0x1bdc(%rbp)
   16f22:	54 37 48 
   16f25:	48 8d 05 8c 45 01 00 	lea    0x1458c(%rip),%rax        # 2b4b8 <g_297>
   16f2c:	48 89 85 80 e4 ff ff 	mov    %rax,-0x1b80(%rbp)
   16f33:	48 8d 85 80 e4 ff ff 	lea    -0x1b80(%rbp),%rax
   16f3a:	48 89 85 88 e4 ff ff 	mov    %rax,-0x1b78(%rbp)
   16f41:	48 8d 85 88 e4 ff ff 	lea    -0x1b78(%rbp),%rax
   16f48:	48 89 85 f8 e4 ff ff 	mov    %rax,-0x1b08(%rbp)
   16f4f:	48 8d 05 fa 00 01 00 	lea    0x100fa(%rip),%rax        # 27050 <g_87>
   16f56:	48 89 85 00 e5 ff ff 	mov    %rax,-0x1b00(%rbp)
   16f5d:	48 8d 05 ac 6b 01 00 	lea    0x16bac(%rip),%rax        # 2db10 <g_587>
   16f64:	48 89 85 d0 e7 ff ff 	mov    %rax,-0x1830(%rbp)
   16f6b:	48 8d 05 9e 6b 01 00 	lea    0x16b9e(%rip),%rax        # 2db10 <g_587>
   16f72:	48 89 85 d8 e7 ff ff 	mov    %rax,-0x1828(%rbp)
   16f79:	48 8d 05 90 6b 01 00 	lea    0x16b90(%rip),%rax        # 2db10 <g_587>
   16f80:	48 89 85 e0 e7 ff ff 	mov    %rax,-0x1820(%rbp)
   16f87:	48 8d 05 82 6b 01 00 	lea    0x16b82(%rip),%rax        # 2db10 <g_587>
   16f8e:	48 89 85 e8 e7 ff ff 	mov    %rax,-0x1818(%rbp)
   16f95:	48 8d 05 74 6b 01 00 	lea    0x16b74(%rip),%rax        # 2db10 <g_587>
   16f9c:	48 89 85 f0 e7 ff ff 	mov    %rax,-0x1810(%rbp)
   16fa3:	48 8d 05 66 6b 01 00 	lea    0x16b66(%rip),%rax        # 2db10 <g_587>
   16faa:	48 89 85 f8 e7 ff ff 	mov    %rax,-0x1808(%rbp)
   16fb1:	48 c7 85 90 e4 ff ff 	movq   $0x0,-0x1b70(%rbp)
   16fb8:	00 00 00 00 
   16fbc:	48 8d 85 90 e4 ff ff 	lea    -0x1b70(%rbp),%rax
   16fc3:	48 89 85 b0 ea ff ff 	mov    %rax,-0x1550(%rbp)
   16fca:	48 8d 85 90 e4 ff ff 	lea    -0x1b70(%rbp),%rax
   16fd1:	48 89 85 b8 ea ff ff 	mov    %rax,-0x1548(%rbp)
   16fd8:	48 8d 85 90 e4 ff ff 	lea    -0x1b70(%rbp),%rax
   16fdf:	48 89 85 c0 ea ff ff 	mov    %rax,-0x1540(%rbp)
   16fe6:	48 8d 85 90 e4 ff ff 	lea    -0x1b70(%rbp),%rax
   16fed:	48 89 85 c8 ea ff ff 	mov    %rax,-0x1538(%rbp)
   16ff4:	48 8d 85 90 e4 ff ff 	lea    -0x1b70(%rbp),%rax
   16ffb:	48 89 85 d0 ea ff ff 	mov    %rax,-0x1530(%rbp)
   17002:	48 8d 85 90 e4 ff ff 	lea    -0x1b70(%rbp),%rax
   17009:	48 89 85 d8 ea ff ff 	mov    %rax,-0x1528(%rbp)
   17010:	48 8d 85 90 e4 ff ff 	lea    -0x1b70(%rbp),%rax
   17017:	48 89 85 e0 ea ff ff 	mov    %rax,-0x1520(%rbp)
   1701e:	48 c7 85 e8 ea ff ff 	movq   $0x0,-0x1518(%rbp)
   17025:	00 00 00 00 
   17029:	48 c7 85 f0 ea ff ff 	movq   $0x0,-0x1510(%rbp)
   17030:	00 00 00 00 
   17034:	48 8d 85 90 e4 ff ff 	lea    -0x1b70(%rbp),%rax
   1703b:	48 89 85 f8 ea ff ff 	mov    %rax,-0x1508(%rbp)
   17042:	48 8d 85 90 e4 ff ff 	lea    -0x1b70(%rbp),%rax
   17049:	48 89 85 00 eb ff ff 	mov    %rax,-0x1500(%rbp)
   17050:	48 8d 85 90 e4 ff ff 	lea    -0x1b70(%rbp),%rax
   17057:	48 89 85 08 eb ff ff 	mov    %rax,-0x14f8(%rbp)
   1705e:	48 8d 85 90 e4 ff ff 	lea    -0x1b70(%rbp),%rax
   17065:	48 89 85 10 eb ff ff 	mov    %rax,-0x14f0(%rbp)
   1706c:	48 8d 85 90 e4 ff ff 	lea    -0x1b70(%rbp),%rax
   17073:	48 89 85 18 eb ff ff 	mov    %rax,-0x14e8(%rbp)
   1707a:	48 8d 85 90 e4 ff ff 	lea    -0x1b70(%rbp),%rax
   17081:	48 89 85 20 eb ff ff 	mov    %rax,-0x14e0(%rbp)
   17088:	48 c7 85 28 eb ff ff 	movq   $0x0,-0x14d8(%rbp)
   1708f:	00 00 00 00 
   17093:	48 8d 85 90 e4 ff ff 	lea    -0x1b70(%rbp),%rax
   1709a:	48 89 85 30 eb ff ff 	mov    %rax,-0x14d0(%rbp)
   170a1:	48 8d 85 90 e4 ff ff 	lea    -0x1b70(%rbp),%rax
   170a8:	48 89 85 38 eb ff ff 	mov    %rax,-0x14c8(%rbp)
   170af:	48 8d 85 90 e4 ff ff 	lea    -0x1b70(%rbp),%rax
   170b6:	48 89 85 40 eb ff ff 	mov    %rax,-0x14c0(%rbp)
   170bd:	48 8d 85 90 e4 ff ff 	lea    -0x1b70(%rbp),%rax
   170c4:	48 89 85 48 eb ff ff 	mov    %rax,-0x14b8(%rbp)
   170cb:	48 8d 85 90 e4 ff ff 	lea    -0x1b70(%rbp),%rax
   170d2:	48 89 85 50 eb ff ff 	mov    %rax,-0x14b0(%rbp)
   170d9:	48 8d 85 90 e4 ff ff 	lea    -0x1b70(%rbp),%rax
   170e0:	48 89 85 58 eb ff ff 	mov    %rax,-0x14a8(%rbp)
   170e7:	48 c7 85 60 eb ff ff 	movq   $0x0,-0x14a0(%rbp)
   170ee:	00 00 00 00 
   170f2:	48 c7 85 68 eb ff ff 	movq   $0x0,-0x1498(%rbp)
   170f9:	00 00 00 00 
   170fd:	48 8d 85 90 e4 ff ff 	lea    -0x1b70(%rbp),%rax
   17104:	48 89 85 70 eb ff ff 	mov    %rax,-0x1490(%rbp)
   1710b:	48 8d 85 90 e4 ff ff 	lea    -0x1b70(%rbp),%rax
   17112:	48 89 85 78 eb ff ff 	mov    %rax,-0x1488(%rbp)
   17119:	48 8d 85 90 e4 ff ff 	lea    -0x1b70(%rbp),%rax
   17120:	48 89 85 80 eb ff ff 	mov    %rax,-0x1480(%rbp)
   17127:	48 8d 85 90 e4 ff ff 	lea    -0x1b70(%rbp),%rax
   1712e:	48 89 85 88 eb ff ff 	mov    %rax,-0x1478(%rbp)
   17135:	48 c7 85 90 eb ff ff 	movq   $0x0,-0x1470(%rbp)
   1713c:	00 00 00 00 
   17140:	48 8d 85 90 e4 ff ff 	lea    -0x1b70(%rbp),%rax
   17147:	48 89 85 98 eb ff ff 	mov    %rax,-0x1468(%rbp)
   1714e:	48 8d 85 90 e4 ff ff 	lea    -0x1b70(%rbp),%rax
   17155:	48 89 85 a0 eb ff ff 	mov    %rax,-0x1460(%rbp)
   1715c:	48 8d 85 90 e4 ff ff 	lea    -0x1b70(%rbp),%rax
   17163:	48 89 85 a8 eb ff ff 	mov    %rax,-0x1458(%rbp)
   1716a:	48 c7 85 b0 eb ff ff 	movq   $0x0,-0x1450(%rbp)
   17171:	00 00 00 00 
   17175:	48 8d 85 90 e4 ff ff 	lea    -0x1b70(%rbp),%rax
   1717c:	48 89 85 b8 eb ff ff 	mov    %rax,-0x1448(%rbp)
   17183:	48 8d 85 90 e4 ff ff 	lea    -0x1b70(%rbp),%rax
   1718a:	48 89 85 c0 eb ff ff 	mov    %rax,-0x1440(%rbp)
   17191:	48 c7 85 c8 eb ff ff 	movq   $0x0,-0x1438(%rbp)
   17198:	00 00 00 00 
   1719c:	48 8d 85 90 e4 ff ff 	lea    -0x1b70(%rbp),%rax
   171a3:	48 89 85 d0 eb ff ff 	mov    %rax,-0x1430(%rbp)
   171aa:	48 8d 85 90 e4 ff ff 	lea    -0x1b70(%rbp),%rax
   171b1:	48 89 85 d8 eb ff ff 	mov    %rax,-0x1428(%rbp)
   171b8:	48 8d 85 90 e4 ff ff 	lea    -0x1b70(%rbp),%rax
   171bf:	48 89 85 e0 eb ff ff 	mov    %rax,-0x1420(%rbp)
   171c6:	48 8d 85 90 e4 ff ff 	lea    -0x1b70(%rbp),%rax
   171cd:	48 89 85 e8 eb ff ff 	mov    %rax,-0x1418(%rbp)
   171d4:	48 8d 85 b0 ea ff ff 	lea    -0x1550(%rbp),%rax
   171db:	48 83 c0 70          	add    $0x70,%rax
   171df:	48 89 85 08 e5 ff ff 	mov    %rax,-0x1af8(%rbp)
   171e6:	48 b8 59 7c be 34 e1 	movabs $0x2b4d1ee134be7c59,%rax
   171ed:	1e 4d 2b 
   171f0:	48 89 85 98 e4 ff ff 	mov    %rax,-0x1b68(%rbp)
   171f7:	c7 45 c2 01 01 01 01 	movl   $0x1010101,-0x3e(%rbp)
   171fe:	66 c7 45 c6 01 01    	movw   $0x101,-0x3a(%rbp)
   17204:	c6 85 a7 e3 ff ff 1f 	movb   $0x1f,-0x1c59(%rbp)
   1720b:	c7 85 28 e4 ff ff 00 	movl   $0x0,-0x1bd8(%rbp)
   17212:	00 00 00 
   17215:	c7 85 2c e4 ff ff 09 	movl   $0x5a486409,-0x1bd4(%rbp)
   1721c:	64 48 5a 
   1721f:	48 c7 85 10 e5 ff ff 	movq   $0x0,-0x1af0(%rbp)
   17226:	00 00 00 00 
   1722a:	48 b8 e4 dd 88 dd ac 	movabs $0x9ea7f3acdd88dde4,%rax
   17231:	f3 a7 9e 
   17234:	48 89 85 18 e5 ff ff 	mov    %rax,-0x1ae8(%rbp)
   1723b:	c7 85 dc e3 ff ff 00 	movl   $0x0,-0x1c24(%rbp)
   17242:	00 00 00 
   17245:	eb 1a                	jmp    17261 <func_47+0x3ee>
   17247:	8b 85 dc e3 ff ff    	mov    -0x1c24(%rbp),%eax
   1724d:	48 98                	cltq   
   1724f:	c7 84 85 a0 e7 ff ff 	movl   $0x5,-0x1860(%rbp,%rax,4)
   17256:	05 00 00 00 
   1725a:	83 85 dc e3 ff ff 01 	addl   $0x1,-0x1c24(%rbp)
   17261:	83 bd dc e3 ff ff 03 	cmpl   $0x3,-0x1c24(%rbp)
   17268:	7e dd                	jle    17247 <func_47+0x3d4>
   1726a:	90                   	nop
   1726b:	c7 05 2f 68 01 00 00 	movl   $0x0,0x1682f(%rip)        # 2daa4 <g_126>
   17272:	00 00 00 
   17275:	e9 1b 12 00 00       	jmpq   18495 <func_47+0x1622>
   1727a:	c7 85 d8 e3 ff ff 00 	movl   $0xa6ec0200,-0x1c28(%rbp)
   17281:	02 ec a6 
   17284:	c7 85 d4 e3 ff ff 3d 	movl   $0x3bde1c3d,-0x1c2c(%rbp)
   1728b:	1c de 3b 
   1728e:	c6 85 a8 e3 ff ff 1d 	movb   $0x1d,-0x1c58(%rbp)
   17295:	c7 85 30 e4 ff ff 28 	movl   $0x409f1c28,-0x1bd0(%rbp)
   1729c:	1c 9f 40 
   1729f:	c7 85 34 e4 ff ff ff 	movl   $0xffffffff,-0x1bcc(%rbp)
   172a6:	ff ff ff 
   172a9:	48 8d 05 68 01 01 00 	lea    0x10168(%rip),%rax        # 27418 <g_860>
   172b0:	48 89 85 20 e5 ff ff 	mov    %rax,-0x1ae0(%rbp)
   172b7:	48 c7 05 26 fe 00 00 	movq   $0x6,0xfe26(%rip)        # 270e8 <g_219>
   172be:	06 00 00 00 
   172c2:	e9 86 11 00 00       	jmpq   1844d <func_47+0x15da>
   172c7:	c7 85 d8 e4 ff ff 07 	movl   $0x7,-0x1b28(%rbp)
   172ce:	00 00 00 
   172d1:	48 8d 05 38 68 01 00 	lea    0x16838(%rip),%rax        # 2db10 <g_587>
   172d8:	48 89 85 28 e5 ff ff 	mov    %rax,-0x1ad8(%rbp)
   172df:	48 8d 85 90 e9 ff ff 	lea    -0x1670(%rbp),%rax
   172e6:	48 8d 15 b3 17 01 00 	lea    0x117b3(%rip),%rdx        # 28aa0 <g_3136+0x11a0>
   172ed:	b9 24 00 00 00       	mov    $0x24,%ecx
   172f2:	48 89 c7             	mov    %rax,%rdi
   172f5:	48 89 d6             	mov    %rdx,%rsi
   172f8:	f3 48 a5             	rep movsq %ds:(%rsi),%es:(%rdi)
   172fb:	48 8d 05 a6 fd 00 00 	lea    0xfda6(%rip),%rax        # 270a8 <g_146+0x28>
   17302:	48 89 85 30 e8 ff ff 	mov    %rax,-0x17d0(%rbp)
   17309:	48 8d 05 70 fd 00 00 	lea    0xfd70(%rip),%rax        # 27080 <g_146>
   17310:	48 89 85 38 e8 ff ff 	mov    %rax,-0x17c8(%rbp)
   17317:	48 8d 05 8a fd 00 00 	lea    0xfd8a(%rip),%rax        # 270a8 <g_146+0x28>
   1731e:	48 89 85 40 e8 ff ff 	mov    %rax,-0x17c0(%rbp)
   17325:	48 8d 05 54 fd 00 00 	lea    0xfd54(%rip),%rax        # 27080 <g_146>
   1732c:	48 89 85 48 e8 ff ff 	mov    %rax,-0x17b8(%rbp)
   17333:	48 8d 05 6e fd 00 00 	lea    0xfd6e(%rip),%rax        # 270a8 <g_146+0x28>
   1733a:	48 89 85 50 e8 ff ff 	mov    %rax,-0x17b0(%rbp)
   17341:	48 8d 05 38 fd 00 00 	lea    0xfd38(%rip),%rax        # 27080 <g_146>
   17348:	48 89 85 58 e8 ff ff 	mov    %rax,-0x17a8(%rbp)
   1734f:	48 8d 05 52 fd 00 00 	lea    0xfd52(%rip),%rax        # 270a8 <g_146+0x28>
   17356:	48 89 85 60 e8 ff ff 	mov    %rax,-0x17a0(%rbp)
   1735d:	48 8d 05 1c fd 00 00 	lea    0xfd1c(%rip),%rax        # 27080 <g_146>
   17364:	48 89 85 68 e8 ff ff 	mov    %rax,-0x1798(%rbp)
   1736b:	48 8d 05 36 fd 00 00 	lea    0xfd36(%rip),%rax        # 270a8 <g_146+0x28>
   17372:	48 89 85 70 e8 ff ff 	mov    %rax,-0x1790(%rbp)
   17379:	48 8d 85 f0 eb ff ff 	lea    -0x1410(%rbp),%rax
   17380:	48 8d 15 39 18 01 00 	lea    0x11839(%rip),%rdx        # 28bc0 <g_3136+0x12c0>
   17387:	b9 2a 00 00 00       	mov    $0x2a,%ecx
   1738c:	48 89 c7             	mov    %rax,%rdi
   1738f:	48 89 d6             	mov    %rdx,%rsi
   17392:	f3 48 a5             	rep movsq %ds:(%rsi),%es:(%rdi)
   17395:	48 8d 05 28 fd 00 00 	lea    0xfd28(%rip),%rax        # 270c4 <g_164>
   1739c:	48 89 85 80 e8 ff ff 	mov    %rax,-0x1780(%rbp)
   173a3:	48 8d 05 1a fd 00 00 	lea    0xfd1a(%rip),%rax        # 270c4 <g_164>
   173aa:	48 89 85 88 e8 ff ff 	mov    %rax,-0x1778(%rbp)
   173b1:	48 8d 05 0c fd 00 00 	lea    0xfd0c(%rip),%rax        # 270c4 <g_164>
   173b8:	48 89 85 90 e8 ff ff 	mov    %rax,-0x1770(%rbp)
   173bf:	48 8d 05 fe fc 00 00 	lea    0xfcfe(%rip),%rax        # 270c4 <g_164>
   173c6:	48 89 85 98 e8 ff ff 	mov    %rax,-0x1768(%rbp)
   173cd:	48 8d 05 f0 fc 00 00 	lea    0xfcf0(%rip),%rax        # 270c4 <g_164>
   173d4:	48 89 85 a0 e8 ff ff 	mov    %rax,-0x1760(%rbp)
   173db:	48 8d 05 e2 fc 00 00 	lea    0xfce2(%rip),%rax        # 270c4 <g_164>
   173e2:	48 89 85 a8 e8 ff ff 	mov    %rax,-0x1758(%rbp)
   173e9:	48 8d 05 d4 fc 00 00 	lea    0xfcd4(%rip),%rax        # 270c4 <g_164>
   173f0:	48 89 85 b0 e8 ff ff 	mov    %rax,-0x1750(%rbp)
   173f7:	48 8d 05 c6 fc 00 00 	lea    0xfcc6(%rip),%rax        # 270c4 <g_164>
   173fe:	48 89 85 b8 e8 ff ff 	mov    %rax,-0x1748(%rbp)
   17405:	48 8d 05 b8 fc 00 00 	lea    0xfcb8(%rip),%rax        # 270c4 <g_164>
   1740c:	48 89 85 c0 e8 ff ff 	mov    %rax,-0x1740(%rbp)
   17413:	48 8d 85 90 f2 ff ff 	lea    -0xd70(%rbp),%rax
   1741a:	48 8d 15 ff 18 01 00 	lea    0x118ff(%rip),%rdx        # 28d20 <g_3136+0x1420>
   17421:	b9 6c 00 00 00       	mov    $0x6c,%ecx
   17426:	48 89 c7             	mov    %rax,%rdi
   17429:	48 89 d6             	mov    %rdx,%rsi
   1742c:	f3 48 a5             	rep movsq %ds:(%rsi),%es:(%rdi)
   1742f:	48 8d 85 40 ed ff ff 	lea    -0x12c0(%rbp),%rax
   17436:	48 8d 15 43 1c 01 00 	lea    0x11c43(%rip),%rdx        # 29080 <g_3136+0x1780>
   1743d:	b9 46 00 00 00       	mov    $0x46,%ecx
   17442:	48 89 c7             	mov    %rax,%rdi
   17445:	48 89 d6             	mov    %rdx,%rsi
   17448:	f3 48 a5             	rep movsq %ds:(%rsi),%es:(%rdi)
   1744b:	48 8d 85 a4 e3 ff ff 	lea    -0x1c5c(%rbp),%rax
   17452:	48 89 85 30 e5 ff ff 	mov    %rax,-0x1ad0(%rbp)
   17459:	c7 85 c8 e3 ff ff 00 	movl   $0x0,-0x1c38(%rbp)
   17460:	00 00 00 
   17463:	eb 14                	jmp    17479 <func_47+0x606>
   17465:	8b 85 c8 e3 ff ff    	mov    -0x1c38(%rbp),%eax
   1746b:	48 98                	cltq   
   1746d:	c6 44 05 be fb       	movb   $0xfb,-0x42(%rbp,%rax,1)
   17472:	83 85 c8 e3 ff ff 01 	addl   $0x1,-0x1c38(%rbp)
   17479:	83 bd c8 e3 ff ff 03 	cmpl   $0x3,-0x1c38(%rbp)
   17480:	7e e3                	jle    17465 <func_47+0x5f2>
   17482:	48 c7 05 7b 66 01 00 	movq   $0x0,0x1667b(%rip)        # 2db08 <g_546>
   17489:	00 00 00 00 
   1748d:	90                   	nop
   1748e:	48 8b 05 73 66 01 00 	mov    0x16673(%rip),%rax        # 2db08 <g_546>
   17495:	48 83 f8 09          	cmp    $0x9,%rax
   17499:	0f 87 60 0c 00 00    	ja     180ff <func_47+0x128c>
   1749f:	c7 85 cc e3 ff ff 4e 	movl   $0xea22474e,-0x1c34(%rbp)
   174a6:	47 22 ea 
   174a9:	48 8d 85 70 ef ff ff 	lea    -0x1090(%rbp),%rax
   174b0:	48 8d 15 a9 ba 00 00 	lea    0xbaa9(%rip),%rdx        # 22f60 <g_1760+0xe00>
   174b7:	b9 64 00 00 00       	mov    $0x64,%ecx
   174bc:	48 89 c7             	mov    %rax,%rdi
   174bf:	48 89 d6             	mov    %rdx,%rsi
   174c2:	f3 48 a5             	rep movsq %ds:(%rsi),%es:(%rdi)
   174c5:	c7 85 38 e4 ff ff 9a 	movl   $0xf7f9d29a,-0x1bc8(%rbp)
   174cc:	d2 f9 f7 
   174cf:	48 8d 05 12 66 01 00 	lea    0x16612(%rip),%rax        # 2dae8 <g_269+0x28>
   174d6:	48 89 85 38 e5 ff ff 	mov    %rax,-0x1ac8(%rbp)
   174dd:	48 8d 05 2c fe 00 00 	lea    0xfe2c(%rip),%rax        # 27310 <g_728>
   174e4:	48 89 85 40 e5 ff ff 	mov    %rax,-0x1ac0(%rbp)
   174eb:	48 8d 05 9a fd 00 00 	lea    0xfd9a(%rip),%rax        # 2728c <g_727+0xc>
   174f2:	48 89 85 48 e5 ff ff 	mov    %rax,-0x1ab8(%rbp)
   174f9:	48 8d 05 1c fd 00 00 	lea    0xfd1c(%rip),%rax        # 2721c <g_721>
   17500:	48 89 85 50 e5 ff ff 	mov    %rax,-0x1ab0(%rbp)
   17507:	48 8d 05 06 fe 00 00 	lea    0xfe06(%rip),%rax        # 27314 <g_729>
   1750e:	48 89 85 58 e5 ff ff 	mov    %rax,-0x1aa8(%rbp)
   17515:	48 c7 85 60 e5 ff ff 	movq   $0x0,-0x1aa0(%rbp)
   1751c:	00 00 00 00 
   17520:	48 8d 05 fd fc 00 00 	lea    0xfcfd(%rip),%rax        # 27224 <g_723>
   17527:	48 89 85 68 e5 ff ff 	mov    %rax,-0x1a98(%rbp)
   1752e:	48 8d 05 1f fb 00 00 	lea    0xfb1f(%rip),%rax        # 27054 <g_97>
   17535:	48 89 85 70 e5 ff ff 	mov    %rax,-0x1a90(%rbp)
   1753c:	48 8d 05 85 fb 00 00 	lea    0xfb85(%rip),%rax        # 270c8 <g_211>
   17543:	48 89 85 78 e5 ff ff 	mov    %rax,-0x1a88(%rbp)
   1754a:	48 c7 85 80 e5 ff ff 	movq   $0x0,-0x1a80(%rbp)
   17551:	00 00 00 00 
   17555:	48 c7 85 88 e5 ff ff 	movq   $0x0,-0x1a78(%rbp)
   1755c:	00 00 00 00 
   17560:	48 8d 05 9d fc 00 00 	lea    0xfc9d(%rip),%rax        # 27204 <g_512>
   17567:	48 89 85 90 e5 ff ff 	mov    %rax,-0x1a70(%rbp)
   1756e:	48 8d 05 5b fb 00 00 	lea    0xfb5b(%rip),%rax        # 270d0 <g_212>
   17575:	48 89 85 98 e5 ff ff 	mov    %rax,-0x1a68(%rbp)
   1757c:	66 c7 05 3f fb 00 00 	movw   $0x2,0xfb3f(%rip)        # 270c4 <g_164>
   17583:	02 00 
   17585:	e9 b8 09 00 00       	jmpq   17f42 <func_47+0x10cf>
   1758a:	c7 85 e0 e4 ff ff 86 	movl   $0x2bc09786,-0x1b20(%rbp)
   17591:	97 c0 2b 
   17594:	48 8d 05 75 65 01 00 	lea    0x16575(%rip),%rax        # 2db10 <g_587>
   1759b:	48 89 85 20 e9 ff ff 	mov    %rax,-0x16e0(%rbp)
   175a2:	48 8d 05 67 65 01 00 	lea    0x16567(%rip),%rax        # 2db10 <g_587>
   175a9:	48 89 85 28 e9 ff ff 	mov    %rax,-0x16d8(%rbp)
   175b0:	48 8d 05 59 65 01 00 	lea    0x16559(%rip),%rax        # 2db10 <g_587>
   175b7:	48 89 85 30 e9 ff ff 	mov    %rax,-0x16d0(%rbp)
   175be:	48 8d 05 4b 65 01 00 	lea    0x1654b(%rip),%rax        # 2db10 <g_587>
   175c5:	48 89 85 38 e9 ff ff 	mov    %rax,-0x16c8(%rbp)
   175cc:	48 8d 05 3d 65 01 00 	lea    0x1653d(%rip),%rax        # 2db10 <g_587>
   175d3:	48 89 85 40 e9 ff ff 	mov    %rax,-0x16c0(%rbp)
   175da:	48 8d 05 2f 65 01 00 	lea    0x1652f(%rip),%rax        # 2db10 <g_587>
   175e1:	48 89 85 48 e9 ff ff 	mov    %rax,-0x16b8(%rbp)
   175e8:	48 8d 05 21 65 01 00 	lea    0x16521(%rip),%rax        # 2db10 <g_587>
   175ef:	48 89 85 50 e9 ff ff 	mov    %rax,-0x16b0(%rbp)
   175f6:	48 8d 05 13 65 01 00 	lea    0x16513(%rip),%rax        # 2db10 <g_587>
   175fd:	48 89 85 58 e9 ff ff 	mov    %rax,-0x16a8(%rbp)
   17604:	48 8d 05 05 65 01 00 	lea    0x16505(%rip),%rax        # 2db10 <g_587>
   1760b:	48 89 85 60 e9 ff ff 	mov    %rax,-0x16a0(%rbp)
   17612:	48 8d 05 f7 64 01 00 	lea    0x164f7(%rip),%rax        # 2db10 <g_587>
   17619:	48 89 85 68 e9 ff ff 	mov    %rax,-0x1698(%rbp)
   17620:	48 8d 05 e9 64 01 00 	lea    0x164e9(%rip),%rax        # 2db10 <g_587>
   17627:	48 89 85 70 e9 ff ff 	mov    %rax,-0x1690(%rbp)
   1762e:	48 8d 05 db 64 01 00 	lea    0x164db(%rip),%rax        # 2db10 <g_587>
   17635:	48 89 85 78 e9 ff ff 	mov    %rax,-0x1688(%rbp)
   1763c:	48 8d 05 cd 64 01 00 	lea    0x164cd(%rip),%rax        # 2db10 <g_587>
   17643:	48 89 85 80 e9 ff ff 	mov    %rax,-0x1680(%rbp)
   1764a:	48 8d 05 bf 64 01 00 	lea    0x164bf(%rip),%rax        # 2db10 <g_587>
   17651:	48 89 85 88 e9 ff ff 	mov    %rax,-0x1678(%rbp)
   17658:	c7 85 d0 e3 ff ff 57 	movl   $0x43a4a357,-0x1c30(%rbp)
   1765f:	a3 a4 43 
   17662:	48 8d 85 30 f8 ff ff 	lea    -0x7d0(%rbp),%rax
   17669:	48 8d 15 50 1c 01 00 	lea    0x11c50(%rip),%rdx        # 292c0 <g_3136+0x19c0>
   17670:	b9 f0 00 00 00       	mov    $0xf0,%ecx
   17675:	48 89 c7             	mov    %rax,%rdi
   17678:	48 89 d6             	mov    %rdx,%rsi
   1767b:	f3 48 a5             	rep movsq %ds:(%rsi),%es:(%rdi)
   1767e:	c7 85 3c e4 ff ff b3 	movl   $0x248e48b3,-0x1bc4(%rbp)
   17685:	48 8e 24 
   17688:	c7 85 e0 e3 ff ff 00 	movl   $0x0,-0x1c20(%rbp)
   1768f:	00 00 00 
   17692:	eb 1e                	jmp    176b2 <func_47+0x83f>
   17694:	8b 85 e0 e3 ff ff    	mov    -0x1c20(%rbp),%eax
   1769a:	48 98                	cltq   
   1769c:	48 8d 15 35 fa 00 00 	lea    0xfa35(%rip),%rdx        # 270d8 <g_213>
   176a3:	48 89 94 c5 00 e8 ff 	mov    %rdx,-0x1800(%rbp,%rax,8)
   176aa:	ff 
   176ab:	83 85 e0 e3 ff ff 01 	addl   $0x1,-0x1c20(%rbp)
   176b2:	83 bd e0 e3 ff ff 05 	cmpl   $0x5,-0x1c20(%rbp)
   176b9:	7e d9                	jle    17694 <func_47+0x821>
   176bb:	c7 05 13 fa 00 00 01 	movl   $0x1,0xfa13(%rip)        # 270d8 <g_213>
   176c2:	00 00 00 
   176c5:	e9 74 01 00 00       	jmpq   1783e <func_47+0x9cb>
   176ca:	48 8d 05 7f f9 00 00 	lea    0xf97f(%rip),%rax        # 27050 <g_87>
   176d1:	48 89 85 a0 e5 ff ff 	mov    %rax,-0x1a60(%rbp)
   176d8:	66 c7 85 b4 e3 ff ff 	movw   $0xc2ca,-0x1c4c(%rbp)
   176df:	ca c2 
   176e1:	8b 05 f1 f9 00 00    	mov    0xf9f1(%rip),%eax        # 270d8 <g_213>
   176e7:	89 c0                	mov    %eax,%eax
   176e9:	48 8d 14 c5 00 00 00 	lea    0x0(,%rax,8),%rdx
   176f0:	00 
   176f1:	48 8d 05 c8 63 01 00 	lea    0x163c8(%rip),%rax        # 2dac0 <g_269>
   176f8:	48 8b 04 02          	mov    (%rdx,%rax,1),%rax
   176fc:	48 85 c0             	test   %rax,%rax
   176ff:	0f 85 4a 01 00 00    	jne    1784f <func_47+0x9dc>
   17705:	48 8b 85 a0 e5 ff ff 	mov    -0x1a60(%rbp),%rax
   1770c:	c7 00 00 00 00 00    	movl   $0x0,(%rax)
   17712:	44 0f bf b5 b4 e3 ff 	movswl -0x1c4c(%rbp),%r14d
   17719:	ff 
   1771a:	48 8b 85 88 e3 ff ff 	mov    -0x1c78(%rbp),%rax
   17721:	0f b6 d8             	movzbl %al,%ebx
   17724:	48 8b 85 88 e3 ff ff 	mov    -0x1c78(%rbp),%rax
   1772b:	41 89 c7             	mov    %eax,%r15d
   1772e:	44 0f bf a5 98 e3 ff 	movswl -0x1c68(%rbp),%r12d
   17735:	ff 
   17736:	48 8b 85 10 e8 ff ff 	mov    -0x17f0(%rbp),%rax
   1773d:	48 85 c0             	test   %rax,%rax
   17740:	0f 95 c0             	setne  %al
   17743:	89 c2                	mov    %eax,%edx
   17745:	8b 85 e0 e4 ff ff    	mov    -0x1b20(%rbp),%eax
   1774b:	09 d0                	or     %edx,%eax
   1774d:	44 0f be e8          	movsbl %al,%r13d
   17751:	c6 05 73 f9 00 00 23 	movb   $0x23,0xf973(%rip)        # 270cb <g_211+0x3>
   17758:	0f be 85 9c e3 ff ff 	movsbl -0x1c64(%rbp),%eax
   1775f:	be 00 00 00 00       	mov    $0x0,%esi
   17764:	89 c7                	mov    %eax,%edi
   17766:	e8 65 97 ff ff       	callq  10ed0 <safe_sub_func_uint32_t_u_u>
   1776b:	85 c0                	test   %eax,%eax
   1776d:	75 0c                	jne    1777b <func_47+0x908>
   1776f:	0f b7 05 90 fa 00 00 	movzwl 0xfa90(%rip),%eax        # 27206 <g_514>
   17776:	66 85 c0             	test   %ax,%ax
   17779:	74 07                	je     17782 <func_47+0x90f>
   1777b:	b8 01 00 00 00       	mov    $0x1,%eax
   17780:	eb 05                	jmp    17787 <func_47+0x914>
   17782:	b8 00 00 00 00       	mov    $0x0,%eax
   17787:	0f be c0             	movsbl %al,%eax
   1778a:	44 89 ee             	mov    %r13d,%esi
   1778d:	89 c7                	mov    %eax,%edi
   1778f:	e8 9d 8a ff ff       	callq  10231 <safe_mod_func_int8_t_s_s>
   17794:	0f b7 85 98 e3 ff ff 	movzwl -0x1c68(%rbp),%eax
   1779b:	66 35 a8 bb          	xor    $0xbba8,%ax
   1779f:	89 c2                	mov    %eax,%edx
   177a1:	8b 85 d8 e4 ff ff    	mov    -0x1b28(%rbp),%eax
   177a7:	21 d0                	and    %edx,%eax
   177a9:	98                   	cwtl   
   177aa:	44 89 e6             	mov    %r12d,%esi
   177ad:	89 c7                	mov    %eax,%edi
   177af:	e8 76 8d ff ff       	callq  1052a <safe_rshift_func_int16_t_s_s>
   177b4:	8b 85 d8 e4 ff ff    	mov    -0x1b28(%rbp),%eax
   177ba:	48 63 d0             	movslq %eax,%rdx
   177bd:	48 8b 05 fc 3c 01 00 	mov    0x13cfc(%rip),%rax        # 2b4c0 <g_296>
   177c4:	48 8b 00             	mov    (%rax),%rax
   177c7:	48 8b 00             	mov    (%rax),%rax
   177ca:	48 39 c2             	cmp    %rax,%rdx
   177cd:	0f 9c c0             	setl   %al
   177d0:	0f b6 c0             	movzbl %al,%eax
   177d3:	89 c6                	mov    %eax,%esi
   177d5:	bf ff ff ff ff       	mov    $0xffffffff,%edi
   177da:	e8 f5 89 ff ff       	callq  101d4 <safe_add_func_int8_t_s_s>
   177df:	0f be 85 9c e3 ff ff 	movsbl -0x1c64(%rbp),%eax
   177e6:	44 89 fe             	mov    %r15d,%esi
   177e9:	89 c7                	mov    %eax,%edi
   177eb:	e8 15 8e ff ff       	callq  10605 <safe_sub_func_int32_t_s_s>
   177f0:	0f be c0             	movsbl %al,%eax
   177f3:	be 02 00 00 00       	mov    $0x2,%esi
   177f8:	89 c7                	mov    %eax,%edi
   177fa:	e8 ef 8a ff ff       	callq  102ee <safe_lshift_func_int8_t_s_u>
   177ff:	0f b6 c0             	movzbl %al,%eax
   17802:	89 de                	mov    %ebx,%esi
   17804:	89 c7                	mov    %eax,%edi
   17806:	e8 4f 93 ff ff       	callq  10b5a <safe_add_func_uint8_t_u_u>
   1780b:	0f b6 c0             	movzbl %al,%eax
   1780e:	41 39 c6             	cmp    %eax,%r14d
   17811:	0f 9d c0             	setge  %al
   17814:	0f b6 c0             	movzbl %al,%eax
   17817:	21 85 d8 e3 ff ff    	and    %eax,-0x1c28(%rbp)
   1781d:	48 8b 85 a0 e5 ff ff 	mov    -0x1a60(%rbp),%rax
   17824:	8b 10                	mov    (%rax),%edx
   17826:	48 8b 85 a0 e5 ff ff 	mov    -0x1a60(%rbp),%rax
   1782d:	89 10                	mov    %edx,(%rax)
   1782f:	8b 05 a3 f8 00 00    	mov    0xf8a3(%rip),%eax        # 270d8 <g_213>
   17835:	83 c0 01             	add    $0x1,%eax
   17838:	89 05 9a f8 00 00    	mov    %eax,0xf89a(%rip)        # 270d8 <g_213>
   1783e:	8b 05 94 f8 00 00    	mov    0xf894(%rip),%eax        # 270d8 <g_213>
   17844:	83 f8 06             	cmp    $0x6,%eax
   17847:	0f 86 7d fe ff ff    	jbe    176ca <func_47+0x857>
   1784d:	eb 01                	jmp    17850 <func_47+0x9dd>
   1784f:	90                   	nop
   17850:	c7 05 66 f8 00 00 00 	movl   $0x0,0xf866(%rip)        # 270c0 <g_149>
   17857:	00 00 00 
   1785a:	e9 e9 01 00 00       	jmpq   17a48 <func_47+0xbd5>
   1785f:	48 8d 05 60 f8 00 00 	lea    0xf860(%rip),%rax        # 270c6 <g_192>
   17866:	48 89 85 e0 e5 ff ff 	mov    %rax,-0x1a20(%rbp)
   1786d:	c7 85 40 e4 ff ff 3e 	movl   $0x70ded63e,-0x1bc0(%rbp)
   17874:	d6 de 70 
   17877:	48 8d 05 e2 f7 00 00 	lea    0xf7e2(%rip),%rax        # 27060 <g_113>
   1787e:	48 89 85 e8 e5 ff ff 	mov    %rax,-0x1a18(%rbp)
   17885:	48 c7 85 d0 e8 ff ff 	movq   $0x0,-0x1730(%rbp)
   1788c:	00 00 00 00 
   17890:	48 8d 85 d8 e4 ff ff 	lea    -0x1b28(%rbp),%rax
   17897:	48 89 85 d8 e8 ff ff 	mov    %rax,-0x1728(%rbp)
   1789e:	48 c7 85 e0 e8 ff ff 	movq   $0x0,-0x1720(%rbp)
   178a5:	00 00 00 00 
   178a9:	48 c7 85 e8 e8 ff ff 	movq   $0x0,-0x1718(%rbp)
   178b0:	00 00 00 00 
   178b4:	48 8d 85 d8 e4 ff ff 	lea    -0x1b28(%rbp),%rax
   178bb:	48 89 85 f0 e8 ff ff 	mov    %rax,-0x1710(%rbp)
   178c2:	48 c7 85 f8 e8 ff ff 	movq   $0x0,-0x1708(%rbp)
   178c9:	00 00 00 00 
   178cd:	48 c7 85 00 e9 ff ff 	movq   $0x0,-0x1700(%rbp)
   178d4:	00 00 00 00 
   178d8:	48 8b 85 88 e3 ff ff 	mov    -0x1c78(%rbp),%rax
   178df:	0f be d8             	movsbl %al,%ebx
   178e2:	66 0f be 85 9c e3 ff 	movsbw -0x1c64(%rbp),%ax
   178e9:	ff 
   178ea:	44 0f b7 e0          	movzwl %ax,%r12d
   178ee:	8b 05 e4 f7 00 00    	mov    0xf7e4(%rip),%eax        # 270d8 <g_213>
   178f4:	be fe ff ff ff       	mov    $0xfffffffe,%esi
   178f9:	89 c7                	mov    %eax,%edi
   178fb:	e8 b8 95 ff ff       	callq  10eb8 <safe_add_func_uint32_t_u_u>
   17900:	48 8b 95 88 e3 ff ff 	mov    -0x1c78(%rbp),%rdx
   17907:	48 8b 05 6a f8 00 00 	mov    0xf86a(%rip),%rax        # 27178 <g_268>
   1790e:	48 39 c2             	cmp    %rax,%rdx
   17911:	0f 97 c0             	seta   %al
   17914:	89 c2                	mov    %eax,%edx
   17916:	48 8b 85 e0 e5 ff ff 	mov    -0x1a20(%rbp),%rax
   1791d:	88 10                	mov    %dl,(%rax)
   1791f:	be 0f 00 00 00       	mov    $0xf,%esi
   17924:	bf 00 00 00 00       	mov    $0x0,%edi
   17929:	e8 b3 8b ff ff       	callq  104e1 <safe_lshift_func_int16_t_s_u>
   1792e:	66 0b 85 98 e3 ff ff 	or     -0x1c68(%rbp),%ax
   17935:	66 85 c0             	test   %ax,%ax
   17938:	79 11                	jns    1794b <func_47+0xad8>
   1793a:	66 83 bd 98 e3 ff ff 	cmpw   $0x0,-0x1c68(%rbp)
   17941:	00 
   17942:	74 07                	je     1794b <func_47+0xad8>
   17944:	ba 01 00 00 00       	mov    $0x1,%edx
   17949:	eb 05                	jmp    17950 <func_47+0xadd>
   1794b:	ba 00 00 00 00       	mov    $0x0,%edx
   17950:	0f b7 05 b9 f8 00 00 	movzwl 0xf8b9(%rip),%eax        # 27210 <g_545>
   17957:	98                   	cwtl   
   17958:	39 c2                	cmp    %eax,%edx
   1795a:	0f bf 85 98 e3 ff ff 	movswl -0x1c68(%rbp),%eax
   17961:	89 c6                	mov    %eax,%esi
   17963:	bf 91 6e c1 f1       	mov    $0xf1c16e91,%edi
   17968:	e8 b8 95 ff ff       	callq  10f25 <safe_div_func_uint32_t_u_u>
   1796d:	0f be c0             	movsbl %al,%eax
   17970:	be 7b 00 00 00       	mov    $0x7b,%esi
   17975:	89 c7                	mov    %eax,%edi
   17977:	e8 58 88 ff ff       	callq  101d4 <safe_add_func_int8_t_s_s>
   1797c:	0f be c0             	movsbl %al,%eax
   1797f:	89 85 40 e4 ff ff    	mov    %eax,-0x1bc0(%rbp)
   17985:	8b 85 40 e4 ff ff    	mov    -0x1bc0(%rbp),%eax
   1798b:	0f b7 c0             	movzwl %ax,%eax
   1798e:	be 04 00 00 00       	mov    $0x4,%esi
   17993:	89 c7                	mov    %eax,%edi
   17995:	e8 6c 94 ff ff       	callq  10e06 <safe_lshift_func_uint16_t_u_u>
   1799a:	48 8b 85 80 e9 ff ff 	mov    -0x1680(%rbp),%rax
   179a1:	48 39 85 28 e5 ff ff 	cmp    %rax,-0x1ad8(%rbp)
   179a8:	0f 95 c0             	setne  %al
   179ab:	0f b6 c0             	movzbl %al,%eax
   179ae:	89 85 d8 e3 ff ff    	mov    %eax,-0x1c28(%rbp)
   179b4:	48 8b 85 e8 e5 ff ff 	mov    -0x1a18(%rbp),%rax
   179bb:	48 c7 00 01 00 00 00 	movq   $0x1,(%rax)
   179c2:	ba 01 00 00 00       	mov    $0x1,%edx
   179c7:	8b 85 d8 e4 ff ff    	mov    -0x1b28(%rbp),%eax
   179cd:	39 c2                	cmp    %eax,%edx
   179cf:	7f 0a                	jg     179db <func_47+0xb68>
   179d1:	66 83 bd 98 e3 ff ff 	cmpw   $0x0,-0x1c68(%rbp)
   179d8:	00 
   179d9:	74 07                	je     179e2 <func_47+0xb6f>
   179db:	b8 01 00 00 00       	mov    $0x1,%eax
   179e0:	eb 05                	jmp    179e7 <func_47+0xb74>
   179e2:	b8 00 00 00 00       	mov    $0x0,%eax
   179e7:	0f bf d0             	movswl %ax,%edx
   179ea:	0f b6 05 db f6 00 00 	movzbl 0xf6db(%rip),%eax        # 270cc <g_211+0x4>
   179f1:	84 c0                	test   %al,%al
   179f3:	0f 94 c0             	sete   %al
   179f6:	0f b6 c0             	movzbl %al,%eax
   179f9:	89 d6                	mov    %edx,%esi
   179fb:	89 c7                	mov    %eax,%edi
   179fd:	e8 d1 89 ff ff       	callq  103d3 <safe_sub_func_int16_t_s_s>
   17a02:	0f b7 c0             	movzwl %ax,%eax
   17a05:	44 89 e6             	mov    %r12d,%esi
   17a08:	89 c7                	mov    %eax,%edi
   17a0a:	e8 10 93 ff ff       	callq  10d1f <safe_sub_func_uint16_t_u_u>
   17a0f:	0f be c0             	movsbl %al,%eax
   17a12:	89 de                	mov    %ebx,%esi
   17a14:	89 c7                	mov    %eax,%edi
   17a16:	e8 16 88 ff ff       	callq  10231 <safe_mod_func_int8_t_s_s>
   17a1b:	0f be c0             	movsbl %al,%eax
   17a1e:	89 85 d4 e3 ff ff    	mov    %eax,-0x1c2c(%rbp)
   17a24:	48 8b 05 85 3a 01 00 	mov    0x13a85(%rip),%rax        # 2b4b0 <g_119>
   17a2b:	48 c7 00 00 00 00 00 	movq   $0x0,(%rax)
   17a32:	83 85 d0 e3 ff ff 01 	addl   $0x1,-0x1c30(%rbp)
   17a39:	8b 05 81 f6 00 00    	mov    0xf681(%rip),%eax        # 270c0 <g_149>
   17a3f:	83 c0 01             	add    $0x1,%eax
   17a42:	89 05 78 f6 00 00    	mov    %eax,0xf678(%rip)        # 270c0 <g_149>
   17a48:	8b 05 72 f6 00 00    	mov    0xf672(%rip),%eax        # 270c0 <g_149>
   17a4e:	83 f8 03             	cmp    $0x3,%eax
   17a51:	0f 86 08 fe ff ff    	jbe    1785f <func_47+0x9ec>
   17a57:	48 8b 85 88 e3 ff ff 	mov    -0x1c78(%rbp),%rax
   17a5e:	89 85 d8 e4 ff ff    	mov    %eax,-0x1b28(%rbp)
   17a64:	8b 85 d8 e4 ff ff    	mov    -0x1b28(%rbp),%eax
   17a6a:	85 c0                	test   %eax,%eax
   17a6c:	0f 84 be 04 00 00    	je     17f30 <func_47+0x10bd>
   17a72:	48 8d 85 e0 e4 ff ff 	lea    -0x1b20(%rbp),%rax
   17a79:	48 89 85 a8 e5 ff ff 	mov    %rax,-0x1a58(%rbp)
   17a80:	48 c7 85 b0 e5 ff ff 	movq   $0x0,-0x1a50(%rbp)
   17a87:	00 00 00 00 
   17a8b:	48 8d 05 72 f7 00 00 	lea    0xf772(%rip),%rax        # 27204 <g_512>
   17a92:	48 89 85 b8 e5 ff ff 	mov    %rax,-0x1a48(%rbp)
   17a99:	48 8d 05 66 f7 00 00 	lea    0xf766(%rip),%rax        # 27206 <g_514>
   17aa0:	48 89 85 c0 e5 ff ff 	mov    %rax,-0x1a40(%rbp)
   17aa7:	48 8d 05 a2 60 01 00 	lea    0x160a2(%rip),%rax        # 2db50 <g_717+0x10>
   17aae:	48 89 85 c8 e5 ff ff 	mov    %rax,-0x1a38(%rbp)
   17ab5:	48 8d 05 c8 f6 00 00 	lea    0xf6c8(%rip),%rax        # 27184 <g_340>
   17abc:	48 89 85 d0 e5 ff ff 	mov    %rax,-0x1a30(%rbp)
   17ac3:	48 8d 05 f6 5f 01 00 	lea    0x15ff6(%rip),%rax        # 2dac0 <g_269>
   17aca:	48 89 85 d8 e5 ff ff 	mov    %rax,-0x1a28(%rbp)
   17ad1:	48 8d 05 08 f6 00 00 	lea    0xf608(%rip),%rax        # 270e0 <g_216>
   17ad8:	48 89 85 d0 e8 ff ff 	mov    %rax,-0x1730(%rbp)
   17adf:	48 8d 05 fa f5 00 00 	lea    0xf5fa(%rip),%rax        # 270e0 <g_216>
   17ae6:	48 89 85 d8 e8 ff ff 	mov    %rax,-0x1728(%rbp)
   17aed:	48 8d 05 ec f5 00 00 	lea    0xf5ec(%rip),%rax        # 270e0 <g_216>
   17af4:	48 89 85 e0 e8 ff ff 	mov    %rax,-0x1720(%rbp)
   17afb:	48 8d 05 de f5 00 00 	lea    0xf5de(%rip),%rax        # 270e0 <g_216>
   17b02:	48 89 85 e8 e8 ff ff 	mov    %rax,-0x1718(%rbp)
   17b09:	48 8d 05 d0 f5 00 00 	lea    0xf5d0(%rip),%rax        # 270e0 <g_216>
   17b10:	48 89 85 f0 e8 ff ff 	mov    %rax,-0x1710(%rbp)
   17b17:	48 8d 05 c2 f5 00 00 	lea    0xf5c2(%rip),%rax        # 270e0 <g_216>
   17b1e:	48 89 85 f8 e8 ff ff 	mov    %rax,-0x1708(%rbp)
   17b25:	48 8d 05 b4 f5 00 00 	lea    0xf5b4(%rip),%rax        # 270e0 <g_216>
   17b2c:	48 89 85 00 e9 ff ff 	mov    %rax,-0x1700(%rbp)
   17b33:	48 8d 05 a6 f5 00 00 	lea    0xf5a6(%rip),%rax        # 270e0 <g_216>
   17b3a:	48 89 85 08 e9 ff ff 	mov    %rax,-0x16f8(%rbp)
   17b41:	48 8d 05 98 f5 00 00 	lea    0xf598(%rip),%rax        # 270e0 <g_216>
   17b48:	48 89 85 10 e9 ff ff 	mov    %rax,-0x16f0(%rbp)
   17b4f:	48 8d 05 8a f5 00 00 	lea    0xf58a(%rip),%rax        # 270e0 <g_216>
   17b56:	48 89 85 18 e9 ff ff 	mov    %rax,-0x16e8(%rbp)
   17b5d:	48 8b 85 a8 e5 ff ff 	mov    -0x1a58(%rbp),%rax
   17b64:	8b 95 d4 e3 ff ff    	mov    -0x1c2c(%rbp),%edx
   17b6a:	89 10                	mov    %edx,(%rax)
   17b6c:	0f b7 85 98 e3 ff ff 	movzwl -0x1c68(%rbp),%eax
   17b73:	0f b7 d8             	movzwl %ax,%ebx
   17b76:	8b 85 dc ef ff ff    	mov    -0x1024(%rbp),%eax
   17b7c:	41 89 c4             	mov    %eax,%r12d
   17b7f:	48 8b 85 c0 e5 ff ff 	mov    -0x1a40(%rbp),%rax
   17b86:	0f b7 00             	movzwl (%rax),%eax
   17b89:	89 c1                	mov    %eax,%ecx
   17b8b:	48 8b 85 38 ea ff ff 	mov    -0x15c8(%rbp),%rax
   17b92:	48 8d 15 37 39 01 00 	lea    0x13937(%rip),%rdx        # 2b4d0 <g_325>
   17b99:	48 39 d0             	cmp    %rdx,%rax
   17b9c:	74 14                	je     17bb2 <func_47+0xd3f>
   17b9e:	48 8b 85 a8 e5 ff ff 	mov    -0x1a58(%rbp),%rax
   17ba5:	8b 00                	mov    (%rax),%eax
   17ba7:	85 c0                	test   %eax,%eax
   17ba9:	74 07                	je     17bb2 <func_47+0xd3f>
   17bab:	b8 01 00 00 00       	mov    $0x1,%eax
   17bb0:	eb 05                	jmp    17bb7 <func_47+0xd44>
   17bb2:	b8 00 00 00 00       	mov    $0x0,%eax
   17bb7:	31 c8                	xor    %ecx,%eax
   17bb9:	89 c2                	mov    %eax,%edx
   17bbb:	48 8b 85 c0 e5 ff ff 	mov    -0x1a40(%rbp),%rax
   17bc2:	66 89 10             	mov    %dx,(%rax)
   17bc5:	48 8b 85 c0 e5 ff ff 	mov    -0x1a40(%rbp),%rax
   17bcc:	0f b7 00             	movzwl (%rax),%eax
   17bcf:	8d 50 ff             	lea    -0x1(%rax),%edx
   17bd2:	48 8b 85 c0 e5 ff ff 	mov    -0x1a40(%rbp),%rax
   17bd9:	66 89 10             	mov    %dx,(%rax)
   17bdc:	48 8b 15 95 5f 01 00 	mov    0x15f95(%rip),%rdx        # 2db78 <g_717+0x38>
   17be3:	48 8b 85 c8 e5 ff ff 	mov    -0x1a38(%rbp),%rax
   17bea:	48 89 10             	mov    %rdx,(%rax)
   17bed:	48 8b 85 c8 e5 ff ff 	mov    -0x1a38(%rbp),%rax
   17bf4:	48 8b 00             	mov    (%rax),%rax
   17bf7:	48 8d 15 92 3a 01 00 	lea    0x13a92(%rip),%rdx        # 2b690 <g_718>
   17bfe:	48 39 d0             	cmp    %rdx,%rax
   17c01:	0f 95 c0             	setne  %al
   17c04:	0f b6 d0             	movzbl %al,%edx
   17c07:	48 8b 85 d0 e5 ff ff 	mov    -0x1a30(%rbp),%rax
   17c0e:	66 89 10             	mov    %dx,(%rax)
   17c11:	48 8b 85 d0 e5 ff ff 	mov    -0x1a30(%rbp),%rax
   17c18:	0f b7 10             	movzwl (%rax),%edx
   17c1b:	0f b6 05 a6 f4 00 00 	movzbl 0xf4a6(%rip),%eax        # 270c8 <g_211>
   17c22:	0f b6 c0             	movzbl %al,%eax
   17c25:	66 39 c2             	cmp    %ax,%dx
   17c28:	0f 96 c0             	setbe  %al
   17c2b:	0f b6 c0             	movzbl %al,%eax
   17c2e:	89 c7                	mov    %eax,%edi
   17c30:	e8 8a 85 ff ff       	callq  101bf <safe_unary_minus_func_int8_t_s>
   17c35:	0f be c0             	movsbl %al,%eax
   17c38:	89 c7                	mov    %eax,%edi
   17c3a:	e8 67 92 ff ff       	callq  10ea6 <safe_unary_minus_func_uint32_t_u>
   17c3f:	8b 85 38 e4 ff ff    	mov    -0x1bc8(%rbp),%eax
   17c45:	89 85 e0 e4 ff ff    	mov    %eax,-0x1b20(%rbp)
   17c4b:	8b 85 e0 e4 ff ff    	mov    -0x1b20(%rbp),%eax
   17c51:	0f b6 c0             	movzbl %al,%eax
   17c54:	be 03 00 00 00       	mov    $0x3,%esi
   17c59:	89 c7                	mov    %eax,%edi
   17c5b:	e8 5e 90 ff ff       	callq  10cbe <safe_rshift_func_uint8_t_u_u>
   17c60:	0f b6 15 61 f4 00 00 	movzbl 0xf461(%rip),%edx        # 270c8 <g_211>
   17c67:	38 d0                	cmp    %dl,%al
   17c69:	0f 96 c0             	setbe  %al
   17c6c:	0f b6 c0             	movzbl %al,%eax
   17c6f:	39 85 d0 e3 ff ff    	cmp    %eax,-0x1c30(%rbp)
   17c75:	75 09                	jne    17c80 <func_47+0xe0d>
   17c77:	80 bd 9c e3 ff ff 00 	cmpb   $0x0,-0x1c64(%rbp)
   17c7e:	74 07                	je     17c87 <func_47+0xe14>
   17c80:	b8 01 00 00 00       	mov    $0x1,%eax
   17c85:	eb 05                	jmp    17c8c <func_47+0xe19>
   17c87:	b8 00 00 00 00       	mov    $0x0,%eax
   17c8c:	0f be c0             	movsbl %al,%eax
   17c8f:	be ff ff ff ff       	mov    $0xffffffff,%esi
   17c94:	89 c7                	mov    %eax,%edi
   17c96:	e8 77 85 ff ff       	callq  10212 <safe_mul_func_int8_t_s_s>
   17c9b:	48 0f be d0          	movsbq %al,%rdx
   17c9f:	48 8b 85 d8 e5 ff ff 	mov    -0x1a28(%rbp),%rax
   17ca6:	48 89 10             	mov    %rdx,(%rax)
   17ca9:	48 8b 85 a8 e5 ff ff 	mov    -0x1a58(%rbp),%rax
   17cb0:	8b 00                	mov    (%rax),%eax
   17cb2:	be ff ff ff ff       	mov    $0xffffffff,%esi
   17cb7:	89 c7                	mov    %eax,%edi
   17cb9:	e8 41 8a ff ff       	callq  106ff <safe_div_func_int32_t_s_s>
   17cbe:	39 85 d0 e3 ff ff    	cmp    %eax,-0x1c30(%rbp)
   17cc4:	0f 92 c0             	setb   %al
   17cc7:	0f b6 d0             	movzbl %al,%edx
   17cca:	0f bf 85 98 e3 ff ff 	movswl -0x1c68(%rbp),%eax
   17cd1:	39 c2                	cmp    %eax,%edx
   17cd3:	0f 95 c0             	setne  %al
   17cd6:	0f b6 d0             	movzbl %al,%edx
   17cd9:	0f be 85 9c e3 ff ff 	movsbl -0x1c64(%rbp),%eax
   17ce0:	21 c2                	and    %eax,%edx
   17ce2:	8b 85 d8 e4 ff ff    	mov    -0x1b28(%rbp),%eax
   17ce8:	89 d6                	mov    %edx,%esi
   17cea:	89 c7                	mov    %eax,%edi
   17cec:	e8 c5 88 ff ff       	callq  105b6 <safe_add_func_int32_t_s_s>
   17cf1:	89 c2                	mov    %eax,%edx
   17cf3:	8b 85 3c e4 ff ff    	mov    -0x1bc4(%rbp),%eax
   17cf9:	89 c6                	mov    %eax,%esi
   17cfb:	89 d7                	mov    %edx,%edi
   17cfd:	e8 b4 88 ff ff       	callq  105b6 <safe_add_func_int32_t_s_s>
   17d02:	89 c2                	mov    %eax,%edx
   17d04:	0f b6 45 be          	movzbl -0x42(%rbp),%eax
   17d08:	21 d0                	and    %edx,%eax
   17d0a:	88 45 be             	mov    %al,-0x42(%rbp)
   17d0d:	0f b6 45 be          	movzbl -0x42(%rbp),%eax
   17d11:	0f be d0             	movsbl %al,%edx
   17d14:	8b 05 1a f4 00 00    	mov    0xf41a(%rip),%eax        # 27134 <g_220+0x34>
   17d1a:	39 c2                	cmp    %eax,%edx
   17d1c:	0f 95 c0             	setne  %al
   17d1f:	0f b6 c0             	movzbl %al,%eax
   17d22:	8b 95 d0 e3 ff ff    	mov    -0x1c30(%rbp),%edx
   17d28:	89 d6                	mov    %edx,%esi
   17d2a:	89 c7                	mov    %eax,%edi
   17d2c:	e8 9f 91 ff ff       	callq  10ed0 <safe_sub_func_uint32_t_u_u>
   17d31:	48 c7 c0 fd ff ff ff 	mov    $0xfffffffffffffffd,%rax
   17d38:	48 3d af 00 00 00    	cmp    $0xaf,%rax
   17d3e:	0f 9f c0             	setg   %al
   17d41:	0f b6 c0             	movzbl %al,%eax
   17d44:	44 89 e6             	mov    %r12d,%esi
   17d47:	89 c7                	mov    %eax,%edi
   17d49:	e8 2c 91 ff ff       	callq  10e7a <safe_rshift_func_uint16_t_u_u>
   17d4e:	0f b7 c0             	movzwl %ax,%eax
   17d51:	89 de                	mov    %ebx,%esi
   17d53:	89 c7                	mov    %eax,%edi
   17d55:	e8 34 90 ff ff       	callq  10d8e <safe_div_func_uint16_t_u_u>
   17d5a:	0f be d0             	movsbl %al,%edx
   17d5d:	0f b7 05 f4 f2 00 00 	movzwl 0xf2f4(%rip),%eax        # 27058 <g_104>
   17d64:	83 f0 08             	xor    $0x8,%eax
   17d67:	66 89 05 ea f2 00 00 	mov    %ax,0xf2ea(%rip)        # 27058 <g_104>
   17d6e:	0f b7 05 e3 f2 00 00 	movzwl 0xf2e3(%rip),%eax        # 27058 <g_104>
   17d75:	89 c1                	mov    %eax,%ecx
   17d77:	48 8b 85 b8 e5 ff ff 	mov    -0x1a48(%rbp),%rax
   17d7e:	88 08                	mov    %cl,(%rax)
   17d80:	48 8b 85 b8 e5 ff ff 	mov    -0x1a48(%rbp),%rax
   17d87:	0f b6 00             	movzbl (%rax),%eax
   17d8a:	0f be c0             	movsbl %al,%eax
   17d8d:	89 d6                	mov    %edx,%esi
   17d8f:	89 c7                	mov    %eax,%edi
   17d91:	e8 d4 84 ff ff       	callq  1026a <safe_div_func_int8_t_s_s>
   17d96:	38 85 9c e3 ff ff    	cmp    %al,-0x1c64(%rbp)
   17d9c:	7f 07                	jg     17da5 <func_47+0xf32>
   17d9e:	b8 01 00 00 00       	mov    $0x1,%eax
   17da3:	eb 05                	jmp    17daa <func_47+0xf37>
   17da5:	b8 00 00 00 00       	mov    $0x0,%eax
   17daa:	3b 85 d4 e3 ff ff    	cmp    -0x1c2c(%rbp),%eax
   17db0:	0f 9c c0             	setl   %al
   17db3:	0f b6 c0             	movzbl %al,%eax
   17db6:	89 85 d8 e3 ff ff    	mov    %eax,-0x1c28(%rbp)
   17dbc:	0f bf 9d 98 e3 ff ff 	movswl -0x1c68(%rbp),%ebx
   17dc3:	8b 85 c4 f1 ff ff    	mov    -0xe3c(%rbp),%eax
   17dc9:	89 c2                	mov    %eax,%edx
   17dcb:	48 8b 05 b6 f2 00 00 	mov    0xf2b6(%rip),%rax        # 27088 <g_146+0x8>
   17dd2:	31 c2                	xor    %eax,%edx
   17dd4:	41 89 d7             	mov    %edx,%r15d
   17dd7:	8b 85 b8 e3 ff ff    	mov    -0x1c48(%rbp),%eax
   17ddd:	44 0f b6 e0          	movzbl %al,%r12d
   17de1:	8b 85 d8 e3 ff ff    	mov    -0x1c28(%rbp),%eax
   17de7:	44 0f b7 e8          	movzwl %ax,%r13d
   17deb:	48 8b 05 ce 36 01 00 	mov    0x136ce(%rip),%rax        # 2b4c0 <g_296>
   17df2:	48 8b 00             	mov    (%rax),%rax
   17df5:	48 8b 00             	mov    (%rax),%rax
   17df8:	48 83 f8 05          	cmp    $0x5,%rax
   17dfc:	74 20                	je     17e1e <func_47+0xfab>
   17dfe:	8b 05 4c f3 00 00    	mov    0xf34c(%rip),%eax        # 27150 <g_220+0x50>
   17e04:	0f be c0             	movsbl %al,%eax
   17e07:	be 00 00 00 00       	mov    $0x0,%esi
   17e0c:	89 c7                	mov    %eax,%edi
   17e0e:	e8 db 84 ff ff       	callq  102ee <safe_lshift_func_int8_t_s_u>
   17e13:	84 c0                	test   %al,%al
   17e15:	74 07                	je     17e1e <func_47+0xfab>
   17e17:	b8 01 00 00 00       	mov    $0x1,%eax
   17e1c:	eb 05                	jmp    17e23 <func_47+0xfb0>
   17e1e:	b8 00 00 00 00       	mov    $0x0,%eax
   17e23:	66 89 85 80 e3 ff ff 	mov    %ax,-0x1c80(%rbp)
   17e2a:	0f b7 85 b0 e3 ff ff 	movzwl -0x1c50(%rbp),%eax
   17e31:	44 0f bf f0          	movswl %ax,%r14d
   17e35:	be 07 00 00 00       	mov    $0x7,%esi
   17e3a:	bf ff 00 00 00       	mov    $0xff,%edi
   17e3f:	e8 49 8e ff ff       	callq  10c8d <safe_rshift_func_uint8_t_u_s>
   17e44:	0f b6 c0             	movzbl %al,%eax
   17e47:	44 89 f6             	mov    %r14d,%esi
   17e4a:	89 c7                	mov    %eax,%edi
   17e4c:	e8 82 85 ff ff       	callq  103d3 <safe_sub_func_int16_t_s_s>
   17e51:	98                   	cwtl   
   17e52:	be f8 ff ff ff       	mov    $0xfffffff8,%esi
   17e57:	89 c7                	mov    %eax,%edi
   17e59:	e8 6e 88 ff ff       	callq  106cc <safe_mod_func_int32_t_s_s>
   17e5e:	0f b7 85 98 e3 ff ff 	movzwl -0x1c68(%rbp),%eax
   17e65:	0f be c0             	movsbl %al,%eax
   17e68:	be f3 00 00 00       	mov    $0xf3,%esi
   17e6d:	89 c7                	mov    %eax,%edi
   17e6f:	e8 f8 84 ff ff       	callq  1036c <safe_rshift_func_int8_t_s_u>
   17e74:	66 98                	cbtw   
   17e76:	66 33 85 80 e3 ff ff 	xor    -0x1c80(%rbp),%ax
   17e7d:	0f b7 c0             	movzwl %ax,%eax
   17e80:	44 89 ee             	mov    %r13d,%esi
   17e83:	89 c7                	mov    %eax,%edi
   17e85:	e8 04 8f ff ff       	callq  10d8e <safe_div_func_uint16_t_u_u>
   17e8a:	0f bf 85 98 e3 ff ff 	movswl -0x1c68(%rbp),%eax
   17e91:	89 85 cc e3 ff ff    	mov    %eax,-0x1c34(%rbp)
   17e97:	83 bd cc e3 ff ff 00 	cmpl   $0x0,-0x1c34(%rbp)
   17e9e:	74 14                	je     17eb4 <func_47+0x1041>
   17ea0:	48 8b 85 a8 e5 ff ff 	mov    -0x1a58(%rbp),%rax
   17ea7:	8b 00                	mov    (%rax),%eax
   17ea9:	85 c0                	test   %eax,%eax
   17eab:	74 07                	je     17eb4 <func_47+0x1041>
   17ead:	b8 01 00 00 00       	mov    $0x1,%eax
   17eb2:	eb 05                	jmp    17eb9 <func_47+0x1046>
   17eb4:	b8 00 00 00 00       	mov    $0x0,%eax
   17eb9:	3d ff ff 00 00       	cmp    $0xffff,%eax
   17ebe:	0f 96 c0             	setbe  %al
   17ec1:	0f b6 c0             	movzbl %al,%eax
   17ec4:	be d3 ff ff ff       	mov    $0xffffffd3,%esi
   17ec9:	89 c7                	mov    %eax,%edi
   17ecb:	e8 22 83 ff ff       	callq  101f2 <safe_sub_func_int8_t_s_s>
   17ed0:	48 0f be d0          	movsbq %al,%rdx
   17ed4:	48 8b 85 88 e3 ff ff 	mov    -0x1c78(%rbp),%rax
   17edb:	48 39 c2             	cmp    %rax,%rdx
   17ede:	0f 95 c0             	setne  %al
   17ee1:	0f b6 c0             	movzbl %al,%eax
   17ee4:	44 89 e6             	mov    %r12d,%esi
   17ee7:	89 c7                	mov    %eax,%edi
   17ee9:	e8 a5 8c ff ff       	callq  10b93 <safe_mul_func_uint8_t_u_u>
   17eee:	44 21 f8             	and    %r15d,%eax
   17ef1:	f7 d0                	not    %eax
   17ef3:	0f b6 c0             	movzbl %al,%eax
   17ef6:	89 de                	mov    %ebx,%esi
   17ef8:	89 c7                	mov    %eax,%edi
   17efa:	e8 8e 8d ff ff       	callq  10c8d <safe_rshift_func_uint8_t_u_s>
   17eff:	0f b6 c0             	movzbl %al,%eax
   17f02:	33 85 d4 e3 ff ff    	xor    -0x1c2c(%rbp),%eax
   17f08:	39 85 d8 e3 ff ff    	cmp    %eax,-0x1c28(%rbp)
   17f0e:	0f 9d c0             	setge  %al
   17f11:	0f b6 d0             	movzbl %al,%edx
   17f14:	48 8b 85 a8 e5 ff ff 	mov    -0x1a58(%rbp),%rax
   17f1b:	89 10                	mov    %edx,(%rax)
   17f1d:	0f b7 05 a0 f1 00 00 	movzwl 0xf1a0(%rip),%eax        # 270c4 <g_164>
   17f24:	83 c0 01             	add    $0x1,%eax
   17f27:	66 89 05 96 f1 00 00 	mov    %ax,0xf196(%rip)        # 270c4 <g_164>
   17f2e:	eb 12                	jmp    17f42 <func_47+0x10cf>
   17f30:	48 8b 05 89 35 01 00 	mov    0x13589(%rip),%rax        # 2b4c0 <g_296>
   17f37:	48 8b 00             	mov    (%rax),%rax
   17f3a:	48 8b 00             	mov    (%rax),%rax
   17f3d:	e9 41 37 00 00       	jmpq   1b683 <func_47+0x4810>
   17f42:	0f b7 05 7b f1 00 00 	movzwl 0xf17b(%rip),%eax        # 270c4 <g_164>
   17f49:	66 83 f8 09          	cmp    $0x9,%ax
   17f4d:	0f 86 37 f6 ff ff    	jbe    1758a <func_47+0x717>
   17f53:	48 8b 85 38 e5 ff ff 	mov    -0x1ac8(%rbp),%rax
   17f5a:	48 8b 18             	mov    (%rax),%rbx
   17f5d:	48 8d 53 01          	lea    0x1(%rbx),%rdx
   17f61:	48 8b 85 38 e5 ff ff 	mov    -0x1ac8(%rbp),%rax
   17f68:	48 89 10             	mov    %rdx,(%rax)
   17f6b:	8b 05 df f0 00 00    	mov    0xf0df(%rip),%eax        # 27050 <g_87>
   17f71:	0f be c0             	movsbl %al,%eax
   17f74:	be 06 00 00 00       	mov    $0x6,%esi
   17f79:	89 c7                	mov    %eax,%edi
   17f7b:	e8 b5 83 ff ff       	callq  10335 <safe_rshift_func_int8_t_s_s>
   17f80:	48 0f be c0          	movsbq %al,%rax
   17f84:	48 89 de             	mov    %rbx,%rsi
   17f87:	48 89 c7             	mov    %rax,%rdi
   17f8a:	e8 f1 90 ff ff       	callq  11080 <safe_mod_func_uint64_t_u_u>
   17f8f:	66 0f be 85 9c e3 ff 	movsbw -0x1c64(%rbp),%ax
   17f96:	ff 
   17f97:	0f b7 c0             	movzwl %ax,%eax
   17f9a:	be 07 00 00 00       	mov    $0x7,%esi
   17f9f:	89 c7                	mov    %eax,%edi
   17fa1:	e8 d4 8e ff ff       	callq  10e7a <safe_rshift_func_uint16_t_u_u>
   17fa6:	66 85 c0             	test   %ax,%ax
   17fa9:	0f 84 36 01 00 00    	je     180e5 <func_47+0x1272>
   17faf:	0f be 9d 9c e3 ff ff 	movsbl -0x1c64(%rbp),%ebx
   17fb6:	48 8b 85 88 e3 ff ff 	mov    -0x1c78(%rbp),%rax
   17fbd:	0f b6 c0             	movzbl %al,%eax
   17fc0:	be 06 00 00 00       	mov    $0x6,%esi
   17fc5:	89 c7                	mov    %eax,%edi
   17fc7:	e8 80 8c ff ff       	callq  10c4c <safe_lshift_func_uint8_t_u_u>
   17fcc:	41 89 c7             	mov    %eax,%r15d
   17fcf:	0f b7 85 98 e3 ff ff 	movzwl -0x1c68(%rbp),%eax
   17fd6:	44 0f b6 e0          	movzbl %al,%r12d
   17fda:	8b 85 cc e3 ff ff    	mov    -0x1c34(%rbp),%eax
   17fe0:	4c 63 e8             	movslq %eax,%r13
   17fe3:	48 8b 85 70 e5 ff ff 	mov    -0x1a90(%rbp),%rax
   17fea:	8b 00                	mov    (%rax),%eax
   17fec:	35 ac f6 fd d8       	xor    $0xd8fdf6ac,%eax
   17ff1:	89 c2                	mov    %eax,%edx
   17ff3:	48 8b 85 70 e5 ff ff 	mov    -0x1a90(%rbp),%rax
   17ffa:	89 10                	mov    %edx,(%rax)
   17ffc:	44 0f bf b5 98 e3 ff 	movswl -0x1c68(%rbp),%r14d
   18003:	ff 
   18004:	0f b7 05 fb f1 00 00 	movzwl 0xf1fb(%rip),%eax        # 27206 <g_514>
   1800b:	0f b7 d0             	movzwl %ax,%edx
   1800e:	83 bd 38 e4 ff ff 00 	cmpl   $0x0,-0x1bc8(%rbp)
   18015:	74 11                	je     18028 <func_47+0x11b5>
   18017:	66 83 bd 98 e3 ff ff 	cmpw   $0x0,-0x1c68(%rbp)
   1801e:	00 
   1801f:	74 07                	je     18028 <func_47+0x11b5>
   18021:	b8 01 00 00 00       	mov    $0x1,%eax
   18026:	eb 05                	jmp    1802d <func_47+0x11ba>
   18028:	b8 00 00 00 00       	mov    $0x0,%eax
   1802d:	98                   	cwtl   
   1802e:	89 d6                	mov    %edx,%esi
   18030:	89 c7                	mov    %eax,%edi
   18032:	e8 aa 84 ff ff       	callq  104e1 <safe_lshift_func_int16_t_s_u>
   18037:	66 83 f8 f6          	cmp    $0xfff6,%ax
   1803b:	0f 94 c0             	sete   %al
   1803e:	0f b6 c0             	movzbl %al,%eax
   18041:	be 02 00 00 00       	mov    $0x2,%esi
   18046:	89 c7                	mov    %eax,%edi
   18048:	e8 1f 83 ff ff       	callq  1036c <safe_rshift_func_int8_t_s_u>
   1804d:	0f be c0             	movsbl %al,%eax
   18050:	25 1d b0 8a 60       	and    $0x608ab01d,%eax
   18055:	44 89 f6             	mov    %r14d,%esi
   18058:	89 c7                	mov    %eax,%edi
   1805a:	e8 c6 8e ff ff       	callq  10f25 <safe_div_func_uint32_t_u_u>
   1805f:	48 8b 85 78 e5 ff ff 	mov    -0x1a88(%rbp),%rax
   18066:	c6 00 01             	movb   $0x1,(%rax)
   18069:	48 8b 85 78 e5 ff ff 	mov    -0x1a88(%rbp),%rax
   18070:	0f b6 00             	movzbl (%rax),%eax
   18073:	0f b6 d0             	movzbl %al,%edx
   18076:	0f bf 85 98 e3 ff ff 	movswl -0x1c68(%rbp),%eax
   1807d:	39 c2                	cmp    %eax,%edx
   1807f:	0f 9f c0             	setg   %al
   18082:	0f b6 c0             	movzbl %al,%eax
   18085:	4c 89 ee             	mov    %r13,%rsi
   18088:	48 89 c7             	mov    %rax,%rdi
   1808b:	e8 9e 8f ff ff       	callq  1102e <safe_add_func_uint64_t_u_u>
   18090:	0f b6 c0             	movzbl %al,%eax
   18093:	44 89 e6             	mov    %r12d,%esi
   18096:	89 c7                	mov    %eax,%edi
   18098:	e8 f6 8a ff ff       	callq  10b93 <safe_mul_func_uint8_t_u_u>
   1809d:	89 c2                	mov    %eax,%edx
   1809f:	48 8b 85 90 e5 ff ff 	mov    -0x1a70(%rbp),%rax
   180a6:	88 10                	mov    %dl,(%rax)
   180a8:	48 8b 85 98 e5 ff ff 	mov    -0x1a68(%rbp),%rax
   180af:	48 c7 00 01 00 00 00 	movq   $0x1,(%rax)
   180b6:	48 8b 85 98 e5 ff ff 	mov    -0x1a68(%rbp),%rax
   180bd:	48 8b 00             	mov    (%rax),%rax
   180c0:	44 21 f8             	and    %r15d,%eax
   180c3:	0f be c0             	movsbl %al,%eax
   180c6:	89 de                	mov    %ebx,%esi
   180c8:	89 c7                	mov    %eax,%edi
   180ca:	e8 9b 81 ff ff       	callq  1026a <safe_div_func_int8_t_s_s>
   180cf:	48 0f be d0          	movsbq %al,%rdx
   180d3:	48 8b 05 2e f3 00 00 	mov    0xf32e(%rip),%rax        # 27408 <g_803>
   180da:	48 31 d0             	xor    %rdx,%rax
   180dd:	48 89 05 24 f3 00 00 	mov    %rax,0xf324(%rip)        # 27408 <g_803>
   180e4:	90                   	nop
   180e5:	b8 88 97 16 25       	mov    $0x25169788,%eax
   180ea:	31 85 d8 e3 ff ff    	xor    %eax,-0x1c28(%rbp)
   180f0:	48 8b 05 c1 33 01 00 	mov    0x133c1(%rip),%rax        # 2b4b8 <g_297>
   180f7:	48 8b 00             	mov    (%rax),%rax
   180fa:	e9 84 35 00 00       	jmpq   1b683 <func_47+0x4810>
   180ff:	0f b6 9d a8 e3 ff ff 	movzbl -0x1c58(%rbp),%ebx
   18106:	44 0f b6 a5 a8 e3 ff 	movzbl -0x1c58(%rbp),%r12d
   1810d:	ff 
   1810e:	48 8b 05 d3 33 01 00 	mov    0x133d3(%rip),%rax        # 2b4e8 <g_450>
   18115:	0f b6 00             	movzbl (%rax),%eax
   18118:	44 0f b6 e8          	movzbl %al,%r13d
   1811c:	0f b7 85 b0 e3 ff ff 	movzwl -0x1c50(%rbp),%eax
   18123:	44 0f bf f0          	movswl %ax,%r14d
   18127:	44 0f b6 bd a8 e3 ff 	movzbl -0x1c58(%rbp),%r15d
   1812e:	ff 
   1812f:	48 8b 05 b2 ef 00 00 	mov    0xefb2(%rip),%rax        # 270e8 <g_219>
   18136:	48 8d 14 c5 00 00 00 	lea    0x0(,%rax,8),%rdx
   1813d:	00 
   1813e:	48 8d 05 7b 59 01 00 	lea    0x1597b(%rip),%rax        # 2dac0 <g_269>
   18145:	48 8b 04 02          	mov    (%rdx,%rax,1),%rax
   18149:	48 89 05 80 ef 00 00 	mov    %rax,0xef80(%rip)        # 270d0 <g_212>
   18150:	48 8b 05 79 ef 00 00 	mov    0xef79(%rip),%rax        # 270d0 <g_212>
   18157:	48 89 85 80 e3 ff ff 	mov    %rax,-0x1c80(%rbp)
   1815e:	48 8b 05 23 ef 00 00 	mov    0xef23(%rip),%rax        # 27088 <g_146+0x8>
   18165:	48 89 85 78 e3 ff ff 	mov    %rax,-0x1c88(%rbp)
   1816c:	0f b6 bd a8 e3 ff ff 	movzbl -0x1c58(%rbp),%edi
   18173:	89 bd 74 e3 ff ff    	mov    %edi,-0x1c8c(%rbp)
   18179:	48 8b 05 38 33 01 00 	mov    0x13338(%rip),%rax        # 2b4b8 <g_297>
   18180:	48 8b 00             	mov    (%rax),%rax
   18183:	48 89 85 68 e3 ff ff 	mov    %rax,-0x1c98(%rbp)
   1818a:	0f b7 85 98 e3 ff ff 	movzwl -0x1c68(%rbp),%eax
   18191:	0f b7 c0             	movzwl %ax,%eax
   18194:	8b 95 c0 e7 ff ff    	mov    -0x1840(%rbp),%edx
   1819a:	89 d1                	mov    %edx,%ecx
   1819c:	8b 15 6e f2 00 00    	mov    0xf26e(%rip),%edx        # 27410 <g_849>
   181a2:	09 ca                	or     %ecx,%edx
   181a4:	89 95 c0 e7 ff ff    	mov    %edx,-0x1840(%rbp)
   181aa:	48 8b 95 88 e3 ff ff 	mov    -0x1c78(%rbp),%rdx
   181b1:	89 d1                	mov    %edx,%ecx
   181b3:	8b 95 d4 e3 ff ff    	mov    -0x1c2c(%rbp),%edx
   181b9:	21 ca                	and    %ecx,%edx
   181bb:	89 95 d4 e3 ff ff    	mov    %edx,-0x1c2c(%rbp)
   181c1:	89 c6                	mov    %eax,%esi
   181c3:	bf f6 53 00 00       	mov    $0x53f6,%edi
   181c8:	e8 32 8b ff ff       	callq  10cff <safe_add_func_uint16_t_u_u>
   181cd:	be 04 00 00 00       	mov    $0x4,%esi
   181d2:	bf 01 00 00 00       	mov    $0x1,%edi
   181d7:	e8 87 83 ff ff       	callq  10563 <safe_rshift_func_int16_t_s_u>
   181dc:	0f bf d0             	movswl %ax,%edx
   181df:	8b 05 6b ef 00 00    	mov    0xef6b(%rip),%eax        # 27150 <g_220+0x50>
   181e5:	39 c2                	cmp    %eax,%edx
   181e7:	0f 92 c0             	setb   %al
   181ea:	0f b6 c0             	movzbl %al,%eax
   181ed:	48 8b b5 68 e3 ff ff 	mov    -0x1c98(%rbp),%rsi
   181f4:	48 89 c7             	mov    %rax,%rdi
   181f7:	e8 b3 8e ff ff       	callq  110af <safe_div_func_uint64_t_u_u>
   181fc:	89 c2                	mov    %eax,%edx
   181fe:	0f b6 85 a8 e3 ff ff 	movzbl -0x1c58(%rbp),%eax
   18205:	31 d0                	xor    %edx,%eax
   18207:	0f bf d0             	movswl %ax,%edx
   1820a:	48 8b 05 d7 ee 00 00 	mov    0xeed7(%rip),%rax        # 270e8 <g_219>
   18211:	48 8d 0c c5 00 00 00 	lea    0x0(,%rax,8),%rcx
   18218:	00 
   18219:	48 8d 05 40 32 01 00 	lea    0x13240(%rip),%rax        # 2b460 <g_120>
   18220:	48 8b 04 01          	mov    (%rcx,%rax,1),%rax
   18224:	48 85 c0             	test   %rax,%rax
   18227:	0f 95 c0             	setne  %al
   1822a:	0f b6 c0             	movzbl %al,%eax
   1822d:	89 d6                	mov    %edx,%esi
   1822f:	89 c7                	mov    %eax,%edi
   18231:	e8 7d 81 ff ff       	callq  103b3 <safe_add_func_int16_t_s_s>
   18236:	8b b5 74 e3 ff ff    	mov    -0x1c8c(%rbp),%esi
   1823c:	bf ff ff 00 00       	mov    $0xffff,%edi
   18241:	e8 b9 8a ff ff       	callq  10cff <safe_add_func_uint16_t_u_u>
   18246:	0f b6 d0             	movzbl %al,%edx
   18249:	0f b6 85 9c e3 ff ff 	movzbl -0x1c64(%rbp),%eax
   18250:	0f b6 c0             	movzbl %al,%eax
   18253:	89 d6                	mov    %edx,%esi
   18255:	89 c7                	mov    %eax,%edi
   18257:	e8 7f 89 ff ff       	callq  10bdb <safe_div_func_uint8_t_u_u>
   1825c:	0f b6 d0             	movzbl %al,%edx
   1825f:	0f be 85 9c e3 ff ff 	movsbl -0x1c64(%rbp),%eax
   18266:	39 c2                	cmp    %eax,%edx
   18268:	0f 9f c0             	setg   %al
   1826b:	0f b6 c0             	movzbl %al,%eax
   1826e:	be 0c 00 00 00       	mov    $0xc,%esi
   18273:	89 c7                	mov    %eax,%edi
   18275:	e8 b0 82 ff ff       	callq  1052a <safe_rshift_func_int16_t_s_s>
   1827a:	0f b6 d0             	movzbl %al,%edx
   1827d:	0f b6 85 a4 e3 ff ff 	movzbl -0x1c5c(%rbp),%eax
   18284:	0f b6 c0             	movzbl %al,%eax
   18287:	89 85 d8 e3 ff ff    	mov    %eax,-0x1c28(%rbp)
   1828d:	8b 85 d8 e3 ff ff    	mov    -0x1c28(%rbp),%eax
   18293:	48 63 c8             	movslq %eax,%rcx
   18296:	48 8b 85 88 e3 ff ff 	mov    -0x1c78(%rbp),%rax
   1829d:	48 39 c1             	cmp    %rax,%rcx
   182a0:	0f 97 c0             	seta   %al
   182a3:	0f b6 c0             	movzbl %al,%eax
   182a6:	89 d6                	mov    %edx,%esi
   182a8:	89 c7                	mov    %eax,%edi
   182aa:	e8 e4 88 ff ff       	callq  10b93 <safe_mul_func_uint8_t_u_u>
   182af:	0f b6 d0             	movzbl %al,%edx
   182b2:	48 8b 85 88 e3 ff ff 	mov    -0x1c78(%rbp),%rax
   182b9:	48 31 d0             	xor    %rdx,%rax
   182bc:	48 8b b5 78 e3 ff ff 	mov    -0x1c88(%rbp),%rsi
   182c3:	48 89 c7             	mov    %rax,%rdi
   182c6:	e8 dd 85 ff ff       	callq  108a8 <safe_sub_func_int64_t_s_s>
   182cb:	8b 85 24 e4 ff ff    	mov    -0x1bdc(%rbp),%eax
   182d1:	89 85 30 e4 ff ff    	mov    %eax,-0x1bd0(%rbp)
   182d7:	8b 85 30 e4 ff ff    	mov    -0x1bd0(%rbp),%eax
   182dd:	98                   	cwtl   
   182de:	be 08 00 00 00       	mov    $0x8,%esi
   182e3:	89 c7                	mov    %eax,%edi
   182e5:	e8 79 82 ff ff       	callq  10563 <safe_rshift_func_int16_t_s_u>
   182ea:	89 c2                	mov    %eax,%edx
   182ec:	48 8b 85 30 e5 ff ff 	mov    -0x1ad0(%rbp),%rax
   182f3:	88 10                	mov    %dl,(%rax)
   182f5:	48 8b 85 30 e5 ff ff 	mov    -0x1ad0(%rbp),%rax
   182fc:	0f b6 00             	movzbl (%rax),%eax
   182ff:	0f be c0             	movsbl %al,%eax
   18302:	c7 85 b8 e3 ff ff 00 	movl   $0x0,-0x1c48(%rbp)
   18309:	00 00 00 
   1830c:	89 c6                	mov    %eax,%esi
   1830e:	bf 00 00 00 00       	mov    $0x0,%edi
   18313:	e8 fa 7e ff ff       	callq  10212 <safe_mul_func_int8_t_s_s>
   18318:	48 0f be c0          	movsbq %al,%rax
   1831c:	48 39 85 80 e3 ff ff 	cmp    %rax,-0x1c80(%rbp)
   18323:	0f 93 c0             	setae  %al
   18326:	0f b6 c0             	movzbl %al,%eax
   18329:	44 89 fe             	mov    %r15d,%esi
   1832c:	89 c7                	mov    %eax,%edi
   1832e:	e8 83 82 ff ff       	callq  105b6 <safe_add_func_int32_t_s_s>
   18333:	34 b1                	xor    $0xb1,%al
   18335:	83 f8 02             	cmp    $0x2,%eax
   18338:	0f 9e c0             	setle  %al
   1833b:	0f b6 c0             	movzbl %al,%eax
   1833e:	89 85 34 e4 ff ff    	mov    %eax,-0x1bcc(%rbp)
   18344:	8b 85 34 e4 ff ff    	mov    -0x1bcc(%rbp),%eax
   1834a:	0f b6 c0             	movzbl %al,%eax
   1834d:	89 c7                	mov    %eax,%edi
   1834f:	e8 f1 87 ff ff       	callq  10b45 <safe_unary_minus_func_uint8_t_u>
   18354:	0f b6 c0             	movzbl %al,%eax
   18357:	89 c6                	mov    %eax,%esi
   18359:	bf 98 84 ff ff       	mov    $0xffff8498,%edi
   1835e:	e8 70 80 ff ff       	callq  103d3 <safe_sub_func_int16_t_s_s>
   18363:	98                   	cwtl   
   18364:	44 89 f6             	mov    %r14d,%esi
   18367:	89 c7                	mov    %eax,%edi
   18369:	e8 87 80 ff ff       	callq  103f5 <safe_mul_func_int16_t_s_s>
   1836e:	66 0b 85 98 e3 ff ff 	or     -0x1c68(%rbp),%ax
   18375:	48 0f bf d0          	movswq %ax,%rdx
   18379:	48 8b 85 88 e3 ff ff 	mov    -0x1c78(%rbp),%rax
   18380:	48 39 c2             	cmp    %rax,%rdx
   18383:	0f 95 c0             	setne  %al
   18386:	0f b6 d0             	movzbl %al,%edx
   18389:	48 8b 05 30 31 01 00 	mov    0x13130(%rip),%rax        # 2b4c0 <g_296>
   18390:	48 8b 00             	mov    (%rax),%rax
   18393:	48 8b 00             	mov    (%rax),%rax
   18396:	48 39 c2             	cmp    %rax,%rdx
   18399:	0f 95 c0             	setne  %al
   1839c:	0f b6 c0             	movzbl %al,%eax
   1839f:	be fd ff ff ff       	mov    $0xfffffffd,%esi
   183a4:	89 c7                	mov    %eax,%edi
   183a6:	e8 6b 80 ff ff       	callq  10416 <safe_mod_func_int16_t_s_s>
   183ab:	48 0f bf d0          	movswq %ax,%rdx
   183af:	48 8b 05 02 31 01 00 	mov    0x13102(%rip),%rax        # 2b4b8 <g_297>
   183b6:	48 8b 00             	mov    (%rax),%rax
   183b9:	48 39 c2             	cmp    %rax,%rdx
   183bc:	0f 9c c0             	setl   %al
   183bf:	0f b6 c0             	movzbl %al,%eax
   183c2:	39 85 24 e4 ff ff    	cmp    %eax,-0x1bdc(%rbp)
   183c8:	7c 07                	jl     183d1 <func_47+0x155e>
   183ca:	83 bd d8 e3 ff ff 00 	cmpl   $0x0,-0x1c28(%rbp)
   183d1:	be 02 00 00 00       	mov    $0x2,%esi
   183d6:	bf 00 00 00 00       	mov    $0x0,%edi
   183db:	e8 4a 81 ff ff       	callq  1052a <safe_rshift_func_int16_t_s_s>
   183e0:	0f b6 c0             	movzbl %al,%eax
   183e3:	44 89 ee             	mov    %r13d,%esi
   183e6:	89 c7                	mov    %eax,%edi
   183e8:	e8 d1 88 ff ff       	callq  10cbe <safe_rshift_func_uint8_t_u_u>
   183ed:	0f b6 c0             	movzbl %al,%eax
   183f0:	44 89 e6             	mov    %r12d,%esi
   183f3:	89 c7                	mov    %eax,%edi
   183f5:	e8 7e 87 ff ff       	callq  10b78 <safe_sub_func_uint8_t_u_u>
   183fa:	0f b6 c0             	movzbl %al,%eax
   183fd:	89 de                	mov    %ebx,%esi
   183ff:	89 c7                	mov    %eax,%edi
   18401:	e8 74 8a ff ff       	callq  10e7a <safe_rshift_func_uint16_t_u_u>
   18406:	0f b7 d0             	movzwl %ax,%edx
   18409:	0f bf 85 98 e3 ff ff 	movswl -0x1c68(%rbp),%eax
   18410:	39 c2                	cmp    %eax,%edx
   18412:	7c 07                	jl     1841b <func_47+0x15a8>
   18414:	b8 09 00 00 00       	mov    $0x9,%eax
   18419:	eb 05                	jmp    18420 <func_47+0x15ad>
   1841b:	b8 08 00 00 00       	mov    $0x8,%eax
   18420:	89 05 2a ec 00 00    	mov    %eax,0xec2a(%rip)        # 27050 <g_87>
   18426:	0f bf 95 98 e3 ff ff 	movswl -0x1c68(%rbp),%edx
   1842d:	8b 85 b8 e3 ff ff    	mov    -0x1c48(%rbp),%eax
   18433:	09 d0                	or     %edx,%eax
   18435:	89 85 b8 e3 ff ff    	mov    %eax,-0x1c48(%rbp)
   1843b:	48 8b 05 a6 ec 00 00 	mov    0xeca6(%rip),%rax        # 270e8 <g_219>
   18442:	48 83 e8 01          	sub    $0x1,%rax
   18446:	48 89 05 9b ec 00 00 	mov    %rax,0xec9b(%rip)        # 270e8 <g_219>
   1844d:	48 8b 05 94 ec 00 00 	mov    0xec94(%rip),%rax        # 270e8 <g_219>
   18454:	48 85 c0             	test   %rax,%rax
   18457:	0f 89 6a ee ff ff    	jns    172c7 <func_47+0x454>
   1845d:	48 8b 85 88 e3 ff ff 	mov    -0x1c78(%rbp),%rax
   18464:	48 85 c0             	test   %rax,%rax
   18467:	75 3d                	jne    184a6 <func_47+0x1633>
   18469:	48 8b 05 20 32 01 00 	mov    0x13220(%rip),%rax        # 2b690 <g_718>
   18470:	48 8b 95 20 e5 ff ff 	mov    -0x1ae0(%rbp),%rdx
   18477:	48 89 10             	mov    %rdx,(%rax)
   1847a:	8b 05 24 56 01 00    	mov    0x15624(%rip),%eax        # 2daa4 <g_126>
   18480:	89 c0                	mov    %eax,%eax
   18482:	be 01 00 00 00       	mov    $0x1,%esi
   18487:	48 89 c7             	mov    %rax,%rdi
   1848a:	e8 b2 83 ff ff       	callq  10841 <safe_add_func_int64_t_s_s>
   1848f:	89 05 0f 56 01 00    	mov    %eax,0x1560f(%rip)        # 2daa4 <g_126>
   18495:	8b 05 09 56 01 00    	mov    0x15609(%rip),%eax        # 2daa4 <g_126>
   1849b:	83 f8 0c             	cmp    $0xc,%eax
   1849e:	0f 85 d6 ed ff ff    	jne    1727a <func_47+0x407>
   184a4:	eb 01                	jmp    184a7 <func_47+0x1634>
   184a6:	90                   	nop
   184a7:	48 8b 05 b2 eb 00 00 	mov    0xebb2(%rip),%rax        # 27060 <g_113>
   184ae:	83 c8 1c             	or     $0x1c,%eax
   184b1:	89 c6                	mov    %eax,%esi
   184b3:	bf 01 00 00 00       	mov    $0x1,%edi
   184b8:	e8 bd 89 ff ff       	callq  10e7a <safe_rshift_func_uint16_t_u_u>
   184bd:	66 83 f8 06          	cmp    $0x6,%ax
   184c1:	0f 97 c0             	seta   %al
   184c4:	0f b6 c0             	movzbl %al,%eax
   184c7:	48 89 c6             	mov    %rax,%rsi
   184ca:	bf 01 00 00 00       	mov    $0x1,%edi
   184cf:	e8 d4 83 ff ff       	callq  108a8 <safe_sub_func_int64_t_s_s>
   184d4:	48 85 c0             	test   %rax,%rax
   184d7:	48 8d 85 88 e4 ff ff 	lea    -0x1b78(%rbp),%rax
   184de:	48 39 85 f8 e4 ff ff 	cmp    %rax,-0x1b08(%rbp)
   184e5:	74 07                	je     184ee <func_47+0x167b>
   184e7:	b8 05 00 00 00       	mov    $0x5,%eax
   184ec:	eb 05                	jmp    184f3 <func_47+0x1680>
   184ee:	b8 04 00 00 00       	mov    $0x4,%eax
   184f3:	be 00 00 00 00       	mov    $0x0,%esi
   184f8:	89 c7                	mov    %eax,%edi
   184fa:	e8 6d 7e ff ff       	callq  1036c <safe_rshift_func_int8_t_s_u>
   184ff:	0f be c0             	movsbl %al,%eax
   18502:	89 85 c0 e7 ff ff    	mov    %eax,-0x1840(%rbp)
   18508:	48 8b 85 00 e5 ff ff 	mov    -0x1b00(%rbp),%rax
   1850f:	c7 00 00 00 00 00    	movl   $0x0,(%rax)
   18515:	66 c7 85 98 e3 ff ff 	movw   $0x0,-0x1c68(%rbp)
   1851c:	00 00 
   1851e:	66 83 bd 98 e3 ff ff 	cmpw   $0x16,-0x1c68(%rbp)
   18525:	16 
   18526:	7f 4a                	jg     18572 <func_47+0x16ff>
   18528:	48 8d 85 30 f8 ff ff 	lea    -0x7d0(%rbp),%rax
   1852f:	48 8d 15 4a ad 00 00 	lea    0xad4a(%rip),%rdx        # 23280 <g_1760+0x1120>
   18536:	b9 57 00 00 00       	mov    $0x57,%ecx
   1853b:	48 89 c7             	mov    %rax,%rdi
   1853e:	48 89 d6             	mov    %rdx,%rsi
   18541:	f3 48 a5             	rep movsq %ds:(%rsi),%es:(%rdi)
   18544:	48 89 f2             	mov    %rsi,%rdx
   18547:	48 89 f8             	mov    %rdi,%rax
   1854a:	8b 0a                	mov    (%rdx),%ecx
   1854c:	89 08                	mov    %ecx,(%rax)
   1854e:	48 8b 85 00 e5 ff ff 	mov    -0x1b00(%rbp),%rax
   18555:	8b 00                	mov    (%rax),%eax
   18557:	83 c8 01             	or     $0x1,%eax
   1855a:	89 c2                	mov    %eax,%edx
   1855c:	48 8b 85 00 e5 ff ff 	mov    -0x1b00(%rbp),%rax
   18563:	89 10                	mov    %edx,(%rax)
   18565:	8b 85 50 f8 ff ff    	mov    -0x7b0(%rbp),%eax
   1856b:	89 c0                	mov    %eax,%eax
   1856d:	e9 11 31 00 00       	jmpq   1b683 <func_47+0x4810>
   18572:	48 8b 85 00 e5 ff ff 	mov    -0x1b00(%rbp),%rax
   18579:	8b 00                	mov    (%rax),%eax
   1857b:	85 c0                	test   %eax,%eax
   1857d:	0f 84 cf 10 00 00    	je     19652 <func_47+0x27df>
   18583:	c6 85 af e3 ff ff 00 	movb   $0x0,-0x1c51(%rbp)
   1858a:	48 8d 05 87 ee 00 00 	lea    0xee87(%rip),%rax        # 27418 <g_860>
   18591:	48 89 85 98 e6 ff ff 	mov    %rax,-0x1968(%rbp)
   18598:	48 8d 05 21 eb 00 00 	lea    0xeb21(%rip),%rax        # 270c0 <g_149>
   1859f:	48 89 85 a0 e6 ff ff 	mov    %rax,-0x1960(%rbp)
   185a6:	c7 85 b8 e4 ff ff bc 	movl   $0x9806fcbc,-0x1b48(%rbp)
   185ad:	fc 06 98 
   185b0:	c7 85 c0 e4 ff ff 00 	movl   $0x0,-0x1b40(%rbp)
   185b7:	00 00 00 
   185ba:	c7 85 c8 e4 ff ff 6d 	movl   $0xdc618d6d,-0x1b38(%rbp)
   185c1:	8d 61 dc 
   185c4:	48 8d 05 01 9b 00 00 	lea    0x9b01(%rip),%rax        # 220cc <g_931+0x4c>
   185cb:	48 89 85 a8 e6 ff ff 	mov    %rax,-0x1958(%rbp)
   185d2:	48 8d 85 c8 e4 ff ff 	lea    -0x1b38(%rbp),%rax
   185d9:	48 89 85 b0 e6 ff ff 	mov    %rax,-0x1950(%rbp)
   185e0:	48 8d 85 c0 e4 ff ff 	lea    -0x1b40(%rbp),%rax
   185e7:	48 89 85 e8 e4 ff ff 	mov    %rax,-0x1b18(%rbp)
   185ee:	48 8d 05 db 2e 01 00 	lea    0x12edb(%rip),%rax        # 2b4d0 <g_325>
   185f5:	48 89 85 b8 e6 ff ff 	mov    %rax,-0x1948(%rbp)
   185fc:	48 8d 85 80 e4 ff ff 	lea    -0x1b80(%rbp),%rax
   18603:	48 89 85 c0 e6 ff ff 	mov    %rax,-0x1940(%rbp)
   1860a:	c7 85 e4 e3 ff ff 00 	movl   $0x0,-0x1c1c(%rbp)
   18611:	00 00 00 
   18614:	eb 19                	jmp    1862f <func_47+0x17bc>
   18616:	8b 85 e4 e3 ff ff    	mov    -0x1c1c(%rbp),%eax
   1861c:	48 98                	cltq   
   1861e:	66 c7 84 45 90 e9 ff 	movw   $0x15c0,-0x1670(%rbp,%rax,2)
   18625:	ff c0 15 
   18628:	83 85 e4 e3 ff ff 01 	addl   $0x1,-0x1c1c(%rbp)
   1862f:	83 bd e4 e3 ff ff 00 	cmpl   $0x0,-0x1c1c(%rbp)
   18636:	7e de                	jle    18616 <func_47+0x17a3>
   18638:	0f b6 9d af e3 ff ff 	movzbl -0x1c51(%rbp),%ebx
   1863f:	66 0f be 85 9c e3 ff 	movsbw -0x1c64(%rbp),%ax
   18646:	ff 
   18647:	0f b7 c0             	movzwl %ax,%eax
   1864a:	be 01 00 00 00       	mov    $0x1,%esi
   1864f:	89 c7                	mov    %eax,%edi
   18651:	e8 38 87 ff ff       	callq  10d8e <safe_div_func_uint16_t_u_u>
   18656:	98                   	cwtl   
   18657:	be fb ff ff ff       	mov    $0xfffffffb,%esi
   1865c:	89 c7                	mov    %eax,%edi
   1865e:	e8 92 7d ff ff       	callq  103f5 <safe_mul_func_int16_t_s_s>
   18663:	48 8b 95 a0 e6 ff ff 	mov    -0x1960(%rbp),%rdx
   1866a:	8b 12                	mov    (%rdx),%edx
   1866c:	98                   	cwtl   
   1866d:	09 c2                	or     %eax,%edx
   1866f:	48 8b 85 a0 e6 ff ff 	mov    -0x1960(%rbp),%rax
   18676:	89 10                	mov    %edx,(%rax)
   18678:	48 8b 85 a0 e6 ff ff 	mov    -0x1960(%rbp),%rax
   1867f:	8b 00                	mov    (%rax),%eax
   18681:	89 c2                	mov    %eax,%edx
   18683:	0f be 85 9c e3 ff ff 	movsbl -0x1c64(%rbp),%eax
   1868a:	89 d6                	mov    %edx,%esi
   1868c:	89 c7                	mov    %eax,%edi
   1868e:	e8 39 80 ff ff       	callq  106cc <safe_mod_func_int32_t_s_s>
   18693:	09 c3                	or     %eax,%ebx
   18695:	89 da                	mov    %ebx,%edx
   18697:	48 8b 85 00 e5 ff ff 	mov    -0x1b00(%rbp),%rax
   1869e:	89 10                	mov    %edx,(%rax)
   186a0:	48 c7 05 5d ed 00 00 	movq   $0x1,0xed5d(%rip)        # 27408 <g_803>
   186a7:	01 00 00 00 
   186ab:	e9 04 03 00 00       	jmpq   189b4 <func_47+0x1b41>
   186b0:	c7 85 6c e4 ff ff 25 	movl   $0x72ff3825,-0x1b94(%rbp)
   186b7:	38 ff 72 
   186ba:	c7 85 70 e4 ff ff 95 	movl   $0x9a66e895,-0x1b90(%rbp)
   186c1:	e8 66 9a 
   186c4:	c7 85 74 e4 ff ff d4 	movl   $0x9cdfcad4,-0x1b8c(%rbp)
   186cb:	ca df 9c 
   186ce:	48 8b 05 33 ed 00 00 	mov    0xed33(%rip),%rax        # 27408 <g_803>
   186d5:	48 8d 14 c5 00 00 00 	lea    0x0(,%rax,8),%rdx
   186dc:	00 
   186dd:	48 8d 05 9c e9 00 00 	lea    0xe99c(%rip),%rax        # 27080 <g_146>
   186e4:	48 8b 04 02          	mov    (%rdx,%rax,1),%rax
   186e8:	48 85 c0             	test   %rax,%rax
   186eb:	0f 84 c3 01 00 00    	je     188b4 <func_47+0x1a41>
   186f1:	48 8d 85 b8 e3 ff ff 	lea    -0x1c48(%rbp),%rax
   186f8:	48 89 85 d8 e6 ff ff 	mov    %rax,-0x1928(%rbp)
   186ff:	48 c7 85 30 f8 ff ff 	movq   $0x0,-0x7d0(%rbp)
   18706:	00 00 00 00 
   1870a:	48 8d 85 b8 e3 ff ff 	lea    -0x1c48(%rbp),%rax
   18711:	48 89 85 38 f8 ff ff 	mov    %rax,-0x7c8(%rbp)
   18718:	48 c7 85 40 f8 ff ff 	movq   $0x0,-0x7c0(%rbp)
   1871f:	00 00 00 00 
   18723:	48 c7 85 48 f8 ff ff 	movq   $0x0,-0x7b8(%rbp)
   1872a:	00 00 00 00 
   1872e:	48 8d 85 b8 e3 ff ff 	lea    -0x1c48(%rbp),%rax
   18735:	48 89 85 50 f8 ff ff 	mov    %rax,-0x7b0(%rbp)
   1873c:	48 c7 85 58 f8 ff ff 	movq   $0x0,-0x7a8(%rbp)
   18743:	00 00 00 00 
   18747:	48 8d 85 b8 e3 ff ff 	lea    -0x1c48(%rbp),%rax
   1874e:	48 89 85 60 f8 ff ff 	mov    %rax,-0x7a0(%rbp)
   18755:	48 c7 85 68 f8 ff ff 	movq   $0x0,-0x798(%rbp)
   1875c:	00 00 00 00 
   18760:	48 8d 85 b8 e3 ff ff 	lea    -0x1c48(%rbp),%rax
   18767:	48 89 85 70 f8 ff ff 	mov    %rax,-0x790(%rbp)
   1876e:	48 c7 85 78 f8 ff ff 	movq   $0x0,-0x788(%rbp)
   18775:	00 00 00 00 
   18779:	48 8d 85 b0 e7 ff ff 	lea    -0x1850(%rbp),%rax
   18780:	48 83 c0 10          	add    $0x10,%rax
   18784:	48 89 85 80 f8 ff ff 	mov    %rax,-0x780(%rbp)
   1878b:	48 8d 85 b0 e7 ff ff 	lea    -0x1850(%rbp),%rax
   18792:	48 83 c0 10          	add    $0x10,%rax
   18796:	48 89 85 88 f8 ff ff 	mov    %rax,-0x778(%rbp)
   1879d:	48 c7 85 90 f8 ff ff 	movq   $0x0,-0x770(%rbp)
   187a4:	00 00 00 00 
   187a8:	48 8d 85 b8 e3 ff ff 	lea    -0x1c48(%rbp),%rax
   187af:	48 89 85 98 f8 ff ff 	mov    %rax,-0x768(%rbp)
   187b6:	48 8d 85 b8 e3 ff ff 	lea    -0x1c48(%rbp),%rax
   187bd:	48 89 85 a0 f8 ff ff 	mov    %rax,-0x760(%rbp)
   187c4:	48 8d 85 b8 e3 ff ff 	lea    -0x1c48(%rbp),%rax
   187cb:	48 89 85 a8 f8 ff ff 	mov    %rax,-0x758(%rbp)
   187d2:	48 c7 85 b0 f8 ff ff 	movq   $0x0,-0x750(%rbp)
   187d9:	00 00 00 00 
   187dd:	48 8d 85 b0 e7 ff ff 	lea    -0x1850(%rbp),%rax
   187e4:	48 83 c0 10          	add    $0x10,%rax
   187e8:	48 89 85 b8 f8 ff ff 	mov    %rax,-0x748(%rbp)
   187ef:	48 8d 85 b8 e3 ff ff 	lea    -0x1c48(%rbp),%rax
   187f6:	48 89 85 c0 f8 ff ff 	mov    %rax,-0x740(%rbp)
   187fd:	48 8d 85 b8 e3 ff ff 	lea    -0x1c48(%rbp),%rax
   18804:	48 89 85 c8 f8 ff ff 	mov    %rax,-0x738(%rbp)
   1880b:	48 8d 85 b8 e3 ff ff 	lea    -0x1c48(%rbp),%rax
   18812:	48 89 85 d0 f8 ff ff 	mov    %rax,-0x730(%rbp)
   18819:	48 8d 85 b8 e3 ff ff 	lea    -0x1c48(%rbp),%rax
   18820:	48 89 85 d8 f8 ff ff 	mov    %rax,-0x728(%rbp)
   18827:	48 8d 85 b0 e7 ff ff 	lea    -0x1850(%rbp),%rax
   1882e:	48 83 c0 10          	add    $0x10,%rax
   18832:	48 89 85 e0 f8 ff ff 	mov    %rax,-0x720(%rbp)
   18839:	48 8d 85 b8 e3 ff ff 	lea    -0x1c48(%rbp),%rax
   18840:	48 89 85 e8 f8 ff ff 	mov    %rax,-0x718(%rbp)
   18847:	48 8d 85 b8 e3 ff ff 	lea    -0x1c48(%rbp),%rax
   1884e:	48 89 85 f0 f8 ff ff 	mov    %rax,-0x710(%rbp)
   18855:	48 8d 85 b8 e3 ff ff 	lea    -0x1c48(%rbp),%rax
   1885c:	48 89 85 f8 f8 ff ff 	mov    %rax,-0x708(%rbp)
   18863:	48 8d 85 b8 e3 ff ff 	lea    -0x1c48(%rbp),%rax
   1886a:	48 89 85 00 f9 ff ff 	mov    %rax,-0x700(%rbp)
   18871:	8b 05 0d ec 00 00    	mov    0xec0d(%rip),%eax        # 27484 <g_895+0x4>
   18877:	83 c0 01             	add    $0x1,%eax
   1887a:	89 05 04 ec 00 00    	mov    %eax,0xec04(%rip)        # 27484 <g_895+0x4>
   18880:	8b 05 0e ec 00 00    	mov    0xec0e(%rip),%eax        # 27494 <g_900>
   18886:	83 e8 01             	sub    $0x1,%eax
   18889:	89 05 05 ec 00 00    	mov    %eax,0xec05(%rip)        # 27494 <g_900>
   1888f:	48 8b 85 88 e3 ff ff 	mov    -0x1c78(%rbp),%rax
   18896:	48 85 c0             	test   %rax,%rax
   18899:	0f 85 28 01 00 00    	jne    189c7 <func_47+0x1b54>
   1889f:	0f b6 05 f2 eb 00 00 	movzbl 0xebf2(%rip),%eax        # 27498 <g_903>
   188a6:	83 e8 01             	sub    $0x1,%eax
   188a9:	88 05 e9 eb 00 00    	mov    %al,0xebe9(%rip)        # 27498 <g_903>
   188af:	e9 ee 00 00 00       	jmpq   189a2 <func_47+0x1b2f>
   188b4:	48 8d 85 30 f8 ff ff 	lea    -0x7d0(%rbp),%rax
   188bb:	48 8d 15 7e ac 00 00 	lea    0xac7e(%rip),%rdx        # 23540 <g_1760+0x13e0>
   188c2:	b9 30 00 00 00       	mov    $0x30,%ecx
   188c7:	48 89 c7             	mov    %rax,%rdi
   188ca:	48 89 d6             	mov    %rdx,%rsi
   188cd:	f3 48 a5             	rep movsq %ds:(%rsi),%es:(%rdi)
   188d0:	0f b7 05 81 e7 00 00 	movzwl 0xe781(%rip),%eax        # 27058 <g_104>
   188d7:	66 85 c0             	test   %ax,%ax
   188da:	74 05                	je     188e1 <func_47+0x1a6e>
   188dc:	e9 8a e9 ff ff       	jmpq   1726b <func_47+0x3f8>
   188e1:	c7 05 35 e9 00 00 00 	movl   $0x0,0xe935(%rip)        # 27220 <g_722>
   188e8:	00 00 00 
   188eb:	e9 a3 00 00 00       	jmpq   18993 <func_47+0x1b20>
   188f0:	48 8d 85 b8 e3 ff ff 	lea    -0x1c48(%rbp),%rax
   188f7:	48 89 85 c8 e6 ff ff 	mov    %rax,-0x1938(%rbp)
   188fe:	48 8d 85 b8 e4 ff ff 	lea    -0x1b48(%rbp),%rax
   18905:	48 89 85 d0 e6 ff ff 	mov    %rax,-0x1930(%rbp)
   1890c:	c7 85 e8 e3 ff ff 00 	movl   $0x0,-0x1c18(%rbp)
   18913:	00 00 00 
   18916:	eb 54                	jmp    1896c <func_47+0x1af9>
   18918:	c7 85 ec e3 ff ff 00 	movl   $0x0,-0x1c14(%rbp)
   1891f:	00 00 00 
   18922:	eb 38                	jmp    1895c <func_47+0x1ae9>
   18924:	8b 85 ec e3 ff ff    	mov    -0x1c14(%rbp),%eax
   1892a:	48 63 c8             	movslq %eax,%rcx
   1892d:	8b 85 e8 e3 ff ff    	mov    -0x1c18(%rbp),%eax
   18933:	48 63 d0             	movslq %eax,%rdx
   18936:	48 89 d0             	mov    %rdx,%rax
   18939:	48 c1 e0 02          	shl    $0x2,%rax
   1893d:	48 01 d0             	add    %rdx,%rax
   18940:	48 01 c0             	add    %rax,%rax
   18943:	48 01 c8             	add    %rcx,%rax
   18946:	48 8d 15 eb ea 00 00 	lea    0xeaeb(%rip),%rdx        # 27438 <g_888>
   1894d:	48 89 94 c5 90 f2 ff 	mov    %rdx,-0xd70(%rbp,%rax,8)
   18954:	ff 
   18955:	83 85 ec e3 ff ff 01 	addl   $0x1,-0x1c14(%rbp)
   1895c:	83 bd ec e3 ff ff 09 	cmpl   $0x9,-0x1c14(%rbp)
   18963:	7e bf                	jle    18924 <func_47+0x1ab1>
   18965:	83 85 e8 e3 ff ff 01 	addl   $0x1,-0x1c18(%rbp)
   1896c:	83 bd e8 e3 ff ff 02 	cmpl   $0x2,-0x1c18(%rbp)
   18973:	7e a3                	jle    18918 <func_47+0x1aa5>
   18975:	8b 85 3c f8 ff ff    	mov    -0x7c4(%rbp),%eax
   1897b:	83 c0 01             	add    $0x1,%eax
   1897e:	89 85 3c f8 ff ff    	mov    %eax,-0x7c4(%rbp)
   18984:	8b 05 96 e8 00 00    	mov    0xe896(%rip),%eax        # 27220 <g_722>
   1898a:	83 c0 01             	add    $0x1,%eax
   1898d:	89 05 8d e8 00 00    	mov    %eax,0xe88d(%rip)        # 27220 <g_722>
   18993:	8b 05 87 e8 00 00    	mov    0xe887(%rip),%eax        # 27220 <g_722>
   18999:	83 f8 07             	cmp    $0x7,%eax
   1899c:	0f 86 4e ff ff ff    	jbe    188f0 <func_47+0x1a7d>
   189a2:	48 8b 05 5f ea 00 00 	mov    0xea5f(%rip),%rax        # 27408 <g_803>
   189a9:	48 83 c0 01          	add    $0x1,%rax
   189ad:	48 89 05 54 ea 00 00 	mov    %rax,0xea54(%rip)        # 27408 <g_803>
   189b4:	48 8b 05 4d ea 00 00 	mov    0xea4d(%rip),%rax        # 27408 <g_803>
   189bb:	48 83 f8 07          	cmp    $0x7,%rax
   189bf:	0f 8e eb fc ff ff    	jle    186b0 <func_47+0x183d>
   189c5:	eb 01                	jmp    189c8 <func_47+0x1b55>
   189c7:	90                   	nop
   189c8:	c7 05 66 ea 00 00 00 	movl   $0x0,0xea66(%rip)        # 27438 <g_888>
   189cf:	00 00 00 
   189d2:	e9 1b 01 00 00       	jmpq   18af2 <func_47+0x1c7f>
   189d7:	48 8d 85 b0 e7 ff ff 	lea    -0x1850(%rbp),%rax
   189de:	48 83 c0 10          	add    $0x10,%rax
   189e2:	48 89 85 58 e7 ff ff 	mov    %rax,-0x18a8(%rbp)
   189e9:	48 8d 85 b0 e7 ff ff 	lea    -0x1850(%rbp),%rax
   189f0:	48 83 c0 04          	add    $0x4,%rax
   189f4:	48 89 85 60 e7 ff ff 	mov    %rax,-0x18a0(%rbp)
   189fb:	48 8d 85 b0 e7 ff ff 	lea    -0x1850(%rbp),%rax
   18a02:	48 83 c0 10          	add    $0x10,%rax
   18a06:	48 89 85 68 e7 ff ff 	mov    %rax,-0x1898(%rbp)
   18a0d:	48 c7 85 70 e7 ff ff 	movq   $0x0,-0x1890(%rbp)
   18a14:	00 00 00 00 
   18a18:	48 c7 85 78 e7 ff ff 	movq   $0x0,-0x1888(%rbp)
   18a1f:	00 00 00 00 
   18a23:	48 8d 85 b8 e3 ff ff 	lea    -0x1c48(%rbp),%rax
   18a2a:	48 89 85 80 e7 ff ff 	mov    %rax,-0x1880(%rbp)
   18a31:	48 8d 85 b0 e7 ff ff 	lea    -0x1850(%rbp),%rax
   18a38:	48 83 c0 10          	add    $0x10,%rax
   18a3c:	48 89 85 88 e7 ff ff 	mov    %rax,-0x1878(%rbp)
   18a43:	48 8d 85 c0 e4 ff ff 	lea    -0x1b40(%rbp),%rax
   18a4a:	48 89 85 90 e7 ff ff 	mov    %rax,-0x1870(%rbp)
   18a51:	48 8d 05 f8 e5 00 00 	lea    0xe5f8(%rip),%rax        # 27050 <g_87>
   18a58:	48 89 85 98 e7 ff ff 	mov    %rax,-0x1868(%rbp)
   18a5f:	c7 85 f0 e3 ff ff 00 	movl   $0x0,-0x1c10(%rbp)
   18a66:	00 00 00 
   18a69:	eb 55                	jmp    18ac0 <func_47+0x1c4d>
   18a6b:	c7 85 f4 e3 ff ff 00 	movl   $0x0,-0x1c0c(%rbp)
   18a72:	00 00 00 
   18a75:	eb 39                	jmp    18ab0 <func_47+0x1c3d>
   18a77:	8b 85 f4 e3 ff ff    	mov    -0x1c0c(%rbp),%eax
   18a7d:	48 63 c8             	movslq %eax,%rcx
   18a80:	8b 85 f0 e3 ff ff    	mov    -0x1c10(%rbp),%eax
   18a86:	48 63 d0             	movslq %eax,%rdx
   18a89:	48 89 d0             	mov    %rdx,%rax
   18a8c:	48 c1 e0 03          	shl    $0x3,%rax
   18a90:	48 29 d0             	sub    %rdx,%rax
   18a93:	48 01 c8             	add    %rcx,%rax
   18a96:	48 8d 95 b0 e7 ff ff 	lea    -0x1850(%rbp),%rdx
   18a9d:	48 83 c2 04          	add    $0x4,%rdx
   18aa1:	48 89 94 c5 30 f8 ff 	mov    %rdx,-0x7d0(%rbp,%rax,8)
   18aa8:	ff 
   18aa9:	83 85 f4 e3 ff ff 01 	addl   $0x1,-0x1c0c(%rbp)
   18ab0:	83 bd f4 e3 ff ff 06 	cmpl   $0x6,-0x1c0c(%rbp)
   18ab7:	7e be                	jle    18a77 <func_47+0x1c04>
   18ab9:	83 85 f0 e3 ff ff 01 	addl   $0x1,-0x1c10(%rbp)
   18ac0:	83 bd f0 e3 ff ff 00 	cmpl   $0x0,-0x1c10(%rbp)
   18ac7:	7e a2                	jle    18a6b <func_47+0x1bf8>
   18ac9:	8b 05 cd e9 00 00    	mov    0xe9cd(%rip),%eax        # 2749c <g_925>
   18acf:	83 e8 01             	sub    $0x1,%eax
   18ad2:	89 05 c4 e9 00 00    	mov    %eax,0xe9c4(%rip)        # 2749c <g_925>
   18ad8:	8b 05 5a e9 00 00    	mov    0xe95a(%rip),%eax        # 27438 <g_888>
   18ade:	98                   	cwtl   
   18adf:	be 04 00 00 00       	mov    $0x4,%esi
   18ae4:	89 c7                	mov    %eax,%edi
   18ae6:	e8 e8 78 ff ff       	callq  103d3 <safe_sub_func_int16_t_s_s>
   18aeb:	98                   	cwtl   
   18aec:	89 05 46 e9 00 00    	mov    %eax,0xe946(%rip)        # 27438 <g_888>
   18af2:	8b 05 40 e9 00 00    	mov    0xe940(%rip),%eax        # 27438 <g_888>
   18af8:	83 f8 f4             	cmp    $0xfffffff4,%eax
   18afb:	0f 8c d6 fe ff ff    	jl     189d7 <func_47+0x1b64>
   18b01:	80 bd af e3 ff ff 00 	cmpb   $0x0,-0x1c51(%rbp)
   18b08:	75 0a                	jne    18b14 <func_47+0x1ca1>
   18b0a:	48 83 bd a8 e6 ff ff 	cmpq   $0x0,-0x1958(%rbp)
   18b11:	00 
   18b12:	74 07                	je     18b1b <func_47+0x1ca8>
   18b14:	ba 01 00 00 00       	mov    $0x1,%edx
   18b19:	eb 05                	jmp    18b20 <func_47+0x1cad>
   18b1b:	ba 00 00 00 00       	mov    $0x0,%edx
   18b20:	48 8b 85 b0 e6 ff ff 	mov    -0x1950(%rbp),%rax
   18b27:	89 10                	mov    %edx,(%rax)
   18b29:	48 8b 85 b0 e6 ff ff 	mov    -0x1950(%rbp),%rax
   18b30:	8b 10                	mov    (%rax),%edx
   18b32:	48 8b 85 e8 e4 ff ff 	mov    -0x1b18(%rbp),%rax
   18b39:	8b 00                	mov    (%rax),%eax
   18b3b:	31 c2                	xor    %eax,%edx
   18b3d:	48 8b 85 e8 e4 ff ff 	mov    -0x1b18(%rbp),%rax
   18b44:	89 10                	mov    %edx,(%rax)
   18b46:	48 8b 85 e8 e4 ff ff 	mov    -0x1b18(%rbp),%rax
   18b4d:	8b 00                	mov    (%rax),%eax
   18b4f:	3d bb c0 ac 5e       	cmp    $0x5eacc0bb,%eax
   18b54:	0f 95 c0             	setne  %al
   18b57:	0f b6 d0             	movzbl %al,%edx
   18b5a:	48 8b 85 00 e5 ff ff 	mov    -0x1b00(%rbp),%rax
   18b61:	8b 00                	mov    (%rax),%eax
   18b63:	0f be c0             	movsbl %al,%eax
   18b66:	89 d6                	mov    %edx,%esi
   18b68:	89 c7                	mov    %eax,%edi
   18b6a:	e8 83 76 ff ff       	callq  101f2 <safe_sub_func_int8_t_s_s>
   18b6f:	84 c0                	test   %al,%al
   18b71:	0f 84 b4 05 00 00    	je     1912b <func_47+0x22b8>
   18b77:	48 8d 05 92 4f 01 00 	lea    0x14f92(%rip),%rax        # 2db10 <g_587>
   18b7e:	48 89 85 38 e7 ff ff 	mov    %rax,-0x18c8(%rbp)
   18b85:	48 8d 85 a4 e3 ff ff 	lea    -0x1c5c(%rbp),%rax
   18b8c:	48 89 85 40 e7 ff ff 	mov    %rax,-0x18c0(%rbp)
   18b93:	c7 85 d8 e4 ff ff 01 	movl   $0x1,-0x1b28(%rbp)
   18b9a:	00 00 00 
   18b9d:	c7 85 e0 e4 ff ff 05 	movl   $0x5,-0x1b20(%rbp)
   18ba4:	00 00 00 
   18ba7:	48 8d 85 c0 e4 ff ff 	lea    -0x1b40(%rbp),%rax
   18bae:	48 89 85 48 e7 ff ff 	mov    %rax,-0x18b8(%rbp)
   18bb5:	48 8d 85 d8 e4 ff ff 	lea    -0x1b28(%rbp),%rax
   18bbc:	48 89 85 30 f8 ff ff 	mov    %rax,-0x7d0(%rbp)
   18bc3:	48 8d 05 86 e4 00 00 	lea    0xe486(%rip),%rax        # 27050 <g_87>
   18bca:	48 89 85 38 f8 ff ff 	mov    %rax,-0x7c8(%rbp)
   18bd1:	48 8d 85 d8 e4 ff ff 	lea    -0x1b28(%rbp),%rax
   18bd8:	48 89 85 40 f8 ff ff 	mov    %rax,-0x7c0(%rbp)
   18bdf:	48 8d 85 d8 e4 ff ff 	lea    -0x1b28(%rbp),%rax
   18be6:	48 89 85 48 f8 ff ff 	mov    %rax,-0x7b8(%rbp)
   18bed:	48 8d 05 5c e4 00 00 	lea    0xe45c(%rip),%rax        # 27050 <g_87>
   18bf4:	48 89 85 50 f8 ff ff 	mov    %rax,-0x7b0(%rbp)
   18bfb:	48 8d 85 d8 e4 ff ff 	lea    -0x1b28(%rbp),%rax
   18c02:	48 89 85 58 f8 ff ff 	mov    %rax,-0x7a8(%rbp)
   18c09:	48 8d 85 d8 e4 ff ff 	lea    -0x1b28(%rbp),%rax
   18c10:	48 89 85 60 f8 ff ff 	mov    %rax,-0x7a0(%rbp)
   18c17:	48 8d 05 32 e4 00 00 	lea    0xe432(%rip),%rax        # 27050 <g_87>
   18c1e:	48 89 85 68 f8 ff ff 	mov    %rax,-0x798(%rbp)
   18c25:	48 8d 85 d8 e4 ff ff 	lea    -0x1b28(%rbp),%rax
   18c2c:	48 89 85 70 f8 ff ff 	mov    %rax,-0x790(%rbp)
   18c33:	48 8d 85 d8 e4 ff ff 	lea    -0x1b28(%rbp),%rax
   18c3a:	48 89 85 78 f8 ff ff 	mov    %rax,-0x788(%rbp)
   18c41:	48 8d 05 08 e4 00 00 	lea    0xe408(%rip),%rax        # 27050 <g_87>
   18c48:	48 89 85 80 f8 ff ff 	mov    %rax,-0x780(%rbp)
   18c4f:	48 8d 05 fa e3 00 00 	lea    0xe3fa(%rip),%rax        # 27050 <g_87>
   18c56:	48 89 85 88 f8 ff ff 	mov    %rax,-0x778(%rbp)
   18c5d:	48 8d 85 e0 e4 ff ff 	lea    -0x1b20(%rbp),%rax
   18c64:	48 89 85 90 f8 ff ff 	mov    %rax,-0x770(%rbp)
   18c6b:	48 8d 05 de e3 00 00 	lea    0xe3de(%rip),%rax        # 27050 <g_87>
   18c72:	48 89 85 98 f8 ff ff 	mov    %rax,-0x768(%rbp)
   18c79:	48 8d 05 d0 e3 00 00 	lea    0xe3d0(%rip),%rax        # 27050 <g_87>
   18c80:	48 89 85 a0 f8 ff ff 	mov    %rax,-0x760(%rbp)
   18c87:	48 8d 85 e0 e4 ff ff 	lea    -0x1b20(%rbp),%rax
   18c8e:	48 89 85 a8 f8 ff ff 	mov    %rax,-0x758(%rbp)
   18c95:	48 8d 05 b4 e3 00 00 	lea    0xe3b4(%rip),%rax        # 27050 <g_87>
   18c9c:	48 89 85 b0 f8 ff ff 	mov    %rax,-0x750(%rbp)
   18ca3:	48 8d 05 a6 e3 00 00 	lea    0xe3a6(%rip),%rax        # 27050 <g_87>
   18caa:	48 89 85 b8 f8 ff ff 	mov    %rax,-0x748(%rbp)
   18cb1:	48 8d 85 e0 e4 ff ff 	lea    -0x1b20(%rbp),%rax
   18cb8:	48 89 85 c0 f8 ff ff 	mov    %rax,-0x740(%rbp)
   18cbf:	48 8d 05 8a e3 00 00 	lea    0xe38a(%rip),%rax        # 27050 <g_87>
   18cc6:	48 89 85 c8 f8 ff ff 	mov    %rax,-0x738(%rbp)
   18ccd:	48 8d 05 7c e3 00 00 	lea    0xe37c(%rip),%rax        # 27050 <g_87>
   18cd4:	48 89 85 d0 f8 ff ff 	mov    %rax,-0x730(%rbp)
   18cdb:	48 8d 85 d8 e4 ff ff 	lea    -0x1b28(%rbp),%rax
   18ce2:	48 89 85 d8 f8 ff ff 	mov    %rax,-0x728(%rbp)
   18ce9:	48 8d 85 d8 e4 ff ff 	lea    -0x1b28(%rbp),%rax
   18cf0:	48 89 85 e0 f8 ff ff 	mov    %rax,-0x720(%rbp)
   18cf7:	48 8d 05 52 e3 00 00 	lea    0xe352(%rip),%rax        # 27050 <g_87>
   18cfe:	48 89 85 e8 f8 ff ff 	mov    %rax,-0x718(%rbp)
   18d05:	48 8d 85 d8 e4 ff ff 	lea    -0x1b28(%rbp),%rax
   18d0c:	48 89 85 f0 f8 ff ff 	mov    %rax,-0x710(%rbp)
   18d13:	48 8d 85 d8 e4 ff ff 	lea    -0x1b28(%rbp),%rax
   18d1a:	48 89 85 f8 f8 ff ff 	mov    %rax,-0x708(%rbp)
   18d21:	48 8d 05 28 e3 00 00 	lea    0xe328(%rip),%rax        # 27050 <g_87>
   18d28:	48 89 85 00 f9 ff ff 	mov    %rax,-0x700(%rbp)
   18d2f:	48 8d 85 d8 e4 ff ff 	lea    -0x1b28(%rbp),%rax
   18d36:	48 89 85 08 f9 ff ff 	mov    %rax,-0x6f8(%rbp)
   18d3d:	48 8d 85 d8 e4 ff ff 	lea    -0x1b28(%rbp),%rax
   18d44:	48 89 85 10 f9 ff ff 	mov    %rax,-0x6f0(%rbp)
   18d4b:	48 8d 05 fe e2 00 00 	lea    0xe2fe(%rip),%rax        # 27050 <g_87>
   18d52:	48 89 85 18 f9 ff ff 	mov    %rax,-0x6e8(%rbp)
   18d59:	48 8d 85 d8 e4 ff ff 	lea    -0x1b28(%rbp),%rax
   18d60:	48 89 85 20 f9 ff ff 	mov    %rax,-0x6e0(%rbp)
   18d67:	48 8d 05 e2 e2 00 00 	lea    0xe2e2(%rip),%rax        # 27050 <g_87>
   18d6e:	48 89 85 28 f9 ff ff 	mov    %rax,-0x6d8(%rbp)
   18d75:	48 8d 85 d8 e4 ff ff 	lea    -0x1b28(%rbp),%rax
   18d7c:	48 89 85 30 f9 ff ff 	mov    %rax,-0x6d0(%rbp)
   18d83:	48 8d 85 d8 e4 ff ff 	lea    -0x1b28(%rbp),%rax
   18d8a:	48 89 85 38 f9 ff ff 	mov    %rax,-0x6c8(%rbp)
   18d91:	48 8d 05 b8 e2 00 00 	lea    0xe2b8(%rip),%rax        # 27050 <g_87>
   18d98:	48 89 85 40 f9 ff ff 	mov    %rax,-0x6c0(%rbp)
   18d9f:	48 8d 85 d8 e4 ff ff 	lea    -0x1b28(%rbp),%rax
   18da6:	48 89 85 48 f9 ff ff 	mov    %rax,-0x6b8(%rbp)
   18dad:	48 8d 85 d8 e4 ff ff 	lea    -0x1b28(%rbp),%rax
   18db4:	48 89 85 50 f9 ff ff 	mov    %rax,-0x6b0(%rbp)
   18dbb:	48 8d 05 8e e2 00 00 	lea    0xe28e(%rip),%rax        # 27050 <g_87>
   18dc2:	48 89 85 58 f9 ff ff 	mov    %rax,-0x6a8(%rbp)
   18dc9:	48 8d 85 d8 e4 ff ff 	lea    -0x1b28(%rbp),%rax
   18dd0:	48 89 85 60 f9 ff ff 	mov    %rax,-0x6a0(%rbp)
   18dd7:	48 8d 85 d8 e4 ff ff 	lea    -0x1b28(%rbp),%rax
   18dde:	48 89 85 68 f9 ff ff 	mov    %rax,-0x698(%rbp)
   18de5:	48 8d 05 64 e2 00 00 	lea    0xe264(%rip),%rax        # 27050 <g_87>
   18dec:	48 89 85 70 f9 ff ff 	mov    %rax,-0x690(%rbp)
   18df3:	48 8d 05 56 e2 00 00 	lea    0xe256(%rip),%rax        # 27050 <g_87>
   18dfa:	48 89 85 78 f9 ff ff 	mov    %rax,-0x688(%rbp)
   18e01:	48 8d 85 e0 e4 ff ff 	lea    -0x1b20(%rbp),%rax
   18e08:	48 89 85 80 f9 ff ff 	mov    %rax,-0x680(%rbp)
   18e0f:	48 8d 05 3a e2 00 00 	lea    0xe23a(%rip),%rax        # 27050 <g_87>
   18e16:	48 89 85 88 f9 ff ff 	mov    %rax,-0x678(%rbp)
   18e1d:	48 8d 05 2c e2 00 00 	lea    0xe22c(%rip),%rax        # 27050 <g_87>
   18e24:	48 89 85 90 f9 ff ff 	mov    %rax,-0x670(%rbp)
   18e2b:	48 8d 85 e0 e4 ff ff 	lea    -0x1b20(%rbp),%rax
   18e32:	48 89 85 98 f9 ff ff 	mov    %rax,-0x668(%rbp)
   18e39:	48 8d 05 10 e2 00 00 	lea    0xe210(%rip),%rax        # 27050 <g_87>
   18e40:	48 89 85 a0 f9 ff ff 	mov    %rax,-0x660(%rbp)
   18e47:	48 8d 05 02 e2 00 00 	lea    0xe202(%rip),%rax        # 27050 <g_87>
   18e4e:	48 89 85 a8 f9 ff ff 	mov    %rax,-0x658(%rbp)
   18e55:	48 8d 85 e0 e4 ff ff 	lea    -0x1b20(%rbp),%rax
   18e5c:	48 89 85 b0 f9 ff ff 	mov    %rax,-0x650(%rbp)
   18e63:	48 8d 05 e6 e1 00 00 	lea    0xe1e6(%rip),%rax        # 27050 <g_87>
   18e6a:	48 89 85 b8 f9 ff ff 	mov    %rax,-0x648(%rbp)
   18e71:	48 8d 05 d8 e1 00 00 	lea    0xe1d8(%rip),%rax        # 27050 <g_87>
   18e78:	48 89 85 c0 f9 ff ff 	mov    %rax,-0x640(%rbp)
   18e7f:	48 8d 85 d8 e4 ff ff 	lea    -0x1b28(%rbp),%rax
   18e86:	48 89 85 c8 f9 ff ff 	mov    %rax,-0x638(%rbp)
   18e8d:	48 8d 85 d8 e4 ff ff 	lea    -0x1b28(%rbp),%rax
   18e94:	48 89 85 d0 f9 ff ff 	mov    %rax,-0x630(%rbp)
   18e9b:	48 8d 05 ae e1 00 00 	lea    0xe1ae(%rip),%rax        # 27050 <g_87>
   18ea2:	48 89 85 d8 f9 ff ff 	mov    %rax,-0x628(%rbp)
   18ea9:	48 8d 85 d8 e4 ff ff 	lea    -0x1b28(%rbp),%rax
   18eb0:	48 89 85 e0 f9 ff ff 	mov    %rax,-0x620(%rbp)
   18eb7:	48 8d 85 d8 e4 ff ff 	lea    -0x1b28(%rbp),%rax
   18ebe:	48 89 85 e8 f9 ff ff 	mov    %rax,-0x618(%rbp)
   18ec5:	48 8d 05 84 e1 00 00 	lea    0xe184(%rip),%rax        # 27050 <g_87>
   18ecc:	48 89 85 f0 f9 ff ff 	mov    %rax,-0x610(%rbp)
   18ed3:	48 8d 85 d8 e4 ff ff 	lea    -0x1b28(%rbp),%rax
   18eda:	48 89 85 f8 f9 ff ff 	mov    %rax,-0x608(%rbp)
   18ee1:	48 8d 85 d8 e4 ff ff 	lea    -0x1b28(%rbp),%rax
   18ee8:	48 89 85 00 fa ff ff 	mov    %rax,-0x600(%rbp)
   18eef:	48 8d 05 5a e1 00 00 	lea    0xe15a(%rip),%rax        # 27050 <g_87>
   18ef6:	48 89 85 08 fa ff ff 	mov    %rax,-0x5f8(%rbp)
   18efd:	48 8d 85 d8 e4 ff ff 	lea    -0x1b28(%rbp),%rax
   18f04:	48 89 85 10 fa ff ff 	mov    %rax,-0x5f0(%rbp)
   18f0b:	48 8d 05 3e e1 00 00 	lea    0xe13e(%rip),%rax        # 27050 <g_87>
   18f12:	48 89 85 18 fa ff ff 	mov    %rax,-0x5e8(%rbp)
   18f19:	48 8d 85 d8 e4 ff ff 	lea    -0x1b28(%rbp),%rax
   18f20:	48 89 85 20 fa ff ff 	mov    %rax,-0x5e0(%rbp)
   18f27:	48 8d 85 d8 e4 ff ff 	lea    -0x1b28(%rbp),%rax
   18f2e:	48 89 85 28 fa ff ff 	mov    %rax,-0x5d8(%rbp)
   18f35:	48 8d 05 14 e1 00 00 	lea    0xe114(%rip),%rax        # 27050 <g_87>
   18f3c:	48 89 85 30 fa ff ff 	mov    %rax,-0x5d0(%rbp)
   18f43:	48 8d 85 d8 e4 ff ff 	lea    -0x1b28(%rbp),%rax
   18f4a:	48 89 85 38 fa ff ff 	mov    %rax,-0x5c8(%rbp)
   18f51:	48 8d 85 d8 e4 ff ff 	lea    -0x1b28(%rbp),%rax
   18f58:	48 89 85 40 fa ff ff 	mov    %rax,-0x5c0(%rbp)
   18f5f:	48 8d 05 ea e0 00 00 	lea    0xe0ea(%rip),%rax        # 27050 <g_87>
   18f66:	48 89 85 48 fa ff ff 	mov    %rax,-0x5b8(%rbp)
   18f6d:	48 8d 85 d8 e4 ff ff 	lea    -0x1b28(%rbp),%rax
   18f74:	48 89 85 50 fa ff ff 	mov    %rax,-0x5b0(%rbp)
   18f7b:	48 8d 85 d8 e4 ff ff 	lea    -0x1b28(%rbp),%rax
   18f82:	48 89 85 58 fa ff ff 	mov    %rax,-0x5a8(%rbp)
   18f89:	48 8d 85 b0 e3 ff ff 	lea    -0x1c50(%rbp),%rax
   18f90:	48 89 85 50 e7 ff ff 	mov    %rax,-0x18b0(%rbp)
   18f97:	48 8b 15 12 25 01 00 	mov    0x12512(%rip),%rdx        # 2b4b0 <g_119>
   18f9e:	48 8b 05 0b 25 01 00 	mov    0x1250b(%rip),%rax        # 2b4b0 <g_119>
   18fa5:	48 8b 12             	mov    (%rdx),%rdx
   18fa8:	48 89 10             	mov    %rdx,(%rax)
   18fab:	0f b7 05 ee e4 00 00 	movzwl 0xe4ee(%rip),%eax        # 274a0 <g_953>
   18fb2:	83 c0 01             	add    $0x1,%eax
   18fb5:	66 89 05 e4 e4 00 00 	mov    %ax,0xe4e4(%rip)        # 274a0 <g_953>
   18fbc:	48 83 bd 08 e5 ff ff 	cmpq   $0x0,-0x1af8(%rbp)
   18fc3:	00 
   18fc4:	0f 95 c0             	setne  %al
   18fc7:	0f b6 d0             	movzbl %al,%edx
   18fca:	48 8b 85 50 e7 ff ff 	mov    -0x18b0(%rbp),%rax
   18fd1:	66 89 10             	mov    %dx,(%rax)
   18fd4:	48 8b 05 6d e4 00 00 	mov    0xe46d(%rip),%rax        # 27448 <g_890+0x8>
   18fdb:	48 89 c2             	mov    %rax,%rdx
   18fde:	48 8b 85 88 e3 ff ff 	mov    -0x1c78(%rbp),%rax
   18fe5:	48 31 d0             	xor    %rdx,%rax
   18fe8:	48 89 85 88 e3 ff ff 	mov    %rax,-0x1c78(%rbp)
   18fef:	4c 8b a5 88 e3 ff ff 	mov    -0x1c78(%rbp),%r12
   18ff6:	48 8b 85 e8 e4 ff ff 	mov    -0x1b18(%rbp),%rax
   18ffd:	8b 00                	mov    (%rax),%eax
   18fff:	48 63 d8             	movslq %eax,%rbx
   19002:	8b 05 80 e1 00 00    	mov    0xe180(%rip),%eax        # 27188 <g_352>
   19008:	89 c2                	mov    %eax,%edx
   1900a:	0f b6 45 c6          	movzbl -0x3a(%rbp),%eax
   1900e:	0f b6 c0             	movzbl %al,%eax
   19011:	48 89 d6             	mov    %rdx,%rsi
   19014:	48 89 c7             	mov    %rax,%rdi
   19017:	e8 2f 80 ff ff       	callq  1104b <safe_sub_func_uint64_t_u_u>
   1901c:	48 8b 95 98 e4 ff ff 	mov    -0x1b68(%rbp),%rdx
   19023:	48 21 d0             	and    %rdx,%rax
   19026:	48 85 c0             	test   %rax,%rax
   19029:	74 10                	je     1903b <func_47+0x21c8>
   1902b:	80 bd 9c e3 ff ff 00 	cmpb   $0x0,-0x1c64(%rbp)
   19032:	74 07                	je     1903b <func_47+0x21c8>
   19034:	b8 01 00 00 00       	mov    $0x1,%eax
   19039:	eb 05                	jmp    19040 <func_47+0x21cd>
   1903b:	b8 00 00 00 00       	mov    $0x0,%eax
   19040:	48 98                	cltq   
   19042:	48 89 de             	mov    %rbx,%rsi
   19045:	48 89 c7             	mov    %rax,%rdi
   19048:	e8 e1 7f ff ff       	callq  1102e <safe_add_func_uint64_t_u_u>
   1904d:	0f be 95 9c e3 ff ff 	movsbl -0x1c64(%rbp),%edx
   19054:	48 8d 05 55 24 01 00 	lea    0x12455(%rip),%rax        # 2b4b0 <g_119>
   1905b:	48 39 85 b8 e6 ff ff 	cmp    %rax,-0x1948(%rbp)
   19062:	0f 95 c0             	setne  %al
   19065:	0f b6 c0             	movzbl %al,%eax
   19068:	39 c2                	cmp    %eax,%edx
   1906a:	7f 1c                	jg     19088 <func_47+0x2215>
   1906c:	80 bd 9c e3 ff ff 00 	cmpb   $0x0,-0x1c64(%rbp)
   19073:	75 13                	jne    19088 <func_47+0x2215>
   19075:	80 bd 9c e3 ff ff 00 	cmpb   $0x0,-0x1c64(%rbp)
   1907c:	75 0a                	jne    19088 <func_47+0x2215>
   1907e:	66 83 bd 98 e3 ff ff 	cmpw   $0x0,-0x1c68(%rbp)
   19085:	00 
   19086:	74 07                	je     1908f <func_47+0x221c>
   19088:	b8 01 00 00 00       	mov    $0x1,%eax
   1908d:	eb 05                	jmp    19094 <func_47+0x2221>
   1908f:	b8 00 00 00 00       	mov    $0x0,%eax
   19094:	48 98                	cltq   
   19096:	4c 21 e0             	and    %r12,%rax
   19099:	48 89 c7             	mov    %rax,%rdi
   1909c:	e8 78 7f ff ff       	callq  11019 <safe_unary_minus_func_uint64_t_u>
   190a1:	48 85 c0             	test   %rax,%rax
   190a4:	75 14                	jne    190ba <func_47+0x2247>
   190a6:	48 8b 85 48 e7 ff ff 	mov    -0x18b8(%rbp),%rax
   190ad:	8b 00                	mov    (%rax),%eax
   190af:	85 c0                	test   %eax,%eax
   190b1:	75 07                	jne    190ba <func_47+0x2247>
   190b3:	b8 01 00 00 00       	mov    $0x1,%eax
   190b8:	eb 05                	jmp    190bf <func_47+0x224c>
   190ba:	b8 00 00 00 00       	mov    $0x0,%eax
   190bf:	89 c2                	mov    %eax,%edx
   190c1:	48 8b 85 50 e7 ff ff 	mov    -0x18b0(%rbp),%rax
   190c8:	66 89 10             	mov    %dx,(%rax)
   190cb:	48 8b 85 50 e7 ff ff 	mov    -0x18b0(%rbp),%rax
   190d2:	0f b7 00             	movzwl (%rax),%eax
   190d5:	0f b7 c0             	movzwl %ax,%eax
   190d8:	25 7f 30 00 00       	and    $0x307f,%eax
   190dd:	48 89 c1             	mov    %rax,%rcx
   190e0:	48 8b 85 80 e4 ff ff 	mov    -0x1b80(%rbp),%rax
   190e7:	48 8b 00             	mov    (%rax),%rax
   190ea:	48 8b 10             	mov    (%rax),%rdx
   190ed:	48 8b 85 80 e4 ff ff 	mov    -0x1b80(%rbp),%rax
   190f4:	48 8b 00             	mov    (%rax),%rax
   190f7:	48 21 ca             	and    %rcx,%rdx
   190fa:	48 89 10             	mov    %rdx,(%rax)
   190fd:	48 8b 00             	mov    (%rax),%rax
   19100:	48 be f2 d9 65 61 83 	movabs $0x807f23836165d9f2,%rsi
   19107:	23 7f 80 
   1910a:	48 89 c7             	mov    %rax,%rdi
   1910d:	e8 2f 77 ff ff       	callq  10841 <safe_add_func_int64_t_s_s>
   19112:	48 8b 95 00 e5 ff ff 	mov    -0x1b00(%rbp),%rdx
   19119:	8b 12                	mov    (%rdx),%edx
   1911b:	21 c2                	and    %eax,%edx
   1911d:	48 8b 85 00 e5 ff ff 	mov    -0x1b00(%rbp),%rax
   19124:	89 10                	mov    %edx,(%rax)
   19126:	e9 4d 25 00 00       	jmpq   1b678 <func_47+0x4805>
   1912b:	48 b8 0e b2 98 95 0b 	movabs $0x21ae320b9598b20e,%rax
   19132:	32 ae 21 
   19135:	48 89 85 90 f2 ff ff 	mov    %rax,-0xd70(%rbp)
   1913c:	48 89 85 98 f2 ff ff 	mov    %rax,-0xd68(%rbp)
   19143:	48 89 85 a0 f2 ff ff 	mov    %rax,-0xd60(%rbp)
   1914a:	48 89 85 a8 f2 ff ff 	mov    %rax,-0xd58(%rbp)
   19151:	48 89 85 b0 f2 ff ff 	mov    %rax,-0xd50(%rbp)
   19158:	48 89 85 b8 f2 ff ff 	mov    %rax,-0xd48(%rbp)
   1915f:	48 89 85 c0 f2 ff ff 	mov    %rax,-0xd40(%rbp)
   19166:	48 89 85 c8 f2 ff ff 	mov    %rax,-0xd38(%rbp)
   1916d:	c7 85 78 e4 ff ff 90 	movl   $0xb7c23b90,-0x1b88(%rbp)
   19174:	3b c2 b7 
   19177:	48 c7 85 e0 e6 ff ff 	movq   $0x0,-0x1920(%rbp)
   1917e:	00 00 00 00 
   19182:	48 8d 05 c7 de 00 00 	lea    0xdec7(%rip),%rax        # 27050 <g_87>
   19189:	48 89 85 e8 e6 ff ff 	mov    %rax,-0x1918(%rbp)
   19190:	48 8d 85 c0 e4 ff ff 	lea    -0x1b40(%rbp),%rax
   19197:	48 89 85 f0 e6 ff ff 	mov    %rax,-0x1910(%rbp)
   1919e:	48 8d 05 93 e2 00 00 	lea    0xe293(%rip),%rax        # 27438 <g_888>
   191a5:	48 89 85 f8 e6 ff ff 	mov    %rax,-0x1908(%rbp)
   191ac:	48 8d 85 b0 e7 ff ff 	lea    -0x1850(%rbp),%rax
   191b3:	48 83 c0 04          	add    $0x4,%rax
   191b7:	48 89 85 00 e7 ff ff 	mov    %rax,-0x1900(%rbp)
   191be:	48 8d 05 73 e2 00 00 	lea    0xe273(%rip),%rax        # 27438 <g_888>
   191c5:	48 89 85 08 e7 ff ff 	mov    %rax,-0x18f8(%rbp)
   191cc:	c7 85 d0 e4 ff ff 01 	movl   $0x1,-0x1b30(%rbp)
   191d3:	00 00 00 
   191d6:	48 8d 05 73 de 00 00 	lea    0xde73(%rip),%rax        # 27050 <g_87>
   191dd:	48 89 85 10 e7 ff ff 	mov    %rax,-0x18f0(%rbp)
   191e4:	c7 85 7c e4 ff ff 01 	movl   $0x1,-0x1b84(%rbp)
   191eb:	00 00 00 
   191ee:	48 8d 85 c0 e4 ff ff 	lea    -0x1b40(%rbp),%rax
   191f5:	48 89 85 18 e7 ff ff 	mov    %rax,-0x18e8(%rbp)
   191fc:	c7 85 40 ed ff ff 5e 	movl   $0xa922945e,-0x12c0(%rbp)
   19203:	94 22 a9 
   19206:	c7 85 44 ed ff ff 5e 	movl   $0xa922945e,-0x12bc(%rbp)
   1920d:	94 22 a9 
   19210:	c7 85 48 ed ff ff 5e 	movl   $0xa922945e,-0x12b8(%rbp)
   19217:	94 22 a9 
   1921a:	c7 85 4c ed ff ff 5e 	movl   $0xa922945e,-0x12b4(%rbp)
   19221:	94 22 a9 
   19224:	c7 85 50 ed ff ff 5e 	movl   $0xa922945e,-0x12b0(%rbp)
   1922b:	94 22 a9 
   1922e:	c7 85 54 ed ff ff 5e 	movl   $0xa922945e,-0x12ac(%rbp)
   19235:	94 22 a9 
   19238:	0f b7 85 90 e9 ff ff 	movzwl -0x1670(%rbp),%eax
   1923f:	83 c0 01             	add    $0x1,%eax
   19242:	66 89 85 90 e9 ff ff 	mov    %ax,-0x1670(%rbp)
   19249:	c7 05 e5 e1 00 00 00 	movl   $0x0,0xe1e5(%rip)        # 27438 <g_888>
   19250:	00 00 00 
   19253:	e9 de 03 00 00       	jmpq   19636 <func_47+0x27c3>
   19258:	48 8d 85 d0 e4 ff ff 	lea    -0x1b30(%rbp),%rax
   1925f:	48 89 85 d8 e4 ff ff 	mov    %rax,-0x1b28(%rbp)
   19266:	48 8d 85 80 e4 ff ff 	lea    -0x1b80(%rbp),%rax
   1926d:	48 89 85 e0 e4 ff ff 	mov    %rax,-0x1b20(%rbp)
   19274:	48 8d 85 e0 e4 ff ff 	lea    -0x1b20(%rbp),%rax
   1927b:	48 89 85 20 e7 ff ff 	mov    %rax,-0x18e0(%rbp)
   19282:	48 c7 85 28 e7 ff ff 	movq   $0x0,-0x18d8(%rbp)
   19289:	00 00 00 00 
   1928d:	48 8d 85 30 f8 ff ff 	lea    -0x7d0(%rbp),%rax
   19294:	48 8d 15 a5 07 01 00 	lea    0x107a5(%rip),%rdx        # 29a40 <g_3136+0x2140>
   1929b:	b9 23 00 00 00       	mov    $0x23,%ecx
   192a0:	48 89 c7             	mov    %rax,%rdi
   192a3:	48 89 d6             	mov    %rdx,%rsi
   192a6:	f3 48 a5             	rep movsq %ds:(%rsi),%es:(%rdi)
   192a9:	48 8d 05 20 de 00 00 	lea    0xde20(%rip),%rax        # 270d0 <g_212>
   192b0:	48 89 85 30 e7 ff ff 	mov    %rax,-0x18d0(%rbp)
   192b7:	c7 85 f8 e3 ff ff 00 	movl   $0x0,-0x1c08(%rbp)
   192be:	00 00 00 
   192c1:	eb 22                	jmp    192e5 <func_47+0x2472>
   192c3:	8b 85 f8 e3 ff ff    	mov    -0x1c08(%rbp),%eax
   192c9:	48 98                	cltq   
   192cb:	48 8d 95 b0 e7 ff ff 	lea    -0x1850(%rbp),%rdx
   192d2:	48 83 c2 10          	add    $0x10,%rdx
   192d6:	48 89 94 c5 f0 eb ff 	mov    %rdx,-0x1410(%rbp,%rax,8)
   192dd:	ff 
   192de:	83 85 f8 e3 ff ff 01 	addl   $0x1,-0x1c08(%rbp)
   192e5:	83 bd f8 e3 ff ff 01 	cmpl   $0x1,-0x1c08(%rbp)
   192ec:	7e d5                	jle    192c3 <func_47+0x2450>
   192ee:	48 8b 05 8b 48 01 00 	mov    0x1488b(%rip),%rax        # 2db80 <g_995>
   192f5:	48 83 c0 01          	add    $0x1,%rax
   192f9:	48 89 05 80 48 01 00 	mov    %rax,0x14880(%rip)        # 2db80 <g_995>
   19300:	c7 05 9a 47 01 00 00 	movl   $0x0,0x1479a(%rip)        # 2daa4 <g_126>
   19307:	00 00 00 
   1930a:	e9 2d 01 00 00       	jmpq   1943c <func_47+0x25c9>
   1930f:	48 8b 85 b8 e6 ff ff 	mov    -0x1948(%rbp),%rax
   19316:	48 8b 00             	mov    (%rax),%rax
   19319:	48 c7 00 00 00 00 00 	movq   $0x0,(%rax)
   19320:	8b 05 12 e1 00 00    	mov    0xe112(%rip),%eax        # 27438 <g_888>
   19326:	85 c0                	test   %eax,%eax
   19328:	74 05                	je     1932f <func_47+0x24bc>
   1932a:	e9 09 ff ff ff       	jmpq   19238 <func_47+0x23c5>
   1932f:	66 c7 05 4c de 00 00 	movw   $0x0,0xde4c(%rip)        # 27184 <g_340>
   19336:	00 00 
   19338:	eb 7e                	jmp    193b8 <func_47+0x2545>
   1933a:	c7 85 fc e3 ff ff 00 	movl   $0x0,-0x1c04(%rbp)
   19341:	00 00 00 
   19344:	eb 1b                	jmp    19361 <func_47+0x24ee>
   19346:	8b 85 fc e3 ff ff    	mov    -0x1c04(%rbp),%eax
   1934c:	48 98                	cltq   
   1934e:	48 c7 84 c5 70 ef ff 	movq   $0x0,-0x1090(%rbp,%rax,8)
   19355:	ff 00 00 00 00 
   1935a:	83 85 fc e3 ff ff 01 	addl   $0x1,-0x1c04(%rbp)
   19361:	83 bd fc e3 ff ff 04 	cmpl   $0x4,-0x1c04(%rbp)
   19368:	7e dc                	jle    19346 <func_47+0x24d3>
   1936a:	48 8b 85 b8 e6 ff ff 	mov    -0x1948(%rbp),%rax
   19371:	48 8b 00             	mov    (%rax),%rax
   19374:	48 8d 95 b8 e3 ff ff 	lea    -0x1c48(%rbp),%rdx
   1937b:	48 89 10             	mov    %rdx,(%rax)
   1937e:	48 8b 00             	mov    (%rax),%rax
   19381:	48 89 05 10 23 01 00 	mov    %rax,0x12310(%rip)        # 2b698 <g_1000>
   19388:	48 8b 05 09 23 01 00 	mov    0x12309(%rip),%rax        # 2b698 <g_1000>
   1938f:	48 89 85 e8 e4 ff ff 	mov    %rax,-0x1b18(%rbp)
   19396:	0f b7 05 69 de 00 00 	movzwl 0xde69(%rip),%eax        # 27206 <g_514>
   1939d:	66 85 c0             	test   %ax,%ax
   193a0:	74 05                	je     193a7 <func_47+0x2534>
   193a2:	e9 21 f6 ff ff       	jmpq   189c8 <func_47+0x1b55>
   193a7:	0f b7 05 d6 dd 00 00 	movzwl 0xddd6(%rip),%eax        # 27184 <g_340>
   193ae:	83 c0 01             	add    $0x1,%eax
   193b1:	66 89 05 cc dd 00 00 	mov    %ax,0xddcc(%rip)        # 27184 <g_340>
   193b8:	0f b7 05 c5 dd 00 00 	movzwl 0xddc5(%rip),%eax        # 27184 <g_340>
   193bf:	66 83 f8 06          	cmp    $0x6,%ax
   193c3:	0f 86 71 ff ff ff    	jbe    1933a <func_47+0x24c7>
   193c9:	0f b7 85 98 e3 ff ff 	movzwl -0x1c68(%rbp),%eax
   193d0:	0f be d8             	movsbl %al,%ebx
   193d3:	48 8d 05 ae dc 00 00 	lea    0xdcae(%rip),%rax        # 27088 <g_146+0x8>
   193da:	48 89 05 bf 22 01 00 	mov    %rax,0x122bf(%rip)        # 2b6a0 <g_1006>
   193e1:	0f b7 85 98 e3 ff ff 	movzwl -0x1c68(%rbp),%eax
   193e8:	0f b6 c0             	movzbl %al,%eax
   193eb:	89 c6                	mov    %eax,%esi
   193ed:	bf 1c 00 00 00       	mov    $0x1c,%edi
   193f2:	e8 9c 77 ff ff       	callq  10b93 <safe_mul_func_uint8_t_u_u>
   193f7:	89 de                	mov    %ebx,%esi
   193f9:	bf cf ff ff ff       	mov    $0xffffffcf,%edi
   193fe:	e8 0f 6e ff ff       	callq  10212 <safe_mul_func_int8_t_s_s>
   19403:	48 8b 85 00 e5 ff ff 	mov    -0x1b00(%rbp),%rax
   1940a:	8b 00                	mov    (%rax),%eax
   1940c:	85 c0                	test   %eax,%eax
   1940e:	0f 9e c0             	setle  %al
   19411:	0f b6 d0             	movzbl %al,%edx
   19414:	48 8b 85 88 e3 ff ff 	mov    -0x1c78(%rbp),%rax
   1941b:	48 39 c2             	cmp    %rax,%rdx
   1941e:	0f 95 c0             	setne  %al
   19421:	0f b6 d0             	movzbl %al,%edx
   19424:	48 8b 85 e8 e4 ff ff 	mov    -0x1b18(%rbp),%rax
   1942b:	89 10                	mov    %edx,(%rax)
   1942d:	8b 05 71 46 01 00    	mov    0x14671(%rip),%eax        # 2daa4 <g_126>
   19433:	83 c0 01             	add    $0x1,%eax
   19436:	89 05 68 46 01 00    	mov    %eax,0x14668(%rip)        # 2daa4 <g_126>
   1943c:	8b 05 62 46 01 00    	mov    0x14662(%rip),%eax        # 2daa4 <g_126>
   19442:	83 f8 04             	cmp    $0x4,%eax
   19445:	0f 86 c4 fe ff ff    	jbe    1930f <func_47+0x249c>
   1944b:	48 8b 05 6e 20 01 00 	mov    0x1206e(%rip),%rax        # 2b4c0 <g_296>
   19452:	48 8b 00             	mov    (%rax),%rax
   19455:	48 8b 85 b0 e6 ff ff 	mov    -0x1950(%rbp),%rax
   1945c:	8b 18                	mov    (%rax),%ebx
   1945e:	48 8b 05 7b 20 01 00 	mov    0x1207b(%rip),%rax        # 2b4e0 <g_399>
   19465:	8b 10                	mov    (%rax),%edx
   19467:	83 c2 01             	add    $0x1,%edx
   1946a:	89 10                	mov    %edx,(%rax)
   1946c:	0f bf 95 98 e3 ff ff 	movswl -0x1c68(%rbp),%edx
   19473:	0f bf 8d 98 e3 ff ff 	movswl -0x1c68(%rbp),%ecx
   1947a:	8b 05 40 dc 00 00    	mov    0xdc40(%rip),%eax        # 270c0 <g_149>
   19480:	39 c1                	cmp    %eax,%ecx
   19482:	74 07                	je     1948b <func_47+0x2618>
   19484:	b9 a9 d5 52 c4       	mov    $0xc452d5a9,%ecx
   19489:	eb 05                	jmp    19490 <func_47+0x261d>
   1948b:	b9 a8 d5 52 c4       	mov    $0xc452d5a8,%ecx
   19490:	48 8b 85 e8 e6 ff ff 	mov    -0x1918(%rbp),%rax
   19497:	89 08                	mov    %ecx,(%rax)
   19499:	48 8b 85 e8 e6 ff ff 	mov    -0x1918(%rbp),%rax
   194a0:	8b 00                	mov    (%rax),%eax
   194a2:	31 d0                	xor    %edx,%eax
   194a4:	0d 84 f2 e0 73       	or     $0x73e0f284,%eax
   194a9:	89 c2                	mov    %eax,%edx
   194ab:	0f be 85 9c e3 ff ff 	movsbl -0x1c64(%rbp),%eax
   194b2:	39 c2                	cmp    %eax,%edx
   194b4:	0f 95 c0             	setne  %al
   194b7:	0f b6 c0             	movzbl %al,%eax
   194ba:	89 c6                	mov    %eax,%esi
   194bc:	bf 04 00 00 00       	mov    $0x4,%edi
   194c1:	e8 cd 76 ff ff       	callq  10b93 <safe_mul_func_uint8_t_u_u>
   194c6:	88 05 fa db 00 00    	mov    %al,0xdbfa(%rip)        # 270c6 <g_192>
   194cc:	0f b6 05 f3 db 00 00 	movzbl 0xdbf3(%rip),%eax        # 270c6 <g_192>
   194d3:	0f be d0             	movsbl %al,%edx
   194d6:	0f b7 05 c3 df 00 00 	movzwl 0xdfc3(%rip),%eax        # 274a0 <g_953>
   194dd:	0f b7 c0             	movzwl %ax,%eax
   194e0:	21 d0                	and    %edx,%eax
   194e2:	48 63 d0             	movslq %eax,%rdx
   194e5:	48 8b 85 88 e3 ff ff 	mov    -0x1c78(%rbp),%rax
   194ec:	48 39 c2             	cmp    %rax,%rdx
   194ef:	0f 92 c0             	setb   %al
   194f2:	0f b6 c0             	movzbl %al,%eax
   194f5:	be 27 74 83 2e       	mov    $0x2e837427,%esi
   194fa:	89 c7                	mov    %eax,%edi
   194fc:	e8 cf 79 ff ff       	callq  10ed0 <safe_sub_func_uint32_t_u_u>
   19501:	be 58 63 43 62       	mov    $0x62436358,%esi
   19506:	89 c7                	mov    %eax,%edi
   19508:	e8 18 7a ff ff       	callq  10f25 <safe_div_func_uint32_t_u_u>
   1950d:	48 8b 85 88 e3 ff ff 	mov    -0x1c78(%rbp),%rax
   19514:	48 3d bf 00 00 00    	cmp    $0xbf,%rax
   1951a:	0f 97 c0             	seta   %al
   1951d:	0f b6 c0             	movzbl %al,%eax
   19520:	be 05 00 00 00       	mov    $0x5,%esi
   19525:	89 c7                	mov    %eax,%edi
   19527:	e8 67 76 ff ff       	callq  10b93 <safe_mul_func_uint8_t_u_u>
   1952c:	ba 00 00 00 00       	mov    $0x0,%edx
   19531:	8b 85 c0 e7 ff ff    	mov    -0x1840(%rbp),%eax
   19537:	09 d0                	or     %edx,%eax
   19539:	89 85 c0 e7 ff ff    	mov    %eax,-0x1840(%rbp)
   1953f:	48 8b 85 f8 e4 ff ff 	mov    -0x1b08(%rbp),%rax
   19546:	48 8b 95 c0 e6 ff ff 	mov    -0x1940(%rbp),%rdx
   1954d:	48 89 10             	mov    %rdx,(%rax)
   19550:	48 8b 85 f8 e4 ff ff 	mov    -0x1b08(%rbp),%rax
   19557:	48 8b 08             	mov    (%rax),%rcx
   1955a:	48 8b 95 e0 e4 ff ff 	mov    -0x1b20(%rbp),%rdx
   19561:	48 8b 85 20 e7 ff ff 	mov    -0x18e0(%rbp),%rax
   19568:	48 89 10             	mov    %rdx,(%rax)
   1956b:	48 8b 85 20 e7 ff ff 	mov    -0x18e0(%rbp),%rax
   19572:	48 8b 00             	mov    (%rax),%rax
   19575:	48 39 c1             	cmp    %rax,%rcx
   19578:	0f 95 c0             	setne  %al
   1957b:	0f b6 c0             	movzbl %al,%eax
   1957e:	be 78 2d 00 00       	mov    $0x2d78,%esi
   19583:	89 c7                	mov    %eax,%edi
   19585:	e8 f0 78 ff ff       	callq  10e7a <safe_rshift_func_uint16_t_u_u>
   1958a:	89 c2                	mov    %eax,%edx
   1958c:	48 8b 05 0d 21 01 00 	mov    0x1210d(%rip),%rax        # 2b6a0 <g_1006>
   19593:	0f b7 d2             	movzwl %dx,%edx
   19596:	48 89 10             	mov    %rdx,(%rax)
   19599:	48 8b 00             	mov    (%rax),%rax
   1959c:	48 85 c0             	test   %rax,%rax
   1959f:	75 10                	jne    195b1 <func_47+0x273e>
   195a1:	48 8b 05 18 1f 01 00 	mov    0x11f18(%rip),%rax        # 2b4c0 <g_296>
   195a8:	48 8b 00             	mov    (%rax),%rax
   195ab:	48 8b 00             	mov    (%rax),%rax
   195ae:	48 85 c0             	test   %rax,%rax
   195b1:	8b 05 cd de 00 00    	mov    0xdecd(%rip),%eax        # 27484 <g_895+0x4>
   195b7:	0f be c0             	movsbl %al,%eax
   195ba:	89 c6                	mov    %eax,%esi
   195bc:	bf 01 00 00 00       	mov    $0x1,%edi
   195c1:	e8 4c 6c ff ff       	callq  10212 <safe_mul_func_int8_t_s_s>
   195c6:	0f be c0             	movsbl %al,%eax
   195c9:	48 8b 15 78 de 00 00 	mov    0xde78(%rip),%rdx        # 27448 <g_890+0x8>
   195d0:	31 d0                	xor    %edx,%eax
   195d2:	09 d8                	or     %ebx,%eax
   195d4:	be de a8 3f d0       	mov    $0xd03fa8de,%esi
   195d9:	89 c7                	mov    %eax,%edi
   195db:	e8 f0 78 ff ff       	callq  10ed0 <safe_sub_func_uint32_t_u_u>
   195e0:	35 0b 99 47 68       	xor    $0x6847990b,%eax
   195e5:	89 c2                	mov    %eax,%edx
   195e7:	48 b8 a6 ef 15 7c 0c 	movabs $0x2989a80c7c15efa6,%rax
   195ee:	a8 89 29 
   195f1:	48 09 d0             	or     %rdx,%rax
   195f4:	48 89 c2             	mov    %rax,%rdx
   195f7:	48 8b 85 30 e7 ff ff 	mov    -0x18d0(%rbp),%rax
   195fe:	48 89 10             	mov    %rdx,(%rax)
   19601:	48 8b 85 30 e7 ff ff 	mov    -0x18d0(%rbp),%rax
   19608:	48 8b 00             	mov    (%rax),%rax
   1960b:	48 ba d1 d0 27 d2 1c 	movabs $0xffc8d11cd227d0d1,%rdx
   19612:	d1 c8 ff 
   19615:	48 39 d0             	cmp    %rdx,%rax
   19618:	0f 96 c0             	setbe  %al
   1961b:	0f b6 d0             	movzbl %al,%edx
   1961e:	48 8b 85 b0 e6 ff ff 	mov    -0x1950(%rbp),%rax
   19625:	89 10                	mov    %edx,(%rax)
   19627:	8b 05 0b de 00 00    	mov    0xde0b(%rip),%eax        # 27438 <g_888>
   1962d:	83 c0 01             	add    $0x1,%eax
   19630:	89 05 02 de 00 00    	mov    %eax,0xde02(%rip)        # 27438 <g_888>
   19636:	8b 05 fc dd 00 00    	mov    0xddfc(%rip),%eax        # 27438 <g_888>
   1963c:	83 f8 15             	cmp    $0x15,%eax
   1963f:	0f 8f 13 fc ff ff    	jg     19258 <func_47+0x23e5>
   19645:	48 0f be 85 9c e3 ff 	movsbq -0x1c64(%rbp),%rax
   1964c:	ff 
   1964d:	e9 31 20 00 00       	jmpq   1b683 <func_47+0x4810>
   19652:	66 c7 85 b2 e3 ff ff 	movw   $0x9,-0x1c4e(%rbp)
   19659:	09 00 
   1965b:	48 8d 05 36 de 00 00 	lea    0xde36(%rip),%rax        # 27498 <g_903>
   19662:	48 89 85 f0 e5 ff ff 	mov    %rax,-0x1a10(%rbp)
   19669:	48 8d 05 54 da 00 00 	lea    0xda54(%rip),%rax        # 270c4 <g_164>
   19670:	48 89 85 a0 e4 ff ff 	mov    %rax,-0x1b60(%rbp)
   19677:	c7 85 bc e3 ff ff b4 	movl   $0x33ac4fb4,-0x1c44(%rbp)
   1967e:	4f ac 33 
   19681:	48 8d 05 48 1e 01 00 	lea    0x11e48(%rip),%rax        # 2b4d0 <g_325>
   19688:	48 89 85 a8 e4 ff ff 	mov    %rax,-0x1b58(%rbp)
   1968f:	c7 85 c0 e3 ff ff ff 	movl   $0xffffffff,-0x1c40(%rbp)
   19696:	ff ff ff 
   19699:	48 8d 85 70 ef ff ff 	lea    -0x1090(%rbp),%rax
   196a0:	48 8d 15 19 a0 00 00 	lea    0xa019(%rip),%rdx        # 236c0 <g_1760+0x1560>
   196a7:	b9 54 00 00 00       	mov    $0x54,%ecx
   196ac:	48 89 c7             	mov    %rax,%rdi
   196af:	48 89 d6             	mov    %rdx,%rsi
   196b2:	f3 48 a5             	rep movsq %ds:(%rsi),%es:(%rdi)
   196b5:	48 8d 05 ac 44 01 00 	lea    0x144ac(%rip),%rax        # 2db68 <g_717+0x28>
   196bc:	48 89 85 f8 e5 ff ff 	mov    %rax,-0x1a08(%rbp)
   196c3:	c6 85 a9 e3 ff ff ff 	movb   $0xff,-0x1c57(%rbp)
   196ca:	c7 85 00 e4 ff ff f9 	movl   $0xfffffff9,-0x1c00(%rbp)
   196d1:	ff ff ff 
   196d4:	48 8d 05 dd dd 00 00 	lea    0xdddd(%rip),%rax        # 274b8 <g_1205>
   196db:	48 89 85 00 e6 ff ff 	mov    %rax,-0x1a00(%rbp)
   196e2:	c7 85 04 e4 ff ff 00 	movl   $0x0,-0x1bfc(%rbp)
   196e9:	00 00 00 
   196ec:	eb 46                	jmp    19734 <func_47+0x28c1>
   196ee:	c7 85 08 e4 ff ff 00 	movl   $0x0,-0x1bf8(%rbp)
   196f5:	00 00 00 
   196f8:	eb 2a                	jmp    19724 <func_47+0x28b1>
   196fa:	8b 85 08 e4 ff ff    	mov    -0x1bf8(%rbp),%eax
   19700:	48 98                	cltq   
   19702:	8b 95 04 e4 ff ff    	mov    -0x1bfc(%rbp),%edx
   19708:	48 63 d2             	movslq %edx,%rdx
   1970b:	48 01 d2             	add    %rdx,%rdx
   1970e:	48 01 d0             	add    %rdx,%rax
   19711:	48 c7 84 c5 20 e9 ff 	movq   $0x0,-0x16e0(%rbp,%rax,8)
   19718:	ff 00 00 00 00 
   1971d:	83 85 08 e4 ff ff 01 	addl   $0x1,-0x1bf8(%rbp)
   19724:	83 bd 08 e4 ff ff 01 	cmpl   $0x1,-0x1bf8(%rbp)
   1972b:	7e cd                	jle    196fa <func_47+0x2887>
   1972d:	83 85 04 e4 ff ff 01 	addl   $0x1,-0x1bfc(%rbp)
   19734:	83 bd 04 e4 ff ff 01 	cmpl   $0x1,-0x1bfc(%rbp)
   1973b:	7e b1                	jle    196ee <func_47+0x287b>
   1973d:	48 8b 85 00 e5 ff ff 	mov    -0x1b00(%rbp),%rax
   19744:	8b 00                	mov    (%rax),%eax
   19746:	0f b7 d8             	movzwl %ax,%ebx
   19749:	0f b7 85 98 e3 ff ff 	movzwl -0x1c68(%rbp),%eax
   19750:	44 0f b6 e0          	movzbl %al,%r12d
   19754:	48 83 bd 00 e5 ff ff 	cmpq   $0x0,-0x1b00(%rbp)
   1975b:	00 
   1975c:	0f 95 c0             	setne  %al
   1975f:	44 0f b6 e8          	movzbl %al,%r13d
   19763:	48 8b 85 00 e5 ff ff 	mov    -0x1b00(%rbp),%rax
   1976a:	8b 00                	mov    (%rax),%eax
   1976c:	0f b6 d0             	movzbl %al,%edx
   1976f:	48 8b 85 88 e3 ff ff 	mov    -0x1c78(%rbp),%rax
   19776:	0f b6 c0             	movzbl %al,%eax
   19779:	89 d6                	mov    %edx,%esi
   1977b:	89 c7                	mov    %eax,%edi
   1977d:	e8 f6 73 ff ff       	callq  10b78 <safe_sub_func_uint8_t_u_u>
   19782:	48 c7 85 28 e9 ff ff 	movq   $0x0,-0x16d8(%rbp)
   19789:	00 00 00 00 
   1978d:	48 8b 85 28 e9 ff ff 	mov    -0x16d8(%rbp),%rax
   19794:	48 39 85 f0 e5 ff ff 	cmp    %rax,-0x1a10(%rbp)
   1979b:	0f 95 c0             	setne  %al
   1979e:	0f b6 c0             	movzbl %al,%eax
   197a1:	44 89 ee             	mov    %r13d,%esi
   197a4:	89 c7                	mov    %eax,%edi
   197a6:	e8 cd 73 ff ff       	callq  10b78 <safe_sub_func_uint8_t_u_u>
   197ab:	0f b6 c0             	movzbl %al,%eax
   197ae:	44 89 e6             	mov    %r12d,%esi
   197b1:	89 c7                	mov    %eax,%edi
   197b3:	e8 c0 73 ff ff       	callq  10b78 <safe_sub_func_uint8_t_u_u>
   197b8:	0f b6 c0             	movzbl %al,%eax
   197bb:	89 de                	mov    %ebx,%esi
   197bd:	89 c7                	mov    %eax,%edi
   197bf:	e8 79 75 ff ff       	callq  10d3d <safe_mul_func_uint16_t_u_u>
   197c4:	0f b7 85 b2 e3 ff ff 	movzwl -0x1c4e(%rbp),%eax
   197cb:	66 3d 96 a2          	cmp    $0xa296,%ax
   197cf:	0f 96 c0             	setbe  %al
   197d2:	0f b6 d0             	movzbl %al,%edx
   197d5:	66 0f be 85 9c e3 ff 	movsbw -0x1c64(%rbp),%ax
   197dc:	ff 
   197dd:	21 c2                	and    %eax,%edx
   197df:	48 8b 85 a0 e4 ff ff 	mov    -0x1b60(%rbp),%rax
   197e6:	66 89 10             	mov    %dx,(%rax)
   197e9:	0f b7 00             	movzwl (%rax),%eax
   197ec:	0f b7 d0             	movzwl %ax,%edx
   197ef:	0f be 85 9c e3 ff ff 	movsbl -0x1c64(%rbp),%eax
   197f6:	39 c2                	cmp    %eax,%edx
   197f8:	0f 9d c0             	setge  %al
   197fb:	0f b6 d0             	movzbl %al,%edx
   197fe:	48 8d 05 9b dc 00 00 	lea    0xdc9b(%rip),%rax        # 274a0 <g_953>
   19805:	48 89 05 7c 43 01 00 	mov    %rax,0x1437c(%rip)        # 2db88 <g_1031>
   1980c:	48 8b 0d e5 1c 01 00 	mov    0x11ce5(%rip),%rcx        # 2b4f8 <g_596>
   19813:	48 8b 05 de 1c 01 00 	mov    0x11cde(%rip),%rax        # 2b4f8 <g_596>
   1981a:	48 8b 09             	mov    (%rcx),%rcx
   1981d:	48 89 08             	mov    %rcx,(%rax)
   19820:	48 8b 00             	mov    (%rax),%rax
   19823:	48 8d 0d 76 dc 00 00 	lea    0xdc76(%rip),%rcx        # 274a0 <g_953>
   1982a:	48 39 c8             	cmp    %rcx,%rax
   1982d:	0f 95 c0             	setne  %al
   19830:	0f b6 c0             	movzbl %al,%eax
   19833:	89 d6                	mov    %edx,%esi
   19835:	89 c7                	mov    %eax,%edi
   19837:	e8 94 76 ff ff       	callq  10ed0 <safe_sub_func_uint32_t_u_u>
   1983c:	48 c7 85 f0 e7 ff ff 	movq   $0x0,-0x1810(%rbp)
   19843:	00 00 00 00 
   19847:	48 8b 15 1a 22 01 00 	mov    0x1221a(%rip),%rdx        # 2ba68 <g_1044+0x3a8>
   1984e:	48 8b 05 5b 1c 01 00 	mov    0x11c5b(%rip),%rax        # 2b4b0 <g_119>
   19855:	48 8b 00             	mov    (%rax),%rax
   19858:	48 39 c2             	cmp    %rax,%rdx
   1985b:	0f 84 e4 06 00 00    	je     19f45 <func_47+0x30d2>
   19861:	c7 85 50 e4 ff ff fe 	movl   $0xfffffffe,-0x1bb0(%rbp)
   19868:	ff ff ff 
   1986b:	c6 85 ac e3 ff ff 2c 	movb   $0x2c,-0x1c54(%rbp)
   19872:	c7 85 54 e4 ff ff 5b 	movl   $0xba63bb5b,-0x1bac(%rbp)
   19879:	bb 63 ba 
   1987c:	c7 85 58 e4 ff ff 9d 	movl   $0xa0388e9d,-0x1ba8(%rbp)
   19883:	8e 38 a0 
   19886:	c7 85 5c e4 ff ff ff 	movl   $0xffffffff,-0x1ba4(%rbp)
   1988d:	ff ff ff 
   19890:	c7 85 60 e4 ff ff 22 	movl   $0xf54d2d22,-0x1ba0(%rbp)
   19897:	2d 4d f5 
   1989a:	c6 85 ad e3 ff ff 00 	movb   $0x0,-0x1c53(%rbp)
   198a1:	c7 85 64 e4 ff ff 01 	movl   $0x1,-0x1b9c(%rbp)
   198a8:	00 00 00 
   198ab:	c7 85 40 ed ff ff 05 	movl   $0x5,-0x12c0(%rbp)
   198b2:	00 00 00 
   198b5:	c7 85 44 ed ff ff 05 	movl   $0x5,-0x12bc(%rbp)
   198bc:	00 00 00 
   198bf:	c7 85 48 ed ff ff 05 	movl   $0x5,-0x12b8(%rbp)
   198c6:	00 00 00 
   198c9:	c7 85 4c ed ff ff 05 	movl   $0x5,-0x12b4(%rbp)
   198d0:	00 00 00 
   198d3:	c7 85 50 ed ff ff 05 	movl   $0x5,-0x12b0(%rbp)
   198da:	00 00 00 
   198dd:	c7 85 54 ed ff ff 05 	movl   $0x5,-0x12ac(%rbp)
   198e4:	00 00 00 
   198e7:	c6 85 a5 e3 ff ff ff 	movb   $0xff,-0x1c5b(%rbp)
   198ee:	66 c7 05 61 d7 00 00 	movw   $0xfffa,0xd761(%rip)        # 27058 <g_104>
   198f5:	fa ff 
   198f7:	e9 33 06 00 00       	jmpq   19f2f <func_47+0x30bc>
   198fc:	c6 85 a6 e3 ff ff 56 	movb   $0x56,-0x1c5a(%rbp)
   19903:	48 c7 85 80 e6 ff ff 	movq   $0x0,-0x1980(%rbp)
   1990a:	00 00 00 00 
   1990e:	c6 85 ae e3 ff ff 36 	movb   $0x36,-0x1c52(%rbp)
   19915:	c7 85 0c e4 ff ff 00 	movl   $0x0,-0x1bf4(%rbp)
   1991c:	00 00 00 
   1991f:	eb 1e                	jmp    1993f <func_47+0x2acc>
   19921:	8b 85 0c e4 ff ff    	mov    -0x1bf4(%rbp),%eax
   19927:	48 98                	cltq   
   19929:	48 8d 15 54 d8 00 00 	lea    0xd854(%rip),%rdx        # 27184 <g_340>
   19930:	48 89 94 c5 f0 eb ff 	mov    %rdx,-0x1410(%rbp,%rax,8)
   19937:	ff 
   19938:	83 85 0c e4 ff ff 01 	addl   $0x1,-0x1bf4(%rbp)
   1993f:	83 bd 0c e4 ff ff 00 	cmpl   $0x0,-0x1bf4(%rbp)
   19946:	7e d9                	jle    19921 <func_47+0x2aae>
   19948:	c7 85 0c e4 ff ff 00 	movl   $0x0,-0x1bf4(%rbp)
   1994f:	00 00 00 
   19952:	eb 1e                	jmp    19972 <func_47+0x2aff>
   19954:	8b 85 0c e4 ff ff    	mov    -0x1bf4(%rbp),%eax
   1995a:	48 98                	cltq   
   1995c:	48 8d 15 d5 da 00 00 	lea    0xdad5(%rip),%rdx        # 27438 <g_888>
   19963:	48 89 94 c5 90 f2 ff 	mov    %rdx,-0xd70(%rbp,%rax,8)
   1996a:	ff 
   1996b:	83 85 0c e4 ff ff 01 	addl   $0x1,-0x1bf4(%rbp)
   19972:	83 bd 0c e4 ff ff 02 	cmpl   $0x2,-0x1bf4(%rbp)
   19979:	7e d9                	jle    19954 <func_47+0x2ae1>
   1997b:	66 c7 85 b2 e3 ff ff 	movw   $0xffee,-0x1c4e(%rbp)
   19982:	ee ff 
   19984:	e9 69 05 00 00       	jmpq   19ef2 <func_47+0x307f>
   19989:	48 b8 65 72 52 6e 89 	movabs $0x3496b7896e527265,%rax
   19990:	b7 96 34 
   19993:	48 89 85 88 e6 ff ff 	mov    %rax,-0x1978(%rbp)
   1999a:	48 c7 85 90 e6 ff ff 	movq   $0x0,-0x1970(%rbp)
   199a1:	00 00 00 00 
   199a5:	c7 85 68 e4 ff ff f8 	movl   $0xfffffff8,-0x1b98(%rbp)
   199ac:	ff ff ff 
   199af:	8b 05 d3 d7 00 00    	mov    0xd7d3(%rip),%eax        # 27188 <g_352>
   199b5:	0f b6 d8             	movzbl %al,%ebx
   199b8:	8b 85 bc e3 ff ff    	mov    -0x1c44(%rbp),%eax
   199be:	4c 63 e0             	movslq %eax,%r12
   199c1:	0f b7 05 4a d8 00 00 	movzwl 0xd84a(%rip),%eax        # 27212 <g_545+0x2>
   199c8:	0f bf d0             	movswl %ax,%edx
   199cb:	8b 05 3f da 00 00    	mov    0xda3f(%rip),%eax        # 27410 <g_849>
   199d1:	39 c2                	cmp    %eax,%edx
   199d3:	0f 95 c0             	setne  %al
   199d6:	41 89 c6             	mov    %eax,%r14d
   199d9:	48 8b 05 c0 1c 01 00 	mov    0x11cc0(%rip),%rax        # 2b6a0 <g_1006>
   199e0:	48 8b 00             	mov    (%rax),%rax
   199e3:	41 89 c7             	mov    %eax,%r15d
   199e6:	83 bd 50 e4 ff ff 00 	cmpl   $0x0,-0x1bb0(%rbp)
   199ed:	0f 84 a5 00 00 00    	je     19a98 <func_47+0x2c25>
   199f3:	48 8b 05 ee 1a 01 00 	mov    0x11aee(%rip),%rax        # 2b4e8 <g_450>
   199fa:	0f b6 00             	movzbl (%rax),%eax
   199fd:	44 0f b6 e8          	movzbl %al,%r13d
   19a01:	48 8b 05 00 da 00 00 	mov    0xda00(%rip),%rax        # 27408 <g_803>
   19a08:	98                   	cwtl   
   19a09:	be 34 01 00 00       	mov    $0x134,%esi
   19a0e:	89 c7                	mov    %eax,%edi
   19a10:	e8 40 6a ff ff       	callq  10455 <safe_div_func_int16_t_s_s>
   19a15:	66 85 c0             	test   %ax,%ax
   19a18:	74 13                	je     19a2d <func_47+0x2bba>
   19a1a:	48 8b 05 a7 40 01 00 	mov    0x140a7(%rip),%rax        # 2dac8 <g_269+0x8>
   19a21:	48 85 c0             	test   %rax,%rax
   19a24:	74 07                	je     19a2d <func_47+0x2bba>
   19a26:	ba 01 00 00 00       	mov    $0x1,%edx
   19a2b:	eb 05                	jmp    19a32 <func_47+0x2bbf>
   19a2d:	ba 00 00 00 00       	mov    $0x0,%edx
   19a32:	0f bf 85 98 e3 ff ff 	movswl -0x1c68(%rbp),%eax
   19a39:	39 c2                	cmp    %eax,%edx
   19a3b:	0f 9f c0             	setg   %al
   19a3e:	0f b6 c0             	movzbl %al,%eax
   19a41:	44 89 ee             	mov    %r13d,%esi
   19a44:	89 c7                	mov    %eax,%edi
   19a46:	e8 01 72 ff ff       	callq  10c4c <safe_lshift_func_uint8_t_u_u>
   19a4b:	0f be c0             	movsbl %al,%eax
   19a4e:	be 02 00 00 00       	mov    $0x2,%esi
   19a53:	89 c7                	mov    %eax,%edi
   19a55:	e8 10 68 ff ff       	callq  1026a <safe_div_func_int8_t_s_s>
   19a5a:	83 bd 50 e4 ff ff 01 	cmpl   $0x1,-0x1bb0(%rbp)
   19a61:	0f 97 c0             	seta   %al
   19a64:	0f b6 d0             	movzbl %al,%edx
   19a67:	0f be 85 9c e3 ff ff 	movsbl -0x1c64(%rbp),%eax
   19a6e:	39 c2                	cmp    %eax,%edx
   19a70:	0f 95 c0             	setne  %al
   19a73:	0f b6 c0             	movzbl %al,%eax
   19a76:	be 05 00 00 00       	mov    $0x5,%esi
   19a7b:	89 c7                	mov    %eax,%edi
   19a7d:	e8 ea 68 ff ff       	callq  1036c <safe_rshift_func_int8_t_s_u>
   19a82:	48 8b 05 17 1c 01 00 	mov    0x11c17(%rip),%rax        # 2b6a0 <g_1006>
   19a89:	48 8b 00             	mov    (%rax),%rax
   19a8c:	48 85 c0             	test   %rax,%rax
   19a8f:	74 07                	je     19a98 <func_47+0x2c25>
   19a91:	b8 01 00 00 00       	mov    $0x1,%eax
   19a96:	eb 05                	jmp    19a9d <func_47+0x2c2a>
   19a98:	b8 00 00 00 00       	mov    $0x0,%eax
   19a9d:	44 21 f8             	and    %r15d,%eax
   19aa0:	66 89 85 98 e3 ff ff 	mov    %ax,-0x1c68(%rbp)
   19aa7:	0f b7 85 98 e3 ff ff 	movzwl -0x1c68(%rbp),%eax
   19aae:	f7 d0                	not    %eax
   19ab0:	44 21 f0             	and    %r14d,%eax
   19ab3:	48 8b 95 88 e6 ff ff 	mov    -0x1978(%rbp),%rdx
   19aba:	21 d0                	and    %edx,%eax
   19abc:	44 0f be e8          	movsbl %al,%r13d
   19ac0:	48 8b 85 a0 e4 ff ff 	mov    -0x1b60(%rbp),%rax
   19ac7:	0f b7 10             	movzwl (%rax),%edx
   19aca:	83 ea 01             	sub    $0x1,%edx
   19acd:	66 89 10             	mov    %dx,(%rax)
   19ad0:	0f b7 00             	movzwl (%rax),%eax
   19ad3:	0f b7 c0             	movzwl %ax,%eax
   19ad6:	89 c6                	mov    %eax,%esi
   19ad8:	bf 01 00 00 00       	mov    $0x1,%edi
   19add:	e8 ac 72 ff ff       	callq  10d8e <safe_div_func_uint16_t_u_u>
   19ae2:	0f be c0             	movsbl %al,%eax
   19ae5:	44 89 ee             	mov    %r13d,%esi
   19ae8:	89 c7                	mov    %eax,%edi
   19aea:	e8 23 67 ff ff       	callq  10212 <safe_mul_func_int8_t_s_s>
   19aef:	89 c2                	mov    %eax,%edx
   19af1:	48 8b 05 c8 19 01 00 	mov    0x119c8(%rip),%rax        # 2b4c0 <g_296>
   19af8:	48 8b 00             	mov    (%rax),%rax
   19afb:	48 8b 08             	mov    (%rax),%rcx
   19afe:	48 0f be d2          	movsbq %dl,%rdx
   19b02:	48 09 ca             	or     %rcx,%rdx
   19b05:	48 89 10             	mov    %rdx,(%rax)
   19b08:	48 8b 00             	mov    (%rax),%rax
   19b0b:	4c 89 e6             	mov    %r12,%rsi
   19b0e:	48 89 c7             	mov    %rax,%rdi
   19b11:	e8 e1 6e ff ff       	callq  109f7 <safe_div_func_int64_t_s_s>
   19b16:	0f b6 c0             	movzbl %al,%eax
   19b19:	89 de                	mov    %ebx,%esi
   19b1b:	89 c7                	mov    %eax,%edi
   19b1d:	e8 b9 70 ff ff       	callq  10bdb <safe_div_func_uint8_t_u_u>
   19b22:	0f b6 d0             	movzbl %al,%edx
   19b25:	0f be 85 9c e3 ff ff 	movsbl -0x1c64(%rbp),%eax
   19b2c:	89 d6                	mov    %edx,%esi
   19b2e:	89 c7                	mov    %eax,%edi
   19b30:	e8 d0 6a ff ff       	callq  10605 <safe_sub_func_int32_t_s_s>
   19b35:	85 c0                	test   %eax,%eax
   19b37:	75 0a                	jne    19b43 <func_47+0x2cd0>
   19b39:	66 83 bd 98 e3 ff ff 	cmpw   $0x0,-0x1c68(%rbp)
   19b40:	00 
   19b41:	74 07                	je     19b4a <func_47+0x2cd7>
   19b43:	b8 01 00 00 00       	mov    $0x1,%eax
   19b48:	eb 05                	jmp    19b4f <func_47+0x2cdc>
   19b4a:	b8 00 00 00 00       	mov    $0x0,%eax
   19b4f:	89 c2                	mov    %eax,%edx
   19b51:	8b 05 4d 3f 01 00    	mov    0x13f4d(%rip),%eax        # 2daa4 <g_126>
   19b57:	39 c2                	cmp    %eax,%edx
   19b59:	76 52                	jbe    19bad <func_47+0x2d3a>
   19b5b:	66 c7 85 b6 e3 ff ff 	movw   $0xfff9,-0x1c4a(%rbp)
   19b62:	f9 ff 
   19b64:	48 8b 15 45 19 01 00 	mov    0x11945(%rip),%rdx        # 2b4b0 <g_119>
   19b6b:	48 8b 05 3e 19 01 00 	mov    0x1193e(%rip),%rax        # 2b4b0 <g_119>
   19b72:	48 8b 12             	mov    (%rdx),%rdx
   19b75:	48 89 10             	mov    %rdx,(%rax)
   19b78:	8b 85 bc e3 ff ff    	mov    -0x1c44(%rbp),%eax
   19b7e:	85 c0                	test   %eax,%eax
   19b80:	0f 85 7f 03 00 00    	jne    19f05 <func_47+0x3092>
   19b86:	48 8b 05 5b d5 00 00 	mov    0xd55b(%rip),%rax        # 270e8 <g_219>
   19b8d:	48 85 c0             	test   %rax,%rax
   19b90:	74 05                	je     19b97 <func_47+0x2d24>
   19b92:	e9 d4 d6 ff ff       	jmpq   1726b <func_47+0x3f8>
   19b97:	0f b7 85 b6 e3 ff ff 	movzwl -0x1c4a(%rbp),%eax
   19b9e:	83 c0 01             	add    $0x1,%eax
   19ba1:	66 89 85 b6 e3 ff ff 	mov    %ax,-0x1c4a(%rbp)
   19ba8:	e9 81 02 00 00       	jmpq   19e2e <func_47+0x2fbb>
   19bad:	c7 85 10 e4 ff ff 00 	movl   $0x0,-0x1bf0(%rbp)
   19bb4:	00 00 00 
   19bb7:	eb 1e                	jmp    19bd7 <func_47+0x2d64>
   19bb9:	8b 85 10 e4 ff ff    	mov    -0x1bf0(%rbp),%eax
   19bbf:	48 98                	cltq   
   19bc1:	48 8d 95 a0 e4 ff ff 	lea    -0x1b60(%rbp),%rdx
   19bc8:	48 89 94 c5 30 f8 ff 	mov    %rdx,-0x7d0(%rbp,%rax,8)
   19bcf:	ff 
   19bd0:	83 85 10 e4 ff ff 01 	addl   $0x1,-0x1bf0(%rbp)
   19bd7:	83 bd 10 e4 ff ff 05 	cmpl   $0x5,-0x1bf0(%rbp)
   19bde:	7e d9                	jle    19bb9 <func_47+0x2d46>
   19be0:	48 8b 05 b1 1a 01 00 	mov    0x11ab1(%rip),%rax        # 2b698 <g_1000>
   19be7:	8b 18                	mov    (%rax),%ebx
   19be9:	48 8b 85 88 e6 ff ff 	mov    -0x1978(%rbp),%rax
   19bf0:	44 0f bf e0          	movswl %ax,%r12d
   19bf4:	0f b7 85 b2 e3 ff ff 	movzwl -0x1c4e(%rbp),%eax
   19bfb:	0f be c0             	movsbl %al,%eax
   19bfe:	89 c7                	mov    %eax,%edi
   19c00:	e8 ba 65 ff ff       	callq  101bf <safe_unary_minus_func_int8_t_s>
   19c05:	84 c0                	test   %al,%al
   19c07:	0f 84 ee 01 00 00    	je     19dfb <func_47+0x2f88>
   19c0d:	8b 05 25 d8 00 00    	mov    0xd825(%rip),%eax        # 27438 <g_888>
   19c13:	4c 63 e8             	movslq %eax,%r13
   19c16:	80 b5 a6 e3 ff ff 09 	xorb   $0x9,-0x1c5a(%rbp)
   19c1d:	0f b6 85 a6 e3 ff ff 	movzbl -0x1c5a(%rbp),%eax
   19c24:	be 0e 00 00 00       	mov    $0xe,%esi
   19c29:	89 c7                	mov    %eax,%edi
   19c2b:	e8 62 68 ff ff       	callq  10492 <safe_lshift_func_int16_t_s_s>
   19c30:	98                   	cwtl   
   19c31:	89 85 80 e3 ff ff    	mov    %eax,-0x1c80(%rbp)
   19c37:	66 0f be 85 9c e3 ff 	movsbw -0x1c64(%rbp),%ax
   19c3e:	ff 
   19c3f:	44 0f b7 f0          	movzwl %ax,%r14d
   19c43:	48 8b 05 9e 18 01 00 	mov    0x1189e(%rip),%rax        # 2b4e8 <g_450>
   19c4a:	0f b6 00             	movzbl (%rax),%eax
   19c4d:	44 0f be f8          	movsbl %al,%r15d
   19c51:	0f bf 85 98 e3 ff ff 	movswl -0x1c68(%rbp),%eax
   19c58:	89 85 78 e3 ff ff    	mov    %eax,-0x1c88(%rbp)
   19c5e:	48 8b 05 33 1a 01 00 	mov    0x11a33(%rip),%rax        # 2b698 <g_1000>
   19c65:	8b 08                	mov    (%rax),%ecx
   19c67:	89 8d 74 e3 ff ff    	mov    %ecx,-0x1c8c(%rbp)
   19c6d:	0f be 85 9c e3 ff ff 	movsbl -0x1c64(%rbp),%eax
   19c74:	89 c6                	mov    %eax,%esi
   19c76:	bf 01 00 00 00       	mov    $0x1,%edi
   19c7b:	e8 b1 65 ff ff       	callq  10231 <safe_mod_func_int8_t_s_s>
   19c80:	0f be c0             	movsbl %al,%eax
   19c83:	39 85 74 e3 ff ff    	cmp    %eax,-0x1c8c(%rbp)
   19c89:	0f 95 c0             	setne  %al
   19c8c:	0f b6 c0             	movzbl %al,%eax
   19c8f:	8b b5 78 e3 ff ff    	mov    -0x1c88(%rbp),%esi
   19c95:	89 c7                	mov    %eax,%edi
   19c97:	e8 63 6a ff ff       	callq  106ff <safe_div_func_int32_t_s_s>
   19c9c:	0f b6 05 23 d4 00 00 	movzbl 0xd423(%rip),%eax        # 270c6 <g_192>
   19ca3:	84 c0                	test   %al,%al
   19ca5:	75 0c                	jne    19cb3 <func_47+0x2e40>
   19ca7:	48 8b 05 5a 3e 01 00 	mov    0x13e5a(%rip),%rax        # 2db08 <g_546>
   19cae:	48 85 c0             	test   %rax,%rax
   19cb1:	74 07                	je     19cba <func_47+0x2e47>
   19cb3:	b8 01 00 00 00       	mov    $0x1,%eax
   19cb8:	eb 05                	jmp    19cbf <func_47+0x2e4c>
   19cba:	b8 00 00 00 00       	mov    $0x0,%eax
   19cbf:	48 98                	cltq   
   19cc1:	48 ba d9 38 ea d8 24 	movabs $0xdfb95224d8ea38d9,%rdx
   19cc8:	52 b9 df 
   19ccb:	48 39 d0             	cmp    %rdx,%rax
   19cce:	0f 96 c0             	setbe  %al
   19cd1:	0f b6 c0             	movzbl %al,%eax
   19cd4:	44 89 fe             	mov    %r15d,%esi
   19cd7:	89 c7                	mov    %eax,%edi
   19cd9:	e8 14 65 ff ff       	callq  101f2 <safe_sub_func_int8_t_s_s>
   19cde:	22 85 9c e3 ff ff    	and    -0x1c64(%rbp),%al
   19ce4:	0f be c0             	movsbl %al,%eax
   19ce7:	89 85 bc e3 ff ff    	mov    %eax,-0x1c44(%rbp)
   19ced:	8b 85 bc e3 ff ff    	mov    -0x1c44(%rbp),%eax
   19cf3:	48 63 d0             	movslq %eax,%rdx
   19cf6:	48 8b 05 fb 17 01 00 	mov    0x117fb(%rip),%rax        # 2b4f8 <g_596>
   19cfd:	48 8b 8d f0 eb ff ff 	mov    -0x1410(%rbp),%rcx
   19d04:	48 89 08             	mov    %rcx,(%rax)
   19d07:	48 8b 00             	mov    (%rax),%rax
   19d0a:	48 8d 8d b2 e3 ff ff 	lea    -0x1c4e(%rbp),%rcx
   19d11:	48 89 8d 90 e6 ff ff 	mov    %rcx,-0x1970(%rbp)
   19d18:	48 39 85 90 e6 ff ff 	cmp    %rax,-0x1970(%rbp)
   19d1f:	0f 95 c0             	setne  %al
   19d22:	0f b6 c0             	movzbl %al,%eax
   19d25:	48 89 d6             	mov    %rdx,%rsi
   19d28:	48 89 c7             	mov    %rax,%rdi
   19d2b:	e8 11 6b ff ff       	callq  10841 <safe_add_func_int64_t_s_s>
   19d30:	be ec b6 01 0b       	mov    $0xb01b6ec,%esi
   19d35:	89 c7                	mov    %eax,%edi
   19d37:	e8 c1 71 ff ff       	callq  10efd <safe_mod_func_uint32_t_u_u>
   19d3c:	48 8b 05 45 3e 01 00 	mov    0x13e45(%rip),%rax        # 2db88 <g_1031>
   19d43:	0f b7 00             	movzwl (%rax),%eax
   19d46:	0f b7 c0             	movzwl %ax,%eax
   19d49:	44 89 f6             	mov    %r14d,%esi
   19d4c:	89 c7                	mov    %eax,%edi
   19d4e:	e8 3b 70 ff ff       	callq  10d8e <safe_div_func_uint16_t_u_u>
   19d53:	0f b7 c0             	movzwl %ax,%eax
   19d56:	89 85 68 e4 ff ff    	mov    %eax,-0x1b98(%rbp)
   19d5c:	8b 85 80 e3 ff ff    	mov    -0x1c80(%rbp),%eax
   19d62:	39 85 68 e4 ff ff    	cmp    %eax,-0x1b98(%rbp)
   19d68:	0f 9d c0             	setge  %al
   19d6b:	0f b6 d0             	movzbl %al,%edx
   19d6e:	0f be 85 9c e3 ff ff 	movsbl -0x1c64(%rbp),%eax
   19d75:	31 c2                	xor    %eax,%edx
   19d77:	48 8b 85 f8 e4 ff ff 	mov    -0x1b08(%rbp),%rax
   19d7e:	48 8b 00             	mov    (%rax),%rax
   19d81:	48 8b 00             	mov    (%rax),%rax
   19d84:	48 8b 00             	mov    (%rax),%rax
   19d87:	48 63 d2             	movslq %edx,%rdx
   19d8a:	48 89 10             	mov    %rdx,(%rax)
   19d8d:	48 8b 00             	mov    (%rax),%rax
   19d90:	4c 89 ee             	mov    %r13,%rsi
   19d93:	48 89 c7             	mov    %rax,%rdi
   19d96:	e8 0d 6b ff ff       	callq  108a8 <safe_sub_func_int64_t_s_s>
   19d9b:	48 8b 85 00 e5 ff ff 	mov    -0x1b00(%rbp),%rax
   19da2:	8b 00                	mov    (%rax),%eax
   19da4:	83 f8 f8             	cmp    $0xfffffff8,%eax
   19da7:	0f 95 c0             	setne  %al
   19daa:	0f b6 d0             	movzbl %al,%edx
   19dad:	48 8b 85 88 e3 ff ff 	mov    -0x1c78(%rbp),%rax
   19db4:	0f be c0             	movsbl %al,%eax
   19db7:	89 d6                	mov    %edx,%esi
   19db9:	89 c7                	mov    %eax,%edi
   19dbb:	e8 2e 65 ff ff       	callq  102ee <safe_lshift_func_int8_t_s_u>
   19dc0:	48 8b 05 31 17 01 00 	mov    0x11731(%rip),%rax        # 2b4f8 <g_596>
   19dc7:	48 8b 00             	mov    (%rax),%rax
   19dca:	0f b7 00             	movzwl (%rax),%eax
   19dcd:	0f b7 c0             	movzwl %ax,%eax
   19dd0:	39 85 50 e4 ff ff    	cmp    %eax,-0x1bb0(%rbp)
   19dd6:	0f 92 c0             	setb   %al
   19dd9:	0f b6 d0             	movzbl %al,%edx
   19ddc:	0f be 85 9c e3 ff ff 	movsbl -0x1c64(%rbp),%eax
   19de3:	39 c2                	cmp    %eax,%edx
   19de5:	be 5f 00 00 00       	mov    $0x5f,%esi
   19dea:	bf 05 00 00 00       	mov    $0x5,%edi
   19def:	e8 66 6d ff ff       	callq  10b5a <safe_add_func_uint8_t_u_u>
   19df4:	ba 01 00 00 00       	mov    $0x1,%edx
   19df9:	eb 05                	jmp    19e00 <func_47+0x2f8d>
   19dfb:	ba 00 00 00 00       	mov    $0x0,%edx
   19e00:	0f be 85 9c e3 ff ff 	movsbl -0x1c64(%rbp),%eax
   19e07:	39 c2                	cmp    %eax,%edx
   19e09:	0f 9c c0             	setl   %al
   19e0c:	0f b6 c0             	movzbl %al,%eax
   19e0f:	44 89 e6             	mov    %r12d,%esi
   19e12:	89 c7                	mov    %eax,%edi
   19e14:	e8 9a 65 ff ff       	callq  103b3 <safe_add_func_int16_t_s_s>
   19e19:	98                   	cwtl   
   19e1a:	4c 8b 25 77 18 01 00 	mov    0x11877(%rip),%r12        # 2b698 <g_1000>
   19e21:	89 de                	mov    %ebx,%esi
   19e23:	89 c7                	mov    %eax,%edi
   19e25:	e8 a2 68 ff ff       	callq  106cc <safe_mod_func_int32_t_s_s>
   19e2a:	41 89 04 24          	mov    %eax,(%r12)
   19e2e:	48 8b 05 63 18 01 00 	mov    0x11863(%rip),%rax        # 2b698 <g_1000>
   19e35:	8b 00                	mov    (%rax),%eax
   19e37:	85 c0                	test   %eax,%eax
   19e39:	0f 85 c9 00 00 00    	jne    19f08 <func_47+0x3095>
   19e3f:	48 8b 05 a2 16 01 00 	mov    0x116a2(%rip),%rax        # 2b4e8 <g_450>
   19e46:	0f b6 00             	movzbl (%rax),%eax
   19e49:	0f b6 d8             	movzbl %al,%ebx
   19e4c:	48 8b 85 a8 e4 ff ff 	mov    -0x1b58(%rbp),%rax
   19e53:	48 85 c0             	test   %rax,%rax
   19e56:	0f 95 c0             	setne  %al
   19e59:	0f b6 d0             	movzbl %al,%edx
   19e5c:	0f b6 85 ac e3 ff ff 	movzbl -0x1c54(%rbp),%eax
   19e63:	89 d6                	mov    %edx,%esi
   19e65:	89 c7                	mov    %eax,%edi
   19e67:	e8 27 6d ff ff       	callq  10b93 <safe_mul_func_uint8_t_u_u>
   19e6c:	8b 85 50 e4 ff ff    	mov    -0x1bb0(%rbp),%eax
   19e72:	0f be d0             	movsbl %al,%edx
   19e75:	48 8b 85 88 e3 ff ff 	mov    -0x1c78(%rbp),%rax
   19e7c:	48 85 c0             	test   %rax,%rax
   19e7f:	75 0c                	jne    19e8d <func_47+0x301a>
   19e81:	48 8b 85 a0 e4 ff ff 	mov    -0x1b60(%rbp),%rax
   19e88:	48 85 c0             	test   %rax,%rax
   19e8b:	74 07                	je     19e94 <func_47+0x3021>
   19e8d:	b8 01 00 00 00       	mov    $0x1,%eax
   19e92:	eb 05                	jmp    19e99 <func_47+0x3026>
   19e94:	b8 00 00 00 00       	mov    $0x0,%eax
   19e99:	0f be c0             	movsbl %al,%eax
   19e9c:	89 d6                	mov    %edx,%esi
   19e9e:	89 c7                	mov    %eax,%edi
   19ea0:	e8 8c 63 ff ff       	callq  10231 <safe_mod_func_int8_t_s_s>
   19ea5:	38 85 9c e3 ff ff    	cmp    %al,-0x1c64(%rbp)
   19eab:	0f 9e c0             	setle  %al
   19eae:	0f b6 c0             	movzbl %al,%eax
   19eb1:	89 de                	mov    %ebx,%esi
   19eb3:	89 c7                	mov    %eax,%edi
   19eb5:	e8 b2 64 ff ff       	callq  1036c <safe_rshift_func_int8_t_s_u>
   19eba:	66 98                	cbtw   
   19ebc:	66 39 85 98 e3 ff ff 	cmp    %ax,-0x1c68(%rbp)
   19ec3:	0f 95 c0             	setne  %al
   19ec6:	0f b6 d0             	movzbl %al,%edx
   19ec9:	48 8b 85 00 e5 ff ff 	mov    -0x1b00(%rbp),%rax
   19ed0:	89 10                	mov    %edx,(%rax)
   19ed2:	0f b7 85 b2 e3 ff ff 	movzwl -0x1c4e(%rbp),%eax
   19ed9:	0f b6 c0             	movzbl %al,%eax
   19edc:	be 02 00 00 00       	mov    $0x2,%esi
   19ee1:	89 c7                	mov    %eax,%edi
   19ee3:	e8 72 6c ff ff       	callq  10b5a <safe_add_func_uint8_t_u_u>
   19ee8:	0f b6 c0             	movzbl %al,%eax
   19eeb:	66 89 85 b2 e3 ff ff 	mov    %ax,-0x1c4e(%rbp)
   19ef2:	0f b7 85 b2 e3 ff ff 	movzwl -0x1c4e(%rbp),%eax
   19ef9:	66 83 f8 0d          	cmp    $0xd,%ax
   19efd:	0f 85 86 fa ff ff    	jne    19989 <func_47+0x2b16>
   19f03:	eb 04                	jmp    19f09 <func_47+0x3096>
   19f05:	90                   	nop
   19f06:	eb 01                	jmp    19f09 <func_47+0x3096>
   19f08:	90                   	nop
   19f09:	80 ad a5 e3 ff ff 01 	subb   $0x1,-0x1c5b(%rbp)
   19f10:	0f b7 05 41 d1 00 00 	movzwl 0xd141(%rip),%eax        # 27058 <g_104>
   19f17:	48 0f bf c0          	movswq %ax,%rax
   19f1b:	be 05 00 00 00       	mov    $0x5,%esi
   19f20:	48 89 c7             	mov    %rax,%rdi
   19f23:	e8 06 71 ff ff       	callq  1102e <safe_add_func_uint64_t_u_u>
   19f28:	66 89 05 29 d1 00 00 	mov    %ax,0xd129(%rip)        # 27058 <g_104>
   19f2f:	0f b7 05 22 d1 00 00 	movzwl 0xd122(%rip),%eax        # 27058 <g_104>
   19f36:	66 83 f8 1c          	cmp    $0x1c,%ax
   19f3a:	0f 8f bc f9 ff ff    	jg     198fc <func_47+0x2a89>
   19f40:	e9 33 17 00 00       	jmpq   1b678 <func_47+0x4805>
   19f45:	c6 85 aa e3 ff ff a0 	movb   $0xa0,-0x1c56(%rbp)
   19f4c:	48 8d 05 55 d5 00 00 	lea    0xd555(%rip),%rax        # 274a8 <g_1145>
   19f53:	48 89 85 b0 e4 ff ff 	mov    %rax,-0x1b50(%rbp)
   19f5a:	48 8d 85 b0 e4 ff ff 	lea    -0x1b50(%rbp),%rax
   19f61:	48 89 85 b8 e4 ff ff 	mov    %rax,-0x1b48(%rbp)
   19f68:	48 8d 85 b8 e4 ff ff 	lea    -0x1b48(%rbp),%rax
   19f6f:	48 89 85 f0 eb ff ff 	mov    %rax,-0x1410(%rbp)
   19f76:	48 c7 85 f8 eb ff ff 	movq   $0x0,-0x1408(%rbp)
   19f7d:	00 00 00 00 
   19f81:	48 8d 85 b8 e4 ff ff 	lea    -0x1b48(%rbp),%rax
   19f88:	48 89 85 00 ec ff ff 	mov    %rax,-0x1400(%rbp)
   19f8f:	48 c7 85 08 ec ff ff 	movq   $0x0,-0x13f8(%rbp)
   19f96:	00 00 00 00 
   19f9a:	48 8d 85 b8 e4 ff ff 	lea    -0x1b48(%rbp),%rax
   19fa1:	48 89 85 10 ec ff ff 	mov    %rax,-0x13f0(%rbp)
   19fa8:	48 c7 85 18 ec ff ff 	movq   $0x0,-0x13e8(%rbp)
   19faf:	00 00 00 00 
   19fb3:	48 8d 85 b8 e4 ff ff 	lea    -0x1b48(%rbp),%rax
   19fba:	48 89 85 20 ec ff ff 	mov    %rax,-0x13e0(%rbp)
   19fc1:	48 c7 85 28 ec ff ff 	movq   $0x0,-0x13d8(%rbp)
   19fc8:	00 00 00 00 
   19fcc:	48 8d 85 b8 e4 ff ff 	lea    -0x1b48(%rbp),%rax
   19fd3:	48 89 85 30 ec ff ff 	mov    %rax,-0x13d0(%rbp)
   19fda:	48 c7 85 38 ec ff ff 	movq   $0x0,-0x13c8(%rbp)
   19fe1:	00 00 00 00 
   19fe5:	48 8d 85 f0 eb ff ff 	lea    -0x1410(%rbp),%rax
   19fec:	48 83 c0 28          	add    $0x28,%rax
   19ff0:	48 89 85 08 e6 ff ff 	mov    %rax,-0x19f8(%rbp)
   19ff7:	48 8d 05 5a 3b 01 00 	lea    0x13b5a(%rip),%rax        # 2db58 <g_717+0x18>
   19ffe:	48 89 85 c0 e4 ff ff 	mov    %rax,-0x1b40(%rbp)
   1a005:	48 8d 85 c0 e4 ff ff 	lea    -0x1b40(%rbp),%rax
   1a00c:	48 89 85 10 e6 ff ff 	mov    %rax,-0x19f0(%rbp)
   1a013:	48 8d 85 80 e4 ff ff 	lea    -0x1b80(%rbp),%rax
   1a01a:	48 89 85 40 ed ff ff 	mov    %rax,-0x12c0(%rbp)
   1a021:	48 8d 85 80 e4 ff ff 	lea    -0x1b80(%rbp),%rax
   1a028:	48 89 85 48 ed ff ff 	mov    %rax,-0x12b8(%rbp)
   1a02f:	48 8d 85 80 e4 ff ff 	lea    -0x1b80(%rbp),%rax
   1a036:	48 89 85 50 ed ff ff 	mov    %rax,-0x12b0(%rbp)
   1a03d:	48 8d 85 80 e4 ff ff 	lea    -0x1b80(%rbp),%rax
   1a044:	48 89 85 58 ed ff ff 	mov    %rax,-0x12a8(%rbp)
   1a04b:	48 8d 85 80 e4 ff ff 	lea    -0x1b80(%rbp),%rax
   1a052:	48 89 85 60 ed ff ff 	mov    %rax,-0x12a0(%rbp)
   1a059:	48 8d 85 80 e4 ff ff 	lea    -0x1b80(%rbp),%rax
   1a060:	48 89 85 68 ed ff ff 	mov    %rax,-0x1298(%rbp)
   1a067:	48 8d 85 80 e4 ff ff 	lea    -0x1b80(%rbp),%rax
   1a06e:	48 89 85 70 ed ff ff 	mov    %rax,-0x1290(%rbp)
   1a075:	48 8d 85 80 e4 ff ff 	lea    -0x1b80(%rbp),%rax
   1a07c:	48 89 85 78 ed ff ff 	mov    %rax,-0x1288(%rbp)
   1a083:	48 8d 85 80 e4 ff ff 	lea    -0x1b80(%rbp),%rax
   1a08a:	48 89 85 80 ed ff ff 	mov    %rax,-0x1280(%rbp)
   1a091:	48 8d 85 80 e4 ff ff 	lea    -0x1b80(%rbp),%rax
   1a098:	48 89 85 88 ed ff ff 	mov    %rax,-0x1278(%rbp)
   1a09f:	48 8d 85 80 e4 ff ff 	lea    -0x1b80(%rbp),%rax
   1a0a6:	48 89 85 90 ed ff ff 	mov    %rax,-0x1270(%rbp)
   1a0ad:	48 8d 85 80 e4 ff ff 	lea    -0x1b80(%rbp),%rax
   1a0b4:	48 89 85 98 ed ff ff 	mov    %rax,-0x1268(%rbp)
   1a0bb:	48 8d 85 80 e4 ff ff 	lea    -0x1b80(%rbp),%rax
   1a0c2:	48 89 85 a0 ed ff ff 	mov    %rax,-0x1260(%rbp)
   1a0c9:	48 8d 85 80 e4 ff ff 	lea    -0x1b80(%rbp),%rax
   1a0d0:	48 89 85 a8 ed ff ff 	mov    %rax,-0x1258(%rbp)
   1a0d7:	48 8d 85 80 e4 ff ff 	lea    -0x1b80(%rbp),%rax
   1a0de:	48 89 85 b0 ed ff ff 	mov    %rax,-0x1250(%rbp)
   1a0e5:	48 8d 85 80 e4 ff ff 	lea    -0x1b80(%rbp),%rax
   1a0ec:	48 89 85 b8 ed ff ff 	mov    %rax,-0x1248(%rbp)
   1a0f3:	48 c7 85 c0 ed ff ff 	movq   $0x0,-0x1240(%rbp)
   1a0fa:	00 00 00 00 
   1a0fe:	48 c7 85 c8 ed ff ff 	movq   $0x0,-0x1238(%rbp)
   1a105:	00 00 00 00 
   1a109:	48 8d 85 80 e4 ff ff 	lea    -0x1b80(%rbp),%rax
   1a110:	48 89 85 d0 ed ff ff 	mov    %rax,-0x1230(%rbp)
   1a117:	48 8d 85 80 e4 ff ff 	lea    -0x1b80(%rbp),%rax
   1a11e:	48 89 85 d8 ed ff ff 	mov    %rax,-0x1228(%rbp)
   1a125:	48 8d 85 80 e4 ff ff 	lea    -0x1b80(%rbp),%rax
   1a12c:	48 89 85 e0 ed ff ff 	mov    %rax,-0x1220(%rbp)
   1a133:	48 8d 85 80 e4 ff ff 	lea    -0x1b80(%rbp),%rax
   1a13a:	48 89 85 e8 ed ff ff 	mov    %rax,-0x1218(%rbp)
   1a141:	48 8d 85 80 e4 ff ff 	lea    -0x1b80(%rbp),%rax
   1a148:	48 89 85 f0 ed ff ff 	mov    %rax,-0x1210(%rbp)
   1a14f:	48 8d 85 80 e4 ff ff 	lea    -0x1b80(%rbp),%rax
   1a156:	48 89 85 f8 ed ff ff 	mov    %rax,-0x1208(%rbp)
   1a15d:	48 8d 85 80 e4 ff ff 	lea    -0x1b80(%rbp),%rax
   1a164:	48 89 85 00 ee ff ff 	mov    %rax,-0x1200(%rbp)
   1a16b:	48 8d 85 80 e4 ff ff 	lea    -0x1b80(%rbp),%rax
   1a172:	48 89 85 08 ee ff ff 	mov    %rax,-0x11f8(%rbp)
   1a179:	48 8d 85 80 e4 ff ff 	lea    -0x1b80(%rbp),%rax
   1a180:	48 89 85 10 ee ff ff 	mov    %rax,-0x11f0(%rbp)
   1a187:	48 8d 85 80 e4 ff ff 	lea    -0x1b80(%rbp),%rax
   1a18e:	48 89 85 18 ee ff ff 	mov    %rax,-0x11e8(%rbp)
   1a195:	48 8d 85 80 e4 ff ff 	lea    -0x1b80(%rbp),%rax
   1a19c:	48 89 85 20 ee ff ff 	mov    %rax,-0x11e0(%rbp)
   1a1a3:	48 8d 85 80 e4 ff ff 	lea    -0x1b80(%rbp),%rax
   1a1aa:	48 89 85 28 ee ff ff 	mov    %rax,-0x11d8(%rbp)
   1a1b1:	48 8d 05 08 39 01 00 	lea    0x13908(%rip),%rax        # 2dac0 <g_269>
   1a1b8:	48 89 85 c8 e4 ff ff 	mov    %rax,-0x1b38(%rbp)
   1a1bf:	c7 85 14 e4 ff ff 00 	movl   $0x0,-0x1bec(%rbp)
   1a1c6:	00 00 00 
   1a1c9:	eb 1a                	jmp    1a1e5 <func_47+0x3372>
   1a1cb:	8b 85 14 e4 ff ff    	mov    -0x1bec(%rbp),%eax
   1a1d1:	48 98                	cltq   
   1a1d3:	c7 84 85 d0 e8 ff ff 	movl   $0x75af100d,-0x1730(%rbp,%rax,4)
   1a1da:	0d 10 af 75 
   1a1de:	83 85 14 e4 ff ff 01 	addl   $0x1,-0x1bec(%rbp)
   1a1e5:	83 bd 14 e4 ff ff 04 	cmpl   $0x4,-0x1bec(%rbp)
   1a1ec:	7e dd                	jle    1a1cb <func_47+0x3358>
   1a1ee:	90                   	nop
   1a1ef:	48 8b 85 a0 e4 ff ff 	mov    -0x1b60(%rbp),%rax
   1a1f6:	66 c7 00 00 00       	movw   $0x0,(%rax)
   1a1fb:	0f b6 85 aa e3 ff ff 	movzbl -0x1c56(%rbp),%eax
   1a202:	89 c6                	mov    %eax,%esi
   1a204:	bf 44 92 ff ff       	mov    $0xffff9244,%edi
   1a209:	e8 a5 61 ff ff       	callq  103b3 <safe_add_func_int16_t_s_s>
   1a20e:	80 bd 9c e3 ff ff 00 	cmpb   $0x0,-0x1c64(%rbp)
   1a215:	75 07                	jne    1a21e <func_47+0x33ab>
   1a217:	b8 01 00 00 00       	mov    $0x1,%eax
   1a21c:	eb 05                	jmp    1a223 <func_47+0x33b0>
   1a21e:	b8 00 00 00 00       	mov    $0x0,%eax
   1a223:	48 63 d0             	movslq %eax,%rdx
   1a226:	48 8b 85 88 e3 ff ff 	mov    -0x1c78(%rbp),%rax
   1a22d:	48 09 d0             	or     %rdx,%rax
   1a230:	48 89 c1             	mov    %rax,%rcx
   1a233:	48 8b 85 10 e6 ff ff 	mov    -0x19f0(%rbp),%rax
   1a23a:	48 c7 00 00 00 00 00 	movq   $0x0,(%rax)
   1a241:	48 8b 85 10 e6 ff ff 	mov    -0x19f0(%rbp),%rax
   1a248:	48 8b 00             	mov    (%rax),%rax
   1a24b:	48 89 85 f8 e5 ff ff 	mov    %rax,-0x1a08(%rbp)
   1a252:	48 8b 85 f8 e5 ff ff 	mov    -0x1a08(%rbp),%rax
   1a259:	48 3b 85 08 e6 ff ff 	cmp    -0x19f8(%rbp),%rax
   1a260:	0f 95 c2             	setne  %dl
   1a263:	48 8b 05 56 12 01 00 	mov    0x11256(%rip),%rax        # 2b4c0 <g_296>
   1a26a:	48 8b 00             	mov    (%rax),%rax
   1a26d:	0f b6 d2             	movzbl %dl,%edx
   1a270:	48 89 10             	mov    %rdx,(%rax)
   1a273:	48 8b 00             	mov    (%rax),%rax
   1a276:	48 89 ce             	mov    %rcx,%rsi
   1a279:	48 89 c7             	mov    %rax,%rdi
   1a27c:	e8 27 66 ff ff       	callq  108a8 <safe_sub_func_int64_t_s_s>
   1a281:	48 89 c2             	mov    %rax,%rdx
   1a284:	48 8b 05 15 14 01 00 	mov    0x11415(%rip),%rax        # 2b6a0 <g_1006>
   1a28b:	48 8b 00             	mov    (%rax),%rax
   1a28e:	48 21 d0             	and    %rdx,%rax
   1a291:	48 85 c0             	test   %rax,%rax
   1a294:	74 11                	je     1a2a7 <func_47+0x3434>
   1a296:	66 83 bd 98 e3 ff ff 	cmpw   $0x0,-0x1c68(%rbp)
   1a29d:	00 
   1a29e:	74 07                	je     1a2a7 <func_47+0x3434>
   1a2a0:	b8 01 00 00 00       	mov    $0x1,%eax
   1a2a5:	eb 05                	jmp    1a2ac <func_47+0x3439>
   1a2a7:	b8 00 00 00 00       	mov    $0x0,%eax
   1a2ac:	0f b6 c0             	movzbl %al,%eax
   1a2af:	89 c6                	mov    %eax,%esi
   1a2b1:	bf 01 00 00 00       	mov    $0x1,%edi
   1a2b6:	e8 f3 68 ff ff       	callq  10bae <safe_mod_func_uint8_t_u_u>
   1a2bb:	84 c0                	test   %al,%al
   1a2bd:	0f be 95 9c e3 ff ff 	movsbl -0x1c64(%rbp),%edx
   1a2c4:	0f bf 85 98 e3 ff ff 	movswl -0x1c68(%rbp),%eax
   1a2cb:	39 c2                	cmp    %eax,%edx
   1a2cd:	0f 95 c0             	setne  %al
   1a2d0:	0f b6 c0             	movzbl %al,%eax
   1a2d3:	be 2a 00 00 00       	mov    $0x2a,%esi
   1a2d8:	89 c7                	mov    %eax,%edi
   1a2da:	e8 8b 5f ff ff       	callq  1026a <safe_div_func_int8_t_s_s>
   1a2df:	48 8b 95 00 e5 ff ff 	mov    -0x1b00(%rbp),%rdx
   1a2e6:	8b 12                	mov    (%rdx),%edx
   1a2e8:	0f be c0             	movsbl %al,%eax
   1a2eb:	09 c2                	or     %eax,%edx
   1a2ed:	48 8b 85 00 e5 ff ff 	mov    -0x1b00(%rbp),%rax
   1a2f4:	89 10                	mov    %edx,(%rax)
   1a2f6:	c7 05 00 d1 00 00 00 	movl   $0x0,0xd100(%rip)        # 27400 <g_737>
   1a2fd:	00 00 00 
   1a300:	e9 52 13 00 00       	jmpq   1b657 <func_47+0x47e4>
   1a305:	48 8d 05 14 cf 00 00 	lea    0xcf14(%rip),%rax        # 27220 <g_722>
   1a30c:	48 89 85 18 e6 ff ff 	mov    %rax,-0x19e8(%rbp)
   1a313:	c7 85 c4 e3 ff ff 1b 	movl   $0x21aff91b,-0x1c3c(%rbp)
   1a31a:	f9 af 21 
   1a31d:	c7 85 44 e4 ff ff e3 	movl   $0xf2544ce3,-0x1bbc(%rbp)
   1a324:	4c 54 f2 
   1a327:	48 b8 a9 39 03 c4 8f 	movabs $0xe3e6188fc40339a9,%rax
   1a32e:	18 e6 e3 
   1a331:	48 89 85 f0 e4 ff ff 	mov    %rax,-0x1b10(%rbp)
   1a338:	48 8d 05 79 d1 00 00 	lea    0xd179(%rip),%rax        # 274b8 <g_1205>
   1a33f:	48 89 85 d0 e4 ff ff 	mov    %rax,-0x1b30(%rbp)
   1a346:	48 8d 85 d0 e4 ff ff 	lea    -0x1b30(%rbp),%rax
   1a34d:	48 89 85 d8 e4 ff ff 	mov    %rax,-0x1b28(%rbp)
   1a354:	48 8d 85 d8 e4 ff ff 	lea    -0x1b28(%rbp),%rax
   1a35b:	48 89 85 e0 e4 ff ff 	mov    %rax,-0x1b20(%rbp)
   1a362:	48 8d 85 30 f8 ff ff 	lea    -0x7d0(%rbp),%rax
   1a369:	48 8d 15 f0 f7 00 00 	lea    0xf7f0(%rip),%rdx        # 29b60 <g_3136+0x2260>
   1a370:	b9 f0 00 00 00       	mov    $0xf0,%ecx
   1a375:	48 89 c7             	mov    %rax,%rdi
   1a378:	48 89 d6             	mov    %rdx,%rsi
   1a37b:	f3 48 a5             	rep movsq %ds:(%rsi),%es:(%rdi)
   1a37e:	c7 85 18 e4 ff ff 00 	movl   $0x0,-0x1be8(%rbp)
   1a385:	00 00 00 
   1a388:	eb 1e                	jmp    1a3a8 <func_47+0x3535>
   1a38a:	8b 85 18 e4 ff ff    	mov    -0x1be8(%rbp),%eax
   1a390:	48 98                	cltq   
   1a392:	48 8d 95 e0 e4 ff ff 	lea    -0x1b20(%rbp),%rdx
   1a399:	48 89 94 c5 90 e9 ff 	mov    %rdx,-0x1670(%rbp,%rax,8)
   1a3a0:	ff 
   1a3a1:	83 85 18 e4 ff ff 01 	addl   $0x1,-0x1be8(%rbp)
   1a3a8:	83 bd 18 e4 ff ff 04 	cmpl   $0x4,-0x1be8(%rbp)
   1a3af:	7e d9                	jle    1a38a <func_47+0x3517>
   1a3b1:	0f b6 85 9c e3 ff ff 	movzbl -0x1c64(%rbp),%eax
   1a3b8:	0f b6 c0             	movzbl %al,%eax
   1a3bb:	be 02 00 00 00       	mov    $0x2,%esi
   1a3c0:	89 c7                	mov    %eax,%edi
   1a3c2:	e8 f7 68 ff ff       	callq  10cbe <safe_rshift_func_uint8_t_u_u>
   1a3c7:	0f b6 d8             	movzbl %al,%ebx
   1a3ca:	48 8b 85 88 e3 ff ff 	mov    -0x1c78(%rbp),%rax
   1a3d1:	89 c1                	mov    %eax,%ecx
   1a3d3:	48 8d 05 b6 12 01 00 	lea    0x112b6(%rip),%rax        # 2b690 <g_718>
   1a3da:	48 39 85 10 e5 ff ff 	cmp    %rax,-0x1af0(%rbp)
   1a3e1:	0f 95 c0             	setne  %al
   1a3e4:	0f b6 c0             	movzbl %al,%eax
   1a3e7:	8b 15 b7 36 01 00    	mov    0x136b7(%rip),%edx        # 2daa4 <g_126>
   1a3ed:	21 d0                	and    %edx,%eax
   1a3ef:	0f b7 c0             	movzwl %ax,%eax
   1a3f2:	89 ce                	mov    %ecx,%esi
   1a3f4:	89 c7                	mov    %eax,%edi
   1a3f6:	e8 0b 6a ff ff       	callq  10e06 <safe_lshift_func_uint16_t_u_u>
   1a3fb:	0f b7 c0             	movzwl %ax,%eax
   1a3fe:	be fa ff 00 00       	mov    $0xfffa,%esi
   1a403:	89 c7                	mov    %eax,%edi
   1a405:	e8 f5 68 ff ff       	callq  10cff <safe_add_func_uint16_t_u_u>
   1a40a:	0f b7 d0             	movzwl %ax,%edx
   1a40d:	48 8b 85 78 ed ff ff 	mov    -0x1288(%rbp),%rax
   1a414:	48 8d 0d a5 10 01 00 	lea    0x110a5(%rip),%rcx        # 2b4c0 <g_296>
   1a41b:	48 39 c8             	cmp    %rcx,%rax
   1a41e:	0f 95 c0             	setne  %al
   1a421:	0f b6 c0             	movzbl %al,%eax
   1a424:	48 89 d6             	mov    %rdx,%rsi
   1a427:	48 89 c7             	mov    %rax,%rdi
   1a42a:	e8 c8 65 ff ff       	callq  109f7 <safe_div_func_int64_t_s_s>
   1a42f:	48 85 c0             	test   %rax,%rax
   1a432:	75 08                	jne    1a43c <func_47+0x35c9>
   1a434:	8b 85 a0 e7 ff ff    	mov    -0x1860(%rbp),%eax
   1a43a:	85 c0                	test   %eax,%eax
   1a43c:	48 83 bd 18 e5 ff ff 	cmpq   $0x1,-0x1ae8(%rbp)
   1a443:	01 
   1a444:	0f 95 c0             	setne  %al
   1a447:	0f b6 d0             	movzbl %al,%edx
   1a44a:	48 8b 85 00 e5 ff ff 	mov    -0x1b00(%rbp),%rax
   1a451:	8b 00                	mov    (%rax),%eax
   1a453:	39 c2                	cmp    %eax,%edx
   1a455:	0f 9c c0             	setl   %al
   1a458:	0f b6 c0             	movzbl %al,%eax
   1a45b:	48 63 d0             	movslq %eax,%rdx
   1a45e:	48 8b 85 00 e5 ff ff 	mov    -0x1b00(%rbp),%rax
   1a465:	8b 00                	mov    (%rax),%eax
   1a467:	48 98                	cltq   
   1a469:	48 89 d6             	mov    %rdx,%rsi
   1a46c:	48 89 c7             	mov    %rax,%rdi
   1a46f:	e8 cd 63 ff ff       	callq  10841 <safe_add_func_int64_t_s_s>
   1a474:	48 39 c3             	cmp    %rax,%rbx
   1a477:	0f 95 c0             	setne  %al
   1a47a:	0f b6 d0             	movzbl %al,%edx
   1a47d:	48 8b 85 18 e6 ff ff 	mov    -0x19e8(%rbp),%rax
   1a484:	89 10                	mov    %edx,(%rax)
   1a486:	b8 01 00 00 00       	mov    $0x1,%eax
   1a48b:	89 05 2f cc 00 00    	mov    %eax,0xcc2f(%rip)        # 270c0 <g_149>
   1a491:	8b 05 29 cc 00 00    	mov    0xcc29(%rip),%eax        # 270c0 <g_149>
   1a497:	89 c2                	mov    %eax,%edx
   1a499:	48 8b 05 f8 11 01 00 	mov    0x111f8(%rip),%rax        # 2b698 <g_1000>
   1a4a0:	8b 00                	mov    (%rax),%eax
   1a4a2:	89 d6                	mov    %edx,%esi
   1a4a4:	89 c7                	mov    %eax,%edi
   1a4a6:	e8 21 62 ff ff       	callq  106cc <safe_mod_func_int32_t_s_s>
   1a4ab:	0f b6 d0             	movzbl %al,%edx
   1a4ae:	0f b6 05 13 cc 00 00 	movzbl 0xcc13(%rip),%eax        # 270c8 <g_211>
   1a4b5:	32 85 9c e3 ff ff    	xor    -0x1c64(%rbp),%al
   1a4bb:	0f b6 c0             	movzbl %al,%eax
   1a4be:	89 d6                	mov    %edx,%esi
   1a4c0:	89 c7                	mov    %eax,%edi
   1a4c2:	e8 e7 66 ff ff       	callq  10bae <safe_mod_func_uint8_t_u_u>
   1a4c7:	8b 85 c4 e3 ff ff    	mov    -0x1c3c(%rbp),%eax
   1a4cd:	48 98                	cltq   
   1a4cf:	be 00 00 00 00       	mov    $0x0,%esi
   1a4d4:	48 89 c7             	mov    %rax,%rdi
   1a4d7:	e8 cc 63 ff ff       	callq  108a8 <safe_sub_func_int64_t_s_s>
   1a4dc:	0f be c0             	movsbl %al,%eax
   1a4df:	be 01 00 00 00       	mov    $0x1,%esi
   1a4e4:	89 c7                	mov    %eax,%edi
   1a4e6:	e8 b6 5d ff ff       	callq  102a1 <safe_lshift_func_int8_t_s_s>
   1a4eb:	48 8b 85 00 e5 ff ff 	mov    -0x1b00(%rbp),%rax
   1a4f2:	8b 00                	mov    (%rax),%eax
   1a4f4:	0f b7 c0             	movzwl %ax,%eax
   1a4f7:	be 0d 00 00 00       	mov    $0xd,%esi
   1a4fc:	89 c7                	mov    %eax,%edi
   1a4fe:	e8 bb 68 ff ff       	callq  10dbe <safe_lshift_func_uint16_t_u_s>
   1a503:	0f b7 c0             	movzwl %ax,%eax
   1a506:	89 85 dc e8 ff ff    	mov    %eax,-0x1724(%rbp)
   1a50c:	c7 05 92 cf 00 00 00 	movl   $0x0,0xcf92(%rip)        # 274a8 <g_1145>
   1a513:	00 00 00 
   1a516:	e9 a6 00 00 00       	jmpq   1a5c1 <func_47+0x374e>
   1a51b:	48 8d 85 70 ef ff ff 	lea    -0x1090(%rbp),%rax
   1a522:	48 05 84 01 00 00    	add    $0x184,%rax
   1a528:	48 89 85 20 e6 ff ff 	mov    %rax,-0x19e0(%rbp)
   1a52f:	48 8d 05 02 cf 00 00 	lea    0xcf02(%rip),%rax        # 27438 <g_888>
   1a536:	48 89 85 28 e6 ff ff 	mov    %rax,-0x19d8(%rbp)
   1a53d:	48 8d 05 f4 ce 00 00 	lea    0xcef4(%rip),%rax        # 27438 <g_888>
   1a544:	48 89 85 30 e6 ff ff 	mov    %rax,-0x19d0(%rbp)
   1a54b:	48 8d 85 b0 e7 ff ff 	lea    -0x1850(%rbp),%rax
   1a552:	48 89 85 38 e6 ff ff 	mov    %rax,-0x19c8(%rbp)
   1a559:	48 8d 85 d0 e8 ff ff 	lea    -0x1730(%rbp),%rax
   1a560:	48 83 c0 0c          	add    $0xc,%rax
   1a564:	48 89 85 40 e6 ff ff 	mov    %rax,-0x19c0(%rbp)
   1a56b:	c7 85 1c e4 ff ff 00 	movl   $0x0,-0x1be4(%rbp)
   1a572:	00 00 00 
   1a575:	eb 1e                	jmp    1a595 <func_47+0x3722>
   1a577:	8b 85 1c e4 ff ff    	mov    -0x1be4(%rbp),%eax
   1a57d:	48 98                	cltq   
   1a57f:	48 8d 95 bc e3 ff ff 	lea    -0x1c44(%rbp),%rdx
   1a586:	48 89 94 c5 90 f2 ff 	mov    %rdx,-0xd70(%rbp,%rax,8)
   1a58d:	ff 
   1a58e:	83 85 1c e4 ff ff 01 	addl   $0x1,-0x1be4(%rbp)
   1a595:	83 bd 1c e4 ff ff 00 	cmpl   $0x0,-0x1be4(%rbp)
   1a59c:	7e d9                	jle    1a577 <func_47+0x3704>
   1a59e:	48 8b 85 88 e3 ff ff 	mov    -0x1c78(%rbp),%rax
   1a5a5:	48 85 c0             	test   %rax,%rax
   1a5a8:	75 28                	jne    1a5d2 <func_47+0x375f>
   1a5aa:	48 83 ad f0 e4 ff ff 	subq   $0x1,-0x1b10(%rbp)
   1a5b1:	01 
   1a5b2:	8b 05 f0 ce 00 00    	mov    0xcef0(%rip),%eax        # 274a8 <g_1145>
   1a5b8:	83 c0 01             	add    $0x1,%eax
   1a5bb:	89 05 e7 ce 00 00    	mov    %eax,0xcee7(%rip)        # 274a8 <g_1145>
   1a5c1:	8b 05 e1 ce 00 00    	mov    0xcee1(%rip),%eax        # 274a8 <g_1145>
   1a5c7:	83 f8 3b             	cmp    $0x3b,%eax
   1a5ca:	0f 85 4b ff ff ff    	jne    1a51b <func_47+0x36a8>
   1a5d0:	eb 01                	jmp    1a5d3 <func_47+0x3760>
   1a5d2:	90                   	nop
   1a5d3:	8b 85 c4 e3 ff ff    	mov    -0x1c3c(%rbp),%eax
   1a5d9:	0f b6 d8             	movzbl %al,%ebx
   1a5dc:	4c 8b a5 88 e3 ff ff 	mov    -0x1c78(%rbp),%r12
   1a5e3:	48 c7 05 92 17 01 00 	movq   $0x0,0x11792(%rip)        # 2bd80 <g_1206>
   1a5ea:	00 00 00 00 
   1a5ee:	48 8b 85 00 e5 ff ff 	mov    -0x1b00(%rbp),%rax
   1a5f5:	8b 00                	mov    (%rax),%eax
   1a5f7:	44 0f be e8          	movsbl %al,%r13d
   1a5fb:	44 0f bf b5 98 e3 ff 	movswl -0x1c68(%rbp),%r14d
   1a602:	ff 
   1a603:	48 8b 85 88 e3 ff ff 	mov    -0x1c78(%rbp),%rax
   1a60a:	41 89 c7             	mov    %eax,%r15d
   1a60d:	be b9 ff ff ff       	mov    $0xffffffb9,%esi
   1a612:	bf 01 00 00 00       	mov    $0x1,%edi
   1a617:	e8 d6 5b ff ff       	callq  101f2 <safe_sub_func_int8_t_s_s>
   1a61c:	0f be c0             	movsbl %al,%eax
   1a61f:	be da 79 07 f5       	mov    $0xf50779da,%esi
   1a624:	89 c7                	mov    %eax,%edi
   1a626:	e8 fa 68 ff ff       	callq  10f25 <safe_div_func_uint32_t_u_u>
   1a62b:	85 c0                	test   %eax,%eax
   1a62d:	75 0d                	jne    1a63c <func_47+0x37c9>
   1a62f:	48 8b 85 00 e5 ff ff 	mov    -0x1b00(%rbp),%rax
   1a636:	8b 00                	mov    (%rax),%eax
   1a638:	85 c0                	test   %eax,%eax
   1a63a:	74 07                	je     1a643 <func_47+0x37d0>
   1a63c:	b8 01 00 00 00       	mov    $0x1,%eax
   1a641:	eb 05                	jmp    1a648 <func_47+0x37d5>
   1a643:	b8 00 00 00 00       	mov    $0x0,%eax
   1a648:	89 c2                	mov    %eax,%edx
   1a64a:	48 8b 85 88 e3 ff ff 	mov    -0x1c78(%rbp),%rax
   1a651:	09 d0                	or     %edx,%eax
   1a653:	0f be c0             	movsbl %al,%eax
   1a656:	89 c6                	mov    %eax,%esi
   1a658:	bf 01 00 00 00       	mov    $0x1,%edi
   1a65d:	e8 b0 5b ff ff       	callq  10212 <safe_mul_func_int8_t_s_s>
   1a662:	0f b6 c0             	movzbl %al,%eax
   1a665:	44 89 fe             	mov    %r15d,%esi
   1a668:	89 c7                	mov    %eax,%edi
   1a66a:	e8 4f 66 ff ff       	callq  10cbe <safe_rshift_func_uint8_t_u_u>
   1a66f:	0f b6 c0             	movzbl %al,%eax
   1a672:	44 89 f6             	mov    %r14d,%esi
   1a675:	89 c7                	mov    %eax,%edi
   1a677:	e8 37 5d ff ff       	callq  103b3 <safe_add_func_int16_t_s_s>
   1a67c:	0f be c0             	movsbl %al,%eax
   1a67f:	44 89 ee             	mov    %r13d,%esi
   1a682:	89 c7                	mov    %eax,%edi
   1a684:	e8 89 5b ff ff       	callq  10212 <safe_mul_func_int8_t_s_s>
   1a689:	48 8b 85 70 ed ff ff 	mov    -0x1290(%rbp),%rax
   1a690:	48 85 c0             	test   %rax,%rax
   1a693:	0f 95 c0             	setne  %al
   1a696:	0f b6 c0             	movzbl %al,%eax
   1a699:	4c 89 e6             	mov    %r12,%rsi
   1a69c:	48 89 c7             	mov    %rax,%rdi
   1a69f:	e8 dc 69 ff ff       	callq  11080 <safe_mod_func_uint64_t_u_u>
   1a6a4:	48 85 c0             	test   %rax,%rax
   1a6a7:	74 10                	je     1a6b9 <func_47+0x3846>
   1a6a9:	80 bd 9c e3 ff ff 00 	cmpb   $0x0,-0x1c64(%rbp)
   1a6b0:	74 07                	je     1a6b9 <func_47+0x3846>
   1a6b2:	b8 01 00 00 00       	mov    $0x1,%eax
   1a6b7:	eb 05                	jmp    1a6be <func_47+0x384b>
   1a6b9:	b8 00 00 00 00       	mov    $0x0,%eax
   1a6be:	0f b6 c0             	movzbl %al,%eax
   1a6c1:	89 de                	mov    %ebx,%esi
   1a6c3:	89 c7                	mov    %eax,%edi
   1a6c5:	e8 ae 64 ff ff       	callq  10b78 <safe_sub_func_uint8_t_u_u>
   1a6ca:	89 c3                	mov    %eax,%ebx
   1a6cc:	66 83 bd 98 e3 ff ff 	cmpw   $0x0,-0x1c68(%rbp)
   1a6d3:	00 
   1a6d4:	0f 9f c0             	setg   %al
   1a6d7:	0f b6 d0             	movzbl %al,%edx
   1a6da:	48 0f be 85 9c e3 ff 	movsbq -0x1c64(%rbp),%rax
   1a6e1:	ff 
   1a6e2:	48 89 d6             	mov    %rdx,%rsi
   1a6e5:	48 89 c7             	mov    %rax,%rdi
   1a6e8:	e8 5e 69 ff ff       	callq  1104b <safe_sub_func_uint64_t_u_u>
   1a6ed:	8b 8d d4 e8 ff ff    	mov    -0x172c(%rbp),%ecx
   1a6f3:	0f b6 d3             	movzbl %bl,%edx
   1a6f6:	31 ca                	xor    %ecx,%edx
   1a6f8:	89 95 d4 e8 ff ff    	mov    %edx,-0x172c(%rbp)
   1a6fe:	8b 95 d4 e8 ff ff    	mov    -0x172c(%rbp),%edx
   1a704:	48 63 d2             	movslq %edx,%rdx
   1a707:	48 09 d0             	or     %rdx,%rax
   1a70a:	48 85 c0             	test   %rax,%rax
   1a70d:	0f 84 42 02 00 00    	je     1a955 <func_47+0x3ae2>
   1a713:	66 83 bd 98 e3 ff ff 	cmpw   $0x0,-0x1c68(%rbp)
   1a71a:	00 
   1a71b:	0f 84 34 02 00 00    	je     1a955 <func_47+0x3ae2>
   1a721:	c6 85 ab e3 ff ff f0 	movb   $0xf0,-0x1c55(%rbp)
   1a728:	48 8d 05 d9 33 01 00 	lea    0x133d9(%rip),%rax        # 2db08 <g_546>
   1a72f:	48 89 85 48 e6 ff ff 	mov    %rax,-0x19b8(%rbp)
   1a736:	48 8d 05 73 cd 00 00 	lea    0xcd73(%rip),%rax        # 274b0 <g_1175>
   1a73d:	48 89 85 50 e6 ff ff 	mov    %rax,-0x19b0(%rbp)
   1a744:	c6 05 45 cd 00 00 00 	movb   $0x0,0xcd45(%rip)        # 27490 <g_899>
   1a74b:	e9 8d 00 00 00       	jmpq   1a7dd <func_47+0x396a>
   1a750:	48 8d 85 c4 e3 ff ff 	lea    -0x1c3c(%rbp),%rax
   1a757:	48 89 85 58 e6 ff ff 	mov    %rax,-0x19a8(%rbp)
   1a75e:	48 8d 85 c0 e3 ff ff 	lea    -0x1c40(%rbp),%rax
   1a765:	48 89 85 60 e6 ff ff 	mov    %rax,-0x19a0(%rbp)
   1a76c:	48 8d 85 b0 e7 ff ff 	lea    -0x1850(%rbp),%rax
   1a773:	48 83 c0 14          	add    $0x14,%rax
   1a777:	48 89 85 68 e6 ff ff 	mov    %rax,-0x1998(%rbp)
   1a77e:	c7 85 20 e4 ff ff 00 	movl   $0x0,-0x1be0(%rbp)
   1a785:	00 00 00 
   1a788:	eb 22                	jmp    1a7ac <func_47+0x3939>
   1a78a:	8b 85 20 e4 ff ff    	mov    -0x1be0(%rbp),%eax
   1a790:	48 98                	cltq   
   1a792:	48 8d 95 d0 e8 ff ff 	lea    -0x1730(%rbp),%rdx
   1a799:	48 83 c2 0c          	add    $0xc,%rdx
   1a79d:	48 89 94 c5 90 f2 ff 	mov    %rdx,-0xd70(%rbp,%rax,8)
   1a7a4:	ff 
   1a7a5:	83 85 20 e4 ff ff 01 	addl   $0x1,-0x1be0(%rbp)
   1a7ac:	83 bd 20 e4 ff ff 01 	cmpl   $0x1,-0x1be0(%rbp)
   1a7b3:	7e d5                	jle    1a78a <func_47+0x3917>
   1a7b5:	83 ad 00 e4 ff ff 01 	subl   $0x1,-0x1c00(%rbp)
   1a7bc:	48 8b 85 98 e4 ff ff 	mov    -0x1b68(%rbp),%rax
   1a7c3:	48 85 c0             	test   %rax,%rax
   1a7c6:	74 05                	je     1a7cd <func_47+0x395a>
   1a7c8:	e9 22 fa ff ff       	jmpq   1a1ef <func_47+0x337c>
   1a7cd:	0f b6 05 bc cc 00 00 	movzbl 0xccbc(%rip),%eax        # 27490 <g_899>
   1a7d4:	83 c0 01             	add    $0x1,%eax
   1a7d7:	88 05 b3 cc 00 00    	mov    %al,0xccb3(%rip)        # 27490 <g_899>
   1a7dd:	0f b6 05 ac cc 00 00 	movzbl 0xccac(%rip),%eax        # 27490 <g_899>
   1a7e4:	3c 01                	cmp    $0x1,%al
   1a7e6:	0f 8e 64 ff ff ff    	jle    1a750 <func_47+0x38dd>
   1a7ec:	0f b6 95 aa e3 ff ff 	movzbl -0x1c56(%rbp),%edx
   1a7f3:	48 8b 85 88 e3 ff ff 	mov    -0x1c78(%rbp),%rax
   1a7fa:	48 39 c2             	cmp    %rax,%rdx
   1a7fd:	0f 95 c0             	setne  %al
   1a800:	0f b6 d8             	movzbl %al,%ebx
   1a803:	0f b6 05 c3 c8 00 00 	movzbl 0xc8c3(%rip),%eax        # 270cd <g_211+0x5>
   1a80a:	48 8b 95 88 e3 ff ff 	mov    -0x1c78(%rbp),%rdx
   1a811:	09 d0                	or     %edx,%eax
   1a813:	88 05 b4 c8 00 00    	mov    %al,0xc8b4(%rip)        # 270cd <g_211+0x5>
   1a819:	0f b6 05 ad c8 00 00 	movzbl 0xc8ad(%rip),%eax        # 270cd <g_211+0x5>
   1a820:	0f b6 d0             	movzbl %al,%edx
   1a823:	48 8b 85 00 e5 ff ff 	mov    -0x1b00(%rbp),%rax
   1a82a:	8b 00                	mov    (%rax),%eax
   1a82c:	0f b6 c0             	movzbl %al,%eax
   1a82f:	89 d6                	mov    %edx,%esi
   1a831:	89 c7                	mov    %eax,%edi
   1a833:	e8 40 63 ff ff       	callq  10b78 <safe_sub_func_uint8_t_u_u>
   1a838:	0f b6 c0             	movzbl %al,%eax
   1a83b:	09 c3                	or     %eax,%ebx
   1a83d:	41 89 dc             	mov    %ebx,%r12d
   1a840:	48 8b 05 59 0e 01 00 	mov    0x10e59(%rip),%rax        # 2b6a0 <g_1006>
   1a847:	48 bb 50 62 fe f1 37 	movabs $0x68f68a37f1fe6250,%rbx
   1a84e:	8a f6 68 
   1a851:	48 89 18             	mov    %rbx,(%rax)
   1a854:	48 8b 10             	mov    (%rax),%rdx
   1a857:	48 8b 85 48 e6 ff ff 	mov    -0x19b8(%rbp),%rax
   1a85e:	48 89 10             	mov    %rdx,(%rax)
   1a861:	48 8b 85 48 e6 ff ff 	mov    -0x19b8(%rbp),%rax
   1a868:	48 8b 10             	mov    (%rax),%rdx
   1a86b:	48 8b 85 50 e6 ff ff 	mov    -0x19b0(%rbp),%rax
   1a872:	48 89 10             	mov    %rdx,(%rax)
   1a875:	48 8b 85 50 e6 ff ff 	mov    -0x19b0(%rbp),%rax
   1a87c:	48 8b 08             	mov    (%rax),%rcx
   1a87f:	48 0f be b5 9c e3 ff 	movsbq -0x1c64(%rbp),%rsi
   1a886:	ff 
   1a887:	48 8b 85 f8 e4 ff ff 	mov    -0x1b08(%rbp),%rax
   1a88e:	48 8b 00             	mov    (%rax),%rax
   1a891:	48 8b 00             	mov    (%rax),%rax
   1a894:	48 8b 00             	mov    (%rax),%rax
   1a897:	8b 95 44 e4 ff ff    	mov    -0x1bbc(%rbp),%edx
   1a89d:	48 63 d2             	movslq %edx,%rdx
   1a8a0:	48 89 10             	mov    %rdx,(%rax)
   1a8a3:	48 8b 00             	mov    (%rax),%rax
   1a8a6:	48 39 c6             	cmp    %rax,%rsi
   1a8a9:	0f 95 c0             	setne  %al
   1a8ac:	0f b6 c0             	movzbl %al,%eax
   1a8af:	48 39 c1             	cmp    %rax,%rcx
   1a8b2:	0f 97 c0             	seta   %al
   1a8b5:	0f b6 d0             	movzbl %al,%edx
   1a8b8:	0f b7 85 98 e3 ff ff 	movzwl -0x1c68(%rbp),%eax
   1a8bf:	0f be c0             	movsbl %al,%eax
   1a8c2:	89 d6                	mov    %edx,%esi
   1a8c4:	89 c7                	mov    %eax,%edi
   1a8c6:	e8 47 59 ff ff       	callq  10212 <safe_mul_func_int8_t_s_s>
   1a8cb:	0f be d8             	movsbl %al,%ebx
   1a8ce:	48 0f bf 95 98 e3 ff 	movswq -0x1c68(%rbp),%rdx
   1a8d5:	ff 
   1a8d6:	48 8b 85 f0 e4 ff ff 	mov    -0x1b10(%rbp),%rax
   1a8dd:	48 89 d6             	mov    %rdx,%rsi
   1a8e0:	48 89 c7             	mov    %rax,%rdi
   1a8e3:	e8 c0 5f ff ff       	callq  108a8 <safe_sub_func_int64_t_s_s>
   1a8e8:	be 01 00 00 00       	mov    $0x1,%esi
   1a8ed:	89 c7                	mov    %eax,%edi
   1a8ef:	e8 d8 5d ff ff       	callq  106cc <safe_mod_func_int32_t_s_s>
   1a8f4:	f7 d0                	not    %eax
   1a8f6:	c1 e8 1f             	shr    $0x1f,%eax
   1a8f9:	0f b6 c0             	movzbl %al,%eax
   1a8fc:	48 89 c7             	mov    %rax,%rdi
   1a8ff:	e8 15 67 ff ff       	callq  11019 <safe_unary_minus_func_uint64_t_u>
   1a904:	48 0f bf 95 98 e3 ff 	movswq -0x1c68(%rbp),%rdx
   1a90b:	ff 
   1a90c:	48 39 d0             	cmp    %rdx,%rax
   1a90f:	0f 95 c0             	setne  %al
   1a912:	0f b6 c0             	movzbl %al,%eax
   1a915:	39 c3                	cmp    %eax,%ebx
   1a917:	0f 9f c0             	setg   %al
   1a91a:	0f b6 d0             	movzbl %al,%edx
   1a91d:	0f b6 05 74 cb 00 00 	movzbl 0xcb74(%rip),%eax        # 27498 <g_903>
   1a924:	0f b6 c0             	movzbl %al,%eax
   1a927:	39 c2                	cmp    %eax,%edx
   1a929:	0f 9f c0             	setg   %al
   1a92c:	0f b6 c0             	movzbl %al,%eax
   1a92f:	41 39 c4             	cmp    %eax,%r12d
   1a932:	8b 05 48 c8 00 00    	mov    0xc848(%rip),%eax        # 27180 <g_273>
   1a938:	89 c2                	mov    %eax,%edx
   1a93a:	48 8b 85 88 e3 ff ff 	mov    -0x1c78(%rbp),%rax
   1a941:	48 39 c2             	cmp    %rax,%rdx
   1a944:	0f 95 c0             	setne  %al
   1a947:	0f b6 c0             	movzbl %al,%eax
   1a94a:	89 85 44 e4 ff ff    	mov    %eax,-0x1bbc(%rbp)
   1a950:	e9 f3 0c 00 00       	jmpq   1b648 <func_47+0x47d5>
   1a955:	c7 85 48 e4 ff ff ff 	movl   $0xffffffff,-0x1bb8(%rbp)
   1a95c:	ff ff ff 
   1a95f:	48 8d 85 a8 e4 ff ff 	lea    -0x1b58(%rbp),%rax
   1a966:	48 89 85 70 e6 ff ff 	mov    %rax,-0x1990(%rbp)
   1a96d:	48 8b 85 a8 e4 ff ff 	mov    -0x1b58(%rbp),%rax
   1a974:	48 8b 00             	mov    (%rax),%rax
   1a977:	48 8d 95 d0 e8 ff ff 	lea    -0x1730(%rbp),%rdx
   1a97e:	48 83 c2 0c          	add    $0xc,%rdx
   1a982:	48 89 10             	mov    %rdx,(%rax)
   1a985:	c6 05 78 c8 00 00 00 	movb   $0x0,0xc878(%rip)        # 27204 <g_512>
   1a98c:	90                   	nop
   1a98d:	0f b6 05 70 c8 00 00 	movzbl 0xc870(%rip),%eax        # 27204 <g_512>
   1a994:	3c f6                	cmp    $0xf6,%al
   1a996:	0f 8d 19 0c 00 00    	jge    1b5b5 <func_47+0x4742>
   1a99c:	48 c7 85 90 f2 ff ff 	movq   $0x0,-0xd70(%rbp)
   1a9a3:	00 00 00 00 
   1a9a7:	48 8d 85 c8 e4 ff ff 	lea    -0x1b38(%rbp),%rax
   1a9ae:	48 89 85 98 f2 ff ff 	mov    %rax,-0xd68(%rbp)
   1a9b5:	48 8d 05 e4 0c 01 00 	lea    0x10ce4(%rip),%rax        # 2b6a0 <g_1006>
   1a9bc:	48 89 85 a0 f2 ff ff 	mov    %rax,-0xd60(%rbp)
   1a9c3:	48 8d 05 d6 0c 01 00 	lea    0x10cd6(%rip),%rax        # 2b6a0 <g_1006>
   1a9ca:	48 89 85 a8 f2 ff ff 	mov    %rax,-0xd58(%rbp)
   1a9d1:	48 8d 05 c8 0c 01 00 	lea    0x10cc8(%rip),%rax        # 2b6a0 <g_1006>
   1a9d8:	48 89 85 b0 f2 ff ff 	mov    %rax,-0xd50(%rbp)
   1a9df:	48 8d 85 c8 e4 ff ff 	lea    -0x1b38(%rbp),%rax
   1a9e6:	48 89 85 b8 f2 ff ff 	mov    %rax,-0xd48(%rbp)
   1a9ed:	48 8d 85 c8 e4 ff ff 	lea    -0x1b38(%rbp),%rax
   1a9f4:	48 89 85 c0 f2 ff ff 	mov    %rax,-0xd40(%rbp)
   1a9fb:	48 8d 05 9e 0c 01 00 	lea    0x10c9e(%rip),%rax        # 2b6a0 <g_1006>
   1aa02:	48 89 85 c8 f2 ff ff 	mov    %rax,-0xd38(%rbp)
   1aa09:	48 8d 05 90 0c 01 00 	lea    0x10c90(%rip),%rax        # 2b6a0 <g_1006>
   1aa10:	48 89 85 d0 f2 ff ff 	mov    %rax,-0xd30(%rbp)
   1aa17:	48 8d 05 82 0c 01 00 	lea    0x10c82(%rip),%rax        # 2b6a0 <g_1006>
   1aa1e:	48 89 85 d8 f2 ff ff 	mov    %rax,-0xd28(%rbp)
   1aa25:	48 8d 85 c8 e4 ff ff 	lea    -0x1b38(%rbp),%rax
   1aa2c:	48 89 85 e0 f2 ff ff 	mov    %rax,-0xd20(%rbp)
   1aa33:	48 c7 85 e8 f2 ff ff 	movq   $0x0,-0xd18(%rbp)
   1aa3a:	00 00 00 00 
   1aa3e:	48 c7 85 f0 f2 ff ff 	movq   $0x0,-0xd10(%rbp)
   1aa45:	00 00 00 00 
   1aa49:	48 8d 85 c8 e4 ff ff 	lea    -0x1b38(%rbp),%rax
   1aa50:	48 89 85 f8 f2 ff ff 	mov    %rax,-0xd08(%rbp)
   1aa57:	48 8d 05 42 0c 01 00 	lea    0x10c42(%rip),%rax        # 2b6a0 <g_1006>
   1aa5e:	48 89 85 00 f3 ff ff 	mov    %rax,-0xd00(%rbp)
   1aa65:	48 8d 85 c8 e4 ff ff 	lea    -0x1b38(%rbp),%rax
   1aa6c:	48 89 85 08 f3 ff ff 	mov    %rax,-0xcf8(%rbp)
   1aa73:	48 8d 85 c8 e4 ff ff 	lea    -0x1b38(%rbp),%rax
   1aa7a:	48 89 85 10 f3 ff ff 	mov    %rax,-0xcf0(%rbp)
   1aa81:	48 8d 05 18 0c 01 00 	lea    0x10c18(%rip),%rax        # 2b6a0 <g_1006>
   1aa88:	48 89 85 18 f3 ff ff 	mov    %rax,-0xce8(%rbp)
   1aa8f:	48 8d 05 0a 0c 01 00 	lea    0x10c0a(%rip),%rax        # 2b6a0 <g_1006>
   1aa96:	48 89 85 20 f3 ff ff 	mov    %rax,-0xce0(%rbp)
   1aa9d:	48 8d 85 c8 e4 ff ff 	lea    -0x1b38(%rbp),%rax
   1aaa4:	48 89 85 28 f3 ff ff 	mov    %rax,-0xcd8(%rbp)
   1aaab:	48 8d 05 ee 0b 01 00 	lea    0x10bee(%rip),%rax        # 2b6a0 <g_1006>
   1aab2:	48 89 85 30 f3 ff ff 	mov    %rax,-0xcd0(%rbp)
   1aab9:	48 8d 85 c8 e4 ff ff 	lea    -0x1b38(%rbp),%rax
   1aac0:	48 89 85 38 f3 ff ff 	mov    %rax,-0xcc8(%rbp)
   1aac7:	48 8d 05 d2 0b 01 00 	lea    0x10bd2(%rip),%rax        # 2b6a0 <g_1006>
   1aace:	48 89 85 40 f3 ff ff 	mov    %rax,-0xcc0(%rbp)
   1aad5:	48 c7 85 48 f3 ff ff 	movq   $0x0,-0xcb8(%rbp)
   1aadc:	00 00 00 00 
   1aae0:	48 c7 85 50 f3 ff ff 	movq   $0x0,-0xcb0(%rbp)
   1aae7:	00 00 00 00 
   1aaeb:	48 8d 05 ae 0b 01 00 	lea    0x10bae(%rip),%rax        # 2b6a0 <g_1006>
   1aaf2:	48 89 85 58 f3 ff ff 	mov    %rax,-0xca8(%rbp)
   1aaf9:	48 8d 85 c8 e4 ff ff 	lea    -0x1b38(%rbp),%rax
   1ab00:	48 89 85 60 f3 ff ff 	mov    %rax,-0xca0(%rbp)
   1ab07:	48 8d 05 92 0b 01 00 	lea    0x10b92(%rip),%rax        # 2b6a0 <g_1006>
   1ab0e:	48 89 85 68 f3 ff ff 	mov    %rax,-0xc98(%rbp)
   1ab15:	48 8d 05 84 0b 01 00 	lea    0x10b84(%rip),%rax        # 2b6a0 <g_1006>
   1ab1c:	48 89 85 70 f3 ff ff 	mov    %rax,-0xc90(%rbp)
   1ab23:	48 8d 85 c8 e4 ff ff 	lea    -0x1b38(%rbp),%rax
   1ab2a:	48 89 85 78 f3 ff ff 	mov    %rax,-0xc88(%rbp)
   1ab31:	48 8d 05 68 0b 01 00 	lea    0x10b68(%rip),%rax        # 2b6a0 <g_1006>
   1ab38:	48 89 85 80 f3 ff ff 	mov    %rax,-0xc80(%rbp)
   1ab3f:	48 8d 05 5a 0b 01 00 	lea    0x10b5a(%rip),%rax        # 2b6a0 <g_1006>
   1ab46:	48 89 85 88 f3 ff ff 	mov    %rax,-0xc78(%rbp)
   1ab4d:	48 c7 85 90 f3 ff ff 	movq   $0x0,-0xc70(%rbp)
   1ab54:	00 00 00 00 
   1ab58:	48 8d 85 c8 e4 ff ff 	lea    -0x1b38(%rbp),%rax
   1ab5f:	48 89 85 98 f3 ff ff 	mov    %rax,-0xc68(%rbp)
   1ab66:	48 8d 85 c8 e4 ff ff 	lea    -0x1b38(%rbp),%rax
   1ab6d:	48 89 85 a0 f3 ff ff 	mov    %rax,-0xc60(%rbp)
   1ab74:	48 c7 85 a8 f3 ff ff 	movq   $0x0,-0xc58(%rbp)
   1ab7b:	00 00 00 00 
   1ab7f:	48 8d 05 1a 0b 01 00 	lea    0x10b1a(%rip),%rax        # 2b6a0 <g_1006>
   1ab86:	48 89 85 b0 f3 ff ff 	mov    %rax,-0xc50(%rbp)
   1ab8d:	48 8d 05 0c 0b 01 00 	lea    0x10b0c(%rip),%rax        # 2b6a0 <g_1006>
   1ab94:	48 89 85 b8 f3 ff ff 	mov    %rax,-0xc48(%rbp)
   1ab9b:	48 c7 85 c0 f3 ff ff 	movq   $0x0,-0xc40(%rbp)
   1aba2:	00 00 00 00 
   1aba6:	48 8d 85 c8 e4 ff ff 	lea    -0x1b38(%rbp),%rax
   1abad:	48 89 85 c8 f3 ff ff 	mov    %rax,-0xc38(%rbp)
   1abb4:	48 8d 05 e5 0a 01 00 	lea    0x10ae5(%rip),%rax        # 2b6a0 <g_1006>
   1abbb:	48 89 85 d0 f3 ff ff 	mov    %rax,-0xc30(%rbp)
   1abc2:	48 8d 05 d7 0a 01 00 	lea    0x10ad7(%rip),%rax        # 2b6a0 <g_1006>
   1abc9:	48 89 85 d8 f3 ff ff 	mov    %rax,-0xc28(%rbp)
   1abd0:	48 c7 85 e0 f3 ff ff 	movq   $0x0,-0xc20(%rbp)
   1abd7:	00 00 00 00 
   1abdb:	48 8d 05 be 0a 01 00 	lea    0x10abe(%rip),%rax        # 2b6a0 <g_1006>
   1abe2:	48 89 85 e8 f3 ff ff 	mov    %rax,-0xc18(%rbp)
   1abe9:	48 8d 05 b0 0a 01 00 	lea    0x10ab0(%rip),%rax        # 2b6a0 <g_1006>
   1abf0:	48 89 85 f0 f3 ff ff 	mov    %rax,-0xc10(%rbp)
   1abf7:	48 8d 05 a2 0a 01 00 	lea    0x10aa2(%rip),%rax        # 2b6a0 <g_1006>
   1abfe:	48 89 85 f8 f3 ff ff 	mov    %rax,-0xc08(%rbp)
   1ac05:	48 8d 85 c8 e4 ff ff 	lea    -0x1b38(%rbp),%rax
   1ac0c:	48 89 85 00 f4 ff ff 	mov    %rax,-0xc00(%rbp)
   1ac13:	48 c7 85 08 f4 ff ff 	movq   $0x0,-0xbf8(%rbp)
   1ac1a:	00 00 00 00 
   1ac1e:	48 c7 85 10 f4 ff ff 	movq   $0x0,-0xbf0(%rbp)
   1ac25:	00 00 00 00 
   1ac29:	48 8d 85 c8 e4 ff ff 	lea    -0x1b38(%rbp),%rax
   1ac30:	48 89 85 18 f4 ff ff 	mov    %rax,-0xbe8(%rbp)
   1ac37:	48 8d 05 62 0a 01 00 	lea    0x10a62(%rip),%rax        # 2b6a0 <g_1006>
   1ac3e:	48 89 85 20 f4 ff ff 	mov    %rax,-0xbe0(%rbp)
   1ac45:	48 8d 05 54 0a 01 00 	lea    0x10a54(%rip),%rax        # 2b6a0 <g_1006>
   1ac4c:	48 89 85 28 f4 ff ff 	mov    %rax,-0xbd8(%rbp)
   1ac53:	48 8d 05 46 0a 01 00 	lea    0x10a46(%rip),%rax        # 2b6a0 <g_1006>
   1ac5a:	48 89 85 30 f4 ff ff 	mov    %rax,-0xbd0(%rbp)
   1ac61:	48 8d 05 38 0a 01 00 	lea    0x10a38(%rip),%rax        # 2b6a0 <g_1006>
   1ac68:	48 89 85 38 f4 ff ff 	mov    %rax,-0xbc8(%rbp)
   1ac6f:	48 8d 85 c8 e4 ff ff 	lea    -0x1b38(%rbp),%rax
   1ac76:	48 89 85 40 f4 ff ff 	mov    %rax,-0xbc0(%rbp)
   1ac7d:	48 c7 85 48 f4 ff ff 	movq   $0x0,-0xbb8(%rbp)
   1ac84:	00 00 00 00 
   1ac88:	48 c7 85 50 f4 ff ff 	movq   $0x0,-0xbb0(%rbp)
   1ac8f:	00 00 00 00 
   1ac93:	48 8d 85 c8 e4 ff ff 	lea    -0x1b38(%rbp),%rax
   1ac9a:	48 89 85 58 f4 ff ff 	mov    %rax,-0xba8(%rbp)
   1aca1:	48 8d 05 f8 09 01 00 	lea    0x109f8(%rip),%rax        # 2b6a0 <g_1006>
   1aca8:	48 89 85 60 f4 ff ff 	mov    %rax,-0xba0(%rbp)
   1acaf:	48 8d 05 ea 09 01 00 	lea    0x109ea(%rip),%rax        # 2b6a0 <g_1006>
   1acb6:	48 89 85 68 f4 ff ff 	mov    %rax,-0xb98(%rbp)
   1acbd:	48 8d 05 dc 09 01 00 	lea    0x109dc(%rip),%rax        # 2b6a0 <g_1006>
   1acc4:	48 89 85 70 f4 ff ff 	mov    %rax,-0xb90(%rbp)
   1accb:	48 c7 85 78 f4 ff ff 	movq   $0x0,-0xb88(%rbp)
   1acd2:	00 00 00 00 
   1acd6:	48 8d 05 c3 09 01 00 	lea    0x109c3(%rip),%rax        # 2b6a0 <g_1006>
   1acdd:	48 89 85 80 f4 ff ff 	mov    %rax,-0xb80(%rbp)
   1ace4:	48 8d 05 b5 09 01 00 	lea    0x109b5(%rip),%rax        # 2b6a0 <g_1006>
   1aceb:	48 89 85 88 f4 ff ff 	mov    %rax,-0xb78(%rbp)
   1acf2:	48 8d 85 c8 e4 ff ff 	lea    -0x1b38(%rbp),%rax
   1acf9:	48 89 85 90 f4 ff ff 	mov    %rax,-0xb70(%rbp)
   1ad00:	48 c7 85 98 f4 ff ff 	movq   $0x0,-0xb68(%rbp)
   1ad07:	00 00 00 00 
   1ad0b:	48 8d 05 8e 09 01 00 	lea    0x1098e(%rip),%rax        # 2b6a0 <g_1006>
   1ad12:	48 89 85 a0 f4 ff ff 	mov    %rax,-0xb60(%rbp)
   1ad19:	48 8d 05 80 09 01 00 	lea    0x10980(%rip),%rax        # 2b6a0 <g_1006>
   1ad20:	48 89 85 a8 f4 ff ff 	mov    %rax,-0xb58(%rbp)
   1ad27:	48 c7 85 b0 f4 ff ff 	movq   $0x0,-0xb50(%rbp)
   1ad2e:	00 00 00 00 
   1ad32:	48 8d 85 c8 e4 ff ff 	lea    -0x1b38(%rbp),%rax
   1ad39:	48 89 85 b8 f4 ff ff 	mov    %rax,-0xb48(%rbp)
   1ad40:	48 8d 85 c8 e4 ff ff 	lea    -0x1b38(%rbp),%rax
   1ad47:	48 89 85 c0 f4 ff ff 	mov    %rax,-0xb40(%rbp)
   1ad4e:	48 c7 85 c8 f4 ff ff 	movq   $0x0,-0xb38(%rbp)
   1ad55:	00 00 00 00 
   1ad59:	48 8d 05 40 09 01 00 	lea    0x10940(%rip),%rax        # 2b6a0 <g_1006>
   1ad60:	48 89 85 d0 f4 ff ff 	mov    %rax,-0xb30(%rbp)
   1ad67:	48 8d 05 32 09 01 00 	lea    0x10932(%rip),%rax        # 2b6a0 <g_1006>
   1ad6e:	48 89 85 d8 f4 ff ff 	mov    %rax,-0xb28(%rbp)
   1ad75:	48 8d 85 c8 e4 ff ff 	lea    -0x1b38(%rbp),%rax
   1ad7c:	48 89 85 e0 f4 ff ff 	mov    %rax,-0xb20(%rbp)
   1ad83:	48 8d 05 16 09 01 00 	lea    0x10916(%rip),%rax        # 2b6a0 <g_1006>
   1ad8a:	48 89 85 e8 f4 ff ff 	mov    %rax,-0xb18(%rbp)
   1ad91:	48 8d 05 08 09 01 00 	lea    0x10908(%rip),%rax        # 2b6a0 <g_1006>
   1ad98:	48 89 85 f0 f4 ff ff 	mov    %rax,-0xb10(%rbp)
   1ad9f:	48 8d 85 c8 e4 ff ff 	lea    -0x1b38(%rbp),%rax
   1ada6:	48 89 85 f8 f4 ff ff 	mov    %rax,-0xb08(%rbp)
   1adad:	48 8d 05 ec 08 01 00 	lea    0x108ec(%rip),%rax        # 2b6a0 <g_1006>
   1adb4:	48 89 85 00 f5 ff ff 	mov    %rax,-0xb00(%rbp)
   1adbb:	48 c7 85 08 f5 ff ff 	movq   $0x0,-0xaf8(%rbp)
   1adc2:	00 00 00 00 
   1adc6:	48 c7 85 10 f5 ff ff 	movq   $0x0,-0xaf0(%rbp)
   1adcd:	00 00 00 00 
   1add1:	48 8d 05 c8 08 01 00 	lea    0x108c8(%rip),%rax        # 2b6a0 <g_1006>
   1add8:	48 89 85 18 f5 ff ff 	mov    %rax,-0xae8(%rbp)
   1addf:	48 8d 85 c8 e4 ff ff 	lea    -0x1b38(%rbp),%rax
   1ade6:	48 89 85 20 f5 ff ff 	mov    %rax,-0xae0(%rbp)
   1aded:	48 8d 05 ac 08 01 00 	lea    0x108ac(%rip),%rax        # 2b6a0 <g_1006>
   1adf4:	48 89 85 28 f5 ff ff 	mov    %rax,-0xad8(%rbp)
   1adfb:	48 8d 85 c8 e4 ff ff 	lea    -0x1b38(%rbp),%rax
   1ae02:	48 89 85 30 f5 ff ff 	mov    %rax,-0xad0(%rbp)
   1ae09:	48 8d 05 90 08 01 00 	lea    0x10890(%rip),%rax        # 2b6a0 <g_1006>
   1ae10:	48 89 85 38 f5 ff ff 	mov    %rax,-0xac8(%rbp)
   1ae17:	48 8d 05 82 08 01 00 	lea    0x10882(%rip),%rax        # 2b6a0 <g_1006>
   1ae1e:	48 89 85 40 f5 ff ff 	mov    %rax,-0xac0(%rbp)
   1ae25:	48 8d 85 c8 e4 ff ff 	lea    -0x1b38(%rbp),%rax
   1ae2c:	48 89 85 48 f5 ff ff 	mov    %rax,-0xab8(%rbp)
   1ae33:	48 8d 85 c8 e4 ff ff 	lea    -0x1b38(%rbp),%rax
   1ae3a:	48 89 85 50 f5 ff ff 	mov    %rax,-0xab0(%rbp)
   1ae41:	48 8d 05 58 08 01 00 	lea    0x10858(%rip),%rax        # 2b6a0 <g_1006>
   1ae48:	48 89 85 58 f5 ff ff 	mov    %rax,-0xaa8(%rbp)
   1ae4f:	48 8d 85 c8 e4 ff ff 	lea    -0x1b38(%rbp),%rax
   1ae56:	48 89 85 60 f5 ff ff 	mov    %rax,-0xaa0(%rbp)
   1ae5d:	48 c7 85 68 f5 ff ff 	movq   $0x0,-0xa98(%rbp)
   1ae64:	00 00 00 00 
   1ae68:	48 c7 85 70 f5 ff ff 	movq   $0x0,-0xa90(%rbp)
   1ae6f:	00 00 00 00 
   1ae73:	48 8d 85 c8 e4 ff ff 	lea    -0x1b38(%rbp),%rax
   1ae7a:	48 89 85 78 f5 ff ff 	mov    %rax,-0xa88(%rbp)
   1ae81:	48 8d 05 18 08 01 00 	lea    0x10818(%rip),%rax        # 2b6a0 <g_1006>
   1ae88:	48 89 85 80 f5 ff ff 	mov    %rax,-0xa80(%rbp)
   1ae8f:	48 8d 05 0a 08 01 00 	lea    0x1080a(%rip),%rax        # 2b6a0 <g_1006>
   1ae96:	48 89 85 88 f5 ff ff 	mov    %rax,-0xa78(%rbp)
   1ae9d:	48 8d 05 fc 07 01 00 	lea    0x107fc(%rip),%rax        # 2b6a0 <g_1006>
   1aea4:	48 89 85 90 f5 ff ff 	mov    %rax,-0xa70(%rbp)
   1aeab:	48 8d 85 c8 e4 ff ff 	lea    -0x1b38(%rbp),%rax
   1aeb2:	48 89 85 98 f5 ff ff 	mov    %rax,-0xa68(%rbp)
   1aeb9:	48 8d 85 c8 e4 ff ff 	lea    -0x1b38(%rbp),%rax
   1aec0:	48 89 85 a0 f5 ff ff 	mov    %rax,-0xa60(%rbp)
   1aec7:	48 8d 05 d2 07 01 00 	lea    0x107d2(%rip),%rax        # 2b6a0 <g_1006>
   1aece:	48 89 85 a8 f5 ff ff 	mov    %rax,-0xa58(%rbp)
   1aed5:	48 8d 05 c4 07 01 00 	lea    0x107c4(%rip),%rax        # 2b6a0 <g_1006>
   1aedc:	48 89 85 b0 f5 ff ff 	mov    %rax,-0xa50(%rbp)
   1aee3:	48 8d 05 b6 07 01 00 	lea    0x107b6(%rip),%rax        # 2b6a0 <g_1006>
   1aeea:	48 89 85 b8 f5 ff ff 	mov    %rax,-0xa48(%rbp)
   1aef1:	48 8d 85 c8 e4 ff ff 	lea    -0x1b38(%rbp),%rax
   1aef8:	48 89 85 c0 f5 ff ff 	mov    %rax,-0xa40(%rbp)
   1aeff:	48 c7 85 c8 f5 ff ff 	movq   $0x0,-0xa38(%rbp)
   1af06:	00 00 00 00 
   1af0a:	48 c7 85 d0 f5 ff ff 	movq   $0x0,-0xa30(%rbp)
   1af11:	00 00 00 00 
   1af15:	48 8d 85 c8 e4 ff ff 	lea    -0x1b38(%rbp),%rax
   1af1c:	48 89 85 d8 f5 ff ff 	mov    %rax,-0xa28(%rbp)
   1af23:	48 8d 05 76 07 01 00 	lea    0x10776(%rip),%rax        # 2b6a0 <g_1006>
   1af2a:	48 89 85 e0 f5 ff ff 	mov    %rax,-0xa20(%rbp)
   1af31:	48 8d 85 c8 e4 ff ff 	lea    -0x1b38(%rbp),%rax
   1af38:	48 89 85 e8 f5 ff ff 	mov    %rax,-0xa18(%rbp)
   1af3f:	48 8d 85 c8 e4 ff ff 	lea    -0x1b38(%rbp),%rax
   1af46:	48 89 85 f0 f5 ff ff 	mov    %rax,-0xa10(%rbp)
   1af4d:	48 8d 05 4c 07 01 00 	lea    0x1074c(%rip),%rax        # 2b6a0 <g_1006>
   1af54:	48 89 85 f8 f5 ff ff 	mov    %rax,-0xa08(%rbp)
   1af5b:	48 8d 05 3e 07 01 00 	lea    0x1073e(%rip),%rax        # 2b6a0 <g_1006>
   1af62:	48 89 85 00 f6 ff ff 	mov    %rax,-0xa00(%rbp)
   1af69:	48 8d 85 c8 e4 ff ff 	lea    -0x1b38(%rbp),%rax
   1af70:	48 89 85 08 f6 ff ff 	mov    %rax,-0x9f8(%rbp)
   1af77:	48 8d 05 22 07 01 00 	lea    0x10722(%rip),%rax        # 2b6a0 <g_1006>
   1af7e:	48 89 85 10 f6 ff ff 	mov    %rax,-0x9f0(%rbp)
   1af85:	48 8d 85 c8 e4 ff ff 	lea    -0x1b38(%rbp),%rax
   1af8c:	48 89 85 18 f6 ff ff 	mov    %rax,-0x9e8(%rbp)
   1af93:	48 8d 05 06 07 01 00 	lea    0x10706(%rip),%rax        # 2b6a0 <g_1006>
   1af9a:	48 89 85 20 f6 ff ff 	mov    %rax,-0x9e0(%rbp)
   1afa1:	48 c7 85 28 f6 ff ff 	movq   $0x0,-0x9d8(%rbp)
   1afa8:	00 00 00 00 
   1afac:	48 c7 85 30 f6 ff ff 	movq   $0x0,-0x9d0(%rbp)
   1afb3:	00 00 00 00 
   1afb7:	48 8d 05 e2 06 01 00 	lea    0x106e2(%rip),%rax        # 2b6a0 <g_1006>
   1afbe:	48 89 85 38 f6 ff ff 	mov    %rax,-0x9c8(%rbp)
   1afc5:	48 8d 85 c8 e4 ff ff 	lea    -0x1b38(%rbp),%rax
   1afcc:	48 89 85 40 f6 ff ff 	mov    %rax,-0x9c0(%rbp)
   1afd3:	48 8d 05 c6 06 01 00 	lea    0x106c6(%rip),%rax        # 2b6a0 <g_1006>
   1afda:	48 89 85 48 f6 ff ff 	mov    %rax,-0x9b8(%rbp)
   1afe1:	48 8d 05 b8 06 01 00 	lea    0x106b8(%rip),%rax        # 2b6a0 <g_1006>
   1afe8:	48 89 85 50 f6 ff ff 	mov    %rax,-0x9b0(%rbp)
   1afef:	48 8d 85 c8 e4 ff ff 	lea    -0x1b38(%rbp),%rax
   1aff6:	48 89 85 58 f6 ff ff 	mov    %rax,-0x9a8(%rbp)
   1affd:	48 8d 05 9c 06 01 00 	lea    0x1069c(%rip),%rax        # 2b6a0 <g_1006>
   1b004:	48 89 85 60 f6 ff ff 	mov    %rax,-0x9a0(%rbp)
   1b00b:	48 8d 05 8e 06 01 00 	lea    0x1068e(%rip),%rax        # 2b6a0 <g_1006>
   1b012:	48 89 85 68 f6 ff ff 	mov    %rax,-0x998(%rbp)
   1b019:	48 c7 85 70 f6 ff ff 	movq   $0x0,-0x990(%rbp)
   1b020:	00 00 00 00 
   1b024:	48 8d 85 c8 e4 ff ff 	lea    -0x1b38(%rbp),%rax
   1b02b:	48 89 85 78 f6 ff ff 	mov    %rax,-0x988(%rbp)
   1b032:	48 8d 85 c8 e4 ff ff 	lea    -0x1b38(%rbp),%rax
   1b039:	48 89 85 80 f6 ff ff 	mov    %rax,-0x980(%rbp)
   1b040:	48 c7 85 88 f6 ff ff 	movq   $0x0,-0x978(%rbp)
   1b047:	00 00 00 00 
   1b04b:	48 8d 05 4e 06 01 00 	lea    0x1064e(%rip),%rax        # 2b6a0 <g_1006>
   1b052:	48 89 85 90 f6 ff ff 	mov    %rax,-0x970(%rbp)
   1b059:	48 8d 05 40 06 01 00 	lea    0x10640(%rip),%rax        # 2b6a0 <g_1006>
   1b060:	48 89 85 98 f6 ff ff 	mov    %rax,-0x968(%rbp)
   1b067:	48 c7 85 a0 f6 ff ff 	movq   $0x0,-0x960(%rbp)
   1b06e:	00 00 00 00 
   1b072:	48 8d 85 c8 e4 ff ff 	lea    -0x1b38(%rbp),%rax
   1b079:	48 89 85 a8 f6 ff ff 	mov    %rax,-0x958(%rbp)
   1b080:	48 8d 05 19 06 01 00 	lea    0x10619(%rip),%rax        # 2b6a0 <g_1006>
   1b087:	48 89 85 b0 f6 ff ff 	mov    %rax,-0x950(%rbp)
   1b08e:	48 8d 05 0b 06 01 00 	lea    0x1060b(%rip),%rax        # 2b6a0 <g_1006>
   1b095:	48 89 85 b8 f6 ff ff 	mov    %rax,-0x948(%rbp)
   1b09c:	48 c7 85 c0 f6 ff ff 	movq   $0x0,-0x940(%rbp)
   1b0a3:	00 00 00 00 
   1b0a7:	48 8d 05 f2 05 01 00 	lea    0x105f2(%rip),%rax        # 2b6a0 <g_1006>
   1b0ae:	48 89 85 c8 f6 ff ff 	mov    %rax,-0x938(%rbp)
   1b0b5:	48 8d 05 e4 05 01 00 	lea    0x105e4(%rip),%rax        # 2b6a0 <g_1006>
   1b0bc:	48 89 85 d0 f6 ff ff 	mov    %rax,-0x930(%rbp)
   1b0c3:	48 8d 05 d6 05 01 00 	lea    0x105d6(%rip),%rax        # 2b6a0 <g_1006>
   1b0ca:	48 89 85 d8 f6 ff ff 	mov    %rax,-0x928(%rbp)
   1b0d1:	48 8d 85 c8 e4 ff ff 	lea    -0x1b38(%rbp),%rax
   1b0d8:	48 89 85 e0 f6 ff ff 	mov    %rax,-0x920(%rbp)
   1b0df:	48 c7 85 e8 f6 ff ff 	movq   $0x0,-0x918(%rbp)
   1b0e6:	00 00 00 00 
   1b0ea:	48 c7 85 f0 f6 ff ff 	movq   $0x0,-0x910(%rbp)
   1b0f1:	00 00 00 00 
   1b0f5:	48 8d 85 c8 e4 ff ff 	lea    -0x1b38(%rbp),%rax
   1b0fc:	48 89 85 f8 f6 ff ff 	mov    %rax,-0x908(%rbp)
   1b103:	48 8d 05 96 05 01 00 	lea    0x10596(%rip),%rax        # 2b6a0 <g_1006>
   1b10a:	48 89 85 00 f7 ff ff 	mov    %rax,-0x900(%rbp)
   1b111:	48 8d 05 88 05 01 00 	lea    0x10588(%rip),%rax        # 2b6a0 <g_1006>
   1b118:	48 89 85 08 f7 ff ff 	mov    %rax,-0x8f8(%rbp)
   1b11f:	48 8d 05 7a 05 01 00 	lea    0x1057a(%rip),%rax        # 2b6a0 <g_1006>
   1b126:	48 89 85 10 f7 ff ff 	mov    %rax,-0x8f0(%rbp)
   1b12d:	48 8d 05 6c 05 01 00 	lea    0x1056c(%rip),%rax        # 2b6a0 <g_1006>
   1b134:	48 89 85 18 f7 ff ff 	mov    %rax,-0x8e8(%rbp)
   1b13b:	48 8d 05 5e 05 01 00 	lea    0x1055e(%rip),%rax        # 2b6a0 <g_1006>
   1b142:	48 89 85 20 f7 ff ff 	mov    %rax,-0x8e0(%rbp)
   1b149:	48 8d 05 50 05 01 00 	lea    0x10550(%rip),%rax        # 2b6a0 <g_1006>
   1b150:	48 89 85 28 f7 ff ff 	mov    %rax,-0x8d8(%rbp)
   1b157:	48 8d 85 c8 e4 ff ff 	lea    -0x1b38(%rbp),%rax
   1b15e:	48 89 85 30 f7 ff ff 	mov    %rax,-0x8d0(%rbp)
   1b165:	48 8d 05 34 05 01 00 	lea    0x10534(%rip),%rax        # 2b6a0 <g_1006>
   1b16c:	48 89 85 38 f7 ff ff 	mov    %rax,-0x8c8(%rbp)
   1b173:	48 8d 85 c8 e4 ff ff 	lea    -0x1b38(%rbp),%rax
   1b17a:	48 89 85 40 f7 ff ff 	mov    %rax,-0x8c0(%rbp)
   1b181:	48 8d 85 c8 e4 ff ff 	lea    -0x1b38(%rbp),%rax
   1b188:	48 89 85 48 f7 ff ff 	mov    %rax,-0x8b8(%rbp)
   1b18f:	48 c7 85 50 f7 ff ff 	movq   $0x0,-0x8b0(%rbp)
   1b196:	00 00 00 00 
   1b19a:	48 c7 85 58 f7 ff ff 	movq   $0x0,-0x8a8(%rbp)
   1b1a1:	00 00 00 00 
   1b1a5:	48 8d 85 c8 e4 ff ff 	lea    -0x1b38(%rbp),%rax
   1b1ac:	48 89 85 60 f7 ff ff 	mov    %rax,-0x8a0(%rbp)
   1b1b3:	48 8d 85 c8 e4 ff ff 	lea    -0x1b38(%rbp),%rax
   1b1ba:	48 89 85 68 f7 ff ff 	mov    %rax,-0x898(%rbp)
   1b1c1:	48 8d 05 d8 04 01 00 	lea    0x104d8(%rip),%rax        # 2b6a0 <g_1006>
   1b1c8:	48 89 85 70 f7 ff ff 	mov    %rax,-0x890(%rbp)
   1b1cf:	48 c7 85 78 f7 ff ff 	movq   $0x0,-0x888(%rbp)
   1b1d6:	00 00 00 00 
   1b1da:	48 c7 85 80 f7 ff ff 	movq   $0x0,-0x880(%rbp)
   1b1e1:	00 00 00 00 
   1b1e5:	48 8d 85 c8 e4 ff ff 	lea    -0x1b38(%rbp),%rax
   1b1ec:	48 89 85 88 f7 ff ff 	mov    %rax,-0x878(%rbp)
   1b1f3:	48 c7 85 90 f7 ff ff 	movq   $0x0,-0x870(%rbp)
   1b1fa:	00 00 00 00 
   1b1fe:	48 8d 05 9b 04 01 00 	lea    0x1049b(%rip),%rax        # 2b6a0 <g_1006>
   1b205:	48 89 85 98 f7 ff ff 	mov    %rax,-0x868(%rbp)
   1b20c:	48 8d 05 8d 04 01 00 	lea    0x1048d(%rip),%rax        # 2b6a0 <g_1006>
   1b213:	48 89 85 a0 f7 ff ff 	mov    %rax,-0x860(%rbp)
   1b21a:	48 8d 05 7f 04 01 00 	lea    0x1047f(%rip),%rax        # 2b6a0 <g_1006>
   1b221:	48 89 85 a8 f7 ff ff 	mov    %rax,-0x858(%rbp)
   1b228:	48 8d 05 71 04 01 00 	lea    0x10471(%rip),%rax        # 2b6a0 <g_1006>
   1b22f:	48 89 85 b0 f7 ff ff 	mov    %rax,-0x850(%rbp)
   1b236:	48 8d 05 63 04 01 00 	lea    0x10463(%rip),%rax        # 2b6a0 <g_1006>
   1b23d:	48 89 85 b8 f7 ff ff 	mov    %rax,-0x848(%rbp)
   1b244:	48 8d 85 c8 e4 ff ff 	lea    -0x1b38(%rbp),%rax
   1b24b:	48 89 85 c0 f7 ff ff 	mov    %rax,-0x840(%rbp)
   1b252:	48 8d 05 47 04 01 00 	lea    0x10447(%rip),%rax        # 2b6a0 <g_1006>
   1b259:	48 89 85 c8 f7 ff ff 	mov    %rax,-0x838(%rbp)
   1b260:	48 c7 85 d0 f7 ff ff 	movq   $0x0,-0x830(%rbp)
   1b267:	00 00 00 00 
   1b26b:	48 8d 05 2e 04 01 00 	lea    0x1042e(%rip),%rax        # 2b6a0 <g_1006>
   1b272:	48 89 85 d8 f7 ff ff 	mov    %rax,-0x828(%rbp)
   1b279:	48 8d 85 c8 e4 ff ff 	lea    -0x1b38(%rbp),%rax
   1b280:	48 89 85 e0 f7 ff ff 	mov    %rax,-0x820(%rbp)
   1b287:	48 8d 85 c8 e4 ff ff 	lea    -0x1b38(%rbp),%rax
   1b28e:	48 89 85 e8 f7 ff ff 	mov    %rax,-0x818(%rbp)
   1b295:	48 8d 85 c8 e4 ff ff 	lea    -0x1b38(%rbp),%rax
   1b29c:	48 89 85 f0 f7 ff ff 	mov    %rax,-0x810(%rbp)
   1b2a3:	48 8d 85 c8 e4 ff ff 	lea    -0x1b38(%rbp),%rax
   1b2aa:	48 89 85 f8 f7 ff ff 	mov    %rax,-0x808(%rbp)
   1b2b1:	48 c7 85 00 f8 ff ff 	movq   $0x0,-0x800(%rbp)
   1b2b8:	00 00 00 00 
   1b2bc:	48 c7 85 08 f8 ff ff 	movq   $0x0,-0x7f8(%rbp)
   1b2c3:	00 00 00 00 
   1b2c7:	48 8d 85 c8 e4 ff ff 	lea    -0x1b38(%rbp),%rax
   1b2ce:	48 89 85 10 f8 ff ff 	mov    %rax,-0x7f0(%rbp)
   1b2d5:	48 8d 85 c8 e4 ff ff 	lea    -0x1b38(%rbp),%rax
   1b2dc:	48 89 85 18 f8 ff ff 	mov    %rax,-0x7e8(%rbp)
   1b2e3:	48 8d 05 b6 03 01 00 	lea    0x103b6(%rip),%rax        # 2b6a0 <g_1006>
   1b2ea:	48 89 85 20 f8 ff ff 	mov    %rax,-0x7e0(%rbp)
   1b2f1:	48 8d 05 a8 03 01 00 	lea    0x103a8(%rip),%rax        # 2b6a0 <g_1006>
   1b2f8:	48 89 85 28 f8 ff ff 	mov    %rax,-0x7d8(%rbp)
   1b2ff:	48 c7 85 78 e6 ff ff 	movq   $0x0,-0x1988(%rbp)
   1b306:	00 00 00 00 
   1b30a:	c7 85 4c e4 ff ff dc 	movl   $0xbb777adc,-0x1bb4(%rbp)
   1b311:	7a 77 bb 
   1b314:	8b 85 c4 e3 ff ff    	mov    -0x1c3c(%rbp),%eax
   1b31a:	0f b6 d8             	movzbl %al,%ebx
   1b31d:	0f b7 85 98 e3 ff ff 	movzwl -0x1c68(%rbp),%eax
   1b324:	44 0f b6 e0          	movzbl %al,%r12d
   1b328:	44 0f bf ad 98 e3 ff 	movswl -0x1c68(%rbp),%r13d
   1b32f:	ff 
   1b330:	8b 85 dc e8 ff ff    	mov    -0x1724(%rbp),%eax
   1b336:	44 0f be f0          	movsbl %al,%r14d
   1b33a:	8b 95 44 e4 ff ff    	mov    -0x1bbc(%rbp),%edx
   1b340:	48 8b 85 c8 e4 ff ff 	mov    -0x1b38(%rbp),%rax
   1b347:	48 89 85 68 fe ff ff 	mov    %rax,-0x198(%rbp)
   1b34e:	48 8b 8d 68 fe ff ff 	mov    -0x198(%rbp),%rcx
   1b355:	48 8d 85 98 e4 ff ff 	lea    -0x1b68(%rbp),%rax
   1b35c:	48 39 c1             	cmp    %rax,%rcx
   1b35f:	0f 95 c0             	setne  %al
   1b362:	0f b6 c8             	movzbl %al,%ecx
   1b365:	0f bf 85 98 e3 ff ff 	movswl -0x1c68(%rbp),%eax
   1b36c:	39 c1                	cmp    %eax,%ecx
   1b36e:	0f 9c c0             	setl   %al
   1b371:	0f b6 c0             	movzbl %al,%eax
   1b374:	89 d6                	mov    %edx,%esi
   1b376:	89 c7                	mov    %eax,%edi
   1b378:	e8 e6 51 ff ff       	callq  10563 <safe_rshift_func_int16_t_s_u>
   1b37d:	0f be c0             	movsbl %al,%eax
   1b380:	44 89 f6             	mov    %r14d,%esi
   1b383:	89 c7                	mov    %eax,%edi
   1b385:	e8 88 4e ff ff       	callq  10212 <safe_mul_func_int8_t_s_s>
   1b38a:	48 8b 85 88 e3 ff ff 	mov    -0x1c78(%rbp),%rax
   1b391:	89 c2                	mov    %eax,%edx
   1b393:	0f bf 85 98 e3 ff ff 	movswl -0x1c68(%rbp),%eax
   1b39a:	89 d6                	mov    %edx,%esi
   1b39c:	89 c7                	mov    %eax,%edi
   1b39e:	e8 3e 51 ff ff       	callq  104e1 <safe_lshift_func_int16_t_s_u>
   1b3a3:	48 0f bf d0          	movswq %ax,%rdx
   1b3a7:	48 8b 85 a8 e4 ff ff 	mov    -0x1b58(%rbp),%rax
   1b3ae:	48 8b 00             	mov    (%rax),%rax
   1b3b1:	48 8b 00             	mov    (%rax),%rax
   1b3b4:	8b 00                	mov    (%rax),%eax
   1b3b6:	48 98                	cltq   
   1b3b8:	48 89 d6             	mov    %rdx,%rsi
   1b3bb:	48 89 c7             	mov    %rax,%rdi
   1b3be:	e8 ec 5c ff ff       	callq  110af <safe_div_func_uint64_t_u_u>
   1b3c3:	48 85 c0             	test   %rax,%rax
   1b3c6:	75 07                	jne    1b3cf <func_47+0x455c>
   1b3c8:	80 bd 9c e3 ff ff 00 	cmpb   $0x0,-0x1c64(%rbp)
   1b3cf:	bf ff ff ff ff       	mov    $0xffffffff,%edi
   1b3d4:	e8 cd 5a ff ff       	callq  10ea6 <safe_unary_minus_func_uint32_t_u>
   1b3d9:	85 c0                	test   %eax,%eax
   1b3db:	75 0a                	jne    1b3e7 <func_47+0x4574>
   1b3dd:	66 83 bd 98 e3 ff ff 	cmpw   $0x0,-0x1c68(%rbp)
   1b3e4:	00 
   1b3e5:	74 07                	je     1b3ee <func_47+0x457b>
   1b3e7:	b8 01 00 00 00       	mov    $0x1,%eax
   1b3ec:	eb 05                	jmp    1b3f3 <func_47+0x4580>
   1b3ee:	b8 00 00 00 00       	mov    $0x0,%eax
   1b3f3:	3d 32 ff 00 00       	cmp    $0xff32,%eax
   1b3f8:	7f 0c                	jg     1b406 <func_47+0x4593>
   1b3fa:	48 8b 05 e7 00 01 00 	mov    0x100e7(%rip),%rax        # 2b4e8 <g_450>
   1b401:	0f b6 00             	movzbl (%rax),%eax
   1b404:	84 c0                	test   %al,%al
   1b406:	0f b6 85 aa e3 ff ff 	movzbl -0x1c56(%rbp),%eax
   1b40d:	be 3a 69 7d 2a       	mov    $0x2a7d693a,%esi
   1b412:	89 c7                	mov    %eax,%edi
   1b414:	e8 ec 51 ff ff       	callq  10605 <safe_sub_func_int32_t_s_s>
   1b419:	48 8b 85 a8 e4 ff ff 	mov    -0x1b58(%rbp),%rax
   1b420:	48 8b 00             	mov    (%rax),%rax
   1b423:	48 8b 00             	mov    (%rax),%rax
   1b426:	8b 00                	mov    (%rax),%eax
   1b428:	83 f8 ff             	cmp    $0xffffffff,%eax
   1b42b:	0f 9d c0             	setge  %al
   1b42e:	0f b6 c0             	movzbl %al,%eax
   1b431:	89 c7                	mov    %eax,%edi
   1b433:	e8 65 4f ff ff       	callq  1039d <safe_unary_minus_func_int16_t_s>
   1b438:	48 8b 85 88 e4 ff ff 	mov    -0x1b78(%rbp),%rax
   1b43f:	48 8b 00             	mov    (%rax),%rax
   1b442:	48 8b 95 90 e3 ff ff 	mov    -0x1c70(%rbp),%rdx
   1b449:	48 89 10             	mov    %rdx,(%rax)
   1b44c:	48 8b 00             	mov    (%rax),%rax
   1b44f:	48 39 85 00 e6 ff ff 	cmp    %rax,-0x1a00(%rbp)
   1b456:	0f 95 c0             	setne  %al
   1b459:	0f b6 c0             	movzbl %al,%eax
   1b45c:	44 89 ee             	mov    %r13d,%esi
   1b45f:	89 c7                	mov    %eax,%edi
   1b461:	e8 14 5a ff ff       	callq  10e7a <safe_rshift_func_uint16_t_u_u>
   1b466:	0f b7 d0             	movzwl %ax,%edx
   1b469:	0f bf 85 98 e3 ff ff 	movswl -0x1c68(%rbp),%eax
   1b470:	39 c2                	cmp    %eax,%edx
   1b472:	0f 9e c0             	setle  %al
   1b475:	0f b6 c0             	movzbl %al,%eax
   1b478:	44 89 e6             	mov    %r12d,%esi
   1b47b:	89 c7                	mov    %eax,%edi
   1b47d:	e8 11 57 ff ff       	callq  10b93 <safe_mul_func_uint8_t_u_u>
   1b482:	48 8b 85 88 e3 ff ff 	mov    -0x1c78(%rbp),%rax
   1b489:	0f b6 c0             	movzbl %al,%eax
   1b48c:	89 c6                	mov    %eax,%esi
   1b48e:	bf 00 00 00 00       	mov    $0x0,%edi
   1b493:	e8 16 57 ff ff       	callq  10bae <safe_mod_func_uint8_t_u_u>
   1b498:	84 c0                	test   %al,%al
   1b49a:	74 07                	je     1b4a3 <func_47+0x4630>
   1b49c:	ba 01 00 00 00       	mov    $0x1,%edx
   1b4a1:	eb 05                	jmp    1b4a8 <func_47+0x4635>
   1b4a3:	ba 00 00 00 00       	mov    $0x0,%edx
   1b4a8:	48 8b 85 e0 e4 ff ff 	mov    -0x1b20(%rbp),%rax
   1b4af:	48 8b 00             	mov    (%rax),%rax
   1b4b2:	48 8b 00             	mov    (%rax),%rax
   1b4b5:	48 63 d2             	movslq %edx,%rdx
   1b4b8:	48 89 10             	mov    %rdx,(%rax)
   1b4bb:	48 8b 10             	mov    (%rax),%rdx
   1b4be:	48 8b 05 db 01 01 00 	mov    0x101db(%rip),%rax        # 2b6a0 <g_1006>
   1b4c5:	48 8b 00             	mov    (%rax),%rax
   1b4c8:	48 39 c2             	cmp    %rax,%rdx
   1b4cb:	0f 95 c0             	setne  %al
   1b4ce:	0f b6 c0             	movzbl %al,%eax
   1b4d1:	89 c6                	mov    %eax,%esi
   1b4d3:	bf f3 8f 00 00       	mov    $0x8ff3,%edi
   1b4d8:	e8 60 58 ff ff       	callq  10d3d <safe_mul_func_uint16_t_u_u>
   1b4dd:	66 3d 82 00          	cmp    $0x82,%ax
   1b4e1:	0f 96 c0             	setbe  %al
   1b4e4:	0f b6 c0             	movzbl %al,%eax
   1b4e7:	be 07 00 00 00       	mov    $0x7,%esi
   1b4ec:	89 c7                	mov    %eax,%edi
   1b4ee:	e8 87 59 ff ff       	callq  10e7a <safe_rshift_func_uint16_t_u_u>
   1b4f3:	66 85 c0             	test   %ax,%ax
   1b4f6:	0f 95 c0             	setne  %al
   1b4f9:	0f b6 c0             	movzbl %al,%eax
   1b4fc:	be e7 ff ff ff       	mov    $0xffffffe7,%esi
   1b501:	89 c7                	mov    %eax,%edi
   1b503:	e8 ea 4c ff ff       	callq  101f2 <safe_sub_func_int8_t_s_s>
   1b508:	48 8b 85 88 e3 ff ff 	mov    -0x1c78(%rbp),%rax
   1b50f:	48 85 c0             	test   %rax,%rax
   1b512:	74 11                	je     1b525 <func_47+0x46b2>
   1b514:	8b 85 d4 e8 ff ff    	mov    -0x172c(%rbp),%eax
   1b51a:	85 c0                	test   %eax,%eax
   1b51c:	74 07                	je     1b525 <func_47+0x46b2>
   1b51e:	b8 01 00 00 00       	mov    $0x1,%eax
   1b523:	eb 05                	jmp    1b52a <func_47+0x46b7>
   1b525:	b8 00 00 00 00       	mov    $0x0,%eax
   1b52a:	98                   	cwtl   
   1b52b:	8b 95 48 e4 ff ff    	mov    -0x1bb8(%rbp),%edx
   1b531:	89 d6                	mov    %edx,%esi
   1b533:	89 c7                	mov    %eax,%edi
   1b535:	e8 58 4f ff ff       	callq  10492 <safe_lshift_func_int16_t_s_s>
   1b53a:	0f b6 c0             	movzbl %al,%eax
   1b53d:	89 de                	mov    %ebx,%esi
   1b53f:	89 c7                	mov    %eax,%edi
   1b541:	e8 95 56 ff ff       	callq  10bdb <safe_div_func_uint8_t_u_u>
   1b546:	84 c0                	test   %al,%al
   1b548:	74 07                	je     1b551 <func_47+0x46de>
   1b54a:	80 bd 9c e3 ff ff 00 	cmpb   $0x0,-0x1c64(%rbp)
   1b551:	83 bd 48 e4 ff ff 00 	cmpl   $0x0,-0x1bb8(%rbp)
   1b558:	48 8b 05 51 bf 00 00 	mov    0xbf51(%rip),%rax        # 274b0 <g_1175>
   1b55f:	48 85 c0             	test   %rax,%rax
   1b562:	75 0c                	jne    1b570 <func_47+0x46fd>
   1b564:	48 8b 85 88 e3 ff ff 	mov    -0x1c78(%rbp),%rax
   1b56b:	48 85 c0             	test   %rax,%rax
   1b56e:	74 07                	je     1b577 <func_47+0x4704>
   1b570:	ba 01 00 00 00       	mov    $0x1,%edx
   1b575:	eb 05                	jmp    1b57c <func_47+0x4709>
   1b577:	ba 00 00 00 00       	mov    $0x0,%edx
   1b57c:	48 8b 85 a8 e4 ff ff 	mov    -0x1b58(%rbp),%rax
   1b583:	48 8b 00             	mov    (%rax),%rax
   1b586:	48 8b 00             	mov    (%rax),%rax
   1b589:	89 10                	mov    %edx,(%rax)
   1b58b:	48 8d 05 76 bc 00 00 	lea    0xbc76(%rip),%rax        # 27208 <g_542>
   1b592:	48 39 85 78 e6 ff ff 	cmp    %rax,-0x1988(%rbp)
   1b599:	0f 95 c2             	setne  %dl
   1b59c:	48 8b 05 25 ff 00 00 	mov    0xff25(%rip),%rax        # 2b4c8 <g_326>
   1b5a3:	0f b6 d2             	movzbl %dl,%edx
   1b5a6:	89 10                	mov    %edx,(%rax)
   1b5a8:	8b 85 4c e4 ff ff    	mov    -0x1bb4(%rbp),%eax
   1b5ae:	48 98                	cltq   
   1b5b0:	e9 ce 00 00 00       	jmpq   1b683 <func_47+0x4810>
   1b5b5:	48 8b 05 dc 00 01 00 	mov    0x100dc(%rip),%rax        # 2b698 <g_1000>
   1b5bc:	8b 00                	mov    (%rax),%eax
   1b5be:	83 f8 ff             	cmp    $0xffffffff,%eax
   1b5c1:	0f 95 c0             	setne  %al
   1b5c4:	0f b6 d0             	movzbl %al,%edx
   1b5c7:	48 8b 0d c2 07 01 00 	mov    0x107c2(%rip),%rcx        # 2bd90 <g_1291>
   1b5ce:	48 8b 85 f8 e4 ff ff 	mov    -0x1b08(%rbp),%rax
   1b5d5:	48 89 08             	mov    %rcx,(%rax)
   1b5d8:	48 8b 85 70 e6 ff ff 	mov    -0x1990(%rbp),%rax
   1b5df:	48 8d 0d ea fe 00 00 	lea    0xfeea(%rip),%rcx        # 2b4d0 <g_325>
   1b5e6:	48 89 08             	mov    %rcx,(%rax)
   1b5e9:	48 8b 85 c8 e4 ff ff 	mov    -0x1b38(%rbp),%rax
   1b5f0:	48 8b 08             	mov    (%rax),%rcx
   1b5f3:	48 83 e9 01          	sub    $0x1,%rcx
   1b5f7:	48 89 08             	mov    %rcx,(%rax)
   1b5fa:	89 d6                	mov    %edx,%esi
   1b5fc:	bf 01 00 00 00       	mov    $0x1,%edi
   1b601:	e8 2f 4d ff ff       	callq  10335 <safe_rshift_func_int8_t_s_s>
   1b606:	48 0f be d0          	movsbq %al,%rdx
   1b60a:	48 8b 85 a0 e4 ff ff 	mov    -0x1b60(%rbp),%rax
   1b611:	0f b7 08             	movzwl (%rax),%ecx
   1b614:	83 c1 01             	add    $0x1,%ecx
   1b617:	66 89 08             	mov    %cx,(%rax)
   1b61a:	0f b7 08             	movzwl (%rax),%ecx
   1b61d:	48 8b 05 64 25 01 00 	mov    0x12564(%rip),%rax        # 2db88 <g_1031>
   1b624:	0f b7 00             	movzwl (%rax),%eax
   1b627:	66 39 c1             	cmp    %ax,%cx
   1b62a:	0f 95 c0             	setne  %al
   1b62d:	0f b6 c0             	movzbl %al,%eax
   1b630:	48 89 d6             	mov    %rdx,%rsi
   1b633:	48 89 c7             	mov    %rax,%rdi
   1b636:	e8 bc 53 ff ff       	callq  109f7 <safe_div_func_int64_t_s_s>
   1b63b:	48 8b 05 86 fe 00 00 	mov    0xfe86(%rip),%rax        # 2b4c8 <g_326>
   1b642:	c7 00 01 00 00 00    	movl   $0x1,(%rax)
   1b648:	8b 05 b2 bd 00 00    	mov    0xbdb2(%rip),%eax        # 27400 <g_737>
   1b64e:	83 c0 01             	add    $0x1,%eax
   1b651:	89 05 a9 bd 00 00    	mov    %eax,0xbda9(%rip)        # 27400 <g_737>
   1b657:	8b 05 a3 bd 00 00    	mov    0xbda3(%rip),%eax        # 27400 <g_737>
   1b65d:	83 f8 18             	cmp    $0x18,%eax
   1b660:	0f 86 9f ec ff ff    	jbe    1a305 <func_47+0x3492>
   1b666:	48 8b 05 23 07 01 00 	mov    0x10723(%rip),%rax        # 2bd90 <g_1291>
   1b66d:	48 8b 00             	mov    (%rax),%rax
   1b670:	48 8b 00             	mov    (%rax),%rax
   1b673:	48 8b 00             	mov    (%rax),%rax
   1b676:	eb 0b                	jmp    1b683 <func_47+0x4810>
   1b678:	48 8b 85 00 e5 ff ff 	mov    -0x1b00(%rbp),%rax
   1b67f:	8b 00                	mov    (%rax),%eax
   1b681:	48 98                	cltq   
   1b683:	48 8b 5d c8          	mov    -0x38(%rbp),%rbx
   1b687:	64 48 33 1c 25 28 00 	xor    %fs:0x28,%rbx
   1b68e:	00 00 
   1b690:	74 05                	je     1b697 <func_47+0x4824>
   1b692:	e8 d9 49 ff ff       	callq  10070 <__stack_chk_fail@plt>
   1b697:	48 81 c4 78 1c 00 00 	add    $0x1c78,%rsp
   1b69e:	5b                   	pop    %rbx
   1b69f:	41 5c                	pop    %r12
   1b6a1:	41 5d                	pop    %r13
   1b6a3:	41 5e                	pop    %r14
   1b6a5:	41 5f                	pop    %r15
   1b6a7:	5d                   	pop    %rbp
   1b6a8:	c3                   	retq   

000000000001b6a9 <func_52>:
   1b6a9:	f3 0f 1e fa          	endbr64 
   1b6ad:	55                   	push   %rbp
   1b6ae:	48 89 e5             	mov    %rsp,%rbp
   1b6b1:	41 57                	push   %r15
   1b6b3:	41 56                	push   %r14
   1b6b5:	41 55                	push   %r13
   1b6b7:	41 54                	push   %r12
   1b6b9:	53                   	push   %rbx
   1b6ba:	48 81 ec 00 10 00 00 	sub    $0x1000,%rsp
   1b6c1:	48 83 0c 24 00       	orq    $0x0,(%rsp)
   1b6c6:	48 81 ec c8 03 00 00 	sub    $0x3c8,%rsp
   1b6cd:	89 f8                	mov    %edi,%eax
   1b6cf:	48 89 b5 20 ec ff ff 	mov    %rsi,-0x13e0(%rbp)
   1b6d6:	89 95 28 ec ff ff    	mov    %edx,-0x13d8(%rbp)
   1b6dc:	48 89 8d 18 ec ff ff 	mov    %rcx,-0x13e8(%rbp)
   1b6e3:	66 89 85 2c ec ff ff 	mov    %ax,-0x13d4(%rbp)
   1b6ea:	64 48 8b 04 25 28 00 	mov    %fs:0x28,%rax
   1b6f1:	00 00 
   1b6f3:	48 89 45 c8          	mov    %rax,-0x38(%rbp)
   1b6f7:	31 c0                	xor    %eax,%eax
   1b6f9:	48 8d 85 40 f2 ff ff 	lea    -0xdc0(%rbp),%rax
   1b700:	48 8d 15 d9 eb 00 00 	lea    0xebd9(%rip),%rdx        # 2a2e0 <g_3136+0x29e0>
   1b707:	b9 b4 00 00 00       	mov    $0xb4,%ecx
   1b70c:	48 89 c7             	mov    %rax,%rdi
   1b70f:	48 89 d6             	mov    %rdx,%rsi
   1b712:	f3 48 a5             	rep movsq %ds:(%rsi),%es:(%rdi)
   1b715:	c7 85 3c ec ff ff df 	movl   $0xeffc92df,-0x13c4(%rbp)
   1b71c:	92 fc ef 
   1b71f:	48 8d 85 e0 f7 ff ff 	lea    -0x820(%rbp),%rax
   1b726:	48 8d 15 53 f1 00 00 	lea    0xf153(%rip),%rdx        # 2a880 <g_3136+0x2f80>
   1b72d:	b9 fc 00 00 00       	mov    $0xfc,%ecx
   1b732:	48 89 c7             	mov    %rax,%rdi
   1b735:	48 89 d6             	mov    %rdx,%rsi
   1b738:	f3 48 a5             	rep movsq %ds:(%rsi),%es:(%rdi)
   1b73b:	c7 85 5c ec ff ff ff 	movl   $0xffffffff,-0x13a4(%rbp)
   1b742:	ff ff ff 
   1b745:	c7 85 40 ec ff ff 07 	movl   $0x7,-0x13c0(%rbp)
   1b74c:	00 00 00 
   1b74f:	c7 85 4c ec ff ff 3c 	movl   $0xf9e0533c,-0x13b4(%rbp)
   1b756:	53 e0 f9 
   1b759:	c7 85 60 ec ff ff f7 	movl   $0xfffffff7,-0x13a0(%rbp)
   1b760:	ff ff ff 
   1b763:	c7 85 30 ed ff ff 12 	movl   $0x7cb71112,-0x12d0(%rbp)
   1b76a:	11 b7 7c 
   1b76d:	c7 85 34 ed ff ff 12 	movl   $0x7cb71112,-0x12cc(%rbp)
   1b774:	11 b7 7c 
   1b777:	c7 85 38 ed ff ff 12 	movl   $0x7cb71112,-0x12c8(%rbp)
   1b77e:	11 b7 7c 
   1b781:	c7 85 3c ed ff ff 12 	movl   $0x7cb71112,-0x12c4(%rbp)
   1b788:	11 b7 7c 
   1b78b:	c7 85 40 ed ff ff 12 	movl   $0x7cb71112,-0x12c0(%rbp)
   1b792:	11 b7 7c 
   1b795:	c7 85 48 ec ff ff 00 	movl   $0x0,-0x13b8(%rbp)
   1b79c:	00 00 00 
   1b79f:	eb 1e                	jmp    1b7bf <func_52+0x116>
   1b7a1:	8b 85 48 ec ff ff    	mov    -0x13b8(%rbp),%eax
   1b7a7:	48 98                	cltq   
   1b7a9:	48 8d 15 d8 b8 00 00 	lea    0xb8d8(%rip),%rdx        # 27088 <g_146+0x8>
   1b7b0:	48 89 94 c5 50 ed ff 	mov    %rdx,-0x12b0(%rbp,%rax,8)
   1b7b7:	ff 
   1b7b8:	83 85 48 ec ff ff 01 	addl   $0x1,-0x13b8(%rbp)
   1b7bf:	83 bd 48 ec ff ff 02 	cmpl   $0x2,-0x13b8(%rbp)
   1b7c6:	7e d9                	jle    1b7a1 <func_52+0xf8>
   1b7c8:	c7 85 48 ec ff ff 00 	movl   $0x0,-0x13b8(%rbp)
   1b7cf:	00 00 00 
   1b7d2:	eb 1e                	jmp    1b7f2 <func_52+0x149>
   1b7d4:	8b 85 48 ec ff ff    	mov    -0x13b8(%rbp),%eax
   1b7da:	48 98                	cltq   
   1b7dc:	48 8d 15 f5 b8 00 00 	lea    0xb8f5(%rip),%rdx        # 270d8 <g_213>
   1b7e3:	48 89 94 c5 18 ed ff 	mov    %rdx,-0x12e8(%rbp,%rax,8)
   1b7ea:	ff 
   1b7eb:	83 85 48 ec ff ff 01 	addl   $0x1,-0x13b8(%rbp)
   1b7f2:	83 bd 48 ec ff ff 00 	cmpl   $0x0,-0x13b8(%rbp)
   1b7f9:	7e d9                	jle    1b7d4 <func_52+0x12b>
   1b7fb:	48 c7 05 ca b8 00 00 	movq   $0x0,0xb8ca(%rip)        # 270d0 <g_212>
   1b802:	00 00 00 00 
   1b806:	eb 69                	jmp    1b871 <func_52+0x1c8>
   1b808:	48 8d 05 41 b8 00 00 	lea    0xb841(%rip),%rax        # 27050 <g_87>
   1b80f:	48 89 85 10 ed ff ff 	mov    %rax,-0x12f0(%rbp)
   1b816:	48 8b 85 10 ed ff ff 	mov    -0x12f0(%rbp),%rax
   1b81d:	8b 95 28 ec ff ff    	mov    -0x13d8(%rbp),%edx
   1b823:	89 10                	mov    %edx,(%rax)
   1b825:	48 8b 85 a0 f4 ff ff 	mov    -0xb60(%rbp),%rax
   1b82c:	48 85 c0             	test   %rax,%rax
   1b82f:	0f 95 c0             	setne  %al
   1b832:	0f b6 c0             	movzbl %al,%eax
   1b835:	be 04 00 00 00       	mov    $0x4,%esi
   1b83a:	89 c7                	mov    %eax,%edi
   1b83c:	e8 c5 55 ff ff       	callq  10e06 <safe_lshift_func_uint16_t_u_u>
   1b841:	0f b7 8d 2c ec ff ff 	movzwl -0x13d4(%rbp),%ecx
   1b848:	48 8b 85 10 ed ff ff 	mov    -0x12f0(%rbp),%rax
   1b84f:	8b 10                	mov    (%rax),%edx
   1b851:	0f bf c1             	movswl %cx,%eax
   1b854:	21 c2                	and    %eax,%edx
   1b856:	48 8b 85 10 ed ff ff 	mov    -0x12f0(%rbp),%rax
   1b85d:	89 10                	mov    %edx,(%rax)
   1b85f:	48 8b 05 6a b8 00 00 	mov    0xb86a(%rip),%rax        # 270d0 <g_212>
   1b866:	48 83 c0 01          	add    $0x1,%rax
   1b86a:	48 89 05 5f b8 00 00 	mov    %rax,0xb85f(%rip)        # 270d0 <g_212>
   1b871:	48 8b 05 58 b8 00 00 	mov    0xb858(%rip),%rax        # 270d0 <g_212>
   1b878:	48 83 f8 06          	cmp    $0x6,%rax
   1b87c:	76 8a                	jbe    1b808 <func_52+0x15f>
   1b87e:	c7 05 38 b8 00 00 00 	movl   $0x0,0xb838(%rip)        # 270c0 <g_149>
   1b885:	00 00 00 
   1b888:	e9 cd 1c 00 00       	jmpq   1d55a <func_52+0x1eb1>
   1b88d:	48 8d 05 cc b7 00 00 	lea    0xb7cc(%rip),%rax        # 27060 <g_113>
   1b894:	48 89 85 b0 ec ff ff 	mov    %rax,-0x1350(%rbp)
   1b89b:	48 8d 05 5e b9 00 00 	lea    0xb95e(%rip),%rax        # 27200 <g_421>
   1b8a2:	48 89 85 88 ec ff ff 	mov    %rax,-0x1378(%rbp)
   1b8a9:	48 8d 05 78 b7 00 00 	lea    0xb778(%rip),%rax        # 27028 <g_4>
   1b8b0:	48 89 85 70 ed ff ff 	mov    %rax,-0x1290(%rbp)
   1b8b7:	48 8d 05 92 b7 00 00 	lea    0xb792(%rip),%rax        # 27050 <g_87>
   1b8be:	48 89 85 78 ed ff ff 	mov    %rax,-0x1288(%rbp)
   1b8c5:	48 8d 05 84 b7 00 00 	lea    0xb784(%rip),%rax        # 27050 <g_87>
   1b8cc:	48 89 85 80 ed ff ff 	mov    %rax,-0x1280(%rbp)
   1b8d3:	48 8d 05 4e b7 00 00 	lea    0xb74e(%rip),%rax        # 27028 <g_4>
   1b8da:	48 89 85 88 ed ff ff 	mov    %rax,-0x1278(%rbp)
   1b8e1:	48 8d 05 68 b7 00 00 	lea    0xb768(%rip),%rax        # 27050 <g_87>
   1b8e8:	48 89 85 90 ed ff ff 	mov    %rax,-0x1270(%rbp)
   1b8ef:	48 8d 05 5a b7 00 00 	lea    0xb75a(%rip),%rax        # 27050 <g_87>
   1b8f6:	48 89 85 98 ed ff ff 	mov    %rax,-0x1268(%rbp)
   1b8fd:	48 8d 05 24 b7 00 00 	lea    0xb724(%rip),%rax        # 27028 <g_4>
   1b904:	48 89 85 a0 ed ff ff 	mov    %rax,-0x1260(%rbp)
   1b90b:	48 8d 05 3e b7 00 00 	lea    0xb73e(%rip),%rax        # 27050 <g_87>
   1b912:	48 89 85 a8 ed ff ff 	mov    %rax,-0x1258(%rbp)
   1b919:	48 8d 05 a8 b7 00 00 	lea    0xb7a8(%rip),%rax        # 270c8 <g_211>
   1b920:	48 89 85 40 ef ff ff 	mov    %rax,-0x10c0(%rbp)
   1b927:	48 8d 05 9c b7 00 00 	lea    0xb79c(%rip),%rax        # 270ca <g_211+0x2>
   1b92e:	48 89 85 48 ef ff ff 	mov    %rax,-0x10b8(%rbp)
   1b935:	48 8d 05 8c b7 00 00 	lea    0xb78c(%rip),%rax        # 270c8 <g_211>
   1b93c:	48 89 85 50 ef ff ff 	mov    %rax,-0x10b0(%rbp)
   1b943:	48 8d 05 80 b7 00 00 	lea    0xb780(%rip),%rax        # 270ca <g_211+0x2>
   1b94a:	48 89 85 58 ef ff ff 	mov    %rax,-0x10a8(%rbp)
   1b951:	48 8d 05 70 b7 00 00 	lea    0xb770(%rip),%rax        # 270c8 <g_211>
   1b958:	48 89 85 60 ef ff ff 	mov    %rax,-0x10a0(%rbp)
   1b95f:	48 8d 05 62 b7 00 00 	lea    0xb762(%rip),%rax        # 270c8 <g_211>
   1b966:	48 89 85 68 ef ff ff 	mov    %rax,-0x1098(%rbp)
   1b96d:	48 8d 05 56 b7 00 00 	lea    0xb756(%rip),%rax        # 270ca <g_211+0x2>
   1b974:	48 89 85 70 ef ff ff 	mov    %rax,-0x1090(%rbp)
   1b97b:	48 8d 05 46 b7 00 00 	lea    0xb746(%rip),%rax        # 270c8 <g_211>
   1b982:	48 89 85 78 ef ff ff 	mov    %rax,-0x1088(%rbp)
   1b989:	48 8d 05 3a b7 00 00 	lea    0xb73a(%rip),%rax        # 270ca <g_211+0x2>
   1b990:	48 89 85 80 ef ff ff 	mov    %rax,-0x1080(%rbp)
   1b997:	48 8d 05 2a b7 00 00 	lea    0xb72a(%rip),%rax        # 270c8 <g_211>
   1b99e:	48 89 85 88 ef ff ff 	mov    %rax,-0x1078(%rbp)
   1b9a5:	48 8d 05 1c b7 00 00 	lea    0xb71c(%rip),%rax        # 270c8 <g_211>
   1b9ac:	48 89 85 90 ef ff ff 	mov    %rax,-0x1070(%rbp)
   1b9b3:	48 8d 05 10 b7 00 00 	lea    0xb710(%rip),%rax        # 270ca <g_211+0x2>
   1b9ba:	48 89 85 98 ef ff ff 	mov    %rax,-0x1068(%rbp)
   1b9c1:	48 8d 05 00 b7 00 00 	lea    0xb700(%rip),%rax        # 270c8 <g_211>
   1b9c8:	48 89 85 a0 ef ff ff 	mov    %rax,-0x1060(%rbp)
   1b9cf:	48 8d 05 f4 b6 00 00 	lea    0xb6f4(%rip),%rax        # 270ca <g_211+0x2>
   1b9d6:	48 89 85 a8 ef ff ff 	mov    %rax,-0x1058(%rbp)
   1b9dd:	48 8d 05 e4 b6 00 00 	lea    0xb6e4(%rip),%rax        # 270c8 <g_211>
   1b9e4:	48 89 85 b0 ef ff ff 	mov    %rax,-0x1050(%rbp)
   1b9eb:	48 8d 05 d6 b6 00 00 	lea    0xb6d6(%rip),%rax        # 270c8 <g_211>
   1b9f2:	48 89 85 b8 ef ff ff 	mov    %rax,-0x1048(%rbp)
   1b9f9:	48 8d 05 ca b6 00 00 	lea    0xb6ca(%rip),%rax        # 270ca <g_211+0x2>
   1ba00:	48 89 85 c0 ef ff ff 	mov    %rax,-0x1040(%rbp)
   1ba07:	48 8d 05 ba b6 00 00 	lea    0xb6ba(%rip),%rax        # 270c8 <g_211>
   1ba0e:	48 89 85 c8 ef ff ff 	mov    %rax,-0x1038(%rbp)
   1ba15:	48 8d 05 ae b6 00 00 	lea    0xb6ae(%rip),%rax        # 270ca <g_211+0x2>
   1ba1c:	48 89 85 d0 ef ff ff 	mov    %rax,-0x1030(%rbp)
   1ba23:	48 8d 05 9e b6 00 00 	lea    0xb69e(%rip),%rax        # 270c8 <g_211>
   1ba2a:	48 89 85 d8 ef ff ff 	mov    %rax,-0x1028(%rbp)
   1ba31:	48 8d 05 90 b6 00 00 	lea    0xb690(%rip),%rax        # 270c8 <g_211>
   1ba38:	48 89 85 e0 ef ff ff 	mov    %rax,-0x1020(%rbp)
   1ba3f:	48 8d 05 84 b6 00 00 	lea    0xb684(%rip),%rax        # 270ca <g_211+0x2>
   1ba46:	48 89 85 e8 ef ff ff 	mov    %rax,-0x1018(%rbp)
   1ba4d:	48 8d 05 74 b6 00 00 	lea    0xb674(%rip),%rax        # 270c8 <g_211>
   1ba54:	48 89 85 f0 ef ff ff 	mov    %rax,-0x1010(%rbp)
   1ba5b:	48 8d 05 68 b6 00 00 	lea    0xb668(%rip),%rax        # 270ca <g_211+0x2>
   1ba62:	48 89 85 f8 ef ff ff 	mov    %rax,-0x1008(%rbp)
   1ba69:	c7 85 44 ec ff ff 00 	movl   $0x0,-0x13bc(%rbp)
   1ba70:	00 00 00 
   1ba73:	eb 1a                	jmp    1ba8f <func_52+0x3e6>
   1ba75:	8b 85 44 ec ff ff    	mov    -0x13bc(%rbp),%eax
   1ba7b:	48 98                	cltq   
   1ba7d:	c7 84 85 28 ed ff ff 	movl   $0xffffffff,-0x12d8(%rbp,%rax,4)
   1ba84:	ff ff ff ff 
   1ba88:	83 85 44 ec ff ff 01 	addl   $0x1,-0x13bc(%rbp)
   1ba8f:	83 bd 44 ec ff ff 01 	cmpl   $0x1,-0x13bc(%rbp)
   1ba96:	7e dd                	jle    1ba75 <func_52+0x3cc>
   1ba98:	8b 05 2a b7 00 00    	mov    0xb72a(%rip),%eax        # 271c8 <g_398+0x28>
   1ba9e:	0f b7 d0             	movzwl %ax,%edx
   1baa1:	0f b7 85 2c ec ff ff 	movzwl -0x13d4(%rbp),%eax
   1baa8:	0f b7 c0             	movzwl %ax,%eax
   1baab:	89 d6                	mov    %edx,%esi
   1baad:	89 c7                	mov    %eax,%edi
   1baaf:	e8 4b 52 ff ff       	callq  10cff <safe_add_func_uint16_t_u_u>
   1bab4:	0f be c0             	movsbl %al,%eax
   1bab7:	be 07 00 00 00       	mov    $0x7,%esi
   1babc:	89 c7                	mov    %eax,%edi
   1babe:	e8 a9 48 ff ff       	callq  1036c <safe_rshift_func_int8_t_s_u>
   1bac3:	84 c0                	test   %al,%al
   1bac5:	74 07                	je     1bace <func_52+0x425>
   1bac7:	b8 01 00 00 00       	mov    $0x1,%eax
   1bacc:	eb 05                	jmp    1bad3 <func_52+0x42a>
   1bace:	b8 00 00 00 00       	mov    $0x0,%eax
   1bad3:	48 63 d0             	movslq %eax,%rdx
   1bad6:	48 83 bd b0 ec ff ff 	cmpq   $0x0,-0x1350(%rbp)
   1badd:	00 
   1bade:	0f 95 c0             	setne  %al
   1bae1:	0f b6 c0             	movzbl %al,%eax
   1bae4:	48 89 d6             	mov    %rdx,%rsi
   1bae7:	48 89 c7             	mov    %rax,%rdi
   1baea:	e8 c0 55 ff ff       	callq  110af <safe_div_func_uint64_t_u_u>
   1baef:	48 85 c0             	test   %rax,%rax
   1baf2:	74 07                	je     1bafb <func_52+0x452>
   1baf4:	b8 01 00 00 00       	mov    $0x1,%eax
   1baf9:	eb 05                	jmp    1bb00 <func_52+0x457>
   1bafb:	b8 00 00 00 00       	mov    $0x0,%eax
   1bb00:	89 05 4a b5 00 00    	mov    %eax,0xb54a(%rip)        # 27050 <g_87>
   1bb06:	8b 85 3c ec ff ff    	mov    -0x13c4(%rbp),%eax
   1bb0c:	85 c0                	test   %eax,%eax
   1bb0e:	0f 84 f1 0a 00 00    	je     1c605 <func_52+0xf5c>
   1bb14:	48 8d 05 9d f9 00 00 	lea    0xf99d(%rip),%rax        # 2b4b8 <g_297>
   1bb1b:	48 89 85 e8 ec ff ff 	mov    %rax,-0x1318(%rbp)
   1bb22:	48 c7 85 a8 ec ff ff 	movq   $0x0,-0x1358(%rbp)
   1bb29:	00 00 00 00 
   1bb2d:	48 8d 85 a8 ec ff ff 	lea    -0x1358(%rbp),%rax
   1bb34:	48 89 85 00 f0 ff ff 	mov    %rax,-0x1000(%rbp)
   1bb3b:	48 8d 85 a8 ec ff ff 	lea    -0x1358(%rbp),%rax
   1bb42:	48 89 85 08 f0 ff ff 	mov    %rax,-0xff8(%rbp)
   1bb49:	48 8d 85 a8 ec ff ff 	lea    -0x1358(%rbp),%rax
   1bb50:	48 89 85 10 f0 ff ff 	mov    %rax,-0xff0(%rbp)
   1bb57:	48 8d 85 a8 ec ff ff 	lea    -0x1358(%rbp),%rax
   1bb5e:	48 89 85 18 f0 ff ff 	mov    %rax,-0xfe8(%rbp)
   1bb65:	48 8d 85 a8 ec ff ff 	lea    -0x1358(%rbp),%rax
   1bb6c:	48 89 85 20 f0 ff ff 	mov    %rax,-0xfe0(%rbp)
   1bb73:	48 8d 85 a8 ec ff ff 	lea    -0x1358(%rbp),%rax
   1bb7a:	48 89 85 28 f0 ff ff 	mov    %rax,-0xfd8(%rbp)
   1bb81:	48 8d 85 a8 ec ff ff 	lea    -0x1358(%rbp),%rax
   1bb88:	48 89 85 30 f0 ff ff 	mov    %rax,-0xfd0(%rbp)
   1bb8f:	48 8d 85 a8 ec ff ff 	lea    -0x1358(%rbp),%rax
   1bb96:	48 89 85 38 f0 ff ff 	mov    %rax,-0xfc8(%rbp)
   1bb9d:	48 8d 85 a8 ec ff ff 	lea    -0x1358(%rbp),%rax
   1bba4:	48 89 85 40 f0 ff ff 	mov    %rax,-0xfc0(%rbp)
   1bbab:	48 8d 85 a8 ec ff ff 	lea    -0x1358(%rbp),%rax
   1bbb2:	48 89 85 48 f0 ff ff 	mov    %rax,-0xfb8(%rbp)
   1bbb9:	48 c7 85 50 f0 ff ff 	movq   $0x0,-0xfb0(%rbp)
   1bbc0:	00 00 00 00 
   1bbc4:	48 8d 85 a8 ec ff ff 	lea    -0x1358(%rbp),%rax
   1bbcb:	48 89 85 58 f0 ff ff 	mov    %rax,-0xfa8(%rbp)
   1bbd2:	48 8d 85 a8 ec ff ff 	lea    -0x1358(%rbp),%rax
   1bbd9:	48 89 85 60 f0 ff ff 	mov    %rax,-0xfa0(%rbp)
   1bbe0:	48 8d 85 a8 ec ff ff 	lea    -0x1358(%rbp),%rax
   1bbe7:	48 89 85 68 f0 ff ff 	mov    %rax,-0xf98(%rbp)
   1bbee:	48 8d 85 a8 ec ff ff 	lea    -0x1358(%rbp),%rax
   1bbf5:	48 89 85 70 f0 ff ff 	mov    %rax,-0xf90(%rbp)
   1bbfc:	48 8d 85 a8 ec ff ff 	lea    -0x1358(%rbp),%rax
   1bc03:	48 89 85 78 f0 ff ff 	mov    %rax,-0xf88(%rbp)
   1bc0a:	48 8d 85 a8 ec ff ff 	lea    -0x1358(%rbp),%rax
   1bc11:	48 89 85 80 f0 ff ff 	mov    %rax,-0xf80(%rbp)
   1bc18:	48 8d 85 a8 ec ff ff 	lea    -0x1358(%rbp),%rax
   1bc1f:	48 89 85 88 f0 ff ff 	mov    %rax,-0xf78(%rbp)
   1bc26:	48 8d 85 a8 ec ff ff 	lea    -0x1358(%rbp),%rax
   1bc2d:	48 89 85 90 f0 ff ff 	mov    %rax,-0xf70(%rbp)
   1bc34:	48 8d 85 a8 ec ff ff 	lea    -0x1358(%rbp),%rax
   1bc3b:	48 89 85 98 f0 ff ff 	mov    %rax,-0xf68(%rbp)
   1bc42:	48 8d 85 a8 ec ff ff 	lea    -0x1358(%rbp),%rax
   1bc49:	48 89 85 a0 f0 ff ff 	mov    %rax,-0xf60(%rbp)
   1bc50:	48 8d 85 a8 ec ff ff 	lea    -0x1358(%rbp),%rax
   1bc57:	48 89 85 a8 f0 ff ff 	mov    %rax,-0xf58(%rbp)
   1bc5e:	48 c7 85 b0 f0 ff ff 	movq   $0x0,-0xf50(%rbp)
   1bc65:	00 00 00 00 
   1bc69:	48 8d 85 a8 ec ff ff 	lea    -0x1358(%rbp),%rax
   1bc70:	48 89 85 b8 f0 ff ff 	mov    %rax,-0xf48(%rbp)
   1bc77:	48 c7 85 c0 f0 ff ff 	movq   $0x0,-0xf40(%rbp)
   1bc7e:	00 00 00 00 
   1bc82:	48 8d 85 a8 ec ff ff 	lea    -0x1358(%rbp),%rax
   1bc89:	48 89 85 c8 f0 ff ff 	mov    %rax,-0xf38(%rbp)
   1bc90:	48 c7 85 d0 f0 ff ff 	movq   $0x0,-0xf30(%rbp)
   1bc97:	00 00 00 00 
   1bc9b:	48 8d 85 a8 ec ff ff 	lea    -0x1358(%rbp),%rax
   1bca2:	48 89 85 d8 f0 ff ff 	mov    %rax,-0xf28(%rbp)
   1bca9:	c7 85 74 ec ff ff fe 	movl   $0xfffffffe,-0x138c(%rbp)
   1bcb0:	ff ff ff 
   1bcb3:	c7 85 b0 ee ff ff 04 	movl   $0x4,-0x1150(%rbp)
   1bcba:	00 00 00 
   1bcbd:	c7 85 b4 ee ff ff ba 	movl   $0x6c8ba5ba,-0x114c(%rbp)
   1bcc4:	a5 8b 6c 
   1bcc7:	c7 85 b8 ee ff ff ba 	movl   $0x6c8ba5ba,-0x1148(%rbp)
   1bcce:	a5 8b 6c 
   1bcd1:	c7 85 bc ee ff ff 04 	movl   $0x4,-0x1144(%rbp)
   1bcd8:	00 00 00 
   1bcdb:	c7 85 c0 ee ff ff f6 	movl   $0xfffffff6,-0x1140(%rbp)
   1bce2:	ff ff ff 
   1bce5:	c7 85 c4 ee ff ff f9 	movl   $0xfffffff9,-0x113c(%rbp)
   1bcec:	ff ff ff 
   1bcef:	c7 85 c8 ee ff ff ba 	movl   $0x6c8ba5ba,-0x1138(%rbp)
   1bcf6:	a5 8b 6c 
   1bcf9:	c7 85 cc ee ff ff a7 	movl   $0x8dcc6fa7,-0x1134(%rbp)
   1bd00:	6f cc 8d 
   1bd03:	c7 85 d0 ee ff ff 04 	movl   $0x4,-0x1130(%rbp)
   1bd0a:	00 00 00 
   1bd0d:	c7 85 d4 ee ff ff fb 	movl   $0x1ead79fb,-0x112c(%rbp)
   1bd14:	79 ad 1e 
   1bd17:	c7 85 d8 ee ff ff 0d 	movl   $0x3a4a8f0d,-0x1128(%rbp)
   1bd1e:	8f 4a 3a 
   1bd21:	c7 85 dc ee ff ff fb 	movl   $0x1ead79fb,-0x1124(%rbp)
   1bd28:	79 ad 1e 
   1bd2b:	c7 85 e0 ee ff ff fb 	movl   $0x1ead79fb,-0x1120(%rbp)
   1bd32:	79 ad 1e 
   1bd35:	c7 85 e4 ee ff ff ba 	movl   $0x6c8ba5ba,-0x111c(%rbp)
   1bd3c:	a5 8b 6c 
   1bd3f:	c7 85 e8 ee ff ff f6 	movl   $0xfffffff6,-0x1118(%rbp)
   1bd46:	ff ff ff 
   1bd49:	c7 85 ec ee ff ff fb 	movl   $0x1ead79fb,-0x1114(%rbp)
   1bd50:	79 ad 1e 
   1bd53:	c7 85 f0 ee ff ff f6 	movl   $0xfffffff6,-0x1110(%rbp)
   1bd5a:	ff ff ff 
   1bd5d:	c7 85 f4 ee ff ff fb 	movl   $0x1ead79fb,-0x110c(%rbp)
   1bd64:	79 ad 1e 
   1bd67:	c7 85 f8 ee ff ff a7 	movl   $0x8dcc6fa7,-0x1108(%rbp)
   1bd6e:	6f cc 8d 
   1bd71:	c7 85 fc ee ff ff a7 	movl   $0x8dcc6fa7,-0x1104(%rbp)
   1bd78:	6f cc 8d 
   1bd7b:	c7 85 00 ef ff ff f9 	movl   $0xfffffff9,-0x1100(%rbp)
   1bd82:	ff ff ff 
   1bd85:	c7 85 04 ef ff ff f9 	movl   $0xfffffff9,-0x10fc(%rbp)
   1bd8c:	ff ff ff 
   1bd8f:	c7 85 08 ef ff ff 0d 	movl   $0x3a4a8f0d,-0x10f8(%rbp)
   1bd96:	8f 4a 3a 
   1bd99:	c7 85 0c ef ff ff 04 	movl   $0x4,-0x10f4(%rbp)
   1bda0:	00 00 00 
   1bda3:	c7 85 10 ef ff ff f9 	movl   $0xfffffff9,-0x10f0(%rbp)
   1bdaa:	ff ff ff 
   1bdad:	c7 85 14 ef ff ff ba 	movl   $0x6c8ba5ba,-0x10ec(%rbp)
   1bdb4:	a5 8b 6c 
   1bdb7:	c7 85 18 ef ff ff a7 	movl   $0x8dcc6fa7,-0x10e8(%rbp)
   1bdbe:	6f cc 8d 
   1bdc1:	c7 85 1c ef ff ff f9 	movl   $0xfffffff9,-0x10e4(%rbp)
   1bdc8:	ff ff ff 
   1bdcb:	c7 85 20 ef ff ff f6 	movl   $0xfffffff6,-0x10e0(%rbp)
   1bdd2:	ff ff ff 
   1bdd5:	c7 85 24 ef ff ff 04 	movl   $0x4,-0x10dc(%rbp)
   1bddc:	00 00 00 
   1bddf:	c7 85 28 ef ff ff f6 	movl   $0xfffffff6,-0x10d8(%rbp)
   1bde6:	ff ff ff 
   1bde9:	c7 85 2c ef ff ff a7 	movl   $0x8dcc6fa7,-0x10d4(%rbp)
   1bdf0:	6f cc 8d 
   1bdf3:	c7 85 30 ef ff ff fb 	movl   $0x1ead79fb,-0x10d0(%rbp)
   1bdfa:	79 ad 1e 
   1bdfd:	c7 85 34 ef ff ff 04 	movl   $0x4,-0x10cc(%rbp)
   1be04:	00 00 00 
   1be07:	c7 85 38 ef ff ff 0d 	movl   $0x3a4a8f0d,-0x10c8(%rbp)
   1be0e:	8f 4a 3a 
   1be11:	c7 85 3c ef ff ff f9 	movl   $0xfffffff9,-0x10c4(%rbp)
   1be18:	ff ff ff 
   1be1b:	c7 85 78 ec ff ff ff 	movl   $0xffffffff,-0x1388(%rbp)
   1be22:	ff ff ff 
   1be25:	c7 05 51 b3 00 00 00 	movl   $0x0,0xb351(%rip)        # 27180 <g_273>
   1be2c:	00 00 00 
   1be2f:	e9 9d 07 00 00       	jmpq   1c5d1 <func_52+0xf28>
   1be34:	48 8d 85 88 ec ff ff 	lea    -0x1378(%rbp),%rax
   1be3b:	48 89 85 f0 ec ff ff 	mov    %rax,-0x1310(%rbp)
   1be42:	c7 85 40 ee ff ff 9c 	movl   $0x6749569c,-0x11c0(%rbp)
   1be49:	56 49 67 
   1be4c:	c7 85 44 ee ff ff 6d 	movl   $0x4003e16d,-0x11bc(%rbp)
   1be53:	e1 03 40 
   1be56:	c7 85 48 ee ff ff fa 	movl   $0xfffffffa,-0x11b8(%rbp)
   1be5d:	ff ff ff 
   1be60:	c7 85 4c ee ff ff 51 	movl   $0x955c7851,-0x11b4(%rbp)
   1be67:	78 5c 95 
   1be6a:	c7 85 50 ee ff ff 99 	movl   $0x72f1f299,-0x11b0(%rbp)
   1be71:	f2 f1 72 
   1be74:	c7 85 54 ee ff ff 01 	movl   $0x1,-0x11ac(%rbp)
   1be7b:	00 00 00 
   1be7e:	c7 85 58 ee ff ff 6d 	movl   $0x4003e16d,-0x11a8(%rbp)
   1be85:	e1 03 40 
   1be88:	c7 85 5c ee ff ff fa 	movl   $0xfffffffa,-0x11a4(%rbp)
   1be8f:	ff ff ff 
   1be92:	c7 85 60 ee ff ff fa 	movl   $0xfffffffa,-0x11a0(%rbp)
   1be99:	ff ff ff 
   1be9c:	c7 85 64 ee ff ff 51 	movl   $0x955c7851,-0x119c(%rbp)
   1bea3:	78 5c 95 
   1bea6:	c7 85 68 ee ff ff 99 	movl   $0x72f1f299,-0x1198(%rbp)
   1bead:	f2 f1 72 
   1beb0:	c7 85 6c ee ff ff 01 	movl   $0x1,-0x1194(%rbp)
   1beb7:	00 00 00 
   1beba:	c7 85 70 ee ff ff 6d 	movl   $0x4003e16d,-0x1190(%rbp)
   1bec1:	e1 03 40 
   1bec4:	c7 85 74 ee ff ff fa 	movl   $0xfffffffa,-0x118c(%rbp)
   1becb:	ff ff ff 
   1bece:	c7 85 78 ee ff ff fa 	movl   $0xfffffffa,-0x1188(%rbp)
   1bed5:	ff ff ff 
   1bed8:	c7 85 7c ee ff ff 51 	movl   $0x955c7851,-0x1184(%rbp)
   1bedf:	78 5c 95 
   1bee2:	c7 85 80 ee ff ff 99 	movl   $0x72f1f299,-0x1180(%rbp)
   1bee9:	f2 f1 72 
   1beec:	c7 85 84 ee ff ff 01 	movl   $0x1,-0x117c(%rbp)
   1bef3:	00 00 00 
   1bef6:	c7 85 88 ee ff ff 6d 	movl   $0x4003e16d,-0x1178(%rbp)
   1befd:	e1 03 40 
   1bf00:	c7 85 8c ee ff ff fa 	movl   $0xfffffffa,-0x1174(%rbp)
   1bf07:	ff ff ff 
   1bf0a:	c7 85 90 ee ff ff fa 	movl   $0xfffffffa,-0x1170(%rbp)
   1bf11:	ff ff ff 
   1bf14:	c7 85 94 ee ff ff 51 	movl   $0x955c7851,-0x116c(%rbp)
   1bf1b:	78 5c 95 
   1bf1e:	c7 85 98 ee ff ff 99 	movl   $0x72f1f299,-0x1168(%rbp)
   1bf25:	f2 f1 72 
   1bf28:	c7 85 9c ee ff ff 01 	movl   $0x1,-0x1164(%rbp)
   1bf2f:	00 00 00 
   1bf32:	c7 85 a0 ee ff ff 6d 	movl   $0x4003e16d,-0x1160(%rbp)
   1bf39:	e1 03 40 
   1bf3c:	c7 85 a4 ee ff ff fa 	movl   $0xfffffffa,-0x115c(%rbp)
   1bf43:	ff ff ff 
   1bf46:	c7 85 a8 ee ff ff fa 	movl   $0xfffffffa,-0x1158(%rbp)
   1bf4d:	ff ff ff 
   1bf50:	48 8d 05 31 b1 00 00 	lea    0xb131(%rip),%rax        # 27088 <g_146+0x8>
   1bf57:	48 89 85 b0 ed ff ff 	mov    %rax,-0x1250(%rbp)
   1bf5e:	48 8d 05 5b 1b 01 00 	lea    0x11b5b(%rip),%rax        # 2dac0 <g_269>
   1bf65:	48 89 85 b8 ed ff ff 	mov    %rax,-0x1248(%rbp)
   1bf6c:	48 8d 05 15 b1 00 00 	lea    0xb115(%rip),%rax        # 27088 <g_146+0x8>
   1bf73:	48 89 85 c0 ed ff ff 	mov    %rax,-0x1240(%rbp)
   1bf7a:	48 8d 05 3f 1b 01 00 	lea    0x11b3f(%rip),%rax        # 2dac0 <g_269>
   1bf81:	48 89 85 c8 ed ff ff 	mov    %rax,-0x1238(%rbp)
   1bf88:	48 8d 05 f9 b0 00 00 	lea    0xb0f9(%rip),%rax        # 27088 <g_146+0x8>
   1bf8f:	48 89 85 d0 ed ff ff 	mov    %rax,-0x1230(%rbp)
   1bf96:	48 8d 05 23 1b 01 00 	lea    0x11b23(%rip),%rax        # 2dac0 <g_269>
   1bf9d:	48 89 85 d8 ed ff ff 	mov    %rax,-0x1228(%rbp)
   1bfa4:	48 8d 05 dd b0 00 00 	lea    0xb0dd(%rip),%rax        # 27088 <g_146+0x8>
   1bfab:	48 89 85 e0 ed ff ff 	mov    %rax,-0x1220(%rbp)
   1bfb2:	48 8d 05 07 1b 01 00 	lea    0x11b07(%rip),%rax        # 2dac0 <g_269>
   1bfb9:	48 89 85 e8 ed ff ff 	mov    %rax,-0x1218(%rbp)
   1bfc0:	48 8d 85 20 ed ff ff 	lea    -0x12e0(%rbp),%rax
   1bfc7:	48 89 85 f8 ec ff ff 	mov    %rax,-0x1308(%rbp)
   1bfce:	c7 85 50 ec ff ff 00 	movl   $0x0,-0x13b0(%rbp)
   1bfd5:	00 00 00 
   1bfd8:	eb 1b                	jmp    1bff5 <func_52+0x94c>
   1bfda:	8b 85 50 ec ff ff    	mov    -0x13b0(%rbp),%eax
   1bfe0:	48 98                	cltq   
   1bfe2:	48 c7 84 c5 20 ed ff 	movq   $0x0,-0x12e0(%rbp,%rax,8)
   1bfe9:	ff 00 00 00 00 
   1bfee:	83 85 50 ec ff ff 01 	addl   $0x1,-0x13b0(%rbp)
   1bff5:	83 bd 50 ec ff ff 00 	cmpl   $0x0,-0x13b0(%rbp)
   1bffc:	7e dc                	jle    1bfda <func_52+0x931>
   1bffe:	48 8b 95 88 ec ff ff 	mov    -0x1378(%rbp),%rdx
   1c005:	48 8b 85 f0 ec ff ff 	mov    -0x1310(%rbp),%rax
   1c00c:	48 89 10             	mov    %rdx,(%rax)
   1c00f:	0f b6 05 b0 b0 00 00 	movzbl 0xb0b0(%rip),%eax        # 270c6 <g_192>
   1c016:	0f be d0             	movsbl %al,%edx
   1c019:	0f bf 85 2c ec ff ff 	movswl -0x13d4(%rbp),%eax
   1c020:	48 8b 1d a9 f4 00 00 	mov    0xf4a9(%rip),%rbx        # 2b4d0 <g_325>
   1c027:	48 8b 8d 18 ec ff ff 	mov    -0x13e8(%rbp),%rcx
   1c02e:	48 89 ce             	mov    %rcx,%rsi
   1c031:	89 c7                	mov    %eax,%edi
   1c033:	e8 63 15 00 00       	callq  1d59b <func_57>
   1c038:	48 89 03             	mov    %rax,(%rbx)
   1c03b:	66 83 bd 2c ec ff ff 	cmpw   $0x0,-0x13d4(%rbp)
   1c042:	00 
   1c043:	0f 85 78 05 00 00    	jne    1c5c1 <func_52+0xf18>
   1c049:	66 c7 05 06 b0 00 00 	movw   $0x0,0xb006(%rip)        # 27058 <g_104>
   1c050:	00 00 
   1c052:	eb 29                	jmp    1c07d <func_52+0x9d4>
   1c054:	48 8d 05 fd af 00 00 	lea    0xaffd(%rip),%rax        # 27058 <g_104>
   1c05b:	48 89 85 08 ed ff ff 	mov    %rax,-0x12f8(%rbp)
   1c062:	c7 85 7c ec ff ff 04 	movl   $0x4,-0x1384(%rbp)
   1c069:	00 00 00 
   1c06c:	0f b7 05 e5 af 00 00 	movzwl 0xafe5(%rip),%eax        # 27058 <g_104>
   1c073:	83 c0 01             	add    $0x1,%eax
   1c076:	66 89 05 db af 00 00 	mov    %ax,0xafdb(%rip)        # 27058 <g_104>
   1c07d:	0f b7 05 d4 af 00 00 	movzwl 0xafd4(%rip),%eax        # 27058 <g_104>
   1c084:	66 83 f8 03          	cmp    $0x3,%ax
   1c088:	7e ca                	jle    1c054 <func_52+0x9ab>
   1c08a:	c7 05 f4 b0 00 00 00 	movl   $0x0,0xb0f4(%rip)        # 27188 <g_352>
   1c091:	00 00 00 
   1c094:	e9 17 05 00 00       	jmpq   1c5b0 <func_52+0xf07>
   1c099:	48 8d 05 60 1a 01 00 	lea    0x11a60(%rip),%rax        # 2db00 <g_470>
   1c0a0:	48 89 85 f0 ed ff ff 	mov    %rax,-0x1210(%rbp)
   1c0a7:	48 8d 05 52 1a 01 00 	lea    0x11a52(%rip),%rax        # 2db00 <g_470>
   1c0ae:	48 89 85 f8 ed ff ff 	mov    %rax,-0x1208(%rbp)
   1c0b5:	48 8d 05 44 1a 01 00 	lea    0x11a44(%rip),%rax        # 2db00 <g_470>
   1c0bc:	48 89 85 00 ee ff ff 	mov    %rax,-0x1200(%rbp)
   1c0c3:	48 8d 05 36 1a 01 00 	lea    0x11a36(%rip),%rax        # 2db00 <g_470>
   1c0ca:	48 89 85 08 ee ff ff 	mov    %rax,-0x11f8(%rbp)
   1c0d1:	48 8d 05 28 1a 01 00 	lea    0x11a28(%rip),%rax        # 2db00 <g_470>
   1c0d8:	48 89 85 10 ee ff ff 	mov    %rax,-0x11f0(%rbp)
   1c0df:	48 8d 05 1a 1a 01 00 	lea    0x11a1a(%rip),%rax        # 2db00 <g_470>
   1c0e6:	48 89 85 18 ee ff ff 	mov    %rax,-0x11e8(%rbp)
   1c0ed:	48 8d 05 0c 1a 01 00 	lea    0x11a0c(%rip),%rax        # 2db00 <g_470>
   1c0f4:	48 89 85 20 ee ff ff 	mov    %rax,-0x11e0(%rbp)
   1c0fb:	48 8d 05 fe 19 01 00 	lea    0x119fe(%rip),%rax        # 2db00 <g_470>
   1c102:	48 89 85 28 ee ff ff 	mov    %rax,-0x11d8(%rbp)
   1c109:	48 8d 05 f0 19 01 00 	lea    0x119f0(%rip),%rax        # 2db00 <g_470>
   1c110:	48 89 85 30 ee ff ff 	mov    %rax,-0x11d0(%rbp)
   1c117:	48 8d 05 e2 19 01 00 	lea    0x119e2(%rip),%rax        # 2db00 <g_470>
   1c11e:	48 89 85 38 ee ff ff 	mov    %rax,-0x11c8(%rbp)
   1c125:	8b 05 5d b0 00 00    	mov    0xb05d(%rip),%eax        # 27188 <g_352>
   1c12b:	8d 48 03             	lea    0x3(%rax),%ecx
   1c12e:	89 ca                	mov    %ecx,%edx
   1c130:	48 8d 05 91 af 00 00 	lea    0xaf91(%rip),%rax        # 270c8 <g_211>
   1c137:	0f b6 04 02          	movzbl (%rdx,%rax,1),%eax
   1c13b:	8d 50 ff             	lea    -0x1(%rax),%edx
   1c13e:	89 c9                	mov    %ecx,%ecx
   1c140:	48 8d 05 81 af 00 00 	lea    0xaf81(%rip),%rax        # 270c8 <g_211>
   1c147:	88 14 01             	mov    %dl,(%rcx,%rax,1)
   1c14a:	48 8b 95 c8 ed ff ff 	mov    -0x1238(%rbp),%rdx
   1c151:	48 8b 85 50 ed ff ff 	mov    -0x12b0(%rbp),%rax
   1c158:	48 39 c2             	cmp    %rax,%rdx
   1c15b:	0f 84 2d 01 00 00    	je     1c28e <func_52+0xbe5>
   1c161:	0f b6 05 5f af 00 00 	movzbl 0xaf5f(%rip),%eax        # 270c7 <g_202>
   1c168:	66 98                	cbtw   
   1c16a:	0f b7 d8             	movzwl %ax,%ebx
   1c16d:	8b 85 74 ec ff ff    	mov    -0x138c(%rbp),%eax
   1c173:	44 0f bf e0          	movswl %ax,%r12d
   1c177:	44 0f bf ad 2c ec ff 	movswl -0x13d4(%rbp),%r13d
   1c17e:	ff 
   1c17f:	0f b7 85 2c ec ff ff 	movzwl -0x13d4(%rbp),%eax
   1c186:	44 0f be f0          	movsbl %al,%r14d
   1c18a:	44 8b 3d 2b b0 00 00 	mov    0xb02b(%rip),%r15d        # 271bc <g_398+0x1c>
   1c191:	48 8b 05 68 19 01 00 	mov    0x11968(%rip),%rax        # 2db00 <g_470>
   1c198:	48 89 05 61 19 01 00 	mov    %rax,0x11961(%rip)        # 2db00 <g_470>
   1c19f:	48 8b 05 5a 19 01 00 	mov    0x1195a(%rip),%rax        # 2db00 <g_470>
   1c1a6:	48 39 85 f8 ec ff ff 	cmp    %rax,-0x1308(%rbp)
   1c1ad:	74 38                	je     1c1e7 <func_52+0xb3e>
   1c1af:	0f b7 85 2c ec ff ff 	movzwl -0x13d4(%rbp),%eax
   1c1b6:	0f b6 c0             	movzbl %al,%eax
   1c1b9:	89 c6                	mov    %eax,%esi
   1c1bb:	bf 2d 00 00 00       	mov    $0x2d,%edi
   1c1c0:	e8 ce 49 ff ff       	callq  10b93 <safe_mul_func_uint8_t_u_u>
   1c1c5:	0f b6 d0             	movzbl %al,%edx
   1c1c8:	8b 85 40 ec ff ff    	mov    -0x13c0(%rbp),%eax
   1c1ce:	21 d0                	and    %edx,%eax
   1c1d0:	89 85 40 ec ff ff    	mov    %eax,-0x13c0(%rbp)
   1c1d6:	8b 85 40 ec ff ff    	mov    -0x13c0(%rbp),%eax
   1c1dc:	85 c0                	test   %eax,%eax
   1c1de:	74 07                	je     1c1e7 <func_52+0xb3e>
   1c1e0:	b8 01 00 00 00       	mov    $0x1,%eax
   1c1e5:	eb 05                	jmp    1c1ec <func_52+0xb43>
   1c1e7:	b8 00 00 00 00       	mov    $0x0,%eax
   1c1ec:	41 39 c7             	cmp    %eax,%r15d
   1c1ef:	0f 92 c0             	setb   %al
   1c1f2:	0f b6 c0             	movzbl %al,%eax
   1c1f5:	be 48 0a 00 00       	mov    $0xa48,%esi
   1c1fa:	89 c7                	mov    %eax,%edi
   1c1fc:	e8 3c 4b ff ff       	callq  10d3d <safe_mul_func_uint16_t_u_u>
   1c201:	0f b7 85 2c ec ff ff 	movzwl -0x13d4(%rbp),%eax
   1c208:	0f be c0             	movsbl %al,%eax
   1c20b:	44 89 f6             	mov    %r14d,%esi
   1c20e:	89 c7                	mov    %eax,%edi
   1c210:	e8 dd 3f ff ff       	callq  101f2 <safe_sub_func_int8_t_s_s>
   1c215:	0f be c0             	movsbl %al,%eax
   1c218:	44 89 ee             	mov    %r13d,%esi
   1c21b:	89 c7                	mov    %eax,%edi
   1c21d:	e8 03 4d ff ff       	callq  10f25 <safe_div_func_uint32_t_u_u>
   1c222:	83 f8 06             	cmp    $0x6,%eax
   1c225:	0f 96 c0             	setbe  %al
   1c228:	0f b6 d0             	movzbl %al,%edx
   1c22b:	8b 05 a7 af 00 00    	mov    0xafa7(%rip),%eax        # 271d8 <g_398+0x38>
   1c231:	39 c2                	cmp    %eax,%edx
   1c233:	0f 97 c0             	seta   %al
   1c236:	0f b6 c0             	movzbl %al,%eax
   1c239:	44 89 e6             	mov    %r12d,%esi
   1c23c:	89 c7                	mov    %eax,%edi
   1c23e:	e8 b2 41 ff ff       	callq  103f5 <safe_mul_func_int16_t_s_s>
   1c243:	8b 85 84 ee ff ff    	mov    -0x117c(%rbp),%eax
   1c249:	f7 d0                	not    %eax
   1c24b:	c1 e8 1f             	shr    $0x1f,%eax
   1c24e:	0f b6 c0             	movzbl %al,%eax
   1c251:	89 de                	mov    %ebx,%esi
   1c253:	89 c7                	mov    %eax,%edi
   1c255:	e8 e3 4a ff ff       	callq  10d3d <safe_mul_func_uint16_t_u_u>
   1c25a:	66 89 05 f7 ad 00 00 	mov    %ax,0xadf7(%rip)        # 27058 <g_104>
   1c261:	0f b7 05 f0 ad 00 00 	movzwl 0xadf0(%rip),%eax        # 27058 <g_104>
   1c268:	66 85 c0             	test   %ax,%ax
   1c26b:	0f 94 c0             	sete   %al
   1c26e:	0f b6 d0             	movzbl %al,%edx
   1c271:	8b 85 28 ec ff ff    	mov    -0x13d8(%rbp),%eax
   1c277:	0f be c0             	movsbl %al,%eax
   1c27a:	89 d6                	mov    %edx,%esi
   1c27c:	89 c7                	mov    %eax,%edi
   1c27e:	e8 8f 3f ff ff       	callq  10212 <safe_mul_func_int8_t_s_s>
   1c283:	84 c0                	test   %al,%al
   1c285:	74 07                	je     1c28e <func_52+0xbe5>
   1c287:	b8 01 00 00 00       	mov    $0x1,%eax
   1c28c:	eb 05                	jmp    1c293 <func_52+0xbea>
   1c28e:	b8 00 00 00 00       	mov    $0x0,%eax
   1c293:	3d ff 00 00 00       	cmp    $0xff,%eax
   1c298:	0f 86 e0 00 00 00    	jbe    1c37e <func_52+0xcd5>
   1c29e:	48 8d 05 21 ae 00 00 	lea    0xae21(%rip),%rax        # 270c6 <g_192>
   1c2a5:	48 89 85 00 ed ff ff 	mov    %rax,-0x1300(%rbp)
   1c2ac:	48 8b 05 0d f2 00 00 	mov    0xf20d(%rip),%rax        # 2b4c0 <g_296>
   1c2b3:	48 8b 10             	mov    (%rax),%rdx
   1c2b6:	48 8b 85 e8 ec ff ff 	mov    -0x1318(%rbp),%rax
   1c2bd:	48 8b 00             	mov    (%rax),%rax
   1c2c0:	48 8b 12             	mov    (%rdx),%rdx
   1c2c3:	48 89 10             	mov    %rdx,(%rax)
   1c2c6:	48 8b 00             	mov    (%rax),%rax
   1c2c9:	48 85 c0             	test   %rax,%rax
   1c2cc:	75 67                	jne    1c335 <func_52+0xc8c>
   1c2ce:	0f b7 05 ef ad 00 00 	movzwl 0xadef(%rip),%eax        # 270c4 <g_164>
   1c2d5:	0f b7 d8             	movzwl %ax,%ebx
   1c2d8:	0f b7 85 2c ec ff ff 	movzwl -0x13d4(%rbp),%eax
   1c2df:	44 0f b7 e0          	movzwl %ax,%r12d
   1c2e3:	0f bf 85 2c ec ff ff 	movswl -0x13d4(%rbp),%eax
   1c2ea:	89 c6                	mov    %eax,%esi
   1c2ec:	bf 01 00 00 00       	mov    $0x1,%edi
   1c2f1:	e8 c0 42 ff ff       	callq  105b6 <safe_add_func_int32_t_s_s>
   1c2f6:	8b 05 8c ae 00 00    	mov    0xae8c(%rip),%eax        # 27188 <g_352>
   1c2fc:	0f b7 c0             	movzwl %ax,%eax
   1c2ff:	44 89 e6             	mov    %r12d,%esi
   1c302:	89 c7                	mov    %eax,%edi
   1c304:	e8 34 4a ff ff       	callq  10d3d <safe_mul_func_uint16_t_u_u>
   1c309:	89 de                	mov    %ebx,%esi
   1c30b:	bf 01 00 00 00       	mov    $0x1,%edi
   1c310:	e8 cc 41 ff ff       	callq  104e1 <safe_lshift_func_int16_t_s_u>
   1c315:	8b 85 28 ec ff ff    	mov    -0x13d8(%rbp),%eax
   1c31b:	0f b6 d0             	movzbl %al,%edx
   1c31e:	0f b7 85 2c ec ff ff 	movzwl -0x13d4(%rbp),%eax
   1c325:	0f b6 c0             	movzbl %al,%eax
   1c328:	89 d6                	mov    %edx,%esi
   1c32a:	89 c7                	mov    %eax,%edi
   1c32c:	e8 7d 48 ff ff       	callq  10bae <safe_mod_func_uint8_t_u_u>
   1c331:	84 c0                	test   %al,%al
   1c333:	74 07                	je     1c33c <func_52+0xc93>
   1c335:	ba 01 00 00 00       	mov    $0x1,%edx
   1c33a:	eb 05                	jmp    1c341 <func_52+0xc98>
   1c33c:	ba 00 00 00 00       	mov    $0x0,%edx
   1c341:	8b 85 28 ec ff ff    	mov    -0x13d8(%rbp),%eax
   1c347:	89 d6                	mov    %edx,%esi
   1c349:	89 c7                	mov    %eax,%edi
   1c34b:	e8 7c 43 ff ff       	callq  106cc <safe_mod_func_int32_t_s_s>
   1c350:	48 98                	cltq   
   1c352:	48 ba c7 18 2d 66 5b 	movabs $0x5157555b662d18c7,%rdx
   1c359:	55 57 51 
   1c35c:	48 09 d0             	or     %rdx,%rax
   1c35f:	89 c2                	mov    %eax,%edx
   1c361:	8b 85 40 ec ff ff    	mov    -0x13c0(%rbp),%eax
   1c367:	09 d0                	or     %edx,%eax
   1c369:	89 85 40 ec ff ff    	mov    %eax,-0x13c0(%rbp)
   1c36f:	c7 85 90 ee ff ff 44 	movl   $0xa44ee744,-0x1170(%rbp)
   1c376:	e7 4e a4 
   1c379:	e9 bc 01 00 00       	jmpq   1c53a <func_52+0xe91>
   1c37e:	c6 85 3b ec ff ff ff 	movb   $0xff,-0x13c5(%rbp)
   1c385:	8b 85 2c ed ff ff    	mov    -0x12d4(%rbp),%eax
   1c38b:	89 c2                	mov    %eax,%edx
   1c38d:	48 8b 05 cc ac 00 00 	mov    0xaccc(%rip),%rax        # 27060 <g_113>
   1c394:	0f b7 c0             	movzwl %ax,%eax
   1c397:	89 d6                	mov    %edx,%esi
   1c399:	89 c7                	mov    %eax,%edi
   1c39b:	e8 a8 4a ff ff       	callq  10e48 <safe_rshift_func_uint16_t_u_s>
   1c3a0:	83 e0 fb             	and    $0xfffffffb,%eax
   1c3a3:	98                   	cwtl   
   1c3a4:	be 0d 00 00 00       	mov    $0xd,%esi
   1c3a9:	89 c7                	mov    %eax,%edi
   1c3ab:	e8 b3 41 ff ff       	callq  10563 <safe_rshift_func_int16_t_s_u>
   1c3b0:	0f b6 d0             	movzbl %al,%edx
   1c3b3:	48 8b 05 06 f1 00 00 	mov    0xf106(%rip),%rax        # 2b4c0 <g_296>
   1c3ba:	48 8b 00             	mov    (%rax),%rax
   1c3bd:	48 8b 00             	mov    (%rax),%rax
   1c3c0:	48 b9 68 af 75 6f 04 	movabs $0x470c18046f75af68,%rcx
   1c3c7:	18 0c 47 
   1c3ca:	48 39 c8             	cmp    %rcx,%rax
   1c3cd:	0f 95 c0             	setne  %al
   1c3d0:	0f b6 c8             	movzbl %al,%ecx
   1c3d3:	0f bf 85 2c ec ff ff 	movswl -0x13d4(%rbp),%eax
   1c3da:	39 c1                	cmp    %eax,%ecx
   1c3dc:	0f 95 c0             	setne  %al
   1c3df:	0f b6 c0             	movzbl %al,%eax
   1c3e2:	89 d6                	mov    %edx,%esi
   1c3e4:	89 c7                	mov    %eax,%edi
   1c3e6:	e8 8d 47 ff ff       	callq  10b78 <safe_sub_func_uint8_t_u_u>
   1c3eb:	84 c0                	test   %al,%al
   1c3ed:	0f 84 e6 00 00 00    	je     1c4d9 <func_52+0xe30>
   1c3f3:	48 8b 1d 7e ad 00 00 	mov    0xad7e(%rip),%rbx        # 27178 <g_268>
   1c3fa:	8b 85 40 ec ff ff    	mov    -0x13c0(%rbp),%eax
   1c400:	85 c0                	test   %eax,%eax
   1c402:	0f 85 a3 00 00 00    	jne    1c4ab <func_52+0xe02>
   1c408:	8b 05 7a ad 00 00    	mov    0xad7a(%rip),%eax        # 27188 <g_352>
   1c40e:	83 c0 03             	add    $0x3,%eax
   1c411:	89 c2                	mov    %eax,%edx
   1c413:	48 8d 05 ae ac 00 00 	lea    0xacae(%rip),%rax        # 270c8 <g_211>
   1c41a:	0f b6 04 02          	movzbl (%rdx,%rax,1),%eax
   1c41e:	0f b6 c0             	movzbl %al,%eax
   1c421:	48 c7 c6 ff ff ff ff 	mov    $0xffffffffffffffff,%rsi
   1c428:	48 89 c7             	mov    %rax,%rdi
   1c42b:	e8 78 44 ff ff       	callq  108a8 <safe_sub_func_int64_t_s_s>
   1c430:	48 3d ab 00 00 00    	cmp    $0xab,%rax
   1c436:	0f 9f c0             	setg   %al
   1c439:	0f b6 c0             	movzbl %al,%eax
   1c43c:	be fe ff ff ff       	mov    $0xfffffffe,%esi
   1c441:	89 c7                	mov    %eax,%edi
   1c443:	e8 70 4a ff ff       	callq  10eb8 <safe_add_func_uint32_t_u_u>
   1c448:	0f b6 95 3b ec ff ff 	movzbl -0x13c5(%rbp),%edx
   1c44f:	39 d0                	cmp    %edx,%eax
   1c451:	0f 95 c0             	setne  %al
   1c454:	88 05 6d ac 00 00    	mov    %al,0xac6d(%rip)        # 270c7 <g_202>
   1c45a:	8b 05 20 ad 00 00    	mov    0xad20(%rip),%eax        # 27180 <g_273>
   1c460:	8d 48 01             	lea    0x1(%rax),%ecx
   1c463:	89 c8                	mov    %ecx,%eax
   1c465:	48 8d 14 c5 00 00 00 	lea    0x0(,%rax,8),%rdx
   1c46c:	00 
   1c46d:	48 8d 05 4c 16 01 00 	lea    0x1164c(%rip),%rax        # 2dac0 <g_269>
   1c474:	48 c7 04 02 00 00 00 	movq   $0x0,(%rdx,%rax,1)
   1c47b:	00 
   1c47c:	89 c8                	mov    %ecx,%eax
   1c47e:	48 8d 14 c5 00 00 00 	lea    0x0(,%rax,8),%rdx
   1c485:	00 
   1c486:	48 8d 05 33 16 01 00 	lea    0x11633(%rip),%rax        # 2dac0 <g_269>
   1c48d:	48 8b 04 02          	mov    (%rdx,%rax,1),%rax
   1c491:	48 89 05 38 ac 00 00 	mov    %rax,0xac38(%rip)        # 270d0 <g_212>
   1c498:	48 8b 05 31 ac 00 00 	mov    0xac31(%rip),%rax        # 270d0 <g_212>
   1c49f:	48 85 c0             	test   %rax,%rax
   1c4a2:	74 07                	je     1c4ab <func_52+0xe02>
   1c4a4:	b8 01 00 00 00       	mov    $0x1,%eax
   1c4a9:	eb 05                	jmp    1c4b0 <func_52+0xe07>
   1c4ab:	b8 00 00 00 00       	mov    $0x0,%eax
   1c4b0:	0f b7 c0             	movzwl %ax,%eax
   1c4b3:	be 26 09 00 00       	mov    $0x926,%esi
   1c4b8:	89 c7                	mov    %eax,%edi
   1c4ba:	e8 9d 48 ff ff       	callq  10d5c <safe_mod_func_uint16_t_u_u>
   1c4bf:	0f b7 c0             	movzwl %ax,%eax
   1c4c2:	48 89 de             	mov    %rbx,%rsi
   1c4c5:	48 89 c7             	mov    %rax,%rdi
   1c4c8:	e8 7e 4b ff ff       	callq  1104b <safe_sub_func_uint64_t_u_u>
   1c4cd:	48 85 c0             	test   %rax,%rax
   1c4d0:	74 07                	je     1c4d9 <func_52+0xe30>
   1c4d2:	b8 01 00 00 00       	mov    $0x1,%eax
   1c4d7:	eb 05                	jmp    1c4de <func_52+0xe35>
   1c4d9:	b8 00 00 00 00       	mov    $0x0,%eax
   1c4de:	0f be c0             	movsbl %al,%eax
   1c4e1:	8b 95 28 ec ff ff    	mov    -0x13d8(%rbp),%edx
   1c4e7:	89 d6                	mov    %edx,%esi
   1c4e9:	89 c7                	mov    %eax,%edi
   1c4eb:	e8 b1 3d ff ff       	callq  102a1 <safe_lshift_func_int8_t_s_s>
   1c4f0:	48 0f be d0          	movsbq %al,%rdx
   1c4f4:	8b 85 28 ec ff ff    	mov    -0x13d8(%rbp),%eax
   1c4fa:	48 98                	cltq   
   1c4fc:	48 89 d6             	mov    %rdx,%rsi
   1c4ff:	48 89 c7             	mov    %rax,%rdi
   1c502:	e8 44 4b ff ff       	callq  1104b <safe_sub_func_uint64_t_u_u>
   1c507:	0f b6 15 f6 ac 00 00 	movzbl 0xacf6(%rip),%edx        # 27204 <g_512>
   1c50e:	48 0f be d2          	movsbq %dl,%rdx
   1c512:	48 39 d0             	cmp    %rdx,%rax
   1c515:	0f 92 c0             	setb   %al
   1c518:	0f b6 d0             	movzbl %al,%edx
   1c51b:	8b 85 04 ef ff ff    	mov    -0x10fc(%rbp),%eax
   1c521:	21 d0                	and    %edx,%eax
   1c523:	89 85 04 ef ff ff    	mov    %eax,-0x10fc(%rbp)
   1c529:	0f b7 05 d6 ac 00 00 	movzwl 0xacd6(%rip),%eax        # 27206 <g_514>
   1c530:	83 c0 01             	add    $0x1,%eax
   1c533:	66 89 05 cc ac 00 00 	mov    %ax,0xaccc(%rip)        # 27206 <g_514>
   1c53a:	8b 05 10 ab 00 00    	mov    0xab10(%rip),%eax        # 27050 <g_87>
   1c540:	23 85 28 ec ff ff    	and    -0x13d8(%rbp),%eax
   1c546:	89 05 04 ab 00 00    	mov    %eax,0xab04(%rip)        # 27050 <g_87>
   1c54c:	48 8b 05 75 ef 00 00 	mov    0xef75(%rip),%rax        # 2b4c8 <g_326>
   1c553:	8b 00                	mov    (%rax),%eax
   1c555:	85 c0                	test   %eax,%eax
   1c557:	74 37                	je     1c590 <func_52+0xee7>
   1c559:	48 8b 85 18 ed ff ff 	mov    -0x12e8(%rbp),%rax
   1c560:	48 85 c0             	test   %rax,%rax
   1c563:	0f 95 c0             	setne  %al
   1c566:	0f b6 c0             	movzbl %al,%eax
   1c569:	89 85 a0 ee ff ff    	mov    %eax,-0x1160(%rbp)
   1c56f:	8b 05 13 ac 00 00    	mov    0xac13(%rip),%eax        # 27188 <g_352>
   1c575:	83 c0 03             	add    $0x3,%eax
   1c578:	89 c2                	mov    %eax,%edx
   1c57a:	48 8d 05 47 ab 00 00 	lea    0xab47(%rip),%rax        # 270c8 <g_211>
   1c581:	0f b6 04 02          	movzbl (%rdx,%rax,1),%eax
   1c585:	0f b6 c0             	movzbl %al,%eax
   1c588:	89 85 90 ee ff ff    	mov    %eax,-0x1170(%rbp)
   1c58e:	eb 11                	jmp    1c5a1 <func_52+0xef8>
   1c590:	48 8b 05 39 ef 00 00 	mov    0xef39(%rip),%rax        # 2b4d0 <g_325>
   1c597:	48 8d 95 40 ec ff ff 	lea    -0x13c0(%rbp),%rdx
   1c59e:	48 89 10             	mov    %rdx,(%rax)
   1c5a1:	8b 05 e1 ab 00 00    	mov    0xabe1(%rip),%eax        # 27188 <g_352>
   1c5a7:	83 c0 01             	add    $0x1,%eax
   1c5aa:	89 05 d8 ab 00 00    	mov    %eax,0xabd8(%rip)        # 27188 <g_352>
   1c5b0:	8b 05 d2 ab 00 00    	mov    0xabd2(%rip),%eax        # 27188 <g_352>
   1c5b6:	83 f8 02             	cmp    $0x2,%eax
   1c5b9:	0f 86 da fa ff ff    	jbe    1c099 <func_52+0x9f0>
   1c5bf:	eb 01                	jmp    1c5c2 <func_52+0xf19>
   1c5c1:	90                   	nop
   1c5c2:	8b 05 b8 ab 00 00    	mov    0xabb8(%rip),%eax        # 27180 <g_273>
   1c5c8:	83 c0 01             	add    $0x1,%eax
   1c5cb:	89 05 af ab 00 00    	mov    %eax,0xabaf(%rip)        # 27180 <g_273>
   1c5d1:	8b 05 a9 ab 00 00    	mov    0xaba9(%rip),%eax        # 27180 <g_273>
   1c5d7:	83 f8 02             	cmp    $0x2,%eax
   1c5da:	0f 86 54 f8 ff ff    	jbe    1be34 <func_52+0x78b>
   1c5e0:	8b 85 04 ef ff ff    	mov    -0x10fc(%rbp),%eax
   1c5e6:	21 85 78 ec ff ff    	and    %eax,-0x1388(%rbp)
   1c5ec:	8b 95 78 ec ff ff    	mov    -0x1388(%rbp),%edx
   1c5f2:	8b 85 40 ec ff ff    	mov    -0x13c0(%rbp),%eax
   1c5f8:	21 d0                	and    %edx,%eax
   1c5fa:	89 85 40 ec ff ff    	mov    %eax,-0x13c0(%rbp)
   1c600:	e9 41 0e 00 00       	jmpq   1d446 <func_52+0x1d9d>
   1c605:	48 8d 05 78 ab 00 00 	lea    0xab78(%rip),%rax        # 27184 <g_340>
   1c60c:	48 89 85 90 ec ff ff 	mov    %rax,-0x1370(%rbp)
   1c613:	c6 85 3a ec ff ff ff 	movb   $0xff,-0x13c6(%rbp)
   1c61a:	c7 85 64 ec ff ff f8 	movl   $0xfffffff8,-0x139c(%rbp)
   1c621:	ff ff ff 
   1c624:	c7 85 b0 ee ff ff 00 	movl   $0x0,-0x1150(%rbp)
   1c62b:	00 00 00 
   1c62e:	c7 85 b4 ee ff ff 00 	movl   $0x0,-0x114c(%rbp)
   1c635:	00 00 00 
   1c638:	c7 85 b8 ee ff ff 00 	movl   $0x0,-0x1148(%rbp)
   1c63f:	00 00 00 
   1c642:	c7 85 bc ee ff ff 00 	movl   $0x0,-0x1144(%rbp)
   1c649:	00 00 00 
   1c64c:	c7 85 c0 ee ff ff 00 	movl   $0x0,-0x1140(%rbp)
   1c653:	00 00 00 
   1c656:	c7 85 c4 ee ff ff 00 	movl   $0x0,-0x113c(%rbp)
   1c65d:	00 00 00 
   1c660:	c7 85 c8 ee ff ff 00 	movl   $0x0,-0x1138(%rbp)
   1c667:	00 00 00 
   1c66a:	c7 85 cc ee ff ff 00 	movl   $0x0,-0x1134(%rbp)
   1c671:	00 00 00 
   1c674:	c7 85 d0 ee ff ff 00 	movl   $0x0,-0x1130(%rbp)
   1c67b:	00 00 00 
   1c67e:	c7 85 d4 ee ff ff b3 	movl   $0x729fe6b3,-0x112c(%rbp)
   1c685:	e6 9f 72 
   1c688:	c7 85 d8 ee ff ff b3 	movl   $0x729fe6b3,-0x1128(%rbp)
   1c68f:	e6 9f 72 
   1c692:	c7 85 dc ee ff ff b3 	movl   $0x729fe6b3,-0x1124(%rbp)
   1c699:	e6 9f 72 
   1c69c:	c7 85 e0 ee ff ff b3 	movl   $0x729fe6b3,-0x1120(%rbp)
   1c6a3:	e6 9f 72 
   1c6a6:	c7 85 e4 ee ff ff b3 	movl   $0x729fe6b3,-0x111c(%rbp)
   1c6ad:	e6 9f 72 
   1c6b0:	c7 85 e8 ee ff ff b3 	movl   $0x729fe6b3,-0x1118(%rbp)
   1c6b7:	e6 9f 72 
   1c6ba:	c7 85 ec ee ff ff b3 	movl   $0x729fe6b3,-0x1114(%rbp)
   1c6c1:	e6 9f 72 
   1c6c4:	c7 85 f0 ee ff ff b3 	movl   $0x729fe6b3,-0x1110(%rbp)
   1c6cb:	e6 9f 72 
   1c6ce:	c7 85 f4 ee ff ff b3 	movl   $0x729fe6b3,-0x110c(%rbp)
   1c6d5:	e6 9f 72 
   1c6d8:	48 c7 85 98 ec ff ff 	movq   $0x0,-0x1368(%rbp)
   1c6df:	00 00 00 00 
   1c6e3:	48 8d 85 98 ec ff ff 	lea    -0x1368(%rbp),%rax
   1c6ea:	48 89 85 a0 ec ff ff 	mov    %rax,-0x1360(%rbp)
   1c6f1:	c7 85 54 ec ff ff 00 	movl   $0x0,-0x13ac(%rbp)
   1c6f8:	00 00 00 
   1c6fb:	eb 46                	jmp    1c743 <func_52+0x109a>
   1c6fd:	c7 85 58 ec ff ff 00 	movl   $0x0,-0x13a8(%rbp)
   1c704:	00 00 00 
   1c707:	eb 2a                	jmp    1c733 <func_52+0x108a>
   1c709:	8b 85 58 ec ff ff    	mov    -0x13a8(%rbp),%eax
   1c70f:	48 63 d0             	movslq %eax,%rdx
   1c712:	8b 85 54 ec ff ff    	mov    -0x13ac(%rbp),%eax
   1c718:	48 98                	cltq   
   1c71a:	48 01 c2             	add    %rax,%rdx
   1c71d:	48 8d 85 88 ec ff ff 	lea    -0x1378(%rbp),%rax
   1c724:	48 89 84 d5 f0 ed ff 	mov    %rax,-0x1210(%rbp,%rdx,8)
   1c72b:	ff 
   1c72c:	83 85 58 ec ff ff 01 	addl   $0x1,-0x13a8(%rbp)
   1c733:	83 bd 58 ec ff ff 00 	cmpl   $0x0,-0x13a8(%rbp)
   1c73a:	7e cd                	jle    1c709 <func_52+0x1060>
   1c73c:	83 85 54 ec ff ff 01 	addl   $0x1,-0x13ac(%rbp)
   1c743:	83 bd 54 ec ff ff 07 	cmpl   $0x7,-0x13ac(%rbp)
   1c74a:	7e b1                	jle    1c6fd <func_52+0x1054>
   1c74c:	48 8b 85 90 ec ff ff 	mov    -0x1370(%rbp),%rax
   1c753:	0f b7 10             	movzwl (%rax),%edx
   1c756:	83 c2 01             	add    $0x1,%edx
   1c759:	66 89 10             	mov    %dx,(%rax)
   1c75c:	48 8b 85 28 fe ff ff 	mov    -0x1d8(%rbp),%rax
   1c763:	48 85 c0             	test   %rax,%rax
   1c766:	0f 95 c0             	setne  %al
   1c769:	0f b6 d8             	movzbl %al,%ebx
   1c76c:	be 06 00 00 00       	mov    $0x6,%esi
   1c771:	bf 01 00 00 00       	mov    $0x1,%edi
   1c776:	e8 8a 44 ff ff       	callq  10c05 <safe_lshift_func_uint8_t_u_s>
   1c77b:	0f b6 d0             	movzbl %al,%edx
   1c77e:	48 8b 05 33 ed 00 00 	mov    0xed33(%rip),%rax        # 2b4b8 <g_297>
   1c785:	48 8b 00             	mov    (%rax),%rax
   1c788:	48 89 d6             	mov    %rdx,%rsi
   1c78b:	48 89 c7             	mov    %rax,%rdi
   1c78e:	e8 21 42 ff ff       	callq  109b4 <safe_mod_func_int64_t_s_s>
   1c793:	0f b7 c0             	movzwl %ax,%eax
   1c796:	89 de                	mov    %ebx,%esi
   1c798:	89 c7                	mov    %eax,%edi
   1c79a:	e8 a9 46 ff ff       	callq  10e48 <safe_rshift_func_uint16_t_u_s>
   1c79f:	8b 15 1b a9 00 00    	mov    0xa91b(%rip),%edx        # 270c0 <g_149>
   1c7a5:	89 c1                	mov    %eax,%ecx
   1c7a7:	89 d2                	mov    %edx,%edx
   1c7a9:	48 8d 05 18 a9 00 00 	lea    0xa918(%rip),%rax        # 270c8 <g_211>
   1c7b0:	88 0c 02             	mov    %cl,(%rdx,%rax,1)
   1c7b3:	be 05 00 00 00       	mov    $0x5,%esi
   1c7b8:	bf fe ff ff ff       	mov    $0xfffffffe,%edi
   1c7bd:	e8 1f 3d ff ff       	callq  104e1 <safe_lshift_func_int16_t_s_u>
   1c7c2:	0f bf d0             	movswl %ax,%edx
   1c7c5:	8b 85 40 ec ff ff    	mov    -0x13c0(%rbp),%eax
   1c7cb:	09 d0                	or     %edx,%eax
   1c7cd:	89 85 40 ec ff ff    	mov    %eax,-0x13c0(%rbp)
   1c7d3:	8b 85 40 ec ff ff    	mov    -0x13c0(%rbp),%eax
   1c7d9:	0f be c0             	movsbl %al,%eax
   1c7dc:	be df ff ff ff       	mov    $0xffffffdf,%esi
   1c7e1:	89 c7                	mov    %eax,%edi
   1c7e3:	e8 2a 3a ff ff       	callq  10212 <safe_mul_func_int8_t_s_s>
   1c7e8:	0f be d8             	movsbl %al,%ebx
   1c7eb:	48 8b 05 c6 ec 00 00 	mov    0xecc6(%rip),%rax        # 2b4b8 <g_297>
   1c7f2:	48 8b 00             	mov    (%rax),%rax
   1c7f5:	31 85 4c ec ff ff    	xor    %eax,-0x13b4(%rbp)
   1c7fb:	0f be 85 3a ec ff ff 	movsbl -0x13c6(%rbp),%eax
   1c802:	39 85 4c ec ff ff    	cmp    %eax,-0x13b4(%rbp)
   1c808:	7d 0e                	jge    1c818 <func_52+0x116f>
   1c80a:	48 8b 05 d7 ec 00 00 	mov    0xecd7(%rip),%rax        # 2b4e8 <g_450>
   1c811:	0f b6 00             	movzbl (%rax),%eax
   1c814:	84 c0                	test   %al,%al
   1c816:	74 07                	je     1c81f <func_52+0x1176>
   1c818:	b8 01 00 00 00       	mov    $0x1,%eax
   1c81d:	eb 05                	jmp    1c824 <func_52+0x117b>
   1c81f:	b8 00 00 00 00       	mov    $0x0,%eax
   1c824:	66 89 85 2c ec ff ff 	mov    %ax,-0x13d4(%rbp)
   1c82b:	0f bf 85 2c ec ff ff 	movswl -0x13d4(%rbp),%eax
   1c832:	89 85 60 ec ff ff    	mov    %eax,-0x13a0(%rbp)
   1c838:	8b 95 60 ec ff ff    	mov    -0x13a0(%rbp),%edx
   1c83e:	8b 85 34 ed ff ff    	mov    -0x12cc(%rbp),%eax
   1c844:	21 d0                	and    %edx,%eax
   1c846:	89 85 34 ed ff ff    	mov    %eax,-0x12cc(%rbp)
   1c84c:	be 06 00 00 00       	mov    $0x6,%esi
   1c851:	bf b3 ff ff ff       	mov    $0xffffffb3,%edi
   1c856:	e8 d6 39 ff ff       	callq  10231 <safe_mod_func_int8_t_s_s>
   1c85b:	0f b6 c0             	movzbl %al,%eax
   1c85e:	89 c6                	mov    %eax,%esi
   1c860:	bf ff 00 00 00       	mov    $0xff,%edi
   1c865:	e8 29 43 ff ff       	callq  10b93 <safe_mul_func_uint8_t_u_u>
   1c86a:	84 c0                	test   %al,%al
   1c86c:	0f 95 c0             	setne  %al
   1c86f:	0f b6 c0             	movzbl %al,%eax
   1c872:	39 c3                	cmp    %eax,%ebx
   1c874:	0f 9f c0             	setg   %al
   1c877:	0f b6 d0             	movzbl %al,%edx
   1c87a:	48 8b 05 3f ec 00 00 	mov    0xec3f(%rip),%rax        # 2b4c0 <g_296>
   1c881:	48 8b 00             	mov    (%rax),%rax
   1c884:	48 8b 00             	mov    (%rax),%rax
   1c887:	48 39 c2             	cmp    %rax,%rdx
   1c88a:	0f 9d c0             	setge  %al
   1c88d:	0f b6 c0             	movzbl %al,%eax
   1c890:	31 85 64 ec ff ff    	xor    %eax,-0x139c(%rbp)
   1c896:	48 8b 05 1b ec 00 00 	mov    0xec1b(%rip),%rax        # 2b4b8 <g_297>
   1c89d:	48 8b 00             	mov    (%rax),%rax
   1c8a0:	48 89 c3             	mov    %rax,%rbx
   1c8a3:	8b 85 28 ec ff ff    	mov    -0x13d8(%rbp),%eax
   1c8a9:	48 98                	cltq   
   1c8ab:	48 89 c7             	mov    %rax,%rdi
   1c8ae:	e8 66 47 ff ff       	callq  11019 <safe_unary_minus_func_uint64_t_u>
   1c8b3:	48 09 d8             	or     %rbx,%rax
   1c8b6:	89 c2                	mov    %eax,%edx
   1c8b8:	8b 85 64 ec ff ff    	mov    -0x139c(%rbp),%eax
   1c8be:	31 d0                	xor    %edx,%eax
   1c8c0:	89 85 64 ec ff ff    	mov    %eax,-0x139c(%rbp)
   1c8c6:	48 8b 05 3b 12 01 00 	mov    0x1123b(%rip),%rax        # 2db08 <g_546>
   1c8cd:	48 83 c0 01          	add    $0x1,%rax
   1c8d1:	48 89 05 30 12 01 00 	mov    %rax,0x11230(%rip)        # 2db08 <g_546>
   1c8d8:	c6 05 25 a9 00 00 02 	movb   $0x2,0xa925(%rip)        # 27204 <g_512>
   1c8df:	e9 53 0b 00 00       	jmpq   1d437 <func_52+0x1d8e>
   1c8e4:	48 8d 85 90 ec ff ff 	lea    -0x1370(%rbp),%rax
   1c8eb:	48 89 85 00 f0 ff ff 	mov    %rax,-0x1000(%rbp)
   1c8f2:	48 8d 85 90 ec ff ff 	lea    -0x1370(%rbp),%rax
   1c8f9:	48 89 85 08 f0 ff ff 	mov    %rax,-0xff8(%rbp)
   1c900:	48 8d 85 90 ec ff ff 	lea    -0x1370(%rbp),%rax
   1c907:	48 89 85 10 f0 ff ff 	mov    %rax,-0xff0(%rbp)
   1c90e:	48 8d 85 90 ec ff ff 	lea    -0x1370(%rbp),%rax
   1c915:	48 89 85 18 f0 ff ff 	mov    %rax,-0xfe8(%rbp)
   1c91c:	48 8d 85 90 ec ff ff 	lea    -0x1370(%rbp),%rax
   1c923:	48 89 85 20 f0 ff ff 	mov    %rax,-0xfe0(%rbp)
   1c92a:	48 8d 85 90 ec ff ff 	lea    -0x1370(%rbp),%rax
   1c931:	48 89 85 28 f0 ff ff 	mov    %rax,-0xfd8(%rbp)
   1c938:	48 8d 85 90 ec ff ff 	lea    -0x1370(%rbp),%rax
   1c93f:	48 89 85 30 f0 ff ff 	mov    %rax,-0xfd0(%rbp)
   1c946:	48 8d 85 90 ec ff ff 	lea    -0x1370(%rbp),%rax
   1c94d:	48 89 85 38 f0 ff ff 	mov    %rax,-0xfc8(%rbp)
   1c954:	48 8d 85 90 ec ff ff 	lea    -0x1370(%rbp),%rax
   1c95b:	48 89 85 40 f0 ff ff 	mov    %rax,-0xfc0(%rbp)
   1c962:	48 8d 85 90 ec ff ff 	lea    -0x1370(%rbp),%rax
   1c969:	48 89 85 48 f0 ff ff 	mov    %rax,-0xfb8(%rbp)
   1c970:	48 8d 85 90 ec ff ff 	lea    -0x1370(%rbp),%rax
   1c977:	48 89 85 50 f0 ff ff 	mov    %rax,-0xfb0(%rbp)
   1c97e:	48 8d 85 90 ec ff ff 	lea    -0x1370(%rbp),%rax
   1c985:	48 89 85 58 f0 ff ff 	mov    %rax,-0xfa8(%rbp)
   1c98c:	48 8d 85 90 ec ff ff 	lea    -0x1370(%rbp),%rax
   1c993:	48 89 85 60 f0 ff ff 	mov    %rax,-0xfa0(%rbp)
   1c99a:	48 8d 85 90 ec ff ff 	lea    -0x1370(%rbp),%rax
   1c9a1:	48 89 85 68 f0 ff ff 	mov    %rax,-0xf98(%rbp)
   1c9a8:	48 8d 85 90 ec ff ff 	lea    -0x1370(%rbp),%rax
   1c9af:	48 89 85 70 f0 ff ff 	mov    %rax,-0xf90(%rbp)
   1c9b6:	48 8d 85 90 ec ff ff 	lea    -0x1370(%rbp),%rax
   1c9bd:	48 89 85 78 f0 ff ff 	mov    %rax,-0xf88(%rbp)
   1c9c4:	48 8d 85 90 ec ff ff 	lea    -0x1370(%rbp),%rax
   1c9cb:	48 89 85 80 f0 ff ff 	mov    %rax,-0xf80(%rbp)
   1c9d2:	48 8d 85 90 ec ff ff 	lea    -0x1370(%rbp),%rax
   1c9d9:	48 89 85 88 f0 ff ff 	mov    %rax,-0xf78(%rbp)
   1c9e0:	48 8d 85 90 ec ff ff 	lea    -0x1370(%rbp),%rax
   1c9e7:	48 89 85 90 f0 ff ff 	mov    %rax,-0xf70(%rbp)
   1c9ee:	48 8d 85 90 ec ff ff 	lea    -0x1370(%rbp),%rax
   1c9f5:	48 89 85 98 f0 ff ff 	mov    %rax,-0xf68(%rbp)
   1c9fc:	48 8d 85 90 ec ff ff 	lea    -0x1370(%rbp),%rax
   1ca03:	48 89 85 a0 f0 ff ff 	mov    %rax,-0xf60(%rbp)
   1ca0a:	48 8d 85 90 ec ff ff 	lea    -0x1370(%rbp),%rax
   1ca11:	48 89 85 a8 f0 ff ff 	mov    %rax,-0xf58(%rbp)
   1ca18:	48 8d 85 90 ec ff ff 	lea    -0x1370(%rbp),%rax
   1ca1f:	48 89 85 b0 f0 ff ff 	mov    %rax,-0xf50(%rbp)
   1ca26:	48 8d 85 90 ec ff ff 	lea    -0x1370(%rbp),%rax
   1ca2d:	48 89 85 b8 f0 ff ff 	mov    %rax,-0xf48(%rbp)
   1ca34:	48 8d 85 90 ec ff ff 	lea    -0x1370(%rbp),%rax
   1ca3b:	48 89 85 c0 f0 ff ff 	mov    %rax,-0xf40(%rbp)
   1ca42:	48 8d 85 90 ec ff ff 	lea    -0x1370(%rbp),%rax
   1ca49:	48 89 85 c8 f0 ff ff 	mov    %rax,-0xf38(%rbp)
   1ca50:	48 8d 85 90 ec ff ff 	lea    -0x1370(%rbp),%rax
   1ca57:	48 89 85 d0 f0 ff ff 	mov    %rax,-0xf30(%rbp)
   1ca5e:	48 8d 85 90 ec ff ff 	lea    -0x1370(%rbp),%rax
   1ca65:	48 89 85 d8 f0 ff ff 	mov    %rax,-0xf28(%rbp)
   1ca6c:	48 8d 85 90 ec ff ff 	lea    -0x1370(%rbp),%rax
   1ca73:	48 89 85 e0 f0 ff ff 	mov    %rax,-0xf20(%rbp)
   1ca7a:	48 8d 85 90 ec ff ff 	lea    -0x1370(%rbp),%rax
   1ca81:	48 89 85 e8 f0 ff ff 	mov    %rax,-0xf18(%rbp)
   1ca88:	48 8d 85 90 ec ff ff 	lea    -0x1370(%rbp),%rax
   1ca8f:	48 89 85 f0 f0 ff ff 	mov    %rax,-0xf10(%rbp)
   1ca96:	48 8d 85 90 ec ff ff 	lea    -0x1370(%rbp),%rax
   1ca9d:	48 89 85 f8 f0 ff ff 	mov    %rax,-0xf08(%rbp)
   1caa4:	48 8d 85 90 ec ff ff 	lea    -0x1370(%rbp),%rax
   1caab:	48 89 85 00 f1 ff ff 	mov    %rax,-0xf00(%rbp)
   1cab2:	48 8d 85 90 ec ff ff 	lea    -0x1370(%rbp),%rax
   1cab9:	48 89 85 08 f1 ff ff 	mov    %rax,-0xef8(%rbp)
   1cac0:	48 8d 85 90 ec ff ff 	lea    -0x1370(%rbp),%rax
   1cac7:	48 89 85 10 f1 ff ff 	mov    %rax,-0xef0(%rbp)
   1cace:	48 8d 85 90 ec ff ff 	lea    -0x1370(%rbp),%rax
   1cad5:	48 89 85 18 f1 ff ff 	mov    %rax,-0xee8(%rbp)
   1cadc:	48 8d 85 90 ec ff ff 	lea    -0x1370(%rbp),%rax
   1cae3:	48 89 85 20 f1 ff ff 	mov    %rax,-0xee0(%rbp)
   1caea:	48 8d 85 90 ec ff ff 	lea    -0x1370(%rbp),%rax
   1caf1:	48 89 85 28 f1 ff ff 	mov    %rax,-0xed8(%rbp)
   1caf8:	48 8d 85 90 ec ff ff 	lea    -0x1370(%rbp),%rax
   1caff:	48 89 85 30 f1 ff ff 	mov    %rax,-0xed0(%rbp)
   1cb06:	48 8d 85 90 ec ff ff 	lea    -0x1370(%rbp),%rax
   1cb0d:	48 89 85 38 f1 ff ff 	mov    %rax,-0xec8(%rbp)
   1cb14:	48 8d 85 90 ec ff ff 	lea    -0x1370(%rbp),%rax
   1cb1b:	48 89 85 40 f1 ff ff 	mov    %rax,-0xec0(%rbp)
   1cb22:	48 8d 85 90 ec ff ff 	lea    -0x1370(%rbp),%rax
   1cb29:	48 89 85 48 f1 ff ff 	mov    %rax,-0xeb8(%rbp)
   1cb30:	48 8d 85 90 ec ff ff 	lea    -0x1370(%rbp),%rax
   1cb37:	48 89 85 50 f1 ff ff 	mov    %rax,-0xeb0(%rbp)
   1cb3e:	48 8d 85 90 ec ff ff 	lea    -0x1370(%rbp),%rax
   1cb45:	48 89 85 58 f1 ff ff 	mov    %rax,-0xea8(%rbp)
   1cb4c:	48 8d 85 90 ec ff ff 	lea    -0x1370(%rbp),%rax
   1cb53:	48 89 85 60 f1 ff ff 	mov    %rax,-0xea0(%rbp)
   1cb5a:	48 8d 85 90 ec ff ff 	lea    -0x1370(%rbp),%rax
   1cb61:	48 89 85 68 f1 ff ff 	mov    %rax,-0xe98(%rbp)
   1cb68:	48 8d 85 90 ec ff ff 	lea    -0x1370(%rbp),%rax
   1cb6f:	48 89 85 70 f1 ff ff 	mov    %rax,-0xe90(%rbp)
   1cb76:	48 8d 85 90 ec ff ff 	lea    -0x1370(%rbp),%rax
   1cb7d:	48 89 85 78 f1 ff ff 	mov    %rax,-0xe88(%rbp)
   1cb84:	48 8d 85 90 ec ff ff 	lea    -0x1370(%rbp),%rax
   1cb8b:	48 89 85 80 f1 ff ff 	mov    %rax,-0xe80(%rbp)
   1cb92:	48 8d 85 90 ec ff ff 	lea    -0x1370(%rbp),%rax
   1cb99:	48 89 85 88 f1 ff ff 	mov    %rax,-0xe78(%rbp)
   1cba0:	48 8d 85 90 ec ff ff 	lea    -0x1370(%rbp),%rax
   1cba7:	48 89 85 90 f1 ff ff 	mov    %rax,-0xe70(%rbp)
   1cbae:	48 8d 85 90 ec ff ff 	lea    -0x1370(%rbp),%rax
   1cbb5:	48 89 85 98 f1 ff ff 	mov    %rax,-0xe68(%rbp)
   1cbbc:	48 8d 85 90 ec ff ff 	lea    -0x1370(%rbp),%rax
   1cbc3:	48 89 85 a0 f1 ff ff 	mov    %rax,-0xe60(%rbp)
   1cbca:	48 8d 85 90 ec ff ff 	lea    -0x1370(%rbp),%rax
   1cbd1:	48 89 85 a8 f1 ff ff 	mov    %rax,-0xe58(%rbp)
   1cbd8:	48 8d 85 90 ec ff ff 	lea    -0x1370(%rbp),%rax
   1cbdf:	48 89 85 b0 f1 ff ff 	mov    %rax,-0xe50(%rbp)
   1cbe6:	48 8d 85 90 ec ff ff 	lea    -0x1370(%rbp),%rax
   1cbed:	48 89 85 b8 f1 ff ff 	mov    %rax,-0xe48(%rbp)
   1cbf4:	48 8d 85 90 ec ff ff 	lea    -0x1370(%rbp),%rax
   1cbfb:	48 89 85 c0 f1 ff ff 	mov    %rax,-0xe40(%rbp)
   1cc02:	48 8d 85 90 ec ff ff 	lea    -0x1370(%rbp),%rax
   1cc09:	48 89 85 c8 f1 ff ff 	mov    %rax,-0xe38(%rbp)
   1cc10:	48 8d 85 90 ec ff ff 	lea    -0x1370(%rbp),%rax
   1cc17:	48 89 85 d0 f1 ff ff 	mov    %rax,-0xe30(%rbp)
   1cc1e:	48 8d 85 90 ec ff ff 	lea    -0x1370(%rbp),%rax
   1cc25:	48 89 85 d8 f1 ff ff 	mov    %rax,-0xe28(%rbp)
   1cc2c:	48 8d 85 90 ec ff ff 	lea    -0x1370(%rbp),%rax
   1cc33:	48 89 85 e0 f1 ff ff 	mov    %rax,-0xe20(%rbp)
   1cc3a:	48 8d 85 90 ec ff ff 	lea    -0x1370(%rbp),%rax
   1cc41:	48 89 85 e8 f1 ff ff 	mov    %rax,-0xe18(%rbp)
   1cc48:	48 8d 85 90 ec ff ff 	lea    -0x1370(%rbp),%rax
   1cc4f:	48 89 85 f0 f1 ff ff 	mov    %rax,-0xe10(%rbp)
   1cc56:	48 8d 85 90 ec ff ff 	lea    -0x1370(%rbp),%rax
   1cc5d:	48 89 85 f8 f1 ff ff 	mov    %rax,-0xe08(%rbp)
   1cc64:	48 8d 85 90 ec ff ff 	lea    -0x1370(%rbp),%rax
   1cc6b:	48 89 85 00 f2 ff ff 	mov    %rax,-0xe00(%rbp)
   1cc72:	48 8d 85 90 ec ff ff 	lea    -0x1370(%rbp),%rax
   1cc79:	48 89 85 08 f2 ff ff 	mov    %rax,-0xdf8(%rbp)
   1cc80:	48 8d 85 90 ec ff ff 	lea    -0x1370(%rbp),%rax
   1cc87:	48 89 85 10 f2 ff ff 	mov    %rax,-0xdf0(%rbp)
   1cc8e:	48 8d 85 90 ec ff ff 	lea    -0x1370(%rbp),%rax
   1cc95:	48 89 85 18 f2 ff ff 	mov    %rax,-0xde8(%rbp)
   1cc9c:	48 8d 85 90 ec ff ff 	lea    -0x1370(%rbp),%rax
   1cca3:	48 89 85 20 f2 ff ff 	mov    %rax,-0xde0(%rbp)
   1ccaa:	48 8d 85 90 ec ff ff 	lea    -0x1370(%rbp),%rax
   1ccb1:	48 89 85 28 f2 ff ff 	mov    %rax,-0xdd8(%rbp)
   1ccb8:	48 8d 85 90 ec ff ff 	lea    -0x1370(%rbp),%rax
   1ccbf:	48 89 85 30 f2 ff ff 	mov    %rax,-0xdd0(%rbp)
   1ccc6:	48 8d 85 90 ec ff ff 	lea    -0x1370(%rbp),%rax
   1cccd:	48 89 85 38 f2 ff ff 	mov    %rax,-0xdc8(%rbp)
   1ccd4:	48 8d 85 88 ec ff ff 	lea    -0x1378(%rbp),%rax
   1ccdb:	48 89 85 a8 ec ff ff 	mov    %rax,-0x1358(%rbp)
   1cce2:	0f b6 05 1b a5 00 00 	movzbl 0xa51b(%rip),%eax        # 27204 <g_512>
   1cce9:	0f be c0             	movsbl %al,%eax
   1ccec:	83 c0 01             	add    $0x1,%eax
   1ccef:	48 98                	cltq   
   1ccf1:	48 8d 14 00          	lea    (%rax,%rax,1),%rdx
   1ccf5:	48 8d 05 14 a5 00 00 	lea    0xa514(%rip),%rax        # 27210 <g_545>
   1ccfc:	0f b7 04 02          	movzwl (%rdx,%rax,1),%eax
   1cd00:	66 85 c0             	test   %ax,%ax
   1cd03:	74 3c                	je     1cd41 <func_52+0x1698>
   1cd05:	c7 85 40 ec ff ff 00 	movl   $0x0,-0x13c0(%rbp)
   1cd0c:	00 00 00 
   1cd0f:	eb 20                	jmp    1cd31 <func_52+0x1688>
   1cd11:	48 8b 05 b8 e7 00 00 	mov    0xe7b8(%rip),%rax        # 2b4d0 <g_325>
   1cd18:	48 8b 95 80 ed ff ff 	mov    -0x1280(%rbp),%rdx
   1cd1f:	48 89 10             	mov    %rdx,(%rax)
   1cd22:	8b 85 40 ec ff ff    	mov    -0x13c0(%rbp),%eax
   1cd28:	83 c0 01             	add    $0x1,%eax
   1cd2b:	89 85 40 ec ff ff    	mov    %eax,-0x13c0(%rbp)
   1cd31:	8b 85 40 ec ff ff    	mov    -0x13c0(%rbp),%eax
   1cd37:	83 f8 03             	cmp    $0x3,%eax
   1cd3a:	7e d5                	jle    1cd11 <func_52+0x1668>
   1cd3c:	e9 e6 06 00 00       	jmpq   1d427 <func_52+0x1d7e>
   1cd41:	48 c7 85 b8 ec ff ff 	movq   $0x0,-0x1348(%rbp)
   1cd48:	00 00 00 00 
   1cd4c:	48 c7 85 c0 ec ff ff 	movq   $0x0,-0x1340(%rbp)
   1cd53:	00 00 00 00 
   1cd57:	48 8d 85 3c ec ff ff 	lea    -0x13c4(%rbp),%rax
   1cd5e:	48 89 85 c8 ec ff ff 	mov    %rax,-0x1338(%rbp)
   1cd65:	c7 85 68 ec ff ff 00 	movl   $0x0,-0x1398(%rbp)
   1cd6c:	00 00 00 
   1cd6f:	48 8d 85 a0 ec ff ff 	lea    -0x1360(%rbp),%rax
   1cd76:	48 89 85 d0 ec ff ff 	mov    %rax,-0x1330(%rbp)
   1cd7d:	48 8d 85 f0 ed ff ff 	lea    -0x1210(%rbp),%rax
   1cd84:	48 83 c0 28          	add    $0x28,%rax
   1cd88:	48 89 85 d8 ec ff ff 	mov    %rax,-0x1328(%rbp)
   1cd8f:	48 8d 85 a8 ec ff ff 	lea    -0x1358(%rbp),%rax
   1cd96:	48 89 85 e0 ec ff ff 	mov    %rax,-0x1320(%rbp)
   1cd9d:	c7 85 6c ec ff ff fa 	movl   $0xfffffffa,-0x1394(%rbp)
   1cda4:	ff ff ff 
   1cda7:	c7 05 cf a3 00 00 00 	movl   $0x0,0xa3cf(%rip)        # 27180 <g_273>
   1cdae:	00 00 00 
   1cdb1:	eb 22                	jmp    1cdd5 <func_52+0x172c>
   1cdb3:	8b 05 c7 a3 00 00    	mov    0xa3c7(%rip),%eax        # 27180 <g_273>
   1cdb9:	89 c2                	mov    %eax,%edx
   1cdbb:	48 8d 05 06 a3 00 00 	lea    0xa306(%rip),%rax        # 270c8 <g_211>
   1cdc2:	c6 04 02 2e          	movb   $0x2e,(%rdx,%rax,1)
   1cdc6:	8b 05 b4 a3 00 00    	mov    0xa3b4(%rip),%eax        # 27180 <g_273>
   1cdcc:	83 c0 01             	add    $0x1,%eax
   1cdcf:	89 05 ab a3 00 00    	mov    %eax,0xa3ab(%rip)        # 27180 <g_273>
   1cdd5:	8b 05 a5 a3 00 00    	mov    0xa3a5(%rip),%eax        # 27180 <g_273>
   1cddb:	83 f8 06             	cmp    $0x6,%eax
   1cdde:	76 d3                	jbe    1cdb3 <func_52+0x170a>
   1cde0:	0f b6 05 1d a4 00 00 	movzbl 0xa41d(%rip),%eax        # 27204 <g_512>
   1cde7:	0f be c0             	movsbl %al,%eax
   1cdea:	83 c0 01             	add    $0x1,%eax
   1cded:	48 98                	cltq   
   1cdef:	48 8d 14 00          	lea    (%rax,%rax,1),%rdx
   1cdf3:	48 8d 05 16 a4 00 00 	lea    0xa416(%rip),%rax        # 27210 <g_545>
   1cdfa:	0f b7 14 02          	movzwl (%rdx,%rax,1),%edx
   1cdfe:	48 8b 05 bb e6 00 00 	mov    0xe6bb(%rip),%rax        # 2b4c0 <g_296>
   1ce05:	48 8b 00             	mov    (%rax),%rax
   1ce08:	48 0f bf d2          	movswq %dx,%rdx
   1ce0c:	48 89 10             	mov    %rdx,(%rax)
   1ce0f:	48 8b 00             	mov    (%rax),%rax
   1ce12:	48 85 c0             	test   %rax,%rax
   1ce15:	0f 85 f4 00 00 00    	jne    1cf0f <func_52+0x1866>
   1ce1b:	0f b6 05 e2 a3 00 00 	movzbl 0xa3e2(%rip),%eax        # 27204 <g_512>
   1ce22:	0f be c0             	movsbl %al,%eax
   1ce25:	83 c0 01             	add    $0x1,%eax
   1ce28:	48 98                	cltq   
   1ce2a:	48 8d 14 00          	lea    (%rax,%rax,1),%rdx
   1ce2e:	48 8d 05 db a3 00 00 	lea    0xa3db(%rip),%rax        # 27210 <g_545>
   1ce35:	0f b7 04 02          	movzwl (%rdx,%rax,1),%eax
   1ce39:	0f bf d0             	movswl %ax,%edx
   1ce3c:	48 8b 85 c8 ec ff ff 	mov    -0x1338(%rbp),%rax
   1ce43:	89 10                	mov    %edx,(%rax)
   1ce45:	0f b7 85 2c ec ff ff 	movzwl -0x13d4(%rbp),%eax
   1ce4c:	0f b6 d8             	movzbl %al,%ebx
   1ce4f:	8b 85 28 ec ff ff    	mov    -0x13d8(%rbp),%eax
   1ce55:	0f be d0             	movsbl %al,%edx
   1ce58:	48 8b 05 91 e6 00 00 	mov    0xe691(%rip),%rax        # 2b4f0 <g_449>
   1ce5f:	48 8b 00             	mov    (%rax),%rax
   1ce62:	0f b6 00             	movzbl (%rax),%eax
   1ce65:	84 c0                	test   %al,%al
   1ce67:	0f 95 c0             	setne  %al
   1ce6a:	0f b6 c0             	movzbl %al,%eax
   1ce6d:	89 d6                	mov    %edx,%esi
   1ce6f:	89 c7                	mov    %eax,%edi
   1ce71:	e8 f4 33 ff ff       	callq  1026a <safe_div_func_int8_t_s_s>
   1ce76:	b8 00 00 00 00       	mov    $0x0,%eax
   1ce7b:	89 c2                	mov    %eax,%edx
   1ce7d:	0f b6 05 43 a2 00 00 	movzbl 0xa243(%rip),%eax        # 270c7 <g_202>
   1ce84:	31 d0                	xor    %edx,%eax
   1ce86:	88 05 3b a2 00 00    	mov    %al,0xa23b(%rip)        # 270c7 <g_202>
   1ce8c:	83 bd 68 ec ff ff 01 	cmpl   $0x1,-0x1398(%rbp)
   1ce93:	0f 9f c0             	setg   %al
   1ce96:	0f b6 c0             	movzbl %al,%eax
   1ce99:	89 de                	mov    %ebx,%esi
   1ce9b:	89 c7                	mov    %eax,%edi
   1ce9d:	e8 b8 3c ff ff       	callq  10b5a <safe_add_func_uint8_t_u_u>
   1cea2:	0f b6 15 5b a3 00 00 	movzbl 0xa35b(%rip),%edx        # 27204 <g_512>
   1cea9:	0f be d2             	movsbl %dl,%edx
   1ceac:	83 c2 01             	add    $0x1,%edx
   1ceaf:	48 63 d2             	movslq %edx,%rdx
   1ceb2:	48 8d 0c 12          	lea    (%rdx,%rdx,1),%rcx
   1ceb6:	48 8d 15 53 a3 00 00 	lea    0xa353(%rip),%rdx        # 27210 <g_545>
   1cebd:	0f b7 14 11          	movzwl (%rcx,%rdx,1),%edx
   1cec1:	0f b6 c0             	movzbl %al,%eax
   1cec4:	0f b6 0d 39 a3 00 00 	movzbl 0xa339(%rip),%ecx        # 27204 <g_512>
   1cecb:	0f be c9             	movsbl %cl,%ecx
   1cece:	8d 71 01             	lea    0x1(%rcx),%esi
   1ced1:	89 d1                	mov    %edx,%ecx
   1ced3:	09 c1                	or     %eax,%ecx
   1ced5:	48 63 c6             	movslq %esi,%rax
   1ced8:	48 8d 14 00          	lea    (%rax,%rax,1),%rdx
   1cedc:	48 8d 05 2d a3 00 00 	lea    0xa32d(%rip),%rax        # 27210 <g_545>
   1cee3:	66 89 0c 02          	mov    %cx,(%rdx,%rax,1)
   1cee7:	8b 05 83 a2 00 00    	mov    0xa283(%rip),%eax        # 27170 <g_220+0x70>
   1ceed:	0f bf d0             	movswl %ax,%edx
   1cef0:	0f bf 85 2c ec ff ff 	movswl -0x13d4(%rbp),%eax
   1cef7:	89 d6                	mov    %edx,%esi
   1cef9:	89 c7                	mov    %eax,%edi
   1cefb:	e8 b3 34 ff ff       	callq  103b3 <safe_add_func_int16_t_s_s>
   1cf00:	48 8b 05 b1 e5 00 00 	mov    0xe5b1(%rip),%rax        # 2b4b8 <g_297>
   1cf07:	48 8b 00             	mov    (%rax),%rax
   1cf0a:	48 85 c0             	test   %rax,%rax
   1cf0d:	74 07                	je     1cf16 <func_52+0x186d>
   1cf0f:	b8 01 00 00 00       	mov    $0x1,%eax
   1cf14:	eb 05                	jmp    1cf1b <func_52+0x1872>
   1cf16:	b8 00 00 00 00       	mov    $0x0,%eax
   1cf1b:	34 f5                	xor    $0xf5,%al
   1cf1d:	66 89 05 34 a1 00 00 	mov    %ax,0xa134(%rip)        # 27058 <g_104>
   1cf24:	0f b7 05 2d a1 00 00 	movzwl 0xa12d(%rip),%eax        # 27058 <g_104>
   1cf2b:	98                   	cwtl   
   1cf2c:	48 8b 1d 9d e5 00 00 	mov    0xe59d(%rip),%rbx        # 2b4d0 <g_325>
   1cf33:	8b 95 28 ec ff ff    	mov    -0x13d8(%rbp),%edx
   1cf39:	48 8d 35 20 a1 00 00 	lea    0xa120(%rip),%rsi        # 27060 <g_113>
   1cf40:	89 c7                	mov    %eax,%edi
   1cf42:	e8 54 06 00 00       	callq  1d59b <func_57>
   1cf47:	48 89 03             	mov    %rax,(%rbx)
   1cf4a:	4c 0f bf ad 2c ec ff 	movswq -0x13d4(%rbp),%r13
   1cf51:	ff 
   1cf52:	4c 8b 35 2f a1 00 00 	mov    0xa12f(%rip),%r14        # 27088 <g_146+0x8>
   1cf59:	0f b6 05 a4 a2 00 00 	movzbl 0xa2a4(%rip),%eax        # 27204 <g_512>
   1cf60:	0f be c0             	movsbl %al,%eax
   1cf63:	83 c0 01             	add    $0x1,%eax
   1cf66:	48 98                	cltq   
   1cf68:	48 8d 14 00          	lea    (%rax,%rax,1),%rdx
   1cf6c:	48 8d 05 9d a2 00 00 	lea    0xa29d(%rip),%rax        # 27210 <g_545>
   1cf73:	0f b7 04 02          	movzwl (%rdx,%rax,1),%eax
   1cf77:	48 0f bf d8          	movswq %ax,%rbx
   1cf7b:	4c 8b 25 66 a1 00 00 	mov    0xa166(%rip),%r12        # 270e8 <g_219>
   1cf82:	0f b6 05 7b a2 00 00 	movzbl 0xa27b(%rip),%eax        # 27204 <g_512>
   1cf89:	0f be c0             	movsbl %al,%eax
   1cf8c:	83 c0 01             	add    $0x1,%eax
   1cf8f:	48 98                	cltq   
   1cf91:	48 8d 14 00          	lea    (%rax,%rax,1),%rdx
   1cf95:	48 8d 05 74 a2 00 00 	lea    0xa274(%rip),%rax        # 27210 <g_545>
   1cf9c:	0f b7 04 02          	movzwl (%rdx,%rax,1),%eax
   1cfa0:	0f b6 15 5d a2 00 00 	movzbl 0xa25d(%rip),%edx        # 27204 <g_512>
   1cfa7:	0f be d2             	movsbl %dl,%edx
   1cfaa:	8d 72 04             	lea    0x4(%rdx),%esi
   1cfad:	0f b6 15 50 a2 00 00 	movzbl 0xa250(%rip),%edx        # 27204 <g_512>
   1cfb4:	0f be d2             	movsbl %dl,%edx
   1cfb7:	0f bf f8             	movswl %ax,%edi
   1cfba:	4c 63 c2             	movslq %edx,%r8
   1cfbd:	48 63 ce             	movslq %esi,%rcx
   1cfc0:	48 89 c8             	mov    %rcx,%rax
   1cfc3:	48 01 c0             	add    %rax,%rax
   1cfc6:	48 01 c8             	add    %rcx,%rax
   1cfc9:	4c 01 c0             	add    %r8,%rax
   1cfcc:	48 8d 0c 85 00 00 00 	lea    0x0(,%rax,4),%rcx
   1cfd3:	00 
   1cfd4:	48 8d 05 25 a1 00 00 	lea    0xa125(%rip),%rax        # 27100 <g_220>
   1cfdb:	89 3c 01             	mov    %edi,(%rcx,%rax,1)
   1cfde:	48 63 ca             	movslq %edx,%rcx
   1cfe1:	48 63 d6             	movslq %esi,%rdx
   1cfe4:	48 89 d0             	mov    %rdx,%rax
   1cfe7:	48 01 c0             	add    %rax,%rax
   1cfea:	48 01 d0             	add    %rdx,%rax
   1cfed:	48 01 c8             	add    %rcx,%rax
   1cff0:	48 8d 14 85 00 00 00 	lea    0x0(,%rax,4),%rdx
   1cff7:	00 
   1cff8:	48 8d 05 01 a1 00 00 	lea    0xa101(%rip),%rax        # 27100 <g_220>
   1cfff:	44 8b 3c 02          	mov    (%rdx,%rax,1),%r15d
   1d003:	48 8b 85 90 ec ff ff 	mov    -0x1370(%rbp),%rax
   1d00a:	0f b7 10             	movzwl (%rax),%edx
   1d00d:	83 c2 01             	add    $0x1,%edx
   1d010:	66 89 10             	mov    %dx,(%rax)
   1d013:	0f b6 05 ea a1 00 00 	movzbl 0xa1ea(%rip),%eax        # 27204 <g_512>
   1d01a:	0f be c0             	movsbl %al,%eax
   1d01d:	83 c0 01             	add    $0x1,%eax
   1d020:	48 98                	cltq   
   1d022:	48 8d 14 00          	lea    (%rax,%rax,1),%rdx
   1d026:	48 8d 05 e3 a1 00 00 	lea    0xa1e3(%rip),%rax        # 27210 <g_545>
   1d02d:	0f b7 04 02          	movzwl (%rdx,%rax,1),%eax
   1d031:	48 0f bf c0          	movswq %ax,%rax
   1d035:	be 04 00 00 00       	mov    $0x4,%esi
   1d03a:	48 89 c7             	mov    %rax,%rdi
   1d03d:	e8 66 38 ff ff       	callq  108a8 <safe_sub_func_int64_t_s_s>
   1d042:	8b 95 28 ec ff ff    	mov    -0x13d8(%rbp),%edx
   1d048:	48 63 d2             	movslq %edx,%rdx
   1d04b:	48 39 d0             	cmp    %rdx,%rax
   1d04e:	0f 9e c0             	setle  %al
   1d051:	0f b6 c0             	movzbl %al,%eax
   1d054:	be ba c8 52 78       	mov    $0x7852c8ba,%esi
   1d059:	89 c7                	mov    %eax,%edi
   1d05b:	e8 58 3e ff ff       	callq  10eb8 <safe_add_func_uint32_t_u_u>
   1d060:	8b 85 28 ec ff ff    	mov    -0x13d8(%rbp),%eax
   1d066:	be f8 ff ff ff       	mov    $0xfffffff8,%esi
   1d06b:	89 c7                	mov    %eax,%edi
   1d06d:	e8 5a 36 ff ff       	callq  106cc <safe_mod_func_int32_t_s_s>
   1d072:	41 39 c7             	cmp    %eax,%r15d
   1d075:	0f 93 c0             	setae  %al
   1d078:	0f b6 c0             	movzbl %al,%eax
   1d07b:	be bd 34 00 00       	mov    $0x34bd,%esi
   1d080:	89 c7                	mov    %eax,%edi
   1d082:	e8 8f 33 ff ff       	callq  10416 <safe_mod_func_int16_t_s_s>
   1d087:	48 0f bf d0          	movswq %ax,%rdx
   1d08b:	48 8b 05 36 0a 01 00 	mov    0x10a36(%rip),%rax        # 2dac8 <g_269+0x8>
   1d092:	48 89 d6             	mov    %rdx,%rsi
   1d095:	48 89 c7             	mov    %rax,%rdi
   1d098:	e8 e3 3f ff ff       	callq  11080 <safe_mod_func_uint64_t_u_u>
   1d09d:	8b 95 4c ec ff ff    	mov    -0x13b4(%rbp),%edx
   1d0a3:	48 63 d2             	movslq %edx,%rdx
   1d0a6:	48 39 d0             	cmp    %rdx,%rax
   1d0a9:	0f 93 c0             	setae  %al
   1d0ac:	0f b6 c0             	movzbl %al,%eax
   1d0af:	89 c6                	mov    %eax,%esi
   1d0b1:	bf 00 00 00 00       	mov    $0x0,%edi
   1d0b6:	e8 3a 33 ff ff       	callq  103f5 <safe_mul_func_int16_t_s_s>
   1d0bb:	48 8b 95 a0 ec ff ff 	mov    -0x1360(%rbp),%rdx
   1d0c2:	48 8b 85 d0 ec ff ff 	mov    -0x1330(%rbp),%rax
   1d0c9:	48 89 10             	mov    %rdx,(%rax)
   1d0cc:	48 8b 85 d0 ec ff ff 	mov    -0x1330(%rbp),%rax
   1d0d3:	48 8b 00             	mov    (%rax),%rax
   1d0d6:	48 8d 15 e3 e3 00 00 	lea    0xe3e3(%rip),%rdx        # 2b4c0 <g_296>
   1d0dd:	48 39 d0             	cmp    %rdx,%rax
   1d0e0:	0f 95 c0             	setne  %al
   1d0e3:	0f b6 c0             	movzbl %al,%eax
   1d0e6:	4c 89 e6             	mov    %r12,%rsi
   1d0e9:	48 89 c7             	mov    %rax,%rdi
   1d0ec:	e8 06 39 ff ff       	callq  109f7 <safe_div_func_int64_t_s_s>
   1d0f1:	48 89 de             	mov    %rbx,%rsi
   1d0f4:	48 89 c7             	mov    %rax,%rdi
   1d0f7:	e8 84 3f ff ff       	callq  11080 <safe_mod_func_uint64_t_u_u>
   1d0fc:	4c 09 f0             	or     %r14,%rax
   1d0ff:	4c 21 e8             	and    %r13,%rax
   1d102:	48 85 c0             	test   %rax,%rax
   1d105:	0f 84 ff 02 00 00    	je     1d40a <func_52+0x1d61>
   1d10b:	48 8d 85 00 f0 ff ff 	lea    -0x1000(%rbp),%rax
   1d112:	48 05 28 02 00 00    	add    $0x228,%rax
   1d118:	48 89 85 40 ee ff ff 	mov    %rax,-0x11c0(%rbp)
   1d11f:	48 8d 85 00 f0 ff ff 	lea    -0x1000(%rbp),%rax
   1d126:	48 83 c0 78          	add    $0x78,%rax
   1d12a:	48 89 85 48 ee ff ff 	mov    %rax,-0x11b8(%rbp)
   1d131:	48 8d 85 00 f0 ff ff 	lea    -0x1000(%rbp),%rax
   1d138:	48 83 c0 78          	add    $0x78,%rax
   1d13c:	48 89 85 50 ee ff ff 	mov    %rax,-0x11b0(%rbp)
   1d143:	48 8d 85 00 f0 ff ff 	lea    -0x1000(%rbp),%rax
   1d14a:	48 05 28 02 00 00    	add    $0x228,%rax
   1d150:	48 89 85 58 ee ff ff 	mov    %rax,-0x11a8(%rbp)
   1d157:	48 8d 85 00 f0 ff ff 	lea    -0x1000(%rbp),%rax
   1d15e:	48 83 c0 78          	add    $0x78,%rax
   1d162:	48 89 85 60 ee ff ff 	mov    %rax,-0x11a0(%rbp)
   1d169:	48 8d 85 00 f0 ff ff 	lea    -0x1000(%rbp),%rax
   1d170:	48 83 c0 78          	add    $0x78,%rax
   1d174:	48 89 85 68 ee ff ff 	mov    %rax,-0x1198(%rbp)
   1d17b:	48 8d 85 00 f0 ff ff 	lea    -0x1000(%rbp),%rax
   1d182:	48 05 28 02 00 00    	add    $0x228,%rax
   1d188:	48 89 85 70 ee ff ff 	mov    %rax,-0x1190(%rbp)
   1d18f:	48 8d 85 00 f0 ff ff 	lea    -0x1000(%rbp),%rax
   1d196:	48 83 c0 78          	add    $0x78,%rax
   1d19a:	48 89 85 78 ee ff ff 	mov    %rax,-0x1188(%rbp)
   1d1a1:	c7 85 70 ec ff ff 7f 	movl   $0x71c8407f,-0x1390(%rbp)
   1d1a8:	40 c8 71 
   1d1ab:	8b 85 70 ec ff ff    	mov    -0x1390(%rbp),%eax
   1d1b1:	0f b7 d8             	movzwl %ax,%ebx
   1d1b4:	48 8b 05 3d e3 00 00 	mov    0xe33d(%rip),%rax        # 2b4f8 <g_596>
   1d1bb:	48 89 85 10 f0 ff ff 	mov    %rax,-0xff0(%rbp)
   1d1c2:	48 8b 85 10 f0 ff ff 	mov    -0xff0(%rbp),%rax
   1d1c9:	48 8d 15 48 09 01 00 	lea    0x10948(%rip),%rdx        # 2db18 <g_597>
   1d1d0:	48 39 d0             	cmp    %rdx,%rax
   1d1d3:	0f 95 c0             	setne  %al
   1d1d6:	0f b6 c0             	movzbl %al,%eax
   1d1d9:	be 09 00 00 00       	mov    $0x9,%esi
   1d1de:	89 c7                	mov    %eax,%edi
   1d1e0:	e8 7e 33 ff ff       	callq  10563 <safe_rshift_func_int16_t_s_u>
   1d1e5:	66 85 c0             	test   %ax,%ax
   1d1e8:	74 31                	je     1d21b <func_52+0x1b72>
   1d1ea:	66 83 bd 2c ec ff ff 	cmpw   $0x0,-0x13d4(%rbp)
   1d1f1:	00 
   1d1f2:	0f 9e c0             	setle  %al
   1d1f5:	0f b6 c0             	movzbl %al,%eax
   1d1f8:	89 c7                	mov    %eax,%edi
   1d1fa:	e8 9e 31 ff ff       	callq  1039d <safe_unary_minus_func_int16_t_s>
   1d1ff:	48 0f bf d0          	movswq %ax,%rdx
   1d203:	48 8b 05 ae e2 00 00 	mov    0xe2ae(%rip),%rax        # 2b4b8 <g_297>
   1d20a:	48 8b 00             	mov    (%rax),%rax
   1d20d:	48 89 d6             	mov    %rdx,%rsi
   1d210:	48 89 c7             	mov    %rax,%rdi
   1d213:	e8 df 37 ff ff       	callq  109f7 <safe_div_func_int64_t_s_s>
   1d218:	48 85 c0             	test   %rax,%rax
   1d21b:	0f b6 05 e2 9f 00 00 	movzbl 0x9fe2(%rip),%eax        # 27204 <g_512>
   1d222:	0f be c0             	movsbl %al,%eax
   1d225:	83 c0 01             	add    $0x1,%eax
   1d228:	48 98                	cltq   
   1d22a:	48 8d 14 00          	lea    (%rax,%rax,1),%rdx
   1d22e:	48 8d 05 db 9f 00 00 	lea    0x9fdb(%rip),%rax        # 27210 <g_545>
   1d235:	0f b7 04 02          	movzwl (%rdx,%rax,1),%eax
   1d239:	0f b7 d0             	movzwl %ax,%edx
   1d23c:	0f b7 85 2c ec ff ff 	movzwl -0x13d4(%rbp),%eax
   1d243:	0f b7 c0             	movzwl %ax,%eax
   1d246:	89 d6                	mov    %edx,%esi
   1d248:	89 c7                	mov    %eax,%edi
   1d24a:	e8 d0 3a ff ff       	callq  10d1f <safe_sub_func_uint16_t_u_u>
   1d24f:	0f b7 c0             	movzwl %ax,%eax
   1d252:	89 de                	mov    %ebx,%esi
   1d254:	89 c7                	mov    %eax,%edi
   1d256:	e8 33 3b ff ff       	callq  10d8e <safe_div_func_uint16_t_u_u>
   1d25b:	48 8b 05 56 9e 00 00 	mov    0x9e56(%rip),%rax        # 270b8 <g_146+0x38>
   1d262:	48 85 c0             	test   %rax,%rax
   1d265:	8b 85 28 ec ff ff    	mov    -0x13d8(%rbp),%eax
   1d26b:	48 63 d0             	movslq %eax,%rdx
   1d26e:	48 8b 0d 9b 08 01 00 	mov    0x1089b(%rip),%rcx        # 2db10 <g_587>
   1d275:	48 8b 85 90 ec ff ff 	mov    -0x1370(%rbp),%rax
   1d27c:	48 39 c1             	cmp    %rax,%rcx
   1d27f:	0f 95 c0             	setne  %al
   1d282:	0f b6 c0             	movzbl %al,%eax
   1d285:	48 89 d6             	mov    %rdx,%rsi
   1d288:	48 89 c7             	mov    %rax,%rdi
   1d28b:	e8 b1 35 ff ff       	callq  10841 <safe_add_func_int64_t_s_s>
   1d290:	89 c2                	mov    %eax,%edx
   1d292:	8b 05 b8 9d 00 00    	mov    0x9db8(%rip),%eax        # 27050 <g_87>
   1d298:	31 d0                	xor    %edx,%eax
   1d29a:	89 05 b0 9d 00 00    	mov    %eax,0x9db0(%rip)        # 27050 <g_87>
   1d2a0:	48 8b 05 49 e2 00 00 	mov    0xe249(%rip),%rax        # 2b4f0 <g_449>
   1d2a7:	48 8b 00             	mov    (%rax),%rax
   1d2aa:	0f b6 00             	movzbl (%rax),%eax
   1d2ad:	0f b6 d8             	movzbl %al,%ebx
   1d2b0:	8b 05 0a 9e 00 00    	mov    0x9e0a(%rip),%eax        # 270c0 <g_149>
   1d2b6:	89 c2                	mov    %eax,%edx
   1d2b8:	48 8d 05 09 9e 00 00 	lea    0x9e09(%rip),%rax        # 270c8 <g_211>
   1d2bf:	0f b6 04 02          	movzbl (%rdx,%rax,1),%eax
   1d2c3:	0f b6 d0             	movzbl %al,%edx
   1d2c6:	0f b6 05 37 9f 00 00 	movzbl 0x9f37(%rip),%eax        # 27204 <g_512>
   1d2cd:	0f be c0             	movsbl %al,%eax
   1d2d0:	83 c0 01             	add    $0x1,%eax
   1d2d3:	48 98                	cltq   
   1d2d5:	48 8d 0c 00          	lea    (%rax,%rax,1),%rcx
   1d2d9:	48 8d 05 30 9f 00 00 	lea    0x9f30(%rip),%rax        # 27210 <g_545>
   1d2e0:	0f b7 04 01          	movzwl (%rcx,%rax,1),%eax
   1d2e4:	98                   	cwtl   
   1d2e5:	39 c2                	cmp    %eax,%edx
   1d2e7:	0f b6 05 16 9f 00 00 	movzbl 0x9f16(%rip),%eax        # 27204 <g_512>
   1d2ee:	44 0f be e0          	movsbl %al,%r12d
   1d2f2:	48 8b 95 10 ee ff ff 	mov    -0x11f0(%rbp),%rdx
   1d2f9:	48 8b 85 d8 ec ff ff 	mov    -0x1328(%rbp),%rax
   1d300:	48 89 10             	mov    %rdx,(%rax)
   1d303:	48 8b 85 d8 ec ff ff 	mov    -0x1328(%rbp),%rax
   1d30a:	48 8b 08             	mov    (%rax),%rcx
   1d30d:	48 8b 95 a8 ec ff ff 	mov    -0x1358(%rbp),%rdx
   1d314:	48 8b 85 e0 ec ff ff 	mov    -0x1320(%rbp),%rax
   1d31b:	48 89 10             	mov    %rdx,(%rax)
   1d31e:	48 8b 85 e0 ec ff ff 	mov    -0x1320(%rbp),%rax
   1d325:	48 8b 00             	mov    (%rax),%rax
   1d328:	48 39 c1             	cmp    %rax,%rcx
   1d32b:	0f 95 c0             	setne  %al
   1d32e:	0f b6 c0             	movzbl %al,%eax
   1d331:	89 c7                	mov    %eax,%edi
   1d333:	e8 b1 39 ff ff       	callq  10ce9 <safe_unary_minus_func_uint16_t_u>
   1d338:	44 0f b7 e8          	movzwl %ax,%r13d
   1d33c:	81 bd 4c ec ff ff ff 	cmpl   $0xff,-0x13b4(%rbp)
   1d343:	00 00 00 
   1d346:	0f 95 c0             	setne  %al
   1d349:	0f b6 c0             	movzbl %al,%eax
   1d34c:	09 85 68 ec ff ff    	or     %eax,-0x1398(%rbp)
   1d352:	8b 05 f0 9d 00 00    	mov    0x9df0(%rip),%eax        # 27148 <g_220+0x48>
   1d358:	85 c0                	test   %eax,%eax
   1d35a:	0f 94 c0             	sete   %al
   1d35d:	0f b6 c0             	movzbl %al,%eax
   1d360:	be 03 00 00 00       	mov    $0x3,%esi
   1d365:	89 c7                	mov    %eax,%edi
   1d367:	e8 0e 3b ff ff       	callq  10e7a <safe_rshift_func_uint16_t_u_u>
   1d36c:	8b 05 0e 9e 00 00    	mov    0x9e0e(%rip),%eax        # 27180 <g_273>
   1d372:	be 00 00 00 00       	mov    $0x0,%esi
   1d377:	89 c7                	mov    %eax,%edi
   1d379:	e8 3a 3b ff ff       	callq  10eb8 <safe_add_func_uint32_t_u_u>
   1d37e:	41 39 c5             	cmp    %eax,%r13d
   1d381:	0f 95 c0             	setne  %al
   1d384:	0f b6 c0             	movzbl %al,%eax
   1d387:	be 35 00 00 00       	mov    $0x35,%esi
   1d38c:	89 c7                	mov    %eax,%edi
   1d38e:	e8 e5 37 ff ff       	callq  10b78 <safe_sub_func_uint8_t_u_u>
   1d393:	3c 01                	cmp    $0x1,%al
   1d395:	0f 95 c0             	setne  %al
   1d398:	89 c2                	mov    %eax,%edx
   1d39a:	48 8b 05 1f e1 00 00 	mov    0xe11f(%rip),%rax        # 2b4c0 <g_296>
   1d3a1:	48 8b 00             	mov    (%rax),%rax
   1d3a4:	48 8b 00             	mov    (%rax),%rax
   1d3a7:	09 d0                	or     %edx,%eax
   1d3a9:	0f be c0             	movsbl %al,%eax
   1d3ac:	44 89 e6             	mov    %r12d,%esi
   1d3af:	89 c7                	mov    %eax,%edi
   1d3b1:	e8 eb 2e ff ff       	callq  102a1 <safe_lshift_func_int8_t_s_s>
   1d3b6:	89 de                	mov    %ebx,%esi
   1d3b8:	bf 01 00 00 00       	mov    $0x1,%edi
   1d3bd:	e8 98 37 ff ff       	callq  10b5a <safe_add_func_uint8_t_u_u>
   1d3c2:	0f b6 d0             	movzbl %al,%edx
   1d3c5:	0f bf 85 2c ec ff ff 	movswl -0x13d4(%rbp),%eax
   1d3cc:	89 d6                	mov    %edx,%esi
   1d3ce:	89 c7                	mov    %eax,%edi
   1d3d0:	e8 de 2f ff ff       	callq  103b3 <safe_add_func_int16_t_s_s>
   1d3d5:	66 35 f2 70          	xor    $0x70f2,%ax
   1d3d9:	0f bf d0             	movswl %ax,%edx
   1d3dc:	48 8b 8d b8 ef ff ff 	mov    -0x1048(%rbp),%rcx
   1d3e3:	48 8b 85 40 f6 ff ff 	mov    -0x9c0(%rbp),%rax
   1d3ea:	48 39 c1             	cmp    %rax,%rcx
   1d3ed:	0f 95 c0             	setne  %al
   1d3f0:	0f b6 c0             	movzbl %al,%eax
   1d3f3:	89 d6                	mov    %edx,%esi
   1d3f5:	89 c7                	mov    %eax,%edi
   1d3f7:	e8 d0 32 ff ff       	callq  106cc <safe_mod_func_int32_t_s_s>
   1d3fc:	c1 e8 1f             	shr    $0x1f,%eax
   1d3ff:	0f b6 c0             	movzbl %al,%eax
   1d402:	89 85 6c ec ff ff    	mov    %eax,-0x1394(%rbp)
   1d408:	eb 1d                	jmp    1d427 <func_52+0x1d7e>
   1d40a:	48 8b 05 b7 e0 00 00 	mov    0xe0b7(%rip),%rax        # 2b4c8 <g_326>
   1d411:	8b 00                	mov    (%rax),%eax
   1d413:	21 85 68 ec ff ff    	and    %eax,-0x1398(%rbp)
   1d419:	48 8b 05 c0 e0 00 00 	mov    0xe0c0(%rip),%rax        # 2b4e0 <g_399>
   1d420:	8b 00                	mov    (%rax),%eax
   1d422:	e9 4e 01 00 00       	jmpq   1d575 <func_52+0x1ecc>
   1d427:	0f b6 05 d6 9d 00 00 	movzbl 0x9dd6(%rip),%eax        # 27204 <g_512>
   1d42e:	83 e8 01             	sub    $0x1,%eax
   1d431:	88 05 cd 9d 00 00    	mov    %al,0x9dcd(%rip)        # 27204 <g_512>
   1d437:	0f b6 05 c6 9d 00 00 	movzbl 0x9dc6(%rip),%eax        # 27204 <g_512>
   1d43e:	84 c0                	test   %al,%al
   1d440:	0f 89 9e f4 ff ff    	jns    1c8e4 <func_52+0x123b>
   1d446:	66 83 bd 2c ec ff ff 	cmpw   $0x0,-0x13d4(%rbp)
   1d44d:	00 
   1d44e:	0f 85 f6 00 00 00    	jne    1d54a <func_52+0x1ea1>
   1d454:	8b 85 40 ec ff ff    	mov    -0x13c0(%rbp),%eax
   1d45a:	85 c0                	test   %eax,%eax
   1d45c:	0f 85 09 01 00 00    	jne    1d56b <func_52+0x1ec2>
   1d462:	c7 05 6c 9c 00 00 02 	movl   $0x2,0x9c6c(%rip)        # 270d8 <g_213>
   1d469:	00 00 00 
   1d46c:	e9 c8 00 00 00       	jmpq   1d539 <func_52+0x1e90>
   1d471:	c7 85 80 ec ff ff 03 	movl   $0x3,-0x1380(%rbp)
   1d478:	00 00 00 
   1d47b:	48 8b 05 4e e0 00 00 	mov    0xe04e(%rip),%rax        # 2b4d0 <g_325>
   1d482:	48 8b 00             	mov    (%rax),%rax
   1d485:	8b 00                	mov    (%rax),%eax
   1d487:	89 05 c3 9b 00 00    	mov    %eax,0x9bc3(%rip)        # 27050 <g_87>
   1d48d:	48 c7 05 70 06 01 00 	movq   $0x0,0x10670(%rip)        # 2db08 <g_546>
   1d494:	00 00 00 00 
   1d498:	90                   	nop
   1d499:	48 8b 05 68 06 01 00 	mov    0x10668(%rip),%rax        # 2db08 <g_546>
   1d4a0:	48 83 f8 06          	cmp    $0x6,%rax
   1d4a4:	77 0c                	ja     1d4b2 <func_52+0x1e09>
   1d4a6:	0f bf 85 2c ec ff ff 	movswl -0x13d4(%rbp),%eax
   1d4ad:	e9 c3 00 00 00       	jmpq   1d575 <func_52+0x1ecc>
   1d4b2:	c6 05 0d 9c 00 00 06 	movb   $0x6,0x9c0d(%rip)        # 270c6 <g_192>
   1d4b9:	90                   	nop
   1d4ba:	0f b6 05 05 9c 00 00 	movzbl 0x9c05(%rip),%eax        # 270c6 <g_192>
   1d4c1:	84 c0                	test   %al,%al
   1d4c3:	78 65                	js     1d52a <func_52+0x1e81>
   1d4c5:	c7 85 84 ec ff ff 00 	movl   $0x0,-0x137c(%rbp)
   1d4cc:	00 00 00 
   1d4cf:	0f b6 05 f0 9b 00 00 	movzbl 0x9bf0(%rip),%eax        # 270c6 <g_192>
   1d4d6:	0f be c0             	movsbl %al,%eax
   1d4d9:	83 c0 01             	add    $0x1,%eax
   1d4dc:	48 98                	cltq   
   1d4de:	48 8d 14 c5 00 00 00 	lea    0x0(,%rax,8),%rdx
   1d4e5:	00 
   1d4e6:	48 8d 05 93 9b 00 00 	lea    0x9b93(%rip),%rax        # 27080 <g_146>
   1d4ed:	48 8b 14 02          	mov    (%rdx,%rax,1),%rdx
   1d4f1:	8b 8d 84 ec ff ff    	mov    -0x137c(%rbp),%ecx
   1d4f7:	48 8b 05 c2 df 00 00 	mov    0xdfc2(%rip),%rax        # 2b4c0 <g_296>
   1d4fe:	48 8b 00             	mov    (%rax),%rax
   1d501:	48 8b 00             	mov    (%rax),%rax
   1d504:	48 09 c8             	or     %rcx,%rax
   1d507:	48 21 d0             	and    %rdx,%rax
   1d50a:	89 c2                	mov    %eax,%edx
   1d50c:	8b 05 3e 9b 00 00    	mov    0x9b3e(%rip),%eax        # 27050 <g_87>
   1d512:	09 d0                	or     %edx,%eax
   1d514:	89 05 36 9b 00 00    	mov    %eax,0x9b36(%rip)        # 27050 <g_87>
   1d51a:	83 85 80 ec ff ff 01 	addl   $0x1,-0x1380(%rbp)
   1d521:	0f bf 85 2c ec ff ff 	movswl -0x13d4(%rbp),%eax
   1d528:	eb 4b                	jmp    1d575 <func_52+0x1ecc>
   1d52a:	8b 05 a8 9b 00 00    	mov    0x9ba8(%rip),%eax        # 270d8 <g_213>
   1d530:	83 c0 01             	add    $0x1,%eax
   1d533:	89 05 9f 9b 00 00    	mov    %eax,0x9b9f(%rip)        # 270d8 <g_213>
   1d539:	8b 05 99 9b 00 00    	mov    0x9b99(%rip),%eax        # 270d8 <g_213>
   1d53f:	83 f8 06             	cmp    $0x6,%eax
   1d542:	0f 86 29 ff ff ff    	jbe    1d471 <func_52+0x1dc8>
   1d548:	eb 01                	jmp    1d54b <func_52+0x1ea2>
   1d54a:	90                   	nop
   1d54b:	8b 05 6f 9b 00 00    	mov    0x9b6f(%rip),%eax        # 270c0 <g_149>
   1d551:	83 c0 01             	add    $0x1,%eax
   1d554:	89 05 66 9b 00 00    	mov    %eax,0x9b66(%rip)        # 270c0 <g_149>
   1d55a:	8b 05 60 9b 00 00    	mov    0x9b60(%rip),%eax        # 270c0 <g_149>
   1d560:	83 f8 06             	cmp    $0x6,%eax
   1d563:	0f 86 24 e3 ff ff    	jbe    1b88d <func_52+0x1e4>
   1d569:	eb 01                	jmp    1d56c <func_52+0x1ec3>
   1d56b:	90                   	nop
   1d56c:	48 8b 05 65 df 00 00 	mov    0xdf65(%rip),%rax        # 2b4d8 <g_397>
   1d573:	8b 00                	mov    (%rax),%eax
   1d575:	48 8b 5d c8          	mov    -0x38(%rbp),%rbx
   1d579:	64 48 33 1c 25 28 00 	xor    %fs:0x28,%rbx
   1d580:	00 00 
   1d582:	74 05                	je     1d589 <func_52+0x1ee0>
   1d584:	e8 e7 2a ff ff       	callq  10070 <__stack_chk_fail@plt>
   1d589:	48 81 c4 c8 13 00 00 	add    $0x13c8,%rsp
   1d590:	5b                   	pop    %rbx
   1d591:	41 5c                	pop    %r12
   1d593:	41 5d                	pop    %r13
   1d595:	41 5e                	pop    %r14
   1d597:	41 5f                	pop    %r15
   1d599:	5d                   	pop    %rbp
   1d59a:	c3                   	retq   

000000000001d59b <func_57>:
   1d59b:	f3 0f 1e fa          	endbr64 
   1d59f:	55                   	push   %rbp
   1d5a0:	48 89 e5             	mov    %rsp,%rbp
   1d5a3:	89 f8                	mov    %edi,%eax
   1d5a5:	48 89 75 f0          	mov    %rsi,-0x10(%rbp)
   1d5a9:	89 55 f8             	mov    %edx,-0x8(%rbp)
   1d5ac:	66 89 45 fc          	mov    %ax,-0x4(%rbp)
   1d5b0:	48 8b 05 19 df 00 00 	mov    0xdf19(%rip),%rax        # 2b4d0 <g_325>
   1d5b7:	48 8b 00             	mov    (%rax),%rax
   1d5ba:	5d                   	pop    %rbp
   1d5bb:	c3                   	retq   

000000000001d5bc <func_61>:
   1d5bc:	f3 0f 1e fa          	endbr64 
   1d5c0:	55                   	push   %rbp
   1d5c1:	48 89 e5             	mov    %rsp,%rbp
   1d5c4:	48 89 7d e8          	mov    %rdi,-0x18(%rbp)
   1d5c8:	48 89 75 e0          	mov    %rsi,-0x20(%rbp)
   1d5cc:	48 89 55 d8          	mov    %rdx,-0x28(%rbp)
   1d5d0:	48 89 4d d0          	mov    %rcx,-0x30(%rbp)
   1d5d4:	44 89 45 cc          	mov    %r8d,-0x34(%rbp)
   1d5d8:	c7 45 fc 9c f0 25 43 	movl   $0x4325f09c,-0x4(%rbp)
   1d5df:	8b 45 fc             	mov    -0x4(%rbp),%eax
   1d5e2:	5d                   	pop    %rbp
   1d5e3:	c3                   	retq   

000000000001d5e4 <func_71>:
   1d5e4:	f3 0f 1e fa          	endbr64 
   1d5e8:	55                   	push   %rbp
   1d5e9:	48 89 e5             	mov    %rsp,%rbp
   1d5ec:	41 57                	push   %r15
   1d5ee:	41 56                	push   %r14
   1d5f0:	41 55                	push   %r13
   1d5f2:	41 54                	push   %r12
   1d5f4:	53                   	push   %rbx
   1d5f5:	48 81 ec 38 0d 00 00 	sub    $0xd38,%rsp
   1d5fc:	89 bd bc f2 ff ff    	mov    %edi,-0xd44(%rbp)
   1d602:	89 f0                	mov    %esi,%eax
   1d604:	48 89 95 b0 f2 ff ff 	mov    %rdx,-0xd50(%rbp)
   1d60b:	48 89 8d a8 f2 ff ff 	mov    %rcx,-0xd58(%rbp)
   1d612:	66 89 85 b8 f2 ff ff 	mov    %ax,-0xd48(%rbp)
   1d619:	64 48 8b 04 25 28 00 	mov    %fs:0x28,%rax
   1d620:	00 00 
   1d622:	48 89 45 c8          	mov    %rax,-0x38(%rbp)
   1d626:	31 c0                	xor    %eax,%eax
   1d628:	48 8d 05 f9 99 00 00 	lea    0x99f9(%rip),%rax        # 27028 <g_4>
   1d62f:	48 89 85 48 f3 ff ff 	mov    %rax,-0xcb8(%rbp)
   1d636:	48 8d 05 eb 99 00 00 	lea    0x99eb(%rip),%rax        # 27028 <g_4>
   1d63d:	48 89 85 50 f3 ff ff 	mov    %rax,-0xcb0(%rbp)
   1d644:	c7 85 80 f5 ff ff 06 	movl   $0xa476d206,-0xa80(%rbp)
   1d64b:	d2 76 a4 
   1d64e:	c7 85 84 f5 ff ff 06 	movl   $0xa476d206,-0xa7c(%rbp)
   1d655:	d2 76 a4 
   1d658:	c7 85 88 f5 ff ff 14 	movl   $0x46fd8114,-0xa78(%rbp)
   1d65f:	81 fd 46 
   1d662:	c7 85 8c f5 ff ff 2e 	movl   $0x234b592e,-0xa74(%rbp)
   1d669:	59 4b 23 
   1d66c:	c7 85 90 f5 ff ff 14 	movl   $0x46fd8114,-0xa70(%rbp)
   1d673:	81 fd 46 
   1d676:	c7 85 94 f5 ff ff 06 	movl   $0xa476d206,-0xa6c(%rbp)
   1d67d:	d2 76 a4 
   1d680:	c7 85 98 f5 ff ff 06 	movl   $0xa476d206,-0xa68(%rbp)
   1d687:	d2 76 a4 
   1d68a:	c7 85 9c f5 ff ff 14 	movl   $0x46fd8114,-0xa64(%rbp)
   1d691:	81 fd 46 
   1d694:	c7 85 a0 f5 ff ff 2e 	movl   $0x234b592e,-0xa60(%rbp)
   1d69b:	59 4b 23 
   1d69e:	c7 85 a4 f5 ff ff 14 	movl   $0x46fd8114,-0xa5c(%rbp)
   1d6a5:	81 fd 46 
   1d6a8:	c7 85 a8 f5 ff ff 06 	movl   $0xa476d206,-0xa58(%rbp)
   1d6af:	d2 76 a4 
   1d6b2:	c7 85 ac f5 ff ff 06 	movl   $0xa476d206,-0xa54(%rbp)
   1d6b9:	d2 76 a4 
   1d6bc:	c7 85 b0 f5 ff ff 14 	movl   $0x46fd8114,-0xa50(%rbp)
   1d6c3:	81 fd 46 
   1d6c6:	c7 85 b4 f5 ff ff 2e 	movl   $0x234b592e,-0xa4c(%rbp)
   1d6cd:	59 4b 23 
   1d6d0:	c7 85 b8 f5 ff ff 14 	movl   $0x46fd8114,-0xa48(%rbp)
   1d6d7:	81 fd 46 
   1d6da:	c7 85 bc f5 ff ff 06 	movl   $0xa476d206,-0xa44(%rbp)
   1d6e1:	d2 76 a4 
   1d6e4:	c7 85 c0 f5 ff ff 06 	movl   $0xa476d206,-0xa40(%rbp)
   1d6eb:	d2 76 a4 
   1d6ee:	c7 85 c4 f5 ff ff 14 	movl   $0x46fd8114,-0xa3c(%rbp)
   1d6f5:	81 fd 46 
   1d6f8:	c7 85 c8 f5 ff ff 2e 	movl   $0x234b592e,-0xa38(%rbp)
   1d6ff:	59 4b 23 
   1d702:	c7 85 cc f5 ff ff 14 	movl   $0x46fd8114,-0xa34(%rbp)
   1d709:	81 fd 46 
   1d70c:	c7 85 d0 f5 ff ff 06 	movl   $0xa476d206,-0xa30(%rbp)
   1d713:	d2 76 a4 
   1d716:	c7 85 d4 f5 ff ff 06 	movl   $0xa476d206,-0xa2c(%rbp)
   1d71d:	d2 76 a4 
   1d720:	c7 85 d8 f5 ff ff 14 	movl   $0x46fd8114,-0xa28(%rbp)
   1d727:	81 fd 46 
   1d72a:	c7 85 dc f5 ff ff 2e 	movl   $0x234b592e,-0xa24(%rbp)
   1d731:	59 4b 23 
   1d734:	c7 85 e0 f5 ff ff 14 	movl   $0x46fd8114,-0xa20(%rbp)
   1d73b:	81 fd 46 
   1d73e:	66 c7 85 c6 f2 ff ff 	movw   $0xf6ef,-0xd3a(%rbp)
   1d745:	ef f6 
   1d747:	c7 85 d0 f2 ff ff 67 	movl   $0xe061e067,-0xd30(%rbp)
   1d74e:	e0 61 e0 
   1d751:	48 8d 05 6f 99 00 00 	lea    0x996f(%rip),%rax        # 270c7 <g_202>
   1d758:	48 89 85 90 f3 ff ff 	mov    %rax,-0xc70(%rbp)
   1d75f:	48 8b 95 48 f3 ff ff 	mov    -0xcb8(%rbp),%rdx
   1d766:	48 8b 85 50 f3 ff ff 	mov    -0xcb0(%rbp),%rax
   1d76d:	48 39 c2             	cmp    %rax,%rdx
   1d770:	0f 84 f3 00 00 00    	je     1d869 <func_71+0x285>
   1d776:	48 c7 85 a8 f2 ff ff 	movq   $0x12,-0xd58(%rbp)
   1d77d:	12 00 00 00 
   1d781:	e9 d0 00 00 00       	jmpq   1d856 <func_71+0x272>
   1d786:	48 8d 05 c3 98 00 00 	lea    0x98c3(%rip),%rax        # 27050 <g_87>
   1d78d:	48 89 85 30 f4 ff ff 	mov    %rax,-0xbd0(%rbp)
   1d794:	c7 85 d4 f2 ff ff 00 	movl   $0x0,-0xd2c(%rbp)
   1d79b:	00 00 00 
   1d79e:	eb 1a                	jmp    1d7ba <func_71+0x1d6>
   1d7a0:	8b 85 d4 f2 ff ff    	mov    -0xd2c(%rbp),%eax
   1d7a6:	48 98                	cltq   
   1d7a8:	c7 84 85 80 fa ff ff 	movl   $0x6f360822,-0x580(%rbp,%rax,4)
   1d7af:	22 08 36 6f 
   1d7b3:	83 85 d4 f2 ff ff 01 	addl   $0x1,-0xd2c(%rbp)
   1d7ba:	83 bd d4 f2 ff ff 04 	cmpl   $0x4,-0xd2c(%rbp)
   1d7c1:	7e dd                	jle    1d7a0 <func_71+0x1bc>
   1d7c3:	c7 85 bc f2 ff ff 00 	movl   $0x0,-0xd44(%rbp)
   1d7ca:	00 00 00 
   1d7cd:	eb 40                	jmp    1d80f <func_71+0x22b>
   1d7cf:	48 8d 05 7a 98 00 00 	lea    0x987a(%rip),%rax        # 27050 <g_87>
   1d7d6:	48 89 85 38 f4 ff ff 	mov    %rax,-0xbc8(%rbp)
   1d7dd:	8b 05 45 98 00 00    	mov    0x9845(%rip),%eax        # 27028 <g_4>
   1d7e3:	89 c7                	mov    %eax,%edi
   1d7e5:	e8 bc 36 ff ff       	callq  10ea6 <safe_unary_minus_func_uint32_t_u>
   1d7ea:	89 c2                	mov    %eax,%edx
   1d7ec:	48 8b 85 38 f4 ff ff 	mov    -0xbc8(%rbp),%rax
   1d7f3:	89 10                	mov    %edx,(%rax)
   1d7f5:	8b 85 bc f2 ff ff    	mov    -0xd44(%rbp),%eax
   1d7fb:	98                   	cwtl   
   1d7fc:	be 01 00 00 00       	mov    $0x1,%esi
   1d801:	89 c7                	mov    %eax,%edi
   1d803:	e8 ab 2b ff ff       	callq  103b3 <safe_add_func_int16_t_s_s>
   1d808:	98                   	cwtl   
   1d809:	89 85 bc f2 ff ff    	mov    %eax,-0xd44(%rbp)
   1d80f:	8b 85 bc f2 ff ff    	mov    -0xd44(%rbp),%eax
   1d815:	83 f8 3a             	cmp    $0x3a,%eax
   1d818:	76 b5                	jbe    1d7cf <func_71+0x1eb>
   1d81a:	8b 85 bc f2 ff ff    	mov    -0xd44(%rbp),%eax
   1d820:	85 c0                	test   %eax,%eax
   1d822:	0f 85 57 28 00 00    	jne    2007f <func_71+0x2a9b>
   1d828:	8b 85 88 fa ff ff    	mov    -0x578(%rbp),%eax
   1d82e:	8b 15 1c 98 00 00    	mov    0x981c(%rip),%edx        # 27050 <g_87>
   1d834:	31 d0                	xor    %edx,%eax
   1d836:	89 85 88 fa ff ff    	mov    %eax,-0x578(%rbp)
   1d83c:	48 8b 85 b0 f2 ff ff 	mov    -0xd50(%rbp),%rax
   1d843:	89 c2                	mov    %eax,%edx
   1d845:	48 8b 85 30 f4 ff ff 	mov    -0xbd0(%rbp),%rax
   1d84c:	89 10                	mov    %edx,(%rax)
   1d84e:	48 83 85 a8 f2 ff ff 	addq   $0x1,-0xd58(%rbp)
   1d855:	01 
   1d856:	48 83 bd a8 f2 ff ff 	cmpq   $0x20,-0xd58(%rbp)
   1d85d:	20 
   1d85e:	0f 86 22 ff ff ff    	jbe    1d786 <func_71+0x1a2>
   1d864:	e9 17 28 00 00       	jmpq   20080 <func_71+0x2a9c>
   1d869:	48 c7 85 98 f3 ff ff 	movq   $0x0,-0xc68(%rbp)
   1d870:	00 00 00 00 
   1d874:	48 8d 05 ad 97 00 00 	lea    0x97ad(%rip),%rax        # 27028 <g_4>
   1d87b:	48 89 85 80 fa ff ff 	mov    %rax,-0x580(%rbp)
   1d882:	48 8d 05 c7 97 00 00 	lea    0x97c7(%rip),%rax        # 27050 <g_87>
   1d889:	48 89 85 88 fa ff ff 	mov    %rax,-0x578(%rbp)
   1d890:	48 8d 85 80 f5 ff ff 	lea    -0xa80(%rbp),%rax
   1d897:	48 83 c0 04          	add    $0x4,%rax
   1d89b:	48 89 85 90 fa ff ff 	mov    %rax,-0x570(%rbp)
   1d8a2:	48 c7 85 98 fa ff ff 	movq   $0x0,-0x568(%rbp)
   1d8a9:	00 00 00 00 
   1d8ad:	48 8d 85 80 f5 ff ff 	lea    -0xa80(%rbp),%rax
   1d8b4:	48 83 c0 04          	add    $0x4,%rax
   1d8b8:	48 89 85 a0 fa ff ff 	mov    %rax,-0x560(%rbp)
   1d8bf:	48 8d 05 8a 97 00 00 	lea    0x978a(%rip),%rax        # 27050 <g_87>
   1d8c6:	48 89 85 a8 fa ff ff 	mov    %rax,-0x558(%rbp)
   1d8cd:	48 8d 05 54 97 00 00 	lea    0x9754(%rip),%rax        # 27028 <g_4>
   1d8d4:	48 89 85 b0 fa ff ff 	mov    %rax,-0x550(%rbp)
   1d8db:	48 8d 05 6e 97 00 00 	lea    0x976e(%rip),%rax        # 27050 <g_87>
   1d8e2:	48 89 85 b8 fa ff ff 	mov    %rax,-0x548(%rbp)
   1d8e9:	48 8d 05 60 97 00 00 	lea    0x9760(%rip),%rax        # 27050 <g_87>
   1d8f0:	48 89 85 c0 fa ff ff 	mov    %rax,-0x540(%rbp)
   1d8f7:	48 8d 05 52 97 00 00 	lea    0x9752(%rip),%rax        # 27050 <g_87>
   1d8fe:	48 89 85 c8 fa ff ff 	mov    %rax,-0x538(%rbp)
   1d905:	48 8d 85 80 f5 ff ff 	lea    -0xa80(%rbp),%rax
   1d90c:	48 83 c0 04          	add    $0x4,%rax
   1d910:	48 89 85 d0 fa ff ff 	mov    %rax,-0x530(%rbp)
   1d917:	48 8d 05 0a 97 00 00 	lea    0x970a(%rip),%rax        # 27028 <g_4>
   1d91e:	48 89 85 d8 fa ff ff 	mov    %rax,-0x528(%rbp)
   1d925:	48 8d 05 24 97 00 00 	lea    0x9724(%rip),%rax        # 27050 <g_87>
   1d92c:	48 89 85 e0 fa ff ff 	mov    %rax,-0x520(%rbp)
   1d933:	48 8d 85 80 f5 ff ff 	lea    -0xa80(%rbp),%rax
   1d93a:	48 83 c0 04          	add    $0x4,%rax
   1d93e:	48 89 85 e8 fa ff ff 	mov    %rax,-0x518(%rbp)
   1d945:	48 c7 85 f0 fa ff ff 	movq   $0x0,-0x510(%rbp)
   1d94c:	00 00 00 00 
   1d950:	48 8d 05 f9 96 00 00 	lea    0x96f9(%rip),%rax        # 27050 <g_87>
   1d957:	48 89 85 f8 fa ff ff 	mov    %rax,-0x508(%rbp)
   1d95e:	48 8d 85 80 f5 ff ff 	lea    -0xa80(%rbp),%rax
   1d965:	48 83 c0 04          	add    $0x4,%rax
   1d969:	48 89 85 00 fb ff ff 	mov    %rax,-0x500(%rbp)
   1d970:	48 8d 05 d9 96 00 00 	lea    0x96d9(%rip),%rax        # 27050 <g_87>
   1d977:	48 89 85 08 fb ff ff 	mov    %rax,-0x4f8(%rbp)
   1d97e:	48 8d 05 cb 96 00 00 	lea    0x96cb(%rip),%rax        # 27050 <g_87>
   1d985:	48 89 85 10 fb ff ff 	mov    %rax,-0x4f0(%rbp)
   1d98c:	48 8d 85 80 f5 ff ff 	lea    -0xa80(%rbp),%rax
   1d993:	48 83 c0 04          	add    $0x4,%rax
   1d997:	48 89 85 18 fb ff ff 	mov    %rax,-0x4e8(%rbp)
   1d99e:	48 8d 05 ab 96 00 00 	lea    0x96ab(%rip),%rax        # 27050 <g_87>
   1d9a5:	48 89 85 20 fb ff ff 	mov    %rax,-0x4e0(%rbp)
   1d9ac:	48 8d 05 9d 96 00 00 	lea    0x969d(%rip),%rax        # 27050 <g_87>
   1d9b3:	48 89 85 28 fb ff ff 	mov    %rax,-0x4d8(%rbp)
   1d9ba:	48 c7 85 30 fb ff ff 	movq   $0x0,-0x4d0(%rbp)
   1d9c1:	00 00 00 00 
   1d9c5:	48 8d 05 84 96 00 00 	lea    0x9684(%rip),%rax        # 27050 <g_87>
   1d9cc:	48 89 85 38 fb ff ff 	mov    %rax,-0x4c8(%rbp)
   1d9d3:	48 c7 85 40 fb ff ff 	movq   $0x0,-0x4c0(%rbp)
   1d9da:	00 00 00 00 
   1d9de:	48 8d 85 80 f5 ff ff 	lea    -0xa80(%rbp),%rax
   1d9e5:	48 83 c0 04          	add    $0x4,%rax
   1d9e9:	48 89 85 48 fb ff ff 	mov    %rax,-0x4b8(%rbp)
   1d9f0:	48 8d 85 80 f5 ff ff 	lea    -0xa80(%rbp),%rax
   1d9f7:	48 83 c0 04          	add    $0x4,%rax
   1d9fb:	48 89 85 50 fb ff ff 	mov    %rax,-0x4b0(%rbp)
   1da02:	48 8d 05 47 96 00 00 	lea    0x9647(%rip),%rax        # 27050 <g_87>
   1da09:	48 89 85 58 fb ff ff 	mov    %rax,-0x4a8(%rbp)
   1da10:	48 8d 85 80 f5 ff ff 	lea    -0xa80(%rbp),%rax
   1da17:	48 83 c0 30          	add    $0x30,%rax
   1da1b:	48 89 85 60 fb ff ff 	mov    %rax,-0x4a0(%rbp)
   1da22:	48 8d 05 ff 95 00 00 	lea    0x95ff(%rip),%rax        # 27028 <g_4>
   1da29:	48 89 85 68 fb ff ff 	mov    %rax,-0x498(%rbp)
   1da30:	48 8d 85 80 f5 ff ff 	lea    -0xa80(%rbp),%rax
   1da37:	48 83 c0 04          	add    $0x4,%rax
   1da3b:	48 89 85 70 fb ff ff 	mov    %rax,-0x490(%rbp)
   1da42:	48 8d 85 80 f5 ff ff 	lea    -0xa80(%rbp),%rax
   1da49:	48 83 c0 30          	add    $0x30,%rax
   1da4d:	48 89 85 78 fb ff ff 	mov    %rax,-0x488(%rbp)
   1da54:	48 8d 05 f5 95 00 00 	lea    0x95f5(%rip),%rax        # 27050 <g_87>
   1da5b:	48 89 85 80 fb ff ff 	mov    %rax,-0x480(%rbp)
   1da62:	48 8d 85 80 f5 ff ff 	lea    -0xa80(%rbp),%rax
   1da69:	48 83 c0 30          	add    $0x30,%rax
   1da6d:	48 89 85 88 fb ff ff 	mov    %rax,-0x478(%rbp)
   1da74:	48 8d 85 80 f5 ff ff 	lea    -0xa80(%rbp),%rax
   1da7b:	48 83 c0 04          	add    $0x4,%rax
   1da7f:	48 89 85 90 fb ff ff 	mov    %rax,-0x470(%rbp)
   1da86:	48 8d 85 80 f5 ff ff 	lea    -0xa80(%rbp),%rax
   1da8d:	48 83 c0 04          	add    $0x4,%rax
   1da91:	48 89 85 98 fb ff ff 	mov    %rax,-0x468(%rbp)
   1da98:	48 8d 85 80 f5 ff ff 	lea    -0xa80(%rbp),%rax
   1da9f:	48 83 c0 04          	add    $0x4,%rax
   1daa3:	48 89 85 a0 fb ff ff 	mov    %rax,-0x460(%rbp)
   1daaa:	48 c7 85 a8 fb ff ff 	movq   $0x0,-0x458(%rbp)
   1dab1:	00 00 00 00 
   1dab5:	48 c7 85 b0 fb ff ff 	movq   $0x0,-0x450(%rbp)
   1dabc:	00 00 00 00 
   1dac0:	48 8d 05 61 95 00 00 	lea    0x9561(%rip),%rax        # 27028 <g_4>
   1dac7:	48 89 85 b8 fb ff ff 	mov    %rax,-0x448(%rbp)
   1dace:	48 8d 05 7b 95 00 00 	lea    0x957b(%rip),%rax        # 27050 <g_87>
   1dad5:	48 89 85 c0 fb ff ff 	mov    %rax,-0x440(%rbp)
   1dadc:	48 8d 85 80 f5 ff ff 	lea    -0xa80(%rbp),%rax
   1dae3:	48 83 c0 04          	add    $0x4,%rax
   1dae7:	48 89 85 c8 fb ff ff 	mov    %rax,-0x438(%rbp)
   1daee:	48 8d 85 80 f5 ff ff 	lea    -0xa80(%rbp),%rax
   1daf5:	48 83 c0 04          	add    $0x4,%rax
   1daf9:	48 89 85 d0 fb ff ff 	mov    %rax,-0x430(%rbp)
   1db00:	48 8d 85 80 f5 ff ff 	lea    -0xa80(%rbp),%rax
   1db07:	48 83 c0 04          	add    $0x4,%rax
   1db0b:	48 89 85 d8 fb ff ff 	mov    %rax,-0x428(%rbp)
   1db12:	48 c7 85 e0 fb ff ff 	movq   $0x0,-0x420(%rbp)
   1db19:	00 00 00 00 
   1db1d:	48 8d 05 04 95 00 00 	lea    0x9504(%rip),%rax        # 27028 <g_4>
   1db24:	48 89 85 e8 fb ff ff 	mov    %rax,-0x418(%rbp)
   1db2b:	48 8d 85 80 f5 ff ff 	lea    -0xa80(%rbp),%rax
   1db32:	48 83 c0 04          	add    $0x4,%rax
   1db36:	48 89 85 f0 fb ff ff 	mov    %rax,-0x410(%rbp)
   1db3d:	48 8d 85 80 f5 ff ff 	lea    -0xa80(%rbp),%rax
   1db44:	48 83 c0 04          	add    $0x4,%rax
   1db48:	48 89 85 f8 fb ff ff 	mov    %rax,-0x408(%rbp)
   1db4f:	48 8d 05 d2 94 00 00 	lea    0x94d2(%rip),%rax        # 27028 <g_4>
   1db56:	48 89 85 00 fc ff ff 	mov    %rax,-0x400(%rbp)
   1db5d:	48 8d 85 80 f5 ff ff 	lea    -0xa80(%rbp),%rax
   1db64:	48 83 c0 30          	add    $0x30,%rax
   1db68:	48 89 85 08 fc ff ff 	mov    %rax,-0x3f8(%rbp)
   1db6f:	48 8d 05 da 94 00 00 	lea    0x94da(%rip),%rax        # 27050 <g_87>
   1db76:	48 89 85 10 fc ff ff 	mov    %rax,-0x3f0(%rbp)
   1db7d:	48 8d 85 80 f5 ff ff 	lea    -0xa80(%rbp),%rax
   1db84:	48 83 c0 30          	add    $0x30,%rax
   1db88:	48 89 85 18 fc ff ff 	mov    %rax,-0x3e8(%rbp)
   1db8f:	48 8d 85 80 f5 ff ff 	lea    -0xa80(%rbp),%rax
   1db96:	48 83 c0 04          	add    $0x4,%rax
   1db9a:	48 89 85 20 fc ff ff 	mov    %rax,-0x3e0(%rbp)
   1dba1:	48 8d 05 80 94 00 00 	lea    0x9480(%rip),%rax        # 27028 <g_4>
   1dba8:	48 89 85 28 fc ff ff 	mov    %rax,-0x3d8(%rbp)
   1dbaf:	48 8d 85 80 f5 ff ff 	lea    -0xa80(%rbp),%rax
   1dbb6:	48 83 c0 30          	add    $0x30,%rax
   1dbba:	48 89 85 30 fc ff ff 	mov    %rax,-0x3d0(%rbp)
   1dbc1:	48 8d 85 80 f5 ff ff 	lea    -0xa80(%rbp),%rax
   1dbc8:	48 83 c0 04          	add    $0x4,%rax
   1dbcc:	48 89 85 38 fc ff ff 	mov    %rax,-0x3c8(%rbp)
   1dbd3:	48 8d 05 4e 94 00 00 	lea    0x944e(%rip),%rax        # 27028 <g_4>
   1dbda:	48 89 85 40 fc ff ff 	mov    %rax,-0x3c0(%rbp)
   1dbe1:	48 8d 05 68 94 00 00 	lea    0x9468(%rip),%rax        # 27050 <g_87>
   1dbe8:	48 89 85 48 fc ff ff 	mov    %rax,-0x3b8(%rbp)
   1dbef:	48 8d 05 5a 94 00 00 	lea    0x945a(%rip),%rax        # 27050 <g_87>
   1dbf6:	48 89 85 50 fc ff ff 	mov    %rax,-0x3b0(%rbp)
   1dbfd:	48 c7 85 58 fc ff ff 	movq   $0x0,-0x3a8(%rbp)
   1dc04:	00 00 00 00 
   1dc08:	48 8d 05 41 94 00 00 	lea    0x9441(%rip),%rax        # 27050 <g_87>
   1dc0f:	48 89 85 60 fc ff ff 	mov    %rax,-0x3a0(%rbp)
   1dc16:	48 c7 85 68 fc ff ff 	movq   $0x0,-0x398(%rbp)
   1dc1d:	00 00 00 00 
   1dc21:	48 8d 05 28 94 00 00 	lea    0x9428(%rip),%rax        # 27050 <g_87>
   1dc28:	48 89 85 70 fc ff ff 	mov    %rax,-0x390(%rbp)
   1dc2f:	48 8d 05 1a 94 00 00 	lea    0x941a(%rip),%rax        # 27050 <g_87>
   1dc36:	48 89 85 78 fc ff ff 	mov    %rax,-0x388(%rbp)
   1dc3d:	48 8d 85 80 f5 ff ff 	lea    -0xa80(%rbp),%rax
   1dc44:	48 83 c0 04          	add    $0x4,%rax
   1dc48:	48 89 85 80 fc ff ff 	mov    %rax,-0x380(%rbp)
   1dc4f:	48 8d 85 80 f5 ff ff 	lea    -0xa80(%rbp),%rax
   1dc56:	48 83 c0 04          	add    $0x4,%rax
   1dc5a:	48 89 85 88 fc ff ff 	mov    %rax,-0x378(%rbp)
   1dc61:	48 8d 05 e8 93 00 00 	lea    0x93e8(%rip),%rax        # 27050 <g_87>
   1dc68:	48 89 85 90 fc ff ff 	mov    %rax,-0x370(%rbp)
   1dc6f:	48 8d 85 80 f5 ff ff 	lea    -0xa80(%rbp),%rax
   1dc76:	48 83 c0 04          	add    $0x4,%rax
   1dc7a:	48 89 85 98 fc ff ff 	mov    %rax,-0x368(%rbp)
   1dc81:	48 8d 85 80 f5 ff ff 	lea    -0xa80(%rbp),%rax
   1dc88:	48 83 c0 30          	add    $0x30,%rax
   1dc8c:	48 89 85 a0 fc ff ff 	mov    %rax,-0x360(%rbp)
   1dc93:	48 8d 05 8e 93 00 00 	lea    0x938e(%rip),%rax        # 27028 <g_4>
   1dc9a:	48 89 85 a8 fc ff ff 	mov    %rax,-0x358(%rbp)
   1dca1:	48 8d 85 80 f5 ff ff 	lea    -0xa80(%rbp),%rax
   1dca8:	48 83 c0 04          	add    $0x4,%rax
   1dcac:	48 89 85 b0 fc ff ff 	mov    %rax,-0x350(%rbp)
   1dcb3:	48 8d 85 80 f5 ff ff 	lea    -0xa80(%rbp),%rax
   1dcba:	48 83 c0 04          	add    $0x4,%rax
   1dcbe:	48 89 85 b8 fc ff ff 	mov    %rax,-0x348(%rbp)
   1dcc5:	48 8d 85 80 f5 ff ff 	lea    -0xa80(%rbp),%rax
   1dccc:	48 83 c0 04          	add    $0x4,%rax
   1dcd0:	48 89 85 c0 fc ff ff 	mov    %rax,-0x340(%rbp)
   1dcd7:	48 c7 85 c8 fc ff ff 	movq   $0x0,-0x338(%rbp)
   1dcde:	00 00 00 00 
   1dce2:	48 8d 05 3f 93 00 00 	lea    0x933f(%rip),%rax        # 27028 <g_4>
   1dce9:	48 89 85 d0 fc ff ff 	mov    %rax,-0x330(%rbp)
   1dcf0:	48 8d 85 80 f5 ff ff 	lea    -0xa80(%rbp),%rax
   1dcf7:	48 83 c0 04          	add    $0x4,%rax
   1dcfb:	48 89 85 d8 fc ff ff 	mov    %rax,-0x328(%rbp)
   1dd02:	48 8d 85 80 f5 ff ff 	lea    -0xa80(%rbp),%rax
   1dd09:	48 83 c0 04          	add    $0x4,%rax
   1dd0d:	48 89 85 e0 fc ff ff 	mov    %rax,-0x320(%rbp)
   1dd14:	48 8d 85 80 f5 ff ff 	lea    -0xa80(%rbp),%rax
   1dd1b:	48 83 c0 04          	add    $0x4,%rax
   1dd1f:	48 89 85 e8 fc ff ff 	mov    %rax,-0x318(%rbp)
   1dd26:	48 8d 05 fb 92 00 00 	lea    0x92fb(%rip),%rax        # 27028 <g_4>
   1dd2d:	48 89 85 f0 fc ff ff 	mov    %rax,-0x310(%rbp)
   1dd34:	48 8d 05 15 93 00 00 	lea    0x9315(%rip),%rax        # 27050 <g_87>
   1dd3b:	48 89 85 f8 fc ff ff 	mov    %rax,-0x308(%rbp)
   1dd42:	48 8d 05 df 92 00 00 	lea    0x92df(%rip),%rax        # 27028 <g_4>
   1dd49:	48 89 85 00 fd ff ff 	mov    %rax,-0x300(%rbp)
   1dd50:	48 8d 85 80 f5 ff ff 	lea    -0xa80(%rbp),%rax
   1dd57:	48 83 c0 04          	add    $0x4,%rax
   1dd5b:	48 89 85 08 fd ff ff 	mov    %rax,-0x2f8(%rbp)
   1dd62:	48 8d 05 e7 92 00 00 	lea    0x92e7(%rip),%rax        # 27050 <g_87>
   1dd69:	48 89 85 10 fd ff ff 	mov    %rax,-0x2f0(%rbp)
   1dd70:	48 8d 05 b1 92 00 00 	lea    0x92b1(%rip),%rax        # 27028 <g_4>
   1dd77:	48 89 85 18 fd ff ff 	mov    %rax,-0x2e8(%rbp)
   1dd7e:	48 8d 05 cb 92 00 00 	lea    0x92cb(%rip),%rax        # 27050 <g_87>
   1dd85:	48 89 85 20 fd ff ff 	mov    %rax,-0x2e0(%rbp)
   1dd8c:	48 8d 85 80 f5 ff ff 	lea    -0xa80(%rbp),%rax
   1dd93:	48 83 c0 04          	add    $0x4,%rax
   1dd97:	48 89 85 28 fd ff ff 	mov    %rax,-0x2d8(%rbp)
   1dd9e:	48 8d 85 80 f5 ff ff 	lea    -0xa80(%rbp),%rax
   1dda5:	48 83 c0 30          	add    $0x30,%rax
   1dda9:	48 89 85 30 fd ff ff 	mov    %rax,-0x2d0(%rbp)
   1ddb0:	48 8d 05 71 92 00 00 	lea    0x9271(%rip),%rax        # 27028 <g_4>
   1ddb7:	48 89 85 38 fd ff ff 	mov    %rax,-0x2c8(%rbp)
   1ddbe:	48 8d 85 80 f5 ff ff 	lea    -0xa80(%rbp),%rax
   1ddc5:	48 83 c0 04          	add    $0x4,%rax
   1ddc9:	48 89 85 40 fd ff ff 	mov    %rax,-0x2c0(%rbp)
   1ddd0:	48 8d 85 80 f5 ff ff 	lea    -0xa80(%rbp),%rax
   1ddd7:	48 83 c0 30          	add    $0x30,%rax
   1dddb:	48 89 85 48 fd ff ff 	mov    %rax,-0x2b8(%rbp)
   1dde2:	48 8d 05 67 92 00 00 	lea    0x9267(%rip),%rax        # 27050 <g_87>
   1dde9:	48 89 85 50 fd ff ff 	mov    %rax,-0x2b0(%rbp)
   1ddf0:	48 8d 85 80 f5 ff ff 	lea    -0xa80(%rbp),%rax
   1ddf7:	48 83 c0 04          	add    $0x4,%rax
   1ddfb:	48 89 85 58 fd ff ff 	mov    %rax,-0x2a8(%rbp)
   1de02:	48 8d 05 47 92 00 00 	lea    0x9247(%rip),%rax        # 27050 <g_87>
   1de09:	48 89 85 60 fd ff ff 	mov    %rax,-0x2a0(%rbp)
   1de10:	48 c7 85 68 fd ff ff 	movq   $0x0,-0x298(%rbp)
   1de17:	00 00 00 00 
   1de1b:	48 c7 85 70 fd ff ff 	movq   $0x0,-0x290(%rbp)
   1de22:	00 00 00 00 
   1de26:	48 8d 05 23 92 00 00 	lea    0x9223(%rip),%rax        # 27050 <g_87>
   1de2d:	48 89 85 78 fd ff ff 	mov    %rax,-0x288(%rbp)
   1de34:	48 8d 85 80 f5 ff ff 	lea    -0xa80(%rbp),%rax
   1de3b:	48 83 c0 04          	add    $0x4,%rax
   1de3f:	48 89 85 80 fd ff ff 	mov    %rax,-0x280(%rbp)
   1de46:	48 8d 85 80 f5 ff ff 	lea    -0xa80(%rbp),%rax
   1de4d:	48 83 c0 04          	add    $0x4,%rax
   1de51:	48 89 85 88 fd ff ff 	mov    %rax,-0x278(%rbp)
   1de58:	48 8d 05 f1 91 00 00 	lea    0x91f1(%rip),%rax        # 27050 <g_87>
   1de5f:	48 89 85 90 fd ff ff 	mov    %rax,-0x270(%rbp)
   1de66:	48 8d 05 bb 91 00 00 	lea    0x91bb(%rip),%rax        # 27028 <g_4>
   1de6d:	48 89 85 98 fd ff ff 	mov    %rax,-0x268(%rbp)
   1de74:	48 c7 85 a0 fd ff ff 	movq   $0x0,-0x260(%rbp)
   1de7b:	00 00 00 00 
   1de7f:	48 8d 05 ca 91 00 00 	lea    0x91ca(%rip),%rax        # 27050 <g_87>
   1de86:	48 89 85 a8 fd ff ff 	mov    %rax,-0x258(%rbp)
   1de8d:	48 8d 05 bc 91 00 00 	lea    0x91bc(%rip),%rax        # 27050 <g_87>
   1de94:	48 89 85 b0 fd ff ff 	mov    %rax,-0x250(%rbp)
   1de9b:	48 c7 85 b8 fd ff ff 	movq   $0x0,-0x248(%rbp)
   1dea2:	00 00 00 00 
   1dea6:	48 8d 05 7b 91 00 00 	lea    0x917b(%rip),%rax        # 27028 <g_4>
   1dead:	48 89 85 c0 fd ff ff 	mov    %rax,-0x240(%rbp)
   1deb4:	48 8d 85 80 f5 ff ff 	lea    -0xa80(%rbp),%rax
   1debb:	48 83 c0 04          	add    $0x4,%rax
   1debf:	48 89 85 c8 fd ff ff 	mov    %rax,-0x238(%rbp)
   1dec6:	48 8d 85 80 f5 ff ff 	lea    -0xa80(%rbp),%rax
   1decd:	48 83 c0 04          	add    $0x4,%rax
   1ded1:	48 89 85 d0 fd ff ff 	mov    %rax,-0x230(%rbp)
   1ded8:	48 8d 85 80 f5 ff ff 	lea    -0xa80(%rbp),%rax
   1dedf:	48 83 c0 04          	add    $0x4,%rax
   1dee3:	48 89 85 d8 fd ff ff 	mov    %rax,-0x228(%rbp)
   1deea:	48 c7 85 e0 fd ff ff 	movq   $0x0,-0x220(%rbp)
   1def1:	00 00 00 00 
   1def5:	48 8d 85 80 f5 ff ff 	lea    -0xa80(%rbp),%rax
   1defc:	48 83 c0 04          	add    $0x4,%rax
   1df00:	48 89 85 e8 fd ff ff 	mov    %rax,-0x218(%rbp)
   1df07:	48 8d 85 80 f5 ff ff 	lea    -0xa80(%rbp),%rax
   1df0e:	48 83 c0 04          	add    $0x4,%rax
   1df12:	48 89 85 f0 fd ff ff 	mov    %rax,-0x210(%rbp)
   1df19:	48 8d 85 80 f5 ff ff 	lea    -0xa80(%rbp),%rax
   1df20:	48 83 c0 04          	add    $0x4,%rax
   1df24:	48 89 85 f8 fd ff ff 	mov    %rax,-0x208(%rbp)
   1df2b:	48 8d 85 80 f5 ff ff 	lea    -0xa80(%rbp),%rax
   1df32:	48 83 c0 04          	add    $0x4,%rax
   1df36:	48 89 85 00 fe ff ff 	mov    %rax,-0x200(%rbp)
   1df3d:	48 8d 05 e4 90 00 00 	lea    0x90e4(%rip),%rax        # 27028 <g_4>
   1df44:	48 89 85 08 fe ff ff 	mov    %rax,-0x1f8(%rbp)
   1df4b:	48 c7 85 10 fe ff ff 	movq   $0x0,-0x1f0(%rbp)
   1df52:	00 00 00 00 
   1df56:	48 8d 85 80 f5 ff ff 	lea    -0xa80(%rbp),%rax
   1df5d:	48 83 c0 04          	add    $0x4,%rax
   1df61:	48 89 85 18 fe ff ff 	mov    %rax,-0x1e8(%rbp)
   1df68:	48 8d 85 80 f5 ff ff 	lea    -0xa80(%rbp),%rax
   1df6f:	48 83 c0 04          	add    $0x4,%rax
   1df73:	48 89 85 20 fe ff ff 	mov    %rax,-0x1e0(%rbp)
   1df7a:	48 8d 85 80 f5 ff ff 	lea    -0xa80(%rbp),%rax
   1df81:	48 83 c0 04          	add    $0x4,%rax
   1df85:	48 89 85 28 fe ff ff 	mov    %rax,-0x1d8(%rbp)
   1df8c:	48 8d 85 80 f5 ff ff 	lea    -0xa80(%rbp),%rax
   1df93:	48 83 c0 04          	add    $0x4,%rax
   1df97:	48 89 85 30 fe ff ff 	mov    %rax,-0x1d0(%rbp)
   1df9e:	48 8d 05 ab 90 00 00 	lea    0x90ab(%rip),%rax        # 27050 <g_87>
   1dfa5:	48 89 85 38 fe ff ff 	mov    %rax,-0x1c8(%rbp)
   1dfac:	48 8d 05 9d 90 00 00 	lea    0x909d(%rip),%rax        # 27050 <g_87>
   1dfb3:	48 89 85 40 fe ff ff 	mov    %rax,-0x1c0(%rbp)
   1dfba:	48 c7 85 48 fe ff ff 	movq   $0x0,-0x1b8(%rbp)
   1dfc1:	00 00 00 00 
   1dfc5:	48 8d 05 5c 90 00 00 	lea    0x905c(%rip),%rax        # 27028 <g_4>
   1dfcc:	48 89 85 50 fe ff ff 	mov    %rax,-0x1b0(%rbp)
   1dfd3:	48 8d 05 4e 90 00 00 	lea    0x904e(%rip),%rax        # 27028 <g_4>
   1dfda:	48 89 85 58 fe ff ff 	mov    %rax,-0x1a8(%rbp)
   1dfe1:	48 c7 85 60 fe ff ff 	movq   $0x0,-0x1a0(%rbp)
   1dfe8:	00 00 00 00 
   1dfec:	48 8d 05 5d 90 00 00 	lea    0x905d(%rip),%rax        # 27050 <g_87>
   1dff3:	48 89 85 68 fe ff ff 	mov    %rax,-0x198(%rbp)
   1dffa:	48 8d 05 27 90 00 00 	lea    0x9027(%rip),%rax        # 27028 <g_4>
   1e001:	48 89 85 70 fe ff ff 	mov    %rax,-0x190(%rbp)
   1e008:	48 8d 85 80 f5 ff ff 	lea    -0xa80(%rbp),%rax
   1e00f:	48 83 c0 04          	add    $0x4,%rax
   1e013:	48 89 85 78 fe ff ff 	mov    %rax,-0x188(%rbp)
   1e01a:	48 c7 85 80 fe ff ff 	movq   $0x0,-0x180(%rbp)
   1e021:	00 00 00 00 
   1e025:	48 c7 85 88 fe ff ff 	movq   $0x0,-0x178(%rbp)
   1e02c:	00 00 00 00 
   1e030:	48 8d 85 80 f5 ff ff 	lea    -0xa80(%rbp),%rax
   1e037:	48 83 c0 04          	add    $0x4,%rax
   1e03b:	48 89 85 90 fe ff ff 	mov    %rax,-0x170(%rbp)
   1e042:	48 8d 85 80 f5 ff ff 	lea    -0xa80(%rbp),%rax
   1e049:	48 83 c0 04          	add    $0x4,%rax
   1e04d:	48 89 85 98 fe ff ff 	mov    %rax,-0x168(%rbp)
   1e054:	48 8d 05 f5 8f 00 00 	lea    0x8ff5(%rip),%rax        # 27050 <g_87>
   1e05b:	48 89 85 a0 fe ff ff 	mov    %rax,-0x160(%rbp)
   1e062:	48 8d 85 80 f5 ff ff 	lea    -0xa80(%rbp),%rax
   1e069:	48 83 c0 30          	add    $0x30,%rax
   1e06d:	48 89 85 a8 fe ff ff 	mov    %rax,-0x158(%rbp)
   1e074:	48 8d 05 ad 8f 00 00 	lea    0x8fad(%rip),%rax        # 27028 <g_4>
   1e07b:	48 89 85 b0 fe ff ff 	mov    %rax,-0x150(%rbp)
   1e082:	48 8d 85 80 f5 ff ff 	lea    -0xa80(%rbp),%rax
   1e089:	48 83 c0 04          	add    $0x4,%rax
   1e08d:	48 89 85 b8 fe ff ff 	mov    %rax,-0x148(%rbp)
   1e094:	48 8d 85 80 f5 ff ff 	lea    -0xa80(%rbp),%rax
   1e09b:	48 83 c0 30          	add    $0x30,%rax
   1e09f:	48 89 85 c0 fe ff ff 	mov    %rax,-0x140(%rbp)
   1e0a6:	48 8d 05 a3 8f 00 00 	lea    0x8fa3(%rip),%rax        # 27050 <g_87>
   1e0ad:	48 89 85 c8 fe ff ff 	mov    %rax,-0x138(%rbp)
   1e0b4:	48 8d 85 80 f5 ff ff 	lea    -0xa80(%rbp),%rax
   1e0bb:	48 83 c0 30          	add    $0x30,%rax
   1e0bf:	48 89 85 d0 fe ff ff 	mov    %rax,-0x130(%rbp)
   1e0c6:	48 8d 85 80 f5 ff ff 	lea    -0xa80(%rbp),%rax
   1e0cd:	48 83 c0 04          	add    $0x4,%rax
   1e0d1:	48 89 85 d8 fe ff ff 	mov    %rax,-0x128(%rbp)
   1e0d8:	48 8d 85 80 f5 ff ff 	lea    -0xa80(%rbp),%rax
   1e0df:	48 83 c0 04          	add    $0x4,%rax
   1e0e3:	48 89 85 e0 fe ff ff 	mov    %rax,-0x120(%rbp)
   1e0ea:	48 8d 85 80 f5 ff ff 	lea    -0xa80(%rbp),%rax
   1e0f1:	48 83 c0 04          	add    $0x4,%rax
   1e0f5:	48 89 85 e8 fe ff ff 	mov    %rax,-0x118(%rbp)
   1e0fc:	48 c7 85 f0 fe ff ff 	movq   $0x0,-0x110(%rbp)
   1e103:	00 00 00 00 
   1e107:	48 c7 85 f8 fe ff ff 	movq   $0x0,-0x108(%rbp)
   1e10e:	00 00 00 00 
   1e112:	48 8d 05 0f 8f 00 00 	lea    0x8f0f(%rip),%rax        # 27028 <g_4>
   1e119:	48 89 85 00 ff ff ff 	mov    %rax,-0x100(%rbp)
   1e120:	48 8d 05 29 8f 00 00 	lea    0x8f29(%rip),%rax        # 27050 <g_87>
   1e127:	48 89 85 08 ff ff ff 	mov    %rax,-0xf8(%rbp)
   1e12e:	48 8d 85 80 f5 ff ff 	lea    -0xa80(%rbp),%rax
   1e135:	48 83 c0 04          	add    $0x4,%rax
   1e139:	48 89 85 10 ff ff ff 	mov    %rax,-0xf0(%rbp)
   1e140:	48 8d 85 80 f5 ff ff 	lea    -0xa80(%rbp),%rax
   1e147:	48 83 c0 04          	add    $0x4,%rax
   1e14b:	48 89 85 18 ff ff ff 	mov    %rax,-0xe8(%rbp)
   1e152:	48 8d 85 80 f5 ff ff 	lea    -0xa80(%rbp),%rax
   1e159:	48 83 c0 04          	add    $0x4,%rax
   1e15d:	48 89 85 20 ff ff ff 	mov    %rax,-0xe0(%rbp)
   1e164:	48 c7 85 28 ff ff ff 	movq   $0x0,-0xd8(%rbp)
   1e16b:	00 00 00 00 
   1e16f:	48 8d 05 b2 8e 00 00 	lea    0x8eb2(%rip),%rax        # 27028 <g_4>
   1e176:	48 89 85 30 ff ff ff 	mov    %rax,-0xd0(%rbp)
   1e17d:	48 8d 85 80 f5 ff ff 	lea    -0xa80(%rbp),%rax
   1e184:	48 83 c0 04          	add    $0x4,%rax
   1e188:	48 89 85 38 ff ff ff 	mov    %rax,-0xc8(%rbp)
   1e18f:	48 8d 85 80 f5 ff ff 	lea    -0xa80(%rbp),%rax
   1e196:	48 83 c0 04          	add    $0x4,%rax
   1e19a:	48 89 85 40 ff ff ff 	mov    %rax,-0xc0(%rbp)
   1e1a1:	48 8d 05 80 8e 00 00 	lea    0x8e80(%rip),%rax        # 27028 <g_4>
   1e1a8:	48 89 85 48 ff ff ff 	mov    %rax,-0xb8(%rbp)
   1e1af:	48 8d 85 80 f5 ff ff 	lea    -0xa80(%rbp),%rax
   1e1b6:	48 83 c0 30          	add    $0x30,%rax
   1e1ba:	48 89 85 50 ff ff ff 	mov    %rax,-0xb0(%rbp)
   1e1c1:	48 8d 05 88 8e 00 00 	lea    0x8e88(%rip),%rax        # 27050 <g_87>
   1e1c8:	48 89 85 58 ff ff ff 	mov    %rax,-0xa8(%rbp)
   1e1cf:	48 8d 85 80 f5 ff ff 	lea    -0xa80(%rbp),%rax
   1e1d6:	48 83 c0 30          	add    $0x30,%rax
   1e1da:	48 89 85 60 ff ff ff 	mov    %rax,-0xa0(%rbp)
   1e1e1:	48 8d 85 80 f5 ff ff 	lea    -0xa80(%rbp),%rax
   1e1e8:	48 83 c0 04          	add    $0x4,%rax
   1e1ec:	48 89 85 68 ff ff ff 	mov    %rax,-0x98(%rbp)
   1e1f3:	48 8d 05 2e 8e 00 00 	lea    0x8e2e(%rip),%rax        # 27028 <g_4>
   1e1fa:	48 89 85 70 ff ff ff 	mov    %rax,-0x90(%rbp)
   1e201:	48 8d 85 80 f5 ff ff 	lea    -0xa80(%rbp),%rax
   1e208:	48 83 c0 30          	add    $0x30,%rax
   1e20c:	48 89 85 78 ff ff ff 	mov    %rax,-0x88(%rbp)
   1e213:	48 8d 85 80 f5 ff ff 	lea    -0xa80(%rbp),%rax
   1e21a:	48 83 c0 04          	add    $0x4,%rax
   1e21e:	48 89 45 80          	mov    %rax,-0x80(%rbp)
   1e222:	48 8d 05 ff 8d 00 00 	lea    0x8dff(%rip),%rax        # 27028 <g_4>
   1e229:	48 89 45 88          	mov    %rax,-0x78(%rbp)
   1e22d:	48 8d 05 1c 8e 00 00 	lea    0x8e1c(%rip),%rax        # 27050 <g_87>
   1e234:	48 89 45 90          	mov    %rax,-0x70(%rbp)
   1e238:	48 8d 05 11 8e 00 00 	lea    0x8e11(%rip),%rax        # 27050 <g_87>
   1e23f:	48 89 45 98          	mov    %rax,-0x68(%rbp)
   1e243:	48 c7 45 a0 00 00 00 	movq   $0x0,-0x60(%rbp)
   1e24a:	00 
   1e24b:	48 8d 05 fe 8d 00 00 	lea    0x8dfe(%rip),%rax        # 27050 <g_87>
   1e252:	48 89 45 a8          	mov    %rax,-0x58(%rbp)
   1e256:	48 c7 45 b0 00 00 00 	movq   $0x0,-0x50(%rbp)
   1e25d:	00 
   1e25e:	48 8d 05 eb 8d 00 00 	lea    0x8deb(%rip),%rax        # 27050 <g_87>
   1e265:	48 89 45 b8          	mov    %rax,-0x48(%rbp)
   1e269:	48 c7 85 a0 f3 ff ff 	movq   $0x0,-0xc60(%rbp)
   1e270:	00 00 00 00 
   1e274:	48 8d 05 4d 8e 00 00 	lea    0x8e4d(%rip),%rax        # 270c8 <g_211>
   1e27b:	48 89 85 90 f4 ff ff 	mov    %rax,-0xb70(%rbp)
   1e282:	48 8d 05 45 8e 00 00 	lea    0x8e45(%rip),%rax        # 270ce <g_211+0x6>
   1e289:	48 89 85 98 f4 ff ff 	mov    %rax,-0xb68(%rbp)
   1e290:	48 8d 05 37 8e 00 00 	lea    0x8e37(%rip),%rax        # 270ce <g_211+0x6>
   1e297:	48 89 85 a0 f4 ff ff 	mov    %rax,-0xb60(%rbp)
   1e29e:	48 8d 05 23 8e 00 00 	lea    0x8e23(%rip),%rax        # 270c8 <g_211>
   1e2a5:	48 89 85 a8 f4 ff ff 	mov    %rax,-0xb58(%rbp)
   1e2ac:	48 8d 05 1b 8e 00 00 	lea    0x8e1b(%rip),%rax        # 270ce <g_211+0x6>
   1e2b3:	48 89 85 b0 f4 ff ff 	mov    %rax,-0xb50(%rbp)
   1e2ba:	48 8d 05 0d 8e 00 00 	lea    0x8e0d(%rip),%rax        # 270ce <g_211+0x6>
   1e2c1:	48 89 85 b8 f4 ff ff 	mov    %rax,-0xb48(%rbp)
   1e2c8:	48 8d 05 f9 8d 00 00 	lea    0x8df9(%rip),%rax        # 270c8 <g_211>
   1e2cf:	48 89 85 c0 f4 ff ff 	mov    %rax,-0xb40(%rbp)
   1e2d6:	48 8d 05 f1 8d 00 00 	lea    0x8df1(%rip),%rax        # 270ce <g_211+0x6>
   1e2dd:	48 89 85 c8 f4 ff ff 	mov    %rax,-0xb38(%rbp)
   1e2e4:	48 8d 05 e3 8d 00 00 	lea    0x8de3(%rip),%rax        # 270ce <g_211+0x6>
   1e2eb:	48 89 85 d0 f4 ff ff 	mov    %rax,-0xb30(%rbp)
   1e2f2:	48 8d 85 90 f4 ff ff 	lea    -0xb70(%rbp),%rax
   1e2f9:	48 83 c0 08          	add    $0x8,%rax
   1e2fd:	48 89 85 58 f3 ff ff 	mov    %rax,-0xca8(%rbp)
   1e304:	48 8d 85 58 f3 ff ff 	lea    -0xca8(%rbp),%rax
   1e30b:	48 89 85 60 f3 ff ff 	mov    %rax,-0xca0(%rbp)
   1e312:	c7 85 d8 f2 ff ff 00 	movl   $0x0,-0xd28(%rbp)
   1e319:	00 00 00 
   1e31c:	eb 1e                	jmp    1e33c <func_71+0xd58>
   1e31e:	8b 85 d8 f2 ff ff    	mov    -0xd28(%rbp),%eax
   1e324:	48 98                	cltq   
   1e326:	48 8d 95 50 f3 ff ff 	lea    -0xcb0(%rbp),%rdx
   1e32d:	48 89 94 c5 50 f4 ff 	mov    %rdx,-0xbb0(%rbp,%rax,8)
   1e334:	ff 
   1e335:	83 85 d8 f2 ff ff 01 	addl   $0x1,-0xd28(%rbp)
   1e33c:	83 bd d8 f2 ff ff 06 	cmpl   $0x6,-0xd28(%rbp)
   1e343:	7e d9                	jle    1e31e <func_71+0xd3a>
   1e345:	90                   	nop
   1e346:	48 c7 85 50 f3 ff ff 	movq   $0x0,-0xcb0(%rbp)
   1e34d:	00 00 00 00 
   1e351:	c7 85 bc f2 ff ff e9 	movl   $0xffffffe9,-0xd44(%rbp)
   1e358:	ff ff ff 
   1e35b:	e9 f0 10 00 00       	jmpq   1f450 <func_71+0x1e6c>
   1e360:	48 c7 85 30 f5 ff ff 	movq   $0x1,-0xad0(%rbp)
   1e367:	01 00 00 00 
   1e36b:	48 c7 85 38 f5 ff ff 	movq   $0xffffffffffffffff,-0xac8(%rbp)
   1e372:	ff ff ff ff 
   1e376:	48 c7 85 40 f5 ff ff 	movq   $0x1,-0xac0(%rbp)
   1e37d:	01 00 00 00 
   1e381:	48 c7 85 48 f5 ff ff 	movq   $0xffffffffffffffff,-0xab8(%rbp)
   1e388:	ff ff ff ff 
   1e38c:	48 c7 85 50 f5 ff ff 	movq   $0x1,-0xab0(%rbp)
   1e393:	01 00 00 00 
   1e397:	48 c7 85 58 f5 ff ff 	movq   $0xffffffffffffffff,-0xaa8(%rbp)
   1e39e:	ff ff ff ff 
   1e3a2:	48 c7 85 60 f5 ff ff 	movq   $0x1,-0xaa0(%rbp)
   1e3a9:	01 00 00 00 
   1e3ad:	48 c7 85 68 f5 ff ff 	movq   $0xffffffffffffffff,-0xa98(%rbp)
   1e3b4:	ff ff ff ff 
   1e3b8:	48 c7 85 70 f5 ff ff 	movq   $0x1,-0xa90(%rbp)
   1e3bf:	01 00 00 00 
   1e3c3:	48 c7 85 78 f5 ff ff 	movq   $0xffffffffffffffff,-0xa88(%rbp)
   1e3ca:	ff ff ff ff 
   1e3ce:	c7 85 dc f2 ff ff db 	movl   $0x70596cdb,-0xd24(%rbp)
   1e3d5:	6c 59 70 
   1e3d8:	48 8d 05 81 8c 00 00 	lea    0x8c81(%rip),%rax        # 27060 <g_113>
   1e3df:	48 89 85 e0 f4 ff ff 	mov    %rax,-0xb20(%rbp)
   1e3e6:	48 c7 85 e8 f4 ff ff 	movq   $0x0,-0xb18(%rbp)
   1e3ed:	00 00 00 00 
   1e3f1:	48 8d 05 68 8c 00 00 	lea    0x8c68(%rip),%rax        # 27060 <g_113>
   1e3f8:	48 89 85 f0 f4 ff ff 	mov    %rax,-0xb10(%rbp)
   1e3ff:	48 c7 85 f8 f4 ff ff 	movq   $0x0,-0xb08(%rbp)
   1e406:	00 00 00 00 
   1e40a:	48 8d 05 4f 8c 00 00 	lea    0x8c4f(%rip),%rax        # 27060 <g_113>
   1e411:	48 89 85 00 f5 ff ff 	mov    %rax,-0xb00(%rbp)
   1e418:	48 c7 85 08 f5 ff ff 	movq   $0x0,-0xaf8(%rbp)
   1e41f:	00 00 00 00 
   1e423:	48 8d 05 36 8c 00 00 	lea    0x8c36(%rip),%rax        # 27060 <g_113>
   1e42a:	48 89 85 10 f5 ff ff 	mov    %rax,-0xaf0(%rbp)
   1e431:	48 c7 85 18 f5 ff ff 	movq   $0x0,-0xae8(%rbp)
   1e438:	00 00 00 00 
   1e43c:	48 8d 05 1d 8c 00 00 	lea    0x8c1d(%rip),%rax        # 27060 <g_113>
   1e443:	48 89 85 20 f5 ff ff 	mov    %rax,-0xae0(%rbp)
   1e44a:	48 8d 85 e0 f4 ff ff 	lea    -0xb20(%rbp),%rax
   1e451:	48 83 c0 28          	add    $0x28,%rax
   1e455:	48 89 85 d8 f3 ff ff 	mov    %rax,-0xc28(%rbp)
   1e45c:	c7 85 e0 f2 ff ff f9 	movl   $0xfffffff9,-0xd20(%rbp)
   1e463:	ff ff ff 
   1e466:	c7 85 1c f3 ff ff 09 	movl   $0x9,-0xce4(%rbp)
   1e46d:	00 00 00 
   1e470:	c7 85 20 f3 ff ff cc 	movl   $0x872cc1cc,-0xce0(%rbp)
   1e477:	c1 2c 87 
   1e47a:	48 c7 85 e0 f3 ff ff 	movq   $0x0,-0xc20(%rbp)
   1e481:	00 00 00 00 
   1e485:	48 8d 05 38 8c 00 00 	lea    0x8c38(%rip),%rax        # 270c4 <g_164>
   1e48c:	48 89 85 e8 f3 ff ff 	mov    %rax,-0xc18(%rbp)
   1e493:	48 c7 85 b0 f2 ff ff 	movq   $0x1,-0xd50(%rbp)
   1e49a:	01 00 00 00 
   1e49e:	e9 df 09 00 00       	jmpq   1ee82 <func_71+0x189e>
   1e4a3:	c7 85 f0 f5 ff ff b8 	movl   $0x98c2fcb8,-0xa10(%rbp)
   1e4aa:	fc c2 98 
   1e4ad:	c7 85 f4 f5 ff ff b8 	movl   $0x98c2fcb8,-0xa0c(%rbp)
   1e4b4:	fc c2 98 
   1e4b7:	c7 85 f8 f5 ff ff b8 	movl   $0x98c2fcb8,-0xa08(%rbp)
   1e4be:	fc c2 98 
   1e4c1:	c7 85 fc f5 ff ff b8 	movl   $0x98c2fcb8,-0xa04(%rbp)
   1e4c8:	fc c2 98 
   1e4cb:	c7 85 00 f6 ff ff b8 	movl   $0x98c2fcb8,-0xa00(%rbp)
   1e4d2:	fc c2 98 
   1e4d5:	c7 85 04 f6 ff ff 31 	movl   $0xb34ff331,-0x9fc(%rbp)
   1e4dc:	f3 4f b3 
   1e4df:	c7 85 08 f6 ff ff 38 	movl   $0x14566f38,-0x9f8(%rbp)
   1e4e6:	6f 56 14 
   1e4e9:	c7 85 0c f6 ff ff 31 	movl   $0xb34ff331,-0x9f4(%rbp)
   1e4f0:	f3 4f b3 
   1e4f3:	c7 85 10 f6 ff ff 38 	movl   $0x14566f38,-0x9f0(%rbp)
   1e4fa:	6f 56 14 
   1e4fd:	c7 85 14 f6 ff ff 31 	movl   $0xb34ff331,-0x9ec(%rbp)
   1e504:	f3 4f b3 
   1e507:	c7 85 18 f6 ff ff b8 	movl   $0x98c2fcb8,-0x9e8(%rbp)
   1e50e:	fc c2 98 
   1e511:	c7 85 1c f6 ff ff b8 	movl   $0x98c2fcb8,-0x9e4(%rbp)
   1e518:	fc c2 98 
   1e51b:	c7 85 20 f6 ff ff b8 	movl   $0x98c2fcb8,-0x9e0(%rbp)
   1e522:	fc c2 98 
   1e525:	c7 85 24 f6 ff ff b8 	movl   $0x98c2fcb8,-0x9dc(%rbp)
   1e52c:	fc c2 98 
   1e52f:	c7 85 28 f6 ff ff b8 	movl   $0x98c2fcb8,-0x9d8(%rbp)
   1e536:	fc c2 98 
   1e539:	c7 85 2c f6 ff ff 31 	movl   $0xb34ff331,-0x9d4(%rbp)
   1e540:	f3 4f b3 
   1e543:	c7 85 30 f6 ff ff 38 	movl   $0x14566f38,-0x9d0(%rbp)
   1e54a:	6f 56 14 
   1e54d:	c7 85 34 f6 ff ff 31 	movl   $0xb34ff331,-0x9cc(%rbp)
   1e554:	f3 4f b3 
   1e557:	c7 85 38 f6 ff ff 38 	movl   $0x14566f38,-0x9c8(%rbp)
   1e55e:	6f 56 14 
   1e561:	c7 85 3c f6 ff ff 31 	movl   $0xb34ff331,-0x9c4(%rbp)
   1e568:	f3 4f b3 
   1e56b:	c7 85 40 f6 ff ff b8 	movl   $0x98c2fcb8,-0x9c0(%rbp)
   1e572:	fc c2 98 
   1e575:	c7 85 44 f6 ff ff b8 	movl   $0x98c2fcb8,-0x9bc(%rbp)
   1e57c:	fc c2 98 
   1e57f:	c7 85 48 f6 ff ff b8 	movl   $0x98c2fcb8,-0x9b8(%rbp)
   1e586:	fc c2 98 
   1e589:	c7 85 4c f6 ff ff b8 	movl   $0x98c2fcb8,-0x9b4(%rbp)
   1e590:	fc c2 98 
   1e593:	c7 85 50 f6 ff ff b8 	movl   $0x98c2fcb8,-0x9b0(%rbp)
   1e59a:	fc c2 98 
   1e59d:	c7 85 54 f6 ff ff 31 	movl   $0xb34ff331,-0x9ac(%rbp)
   1e5a4:	f3 4f b3 
   1e5a7:	c7 85 58 f6 ff ff 38 	movl   $0x14566f38,-0x9a8(%rbp)
   1e5ae:	6f 56 14 
   1e5b1:	c7 85 5c f6 ff ff 31 	movl   $0xb34ff331,-0x9a4(%rbp)
   1e5b8:	f3 4f b3 
   1e5bb:	c7 85 60 f6 ff ff 38 	movl   $0x14566f38,-0x9a0(%rbp)
   1e5c2:	6f 56 14 
   1e5c5:	c7 85 64 f6 ff ff 31 	movl   $0xb34ff331,-0x99c(%rbp)
   1e5cc:	f3 4f b3 
   1e5cf:	c7 85 68 f6 ff ff b8 	movl   $0x98c2fcb8,-0x998(%rbp)
   1e5d6:	fc c2 98 
   1e5d9:	c7 85 6c f6 ff ff b8 	movl   $0x98c2fcb8,-0x994(%rbp)
   1e5e0:	fc c2 98 
   1e5e3:	c7 85 70 f6 ff ff b8 	movl   $0x98c2fcb8,-0x990(%rbp)
   1e5ea:	fc c2 98 
   1e5ed:	c7 85 74 f6 ff ff b8 	movl   $0x98c2fcb8,-0x98c(%rbp)
   1e5f4:	fc c2 98 
   1e5f7:	c7 85 78 f6 ff ff b8 	movl   $0x98c2fcb8,-0x988(%rbp)
   1e5fe:	fc c2 98 
   1e601:	c7 85 7c f6 ff ff 31 	movl   $0xb34ff331,-0x984(%rbp)
   1e608:	f3 4f b3 
   1e60b:	c7 85 80 f6 ff ff 38 	movl   $0x14566f38,-0x980(%rbp)
   1e612:	6f 56 14 
   1e615:	c7 85 84 f6 ff ff 31 	movl   $0xb34ff331,-0x97c(%rbp)
   1e61c:	f3 4f b3 
   1e61f:	c7 85 88 f6 ff ff 38 	movl   $0x14566f38,-0x978(%rbp)
   1e626:	6f 56 14 
   1e629:	c7 85 8c f6 ff ff 31 	movl   $0xb34ff331,-0x974(%rbp)
   1e630:	f3 4f b3 
   1e633:	c7 85 e4 f2 ff ff 01 	movl   $0x1,-0xd1c(%rbp)
   1e63a:	00 00 00 
   1e63d:	c7 85 30 f3 ff ff fa 	movl   $0xfffffffa,-0xcd0(%rbp)
   1e644:	ff ff ff 
   1e647:	48 8d 05 12 8a 00 00 	lea    0x8a12(%rip),%rax        # 27060 <g_113>
   1e64e:	48 89 85 00 f4 ff ff 	mov    %rax,-0xc00(%rbp)
   1e655:	c7 05 f1 89 00 00 00 	movl   $0x0,0x89f1(%rip)        # 27050 <g_87>
   1e65c:	00 00 00 
   1e65f:	e9 6d 01 00 00       	jmpq   1e7d1 <func_71+0x11ed>
   1e664:	c6 85 c5 f2 ff ff ff 	movb   $0xff,-0xd3b(%rbp)
   1e66b:	48 8d 85 90 f6 ff ff 	lea    -0x970(%rbp),%rax
   1e672:	48 8d 15 e7 c9 00 00 	lea    0xc9e7(%rip),%rdx        # 2b060 <g_3136+0x3760>
   1e679:	b9 23 00 00 00       	mov    $0x23,%ecx
   1e67e:	48 89 c7             	mov    %rax,%rdi
   1e681:	48 89 d6             	mov    %rdx,%rsi
   1e684:	f3 48 a5             	rep movsq %ds:(%rsi),%es:(%rdi)
   1e687:	8b 85 8c f6 ff ff    	mov    -0x974(%rbp),%eax
   1e68d:	83 e8 01             	sub    $0x1,%eax
   1e690:	89 85 8c f6 ff ff    	mov    %eax,-0x974(%rbp)
   1e696:	8b 85 bc f2 ff ff    	mov    -0xd44(%rbp),%eax
   1e69c:	89 05 b2 89 00 00    	mov    %eax,0x89b2(%rip)        # 27054 <g_97>
   1e6a2:	c7 05 a8 89 00 00 e9 	movl   $0xffffffe9,0x89a8(%rip)        # 27054 <g_97>
   1e6a9:	ff ff ff 
   1e6ac:	e9 02 01 00 00       	jmpq   1e7b3 <func_71+0x11cf>
   1e6b1:	c7 85 44 f3 ff ff 01 	movl   $0x1,-0xcbc(%rbp)
   1e6b8:	00 00 00 
   1e6bb:	48 8d 85 b0 f7 ff ff 	lea    -0x850(%rbp),%rax
   1e6c2:	48 8d 15 b7 ca 00 00 	lea    0xcab7(%rip),%rdx        # 2b180 <g_3136+0x3880>
   1e6c9:	b9 5a 00 00 00       	mov    $0x5a,%ecx
   1e6ce:	48 89 c7             	mov    %rax,%rdi
   1e6d1:	48 89 d6             	mov    %rdx,%rsi
   1e6d4:	f3 48 a5             	rep movsq %ds:(%rsi),%es:(%rdi)
   1e6d7:	48 8d 85 90 f6 ff ff 	lea    -0x970(%rbp),%rax
   1e6de:	48 83 c0 78          	add    $0x78,%rax
   1e6e2:	48 89 85 28 f4 ff ff 	mov    %rax,-0xbd8(%rbp)
   1e6e9:	8b 05 65 89 00 00    	mov    0x8965(%rip),%eax        # 27054 <g_97>
   1e6ef:	41 89 c4             	mov    %eax,%r12d
   1e6f2:	8b 05 30 89 00 00    	mov    0x8930(%rip),%eax        # 27028 <g_4>
   1e6f8:	48 98                	cltq   
   1e6fa:	48 89 85 58 f5 ff ff 	mov    %rax,-0xaa8(%rbp)
   1e701:	80 bd c5 f2 ff ff 00 	cmpb   $0x0,-0xd3b(%rbp)
   1e708:	75 57                	jne    1e761 <func_71+0x117d>
   1e70a:	48 8b 85 b0 f2 ff ff 	mov    -0xd50(%rbp),%rax
   1e711:	0f be d8             	movsbl %al,%ebx
   1e714:	48 8b 95 60 f7 ff ff 	mov    -0x8a0(%rbp),%rdx
   1e71b:	48 8b 85 28 f4 ff ff 	mov    -0xbd8(%rbp),%rax
   1e722:	48 89 10             	mov    %rdx,(%rax)
   1e725:	8b 05 29 89 00 00    	mov    0x8929(%rip),%eax        # 27054 <g_97>
   1e72b:	89 85 dc f2 ff ff    	mov    %eax,-0xd24(%rbp)
   1e731:	8b 85 bc f2 ff ff    	mov    -0xd44(%rbp),%eax
   1e737:	85 c0                	test   %eax,%eax
   1e739:	0f 94 c0             	sete   %al
   1e73c:	0f b6 c0             	movzbl %al,%eax
   1e73f:	be 01 00 00 00       	mov    $0x1,%esi
   1e744:	89 c7                	mov    %eax,%edi
   1e746:	e8 01 25 ff ff       	callq  10c4c <safe_lshift_func_uint8_t_u_u>
   1e74b:	0f be c0             	movsbl %al,%eax
   1e74e:	89 de                	mov    %ebx,%esi
   1e750:	89 c7                	mov    %eax,%edi
   1e752:	e8 bb 1a ff ff       	callq  10212 <safe_mul_func_int8_t_s_s>
   1e757:	48 83 bd a8 f2 ff ff 	cmpq   $0x0,-0xd58(%rbp)
   1e75e:	00 
   1e75f:	74 07                	je     1e768 <func_71+0x1184>
   1e761:	b8 01 00 00 00       	mov    $0x1,%eax
   1e766:	eb 05                	jmp    1e76d <func_71+0x1189>
   1e768:	b8 00 00 00 00       	mov    $0x0,%eax
   1e76d:	f7 d0                	not    %eax
   1e76f:	89 c2                	mov    %eax,%edx
   1e771:	8b 05 b1 88 00 00    	mov    0x88b1(%rip),%eax        # 27028 <g_4>
   1e777:	39 c2                	cmp    %eax,%edx
   1e779:	0f 95 c0             	setne  %al
   1e77c:	0f b6 c0             	movzbl %al,%eax
   1e77f:	44 89 e6             	mov    %r12d,%esi
   1e782:	89 c7                	mov    %eax,%edi
   1e784:	e8 7c 1e ff ff       	callq  10605 <safe_sub_func_int32_t_s_s>
   1e789:	39 85 44 f3 ff ff    	cmp    %eax,-0xcbc(%rbp)
   1e78f:	0f 95 c0             	setne  %al
   1e792:	0f b6 c0             	movzbl %al,%eax
   1e795:	89 85 44 f3 ff ff    	mov    %eax,-0xcbc(%rbp)
   1e79b:	8b 05 b3 88 00 00    	mov    0x88b3(%rip),%eax        # 27054 <g_97>
   1e7a1:	be 02 00 00 00       	mov    $0x2,%esi
   1e7a6:	89 c7                	mov    %eax,%edi
   1e7a8:	e8 0b 27 ff ff       	callq  10eb8 <safe_add_func_uint32_t_u_u>
   1e7ad:	89 05 a1 88 00 00    	mov    %eax,0x88a1(%rip)        # 27054 <g_97>
   1e7b3:	8b 05 9b 88 00 00    	mov    0x889b(%rip),%eax        # 27054 <g_97>
   1e7b9:	83 f8 35             	cmp    $0x35,%eax
   1e7bc:	0f 85 ef fe ff ff    	jne    1e6b1 <func_71+0x10cd>
   1e7c2:	8b 05 88 88 00 00    	mov    0x8888(%rip),%eax        # 27050 <g_87>
   1e7c8:	83 c0 01             	add    $0x1,%eax
   1e7cb:	89 05 7f 88 00 00    	mov    %eax,0x887f(%rip)        # 27050 <g_87>
   1e7d1:	8b 05 79 88 00 00    	mov    0x8879(%rip),%eax        # 27050 <g_87>
   1e7d7:	83 f8 06             	cmp    $0x6,%eax
   1e7da:	0f 8e 84 fe ff ff    	jle    1e664 <func_71+0x1080>
   1e7e0:	48 8b 95 58 f5 ff ff 	mov    -0xaa8(%rbp),%rdx
   1e7e7:	48 8b 05 c2 cc 00 00 	mov    0xccc2(%rip),%rax        # 2b4b0 <g_119>
   1e7ee:	48 85 c0             	test   %rax,%rax
   1e7f1:	0f 95 c0             	setne  %al
   1e7f4:	0f b6 c0             	movzbl %al,%eax
   1e7f7:	48 39 c2             	cmp    %rax,%rdx
   1e7fa:	0f 9e c0             	setle  %al
   1e7fd:	0f b6 c0             	movzbl %al,%eax
   1e800:	be 06 00 00 00       	mov    $0x6,%esi
   1e805:	89 c7                	mov    %eax,%edi
   1e807:	e8 19 27 ff ff       	callq  10f25 <safe_div_func_uint32_t_u_u>
   1e80c:	85 c0                	test   %eax,%eax
   1e80e:	0f 84 92 04 00 00    	je     1eca6 <func_71+0x16c2>
   1e814:	66 c7 85 ce f2 ff ff 	movw   $0x1,-0xd32(%rbp)
   1e81b:	01 00 
   1e81d:	c7 85 b0 f7 ff ff ff 	movl   $0xffffffff,-0x850(%rbp)
   1e824:	ff ff ff 
   1e827:	c7 85 b4 f7 ff ff 81 	movl   $0x3a2c9e81,-0x84c(%rbp)
   1e82e:	9e 2c 3a 
   1e831:	c7 85 b8 f7 ff ff ff 	movl   $0xffffffff,-0x848(%rbp)
   1e838:	ff ff ff 
   1e83b:	c7 85 bc f7 ff ff 81 	movl   $0x3a2c9e81,-0x844(%rbp)
   1e842:	9e 2c 3a 
   1e845:	c7 85 c0 f7 ff ff ff 	movl   $0xffffffff,-0x840(%rbp)
   1e84c:	ff ff ff 
   1e84f:	c7 85 c4 f7 ff ff 81 	movl   $0x3a2c9e81,-0x83c(%rbp)
   1e856:	9e 2c 3a 
   1e859:	c7 85 c8 f7 ff ff ff 	movl   $0xffffffff,-0x838(%rbp)
   1e860:	ff ff ff 
   1e863:	c7 85 cc f7 ff ff 7d 	movl   $0x106a97d,-0x834(%rbp)
   1e86a:	a9 06 01 
   1e86d:	c7 85 d0 f7 ff ff 7d 	movl   $0x106a97d,-0x830(%rbp)
   1e874:	a9 06 01 
   1e877:	c7 85 d4 f7 ff ff 7d 	movl   $0x106a97d,-0x82c(%rbp)
   1e87e:	a9 06 01 
   1e881:	c7 85 d8 f7 ff ff 7d 	movl   $0x106a97d,-0x828(%rbp)
   1e888:	a9 06 01 
   1e88b:	c7 85 dc f7 ff ff 7d 	movl   $0x106a97d,-0x824(%rbp)
   1e892:	a9 06 01 
   1e895:	c7 85 e0 f7 ff ff 7d 	movl   $0x106a97d,-0x820(%rbp)
   1e89c:	a9 06 01 
   1e89f:	c7 85 e4 f7 ff ff 7d 	movl   $0x106a97d,-0x81c(%rbp)
   1e8a6:	a9 06 01 
   1e8a9:	c7 85 e8 f7 ff ff ff 	movl   $0xffffffff,-0x818(%rbp)
   1e8b0:	ff ff ff 
   1e8b3:	c7 85 ec f7 ff ff 81 	movl   $0x3a2c9e81,-0x814(%rbp)
   1e8ba:	9e 2c 3a 
   1e8bd:	c7 85 f0 f7 ff ff ff 	movl   $0xffffffff,-0x810(%rbp)
   1e8c4:	ff ff ff 
   1e8c7:	c7 85 f4 f7 ff ff 81 	movl   $0x3a2c9e81,-0x80c(%rbp)
   1e8ce:	9e 2c 3a 
   1e8d1:	c7 85 f8 f7 ff ff ff 	movl   $0xffffffff,-0x808(%rbp)
   1e8d8:	ff ff ff 
   1e8db:	c7 85 fc f7 ff ff 81 	movl   $0x3a2c9e81,-0x804(%rbp)
   1e8e2:	9e 2c 3a 
   1e8e5:	c7 85 00 f8 ff ff ff 	movl   $0xffffffff,-0x800(%rbp)
   1e8ec:	ff ff ff 
   1e8ef:	48 8d 85 c6 f2 ff ff 	lea    -0xd3a(%rbp),%rax
   1e8f6:	48 89 85 10 f4 ff ff 	mov    %rax,-0xbf0(%rbp)
   1e8fd:	c7 05 4d 87 00 00 00 	movl   $0x0,0x874d(%rip)        # 27054 <g_97>
   1e904:	00 00 00 
   1e907:	e9 df 02 00 00       	jmpq   1ebeb <func_71+0x1607>
   1e90c:	c7 85 3c f3 ff ff 92 	movl   $0x49f0f192,-0xcc4(%rbp)
   1e913:	f1 f0 49 
   1e916:	c7 85 40 f3 ff ff 2f 	movl   $0xf2f9eb2f,-0xcc0(%rbp)
   1e91d:	eb f9 f2 
   1e920:	c6 85 c4 f2 ff ff 00 	movb   $0x0,-0xd3c(%rbp)
   1e927:	48 c7 85 18 f4 ff ff 	movq   $0x0,-0xbe8(%rbp)
   1e92e:	00 00 00 00 
   1e932:	48 8d 85 c6 f2 ff ff 	lea    -0xd3a(%rbp),%rax
   1e939:	48 89 85 20 f4 ff ff 	mov    %rax,-0xbe0(%rbp)
   1e940:	c7 85 e8 f2 ff ff 00 	movl   $0x0,-0xd18(%rbp)
   1e947:	00 00 00 
   1e94a:	eb 1e                	jmp    1e96a <func_71+0x1386>
   1e94c:	8b 85 e8 f2 ff ff    	mov    -0xd18(%rbp),%eax
   1e952:	48 98                	cltq   
   1e954:	48 8d 15 2d 87 00 00 	lea    0x872d(%rip),%rdx        # 27088 <g_146+0x8>
   1e95b:	48 89 94 c5 90 f6 ff 	mov    %rdx,-0x970(%rbp,%rax,8)
   1e962:	ff 
   1e963:	83 85 e8 f2 ff ff 01 	addl   $0x1,-0xd18(%rbp)
   1e96a:	83 bd e8 f2 ff ff 02 	cmpl   $0x2,-0xd18(%rbp)
   1e971:	7e d9                	jle    1e94c <func_71+0x1368>
   1e973:	c7 85 e8 f2 ff ff 00 	movl   $0x0,-0xd18(%rbp)
   1e97a:	00 00 00 
   1e97d:	eb 1e                	jmp    1e99d <func_71+0x13b9>
   1e97f:	8b 85 e8 f2 ff ff    	mov    -0xd18(%rbp),%eax
   1e985:	48 98                	cltq   
   1e987:	48 8d 15 36 87 00 00 	lea    0x8736(%rip),%rdx        # 270c4 <g_164>
   1e98e:	48 89 94 c5 40 f4 ff 	mov    %rdx,-0xbc0(%rbp,%rax,8)
   1e995:	ff 
   1e996:	83 85 e8 f2 ff ff 01 	addl   $0x1,-0xd18(%rbp)
   1e99d:	83 bd e8 f2 ff ff 01 	cmpl   $0x1,-0xd18(%rbp)
   1e9a4:	7e d9                	jle    1e97f <func_71+0x139b>
   1e9a6:	8b 05 f8 f0 00 00    	mov    0xf0f8(%rip),%eax        # 2daa4 <g_126>
   1e9ac:	83 c0 01             	add    $0x1,%eax
   1e9af:	89 05 ef f0 00 00    	mov    %eax,0xf0ef(%rip)        # 2daa4 <g_126>
   1e9b5:	0f b7 85 c6 f2 ff ff 	movzwl -0xd3a(%rbp),%eax
   1e9bc:	0f b7 d8             	movzwl %ax,%ebx
   1e9bf:	8b 05 8b 86 00 00    	mov    0x868b(%rip),%eax        # 27050 <g_87>
   1e9c5:	4c 63 e0             	movslq %eax,%r12
   1e9c8:	48 8b 05 91 86 00 00 	mov    0x8691(%rip),%rax        # 27060 <g_113>
   1e9cf:	0f bf d0             	movswl %ax,%edx
   1e9d2:	8b 85 58 f6 ff ff    	mov    -0x9a8(%rbp),%eax
   1e9d8:	8b 0d 72 86 00 00    	mov    0x8672(%rip),%ecx        # 27050 <g_87>
   1e9de:	39 c8                	cmp    %ecx,%eax
   1e9e0:	0f 96 c0             	setbe  %al
   1e9e3:	0f b6 c8             	movzbl %al,%ecx
   1e9e6:	0f b7 05 6b 86 00 00 	movzwl 0x866b(%rip),%eax        # 27058 <g_104>
   1e9ed:	98                   	cwtl   
   1e9ee:	39 c1                	cmp    %eax,%ecx
   1e9f0:	7c 13                	jl     1ea05 <func_71+0x1421>
   1e9f2:	0f b7 05 5f 86 00 00 	movzwl 0x865f(%rip),%eax        # 27058 <g_104>
   1e9f9:	66 85 c0             	test   %ax,%ax
   1e9fc:	74 07                	je     1ea05 <func_71+0x1421>
   1e9fe:	b8 01 00 00 00       	mov    $0x1,%eax
   1ea03:	eb 05                	jmp    1ea0a <func_71+0x1426>
   1ea05:	b8 00 00 00 00       	mov    $0x0,%eax
   1ea0a:	98                   	cwtl   
   1ea0b:	89 d6                	mov    %edx,%esi
   1ea0d:	89 c7                	mov    %eax,%edi
   1ea0f:	e8 bf 19 ff ff       	callq  103d3 <safe_sub_func_int16_t_s_s>
   1ea14:	8b 85 8c f6 ff ff    	mov    -0x974(%rbp),%eax
   1ea1a:	89 c2                	mov    %eax,%edx
   1ea1c:	48 8b 05 3d 86 00 00 	mov    0x863d(%rip),%rax        # 27060 <g_113>
   1ea23:	48 39 c2             	cmp    %rax,%rdx
   1ea26:	0f 9e c0             	setle  %al
   1ea29:	0f b6 c0             	movzbl %al,%eax
   1ea2c:	31 85 e4 f2 ff ff    	xor    %eax,-0xd1c(%rbp)
   1ea32:	8b 85 e4 f2 ff ff    	mov    -0xd1c(%rbp),%eax
   1ea38:	48 98                	cltq   
   1ea3a:	48 be e3 7f ac 17 06 	movabs $0x253400617ac7fe3,%rsi
   1ea41:	40 53 02 
   1ea44:	48 89 c7             	mov    %rax,%rdi
   1ea47:	e8 63 26 ff ff       	callq  110af <safe_div_func_uint64_t_u_u>
   1ea4c:	49 39 c4             	cmp    %rax,%r12
   1ea4f:	0f 96 c0             	setbe  %al
   1ea52:	0f b6 c0             	movzbl %al,%eax
   1ea55:	48 39 85 a8 f2 ff ff 	cmp    %rax,-0xd58(%rbp)
   1ea5c:	0f 96 c0             	setbe  %al
   1ea5f:	0f b6 c0             	movzbl %al,%eax
   1ea62:	89 de                	mov    %ebx,%esi
   1ea64:	89 c7                	mov    %eax,%edi
   1ea66:	e8 ba 24 ff ff       	callq  10f25 <safe_div_func_uint32_t_u_u>
   1ea6b:	85 c0                	test   %eax,%eax
   1ea6d:	75 0a                	jne    1ea79 <func_71+0x1495>
   1ea6f:	66 83 bd ce f2 ff ff 	cmpw   $0x0,-0xd32(%rbp)
   1ea76:	00 
   1ea77:	74 07                	je     1ea80 <func_71+0x149c>
   1ea79:	b8 01 00 00 00       	mov    $0x1,%eax
   1ea7e:	eb 05                	jmp    1ea85 <func_71+0x14a1>
   1ea80:	b8 00 00 00 00       	mov    $0x0,%eax
   1ea85:	48 98                	cltq   
   1ea87:	48 8b 15 d2 85 00 00 	mov    0x85d2(%rip),%rdx        # 27060 <g_113>
   1ea8e:	48 89 c6             	mov    %rax,%rsi
   1ea91:	48 89 d7             	mov    %rdx,%rdi
   1ea94:	e8 16 26 ff ff       	callq  110af <safe_div_func_uint64_t_u_u>
   1ea99:	48 89 c2             	mov    %rax,%rdx
   1ea9c:	48 8b 85 b0 f2 ff ff 	mov    -0xd50(%rbp),%rax
   1eaa3:	48 83 c0 01          	add    $0x1,%rax
   1eaa7:	48 89 94 c5 30 f5 ff 	mov    %rdx,-0xad0(%rbp,%rax,8)
   1eaae:	ff 
   1eaaf:	48 8b 84 c5 30 f5 ff 	mov    -0xad0(%rbp,%rax,8),%rax
   1eab6:	ff 
   1eab7:	48 85 c0             	test   %rax,%rax
   1eaba:	75 0a                	jne    1eac6 <func_71+0x14e2>
   1eabc:	48 83 bd a8 f2 ff ff 	cmpq   $0x0,-0xd58(%rbp)
   1eac3:	00 
   1eac4:	74 07                	je     1eacd <func_71+0x14e9>
   1eac6:	b8 01 00 00 00       	mov    $0x1,%eax
   1eacb:	eb 05                	jmp    1ead2 <func_71+0x14ee>
   1eacd:	b8 00 00 00 00       	mov    $0x0,%eax
   1ead2:	89 c2                	mov    %eax,%edx
   1ead4:	8b 05 e6 85 00 00    	mov    0x85e6(%rip),%eax        # 270c0 <g_149>
   1eada:	09 d0                	or     %edx,%eax
   1eadc:	89 05 de 85 00 00    	mov    %eax,0x85de(%rip)        # 270c0 <g_149>
   1eae2:	8b 05 d8 85 00 00    	mov    0x85d8(%rip),%eax        # 270c0 <g_149>
   1eae8:	89 c0                	mov    %eax,%eax
   1eaea:	be 00 00 00 00       	mov    $0x0,%esi
   1eaef:	48 89 c7             	mov    %rax,%rdi
   1eaf2:	e8 4a 1d ff ff       	callq  10841 <safe_add_func_int64_t_s_s>
   1eaf7:	48 8b 85 b0 f2 ff ff 	mov    -0xd50(%rbp),%rax
   1eafe:	83 c8 01             	or     $0x1,%eax
   1eb01:	89 85 30 f3 ff ff    	mov    %eax,-0xcd0(%rbp)
   1eb07:	c7 05 3f 85 00 00 00 	movl   $0x0,0x853f(%rip)        # 27050 <g_87>
   1eb0e:	00 00 00 
   1eb11:	8b 05 a9 85 00 00    	mov    0x85a9(%rip),%eax        # 270c0 <g_149>
   1eb17:	0f bf d8             	movswl %ax,%ebx
   1eb1a:	8b 05 a0 85 00 00    	mov    0x85a0(%rip),%eax        # 270c0 <g_149>
   1eb20:	44 0f b7 e0          	movzwl %ax,%r12d
   1eb24:	8b 05 fe 84 00 00    	mov    0x84fe(%rip),%eax        # 27028 <g_4>
   1eb2a:	0f b7 d0             	movzwl %ax,%edx
   1eb2d:	48 8b 05 6c 85 00 00 	mov    0x856c(%rip),%rax        # 270a0 <g_146+0x20>
   1eb34:	48 83 e8 01          	sub    $0x1,%rax
   1eb38:	48 89 05 61 85 00 00 	mov    %rax,0x8561(%rip)        # 270a0 <g_146+0x20>
   1eb3f:	48 83 bd a8 f2 ff ff 	cmpq   $0x1,-0xd58(%rbp)
   1eb46:	01 
   1eb47:	0f 96 c0             	setbe  %al
   1eb4a:	0f b6 c8             	movzbl %al,%ecx
   1eb4d:	48 8b 85 20 f4 ff ff 	mov    -0xbe0(%rbp),%rax
   1eb54:	66 89 08             	mov    %cx,(%rax)
   1eb57:	48 8b 85 20 f4 ff ff 	mov    -0xbe0(%rbp),%rax
   1eb5e:	0f b7 00             	movzwl (%rax),%eax
   1eb61:	0f b7 c0             	movzwl %ax,%eax
   1eb64:	89 d6                	mov    %edx,%esi
   1eb66:	89 c7                	mov    %eax,%edi
   1eb68:	e8 21 22 ff ff       	callq  10d8e <safe_div_func_uint16_t_u_u>
   1eb6d:	66 3d 3b 85          	cmp    $0x853b,%ax
   1eb71:	0f 95 c0             	setne  %al
   1eb74:	0f b6 c0             	movzbl %al,%eax
   1eb77:	66 89 05 46 85 00 00 	mov    %ax,0x8546(%rip)        # 270c4 <g_164>
   1eb7e:	0f b7 05 3f 85 00 00 	movzwl 0x853f(%rip),%eax        # 270c4 <g_164>
   1eb85:	0f b7 c0             	movzwl %ax,%eax
   1eb88:	44 89 e6             	mov    %r12d,%esi
   1eb8b:	89 c7                	mov    %eax,%edi
   1eb8d:	e8 ab 21 ff ff       	callq  10d3d <safe_mul_func_uint16_t_u_u>
   1eb92:	0f b7 d0             	movzwl %ax,%edx
   1eb95:	8b 85 bc f2 ff ff    	mov    -0xd44(%rbp),%eax
   1eb9b:	39 c2                	cmp    %eax,%edx
   1eb9d:	0f 95 c0             	setne  %al
   1eba0:	0f b6 c0             	movzbl %al,%eax
   1eba3:	8b 15 fb ee 00 00    	mov    0xeefb(%rip),%edx        # 2daa4 <g_126>
   1eba9:	31 d0                	xor    %edx,%eax
   1ebab:	98                   	cwtl   
   1ebac:	89 de                	mov    %ebx,%esi
   1ebae:	89 c7                	mov    %eax,%edi
   1ebb0:	e8 a0 18 ff ff       	callq  10455 <safe_div_func_int16_t_s_s>
   1ebb5:	8b 85 d0 f7 ff ff    	mov    -0x830(%rbp),%eax
   1ebbb:	48 98                	cltq   
   1ebbd:	ba 9c e0 8d d5       	mov    $0xd58de09c,%edx
   1ebc2:	48 31 d0             	xor    %rdx,%rax
   1ebc5:	8b 95 d0 f2 ff ff    	mov    -0xd30(%rbp),%edx
   1ebcb:	89 d2                	mov    %edx,%edx
   1ebcd:	48 39 d0             	cmp    %rdx,%rax
   1ebd0:	0f 9d c0             	setge  %al
   1ebd3:	0f b6 c0             	movzbl %al,%eax
   1ebd6:	89 85 dc f2 ff ff    	mov    %eax,-0xd24(%rbp)
   1ebdc:	8b 05 72 84 00 00    	mov    0x8472(%rip),%eax        # 27054 <g_97>
   1ebe2:	83 c0 01             	add    $0x1,%eax
   1ebe5:	89 05 69 84 00 00    	mov    %eax,0x8469(%rip)        # 27054 <g_97>
   1ebeb:	8b 05 63 84 00 00    	mov    0x8463(%rip),%eax        # 27054 <g_97>
   1ebf1:	83 f8 09             	cmp    $0x9,%eax
   1ebf4:	0f 86 12 fd ff ff    	jbe    1e90c <func_71+0x1328>
   1ebfa:	48 8b 85 10 f4 ff ff 	mov    -0xbf0(%rbp),%rax
   1ec01:	0f b7 00             	movzwl (%rax),%eax
   1ec04:	8d 48 01             	lea    0x1(%rax),%ecx
   1ec07:	48 8b 95 10 f4 ff ff 	mov    -0xbf0(%rbp),%rdx
   1ec0e:	66 89 0a             	mov    %cx,(%rdx)
   1ec11:	0f b7 c0             	movzwl %ax,%eax
   1ec14:	be 02 00 00 00       	mov    $0x2,%esi
   1ec19:	89 c7                	mov    %eax,%edi
   1ec1b:	e8 e6 21 ff ff       	callq  10e06 <safe_lshift_func_uint16_t_u_u>
   1ec20:	0f b7 c0             	movzwl %ax,%eax
   1ec23:	89 85 e4 f2 ff ff    	mov    %eax,-0xd1c(%rbp)
   1ec29:	48 8b 85 a8 f2 ff ff 	mov    -0xd58(%rbp),%rax
   1ec30:	0f be d8             	movsbl %al,%ebx
   1ec33:	48 8b 85 a8 f2 ff ff 	mov    -0xd58(%rbp),%rax
   1ec3a:	0c fd                	or     $0xfd,%al
   1ec3c:	48 89 c2             	mov    %rax,%rdx
   1ec3f:	8b 05 0b 84 00 00    	mov    0x840b(%rip),%eax        # 27050 <g_87>
   1ec45:	48 98                	cltq   
   1ec47:	48 39 c2             	cmp    %rax,%rdx
   1ec4a:	0f 94 c0             	sete   %al
   1ec4d:	0f b6 d0             	movzbl %al,%edx
   1ec50:	8b 05 d2 83 00 00    	mov    0x83d2(%rip),%eax        # 27028 <g_4>
   1ec56:	98                   	cwtl   
   1ec57:	89 d6                	mov    %edx,%esi
   1ec59:	89 c7                	mov    %eax,%edi
   1ec5b:	e8 81 18 ff ff       	callq  104e1 <safe_lshift_func_int16_t_s_u>
   1ec60:	0f b6 c0             	movzbl %al,%eax
   1ec63:	be 00 00 00 00       	mov    $0x0,%esi
   1ec68:	89 c7                	mov    %eax,%edi
   1ec6a:	e8 24 1f ff ff       	callq  10b93 <safe_mul_func_uint8_t_u_u>
   1ec6f:	0f be c0             	movsbl %al,%eax
   1ec72:	89 de                	mov    %ebx,%esi
   1ec74:	89 c7                	mov    %eax,%edi
   1ec76:	e8 97 15 ff ff       	callq  10212 <safe_mul_func_int8_t_s_s>
   1ec7b:	0f b7 05 d6 83 00 00 	movzwl 0x83d6(%rip),%eax        # 27058 <g_104>
   1ec82:	48 0f bf c0          	movswq %ax,%rax
   1ec86:	83 e0 01             	and    $0x1,%eax
   1ec89:	48 8b 15 10 84 00 00 	mov    0x8410(%rip),%rdx        # 270a0 <g_146+0x20>
   1ec90:	48 89 c6             	mov    %rax,%rsi
   1ec93:	48 89 d7             	mov    %rdx,%rdi
   1ec96:	e8 a6 1b ff ff       	callq  10841 <safe_add_func_int64_t_s_s>
   1ec9b:	89 85 30 f3 ff ff    	mov    %eax,-0xcd0(%rbp)
   1eca1:	e9 d4 01 00 00       	jmpq   1ee7a <func_71+0x1896>
   1eca6:	66 c7 85 cc f2 ff ff 	movw   $0x9836,-0xd34(%rbp)
   1ecad:	36 98 
   1ecaf:	c7 85 34 f3 ff ff 60 	movl   $0x32a0aa60,-0xccc(%rbp)
   1ecb6:	aa a0 32 
   1ecb9:	c7 05 8d 83 00 00 f5 	movl   $0xfffffff5,0x838d(%rip)        # 27050 <g_87>
   1ecc0:	ff ff ff 
   1ecc3:	e9 a3 01 00 00       	jmpq   1ee6b <func_71+0x1887>
   1ecc8:	48 8d 05 f7 83 00 00 	lea    0x83f7(%rip),%rax        # 270c6 <g_192>
   1eccf:	48 89 85 08 f4 ff ff 	mov    %rax,-0xbf8(%rbp)
   1ecd6:	c7 85 38 f3 ff ff 00 	movl   $0x0,-0xcc8(%rbp)
   1ecdd:	00 00 00 
   1ece0:	48 8b 85 b0 f2 ff ff 	mov    -0xd50(%rbp),%rax
   1ece7:	0f b6 d8             	movzbl %al,%ebx
   1ecea:	48 8b 85 a8 f2 ff ff 	mov    -0xd58(%rbp),%rax
   1ecf1:	41 89 c6             	mov    %eax,%r14d
   1ecf4:	44 0f b7 a5 cc f2 ff 	movzwl -0xd34(%rbp),%r12d
   1ecfb:	ff 
   1ecfc:	8b 85 38 f3 ff ff    	mov    -0xcc8(%rbp),%eax
   1ed02:	44 0f b7 e8          	movzwl %ax,%r13d
   1ed06:	be a2 ff ff ff       	mov    $0xffffffa2,%esi
   1ed0b:	bf fd ff ff ff       	mov    $0xfffffffd,%edi
   1ed10:	e8 55 15 ff ff       	callq  1026a <safe_div_func_int8_t_s_s>
   1ed15:	0f be d0             	movsbl %al,%edx
   1ed18:	8b 85 bc f2 ff ff    	mov    -0xd44(%rbp),%eax
   1ed1e:	39 c2                	cmp    %eax,%edx
   1ed20:	0f 95 c0             	setne  %al
   1ed23:	0f b6 c0             	movzbl %al,%eax
   1ed26:	be ff ff ff ff       	mov    $0xffffffff,%esi
   1ed2b:	89 c7                	mov    %eax,%edi
   1ed2d:	e8 84 18 ff ff       	callq  105b6 <safe_add_func_int32_t_s_s>
   1ed32:	39 85 e4 f2 ff ff    	cmp    %eax,-0xd1c(%rbp)
   1ed38:	0f 95 c0             	setne  %al
   1ed3b:	0f b6 c0             	movzbl %al,%eax
   1ed3e:	44 89 ee             	mov    %r13d,%esi
   1ed41:	89 c7                	mov    %eax,%edi
   1ed43:	e8 b7 1f ff ff       	callq  10cff <safe_add_func_uint16_t_u_u>
   1ed48:	0f b6 d0             	movzbl %al,%edx
   1ed4b:	48 8d 05 75 83 00 00 	lea    0x8375(%rip),%rax        # 270c7 <g_202>
   1ed52:	48 39 85 90 f3 ff ff 	cmp    %rax,-0xc70(%rbp)
   1ed59:	0f 95 c0             	setne  %al
   1ed5c:	0f b6 c0             	movzbl %al,%eax
   1ed5f:	89 d6                	mov    %edx,%esi
   1ed61:	89 c7                	mov    %eax,%edi
   1ed63:	e8 2b 1e ff ff       	callq  10b93 <safe_mul_func_uint8_t_u_u>
   1ed68:	be 01 00 00 00       	mov    $0x1,%esi
   1ed6d:	bf 00 00 00 00       	mov    $0x0,%edi
   1ed72:	e8 7b 14 ff ff       	callq  101f2 <safe_sub_func_int8_t_s_s>
   1ed77:	0f be d0             	movsbl %al,%edx
   1ed7a:	48 8b 85 a8 f2 ff ff 	mov    -0xd58(%rbp),%rax
   1ed81:	98                   	cwtl   
   1ed82:	89 d6                	mov    %edx,%esi
   1ed84:	89 c7                	mov    %eax,%edi
   1ed86:	e8 8b 16 ff ff       	callq  10416 <safe_mod_func_int16_t_s_s>
   1ed8b:	98                   	cwtl   
   1ed8c:	44 89 e6             	mov    %r12d,%esi
   1ed8f:	89 c7                	mov    %eax,%edi
   1ed91:	e8 4b 17 ff ff       	callq  104e1 <safe_lshift_func_int16_t_s_u>
   1ed96:	98                   	cwtl   
   1ed97:	39 85 38 f3 ff ff    	cmp    %eax,-0xcc8(%rbp)
   1ed9d:	0f 95 c0             	setne  %al
   1eda0:	0f b6 d0             	movzbl %al,%edx
   1eda3:	48 8b 05 06 c7 00 00 	mov    0xc706(%rip),%rax        # 2b4b0 <g_119>
   1edaa:	48 8b 00             	mov    (%rax),%rax
   1edad:	48 85 c0             	test   %rax,%rax
   1edb0:	0f 95 c0             	setne  %al
   1edb3:	89 c1                	mov    %eax,%ecx
   1edb5:	48 8b 85 08 f4 ff ff 	mov    -0xbf8(%rbp),%rax
   1edbc:	88 08                	mov    %cl,(%rax)
   1edbe:	48 8b 85 08 f4 ff ff 	mov    -0xbf8(%rbp),%rax
   1edc5:	0f b6 00             	movzbl (%rax),%eax
   1edc8:	0f be c0             	movsbl %al,%eax
   1edcb:	89 d6                	mov    %edx,%esi
   1edcd:	89 c7                	mov    %eax,%edi
   1edcf:	e8 00 14 ff ff       	callq  101d4 <safe_add_func_int8_t_s_s>
   1edd4:	0f be d0             	movsbl %al,%edx
   1edd7:	8b 05 73 82 00 00    	mov    0x8273(%rip),%eax        # 27050 <g_87>
   1eddd:	09 c2                	or     %eax,%edx
   1eddf:	0f b6 05 e1 82 00 00 	movzbl 0x82e1(%rip),%eax        # 270c7 <g_202>
   1ede6:	0f be c0             	movsbl %al,%eax
   1ede9:	21 d0                	and    %edx,%eax
   1edeb:	44 89 f6             	mov    %r14d,%esi
   1edee:	89 c7                	mov    %eax,%edi
   1edf0:	e8 10 18 ff ff       	callq  10605 <safe_sub_func_int32_t_s_s>
   1edf5:	89 c2                	mov    %eax,%edx
   1edf7:	8b 05 2b 82 00 00    	mov    0x822b(%rip),%eax        # 27028 <g_4>
   1edfd:	98                   	cwtl   
   1edfe:	89 d6                	mov    %edx,%esi
   1ee00:	89 c7                	mov    %eax,%edi
   1ee02:	e8 da 16 ff ff       	callq  104e1 <safe_lshift_func_int16_t_s_u>
   1ee07:	0f b6 c0             	movzbl %al,%eax
   1ee0a:	89 de                	mov    %ebx,%esi
   1ee0c:	89 c7                	mov    %eax,%edi
   1ee0e:	e8 80 1d ff ff       	callq  10b93 <safe_mul_func_uint8_t_u_u>
   1ee13:	88 05 af 82 00 00    	mov    %al,0x82af(%rip)        # 270c8 <g_211>
   1ee19:	0f b6 05 a8 82 00 00 	movzbl 0x82a8(%rip),%eax        # 270c8 <g_211>
   1ee20:	0f b6 d0             	movzbl %al,%edx
   1ee23:	48 8b 05 a6 82 00 00 	mov    0x82a6(%rip),%rax        # 270d0 <g_212>
   1ee2a:	48 09 d0             	or     %rdx,%rax
   1ee2d:	48 89 05 9c 82 00 00 	mov    %rax,0x829c(%rip)        # 270d0 <g_212>
   1ee34:	8b 05 9e 82 00 00    	mov    0x829e(%rip),%eax        # 270d8 <g_213>
   1ee3a:	83 e8 01             	sub    $0x1,%eax
   1ee3d:	89 05 95 82 00 00    	mov    %eax,0x8295(%rip)        # 270d8 <g_213>
   1ee43:	8b 05 f7 82 00 00    	mov    0x82f7(%rip),%eax        # 27140 <g_220+0x40>
   1ee49:	83 e8 01             	sub    $0x1,%eax
   1ee4c:	89 05 ee 82 00 00    	mov    %eax,0x82ee(%rip)        # 27140 <g_220+0x40>
   1ee52:	48 8b 05 07 82 00 00 	mov    0x8207(%rip),%rax        # 27060 <g_113>
   1ee59:	48 85 c0             	test   %rax,%rax
   1ee5c:	8b 05 ee 81 00 00    	mov    0x81ee(%rip),%eax        # 27050 <g_87>
   1ee62:	83 e8 01             	sub    $0x1,%eax
   1ee65:	89 05 e5 81 00 00    	mov    %eax,0x81e5(%rip)        # 27050 <g_87>
   1ee6b:	8b 05 df 81 00 00    	mov    0x81df(%rip),%eax        # 27050 <g_87>
   1ee71:	83 f8 f4             	cmp    $0xfffffff4,%eax
   1ee74:	0f 85 4e fe ff ff    	jne    1ecc8 <func_71+0x16e4>
   1ee7a:	48 83 85 b0 f2 ff ff 	addq   $0x1,-0xd50(%rbp)
   1ee81:	01 
   1ee82:	48 83 bd b0 f2 ff ff 	cmpq   $0x6,-0xd50(%rbp)
   1ee89:	06 
   1ee8a:	0f 8e 13 f6 ff ff    	jle    1e4a3 <func_71+0xebf>
   1ee90:	48 c7 05 35 82 00 00 	movq   $0x0,0x8235(%rip)        # 270d0 <g_212>
   1ee97:	00 00 00 00 
   1ee9b:	90                   	nop
   1ee9c:	48 8b 05 2d 82 00 00 	mov    0x822d(%rip),%rax        # 270d0 <g_212>
   1eea3:	48 83 f8 1b          	cmp    $0x1b,%rax
   1eea7:	0f 87 52 05 00 00    	ja     1f3ff <func_71+0x1e1b>
   1eead:	c7 85 24 f3 ff ff ff 	movl   $0xffffffff,-0xcdc(%rbp)
   1eeb4:	ff ff ff 
   1eeb7:	66 c7 85 ca f2 ff ff 	movw   $0xe41a,-0xd36(%rbp)
   1eebe:	1a e4 
   1eec0:	48 c7 85 88 f3 ff ff 	movq   $0x0,-0xc78(%rbp)
   1eec7:	00 00 00 00 
   1eecb:	c7 85 28 f3 ff ff 4b 	movl   $0xe615f84b,-0xcd8(%rbp)
   1eed2:	f8 15 e6 
   1eed5:	c7 05 f9 81 00 00 17 	movl   $0x17,0x81f9(%rip)        # 270d8 <g_213>
   1eedc:	00 00 00 
   1eedf:	e9 99 04 00 00       	jmpq   1f37d <func_71+0x1d99>
   1eee4:	c7 45 c0 fe fe fe fe 	movl   $0xfefefefe,-0x40(%rbp)
   1eeeb:	c6 45 c4 fe          	movb   $0xfe,-0x3c(%rbp)
   1eeef:	c7 85 2c f3 ff ff 4e 	movl   $0xbca8e44e,-0xcd4(%rbp)
   1eef6:	e4 a8 bc 
   1eef9:	c7 85 ec f2 ff ff 00 	movl   $0x0,-0xd14(%rbp)
   1ef00:	00 00 00 
   1ef03:	eb 1a                	jmp    1ef1f <func_71+0x193b>
   1ef05:	8b 85 ec f2 ff ff    	mov    -0xd14(%rbp),%eax
   1ef0b:	48 98                	cltq   
   1ef0d:	c7 84 85 f0 f5 ff ff 	movl   $0x0,-0xa10(%rbp,%rax,4)
   1ef14:	00 00 00 00 
   1ef18:	83 85 ec f2 ff ff 01 	addl   $0x1,-0xd14(%rbp)
   1ef1f:	83 bd ec f2 ff ff 04 	cmpl   $0x4,-0xd14(%rbp)
   1ef26:	7e dd                	jle    1ef05 <func_71+0x1921>
   1ef28:	c7 85 e0 f2 ff ff e9 	movl   $0xffffffe9,-0xd20(%rbp)
   1ef2f:	ff ff ff 
   1ef32:	e9 16 04 00 00       	jmpq   1f34d <func_71+0x1d69>
   1ef37:	c7 85 90 f6 ff ff 23 	movl   $0x460fd523,-0x970(%rbp)
   1ef3e:	d5 0f 46 
   1ef41:	c7 85 94 f6 ff ff 23 	movl   $0x460fd523,-0x96c(%rbp)
   1ef48:	d5 0f 46 
   1ef4b:	c7 85 98 f6 ff ff 23 	movl   $0x460fd523,-0x968(%rbp)
   1ef52:	d5 0f 46 
   1ef55:	c7 85 9c f6 ff ff 23 	movl   $0x460fd523,-0x964(%rbp)
   1ef5c:	d5 0f 46 
   1ef5f:	c7 85 a0 f6 ff ff 23 	movl   $0x460fd523,-0x960(%rbp)
   1ef66:	d5 0f 46 
   1ef69:	c7 85 a4 f6 ff ff 23 	movl   $0x460fd523,-0x95c(%rbp)
   1ef70:	d5 0f 46 
   1ef73:	48 8d 85 d0 f2 ff ff 	lea    -0xd30(%rbp),%rax
   1ef7a:	48 89 85 b0 f7 ff ff 	mov    %rax,-0x850(%rbp)
   1ef81:	48 8d 05 b8 81 00 00 	lea    0x81b8(%rip),%rax        # 27140 <g_220+0x40>
   1ef88:	48 89 85 b8 f7 ff ff 	mov    %rax,-0x848(%rbp)
   1ef8f:	48 8d 05 aa 81 00 00 	lea    0x81aa(%rip),%rax        # 27140 <g_220+0x40>
   1ef96:	48 89 85 c0 f7 ff ff 	mov    %rax,-0x840(%rbp)
   1ef9d:	48 8d 85 d0 f2 ff ff 	lea    -0xd30(%rbp),%rax
   1efa4:	48 89 85 c8 f7 ff ff 	mov    %rax,-0x838(%rbp)
   1efab:	48 8d 05 8e 81 00 00 	lea    0x818e(%rip),%rax        # 27140 <g_220+0x40>
   1efb2:	48 89 85 d0 f7 ff ff 	mov    %rax,-0x830(%rbp)
   1efb9:	48 8d 05 80 81 00 00 	lea    0x8180(%rip),%rax        # 27140 <g_220+0x40>
   1efc0:	48 89 85 d8 f7 ff ff 	mov    %rax,-0x828(%rbp)
   1efc7:	c7 85 40 f4 ff ff ff 	movl   $0xffffffff,-0xbc0(%rbp)
   1efce:	ff ff ff 
   1efd1:	c7 85 44 f4 ff ff ff 	movl   $0xffffffff,-0xbbc(%rbp)
   1efd8:	ff ff ff 
   1efdb:	c7 85 48 f4 ff ff ff 	movl   $0xffffffff,-0xbb8(%rbp)
   1efe2:	ff ff ff 
   1efe5:	c7 85 4c f4 ff ff ff 	movl   $0xffffffff,-0xbb4(%rbp)
   1efec:	ff ff ff 
   1efef:	48 8d 05 d2 80 00 00 	lea    0x80d2(%rip),%rax        # 270c8 <g_211>
   1eff6:	48 89 85 f0 f3 ff ff 	mov    %rax,-0xc10(%rbp)
   1effd:	48 8d 85 90 f6 ff ff 	lea    -0x970(%rbp),%rax
   1f004:	48 83 c0 14          	add    $0x14,%rax
   1f008:	48 89 85 f8 f3 ff ff 	mov    %rax,-0xc08(%rbp)
   1f00f:	8b 05 ab 80 00 00    	mov    0x80ab(%rip),%eax        # 270c0 <g_149>
   1f015:	41 89 c6             	mov    %eax,%r14d
   1f018:	8b 05 06 81 00 00    	mov    0x8106(%rip),%eax        # 27124 <g_220+0x24>
   1f01e:	0f b7 d8             	movzwl %ax,%ebx
   1f021:	8b 05 29 80 00 00    	mov    0x8029(%rip),%eax        # 27050 <g_87>
   1f027:	4c 63 e0             	movslq %eax,%r12
   1f02a:	8b 05 f8 7f 00 00    	mov    0x7ff8(%rip),%eax        # 27028 <g_4>
   1f030:	85 c0                	test   %eax,%eax
   1f032:	74 66                	je     1f09a <func_71+0x1ab6>
   1f034:	48 8b 85 b0 f2 ff ff 	mov    -0xd50(%rbp),%rax
   1f03b:	66 89 05 82 80 00 00 	mov    %ax,0x8082(%rip)        # 270c4 <g_164>
   1f042:	0f b7 05 7b 80 00 00 	movzwl 0x807b(%rip),%eax        # 270c4 <g_164>
   1f049:	66 3d d3 d3          	cmp    $0xd3d3,%ax
   1f04d:	0f 97 c0             	seta   %al
   1f050:	0f b6 c0             	movzbl %al,%eax
   1f053:	48 39 85 a8 f2 ff ff 	cmp    %rax,-0xd58(%rbp)
   1f05a:	0f 95 c0             	setne  %al
   1f05d:	0f b6 c0             	movzbl %al,%eax
   1f060:	48 23 85 b0 f2 ff ff 	and    -0xd50(%rbp),%rax
   1f067:	49 89 c5             	mov    %rax,%r13
   1f06a:	0f bf 85 b8 f2 ff ff 	movswl -0xd48(%rbp),%eax
   1f071:	be fc ff ff ff       	mov    $0xfffffffc,%esi
   1f076:	89 c7                	mov    %eax,%edi
   1f078:	e8 39 15 ff ff       	callq  105b6 <safe_add_func_int32_t_s_s>
   1f07d:	48 98                	cltq   
   1f07f:	49 39 c5             	cmp    %rax,%r13
   1f082:	0f 9d c0             	setge  %al
   1f085:	0f b6 d0             	movzbl %al,%edx
   1f088:	0f b6 45 c3          	movzbl -0x3d(%rbp),%eax
   1f08c:	0f be c0             	movsbl %al,%eax
   1f08f:	39 c2                	cmp    %eax,%edx
   1f091:	7f 07                	jg     1f09a <func_71+0x1ab6>
   1f093:	b8 01 00 00 00       	mov    $0x1,%eax
   1f098:	eb 05                	jmp    1f09f <func_71+0x1abb>
   1f09a:	b8 00 00 00 00       	mov    $0x0,%eax
   1f09f:	48 63 d0             	movslq %eax,%rdx
   1f0a2:	48 8b 85 58 f5 ff ff 	mov    -0xaa8(%rbp),%rax
   1f0a9:	48 09 d0             	or     %rdx,%rax
   1f0ac:	4c 31 e0             	xor    %r12,%rax
   1f0af:	8b 95 90 f6 ff ff    	mov    -0x970(%rbp),%edx
   1f0b5:	89 d2                	mov    %edx,%edx
   1f0b7:	48 39 d0             	cmp    %rdx,%rax
   1f0ba:	0f 9d c0             	setge  %al
   1f0bd:	0f b6 d0             	movzbl %al,%edx
   1f0c0:	0f b6 05 00 80 00 00 	movzbl 0x8000(%rip),%eax        # 270c7 <g_202>
   1f0c7:	0f be c0             	movsbl %al,%eax
   1f0ca:	39 c2                	cmp    %eax,%edx
   1f0cc:	0f 9c c0             	setl   %al
   1f0cf:	0f b6 d0             	movzbl %al,%edx
   1f0d2:	8b 85 9c f6 ff ff    	mov    -0x964(%rbp),%eax
   1f0d8:	39 c2                	cmp    %eax,%edx
   1f0da:	0f 93 c0             	setae  %al
   1f0dd:	0f b6 c0             	movzbl %al,%eax
   1f0e0:	89 85 00 f6 ff ff    	mov    %eax,-0xa00(%rbp)
   1f0e6:	8b 85 00 f6 ff ff    	mov    -0xa00(%rbp),%eax
   1f0ec:	89 c2                	mov    %eax,%edx
   1f0ee:	8b 85 90 f6 ff ff    	mov    -0x970(%rbp),%eax
   1f0f4:	39 c2                	cmp    %eax,%edx
   1f0f6:	75 14                	jne    1f10c <func_71+0x1b28>
   1f0f8:	66 83 bd b8 f2 ff ff 	cmpw   $0x0,-0xd48(%rbp)
   1f0ff:	00 
   1f100:	75 0a                	jne    1f10c <func_71+0x1b28>
   1f102:	48 83 bd b0 f2 ff ff 	cmpq   $0x0,-0xd50(%rbp)
   1f109:	00 
   1f10a:	74 07                	je     1f113 <func_71+0x1b2f>
   1f10c:	b8 01 00 00 00       	mov    $0x1,%eax
   1f111:	eb 05                	jmp    1f118 <func_71+0x1b34>
   1f113:	b8 00 00 00 00       	mov    $0x0,%eax
   1f118:	0f b7 c0             	movzwl %ax,%eax
   1f11b:	89 de                	mov    %ebx,%esi
   1f11d:	89 c7                	mov    %eax,%edi
   1f11f:	e8 fb 1b ff ff       	callq  10d1f <safe_sub_func_uint16_t_u_u>
   1f124:	98                   	cwtl   
   1f125:	be 04 00 00 00       	mov    $0x4,%esi
   1f12a:	89 c7                	mov    %eax,%edi
   1f12c:	e8 32 14 ff ff       	callq  10563 <safe_rshift_func_int16_t_s_u>
   1f131:	98                   	cwtl   
   1f132:	44 89 f6             	mov    %r14d,%esi
   1f135:	89 c7                	mov    %eax,%edi
   1f137:	e8 56 13 ff ff       	callq  10492 <safe_lshift_func_int16_t_s_s>
   1f13c:	8b 85 9c f6 ff ff    	mov    -0x964(%rbp),%eax
   1f142:	83 f8 01             	cmp    $0x1,%eax
   1f145:	0f 95 c0             	setne  %al
   1f148:	0f b6 c0             	movzbl %al,%eax
   1f14b:	89 85 2c f3 ff ff    	mov    %eax,-0xcd4(%rbp)
   1f151:	8b 85 bc f2 ff ff    	mov    -0xd44(%rbp),%eax
   1f157:	41 89 c5             	mov    %eax,%r13d
   1f15a:	48 8b 05 6f 7f 00 00 	mov    0x7f6f(%rip),%rax        # 270d0 <g_212>
   1f161:	41 89 c6             	mov    %eax,%r14d
   1f164:	0f bf 9d b8 f2 ff ff 	movswl -0xd48(%rbp),%ebx
   1f16b:	44 0f bf a5 b8 f2 ff 	movswl -0xd48(%rbp),%r12d
   1f172:	ff 
   1f173:	8b 85 48 f4 ff ff    	mov    -0xbb8(%rbp),%eax
   1f179:	83 c8 01             	or     $0x1,%eax
   1f17c:	89 85 48 f4 ff ff    	mov    %eax,-0xbb8(%rbp)
   1f182:	8b 05 a0 7f 00 00    	mov    0x7fa0(%rip),%eax        # 27128 <g_220+0x28>
   1f188:	0f b7 d0             	movzwl %ax,%edx
   1f18b:	48 8b 85 90 f3 ff ff 	mov    -0xc70(%rbp),%rax
   1f192:	0f b6 08             	movzbl (%rax),%ecx
   1f195:	48 8d 45 c0          	lea    -0x40(%rbp),%rax
   1f199:	48 83 c0 01          	add    $0x1,%rax
   1f19d:	48 39 85 a0 f3 ff ff 	cmp    %rax,-0xc60(%rbp)
   1f1a4:	0f 95 c0             	setne  %al
   1f1a7:	09 c1                	or     %eax,%ecx
   1f1a9:	48 8b 85 90 f3 ff ff 	mov    -0xc70(%rbp),%rax
   1f1b0:	88 08                	mov    %cl,(%rax)
   1f1b2:	48 8b 85 90 f3 ff ff 	mov    -0xc70(%rbp),%rax
   1f1b9:	0f b6 00             	movzbl (%rax),%eax
   1f1bc:	0f be c0             	movsbl %al,%eax
   1f1bf:	8b 8d bc f2 ff ff    	mov    -0xd44(%rbp),%ecx
   1f1c5:	f7 d1                	not    %ecx
   1f1c7:	21 c8                	and    %ecx,%eax
   1f1c9:	3d 28 45 00 00       	cmp    $0x4528,%eax
   1f1ce:	0f 96 c0             	setbe  %al
   1f1d1:	0f b6 c0             	movzbl %al,%eax
   1f1d4:	89 d6                	mov    %edx,%esi
   1f1d6:	89 c7                	mov    %eax,%edi
   1f1d8:	e8 b1 1b ff ff       	callq  10d8e <safe_div_func_uint16_t_u_u>
   1f1dd:	66 83 f8 14          	cmp    $0x14,%ax
   1f1e1:	0f b7 05 70 7e 00 00 	movzwl 0x7e70(%rip),%eax        # 27058 <g_104>
   1f1e8:	98                   	cwtl   
   1f1e9:	89 85 00 f6 ff ff    	mov    %eax,-0xa00(%rbp)
   1f1ef:	8b 95 00 f6 ff ff    	mov    -0xa00(%rbp),%edx
   1f1f5:	0f b6 05 cc 7e 00 00 	movzbl 0x7ecc(%rip),%eax        # 270c8 <g_211>
   1f1fc:	0f b6 c0             	movzbl %al,%eax
   1f1ff:	39 c2                	cmp    %eax,%edx
   1f201:	0f 9f c0             	setg   %al
   1f204:	0f b6 c0             	movzbl %al,%eax
   1f207:	44 89 e6             	mov    %r12d,%esi
   1f20a:	89 c7                	mov    %eax,%edi
   1f20c:	e8 05 12 ff ff       	callq  10416 <safe_mod_func_int16_t_s_s>
   1f211:	98                   	cwtl   
   1f212:	89 de                	mov    %ebx,%esi
   1f214:	89 c7                	mov    %eax,%edi
   1f216:	e8 b5 1c ff ff       	callq  10ed0 <safe_sub_func_uint32_t_u_u>
   1f21b:	89 c2                	mov    %eax,%edx
   1f21d:	0f b7 85 b8 f2 ff ff 	movzwl -0xd48(%rbp),%eax
   1f224:	09 d0                	or     %edx,%eax
   1f226:	0f be c0             	movsbl %al,%eax
   1f229:	be 04 00 00 00       	mov    $0x4,%esi
   1f22e:	89 c7                	mov    %eax,%edi
   1f230:	e8 b9 10 ff ff       	callq  102ee <safe_lshift_func_int8_t_s_u>
   1f235:	48 83 bd a8 f2 ff ff 	cmpq   $0x0,-0xd58(%rbp)
   1f23c:	00 
   1f23d:	74 11                	je     1f250 <func_71+0x1c6c>
   1f23f:	48 83 bd b0 f2 ff ff 	cmpq   $0x0,-0xd50(%rbp)
   1f246:	00 
   1f247:	74 07                	je     1f250 <func_71+0x1c6c>
   1f249:	b8 01 00 00 00       	mov    $0x1,%eax
   1f24e:	eb 05                	jmp    1f255 <func_71+0x1c71>
   1f250:	b8 00 00 00 00       	mov    $0x0,%eax
   1f255:	48 63 d8             	movslq %eax,%rbx
   1f258:	48 8b 85 b0 f2 ff ff 	mov    -0xd50(%rbp),%rax
   1f25f:	0f b6 c0             	movzbl %al,%eax
   1f262:	89 c7                	mov    %eax,%edi
   1f264:	e8 dc 18 ff ff       	callq  10b45 <safe_unary_minus_func_uint8_t_u>
   1f269:	0f b6 c0             	movzbl %al,%eax
   1f26c:	48 89 de             	mov    %rbx,%rsi
   1f26f:	48 89 c7             	mov    %rax,%rdi
   1f272:	e8 31 16 ff ff       	callq  108a8 <safe_sub_func_int64_t_s_s>
   1f277:	8b 05 27 e8 00 00    	mov    0xe827(%rip),%eax        # 2daa4 <g_126>
   1f27d:	85 c0                	test   %eax,%eax
   1f27f:	0f 95 c0             	setne  %al
   1f282:	89 c2                	mov    %eax,%edx
   1f284:	48 8b 85 f0 f3 ff ff 	mov    -0xc10(%rbp),%rax
   1f28b:	88 10                	mov    %dl,(%rax)
   1f28d:	48 8b 85 f0 f3 ff ff 	mov    -0xc10(%rbp),%rax
   1f294:	0f b6 00             	movzbl (%rax),%eax
   1f297:	0f b6 c0             	movzbl %al,%eax
   1f29a:	44 89 f6             	mov    %r14d,%esi
   1f29d:	89 c7                	mov    %eax,%edi
   1f29f:	e8 a8 19 ff ff       	callq  10c4c <safe_lshift_func_uint8_t_u_u>
   1f2a4:	0f b6 d0             	movzbl %al,%edx
   1f2a7:	8b 05 a3 7d 00 00    	mov    0x7da3(%rip),%eax        # 27050 <g_87>
   1f2ad:	39 c2                	cmp    %eax,%edx
   1f2af:	0f 9c c0             	setl   %al
   1f2b2:	0f b6 c0             	movzbl %al,%eax
   1f2b5:	4c 89 ee             	mov    %r13,%rsi
   1f2b8:	48 89 c7             	mov    %rax,%rdi
   1f2bb:	e8 f4 16 ff ff       	callq  109b4 <safe_mod_func_int64_t_s_s>
   1f2c0:	48 89 c2             	mov    %rax,%rdx
   1f2c3:	48 8b 85 b0 f2 ff ff 	mov    -0xd50(%rbp),%rax
   1f2ca:	48 89 d6             	mov    %rdx,%rsi
   1f2cd:	48 89 c7             	mov    %rax,%rdi
   1f2d0:	e8 76 1d ff ff       	callq  1104b <safe_sub_func_uint64_t_u_u>
   1f2d5:	48 85 c0             	test   %rax,%rax
   1f2d8:	75 08                	jne    1f2e2 <func_71+0x1cfe>
   1f2da:	8b 05 e0 7d 00 00    	mov    0x7de0(%rip),%eax        # 270c0 <g_149>
   1f2e0:	85 c0                	test   %eax,%eax
   1f2e2:	0f b6 05 dd 7d 00 00 	movzbl 0x7ddd(%rip),%eax        # 270c6 <g_192>
   1f2e9:	0f be d0             	movsbl %al,%edx
   1f2ec:	8b 85 bc f2 ff ff    	mov    -0xd44(%rbp),%eax
   1f2f2:	89 c1                	mov    %eax,%ecx
   1f2f4:	48 8b 05 ed 7d 00 00 	mov    0x7ded(%rip),%rax        # 270e8 <g_219>
   1f2fb:	48 39 c1             	cmp    %rax,%rcx
   1f2fe:	0f 9d c0             	setge  %al
   1f301:	0f b6 c0             	movzbl %al,%eax
   1f304:	21 d0                	and    %edx,%eax
   1f306:	89 05 44 7d 00 00    	mov    %eax,0x7d44(%rip)        # 27050 <g_87>
   1f30c:	48 8b 05 6d 7d 00 00 	mov    0x7d6d(%rip),%rax        # 27080 <g_146>
   1f313:	89 c2                	mov    %eax,%edx
   1f315:	48 8b 85 f8 f3 ff ff 	mov    -0xc08(%rbp),%rax
   1f31c:	89 10                	mov    %edx,(%rax)
   1f31e:	48 83 bd 88 f3 ff ff 	cmpq   $0x0,-0xc78(%rbp)
   1f325:	00 
   1f326:	0f 95 c0             	setne  %al
   1f329:	0f b6 c0             	movzbl %al,%eax
   1f32c:	89 05 1e 7d 00 00    	mov    %eax,0x7d1e(%rip)        # 27050 <g_87>
   1f332:	8b 85 e0 f2 ff ff    	mov    -0xd20(%rbp),%eax
   1f338:	48 98                	cltq   
   1f33a:	be 09 00 00 00       	mov    $0x9,%esi
   1f33f:	48 89 c7             	mov    %rax,%rdi
   1f342:	e8 e7 1c ff ff       	callq  1102e <safe_add_func_uint64_t_u_u>
   1f347:	89 85 e0 f2 ff ff    	mov    %eax,-0xd20(%rbp)
   1f34d:	83 bd e0 f2 ff ff 05 	cmpl   $0x5,-0xd20(%rbp)
   1f354:	0f 8e dd fb ff ff    	jle    1ef37 <func_71+0x1953>
   1f35a:	48 8b 15 4f c1 00 00 	mov    0xc14f(%rip),%rdx        # 2b4b0 <g_119>
   1f361:	48 8b 05 48 c1 00 00 	mov    0xc148(%rip),%rax        # 2b4b0 <g_119>
   1f368:	48 8b 12             	mov    (%rdx),%rdx
   1f36b:	48 89 10             	mov    %rdx,(%rax)
   1f36e:	8b 05 64 7d 00 00    	mov    0x7d64(%rip),%eax        # 270d8 <g_213>
   1f374:	83 c0 01             	add    $0x1,%eax
   1f377:	89 05 5b 7d 00 00    	mov    %eax,0x7d5b(%rip)        # 270d8 <g_213>
   1f37d:	8b 05 55 7d 00 00    	mov    0x7d55(%rip),%eax        # 270d8 <g_213>
   1f383:	83 f8 1e             	cmp    $0x1e,%eax
   1f386:	0f 87 58 fb ff ff    	ja     1eee4 <func_71+0x1900>
   1f38c:	c7 05 ba 7c 00 00 00 	movl   $0x0,0x7cba(%rip)        # 27050 <g_87>
   1f393:	00 00 00 
   1f396:	eb 41                	jmp    1f3d9 <func_71+0x1df5>
   1f398:	8b 85 bc f2 ff ff    	mov    -0xd44(%rbp),%eax
   1f39e:	89 c2                	mov    %eax,%edx
   1f3a0:	48 8b 05 d1 7d 00 00 	mov    0x7dd1(%rip),%rax        # 27178 <g_268>
   1f3a7:	48 09 d0             	or     %rdx,%rax
   1f3aa:	48 89 05 c7 7d 00 00 	mov    %rax,0x7dc7(%rip)        # 27178 <g_268>
   1f3b1:	48 8b 85 a8 f2 ff ff 	mov    -0xd58(%rbp),%rax
   1f3b8:	48 89 05 01 e7 00 00 	mov    %rax,0xe701(%rip)        # 2dac0 <g_269>
   1f3bf:	8b 05 8b 7c 00 00    	mov    0x7c8b(%rip),%eax        # 27050 <g_87>
   1f3c5:	98                   	cwtl   
   1f3c6:	be 09 00 00 00       	mov    $0x9,%esi
   1f3cb:	89 c7                	mov    %eax,%edi
   1f3cd:	e8 e1 0f ff ff       	callq  103b3 <safe_add_func_int16_t_s_s>
   1f3d2:	98                   	cwtl   
   1f3d3:	89 05 77 7c 00 00    	mov    %eax,0x7c77(%rip)        # 27050 <g_87>
   1f3d9:	8b 05 71 7c 00 00    	mov    0x7c71(%rip),%eax        # 27050 <g_87>
   1f3df:	83 f8 13             	cmp    $0x13,%eax
   1f3e2:	7e b4                	jle    1f398 <func_71+0x1db4>
   1f3e4:	8b 05 96 7d 00 00    	mov    0x7d96(%rip),%eax        # 27180 <g_273>
   1f3ea:	83 e8 01             	sub    $0x1,%eax
   1f3ed:	89 05 8d 7d 00 00    	mov    %eax,0x7d8d(%rip)        # 27180 <g_273>
   1f3f3:	48 8b 85 a8 f2 ff ff 	mov    -0xd58(%rbp),%rax
   1f3fa:	e9 8c 0c 00 00       	jmpq   2008b <func_71+0x2aa7>
   1f3ff:	48 8b 05 ba e6 00 00 	mov    0xe6ba(%rip),%rax        # 2dac0 <g_269>
   1f406:	48 89 05 db 7c 00 00 	mov    %rax,0x7cdb(%rip)        # 270e8 <g_219>
   1f40d:	8b 05 ad 7c 00 00    	mov    0x7cad(%rip),%eax        # 270c0 <g_149>
   1f413:	89 c2                	mov    %eax,%edx
   1f415:	48 8b 85 e8 f3 ff ff 	mov    -0xc18(%rbp),%rax
   1f41c:	66 89 10             	mov    %dx,(%rax)
   1f41f:	48 8b 85 e8 f3 ff ff 	mov    -0xc18(%rbp),%rax
   1f426:	0f b7 00             	movzwl (%rax),%eax
   1f429:	0f b7 c0             	movzwl %ax,%eax
   1f42c:	33 85 1c f3 ff ff    	xor    -0xce4(%rbp),%eax
   1f432:	89 85 84 f5 ff ff    	mov    %eax,-0xa7c(%rbp)
   1f438:	8b 85 bc f2 ff ff    	mov    -0xd44(%rbp),%eax
   1f43e:	be 07 00 00 00       	mov    $0x7,%esi
   1f443:	89 c7                	mov    %eax,%edi
   1f445:	e8 6e 1a ff ff       	callq  10eb8 <safe_add_func_uint32_t_u_u>
   1f44a:	89 85 bc f2 ff ff    	mov    %eax,-0xd44(%rbp)
   1f450:	8b 85 bc f2 ff ff    	mov    -0xd44(%rbp),%eax
   1f456:	83 f8 26             	cmp    $0x26,%eax
   1f459:	0f 87 01 ef ff ff    	ja     1e360 <func_71+0xd7c>
   1f45f:	48 c7 85 a8 f2 ff ff 	movq   $0x1c,-0xd58(%rbp)
   1f466:	1c 00 00 00 
   1f46a:	e9 00 0c 00 00       	jmpq   2006f <func_71+0x2a8b>
   1f46f:	c7 85 04 f3 ff ff 05 	movl   $0x5,-0xcfc(%rbp)
   1f476:	00 00 00 
   1f479:	48 8d 85 48 f3 ff ff 	lea    -0xcb8(%rbp),%rax
   1f480:	48 89 85 68 f3 ff ff 	mov    %rax,-0xc98(%rbp)
   1f487:	c7 85 f0 f2 ff ff 00 	movl   $0x0,-0xd10(%rbp)
   1f48e:	00 00 00 
   1f491:	eb 1a                	jmp    1f4ad <func_71+0x1ec9>
   1f493:	8b 85 f0 f2 ff ff    	mov    -0xd10(%rbp),%eax
   1f499:	48 98                	cltq   
   1f49b:	c7 84 85 f0 f5 ff ff 	movl   $0xfffffffc,-0xa10(%rbp,%rax,4)
   1f4a2:	fc ff ff ff 
   1f4a6:	83 85 f0 f2 ff ff 01 	addl   $0x1,-0xd10(%rbp)
   1f4ad:	83 bd f0 f2 ff ff 05 	cmpl   $0x5,-0xd10(%rbp)
   1f4b4:	7e dd                	jle    1f493 <func_71+0x1eaf>
   1f4b6:	c7 85 f0 f2 ff ff 00 	movl   $0x0,-0xd10(%rbp)
   1f4bd:	00 00 00 
   1f4c0:	eb 14                	jmp    1f4d6 <func_71+0x1ef2>
   1f4c2:	8b 85 f0 f2 ff ff    	mov    -0xd10(%rbp),%eax
   1f4c8:	48 98                	cltq   
   1f4ca:	c6 44 05 c0 ff       	movb   $0xff,-0x40(%rbp,%rax,1)
   1f4cf:	83 85 f0 f2 ff ff 01 	addl   $0x1,-0xd10(%rbp)
   1f4d6:	83 bd f0 f2 ff ff 07 	cmpl   $0x7,-0xd10(%rbp)
   1f4dd:	7e e3                	jle    1f4c2 <func_71+0x1ede>
   1f4df:	c7 05 ef 7b 00 00 00 	movl   $0x0,0x7bef(%rip)        # 270d8 <g_213>
   1f4e6:	00 00 00 
   1f4e9:	e9 48 0b 00 00       	jmpq   20036 <func_71+0x2a52>
   1f4ee:	48 c7 85 a8 f3 ff ff 	movq   $0x0,-0xc58(%rbp)
   1f4f5:	00 00 00 00 
   1f4f9:	48 8d 05 c8 7b 00 00 	lea    0x7bc8(%rip),%rax        # 270c8 <g_211>
   1f500:	48 89 85 70 f3 ff ff 	mov    %rax,-0xc90(%rbp)
   1f507:	48 8d 85 70 f3 ff ff 	lea    -0xc90(%rbp),%rax
   1f50e:	48 89 85 78 f3 ff ff 	mov    %rax,-0xc88(%rbp)
   1f515:	48 8d 05 a8 7b 00 00 	lea    0x7ba8(%rip),%rax        # 270c4 <g_164>
   1f51c:	48 89 85 b0 f3 ff ff 	mov    %rax,-0xc50(%rbp)
   1f523:	48 c7 85 90 f6 ff ff 	movq   $0x0,-0x970(%rbp)
   1f52a:	00 00 00 00 
   1f52e:	48 c7 85 98 f6 ff ff 	movq   $0x0,-0x968(%rbp)
   1f535:	00 00 00 00 
   1f539:	48 c7 85 a0 f6 ff ff 	movq   $0x0,-0x960(%rbp)
   1f540:	00 00 00 00 
   1f544:	48 c7 85 a8 f6 ff ff 	movq   $0x0,-0x958(%rbp)
   1f54b:	00 00 00 00 
   1f54f:	c7 85 08 f3 ff ff ff 	movl   $0xffffffff,-0xcf8(%rbp)
   1f556:	ff ff ff 
   1f559:	48 c7 05 84 7b 00 00 	movq   $0x0,0x7b84(%rip)        # 270e8 <g_219>
   1f560:	00 00 00 00 
   1f564:	eb 2b                	jmp    1f591 <func_71+0x1fad>
   1f566:	8b 05 e4 7a 00 00    	mov    0x7ae4(%rip),%eax        # 27050 <g_87>
   1f56c:	83 c8 01             	or     $0x1,%eax
   1f56f:	89 05 db 7a 00 00    	mov    %eax,0x7adb(%rip)        # 27050 <g_87>
   1f575:	48 8b 05 6c 7b 00 00 	mov    0x7b6c(%rip),%rax        # 270e8 <g_219>
   1f57c:	be 02 00 00 00       	mov    $0x2,%esi
   1f581:	89 c7                	mov    %eax,%edi
   1f583:	e8 7d 10 ff ff       	callq  10605 <safe_sub_func_int32_t_s_s>
   1f588:	48 98                	cltq   
   1f58a:	48 89 05 57 7b 00 00 	mov    %rax,0x7b57(%rip)        # 270e8 <g_219>
   1f591:	48 8b 05 50 7b 00 00 	mov    0x7b50(%rip),%rax        # 270e8 <g_219>
   1f598:	48 83 f8 f7          	cmp    $0xfffffffffffffff7,%rax
   1f59c:	7d c8                	jge    1f566 <func_71+0x1f82>
   1f59e:	48 8b 05 bb 7a 00 00 	mov    0x7abb(%rip),%rax        # 27060 <g_113>
   1f5a5:	41 89 c5             	mov    %eax,%r13d
   1f5a8:	8b 85 bc f2 ff ff    	mov    -0xd44(%rbp),%eax
   1f5ae:	0f bf d8             	movswl %ax,%ebx
   1f5b1:	8b 05 71 7a 00 00    	mov    0x7a71(%rip),%eax        # 27028 <g_4>
   1f5b7:	41 89 c6             	mov    %eax,%r14d
   1f5ba:	48 8b 85 b0 f2 ff ff 	mov    -0xd50(%rbp),%rax
   1f5c1:	f7 d0                	not    %eax
   1f5c3:	89 c2                	mov    %eax,%edx
   1f5c5:	48 8b 85 b0 f3 ff ff 	mov    -0xc50(%rbp),%rax
   1f5cc:	66 89 10             	mov    %dx,(%rax)
   1f5cf:	44 8b 25 6a 7b 00 00 	mov    0x7b6a(%rip),%r12d        # 27140 <g_220+0x40>
   1f5d6:	48 8b 05 ab 7a 00 00 	mov    0x7aab(%rip),%rax        # 27088 <g_146+0x8>
   1f5dd:	41 89 c7             	mov    %eax,%r15d
   1f5e0:	8b 15 5a 7b 00 00    	mov    0x7b5a(%rip),%edx        # 27140 <g_220+0x40>
   1f5e6:	8b 85 f8 f5 ff ff    	mov    -0xa08(%rbp),%eax
   1f5ec:	34 c2                	xor    $0xc2,%al
   1f5ee:	89 c1                	mov    %eax,%ecx
   1f5f0:	48 8b 85 b0 f3 ff ff 	mov    -0xc50(%rbp),%rax
   1f5f7:	66 89 08             	mov    %cx,(%rax)
   1f5fa:	48 8b 85 b0 f3 ff ff 	mov    -0xc50(%rbp),%rax
   1f601:	0f b7 00             	movzwl (%rax),%eax
   1f604:	0f b7 c0             	movzwl %ax,%eax
   1f607:	89 d6                	mov    %edx,%esi
   1f609:	89 c7                	mov    %eax,%edi
   1f60b:	e8 f6 17 ff ff       	callq  10e06 <safe_lshift_func_uint16_t_u_u>
   1f610:	66 3d f3 00          	cmp    $0xf3,%ax
   1f614:	0f 95 c0             	setne  %al
   1f617:	0f b6 c0             	movzbl %al,%eax
   1f61a:	44 89 fe             	mov    %r15d,%esi
   1f61d:	89 c7                	mov    %eax,%edi
   1f61f:	e8 7d 0c ff ff       	callq  102a1 <safe_lshift_func_int8_t_s_s>
   1f624:	0f be c0             	movsbl %al,%eax
   1f627:	41 39 c4             	cmp    %eax,%r12d
   1f62a:	0f bf 85 b8 f2 ff ff 	movswl -0xd48(%rbp),%eax
   1f631:	be 0b 00 00 00       	mov    $0xb,%esi
   1f636:	89 c7                	mov    %eax,%edi
   1f638:	e8 26 0f ff ff       	callq  10563 <safe_rshift_func_int16_t_s_u>
   1f63d:	0f b7 c0             	movzwl %ax,%eax
   1f640:	be 01 00 00 00       	mov    $0x1,%esi
   1f645:	89 c7                	mov    %eax,%edi
   1f647:	e8 b3 16 ff ff       	callq  10cff <safe_add_func_uint16_t_u_u>
   1f64c:	48 8b 85 a8 f2 ff ff 	mov    -0xd58(%rbp),%rax
   1f653:	0f b6 d0             	movzbl %al,%edx
   1f656:	48 8b 05 63 be 00 00 	mov    0xbe63(%rip),%rax        # 2b4c0 <g_296>
   1f65d:	48 8d 0d 54 be 00 00 	lea    0xbe54(%rip),%rcx        # 2b4b8 <g_297>
   1f664:	48 39 c8             	cmp    %rcx,%rax
   1f667:	0f 95 c0             	setne  %al
   1f66a:	0f b6 c0             	movzbl %al,%eax
   1f66d:	89 d6                	mov    %edx,%esi
   1f66f:	89 c7                	mov    %eax,%edi
   1f671:	e8 65 15 ff ff       	callq  10bdb <safe_div_func_uint8_t_u_u>
   1f676:	48 8b 85 78 f3 ff ff 	mov    -0xc88(%rbp),%rax
   1f67d:	48 8b 95 90 f3 ff ff 	mov    -0xc70(%rbp),%rdx
   1f684:	48 89 10             	mov    %rdx,(%rax)
   1f687:	48 8b 00             	mov    (%rax),%rax
   1f68a:	48 85 c0             	test   %rax,%rax
   1f68d:	0f 95 c0             	setne  %al
   1f690:	0f b6 c0             	movzbl %al,%eax
   1f693:	44 89 f6             	mov    %r14d,%esi
   1f696:	89 c7                	mov    %eax,%edi
   1f698:	e8 44 0e ff ff       	callq  104e1 <safe_lshift_func_int16_t_s_u>
   1f69d:	0f be c0             	movsbl %al,%eax
   1f6a0:	be 85 ff ff ff       	mov    $0xffffff85,%esi
   1f6a5:	89 c7                	mov    %eax,%edi
   1f6a7:	e8 28 0b ff ff       	callq  101d4 <safe_add_func_int8_t_s_s>
   1f6ac:	0f be c0             	movsbl %al,%eax
   1f6af:	89 de                	mov    %ebx,%esi
   1f6b1:	89 c7                	mov    %eax,%edi
   1f6b3:	e8 fb 0c ff ff       	callq  103b3 <safe_add_func_int16_t_s_s>
   1f6b8:	98                   	cwtl   
   1f6b9:	89 85 04 f3 ff ff    	mov    %eax,-0xcfc(%rbp)
   1f6bf:	8b 85 04 f3 ff ff    	mov    -0xcfc(%rbp),%eax
   1f6c5:	44 89 ee             	mov    %r13d,%esi
   1f6c8:	89 c7                	mov    %eax,%edi
   1f6ca:	e8 56 18 ff ff       	callq  10f25 <safe_div_func_uint32_t_u_u>
   1f6cf:	0f b7 c0             	movzwl %ax,%eax
   1f6d2:	be 0b 00 00 00       	mov    $0xb,%esi
   1f6d7:	89 c7                	mov    %eax,%edi
   1f6d9:	e8 e0 16 ff ff       	callq  10dbe <safe_lshift_func_uint16_t_u_s>
   1f6de:	66 85 c0             	test   %ax,%ax
   1f6e1:	0f 84 2b 02 00 00    	je     1f912 <func_71+0x232e>
   1f6e7:	c7 85 14 f3 ff ff bb 	movl   $0x4ed2c9bb,-0xcec(%rbp)
   1f6ee:	c9 d2 4e 
   1f6f1:	c7 85 f4 f2 ff ff 00 	movl   $0x0,-0xd0c(%rbp)
   1f6f8:	00 00 00 
   1f6fb:	eb 1e                	jmp    1f71b <func_71+0x2137>
   1f6fd:	8b 85 f4 f2 ff ff    	mov    -0xd0c(%rbp),%eax
   1f703:	48 98                	cltq   
   1f705:	48 8d 15 c4 bd 00 00 	lea    0xbdc4(%rip),%rdx        # 2b4d0 <g_325>
   1f70c:	48 89 94 c5 b0 f7 ff 	mov    %rdx,-0x850(%rbp,%rax,8)
   1f713:	ff 
   1f714:	83 85 f4 f2 ff ff 01 	addl   $0x1,-0xd0c(%rbp)
   1f71b:	83 bd f4 f2 ff ff 00 	cmpl   $0x0,-0xd0c(%rbp)
   1f722:	7e d9                	jle    1f6fd <func_71+0x2119>
   1f724:	48 c7 05 31 79 00 00 	movq   $0xffffffffffffffe8,0x7931(%rip)        # 27060 <g_113>
   1f72b:	e8 ff ff ff 
   1f72f:	90                   	nop
   1f730:	48 8b 05 29 79 00 00 	mov    0x7929(%rip),%rax        # 27060 <g_113>
   1f737:	48 83 f8 ec          	cmp    $0xffffffffffffffec,%rax
   1f73b:	7d 0f                	jge    1f74c <func_71+0x2168>
   1f73d:	48 8b 05 74 bd 00 00 	mov    0xbd74(%rip),%rax        # 2b4b8 <g_297>
   1f744:	48 8b 00             	mov    (%rax),%rax
   1f747:	e9 3f 09 00 00       	jmpq   2008b <func_71+0x2aa7>
   1f74c:	48 8b 05 6d e3 00 00 	mov    0xe36d(%rip),%rax        # 2dac0 <g_269>
   1f753:	48 85 c0             	test   %rax,%rax
   1f756:	0f 85 e9 08 00 00    	jne    20045 <func_71+0x2a61>
   1f75c:	48 8b 15 4d bd 00 00 	mov    0xbd4d(%rip),%rdx        # 2b4b0 <g_119>
   1f763:	48 8b 05 46 bd 00 00 	mov    0xbd46(%rip),%rax        # 2b4b0 <g_119>
   1f76a:	48 8b 12             	mov    (%rdx),%rdx
   1f76d:	48 89 10             	mov    %rdx,(%rax)
   1f770:	48 8b 85 a8 f2 ff ff 	mov    -0xd58(%rbp),%rax
   1f777:	41 89 c4             	mov    %eax,%r12d
   1f77a:	48 8b 85 b0 f2 ff ff 	mov    -0xd50(%rbp),%rax
   1f781:	41 89 c5             	mov    %eax,%r13d
   1f784:	0f b6 05 3c 79 00 00 	movzbl 0x793c(%rip),%eax        # 270c7 <g_202>
   1f78b:	84 c0                	test   %al,%al
   1f78d:	0f 84 0c 01 00 00    	je     1f89f <func_71+0x22bb>
   1f793:	48 8b 05 36 bd 00 00 	mov    0xbd36(%rip),%rax        # 2b4d0 <g_325>
   1f79a:	48 89 85 a8 f6 ff ff 	mov    %rax,-0x958(%rbp)
   1f7a1:	48 8b 85 68 f3 ff ff 	mov    -0xc98(%rbp),%rax
   1f7a8:	48 8b 00             	mov    (%rax),%rax
   1f7ab:	8b 18                	mov    (%rax),%ebx
   1f7ad:	0f b6 05 16 79 00 00 	movzbl 0x7916(%rip),%eax        # 270ca <g_211+0x2>
   1f7b4:	0f b6 d0             	movzbl %al,%edx
   1f7b7:	8b 85 bc f2 ff ff    	mov    -0xd44(%rbp),%eax
   1f7bd:	85 c0                	test   %eax,%eax
   1f7bf:	74 13                	je     1f7d4 <func_71+0x21f0>
   1f7c1:	0f b7 05 90 78 00 00 	movzwl 0x7890(%rip),%eax        # 27058 <g_104>
   1f7c8:	66 85 c0             	test   %ax,%ax
   1f7cb:	74 07                	je     1f7d4 <func_71+0x21f0>
   1f7cd:	b9 01 00 00 00       	mov    $0x1,%ecx
   1f7d2:	eb 05                	jmp    1f7d9 <func_71+0x21f5>
   1f7d4:	b9 00 00 00 00       	mov    $0x0,%ecx
   1f7d9:	0f bf 85 b8 f2 ff ff 	movswl -0xd48(%rbp),%eax
   1f7e0:	39 c1                	cmp    %eax,%ecx
   1f7e2:	74 12                	je     1f7f6 <func_71+0x2212>
   1f7e4:	0f b6 05 dc 78 00 00 	movzbl 0x78dc(%rip),%eax        # 270c7 <g_202>
   1f7eb:	84 c0                	test   %al,%al
   1f7ed:	74 07                	je     1f7f6 <func_71+0x2212>
   1f7ef:	b8 01 00 00 00       	mov    $0x1,%eax
   1f7f4:	eb 05                	jmp    1f7fb <func_71+0x2217>
   1f7f6:	b8 00 00 00 00       	mov    $0x0,%eax
   1f7fb:	48 63 c8             	movslq %eax,%rcx
   1f7fe:	48 8b 05 bb bc 00 00 	mov    0xbcbb(%rip),%rax        # 2b4c0 <g_296>
   1f805:	48 8b 00             	mov    (%rax),%rax
   1f808:	48 8b 00             	mov    (%rax),%rax
   1f80b:	48 39 c1             	cmp    %rax,%rcx
   1f80e:	0f 9f c0             	setg   %al
   1f811:	0f b6 c8             	movzbl %al,%ecx
   1f814:	0f bf 85 b8 f2 ff ff 	movswl -0xd48(%rbp),%eax
   1f81b:	39 c1                	cmp    %eax,%ecx
   1f81d:	0f 9d c0             	setge  %al
   1f820:	0f b6 c8             	movzbl %al,%ecx
   1f823:	8b 05 17 79 00 00    	mov    0x7917(%rip),%eax        # 27140 <g_220+0x40>
   1f829:	39 c1                	cmp    %eax,%ecx
   1f82b:	0f 93 c0             	setae  %al
   1f82e:	0f b6 c0             	movzbl %al,%eax
   1f831:	48 89 d6             	mov    %rdx,%rsi
   1f834:	48 89 c7             	mov    %rax,%rdi
   1f837:	e8 05 10 ff ff       	callq  10841 <safe_add_func_int64_t_s_s>
   1f83c:	98                   	cwtl   
   1f83d:	25 df 00 00 00       	and    $0xdf,%eax
   1f842:	89 de                	mov    %ebx,%esi
   1f844:	89 c7                	mov    %eax,%edi
   1f846:	e8 df 0c ff ff       	callq  1052a <safe_rshift_func_int16_t_s_s>
   1f84b:	66 85 c0             	test   %ax,%ax
   1f84e:	0f 9e c0             	setle  %al
   1f851:	0f b6 c0             	movzbl %al,%eax
   1f854:	0b 85 14 f3 ff ff    	or     -0xcec(%rbp),%eax
   1f85a:	89 c2                	mov    %eax,%edx
   1f85c:	48 8b 05 5d e2 00 00 	mov    0xe25d(%rip),%rax        # 2dac0 <g_269>
   1f863:	48 89 d6             	mov    %rdx,%rsi
   1f866:	48 89 c7             	mov    %rax,%rdi
   1f869:	e8 c0 17 ff ff       	callq  1102e <safe_add_func_uint64_t_u_u>
   1f86e:	66 83 bd b8 f2 ff ff 	cmpw   $0x0,-0xd48(%rbp)
   1f875:	00 
   1f876:	75 0e                	jne    1f886 <func_71+0x22a2>
   1f878:	48 8b 85 68 f3 ff ff 	mov    -0xc98(%rbp),%rax
   1f87f:	48 8b 00             	mov    (%rax),%rax
   1f882:	8b 00                	mov    (%rax),%eax
   1f884:	85 c0                	test   %eax,%eax
   1f886:	48 83 bd a8 f2 ff ff 	cmpq   $0x0,-0xd58(%rbp)
   1f88d:	00 
   1f88e:	8b 05 44 78 00 00    	mov    0x7844(%rip),%eax        # 270d8 <g_213>
   1f894:	85 c0                	test   %eax,%eax
   1f896:	74 07                	je     1f89f <func_71+0x22bb>
   1f898:	b8 01 00 00 00       	mov    $0x1,%eax
   1f89d:	eb 05                	jmp    1f8a4 <func_71+0x22c0>
   1f89f:	b8 00 00 00 00       	mov    $0x0,%eax
   1f8a4:	48 98                	cltq   
   1f8a6:	48 39 85 a8 f2 ff ff 	cmp    %rax,-0xd58(%rbp)
   1f8ad:	0f 95 c0             	setne  %al
   1f8b0:	88 45 c0             	mov    %al,-0x40(%rbp)
   1f8b3:	0f b6 45 c0          	movzbl -0x40(%rbp),%eax
   1f8b7:	0f be c0             	movsbl %al,%eax
   1f8ba:	44 89 ee             	mov    %r13d,%esi
   1f8bd:	89 c7                	mov    %eax,%edi
   1f8bf:	e8 71 0a ff ff       	callq  10335 <safe_rshift_func_int8_t_s_s>
   1f8c4:	66 98                	cbtw   
   1f8c6:	48 8b 15 1b 78 00 00 	mov    0x781b(%rip),%rdx        # 270e8 <g_219>
   1f8cd:	09 d0                	or     %edx,%eax
   1f8cf:	98                   	cwtl   
   1f8d0:	44 89 e6             	mov    %r12d,%esi
   1f8d3:	89 c7                	mov    %eax,%edi
   1f8d5:	e8 07 0c ff ff       	callq  104e1 <safe_lshift_func_int16_t_s_u>
   1f8da:	be 04 00 00 00       	mov    $0x4,%esi
   1f8df:	bf 01 00 00 00       	mov    $0x1,%edi
   1f8e4:	e8 45 17 ff ff       	callq  1102e <safe_add_func_uint64_t_u_u>
   1f8e9:	98                   	cwtl   
   1f8ea:	8b 95 08 f3 ff ff    	mov    -0xcf8(%rbp),%edx
   1f8f0:	89 d6                	mov    %edx,%esi
   1f8f2:	89 c7                	mov    %eax,%edi
   1f8f4:	e8 31 0c ff ff       	callq  1052a <safe_rshift_func_int16_t_s_s>
   1f8f9:	8b 85 bc f2 ff ff    	mov    -0xd44(%rbp),%eax
   1f8ff:	8b 15 4b 77 00 00    	mov    0x774b(%rip),%edx        # 27050 <g_87>
   1f905:	31 d0                	xor    %edx,%eax
   1f907:	89 05 43 77 00 00    	mov    %eax,0x7743(%rip)        # 27050 <g_87>
   1f90d:	e9 fc 00 00 00       	jmpq   1fa0e <func_71+0x242a>
   1f912:	48 8d 05 67 78 00 00 	lea    0x7867(%rip),%rax        # 27180 <g_273>
   1f919:	48 89 85 b8 f3 ff ff 	mov    %rax,-0xc48(%rbp)
   1f920:	c7 85 0c f3 ff ff 03 	movl   $0x3,-0xcf4(%rbp)
   1f927:	00 00 00 
   1f92a:	c7 85 10 f3 ff ff 0c 	movl   $0x858aa30c,-0xcf0(%rbp)
   1f931:	a3 8a 85 
   1f934:	c7 05 82 77 00 00 00 	movl   $0x0,0x7782(%rip)        # 270c0 <g_149>
   1f93b:	00 00 00 
   1f93e:	eb 34                	jmp    1f974 <func_71+0x2390>
   1f940:	48 8b 05 a1 77 00 00 	mov    0x77a1(%rip),%rax        # 270e8 <g_219>
   1f947:	48 85 c0             	test   %rax,%rax
   1f94a:	74 05                	je     1f951 <func_71+0x236d>
   1f94c:	e9 f5 e9 ff ff       	jmpq   1e346 <func_71+0xd62>
   1f951:	48 8b 15 58 bb 00 00 	mov    0xbb58(%rip),%rdx        # 2b4b0 <g_119>
   1f958:	48 8b 05 51 bb 00 00 	mov    0xbb51(%rip),%rax        # 2b4b0 <g_119>
   1f95f:	48 8b 12             	mov    (%rdx),%rdx
   1f962:	48 89 10             	mov    %rdx,(%rax)
   1f965:	8b 05 55 77 00 00    	mov    0x7755(%rip),%eax        # 270c0 <g_149>
   1f96b:	83 c0 01             	add    $0x1,%eax
   1f96e:	89 05 4c 77 00 00    	mov    %eax,0x774c(%rip)        # 270c0 <g_149>
   1f974:	8b 05 46 77 00 00    	mov    0x7746(%rip),%eax        # 270c0 <g_149>
   1f97a:	83 f8 33             	cmp    $0x33,%eax
   1f97d:	76 c1                	jbe    1f940 <func_71+0x235c>
   1f97f:	0f b7 05 fe 77 00 00 	movzwl 0x77fe(%rip),%eax        # 27184 <g_340>
   1f986:	83 e8 01             	sub    $0x1,%eax
   1f989:	66 89 05 f4 77 00 00 	mov    %ax,0x77f4(%rip)        # 27184 <g_340>
   1f990:	48 bf cb 3c dc 8c 02 	movabs $0x3e2c36028cdc3ccb,%rdi
   1f997:	36 2c 3e 
   1f99a:	e8 77 0e ff ff       	callq  10816 <safe_unary_minus_func_int64_t_s>
   1f99f:	89 c2                	mov    %eax,%edx
   1f9a1:	8b 05 99 77 00 00    	mov    0x7799(%rip),%eax        # 27140 <g_220+0x40>
   1f9a7:	31 d0                	xor    %edx,%eax
   1f9a9:	89 c3                	mov    %eax,%ebx
   1f9ab:	0f b7 85 b8 f2 ff ff 	movzwl -0xd48(%rbp),%eax
   1f9b2:	0f b6 c0             	movzbl %al,%eax
   1f9b5:	be 01 00 00 00       	mov    $0x1,%esi
   1f9ba:	89 c7                	mov    %eax,%edi
   1f9bc:	e8 44 12 ff ff       	callq  10c05 <safe_lshift_func_uint8_t_u_s>
   1f9c1:	84 c0                	test   %al,%al
   1f9c3:	75 17                	jne    1f9dc <func_71+0x23f8>
   1f9c5:	48 8b 85 b8 f3 ff ff 	mov    -0xc48(%rbp),%rax
   1f9cc:	c7 00 fb ff ff ff    	movl   $0xfffffffb,(%rax)
   1f9d2:	c7 85 0c f3 ff ff fb 	movl   $0xfffffffb,-0xcf4(%rbp)
   1f9d9:	ff ff ff 
   1f9dc:	83 bd 10 f3 ff ff 00 	cmpl   $0x0,-0xcf0(%rbp)
   1f9e3:	0f 9e c0             	setle  %al
   1f9e6:	0f b6 c0             	movzbl %al,%eax
   1f9e9:	48 8b 95 a8 f2 ff ff 	mov    -0xd58(%rbp),%rdx
   1f9f0:	48 f7 d2             	not    %rdx
   1f9f3:	48 39 d0             	cmp    %rdx,%rax
   1f9f6:	0f 96 c0             	setbe  %al
   1f9f9:	0f b6 c0             	movzbl %al,%eax
   1f9fc:	89 de                	mov    %ebx,%esi
   1f9fe:	89 c7                	mov    %eax,%edi
   1fa00:	e8 01 14 ff ff       	callq  10e06 <safe_lshift_func_uint16_t_u_u>
   1fa05:	0f b7 c0             	movzwl %ax,%eax
   1fa08:	89 05 7a 77 00 00    	mov    %eax,0x777a(%rip)        # 27188 <g_352>
   1fa0e:	c7 05 68 77 00 00 00 	movl   $0x0,0x7768(%rip)        # 27180 <g_273>
   1fa15:	00 00 00 
   1fa18:	e9 db 05 00 00       	jmpq   1fff8 <func_71+0x2a14>
   1fa1d:	66 c7 85 c8 f2 ff ff 	movw   $0xfd66,-0xd38(%rbp)
   1fa24:	66 fd 
   1fa26:	48 8d 05 ab 76 00 00 	lea    0x76ab(%rip),%rax        # 270d8 <g_213>
   1fa2d:	48 89 85 c0 f3 ff ff 	mov    %rax,-0xc40(%rbp)
   1fa34:	c7 85 18 f3 ff ff ff 	movl   $0xffffffff,-0xce8(%rbp)
   1fa3b:	ff ff ff 
   1fa3e:	c7 05 0c 76 00 00 00 	movl   $0x0,0x760c(%rip)        # 27054 <g_97>
   1fa45:	00 00 00 
   1fa48:	e9 43 04 00 00       	jmpq   1fe90 <func_71+0x28ac>
   1fa4d:	48 c7 85 80 f3 ff ff 	movq   $0x0,-0xc80(%rbp)
   1fa54:	00 00 00 00 
   1fa58:	48 8d 85 80 f3 ff ff 	lea    -0xc80(%rbp),%rax
   1fa5f:	48 89 85 c8 f3 ff ff 	mov    %rax,-0xc38(%rbp)
   1fa66:	8b 05 e8 75 00 00    	mov    0x75e8(%rip),%eax        # 27054 <g_97>
   1fa6c:	8d 50 04             	lea    0x4(%rax),%edx
   1fa6f:	8b 05 0b 77 00 00    	mov    0x770b(%rip),%eax        # 27180 <g_273>
   1fa75:	89 c1                	mov    %eax,%ecx
   1fa77:	89 d2                	mov    %edx,%edx
   1fa79:	48 89 d0             	mov    %rdx,%rax
   1fa7c:	48 01 c0             	add    %rax,%rax
   1fa7f:	48 01 d0             	add    %rdx,%rax
   1fa82:	48 01 c8             	add    %rcx,%rax
   1fa85:	48 8d 14 85 00 00 00 	lea    0x0(,%rax,4),%rdx
   1fa8c:	00 
   1fa8d:	48 8d 05 6c 76 00 00 	lea    0x766c(%rip),%rax        # 27100 <g_220>
   1fa94:	48 01 d0             	add    %rdx,%rax
   1fa97:	48 89 85 b0 f7 ff ff 	mov    %rax,-0x850(%rbp)
   1fa9e:	8b 05 b0 75 00 00    	mov    0x75b0(%rip),%eax        # 27054 <g_97>
   1faa4:	8d 50 04             	lea    0x4(%rax),%edx
   1faa7:	8b 05 d3 76 00 00    	mov    0x76d3(%rip),%eax        # 27180 <g_273>
   1faad:	89 c1                	mov    %eax,%ecx
   1faaf:	89 d2                	mov    %edx,%edx
   1fab1:	48 89 d0             	mov    %rdx,%rax
   1fab4:	48 01 c0             	add    %rax,%rax
   1fab7:	48 01 d0             	add    %rdx,%rax
   1faba:	48 01 c8             	add    %rcx,%rax
   1fabd:	48 8d 14 85 00 00 00 	lea    0x0(,%rax,4),%rdx
   1fac4:	00 
   1fac5:	48 8d 05 34 76 00 00 	lea    0x7634(%rip),%rax        # 27100 <g_220>
   1facc:	48 01 d0             	add    %rdx,%rax
   1facf:	48 89 85 b8 f7 ff ff 	mov    %rax,-0x848(%rbp)
   1fad6:	8b 05 78 75 00 00    	mov    0x7578(%rip),%eax        # 27054 <g_97>
   1fadc:	8d 50 04             	lea    0x4(%rax),%edx
   1fadf:	8b 05 9b 76 00 00    	mov    0x769b(%rip),%eax        # 27180 <g_273>
   1fae5:	89 c1                	mov    %eax,%ecx
   1fae7:	89 d2                	mov    %edx,%edx
   1fae9:	48 89 d0             	mov    %rdx,%rax
   1faec:	48 01 c0             	add    %rax,%rax
   1faef:	48 01 d0             	add    %rdx,%rax
   1faf2:	48 01 c8             	add    %rcx,%rax
   1faf5:	48 8d 14 85 00 00 00 	lea    0x0(,%rax,4),%rdx
   1fafc:	00 
   1fafd:	48 8d 05 fc 75 00 00 	lea    0x75fc(%rip),%rax        # 27100 <g_220>
   1fb04:	48 01 d0             	add    %rdx,%rax
   1fb07:	48 89 85 c0 f7 ff ff 	mov    %rax,-0x840(%rbp)
   1fb0e:	8b 05 40 75 00 00    	mov    0x7540(%rip),%eax        # 27054 <g_97>
   1fb14:	8d 50 04             	lea    0x4(%rax),%edx
   1fb17:	8b 05 63 76 00 00    	mov    0x7663(%rip),%eax        # 27180 <g_273>
   1fb1d:	89 c1                	mov    %eax,%ecx
   1fb1f:	89 d2                	mov    %edx,%edx
   1fb21:	48 89 d0             	mov    %rdx,%rax
   1fb24:	48 01 c0             	add    %rax,%rax
   1fb27:	48 01 d0             	add    %rdx,%rax
   1fb2a:	48 01 c8             	add    %rcx,%rax
   1fb2d:	48 8d 14 85 00 00 00 	lea    0x0(,%rax,4),%rdx
   1fb34:	00 
   1fb35:	48 8d 05 c4 75 00 00 	lea    0x75c4(%rip),%rax        # 27100 <g_220>
   1fb3c:	48 01 d0             	add    %rdx,%rax
   1fb3f:	48 89 85 c8 f7 ff ff 	mov    %rax,-0x838(%rbp)
   1fb46:	8b 05 08 75 00 00    	mov    0x7508(%rip),%eax        # 27054 <g_97>
   1fb4c:	8d 50 04             	lea    0x4(%rax),%edx
   1fb4f:	8b 05 2b 76 00 00    	mov    0x762b(%rip),%eax        # 27180 <g_273>
   1fb55:	89 c1                	mov    %eax,%ecx
   1fb57:	89 d2                	mov    %edx,%edx
   1fb59:	48 89 d0             	mov    %rdx,%rax
   1fb5c:	48 01 c0             	add    %rax,%rax
   1fb5f:	48 01 d0             	add    %rdx,%rax
   1fb62:	48 01 c8             	add    %rcx,%rax
   1fb65:	48 8d 14 85 00 00 00 	lea    0x0(,%rax,4),%rdx
   1fb6c:	00 
   1fb6d:	48 8d 05 8c 75 00 00 	lea    0x758c(%rip),%rax        # 27100 <g_220>
   1fb74:	48 01 d0             	add    %rdx,%rax
   1fb77:	48 89 85 d0 f7 ff ff 	mov    %rax,-0x830(%rbp)
   1fb7e:	48 8d 05 d3 74 00 00 	lea    0x74d3(%rip),%rax        # 27058 <g_104>
   1fb85:	48 89 85 d0 f3 ff ff 	mov    %rax,-0xc30(%rbp)
   1fb8c:	8b 05 ee 75 00 00    	mov    0x75ee(%rip),%eax        # 27180 <g_273>
   1fb92:	0f be d8             	movsbl %al,%ebx
   1fb95:	0f b7 85 b8 f2 ff ff 	movzwl -0xd48(%rbp),%eax
   1fb9c:	66 3b 85 c8 f2 ff ff 	cmp    -0xd38(%rbp),%ax
   1fba3:	48 8b 85 b0 f2 ff ff 	mov    -0xd50(%rbp),%rax
   1fbaa:	89 c2                	mov    %eax,%edx
   1fbac:	8b 05 d6 75 00 00    	mov    0x75d6(%rip),%eax        # 27188 <g_352>
   1fbb2:	83 e0 01             	and    $0x1,%eax
   1fbb5:	89 05 cd 75 00 00    	mov    %eax,0x75cd(%rip)        # 27188 <g_352>
   1fbbb:	48 8b 05 06 df 00 00 	mov    0xdf06(%rip),%rax        # 2dac8 <g_269+0x8>
   1fbc2:	89 d6                	mov    %edx,%esi
   1fbc4:	89 c7                	mov    %eax,%edi
   1fbc6:	e8 ed 12 ff ff       	callq  10eb8 <safe_add_func_uint32_t_u_u>
   1fbcb:	48 83 bd c0 f3 ff ff 	cmpq   $0x0,-0xc40(%rbp)
   1fbd2:	00 
   1fbd3:	0f 95 c0             	setne  %al
   1fbd6:	0f b6 c8             	movzbl %al,%ecx
   1fbd9:	48 8b 85 78 f3 ff ff 	mov    -0xc88(%rbp),%rax
   1fbe0:	48 8b 95 90 f3 ff ff 	mov    -0xc70(%rbp),%rdx
   1fbe7:	48 89 10             	mov    %rdx,(%rax)
   1fbea:	48 8b 00             	mov    (%rax),%rax
   1fbed:	48 89 85 b0 f4 ff ff 	mov    %rax,-0xb50(%rbp)
   1fbf4:	48 8b 95 b0 f4 ff ff 	mov    -0xb50(%rbp),%rdx
   1fbfb:	48 8b 85 c8 f3 ff ff 	mov    -0xc38(%rbp),%rax
   1fc02:	48 8d 35 c1 74 00 00 	lea    0x74c1(%rip),%rsi        # 270ca <g_211+0x2>
   1fc09:	48 89 30             	mov    %rsi,(%rax)
   1fc0c:	48 8b 85 c8 f3 ff ff 	mov    -0xc38(%rbp),%rax
   1fc13:	48 8b 00             	mov    (%rax),%rax
   1fc16:	48 39 c2             	cmp    %rax,%rdx
   1fc19:	0f 95 c0             	setne  %al
   1fc1c:	0f b6 d0             	movzbl %al,%edx
   1fc1f:	48 8b 85 d0 f3 ff ff 	mov    -0xc30(%rbp),%rax
   1fc26:	0f b7 00             	movzwl (%rax),%eax
   1fc29:	21 c1                	and    %eax,%ecx
   1fc2b:	48 8b 85 d0 f3 ff ff 	mov    -0xc30(%rbp),%rax
   1fc32:	66 89 08             	mov    %cx,(%rax)
   1fc35:	48 8b 85 d0 f3 ff ff 	mov    -0xc30(%rbp),%rax
   1fc3c:	0f b7 00             	movzwl (%rax),%eax
   1fc3f:	98                   	cwtl   
   1fc40:	39 c2                	cmp    %eax,%edx
   1fc42:	0f 9f c0             	setg   %al
   1fc45:	0f b6 c0             	movzbl %al,%eax
   1fc48:	89 de                	mov    %ebx,%esi
   1fc4a:	89 c7                	mov    %eax,%edi
   1fc4c:	e8 83 05 ff ff       	callq  101d4 <safe_add_func_int8_t_s_s>
   1fc51:	84 c0                	test   %al,%al
   1fc53:	74 13                	je     1fc68 <func_71+0x2684>
   1fc55:	0f b7 05 28 75 00 00 	movzwl 0x7528(%rip),%eax        # 27184 <g_340>
   1fc5c:	66 85 c0             	test   %ax,%ax
   1fc5f:	74 07                	je     1fc68 <func_71+0x2684>
   1fc61:	b8 01 00 00 00       	mov    $0x1,%eax
   1fc66:	eb 05                	jmp    1fc6d <func_71+0x2689>
   1fc68:	b8 00 00 00 00       	mov    $0x0,%eax
   1fc6d:	0f be c0             	movsbl %al,%eax
   1fc70:	be 00 00 00 00       	mov    $0x0,%esi
   1fc75:	89 c7                	mov    %eax,%edi
   1fc77:	e8 b9 06 ff ff       	callq  10335 <safe_rshift_func_int8_t_s_s>
   1fc7c:	0f b6 c0             	movzbl %al,%eax
   1fc7f:	be 2c 00 00 00       	mov    $0x2c,%esi
   1fc84:	89 c7                	mov    %eax,%edi
   1fc86:	e8 ed 0e ff ff       	callq  10b78 <safe_sub_func_uint8_t_u_u>
   1fc8b:	0f b6 d0             	movzbl %al,%edx
   1fc8e:	0f bf 85 b8 f2 ff ff 	movswl -0xd48(%rbp),%eax
   1fc95:	39 c2                	cmp    %eax,%edx
   1fc97:	0f 9f c0             	setg   %al
   1fc9a:	0f b6 d0             	movzbl %al,%edx
   1fc9d:	48 8b 05 1c de 00 00 	mov    0xde1c(%rip),%rax        # 2dac0 <g_269>
   1fca4:	48 39 c2             	cmp    %rax,%rdx
   1fca7:	0f 95 c0             	setne  %al
   1fcaa:	89 c2                	mov    %eax,%edx
   1fcac:	48 8b 85 b0 f2 ff ff 	mov    -0xd50(%rbp),%rax
   1fcb3:	21 c2                	and    %eax,%edx
   1fcb5:	48 8b 85 90 f3 ff ff 	mov    -0xc70(%rbp),%rax
   1fcbc:	88 10                	mov    %dl,(%rax)
   1fcbe:	8b 05 90 73 00 00    	mov    0x7390(%rip),%eax        # 27054 <g_97>
   1fcc4:	8d 50 07             	lea    0x7(%rax),%edx
   1fcc7:	8b 05 b3 74 00 00    	mov    0x74b3(%rip),%eax        # 27180 <g_273>
   1fccd:	89 c1                	mov    %eax,%ecx
   1fccf:	89 d2                	mov    %edx,%edx
   1fcd1:	48 89 d0             	mov    %rdx,%rax
   1fcd4:	48 01 c0             	add    %rax,%rax
   1fcd7:	48 01 d0             	add    %rdx,%rax
   1fcda:	48 01 c8             	add    %rcx,%rax
   1fcdd:	48 8d 14 85 00 00 00 	lea    0x0(,%rax,4),%rdx
   1fce4:	00 
   1fce5:	48 8d 05 14 74 00 00 	lea    0x7414(%rip),%rax        # 27100 <g_220>
   1fcec:	8b 04 02             	mov    (%rdx,%rax,1),%eax
   1fcef:	85 c0                	test   %eax,%eax
   1fcf1:	48 8b 05 c0 b7 00 00 	mov    0xb7c0(%rip),%rax        # 2b4b8 <g_297>
   1fcf8:	48 c7 00 01 00 00 00 	movq   $0x1,(%rax)
   1fcff:	48 8b 00             	mov    (%rax),%rax
   1fd02:	48 85 c0             	test   %rax,%rax
   1fd05:	0f 9e c0             	setle  %al
   1fd08:	0f b6 c0             	movzbl %al,%eax
   1fd0b:	89 85 18 f3 ff ff    	mov    %eax,-0xce8(%rbp)
   1fd11:	48 8b 05 b8 b7 00 00 	mov    0xb7b8(%rip),%rax        # 2b4d0 <g_325>
   1fd18:	48 8b 00             	mov    (%rax),%rax
   1fd1b:	8b 00                	mov    (%rax),%eax
   1fd1d:	85 c0                	test   %eax,%eax
   1fd1f:	0f 85 5b 01 00 00    	jne    1fe80 <func_71+0x289c>
   1fd25:	48 8b 85 a8 f2 ff ff 	mov    -0xd58(%rbp),%rax
   1fd2c:	0f b6 c0             	movzbl %al,%eax
   1fd2f:	be 06 00 00 00       	mov    $0x6,%esi
   1fd34:	89 c7                	mov    %eax,%edi
   1fd36:	e8 83 0f ff ff       	callq  10cbe <safe_rshift_func_uint8_t_u_u>
   1fd3b:	48 8b 05 9e 73 00 00 	mov    0x739e(%rip),%rax        # 270e0 <g_216>
   1fd42:	0f b7 d8             	movzwl %ax,%ebx
   1fd45:	44 0f bf b5 b8 f2 ff 	movswl -0xd48(%rbp),%r14d
   1fd4c:	ff 
   1fd4d:	8b 85 18 f3 ff ff    	mov    -0xce8(%rbp),%eax
   1fd53:	4c 63 e0             	movslq %eax,%r12
   1fd56:	48 8b 85 a8 f2 ff ff 	mov    -0xd58(%rbp),%rax
   1fd5d:	44 0f b6 e8          	movzbl %al,%r13d
   1fd61:	be 07 00 00 00       	mov    $0x7,%esi
   1fd66:	bf 00 00 00 00       	mov    $0x0,%edi
   1fd6b:	e8 96 10 ff ff       	callq  10e06 <safe_lshift_func_uint16_t_u_u>
   1fd70:	0f b6 c0             	movzbl %al,%eax
   1fd73:	44 89 ee             	mov    %r13d,%esi
   1fd76:	89 c7                	mov    %eax,%edi
   1fd78:	e8 16 0e ff ff       	callq  10b93 <safe_mul_func_uint8_t_u_u>
   1fd7d:	0f b6 c0             	movzbl %al,%eax
   1fd80:	4c 89 e6             	mov    %r12,%rsi
   1fd83:	48 89 c7             	mov    %rax,%rdi
   1fd86:	e8 1d 0b ff ff       	callq  108a8 <safe_sub_func_int64_t_s_s>
   1fd8b:	48 8b 85 a8 f2 ff ff 	mov    -0xd58(%rbp),%rax
   1fd92:	0f b6 c0             	movzbl %al,%eax
   1fd95:	be 68 00 00 00       	mov    $0x68,%esi
   1fd9a:	89 c7                	mov    %eax,%edi
   1fd9c:	e8 f2 0d ff ff       	callq  10b93 <safe_mul_func_uint8_t_u_u>
   1fda1:	0f b6 d0             	movzbl %al,%edx
   1fda4:	8b 05 d6 73 00 00    	mov    0x73d6(%rip),%eax        # 27180 <g_273>
   1fdaa:	89 c0                	mov    %eax,%eax
   1fdac:	48 39 85 a8 f2 ff ff 	cmp    %rax,-0xd58(%rbp)
   1fdb3:	0f 93 c0             	setae  %al
   1fdb6:	0f b6 c8             	movzbl %al,%ecx
   1fdb9:	8b 85 bc f2 ff ff    	mov    -0xd44(%rbp),%eax
   1fdbf:	39 c1                	cmp    %eax,%ecx
   1fdc1:	0f 95 c0             	setne  %al
   1fdc4:	0f b6 c0             	movzbl %al,%eax
   1fdc7:	39 c2                	cmp    %eax,%edx
   1fdc9:	0f 9e c0             	setle  %al
   1fdcc:	0f b6 c0             	movzbl %al,%eax
   1fdcf:	48 be f5 02 96 89 a2 	movabs $0x2b0756a2899602f5,%rsi
   1fdd6:	56 07 2b 
   1fdd9:	48 89 c7             	mov    %rax,%rdi
   1fddc:	e8 d3 0b ff ff       	callq  109b4 <safe_mod_func_int64_t_s_s>
   1fde1:	48 89 c7             	mov    %rax,%rdi
   1fde4:	e8 30 12 ff ff       	callq  11019 <safe_unary_minus_func_uint64_t_u>
   1fde9:	89 c2                	mov    %eax,%edx
   1fdeb:	48 8b 85 b0 f2 ff ff 	mov    -0xd50(%rbp),%rax
   1fdf2:	09 d0                	or     %edx,%eax
   1fdf4:	0f b6 c0             	movzbl %al,%eax
   1fdf7:	be ff 00 00 00       	mov    $0xff,%esi
   1fdfc:	89 c7                	mov    %eax,%edi
   1fdfe:	e8 90 0d ff ff       	callq  10b93 <safe_mul_func_uint8_t_u_u>
   1fe03:	0f b6 c0             	movzbl %al,%eax
   1fe06:	41 39 c6             	cmp    %eax,%r14d
   1fe09:	0f 9e c0             	setle  %al
   1fe0c:	0f b6 c0             	movzbl %al,%eax
   1fe0f:	89 de                	mov    %ebx,%esi
   1fe11:	89 c7                	mov    %eax,%edi
   1fe13:	e8 76 0f ff ff       	callq  10d8e <safe_div_func_uint16_t_u_u>
   1fe18:	0f b7 d0             	movzwl %ax,%edx
   1fe1b:	48 8b 05 ae b6 00 00 	mov    0xb6ae(%rip),%rax        # 2b4d0 <g_325>
   1fe22:	48 8b 00             	mov    (%rax),%rax
   1fe25:	8b 00                	mov    (%rax),%eax
   1fe27:	83 c8 01             	or     $0x1,%eax
   1fe2a:	0f b7 c0             	movzwl %ax,%eax
   1fe2d:	89 d6                	mov    %edx,%esi
   1fe2f:	89 c7                	mov    %eax,%edi
   1fe31:	e8 e9 0e ff ff       	callq  10d1f <safe_sub_func_uint16_t_u_u>
   1fe36:	0f b7 d0             	movzwl %ax,%edx
   1fe39:	48 8b 85 b0 f3 ff ff 	mov    -0xc50(%rbp),%rax
   1fe40:	0f b7 00             	movzwl (%rax),%eax
   1fe43:	8d 48 ff             	lea    -0x1(%rax),%ecx
   1fe46:	48 8b 85 b0 f3 ff ff 	mov    -0xc50(%rbp),%rax
   1fe4d:	66 89 08             	mov    %cx,(%rax)
   1fe50:	48 8b 85 b0 f3 ff ff 	mov    -0xc50(%rbp),%rax
   1fe57:	0f b7 00             	movzwl (%rax),%eax
   1fe5a:	0f b7 c0             	movzwl %ax,%eax
   1fe5d:	89 d6                	mov    %edx,%esi
   1fe5f:	89 c7                	mov    %eax,%edi
   1fe61:	e8 28 0f ff ff       	callq  10d8e <safe_div_func_uint16_t_u_u>
   1fe66:	0f b7 d0             	movzwl %ax,%edx
   1fe69:	0f bf 85 c8 f2 ff ff 	movswl -0xd38(%rbp),%eax
   1fe70:	39 c2                	cmp    %eax,%edx
   1fe72:	0f 95 c0             	setne  %al
   1fe75:	0f b6 c0             	movzbl %al,%eax
   1fe78:	89 85 18 f3 ff ff    	mov    %eax,-0xce8(%rbp)
   1fe7e:	eb 01                	jmp    1fe81 <func_71+0x289d>
   1fe80:	90                   	nop
   1fe81:	8b 05 cd 71 00 00    	mov    0x71cd(%rip),%eax        # 27054 <g_97>
   1fe87:	83 c0 01             	add    $0x1,%eax
   1fe8a:	89 05 c4 71 00 00    	mov    %eax,0x71c4(%rip)        # 27054 <g_97>
   1fe90:	8b 05 be 71 00 00    	mov    0x71be(%rip),%eax        # 27054 <g_97>
   1fe96:	83 f8 02             	cmp    $0x2,%eax
   1fe99:	0f 86 ae fb ff ff    	jbe    1fa4d <func_71+0x2469>
   1fe9f:	48 c7 05 3e 72 00 00 	movq   $0x0,0x723e(%rip)        # 270e8 <g_219>
   1fea6:	00 00 00 00 
   1feaa:	eb 21                	jmp    1fecd <func_71+0x28e9>
   1feac:	66 83 bd b8 f2 ff ff 	cmpw   $0x0,-0xd48(%rbp)
   1feb3:	00 
   1feb4:	74 05                	je     1febb <func_71+0x28d7>
   1feb6:	e9 96 e4 ff ff       	jmpq   1e351 <func_71+0xd6d>
   1febb:	48 8b 05 26 72 00 00 	mov    0x7226(%rip),%rax        # 270e8 <g_219>
   1fec2:	48 83 c0 01          	add    $0x1,%rax
   1fec6:	48 89 05 1b 72 00 00 	mov    %rax,0x721b(%rip)        # 270e8 <g_219>
   1fecd:	48 8b 05 14 72 00 00 	mov    0x7214(%rip),%rax        # 270e8 <g_219>
   1fed4:	48 83 f8 05          	cmp    $0x5,%rax
   1fed8:	7e d2                	jle    1feac <func_71+0x28c8>
   1feda:	48 8d 05 f7 71 00 00 	lea    0x71f7(%rip),%rax        # 270d8 <g_213>
   1fee1:	48 89 05 f0 b5 00 00 	mov    %rax,0xb5f0(%rip)        # 2b4d8 <g_397>
   1fee8:	48 8b 15 e9 b5 00 00 	mov    0xb5e9(%rip),%rdx        # 2b4d8 <g_397>
   1feef:	48 8b 05 ea b5 00 00 	mov    0xb5ea(%rip),%rax        # 2b4e0 <g_399>
   1fef6:	48 39 c2             	cmp    %rax,%rdx
   1fef9:	0f 95 c0             	setne  %al
   1fefc:	0f b6 c0             	movzbl %al,%eax
   1feff:	be 02 00 00 00       	mov    $0x2,%esi
   1ff04:	89 c7                	mov    %eax,%edi
   1ff06:	e8 e3 03 ff ff       	callq  102ee <safe_lshift_func_int8_t_s_u>
   1ff0b:	84 c0                	test   %al,%al
   1ff0d:	74 21                	je     1ff30 <func_71+0x294c>
   1ff0f:	48 83 bd a8 f2 ff ff 	cmpq   $0x0,-0xd58(%rbp)
   1ff16:	00 
   1ff17:	0f 85 ec 00 00 00    	jne    20009 <func_71+0x2a25>
   1ff1d:	48 8b 05 ac b5 00 00 	mov    0xb5ac(%rip),%rax        # 2b4d0 <g_325>
   1ff24:	48 8b 00             	mov    (%rax),%rax
   1ff27:	8b 00                	mov    (%rax),%eax
   1ff29:	85 c0                	test   %eax,%eax
   1ff2b:	e9 b9 00 00 00       	jmpq   1ffe9 <func_71+0x2a05>
   1ff30:	48 8d 85 78 f3 ff ff 	lea    -0xc88(%rbp),%rax
   1ff37:	48 89 85 80 f3 ff ff 	mov    %rax,-0xc80(%rbp)
   1ff3e:	c7 85 f8 f2 ff ff 00 	movl   $0x0,-0xd08(%rbp)
   1ff45:	00 00 00 
   1ff48:	eb 72                	jmp    1ffbc <func_71+0x29d8>
   1ff4a:	c7 85 fc f2 ff ff 00 	movl   $0x0,-0xd04(%rbp)
   1ff51:	00 00 00 
   1ff54:	eb 56                	jmp    1ffac <func_71+0x29c8>
   1ff56:	c7 85 00 f3 ff ff 00 	movl   $0x0,-0xd00(%rbp)
   1ff5d:	00 00 00 
   1ff60:	eb 3a                	jmp    1ff9c <func_71+0x29b8>
   1ff62:	8b 85 00 f3 ff ff    	mov    -0xd00(%rbp),%eax
   1ff68:	48 98                	cltq   
   1ff6a:	8b 95 f8 f2 ff ff    	mov    -0xd08(%rbp),%edx
   1ff70:	48 63 ca             	movslq %edx,%rcx
   1ff73:	8b 95 fc f2 ff ff    	mov    -0xd04(%rbp),%edx
   1ff79:	48 63 d2             	movslq %edx,%rdx
   1ff7c:	48 01 ca             	add    %rcx,%rdx
   1ff7f:	48 c1 e2 02          	shl    $0x2,%rdx
   1ff83:	48 01 c2             	add    %rax,%rdx
   1ff86:	48 8d 85 80 f3 ff ff 	lea    -0xc80(%rbp),%rax
   1ff8d:	48 89 84 d5 b0 f7 ff 	mov    %rax,-0x850(%rbp,%rdx,8)
   1ff94:	ff 
   1ff95:	83 85 00 f3 ff ff 01 	addl   $0x1,-0xd00(%rbp)
   1ff9c:	83 bd 00 f3 ff ff 03 	cmpl   $0x3,-0xd00(%rbp)
   1ffa3:	7e bd                	jle    1ff62 <func_71+0x297e>
   1ffa5:	83 85 fc f2 ff ff 01 	addl   $0x1,-0xd04(%rbp)
   1ffac:	83 bd fc f2 ff ff 00 	cmpl   $0x0,-0xd04(%rbp)
   1ffb3:	7e a1                	jle    1ff56 <func_71+0x2972>
   1ffb5:	83 85 f8 f2 ff ff 01 	addl   $0x1,-0xd08(%rbp)
   1ffbc:	83 bd f8 f2 ff ff 02 	cmpl   $0x2,-0xd08(%rbp)
   1ffc3:	7e 85                	jle    1ff4a <func_71+0x2966>
   1ffc5:	48 c7 85 60 f3 ff ff 	movq   $0x0,-0xca0(%rbp)
   1ffcc:	00 00 00 00 
   1ffd0:	66 83 bd c8 f2 ff ff 	cmpw   $0x0,-0xd38(%rbp)
   1ffd7:	00 
   1ffd8:	75 0e                	jne    1ffe8 <func_71+0x2a04>
   1ffda:	8b 85 bc f2 ff ff    	mov    -0xd44(%rbp),%eax
   1ffe0:	89 85 04 f3 ff ff    	mov    %eax,-0xcfc(%rbp)
   1ffe6:	eb 01                	jmp    1ffe9 <func_71+0x2a05>
   1ffe8:	90                   	nop
   1ffe9:	8b 05 91 71 00 00    	mov    0x7191(%rip),%eax        # 27180 <g_273>
   1ffef:	83 c0 01             	add    $0x1,%eax
   1fff2:	89 05 88 71 00 00    	mov    %eax,0x7188(%rip)        # 27180 <g_273>
   1fff8:	8b 05 82 71 00 00    	mov    0x7182(%rip),%eax        # 27180 <g_273>
   1fffe:	83 f8 02             	cmp    $0x2,%eax
   20001:	0f 86 16 fa ff ff    	jbe    1fa1d <func_71+0x2439>
   20007:	eb 01                	jmp    2000a <func_71+0x2a26>
   20009:	90                   	nop
   2000a:	48 8b 15 e7 da 00 00 	mov    0xdae7(%rip),%rdx        # 2daf8 <g_404>
   20011:	48 8d 85 60 f3 ff ff 	lea    -0xca0(%rbp),%rax
   20018:	48 39 c2             	cmp    %rax,%rdx
   2001b:	0f 95 c0             	setne  %al
   2001e:	0f b6 c0             	movzbl %al,%eax
   20021:	89 85 04 f3 ff ff    	mov    %eax,-0xcfc(%rbp)
   20027:	8b 05 ab 70 00 00    	mov    0x70ab(%rip),%eax        # 270d8 <g_213>
   2002d:	83 c0 01             	add    $0x1,%eax
   20030:	89 05 a2 70 00 00    	mov    %eax,0x70a2(%rip)        # 270d8 <g_213>
   20036:	8b 05 9c 70 00 00    	mov    0x709c(%rip),%eax        # 270d8 <g_213>
   2003c:	83 f8 0b             	cmp    $0xb,%eax
   2003f:	0f 87 a9 f4 ff ff    	ja     1f4ee <func_71+0x1f0a>
   20045:	48 8b 05 84 b4 00 00 	mov    0xb484(%rip),%rax        # 2b4d0 <g_325>
   2004c:	48 8b 00             	mov    (%rax),%rax
   2004f:	8b 00                	mov    (%rax),%eax
   20051:	85 c0                	test   %eax,%eax
   20053:	48 8b 85 a8 f2 ff ff 	mov    -0xd58(%rbp),%rax
   2005a:	be 04 00 00 00       	mov    $0x4,%esi
   2005f:	89 c7                	mov    %eax,%edi
   20061:	e8 50 05 ff ff       	callq  105b6 <safe_add_func_int32_t_s_s>
   20066:	48 98                	cltq   
   20068:	48 89 85 a8 f2 ff ff 	mov    %rax,-0xd58(%rbp)
   2006f:	48 83 bd a8 f2 ff ff 	cmpq   $0x39,-0xd58(%rbp)
   20076:	39 
   20077:	0f 86 f2 f3 ff ff    	jbe    1f46f <func_71+0x1e8b>
   2007d:	eb 01                	jmp    20080 <func_71+0x2a9c>
   2007f:	90                   	nop
   20080:	48 8b 85 48 f3 ff ff 	mov    -0xcb8(%rbp),%rax
   20087:	8b 00                	mov    (%rax),%eax
   20089:	48 98                	cltq   
   2008b:	48 8b 5d c8          	mov    -0x38(%rbp),%rbx
   2008f:	64 48 33 1c 25 28 00 	xor    %fs:0x28,%rbx
   20096:	00 00 
   20098:	74 05                	je     2009f <func_71+0x2abb>
   2009a:	e8 d1 ff fe ff       	callq  10070 <__stack_chk_fail@plt>
   2009f:	48 81 c4 38 0d 00 00 	add    $0xd38,%rsp
   200a6:	5b                   	pop    %rbx
   200a7:	41 5c                	pop    %r12
   200a9:	41 5d                	pop    %r13
   200ab:	41 5e                	pop    %r14
   200ad:	41 5f                	pop    %r15
   200af:	5d                   	pop    %rbp
   200b0:	c3                   	retq   

00000000000200b1 <main>:
   200b1:	f3 0f 1e fa          	endbr64 
   200b5:	55                   	push   %rbp
   200b6:	48 89 e5             	mov    %rsp,%rbp
   200b9:	48 83 ec 20          	sub    $0x20,%rsp
   200bd:	89 7d ec             	mov    %edi,-0x14(%rbp)
   200c0:	48 89 75 e0          	mov    %rsi,-0x20(%rbp)
   200c4:	c7 45 fc 00 00 00 00 	movl   $0x0,-0x4(%rbp)
   200cb:	83 7d ec 02          	cmpl   $0x2,-0x14(%rbp)
   200cf:	74 25                	je     200f6 <main+0x45>
   200d1:	48 8b 45 e0          	mov    -0x20(%rbp),%rax
   200d5:	48 83 c0 08          	add    $0x8,%rax
   200d9:	48 8b 00             	mov    (%rax),%rax
   200dc:	48 8d 35 7d 38 00 00 	lea    0x387d(%rip),%rsi        # 23960 <g_1760+0x1800>
   200e3:	48 89 c7             	mov    %rax,%rdi
   200e6:	e8 a5 ff fe ff       	callq  10090 <strcmp@plt>
   200eb:	85 c0                	test   %eax,%eax
   200ed:	74 07                	je     200f6 <main+0x45>
   200ef:	c7 45 fc 01 00 00 00 	movl   $0x1,-0x4(%rbp)
   200f6:	e8 8e 00 ff ff       	callq  10189 <platform_main_begin>
   200fb:	e8 98 14 ff ff       	callq  11598 <crc32_gentab>
   20100:	e8 b0 16 ff ff       	callq  117b5 <func_1>
   20105:	8b 05 19 6f 00 00    	mov    0x6f19(%rip),%eax        # 27024 <g_2>
   2010b:	48 98                	cltq   
   2010d:	8b 55 fc             	mov    -0x4(%rbp),%edx
   20110:	48 8d 35 4b 38 00 00 	lea    0x384b(%rip),%rsi        # 23962 <g_1760+0x1802>
   20117:	48 89 c7             	mov    %rax,%rdi
   2011a:	e8 d4 15 ff ff       	callq  116f3 <transparent_crc>
   2011f:	c7 45 f0 00 00 00 00 	movl   $0x0,-0x10(%rbp)
   20126:	eb 4b                	jmp    20173 <main+0xc2>
   20128:	8b 45 f0             	mov    -0x10(%rbp),%eax
   2012b:	48 98                	cltq   
   2012d:	48 8d 14 85 00 00 00 	lea    0x0(,%rax,4),%rdx
   20134:	00 
   20135:	48 8d 05 44 d9 00 00 	lea    0xd944(%rip),%rax        # 2da80 <g_3>
   2013c:	8b 04 02             	mov    (%rdx,%rax,1),%eax
   2013f:	48 98                	cltq   
   20141:	8b 55 fc             	mov    -0x4(%rbp),%edx
   20144:	48 8d 35 1b 38 00 00 	lea    0x381b(%rip),%rsi        # 23966 <g_1760+0x1806>
   2014b:	48 89 c7             	mov    %rax,%rdi
   2014e:	e8 a0 15 ff ff       	callq  116f3 <transparent_crc>
   20153:	83 7d fc 00          	cmpl   $0x0,-0x4(%rbp)
   20157:	74 16                	je     2016f <main+0xbe>
   20159:	8b 45 f0             	mov    -0x10(%rbp),%eax
   2015c:	89 c6                	mov    %eax,%esi
   2015e:	48 8d 3d 08 38 00 00 	lea    0x3808(%rip),%rdi        # 2396d <g_1760+0x180d>
   20165:	b8 00 00 00 00       	mov    $0x0,%eax
   2016a:	e8 11 ff fe ff       	callq  10080 <printf@plt>
   2016f:	83 45 f0 01          	addl   $0x1,-0x10(%rbp)
   20173:	83 7d f0 08          	cmpl   $0x8,-0x10(%rbp)
   20177:	7e af                	jle    20128 <main+0x77>
   20179:	8b 05 a9 6e 00 00    	mov    0x6ea9(%rip),%eax        # 27028 <g_4>
   2017f:	48 98                	cltq   
   20181:	8b 55 fc             	mov    -0x4(%rbp),%edx
   20184:	48 8d 35 f0 37 00 00 	lea    0x37f0(%rip),%rsi        # 2397b <g_1760+0x181b>
   2018b:	48 89 c7             	mov    %rax,%rdi
   2018e:	e8 60 15 ff ff       	callq  116f3 <transparent_crc>
   20193:	c7 45 f0 00 00 00 00 	movl   $0x0,-0x10(%rbp)
   2019a:	eb 6e                	jmp    2020a <main+0x159>
   2019c:	c7 45 f4 00 00 00 00 	movl   $0x0,-0xc(%rbp)
   201a3:	eb 5b                	jmp    20200 <main+0x14f>
   201a5:	8b 45 f4             	mov    -0xc(%rbp),%eax
   201a8:	48 63 d0             	movslq %eax,%rdx
   201ab:	8b 45 f0             	mov    -0x10(%rbp),%eax
   201ae:	48 98                	cltq   
   201b0:	48 01 d0             	add    %rdx,%rax
   201b3:	48 8d 14 c5 00 00 00 	lea    0x0(,%rax,8),%rdx
   201ba:	00 
   201bb:	48 8d 05 6e 6e 00 00 	lea    0x6e6e(%rip),%rax        # 27030 <g_32>
   201c2:	48 8b 04 02          	mov    (%rdx,%rax,1),%rax
   201c6:	48 89 c1             	mov    %rax,%rcx
   201c9:	8b 45 fc             	mov    -0x4(%rbp),%eax
   201cc:	89 c2                	mov    %eax,%edx
   201ce:	48 8d 35 aa 37 00 00 	lea    0x37aa(%rip),%rsi        # 2397f <g_1760+0x181f>
   201d5:	48 89 cf             	mov    %rcx,%rdi
   201d8:	e8 16 15 ff ff       	callq  116f3 <transparent_crc>
   201dd:	83 7d fc 00          	cmpl   $0x0,-0x4(%rbp)
   201e1:	74 19                	je     201fc <main+0x14b>
   201e3:	8b 55 f4             	mov    -0xc(%rbp),%edx
   201e6:	8b 45 f0             	mov    -0x10(%rbp),%eax
   201e9:	89 c6                	mov    %eax,%esi
   201eb:	48 8d 3d 98 37 00 00 	lea    0x3798(%rip),%rdi        # 2398a <g_1760+0x182a>
   201f2:	b8 00 00 00 00       	mov    $0x0,%eax
   201f7:	e8 84 fe fe ff       	callq  10080 <printf@plt>
   201fc:	83 45 f4 01          	addl   $0x1,-0xc(%rbp)
   20200:	83 7d f4 00          	cmpl   $0x0,-0xc(%rbp)
   20204:	7e 9f                	jle    201a5 <main+0xf4>
   20206:	83 45 f0 01          	addl   $0x1,-0x10(%rbp)
   2020a:	83 7d f0 02          	cmpl   $0x2,-0x10(%rbp)
   2020e:	7e 8c                	jle    2019c <main+0xeb>
   20210:	48 8b 05 31 6e 00 00 	mov    0x6e31(%rip),%rax        # 27048 <g_34>
   20217:	48 89 c1             	mov    %rax,%rcx
   2021a:	8b 45 fc             	mov    -0x4(%rbp),%eax
   2021d:	89 c2                	mov    %eax,%edx
   2021f:	48 8d 35 76 37 00 00 	lea    0x3776(%rip),%rsi        # 2399c <g_1760+0x183c>
   20226:	48 89 cf             	mov    %rcx,%rdi
   20229:	e8 c5 14 ff ff       	callq  116f3 <transparent_crc>
   2022e:	8b 05 1c 6e 00 00    	mov    0x6e1c(%rip),%eax        # 27050 <g_87>
   20234:	48 98                	cltq   
   20236:	8b 55 fc             	mov    -0x4(%rbp),%edx
   20239:	48 8d 35 61 37 00 00 	lea    0x3761(%rip),%rsi        # 239a1 <g_1760+0x1841>
   20240:	48 89 c7             	mov    %rax,%rdi
   20243:	e8 ab 14 ff ff       	callq  116f3 <transparent_crc>
   20248:	8b 05 06 6e 00 00    	mov    0x6e06(%rip),%eax        # 27054 <g_97>
   2024e:	89 c1                	mov    %eax,%ecx
   20250:	8b 45 fc             	mov    -0x4(%rbp),%eax
   20253:	89 c2                	mov    %eax,%edx
   20255:	48 8d 35 4a 37 00 00 	lea    0x374a(%rip),%rsi        # 239a6 <g_1760+0x1846>
   2025c:	48 89 cf             	mov    %rcx,%rdi
   2025f:	e8 8f 14 ff ff       	callq  116f3 <transparent_crc>
   20264:	0f b7 05 ed 6d 00 00 	movzwl 0x6ded(%rip),%eax        # 27058 <g_104>
   2026b:	48 0f bf c0          	movswq %ax,%rax
   2026f:	8b 55 fc             	mov    -0x4(%rbp),%edx
   20272:	48 8d 35 32 37 00 00 	lea    0x3732(%rip),%rsi        # 239ab <g_1760+0x184b>
   20279:	48 89 c7             	mov    %rax,%rdi
   2027c:	e8 72 14 ff ff       	callq  116f3 <transparent_crc>
   20281:	48 8b 05 d8 6d 00 00 	mov    0x6dd8(%rip),%rax        # 27060 <g_113>
   20288:	48 89 c1             	mov    %rax,%rcx
   2028b:	8b 45 fc             	mov    -0x4(%rbp),%eax
   2028e:	89 c2                	mov    %eax,%edx
   20290:	48 8d 35 1a 37 00 00 	lea    0x371a(%rip),%rsi        # 239b1 <g_1760+0x1851>
   20297:	48 89 cf             	mov    %rcx,%rdi
   2029a:	e8 54 14 ff ff       	callq  116f3 <transparent_crc>
   2029f:	8b 05 c3 6d 00 00    	mov    0x6dc3(%rip),%eax        # 27068 <g_121>
   202a5:	48 98                	cltq   
   202a7:	8b 55 fc             	mov    -0x4(%rbp),%edx
   202aa:	48 8d 35 06 37 00 00 	lea    0x3706(%rip),%rsi        # 239b7 <g_1760+0x1857>
   202b1:	48 89 c7             	mov    %rax,%rdi
   202b4:	e8 3a 14 ff ff       	callq  116f3 <transparent_crc>
   202b9:	8b 05 e5 d7 00 00    	mov    0xd7e5(%rip),%eax        # 2daa4 <g_126>
   202bf:	89 c1                	mov    %eax,%ecx
   202c1:	8b 45 fc             	mov    -0x4(%rbp),%eax
   202c4:	89 c2                	mov    %eax,%edx
   202c6:	48 8d 35 f0 36 00 00 	lea    0x36f0(%rip),%rsi        # 239bd <g_1760+0x185d>
   202cd:	48 89 cf             	mov    %rcx,%rdi
   202d0:	e8 1e 14 ff ff       	callq  116f3 <transparent_crc>
   202d5:	c7 45 f0 00 00 00 00 	movl   $0x0,-0x10(%rbp)
   202dc:	eb 4a                	jmp    20328 <main+0x277>
   202de:	8b 45 f0             	mov    -0x10(%rbp),%eax
   202e1:	48 98                	cltq   
   202e3:	48 8d 14 c5 00 00 00 	lea    0x0(,%rax,8),%rdx
   202ea:	00 
   202eb:	48 8d 05 8e 6d 00 00 	lea    0x6d8e(%rip),%rax        # 27080 <g_146>
   202f2:	48 8b 04 02          	mov    (%rdx,%rax,1),%rax
   202f6:	8b 55 fc             	mov    -0x4(%rbp),%edx
   202f9:	48 8d 35 c3 36 00 00 	lea    0x36c3(%rip),%rsi        # 239c3 <g_1760+0x1863>
   20300:	48 89 c7             	mov    %rax,%rdi
   20303:	e8 eb 13 ff ff       	callq  116f3 <transparent_crc>
   20308:	83 7d fc 00          	cmpl   $0x0,-0x4(%rbp)
   2030c:	74 16                	je     20324 <main+0x273>
   2030e:	8b 45 f0             	mov    -0x10(%rbp),%eax
   20311:	89 c6                	mov    %eax,%esi
   20313:	48 8d 3d 53 36 00 00 	lea    0x3653(%rip),%rdi        # 2396d <g_1760+0x180d>
   2031a:	b8 00 00 00 00       	mov    $0x0,%eax
   2031f:	e8 5c fd fe ff       	callq  10080 <printf@plt>
   20324:	83 45 f0 01          	addl   $0x1,-0x10(%rbp)
   20328:	83 7d f0 07          	cmpl   $0x7,-0x10(%rbp)
   2032c:	7e b0                	jle    202de <main+0x22d>
   2032e:	8b 05 8c 6d 00 00    	mov    0x6d8c(%rip),%eax        # 270c0 <g_149>
   20334:	89 c1                	mov    %eax,%ecx
   20336:	8b 45 fc             	mov    -0x4(%rbp),%eax
   20339:	89 c2                	mov    %eax,%edx
   2033b:	48 8d 35 8a 36 00 00 	lea    0x368a(%rip),%rsi        # 239cc <g_1760+0x186c>
   20342:	48 89 cf             	mov    %rcx,%rdi
   20345:	e8 a9 13 ff ff       	callq  116f3 <transparent_crc>
   2034a:	0f b7 05 73 6d 00 00 	movzwl 0x6d73(%rip),%eax        # 270c4 <g_164>
   20351:	0f b7 c0             	movzwl %ax,%eax
   20354:	8b 55 fc             	mov    -0x4(%rbp),%edx
   20357:	48 8d 35 74 36 00 00 	lea    0x3674(%rip),%rsi        # 239d2 <g_1760+0x1872>
   2035e:	48 89 c7             	mov    %rax,%rdi
   20361:	e8 8d 13 ff ff       	callq  116f3 <transparent_crc>
   20366:	0f b6 05 59 6d 00 00 	movzbl 0x6d59(%rip),%eax        # 270c6 <g_192>
   2036d:	48 0f be c0          	movsbq %al,%rax
   20371:	8b 55 fc             	mov    -0x4(%rbp),%edx
   20374:	48 8d 35 5d 36 00 00 	lea    0x365d(%rip),%rsi        # 239d8 <g_1760+0x1878>
   2037b:	48 89 c7             	mov    %rax,%rdi
   2037e:	e8 70 13 ff ff       	callq  116f3 <transparent_crc>
   20383:	0f b6 05 3d 6d 00 00 	movzbl 0x6d3d(%rip),%eax        # 270c7 <g_202>
   2038a:	48 0f be c0          	movsbq %al,%rax
   2038e:	8b 55 fc             	mov    -0x4(%rbp),%edx
   20391:	48 8d 35 46 36 00 00 	lea    0x3646(%rip),%rsi        # 239de <g_1760+0x187e>
   20398:	48 89 c7             	mov    %rax,%rdi
   2039b:	e8 53 13 ff ff       	callq  116f3 <transparent_crc>
   203a0:	c7 45 f0 00 00 00 00 	movl   $0x0,-0x10(%rbp)
   203a7:	eb 45                	jmp    203ee <main+0x33d>
   203a9:	8b 45 f0             	mov    -0x10(%rbp),%eax
   203ac:	48 98                	cltq   
   203ae:	48 8d 15 13 6d 00 00 	lea    0x6d13(%rip),%rdx        # 270c8 <g_211>
   203b5:	0f b6 04 10          	movzbl (%rax,%rdx,1),%eax
   203b9:	0f b6 c0             	movzbl %al,%eax
   203bc:	8b 55 fc             	mov    -0x4(%rbp),%edx
   203bf:	48 8d 35 1e 36 00 00 	lea    0x361e(%rip),%rsi        # 239e4 <g_1760+0x1884>
   203c6:	48 89 c7             	mov    %rax,%rdi
   203c9:	e8 25 13 ff ff       	callq  116f3 <transparent_crc>
   203ce:	83 7d fc 00          	cmpl   $0x0,-0x4(%rbp)
   203d2:	74 16                	je     203ea <main+0x339>
   203d4:	8b 45 f0             	mov    -0x10(%rbp),%eax
   203d7:	89 c6                	mov    %eax,%esi
   203d9:	48 8d 3d 8d 35 00 00 	lea    0x358d(%rip),%rdi        # 2396d <g_1760+0x180d>
   203e0:	b8 00 00 00 00       	mov    $0x0,%eax
   203e5:	e8 96 fc fe ff       	callq  10080 <printf@plt>
   203ea:	83 45 f0 01          	addl   $0x1,-0x10(%rbp)
   203ee:	83 7d f0 06          	cmpl   $0x6,-0x10(%rbp)
   203f2:	7e b5                	jle    203a9 <main+0x2f8>
   203f4:	48 8b 05 d5 6c 00 00 	mov    0x6cd5(%rip),%rax        # 270d0 <g_212>
   203fb:	8b 55 fc             	mov    -0x4(%rbp),%edx
   203fe:	48 8d 35 e8 35 00 00 	lea    0x35e8(%rip),%rsi        # 239ed <g_1760+0x188d>
   20405:	48 89 c7             	mov    %rax,%rdi
   20408:	e8 e6 12 ff ff       	callq  116f3 <transparent_crc>
   2040d:	8b 05 c5 6c 00 00    	mov    0x6cc5(%rip),%eax        # 270d8 <g_213>
   20413:	89 c1                	mov    %eax,%ecx
   20415:	8b 45 fc             	mov    -0x4(%rbp),%eax
   20418:	89 c2                	mov    %eax,%edx
   2041a:	48 8d 35 d2 35 00 00 	lea    0x35d2(%rip),%rsi        # 239f3 <g_1760+0x1893>
   20421:	48 89 cf             	mov    %rcx,%rdi
   20424:	e8 ca 12 ff ff       	callq  116f3 <transparent_crc>
   20429:	48 8b 05 b0 6c 00 00 	mov    0x6cb0(%rip),%rax        # 270e0 <g_216>
   20430:	48 89 c1             	mov    %rax,%rcx
   20433:	8b 45 fc             	mov    -0x4(%rbp),%eax
   20436:	89 c2                	mov    %eax,%edx
   20438:	48 8d 35 ba 35 00 00 	lea    0x35ba(%rip),%rsi        # 239f9 <g_1760+0x1899>
   2043f:	48 89 cf             	mov    %rcx,%rdi
   20442:	e8 ac 12 ff ff       	callq  116f3 <transparent_crc>
   20447:	48 8b 05 9a 6c 00 00 	mov    0x6c9a(%rip),%rax        # 270e8 <g_219>
   2044e:	48 89 c1             	mov    %rax,%rcx
   20451:	8b 45 fc             	mov    -0x4(%rbp),%eax
   20454:	89 c2                	mov    %eax,%edx
   20456:	48 8d 35 a2 35 00 00 	lea    0x35a2(%rip),%rsi        # 239ff <g_1760+0x189f>
   2045d:	48 89 cf             	mov    %rcx,%rdi
   20460:	e8 8e 12 ff ff       	callq  116f3 <transparent_crc>
   20465:	c7 45 f0 00 00 00 00 	movl   $0x0,-0x10(%rbp)
   2046c:	eb 76                	jmp    204e4 <main+0x433>
   2046e:	c7 45 f4 00 00 00 00 	movl   $0x0,-0xc(%rbp)
   20475:	eb 63                	jmp    204da <main+0x429>
   20477:	8b 45 f4             	mov    -0xc(%rbp),%eax
   2047a:	48 63 c8             	movslq %eax,%rcx
   2047d:	8b 45 f0             	mov    -0x10(%rbp),%eax
   20480:	48 63 d0             	movslq %eax,%rdx
   20483:	48 89 d0             	mov    %rdx,%rax
   20486:	48 01 c0             	add    %rax,%rax
   20489:	48 01 d0             	add    %rdx,%rax
   2048c:	48 01 c8             	add    %rcx,%rax
   2048f:	48 8d 14 85 00 00 00 	lea    0x0(,%rax,4),%rdx
   20496:	00 
   20497:	48 8d 05 62 6c 00 00 	lea    0x6c62(%rip),%rax        # 27100 <g_220>
   2049e:	8b 04 02             	mov    (%rdx,%rax,1),%eax
   204a1:	89 c1                	mov    %eax,%ecx
   204a3:	8b 45 fc             	mov    -0x4(%rbp),%eax
   204a6:	89 c2                	mov    %eax,%edx
   204a8:	48 8d 35 56 35 00 00 	lea    0x3556(%rip),%rsi        # 23a05 <g_1760+0x18a5>
   204af:	48 89 cf             	mov    %rcx,%rdi
   204b2:	e8 3c 12 ff ff       	callq  116f3 <transparent_crc>
   204b7:	83 7d fc 00          	cmpl   $0x0,-0x4(%rbp)
   204bb:	74 19                	je     204d6 <main+0x425>
   204bd:	8b 55 f4             	mov    -0xc(%rbp),%edx
   204c0:	8b 45 f0             	mov    -0x10(%rbp),%eax
   204c3:	89 c6                	mov    %eax,%esi
   204c5:	48 8d 3d be 34 00 00 	lea    0x34be(%rip),%rdi        # 2398a <g_1760+0x182a>
   204cc:	b8 00 00 00 00       	mov    $0x0,%eax
   204d1:	e8 aa fb fe ff       	callq  10080 <printf@plt>
   204d6:	83 45 f4 01          	addl   $0x1,-0xc(%rbp)
   204da:	83 7d f4 02          	cmpl   $0x2,-0xc(%rbp)
   204de:	7e 97                	jle    20477 <main+0x3c6>
   204e0:	83 45 f0 01          	addl   $0x1,-0x10(%rbp)
   204e4:	83 7d f0 09          	cmpl   $0x9,-0x10(%rbp)
   204e8:	7e 84                	jle    2046e <main+0x3bd>
   204ea:	48 8b 05 87 6c 00 00 	mov    0x6c87(%rip),%rax        # 27178 <g_268>
   204f1:	8b 55 fc             	mov    -0x4(%rbp),%edx
   204f4:	48 8d 35 16 35 00 00 	lea    0x3516(%rip),%rsi        # 23a11 <g_1760+0x18b1>
   204fb:	48 89 c7             	mov    %rax,%rdi
   204fe:	e8 f0 11 ff ff       	callq  116f3 <transparent_crc>
   20503:	c7 45 f0 00 00 00 00 	movl   $0x0,-0x10(%rbp)
   2050a:	eb 4a                	jmp    20556 <main+0x4a5>
   2050c:	8b 45 f0             	mov    -0x10(%rbp),%eax
   2050f:	48 98                	cltq   
   20511:	48 8d 14 c5 00 00 00 	lea    0x0(,%rax,8),%rdx
   20518:	00 
   20519:	48 8d 05 a0 d5 00 00 	lea    0xd5a0(%rip),%rax        # 2dac0 <g_269>
   20520:	48 8b 04 02          	mov    (%rdx,%rax,1),%rax
   20524:	8b 55 fc             	mov    -0x4(%rbp),%edx
   20527:	48 8d 35 e9 34 00 00 	lea    0x34e9(%rip),%rsi        # 23a17 <g_1760+0x18b7>
   2052e:	48 89 c7             	mov    %rax,%rdi
   20531:	e8 bd 11 ff ff       	callq  116f3 <transparent_crc>
   20536:	83 7d fc 00          	cmpl   $0x0,-0x4(%rbp)
   2053a:	74 16                	je     20552 <main+0x4a1>
   2053c:	8b 45 f0             	mov    -0x10(%rbp),%eax
   2053f:	89 c6                	mov    %eax,%esi
   20541:	48 8d 3d 25 34 00 00 	lea    0x3425(%rip),%rdi        # 2396d <g_1760+0x180d>
   20548:	b8 00 00 00 00       	mov    $0x0,%eax
   2054d:	e8 2e fb fe ff       	callq  10080 <printf@plt>
   20552:	83 45 f0 01          	addl   $0x1,-0x10(%rbp)
   20556:	83 7d f0 06          	cmpl   $0x6,-0x10(%rbp)
   2055a:	7e b0                	jle    2050c <main+0x45b>
   2055c:	8b 05 1e 6c 00 00    	mov    0x6c1e(%rip),%eax        # 27180 <g_273>
   20562:	89 c1                	mov    %eax,%ecx
   20564:	8b 45 fc             	mov    -0x4(%rbp),%eax
   20567:	89 c2                	mov    %eax,%edx
   20569:	48 8d 35 b0 34 00 00 	lea    0x34b0(%rip),%rsi        # 23a20 <g_1760+0x18c0>
   20570:	48 89 cf             	mov    %rcx,%rdi
   20573:	e8 7b 11 ff ff       	callq  116f3 <transparent_crc>
   20578:	0f b7 05 05 6c 00 00 	movzwl 0x6c05(%rip),%eax        # 27184 <g_340>
   2057f:	0f b7 c0             	movzwl %ax,%eax
   20582:	8b 55 fc             	mov    -0x4(%rbp),%edx
   20585:	48 8d 35 9a 34 00 00 	lea    0x349a(%rip),%rsi        # 23a26 <g_1760+0x18c6>
   2058c:	48 89 c7             	mov    %rax,%rdi
   2058f:	e8 5f 11 ff ff       	callq  116f3 <transparent_crc>
   20594:	8b 05 ee 6b 00 00    	mov    0x6bee(%rip),%eax        # 27188 <g_352>
   2059a:	89 c1                	mov    %eax,%ecx
   2059c:	8b 45 fc             	mov    -0x4(%rbp),%eax
   2059f:	89 c2                	mov    %eax,%edx
   205a1:	48 8d 35 84 34 00 00 	lea    0x3484(%rip),%rsi        # 23a2c <g_1760+0x18cc>
   205a8:	48 89 cf             	mov    %rcx,%rdi
   205ab:	e8 43 11 ff ff       	callq  116f3 <transparent_crc>
   205b0:	c7 45 f0 00 00 00 00 	movl   $0x0,-0x10(%rbp)
   205b7:	eb 79                	jmp    20632 <main+0x581>
   205b9:	c7 45 f4 00 00 00 00 	movl   $0x0,-0xc(%rbp)
   205c0:	eb 66                	jmp    20628 <main+0x577>
   205c2:	8b 45 f4             	mov    -0xc(%rbp),%eax
   205c5:	48 63 c8             	movslq %eax,%rcx
   205c8:	8b 45 f0             	mov    -0x10(%rbp),%eax
   205cb:	48 63 d0             	movslq %eax,%rdx
   205ce:	48 89 d0             	mov    %rdx,%rax
   205d1:	48 01 c0             	add    %rax,%rax
   205d4:	48 01 d0             	add    %rdx,%rax
   205d7:	48 01 c0             	add    %rax,%rax
   205da:	48 01 c8             	add    %rcx,%rax
   205dd:	48 8d 14 85 00 00 00 	lea    0x0(,%rax,4),%rdx
   205e4:	00 
   205e5:	48 8d 05 b4 6b 00 00 	lea    0x6bb4(%rip),%rax        # 271a0 <g_398>
   205ec:	8b 04 02             	mov    (%rdx,%rax,1),%eax
   205ef:	89 c1                	mov    %eax,%ecx
   205f1:	8b 45 fc             	mov    -0x4(%rbp),%eax
   205f4:	89 c2                	mov    %eax,%edx
   205f6:	48 8d 35 35 34 00 00 	lea    0x3435(%rip),%rsi        # 23a32 <g_1760+0x18d2>
   205fd:	48 89 cf             	mov    %rcx,%rdi
   20600:	e8 ee 10 ff ff       	callq  116f3 <transparent_crc>
   20605:	83 7d fc 00          	cmpl   $0x0,-0x4(%rbp)
   20609:	74 19                	je     20624 <main+0x573>
   2060b:	8b 55 f4             	mov    -0xc(%rbp),%edx
   2060e:	8b 45 f0             	mov    -0x10(%rbp),%eax
   20611:	89 c6                	mov    %eax,%esi
   20613:	48 8d 3d 70 33 00 00 	lea    0x3370(%rip),%rdi        # 2398a <g_1760+0x182a>
   2061a:	b8 00 00 00 00       	mov    $0x0,%eax
   2061f:	e8 5c fa fe ff       	callq  10080 <printf@plt>
   20624:	83 45 f4 01          	addl   $0x1,-0xc(%rbp)
   20628:	83 7d f4 05          	cmpl   $0x5,-0xc(%rbp)
   2062c:	7e 94                	jle    205c2 <main+0x511>
   2062e:	83 45 f0 01          	addl   $0x1,-0x10(%rbp)
   20632:	83 7d f0 03          	cmpl   $0x3,-0x10(%rbp)
   20636:	7e 81                	jle    205b9 <main+0x508>
   20638:	0f b7 05 c1 6b 00 00 	movzwl 0x6bc1(%rip),%eax        # 27200 <g_421>
   2063f:	0f b7 c0             	movzwl %ax,%eax
   20642:	8b 55 fc             	mov    -0x4(%rbp),%edx
   20645:	48 8d 35 f2 33 00 00 	lea    0x33f2(%rip),%rsi        # 23a3e <g_1760+0x18de>
   2064c:	48 89 c7             	mov    %rax,%rdi
   2064f:	e8 9f 10 ff ff       	callq  116f3 <transparent_crc>
   20654:	0f b6 05 a9 6b 00 00 	movzbl 0x6ba9(%rip),%eax        # 27204 <g_512>
   2065b:	48 0f be c0          	movsbq %al,%rax
   2065f:	8b 55 fc             	mov    -0x4(%rbp),%edx
   20662:	48 8d 35 de 33 00 00 	lea    0x33de(%rip),%rsi        # 23a47 <g_1760+0x18e7>
   20669:	48 89 c7             	mov    %rax,%rdi
   2066c:	e8 82 10 ff ff       	callq  116f3 <transparent_crc>
   20671:	0f b7 05 8e 6b 00 00 	movzwl 0x6b8e(%rip),%eax        # 27206 <g_514>
   20678:	0f b7 c0             	movzwl %ax,%eax
   2067b:	8b 55 fc             	mov    -0x4(%rbp),%edx
   2067e:	48 8d 35 c8 33 00 00 	lea    0x33c8(%rip),%rsi        # 23a4d <g_1760+0x18ed>
   20685:	48 89 c7             	mov    %rax,%rdi
   20688:	e8 66 10 ff ff       	callq  116f3 <transparent_crc>
   2068d:	8b 05 75 6b 00 00    	mov    0x6b75(%rip),%eax        # 27208 <g_542>
   20693:	48 98                	cltq   
   20695:	8b 55 fc             	mov    -0x4(%rbp),%edx
   20698:	48 8d 35 b4 33 00 00 	lea    0x33b4(%rip),%rsi        # 23a53 <g_1760+0x18f3>
   2069f:	48 89 c7             	mov    %rax,%rdi
   206a2:	e8 4c 10 ff ff       	callq  116f3 <transparent_crc>
   206a7:	0f b6 05 5e 6b 00 00 	movzbl 0x6b5e(%rip),%eax        # 2720c <g_544>
   206ae:	48 0f be c0          	movsbq %al,%rax
   206b2:	8b 55 fc             	mov    -0x4(%rbp),%edx
   206b5:	48 8d 35 9d 33 00 00 	lea    0x339d(%rip),%rsi        # 23a59 <g_1760+0x18f9>
   206bc:	48 89 c7             	mov    %rax,%rdi
   206bf:	e8 2f 10 ff ff       	callq  116f3 <transparent_crc>
   206c4:	c7 45 f0 00 00 00 00 	movl   $0x0,-0x10(%rbp)
   206cb:	eb 4a                	jmp    20717 <main+0x666>
   206cd:	8b 45 f0             	mov    -0x10(%rbp),%eax
   206d0:	48 98                	cltq   
   206d2:	48 8d 14 00          	lea    (%rax,%rax,1),%rdx
   206d6:	48 8d 05 33 6b 00 00 	lea    0x6b33(%rip),%rax        # 27210 <g_545>
   206dd:	0f b7 04 02          	movzwl (%rdx,%rax,1),%eax
   206e1:	48 0f bf c0          	movswq %ax,%rax
   206e5:	8b 55 fc             	mov    -0x4(%rbp),%edx
   206e8:	48 8d 35 70 33 00 00 	lea    0x3370(%rip),%rsi        # 23a5f <g_1760+0x18ff>
   206ef:	48 89 c7             	mov    %rax,%rdi
   206f2:	e8 fc 0f ff ff       	callq  116f3 <transparent_crc>
   206f7:	83 7d fc 00          	cmpl   $0x0,-0x4(%rbp)
   206fb:	74 16                	je     20713 <main+0x662>
   206fd:	8b 45 f0             	mov    -0x10(%rbp),%eax
   20700:	89 c6                	mov    %eax,%esi
   20702:	48 8d 3d 64 32 00 00 	lea    0x3264(%rip),%rdi        # 2396d <g_1760+0x180d>
   20709:	b8 00 00 00 00       	mov    $0x0,%eax
   2070e:	e8 6d f9 fe ff       	callq  10080 <printf@plt>
   20713:	83 45 f0 01          	addl   $0x1,-0x10(%rbp)
   20717:	83 7d f0 03          	cmpl   $0x3,-0x10(%rbp)
   2071b:	7e b0                	jle    206cd <main+0x61c>
   2071d:	48 8b 05 e4 d3 00 00 	mov    0xd3e4(%rip),%rax        # 2db08 <g_546>
   20724:	8b 55 fc             	mov    -0x4(%rbp),%edx
   20727:	48 8d 35 3a 33 00 00 	lea    0x333a(%rip),%rsi        # 23a68 <g_1760+0x1908>
   2072e:	48 89 c7             	mov    %rax,%rdi
   20731:	e8 bd 0f ff ff       	callq  116f3 <transparent_crc>
   20736:	0f b7 05 db 6a 00 00 	movzwl 0x6adb(%rip),%eax        # 27218 <g_720>
   2073d:	0f b7 c0             	movzwl %ax,%eax
   20740:	8b 55 fc             	mov    -0x4(%rbp),%edx
   20743:	48 8d 35 24 33 00 00 	lea    0x3324(%rip),%rsi        # 23a6e <g_1760+0x190e>
   2074a:	48 89 c7             	mov    %rax,%rdi
   2074d:	e8 a1 0f ff ff       	callq  116f3 <transparent_crc>
   20752:	0f b7 05 c3 6a 00 00 	movzwl 0x6ac3(%rip),%eax        # 2721c <g_721>
   20759:	0f b7 c0             	movzwl %ax,%eax
   2075c:	8b 55 fc             	mov    -0x4(%rbp),%edx
   2075f:	48 8d 35 11 33 00 00 	lea    0x3311(%rip),%rsi        # 23a77 <g_1760+0x1917>
   20766:	48 89 c7             	mov    %rax,%rdi
   20769:	e8 85 0f ff ff       	callq  116f3 <transparent_crc>
   2076e:	0f b7 05 ab 6a 00 00 	movzwl 0x6aab(%rip),%eax        # 27220 <g_722>
   20775:	0f b7 c0             	movzwl %ax,%eax
   20778:	8b 55 fc             	mov    -0x4(%rbp),%edx
   2077b:	48 8d 35 fe 32 00 00 	lea    0x32fe(%rip),%rsi        # 23a80 <g_1760+0x1920>
   20782:	48 89 c7             	mov    %rax,%rdi
   20785:	e8 69 0f ff ff       	callq  116f3 <transparent_crc>
   2078a:	0f b7 05 93 6a 00 00 	movzwl 0x6a93(%rip),%eax        # 27224 <g_723>
   20791:	0f b7 c0             	movzwl %ax,%eax
   20794:	8b 55 fc             	mov    -0x4(%rbp),%edx
   20797:	48 8d 35 eb 32 00 00 	lea    0x32eb(%rip),%rsi        # 23a89 <g_1760+0x1929>
   2079e:	48 89 c7             	mov    %rax,%rdi
   207a1:	e8 4d 0f ff ff       	callq  116f3 <transparent_crc>
   207a6:	c7 45 f0 00 00 00 00 	movl   $0x0,-0x10(%rbp)
   207ad:	eb 79                	jmp    20828 <main+0x777>
   207af:	c7 45 f4 00 00 00 00 	movl   $0x0,-0xc(%rbp)
   207b6:	eb 66                	jmp    2081e <main+0x76d>
   207b8:	8b 45 f4             	mov    -0xc(%rbp),%eax
   207bb:	48 63 c8             	movslq %eax,%rcx
   207be:	8b 45 f0             	mov    -0x10(%rbp),%eax
   207c1:	48 63 d0             	movslq %eax,%rdx
   207c4:	48 89 d0             	mov    %rdx,%rax
   207c7:	48 01 c0             	add    %rax,%rax
   207ca:	48 01 d0             	add    %rdx,%rax
   207cd:	48 01 c0             	add    %rax,%rax
   207d0:	48 01 c8             	add    %rcx,%rax
   207d3:	48 8d 14 85 00 00 00 	lea    0x0(,%rax,4),%rdx
   207da:	00 
   207db:	48 8d 05 5e 6a 00 00 	lea    0x6a5e(%rip),%rax        # 27240 <g_724>
   207e2:	0f b7 04 02          	movzwl (%rdx,%rax,1),%eax
   207e6:	0f b7 c0             	movzwl %ax,%eax
   207e9:	8b 55 fc             	mov    -0x4(%rbp),%edx
   207ec:	48 8d 35 9f 32 00 00 	lea    0x329f(%rip),%rsi        # 23a92 <g_1760+0x1932>
   207f3:	48 89 c7             	mov    %rax,%rdi
   207f6:	e8 f8 0e ff ff       	callq  116f3 <transparent_crc>
   207fb:	83 7d fc 00          	cmpl   $0x0,-0x4(%rbp)
   207ff:	74 19                	je     2081a <main+0x769>
   20801:	8b 55 f4             	mov    -0xc(%rbp),%edx
   20804:	8b 45 f0             	mov    -0x10(%rbp),%eax
   20807:	89 c6                	mov    %eax,%esi
   20809:	48 8d 3d 7a 31 00 00 	lea    0x317a(%rip),%rdi        # 2398a <g_1760+0x182a>
   20810:	b8 00 00 00 00       	mov    $0x0,%eax
   20815:	e8 66 f8 fe ff       	callq  10080 <printf@plt>
   2081a:	83 45 f4 01          	addl   $0x1,-0xc(%rbp)
   2081e:	83 7d f4 05          	cmpl   $0x5,-0xc(%rbp)
   20822:	7e 94                	jle    207b8 <main+0x707>
   20824:	83 45 f0 01          	addl   $0x1,-0x10(%rbp)
   20828:	83 7d f0 01          	cmpl   $0x1,-0x10(%rbp)
   2082c:	7e 81                	jle    207af <main+0x6fe>
   2082e:	0f b7 05 eb d2 00 00 	movzwl 0xd2eb(%rip),%eax        # 2db20 <g_725>
   20835:	0f b7 c0             	movzwl %ax,%eax
   20838:	8b 55 fc             	mov    -0x4(%rbp),%edx
   2083b:	48 8d 35 5f 32 00 00 	lea    0x325f(%rip),%rsi        # 23aa1 <g_1760+0x1941>
   20842:	48 89 c7             	mov    %rax,%rdi
   20845:	e8 a9 0e ff ff       	callq  116f3 <transparent_crc>
   2084a:	0f b7 05 1f 6a 00 00 	movzwl 0x6a1f(%rip),%eax        # 27270 <g_726>
   20851:	0f b7 c0             	movzwl %ax,%eax
   20854:	8b 55 fc             	mov    -0x4(%rbp),%edx
   20857:	48 8d 35 4c 32 00 00 	lea    0x324c(%rip),%rsi        # 23aaa <g_1760+0x194a>
   2085e:	48 89 c7             	mov    %rax,%rdi
   20861:	e8 8d 0e ff ff       	callq  116f3 <transparent_crc>
   20866:	c7 45 f0 00 00 00 00 	movl   $0x0,-0x10(%rbp)
   2086d:	eb 70                	jmp    208df <main+0x82e>
   2086f:	c7 45 f4 00 00 00 00 	movl   $0x0,-0xc(%rbp)
   20876:	eb 5d                	jmp    208d5 <main+0x824>
   20878:	8b 45 f4             	mov    -0xc(%rbp),%eax
   2087b:	48 98                	cltq   
   2087d:	8b 55 f0             	mov    -0x10(%rbp),%edx
   20880:	48 63 d2             	movslq %edx,%rdx
   20883:	48 c1 e2 02          	shl    $0x2,%rdx
   20887:	48 01 d0             	add    %rdx,%rax
   2088a:	48 8d 14 85 00 00 00 	lea    0x0(,%rax,4),%rdx
   20891:	00 
   20892:	48 8d 05 e7 69 00 00 	lea    0x69e7(%rip),%rax        # 27280 <g_727>
   20899:	0f b7 04 02          	movzwl (%rdx,%rax,1),%eax
   2089d:	0f b7 c0             	movzwl %ax,%eax
   208a0:	8b 55 fc             	mov    -0x4(%rbp),%edx
   208a3:	48 8d 35 09 32 00 00 	lea    0x3209(%rip),%rsi        # 23ab3 <g_1760+0x1953>
   208aa:	48 89 c7             	mov    %rax,%rdi
   208ad:	e8 41 0e ff ff       	callq  116f3 <transparent_crc>
   208b2:	83 7d fc 00          	cmpl   $0x0,-0x4(%rbp)
   208b6:	74 19                	je     208d1 <main+0x820>
   208b8:	8b 55 f4             	mov    -0xc(%rbp),%edx
   208bb:	8b 45 f0             	mov    -0x10(%rbp),%eax
   208be:	89 c6                	mov    %eax,%esi
   208c0:	48 8d 3d c3 30 00 00 	lea    0x30c3(%rip),%rdi        # 2398a <g_1760+0x182a>
   208c7:	b8 00 00 00 00       	mov    $0x0,%eax
   208cc:	e8 af f7 fe ff       	callq  10080 <printf@plt>
   208d1:	83 45 f4 01          	addl   $0x1,-0xc(%rbp)
   208d5:	83 7d f4 03          	cmpl   $0x3,-0xc(%rbp)
   208d9:	7e 9d                	jle    20878 <main+0x7c7>
   208db:	83 45 f0 01          	addl   $0x1,-0x10(%rbp)
   208df:	83 7d f0 08          	cmpl   $0x8,-0x10(%rbp)
   208e3:	7e 8a                	jle    2086f <main+0x7be>
   208e5:	0f b7 05 24 6a 00 00 	movzwl 0x6a24(%rip),%eax        # 27310 <g_728>
   208ec:	0f b7 c0             	movzwl %ax,%eax
   208ef:	8b 55 fc             	mov    -0x4(%rbp),%edx
   208f2:	48 8d 35 c9 31 00 00 	lea    0x31c9(%rip),%rsi        # 23ac2 <g_1760+0x1962>
   208f9:	48 89 c7             	mov    %rax,%rdi
   208fc:	e8 f2 0d ff ff       	callq  116f3 <transparent_crc>
   20901:	0f b7 05 0c 6a 00 00 	movzwl 0x6a0c(%rip),%eax        # 27314 <g_729>
   20908:	0f b7 c0             	movzwl %ax,%eax
   2090b:	8b 55 fc             	mov    -0x4(%rbp),%edx
   2090e:	48 8d 35 b6 31 00 00 	lea    0x31b6(%rip),%rsi        # 23acb <g_1760+0x196b>
   20915:	48 89 c7             	mov    %rax,%rdi
   20918:	e8 d6 0d ff ff       	callq  116f3 <transparent_crc>
   2091d:	0f b7 05 00 d2 00 00 	movzwl 0xd200(%rip),%eax        # 2db24 <g_730>
   20924:	0f b7 c0             	movzwl %ax,%eax
   20927:	8b 55 fc             	mov    -0x4(%rbp),%edx
   2092a:	48 8d 35 a3 31 00 00 	lea    0x31a3(%rip),%rsi        # 23ad4 <g_1760+0x1974>
   20931:	48 89 c7             	mov    %rax,%rdi
   20934:	e8 ba 0d ff ff       	callq  116f3 <transparent_crc>
   20939:	0f b7 05 d8 69 00 00 	movzwl 0x69d8(%rip),%eax        # 27318 <g_731>
   20940:	0f b7 c0             	movzwl %ax,%eax
   20943:	8b 55 fc             	mov    -0x4(%rbp),%edx
   20946:	48 8d 35 90 31 00 00 	lea    0x3190(%rip),%rsi        # 23add <g_1760+0x197d>
   2094d:	48 89 c7             	mov    %rax,%rdi
   20950:	e8 9e 0d ff ff       	callq  116f3 <transparent_crc>
   20955:	0f b7 05 c0 69 00 00 	movzwl 0x69c0(%rip),%eax        # 2731c <g_732>
   2095c:	0f b7 c0             	movzwl %ax,%eax
   2095f:	8b 55 fc             	mov    -0x4(%rbp),%edx
   20962:	48 8d 35 7d 31 00 00 	lea    0x317d(%rip),%rsi        # 23ae6 <g_1760+0x1986>
   20969:	48 89 c7             	mov    %rax,%rdi
   2096c:	e8 82 0d ff ff       	callq  116f3 <transparent_crc>
   20971:	0f b7 05 a8 69 00 00 	movzwl 0x69a8(%rip),%eax        # 27320 <g_733>
   20978:	0f b7 c0             	movzwl %ax,%eax
   2097b:	8b 55 fc             	mov    -0x4(%rbp),%edx
   2097e:	48 8d 35 6a 31 00 00 	lea    0x316a(%rip),%rsi        # 23aef <g_1760+0x198f>
   20985:	48 89 c7             	mov    %rax,%rdi
   20988:	e8 66 0d ff ff       	callq  116f3 <transparent_crc>
   2098d:	0f b7 05 90 69 00 00 	movzwl 0x6990(%rip),%eax        # 27324 <g_734>
   20994:	0f b7 c0             	movzwl %ax,%eax
   20997:	8b 55 fc             	mov    -0x4(%rbp),%edx
   2099a:	48 8d 35 57 31 00 00 	lea    0x3157(%rip),%rsi        # 23af8 <g_1760+0x1998>
   209a1:	48 89 c7             	mov    %rax,%rdi
   209a4:	e8 4a 0d ff ff       	callq  116f3 <transparent_crc>
   209a9:	c7 45 f0 00 00 00 00 	movl   $0x0,-0x10(%rbp)
   209b0:	e9 a0 00 00 00       	jmpq   20a55 <main+0x9a4>
   209b5:	c7 45 f4 00 00 00 00 	movl   $0x0,-0xc(%rbp)
   209bc:	e9 86 00 00 00       	jmpq   20a47 <main+0x996>
   209c1:	c7 45 f8 00 00 00 00 	movl   $0x0,-0x8(%rbp)
   209c8:	eb 73                	jmp    20a3d <main+0x98c>
   209ca:	8b 45 f8             	mov    -0x8(%rbp),%eax
   209cd:	48 63 c8             	movslq %eax,%rcx
   209d0:	8b 45 f0             	mov    -0x10(%rbp),%eax
   209d3:	48 63 d0             	movslq %eax,%rdx
   209d6:	8b 45 f4             	mov    -0xc(%rbp),%eax
   209d9:	48 63 f0             	movslq %eax,%rsi
   209dc:	48 89 d0             	mov    %rdx,%rax
   209df:	48 01 c0             	add    %rax,%rax
   209e2:	48 01 d0             	add    %rdx,%rax
   209e5:	48 01 f0             	add    %rsi,%rax
   209e8:	48 c1 e0 03          	shl    $0x3,%rax
   209ec:	48 01 c8             	add    %rcx,%rax
   209ef:	48 8d 14 85 00 00 00 	lea    0x0(,%rax,4),%rdx
   209f6:	00 
   209f7:	48 8d 05 42 69 00 00 	lea    0x6942(%rip),%rax        # 27340 <g_735>
   209fe:	0f b7 04 02          	movzwl (%rdx,%rax,1),%eax
   20a02:	0f b7 c0             	movzwl %ax,%eax
   20a05:	8b 55 fc             	mov    -0x4(%rbp),%edx
   20a08:	48 8d 35 f2 30 00 00 	lea    0x30f2(%rip),%rsi        # 23b01 <g_1760+0x19a1>
   20a0f:	48 89 c7             	mov    %rax,%rdi
   20a12:	e8 dc 0c ff ff       	callq  116f3 <transparent_crc>
   20a17:	83 7d fc 00          	cmpl   $0x0,-0x4(%rbp)
   20a1b:	74 1c                	je     20a39 <main+0x988>
   20a1d:	8b 4d f8             	mov    -0x8(%rbp),%ecx
   20a20:	8b 55 f4             	mov    -0xc(%rbp),%edx
   20a23:	8b 45 f0             	mov    -0x10(%rbp),%eax
   20a26:	89 c6                	mov    %eax,%esi
   20a28:	48 8d 3d e4 30 00 00 	lea    0x30e4(%rip),%rdi        # 23b13 <g_1760+0x19b3>
   20a2f:	b8 00 00 00 00       	mov    $0x0,%eax
   20a34:	e8 47 f6 fe ff       	callq  10080 <printf@plt>
   20a39:	83 45 f8 01          	addl   $0x1,-0x8(%rbp)
   20a3d:	83 7d f8 07          	cmpl   $0x7,-0x8(%rbp)
   20a41:	7e 87                	jle    209ca <main+0x919>
   20a43:	83 45 f4 01          	addl   $0x1,-0xc(%rbp)
   20a47:	83 7d f4 02          	cmpl   $0x2,-0xc(%rbp)
   20a4b:	0f 8e 70 ff ff ff    	jle    209c1 <main+0x910>
   20a51:	83 45 f0 01          	addl   $0x1,-0x10(%rbp)
   20a55:	83 7d f0 01          	cmpl   $0x1,-0x10(%rbp)
   20a59:	0f 8e 56 ff ff ff    	jle    209b5 <main+0x904>
   20a5f:	0f b7 05 c2 d0 00 00 	movzwl 0xd0c2(%rip),%eax        # 2db28 <g_736>
   20a66:	0f b7 c0             	movzwl %ax,%eax
   20a69:	8b 55 fc             	mov    -0x4(%rbp),%edx
   20a6c:	48 8d 35 b6 30 00 00 	lea    0x30b6(%rip),%rsi        # 23b29 <g_1760+0x19c9>
   20a73:	48 89 c7             	mov    %rax,%rdi
   20a76:	e8 78 0c ff ff       	callq  116f3 <transparent_crc>
   20a7b:	0f b7 05 7e 69 00 00 	movzwl 0x697e(%rip),%eax        # 27400 <g_737>
   20a82:	0f b7 c0             	movzwl %ax,%eax
   20a85:	8b 55 fc             	mov    -0x4(%rbp),%edx
   20a88:	48 8d 35 a3 30 00 00 	lea    0x30a3(%rip),%rsi        # 23b32 <g_1760+0x19d2>
   20a8f:	48 89 c7             	mov    %rax,%rdi
   20a92:	e8 5c 0c ff ff       	callq  116f3 <transparent_crc>
   20a97:	48 c7 c0 fd ff ff ff 	mov    $0xfffffffffffffffd,%rax
   20a9e:	48 89 c1             	mov    %rax,%rcx
   20aa1:	8b 45 fc             	mov    -0x4(%rbp),%eax
   20aa4:	89 c2                	mov    %eax,%edx
   20aa6:	48 8d 35 8e 30 00 00 	lea    0x308e(%rip),%rsi        # 23b3b <g_1760+0x19db>
   20aad:	48 89 cf             	mov    %rcx,%rdi
   20ab0:	e8 3e 0c ff ff       	callq  116f3 <transparent_crc>
   20ab5:	48 8b 05 4c 69 00 00 	mov    0x694c(%rip),%rax        # 27408 <g_803>
   20abc:	48 89 c1             	mov    %rax,%rcx
   20abf:	8b 45 fc             	mov    -0x4(%rbp),%eax
   20ac2:	89 c2                	mov    %eax,%edx
   20ac4:	48 8d 35 76 30 00 00 	lea    0x3076(%rip),%rsi        # 23b41 <g_1760+0x19e1>
   20acb:	48 89 cf             	mov    %rcx,%rdi
   20ace:	e8 20 0c ff ff       	callq  116f3 <transparent_crc>
   20ad3:	c7 45 f0 00 00 00 00 	movl   $0x0,-0x10(%rbp)
   20ada:	eb 4d                	jmp    20b29 <main+0xa78>
   20adc:	8b 45 f0             	mov    -0x10(%rbp),%eax
   20adf:	48 98                	cltq   
   20ae1:	48 8d 14 85 00 00 00 	lea    0x0(,%rax,4),%rdx
   20ae8:	00 
   20ae9:	48 8d 05 20 69 00 00 	lea    0x6920(%rip),%rax        # 27410 <g_849>
   20af0:	8b 04 02             	mov    (%rdx,%rax,1),%eax
   20af3:	89 c1                	mov    %eax,%ecx
   20af5:	8b 45 fc             	mov    -0x4(%rbp),%eax
   20af8:	89 c2                	mov    %eax,%edx
   20afa:	48 8d 35 46 30 00 00 	lea    0x3046(%rip),%rsi        # 23b47 <g_1760+0x19e7>
   20b01:	48 89 cf             	mov    %rcx,%rdi
   20b04:	e8 ea 0b ff ff       	callq  116f3 <transparent_crc>
   20b09:	83 7d fc 00          	cmpl   $0x0,-0x4(%rbp)
   20b0d:	74 16                	je     20b25 <main+0xa74>
   20b0f:	8b 45 f0             	mov    -0x10(%rbp),%eax
   20b12:	89 c6                	mov    %eax,%esi
   20b14:	48 8d 3d 52 2e 00 00 	lea    0x2e52(%rip),%rdi        # 2396d <g_1760+0x180d>
   20b1b:	b8 00 00 00 00       	mov    $0x0,%eax
   20b20:	e8 5b f5 fe ff       	callq  10080 <printf@plt>
   20b25:	83 45 f0 01          	addl   $0x1,-0x10(%rbp)
   20b29:	83 7d f0 01          	cmpl   $0x1,-0x10(%rbp)
   20b2d:	7e ad                	jle    20adc <main+0xa2b>
   20b2f:	0f b7 05 e2 68 00 00 	movzwl 0x68e2(%rip),%eax        # 27418 <g_860>
   20b36:	0f b7 c0             	movzwl %ax,%eax
   20b39:	8b 55 fc             	mov    -0x4(%rbp),%edx
   20b3c:	48 8d 35 0d 30 00 00 	lea    0x300d(%rip),%rsi        # 23b50 <g_1760+0x19f0>
   20b43:	48 89 c7             	mov    %rax,%rdi
   20b46:	e8 a8 0b ff ff       	callq  116f3 <transparent_crc>
   20b4b:	c7 45 f0 00 00 00 00 	movl   $0x0,-0x10(%rbp)
   20b52:	eb 4f                	jmp    20ba3 <main+0xaf2>
   20b54:	8b 45 f0             	mov    -0x10(%rbp),%eax
   20b57:	48 98                	cltq   
   20b59:	48 8d 14 c5 00 00 00 	lea    0x0(,%rax,8),%rdx
   20b60:	00 
   20b61:	48 8d 05 b8 68 00 00 	lea    0x68b8(%rip),%rax        # 27420 <g_886>
   20b68:	48 8b 04 02          	mov    (%rdx,%rax,1),%rax
   20b6c:	48 89 c1             	mov    %rax,%rcx
   20b6f:	8b 45 fc             	mov    -0x4(%rbp),%eax
   20b72:	89 c2                	mov    %eax,%edx
   20b74:	48 8d 35 de 2f 00 00 	lea    0x2fde(%rip),%rsi        # 23b59 <g_1760+0x19f9>
   20b7b:	48 89 cf             	mov    %rcx,%rdi
   20b7e:	e8 70 0b ff ff       	callq  116f3 <transparent_crc>
   20b83:	83 7d fc 00          	cmpl   $0x0,-0x4(%rbp)
   20b87:	74 16                	je     20b9f <main+0xaee>
   20b89:	8b 45 f0             	mov    -0x10(%rbp),%eax
   20b8c:	89 c6                	mov    %eax,%esi
   20b8e:	48 8d 3d d8 2d 00 00 	lea    0x2dd8(%rip),%rdi        # 2396d <g_1760+0x180d>
   20b95:	b8 00 00 00 00       	mov    $0x0,%eax
   20b9a:	e8 e1 f4 fe ff       	callq  10080 <printf@plt>
   20b9f:	83 45 f0 01          	addl   $0x1,-0x10(%rbp)
   20ba3:	83 7d f0 02          	cmpl   $0x2,-0x10(%rbp)
   20ba7:	7e ab                	jle    20b54 <main+0xaa3>
   20ba9:	8b 05 89 68 00 00    	mov    0x6889(%rip),%eax        # 27438 <g_888>
   20baf:	48 98                	cltq   
   20bb1:	8b 55 fc             	mov    -0x4(%rbp),%edx
   20bb4:	48 8d 35 a7 2f 00 00 	lea    0x2fa7(%rip),%rsi        # 23b62 <g_1760+0x1a02>
   20bbb:	48 89 c7             	mov    %rax,%rdi
   20bbe:	e8 30 0b ff ff       	callq  116f3 <transparent_crc>
   20bc3:	c7 45 f0 00 00 00 00 	movl   $0x0,-0x10(%rbp)
   20bca:	eb 4f                	jmp    20c1b <main+0xb6a>
   20bcc:	8b 45 f0             	mov    -0x10(%rbp),%eax
   20bcf:	48 98                	cltq   
   20bd1:	48 8d 14 c5 00 00 00 	lea    0x0(,%rax,8),%rdx
   20bd8:	00 
   20bd9:	48 8d 05 60 68 00 00 	lea    0x6860(%rip),%rax        # 27440 <g_890>
   20be0:	48 8b 04 02          	mov    (%rdx,%rax,1),%rax
   20be4:	48 89 c1             	mov    %rax,%rcx
   20be7:	8b 45 fc             	mov    -0x4(%rbp),%eax
   20bea:	89 c2                	mov    %eax,%edx
   20bec:	48 8d 35 75 2f 00 00 	lea    0x2f75(%rip),%rsi        # 23b68 <g_1760+0x1a08>
   20bf3:	48 89 cf             	mov    %rcx,%rdi
   20bf6:	e8 f8 0a ff ff       	callq  116f3 <transparent_crc>
   20bfb:	83 7d fc 00          	cmpl   $0x0,-0x4(%rbp)
   20bff:	74 16                	je     20c17 <main+0xb66>
   20c01:	8b 45 f0             	mov    -0x10(%rbp),%eax
   20c04:	89 c6                	mov    %eax,%esi
   20c06:	48 8d 3d 60 2d 00 00 	lea    0x2d60(%rip),%rdi        # 2396d <g_1760+0x180d>
   20c0d:	b8 00 00 00 00       	mov    $0x0,%eax
   20c12:	e8 69 f4 fe ff       	callq  10080 <printf@plt>
   20c17:	83 45 f0 01          	addl   $0x1,-0x10(%rbp)
   20c1b:	83 7d f0 06          	cmpl   $0x6,-0x10(%rbp)
   20c1f:	7e ab                	jle    20bcc <main+0xb1b>
   20c21:	48 8b 05 50 68 00 00 	mov    0x6850(%rip),%rax        # 27478 <g_893>
   20c28:	48 89 c1             	mov    %rax,%rcx
   20c2b:	8b 45 fc             	mov    -0x4(%rbp),%eax
   20c2e:	89 c2                	mov    %eax,%edx
   20c30:	48 8d 35 3a 2f 00 00 	lea    0x2f3a(%rip),%rsi        # 23b71 <g_1760+0x1a11>
   20c37:	48 89 cf             	mov    %rcx,%rdi
   20c3a:	e8 b4 0a ff ff       	callq  116f3 <transparent_crc>
   20c3f:	c7 45 f0 00 00 00 00 	movl   $0x0,-0x10(%rbp)
   20c46:	eb 4d                	jmp    20c95 <main+0xbe4>
   20c48:	8b 45 f0             	mov    -0x10(%rbp),%eax
   20c4b:	48 98                	cltq   
   20c4d:	48 8d 14 85 00 00 00 	lea    0x0(,%rax,4),%rdx
   20c54:	00 
   20c55:	48 8d 05 24 68 00 00 	lea    0x6824(%rip),%rax        # 27480 <g_895>
   20c5c:	8b 04 02             	mov    (%rdx,%rax,1),%eax
   20c5f:	89 c1                	mov    %eax,%ecx
   20c61:	8b 45 fc             	mov    -0x4(%rbp),%eax
   20c64:	89 c2                	mov    %eax,%edx
   20c66:	48 8d 35 0a 2f 00 00 	lea    0x2f0a(%rip),%rsi        # 23b77 <g_1760+0x1a17>
   20c6d:	48 89 cf             	mov    %rcx,%rdi
   20c70:	e8 7e 0a ff ff       	callq  116f3 <transparent_crc>
   20c75:	83 7d fc 00          	cmpl   $0x0,-0x4(%rbp)
   20c79:	74 16                	je     20c91 <main+0xbe0>
   20c7b:	8b 45 f0             	mov    -0x10(%rbp),%eax
   20c7e:	89 c6                	mov    %eax,%esi
   20c80:	48 8d 3d e6 2c 00 00 	lea    0x2ce6(%rip),%rdi        # 2396d <g_1760+0x180d>
   20c87:	b8 00 00 00 00       	mov    $0x0,%eax
   20c8c:	e8 ef f3 fe ff       	callq  10080 <printf@plt>
   20c91:	83 45 f0 01          	addl   $0x1,-0x10(%rbp)
   20c95:	83 7d f0 01          	cmpl   $0x1,-0x10(%rbp)
   20c99:	7e ad                	jle    20c48 <main+0xb97>
   20c9b:	48 8b 05 e6 67 00 00 	mov    0x67e6(%rip),%rax        # 27488 <g_898>
   20ca2:	48 89 c1             	mov    %rax,%rcx
   20ca5:	8b 45 fc             	mov    -0x4(%rbp),%eax
   20ca8:	89 c2                	mov    %eax,%edx
   20caa:	48 8d 35 cf 2e 00 00 	lea    0x2ecf(%rip),%rsi        # 23b80 <g_1760+0x1a20>
   20cb1:	48 89 cf             	mov    %rcx,%rdi
   20cb4:	e8 3a 0a ff ff       	callq  116f3 <transparent_crc>
   20cb9:	0f b6 05 d0 67 00 00 	movzbl 0x67d0(%rip),%eax        # 27490 <g_899>
   20cc0:	48 0f be c0          	movsbq %al,%rax
   20cc4:	8b 55 fc             	mov    -0x4(%rbp),%edx
   20cc7:	48 8d 35 b8 2e 00 00 	lea    0x2eb8(%rip),%rsi        # 23b86 <g_1760+0x1a26>
   20cce:	48 89 c7             	mov    %rax,%rdi
   20cd1:	e8 1d 0a ff ff       	callq  116f3 <transparent_crc>
   20cd6:	8b 05 b8 67 00 00    	mov    0x67b8(%rip),%eax        # 27494 <g_900>
   20cdc:	89 c1                	mov    %eax,%ecx
   20cde:	8b 45 fc             	mov    -0x4(%rbp),%eax
   20ce1:	89 c2                	mov    %eax,%edx
   20ce3:	48 8d 35 a2 2e 00 00 	lea    0x2ea2(%rip),%rsi        # 23b8c <g_1760+0x1a2c>
   20cea:	48 89 cf             	mov    %rcx,%rdi
   20ced:	e8 01 0a ff ff       	callq  116f3 <transparent_crc>
   20cf2:	0f b6 05 9f 67 00 00 	movzbl 0x679f(%rip),%eax        # 27498 <g_903>
   20cf9:	0f b6 c0             	movzbl %al,%eax
   20cfc:	8b 55 fc             	mov    -0x4(%rbp),%edx
   20cff:	48 8d 35 8c 2e 00 00 	lea    0x2e8c(%rip),%rsi        # 23b92 <g_1760+0x1a32>
   20d06:	48 89 c7             	mov    %rax,%rdi
   20d09:	e8 e5 09 ff ff       	callq  116f3 <transparent_crc>
   20d0e:	8b 05 88 67 00 00    	mov    0x6788(%rip),%eax        # 2749c <g_925>
   20d14:	89 c1                	mov    %eax,%ecx
   20d16:	8b 45 fc             	mov    -0x4(%rbp),%eax
   20d19:	89 c2                	mov    %eax,%edx
   20d1b:	48 8d 35 76 2e 00 00 	lea    0x2e76(%rip),%rsi        # 23b98 <g_1760+0x1a38>
   20d22:	48 89 cf             	mov    %rcx,%rdi
   20d25:	e8 c9 09 ff ff       	callq  116f3 <transparent_crc>
   20d2a:	c7 45 f0 00 00 00 00 	movl   $0x0,-0x10(%rbp)
   20d31:	eb 7a                	jmp    20dad <main+0xcfc>
   20d33:	c7 45 f4 00 00 00 00 	movl   $0x0,-0xc(%rbp)
   20d3a:	eb 67                	jmp    20da3 <main+0xcf2>
   20d3c:	8b 45 f4             	mov    -0xc(%rbp),%eax
   20d3f:	48 63 c8             	movslq %eax,%rcx
   20d42:	8b 45 f0             	mov    -0x10(%rbp),%eax
   20d45:	48 63 d0             	movslq %eax,%rdx
   20d48:	48 89 d0             	mov    %rdx,%rax
   20d4b:	48 c1 e0 02          	shl    $0x2,%rax
   20d4f:	48 01 d0             	add    %rdx,%rax
   20d52:	48 01 c0             	add    %rax,%rax
   20d55:	48 01 c8             	add    %rcx,%rax
   20d58:	48 8d 14 85 00 00 00 	lea    0x0(,%rax,4),%rdx
   20d5f:	00 
   20d60:	48 8d 05 19 13 00 00 	lea    0x1319(%rip),%rax        # 22080 <g_931>
   20d67:	0f b7 04 02          	movzwl (%rdx,%rax,1),%eax
   20d6b:	0f b7 c0             	movzwl %ax,%eax
   20d6e:	8b 55 fc             	mov    -0x4(%rbp),%edx
   20d71:	48 8d 35 26 2e 00 00 	lea    0x2e26(%rip),%rsi        # 23b9e <g_1760+0x1a3e>
   20d78:	48 89 c7             	mov    %rax,%rdi
   20d7b:	e8 73 09 ff ff       	callq  116f3 <transparent_crc>
   20d80:	83 7d fc 00          	cmpl   $0x0,-0x4(%rbp)
   20d84:	74 19                	je     20d9f <main+0xcee>
   20d86:	8b 55 f4             	mov    -0xc(%rbp),%edx
   20d89:	8b 45 f0             	mov    -0x10(%rbp),%eax
   20d8c:	89 c6                	mov    %eax,%esi
   20d8e:	48 8d 3d f5 2b 00 00 	lea    0x2bf5(%rip),%rdi        # 2398a <g_1760+0x182a>
   20d95:	b8 00 00 00 00       	mov    $0x0,%eax
   20d9a:	e8 e1 f2 fe ff       	callq  10080 <printf@plt>
   20d9f:	83 45 f4 01          	addl   $0x1,-0xc(%rbp)
   20da3:	83 7d f4 09          	cmpl   $0x9,-0xc(%rbp)
   20da7:	7e 93                	jle    20d3c <main+0xc8b>
   20da9:	83 45 f0 01          	addl   $0x1,-0x10(%rbp)
   20dad:	83 7d f0 02          	cmpl   $0x2,-0x10(%rbp)
   20db1:	7e 80                	jle    20d33 <main+0xc82>
   20db3:	0f b7 05 e6 66 00 00 	movzwl 0x66e6(%rip),%eax        # 274a0 <g_953>
   20dba:	0f b7 c0             	movzwl %ax,%eax
   20dbd:	8b 55 fc             	mov    -0x4(%rbp),%edx
   20dc0:	48 8d 35 e6 2d 00 00 	lea    0x2de6(%rip),%rsi        # 23bad <g_1760+0x1a4d>
   20dc7:	48 89 c7             	mov    %rax,%rdi
   20dca:	e8 24 09 ff ff       	callq  116f3 <transparent_crc>
   20dcf:	0f b6 05 cc 66 00 00 	movzbl 0x66cc(%rip),%eax        # 274a2 <g_991>
   20dd6:	48 0f be c0          	movsbq %al,%rax
   20dda:	8b 55 fc             	mov    -0x4(%rbp),%edx
   20ddd:	48 8d 35 cf 2d 00 00 	lea    0x2dcf(%rip),%rsi        # 23bb3 <g_1760+0x1a53>
   20de4:	48 89 c7             	mov    %rax,%rdi
   20de7:	e8 07 09 ff ff       	callq  116f3 <transparent_crc>
   20dec:	0f b6 05 b0 66 00 00 	movzbl 0x66b0(%rip),%eax        # 274a3 <g_992>
   20df3:	48 0f be c0          	movsbq %al,%rax
   20df7:	8b 55 fc             	mov    -0x4(%rbp),%edx
   20dfa:	48 8d 35 b8 2d 00 00 	lea    0x2db8(%rip),%rsi        # 23bb9 <g_1760+0x1a59>
   20e01:	48 89 c7             	mov    %rax,%rdi
   20e04:	e8 ea 08 ff ff       	callq  116f3 <transparent_crc>
   20e09:	0f b6 05 94 66 00 00 	movzbl 0x6694(%rip),%eax        # 274a4 <g_994>
   20e10:	48 0f be c0          	movsbq %al,%rax
   20e14:	8b 55 fc             	mov    -0x4(%rbp),%edx
   20e17:	48 8d 35 a1 2d 00 00 	lea    0x2da1(%rip),%rsi        # 23bbf <g_1760+0x1a5f>
   20e1e:	48 89 c7             	mov    %rax,%rdi
   20e21:	e8 cd 08 ff ff       	callq  116f3 <transparent_crc>
   20e26:	48 8b 05 53 cd 00 00 	mov    0xcd53(%rip),%rax        # 2db80 <g_995>
   20e2d:	8b 55 fc             	mov    -0x4(%rbp),%edx
   20e30:	48 8d 35 8e 2d 00 00 	lea    0x2d8e(%rip),%rsi        # 23bc5 <g_1760+0x1a65>
   20e37:	48 89 c7             	mov    %rax,%rdi
   20e3a:	e8 b4 08 ff ff       	callq  116f3 <transparent_crc>
   20e3f:	0f b7 05 62 66 00 00 	movzwl 0x6662(%rip),%eax        # 274a8 <g_1145>
   20e46:	0f b7 c0             	movzwl %ax,%eax
   20e49:	8b 55 fc             	mov    -0x4(%rbp),%edx
   20e4c:	48 8d 35 78 2d 00 00 	lea    0x2d78(%rip),%rsi        # 23bcb <g_1760+0x1a6b>
   20e53:	48 89 c7             	mov    %rax,%rdi
   20e56:	e8 98 08 ff ff       	callq  116f3 <transparent_crc>
   20e5b:	c7 45 f0 00 00 00 00 	movl   $0x0,-0x10(%rbp)
   20e62:	eb 4a                	jmp    20eae <main+0xdfd>
   20e64:	8b 45 f0             	mov    -0x10(%rbp),%eax
   20e67:	48 98                	cltq   
   20e69:	48 8d 14 c5 00 00 00 	lea    0x0(,%rax,8),%rdx
   20e70:	00 
   20e71:	48 8d 05 38 66 00 00 	lea    0x6638(%rip),%rax        # 274b0 <g_1175>
   20e78:	48 8b 04 02          	mov    (%rdx,%rax,1),%rax
   20e7c:	8b 55 fc             	mov    -0x4(%rbp),%edx
   20e7f:	48 8d 35 4f 2d 00 00 	lea    0x2d4f(%rip),%rsi        # 23bd5 <g_1760+0x1a75>
   20e86:	48 89 c7             	mov    %rax,%rdi
   20e89:	e8 65 08 ff ff       	callq  116f3 <transparent_crc>
   20e8e:	83 7d fc 00          	cmpl   $0x0,-0x4(%rbp)
   20e92:	74 16                	je     20eaa <main+0xdf9>
   20e94:	8b 45 f0             	mov    -0x10(%rbp),%eax
   20e97:	89 c6                	mov    %eax,%esi
   20e99:	48 8d 3d cd 2a 00 00 	lea    0x2acd(%rip),%rdi        # 2396d <g_1760+0x180d>
   20ea0:	b8 00 00 00 00       	mov    $0x0,%eax
   20ea5:	e8 d6 f1 fe ff       	callq  10080 <printf@plt>
   20eaa:	83 45 f0 01          	addl   $0x1,-0x10(%rbp)
   20eae:	83 7d f0 00          	cmpl   $0x0,-0x10(%rbp)
   20eb2:	7e b0                	jle    20e64 <main+0xdb3>
   20eb4:	48 8b 05 fd 65 00 00 	mov    0x65fd(%rip),%rax        # 274b8 <g_1205>
   20ebb:	48 89 c1             	mov    %rax,%rcx
   20ebe:	8b 45 fc             	mov    -0x4(%rbp),%eax
   20ec1:	89 c2                	mov    %eax,%edx
   20ec3:	48 8d 35 15 2d 00 00 	lea    0x2d15(%rip),%rsi        # 23bdf <g_1760+0x1a7f>
   20eca:	48 89 cf             	mov    %rcx,%rdi
   20ecd:	e8 21 08 ff ff       	callq  116f3 <transparent_crc>
   20ed2:	48 8b 05 e7 65 00 00 	mov    0x65e7(%rip),%rax        # 274c0 <g_1209>
   20ed9:	48 89 c1             	mov    %rax,%rcx
   20edc:	8b 45 fc             	mov    -0x4(%rbp),%eax
   20edf:	89 c2                	mov    %eax,%edx
   20ee1:	48 8d 35 fe 2c 00 00 	lea    0x2cfe(%rip),%rsi        # 23be6 <g_1760+0x1a86>
   20ee8:	48 89 cf             	mov    %rcx,%rdi
   20eeb:	e8 03 08 ff ff       	callq  116f3 <transparent_crc>
   20ef0:	0f b7 05 d1 65 00 00 	movzwl 0x65d1(%rip),%eax        # 274c8 <g_1297>
   20ef7:	0f b7 c0             	movzwl %ax,%eax
   20efa:	8b 55 fc             	mov    -0x4(%rbp),%edx
   20efd:	48 8d 35 e9 2c 00 00 	lea    0x2ce9(%rip),%rsi        # 23bed <g_1760+0x1a8d>
   20f04:	48 89 c7             	mov    %rax,%rdi
   20f07:	e8 e7 07 ff ff       	callq  116f3 <transparent_crc>
   20f0c:	c7 45 f0 00 00 00 00 	movl   $0x0,-0x10(%rbp)
   20f13:	eb 4d                	jmp    20f62 <main+0xeb1>
   20f15:	8b 45 f0             	mov    -0x10(%rbp),%eax
   20f18:	48 98                	cltq   
   20f1a:	48 8d 14 85 00 00 00 	lea    0x0(,%rax,4),%rdx
   20f21:	00 
   20f22:	48 8d 05 a7 65 00 00 	lea    0x65a7(%rip),%rax        # 274d0 <g_1348>
   20f29:	0f b7 04 02          	movzwl (%rdx,%rax,1),%eax
   20f2d:	0f b7 c0             	movzwl %ax,%eax
   20f30:	8b 55 fc             	mov    -0x4(%rbp),%edx
   20f33:	48 8d 35 bd 2c 00 00 	lea    0x2cbd(%rip),%rsi        # 23bf7 <g_1760+0x1a97>
   20f3a:	48 89 c7             	mov    %rax,%rdi
   20f3d:	e8 b1 07 ff ff       	callq  116f3 <transparent_crc>
   20f42:	83 7d fc 00          	cmpl   $0x0,-0x4(%rbp)
   20f46:	74 16                	je     20f5e <main+0xead>
   20f48:	8b 45 f0             	mov    -0x10(%rbp),%eax
   20f4b:	89 c6                	mov    %eax,%esi
   20f4d:	48 8d 3d 19 2a 00 00 	lea    0x2a19(%rip),%rdi        # 2396d <g_1760+0x180d>
   20f54:	b8 00 00 00 00       	mov    $0x0,%eax
   20f59:	e8 22 f1 fe ff       	callq  10080 <printf@plt>
   20f5e:	83 45 f0 01          	addl   $0x1,-0x10(%rbp)
   20f62:	83 7d f0 03          	cmpl   $0x3,-0x10(%rbp)
   20f66:	7e ad                	jle    20f15 <main+0xe64>
   20f68:	c7 45 f0 00 00 00 00 	movl   $0x0,-0x10(%rbp)
   20f6f:	eb 6c                	jmp    20fdd <main+0xf2c>
   20f71:	c7 45 f4 00 00 00 00 	movl   $0x0,-0xc(%rbp)
   20f78:	eb 59                	jmp    20fd3 <main+0xf22>
   20f7a:	8b 45 f4             	mov    -0xc(%rbp),%eax
   20f7d:	48 63 d0             	movslq %eax,%rdx
   20f80:	8b 45 f0             	mov    -0x10(%rbp),%eax
   20f83:	48 98                	cltq   
   20f85:	48 01 d0             	add    %rdx,%rax
   20f88:	48 8d 14 85 00 00 00 	lea    0x0(,%rax,4),%rdx
   20f8f:	00 
   20f90:	48 8d 05 49 65 00 00 	lea    0x6549(%rip),%rax        # 274e0 <g_1397>
   20f97:	0f b7 04 02          	movzwl (%rdx,%rax,1),%eax
   20f9b:	0f b7 c0             	movzwl %ax,%eax
   20f9e:	8b 55 fc             	mov    -0x4(%rbp),%edx
   20fa1:	48 8d 35 5c 2c 00 00 	lea    0x2c5c(%rip),%rsi        # 23c04 <g_1760+0x1aa4>
   20fa8:	48 89 c7             	mov    %rax,%rdi
   20fab:	e8 43 07 ff ff       	callq  116f3 <transparent_crc>
   20fb0:	83 7d fc 00          	cmpl   $0x0,-0x4(%rbp)
   20fb4:	74 19                	je     20fcf <main+0xf1e>
   20fb6:	8b 55 f4             	mov    -0xc(%rbp),%edx
   20fb9:	8b 45 f0             	mov    -0x10(%rbp),%eax
   20fbc:	89 c6                	mov    %eax,%esi
   20fbe:	48 8d 3d c5 29 00 00 	lea    0x29c5(%rip),%rdi        # 2398a <g_1760+0x182a>
   20fc5:	b8 00 00 00 00       	mov    $0x0,%eax
   20fca:	e8 b1 f0 fe ff       	callq  10080 <printf@plt>
   20fcf:	83 45 f4 01          	addl   $0x1,-0xc(%rbp)
   20fd3:	83 7d f4 00          	cmpl   $0x0,-0xc(%rbp)
   20fd7:	7e a1                	jle    20f7a <main+0xec9>
   20fd9:	83 45 f0 01          	addl   $0x1,-0x10(%rbp)
   20fdd:	83 7d f0 08          	cmpl   $0x8,-0x10(%rbp)
   20fe1:	7e 8e                	jle    20f71 <main+0xec0>
   20fe3:	8b 05 1b 65 00 00    	mov    0x651b(%rip),%eax        # 27504 <g_1441>
   20fe9:	89 c1                	mov    %eax,%ecx
   20feb:	8b 45 fc             	mov    -0x4(%rbp),%eax
   20fee:	89 c2                	mov    %eax,%edx
   20ff0:	48 8d 35 1d 2c 00 00 	lea    0x2c1d(%rip),%rsi        # 23c14 <g_1760+0x1ab4>
   20ff7:	48 89 cf             	mov    %rcx,%rdi
   20ffa:	e8 f4 06 ff ff       	callq  116f3 <transparent_crc>
   20fff:	8b 05 03 65 00 00    	mov    0x6503(%rip),%eax        # 27508 <g_1574>
   21005:	48 98                	cltq   
   21007:	8b 55 fc             	mov    -0x4(%rbp),%edx
   2100a:	48 8d 35 0a 2c 00 00 	lea    0x2c0a(%rip),%rsi        # 23c1b <g_1760+0x1abb>
   21011:	48 89 c7             	mov    %rax,%rdi
   21014:	e8 da 06 ff ff       	callq  116f3 <transparent_crc>
   21019:	c7 45 f0 00 00 00 00 	movl   $0x0,-0x10(%rbp)
   21020:	eb 74                	jmp    21096 <main+0xfe5>
   21022:	c7 45 f4 00 00 00 00 	movl   $0x0,-0xc(%rbp)
   21029:	eb 61                	jmp    2108c <main+0xfdb>
   2102b:	8b 45 f4             	mov    -0xc(%rbp),%eax
   2102e:	48 63 c8             	movslq %eax,%rcx
   21031:	8b 45 f0             	mov    -0x10(%rbp),%eax
   21034:	48 63 d0             	movslq %eax,%rdx
   21037:	48 89 d0             	mov    %rdx,%rax
   2103a:	48 c1 e0 03          	shl    $0x3,%rax
   2103e:	48 01 d0             	add    %rdx,%rax
   21041:	48 01 c8             	add    %rcx,%rax
   21044:	48 8d 14 00          	lea    (%rax,%rax,1),%rdx
   21048:	48 8d 05 b1 10 00 00 	lea    0x10b1(%rip),%rax        # 22100 <g_1630>
   2104f:	0f b7 04 02          	movzwl (%rdx,%rax,1),%eax
   21053:	48 0f bf c0          	movswq %ax,%rax
   21057:	8b 55 fc             	mov    -0x4(%rbp),%edx
   2105a:	48 8d 35 c1 2b 00 00 	lea    0x2bc1(%rip),%rsi        # 23c22 <g_1760+0x1ac2>
   21061:	48 89 c7             	mov    %rax,%rdi
   21064:	e8 8a 06 ff ff       	callq  116f3 <transparent_crc>
   21069:	83 7d fc 00          	cmpl   $0x0,-0x4(%rbp)
   2106d:	74 19                	je     21088 <main+0xfd7>
   2106f:	8b 55 f4             	mov    -0xc(%rbp),%edx
   21072:	8b 45 f0             	mov    -0x10(%rbp),%eax
   21075:	89 c6                	mov    %eax,%esi
   21077:	48 8d 3d 0c 29 00 00 	lea    0x290c(%rip),%rdi        # 2398a <g_1760+0x182a>
   2107e:	b8 00 00 00 00       	mov    $0x0,%eax
   21083:	e8 f8 ef fe ff       	callq  10080 <printf@plt>
   21088:	83 45 f4 01          	addl   $0x1,-0xc(%rbp)
   2108c:	83 7d f4 08          	cmpl   $0x8,-0xc(%rbp)
   21090:	7e 99                	jle    2102b <main+0xf7a>
   21092:	83 45 f0 01          	addl   $0x1,-0x10(%rbp)
   21096:	83 7d f0 04          	cmpl   $0x4,-0x10(%rbp)
   2109a:	7e 86                	jle    21022 <main+0xf71>
   2109c:	0f b7 05 69 64 00 00 	movzwl 0x6469(%rip),%eax        # 2750c <g_1678>
   210a3:	0f b7 c0             	movzwl %ax,%eax
   210a6:	8b 55 fc             	mov    -0x4(%rbp),%edx
   210a9:	48 8d 35 7f 2b 00 00 	lea    0x2b7f(%rip),%rsi        # 23c2f <g_1760+0x1acf>
   210b0:	48 89 c7             	mov    %rax,%rdi
   210b3:	e8 3b 06 ff ff       	callq  116f3 <transparent_crc>
   210b8:	48 c7 c1 ff ff ff ff 	mov    $0xffffffffffffffff,%rcx
   210bf:	8b 45 fc             	mov    -0x4(%rbp),%eax
   210c2:	89 c2                	mov    %eax,%edx
   210c4:	48 8d 35 6b 2b 00 00 	lea    0x2b6b(%rip),%rsi        # 23c36 <g_1760+0x1ad6>
   210cb:	48 89 cf             	mov    %rcx,%rdi
   210ce:	e8 20 06 ff ff       	callq  116f3 <transparent_crc>
   210d3:	0f b7 05 36 64 00 00 	movzwl 0x6436(%rip),%eax        # 27510 <g_1773>
   210da:	0f b7 c0             	movzwl %ax,%eax
   210dd:	8b 55 fc             	mov    -0x4(%rbp),%edx
   210e0:	48 8d 35 56 2b 00 00 	lea    0x2b56(%rip),%rsi        # 23c3d <g_1760+0x1add>
   210e7:	48 89 c7             	mov    %rax,%rdi
   210ea:	e8 04 06 ff ff       	callq  116f3 <transparent_crc>
   210ef:	c7 45 f0 00 00 00 00 	movl   $0x0,-0x10(%rbp)
   210f6:	eb 6b                	jmp    21163 <main+0x10b2>
   210f8:	c7 45 f4 00 00 00 00 	movl   $0x0,-0xc(%rbp)
   210ff:	eb 58                	jmp    21159 <main+0x10a8>
   21101:	8b 45 f4             	mov    -0xc(%rbp),%eax
   21104:	48 98                	cltq   
   21106:	8b 55 f0             	mov    -0x10(%rbp),%edx
   21109:	48 63 d2             	movslq %edx,%rdx
   2110c:	48 c1 e2 02          	shl    $0x2,%rdx
   21110:	48 01 c2             	add    %rax,%rdx
   21113:	48 8d 05 06 64 00 00 	lea    0x6406(%rip),%rax        # 27520 <g_1904>
   2111a:	48 01 d0             	add    %rdx,%rax
   2111d:	0f b6 00             	movzbl (%rax),%eax
   21120:	48 0f be c0          	movsbq %al,%rax
   21124:	8b 55 fc             	mov    -0x4(%rbp),%edx
   21127:	48 8d 35 19 2b 00 00 	lea    0x2b19(%rip),%rsi        # 23c47 <g_1760+0x1ae7>
   2112e:	48 89 c7             	mov    %rax,%rdi
   21131:	e8 bd 05 ff ff       	callq  116f3 <transparent_crc>
   21136:	83 7d fc 00          	cmpl   $0x0,-0x4(%rbp)
   2113a:	74 19                	je     21155 <main+0x10a4>
   2113c:	8b 55 f4             	mov    -0xc(%rbp),%edx
   2113f:	8b 45 f0             	mov    -0x10(%rbp),%eax
   21142:	89 c6                	mov    %eax,%esi
   21144:	48 8d 3d 3f 28 00 00 	lea    0x283f(%rip),%rdi        # 2398a <g_1760+0x182a>
   2114b:	b8 00 00 00 00       	mov    $0x0,%eax
   21150:	e8 2b ef fe ff       	callq  10080 <printf@plt>
   21155:	83 45 f4 01          	addl   $0x1,-0xc(%rbp)
   21159:	83 7d f4 03          	cmpl   $0x3,-0xc(%rbp)
   2115d:	7e a2                	jle    21101 <main+0x1050>
   2115f:	83 45 f0 01          	addl   $0x1,-0x10(%rbp)
   21163:	83 7d f0 03          	cmpl   $0x3,-0x10(%rbp)
   21167:	7e 8f                	jle    210f8 <main+0x1047>
   21169:	c7 45 f0 00 00 00 00 	movl   $0x0,-0x10(%rbp)
   21170:	eb 70                	jmp    211e2 <main+0x1131>
   21172:	c7 45 f4 00 00 00 00 	movl   $0x0,-0xc(%rbp)
   21179:	eb 5d                	jmp    211d8 <main+0x1127>
   2117b:	8b 45 f4             	mov    -0xc(%rbp),%eax
   2117e:	48 98                	cltq   
   21180:	8b 55 f0             	mov    -0x10(%rbp),%edx
   21183:	48 63 d2             	movslq %edx,%rdx
   21186:	48 c1 e2 03          	shl    $0x3,%rdx
   2118a:	48 01 d0             	add    %rdx,%rax
   2118d:	48 8d 14 85 00 00 00 	lea    0x0(,%rax,4),%rdx
   21194:	00 
   21195:	48 8d 05 a4 63 00 00 	lea    0x63a4(%rip),%rax        # 27540 <g_2133>
   2119c:	0f b7 04 02          	movzwl (%rdx,%rax,1),%eax
   211a0:	0f b7 c0             	movzwl %ax,%eax
   211a3:	8b 55 fc             	mov    -0x4(%rbp),%edx
   211a6:	48 8d 35 a7 2a 00 00 	lea    0x2aa7(%rip),%rsi        # 23c54 <g_1760+0x1af4>
   211ad:	48 89 c7             	mov    %rax,%rdi
   211b0:	e8 3e 05 ff ff       	callq  116f3 <transparent_crc>
   211b5:	83 7d fc 00          	cmpl   $0x0,-0x4(%rbp)
   211b9:	74 19                	je     211d4 <main+0x1123>
   211bb:	8b 55 f4             	mov    -0xc(%rbp),%edx
   211be:	8b 45 f0             	mov    -0x10(%rbp),%eax
   211c1:	89 c6                	mov    %eax,%esi
   211c3:	48 8d 3d c0 27 00 00 	lea    0x27c0(%rip),%rdi        # 2398a <g_1760+0x182a>
   211ca:	b8 00 00 00 00       	mov    $0x0,%eax
   211cf:	e8 ac ee fe ff       	callq  10080 <printf@plt>
   211d4:	83 45 f4 01          	addl   $0x1,-0xc(%rbp)
   211d8:	83 7d f4 07          	cmpl   $0x7,-0xc(%rbp)
   211dc:	7e 9d                	jle    2117b <main+0x10ca>
   211de:	83 45 f0 01          	addl   $0x1,-0x10(%rbp)
   211e2:	83 7d f0 01          	cmpl   $0x1,-0x10(%rbp)
   211e6:	7e 8a                	jle    21172 <main+0x10c1>
   211e8:	0f b7 05 91 63 00 00 	movzwl 0x6391(%rip),%eax        # 27580 <g_2174>
   211ef:	0f b7 c0             	movzwl %ax,%eax
   211f2:	8b 55 fc             	mov    -0x4(%rbp),%edx
   211f5:	48 8d 35 68 2a 00 00 	lea    0x2a68(%rip),%rsi        # 23c64 <g_1760+0x1b04>
   211fc:	48 89 c7             	mov    %rax,%rdi
   211ff:	e8 ef 04 ff ff       	callq  116f3 <transparent_crc>
   21204:	0f b7 05 a5 c9 00 00 	movzwl 0xc9a5(%rip),%eax        # 2dbb0 <g_2207>
   2120b:	0f b7 c0             	movzwl %ax,%eax
   2120e:	8b 55 fc             	mov    -0x4(%rbp),%edx
   21211:	48 8d 35 56 2a 00 00 	lea    0x2a56(%rip),%rsi        # 23c6e <g_1760+0x1b0e>
   21218:	48 89 c7             	mov    %rax,%rdi
   2121b:	e8 d3 04 ff ff       	callq  116f3 <transparent_crc>
   21220:	0f b7 05 5d 63 00 00 	movzwl 0x635d(%rip),%eax        # 27584 <g_2210>
   21227:	0f b7 c0             	movzwl %ax,%eax
   2122a:	8b 55 fc             	mov    -0x4(%rbp),%edx
   2122d:	48 8d 35 44 2a 00 00 	lea    0x2a44(%rip),%rsi        # 23c78 <g_1760+0x1b18>
   21234:	48 89 c7             	mov    %rax,%rdi
   21237:	e8 b7 04 ff ff       	callq  116f3 <transparent_crc>
   2123c:	0f b7 05 45 63 00 00 	movzwl 0x6345(%rip),%eax        # 27588 <g_2264>
   21243:	0f b7 c0             	movzwl %ax,%eax
   21246:	8b 55 fc             	mov    -0x4(%rbp),%edx
   21249:	48 8d 35 32 2a 00 00 	lea    0x2a32(%rip),%rsi        # 23c82 <g_1760+0x1b22>
   21250:	48 89 c7             	mov    %rax,%rdi
   21253:	e8 9b 04 ff ff       	callq  116f3 <transparent_crc>
   21258:	0f b7 05 2d 63 00 00 	movzwl 0x632d(%rip),%eax        # 2758c <g_2351>
   2125f:	0f b7 c0             	movzwl %ax,%eax
   21262:	8b 55 fc             	mov    -0x4(%rbp),%edx
   21265:	48 8d 35 20 2a 00 00 	lea    0x2a20(%rip),%rsi        # 23c8c <g_1760+0x1b2c>
   2126c:	48 89 c7             	mov    %rax,%rdi
   2126f:	e8 7f 04 ff ff       	callq  116f3 <transparent_crc>
   21274:	0f b7 05 45 c9 00 00 	movzwl 0xc945(%rip),%eax        # 2dbc0 <g_2393>
   2127b:	0f b7 c0             	movzwl %ax,%eax
   2127e:	8b 55 fc             	mov    -0x4(%rbp),%edx
   21281:	48 8d 35 0e 2a 00 00 	lea    0x2a0e(%rip),%rsi        # 23c96 <g_1760+0x1b36>
   21288:	48 89 c7             	mov    %rax,%rdi
   2128b:	e8 63 04 ff ff       	callq  116f3 <transparent_crc>
   21290:	0f b7 05 f9 62 00 00 	movzwl 0x62f9(%rip),%eax        # 27590 <g_2466>
   21297:	0f b7 c0             	movzwl %ax,%eax
   2129a:	8b 55 fc             	mov    -0x4(%rbp),%edx
   2129d:	48 8d 35 fc 29 00 00 	lea    0x29fc(%rip),%rsi        # 23ca0 <g_1760+0x1b40>
   212a4:	48 89 c7             	mov    %rax,%rdi
   212a7:	e8 47 04 ff ff       	callq  116f3 <transparent_crc>
   212ac:	c7 45 f0 00 00 00 00 	movl   $0x0,-0x10(%rbp)
   212b3:	e9 94 00 00 00       	jmpq   2134c <main+0x129b>
   212b8:	c7 45 f4 00 00 00 00 	movl   $0x0,-0xc(%rbp)
   212bf:	eb 7d                	jmp    2133e <main+0x128d>
   212c1:	c7 45 f8 00 00 00 00 	movl   $0x0,-0x8(%rbp)
   212c8:	eb 6a                	jmp    21334 <main+0x1283>
   212ca:	8b 45 f8             	mov    -0x8(%rbp),%eax
   212cd:	48 98                	cltq   
   212cf:	8b 55 f0             	mov    -0x10(%rbp),%edx
   212d2:	48 63 ca             	movslq %edx,%rcx
   212d5:	8b 55 f4             	mov    -0xc(%rbp),%edx
   212d8:	48 63 d2             	movslq %edx,%rdx
   212db:	48 c1 e1 03          	shl    $0x3,%rcx
   212df:	48 01 ca             	add    %rcx,%rdx
   212e2:	48 c1 e2 02          	shl    $0x2,%rdx
   212e6:	48 01 d0             	add    %rdx,%rax
   212e9:	48 8d 14 00          	lea    (%rax,%rax,1),%rdx
   212ed:	48 8d 05 ac 62 00 00 	lea    0x62ac(%rip),%rax        # 275a0 <g_2536>
   212f4:	0f b7 04 02          	movzwl (%rdx,%rax,1),%eax
   212f8:	48 0f bf c0          	movswq %ax,%rax
   212fc:	8b 55 fc             	mov    -0x4(%rbp),%edx
   212ff:	48 8d 35 a1 29 00 00 	lea    0x29a1(%rip),%rsi        # 23ca7 <g_1760+0x1b47>
   21306:	48 89 c7             	mov    %rax,%rdi
   21309:	e8 e5 03 ff ff       	callq  116f3 <transparent_crc>
   2130e:	83 7d fc 00          	cmpl   $0x0,-0x4(%rbp)
   21312:	74 1c                	je     21330 <main+0x127f>
   21314:	8b 4d f8             	mov    -0x8(%rbp),%ecx
   21317:	8b 55 f4             	mov    -0xc(%rbp),%edx
   2131a:	8b 45 f0             	mov    -0x10(%rbp),%eax
   2131d:	89 c6                	mov    %eax,%esi
   2131f:	48 8d 3d ed 27 00 00 	lea    0x27ed(%rip),%rdi        # 23b13 <g_1760+0x19b3>
   21326:	b8 00 00 00 00       	mov    $0x0,%eax
   2132b:	e8 50 ed fe ff       	callq  10080 <printf@plt>
   21330:	83 45 f8 01          	addl   $0x1,-0x8(%rbp)
   21334:	83 7d f8 03          	cmpl   $0x3,-0x8(%rbp)
   21338:	7e 90                	jle    212ca <main+0x1219>
   2133a:	83 45 f4 01          	addl   $0x1,-0xc(%rbp)
   2133e:	83 7d f4 07          	cmpl   $0x7,-0xc(%rbp)
   21342:	0f 8e 79 ff ff ff    	jle    212c1 <main+0x1210>
   21348:	83 45 f0 01          	addl   $0x1,-0x10(%rbp)
   2134c:	83 7d f0 06          	cmpl   $0x6,-0x10(%rbp)
   21350:	0f 8e 62 ff ff ff    	jle    212b8 <main+0x1207>
   21356:	8b 05 04 64 00 00    	mov    0x6404(%rip),%eax        # 27760 <g_2641>
   2135c:	89 c1                	mov    %eax,%ecx
   2135e:	8b 45 fc             	mov    -0x4(%rbp),%eax
   21361:	89 c2                	mov    %eax,%edx
   21363:	48 8d 35 4d 29 00 00 	lea    0x294d(%rip),%rsi        # 23cb7 <g_1760+0x1b57>
   2136a:	48 89 cf             	mov    %rcx,%rdi
   2136d:	e8 81 03 ff ff       	callq  116f3 <transparent_crc>
   21372:	0f b7 05 eb 63 00 00 	movzwl 0x63eb(%rip),%eax        # 27764 <g_2642>
   21379:	0f b7 c0             	movzwl %ax,%eax
   2137c:	8b 55 fc             	mov    -0x4(%rbp),%edx
   2137f:	48 8d 35 38 29 00 00 	lea    0x2938(%rip),%rsi        # 23cbe <g_1760+0x1b5e>
   21386:	48 89 c7             	mov    %rax,%rdi
   21389:	e8 65 03 ff ff       	callq  116f3 <transparent_crc>
   2138e:	0f b6 05 d1 63 00 00 	movzbl 0x63d1(%rip),%eax        # 27766 <g_2705>
   21395:	48 0f be c0          	movsbq %al,%rax
   21399:	8b 55 fc             	mov    -0x4(%rbp),%edx
   2139c:	48 8d 35 22 29 00 00 	lea    0x2922(%rip),%rsi        # 23cc5 <g_1760+0x1b65>
   213a3:	48 89 c7             	mov    %rax,%rdi
   213a6:	e8 48 03 ff ff       	callq  116f3 <transparent_crc>
   213ab:	0f b7 05 b6 63 00 00 	movzwl 0x63b6(%rip),%eax        # 27768 <g_2733>
   213b2:	0f b7 c0             	movzwl %ax,%eax
   213b5:	8b 55 fc             	mov    -0x4(%rbp),%edx
   213b8:	48 8d 35 0d 29 00 00 	lea    0x290d(%rip),%rsi        # 23ccc <g_1760+0x1b6c>
   213bf:	48 89 c7             	mov    %rax,%rdi
   213c2:	e8 2c 03 ff ff       	callq  116f3 <transparent_crc>
   213c7:	0f b7 05 9e 63 00 00 	movzwl 0x639e(%rip),%eax        # 2776c <g_2765>
   213ce:	48 0f bf c0          	movswq %ax,%rax
   213d2:	8b 55 fc             	mov    -0x4(%rbp),%edx
   213d5:	48 8d 35 fa 28 00 00 	lea    0x28fa(%rip),%rsi        # 23cd6 <g_1760+0x1b76>
   213dc:	48 89 c7             	mov    %rax,%rdi
   213df:	e8 0f 03 ff ff       	callq  116f3 <transparent_crc>
   213e4:	0f b7 05 83 63 00 00 	movzwl 0x6383(%rip),%eax        # 2776e <g_2813>
   213eb:	0f b7 c0             	movzwl %ax,%eax
   213ee:	8b 55 fc             	mov    -0x4(%rbp),%edx
   213f1:	48 8d 35 e5 28 00 00 	lea    0x28e5(%rip),%rsi        # 23cdd <g_1760+0x1b7d>
   213f8:	48 89 c7             	mov    %rax,%rdi
   213fb:	e8 f3 02 ff ff       	callq  116f3 <transparent_crc>
   21400:	0f b6 05 69 63 00 00 	movzbl 0x6369(%rip),%eax        # 27770 <g_2895>
   21407:	0f b6 c0             	movzbl %al,%eax
   2140a:	8b 55 fc             	mov    -0x4(%rbp),%edx
   2140d:	48 8d 35 d0 28 00 00 	lea    0x28d0(%rip),%rsi        # 23ce4 <g_1760+0x1b84>
   21414:	48 89 c7             	mov    %rax,%rdi
   21417:	e8 d7 02 ff ff       	callq  116f3 <transparent_crc>
   2141c:	0f b7 05 4f 63 00 00 	movzwl 0x634f(%rip),%eax        # 27772 <g_2919>
   21423:	0f b7 c0             	movzwl %ax,%eax
   21426:	8b 55 fc             	mov    -0x4(%rbp),%edx
   21429:	48 8d 35 bb 28 00 00 	lea    0x28bb(%rip),%rsi        # 23ceb <g_1760+0x1b8b>
   21430:	48 89 c7             	mov    %rax,%rdi
   21433:	e8 bb 02 ff ff       	callq  116f3 <transparent_crc>
   21438:	8b 05 36 63 00 00    	mov    0x6336(%rip),%eax        # 27774 <g_2924>
   2143e:	89 c1                	mov    %eax,%ecx
   21440:	8b 45 fc             	mov    -0x4(%rbp),%eax
   21443:	89 c2                	mov    %eax,%edx
   21445:	48 8d 35 a6 28 00 00 	lea    0x28a6(%rip),%rsi        # 23cf2 <g_1760+0x1b92>
   2144c:	48 89 cf             	mov    %rcx,%rdi
   2144f:	e8 9f 02 ff ff       	callq  116f3 <transparent_crc>
   21454:	8b 05 1e 63 00 00    	mov    0x631e(%rip),%eax        # 27778 <g_2980>
   2145a:	89 c1                	mov    %eax,%ecx
   2145c:	8b 45 fc             	mov    -0x4(%rbp),%eax
   2145f:	89 c2                	mov    %eax,%edx
   21461:	48 8d 35 91 28 00 00 	lea    0x2891(%rip),%rsi        # 23cf9 <g_1760+0x1b99>
   21468:	48 89 cf             	mov    %rcx,%rdi
   2146b:	e8 83 02 ff ff       	callq  116f3 <transparent_crc>
   21470:	0f b7 05 05 63 00 00 	movzwl 0x6305(%rip),%eax        # 2777c <g_3004>
   21477:	48 0f bf c0          	movswq %ax,%rax
   2147b:	8b 55 fc             	mov    -0x4(%rbp),%edx
   2147e:	48 8d 35 7b 28 00 00 	lea    0x287b(%rip),%rsi        # 23d00 <g_1760+0x1ba0>
   21485:	48 89 c7             	mov    %rax,%rdi
   21488:	e8 66 02 ff ff       	callq  116f3 <transparent_crc>
   2148d:	0f b7 05 ea 62 00 00 	movzwl 0x62ea(%rip),%eax        # 2777e <g_3032>
   21494:	0f b7 c0             	movzwl %ax,%eax
   21497:	8b 55 fc             	mov    -0x4(%rbp),%edx
   2149a:	48 8d 35 66 28 00 00 	lea    0x2866(%rip),%rsi        # 23d07 <g_1760+0x1ba7>
   214a1:	48 89 c7             	mov    %rax,%rdi
   214a4:	e8 4a 02 ff ff       	callq  116f3 <transparent_crc>
   214a9:	0f b7 05 d0 62 00 00 	movzwl 0x62d0(%rip),%eax        # 27780 <g_3034>
   214b0:	0f b7 c0             	movzwl %ax,%eax
   214b3:	8b 55 fc             	mov    -0x4(%rbp),%edx
   214b6:	48 8d 35 51 28 00 00 	lea    0x2851(%rip),%rsi        # 23d0e <g_1760+0x1bae>
   214bd:	48 89 c7             	mov    %rax,%rdi
   214c0:	e8 2e 02 ff ff       	callq  116f3 <transparent_crc>
   214c5:	c7 45 f0 00 00 00 00 	movl   $0x0,-0x10(%rbp)
   214cc:	eb 4d                	jmp    2151b <main+0x146a>
   214ce:	8b 45 f0             	mov    -0x10(%rbp),%eax
   214d1:	48 98                	cltq   
   214d3:	48 8d 14 85 00 00 00 	lea    0x0(,%rax,4),%rdx
   214da:	00 
   214db:	48 8d 05 a2 62 00 00 	lea    0x62a2(%rip),%rax        # 27784 <g_3084>
   214e2:	0f b7 04 02          	movzwl (%rdx,%rax,1),%eax
   214e6:	0f b7 c0             	movzwl %ax,%eax
   214e9:	8b 55 fc             	mov    -0x4(%rbp),%edx
   214ec:	48 8d 35 25 28 00 00 	lea    0x2825(%rip),%rsi        # 23d18 <g_1760+0x1bb8>
   214f3:	48 89 c7             	mov    %rax,%rdi
   214f6:	e8 f8 01 ff ff       	callq  116f3 <transparent_crc>
   214fb:	83 7d fc 00          	cmpl   $0x0,-0x4(%rbp)
   214ff:	74 16                	je     21517 <main+0x1466>
   21501:	8b 45 f0             	mov    -0x10(%rbp),%eax
   21504:	89 c6                	mov    %eax,%esi
   21506:	48 8d 3d 60 24 00 00 	lea    0x2460(%rip),%rdi        # 2396d <g_1760+0x180d>
   2150d:	b8 00 00 00 00       	mov    $0x0,%eax
   21512:	e8 69 eb fe ff       	callq  10080 <printf@plt>
   21517:	83 45 f0 01          	addl   $0x1,-0x10(%rbp)
   2151b:	83 7d f0 00          	cmpl   $0x0,-0x10(%rbp)
   2151f:	7e ad                	jle    214ce <main+0x141d>
   21521:	48 8b 05 60 62 00 00 	mov    0x6260(%rip),%rax        # 27788 <g_3090>
   21528:	48 89 c1             	mov    %rax,%rcx
   2152b:	8b 45 fc             	mov    -0x4(%rbp),%eax
   2152e:	89 c2                	mov    %eax,%edx
   21530:	48 8d 35 ee 27 00 00 	lea    0x27ee(%rip),%rsi        # 23d25 <g_1760+0x1bc5>
   21537:	48 89 cf             	mov    %rcx,%rdi
   2153a:	e8 b4 01 ff ff       	callq  116f3 <transparent_crc>
   2153f:	0f b7 05 4a 62 00 00 	movzwl 0x624a(%rip),%eax        # 27790 <g_3101>
   21546:	0f b7 c0             	movzwl %ax,%eax
   21549:	8b 55 fc             	mov    -0x4(%rbp),%edx
   2154c:	48 8d 35 d9 27 00 00 	lea    0x27d9(%rip),%rsi        # 23d2c <g_1760+0x1bcc>
   21553:	48 89 c7             	mov    %rax,%rdi
   21556:	e8 98 01 ff ff       	callq  116f3 <transparent_crc>
   2155b:	c7 45 f0 00 00 00 00 	movl   $0x0,-0x10(%rbp)
   21562:	eb 6f                	jmp    215d3 <main+0x1522>
   21564:	c7 45 f4 00 00 00 00 	movl   $0x0,-0xc(%rbp)
   2156b:	eb 5c                	jmp    215c9 <main+0x1518>
   2156d:	8b 45 f4             	mov    -0xc(%rbp),%eax
   21570:	48 98                	cltq   
   21572:	8b 55 f0             	mov    -0x10(%rbp),%edx
   21575:	48 63 d2             	movslq %edx,%rdx
   21578:	48 01 d2             	add    %rdx,%rdx
   2157b:	48 01 d0             	add    %rdx,%rax
   2157e:	48 8d 14 85 00 00 00 	lea    0x0(,%rax,4),%rdx
   21585:	00 
   21586:	48 8d 05 13 62 00 00 	lea    0x6213(%rip),%rax        # 277a0 <g_3104>
   2158d:	0f b7 04 02          	movzwl (%rdx,%rax,1),%eax
   21591:	0f b7 c0             	movzwl %ax,%eax
   21594:	8b 55 fc             	mov    -0x4(%rbp),%edx
   21597:	48 8d 35 98 27 00 00 	lea    0x2798(%rip),%rsi        # 23d36 <g_1760+0x1bd6>
   2159e:	48 89 c7             	mov    %rax,%rdi
   215a1:	e8 4d 01 ff ff       	callq  116f3 <transparent_crc>
   215a6:	83 7d fc 00          	cmpl   $0x0,-0x4(%rbp)
   215aa:	74 19                	je     215c5 <main+0x1514>
   215ac:	8b 55 f4             	mov    -0xc(%rbp),%edx
   215af:	8b 45 f0             	mov    -0x10(%rbp),%eax
   215b2:	89 c6                	mov    %eax,%esi
   215b4:	48 8d 3d cf 23 00 00 	lea    0x23cf(%rip),%rdi        # 2398a <g_1760+0x182a>
   215bb:	b8 00 00 00 00       	mov    $0x0,%eax
   215c0:	e8 bb ea fe ff       	callq  10080 <printf@plt>
   215c5:	83 45 f4 01          	addl   $0x1,-0xc(%rbp)
   215c9:	83 7d f4 01          	cmpl   $0x1,-0xc(%rbp)
   215cd:	7e 9e                	jle    2156d <main+0x14bc>
   215cf:	83 45 f0 01          	addl   $0x1,-0x10(%rbp)
   215d3:	83 7d f0 04          	cmpl   $0x4,-0x10(%rbp)
   215d7:	7e 8b                	jle    21564 <main+0x14b3>
   215d9:	c7 45 f0 00 00 00 00 	movl   $0x0,-0x10(%rbp)
   215e0:	e9 a0 00 00 00       	jmpq   21685 <main+0x15d4>
   215e5:	c7 45 f4 00 00 00 00 	movl   $0x0,-0xc(%rbp)
   215ec:	e9 86 00 00 00       	jmpq   21677 <main+0x15c6>
   215f1:	c7 45 f8 00 00 00 00 	movl   $0x0,-0x8(%rbp)
   215f8:	eb 73                	jmp    2166d <main+0x15bc>
   215fa:	8b 45 f8             	mov    -0x8(%rbp),%eax
   215fd:	48 63 c8             	movslq %eax,%rcx
   21600:	8b 45 f0             	mov    -0x10(%rbp),%eax
   21603:	48 63 d0             	movslq %eax,%rdx
   21606:	8b 45 f4             	mov    -0xc(%rbp),%eax
   21609:	48 63 f0             	movslq %eax,%rsi
   2160c:	48 89 d0             	mov    %rdx,%rax
   2160f:	48 01 c0             	add    %rax,%rax
   21612:	48 01 d0             	add    %rdx,%rax
   21615:	48 01 f0             	add    %rsi,%rax
   21618:	48 c1 e0 03          	shl    $0x3,%rax
   2161c:	48 01 c8             	add    %rcx,%rax
   2161f:	48 8d 14 85 00 00 00 	lea    0x0(,%rax,4),%rdx
   21626:	00 
   21627:	48 8d 05 b2 61 00 00 	lea    0x61b2(%rip),%rax        # 277e0 <g_3105>
   2162e:	0f b7 04 02          	movzwl (%rdx,%rax,1),%eax
   21632:	0f b7 c0             	movzwl %ax,%eax
   21635:	8b 55 fc             	mov    -0x4(%rbp),%edx
   21638:	48 8d 35 07 27 00 00 	lea    0x2707(%rip),%rsi        # 23d46 <g_1760+0x1be6>
   2163f:	48 89 c7             	mov    %rax,%rdi
   21642:	e8 ac 00 ff ff       	callq  116f3 <transparent_crc>
   21647:	83 7d fc 00          	cmpl   $0x0,-0x4(%rbp)
   2164b:	74 1c                	je     21669 <main+0x15b8>
   2164d:	8b 4d f8             	mov    -0x8(%rbp),%ecx
   21650:	8b 55 f4             	mov    -0xc(%rbp),%edx
   21653:	8b 45 f0             	mov    -0x10(%rbp),%eax
   21656:	89 c6                	mov    %eax,%esi
   21658:	48 8d 3d b4 24 00 00 	lea    0x24b4(%rip),%rdi        # 23b13 <g_1760+0x19b3>
   2165f:	b8 00 00 00 00       	mov    $0x0,%eax
   21664:	e8 17 ea fe ff       	callq  10080 <printf@plt>
   21669:	83 45 f8 01          	addl   $0x1,-0x8(%rbp)
   2166d:	83 7d f8 07          	cmpl   $0x7,-0x8(%rbp)
   21671:	7e 87                	jle    215fa <main+0x1549>
   21673:	83 45 f4 01          	addl   $0x1,-0xc(%rbp)
   21677:	83 7d f4 02          	cmpl   $0x2,-0xc(%rbp)
   2167b:	0f 8e 70 ff ff ff    	jle    215f1 <main+0x1540>
   21681:	83 45 f0 01          	addl   $0x1,-0x10(%rbp)
   21685:	83 7d f0 02          	cmpl   $0x2,-0x10(%rbp)
   21689:	0f 8e 56 ff ff ff    	jle    215e5 <main+0x1534>
   2168f:	0f b7 05 6a 62 00 00 	movzwl 0x626a(%rip),%eax        # 27900 <g_3136>
   21696:	0f b7 c0             	movzwl %ax,%eax
   21699:	8b 55 fc             	mov    -0x4(%rbp),%edx
   2169c:	48 8d 35 b6 26 00 00 	lea    0x26b6(%rip),%rsi        # 23d59 <g_1760+0x1bf9>
   216a3:	48 89 c7             	mov    %rax,%rdi
   216a6:	e8 48 00 ff ff       	callq  116f3 <transparent_crc>
   216ab:	8b 05 6f 59 00 00    	mov    0x596f(%rip),%eax        # 27020 <crc32_context>
   216b1:	f7 d0                	not    %eax
   216b3:	89 c2                	mov    %eax,%edx
   216b5:	8b 45 fc             	mov    -0x4(%rbp),%eax
   216b8:	89 c6                	mov    %eax,%esi
   216ba:	89 d7                	mov    %edx,%edi
   216bc:	e8 d3 ea fe ff       	callq  10194 <platform_main_end>
   216c1:	b8 00 00 00 00       	mov    $0x0,%eax
   216c6:	c9                   	leaveq 
   216c7:	c3                   	retq   
   216c8:	0f 1f 84 00 00 00 00 	nopl   0x0(%rax,%rax,1)
   216cf:	00 

00000000000216d0 <__libc_csu_init>:
   216d0:	f3 0f 1e fa          	endbr64 
   216d4:	41 57                	push   %r15
   216d6:	4c 8d 3d 93 56 00 00 	lea    0x5693(%rip),%r15        # 26d70 <__frame_dummy_init_array_entry>
   216dd:	41 56                	push   %r14
   216df:	49 89 d6             	mov    %rdx,%r14
   216e2:	41 55                	push   %r13
   216e4:	49 89 f5             	mov    %rsi,%r13
   216e7:	41 54                	push   %r12
   216e9:	41 89 fc             	mov    %edi,%r12d
   216ec:	55                   	push   %rbp
   216ed:	48 8d 2d 84 56 00 00 	lea    0x5684(%rip),%rbp        # 26d78 <__do_global_dtors_aux_fini_array_entry>
   216f4:	53                   	push   %rbx
   216f5:	4c 29 fd             	sub    %r15,%rbp
   216f8:	48 83 ec 08          	sub    $0x8,%rsp
   216fc:	e8 ff e8 fe ff       	callq  10000 <_init>
   21701:	48 c1 fd 03          	sar    $0x3,%rbp
   21705:	74 1f                	je     21726 <__libc_csu_init+0x56>
   21707:	31 db                	xor    %ebx,%ebx
   21709:	0f 1f 80 00 00 00 00 	nopl   0x0(%rax)
   21710:	4c 89 f2             	mov    %r14,%rdx
   21713:	4c 89 ee             	mov    %r13,%rsi
   21716:	44 89 e7             	mov    %r12d,%edi
   21719:	41 ff 14 df          	callq  *(%r15,%rbx,8)
   2171d:	48 83 c3 01          	add    $0x1,%rbx
   21721:	48 39 dd             	cmp    %rbx,%rbp
   21724:	75 ea                	jne    21710 <__libc_csu_init+0x40>
   21726:	48 83 c4 08          	add    $0x8,%rsp
   2172a:	5b                   	pop    %rbx
   2172b:	5d                   	pop    %rbp
   2172c:	41 5c                	pop    %r12
   2172e:	41 5d                	pop    %r13
   21730:	41 5e                	pop    %r14
   21732:	41 5f                	pop    %r15
   21734:	c3                   	retq   
   21735:	66 66 2e 0f 1f 84 00 	data16 nopw %cs:0x0(%rax,%rax,1)
   2173c:	00 00 00 00 

0000000000021740 <__libc_csu_fini>:
   21740:	f3 0f 1e fa          	endbr64 
   21744:	c3                   	retq   
