


Disassembly of section .text:

000000000000b0a0 <_start>:
    b0a0:	f3 0f 1e fa          	endbr64 
    b0a4:	31 ed                	xor    %ebp,%ebp
    b0a6:	49 89 d1             	mov    %rdx,%r9
    b0a9:	5e                   	pop    %rsi
    b0aa:	48 89 e2             	mov    %rsp,%rdx
    b0ad:	48 83 e4 f0          	and    $0xfffffffffffffff0,%rsp
    b0b1:	50                   	push   %rax
    b0b2:	54                   	push   %rsp
    b0b3:	4c 8d 05 76 d8 00 00 	lea    0xd876(%rip),%r8        # 18930 <__libc_csu_fini>
    b0ba:	48 8d 0d ff d7 00 00 	lea    0xd7ff(%rip),%rcx        # 188c0 <__libc_csu_init>
    b0c1:	48 8d 3d 61 c5 00 00 	lea    0xc561(%rip),%rdi        # 17629 <main>
    b0c8:	ff 15 0a 1f 01 00    	callq  *0x11f0a(%rip)        # 1cfd8 <__libc_start_main@GLIBC_2.2.5>
    b0ce:	f4                   	hlt    
    b0cf:	90                   	nop

000000000000b0d0 <deregister_tm_clones>:
    b0d0:	48 8d 3d b1 5b 01 00 	lea    0x15bb1(%rip),%rdi        # 20c88 <__TMC_END__>
    b0d7:	48 8d 05 aa 5b 01 00 	lea    0x15baa(%rip),%rax        # 20c88 <__TMC_END__>
    b0de:	48 39 f8             	cmp    %rdi,%rax
    b0e1:	74 15                	je     b0f8 <deregister_tm_clones+0x28>
    b0e3:	48 8b 05 e6 1e 01 00 	mov    0x11ee6(%rip),%rax        # 1cfd0 <_ITM_deregisterTMCloneTable>
    b0ea:	48 85 c0             	test   %rax,%rax
    b0ed:	74 09                	je     b0f8 <deregister_tm_clones+0x28>
    b0ef:	ff e0                	jmpq   *%rax
    b0f1:	0f 1f 80 00 00 00 00 	nopl   0x0(%rax)
    b0f8:	c3                   	retq   
    b0f9:	0f 1f 80 00 00 00 00 	nopl   0x0(%rax)

000000000000b100 <register_tm_clones>:
    b100:	48 8d 3d 81 5b 01 00 	lea    0x15b81(%rip),%rdi        # 20c88 <__TMC_END__>
    b107:	48 8d 35 7a 5b 01 00 	lea    0x15b7a(%rip),%rsi        # 20c88 <__TMC_END__>
    b10e:	48 29 fe             	sub    %rdi,%rsi
    b111:	48 89 f0             	mov    %rsi,%rax
    b114:	48 c1 ee 3f          	shr    $0x3f,%rsi
    b118:	48 c1 f8 03          	sar    $0x3,%rax
    b11c:	48 01 c6             	add    %rax,%rsi
    b11f:	48 d1 fe             	sar    %rsi
    b122:	74 14                	je     b138 <register_tm_clones+0x38>
    b124:	48 8b 05 bd 1e 01 00 	mov    0x11ebd(%rip),%rax        # 1cfe8 <_ITM_registerTMCloneTable>
    b12b:	48 85 c0             	test   %rax,%rax
    b12e:	74 08                	je     b138 <register_tm_clones+0x38>
    b130:	ff e0                	jmpq   *%rax
    b132:	66 0f 1f 44 00 00    	nopw   0x0(%rax,%rax,1)
    b138:	c3                   	retq   
    b139:	0f 1f 80 00 00 00 00 	nopl   0x0(%rax)

000000000000b140 <__do_global_dtors_aux>:
    b140:	f3 0f 1e fa          	endbr64 
    b144:	80 3d 55 5b 01 00 00 	cmpb   $0x0,0x15b55(%rip)        # 20ca0 <completed.8061>
    b14b:	75 2b                	jne    b178 <__do_global_dtors_aux+0x38>
    b14d:	55                   	push   %rbp
    b14e:	48 83 3d 9a 1e 01 00 	cmpq   $0x0,0x11e9a(%rip)        # 1cff0 <__cxa_finalize@GLIBC_2.2.5>
    b155:	00 
    b156:	48 89 e5             	mov    %rsp,%rbp
    b159:	74 0c                	je     b167 <__do_global_dtors_aux+0x27>
    b15b:	48 8b 3d a6 1e 01 00 	mov    0x11ea6(%rip),%rdi        # 1d008 <__dso_handle>
    b162:	e8 f9 fe ff ff       	callq  b060 <__cxa_finalize@plt>
    b167:	e8 64 ff ff ff       	callq  b0d0 <deregister_tm_clones>
    b16c:	c6 05 2d 5b 01 00 01 	movb   $0x1,0x15b2d(%rip)        # 20ca0 <completed.8061>
    b173:	5d                   	pop    %rbp
    b174:	c3                   	retq   
    b175:	0f 1f 00             	nopl   (%rax)
    b178:	c3                   	retq   
    b179:	0f 1f 80 00 00 00 00 	nopl   0x0(%rax)

000000000000b180 <frame_dummy>:
    b180:	f3 0f 1e fa          	endbr64 
    b184:	e9 77 ff ff ff       	jmpq   b100 <register_tm_clones>

000000000000b189 <platform_main_begin>:
    b189:	f3 0f 1e fa          	endbr64 
    b18d:	55                   	push   %rbp
    b18e:	48 89 e5             	mov    %rsp,%rbp
    b191:	90                   	nop
    b192:	5d                   	pop    %rbp
    b193:	c3                   	retq   

000000000000b194 <platform_main_end>:
    b194:	f3 0f 1e fa          	endbr64 
    b198:	55                   	push   %rbp
    b199:	48 89 e5             	mov    %rsp,%rbp
    b19c:	48 83 ec 10          	sub    $0x10,%rsp
    b1a0:	89 7d fc             	mov    %edi,-0x4(%rbp)
    b1a3:	89 75 f8             	mov    %esi,-0x8(%rbp)
    b1a6:	8b 45 fc             	mov    -0x4(%rbp),%eax
    b1a9:	89 c6                	mov    %eax,%esi
    b1ab:	48 8d 3d 6e de 00 00 	lea    0xde6e(%rip),%rdi        # 19020 <_IO_stdin_used+0x20>
    b1b2:	b8 00 00 00 00       	mov    $0x0,%eax
    b1b7:	e8 c4 fe ff ff       	callq  b080 <printf@plt>
    b1bc:	90                   	nop
    b1bd:	c9                   	leaveq 
    b1be:	c3                   	retq   

000000000000b1bf <safe_unary_minus_func_int8_t_s>:
    b1bf:	f3 0f 1e fa          	endbr64 
    b1c3:	55                   	push   %rbp
    b1c4:	48 89 e5             	mov    %rsp,%rbp
    b1c7:	89 f8                	mov    %edi,%eax
    b1c9:	88 45 fc             	mov    %al,-0x4(%rbp)
    b1cc:	0f b6 45 fc          	movzbl -0x4(%rbp),%eax
    b1d0:	f7 d8                	neg    %eax
    b1d2:	5d                   	pop    %rbp
    b1d3:	c3                   	retq   

000000000000b1d4 <safe_add_func_int8_t_s_s>:
    b1d4:	f3 0f 1e fa          	endbr64 
    b1d8:	55                   	push   %rbp
    b1d9:	48 89 e5             	mov    %rsp,%rbp
    b1dc:	89 fa                	mov    %edi,%edx
    b1de:	89 f0                	mov    %esi,%eax
    b1e0:	88 55 fc             	mov    %dl,-0x4(%rbp)
    b1e3:	88 45 f8             	mov    %al,-0x8(%rbp)
    b1e6:	0f b6 55 fc          	movzbl -0x4(%rbp),%edx
    b1ea:	0f b6 45 f8          	movzbl -0x8(%rbp),%eax
    b1ee:	01 d0                	add    %edx,%eax
    b1f0:	5d                   	pop    %rbp
    b1f1:	c3                   	retq   

000000000000b1f2 <safe_sub_func_int8_t_s_s>:
    b1f2:	f3 0f 1e fa          	endbr64 
    b1f6:	55                   	push   %rbp
    b1f7:	48 89 e5             	mov    %rsp,%rbp
    b1fa:	89 fa                	mov    %edi,%edx
    b1fc:	89 f0                	mov    %esi,%eax
    b1fe:	88 55 fc             	mov    %dl,-0x4(%rbp)
    b201:	88 45 f8             	mov    %al,-0x8(%rbp)
    b204:	0f b6 55 fc          	movzbl -0x4(%rbp),%edx
    b208:	0f b6 45 f8          	movzbl -0x8(%rbp),%eax
    b20c:	29 c2                	sub    %eax,%edx
    b20e:	89 d0                	mov    %edx,%eax
    b210:	5d                   	pop    %rbp
    b211:	c3                   	retq   

000000000000b212 <safe_mul_func_int8_t_s_s>:
    b212:	f3 0f 1e fa          	endbr64 
    b216:	55                   	push   %rbp
    b217:	48 89 e5             	mov    %rsp,%rbp
    b21a:	89 fa                	mov    %edi,%edx
    b21c:	89 f0                	mov    %esi,%eax
    b21e:	88 55 fc             	mov    %dl,-0x4(%rbp)
    b221:	88 45 f8             	mov    %al,-0x8(%rbp)
    b224:	0f b6 45 fc          	movzbl -0x4(%rbp),%eax
    b228:	0f b6 55 f8          	movzbl -0x8(%rbp),%edx
    b22c:	0f af c2             	imul   %edx,%eax
    b22f:	5d                   	pop    %rbp
    b230:	c3                   	retq   

000000000000b231 <safe_mod_func_int8_t_s_s>:
    b231:	f3 0f 1e fa          	endbr64 
    b235:	55                   	push   %rbp
    b236:	48 89 e5             	mov    %rsp,%rbp
    b239:	89 fa                	mov    %edi,%edx
    b23b:	89 f0                	mov    %esi,%eax
    b23d:	88 55 fc             	mov    %dl,-0x4(%rbp)
    b240:	88 45 f8             	mov    %al,-0x8(%rbp)
    b243:	80 7d f8 00          	cmpb   $0x0,-0x8(%rbp)
    b247:	74 1b                	je     b264 <safe_mod_func_int8_t_s_s+0x33>
    b249:	80 7d fc 80          	cmpb   $0x80,-0x4(%rbp)
    b24d:	75 06                	jne    b255 <safe_mod_func_int8_t_s_s+0x24>
    b24f:	80 7d f8 ff          	cmpb   $0xff,-0x8(%rbp)
    b253:	74 0f                	je     b264 <safe_mod_func_int8_t_s_s+0x33>
    b255:	0f be 45 fc          	movsbl -0x4(%rbp),%eax
    b259:	0f be 4d f8          	movsbl -0x8(%rbp),%ecx
    b25d:	99                   	cltd   
    b25e:	f7 f9                	idiv   %ecx
    b260:	89 d0                	mov    %edx,%eax
    b262:	eb 04                	jmp    b268 <safe_mod_func_int8_t_s_s+0x37>
    b264:	0f b6 45 fc          	movzbl -0x4(%rbp),%eax
    b268:	5d                   	pop    %rbp
    b269:	c3                   	retq   

000000000000b26a <safe_div_func_int8_t_s_s>:
    b26a:	f3 0f 1e fa          	endbr64 
    b26e:	55                   	push   %rbp
    b26f:	48 89 e5             	mov    %rsp,%rbp
    b272:	89 fa                	mov    %edi,%edx
    b274:	89 f0                	mov    %esi,%eax
    b276:	88 55 fc             	mov    %dl,-0x4(%rbp)
    b279:	88 45 f8             	mov    %al,-0x8(%rbp)
    b27c:	80 7d f8 00          	cmpb   $0x0,-0x8(%rbp)
    b280:	74 19                	je     b29b <safe_div_func_int8_t_s_s+0x31>
    b282:	80 7d fc 80          	cmpb   $0x80,-0x4(%rbp)
    b286:	75 06                	jne    b28e <safe_div_func_int8_t_s_s+0x24>
    b288:	80 7d f8 ff          	cmpb   $0xff,-0x8(%rbp)
    b28c:	74 0d                	je     b29b <safe_div_func_int8_t_s_s+0x31>
    b28e:	0f be 45 fc          	movsbl -0x4(%rbp),%eax
    b292:	0f be 4d f8          	movsbl -0x8(%rbp),%ecx
    b296:	99                   	cltd   
    b297:	f7 f9                	idiv   %ecx
    b299:	eb 04                	jmp    b29f <safe_div_func_int8_t_s_s+0x35>
    b29b:	0f b6 45 fc          	movzbl -0x4(%rbp),%eax
    b29f:	5d                   	pop    %rbp
    b2a0:	c3                   	retq   

000000000000b2a1 <safe_lshift_func_int8_t_s_s>:
    b2a1:	f3 0f 1e fa          	endbr64 
    b2a5:	55                   	push   %rbp
    b2a6:	48 89 e5             	mov    %rsp,%rbp
    b2a9:	89 f8                	mov    %edi,%eax
    b2ab:	89 75 f8             	mov    %esi,-0x8(%rbp)
    b2ae:	88 45 fc             	mov    %al,-0x4(%rbp)
    b2b1:	80 7d fc 00          	cmpb   $0x0,-0x4(%rbp)
    b2b5:	78 31                	js     b2e8 <safe_lshift_func_int8_t_s_s+0x47>
    b2b7:	83 7d f8 00          	cmpl   $0x0,-0x8(%rbp)
    b2bb:	78 2b                	js     b2e8 <safe_lshift_func_int8_t_s_s+0x47>
    b2bd:	83 7d f8 1f          	cmpl   $0x1f,-0x8(%rbp)
    b2c1:	7f 25                	jg     b2e8 <safe_lshift_func_int8_t_s_s+0x47>
    b2c3:	0f be 55 fc          	movsbl -0x4(%rbp),%edx
    b2c7:	8b 45 f8             	mov    -0x8(%rbp),%eax
    b2ca:	be 7f 00 00 00       	mov    $0x7f,%esi
    b2cf:	89 c1                	mov    %eax,%ecx
    b2d1:	d3 fe                	sar    %cl,%esi
    b2d3:	89 f0                	mov    %esi,%eax
    b2d5:	39 c2                	cmp    %eax,%edx
    b2d7:	7f 0f                	jg     b2e8 <safe_lshift_func_int8_t_s_s+0x47>
    b2d9:	0f be 55 fc          	movsbl -0x4(%rbp),%edx
    b2dd:	8b 45 f8             	mov    -0x8(%rbp),%eax
    b2e0:	89 c1                	mov    %eax,%ecx
    b2e2:	d3 e2                	shl    %cl,%edx
    b2e4:	89 d0                	mov    %edx,%eax
    b2e6:	eb 04                	jmp    b2ec <safe_lshift_func_int8_t_s_s+0x4b>
    b2e8:	0f b6 45 fc          	movzbl -0x4(%rbp),%eax
    b2ec:	5d                   	pop    %rbp
    b2ed:	c3                   	retq   

000000000000b2ee <safe_lshift_func_int8_t_s_u>:
    b2ee:	f3 0f 1e fa          	endbr64 
    b2f2:	55                   	push   %rbp
    b2f3:	48 89 e5             	mov    %rsp,%rbp
    b2f6:	89 f8                	mov    %edi,%eax
    b2f8:	89 75 f8             	mov    %esi,-0x8(%rbp)
    b2fb:	88 45 fc             	mov    %al,-0x4(%rbp)
    b2fe:	80 7d fc 00          	cmpb   $0x0,-0x4(%rbp)
    b302:	78 2b                	js     b32f <safe_lshift_func_int8_t_s_u+0x41>
    b304:	83 7d f8 1f          	cmpl   $0x1f,-0x8(%rbp)
    b308:	77 25                	ja     b32f <safe_lshift_func_int8_t_s_u+0x41>
    b30a:	0f be 55 fc          	movsbl -0x4(%rbp),%edx
    b30e:	8b 45 f8             	mov    -0x8(%rbp),%eax
    b311:	be 7f 00 00 00       	mov    $0x7f,%esi
    b316:	89 c1                	mov    %eax,%ecx
    b318:	d3 fe                	sar    %cl,%esi
    b31a:	89 f0                	mov    %esi,%eax
    b31c:	39 c2                	cmp    %eax,%edx
    b31e:	7f 0f                	jg     b32f <safe_lshift_func_int8_t_s_u+0x41>
    b320:	0f be 55 fc          	movsbl -0x4(%rbp),%edx
    b324:	8b 45 f8             	mov    -0x8(%rbp),%eax
    b327:	89 c1                	mov    %eax,%ecx
    b329:	d3 e2                	shl    %cl,%edx
    b32b:	89 d0                	mov    %edx,%eax
    b32d:	eb 04                	jmp    b333 <safe_lshift_func_int8_t_s_u+0x45>
    b32f:	0f b6 45 fc          	movzbl -0x4(%rbp),%eax
    b333:	5d                   	pop    %rbp
    b334:	c3                   	retq   

000000000000b335 <safe_rshift_func_int8_t_s_s>:
    b335:	f3 0f 1e fa          	endbr64 
    b339:	55                   	push   %rbp
    b33a:	48 89 e5             	mov    %rsp,%rbp
    b33d:	89 f8                	mov    %edi,%eax
    b33f:	89 75 f8             	mov    %esi,-0x8(%rbp)
    b342:	88 45 fc             	mov    %al,-0x4(%rbp)
    b345:	80 7d fc 00          	cmpb   $0x0,-0x4(%rbp)
    b349:	78 1b                	js     b366 <safe_rshift_func_int8_t_s_s+0x31>
    b34b:	83 7d f8 00          	cmpl   $0x0,-0x8(%rbp)
    b34f:	78 15                	js     b366 <safe_rshift_func_int8_t_s_s+0x31>
    b351:	83 7d f8 1f          	cmpl   $0x1f,-0x8(%rbp)
    b355:	7f 0f                	jg     b366 <safe_rshift_func_int8_t_s_s+0x31>
    b357:	0f be 55 fc          	movsbl -0x4(%rbp),%edx
    b35b:	8b 45 f8             	mov    -0x8(%rbp),%eax
    b35e:	89 c1                	mov    %eax,%ecx
    b360:	d3 fa                	sar    %cl,%edx
    b362:	89 d0                	mov    %edx,%eax
    b364:	eb 04                	jmp    b36a <safe_rshift_func_int8_t_s_s+0x35>
    b366:	0f b6 45 fc          	movzbl -0x4(%rbp),%eax
    b36a:	5d                   	pop    %rbp
    b36b:	c3                   	retq   

000000000000b36c <safe_rshift_func_int8_t_s_u>:
    b36c:	f3 0f 1e fa          	endbr64 
    b370:	55                   	push   %rbp
    b371:	48 89 e5             	mov    %rsp,%rbp
    b374:	89 f8                	mov    %edi,%eax
    b376:	89 75 f8             	mov    %esi,-0x8(%rbp)
    b379:	88 45 fc             	mov    %al,-0x4(%rbp)
    b37c:	80 7d fc 00          	cmpb   $0x0,-0x4(%rbp)
    b380:	78 15                	js     b397 <safe_rshift_func_int8_t_s_u+0x2b>
    b382:	83 7d f8 1f          	cmpl   $0x1f,-0x8(%rbp)
    b386:	77 0f                	ja     b397 <safe_rshift_func_int8_t_s_u+0x2b>
    b388:	0f be 55 fc          	movsbl -0x4(%rbp),%edx
    b38c:	8b 45 f8             	mov    -0x8(%rbp),%eax
    b38f:	89 c1                	mov    %eax,%ecx
    b391:	d3 fa                	sar    %cl,%edx
    b393:	89 d0                	mov    %edx,%eax
    b395:	eb 04                	jmp    b39b <safe_rshift_func_int8_t_s_u+0x2f>
    b397:	0f b6 45 fc          	movzbl -0x4(%rbp),%eax
    b39b:	5d                   	pop    %rbp
    b39c:	c3                   	retq   

000000000000b39d <safe_unary_minus_func_int16_t_s>:
    b39d:	f3 0f 1e fa          	endbr64 
    b3a1:	55                   	push   %rbp
    b3a2:	48 89 e5             	mov    %rsp,%rbp
    b3a5:	89 f8                	mov    %edi,%eax
    b3a7:	66 89 45 fc          	mov    %ax,-0x4(%rbp)
    b3ab:	0f b7 45 fc          	movzwl -0x4(%rbp),%eax
    b3af:	f7 d8                	neg    %eax
    b3b1:	5d                   	pop    %rbp
    b3b2:	c3                   	retq   

000000000000b3b3 <safe_add_func_int16_t_s_s>:
    b3b3:	f3 0f 1e fa          	endbr64 
    b3b7:	55                   	push   %rbp
    b3b8:	48 89 e5             	mov    %rsp,%rbp
    b3bb:	89 fa                	mov    %edi,%edx
    b3bd:	89 f0                	mov    %esi,%eax
    b3bf:	66 89 55 fc          	mov    %dx,-0x4(%rbp)
    b3c3:	66 89 45 f8          	mov    %ax,-0x8(%rbp)
    b3c7:	0f b7 55 fc          	movzwl -0x4(%rbp),%edx
    b3cb:	0f b7 45 f8          	movzwl -0x8(%rbp),%eax
    b3cf:	01 d0                	add    %edx,%eax
    b3d1:	5d                   	pop    %rbp
    b3d2:	c3                   	retq   

000000000000b3d3 <safe_sub_func_int16_t_s_s>:
    b3d3:	f3 0f 1e fa          	endbr64 
    b3d7:	55                   	push   %rbp
    b3d8:	48 89 e5             	mov    %rsp,%rbp
    b3db:	89 fa                	mov    %edi,%edx
    b3dd:	89 f0                	mov    %esi,%eax
    b3df:	66 89 55 fc          	mov    %dx,-0x4(%rbp)
    b3e3:	66 89 45 f8          	mov    %ax,-0x8(%rbp)
    b3e7:	0f b7 55 fc          	movzwl -0x4(%rbp),%edx
    b3eb:	0f b7 45 f8          	movzwl -0x8(%rbp),%eax
    b3ef:	29 c2                	sub    %eax,%edx
    b3f1:	89 d0                	mov    %edx,%eax
    b3f3:	5d                   	pop    %rbp
    b3f4:	c3                   	retq   

000000000000b3f5 <safe_mul_func_int16_t_s_s>:
    b3f5:	f3 0f 1e fa          	endbr64 
    b3f9:	55                   	push   %rbp
    b3fa:	48 89 e5             	mov    %rsp,%rbp
    b3fd:	89 fa                	mov    %edi,%edx
    b3ff:	89 f0                	mov    %esi,%eax
    b401:	66 89 55 fc          	mov    %dx,-0x4(%rbp)
    b405:	66 89 45 f8          	mov    %ax,-0x8(%rbp)
    b409:	0f b7 55 fc          	movzwl -0x4(%rbp),%edx
    b40d:	0f b7 45 f8          	movzwl -0x8(%rbp),%eax
    b411:	0f af c2             	imul   %edx,%eax
    b414:	5d                   	pop    %rbp
    b415:	c3                   	retq   

000000000000b416 <safe_mod_func_int16_t_s_s>:
    b416:	f3 0f 1e fa          	endbr64 
    b41a:	55                   	push   %rbp
    b41b:	48 89 e5             	mov    %rsp,%rbp
    b41e:	89 fa                	mov    %edi,%edx
    b420:	89 f0                	mov    %esi,%eax
    b422:	66 89 55 fc          	mov    %dx,-0x4(%rbp)
    b426:	66 89 45 f8          	mov    %ax,-0x8(%rbp)
    b42a:	66 83 7d f8 00       	cmpw   $0x0,-0x8(%rbp)
    b42f:	74 1e                	je     b44f <safe_mod_func_int16_t_s_s+0x39>
    b431:	66 81 7d fc 00 80    	cmpw   $0x8000,-0x4(%rbp)
    b437:	75 07                	jne    b440 <safe_mod_func_int16_t_s_s+0x2a>
    b439:	66 83 7d f8 ff       	cmpw   $0xffff,-0x8(%rbp)
    b43e:	74 0f                	je     b44f <safe_mod_func_int16_t_s_s+0x39>
    b440:	0f bf 45 fc          	movswl -0x4(%rbp),%eax
    b444:	0f bf 4d f8          	movswl -0x8(%rbp),%ecx
    b448:	99                   	cltd   
    b449:	f7 f9                	idiv   %ecx
    b44b:	89 d0                	mov    %edx,%eax
    b44d:	eb 04                	jmp    b453 <safe_mod_func_int16_t_s_s+0x3d>
    b44f:	0f b7 45 fc          	movzwl -0x4(%rbp),%eax
    b453:	5d                   	pop    %rbp
    b454:	c3                   	retq   

000000000000b455 <safe_div_func_int16_t_s_s>:
    b455:	f3 0f 1e fa          	endbr64 
    b459:	55                   	push   %rbp
    b45a:	48 89 e5             	mov    %rsp,%rbp
    b45d:	89 fa                	mov    %edi,%edx
    b45f:	89 f0                	mov    %esi,%eax
    b461:	66 89 55 fc          	mov    %dx,-0x4(%rbp)
    b465:	66 89 45 f8          	mov    %ax,-0x8(%rbp)
    b469:	66 83 7d f8 00       	cmpw   $0x0,-0x8(%rbp)
    b46e:	74 1c                	je     b48c <safe_div_func_int16_t_s_s+0x37>
    b470:	66 81 7d fc 00 80    	cmpw   $0x8000,-0x4(%rbp)
    b476:	75 07                	jne    b47f <safe_div_func_int16_t_s_s+0x2a>
    b478:	66 83 7d f8 ff       	cmpw   $0xffff,-0x8(%rbp)
    b47d:	74 0d                	je     b48c <safe_div_func_int16_t_s_s+0x37>
    b47f:	0f bf 45 fc          	movswl -0x4(%rbp),%eax
    b483:	0f bf 4d f8          	movswl -0x8(%rbp),%ecx
    b487:	99                   	cltd   
    b488:	f7 f9                	idiv   %ecx
    b48a:	eb 04                	jmp    b490 <safe_div_func_int16_t_s_s+0x3b>
    b48c:	0f b7 45 fc          	movzwl -0x4(%rbp),%eax
    b490:	5d                   	pop    %rbp
    b491:	c3                   	retq   

000000000000b492 <safe_lshift_func_int16_t_s_s>:
    b492:	f3 0f 1e fa          	endbr64 
    b496:	55                   	push   %rbp
    b497:	48 89 e5             	mov    %rsp,%rbp
    b49a:	89 f8                	mov    %edi,%eax
    b49c:	89 75 f8             	mov    %esi,-0x8(%rbp)
    b49f:	66 89 45 fc          	mov    %ax,-0x4(%rbp)
    b4a3:	66 83 7d fc 00       	cmpw   $0x0,-0x4(%rbp)
    b4a8:	78 31                	js     b4db <safe_lshift_func_int16_t_s_s+0x49>
    b4aa:	83 7d f8 00          	cmpl   $0x0,-0x8(%rbp)
    b4ae:	78 2b                	js     b4db <safe_lshift_func_int16_t_s_s+0x49>
    b4b0:	83 7d f8 1f          	cmpl   $0x1f,-0x8(%rbp)
    b4b4:	7f 25                	jg     b4db <safe_lshift_func_int16_t_s_s+0x49>
    b4b6:	0f bf 55 fc          	movswl -0x4(%rbp),%edx
    b4ba:	8b 45 f8             	mov    -0x8(%rbp),%eax
    b4bd:	be ff 7f 00 00       	mov    $0x7fff,%esi
    b4c2:	89 c1                	mov    %eax,%ecx
    b4c4:	d3 fe                	sar    %cl,%esi
    b4c6:	89 f0                	mov    %esi,%eax
    b4c8:	39 c2                	cmp    %eax,%edx
    b4ca:	7f 0f                	jg     b4db <safe_lshift_func_int16_t_s_s+0x49>
    b4cc:	0f bf 55 fc          	movswl -0x4(%rbp),%edx
    b4d0:	8b 45 f8             	mov    -0x8(%rbp),%eax
    b4d3:	89 c1                	mov    %eax,%ecx
    b4d5:	d3 e2                	shl    %cl,%edx
    b4d7:	89 d0                	mov    %edx,%eax
    b4d9:	eb 04                	jmp    b4df <safe_lshift_func_int16_t_s_s+0x4d>
    b4db:	0f b7 45 fc          	movzwl -0x4(%rbp),%eax
    b4df:	5d                   	pop    %rbp
    b4e0:	c3                   	retq   

000000000000b4e1 <safe_lshift_func_int16_t_s_u>:
    b4e1:	f3 0f 1e fa          	endbr64 
    b4e5:	55                   	push   %rbp
    b4e6:	48 89 e5             	mov    %rsp,%rbp
    b4e9:	89 f8                	mov    %edi,%eax
    b4eb:	89 75 f8             	mov    %esi,-0x8(%rbp)
    b4ee:	66 89 45 fc          	mov    %ax,-0x4(%rbp)
    b4f2:	66 83 7d fc 00       	cmpw   $0x0,-0x4(%rbp)
    b4f7:	78 2b                	js     b524 <safe_lshift_func_int16_t_s_u+0x43>
    b4f9:	83 7d f8 1f          	cmpl   $0x1f,-0x8(%rbp)
    b4fd:	77 25                	ja     b524 <safe_lshift_func_int16_t_s_u+0x43>
    b4ff:	0f bf 55 fc          	movswl -0x4(%rbp),%edx
    b503:	8b 45 f8             	mov    -0x8(%rbp),%eax
    b506:	be ff 7f 00 00       	mov    $0x7fff,%esi
    b50b:	89 c1                	mov    %eax,%ecx
    b50d:	d3 fe                	sar    %cl,%esi
    b50f:	89 f0                	mov    %esi,%eax
    b511:	39 c2                	cmp    %eax,%edx
    b513:	7f 0f                	jg     b524 <safe_lshift_func_int16_t_s_u+0x43>
    b515:	0f bf 55 fc          	movswl -0x4(%rbp),%edx
    b519:	8b 45 f8             	mov    -0x8(%rbp),%eax
    b51c:	89 c1                	mov    %eax,%ecx
    b51e:	d3 e2                	shl    %cl,%edx
    b520:	89 d0                	mov    %edx,%eax
    b522:	eb 04                	jmp    b528 <safe_lshift_func_int16_t_s_u+0x47>
    b524:	0f b7 45 fc          	movzwl -0x4(%rbp),%eax
    b528:	5d                   	pop    %rbp
    b529:	c3                   	retq   

000000000000b52a <safe_rshift_func_int16_t_s_s>:
    b52a:	f3 0f 1e fa          	endbr64 
    b52e:	55                   	push   %rbp
    b52f:	48 89 e5             	mov    %rsp,%rbp
    b532:	89 f8                	mov    %edi,%eax
    b534:	89 75 f8             	mov    %esi,-0x8(%rbp)
    b537:	66 89 45 fc          	mov    %ax,-0x4(%rbp)
    b53b:	66 83 7d fc 00       	cmpw   $0x0,-0x4(%rbp)
    b540:	78 1b                	js     b55d <safe_rshift_func_int16_t_s_s+0x33>
    b542:	83 7d f8 00          	cmpl   $0x0,-0x8(%rbp)
    b546:	78 15                	js     b55d <safe_rshift_func_int16_t_s_s+0x33>
    b548:	83 7d f8 1f          	cmpl   $0x1f,-0x8(%rbp)
    b54c:	7f 0f                	jg     b55d <safe_rshift_func_int16_t_s_s+0x33>
    b54e:	0f bf 55 fc          	movswl -0x4(%rbp),%edx
    b552:	8b 45 f8             	mov    -0x8(%rbp),%eax
    b555:	89 c1                	mov    %eax,%ecx
    b557:	d3 fa                	sar    %cl,%edx
    b559:	89 d0                	mov    %edx,%eax
    b55b:	eb 04                	jmp    b561 <safe_rshift_func_int16_t_s_s+0x37>
    b55d:	0f b7 45 fc          	movzwl -0x4(%rbp),%eax
    b561:	5d                   	pop    %rbp
    b562:	c3                   	retq   

000000000000b563 <safe_rshift_func_int16_t_s_u>:
    b563:	f3 0f 1e fa          	endbr64 
    b567:	55                   	push   %rbp
    b568:	48 89 e5             	mov    %rsp,%rbp
    b56b:	89 f8                	mov    %edi,%eax
    b56d:	89 75 f8             	mov    %esi,-0x8(%rbp)
    b570:	66 89 45 fc          	mov    %ax,-0x4(%rbp)
    b574:	66 83 7d fc 00       	cmpw   $0x0,-0x4(%rbp)
    b579:	78 15                	js     b590 <safe_rshift_func_int16_t_s_u+0x2d>
    b57b:	83 7d f8 1f          	cmpl   $0x1f,-0x8(%rbp)
    b57f:	77 0f                	ja     b590 <safe_rshift_func_int16_t_s_u+0x2d>
    b581:	0f bf 55 fc          	movswl -0x4(%rbp),%edx
    b585:	8b 45 f8             	mov    -0x8(%rbp),%eax
    b588:	89 c1                	mov    %eax,%ecx
    b58a:	d3 fa                	sar    %cl,%edx
    b58c:	89 d0                	mov    %edx,%eax
    b58e:	eb 04                	jmp    b594 <safe_rshift_func_int16_t_s_u+0x31>
    b590:	0f b7 45 fc          	movzwl -0x4(%rbp),%eax
    b594:	5d                   	pop    %rbp
    b595:	c3                   	retq   

000000000000b596 <safe_unary_minus_func_int32_t_s>:
    b596:	f3 0f 1e fa          	endbr64 
    b59a:	55                   	push   %rbp
    b59b:	48 89 e5             	mov    %rsp,%rbp
    b59e:	89 7d fc             	mov    %edi,-0x4(%rbp)
    b5a1:	81 7d fc 00 00 00 80 	cmpl   $0x80000000,-0x4(%rbp)
    b5a8:	74 07                	je     b5b1 <safe_unary_minus_func_int32_t_s+0x1b>
    b5aa:	8b 45 fc             	mov    -0x4(%rbp),%eax
    b5ad:	f7 d8                	neg    %eax
    b5af:	eb 03                	jmp    b5b4 <safe_unary_minus_func_int32_t_s+0x1e>
    b5b1:	8b 45 fc             	mov    -0x4(%rbp),%eax
    b5b4:	5d                   	pop    %rbp
    b5b5:	c3                   	retq   

000000000000b5b6 <safe_add_func_int32_t_s_s>:
    b5b6:	f3 0f 1e fa          	endbr64 
    b5ba:	55                   	push   %rbp
    b5bb:	48 89 e5             	mov    %rsp,%rbp
    b5be:	89 7d fc             	mov    %edi,-0x4(%rbp)
    b5c1:	89 75 f8             	mov    %esi,-0x8(%rbp)
    b5c4:	83 7d fc 00          	cmpl   $0x0,-0x4(%rbp)
    b5c8:	7e 13                	jle    b5dd <safe_add_func_int32_t_s_s+0x27>
    b5ca:	83 7d f8 00          	cmpl   $0x0,-0x8(%rbp)
    b5ce:	7e 0d                	jle    b5dd <safe_add_func_int32_t_s_s+0x27>
    b5d0:	b8 ff ff ff 7f       	mov    $0x7fffffff,%eax
    b5d5:	2b 45 f8             	sub    -0x8(%rbp),%eax
    b5d8:	39 45 fc             	cmp    %eax,-0x4(%rbp)
    b5db:	7f 23                	jg     b600 <safe_add_func_int32_t_s_s+0x4a>
    b5dd:	83 7d fc 00          	cmpl   $0x0,-0x4(%rbp)
    b5e1:	79 13                	jns    b5f6 <safe_add_func_int32_t_s_s+0x40>
    b5e3:	83 7d f8 00          	cmpl   $0x0,-0x8(%rbp)
    b5e7:	79 0d                	jns    b5f6 <safe_add_func_int32_t_s_s+0x40>
    b5e9:	b8 00 00 00 80       	mov    $0x80000000,%eax
    b5ee:	2b 45 f8             	sub    -0x8(%rbp),%eax
    b5f1:	39 45 fc             	cmp    %eax,-0x4(%rbp)
    b5f4:	7c 0a                	jl     b600 <safe_add_func_int32_t_s_s+0x4a>
    b5f6:	8b 55 fc             	mov    -0x4(%rbp),%edx
    b5f9:	8b 45 f8             	mov    -0x8(%rbp),%eax
    b5fc:	01 d0                	add    %edx,%eax
    b5fe:	eb 03                	jmp    b603 <safe_add_func_int32_t_s_s+0x4d>
    b600:	8b 45 fc             	mov    -0x4(%rbp),%eax
    b603:	5d                   	pop    %rbp
    b604:	c3                   	retq   

000000000000b605 <safe_sub_func_int32_t_s_s>:
    b605:	f3 0f 1e fa          	endbr64 
    b609:	55                   	push   %rbp
    b60a:	48 89 e5             	mov    %rsp,%rbp
    b60d:	89 7d fc             	mov    %edi,-0x4(%rbp)
    b610:	89 75 f8             	mov    %esi,-0x8(%rbp)
    b613:	8b 45 fc             	mov    -0x4(%rbp),%eax
    b616:	33 45 f8             	xor    -0x8(%rbp),%eax
    b619:	89 c2                	mov    %eax,%edx
    b61b:	8b 45 fc             	mov    -0x4(%rbp),%eax
    b61e:	33 45 f8             	xor    -0x8(%rbp),%eax
    b621:	25 00 00 00 80       	and    $0x80000000,%eax
    b626:	33 45 fc             	xor    -0x4(%rbp),%eax
    b629:	2b 45 f8             	sub    -0x8(%rbp),%eax
    b62c:	33 45 f8             	xor    -0x8(%rbp),%eax
    b62f:	21 d0                	and    %edx,%eax
    b631:	85 c0                	test   %eax,%eax
    b633:	78 08                	js     b63d <safe_sub_func_int32_t_s_s+0x38>
    b635:	8b 45 fc             	mov    -0x4(%rbp),%eax
    b638:	2b 45 f8             	sub    -0x8(%rbp),%eax
    b63b:	eb 03                	jmp    b640 <safe_sub_func_int32_t_s_s+0x3b>
    b63d:	8b 45 fc             	mov    -0x4(%rbp),%eax
    b640:	5d                   	pop    %rbp
    b641:	c3                   	retq   

000000000000b642 <safe_mul_func_int32_t_s_s>:
    b642:	f3 0f 1e fa          	endbr64 
    b646:	55                   	push   %rbp
    b647:	48 89 e5             	mov    %rsp,%rbp
    b64a:	89 7d fc             	mov    %edi,-0x4(%rbp)
    b64d:	89 75 f8             	mov    %esi,-0x8(%rbp)
    b650:	83 7d fc 00          	cmpl   $0x0,-0x4(%rbp)
    b654:	7e 14                	jle    b66a <safe_mul_func_int32_t_s_s+0x28>
    b656:	83 7d f8 00          	cmpl   $0x0,-0x8(%rbp)
    b65a:	7e 0e                	jle    b66a <safe_mul_func_int32_t_s_s+0x28>
    b65c:	b8 ff ff ff 7f       	mov    $0x7fffffff,%eax
    b661:	99                   	cltd   
    b662:	f7 7d f8             	idivl  -0x8(%rbp)
    b665:	39 45 fc             	cmp    %eax,-0x4(%rbp)
    b668:	7f 5d                	jg     b6c7 <safe_mul_func_int32_t_s_s+0x85>
    b66a:	83 7d fc 00          	cmpl   $0x0,-0x4(%rbp)
    b66e:	7e 14                	jle    b684 <safe_mul_func_int32_t_s_s+0x42>
    b670:	83 7d f8 00          	cmpl   $0x0,-0x8(%rbp)
    b674:	7f 0e                	jg     b684 <safe_mul_func_int32_t_s_s+0x42>
    b676:	b8 00 00 00 80       	mov    $0x80000000,%eax
    b67b:	99                   	cltd   
    b67c:	f7 7d fc             	idivl  -0x4(%rbp)
    b67f:	39 45 f8             	cmp    %eax,-0x8(%rbp)
    b682:	7c 43                	jl     b6c7 <safe_mul_func_int32_t_s_s+0x85>
    b684:	83 7d fc 00          	cmpl   $0x0,-0x4(%rbp)
    b688:	7f 14                	jg     b69e <safe_mul_func_int32_t_s_s+0x5c>
    b68a:	83 7d f8 00          	cmpl   $0x0,-0x8(%rbp)
    b68e:	7e 0e                	jle    b69e <safe_mul_func_int32_t_s_s+0x5c>
    b690:	b8 00 00 00 80       	mov    $0x80000000,%eax
    b695:	99                   	cltd   
    b696:	f7 7d f8             	idivl  -0x8(%rbp)
    b699:	39 45 fc             	cmp    %eax,-0x4(%rbp)
    b69c:	7c 29                	jl     b6c7 <safe_mul_func_int32_t_s_s+0x85>
    b69e:	83 7d fc 00          	cmpl   $0x0,-0x4(%rbp)
    b6a2:	7f 1a                	jg     b6be <safe_mul_func_int32_t_s_s+0x7c>
    b6a4:	83 7d f8 00          	cmpl   $0x0,-0x8(%rbp)
    b6a8:	7f 14                	jg     b6be <safe_mul_func_int32_t_s_s+0x7c>
    b6aa:	83 7d fc 00          	cmpl   $0x0,-0x4(%rbp)
    b6ae:	74 0e                	je     b6be <safe_mul_func_int32_t_s_s+0x7c>
    b6b0:	b8 ff ff ff 7f       	mov    $0x7fffffff,%eax
    b6b5:	99                   	cltd   
    b6b6:	f7 7d fc             	idivl  -0x4(%rbp)
    b6b9:	39 45 f8             	cmp    %eax,-0x8(%rbp)
    b6bc:	7c 09                	jl     b6c7 <safe_mul_func_int32_t_s_s+0x85>
    b6be:	8b 45 fc             	mov    -0x4(%rbp),%eax
    b6c1:	0f af 45 f8          	imul   -0x8(%rbp),%eax
    b6c5:	eb 03                	jmp    b6ca <safe_mul_func_int32_t_s_s+0x88>
    b6c7:	8b 45 fc             	mov    -0x4(%rbp),%eax
    b6ca:	5d                   	pop    %rbp
    b6cb:	c3                   	retq   

000000000000b6cc <safe_mod_func_int32_t_s_s>:
    b6cc:	f3 0f 1e fa          	endbr64 
    b6d0:	55                   	push   %rbp
    b6d1:	48 89 e5             	mov    %rsp,%rbp
    b6d4:	89 7d fc             	mov    %edi,-0x4(%rbp)
    b6d7:	89 75 f8             	mov    %esi,-0x8(%rbp)
    b6da:	83 7d f8 00          	cmpl   $0x0,-0x8(%rbp)
    b6de:	74 1a                	je     b6fa <safe_mod_func_int32_t_s_s+0x2e>
    b6e0:	81 7d fc 00 00 00 80 	cmpl   $0x80000000,-0x4(%rbp)
    b6e7:	75 06                	jne    b6ef <safe_mod_func_int32_t_s_s+0x23>
    b6e9:	83 7d f8 ff          	cmpl   $0xffffffff,-0x8(%rbp)
    b6ed:	74 0b                	je     b6fa <safe_mod_func_int32_t_s_s+0x2e>
    b6ef:	8b 45 fc             	mov    -0x4(%rbp),%eax
    b6f2:	99                   	cltd   
    b6f3:	f7 7d f8             	idivl  -0x8(%rbp)
    b6f6:	89 d0                	mov    %edx,%eax
    b6f8:	eb 03                	jmp    b6fd <safe_mod_func_int32_t_s_s+0x31>
    b6fa:	8b 45 fc             	mov    -0x4(%rbp),%eax
    b6fd:	5d                   	pop    %rbp
    b6fe:	c3                   	retq   

000000000000b6ff <safe_div_func_int32_t_s_s>:
    b6ff:	f3 0f 1e fa          	endbr64 
    b703:	55                   	push   %rbp
    b704:	48 89 e5             	mov    %rsp,%rbp
    b707:	89 7d fc             	mov    %edi,-0x4(%rbp)
    b70a:	89 75 f8             	mov    %esi,-0x8(%rbp)
    b70d:	83 7d f8 00          	cmpl   $0x0,-0x8(%rbp)
    b711:	74 18                	je     b72b <safe_div_func_int32_t_s_s+0x2c>
    b713:	81 7d fc 00 00 00 80 	cmpl   $0x80000000,-0x4(%rbp)
    b71a:	75 06                	jne    b722 <safe_div_func_int32_t_s_s+0x23>
    b71c:	83 7d f8 ff          	cmpl   $0xffffffff,-0x8(%rbp)
    b720:	74 09                	je     b72b <safe_div_func_int32_t_s_s+0x2c>
    b722:	8b 45 fc             	mov    -0x4(%rbp),%eax
    b725:	99                   	cltd   
    b726:	f7 7d f8             	idivl  -0x8(%rbp)
    b729:	eb 03                	jmp    b72e <safe_div_func_int32_t_s_s+0x2f>
    b72b:	8b 45 fc             	mov    -0x4(%rbp),%eax
    b72e:	5d                   	pop    %rbp
    b72f:	c3                   	retq   

000000000000b730 <safe_lshift_func_int32_t_s_s>:
    b730:	f3 0f 1e fa          	endbr64 
    b734:	55                   	push   %rbp
    b735:	48 89 e5             	mov    %rsp,%rbp
    b738:	89 7d fc             	mov    %edi,-0x4(%rbp)
    b73b:	89 75 f8             	mov    %esi,-0x8(%rbp)
    b73e:	83 7d fc 00          	cmpl   $0x0,-0x4(%rbp)
    b742:	78 2d                	js     b771 <safe_lshift_func_int32_t_s_s+0x41>
    b744:	83 7d f8 00          	cmpl   $0x0,-0x8(%rbp)
    b748:	78 27                	js     b771 <safe_lshift_func_int32_t_s_s+0x41>
    b74a:	83 7d f8 1f          	cmpl   $0x1f,-0x8(%rbp)
    b74e:	7f 21                	jg     b771 <safe_lshift_func_int32_t_s_s+0x41>
    b750:	8b 45 f8             	mov    -0x8(%rbp),%eax
    b753:	ba ff ff ff 7f       	mov    $0x7fffffff,%edx
    b758:	89 c1                	mov    %eax,%ecx
    b75a:	d3 fa                	sar    %cl,%edx
    b75c:	89 d0                	mov    %edx,%eax
    b75e:	39 45 fc             	cmp    %eax,-0x4(%rbp)
    b761:	7f 0e                	jg     b771 <safe_lshift_func_int32_t_s_s+0x41>
    b763:	8b 45 f8             	mov    -0x8(%rbp),%eax
    b766:	8b 55 fc             	mov    -0x4(%rbp),%edx
    b769:	89 c1                	mov    %eax,%ecx
    b76b:	d3 e2                	shl    %cl,%edx
    b76d:	89 d0                	mov    %edx,%eax
    b76f:	eb 03                	jmp    b774 <safe_lshift_func_int32_t_s_s+0x44>
    b771:	8b 45 fc             	mov    -0x4(%rbp),%eax
    b774:	5d                   	pop    %rbp
    b775:	c3                   	retq   

000000000000b776 <safe_lshift_func_int32_t_s_u>:
    b776:	f3 0f 1e fa          	endbr64 
    b77a:	55                   	push   %rbp
    b77b:	48 89 e5             	mov    %rsp,%rbp
    b77e:	89 7d fc             	mov    %edi,-0x4(%rbp)
    b781:	89 75 f8             	mov    %esi,-0x8(%rbp)
    b784:	83 7d fc 00          	cmpl   $0x0,-0x4(%rbp)
    b788:	78 27                	js     b7b1 <safe_lshift_func_int32_t_s_u+0x3b>
    b78a:	83 7d f8 1f          	cmpl   $0x1f,-0x8(%rbp)
    b78e:	77 21                	ja     b7b1 <safe_lshift_func_int32_t_s_u+0x3b>
    b790:	8b 45 f8             	mov    -0x8(%rbp),%eax
    b793:	ba ff ff ff 7f       	mov    $0x7fffffff,%edx
    b798:	89 c1                	mov    %eax,%ecx
    b79a:	d3 fa                	sar    %cl,%edx
    b79c:	89 d0                	mov    %edx,%eax
    b79e:	39 45 fc             	cmp    %eax,-0x4(%rbp)
    b7a1:	7f 0e                	jg     b7b1 <safe_lshift_func_int32_t_s_u+0x3b>
    b7a3:	8b 45 f8             	mov    -0x8(%rbp),%eax
    b7a6:	8b 55 fc             	mov    -0x4(%rbp),%edx
    b7a9:	89 c1                	mov    %eax,%ecx
    b7ab:	d3 e2                	shl    %cl,%edx
    b7ad:	89 d0                	mov    %edx,%eax
    b7af:	eb 03                	jmp    b7b4 <safe_lshift_func_int32_t_s_u+0x3e>
    b7b1:	8b 45 fc             	mov    -0x4(%rbp),%eax
    b7b4:	5d                   	pop    %rbp
    b7b5:	c3                   	retq   

000000000000b7b6 <safe_rshift_func_int32_t_s_s>:
    b7b6:	f3 0f 1e fa          	endbr64 
    b7ba:	55                   	push   %rbp
    b7bb:	48 89 e5             	mov    %rsp,%rbp
    b7be:	89 7d fc             	mov    %edi,-0x4(%rbp)
    b7c1:	89 75 f8             	mov    %esi,-0x8(%rbp)
    b7c4:	83 7d fc 00          	cmpl   $0x0,-0x4(%rbp)
    b7c8:	78 1a                	js     b7e4 <safe_rshift_func_int32_t_s_s+0x2e>
    b7ca:	83 7d f8 00          	cmpl   $0x0,-0x8(%rbp)
    b7ce:	78 14                	js     b7e4 <safe_rshift_func_int32_t_s_s+0x2e>
    b7d0:	83 7d f8 1f          	cmpl   $0x1f,-0x8(%rbp)
    b7d4:	7f 0e                	jg     b7e4 <safe_rshift_func_int32_t_s_s+0x2e>
    b7d6:	8b 45 f8             	mov    -0x8(%rbp),%eax
    b7d9:	8b 55 fc             	mov    -0x4(%rbp),%edx
    b7dc:	89 c1                	mov    %eax,%ecx
    b7de:	d3 fa                	sar    %cl,%edx
    b7e0:	89 d0                	mov    %edx,%eax
    b7e2:	eb 03                	jmp    b7e7 <safe_rshift_func_int32_t_s_s+0x31>
    b7e4:	8b 45 fc             	mov    -0x4(%rbp),%eax
    b7e7:	5d                   	pop    %rbp
    b7e8:	c3                   	retq   

000000000000b7e9 <safe_rshift_func_int32_t_s_u>:
    b7e9:	f3 0f 1e fa          	endbr64 
    b7ed:	55                   	push   %rbp
    b7ee:	48 89 e5             	mov    %rsp,%rbp
    b7f1:	89 7d fc             	mov    %edi,-0x4(%rbp)
    b7f4:	89 75 f8             	mov    %esi,-0x8(%rbp)
    b7f7:	83 7d fc 00          	cmpl   $0x0,-0x4(%rbp)
    b7fb:	78 14                	js     b811 <safe_rshift_func_int32_t_s_u+0x28>
    b7fd:	83 7d f8 1f          	cmpl   $0x1f,-0x8(%rbp)
    b801:	77 0e                	ja     b811 <safe_rshift_func_int32_t_s_u+0x28>
    b803:	8b 45 f8             	mov    -0x8(%rbp),%eax
    b806:	8b 55 fc             	mov    -0x4(%rbp),%edx
    b809:	89 c1                	mov    %eax,%ecx
    b80b:	d3 fa                	sar    %cl,%edx
    b80d:	89 d0                	mov    %edx,%eax
    b80f:	eb 03                	jmp    b814 <safe_rshift_func_int32_t_s_u+0x2b>
    b811:	8b 45 fc             	mov    -0x4(%rbp),%eax
    b814:	5d                   	pop    %rbp
    b815:	c3                   	retq   

000000000000b816 <safe_unary_minus_func_int64_t_s>:
    b816:	f3 0f 1e fa          	endbr64 
    b81a:	55                   	push   %rbp
    b81b:	48 89 e5             	mov    %rsp,%rbp
    b81e:	48 89 7d f8          	mov    %rdi,-0x8(%rbp)
    b822:	48 b8 00 00 00 00 00 	movabs $0x8000000000000000,%rax
    b829:	00 00 80 
    b82c:	48 39 45 f8          	cmp    %rax,-0x8(%rbp)
    b830:	74 09                	je     b83b <safe_unary_minus_func_int64_t_s+0x25>
    b832:	48 8b 45 f8          	mov    -0x8(%rbp),%rax
    b836:	48 f7 d8             	neg    %rax
    b839:	eb 04                	jmp    b83f <safe_unary_minus_func_int64_t_s+0x29>
    b83b:	48 8b 45 f8          	mov    -0x8(%rbp),%rax
    b83f:	5d                   	pop    %rbp
    b840:	c3                   	retq   

000000000000b841 <safe_add_func_int64_t_s_s>:
    b841:	f3 0f 1e fa          	endbr64 
    b845:	55                   	push   %rbp
    b846:	48 89 e5             	mov    %rsp,%rbp
    b849:	48 89 7d f8          	mov    %rdi,-0x8(%rbp)
    b84d:	48 89 75 f0          	mov    %rsi,-0x10(%rbp)
    b851:	48 83 7d f8 00       	cmpq   $0x0,-0x8(%rbp)
    b856:	7e 1b                	jle    b873 <safe_add_func_int64_t_s_s+0x32>
    b858:	48 83 7d f0 00       	cmpq   $0x0,-0x10(%rbp)
    b85d:	7e 14                	jle    b873 <safe_add_func_int64_t_s_s+0x32>
    b85f:	48 b8 ff ff ff ff ff 	movabs $0x7fffffffffffffff,%rax
    b866:	ff ff 7f 
    b869:	48 2b 45 f0          	sub    -0x10(%rbp),%rax
    b86d:	48 39 45 f8          	cmp    %rax,-0x8(%rbp)
    b871:	7f 2f                	jg     b8a2 <safe_add_func_int64_t_s_s+0x61>
    b873:	48 83 7d f8 00       	cmpq   $0x0,-0x8(%rbp)
    b878:	79 1b                	jns    b895 <safe_add_func_int64_t_s_s+0x54>
    b87a:	48 83 7d f0 00       	cmpq   $0x0,-0x10(%rbp)
    b87f:	79 14                	jns    b895 <safe_add_func_int64_t_s_s+0x54>
    b881:	48 b8 00 00 00 00 00 	movabs $0x8000000000000000,%rax
    b888:	00 00 80 
    b88b:	48 2b 45 f0          	sub    -0x10(%rbp),%rax
    b88f:	48 39 45 f8          	cmp    %rax,-0x8(%rbp)
    b893:	7c 0d                	jl     b8a2 <safe_add_func_int64_t_s_s+0x61>
    b895:	48 8b 55 f8          	mov    -0x8(%rbp),%rdx
    b899:	48 8b 45 f0          	mov    -0x10(%rbp),%rax
    b89d:	48 01 d0             	add    %rdx,%rax
    b8a0:	eb 04                	jmp    b8a6 <safe_add_func_int64_t_s_s+0x65>
    b8a2:	48 8b 45 f8          	mov    -0x8(%rbp),%rax
    b8a6:	5d                   	pop    %rbp
    b8a7:	c3                   	retq   

000000000000b8a8 <safe_sub_func_int64_t_s_s>:
    b8a8:	f3 0f 1e fa          	endbr64 
    b8ac:	55                   	push   %rbp
    b8ad:	48 89 e5             	mov    %rsp,%rbp
    b8b0:	48 89 7d f8          	mov    %rdi,-0x8(%rbp)
    b8b4:	48 89 75 f0          	mov    %rsi,-0x10(%rbp)
    b8b8:	48 8b 45 f8          	mov    -0x8(%rbp),%rax
    b8bc:	48 33 45 f0          	xor    -0x10(%rbp),%rax
    b8c0:	48 89 c2             	mov    %rax,%rdx
    b8c3:	48 8b 45 f8          	mov    -0x8(%rbp),%rax
    b8c7:	48 33 45 f0          	xor    -0x10(%rbp),%rax
    b8cb:	48 b9 00 00 00 00 00 	movabs $0x8000000000000000,%rcx
    b8d2:	00 00 80 
    b8d5:	48 21 c8             	and    %rcx,%rax
    b8d8:	48 33 45 f8          	xor    -0x8(%rbp),%rax
    b8dc:	48 2b 45 f0          	sub    -0x10(%rbp),%rax
    b8e0:	48 33 45 f0          	xor    -0x10(%rbp),%rax
    b8e4:	48 21 d0             	and    %rdx,%rax
    b8e7:	48 85 c0             	test   %rax,%rax
    b8ea:	78 0a                	js     b8f6 <safe_sub_func_int64_t_s_s+0x4e>
    b8ec:	48 8b 45 f8          	mov    -0x8(%rbp),%rax
    b8f0:	48 2b 45 f0          	sub    -0x10(%rbp),%rax
    b8f4:	eb 04                	jmp    b8fa <safe_sub_func_int64_t_s_s+0x52>
    b8f6:	48 8b 45 f8          	mov    -0x8(%rbp),%rax
    b8fa:	5d                   	pop    %rbp
    b8fb:	c3                   	retq   

000000000000b8fc <safe_mul_func_int64_t_s_s>:
    b8fc:	f3 0f 1e fa          	endbr64 
    b900:	55                   	push   %rbp
    b901:	48 89 e5             	mov    %rsp,%rbp
    b904:	48 89 7d f8          	mov    %rdi,-0x8(%rbp)
    b908:	48 89 75 f0          	mov    %rsi,-0x10(%rbp)
    b90c:	48 83 7d f8 00       	cmpq   $0x0,-0x8(%rbp)
    b911:	7e 1d                	jle    b930 <safe_mul_func_int64_t_s_s+0x34>
    b913:	48 83 7d f0 00       	cmpq   $0x0,-0x10(%rbp)
    b918:	7e 16                	jle    b930 <safe_mul_func_int64_t_s_s+0x34>
    b91a:	48 b8 ff ff ff ff ff 	movabs $0x7fffffffffffffff,%rax
    b921:	ff ff 7f 
    b924:	48 99                	cqto   
    b926:	48 f7 7d f0          	idivq  -0x10(%rbp)
    b92a:	48 39 45 f8          	cmp    %rax,-0x8(%rbp)
    b92e:	7f 7e                	jg     b9ae <safe_mul_func_int64_t_s_s+0xb2>
    b930:	48 83 7d f8 00       	cmpq   $0x0,-0x8(%rbp)
    b935:	7e 1d                	jle    b954 <safe_mul_func_int64_t_s_s+0x58>
    b937:	48 83 7d f0 00       	cmpq   $0x0,-0x10(%rbp)
    b93c:	7f 16                	jg     b954 <safe_mul_func_int64_t_s_s+0x58>
    b93e:	48 b8 00 00 00 00 00 	movabs $0x8000000000000000,%rax
    b945:	00 00 80 
    b948:	48 99                	cqto   
    b94a:	48 f7 7d f8          	idivq  -0x8(%rbp)
    b94e:	48 39 45 f0          	cmp    %rax,-0x10(%rbp)
    b952:	7c 5a                	jl     b9ae <safe_mul_func_int64_t_s_s+0xb2>
    b954:	48 83 7d f8 00       	cmpq   $0x0,-0x8(%rbp)
    b959:	7f 1d                	jg     b978 <safe_mul_func_int64_t_s_s+0x7c>
    b95b:	48 83 7d f0 00       	cmpq   $0x0,-0x10(%rbp)
    b960:	7e 16                	jle    b978 <safe_mul_func_int64_t_s_s+0x7c>
    b962:	48 b8 00 00 00 00 00 	movabs $0x8000000000000000,%rax
    b969:	00 00 80 
    b96c:	48 99                	cqto   
    b96e:	48 f7 7d f0          	idivq  -0x10(%rbp)
    b972:	48 39 45 f8          	cmp    %rax,-0x8(%rbp)
    b976:	7c 36                	jl     b9ae <safe_mul_func_int64_t_s_s+0xb2>
    b978:	48 83 7d f8 00       	cmpq   $0x0,-0x8(%rbp)
    b97d:	7f 24                	jg     b9a3 <safe_mul_func_int64_t_s_s+0xa7>
    b97f:	48 83 7d f0 00       	cmpq   $0x0,-0x10(%rbp)
    b984:	7f 1d                	jg     b9a3 <safe_mul_func_int64_t_s_s+0xa7>
    b986:	48 83 7d f8 00       	cmpq   $0x0,-0x8(%rbp)
    b98b:	74 16                	je     b9a3 <safe_mul_func_int64_t_s_s+0xa7>
    b98d:	48 b8 ff ff ff ff ff 	movabs $0x7fffffffffffffff,%rax
    b994:	ff ff 7f 
    b997:	48 99                	cqto   
    b999:	48 f7 7d f8          	idivq  -0x8(%rbp)
    b99d:	48 39 45 f0          	cmp    %rax,-0x10(%rbp)
    b9a1:	7c 0b                	jl     b9ae <safe_mul_func_int64_t_s_s+0xb2>
    b9a3:	48 8b 45 f8          	mov    -0x8(%rbp),%rax
    b9a7:	48 0f af 45 f0       	imul   -0x10(%rbp),%rax
    b9ac:	eb 04                	jmp    b9b2 <safe_mul_func_int64_t_s_s+0xb6>
    b9ae:	48 8b 45 f8          	mov    -0x8(%rbp),%rax
    b9b2:	5d                   	pop    %rbp
    b9b3:	c3                   	retq   

000000000000b9b4 <safe_mod_func_int64_t_s_s>:
    b9b4:	f3 0f 1e fa          	endbr64 
    b9b8:	55                   	push   %rbp
    b9b9:	48 89 e5             	mov    %rsp,%rbp
    b9bc:	48 89 7d f8          	mov    %rdi,-0x8(%rbp)
    b9c0:	48 89 75 f0          	mov    %rsi,-0x10(%rbp)
    b9c4:	48 83 7d f0 00       	cmpq   $0x0,-0x10(%rbp)
    b9c9:	74 26                	je     b9f1 <safe_mod_func_int64_t_s_s+0x3d>
    b9cb:	48 b8 00 00 00 00 00 	movabs $0x8000000000000000,%rax
    b9d2:	00 00 80 
    b9d5:	48 39 45 f8          	cmp    %rax,-0x8(%rbp)
    b9d9:	75 07                	jne    b9e2 <safe_mod_func_int64_t_s_s+0x2e>
    b9db:	48 83 7d f0 ff       	cmpq   $0xffffffffffffffff,-0x10(%rbp)
    b9e0:	74 0f                	je     b9f1 <safe_mod_func_int64_t_s_s+0x3d>
    b9e2:	48 8b 45 f8          	mov    -0x8(%rbp),%rax
    b9e6:	48 99                	cqto   
    b9e8:	48 f7 7d f0          	idivq  -0x10(%rbp)
    b9ec:	48 89 d0             	mov    %rdx,%rax
    b9ef:	eb 04                	jmp    b9f5 <safe_mod_func_int64_t_s_s+0x41>
    b9f1:	48 8b 45 f8          	mov    -0x8(%rbp),%rax
    b9f5:	5d                   	pop    %rbp
    b9f6:	c3                   	retq   

000000000000b9f7 <safe_div_func_int64_t_s_s>:
    b9f7:	f3 0f 1e fa          	endbr64 
    b9fb:	55                   	push   %rbp
    b9fc:	48 89 e5             	mov    %rsp,%rbp
    b9ff:	48 89 7d f8          	mov    %rdi,-0x8(%rbp)
    ba03:	48 89 75 f0          	mov    %rsi,-0x10(%rbp)
    ba07:	48 83 7d f0 00       	cmpq   $0x0,-0x10(%rbp)
    ba0c:	74 23                	je     ba31 <safe_div_func_int64_t_s_s+0x3a>
    ba0e:	48 b8 00 00 00 00 00 	movabs $0x8000000000000000,%rax
    ba15:	00 00 80 
    ba18:	48 39 45 f8          	cmp    %rax,-0x8(%rbp)
    ba1c:	75 07                	jne    ba25 <safe_div_func_int64_t_s_s+0x2e>
    ba1e:	48 83 7d f0 ff       	cmpq   $0xffffffffffffffff,-0x10(%rbp)
    ba23:	74 0c                	je     ba31 <safe_div_func_int64_t_s_s+0x3a>
    ba25:	48 8b 45 f8          	mov    -0x8(%rbp),%rax
    ba29:	48 99                	cqto   
    ba2b:	48 f7 7d f0          	idivq  -0x10(%rbp)
    ba2f:	eb 04                	jmp    ba35 <safe_div_func_int64_t_s_s+0x3e>
    ba31:	48 8b 45 f8          	mov    -0x8(%rbp),%rax
    ba35:	5d                   	pop    %rbp
    ba36:	c3                   	retq   

000000000000ba37 <safe_lshift_func_int64_t_s_s>:
    ba37:	f3 0f 1e fa          	endbr64 
    ba3b:	55                   	push   %rbp
    ba3c:	48 89 e5             	mov    %rsp,%rbp
    ba3f:	48 89 7d f8          	mov    %rdi,-0x8(%rbp)
    ba43:	89 75 f4             	mov    %esi,-0xc(%rbp)
    ba46:	48 83 7d f8 00       	cmpq   $0x0,-0x8(%rbp)
    ba4b:	78 38                	js     ba85 <safe_lshift_func_int64_t_s_s+0x4e>
    ba4d:	83 7d f4 00          	cmpl   $0x0,-0xc(%rbp)
    ba51:	78 32                	js     ba85 <safe_lshift_func_int64_t_s_s+0x4e>
    ba53:	83 7d f4 1f          	cmpl   $0x1f,-0xc(%rbp)
    ba57:	7f 2c                	jg     ba85 <safe_lshift_func_int64_t_s_s+0x4e>
    ba59:	8b 45 f4             	mov    -0xc(%rbp),%eax
    ba5c:	48 ba ff ff ff ff ff 	movabs $0x7fffffffffffffff,%rdx
    ba63:	ff ff 7f 
    ba66:	89 c1                	mov    %eax,%ecx
    ba68:	48 d3 fa             	sar    %cl,%rdx
    ba6b:	48 89 d0             	mov    %rdx,%rax
    ba6e:	48 39 45 f8          	cmp    %rax,-0x8(%rbp)
    ba72:	7f 11                	jg     ba85 <safe_lshift_func_int64_t_s_s+0x4e>
    ba74:	8b 45 f4             	mov    -0xc(%rbp),%eax
    ba77:	48 8b 55 f8          	mov    -0x8(%rbp),%rdx
    ba7b:	89 c1                	mov    %eax,%ecx
    ba7d:	48 d3 e2             	shl    %cl,%rdx
    ba80:	48 89 d0             	mov    %rdx,%rax
    ba83:	eb 04                	jmp    ba89 <safe_lshift_func_int64_t_s_s+0x52>
    ba85:	48 8b 45 f8          	mov    -0x8(%rbp),%rax
    ba89:	5d                   	pop    %rbp
    ba8a:	c3                   	retq   

000000000000ba8b <safe_lshift_func_int64_t_s_u>:
    ba8b:	f3 0f 1e fa          	endbr64 
    ba8f:	55                   	push   %rbp
    ba90:	48 89 e5             	mov    %rsp,%rbp
    ba93:	48 89 7d f8          	mov    %rdi,-0x8(%rbp)
    ba97:	89 75 f4             	mov    %esi,-0xc(%rbp)
    ba9a:	48 83 7d f8 00       	cmpq   $0x0,-0x8(%rbp)
    ba9f:	78 32                	js     bad3 <safe_lshift_func_int64_t_s_u+0x48>
    baa1:	83 7d f4 1f          	cmpl   $0x1f,-0xc(%rbp)
    baa5:	77 2c                	ja     bad3 <safe_lshift_func_int64_t_s_u+0x48>
    baa7:	8b 45 f4             	mov    -0xc(%rbp),%eax
    baaa:	48 ba ff ff ff ff ff 	movabs $0x7fffffffffffffff,%rdx
    bab1:	ff ff 7f 
    bab4:	89 c1                	mov    %eax,%ecx
    bab6:	48 d3 fa             	sar    %cl,%rdx
    bab9:	48 89 d0             	mov    %rdx,%rax
    babc:	48 39 45 f8          	cmp    %rax,-0x8(%rbp)
    bac0:	7f 11                	jg     bad3 <safe_lshift_func_int64_t_s_u+0x48>
    bac2:	8b 45 f4             	mov    -0xc(%rbp),%eax
    bac5:	48 8b 55 f8          	mov    -0x8(%rbp),%rdx
    bac9:	89 c1                	mov    %eax,%ecx
    bacb:	48 d3 e2             	shl    %cl,%rdx
    bace:	48 89 d0             	mov    %rdx,%rax
    bad1:	eb 04                	jmp    bad7 <safe_lshift_func_int64_t_s_u+0x4c>
    bad3:	48 8b 45 f8          	mov    -0x8(%rbp),%rax
    bad7:	5d                   	pop    %rbp
    bad8:	c3                   	retq   

000000000000bad9 <safe_rshift_func_int64_t_s_s>:
    bad9:	f3 0f 1e fa          	endbr64 
    badd:	55                   	push   %rbp
    bade:	48 89 e5             	mov    %rsp,%rbp
    bae1:	48 89 7d f8          	mov    %rdi,-0x8(%rbp)
    bae5:	89 75 f4             	mov    %esi,-0xc(%rbp)
    bae8:	48 83 7d f8 00       	cmpq   $0x0,-0x8(%rbp)
    baed:	78 1d                	js     bb0c <safe_rshift_func_int64_t_s_s+0x33>
    baef:	83 7d f4 00          	cmpl   $0x0,-0xc(%rbp)
    baf3:	78 17                	js     bb0c <safe_rshift_func_int64_t_s_s+0x33>
    baf5:	83 7d f4 1f          	cmpl   $0x1f,-0xc(%rbp)
    baf9:	7f 11                	jg     bb0c <safe_rshift_func_int64_t_s_s+0x33>
    bafb:	8b 45 f4             	mov    -0xc(%rbp),%eax
    bafe:	48 8b 55 f8          	mov    -0x8(%rbp),%rdx
    bb02:	89 c1                	mov    %eax,%ecx
    bb04:	48 d3 fa             	sar    %cl,%rdx
    bb07:	48 89 d0             	mov    %rdx,%rax
    bb0a:	eb 04                	jmp    bb10 <safe_rshift_func_int64_t_s_s+0x37>
    bb0c:	48 8b 45 f8          	mov    -0x8(%rbp),%rax
    bb10:	5d                   	pop    %rbp
    bb11:	c3                   	retq   

000000000000bb12 <safe_rshift_func_int64_t_s_u>:
    bb12:	f3 0f 1e fa          	endbr64 
    bb16:	55                   	push   %rbp
    bb17:	48 89 e5             	mov    %rsp,%rbp
    bb1a:	48 89 7d f8          	mov    %rdi,-0x8(%rbp)
    bb1e:	89 75 f4             	mov    %esi,-0xc(%rbp)
    bb21:	48 83 7d f8 00       	cmpq   $0x0,-0x8(%rbp)
    bb26:	78 17                	js     bb3f <safe_rshift_func_int64_t_s_u+0x2d>
    bb28:	83 7d f4 1f          	cmpl   $0x1f,-0xc(%rbp)
    bb2c:	77 11                	ja     bb3f <safe_rshift_func_int64_t_s_u+0x2d>
    bb2e:	8b 45 f4             	mov    -0xc(%rbp),%eax
    bb31:	48 8b 55 f8          	mov    -0x8(%rbp),%rdx
    bb35:	89 c1                	mov    %eax,%ecx
    bb37:	48 d3 fa             	sar    %cl,%rdx
    bb3a:	48 89 d0             	mov    %rdx,%rax
    bb3d:	eb 04                	jmp    bb43 <safe_rshift_func_int64_t_s_u+0x31>
    bb3f:	48 8b 45 f8          	mov    -0x8(%rbp),%rax
    bb43:	5d                   	pop    %rbp
    bb44:	c3                   	retq   

000000000000bb45 <safe_unary_minus_func_uint8_t_u>:
    bb45:	f3 0f 1e fa          	endbr64 
    bb49:	55                   	push   %rbp
    bb4a:	48 89 e5             	mov    %rsp,%rbp
    bb4d:	89 f8                	mov    %edi,%eax
    bb4f:	88 45 fc             	mov    %al,-0x4(%rbp)
    bb52:	0f b6 45 fc          	movzbl -0x4(%rbp),%eax
    bb56:	f7 d8                	neg    %eax
    bb58:	5d                   	pop    %rbp
    bb59:	c3                   	retq   

000000000000bb5a <safe_add_func_uint8_t_u_u>:
    bb5a:	f3 0f 1e fa          	endbr64 
    bb5e:	55                   	push   %rbp
    bb5f:	48 89 e5             	mov    %rsp,%rbp
    bb62:	89 fa                	mov    %edi,%edx
    bb64:	89 f0                	mov    %esi,%eax
    bb66:	88 55 fc             	mov    %dl,-0x4(%rbp)
    bb69:	88 45 f8             	mov    %al,-0x8(%rbp)
    bb6c:	0f b6 55 fc          	movzbl -0x4(%rbp),%edx
    bb70:	0f b6 45 f8          	movzbl -0x8(%rbp),%eax
    bb74:	01 d0                	add    %edx,%eax
    bb76:	5d                   	pop    %rbp
    bb77:	c3                   	retq   

000000000000bb78 <safe_sub_func_uint8_t_u_u>:
    bb78:	f3 0f 1e fa          	endbr64 
    bb7c:	55                   	push   %rbp
    bb7d:	48 89 e5             	mov    %rsp,%rbp
    bb80:	89 fa                	mov    %edi,%edx
    bb82:	89 f0                	mov    %esi,%eax
    bb84:	88 55 fc             	mov    %dl,-0x4(%rbp)
    bb87:	88 45 f8             	mov    %al,-0x8(%rbp)
    bb8a:	0f b6 45 fc          	movzbl -0x4(%rbp),%eax
    bb8e:	2a 45 f8             	sub    -0x8(%rbp),%al
    bb91:	5d                   	pop    %rbp
    bb92:	c3                   	retq   

000000000000bb93 <safe_mul_func_uint8_t_u_u>:
    bb93:	f3 0f 1e fa          	endbr64 
    bb97:	55                   	push   %rbp
    bb98:	48 89 e5             	mov    %rsp,%rbp
    bb9b:	89 fa                	mov    %edi,%edx
    bb9d:	89 f0                	mov    %esi,%eax
    bb9f:	88 55 fc             	mov    %dl,-0x4(%rbp)
    bba2:	88 45 f8             	mov    %al,-0x8(%rbp)
    bba5:	0f b6 45 fc          	movzbl -0x4(%rbp),%eax
    bba9:	f6 65 f8             	mulb   -0x8(%rbp)
    bbac:	5d                   	pop    %rbp
    bbad:	c3                   	retq   

000000000000bbae <safe_mod_func_uint8_t_u_u>:
    bbae:	f3 0f 1e fa          	endbr64 
    bbb2:	55                   	push   %rbp
    bbb3:	48 89 e5             	mov    %rsp,%rbp
    bbb6:	89 fa                	mov    %edi,%edx
    bbb8:	89 f0                	mov    %esi,%eax
    bbba:	88 55 fc             	mov    %dl,-0x4(%rbp)
    bbbd:	88 45 f8             	mov    %al,-0x8(%rbp)
    bbc0:	80 7d f8 00          	cmpb   $0x0,-0x8(%rbp)
    bbc4:	74 0f                	je     bbd5 <safe_mod_func_uint8_t_u_u+0x27>
    bbc6:	0f b6 45 fc          	movzbl -0x4(%rbp),%eax
    bbca:	0f b6 c0             	movzbl %al,%eax
    bbcd:	f6 75 f8             	divb   -0x8(%rbp)
    bbd0:	0f b6 c4             	movzbl %ah,%eax
    bbd3:	eb 04                	jmp    bbd9 <safe_mod_func_uint8_t_u_u+0x2b>
    bbd5:	0f b6 45 fc          	movzbl -0x4(%rbp),%eax
    bbd9:	5d                   	pop    %rbp
    bbda:	c3                   	retq   

000000000000bbdb <safe_div_func_uint8_t_u_u>:
    bbdb:	f3 0f 1e fa          	endbr64 
    bbdf:	55                   	push   %rbp
    bbe0:	48 89 e5             	mov    %rsp,%rbp
    bbe3:	89 fa                	mov    %edi,%edx
    bbe5:	89 f0                	mov    %esi,%eax
    bbe7:	88 55 fc             	mov    %dl,-0x4(%rbp)
    bbea:	88 45 f8             	mov    %al,-0x8(%rbp)
    bbed:	80 7d f8 00          	cmpb   $0x0,-0x8(%rbp)
    bbf1:	74 0c                	je     bbff <safe_div_func_uint8_t_u_u+0x24>
    bbf3:	0f b6 45 fc          	movzbl -0x4(%rbp),%eax
    bbf7:	0f b6 c0             	movzbl %al,%eax
    bbfa:	f6 75 f8             	divb   -0x8(%rbp)
    bbfd:	eb 04                	jmp    bc03 <safe_div_func_uint8_t_u_u+0x28>
    bbff:	0f b6 45 fc          	movzbl -0x4(%rbp),%eax
    bc03:	5d                   	pop    %rbp
    bc04:	c3                   	retq   

000000000000bc05 <safe_lshift_func_uint8_t_u_s>:
    bc05:	f3 0f 1e fa          	endbr64 
    bc09:	55                   	push   %rbp
    bc0a:	48 89 e5             	mov    %rsp,%rbp
    bc0d:	89 f8                	mov    %edi,%eax
    bc0f:	89 75 f8             	mov    %esi,-0x8(%rbp)
    bc12:	88 45 fc             	mov    %al,-0x4(%rbp)
    bc15:	83 7d f8 00          	cmpl   $0x0,-0x8(%rbp)
    bc19:	78 2b                	js     bc46 <safe_lshift_func_uint8_t_u_s+0x41>
    bc1b:	83 7d f8 1f          	cmpl   $0x1f,-0x8(%rbp)
    bc1f:	7f 25                	jg     bc46 <safe_lshift_func_uint8_t_u_s+0x41>
    bc21:	0f b6 55 fc          	movzbl -0x4(%rbp),%edx
    bc25:	8b 45 f8             	mov    -0x8(%rbp),%eax
    bc28:	be ff 00 00 00       	mov    $0xff,%esi
    bc2d:	89 c1                	mov    %eax,%ecx
    bc2f:	d3 fe                	sar    %cl,%esi
    bc31:	89 f0                	mov    %esi,%eax
    bc33:	39 c2                	cmp    %eax,%edx
    bc35:	7f 0f                	jg     bc46 <safe_lshift_func_uint8_t_u_s+0x41>
    bc37:	0f b6 55 fc          	movzbl -0x4(%rbp),%edx
    bc3b:	8b 45 f8             	mov    -0x8(%rbp),%eax
    bc3e:	89 c1                	mov    %eax,%ecx
    bc40:	d3 e2                	shl    %cl,%edx
    bc42:	89 d0                	mov    %edx,%eax
    bc44:	eb 04                	jmp    bc4a <safe_lshift_func_uint8_t_u_s+0x45>
    bc46:	0f b6 45 fc          	movzbl -0x4(%rbp),%eax
    bc4a:	5d                   	pop    %rbp
    bc4b:	c3                   	retq   

000000000000bc4c <safe_lshift_func_uint8_t_u_u>:
    bc4c:	f3 0f 1e fa          	endbr64 
    bc50:	55                   	push   %rbp
    bc51:	48 89 e5             	mov    %rsp,%rbp
    bc54:	89 f8                	mov    %edi,%eax
    bc56:	89 75 f8             	mov    %esi,-0x8(%rbp)
    bc59:	88 45 fc             	mov    %al,-0x4(%rbp)
    bc5c:	83 7d f8 1f          	cmpl   $0x1f,-0x8(%rbp)
    bc60:	77 25                	ja     bc87 <safe_lshift_func_uint8_t_u_u+0x3b>
    bc62:	0f b6 55 fc          	movzbl -0x4(%rbp),%edx
    bc66:	8b 45 f8             	mov    -0x8(%rbp),%eax
    bc69:	be ff 00 00 00       	mov    $0xff,%esi
    bc6e:	89 c1                	mov    %eax,%ecx
    bc70:	d3 fe                	sar    %cl,%esi
    bc72:	89 f0                	mov    %esi,%eax
    bc74:	39 c2                	cmp    %eax,%edx
    bc76:	7f 0f                	jg     bc87 <safe_lshift_func_uint8_t_u_u+0x3b>
    bc78:	0f b6 55 fc          	movzbl -0x4(%rbp),%edx
    bc7c:	8b 45 f8             	mov    -0x8(%rbp),%eax
    bc7f:	89 c1                	mov    %eax,%ecx
    bc81:	d3 e2                	shl    %cl,%edx
    bc83:	89 d0                	mov    %edx,%eax
    bc85:	eb 04                	jmp    bc8b <safe_lshift_func_uint8_t_u_u+0x3f>
    bc87:	0f b6 45 fc          	movzbl -0x4(%rbp),%eax
    bc8b:	5d                   	pop    %rbp
    bc8c:	c3                   	retq   

000000000000bc8d <safe_rshift_func_uint8_t_u_s>:
    bc8d:	f3 0f 1e fa          	endbr64 
    bc91:	55                   	push   %rbp
    bc92:	48 89 e5             	mov    %rsp,%rbp
    bc95:	89 f8                	mov    %edi,%eax
    bc97:	89 75 f8             	mov    %esi,-0x8(%rbp)
    bc9a:	88 45 fc             	mov    %al,-0x4(%rbp)
    bc9d:	83 7d f8 00          	cmpl   $0x0,-0x8(%rbp)
    bca1:	78 15                	js     bcb8 <safe_rshift_func_uint8_t_u_s+0x2b>
    bca3:	83 7d f8 1f          	cmpl   $0x1f,-0x8(%rbp)
    bca7:	7f 0f                	jg     bcb8 <safe_rshift_func_uint8_t_u_s+0x2b>
    bca9:	0f b6 55 fc          	movzbl -0x4(%rbp),%edx
    bcad:	8b 45 f8             	mov    -0x8(%rbp),%eax
    bcb0:	89 c1                	mov    %eax,%ecx
    bcb2:	d3 fa                	sar    %cl,%edx
    bcb4:	89 d0                	mov    %edx,%eax
    bcb6:	eb 04                	jmp    bcbc <safe_rshift_func_uint8_t_u_s+0x2f>
    bcb8:	0f b6 45 fc          	movzbl -0x4(%rbp),%eax
    bcbc:	5d                   	pop    %rbp
    bcbd:	c3                   	retq   

000000000000bcbe <safe_rshift_func_uint8_t_u_u>:
    bcbe:	f3 0f 1e fa          	endbr64 
    bcc2:	55                   	push   %rbp
    bcc3:	48 89 e5             	mov    %rsp,%rbp
    bcc6:	89 f8                	mov    %edi,%eax
    bcc8:	89 75 f8             	mov    %esi,-0x8(%rbp)
    bccb:	88 45 fc             	mov    %al,-0x4(%rbp)
    bcce:	83 7d f8 1f          	cmpl   $0x1f,-0x8(%rbp)
    bcd2:	77 0f                	ja     bce3 <safe_rshift_func_uint8_t_u_u+0x25>
    bcd4:	0f b6 55 fc          	movzbl -0x4(%rbp),%edx
    bcd8:	8b 45 f8             	mov    -0x8(%rbp),%eax
    bcdb:	89 c1                	mov    %eax,%ecx
    bcdd:	d3 fa                	sar    %cl,%edx
    bcdf:	89 d0                	mov    %edx,%eax
    bce1:	eb 04                	jmp    bce7 <safe_rshift_func_uint8_t_u_u+0x29>
    bce3:	0f b6 45 fc          	movzbl -0x4(%rbp),%eax
    bce7:	5d                   	pop    %rbp
    bce8:	c3                   	retq   

000000000000bce9 <safe_unary_minus_func_uint16_t_u>:
    bce9:	f3 0f 1e fa          	endbr64 
    bced:	55                   	push   %rbp
    bcee:	48 89 e5             	mov    %rsp,%rbp
    bcf1:	89 f8                	mov    %edi,%eax
    bcf3:	66 89 45 fc          	mov    %ax,-0x4(%rbp)
    bcf7:	0f b7 45 fc          	movzwl -0x4(%rbp),%eax
    bcfb:	f7 d8                	neg    %eax
    bcfd:	5d                   	pop    %rbp
    bcfe:	c3                   	retq   

000000000000bcff <safe_add_func_uint16_t_u_u>:
    bcff:	f3 0f 1e fa          	endbr64 
    bd03:	55                   	push   %rbp
    bd04:	48 89 e5             	mov    %rsp,%rbp
    bd07:	89 fa                	mov    %edi,%edx
    bd09:	89 f0                	mov    %esi,%eax
    bd0b:	66 89 55 fc          	mov    %dx,-0x4(%rbp)
    bd0f:	66 89 45 f8          	mov    %ax,-0x8(%rbp)
    bd13:	0f b7 55 fc          	movzwl -0x4(%rbp),%edx
    bd17:	0f b7 45 f8          	movzwl -0x8(%rbp),%eax
    bd1b:	01 d0                	add    %edx,%eax
    bd1d:	5d                   	pop    %rbp
    bd1e:	c3                   	retq   

000000000000bd1f <safe_sub_func_uint16_t_u_u>:
    bd1f:	f3 0f 1e fa          	endbr64 
    bd23:	55                   	push   %rbp
    bd24:	48 89 e5             	mov    %rsp,%rbp
    bd27:	89 fa                	mov    %edi,%edx
    bd29:	89 f0                	mov    %esi,%eax
    bd2b:	66 89 55 fc          	mov    %dx,-0x4(%rbp)
    bd2f:	66 89 45 f8          	mov    %ax,-0x8(%rbp)
    bd33:	0f b7 45 fc          	movzwl -0x4(%rbp),%eax
    bd37:	66 2b 45 f8          	sub    -0x8(%rbp),%ax
    bd3b:	5d                   	pop    %rbp
    bd3c:	c3                   	retq   

000000000000bd3d <safe_mul_func_uint16_t_u_u>:
    bd3d:	f3 0f 1e fa          	endbr64 
    bd41:	55                   	push   %rbp
    bd42:	48 89 e5             	mov    %rsp,%rbp
    bd45:	89 fa                	mov    %edi,%edx
    bd47:	89 f0                	mov    %esi,%eax
    bd49:	66 89 55 fc          	mov    %dx,-0x4(%rbp)
    bd4d:	66 89 45 f8          	mov    %ax,-0x8(%rbp)
    bd51:	0f b7 45 fc          	movzwl -0x4(%rbp),%eax
    bd55:	66 0f af 45 f8       	imul   -0x8(%rbp),%ax
    bd5a:	5d                   	pop    %rbp
    bd5b:	c3                   	retq   

000000000000bd5c <safe_mod_func_uint16_t_u_u>:
    bd5c:	f3 0f 1e fa          	endbr64 
    bd60:	55                   	push   %rbp
    bd61:	48 89 e5             	mov    %rsp,%rbp
    bd64:	89 fa                	mov    %edi,%edx
    bd66:	89 f0                	mov    %esi,%eax
    bd68:	66 89 55 fc          	mov    %dx,-0x4(%rbp)
    bd6c:	66 89 45 f8          	mov    %ax,-0x8(%rbp)
    bd70:	66 83 7d f8 00       	cmpw   $0x0,-0x8(%rbp)
    bd75:	74 11                	je     bd88 <safe_mod_func_uint16_t_u_u+0x2c>
    bd77:	0f b7 45 fc          	movzwl -0x4(%rbp),%eax
    bd7b:	ba 00 00 00 00       	mov    $0x0,%edx
    bd80:	66 f7 75 f8          	divw   -0x8(%rbp)
    bd84:	89 d0                	mov    %edx,%eax
    bd86:	eb 04                	jmp    bd8c <safe_mod_func_uint16_t_u_u+0x30>
    bd88:	0f b7 45 fc          	movzwl -0x4(%rbp),%eax
    bd8c:	5d                   	pop    %rbp
    bd8d:	c3                   	retq   

000000000000bd8e <safe_div_func_uint16_t_u_u>:
    bd8e:	f3 0f 1e fa          	endbr64 
    bd92:	55                   	push   %rbp
    bd93:	48 89 e5             	mov    %rsp,%rbp
    bd96:	89 fa                	mov    %edi,%edx
    bd98:	89 f0                	mov    %esi,%eax
    bd9a:	66 89 55 fc          	mov    %dx,-0x4(%rbp)
    bd9e:	66 89 45 f8          	mov    %ax,-0x8(%rbp)
    bda2:	66 83 7d f8 00       	cmpw   $0x0,-0x8(%rbp)
    bda7:	74 0f                	je     bdb8 <safe_div_func_uint16_t_u_u+0x2a>
    bda9:	0f b7 45 fc          	movzwl -0x4(%rbp),%eax
    bdad:	ba 00 00 00 00       	mov    $0x0,%edx
    bdb2:	66 f7 75 f8          	divw   -0x8(%rbp)
    bdb6:	eb 04                	jmp    bdbc <safe_div_func_uint16_t_u_u+0x2e>
    bdb8:	0f b7 45 fc          	movzwl -0x4(%rbp),%eax
    bdbc:	5d                   	pop    %rbp
    bdbd:	c3                   	retq   

000000000000bdbe <safe_lshift_func_uint16_t_u_s>:
    bdbe:	f3 0f 1e fa          	endbr64 
    bdc2:	55                   	push   %rbp
    bdc3:	48 89 e5             	mov    %rsp,%rbp
    bdc6:	89 f8                	mov    %edi,%eax
    bdc8:	89 75 f8             	mov    %esi,-0x8(%rbp)
    bdcb:	66 89 45 fc          	mov    %ax,-0x4(%rbp)
    bdcf:	83 7d f8 00          	cmpl   $0x0,-0x8(%rbp)
    bdd3:	78 2b                	js     be00 <safe_lshift_func_uint16_t_u_s+0x42>
    bdd5:	83 7d f8 1f          	cmpl   $0x1f,-0x8(%rbp)
    bdd9:	7f 25                	jg     be00 <safe_lshift_func_uint16_t_u_s+0x42>
    bddb:	0f b7 55 fc          	movzwl -0x4(%rbp),%edx
    bddf:	8b 45 f8             	mov    -0x8(%rbp),%eax
    bde2:	be ff ff 00 00       	mov    $0xffff,%esi
    bde7:	89 c1                	mov    %eax,%ecx
    bde9:	d3 fe                	sar    %cl,%esi
    bdeb:	89 f0                	mov    %esi,%eax
    bded:	39 c2                	cmp    %eax,%edx
    bdef:	7f 0f                	jg     be00 <safe_lshift_func_uint16_t_u_s+0x42>
    bdf1:	0f b7 55 fc          	movzwl -0x4(%rbp),%edx
    bdf5:	8b 45 f8             	mov    -0x8(%rbp),%eax
    bdf8:	89 c1                	mov    %eax,%ecx
    bdfa:	d3 e2                	shl    %cl,%edx
    bdfc:	89 d0                	mov    %edx,%eax
    bdfe:	eb 04                	jmp    be04 <safe_lshift_func_uint16_t_u_s+0x46>
    be00:	0f b7 45 fc          	movzwl -0x4(%rbp),%eax
    be04:	5d                   	pop    %rbp
    be05:	c3                   	retq   

000000000000be06 <safe_lshift_func_uint16_t_u_u>:
    be06:	f3 0f 1e fa          	endbr64 
    be0a:	55                   	push   %rbp
    be0b:	48 89 e5             	mov    %rsp,%rbp
    be0e:	89 f8                	mov    %edi,%eax
    be10:	89 75 f8             	mov    %esi,-0x8(%rbp)
    be13:	66 89 45 fc          	mov    %ax,-0x4(%rbp)
    be17:	83 7d f8 1f          	cmpl   $0x1f,-0x8(%rbp)
    be1b:	77 25                	ja     be42 <safe_lshift_func_uint16_t_u_u+0x3c>
    be1d:	0f b7 55 fc          	movzwl -0x4(%rbp),%edx
    be21:	8b 45 f8             	mov    -0x8(%rbp),%eax
    be24:	be ff ff 00 00       	mov    $0xffff,%esi
    be29:	89 c1                	mov    %eax,%ecx
    be2b:	d3 fe                	sar    %cl,%esi
    be2d:	89 f0                	mov    %esi,%eax
    be2f:	39 c2                	cmp    %eax,%edx
    be31:	7f 0f                	jg     be42 <safe_lshift_func_uint16_t_u_u+0x3c>
    be33:	0f b7 55 fc          	movzwl -0x4(%rbp),%edx
    be37:	8b 45 f8             	mov    -0x8(%rbp),%eax
    be3a:	89 c1                	mov    %eax,%ecx
    be3c:	d3 e2                	shl    %cl,%edx
    be3e:	89 d0                	mov    %edx,%eax
    be40:	eb 04                	jmp    be46 <safe_lshift_func_uint16_t_u_u+0x40>
    be42:	0f b7 45 fc          	movzwl -0x4(%rbp),%eax
    be46:	5d                   	pop    %rbp
    be47:	c3                   	retq   

000000000000be48 <safe_rshift_func_uint16_t_u_s>:
    be48:	f3 0f 1e fa          	endbr64 
    be4c:	55                   	push   %rbp
    be4d:	48 89 e5             	mov    %rsp,%rbp
    be50:	89 f8                	mov    %edi,%eax
    be52:	89 75 f8             	mov    %esi,-0x8(%rbp)
    be55:	66 89 45 fc          	mov    %ax,-0x4(%rbp)
    be59:	83 7d f8 00          	cmpl   $0x0,-0x8(%rbp)
    be5d:	78 15                	js     be74 <safe_rshift_func_uint16_t_u_s+0x2c>
    be5f:	83 7d f8 1f          	cmpl   $0x1f,-0x8(%rbp)
    be63:	7f 0f                	jg     be74 <safe_rshift_func_uint16_t_u_s+0x2c>
    be65:	0f b7 55 fc          	movzwl -0x4(%rbp),%edx
    be69:	8b 45 f8             	mov    -0x8(%rbp),%eax
    be6c:	89 c1                	mov    %eax,%ecx
    be6e:	d3 fa                	sar    %cl,%edx
    be70:	89 d0                	mov    %edx,%eax
    be72:	eb 04                	jmp    be78 <safe_rshift_func_uint16_t_u_s+0x30>
    be74:	0f b7 45 fc          	movzwl -0x4(%rbp),%eax
    be78:	5d                   	pop    %rbp
    be79:	c3                   	retq   

000000000000be7a <safe_rshift_func_uint16_t_u_u>:
    be7a:	f3 0f 1e fa          	endbr64 
    be7e:	55                   	push   %rbp
    be7f:	48 89 e5             	mov    %rsp,%rbp
    be82:	89 f8                	mov    %edi,%eax
    be84:	89 75 f8             	mov    %esi,-0x8(%rbp)
    be87:	66 89 45 fc          	mov    %ax,-0x4(%rbp)
    be8b:	83 7d f8 1f          	cmpl   $0x1f,-0x8(%rbp)
    be8f:	77 0f                	ja     bea0 <safe_rshift_func_uint16_t_u_u+0x26>
    be91:	0f b7 55 fc          	movzwl -0x4(%rbp),%edx
    be95:	8b 45 f8             	mov    -0x8(%rbp),%eax
    be98:	89 c1                	mov    %eax,%ecx
    be9a:	d3 fa                	sar    %cl,%edx
    be9c:	89 d0                	mov    %edx,%eax
    be9e:	eb 04                	jmp    bea4 <safe_rshift_func_uint16_t_u_u+0x2a>
    bea0:	0f b7 45 fc          	movzwl -0x4(%rbp),%eax
    bea4:	5d                   	pop    %rbp
    bea5:	c3                   	retq   

000000000000bea6 <safe_unary_minus_func_uint32_t_u>:
    bea6:	f3 0f 1e fa          	endbr64 
    beaa:	55                   	push   %rbp
    beab:	48 89 e5             	mov    %rsp,%rbp
    beae:	89 7d fc             	mov    %edi,-0x4(%rbp)
    beb1:	8b 45 fc             	mov    -0x4(%rbp),%eax
    beb4:	f7 d8                	neg    %eax
    beb6:	5d                   	pop    %rbp
    beb7:	c3                   	retq   

000000000000beb8 <safe_add_func_uint32_t_u_u>:
    beb8:	f3 0f 1e fa          	endbr64 
    bebc:	55                   	push   %rbp
    bebd:	48 89 e5             	mov    %rsp,%rbp
    bec0:	89 7d fc             	mov    %edi,-0x4(%rbp)
    bec3:	89 75 f8             	mov    %esi,-0x8(%rbp)
    bec6:	8b 55 fc             	mov    -0x4(%rbp),%edx
    bec9:	8b 45 f8             	mov    -0x8(%rbp),%eax
    becc:	01 d0                	add    %edx,%eax
    bece:	5d                   	pop    %rbp
    becf:	c3                   	retq   

000000000000bed0 <safe_sub_func_uint32_t_u_u>:
    bed0:	f3 0f 1e fa          	endbr64 
    bed4:	55                   	push   %rbp
    bed5:	48 89 e5             	mov    %rsp,%rbp
    bed8:	89 7d fc             	mov    %edi,-0x4(%rbp)
    bedb:	89 75 f8             	mov    %esi,-0x8(%rbp)
    bede:	8b 45 fc             	mov    -0x4(%rbp),%eax
    bee1:	2b 45 f8             	sub    -0x8(%rbp),%eax
    bee4:	5d                   	pop    %rbp
    bee5:	c3                   	retq   

000000000000bee6 <safe_mul_func_uint32_t_u_u>:
    bee6:	f3 0f 1e fa          	endbr64 
    beea:	55                   	push   %rbp
    beeb:	48 89 e5             	mov    %rsp,%rbp
    beee:	89 7d fc             	mov    %edi,-0x4(%rbp)
    bef1:	89 75 f8             	mov    %esi,-0x8(%rbp)
    bef4:	8b 45 fc             	mov    -0x4(%rbp),%eax
    bef7:	0f af 45 f8          	imul   -0x8(%rbp),%eax
    befb:	5d                   	pop    %rbp
    befc:	c3                   	retq   

000000000000befd <safe_mod_func_uint32_t_u_u>:
    befd:	f3 0f 1e fa          	endbr64 
    bf01:	55                   	push   %rbp
    bf02:	48 89 e5             	mov    %rsp,%rbp
    bf05:	89 7d fc             	mov    %edi,-0x4(%rbp)
    bf08:	89 75 f8             	mov    %esi,-0x8(%rbp)
    bf0b:	83 7d f8 00          	cmpl   $0x0,-0x8(%rbp)
    bf0f:	74 0f                	je     bf20 <safe_mod_func_uint32_t_u_u+0x23>
    bf11:	8b 45 fc             	mov    -0x4(%rbp),%eax
    bf14:	ba 00 00 00 00       	mov    $0x0,%edx
    bf19:	f7 75 f8             	divl   -0x8(%rbp)
    bf1c:	89 d0                	mov    %edx,%eax
    bf1e:	eb 03                	jmp    bf23 <safe_mod_func_uint32_t_u_u+0x26>
    bf20:	8b 45 fc             	mov    -0x4(%rbp),%eax
    bf23:	5d                   	pop    %rbp
    bf24:	c3                   	retq   

000000000000bf25 <safe_div_func_uint32_t_u_u>:
    bf25:	f3 0f 1e fa          	endbr64 
    bf29:	55                   	push   %rbp
    bf2a:	48 89 e5             	mov    %rsp,%rbp
    bf2d:	89 7d fc             	mov    %edi,-0x4(%rbp)
    bf30:	89 75 f8             	mov    %esi,-0x8(%rbp)
    bf33:	83 7d f8 00          	cmpl   $0x0,-0x8(%rbp)
    bf37:	74 0d                	je     bf46 <safe_div_func_uint32_t_u_u+0x21>
    bf39:	8b 45 fc             	mov    -0x4(%rbp),%eax
    bf3c:	ba 00 00 00 00       	mov    $0x0,%edx
    bf41:	f7 75 f8             	divl   -0x8(%rbp)
    bf44:	eb 03                	jmp    bf49 <safe_div_func_uint32_t_u_u+0x24>
    bf46:	8b 45 fc             	mov    -0x4(%rbp),%eax
    bf49:	5d                   	pop    %rbp
    bf4a:	c3                   	retq   

000000000000bf4b <safe_lshift_func_uint32_t_u_s>:
    bf4b:	f3 0f 1e fa          	endbr64 
    bf4f:	55                   	push   %rbp
    bf50:	48 89 e5             	mov    %rsp,%rbp
    bf53:	89 7d fc             	mov    %edi,-0x4(%rbp)
    bf56:	89 75 f8             	mov    %esi,-0x8(%rbp)
    bf59:	83 7d f8 00          	cmpl   $0x0,-0x8(%rbp)
    bf5d:	78 27                	js     bf86 <safe_lshift_func_uint32_t_u_s+0x3b>
    bf5f:	83 7d f8 1f          	cmpl   $0x1f,-0x8(%rbp)
    bf63:	7f 21                	jg     bf86 <safe_lshift_func_uint32_t_u_s+0x3b>
    bf65:	8b 45 f8             	mov    -0x8(%rbp),%eax
    bf68:	ba ff ff ff ff       	mov    $0xffffffff,%edx
    bf6d:	89 c1                	mov    %eax,%ecx
    bf6f:	d3 ea                	shr    %cl,%edx
    bf71:	89 d0                	mov    %edx,%eax
    bf73:	39 45 fc             	cmp    %eax,-0x4(%rbp)
    bf76:	77 0e                	ja     bf86 <safe_lshift_func_uint32_t_u_s+0x3b>
    bf78:	8b 45 f8             	mov    -0x8(%rbp),%eax
    bf7b:	8b 55 fc             	mov    -0x4(%rbp),%edx
    bf7e:	89 c1                	mov    %eax,%ecx
    bf80:	d3 e2                	shl    %cl,%edx
    bf82:	89 d0                	mov    %edx,%eax
    bf84:	eb 03                	jmp    bf89 <safe_lshift_func_uint32_t_u_s+0x3e>
    bf86:	8b 45 fc             	mov    -0x4(%rbp),%eax
    bf89:	5d                   	pop    %rbp
    bf8a:	c3                   	retq   

000000000000bf8b <safe_lshift_func_uint32_t_u_u>:
    bf8b:	f3 0f 1e fa          	endbr64 
    bf8f:	55                   	push   %rbp
    bf90:	48 89 e5             	mov    %rsp,%rbp
    bf93:	89 7d fc             	mov    %edi,-0x4(%rbp)
    bf96:	89 75 f8             	mov    %esi,-0x8(%rbp)
    bf99:	83 7d f8 1f          	cmpl   $0x1f,-0x8(%rbp)
    bf9d:	77 21                	ja     bfc0 <safe_lshift_func_uint32_t_u_u+0x35>
    bf9f:	8b 45 f8             	mov    -0x8(%rbp),%eax
    bfa2:	ba ff ff ff ff       	mov    $0xffffffff,%edx
    bfa7:	89 c1                	mov    %eax,%ecx
    bfa9:	d3 ea                	shr    %cl,%edx
    bfab:	89 d0                	mov    %edx,%eax
    bfad:	39 45 fc             	cmp    %eax,-0x4(%rbp)
    bfb0:	77 0e                	ja     bfc0 <safe_lshift_func_uint32_t_u_u+0x35>
    bfb2:	8b 45 f8             	mov    -0x8(%rbp),%eax
    bfb5:	8b 55 fc             	mov    -0x4(%rbp),%edx
    bfb8:	89 c1                	mov    %eax,%ecx
    bfba:	d3 e2                	shl    %cl,%edx
    bfbc:	89 d0                	mov    %edx,%eax
    bfbe:	eb 03                	jmp    bfc3 <safe_lshift_func_uint32_t_u_u+0x38>
    bfc0:	8b 45 fc             	mov    -0x4(%rbp),%eax
    bfc3:	5d                   	pop    %rbp
    bfc4:	c3                   	retq   

000000000000bfc5 <safe_rshift_func_uint32_t_u_s>:
    bfc5:	f3 0f 1e fa          	endbr64 
    bfc9:	55                   	push   %rbp
    bfca:	48 89 e5             	mov    %rsp,%rbp
    bfcd:	89 7d fc             	mov    %edi,-0x4(%rbp)
    bfd0:	89 75 f8             	mov    %esi,-0x8(%rbp)
    bfd3:	83 7d f8 00          	cmpl   $0x0,-0x8(%rbp)
    bfd7:	78 14                	js     bfed <safe_rshift_func_uint32_t_u_s+0x28>
    bfd9:	83 7d f8 1f          	cmpl   $0x1f,-0x8(%rbp)
    bfdd:	7f 0e                	jg     bfed <safe_rshift_func_uint32_t_u_s+0x28>
    bfdf:	8b 45 f8             	mov    -0x8(%rbp),%eax
    bfe2:	8b 55 fc             	mov    -0x4(%rbp),%edx
    bfe5:	89 c1                	mov    %eax,%ecx
    bfe7:	d3 ea                	shr    %cl,%edx
    bfe9:	89 d0                	mov    %edx,%eax
    bfeb:	eb 03                	jmp    bff0 <safe_rshift_func_uint32_t_u_s+0x2b>
    bfed:	8b 45 fc             	mov    -0x4(%rbp),%eax
    bff0:	5d                   	pop    %rbp
    bff1:	c3                   	retq   

000000000000bff2 <safe_rshift_func_uint32_t_u_u>:
    bff2:	f3 0f 1e fa          	endbr64 
    bff6:	55                   	push   %rbp
    bff7:	48 89 e5             	mov    %rsp,%rbp
    bffa:	89 7d fc             	mov    %edi,-0x4(%rbp)
    bffd:	89 75 f8             	mov    %esi,-0x8(%rbp)
    c000:	83 7d f8 1f          	cmpl   $0x1f,-0x8(%rbp)
    c004:	77 0e                	ja     c014 <safe_rshift_func_uint32_t_u_u+0x22>
    c006:	8b 45 f8             	mov    -0x8(%rbp),%eax
    c009:	8b 55 fc             	mov    -0x4(%rbp),%edx
    c00c:	89 c1                	mov    %eax,%ecx
    c00e:	d3 ea                	shr    %cl,%edx
    c010:	89 d0                	mov    %edx,%eax
    c012:	eb 03                	jmp    c017 <safe_rshift_func_uint32_t_u_u+0x25>
    c014:	8b 45 fc             	mov    -0x4(%rbp),%eax
    c017:	5d                   	pop    %rbp
    c018:	c3                   	retq   

000000000000c019 <safe_unary_minus_func_uint64_t_u>:
    c019:	f3 0f 1e fa          	endbr64 
    c01d:	55                   	push   %rbp
    c01e:	48 89 e5             	mov    %rsp,%rbp
    c021:	48 89 7d f8          	mov    %rdi,-0x8(%rbp)
    c025:	48 8b 45 f8          	mov    -0x8(%rbp),%rax
    c029:	48 f7 d8             	neg    %rax
    c02c:	5d                   	pop    %rbp
    c02d:	c3                   	retq   

000000000000c02e <safe_add_func_uint64_t_u_u>:
    c02e:	f3 0f 1e fa          	endbr64 
    c032:	55                   	push   %rbp
    c033:	48 89 e5             	mov    %rsp,%rbp
    c036:	48 89 7d f8          	mov    %rdi,-0x8(%rbp)
    c03a:	48 89 75 f0          	mov    %rsi,-0x10(%rbp)
    c03e:	48 8b 55 f8          	mov    -0x8(%rbp),%rdx
    c042:	48 8b 45 f0          	mov    -0x10(%rbp),%rax
    c046:	48 01 d0             	add    %rdx,%rax
    c049:	5d                   	pop    %rbp
    c04a:	c3                   	retq   

000000000000c04b <safe_sub_func_uint64_t_u_u>:
    c04b:	f3 0f 1e fa          	endbr64 
    c04f:	55                   	push   %rbp
    c050:	48 89 e5             	mov    %rsp,%rbp
    c053:	48 89 7d f8          	mov    %rdi,-0x8(%rbp)
    c057:	48 89 75 f0          	mov    %rsi,-0x10(%rbp)
    c05b:	48 8b 45 f8          	mov    -0x8(%rbp),%rax
    c05f:	48 2b 45 f0          	sub    -0x10(%rbp),%rax
    c063:	5d                   	pop    %rbp
    c064:	c3                   	retq   

000000000000c065 <safe_mul_func_uint64_t_u_u>:
    c065:	f3 0f 1e fa          	endbr64 
    c069:	55                   	push   %rbp
    c06a:	48 89 e5             	mov    %rsp,%rbp
    c06d:	48 89 7d f8          	mov    %rdi,-0x8(%rbp)
    c071:	48 89 75 f0          	mov    %rsi,-0x10(%rbp)
    c075:	48 8b 45 f8          	mov    -0x8(%rbp),%rax
    c079:	48 0f af 45 f0       	imul   -0x10(%rbp),%rax
    c07e:	5d                   	pop    %rbp
    c07f:	c3                   	retq   

000000000000c080 <safe_mod_func_uint64_t_u_u>:
    c080:	f3 0f 1e fa          	endbr64 
    c084:	55                   	push   %rbp
    c085:	48 89 e5             	mov    %rsp,%rbp
    c088:	48 89 7d f8          	mov    %rdi,-0x8(%rbp)
    c08c:	48 89 75 f0          	mov    %rsi,-0x10(%rbp)
    c090:	48 83 7d f0 00       	cmpq   $0x0,-0x10(%rbp)
    c095:	74 12                	je     c0a9 <safe_mod_func_uint64_t_u_u+0x29>
    c097:	48 8b 45 f8          	mov    -0x8(%rbp),%rax
    c09b:	ba 00 00 00 00       	mov    $0x0,%edx
    c0a0:	48 f7 75 f0          	divq   -0x10(%rbp)
    c0a4:	48 89 d0             	mov    %rdx,%rax
    c0a7:	eb 04                	jmp    c0ad <safe_mod_func_uint64_t_u_u+0x2d>
    c0a9:	48 8b 45 f8          	mov    -0x8(%rbp),%rax
    c0ad:	5d                   	pop    %rbp
    c0ae:	c3                   	retq   

000000000000c0af <safe_div_func_uint64_t_u_u>:
    c0af:	f3 0f 1e fa          	endbr64 
    c0b3:	55                   	push   %rbp
    c0b4:	48 89 e5             	mov    %rsp,%rbp
    c0b7:	48 89 7d f8          	mov    %rdi,-0x8(%rbp)
    c0bb:	48 89 75 f0          	mov    %rsi,-0x10(%rbp)
    c0bf:	48 83 7d f0 00       	cmpq   $0x0,-0x10(%rbp)
    c0c4:	74 0f                	je     c0d5 <safe_div_func_uint64_t_u_u+0x26>
    c0c6:	48 8b 45 f8          	mov    -0x8(%rbp),%rax
    c0ca:	ba 00 00 00 00       	mov    $0x0,%edx
    c0cf:	48 f7 75 f0          	divq   -0x10(%rbp)
    c0d3:	eb 04                	jmp    c0d9 <safe_div_func_uint64_t_u_u+0x2a>
    c0d5:	48 8b 45 f8          	mov    -0x8(%rbp),%rax
    c0d9:	5d                   	pop    %rbp
    c0da:	c3                   	retq   

000000000000c0db <safe_lshift_func_uint64_t_u_s>:
    c0db:	f3 0f 1e fa          	endbr64 
    c0df:	55                   	push   %rbp
    c0e0:	48 89 e5             	mov    %rsp,%rbp
    c0e3:	48 89 7d f8          	mov    %rdi,-0x8(%rbp)
    c0e7:	89 75 f4             	mov    %esi,-0xc(%rbp)
    c0ea:	83 7d f4 00          	cmpl   $0x0,-0xc(%rbp)
    c0ee:	78 2f                	js     c11f <safe_lshift_func_uint64_t_u_s+0x44>
    c0f0:	83 7d f4 1f          	cmpl   $0x1f,-0xc(%rbp)
    c0f4:	7f 29                	jg     c11f <safe_lshift_func_uint64_t_u_s+0x44>
    c0f6:	8b 45 f4             	mov    -0xc(%rbp),%eax
    c0f9:	48 c7 c2 ff ff ff ff 	mov    $0xffffffffffffffff,%rdx
    c100:	89 c1                	mov    %eax,%ecx
    c102:	48 d3 ea             	shr    %cl,%rdx
    c105:	48 89 d0             	mov    %rdx,%rax
    c108:	48 39 45 f8          	cmp    %rax,-0x8(%rbp)
    c10c:	77 11                	ja     c11f <safe_lshift_func_uint64_t_u_s+0x44>
    c10e:	8b 45 f4             	mov    -0xc(%rbp),%eax
    c111:	48 8b 55 f8          	mov    -0x8(%rbp),%rdx
    c115:	89 c1                	mov    %eax,%ecx
    c117:	48 d3 e2             	shl    %cl,%rdx
    c11a:	48 89 d0             	mov    %rdx,%rax
    c11d:	eb 04                	jmp    c123 <safe_lshift_func_uint64_t_u_s+0x48>
    c11f:	48 8b 45 f8          	mov    -0x8(%rbp),%rax
    c123:	5d                   	pop    %rbp
    c124:	c3                   	retq   

000000000000c125 <safe_lshift_func_uint64_t_u_u>:
    c125:	f3 0f 1e fa          	endbr64 
    c129:	55                   	push   %rbp
    c12a:	48 89 e5             	mov    %rsp,%rbp
    c12d:	48 89 7d f8          	mov    %rdi,-0x8(%rbp)
    c131:	89 75 f4             	mov    %esi,-0xc(%rbp)
    c134:	83 7d f4 1f          	cmpl   $0x1f,-0xc(%rbp)
    c138:	77 29                	ja     c163 <safe_lshift_func_uint64_t_u_u+0x3e>
    c13a:	8b 45 f4             	mov    -0xc(%rbp),%eax
    c13d:	48 c7 c2 ff ff ff ff 	mov    $0xffffffffffffffff,%rdx
    c144:	89 c1                	mov    %eax,%ecx
    c146:	48 d3 ea             	shr    %cl,%rdx
    c149:	48 89 d0             	mov    %rdx,%rax
    c14c:	48 39 45 f8          	cmp    %rax,-0x8(%rbp)
    c150:	77 11                	ja     c163 <safe_lshift_func_uint64_t_u_u+0x3e>
    c152:	8b 45 f4             	mov    -0xc(%rbp),%eax
    c155:	48 8b 55 f8          	mov    -0x8(%rbp),%rdx
    c159:	89 c1                	mov    %eax,%ecx
    c15b:	48 d3 e2             	shl    %cl,%rdx
    c15e:	48 89 d0             	mov    %rdx,%rax
    c161:	eb 04                	jmp    c167 <safe_lshift_func_uint64_t_u_u+0x42>
    c163:	48 8b 45 f8          	mov    -0x8(%rbp),%rax
    c167:	5d                   	pop    %rbp
    c168:	c3                   	retq   

000000000000c169 <safe_rshift_func_uint64_t_u_s>:
    c169:	f3 0f 1e fa          	endbr64 
    c16d:	55                   	push   %rbp
    c16e:	48 89 e5             	mov    %rsp,%rbp
    c171:	48 89 7d f8          	mov    %rdi,-0x8(%rbp)
    c175:	89 75 f4             	mov    %esi,-0xc(%rbp)
    c178:	83 7d f4 00          	cmpl   $0x0,-0xc(%rbp)
    c17c:	78 17                	js     c195 <safe_rshift_func_uint64_t_u_s+0x2c>
    c17e:	83 7d f4 1f          	cmpl   $0x1f,-0xc(%rbp)
    c182:	7f 11                	jg     c195 <safe_rshift_func_uint64_t_u_s+0x2c>
    c184:	8b 45 f4             	mov    -0xc(%rbp),%eax
    c187:	48 8b 55 f8          	mov    -0x8(%rbp),%rdx
    c18b:	89 c1                	mov    %eax,%ecx
    c18d:	48 d3 ea             	shr    %cl,%rdx
    c190:	48 89 d0             	mov    %rdx,%rax
    c193:	eb 04                	jmp    c199 <safe_rshift_func_uint64_t_u_s+0x30>
    c195:	48 8b 45 f8          	mov    -0x8(%rbp),%rax
    c199:	5d                   	pop    %rbp
    c19a:	c3                   	retq   

000000000000c19b <safe_rshift_func_uint64_t_u_u>:
    c19b:	f3 0f 1e fa          	endbr64 
    c19f:	55                   	push   %rbp
    c1a0:	48 89 e5             	mov    %rsp,%rbp
    c1a3:	48 89 7d f8          	mov    %rdi,-0x8(%rbp)
    c1a7:	89 75 f4             	mov    %esi,-0xc(%rbp)
    c1aa:	83 7d f4 1f          	cmpl   $0x1f,-0xc(%rbp)
    c1ae:	77 11                	ja     c1c1 <safe_rshift_func_uint64_t_u_u+0x26>
    c1b0:	8b 45 f4             	mov    -0xc(%rbp),%eax
    c1b3:	48 8b 55 f8          	mov    -0x8(%rbp),%rdx
    c1b7:	89 c1                	mov    %eax,%ecx
    c1b9:	48 d3 ea             	shr    %cl,%rdx
    c1bc:	48 89 d0             	mov    %rdx,%rax
    c1bf:	eb 04                	jmp    c1c5 <safe_rshift_func_uint64_t_u_u+0x2a>
    c1c1:	48 8b 45 f8          	mov    -0x8(%rbp),%rax
    c1c5:	5d                   	pop    %rbp
    c1c6:	c3                   	retq   

000000000000c1c7 <safe_add_func_float_f_f>:
    c1c7:	f3 0f 1e fa          	endbr64 
    c1cb:	55                   	push   %rbp
    c1cc:	48 89 e5             	mov    %rsp,%rbp
    c1cf:	f3 0f 11 45 fc       	movss  %xmm0,-0x4(%rbp)
    c1d4:	f3 0f 11 4d f8       	movss  %xmm1,-0x8(%rbp)
    c1d9:	f3 0f 10 4d fc       	movss  -0x4(%rbp),%xmm1
    c1de:	f3 0f 10 05 0e e3 00 	movss  0xe30e(%rip),%xmm0        # 1a4f4 <g_1850+0x144c>
    c1e5:	00 
    c1e6:	f3 0f 59 c8          	mulss  %xmm0,%xmm1
    c1ea:	f3 0f 10 55 f8       	movss  -0x8(%rbp),%xmm2
    c1ef:	f3 0f 10 05 fd e2 00 	movss  0xe2fd(%rip),%xmm0        # 1a4f4 <g_1850+0x144c>
    c1f6:	00 
    c1f7:	f3 0f 59 c2          	mulss  %xmm2,%xmm0
    c1fb:	f3 0f 58 c1          	addss  %xmm1,%xmm0
    c1ff:	f3 0f 10 0d f9 e2 00 	movss  0xe2f9(%rip),%xmm1        # 1a500 <g_1850+0x1458>
    c206:	00 
    c207:	0f 54 c1             	andps  %xmm1,%xmm0
    c20a:	0f 2f 05 ff e2 00 00 	comiss 0xe2ff(%rip),%xmm0        # 1a510 <g_1850+0x1468>
    c211:	76 07                	jbe    c21a <safe_add_func_float_f_f+0x53>
    c213:	f3 0f 10 45 fc       	movss  -0x4(%rbp),%xmm0
    c218:	eb 0a                	jmp    c224 <safe_add_func_float_f_f+0x5d>
    c21a:	f3 0f 10 45 fc       	movss  -0x4(%rbp),%xmm0
    c21f:	f3 0f 58 45 f8       	addss  -0x8(%rbp),%xmm0
    c224:	5d                   	pop    %rbp
    c225:	c3                   	retq   

000000000000c226 <safe_sub_func_float_f_f>:
    c226:	f3 0f 1e fa          	endbr64 
    c22a:	55                   	push   %rbp
    c22b:	48 89 e5             	mov    %rsp,%rbp
    c22e:	f3 0f 11 45 fc       	movss  %xmm0,-0x4(%rbp)
    c233:	f3 0f 11 4d f8       	movss  %xmm1,-0x8(%rbp)
    c238:	f3 0f 10 4d fc       	movss  -0x4(%rbp),%xmm1
    c23d:	f3 0f 10 05 af e2 00 	movss  0xe2af(%rip),%xmm0        # 1a4f4 <g_1850+0x144c>
    c244:	00 
    c245:	f3 0f 59 c1          	mulss  %xmm1,%xmm0
    c249:	f3 0f 10 55 f8       	movss  -0x8(%rbp),%xmm2
    c24e:	f3 0f 10 0d 9e e2 00 	movss  0xe29e(%rip),%xmm1        # 1a4f4 <g_1850+0x144c>
    c255:	00 
    c256:	f3 0f 59 ca          	mulss  %xmm2,%xmm1
    c25a:	f3 0f 5c c1          	subss  %xmm1,%xmm0
    c25e:	f3 0f 10 0d 9a e2 00 	movss  0xe29a(%rip),%xmm1        # 1a500 <g_1850+0x1458>
    c265:	00 
    c266:	0f 54 c1             	andps  %xmm1,%xmm0
    c269:	0f 2f 05 a0 e2 00 00 	comiss 0xe2a0(%rip),%xmm0        # 1a510 <g_1850+0x1468>
    c270:	76 07                	jbe    c279 <safe_sub_func_float_f_f+0x53>
    c272:	f3 0f 10 45 fc       	movss  -0x4(%rbp),%xmm0
    c277:	eb 0a                	jmp    c283 <safe_sub_func_float_f_f+0x5d>
    c279:	f3 0f 10 45 fc       	movss  -0x4(%rbp),%xmm0
    c27e:	f3 0f 5c 45 f8       	subss  -0x8(%rbp),%xmm0
    c283:	5d                   	pop    %rbp
    c284:	c3                   	retq   

000000000000c285 <safe_mul_func_float_f_f>:
    c285:	f3 0f 1e fa          	endbr64 
    c289:	55                   	push   %rbp
    c28a:	48 89 e5             	mov    %rsp,%rbp
    c28d:	f3 0f 11 45 fc       	movss  %xmm0,-0x4(%rbp)
    c292:	f3 0f 11 4d f8       	movss  %xmm1,-0x8(%rbp)
    c297:	f3 0f 10 4d fc       	movss  -0x4(%rbp),%xmm1
    c29c:	f3 0f 10 05 70 e2 00 	movss  0xe270(%rip),%xmm0        # 1a514 <g_1850+0x146c>
    c2a3:	00 
    c2a4:	f3 0f 59 c8          	mulss  %xmm0,%xmm1
    c2a8:	f3 0f 10 55 f8       	movss  -0x8(%rbp),%xmm2
    c2ad:	f3 0f 10 05 63 e2 00 	movss  0xe263(%rip),%xmm0        # 1a518 <g_1850+0x1470>
    c2b4:	00 
    c2b5:	f3 0f 59 c2          	mulss  %xmm2,%xmm0
    c2b9:	f3 0f 59 c1          	mulss  %xmm1,%xmm0
    c2bd:	f3 0f 10 0d 3b e2 00 	movss  0xe23b(%rip),%xmm1        # 1a500 <g_1850+0x1458>
    c2c4:	00 
    c2c5:	0f 54 c1             	andps  %xmm1,%xmm0
    c2c8:	0f 2f 05 4d e2 00 00 	comiss 0xe24d(%rip),%xmm0        # 1a51c <g_1850+0x1474>
    c2cf:	76 07                	jbe    c2d8 <safe_mul_func_float_f_f+0x53>
    c2d1:	f3 0f 10 45 fc       	movss  -0x4(%rbp),%xmm0
    c2d6:	eb 0a                	jmp    c2e2 <safe_mul_func_float_f_f+0x5d>
    c2d8:	f3 0f 10 45 fc       	movss  -0x4(%rbp),%xmm0
    c2dd:	f3 0f 59 45 f8       	mulss  -0x8(%rbp),%xmm0
    c2e2:	5d                   	pop    %rbp
    c2e3:	c3                   	retq   

000000000000c2e4 <safe_div_func_float_f_f>:
    c2e4:	f3 0f 1e fa          	endbr64 
    c2e8:	55                   	push   %rbp
    c2e9:	48 89 e5             	mov    %rsp,%rbp
    c2ec:	f3 0f 11 45 fc       	movss  %xmm0,-0x4(%rbp)
    c2f1:	f3 0f 11 4d f8       	movss  %xmm1,-0x8(%rbp)
    c2f6:	f3 0f 10 45 f8       	movss  -0x8(%rbp),%xmm0
    c2fb:	f3 0f 10 0d fd e1 00 	movss  0xe1fd(%rip),%xmm1        # 1a500 <g_1850+0x1458>
    c302:	00 
    c303:	0f 54 c8             	andps  %xmm0,%xmm1
    c306:	f3 0f 10 05 12 e2 00 	movss  0xe212(%rip),%xmm0        # 1a520 <g_1850+0x1478>
    c30d:	00 
    c30e:	0f 2f c1             	comiss %xmm1,%xmm0
    c311:	0f 97 c0             	seta   %al
    c314:	83 f0 01             	xor    $0x1,%eax
    c317:	84 c0                	test   %al,%al
    c319:	75 56                	jne    c371 <safe_div_func_float_f_f+0x8d>
    c31b:	66 0f ef c0          	pxor   %xmm0,%xmm0
    c31f:	0f 2e 45 f8          	ucomiss -0x8(%rbp),%xmm0
    c323:	7a 0a                	jp     c32f <safe_div_func_float_f_f+0x4b>
    c325:	66 0f ef c0          	pxor   %xmm0,%xmm0
    c329:	0f 2e 45 f8          	ucomiss -0x8(%rbp),%xmm0
    c32d:	74 4e                	je     c37d <safe_div_func_float_f_f+0x99>
    c32f:	f3 0f 10 4d fc       	movss  -0x4(%rbp),%xmm1
    c334:	f3 0f 10 05 e8 e1 00 	movss  0xe1e8(%rip),%xmm0        # 1a524 <g_1850+0x147c>
    c33b:	00 
    c33c:	f3 0f 59 c1          	mulss  %xmm1,%xmm0
    c340:	f3 0f 10 55 f8       	movss  -0x8(%rbp),%xmm2
    c345:	f3 0f 10 0d db e1 00 	movss  0xe1db(%rip),%xmm1        # 1a528 <g_1850+0x1480>
    c34c:	00 
    c34d:	f3 0f 59 ca          	mulss  %xmm2,%xmm1
    c351:	f3 0f 5e c1          	divss  %xmm1,%xmm0
    c355:	f3 0f 10 0d a3 e1 00 	movss  0xe1a3(%rip),%xmm1        # 1a500 <g_1850+0x1458>
    c35c:	00 
    c35d:	0f 54 c1             	andps  %xmm1,%xmm0
    c360:	0f 2f 05 c5 e1 00 00 	comiss 0xe1c5(%rip),%xmm0        # 1a52c <g_1850+0x1484>
    c367:	0f 97 c0             	seta   %al
    c36a:	83 f0 01             	xor    $0x1,%eax
    c36d:	84 c0                	test   %al,%al
    c36f:	74 0c                	je     c37d <safe_div_func_float_f_f+0x99>
    c371:	f3 0f 10 45 fc       	movss  -0x4(%rbp),%xmm0
    c376:	f3 0f 5e 45 f8       	divss  -0x8(%rbp),%xmm0
    c37b:	eb 05                	jmp    c382 <safe_div_func_float_f_f+0x9e>
    c37d:	f3 0f 10 45 fc       	movss  -0x4(%rbp),%xmm0
    c382:	5d                   	pop    %rbp
    c383:	c3                   	retq   

000000000000c384 <safe_add_func_double_f_f>:
    c384:	f3 0f 1e fa          	endbr64 
    c388:	55                   	push   %rbp
    c389:	48 89 e5             	mov    %rsp,%rbp
    c38c:	f2 0f 11 45 f8       	movsd  %xmm0,-0x8(%rbp)
    c391:	f2 0f 11 4d f0       	movsd  %xmm1,-0x10(%rbp)
    c396:	f2 0f 10 4d f8       	movsd  -0x8(%rbp),%xmm1
    c39b:	f2 0f 10 05 8d e1 00 	movsd  0xe18d(%rip),%xmm0        # 1a530 <g_1850+0x1488>
    c3a2:	00 
    c3a3:	f2 0f 59 c8          	mulsd  %xmm0,%xmm1
    c3a7:	f2 0f 10 55 f0       	movsd  -0x10(%rbp),%xmm2
    c3ac:	f2 0f 10 05 7c e1 00 	movsd  0xe17c(%rip),%xmm0        # 1a530 <g_1850+0x1488>
    c3b3:	00 
    c3b4:	f2 0f 59 c2          	mulsd  %xmm2,%xmm0
    c3b8:	f2 0f 58 c1          	addsd  %xmm1,%xmm0
    c3bc:	f3 0f 7e 0d 7c e1 00 	movq   0xe17c(%rip),%xmm1        # 1a540 <g_1850+0x1498>
    c3c3:	00 
    c3c4:	66 0f 54 c1          	andpd  %xmm1,%xmm0
    c3c8:	66 0f 2f 05 80 e1 00 	comisd 0xe180(%rip),%xmm0        # 1a550 <g_1850+0x14a8>
    c3cf:	00 
    c3d0:	76 07                	jbe    c3d9 <safe_add_func_double_f_f+0x55>
    c3d2:	f2 0f 10 45 f8       	movsd  -0x8(%rbp),%xmm0
    c3d7:	eb 0a                	jmp    c3e3 <safe_add_func_double_f_f+0x5f>
    c3d9:	f2 0f 10 45 f8       	movsd  -0x8(%rbp),%xmm0
    c3de:	f2 0f 58 45 f0       	addsd  -0x10(%rbp),%xmm0
    c3e3:	5d                   	pop    %rbp
    c3e4:	c3                   	retq   

000000000000c3e5 <safe_sub_func_double_f_f>:
    c3e5:	f3 0f 1e fa          	endbr64 
    c3e9:	55                   	push   %rbp
    c3ea:	48 89 e5             	mov    %rsp,%rbp
    c3ed:	f2 0f 11 45 f8       	movsd  %xmm0,-0x8(%rbp)
    c3f2:	f2 0f 11 4d f0       	movsd  %xmm1,-0x10(%rbp)
    c3f7:	f2 0f 10 4d f8       	movsd  -0x8(%rbp),%xmm1
    c3fc:	f2 0f 10 05 2c e1 00 	movsd  0xe12c(%rip),%xmm0        # 1a530 <g_1850+0x1488>
    c403:	00 
    c404:	f2 0f 59 c1          	mulsd  %xmm1,%xmm0
    c408:	f2 0f 10 55 f0       	movsd  -0x10(%rbp),%xmm2
    c40d:	f2 0f 10 0d 1b e1 00 	movsd  0xe11b(%rip),%xmm1        # 1a530 <g_1850+0x1488>
    c414:	00 
    c415:	f2 0f 59 ca          	mulsd  %xmm2,%xmm1
    c419:	f2 0f 5c c1          	subsd  %xmm1,%xmm0
    c41d:	f3 0f 7e 0d 1b e1 00 	movq   0xe11b(%rip),%xmm1        # 1a540 <g_1850+0x1498>
    c424:	00 
    c425:	66 0f 54 c1          	andpd  %xmm1,%xmm0
    c429:	66 0f 2f 05 1f e1 00 	comisd 0xe11f(%rip),%xmm0        # 1a550 <g_1850+0x14a8>
    c430:	00 
    c431:	76 07                	jbe    c43a <safe_sub_func_double_f_f+0x55>
    c433:	f2 0f 10 45 f8       	movsd  -0x8(%rbp),%xmm0
    c438:	eb 0a                	jmp    c444 <safe_sub_func_double_f_f+0x5f>
    c43a:	f2 0f 10 45 f8       	movsd  -0x8(%rbp),%xmm0
    c43f:	f2 0f 5c 45 f0       	subsd  -0x10(%rbp),%xmm0
    c444:	5d                   	pop    %rbp
    c445:	c3                   	retq   

000000000000c446 <safe_mul_func_double_f_f>:
    c446:	f3 0f 1e fa          	endbr64 
    c44a:	55                   	push   %rbp
    c44b:	48 89 e5             	mov    %rsp,%rbp
    c44e:	f2 0f 11 45 f8       	movsd  %xmm0,-0x8(%rbp)
    c453:	f2 0f 11 4d f0       	movsd  %xmm1,-0x10(%rbp)
    c458:	f2 0f 10 4d f8       	movsd  -0x8(%rbp),%xmm1
    c45d:	f2 0f 10 05 f3 e0 00 	movsd  0xe0f3(%rip),%xmm0        # 1a558 <g_1850+0x14b0>
    c464:	00 
    c465:	f2 0f 59 c8          	mulsd  %xmm0,%xmm1
    c469:	f2 0f 10 55 f0       	movsd  -0x10(%rbp),%xmm2
    c46e:	f2 0f 10 05 ea e0 00 	movsd  0xe0ea(%rip),%xmm0        # 1a560 <g_1850+0x14b8>
    c475:	00 
    c476:	f2 0f 59 c2          	mulsd  %xmm2,%xmm0
    c47a:	f2 0f 59 c1          	mulsd  %xmm1,%xmm0
    c47e:	f3 0f 7e 0d ba e0 00 	movq   0xe0ba(%rip),%xmm1        # 1a540 <g_1850+0x1498>
    c485:	00 
    c486:	66 0f 54 c1          	andpd  %xmm1,%xmm0
    c48a:	66 0f 2f 05 d6 e0 00 	comisd 0xe0d6(%rip),%xmm0        # 1a568 <g_1850+0x14c0>
    c491:	00 
    c492:	76 07                	jbe    c49b <safe_mul_func_double_f_f+0x55>
    c494:	f2 0f 10 45 f8       	movsd  -0x8(%rbp),%xmm0
    c499:	eb 0a                	jmp    c4a5 <safe_mul_func_double_f_f+0x5f>
    c49b:	f2 0f 10 45 f8       	movsd  -0x8(%rbp),%xmm0
    c4a0:	f2 0f 59 45 f0       	mulsd  -0x10(%rbp),%xmm0
    c4a5:	5d                   	pop    %rbp
    c4a6:	c3                   	retq   

000000000000c4a7 <safe_div_func_double_f_f>:
    c4a7:	f3 0f 1e fa          	endbr64 
    c4ab:	55                   	push   %rbp
    c4ac:	48 89 e5             	mov    %rsp,%rbp
    c4af:	f2 0f 11 45 f8       	movsd  %xmm0,-0x8(%rbp)
    c4b4:	f2 0f 11 4d f0       	movsd  %xmm1,-0x10(%rbp)
    c4b9:	f2 0f 10 45 f0       	movsd  -0x10(%rbp),%xmm0
    c4be:	f3 0f 7e 0d 7a e0 00 	movq   0xe07a(%rip),%xmm1        # 1a540 <g_1850+0x1498>
    c4c5:	00 
    c4c6:	66 0f 54 c8          	andpd  %xmm0,%xmm1
    c4ca:	f2 0f 10 05 9e e0 00 	movsd  0xe09e(%rip),%xmm0        # 1a570 <g_1850+0x14c8>
    c4d1:	00 
    c4d2:	66 0f 2f c1          	comisd %xmm1,%xmm0
    c4d6:	0f 97 c0             	seta   %al
    c4d9:	83 f0 01             	xor    $0x1,%eax
    c4dc:	84 c0                	test   %al,%al
    c4de:	75 5a                	jne    c53a <safe_div_func_double_f_f+0x93>
    c4e0:	66 0f ef c0          	pxor   %xmm0,%xmm0
    c4e4:	66 0f 2e 45 f0       	ucomisd -0x10(%rbp),%xmm0
    c4e9:	7a 0b                	jp     c4f6 <safe_div_func_double_f_f+0x4f>
    c4eb:	66 0f ef c0          	pxor   %xmm0,%xmm0
    c4ef:	66 0f 2e 45 f0       	ucomisd -0x10(%rbp),%xmm0
    c4f4:	74 50                	je     c546 <safe_div_func_double_f_f+0x9f>
    c4f6:	f2 0f 10 4d f8       	movsd  -0x8(%rbp),%xmm1
    c4fb:	f2 0f 10 05 75 e0 00 	movsd  0xe075(%rip),%xmm0        # 1a578 <g_1850+0x14d0>
    c502:	00 
    c503:	f2 0f 59 c1          	mulsd  %xmm1,%xmm0
    c507:	f2 0f 10 55 f0       	movsd  -0x10(%rbp),%xmm2
    c50c:	f2 0f 10 0d 6c e0 00 	movsd  0xe06c(%rip),%xmm1        # 1a580 <g_1850+0x14d8>
    c513:	00 
    c514:	f2 0f 59 ca          	mulsd  %xmm2,%xmm1
    c518:	f2 0f 5e c1          	divsd  %xmm1,%xmm0
    c51c:	f3 0f 7e 0d 1c e0 00 	movq   0xe01c(%rip),%xmm1        # 1a540 <g_1850+0x1498>
    c523:	00 
    c524:	66 0f 54 c1          	andpd  %xmm1,%xmm0
    c528:	66 0f 2f 05 58 e0 00 	comisd 0xe058(%rip),%xmm0        # 1a588 <g_1850+0x14e0>
    c52f:	00 
    c530:	0f 97 c0             	seta   %al
    c533:	83 f0 01             	xor    $0x1,%eax
    c536:	84 c0                	test   %al,%al
    c538:	74 0c                	je     c546 <safe_div_func_double_f_f+0x9f>
    c53a:	f2 0f 10 45 f8       	movsd  -0x8(%rbp),%xmm0
    c53f:	f2 0f 5e 45 f0       	divsd  -0x10(%rbp),%xmm0
    c544:	eb 05                	jmp    c54b <safe_div_func_double_f_f+0xa4>
    c546:	f2 0f 10 45 f8       	movsd  -0x8(%rbp),%xmm0
    c54b:	5d                   	pop    %rbp
    c54c:	c3                   	retq   

000000000000c54d <safe_convert_func_float_to_int32_t>:
    c54d:	f3 0f 1e fa          	endbr64 
    c551:	55                   	push   %rbp
    c552:	48 89 e5             	mov    %rsp,%rbp
    c555:	f3 0f 11 45 fc       	movss  %xmm0,-0x4(%rbp)
    c55a:	f3 0f 10 05 2e e0 00 	movss  0xe02e(%rip),%xmm0        # 1a590 <g_1850+0x14e8>
    c561:	00 
    c562:	0f 2f 45 fc          	comiss -0x4(%rbp),%xmm0
    c566:	0f 93 c0             	setae  %al
    c569:	83 f0 01             	xor    $0x1,%eax
    c56c:	84 c0                	test   %al,%al
    c56e:	74 21                	je     c591 <safe_convert_func_float_to_int32_t+0x44>
    c570:	f3 0f 10 45 fc       	movss  -0x4(%rbp),%xmm0
    c575:	0f 2f 05 18 e0 00 00 	comiss 0xe018(%rip),%xmm0        # 1a594 <g_1850+0x14ec>
    c57c:	0f 93 c0             	setae  %al
    c57f:	83 f0 01             	xor    $0x1,%eax
    c582:	84 c0                	test   %al,%al
    c584:	74 0b                	je     c591 <safe_convert_func_float_to_int32_t+0x44>
    c586:	f3 0f 10 45 fc       	movss  -0x4(%rbp),%xmm0
    c58b:	f3 0f 2c c0          	cvttss2si %xmm0,%eax
    c58f:	eb 05                	jmp    c596 <safe_convert_func_float_to_int32_t+0x49>
    c591:	b8 ff ff ff 7f       	mov    $0x7fffffff,%eax
    c596:	5d                   	pop    %rbp
    c597:	c3                   	retq   

000000000000c598 <crc32_gentab>:
    c598:	f3 0f 1e fa          	endbr64 
    c59c:	55                   	push   %rbp
    c59d:	48 89 e5             	mov    %rsp,%rbp
    c5a0:	c7 45 fc 20 83 b8 ed 	movl   $0xedb88320,-0x4(%rbp)
    c5a7:	c7 45 f4 00 00 00 00 	movl   $0x0,-0xc(%rbp)
    c5ae:	eb 51                	jmp    c601 <crc32_gentab+0x69>
    c5b0:	8b 45 f4             	mov    -0xc(%rbp),%eax
    c5b3:	89 45 f0             	mov    %eax,-0x10(%rbp)
    c5b6:	c7 45 f8 08 00 00 00 	movl   $0x8,-0x8(%rbp)
    c5bd:	eb 1e                	jmp    c5dd <crc32_gentab+0x45>
    c5bf:	8b 45 f0             	mov    -0x10(%rbp),%eax
    c5c2:	83 e0 01             	and    $0x1,%eax
    c5c5:	85 c0                	test   %eax,%eax
    c5c7:	74 0d                	je     c5d6 <crc32_gentab+0x3e>
    c5c9:	8b 45 f0             	mov    -0x10(%rbp),%eax
    c5cc:	d1 e8                	shr    %eax
    c5ce:	33 45 fc             	xor    -0x4(%rbp),%eax
    c5d1:	89 45 f0             	mov    %eax,-0x10(%rbp)
    c5d4:	eb 03                	jmp    c5d9 <crc32_gentab+0x41>
    c5d6:	d1 6d f0             	shrl   -0x10(%rbp)
    c5d9:	83 6d f8 01          	subl   $0x1,-0x8(%rbp)
    c5dd:	83 7d f8 00          	cmpl   $0x0,-0x8(%rbp)
    c5e1:	7f dc                	jg     c5bf <crc32_gentab+0x27>
    c5e3:	8b 45 f4             	mov    -0xc(%rbp),%eax
    c5e6:	48 98                	cltq   
    c5e8:	48 8d 0c 85 00 00 00 	lea    0x0(,%rax,4),%rcx
    c5ef:	00 
    c5f0:	48 8d 15 c9 46 01 00 	lea    0x146c9(%rip),%rdx        # 20cc0 <crc32_tab>
    c5f7:	8b 45 f0             	mov    -0x10(%rbp),%eax
    c5fa:	89 04 11             	mov    %eax,(%rcx,%rdx,1)
    c5fd:	83 45 f4 01          	addl   $0x1,-0xc(%rbp)
    c601:	81 7d f4 ff 00 00 00 	cmpl   $0xff,-0xc(%rbp)
    c608:	7e a6                	jle    c5b0 <crc32_gentab+0x18>
    c60a:	90                   	nop
    c60b:	90                   	nop
    c60c:	5d                   	pop    %rbp
    c60d:	c3                   	retq   

000000000000c60e <crc32_byte>:
    c60e:	f3 0f 1e fa          	endbr64 
    c612:	55                   	push   %rbp
    c613:	48 89 e5             	mov    %rsp,%rbp
    c616:	89 f8                	mov    %edi,%eax
    c618:	88 45 fc             	mov    %al,-0x4(%rbp)
    c61b:	8b 05 ff 09 01 00    	mov    0x109ff(%rip),%eax        # 1d020 <crc32_context>
    c621:	c1 e8 08             	shr    $0x8,%eax
    c624:	89 c1                	mov    %eax,%ecx
    c626:	0f b6 55 fc          	movzbl -0x4(%rbp),%edx
    c62a:	8b 05 f0 09 01 00    	mov    0x109f0(%rip),%eax        # 1d020 <crc32_context>
    c630:	31 d0                	xor    %edx,%eax
    c632:	0f b6 c0             	movzbl %al,%eax
    c635:	89 c0                	mov    %eax,%eax
    c637:	48 8d 14 85 00 00 00 	lea    0x0(,%rax,4),%rdx
    c63e:	00 
    c63f:	48 8d 05 7a 46 01 00 	lea    0x1467a(%rip),%rax        # 20cc0 <crc32_tab>
    c646:	8b 04 02             	mov    (%rdx,%rax,1),%eax
    c649:	31 c8                	xor    %ecx,%eax
    c64b:	89 05 cf 09 01 00    	mov    %eax,0x109cf(%rip)        # 1d020 <crc32_context>
    c651:	90                   	nop
    c652:	5d                   	pop    %rbp
    c653:	c3                   	retq   

000000000000c654 <crc32_8bytes>:
    c654:	f3 0f 1e fa          	endbr64 
    c658:	55                   	push   %rbp
    c659:	48 89 e5             	mov    %rsp,%rbp
    c65c:	48 83 ec 08          	sub    $0x8,%rsp
    c660:	48 89 7d f8          	mov    %rdi,-0x8(%rbp)
    c664:	48 8b 45 f8          	mov    -0x8(%rbp),%rax
    c668:	0f b6 c0             	movzbl %al,%eax
    c66b:	89 c7                	mov    %eax,%edi
    c66d:	e8 9c ff ff ff       	callq  c60e <crc32_byte>
    c672:	48 8b 45 f8          	mov    -0x8(%rbp),%rax
    c676:	48 c1 e8 08          	shr    $0x8,%rax
    c67a:	0f b6 c0             	movzbl %al,%eax
    c67d:	89 c7                	mov    %eax,%edi
    c67f:	e8 8a ff ff ff       	callq  c60e <crc32_byte>
    c684:	48 8b 45 f8          	mov    -0x8(%rbp),%rax
    c688:	48 c1 e8 10          	shr    $0x10,%rax
    c68c:	0f b6 c0             	movzbl %al,%eax
    c68f:	89 c7                	mov    %eax,%edi
    c691:	e8 78 ff ff ff       	callq  c60e <crc32_byte>
    c696:	48 8b 45 f8          	mov    -0x8(%rbp),%rax
    c69a:	48 c1 e8 18          	shr    $0x18,%rax
    c69e:	0f b6 c0             	movzbl %al,%eax
    c6a1:	89 c7                	mov    %eax,%edi
    c6a3:	e8 66 ff ff ff       	callq  c60e <crc32_byte>
    c6a8:	48 8b 45 f8          	mov    -0x8(%rbp),%rax
    c6ac:	48 c1 e8 20          	shr    $0x20,%rax
    c6b0:	0f b6 c0             	movzbl %al,%eax
    c6b3:	89 c7                	mov    %eax,%edi
    c6b5:	e8 54 ff ff ff       	callq  c60e <crc32_byte>
    c6ba:	48 8b 45 f8          	mov    -0x8(%rbp),%rax
    c6be:	48 c1 e8 28          	shr    $0x28,%rax
    c6c2:	0f b6 c0             	movzbl %al,%eax
    c6c5:	89 c7                	mov    %eax,%edi
    c6c7:	e8 42 ff ff ff       	callq  c60e <crc32_byte>
    c6cc:	48 8b 45 f8          	mov    -0x8(%rbp),%rax
    c6d0:	48 c1 e8 30          	shr    $0x30,%rax
    c6d4:	0f b6 c0             	movzbl %al,%eax
    c6d7:	89 c7                	mov    %eax,%edi
    c6d9:	e8 30 ff ff ff       	callq  c60e <crc32_byte>
    c6de:	48 8b 45 f8          	mov    -0x8(%rbp),%rax
    c6e2:	48 c1 e8 38          	shr    $0x38,%rax
    c6e6:	0f b6 c0             	movzbl %al,%eax
    c6e9:	89 c7                	mov    %eax,%edi
    c6eb:	e8 1e ff ff ff       	callq  c60e <crc32_byte>
    c6f0:	90                   	nop
    c6f1:	c9                   	leaveq 
    c6f2:	c3                   	retq   

000000000000c6f3 <transparent_crc>:
    c6f3:	f3 0f 1e fa          	endbr64 
    c6f7:	55                   	push   %rbp
    c6f8:	48 89 e5             	mov    %rsp,%rbp
    c6fb:	48 83 ec 20          	sub    $0x20,%rsp
    c6ff:	48 89 7d f8          	mov    %rdi,-0x8(%rbp)
    c703:	48 89 75 f0          	mov    %rsi,-0x10(%rbp)
    c707:	89 55 ec             	mov    %edx,-0x14(%rbp)
    c70a:	48 8b 45 f8          	mov    -0x8(%rbp),%rax
    c70e:	48 89 c7             	mov    %rax,%rdi
    c711:	e8 3e ff ff ff       	callq  c654 <crc32_8bytes>
    c716:	83 7d ec 00          	cmpl   $0x0,-0x14(%rbp)
    c71a:	74 22                	je     c73e <transparent_crc+0x4b>
    c71c:	8b 05 fe 08 01 00    	mov    0x108fe(%rip),%eax        # 1d020 <crc32_context>
    c722:	f7 d0                	not    %eax
    c724:	89 c2                	mov    %eax,%edx
    c726:	48 8b 45 f0          	mov    -0x10(%rbp),%rax
    c72a:	48 89 c6             	mov    %rax,%rsi
    c72d:	48 8d 3d fc c8 00 00 	lea    0xc8fc(%rip),%rdi        # 19030 <_IO_stdin_used+0x30>
    c734:	b8 00 00 00 00       	mov    $0x0,%eax
    c739:	e8 42 e9 ff ff       	callq  b080 <printf@plt>
    c73e:	90                   	nop
    c73f:	c9                   	leaveq 
    c740:	c3                   	retq   

000000000000c741 <transparent_crc_bytes>:
    c741:	f3 0f 1e fa          	endbr64 
    c745:	55                   	push   %rbp
    c746:	48 89 e5             	mov    %rsp,%rbp
    c749:	48 83 ec 30          	sub    $0x30,%rsp
    c74d:	48 89 7d e8          	mov    %rdi,-0x18(%rbp)
    c751:	89 75 e4             	mov    %esi,-0x1c(%rbp)
    c754:	48 89 55 d8          	mov    %rdx,-0x28(%rbp)
    c758:	89 4d e0             	mov    %ecx,-0x20(%rbp)
    c75b:	c7 45 fc 00 00 00 00 	movl   $0x0,-0x4(%rbp)
    c762:	eb 1e                	jmp    c782 <transparent_crc_bytes+0x41>
    c764:	8b 45 fc             	mov    -0x4(%rbp),%eax
    c767:	48 63 d0             	movslq %eax,%rdx
    c76a:	48 8b 45 e8          	mov    -0x18(%rbp),%rax
    c76e:	48 01 d0             	add    %rdx,%rax
    c771:	0f b6 00             	movzbl (%rax),%eax
    c774:	0f b6 c0             	movzbl %al,%eax
    c777:	89 c7                	mov    %eax,%edi
    c779:	e8 90 fe ff ff       	callq  c60e <crc32_byte>
    c77e:	83 45 fc 01          	addl   $0x1,-0x4(%rbp)
    c782:	8b 45 fc             	mov    -0x4(%rbp),%eax
    c785:	3b 45 e4             	cmp    -0x1c(%rbp),%eax
    c788:	7c da                	jl     c764 <transparent_crc_bytes+0x23>
    c78a:	83 7d e0 00          	cmpl   $0x0,-0x20(%rbp)
    c78e:	74 22                	je     c7b2 <transparent_crc_bytes+0x71>
    c790:	8b 05 8a 08 01 00    	mov    0x1088a(%rip),%eax        # 1d020 <crc32_context>
    c796:	f7 d0                	not    %eax
    c798:	89 c2                	mov    %eax,%edx
    c79a:	48 8b 45 d8          	mov    -0x28(%rbp),%rax
    c79e:	48 89 c6             	mov    %rax,%rsi
    c7a1:	48 8d 3d 88 c8 00 00 	lea    0xc888(%rip),%rdi        # 19030 <_IO_stdin_used+0x30>
    c7a8:	b8 00 00 00 00       	mov    $0x0,%eax
    c7ad:	e8 ce e8 ff ff       	callq  b080 <printf@plt>
    c7b2:	90                   	nop
    c7b3:	c9                   	leaveq 
    c7b4:	c3                   	retq   

000000000000c7b5 <func_1>:
    c7b5:	f3 0f 1e fa          	endbr64 
    c7b9:	55                   	push   %rbp
    c7ba:	48 89 e5             	mov    %rsp,%rbp
    c7bd:	48 81 ec e0 03 00 00 	sub    $0x3e0,%rsp
    c7c4:	64 48 8b 04 25 28 00 	mov    %fs:0x28,%rax
    c7cb:	00 00 
    c7cd:	48 89 45 f8          	mov    %rax,-0x8(%rbp)
    c7d1:	31 c0                	xor    %eax,%eax
    c7d3:	c6 85 27 fc ff ff 04 	movb   $0x4,-0x3d9(%rbp)
    c7da:	48 c7 85 48 fc ff ff 	movq   $0x0,-0x3b8(%rbp)
    c7e1:	00 00 00 00 
    c7e5:	48 8d 05 3c 08 01 00 	lea    0x1083c(%rip),%rax        # 1d028 <g_32>
    c7ec:	48 89 85 50 fc ff ff 	mov    %rax,-0x3b0(%rbp)
    c7f3:	48 8d 05 3a 08 01 00 	lea    0x1083a(%rip),%rax        # 1d034 <g_38>
    c7fa:	48 89 85 58 fc ff ff 	mov    %rax,-0x3a8(%rbp)
    c801:	48 c7 85 60 fc ff ff 	movq   $0x0,-0x3a0(%rbp)
    c808:	00 00 00 00 
    c80c:	0f b7 85 84 fc ff ff 	movzwl -0x37c(%rbp),%eax
    c813:	66 25 00 c0          	and    $0xc000,%ax
    c817:	83 c8 33             	or     $0x33,%eax
    c81a:	66 89 85 84 fc ff ff 	mov    %ax,-0x37c(%rbp)
    c821:	66 c7 85 86 fc ff ff 	movw   $0x388e,-0x37a(%rbp)
    c828:	8e 38 
    c82a:	0f b6 85 88 fc ff ff 	movzbl -0x378(%rbp),%eax
    c831:	83 e0 f8             	and    $0xfffffff8,%eax
    c834:	88 85 88 fc ff ff    	mov    %al,-0x378(%rbp)
    c83a:	8b 85 88 fc ff ff    	mov    -0x378(%rbp),%eax
    c840:	25 07 00 00 f0       	and    $0xf0000007,%eax
    c845:	0d 88 05 00 00       	or     $0x588,%eax
    c84a:	89 85 88 fc ff ff    	mov    %eax,-0x378(%rbp)
    c850:	c7 85 8c fc ff ff 80 	movl   $0xb7749a80,-0x374(%rbp)
    c857:	9a 74 b7 
    c85a:	0f b7 85 90 fc ff ff 	movzwl -0x370(%rbp),%eax
    c861:	66 25 00 f8          	and    $0xf800,%ax
    c865:	83 c8 27             	or     $0x27,%eax
    c868:	66 89 85 90 fc ff ff 	mov    %ax,-0x370(%rbp)
    c86f:	0f b6 85 91 fc ff ff 	movzbl -0x36f(%rbp),%eax
    c876:	83 e0 87             	and    $0xffffff87,%eax
    c879:	83 c8 70             	or     $0x70,%eax
    c87c:	88 85 91 fc ff ff    	mov    %al,-0x36f(%rbp)
    c882:	48 8d 05 57 09 01 00 	lea    0x10957(%rip),%rax        # 1d1e0 <g_1862>
    c889:	48 89 85 30 fc ff ff 	mov    %rax,-0x3d0(%rbp)
    c890:	48 b8 c3 fd bc ff ec 	movabs $0xb37f0becffbcfdc3,%rax
    c897:	0b 7f b3 
    c89a:	48 89 85 68 fc ff ff 	mov    %rax,-0x398(%rbp)
    c8a1:	48 8d 05 90 43 01 00 	lea    0x14390(%rip),%rax        # 20c38 <g_1545>
    c8a8:	48 89 85 38 fc ff ff 	mov    %rax,-0x3c8(%rbp)
    c8af:	48 8d 85 38 fc ff ff 	lea    -0x3c8(%rbp),%rax
    c8b6:	48 89 85 70 fc ff ff 	mov    %rax,-0x390(%rbp)
    c8bd:	48 8d 85 90 fd ff ff 	lea    -0x270(%rbp),%rax
    c8c4:	48 8d 15 f5 c7 00 00 	lea    0xc7f5(%rip),%rdx        # 190c0 <g_1850+0x18>
    c8cb:	b9 24 00 00 00       	mov    $0x24,%ecx
    c8d0:	48 89 c7             	mov    %rax,%rdi
    c8d3:	48 89 d6             	mov    %rdx,%rsi
    c8d6:	f3 48 a5             	rep movsq %ds:(%rsi),%es:(%rdi)
    c8d9:	c7 85 a0 fc ff ff 06 	movl   $0x6,-0x360(%rbp)
    c8e0:	00 00 00 
    c8e3:	c7 85 a4 fc ff ff 08 	movl   $0x8,-0x35c(%rbp)
    c8ea:	00 00 00 
    c8ed:	c7 85 a8 fc ff ff 76 	movl   $0xe59e0a76,-0x358(%rbp)
    c8f4:	0a 9e e5 
    c8f7:	c7 85 ac fc ff ff 00 	movl   $0x0,-0x354(%rbp)
    c8fe:	00 00 00 
    c901:	c7 85 b0 fc ff ff 76 	movl   $0xe59e0a76,-0x350(%rbp)
    c908:	0a 9e e5 
    c90b:	c7 85 b4 fc ff ff 08 	movl   $0x8,-0x34c(%rbp)
    c912:	00 00 00 
    c915:	c7 85 b8 fc ff ff 06 	movl   $0x6,-0x348(%rbp)
    c91c:	00 00 00 
    c91f:	c7 85 bc fc ff ff 4c 	movl   $0xeba2714c,-0x344(%rbp)
    c926:	71 a2 eb 
    c929:	c7 85 c0 fc ff ff b6 	movl   $0xac91bfb6,-0x340(%rbp)
    c930:	bf 91 ac 
    c933:	c7 85 c4 fc ff ff 4c 	movl   $0xeba2714c,-0x33c(%rbp)
    c93a:	71 a2 eb 
    c93d:	c7 85 c8 fc ff ff 06 	movl   $0x6,-0x338(%rbp)
    c944:	00 00 00 
    c947:	c7 85 cc fc ff ff 08 	movl   $0x8,-0x334(%rbp)
    c94e:	00 00 00 
    c951:	c7 85 d0 fc ff ff 76 	movl   $0xe59e0a76,-0x330(%rbp)
    c958:	0a 9e e5 
    c95b:	c7 85 d4 fc ff ff 00 	movl   $0x0,-0x32c(%rbp)
    c962:	00 00 00 
    c965:	c7 85 d8 fc ff ff 76 	movl   $0xe59e0a76,-0x328(%rbp)
    c96c:	0a 9e e5 
    c96f:	c7 85 dc fc ff ff 08 	movl   $0x8,-0x324(%rbp)
    c976:	00 00 00 
    c979:	c7 85 e0 fc ff ff 06 	movl   $0x6,-0x320(%rbp)
    c980:	00 00 00 
    c983:	c7 85 e4 fc ff ff 4c 	movl   $0xeba2714c,-0x31c(%rbp)
    c98a:	71 a2 eb 
    c98d:	c7 85 e8 fc ff ff b6 	movl   $0xac91bfb6,-0x318(%rbp)
    c994:	bf 91 ac 
    c997:	c7 85 ec fc ff ff 4c 	movl   $0xeba2714c,-0x314(%rbp)
    c99e:	71 a2 eb 
    c9a1:	c7 85 f0 fc ff ff 06 	movl   $0x6,-0x310(%rbp)
    c9a8:	00 00 00 
    c9ab:	c7 85 f4 fc ff ff 08 	movl   $0x8,-0x30c(%rbp)
    c9b2:	00 00 00 
    c9b5:	c7 85 f8 fc ff ff 76 	movl   $0xe59e0a76,-0x308(%rbp)
    c9bc:	0a 9e e5 
    c9bf:	c7 85 fc fc ff ff 00 	movl   $0x0,-0x304(%rbp)
    c9c6:	00 00 00 
    c9c9:	c7 85 00 fd ff ff 76 	movl   $0xe59e0a76,-0x300(%rbp)
    c9d0:	0a 9e e5 
    c9d3:	c7 85 04 fd ff ff 08 	movl   $0x8,-0x2fc(%rbp)
    c9da:	00 00 00 
    c9dd:	c7 85 08 fd ff ff 06 	movl   $0x6,-0x2f8(%rbp)
    c9e4:	00 00 00 
    c9e7:	c7 85 0c fd ff ff 4c 	movl   $0xeba2714c,-0x2f4(%rbp)
    c9ee:	71 a2 eb 
    c9f1:	c7 85 10 fd ff ff b6 	movl   $0xac91bfb6,-0x2f0(%rbp)
    c9f8:	bf 91 ac 
    c9fb:	c7 85 14 fd ff ff 4c 	movl   $0xeba2714c,-0x2ec(%rbp)
    ca02:	71 a2 eb 
    ca05:	c7 85 18 fd ff ff 06 	movl   $0x6,-0x2e8(%rbp)
    ca0c:	00 00 00 
    ca0f:	c7 85 1c fd ff ff 08 	movl   $0x8,-0x2e4(%rbp)
    ca16:	00 00 00 
    ca19:	c7 85 20 fd ff ff 76 	movl   $0xe59e0a76,-0x2e0(%rbp)
    ca20:	0a 9e e5 
    ca23:	c7 85 24 fd ff ff 00 	movl   $0x0,-0x2dc(%rbp)
    ca2a:	00 00 00 
    ca2d:	c7 85 28 fd ff ff 76 	movl   $0xe59e0a76,-0x2d8(%rbp)
    ca34:	0a 9e e5 
    ca37:	c7 85 2c fd ff ff 08 	movl   $0x8,-0x2d4(%rbp)
    ca3e:	00 00 00 
    ca41:	c7 85 30 fd ff ff 06 	movl   $0x6,-0x2d0(%rbp)
    ca48:	00 00 00 
    ca4b:	c7 85 34 fd ff ff 4c 	movl   $0xeba2714c,-0x2cc(%rbp)
    ca52:	71 a2 eb 
    ca55:	c7 85 38 fd ff ff b6 	movl   $0xac91bfb6,-0x2c8(%rbp)
    ca5c:	bf 91 ac 
    ca5f:	c7 85 3c fd ff ff 4c 	movl   $0xeba2714c,-0x2c4(%rbp)
    ca66:	71 a2 eb 
    ca69:	c7 85 40 fd ff ff 06 	movl   $0x6,-0x2c0(%rbp)
    ca70:	00 00 00 
    ca73:	c7 85 44 fd ff ff 08 	movl   $0x8,-0x2bc(%rbp)
    ca7a:	00 00 00 
    ca7d:	c7 85 48 fd ff ff 76 	movl   $0xe59e0a76,-0x2b8(%rbp)
    ca84:	0a 9e e5 
    ca87:	c7 85 4c fd ff ff 00 	movl   $0x0,-0x2b4(%rbp)
    ca8e:	00 00 00 
    ca91:	c7 85 50 fd ff ff 76 	movl   $0xe59e0a76,-0x2b0(%rbp)
    ca98:	0a 9e e5 
    ca9b:	c7 85 54 fd ff ff 08 	movl   $0x8,-0x2ac(%rbp)
    caa2:	00 00 00 
    caa5:	c7 85 58 fd ff ff 06 	movl   $0x6,-0x2a8(%rbp)
    caac:	00 00 00 
    caaf:	c7 85 5c fd ff ff 4c 	movl   $0xeba2714c,-0x2a4(%rbp)
    cab6:	71 a2 eb 
    cab9:	c7 85 60 fd ff ff 04 	movl   $0x4,-0x2a0(%rbp)
    cac0:	00 00 00 
    cac3:	c7 85 64 fd ff ff c5 	movl   $0xa27ec7c5,-0x29c(%rbp)
    caca:	c7 7e a2 
    cacd:	c7 85 68 fd ff ff 76 	movl   $0xe59e0a76,-0x298(%rbp)
    cad4:	0a 9e e5 
    cad7:	c7 85 6c fd ff ff 4c 	movl   $0xeba2714c,-0x294(%rbp)
    cade:	71 a2 eb 
    cae1:	c7 85 70 fd ff ff 31 	movl   $0x3841ce31,-0x290(%rbp)
    cae8:	ce 41 38 
    caeb:	c7 85 74 fd ff ff ac 	movl   $0x91da97ac,-0x28c(%rbp)
    caf2:	97 da 91 
    caf5:	c7 85 78 fd ff ff 31 	movl   $0x3841ce31,-0x288(%rbp)
    cafc:	ce 41 38 
    caff:	c7 85 7c fd ff ff 4c 	movl   $0xeba2714c,-0x284(%rbp)
    cb06:	71 a2 eb 
    cb09:	c7 85 80 fd ff ff 76 	movl   $0xe59e0a76,-0x280(%rbp)
    cb10:	0a 9e e5 
    cb13:	c7 85 84 fd ff ff c5 	movl   $0xa27ec7c5,-0x27c(%rbp)
    cb1a:	c7 7e a2 
    cb1d:	c7 85 88 fd ff ff 04 	movl   $0x4,-0x278(%rbp)
    cb24:	00 00 00 
    cb27:	c7 85 8c fd ff ff c5 	movl   $0xa27ec7c5,-0x274(%rbp)
    cb2e:	c7 7e a2 
    cb31:	0f b7 85 92 fc ff ff 	movzwl -0x36e(%rbp),%eax
    cb38:	66 25 00 c0          	and    $0xc000,%ax
    cb3c:	83 c8 26             	or     $0x26,%eax
    cb3f:	66 89 85 92 fc ff ff 	mov    %ax,-0x36e(%rbp)
    cb46:	66 c7 85 94 fc ff ff 	movw   $0xfff8,-0x36c(%rbp)
    cb4d:	f8 ff 
    cb4f:	0f b6 85 96 fc ff ff 	movzbl -0x36a(%rbp),%eax
    cb56:	83 c8 07             	or     $0x7,%eax
    cb59:	88 85 96 fc ff ff    	mov    %al,-0x36a(%rbp)
    cb5f:	0f b7 85 96 fc ff ff 	movzwl -0x36a(%rbp),%eax
    cb66:	83 e0 07             	and    $0x7,%eax
    cb69:	66 0d e0 1c          	or     $0x1ce0,%ax
    cb6d:	66 89 85 96 fc ff ff 	mov    %ax,-0x36a(%rbp)
    cb74:	0f b7 85 98 fc ff ff 	movzwl -0x368(%rbp),%eax
    cb7b:	66 25 00 f0          	and    $0xf000,%ax
    cb7f:	66 89 85 98 fc ff ff 	mov    %ax,-0x368(%rbp)
    cb86:	c7 85 9a fc ff ff 9f 	movl   $0x335f3b9f,-0x366(%rbp)
    cb8d:	3b 5f 33 
    cb90:	0f b7 85 9e fc ff ff 	movzwl -0x362(%rbp),%eax
    cb97:	66 25 00 f8          	and    $0xf800,%ax
    cb9b:	83 c8 1b             	or     $0x1b,%eax
    cb9e:	66 89 85 9e fc ff ff 	mov    %ax,-0x362(%rbp)
    cba5:	0f b6 85 9f fc ff ff 	movzbl -0x361(%rbp),%eax
    cbac:	83 e0 87             	and    $0xffffff87,%eax
    cbaf:	88 85 9f fc ff ff    	mov    %al,-0x361(%rbp)
    cbb5:	48 8d 05 f4 3a 01 00 	lea    0x13af4(%rip),%rax        # 206b0 <g_319>
    cbbc:	48 89 85 b0 fe ff ff 	mov    %rax,-0x150(%rbp)
    cbc3:	48 8d 85 30 fc ff ff 	lea    -0x3d0(%rbp),%rax
    cbca:	48 89 85 b8 fe ff ff 	mov    %rax,-0x148(%rbp)
    cbd1:	48 8d 05 20 3c 01 00 	lea    0x13c20(%rip),%rax        # 207f8 <g_1155>
    cbd8:	48 89 85 c0 fe ff ff 	mov    %rax,-0x140(%rbp)
    cbdf:	48 8d 85 30 fc ff ff 	lea    -0x3d0(%rbp),%rax
    cbe6:	48 89 85 c8 fe ff ff 	mov    %rax,-0x138(%rbp)
    cbed:	48 8d 05 bc 3a 01 00 	lea    0x13abc(%rip),%rax        # 206b0 <g_319>
    cbf4:	48 89 85 d0 fe ff ff 	mov    %rax,-0x130(%rbp)
    cbfb:	48 8d 85 30 fc ff ff 	lea    -0x3d0(%rbp),%rax
    cc02:	48 89 85 d8 fe ff ff 	mov    %rax,-0x128(%rbp)
    cc09:	48 8d 05 e8 3b 01 00 	lea    0x13be8(%rip),%rax        # 207f8 <g_1155>
    cc10:	48 89 85 e0 fe ff ff 	mov    %rax,-0x120(%rbp)
    cc17:	48 8d 85 30 fc ff ff 	lea    -0x3d0(%rbp),%rax
    cc1e:	48 89 85 e8 fe ff ff 	mov    %rax,-0x118(%rbp)
    cc25:	48 8d 05 84 3a 01 00 	lea    0x13a84(%rip),%rax        # 206b0 <g_319>
    cc2c:	48 89 85 f0 fe ff ff 	mov    %rax,-0x110(%rbp)
    cc33:	48 8d 85 30 fc ff ff 	lea    -0x3d0(%rbp),%rax
    cc3a:	48 89 85 f8 fe ff ff 	mov    %rax,-0x108(%rbp)
    cc41:	48 8d 05 b0 3b 01 00 	lea    0x13bb0(%rip),%rax        # 207f8 <g_1155>
    cc48:	48 89 85 00 ff ff ff 	mov    %rax,-0x100(%rbp)
    cc4f:	48 8d 85 30 fc ff ff 	lea    -0x3d0(%rbp),%rax
    cc56:	48 89 85 08 ff ff ff 	mov    %rax,-0xf8(%rbp)
    cc5d:	48 8d 05 4c 3a 01 00 	lea    0x13a4c(%rip),%rax        # 206b0 <g_319>
    cc64:	48 89 85 10 ff ff ff 	mov    %rax,-0xf0(%rbp)
    cc6b:	48 8d 85 30 fc ff ff 	lea    -0x3d0(%rbp),%rax
    cc72:	48 89 85 18 ff ff ff 	mov    %rax,-0xe8(%rbp)
    cc79:	48 8d 05 78 3b 01 00 	lea    0x13b78(%rip),%rax        # 207f8 <g_1155>
    cc80:	48 89 85 20 ff ff ff 	mov    %rax,-0xe0(%rbp)
    cc87:	48 8d 85 30 fc ff ff 	lea    -0x3d0(%rbp),%rax
    cc8e:	48 89 85 28 ff ff ff 	mov    %rax,-0xd8(%rbp)
    cc95:	48 8d 05 14 3a 01 00 	lea    0x13a14(%rip),%rax        # 206b0 <g_319>
    cc9c:	48 89 85 30 ff ff ff 	mov    %rax,-0xd0(%rbp)
    cca3:	48 8d 85 30 fc ff ff 	lea    -0x3d0(%rbp),%rax
    ccaa:	48 89 85 38 ff ff ff 	mov    %rax,-0xc8(%rbp)
    ccb1:	48 8d 05 40 3b 01 00 	lea    0x13b40(%rip),%rax        # 207f8 <g_1155>
    ccb8:	48 89 85 40 ff ff ff 	mov    %rax,-0xc0(%rbp)
    ccbf:	48 8d 85 30 fc ff ff 	lea    -0x3d0(%rbp),%rax
    ccc6:	48 89 85 48 ff ff ff 	mov    %rax,-0xb8(%rbp)
    cccd:	48 8d 05 dc 39 01 00 	lea    0x139dc(%rip),%rax        # 206b0 <g_319>
    ccd4:	48 89 85 50 ff ff ff 	mov    %rax,-0xb0(%rbp)
    ccdb:	48 8d 85 30 fc ff ff 	lea    -0x3d0(%rbp),%rax
    cce2:	48 89 85 58 ff ff ff 	mov    %rax,-0xa8(%rbp)
    cce9:	48 8d 05 08 3b 01 00 	lea    0x13b08(%rip),%rax        # 207f8 <g_1155>
    ccf0:	48 89 85 60 ff ff ff 	mov    %rax,-0xa0(%rbp)
    ccf7:	48 8d 85 30 fc ff ff 	lea    -0x3d0(%rbp),%rax
    ccfe:	48 89 85 68 ff ff ff 	mov    %rax,-0x98(%rbp)
    cd05:	48 8d 05 a4 39 01 00 	lea    0x139a4(%rip),%rax        # 206b0 <g_319>
    cd0c:	48 89 85 70 ff ff ff 	mov    %rax,-0x90(%rbp)
    cd13:	48 8d 85 30 fc ff ff 	lea    -0x3d0(%rbp),%rax
    cd1a:	48 89 85 78 ff ff ff 	mov    %rax,-0x88(%rbp)
    cd21:	48 8d 05 d0 3a 01 00 	lea    0x13ad0(%rip),%rax        # 207f8 <g_1155>
    cd28:	48 89 45 80          	mov    %rax,-0x80(%rbp)
    cd2c:	48 8d 85 30 fc ff ff 	lea    -0x3d0(%rbp),%rax
    cd33:	48 89 45 88          	mov    %rax,-0x78(%rbp)
    cd37:	48 8d 05 72 39 01 00 	lea    0x13972(%rip),%rax        # 206b0 <g_319>
    cd3e:	48 89 45 90          	mov    %rax,-0x70(%rbp)
    cd42:	48 8d 85 30 fc ff ff 	lea    -0x3d0(%rbp),%rax
    cd49:	48 89 45 98          	mov    %rax,-0x68(%rbp)
    cd4d:	48 8d 05 a4 3a 01 00 	lea    0x13aa4(%rip),%rax        # 207f8 <g_1155>
    cd54:	48 89 45 a0          	mov    %rax,-0x60(%rbp)
    cd58:	48 8d 85 30 fc ff ff 	lea    -0x3d0(%rbp),%rax
    cd5f:	48 89 45 a8          	mov    %rax,-0x58(%rbp)
    cd63:	48 8d 05 46 39 01 00 	lea    0x13946(%rip),%rax        # 206b0 <g_319>
    cd6a:	48 89 45 b0          	mov    %rax,-0x50(%rbp)
    cd6e:	48 8d 85 30 fc ff ff 	lea    -0x3d0(%rbp),%rax
    cd75:	48 89 45 b8          	mov    %rax,-0x48(%rbp)
    cd79:	48 8d 05 78 3a 01 00 	lea    0x13a78(%rip),%rax        # 207f8 <g_1155>
    cd80:	48 89 45 c0          	mov    %rax,-0x40(%rbp)
    cd84:	48 8d 85 30 fc ff ff 	lea    -0x3d0(%rbp),%rax
    cd8b:	48 89 45 c8          	mov    %rax,-0x38(%rbp)
    cd8f:	48 8d 05 1a 39 01 00 	lea    0x1391a(%rip),%rax        # 206b0 <g_319>
    cd96:	48 89 45 d0          	mov    %rax,-0x30(%rbp)
    cd9a:	48 8d 85 30 fc ff ff 	lea    -0x3d0(%rbp),%rax
    cda1:	48 89 45 d8          	mov    %rax,-0x28(%rbp)
    cda5:	48 8d 05 4c 3a 01 00 	lea    0x13a4c(%rip),%rax        # 207f8 <g_1155>
    cdac:	48 89 45 e0          	mov    %rax,-0x20(%rbp)
    cdb0:	48 8d 85 30 fc ff ff 	lea    -0x3d0(%rbp),%rax
    cdb7:	48 89 45 e8          	mov    %rax,-0x18(%rbp)
    cdbb:	c7 85 2c fc ff ff 91 	movl   $0x61087691,-0x3d4(%rbp)
    cdc2:	76 08 61 
    cdc5:	48 8d 05 ac 3c 01 00 	lea    0x13cac(%rip),%rax        # 20a78 <g_1478+0x218>
    cdcc:	48 89 85 78 fc ff ff 	mov    %rax,-0x388(%rbp)
    cdd3:	48 c7 85 40 fc ff ff 	movq   $0x0,-0x3c0(%rbp)
    cdda:	00 00 00 00 
    cdde:	c7 85 40 fc ff ff ff 	movl   $0x13888aff,-0x3c0(%rbp)
    cde5:	8a 88 13 
    cde8:	c7 85 28 fc ff ff 00 	movl   $0x0,-0x3d8(%rbp)
    cdef:	00 00 00 
    cdf2:	eb 14                	jmp    ce08 <func_1+0x653>
    cdf4:	8b 85 28 fc ff ff    	mov    -0x3d8(%rbp),%eax
    cdfa:	48 98                	cltq   
    cdfc:	c6 44 05 f5 c2       	movb   $0xc2,-0xb(%rbp,%rax,1)
    ce01:	83 85 28 fc ff ff 01 	addl   $0x1,-0x3d8(%rbp)
    ce08:	83 bd 28 fc ff ff 02 	cmpl   $0x2,-0x3d8(%rbp)
    ce0f:	7e e3                	jle    cdf4 <func_1+0x63f>
    ce11:	48 8b 85 40 fc ff ff 	mov    -0x3c0(%rbp),%rax
    ce18:	48 8b 55 f8          	mov    -0x8(%rbp),%rdx
    ce1c:	64 48 33 14 25 28 00 	xor    %fs:0x28,%rdx
    ce23:	00 00 
    ce25:	74 05                	je     ce2c <func_1+0x677>
    ce27:	e8 44 e2 ff ff       	callq  b070 <__stack_chk_fail@plt>
    ce2c:	c9                   	leaveq 
    ce2d:	c3                   	retq   

000000000000ce2e <func_4>:
    ce2e:	f3 0f 1e fa          	endbr64 
    ce32:	55                   	push   %rbp
    ce33:	48 89 e5             	mov    %rsp,%rbp
    ce36:	48 83 ec 30          	sub    $0x30,%rsp
    ce3a:	89 f8                	mov    %edi,%eax
    ce3c:	88 45 dc             	mov    %al,-0x24(%rbp)
    ce3f:	64 48 8b 04 25 28 00 	mov    %fs:0x28,%rax
    ce46:	00 00 
    ce48:	48 89 45 f8          	mov    %rax,-0x8(%rbp)
    ce4c:	31 c0                	xor    %eax,%eax
    ce4e:	48 8d 05 cf 01 01 00 	lea    0x101cf(%rip),%rax        # 1d024 <g_9>
    ce55:	48 89 45 e8          	mov    %rax,-0x18(%rbp)
    ce59:	48 8d 45 e8          	lea    -0x18(%rbp),%rax
    ce5d:	48 89 45 f0          	mov    %rax,-0x10(%rbp)
    ce61:	48 8b 45 f0          	mov    -0x10(%rbp),%rax
    ce65:	48 c7 00 00 00 00 00 	movq   $0x0,(%rax)
    ce6c:	0f b6 45 dc          	movzbl -0x24(%rbp),%eax
    ce70:	48 8b 55 f8          	mov    -0x8(%rbp),%rdx
    ce74:	64 48 33 14 25 28 00 	xor    %fs:0x28,%rdx
    ce7b:	00 00 
    ce7d:	74 05                	je     ce84 <func_4+0x56>
    ce7f:	e8 ec e1 ff ff       	callq  b070 <__stack_chk_fail@plt>
    ce84:	c9                   	leaveq 
    ce85:	c3                   	retq   

000000000000ce86 <func_10>:
    ce86:	f3 0f 1e fa          	endbr64 
    ce8a:	55                   	push   %rbp
    ce8b:	48 89 e5             	mov    %rsp,%rbp
    ce8e:	48 83 ec 70          	sub    $0x70,%rsp
    ce92:	41 89 fa             	mov    %edi,%r10d
    ce95:	48 89 c8             	mov    %rcx,%rax
    ce98:	4c 89 c7             	mov    %r8,%rdi
    ce9b:	45 89 c8             	mov    %r9d,%r8d
    ce9e:	44 89 d1             	mov    %r10d,%ecx
    cea1:	88 4d bc             	mov    %cl,-0x44(%rbp)
    cea4:	48 89 75 a8          	mov    %rsi,-0x58(%rbp)
    cea8:	89 d6                	mov    %edx,%esi
    ceaa:	8b 4d b0             	mov    -0x50(%rbp),%ecx
    cead:	83 e1 00             	and    $0x0,%ecx
    ceb0:	09 f1                	or     %esi,%ecx
    ceb2:	89 4d b0             	mov    %ecx,-0x50(%rbp)
    ceb5:	48 c1 ea 20          	shr    $0x20,%rdx
    ceb9:	0f b7 d2             	movzwl %dx,%edx
    cebc:	0f b7 4d b4          	movzwl -0x4c(%rbp),%ecx
    cec0:	83 e1 00             	and    $0x0,%ecx
    cec3:	09 ca                	or     %ecx,%edx
    cec5:	66 89 55 b4          	mov    %dx,-0x4c(%rbp)
    cec9:	48 89 45 98          	mov    %rax,-0x68(%rbp)
    cecd:	89 fa                	mov    %edi,%edx
    cecf:	8b 45 a0             	mov    -0x60(%rbp),%eax
    ced2:	83 e0 00             	and    $0x0,%eax
    ced5:	09 d0                	or     %edx,%eax
    ced7:	89 45 a0             	mov    %eax,-0x60(%rbp)
    ceda:	48 89 f8             	mov    %rdi,%rax
    cedd:	48 c1 e8 20          	shr    $0x20,%rax
    cee1:	0f b7 c0             	movzwl %ax,%eax
    cee4:	0f b7 55 a4          	movzwl -0x5c(%rbp),%edx
    cee8:	83 e2 00             	and    $0x0,%edx
    ceeb:	09 d0                	or     %edx,%eax
    ceed:	66 89 45 a4          	mov    %ax,-0x5c(%rbp)
    cef1:	44 89 c0             	mov    %r8d,%eax
    cef4:	88 45 b8             	mov    %al,-0x48(%rbp)
    cef7:	64 48 8b 04 25 28 00 	mov    %fs:0x28,%rax
    cefe:	00 00 
    cf00:	48 89 45 f8          	mov    %rax,-0x8(%rbp)
    cf04:	31 c0                	xor    %eax,%eax
    cf06:	c6 45 ce 0b          	movb   $0xb,-0x32(%rbp)
    cf0a:	c7 45 d0 fe ff ff ff 	movl   $0xfffffffe,-0x30(%rbp)
    cf11:	48 8d 45 d0          	lea    -0x30(%rbp),%rax
    cf15:	48 89 45 d8          	mov    %rax,-0x28(%rbp)
    cf19:	c6 45 cf fb          	movb   $0xfb,-0x31(%rbp)
    cf1d:	c7 45 d4 00 00 00 00 	movl   $0x0,-0x2c(%rbp)
    cf24:	eb 18                	jmp    cf3e <func_10+0xb8>
    cf26:	8b 45 d4             	mov    -0x2c(%rbp),%eax
    cf29:	48 98                	cltq   
    cf2b:	48 bf 1b b0 47 70 71 	movabs $0x5604c4717047b01b,%rdi
    cf32:	c4 04 56 
    cf35:	48 89 7c c5 e0       	mov    %rdi,-0x20(%rbp,%rax,8)
    cf3a:	83 45 d4 01          	addl   $0x1,-0x2c(%rbp)
    cf3e:	83 7d d4 02          	cmpl   $0x2,-0x2c(%rbp)
    cf42:	7e e2                	jle    cf26 <func_10+0xa0>
    cf44:	80 6d ce 01          	subb   $0x1,-0x32(%rbp)
    cf48:	80 45 cf 01          	addb   $0x1,-0x31(%rbp)
    cf4c:	48 8b 05 55 37 01 00 	mov    0x13755(%rip),%rax        # 206a8 <g_273>
    cf53:	0f b6 00             	movzbl (%rax),%eax
    cf56:	48 8b 75 f8          	mov    -0x8(%rbp),%rsi
    cf5a:	64 48 33 34 25 28 00 	xor    %fs:0x28,%rsi
    cf61:	00 00 
    cf63:	74 05                	je     cf6a <func_10+0xe4>
    cf65:	e8 06 e1 ff ff       	callq  b070 <__stack_chk_fail@plt>
    cf6a:	c9                   	leaveq 
    cf6b:	c3                   	retq   

000000000000cf6c <func_15>:
    cf6c:	f3 0f 1e fa          	endbr64 
    cf70:	55                   	push   %rbp
    cf71:	48 89 e5             	mov    %rsp,%rbp
    cf74:	41 57                	push   %r15
    cf76:	41 56                	push   %r14
    cf78:	41 55                	push   %r13
    cf7a:	41 54                	push   %r12
    cf7c:	53                   	push   %rbx
    cf7d:	48 81 ec 00 10 00 00 	sub    $0x1000,%rsp
    cf84:	48 83 0c 24 00       	orq    $0x0,(%rsp)
    cf89:	48 81 ec c8 02 00 00 	sub    $0x2c8,%rsp
    cf90:	48 89 bd 18 ed ff ff 	mov    %rdi,-0x12e8(%rbp)
    cf97:	64 48 8b 04 25 28 00 	mov    %fs:0x28,%rax
    cf9e:	00 00 
    cfa0:	48 89 45 c8          	mov    %rax,-0x38(%rbp)
    cfa4:	31 c0                	xor    %eax,%eax
    cfa6:	66 c7 85 e0 ef ff ff 	movw   $0x84dc,-0x1020(%rbp)
    cfad:	dc 84 
    cfaf:	66 c7 85 e2 ef ff ff 	movw   $0xdcdc,-0x101e(%rbp)
    cfb6:	dc dc 
    cfb8:	66 c7 85 e4 ef ff ff 	movw   $0xdc84,-0x101c(%rbp)
    cfbf:	84 dc 
    cfc1:	66 c7 85 e6 ef ff ff 	movw   $0x84dc,-0x101a(%rbp)
    cfc8:	dc 84 
    cfca:	66 c7 85 e8 ef ff ff 	movw   $0xdcdc,-0x1018(%rbp)
    cfd1:	dc dc 
    cfd3:	66 c7 85 ea ef ff ff 	movw   $0xdc84,-0x1016(%rbp)
    cfda:	84 dc 
    cfdc:	66 c7 85 ec ef ff ff 	movw   $0x84dc,-0x1014(%rbp)
    cfe3:	dc 84 
    cfe5:	66 c7 85 ee ef ff ff 	movw   $0xdcdc,-0x1012(%rbp)
    cfec:	dc dc 
    cfee:	0f b7 85 8e ef ff ff 	movzwl -0x1072(%rbp),%eax
    cff5:	66 25 00 c0          	and    $0xc000,%ax
    cff9:	83 c8 74             	or     $0x74,%eax
    cffc:	66 89 85 8e ef ff ff 	mov    %ax,-0x1072(%rbp)
    d003:	66 c7 85 90 ef ff ff 	movw   $0xe7dd,-0x1070(%rbp)
    d00a:	dd e7 
    d00c:	0f b6 85 92 ef ff ff 	movzbl -0x106e(%rbp),%eax
    d013:	83 e0 f8             	and    $0xfffffff8,%eax
    d016:	88 85 92 ef ff ff    	mov    %al,-0x106e(%rbp)
    d01c:	0f b7 85 92 ef ff ff 	movzwl -0x106e(%rbp),%eax
    d023:	83 e0 07             	and    $0x7,%eax
    d026:	66 0d 20 24          	or     $0x2420,%ax
    d02a:	66 89 85 92 ef ff ff 	mov    %ax,-0x106e(%rbp)
    d031:	0f b7 85 94 ef ff ff 	movzwl -0x106c(%rbp),%eax
    d038:	66 25 00 f0          	and    $0xf000,%ax
    d03c:	66 89 85 94 ef ff ff 	mov    %ax,-0x106c(%rbp)
    d043:	c7 85 96 ef ff ff 00 	movl   $0x0,-0x106a(%rbp)
    d04a:	00 00 00 
    d04d:	0f b7 85 9a ef ff ff 	movzwl -0x1066(%rbp),%eax
    d054:	66 25 00 f8          	and    $0xf800,%ax
    d058:	83 c8 0f             	or     $0xf,%eax
    d05b:	66 89 85 9a ef ff ff 	mov    %ax,-0x1066(%rbp)
    d062:	0f b6 85 9b ef ff ff 	movzbl -0x1065(%rbp),%eax
    d069:	83 e0 87             	and    $0xffffff87,%eax
    d06c:	83 c8 08             	or     $0x8,%eax
    d06f:	88 85 9b ef ff ff    	mov    %al,-0x1065(%rbp)
    d075:	48 8d 85 60 f8 ff ff 	lea    -0x7a0(%rbp),%rax
    d07c:	48 8d 15 9d 01 01 00 	lea    0x1019d(%rip),%rdx        # 1d220 <g_1942+0x10>
    d083:	b9 38 00 00 00       	mov    $0x38,%ecx
    d088:	48 89 c7             	mov    %rax,%rdi
    d08b:	48 89 d6             	mov    %rdx,%rsi
    d08e:	f3 48 a5             	rep movsq %ds:(%rsi),%es:(%rdi)
    d091:	c7 85 10 f2 ff ff f2 	movl   $0xe5e51bf2,-0xdf0(%rbp)
    d098:	1b e5 e5 
    d09b:	66 c7 85 14 f2 ff ff 	movw   $0xf21b,-0xdec(%rbp)
    d0a2:	1b f2 
    d0a4:	c6 85 16 f2 ff ff d3 	movb   $0xd3,-0xdea(%rbp)
    d0ab:	c7 85 17 f2 ff ff f2 	movl   $0xe5e51bf2,-0xde9(%rbp)
    d0b2:	1b e5 e5 
    d0b5:	66 c7 85 1b f2 ff ff 	movw   $0xf21b,-0xde5(%rbp)
    d0bc:	1b f2 
    d0be:	c6 85 1d f2 ff ff d3 	movb   $0xd3,-0xde3(%rbp)
    d0c5:	c7 85 1e f2 ff ff f2 	movl   $0xe5e51bf2,-0xde2(%rbp)
    d0cc:	1b e5 e5 
    d0cf:	66 c7 85 22 f2 ff ff 	movw   $0xf21b,-0xdde(%rbp)
    d0d6:	1b f2 
    d0d8:	c6 85 24 f2 ff ff d3 	movb   $0xd3,-0xddc(%rbp)
    d0df:	c7 85 25 f2 ff ff f2 	movl   $0xe5e51bf2,-0xddb(%rbp)
    d0e6:	1b e5 e5 
    d0e9:	66 c7 85 29 f2 ff ff 	movw   $0xf21b,-0xdd7(%rbp)
    d0f0:	1b f2 
    d0f2:	c6 85 2b f2 ff ff d3 	movb   $0xd3,-0xdd5(%rbp)
    d0f9:	c7 85 2c f2 ff ff f2 	movl   $0xe5e51bf2,-0xdd4(%rbp)
    d100:	1b e5 e5 
    d103:	66 c7 85 30 f2 ff ff 	movw   $0xf21b,-0xdd0(%rbp)
    d10a:	1b f2 
    d10c:	c6 85 32 f2 ff ff d3 	movb   $0xd3,-0xdce(%rbp)
    d113:	c7 85 33 f2 ff ff f2 	movl   $0xe5e51bf2,-0xdcd(%rbp)
    d11a:	1b e5 e5 
    d11d:	66 c7 85 37 f2 ff ff 	movw   $0xf21b,-0xdc9(%rbp)
    d124:	1b f2 
    d126:	c6 85 39 f2 ff ff d3 	movb   $0xd3,-0xdc7(%rbp)
    d12d:	c7 85 3a f2 ff ff f2 	movl   $0xe5e51bf2,-0xdc6(%rbp)
    d134:	1b e5 e5 
    d137:	66 c7 85 3e f2 ff ff 	movw   $0xf21b,-0xdc2(%rbp)
    d13e:	1b f2 
    d140:	c6 85 40 f2 ff ff d3 	movb   $0xd3,-0xdc0(%rbp)
    d147:	c7 85 41 f2 ff ff f2 	movl   $0xe5e51bf2,-0xdbf(%rbp)
    d14e:	1b e5 e5 
    d151:	66 c7 85 45 f2 ff ff 	movw   $0xf21b,-0xdbb(%rbp)
    d158:	1b f2 
    d15a:	c6 85 47 f2 ff ff d3 	movb   $0xd3,-0xdb9(%rbp)
    d161:	c7 85 48 f2 ff ff f2 	movl   $0xe5e51bf2,-0xdb8(%rbp)
    d168:	1b e5 e5 
    d16b:	66 c7 85 4c f2 ff ff 	movw   $0xf21b,-0xdb4(%rbp)
    d172:	1b f2 
    d174:	c6 85 4e f2 ff ff d3 	movb   $0xd3,-0xdb2(%rbp)
    d17b:	c7 85 4f f2 ff ff f2 	movl   $0xe5e51bf2,-0xdb1(%rbp)
    d182:	1b e5 e5 
    d185:	66 c7 85 53 f2 ff ff 	movw   $0x7be5,-0xdad(%rbp)
    d18c:	e5 7b 
    d18e:	c6 85 55 f2 ff ff b0 	movb   $0xb0,-0xdab(%rbp)
    d195:	c7 85 56 f2 ff ff 7b 	movl   $0xd3d3e57b,-0xdaa(%rbp)
    d19c:	e5 d3 d3 
    d19f:	66 c7 85 5a f2 ff ff 	movw   $0x7be5,-0xda6(%rbp)
    d1a6:	e5 7b 
    d1a8:	c6 85 5c f2 ff ff b0 	movb   $0xb0,-0xda4(%rbp)
    d1af:	c7 85 5d f2 ff ff 7b 	movl   $0xd3d3e57b,-0xda3(%rbp)
    d1b6:	e5 d3 d3 
    d1b9:	66 c7 85 61 f2 ff ff 	movw   $0x7be5,-0xd9f(%rbp)
    d1c0:	e5 7b 
    d1c2:	c6 85 63 f2 ff ff b0 	movb   $0xb0,-0xd9d(%rbp)
    d1c9:	c7 85 64 f2 ff ff 7b 	movl   $0xd3d3e57b,-0xd9c(%rbp)
    d1d0:	e5 d3 d3 
    d1d3:	66 c7 85 68 f2 ff ff 	movw   $0x7be5,-0xd98(%rbp)
    d1da:	e5 7b 
    d1dc:	c6 85 6a f2 ff ff b0 	movb   $0xb0,-0xd96(%rbp)
    d1e3:	c7 85 6b f2 ff ff 7b 	movl   $0xd3d3e57b,-0xd95(%rbp)
    d1ea:	e5 d3 d3 
    d1ed:	66 c7 85 6f f2 ff ff 	movw   $0x7be5,-0xd91(%rbp)
    d1f4:	e5 7b 
    d1f6:	c6 85 71 f2 ff ff b0 	movb   $0xb0,-0xd8f(%rbp)
    d1fd:	c7 85 72 f2 ff ff 7b 	movl   $0xd3d3e57b,-0xd8e(%rbp)
    d204:	e5 d3 d3 
    d207:	66 c7 85 76 f2 ff ff 	movw   $0x7be5,-0xd8a(%rbp)
    d20e:	e5 7b 
    d210:	c6 85 78 f2 ff ff b0 	movb   $0xb0,-0xd88(%rbp)
    d217:	c7 85 79 f2 ff ff 7b 	movl   $0xd3d3e57b,-0xd87(%rbp)
    d21e:	e5 d3 d3 
    d221:	66 c7 85 7d f2 ff ff 	movw   $0x7be5,-0xd83(%rbp)
    d228:	e5 7b 
    d22a:	c6 85 7f f2 ff ff b0 	movb   $0xb0,-0xd81(%rbp)
    d231:	c7 85 80 f2 ff ff 7b 	movl   $0xd3d3e57b,-0xd80(%rbp)
    d238:	e5 d3 d3 
    d23b:	66 c7 85 84 f2 ff ff 	movw   $0x7be5,-0xd7c(%rbp)
    d242:	e5 7b 
    d244:	c6 85 86 f2 ff ff b0 	movb   $0xb0,-0xd7a(%rbp)
    d24b:	c7 85 87 f2 ff ff 7b 	movl   $0xd3d3e57b,-0xd79(%rbp)
    d252:	e5 d3 d3 
    d255:	66 c7 85 8b f2 ff ff 	movw   $0x7be5,-0xd75(%rbp)
    d25c:	e5 7b 
    d25e:	c6 85 8d f2 ff ff b0 	movb   $0xb0,-0xd73(%rbp)
    d265:	c7 85 8e f2 ff ff 7b 	movl   $0xd3d3e57b,-0xd72(%rbp)
    d26c:	e5 d3 d3 
    d26f:	66 c7 85 92 f2 ff ff 	movw   $0x7be5,-0xd6e(%rbp)
    d276:	e5 7b 
    d278:	c6 85 94 f2 ff ff b0 	movb   $0xb0,-0xd6c(%rbp)
    d27f:	c7 85 95 f2 ff ff 7b 	movl   $0xd3d3e57b,-0xd6b(%rbp)
    d286:	e5 d3 d3 
    d289:	66 c7 85 99 f2 ff ff 	movw   $0x7be5,-0xd67(%rbp)
    d290:	e5 7b 
    d292:	c6 85 9b f2 ff ff b0 	movb   $0xb0,-0xd65(%rbp)
    d299:	c7 85 38 ed ff ff 01 	movl   $0x1,-0x12c8(%rbp)
    d2a0:	00 00 00 
    d2a3:	48 8d 85 20 fa ff ff 	lea    -0x5e0(%rbp),%rax
    d2aa:	48 8d 15 2f 01 01 00 	lea    0x1012f(%rip),%rdx        # 1d3e0 <g_1942+0x1d0>
    d2b1:	b9 b4 00 00 00       	mov    $0xb4,%ecx
    d2b6:	48 89 c7             	mov    %rax,%rdi
    d2b9:	48 89 d6             	mov    %rdx,%rsi
    d2bc:	f3 48 a5             	rep movsq %ds:(%rsi),%es:(%rdi)
    d2bf:	48 8d 85 20 fa ff ff 	lea    -0x5e0(%rbp),%rax
    d2c6:	48 05 68 01 00 00    	add    $0x168,%rax
    d2cc:	48 89 85 98 ed ff ff 	mov    %rax,-0x1268(%rbp)
    d2d3:	48 8d 05 86 34 01 00 	lea    0x13486(%rip),%rax        # 20760 <g_796>
    d2da:	48 89 85 a0 ed ff ff 	mov    %rax,-0x1260(%rbp)
    d2e1:	48 8d 85 a0 ed ff ff 	lea    -0x1260(%rbp),%rax
    d2e8:	48 89 85 d0 f3 ff ff 	mov    %rax,-0xc30(%rbp)
    d2ef:	48 8d 85 a0 ed ff ff 	lea    -0x1260(%rbp),%rax
    d2f6:	48 89 85 d8 f3 ff ff 	mov    %rax,-0xc28(%rbp)
    d2fd:	48 c7 85 e0 f3 ff ff 	movq   $0x0,-0xc20(%rbp)
    d304:	00 00 00 00 
    d308:	48 8d 85 a0 ed ff ff 	lea    -0x1260(%rbp),%rax
    d30f:	48 89 85 e8 f3 ff ff 	mov    %rax,-0xc18(%rbp)
    d316:	48 8d 85 a0 ed ff ff 	lea    -0x1260(%rbp),%rax
    d31d:	48 89 85 f0 f3 ff ff 	mov    %rax,-0xc10(%rbp)
    d324:	48 8d 85 a0 ed ff ff 	lea    -0x1260(%rbp),%rax
    d32b:	48 89 85 f8 f3 ff ff 	mov    %rax,-0xc08(%rbp)
    d332:	48 8d 85 a0 ed ff ff 	lea    -0x1260(%rbp),%rax
    d339:	48 89 85 00 f4 ff ff 	mov    %rax,-0xc00(%rbp)
    d340:	48 8d 85 a0 ed ff ff 	lea    -0x1260(%rbp),%rax
    d347:	48 89 85 08 f4 ff ff 	mov    %rax,-0xbf8(%rbp)
    d34e:	48 8d 85 a0 ed ff ff 	lea    -0x1260(%rbp),%rax
    d355:	48 89 85 10 f4 ff ff 	mov    %rax,-0xbf0(%rbp)
    d35c:	48 8d 85 a0 ed ff ff 	lea    -0x1260(%rbp),%rax
    d363:	48 89 85 18 f4 ff ff 	mov    %rax,-0xbe8(%rbp)
    d36a:	48 8d 85 a0 ed ff ff 	lea    -0x1260(%rbp),%rax
    d371:	48 89 85 20 f4 ff ff 	mov    %rax,-0xbe0(%rbp)
    d378:	48 c7 85 28 f4 ff ff 	movq   $0x0,-0xbd8(%rbp)
    d37f:	00 00 00 00 
    d383:	48 8d 85 a0 ed ff ff 	lea    -0x1260(%rbp),%rax
    d38a:	48 89 85 30 f4 ff ff 	mov    %rax,-0xbd0(%rbp)
    d391:	48 8d 85 a0 ed ff ff 	lea    -0x1260(%rbp),%rax
    d398:	48 89 85 38 f4 ff ff 	mov    %rax,-0xbc8(%rbp)
    d39f:	48 8d 85 a0 ed ff ff 	lea    -0x1260(%rbp),%rax
    d3a6:	48 89 85 40 f4 ff ff 	mov    %rax,-0xbc0(%rbp)
    d3ad:	48 8d 85 a0 ed ff ff 	lea    -0x1260(%rbp),%rax
    d3b4:	48 89 85 48 f4 ff ff 	mov    %rax,-0xbb8(%rbp)
    d3bb:	48 8d 85 a0 ed ff ff 	lea    -0x1260(%rbp),%rax
    d3c2:	48 89 85 50 f4 ff ff 	mov    %rax,-0xbb0(%rbp)
    d3c9:	48 8d 85 a0 ed ff ff 	lea    -0x1260(%rbp),%rax
    d3d0:	48 89 85 58 f4 ff ff 	mov    %rax,-0xba8(%rbp)
    d3d7:	48 8d 85 a0 ed ff ff 	lea    -0x1260(%rbp),%rax
    d3de:	48 89 85 60 f4 ff ff 	mov    %rax,-0xba0(%rbp)
    d3e5:	48 8d 85 a0 ed ff ff 	lea    -0x1260(%rbp),%rax
    d3ec:	48 89 85 68 f4 ff ff 	mov    %rax,-0xb98(%rbp)
    d3f3:	48 8d 85 a0 ed ff ff 	lea    -0x1260(%rbp),%rax
    d3fa:	48 89 85 70 f4 ff ff 	mov    %rax,-0xb90(%rbp)
    d401:	48 8d 85 a0 ed ff ff 	lea    -0x1260(%rbp),%rax
    d408:	48 89 85 78 f4 ff ff 	mov    %rax,-0xb88(%rbp)
    d40f:	48 8d 85 a0 ed ff ff 	lea    -0x1260(%rbp),%rax
    d416:	48 89 85 80 f4 ff ff 	mov    %rax,-0xb80(%rbp)
    d41d:	48 c7 85 88 f4 ff ff 	movq   $0x0,-0xb78(%rbp)
    d424:	00 00 00 00 
    d428:	48 c7 85 f8 ed ff ff 	movq   $0x0,-0x1208(%rbp)
    d42f:	00 00 00 00 
    d433:	48 8d 05 1e 32 01 00 	lea    0x1321e(%rip),%rax        # 20658 <g_113+0x298>
    d43a:	48 89 85 00 ee ff ff 	mov    %rax,-0x1200(%rbp)
    d441:	48 c7 85 08 ee ff ff 	movq   $0x0,-0x11f8(%rbp)
    d448:	00 00 00 00 
    d44c:	c7 85 3c ed ff ff 00 	movl   $0x0,-0x12c4(%rbp)
    d453:	00 00 00 
    d456:	48 8d 05 73 3c 01 00 	lea    0x13c73(%rip),%rax        # 210d0 <g_617>
    d45d:	48 89 85 a8 ed ff ff 	mov    %rax,-0x1258(%rbp)
    d464:	48 8d 05 8d 33 01 00 	lea    0x1338d(%rip),%rax        # 207f8 <g_1155>
    d46b:	48 89 85 b0 ed ff ff 	mov    %rax,-0x1250(%rbp)
    d472:	48 8d 05 bb fb 00 00 	lea    0xfbbb(%rip),%rax        # 1d034 <g_38>
    d479:	48 89 85 b8 ed ff ff 	mov    %rax,-0x1248(%rbp)
    d480:	48 8d 85 b8 ed ff ff 	lea    -0x1248(%rbp),%rax
    d487:	48 89 85 10 ee ff ff 	mov    %rax,-0x11f0(%rbp)
    d48e:	c6 85 2e ed ff ff 29 	movb   $0x29,-0x12d2(%rbp)
    d495:	66 c7 85 34 ed ff ff 	movw   $0x437e,-0x12cc(%rbp)
    d49c:	7e 43 
    d49e:	48 8d 05 ab 3c 01 00 	lea    0x13cab(%rip),%rax        # 21150 <g_1665>
    d4a5:	48 89 85 c0 ed ff ff 	mov    %rax,-0x1240(%rbp)
    d4ac:	48 8d 05 9d 3c 01 00 	lea    0x13c9d(%rip),%rax        # 21150 <g_1665>
    d4b3:	48 89 85 c8 ed ff ff 	mov    %rax,-0x1238(%rbp)
    d4ba:	66 c7 85 32 ed ff ff 	movw   $0xffff,-0x12ce(%rbp)
    d4c1:	ff ff 
    d4c3:	0f b7 85 9c ef ff ff 	movzwl -0x1064(%rbp),%eax
    d4ca:	66 25 00 c0          	and    $0xc000,%ax
    d4ce:	66 0d da 3f          	or     $0x3fda,%ax
    d4d2:	66 89 85 9c ef ff ff 	mov    %ax,-0x1064(%rbp)
    d4d9:	66 c7 85 9e ef ff ff 	movw   $0xf290,-0x1062(%rbp)
    d4e0:	90 f2 
    d4e2:	0f b6 85 a0 ef ff ff 	movzbl -0x1060(%rbp),%eax
    d4e9:	83 e0 f8             	and    $0xfffffff8,%eax
    d4ec:	88 85 a0 ef ff ff    	mov    %al,-0x1060(%rbp)
    d4f2:	8b 85 a0 ef ff ff    	mov    -0x1060(%rbp),%eax
    d4f8:	25 07 00 00 f0       	and    $0xf0000007,%eax
    d4fd:	0d 48 7f 00 00       	or     $0x7f48,%eax
    d502:	89 85 a0 ef ff ff    	mov    %eax,-0x1060(%rbp)
    d508:	c7 85 a4 ef ff ff 00 	movl   $0x0,-0x105c(%rbp)
    d50f:	00 00 00 
    d512:	0f b7 85 a8 ef ff ff 	movzwl -0x1058(%rbp),%eax
    d519:	66 25 00 f8          	and    $0xf800,%ax
    d51d:	83 c8 08             	or     $0x8,%eax
    d520:	66 89 85 a8 ef ff ff 	mov    %ax,-0x1058(%rbp)
    d527:	0f b6 85 a9 ef ff ff 	movzbl -0x1057(%rbp),%eax
    d52e:	83 e0 87             	and    $0xffffff87,%eax
    d531:	88 85 a9 ef ff ff    	mov    %al,-0x1057(%rbp)
    d537:	48 8d 85 38 ed ff ff 	lea    -0x12c8(%rbp),%rax
    d53e:	48 89 85 18 ee ff ff 	mov    %rax,-0x11e8(%rbp)
    d545:	c7 85 40 ed ff ff 00 	movl   $0x0,-0x12c0(%rbp)
    d54c:	00 00 00 
    d54f:	e9 89 00 00 00       	jmpq   d5dd <func_15+0x671>
    d554:	c7 85 44 ed ff ff 00 	movl   $0x0,-0x12bc(%rbp)
    d55b:	00 00 00 
    d55e:	eb 6d                	jmp    d5cd <func_15+0x661>
    d560:	c7 85 48 ed ff ff 00 	movl   $0x0,-0x12b8(%rbp)
    d567:	00 00 00 
    d56a:	eb 51                	jmp    d5bd <func_15+0x651>
    d56c:	8b 85 48 ed ff ff    	mov    -0x12b8(%rbp),%eax
    d572:	48 63 f0             	movslq %eax,%rsi
    d575:	8b 85 40 ed ff ff    	mov    -0x12c0(%rbp),%eax
    d57b:	48 98                	cltq   
    d57d:	8b 95 44 ed ff ff    	mov    -0x12bc(%rbp),%edx
    d583:	48 63 ca             	movslq %edx,%rcx
    d586:	48 89 c2             	mov    %rax,%rdx
    d589:	48 01 d2             	add    %rdx,%rdx
    d58c:	48 01 c2             	add    %rax,%rdx
    d58f:	48 8d 04 d5 00 00 00 	lea    0x0(,%rdx,8),%rax
    d596:	00 
    d597:	48 89 c2             	mov    %rax,%rdx
    d59a:	48 89 c8             	mov    %rcx,%rax
    d59d:	48 01 c0             	add    %rax,%rax
    d5a0:	48 01 c8             	add    %rcx,%rax
    d5a3:	48 01 c0             	add    %rax,%rax
    d5a6:	48 01 d0             	add    %rdx,%rax
    d5a9:	48 01 f0             	add    %rsi,%rax
    d5ac:	66 c7 84 45 c0 f0 ff 	movw   $0x9336,-0xf40(%rbp,%rax,2)
    d5b3:	ff 36 93 
    d5b6:	83 85 48 ed ff ff 01 	addl   $0x1,-0x12b8(%rbp)
    d5bd:	83 bd 48 ed ff ff 05 	cmpl   $0x5,-0x12b8(%rbp)
    d5c4:	7e a6                	jle    d56c <func_15+0x600>
    d5c6:	83 85 44 ed ff ff 01 	addl   $0x1,-0x12bc(%rbp)
    d5cd:	83 bd 44 ed ff ff 03 	cmpl   $0x3,-0x12bc(%rbp)
    d5d4:	7e 8a                	jle    d560 <func_15+0x5f4>
    d5d6:	83 85 40 ed ff ff 01 	addl   $0x1,-0x12c0(%rbp)
    d5dd:	83 bd 40 ed ff ff 00 	cmpl   $0x0,-0x12c0(%rbp)
    d5e4:	0f 8e 6a ff ff ff    	jle    d554 <func_15+0x5e8>
    d5ea:	c7 85 40 ed ff ff 00 	movl   $0x0,-0x12c0(%rbp)
    d5f1:	00 00 00 
    d5f4:	eb 19                	jmp    d60f <func_15+0x6a3>
    d5f6:	8b 85 40 ed ff ff    	mov    -0x12c0(%rbp),%eax
    d5fc:	48 98                	cltq   
    d5fe:	66 c7 84 45 dc ef ff 	movw   $0x9,-0x1024(%rbp,%rax,2)
    d605:	ff 09 00 
    d608:	83 85 40 ed ff ff 01 	addl   $0x1,-0x12c0(%rbp)
    d60f:	83 bd 40 ed ff ff 01 	cmpl   $0x1,-0x12c0(%rbp)
    d616:	7e de                	jle    d5f6 <func_15+0x68a>
    d618:	48 8b 05 69 31 01 00 	mov    0x13169(%rip),%rax        # 20788 <g_913>
    d61f:	48 8b 00             	mov    (%rax),%rax
    d622:	8b 00                	mov    (%rax),%eax
    d624:	41 89 c4             	mov    %eax,%r12d
    d627:	0f b6 85 ed ef ff ff 	movzbl -0x1013(%rbp),%eax
    d62e:	84 c0                	test   %al,%al
    d630:	0f 84 2b 01 00 00    	je     d761 <func_15+0x7f5>
    d636:	0f b7 85 9a ef ff ff 	movzwl -0x1066(%rbp),%eax
    d63d:	66 25 ff 07          	and    $0x7ff,%ax
    d641:	0f b7 d0             	movzwl %ax,%edx
    d644:	0f b6 85 9b ef ff ff 	movzbl -0x1065(%rbp),%eax
    d64b:	01 c0                	add    %eax,%eax
    d64d:	c0 f8 04             	sar    $0x4,%al
    d650:	89 c6                	mov    %eax,%esi
    d652:	0f b7 85 92 ef ff ff 	movzwl -0x106e(%rbp),%eax
    d659:	66 c1 e8 03          	shr    $0x3,%ax
    d65d:	0f b7 c0             	movzwl %ax,%eax
    d660:	0f b7 8d 94 ef ff ff 	movzwl -0x106c(%rbp),%ecx
    d667:	81 e1 ff 0f 00 00    	and    $0xfff,%ecx
    d66d:	48 c1 e1 0d          	shl    $0xd,%rcx
    d671:	48 09 c8             	or     %rcx,%rax
    d674:	31 f0                	xor    %esi,%eax
    d676:	c1 e0 04             	shl    $0x4,%eax
    d679:	c0 f8 04             	sar    $0x4,%al
    d67c:	83 e0 0f             	and    $0xf,%eax
    d67f:	8d 0c c5 00 00 00 00 	lea    0x0(,%rax,8),%ecx
    d686:	0f b6 85 9b ef ff ff 	movzbl -0x1065(%rbp),%eax
    d68d:	83 e0 87             	and    $0xffffff87,%eax
    d690:	09 c8                	or     %ecx,%eax
    d692:	88 85 9b ef ff ff    	mov    %al,-0x1065(%rbp)
    d698:	0f b6 85 9b ef ff ff 	movzbl -0x1065(%rbp),%eax
    d69f:	01 c0                	add    %eax,%eax
    d6a1:	c0 f8 04             	sar    $0x4,%al
    d6a4:	0f be c0             	movsbl %al,%eax
    d6a7:	89 d6                	mov    %edx,%esi
    d6a9:	89 c7                	mov    %eax,%edi
    d6ab:	e8 03 dd ff ff       	callq  b3b3 <safe_add_func_int16_t_s_s>
    d6b0:	0f bf d8             	movswl %ax,%ebx
    d6b3:	0f b7 85 8e ef ff ff 	movzwl -0x1072(%rbp),%eax
    d6ba:	c1 e0 02             	shl    $0x2,%eax
    d6bd:	66 c1 f8 02          	sar    $0x2,%ax
    d6c1:	0f b7 c0             	movzwl %ax,%eax
    d6c4:	be 04 45 00 00       	mov    $0x4504,%esi
    d6c9:	89 c7                	mov    %eax,%edi
    d6cb:	e8 6d e6 ff ff       	callq  bd3d <safe_mul_func_uint16_t_u_u>
    d6d0:	0f b7 c0             	movzwl %ax,%eax
    d6d3:	39 c3                	cmp    %eax,%ebx
    d6d5:	0f 9f c0             	setg   %al
    d6d8:	0f b6 c0             	movzbl %al,%eax
    d6db:	be 02 00 00 00       	mov    $0x2,%esi
    d6e0:	89 c7                	mov    %eax,%edi
    d6e2:	e8 93 e7 ff ff       	callq  be7a <safe_rshift_func_uint16_t_u_u>
    d6e7:	8b 85 96 ef ff ff    	mov    -0x106a(%rbp),%eax
    d6ed:	85 c0                	test   %eax,%eax
    d6ef:	0f 95 c0             	setne  %al
    d6f2:	c1 e0 04             	shl    $0x4,%eax
    d6f5:	c0 f8 04             	sar    $0x4,%al
    d6f8:	83 e0 0f             	and    $0xf,%eax
    d6fb:	8d 14 c5 00 00 00 00 	lea    0x0(,%rax,8),%edx
    d702:	0f b6 85 9b ef ff ff 	movzbl -0x1065(%rbp),%eax
    d709:	83 e0 87             	and    $0xffffff87,%eax
    d70c:	09 d0                	or     %edx,%eax
    d70e:	88 85 9b ef ff ff    	mov    %al,-0x1065(%rbp)
    d714:	0f b6 85 9b ef ff ff 	movzbl -0x1065(%rbp),%eax
    d71b:	01 c0                	add    %eax,%eax
    d71d:	c0 f8 04             	sar    $0x4,%al
    d720:	84 c0                	test   %al,%al
    d722:	74 12                	je     d736 <func_15+0x7ca>
    d724:	0f b6 85 54 f2 ff ff 	movzbl -0xdac(%rbp),%eax
    d72b:	84 c0                	test   %al,%al
    d72d:	74 07                	je     d736 <func_15+0x7ca>
    d72f:	b9 01 00 00 00       	mov    $0x1,%ecx
    d734:	eb 05                	jmp    d73b <func_15+0x7cf>
    d736:	b9 00 00 00 00       	mov    $0x0,%ecx
    d73b:	0f b7 85 92 ef ff ff 	movzwl -0x106e(%rbp),%eax
    d742:	66 c1 e8 03          	shr    $0x3,%ax
    d746:	0f b7 c0             	movzwl %ax,%eax
    d749:	0f b7 95 94 ef ff ff 	movzwl -0x106c(%rbp),%edx
    d750:	81 e2 ff 0f 00 00    	and    $0xfff,%edx
    d756:	48 c1 e2 0d          	shl    $0xd,%rdx
    d75a:	48 09 d0             	or     %rdx,%rax
    d75d:	21 c8                	and    %ecx,%eax
    d75f:	85 c0                	test   %eax,%eax
    d761:	44 89 e6             	mov    %r12d,%esi
    d764:	bf 00 00 00 00       	mov    $0x0,%edi
    d769:	e8 b7 e7 ff ff       	callq  bf25 <safe_div_func_uint32_t_u_u>
    d76e:	0f b6 95 ed ef ff ff 	movzbl -0x1013(%rbp),%edx
    d775:	0f b6 d2             	movzbl %dl,%edx
    d778:	39 d0                	cmp    %edx,%eax
    d77a:	0f 97 c0             	seta   %al
    d77d:	0f b6 d0             	movzbl %al,%edx
    d780:	0f b6 85 92 ef ff ff 	movzbl -0x106e(%rbp),%eax
    d787:	c1 e0 05             	shl    $0x5,%eax
    d78a:	c0 f8 05             	sar    $0x5,%al
    d78d:	0f be c0             	movsbl %al,%eax
    d790:	39 c2                	cmp    %eax,%edx
    d792:	0f 94 c0             	sete   %al
    d795:	0f b6 c0             	movzbl %al,%eax
    d798:	be 01 00 00 00       	mov    $0x1,%esi
    d79d:	89 c7                	mov    %eax,%edi
    d79f:	e8 0a e4 ff ff       	callq  bbae <safe_mod_func_uint8_t_u_u>
    d7a4:	48 8b 05 d5 2f 01 00 	mov    0x12fd5(%rip),%rax        # 20780 <g_882>
    d7ab:	48 8b 00             	mov    (%rax),%rax
    d7ae:	48 8b 00             	mov    (%rax),%rax
    d7b1:	48 8b 10             	mov    (%rax),%rdx
    d7b4:	0f b6 05 d5 f9 00 00 	movzbl 0xf9d5(%rip),%eax        # 1d190 <g_1304>
    d7bb:	0f b6 c0             	movzbl %al,%eax
    d7be:	48 39 c2             	cmp    %rax,%rdx
    d7c1:	0f 97 c0             	seta   %al
    d7c4:	0f b6 d0             	movzbl %al,%edx
    d7c7:	8b 85 38 ed ff ff    	mov    -0x12c8(%rbp),%eax
    d7cd:	39 c2                	cmp    %eax,%edx
    d7cf:	0f 8d 72 25 00 00    	jge    fd47 <func_15+0x2ddb>
    d7d5:	48 c7 85 38 ee ff ff 	movq   $0x0,-0x11c8(%rbp)
    d7dc:	00 00 00 00 
    d7e0:	48 8d 85 98 ed ff ff 	lea    -0x1268(%rbp),%rax
    d7e7:	48 89 85 40 ee ff ff 	mov    %rax,-0x11c0(%rbp)
    d7ee:	c7 85 10 f0 ff ff 0d 	movl   $0x1c4060d,-0xff0(%rbp)
    d7f5:	06 c4 01 
    d7f8:	c7 85 14 f0 ff ff 0d 	movl   $0x1c4060d,-0xfec(%rbp)
    d7ff:	06 c4 01 
    d802:	c7 85 18 f0 ff ff fd 	movl   $0xfffffffd,-0xfe8(%rbp)
    d809:	ff ff ff 
    d80c:	c7 85 1c f0 ff ff 0d 	movl   $0x1c4060d,-0xfe4(%rbp)
    d813:	06 c4 01 
    d816:	c7 85 20 f0 ff ff 0d 	movl   $0x1c4060d,-0xfe0(%rbp)
    d81d:	06 c4 01 
    d820:	c7 85 24 f0 ff ff fd 	movl   $0xfffffffd,-0xfdc(%rbp)
    d827:	ff ff ff 
    d82a:	48 c7 85 d0 ed ff ff 	movq   $0x0,-0x1230(%rbp)
    d831:	00 00 00 00 
    d835:	48 8d 85 b0 f5 ff ff 	lea    -0xa50(%rbp),%rax
    d83c:	48 8d 15 9d b9 00 00 	lea    0xb99d(%rip),%rdx        # 191e0 <g_1850+0x138>
    d843:	b9 28 00 00 00       	mov    $0x28,%ecx
    d848:	48 89 c7             	mov    %rax,%rdi
    d84b:	48 89 d6             	mov    %rdx,%rsi
    d84e:	f3 48 a5             	rep movsq %ds:(%rsi),%es:(%rdi)
    d851:	c7 85 4c ed ff ff 5b 	movl   $0x332285b,-0x12b4(%rbp)
    d858:	28 32 03 
    d85b:	48 8d 05 2e 2e 01 00 	lea    0x12e2e(%rip),%rax        # 20690 <g_225>
    d862:	48 89 85 90 f0 ff ff 	mov    %rax,-0xf70(%rbp)
    d869:	48 8d 05 20 2e 01 00 	lea    0x12e20(%rip),%rax        # 20690 <g_225>
    d870:	48 89 85 98 f0 ff ff 	mov    %rax,-0xf68(%rbp)
    d877:	48 8d 05 12 2e 01 00 	lea    0x12e12(%rip),%rax        # 20690 <g_225>
    d87e:	48 89 85 a0 f0 ff ff 	mov    %rax,-0xf60(%rbp)
    d885:	48 8d 05 04 2e 01 00 	lea    0x12e04(%rip),%rax        # 20690 <g_225>
    d88c:	48 89 85 a8 f0 ff ff 	mov    %rax,-0xf58(%rbp)
    d893:	48 8d 05 f6 2d 01 00 	lea    0x12df6(%rip),%rax        # 20690 <g_225>
    d89a:	48 89 85 b0 f0 ff ff 	mov    %rax,-0xf50(%rbp)
    d8a1:	48 8d 05 50 2f 01 00 	lea    0x12f50(%rip),%rax        # 207f8 <g_1155>
    d8a8:	48 89 85 48 ee ff ff 	mov    %rax,-0x11b8(%rbp)
    d8af:	c7 85 74 ed ff ff 00 	movl   $0x0,-0x128c(%rbp)
    d8b6:	00 00 00 
    d8b9:	48 8d 05 a8 33 01 00 	lea    0x133a8(%rip),%rax        # 20c68 <g_1734>
    d8c0:	48 89 85 50 ee ff ff 	mov    %rax,-0x11b0(%rbp)
    d8c7:	48 8d 05 02 f9 00 00 	lea    0xf902(%rip),%rax        # 1d1d0 <g_1757>
    d8ce:	48 89 85 58 ee ff ff 	mov    %rax,-0x11a8(%rbp)
    d8d5:	48 8d 85 10 f2 ff ff 	lea    -0xdf0(%rbp),%rax
    d8dc:	48 83 c0 44          	add    $0x44,%rax
    d8e0:	48 89 85 60 ee ff ff 	mov    %rax,-0x11a0(%rbp)
    d8e7:	48 8d 05 92 f8 00 00 	lea    0xf892(%rip),%rax        # 1d180 <g_1071>
    d8ee:	48 89 85 68 ee ff ff 	mov    %rax,-0x1198(%rbp)
    d8f5:	48 8d 85 32 ed ff ff 	lea    -0x12ce(%rbp),%rax
    d8fc:	48 89 85 70 ee ff ff 	mov    %rax,-0x1190(%rbp)
    d903:	c7 85 78 ed ff ff 00 	movl   $0x0,-0x1288(%rbp)
    d90a:	00 00 00 
    d90d:	48 8d 05 94 f8 00 00 	lea    0xf894(%rip),%rax        # 1d1a8 <g_1379>
    d914:	48 89 85 78 ee ff ff 	mov    %rax,-0x1188(%rbp)
    d91b:	48 8d 85 dc ef ff ff 	lea    -0x1024(%rbp),%rax
    d922:	48 83 c0 02          	add    $0x2,%rax
    d926:	48 89 85 80 ee ff ff 	mov    %rax,-0x1180(%rbp)
    d92d:	c7 85 50 ed ff ff 00 	movl   $0x0,-0x12b0(%rbp)
    d934:	00 00 00 
    d937:	eb 19                	jmp    d952 <func_15+0x9e6>
    d939:	8b 85 50 ed ff ff    	mov    -0x12b0(%rbp),%eax
    d93f:	48 98                	cltq   
    d941:	66 c7 84 45 f0 ef ff 	movw   $0xb956,-0x1010(%rbp,%rax,2)
    d948:	ff 56 b9 
    d94b:	83 85 50 ed ff ff 01 	addl   $0x1,-0x12b0(%rbp)
    d952:	83 bd 50 ed ff ff 09 	cmpl   $0x9,-0x12b0(%rbp)
    d959:	7e de                	jle    d939 <func_15+0x9cd>
    d95b:	0f b7 85 aa ef ff ff 	movzwl -0x1056(%rbp),%eax
    d962:	66 25 00 c0          	and    $0xc000,%ax
    d966:	66 0d d1 3f          	or     $0x3fd1,%ax
    d96a:	66 89 85 aa ef ff ff 	mov    %ax,-0x1056(%rbp)
    d971:	66 c7 85 ac ef ff ff 	movw   $0xf0cb,-0x1054(%rbp)
    d978:	cb f0 
    d97a:	0f b6 85 ae ef ff ff 	movzbl -0x1052(%rbp),%eax
    d981:	83 e0 f8             	and    $0xfffffff8,%eax
    d984:	83 c8 01             	or     $0x1,%eax
    d987:	88 85 ae ef ff ff    	mov    %al,-0x1052(%rbp)
    d98d:	0f b7 85 ae ef ff ff 	movzwl -0x1052(%rbp),%eax
    d994:	83 e0 07             	and    $0x7,%eax
    d997:	66 0d f8 9a          	or     $0x9af8,%ax
    d99b:	66 89 85 ae ef ff ff 	mov    %ax,-0x1052(%rbp)
    d9a2:	0f b7 85 b0 ef ff ff 	movzwl -0x1050(%rbp),%eax
    d9a9:	66 25 00 f0          	and    $0xf000,%ax
    d9ad:	66 89 85 b0 ef ff ff 	mov    %ax,-0x1050(%rbp)
    d9b4:	c7 85 b2 ef ff ff 16 	movl   $0xc8f91416,-0x104e(%rbp)
    d9bb:	14 f9 c8 
    d9be:	0f b7 85 b6 ef ff ff 	movzwl -0x104a(%rbp),%eax
    d9c5:	66 25 00 f8          	and    $0xf800,%ax
    d9c9:	83 c8 02             	or     $0x2,%eax
    d9cc:	66 89 85 b6 ef ff ff 	mov    %ax,-0x104a(%rbp)
    d9d3:	0f b6 85 b7 ef ff ff 	movzbl -0x1049(%rbp),%eax
    d9da:	83 e0 87             	and    $0xffffff87,%eax
    d9dd:	83 c8 70             	or     $0x70,%eax
    d9e0:	88 85 b7 ef ff ff    	mov    %al,-0x1049(%rbp)
    d9e6:	c7 85 a0 f2 ff ff 05 	movl   $0x5,-0xd60(%rbp)
    d9ed:	00 00 00 
    d9f0:	c7 85 a4 f2 ff ff f8 	movl   $0x6755d9f8,-0xd5c(%rbp)
    d9f7:	d9 55 67 
    d9fa:	c7 85 a8 f2 ff ff 05 	movl   $0x5,-0xd58(%rbp)
    da01:	00 00 00 
    da04:	c7 85 ac f2 ff ff f8 	movl   $0x6755d9f8,-0xd54(%rbp)
    da0b:	d9 55 67 
    da0e:	c7 85 b0 f2 ff ff 05 	movl   $0x5,-0xd50(%rbp)
    da15:	00 00 00 
    da18:	c7 85 b4 f2 ff ff f8 	movl   $0x6755d9f8,-0xd4c(%rbp)
    da1f:	d9 55 67 
    da22:	c7 85 b8 f2 ff ff 05 	movl   $0x5,-0xd48(%rbp)
    da29:	00 00 00 
    da2c:	c7 85 bc f2 ff ff f8 	movl   $0x6755d9f8,-0xd44(%rbp)
    da33:	d9 55 67 
    da36:	c7 85 c0 f2 ff ff 05 	movl   $0x5,-0xd40(%rbp)
    da3d:	00 00 00 
    da40:	c7 85 c4 f2 ff ff f8 	movl   $0x6755d9f8,-0xd3c(%rbp)
    da47:	d9 55 67 
    da4a:	c7 85 c8 f2 ff ff 05 	movl   $0x5,-0xd38(%rbp)
    da51:	00 00 00 
    da54:	c7 85 cc f2 ff ff f8 	movl   $0x6755d9f8,-0xd34(%rbp)
    da5b:	d9 55 67 
    da5e:	c7 85 d0 f2 ff ff 05 	movl   $0x5,-0xd30(%rbp)
    da65:	00 00 00 
    da68:	c7 85 d4 f2 ff ff f8 	movl   $0x6755d9f8,-0xd2c(%rbp)
    da6f:	d9 55 67 
    da72:	c7 85 d8 f2 ff ff 05 	movl   $0x5,-0xd28(%rbp)
    da79:	00 00 00 
    da7c:	c7 85 dc f2 ff ff f8 	movl   $0x6755d9f8,-0xd24(%rbp)
    da83:	d9 55 67 
    da86:	c7 85 e0 f2 ff ff 05 	movl   $0x5,-0xd20(%rbp)
    da8d:	00 00 00 
    da90:	c7 85 e4 f2 ff ff f8 	movl   $0x6755d9f8,-0xd1c(%rbp)
    da97:	d9 55 67 
    da9a:	c7 85 e8 f2 ff ff 05 	movl   $0x5,-0xd18(%rbp)
    daa1:	00 00 00 
    daa4:	c7 85 ec f2 ff ff f8 	movl   $0x6755d9f8,-0xd14(%rbp)
    daab:	d9 55 67 
    daae:	c7 85 f0 f2 ff ff 05 	movl   $0x5,-0xd10(%rbp)
    dab5:	00 00 00 
    dab8:	c7 85 f4 f2 ff ff f8 	movl   $0x6755d9f8,-0xd0c(%rbp)
    dabf:	d9 55 67 
    dac2:	c7 85 f8 f2 ff ff 05 	movl   $0x5,-0xd08(%rbp)
    dac9:	00 00 00 
    dacc:	c7 85 fc f2 ff ff f8 	movl   $0x6755d9f8,-0xd04(%rbp)
    dad3:	d9 55 67 
    dad6:	c7 85 00 f3 ff ff 05 	movl   $0x5,-0xd00(%rbp)
    dadd:	00 00 00 
    dae0:	c7 85 04 f3 ff ff f8 	movl   $0x6755d9f8,-0xcfc(%rbp)
    dae7:	d9 55 67 
    daea:	c7 85 08 f3 ff ff 05 	movl   $0x5,-0xcf8(%rbp)
    daf1:	00 00 00 
    daf4:	c7 85 0c f3 ff ff f8 	movl   $0x6755d9f8,-0xcf4(%rbp)
    dafb:	d9 55 67 
    dafe:	c7 85 10 f3 ff ff 05 	movl   $0x5,-0xcf0(%rbp)
    db05:	00 00 00 
    db08:	c7 85 14 f3 ff ff f8 	movl   $0x6755d9f8,-0xcec(%rbp)
    db0f:	d9 55 67 
    db12:	c7 85 18 f3 ff ff 05 	movl   $0x5,-0xce8(%rbp)
    db19:	00 00 00 
    db1c:	c7 85 1c f3 ff ff f8 	movl   $0x6755d9f8,-0xce4(%rbp)
    db23:	d9 55 67 
    db26:	c7 85 20 f3 ff ff 05 	movl   $0x5,-0xce0(%rbp)
    db2d:	00 00 00 
    db30:	c7 85 24 f3 ff ff f8 	movl   $0x6755d9f8,-0xcdc(%rbp)
    db37:	d9 55 67 
    db3a:	c7 85 28 f3 ff ff 05 	movl   $0x5,-0xcd8(%rbp)
    db41:	00 00 00 
    db44:	c7 85 54 ed ff ff 00 	movl   $0x0,-0x12ac(%rbp)
    db4b:	00 00 00 
    db4e:	48 8d 05 f3 2b 01 00 	lea    0x12bf3(%rip),%rax        # 20748 <g_628>
    db55:	48 89 85 88 ee ff ff 	mov    %rax,-0x1178(%rbp)
    db5c:	48 8d 05 e5 2c 01 00 	lea    0x12ce5(%rip),%rax        # 20848 <g_1468>
    db63:	48 89 85 90 ee ff ff 	mov    %rax,-0x1170(%rbp)
    db6a:	c6 85 30 ed ff ff ac 	movb   $0xac,-0x12d0(%rbp)
    db71:	48 c7 85 d8 ed ff ff 	movq   $0x0,-0x1228(%rbp)
    db78:	00 00 00 00 
    db7c:	48 8d 05 a5 30 01 00 	lea    0x130a5(%rip),%rax        # 20c28 <g_1517>
    db83:	48 89 85 98 ee ff ff 	mov    %rax,-0x1168(%rbp)
    db8a:	48 8d 05 9f 30 01 00 	lea    0x1309f(%rip),%rax        # 20c30 <g_1520>
    db91:	48 89 85 a0 ee ff ff 	mov    %rax,-0x1160(%rbp)
    db98:	48 8d 05 f1 f4 00 00 	lea    0xf4f1(%rip),%rax        # 1d090 <g_112>
    db9f:	48 89 85 a8 ee ff ff 	mov    %rax,-0x1158(%rbp)
    dba6:	48 8d 85 60 f8 ff ff 	lea    -0x7a0(%rbp),%rax
    dbad:	48 05 18 01 00 00    	add    $0x118,%rax
    dbb3:	48 89 85 e0 ed ff ff 	mov    %rax,-0x1220(%rbp)
    dbba:	48 8d 85 e0 ed ff ff 	lea    -0x1220(%rbp),%rax
    dbc1:	48 89 85 b0 ee ff ff 	mov    %rax,-0x1150(%rbp)
    dbc8:	48 8d 05 25 f5 00 00 	lea    0xf525(%rip),%rax        # 1d0f4 <g_558>
    dbcf:	48 89 85 30 f3 ff ff 	mov    %rax,-0xcd0(%rbp)
    dbd6:	48 8d 05 53 f4 00 00 	lea    0xf453(%rip),%rax        # 1d030 <g_36>
    dbdd:	48 89 85 38 f3 ff ff 	mov    %rax,-0xcc8(%rbp)
    dbe4:	48 8d 05 e5 34 01 00 	lea    0x134e5(%rip),%rax        # 210d0 <g_617>
    dbeb:	48 89 85 40 f3 ff ff 	mov    %rax,-0xcc0(%rbp)
    dbf2:	48 8d 05 37 f4 00 00 	lea    0xf437(%rip),%rax        # 1d030 <g_36>
    dbf9:	48 89 85 48 f3 ff ff 	mov    %rax,-0xcb8(%rbp)
    dc00:	48 8d 05 29 f4 00 00 	lea    0xf429(%rip),%rax        # 1d030 <g_36>
    dc07:	48 89 85 50 f3 ff ff 	mov    %rax,-0xcb0(%rbp)
    dc0e:	48 8d 05 bb 34 01 00 	lea    0x134bb(%rip),%rax        # 210d0 <g_617>
    dc15:	48 89 85 58 f3 ff ff 	mov    %rax,-0xca8(%rbp)
    dc1c:	48 8d 05 ad 34 01 00 	lea    0x134ad(%rip),%rax        # 210d0 <g_617>
    dc23:	48 89 85 60 f3 ff ff 	mov    %rax,-0xca0(%rbp)
    dc2a:	48 8d 05 9f 34 01 00 	lea    0x1349f(%rip),%rax        # 210d0 <g_617>
    dc31:	48 89 85 68 f3 ff ff 	mov    %rax,-0xc98(%rbp)
    dc38:	48 8d 05 b5 f4 00 00 	lea    0xf4b5(%rip),%rax        # 1d0f4 <g_558>
    dc3f:	48 89 85 70 f3 ff ff 	mov    %rax,-0xc90(%rbp)
    dc46:	48 8d 05 a7 f4 00 00 	lea    0xf4a7(%rip),%rax        # 1d0f4 <g_558>
    dc4d:	48 89 85 78 f3 ff ff 	mov    %rax,-0xc88(%rbp)
    dc54:	48 8d 05 d5 f3 00 00 	lea    0xf3d5(%rip),%rax        # 1d030 <g_36>
    dc5b:	48 89 85 80 f3 ff ff 	mov    %rax,-0xc80(%rbp)
    dc62:	48 8d 05 67 34 01 00 	lea    0x13467(%rip),%rax        # 210d0 <g_617>
    dc69:	48 89 85 88 f3 ff ff 	mov    %rax,-0xc78(%rbp)
    dc70:	48 8d 05 b9 f3 00 00 	lea    0xf3b9(%rip),%rax        # 1d030 <g_36>
    dc77:	48 89 85 90 f3 ff ff 	mov    %rax,-0xc70(%rbp)
    dc7e:	48 8d 05 4b 34 01 00 	lea    0x1344b(%rip),%rax        # 210d0 <g_617>
    dc85:	48 89 85 98 f3 ff ff 	mov    %rax,-0xc68(%rbp)
    dc8c:	48 8d 05 9d f3 00 00 	lea    0xf39d(%rip),%rax        # 1d030 <g_36>
    dc93:	48 89 85 a0 f3 ff ff 	mov    %rax,-0xc60(%rbp)
    dc9a:	48 8d 05 8f f3 00 00 	lea    0xf38f(%rip),%rax        # 1d030 <g_36>
    dca1:	48 89 85 a8 f3 ff ff 	mov    %rax,-0xc58(%rbp)
    dca8:	48 8d 05 81 f3 00 00 	lea    0xf381(%rip),%rax        # 1d030 <g_36>
    dcaf:	48 89 85 b0 f3 ff ff 	mov    %rax,-0xc50(%rbp)
    dcb6:	48 8d 05 73 f3 00 00 	lea    0xf373(%rip),%rax        # 1d030 <g_36>
    dcbd:	48 89 85 b8 f3 ff ff 	mov    %rax,-0xc48(%rbp)
    dcc4:	48 8d 05 65 f3 00 00 	lea    0xf365(%rip),%rax        # 1d030 <g_36>
    dccb:	48 89 85 c0 f3 ff ff 	mov    %rax,-0xc40(%rbp)
    dcd2:	48 8d 05 57 f3 00 00 	lea    0xf357(%rip),%rax        # 1d030 <g_36>
    dcd9:	48 89 85 c8 f3 ff ff 	mov    %rax,-0xc38(%rbp)
    dce0:	48 8d 05 f9 2b 01 00 	lea    0x12bf9(%rip),%rax        # 208e0 <g_1478+0x80>
    dce7:	48 89 85 b8 ee ff ff 	mov    %rax,-0x1148(%rbp)
    dcee:	48 c7 85 c0 ee ff ff 	movq   $0x0,-0x1140(%rbp)
    dcf5:	00 00 00 00 
    dcf9:	c7 85 58 ed ff ff 00 	movl   $0x0,-0x12a8(%rbp)
    dd00:	00 00 00 
    dd03:	48 c7 85 c8 ee ff ff 	movq   $0x9,-0x1138(%rbp)
    dd0a:	09 00 00 00 
    dd0e:	c7 85 5c ed ff ff 00 	movl   $0x0,-0x12a4(%rbp)
    dd15:	00 00 00 
    dd18:	e9 8b 00 00 00       	jmpq   dda8 <func_15+0xe3c>
    dd1d:	c7 85 60 ed ff ff 00 	movl   $0x0,-0x12a0(%rbp)
    dd24:	00 00 00 
    dd27:	eb 6f                	jmp    dd98 <func_15+0xe2c>
    dd29:	c7 85 64 ed ff ff 00 	movl   $0x0,-0x129c(%rbp)
    dd30:	00 00 00 
    dd33:	eb 53                	jmp    dd88 <func_15+0xe1c>
    dd35:	8b 85 64 ed ff ff    	mov    -0x129c(%rbp),%eax
    dd3b:	48 63 f0             	movslq %eax,%rsi
    dd3e:	8b 85 5c ed ff ff    	mov    -0x12a4(%rbp),%eax
    dd44:	48 63 d0             	movslq %eax,%rdx
    dd47:	8b 85 60 ed ff ff    	mov    -0x12a0(%rbp),%eax
    dd4d:	48 63 c8             	movslq %eax,%rcx
    dd50:	48 89 d0             	mov    %rdx,%rax
    dd53:	48 c1 e0 03          	shl    $0x3,%rax
    dd57:	48 01 d0             	add    %rdx,%rax
    dd5a:	48 c1 e0 02          	shl    $0x2,%rax
    dd5e:	48 29 d0             	sub    %rdx,%rax
    dd61:	48 89 ca             	mov    %rcx,%rdx
    dd64:	48 c1 e2 03          	shl    $0x3,%rdx
    dd68:	48 29 ca             	sub    %rcx,%rdx
    dd6b:	48 01 d0             	add    %rdx,%rax
    dd6e:	48 8d 14 30          	lea    (%rax,%rsi,1),%rdx
    dd72:	48 8d 85 d8 ed ff ff 	lea    -0x1228(%rbp),%rax
    dd79:	48 89 84 d5 90 f4 ff 	mov    %rax,-0xb70(%rbp,%rdx,8)
    dd80:	ff 
    dd81:	83 85 64 ed ff ff 01 	addl   $0x1,-0x129c(%rbp)
    dd88:	83 bd 64 ed ff ff 06 	cmpl   $0x6,-0x129c(%rbp)
    dd8f:	7e a4                	jle    dd35 <func_15+0xdc9>
    dd91:	83 85 60 ed ff ff 01 	addl   $0x1,-0x12a0(%rbp)
    dd98:	83 bd 60 ed ff ff 04 	cmpl   $0x4,-0x12a0(%rbp)
    dd9f:	7e 88                	jle    dd29 <func_15+0xdbd>
    dda1:	83 85 5c ed ff ff 01 	addl   $0x1,-0x12a4(%rbp)
    dda8:	83 bd 5c ed ff ff 00 	cmpl   $0x0,-0x12a4(%rbp)
    ddaf:	0f 8e 68 ff ff ff    	jle    dd1d <func_15+0xdb1>
    ddb5:	66 c7 05 7a f2 00 00 	movw   $0x2,0xf27a(%rip)        # 1d038 <g_53>
    ddbc:	02 00 
    ddbe:	e9 7d 0a 00 00       	jmpq   e840 <func_15+0x18d4>
    ddc3:	48 c7 85 68 ef ff ff 	movq   $0x0,-0x1098(%rbp)
    ddca:	00 00 00 00 
    ddce:	48 8d 05 63 29 01 00 	lea    0x12963(%rip),%rax        # 20738 <g_622>
    ddd5:	48 89 85 e8 ed ff ff 	mov    %rax,-0x1218(%rbp)
    dddc:	48 c7 85 70 ef ff ff 	movq   $0x0,-0x1090(%rbp)
    dde3:	00 00 00 00 
    dde7:	48 8d 85 f0 f6 ff ff 	lea    -0x910(%rbp),%rax
    ddee:	48 8d 15 8b fb 00 00 	lea    0xfb8b(%rip),%rdx        # 1d980 <g_1942+0x770>
    ddf5:	b9 2d 00 00 00       	mov    $0x2d,%ecx
    ddfa:	48 89 c7             	mov    %rax,%rdi
    ddfd:	48 89 d6             	mov    %rdx,%rsi
    de00:	f3 48 a5             	rep movsq %ds:(%rsi),%es:(%rdi)
    de03:	c7 85 68 ed ff ff 00 	movl   $0x0,-0x1298(%rbp)
    de0a:	00 00 00 
    de0d:	eb 1e                	jmp    de2d <func_15+0xec1>
    de0f:	8b 85 68 ed ff ff    	mov    -0x1298(%rbp),%eax
    de15:	48 98                	cltq   
    de17:	48 8d 15 72 f2 00 00 	lea    0xf272(%rip),%rdx        # 1d090 <g_112>
    de1e:	48 89 94 c5 20 f1 ff 	mov    %rdx,-0xee0(%rbp,%rax,8)
    de25:	ff 
    de26:	83 85 68 ed ff ff 01 	addl   $0x1,-0x1298(%rbp)
    de2d:	83 bd 68 ed ff ff 08 	cmpl   $0x8,-0x1298(%rbp)
    de34:	7e d9                	jle    de0f <func_15+0xea3>
    de36:	c7 85 68 ed ff ff 00 	movl   $0x0,-0x1298(%rbp)
    de3d:	00 00 00 
    de40:	eb 1e                	jmp    de60 <func_15+0xef4>
    de42:	8b 85 68 ed ff ff    	mov    -0x1298(%rbp),%eax
    de48:	48 98                	cltq   
    de4a:	48 8d 15 9f f2 00 00 	lea    0xf29f(%rip),%rdx        # 1d0f0 <g_485>
    de51:	48 89 94 c5 30 f0 ff 	mov    %rdx,-0xfd0(%rbp,%rax,8)
    de58:	ff 
    de59:	83 85 68 ed ff ff 01 	addl   $0x1,-0x1298(%rbp)
    de60:	83 bd 68 ed ff ff 02 	cmpl   $0x2,-0x1298(%rbp)
    de67:	7e d9                	jle    de42 <func_15+0xed6>
    de69:	c7 85 68 ed ff ff 00 	movl   $0x0,-0x1298(%rbp)
    de70:	00 00 00 
    de73:	eb 1e                	jmp    de93 <func_15+0xf27>
    de75:	8b 85 68 ed ff ff    	mov    -0x1298(%rbp),%eax
    de7b:	48 98                	cltq   
    de7d:	48 8d 15 74 29 01 00 	lea    0x12974(%rip),%rdx        # 207f8 <g_1155>
    de84:	48 89 94 c5 70 f0 ff 	mov    %rdx,-0xf90(%rbp,%rax,8)
    de8b:	ff 
    de8c:	83 85 68 ed ff ff 01 	addl   $0x1,-0x1298(%rbp)
    de93:	83 bd 68 ed ff ff 03 	cmpl   $0x3,-0x1298(%rbp)
    de9a:	7e d9                	jle    de75 <func_15+0xf09>
    de9c:	48 8b 9d 70 f0 ff ff 	mov    -0xf90(%rbp),%rbx
    dea3:	0f b7 05 66 f2 00 00 	movzwl 0xf266(%rip),%eax        # 1d110 <g_757>
    deaa:	0f b7 d0             	movzwl %ax,%edx
    dead:	48 83 bd f8 ed ff ff 	cmpq   $0x0,-0x1208(%rbp)
    deb4:	00 
    deb5:	75 11                	jne    dec8 <func_15+0xf5c>
    deb7:	8b 85 d4 f6 ff ff    	mov    -0x92c(%rbp),%eax
    debd:	85 c0                	test   %eax,%eax
    debf:	74 07                	je     dec8 <func_15+0xf5c>
    dec1:	b8 01 00 00 00       	mov    $0x1,%eax
    dec6:	eb 05                	jmp    decd <func_15+0xf61>
    dec8:	b8 00 00 00 00       	mov    $0x0,%eax
    decd:	89 85 0c f3 ff ff    	mov    %eax,-0xcf4(%rbp)
    ded3:	8b 85 0c f3 ff ff    	mov    -0xcf4(%rbp),%eax
    ded9:	0f b7 c0             	movzwl %ax,%eax
    dedc:	89 d6                	mov    %edx,%esi
    dede:	89 c7                	mov    %eax,%edi
    dee0:	e8 a9 de ff ff       	callq  bd8e <safe_div_func_uint16_t_u_u>
    dee5:	0f b7 f8             	movzwl %ax,%edi
    dee8:	0f b6 85 9b ef ff ff 	movzbl -0x1065(%rbp),%eax
    deef:	83 e0 87             	and    $0xffffff87,%eax
    def2:	83 c8 48             	or     $0x48,%eax
    def5:	88 85 9b ef ff ff    	mov    %al,-0x1065(%rbp)
    defb:	0f b7 85 8e ef ff ff 	movzwl -0x1072(%rbp),%eax
    df02:	c1 e0 02             	shl    $0x2,%eax
    df05:	66 c1 f8 02          	sar    $0x2,%ax
    df09:	0f bf d0             	movswl %ax,%edx
    df0c:	48 8b 85 aa ef ff ff 	mov    -0x1056(%rbp),%rax
    df13:	0f b7 8d b2 ef ff ff 	movzwl -0x104e(%rbp),%ecx
    df1a:	0f b7 b5 b4 ef ff ff 	movzwl -0x104c(%rbp),%esi
    df21:	48 c1 e6 10          	shl    $0x10,%rsi
    df25:	48 09 ce             	or     %rcx,%rsi
    df28:	0f b7 8d b6 ef ff ff 	movzwl -0x104a(%rbp),%ecx
    df2f:	48 c1 e1 20          	shl    $0x20,%rcx
    df33:	48 09 ce             	or     %rcx,%rsi
    df36:	49 89 d9             	mov    %rbx,%r9
    df39:	41 89 f8             	mov    %edi,%r8d
    df3c:	48 8d 0d bd 28 01 00 	lea    0x128bd(%rip),%rcx        # 20800 <g_1159>
    df43:	48 89 c7             	mov    %rax,%rdi
    df46:	e8 cc 26 00 00       	callq  10617 <func_22>
    df4b:	b8 00 00 00 00       	mov    $0x0,%eax
    df50:	09 85 54 ed ff ff    	or     %eax,-0x12ac(%rbp)
    df56:	8b 85 54 ed ff ff    	mov    -0x12ac(%rbp),%eax
    df5c:	48 98                	cltq   
    df5e:	48 be 2a 89 5d 50 31 	movabs $0x3cb51331505d892a,%rsi
    df65:	13 b5 3c 
    df68:	48 89 c7             	mov    %rax,%rdi
    df6b:	e8 87 da ff ff       	callq  b9f7 <safe_div_func_int64_t_s_s>
    df70:	48 85 c0             	test   %rax,%rax
    df73:	0f 84 bd 02 00 00    	je     e236 <func_15+0x12ca>
    df79:	48 8d 05 d0 f0 00 00 	lea    0xf0d0(%rip),%rax        # 1d050 <g_92>
    df80:	48 89 85 78 ef ff ff 	mov    %rax,-0x1088(%rbp)
    df87:	c7 85 94 ed ff ff 00 	movl   $0x0,-0x126c(%rbp)
    df8e:	00 00 00 
    df91:	c7 85 c0 f1 ff ff fc 	movl   $0xfffffffc,-0xe40(%rbp)
    df98:	ff ff ff 
    df9b:	c7 85 c4 f1 ff ff fc 	movl   $0xfffffffc,-0xe3c(%rbp)
    dfa2:	ff ff ff 
    dfa5:	c7 85 c8 f1 ff ff fc 	movl   $0xfffffffc,-0xe38(%rbp)
    dfac:	ff ff ff 
    dfaf:	c7 85 cc f1 ff ff fc 	movl   $0xfffffffc,-0xe34(%rbp)
    dfb6:	ff ff ff 
    dfb9:	c7 85 d0 f1 ff ff fc 	movl   $0xfffffffc,-0xe30(%rbp)
    dfc0:	ff ff ff 
    dfc3:	c7 85 d4 f1 ff ff fc 	movl   $0xfffffffc,-0xe2c(%rbp)
    dfca:	ff ff ff 
    dfcd:	c7 85 d8 f1 ff ff fc 	movl   $0xfffffffc,-0xe28(%rbp)
    dfd4:	ff ff ff 
    dfd7:	c7 85 dc f1 ff ff fc 	movl   $0xfffffffc,-0xe24(%rbp)
    dfde:	ff ff ff 
    dfe1:	c7 85 e0 f1 ff ff fc 	movl   $0xfffffffc,-0xe20(%rbp)
    dfe8:	ff ff ff 
    dfeb:	c7 85 e4 f1 ff ff fc 	movl   $0xfffffffc,-0xe1c(%rbp)
    dff2:	ff ff ff 
    dff5:	c7 85 e8 f1 ff ff fc 	movl   $0xfffffffc,-0xe18(%rbp)
    dffc:	ff ff ff 
    dfff:	c7 85 ec f1 ff ff fc 	movl   $0xfffffffc,-0xe14(%rbp)
    e006:	ff ff ff 
    e009:	c7 85 f0 f1 ff ff fc 	movl   $0xfffffffc,-0xe10(%rbp)
    e010:	ff ff ff 
    e013:	c7 85 f4 f1 ff ff fc 	movl   $0xfffffffc,-0xe0c(%rbp)
    e01a:	ff ff ff 
    e01d:	c7 85 f8 f1 ff ff fc 	movl   $0xfffffffc,-0xe08(%rbp)
    e024:	ff ff ff 
    e027:	c7 85 fc f1 ff ff fc 	movl   $0xfffffffc,-0xe04(%rbp)
    e02e:	ff ff ff 
    e031:	c7 85 00 f2 ff ff fc 	movl   $0xfffffffc,-0xe00(%rbp)
    e038:	ff ff ff 
    e03b:	c7 85 04 f2 ff ff fc 	movl   $0xfffffffc,-0xdfc(%rbp)
    e042:	ff ff ff 
    e045:	83 bd 54 ed ff ff 00 	cmpl   $0x0,-0x12ac(%rbp)
    e04c:	0f 84 f9 00 00 00    	je     e14b <func_15+0x11df>
    e052:	48 8b 05 17 27 01 00 	mov    0x12717(%rip),%rax        # 20770 <g_794>
    e059:	48 8b 00             	mov    (%rax),%rax
    e05c:	48 8b 00             	mov    (%rax),%rax
    e05f:	0f b6 85 9b ef ff ff 	movzbl -0x1065(%rbp),%eax
    e066:	01 c0                	add    %eax,%eax
    e068:	c0 f8 04             	sar    $0x4,%al
    e06b:	0f b6 d8             	movzbl %al,%ebx
    e06e:	8b 05 64 f0 00 00    	mov    0xf064(%rip),%eax        # 1d0d8 <g_220>
    e074:	be 0f 00 00 00       	mov    $0xf,%esi
    e079:	bf 00 00 00 00       	mov    $0x0,%edi
    e07e:	e8 e0 d4 ff ff       	callq  b563 <safe_rshift_func_int16_t_s_u>
    e083:	0f bf d0             	movswl %ax,%edx
    e086:	8b 85 58 f6 ff ff    	mov    -0x9a8(%rbp),%eax
    e08c:	39 c2                	cmp    %eax,%edx
    e08e:	0f 9f c0             	setg   %al
    e091:	0f b6 c0             	movzbl %al,%eax
    e094:	89 de                	mov    %ebx,%esi
    e096:	89 c7                	mov    %eax,%edi
    e098:	e8 db da ff ff       	callq  bb78 <safe_sub_func_uint8_t_u_u>
    e09d:	0f b6 d8             	movzbl %al,%ebx
    e0a0:	48 8b 05 e9 25 01 00 	mov    0x125e9(%rip),%rax        # 20690 <g_225>
    e0a7:	48 8b 10             	mov    (%rax),%rdx
    e0aa:	48 83 c2 01          	add    $0x1,%rdx
    e0ae:	48 89 10             	mov    %rdx,(%rax)
    e0b1:	48 8b 85 e8 ed ff ff 	mov    -0x1218(%rbp),%rax
    e0b8:	48 39 85 88 ee ff ff 	cmp    %rax,-0x1178(%rbp)
    e0bf:	0f 95 c0             	setne  %al
    e0c2:	89 c2                	mov    %eax,%edx
    e0c4:	48 8b 85 78 ef ff ff 	mov    -0x1088(%rbp),%rax
    e0cb:	88 10                	mov    %dl,(%rax)
    e0cd:	48 8b 85 78 ef ff ff 	mov    -0x1088(%rbp),%rax
    e0d4:	0f b6 00             	movzbl (%rax),%eax
    e0d7:	0f be c0             	movsbl %al,%eax
    e0da:	be 07 00 00 00       	mov    $0x7,%esi
    e0df:	89 c7                	mov    %eax,%edi
    e0e1:	e8 4f d2 ff ff       	callq  b335 <safe_rshift_func_int8_t_s_s>
    e0e6:	0f be c0             	movsbl %al,%eax
    e0e9:	89 de                	mov    %ebx,%esi
    e0eb:	89 c7                	mov    %eax,%edi
    e0ed:	e8 fc d1 ff ff       	callq  b2ee <safe_lshift_func_int8_t_s_u>
    e0f2:	48 0f be d8          	movsbq %al,%rbx
    e0f6:	8b 05 28 ef 00 00    	mov    0xef28(%rip),%eax        # 1d024 <g_9>
    e0fc:	0f b7 c0             	movzwl %ax,%eax
    e0ff:	89 c6                	mov    %eax,%esi
    e101:	bf f7 ff 00 00       	mov    $0xfff7,%edi
    e106:	e8 f4 db ff ff       	callq  bcff <safe_add_func_uint16_t_u_u>
    e10b:	0f b7 c0             	movzwl %ax,%eax
    e10e:	48 89 de             	mov    %rbx,%rsi
    e111:	48 89 c7             	mov    %rax,%rdi
    e114:	e8 de d8 ff ff       	callq  b9f7 <safe_div_func_int64_t_s_s>
    e119:	48 3d 61 5e 00 00    	cmp    $0x5e61,%rax
    e11f:	0f 9f c0             	setg   %al
    e122:	0f b6 c0             	movzbl %al,%eax
    e125:	89 85 94 ed ff ff    	mov    %eax,-0x126c(%rbp)
    e12b:	8b 85 94 ed ff ff    	mov    -0x126c(%rbp),%eax
    e131:	66 89 05 68 f0 00 00 	mov    %ax,0xf068(%rip)        # 1d1a0 <g_1320>
    e138:	0f b7 05 61 f0 00 00 	movzwl 0xf061(%rip),%eax        # 1d1a0 <g_1320>
    e13f:	66 85 c0             	test   %ax,%ax
    e142:	74 07                	je     e14b <func_15+0x11df>
    e144:	ba 01 00 00 00       	mov    $0x1,%edx
    e149:	eb 05                	jmp    e150 <func_15+0x11e4>
    e14b:	ba 00 00 00 00       	mov    $0x0,%edx
    e150:	0f b7 85 aa ef ff ff 	movzwl -0x1056(%rbp),%eax
    e157:	c1 e0 02             	shl    $0x2,%eax
    e15a:	66 c1 f8 02          	sar    $0x2,%ax
    e15e:	98                   	cwtl   
    e15f:	39 c2                	cmp    %eax,%edx
    e161:	0f 9d c0             	setge  %al
    e164:	0f b6 c0             	movzbl %al,%eax
    e167:	be 01 00 00 00       	mov    $0x1,%esi
    e16c:	48 89 c7             	mov    %rax,%rdi
    e16f:	e8 3b df ff ff       	callq  c0af <safe_div_func_uint64_t_u_u>
    e174:	0f b6 95 ed ef ff ff 	movzbl -0x1013(%rbp),%edx
    e17b:	0f b6 d2             	movzbl %dl,%edx
    e17e:	48 39 d0             	cmp    %rdx,%rax
    e181:	0f 95 c0             	setne  %al
    e184:	0f b6 d0             	movzbl %al,%edx
    e187:	8b 85 c4 f1 ff ff    	mov    -0xe3c(%rbp),%eax
    e18d:	31 c2                	xor    %eax,%edx
    e18f:	8b 85 cc f6 ff ff    	mov    -0x934(%rbp),%eax
    e195:	21 d0                	and    %edx,%eax
    e197:	48 98                	cltq   
    e199:	48 89 c7             	mov    %rax,%rdi
    e19c:	e8 75 d6 ff ff       	callq  b816 <safe_unary_minus_func_int64_t_s>
    e1a1:	48 ba 39 9e 8f c2 0b 	movabs $0x7bba610bc28f9e39,%rdx
    e1a8:	61 ba 7b 
    e1ab:	48 39 d0             	cmp    %rdx,%rax
    e1ae:	0f 9f c0             	setg   %al
    e1b1:	0f b6 d0             	movzbl %al,%edx
    e1b4:	0f b6 05 11 ef 00 00 	movzbl 0xef11(%rip),%eax        # 1d0cc <g_204+0x4>
    e1bb:	c1 e0 05             	shl    $0x5,%eax
    e1be:	c0 f8 05             	sar    $0x5,%al
    e1c1:	89 c1                	mov    %eax,%ecx
    e1c3:	89 d0                	mov    %edx,%eax
    e1c5:	09 c8                	or     %ecx,%eax
    e1c7:	c1 e0 05             	shl    $0x5,%eax
    e1ca:	c0 f8 05             	sar    $0x5,%al
    e1cd:	83 e0 07             	and    $0x7,%eax
    e1d0:	89 c2                	mov    %eax,%edx
    e1d2:	0f b6 05 f3 ee 00 00 	movzbl 0xeef3(%rip),%eax        # 1d0cc <g_204+0x4>
    e1d9:	83 e0 f8             	and    $0xfffffff8,%eax
    e1dc:	09 d0                	or     %edx,%eax
    e1de:	88 05 e8 ee 00 00    	mov    %al,0xeee8(%rip)        # 1d0cc <g_204+0x4>
    e1e4:	48 8d 05 9d ef 00 00 	lea    0xef9d(%rip),%rax        # 1d188 <g_1283>
    e1eb:	48 89 85 90 ee ff ff 	mov    %rax,-0x1170(%rbp)
    e1f2:	48 8b 05 3f 26 01 00 	mov    0x1263f(%rip),%rax        # 20838 <g_1383>
    e1f9:	48 8d 95 10 f0 ff ff 	lea    -0xff0(%rbp),%rdx
    e200:	48 89 10             	mov    %rdx,(%rax)
    e203:	66 c7 05 94 ef 00 00 	movw   $0x1a,0xef94(%rip)        # 1d1a0 <g_1320>
    e20a:	1a 00 
    e20c:	90                   	nop
    e20d:	0f b7 05 8c ef 00 00 	movzwl 0xef8c(%rip),%eax        # 1d1a0 <g_1320>
    e214:	66 83 f8 1b          	cmp    $0x1b,%ax
    e218:	7f 27                	jg     e241 <func_15+0x12d5>
    e21a:	48 8b 05 17 26 01 00 	mov    0x12617(%rip),%rax        # 20838 <g_1383>
    e221:	48 8d 95 38 ed ff ff 	lea    -0x12c8(%rbp),%rdx
    e228:	48 89 10             	mov    %rdx,(%rax)
    e22b:	8b 85 96 ef ff ff    	mov    -0x106a(%rbp),%eax
    e231:	e9 4b 1d 00 00       	jmpq   ff81 <func_15+0x3015>
    e236:	8b 85 8c f6 ff ff    	mov    -0x974(%rbp),%eax
    e23c:	e9 40 1d 00 00       	jmpq   ff81 <func_15+0x3015>
    e241:	c7 05 85 2e 01 00 13 	movl   $0x13,0x12e85(%rip)        # 210d0 <g_617>
    e248:	00 00 00 
    e24b:	e9 c3 05 00 00       	jmpq   e813 <func_15+0x18a7>
    e250:	48 c7 85 80 ef ff ff 	movq   $0x0,-0x1080(%rbp)
    e257:	00 00 00 00 
    e25b:	c7 85 50 f0 ff ff ff 	movl   $0xffffffff,-0xfb0(%rbp)
    e262:	ff ff ff 
    e265:	c7 85 54 f0 ff ff ff 	movl   $0xffffffff,-0xfac(%rbp)
    e26c:	ff ff ff 
    e26f:	c7 85 58 f0 ff ff ff 	movl   $0xffffffff,-0xfa8(%rbp)
    e276:	ff ff ff 
    e279:	c7 85 5c f0 ff ff ff 	movl   $0xffffffff,-0xfa4(%rbp)
    e280:	ff ff ff 
    e283:	c7 85 60 f0 ff ff ff 	movl   $0xffffffff,-0xfa0(%rbp)
    e28a:	ff ff ff 
    e28d:	c7 85 64 f0 ff ff ff 	movl   $0xffffffff,-0xf9c(%rbp)
    e294:	ff ff ff 
    e297:	0f b7 85 c8 ef ff ff 	movzwl -0x1038(%rbp),%eax
    e29e:	66 25 00 c0          	and    $0xc000,%ax
    e2a2:	83 c8 60             	or     $0x60,%eax
    e2a5:	66 89 85 c8 ef ff ff 	mov    %ax,-0x1038(%rbp)
    e2ac:	66 c7 85 ca ef ff ff 	movw   $0x7,-0x1036(%rbp)
    e2b3:	07 00 
    e2b5:	0f b6 85 cc ef ff ff 	movzbl -0x1034(%rbp),%eax
    e2bc:	83 e0 f8             	and    $0xfffffff8,%eax
    e2bf:	83 c8 01             	or     $0x1,%eax
    e2c2:	88 85 cc ef ff ff    	mov    %al,-0x1034(%rbp)
    e2c8:	8b 85 cc ef ff ff    	mov    -0x1034(%rbp),%eax
    e2ce:	25 07 00 00 f0       	and    $0xf0000007,%eax
    e2d3:	0d f8 9d 00 00       	or     $0x9df8,%eax
    e2d8:	89 85 cc ef ff ff    	mov    %eax,-0x1034(%rbp)
    e2de:	c7 85 d0 ef ff ff 05 	movl   $0x5,-0x1030(%rbp)
    e2e5:	00 00 00 
    e2e8:	0f b7 85 d4 ef ff ff 	movzwl -0x102c(%rbp),%eax
    e2ef:	66 25 00 f8          	and    $0xf800,%ax
    e2f3:	83 c8 27             	or     $0x27,%eax
    e2f6:	66 89 85 d4 ef ff ff 	mov    %ax,-0x102c(%rbp)
    e2fd:	0f b6 85 d5 ef ff ff 	movzbl -0x102b(%rbp),%eax
    e304:	83 e0 87             	and    $0xffffff87,%eax
    e307:	88 85 d5 ef ff ff    	mov    %al,-0x102b(%rbp)
    e30d:	48 8d 05 84 ed 00 00 	lea    0xed84(%rip),%rax        # 1d098 <g_114>
    e314:	48 89 85 70 f1 ff ff 	mov    %rax,-0xe90(%rbp)
    e31b:	48 8d 05 76 ed 00 00 	lea    0xed76(%rip),%rax        # 1d098 <g_114>
    e322:	48 89 85 78 f1 ff ff 	mov    %rax,-0xe88(%rbp)
    e329:	48 8d 05 68 ed 00 00 	lea    0xed68(%rip),%rax        # 1d098 <g_114>
    e330:	48 89 85 80 f1 ff ff 	mov    %rax,-0xe80(%rbp)
    e337:	48 8d 05 5a ed 00 00 	lea    0xed5a(%rip),%rax        # 1d098 <g_114>
    e33e:	48 89 85 88 f1 ff ff 	mov    %rax,-0xe78(%rbp)
    e345:	48 8d 05 4c ed 00 00 	lea    0xed4c(%rip),%rax        # 1d098 <g_114>
    e34c:	48 89 85 90 f1 ff ff 	mov    %rax,-0xe70(%rbp)
    e353:	48 8d 05 3e ed 00 00 	lea    0xed3e(%rip),%rax        # 1d098 <g_114>
    e35a:	48 89 85 98 f1 ff ff 	mov    %rax,-0xe68(%rbp)
    e361:	48 8d 05 30 ed 00 00 	lea    0xed30(%rip),%rax        # 1d098 <g_114>
    e368:	48 89 85 a0 f1 ff ff 	mov    %rax,-0xe60(%rbp)
    e36f:	48 8d 05 22 ed 00 00 	lea    0xed22(%rip),%rax        # 1d098 <g_114>
    e376:	48 89 85 a8 f1 ff ff 	mov    %rax,-0xe58(%rbp)
    e37d:	48 8d 05 14 ed 00 00 	lea    0xed14(%rip),%rax        # 1d098 <g_114>
    e384:	48 89 85 b0 f1 ff ff 	mov    %rax,-0xe50(%rbp)
    e38b:	48 c7 05 4a ed 00 00 	movq   $0x0,0xed4a(%rip)        # 1d0e0 <g_344>
    e392:	00 00 00 00 
    e396:	e9 ca 02 00 00       	jmpq   e665 <func_15+0x16f9>
    e39b:	48 8d 85 70 f0 ff ff 	lea    -0xf90(%rbp),%rax
    e3a2:	48 83 c0 10          	add    $0x10,%rax
    e3a6:	48 89 85 b8 ef ff ff 	mov    %rax,-0x1048(%rbp)
    e3ad:	48 8d 85 b8 ef ff ff 	lea    -0x1048(%rbp),%rax
    e3b4:	48 89 85 c0 f1 ff ff 	mov    %rax,-0xe40(%rbp)
    e3bb:	48 c7 85 c8 f1 ff ff 	movq   $0x0,-0xe38(%rbp)
    e3c2:	00 00 00 00 
    e3c6:	48 8d 85 b8 ef ff ff 	lea    -0x1048(%rbp),%rax
    e3cd:	48 89 85 d0 f1 ff ff 	mov    %rax,-0xe30(%rbp)
    e3d4:	48 8d 85 b8 ef ff ff 	lea    -0x1048(%rbp),%rax
    e3db:	48 89 85 d8 f1 ff ff 	mov    %rax,-0xe28(%rbp)
    e3e2:	48 8d 85 b8 ef ff ff 	lea    -0x1048(%rbp),%rax
    e3e9:	48 89 85 e0 f1 ff ff 	mov    %rax,-0xe20(%rbp)
    e3f0:	48 8d 85 b8 ef ff ff 	lea    -0x1048(%rbp),%rax
    e3f7:	48 89 85 e8 f1 ff ff 	mov    %rax,-0xe18(%rbp)
    e3fe:	48 c7 85 f0 f1 ff ff 	movq   $0x0,-0xe10(%rbp)
    e405:	00 00 00 00 
    e409:	48 8d 85 b8 ef ff ff 	lea    -0x1048(%rbp),%rax
    e410:	48 89 85 f8 f1 ff ff 	mov    %rax,-0xe08(%rbp)
    e417:	48 8d 85 b8 ef ff ff 	lea    -0x1048(%rbp),%rax
    e41e:	48 89 85 00 f2 ff ff 	mov    %rax,-0xe00(%rbp)
    e425:	48 8d 85 b8 ef ff ff 	lea    -0x1048(%rbp),%rax
    e42c:	48 89 85 08 f2 ff ff 	mov    %rax,-0xdf8(%rbp)
    e433:	48 8d 85 c0 f1 ff ff 	lea    -0xe40(%rbp),%rax
    e43a:	48 83 c0 38          	add    $0x38,%rax
    e43e:	48 89 85 f0 f0 ff ff 	mov    %rax,-0xf10(%rbp)
    e445:	48 8d 85 c0 f1 ff ff 	lea    -0xe40(%rbp),%rax
    e44c:	48 83 c0 38          	add    $0x38,%rax
    e450:	48 89 85 f8 f0 ff ff 	mov    %rax,-0xf08(%rbp)
    e457:	48 8d 85 c0 f1 ff ff 	lea    -0xe40(%rbp),%rax
    e45e:	48 83 c0 38          	add    $0x38,%rax
    e462:	48 89 85 00 f1 ff ff 	mov    %rax,-0xf00(%rbp)
    e469:	48 8d 85 c0 f1 ff ff 	lea    -0xe40(%rbp),%rax
    e470:	48 83 c0 38          	add    $0x38,%rax
    e474:	48 89 85 08 f1 ff ff 	mov    %rax,-0xef8(%rbp)
    e47b:	48 8d 85 c0 f1 ff ff 	lea    -0xe40(%rbp),%rax
    e482:	48 83 c0 38          	add    $0x38,%rax
    e486:	48 89 85 10 f1 ff ff 	mov    %rax,-0xef0(%rbp)
    e48d:	48 8d 85 c0 f1 ff ff 	lea    -0xe40(%rbp),%rax
    e494:	48 83 c0 38          	add    $0x38,%rax
    e498:	48 89 85 18 f1 ff ff 	mov    %rax,-0xee8(%rbp)
    e49f:	48 8b 85 70 ef ff ff 	mov    -0x1090(%rbp),%rax
    e4a6:	48 89 05 cb 25 01 00 	mov    %rax,0x125cb(%rip)        # 20a78 <g_1478+0x218>
    e4ad:	48 8b 05 2c ec 00 00 	mov    0xec2c(%rip),%rax        # 1d0e0 <g_344>
    e4b4:	48 8d 50 01          	lea    0x1(%rax),%rdx
    e4b8:	48 8b 05 21 ec 00 00 	mov    0xec21(%rip),%rax        # 1d0e0 <g_344>
    e4bf:	48 8d 70 03          	lea    0x3(%rax),%rsi
    e4c3:	48 8b 0d 16 ec 00 00 	mov    0xec16(%rip),%rcx        # 1d0e0 <g_344>
    e4ca:	48 89 d0             	mov    %rdx,%rax
    e4cd:	48 c1 e0 02          	shl    $0x2,%rax
    e4d1:	48 01 d0             	add    %rdx,%rax
    e4d4:	48 01 f0             	add    %rsi,%rax
    e4d7:	48 01 c8             	add    %rcx,%rax
    e4da:	8b 94 85 a0 f2 ff ff 	mov    -0xd60(%rbp,%rax,4),%edx
    e4e1:	0f be 85 30 ed ff ff 	movsbl -0x12d0(%rbp),%eax
    e4e8:	39 c2                	cmp    %eax,%edx
    e4ea:	40 0f 95 c7          	setne  %dil
    e4ee:	48 8b 05 eb eb 00 00 	mov    0xebeb(%rip),%rax        # 1d0e0 <g_344>
    e4f5:	48 8d 50 04          	lea    0x4(%rax),%rdx
    e4f9:	48 8b 05 e0 eb 00 00 	mov    0xebe0(%rip),%rax        # 1d0e0 <g_344>
    e500:	48 8d 70 02          	lea    0x2(%rax),%rsi
    e504:	48 8b 0d d5 eb 00 00 	mov    0xebd5(%rip),%rcx        # 1d0e0 <g_344>
    e50b:	40 0f b6 ff          	movzbl %dil,%edi
    e50f:	48 89 d0             	mov    %rdx,%rax
    e512:	48 c1 e0 02          	shl    $0x2,%rax
    e516:	48 01 d0             	add    %rdx,%rax
    e519:	48 01 f0             	add    %rsi,%rax
    e51c:	48 01 c8             	add    %rcx,%rax
    e51f:	89 bc 85 a0 f2 ff ff 	mov    %edi,-0xd60(%rbp,%rax,4)
    e526:	48 89 d0             	mov    %rdx,%rax
    e529:	48 c1 e0 02          	shl    $0x2,%rax
    e52d:	48 01 d0             	add    %rdx,%rax
    e530:	48 01 f0             	add    %rsi,%rax
    e533:	48 01 c8             	add    %rcx,%rax
    e536:	8b 8c 85 a0 f2 ff ff 	mov    -0xd60(%rbp,%rax,4),%ecx
    e53d:	48 8b 85 b8 ef ff ff 	mov    -0x1048(%rbp),%rax
    e544:	48 8b 00             	mov    (%rax),%rax
    e547:	48 8b 00             	mov    (%rax),%rax
    e54a:	8b 10                	mov    (%rax),%edx
    e54c:	48 8b 85 b8 ef ff ff 	mov    -0x1048(%rbp),%rax
    e553:	48 8b 00             	mov    (%rax),%rax
    e556:	48 8b 00             	mov    (%rax),%rax
    e559:	21 ca                	and    %ecx,%edx
    e55b:	89 10                	mov    %edx,(%rax)
    e55d:	48 8b 05 bc 22 01 00 	mov    0x122bc(%rip),%rax        # 20820 <g_1194>
    e564:	48 8b 95 00 ee ff ff 	mov    -0x1200(%rbp),%rdx
    e56b:	48 89 10             	mov    %rdx,(%rax)
    e56e:	48 8b 00             	mov    (%rax),%rax
    e571:	48 8d 15 f8 1e 01 00 	lea    0x11ef8(%rip),%rdx        # 20470 <g_113+0xb0>
    e578:	48 89 95 80 ef ff ff 	mov    %rdx,-0x1080(%rbp)
    e57f:	48 39 85 80 ef ff ff 	cmp    %rax,-0x1080(%rbp)
    e586:	0f 95 c3             	setne  %bl
    e589:	8b 95 d4 f6 ff ff    	mov    -0x92c(%rbp),%edx
    e58f:	8b 85 0c f3 ff ff    	mov    -0xcf4(%rbp),%eax
    e595:	31 d0                	xor    %edx,%eax
    e597:	48 98                	cltq   
    e599:	ba f9 ff ff ff       	mov    $0xfffffff9,%edx
    e59e:	48 31 d0             	xor    %rdx,%rax
    e5a1:	49 89 c4             	mov    %rax,%r12
    e5a4:	8b 05 86 2b 01 00    	mov    0x12b86(%rip),%eax        # 21130 <g_1415>
    e5aa:	0f b6 85 ea ef ff ff 	movzbl -0x1016(%rbp),%eax
    e5b1:	0f b6 c0             	movzbl %al,%eax
    e5b4:	be ff ff ff ff       	mov    $0xffffffff,%esi
    e5b9:	89 c7                	mov    %eax,%edi
    e5bb:	e8 3f d1 ff ff       	callq  b6ff <safe_div_func_int32_t_s_s>
    e5c0:	0d d9 bb 8d 6a       	or     $0x6a8dbbd9,%eax
    e5c5:	48 63 d0             	movslq %eax,%rdx
    e5c8:	48 8b 05 81 21 01 00 	mov    0x12181(%rip),%rax        # 20750 <g_627>
    e5cf:	48 8b 00             	mov    (%rax),%rax
    e5d2:	48 8b 00             	mov    (%rax),%rax
    e5d5:	48 8b 00             	mov    (%rax),%rax
    e5d8:	48 39 c2             	cmp    %rax,%rdx
    e5db:	0f 97 c0             	seta   %al
    e5de:	0f b6 d0             	movzbl %al,%edx
    e5e1:	8b 85 10 f0 ff ff    	mov    -0xff0(%rbp),%eax
    e5e7:	48 98                	cltq   
    e5e9:	48 89 d6             	mov    %rdx,%rsi
    e5ec:	48 89 c7             	mov    %rax,%rdi
    e5ef:	e8 b4 d2 ff ff       	callq  b8a8 <safe_sub_func_int64_t_s_s>
    e5f4:	48 85 c0             	test   %rax,%rax
    e5f7:	0f 94 c0             	sete   %al
    e5fa:	0f b6 c0             	movzbl %al,%eax
    e5fd:	49 39 c4             	cmp    %rax,%r12
    e600:	0f 92 c0             	setb   %al
    e603:	21 d8                	and    %ebx,%eax
    e605:	0f b6 d0             	movzbl %al,%edx
    e608:	0f b7 85 aa ef ff ff 	movzwl -0x1056(%rbp),%eax
    e60f:	c1 e0 02             	shl    $0x2,%eax
    e612:	66 c1 f8 02          	sar    $0x2,%ax
    e616:	98                   	cwtl   
    e617:	39 c2                	cmp    %eax,%edx
    e619:	0f 95 c0             	setne  %al
    e61c:	0f b6 d0             	movzbl %al,%edx
    e61f:	0f b6 85 92 ef ff ff 	movzbl -0x106e(%rbp),%eax
    e626:	c1 e0 05             	shl    $0x5,%eax
    e629:	c0 f8 05             	sar    $0x5,%al
    e62c:	0f be c0             	movsbl %al,%eax
    e62f:	39 c2                	cmp    %eax,%edx
    e631:	0f 95 c0             	setne  %al
    e634:	0f b6 d0             	movzbl %al,%edx
    e637:	8b 85 d4 f6 ff ff    	mov    -0x92c(%rbp),%eax
    e63d:	31 c2                	xor    %eax,%edx
    e63f:	8b 85 58 f0 ff ff    	mov    -0xfa8(%rbp),%eax
    e645:	39 c2                	cmp    %eax,%edx
    e647:	0f 95 c0             	setne  %al
    e64a:	0f b6 c0             	movzbl %al,%eax
    e64d:	09 85 4c ed ff ff    	or     %eax,-0x12b4(%rbp)
    e653:	48 8b 05 86 ea 00 00 	mov    0xea86(%rip),%rax        # 1d0e0 <g_344>
    e65a:	48 83 c0 01          	add    $0x1,%rax
    e65e:	48 89 05 7b ea 00 00 	mov    %rax,0xea7b(%rip)        # 1d0e0 <g_344>
    e665:	48 8b 05 74 ea 00 00 	mov    0xea74(%rip),%rax        # 1d0e0 <g_344>
    e66c:	48 85 c0             	test   %rax,%rax
    e66f:	0f 84 26 fd ff ff    	je     e39b <func_15+0x142f>
    e675:	8b 85 ac f6 ff ff    	mov    -0x954(%rbp),%eax
    e67b:	0f be d8             	movsbl %al,%ebx
    e67e:	44 8b 25 ab e9 00 00 	mov    0xe9ab(%rip),%r12d        # 1d030 <g_36>
    e685:	4c 0f be ad 30 ed ff 	movsbq -0x12d0(%rbp),%r13
    e68c:	ff 
    e68d:	44 8b bd 64 f0 ff ff 	mov    -0xf9c(%rbp),%r15d
    e694:	8b 85 54 f0 ff ff    	mov    -0xfac(%rbp),%eax
    e69a:	44 0f b6 f0          	movzbl %al,%r14d
    e69e:	8b 85 58 f0 ff ff    	mov    -0xfa8(%rbp),%eax
    e6a4:	0f be d0             	movsbl %al,%edx
    e6a7:	48 8b 05 e2 20 01 00 	mov    0x120e2(%rip),%rax        # 20790 <g_926>
    e6ae:	8b 08                	mov    (%rax),%ecx
    e6b0:	48 8d 05 d9 20 01 00 	lea    0x120d9(%rip),%rax        # 20790 <g_926>
    e6b7:	48 8b 00             	mov    (%rax),%rax
    e6ba:	8b 00                	mov    (%rax),%eax
    e6bc:	39 c1                	cmp    %eax,%ecx
    e6be:	0f 95 c0             	setne  %al
    e6c1:	0f b6 c0             	movzbl %al,%eax
    e6c4:	89 d6                	mov    %edx,%esi
    e6c6:	89 c7                	mov    %eax,%edi
    e6c8:	e8 25 cb ff ff       	callq  b1f2 <safe_sub_func_int8_t_s_s>
    e6cd:	48 8b 05 5c 20 01 00 	mov    0x1205c(%rip),%rax        # 20730 <g_607>
    e6d4:	48 8b 10             	mov    (%rax),%rdx
    e6d7:	48 8b 85 70 f7 ff ff 	mov    -0x890(%rbp),%rax
    e6de:	48 39 c2             	cmp    %rax,%rdx
    e6e1:	0f 95 c0             	setne  %al
    e6e4:	0f b6 c0             	movzbl %al,%eax
    e6e7:	44 89 f6             	mov    %r14d,%esi
    e6ea:	89 c7                	mov    %eax,%edi
    e6ec:	e8 87 d4 ff ff       	callq  bb78 <safe_sub_func_uint8_t_u_u>
    e6f1:	48 8d 05 98 20 01 00 	lea    0x12098(%rip),%rax        # 20790 <g_926>
    e6f8:	48 8b 00             	mov    (%rax),%rax
    e6fb:	8b 00                	mov    (%rax),%eax
    e6fd:	3d a1 48 5e 9d       	cmp    $0x9d5e48a1,%eax
    e702:	0f 95 c0             	setne  %al
    e705:	0f b6 c0             	movzbl %al,%eax
    e708:	be 09 00 00 00       	mov    $0x9,%esi
    e70d:	89 c7                	mov    %eax,%edi
    e70f:	e8 7e cd ff ff       	callq  b492 <safe_lshift_func_int16_t_s_s>
    e714:	48 8b 85 90 f0 ff ff 	mov    -0xf70(%rbp),%rax
    e71b:	48 85 c0             	test   %rax,%rax
    e71e:	be 06 00 00 00       	mov    $0x6,%esi
    e723:	bf 01 00 00 00       	mov    $0x1,%edi
    e728:	e8 04 cb ff ff       	callq  b231 <safe_mod_func_int8_t_s_s>
    e72d:	66 0f be d0          	movsbw %al,%dx
    e731:	0f b7 05 e0 e9 00 00 	movzwl 0xe9e0(%rip),%eax        # 1d118 <g_764>
    e738:	66 39 c2             	cmp    %ax,%dx
    e73b:	0f 9d c0             	setge  %al
    e73e:	0f b6 c0             	movzbl %al,%eax
    e741:	be 3a 00 00 00       	mov    $0x3a,%esi
    e746:	89 c7                	mov    %eax,%edi
    e748:	e8 2b d4 ff ff       	callq  bb78 <safe_sub_func_uint8_t_u_u>
    e74d:	0f be c0             	movsbl %al,%eax
    e750:	be f9 ff ff ff       	mov    $0xfffffff9,%esi
    e755:	89 c7                	mov    %eax,%edi
    e757:	e8 96 ca ff ff       	callq  b1f2 <safe_sub_func_int8_t_s_s>
    e75c:	0f be d0             	movsbl %al,%edx
    e75f:	48 8b 85 d8 f4 ff ff 	mov    -0xb28(%rbp),%rax
    e766:	48 8d 0d fb 1f 01 00 	lea    0x11ffb(%rip),%rcx        # 20768 <g_795>
    e76d:	48 39 c8             	cmp    %rcx,%rax
    e770:	0f 95 c0             	setne  %al
    e773:	0f b6 c0             	movzbl %al,%eax
    e776:	89 d6                	mov    %edx,%esi
    e778:	89 c7                	mov    %eax,%edi
    e77a:	e8 3f d6 ff ff       	callq  bdbe <safe_lshift_func_uint16_t_u_s>
    e77f:	0f b7 c0             	movzwl %ax,%eax
    e782:	44 31 f8             	xor    %r15d,%eax
    e785:	48 98                	cltq   
    e787:	4c 89 ee             	mov    %r13,%rsi
    e78a:	48 89 c7             	mov    %rax,%rdi
    e78d:	e8 b9 d8 ff ff       	callq  c04b <safe_sub_func_uint64_t_u_u>
    e792:	0f b7 c0             	movzwl %ax,%eax
    e795:	44 89 e6             	mov    %r12d,%esi
    e798:	89 c7                	mov    %eax,%edi
    e79a:	e8 db d6 ff ff       	callq  be7a <safe_rshift_func_uint16_t_u_u>
    e79f:	c1 e0 04             	shl    $0x4,%eax
    e7a2:	c0 f8 04             	sar    $0x4,%al
    e7a5:	83 e0 0f             	and    $0xf,%eax
    e7a8:	8d 14 c5 00 00 00 00 	lea    0x0(,%rax,8),%edx
    e7af:	0f b6 85 b7 ef ff ff 	movzbl -0x1049(%rbp),%eax
    e7b6:	83 e0 87             	and    $0xffffff87,%eax
    e7b9:	09 d0                	or     %edx,%eax
    e7bb:	88 85 b7 ef ff ff    	mov    %al,-0x1049(%rbp)
    e7c1:	0f b6 85 b7 ef ff ff 	movzbl -0x1049(%rbp),%eax
    e7c8:	01 c0                	add    %eax,%eax
    e7ca:	c0 f8 04             	sar    $0x4,%al
    e7cd:	0f be c0             	movsbl %al,%eax
    e7d0:	89 de                	mov    %ebx,%esi
    e7d2:	89 c7                	mov    %eax,%edi
    e7d4:	e8 39 ca ff ff       	callq  b212 <safe_mul_func_int8_t_s_s>
    e7d9:	0f be d0             	movsbl %al,%edx
    e7dc:	8b 85 10 f0 ff ff    	mov    -0xff0(%rbp),%eax
    e7e2:	39 c2                	cmp    %eax,%edx
    e7e4:	0f 95 c0             	setne  %al
    e7e7:	0f b6 c8             	movzbl %al,%ecx
    e7ea:	48 8b 05 17 20 01 00 	mov    0x12017(%rip),%rax        # 20808 <g_1158>
    e7f1:	48 8b 00             	mov    (%rax),%rax
    e7f4:	8b 10                	mov    (%rax),%edx
    e7f6:	48 8b 05 0b 20 01 00 	mov    0x1200b(%rip),%rax        # 20808 <g_1158>
    e7fd:	48 8b 00             	mov    (%rax),%rax
    e800:	21 ca                	and    %ecx,%edx
    e802:	89 10                	mov    %edx,(%rax)
    e804:	8b 05 c6 28 01 00    	mov    0x128c6(%rip),%eax        # 210d0 <g_617>
    e80a:	83 c0 01             	add    $0x1,%eax
    e80d:	89 05 bd 28 01 00    	mov    %eax,0x128bd(%rip)        # 210d0 <g_617>
    e813:	8b 05 b7 28 01 00    	mov    0x128b7(%rip),%eax        # 210d0 <g_617>
    e819:	83 f8 16             	cmp    $0x16,%eax
    e81c:	0f 85 2e fa ff ff    	jne    e250 <func_15+0x12e4>
    e822:	0f b7 05 0f e8 00 00 	movzwl 0xe80f(%rip),%eax        # 1d038 <g_53>
    e829:	0f b7 c0             	movzwl %ax,%eax
    e82c:	be 01 00 00 00       	mov    $0x1,%esi
    e831:	48 89 c7             	mov    %rax,%rdi
    e834:	e8 08 d0 ff ff       	callq  b841 <safe_add_func_int64_t_s_s>
    e839:	66 89 05 f8 e7 00 00 	mov    %ax,0xe7f8(%rip)        # 1d038 <g_53>
    e840:	0f b7 05 f1 e7 00 00 	movzwl 0xe7f1(%rip),%eax        # 1d038 <g_53>
    e847:	66 83 f8 17          	cmp    $0x17,%ax
    e84b:	0f 85 72 f5 ff ff    	jne    ddc3 <func_15+0xe57>
    e851:	48 8d 05 b8 1f 01 00 	lea    0x11fb8(%rip),%rax        # 20810 <g_1195>
    e858:	48 89 85 08 ee ff ff 	mov    %rax,-0x11f8(%rbp)
    e85f:	48 8b 15 c2 23 01 00 	mov    0x123c2(%rip),%rdx        # 20c28 <g_1517>
    e866:	48 8b 85 98 ee ff ff 	mov    -0x1168(%rbp),%rax
    e86d:	48 89 10             	mov    %rdx,(%rax)
    e870:	48 8b 85 98 ee ff ff 	mov    -0x1168(%rbp),%rax
    e877:	48 8b 00             	mov    (%rax),%rax
    e87a:	48 8d 15 8f 1f 01 00 	lea    0x11f8f(%rip),%rdx        # 20810 <g_1195>
    e881:	48 39 d0             	cmp    %rdx,%rax
    e884:	0f 94 c0             	sete   %al
    e887:	0f b6 c8             	movzbl %al,%ecx
    e88a:	48 8b 05 6f 1f 01 00 	mov    0x11f6f(%rip),%rax        # 20800 <g_1159>
    e891:	8b 10                	mov    (%rax),%edx
    e893:	48 8b 05 66 1f 01 00 	mov    0x11f66(%rip),%rax        # 20800 <g_1159>
    e89a:	21 ca                	and    %ecx,%edx
    e89c:	89 10                	mov    %edx,(%rax)
    e89e:	48 8b 15 8b 23 01 00 	mov    0x1238b(%rip),%rdx        # 20c30 <g_1520>
    e8a5:	48 8b 85 a0 ee ff ff 	mov    -0x1160(%rbp),%rax
    e8ac:	48 89 10             	mov    %rdx,(%rax)
    e8af:	0f b7 85 8e ef ff ff 	movzwl -0x1072(%rbp),%eax
    e8b6:	c1 e0 02             	shl    $0x2,%eax
    e8b9:	66 c1 f8 02          	sar    $0x2,%ax
    e8bd:	48 0f bf d8          	movswq %ax,%rbx
    e8c1:	48 83 bd a8 ee ff ff 	cmpq   $0x0,-0x1158(%rbp)
    e8c8:	00 
    e8c9:	0f 94 c0             	sete   %al
    e8cc:	44 0f b6 e8          	movzbl %al,%r13d
    e8d0:	48 8b 05 d9 e8 00 00 	mov    0xe8d9(%rip),%rax        # 1d1b0 <g_1528>
    e8d7:	0f b7 85 b6 ef ff ff 	movzwl -0x104a(%rbp),%eax
    e8de:	66 25 ff 07          	and    $0x7ff,%ax
    e8e2:	0f be c0             	movsbl %al,%eax
    e8e5:	89 c7                	mov    %eax,%edi
    e8e7:	e8 d3 c8 ff ff       	callq  b1bf <safe_unary_minus_func_int8_t_s>
    e8ec:	8b 85 1c f6 ff ff    	mov    -0x9e4(%rbp),%eax
    e8f2:	44 0f b6 e0          	movzbl %al,%r12d
    e8f6:	8b 85 4c ed ff ff    	mov    -0x12b4(%rbp),%eax
    e8fc:	0f b6 d0             	movzbl %al,%edx
    e8ff:	48 8b 05 9a 1d 01 00 	mov    0x11d9a(%rip),%rax        # 206a0 <g_226>
    e906:	48 8b 00             	mov    (%rax),%rax
    e909:	48 8b 85 b0 ee ff ff 	mov    -0x1150(%rbp),%rax
    e910:	48 8d 8d 60 f8 ff ff 	lea    -0x7a0(%rbp),%rcx
    e917:	48 81 c1 50 01 00 00 	add    $0x150,%rcx
    e91e:	48 89 08             	mov    %rcx,(%rax)
    e921:	8b 85 10 f0 ff ff    	mov    -0xff0(%rbp),%eax
    e927:	0f b6 c0             	movzbl %al,%eax
    e92a:	89 d6                	mov    %edx,%esi
    e92c:	89 c7                	mov    %eax,%edi
    e92e:	e8 45 d2 ff ff       	callq  bb78 <safe_sub_func_uint8_t_u_u>
    e933:	8b 85 44 f6 ff ff    	mov    -0x9bc(%rbp),%eax
    e939:	85 c0                	test   %eax,%eax
    e93b:	74 0c                	je     e949 <func_15+0x19dd>
    e93d:	0f b7 85 ec f0 ff ff 	movzwl -0xf14(%rbp),%eax
    e944:	66 85 c0             	test   %ax,%ax
    e947:	75 07                	jne    e950 <func_15+0x19e4>
    e949:	ba 01 00 00 00       	mov    $0x1,%edx
    e94e:	eb 05                	jmp    e955 <func_15+0x19e9>
    e950:	ba 00 00 00 00       	mov    $0x0,%edx
    e955:	0f b7 85 8e ef ff ff 	movzwl -0x1072(%rbp),%eax
    e95c:	c1 e0 02             	shl    $0x2,%eax
    e95f:	66 c1 f8 02          	sar    $0x2,%ax
    e963:	98                   	cwtl   
    e964:	39 c2                	cmp    %eax,%edx
    e966:	0f 9d c0             	setge  %al
    e969:	0f b6 c0             	movzbl %al,%eax
    e96c:	44 89 e6             	mov    %r12d,%esi
    e96f:	89 c7                	mov    %eax,%edi
    e971:	e8 1d d2 ff ff       	callq  bb93 <safe_mul_func_uint8_t_u_u>
    e976:	48 8b 05 cb 1e 01 00 	mov    0x11ecb(%rip),%rax        # 20848 <g_1468>
    e97d:	66 c7 05 1a e8 00 00 	movw   $0x0,0xe81a(%rip)        # 1d1a0 <g_1320>
    e984:	00 00 
    e986:	0f b7 05 13 e8 00 00 	movzwl 0xe813(%rip),%eax        # 1d1a0 <g_1320>
    e98d:	0f bf d0             	movswl %ax,%edx
    e990:	8b 85 a8 f2 ff ff    	mov    -0xd58(%rbp),%eax
    e996:	39 c2                	cmp    %eax,%edx
    e998:	0f 9c c0             	setl   %al
    e99b:	0f b6 c0             	movzbl %al,%eax
    e99e:	89 c7                	mov    %eax,%edi
    e9a0:	e8 44 d3 ff ff       	callq  bce9 <safe_unary_minus_func_uint16_t_u>
    e9a5:	0f b7 95 90 ef ff ff 	movzwl -0x1070(%rbp),%edx
    e9ac:	66 39 d0             	cmp    %dx,%ax
    e9af:	0f 95 c0             	setne  %al
    e9b2:	0f b6 d0             	movzbl %al,%edx
    e9b5:	0f b6 85 b7 ef ff ff 	movzbl -0x1049(%rbp),%eax
    e9bc:	01 c0                	add    %eax,%eax
    e9be:	c0 f8 04             	sar    $0x4,%al
    e9c1:	0f be c0             	movsbl %al,%eax
    e9c4:	09 d0                	or     %edx,%eax
    e9c6:	f7 d0                	not    %eax
    e9c8:	89 85 c4 f2 ff ff    	mov    %eax,-0xd3c(%rbp)
    e9ce:	8b 85 c4 f2 ff ff    	mov    -0xd3c(%rbp),%eax
    e9d4:	41 39 c5             	cmp    %eax,%r13d
    e9d7:	0f 94 c0             	sete   %al
    e9da:	0f b6 c0             	movzbl %al,%eax
    e9dd:	48 89 de             	mov    %rbx,%rsi
    e9e0:	48 89 c7             	mov    %rax,%rdi
    e9e3:	e8 59 ce ff ff       	callq  b841 <safe_add_func_int64_t_s_s>
    e9e8:	48 85 c0             	test   %rax,%rax
    e9eb:	0f 84 c8 0f 00 00    	je     f9b9 <func_15+0x2a4d>
    e9f1:	48 8d 05 c8 e6 00 00 	lea    0xe6c8(%rip),%rax        # 1d0c0 <g_203>
    e9f8:	48 89 85 f0 ed ff ff 	mov    %rax,-0x1210(%rbp)
    e9ff:	c7 85 80 ed ff ff 04 	movl   $0x4,-0x1280(%rbp)
    ea06:	00 00 00 
    ea09:	48 8d 85 30 f3 ff ff 	lea    -0xcd0(%rbp),%rax
    ea10:	48 83 c0 20          	add    $0x20,%rax
    ea14:	48 89 85 d8 ee ff ff 	mov    %rax,-0x1128(%rbp)
    ea1b:	48 8d 85 a8 ed ff ff 	lea    -0x1258(%rbp),%rax
    ea22:	48 89 85 e0 ee ff ff 	mov    %rax,-0x1120(%rbp)
    ea29:	48 8d 85 e0 ef ff ff 	lea    -0x1020(%rbp),%rax
    ea30:	48 83 c0 02          	add    $0x2,%rax
    ea34:	48 89 85 e8 ee ff ff 	mov    %rax,-0x1118(%rbp)
    ea3b:	0f b7 85 b8 ef ff ff 	movzwl -0x1048(%rbp),%eax
    ea42:	66 25 00 c0          	and    $0xc000,%ax
    ea46:	66 0d bb 3f          	or     $0x3fbb,%ax
    ea4a:	66 89 85 b8 ef ff ff 	mov    %ax,-0x1048(%rbp)
    ea51:	66 c7 85 ba ef ff ff 	movw   $0xf79,-0x1046(%rbp)
    ea58:	79 0f 
    ea5a:	0f b6 85 bc ef ff ff 	movzbl -0x1044(%rbp),%eax
    ea61:	83 e0 f8             	and    $0xfffffff8,%eax
    ea64:	88 85 bc ef ff ff    	mov    %al,-0x1044(%rbp)
    ea6a:	8b 85 bc ef ff ff    	mov    -0x1044(%rbp),%eax
    ea70:	25 07 00 00 f0       	and    $0xf0000007,%eax
    ea75:	0d 28 96 00 00       	or     $0x9628,%eax
    ea7a:	89 85 bc ef ff ff    	mov    %eax,-0x1044(%rbp)
    ea80:	c7 85 c0 ef ff ff ff 	movl   $0xffffffff,-0x1040(%rbp)
    ea87:	ff ff ff 
    ea8a:	0f b7 85 c4 ef ff ff 	movzwl -0x103c(%rbp),%eax
    ea91:	66 25 00 f8          	and    $0xf800,%ax
    ea95:	83 c8 2b             	or     $0x2b,%eax
    ea98:	66 89 85 c4 ef ff ff 	mov    %ax,-0x103c(%rbp)
    ea9f:	0f b6 85 c5 ef ff ff 	movzbl -0x103b(%rbp),%eax
    eaa6:	83 c8 78             	or     $0x78,%eax
    eaa9:	88 85 c5 ef ff ff    	mov    %al,-0x103b(%rbp)
    eaaf:	48 8d 05 fa 1b 01 00 	lea    0x11bfa(%rip),%rax        # 206b0 <g_319>
    eab6:	48 89 85 f0 ee ff ff 	mov    %rax,-0x1110(%rbp)
    eabd:	48 8d 05 7c 1d 01 00 	lea    0x11d7c(%rip),%rax        # 20840 <g_1407>
    eac4:	48 89 85 f8 ee ff ff 	mov    %rax,-0x1108(%rbp)
    eacb:	c6 85 31 ed ff ff f6 	movb   $0xf6,-0x12cf(%rbp)
    ead2:	48 8d 05 e7 e6 00 00 	lea    0xe6e7(%rip),%rax        # 1d1c0 <g_1621>
    ead9:	48 89 85 00 ef ff ff 	mov    %rax,-0x1100(%rbp)
    eae0:	48 b8 35 f0 50 4a 98 	movabs $0x4ece1984a50f035,%rax
    eae7:	e1 ec 04 
    eaea:	48 89 85 08 ef ff ff 	mov    %rax,-0x10f8(%rbp)
    eaf1:	48 c7 85 10 ef ff ff 	movq   $0x0,-0x10f0(%rbp)
    eaf8:	00 00 00 00 
    eafc:	48 8d 05 25 e5 00 00 	lea    0xe525(%rip),%rax        # 1d028 <g_32>
    eb03:	48 89 85 18 ef ff ff 	mov    %rax,-0x10e8(%rbp)
    eb0a:	48 c7 05 cb e5 00 00 	movq   $0xfffffffffffffff7,0xe5cb(%rip)        # 1d0e0 <g_344>
    eb11:	f7 ff ff ff 
    eb15:	e9 0a 02 00 00       	jmpq   ed24 <func_15+0x1db8>
    eb1a:	48 8d 85 60 f8 ff ff 	lea    -0x7a0(%rbp),%rax
    eb21:	48 05 40 01 00 00    	add    $0x140,%rax
    eb27:	48 89 85 60 ef ff ff 	mov    %rax,-0x10a0(%rbp)
    eb2e:	48 8d 05 8b e5 00 00 	lea    0xe58b(%rip),%rax        # 1d0c0 <g_203>
    eb35:	48 89 85 c8 ef ff ff 	mov    %rax,-0x1038(%rbp)
    eb3c:	48 8d 05 c5 e5 00 00 	lea    0xe5c5(%rip),%rax        # 1d108 <g_738>
    eb43:	48 89 85 f0 f6 ff ff 	mov    %rax,-0x910(%rbp)
    eb4a:	48 8d 05 b7 e5 00 00 	lea    0xe5b7(%rip),%rax        # 1d108 <g_738>
    eb51:	48 89 85 f8 f6 ff ff 	mov    %rax,-0x908(%rbp)
    eb58:	48 8d 05 a9 e5 00 00 	lea    0xe5a9(%rip),%rax        # 1d108 <g_738>
    eb5f:	48 89 85 00 f7 ff ff 	mov    %rax,-0x900(%rbp)
    eb66:	48 8d 05 9b e5 00 00 	lea    0xe59b(%rip),%rax        # 1d108 <g_738>
    eb6d:	48 89 85 08 f7 ff ff 	mov    %rax,-0x8f8(%rbp)
    eb74:	48 8d 05 8d e5 00 00 	lea    0xe58d(%rip),%rax        # 1d108 <g_738>
    eb7b:	48 89 85 10 f7 ff ff 	mov    %rax,-0x8f0(%rbp)
    eb82:	48 8d 05 7f e5 00 00 	lea    0xe57f(%rip),%rax        # 1d108 <g_738>
    eb89:	48 89 85 18 f7 ff ff 	mov    %rax,-0x8e8(%rbp)
    eb90:	48 8d 05 71 e5 00 00 	lea    0xe571(%rip),%rax        # 1d108 <g_738>
    eb97:	48 89 85 20 f7 ff ff 	mov    %rax,-0x8e0(%rbp)
    eb9e:	48 8d 05 63 e5 00 00 	lea    0xe563(%rip),%rax        # 1d108 <g_738>
    eba5:	48 89 85 28 f7 ff ff 	mov    %rax,-0x8d8(%rbp)
    ebac:	48 8d 05 55 e5 00 00 	lea    0xe555(%rip),%rax        # 1d108 <g_738>
    ebb3:	48 89 85 30 f7 ff ff 	mov    %rax,-0x8d0(%rbp)
    ebba:	48 8d 05 47 e5 00 00 	lea    0xe547(%rip),%rax        # 1d108 <g_738>
    ebc1:	48 89 85 38 f7 ff ff 	mov    %rax,-0x8c8(%rbp)
    ebc8:	c7 85 6c ed ff ff 00 	movl   $0x0,-0x1294(%rbp)
    ebcf:	00 00 00 
    ebd2:	eb 1e                	jmp    ebf2 <func_15+0x1c86>
    ebd4:	8b 85 6c ed ff ff    	mov    -0x1294(%rbp),%eax
    ebda:	48 98                	cltq   
    ebdc:	48 8d 95 c8 ef ff ff 	lea    -0x1038(%rbp),%rdx
    ebe3:	48 89 94 c5 c0 f1 ff 	mov    %rdx,-0xe40(%rbp,%rax,8)
    ebea:	ff 
    ebeb:	83 85 6c ed ff ff 01 	addl   $0x1,-0x1294(%rbp)
    ebf2:	83 bd 6c ed ff ff 02 	cmpl   $0x2,-0x1294(%rbp)
    ebf9:	7e d9                	jle    ebd4 <func_15+0x1c68>
    ebfb:	48 8b 85 b0 ee ff ff 	mov    -0x1150(%rbp),%rax
    ec02:	48 8b 95 60 ef ff ff 	mov    -0x10a0(%rbp),%rdx
    ec09:	48 89 10             	mov    %rdx,(%rax)
    ec0c:	48 8b 85 b0 ee ff ff 	mov    -0x1150(%rbp),%rax
    ec13:	48 8b 10             	mov    (%rax),%rdx
    ec16:	48 8b 05 1b 20 01 00 	mov    0x1201b(%rip),%rax        # 20c38 <g_1545>
    ec1d:	48 39 c2             	cmp    %rax,%rdx
    ec20:	74 5b                	je     ec7d <func_15+0x1d11>
    ec22:	48 8b 15 0f 20 01 00 	mov    0x1200f(%rip),%rdx        # 20c38 <g_1545>
    ec29:	48 c7 02 00 00 00 00 	movq   $0x0,(%rdx)
    ec30:	48 8b 85 b0 ee ff ff 	mov    -0x1150(%rbp),%rax
    ec37:	48 8b 00             	mov    (%rax),%rax
    ec3a:	48 8b 12             	mov    (%rdx),%rdx
    ec3d:	48 89 10             	mov    %rdx,(%rax)
    ec40:	48 8b 00             	mov    (%rax),%rax
    ec43:	48 89 05 f6 1f 01 00 	mov    %rax,0x11ff6(%rip)        # 20c40 <g_1549>
    ec4a:	48 8b 05 ef 1f 01 00 	mov    0x11fef(%rip),%rax        # 20c40 <g_1549>
    ec51:	48 89 85 28 f7 ff ff 	mov    %rax,-0x8d8(%rbp)
    ec58:	48 8b 85 28 f7 ff ff 	mov    -0x8d8(%rbp),%rax
    ec5f:	48 8d 15 a2 e4 00 00 	lea    0xe4a2(%rip),%rdx        # 1d108 <g_738>
    ec66:	48 89 95 f0 ed ff ff 	mov    %rdx,-0x1210(%rbp)
    ec6d:	48 39 85 f0 ed ff ff 	cmp    %rax,-0x1210(%rbp)
    ec74:	74 07                	je     ec7d <func_15+0x1d11>
    ec76:	ba 01 00 00 00       	mov    $0x1,%edx
    ec7b:	eb 05                	jmp    ec82 <func_15+0x1d16>
    ec7d:	ba 00 00 00 00       	mov    $0x0,%edx
    ec82:	8b 85 80 ed ff ff    	mov    -0x1280(%rbp),%eax
    ec88:	89 c6                	mov    %eax,%esi
    ec8a:	89 d7                	mov    %edx,%edi
    ec8c:	e8 6e ca ff ff       	callq  b6ff <safe_div_func_int32_t_s_s>
    ec91:	be 09 00 00 00       	mov    $0x9,%esi
    ec96:	89 c7                	mov    %eax,%edi
    ec98:	e8 88 d2 ff ff       	callq  bf25 <safe_div_func_uint32_t_u_u>
    ec9d:	89 c2                	mov    %eax,%edx
    ec9f:	48 8b 85 a8 ee ff ff 	mov    -0x1158(%rbp),%rax
    eca6:	48 89 10             	mov    %rdx,(%rax)
    eca9:	0f b7 85 ac ef ff ff 	movzwl -0x1054(%rbp),%eax
    ecb0:	66 83 f8 01          	cmp    $0x1,%ax
    ecb4:	48 8b 05 d5 1a 01 00 	mov    0x11ad5(%rip),%rax        # 20790 <g_926>
    ecbb:	8b 10                	mov    (%rax),%edx
    ecbd:	8b 85 80 ed ff ff    	mov    -0x1280(%rbp),%eax
    ecc3:	39 c2                	cmp    %eax,%edx
    ecc5:	48 8b 15 9c 1a 01 00 	mov    0x11a9c(%rip),%rdx        # 20768 <g_795>
    eccc:	48 8b 05 95 1a 01 00 	mov    0x11a95(%rip),%rax        # 20768 <g_795>
    ecd3:	48 8b 12             	mov    (%rdx),%rdx
    ecd6:	48 89 10             	mov    %rdx,(%rax)
    ecd9:	0f b7 85 ac ef ff ff 	movzwl -0x1054(%rbp),%eax
    ece0:	0f b7 c0             	movzwl %ax,%eax
    ece3:	39 85 80 ed ff ff    	cmp    %eax,-0x1280(%rbp)
    ece9:	0f 9c c2             	setl   %dl
    ecec:	48 8b 05 5d 1b 01 00 	mov    0x11b5d(%rip),%rax        # 20850 <g_1479>
    ecf3:	48 8b 00             	mov    (%rax),%rax
    ecf6:	48 8b 00             	mov    (%rax),%rax
    ecf9:	0f b6 d2             	movzbl %dl,%edx
    ecfc:	89 10                	mov    %edx,(%rax)
    ecfe:	48 8b 15 63 1a 01 00 	mov    0x11a63(%rip),%rdx        # 20768 <g_795>
    ed05:	48 8b 05 5c 1a 01 00 	mov    0x11a5c(%rip),%rax        # 20768 <g_795>
    ed0c:	48 8b 12             	mov    (%rdx),%rdx
    ed0f:	48 89 10             	mov    %rdx,(%rax)
    ed12:	48 8b 05 c7 e3 00 00 	mov    0xe3c7(%rip),%rax        # 1d0e0 <g_344>
    ed19:	48 83 c0 01          	add    $0x1,%rax
    ed1d:	48 89 05 bc e3 00 00 	mov    %rax,0xe3bc(%rip)        # 1d0e0 <g_344>
    ed24:	48 8b 05 b5 e3 00 00 	mov    0xe3b5(%rip),%rax        # 1d0e0 <g_344>
    ed2b:	48 83 f8 26          	cmp    $0x26,%rax
    ed2f:	0f 87 e5 fd ff ff    	ja     eb1a <func_15+0x1bae>
    ed35:	48 8b 05 6c 19 01 00 	mov    0x1196c(%rip),%rax        # 206a8 <g_273>
    ed3c:	0f b6 10             	movzbl (%rax),%edx
    ed3f:	8b 85 54 ed ff ff    	mov    -0x12ac(%rbp),%eax
    ed45:	89 c1                	mov    %eax,%ecx
    ed47:	48 8b 85 e8 ee ff ff 	mov    -0x1118(%rbp),%rax
    ed4e:	88 08                	mov    %cl,(%rax)
    ed50:	48 8b 85 e8 ee ff ff 	mov    -0x1118(%rbp),%rax
    ed57:	0f b6 00             	movzbl (%rax),%eax
    ed5a:	09 d0                	or     %edx,%eax
    ed5c:	c1 e0 05             	shl    $0x5,%eax
    ed5f:	c0 f8 05             	sar    $0x5,%al
    ed62:	83 e0 07             	and    $0x7,%eax
    ed65:	89 c2                	mov    %eax,%edx
    ed67:	0f b6 85 92 ef ff ff 	movzbl -0x106e(%rbp),%eax
    ed6e:	83 e0 f8             	and    $0xfffffff8,%eax
    ed71:	09 d0                	or     %edx,%eax
    ed73:	88 85 92 ef ff ff    	mov    %al,-0x106e(%rbp)
    ed79:	0f b6 85 92 ef ff ff 	movzbl -0x106e(%rbp),%eax
    ed80:	c1 e0 05             	shl    $0x5,%eax
    ed83:	c0 f8 05             	sar    $0x5,%al
    ed86:	0f be c0             	movsbl %al,%eax
    ed89:	be 04 00 00 00       	mov    $0x4,%esi
    ed8e:	89 c7                	mov    %eax,%edi
    ed90:	e8 0c c5 ff ff       	callq  b2a1 <safe_lshift_func_int8_t_s_s>
    ed95:	0f be c0             	movsbl %al,%eax
    ed98:	48 8b 8d 40 f3 ff ff 	mov    -0xcc0(%rbp),%rcx
    ed9f:	48 8b 95 d8 ee ff ff 	mov    -0x1128(%rbp),%rdx
    eda6:	48 89 0a             	mov    %rcx,(%rdx)
    eda9:	48 8b 8d a8 ed ff ff 	mov    -0x1258(%rbp),%rcx
    edb0:	48 8b 95 e0 ee ff ff 	mov    -0x1120(%rbp),%rdx
    edb7:	48 89 0a             	mov    %rcx,(%rdx)
    edba:	89 c6                	mov    %eax,%esi
    edbc:	bf 00 00 00 00       	mov    $0x0,%edi
    edc1:	e8 c7 ce ff ff       	callq  bc8d <safe_rshift_func_uint8_t_u_s>
    edc6:	0f be d0             	movsbl %al,%edx
    edc9:	0f b7 85 c6 f0 ff ff 	movzwl -0xf3a(%rbp),%eax
    edd0:	0f be c0             	movsbl %al,%eax
    edd3:	89 d6                	mov    %edx,%esi
    edd5:	89 c7                	mov    %eax,%edi
    edd7:	e8 55 c4 ff ff       	callq  b231 <safe_mod_func_int8_t_s_s>
    eddc:	84 c0                	test   %al,%al
    edde:	0f 84 0f 03 00 00    	je     f0f3 <func_15+0x2187>
    ede4:	c7 85 f0 f6 ff ff 13 	movl   $0x91efb813,-0x910(%rbp)
    edeb:	b8 ef 91 
    edee:	c7 85 f4 f6 ff ff 13 	movl   $0x91efb813,-0x90c(%rbp)
    edf5:	b8 ef 91 
    edf8:	c7 85 f8 f6 ff ff 13 	movl   $0x91efb813,-0x908(%rbp)
    edff:	b8 ef 91 
    ee02:	c7 85 fc f6 ff ff 13 	movl   $0x91efb813,-0x904(%rbp)
    ee09:	b8 ef 91 
    ee0c:	c7 85 00 f7 ff ff 13 	movl   $0x91efb813,-0x900(%rbp)
    ee13:	b8 ef 91 
    ee16:	c7 85 04 f7 ff ff 13 	movl   $0x91efb813,-0x8fc(%rbp)
    ee1d:	b8 ef 91 
    ee20:	c7 85 08 f7 ff ff 13 	movl   $0x91efb813,-0x8f8(%rbp)
    ee27:	b8 ef 91 
    ee2a:	c7 85 0c f7 ff ff 13 	movl   $0x91efb813,-0x8f4(%rbp)
    ee31:	b8 ef 91 
    ee34:	c7 85 10 f7 ff ff 13 	movl   $0x91efb813,-0x8f0(%rbp)
    ee3b:	b8 ef 91 
    ee3e:	c7 85 14 f7 ff ff 13 	movl   $0x91efb813,-0x8ec(%rbp)
    ee45:	b8 ef 91 
    ee48:	48 8d 05 c1 e2 00 00 	lea    0xe2c1(%rip),%rax        # 1d110 <g_757>
    ee4f:	48 89 85 48 ef ff ff 	mov    %rax,-0x10b8(%rbp)
    ee56:	0f b7 85 c8 ef ff ff 	movzwl -0x1038(%rbp),%eax
    ee5d:	66 25 00 c0          	and    $0xc000,%ax
    ee61:	83 c8 7b             	or     $0x7b,%eax
    ee64:	66 89 85 c8 ef ff ff 	mov    %ax,-0x1038(%rbp)
    ee6b:	66 c7 85 ca ef ff ff 	movw   $0x2,-0x1036(%rbp)
    ee72:	02 00 
    ee74:	0f b6 85 cc ef ff ff 	movzbl -0x1034(%rbp),%eax
    ee7b:	83 c8 07             	or     $0x7,%eax
    ee7e:	88 85 cc ef ff ff    	mov    %al,-0x1034(%rbp)
    ee84:	8b 85 cc ef ff ff    	mov    -0x1034(%rbp),%eax
    ee8a:	25 07 00 00 f0       	and    $0xf0000007,%eax
    ee8f:	0d 90 aa 00 00       	or     $0xaa90,%eax
    ee94:	89 85 cc ef ff ff    	mov    %eax,-0x1034(%rbp)
    ee9a:	c7 85 d0 ef ff ff a1 	movl   $0xdd4609a1,-0x1030(%rbp)
    eea1:	09 46 dd 
    eea4:	0f b7 85 d4 ef ff ff 	movzwl -0x102c(%rbp),%eax
    eeab:	66 25 00 f8          	and    $0xf800,%ax
    eeaf:	83 c8 12             	or     $0x12,%eax
    eeb2:	66 89 85 d4 ef ff ff 	mov    %ax,-0x102c(%rbp)
    eeb9:	0f b6 85 d5 ef ff ff 	movzbl -0x102b(%rbp),%eax
    eec0:	83 e0 87             	and    $0xffffff87,%eax
    eec3:	88 85 d5 ef ff ff    	mov    %al,-0x102b(%rbp)
    eec9:	8b 85 10 f0 ff ff    	mov    -0xff0(%rbp),%eax
    eecf:	48 63 d8             	movslq %eax,%rbx
    eed2:	48 8b 05 df e2 00 00 	mov    0xe2df(%rip),%rax        # 1d1b8 <g_1565>
    eed9:	48 8b 05 00 19 01 00 	mov    0x11900(%rip),%rax        # 207e0 <g_965>
    eee0:	8b 85 80 ed ff ff    	mov    -0x1280(%rbp),%eax
    eee6:	0c fe                	or     $0xfe,%al
    eee8:	89 c2                	mov    %eax,%edx
    eeea:	48 8b 85 f0 ed ff ff 	mov    -0x1210(%rbp),%rax
    eef1:	66 89 10             	mov    %dx,(%rax)
    eef4:	48 8b 85 f0 ed ff ff 	mov    -0x1210(%rbp),%rax
    eefb:	0f b7 00             	movzwl (%rax),%eax
    eefe:	0f bf d0             	movswl %ax,%edx
    ef01:	8b 85 00 f7 ff ff    	mov    -0x900(%rbp),%eax
    ef07:	39 c2                	cmp    %eax,%edx
    ef09:	48 8d 85 98 ed ff ff 	lea    -0x1268(%rbp),%rax
    ef10:	48 39 85 f8 ee ff ff 	cmp    %rax,-0x1108(%rbp)
    ef17:	0f 95 c0             	setne  %al
    ef1a:	0f b6 d0             	movzbl %al,%edx
    ef1d:	48 8b 85 e8 ee ff ff 	mov    -0x1118(%rbp),%rax
    ef24:	0f b6 00             	movzbl (%rax),%eax
    ef27:	89 c1                	mov    %eax,%ecx
    ef29:	89 d0                	mov    %edx,%eax
    ef2b:	09 c8                	or     %ecx,%eax
    ef2d:	89 c2                	mov    %eax,%edx
    ef2f:	48 8b 85 e8 ee ff ff 	mov    -0x1118(%rbp),%rax
    ef36:	88 10                	mov    %dl,(%rax)
    ef38:	48 8b 85 e8 ee ff ff 	mov    -0x1118(%rbp),%rax
    ef3f:	0f b6 00             	movzbl (%rax),%eax
    ef42:	0f b6 d0             	movzbl %al,%edx
    ef45:	8b 85 d4 f6 ff ff    	mov    -0x92c(%rbp),%eax
    ef4b:	0f b6 c0             	movzbl %al,%eax
    ef4e:	89 d6                	mov    %edx,%esi
    ef50:	89 c7                	mov    %eax,%edi
    ef52:	e8 3c cc ff ff       	callq  bb93 <safe_mul_func_uint8_t_u_u>
    ef57:	0f b6 c0             	movzbl %al,%eax
    ef5a:	66 89 85 de ef ff ff 	mov    %ax,-0x1022(%rbp)
    ef61:	0f b7 85 de ef ff ff 	movzwl -0x1022(%rbp),%eax
    ef68:	66 85 c0             	test   %ax,%ax
    ef6b:	0f 95 c0             	setne  %al
    ef6e:	0f b6 d0             	movzbl %al,%edx
    ef71:	48 8b 85 48 ef ff ff 	mov    -0x10b8(%rbp),%rax
    ef78:	66 89 10             	mov    %dx,(%rax)
    ef7b:	48 8b 85 48 ef ff ff 	mov    -0x10b8(%rbp),%rax
    ef82:	0f b7 00             	movzwl (%rax),%eax
    ef85:	83 c8 05             	or     $0x5,%eax
    ef88:	0f b7 c0             	movzwl %ax,%eax
    ef8b:	48 09 c3             	or     %rax,%rbx
    ef8e:	48 89 da             	mov    %rbx,%rdx
    ef91:	8b 85 00 f7 ff ff    	mov    -0x900(%rbp),%eax
    ef97:	48 98                	cltq   
    ef99:	48 39 c2             	cmp    %rax,%rdx
    ef9c:	0f 82 26 01 00 00    	jb     f0c8 <func_15+0x215c>
    efa2:	48 8d 85 38 ed ff ff 	lea    -0x12c8(%rbp),%rax
    efa9:	48 89 85 58 ef ff ff 	mov    %rax,-0x10a8(%rbp)
    efb0:	48 8b 85 48 ee ff ff 	mov    -0x11b8(%rbp),%rax
    efb7:	48 8b 00             	mov    (%rax),%rax
    efba:	44 8b 20             	mov    (%rax),%r12d
    efbd:	48 8b 85 b0 ed ff ff 	mov    -0x1250(%rbp),%rax
    efc4:	48 8b 00             	mov    (%rax),%rax
    efc7:	8b 00                	mov    (%rax),%eax
    efc9:	0f be d8             	movsbl %al,%ebx
    efcc:	48 8d 05 4d 1c 01 00 	lea    0x11c4d(%rip),%rax        # 20c20 <g_1518>
    efd3:	48 89 05 4e 1c 01 00 	mov    %rax,0x11c4e(%rip)        # 20c28 <g_1517>
    efda:	48 8b 85 f8 ee ff ff 	mov    -0x1108(%rbp),%rax
    efe1:	48 8d 15 40 21 01 00 	lea    0x12140(%rip),%rdx        # 21128 <g_1408>
    efe8:	48 89 10             	mov    %rdx,(%rax)
    efeb:	48 be 82 e3 51 03 cb 	movabs $0x1216f6cb0351e382,%rsi
    eff2:	f6 16 12 
    eff5:	bf 00 00 00 00       	mov    $0x0,%edi
    effa:	e8 b0 d0 ff ff       	callq  c0af <safe_div_func_uint64_t_u_u>
    efff:	be 09 00 00 00       	mov    $0x9,%esi
    f004:	48 bf bb 32 b9 c8 47 	movabs $0xdf09bd47c8b932bb,%rdi
    f00b:	bd 09 df 
    f00e:	e8 1b d0 ff ff       	callq  c02e <safe_add_func_uint64_t_u_u>
    f013:	48 85 c0             	test   %rax,%rax
    f016:	74 07                	je     f01f <func_15+0x20b3>
    f018:	b8 01 00 00 00       	mov    $0x1,%eax
    f01d:	eb 05                	jmp    f024 <func_15+0x20b8>
    f01f:	b8 00 00 00 00       	mov    $0x0,%eax
    f024:	89 c2                	mov    %eax,%edx
    f026:	48 8b 85 48 ef ff ff 	mov    -0x10b8(%rbp),%rax
    f02d:	66 89 10             	mov    %dx,(%rax)
    f030:	48 8b 85 48 ef ff ff 	mov    -0x10b8(%rbp),%rax
    f037:	0f b7 00             	movzwl (%rax),%eax
    f03a:	0f b7 c0             	movzwl %ax,%eax
    f03d:	83 e0 01             	and    $0x1,%eax
    f040:	85 c0                	test   %eax,%eax
    f042:	74 11                	je     f055 <func_15+0x20e9>
    f044:	8b 85 d4 f6 ff ff    	mov    -0x92c(%rbp),%eax
    f04a:	85 c0                	test   %eax,%eax
    f04c:	74 07                	je     f055 <func_15+0x20e9>
    f04e:	b8 01 00 00 00       	mov    $0x1,%eax
    f053:	eb 05                	jmp    f05a <func_15+0x20ee>
    f055:	b8 00 00 00 00       	mov    $0x0,%eax
    f05a:	0f be c0             	movsbl %al,%eax
    f05d:	89 de                	mov    %ebx,%esi
    f05f:	89 c7                	mov    %eax,%edi
    f061:	e8 cb c1 ff ff       	callq  b231 <safe_mod_func_int8_t_s_s>
    f066:	0f be d0             	movsbl %al,%edx
    f069:	48 8b bd 48 ee ff ff 	mov    -0x11b8(%rbp),%rdi
    f070:	48 8b 8d 48 ee ff ff 	mov    -0x11b8(%rbp),%rcx
    f077:	48 8b b5 c8 ef ff ff 	mov    -0x1038(%rbp),%rsi
    f07e:	48 b8 ff ff ff ff ff 	movabs $0xffffffffffff,%rax
    f085:	ff 00 00 
    f088:	48 23 85 d0 ef ff ff 	and    -0x1030(%rbp),%rax
    f08f:	49 89 f9             	mov    %rdi,%r9
    f092:	45 89 e0             	mov    %r12d,%r8d
    f095:	48 89 f7             	mov    %rsi,%rdi
    f098:	48 89 c6             	mov    %rax,%rsi
    f09b:	e8 77 15 00 00       	callq  10617 <func_22>
    f0a0:	48 8b 05 91 17 01 00 	mov    0x11791(%rip),%rax        # 20838 <g_1383>
    f0a7:	48 8b 10             	mov    (%rax),%rdx
    f0aa:	48 8b 05 ef 12 01 00 	mov    0x112ef(%rip),%rax        # 203a0 <g_34>
    f0b1:	8b 12                	mov    (%rdx),%edx
    f0b3:	89 10                	mov    %edx,(%rax)
    f0b5:	48 8b 05 4c 17 01 00 	mov    0x1174c(%rip),%rax        # 20808 <g_1158>
    f0bc:	48 8b 00             	mov    (%rax),%rax
    f0bf:	48 89 85 58 ef ff ff 	mov    %rax,-0x10a8(%rbp)
    f0c6:	eb 1f                	jmp    f0e7 <func_15+0x217b>
    f0c8:	48 8d 05 d9 df 00 00 	lea    0xdfd9(%rip),%rax        # 1d0a8 <g_157>
    f0cf:	48 89 85 50 ef ff ff 	mov    %rax,-0x10b0(%rbp)
    f0d6:	48 8b 85 f0 ee ff ff 	mov    -0x1110(%rbp),%rax
    f0dd:	48 8b 95 50 ef ff ff 	mov    -0x10b0(%rbp),%rdx
    f0e4:	48 89 10             	mov    %rdx,(%rax)
    f0e7:	0f b6 85 31 ed ff ff 	movzbl -0x12cf(%rbp),%eax
    f0ee:	e9 8e 0e 00 00       	jmpq   ff81 <func_15+0x3015>
    f0f3:	48 8d 05 f6 df 00 00 	lea    0xdff6(%rip),%rax        # 1d0f0 <g_485>
    f0fa:	48 89 85 20 ef ff ff 	mov    %rax,-0x10e0(%rbp)
    f101:	c7 85 84 ed ff ff 2b 	movl   $0xf19f2f2b,-0x127c(%rbp)
    f108:	2f 9f f1 
    f10b:	c7 85 88 ed ff ff ff 	movl   $0xffffffff,-0x1278(%rbp)
    f112:	ff ff ff 
    f115:	48 c7 85 f0 f6 ff ff 	movq   $0x0,-0x910(%rbp)
    f11c:	00 00 00 00 
    f120:	48 8d 05 99 e0 00 00 	lea    0xe099(%rip),%rax        # 1d1c0 <g_1621>
    f127:	48 89 85 f8 f6 ff ff 	mov    %rax,-0x908(%rbp)
    f12e:	48 c7 85 00 f7 ff ff 	movq   $0x0,-0x900(%rbp)
    f135:	00 00 00 00 
    f139:	48 8d 05 80 e0 00 00 	lea    0xe080(%rip),%rax        # 1d1c0 <g_1621>
    f140:	48 89 85 08 f7 ff ff 	mov    %rax,-0x8f8(%rbp)
    f147:	48 c7 85 10 f7 ff ff 	movq   $0x0,-0x8f0(%rbp)
    f14e:	00 00 00 00 
    f152:	48 8d 05 67 e0 00 00 	lea    0xe067(%rip),%rax        # 1d1c0 <g_1621>
    f159:	48 89 85 18 f7 ff ff 	mov    %rax,-0x8e8(%rbp)
    f160:	48 c7 85 20 f7 ff ff 	movq   $0x0,-0x8e0(%rbp)
    f167:	00 00 00 00 
    f16b:	48 8d 05 4e e0 00 00 	lea    0xe04e(%rip),%rax        # 1d1c0 <g_1621>
    f172:	48 89 85 28 f7 ff ff 	mov    %rax,-0x8d8(%rbp)
    f179:	48 c7 85 30 f7 ff ff 	movq   $0x0,-0x8d0(%rbp)
    f180:	00 00 00 00 
    f184:	48 8d 05 35 e0 00 00 	lea    0xe035(%rip),%rax        # 1d1c0 <g_1621>
    f18b:	48 89 85 38 f7 ff ff 	mov    %rax,-0x8c8(%rbp)
    f192:	48 c7 85 40 f7 ff ff 	movq   $0x0,-0x8c0(%rbp)
    f199:	00 00 00 00 
    f19d:	48 8d 05 1c e0 00 00 	lea    0xe01c(%rip),%rax        # 1d1c0 <g_1621>
    f1a4:	48 89 85 48 f7 ff ff 	mov    %rax,-0x8b8(%rbp)
    f1ab:	48 c7 85 50 f7 ff ff 	movq   $0x0,-0x8b0(%rbp)
    f1b2:	00 00 00 00 
    f1b6:	48 8d 05 03 e0 00 00 	lea    0xe003(%rip),%rax        # 1d1c0 <g_1621>
    f1bd:	48 89 85 58 f7 ff ff 	mov    %rax,-0x8a8(%rbp)
    f1c4:	48 c7 85 60 f7 ff ff 	movq   $0x0,-0x8a0(%rbp)
    f1cb:	00 00 00 00 
    f1cf:	48 8d 05 ea df 00 00 	lea    0xdfea(%rip),%rax        # 1d1c0 <g_1621>
    f1d6:	48 89 85 68 f7 ff ff 	mov    %rax,-0x898(%rbp)
    f1dd:	48 c7 85 70 f7 ff ff 	movq   $0x0,-0x890(%rbp)
    f1e4:	00 00 00 00 
    f1e8:	48 8d 05 d1 df 00 00 	lea    0xdfd1(%rip),%rax        # 1d1c0 <g_1621>
    f1ef:	48 89 85 78 f7 ff ff 	mov    %rax,-0x888(%rbp)
    f1f6:	48 c7 85 80 f7 ff ff 	movq   $0x0,-0x880(%rbp)
    f1fd:	00 00 00 00 
    f201:	48 8d 05 b8 df 00 00 	lea    0xdfb8(%rip),%rax        # 1d1c0 <g_1621>
    f208:	48 89 85 88 f7 ff ff 	mov    %rax,-0x878(%rbp)
    f20f:	48 8d 85 b8 ed ff ff 	lea    -0x1248(%rbp),%rax
    f216:	48 89 85 28 ef ff ff 	mov    %rax,-0x10d8(%rbp)
    f21d:	48 c7 85 c8 ef ff ff 	movq   $0x0,-0x1038(%rbp)
    f224:	00 00 00 00 
    f228:	c7 85 c8 ef ff ff f8 	movl   $0xfffffff8,-0x1038(%rbp)
    f22f:	ff ff ff 
    f232:	48 8d 85 90 f0 ff ff 	lea    -0xf70(%rbp),%rax
    f239:	48 89 85 30 ef ff ff 	mov    %rax,-0x10d0(%rbp)
    f240:	c7 85 8c ed ff ff 99 	movl   $0x2bdd2099,-0x1274(%rbp)
    f247:	20 dd 2b 
    f24a:	48 8b 85 b0 ed ff ff 	mov    -0x1250(%rbp),%rax
    f251:	48 8b 00             	mov    (%rax),%rax
    f254:	8b 00                	mov    (%rax),%eax
    f256:	85 c0                	test   %eax,%eax
    f258:	0f 85 9a 01 00 00    	jne    f3f8 <func_15+0x248c>
    f25e:	48 8b 85 b0 ed ff ff 	mov    -0x1250(%rbp),%rax
    f265:	48 8b 00             	mov    (%rax),%rax
    f268:	8b 00                	mov    (%rax),%eax
    f26a:	48 63 d8             	movslq %eax,%rbx
    f26d:	48 8b 05 34 14 01 00 	mov    0x11434(%rip),%rax        # 206a8 <g_273>
    f274:	0f b6 00             	movzbl (%rax),%eax
    f277:	44 0f b6 e0          	movzbl %al,%r12d
    f27b:	48 8b 05 ce 15 01 00 	mov    0x115ce(%rip),%rax        # 20850 <g_1479>
    f282:	48 8b 00             	mov    (%rax),%rax
    f285:	48 8b 00             	mov    (%rax),%rax
    f288:	8b 00                	mov    (%rax),%eax
    f28a:	89 85 14 ed ff ff    	mov    %eax,-0x12ec(%rbp)
    f290:	8b 85 88 ed ff ff    	mov    -0x1278(%rbp),%eax
    f296:	44 0f be e8          	movsbl %al,%r13d
    f29a:	8b 85 88 ed ff ff    	mov    -0x1278(%rbp),%eax
    f2a0:	44 0f be f0          	movsbl %al,%r14d
    f2a4:	8b 85 88 ed ff ff    	mov    -0x1278(%rbp),%eax
    f2aa:	4c 63 f8             	movslq %eax,%r15
    f2ad:	48 8b 85 b0 ed ff ff 	mov    -0x1250(%rbp),%rax
    f2b4:	48 8b 00             	mov    (%rax),%rax
    f2b7:	8b 00                	mov    (%rax),%eax
    f2b9:	48 63 d0             	movslq %eax,%rdx
    f2bc:	48 8b 05 e5 13 01 00 	mov    0x113e5(%rip),%rax        # 206a8 <g_273>
    f2c3:	0f b6 00             	movzbl (%rax),%eax
    f2c6:	0f b6 c8             	movzbl %al,%ecx
    f2c9:	48 8b 85 48 ee ff ff 	mov    -0x11b8(%rbp),%rax
    f2d0:	48 8b 00             	mov    (%rax),%rax
    f2d3:	8b 00                	mov    (%rax),%eax
    f2d5:	83 c8 01             	or     $0x1,%eax
    f2d8:	31 c8                	xor    %ecx,%eax
    f2da:	39 85 84 ed ff ff    	cmp    %eax,-0x127c(%rbp)
    f2e0:	0f 9f c0             	setg   %al
    f2e3:	0f b6 c0             	movzbl %al,%eax
    f2e6:	48 89 d6             	mov    %rdx,%rsi
    f2e9:	48 89 c7             	mov    %rax,%rdi
    f2ec:	e8 be cd ff ff       	callq  c0af <safe_div_func_uint64_t_u_u>
    f2f1:	0f be c0             	movsbl %al,%eax
    f2f4:	be 04 00 00 00       	mov    $0x4,%esi
    f2f9:	89 c7                	mov    %eax,%edi
    f2fb:	e8 12 bf ff ff       	callq  b212 <safe_mul_func_int8_t_s_s>
    f300:	48 0f be c0          	movsbq %al,%rax
    f304:	4c 89 fe             	mov    %r15,%rsi
    f307:	48 89 c7             	mov    %rax,%rdi
    f30a:	e8 1f cd ff ff       	callq  c02e <safe_add_func_uint64_t_u_u>
    f30f:	89 c1                	mov    %eax,%ecx
    f311:	48 8b 85 20 ef ff ff 	mov    -0x10e0(%rbp),%rax
    f318:	0f b7 00             	movzwl (%rax),%eax
    f31b:	8d 50 ff             	lea    -0x1(%rax),%edx
    f31e:	48 8b 85 20 ef ff ff 	mov    -0x10e0(%rbp),%rax
    f325:	66 89 10             	mov    %dx,(%rax)
    f328:	48 8b 85 20 ef ff ff 	mov    -0x10e0(%rbp),%rax
    f32f:	0f b7 00             	movzwl (%rax),%eax
    f332:	0f b7 c0             	movzwl %ax,%eax
    f335:	89 ce                	mov    %ecx,%esi
    f337:	89 c7                	mov    %eax,%edi
    f339:	e8 c8 ca ff ff       	callq  be06 <safe_lshift_func_uint16_t_u_u>
    f33e:	89 c2                	mov    %eax,%edx
    f340:	48 8b 85 e8 ee ff ff 	mov    -0x1118(%rbp),%rax
    f347:	88 10                	mov    %dl,(%rax)
    f349:	48 8b 85 e8 ee ff ff 	mov    -0x1118(%rbp),%rax
    f350:	0f b6 00             	movzbl (%rax),%eax
    f353:	0f b6 c0             	movzbl %al,%eax
    f356:	be 03 00 00 00       	mov    $0x3,%esi
    f35b:	89 c7                	mov    %eax,%edi
    f35d:	e8 5c c9 ff ff       	callq  bcbe <safe_rshift_func_uint8_t_u_u>
    f362:	0f be c0             	movsbl %al,%eax
    f365:	44 89 f6             	mov    %r14d,%esi
    f368:	89 c7                	mov    %eax,%edi
    f36a:	e8 a3 be ff ff       	callq  b212 <safe_mul_func_int8_t_s_s>
    f36f:	0f be c0             	movsbl %al,%eax
    f372:	44 89 ee             	mov    %r13d,%esi
    f375:	89 c7                	mov    %eax,%edi
    f377:	e8 ee be ff ff       	callq  b26a <safe_div_func_int8_t_s_s>
    f37c:	0f be c0             	movsbl %al,%eax
    f37f:	39 85 14 ed ff ff    	cmp    %eax,-0x12ec(%rbp)
    f385:	0f 94 c0             	sete   %al
    f388:	0f b6 c0             	movzbl %al,%eax
    f38b:	44 89 e6             	mov    %r12d,%esi
    f38e:	89 c7                	mov    %eax,%edi
    f390:	e8 fe c7 ff ff       	callq  bb93 <safe_mul_func_uint8_t_u_u>
    f395:	0f b6 c0             	movzbl %al,%eax
    f398:	48 0d 2f a1 00 00    	or     $0xa12f,%rax
    f39e:	48 89 de             	mov    %rbx,%rsi
    f3a1:	48 89 c7             	mov    %rax,%rdi
    f3a4:	e8 98 c4 ff ff       	callq  b841 <safe_add_func_int64_t_s_s>
    f3a9:	89 85 88 ed ff ff    	mov    %eax,-0x1278(%rbp)
    f3af:	48 8b 85 b0 ed ff ff 	mov    -0x1250(%rbp),%rax
    f3b6:	48 8b 00             	mov    (%rax),%rax
    f3b9:	8b 00                	mov    (%rax),%eax
    f3bb:	39 85 88 ed ff ff    	cmp    %eax,-0x1278(%rbp)
    f3c1:	0f 95 c0             	setne  %al
    f3c4:	0f b6 c0             	movzbl %al,%eax
    f3c7:	be 00 00 00 00       	mov    $0x0,%esi
    f3cc:	89 c7                	mov    %eax,%edi
    f3ce:	e8 3f be ff ff       	callq  b212 <safe_mul_func_int8_t_s_s>
    f3d3:	0f be d0             	movsbl %al,%edx
    f3d6:	48 8b 85 b0 ed ff ff 	mov    -0x1250(%rbp),%rax
    f3dd:	48 8b 00             	mov    (%rax),%rax
    f3e0:	8b 00                	mov    (%rax),%eax
    f3e2:	39 c2                	cmp    %eax,%edx
    f3e4:	0f 9c c0             	setl   %al
    f3e7:	0f b6 d0             	movzbl %al,%edx
    f3ea:	48 8b 85 b0 ed ff ff 	mov    -0x1250(%rbp),%rax
    f3f1:	48 8b 00             	mov    (%rax),%rax
    f3f4:	8b 00                	mov    (%rax),%eax
    f3f6:	39 c2                	cmp    %eax,%edx
    f3f8:	48 8b 85 b0 ed ff ff 	mov    -0x1250(%rbp),%rax
    f3ff:	48 8b 00             	mov    (%rax),%rax
    f402:	c7 00 01 00 00 00    	movl   $0x1,(%rax)
    f408:	8b 00                	mov    (%rax),%eax
    f40a:	48 63 d0             	movslq %eax,%rdx
    f40d:	48 8b 85 a8 ee ff ff 	mov    -0x1158(%rbp),%rax
    f414:	48 8b 00             	mov    (%rax),%rax
    f417:	48 89 c1             	mov    %rax,%rcx
    f41a:	48 b8 15 3f d2 b3 ed 	movabs $0x8e3288edb3d23f15,%rax
    f421:	88 32 8e 
    f424:	48 09 c8             	or     %rcx,%rax
    f427:	48 89 c1             	mov    %rax,%rcx
    f42a:	48 8b 85 a8 ee ff ff 	mov    -0x1158(%rbp),%rax
    f431:	48 89 08             	mov    %rcx,(%rax)
    f434:	48 8b 85 a8 ee ff ff 	mov    -0x1158(%rbp),%rax
    f43b:	48 8b 00             	mov    (%rax),%rax
    f43e:	48 89 d6             	mov    %rdx,%rsi
    f441:	48 89 c7             	mov    %rax,%rdi
    f444:	e8 f8 c3 ff ff       	callq  b841 <safe_add_func_int64_t_s_s>
    f449:	8b 95 84 ed ff ff    	mov    -0x127c(%rbp),%edx
    f44f:	48 63 d2             	movslq %edx,%rdx
    f452:	48 39 d0             	cmp    %rdx,%rax
    f455:	0f 9c c0             	setl   %al
    f458:	0f b6 c0             	movzbl %al,%eax
    f45b:	be 05 00 00 00       	mov    $0x5,%esi
    f460:	48 89 c7             	mov    %rax,%rdi
    f463:	e8 c6 cb ff ff       	callq  c02e <safe_add_func_uint64_t_u_u>
    f468:	48 85 c0             	test   %rax,%rax
    f46b:	75 0a                	jne    f477 <func_15+0x250b>
    f46d:	0f b7 85 ba ef ff ff 	movzwl -0x1046(%rbp),%eax
    f474:	66 85 c0             	test   %ax,%ax
    f477:	be ca 00 00 00       	mov    $0xca,%esi
    f47c:	bf 09 00 00 00       	mov    $0x9,%edi
    f481:	e8 28 c7 ff ff       	callq  bbae <safe_mod_func_uint8_t_u_u>
    f486:	84 c0                	test   %al,%al
    f488:	0f 84 29 01 00 00    	je     f5b7 <func_15+0x264b>
    f48e:	66 c7 85 36 ed ff ff 	movw   $0xfff8,-0x12ca(%rbp)
    f495:	f8 ff 
    f497:	c7 85 c0 f1 ff ff ff 	movl   $0xffffffff,-0xe40(%rbp)
    f49e:	ff ff ff 
    f4a1:	c7 85 c4 f1 ff ff ff 	movl   $0xffffffff,-0xe3c(%rbp)
    f4a8:	ff ff ff 
    f4ab:	c7 85 c8 f1 ff ff ff 	movl   $0xffffffff,-0xe38(%rbp)
    f4b2:	ff ff ff 
    f4b5:	c7 85 cc f1 ff ff ff 	movl   $0xffffffff,-0xe34(%rbp)
    f4bc:	ff ff ff 
    f4bf:	c7 85 d0 f1 ff ff ff 	movl   $0xffffffff,-0xe30(%rbp)
    f4c6:	ff ff ff 
    f4c9:	48 8b 85 c0 ee ff ff 	mov    -0x1140(%rbp),%rax
    f4d0:	48 89 85 10 ee ff ff 	mov    %rax,-0x11f0(%rbp)
    f4d7:	48 8b 85 10 ee ff ff 	mov    -0x11f0(%rbp),%rax
    f4de:	48 3b 85 28 ef ff ff 	cmp    -0x10d8(%rbp),%rax
    f4e5:	0f 94 c0             	sete   %al
    f4e8:	0f b6 d0             	movzbl %al,%edx
    f4eb:	0f b6 05 9e dc 00 00 	movzbl 0xdc9e(%rip),%eax        # 1d190 <g_1304>
    f4f2:	0f b6 c0             	movzbl %al,%eax
    f4f5:	89 d6                	mov    %edx,%esi
    f4f7:	89 c7                	mov    %eax,%edi
    f4f9:	e8 4a c9 ff ff       	callq  be48 <safe_rshift_func_uint16_t_u_s>
    f4fe:	0f b7 d8             	movzwl %ax,%ebx
    f501:	0f b6 85 31 ed ff ff 	movzbl -0x12cf(%rbp),%eax
    f508:	be 01 00 00 00       	mov    $0x1,%esi
    f50d:	89 c7                	mov    %eax,%edi
    f50f:	e8 38 c7 ff ff       	callq  bc4c <safe_lshift_func_uint8_t_u_u>
    f514:	0f be c0             	movsbl %al,%eax
    f517:	be 03 00 00 00       	mov    $0x3,%esi
    f51c:	89 c7                	mov    %eax,%edi
    f51e:	e8 cb bd ff ff       	callq  b2ee <safe_lshift_func_int8_t_s_u>
    f523:	44 0f be e0          	movsbl %al,%r12d
    f527:	48 8b 85 f8 ed ff ff 	mov    -0x1208(%rbp),%rax
    f52e:	48 3b 85 00 ef ff ff 	cmp    -0x1100(%rbp),%rax
    f535:	0f 94 c0             	sete   %al
    f538:	0f b6 c0             	movzbl %al,%eax
    f53b:	f7 d0                	not    %eax
    f53d:	c1 e8 1f             	shr    $0x1f,%eax
    f540:	0f b6 c0             	movzbl %al,%eax
    f543:	be 0d 00 00 00       	mov    $0xd,%esi
    f548:	89 c7                	mov    %eax,%edi
    f54a:	e8 db bf ff ff       	callq  b52a <safe_rshift_func_int16_t_s_s>
    f54f:	8b 95 c0 f1 ff ff    	mov    -0xe40(%rbp),%edx
    f555:	0f b7 85 36 ed ff ff 	movzwl -0x12ca(%rbp),%eax
    f55c:	83 c8 08             	or     $0x8,%eax
    f55f:	98                   	cwtl   
    f560:	09 d0                	or     %edx,%eax
    f562:	89 85 c0 f1 ff ff    	mov    %eax,-0xe40(%rbp)
    f568:	44 89 e6             	mov    %r12d,%esi
    f56b:	bf 00 00 00 00       	mov    $0x0,%edi
    f570:	e8 9d bc ff ff       	callq  b212 <safe_mul_func_int8_t_s_s>
    f575:	89 c2                	mov    %eax,%edx
    f577:	48 8b 05 72 12 01 00 	mov    0x11272(%rip),%rax        # 207f0 <g_998>
    f57e:	48 8b 00             	mov    (%rax),%rax
    f581:	48 8b 00             	mov    (%rax),%rax
    f584:	48 8b 00             	mov    (%rax),%rax
    f587:	48 8b 08             	mov    (%rax),%rcx
    f58a:	48 0f be d2          	movsbq %dl,%rdx
    f58e:	48 31 ca             	xor    %rcx,%rdx
    f591:	48 89 10             	mov    %rdx,(%rax)
    f594:	48 8b 00             	mov    (%rax),%rax
    f597:	48 89 de             	mov    %rbx,%rsi
    f59a:	48 89 c7             	mov    %rax,%rdi
    f59d:	e8 a9 ca ff ff       	callq  c04b <safe_sub_func_uint64_t_u_u>
    f5a2:	48 8b 85 b0 ed ff ff 	mov    -0x1250(%rbp),%rax
    f5a9:	48 8b 00             	mov    (%rax),%rax
    f5ac:	c7 00 01 00 00 00    	movl   $0x1,(%rax)
    f5b2:	e9 7d 01 00 00       	jmpq   f734 <func_15+0x27c8>
    f5b7:	48 c7 85 c0 f1 ff ff 	movq   $0x0,-0xe40(%rbp)
    f5be:	00 00 00 00 
    f5c2:	48 c7 85 c8 f1 ff ff 	movq   $0x0,-0xe38(%rbp)
    f5c9:	00 00 00 00 
    f5cd:	48 c7 85 d0 f1 ff ff 	movq   $0x0,-0xe30(%rbp)
    f5d4:	00 00 00 00 
    f5d8:	48 c7 85 d8 f1 ff ff 	movq   $0x0,-0xe28(%rbp)
    f5df:	00 00 00 00 
    f5e3:	48 c7 85 e0 f1 ff ff 	movq   $0x0,-0xe20(%rbp)
    f5ea:	00 00 00 00 
    f5ee:	48 c7 85 e8 f1 ff ff 	movq   $0x0,-0xe18(%rbp)
    f5f5:	00 00 00 00 
    f5f9:	48 c7 85 f0 f1 ff ff 	movq   $0x0,-0xe10(%rbp)
    f600:	00 00 00 00 
    f604:	48 c7 85 f8 f1 ff ff 	movq   $0x0,-0xe08(%rbp)
    f60b:	00 00 00 00 
    f60f:	48 c7 85 00 f2 ff ff 	movq   $0x0,-0xe00(%rbp)
    f616:	00 00 00 00 
    f61a:	48 c7 85 08 f2 ff ff 	movq   $0x0,-0xdf8(%rbp)
    f621:	00 00 00 00 
    f625:	c7 85 90 ed ff ff 00 	movl   $0x0,-0x1270(%rbp)
    f62c:	00 00 00 
    f62f:	8b 9d 90 ed ff ff    	mov    -0x1270(%rbp),%ebx
    f635:	48 8b 85 b0 ed ff ff 	mov    -0x1250(%rbp),%rax
    f63c:	48 8b 00             	mov    (%rax),%rax
    f63f:	8b 00                	mov    (%rax),%eax
    f641:	44 0f bf e0          	movswl %ax,%r12d
    f645:	48 8b 85 88 ee ff ff 	mov    -0x1178(%rbp),%rax
    f64c:	48 89 05 95 11 01 00 	mov    %rax,0x11195(%rip)        # 207e8 <g_999>
    f653:	be 03 00 00 00       	mov    $0x3,%esi
    f658:	bf 01 00 00 00       	mov    $0x1,%edi
    f65d:	e8 e6 c7 ff ff       	callq  be48 <safe_rshift_func_uint16_t_u_s>
    f662:	8b 85 90 ed ff ff    	mov    -0x1270(%rbp),%eax
    f668:	0f b7 d0             	movzwl %ax,%edx
    f66b:	48 8b 85 48 ee ff ff 	mov    -0x11b8(%rbp),%rax
    f672:	48 8b 00             	mov    (%rax),%rax
    f675:	8b 00                	mov    (%rax),%eax
    f677:	89 c1                	mov    %eax,%ecx
    f679:	8b 85 c8 ef ff ff    	mov    -0x1038(%rbp),%eax
    f67f:	31 c8                	xor    %ecx,%eax
    f681:	0f b7 c0             	movzwl %ax,%eax
    f684:	89 d6                	mov    %edx,%esi
    f686:	89 c7                	mov    %eax,%edi
    f688:	e8 72 c6 ff ff       	callq  bcff <safe_add_func_uint16_t_u_u>
    f68d:	8b 85 c8 ef ff ff    	mov    -0x1038(%rbp),%eax
    f693:	83 f8 01             	cmp    $0x1,%eax
    f696:	0f 96 c0             	setbe  %al
    f699:	0f b6 c0             	movzbl %al,%eax
    f69c:	be 0f 00 00 00       	mov    $0xf,%esi
    f6a1:	89 c7                	mov    %eax,%edi
    f6a3:	e8 16 c7 ff ff       	callq  bdbe <safe_lshift_func_uint16_t_u_s>
    f6a8:	48 8b 05 81 15 01 00 	mov    0x11581(%rip),%rax        # 20c30 <g_1520>
    f6af:	48 8b 00             	mov    (%rax),%rax
    f6b2:	48 85 c0             	test   %rax,%rax
    f6b5:	0f 95 c0             	setne  %al
    f6b8:	0f b6 c0             	movzbl %al,%eax
    f6bb:	be 00 00 00 00       	mov    $0x0,%esi
    f6c0:	89 c7                	mov    %eax,%edi
    f6c2:	e8 2b bb ff ff       	callq  b1f2 <safe_sub_func_int8_t_s_s>
    f6c7:	48 8b 95 f0 ed ff ff 	mov    -0x1210(%rbp),%rdx
    f6ce:	0f b7 12             	movzwl (%rdx),%edx
    f6d1:	66 98                	cbtw   
    f6d3:	31 c2                	xor    %eax,%edx
    f6d5:	48 8b 85 f0 ed ff ff 	mov    -0x1210(%rbp),%rax
    f6dc:	66 89 10             	mov    %dx,(%rax)
    f6df:	48 8b 85 f0 ed ff ff 	mov    -0x1210(%rbp),%rax
    f6e6:	0f b7 00             	movzwl (%rax),%eax
    f6e9:	98                   	cwtl   
    f6ea:	44 89 e6             	mov    %r12d,%esi
    f6ed:	89 c7                	mov    %eax,%edi
    f6ef:	e8 bf bc ff ff       	callq  b3b3 <safe_add_func_int16_t_s_s>
    f6f4:	0f b7 c0             	movzwl %ax,%eax
    f6f7:	89 de                	mov    %ebx,%esi
    f6f9:	89 c7                	mov    %eax,%edi
    f6fb:	e8 06 c7 ff ff       	callq  be06 <safe_lshift_func_uint16_t_u_u>
    f700:	0f b7 c0             	movzwl %ax,%eax
    f703:	48 89 c7             	mov    %rax,%rdi
    f706:	e8 0b c1 ff ff       	callq  b816 <safe_unary_minus_func_int64_t_s>
    f70b:	48 89 c2             	mov    %rax,%rdx
    f70e:	48 8b 85 48 ee ff ff 	mov    -0x11b8(%rbp),%rax
    f715:	48 8b 00             	mov    (%rax),%rax
    f718:	8b 00                	mov    (%rax),%eax
    f71a:	48 98                	cltq   
    f71c:	48 89 d6             	mov    %rdx,%rsi
    f71f:	48 89 c7             	mov    %rax,%rdi
    f722:	e8 d0 c2 ff ff       	callq  b9f7 <safe_div_func_int64_t_s_s>
    f727:	48 8b 05 d2 10 01 00 	mov    0x110d2(%rip),%rax        # 20800 <g_1159>
    f72e:	c7 00 01 00 00 00    	movl   $0x1,(%rax)
    f734:	66 c7 05 73 d9 00 00 	movw   $0x0,0xd973(%rip)        # 1d0b0 <g_180>
    f73b:	00 00 
    f73d:	eb 42                	jmp    f781 <func_15+0x2815>
    f73f:	48 8b 85 48 ee ff ff 	mov    -0x11b8(%rbp),%rax
    f746:	48 8b 00             	mov    (%rax),%rax
    f749:	8b 00                	mov    (%rax),%eax
    f74b:	85 c0                	test   %eax,%eax
    f74d:	75 41                	jne    f790 <func_15+0x2824>
    f74f:	48 8b 15 b2 0f 01 00 	mov    0x10fb2(%rip),%rdx        # 20708 <g_576>
    f756:	48 8b 05 fb 0f 01 00 	mov    0x10ffb(%rip),%rax        # 20758 <g_777>
    f75d:	48 8b 12             	mov    (%rdx),%rdx
    f760:	48 89 10             	mov    %rdx,(%rax)
    f763:	48 8b 15 de 14 01 00 	mov    0x114de(%rip),%rdx        # 20c48 <g_1664>
    f76a:	48 8b 00             	mov    (%rax),%rax
    f76d:	48 89 02             	mov    %rax,(%rdx)
    f770:	0f b7 05 39 d9 00 00 	movzwl 0xd939(%rip),%eax        # 1d0b0 <g_180>
    f777:	83 c0 01             	add    $0x1,%eax
    f77a:	66 89 05 2f d9 00 00 	mov    %ax,0xd92f(%rip)        # 1d0b0 <g_180>
    f781:	0f b7 05 28 d9 00 00 	movzwl 0xd928(%rip),%eax        # 1d0b0 <g_180>
    f788:	66 83 f8 22          	cmp    $0x22,%ax
    f78c:	76 b1                	jbe    f73f <func_15+0x27d3>
    f78e:	eb 01                	jmp    f791 <func_15+0x2825>
    f790:	90                   	nop
    f791:	48 8b 05 f8 0f 01 00 	mov    0x10ff8(%rip),%rax        # 20790 <g_926>
    f798:	8b 18                	mov    (%rax),%ebx
    f79a:	0f b7 85 ae ef ff ff 	movzwl -0x1052(%rbp),%eax
    f7a1:	66 c1 e8 03          	shr    $0x3,%ax
    f7a5:	0f b7 c0             	movzwl %ax,%eax
    f7a8:	0f b7 95 b0 ef ff ff 	movzwl -0x1050(%rbp),%edx
    f7af:	81 e2 ff 0f 00 00    	and    $0xfff,%edx
    f7b5:	48 c1 e2 0d          	shl    $0xd,%rdx
    f7b9:	48 09 d0             	or     %rdx,%rax
    f7bc:	0f be c0             	movsbl %al,%eax
    f7bf:	89 c6                	mov    %eax,%esi
    f7c1:	bf 06 00 00 00       	mov    $0x6,%edi
    f7c6:	e8 47 ba ff ff       	callq  b212 <safe_mul_func_int8_t_s_s>
    f7cb:	22 85 2e ed ff ff    	and    -0x12d2(%rbp),%al
    f7d1:	0f be c0             	movsbl %al,%eax
    f7d4:	be 31 00 00 00       	mov    $0x31,%esi
    f7d9:	89 c7                	mov    %eax,%edi
    f7db:	e8 15 bc ff ff       	callq  b3f5 <safe_mul_func_int16_t_s_s>
    f7e0:	98                   	cwtl   
    f7e1:	89 de                	mov    %ebx,%esi
    f7e3:	89 c7                	mov    %eax,%edi
    f7e5:	e8 ce c6 ff ff       	callq  beb8 <safe_add_func_uint32_t_u_u>
    f7ea:	8b 95 c8 ef ff ff    	mov    -0x1038(%rbp),%edx
    f7f0:	8b 85 84 ed ff ff    	mov    -0x127c(%rbp),%eax
    f7f6:	39 c2                	cmp    %eax,%edx
    f7f8:	0f 96 c0             	setbe  %al
    f7fb:	0f b6 c0             	movzbl %al,%eax
    f7fe:	be 00 00 00 00       	mov    $0x0,%esi
    f803:	89 c7                	mov    %eax,%edi
    f805:	e8 33 c5 ff ff       	callq  bd3d <safe_mul_func_uint16_t_u_u>
    f80a:	48 8b 05 e7 0f 01 00 	mov    0x10fe7(%rip),%rax        # 207f8 <g_1155>
    f811:	c7 00 01 00 00 00    	movl   $0x1,(%rax)
    f817:	48 8b 15 82 0b 01 00 	mov    0x10b82(%rip),%rdx        # 203a0 <g_34>
    f81e:	8b 00                	mov    (%rax),%eax
    f820:	89 02                	mov    %eax,(%rdx)
    f822:	c7 05 a4 18 01 00 f8 	movl   $0xfffffff8,0x118a4(%rip)        # 210d0 <g_617>
    f829:	ff ff ff 
    f82c:	e9 95 00 00 00       	jmpq   f8c6 <func_15+0x295a>
    f831:	48 c7 85 38 ef ff ff 	movq   $0x0,-0x10c8(%rbp)
    f838:	00 00 00 00 
    f83c:	48 c7 85 40 ef ff ff 	movq   $0x0,-0x10c0(%rbp)
    f843:	00 00 00 00 
    f847:	c7 85 70 ed ff ff 00 	movl   $0x0,-0x1290(%rbp)
    f84e:	00 00 00 
    f851:	eb 1e                	jmp    f871 <func_15+0x2905>
    f853:	8b 85 70 ed ff ff    	mov    -0x1290(%rbp),%eax
    f859:	48 98                	cltq   
    f85b:	48 8d 95 38 ed ff ff 	lea    -0x12c8(%rbp),%rdx
    f862:	48 89 94 c5 c0 f1 ff 	mov    %rdx,-0xe40(%rbp,%rax,8)
    f869:	ff 
    f86a:	83 85 70 ed ff ff 01 	addl   $0x1,-0x1290(%rbp)
    f871:	83 bd 70 ed ff ff 02 	cmpl   $0x2,-0x1290(%rbp)
    f878:	7e d9                	jle    f853 <func_15+0x28e7>
    f87a:	83 ad 58 ed ff ff 01 	subl   $0x1,-0x12a8(%rbp)
    f881:	48 8d 85 18 ed ff ff 	lea    -0x12e8(%rbp),%rax
    f888:	48 89 05 c9 13 01 00 	mov    %rax,0x113c9(%rip)        # 20c58 <g_1685>
    f88f:	48 8b 15 a2 0f 01 00 	mov    0x10fa2(%rip),%rdx        # 20838 <g_1383>
    f896:	48 8b 85 c0 f1 ff ff 	mov    -0xe40(%rbp),%rax
    f89d:	48 89 02             	mov    %rax,(%rdx)
    f8a0:	48 8b 05 61 0f 01 00 	mov    0x10f61(%rip),%rax        # 20808 <g_1158>
    f8a7:	48 8b 12             	mov    (%rdx),%rdx
    f8aa:	48 89 10             	mov    %rdx,(%rax)
    f8ad:	48 8b 00             	mov    (%rax),%rax
    f8b0:	48 89 85 18 ed ff ff 	mov    %rax,-0x12e8(%rbp)
    f8b7:	8b 05 13 18 01 00    	mov    0x11813(%rip),%eax        # 210d0 <g_617>
    f8bd:	83 c0 01             	add    $0x1,%eax
    f8c0:	89 05 0a 18 01 00    	mov    %eax,0x1180a(%rip)        # 210d0 <g_617>
    f8c6:	8b 05 04 18 01 00    	mov    0x11804(%rip),%eax        # 210d0 <g_617>
    f8cc:	83 f8 0a             	cmp    $0xa,%eax
    f8cf:	0f 84 5c ff ff ff    	je     f831 <func_15+0x28c5>
    f8d5:	48 8b 05 7c 13 01 00 	mov    0x1137c(%rip),%rax        # 20c58 <g_1685>
    f8dc:	48 8b 95 18 ed ff ff 	mov    -0x12e8(%rbp),%rdx
    f8e3:	48 89 10             	mov    %rdx,(%rax)
    f8e6:	48 8b 05 83 0e 01 00 	mov    0x10e83(%rip),%rax        # 20770 <g_794>
    f8ed:	48 8b 00             	mov    (%rax),%rax
    f8f0:	48 8b 00             	mov    (%rax),%rax
    f8f3:	48 8b 85 48 ee ff ff 	mov    -0x11b8(%rbp),%rax
    f8fa:	48 8b 00             	mov    (%rax),%rax
    f8fd:	8b 00                	mov    (%rax),%eax
    f8ff:	89 85 4c ed ff ff    	mov    %eax,-0x12b4(%rbp)
    f905:	48 8b 85 b0 ed ff ff 	mov    -0x1250(%rbp),%rax
    f90c:	48 8b 00             	mov    (%rax),%rax
    f90f:	8b 00                	mov    (%rax),%eax
    f911:	23 85 4c ed ff ff    	and    -0x12b4(%rbp),%eax
    f917:	89 c2                	mov    %eax,%edx
    f919:	48 8b 85 b0 ed ff ff 	mov    -0x1250(%rbp),%rax
    f920:	48 8b 00             	mov    (%rax),%rax
    f923:	8b 00                	mov    (%rax),%eax
    f925:	89 d6                	mov    %edx,%esi
    f927:	89 c7                	mov    %eax,%edi
    f929:	e8 f7 c5 ff ff       	callq  bf25 <safe_div_func_uint32_t_u_u>
    f92e:	48 8b 95 b0 ed ff ff 	mov    -0x1250(%rbp),%rdx
    f935:	48 8b 12             	mov    (%rdx),%rdx
    f938:	8b 12                	mov    (%rdx),%edx
    f93a:	39 d0                	cmp    %edx,%eax
    f93c:	0f 92 c0             	setb   %al
    f93f:	0f b6 d0             	movzbl %al,%edx
    f942:	48 8b 85 b0 ed ff ff 	mov    -0x1250(%rbp),%rax
    f949:	48 8b 00             	mov    (%rax),%rax
    f94c:	8b 00                	mov    (%rax),%eax
    f94e:	39 c2                	cmp    %eax,%edx
    f950:	0f 9e c0             	setle  %al
    f953:	0f b6 d0             	movzbl %al,%edx
    f956:	48 8b 05 03 13 01 00 	mov    0x11303(%rip),%rax        # 20c60 <g_1715>
    f95d:	0f b6 00             	movzbl (%rax),%eax
    f960:	0f be c0             	movsbl %al,%eax
    f963:	89 d6                	mov    %edx,%esi
    f965:	89 c7                	mov    %eax,%edi
    f967:	e8 68 b8 ff ff       	callq  b1d4 <safe_add_func_int8_t_s_s>
    f96c:	89 c2                	mov    %eax,%edx
    f96e:	48 8b 05 93 0e 01 00 	mov    0x10e93(%rip),%rax        # 20808 <g_1158>
    f975:	48 8b 00             	mov    (%rax),%rax
    f978:	0f be d2             	movsbl %dl,%edx
    f97b:	89 10                	mov    %edx,(%rax)
    f97d:	48 8b 05 5c 0e 01 00 	mov    0x10e5c(%rip),%rax        # 207e0 <g_965>
    f984:	48 8b 00             	mov    (%rax),%rax
    f987:	48 89 85 58 ee ff ff 	mov    %rax,-0x11a8(%rbp)
    f98e:	48 8b 05 db 12 01 00 	mov    0x112db(%rip),%rax        # 20c70 <g_1733>
    f995:	48 8b 00             	mov    (%rax),%rax
    f998:	0f b6 00             	movzbl (%rax),%eax
    f99b:	0f be d8             	movsbl %al,%ebx
    f99e:	48 8b 05 a3 0d 01 00 	mov    0x10da3(%rip),%rax        # 20748 <g_628>
    f9a5:	48 8b 00             	mov    (%rax),%rax
    f9a8:	48 8b 00             	mov    (%rax),%rax
    f9ab:	48 85 c0             	test   %rax,%rax
    f9ae:	0f 85 0c 03 00 00    	jne    fcc0 <func_15+0x2d54>
    f9b4:	e9 49 01 00 00       	jmpq   fb02 <func_15+0x2b96>
    f9b9:	c7 85 7c ed ff ff 6f 	movl   $0xad70866f,-0x1284(%rbp)
    f9c0:	86 70 ad 
    f9c3:	48 8d 85 3c ed ff ff 	lea    -0x12c4(%rbp),%rax
    f9ca:	48 89 85 d0 ee ff ff 	mov    %rax,-0x1130(%rbp)
    f9d1:	48 c7 05 e4 d7 00 00 	movq   $0xffffffffffffffff,0xd7e4(%rip)        # 1d1c0 <g_1621>
    f9d8:	ff ff ff ff 
    f9dc:	e9 a6 00 00 00       	jmpq   fa87 <func_15+0x2b1b>
    f9e1:	66 c7 05 26 d7 00 00 	movw   $0x0,0xd726(%rip)        # 1d110 <g_757>
    f9e8:	00 00 
    f9ea:	eb 79                	jmp    fa65 <func_15+0x2af9>
    f9ec:	66 c7 05 9b d7 00 00 	movw   $0x0,0xd79b(%rip)        # 1d190 <g_1304>
    f9f3:	00 00 
    f9f5:	eb 50                	jmp    fa47 <func_15+0x2adb>
    f9f7:	0f b7 05 12 d7 00 00 	movzwl 0xd712(%rip),%eax        # 1d110 <g_757>
    f9fe:	98                   	cwtl   
    f9ff:	0f b7 15 8a d7 00 00 	movzwl 0xd78a(%rip),%edx        # 1d190 <g_1304>
    fa06:	0f bf d2             	movswl %dx,%edx
    fa09:	48 63 ca             	movslq %edx,%rcx
    fa0c:	48 63 d0             	movslq %eax,%rdx
    fa0f:	48 89 d0             	mov    %rdx,%rax
    fa12:	48 c1 e0 02          	shl    $0x2,%rax
    fa16:	48 01 d0             	add    %rdx,%rax
    fa19:	48 01 c8             	add    %rcx,%rax
    fa1c:	48 8d 14 c5 00 00 00 	lea    0x0(,%rax,8),%rdx
    fa23:	00 
    fa24:	48 8d 05 b5 16 01 00 	lea    0x116b5(%rip),%rax        # 210e0 <g_623>
    fa2b:	48 8d 0d 2e 96 00 00 	lea    0x962e(%rip),%rcx        # 19060 <g_462>
    fa32:	48 89 0c 02          	mov    %rcx,(%rdx,%rax,1)
    fa36:	0f b7 05 53 d7 00 00 	movzwl 0xd753(%rip),%eax        # 1d190 <g_1304>
    fa3d:	83 c0 01             	add    $0x1,%eax
    fa40:	66 89 05 49 d7 00 00 	mov    %ax,0xd749(%rip)        # 1d190 <g_1304>
    fa47:	0f b7 05 42 d7 00 00 	movzwl 0xd742(%rip),%eax        # 1d190 <g_1304>
    fa4e:	66 83 f8 04          	cmp    $0x4,%ax
    fa52:	7e a3                	jle    f9f7 <func_15+0x2a8b>
    fa54:	0f b7 05 b5 d6 00 00 	movzwl 0xd6b5(%rip),%eax        # 1d110 <g_757>
    fa5b:	83 c0 01             	add    $0x1,%eax
    fa5e:	66 89 05 ab d6 00 00 	mov    %ax,0xd6ab(%rip)        # 1d110 <g_757>
    fa65:	0f b7 05 a4 d6 00 00 	movzwl 0xd6a4(%rip),%eax        # 1d110 <g_757>
    fa6c:	66 85 c0             	test   %ax,%ax
    fa6f:	0f 8e 77 ff ff ff    	jle    f9ec <func_15+0x2a80>
    fa75:	48 8b 05 44 d7 00 00 	mov    0xd744(%rip),%rax        # 1d1c0 <g_1621>
    fa7c:	48 83 e8 01          	sub    $0x1,%rax
    fa80:	48 89 05 39 d7 00 00 	mov    %rax,0xd739(%rip)        # 1d1c0 <g_1621>
    fa87:	48 8b 05 32 d7 00 00 	mov    0xd732(%rip),%rax        # 1d1c0 <g_1621>
    fa8e:	48 83 f8 f8          	cmp    $0xfffffffffffffff8,%rax
    fa92:	0f 8c 49 ff ff ff    	jl     f9e1 <func_15+0x2a75>
    fa98:	0f b7 85 fa ef ff ff 	movzwl -0x1006(%rbp),%eax
    fa9f:	0f b7 d0             	movzwl %ax,%edx
    faa2:	48 8b 85 d0 ee ff ff 	mov    -0x1130(%rbp),%rax
    faa9:	89 10                	mov    %edx,(%rax)
    faab:	48 8b 85 d0 ee ff ff 	mov    -0x1130(%rbp),%rax
    fab2:	8b 00                	mov    (%rax),%eax
    fab4:	89 c3                	mov    %eax,%ebx
    fab6:	48 8b 85 b0 ed ff ff 	mov    -0x1250(%rbp),%rax
    fabd:	48 8b 00             	mov    (%rax),%rax
    fac0:	8b 00                	mov    (%rax),%eax
    fac2:	0f bf d0             	movswl %ax,%edx
    fac5:	8b 85 7c ed ff ff    	mov    -0x1284(%rbp),%eax
    facb:	98                   	cwtl   
    facc:	89 d6                	mov    %edx,%esi
    face:	89 c7                	mov    %eax,%edi
    fad0:	e8 41 b9 ff ff       	callq  b416 <safe_mod_func_int16_t_s_s>
    fad5:	98                   	cwtl   
    fad6:	89 de                	mov    %ebx,%esi
    fad8:	89 c7                	mov    %eax,%edi
    fada:	e8 1e c4 ff ff       	callq  befd <safe_mod_func_uint32_t_u_u>
    fadf:	48 8b 15 ba 08 01 00 	mov    0x108ba(%rip),%rdx        # 203a0 <g_34>
    fae6:	8b 12                	mov    (%rdx),%edx
    fae8:	31 c2                	xor    %eax,%edx
    faea:	48 8b 05 af 08 01 00 	mov    0x108af(%rip),%rax        # 203a0 <g_34>
    faf1:	89 10                	mov    %edx,(%rax)
    faf3:	48 8b 05 ae 0b 01 00 	mov    0x10bae(%rip),%rax        # 206a8 <g_273>
    fafa:	0f b6 00             	movzbl (%rax),%eax
    fafd:	e9 7f 04 00 00       	jmpq   ff81 <func_15+0x3015>
    fb02:	48 8b 85 b0 ed ff ff 	mov    -0x1250(%rbp),%rax
    fb09:	48 8b 00             	mov    (%rax),%rax
    fb0c:	8b 00                	mov    (%rax),%eax
    fb0e:	4c 63 e0             	movslq %eax,%r12
    fb11:	48 8b 85 b0 ed ff ff 	mov    -0x1250(%rbp),%rax
    fb18:	48 8b 00             	mov    (%rax),%rax
    fb1b:	44 8b 30             	mov    (%rax),%r14d
    fb1e:	48 8b 85 b0 ed ff ff 	mov    -0x1250(%rbp),%rax
    fb25:	48 8b 00             	mov    (%rax),%rax
    fb28:	44 8b 28             	mov    (%rax),%r13d
    fb2b:	48 8b 85 b0 ed ff ff 	mov    -0x1250(%rbp),%rax
    fb32:	48 8b 00             	mov    (%rax),%rax
    fb35:	8b 00                	mov    (%rax),%eax
    fb37:	41 89 c7             	mov    %eax,%r15d
    fb3a:	48 8b 85 48 ee ff ff 	mov    -0x11b8(%rbp),%rax
    fb41:	48 8b 00             	mov    (%rax),%rax
    fb44:	8b 00                	mov    (%rax),%eax
    fb46:	0f b6 d0             	movzbl %al,%edx
    fb49:	48 8b 85 b0 ed ff ff 	mov    -0x1250(%rbp),%rax
    fb50:	48 8b 00             	mov    (%rax),%rax
    fb53:	8b 00                	mov    (%rax),%eax
    fb55:	0f b6 c0             	movzbl %al,%eax
    fb58:	89 d6                	mov    %edx,%esi
    fb5a:	89 c7                	mov    %eax,%edi
    fb5c:	e8 f9 bf ff ff       	callq  bb5a <safe_add_func_uint8_t_u_u>
    fb61:	44 89 fe             	mov    %r15d,%esi
    fb64:	bf 01 00 00 00       	mov    $0x1,%edi
    fb69:	e8 0c c3 ff ff       	callq  be7a <safe_rshift_func_uint16_t_u_u>
    fb6e:	0f b7 d0             	movzwl %ax,%edx
    fb71:	48 8b 85 48 ee ff ff 	mov    -0x11b8(%rbp),%rax
    fb78:	48 8b 00             	mov    (%rax),%rax
    fb7b:	8b 00                	mov    (%rax),%eax
    fb7d:	39 c2                	cmp    %eax,%edx
    fb7f:	0f 95 c0             	setne  %al
    fb82:	0f b6 c0             	movzbl %al,%eax
    fb85:	44 89 ee             	mov    %r13d,%esi
    fb88:	89 c7                	mov    %eax,%edi
    fb8a:	e8 b9 c2 ff ff       	callq  be48 <safe_rshift_func_uint16_t_u_s>
    fb8f:	0f b7 c0             	movzwl %ax,%eax
    fb92:	89 85 78 ed ff ff    	mov    %eax,-0x1288(%rbp)
    fb98:	44 0b b5 78 ed ff ff 	or     -0x1288(%rbp),%r14d
    fb9f:	45 89 f7             	mov    %r14d,%r15d
    fba2:	48 8b 85 60 ee ff ff 	mov    -0x11a0(%rbp),%rax
    fba9:	0f b6 10             	movzbl (%rax),%edx
    fbac:	48 8b 05 f5 0a 01 00 	mov    0x10af5(%rip),%rax        # 206a8 <g_273>
    fbb3:	0f b6 00             	movzbl (%rax),%eax
    fbb6:	31 c2                	xor    %eax,%edx
    fbb8:	48 8b 85 60 ee ff ff 	mov    -0x11a0(%rbp),%rax
    fbbf:	88 10                	mov    %dl,(%rax)
    fbc1:	48 8b 85 60 ee ff ff 	mov    -0x11a0(%rbp),%rax
    fbc8:	0f b6 10             	movzbl (%rax),%edx
    fbcb:	48 8b 85 68 ee ff ff 	mov    -0x1198(%rbp),%rax
    fbd2:	0f b6 00             	movzbl (%rax),%eax
    fbd5:	89 c1                	mov    %eax,%ecx
    fbd7:	48 8b 85 b0 ed ff ff 	mov    -0x1250(%rbp),%rax
    fbde:	48 8b 00             	mov    (%rax),%rax
    fbe1:	8b 00                	mov    (%rax),%eax
    fbe3:	31 c8                	xor    %ecx,%eax
    fbe5:	89 c1                	mov    %eax,%ecx
    fbe7:	48 8b 85 68 ee ff ff 	mov    -0x1198(%rbp),%rax
    fbee:	88 08                	mov    %cl,(%rax)
    fbf0:	48 8b 85 68 ee ff ff 	mov    -0x1198(%rbp),%rax
    fbf7:	0f b6 00             	movzbl (%rax),%eax
    fbfa:	38 c2                	cmp    %al,%dl
    fbfc:	0f 93 c0             	setae  %al
    fbff:	44 0f b6 e8          	movzbl %al,%r13d
    fc03:	48 8b 85 b0 ed ff ff 	mov    -0x1250(%rbp),%rax
    fc0a:	48 8b 00             	mov    (%rax),%rax
    fc0d:	8b 00                	mov    (%rax),%eax
    fc0f:	44 0f b7 f0          	movzwl %ax,%r14d
    fc13:	48 8b 85 b0 ed ff ff 	mov    -0x1250(%rbp),%rax
    fc1a:	48 8b 00             	mov    (%rax),%rax
    fc1d:	8b 00                	mov    (%rax),%eax
    fc1f:	0f b7 c0             	movzwl %ax,%eax
    fc22:	be 0f 00 00 00       	mov    $0xf,%esi
    fc27:	89 c7                	mov    %eax,%edi
    fc29:	e8 90 c1 ff ff       	callq  bdbe <safe_lshift_func_uint16_t_u_s>
    fc2e:	0f b7 c0             	movzwl %ax,%eax
    fc31:	44 89 f6             	mov    %r14d,%esi
    fc34:	89 c7                	mov    %eax,%edi
    fc36:	e8 e4 c0 ff ff       	callq  bd1f <safe_sub_func_uint16_t_u_u>
    fc3b:	0f be c0             	movsbl %al,%eax
    fc3e:	44 89 ee             	mov    %r13d,%esi
    fc41:	89 c7                	mov    %eax,%edi
    fc43:	e8 8c b5 ff ff       	callq  b1d4 <safe_add_func_int8_t_s_s>
    fc48:	66 0f be d0          	movsbw %al,%dx
    fc4c:	48 8b 85 70 ee ff ff 	mov    -0x1190(%rbp),%rax
    fc53:	66 89 10             	mov    %dx,(%rax)
    fc56:	48 8b 85 70 ee ff ff 	mov    -0x1190(%rbp),%rax
    fc5d:	0f b7 00             	movzwl (%rax),%eax
    fc60:	0f b7 d0             	movzwl %ax,%edx
    fc63:	44 89 f9             	mov    %r15d,%ecx
    fc66:	0f b7 05 53 d4 00 00 	movzwl 0xd453(%rip),%eax        # 1d0c0 <g_203>
    fc6d:	21 c8                	and    %ecx,%eax
    fc6f:	66 89 05 4a d4 00 00 	mov    %ax,0xd44a(%rip)        # 1d0c0 <g_203>
    fc76:	0f b7 05 43 d4 00 00 	movzwl 0xd443(%rip),%eax        # 1d0c0 <g_203>
    fc7d:	98                   	cwtl   
    fc7e:	39 c2                	cmp    %eax,%edx
    fc80:	0f 9d c0             	setge  %al
    fc83:	0f b6 d0             	movzbl %al,%edx
    fc86:	48 8b 85 b0 ed ff ff 	mov    -0x1250(%rbp),%rax
    fc8d:	48 8b 00             	mov    (%rax),%rax
    fc90:	8b 00                	mov    (%rax),%eax
    fc92:	39 c2                	cmp    %eax,%edx
    fc94:	4c 89 e6             	mov    %r12,%rsi
    fc97:	bf 01 00 00 00       	mov    $0x1,%edi
    fc9c:	e8 df c3 ff ff       	callq  c080 <safe_mod_func_uint64_t_u_u>
    fca1:	98                   	cwtl   
    fca2:	be 4d fc ff ff       	mov    $0xfffffc4d,%esi
    fca7:	89 c7                	mov    %eax,%edi
    fca9:	e8 a7 b7 ff ff       	callq  b455 <safe_div_func_int16_t_s_s>
    fcae:	89 c2                	mov    %eax,%edx
    fcb0:	48 8b 05 f1 09 01 00 	mov    0x109f1(%rip),%rax        # 206a8 <g_273>
    fcb7:	88 10                	mov    %dl,(%rax)
    fcb9:	b8 00 00 00 00       	mov    $0x0,%eax
    fcbe:	eb 05                	jmp    fcc5 <func_15+0x2d59>
    fcc0:	b8 01 00 00 00       	mov    $0x1,%eax
    fcc5:	89 c2                	mov    %eax,%edx
    fcc7:	48 8b 85 78 ee ff ff 	mov    -0x1188(%rbp),%rax
    fcce:	66 89 10             	mov    %dx,(%rax)
    fcd1:	48 8b 85 78 ee ff ff 	mov    -0x1188(%rbp),%rax
    fcd8:	0f b7 10             	movzwl (%rax),%edx
    fcdb:	48 8b 85 80 ee ff ff 	mov    -0x1180(%rbp),%rax
    fce2:	0f b7 00             	movzwl (%rax),%eax
    fce5:	21 c2                	and    %eax,%edx
    fce7:	48 8b 85 80 ee ff ff 	mov    -0x1180(%rbp),%rax
    fcee:	66 89 10             	mov    %dx,(%rax)
    fcf1:	48 8b 85 80 ee ff ff 	mov    -0x1180(%rbp),%rax
    fcf8:	0f b7 00             	movzwl (%rax),%eax
    fcfb:	89 c2                	mov    %eax,%edx
    fcfd:	48 8b 85 48 ee ff ff 	mov    -0x11b8(%rbp),%rax
    fd04:	48 8b 00             	mov    (%rax),%rax
    fd07:	8b 00                	mov    (%rax),%eax
    fd09:	09 d0                	or     %edx,%eax
    fd0b:	0f be c0             	movsbl %al,%eax
    fd0e:	89 de                	mov    %ebx,%esi
    fd10:	89 c7                	mov    %eax,%edi
    fd12:	e8 1e b6 ff ff       	callq  b335 <safe_rshift_func_int8_t_s_s>
    fd17:	48 8b 85 b0 ed ff ff 	mov    -0x1250(%rbp),%rax
    fd1e:	48 8b 00             	mov    (%rax),%rax
    fd21:	8b 00                	mov    (%rax),%eax
    fd23:	21 85 4c ed ff ff    	and    %eax,-0x12b4(%rbp)
    fd29:	83 bd 4c ed ff ff 00 	cmpl   $0x0,-0x12b4(%rbp)
    fd30:	0f 9e c2             	setle  %dl
    fd33:	48 8b 85 48 ee ff ff 	mov    -0x11b8(%rbp),%rax
    fd3a:	48 8b 00             	mov    (%rax),%rax
    fd3d:	0f b6 d2             	movzbl %dl,%edx
    fd40:	89 10                	mov    %edx,(%rax)
    fd42:	e9 05 02 00 00       	jmpq   ff4c <func_15+0x2fe0>
    fd47:	c6 85 2f ed ff ff ea 	movb   $0xea,-0x12d1(%rbp)
    fd4e:	48 8d 05 03 0a 01 00 	lea    0x10a03(%rip),%rax        # 20758 <g_777>
    fd55:	48 89 85 20 ee ff ff 	mov    %rax,-0x11e0(%rbp)
    fd5c:	48 c7 85 c8 ef ff ff 	movq   $0x0,-0x1038(%rbp)
    fd63:	00 00 00 00 
    fd67:	48 8d 85 c8 ef ff ff 	lea    -0x1038(%rbp),%rax
    fd6e:	48 89 85 28 ee ff ff 	mov    %rax,-0x11d8(%rbp)
    fd75:	c7 85 b8 ef ff ff b4 	movl   $0xf8dc7cb4,-0x1048(%rbp)
    fd7c:	7c dc f8 
    fd7f:	48 8d 85 b8 ef ff ff 	lea    -0x1048(%rbp),%rax
    fd86:	48 89 85 30 ee ff ff 	mov    %rax,-0x11d0(%rbp)
    fd8d:	0f b6 9d 2f ed ff ff 	movzbl -0x12d1(%rbp),%ebx
    fd94:	48 8b 85 b0 ed ff ff 	mov    -0x1250(%rbp),%rax
    fd9b:	48 8b 00             	mov    (%rax),%rax
    fd9e:	8b 00                	mov    (%rax),%eax
    fda0:	4c 63 e0             	movslq %eax,%r12
    fda3:	bf 05 00 00 00       	mov    $0x5,%edi
    fda8:	e8 e9 b7 ff ff       	callq  b596 <safe_unary_minus_func_int32_t_s>
    fdad:	0f bf d0             	movswl %ax,%edx
    fdb0:	0f b6 85 2f ed ff ff 	movzbl -0x12d1(%rbp),%eax
    fdb7:	89 d6                	mov    %edx,%esi
    fdb9:	89 c7                	mov    %eax,%edi
    fdbb:	e8 56 b6 ff ff       	callq  b416 <safe_mod_func_int16_t_s_s>
    fdc0:	0f b6 d0             	movzbl %al,%edx
    fdc3:	0f b6 85 2f ed ff ff 	movzbl -0x12d1(%rbp),%eax
    fdca:	89 d6                	mov    %edx,%esi
    fdcc:	89 c7                	mov    %eax,%edi
    fdce:	e8 a5 bd ff ff       	callq  bb78 <safe_sub_func_uint8_t_u_u>
    fdd3:	44 0f b6 ad 2f ed ff 	movzbl -0x12d1(%rbp),%r13d
    fdda:	ff 
    fddb:	0f b6 05 be d2 00 00 	movzbl 0xd2be(%rip),%eax        # 1d0a0 <g_117>
    fde2:	44 0f b6 f0          	movzbl %al,%r14d
    fde6:	48 8b 85 a8 ed ff ff 	mov    -0x1258(%rbp),%rax
    fded:	8b 08                	mov    (%rax),%ecx
    fdef:	48 8d 05 9a 09 01 00 	lea    0x1099a(%rip),%rax        # 20790 <g_926>
    fdf6:	48 8b 00             	mov    (%rax),%rax
    fdf9:	8b 10                	mov    (%rax),%edx
    fdfb:	48 8b 85 a8 ed ff ff 	mov    -0x1258(%rbp),%rax
    fe02:	31 ca                	xor    %ecx,%edx
    fe04:	89 10                	mov    %edx,(%rax)
    fe06:	8b 00                	mov    (%rax),%eax
    fe08:	85 c0                	test   %eax,%eax
    fe0a:	0f 95 c0             	setne  %al
    fe0d:	0f b6 c0             	movzbl %al,%eax
    fe10:	89 85 14 ed ff ff    	mov    %eax,-0x12ec(%rbp)
    fe16:	44 0f b6 bd 2f ed ff 	movzbl -0x12d1(%rbp),%r15d
    fe1d:	ff 
    fe1e:	48 8b 85 28 ee ff ff 	mov    -0x11d8(%rbp),%rax
    fe25:	48 8d 95 98 ed ff ff 	lea    -0x1268(%rbp),%rdx
    fe2c:	48 89 10             	mov    %rdx,(%rax)
    fe2f:	be 07 00 00 00       	mov    $0x7,%esi
    fe34:	bf 00 00 00 00       	mov    $0x0,%edi
    fe39:	e8 ff be ff ff       	callq  bd3d <safe_mul_func_uint16_t_u_u>
    fe3e:	0f b7 c0             	movzwl %ax,%eax
    fe41:	48 be 28 c9 c5 47 19 	movabs $0xbf504a1947c5c928,%rsi
    fe48:	4a 50 bf 
    fe4b:	48 89 c7             	mov    %rax,%rdi
    fe4e:	e8 2d c2 ff ff       	callq  c080 <safe_mod_func_uint64_t_u_u>
    fe53:	4c 89 fe             	mov    %r15,%rsi
    fe56:	48 89 c7             	mov    %rax,%rdi
    fe59:	e8 22 c2 ff ff       	callq  c080 <safe_mod_func_uint64_t_u_u>
    fe5e:	48 85 c0             	test   %rax,%rax
    fe61:	75 10                	jne    fe73 <func_15+0x2f07>
    fe63:	48 8b 85 b0 ed ff ff 	mov    -0x1250(%rbp),%rax
    fe6a:	48 8b 00             	mov    (%rax),%rax
    fe6d:	8b 00                	mov    (%rax),%eax
    fe6f:	85 c0                	test   %eax,%eax
    fe71:	74 07                	je     fe7a <func_15+0x2f0e>
    fe73:	b8 01 00 00 00       	mov    $0x1,%eax
    fe78:	eb 05                	jmp    fe7f <func_15+0x2f13>
    fe7a:	b8 00 00 00 00       	mov    $0x0,%eax
    fe7f:	3b 85 14 ed ff ff    	cmp    -0x12ec(%rbp),%eax
    fe85:	0f 9e c0             	setle  %al
    fe88:	0f b6 c0             	movzbl %al,%eax
    fe8b:	be 06 00 00 00       	mov    $0x6,%esi
    fe90:	89 c7                	mov    %eax,%edi
    fe92:	e8 f6 bd ff ff       	callq  bc8d <safe_rshift_func_uint8_t_u_s>
    fe97:	0f be c0             	movsbl %al,%eax
    fe9a:	89 c7                	mov    %eax,%edi
    fe9c:	e8 1e b3 ff ff       	callq  b1bf <safe_unary_minus_func_int8_t_s>
    fea1:	0f be d0             	movsbl %al,%edx
    fea4:	48 8d 85 c8 ed ff ff 	lea    -0x1238(%rbp),%rax
    feab:	48 39 85 20 ee ff ff 	cmp    %rax,-0x11e0(%rbp)
    feb2:	0f 94 c0             	sete   %al
    feb5:	0f b6 c0             	movzbl %al,%eax
    feb8:	89 d6                	mov    %edx,%esi
    feba:	89 c7                	mov    %eax,%edi
    febc:	e8 55 b5 ff ff       	callq  b416 <safe_mod_func_int16_t_s_s>
    fec1:	48 8b 05 b0 08 01 00 	mov    0x108b0(%rip),%rax        # 20778 <g_883>
    fec8:	48 8b 00             	mov    (%rax),%rax
    fecb:	48 c7 00 01 00 00 00 	movq   $0x1,(%rax)
    fed2:	48 8b 00             	mov    (%rax),%rax
    fed5:	4c 89 f6             	mov    %r14,%rsi
    fed8:	48 89 c7             	mov    %rax,%rdi
    fedb:	e8 a0 c1 ff ff       	callq  c080 <safe_mod_func_uint64_t_u_u>
    fee0:	98                   	cwtl   
    fee1:	44 89 ee             	mov    %r13d,%esi
    fee4:	89 c7                	mov    %eax,%edi
    fee6:	e8 f6 b5 ff ff       	callq  b4e1 <safe_lshift_func_int16_t_s_u>
    feeb:	48 0f bf c0          	movswq %ax,%rax
    feef:	be 04 00 00 00       	mov    $0x4,%esi
    fef4:	48 89 c7             	mov    %rax,%rdi
    fef7:	e8 84 c1 ff ff       	callq  c080 <safe_mod_func_uint64_t_u_u>
    fefc:	25 91 dd 74 57       	and    $0x5774dd91,%eax
    ff01:	48 89 c2             	mov    %rax,%rdx
    ff04:	0f b6 85 2f ed ff ff 	movzbl -0x12d1(%rbp),%eax
    ff0b:	48 39 c2             	cmp    %rax,%rdx
    ff0e:	0f 97 c0             	seta   %al
    ff11:	0f b6 c0             	movzbl %al,%eax
    ff14:	4c 89 e6             	mov    %r12,%rsi
    ff17:	48 89 c7             	mov    %rax,%rdi
    ff1a:	e8 95 ba ff ff       	callq  b9b4 <safe_mod_func_int64_t_s_s>
    ff1f:	89 de                	mov    %ebx,%esi
    ff21:	89 c7                	mov    %eax,%edi
    ff23:	e8 d5 bf ff ff       	callq  befd <safe_mod_func_uint32_t_u_u>
    ff28:	89 c2                	mov    %eax,%edx
    ff2a:	48 8b 05 0f 0d 01 00 	mov    0x10d0f(%rip),%rax        # 20c40 <g_1549>
    ff31:	66 89 10             	mov    %dx,(%rax)
    ff34:	0f b7 00             	movzwl (%rax),%eax
    ff37:	0f bf c8             	movswl %ax,%ecx
    ff3a:	0f b6 95 2f ed ff ff 	movzbl -0x12d1(%rbp),%edx
    ff41:	48 8b 05 58 04 01 00 	mov    0x10458(%rip),%rax        # 203a0 <g_34>
    ff48:	09 ca                	or     %ecx,%edx
    ff4a:	89 10                	mov    %edx,(%rax)
    ff4c:	48 8b 05 1d 08 01 00 	mov    0x1081d(%rip),%rax        # 20770 <g_794>
    ff53:	48 8b 10             	mov    (%rax),%rdx
    ff56:	48 8b 05 0b 08 01 00 	mov    0x1080b(%rip),%rax        # 20768 <g_795>
    ff5d:	48 8b 12             	mov    (%rdx),%rdx
    ff60:	48 89 10             	mov    %rdx,(%rax)
    ff63:	48 8b 05 e6 08 01 00 	mov    0x108e6(%rip),%rax        # 20850 <g_1479>
    ff6a:	48 8b 00             	mov    (%rax),%rax
    ff6d:	48 8b 95 18 ee ff ff 	mov    -0x11e8(%rbp),%rdx
    ff74:	48 89 10             	mov    %rdx,(%rax)
    ff77:	48 8b 05 2a 07 01 00 	mov    0x1072a(%rip),%rax        # 206a8 <g_273>
    ff7e:	0f b6 00             	movzbl (%rax),%eax
    ff81:	48 8b 5d c8          	mov    -0x38(%rbp),%rbx
    ff85:	64 48 33 1c 25 28 00 	xor    %fs:0x28,%rbx
    ff8c:	00 00 
    ff8e:	74 05                	je     ff95 <func_15+0x3029>
    ff90:	e8 db b0 ff ff       	callq  b070 <__stack_chk_fail@plt>
    ff95:	48 81 c4 c8 12 00 00 	add    $0x12c8,%rsp
    ff9c:	5b                   	pop    %rbx
    ff9d:	41 5c                	pop    %r12
    ff9f:	41 5d                	pop    %r13
    ffa1:	41 5e                	pop    %r14
    ffa3:	41 5f                	pop    %r15
    ffa5:	5d                   	pop    %rbp
    ffa6:	c3                   	retq   

000000000000ffa7 <func_17>:
    ffa7:	f3 0f 1e fa          	endbr64 
    ffab:	55                   	push   %rbp
    ffac:	48 89 e5             	mov    %rsp,%rbp
    ffaf:	41 57                	push   %r15
    ffb1:	41 56                	push   %r14
    ffb3:	41 55                	push   %r13
    ffb5:	41 54                	push   %r12
    ffb7:	53                   	push   %rbx
    ffb8:	48 81 ec 58 07 00 00 	sub    $0x758,%rsp
    ffbf:	89 bd 9c f8 ff ff    	mov    %edi,-0x764(%rbp)
    ffc5:	48 89 b5 90 f8 ff ff 	mov    %rsi,-0x770(%rbp)
    ffcc:	89 95 98 f8 ff ff    	mov    %edx,-0x768(%rbp)
    ffd2:	48 89 8d 88 f8 ff ff 	mov    %rcx,-0x778(%rbp)
    ffd9:	64 48 8b 04 25 28 00 	mov    %fs:0x28,%rax
    ffe0:	00 00 
    ffe2:	48 89 45 c8          	mov    %rax,-0x38(%rbp)
    ffe6:	31 c0                	xor    %eax,%eax
    ffe8:	48 c7 85 10 f9 ff ff 	movq   $0x0,-0x6f0(%rbp)
    ffef:	00 00 00 00 
    fff3:	c6 85 18 f9 ff ff 00 	movb   $0x0,-0x6e8(%rbp)
    fffa:	48 b8 fb fd fb fd fb 	movabs $0xfdfbfdfbfdfbfdfb,%rax
   10001:	fd fb fd 
   10004:	48 89 85 19 f9 ff ff 	mov    %rax,-0x6e7(%rbp)
   1000b:	c6 85 21 f9 ff ff fb 	movb   $0xfb,-0x6df(%rbp)
   10012:	48 8d 85 50 fa ff ff 	lea    -0x5b0(%rbp),%rax
   10019:	48 8d 15 e0 da 00 00 	lea    0xdae0(%rip),%rdx        # 1db00 <g_1942+0x8f0>
   10020:	b9 af 00 00 00       	mov    $0xaf,%ecx
   10025:	48 89 c7             	mov    %rax,%rdi
   10028:	48 89 d6             	mov    %rdx,%rsi
   1002b:	f3 48 a5             	rep movsq %ds:(%rsi),%es:(%rdi)
   1002e:	c7 85 a8 f8 ff ff fc 	movl   $0xfffffffc,-0x758(%rbp)
   10035:	ff ff ff 
   10038:	48 8d 05 e1 06 01 00 	lea    0x106e1(%rip),%rax        # 20720 <g_595>
   1003f:	48 89 85 b8 f8 ff ff 	mov    %rax,-0x748(%rbp)
   10046:	48 8b 05 3b 07 01 00 	mov    0x1073b(%rip),%rax        # 20788 <g_913>
   1004d:	48 8b 10             	mov    (%rax),%rdx
   10050:	48 8b 05 b1 07 01 00 	mov    0x107b1(%rip),%rax        # 20808 <g_1158>
   10057:	48 8b 00             	mov    (%rax),%rax
   1005a:	8b 12                	mov    (%rdx),%edx
   1005c:	89 10                	mov    %edx,(%rax)
   1005e:	c7 05 68 d0 00 00 00 	movl   $0x0,0xd068(%rip)        # 1d0d0 <g_204+0x8>
   10065:	00 00 00 
   10068:	e9 63 05 00 00       	jmpq   105d0 <func_17+0x629>
   1006d:	48 8d 85 50 f9 ff ff 	lea    -0x6b0(%rbp),%rax
   10074:	48 8d 15 a5 92 00 00 	lea    0x92a5(%rip),%rdx        # 19320 <g_1850+0x278>
   1007b:	b9 1f 00 00 00       	mov    $0x1f,%ecx
   10080:	48 89 c7             	mov    %rax,%rdi
   10083:	48 89 d6             	mov    %rdx,%rsi
   10086:	f3 48 a5             	rep movsq %ds:(%rsi),%es:(%rdi)
   10089:	48 89 f2             	mov    %rsi,%rdx
   1008c:	48 89 f8             	mov    %rdi,%rax
   1008f:	8b 0a                	mov    (%rdx),%ecx
   10091:	89 08                	mov    %ecx,(%rax)
   10093:	48 8d 40 04          	lea    0x4(%rax),%rax
   10097:	48 8d 52 04          	lea    0x4(%rdx),%rdx
   1009b:	48 c7 85 c0 f8 ff ff 	movq   $0x0,-0x740(%rbp)
   100a2:	00 00 00 00 
   100a6:	48 8d 05 f3 d0 00 00 	lea    0xd0f3(%rip),%rax        # 1d1a0 <g_1320>
   100ad:	48 89 85 c8 f8 ff ff 	mov    %rax,-0x738(%rbp)
   100b4:	48 8d 05 95 cf 00 00 	lea    0xcf95(%rip),%rax        # 1d050 <g_92>
   100bb:	48 89 85 d0 f8 ff ff 	mov    %rax,-0x730(%rbp)
   100c2:	48 8d 05 c7 cf 00 00 	lea    0xcfc7(%rip),%rax        # 1d090 <g_112>
   100c9:	48 89 85 d8 f8 ff ff 	mov    %rax,-0x728(%rbp)
   100d0:	0f b7 85 02 f9 ff ff 	movzwl -0x6fe(%rbp),%eax
   100d7:	66 25 00 c0          	and    $0xc000,%ax
   100db:	66 0d ba 3f          	or     $0x3fba,%ax
   100df:	66 89 85 02 f9 ff ff 	mov    %ax,-0x6fe(%rbp)
   100e6:	66 c7 85 04 f9 ff ff 	movw   $0xffff,-0x6fc(%rbp)
   100ed:	ff ff 
   100ef:	0f b6 85 06 f9 ff ff 	movzbl -0x6fa(%rbp),%eax
   100f6:	83 e0 f8             	and    $0xfffffff8,%eax
   100f9:	83 c8 01             	or     $0x1,%eax
   100fc:	88 85 06 f9 ff ff    	mov    %al,-0x6fa(%rbp)
   10102:	0f b7 85 06 f9 ff ff 	movzwl -0x6fa(%rbp),%eax
   10109:	83 e0 07             	and    $0x7,%eax
   1010c:	66 0d 98 51          	or     $0x5198,%ax
   10110:	66 89 85 06 f9 ff ff 	mov    %ax,-0x6fa(%rbp)
   10117:	0f b7 85 08 f9 ff ff 	movzwl -0x6f8(%rbp),%eax
   1011e:	66 25 00 f0          	and    $0xf000,%ax
   10122:	66 89 85 08 f9 ff ff 	mov    %ax,-0x6f8(%rbp)
   10129:	c7 85 0a f9 ff ff ce 	movl   $0x7ec90ce,-0x6f6(%rbp)
   10130:	90 ec 07 
   10133:	0f b7 85 0e f9 ff ff 	movzwl -0x6f2(%rbp),%eax
   1013a:	66 25 00 f8          	and    $0xf800,%ax
   1013e:	83 c8 1b             	or     $0x1b,%eax
   10141:	66 89 85 0e f9 ff ff 	mov    %ax,-0x6f2(%rbp)
   10148:	0f b6 85 0f f9 ff ff 	movzbl -0x6f1(%rbp),%eax
   1014f:	83 e0 87             	and    $0xffffff87,%eax
   10152:	83 c8 10             	or     $0x10,%eax
   10155:	88 85 0f f9 ff ff    	mov    %al,-0x6f1(%rbp)
   1015b:	48 8d 05 9e 06 01 00 	lea    0x1069e(%rip),%rax        # 20800 <g_1159>
   10162:	48 89 85 e0 f8 ff ff 	mov    %rax,-0x720(%rbp)
   10169:	48 8b 05 98 06 01 00 	mov    0x10698(%rip),%rax        # 20808 <g_1158>
   10170:	48 8b 00             	mov    (%rax),%rax
   10173:	c7 00 fb ff ff ff    	movl   $0xfffffffb,(%rax)
   10179:	c6 85 12 f9 ff ff fb 	movb   $0xfb,-0x6ee(%rbp)
   10180:	48 8b 15 81 06 01 00 	mov    0x10681(%rip),%rdx        # 20808 <g_1158>
   10187:	48 8b 05 7a 06 01 00 	mov    0x1067a(%rip),%rax        # 20808 <g_1158>
   1018e:	48 8b 12             	mov    (%rdx),%rdx
   10191:	48 89 10             	mov    %rdx,(%rax)
   10194:	48 8b 00             	mov    (%rax),%rax
   10197:	48 89 85 20 fc ff ff 	mov    %rax,-0x3e0(%rbp)
   1019e:	0f b7 05 7b cf 00 00 	movzwl 0xcf7b(%rip),%eax        # 1d120 <g_800>
   101a5:	48 0f bf d8          	movswq %ax,%rbx
   101a9:	48 8d 05 e0 05 01 00 	lea    0x105e0(%rip),%rax        # 20790 <g_926>
   101b0:	48 8b 00             	mov    (%rax),%rax
   101b3:	48 85 c0             	test   %rax,%rax
   101b6:	75 10                	jne    101c8 <func_17+0x221>
   101b8:	83 bd 9c f8 ff ff 00 	cmpl   $0x0,-0x764(%rbp)
   101bf:	74 07                	je     101c8 <func_17+0x221>
   101c1:	b8 01 00 00 00       	mov    $0x1,%eax
   101c6:	eb 05                	jmp    101cd <func_17+0x226>
   101c8:	b8 00 00 00 00       	mov    $0x0,%eax
   101cd:	41 89 c7             	mov    %eax,%r15d
   101d0:	8b 85 48 fa ff ff    	mov    -0x5b8(%rbp),%eax
   101d6:	89 c2                	mov    %eax,%edx
   101d8:	48 8b 85 c8 f8 ff ff 	mov    -0x738(%rbp),%rax
   101df:	66 89 10             	mov    %dx,(%rax)
   101e2:	48 8b 85 c8 f8 ff ff 	mov    -0x738(%rbp),%rax
   101e9:	44 0f b7 28          	movzwl (%rax),%r13d
   101ed:	8b 85 9c f8 ff ff    	mov    -0x764(%rbp),%eax
   101f3:	44 0f be e0          	movsbl %al,%r12d
   101f7:	48 8d 05 92 05 01 00 	lea    0x10592(%rip),%rax        # 20790 <g_926>
   101fe:	48 8b 00             	mov    (%rax),%rax
   10201:	44 8b 30             	mov    (%rax),%r14d
   10204:	8b 85 98 f8 ff ff    	mov    -0x768(%rbp),%eax
   1020a:	0f bf d0             	movswl %ax,%edx
   1020d:	8b 85 48 fa ff ff    	mov    -0x5b8(%rbp),%eax
   10213:	98                   	cwtl   
   10214:	89 d6                	mov    %edx,%esi
   10216:	89 c7                	mov    %eax,%edi
   10218:	e8 b6 b1 ff ff       	callq  b3d3 <safe_sub_func_int16_t_s_s>
   1021d:	89 c2                	mov    %eax,%edx
   1021f:	8b 85 48 fa ff ff    	mov    -0x5b8(%rbp),%eax
   10225:	21 d0                	and    %edx,%eax
   10227:	0f b6 c0             	movzbl %al,%eax
   1022a:	be 02 00 00 00       	mov    $0x2,%esi
   1022f:	89 c7                	mov    %eax,%edi
   10231:	e8 57 ba ff ff       	callq  bc8d <safe_rshift_func_uint8_t_u_s>
   10236:	0f b6 c0             	movzbl %al,%eax
   10239:	44 89 f2             	mov    %r14d,%edx
   1023c:	09 c2                	or     %eax,%edx
   1023e:	8b 85 9c f8 ff ff    	mov    -0x764(%rbp),%eax
   10244:	39 c2                	cmp    %eax,%edx
   10246:	0f 94 c0             	sete   %al
   10249:	0f b6 c0             	movzbl %al,%eax
   1024c:	be 03 00 00 00       	mov    $0x3,%esi
   10251:	89 c7                	mov    %eax,%edi
   10253:	e8 f0 bb ff ff       	callq  be48 <safe_rshift_func_uint16_t_u_s>
   10258:	ba fe ff ff ff       	mov    $0xfffffffe,%edx
   1025d:	48 8b 85 d0 f8 ff ff 	mov    -0x730(%rbp),%rax
   10264:	0f b6 00             	movzbl (%rax),%eax
   10267:	21 c2                	and    %eax,%edx
   10269:	48 8b 85 d0 f8 ff ff 	mov    -0x730(%rbp),%rax
   10270:	88 10                	mov    %dl,(%rax)
   10272:	48 8b 85 d0 f8 ff ff 	mov    -0x730(%rbp),%rax
   10279:	0f b6 00             	movzbl (%rax),%eax
   1027c:	0f be c0             	movsbl %al,%eax
   1027f:	44 89 e6             	mov    %r12d,%esi
   10282:	89 c7                	mov    %eax,%edi
   10284:	e8 89 af ff ff       	callq  b212 <safe_mul_func_int8_t_s_s>
   10289:	66 98                	cbtw   
   1028b:	66 41 39 c5          	cmp    %ax,%r13w
   1028f:	0f 9f c0             	setg   %al
   10292:	0f b6 c0             	movzbl %al,%eax
   10295:	33 85 98 f8 ff ff    	xor    -0x768(%rbp),%eax
   1029b:	41 39 c7             	cmp    %eax,%r15d
   1029e:	0f 93 c0             	setae  %al
   102a1:	0f b6 d0             	movzbl %al,%edx
   102a4:	8b 85 64 f9 ff ff    	mov    -0x69c(%rbp),%eax
   102aa:	39 c2                	cmp    %eax,%edx
   102ac:	0f 95 c0             	setne  %al
   102af:	0f b6 d0             	movzbl %al,%edx
   102b2:	48 8b 85 d8 f8 ff ff 	mov    -0x728(%rbp),%rax
   102b9:	48 89 10             	mov    %rdx,(%rax)
   102bc:	48 8b 85 d8 f8 ff ff 	mov    -0x728(%rbp),%rax
   102c3:	48 8b 00             	mov    (%rax),%rax
   102c6:	48 89 de             	mov    %rbx,%rsi
   102c9:	48 89 c7             	mov    %rax,%rdi
   102cc:	e8 e3 b6 ff ff       	callq  b9b4 <safe_mod_func_int64_t_s_s>
   102d1:	48 85 c0             	test   %rax,%rax
   102d4:	74 79                	je     1034f <func_17+0x3a8>
   102d6:	c7 85 a4 f8 ff ff 00 	movl   $0x0,-0x75c(%rbp)
   102dd:	00 00 00 
   102e0:	eb 1b                	jmp    102fd <func_17+0x356>
   102e2:	8b 85 a4 f8 ff ff    	mov    -0x75c(%rbp),%eax
   102e8:	48 98                	cltq   
   102ea:	48 c7 84 c5 30 f9 ff 	movq   $0x2,-0x6d0(%rbp,%rax,8)
   102f1:	ff 02 00 00 00 
   102f6:	83 85 a4 f8 ff ff 01 	addl   $0x1,-0x75c(%rbp)
   102fd:	83 bd a4 f8 ff ff 02 	cmpl   $0x2,-0x75c(%rbp)
   10304:	7e dc                	jle    102e2 <func_17+0x33b>
   10306:	48 8b 05 fb 04 01 00 	mov    0x104fb(%rip),%rax        # 20808 <g_1158>
   1030d:	48 8b 10             	mov    (%rax),%rdx
   10310:	48 8b 05 e1 04 01 00 	mov    0x104e1(%rip),%rax        # 207f8 <g_1155>
   10317:	8b 12                	mov    (%rdx),%edx
   10319:	89 10                	mov    %edx,(%rax)
   1031b:	48 8b 85 30 f9 ff ff 	mov    -0x6d0(%rbp),%rax
   10322:	48 83 c0 01          	add    $0x1,%rax
   10326:	48 89 85 30 f9 ff ff 	mov    %rax,-0x6d0(%rbp)
   1032d:	48 8b 05 fc 04 01 00 	mov    0x104fc(%rip),%rax        # 20830 <g_1350>
   10334:	48 89 05 f5 04 01 00 	mov    %rax,0x104f5(%rip)        # 20830 <g_1350>
   1033b:	8b 05 8f cd 00 00    	mov    0xcd8f(%rip),%eax        # 1d0d0 <g_204+0x8>
   10341:	83 c0 01             	add    $0x1,%eax
   10344:	89 05 86 cd 00 00    	mov    %eax,0xcd86(%rip)        # 1d0d0 <g_204+0x8>
   1034a:	e9 81 02 00 00       	jmpq   105d0 <func_17+0x629>
   1034f:	48 b8 73 f5 cd 7e 73 	movabs $0x9a9265737ecdf573,%rax
   10356:	65 92 9a 
   10359:	48 89 85 e8 f8 ff ff 	mov    %rax,-0x718(%rbp)
   10360:	48 c7 85 b0 f8 ff ff 	movq   $0x0,-0x750(%rbp)
   10367:	00 00 00 00 
   1036b:	c7 85 b0 f8 ff ff ae 	movl   $0xaf21ebae,-0x750(%rbp)
   10372:	eb 21 af 
   10375:	c6 85 a3 f8 ff ff e7 	movb   $0xe7,-0x75d(%rbp)
   1037c:	8b 05 72 cd 00 00    	mov    0xcd72(%rip),%eax        # 1d0f4 <g_558>
   10382:	85 c0                	test   %eax,%eax
   10384:	75 20                	jne    103a6 <func_17+0x3ff>
   10386:	48 8b 85 c8 f8 ff ff 	mov    -0x738(%rbp),%rax
   1038d:	66 c7 00 01 00       	movw   $0x1,(%rax)
   10392:	be 01 00 00 00       	mov    $0x1,%esi
   10397:	bf 00 00 00 00       	mov    $0x0,%edi
   1039c:	e8 5e b9 ff ff       	callq  bcff <safe_add_func_uint16_t_u_u>
   103a1:	66 85 c0             	test   %ax,%ax
   103a4:	75 11                	jne    103b7 <func_17+0x410>
   103a6:	8b 95 48 fa ff ff    	mov    -0x5b8(%rbp),%edx
   103ac:	48 8b 05 4d 04 01 00 	mov    0x1044d(%rip),%rax        # 20800 <g_1159>
   103b3:	89 10                	mov    %edx,(%rax)
   103b5:	eb 19                	jmp    103d0 <func_17+0x429>
   103b7:	48 8b 05 ea ff 00 00 	mov    0xffea(%rip),%rax        # 203a8 <g_33>
   103be:	48 8b 00             	mov    (%rax),%rax
   103c1:	8b 08                	mov    (%rax),%ecx
   103c3:	48 8b 95 90 f8 ff ff 	mov    -0x770(%rbp),%rdx
   103ca:	8b 12                	mov    (%rdx),%edx
   103cc:	21 ca                	and    %ecx,%edx
   103ce:	89 10                	mov    %edx,(%rax)
   103d0:	66 c7 05 c7 cd 00 00 	movw   $0x0,0xcdc7(%rip)        # 1d1a0 <g_1320>
   103d7:	00 00 
   103d9:	e9 d5 01 00 00       	jmpq   105b3 <func_17+0x60c>
   103de:	48 c7 85 f0 f8 ff ff 	movq   $0x0,-0x710(%rbp)
   103e5:	00 00 00 00 
   103e9:	c7 85 ac f8 ff ff 06 	movl   $0x3b68a606,-0x754(%rbp)
   103f0:	a6 68 3b 
   103f3:	0f b6 05 9e cc 00 00 	movzbl 0xcc9e(%rip),%eax        # 1d098 <g_114>
   103fa:	0f be d8             	movsbl %al,%ebx
   103fd:	48 8b 05 a4 02 01 00 	mov    0x102a4(%rip),%rax        # 206a8 <g_273>
   10404:	0f b6 00             	movzbl (%rax),%eax
   10407:	44 0f be e0          	movsbl %al,%r12d
   1040b:	8b 85 48 fa ff ff    	mov    -0x5b8(%rbp),%eax
   10411:	44 0f b6 e8          	movzbl %al,%r13d
   10415:	44 8b b5 98 f8 ff ff 	mov    -0x768(%rbp),%r14d
   1041c:	48 8b 05 75 02 01 00 	mov    0x10275(%rip),%rax        # 20698 <g_224>
   10423:	48 8b 00             	mov    (%rax),%rax
   10426:	48 8b 00             	mov    (%rax),%rax
   10429:	48 89 c7             	mov    %rax,%rdi
   1042c:	e8 e8 bb ff ff       	callq  c019 <safe_unary_minus_func_uint64_t_u>
   10431:	4c 21 f0             	and    %r14,%rax
   10434:	48 85 c0             	test   %rax,%rax
   10437:	0f 95 c0             	setne  %al
   1043a:	0f b6 d0             	movzbl %al,%edx
   1043d:	8b 85 48 fa ff ff    	mov    -0x5b8(%rbp),%eax
   10443:	39 c2                	cmp    %eax,%edx
   10445:	0f 95 c0             	setne  %al
   10448:	0f b6 c0             	movzbl %al,%eax
   1044b:	44 89 ee             	mov    %r13d,%esi
   1044e:	89 c7                	mov    %eax,%edi
   10450:	e8 3e b7 ff ff       	callq  bb93 <safe_mul_func_uint8_t_u_u>
   10455:	0f b6 c0             	movzbl %al,%eax
   10458:	48 39 85 f0 f8 ff ff 	cmp    %rax,-0x710(%rbp)
   1045f:	0f 94 c0             	sete   %al
   10462:	89 c2                	mov    %eax,%edx
   10464:	48 8b 85 f0 f8 ff ff 	mov    -0x710(%rbp),%rax
   1046b:	21 d0                	and    %edx,%eax
   1046d:	8b 95 9c f8 ff ff    	mov    -0x764(%rbp),%edx
   10473:	21 d0                	and    %edx,%eax
   10475:	0f be c0             	movsbl %al,%eax
   10478:	44 89 e6             	mov    %r12d,%esi
   1047b:	89 c7                	mov    %eax,%edi
   1047d:	e8 e8 ad ff ff       	callq  b26a <safe_div_func_int8_t_s_s>
   10482:	8b 05 9c cb 00 00    	mov    0xcb9c(%rip),%eax        # 1d024 <g_9>
   10488:	85 c0                	test   %eax,%eax
   1048a:	74 07                	je     10493 <func_17+0x4ec>
   1048c:	b8 01 00 00 00       	mov    $0x1,%eax
   10491:	eb 05                	jmp    10498 <func_17+0x4f1>
   10493:	b8 00 00 00 00       	mov    $0x0,%eax
   10498:	98                   	cwtl   
   10499:	89 de                	mov    %ebx,%esi
   1049b:	89 c7                	mov    %eax,%edi
   1049d:	e8 11 af ff ff       	callq  b3b3 <safe_add_func_int16_t_s_s>
   104a2:	98                   	cwtl   
   104a3:	09 85 ac f8 ff ff    	or     %eax,-0x754(%rbp)
   104a9:	c7 05 d1 cc 00 00 ef 	movl   $0xffffffef,0xccd1(%rip)        # 1d184 <g_1185>
   104b0:	ff ff ff 
   104b3:	90                   	nop
   104b4:	8b 05 ca cc 00 00    	mov    0xccca(%rip),%eax        # 1d184 <g_1185>
   104ba:	83 f8 17             	cmp    $0x17,%eax
   104bd:	7e 0f                	jle    104ce <func_17+0x527>
   104bf:	48 8b 05 42 03 01 00 	mov    0x10342(%rip),%rax        # 20808 <g_1158>
   104c6:	48 8b 00             	mov    (%rax),%rax
   104c9:	e9 23 01 00 00       	jmpq   105f1 <func_17+0x64a>
   104ce:	8b 85 9c f8 ff ff    	mov    -0x764(%rbp),%eax
   104d4:	48 63 d8             	movslq %eax,%rbx
   104d7:	44 0f b6 a5 a3 f8 ff 	movzbl -0x75d(%rbp),%r12d
   104de:	ff 
   104df:	48 8b 05 42 03 01 00 	mov    0x10342(%rip),%rax        # 20828 <g_1293>
   104e6:	0f b6 05 df cb 00 00 	movzbl 0xcbdf(%rip),%eax        # 1d0cc <g_204+0x4>
   104ed:	c1 e0 05             	shl    $0x5,%eax
   104f0:	c0 f8 05             	sar    $0x5,%al
   104f3:	0f be c0             	movsbl %al,%eax
   104f6:	89 c6                	mov    %eax,%esi
   104f8:	bf 00 00 00 00       	mov    $0x0,%edi
   104fd:	e8 28 b0 ff ff       	callq  b52a <safe_rshift_func_int16_t_s_s>
   10502:	0f be c0             	movsbl %al,%eax
   10505:	44 89 e6             	mov    %r12d,%esi
   10508:	89 c7                	mov    %eax,%edi
   1050a:	e8 92 ad ff ff       	callq  b2a1 <safe_lshift_func_int8_t_s_s>
   1050f:	48 0f be c0          	movsbq %al,%rax
   10513:	48 89 de             	mov    %rbx,%rsi
   10516:	48 89 c7             	mov    %rax,%rdi
   10519:	e8 96 b4 ff ff       	callq  b9b4 <safe_mod_func_int64_t_s_s>
   1051e:	48 8b 15 e3 02 01 00 	mov    0x102e3(%rip),%rdx        # 20808 <g_1158>
   10525:	48 8b 12             	mov    (%rdx),%rdx
   10528:	8b 12                	mov    (%rdx),%edx
   1052a:	89 c1                	mov    %eax,%ecx
   1052c:	48 8b 05 d5 02 01 00 	mov    0x102d5(%rip),%rax        # 20808 <g_1158>
   10533:	48 8b 00             	mov    (%rax),%rax
   10536:	31 ca                	xor    %ecx,%edx
   10538:	89 10                	mov    %edx,(%rax)
   1053a:	8b 10                	mov    (%rax),%edx
   1053c:	8b 05 66 cb 00 00    	mov    0xcb66(%rip),%eax        # 1d0a8 <g_157>
   10542:	09 d0                	or     %edx,%eax
   10544:	89 05 5e cb 00 00    	mov    %eax,0xcb5e(%rip)        # 1d0a8 <g_157>
   1054a:	c7 85 98 f8 ff ff 01 	movl   $0x1,-0x768(%rbp)
   10551:	00 00 00 
   10554:	eb 43                	jmp    10599 <func_17+0x5f2>
   10556:	48 8b 85 e0 f8 ff ff 	mov    -0x720(%rbp),%rax
   1055d:	48 8b 00             	mov    (%rax),%rax
   10560:	c7 00 ff ff ff ff    	movl   $0xffffffff,(%rax)
   10566:	c7 85 0a f9 ff ff 00 	movl   $0x0,-0x6f6(%rbp)
   1056d:	00 00 00 
   10570:	90                   	nop
   10571:	8b 85 0a f9 ff ff    	mov    -0x6f6(%rbp),%eax
   10577:	85 c0                	test   %eax,%eax
   10579:	78 17                	js     10592 <func_17+0x5eb>
   1057b:	48 8d 05 26 cb 00 00 	lea    0xcb26(%rip),%rax        # 1d0a8 <g_157>
   10582:	48 89 85 f8 f8 ff ff 	mov    %rax,-0x708(%rbp)
   10589:	48 8b 85 f8 f8 ff ff 	mov    -0x708(%rbp),%rax
   10590:	eb 5f                	jmp    105f1 <func_17+0x64a>
   10592:	83 85 98 f8 ff ff 01 	addl   $0x1,-0x768(%rbp)
   10599:	83 bd 98 f8 ff ff 04 	cmpl   $0x4,-0x768(%rbp)
   105a0:	76 b4                	jbe    10556 <func_17+0x5af>
   105a2:	0f b7 05 f7 cb 00 00 	movzwl 0xcbf7(%rip),%eax        # 1d1a0 <g_1320>
   105a9:	83 c0 01             	add    $0x1,%eax
   105ac:	66 89 05 ed cb 00 00 	mov    %ax,0xcbed(%rip)        # 1d1a0 <g_1320>
   105b3:	0f b7 05 e6 cb 00 00 	movzwl 0xcbe6(%rip),%eax        # 1d1a0 <g_1320>
   105ba:	66 83 f8 14          	cmp    $0x14,%ax
   105be:	0f 8e 1a fe ff ff    	jle    103de <func_17+0x437>
   105c4:	48 8b 05 3d 02 01 00 	mov    0x1023d(%rip),%rax        # 20808 <g_1158>
   105cb:	48 8b 00             	mov    (%rax),%rax
   105ce:	eb 21                	jmp    105f1 <func_17+0x64a>
   105d0:	8b 05 fa ca 00 00    	mov    0xcafa(%rip),%eax        # 1d0d0 <g_204+0x8>
   105d6:	83 f8 13             	cmp    $0x13,%eax
   105d9:	0f 8e 8e fa ff ff    	jle    1006d <func_17+0xc6>
   105df:	48 c7 85 20 fc ff ff 	movq   $0x0,-0x3e0(%rbp)
   105e6:	00 00 00 00 
   105ea:	48 8b 85 20 fc ff ff 	mov    -0x3e0(%rbp),%rax
   105f1:	48 8b 5d c8          	mov    -0x38(%rbp),%rbx
   105f5:	64 48 33 1c 25 28 00 	xor    %fs:0x28,%rbx
   105fc:	00 00 
   105fe:	74 05                	je     10605 <func_17+0x65e>
   10600:	e8 6b aa ff ff       	callq  b070 <__stack_chk_fail@plt>
   10605:	48 81 c4 58 07 00 00 	add    $0x758,%rsp
   1060c:	5b                   	pop    %rbx
   1060d:	41 5c                	pop    %r12
   1060f:	41 5d                	pop    %r13
   10611:	41 5e                	pop    %r14
   10613:	41 5f                	pop    %r15
   10615:	5d                   	pop    %rbp
   10616:	c3                   	retq   

0000000000010617 <func_22>:
   10617:	f3 0f 1e fa          	endbr64 
   1061b:	55                   	push   %rbp
   1061c:	48 89 e5             	mov    %rsp,%rbp
   1061f:	41 56                	push   %r14
   10621:	41 55                	push   %r13
   10623:	41 54                	push   %r12
   10625:	53                   	push   %rbx
   10626:	48 81 ec 50 07 00 00 	sub    $0x750,%rsp
   1062d:	48 89 f0             	mov    %rsi,%rax
   10630:	89 95 bc f8 ff ff    	mov    %edx,-0x744(%rbp)
   10636:	48 89 8d b0 f8 ff ff 	mov    %rcx,-0x750(%rbp)
   1063d:	44 89 85 b8 f8 ff ff 	mov    %r8d,-0x748(%rbp)
   10644:	4c 89 8d a8 f8 ff ff 	mov    %r9,-0x758(%rbp)
   1064b:	48 89 bd c0 f8 ff ff 	mov    %rdi,-0x740(%rbp)
   10652:	89 c1                	mov    %eax,%ecx
   10654:	8b 95 c8 f8 ff ff    	mov    -0x738(%rbp),%edx
   1065a:	83 e2 00             	and    $0x0,%edx
   1065d:	09 ca                	or     %ecx,%edx
   1065f:	89 95 c8 f8 ff ff    	mov    %edx,-0x738(%rbp)
   10665:	48 c1 e8 20          	shr    $0x20,%rax
   10669:	0f b7 c0             	movzwl %ax,%eax
   1066c:	0f b7 95 cc f8 ff ff 	movzwl -0x734(%rbp),%edx
   10673:	83 e2 00             	and    $0x0,%edx
   10676:	09 d0                	or     %edx,%eax
   10678:	66 89 85 cc f8 ff ff 	mov    %ax,-0x734(%rbp)
   1067f:	64 48 8b 04 25 28 00 	mov    %fs:0x28,%rax
   10686:	00 00 
   10688:	48 89 45 d8          	mov    %rax,-0x28(%rbp)
   1068c:	31 c0                	xor    %eax,%eax
   1068e:	48 c7 85 48 f9 ff ff 	movq   $0x0,-0x6b8(%rbp)
   10695:	00 00 00 00 
   10699:	48 8d 85 08 fa ff ff 	lea    -0x5f8(%rbp),%rax
   106a0:	48 89 85 50 f9 ff ff 	mov    %rax,-0x6b0(%rbp)
   106a7:	48 c7 85 18 f9 ff ff 	movq   $0x0,-0x6e8(%rbp)
   106ae:	00 00 00 00 
   106b2:	48 8d 85 18 f9 ff ff 	lea    -0x6e8(%rbp),%rax
   106b9:	48 89 85 58 f9 ff ff 	mov    %rax,-0x6a8(%rbp)
   106c0:	c7 85 60 fa ff ff fc 	movl   $0xfffffffc,-0x5a0(%rbp)
   106c7:	ff ff ff 
   106ca:	c7 85 64 fa ff ff fc 	movl   $0xfffffffc,-0x59c(%rbp)
   106d1:	ff ff ff 
   106d4:	c7 85 68 fa ff ff db 	movl   $0x316829db,-0x598(%rbp)
   106db:	29 68 31 
   106de:	c7 85 6c fa ff ff db 	movl   $0x316829db,-0x594(%rbp)
   106e5:	29 68 31 
   106e8:	c7 85 70 fa ff ff fc 	movl   $0xfffffffc,-0x590(%rbp)
   106ef:	ff ff ff 
   106f2:	c7 85 74 fa ff ff fc 	movl   $0xfffffffc,-0x58c(%rbp)
   106f9:	ff ff ff 
   106fc:	c7 85 78 fa ff ff db 	movl   $0x316829db,-0x588(%rbp)
   10703:	29 68 31 
   10706:	c7 85 7c fa ff ff 54 	movl   $0x1ae4f454,-0x584(%rbp)
   1070d:	f4 e4 1a 
   10710:	c7 85 80 fa ff ff 00 	movl   $0x0,-0x580(%rbp)
   10717:	00 00 00 
   1071a:	c7 85 84 fa ff ff 54 	movl   $0x1ae4f454,-0x57c(%rbp)
   10721:	f4 e4 1a 
   10724:	c7 85 88 fa ff ff 00 	movl   $0x0,-0x578(%rbp)
   1072b:	00 00 00 
   1072e:	c7 85 8c fa ff ff 54 	movl   $0x1ae4f454,-0x574(%rbp)
   10735:	f4 e4 1a 
   10738:	c7 85 90 fa ff ff 00 	movl   $0x0,-0x570(%rbp)
   1073f:	00 00 00 
   10742:	c7 85 94 fa ff ff 54 	movl   $0x1ae4f454,-0x56c(%rbp)
   10749:	f4 e4 1a 
   1074c:	c7 85 98 fa ff ff fc 	movl   $0xfffffffc,-0x568(%rbp)
   10753:	ff ff ff 
   10756:	c7 85 9c fa ff ff db 	movl   $0x316829db,-0x564(%rbp)
   1075d:	29 68 31 
   10760:	c7 85 a0 fa ff ff db 	movl   $0x316829db,-0x560(%rbp)
   10767:	29 68 31 
   1076a:	c7 85 a4 fa ff ff fc 	movl   $0xfffffffc,-0x55c(%rbp)
   10771:	ff ff ff 
   10774:	c7 85 a8 fa ff ff fc 	movl   $0xfffffffc,-0x558(%rbp)
   1077b:	ff ff ff 
   1077e:	c7 85 ac fa ff ff db 	movl   $0x316829db,-0x554(%rbp)
   10785:	29 68 31 
   10788:	c7 85 b0 fa ff ff db 	movl   $0x316829db,-0x550(%rbp)
   1078f:	29 68 31 
   10792:	c7 85 b4 fa ff ff 18 	movl   $0xa670218,-0x54c(%rbp)
   10799:	02 67 0a 
   1079c:	c7 85 b8 fa ff ff 00 	movl   $0x0,-0x548(%rbp)
   107a3:	00 00 00 
   107a6:	c7 85 bc fa ff ff 18 	movl   $0xa670218,-0x544(%rbp)
   107ad:	02 67 0a 
   107b0:	c7 85 c0 fa ff ff 00 	movl   $0x0,-0x540(%rbp)
   107b7:	00 00 00 
   107ba:	c7 85 c4 fa ff ff 18 	movl   $0xa670218,-0x53c(%rbp)
   107c1:	02 67 0a 
   107c4:	c7 85 c8 fa ff ff 00 	movl   $0x0,-0x538(%rbp)
   107cb:	00 00 00 
   107ce:	c7 85 cc fa ff ff 18 	movl   $0xa670218,-0x534(%rbp)
   107d5:	02 67 0a 
   107d8:	c7 85 d0 fa ff ff fc 	movl   $0xfffffffc,-0x530(%rbp)
   107df:	ff ff ff 
   107e2:	c7 85 d4 fa ff ff fc 	movl   $0xfffffffc,-0x52c(%rbp)
   107e9:	ff ff ff 
   107ec:	c7 85 d8 fa ff ff db 	movl   $0x316829db,-0x528(%rbp)
   107f3:	29 68 31 
   107f6:	c7 85 dc fa ff ff db 	movl   $0x316829db,-0x524(%rbp)
   107fd:	29 68 31 
   10800:	c7 85 e0 fa ff ff fc 	movl   $0xfffffffc,-0x520(%rbp)
   10807:	ff ff ff 
   1080a:	c7 85 e4 fa ff ff fc 	movl   $0xfffffffc,-0x51c(%rbp)
   10811:	ff ff ff 
   10814:	c7 85 e8 fa ff ff db 	movl   $0x316829db,-0x518(%rbp)
   1081b:	29 68 31 
   1081e:	c7 85 ec fa ff ff 54 	movl   $0x1ae4f454,-0x514(%rbp)
   10825:	f4 e4 1a 
   10828:	c7 85 f0 fa ff ff 00 	movl   $0x0,-0x510(%rbp)
   1082f:	00 00 00 
   10832:	c7 85 f4 fa ff ff 54 	movl   $0x1ae4f454,-0x50c(%rbp)
   10839:	f4 e4 1a 
   1083c:	c7 85 f8 fa ff ff 00 	movl   $0x0,-0x508(%rbp)
   10843:	00 00 00 
   10846:	c7 85 fc fa ff ff 54 	movl   $0x1ae4f454,-0x504(%rbp)
   1084d:	f4 e4 1a 
   10850:	c7 85 00 fb ff ff 00 	movl   $0x0,-0x500(%rbp)
   10857:	00 00 00 
   1085a:	c7 85 04 fb ff ff 54 	movl   $0x1ae4f454,-0x4fc(%rbp)
   10861:	f4 e4 1a 
   10864:	c7 85 e4 f8 ff ff 3c 	movl   $0xe8a013c,-0x71c(%rbp)
   1086b:	01 8a 0e 
   1086e:	48 8d 85 10 fb ff ff 	lea    -0x4f0(%rbp),%rax
   10875:	48 8d 15 04 d8 00 00 	lea    0xd804(%rip),%rdx        # 1e080 <g_1942+0xe70>
   1087c:	b9 38 00 00 00       	mov    $0x38,%ecx
   10881:	48 89 c7             	mov    %rax,%rdi
   10884:	48 89 d6             	mov    %rdx,%rsi
   10887:	f3 48 a5             	rep movsq %ds:(%rsi),%es:(%rdi)
   1088a:	48 8d 05 7f ff 00 00 	lea    0xff7f(%rip),%rax        # 20810 <g_1195>
   10891:	48 89 85 60 f9 ff ff 	mov    %rax,-0x6a0(%rbp)
   10898:	48 8d 05 71 fe 00 00 	lea    0xfe71(%rip),%rax        # 20710 <g_575>
   1089f:	48 89 85 68 f9 ff ff 	mov    %rax,-0x698(%rbp)
   108a6:	c7 85 f0 f8 ff ff 00 	movl   $0x0,-0x710(%rbp)
   108ad:	00 00 00 
   108b0:	c7 85 f4 f8 ff ff 01 	movl   $0x1,-0x70c(%rbp)
   108b7:	00 00 00 
   108ba:	c7 85 e8 f8 ff ff 00 	movl   $0x0,-0x718(%rbp)
   108c1:	00 00 00 
   108c4:	eb 1b                	jmp    108e1 <func_22+0x2ca>
   108c6:	8b 85 e8 f8 ff ff    	mov    -0x718(%rbp),%eax
   108cc:	48 98                	cltq   
   108ce:	48 c7 84 c5 08 fa ff 	movq   $0x0,-0x5f8(%rbp,%rax,8)
   108d5:	ff 00 00 00 00 
   108da:	83 85 e8 f8 ff ff 01 	addl   $0x1,-0x718(%rbp)
   108e1:	83 bd e8 f8 ff ff 00 	cmpl   $0x0,-0x718(%rbp)
   108e8:	7e dc                	jle    108c6 <func_22+0x2af>
   108ea:	90                   	nop
   108eb:	48 8b 95 08 fa ff ff 	mov    -0x5f8(%rbp),%rdx
   108f2:	48 8b 85 50 f9 ff ff 	mov    -0x6b0(%rbp),%rax
   108f9:	48 89 10             	mov    %rdx,(%rax)
   108fc:	48 8b 85 50 f9 ff ff 	mov    -0x6b0(%rbp),%rax
   10903:	48 8b 10             	mov    (%rax),%rdx
   10906:	48 8b 85 58 f9 ff ff 	mov    -0x6a8(%rbp),%rax
   1090d:	48 8d 0d 04 c8 00 00 	lea    0xc804(%rip),%rcx        # 1d118 <g_764>
   10914:	48 89 08             	mov    %rcx,(%rax)
   10917:	48 8b 85 58 f9 ff ff 	mov    -0x6a8(%rbp),%rax
   1091e:	48 8b 00             	mov    (%rax),%rax
   10921:	48 39 c2             	cmp    %rax,%rdx
   10924:	0f 85 8e 02 00 00    	jne    10bb8 <func_22+0x5a1>
   1092a:	48 8d 05 77 c7 00 00 	lea    0xc777(%rip),%rax        # 1d0a8 <g_157>
   10931:	48 89 85 78 f9 ff ff 	mov    %rax,-0x688(%rbp)
   10938:	48 c7 85 80 f9 ff ff 	movq   $0x0,-0x680(%rbp)
   1093f:	00 00 00 00 
   10943:	48 8d 05 5e c7 00 00 	lea    0xc75e(%rip),%rax        # 1d0a8 <g_157>
   1094a:	48 89 85 88 f9 ff ff 	mov    %rax,-0x678(%rbp)
   10951:	48 8d 85 d0 fc ff ff 	lea    -0x330(%rbp),%rax
   10958:	48 8d 15 e1 d8 00 00 	lea    0xd8e1(%rip),%rdx        # 1e240 <g_1942+0x1030>
   1095f:	b9 24 00 00 00       	mov    $0x24,%ecx
   10964:	48 89 c7             	mov    %rax,%rdi
   10967:	48 89 d6             	mov    %rdx,%rsi
   1096a:	f3 48 a5             	rep movsq %ds:(%rsi),%es:(%rdi)
   1096d:	66 c7 85 e2 f8 ff ff 	movw   $0x0,-0x71e(%rbp)
   10974:	00 00 
   10976:	48 8d 05 d3 fd 00 00 	lea    0xfdd3(%rip),%rax        # 20750 <g_627>
   1097d:	48 89 85 90 f9 ff ff 	mov    %rax,-0x670(%rbp)
   10984:	c7 85 f8 f8 ff ff 89 	movl   $0xc8b94d89,-0x708(%rbp)
   1098b:	4d b9 c8 
   1098e:	48 8d 05 9b c6 00 00 	lea    0xc69b(%rip),%rax        # 1d030 <g_36>
   10995:	48 89 85 98 f9 ff ff 	mov    %rax,-0x668(%rbp)
   1099c:	48 8d 05 ad c6 00 00 	lea    0xc6ad(%rip),%rax        # 1d050 <g_92>
   109a3:	48 89 85 a0 f9 ff ff 	mov    %rax,-0x660(%rbp)
   109aa:	48 8d 05 e7 c6 00 00 	lea    0xc6e7(%rip),%rax        # 1d098 <g_114>
   109b1:	48 89 85 10 fa ff ff 	mov    %rax,-0x5f0(%rbp)
   109b8:	48 c7 85 18 fa ff ff 	movq   $0x0,-0x5e8(%rbp)
   109bf:	00 00 00 00 
   109c3:	48 c7 85 20 fa ff ff 	movq   $0x0,-0x5e0(%rbp)
   109ca:	00 00 00 00 
   109ce:	48 c7 85 28 fa ff ff 	movq   $0x0,-0x5d8(%rbp)
   109d5:	00 00 00 00 
   109d9:	48 c7 85 30 fa ff ff 	movq   $0x0,-0x5d0(%rbp)
   109e0:	00 00 00 00 
   109e4:	48 8d 05 ad c6 00 00 	lea    0xc6ad(%rip),%rax        # 1d098 <g_114>
   109eb:	48 89 85 38 fa ff ff 	mov    %rax,-0x5c8(%rbp)
   109f2:	48 c7 85 40 fa ff ff 	movq   $0x0,-0x5c0(%rbp)
   109f9:	00 00 00 00 
   109fd:	48 c7 85 48 fa ff ff 	movq   $0x0,-0x5b8(%rbp)
   10a04:	00 00 00 00 
   10a08:	48 c7 85 50 fa ff ff 	movq   $0x0,-0x5b0(%rbp)
   10a0f:	00 00 00 00 
   10a13:	48 c7 85 58 fa ff ff 	movq   $0x0,-0x5a8(%rbp)
   10a1a:	00 00 00 00 
   10a1e:	83 ad e4 f8 ff ff 01 	subl   $0x1,-0x71c(%rbp)
   10a25:	0f b7 85 c2 f8 ff ff 	movzwl -0x73e(%rbp),%eax
   10a2c:	44 0f b7 f0          	movzwl %ax,%r14d
   10a30:	48 8b 05 71 fc 00 00 	mov    0xfc71(%rip),%rax        # 206a8 <g_273>
   10a37:	0f b6 00             	movzbl (%rax),%eax
   10a3a:	44 0f b6 e8          	movzbl %al,%r13d
   10a3e:	8b 85 fc fa ff ff    	mov    -0x504(%rbp),%eax
   10a44:	44 0f be e0          	movsbl %al,%r12d
   10a48:	0f b7 85 c0 f8 ff ff 	movzwl -0x740(%rbp),%eax
   10a4f:	c1 e0 02             	shl    $0x2,%eax
   10a52:	66 c1 f8 02          	sar    $0x2,%ax
   10a56:	0f bf d8             	movswl %ax,%ebx
   10a59:	48 8b 85 90 f9 ff ff 	mov    -0x670(%rbp),%rax
   10a60:	48 8d 15 e1 fc 00 00 	lea    0xfce1(%rip),%rdx        # 20748 <g_628>
   10a67:	48 89 10             	mov    %rdx,(%rax)
   10a6a:	0f b6 05 b7 c5 00 00 	movzbl 0xc5b7(%rip),%eax        # 1d028 <g_32>
   10a71:	84 c0                	test   %al,%al
   10a73:	75 1b                	jne    10a90 <func_22+0x479>
   10a75:	48 8b 85 88 fc ff ff 	mov    -0x378(%rbp),%rax
   10a7c:	48 85 c0             	test   %rax,%rax
   10a7f:	0f 94 c0             	sete   %al
   10a82:	0f b6 c0             	movzbl %al,%eax
   10a85:	89 c7                	mov    %eax,%edi
   10a87:	e8 1a b4 ff ff       	callq  bea6 <safe_unary_minus_func_uint32_t_u>
   10a8c:	85 c0                	test   %eax,%eax
   10a8e:	74 07                	je     10a97 <func_22+0x480>
   10a90:	b8 01 00 00 00       	mov    $0x1,%eax
   10a95:	eb 05                	jmp    10a9c <func_22+0x485>
   10a97:	b8 00 00 00 00       	mov    $0x0,%eax
   10a9c:	89 c2                	mov    %eax,%edx
   10a9e:	48 8b 85 98 f9 ff ff 	mov    -0x668(%rbp),%rax
   10aa5:	89 10                	mov    %edx,(%rax)
   10aa7:	48 8b 85 98 f9 ff ff 	mov    -0x668(%rbp),%rax
   10aae:	8b 10                	mov    (%rax),%edx
   10ab0:	48 8b 05 d9 fc 00 00 	mov    0xfcd9(%rip),%rax        # 20790 <g_926>
   10ab7:	8b 00                	mov    (%rax),%eax
   10ab9:	39 c2                	cmp    %eax,%edx
   10abb:	74 07                	je     10ac4 <func_22+0x4ad>
   10abd:	ba 01 00 00 00       	mov    $0x1,%edx
   10ac2:	eb 05                	jmp    10ac9 <func_22+0x4b2>
   10ac4:	ba 00 00 00 00       	mov    $0x0,%edx
   10ac9:	48 8b 85 88 f9 ff ff 	mov    -0x678(%rbp),%rax
   10ad0:	89 10                	mov    %edx,(%rax)
   10ad2:	8b 85 c4 f8 ff ff    	mov    -0x73c(%rbp),%eax
   10ad8:	c1 e8 03             	shr    $0x3,%eax
   10adb:	25 ff ff ff 01       	and    $0x1ffffff,%eax
   10ae0:	83 f8 01             	cmp    $0x1,%eax
   10ae3:	0f 94 c0             	sete   %al
   10ae6:	0f b6 c0             	movzbl %al,%eax
   10ae9:	c1 e0 02             	shl    $0x2,%eax
   10aec:	66 c1 f8 02          	sar    $0x2,%ax
   10af0:	66 25 ff 3f          	and    $0x3fff,%ax
   10af4:	89 c2                	mov    %eax,%edx
   10af6:	0f b7 05 cb c5 00 00 	movzwl 0xc5cb(%rip),%eax        # 1d0c8 <g_204>
   10afd:	66 25 00 c0          	and    $0xc000,%ax
   10b01:	09 d0                	or     %edx,%eax
   10b03:	66 89 05 be c5 00 00 	mov    %ax,0xc5be(%rip)        # 1d0c8 <g_204>
   10b0a:	0f b7 05 b7 c5 00 00 	movzwl 0xc5b7(%rip),%eax        # 1d0c8 <g_204>
   10b11:	c1 e0 02             	shl    $0x2,%eax
   10b14:	66 c1 f8 02          	sar    $0x2,%ax
   10b18:	0f bf d0             	movswl %ax,%edx
   10b1b:	8b 85 fc fa ff ff    	mov    -0x504(%rbp),%eax
   10b21:	39 c2                	cmp    %eax,%edx
   10b23:	0f 9e c0             	setle  %al
   10b26:	89 c2                	mov    %eax,%edx
   10b28:	48 8b 85 a0 f9 ff ff 	mov    -0x660(%rbp),%rax
   10b2f:	88 10                	mov    %dl,(%rax)
   10b31:	48 8b 85 a0 f9 ff ff 	mov    -0x660(%rbp),%rax
   10b38:	0f b6 00             	movzbl (%rax),%eax
   10b3b:	0f b6 d0             	movzbl %al,%edx
   10b3e:	8b 85 f8 f8 ff ff    	mov    -0x708(%rbp),%eax
   10b44:	0f b6 c0             	movzbl %al,%eax
   10b47:	89 d6                	mov    %edx,%esi
   10b49:	89 c7                	mov    %eax,%edi
   10b4b:	e8 28 b0 ff ff       	callq  bb78 <safe_sub_func_uint8_t_u_u>
   10b50:	48 8b 05 99 fc 00 00 	mov    0xfc99(%rip),%rax        # 207f0 <g_998>
   10b57:	48 8b 00             	mov    (%rax),%rax
   10b5a:	48 8d 15 e7 fb 00 00 	lea    0xfbe7(%rip),%rdx        # 20748 <g_628>
   10b61:	48 39 d0             	cmp    %rdx,%rax
   10b64:	0f 95 c2             	setne  %dl
   10b67:	8b 85 fc fa ff ff    	mov    -0x504(%rbp),%eax
   10b6d:	85 c0                	test   %eax,%eax
   10b6f:	0f 9e c0             	setle  %al
   10b72:	31 d0                	xor    %edx,%eax
   10b74:	0f b6 d0             	movzbl %al,%edx
   10b77:	8b 05 07 c6 00 00    	mov    0xc607(%rip),%eax        # 1d184 <g_1185>
   10b7d:	09 d0                	or     %edx,%eax
   10b7f:	89 05 ff c5 00 00    	mov    %eax,0xc5ff(%rip)        # 1d184 <g_1185>
   10b85:	8b 05 f9 c5 00 00    	mov    0xc5f9(%rip),%eax        # 1d184 <g_1185>
   10b8b:	39 85 e4 f8 ff ff    	cmp    %eax,-0x71c(%rbp)
   10b91:	0f 92 c0             	setb   %al
   10b94:	0f b6 c0             	movzbl %al,%eax
   10b97:	4d 89 f0             	mov    %r14,%r8
   10b9a:	44 89 e9             	mov    %r13d,%ecx
   10b9d:	44 89 e2             	mov    %r12d,%edx
   10ba0:	89 de                	mov    %ebx,%esi
   10ba2:	89 c7                	mov    %eax,%edi
   10ba4:	e8 4c 6a 00 00       	callq  175f5 <func_46>
   10ba9:	48 8b 95 a8 f8 ff ff 	mov    -0x758(%rbp),%rdx
   10bb0:	48 89 02             	mov    %rax,(%rdx)
   10bb3:	e9 45 01 00 00       	jmpq   10cfd <func_22+0x6e6>
   10bb8:	c6 85 de f8 ff ff 02 	movb   $0x2,-0x722(%rbp)
   10bbf:	48 c7 85 f8 f9 ff ff 	movq   $0x0,-0x608(%rbp)
   10bc6:	00 00 00 00 
   10bca:	c7 85 f8 f9 ff ff 31 	movl   $0x5bb74731,-0x608(%rbp)
   10bd1:	47 b7 5b 
   10bd4:	48 8d 05 35 fc 00 00 	lea    0xfc35(%rip),%rax        # 20810 <g_1195>
   10bdb:	48 89 85 70 f9 ff ff 	mov    %rax,-0x690(%rbp)
   10be2:	c6 85 df f8 ff ff 07 	movb   $0x7,-0x721(%rbp)
   10be9:	48 8b 85 a8 f8 ff ff 	mov    -0x758(%rbp),%rax
   10bf0:	48 8b 10             	mov    (%rax),%rdx
   10bf3:	48 8b 05 a6 f7 00 00 	mov    0xf7a6(%rip),%rax        # 203a0 <g_34>
   10bfa:	8b 12                	mov    (%rdx),%edx
   10bfc:	89 10                	mov    %edx,(%rax)
   10bfe:	44 8b a5 fc fa ff ff 	mov    -0x504(%rbp),%r12d
   10c05:	48 8d 05 84 fb 00 00 	lea    0xfb84(%rip),%rax        # 20790 <g_926>
   10c0c:	48 8b 00             	mov    (%rax),%rax
   10c0f:	8b 00                	mov    (%rax),%eax
   10c11:	41 89 c5             	mov    %eax,%r13d
   10c14:	0f b6 05 0d c4 00 00 	movzbl 0xc40d(%rip),%eax        # 1d028 <g_32>
   10c1b:	0f be d8             	movsbl %al,%ebx
   10c1e:	0f b7 05 af c4 00 00 	movzwl 0xc4af(%rip),%eax        # 1d0d4 <g_204+0xc>
   10c25:	66 25 ff 07          	and    $0x7ff,%ax
   10c29:	89 c2                	mov    %eax,%edx
   10c2b:	48 8b 85 58 f9 ff ff 	mov    -0x6a8(%rbp),%rax
   10c32:	48 8b 00             	mov    (%rax),%rax
   10c35:	66 89 10             	mov    %dx,(%rax)
   10c38:	0f b7 00             	movzwl (%rax),%eax
   10c3b:	98                   	cwtl   
   10c3c:	be 0a 00 00 00       	mov    $0xa,%esi
   10c41:	89 c7                	mov    %eax,%edi
   10c43:	e8 4a a8 ff ff       	callq  b492 <safe_lshift_func_int16_t_s_s>
   10c48:	89 c2                	mov    %eax,%edx
   10c4a:	8b 85 fc fa ff ff    	mov    -0x504(%rbp),%eax
   10c50:	89 c1                	mov    %eax,%ecx
   10c52:	48 8d 05 37 fb 00 00 	lea    0xfb37(%rip),%rax        # 20790 <g_926>
   10c59:	48 8b 00             	mov    (%rax),%rax
   10c5c:	8b 00                	mov    (%rax),%eax
   10c5e:	09 c8                	or     %ecx,%eax
   10c60:	31 d0                	xor    %edx,%eax
   10c62:	98                   	cwtl   
   10c63:	89 de                	mov    %ebx,%esi
   10c65:	89 c7                	mov    %eax,%edi
   10c67:	e8 f7 a8 ff ff       	callq  b563 <safe_rshift_func_int16_t_s_u>
   10c6c:	66 85 c0             	test   %ax,%ax
   10c6f:	0f 9f c0             	setg   %al
   10c72:	0f b6 c0             	movzbl %al,%eax
   10c75:	44 89 ee             	mov    %r13d,%esi
   10c78:	89 c7                	mov    %eax,%edi
   10c7a:	e8 4d aa ff ff       	callq  b6cc <safe_mod_func_int32_t_s_s>
   10c7f:	44 89 e2             	mov    %r12d,%edx
   10c82:	09 c2                	or     %eax,%edx
   10c84:	0f b6 85 cd f8 ff ff 	movzbl -0x733(%rbp),%eax
   10c8b:	01 c0                	add    %eax,%eax
   10c8d:	c0 f8 04             	sar    $0x4,%al
   10c90:	0f be c0             	movsbl %al,%eax
   10c93:	39 c2                	cmp    %eax,%edx
   10c95:	0f 9c c0             	setl   %al
   10c98:	0f b6 d0             	movzbl %al,%edx
   10c9b:	48 8b 05 ee fa 00 00 	mov    0xfaee(%rip),%rax        # 20790 <g_926>
   10ca2:	8b 00                	mov    (%rax),%eax
   10ca4:	09 c2                	or     %eax,%edx
   10ca6:	0f b7 85 c0 f8 ff ff 	movzwl -0x740(%rbp),%eax
   10cad:	c1 e0 02             	shl    $0x2,%eax
   10cb0:	66 c1 f8 02          	sar    $0x2,%ax
   10cb4:	98                   	cwtl   
   10cb5:	39 c2                	cmp    %eax,%edx
   10cb7:	0f 92 c0             	setb   %al
   10cba:	0f b6 d0             	movzbl %al,%edx
   10cbd:	48 8b 05 dc f6 00 00 	mov    0xf6dc(%rip),%rax        # 203a0 <g_34>
   10cc4:	8b 00                	mov    (%rax),%eax
   10cc6:	89 c1                	mov    %eax,%ecx
   10cc8:	89 d0                	mov    %edx,%eax
   10cca:	31 c1                	xor    %eax,%ecx
   10ccc:	89 ca                	mov    %ecx,%edx
   10cce:	48 8b 05 cb f6 00 00 	mov    0xf6cb(%rip),%rax        # 203a0 <g_34>
   10cd5:	89 10                	mov    %edx,(%rax)
   10cd7:	be 07 00 00 00       	mov    $0x7,%esi
   10cdc:	bf 01 00 00 00       	mov    $0x1,%edi
   10ce1:	e8 62 b1 ff ff       	callq  be48 <safe_rshift_func_uint16_t_u_s>
   10ce6:	48 8b 15 b3 f6 00 00 	mov    0xf6b3(%rip),%rdx        # 203a0 <g_34>
   10ced:	8b 0a                	mov    (%rdx),%ecx
   10cef:	0f b7 d0             	movzwl %ax,%edx
   10cf2:	48 8b 05 a7 f6 00 00 	mov    0xf6a7(%rip),%rax        # 203a0 <g_34>
   10cf9:	09 ca                	or     %ecx,%edx
   10cfb:	89 10                	mov    %edx,(%rax)
   10cfd:	8b 85 64 fa ff ff    	mov    -0x59c(%rbp),%eax
   10d03:	85 c0                	test   %eax,%eax
   10d05:	0f 84 a8 01 00 00    	je     10eb3 <func_22+0x89c>
   10d0b:	48 c7 85 20 f9 ff ff 	movq   $0x0,-0x6e0(%rbp)
   10d12:	00 00 00 00 
   10d16:	48 8d 85 20 f9 ff ff 	lea    -0x6e0(%rbp),%rax
   10d1d:	48 89 85 d0 f9 ff ff 	mov    %rax,-0x630(%rbp)
   10d24:	0f b7 85 f8 f9 ff ff 	movzwl -0x608(%rbp),%eax
   10d2b:	66 25 00 c0          	and    $0xc000,%ax
   10d2f:	66 0d 9d 3f          	or     $0x3f9d,%ax
   10d33:	66 89 85 f8 f9 ff ff 	mov    %ax,-0x608(%rbp)
   10d3a:	66 c7 85 fa f9 ff ff 	movw   $0xfbb7,-0x606(%rbp)
   10d41:	b7 fb 
   10d43:	0f b6 85 fc f9 ff ff 	movzbl -0x604(%rbp),%eax
   10d4a:	83 e0 f8             	and    $0xfffffff8,%eax
   10d4d:	88 85 fc f9 ff ff    	mov    %al,-0x604(%rbp)
   10d53:	8b 85 fc f9 ff ff    	mov    -0x604(%rbp),%eax
   10d59:	25 07 00 00 f0       	and    $0xf0000007,%eax
   10d5e:	0d d8 9b 00 00       	or     $0x9bd8,%eax
   10d63:	89 85 fc f9 ff ff    	mov    %eax,-0x604(%rbp)
   10d69:	c7 85 00 fa ff ff da 	movl   $0xf0994cda,-0x600(%rbp)
   10d70:	4c 99 f0 
   10d73:	0f b7 85 04 fa ff ff 	movzwl -0x5fc(%rbp),%eax
   10d7a:	66 25 00 f8          	and    $0xf800,%ax
   10d7e:	83 c8 24             	or     $0x24,%eax
   10d81:	66 89 85 04 fa ff ff 	mov    %ax,-0x5fc(%rbp)
   10d88:	0f b6 85 05 fa ff ff 	movzbl -0x5fb(%rbp),%eax
   10d8f:	83 e0 87             	and    $0xffffff87,%eax
   10d92:	83 c8 18             	or     $0x18,%eax
   10d95:	88 85 05 fa ff ff    	mov    %al,-0x5fb(%rbp)
   10d9b:	48 8d 05 f6 f9 00 00 	lea    0xf9f6(%rip),%rax        # 20798 <g_963>
   10da2:	48 89 85 28 f9 ff ff 	mov    %rax,-0x6d8(%rbp)
   10da9:	48 8d 85 28 f9 ff ff 	lea    -0x6d8(%rbp),%rax
   10db0:	48 89 85 d8 f9 ff ff 	mov    %rax,-0x628(%rbp)
   10db7:	c7 85 ec f8 ff ff 00 	movl   $0x0,-0x714(%rbp)
   10dbe:	00 00 00 
   10dc1:	eb 1a                	jmp    10ddd <func_22+0x7c6>
   10dc3:	8b 85 ec f8 ff ff    	mov    -0x714(%rbp),%eax
   10dc9:	48 98                	cltq   
   10dcb:	c7 84 85 10 fa ff ff 	movl   $0x62d055ed,-0x5f0(%rbp,%rax,4)
   10dd2:	ed 55 d0 62 
   10dd6:	83 85 ec f8 ff ff 01 	addl   $0x1,-0x714(%rbp)
   10ddd:	83 bd ec f8 ff ff 01 	cmpl   $0x1,-0x714(%rbp)
   10de4:	7e dd                	jle    10dc3 <func_22+0x7ac>
   10de6:	48 c7 05 4f c2 00 00 	movq   $0x11,0xc24f(%rip)        # 1d040 <g_80>
   10ded:	11 00 00 00 
   10df1:	e9 a7 00 00 00       	jmpq   10e9d <func_22+0x886>
   10df6:	48 8d 05 37 c2 00 00 	lea    0xc237(%rip),%rax        # 1d034 <g_38>
   10dfd:	48 89 85 30 f9 ff ff 	mov    %rax,-0x6d0(%rbp)
   10e04:	48 8d 85 30 f9 ff ff 	lea    -0x6d0(%rbp),%rax
   10e0b:	48 89 85 e0 f9 ff ff 	mov    %rax,-0x620(%rbp)
   10e12:	48 8d 85 d0 fc ff ff 	lea    -0x330(%rbp),%rax
   10e19:	48 8d 15 40 d5 00 00 	lea    0xd540(%rip),%rdx        # 1e360 <g_1942+0x1150>
   10e20:	b9 60 00 00 00       	mov    $0x60,%ecx
   10e25:	48 89 c7             	mov    %rax,%rdi
   10e28:	48 89 d6             	mov    %rdx,%rsi
   10e2b:	f3 48 a5             	rep movsq %ds:(%rsi),%es:(%rdi)
   10e2e:	c7 85 0c f9 ff ff 00 	movl   $0x0,-0x6f4(%rbp)
   10e35:	00 00 00 
   10e38:	c6 85 e1 f8 ff ff 01 	movb   $0x1,-0x71f(%rbp)
   10e3f:	48 8d 05 ea f7 00 00 	lea    0xf7ea(%rip),%rax        # 20630 <g_113+0x270>
   10e46:	48 89 85 38 f9 ff ff 	mov    %rax,-0x6c8(%rbp)
   10e4d:	48 8d 85 38 f9 ff ff 	lea    -0x6c8(%rbp),%rax
   10e54:	48 89 85 40 f9 ff ff 	mov    %rax,-0x6c0(%rbp)
   10e5b:	48 8d 85 40 f9 ff ff 	lea    -0x6c0(%rbp),%rax
   10e62:	48 89 85 e8 f9 ff ff 	mov    %rax,-0x618(%rbp)
   10e69:	c7 85 10 f9 ff ff f0 	movl   $0xe9ee8df0,-0x6f0(%rbp)
   10e70:	8d ee e9 
   10e73:	48 8d 05 0e c3 00 00 	lea    0xc30e(%rip),%rax        # 1d188 <g_1283>
   10e7a:	48 89 85 f0 f9 ff ff 	mov    %rax,-0x610(%rbp)
   10e81:	c7 85 14 f9 ff ff 6f 	movl   $0xd7b3c86f,-0x6ec(%rbp)
   10e88:	c8 b3 d7 
   10e8b:	48 8b 05 ae c1 00 00 	mov    0xc1ae(%rip),%rax        # 1d040 <g_80>
   10e92:	48 83 e8 01          	sub    $0x1,%rax
   10e96:	48 89 05 a3 c1 00 00 	mov    %rax,0xc1a3(%rip)        # 1d040 <g_80>
   10e9d:	48 8b 05 9c c1 00 00 	mov    0xc19c(%rip),%rax        # 1d040 <g_80>
   10ea4:	48 83 f8 0c          	cmp    $0xc,%rax
   10ea8:	0f 87 48 ff ff ff    	ja     10df6 <func_22+0x7df>
   10eae:	e9 f6 03 00 00       	jmpq   112a9 <func_22+0xc92>
   10eb3:	c6 85 e0 f8 ff ff ff 	movb   $0xff,-0x720(%rbp)
   10eba:	48 8d 05 87 f8 00 00 	lea    0xf887(%rip),%rax        # 20748 <g_628>
   10ec1:	48 89 85 a8 f9 ff ff 	mov    %rax,-0x658(%rbp)
   10ec8:	8b 85 c8 f8 ff ff    	mov    -0x738(%rbp),%eax
   10ece:	85 c0                	test   %eax,%eax
   10ed0:	74 05                	je     10ed7 <func_22+0x8c0>
   10ed2:	e9 14 fa ff ff       	jmpq   108eb <func_22+0x2d4>
   10ed7:	48 8b 05 12 f8 00 00 	mov    0xf812(%rip),%rax        # 206f0 <g_519>
   10ede:	48 8b 00             	mov    (%rax),%rax
   10ee1:	8b 00                	mov    (%rax),%eax
   10ee3:	31 85 f0 f8 ff ff    	xor    %eax,-0x710(%rbp)
   10ee9:	66 c7 05 ce c1 00 00 	movw   $0x0,0xc1ce(%rip)        # 1d0c0 <g_203>
   10ef0:	00 00 
   10ef2:	e9 a2 03 00 00       	jmpq   11299 <func_22+0xc82>
   10ef7:	c7 85 fc f8 ff ff 72 	movl   $0x5631cd72,-0x704(%rbp)
   10efe:	cd 31 56 
   10f01:	c7 85 00 f9 ff ff 8e 	movl   $0x6641bc8e,-0x700(%rbp)
   10f08:	bc 41 66 
   10f0b:	48 8d 85 10 fb ff ff 	lea    -0x4f0(%rbp),%rax
   10f12:	48 05 a0 00 00 00    	add    $0xa0,%rax
   10f18:	48 89 85 b0 f9 ff ff 	mov    %rax,-0x650(%rbp)
   10f1f:	48 8b 15 ba f8 00 00 	mov    0xf8ba(%rip),%rdx        # 207e0 <g_965>
   10f26:	48 8b 05 fb f8 00 00 	mov    0xf8fb(%rip),%rax        # 20828 <g_1293>
   10f2d:	48 8b 12             	mov    (%rdx),%rdx
   10f30:	48 89 10             	mov    %rdx,(%rax)
   10f33:	48 c7 05 02 c1 00 00 	movq   $0x0,0xc102(%rip)        # 1d040 <g_80>
   10f3a:	00 00 00 00 
   10f3e:	e9 35 03 00 00       	jmpq   11278 <func_22+0xc61>
   10f43:	48 8d 05 b6 f7 00 00 	lea    0xf7b6(%rip),%rax        # 20700 <g_577>
   10f4a:	48 89 85 b8 f9 ff ff 	mov    %rax,-0x648(%rbp)
   10f51:	c7 85 04 f9 ff ff ff 	movl   $0xffffffff,-0x6fc(%rbp)
   10f58:	ff ff ff 
   10f5b:	c7 85 08 f9 ff ff 53 	movl   $0xc0b27f53,-0x6f8(%rbp)
   10f62:	7f b2 c0 
   10f65:	48 8d 05 1c c1 00 00 	lea    0xc11c(%rip),%rax        # 1d088 <g_106>
   10f6c:	48 89 85 c0 f9 ff ff 	mov    %rax,-0x640(%rbp)
   10f73:	48 8d 05 6e f8 00 00 	lea    0xf86e(%rip),%rax        # 207e8 <g_999>
   10f7a:	48 89 85 c8 f9 ff ff 	mov    %rax,-0x638(%rbp)
   10f81:	0f b6 85 e0 f8 ff ff 	movzbl -0x720(%rbp),%eax
   10f88:	0f be c0             	movsbl %al,%eax
   10f8b:	8b 95 bc f8 ff ff    	mov    -0x744(%rbp),%edx
   10f91:	89 d6                	mov    %edx,%esi
   10f93:	89 c7                	mov    %eax,%edi
   10f95:	e8 d2 a3 ff ff       	callq  b36c <safe_rshift_func_int8_t_s_u>
   10f9a:	89 c2                	mov    %eax,%edx
   10f9c:	48 8b 05 45 f7 00 00 	mov    0xf745(%rip),%rax        # 206e8 <g_354>
   10fa3:	48 8b 00             	mov    (%rax),%rax
   10fa6:	48 85 c0             	test   %rax,%rax
   10fa9:	0f 95 c0             	setne  %al
   10fac:	31 d0                	xor    %edx,%eax
   10fae:	c1 e0 05             	shl    $0x5,%eax
   10fb1:	c0 f8 05             	sar    $0x5,%al
   10fb4:	83 e0 07             	and    $0x7,%eax
   10fb7:	89 c2                	mov    %eax,%edx
   10fb9:	0f b6 85 c4 f8 ff ff 	movzbl -0x73c(%rbp),%eax
   10fc0:	83 e0 f8             	and    $0xfffffff8,%eax
   10fc3:	09 d0                	or     %edx,%eax
   10fc5:	88 85 c4 f8 ff ff    	mov    %al,-0x73c(%rbp)
   10fcb:	0f b6 85 c4 f8 ff ff 	movzbl -0x73c(%rbp),%eax
   10fd2:	c1 e0 05             	shl    $0x5,%eax
   10fd5:	c0 f8 05             	sar    $0x5,%al
   10fd8:	8b 95 b4 fa ff ff    	mov    -0x54c(%rbp),%edx
   10fde:	0f be c0             	movsbl %al,%eax
   10fe1:	09 d0                	or     %edx,%eax
   10fe3:	89 85 b4 fa ff ff    	mov    %eax,-0x54c(%rbp)
   10fe9:	48 8b 15 50 c0 00 00 	mov    0xc050(%rip),%rdx        # 1d040 <g_80>
   10ff0:	48 8b 05 49 c0 00 00 	mov    0xc049(%rip),%rax        # 1d040 <g_80>
   10ff7:	48 8b 94 d5 08 fa ff 	mov    -0x5f8(%rbp,%rdx,8),%rdx
   10ffe:	ff 
   10fff:	48 89 94 c5 08 fa ff 	mov    %rdx,-0x5f8(%rbp,%rax,8)
   11006:	ff 
   11007:	48 83 bd a8 f9 ff ff 	cmpq   $0x0,-0x658(%rbp)
   1100e:	00 
   1100f:	41 0f 95 c6          	setne  %r14b
   11013:	0f b6 05 1e c0 00 00 	movzbl 0xc01e(%rip),%eax        # 1d038 <g_53>
   1101a:	0f b6 d8             	movzbl %al,%ebx
   1101d:	44 0f b6 a5 e0 f8 ff 	movzbl -0x720(%rbp),%r12d
   11024:	ff 
   11025:	8b 85 c8 f8 ff ff    	mov    -0x738(%rbp),%eax
   1102b:	41 89 c5             	mov    %eax,%r13d
   1102e:	0f b6 85 cd f8 ff ff 	movzbl -0x733(%rbp),%eax
   11035:	01 c0                	add    %eax,%eax
   11037:	c0 f8 04             	sar    $0x4,%al
   1103a:	0f be d0             	movsbl %al,%edx
   1103d:	48 8b 05 54 c1 00 00 	mov    0xc154(%rip),%rax        # 1d198 <g_1313>
   11044:	83 bd f4 f8 ff ff 00 	cmpl   $0x0,-0x70c(%rbp)
   1104b:	0f 95 c0             	setne  %al
   1104e:	0f b6 c8             	movzbl %al,%ecx
   11051:	48 8d 05 38 f7 00 00 	lea    0xf738(%rip),%rax        # 20790 <g_926>
   11058:	48 8b 00             	mov    (%rax),%rax
   1105b:	8b 00                	mov    (%rax),%eax
   1105d:	39 c1                	cmp    %eax,%ecx
   1105f:	0f 97 c0             	seta   %al
   11062:	0f b6 c0             	movzbl %al,%eax
   11065:	39 85 04 f9 ff ff    	cmp    %eax,-0x6fc(%rbp)
   1106b:	0f 92 c0             	setb   %al
   1106e:	0f b6 c8             	movzbl %al,%ecx
   11071:	8b 85 c4 f8 ff ff    	mov    -0x73c(%rbp),%eax
   11077:	c1 e8 03             	shr    $0x3,%eax
   1107a:	25 ff ff ff 01       	and    $0x1ffffff,%eax
   1107f:	39 c1                	cmp    %eax,%ecx
   11081:	0f 94 c1             	sete   %cl
   11084:	48 8b 05 1d f6 00 00 	mov    0xf61d(%rip),%rax        # 206a8 <g_273>
   1108b:	88 08                	mov    %cl,(%rax)
   1108d:	0f b6 00             	movzbl (%rax),%eax
   11090:	0f b6 c0             	movzbl %al,%eax
   11093:	39 85 fc f8 ff ff    	cmp    %eax,-0x704(%rbp)
   11099:	0f 9f c0             	setg   %al
   1109c:	0f b6 c0             	movzbl %al,%eax
   1109f:	89 d6                	mov    %edx,%esi
   110a1:	89 c7                	mov    %eax,%edi
   110a3:	e8 f9 a1 ff ff       	callq  b2a1 <safe_lshift_func_int8_t_s_s>
   110a8:	0f be c0             	movsbl %al,%eax
   110ab:	89 85 08 f9 ff ff    	mov    %eax,-0x6f8(%rbp)
   110b1:	8b 85 08 f9 ff ff    	mov    -0x6f8(%rbp),%eax
   110b7:	34 96                	xor    $0x96,%al
   110b9:	89 c2                	mov    %eax,%edx
   110bb:	0f b7 85 cc f8 ff ff 	movzwl -0x734(%rbp),%eax
   110c2:	66 25 ff 07          	and    $0x7ff,%ax
   110c6:	0f b7 c0             	movzwl %ax,%eax
   110c9:	39 c2                	cmp    %eax,%edx
   110cb:	0f 9d c0             	setge  %al
   110ce:	0f b6 d0             	movzbl %al,%edx
   110d1:	0f b7 85 c2 f8 ff ff 	movzwl -0x73e(%rbp),%eax
   110d8:	0f b7 c0             	movzwl %ax,%eax
   110db:	89 d6                	mov    %edx,%esi
   110dd:	89 c7                	mov    %eax,%edi
   110df:	e8 da ac ff ff       	callq  bdbe <safe_lshift_func_uint16_t_u_s>
   110e4:	0f b7 c0             	movzwl %ax,%eax
   110e7:	48 89 05 a2 bf 00 00 	mov    %rax,0xbfa2(%rip)        # 1d090 <g_112>
   110ee:	80 bd e0 f8 ff ff 00 	cmpb   $0x0,-0x720(%rbp)
   110f5:	0f 94 c0             	sete   %al
   110f8:	0f b6 d0             	movzbl %al,%edx
   110fb:	48 8b 05 4e f6 00 00 	mov    0xf64e(%rip),%rax        # 20750 <g_627>
   11102:	48 8b 00             	mov    (%rax),%rax
   11105:	48 8b 00             	mov    (%rax),%rax
   11108:	48 8b 00             	mov    (%rax),%rax
   1110b:	48 39 c2             	cmp    %rax,%rdx
   1110e:	0f 92 c0             	setb   %al
   11111:	0f b6 c0             	movzbl %al,%eax
   11114:	44 89 ee             	mov    %r13d,%esi
   11117:	89 c7                	mov    %eax,%edi
   11119:	e8 a0 ab ff ff       	callq  bcbe <safe_rshift_func_uint8_t_u_u>
   1111e:	0f b6 c0             	movzbl %al,%eax
   11121:	44 89 e6             	mov    %r12d,%esi
   11124:	89 c7                	mov    %eax,%edi
   11126:	e8 88 a2 ff ff       	callq  b3b3 <safe_add_func_int16_t_s_s>
   1112b:	0f b7 c0             	movzwl %ax,%eax
   1112e:	89 de                	mov    %ebx,%esi
   11130:	89 c7                	mov    %eax,%edi
   11132:	e8 43 ad ff ff       	callq  be7a <safe_rshift_func_uint16_t_u_u>
   11137:	0f b7 c0             	movzwl %ax,%eax
   1113a:	48 f7 d0             	not    %rax
   1113d:	48 89 c2             	mov    %rax,%rdx
   11140:	48 8b 85 c0 f9 ff ff 	mov    -0x640(%rbp),%rax
   11147:	8b 00                	mov    (%rax),%eax
   11149:	09 c2                	or     %eax,%edx
   1114b:	48 8b 85 c0 f9 ff ff 	mov    -0x640(%rbp),%rax
   11152:	89 10                	mov    %edx,(%rax)
   11154:	48 8b 85 c0 f9 ff ff 	mov    -0x640(%rbp),%rax
   1115b:	8b 00                	mov    (%rax),%eax
   1115d:	89 85 00 f9 ff ff    	mov    %eax,-0x700(%rbp)
   11163:	8b 95 00 f9 ff ff    	mov    -0x700(%rbp),%edx
   11169:	48 8b 05 20 f6 00 00 	mov    0xf620(%rip),%rax        # 20790 <g_926>
   11170:	8b 00                	mov    (%rax),%eax
   11172:	89 d6                	mov    %edx,%esi
   11174:	89 c7                	mov    %eax,%edi
   11176:	e8 82 ad ff ff       	callq  befd <safe_mod_func_uint32_t_u_u>
   1117b:	8b 95 f0 fa ff ff    	mov    -0x510(%rbp),%edx
   11181:	21 d0                	and    %edx,%eax
   11183:	85 c0                	test   %eax,%eax
   11185:	74 10                	je     11197 <func_22+0xb80>
   11187:	80 bd e0 f8 ff ff 00 	cmpb   $0x0,-0x720(%rbp)
   1118e:	74 07                	je     11197 <func_22+0xb80>
   11190:	b8 01 00 00 00       	mov    $0x1,%eax
   11195:	eb 05                	jmp    1119c <func_22+0xb85>
   11197:	b8 00 00 00 00       	mov    $0x0,%eax
   1119c:	83 e0 01             	and    $0x1,%eax
   1119f:	44 09 f0             	or     %r14d,%eax
   111a2:	0f b6 d0             	movzbl %al,%edx
   111a5:	48 8b 05 f4 f1 00 00 	mov    0xf1f4(%rip),%rax        # 203a0 <g_34>
   111ac:	f7 d2                	not    %edx
   111ae:	89 10                	mov    %edx,(%rax)
   111b0:	8b 85 b8 f8 ff ff    	mov    -0x748(%rbp),%eax
   111b6:	0f be d8             	movsbl %al,%ebx
   111b9:	48 8b 85 c8 f9 ff ff 	mov    -0x638(%rbp),%rax
   111c0:	48 8b 95 a8 f9 ff ff 	mov    -0x658(%rbp),%rdx
   111c7:	48 89 10             	mov    %rdx,(%rax)
   111ca:	48 8b 85 c8 f9 ff ff 	mov    -0x638(%rbp),%rax
   111d1:	48 8b 00             	mov    (%rax),%rax
   111d4:	48 39 85 b0 f9 ff ff 	cmp    %rax,-0x650(%rbp)
   111db:	0f 95 c0             	setne  %al
   111de:	44 0f b6 e0          	movzbl %al,%r12d
   111e2:	be 00 00 00 00       	mov    $0x0,%esi
   111e7:	bf a3 00 00 00       	mov    $0xa3,%edi
   111ec:	e8 0e ab ff ff       	callq  bcff <safe_add_func_uint16_t_u_u>
   111f1:	0f b7 c0             	movzwl %ax,%eax
   111f4:	41 39 c4             	cmp    %eax,%r12d
   111f7:	7d 0b                	jge    11204 <func_22+0xbed>
   111f9:	0f b6 05 a0 be 00 00 	movzbl 0xbea0(%rip),%eax        # 1d0a0 <g_117>
   11200:	84 c0                	test   %al,%al
   11202:	74 07                	je     1120b <func_22+0xbf4>
   11204:	b8 01 00 00 00       	mov    $0x1,%eax
   11209:	eb 05                	jmp    11210 <func_22+0xbf9>
   1120b:	b8 00 00 00 00       	mov    $0x0,%eax
   11210:	0f be c0             	movsbl %al,%eax
   11213:	89 de                	mov    %ebx,%esi
   11215:	89 c7                	mov    %eax,%edi
   11217:	e8 d6 9f ff ff       	callq  b1f2 <safe_sub_func_int8_t_s_s>
   1121c:	48 8b 85 c0 f9 ff ff 	mov    -0x640(%rbp),%rax
   11223:	8b 00                	mov    (%rax),%eax
   11225:	48 63 f8             	movslq %eax,%rdi
   11228:	0f b6 85 c4 f8 ff ff 	movzbl -0x73c(%rbp),%eax
   1122f:	c1 e0 05             	shl    $0x5,%eax
   11232:	c0 f8 05             	sar    $0x5,%al
   11235:	0f b6 c8             	movzbl %al,%ecx
   11238:	0f b7 05 61 bf 00 00 	movzwl 0xbf61(%rip),%eax        # 1d1a0 <g_1320>
   1123f:	0f be d0             	movsbl %al,%edx
   11242:	0f b6 b5 e0 f8 ff ff 	movzbl -0x720(%rbp),%esi
   11249:	8b 85 00 f9 ff ff    	mov    -0x700(%rbp),%eax
   1124f:	0f b7 c0             	movzwl %ax,%eax
   11252:	48 8b 1d af f5 00 00 	mov    0xf5af(%rip),%rbx        # 20808 <g_1158>
   11259:	49 89 f8             	mov    %rdi,%r8
   1125c:	89 c7                	mov    %eax,%edi
   1125e:	e8 92 63 00 00       	callq  175f5 <func_46>
   11263:	48 89 03             	mov    %rax,(%rbx)
   11266:	48 8b 05 d3 bd 00 00 	mov    0xbdd3(%rip),%rax        # 1d040 <g_80>
   1126d:	48 83 c0 01          	add    $0x1,%rax
   11271:	48 89 05 c8 bd 00 00 	mov    %rax,0xbdc8(%rip)        # 1d040 <g_80>
   11278:	48 8b 05 c1 bd 00 00 	mov    0xbdc1(%rip),%rax        # 1d040 <g_80>
   1127f:	48 85 c0             	test   %rax,%rax
   11282:	0f 84 bb fc ff ff    	je     10f43 <func_22+0x92c>
   11288:	0f b7 05 31 be 00 00 	movzwl 0xbe31(%rip),%eax        # 1d0c0 <g_203>
   1128f:	83 e8 01             	sub    $0x1,%eax
   11292:	66 89 05 27 be 00 00 	mov    %ax,0xbe27(%rip)        # 1d0c0 <g_203>
   11299:	0f b7 05 20 be 00 00 	movzwl 0xbe20(%rip),%eax        # 1d0c0 <g_203>
   112a0:	66 85 c0             	test   %ax,%ax
   112a3:	0f 89 4e fc ff ff    	jns    10ef7 <func_22+0x8e0>
   112a9:	48 8b 85 c0 f8 ff ff 	mov    -0x740(%rbp),%rax
   112b0:	48 89 85 f8 f9 ff ff 	mov    %rax,-0x608(%rbp)
   112b7:	8b 85 c8 f8 ff ff    	mov    -0x738(%rbp),%eax
   112bd:	89 85 00 fa ff ff    	mov    %eax,-0x600(%rbp)
   112c3:	0f b7 85 cc f8 ff ff 	movzwl -0x734(%rbp),%eax
   112ca:	66 89 85 04 fa ff ff 	mov    %ax,-0x5fc(%rbp)
   112d1:	48 8b 85 f8 f9 ff ff 	mov    -0x608(%rbp),%rax
   112d8:	48 b9 ff ff ff ff ff 	movabs $0xffffffffffff,%rcx
   112df:	ff 00 00 
   112e2:	48 23 8d 00 fa ff ff 	and    -0x600(%rbp),%rcx
   112e9:	48 89 ca             	mov    %rcx,%rdx
   112ec:	48 8b 5d d8          	mov    -0x28(%rbp),%rbx
   112f0:	64 48 33 1c 25 28 00 	xor    %fs:0x28,%rbx
   112f7:	00 00 
   112f9:	74 05                	je     11300 <func_22+0xce9>
   112fb:	e8 70 9d ff ff       	callq  b070 <__stack_chk_fail@plt>
   11300:	48 81 c4 50 07 00 00 	add    $0x750,%rsp
   11307:	5b                   	pop    %rbx
   11308:	41 5c                	pop    %r12
   1130a:	41 5d                	pop    %r13
   1130c:	41 5e                	pop    %r14
   1130e:	5d                   	pop    %rbp
   1130f:	c3                   	retq   

0000000000011310 <func_28>:
   11310:	f3 0f 1e fa          	endbr64 
   11314:	55                   	push   %rbp
   11315:	48 89 e5             	mov    %rsp,%rbp
   11318:	41 55                	push   %r13
   1131a:	41 54                	push   %r12
   1131c:	53                   	push   %rbx
   1131d:	48 81 ec 08 05 00 00 	sub    $0x508,%rsp
   11324:	89 bd fc fa ff ff    	mov    %edi,-0x504(%rbp)
   1132a:	64 48 8b 04 25 28 00 	mov    %fs:0x28,%rax
   11331:	00 00 
   11333:	48 89 45 d8          	mov    %rax,-0x28(%rbp)
   11337:	31 c0                	xor    %eax,%eax
   11339:	48 8d 85 50 fb ff ff 	lea    -0x4b0(%rbp),%rax
   11340:	48 8d 15 19 d3 00 00 	lea    0xd319(%rip),%rdx        # 1e660 <g_1942+0x1450>
   11347:	b9 90 00 00 00       	mov    $0x90,%ecx
   1134c:	48 89 c7             	mov    %rax,%rdi
   1134f:	48 89 d6             	mov    %rdx,%rsi
   11352:	f3 48 a5             	rep movsq %ds:(%rsi),%es:(%rdi)
   11355:	0f b7 85 20 fb ff ff 	movzwl -0x4e0(%rbp),%eax
   1135c:	66 0d ff 3f          	or     $0x3fff,%ax
   11360:	66 89 85 20 fb ff ff 	mov    %ax,-0x4e0(%rbp)
   11367:	66 c7 85 22 fb ff ff 	movw   $0xfff9,-0x4de(%rbp)
   1136e:	f9 ff 
   11370:	0f b6 85 24 fb ff ff 	movzbl -0x4dc(%rbp),%eax
   11377:	83 e0 f8             	and    $0xfffffff8,%eax
   1137a:	83 c8 01             	or     $0x1,%eax
   1137d:	88 85 24 fb ff ff    	mov    %al,-0x4dc(%rbp)
   11383:	8b 85 24 fb ff ff    	mov    -0x4dc(%rbp),%eax
   11389:	25 07 00 00 f0       	and    $0xf0000007,%eax
   1138e:	0d 88 98 00 00       	or     $0x9888,%eax
   11393:	89 85 24 fb ff ff    	mov    %eax,-0x4dc(%rbp)
   11399:	c7 85 28 fb ff ff 02 	movl   $0x2,-0x4d8(%rbp)
   113a0:	00 00 00 
   113a3:	0f b7 85 2c fb ff ff 	movzwl -0x4d4(%rbp),%eax
   113aa:	66 25 00 f8          	and    $0xf800,%ax
   113ae:	83 c8 22             	or     $0x22,%eax
   113b1:	66 89 85 2c fb ff ff 	mov    %ax,-0x4d4(%rbp)
   113b8:	0f b6 85 2d fb ff ff 	movzbl -0x4d3(%rbp),%eax
   113bf:	83 e0 87             	and    $0xffffff87,%eax
   113c2:	83 c8 70             	or     $0x70,%eax
   113c5:	88 85 2d fb ff ff    	mov    %al,-0x4d3(%rbp)
   113cb:	0f b7 85 2e fb ff ff 	movzwl -0x4d2(%rbp),%eax
   113d2:	66 0d ff 3f          	or     $0x3fff,%ax
   113d6:	66 89 85 2e fb ff ff 	mov    %ax,-0x4d2(%rbp)
   113dd:	66 c7 85 30 fb ff ff 	movw   $0xfff9,-0x4d0(%rbp)
   113e4:	f9 ff 
   113e6:	0f b6 85 32 fb ff ff 	movzbl -0x4ce(%rbp),%eax
   113ed:	83 e0 f8             	and    $0xfffffff8,%eax
   113f0:	83 c8 01             	or     $0x1,%eax
   113f3:	88 85 32 fb ff ff    	mov    %al,-0x4ce(%rbp)
   113f9:	0f b7 85 32 fb ff ff 	movzwl -0x4ce(%rbp),%eax
   11400:	83 e0 07             	and    $0x7,%eax
   11403:	66 0d 88 98          	or     $0x9888,%ax
   11407:	66 89 85 32 fb ff ff 	mov    %ax,-0x4ce(%rbp)
   1140e:	0f b7 85 34 fb ff ff 	movzwl -0x4cc(%rbp),%eax
   11415:	66 25 00 f0          	and    $0xf000,%ax
   11419:	66 89 85 34 fb ff ff 	mov    %ax,-0x4cc(%rbp)
   11420:	c7 85 36 fb ff ff 02 	movl   $0x2,-0x4ca(%rbp)
   11427:	00 00 00 
   1142a:	0f b7 85 3a fb ff ff 	movzwl -0x4c6(%rbp),%eax
   11431:	66 25 00 f8          	and    $0xf800,%ax
   11435:	83 c8 22             	or     $0x22,%eax
   11438:	66 89 85 3a fb ff ff 	mov    %ax,-0x4c6(%rbp)
   1143f:	0f b6 85 3b fb ff ff 	movzbl -0x4c5(%rbp),%eax
   11446:	83 e0 87             	and    $0xffffff87,%eax
   11449:	83 c8 70             	or     $0x70,%eax
   1144c:	88 85 3b fb ff ff    	mov    %al,-0x4c5(%rbp)
   11452:	0f b7 85 3c fb ff ff 	movzwl -0x4c4(%rbp),%eax
   11459:	66 0d ff 3f          	or     $0x3fff,%ax
   1145d:	66 89 85 3c fb ff ff 	mov    %ax,-0x4c4(%rbp)
   11464:	66 c7 85 3e fb ff ff 	movw   $0xfff9,-0x4c2(%rbp)
   1146b:	f9 ff 
   1146d:	0f b6 85 40 fb ff ff 	movzbl -0x4c0(%rbp),%eax
   11474:	83 e0 f8             	and    $0xfffffff8,%eax
   11477:	83 c8 01             	or     $0x1,%eax
   1147a:	88 85 40 fb ff ff    	mov    %al,-0x4c0(%rbp)
   11480:	8b 85 40 fb ff ff    	mov    -0x4c0(%rbp),%eax
   11486:	25 07 00 00 f0       	and    $0xf0000007,%eax
   1148b:	0d 88 98 00 00       	or     $0x9888,%eax
   11490:	89 85 40 fb ff ff    	mov    %eax,-0x4c0(%rbp)
   11496:	c7 85 44 fb ff ff 02 	movl   $0x2,-0x4bc(%rbp)
   1149d:	00 00 00 
   114a0:	0f b7 85 48 fb ff ff 	movzwl -0x4b8(%rbp),%eax
   114a7:	66 25 00 f8          	and    $0xf800,%ax
   114ab:	83 c8 22             	or     $0x22,%eax
   114ae:	66 89 85 48 fb ff ff 	mov    %ax,-0x4b8(%rbp)
   114b5:	0f b6 85 49 fb ff ff 	movzbl -0x4b7(%rbp),%eax
   114bc:	83 e0 87             	and    $0xffffff87,%eax
   114bf:	83 c8 70             	or     $0x70,%eax
   114c2:	88 85 49 fb ff ff    	mov    %al,-0x4b7(%rbp)
   114c8:	c7 85 0c fb ff ff 00 	movl   $0x0,-0x4f4(%rbp)
   114cf:	00 00 00 
   114d2:	eb 14                	jmp    114e8 <func_28+0x1d8>
   114d4:	8b 85 0c fb ff ff    	mov    -0x4f4(%rbp),%eax
   114da:	48 98                	cltq   
   114dc:	c6 44 05 d4 58       	movb   $0x58,-0x2c(%rbp,%rax,1)
   114e1:	83 85 0c fb ff ff 01 	addl   $0x1,-0x4f4(%rbp)
   114e8:	83 bd 0c fb ff ff 03 	cmpl   $0x3,-0x4f4(%rbp)
   114ef:	7e e3                	jle    114d4 <func_28+0x1c4>
   114f1:	0f b7 05 40 bb 00 00 	movzwl 0xbb40(%rip),%eax        # 1d038 <g_53>
   114f8:	44 0f b6 e0          	movzbl %al,%r12d
   114fc:	48 8b 1d 55 f1 00 00 	mov    0xf155(%rip),%rbx        # 20658 <g_113+0x298>
   11503:	44 8b ad fc fa ff ff 	mov    -0x504(%rbp),%r13d
   1150a:	8b 05 1c bb 00 00    	mov    0xbb1c(%rip),%eax        # 1d02c <g_35>
   11510:	be 04 00 00 00       	mov    $0x4,%esi
   11515:	89 c7                	mov    %eax,%edi
   11517:	e8 9c a9 ff ff       	callq  beb8 <safe_add_func_uint32_t_u_u>
   1151c:	81 bd fc fa ff ff 0f 	cmpl   $0x4a0f,-0x504(%rbp)
   11523:	4a 00 00 
   11526:	0f 95 c0             	setne  %al
   11529:	0f b6 d0             	movzbl %al,%edx
   1152c:	0f b6 45 d7          	movzbl -0x29(%rbp),%eax
   11530:	0f be c0             	movsbl %al,%eax
   11533:	39 c2                	cmp    %eax,%edx
   11535:	0f 95 c0             	setne  %al
   11538:	0f b6 c8             	movzbl %al,%ecx
   1153b:	8b 85 fc fa ff ff    	mov    -0x504(%rbp),%eax
   11541:	0f be d0             	movsbl %al,%edx
   11544:	0f b6 45 d7          	movzbl -0x29(%rbp),%eax
   11548:	0f be f0             	movsbl %al,%esi
   1154b:	8b 85 fc fa ff ff    	mov    -0x504(%rbp),%eax
   11551:	0f b7 c0             	movzwl %ax,%eax
   11554:	4d 89 e8             	mov    %r13,%r8
   11557:	89 c7                	mov    %eax,%edi
   11559:	e8 97 60 00 00       	callq  175f5 <func_46>
   1155e:	48 89 c7             	mov    %rax,%rdi
   11561:	e8 56 5b 00 00       	callq  170bc <func_44>
   11566:	0f be c0             	movsbl %al,%eax
   11569:	48 8d 55 d4          	lea    -0x2c(%rbp),%rdx
   1156d:	48 83 c2 02          	add    $0x2,%rdx
   11571:	44 89 e1             	mov    %r12d,%ecx
   11574:	48 89 de             	mov    %rbx,%rsi
   11577:	89 c7                	mov    %eax,%edi
   11579:	e8 7e 00 00 00       	callq  115fc <func_39>
   1157e:	48 89 05 73 f2 00 00 	mov    %rax,0xf273(%rip)        # 207f8 <g_1155>
   11585:	48 8b 85 3c fb ff ff 	mov    -0x4c4(%rbp),%rax
   1158c:	48 89 85 12 fb ff ff 	mov    %rax,-0x4ee(%rbp)
   11593:	8b 85 44 fb ff ff    	mov    -0x4bc(%rbp),%eax
   11599:	89 85 1a fb ff ff    	mov    %eax,-0x4e6(%rbp)
   1159f:	0f b7 85 48 fb ff ff 	movzwl -0x4b8(%rbp),%eax
   115a6:	66 89 85 1e fb ff ff 	mov    %ax,-0x4e2(%rbp)
   115ad:	48 8b 85 12 fb ff ff 	mov    -0x4ee(%rbp),%rax
   115b4:	0f b7 8d 1a fb ff ff 	movzwl -0x4e6(%rbp),%ecx
   115bb:	0f b7 b5 1c fb ff ff 	movzwl -0x4e4(%rbp),%esi
   115c2:	48 c1 e6 10          	shl    $0x10,%rsi
   115c6:	48 09 ce             	or     %rcx,%rsi
   115c9:	0f b7 8d 1e fb ff ff 	movzwl -0x4e2(%rbp),%ecx
   115d0:	48 c1 e1 20          	shl    $0x20,%rcx
   115d4:	48 09 f1             	or     %rsi,%rcx
   115d7:	48 89 ca             	mov    %rcx,%rdx
   115da:	48 8b 5d d8          	mov    -0x28(%rbp),%rbx
   115de:	64 48 33 1c 25 28 00 	xor    %fs:0x28,%rbx
   115e5:	00 00 
   115e7:	74 05                	je     115ee <func_28+0x2de>
   115e9:	e8 82 9a ff ff       	callq  b070 <__stack_chk_fail@plt>
   115ee:	48 81 c4 08 05 00 00 	add    $0x508,%rsp
   115f5:	5b                   	pop    %rbx
   115f6:	41 5c                	pop    %r12
   115f8:	41 5d                	pop    %r13
   115fa:	5d                   	pop    %rbp
   115fb:	c3                   	retq   

00000000000115fc <func_39>:
   115fc:	f3 0f 1e fa          	endbr64 
   11600:	55                   	push   %rbp
   11601:	48 89 e5             	mov    %rsp,%rbp
   11604:	41 57                	push   %r15
   11606:	41 56                	push   %r14
   11608:	41 55                	push   %r13
   1160a:	41 54                	push   %r12
   1160c:	53                   	push   %rbx
   1160d:	48 81 ec 00 10 00 00 	sub    $0x1000,%rsp
   11614:	48 83 0c 24 00       	orq    $0x0,(%rsp)
   11619:	48 81 ec 68 0c 00 00 	sub    $0xc68,%rsp
   11620:	48 89 b5 90 e3 ff ff 	mov    %rsi,-0x1c70(%rbp)
   11627:	48 89 95 88 e3 ff ff 	mov    %rdx,-0x1c78(%rbp)
   1162e:	89 c8                	mov    %ecx,%eax
   11630:	89 fa                	mov    %edi,%edx
   11632:	88 95 9c e3 ff ff    	mov    %dl,-0x1c64(%rbp)
   11638:	88 85 98 e3 ff ff    	mov    %al,-0x1c68(%rbp)
   1163e:	64 48 8b 04 25 28 00 	mov    %fs:0x28,%rax
   11645:	00 00 
   11647:	48 89 45 c8          	mov    %rax,-0x38(%rbp)
   1164b:	31 c0                	xor    %eax,%eax
   1164d:	c6 85 a7 e3 ff ff 03 	movb   $0x3,-0x1c59(%rbp)
   11654:	48 8d 05 25 ba 00 00 	lea    0xba25(%rip),%rax        # 1d080 <g_95+0x20>
   1165b:	48 89 85 58 e4 ff ff 	mov    %rax,-0x1ba8(%rbp)
   11662:	48 8d 85 b0 ec ff ff 	lea    -0x1350(%rbp),%rax
   11669:	48 8d 15 70 d4 00 00 	lea    0xd470(%rip),%rdx        # 1eae0 <g_1942+0x18d0>
   11670:	b9 32 00 00 00       	mov    $0x32,%ecx
   11675:	48 89 c7             	mov    %rax,%rdi
   11678:	48 89 d6             	mov    %rdx,%rsi
   1167b:	f3 48 a5             	rep movsq %ds:(%rsi),%es:(%rdi)
   1167e:	48 8d 05 9f b9 00 00 	lea    0xb99f(%rip),%rax        # 1d024 <g_9>
   11685:	48 89 85 60 e4 ff ff 	mov    %rax,-0x1ba0(%rbp)
   1168c:	c7 85 c4 e3 ff ff 00 	movl   $0x0,-0x1c3c(%rbp)
   11693:	00 00 00 
   11696:	c6 85 a8 e3 ff ff 6d 	movb   $0x6d,-0x1c58(%rbp)
   1169d:	66 c7 85 b0 e3 ff ff 	movw   $0x7b6a,-0x1c50(%rbp)
   116a4:	6a 7b 
   116a6:	c7 85 fc e3 ff ff a0 	movl   $0xc8c7dfa0,-0x1c04(%rbp)
   116ad:	df c7 c8 
   116b0:	c7 85 60 e8 ff ff c3 	movl   $0xfcc2dbc3,-0x17a0(%rbp)
   116b7:	db c2 fc 
   116ba:	c7 85 64 e8 ff ff c3 	movl   $0xfcc2dbc3,-0x179c(%rbp)
   116c1:	db c2 fc 
   116c4:	c7 85 68 e8 ff ff c3 	movl   $0xfcc2dbc3,-0x1798(%rbp)
   116cb:	db c2 fc 
   116ce:	c7 85 6c e8 ff ff c3 	movl   $0xfcc2dbc3,-0x1794(%rbp)
   116d5:	db c2 fc 
   116d8:	c7 85 70 e8 ff ff c3 	movl   $0xfcc2dbc3,-0x1790(%rbp)
   116df:	db c2 fc 
   116e2:	c7 85 74 e8 ff ff c3 	movl   $0xfcc2dbc3,-0x178c(%rbp)
   116e9:	db c2 fc 
   116ec:	c7 85 78 e8 ff ff c3 	movl   $0xfcc2dbc3,-0x1788(%rbp)
   116f3:	db c2 fc 
   116f6:	48 c7 85 68 e4 ff ff 	movq   $0x0,-0x1b98(%rbp)
   116fd:	00 00 00 00 
   11701:	48 8d 85 68 e4 ff ff 	lea    -0x1b98(%rbp),%rax
   11708:	48 89 85 70 f0 ff ff 	mov    %rax,-0xf90(%rbp)
   1170f:	48 8d 85 68 e4 ff ff 	lea    -0x1b98(%rbp),%rax
   11716:	48 89 85 78 f0 ff ff 	mov    %rax,-0xf88(%rbp)
   1171d:	48 c7 85 80 f0 ff ff 	movq   $0x0,-0xf80(%rbp)
   11724:	00 00 00 00 
   11728:	48 8d 85 68 e4 ff ff 	lea    -0x1b98(%rbp),%rax
   1172f:	48 89 85 88 f0 ff ff 	mov    %rax,-0xf78(%rbp)
   11736:	48 c7 85 90 f0 ff ff 	movq   $0x0,-0xf70(%rbp)
   1173d:	00 00 00 00 
   11741:	48 c7 85 98 f0 ff ff 	movq   $0x0,-0xf68(%rbp)
   11748:	00 00 00 00 
   1174c:	48 8d 85 68 e4 ff ff 	lea    -0x1b98(%rbp),%rax
   11753:	48 89 85 a0 f0 ff ff 	mov    %rax,-0xf60(%rbp)
   1175a:	48 8d 85 68 e4 ff ff 	lea    -0x1b98(%rbp),%rax
   11761:	48 89 85 a8 f0 ff ff 	mov    %rax,-0xf58(%rbp)
   11768:	48 8d 85 68 e4 ff ff 	lea    -0x1b98(%rbp),%rax
   1176f:	48 89 85 b0 f0 ff ff 	mov    %rax,-0xf50(%rbp)
   11776:	48 8d 85 68 e4 ff ff 	lea    -0x1b98(%rbp),%rax
   1177d:	48 89 85 b8 f0 ff ff 	mov    %rax,-0xf48(%rbp)
   11784:	48 8d 85 68 e4 ff ff 	lea    -0x1b98(%rbp),%rax
   1178b:	48 89 85 c0 f0 ff ff 	mov    %rax,-0xf40(%rbp)
   11792:	48 8d 85 68 e4 ff ff 	lea    -0x1b98(%rbp),%rax
   11799:	48 89 85 c8 f0 ff ff 	mov    %rax,-0xf38(%rbp)
   117a0:	48 c7 85 d0 f0 ff ff 	movq   $0x0,-0xf30(%rbp)
   117a7:	00 00 00 00 
   117ab:	48 8d 85 68 e4 ff ff 	lea    -0x1b98(%rbp),%rax
   117b2:	48 89 85 d8 f0 ff ff 	mov    %rax,-0xf28(%rbp)
   117b9:	48 8d 85 68 e4 ff ff 	lea    -0x1b98(%rbp),%rax
   117c0:	48 89 85 e0 f0 ff ff 	mov    %rax,-0xf20(%rbp)
   117c7:	48 c7 85 e8 f0 ff ff 	movq   $0x0,-0xf18(%rbp)
   117ce:	00 00 00 00 
   117d2:	48 c7 85 f0 f0 ff ff 	movq   $0x0,-0xf10(%rbp)
   117d9:	00 00 00 00 
   117dd:	48 8d 85 68 e4 ff ff 	lea    -0x1b98(%rbp),%rax
   117e4:	48 89 85 f8 f0 ff ff 	mov    %rax,-0xf08(%rbp)
   117eb:	48 8d 85 68 e4 ff ff 	lea    -0x1b98(%rbp),%rax
   117f2:	48 89 85 00 f1 ff ff 	mov    %rax,-0xf00(%rbp)
   117f9:	48 c7 85 08 f1 ff ff 	movq   $0x0,-0xef8(%rbp)
   11800:	00 00 00 00 
   11804:	48 c7 85 10 f1 ff ff 	movq   $0x0,-0xef0(%rbp)
   1180b:	00 00 00 00 
   1180f:	48 8d 85 68 e4 ff ff 	lea    -0x1b98(%rbp),%rax
   11816:	48 89 85 18 f1 ff ff 	mov    %rax,-0xee8(%rbp)
   1181d:	48 8d 85 68 e4 ff ff 	lea    -0x1b98(%rbp),%rax
   11824:	48 89 85 20 f1 ff ff 	mov    %rax,-0xee0(%rbp)
   1182b:	48 8d 85 68 e4 ff ff 	lea    -0x1b98(%rbp),%rax
   11832:	48 89 85 28 f1 ff ff 	mov    %rax,-0xed8(%rbp)
   11839:	48 8d 85 68 e4 ff ff 	lea    -0x1b98(%rbp),%rax
   11840:	48 89 85 30 f1 ff ff 	mov    %rax,-0xed0(%rbp)
   11847:	48 8d 85 68 e4 ff ff 	lea    -0x1b98(%rbp),%rax
   1184e:	48 89 85 38 f1 ff ff 	mov    %rax,-0xec8(%rbp)
   11855:	48 8d 85 68 e4 ff ff 	lea    -0x1b98(%rbp),%rax
   1185c:	48 89 85 40 f1 ff ff 	mov    %rax,-0xec0(%rbp)
   11863:	48 c7 85 48 f1 ff ff 	movq   $0x0,-0xeb8(%rbp)
   1186a:	00 00 00 00 
   1186e:	48 8d 85 68 e4 ff ff 	lea    -0x1b98(%rbp),%rax
   11875:	48 89 85 50 f1 ff ff 	mov    %rax,-0xeb0(%rbp)
   1187c:	48 8d 85 68 e4 ff ff 	lea    -0x1b98(%rbp),%rax
   11883:	48 89 85 58 f1 ff ff 	mov    %rax,-0xea8(%rbp)
   1188a:	48 8d 85 68 e4 ff ff 	lea    -0x1b98(%rbp),%rax
   11891:	48 89 85 60 f1 ff ff 	mov    %rax,-0xea0(%rbp)
   11898:	48 8d 85 68 e4 ff ff 	lea    -0x1b98(%rbp),%rax
   1189f:	48 89 85 68 f1 ff ff 	mov    %rax,-0xe98(%rbp)
   118a6:	48 c7 85 70 f1 ff ff 	movq   $0x0,-0xe90(%rbp)
   118ad:	00 00 00 00 
   118b1:	48 8d 85 68 e4 ff ff 	lea    -0x1b98(%rbp),%rax
   118b8:	48 89 85 78 f1 ff ff 	mov    %rax,-0xe88(%rbp)
   118bf:	48 c7 85 80 f1 ff ff 	movq   $0x0,-0xe80(%rbp)
   118c6:	00 00 00 00 
   118ca:	48 8d 85 68 e4 ff ff 	lea    -0x1b98(%rbp),%rax
   118d1:	48 89 85 88 f1 ff ff 	mov    %rax,-0xe78(%rbp)
   118d8:	48 8d 85 68 e4 ff ff 	lea    -0x1b98(%rbp),%rax
   118df:	48 89 85 90 f1 ff ff 	mov    %rax,-0xe70(%rbp)
   118e6:	48 8d 85 68 e4 ff ff 	lea    -0x1b98(%rbp),%rax
   118ed:	48 89 85 98 f1 ff ff 	mov    %rax,-0xe68(%rbp)
   118f4:	48 8d 85 68 e4 ff ff 	lea    -0x1b98(%rbp),%rax
   118fb:	48 89 85 a0 f1 ff ff 	mov    %rax,-0xe60(%rbp)
   11902:	48 c7 85 a8 f1 ff ff 	movq   $0x0,-0xe58(%rbp)
   11909:	00 00 00 00 
   1190d:	48 8d 85 68 e4 ff ff 	lea    -0x1b98(%rbp),%rax
   11914:	48 89 85 b0 f1 ff ff 	mov    %rax,-0xe50(%rbp)
   1191b:	48 8d 85 68 e4 ff ff 	lea    -0x1b98(%rbp),%rax
   11922:	48 89 85 b8 f1 ff ff 	mov    %rax,-0xe48(%rbp)
   11929:	48 8d 85 68 e4 ff ff 	lea    -0x1b98(%rbp),%rax
   11930:	48 89 85 c0 f1 ff ff 	mov    %rax,-0xe40(%rbp)
   11937:	48 8d 85 68 e4 ff ff 	lea    -0x1b98(%rbp),%rax
   1193e:	48 89 85 c8 f1 ff ff 	mov    %rax,-0xe38(%rbp)
   11945:	48 c7 85 d0 f1 ff ff 	movq   $0x0,-0xe30(%rbp)
   1194c:	00 00 00 00 
   11950:	48 8d 85 68 e4 ff ff 	lea    -0x1b98(%rbp),%rax
   11957:	48 89 85 d8 f1 ff ff 	mov    %rax,-0xe28(%rbp)
   1195e:	48 c7 85 e0 f1 ff ff 	movq   $0x0,-0xe20(%rbp)
   11965:	00 00 00 00 
   11969:	48 c7 85 e8 f1 ff ff 	movq   $0x0,-0xe18(%rbp)
   11970:	00 00 00 00 
   11974:	48 8d 85 68 e4 ff ff 	lea    -0x1b98(%rbp),%rax
   1197b:	48 89 85 f0 f1 ff ff 	mov    %rax,-0xe10(%rbp)
   11982:	48 8d 85 68 e4 ff ff 	lea    -0x1b98(%rbp),%rax
   11989:	48 89 85 f8 f1 ff ff 	mov    %rax,-0xe08(%rbp)
   11990:	48 8d 85 68 e4 ff ff 	lea    -0x1b98(%rbp),%rax
   11997:	48 89 85 00 f2 ff ff 	mov    %rax,-0xe00(%rbp)
   1199e:	48 8d 85 68 e4 ff ff 	lea    -0x1b98(%rbp),%rax
   119a5:	48 89 85 08 f2 ff ff 	mov    %rax,-0xdf8(%rbp)
   119ac:	48 8d 85 68 e4 ff ff 	lea    -0x1b98(%rbp),%rax
   119b3:	48 89 85 10 f2 ff ff 	mov    %rax,-0xdf0(%rbp)
   119ba:	48 8d 85 68 e4 ff ff 	lea    -0x1b98(%rbp),%rax
   119c1:	48 89 85 18 f2 ff ff 	mov    %rax,-0xde8(%rbp)
   119c8:	48 c7 85 20 f2 ff ff 	movq   $0x0,-0xde0(%rbp)
   119cf:	00 00 00 00 
   119d3:	48 8d 85 68 e4 ff ff 	lea    -0x1b98(%rbp),%rax
   119da:	48 89 85 28 f2 ff ff 	mov    %rax,-0xdd8(%rbp)
   119e1:	48 8d 85 68 e4 ff ff 	lea    -0x1b98(%rbp),%rax
   119e8:	48 89 85 30 f2 ff ff 	mov    %rax,-0xdd0(%rbp)
   119ef:	48 c7 85 38 f2 ff ff 	movq   $0x0,-0xdc8(%rbp)
   119f6:	00 00 00 00 
   119fa:	48 c7 85 40 f2 ff ff 	movq   $0x0,-0xdc0(%rbp)
   11a01:	00 00 00 00 
   11a05:	48 8d 85 68 e4 ff ff 	lea    -0x1b98(%rbp),%rax
   11a0c:	48 89 85 48 f2 ff ff 	mov    %rax,-0xdb8(%rbp)
   11a13:	48 8d 85 68 e4 ff ff 	lea    -0x1b98(%rbp),%rax
   11a1a:	48 89 85 50 f2 ff ff 	mov    %rax,-0xdb0(%rbp)
   11a21:	48 c7 85 58 f2 ff ff 	movq   $0x0,-0xda8(%rbp)
   11a28:	00 00 00 00 
   11a2c:	48 c7 85 60 f2 ff ff 	movq   $0x0,-0xda0(%rbp)
   11a33:	00 00 00 00 
   11a37:	48 8d 85 68 e4 ff ff 	lea    -0x1b98(%rbp),%rax
   11a3e:	48 89 85 68 f2 ff ff 	mov    %rax,-0xd98(%rbp)
   11a45:	48 8d 85 68 e4 ff ff 	lea    -0x1b98(%rbp),%rax
   11a4c:	48 89 85 70 f2 ff ff 	mov    %rax,-0xd90(%rbp)
   11a53:	48 c7 85 78 f2 ff ff 	movq   $0x0,-0xd88(%rbp)
   11a5a:	00 00 00 00 
   11a5e:	48 8d 85 68 e4 ff ff 	lea    -0x1b98(%rbp),%rax
   11a65:	48 89 85 80 f2 ff ff 	mov    %rax,-0xd80(%rbp)
   11a6c:	48 8d 85 68 e4 ff ff 	lea    -0x1b98(%rbp),%rax
   11a73:	48 89 85 88 f2 ff ff 	mov    %rax,-0xd78(%rbp)
   11a7a:	48 8d 85 68 e4 ff ff 	lea    -0x1b98(%rbp),%rax
   11a81:	48 89 85 90 f2 ff ff 	mov    %rax,-0xd70(%rbp)
   11a88:	48 8d 85 68 e4 ff ff 	lea    -0x1b98(%rbp),%rax
   11a8f:	48 89 85 98 f2 ff ff 	mov    %rax,-0xd68(%rbp)
   11a96:	48 c7 85 a0 f2 ff ff 	movq   $0x0,-0xd60(%rbp)
   11a9d:	00 00 00 00 
   11aa1:	48 c7 85 a8 f2 ff ff 	movq   $0x0,-0xd58(%rbp)
   11aa8:	00 00 00 00 
   11aac:	48 8d 85 68 e4 ff ff 	lea    -0x1b98(%rbp),%rax
   11ab3:	48 89 85 b0 f2 ff ff 	mov    %rax,-0xd50(%rbp)
   11aba:	48 c7 85 b8 f2 ff ff 	movq   $0x0,-0xd48(%rbp)
   11ac1:	00 00 00 00 
   11ac5:	48 8d 85 68 e4 ff ff 	lea    -0x1b98(%rbp),%rax
   11acc:	48 89 85 c0 f2 ff ff 	mov    %rax,-0xd40(%rbp)
   11ad3:	48 8d 85 68 e4 ff ff 	lea    -0x1b98(%rbp),%rax
   11ada:	48 89 85 c8 f2 ff ff 	mov    %rax,-0xd38(%rbp)
   11ae1:	48 8d 85 68 e4 ff ff 	lea    -0x1b98(%rbp),%rax
   11ae8:	48 89 85 d0 f2 ff ff 	mov    %rax,-0xd30(%rbp)
   11aef:	48 8d 85 68 e4 ff ff 	lea    -0x1b98(%rbp),%rax
   11af6:	48 89 85 d8 f2 ff ff 	mov    %rax,-0xd28(%rbp)
   11afd:	48 c7 85 e0 f2 ff ff 	movq   $0x0,-0xd20(%rbp)
   11b04:	00 00 00 00 
   11b08:	48 c7 85 e8 f2 ff ff 	movq   $0x0,-0xd18(%rbp)
   11b0f:	00 00 00 00 
   11b13:	48 8d 85 68 e4 ff ff 	lea    -0x1b98(%rbp),%rax
   11b1a:	48 89 85 f0 f2 ff ff 	mov    %rax,-0xd10(%rbp)
   11b21:	48 8d 85 68 e4 ff ff 	lea    -0x1b98(%rbp),%rax
   11b28:	48 89 85 f8 f2 ff ff 	mov    %rax,-0xd08(%rbp)
   11b2f:	48 8d 85 68 e4 ff ff 	lea    -0x1b98(%rbp),%rax
   11b36:	48 89 85 00 f3 ff ff 	mov    %rax,-0xd00(%rbp)
   11b3d:	48 8d 85 68 e4 ff ff 	lea    -0x1b98(%rbp),%rax
   11b44:	48 89 85 08 f3 ff ff 	mov    %rax,-0xcf8(%rbp)
   11b4b:	48 8d 85 68 e4 ff ff 	lea    -0x1b98(%rbp),%rax
   11b52:	48 89 85 10 f3 ff ff 	mov    %rax,-0xcf0(%rbp)
   11b59:	48 c7 85 18 f3 ff ff 	movq   $0x0,-0xce8(%rbp)
   11b60:	00 00 00 00 
   11b64:	48 8d 85 68 e4 ff ff 	lea    -0x1b98(%rbp),%rax
   11b6b:	48 89 85 20 f3 ff ff 	mov    %rax,-0xce0(%rbp)
   11b72:	48 8d 85 68 e4 ff ff 	lea    -0x1b98(%rbp),%rax
   11b79:	48 89 85 28 f3 ff ff 	mov    %rax,-0xcd8(%rbp)
   11b80:	48 8d 85 68 e4 ff ff 	lea    -0x1b98(%rbp),%rax
   11b87:	48 89 85 30 f3 ff ff 	mov    %rax,-0xcd0(%rbp)
   11b8e:	48 8d 85 68 e4 ff ff 	lea    -0x1b98(%rbp),%rax
   11b95:	48 89 85 38 f3 ff ff 	mov    %rax,-0xcc8(%rbp)
   11b9c:	48 8d 85 68 e4 ff ff 	lea    -0x1b98(%rbp),%rax
   11ba3:	48 89 85 40 f3 ff ff 	mov    %rax,-0xcc0(%rbp)
   11baa:	48 8d 85 68 e4 ff ff 	lea    -0x1b98(%rbp),%rax
   11bb1:	48 89 85 48 f3 ff ff 	mov    %rax,-0xcb8(%rbp)
   11bb8:	48 8d 85 68 e4 ff ff 	lea    -0x1b98(%rbp),%rax
   11bbf:	48 89 85 50 f3 ff ff 	mov    %rax,-0xcb0(%rbp)
   11bc6:	48 c7 85 58 f3 ff ff 	movq   $0x0,-0xca8(%rbp)
   11bcd:	00 00 00 00 
   11bd1:	48 8d 85 68 e4 ff ff 	lea    -0x1b98(%rbp),%rax
   11bd8:	48 89 85 60 f3 ff ff 	mov    %rax,-0xca0(%rbp)
   11bdf:	48 8d 85 68 e4 ff ff 	lea    -0x1b98(%rbp),%rax
   11be6:	48 89 85 68 f3 ff ff 	mov    %rax,-0xc98(%rbp)
   11bed:	48 8d 85 68 e4 ff ff 	lea    -0x1b98(%rbp),%rax
   11bf4:	48 89 85 70 f3 ff ff 	mov    %rax,-0xc90(%rbp)
   11bfb:	48 8d 85 68 e4 ff ff 	lea    -0x1b98(%rbp),%rax
   11c02:	48 89 85 78 f3 ff ff 	mov    %rax,-0xc88(%rbp)
   11c09:	48 c7 85 80 f3 ff ff 	movq   $0x0,-0xc80(%rbp)
   11c10:	00 00 00 00 
   11c14:	48 8d 85 68 e4 ff ff 	lea    -0x1b98(%rbp),%rax
   11c1b:	48 89 85 88 f3 ff ff 	mov    %rax,-0xc78(%rbp)
   11c22:	48 8d 85 68 e4 ff ff 	lea    -0x1b98(%rbp),%rax
   11c29:	48 89 85 90 f3 ff ff 	mov    %rax,-0xc70(%rbp)
   11c30:	48 c7 85 98 f3 ff ff 	movq   $0x0,-0xc68(%rbp)
   11c37:	00 00 00 00 
   11c3b:	48 8d 85 68 e4 ff ff 	lea    -0x1b98(%rbp),%rax
   11c42:	48 89 85 a0 f3 ff ff 	mov    %rax,-0xc60(%rbp)
   11c49:	48 8d 85 68 e4 ff ff 	lea    -0x1b98(%rbp),%rax
   11c50:	48 89 85 a8 f3 ff ff 	mov    %rax,-0xc58(%rbp)
   11c57:	48 8d 85 68 e4 ff ff 	lea    -0x1b98(%rbp),%rax
   11c5e:	48 89 85 b0 f3 ff ff 	mov    %rax,-0xc50(%rbp)
   11c65:	48 8d 85 68 e4 ff ff 	lea    -0x1b98(%rbp),%rax
   11c6c:	48 89 85 b8 f3 ff ff 	mov    %rax,-0xc48(%rbp)
   11c73:	48 8d 85 68 e4 ff ff 	lea    -0x1b98(%rbp),%rax
   11c7a:	48 89 85 c0 f3 ff ff 	mov    %rax,-0xc40(%rbp)
   11c81:	48 c7 85 c8 f3 ff ff 	movq   $0x0,-0xc38(%rbp)
   11c88:	00 00 00 00 
   11c8c:	48 8d 85 68 e4 ff ff 	lea    -0x1b98(%rbp),%rax
   11c93:	48 89 85 d0 f3 ff ff 	mov    %rax,-0xc30(%rbp)
   11c9a:	48 8d 85 68 e4 ff ff 	lea    -0x1b98(%rbp),%rax
   11ca1:	48 89 85 d8 f3 ff ff 	mov    %rax,-0xc28(%rbp)
   11ca8:	48 8d 85 68 e4 ff ff 	lea    -0x1b98(%rbp),%rax
   11caf:	48 89 85 e0 f3 ff ff 	mov    %rax,-0xc20(%rbp)
   11cb6:	48 8d 85 68 e4 ff ff 	lea    -0x1b98(%rbp),%rax
   11cbd:	48 89 85 e8 f3 ff ff 	mov    %rax,-0xc18(%rbp)
   11cc4:	48 8d 05 c5 e9 00 00 	lea    0xe9c5(%rip),%rax        # 20690 <g_225>
   11ccb:	48 89 85 b8 e4 ff ff 	mov    %rax,-0x1b48(%rbp)
   11cd2:	48 c7 85 70 e4 ff ff 	movq   $0x0,-0x1b90(%rbp)
   11cd9:	00 00 00 00 
   11cdd:	48 8d 85 70 e4 ff ff 	lea    -0x1b90(%rbp),%rax
   11ce4:	48 89 85 c0 e4 ff ff 	mov    %rax,-0x1b40(%rbp)
   11ceb:	48 c7 85 78 e4 ff ff 	movq   $0x1,-0x1b88(%rbp)
   11cf2:	01 00 00 00 
   11cf6:	c7 85 00 e4 ff ff 7a 	movl   $0xf4ffe47a,-0x1c00(%rbp)
   11cfd:	e4 ff f4 
   11d00:	48 b8 6c 53 95 52 70 	movabs $0x7e0be1705295536c,%rax
   11d07:	e1 0b 7e 
   11d0a:	48 89 85 10 e9 ff ff 	mov    %rax,-0x16f0(%rbp)
   11d11:	48 c7 85 18 e9 ff ff 	movq   $0x1,-0x16e8(%rbp)
   11d18:	01 00 00 00 
   11d1c:	48 bb 57 98 30 11 10 	movabs $0x700d7f1011309857,%rbx
   11d23:	7f 0d 70 
   11d26:	48 89 9d 20 e9 ff ff 	mov    %rbx,-0x16e0(%rbp)
   11d2d:	48 89 9d 28 e9 ff ff 	mov    %rbx,-0x16d8(%rbp)
   11d34:	48 89 9d 30 e9 ff ff 	mov    %rbx,-0x16d0(%rbp)
   11d3b:	48 c7 85 38 e9 ff ff 	movq   $0x1,-0x16c8(%rbp)
   11d42:	01 00 00 00 
   11d46:	48 89 85 40 e9 ff ff 	mov    %rax,-0x16c0(%rbp)
   11d4d:	48 c7 85 48 e9 ff ff 	movq   $0x1,-0x16b8(%rbp)
   11d54:	01 00 00 00 
   11d58:	48 c7 85 50 e9 ff ff 	movq   $0x1,-0x16b0(%rbp)
   11d5f:	01 00 00 00 
   11d63:	48 c7 85 58 e9 ff ff 	movq   $0x1,-0x16a8(%rbp)
   11d6a:	01 00 00 00 
   11d6e:	48 89 85 60 e9 ff ff 	mov    %rax,-0x16a0(%rbp)
   11d75:	48 c7 85 68 e9 ff ff 	movq   $0x1,-0x1698(%rbp)
   11d7c:	01 00 00 00 
   11d80:	48 8d 05 b1 b2 00 00 	lea    0xb2b1(%rip),%rax        # 1d038 <g_53>
   11d87:	48 89 85 c8 e4 ff ff 	mov    %rax,-0x1b38(%rbp)
   11d8e:	48 b8 a7 07 44 a6 7a 	movabs $0x70f53e7aa64407a7,%rax
   11d95:	3e f5 70 
   11d98:	48 89 85 d0 e4 ff ff 	mov    %rax,-0x1b30(%rbp)
   11d9f:	c6 85 a9 e3 ff ff 05 	movb   $0x5,-0x1c57(%rbp)
   11da6:	c6 85 aa e3 ff ff ce 	movb   $0xce,-0x1c56(%rbp)
   11dad:	48 8d 05 6c e9 00 00 	lea    0xe96c(%rip),%rax        # 20720 <g_595>
   11db4:	48 89 85 80 e4 ff ff 	mov    %rax,-0x1b80(%rbp)
   11dbb:	48 8d 85 80 e4 ff ff 	lea    -0x1b80(%rbp),%rax
   11dc2:	48 89 85 d8 e4 ff ff 	mov    %rax,-0x1b28(%rbp)
   11dc9:	48 8d 05 f8 b2 00 00 	lea    0xb2f8(%rip),%rax        # 1d0c8 <g_204>
   11dd0:	48 89 85 a0 ea ff ff 	mov    %rax,-0x1560(%rbp)
   11dd7:	48 8d 05 ea b2 00 00 	lea    0xb2ea(%rip),%rax        # 1d0c8 <g_204>
   11dde:	48 89 85 a8 ea ff ff 	mov    %rax,-0x1558(%rbp)
   11de5:	48 c7 85 b0 ea ff ff 	movq   $0x0,-0x1550(%rbp)
   11dec:	00 00 00 00 
   11df0:	48 8d 05 d1 b2 00 00 	lea    0xb2d1(%rip),%rax        # 1d0c8 <g_204>
   11df7:	48 89 85 b8 ea ff ff 	mov    %rax,-0x1548(%rbp)
   11dfe:	48 8d 05 c3 b2 00 00 	lea    0xb2c3(%rip),%rax        # 1d0c8 <g_204>
   11e05:	48 89 85 c0 ea ff ff 	mov    %rax,-0x1540(%rbp)
   11e0c:	48 c7 85 c8 ea ff ff 	movq   $0x0,-0x1538(%rbp)
   11e13:	00 00 00 00 
   11e17:	48 8d 05 aa b2 00 00 	lea    0xb2aa(%rip),%rax        # 1d0c8 <g_204>
   11e1e:	48 89 85 d0 ea ff ff 	mov    %rax,-0x1530(%rbp)
   11e25:	48 8d 05 9c b2 00 00 	lea    0xb29c(%rip),%rax        # 1d0c8 <g_204>
   11e2c:	48 89 85 d8 ea ff ff 	mov    %rax,-0x1528(%rbp)
   11e33:	48 c7 85 e0 ea ff ff 	movq   $0x0,-0x1520(%rbp)
   11e3a:	00 00 00 00 
   11e3e:	48 8d 05 83 b2 00 00 	lea    0xb283(%rip),%rax        # 1d0c8 <g_204>
   11e45:	48 89 85 e8 ea ff ff 	mov    %rax,-0x1518(%rbp)
   11e4c:	48 8d 05 75 b2 00 00 	lea    0xb275(%rip),%rax        # 1d0c8 <g_204>
   11e53:	48 89 85 f0 ea ff ff 	mov    %rax,-0x1510(%rbp)
   11e5a:	48 c7 85 f8 ea ff ff 	movq   $0x0,-0x1508(%rbp)
   11e61:	00 00 00 00 
   11e65:	48 8d 05 5c b2 00 00 	lea    0xb25c(%rip),%rax        # 1d0c8 <g_204>
   11e6c:	48 89 85 00 eb ff ff 	mov    %rax,-0x1500(%rbp)
   11e73:	48 8d 05 4e b2 00 00 	lea    0xb24e(%rip),%rax        # 1d0c8 <g_204>
   11e7a:	48 89 85 08 eb ff ff 	mov    %rax,-0x14f8(%rbp)
   11e81:	48 c7 85 10 eb ff ff 	movq   $0x0,-0x14f0(%rbp)
   11e88:	00 00 00 00 
   11e8c:	48 8d 05 35 b2 00 00 	lea    0xb235(%rip),%rax        # 1d0c8 <g_204>
   11e93:	48 89 85 18 eb ff ff 	mov    %rax,-0x14e8(%rbp)
   11e9a:	48 8d 05 27 b2 00 00 	lea    0xb227(%rip),%rax        # 1d0c8 <g_204>
   11ea1:	48 89 85 20 eb ff ff 	mov    %rax,-0x14e0(%rbp)
   11ea8:	48 c7 85 28 eb ff ff 	movq   $0x0,-0x14d8(%rbp)
   11eaf:	00 00 00 00 
   11eb3:	48 8d 05 0e b2 00 00 	lea    0xb20e(%rip),%rax        # 1d0c8 <g_204>
   11eba:	48 89 85 30 eb ff ff 	mov    %rax,-0x14d0(%rbp)
   11ec1:	48 8d 05 00 b2 00 00 	lea    0xb200(%rip),%rax        # 1d0c8 <g_204>
   11ec8:	48 89 85 38 eb ff ff 	mov    %rax,-0x14c8(%rbp)
   11ecf:	48 c7 85 40 eb ff ff 	movq   $0x0,-0x14c0(%rbp)
   11ed6:	00 00 00 00 
   11eda:	48 8d 05 e7 b1 00 00 	lea    0xb1e7(%rip),%rax        # 1d0c8 <g_204>
   11ee1:	48 89 85 48 eb ff ff 	mov    %rax,-0x14b8(%rbp)
   11ee8:	48 8d 05 d9 b1 00 00 	lea    0xb1d9(%rip),%rax        # 1d0c8 <g_204>
   11eef:	48 89 85 50 eb ff ff 	mov    %rax,-0x14b0(%rbp)
   11ef6:	48 c7 85 58 eb ff ff 	movq   $0x0,-0x14a8(%rbp)
   11efd:	00 00 00 00 
   11f01:	48 8d 85 78 e4 ff ff 	lea    -0x1b88(%rbp),%rax
   11f08:	48 89 85 e0 e4 ff ff 	mov    %rax,-0x1b20(%rbp)
   11f0f:	c7 85 04 e4 ff ff fa 	movl   $0xfffffffa,-0x1bfc(%rbp)
   11f16:	ff ff ff 
   11f19:	c7 85 08 e4 ff ff 01 	movl   $0x1,-0x1bf8(%rbp)
   11f20:	00 00 00 
   11f23:	c7 85 a0 e8 ff ff f9 	movl   $0xfffffff9,-0x1760(%rbp)
   11f2a:	ff ff ff 
   11f2d:	c7 85 a4 e8 ff ff f9 	movl   $0xfffffff9,-0x175c(%rbp)
   11f34:	ff ff ff 
   11f37:	c7 85 a8 e8 ff ff 02 	movl   $0x2,-0x1758(%rbp)
   11f3e:	00 00 00 
   11f41:	c7 85 ac e8 ff ff f9 	movl   $0xfffffff9,-0x1754(%rbp)
   11f48:	ff ff ff 
   11f4b:	c7 85 b0 e8 ff ff f9 	movl   $0xfffffff9,-0x1750(%rbp)
   11f52:	ff ff ff 
   11f55:	c7 85 b4 e8 ff ff 02 	movl   $0x2,-0x174c(%rbp)
   11f5c:	00 00 00 
   11f5f:	c7 85 b8 e8 ff ff f9 	movl   $0xfffffff9,-0x1748(%rbp)
   11f66:	ff ff ff 
   11f69:	c7 85 bc e8 ff ff f9 	movl   $0xfffffff9,-0x1744(%rbp)
   11f70:	ff ff ff 
   11f73:	c7 85 c0 e8 ff ff 02 	movl   $0x2,-0x1740(%rbp)
   11f7a:	00 00 00 
   11f7d:	c7 85 c4 e8 ff ff f9 	movl   $0xfffffff9,-0x173c(%rbp)
   11f84:	ff ff ff 
   11f87:	c7 85 c8 e8 ff ff f9 	movl   $0xfffffff9,-0x1738(%rbp)
   11f8e:	ff ff ff 
   11f91:	c7 85 cc e8 ff ff 02 	movl   $0x2,-0x1734(%rbp)
   11f98:	00 00 00 
   11f9b:	c7 85 0c e4 ff ff 00 	movl   $0x0,-0x1bf4(%rbp)
   11fa2:	00 00 00 
   11fa5:	48 8d 85 60 e4 ff ff 	lea    -0x1ba0(%rbp),%rax
   11fac:	48 89 85 88 e4 ff ff 	mov    %rax,-0x1b78(%rbp)
   11fb3:	c7 85 10 e4 ff ff 01 	movl   $0x1,-0x1bf0(%rbp)
   11fba:	00 00 00 
   11fbd:	48 8d 05 0c e5 00 00 	lea    0xe50c(%rip),%rax        # 204d0 <g_113+0x110>
   11fc4:	48 89 85 e8 e4 ff ff 	mov    %rax,-0x1b18(%rbp)
   11fcb:	c7 85 f0 e3 ff ff 00 	movl   $0x0,-0x1c10(%rbp)
   11fd2:	00 00 00 
   11fd5:	eb 1a                	jmp    11ff1 <func_39+0x9f5>
   11fd7:	8b 85 f0 e3 ff ff    	mov    -0x1c10(%rbp),%eax
   11fdd:	48 98                	cltq   
   11fdf:	c7 84 85 1c e8 ff ff 	movl   $0x9a56a521,-0x17e4(%rbp,%rax,4)
   11fe6:	21 a5 56 9a 
   11fea:	83 85 f0 e3 ff ff 01 	addl   $0x1,-0x1c10(%rbp)
   11ff1:	83 bd f0 e3 ff ff 00 	cmpl   $0x0,-0x1c10(%rbp)
   11ff8:	7e dd                	jle    11fd7 <func_39+0x9db>
   11ffa:	c7 85 f0 e3 ff ff 00 	movl   $0x0,-0x1c10(%rbp)
   12001:	00 00 00 
   12004:	eb 46                	jmp    1204c <func_39+0xa50>
   12006:	c7 85 f4 e3 ff ff 00 	movl   $0x0,-0x1c0c(%rbp)
   1200d:	00 00 00 
   12010:	eb 2a                	jmp    1203c <func_39+0xa40>
   12012:	8b 85 f4 e3 ff ff    	mov    -0x1c0c(%rbp),%eax
   12018:	48 63 d0             	movslq %eax,%rdx
   1201b:	8b 85 f0 e3 ff ff    	mov    -0x1c10(%rbp),%eax
   12021:	48 98                	cltq   
   12023:	48 01 c2             	add    %rax,%rdx
   12026:	48 8d 85 88 e4 ff ff 	lea    -0x1b78(%rbp),%rax
   1202d:	48 89 84 d5 20 e8 ff 	mov    %rax,-0x17e0(%rbp,%rdx,8)
   12034:	ff 
   12035:	83 85 f4 e3 ff ff 01 	addl   $0x1,-0x1c0c(%rbp)
   1203c:	83 bd f4 e3 ff ff 00 	cmpl   $0x0,-0x1c0c(%rbp)
   12043:	7e cd                	jle    12012 <func_39+0xa16>
   12045:	83 85 f0 e3 ff ff 01 	addl   $0x1,-0x1c10(%rbp)
   1204c:	83 bd f0 e3 ff ff 02 	cmpl   $0x2,-0x1c10(%rbp)
   12053:	7e b1                	jle    12006 <func_39+0xa0a>
   12055:	48 8b 05 44 e3 00 00 	mov    0xe344(%rip),%rax        # 203a0 <g_34>
   1205c:	8b 00                	mov    (%rax),%eax
   1205e:	85 c0                	test   %eax,%eax
   12060:	0f 84 04 04 00 00    	je     1246a <func_39+0xe6e>
   12066:	48 8d 85 58 e4 ff ff 	lea    -0x1ba8(%rbp),%rax
   1206d:	48 89 85 58 e7 ff ff 	mov    %rax,-0x18a8(%rbp)
   12074:	48 8d 05 0d b0 00 00 	lea    0xb00d(%rip),%rax        # 1d088 <g_106>
   1207b:	48 89 85 60 e7 ff ff 	mov    %rax,-0x18a0(%rbp)
   12082:	c7 85 f8 e3 ff ff 00 	movl   $0x0,-0x1c08(%rbp)
   12089:	00 00 00 
   1208c:	eb 1e                	jmp    120ac <func_39+0xab0>
   1208e:	8b 85 f8 e3 ff ff    	mov    -0x1c08(%rbp),%eax
   12094:	48 98                	cltq   
   12096:	48 8d 15 8b af 00 00 	lea    0xaf8b(%rip),%rdx        # 1d028 <g_32>
   1209d:	48 89 94 c5 40 ee ff 	mov    %rdx,-0x11c0(%rbp,%rax,8)
   120a4:	ff 
   120a5:	83 85 f8 e3 ff ff 01 	addl   $0x1,-0x1c08(%rbp)
   120ac:	83 bd f8 e3 ff ff 00 	cmpl   $0x0,-0x1c08(%rbp)
   120b3:	7e d9                	jle    1208e <func_39+0xa92>
   120b5:	48 8b 05 e4 af 00 00 	mov    0xafe4(%rip),%rax        # 1d0a0 <g_117>
   120bc:	48 8b 8d 40 ee ff ff 	mov    -0x11c0(%rbp),%rcx
   120c3:	48 8b 95 58 e4 ff ff 	mov    -0x1ba8(%rbp),%rdx
   120ca:	48 8b 85 58 e7 ff ff 	mov    -0x18a8(%rbp),%rax
   120d1:	48 89 10             	mov    %rdx,(%rax)
   120d4:	48 8b 85 58 e7 ff ff 	mov    -0x18a8(%rbp),%rax
   120db:	48 8b 00             	mov    (%rax),%rax
   120de:	48 89 85 08 ee ff ff 	mov    %rax,-0x11f8(%rbp)
   120e5:	48 8b 85 08 ee ff ff 	mov    -0x11f8(%rbp),%rax
   120ec:	48 39 c1             	cmp    %rax,%rcx
   120ef:	0f 95 c0             	setne  %al
   120f2:	0f b6 d0             	movzbl %al,%edx
   120f5:	48 8b 85 60 e7 ff ff 	mov    -0x18a0(%rbp),%rax
   120fc:	8b 00                	mov    (%rax),%eax
   120fe:	09 c2                	or     %eax,%edx
   12100:	48 8b 85 60 e7 ff ff 	mov    -0x18a0(%rbp),%rax
   12107:	89 10                	mov    %edx,(%rax)
   12109:	48 8b 85 58 e7 ff ff 	mov    -0x18a8(%rbp),%rax
   12110:	48 89 05 b1 ef 00 00 	mov    %rax,0xefb1(%rip)        # 210c8 <g_122>
   12117:	c7 05 67 af 00 00 00 	movl   $0x0,0xaf67(%rip)        # 1d088 <g_106>
   1211e:	00 00 00 
   12121:	e9 31 03 00 00       	jmpq   12457 <func_39+0xe5b>
   12126:	c7 85 44 e4 ff ff 5f 	movl   $0x7241c05f,-0x1bbc(%rbp)
   1212d:	c0 41 72 
   12130:	c6 85 ad e3 ff ff 05 	movb   $0x5,-0x1c53(%rbp)
   12137:	c7 85 48 e4 ff ff 03 	movl   $0x3,-0x1bb8(%rbp)
   1213e:	00 00 00 
   12141:	c6 85 9c e3 ff ff 00 	movb   $0x0,-0x1c64(%rbp)
   12148:	90                   	nop
   12149:	0f b6 85 9c e3 ff ff 	movzbl -0x1c64(%rbp),%eax
   12150:	84 c0                	test   %al,%al
   12152:	0f 88 f0 02 00 00    	js     12448 <func_39+0xe4c>
   12158:	c7 85 f0 f3 ff ff 6b 	movl   $0x31b4bd6b,-0xc10(%rbp)
   1215f:	bd b4 31 
   12162:	c7 85 f4 f3 ff ff 01 	movl   $0x1,-0xc0c(%rbp)
   12169:	00 00 00 
   1216c:	c7 85 f8 f3 ff ff 6b 	movl   $0x31b4bd6b,-0xc08(%rbp)
   12173:	bd b4 31 
   12176:	c7 85 fc f3 ff ff 42 	movl   $0xeda81942,-0xc04(%rbp)
   1217d:	19 a8 ed 
   12180:	c7 85 00 f4 ff ff 25 	movl   $0xf1637f25,-0xc00(%rbp)
   12187:	7f 63 f1 
   1218a:	c7 85 04 f4 ff ff f6 	movl   $0xfffffff6,-0xbfc(%rbp)
   12191:	ff ff ff 
   12194:	c7 85 08 f4 ff ff 05 	movl   $0x5,-0xbf8(%rbp)
   1219b:	00 00 00 
   1219e:	c7 85 0c f4 ff ff 05 	movl   $0x5,-0xbf4(%rbp)
   121a5:	00 00 00 
   121a8:	c7 85 10 f4 ff ff f6 	movl   $0xfffffff6,-0xbf0(%rbp)
   121af:	ff ff ff 
   121b2:	c7 85 14 f4 ff ff 25 	movl   $0xf1637f25,-0xbec(%rbp)
   121b9:	7f 63 f1 
   121bc:	c7 85 18 f4 ff ff 42 	movl   $0xeda81942,-0xbe8(%rbp)
   121c3:	19 a8 ed 
   121c6:	c7 85 1c f4 ff ff 6b 	movl   $0x31b4bd6b,-0xbe4(%rbp)
   121cd:	bd b4 31 
   121d0:	c7 85 20 f4 ff ff 01 	movl   $0x1,-0xbe0(%rbp)
   121d7:	00 00 00 
   121da:	c7 85 24 f4 ff ff 6b 	movl   $0x31b4bd6b,-0xbdc(%rbp)
   121e1:	bd b4 31 
   121e4:	c7 85 28 f4 ff ff 42 	movl   $0xeda81942,-0xbd8(%rbp)
   121eb:	19 a8 ed 
   121ee:	c7 85 2c f4 ff ff 25 	movl   $0xf1637f25,-0xbd4(%rbp)
   121f5:	7f 63 f1 
   121f8:	c7 85 30 f4 ff ff f6 	movl   $0xfffffff6,-0xbd0(%rbp)
   121ff:	ff ff ff 
   12202:	c7 85 34 f4 ff ff 05 	movl   $0x5,-0xbcc(%rbp)
   12209:	00 00 00 
   1220c:	c7 85 38 f4 ff ff 05 	movl   $0x5,-0xbc8(%rbp)
   12213:	00 00 00 
   12216:	c7 85 3c f4 ff ff f6 	movl   $0xfffffff6,-0xbc4(%rbp)
   1221d:	ff ff ff 
   12220:	c7 85 40 f4 ff ff 25 	movl   $0xf1637f25,-0xbc0(%rbp)
   12227:	7f 63 f1 
   1222a:	c7 85 44 f4 ff ff 42 	movl   $0xeda81942,-0xbbc(%rbp)
   12231:	19 a8 ed 
   12234:	c7 85 48 f4 ff ff 6b 	movl   $0x31b4bd6b,-0xbb8(%rbp)
   1223b:	bd b4 31 
   1223e:	c7 85 4c f4 ff ff 01 	movl   $0x1,-0xbb4(%rbp)
   12245:	00 00 00 
   12248:	c7 85 50 f4 ff ff 6b 	movl   $0x31b4bd6b,-0xbb0(%rbp)
   1224f:	bd b4 31 
   12252:	c7 85 54 f4 ff ff 42 	movl   $0xeda81942,-0xbac(%rbp)
   12259:	19 a8 ed 
   1225c:	c7 85 58 f4 ff ff 25 	movl   $0xf1637f25,-0xba8(%rbp)
   12263:	7f 63 f1 
   12266:	c7 85 5c f4 ff ff f6 	movl   $0xfffffff6,-0xba4(%rbp)
   1226d:	ff ff ff 
   12270:	c6 85 ae e3 ff ff ff 	movb   $0xff,-0x1c52(%rbp)
   12277:	48 8d 05 12 ae 00 00 	lea    0xae12(%rip),%rax        # 1d090 <g_112>
   1227e:	48 89 85 68 e7 ff ff 	mov    %rax,-0x1898(%rbp)
   12285:	48 8d 85 e0 f7 ff ff 	lea    -0x820(%rbp),%rax
   1228c:	48 8d 15 ed c9 00 00 	lea    0xc9ed(%rip),%rdx        # 1ec80 <g_1942+0x1a70>
   12293:	b9 fc 00 00 00       	mov    $0xfc,%ecx
   12298:	48 89 c7             	mov    %rax,%rdi
   1229b:	48 89 d6             	mov    %rdx,%rsi
   1229e:	f3 48 a5             	rep movsq %ds:(%rsi),%es:(%rdi)
   122a1:	c7 85 4c e4 ff ff fa 	movl   $0xddd0ebfa,-0x1bb4(%rbp)
   122a8:	eb d0 dd 
   122ab:	48 8d 05 f6 ad 00 00 	lea    0xadf6(%rip),%rax        # 1d0a8 <g_157>
   122b2:	48 89 85 70 e7 ff ff 	mov    %rax,-0x1890(%rbp)
   122b9:	0f b7 05 88 ad 00 00 	movzwl 0xad88(%rip),%eax        # 1d048 <g_82>
   122c0:	0f bf d8             	movswl %ax,%ebx
   122c3:	4c 8b 25 76 ad 00 00 	mov    0xad76(%rip),%r12        # 1d040 <g_80>
   122ca:	0f b6 85 a7 e3 ff ff 	movzbl -0x1c59(%rbp),%eax
   122d1:	4c 0f be e8          	movsbq %al,%r13
   122d5:	8b 85 34 f4 ff ff    	mov    -0xbcc(%rbp),%eax
   122db:	85 c0                	test   %eax,%eax
   122dd:	0f 85 d3 00 00 00    	jne    123b6 <func_39+0xdba>
   122e3:	0f b6 85 a7 e3 ff ff 	movzbl -0x1c59(%rbp),%eax
   122ea:	44 0f b6 f0          	movzbl %al,%r14d
   122ee:	44 0f b6 bd ad e3 ff 	movzbl -0x1c53(%rbp),%r15d
   122f5:	ff 
   122f6:	48 8b 85 60 e7 ff ff 	mov    -0x18a0(%rbp),%rax
   122fd:	8b 00                	mov    (%rax),%eax
   122ff:	48 98                	cltq   
   12301:	48 89 85 80 e3 ff ff 	mov    %rax,-0x1c80(%rbp)
   12308:	80 bd 98 e3 ff ff 00 	cmpb   $0x0,-0x1c68(%rbp)
   1230f:	75 09                	jne    1231a <func_39+0xd1e>
   12311:	80 bd ae e3 ff ff 00 	cmpb   $0x0,-0x1c52(%rbp)
   12318:	74 07                	je     12321 <func_39+0xd25>
   1231a:	b8 01 00 00 00       	mov    $0x1,%eax
   1231f:	eb 05                	jmp    12326 <func_39+0xd2a>
   12321:	b8 00 00 00 00       	mov    $0x0,%eax
   12326:	0f b7 c0             	movzwl %ax,%eax
   12329:	8b 95 44 e4 ff ff    	mov    -0x1bbc(%rbp),%edx
   1232f:	89 d6                	mov    %edx,%esi
   12331:	89 c7                	mov    %eax,%edi
   12333:	e8 ce 9a ff ff       	callq  be06 <safe_lshift_func_uint16_t_u_u>
   12338:	48 8b 85 68 e7 ff ff 	mov    -0x1898(%rbp),%rax
   1233f:	48 c7 00 00 00 00 00 	movq   $0x0,(%rax)
   12346:	48 8b 85 68 e7 ff ff 	mov    -0x1898(%rbp),%rax
   1234d:	48 8b 00             	mov    (%rax),%rax
   12350:	48 8b b5 80 e3 ff ff 	mov    -0x1c80(%rbp),%rsi
   12357:	48 89 c7             	mov    %rax,%rdi
   1235a:	e8 98 96 ff ff       	callq  b9f7 <safe_div_func_int64_t_s_s>
   1235f:	48 85 c0             	test   %rax,%rax
   12362:	0f 95 c0             	setne  %al
   12365:	0f b6 c0             	movzbl %al,%eax
   12368:	44 89 fe             	mov    %r15d,%esi
   1236b:	89 c7                	mov    %eax,%edi
   1236d:	e8 06 98 ff ff       	callq  bb78 <safe_sub_func_uint8_t_u_u>
   12372:	0f b6 d0             	movzbl %al,%edx
   12375:	48 8b 85 88 e3 ff ff 	mov    -0x1c78(%rbp),%rax
   1237c:	0f b6 00             	movzbl (%rax),%eax
   1237f:	66 98                	cbtw   
   12381:	09 d0                	or     %edx,%eax
   12383:	98                   	cwtl   
   12384:	be 05 00 00 00       	mov    $0x5,%esi
   12389:	89 c7                	mov    %eax,%edi
   1238b:	e8 86 90 ff ff       	callq  b416 <safe_mod_func_int16_t_s_s>
   12390:	98                   	cwtl   
   12391:	89 85 48 e4 ff ff    	mov    %eax,-0x1bb8(%rbp)
   12397:	48 8b 85 60 e7 ff ff 	mov    -0x18a0(%rbp),%rax
   1239e:	8b 00                	mov    (%rax),%eax
   123a0:	39 85 48 e4 ff ff    	cmp    %eax,-0x1bb8(%rbp)
   123a6:	0f 95 c0             	setne  %al
   123a9:	0f b6 c0             	movzbl %al,%eax
   123ac:	44 89 f6             	mov    %r14d,%esi
   123af:	89 c7                	mov    %eax,%edi
   123b1:	e8 25 98 ff ff       	callq  bbdb <safe_div_func_uint8_t_u_u>
   123b6:	b8 01 00 00 00       	mov    $0x1,%eax
   123bb:	48 98                	cltq   
   123bd:	4c 89 ee             	mov    %r13,%rsi
   123c0:	48 89 c7             	mov    %rax,%rdi
   123c3:	e8 66 9c ff ff       	callq  c02e <safe_add_func_uint64_t_u_u>
   123c8:	0f b6 15 b1 ac 00 00 	movzbl 0xacb1(%rip),%edx        # 1d080 <g_95+0x20>
   123cf:	0f b6 d2             	movzbl %dl,%edx
   123d2:	48 39 d0             	cmp    %rdx,%rax
   123d5:	0f 94 c0             	sete   %al
   123d8:	0f b6 d0             	movzbl %al,%edx
   123db:	0f b6 85 98 e3 ff ff 	movzbl -0x1c68(%rbp),%eax
   123e2:	89 d6                	mov    %edx,%esi
   123e4:	89 c7                	mov    %eax,%edi
   123e6:	e8 0a 90 ff ff       	callq  b3f5 <safe_mul_func_int16_t_s_s>
   123eb:	98                   	cwtl   
   123ec:	89 c7                	mov    %eax,%edi
   123ee:	e8 a3 91 ff ff       	callq  b596 <safe_unary_minus_func_int32_t_s>
   123f3:	31 85 4c e4 ff ff    	xor    %eax,-0x1bb4(%rbp)
   123f9:	8b 85 4c e4 ff ff    	mov    -0x1bb4(%rbp),%eax
   123ff:	48 98                	cltq   
   12401:	4c 89 e6             	mov    %r12,%rsi
   12404:	48 89 c7             	mov    %rax,%rdi
   12407:	e8 74 9c ff ff       	callq  c080 <safe_mod_func_uint64_t_u_u>
   1240c:	83 f0 01             	xor    $0x1,%eax
   1240f:	be 00 00 00 00       	mov    $0x0,%esi
   12414:	89 c7                	mov    %eax,%edi
   12416:	e8 ea 91 ff ff       	callq  b605 <safe_sub_func_int32_t_s_s>
   1241b:	89 de                	mov    %ebx,%esi
   1241d:	bf 01 00 00 00       	mov    $0x1,%edi
   12422:	e8 03 91 ff ff       	callq  b52a <safe_rshift_func_int16_t_s_s>
   12427:	48 8b 95 70 e7 ff ff 	mov    -0x1890(%rbp),%rdx
   1242e:	8b 12                	mov    (%rdx),%edx
   12430:	98                   	cwtl   
   12431:	09 c2                	or     %eax,%edx
   12433:	48 8b 85 70 e7 ff ff 	mov    -0x1890(%rbp),%rax
   1243a:	89 10                	mov    %edx,(%rax)
   1243c:	48 8b 85 60 e4 ff ff 	mov    -0x1ba0(%rbp),%rax
   12443:	e9 4e 4c 00 00       	jmpq   17096 <func_39+0x5a9a>
   12448:	8b 05 3a ac 00 00    	mov    0xac3a(%rip),%eax        # 1d088 <g_106>
   1244e:	83 e8 01             	sub    $0x1,%eax
   12451:	89 05 31 ac 00 00    	mov    %eax,0xac31(%rip)        # 1d088 <g_106>
   12457:	8b 05 2b ac 00 00    	mov    0xac2b(%rip),%eax        # 1d088 <g_106>
   1245d:	85 c0                	test   %eax,%eax
   1245f:	0f 89 c1 fc ff ff    	jns    12126 <func_39+0xb2a>
   12465:	e9 a2 45 00 00       	jmpq   16a0c <func_39+0x5410>
   1246a:	48 8d 05 df ab 00 00 	lea    0xabdf(%rip),%rax        # 1d050 <g_92>
   12471:	48 89 85 f0 e4 ff ff 	mov    %rax,-0x1b10(%rbp)
   12478:	48 c7 85 f8 e4 ff ff 	movq   $0x0,-0x1b08(%rbp)
   1247f:	00 00 00 00 
   12483:	48 8d 85 68 e4 ff ff 	lea    -0x1b98(%rbp),%rax
   1248a:	48 89 85 00 e5 ff ff 	mov    %rax,-0x1b00(%rbp)
   12491:	c7 85 c8 e3 ff ff 00 	movl   $0x0,-0x1c38(%rbp)
   12498:	00 00 00 
   1249b:	48 8d 05 ee e1 00 00 	lea    0xe1ee(%rip),%rax        # 20690 <g_225>
   124a2:	48 89 85 08 e5 ff ff 	mov    %rax,-0x1af8(%rbp)
   124a9:	48 8d 05 28 ac 00 00 	lea    0xac28(%rip),%rax        # 1d0d8 <g_220>
   124b0:	48 89 85 b0 e4 ff ff 	mov    %rax,-0x1b50(%rbp)
   124b7:	48 8d 85 f0 f3 ff ff 	lea    -0xc10(%rbp),%rax
   124be:	48 8d 15 9b cf 00 00 	lea    0xcf9b(%rip),%rdx        # 1f460 <g_1942+0x2250>
   124c5:	b9 50 00 00 00       	mov    $0x50,%ecx
   124ca:	48 89 c7             	mov    %rax,%rdi
   124cd:	48 89 d6             	mov    %rdx,%rsi
   124d0:	f3 48 a5             	rep movsq %ds:(%rsi),%es:(%rdi)
   124d3:	c7 85 d0 e3 ff ff 00 	movl   $0x0,-0x1c30(%rbp)
   124da:	00 00 00 
   124dd:	eb 1a                	jmp    124f9 <func_39+0xefd>
   124df:	8b 85 d0 e3 ff ff    	mov    -0x1c30(%rbp),%eax
   124e5:	48 98                	cltq   
   124e7:	c7 84 85 80 e8 ff ff 	movl   $0x0,-0x1780(%rbp,%rax,4)
   124ee:	00 00 00 00 
   124f2:	83 85 d0 e3 ff ff 01 	addl   $0x1,-0x1c30(%rbp)
   124f9:	83 bd d0 e3 ff ff 07 	cmpl   $0x7,-0x1c30(%rbp)
   12500:	7e dd                	jle    124df <func_39+0xee3>
   12502:	c6 85 98 e3 ff ff f6 	movb   $0xf6,-0x1c68(%rbp)
   12509:	e9 21 01 00 00       	jmpq   1262f <func_39+0x1033>
   1250e:	c6 85 ab e3 ff ff 04 	movb   $0x4,-0x1c55(%rbp)
   12515:	48 8d 05 18 ab 00 00 	lea    0xab18(%rip),%rax        # 1d034 <g_38>
   1251c:	48 89 85 10 e5 ff ff 	mov    %rax,-0x1af0(%rbp)
   12523:	48 8b 05 7e de 00 00 	mov    0xde7e(%rip),%rax        # 203a8 <g_33>
   1252a:	48 8b 00             	mov    (%rax),%rax
   1252d:	8b 00                	mov    (%rax),%eax
   1252f:	41 89 c4             	mov    %eax,%r12d
   12532:	0f b7 05 ff aa 00 00 	movzwl 0xaaff(%rip),%eax        # 1d038 <g_53>
   12539:	0f b6 d8             	movzbl %al,%ebx
   1253c:	48 8d 05 f1 aa 00 00 	lea    0xaaf1(%rip),%rax        # 1d034 <g_38>
   12543:	48 39 85 10 e5 ff ff 	cmp    %rax,-0x1af0(%rbp)
   1254a:	0f 95 c0             	setne  %al
   1254d:	0f b6 d0             	movzbl %al,%edx
   12550:	0f b6 85 ab e3 ff ff 	movzbl -0x1c55(%rbp),%eax
   12557:	0f be c0             	movsbl %al,%eax
   1255a:	89 d6                	mov    %edx,%esi
   1255c:	89 c7                	mov    %eax,%edi
   1255e:	e8 d2 8d ff ff       	callq  b335 <safe_rshift_func_int8_t_s_s>
   12563:	0f be c0             	movsbl %al,%eax
   12566:	8b 95 80 e8 ff ff    	mov    -0x1780(%rbp),%edx
   1256c:	31 d0                	xor    %edx,%eax
   1256e:	35 9c 0a 31 be       	xor    $0xbe310a9c,%eax
   12573:	be d8 59 d8 97       	mov    $0x97d859d8,%esi
   12578:	89 c7                	mov    %eax,%edi
   1257a:	e8 51 99 ff ff       	callq  bed0 <safe_sub_func_uint32_t_u_u>
   1257f:	83 f8 36             	cmp    $0x36,%eax
   12582:	0f 96 c0             	setbe  %al
   12585:	0f b6 c0             	movzbl %al,%eax
   12588:	be 06 00 00 00       	mov    $0x6,%esi
   1258d:	89 c7                	mov    %eax,%edi
   1258f:	e8 2a 98 ff ff       	callq  bdbe <safe_lshift_func_uint16_t_u_s>
   12594:	0f b6 05 b5 aa 00 00 	movzbl 0xaab5(%rip),%eax        # 1d050 <g_92>
   1259b:	0f b6 c0             	movzbl %al,%eax
   1259e:	89 de                	mov    %ebx,%esi
   125a0:	89 c7                	mov    %eax,%edi
   125a2:	e8 ec 95 ff ff       	callq  bb93 <safe_mul_func_uint8_t_u_u>
   125a7:	44 31 e0             	xor    %r12d,%eax
   125aa:	0f be d0             	movsbl %al,%edx
   125ad:	48 83 bd f0 e4 ff ff 	cmpq   $0x0,-0x1b10(%rbp)
   125b4:	00 
   125b5:	0f 95 c0             	setne  %al
   125b8:	0f b6 c8             	movzbl %al,%ecx
   125bb:	0f b6 85 98 e3 ff ff 	movzbl -0x1c68(%rbp),%eax
   125c2:	39 c1                	cmp    %eax,%ecx
   125c4:	0f 9f c0             	setg   %al
   125c7:	0f b6 c0             	movzbl %al,%eax
   125ca:	89 d6                	mov    %edx,%esi
   125cc:	89 c7                	mov    %eax,%edi
   125ce:	e8 3f 8c ff ff       	callq  b212 <safe_mul_func_int8_t_s_s>
   125d3:	48 8b 85 60 e4 ff ff 	mov    -0x1ba0(%rbp),%rax
   125da:	8b 00                	mov    (%rax),%eax
   125dc:	83 f8 01             	cmp    $0x1,%eax
   125df:	0f 94 c2             	sete   %dl
   125e2:	48 8b 05 b7 dd 00 00 	mov    0xddb7(%rip),%rax        # 203a0 <g_34>
   125e9:	0f b6 d2             	movzbl %dl,%edx
   125ec:	89 10                	mov    %edx,(%rax)
   125ee:	80 bd ab e3 ff ff 00 	cmpb   $0x0,-0x1c55(%rbp)
   125f5:	75 47                	jne    1263e <func_39+0x1042>
   125f7:	48 8b 05 aa dd 00 00 	mov    0xddaa(%rip),%rax        # 203a8 <g_33>
   125fe:	48 8b 00             	mov    (%rax),%rax
   12601:	8b 00                	mov    (%rax),%eax
   12603:	85 c0                	test   %eax,%eax
   12605:	75 20                	jne    12627 <func_39+0x102b>
   12607:	48 8b 05 92 dd 00 00 	mov    0xdd92(%rip),%rax        # 203a0 <g_34>
   1260e:	8b 08                	mov    (%rax),%ecx
   12610:	0f b6 85 9c e3 ff ff 	movzbl -0x1c64(%rbp),%eax
   12617:	0f be d0             	movsbl %al,%edx
   1261a:	48 8b 05 7f dd 00 00 	mov    0xdd7f(%rip),%rax        # 203a0 <g_34>
   12621:	09 ca                	or     %ecx,%edx
   12623:	89 10                	mov    %edx,(%rax)
   12625:	eb 01                	jmp    12628 <func_39+0x102c>
   12627:	90                   	nop
   12628:	80 85 98 e3 ff ff 01 	addb   $0x1,-0x1c68(%rbp)
   1262f:	80 bd 98 e3 ff ff 3c 	cmpb   $0x3c,-0x1c68(%rbp)
   12636:	0f 85 d2 fe ff ff    	jne    1250e <func_39+0xf12>
   1263c:	eb 01                	jmp    1263f <func_39+0x1043>
   1263e:	90                   	nop
   1263f:	c7 05 5f aa 00 00 0a 	movl   $0xa,0xaa5f(%rip)        # 1d0a8 <g_157>
   12646:	00 00 00 
   12649:	e9 4c 05 00 00       	jmpq   12b9a <func_39+0x159e>
   1264e:	66 c7 85 b6 e3 ff ff 	movw   $0x9bd8,-0x1c4a(%rbp)
   12655:	d8 9b 
   12657:	48 8d 05 52 aa 00 00 	lea    0xaa52(%rip),%rax        # 1d0b0 <g_180>
   1265e:	48 89 85 18 e5 ff ff 	mov    %rax,-0x1ae8(%rbp)
   12665:	48 c7 85 20 e5 ff ff 	movq   $0x0,-0x1ae0(%rbp)
   1266c:	00 00 00 00 
   12670:	48 8d 85 60 e4 ff ff 	lea    -0x1ba0(%rbp),%rax
   12677:	48 89 85 28 e5 ff ff 	mov    %rax,-0x1ad8(%rbp)
   1267e:	48 8d 05 33 aa 00 00 	lea    0xaa33(%rip),%rax        # 1d0b8 <g_199>
   12685:	48 89 85 30 e5 ff ff 	mov    %rax,-0x1ad0(%rbp)
   1268c:	48 c7 85 38 e5 ff ff 	movq   $0x0,-0x1ac8(%rbp)
   12693:	00 00 00 00 
   12697:	48 c7 85 40 e5 ff ff 	movq   $0x0,-0x1ac0(%rbp)
   1269e:	00 00 00 00 
   126a2:	48 8d 05 17 aa 00 00 	lea    0xaa17(%rip),%rax        # 1d0c0 <g_203>
   126a9:	48 89 85 48 e5 ff ff 	mov    %rax,-0x1ab8(%rbp)
   126b0:	c7 85 d4 e3 ff ff 00 	movl   $0x0,-0x1c2c(%rbp)
   126b7:	00 00 00 
   126ba:	eb 74                	jmp    12730 <func_39+0x1134>
   126bc:	c7 85 d8 e3 ff ff 00 	movl   $0x0,-0x1c28(%rbp)
   126c3:	00 00 00 
   126c6:	eb 58                	jmp    12720 <func_39+0x1124>
   126c8:	c7 85 dc e3 ff ff 00 	movl   $0x0,-0x1c24(%rbp)
   126cf:	00 00 00 
   126d2:	eb 3c                	jmp    12710 <func_39+0x1114>
   126d4:	8b 85 dc e3 ff ff    	mov    -0x1c24(%rbp),%eax
   126da:	48 98                	cltq   
   126dc:	8b 95 d4 e3 ff ff    	mov    -0x1c2c(%rbp),%edx
   126e2:	48 63 ca             	movslq %edx,%rcx
   126e5:	8b 95 d8 e3 ff ff    	mov    -0x1c28(%rbp),%edx
   126eb:	48 63 d2             	movslq %edx,%rdx
   126ee:	48 01 c9             	add    %rcx,%rcx
   126f1:	48 01 ca             	add    %rcx,%rdx
   126f4:	48 01 d2             	add    %rdx,%rdx
   126f7:	48 01 c2             	add    %rax,%rdx
   126fa:	48 8d 85 80 e8 ff ff 	lea    -0x1780(%rbp),%rax
   12701:	48 89 84 d5 e0 f7 ff 	mov    %rax,-0x820(%rbp,%rdx,8)
   12708:	ff 
   12709:	83 85 dc e3 ff ff 01 	addl   $0x1,-0x1c24(%rbp)
   12710:	83 bd dc e3 ff ff 01 	cmpl   $0x1,-0x1c24(%rbp)
   12717:	7e bb                	jle    126d4 <func_39+0x10d8>
   12719:	83 85 d8 e3 ff ff 01 	addl   $0x1,-0x1c28(%rbp)
   12720:	83 bd d8 e3 ff ff 01 	cmpl   $0x1,-0x1c28(%rbp)
   12727:	7e 9f                	jle    126c8 <func_39+0x10cc>
   12729:	83 85 d4 e3 ff ff 01 	addl   $0x1,-0x1c2c(%rbp)
   12730:	83 bd d4 e3 ff ff 08 	cmpl   $0x8,-0x1c2c(%rbp)
   12737:	7e 83                	jle    126bc <func_39+0x10c0>
   12739:	8b 9d 80 e8 ff ff    	mov    -0x1780(%rbp),%ebx
   1273f:	44 0f b6 a5 98 e3 ff 	movzbl -0x1c68(%rbp),%r12d
   12746:	ff 
   12747:	0f b7 05 fa a8 00 00 	movzwl 0xa8fa(%rip),%eax        # 1d048 <g_82>
   1274e:	98                   	cwtl   
   1274f:	89 85 80 e3 ff ff    	mov    %eax,-0x1c80(%rbp)
   12755:	48 8b 05 e4 a8 00 00 	mov    0xa8e4(%rip),%rax        # 1d040 <g_80>
   1275c:	48 89 85 78 e3 ff ff 	mov    %rax,-0x1c88(%rbp)
   12763:	8b 05 bb a8 00 00    	mov    0xa8bb(%rip),%eax        # 1d024 <g_9>
   12769:	44 0f b6 f8          	movzbl %al,%r15d
   1276d:	8b 85 80 e8 ff ff    	mov    -0x1780(%rbp),%eax
   12773:	44 0f be f0          	movsbl %al,%r14d
   12777:	0f b6 85 9c e3 ff ff 	movzbl -0x1c64(%rbp),%eax
   1277e:	44 0f be e8          	movsbl %al,%r13d
   12782:	0f b6 85 9c e3 ff ff 	movzbl -0x1c64(%rbp),%eax
   12789:	0f be f0             	movsbl %al,%esi
   1278c:	89 b5 74 e3 ff ff    	mov    %esi,-0x1c8c(%rbp)
   12792:	48 8b 85 60 e4 ff ff 	mov    -0x1ba0(%rbp),%rax
   12799:	8b 00                	mov    (%rax),%eax
   1279b:	0f b6 c0             	movzbl %al,%eax
   1279e:	89 c6                	mov    %eax,%esi
   127a0:	bf 2a 00 00 00       	mov    $0x2a,%edi
   127a5:	e8 b0 93 ff ff       	callq  bb5a <safe_add_func_uint8_t_u_u>
   127aa:	0f b6 c0             	movzbl %al,%eax
   127ad:	39 85 74 e3 ff ff    	cmp    %eax,-0x1c8c(%rbp)
   127b3:	0f 9f c0             	setg   %al
   127b6:	0f b6 c0             	movzbl %al,%eax
   127b9:	be 07 00 00 00       	mov    $0x7,%esi
   127be:	89 c7                	mov    %eax,%edi
   127c0:	e8 c8 94 ff ff       	callq  bc8d <safe_rshift_func_uint8_t_u_s>
   127c5:	38 85 98 e3 ff ff    	cmp    %al,-0x1c68(%rbp)
   127cb:	0f 97 c0             	seta   %al
   127ce:	0f b6 d0             	movzbl %al,%edx
   127d1:	48 8b 85 18 e5 ff ff 	mov    -0x1ae8(%rbp),%rax
   127d8:	66 89 10             	mov    %dx,(%rax)
   127db:	48 8b 85 18 e5 ff ff 	mov    -0x1ae8(%rbp),%rax
   127e2:	0f b7 00             	movzwl (%rax),%eax
   127e5:	0f b7 c0             	movzwl %ax,%eax
   127e8:	4c 8b 85 78 e3 ff ff 	mov    -0x1c88(%rbp),%r8
   127ef:	44 89 f9             	mov    %r15d,%ecx
   127f2:	44 89 f2             	mov    %r14d,%edx
   127f5:	44 89 ee             	mov    %r13d,%esi
   127f8:	89 c7                	mov    %eax,%edi
   127fa:	e8 f6 4d 00 00       	callq  175f5 <func_46>
   127ff:	48 8b 95 28 e5 ff ff 	mov    -0x1ad8(%rbp),%rdx
   12806:	48 89 02             	mov    %rax,(%rdx)
   12809:	48 8b 85 28 e5 ff ff 	mov    -0x1ad8(%rbp),%rax
   12810:	48 8b 00             	mov    (%rax),%rax
   12813:	48 8d 15 8e a8 00 00 	lea    0xa88e(%rip),%rdx        # 1d0a8 <g_157>
   1281a:	48 39 d0             	cmp    %rdx,%rax
   1281d:	0f 95 c0             	setne  %al
   12820:	0f b6 c0             	movzbl %al,%eax
   12823:	39 85 80 e3 ff ff    	cmp    %eax,-0x1c80(%rbp)
   12829:	0f 9c c0             	setl   %al
   1282c:	0f b6 c0             	movzbl %al,%eax
   1282f:	89 85 c4 e3 ff ff    	mov    %eax,-0x1c3c(%rbp)
   12835:	48 8b 05 64 db 00 00 	mov    0xdb64(%rip),%rax        # 203a0 <g_34>
   1283c:	8b 00                	mov    (%rax),%eax
   1283e:	44 89 e6             	mov    %r12d,%esi
   12841:	89 c7                	mov    %eax,%edi
   12843:	e8 bd 8d ff ff       	callq  b605 <safe_sub_func_int32_t_s_s>
   12848:	0f b6 95 9c e3 ff ff 	movzbl -0x1c64(%rbp),%edx
   1284f:	0f be d2             	movsbl %dl,%edx
   12852:	39 d0                	cmp    %edx,%eax
   12854:	0f 9f c0             	setg   %al
   12857:	0f b6 c0             	movzbl %al,%eax
   1285a:	89 c6                	mov    %eax,%esi
   1285c:	bf 01 00 00 00       	mov    $0x1,%edi
   12861:	e8 a0 95 ff ff       	callq  be06 <safe_lshift_func_uint16_t_u_u>
   12866:	89 c2                	mov    %eax,%edx
   12868:	0f b6 05 11 a8 00 00 	movzbl 0xa811(%rip),%eax        # 1d080 <g_95+0x20>
   1286f:	21 d0                	and    %edx,%eax
   12871:	0f b6 c0             	movzbl %al,%eax
   12874:	be 03 00 00 00       	mov    $0x3,%esi
   12879:	89 c7                	mov    %eax,%edi
   1287b:	e8 85 93 ff ff       	callq  bc05 <safe_lshift_func_uint8_t_u_s>
   12880:	0f b6 c0             	movzbl %al,%eax
   12883:	89 de                	mov    %ebx,%esi
   12885:	89 c7                	mov    %eax,%edi
   12887:	e8 79 8d ff ff       	callq  b605 <safe_sub_func_int32_t_s_s>
   1288c:	0f b6 05 d9 a7 00 00 	movzbl 0xa7d9(%rip),%eax        # 1d06c <g_95+0xc>
   12893:	3c 01                	cmp    $0x1,%al
   12895:	0f b7 05 ac a7 00 00 	movzwl 0xa7ac(%rip),%eax        # 1d048 <g_82>
   1289c:	48 8b 85 60 e4 ff ff 	mov    -0x1ba0(%rbp),%rax
   128a3:	8b 10                	mov    (%rax),%edx
   128a5:	0f b6 85 a7 e3 ff ff 	movzbl -0x1c59(%rbp),%eax
   128ac:	0f be c0             	movsbl %al,%eax
   128af:	39 c2                	cmp    %eax,%edx
   128b1:	0f 94 c0             	sete   %al
   128b4:	0f b6 c8             	movzbl %al,%ecx
   128b7:	48 8b 85 30 e5 ff ff 	mov    -0x1ad0(%rbp),%rax
   128be:	48 8b 10             	mov    (%rax),%rdx
   128c1:	48 63 c1             	movslq %ecx,%rax
   128c4:	48 09 c2             	or     %rax,%rdx
   128c7:	48 8b 85 30 e5 ff ff 	mov    -0x1ad0(%rbp),%rax
   128ce:	48 89 10             	mov    %rdx,(%rax)
   128d1:	48 8b 85 30 e5 ff ff 	mov    -0x1ad0(%rbp),%rax
   128d8:	48 8b 10             	mov    (%rax),%rdx
   128db:	0f b6 05 56 a7 00 00 	movzbl 0xa756(%rip),%eax        # 1d038 <g_53>
   128e2:	0f b6 c0             	movzbl %al,%eax
   128e5:	48 39 c2             	cmp    %rax,%rdx
   128e8:	0f 95 c0             	setne  %al
   128eb:	0f b6 d0             	movzbl %al,%edx
   128ee:	48 8b 85 48 e5 ff ff 	mov    -0x1ab8(%rbp),%rax
   128f5:	0f b7 00             	movzwl (%rax),%eax
   128f8:	31 c2                	xor    %eax,%edx
   128fa:	48 8b 85 48 e5 ff ff 	mov    -0x1ab8(%rbp),%rax
   12901:	66 89 10             	mov    %dx,(%rax)
   12904:	48 8b 85 48 e5 ff ff 	mov    -0x1ab8(%rbp),%rax
   1290b:	0f b7 00             	movzwl (%rax),%eax
   1290e:	0f bf d0             	movswl %ax,%edx
   12911:	0f b7 05 20 a7 00 00 	movzwl 0xa720(%rip),%eax        # 1d038 <g_53>
   12918:	66 39 85 b6 e3 ff ff 	cmp    %ax,-0x1c4a(%rbp)
   1291f:	0f 93 c0             	setae  %al
   12922:	0f b6 c0             	movzbl %al,%eax
   12925:	89 d6                	mov    %edx,%esi
   12927:	89 c7                	mov    %eax,%edi
   12929:	e8 c7 8a ff ff       	callq  b3f5 <safe_mul_func_int16_t_s_s>
   1292e:	66 85 c0             	test   %ax,%ax
   12931:	0f 84 a7 01 00 00    	je     12ade <func_39+0x14e2>
   12937:	66 c7 85 b8 e3 ff ff 	movw   $0x0,-0x1c48(%rbp)
   1293e:	00 00 
   12940:	c7 85 14 e4 ff ff 3c 	movl   $0x6149393c,-0x1bec(%rbp)
   12947:	39 49 61 
   1294a:	c7 85 e0 e3 ff ff 00 	movl   $0x0,-0x1c20(%rbp)
   12951:	00 00 00 
   12954:	eb 1a                	jmp    12970 <func_39+0x1374>
   12956:	8b 85 e0 e3 ff ff    	mov    -0x1c20(%rbp),%eax
   1295c:	48 98                	cltq   
   1295e:	c7 84 85 40 ee ff ff 	movl   $0xea31e43,-0x11c0(%rbp,%rax,4)
   12965:	43 1e a3 0e 
   12969:	83 85 e0 e3 ff ff 01 	addl   $0x1,-0x1c20(%rbp)
   12970:	83 bd e0 e3 ff ff 01 	cmpl   $0x1,-0x1c20(%rbp)
   12977:	7e dd                	jle    12956 <func_39+0x135a>
   12979:	0f b6 05 fe a6 00 00 	movzbl 0xa6fe(%rip),%eax        # 1d07e <g_95+0x1e>
   12980:	44 0f b6 e8          	movzbl %al,%r13d
   12984:	0f b7 05 49 a7 00 00 	movzwl 0xa749(%rip),%eax        # 1d0d4 <g_204+0xc>
   1298b:	66 25 ff 07          	and    $0x7ff,%ax
   1298f:	66 85 c0             	test   %ax,%ax
   12992:	0f 85 8a 00 00 00    	jne    12a22 <func_39+0x1426>
   12998:	0f b6 85 9c e3 ff ff 	movzbl -0x1c64(%rbp),%eax
   1299f:	0f b6 d8             	movzbl %al,%ebx
   129a2:	48 8b 85 60 e4 ff ff 	mov    -0x1ba0(%rbp),%rax
   129a9:	8b 00                	mov    (%rax),%eax
   129ab:	4c 63 e0             	movslq %eax,%r12
   129ae:	48 8b 05 23 a7 00 00 	mov    0xa723(%rip),%rax        # 1d0d8 <g_220>
   129b5:	8b 85 80 e8 ff ff    	mov    -0x1780(%rbp),%eax
   129bb:	48 98                	cltq   
   129bd:	48 be 6e ba 7c 96 b1 	movabs $0x4b598fb1967cba6e,%rsi
   129c4:	8f 59 4b 
   129c7:	48 89 c7             	mov    %rax,%rdi
   129ca:	e8 e0 96 ff ff       	callq  c0af <safe_div_func_uint64_t_u_u>
   129cf:	48 85 c0             	test   %rax,%rax
   129d2:	75 09                	jne    129dd <func_39+0x13e1>
   129d4:	80 bd 98 e3 ff ff 00 	cmpb   $0x0,-0x1c68(%rbp)
   129db:	74 07                	je     129e4 <func_39+0x13e8>
   129dd:	ba 01 00 00 00       	mov    $0x1,%edx
   129e2:	eb 05                	jmp    129e9 <func_39+0x13ed>
   129e4:	ba 00 00 00 00       	mov    $0x0,%edx
   129e9:	0f b7 85 b8 e3 ff ff 	movzwl -0x1c48(%rbp),%eax
   129f0:	09 d0                	or     %edx,%eax
   129f2:	be da 9e b0 49       	mov    $0x49b09eda,%esi
   129f7:	89 c7                	mov    %eax,%edi
   129f9:	e8 ba 94 ff ff       	callq  beb8 <safe_add_func_uint32_t_u_u>
   129fe:	89 c0                	mov    %eax,%eax
   12a00:	4c 89 e6             	mov    %r12,%rsi
   12a03:	48 89 c7             	mov    %rax,%rdi
   12a06:	e8 9d 8e ff ff       	callq  b8a8 <safe_sub_func_int64_t_s_s>
   12a0b:	0f b6 c0             	movzbl %al,%eax
   12a0e:	89 de                	mov    %ebx,%esi
   12a10:	89 c7                	mov    %eax,%edi
   12a12:	e8 c4 91 ff ff       	callq  bbdb <safe_div_func_uint8_t_u_u>
   12a17:	84 c0                	test   %al,%al
   12a19:	74 07                	je     12a22 <func_39+0x1426>
   12a1b:	b8 01 00 00 00       	mov    $0x1,%eax
   12a20:	eb 05                	jmp    12a27 <func_39+0x142b>
   12a22:	b8 00 00 00 00       	mov    $0x0,%eax
   12a27:	0f bf d0             	movswl %ax,%edx
   12a2a:	0f b6 85 9c e3 ff ff 	movzbl -0x1c64(%rbp),%eax
   12a31:	0f be c8             	movsbl %al,%ecx
   12a34:	48 8b 85 28 e5 ff ff 	mov    -0x1ad8(%rbp),%rax
   12a3b:	48 8b 00             	mov    (%rax),%rax
   12a3e:	8b 00                	mov    (%rax),%eax
   12a40:	39 c1                	cmp    %eax,%ecx
   12a42:	0f 9d c0             	setge  %al
   12a45:	0f b6 c0             	movzbl %al,%eax
   12a48:	f7 d0                	not    %eax
   12a4a:	98                   	cwtl   
   12a4b:	89 d6                	mov    %edx,%esi
   12a4d:	89 c7                	mov    %eax,%edi
   12a4f:	e8 5f 89 ff ff       	callq  b3b3 <safe_add_func_int16_t_s_s>
   12a54:	48 0f bf c0          	movswq %ax,%rax
   12a58:	48 c7 c6 ff ff ff ff 	mov    $0xffffffffffffffff,%rsi
   12a5f:	48 89 c7             	mov    %rax,%rdi
   12a62:	e8 4d 8f ff ff       	callq  b9b4 <safe_mod_func_int64_t_s_s>
   12a67:	0f b7 05 42 a6 00 00 	movzwl 0xa642(%rip),%eax        # 1d0b0 <g_180>
   12a6e:	66 3d 56 37          	cmp    $0x3756,%ax
   12a72:	0f 97 c0             	seta   %al
   12a75:	0f b6 c0             	movzbl %al,%eax
   12a78:	be 80 ff ff ff       	mov    $0xffffff80,%esi
   12a7d:	89 c7                	mov    %eax,%edi
   12a7f:	e8 8e 87 ff ff       	callq  b212 <safe_mul_func_int8_t_s_s>
   12a84:	c7 85 40 ee ff ff 01 	movl   $0x1,-0x11c0(%rbp)
   12a8b:	00 00 00 
   12a8e:	48 8b 85 60 e4 ff ff 	mov    -0x1ba0(%rbp),%rax
   12a95:	8b 95 40 ee ff ff    	mov    -0x11c0(%rbp),%edx
   12a9b:	89 10                	mov    %edx,(%rax)
   12a9d:	8b 00                	mov    (%rax),%eax
   12a9f:	83 f8 02             	cmp    $0x2,%eax
   12aa2:	0f 94 c0             	sete   %al
   12aa5:	0f b6 c0             	movzbl %al,%eax
   12aa8:	44 09 e8             	or     %r13d,%eax
   12aab:	48 63 d0             	movslq %eax,%rdx
   12aae:	48 8b 05 03 a6 00 00 	mov    0xa603(%rip),%rax        # 1d0b8 <g_199>
   12ab5:	48 31 d0             	xor    %rdx,%rax
   12ab8:	89 c2                	mov    %eax,%edx
   12aba:	8b 85 14 e4 ff ff    	mov    -0x1bec(%rbp),%eax
   12ac0:	09 d0                	or     %edx,%eax
   12ac2:	89 85 14 e4 ff ff    	mov    %eax,-0x1bec(%rbp)
   12ac8:	48 8b 05 d1 db 00 00 	mov    0xdbd1(%rip),%rax        # 206a0 <g_226>
   12acf:	48 8b 15 c2 db 00 00 	mov    0xdbc2(%rip),%rdx        # 20698 <g_224>
   12ad6:	48 89 10             	mov    %rdx,(%rax)
   12ad9:	e9 9e 00 00 00       	jmpq   12b7c <func_39+0x1580>
   12ade:	c7 05 48 a5 00 00 00 	movl   $0x0,0xa548(%rip)        # 1d030 <g_36>
   12ae5:	00 00 00 
   12ae8:	e9 80 00 00 00       	jmpq   12b6d <func_39+0x1571>
   12aed:	48 8b 85 28 e5 ff ff 	mov    -0x1ad8(%rbp),%rax
   12af4:	48 8b 00             	mov    (%rax),%rax
   12af7:	0f b6 95 98 e3 ff ff 	movzbl -0x1c68(%rbp),%edx
   12afe:	89 10                	mov    %edx,(%rax)
   12b00:	8b 00                	mov    (%rax),%eax
   12b02:	89 85 9c e8 ff ff    	mov    %eax,-0x1764(%rbp)
   12b08:	8b 8d 9c e8 ff ff    	mov    -0x1764(%rbp),%ecx
   12b0e:	48 8b 05 8b d8 00 00 	mov    0xd88b(%rip),%rax        # 203a0 <g_34>
   12b15:	8b 10                	mov    (%rax),%edx
   12b17:	48 8b 05 82 d8 00 00 	mov    0xd882(%rip),%rax        # 203a0 <g_34>
   12b1e:	31 ca                	xor    %ecx,%edx
   12b20:	89 10                	mov    %edx,(%rax)
   12b22:	8b 05 80 a5 00 00    	mov    0xa580(%rip),%eax        # 1d0a8 <g_157>
   12b28:	85 c0                	test   %eax,%eax
   12b2a:	75 7f                	jne    12bab <func_39+0x15af>
   12b2c:	48 8b 85 60 e4 ff ff 	mov    -0x1ba0(%rbp),%rax
   12b33:	8b 10                	mov    (%rax),%edx
   12b35:	48 8b 85 60 e4 ff ff 	mov    -0x1ba0(%rbp),%rax
   12b3c:	83 e2 01             	and    $0x1,%edx
   12b3f:	89 10                	mov    %edx,(%rax)
   12b41:	48 8b 05 60 d8 00 00 	mov    0xd860(%rip),%rax        # 203a8 <g_33>
   12b48:	48 8b 00             	mov    (%rax),%rax
   12b4b:	8b 00                	mov    (%rax),%eax
   12b4d:	85 c0                	test   %eax,%eax
   12b4f:	8b 05 db a4 00 00    	mov    0xa4db(%rip),%eax        # 1d030 <g_36>
   12b55:	0f b6 c0             	movzbl %al,%eax
   12b58:	be 01 00 00 00       	mov    $0x1,%esi
   12b5d:	89 c7                	mov    %eax,%edi
   12b5f:	e8 f6 8f ff ff       	callq  bb5a <safe_add_func_uint8_t_u_u>
   12b64:	0f b6 c0             	movzbl %al,%eax
   12b67:	89 05 c3 a4 00 00    	mov    %eax,0xa4c3(%rip)        # 1d030 <g_36>
   12b6d:	8b 05 bd a4 00 00    	mov    0xa4bd(%rip),%eax        # 1d030 <g_36>
   12b73:	83 f8 08             	cmp    $0x8,%eax
   12b76:	0f 87 71 ff ff ff    	ja     12aed <func_39+0x14f1>
   12b7c:	8b 05 26 a5 00 00    	mov    0xa526(%rip),%eax        # 1d0a8 <g_157>
   12b82:	0f b6 c0             	movzbl %al,%eax
   12b85:	be 08 00 00 00       	mov    $0x8,%esi
   12b8a:	89 c7                	mov    %eax,%edi
   12b8c:	e8 e7 8f ff ff       	callq  bb78 <safe_sub_func_uint8_t_u_u>
   12b91:	0f b6 c0             	movzbl %al,%eax
   12b94:	89 05 0e a5 00 00    	mov    %eax,0xa50e(%rip)        # 1d0a8 <g_157>
   12b9a:	8b 05 08 a5 00 00    	mov    0xa508(%rip),%eax        # 1d0a8 <g_157>
   12ba0:	83 f8 08             	cmp    $0x8,%eax
   12ba3:	0f 84 a5 fa ff ff    	je     1264e <func_39+0x1052>
   12ba9:	eb 01                	jmp    12bac <func_39+0x15b0>
   12bab:	90                   	nop
   12bac:	48 8b 85 60 e4 ff ff 	mov    -0x1ba0(%rbp),%rax
   12bb3:	8b 00                	mov    (%rax),%eax
   12bb5:	85 c0                	test   %eax,%eax
   12bb7:	0f 84 a0 18 00 00    	je     1445d <func_39+0x2e61>
   12bbd:	66 c7 85 b4 e3 ff ff 	movw   $0xd978,-0x1c4c(%rbp)
   12bc4:	78 d9 
   12bc6:	0f b7 85 08 e8 ff ff 	movzwl -0x17f8(%rbp),%eax
   12bcd:	66 25 00 c0          	and    $0xc000,%ax
   12bd1:	83 c8 77             	or     $0x77,%eax
   12bd4:	66 89 85 08 e8 ff ff 	mov    %ax,-0x17f8(%rbp)
   12bdb:	66 c7 85 0a e8 ff ff 	movw   $0x799d,-0x17f6(%rbp)
   12be2:	9d 79 
   12be4:	0f b6 85 0c e8 ff ff 	movzbl -0x17f4(%rbp),%eax
   12beb:	83 e0 f8             	and    $0xfffffff8,%eax
   12bee:	88 85 0c e8 ff ff    	mov    %al,-0x17f4(%rbp)
   12bf4:	8b 85 0c e8 ff ff    	mov    -0x17f4(%rbp),%eax
   12bfa:	25 07 00 00 f0       	and    $0xf0000007,%eax
   12bff:	0d c0 60 00 00       	or     $0x60c0,%eax
   12c04:	89 85 0c e8 ff ff    	mov    %eax,-0x17f4(%rbp)
   12c0a:	c7 85 10 e8 ff ff 01 	movl   $0x1,-0x17f0(%rbp)
   12c11:	00 00 00 
   12c14:	0f b7 85 14 e8 ff ff 	movzwl -0x17ec(%rbp),%eax
   12c1b:	66 25 00 f8          	and    $0xf800,%ax
   12c1f:	83 c8 1f             	or     $0x1f,%eax
   12c22:	66 89 85 14 e8 ff ff 	mov    %ax,-0x17ec(%rbp)
   12c29:	0f b6 85 15 e8 ff ff 	movzbl -0x17eb(%rbp),%eax
   12c30:	83 e0 87             	and    $0xffffff87,%eax
   12c33:	83 c8 68             	or     $0x68,%eax
   12c36:	88 85 15 e8 ff ff    	mov    %al,-0x17eb(%rbp)
   12c3c:	48 8d 05 e1 a3 00 00 	lea    0xa3e1(%rip),%rax        # 1d024 <g_9>
   12c43:	48 89 85 e8 e5 ff ff 	mov    %rax,-0x1a18(%rbp)
   12c4a:	48 8d 05 57 a4 00 00 	lea    0xa457(%rip),%rax        # 1d0a8 <g_157>
   12c51:	48 89 85 f0 e5 ff ff 	mov    %rax,-0x1a10(%rbp)
   12c58:	48 c7 05 dd a3 00 00 	movq   $0x0,0xa3dd(%rip)        # 1d040 <g_80>
   12c5f:	00 00 00 00 
   12c63:	90                   	nop
   12c64:	48 8b 05 d5 a3 00 00 	mov    0xa3d5(%rip),%rax        # 1d040 <g_80>
   12c6b:	48 83 f8 0f          	cmp    $0xf,%rax
   12c6f:	0f 87 b9 17 00 00    	ja     1442e <func_39+0x2e32>
   12c75:	48 c7 85 a8 e4 ff ff 	movq   $0x0,-0x1b58(%rbp)
   12c7c:	00 00 00 00 
   12c80:	0f b7 85 70 e9 ff ff 	movzwl -0x1690(%rbp),%eax
   12c87:	66 25 00 c0          	and    $0xc000,%ax
   12c8b:	66 0d 8c 3f          	or     $0x3f8c,%ax
   12c8f:	66 89 85 70 e9 ff ff 	mov    %ax,-0x1690(%rbp)
   12c96:	66 c7 85 72 e9 ff ff 	movw   $0x0,-0x168e(%rbp)
   12c9d:	00 00 
   12c9f:	0f b6 85 74 e9 ff ff 	movzbl -0x168c(%rbp),%eax
   12ca6:	83 c8 07             	or     $0x7,%eax
   12ca9:	88 85 74 e9 ff ff    	mov    %al,-0x168c(%rbp)
   12caf:	8b 85 74 e9 ff ff    	mov    -0x168c(%rbp),%eax
   12cb5:	25 07 00 00 f0       	and    $0xf0000007,%eax
   12cba:	0d d0 b4 00 00       	or     $0xb4d0,%eax
   12cbf:	89 85 74 e9 ff ff    	mov    %eax,-0x168c(%rbp)
   12cc5:	c7 85 78 e9 ff ff ff 	movl   $0xffffffff,-0x1688(%rbp)
   12ccc:	ff ff ff 
   12ccf:	0f b7 85 7c e9 ff ff 	movzwl -0x1684(%rbp),%eax
   12cd6:	66 25 00 f8          	and    $0xf800,%ax
   12cda:	83 c8 22             	or     $0x22,%eax
   12cdd:	66 89 85 7c e9 ff ff 	mov    %ax,-0x1684(%rbp)
   12ce4:	0f b6 85 7d e9 ff ff 	movzbl -0x1683(%rbp),%eax
   12ceb:	83 e0 87             	and    $0xffffff87,%eax
   12cee:	88 85 7d e9 ff ff    	mov    %al,-0x1683(%rbp)
   12cf4:	0f b7 85 7e e9 ff ff 	movzwl -0x1682(%rbp),%eax
   12cfb:	66 25 00 c0          	and    $0xc000,%ax
   12cff:	66 0d 8c 3f          	or     $0x3f8c,%ax
   12d03:	66 89 85 7e e9 ff ff 	mov    %ax,-0x1682(%rbp)
   12d0a:	66 c7 85 80 e9 ff ff 	movw   $0x0,-0x1680(%rbp)
   12d11:	00 00 
   12d13:	0f b6 85 82 e9 ff ff 	movzbl -0x167e(%rbp),%eax
   12d1a:	83 c8 07             	or     $0x7,%eax
   12d1d:	88 85 82 e9 ff ff    	mov    %al,-0x167e(%rbp)
   12d23:	0f b7 85 82 e9 ff ff 	movzwl -0x167e(%rbp),%eax
   12d2a:	83 e0 07             	and    $0x7,%eax
   12d2d:	66 0d d0 b4          	or     $0xb4d0,%ax
   12d31:	66 89 85 82 e9 ff ff 	mov    %ax,-0x167e(%rbp)
   12d38:	0f b7 85 84 e9 ff ff 	movzwl -0x167c(%rbp),%eax
   12d3f:	66 25 00 f0          	and    $0xf000,%ax
   12d43:	66 89 85 84 e9 ff ff 	mov    %ax,-0x167c(%rbp)
   12d4a:	c7 85 86 e9 ff ff ff 	movl   $0xffffffff,-0x167a(%rbp)
   12d51:	ff ff ff 
   12d54:	0f b7 85 8a e9 ff ff 	movzwl -0x1676(%rbp),%eax
   12d5b:	66 25 00 f8          	and    $0xf800,%ax
   12d5f:	83 c8 22             	or     $0x22,%eax
   12d62:	66 89 85 8a e9 ff ff 	mov    %ax,-0x1676(%rbp)
   12d69:	0f b6 85 8b e9 ff ff 	movzbl -0x1675(%rbp),%eax
   12d70:	83 e0 87             	and    $0xffffff87,%eax
   12d73:	88 85 8b e9 ff ff    	mov    %al,-0x1675(%rbp)
   12d79:	0f b7 85 8c e9 ff ff 	movzwl -0x1674(%rbp),%eax
   12d80:	66 25 00 c0          	and    $0xc000,%ax
   12d84:	66 0d 8c 3f          	or     $0x3f8c,%ax
   12d88:	66 89 85 8c e9 ff ff 	mov    %ax,-0x1674(%rbp)
   12d8f:	66 c7 85 8e e9 ff ff 	movw   $0x0,-0x1672(%rbp)
   12d96:	00 00 
   12d98:	0f b6 85 90 e9 ff ff 	movzbl -0x1670(%rbp),%eax
   12d9f:	83 c8 07             	or     $0x7,%eax
   12da2:	88 85 90 e9 ff ff    	mov    %al,-0x1670(%rbp)
   12da8:	8b 85 90 e9 ff ff    	mov    -0x1670(%rbp),%eax
   12dae:	25 07 00 00 f0       	and    $0xf0000007,%eax
   12db3:	0d d0 b4 00 00       	or     $0xb4d0,%eax
   12db8:	89 85 90 e9 ff ff    	mov    %eax,-0x1670(%rbp)
   12dbe:	c7 85 94 e9 ff ff ff 	movl   $0xffffffff,-0x166c(%rbp)
   12dc5:	ff ff ff 
   12dc8:	0f b7 85 98 e9 ff ff 	movzwl -0x1668(%rbp),%eax
   12dcf:	66 25 00 f8          	and    $0xf800,%ax
   12dd3:	83 c8 22             	or     $0x22,%eax
   12dd6:	66 89 85 98 e9 ff ff 	mov    %ax,-0x1668(%rbp)
   12ddd:	0f b6 85 99 e9 ff ff 	movzbl -0x1667(%rbp),%eax
   12de4:	83 e0 87             	and    $0xffffff87,%eax
   12de7:	88 85 99 e9 ff ff    	mov    %al,-0x1667(%rbp)
   12ded:	0f b7 85 9a e9 ff ff 	movzwl -0x1666(%rbp),%eax
   12df4:	66 25 00 c0          	and    $0xc000,%ax
   12df8:	66 0d 8c 3f          	or     $0x3f8c,%ax
   12dfc:	66 89 85 9a e9 ff ff 	mov    %ax,-0x1666(%rbp)
   12e03:	66 c7 85 9c e9 ff ff 	movw   $0x0,-0x1664(%rbp)
   12e0a:	00 00 
   12e0c:	0f b6 85 9e e9 ff ff 	movzbl -0x1662(%rbp),%eax
   12e13:	83 c8 07             	or     $0x7,%eax
   12e16:	88 85 9e e9 ff ff    	mov    %al,-0x1662(%rbp)
   12e1c:	0f b7 85 9e e9 ff ff 	movzwl -0x1662(%rbp),%eax
   12e23:	83 e0 07             	and    $0x7,%eax
   12e26:	66 0d d0 b4          	or     $0xb4d0,%ax
   12e2a:	66 89 85 9e e9 ff ff 	mov    %ax,-0x1662(%rbp)
   12e31:	0f b7 85 a0 e9 ff ff 	movzwl -0x1660(%rbp),%eax
   12e38:	66 25 00 f0          	and    $0xf000,%ax
   12e3c:	66 89 85 a0 e9 ff ff 	mov    %ax,-0x1660(%rbp)
   12e43:	c7 85 a2 e9 ff ff ff 	movl   $0xffffffff,-0x165e(%rbp)
   12e4a:	ff ff ff 
   12e4d:	0f b7 85 a6 e9 ff ff 	movzwl -0x165a(%rbp),%eax
   12e54:	66 25 00 f8          	and    $0xf800,%ax
   12e58:	83 c8 22             	or     $0x22,%eax
   12e5b:	66 89 85 a6 e9 ff ff 	mov    %ax,-0x165a(%rbp)
   12e62:	0f b6 85 a7 e9 ff ff 	movzbl -0x1659(%rbp),%eax
   12e69:	83 e0 87             	and    $0xffffff87,%eax
   12e6c:	88 85 a7 e9 ff ff    	mov    %al,-0x1659(%rbp)
   12e72:	0f b7 85 a8 e9 ff ff 	movzwl -0x1658(%rbp),%eax
   12e79:	66 25 00 c0          	and    $0xc000,%ax
   12e7d:	66 0d 8c 3f          	or     $0x3f8c,%ax
   12e81:	66 89 85 a8 e9 ff ff 	mov    %ax,-0x1658(%rbp)
   12e88:	66 c7 85 aa e9 ff ff 	movw   $0x0,-0x1656(%rbp)
   12e8f:	00 00 
   12e91:	0f b6 85 ac e9 ff ff 	movzbl -0x1654(%rbp),%eax
   12e98:	83 c8 07             	or     $0x7,%eax
   12e9b:	88 85 ac e9 ff ff    	mov    %al,-0x1654(%rbp)
   12ea1:	8b 85 ac e9 ff ff    	mov    -0x1654(%rbp),%eax
   12ea7:	25 07 00 00 f0       	and    $0xf0000007,%eax
   12eac:	0d d0 b4 00 00       	or     $0xb4d0,%eax
   12eb1:	89 85 ac e9 ff ff    	mov    %eax,-0x1654(%rbp)
   12eb7:	c7 85 b0 e9 ff ff ff 	movl   $0xffffffff,-0x1650(%rbp)
   12ebe:	ff ff ff 
   12ec1:	0f b7 85 b4 e9 ff ff 	movzwl -0x164c(%rbp),%eax
   12ec8:	66 25 00 f8          	and    $0xf800,%ax
   12ecc:	83 c8 22             	or     $0x22,%eax
   12ecf:	66 89 85 b4 e9 ff ff 	mov    %ax,-0x164c(%rbp)
   12ed6:	0f b6 85 b5 e9 ff ff 	movzbl -0x164b(%rbp),%eax
   12edd:	83 e0 87             	and    $0xffffff87,%eax
   12ee0:	88 85 b5 e9 ff ff    	mov    %al,-0x164b(%rbp)
   12ee6:	0f b7 85 b6 e9 ff ff 	movzwl -0x164a(%rbp),%eax
   12eed:	66 25 00 c0          	and    $0xc000,%ax
   12ef1:	66 0d 8c 3f          	or     $0x3f8c,%ax
   12ef5:	66 89 85 b6 e9 ff ff 	mov    %ax,-0x164a(%rbp)
   12efc:	66 c7 85 b8 e9 ff ff 	movw   $0x0,-0x1648(%rbp)
   12f03:	00 00 
   12f05:	0f b6 85 ba e9 ff ff 	movzbl -0x1646(%rbp),%eax
   12f0c:	83 c8 07             	or     $0x7,%eax
   12f0f:	88 85 ba e9 ff ff    	mov    %al,-0x1646(%rbp)
   12f15:	0f b7 85 ba e9 ff ff 	movzwl -0x1646(%rbp),%eax
   12f1c:	83 e0 07             	and    $0x7,%eax
   12f1f:	66 0d d0 b4          	or     $0xb4d0,%ax
   12f23:	66 89 85 ba e9 ff ff 	mov    %ax,-0x1646(%rbp)
   12f2a:	0f b7 85 bc e9 ff ff 	movzwl -0x1644(%rbp),%eax
   12f31:	66 25 00 f0          	and    $0xf000,%ax
   12f35:	66 89 85 bc e9 ff ff 	mov    %ax,-0x1644(%rbp)
   12f3c:	c7 85 be e9 ff ff ff 	movl   $0xffffffff,-0x1642(%rbp)
   12f43:	ff ff ff 
   12f46:	0f b7 85 c2 e9 ff ff 	movzwl -0x163e(%rbp),%eax
   12f4d:	66 25 00 f8          	and    $0xf800,%ax
   12f51:	83 c8 22             	or     $0x22,%eax
   12f54:	66 89 85 c2 e9 ff ff 	mov    %ax,-0x163e(%rbp)
   12f5b:	0f b6 85 c3 e9 ff ff 	movzbl -0x163d(%rbp),%eax
   12f62:	83 e0 87             	and    $0xffffff87,%eax
   12f65:	88 85 c3 e9 ff ff    	mov    %al,-0x163d(%rbp)
   12f6b:	0f b7 85 c4 e9 ff ff 	movzwl -0x163c(%rbp),%eax
   12f72:	66 25 00 c0          	and    $0xc000,%ax
   12f76:	66 0d 8c 3f          	or     $0x3f8c,%ax
   12f7a:	66 89 85 c4 e9 ff ff 	mov    %ax,-0x163c(%rbp)
   12f81:	66 c7 85 c6 e9 ff ff 	movw   $0x0,-0x163a(%rbp)
   12f88:	00 00 
   12f8a:	0f b6 85 c8 e9 ff ff 	movzbl -0x1638(%rbp),%eax
   12f91:	83 c8 07             	or     $0x7,%eax
   12f94:	88 85 c8 e9 ff ff    	mov    %al,-0x1638(%rbp)
   12f9a:	8b 85 c8 e9 ff ff    	mov    -0x1638(%rbp),%eax
   12fa0:	25 07 00 00 f0       	and    $0xf0000007,%eax
   12fa5:	0d d0 b4 00 00       	or     $0xb4d0,%eax
   12faa:	89 85 c8 e9 ff ff    	mov    %eax,-0x1638(%rbp)
   12fb0:	c7 85 cc e9 ff ff ff 	movl   $0xffffffff,-0x1634(%rbp)
   12fb7:	ff ff ff 
   12fba:	0f b7 85 d0 e9 ff ff 	movzwl -0x1630(%rbp),%eax
   12fc1:	66 25 00 f8          	and    $0xf800,%ax
   12fc5:	83 c8 22             	or     $0x22,%eax
   12fc8:	66 89 85 d0 e9 ff ff 	mov    %ax,-0x1630(%rbp)
   12fcf:	0f b6 85 d1 e9 ff ff 	movzbl -0x162f(%rbp),%eax
   12fd6:	83 e0 87             	and    $0xffffff87,%eax
   12fd9:	88 85 d1 e9 ff ff    	mov    %al,-0x162f(%rbp)
   12fdf:	0f b7 85 d2 e9 ff ff 	movzwl -0x162e(%rbp),%eax
   12fe6:	66 25 00 c0          	and    $0xc000,%ax
   12fea:	66 0d 8c 3f          	or     $0x3f8c,%ax
   12fee:	66 89 85 d2 e9 ff ff 	mov    %ax,-0x162e(%rbp)
   12ff5:	66 c7 85 d4 e9 ff ff 	movw   $0x0,-0x162c(%rbp)
   12ffc:	00 00 
   12ffe:	0f b6 85 d6 e9 ff ff 	movzbl -0x162a(%rbp),%eax
   13005:	83 c8 07             	or     $0x7,%eax
   13008:	88 85 d6 e9 ff ff    	mov    %al,-0x162a(%rbp)
   1300e:	0f b7 85 d6 e9 ff ff 	movzwl -0x162a(%rbp),%eax
   13015:	83 e0 07             	and    $0x7,%eax
   13018:	66 0d d0 b4          	or     $0xb4d0,%ax
   1301c:	66 89 85 d6 e9 ff ff 	mov    %ax,-0x162a(%rbp)
   13023:	0f b7 85 d8 e9 ff ff 	movzwl -0x1628(%rbp),%eax
   1302a:	66 25 00 f0          	and    $0xf000,%ax
   1302e:	66 89 85 d8 e9 ff ff 	mov    %ax,-0x1628(%rbp)
   13035:	c7 85 da e9 ff ff ff 	movl   $0xffffffff,-0x1626(%rbp)
   1303c:	ff ff ff 
   1303f:	0f b7 85 de e9 ff ff 	movzwl -0x1622(%rbp),%eax
   13046:	66 25 00 f8          	and    $0xf800,%ax
   1304a:	83 c8 22             	or     $0x22,%eax
   1304d:	66 89 85 de e9 ff ff 	mov    %ax,-0x1622(%rbp)
   13054:	0f b6 85 df e9 ff ff 	movzbl -0x1621(%rbp),%eax
   1305b:	83 e0 87             	and    $0xffffff87,%eax
   1305e:	88 85 df e9 ff ff    	mov    %al,-0x1621(%rbp)
   13064:	0f b7 85 e0 e9 ff ff 	movzwl -0x1620(%rbp),%eax
   1306b:	66 25 00 c0          	and    $0xc000,%ax
   1306f:	66 0d 8c 3f          	or     $0x3f8c,%ax
   13073:	66 89 85 e0 e9 ff ff 	mov    %ax,-0x1620(%rbp)
   1307a:	66 c7 85 e2 e9 ff ff 	movw   $0x0,-0x161e(%rbp)
   13081:	00 00 
   13083:	0f b6 85 e4 e9 ff ff 	movzbl -0x161c(%rbp),%eax
   1308a:	83 c8 07             	or     $0x7,%eax
   1308d:	88 85 e4 e9 ff ff    	mov    %al,-0x161c(%rbp)
   13093:	8b 85 e4 e9 ff ff    	mov    -0x161c(%rbp),%eax
   13099:	25 07 00 00 f0       	and    $0xf0000007,%eax
   1309e:	0d d0 b4 00 00       	or     $0xb4d0,%eax
   130a3:	89 85 e4 e9 ff ff    	mov    %eax,-0x161c(%rbp)
   130a9:	c7 85 e8 e9 ff ff ff 	movl   $0xffffffff,-0x1618(%rbp)
   130b0:	ff ff ff 
   130b3:	0f b7 85 ec e9 ff ff 	movzwl -0x1614(%rbp),%eax
   130ba:	66 25 00 f8          	and    $0xf800,%ax
   130be:	83 c8 22             	or     $0x22,%eax
   130c1:	66 89 85 ec e9 ff ff 	mov    %ax,-0x1614(%rbp)
   130c8:	0f b6 85 ed e9 ff ff 	movzbl -0x1613(%rbp),%eax
   130cf:	83 e0 87             	and    $0xffffff87,%eax
   130d2:	88 85 ed e9 ff ff    	mov    %al,-0x1613(%rbp)
   130d8:	c7 05 c6 9f 00 00 e7 	movl   $0xffffffe7,0x9fc6(%rip)        # 1d0a8 <g_157>
   130df:	ff ff ff 
   130e2:	e9 67 04 00 00       	jmpq   1354e <func_39+0x1f52>
   130e7:	48 c7 85 38 e7 ff ff 	movq   $0x1,-0x18c8(%rbp)
   130ee:	01 00 00 00 
   130f2:	48 8d 05 97 d5 00 00 	lea    0xd597(%rip),%rax        # 20690 <g_225>
   130f9:	48 89 85 a0 e4 ff ff 	mov    %rax,-0x1b60(%rbp)
   13100:	48 8d 85 a0 e4 ff ff 	lea    -0x1b60(%rbp),%rax
   13107:	48 89 85 40 e7 ff ff 	mov    %rax,-0x18c0(%rbp)
   1310e:	48 c7 85 48 e7 ff ff 	movq   $0x0,-0x18b8(%rbp)
   13115:	00 00 00 00 
   13119:	0f b7 85 b4 e3 ff ff 	movzwl -0x1c4c(%rbp),%eax
   13120:	83 e8 01             	sub    $0x1,%eax
   13123:	66 89 85 b4 e3 ff ff 	mov    %ax,-0x1c4c(%rbp)
   1312a:	66 c7 05 05 9f 00 00 	movw   $0x3,0x9f05(%rip)        # 1d038 <g_53>
   13131:	03 00 
   13133:	e9 9e 02 00 00       	jmpq   133d6 <func_39+0x1dda>
   13138:	48 c7 85 e0 f7 ff ff 	movq   $0x0,-0x820(%rbp)
   1313f:	00 00 00 00 
   13143:	48 c7 85 e8 f7 ff ff 	movq   $0x0,-0x818(%rbp)
   1314a:	00 00 00 00 
   1314e:	48 8d 05 33 9f 00 00 	lea    0x9f33(%rip),%rax        # 1d088 <g_106>
   13155:	48 89 85 f0 f7 ff ff 	mov    %rax,-0x810(%rbp)
   1315c:	48 c7 85 f8 f7 ff ff 	movq   $0x0,-0x808(%rbp)
   13163:	00 00 00 00 
   13167:	48 8d 05 1a 9f 00 00 	lea    0x9f1a(%rip),%rax        # 1d088 <g_106>
   1316e:	48 89 85 00 f8 ff ff 	mov    %rax,-0x800(%rbp)
   13175:	48 c7 85 08 f8 ff ff 	movq   $0x0,-0x7f8(%rbp)
   1317c:	00 00 00 00 
   13180:	48 c7 85 10 f8 ff ff 	movq   $0x0,-0x7f0(%rbp)
   13187:	00 00 00 00 
   1318b:	48 8d 05 16 9f 00 00 	lea    0x9f16(%rip),%rax        # 1d0a8 <g_157>
   13192:	48 89 85 18 f8 ff ff 	mov    %rax,-0x7e8(%rbp)
   13199:	48 8d 85 80 e8 ff ff 	lea    -0x1780(%rbp),%rax
   131a0:	48 83 c0 04          	add    $0x4,%rax
   131a4:	48 89 85 20 f8 ff ff 	mov    %rax,-0x7e0(%rbp)
   131ab:	48 8d 05 72 9e 00 00 	lea    0x9e72(%rip),%rax        # 1d024 <g_9>
   131b2:	48 89 85 28 f8 ff ff 	mov    %rax,-0x7d8(%rbp)
   131b9:	48 8d 85 80 e8 ff ff 	lea    -0x1780(%rbp),%rax
   131c0:	48 83 c0 04          	add    $0x4,%rax
   131c4:	48 89 85 30 f8 ff ff 	mov    %rax,-0x7d0(%rbp)
   131cb:	48 8d 05 d6 9e 00 00 	lea    0x9ed6(%rip),%rax        # 1d0a8 <g_157>
   131d2:	48 89 85 38 f8 ff ff 	mov    %rax,-0x7c8(%rbp)
   131d9:	48 8d 05 c8 9e 00 00 	lea    0x9ec8(%rip),%rax        # 1d0a8 <g_157>
   131e0:	48 89 85 40 f8 ff ff 	mov    %rax,-0x7c0(%rbp)
   131e7:	48 8d 85 80 e8 ff ff 	lea    -0x1780(%rbp),%rax
   131ee:	48 83 c0 04          	add    $0x4,%rax
   131f2:	48 89 85 48 f8 ff ff 	mov    %rax,-0x7b8(%rbp)
   131f9:	48 8d 85 c4 e3 ff ff 	lea    -0x1c3c(%rbp),%rax
   13200:	48 89 85 50 f8 ff ff 	mov    %rax,-0x7b0(%rbp)
   13207:	48 8d 85 80 e8 ff ff 	lea    -0x1780(%rbp),%rax
   1320e:	48 89 85 58 f8 ff ff 	mov    %rax,-0x7a8(%rbp)
   13215:	48 8d 85 c4 e3 ff ff 	lea    -0x1c3c(%rbp),%rax
   1321c:	48 89 85 60 f8 ff ff 	mov    %rax,-0x7a0(%rbp)
   13223:	48 8d 05 fa 9d 00 00 	lea    0x9dfa(%rip),%rax        # 1d024 <g_9>
   1322a:	48 89 85 68 f8 ff ff 	mov    %rax,-0x798(%rbp)
   13231:	48 8d 05 50 9e 00 00 	lea    0x9e50(%rip),%rax        # 1d088 <g_106>
   13238:	48 89 85 70 f8 ff ff 	mov    %rax,-0x790(%rbp)
   1323f:	48 8d 05 62 9e 00 00 	lea    0x9e62(%rip),%rax        # 1d0a8 <g_157>
   13246:	48 89 85 78 f8 ff ff 	mov    %rax,-0x788(%rbp)
   1324d:	48 c7 85 80 f8 ff ff 	movq   $0x0,-0x780(%rbp)
   13254:	00 00 00 00 
   13258:	48 8d 85 80 e8 ff ff 	lea    -0x1780(%rbp),%rax
   1325f:	48 83 c0 04          	add    $0x4,%rax
   13263:	48 89 85 88 f8 ff ff 	mov    %rax,-0x778(%rbp)
   1326a:	48 8d 05 b3 9d 00 00 	lea    0x9db3(%rip),%rax        # 1d024 <g_9>
   13271:	48 89 85 90 f8 ff ff 	mov    %rax,-0x770(%rbp)
   13278:	48 8d 05 a5 9d 00 00 	lea    0x9da5(%rip),%rax        # 1d024 <g_9>
   1327f:	48 89 85 98 f8 ff ff 	mov    %rax,-0x768(%rbp)
   13286:	48 8d 05 97 9d 00 00 	lea    0x9d97(%rip),%rax        # 1d024 <g_9>
   1328d:	48 89 85 a0 f8 ff ff 	mov    %rax,-0x760(%rbp)
   13294:	48 8d 05 89 9d 00 00 	lea    0x9d89(%rip),%rax        # 1d024 <g_9>
   1329b:	48 89 85 a8 f8 ff ff 	mov    %rax,-0x758(%rbp)
   132a2:	48 8d 85 80 e8 ff ff 	lea    -0x1780(%rbp),%rax
   132a9:	48 83 c0 04          	add    $0x4,%rax
   132ad:	48 89 85 b0 f8 ff ff 	mov    %rax,-0x750(%rbp)
   132b4:	48 8d 05 69 9d 00 00 	lea    0x9d69(%rip),%rax        # 1d024 <g_9>
   132bb:	48 89 85 b8 f8 ff ff 	mov    %rax,-0x748(%rbp)
   132c2:	48 8d 85 c4 e3 ff ff 	lea    -0x1c3c(%rbp),%rax
   132c9:	48 89 85 c0 f8 ff ff 	mov    %rax,-0x740(%rbp)
   132d0:	48 8d 05 4d 9d 00 00 	lea    0x9d4d(%rip),%rax        # 1d024 <g_9>
   132d7:	48 89 85 c8 f8 ff ff 	mov    %rax,-0x738(%rbp)
   132de:	48 8d 05 a3 9d 00 00 	lea    0x9da3(%rip),%rax        # 1d088 <g_106>
   132e5:	48 89 85 d0 f8 ff ff 	mov    %rax,-0x730(%rbp)
   132ec:	48 8d 05 b5 9d 00 00 	lea    0x9db5(%rip),%rax        # 1d0a8 <g_157>
   132f3:	48 89 85 d8 f8 ff ff 	mov    %rax,-0x728(%rbp)
   132fa:	48 c7 85 e0 f8 ff ff 	movq   $0x0,-0x720(%rbp)
   13301:	00 00 00 00 
   13305:	48 8d 05 9c 9d 00 00 	lea    0x9d9c(%rip),%rax        # 1d0a8 <g_157>
   1330c:	48 89 85 e8 f8 ff ff 	mov    %rax,-0x718(%rbp)
   13313:	48 8d 05 6e 9d 00 00 	lea    0x9d6e(%rip),%rax        # 1d088 <g_106>
   1331a:	48 89 85 f0 f8 ff ff 	mov    %rax,-0x710(%rbp)
   13321:	48 8d 05 80 9d 00 00 	lea    0x9d80(%rip),%rax        # 1d0a8 <g_157>
   13328:	48 89 85 f8 f8 ff ff 	mov    %rax,-0x708(%rbp)
   1332f:	48 8d 05 72 9d 00 00 	lea    0x9d72(%rip),%rax        # 1d0a8 <g_157>
   13336:	48 89 85 00 f9 ff ff 	mov    %rax,-0x700(%rbp)
   1333d:	48 8d 85 80 e8 ff ff 	lea    -0x1780(%rbp),%rax
   13344:	48 83 c0 04          	add    $0x4,%rax
   13348:	48 89 85 08 f9 ff ff 	mov    %rax,-0x6f8(%rbp)
   1334f:	48 8d 05 ce 9c 00 00 	lea    0x9cce(%rip),%rax        # 1d024 <g_9>
   13356:	48 89 85 10 f9 ff ff 	mov    %rax,-0x6f0(%rbp)
   1335d:	48 8d 85 80 e8 ff ff 	lea    -0x1780(%rbp),%rax
   13364:	48 83 c0 04          	add    $0x4,%rax
   13368:	48 89 85 18 f9 ff ff 	mov    %rax,-0x6e8(%rbp)
   1336f:	48 8d 05 32 9d 00 00 	lea    0x9d32(%rip),%rax        # 1d0a8 <g_157>
   13376:	48 89 85 20 f9 ff ff 	mov    %rax,-0x6e0(%rbp)
   1337d:	48 8d 05 24 9d 00 00 	lea    0x9d24(%rip),%rax        # 1d0a8 <g_157>
   13384:	48 89 85 28 f9 ff ff 	mov    %rax,-0x6d8(%rbp)
   1338b:	48 8d 85 60 e4 ff ff 	lea    -0x1ba0(%rbp),%rax
   13392:	48 89 85 50 e7 ff ff 	mov    %rax,-0x18b0(%rbp)
   13399:	48 8b 85 e0 f8 ff ff 	mov    -0x720(%rbp),%rax
   133a0:	48 89 85 f8 e4 ff ff 	mov    %rax,-0x1b08(%rbp)
   133a7:	48 8b 85 50 e7 ff ff 	mov    -0x18b0(%rbp),%rax
   133ae:	48 8b 95 f8 e4 ff ff 	mov    -0x1b08(%rbp),%rdx
   133b5:	48 89 10             	mov    %rdx,(%rax)
   133b8:	48 8b 05 e1 cf 00 00 	mov    0xcfe1(%rip),%rax        # 203a0 <g_34>
   133bf:	c7 00 01 00 00 00    	movl   $0x1,(%rax)
   133c5:	0f b7 05 6c 9c 00 00 	movzwl 0x9c6c(%rip),%eax        # 1d038 <g_53>
   133cc:	83 c0 01             	add    $0x1,%eax
   133cf:	66 89 05 62 9c 00 00 	mov    %ax,0x9c62(%rip)        # 1d038 <g_53>
   133d6:	0f b7 05 5b 9c 00 00 	movzwl 0x9c5b(%rip),%eax        # 1d038 <g_53>
   133dd:	66 83 f8 10          	cmp    $0x10,%ax
   133e1:	0f 87 51 fd ff ff    	ja     13138 <func_39+0x1b3c>
   133e7:	0f b7 9d b4 e3 ff ff 	movzwl -0x1c4c(%rbp),%ebx
   133ee:	44 0f b6 a5 98 e3 ff 	movzbl -0x1c68(%rbp),%r12d
   133f5:	ff 
   133f6:	48 8d 05 9b d2 00 00 	lea    0xd29b(%rip),%rax        # 20698 <g_224>
   133fd:	48 39 85 40 e7 ff ff 	cmp    %rax,-0x18c0(%rbp)
   13404:	0f 95 c0             	setne  %al
   13407:	89 c2                	mov    %eax,%edx
   13409:	48 8b 85 38 e7 ff ff 	mov    -0x18c8(%rbp),%rax
   13410:	09 d0                	or     %edx,%eax
   13412:	0f b6 c0             	movzbl %al,%eax
   13415:	be ff 00 00 00       	mov    $0xff,%esi
   1341a:	89 c7                	mov    %eax,%edi
   1341c:	e8 72 87 ff ff       	callq  bb93 <safe_mul_func_uint8_t_u_u>
   13421:	0f b6 d0             	movzbl %al,%edx
   13424:	8b 05 5e 9c 00 00    	mov    0x9c5e(%rip),%eax        # 1d088 <g_106>
   1342a:	21 d0                	and    %edx,%eax
   1342c:	89 05 56 9c 00 00    	mov    %eax,0x9c56(%rip)        # 1d088 <g_106>
   13432:	be 02 00 00 00       	mov    $0x2,%esi
   13437:	bf b6 ff ff ff       	mov    $0xffffffb6,%edi
   1343c:	e8 60 7e ff ff       	callq  b2a1 <safe_lshift_func_int8_t_s_s>
   13441:	0f b6 c0             	movzbl %al,%eax
   13444:	89 c7                	mov    %eax,%edi
   13446:	e8 fa 86 ff ff       	callq  bb45 <safe_unary_minus_func_uint8_t_u>
   1344b:	0f b6 d0             	movzbl %al,%edx
   1344e:	0f b7 85 b0 e3 ff ff 	movzwl -0x1c50(%rbp),%eax
   13455:	0f b7 c8             	movzwl %ax,%ecx
   13458:	48 8d 85 b0 e3 ff ff 	lea    -0x1c50(%rbp),%rax
   1345f:	48 39 85 48 e7 ff ff 	cmp    %rax,-0x18b8(%rbp)
   13466:	0f 95 c0             	setne  %al
   13469:	0f b6 c0             	movzbl %al,%eax
   1346c:	39 c1                	cmp    %eax,%ecx
   1346e:	0f 9d c0             	setge  %al
   13471:	0f b6 c0             	movzbl %al,%eax
   13474:	21 d0                	and    %edx,%eax
   13476:	48 98                	cltq   
   13478:	48 89 85 a8 e4 ff ff 	mov    %rax,-0x1b58(%rbp)
   1347f:	4c 39 a5 a8 e4 ff ff 	cmp    %r12,-0x1b58(%rbp)
   13486:	0f 96 c0             	setbe  %al
   13489:	0f b6 c0             	movzbl %al,%eax
   1348c:	be 00 00 00 00       	mov    $0x0,%esi
   13491:	89 c7                	mov    %eax,%edi
   13493:	e8 87 88 ff ff       	callq  bd1f <safe_sub_func_uint16_t_u_u>
   13498:	66 85 c0             	test   %ax,%ax
   1349b:	74 11                	je     134ae <func_39+0x1eb2>
   1349d:	48 83 bd a8 e4 ff ff 	cmpq   $0x0,-0x1b58(%rbp)
   134a4:	00 
   134a5:	74 07                	je     134ae <func_39+0x1eb2>
   134a7:	ba 01 00 00 00       	mov    $0x1,%edx
   134ac:	eb 05                	jmp    134b3 <func_39+0x1eb7>
   134ae:	ba 00 00 00 00       	mov    $0x0,%edx
   134b3:	48 8b 85 40 e7 ff ff 	mov    -0x18c0(%rbp),%rax
   134ba:	48 8b 00             	mov    (%rax),%rax
   134bd:	48 8b 00             	mov    (%rax),%rax
   134c0:	48 8b 08             	mov    (%rax),%rcx
   134c3:	48 63 d2             	movslq %edx,%rdx
   134c6:	48 8b 85 40 e7 ff ff 	mov    -0x18c0(%rbp),%rax
   134cd:	48 8b 00             	mov    (%rax),%rax
   134d0:	48 8b 00             	mov    (%rax),%rax
   134d3:	48 31 ca             	xor    %rcx,%rdx
   134d6:	48 89 10             	mov    %rdx,(%rax)
   134d9:	48 8b 10             	mov    (%rax),%rdx
   134dc:	0f b6 05 6d 9b 00 00 	movzbl 0x9b6d(%rip),%eax        # 1d050 <g_92>
   134e3:	48 0f be c0          	movsbq %al,%rax
   134e7:	48 39 c2             	cmp    %rax,%rdx
   134ea:	0f 96 c0             	setbe  %al
   134ed:	0f b6 d0             	movzbl %al,%edx
   134f0:	0f b6 85 98 e3 ff ff 	movzbl -0x1c68(%rbp),%eax
   134f7:	09 d0                	or     %edx,%eax
   134f9:	89 c2                	mov    %eax,%edx
   134fb:	0f b6 85 98 e3 ff ff 	movzbl -0x1c68(%rbp),%eax
   13502:	89 d6                	mov    %edx,%esi
   13504:	89 c7                	mov    %eax,%edi
   13506:	e8 6f 89 ff ff       	callq  be7a <safe_rshift_func_uint16_t_u_u>
   1350b:	bf 00 00 00 00       	mov    $0x0,%edi
   13510:	e8 81 80 ff ff       	callq  b596 <safe_unary_minus_func_int32_t_s>
   13515:	48 98                	cltq   
   13517:	48 89 de             	mov    %rbx,%rsi
   1351a:	48 89 c7             	mov    %rax,%rdi
   1351d:	e8 0c 8b ff ff       	callq  c02e <safe_add_func_uint64_t_u_u>
   13522:	8b 95 80 e8 ff ff    	mov    -0x1780(%rbp),%edx
   13528:	31 d0                	xor    %edx,%eax
   1352a:	89 85 80 e8 ff ff    	mov    %eax,-0x1780(%rbp)
   13530:	8b 05 72 9b 00 00    	mov    0x9b72(%rip),%eax        # 1d0a8 <g_157>
   13536:	0f be c0             	movsbl %al,%eax
   13539:	be 05 00 00 00       	mov    $0x5,%esi
   1353e:	89 c7                	mov    %eax,%edi
   13540:	e8 8f 7c ff ff       	callq  b1d4 <safe_add_func_int8_t_s_s>
   13545:	0f be c0             	movsbl %al,%eax
   13548:	89 05 5a 9b 00 00    	mov    %eax,0x9b5a(%rip)        # 1d0a8 <g_157>
   1354e:	8b 05 54 9b 00 00    	mov    0x9b54(%rip),%eax        # 1d0a8 <g_157>
   13554:	83 f8 13             	cmp    $0x13,%eax
   13557:	0f 8f 8a fb ff ff    	jg     130e7 <func_39+0x1aeb>
   1355d:	48 83 bd a8 e4 ff ff 	cmpq   $0x0,-0x1b58(%rbp)
   13564:	00 
   13565:	74 60                	je     135c7 <func_39+0x1fcb>
   13567:	48 b8 72 ac f0 ce d1 	movabs $0xd90661d1cef0ac72,%rax
   1356e:	61 06 d9 
   13571:	48 89 85 30 e7 ff ff 	mov    %rax,-0x18d0(%rbp)
   13578:	48 83 bd 30 e7 ff ff 	cmpq   $0x0,-0x18d0(%rbp)
   1357f:	00 
   13580:	0f 85 a7 0e 00 00    	jne    1442d <func_39+0x2e31>
   13586:	66 c7 85 b0 e3 ff ff 	movw   $0x0,-0x1c50(%rbp)
   1358d:	00 00 
   1358f:	eb 24                	jmp    135b5 <func_39+0x1fb9>
   13591:	0f b6 95 9c e3 ff ff 	movzbl -0x1c64(%rbp),%edx
   13598:	48 8b 05 01 ce 00 00 	mov    0xce01(%rip),%rax        # 203a0 <g_34>
   1359f:	0f be d2             	movsbl %dl,%edx
   135a2:	89 10                	mov    %edx,(%rax)
   135a4:	0f b7 85 b0 e3 ff ff 	movzwl -0x1c50(%rbp),%eax
   135ab:	83 c0 01             	add    $0x1,%eax
   135ae:	66 89 85 b0 e3 ff ff 	mov    %ax,-0x1c50(%rbp)
   135b5:	0f b7 85 b0 e3 ff ff 	movzwl -0x1c50(%rbp),%eax
   135bc:	66 83 f8 01          	cmp    $0x1,%ax
   135c0:	76 cf                	jbe    13591 <func_39+0x1f95>
   135c2:	e9 5a 0e 00 00       	jmpq   14421 <func_39+0x2e25>
   135c7:	48 c7 85 f8 e5 ff ff 	movq   $0x0,-0x1a08(%rbp)
   135ce:	00 00 00 00 
   135d2:	48 8d 85 58 e4 ff ff 	lea    -0x1ba8(%rbp),%rax
   135d9:	48 89 85 40 ee ff ff 	mov    %rax,-0x11c0(%rbp)
   135e0:	48 8d 85 40 e8 ff ff 	lea    -0x17c0(%rbp),%rax
   135e7:	48 89 85 48 ee ff ff 	mov    %rax,-0x11b8(%rbp)
   135ee:	48 8d 85 40 e8 ff ff 	lea    -0x17c0(%rbp),%rax
   135f5:	48 89 85 50 ee ff ff 	mov    %rax,-0x11b0(%rbp)
   135fc:	48 8d 85 b0 ec ff ff 	lea    -0x1350(%rbp),%rax
   13603:	48 05 40 01 00 00    	add    $0x140,%rax
   13609:	48 89 85 58 ee ff ff 	mov    %rax,-0x11a8(%rbp)
   13610:	48 c7 85 60 ee ff ff 	movq   $0x0,-0x11a0(%rbp)
   13617:	00 00 00 00 
   1361b:	48 8d 85 58 e4 ff ff 	lea    -0x1ba8(%rbp),%rax
   13622:	48 89 85 68 ee ff ff 	mov    %rax,-0x1198(%rbp)
   13629:	48 8d 85 40 e8 ff ff 	lea    -0x17c0(%rbp),%rax
   13630:	48 83 c0 10          	add    $0x10,%rax
   13634:	48 89 85 70 ee ff ff 	mov    %rax,-0x1190(%rbp)
   1363b:	48 8d 85 b0 ec ff ff 	lea    -0x1350(%rbp),%rax
   13642:	48 05 f8 00 00 00    	add    $0xf8,%rax
   13648:	48 89 85 78 ee ff ff 	mov    %rax,-0x1188(%rbp)
   1364f:	48 8d 85 40 e8 ff ff 	lea    -0x17c0(%rbp),%rax
   13656:	48 83 c0 10          	add    $0x10,%rax
   1365a:	48 89 85 80 ee ff ff 	mov    %rax,-0x1180(%rbp)
   13661:	48 8d 85 58 e4 ff ff 	lea    -0x1ba8(%rbp),%rax
   13668:	48 89 85 88 ee ff ff 	mov    %rax,-0x1178(%rbp)
   1366f:	48 8d 85 58 e4 ff ff 	lea    -0x1ba8(%rbp),%rax
   13676:	48 89 85 90 ee ff ff 	mov    %rax,-0x1170(%rbp)
   1367d:	48 8d 85 40 e8 ff ff 	lea    -0x17c0(%rbp),%rax
   13684:	48 83 c0 10          	add    $0x10,%rax
   13688:	48 89 85 98 ee ff ff 	mov    %rax,-0x1168(%rbp)
   1368f:	48 8d 85 b0 ec ff ff 	lea    -0x1350(%rbp),%rax
   13696:	48 05 f8 00 00 00    	add    $0xf8,%rax
   1369c:	48 89 85 a0 ee ff ff 	mov    %rax,-0x1160(%rbp)
   136a3:	48 8d 85 40 e8 ff ff 	lea    -0x17c0(%rbp),%rax
   136aa:	48 83 c0 10          	add    $0x10,%rax
   136ae:	48 89 85 a8 ee ff ff 	mov    %rax,-0x1158(%rbp)
   136b5:	48 8d 85 58 e4 ff ff 	lea    -0x1ba8(%rbp),%rax
   136bc:	48 89 85 b0 ee ff ff 	mov    %rax,-0x1150(%rbp)
   136c3:	48 c7 85 b8 ee ff ff 	movq   $0x0,-0x1148(%rbp)
   136ca:	00 00 00 00 
   136ce:	48 8d 85 b0 ec ff ff 	lea    -0x1350(%rbp),%rax
   136d5:	48 05 40 01 00 00    	add    $0x140,%rax
   136db:	48 89 85 c0 ee ff ff 	mov    %rax,-0x1140(%rbp)
   136e2:	48 8d 85 40 e8 ff ff 	lea    -0x17c0(%rbp),%rax
   136e9:	48 89 85 c8 ee ff ff 	mov    %rax,-0x1138(%rbp)
   136f0:	48 8d 85 40 e8 ff ff 	lea    -0x17c0(%rbp),%rax
   136f7:	48 89 85 d0 ee ff ff 	mov    %rax,-0x1130(%rbp)
   136fe:	48 8d 85 58 e4 ff ff 	lea    -0x1ba8(%rbp),%rax
   13705:	48 89 85 d8 ee ff ff 	mov    %rax,-0x1128(%rbp)
   1370c:	48 8d 85 40 e8 ff ff 	lea    -0x17c0(%rbp),%rax
   13713:	48 83 c0 10          	add    $0x10,%rax
   13717:	48 89 85 e0 ee ff ff 	mov    %rax,-0x1120(%rbp)
   1371e:	48 8d 85 40 e8 ff ff 	lea    -0x17c0(%rbp),%rax
   13725:	48 89 85 e8 ee ff ff 	mov    %rax,-0x1118(%rbp)
   1372c:	48 8d 85 b0 ec ff ff 	lea    -0x1350(%rbp),%rax
   13733:	48 83 e8 80          	sub    $0xffffffffffffff80,%rax
   13737:	48 89 85 f0 ee ff ff 	mov    %rax,-0x1110(%rbp)
   1373e:	48 8d 85 40 e8 ff ff 	lea    -0x17c0(%rbp),%rax
   13745:	48 83 c0 08          	add    $0x8,%rax
   13749:	48 89 85 f8 ee ff ff 	mov    %rax,-0x1108(%rbp)
   13750:	48 8d 85 b0 ec ff ff 	lea    -0x1350(%rbp),%rax
   13757:	48 05 58 01 00 00    	add    $0x158,%rax
   1375d:	48 89 85 00 ef ff ff 	mov    %rax,-0x1100(%rbp)
   13764:	48 8d 85 40 e8 ff ff 	lea    -0x17c0(%rbp),%rax
   1376b:	48 83 c0 10          	add    $0x10,%rax
   1376f:	48 89 85 08 ef ff ff 	mov    %rax,-0x10f8(%rbp)
   13776:	48 c7 85 10 ef ff ff 	movq   $0x0,-0x10f0(%rbp)
   1377d:	00 00 00 00 
   13781:	48 8d 85 58 e4 ff ff 	lea    -0x1ba8(%rbp),%rax
   13788:	48 89 85 18 ef ff ff 	mov    %rax,-0x10e8(%rbp)
   1378f:	48 8d 85 b0 ec ff ff 	lea    -0x1350(%rbp),%rax
   13796:	48 05 58 01 00 00    	add    $0x158,%rax
   1379c:	48 89 85 20 ef ff ff 	mov    %rax,-0x10e0(%rbp)
   137a3:	48 8d 85 58 e4 ff ff 	lea    -0x1ba8(%rbp),%rax
   137aa:	48 89 85 28 ef ff ff 	mov    %rax,-0x10d8(%rbp)
   137b1:	48 8d 85 58 e4 ff ff 	lea    -0x1ba8(%rbp),%rax
   137b8:	48 89 85 30 ef ff ff 	mov    %rax,-0x10d0(%rbp)
   137bf:	48 8d 85 40 e8 ff ff 	lea    -0x17c0(%rbp),%rax
   137c6:	48 83 c0 08          	add    $0x8,%rax
   137ca:	48 89 85 38 ef ff ff 	mov    %rax,-0x10c8(%rbp)
   137d1:	48 8d 85 58 e4 ff ff 	lea    -0x1ba8(%rbp),%rax
   137d8:	48 89 85 40 ef ff ff 	mov    %rax,-0x10c0(%rbp)
   137df:	48 8d 85 40 e8 ff ff 	lea    -0x17c0(%rbp),%rax
   137e6:	48 89 85 48 ef ff ff 	mov    %rax,-0x10b8(%rbp)
   137ed:	48 8d 85 58 e4 ff ff 	lea    -0x1ba8(%rbp),%rax
   137f4:	48 89 85 50 ef ff ff 	mov    %rax,-0x10b0(%rbp)
   137fb:	48 8d 85 b0 ec ff ff 	lea    -0x1350(%rbp),%rax
   13802:	48 05 f8 00 00 00    	add    $0xf8,%rax
   13808:	48 89 85 58 ef ff ff 	mov    %rax,-0x10a8(%rbp)
   1380f:	48 8d 85 40 e8 ff ff 	lea    -0x17c0(%rbp),%rax
   13816:	48 83 c0 10          	add    $0x10,%rax
   1381a:	48 89 85 60 ef ff ff 	mov    %rax,-0x10a0(%rbp)
   13821:	48 8d 85 40 e8 ff ff 	lea    -0x17c0(%rbp),%rax
   13828:	48 83 c0 10          	add    $0x10,%rax
   1382c:	48 89 85 68 ef ff ff 	mov    %rax,-0x1098(%rbp)
   13833:	48 8d 85 b0 ec ff ff 	lea    -0x1350(%rbp),%rax
   1383a:	48 05 f8 00 00 00    	add    $0xf8,%rax
   13840:	48 89 85 70 ef ff ff 	mov    %rax,-0x1090(%rbp)
   13847:	48 8d 85 58 e4 ff ff 	lea    -0x1ba8(%rbp),%rax
   1384e:	48 89 85 78 ef ff ff 	mov    %rax,-0x1088(%rbp)
   13855:	48 8d 85 58 e4 ff ff 	lea    -0x1ba8(%rbp),%rax
   1385c:	48 89 85 80 ef ff ff 	mov    %rax,-0x1080(%rbp)
   13863:	48 c7 85 88 ef ff ff 	movq   $0x0,-0x1078(%rbp)
   1386a:	00 00 00 00 
   1386e:	48 c7 85 90 ef ff ff 	movq   $0x0,-0x1070(%rbp)
   13875:	00 00 00 00 
   13879:	48 8d 85 58 e4 ff ff 	lea    -0x1ba8(%rbp),%rax
   13880:	48 89 85 98 ef ff ff 	mov    %rax,-0x1068(%rbp)
   13887:	48 c7 85 a0 ef ff ff 	movq   $0x0,-0x1060(%rbp)
   1388e:	00 00 00 00 
   13892:	48 c7 85 a8 ef ff ff 	movq   $0x0,-0x1058(%rbp)
   13899:	00 00 00 00 
   1389d:	48 8d 85 b0 ec ff ff 	lea    -0x1350(%rbp),%rax
   138a4:	48 05 58 01 00 00    	add    $0x158,%rax
   138aa:	48 89 85 b0 ef ff ff 	mov    %rax,-0x1050(%rbp)
   138b1:	48 8d 85 58 e4 ff ff 	lea    -0x1ba8(%rbp),%rax
   138b8:	48 89 85 b8 ef ff ff 	mov    %rax,-0x1048(%rbp)
   138bf:	48 8d 85 b0 ec ff ff 	lea    -0x1350(%rbp),%rax
   138c6:	48 05 40 01 00 00    	add    $0x140,%rax
   138cc:	48 89 85 c0 ef ff ff 	mov    %rax,-0x1040(%rbp)
   138d3:	48 8d 85 40 e8 ff ff 	lea    -0x17c0(%rbp),%rax
   138da:	48 83 c0 10          	add    $0x10,%rax
   138de:	48 89 85 c8 ef ff ff 	mov    %rax,-0x1038(%rbp)
   138e5:	48 8d 85 b0 ec ff ff 	lea    -0x1350(%rbp),%rax
   138ec:	48 05 58 01 00 00    	add    $0x158,%rax
   138f2:	48 89 85 d0 ef ff ff 	mov    %rax,-0x1030(%rbp)
   138f9:	48 8d 85 58 e4 ff ff 	lea    -0x1ba8(%rbp),%rax
   13900:	48 89 85 d8 ef ff ff 	mov    %rax,-0x1028(%rbp)
   13907:	48 8d 85 40 e8 ff ff 	lea    -0x17c0(%rbp),%rax
   1390e:	48 83 c0 10          	add    $0x10,%rax
   13912:	48 89 85 e0 ef ff ff 	mov    %rax,-0x1020(%rbp)
   13919:	48 c7 85 e8 ef ff ff 	movq   $0x0,-0x1018(%rbp)
   13920:	00 00 00 00 
   13924:	48 8d 85 40 e8 ff ff 	lea    -0x17c0(%rbp),%rax
   1392b:	48 83 c0 10          	add    $0x10,%rax
   1392f:	48 89 85 f0 ef ff ff 	mov    %rax,-0x1010(%rbp)
   13936:	48 8d 85 b0 ec ff ff 	lea    -0x1350(%rbp),%rax
   1393d:	48 05 58 01 00 00    	add    $0x158,%rax
   13943:	48 89 85 f8 ef ff ff 	mov    %rax,-0x1008(%rbp)
   1394a:	48 c7 85 00 f0 ff ff 	movq   $0x0,-0x1000(%rbp)
   13951:	00 00 00 00 
   13955:	48 8d 85 b0 ec ff ff 	lea    -0x1350(%rbp),%rax
   1395c:	48 05 58 01 00 00    	add    $0x158,%rax
   13962:	48 89 85 08 f0 ff ff 	mov    %rax,-0xff8(%rbp)
   13969:	48 8d 85 b0 ec ff ff 	lea    -0x1350(%rbp),%rax
   13970:	48 05 40 01 00 00    	add    $0x140,%rax
   13976:	48 89 85 10 f0 ff ff 	mov    %rax,-0xff0(%rbp)
   1397d:	48 8d 85 58 e4 ff ff 	lea    -0x1ba8(%rbp),%rax
   13984:	48 89 85 18 f0 ff ff 	mov    %rax,-0xfe8(%rbp)
   1398b:	48 c7 85 20 f0 ff ff 	movq   $0x0,-0xfe0(%rbp)
   13992:	00 00 00 00 
   13996:	48 c7 85 28 f0 ff ff 	movq   $0x0,-0xfd8(%rbp)
   1399d:	00 00 00 00 
   139a1:	48 8d 85 b0 ec ff ff 	lea    -0x1350(%rbp),%rax
   139a8:	48 05 58 01 00 00    	add    $0x158,%rax
   139ae:	48 89 85 30 f0 ff ff 	mov    %rax,-0xfd0(%rbp)
   139b5:	48 8d 85 58 e4 ff ff 	lea    -0x1ba8(%rbp),%rax
   139bc:	48 89 85 38 f0 ff ff 	mov    %rax,-0xfc8(%rbp)
   139c3:	48 c7 85 40 f0 ff ff 	movq   $0x0,-0xfc0(%rbp)
   139ca:	00 00 00 00 
   139ce:	48 8d 85 58 e4 ff ff 	lea    -0x1ba8(%rbp),%rax
   139d5:	48 89 85 48 f0 ff ff 	mov    %rax,-0xfb8(%rbp)
   139dc:	48 8d 85 b0 ec ff ff 	lea    -0x1350(%rbp),%rax
   139e3:	48 83 e8 80          	sub    $0xffffffffffffff80,%rax
   139e7:	48 89 85 50 f0 ff ff 	mov    %rax,-0xfb0(%rbp)
   139ee:	48 8d 85 58 e4 ff ff 	lea    -0x1ba8(%rbp),%rax
   139f5:	48 89 85 58 f0 ff ff 	mov    %rax,-0xfa8(%rbp)
   139fc:	48 c7 85 60 f0 ff ff 	movq   $0x0,-0xfa0(%rbp)
   13a03:	00 00 00 00 
   13a07:	48 8d 85 b0 ec ff ff 	lea    -0x1350(%rbp),%rax
   13a0e:	48 05 58 01 00 00    	add    $0x158,%rax
   13a14:	48 89 85 68 f0 ff ff 	mov    %rax,-0xf98(%rbp)
   13a1b:	c7 85 90 e4 ff ff b8 	movl   $0xf4a132b8,-0x1b70(%rbp)
   13a22:	32 a1 f4 
   13a25:	48 8d 05 94 96 00 00 	lea    0x9694(%rip),%rax        # 1d0c0 <g_203>
   13a2c:	48 89 85 f0 e9 ff ff 	mov    %rax,-0x1610(%rbp)
   13a33:	48 c7 85 f8 e9 ff ff 	movq   $0x0,-0x1608(%rbp)
   13a3a:	00 00 00 00 
   13a3e:	48 8d 05 7b 96 00 00 	lea    0x967b(%rip),%rax        # 1d0c0 <g_203>
   13a45:	48 89 85 00 ea ff ff 	mov    %rax,-0x1600(%rbp)
   13a4c:	48 c7 85 08 ea ff ff 	movq   $0x0,-0x15f8(%rbp)
   13a53:	00 00 00 00 
   13a57:	48 8d 05 62 96 00 00 	lea    0x9662(%rip),%rax        # 1d0c0 <g_203>
   13a5e:	48 89 85 10 ea ff ff 	mov    %rax,-0x15f0(%rbp)
   13a65:	48 c7 85 18 ea ff ff 	movq   $0x0,-0x15e8(%rbp)
   13a6c:	00 00 00 00 
   13a70:	48 c7 85 20 ea ff ff 	movq   $0x0,-0x15e0(%rbp)
   13a77:	00 00 00 00 
   13a7b:	48 8d 05 3e 96 00 00 	lea    0x963e(%rip),%rax        # 1d0c0 <g_203>
   13a82:	48 89 85 28 ea ff ff 	mov    %rax,-0x15d8(%rbp)
   13a89:	48 c7 85 30 ea ff ff 	movq   $0x0,-0x15d0(%rbp)
   13a90:	00 00 00 00 
   13a94:	48 8d 05 25 96 00 00 	lea    0x9625(%rip),%rax        # 1d0c0 <g_203>
   13a9b:	48 89 85 38 ea ff ff 	mov    %rax,-0x15c8(%rbp)
   13aa2:	48 c7 85 40 ea ff ff 	movq   $0x0,-0x15c0(%rbp)
   13aa9:	00 00 00 00 
   13aad:	48 8d 05 0c 96 00 00 	lea    0x960c(%rip),%rax        # 1d0c0 <g_203>
   13ab4:	48 89 85 48 ea ff ff 	mov    %rax,-0x15b8(%rbp)
   13abb:	48 c7 85 50 ea ff ff 	movq   $0x0,-0x15b0(%rbp)
   13ac2:	00 00 00 00 
   13ac6:	48 c7 85 58 ea ff ff 	movq   $0x0,-0x15a8(%rbp)
   13acd:	00 00 00 00 
   13ad1:	48 8d 05 e8 95 00 00 	lea    0x95e8(%rip),%rax        # 1d0c0 <g_203>
   13ad8:	48 89 85 60 ea ff ff 	mov    %rax,-0x15a0(%rbp)
   13adf:	48 c7 85 68 ea ff ff 	movq   $0x0,-0x1598(%rbp)
   13ae6:	00 00 00 00 
   13aea:	c7 85 98 e4 ff ff 01 	movl   $0x1,-0x1b68(%rbp)
   13af1:	00 00 00 
   13af4:	c7 85 a0 e4 ff ff cf 	movl   $0x99b40cf,-0x1b60(%rbp)
   13afb:	40 9b 09 
   13afe:	c7 85 40 e4 ff ff 00 	movl   $0x0,-0x1bc0(%rbp)
   13b05:	00 00 00 
   13b08:	48 8d 85 80 e8 ff ff 	lea    -0x1780(%rbp),%rax
   13b0f:	48 83 c0 0c          	add    $0xc,%rax
   13b13:	48 89 85 00 e6 ff ff 	mov    %rax,-0x1a00(%rbp)
   13b1a:	48 8d 85 90 e4 ff ff 	lea    -0x1b70(%rbp),%rax
   13b21:	48 89 85 08 e6 ff ff 	mov    %rax,-0x19f8(%rbp)
   13b28:	48 8d 85 98 e4 ff ff 	lea    -0x1b68(%rbp),%rax
   13b2f:	48 89 85 10 e6 ff ff 	mov    %rax,-0x19f0(%rbp)
   13b36:	48 8d 05 4b 95 00 00 	lea    0x954b(%rip),%rax        # 1d088 <g_106>
   13b3d:	48 89 85 18 e6 ff ff 	mov    %rax,-0x19e8(%rbp)
   13b44:	48 8d 85 80 e8 ff ff 	lea    -0x1780(%rbp),%rax
   13b4b:	48 89 85 20 e6 ff ff 	mov    %rax,-0x19e0(%rbp)
   13b52:	48 8d 85 80 e8 ff ff 	lea    -0x1780(%rbp),%rax
   13b59:	48 89 85 28 e6 ff ff 	mov    %rax,-0x19d8(%rbp)
   13b60:	48 8d 85 98 e4 ff ff 	lea    -0x1b68(%rbp),%rax
   13b67:	48 89 85 30 e6 ff ff 	mov    %rax,-0x19d0(%rbp)
   13b6e:	48 8d 85 80 e8 ff ff 	lea    -0x1780(%rbp),%rax
   13b75:	48 89 85 38 e6 ff ff 	mov    %rax,-0x19c8(%rbp)
   13b7c:	48 8d 85 60 e8 ff ff 	lea    -0x17a0(%rbp),%rax
   13b83:	48 83 c0 0c          	add    $0xc,%rax
   13b87:	48 89 85 40 e6 ff ff 	mov    %rax,-0x19c0(%rbp)
   13b8e:	48 8d 85 60 e8 ff ff 	lea    -0x17a0(%rbp),%rax
   13b95:	48 83 c0 08          	add    $0x8,%rax
   13b99:	48 89 85 48 e6 ff ff 	mov    %rax,-0x19b8(%rbp)
   13ba0:	48 8d 85 80 e8 ff ff 	lea    -0x1780(%rbp),%rax
   13ba7:	48 89 85 50 e6 ff ff 	mov    %rax,-0x19b0(%rbp)
   13bae:	48 8d 85 80 e8 ff ff 	lea    -0x1780(%rbp),%rax
   13bb5:	48 89 85 58 e6 ff ff 	mov    %rax,-0x19a8(%rbp)
   13bbc:	48 8d 85 80 e8 ff ff 	lea    -0x1780(%rbp),%rax
   13bc3:	48 83 c0 04          	add    $0x4,%rax
   13bc7:	48 89 85 60 e6 ff ff 	mov    %rax,-0x19a0(%rbp)
   13bce:	48 c7 85 68 e6 ff ff 	movq   $0x0,-0x1998(%rbp)
   13bd5:	00 00 00 00 
   13bd9:	48 8d 85 98 e4 ff ff 	lea    -0x1b68(%rbp),%rax
   13be0:	48 89 85 70 e6 ff ff 	mov    %rax,-0x1990(%rbp)
   13be7:	48 8d 85 80 e8 ff ff 	lea    -0x1780(%rbp),%rax
   13bee:	48 83 c0 18          	add    $0x18,%rax
   13bf2:	48 89 85 78 e6 ff ff 	mov    %rax,-0x1988(%rbp)
   13bf9:	48 8d 05 88 94 00 00 	lea    0x9488(%rip),%rax        # 1d088 <g_106>
   13c00:	48 89 85 80 e6 ff ff 	mov    %rax,-0x1980(%rbp)
   13c07:	48 8d 85 80 e8 ff ff 	lea    -0x1780(%rbp),%rax
   13c0e:	48 89 85 88 e6 ff ff 	mov    %rax,-0x1978(%rbp)
   13c15:	48 8d 85 60 e8 ff ff 	lea    -0x17a0(%rbp),%rax
   13c1c:	48 83 c0 08          	add    $0x8,%rax
   13c20:	48 89 85 90 e6 ff ff 	mov    %rax,-0x1970(%rbp)
   13c27:	48 8d 85 a0 e4 ff ff 	lea    -0x1b60(%rbp),%rax
   13c2e:	48 89 85 98 e6 ff ff 	mov    %rax,-0x1968(%rbp)
   13c35:	48 8d 05 6c 94 00 00 	lea    0x946c(%rip),%rax        # 1d0a8 <g_157>
   13c3c:	48 89 85 a0 e6 ff ff 	mov    %rax,-0x1960(%rbp)
   13c43:	48 8d 85 80 e8 ff ff 	lea    -0x1780(%rbp),%rax
   13c4a:	48 83 c0 10          	add    $0x10,%rax
   13c4e:	48 89 85 a8 e6 ff ff 	mov    %rax,-0x1958(%rbp)
   13c55:	48 8d 85 80 e8 ff ff 	lea    -0x1780(%rbp),%rax
   13c5c:	48 83 c0 0c          	add    $0xc,%rax
   13c60:	48 89 85 b0 e6 ff ff 	mov    %rax,-0x1950(%rbp)
   13c67:	48 8d 85 60 e8 ff ff 	lea    -0x17a0(%rbp),%rax
   13c6e:	48 83 c0 0c          	add    $0xc,%rax
   13c72:	48 89 85 b8 e6 ff ff 	mov    %rax,-0x1948(%rbp)
   13c79:	48 c7 85 60 eb ff ff 	movq   $0x0,-0x14a0(%rbp)
   13c80:	00 00 00 00 
   13c84:	48 c7 85 68 eb ff ff 	movq   $0x0,-0x1498(%rbp)
   13c8b:	00 00 00 00 
   13c8f:	48 c7 85 70 eb ff ff 	movq   $0x0,-0x1490(%rbp)
   13c96:	00 00 00 00 
   13c9a:	48 8d 85 98 e4 ff ff 	lea    -0x1b68(%rbp),%rax
   13ca1:	48 89 85 78 eb ff ff 	mov    %rax,-0x1488(%rbp)
   13ca8:	48 c7 85 80 eb ff ff 	movq   $0x0,-0x1480(%rbp)
   13caf:	00 00 00 00 
   13cb3:	48 8d 85 c4 e3 ff ff 	lea    -0x1c3c(%rbp),%rax
   13cba:	48 89 85 88 eb ff ff 	mov    %rax,-0x1478(%rbp)
   13cc1:	48 8d 85 c4 e3 ff ff 	lea    -0x1c3c(%rbp),%rax
   13cc8:	48 89 85 90 eb ff ff 	mov    %rax,-0x1470(%rbp)
   13ccf:	48 c7 85 98 eb ff ff 	movq   $0x0,-0x1468(%rbp)
   13cd6:	00 00 00 00 
   13cda:	48 c7 85 a0 eb ff ff 	movq   $0x0,-0x1460(%rbp)
   13ce1:	00 00 00 00 
   13ce5:	48 c7 85 a8 eb ff ff 	movq   $0x0,-0x1458(%rbp)
   13cec:	00 00 00 00 
   13cf0:	48 c7 85 b0 eb ff ff 	movq   $0x0,-0x1450(%rbp)
   13cf7:	00 00 00 00 
   13cfb:	48 c7 85 b8 eb ff ff 	movq   $0x0,-0x1448(%rbp)
   13d02:	00 00 00 00 
   13d06:	48 8d 85 98 e4 ff ff 	lea    -0x1b68(%rbp),%rax
   13d0d:	48 89 85 c0 eb ff ff 	mov    %rax,-0x1440(%rbp)
   13d14:	48 c7 85 c8 eb ff ff 	movq   $0x0,-0x1438(%rbp)
   13d1b:	00 00 00 00 
   13d1f:	48 8d 05 62 93 00 00 	lea    0x9362(%rip),%rax        # 1d088 <g_106>
   13d26:	48 89 85 d0 eb ff ff 	mov    %rax,-0x1430(%rbp)
   13d2d:	48 8d 85 60 e8 ff ff 	lea    -0x17a0(%rbp),%rax
   13d34:	48 89 85 d8 eb ff ff 	mov    %rax,-0x1428(%rbp)
   13d3b:	48 c7 85 e0 eb ff ff 	movq   $0x0,-0x1420(%rbp)
   13d42:	00 00 00 00 
   13d46:	48 8d 85 98 e4 ff ff 	lea    -0x1b68(%rbp),%rax
   13d4d:	48 89 85 e8 eb ff ff 	mov    %rax,-0x1418(%rbp)
   13d54:	48 8d 05 4d 93 00 00 	lea    0x934d(%rip),%rax        # 1d0a8 <g_157>
   13d5b:	48 89 85 f0 eb ff ff 	mov    %rax,-0x1410(%rbp)
   13d62:	48 8d 85 98 e4 ff ff 	lea    -0x1b68(%rbp),%rax
   13d69:	48 89 85 f8 eb ff ff 	mov    %rax,-0x1408(%rbp)
   13d70:	48 c7 85 00 ec ff ff 	movq   $0x0,-0x1400(%rbp)
   13d77:	00 00 00 00 
   13d7b:	48 c7 85 08 ec ff ff 	movq   $0x0,-0x13f8(%rbp)
   13d82:	00 00 00 00 
   13d86:	48 c7 85 10 ec ff ff 	movq   $0x0,-0x13f0(%rbp)
   13d8d:	00 00 00 00 
   13d91:	48 c7 85 18 ec ff ff 	movq   $0x0,-0x13e8(%rbp)
   13d98:	00 00 00 00 
   13d9c:	48 c7 85 20 ec ff ff 	movq   $0x0,-0x13e0(%rbp)
   13da3:	00 00 00 00 
   13da7:	48 8d 85 60 e8 ff ff 	lea    -0x17a0(%rbp),%rax
   13dae:	48 89 85 28 ec ff ff 	mov    %rax,-0x13d8(%rbp)
   13db5:	48 8d 85 c4 e3 ff ff 	lea    -0x1c3c(%rbp),%rax
   13dbc:	48 89 85 30 ec ff ff 	mov    %rax,-0x13d0(%rbp)
   13dc3:	48 8d 05 be 92 00 00 	lea    0x92be(%rip),%rax        # 1d088 <g_106>
   13dca:	48 89 85 38 ec ff ff 	mov    %rax,-0x13c8(%rbp)
   13dd1:	48 8d 05 b0 92 00 00 	lea    0x92b0(%rip),%rax        # 1d088 <g_106>
   13dd8:	48 89 85 40 ec ff ff 	mov    %rax,-0x13c0(%rbp)
   13ddf:	48 8d 85 98 e4 ff ff 	lea    -0x1b68(%rbp),%rax
   13de6:	48 89 85 48 ec ff ff 	mov    %rax,-0x13b8(%rbp)
   13ded:	48 c7 85 50 ec ff ff 	movq   $0x0,-0x13b0(%rbp)
   13df4:	00 00 00 00 
   13df8:	48 c7 85 58 ec ff ff 	movq   $0x0,-0x13a8(%rbp)
   13dff:	00 00 00 00 
   13e03:	48 8d 85 98 e4 ff ff 	lea    -0x1b68(%rbp),%rax
   13e0a:	48 89 85 60 ec ff ff 	mov    %rax,-0x13a0(%rbp)
   13e11:	48 8d 05 70 92 00 00 	lea    0x9270(%rip),%rax        # 1d088 <g_106>
   13e18:	48 89 85 68 ec ff ff 	mov    %rax,-0x1398(%rbp)
   13e1f:	48 8d 05 82 92 00 00 	lea    0x9282(%rip),%rax        # 1d0a8 <g_157>
   13e26:	48 89 85 70 ec ff ff 	mov    %rax,-0x1390(%rbp)
   13e2d:	48 c7 85 78 ec ff ff 	movq   $0x0,-0x1388(%rbp)
   13e34:	00 00 00 00 
   13e38:	48 c7 85 80 ec ff ff 	movq   $0x0,-0x1380(%rbp)
   13e3f:	00 00 00 00 
   13e43:	48 c7 85 88 ec ff ff 	movq   $0x0,-0x1378(%rbp)
   13e4a:	00 00 00 00 
   13e4e:	48 8d 05 53 92 00 00 	lea    0x9253(%rip),%rax        # 1d0a8 <g_157>
   13e55:	48 89 85 90 ec ff ff 	mov    %rax,-0x1370(%rbp)
   13e5c:	48 8d 85 60 e8 ff ff 	lea    -0x17a0(%rbp),%rax
   13e63:	48 89 85 98 ec ff ff 	mov    %rax,-0x1368(%rbp)
   13e6a:	48 8d 85 60 e8 ff ff 	lea    -0x17a0(%rbp),%rax
   13e71:	48 89 85 a0 ec ff ff 	mov    %rax,-0x1360(%rbp)
   13e78:	48 8d 05 29 92 00 00 	lea    0x9229(%rip),%rax        # 1d0a8 <g_157>
   13e7f:	48 89 85 a8 ec ff ff 	mov    %rax,-0x1358(%rbp)
   13e86:	c7 85 e4 e3 ff ff 00 	movl   $0x0,-0x1c1c(%rbp)
   13e8d:	00 00 00 
   13e90:	eb 1e                	jmp    13eb0 <func_39+0x28b4>
   13e92:	8b 85 e4 e3 ff ff    	mov    -0x1c1c(%rbp),%eax
   13e98:	48 98                	cltq   
   13e9a:	48 8d 15 df 91 00 00 	lea    0x91df(%rip),%rdx        # 1d080 <g_95+0x20>
   13ea1:	48 89 94 c5 40 e8 ff 	mov    %rdx,-0x17c0(%rbp,%rax,8)
   13ea8:	ff 
   13ea9:	83 85 e4 e3 ff ff 01 	addl   $0x1,-0x1c1c(%rbp)
   13eb0:	83 bd e4 e3 ff ff 02 	cmpl   $0x2,-0x1c1c(%rbp)
   13eb7:	7e d9                	jle    13e92 <func_39+0x2896>
   13eb9:	48 8b 85 40 e8 ff ff 	mov    -0x17c0(%rbp),%rax
   13ec0:	48 89 05 e1 c7 00 00 	mov    %rax,0xc7e1(%rip)        # 206a8 <g_273>
   13ec7:	48 8b 85 88 e3 ff ff 	mov    -0x1c78(%rbp),%rax
   13ece:	0f b6 00             	movzbl (%rax),%eax
   13ed1:	0f be d8             	movsbl %al,%ebx
   13ed4:	0f b7 85 0a e8 ff ff 	movzwl -0x17f6(%rbp),%eax
   13edb:	44 0f b7 e0          	movzwl %ax,%r12d
   13edf:	8b 05 4b 91 00 00    	mov    0x914b(%rip),%eax        # 1d030 <g_36>
   13ee5:	89 85 90 e4 ff ff    	mov    %eax,-0x1b70(%rbp)
   13eeb:	8b 85 90 e4 ff ff    	mov    -0x1b70(%rbp),%eax
   13ef1:	85 c0                	test   %eax,%eax
   13ef3:	74 12                	je     13f07 <func_39+0x290b>
   13ef5:	0f b6 85 9c e3 ff ff 	movzbl -0x1c64(%rbp),%eax
   13efc:	84 c0                	test   %al,%al
   13efe:	74 07                	je     13f07 <func_39+0x290b>
   13f00:	b8 01 00 00 00       	mov    $0x1,%eax
   13f05:	eb 05                	jmp    13f0c <func_39+0x2910>
   13f07:	b8 00 00 00 00       	mov    $0x0,%eax
   13f0c:	3d d2 3f 00 00       	cmp    $0x3fd2,%eax
   13f11:	0f 9f c0             	setg   %al
   13f14:	0f b6 c0             	movzbl %al,%eax
   13f17:	89 c2                	mov    %eax,%edx
   13f19:	8b 85 fc e3 ff ff    	mov    -0x1c04(%rbp),%eax
   13f1f:	31 d0                	xor    %edx,%eax
   13f21:	89 85 fc e3 ff ff    	mov    %eax,-0x1c04(%rbp)
   13f27:	81 bd fc e3 ff ff 02 	cmpl   $0xdd02,-0x1c04(%rbp)
   13f2e:	dd 00 00 
   13f31:	0f 95 c0             	setne  %al
   13f34:	0f b6 d0             	movzbl %al,%edx
   13f37:	8b 85 98 e4 ff ff    	mov    -0x1b68(%rbp),%eax
   13f3d:	39 c2                	cmp    %eax,%edx
   13f3f:	0f 94 c0             	sete   %al
   13f42:	0f b6 d0             	movzbl %al,%edx
   13f45:	0f b6 85 98 e3 ff ff 	movzbl -0x1c68(%rbp),%eax
   13f4c:	21 c2                	and    %eax,%edx
   13f4e:	8b 85 98 e4 ff ff    	mov    -0x1b68(%rbp),%eax
   13f54:	21 d0                	and    %edx,%eax
   13f56:	98                   	cwtl   
   13f57:	be 00 00 00 00       	mov    $0x0,%esi
   13f5c:	89 c7                	mov    %eax,%edi
   13f5e:	e8 70 74 ff ff       	callq  b3d3 <safe_sub_func_int16_t_s_s>
   13f63:	48 8b 95 88 e3 ff ff 	mov    -0x1c78(%rbp),%rdx
   13f6a:	0f b6 12             	movzbl (%rdx),%edx
   13f6d:	66 0f be d2          	movsbw %dl,%dx
   13f71:	21 d0                	and    %edx,%eax
   13f73:	0f b7 c0             	movzwl %ax,%eax
   13f76:	be 07 00 00 00       	mov    $0x7,%esi
   13f7b:	89 c7                	mov    %eax,%edi
   13f7d:	e8 f8 7e ff ff       	callq  be7a <safe_rshift_func_uint16_t_u_u>
   13f82:	0f b7 c0             	movzwl %ax,%eax
   13f85:	44 89 e6             	mov    %r12d,%esi
   13f88:	89 c7                	mov    %eax,%edi
   13f8a:	e8 b9 7e ff ff       	callq  be48 <safe_rshift_func_uint16_t_u_s>
   13f8f:	0f b7 d0             	movzwl %ax,%edx
   13f92:	0f b6 85 98 e3 ff ff 	movzbl -0x1c68(%rbp),%eax
   13f99:	89 d6                	mov    %edx,%esi
   13f9b:	89 c7                	mov    %eax,%edi
   13f9d:	e8 5d 77 ff ff       	callq  b6ff <safe_div_func_int32_t_s_s>
   13fa2:	0f b6 c0             	movzbl %al,%eax
   13fa5:	89 de                	mov    %ebx,%esi
   13fa7:	89 c7                	mov    %eax,%edi
   13fa9:	e8 57 7c ff ff       	callq  bc05 <safe_lshift_func_uint8_t_u_s>
   13fae:	0f b6 d0             	movzbl %al,%edx
   13fb1:	48 8b 05 f0 c6 00 00 	mov    0xc6f0(%rip),%rax        # 206a8 <g_273>
   13fb8:	0f b6 08             	movzbl (%rax),%ecx
   13fbb:	48 8b 05 e6 c6 00 00 	mov    0xc6e6(%rip),%rax        # 206a8 <g_273>
   13fc2:	22 8d 98 e3 ff ff    	and    -0x1c68(%rbp),%cl
   13fc8:	88 08                	mov    %cl,(%rax)
   13fca:	0f b6 00             	movzbl (%rax),%eax
   13fcd:	38 85 98 e3 ff ff    	cmp    %al,-0x1c68(%rbp)
   13fd3:	0f 96 c0             	setbe  %al
   13fd6:	0f b6 c0             	movzbl %al,%eax
   13fd9:	89 d6                	mov    %edx,%esi
   13fdb:	89 c7                	mov    %eax,%edi
   13fdd:	e8 ea 76 ff ff       	callq  b6cc <safe_mod_func_int32_t_s_s>
   13fe2:	be 04 00 00 00       	mov    $0x4,%esi
   13fe7:	89 c7                	mov    %eax,%edi
   13fe9:	e8 17 76 ff ff       	callq  b605 <safe_sub_func_int32_t_s_s>
   13fee:	0f bf d0             	movswl %ax,%edx
   13ff1:	8b 05 d5 90 00 00    	mov    0x90d5(%rip),%eax        # 1d0cc <g_204+0x4>
   13ff7:	c1 e8 03             	shr    $0x3,%eax
   13ffa:	25 ff ff ff 01       	and    $0x1ffffff,%eax
   13fff:	98                   	cwtl   
   14000:	89 d6                	mov    %edx,%esi
   14002:	89 c7                	mov    %eax,%edi
   14004:	e8 ca 73 ff ff       	callq  b3d3 <safe_sub_func_int16_t_s_s>
   14009:	0f b6 85 98 e3 ff ff 	movzbl -0x1c68(%rbp),%eax
   14010:	be 00 00 00 00       	mov    $0x0,%esi
   14015:	89 c7                	mov    %eax,%edi
   14017:	e8 71 7c ff ff       	callq  bc8d <safe_rshift_func_uint8_t_u_s>
   1401c:	84 c0                	test   %al,%al
   1401e:	74 11                	je     14031 <func_39+0x2a35>
   14020:	8b 05 fe 8f 00 00    	mov    0x8ffe(%rip),%eax        # 1d024 <g_9>
   14026:	85 c0                	test   %eax,%eax
   14028:	74 07                	je     14031 <func_39+0x2a35>
   1402a:	b8 01 00 00 00       	mov    $0x1,%eax
   1402f:	eb 05                	jmp    14036 <func_39+0x2a3a>
   14031:	b8 00 00 00 00       	mov    $0x0,%eax
   14036:	83 f8 fc             	cmp    $0xfffffffc,%eax
   14039:	ba 01 00 00 00       	mov    $0x1,%edx
   1403e:	0f b6 85 9c e3 ff ff 	movzbl -0x1c64(%rbp),%eax
   14045:	0f be c0             	movsbl %al,%eax
   14048:	39 c2                	cmp    %eax,%edx
   1404a:	0f 9c c2             	setl   %dl
   1404d:	48 8b 05 3c c6 00 00 	mov    0xc63c(%rip),%rax        # 20690 <g_225>
   14054:	0f b6 d2             	movzbl %dl,%edx
   14057:	48 89 10             	mov    %rdx,(%rax)
   1405a:	48 8b 10             	mov    (%rax),%rdx
   1405d:	0f b7 05 5c 90 00 00 	movzwl 0x905c(%rip),%eax        # 1d0c0 <g_203>
   14064:	48 0f bf c0          	movswq %ax,%rax
   14068:	48 39 c2             	cmp    %rax,%rdx
   1406b:	0f 87 38 01 00 00    	ja     141a9 <func_39+0x2bad>
   14071:	48 8d 85 80 e8 ff ff 	lea    -0x1780(%rbp),%rax
   14078:	48 83 c0 0c          	add    $0xc,%rax
   1407c:	48 89 85 c8 e6 ff ff 	mov    %rax,-0x1938(%rbp)
   14083:	48 8d 05 1e 90 00 00 	lea    0x901e(%rip),%rax        # 1d0a8 <g_157>
   1408a:	48 89 85 d0 e6 ff ff 	mov    %rax,-0x1930(%rbp)
   14091:	48 8d 85 c4 e3 ff ff 	lea    -0x1c3c(%rbp),%rax
   14098:	48 89 85 d8 e6 ff ff 	mov    %rax,-0x1928(%rbp)
   1409f:	48 8d 85 98 e4 ff ff 	lea    -0x1b68(%rbp),%rax
   140a6:	48 89 85 e0 e6 ff ff 	mov    %rax,-0x1920(%rbp)
   140ad:	48 8d 05 d4 8f 00 00 	lea    0x8fd4(%rip),%rax        # 1d088 <g_106>
   140b4:	48 89 85 e8 e6 ff ff 	mov    %rax,-0x1918(%rbp)
   140bb:	48 c7 85 f0 e6 ff ff 	movq   $0x0,-0x1910(%rbp)
   140c2:	00 00 00 00 
   140c6:	48 8d 85 98 e4 ff ff 	lea    -0x1b68(%rbp),%rax
   140cd:	48 89 85 f8 e6 ff ff 	mov    %rax,-0x1908(%rbp)
   140d4:	48 8d 85 80 e8 ff ff 	lea    -0x1780(%rbp),%rax
   140db:	48 89 85 00 e7 ff ff 	mov    %rax,-0x1900(%rbp)
   140e2:	48 8d 05 9f 8f 00 00 	lea    0x8f9f(%rip),%rax        # 1d088 <g_106>
   140e9:	48 89 85 08 e7 ff ff 	mov    %rax,-0x18f8(%rbp)
   140f0:	48 8d 85 80 e8 ff ff 	lea    -0x1780(%rbp),%rax
   140f7:	48 83 c0 14          	add    $0x14,%rax
   140fb:	48 89 85 10 e7 ff ff 	mov    %rax,-0x18f0(%rbp)
   14102:	48 8d 85 90 e4 ff ff 	lea    -0x1b70(%rbp),%rax
   14109:	48 89 85 18 e7 ff ff 	mov    %rax,-0x18e8(%rbp)
   14110:	48 8d 85 98 e4 ff ff 	lea    -0x1b68(%rbp),%rax
   14117:	48 89 85 20 e7 ff ff 	mov    %rax,-0x18e0(%rbp)
   1411e:	48 c7 85 28 e7 ff ff 	movq   $0x0,-0x18d8(%rbp)
   14125:	00 00 00 00 
   14129:	48 c7 85 d0 e8 ff ff 	movq   $0x0,-0x1730(%rbp)
   14130:	00 00 00 00 
   14134:	48 c7 85 d8 e8 ff ff 	movq   $0x0,-0x1728(%rbp)
   1413b:	00 00 00 00 
   1413f:	48 c7 85 e0 e8 ff ff 	movq   $0x0,-0x1720(%rbp)
   14146:	00 00 00 00 
   1414a:	48 c7 85 e8 e8 ff ff 	movq   $0x0,-0x1718(%rbp)
   14151:	00 00 00 00 
   14155:	48 c7 85 f0 e8 ff ff 	movq   $0x0,-0x1710(%rbp)
   1415c:	00 00 00 00 
   14160:	48 c7 85 f8 e8 ff ff 	movq   $0x0,-0x1708(%rbp)
   14167:	00 00 00 00 
   1416b:	48 c7 85 00 e9 ff ff 	movq   $0x0,-0x1700(%rbp)
   14172:	00 00 00 00 
   14176:	48 8d 85 e0 f7 ff ff 	lea    -0x820(%rbp),%rax
   1417d:	48 8d 15 9c 52 00 00 	lea    0x529c(%rip),%rdx        # 19420 <g_1850+0x378>
   14184:	b9 c8 00 00 00       	mov    $0xc8,%ecx
   14189:	48 89 c7             	mov    %rax,%rdi
   1418c:	48 89 d6             	mov    %rdx,%rsi
   1418f:	f3 48 a5             	rep movsq %ds:(%rsi),%es:(%rdi)
   14192:	48 8b 85 f8 fb ff ff 	mov    -0x408(%rbp),%rax
   14199:	48 83 c0 01          	add    $0x1,%rax
   1419d:	48 89 85 f8 fb ff ff 	mov    %rax,-0x408(%rbp)
   141a4:	e9 66 02 00 00       	jmpq   1440f <func_39+0x2e13>
   141a9:	48 8d 05 d8 8e 00 00 	lea    0x8ed8(%rip),%rax        # 1d088 <g_106>
   141b0:	48 89 85 c0 e6 ff ff 	mov    %rax,-0x1940(%rbp)
   141b7:	66 c7 85 be e3 ff ff 	movw   $0xd68,-0x1c42(%rbp)
   141be:	68 0d 
   141c0:	48 8d 85 60 e4 ff ff 	lea    -0x1ba0(%rbp),%rax
   141c7:	48 89 85 e0 f7 ff ff 	mov    %rax,-0x820(%rbp)
   141ce:	48 8d 85 d0 e8 ff ff 	lea    -0x1730(%rbp),%rax
   141d5:	48 89 85 e8 f7 ff ff 	mov    %rax,-0x818(%rbp)
   141dc:	48 8d 85 d0 e8 ff ff 	lea    -0x1730(%rbp),%rax
   141e3:	48 89 85 f0 f7 ff ff 	mov    %rax,-0x810(%rbp)
   141ea:	48 8d 85 60 e4 ff ff 	lea    -0x1ba0(%rbp),%rax
   141f1:	48 89 85 f8 f7 ff ff 	mov    %rax,-0x808(%rbp)
   141f8:	48 8d 85 d0 e8 ff ff 	lea    -0x1730(%rbp),%rax
   141ff:	48 89 85 00 f8 ff ff 	mov    %rax,-0x800(%rbp)
   14206:	48 8d 85 d0 e8 ff ff 	lea    -0x1730(%rbp),%rax
   1420d:	48 89 85 08 f8 ff ff 	mov    %rax,-0x7f8(%rbp)
   14214:	48 8d 85 60 e4 ff ff 	lea    -0x1ba0(%rbp),%rax
   1421b:	48 89 85 10 f8 ff ff 	mov    %rax,-0x7f0(%rbp)
   14222:	48 8d 85 d0 e8 ff ff 	lea    -0x1730(%rbp),%rax
   14229:	48 89 85 18 f8 ff ff 	mov    %rax,-0x7e8(%rbp)
   14230:	48 8d 85 d0 e8 ff ff 	lea    -0x1730(%rbp),%rax
   14237:	48 89 85 20 f8 ff ff 	mov    %rax,-0x7e0(%rbp)
   1423e:	48 8d 85 60 e4 ff ff 	lea    -0x1ba0(%rbp),%rax
   14245:	48 89 85 28 f8 ff ff 	mov    %rax,-0x7d8(%rbp)
   1424c:	48 8d 85 d0 e8 ff ff 	lea    -0x1730(%rbp),%rax
   14253:	48 89 85 30 f8 ff ff 	mov    %rax,-0x7d0(%rbp)
   1425a:	48 8d 85 d0 e8 ff ff 	lea    -0x1730(%rbp),%rax
   14261:	48 89 85 38 f8 ff ff 	mov    %rax,-0x7c8(%rbp)
   14268:	48 8d 85 60 e4 ff ff 	lea    -0x1ba0(%rbp),%rax
   1426f:	48 89 85 40 f8 ff ff 	mov    %rax,-0x7c0(%rbp)
   14276:	48 8d 85 d0 e8 ff ff 	lea    -0x1730(%rbp),%rax
   1427d:	48 89 85 48 f8 ff ff 	mov    %rax,-0x7b8(%rbp)
   14284:	48 8d 85 d0 e8 ff ff 	lea    -0x1730(%rbp),%rax
   1428b:	48 89 85 50 f8 ff ff 	mov    %rax,-0x7b0(%rbp)
   14292:	48 8d 85 60 e4 ff ff 	lea    -0x1ba0(%rbp),%rax
   14299:	48 89 85 58 f8 ff ff 	mov    %rax,-0x7a8(%rbp)
   142a0:	48 8d 85 d0 e8 ff ff 	lea    -0x1730(%rbp),%rax
   142a7:	48 89 85 60 f8 ff ff 	mov    %rax,-0x7a0(%rbp)
   142ae:	48 8d 85 d0 e8 ff ff 	lea    -0x1730(%rbp),%rax
   142b5:	48 89 85 68 f8 ff ff 	mov    %rax,-0x798(%rbp)
   142bc:	48 8d 85 60 e4 ff ff 	lea    -0x1ba0(%rbp),%rax
   142c3:	48 89 85 70 f8 ff ff 	mov    %rax,-0x790(%rbp)
   142ca:	48 8d 85 d0 e8 ff ff 	lea    -0x1730(%rbp),%rax
   142d1:	48 89 85 78 f8 ff ff 	mov    %rax,-0x788(%rbp)
   142d8:	48 8d 85 d0 e8 ff ff 	lea    -0x1730(%rbp),%rax
   142df:	48 89 85 80 f8 ff ff 	mov    %rax,-0x780(%rbp)
   142e6:	48 8d 85 60 e4 ff ff 	lea    -0x1ba0(%rbp),%rax
   142ed:	48 89 85 88 f8 ff ff 	mov    %rax,-0x778(%rbp)
   142f4:	48 8d 85 d0 e8 ff ff 	lea    -0x1730(%rbp),%rax
   142fb:	48 89 85 90 f8 ff ff 	mov    %rax,-0x770(%rbp)
   14302:	48 8d 85 d0 e8 ff ff 	lea    -0x1730(%rbp),%rax
   14309:	48 89 85 98 f8 ff ff 	mov    %rax,-0x768(%rbp)
   14310:	48 8d 85 60 e4 ff ff 	lea    -0x1ba0(%rbp),%rax
   14317:	48 89 85 a0 f8 ff ff 	mov    %rax,-0x760(%rbp)
   1431e:	48 8d 85 d0 e8 ff ff 	lea    -0x1730(%rbp),%rax
   14325:	48 89 85 a8 f8 ff ff 	mov    %rax,-0x758(%rbp)
   1432c:	48 8d 85 d0 e8 ff ff 	lea    -0x1730(%rbp),%rax
   14333:	48 89 85 b0 f8 ff ff 	mov    %rax,-0x750(%rbp)
   1433a:	48 8d 85 60 e4 ff ff 	lea    -0x1ba0(%rbp),%rax
   14341:	48 89 85 b8 f8 ff ff 	mov    %rax,-0x748(%rbp)
   14348:	48 8d 85 d0 e8 ff ff 	lea    -0x1730(%rbp),%rax
   1434f:	48 89 85 c0 f8 ff ff 	mov    %rax,-0x740(%rbp)
   14356:	48 8d 85 d0 e8 ff ff 	lea    -0x1730(%rbp),%rax
   1435d:	48 89 85 c8 f8 ff ff 	mov    %rax,-0x738(%rbp)
   14364:	48 8d 85 60 e4 ff ff 	lea    -0x1ba0(%rbp),%rax
   1436b:	48 89 85 d0 f8 ff ff 	mov    %rax,-0x730(%rbp)
   14372:	48 8d 85 d0 e8 ff ff 	lea    -0x1730(%rbp),%rax
   14379:	48 89 85 d8 f8 ff ff 	mov    %rax,-0x728(%rbp)
   14380:	48 8d 85 d0 e8 ff ff 	lea    -0x1730(%rbp),%rax
   14387:	48 89 85 e0 f8 ff ff 	mov    %rax,-0x720(%rbp)
   1438e:	48 8d 85 60 e4 ff ff 	lea    -0x1ba0(%rbp),%rax
   14395:	48 89 85 e8 f8 ff ff 	mov    %rax,-0x718(%rbp)
   1439c:	48 8d 85 d0 e8 ff ff 	lea    -0x1730(%rbp),%rax
   143a3:	48 89 85 f0 f8 ff ff 	mov    %rax,-0x710(%rbp)
   143aa:	48 8d 85 d0 e8 ff ff 	lea    -0x1730(%rbp),%rax
   143b1:	48 89 85 f8 f8 ff ff 	mov    %rax,-0x708(%rbp)
   143b8:	c7 85 e8 e3 ff ff 00 	movl   $0x0,-0x1c18(%rbp)
   143bf:	00 00 00 
   143c2:	eb 1e                	jmp    143e2 <func_39+0x2de6>
   143c4:	8b 85 e8 e3 ff ff    	mov    -0x1c18(%rbp),%eax
   143ca:	48 98                	cltq   
   143cc:	48 8d 95 c4 e3 ff ff 	lea    -0x1c3c(%rbp),%rdx
   143d3:	48 89 94 c5 d0 e8 ff 	mov    %rdx,-0x1730(%rbp,%rax,8)
   143da:	ff 
   143db:	83 85 e8 e3 ff ff 01 	addl   $0x1,-0x1c18(%rbp)
   143e2:	83 bd e8 e3 ff ff 00 	cmpl   $0x0,-0x1c18(%rbp)
   143e9:	7e d9                	jle    143c4 <func_39+0x2dc8>
   143eb:	66 83 ad be e3 ff ff 	subw   $0x1,-0x1c42(%rbp)
   143f2:	01 
   143f3:	48 8b 85 e8 e5 ff ff 	mov    -0x1a18(%rbp),%rax
   143fa:	48 89 85 00 e6 ff ff 	mov    %rax,-0x1a00(%rbp)
   14401:	48 8d 85 80 e8 ff ff 	lea    -0x1780(%rbp),%rax
   14408:	48 89 05 a1 c2 00 00 	mov    %rax,0xc2a1(%rip)        # 206b0 <g_319>
   1440f:	48 8b 05 ca 8c 00 00 	mov    0x8cca(%rip),%rax        # 1d0e0 <g_344>
   14416:	48 83 c0 01          	add    $0x1,%rax
   1441a:	48 89 05 bf 8c 00 00 	mov    %rax,0x8cbf(%rip)        # 1d0e0 <g_344>
   14421:	48 8b 85 f0 e5 ff ff 	mov    -0x1a10(%rbp),%rax
   14428:	e9 69 2c 00 00       	jmpq   17096 <func_39+0x5a9a>
   1442d:	90                   	nop
   1442e:	66 c7 05 01 8c 00 00 	movw   $0x10,0x8c01(%rip)        # 1d038 <g_53>
   14435:	10 00 
   14437:	90                   	nop
   14438:	0f b7 05 f9 8b 00 00 	movzwl 0x8bf9(%rip),%eax        # 1d038 <g_53>
   1443f:	66 83 f8 01          	cmp    $0x1,%ax
   14443:	76 0c                	jbe    14451 <func_39+0x2e55>
   14445:	48 8d 05 3c 8c 00 00 	lea    0x8c3c(%rip),%rax        # 1d088 <g_106>
   1444c:	e9 45 2c 00 00       	jmpq   17096 <func_39+0x5a9a>
   14451:	48 8d 05 cc 8b 00 00 	lea    0x8bcc(%rip),%rax        # 1d024 <g_9>
   14458:	e9 39 2c 00 00       	jmpq   17096 <func_39+0x5a9a>
   1445d:	48 8b 05 4c c2 00 00 	mov    0xc24c(%rip),%rax        # 206b0 <g_319>
   14464:	8b 08                	mov    (%rax),%ecx
   14466:	8b 95 80 e8 ff ff    	mov    -0x1780(%rbp),%edx
   1446c:	48 8b 05 3d c2 00 00 	mov    0xc23d(%rip),%rax        # 206b0 <g_319>
   14473:	21 ca                	and    %ecx,%edx
   14475:	89 10                	mov    %edx,(%rax)
   14477:	0f b6 85 9c e3 ff ff 	movzbl -0x1c64(%rbp),%eax
   1447e:	84 c0                	test   %al,%al
   14480:	74 27                	je     144a9 <func_39+0x2ead>
   14482:	90                   	nop
   14483:	eb 01                	jmp    14486 <func_39+0x2e8a>
   14485:	90                   	nop
   14486:	c6 85 9c e3 ff ff 00 	movb   $0x0,-0x1c64(%rbp)
   1448d:	90                   	nop
   1448e:	0f b6 85 9c e3 ff ff 	movzbl -0x1c64(%rbp),%eax
   14495:	3c ef                	cmp    $0xef,%al
   14497:	0f 8c 6f 25 00 00    	jl     16a0c <func_39+0x5410>
   1449d:	48 8d 05 80 8b 00 00 	lea    0x8b80(%rip),%rax        # 1d024 <g_9>
   144a4:	e9 ed 2b 00 00       	jmpq   17096 <func_39+0x5a9a>
   144a9:	48 c7 85 50 e5 ff ff 	movq   $0x0,-0x1ab0(%rbp)
   144b0:	00 00 00 00 
   144b4:	c7 85 18 e4 ff ff bc 	movl   $0x225ddfbc,-0x1be8(%rbp)
   144bb:	df 5d 22 
   144be:	66 c7 85 b2 e3 ff ff 	movw   $0x222e,-0x1c4e(%rbp)
   144c5:	2e 22 
   144c7:	48 c7 85 58 e5 ff ff 	movq   $0x0,-0x1aa8(%rbp)
   144ce:	00 00 00 00 
   144d2:	48 c7 85 60 e5 ff ff 	movq   $0x0,-0x1aa0(%rbp)
   144d9:	00 00 00 00 
   144dd:	c7 85 1c e4 ff ff 00 	movl   $0x0,-0x1be4(%rbp)
   144e4:	00 00 00 
   144e7:	66 c7 85 ba e3 ff ff 	movw   $0xfff8,-0x1c46(%rbp)
   144ee:	f8 ff 
   144f0:	48 8d 05 49 8b 00 00 	lea    0x8b49(%rip),%rax        # 1d040 <g_80>
   144f7:	48 89 85 68 e5 ff ff 	mov    %rax,-0x1a98(%rbp)
   144fe:	48 8d 05 e3 8b 00 00 	lea    0x8be3(%rip),%rax        # 1d0e8 <g_473>
   14505:	48 89 85 90 e4 ff ff 	mov    %rax,-0x1b70(%rbp)
   1450c:	c7 85 20 e4 ff ff 09 	movl   $0x9,-0x1be0(%rbp)
   14513:	00 00 00 
   14516:	c7 85 24 e4 ff ff 02 	movl   $0x2,-0x1bdc(%rbp)
   1451d:	00 00 00 
   14520:	c7 85 98 e4 ff ff f9 	movl   $0xfffffff9,-0x1b68(%rbp)
   14527:	ff ff ff 
   1452a:	c7 85 28 e4 ff ff 75 	movl   $0x1d3ead75,-0x1bd8(%rbp)
   14531:	ad 3e 1d 
   14534:	c7 85 2c e4 ff ff 01 	movl   $0x1,-0x1bd4(%rbp)
   1453b:	00 00 00 
   1453e:	c7 85 30 e4 ff ff 06 	movl   $0x6,-0x1bd0(%rbp)
   14545:	00 00 00 
   14548:	c7 85 40 ee ff ff fa 	movl   $0xfffffffa,-0x11c0(%rbp)
   1454f:	ff ff ff 
   14552:	c7 85 44 ee ff ff 04 	movl   $0x4,-0x11bc(%rbp)
   14559:	00 00 00 
   1455c:	c7 85 48 ee ff ff 08 	movl   $0x8,-0x11b8(%rbp)
   14563:	00 00 00 
   14566:	c7 85 4c ee ff ff f6 	movl   $0xfffffff6,-0x11b4(%rbp)
   1456d:	ff ff ff 
   14570:	c7 85 50 ee ff ff fe 	movl   $0xfffffffe,-0x11b0(%rbp)
   14577:	ff ff ff 
   1457a:	c7 85 54 ee ff ff fe 	movl   $0xfffffffe,-0x11ac(%rbp)
   14581:	ff ff ff 
   14584:	c7 85 58 ee ff ff f6 	movl   $0xfffffff6,-0x11a8(%rbp)
   1458b:	ff ff ff 
   1458e:	c7 85 5c ee ff ff 08 	movl   $0x8,-0x11a4(%rbp)
   14595:	00 00 00 
   14598:	c7 85 60 ee ff ff 04 	movl   $0x4,-0x11a0(%rbp)
   1459f:	00 00 00 
   145a2:	c7 85 64 ee ff ff fa 	movl   $0xfffffffa,-0x119c(%rbp)
   145a9:	ff ff ff 
   145ac:	c7 85 68 ee ff ff 60 	movl   $0xb28b0d60,-0x1198(%rbp)
   145b3:	0d 8b b2 
   145b6:	c7 85 6c ee ff ff fa 	movl   $0xfffffffa,-0x1194(%rbp)
   145bd:	ff ff ff 
   145c0:	c7 85 70 ee ff ff 00 	movl   $0x2c82a100,-0x1190(%rbp)
   145c7:	a1 82 2c 
   145ca:	c7 85 74 ee ff ff fa 	movl   $0xfffffffa,-0x118c(%rbp)
   145d1:	ff ff ff 
   145d4:	c7 85 78 ee ff ff 26 	movl   $0xb82da26,-0x1188(%rbp)
   145db:	da 82 0b 
   145de:	c7 85 7c ee ff ff f6 	movl   $0xfffffff6,-0x1184(%rbp)
   145e5:	ff ff ff 
   145e8:	c7 85 80 ee ff ff dd 	movl   $0x6b18dedd,-0x1180(%rbp)
   145ef:	de 18 6b 
   145f2:	c7 85 84 ee ff ff fc 	movl   $0xfffffffc,-0x117c(%rbp)
   145f9:	ff ff ff 
   145fc:	c7 85 88 ee ff ff 53 	movl   $0x8fc2e053,-0x1178(%rbp)
   14603:	e0 c2 8f 
   14606:	c7 85 8c ee ff ff 05 	movl   $0x5,-0x1174(%rbp)
   1460d:	00 00 00 
   14610:	c7 85 90 ee ff ff 00 	movl   $0x2c82a100,-0x1170(%rbp)
   14617:	a1 82 2c 
   1461a:	c7 85 94 ee ff ff 02 	movl   $0x2,-0x116c(%rbp)
   14621:	00 00 00 
   14624:	c7 85 98 ee ff ff ca 	movl   $0x72f9e3ca,-0x1168(%rbp)
   1462b:	e3 f9 72 
   1462e:	c7 85 9c ee ff ff fa 	movl   $0xfffffffa,-0x1164(%rbp)
   14635:	ff ff ff 
   14638:	c7 85 a0 ee ff ff 26 	movl   $0xb82da26,-0x1160(%rbp)
   1463f:	da 82 0b 
   14642:	c7 85 a4 ee ff ff 04 	movl   $0x4,-0x115c(%rbp)
   14649:	00 00 00 
   1464c:	c7 85 a8 ee ff ff 33 	movl   $0x594e8433,-0x1158(%rbp)
   14653:	84 4e 59 
   14656:	c7 85 ac ee ff ff 04 	movl   $0x4,-0x1154(%rbp)
   1465d:	00 00 00 
   14660:	c7 85 b0 ee ff ff 26 	movl   $0xb82da26,-0x1150(%rbp)
   14667:	da 82 0b 
   1466a:	c7 85 b4 ee ff ff fa 	movl   $0xfffffffa,-0x114c(%rbp)
   14671:	ff ff ff 
   14674:	c7 85 b8 ee ff ff 26 	movl   $0xb82da26,-0x1148(%rbp)
   1467b:	da 82 0b 
   1467e:	c7 85 bc ee ff ff dd 	movl   $0x6b18dedd,-0x1144(%rbp)
   14685:	de 18 6b 
   14688:	c7 85 c0 ee ff ff 26 	movl   $0xb82da26,-0x1140(%rbp)
   1468f:	da 82 0b 
   14692:	c7 85 c4 ee ff ff 60 	movl   $0xb28b0d60,-0x113c(%rbp)
   14699:	0d 8b b2 
   1469c:	c7 85 c8 ee ff ff fe 	movl   $0xfffffffe,-0x1138(%rbp)
   146a3:	ff ff ff 
   146a6:	c7 85 cc ee ff ff fa 	movl   $0xfffffffa,-0x1134(%rbp)
   146ad:	ff ff ff 
   146b0:	c7 85 d0 ee ff ff 05 	movl   $0x5,-0x1130(%rbp)
   146b7:	00 00 00 
   146ba:	c7 85 d4 ee ff ff ca 	movl   $0x72f9e3ca,-0x112c(%rbp)
   146c1:	e3 f9 72 
   146c4:	c7 85 d8 ee ff ff 00 	movl   $0x0,-0x1128(%rbp)
   146cb:	00 00 00 
   146ce:	c7 85 dc ee ff ff 00 	movl   $0x0,-0x1124(%rbp)
   146d5:	00 00 00 
   146d8:	c7 85 e0 ee ff ff dd 	movl   $0x6b18dedd,-0x1120(%rbp)
   146df:	de 18 6b 
   146e2:	c7 85 e4 ee ff ff fe 	movl   $0xfffffffe,-0x111c(%rbp)
   146e9:	ff ff ff 
   146ec:	c7 85 e8 ee ff ff 33 	movl   $0x594e8433,-0x1118(%rbp)
   146f3:	84 4e 59 
   146f6:	c7 85 ec ee ff ff 00 	movl   $0x2c82a100,-0x1114(%rbp)
   146fd:	a1 82 2c 
   14700:	c7 85 f0 ee ff ff 05 	movl   $0x5,-0x1110(%rbp)
   14707:	00 00 00 
   1470a:	c7 85 f4 ee ff ff 00 	movl   $0x0,-0x110c(%rbp)
   14711:	00 00 00 
   14714:	c7 85 f8 ee ff ff 08 	movl   $0x8,-0x1108(%rbp)
   1471b:	00 00 00 
   1471e:	c7 85 fc ee ff ff ca 	movl   $0x72f9e3ca,-0x1104(%rbp)
   14725:	e3 f9 72 
   14728:	c7 85 00 ef ff ff ca 	movl   $0x72f9e3ca,-0x1100(%rbp)
   1472f:	e3 f9 72 
   14732:	c7 85 04 ef ff ff 08 	movl   $0x8,-0x10fc(%rbp)
   14739:	00 00 00 
   1473c:	c7 85 08 ef ff ff 53 	movl   $0x8fc2e053,-0x10f8(%rbp)
   14743:	e0 c2 8f 
   14746:	c7 85 0c ef ff ff 00 	movl   $0x0,-0x10f4(%rbp)
   1474d:	00 00 00 
   14750:	c7 85 10 ef ff ff 26 	movl   $0xb82da26,-0x10f0(%rbp)
   14757:	da 82 0b 
   1475a:	c7 85 14 ef ff ff 26 	movl   $0xb82da26,-0x10ec(%rbp)
   14761:	da 82 0b 
   14764:	c7 85 18 ef ff ff 00 	movl   $0x0,-0x10e8(%rbp)
   1476b:	00 00 00 
   1476e:	c7 85 1c ef ff ff 53 	movl   $0x8fc2e053,-0x10e4(%rbp)
   14775:	e0 c2 8f 
   14778:	c7 85 20 ef ff ff ca 	movl   $0x72f9e3ca,-0x10e0(%rbp)
   1477f:	e3 f9 72 
   14782:	c7 85 24 ef ff ff 04 	movl   $0x4,-0x10dc(%rbp)
   14789:	00 00 00 
   1478c:	c7 85 28 ef ff ff cd 	movl   $0xe5fe70cd,-0x10d8(%rbp)
   14793:	70 fe e5 
   14796:	c7 85 2c ef ff ff 33 	movl   $0x594e8433,-0x10d4(%rbp)
   1479d:	84 4e 59 
   147a0:	48 8b 05 39 89 00 00 	mov    0x8939(%rip),%rax        # 1d0e0 <g_344>
   147a7:	48 85 c0             	test   %rax,%rax
   147aa:	0f 85 d5 fc ff ff    	jne    14485 <func_39+0x2e89>
   147b0:	48 8b 85 d0 f2 ff ff 	mov    -0xd30(%rbp),%rax
   147b7:	48 89 85 00 e5 ff ff 	mov    %rax,-0x1b00(%rbp)
   147be:	48 8b 05 23 bf 00 00 	mov    0xbf23(%rip),%rax        # 206e8 <g_354>
   147c5:	48 39 85 00 e5 ff ff 	cmp    %rax,-0x1b00(%rbp)
   147cc:	0f 95 c2             	setne  %dl
   147cf:	48 8b 05 da be 00 00 	mov    0xbeda(%rip),%rax        # 206b0 <g_319>
   147d6:	0f b6 d2             	movzbl %dl,%edx
   147d9:	89 10                	mov    %edx,(%rax)
   147db:	8b 00                	mov    (%rax),%eax
   147dd:	85 c0                	test   %eax,%eax
   147df:	0f 84 8d 15 00 00    	je     15d72 <func_39+0x4776>
   147e5:	c7 85 a0 e4 ff ff 09 	movl   $0x9,-0x1b60(%rbp)
   147ec:	00 00 00 
   147ef:	48 8d 05 3e 88 00 00 	lea    0x883e(%rip),%rax        # 1d034 <g_38>
   147f6:	48 89 85 08 e8 ff ff 	mov    %rax,-0x17f8(%rbp)
   147fd:	48 8d 85 08 e8 ff ff 	lea    -0x17f8(%rbp),%rax
   14804:	48 89 85 88 e5 ff ff 	mov    %rax,-0x1a78(%rbp)
   1480b:	48 b8 a2 e8 03 4b 37 	movabs $0x97471b374b03e8a2,%rax
   14812:	1b 47 97 
   14815:	48 89 85 60 eb ff ff 	mov    %rax,-0x14a0(%rbp)
   1481c:	48 be ce d4 c6 7b ec 	movabs $0x1a67b9ec7bc6d4ce,%rsi
   14823:	b9 67 1a 
   14826:	48 89 b5 68 eb ff ff 	mov    %rsi,-0x1498(%rbp)
   1482d:	48 89 85 70 eb ff ff 	mov    %rax,-0x1490(%rbp)
   14834:	48 bb 1e b8 34 5f 4a 	movabs $0xa4f0af4a5f34b81e,%rbx
   1483b:	af f0 a4 
   1483e:	48 89 9d 78 eb ff ff 	mov    %rbx,-0x1488(%rbp)
   14845:	48 b9 17 c8 3e 19 58 	movabs $0xf3660658193ec817,%rcx
   1484c:	06 66 f3 
   1484f:	48 89 8d 80 eb ff ff 	mov    %rcx,-0x1480(%rbp)
   14856:	48 89 8d 88 eb ff ff 	mov    %rcx,-0x1478(%rbp)
   1485d:	48 89 9d 90 eb ff ff 	mov    %rbx,-0x1470(%rbp)
   14864:	48 89 85 98 eb ff ff 	mov    %rax,-0x1468(%rbp)
   1486b:	48 89 b5 a0 eb ff ff 	mov    %rsi,-0x1460(%rbp)
   14872:	48 89 85 a8 eb ff ff 	mov    %rax,-0x1458(%rbp)
   14879:	48 89 9d b0 eb ff ff 	mov    %rbx,-0x1450(%rbp)
   14880:	48 89 8d b8 eb ff ff 	mov    %rcx,-0x1448(%rbp)
   14887:	48 89 8d c0 eb ff ff 	mov    %rcx,-0x1440(%rbp)
   1488e:	48 89 9d c8 eb ff ff 	mov    %rbx,-0x1438(%rbp)
   14895:	48 8d 05 14 be 00 00 	lea    0xbe14(%rip),%rax        # 206b0 <g_319>
   1489c:	48 89 85 90 e5 ff ff 	mov    %rax,-0x1a70(%rbp)
   148a3:	48 c7 85 98 e5 ff ff 	movq   $0xffffffffffffffff,-0x1a68(%rbp)
   148aa:	ff ff ff ff 
   148ae:	48 c7 85 f0 e9 ff ff 	movq   $0x0,-0x1610(%rbp)
   148b5:	00 00 00 00 
   148b9:	48 8d 05 f0 87 00 00 	lea    0x87f0(%rip),%rax        # 1d0b0 <g_180>
   148c0:	48 89 85 f8 e9 ff ff 	mov    %rax,-0x1608(%rbp)
   148c7:	48 c7 85 00 ea ff ff 	movq   $0x0,-0x1600(%rbp)
   148ce:	00 00 00 00 
   148d2:	48 8d 05 d7 87 00 00 	lea    0x87d7(%rip),%rax        # 1d0b0 <g_180>
   148d9:	48 89 85 08 ea ff ff 	mov    %rax,-0x15f8(%rbp)
   148e0:	48 c7 85 10 ea ff ff 	movq   $0x0,-0x15f0(%rbp)
   148e7:	00 00 00 00 
   148eb:	48 8d 05 be 87 00 00 	lea    0x87be(%rip),%rax        # 1d0b0 <g_180>
   148f2:	48 89 85 18 ea ff ff 	mov    %rax,-0x15e8(%rbp)
   148f9:	48 c7 85 20 ea ff ff 	movq   $0x0,-0x15e0(%rbp)
   14900:	00 00 00 00 
   14904:	48 8d 85 60 e8 ff ff 	lea    -0x17a0(%rbp),%rax
   1490b:	48 83 c0 08          	add    $0x8,%rax
   1490f:	48 89 85 a0 e5 ff ff 	mov    %rax,-0x1a60(%rbp)
   14916:	c7 85 ec e3 ff ff 00 	movl   $0x0,-0x1c14(%rbp)
   1491d:	00 00 00 
   14920:	eb 1e                	jmp    14940 <func_39+0x3344>
   14922:	8b 85 ec e3 ff ff    	mov    -0x1c14(%rbp),%eax
   14928:	48 98                	cltq   
   1492a:	48 8d 95 a0 e4 ff ff 	lea    -0x1b60(%rbp),%rdx
   14931:	48 89 94 c5 d0 e8 ff 	mov    %rdx,-0x1730(%rbp,%rax,8)
   14938:	ff 
   14939:	83 85 ec e3 ff ff 01 	addl   $0x1,-0x1c14(%rbp)
   14940:	83 bd ec e3 ff ff 00 	cmpl   $0x0,-0x1c14(%rbp)
   14947:	7e d9                	jle    14922 <func_39+0x3326>
   14949:	48 8b 85 60 e4 ff ff 	mov    -0x1ba0(%rbp),%rax
   14950:	8b 00                	mov    (%rax),%eax
   14952:	0f b6 d8             	movzbl %al,%ebx
   14955:	48 8b 05 4c ba 00 00 	mov    0xba4c(%rip),%rax        # 203a8 <g_33>
   1495c:	48 8b 00             	mov    (%rax),%rax
   1495f:	48 85 c0             	test   %rax,%rax
   14962:	0f 95 c0             	setne  %al
   14965:	44 0f b6 e0          	movzbl %al,%r12d
   14969:	8b 85 a0 e4 ff ff    	mov    -0x1b60(%rbp),%eax
   1496f:	66 35 7e 8c          	xor    $0x8c7e,%ax
   14973:	0f b7 c0             	movzwl %ax,%eax
   14976:	25 b2 19 00 00       	and    $0x19b2,%eax
   1497b:	41 89 c5             	mov    %eax,%r13d
   1497e:	0f b6 85 9c e3 ff ff 	movzbl -0x1c64(%rbp),%eax
   14985:	0f be c0             	movsbl %al,%eax
   14988:	89 c7                	mov    %eax,%edi
   1498a:	e8 07 6c ff ff       	callq  b596 <safe_unary_minus_func_int32_t_s>
   1498f:	0f b7 c0             	movzwl %ax,%eax
   14992:	44 89 ee             	mov    %r13d,%esi
   14995:	89 c7                	mov    %eax,%edi
   14997:	e8 a1 73 ff ff       	callq  bd3d <safe_mul_func_uint16_t_u_u>
   1499c:	0f b7 c0             	movzwl %ax,%eax
   1499f:	25 ff ff ff 01       	and    $0x1ffffff,%eax
   149a4:	25 ff ff ff 01       	and    $0x1ffffff,%eax
   149a9:	8d 14 c5 00 00 00 00 	lea    0x0(,%rax,8),%edx
   149b0:	8b 05 16 87 00 00    	mov    0x8716(%rip),%eax        # 1d0cc <g_204+0x4>
   149b6:	25 07 00 00 f0       	and    $0xf0000007,%eax
   149bb:	09 d0                	or     %edx,%eax
   149bd:	89 05 09 87 00 00    	mov    %eax,0x8709(%rip)        # 1d0cc <g_204+0x4>
   149c3:	8b 05 03 87 00 00    	mov    0x8703(%rip),%eax        # 1d0cc <g_204+0x4>
   149c9:	c1 e8 03             	shr    $0x3,%eax
   149cc:	25 ff ff ff 01       	and    $0x1ffffff,%eax
   149d1:	44 89 e6             	mov    %r12d,%esi
   149d4:	89 c7                	mov    %eax,%edi
   149d6:	e8 f5 74 ff ff       	callq  bed0 <safe_sub_func_uint32_t_u_u>
   149db:	41 89 c4             	mov    %eax,%r12d
   149de:	48 8b 95 d0 e8 ff ff 	mov    -0x1730(%rbp),%rdx
   149e5:	48 8b 85 88 e5 ff ff 	mov    -0x1a78(%rbp),%rax
   149ec:	48 89 10             	mov    %rdx,(%rax)
   149ef:	48 8b 85 88 e5 ff ff 	mov    -0x1a78(%rbp),%rax
   149f6:	4c 8b 28             	mov    (%rax),%r13
   149f9:	8b 05 a9 86 00 00    	mov    0x86a9(%rip),%eax        # 1d0a8 <g_157>
   149ff:	48 63 f8             	movslq %eax,%rdi
   14a02:	0f b6 8d 98 e3 ff ff 	movzbl -0x1c68(%rbp),%ecx
   14a09:	48 8b 85 88 e3 ff ff 	mov    -0x1c78(%rbp),%rax
   14a10:	0f b6 00             	movzbl (%rax),%eax
   14a13:	0f be d0             	movsbl %al,%edx
   14a16:	0f b6 b5 98 e3 ff ff 	movzbl -0x1c68(%rbp),%esi
   14a1d:	8b 85 a0 e4 ff ff    	mov    -0x1b60(%rbp),%eax
   14a23:	0f b7 c0             	movzwl %ax,%eax
   14a26:	49 89 f8             	mov    %rdi,%r8
   14a29:	89 c7                	mov    %eax,%edi
   14a2b:	e8 c5 2b 00 00       	callq  175f5 <func_46>
   14a30:	48 89 85 50 e5 ff ff 	mov    %rax,-0x1ab0(%rbp)
   14a37:	4c 39 ad 50 e5 ff ff 	cmp    %r13,-0x1ab0(%rbp)
   14a3e:	0f 95 c0             	setne  %al
   14a41:	0f b6 c0             	movzbl %al,%eax
   14a44:	41 39 c4             	cmp    %eax,%r12d
   14a47:	0f 95 c0             	setne  %al
   14a4a:	0f b6 c0             	movzbl %al,%eax
   14a4d:	89 de                	mov    %ebx,%esi
   14a4f:	89 c7                	mov    %eax,%edi
   14a51:	e8 85 71 ff ff       	callq  bbdb <safe_div_func_uint8_t_u_u>
   14a56:	84 c0                	test   %al,%al
   14a58:	0f 84 28 03 00 00    	je     14d86 <func_39+0x378a>
   14a5e:	c7 85 70 e9 ff ff 65 	movl   $0x64b3ca65,-0x1690(%rbp)
   14a65:	ca b3 64 
   14a68:	c7 85 74 e9 ff ff fa 	movl   $0xfffffffa,-0x168c(%rbp)
   14a6f:	ff ff ff 
   14a72:	c7 85 78 e9 ff ff 65 	movl   $0x64b3ca65,-0x1688(%rbp)
   14a79:	ca b3 64 
   14a7c:	c7 85 7c e9 ff ff fa 	movl   $0xfffffffa,-0x1684(%rbp)
   14a83:	ff ff ff 
   14a86:	c7 85 80 e9 ff ff 65 	movl   $0x64b3ca65,-0x1680(%rbp)
   14a8d:	ca b3 64 
   14a90:	c7 85 84 e9 ff ff fa 	movl   $0xfffffffa,-0x167c(%rbp)
   14a97:	ff ff ff 
   14a9a:	c7 85 88 e9 ff ff 65 	movl   $0x64b3ca65,-0x1678(%rbp)
   14aa1:	ca b3 64 
   14aa4:	c7 85 8c e9 ff ff fa 	movl   $0xfffffffa,-0x1674(%rbp)
   14aab:	ff ff ff 
   14aae:	c7 85 90 e9 ff ff 65 	movl   $0x64b3ca65,-0x1670(%rbp)
   14ab5:	ca b3 64 
   14ab8:	c7 85 a0 e4 ff ff 00 	movl   $0x0,-0x1b60(%rbp)
   14abf:	00 00 00 
   14ac2:	e9 8d 02 00 00       	jmpq   14d54 <func_39+0x3758>
   14ac7:	c7 85 34 e4 ff ff ff 	movl   $0xffffffff,-0x1bcc(%rbp)
   14ace:	ff ff ff 
   14ad1:	48 8d 85 b0 e3 ff ff 	lea    -0x1c50(%rbp),%rax
   14ad8:	48 89 85 b0 e5 ff ff 	mov    %rax,-0x1a50(%rbp)
   14adf:	48 c7 85 b8 e5 ff ff 	movq   $0x0,-0x1a48(%rbp)
   14ae6:	00 00 00 00 
   14aea:	48 8d 85 e0 f7 ff ff 	lea    -0x820(%rbp),%rax
   14af1:	48 8d 15 e8 ab 00 00 	lea    0xabe8(%rip),%rdx        # 1f6e0 <g_1942+0x24d0>
   14af8:	b9 f0 00 00 00       	mov    $0xf0,%ecx
   14afd:	48 89 c7             	mov    %rax,%rdi
   14b00:	48 89 d6             	mov    %rdx,%rsi
   14b03:	f3 48 a5             	rep movsq %ds:(%rsi),%es:(%rdi)
   14b06:	48 8d 05 83 bb 00 00 	lea    0xbb83(%rip),%rax        # 20690 <g_225>
   14b0d:	48 89 85 c0 e5 ff ff 	mov    %rax,-0x1a40(%rbp)
   14b14:	8b 85 34 e4 ff ff    	mov    -0x1bcc(%rbp),%eax
   14b1a:	0f b7 c0             	movzwl %ax,%eax
   14b1d:	be 00 00 00 00       	mov    $0x0,%esi
   14b22:	89 c7                	mov    %eax,%edi
   14b24:	e8 dd 72 ff ff       	callq  be06 <safe_lshift_func_uint16_t_u_u>
   14b29:	89 c3                	mov    %eax,%ebx
   14b2b:	0f b7 05 06 85 00 00 	movzwl 0x8506(%rip),%eax        # 1d038 <g_53>
   14b32:	48 8b 85 50 e5 ff ff 	mov    -0x1ab0(%rbp),%rax
   14b39:	8b 00                	mov    (%rax),%eax
   14b3b:	8d 50 ff             	lea    -0x1(%rax),%edx
   14b3e:	48 8b 85 50 e5 ff ff 	mov    -0x1ab0(%rbp),%rax
   14b45:	89 10                	mov    %edx,(%rax)
   14b47:	0f b7 85 b2 e3 ff ff 	movzwl -0x1c4e(%rbp),%eax
   14b4e:	44 0f b7 e0          	movzwl %ax,%r12d
   14b52:	48 8b 05 5f 85 00 00 	mov    0x855f(%rip),%rax        # 1d0b8 <g_199>
   14b59:	89 c6                	mov    %eax,%esi
   14b5b:	bf 01 00 00 00       	mov    $0x1,%edi
   14b60:	e8 c5 69 ff ff       	callq  b52a <safe_rshift_func_int16_t_s_s>
   14b65:	83 c8 fe             	or     $0xfffffffe,%eax
   14b68:	48 0f bf c0          	movswq %ax,%rax
   14b6c:	49 39 c4             	cmp    %rax,%r12
   14b6f:	0f 94 c0             	sete   %al
   14b72:	0f b6 d0             	movzbl %al,%edx
   14b75:	0f b7 05 bc 84 00 00 	movzwl 0x84bc(%rip),%eax        # 1d038 <g_53>
   14b7c:	0f b7 c0             	movzwl %ax,%eax
   14b7f:	39 c2                	cmp    %eax,%edx
   14b81:	0f 9c c0             	setl   %al
   14b84:	0f b6 d0             	movzbl %al,%edx
   14b87:	8b 85 18 e4 ff ff    	mov    -0x1be8(%rbp),%eax
   14b8d:	0f be c0             	movsbl %al,%eax
   14b90:	89 d6                	mov    %edx,%esi
   14b92:	89 c7                	mov    %eax,%edi
   14b94:	e8 3b 66 ff ff       	callq  b1d4 <safe_add_func_int8_t_s_s>
   14b99:	66 0f be d0          	movsbw %al,%dx
   14b9d:	48 8b 85 b0 e5 ff ff 	mov    -0x1a50(%rbp),%rax
   14ba4:	66 89 10             	mov    %dx,(%rax)
   14ba7:	48 8b 85 b0 e5 ff ff 	mov    -0x1a50(%rbp),%rax
   14bae:	0f b7 00             	movzwl (%rax),%eax
   14bb1:	0f b7 c0             	movzwl %ax,%eax
   14bb4:	89 c6                	mov    %eax,%esi
   14bb6:	bf ff ff 00 00       	mov    $0xffff,%edi
   14bbb:	e8 5f 71 ff ff       	callq  bd1f <safe_sub_func_uint16_t_u_u>
   14bc0:	66 39 c3             	cmp    %ax,%bx
   14bc3:	0f 94 c0             	sete   %al
   14bc6:	0f b6 d0             	movzbl %al,%edx
   14bc9:	48 8b 05 10 85 00 00 	mov    0x8510(%rip),%rax        # 1d0e0 <g_344>
   14bd0:	48 39 c2             	cmp    %rax,%rdx
   14bd3:	0f 97 c0             	seta   %al
   14bd6:	0f b6 c8             	movzbl %al,%ecx
   14bd9:	48 8b 05 d0 ba 00 00 	mov    0xbad0(%rip),%rax        # 206b0 <g_319>
   14be0:	8b 10                	mov    (%rax),%edx
   14be2:	48 8b 05 c7 ba 00 00 	mov    0xbac7(%rip),%rax        # 206b0 <g_319>
   14be9:	31 ca                	xor    %ecx,%edx
   14beb:	89 10                	mov    %edx,(%rax)
   14bed:	0f b6 05 bc 84 00 00 	movzbl 0x84bc(%rip),%eax        # 1d0b0 <g_180>
   14bf4:	84 c0                	test   %al,%al
   14bf6:	0f 84 c8 00 00 00    	je     14cc4 <func_39+0x36c8>
   14bfc:	48 8b 05 a5 ba 00 00 	mov    0xbaa5(%rip),%rax        # 206a8 <g_273>
   14c03:	0f b6 00             	movzbl (%rax),%eax
   14c06:	0f b6 d8             	movzbl %al,%ebx
   14c09:	48 8b 15 80 ba 00 00 	mov    0xba80(%rip),%rdx        # 20690 <g_225>
   14c10:	48 8b 02             	mov    (%rdx),%rax
   14c13:	48 8d 48 ff          	lea    -0x1(%rax),%rcx
   14c17:	48 89 0a             	mov    %rcx,(%rdx)
   14c1a:	48 85 c0             	test   %rax,%rax
   14c1d:	75 3b                	jne    14c5a <func_39+0x365e>
   14c1f:	48 83 bd 58 e5 ff ff 	cmpq   $0x0,-0x1aa8(%rbp)
   14c26:	00 
   14c27:	0f 94 c0             	sete   %al
   14c2a:	0f b6 c0             	movzbl %al,%eax
   14c2d:	be 8a ff ff ff       	mov    $0xffffff8a,%esi
   14c32:	89 c7                	mov    %eax,%edi
   14c34:	e8 d9 65 ff ff       	callq  b212 <safe_mul_func_int8_t_s_s>
   14c39:	84 c0                	test   %al,%al
   14c3b:	74 14                	je     14c51 <func_39+0x3655>
   14c3d:	48 8b 05 5c b7 00 00 	mov    0xb75c(%rip),%rax        # 203a0 <g_34>
   14c44:	8b 00                	mov    (%rax),%eax
   14c46:	85 c0                	test   %eax,%eax
   14c48:	74 07                	je     14c51 <func_39+0x3655>
   14c4a:	b8 01 00 00 00       	mov    $0x1,%eax
   14c4f:	eb 05                	jmp    14c56 <func_39+0x365a>
   14c51:	b8 00 00 00 00       	mov    $0x0,%eax
   14c56:	85 c0                	test   %eax,%eax
   14c58:	75 07                	jne    14c61 <func_39+0x3665>
   14c5a:	b8 01 00 00 00       	mov    $0x1,%eax
   14c5f:	eb 05                	jmp    14c66 <func_39+0x366a>
   14c61:	b8 00 00 00 00       	mov    $0x0,%eax
   14c66:	0f b7 d0             	movzwl %ax,%edx
   14c69:	0f b7 05 58 84 00 00 	movzwl 0x8458(%rip),%eax        # 1d0c8 <g_204>
   14c70:	c1 e0 02             	shl    $0x2,%eax
   14c73:	66 c1 f8 02          	sar    $0x2,%ax
   14c77:	0f b7 c0             	movzwl %ax,%eax
   14c7a:	89 d6                	mov    %edx,%esi
   14c7c:	89 c7                	mov    %eax,%edi
   14c7e:	e8 ba 70 ff ff       	callq  bd3d <safe_mul_func_uint16_t_u_u>
   14c83:	66 89 05 36 84 00 00 	mov    %ax,0x8436(%rip)        # 1d0c0 <g_203>
   14c8a:	0f b7 05 2f 84 00 00 	movzwl 0x842f(%rip),%eax        # 1d0c0 <g_203>
   14c91:	98                   	cwtl   
   14c92:	be f6 21 00 00       	mov    $0x21f6,%esi
   14c97:	89 c7                	mov    %eax,%edi
   14c99:	e8 57 67 ff ff       	callq  b3f5 <safe_mul_func_int16_t_s_s>
   14c9e:	0f b6 c0             	movzbl %al,%eax
   14ca1:	89 de                	mov    %ebx,%esi
   14ca3:	89 c7                	mov    %eax,%edi
   14ca5:	e8 a2 6f ff ff       	callq  bc4c <safe_lshift_func_uint8_t_u_u>
   14caa:	0f b6 c0             	movzbl %al,%eax
   14cad:	be aa 00 00 00       	mov    $0xaa,%esi
   14cb2:	89 c7                	mov    %eax,%edi
   14cb4:	e8 bf 6e ff ff       	callq  bb78 <safe_sub_func_uint8_t_u_u>
   14cb9:	84 c0                	test   %al,%al
   14cbb:	74 07                	je     14cc4 <func_39+0x36c8>
   14cbd:	b8 01 00 00 00       	mov    $0x1,%eax
   14cc2:	eb 05                	jmp    14cc9 <func_39+0x36cd>
   14cc4:	b8 00 00 00 00       	mov    $0x0,%eax
   14cc9:	0f b7 c0             	movzwl %ax,%eax
   14ccc:	be 00 00 00 00       	mov    $0x0,%esi
   14cd1:	89 c7                	mov    %eax,%edi
   14cd3:	e8 27 70 ff ff       	callq  bcff <safe_add_func_uint16_t_u_u>
   14cd8:	66 85 c0             	test   %ax,%ax
   14cdb:	74 09                	je     14ce6 <func_39+0x36ea>
   14cdd:	0f b6 85 9c e3 ff ff 	movzbl -0x1c64(%rbp),%eax
   14ce4:	84 c0                	test   %al,%al
   14ce6:	80 bd 98 e3 ff ff 00 	cmpb   $0x0,-0x1c68(%rbp)
   14ced:	74 08                	je     14cf7 <func_39+0x36fb>
   14cef:	8b 05 b3 83 00 00    	mov    0x83b3(%rip),%eax        # 1d0a8 <g_157>
   14cf5:	85 c0                	test   %eax,%eax
   14cf7:	48 83 bd b8 e4 ff ff 	cmpq   $0x0,-0x1b48(%rbp)
   14cfe:	00 
   14cff:	0f 95 c2             	setne  %dl
   14d02:	48 8b 05 97 b6 00 00 	mov    0xb697(%rip),%rax        # 203a0 <g_34>
   14d09:	0f b6 d2             	movzbl %dl,%edx
   14d0c:	89 10                	mov    %edx,(%rax)
   14d0e:	80 bd 98 e3 ff ff 00 	cmpb   $0x0,-0x1c68(%rbp)
   14d15:	75 2d                	jne    14d44 <func_39+0x3748>
   14d17:	48 8b 05 82 b9 00 00 	mov    0xb982(%rip),%rax        # 206a0 <g_226>
   14d1e:	48 8b 00             	mov    (%rax),%rax
   14d21:	48 39 85 c0 e5 ff ff 	cmp    %rax,-0x1a40(%rbp)
   14d28:	0f 94 c0             	sete   %al
   14d2b:	0f b6 c8             	movzbl %al,%ecx
   14d2e:	48 8b 05 7b b9 00 00 	mov    0xb97b(%rip),%rax        # 206b0 <g_319>
   14d35:	8b 10                	mov    (%rax),%edx
   14d37:	48 8b 05 72 b9 00 00 	mov    0xb972(%rip),%rax        # 206b0 <g_319>
   14d3e:	31 ca                	xor    %ecx,%edx
   14d40:	89 10                	mov    %edx,(%rax)
   14d42:	eb 01                	jmp    14d45 <func_39+0x3749>
   14d44:	90                   	nop
   14d45:	8b 85 a0 e4 ff ff    	mov    -0x1b60(%rbp),%eax
   14d4b:	83 c0 01             	add    $0x1,%eax
   14d4e:	89 85 a0 e4 ff ff    	mov    %eax,-0x1b60(%rbp)
   14d54:	8b 85 a0 e4 ff ff    	mov    -0x1b60(%rbp),%eax
   14d5a:	83 f8 30             	cmp    $0x30,%eax
   14d5d:	0f 85 64 fd ff ff    	jne    14ac7 <func_39+0x34cb>
   14d63:	c6 05 e6 82 00 00 ff 	movb   $0xff,0x82e6(%rip)        # 1d050 <g_92>
   14d6a:	90                   	nop
   14d6b:	0f b6 05 de 82 00 00 	movzbl 0x82de(%rip),%eax        # 1d050 <g_92>
   14d72:	3c fe                	cmp    $0xfe,%al
   14d74:	0f 84 1a 0e 00 00    	je     15b94 <func_39+0x4598>
   14d7a:	48 8d 05 a3 82 00 00 	lea    0x82a3(%rip),%rax        # 1d024 <g_9>
   14d81:	e9 10 23 00 00       	jmpq   17096 <func_39+0x5a9a>
   14d86:	48 8d 85 60 e8 ff ff 	lea    -0x17a0(%rbp),%rax
   14d8d:	48 83 c0 08          	add    $0x8,%rax
   14d91:	48 89 85 a8 e5 ff ff 	mov    %rax,-0x1a58(%rbp)
   14d98:	48 8d 85 c4 e3 ff ff 	lea    -0x1c3c(%rbp),%rax
   14d9f:	48 89 85 e0 f7 ff ff 	mov    %rax,-0x820(%rbp)
   14da6:	48 8d 85 c4 e3 ff ff 	lea    -0x1c3c(%rbp),%rax
   14dad:	48 89 85 e8 f7 ff ff 	mov    %rax,-0x818(%rbp)
   14db4:	48 8d 85 60 e8 ff ff 	lea    -0x17a0(%rbp),%rax
   14dbb:	48 83 c0 08          	add    $0x8,%rax
   14dbf:	48 89 85 f0 f7 ff ff 	mov    %rax,-0x810(%rbp)
   14dc6:	48 c7 85 f8 f7 ff ff 	movq   $0x0,-0x808(%rbp)
   14dcd:	00 00 00 00 
   14dd1:	48 8d 05 4c 82 00 00 	lea    0x824c(%rip),%rax        # 1d024 <g_9>
   14dd8:	48 89 85 00 f8 ff ff 	mov    %rax,-0x800(%rbp)
   14ddf:	48 8d 85 80 e8 ff ff 	lea    -0x1780(%rbp),%rax
   14de6:	48 89 85 08 f8 ff ff 	mov    %rax,-0x7f8(%rbp)
   14ded:	48 8d 85 c4 e3 ff ff 	lea    -0x1c3c(%rbp),%rax
   14df4:	48 89 85 10 f8 ff ff 	mov    %rax,-0x7f0(%rbp)
   14dfb:	48 c7 85 18 f8 ff ff 	movq   $0x0,-0x7e8(%rbp)
   14e02:	00 00 00 00 
   14e06:	48 8d 85 60 e8 ff ff 	lea    -0x17a0(%rbp),%rax
   14e0d:	48 83 c0 08          	add    $0x8,%rax
   14e11:	48 89 85 20 f8 ff ff 	mov    %rax,-0x7e0(%rbp)
   14e18:	48 8d 85 60 e8 ff ff 	lea    -0x17a0(%rbp),%rax
   14e1f:	48 83 c0 08          	add    $0x8,%rax
   14e23:	48 89 85 28 f8 ff ff 	mov    %rax,-0x7d8(%rbp)
   14e2a:	48 c7 85 30 f8 ff ff 	movq   $0x0,-0x7d0(%rbp)
   14e31:	00 00 00 00 
   14e35:	48 8d 85 c4 e3 ff ff 	lea    -0x1c3c(%rbp),%rax
   14e3c:	48 89 85 38 f8 ff ff 	mov    %rax,-0x7c8(%rbp)
   14e43:	48 8d 85 80 e8 ff ff 	lea    -0x1780(%rbp),%rax
   14e4a:	48 83 c0 0c          	add    $0xc,%rax
   14e4e:	48 89 85 40 f8 ff ff 	mov    %rax,-0x7c0(%rbp)
   14e55:	48 8d 85 60 e8 ff ff 	lea    -0x17a0(%rbp),%rax
   14e5c:	48 83 c0 08          	add    $0x8,%rax
   14e60:	48 89 85 48 f8 ff ff 	mov    %rax,-0x7b8(%rbp)
   14e67:	48 8d 85 60 e8 ff ff 	lea    -0x17a0(%rbp),%rax
   14e6e:	48 83 c0 08          	add    $0x8,%rax
   14e72:	48 89 85 50 f8 ff ff 	mov    %rax,-0x7b0(%rbp)
   14e79:	48 c7 85 58 f8 ff ff 	movq   $0x0,-0x7a8(%rbp)
   14e80:	00 00 00 00 
   14e84:	48 8d 85 60 e8 ff ff 	lea    -0x17a0(%rbp),%rax
   14e8b:	48 83 c0 08          	add    $0x8,%rax
   14e8f:	48 89 85 60 f8 ff ff 	mov    %rax,-0x7a0(%rbp)
   14e96:	48 8d 85 80 e8 ff ff 	lea    -0x1780(%rbp),%rax
   14e9d:	48 89 85 68 f8 ff ff 	mov    %rax,-0x798(%rbp)
   14ea4:	48 8d 85 60 e8 ff ff 	lea    -0x17a0(%rbp),%rax
   14eab:	48 83 c0 08          	add    $0x8,%rax
   14eaf:	48 89 85 70 f8 ff ff 	mov    %rax,-0x790(%rbp)
   14eb6:	48 c7 85 78 f8 ff ff 	movq   $0x0,-0x788(%rbp)
   14ebd:	00 00 00 00 
   14ec1:	48 8d 05 c0 81 00 00 	lea    0x81c0(%rip),%rax        # 1d088 <g_106>
   14ec8:	48 89 85 80 f8 ff ff 	mov    %rax,-0x780(%rbp)
   14ecf:	48 8d 85 c4 e3 ff ff 	lea    -0x1c3c(%rbp),%rax
   14ed6:	48 89 85 88 f8 ff ff 	mov    %rax,-0x778(%rbp)
   14edd:	48 8d 05 c4 81 00 00 	lea    0x81c4(%rip),%rax        # 1d0a8 <g_157>
   14ee4:	48 89 85 90 f8 ff ff 	mov    %rax,-0x770(%rbp)
   14eeb:	48 8d 85 60 e8 ff ff 	lea    -0x17a0(%rbp),%rax
   14ef2:	48 83 c0 08          	add    $0x8,%rax
   14ef6:	48 89 85 98 f8 ff ff 	mov    %rax,-0x768(%rbp)
   14efd:	48 8d 05 84 81 00 00 	lea    0x8184(%rip),%rax        # 1d088 <g_106>
   14f04:	48 89 85 a0 f8 ff ff 	mov    %rax,-0x760(%rbp)
   14f0b:	48 8d 05 12 81 00 00 	lea    0x8112(%rip),%rax        # 1d024 <g_9>
   14f12:	48 89 85 a8 f8 ff ff 	mov    %rax,-0x758(%rbp)
   14f19:	48 8d 85 60 e8 ff ff 	lea    -0x17a0(%rbp),%rax
   14f20:	48 83 c0 08          	add    $0x8,%rax
   14f24:	48 89 85 b0 f8 ff ff 	mov    %rax,-0x750(%rbp)
   14f2b:	48 c7 85 b8 f8 ff ff 	movq   $0x0,-0x748(%rbp)
   14f32:	00 00 00 00 
   14f36:	48 8d 85 60 e8 ff ff 	lea    -0x17a0(%rbp),%rax
   14f3d:	48 83 c0 08          	add    $0x8,%rax
   14f41:	48 89 85 c0 f8 ff ff 	mov    %rax,-0x740(%rbp)
   14f48:	48 8d 05 39 81 00 00 	lea    0x8139(%rip),%rax        # 1d088 <g_106>
   14f4f:	48 89 85 c8 f8 ff ff 	mov    %rax,-0x738(%rbp)
   14f56:	48 8d 85 60 e8 ff ff 	lea    -0x17a0(%rbp),%rax
   14f5d:	48 83 c0 08          	add    $0x8,%rax
   14f61:	48 89 85 d0 f8 ff ff 	mov    %rax,-0x730(%rbp)
   14f68:	48 8d 05 b5 80 00 00 	lea    0x80b5(%rip),%rax        # 1d024 <g_9>
   14f6f:	48 89 85 d8 f8 ff ff 	mov    %rax,-0x728(%rbp)
   14f76:	48 8d 85 80 e8 ff ff 	lea    -0x1780(%rbp),%rax
   14f7d:	48 83 c0 0c          	add    $0xc,%rax
   14f81:	48 89 85 e0 f8 ff ff 	mov    %rax,-0x720(%rbp)
   14f88:	48 8d 85 60 e8 ff ff 	lea    -0x17a0(%rbp),%rax
   14f8f:	48 83 c0 14          	add    $0x14,%rax
   14f93:	48 89 85 e8 f8 ff ff 	mov    %rax,-0x718(%rbp)
   14f9a:	48 c7 85 f0 f8 ff ff 	movq   $0x0,-0x710(%rbp)
   14fa1:	00 00 00 00 
   14fa5:	48 8d 05 78 80 00 00 	lea    0x8078(%rip),%rax        # 1d024 <g_9>
   14fac:	48 89 85 f8 f8 ff ff 	mov    %rax,-0x708(%rbp)
   14fb3:	48 8d 85 60 e8 ff ff 	lea    -0x17a0(%rbp),%rax
   14fba:	48 83 c0 08          	add    $0x8,%rax
   14fbe:	48 89 85 00 f9 ff ff 	mov    %rax,-0x700(%rbp)
   14fc5:	48 8d 05 bc 80 00 00 	lea    0x80bc(%rip),%rax        # 1d088 <g_106>
   14fcc:	48 89 85 08 f9 ff ff 	mov    %rax,-0x6f8(%rbp)
   14fd3:	48 8d 85 c4 e3 ff ff 	lea    -0x1c3c(%rbp),%rax
   14fda:	48 89 85 10 f9 ff ff 	mov    %rax,-0x6f0(%rbp)
   14fe1:	48 c7 85 18 f9 ff ff 	movq   $0x0,-0x6e8(%rbp)
   14fe8:	00 00 00 00 
   14fec:	48 8d 05 31 80 00 00 	lea    0x8031(%rip),%rax        # 1d024 <g_9>
   14ff3:	48 89 85 20 f9 ff ff 	mov    %rax,-0x6e0(%rbp)
   14ffa:	48 8d 05 23 80 00 00 	lea    0x8023(%rip),%rax        # 1d024 <g_9>
   15001:	48 89 85 28 f9 ff ff 	mov    %rax,-0x6d8(%rbp)
   15008:	48 8d 85 60 e8 ff ff 	lea    -0x17a0(%rbp),%rax
   1500f:	48 83 c0 08          	add    $0x8,%rax
   15013:	48 89 85 30 f9 ff ff 	mov    %rax,-0x6d0(%rbp)
   1501a:	48 8d 85 60 e8 ff ff 	lea    -0x17a0(%rbp),%rax
   15021:	48 83 c0 08          	add    $0x8,%rax
   15025:	48 89 85 38 f9 ff ff 	mov    %rax,-0x6c8(%rbp)
   1502c:	48 8d 85 c4 e3 ff ff 	lea    -0x1c3c(%rbp),%rax
   15033:	48 89 85 40 f9 ff ff 	mov    %rax,-0x6c0(%rbp)
   1503a:	48 8d 85 c4 e3 ff ff 	lea    -0x1c3c(%rbp),%rax
   15041:	48 89 85 48 f9 ff ff 	mov    %rax,-0x6b8(%rbp)
   15048:	48 8d 85 60 e8 ff ff 	lea    -0x17a0(%rbp),%rax
   1504f:	48 83 c0 08          	add    $0x8,%rax
   15053:	48 89 85 50 f9 ff ff 	mov    %rax,-0x6b0(%rbp)
   1505a:	48 c7 85 58 f9 ff ff 	movq   $0x0,-0x6a8(%rbp)
   15061:	00 00 00 00 
   15065:	48 8d 05 b8 7f 00 00 	lea    0x7fb8(%rip),%rax        # 1d024 <g_9>
   1506c:	48 89 85 60 f9 ff ff 	mov    %rax,-0x6a0(%rbp)
   15073:	48 8d 85 80 e8 ff ff 	lea    -0x1780(%rbp),%rax
   1507a:	48 89 85 68 f9 ff ff 	mov    %rax,-0x698(%rbp)
   15081:	48 8d 85 c4 e3 ff ff 	lea    -0x1c3c(%rbp),%rax
   15088:	48 89 85 70 f9 ff ff 	mov    %rax,-0x690(%rbp)
   1508f:	48 c7 85 78 f9 ff ff 	movq   $0x0,-0x688(%rbp)
   15096:	00 00 00 00 
   1509a:	48 8d 85 60 e8 ff ff 	lea    -0x17a0(%rbp),%rax
   150a1:	48 83 c0 08          	add    $0x8,%rax
   150a5:	48 89 85 80 f9 ff ff 	mov    %rax,-0x680(%rbp)
   150ac:	48 8d 85 60 e8 ff ff 	lea    -0x17a0(%rbp),%rax
   150b3:	48 83 c0 08          	add    $0x8,%rax
   150b7:	48 89 85 88 f9 ff ff 	mov    %rax,-0x678(%rbp)
   150be:	48 c7 85 90 f9 ff ff 	movq   $0x0,-0x670(%rbp)
   150c5:	00 00 00 00 
   150c9:	48 8d 85 c4 e3 ff ff 	lea    -0x1c3c(%rbp),%rax
   150d0:	48 89 85 98 f9 ff ff 	mov    %rax,-0x668(%rbp)
   150d7:	48 8d 85 80 e8 ff ff 	lea    -0x1780(%rbp),%rax
   150de:	48 83 c0 0c          	add    $0xc,%rax
   150e2:	48 89 85 a0 f9 ff ff 	mov    %rax,-0x660(%rbp)
   150e9:	48 8d 85 60 e8 ff ff 	lea    -0x17a0(%rbp),%rax
   150f0:	48 83 c0 08          	add    $0x8,%rax
   150f4:	48 89 85 a8 f9 ff ff 	mov    %rax,-0x658(%rbp)
   150fb:	48 8d 85 60 e8 ff ff 	lea    -0x17a0(%rbp),%rax
   15102:	48 83 c0 08          	add    $0x8,%rax
   15106:	48 89 85 b0 f9 ff ff 	mov    %rax,-0x650(%rbp)
   1510d:	48 c7 85 b8 f9 ff ff 	movq   $0x0,-0x648(%rbp)
   15114:	00 00 00 00 
   15118:	48 8d 85 60 e8 ff ff 	lea    -0x17a0(%rbp),%rax
   1511f:	48 83 c0 08          	add    $0x8,%rax
   15123:	48 89 85 c0 f9 ff ff 	mov    %rax,-0x640(%rbp)
   1512a:	48 8d 85 80 e8 ff ff 	lea    -0x1780(%rbp),%rax
   15131:	48 89 85 c8 f9 ff ff 	mov    %rax,-0x638(%rbp)
   15138:	48 8d 85 60 e8 ff ff 	lea    -0x17a0(%rbp),%rax
   1513f:	48 83 c0 08          	add    $0x8,%rax
   15143:	48 89 85 d0 f9 ff ff 	mov    %rax,-0x630(%rbp)
   1514a:	48 c7 85 d8 f9 ff ff 	movq   $0x0,-0x628(%rbp)
   15151:	00 00 00 00 
   15155:	48 8d 05 2c 7f 00 00 	lea    0x7f2c(%rip),%rax        # 1d088 <g_106>
   1515c:	48 89 85 e0 f9 ff ff 	mov    %rax,-0x620(%rbp)
   15163:	48 8d 85 c4 e3 ff ff 	lea    -0x1c3c(%rbp),%rax
   1516a:	48 89 85 e8 f9 ff ff 	mov    %rax,-0x618(%rbp)
   15171:	48 8d 05 30 7f 00 00 	lea    0x7f30(%rip),%rax        # 1d0a8 <g_157>
   15178:	48 89 85 f0 f9 ff ff 	mov    %rax,-0x610(%rbp)
   1517f:	48 8d 85 60 e8 ff ff 	lea    -0x17a0(%rbp),%rax
   15186:	48 83 c0 08          	add    $0x8,%rax
   1518a:	48 89 85 f8 f9 ff ff 	mov    %rax,-0x608(%rbp)
   15191:	48 8d 05 f0 7e 00 00 	lea    0x7ef0(%rip),%rax        # 1d088 <g_106>
   15198:	48 89 85 00 fa ff ff 	mov    %rax,-0x600(%rbp)
   1519f:	48 8d 05 7e 7e 00 00 	lea    0x7e7e(%rip),%rax        # 1d024 <g_9>
   151a6:	48 89 85 08 fa ff ff 	mov    %rax,-0x5f8(%rbp)
   151ad:	48 8d 85 60 e8 ff ff 	lea    -0x17a0(%rbp),%rax
   151b4:	48 83 c0 08          	add    $0x8,%rax
   151b8:	48 89 85 10 fa ff ff 	mov    %rax,-0x5f0(%rbp)
   151bf:	48 c7 85 18 fa ff ff 	movq   $0x0,-0x5e8(%rbp)
   151c6:	00 00 00 00 
   151ca:	48 8d 85 60 e8 ff ff 	lea    -0x17a0(%rbp),%rax
   151d1:	48 83 c0 08          	add    $0x8,%rax
   151d5:	48 89 85 20 fa ff ff 	mov    %rax,-0x5e0(%rbp)
   151dc:	48 8d 05 a5 7e 00 00 	lea    0x7ea5(%rip),%rax        # 1d088 <g_106>
   151e3:	48 89 85 28 fa ff ff 	mov    %rax,-0x5d8(%rbp)
   151ea:	48 8d 85 60 e8 ff ff 	lea    -0x17a0(%rbp),%rax
   151f1:	48 83 c0 08          	add    $0x8,%rax
   151f5:	48 89 85 30 fa ff ff 	mov    %rax,-0x5d0(%rbp)
   151fc:	48 8d 05 21 7e 00 00 	lea    0x7e21(%rip),%rax        # 1d024 <g_9>
   15203:	48 89 85 38 fa ff ff 	mov    %rax,-0x5c8(%rbp)
   1520a:	48 8d 85 80 e8 ff ff 	lea    -0x1780(%rbp),%rax
   15211:	48 83 c0 0c          	add    $0xc,%rax
   15215:	48 89 85 40 fa ff ff 	mov    %rax,-0x5c0(%rbp)
   1521c:	48 8d 85 60 e8 ff ff 	lea    -0x17a0(%rbp),%rax
   15223:	48 83 c0 14          	add    $0x14,%rax
   15227:	48 89 85 48 fa ff ff 	mov    %rax,-0x5b8(%rbp)
   1522e:	48 c7 85 50 fa ff ff 	movq   $0x0,-0x5b0(%rbp)
   15235:	00 00 00 00 
   15239:	48 8d 05 e4 7d 00 00 	lea    0x7de4(%rip),%rax        # 1d024 <g_9>
   15240:	48 89 85 58 fa ff ff 	mov    %rax,-0x5a8(%rbp)
   15247:	48 8d 85 60 e8 ff ff 	lea    -0x17a0(%rbp),%rax
   1524e:	48 83 c0 08          	add    $0x8,%rax
   15252:	48 89 85 60 fa ff ff 	mov    %rax,-0x5a0(%rbp)
   15259:	48 8d 05 28 7e 00 00 	lea    0x7e28(%rip),%rax        # 1d088 <g_106>
   15260:	48 89 85 68 fa ff ff 	mov    %rax,-0x598(%rbp)
   15267:	48 8d 85 c4 e3 ff ff 	lea    -0x1c3c(%rbp),%rax
   1526e:	48 89 85 70 fa ff ff 	mov    %rax,-0x590(%rbp)
   15275:	48 c7 85 78 fa ff ff 	movq   $0x0,-0x588(%rbp)
   1527c:	00 00 00 00 
   15280:	48 8d 05 9d 7d 00 00 	lea    0x7d9d(%rip),%rax        # 1d024 <g_9>
   15287:	48 89 85 80 fa ff ff 	mov    %rax,-0x580(%rbp)
   1528e:	48 8d 05 8f 7d 00 00 	lea    0x7d8f(%rip),%rax        # 1d024 <g_9>
   15295:	48 89 85 88 fa ff ff 	mov    %rax,-0x578(%rbp)
   1529c:	48 8d 85 60 e8 ff ff 	lea    -0x17a0(%rbp),%rax
   152a3:	48 83 c0 08          	add    $0x8,%rax
   152a7:	48 89 85 90 fa ff ff 	mov    %rax,-0x570(%rbp)
   152ae:	48 8d 85 60 e8 ff ff 	lea    -0x17a0(%rbp),%rax
   152b5:	48 83 c0 08          	add    $0x8,%rax
   152b9:	48 89 85 98 fa ff ff 	mov    %rax,-0x568(%rbp)
   152c0:	48 8d 85 c4 e3 ff ff 	lea    -0x1c3c(%rbp),%rax
   152c7:	48 89 85 a0 fa ff ff 	mov    %rax,-0x560(%rbp)
   152ce:	48 8d 85 c4 e3 ff ff 	lea    -0x1c3c(%rbp),%rax
   152d5:	48 89 85 a8 fa ff ff 	mov    %rax,-0x558(%rbp)
   152dc:	48 8d 85 60 e8 ff ff 	lea    -0x17a0(%rbp),%rax
   152e3:	48 83 c0 08          	add    $0x8,%rax
   152e7:	48 89 85 b0 fa ff ff 	mov    %rax,-0x550(%rbp)
   152ee:	48 c7 85 b8 fa ff ff 	movq   $0x0,-0x548(%rbp)
   152f5:	00 00 00 00 
   152f9:	48 8d 05 24 7d 00 00 	lea    0x7d24(%rip),%rax        # 1d024 <g_9>
   15300:	48 89 85 c0 fa ff ff 	mov    %rax,-0x540(%rbp)
   15307:	48 8d 85 80 e8 ff ff 	lea    -0x1780(%rbp),%rax
   1530e:	48 89 85 c8 fa ff ff 	mov    %rax,-0x538(%rbp)
   15315:	48 8d 85 c4 e3 ff ff 	lea    -0x1c3c(%rbp),%rax
   1531c:	48 89 85 d0 fa ff ff 	mov    %rax,-0x530(%rbp)
   15323:	48 c7 85 d8 fa ff ff 	movq   $0x0,-0x528(%rbp)
   1532a:	00 00 00 00 
   1532e:	48 8d 85 60 e8 ff ff 	lea    -0x17a0(%rbp),%rax
   15335:	48 83 c0 08          	add    $0x8,%rax
   15339:	48 89 85 e0 fa ff ff 	mov    %rax,-0x520(%rbp)
   15340:	48 8d 85 60 e8 ff ff 	lea    -0x17a0(%rbp),%rax
   15347:	48 83 c0 08          	add    $0x8,%rax
   1534b:	48 89 85 e8 fa ff ff 	mov    %rax,-0x518(%rbp)
   15352:	48 c7 85 f0 fa ff ff 	movq   $0x0,-0x510(%rbp)
   15359:	00 00 00 00 
   1535d:	48 8d 85 c4 e3 ff ff 	lea    -0x1c3c(%rbp),%rax
   15364:	48 89 85 f8 fa ff ff 	mov    %rax,-0x508(%rbp)
   1536b:	48 8d 85 80 e8 ff ff 	lea    -0x1780(%rbp),%rax
   15372:	48 83 c0 0c          	add    $0xc,%rax
   15376:	48 89 85 00 fb ff ff 	mov    %rax,-0x500(%rbp)
   1537d:	48 8d 85 60 e8 ff ff 	lea    -0x17a0(%rbp),%rax
   15384:	48 83 c0 08          	add    $0x8,%rax
   15388:	48 89 85 08 fb ff ff 	mov    %rax,-0x4f8(%rbp)
   1538f:	48 8d 85 60 e8 ff ff 	lea    -0x17a0(%rbp),%rax
   15396:	48 83 c0 08          	add    $0x8,%rax
   1539a:	48 89 85 10 fb ff ff 	mov    %rax,-0x4f0(%rbp)
   153a1:	48 c7 85 18 fb ff ff 	movq   $0x0,-0x4e8(%rbp)
   153a8:	00 00 00 00 
   153ac:	48 8d 85 60 e8 ff ff 	lea    -0x17a0(%rbp),%rax
   153b3:	48 83 c0 08          	add    $0x8,%rax
   153b7:	48 89 85 20 fb ff ff 	mov    %rax,-0x4e0(%rbp)
   153be:	48 8d 85 80 e8 ff ff 	lea    -0x1780(%rbp),%rax
   153c5:	48 89 85 28 fb ff ff 	mov    %rax,-0x4d8(%rbp)
   153cc:	48 8d 85 60 e8 ff ff 	lea    -0x17a0(%rbp),%rax
   153d3:	48 83 c0 08          	add    $0x8,%rax
   153d7:	48 89 85 30 fb ff ff 	mov    %rax,-0x4d0(%rbp)
   153de:	48 c7 85 38 fb ff ff 	movq   $0x0,-0x4c8(%rbp)
   153e5:	00 00 00 00 
   153e9:	48 8d 05 98 7c 00 00 	lea    0x7c98(%rip),%rax        # 1d088 <g_106>
   153f0:	48 89 85 40 fb ff ff 	mov    %rax,-0x4c0(%rbp)
   153f7:	48 8d 85 c4 e3 ff ff 	lea    -0x1c3c(%rbp),%rax
   153fe:	48 89 85 48 fb ff ff 	mov    %rax,-0x4b8(%rbp)
   15405:	48 8d 05 9c 7c 00 00 	lea    0x7c9c(%rip),%rax        # 1d0a8 <g_157>
   1540c:	48 89 85 50 fb ff ff 	mov    %rax,-0x4b0(%rbp)
   15413:	48 8d 85 60 e8 ff ff 	lea    -0x17a0(%rbp),%rax
   1541a:	48 83 c0 08          	add    $0x8,%rax
   1541e:	48 89 85 58 fb ff ff 	mov    %rax,-0x4a8(%rbp)
   15425:	48 8d 05 5c 7c 00 00 	lea    0x7c5c(%rip),%rax        # 1d088 <g_106>
   1542c:	48 89 85 60 fb ff ff 	mov    %rax,-0x4a0(%rbp)
   15433:	48 8d 05 ea 7b 00 00 	lea    0x7bea(%rip),%rax        # 1d024 <g_9>
   1543a:	48 89 85 68 fb ff ff 	mov    %rax,-0x498(%rbp)
   15441:	48 8d 85 60 e8 ff ff 	lea    -0x17a0(%rbp),%rax
   15448:	48 83 c0 08          	add    $0x8,%rax
   1544c:	48 89 85 70 fb ff ff 	mov    %rax,-0x490(%rbp)
   15453:	48 c7 85 78 fb ff ff 	movq   $0x0,-0x488(%rbp)
   1545a:	00 00 00 00 
   1545e:	48 8d 85 60 e8 ff ff 	lea    -0x17a0(%rbp),%rax
   15465:	48 83 c0 08          	add    $0x8,%rax
   15469:	48 89 85 80 fb ff ff 	mov    %rax,-0x480(%rbp)
   15470:	48 8d 05 11 7c 00 00 	lea    0x7c11(%rip),%rax        # 1d088 <g_106>
   15477:	48 89 85 88 fb ff ff 	mov    %rax,-0x478(%rbp)
   1547e:	48 8d 85 60 e8 ff ff 	lea    -0x17a0(%rbp),%rax
   15485:	48 83 c0 08          	add    $0x8,%rax
   15489:	48 89 85 90 fb ff ff 	mov    %rax,-0x470(%rbp)
   15490:	48 8d 05 8d 7b 00 00 	lea    0x7b8d(%rip),%rax        # 1d024 <g_9>
   15497:	48 89 85 98 fb ff ff 	mov    %rax,-0x468(%rbp)
   1549e:	48 8d 85 80 e8 ff ff 	lea    -0x1780(%rbp),%rax
   154a5:	48 83 c0 0c          	add    $0xc,%rax
   154a9:	48 89 85 a0 fb ff ff 	mov    %rax,-0x460(%rbp)
   154b0:	48 8d 85 60 e8 ff ff 	lea    -0x17a0(%rbp),%rax
   154b7:	48 83 c0 14          	add    $0x14,%rax
   154bb:	48 89 85 a8 fb ff ff 	mov    %rax,-0x458(%rbp)
   154c2:	48 c7 85 b0 fb ff ff 	movq   $0x0,-0x450(%rbp)
   154c9:	00 00 00 00 
   154cd:	48 8d 05 50 7b 00 00 	lea    0x7b50(%rip),%rax        # 1d024 <g_9>
   154d4:	48 89 85 b8 fb ff ff 	mov    %rax,-0x448(%rbp)
   154db:	48 8d 85 60 e8 ff ff 	lea    -0x17a0(%rbp),%rax
   154e2:	48 83 c0 08          	add    $0x8,%rax
   154e6:	48 89 85 c0 fb ff ff 	mov    %rax,-0x440(%rbp)
   154ed:	48 8d 05 94 7b 00 00 	lea    0x7b94(%rip),%rax        # 1d088 <g_106>
   154f4:	48 89 85 c8 fb ff ff 	mov    %rax,-0x438(%rbp)
   154fb:	48 c7 85 d0 fb ff ff 	movq   $0x0,-0x430(%rbp)
   15502:	00 00 00 00 
   15506:	48 8d 85 60 e8 ff ff 	lea    -0x17a0(%rbp),%rax
   1550d:	48 83 c0 08          	add    $0x8,%rax
   15511:	48 89 85 d8 fb ff ff 	mov    %rax,-0x428(%rbp)
   15518:	48 8d 85 80 e8 ff ff 	lea    -0x1780(%rbp),%rax
   1551f:	48 83 c0 0c          	add    $0xc,%rax
   15523:	48 89 85 e0 fb ff ff 	mov    %rax,-0x420(%rbp)
   1552a:	48 8d 05 57 7b 00 00 	lea    0x7b57(%rip),%rax        # 1d088 <g_106>
   15531:	48 89 85 e8 fb ff ff 	mov    %rax,-0x418(%rbp)
   15538:	48 8d 05 69 7b 00 00 	lea    0x7b69(%rip),%rax        # 1d0a8 <g_157>
   1553f:	48 89 85 f0 fb ff ff 	mov    %rax,-0x410(%rbp)
   15546:	48 8d 05 5b 7b 00 00 	lea    0x7b5b(%rip),%rax        # 1d0a8 <g_157>
   1554d:	48 89 85 f8 fb ff ff 	mov    %rax,-0x408(%rbp)
   15554:	48 8d 85 80 e8 ff ff 	lea    -0x1780(%rbp),%rax
   1555b:	48 89 85 00 fc ff ff 	mov    %rax,-0x400(%rbp)
   15562:	48 8d 85 80 e8 ff ff 	lea    -0x1780(%rbp),%rax
   15569:	48 89 85 08 fc ff ff 	mov    %rax,-0x3f8(%rbp)
   15570:	48 8d 05 31 7b 00 00 	lea    0x7b31(%rip),%rax        # 1d0a8 <g_157>
   15577:	48 89 85 10 fc ff ff 	mov    %rax,-0x3f0(%rbp)
   1557e:	48 c7 85 18 fc ff ff 	movq   $0x0,-0x3e8(%rbp)
   15585:	00 00 00 00 
   15589:	48 8d 85 80 e8 ff ff 	lea    -0x1780(%rbp),%rax
   15590:	48 83 c0 0c          	add    $0xc,%rax
   15594:	48 89 85 20 fc ff ff 	mov    %rax,-0x3e0(%rbp)
   1559b:	48 8d 85 60 e8 ff ff 	lea    -0x17a0(%rbp),%rax
   155a2:	48 83 c0 08          	add    $0x8,%rax
   155a6:	48 89 85 28 fc ff ff 	mov    %rax,-0x3d8(%rbp)
   155ad:	48 c7 85 30 fc ff ff 	movq   $0x0,-0x3d0(%rbp)
   155b4:	00 00 00 00 
   155b8:	48 8d 85 60 e8 ff ff 	lea    -0x17a0(%rbp),%rax
   155bf:	48 83 c0 08          	add    $0x8,%rax
   155c3:	48 89 85 38 fc ff ff 	mov    %rax,-0x3c8(%rbp)
   155ca:	48 8d 05 53 7a 00 00 	lea    0x7a53(%rip),%rax        # 1d024 <g_9>
   155d1:	48 89 85 40 fc ff ff 	mov    %rax,-0x3c0(%rbp)
   155d8:	48 8d 85 60 e8 ff ff 	lea    -0x17a0(%rbp),%rax
   155df:	48 83 c0 14          	add    $0x14,%rax
   155e3:	48 89 85 48 fc ff ff 	mov    %rax,-0x3b8(%rbp)
   155ea:	48 c7 85 50 fc ff ff 	movq   $0x0,-0x3b0(%rbp)
   155f1:	00 00 00 00 
   155f5:	48 c7 85 58 fc ff ff 	movq   $0x0,-0x3a8(%rbp)
   155fc:	00 00 00 00 
   15600:	48 8d 05 1d 7a 00 00 	lea    0x7a1d(%rip),%rax        # 1d024 <g_9>
   15607:	48 89 85 60 fc ff ff 	mov    %rax,-0x3a0(%rbp)
   1560e:	48 8d 85 60 e8 ff ff 	lea    -0x17a0(%rbp),%rax
   15615:	48 83 c0 14          	add    $0x14,%rax
   15619:	48 89 85 68 fc ff ff 	mov    %rax,-0x398(%rbp)
   15620:	48 8d 85 60 e8 ff ff 	lea    -0x17a0(%rbp),%rax
   15627:	48 83 c0 08          	add    $0x8,%rax
   1562b:	48 89 85 70 fc ff ff 	mov    %rax,-0x390(%rbp)
   15632:	48 8d 85 60 e8 ff ff 	lea    -0x17a0(%rbp),%rax
   15639:	48 83 c0 08          	add    $0x8,%rax
   1563d:	48 89 85 78 fc ff ff 	mov    %rax,-0x388(%rbp)
   15644:	48 8d 85 60 e8 ff ff 	lea    -0x17a0(%rbp),%rax
   1564b:	48 83 c0 14          	add    $0x14,%rax
   1564f:	48 89 85 80 fc ff ff 	mov    %rax,-0x380(%rbp)
   15656:	48 8d 85 60 e8 ff ff 	lea    -0x17a0(%rbp),%rax
   1565d:	48 83 c0 08          	add    $0x8,%rax
   15661:	48 89 85 88 fc ff ff 	mov    %rax,-0x378(%rbp)
   15668:	48 c7 85 90 fc ff ff 	movq   $0x0,-0x370(%rbp)
   1566f:	00 00 00 00 
   15673:	48 c7 85 98 fc ff ff 	movq   $0x0,-0x368(%rbp)
   1567a:	00 00 00 00 
   1567e:	48 8d 85 c4 e3 ff ff 	lea    -0x1c3c(%rbp),%rax
   15685:	48 89 85 a0 fc ff ff 	mov    %rax,-0x360(%rbp)
   1568c:	48 8d 85 80 e8 ff ff 	lea    -0x1780(%rbp),%rax
   15693:	48 89 85 a8 fc ff ff 	mov    %rax,-0x358(%rbp)
   1569a:	48 8d 05 83 79 00 00 	lea    0x7983(%rip),%rax        # 1d024 <g_9>
   156a1:	48 89 85 b0 fc ff ff 	mov    %rax,-0x350(%rbp)
   156a8:	48 8d 05 f9 79 00 00 	lea    0x79f9(%rip),%rax        # 1d0a8 <g_157>
   156af:	48 89 85 b8 fc ff ff 	mov    %rax,-0x348(%rbp)
   156b6:	48 8d 85 c4 e3 ff ff 	lea    -0x1c3c(%rbp),%rax
   156bd:	48 89 85 c0 fc ff ff 	mov    %rax,-0x340(%rbp)
   156c4:	48 8d 05 bd 79 00 00 	lea    0x79bd(%rip),%rax        # 1d088 <g_106>
   156cb:	48 89 85 c8 fc ff ff 	mov    %rax,-0x338(%rbp)
   156d2:	48 c7 85 d0 fc ff ff 	movq   $0x0,-0x330(%rbp)
   156d9:	00 00 00 00 
   156dd:	48 8d 85 60 e8 ff ff 	lea    -0x17a0(%rbp),%rax
   156e4:	48 83 c0 08          	add    $0x8,%rax
   156e8:	48 89 85 d8 fc ff ff 	mov    %rax,-0x328(%rbp)
   156ef:	48 8d 85 60 e8 ff ff 	lea    -0x17a0(%rbp),%rax
   156f6:	48 83 c0 14          	add    $0x14,%rax
   156fa:	48 89 85 e0 fc ff ff 	mov    %rax,-0x320(%rbp)
   15701:	48 8d 85 c4 e3 ff ff 	lea    -0x1c3c(%rbp),%rax
   15708:	48 89 85 e8 fc ff ff 	mov    %rax,-0x318(%rbp)
   1570f:	48 8d 85 60 e8 ff ff 	lea    -0x17a0(%rbp),%rax
   15716:	48 83 c0 08          	add    $0x8,%rax
   1571a:	48 89 85 f0 fc ff ff 	mov    %rax,-0x310(%rbp)
   15721:	48 8d 85 c4 e3 ff ff 	lea    -0x1c3c(%rbp),%rax
   15728:	48 89 85 f8 fc ff ff 	mov    %rax,-0x308(%rbp)
   1572f:	48 8d 05 ee 78 00 00 	lea    0x78ee(%rip),%rax        # 1d024 <g_9>
   15736:	48 89 85 00 fd ff ff 	mov    %rax,-0x300(%rbp)
   1573d:	48 c7 85 08 fd ff ff 	movq   $0x0,-0x2f8(%rbp)
   15744:	00 00 00 00 
   15748:	48 c7 85 10 fd ff ff 	movq   $0x0,-0x2f0(%rbp)
   1574f:	00 00 00 00 
   15753:	48 8d 85 c4 e3 ff ff 	lea    -0x1c3c(%rbp),%rax
   1575a:	48 89 85 18 fd ff ff 	mov    %rax,-0x2e8(%rbp)
   15761:	48 8d 05 bc 78 00 00 	lea    0x78bc(%rip),%rax        # 1d024 <g_9>
   15768:	48 89 85 20 fd ff ff 	mov    %rax,-0x2e0(%rbp)
   1576f:	48 8d 85 c4 e3 ff ff 	lea    -0x1c3c(%rbp),%rax
   15776:	48 89 85 28 fd ff ff 	mov    %rax,-0x2d8(%rbp)
   1577d:	48 c7 85 30 fd ff ff 	movq   $0x0,-0x2d0(%rbp)
   15784:	00 00 00 00 
   15788:	48 8d 85 60 e8 ff ff 	lea    -0x17a0(%rbp),%rax
   1578f:	48 83 c0 08          	add    $0x8,%rax
   15793:	48 89 85 38 fd ff ff 	mov    %rax,-0x2c8(%rbp)
   1579a:	48 8d 85 80 e8 ff ff 	lea    -0x1780(%rbp),%rax
   157a1:	48 83 c0 0c          	add    $0xc,%rax
   157a5:	48 89 85 40 fd ff ff 	mov    %rax,-0x2c0(%rbp)
   157ac:	48 8d 05 d5 78 00 00 	lea    0x78d5(%rip),%rax        # 1d088 <g_106>
   157b3:	48 89 85 48 fd ff ff 	mov    %rax,-0x2b8(%rbp)
   157ba:	48 8d 05 e7 78 00 00 	lea    0x78e7(%rip),%rax        # 1d0a8 <g_157>
   157c1:	48 89 85 50 fd ff ff 	mov    %rax,-0x2b0(%rbp)
   157c8:	48 8d 05 d9 78 00 00 	lea    0x78d9(%rip),%rax        # 1d0a8 <g_157>
   157cf:	48 89 85 58 fd ff ff 	mov    %rax,-0x2a8(%rbp)
   157d6:	48 8d 85 80 e8 ff ff 	lea    -0x1780(%rbp),%rax
   157dd:	48 89 85 60 fd ff ff 	mov    %rax,-0x2a0(%rbp)
   157e4:	48 8d 85 80 e8 ff ff 	lea    -0x1780(%rbp),%rax
   157eb:	48 89 85 68 fd ff ff 	mov    %rax,-0x298(%rbp)
   157f2:	48 8d 05 af 78 00 00 	lea    0x78af(%rip),%rax        # 1d0a8 <g_157>
   157f9:	48 89 85 70 fd ff ff 	mov    %rax,-0x290(%rbp)
   15800:	48 c7 85 78 fd ff ff 	movq   $0x0,-0x288(%rbp)
   15807:	00 00 00 00 
   1580b:	48 8d 85 80 e8 ff ff 	lea    -0x1780(%rbp),%rax
   15812:	48 83 c0 0c          	add    $0xc,%rax
   15816:	48 89 85 80 fd ff ff 	mov    %rax,-0x280(%rbp)
   1581d:	48 8d 85 60 e8 ff ff 	lea    -0x17a0(%rbp),%rax
   15824:	48 83 c0 08          	add    $0x8,%rax
   15828:	48 89 85 88 fd ff ff 	mov    %rax,-0x278(%rbp)
   1582f:	48 c7 85 90 fd ff ff 	movq   $0x0,-0x270(%rbp)
   15836:	00 00 00 00 
   1583a:	48 8d 85 60 e8 ff ff 	lea    -0x17a0(%rbp),%rax
   15841:	48 83 c0 08          	add    $0x8,%rax
   15845:	48 89 85 98 fd ff ff 	mov    %rax,-0x268(%rbp)
   1584c:	48 8d 05 d1 77 00 00 	lea    0x77d1(%rip),%rax        # 1d024 <g_9>
   15853:	48 89 85 a0 fd ff ff 	mov    %rax,-0x260(%rbp)
   1585a:	48 8d 85 60 e8 ff ff 	lea    -0x17a0(%rbp),%rax
   15861:	48 83 c0 14          	add    $0x14,%rax
   15865:	48 89 85 a8 fd ff ff 	mov    %rax,-0x258(%rbp)
   1586c:	48 c7 85 b0 fd ff ff 	movq   $0x0,-0x250(%rbp)
   15873:	00 00 00 00 
   15877:	48 c7 85 b8 fd ff ff 	movq   $0x0,-0x248(%rbp)
   1587e:	00 00 00 00 
   15882:	48 8d 05 9b 77 00 00 	lea    0x779b(%rip),%rax        # 1d024 <g_9>
   15889:	48 89 85 c0 fd ff ff 	mov    %rax,-0x240(%rbp)
   15890:	48 8d 85 60 e8 ff ff 	lea    -0x17a0(%rbp),%rax
   15897:	48 83 c0 14          	add    $0x14,%rax
   1589b:	48 89 85 c8 fd ff ff 	mov    %rax,-0x238(%rbp)
   158a2:	48 8d 85 60 e8 ff ff 	lea    -0x17a0(%rbp),%rax
   158a9:	48 83 c0 08          	add    $0x8,%rax
   158ad:	48 89 85 d0 fd ff ff 	mov    %rax,-0x230(%rbp)
   158b4:	48 8d 85 60 e8 ff ff 	lea    -0x17a0(%rbp),%rax
   158bb:	48 83 c0 08          	add    $0x8,%rax
   158bf:	48 89 85 d8 fd ff ff 	mov    %rax,-0x228(%rbp)
   158c6:	48 8d 85 60 e8 ff ff 	lea    -0x17a0(%rbp),%rax
   158cd:	48 83 c0 14          	add    $0x14,%rax
   158d1:	48 89 85 e0 fd ff ff 	mov    %rax,-0x220(%rbp)
   158d8:	48 8d 85 60 e8 ff ff 	lea    -0x17a0(%rbp),%rax
   158df:	48 83 c0 08          	add    $0x8,%rax
   158e3:	48 89 85 e8 fd ff ff 	mov    %rax,-0x218(%rbp)
   158ea:	48 c7 85 f0 fd ff ff 	movq   $0x0,-0x210(%rbp)
   158f1:	00 00 00 00 
   158f5:	48 c7 85 f8 fd ff ff 	movq   $0x0,-0x208(%rbp)
   158fc:	00 00 00 00 
   15900:	48 8d 85 c4 e3 ff ff 	lea    -0x1c3c(%rbp),%rax
   15907:	48 89 85 00 fe ff ff 	mov    %rax,-0x200(%rbp)
   1590e:	48 8d 85 80 e8 ff ff 	lea    -0x1780(%rbp),%rax
   15915:	48 89 85 08 fe ff ff 	mov    %rax,-0x1f8(%rbp)
   1591c:	48 8d 05 01 77 00 00 	lea    0x7701(%rip),%rax        # 1d024 <g_9>
   15923:	48 89 85 10 fe ff ff 	mov    %rax,-0x1f0(%rbp)
   1592a:	48 8d 05 77 77 00 00 	lea    0x7777(%rip),%rax        # 1d0a8 <g_157>
   15931:	48 89 85 18 fe ff ff 	mov    %rax,-0x1e8(%rbp)
   15938:	48 8d 85 c4 e3 ff ff 	lea    -0x1c3c(%rbp),%rax
   1593f:	48 89 85 20 fe ff ff 	mov    %rax,-0x1e0(%rbp)
   15946:	48 8d 05 3b 77 00 00 	lea    0x773b(%rip),%rax        # 1d088 <g_106>
   1594d:	48 89 85 28 fe ff ff 	mov    %rax,-0x1d8(%rbp)
   15954:	48 c7 85 30 fe ff ff 	movq   $0x0,-0x1d0(%rbp)
   1595b:	00 00 00 00 
   1595f:	48 8d 85 60 e8 ff ff 	lea    -0x17a0(%rbp),%rax
   15966:	48 83 c0 08          	add    $0x8,%rax
   1596a:	48 89 85 38 fe ff ff 	mov    %rax,-0x1c8(%rbp)
   15971:	48 8d 85 60 e8 ff ff 	lea    -0x17a0(%rbp),%rax
   15978:	48 83 c0 14          	add    $0x14,%rax
   1597c:	48 89 85 40 fe ff ff 	mov    %rax,-0x1c0(%rbp)
   15983:	48 8d 85 c4 e3 ff ff 	lea    -0x1c3c(%rbp),%rax
   1598a:	48 89 85 48 fe ff ff 	mov    %rax,-0x1b8(%rbp)
   15991:	48 8d 85 60 e8 ff ff 	lea    -0x17a0(%rbp),%rax
   15998:	48 83 c0 08          	add    $0x8,%rax
   1599c:	48 89 85 50 fe ff ff 	mov    %rax,-0x1b0(%rbp)
   159a3:	48 8d 85 c4 e3 ff ff 	lea    -0x1c3c(%rbp),%rax
   159aa:	48 89 85 58 fe ff ff 	mov    %rax,-0x1a8(%rbp)
   159b1:	48 8d 05 6c 76 00 00 	lea    0x766c(%rip),%rax        # 1d024 <g_9>
   159b8:	48 89 85 60 fe ff ff 	mov    %rax,-0x1a0(%rbp)
   159bf:	48 c7 85 68 fe ff ff 	movq   $0x0,-0x198(%rbp)
   159c6:	00 00 00 00 
   159ca:	48 c7 85 70 fe ff ff 	movq   $0x0,-0x190(%rbp)
   159d1:	00 00 00 00 
   159d5:	48 8d 85 c4 e3 ff ff 	lea    -0x1c3c(%rbp),%rax
   159dc:	48 89 85 78 fe ff ff 	mov    %rax,-0x188(%rbp)
   159e3:	48 8d 05 3a 76 00 00 	lea    0x763a(%rip),%rax        # 1d024 <g_9>
   159ea:	48 89 85 80 fe ff ff 	mov    %rax,-0x180(%rbp)
   159f1:	48 8d 85 c4 e3 ff ff 	lea    -0x1c3c(%rbp),%rax
   159f8:	48 89 85 88 fe ff ff 	mov    %rax,-0x178(%rbp)
   159ff:	48 c7 85 90 fe ff ff 	movq   $0x0,-0x170(%rbp)
   15a06:	00 00 00 00 
   15a0a:	48 8d 85 60 e8 ff ff 	lea    -0x17a0(%rbp),%rax
   15a11:	48 83 c0 08          	add    $0x8,%rax
   15a15:	48 89 85 98 fe ff ff 	mov    %rax,-0x168(%rbp)
   15a1c:	48 8d 85 80 e8 ff ff 	lea    -0x1780(%rbp),%rax
   15a23:	48 83 c0 0c          	add    $0xc,%rax
   15a27:	48 89 85 a0 fe ff ff 	mov    %rax,-0x160(%rbp)
   15a2e:	48 8d 05 53 76 00 00 	lea    0x7653(%rip),%rax        # 1d088 <g_106>
   15a35:	48 89 85 a8 fe ff ff 	mov    %rax,-0x158(%rbp)
   15a3c:	48 8d 05 65 76 00 00 	lea    0x7665(%rip),%rax        # 1d0a8 <g_157>
   15a43:	48 89 85 b0 fe ff ff 	mov    %rax,-0x150(%rbp)
   15a4a:	48 8d 05 57 76 00 00 	lea    0x7657(%rip),%rax        # 1d0a8 <g_157>
   15a51:	48 89 85 b8 fe ff ff 	mov    %rax,-0x148(%rbp)
   15a58:	48 8d 85 80 e8 ff ff 	lea    -0x1780(%rbp),%rax
   15a5f:	48 89 85 c0 fe ff ff 	mov    %rax,-0x140(%rbp)
   15a66:	48 8d 85 80 e8 ff ff 	lea    -0x1780(%rbp),%rax
   15a6d:	48 89 85 c8 fe ff ff 	mov    %rax,-0x138(%rbp)
   15a74:	48 8d 05 2d 76 00 00 	lea    0x762d(%rip),%rax        # 1d0a8 <g_157>
   15a7b:	48 89 85 d0 fe ff ff 	mov    %rax,-0x130(%rbp)
   15a82:	48 c7 85 d8 fe ff ff 	movq   $0x0,-0x128(%rbp)
   15a89:	00 00 00 00 
   15a8d:	48 8d 85 80 e8 ff ff 	lea    -0x1780(%rbp),%rax
   15a94:	48 83 c0 0c          	add    $0xc,%rax
   15a98:	48 89 85 e0 fe ff ff 	mov    %rax,-0x120(%rbp)
   15a9f:	48 8d 85 60 e8 ff ff 	lea    -0x17a0(%rbp),%rax
   15aa6:	48 83 c0 08          	add    $0x8,%rax
   15aaa:	48 89 85 e8 fe ff ff 	mov    %rax,-0x118(%rbp)
   15ab1:	48 c7 85 f0 fe ff ff 	movq   $0x0,-0x110(%rbp)
   15ab8:	00 00 00 00 
   15abc:	48 8d 85 60 e8 ff ff 	lea    -0x17a0(%rbp),%rax
   15ac3:	48 83 c0 08          	add    $0x8,%rax
   15ac7:	48 89 85 f8 fe ff ff 	mov    %rax,-0x108(%rbp)
   15ace:	48 8d 05 4f 75 00 00 	lea    0x754f(%rip),%rax        # 1d024 <g_9>
   15ad5:	48 89 85 00 ff ff ff 	mov    %rax,-0x100(%rbp)
   15adc:	48 8d 85 60 e8 ff ff 	lea    -0x17a0(%rbp),%rax
   15ae3:	48 83 c0 14          	add    $0x14,%rax
   15ae7:	48 89 85 08 ff ff ff 	mov    %rax,-0xf8(%rbp)
   15aee:	48 c7 85 10 ff ff ff 	movq   $0x0,-0xf0(%rbp)
   15af5:	00 00 00 00 
   15af9:	48 c7 85 18 ff ff ff 	movq   $0x0,-0xe8(%rbp)
   15b00:	00 00 00 00 
   15b04:	48 8d 05 19 75 00 00 	lea    0x7519(%rip),%rax        # 1d024 <g_9>
   15b0b:	48 89 85 20 ff ff ff 	mov    %rax,-0xe0(%rbp)
   15b12:	48 8d 85 60 e8 ff ff 	lea    -0x17a0(%rbp),%rax
   15b19:	48 83 c0 14          	add    $0x14,%rax
   15b1d:	48 89 85 28 ff ff ff 	mov    %rax,-0xd8(%rbp)
   15b24:	48 8d 85 60 e8 ff ff 	lea    -0x17a0(%rbp),%rax
   15b2b:	48 83 c0 08          	add    $0x8,%rax
   15b2f:	48 89 85 30 ff ff ff 	mov    %rax,-0xd0(%rbp)
   15b36:	48 8d 85 60 e8 ff ff 	lea    -0x17a0(%rbp),%rax
   15b3d:	48 83 c0 08          	add    $0x8,%rax
   15b41:	48 89 85 38 ff ff ff 	mov    %rax,-0xc8(%rbp)
   15b48:	48 8d 85 60 e8 ff ff 	lea    -0x17a0(%rbp),%rax
   15b4f:	48 83 c0 14          	add    $0x14,%rax
   15b53:	48 89 85 40 ff ff ff 	mov    %rax,-0xc0(%rbp)
   15b5a:	48 8d 85 60 e8 ff ff 	lea    -0x17a0(%rbp),%rax
   15b61:	48 83 c0 08          	add    $0x8,%rax
   15b65:	48 89 85 48 ff ff ff 	mov    %rax,-0xb8(%rbp)
   15b6c:	48 c7 85 50 ff ff ff 	movq   $0x0,-0xb0(%rbp)
   15b73:	00 00 00 00 
   15b77:	48 c7 85 58 ff ff ff 	movq   $0x0,-0xa8(%rbp)
   15b7e:	00 00 00 00 
   15b82:	48 8b 85 68 eb ff ff 	mov    -0x1498(%rbp),%rax
   15b89:	48 83 e8 01          	sub    $0x1,%rax
   15b8d:	48 89 85 68 eb ff ff 	mov    %rax,-0x1498(%rbp)
   15b94:	0f b7 85 b2 e3 ff ff 	movzwl -0x1c4e(%rbp),%eax
   15b9b:	0f bf d8             	movswl %ax,%ebx
   15b9e:	44 0f b6 a5 98 e3 ff 	movzbl -0x1c68(%rbp),%r12d
   15ba5:	ff 
   15ba6:	48 8b 85 60 e4 ff ff 	mov    -0x1ba0(%rbp),%rax
   15bad:	8b 00                	mov    (%rax),%eax
   15baf:	98                   	cwtl   
   15bb0:	48 8b 95 08 ee ff ff 	mov    -0x11f8(%rbp),%rdx
   15bb7:	48 85 d2             	test   %rdx,%rdx
   15bba:	0f 94 c2             	sete   %dl
   15bbd:	0f b6 ca             	movzbl %dl,%ecx
   15bc0:	48 8b 15 79 74 00 00 	mov    0x7479(%rip),%rdx        # 1d040 <g_80>
   15bc7:	48 39 d1             	cmp    %rdx,%rcx
   15bca:	72 07                	jb     15bd3 <func_39+0x45d7>
   15bcc:	ba 8c 00 00 00       	mov    $0x8c,%edx
   15bd1:	eb 05                	jmp    15bd8 <func_39+0x45dc>
   15bd3:	ba 8d 00 00 00       	mov    $0x8d,%edx
   15bd8:	89 c6                	mov    %eax,%esi
   15bda:	89 d7                	mov    %edx,%edi
   15bdc:	e8 f2 57 ff ff       	callq  b3d3 <safe_sub_func_int16_t_s_s>
   15be1:	0f b7 c0             	movzwl %ax,%eax
   15be4:	44 89 e6             	mov    %r12d,%esi
   15be7:	89 c7                	mov    %eax,%edi
   15be9:	e8 11 61 ff ff       	callq  bcff <safe_add_func_uint16_t_u_u>
   15bee:	66 85 c0             	test   %ax,%ax
   15bf1:	75 09                	jne    15bfc <func_39+0x4600>
   15bf3:	80 bd 98 e3 ff ff 00 	cmpb   $0x0,-0x1c68(%rbp)
   15bfa:	74 07                	je     15c03 <func_39+0x4607>
   15bfc:	ba 01 00 00 00       	mov    $0x1,%edx
   15c01:	eb 05                	jmp    15c08 <func_39+0x460c>
   15c03:	ba 00 00 00 00       	mov    $0x0,%edx
   15c08:	48 8b 05 a1 aa 00 00 	mov    0xaaa1(%rip),%rax        # 206b0 <g_319>
   15c0f:	8b 00                	mov    (%rax),%eax
   15c11:	39 c2                	cmp    %eax,%edx
   15c13:	0f 9c c0             	setl   %al
   15c16:	0f b6 d0             	movzbl %al,%edx
   15c19:	48 8b 85 88 e3 ff ff 	mov    -0x1c78(%rbp),%rax
   15c20:	0f b6 00             	movzbl (%rax),%eax
   15c23:	0f be c0             	movsbl %al,%eax
   15c26:	39 c2                	cmp    %eax,%edx
   15c28:	0f 9e c0             	setle  %al
   15c2b:	0f b6 c0             	movzbl %al,%eax
   15c2e:	89 de                	mov    %ebx,%esi
   15c30:	89 c7                	mov    %eax,%edi
   15c32:	e8 7c 57 ff ff       	callq  b3b3 <safe_add_func_int16_t_s_s>
   15c37:	0f bf d8             	movswl %ax,%ebx
   15c3a:	8b 05 90 74 00 00    	mov    0x7490(%rip),%eax        # 1d0d0 <g_204+0x8>
   15c40:	83 e0 01             	and    $0x1,%eax
   15c43:	41 89 c4             	mov    %eax,%r12d
   15c46:	66 83 bd ba e3 ff ff 	cmpw   $0x0,-0x1c46(%rbp)
   15c4d:	00 
   15c4e:	74 40                	je     15c90 <func_39+0x4694>
   15c50:	48 83 bd 90 e5 ff ff 	cmpq   $0x0,-0x1a70(%rbp)
   15c57:	00 
   15c58:	0f 94 c0             	sete   %al
   15c5b:	0f b6 c0             	movzbl %al,%eax
   15c5e:	48 39 85 98 e5 ff ff 	cmp    %rax,-0x1a68(%rbp)
   15c65:	0f 94 c0             	sete   %al
   15c68:	0f b6 d0             	movzbl %al,%edx
   15c6b:	8b 85 a0 e4 ff ff    	mov    -0x1b60(%rbp),%eax
   15c71:	39 c2                	cmp    %eax,%edx
   15c73:	0f 97 c0             	seta   %al
   15c76:	0f b6 c0             	movzbl %al,%eax
   15c79:	be 07 00 00 00       	mov    $0x7,%esi
   15c7e:	89 c7                	mov    %eax,%edi
   15c80:	e8 1c 56 ff ff       	callq  b2a1 <safe_lshift_func_int8_t_s_s>
   15c85:	84 c0                	test   %al,%al
   15c87:	74 07                	je     15c90 <func_39+0x4694>
   15c89:	b8 01 00 00 00       	mov    $0x1,%eax
   15c8e:	eb 05                	jmp    15c95 <func_39+0x4699>
   15c90:	b8 00 00 00 00       	mov    $0x0,%eax
   15c95:	f7 d0                	not    %eax
   15c97:	98                   	cwtl   
   15c98:	44 89 e6             	mov    %r12d,%esi
   15c9b:	89 c7                	mov    %eax,%edi
   15c9d:	e8 88 58 ff ff       	callq  b52a <safe_rshift_func_int16_t_s_s>
   15ca2:	98                   	cwtl   
   15ca3:	89 de                	mov    %ebx,%esi
   15ca5:	89 c7                	mov    %eax,%edi
   15ca7:	e8 a9 57 ff ff       	callq  b455 <safe_div_func_int16_t_s_s>
   15cac:	48 8b 85 90 e5 ff ff 	mov    -0x1a70(%rbp),%rax
   15cb3:	48 8b 10             	mov    (%rax),%rdx
   15cb6:	48 8b 05 e3 a6 00 00 	mov    0xa6e3(%rip),%rax        # 203a0 <g_34>
   15cbd:	8b 12                	mov    (%rdx),%edx
   15cbf:	89 10                	mov    %edx,(%rax)
   15cc1:	8b 05 e1 73 00 00    	mov    0x73e1(%rip),%eax        # 1d0a8 <g_157>
   15cc7:	98                   	cwtl   
   15cc8:	89 c6                	mov    %eax,%esi
   15cca:	bf 01 00 00 00       	mov    $0x1,%edi
   15ccf:	e8 42 57 ff ff       	callq  b416 <safe_mod_func_int16_t_s_s>
   15cd4:	0f bf d8             	movswl %ax,%ebx
   15cd7:	0f b7 05 5a 73 00 00 	movzwl 0x735a(%rip),%eax        # 1d038 <g_53>
   15cde:	c7 85 c8 e3 ff ff fc 	movl   $0xfffc,-0x1c38(%rbp)
   15ce5:	ff 00 00 
   15ce8:	44 8b a5 c8 e3 ff ff 	mov    -0x1c38(%rbp),%r12d
   15cef:	0f b6 85 9c e3 ff ff 	movzbl -0x1c64(%rbp),%eax
   15cf6:	0f b6 c0             	movzbl %al,%eax
   15cf9:	be 06 00 00 00       	mov    $0x6,%esi
   15cfe:	89 c7                	mov    %eax,%edi
   15d00:	e8 00 5f ff ff       	callq  bc05 <safe_lshift_func_uint8_t_u_s>
   15d05:	0f b6 d0             	movzbl %al,%edx
   15d08:	48 8b 05 d1 73 00 00 	mov    0x73d1(%rip),%rax        # 1d0e0 <g_344>
   15d0f:	48 39 c2             	cmp    %rax,%rdx
   15d12:	0f 97 c0             	seta   %al
   15d15:	0f b6 c8             	movzbl %al,%ecx
   15d18:	48 8b 05 c9 a9 00 00 	mov    0xa9c9(%rip),%rax        # 206e8 <g_354>
   15d1f:	48 85 c0             	test   %rax,%rax
   15d22:	0f 95 c0             	setne  %al
   15d25:	0f b6 d0             	movzbl %al,%edx
   15d28:	48 8b 85 90 e5 ff ff 	mov    -0x1a70(%rbp),%rax
   15d2f:	48 8b 00             	mov    (%rax),%rax
   15d32:	31 ca                	xor    %ecx,%edx
   15d34:	89 10                	mov    %edx,(%rax)
   15d36:	8b 00                	mov    (%rax),%eax
   15d38:	0f b7 c0             	movzwl %ax,%eax
   15d3b:	44 89 e6             	mov    %r12d,%esi
   15d3e:	89 c7                	mov    %eax,%edi
   15d40:	e8 35 61 ff ff       	callq  be7a <safe_rshift_func_uint16_t_u_u>
   15d45:	98                   	cwtl   
   15d46:	25 b3 7b 00 00       	and    $0x7bb3,%eax
   15d4b:	89 de                	mov    %ebx,%esi
   15d4d:	89 c7                	mov    %eax,%edi
   15d4f:	e8 8d 57 ff ff       	callq  b4e1 <safe_lshift_func_int16_t_s_u>
   15d54:	ba 01 00 00 00       	mov    $0x1,%edx
   15d59:	48 8b 85 a0 e5 ff ff 	mov    -0x1a60(%rbp),%rax
   15d60:	8b 00                	mov    (%rax),%eax
   15d62:	21 c2                	and    %eax,%edx
   15d64:	48 8b 85 a0 e5 ff ff 	mov    -0x1a60(%rbp),%rax
   15d6b:	89 10                	mov    %edx,(%rax)
   15d6d:	e9 1c 03 00 00       	jmpq   1608e <func_39+0x4a92>
   15d72:	48 8d 05 17 73 00 00 	lea    0x7317(%rip),%rax        # 1d090 <g_112>
   15d79:	48 89 85 e0 f7 ff ff 	mov    %rax,-0x820(%rbp)
   15d80:	48 8d 05 09 73 00 00 	lea    0x7309(%rip),%rax        # 1d090 <g_112>
   15d87:	48 89 85 e8 f7 ff ff 	mov    %rax,-0x818(%rbp)
   15d8e:	48 8d 05 fb 72 00 00 	lea    0x72fb(%rip),%rax        # 1d090 <g_112>
   15d95:	48 89 85 f0 f7 ff ff 	mov    %rax,-0x810(%rbp)
   15d9c:	48 8d 05 ed 72 00 00 	lea    0x72ed(%rip),%rax        # 1d090 <g_112>
   15da3:	48 89 85 f8 f7 ff ff 	mov    %rax,-0x808(%rbp)
   15daa:	48 8d 05 df 72 00 00 	lea    0x72df(%rip),%rax        # 1d090 <g_112>
   15db1:	48 89 85 00 f8 ff ff 	mov    %rax,-0x800(%rbp)
   15db8:	48 8d 05 d1 72 00 00 	lea    0x72d1(%rip),%rax        # 1d090 <g_112>
   15dbf:	48 89 85 08 f8 ff ff 	mov    %rax,-0x7f8(%rbp)
   15dc6:	48 8d 05 c3 72 00 00 	lea    0x72c3(%rip),%rax        # 1d090 <g_112>
   15dcd:	48 89 85 10 f8 ff ff 	mov    %rax,-0x7f0(%rbp)
   15dd4:	48 8d 05 b5 72 00 00 	lea    0x72b5(%rip),%rax        # 1d090 <g_112>
   15ddb:	48 89 85 18 f8 ff ff 	mov    %rax,-0x7e8(%rbp)
   15de2:	48 8d 05 a7 72 00 00 	lea    0x72a7(%rip),%rax        # 1d090 <g_112>
   15de9:	48 89 85 20 f8 ff ff 	mov    %rax,-0x7e0(%rbp)
   15df0:	48 8d 05 99 72 00 00 	lea    0x7299(%rip),%rax        # 1d090 <g_112>
   15df7:	48 89 85 28 f8 ff ff 	mov    %rax,-0x7d8(%rbp)
   15dfe:	48 8d 05 8b 72 00 00 	lea    0x728b(%rip),%rax        # 1d090 <g_112>
   15e05:	48 89 85 30 f8 ff ff 	mov    %rax,-0x7d0(%rbp)
   15e0c:	48 8d 05 7d 72 00 00 	lea    0x727d(%rip),%rax        # 1d090 <g_112>
   15e13:	48 89 85 38 f8 ff ff 	mov    %rax,-0x7c8(%rbp)
   15e1a:	48 8d 05 6f 72 00 00 	lea    0x726f(%rip),%rax        # 1d090 <g_112>
   15e21:	48 89 85 40 f8 ff ff 	mov    %rax,-0x7c0(%rbp)
   15e28:	48 8d 05 61 72 00 00 	lea    0x7261(%rip),%rax        # 1d090 <g_112>
   15e2f:	48 89 85 48 f8 ff ff 	mov    %rax,-0x7b8(%rbp)
   15e36:	48 8d 05 53 72 00 00 	lea    0x7253(%rip),%rax        # 1d090 <g_112>
   15e3d:	48 89 85 50 f8 ff ff 	mov    %rax,-0x7b0(%rbp)
   15e44:	48 8d 05 45 72 00 00 	lea    0x7245(%rip),%rax        # 1d090 <g_112>
   15e4b:	48 89 85 58 f8 ff ff 	mov    %rax,-0x7a8(%rbp)
   15e52:	48 8d 05 37 72 00 00 	lea    0x7237(%rip),%rax        # 1d090 <g_112>
   15e59:	48 89 85 60 f8 ff ff 	mov    %rax,-0x7a0(%rbp)
   15e60:	48 8d 05 29 72 00 00 	lea    0x7229(%rip),%rax        # 1d090 <g_112>
   15e67:	48 89 85 68 f8 ff ff 	mov    %rax,-0x798(%rbp)
   15e6e:	48 8d 05 1b 72 00 00 	lea    0x721b(%rip),%rax        # 1d090 <g_112>
   15e75:	48 89 85 70 f8 ff ff 	mov    %rax,-0x790(%rbp)
   15e7c:	48 8d 05 0d 72 00 00 	lea    0x720d(%rip),%rax        # 1d090 <g_112>
   15e83:	48 89 85 78 f8 ff ff 	mov    %rax,-0x788(%rbp)
   15e8a:	48 8d 05 ff 71 00 00 	lea    0x71ff(%rip),%rax        # 1d090 <g_112>
   15e91:	48 89 85 80 f8 ff ff 	mov    %rax,-0x780(%rbp)
   15e98:	48 8d 05 f1 71 00 00 	lea    0x71f1(%rip),%rax        # 1d090 <g_112>
   15e9f:	48 89 85 88 f8 ff ff 	mov    %rax,-0x778(%rbp)
   15ea6:	48 8d 05 e3 71 00 00 	lea    0x71e3(%rip),%rax        # 1d090 <g_112>
   15ead:	48 89 85 90 f8 ff ff 	mov    %rax,-0x770(%rbp)
   15eb4:	48 8d 05 d5 71 00 00 	lea    0x71d5(%rip),%rax        # 1d090 <g_112>
   15ebb:	48 89 85 98 f8 ff ff 	mov    %rax,-0x768(%rbp)
   15ec2:	48 8d 05 c7 71 00 00 	lea    0x71c7(%rip),%rax        # 1d090 <g_112>
   15ec9:	48 89 85 a0 f8 ff ff 	mov    %rax,-0x760(%rbp)
   15ed0:	48 8d 05 b9 71 00 00 	lea    0x71b9(%rip),%rax        # 1d090 <g_112>
   15ed7:	48 89 85 a8 f8 ff ff 	mov    %rax,-0x758(%rbp)
   15ede:	48 8d 05 ab 71 00 00 	lea    0x71ab(%rip),%rax        # 1d090 <g_112>
   15ee5:	48 89 85 b0 f8 ff ff 	mov    %rax,-0x750(%rbp)
   15eec:	48 8d 05 9d 71 00 00 	lea    0x719d(%rip),%rax        # 1d090 <g_112>
   15ef3:	48 89 85 b8 f8 ff ff 	mov    %rax,-0x748(%rbp)
   15efa:	48 8d 05 8f 71 00 00 	lea    0x718f(%rip),%rax        # 1d090 <g_112>
   15f01:	48 89 85 c0 f8 ff ff 	mov    %rax,-0x740(%rbp)
   15f08:	48 8d 05 81 71 00 00 	lea    0x7181(%rip),%rax        # 1d090 <g_112>
   15f0f:	48 89 85 c8 f8 ff ff 	mov    %rax,-0x738(%rbp)
   15f16:	c7 85 60 eb ff ff 13 	movl   $0x3662fd13,-0x14a0(%rbp)
   15f1d:	fd 62 36 
   15f20:	c7 85 64 eb ff ff 13 	movl   $0x3662fd13,-0x149c(%rbp)
   15f27:	fd 62 36 
   15f2a:	c7 85 68 eb ff ff 13 	movl   $0x3662fd13,-0x1498(%rbp)
   15f31:	fd 62 36 
   15f34:	c7 85 6c eb ff ff 13 	movl   $0x3662fd13,-0x1494(%rbp)
   15f3b:	fd 62 36 
   15f3e:	c7 85 70 eb ff ff 13 	movl   $0x3662fd13,-0x1490(%rbp)
   15f45:	fd 62 36 
   15f48:	c7 85 74 eb ff ff 13 	movl   $0x3662fd13,-0x148c(%rbp)
   15f4f:	fd 62 36 
   15f52:	c7 85 78 eb ff ff 13 	movl   $0x3662fd13,-0x1488(%rbp)
   15f59:	fd 62 36 
   15f5c:	c7 85 7c eb ff ff 13 	movl   $0x3662fd13,-0x1484(%rbp)
   15f63:	fd 62 36 
   15f66:	c7 85 80 eb ff ff 13 	movl   $0x3662fd13,-0x1480(%rbp)
   15f6d:	fd 62 36 
   15f70:	c7 85 84 eb ff ff 13 	movl   $0x3662fd13,-0x147c(%rbp)
   15f77:	fd 62 36 
   15f7a:	c7 85 88 eb ff ff 13 	movl   $0x3662fd13,-0x1478(%rbp)
   15f81:	fd 62 36 
   15f84:	c7 85 8c eb ff ff 13 	movl   $0x3662fd13,-0x1474(%rbp)
   15f8b:	fd 62 36 
   15f8e:	48 8d 05 cb 30 00 00 	lea    0x30cb(%rip),%rax        # 19060 <g_462>
   15f95:	48 89 85 08 e8 ff ff 	mov    %rax,-0x17f8(%rbp)
   15f9c:	48 8d 85 08 e8 ff ff 	lea    -0x17f8(%rbp),%rax
   15fa3:	48 89 85 70 e5 ff ff 	mov    %rax,-0x1a90(%rbp)
   15faa:	48 c7 85 78 e5 ff ff 	movq   $0x0,-0x1a88(%rbp)
   15fb1:	00 00 00 00 
   15fb5:	48 8d 05 04 71 00 00 	lea    0x7104(%rip),%rax        # 1d0c0 <g_203>
   15fbc:	48 89 85 80 e5 ff ff 	mov    %rax,-0x1a80(%rbp)
   15fc3:	0f b6 8d 98 e3 ff ff 	movzbl -0x1c68(%rbp),%ecx
   15fca:	48 8b 85 b8 e4 ff ff 	mov    -0x1b48(%rbp),%rax
   15fd1:	48 8b 10             	mov    (%rax),%rdx
   15fd4:	48 8b 85 70 e5 ff ff 	mov    -0x1a90(%rbp),%rax
   15fdb:	48 89 10             	mov    %rdx,(%rax)
   15fde:	48 8b 85 70 e5 ff ff 	mov    -0x1a90(%rbp),%rax
   15fe5:	48 8b 00             	mov    (%rax),%rax
   15fe8:	48 8b 95 b8 e4 ff ff 	mov    -0x1b48(%rbp),%rdx
   15fef:	48 8b 12             	mov    (%rdx),%rdx
   15ff2:	48 89 95 68 e5 ff ff 	mov    %rdx,-0x1a98(%rbp)
   15ff9:	48 39 85 68 e5 ff ff 	cmp    %rax,-0x1a98(%rbp)
   16000:	0f 94 c0             	sete   %al
   16003:	0f b6 c0             	movzbl %al,%eax
   16006:	39 c1                	cmp    %eax,%ecx
   16008:	0f 9f c1             	setg   %cl
   1600b:	48 8b 05 8e a6 00 00 	mov    0xa68e(%rip),%rax        # 206a0 <g_226>
   16012:	48 8b 00             	mov    (%rax),%rax
   16015:	48 8b 95 08 e5 ff ff 	mov    -0x1af8(%rbp),%rdx
   1601c:	48 89 95 c0 e4 ff ff 	mov    %rdx,-0x1b40(%rbp)
   16023:	48 39 85 c0 e4 ff ff 	cmp    %rax,-0x1b40(%rbp)
   1602a:	0f 94 c0             	sete   %al
   1602d:	31 c8                	xor    %ecx,%eax
   1602f:	0f b6 d0             	movzbl %al,%edx
   16032:	48 8b 85 80 e5 ff ff 	mov    -0x1a80(%rbp),%rax
   16039:	66 89 10             	mov    %dx,(%rax)
   1603c:	48 8b 85 80 e5 ff ff 	mov    -0x1a80(%rbp),%rax
   16043:	0f b7 00             	movzwl (%rax),%eax
   16046:	98                   	cwtl   
   16047:	89 c6                	mov    %eax,%esi
   16049:	bf 00 00 00 00       	mov    $0x0,%edi
   1604e:	e8 a2 53 ff ff       	callq  b3f5 <safe_mul_func_int16_t_s_s>
   16053:	48 8b 05 36 a6 00 00 	mov    0xa636(%rip),%rax        # 20690 <g_225>
   1605a:	48 8b 00             	mov    (%rax),%rax
   1605d:	c7 85 78 eb ff ff 01 	movl   $0x1,-0x1488(%rbp)
   16064:	00 00 00 
   16067:	48 89 c6             	mov    %rax,%rsi
   1606a:	bf 01 00 00 00       	mov    $0x1,%edi
   1606f:	e8 40 59 ff ff       	callq  b9b4 <safe_mod_func_int64_t_s_s>
   16074:	48 89 c2             	mov    %rax,%rdx
   16077:	48 8b 05 22 a3 00 00 	mov    0xa322(%rip),%rax        # 203a0 <g_34>
   1607e:	89 10                	mov    %edx,(%rax)
   16080:	48 8d 05 51 70 00 00 	lea    0x7051(%rip),%rax        # 1d0d8 <g_220>
   16087:	48 89 85 b0 e4 ff ff 	mov    %rax,-0x1b50(%rbp)
   1608e:	c7 05 38 70 00 00 eb 	movl   $0xffffffeb,0x7038(%rip)        # 1d0d0 <g_204+0x8>
   16095:	ff ff ff 
   16098:	e9 60 09 00 00       	jmpq   169fd <func_39+0x5401>
   1609d:	48 8d 85 80 e8 ff ff 	lea    -0x1780(%rbp),%rax
   160a4:	48 83 c0 10          	add    $0x10,%rax
   160a8:	48 89 85 60 eb ff ff 	mov    %rax,-0x14a0(%rbp)
   160af:	48 8d 85 80 e8 ff ff 	lea    -0x1780(%rbp),%rax
   160b6:	48 89 85 68 eb ff ff 	mov    %rax,-0x1498(%rbp)
   160bd:	48 8d 85 80 e8 ff ff 	lea    -0x1780(%rbp),%rax
   160c4:	48 83 c0 10          	add    $0x10,%rax
   160c8:	48 89 85 70 eb ff ff 	mov    %rax,-0x1490(%rbp)
   160cf:	48 8d 85 80 e8 ff ff 	lea    -0x1780(%rbp),%rax
   160d6:	48 83 c0 10          	add    $0x10,%rax
   160da:	48 89 85 78 eb ff ff 	mov    %rax,-0x1488(%rbp)
   160e1:	48 8d 85 80 e8 ff ff 	lea    -0x1780(%rbp),%rax
   160e8:	48 89 85 80 eb ff ff 	mov    %rax,-0x1480(%rbp)
   160ef:	48 8d 85 80 e8 ff ff 	lea    -0x1780(%rbp),%rax
   160f6:	48 83 c0 10          	add    $0x10,%rax
   160fa:	48 89 85 88 eb ff ff 	mov    %rax,-0x1478(%rbp)
   16101:	48 8d 85 80 e8 ff ff 	lea    -0x1780(%rbp),%rax
   16108:	48 83 c0 10          	add    $0x10,%rax
   1610c:	48 89 85 90 eb ff ff 	mov    %rax,-0x1470(%rbp)
   16113:	48 8d 85 80 e8 ff ff 	lea    -0x1780(%rbp),%rax
   1611a:	48 89 85 98 eb ff ff 	mov    %rax,-0x1468(%rbp)
   16121:	48 8d 85 80 e8 ff ff 	lea    -0x1780(%rbp),%rax
   16128:	48 83 c0 10          	add    $0x10,%rax
   1612c:	48 89 85 a0 eb ff ff 	mov    %rax,-0x1460(%rbp)
   16133:	48 8d 85 80 e8 ff ff 	lea    -0x1780(%rbp),%rax
   1613a:	48 83 c0 10          	add    $0x10,%rax
   1613e:	48 89 85 a8 eb ff ff 	mov    %rax,-0x1458(%rbp)
   16145:	48 8d 85 80 e8 ff ff 	lea    -0x1780(%rbp),%rax
   1614c:	48 89 85 b0 eb ff ff 	mov    %rax,-0x1450(%rbp)
   16153:	48 8d 85 80 e8 ff ff 	lea    -0x1780(%rbp),%rax
   1615a:	48 83 c0 10          	add    $0x10,%rax
   1615e:	48 89 85 b8 eb ff ff 	mov    %rax,-0x1448(%rbp)
   16165:	48 8d 85 80 e8 ff ff 	lea    -0x1780(%rbp),%rax
   1616c:	48 83 c0 10          	add    $0x10,%rax
   16170:	48 89 85 c0 eb ff ff 	mov    %rax,-0x1440(%rbp)
   16177:	48 8d 85 80 e8 ff ff 	lea    -0x1780(%rbp),%rax
   1617e:	48 89 85 c8 eb ff ff 	mov    %rax,-0x1438(%rbp)
   16185:	48 8d 85 80 e8 ff ff 	lea    -0x1780(%rbp),%rax
   1618c:	48 83 c0 10          	add    $0x10,%rax
   16190:	48 89 85 d0 eb ff ff 	mov    %rax,-0x1430(%rbp)
   16197:	48 8d 85 80 e8 ff ff 	lea    -0x1780(%rbp),%rax
   1619e:	48 83 c0 10          	add    $0x10,%rax
   161a2:	48 89 85 d8 eb ff ff 	mov    %rax,-0x1428(%rbp)
   161a9:	48 8d 85 80 e8 ff ff 	lea    -0x1780(%rbp),%rax
   161b0:	48 89 85 e0 eb ff ff 	mov    %rax,-0x1420(%rbp)
   161b7:	48 8d 85 80 e8 ff ff 	lea    -0x1780(%rbp),%rax
   161be:	48 83 c0 10          	add    $0x10,%rax
   161c2:	48 89 85 e8 eb ff ff 	mov    %rax,-0x1418(%rbp)
   161c9:	48 8d 85 80 e8 ff ff 	lea    -0x1780(%rbp),%rax
   161d0:	48 83 c0 10          	add    $0x10,%rax
   161d4:	48 89 85 f0 eb ff ff 	mov    %rax,-0x1410(%rbp)
   161db:	48 8d 85 80 e8 ff ff 	lea    -0x1780(%rbp),%rax
   161e2:	48 89 85 f8 eb ff ff 	mov    %rax,-0x1408(%rbp)
   161e9:	48 8d 85 80 e8 ff ff 	lea    -0x1780(%rbp),%rax
   161f0:	48 83 c0 10          	add    $0x10,%rax
   161f4:	48 89 85 00 ec ff ff 	mov    %rax,-0x1400(%rbp)
   161fb:	48 8d 85 80 e8 ff ff 	lea    -0x1780(%rbp),%rax
   16202:	48 83 c0 10          	add    $0x10,%rax
   16206:	48 89 85 08 ec ff ff 	mov    %rax,-0x13f8(%rbp)
   1620d:	48 8d 85 80 e8 ff ff 	lea    -0x1780(%rbp),%rax
   16214:	48 89 85 10 ec ff ff 	mov    %rax,-0x13f0(%rbp)
   1621b:	48 8d 85 80 e8 ff ff 	lea    -0x1780(%rbp),%rax
   16222:	48 83 c0 10          	add    $0x10,%rax
   16226:	48 89 85 18 ec ff ff 	mov    %rax,-0x13e8(%rbp)
   1622d:	48 8d 85 b0 e3 ff ff 	lea    -0x1c50(%rbp),%rax
   16234:	48 89 85 f0 e9 ff ff 	mov    %rax,-0x1610(%rbp)
   1623b:	48 c7 85 f8 e9 ff ff 	movq   $0x0,-0x1608(%rbp)
   16242:	00 00 00 00 
   16246:	48 8d 85 b0 e3 ff ff 	lea    -0x1c50(%rbp),%rax
   1624d:	48 89 85 00 ea ff ff 	mov    %rax,-0x1600(%rbp)
   16254:	48 8d 05 dd 6d 00 00 	lea    0x6ddd(%rip),%rax        # 1d038 <g_53>
   1625b:	48 89 85 08 ea ff ff 	mov    %rax,-0x15f8(%rbp)
   16262:	48 8d 05 cf 6d 00 00 	lea    0x6dcf(%rip),%rax        # 1d038 <g_53>
   16269:	48 89 85 10 ea ff ff 	mov    %rax,-0x15f0(%rbp)
   16270:	48 8d 85 b0 e3 ff ff 	lea    -0x1c50(%rbp),%rax
   16277:	48 89 85 18 ea ff ff 	mov    %rax,-0x15e8(%rbp)
   1627e:	48 c7 85 20 ea ff ff 	movq   $0x0,-0x15e0(%rbp)
   16285:	00 00 00 00 
   16289:	48 8d 05 a8 6d 00 00 	lea    0x6da8(%rip),%rax        # 1d038 <g_53>
   16290:	48 89 85 28 ea ff ff 	mov    %rax,-0x15d8(%rbp)
   16297:	48 c7 85 30 ea ff ff 	movq   $0x0,-0x15d0(%rbp)
   1629e:	00 00 00 00 
   162a2:	48 8d 05 07 6e 00 00 	lea    0x6e07(%rip),%rax        # 1d0b0 <g_180>
   162a9:	48 89 85 38 ea ff ff 	mov    %rax,-0x15c8(%rbp)
   162b0:	48 8d 05 f9 6d 00 00 	lea    0x6df9(%rip),%rax        # 1d0b0 <g_180>
   162b7:	48 89 85 40 ea ff ff 	mov    %rax,-0x15c0(%rbp)
   162be:	48 8d 85 b0 e3 ff ff 	lea    -0x1c50(%rbp),%rax
   162c5:	48 89 85 48 ea ff ff 	mov    %rax,-0x15b8(%rbp)
   162cc:	48 8d 85 b2 e3 ff ff 	lea    -0x1c4e(%rbp),%rax
   162d3:	48 89 85 50 ea ff ff 	mov    %rax,-0x15b0(%rbp)
   162da:	48 8d 85 b0 e3 ff ff 	lea    -0x1c50(%rbp),%rax
   162e1:	48 89 85 58 ea ff ff 	mov    %rax,-0x15a8(%rbp)
   162e8:	48 8d 05 c1 6d 00 00 	lea    0x6dc1(%rip),%rax        # 1d0b0 <g_180>
   162ef:	48 89 85 60 ea ff ff 	mov    %rax,-0x15a0(%rbp)
   162f6:	48 8d 85 b0 e3 ff ff 	lea    -0x1c50(%rbp),%rax
   162fd:	48 89 85 68 ea ff ff 	mov    %rax,-0x1598(%rbp)
   16304:	48 8d 85 b0 e3 ff ff 	lea    -0x1c50(%rbp),%rax
   1630b:	48 89 85 70 ea ff ff 	mov    %rax,-0x1590(%rbp)
   16312:	48 8d 05 97 6d 00 00 	lea    0x6d97(%rip),%rax        # 1d0b0 <g_180>
   16319:	48 89 85 78 ea ff ff 	mov    %rax,-0x1588(%rbp)
   16320:	48 8d 05 11 6d 00 00 	lea    0x6d11(%rip),%rax        # 1d038 <g_53>
   16327:	48 89 85 80 ea ff ff 	mov    %rax,-0x1580(%rbp)
   1632e:	48 8d 05 7b 6d 00 00 	lea    0x6d7b(%rip),%rax        # 1d0b0 <g_180>
   16335:	48 89 85 88 ea ff ff 	mov    %rax,-0x1578(%rbp)
   1633c:	48 8d 85 b0 e3 ff ff 	lea    -0x1c50(%rbp),%rax
   16343:	48 89 85 90 ea ff ff 	mov    %rax,-0x1570(%rbp)
   1634a:	c6 85 ac e3 ff ff ce 	movb   $0xce,-0x1c54(%rbp)
   16351:	66 c7 85 bc e3 ff ff 	movw   $0xfff7,-0x1c44(%rbp)
   16358:	f7 ff 
   1635a:	48 8b 05 87 a3 00 00 	mov    0xa387(%rip),%rax        # 206e8 <g_354>
   16361:	48 8b 00             	mov    (%rax),%rax
   16364:	48 89 85 90 e4 ff ff 	mov    %rax,-0x1b70(%rbp)
   1636b:	0f b7 05 7e 6d 00 00 	movzwl 0x6d7e(%rip),%eax        # 1d0f0 <g_485>
   16372:	83 c0 01             	add    $0x1,%eax
   16375:	66 89 05 74 6d 00 00 	mov    %ax,0x6d74(%rip)        # 1d0f0 <g_485>
   1637c:	0f b6 9d ac e3 ff ff 	movzbl -0x1c54(%rbp),%ebx
   16383:	48 8b 85 88 e3 ff ff 	mov    -0x1c78(%rbp),%rax
   1638a:	0f b6 00             	movzbl (%rax),%eax
   1638d:	44 0f be e0          	movsbl %al,%r12d
   16391:	66 c7 05 9e 6c 00 00 	movw   $0x0,0x6c9e(%rip)        # 1d038 <g_53>
   16398:	00 00 
   1639a:	8b 05 38 6d 00 00    	mov    0x6d38(%rip),%eax        # 1d0d8 <g_220>
   163a0:	0f b7 c0             	movzwl %ax,%eax
   163a3:	be 00 00 00 00       	mov    $0x0,%esi
   163a8:	89 c7                	mov    %eax,%edi
   163aa:	e8 99 5a ff ff       	callq  be48 <safe_rshift_func_uint16_t_u_s>
   163af:	89 c2                	mov    %eax,%edx
   163b1:	48 8b 05 f8 a2 00 00 	mov    0xa2f8(%rip),%rax        # 206b0 <g_319>
   163b8:	0f b7 d2             	movzwl %dx,%edx
   163bb:	89 10                	mov    %edx,(%rax)
   163bd:	0f b6 85 9c e3 ff ff 	movzbl -0x1c64(%rbp),%eax
   163c4:	84 c0                	test   %al,%al
   163c6:	78 07                	js     163cf <func_39+0x4dd3>
   163c8:	ba 46 41 00 00       	mov    $0x4146,%edx
   163cd:	eb 05                	jmp    163d4 <func_39+0x4dd8>
   163cf:	ba 47 41 00 00       	mov    $0x4147,%edx
   163d4:	8b 05 4a 6c 00 00    	mov    0x6c4a(%rip),%eax        # 1d024 <g_9>
   163da:	98                   	cwtl   
   163db:	89 d6                	mov    %edx,%esi
   163dd:	89 c7                	mov    %eax,%edi
   163df:	e8 11 50 ff ff       	callq  b3f5 <safe_mul_func_int16_t_s_s>
   163e4:	66 85 c0             	test   %ax,%ax
   163e7:	75 0b                	jne    163f4 <func_39+0x4df8>
   163e9:	0f b6 85 9c e3 ff ff 	movzbl -0x1c64(%rbp),%eax
   163f0:	84 c0                	test   %al,%al
   163f2:	74 07                	je     163fb <func_39+0x4dff>
   163f4:	b8 01 00 00 00       	mov    $0x1,%eax
   163f9:	eb 05                	jmp    16400 <func_39+0x4e04>
   163fb:	b8 00 00 00 00       	mov    $0x0,%eax
   16400:	3b 85 30 e4 ff ff    	cmp    -0x1bd0(%rbp),%eax
   16406:	0f 9f c0             	setg   %al
   16409:	0f b6 d0             	movzbl %al,%edx
   1640c:	0f b6 85 98 e3 ff ff 	movzbl -0x1c68(%rbp),%eax
   16413:	89 d6                	mov    %edx,%esi
   16415:	89 c7                	mov    %eax,%edi
   16417:	e8 3e 57 ff ff       	callq  bb5a <safe_add_func_uint8_t_u_u>
   1641c:	0f be c0             	movsbl %al,%eax
   1641f:	44 89 e6             	mov    %r12d,%esi
   16422:	89 c7                	mov    %eax,%edi
   16424:	e8 78 4e ff ff       	callq  b2a1 <safe_lshift_func_int8_t_s_s>
   16429:	8b 05 fd 6b 00 00    	mov    0x6bfd(%rip),%eax        # 1d02c <g_35>
   1642f:	85 c0                	test   %eax,%eax
   16431:	78 07                	js     1643a <func_39+0x4e3e>
   16433:	b8 38 00 00 00       	mov    $0x38,%eax
   16438:	eb 05                	jmp    1643f <func_39+0x4e43>
   1643a:	b8 39 00 00 00       	mov    $0x39,%eax
   1643f:	89 de                	mov    %ebx,%esi
   16441:	89 c7                	mov    %eax,%edi
   16443:	e8 45 58 ff ff       	callq  bc8d <safe_rshift_func_uint8_t_u_s>
   16448:	84 c0                	test   %al,%al
   1644a:	0f 84 8c 00 00 00    	je     164dc <func_39+0x4ee0>
   16450:	48 8d 85 e0 f7 ff ff 	lea    -0x820(%rbp),%rax
   16457:	48 8d 15 02 36 00 00 	lea    0x3602(%rip),%rdx        # 19a60 <g_1850+0x9b8>
   1645e:	b9 2d 00 00 00       	mov    $0x2d,%ecx
   16463:	48 89 c7             	mov    %rax,%rdi
   16466:	48 89 d6             	mov    %rdx,%rsi
   16469:	f3 48 a5             	rep movsq %ds:(%rsi),%es:(%rdi)
   1646c:	48 8b 05 3d a2 00 00 	mov    0xa23d(%rip),%rax        # 206b0 <g_319>
   16473:	c7 00 fe 9b 82 fe    	movl   $0xfe829bfe,(%rax)
   16479:	48 8b 05 28 a2 00 00 	mov    0xa228(%rip),%rax        # 206a8 <g_273>
   16480:	0f b6 00             	movzbl (%rax),%eax
   16483:	0f b6 d0             	movzbl %al,%edx
   16486:	0f b6 85 9c e3 ff ff 	movzbl -0x1c64(%rbp),%eax
   1648d:	0f b6 c0             	movzbl %al,%eax
   16490:	89 d6                	mov    %edx,%esi
   16492:	89 c7                	mov    %eax,%edi
   16494:	e8 42 57 ff ff       	callq  bbdb <safe_div_func_uint8_t_u_u>
   16499:	0f b6 d0             	movzbl %al,%edx
   1649c:	48 83 bd b0 e4 ff ff 	cmpq   $0x0,-0x1b50(%rbp)
   164a3:	00 
   164a4:	0f 95 c0             	setne  %al
   164a7:	0f b6 c0             	movzbl %al,%eax
   164aa:	39 c2                	cmp    %eax,%edx
   164ac:	7c 09                	jl     164b7 <func_39+0x4ebb>
   164ae:	48 c7 c0 ff 9b 82 fe 	mov    $0xfffffffffe829bff,%rax
   164b5:	eb 07                	jmp    164be <func_39+0x4ec2>
   164b7:	48 c7 c0 fe 9b 82 fe 	mov    $0xfffffffffe829bfe,%rax
   164be:	48 89 c7             	mov    %rax,%rdi
   164c1:	e8 50 53 ff ff       	callq  b816 <safe_unary_minus_func_int64_t_s>
   164c6:	0f b7 85 bc e3 ff ff 	movzwl -0x1c44(%rbp),%eax
   164cd:	83 e8 01             	sub    $0x1,%eax
   164d0:	66 89 85 bc e3 ff ff 	mov    %ax,-0x1c44(%rbp)
   164d7:	e9 12 05 00 00       	jmpq   169ee <func_39+0x53f2>
   164dc:	48 8d 85 68 e4 ff ff 	lea    -0x1b98(%rbp),%rax
   164e3:	48 89 85 c8 e5 ff ff 	mov    %rax,-0x1a38(%rbp)
   164ea:	c7 85 38 e4 ff ff ad 	movl   $0x15616ad,-0x1bc8(%rbp)
   164f1:	16 56 01 
   164f4:	48 8d 85 c8 e3 ff ff 	lea    -0x1c38(%rbp),%rax
   164fb:	48 89 85 d0 e5 ff ff 	mov    %rax,-0x1a30(%rbp)
   16502:	c7 85 3c e4 ff ff 09 	movl   $0x9,-0x1bc4(%rbp)
   16509:	00 00 00 
   1650c:	66 c7 05 db 6b 00 00 	movw   $0x0,0x6bdb(%rip)        # 1d0f0 <g_485>
   16513:	00 00 
   16515:	e9 e8 00 00 00       	jmpq   16602 <func_39+0x5006>
   1651a:	c7 85 e0 f7 ff ff 00 	movl   $0x0,-0x820(%rbp)
   16521:	00 00 00 
   16524:	c7 85 e4 f7 ff ff 01 	movl   $0x1,-0x81c(%rbp)
   1652b:	00 00 00 
   1652e:	c7 85 e8 f7 ff ff 00 	movl   $0x0,-0x818(%rbp)
   16535:	00 00 00 
   16538:	c7 85 ec f7 ff ff 01 	movl   $0x1,-0x814(%rbp)
   1653f:	00 00 00 
   16542:	c7 85 f0 f7 ff ff 00 	movl   $0x0,-0x810(%rbp)
   16549:	00 00 00 
   1654c:	c7 85 f4 f7 ff ff 01 	movl   $0x1,-0x80c(%rbp)
   16553:	00 00 00 
   16556:	c7 85 f8 f7 ff ff 99 	movl   $0xb3f94299,-0x808(%rbp)
   1655d:	42 f9 b3 
   16560:	c7 85 fc f7 ff ff 01 	movl   $0x1,-0x804(%rbp)
   16567:	00 00 00 
   1656a:	c7 85 00 f8 ff ff 99 	movl   $0xb3f94299,-0x800(%rbp)
   16571:	42 f9 b3 
   16574:	c7 85 04 f8 ff ff 01 	movl   $0x1,-0x7fc(%rbp)
   1657b:	00 00 00 
   1657e:	c7 85 08 f8 ff ff 99 	movl   $0xb3f94299,-0x7f8(%rbp)
   16585:	42 f9 b3 
   16588:	c7 85 0c f8 ff ff 01 	movl   $0x1,-0x7f4(%rbp)
   1658f:	00 00 00 
   16592:	c7 85 10 f8 ff ff 00 	movl   $0x0,-0x7f0(%rbp)
   16599:	00 00 00 
   1659c:	c7 85 14 f8 ff ff 01 	movl   $0x1,-0x7ec(%rbp)
   165a3:	00 00 00 
   165a6:	c7 85 18 f8 ff ff 00 	movl   $0x0,-0x7e8(%rbp)
   165ad:	00 00 00 
   165b0:	c7 85 1c f8 ff ff 01 	movl   $0x1,-0x7e4(%rbp)
   165b7:	00 00 00 
   165ba:	c7 85 20 f8 ff ff 00 	movl   $0x0,-0x7e0(%rbp)
   165c1:	00 00 00 
   165c4:	c7 85 24 f8 ff ff 01 	movl   $0x1,-0x7dc(%rbp)
   165cb:	00 00 00 
   165ce:	c7 85 fc f7 ff ff 00 	movl   $0x0,-0x804(%rbp)
   165d5:	00 00 00 
   165d8:	48 8b 05 c1 9d 00 00 	mov    0x9dc1(%rip),%rax        # 203a0 <g_34>
   165df:	c7 00 01 00 00 00    	movl   $0x1,(%rax)
   165e5:	0f b7 05 04 6b 00 00 	movzwl 0x6b04(%rip),%eax        # 1d0f0 <g_485>
   165ec:	0f b7 c0             	movzwl %ax,%eax
   165ef:	be 01 00 00 00       	mov    $0x1,%esi
   165f4:	89 c7                	mov    %eax,%edi
   165f6:	e8 bb 4f ff ff       	callq  b5b6 <safe_add_func_int32_t_s_s>
   165fb:	66 89 05 ee 6a 00 00 	mov    %ax,0x6aee(%rip)        # 1d0f0 <g_485>
   16602:	0f b7 05 e7 6a 00 00 	movzwl 0x6ae7(%rip),%eax        # 1d0f0 <g_485>
   16609:	66 83 f8 12          	cmp    $0x12,%ax
   1660d:	0f 86 07 ff ff ff    	jbe    1651a <func_39+0x4f1e>
   16613:	66 c7 85 b0 e3 ff ff 	movw   $0x0,-0x1c50(%rbp)
   1661a:	00 00 
   1661c:	e9 90 02 00 00       	jmpq   168b1 <func_39+0x52b5>
   16621:	48 8d 85 10 e9 ff ff 	lea    -0x16f0(%rbp),%rax
   16628:	48 83 c0 18          	add    $0x18,%rax
   1662c:	48 89 85 e0 f7 ff ff 	mov    %rax,-0x820(%rbp)
   16633:	48 8d 85 10 e9 ff ff 	lea    -0x16f0(%rbp),%rax
   1663a:	48 83 c0 18          	add    $0x18,%rax
   1663e:	48 89 85 e8 f7 ff ff 	mov    %rax,-0x818(%rbp)
   16645:	48 8d 85 10 e9 ff ff 	lea    -0x16f0(%rbp),%rax
   1664c:	48 83 c0 18          	add    $0x18,%rax
   16650:	48 89 85 f0 f7 ff ff 	mov    %rax,-0x810(%rbp)
   16657:	48 8d 85 78 e4 ff ff 	lea    -0x1b88(%rbp),%rax
   1665e:	48 89 85 f8 f7 ff ff 	mov    %rax,-0x808(%rbp)
   16665:	48 8d 85 78 e4 ff ff 	lea    -0x1b88(%rbp),%rax
   1666c:	48 89 85 00 f8 ff ff 	mov    %rax,-0x800(%rbp)
   16673:	48 8d 85 78 e4 ff ff 	lea    -0x1b88(%rbp),%rax
   1667a:	48 89 85 08 f8 ff ff 	mov    %rax,-0x7f8(%rbp)
   16681:	48 8d 85 10 e9 ff ff 	lea    -0x16f0(%rbp),%rax
   16688:	48 83 c0 18          	add    $0x18,%rax
   1668c:	48 89 85 10 f8 ff ff 	mov    %rax,-0x7f0(%rbp)
   16693:	48 8d 85 10 e9 ff ff 	lea    -0x16f0(%rbp),%rax
   1669a:	48 83 c0 18          	add    $0x18,%rax
   1669e:	48 89 85 18 f8 ff ff 	mov    %rax,-0x7e8(%rbp)
   166a5:	48 8d 85 10 e9 ff ff 	lea    -0x16f0(%rbp),%rax
   166ac:	48 83 c0 18          	add    $0x18,%rax
   166b0:	48 89 85 20 f8 ff ff 	mov    %rax,-0x7e0(%rbp)
   166b7:	48 8d 85 78 e4 ff ff 	lea    -0x1b88(%rbp),%rax
   166be:	48 89 85 28 f8 ff ff 	mov    %rax,-0x7d8(%rbp)
   166c5:	48 8d 85 78 e4 ff ff 	lea    -0x1b88(%rbp),%rax
   166cc:	48 89 85 30 f8 ff ff 	mov    %rax,-0x7d0(%rbp)
   166d3:	48 8d 85 78 e4 ff ff 	lea    -0x1b88(%rbp),%rax
   166da:	48 89 85 38 f8 ff ff 	mov    %rax,-0x7c8(%rbp)
   166e1:	48 8d 85 10 e9 ff ff 	lea    -0x16f0(%rbp),%rax
   166e8:	48 83 c0 18          	add    $0x18,%rax
   166ec:	48 89 85 40 f8 ff ff 	mov    %rax,-0x7c0(%rbp)
   166f3:	48 8d 85 10 e9 ff ff 	lea    -0x16f0(%rbp),%rax
   166fa:	48 83 c0 18          	add    $0x18,%rax
   166fe:	48 89 85 48 f8 ff ff 	mov    %rax,-0x7b8(%rbp)
   16705:	48 8d 85 10 e9 ff ff 	lea    -0x16f0(%rbp),%rax
   1670c:	48 83 c0 18          	add    $0x18,%rax
   16710:	48 89 85 50 f8 ff ff 	mov    %rax,-0x7b0(%rbp)
   16717:	48 8d 85 98 e4 ff ff 	lea    -0x1b68(%rbp),%rax
   1671e:	48 89 85 d8 e5 ff ff 	mov    %rax,-0x1a28(%rbp)
   16725:	48 c7 85 e0 e5 ff ff 	movq   $0x0,-0x1a20(%rbp)
   1672c:	00 00 00 00 
   16730:	c7 85 cc e3 ff ff 00 	movl   $0x0,-0x1c34(%rbp)
   16737:	00 00 00 
   1673a:	eb 22                	jmp    1675e <func_39+0x5162>
   1673c:	8b 85 cc e3 ff ff    	mov    -0x1c34(%rbp),%eax
   16742:	48 98                	cltq   
   16744:	48 8d 95 60 eb ff ff 	lea    -0x14a0(%rbp),%rdx
   1674b:	48 83 c2 40          	add    $0x40,%rdx
   1674f:	48 89 94 c5 70 e9 ff 	mov    %rdx,-0x1690(%rbp,%rax,8)
   16756:	ff 
   16757:	83 85 cc e3 ff ff 01 	addl   $0x1,-0x1c34(%rbp)
   1675e:	83 bd cc e3 ff ff 04 	cmpl   $0x4,-0x1c34(%rbp)
   16765:	7e d5                	jle    1673c <func_39+0x5140>
   16767:	0f b7 85 b0 e3 ff ff 	movzwl -0x1c50(%rbp),%eax
   1676e:	0f b7 d0             	movzwl %ax,%edx
   16771:	0f b7 85 b0 e3 ff ff 	movzwl -0x1c50(%rbp),%eax
   16778:	0f b7 c0             	movzwl %ax,%eax
   1677b:	48 98                	cltq   
   1677d:	48 63 d2             	movslq %edx,%rdx
   16780:	48 c1 e2 03          	shl    $0x3,%rdx
   16784:	48 01 c2             	add    %rax,%rdx
   16787:	48 8d 05 d2 68 00 00 	lea    0x68d2(%rip),%rax        # 1d060 <g_95>
   1678e:	48 01 d0             	add    %rdx,%rax
   16791:	0f b6 00             	movzbl (%rax),%eax
   16794:	0f b6 d8             	movzbl %al,%ebx
   16797:	be 08 00 00 00       	mov    $0x8,%esi
   1679c:	bf 0f e9 ff ff       	mov    $0xffffe90f,%edi
   167a1:	e8 ec 4c ff ff       	callq  b492 <safe_lshift_func_int16_t_s_s>
   167a6:	98                   	cwtl   
   167a7:	21 d8                	and    %ebx,%eax
   167a9:	48 98                	cltq   
   167ab:	48 89 05 de 68 00 00 	mov    %rax,0x68de(%rip)        # 1d090 <g_112>
   167b2:	48 8b 05 d7 68 00 00 	mov    0x68d7(%rip),%rax        # 1d090 <g_112>
   167b9:	41 89 c6             	mov    %eax,%r14d
   167bc:	48 8b 85 60 e4 ff ff 	mov    -0x1ba0(%rbp),%rax
   167c3:	8b 00                	mov    (%rax),%eax
   167c5:	0f b7 d8             	movzwl %ax,%ebx
   167c8:	0f b6 05 d1 68 00 00 	movzbl 0x68d1(%rip),%eax        # 1d0a0 <g_117>
   167cf:	44 0f b6 e8          	movzbl %al,%r13d
   167d3:	0f b6 85 9c e3 ff ff 	movzbl -0x1c64(%rbp),%eax
   167da:	44 0f be e0          	movsbl %al,%r12d
   167de:	48 8b 85 60 e4 ff ff 	mov    -0x1ba0(%rbp),%rax
   167e5:	8b 00                	mov    (%rax),%eax
   167e7:	0f be c0             	movsbl %al,%eax
   167ea:	be 06 00 00 00       	mov    $0x6,%esi
   167ef:	89 c7                	mov    %eax,%edi
   167f1:	e8 ab 4a ff ff       	callq  b2a1 <safe_lshift_func_int8_t_s_s>
   167f6:	0f b6 c0             	movzbl %al,%eax
   167f9:	be 03 00 00 00       	mov    $0x3,%esi
   167fe:	89 c7                	mov    %eax,%edi
   16800:	e8 47 54 ff ff       	callq  bc4c <safe_lshift_func_uint8_t_u_u>
   16805:	0f b6 d0             	movzbl %al,%edx
   16808:	48 8b 85 88 e3 ff ff 	mov    -0x1c78(%rbp),%rax
   1680f:	c6 00 01             	movb   $0x1,(%rax)
   16812:	48 8b 05 8f 9e 00 00 	mov    0x9e8f(%rip),%rax        # 206a8 <g_273>
   16819:	0f b6 00             	movzbl (%rax),%eax
   1681c:	84 c0                	test   %al,%al
   1681e:	0f 94 c0             	sete   %al
   16821:	0f b6 c0             	movzbl %al,%eax
   16824:	48 89 d6             	mov    %rdx,%rsi
   16827:	48 89 c7             	mov    %rax,%rdi
   1682a:	e8 85 51 ff ff       	callq  b9b4 <safe_mod_func_int64_t_s_s>
   1682f:	48 8b 95 08 e5 ff ff 	mov    -0x1af8(%rbp),%rdx
   16836:	48 8b 12             	mov    (%rdx),%rdx
   16839:	48 8b 12             	mov    (%rdx),%rdx
   1683c:	48 89 c1             	mov    %rax,%rcx
   1683f:	48 8b 85 08 e5 ff ff 	mov    -0x1af8(%rbp),%rax
   16846:	48 8b 00             	mov    (%rax),%rax
   16849:	48 31 ca             	xor    %rcx,%rdx
   1684c:	48 89 10             	mov    %rdx,(%rax)
   1684f:	48 8b 10             	mov    (%rax),%rdx
   16852:	48 8b 85 60 e4 ff ff 	mov    -0x1ba0(%rbp),%rax
   16859:	8b 00                	mov    (%rax),%eax
   1685b:	48 98                	cltq   
   1685d:	48 39 c2             	cmp    %rax,%rdx
   16860:	0f 95 c0             	setne  %al
   16863:	0f b6 c0             	movzbl %al,%eax
   16866:	44 89 e6             	mov    %r12d,%esi
   16869:	89 c7                	mov    %eax,%edi
   1686b:	e8 f3 4c ff ff       	callq  b563 <safe_rshift_func_int16_t_s_u>
   16870:	98                   	cwtl   
   16871:	41 39 c5             	cmp    %eax,%r13d
   16874:	0f 94 c0             	sete   %al
   16877:	0f b6 c0             	movzbl %al,%eax
   1687a:	89 de                	mov    %ebx,%esi
   1687c:	89 c7                	mov    %eax,%edi
   1687e:	e8 0b 55 ff ff       	callq  bd8e <safe_div_func_uint16_t_u_u>
   16883:	0f b7 d0             	movzwl %ax,%edx
   16886:	48 8b 05 13 9b 00 00 	mov    0x9b13(%rip),%rax        # 203a0 <g_34>
   1688d:	44 09 f2             	or     %r14d,%edx
   16890:	89 10                	mov    %edx,(%rax)
   16892:	48 8b 85 d8 e5 ff ff 	mov    -0x1a28(%rbp),%rax
   16899:	48 89 85 f8 e4 ff ff 	mov    %rax,-0x1b08(%rbp)
   168a0:	0f b7 85 b0 e3 ff ff 	movzwl -0x1c50(%rbp),%eax
   168a7:	83 c0 01             	add    $0x1,%eax
   168aa:	66 89 85 b0 e3 ff ff 	mov    %ax,-0x1c50(%rbp)
   168b1:	0f b7 85 b0 e3 ff ff 	movzwl -0x1c50(%rbp),%eax
   168b8:	66 83 f8 04          	cmp    $0x4,%ax
   168bc:	0f 86 5f fd ff ff    	jbe    16621 <func_39+0x5025>
   168c2:	0f b6 9d 98 e3 ff ff 	movzbl -0x1c68(%rbp),%ebx
   168c9:	44 0f b6 a5 98 e3 ff 	movzbl -0x1c68(%rbp),%r12d
   168d0:	ff 
   168d1:	44 0f b6 ad 98 e3 ff 	movzbl -0x1c68(%rbp),%r13d
   168d8:	ff 
   168d9:	8b 85 38 e4 ff ff    	mov    -0x1bc8(%rbp),%eax
   168df:	4c 63 f0             	movslq %eax,%r14
   168e2:	48 8b 05 bf 9d 00 00 	mov    0x9dbf(%rip),%rax        # 206a8 <g_273>
   168e9:	0f b6 00             	movzbl (%rax),%eax
   168ec:	0f be d0             	movsbl %al,%edx
   168ef:	48 8b 05 b2 9d 00 00 	mov    0x9db2(%rip),%rax        # 206a8 <g_273>
   168f6:	0f b6 00             	movzbl (%rax),%eax
   168f9:	3c 9a                	cmp    $0x9a,%al
   168fb:	0f 94 c0             	sete   %al
   168fe:	0f b6 c0             	movzbl %al,%eax
   16901:	48 b9 a9 98 49 cb a7 	movabs $0xb8d369a7cb4998a9,%rcx
   16908:	69 d3 b8 
   1690b:	48 39 c8             	cmp    %rcx,%rax
   1690e:	0f 92 c0             	setb   %al
   16911:	0f b6 c0             	movzbl %al,%eax
   16914:	89 d6                	mov    %edx,%esi
   16916:	89 c7                	mov    %eax,%edi
   16918:	e8 b7 48 ff ff       	callq  b1d4 <safe_add_func_int8_t_s_s>
   1691d:	48 0f be c0          	movsbq %al,%rax
   16921:	4c 89 f6             	mov    %r14,%rsi
   16924:	48 89 c7             	mov    %rax,%rdi
   16927:	e8 83 57 ff ff       	callq  c0af <safe_div_func_uint64_t_u_u>
   1692c:	0f b7 c0             	movzwl %ax,%eax
   1692f:	44 89 ee             	mov    %r13d,%esi
   16932:	89 c7                	mov    %eax,%edi
   16934:	e8 23 54 ff ff       	callq  bd5c <safe_mod_func_uint16_t_u_u>
   16939:	48 8b 95 d0 e5 ff ff 	mov    -0x1a30(%rbp),%rdx
   16940:	8b 12                	mov    (%rdx),%edx
   16942:	0f b7 c0             	movzwl %ax,%eax
   16945:	21 c2                	and    %eax,%edx
   16947:	48 8b 85 d0 e5 ff ff 	mov    -0x1a30(%rbp),%rax
   1694e:	89 10                	mov    %edx,(%rax)
   16950:	0f b6 85 98 e3 ff ff 	movzbl -0x1c68(%rbp),%eax
   16957:	44 89 e6             	mov    %r12d,%esi
   1695a:	89 c7                	mov    %eax,%edi
   1695c:	e8 94 4a ff ff       	callq  b3f5 <safe_mul_func_int16_t_s_s>
   16961:	0f bf d0             	movswl %ax,%edx
   16964:	0f b7 05 5f 67 00 00 	movzwl 0x675f(%rip),%eax        # 1d0ca <g_204+0x2>
   1696b:	0f b7 c0             	movzwl %ax,%eax
   1696e:	09 d0                	or     %edx,%eax
   16970:	89 c6                	mov    %eax,%esi
   16972:	bf ff 00 00 00       	mov    $0xff,%edi
   16977:	e8 11 53 ff ff       	callq  bc8d <safe_rshift_func_uint8_t_u_s>
   1697c:	48 8b 05 1d 9d 00 00 	mov    0x9d1d(%rip),%rax        # 206a0 <g_226>
   16983:	48 8b 00             	mov    (%rax),%rax
   16986:	0f b6 85 9c e3 ff ff 	movzbl -0x1c64(%rbp),%eax
   1698d:	66 98                	cbtw   
   1698f:	0f b7 c0             	movzwl %ax,%eax
   16992:	89 de                	mov    %ebx,%esi
   16994:	89 c7                	mov    %eax,%edi
   16996:	e8 23 54 ff ff       	callq  bdbe <safe_lshift_func_uint16_t_u_s>
   1699b:	0f b7 c0             	movzwl %ax,%eax
   1699e:	89 c6                	mov    %eax,%esi
   169a0:	bf 6b 00 00 00       	mov    $0x6b,%edi
   169a5:	e8 14 53 ff ff       	callq  bcbe <safe_rshift_func_uint8_t_u_u>
   169aa:	0f b7 95 b2 e3 ff ff 	movzwl -0x1c4e(%rbp),%edx
   169b1:	48 8b 05 f8 9c 00 00 	mov    0x9cf8(%rip),%rax        # 206b0 <g_319>
   169b8:	0f b7 d2             	movzwl %dx,%edx
   169bb:	89 10                	mov    %edx,(%rax)
   169bd:	8b 10                	mov    (%rax),%edx
   169bf:	8b 05 e3 66 00 00    	mov    0x66e3(%rip),%eax        # 1d0a8 <g_157>
   169c5:	31 d0                	xor    %edx,%eax
   169c7:	89 05 db 66 00 00    	mov    %eax,0x66db(%rip)        # 1d0a8 <g_157>
   169cd:	b8 00 00 00 00       	mov    $0x0,%eax
   169d2:	09 85 3c e4 ff ff    	or     %eax,-0x1bc4(%rbp)
   169d8:	8b 85 3c e4 ff ff    	mov    -0x1bc4(%rbp),%eax
   169de:	89 c2                	mov    %eax,%edx
   169e0:	8b 05 0e 67 00 00    	mov    0x670e(%rip),%eax        # 1d0f4 <g_558>
   169e6:	09 d0                	or     %edx,%eax
   169e8:	89 05 06 67 00 00    	mov    %eax,0x6706(%rip)        # 1d0f4 <g_558>
   169ee:	8b 05 dc 66 00 00    	mov    0x66dc(%rip),%eax        # 1d0d0 <g_204+0x8>
   169f4:	83 c0 01             	add    $0x1,%eax
   169f7:	89 05 d3 66 00 00    	mov    %eax,0x66d3(%rip)        # 1d0d0 <g_204+0x8>
   169fd:	8b 05 cd 66 00 00    	mov    0x66cd(%rip),%eax        # 1d0d0 <g_204+0x8>
   16a03:	83 f8 f6             	cmp    $0xfffffff6,%eax
   16a06:	0f 84 91 f6 ff ff    	je     1609d <func_39+0x4aa1>
   16a0c:	48 8b 05 9d 9c 00 00 	mov    0x9c9d(%rip),%rax        # 206b0 <g_319>
   16a13:	8b 08                	mov    (%rax),%ecx
   16a15:	48 8b 85 60 e4 ff ff 	mov    -0x1ba0(%rbp),%rax
   16a1c:	8b 10                	mov    (%rax),%edx
   16a1e:	48 8b 05 8b 9c 00 00 	mov    0x9c8b(%rip),%rax        # 206b0 <g_319>
   16a25:	31 ca                	xor    %ecx,%edx
   16a27:	89 10                	mov    %edx,(%rax)
   16a29:	48 8b 85 88 e3 ff ff 	mov    -0x1c78(%rbp),%rax
   16a30:	0f b6 00             	movzbl (%rax),%eax
   16a33:	0f be d8             	movsbl %al,%ebx
   16a36:	0f b6 85 98 e3 ff ff 	movzbl -0x1c68(%rbp),%eax
   16a3d:	89 c6                	mov    %eax,%esi
   16a3f:	bf ca 00 00 00       	mov    $0xca,%edi
   16a44:	e8 4a 51 ff ff       	callq  bb93 <safe_mul_func_uint8_t_u_u>
   16a49:	0f b6 d0             	movzbl %al,%edx
   16a4c:	48 8d 85 10 e9 ff ff 	lea    -0x16f0(%rbp),%rax
   16a53:	48 89 05 9e 9c 00 00 	mov    %rax,0x9c9e(%rip)        # 206f8 <g_567>
   16a5a:	48 8b 0d 97 9c 00 00 	mov    0x9c97(%rip),%rcx        # 206f8 <g_567>
   16a61:	48 8d 85 78 e4 ff ff 	lea    -0x1b88(%rbp),%rax
   16a68:	48 39 c1             	cmp    %rax,%rcx
   16a6b:	0f 94 c0             	sete   %al
   16a6e:	0f b6 c0             	movzbl %al,%eax
   16a71:	39 c2                	cmp    %eax,%edx
   16a73:	0f 95 c0             	setne  %al
   16a76:	0f b6 d0             	movzbl %al,%edx
   16a79:	48 8b 85 60 e4 ff ff 	mov    -0x1ba0(%rbp),%rax
   16a80:	8b 00                	mov    (%rax),%eax
   16a82:	98                   	cwtl   
   16a83:	89 d6                	mov    %edx,%esi
   16a85:	89 c7                	mov    %eax,%edi
   16a87:	e8 69 49 ff ff       	callq  b3f5 <safe_mul_func_int16_t_s_s>
   16a8c:	41 89 c4             	mov    %eax,%r12d
   16a8f:	0f b6 85 9c e3 ff ff 	movzbl -0x1c64(%rbp),%eax
   16a96:	48 0f be c0          	movsbq %al,%rax
   16a9a:	48 be ea 2c c7 6a 3d 	movabs $0x8962453d6ac72cea,%rsi
   16aa1:	45 62 89 
   16aa4:	48 89 c7             	mov    %rax,%rdi
   16aa7:	e8 fc 4d ff ff       	callq  b8a8 <safe_sub_func_int64_t_s_s>
   16aac:	48 83 f8 01          	cmp    $0x1,%rax
   16ab0:	0f 97 c0             	seta   %al
   16ab3:	0f b6 d0             	movzbl %al,%edx
   16ab6:	48 8b 85 60 e4 ff ff 	mov    -0x1ba0(%rbp),%rax
   16abd:	8b 00                	mov    (%rax),%eax
   16abf:	98                   	cwtl   
   16ac0:	89 d6                	mov    %edx,%esi
   16ac2:	89 c7                	mov    %eax,%edi
   16ac4:	e8 2c 49 ff ff       	callq  b3f5 <safe_mul_func_int16_t_s_s>
   16ac9:	66 41 39 c4          	cmp    %ax,%r12w
   16acd:	0f 9d c0             	setge  %al
   16ad0:	0f b6 d0             	movzbl %al,%edx
   16ad3:	48 8b 85 c8 e4 ff ff 	mov    -0x1b38(%rbp),%rax
   16ada:	66 89 10             	mov    %dx,(%rax)
   16add:	48 8b 85 c8 e4 ff ff 	mov    -0x1b38(%rbp),%rax
   16ae4:	0f b7 00             	movzwl (%rax),%eax
   16ae7:	0f b7 c0             	movzwl %ax,%eax
   16aea:	be 0a 00 00 00       	mov    $0xa,%esi
   16aef:	89 c7                	mov    %eax,%edi
   16af1:	e8 c8 52 ff ff       	callq  bdbe <safe_lshift_func_uint16_t_u_s>
   16af6:	89 de                	mov    %ebx,%esi
   16af8:	bf 28 00 00 00       	mov    $0x28,%edi
   16afd:	e8 33 48 ff ff       	callq  b335 <safe_rshift_func_int8_t_s_s>
   16b02:	84 c0                	test   %al,%al
   16b04:	74 2a                	je     16b30 <func_39+0x5534>
   16b06:	48 8d 85 70 f0 ff ff 	lea    -0xf90(%rbp),%rax
   16b0d:	48 05 60 02 00 00    	add    $0x260,%rax
   16b13:	48 89 85 00 e8 ff ff 	mov    %rax,-0x1800(%rbp)
   16b1a:	48 8b 05 f7 9b 00 00 	mov    0x9bf7(%rip),%rax        # 20718 <g_574>
   16b21:	48 8b 95 00 e8 ff ff 	mov    -0x1800(%rbp),%rdx
   16b28:	48 89 10             	mov    %rdx,(%rax)
   16b2b:	e9 5f 05 00 00       	jmpq   1708f <func_39+0x5a93>
   16b30:	48 8d 85 60 e8 ff ff 	lea    -0x17a0(%rbp),%rax
   16b37:	48 83 c0 08          	add    $0x8,%rax
   16b3b:	48 89 85 78 e7 ff ff 	mov    %rax,-0x1888(%rbp)
   16b42:	48 c7 85 80 e7 ff ff 	movq   $0x0,-0x1880(%rbp)
   16b49:	00 00 00 00 
   16b4d:	48 8d 85 60 e8 ff ff 	lea    -0x17a0(%rbp),%rax
   16b54:	48 83 c0 14          	add    $0x14,%rax
   16b58:	48 89 85 98 e4 ff ff 	mov    %rax,-0x1b68(%rbp)
   16b5f:	48 8d 05 42 65 00 00 	lea    0x6542(%rip),%rax        # 1d0a8 <g_157>
   16b66:	48 89 85 88 e7 ff ff 	mov    %rax,-0x1878(%rbp)
   16b6d:	48 8d 85 60 e8 ff ff 	lea    -0x17a0(%rbp),%rax
   16b74:	48 83 c0 08          	add    $0x8,%rax
   16b78:	48 89 85 90 e7 ff ff 	mov    %rax,-0x1870(%rbp)
   16b7f:	48 8d 05 02 65 00 00 	lea    0x6502(%rip),%rax        # 1d088 <g_106>
   16b86:	48 89 85 98 e7 ff ff 	mov    %rax,-0x1868(%rbp)
   16b8d:	48 8d 05 f4 64 00 00 	lea    0x64f4(%rip),%rax        # 1d088 <g_106>
   16b94:	48 89 85 a0 e7 ff ff 	mov    %rax,-0x1860(%rbp)
   16b9b:	48 8d 85 c4 e3 ff ff 	lea    -0x1c3c(%rbp),%rax
   16ba2:	48 89 85 a8 e7 ff ff 	mov    %rax,-0x1858(%rbp)
   16ba9:	48 c7 85 b0 e7 ff ff 	movq   $0x0,-0x1850(%rbp)
   16bb0:	00 00 00 00 
   16bb4:	48 8d 05 ed 64 00 00 	lea    0x64ed(%rip),%rax        # 1d0a8 <g_157>
   16bbb:	48 89 85 b8 e7 ff ff 	mov    %rax,-0x1848(%rbp)
   16bc2:	48 8d 85 60 e8 ff ff 	lea    -0x17a0(%rbp),%rax
   16bc9:	48 83 c0 10          	add    $0x10,%rax
   16bcd:	48 89 85 f0 e9 ff ff 	mov    %rax,-0x1610(%rbp)
   16bd4:	48 8d 85 60 e8 ff ff 	lea    -0x17a0(%rbp),%rax
   16bdb:	48 83 c0 10          	add    $0x10,%rax
   16bdf:	48 89 85 f8 e9 ff ff 	mov    %rax,-0x1608(%rbp)
   16be6:	48 8d 85 60 e8 ff ff 	lea    -0x17a0(%rbp),%rax
   16bed:	48 83 c0 10          	add    $0x10,%rax
   16bf1:	48 89 85 00 ea ff ff 	mov    %rax,-0x1600(%rbp)
   16bf8:	48 8d 85 60 e8 ff ff 	lea    -0x17a0(%rbp),%rax
   16bff:	48 83 c0 10          	add    $0x10,%rax
   16c03:	48 89 85 08 ea ff ff 	mov    %rax,-0x15f8(%rbp)
   16c0a:	48 8d 85 60 e8 ff ff 	lea    -0x17a0(%rbp),%rax
   16c11:	48 83 c0 10          	add    $0x10,%rax
   16c15:	48 89 85 10 ea ff ff 	mov    %rax,-0x15f0(%rbp)
   16c1c:	48 8d 85 60 e8 ff ff 	lea    -0x17a0(%rbp),%rax
   16c23:	48 83 c0 10          	add    $0x10,%rax
   16c27:	48 89 85 18 ea ff ff 	mov    %rax,-0x15e8(%rbp)
   16c2e:	48 8d 85 60 e8 ff ff 	lea    -0x17a0(%rbp),%rax
   16c35:	48 83 c0 10          	add    $0x10,%rax
   16c39:	48 89 85 20 ea ff ff 	mov    %rax,-0x15e0(%rbp)
   16c40:	48 8d 85 60 e8 ff ff 	lea    -0x17a0(%rbp),%rax
   16c47:	48 83 c0 10          	add    $0x10,%rax
   16c4b:	48 89 85 28 ea ff ff 	mov    %rax,-0x15d8(%rbp)
   16c52:	48 8d 85 60 e8 ff ff 	lea    -0x17a0(%rbp),%rax
   16c59:	48 83 c0 10          	add    $0x10,%rax
   16c5d:	48 89 85 30 ea ff ff 	mov    %rax,-0x15d0(%rbp)
   16c64:	48 8d 85 60 e8 ff ff 	lea    -0x17a0(%rbp),%rax
   16c6b:	48 83 c0 10          	add    $0x10,%rax
   16c6f:	48 89 85 38 ea ff ff 	mov    %rax,-0x15c8(%rbp)
   16c76:	48 8d 85 60 e8 ff ff 	lea    -0x17a0(%rbp),%rax
   16c7d:	48 83 c0 10          	add    $0x10,%rax
   16c81:	48 89 85 40 ea ff ff 	mov    %rax,-0x15c0(%rbp)
   16c88:	48 8d 85 60 e8 ff ff 	lea    -0x17a0(%rbp),%rax
   16c8f:	48 83 c0 10          	add    $0x10,%rax
   16c93:	48 89 85 48 ea ff ff 	mov    %rax,-0x15b8(%rbp)
   16c9a:	48 8d 85 f0 f3 ff ff 	lea    -0xc10(%rbp),%rax
   16ca1:	48 8d 15 38 2f 00 00 	lea    0x2f38(%rip),%rdx        # 19be0 <g_1850+0xb38>
   16ca8:	b9 7d 00 00 00       	mov    $0x7d,%ecx
   16cad:	48 89 c7             	mov    %rax,%rdi
   16cb0:	48 89 d6             	mov    %rdx,%rsi
   16cb3:	f3 48 a5             	rep movsq %ds:(%rsi),%es:(%rdi)
   16cb6:	48 c7 85 a0 e4 ff ff 	movq   $0x0,-0x1b60(%rbp)
   16cbd:	00 00 00 00 
   16cc1:	48 8d 85 a0 e4 ff ff 	lea    -0x1b60(%rbp),%rax
   16cc8:	48 89 85 c0 e7 ff ff 	mov    %rax,-0x1840(%rbp)
   16ccf:	48 8d 85 e0 f7 ff ff 	lea    -0x820(%rbp),%rax
   16cd6:	48 8d 15 83 91 00 00 	lea    0x9183(%rip),%rdx        # 1fe60 <g_1942+0x2c50>
   16cdd:	b9 a8 00 00 00       	mov    $0xa8,%ecx
   16ce2:	48 89 c7             	mov    %rax,%rdi
   16ce5:	48 89 d6             	mov    %rdx,%rsi
   16ce8:	f3 48 a5             	rep movsq %ds:(%rsi),%es:(%rdi)
   16ceb:	48 8d 85 e0 f7 ff ff 	lea    -0x820(%rbp),%rax
   16cf2:	48 05 a0 00 00 00    	add    $0xa0,%rax
   16cf8:	48 89 85 c8 e7 ff ff 	mov    %rax,-0x1838(%rbp)
   16cff:	48 8d 95 40 ee ff ff 	lea    -0x11c0(%rbp),%rdx
   16d06:	b8 00 00 00 00       	mov    $0x0,%eax
   16d0b:	b9 0e 00 00 00       	mov    $0xe,%ecx
   16d10:	48 89 d7             	mov    %rdx,%rdi
   16d13:	f3 48 ab             	rep stos %rax,%es:(%rdi)
   16d16:	c7 85 40 ee ff ff 5f 	movl   $0x8b5e015f,-0x11c0(%rbp)
   16d1d:	01 5e 8b 
   16d20:	c7 85 48 ee ff ff 5f 	movl   $0x8b5e015f,-0x11b8(%rbp)
   16d27:	01 5e 8b 
   16d2a:	c7 85 50 ee ff ff 5f 	movl   $0x8b5e015f,-0x11b0(%rbp)
   16d31:	01 5e 8b 
   16d34:	c7 85 58 ee ff ff 5f 	movl   $0x8b5e015f,-0x11a8(%rbp)
   16d3b:	01 5e 8b 
   16d3e:	c7 85 60 ee ff ff 5f 	movl   $0x8b5e015f,-0x11a0(%rbp)
   16d45:	01 5e 8b 
   16d48:	c7 85 68 ee ff ff 5f 	movl   $0x8b5e015f,-0x1198(%rbp)
   16d4f:	01 5e 8b 
   16d52:	c7 85 70 ee ff ff 5f 	movl   $0x8b5e015f,-0x1190(%rbp)
   16d59:	01 5e 8b 
   16d5c:	c7 85 78 ee ff ff 01 	movl   $0x1,-0x1188(%rbp)
   16d63:	00 00 00 
   16d66:	c7 85 80 ee ff ff 68 	movl   $0x3f585c68,-0x1180(%rbp)
   16d6d:	5c 58 3f 
   16d70:	c7 85 88 ee ff ff 01 	movl   $0x1,-0x1178(%rbp)
   16d77:	00 00 00 
   16d7a:	c7 85 90 ee ff ff 68 	movl   $0x3f585c68,-0x1170(%rbp)
   16d81:	5c 58 3f 
   16d84:	c7 85 98 ee ff ff 01 	movl   $0x1,-0x1168(%rbp)
   16d8b:	00 00 00 
   16d8e:	c7 85 a0 ee ff ff 68 	movl   $0x3f585c68,-0x1160(%rbp)
   16d95:	5c 58 3f 
   16d98:	c7 85 a8 ee ff ff 01 	movl   $0x1,-0x1158(%rbp)
   16d9f:	00 00 00 
   16da2:	48 8d 05 97 99 00 00 	lea    0x9997(%rip),%rax        # 20740 <g_621>
   16da9:	48 89 85 d0 e7 ff ff 	mov    %rax,-0x1830(%rbp)
   16db0:	48 c7 85 d8 e7 ff ff 	movq   $0x0,-0x1828(%rbp)
   16db7:	00 00 00 00 
   16dbb:	48 c7 85 70 e9 ff ff 	movq   $0x0,-0x1690(%rbp)
   16dc2:	00 00 00 00 
   16dc6:	48 c7 85 78 e9 ff ff 	movq   $0x0,-0x1688(%rbp)
   16dcd:	00 00 00 00 
   16dd1:	48 c7 85 80 e9 ff ff 	movq   $0x0,-0x1680(%rbp)
   16dd8:	00 00 00 00 
   16ddc:	48 c7 85 88 e9 ff ff 	movq   $0x0,-0x1678(%rbp)
   16de3:	00 00 00 00 
   16de7:	48 c7 85 90 e9 ff ff 	movq   $0x0,-0x1670(%rbp)
   16dee:	00 00 00 00 
   16df2:	48 8d 85 b0 ec ff ff 	lea    -0x1350(%rbp),%rax
   16df9:	48 83 c0 10          	add    $0x10,%rax
   16dfd:	48 89 85 e0 e7 ff ff 	mov    %rax,-0x1820(%rbp)
   16e04:	66 c7 85 c0 e3 ff ff 	movw   $0xc7fd,-0x1c40(%rbp)
   16e0b:	fd c7 
   16e0d:	48 8d 85 68 e4 ff ff 	lea    -0x1b98(%rbp),%rax
   16e14:	48 89 85 e8 e7 ff ff 	mov    %rax,-0x1818(%rbp)
   16e1b:	66 c7 85 c2 e3 ff ff 	movw   $0x971d,-0x1c3e(%rbp)
   16e22:	1d 97 
   16e24:	48 8d 85 98 e4 ff ff 	lea    -0x1b68(%rbp),%rax
   16e2b:	48 89 85 08 e8 ff ff 	mov    %rax,-0x17f8(%rbp)
   16e32:	48 8d 85 08 e8 ff ff 	lea    -0x17f8(%rbp),%rax
   16e39:	48 89 85 f0 e7 ff ff 	mov    %rax,-0x1810(%rbp)
   16e40:	c6 85 af e3 ff ff de 	movb   $0xde,-0x1c51(%rbp)
   16e47:	c7 85 50 e4 ff ff d5 	movl   $0xa245fcd5,-0x1bb0(%rbp)
   16e4e:	fc 45 a2 
   16e51:	48 8d 05 b8 a2 00 00 	lea    0xa2b8(%rip),%rax        # 21110 <g_917>
   16e58:	48 89 85 60 eb ff ff 	mov    %rax,-0x14a0(%rbp)
   16e5f:	48 8d 05 d2 61 00 00 	lea    0x61d2(%rip),%rax        # 1d038 <g_53>
   16e66:	48 89 85 68 eb ff ff 	mov    %rax,-0x1498(%rbp)
   16e6d:	48 8d 05 9c a2 00 00 	lea    0xa29c(%rip),%rax        # 21110 <g_917>
   16e74:	48 89 85 70 eb ff ff 	mov    %rax,-0x1490(%rbp)
   16e7b:	48 8d 05 b6 61 00 00 	lea    0x61b6(%rip),%rax        # 1d038 <g_53>
   16e82:	48 89 85 78 eb ff ff 	mov    %rax,-0x1488(%rbp)
   16e89:	48 8d 05 80 a2 00 00 	lea    0xa280(%rip),%rax        # 21110 <g_917>
   16e90:	48 89 85 80 eb ff ff 	mov    %rax,-0x1480(%rbp)
   16e97:	48 8d 05 9a 61 00 00 	lea    0x619a(%rip),%rax        # 1d038 <g_53>
   16e9e:	48 89 85 88 eb ff ff 	mov    %rax,-0x1478(%rbp)
   16ea5:	48 8d 05 64 a2 00 00 	lea    0xa264(%rip),%rax        # 21110 <g_917>
   16eac:	48 89 85 90 eb ff ff 	mov    %rax,-0x1470(%rbp)
   16eb3:	48 8d 05 7e 61 00 00 	lea    0x617e(%rip),%rax        # 1d038 <g_53>
   16eba:	48 89 85 98 eb ff ff 	mov    %rax,-0x1468(%rbp)
   16ec1:	48 8d 05 48 a2 00 00 	lea    0xa248(%rip),%rax        # 21110 <g_917>
   16ec8:	48 89 85 a0 eb ff ff 	mov    %rax,-0x1460(%rbp)
   16ecf:	48 8d 05 62 61 00 00 	lea    0x6162(%rip),%rax        # 1d038 <g_53>
   16ed6:	48 89 85 a8 eb ff ff 	mov    %rax,-0x1458(%rbp)
   16edd:	48 8d 05 2c a2 00 00 	lea    0xa22c(%rip),%rax        # 21110 <g_917>
   16ee4:	48 89 85 b0 eb ff ff 	mov    %rax,-0x1450(%rbp)
   16eeb:	48 8d 05 46 61 00 00 	lea    0x6146(%rip),%rax        # 1d038 <g_53>
   16ef2:	48 89 85 b8 eb ff ff 	mov    %rax,-0x1448(%rbp)
   16ef9:	c7 85 54 e4 ff ff f6 	movl   $0xfffffff6,-0x1bac(%rbp)
   16f00:	ff ff ff 
   16f03:	48 b8 16 bf f5 07 65 	movabs $0x7c14336507f5bf16,%rax
   16f0a:	33 14 7c 
   16f0d:	48 89 85 f8 e7 ff ff 	mov    %rax,-0x1808(%rbp)
   16f14:	48 83 ad d0 e4 ff ff 	subq   $0x1,-0x1b30(%rbp)
   16f1b:	01 
   16f1c:	0f b6 05 15 61 00 00 	movzbl 0x6115(%rip),%eax        # 1d038 <g_53>
   16f23:	84 c0                	test   %al,%al
   16f25:	90                   	nop
   16f26:	f3 0f 1e fa          	endbr64 
   16f2a:	48 8b 85 98 e7 ff ff 	mov    -0x1868(%rbp),%rax
   16f31:	8b 00                	mov    (%rax),%eax
   16f33:	85 c0                	test   %eax,%eax
   16f35:	0f 84 46 01 00 00    	je     17081 <func_39+0x5a85>
   16f3b:	0f b6 9d 98 e3 ff ff 	movzbl -0x1c68(%rbp),%ebx
   16f42:	48 8b 85 b8 e7 ff ff 	mov    -0x1848(%rbp),%rax
   16f49:	44 8b 20             	mov    (%rax),%r12d
   16f4c:	44 0f b6 ad a9 e3 ff 	movzbl -0x1c57(%rbp),%r13d
   16f53:	ff 
   16f54:	0f b6 05 7a 61 00 00 	movzbl 0x617a(%rip),%eax        # 1d0d5 <g_204+0xd>
   16f5b:	01 c0                	add    %eax,%eax
   16f5d:	c0 f8 04             	sar    $0x4,%al
   16f60:	0f be c0             	movsbl %al,%eax
   16f63:	89 85 80 e3 ff ff    	mov    %eax,-0x1c80(%rbp)
   16f69:	48 8b 85 98 e7 ff ff 	mov    -0x1868(%rbp),%rax
   16f70:	8b 00                	mov    (%rax),%eax
   16f72:	44 0f be f0          	movsbl %al,%r14d
   16f76:	48 8b 85 c8 e4 ff ff 	mov    -0x1b38(%rbp),%rax
   16f7d:	66 c7 00 06 00       	movw   $0x6,(%rax)
   16f82:	0f b6 85 9c e3 ff ff 	movzbl -0x1c64(%rbp),%eax
   16f89:	66 98                	cbtw   
   16f8b:	44 0f b7 f8          	movzwl %ax,%r15d
   16f8f:	48 8b 85 60 e4 ff ff 	mov    -0x1ba0(%rbp),%rax
   16f96:	8b 10                	mov    (%rax),%edx
   16f98:	48 8b 05 09 97 00 00 	mov    0x9709(%rip),%rax        # 206a8 <g_273>
   16f9f:	0f b6 00             	movzbl (%rax),%eax
   16fa2:	0f b6 c0             	movzbl %al,%eax
   16fa5:	39 c2                	cmp    %eax,%edx
   16fa7:	0f 94 c0             	sete   %al
   16faa:	0f b6 c0             	movzbl %al,%eax
   16fad:	be 01 00 00 00       	mov    $0x1,%esi
   16fb2:	89 c7                	mov    %eax,%edi
   16fb4:	e8 84 4d ff ff       	callq  bd3d <safe_mul_func_uint16_t_u_u>
   16fb9:	0f b7 c0             	movzwl %ax,%eax
   16fbc:	44 89 fe             	mov    %r15d,%esi
   16fbf:	89 c7                	mov    %eax,%edi
   16fc1:	e8 77 4d ff ff       	callq  bd3d <safe_mul_func_uint16_t_u_u>
   16fc6:	c7 05 00 a1 00 00 40 	movl   $0x9e40,0xa100(%rip)        # 210d0 <g_617>
   16fcd:	9e 00 00 
   16fd0:	44 89 f6             	mov    %r14d,%esi
   16fd3:	bf 00 00 00 00       	mov    $0x0,%edi
   16fd8:	e8 35 42 ff ff       	callq  b212 <safe_mul_func_int8_t_s_s>
   16fdd:	3c 01                	cmp    $0x1,%al
   16fdf:	0f 97 c0             	seta   %al
   16fe2:	0f b6 d0             	movzbl %al,%edx
   16fe5:	48 8b 05 44 97 00 00 	mov    0x9744(%rip),%rax        # 20730 <g_607>
   16fec:	48 39 85 c8 e7 ff ff 	cmp    %rax,-0x1838(%rbp)
   16ff3:	0f 95 c0             	setne  %al
   16ff6:	0f b6 c0             	movzbl %al,%eax
   16ff9:	89 d6                	mov    %edx,%esi
   16ffb:	89 c7                	mov    %eax,%edi
   16ffd:	e8 03 46 ff ff       	callq  b605 <safe_sub_func_int32_t_s_s>
   17002:	39 85 80 e3 ff ff    	cmp    %eax,-0x1c80(%rbp)
   17008:	0f 9d c0             	setge  %al
   1700b:	0f b6 d0             	movzbl %al,%edx
   1700e:	48 8b 05 9b 96 00 00 	mov    0x969b(%rip),%rax        # 206b0 <g_319>
   17015:	8b 00                	mov    (%rax),%eax
   17017:	39 c2                	cmp    %eax,%edx
   17019:	0f 9d c0             	setge  %al
   1701c:	0f b6 c0             	movzbl %al,%eax
   1701f:	44 89 ee             	mov    %r13d,%esi
   17022:	89 c7                	mov    %eax,%edi
   17024:	e8 78 42 ff ff       	callq  b2a1 <safe_lshift_func_int8_t_s_s>
   17029:	0f be c0             	movsbl %al,%eax
   1702c:	44 89 e6             	mov    %r12d,%esi
   1702f:	89 c7                	mov    %eax,%edi
   17031:	e8 96 46 ff ff       	callq  b6cc <safe_mod_func_int32_t_s_s>
   17036:	98                   	cwtl   
   17037:	89 de                	mov    %ebx,%esi
   17039:	89 c7                	mov    %eax,%edi
   1703b:	e8 23 45 ff ff       	callq  b563 <safe_rshift_func_int16_t_s_u>
   17040:	48 8b 05 d9 96 00 00 	mov    0x96d9(%rip),%rax        # 20720 <g_595>
   17047:	48 89 05 d2 96 00 00 	mov    %rax,0x96d2(%rip)        # 20720 <g_595>
   1704e:	48 8b 0d cb 96 00 00 	mov    0x96cb(%rip),%rcx        # 20720 <g_595>
   17055:	48 8b 95 a0 e4 ff ff 	mov    -0x1b60(%rbp),%rdx
   1705c:	48 8b 85 c0 e7 ff ff 	mov    -0x1840(%rbp),%rax
   17063:	48 89 10             	mov    %rdx,(%rax)
   17066:	48 8b 85 c0 e7 ff ff 	mov    -0x1840(%rbp),%rax
   1706d:	48 8b 00             	mov    (%rax),%rax
   17070:	48 39 c1             	cmp    %rax,%rcx
   17073:	0f 95 c0             	setne  %al
   17076:	89 c2                	mov    %eax,%edx
   17078:	48 8b 85 88 e3 ff ff 	mov    -0x1c78(%rbp),%rax
   1707f:	88 10                	mov    %dl,(%rax)
   17081:	ba 00 00 00 00       	mov    $0x0,%edx
   17086:	48 8b 05 13 93 00 00 	mov    0x9313(%rip),%rax        # 203a0 <g_34>
   1708d:	89 10                	mov    %edx,(%rax)
   1708f:	48 8d 05 8e 5f 00 00 	lea    0x5f8e(%rip),%rax        # 1d024 <g_9>
   17096:	48 8b 5d c8          	mov    -0x38(%rbp),%rbx
   1709a:	64 48 33 1c 25 28 00 	xor    %fs:0x28,%rbx
   170a1:	00 00 
   170a3:	74 05                	je     170aa <func_39+0x5aae>
   170a5:	e8 c6 3f ff ff       	callq  b070 <__stack_chk_fail@plt>
   170aa:	48 81 c4 68 1c 00 00 	add    $0x1c68,%rsp
   170b1:	5b                   	pop    %rbx
   170b2:	41 5c                	pop    %r12
   170b4:	41 5d                	pop    %r13
   170b6:	41 5e                	pop    %r14
   170b8:	41 5f                	pop    %r15
   170ba:	5d                   	pop    %rbp
   170bb:	c3                   	retq   

00000000000170bc <func_44>:
   170bc:	f3 0f 1e fa          	endbr64 
   170c0:	55                   	push   %rbp
   170c1:	48 89 e5             	mov    %rsp,%rbp
   170c4:	41 57                	push   %r15
   170c6:	41 56                	push   %r14
   170c8:	41 55                	push   %r13
   170ca:	41 54                	push   %r12
   170cc:	53                   	push   %rbx
   170cd:	48 81 ec c8 00 00 00 	sub    $0xc8,%rsp
   170d4:	48 89 bd 18 ff ff ff 	mov    %rdi,-0xe8(%rbp)
   170db:	64 48 8b 04 25 28 00 	mov    %fs:0x28,%rax
   170e2:	00 00 
   170e4:	48 89 45 c8          	mov    %rax,-0x38(%rbp)
   170e8:	31 c0                	xor    %eax,%eax
   170ea:	c7 85 2c ff ff ff 01 	movl   $0x1,-0xd4(%rbp)
   170f1:	00 00 00 
   170f4:	66 c7 45 82 01 00    	movw   $0x1,-0x7e(%rbp)
   170fa:	66 c7 45 84 01 00    	movw   $0x1,-0x7c(%rbp)
   17100:	66 c7 45 86 01 00    	movw   $0x1,-0x7a(%rbp)
   17106:	66 c7 45 88 01 00    	movw   $0x1,-0x78(%rbp)
   1710c:	66 c7 45 8a 01 00    	movw   $0x1,-0x76(%rbp)
   17112:	66 c7 45 8c 01 00    	movw   $0x1,-0x74(%rbp)
   17118:	66 c7 45 8e 01 00    	movw   $0x1,-0x72(%rbp)
   1711e:	48 8d 05 03 5f 00 00 	lea    0x5f03(%rip),%rax        # 1d028 <g_32>
   17125:	48 89 85 38 ff ff ff 	mov    %rax,-0xc8(%rbp)
   1712c:	c7 85 20 ff ff ff f4 	movl   $0xccc4eff4,-0xe0(%rbp)
   17133:	ef c4 cc 
   17136:	0f b7 85 70 ff ff ff 	movzwl -0x90(%rbp),%eax
   1713d:	66 25 00 c0          	and    $0xc000,%ax
   17141:	83 c8 4f             	or     $0x4f,%eax
   17144:	66 89 85 70 ff ff ff 	mov    %ax,-0x90(%rbp)
   1714b:	66 c7 85 72 ff ff ff 	movw   $0xc5ca,-0x8e(%rbp)
   17152:	ca c5 
   17154:	0f b6 85 74 ff ff ff 	movzbl -0x8c(%rbp),%eax
   1715b:	83 c8 07             	or     $0x7,%eax
   1715e:	88 85 74 ff ff ff    	mov    %al,-0x8c(%rbp)
   17164:	8b 85 74 ff ff ff    	mov    -0x8c(%rbp),%eax
   1716a:	25 07 00 00 f0       	and    $0xf0000007,%eax
   1716f:	0d 58 a3 00 00       	or     $0xa358,%eax
   17174:	89 85 74 ff ff ff    	mov    %eax,-0x8c(%rbp)
   1717a:	c7 85 78 ff ff ff 62 	movl   $0xe1338462,-0x88(%rbp)
   17181:	84 33 e1 
   17184:	0f b7 85 7c ff ff ff 	movzwl -0x84(%rbp),%eax
   1718b:	66 25 00 f8          	and    $0xf800,%ax
   1718f:	83 c8 0d             	or     $0xd,%eax
   17192:	66 89 85 7c ff ff ff 	mov    %ax,-0x84(%rbp)
   17199:	0f b6 85 7d ff ff ff 	movzbl -0x83(%rbp),%eax
   171a0:	83 e0 87             	and    $0xffffff87,%eax
   171a3:	83 c8 18             	or     $0x18,%eax
   171a6:	88 85 7d ff ff ff    	mov    %al,-0x83(%rbp)
   171ac:	48 8d 05 9d 5e 00 00 	lea    0x5e9d(%rip),%rax        # 1d050 <g_92>
   171b3:	48 89 85 40 ff ff ff 	mov    %rax,-0xc0(%rbp)
   171ba:	48 8d 05 bf 5e 00 00 	lea    0x5ebf(%rip),%rax        # 1d080 <g_95+0x20>
   171c1:	48 89 85 48 ff ff ff 	mov    %rax,-0xb8(%rbp)
   171c8:	48 8d 05 79 5e 00 00 	lea    0x5e79(%rip),%rax        # 1d048 <g_82>
   171cf:	48 89 85 30 ff ff ff 	mov    %rax,-0xd0(%rbp)
   171d6:	48 8d 85 30 ff ff ff 	lea    -0xd0(%rbp),%rax
   171dd:	48 89 85 50 ff ff ff 	mov    %rax,-0xb0(%rbp)
   171e4:	48 c7 85 58 ff ff ff 	movq   $0x0,-0xa8(%rbp)
   171eb:	00 00 00 00 
   171ef:	48 8d 85 20 ff ff ff 	lea    -0xe0(%rbp),%rax
   171f6:	48 89 85 60 ff ff ff 	mov    %rax,-0xa0(%rbp)
   171fd:	48 8d 05 8c 5e 00 00 	lea    0x5e8c(%rip),%rax        # 1d090 <g_112>
   17204:	48 89 85 68 ff ff ff 	mov    %rax,-0x98(%rbp)
   1720b:	c7 85 24 ff ff ff 00 	movl   $0x0,-0xdc(%rbp)
   17212:	00 00 00 
   17215:	eb 4e                	jmp    17265 <func_44+0x1a9>
   17217:	c7 85 28 ff ff ff 00 	movl   $0x0,-0xd8(%rbp)
   1721e:	00 00 00 
   17221:	eb 32                	jmp    17255 <func_44+0x199>
   17223:	8b 85 28 ff ff ff    	mov    -0xd8(%rbp),%eax
   17229:	48 63 c8             	movslq %eax,%rcx
   1722c:	8b 85 24 ff ff ff    	mov    -0xdc(%rbp),%eax
   17232:	48 63 d0             	movslq %eax,%rdx
   17235:	48 89 d0             	mov    %rdx,%rax
   17238:	48 c1 e0 03          	shl    $0x3,%rax
   1723c:	48 29 d0             	sub    %rdx,%rax
   1723f:	48 01 c8             	add    %rcx,%rax
   17242:	48 8d 15 f7 5d 00 00 	lea    0x5df7(%rip),%rdx        # 1d040 <g_80>
   17249:	48 89 54 c5 90       	mov    %rdx,-0x70(%rbp,%rax,8)
   1724e:	83 85 28 ff ff ff 01 	addl   $0x1,-0xd8(%rbp)
   17255:	83 bd 28 ff ff ff 06 	cmpl   $0x6,-0xd8(%rbp)
   1725c:	7e c5                	jle    17223 <func_44+0x167>
   1725e:	83 85 24 ff ff ff 01 	addl   $0x1,-0xdc(%rbp)
   17265:	83 bd 24 ff ff ff 00 	cmpl   $0x0,-0xdc(%rbp)
   1726c:	7e a9                	jle    17217 <func_44+0x15b>
   1726e:	c7 85 24 ff ff ff 00 	movl   $0x0,-0xdc(%rbp)
   17275:	00 00 00 
   17278:	eb 44                	jmp    172be <func_44+0x202>
   1727a:	c7 85 28 ff ff ff 00 	movl   $0x0,-0xd8(%rbp)
   17281:	00 00 00 
   17284:	eb 28                	jmp    172ae <func_44+0x1f2>
   17286:	8b 85 28 ff ff ff    	mov    -0xd8(%rbp),%eax
   1728c:	48 98                	cltq   
   1728e:	8b 95 24 ff ff ff    	mov    -0xdc(%rbp),%edx
   17294:	48 63 d2             	movslq %edx,%rdx
   17297:	48 01 d2             	add    %rdx,%rdx
   1729a:	48 01 d0             	add    %rdx,%rax
   1729d:	66 c7 84 45 7e ff ff 	movw   $0x10d3,-0x82(%rbp,%rax,2)
   172a4:	ff d3 10 
   172a7:	83 85 28 ff ff ff 01 	addl   $0x1,-0xd8(%rbp)
   172ae:	83 bd 28 ff ff ff 01 	cmpl   $0x1,-0xd8(%rbp)
   172b5:	7e cf                	jle    17286 <func_44+0x1ca>
   172b7:	83 85 24 ff ff ff 01 	addl   $0x1,-0xdc(%rbp)
   172be:	83 bd 24 ff ff ff 00 	cmpl   $0x0,-0xdc(%rbp)
   172c5:	7e b3                	jle    1727a <func_44+0x1be>
   172c7:	0f b7 45 84          	movzwl -0x7c(%rbp),%eax
   172cb:	0f b7 d8             	movzwl %ax,%ebx
   172ce:	8b 05 64 5d 00 00    	mov    0x5d64(%rip),%eax        # 1d038 <g_53>
   172d4:	41 89 c7             	mov    %eax,%r15d
   172d7:	0f b7 85 70 ff ff ff 	movzwl -0x90(%rbp),%eax
   172de:	c1 e0 02             	shl    $0x2,%eax
   172e1:	66 c1 f8 02          	sar    $0x2,%ax
   172e5:	44 0f bf e0          	movswl %ax,%r12d
   172e9:	8b 05 35 5d 00 00    	mov    0x5d35(%rip),%eax        # 1d024 <g_9>
   172ef:	44 0f b7 e8          	movzwl %ax,%r13d
   172f3:	48 8b 05 4e 5d 00 00 	mov    0x5d4e(%rip),%rax        # 1d048 <g_82>
   172fa:	0f b6 05 37 5d 00 00 	movzbl 0x5d37(%rip),%eax        # 1d038 <g_53>
   17301:	44 0f b6 f0          	movzbl %al,%r14d
   17305:	0f b6 05 3c 5d 00 00 	movzbl 0x5d3c(%rip),%eax        # 1d048 <g_82>
   1730c:	0f b6 c0             	movzbl %al,%eax
   1730f:	89 c6                	mov    %eax,%esi
   17311:	bf 30 b0 bd 21       	mov    $0x21bdb030,%edi
   17316:	e8 9d 4b ff ff       	callq  beb8 <safe_add_func_uint32_t_u_u>
   1731b:	98                   	cwtl   
   1731c:	be 0e 00 00 00       	mov    $0xe,%esi
   17321:	89 c7                	mov    %eax,%edi
   17323:	e8 3b 42 ff ff       	callq  b563 <safe_rshift_func_int16_t_s_u>
   17328:	98                   	cwtl   
   17329:	41 39 c6             	cmp    %eax,%r14d
   1732c:	0f 9c c0             	setl   %al
   1732f:	0f b6 d0             	movzbl %al,%edx
   17332:	8b 05 00 5d 00 00    	mov    0x5d00(%rip),%eax        # 1d038 <g_53>
   17338:	21 c2                	and    %eax,%edx
   1733a:	8b 05 f0 5c 00 00    	mov    0x5cf0(%rip),%eax        # 1d030 <g_36>
   17340:	89 d6                	mov    %edx,%esi
   17342:	89 c7                	mov    %eax,%edi
   17344:	e8 87 4b ff ff       	callq  bed0 <safe_sub_func_uint32_t_u_u>
   17349:	f7 d0                	not    %eax
   1734b:	0f b7 c0             	movzwl %ax,%eax
   1734e:	0f b7 55 84          	movzwl -0x7c(%rbp),%edx
   17352:	0f bf d2             	movswl %dx,%edx
   17355:	89 95 20 ff ff ff    	mov    %edx,-0xe0(%rbp)
   1735b:	8b 95 20 ff ff ff    	mov    -0xe0(%rbp),%edx
   17361:	0f b7 d2             	movzwl %dx,%edx
   17364:	81 e2 17 5b 00 00    	and    $0x5b17,%edx
   1736a:	89 c6                	mov    %eax,%esi
   1736c:	89 d7                	mov    %edx,%edi
   1736e:	e8 8c 49 ff ff       	callq  bcff <safe_add_func_uint16_t_u_u>
   17373:	0f be d0             	movsbl %al,%edx
   17376:	0f b7 45 84          	movzwl -0x7c(%rbp),%eax
   1737a:	89 c1                	mov    %eax,%ecx
   1737c:	48 8b 85 38 ff ff ff 	mov    -0xc8(%rbp),%rax
   17383:	88 08                	mov    %cl,(%rax)
   17385:	48 8b 85 38 ff ff ff 	mov    -0xc8(%rbp),%rax
   1738c:	0f b6 00             	movzbl (%rax),%eax
   1738f:	0f be c0             	movsbl %al,%eax
   17392:	89 d6                	mov    %edx,%esi
   17394:	89 c7                	mov    %eax,%edi
   17396:	e8 39 3e ff ff       	callq  b1d4 <safe_add_func_int8_t_s_s>
   1739b:	48 8b 95 40 ff ff ff 	mov    -0xc0(%rbp),%rdx
   173a2:	88 02                	mov    %al,(%rdx)
   173a4:	48 8b 85 40 ff ff ff 	mov    -0xc0(%rbp),%rax
   173ab:	0f b6 00             	movzbl (%rax),%eax
   173ae:	0f be c0             	movsbl %al,%eax
   173b1:	be 04 00 00 00       	mov    $0x4,%esi
   173b6:	89 c7                	mov    %eax,%edi
   173b8:	e8 af 3f ff ff       	callq  b36c <safe_rshift_func_int8_t_s_u>
   173bd:	8b 85 74 ff ff ff    	mov    -0x8c(%rbp),%eax
   173c3:	c1 e8 03             	shr    $0x3,%eax
   173c6:	25 ff ff ff 01       	and    $0x1ffffff,%eax
   173cb:	0f b7 c0             	movzwl %ax,%eax
   173ce:	44 89 ee             	mov    %r13d,%esi
   173d1:	89 c7                	mov    %eax,%edi
   173d3:	e8 65 49 ff ff       	callq  bd3d <safe_mul_func_uint16_t_u_u>
   173d8:	0f b7 c0             	movzwl %ax,%eax
   173db:	39 85 2c ff ff ff    	cmp    %eax,-0xd4(%rbp)
   173e1:	0f 97 c0             	seta   %al
   173e4:	0f b6 c0             	movzbl %al,%eax
   173e7:	be 00 00 00 00       	mov    $0x0,%esi
   173ec:	89 c7                	mov    %eax,%edi
   173ee:	e8 87 4a ff ff       	callq  be7a <safe_rshift_func_uint16_t_u_u>
   173f3:	0f be c0             	movsbl %al,%eax
   173f6:	44 89 e6             	mov    %r12d,%esi
   173f9:	89 c7                	mov    %eax,%edi
   173fb:	e8 35 3f ff ff       	callq  b335 <safe_rshift_func_int8_t_s_s>
   17400:	48 0f be c0          	movsbq %al,%rax
   17404:	4c 89 fe             	mov    %r15,%rsi
   17407:	48 89 c7             	mov    %rax,%rdi
   1740a:	e8 a5 45 ff ff       	callq  b9b4 <safe_mod_func_int64_t_s_s>
   1740f:	48 be 06 a2 c0 54 23 	movabs $0x65c99c2354c0a206,%rsi
   17416:	9c c9 65 
   17419:	48 89 c7             	mov    %rax,%rdi
   1741c:	e8 20 44 ff ff       	callq  b841 <safe_add_func_int64_t_s_s>
   17421:	8b 15 11 5c 00 00    	mov    0x5c11(%rip),%edx        # 1d038 <g_53>
   17427:	89 d2                	mov    %edx,%edx
   17429:	48 39 d0             	cmp    %rdx,%rax
   1742c:	0f b7 45 84          	movzwl -0x7c(%rbp),%eax
   17430:	c1 e0 04             	shl    $0x4,%eax
   17433:	c0 f8 04             	sar    $0x4,%al
   17436:	83 e0 0f             	and    $0xf,%eax
   17439:	8d 14 c5 00 00 00 00 	lea    0x0(,%rax,8),%edx
   17440:	0f b6 85 7d ff ff ff 	movzbl -0x83(%rbp),%eax
   17447:	83 e0 87             	and    $0xffffff87,%eax
   1744a:	09 d0                	or     %edx,%eax
   1744c:	88 85 7d ff ff ff    	mov    %al,-0x83(%rbp)
   17452:	0f b7 45 80          	movzwl -0x80(%rbp),%eax
   17456:	0f b7 c0             	movzwl %ax,%eax
   17459:	89 de                	mov    %ebx,%esi
   1745b:	89 c7                	mov    %eax,%edi
   1745d:	e8 fa 48 ff ff       	callq  bd5c <safe_mod_func_uint16_t_u_u>
   17462:	89 c2                	mov    %eax,%edx
   17464:	48 8b 85 48 ff ff ff 	mov    -0xb8(%rbp),%rax
   1746b:	88 10                	mov    %dl,(%rax)
   1746d:	48 8b 85 50 ff ff ff 	mov    -0xb0(%rbp),%rax
   17474:	48 8d 15 cd 5b 00 00 	lea    0x5bcd(%rip),%rdx        # 1d048 <g_82>
   1747b:	48 89 10             	mov    %rdx,(%rax)
   1747e:	0f b7 45 80          	movzwl -0x80(%rbp),%eax
   17482:	44 0f bf e0          	movswl %ax,%r12d
   17486:	48 8b 05 b3 5b 00 00 	mov    0x5bb3(%rip),%rax        # 1d040 <g_80>
   1748d:	48 85 c0             	test   %rax,%rax
   17490:	74 12                	je     174a4 <func_44+0x3e8>
   17492:	0f b6 05 e7 5b 00 00 	movzbl 0x5be7(%rip),%eax        # 1d080 <g_95+0x20>
   17499:	84 c0                	test   %al,%al
   1749b:	74 07                	je     174a4 <func_44+0x3e8>
   1749d:	bb 01 00 00 00       	mov    $0x1,%ebx
   174a2:	eb 05                	jmp    174a9 <func_44+0x3ed>
   174a4:	bb 00 00 00 00       	mov    $0x0,%ebx
   174a9:	0f b6 05 88 5b 00 00 	movzbl 0x5b88(%rip),%eax        # 1d038 <g_53>
   174b0:	0f b6 c0             	movzbl %al,%eax
   174b3:	89 c6                	mov    %eax,%esi
   174b5:	bf 01 00 00 00       	mov    $0x1,%edi
   174ba:	e8 0d 42 ff ff       	callq  b6cc <safe_mod_func_int32_t_s_s>
   174bf:	39 c3                	cmp    %eax,%ebx
   174c1:	0f 94 c0             	sete   %al
   174c4:	89 c2                	mov    %eax,%edx
   174c6:	48 8b 85 38 ff ff ff 	mov    -0xc8(%rbp),%rax
   174cd:	88 10                	mov    %dl,(%rax)
   174cf:	48 8b 85 38 ff ff ff 	mov    -0xc8(%rbp),%rax
   174d6:	0f b6 00             	movzbl (%rax),%eax
   174d9:	0f be d8             	movsbl %al,%ebx
   174dc:	48 8b 05 c5 8e 00 00 	mov    0x8ec5(%rip),%rax        # 203a8 <g_33>
   174e3:	48 8b 00             	mov    (%rax),%rax
   174e6:	8b 00                	mov    (%rax),%eax
   174e8:	89 05 9a 5b 00 00    	mov    %eax,0x5b9a(%rip)        # 1d088 <g_106>
   174ee:	8b 05 94 5b 00 00    	mov    0x5b94(%rip),%eax        # 1d088 <g_106>
   174f4:	89 c2                	mov    %eax,%edx
   174f6:	8b 05 38 5b 00 00    	mov    0x5b38(%rip),%eax        # 1d034 <g_38>
   174fc:	39 c2                	cmp    %eax,%edx
   174fe:	0f 92 c0             	setb   %al
   17501:	0f b6 d0             	movzbl %al,%edx
   17504:	48 8b 85 60 ff ff ff 	mov    -0xa0(%rbp),%rax
   1750b:	c7 00 f6 df d1 48    	movl   $0x48d1dff6,(%rax)
   17511:	48 8b 85 60 ff ff ff 	mov    -0xa0(%rbp),%rax
   17518:	8b 00                	mov    (%rax),%eax
   1751a:	39 c2                	cmp    %eax,%edx
   1751c:	0f 9f c0             	setg   %al
   1751f:	0f b6 c0             	movzbl %al,%eax
   17522:	be 04 00 00 00       	mov    $0x4,%esi
   17527:	89 c7                	mov    %eax,%edi
   17529:	e8 73 3d ff ff       	callq  b2a1 <safe_lshift_func_int8_t_s_s>
   1752e:	66 98                	cbtw   
   17530:	0f b7 d0             	movzwl %ax,%edx
   17533:	0f b7 45 80          	movzwl -0x80(%rbp),%eax
   17537:	0f b7 c0             	movzwl %ax,%eax
   1753a:	89 d6                	mov    %edx,%esi
   1753c:	89 c7                	mov    %eax,%edi
   1753e:	e8 dc 47 ff ff       	callq  bd1f <safe_sub_func_uint16_t_u_u>
   17543:	66 3d c4 26          	cmp    $0x26c4,%ax
   17547:	0f 96 c0             	setbe  %al
   1754a:	0f b6 c0             	movzbl %al,%eax
   1754d:	89 de                	mov    %ebx,%esi
   1754f:	89 c7                	mov    %eax,%edi
   17551:	e8 af 46 ff ff       	callq  bc05 <safe_lshift_func_uint8_t_u_s>
   17556:	0f b6 d0             	movzbl %al,%edx
   17559:	48 8b 85 68 ff ff ff 	mov    -0x98(%rbp),%rax
   17560:	48 89 10             	mov    %rdx,(%rax)
   17563:	48 8b 85 68 ff ff ff 	mov    -0x98(%rbp),%rax
   1756a:	48 8b 10             	mov    (%rax),%rdx
   1756d:	0f b6 05 dc 5a 00 00 	movzbl 0x5adc(%rip),%eax        # 1d050 <g_92>
   17574:	48 0f be c0          	movsbq %al,%rax
   17578:	48 39 c2             	cmp    %rax,%rdx
   1757b:	0f 9d c0             	setge  %al
   1757e:	0f b6 c0             	movzbl %al,%eax
   17581:	41 39 c4             	cmp    %eax,%r12d
   17584:	0f 9d c0             	setge  %al
   17587:	0f b6 d0             	movzbl %al,%edx
   1758a:	0f b6 05 e4 5a 00 00 	movzbl 0x5ae4(%rip),%eax        # 1d075 <g_95+0x15>
   17591:	0f b6 c0             	movzbl %al,%eax
   17594:	39 c2                	cmp    %eax,%edx
   17596:	0f 9c c0             	setl   %al
   17599:	0f b6 d0             	movzbl %al,%edx
   1759c:	8b 05 96 5a 00 00    	mov    0x5a96(%rip),%eax        # 1d038 <g_53>
   175a2:	39 c2                	cmp    %eax,%edx
   175a4:	77 0d                	ja     175b3 <func_44+0x4f7>
   175a6:	48 8b 85 60 ff ff ff 	mov    -0xa0(%rbp),%rax
   175ad:	8b 00                	mov    (%rax),%eax
   175af:	85 c0                	test   %eax,%eax
   175b1:	74 07                	je     175ba <func_44+0x4fe>
   175b3:	ba 01 00 00 00       	mov    $0x1,%edx
   175b8:	eb 05                	jmp    175bf <func_44+0x503>
   175ba:	ba 00 00 00 00       	mov    $0x0,%edx
   175bf:	48 8b 05 da 8d 00 00 	mov    0x8dda(%rip),%rax        # 203a0 <g_34>
   175c6:	89 10                	mov    %edx,(%rax)
   175c8:	0f b6 05 a2 5a 00 00 	movzbl 0x5aa2(%rip),%eax        # 1d071 <g_95+0x11>
   175cf:	48 8b 4d c8          	mov    -0x38(%rbp),%rcx
   175d3:	64 48 33 0c 25 28 00 	xor    %fs:0x28,%rcx
   175da:	00 00 
   175dc:	74 05                	je     175e3 <func_44+0x527>
   175de:	e8 8d 3a ff ff       	callq  b070 <__stack_chk_fail@plt>
   175e3:	48 81 c4 c8 00 00 00 	add    $0xc8,%rsp
   175ea:	5b                   	pop    %rbx
   175eb:	41 5c                	pop    %r12
   175ed:	41 5d                	pop    %r13
   175ef:	41 5e                	pop    %r14
   175f1:	41 5f                	pop    %r15
   175f3:	5d                   	pop    %rbp
   175f4:	c3                   	retq   

00000000000175f5 <func_46>:
   175f5:	f3 0f 1e fa          	endbr64 
   175f9:	55                   	push   %rbp
   175fa:	48 89 e5             	mov    %rsp,%rbp
   175fd:	89 f8                	mov    %edi,%eax
   175ff:	89 75 e8             	mov    %esi,-0x18(%rbp)
   17602:	89 d6                	mov    %edx,%esi
   17604:	89 ca                	mov    %ecx,%edx
   17606:	4c 89 45 d8          	mov    %r8,-0x28(%rbp)
   1760a:	66 89 45 ec          	mov    %ax,-0x14(%rbp)
   1760e:	89 f0                	mov    %esi,%eax
   17610:	88 45 e4             	mov    %al,-0x1c(%rbp)
   17613:	89 d0                	mov    %edx,%eax
   17615:	88 45 e0             	mov    %al,-0x20(%rbp)
   17618:	48 8d 05 15 5a 00 00 	lea    0x5a15(%rip),%rax        # 1d034 <g_38>
   1761f:	48 89 45 f8          	mov    %rax,-0x8(%rbp)
   17623:	48 8b 45 f8          	mov    -0x8(%rbp),%rax
   17627:	5d                   	pop    %rbp
   17628:	c3                   	retq   

0000000000017629 <main>:
   17629:	f3 0f 1e fa          	endbr64 
   1762d:	55                   	push   %rbp
   1762e:	48 89 e5             	mov    %rsp,%rbp
   17631:	48 83 ec 20          	sub    $0x20,%rsp
   17635:	89 7d ec             	mov    %edi,-0x14(%rbp)
   17638:	48 89 75 e0          	mov    %rsi,-0x20(%rbp)
   1763c:	c7 45 fc 00 00 00 00 	movl   $0x0,-0x4(%rbp)
   17643:	83 7d ec 02          	cmpl   $0x2,-0x14(%rbp)
   17647:	75 25                	jne    1766e <main+0x45>
   17649:	48 8b 45 e0          	mov    -0x20(%rbp),%rax
   1764d:	48 83 c0 08          	add    $0x8,%rax
   17651:	48 8b 00             	mov    (%rax),%rax
   17654:	48 8d 35 6d 29 00 00 	lea    0x296d(%rip),%rsi        # 19fc8 <g_1850+0xf20>
   1765b:	48 89 c7             	mov    %rax,%rdi
   1765e:	e8 2d 3a ff ff       	callq  b090 <strcmp@plt>
   17663:	85 c0                	test   %eax,%eax
   17665:	75 07                	jne    1766e <main+0x45>
   17667:	c7 45 fc 01 00 00 00 	movl   $0x1,-0x4(%rbp)
   1766e:	e8 16 3b ff ff       	callq  b189 <platform_main_begin>
   17673:	e8 20 4f ff ff       	callq  c598 <crc32_gentab>
   17678:	e8 38 51 ff ff       	callq  c7b5 <func_1>
   1767d:	8b 05 a1 59 00 00    	mov    0x59a1(%rip),%eax        # 1d024 <g_9>
   17683:	48 98                	cltq   
   17685:	8b 55 fc             	mov    -0x4(%rbp),%edx
   17688:	48 8d 35 3b 29 00 00 	lea    0x293b(%rip),%rsi        # 19fca <g_1850+0xf22>
   1768f:	48 89 c7             	mov    %rax,%rdi
   17692:	e8 5c 50 ff ff       	callq  c6f3 <transparent_crc>
   17697:	0f b6 05 8a 59 00 00 	movzbl 0x598a(%rip),%eax        # 1d028 <g_32>
   1769e:	48 0f be c0          	movsbq %al,%rax
   176a2:	8b 55 fc             	mov    -0x4(%rbp),%edx
   176a5:	48 8d 35 22 29 00 00 	lea    0x2922(%rip),%rsi        # 19fce <g_1850+0xf26>
   176ac:	48 89 c7             	mov    %rax,%rdi
   176af:	e8 3f 50 ff ff       	callq  c6f3 <transparent_crc>
   176b4:	c7 45 f4 00 00 00 00 	movl   $0x0,-0xc(%rbp)
   176bb:	eb 4b                	jmp    17708 <main+0xdf>
   176bd:	8b 45 f4             	mov    -0xc(%rbp),%eax
   176c0:	48 98                	cltq   
   176c2:	48 8d 14 85 00 00 00 	lea    0x0(,%rax,4),%rdx
   176c9:	00 
   176ca:	48 8d 05 5b 59 00 00 	lea    0x595b(%rip),%rax        # 1d02c <g_35>
   176d1:	8b 04 02             	mov    (%rdx,%rax,1),%eax
   176d4:	48 98                	cltq   
   176d6:	8b 55 fc             	mov    -0x4(%rbp),%edx
   176d9:	48 8d 35 f3 28 00 00 	lea    0x28f3(%rip),%rsi        # 19fd3 <g_1850+0xf2b>
   176e0:	48 89 c7             	mov    %rax,%rdi
   176e3:	e8 0b 50 ff ff       	callq  c6f3 <transparent_crc>
   176e8:	83 7d fc 00          	cmpl   $0x0,-0x4(%rbp)
   176ec:	74 16                	je     17704 <main+0xdb>
   176ee:	8b 45 f4             	mov    -0xc(%rbp),%eax
   176f1:	89 c6                	mov    %eax,%esi
   176f3:	48 8d 3d e1 28 00 00 	lea    0x28e1(%rip),%rdi        # 19fdb <g_1850+0xf33>
   176fa:	b8 00 00 00 00       	mov    $0x0,%eax
   176ff:	e8 7c 39 ff ff       	callq  b080 <printf@plt>
   17704:	83 45 f4 01          	addl   $0x1,-0xc(%rbp)
   17708:	83 7d f4 00          	cmpl   $0x0,-0xc(%rbp)
   1770c:	7e af                	jle    176bd <main+0x94>
   1770e:	8b 05 1c 59 00 00    	mov    0x591c(%rip),%eax        # 1d030 <g_36>
   17714:	89 c1                	mov    %eax,%ecx
   17716:	8b 45 fc             	mov    -0x4(%rbp),%eax
   17719:	89 c2                	mov    %eax,%edx
   1771b:	48 8d 35 c7 28 00 00 	lea    0x28c7(%rip),%rsi        # 19fe9 <g_1850+0xf41>
   17722:	48 89 cf             	mov    %rcx,%rdi
   17725:	e8 c9 4f ff ff       	callq  c6f3 <transparent_crc>
   1772a:	8b 05 04 59 00 00    	mov    0x5904(%rip),%eax        # 1d034 <g_38>
   17730:	89 c1                	mov    %eax,%ecx
   17732:	8b 45 fc             	mov    -0x4(%rbp),%eax
   17735:	89 c2                	mov    %eax,%edx
   17737:	48 8d 35 b0 28 00 00 	lea    0x28b0(%rip),%rsi        # 19fee <g_1850+0xf46>
   1773e:	48 89 cf             	mov    %rcx,%rdi
   17741:	e8 ad 4f ff ff       	callq  c6f3 <transparent_crc>
   17746:	8b 05 ec 58 00 00    	mov    0x58ec(%rip),%eax        # 1d038 <g_53>
   1774c:	89 c1                	mov    %eax,%ecx
   1774e:	8b 45 fc             	mov    -0x4(%rbp),%eax
   17751:	89 c2                	mov    %eax,%edx
   17753:	48 8d 35 99 28 00 00 	lea    0x2899(%rip),%rsi        # 19ff3 <g_1850+0xf4b>
   1775a:	48 89 cf             	mov    %rcx,%rdi
   1775d:	e8 91 4f ff ff       	callq  c6f3 <transparent_crc>
   17762:	0f b6 05 cf 58 00 00 	movzbl 0x58cf(%rip),%eax        # 1d038 <g_53>
   17769:	0f b6 c0             	movzbl %al,%eax
   1776c:	8b 55 fc             	mov    -0x4(%rbp),%edx
   1776f:	48 8d 35 85 28 00 00 	lea    0x2885(%rip),%rsi        # 19ffb <g_1850+0xf53>
   17776:	48 89 c7             	mov    %rax,%rdi
   17779:	e8 75 4f ff ff       	callq  c6f3 <transparent_crc>
   1777e:	0f b7 05 b3 58 00 00 	movzwl 0x58b3(%rip),%eax        # 1d038 <g_53>
   17785:	0f b7 c0             	movzwl %ax,%eax
   17788:	8b 55 fc             	mov    -0x4(%rbp),%edx
   1778b:	48 8d 35 71 28 00 00 	lea    0x2871(%rip),%rsi        # 1a003 <g_1850+0xf5b>
   17792:	48 89 c7             	mov    %rax,%rdi
   17795:	e8 59 4f ff ff       	callq  c6f3 <transparent_crc>
   1779a:	0f b7 05 97 58 00 00 	movzwl 0x5897(%rip),%eax        # 1d038 <g_53>
   177a1:	48 0f bf c0          	movswq %ax,%rax
   177a5:	8b 55 fc             	mov    -0x4(%rbp),%edx
   177a8:	48 8d 35 5c 28 00 00 	lea    0x285c(%rip),%rsi        # 1a00b <g_1850+0xf63>
   177af:	48 89 c7             	mov    %rax,%rdi
   177b2:	e8 3c 4f ff ff       	callq  c6f3 <transparent_crc>
   177b7:	48 8b 05 82 58 00 00 	mov    0x5882(%rip),%rax        # 1d040 <g_80>
   177be:	8b 55 fc             	mov    -0x4(%rbp),%edx
   177c1:	48 8d 35 4b 28 00 00 	lea    0x284b(%rip),%rsi        # 1a013 <g_1850+0xf6b>
   177c8:	48 89 c7             	mov    %rax,%rdi
   177cb:	e8 23 4f ff ff       	callq  c6f3 <transparent_crc>
   177d0:	8b 05 72 58 00 00    	mov    0x5872(%rip),%eax        # 1d048 <g_82>
   177d6:	89 c1                	mov    %eax,%ecx
   177d8:	8b 45 fc             	mov    -0x4(%rbp),%eax
   177db:	89 c2                	mov    %eax,%edx
   177dd:	48 8d 35 34 28 00 00 	lea    0x2834(%rip),%rsi        # 1a018 <g_1850+0xf70>
   177e4:	48 89 cf             	mov    %rcx,%rdi
   177e7:	e8 07 4f ff ff       	callq  c6f3 <transparent_crc>
   177ec:	0f b6 05 55 58 00 00 	movzbl 0x5855(%rip),%eax        # 1d048 <g_82>
   177f3:	0f b6 c0             	movzbl %al,%eax
   177f6:	8b 55 fc             	mov    -0x4(%rbp),%edx
   177f9:	48 8d 35 20 28 00 00 	lea    0x2820(%rip),%rsi        # 1a020 <g_1850+0xf78>
   17800:	48 89 c7             	mov    %rax,%rdi
   17803:	e8 eb 4e ff ff       	callq  c6f3 <transparent_crc>
   17808:	0f b7 05 39 58 00 00 	movzwl 0x5839(%rip),%eax        # 1d048 <g_82>
   1780f:	0f b7 c0             	movzwl %ax,%eax
   17812:	8b 55 fc             	mov    -0x4(%rbp),%edx
   17815:	48 8d 35 0c 28 00 00 	lea    0x280c(%rip),%rsi        # 1a028 <g_1850+0xf80>
   1781c:	48 89 c7             	mov    %rax,%rdi
   1781f:	e8 cf 4e ff ff       	callq  c6f3 <transparent_crc>
   17824:	0f b7 05 1d 58 00 00 	movzwl 0x581d(%rip),%eax        # 1d048 <g_82>
   1782b:	48 0f bf c0          	movswq %ax,%rax
   1782f:	8b 55 fc             	mov    -0x4(%rbp),%edx
   17832:	48 8d 35 f7 27 00 00 	lea    0x27f7(%rip),%rsi        # 1a030 <g_1850+0xf88>
   17839:	48 89 c7             	mov    %rax,%rdi
   1783c:	e8 b2 4e ff ff       	callq  c6f3 <transparent_crc>
   17841:	0f b6 05 08 58 00 00 	movzbl 0x5808(%rip),%eax        # 1d050 <g_92>
   17848:	48 0f be c0          	movsbq %al,%rax
   1784c:	8b 55 fc             	mov    -0x4(%rbp),%edx
   1784f:	48 8d 35 e2 27 00 00 	lea    0x27e2(%rip),%rsi        # 1a038 <g_1850+0xf90>
   17856:	48 89 c7             	mov    %rax,%rdi
   17859:	e8 95 4e ff ff       	callq  c6f3 <transparent_crc>
   1785e:	c7 45 f4 00 00 00 00 	movl   $0x0,-0xc(%rbp)
   17865:	eb 6a                	jmp    178d1 <main+0x2a8>
   17867:	c7 45 f8 00 00 00 00 	movl   $0x0,-0x8(%rbp)
   1786e:	eb 57                	jmp    178c7 <main+0x29e>
   17870:	8b 45 f8             	mov    -0x8(%rbp),%eax
   17873:	48 98                	cltq   
   17875:	8b 55 f4             	mov    -0xc(%rbp),%edx
   17878:	48 63 d2             	movslq %edx,%rdx
   1787b:	48 c1 e2 03          	shl    $0x3,%rdx
   1787f:	48 01 c2             	add    %rax,%rdx
   17882:	48 8d 05 d7 57 00 00 	lea    0x57d7(%rip),%rax        # 1d060 <g_95>
   17889:	48 01 d0             	add    %rdx,%rax
   1788c:	0f b6 00             	movzbl (%rax),%eax
   1788f:	0f b6 c0             	movzbl %al,%eax
   17892:	8b 55 fc             	mov    -0x4(%rbp),%edx
   17895:	48 8d 35 a1 27 00 00 	lea    0x27a1(%rip),%rsi        # 1a03d <g_1850+0xf95>
   1789c:	48 89 c7             	mov    %rax,%rdi
   1789f:	e8 4f 4e ff ff       	callq  c6f3 <transparent_crc>
   178a4:	83 7d fc 00          	cmpl   $0x0,-0x4(%rbp)
   178a8:	74 19                	je     178c3 <main+0x29a>
   178aa:	8b 55 f8             	mov    -0x8(%rbp),%edx
   178ad:	8b 45 f4             	mov    -0xc(%rbp),%eax
   178b0:	89 c6                	mov    %eax,%esi
   178b2:	48 8d 3d 8f 27 00 00 	lea    0x278f(%rip),%rdi        # 1a048 <g_1850+0xfa0>
   178b9:	b8 00 00 00 00       	mov    $0x0,%eax
   178be:	e8 bd 37 ff ff       	callq  b080 <printf@plt>
   178c3:	83 45 f8 01          	addl   $0x1,-0x8(%rbp)
   178c7:	83 7d f8 07          	cmpl   $0x7,-0x8(%rbp)
   178cb:	7e a3                	jle    17870 <main+0x247>
   178cd:	83 45 f4 01          	addl   $0x1,-0xc(%rbp)
   178d1:	83 7d f4 04          	cmpl   $0x4,-0xc(%rbp)
   178d5:	7e 90                	jle    17867 <main+0x23e>
   178d7:	8b 05 ab 57 00 00    	mov    0x57ab(%rip),%eax        # 1d088 <g_106>
   178dd:	48 98                	cltq   
   178df:	8b 55 fc             	mov    -0x4(%rbp),%edx
   178e2:	48 8d 35 71 27 00 00 	lea    0x2771(%rip),%rsi        # 1a05a <g_1850+0xfb2>
   178e9:	48 89 c7             	mov    %rax,%rdi
   178ec:	e8 02 4e ff ff       	callq  c6f3 <transparent_crc>
   178f1:	48 8b 05 98 57 00 00 	mov    0x5798(%rip),%rax        # 1d090 <g_112>
   178f8:	48 89 c1             	mov    %rax,%rcx
   178fb:	8b 45 fc             	mov    -0x4(%rbp),%eax
   178fe:	89 c2                	mov    %eax,%edx
   17900:	48 8d 35 59 27 00 00 	lea    0x2759(%rip),%rsi        # 1a060 <g_1850+0xfb8>
   17907:	48 89 cf             	mov    %rcx,%rdi
   1790a:	e8 e4 4d ff ff       	callq  c6f3 <transparent_crc>
   1790f:	0f b6 05 82 57 00 00 	movzbl 0x5782(%rip),%eax        # 1d098 <g_114>
   17916:	48 0f be c0          	movsbq %al,%rax
   1791a:	8b 55 fc             	mov    -0x4(%rbp),%edx
   1791d:	48 8d 35 42 27 00 00 	lea    0x2742(%rip),%rsi        # 1a066 <g_1850+0xfbe>
   17924:	48 89 c7             	mov    %rax,%rdi
   17927:	e8 c7 4d ff ff       	callq  c6f3 <transparent_crc>
   1792c:	8b 05 6e 57 00 00    	mov    0x576e(%rip),%eax        # 1d0a0 <g_117>
   17932:	89 c1                	mov    %eax,%ecx
   17934:	8b 45 fc             	mov    -0x4(%rbp),%eax
   17937:	89 c2                	mov    %eax,%edx
   17939:	48 8d 35 2c 27 00 00 	lea    0x272c(%rip),%rsi        # 1a06c <g_1850+0xfc4>
   17940:	48 89 cf             	mov    %rcx,%rdi
   17943:	e8 ab 4d ff ff       	callq  c6f3 <transparent_crc>
   17948:	0f b6 05 51 57 00 00 	movzbl 0x5751(%rip),%eax        # 1d0a0 <g_117>
   1794f:	0f b6 c0             	movzbl %al,%eax
   17952:	8b 55 fc             	mov    -0x4(%rbp),%edx
   17955:	48 8d 35 19 27 00 00 	lea    0x2719(%rip),%rsi        # 1a075 <g_1850+0xfcd>
   1795c:	48 89 c7             	mov    %rax,%rdi
   1795f:	e8 8f 4d ff ff       	callq  c6f3 <transparent_crc>
   17964:	0f b7 05 35 57 00 00 	movzwl 0x5735(%rip),%eax        # 1d0a0 <g_117>
   1796b:	0f b7 c0             	movzwl %ax,%eax
   1796e:	8b 55 fc             	mov    -0x4(%rbp),%edx
   17971:	48 8d 35 06 27 00 00 	lea    0x2706(%rip),%rsi        # 1a07e <g_1850+0xfd6>
   17978:	48 89 c7             	mov    %rax,%rdi
   1797b:	e8 73 4d ff ff       	callq  c6f3 <transparent_crc>
   17980:	0f b7 05 19 57 00 00 	movzwl 0x5719(%rip),%eax        # 1d0a0 <g_117>
   17987:	48 0f bf c0          	movswq %ax,%rax
   1798b:	8b 55 fc             	mov    -0x4(%rbp),%edx
   1798e:	48 8d 35 f2 26 00 00 	lea    0x26f2(%rip),%rsi        # 1a087 <g_1850+0xfdf>
   17995:	48 89 c7             	mov    %rax,%rdi
   17998:	e8 56 4d ff ff       	callq  c6f3 <transparent_crc>
   1799d:	8b 05 05 57 00 00    	mov    0x5705(%rip),%eax        # 1d0a8 <g_157>
   179a3:	48 98                	cltq   
   179a5:	8b 55 fc             	mov    -0x4(%rbp),%edx
   179a8:	48 8d 35 e1 26 00 00 	lea    0x26e1(%rip),%rsi        # 1a090 <g_1850+0xfe8>
   179af:	48 89 c7             	mov    %rax,%rdi
   179b2:	e8 3c 4d ff ff       	callq  c6f3 <transparent_crc>
   179b7:	8b 05 f3 56 00 00    	mov    0x56f3(%rip),%eax        # 1d0b0 <g_180>
   179bd:	89 c1                	mov    %eax,%ecx
   179bf:	8b 45 fc             	mov    -0x4(%rbp),%eax
   179c2:	89 c2                	mov    %eax,%edx
   179c4:	48 8d 35 cb 26 00 00 	lea    0x26cb(%rip),%rsi        # 1a096 <g_1850+0xfee>
   179cb:	48 89 cf             	mov    %rcx,%rdi
   179ce:	e8 20 4d ff ff       	callq  c6f3 <transparent_crc>
   179d3:	0f b6 05 d6 56 00 00 	movzbl 0x56d6(%rip),%eax        # 1d0b0 <g_180>
   179da:	0f b6 c0             	movzbl %al,%eax
   179dd:	8b 55 fc             	mov    -0x4(%rbp),%edx
   179e0:	48 8d 35 b8 26 00 00 	lea    0x26b8(%rip),%rsi        # 1a09f <g_1850+0xff7>
   179e7:	48 89 c7             	mov    %rax,%rdi
   179ea:	e8 04 4d ff ff       	callq  c6f3 <transparent_crc>
   179ef:	0f b7 05 ba 56 00 00 	movzwl 0x56ba(%rip),%eax        # 1d0b0 <g_180>
   179f6:	0f b7 c0             	movzwl %ax,%eax
   179f9:	8b 55 fc             	mov    -0x4(%rbp),%edx
   179fc:	48 8d 35 a5 26 00 00 	lea    0x26a5(%rip),%rsi        # 1a0a8 <g_1850+0x1000>
   17a03:	48 89 c7             	mov    %rax,%rdi
   17a06:	e8 e8 4c ff ff       	callq  c6f3 <transparent_crc>
   17a0b:	0f b7 05 9e 56 00 00 	movzwl 0x569e(%rip),%eax        # 1d0b0 <g_180>
   17a12:	48 0f bf c0          	movswq %ax,%rax
   17a16:	8b 55 fc             	mov    -0x4(%rbp),%edx
   17a19:	48 8d 35 91 26 00 00 	lea    0x2691(%rip),%rsi        # 1a0b1 <g_1850+0x1009>
   17a20:	48 89 c7             	mov    %rax,%rdi
   17a23:	e8 cb 4c ff ff       	callq  c6f3 <transparent_crc>
   17a28:	48 8b 05 89 56 00 00 	mov    0x5689(%rip),%rax        # 1d0b8 <g_199>
   17a2f:	8b 55 fc             	mov    -0x4(%rbp),%edx
   17a32:	48 8d 35 81 26 00 00 	lea    0x2681(%rip),%rsi        # 1a0ba <g_1850+0x1012>
   17a39:	48 89 c7             	mov    %rax,%rdi
   17a3c:	e8 b2 4c ff ff       	callq  c6f3 <transparent_crc>
   17a41:	0f b7 05 78 56 00 00 	movzwl 0x5678(%rip),%eax        # 1d0c0 <g_203>
   17a48:	48 0f bf c0          	movswq %ax,%rax
   17a4c:	8b 55 fc             	mov    -0x4(%rbp),%edx
   17a4f:	48 8d 35 6a 26 00 00 	lea    0x266a(%rip),%rsi        # 1a0c0 <g_1850+0x1018>
   17a56:	48 89 c7             	mov    %rax,%rdi
   17a59:	e8 95 4c ff ff       	callq  c6f3 <transparent_crc>
   17a5e:	0f b7 05 63 56 00 00 	movzwl 0x5663(%rip),%eax        # 1d0c8 <g_204>
   17a65:	c1 e0 02             	shl    $0x2,%eax
   17a68:	66 c1 f8 02          	sar    $0x2,%ax
   17a6c:	48 0f bf c0          	movswq %ax,%rax
   17a70:	8b 55 fc             	mov    -0x4(%rbp),%edx
   17a73:	48 8d 35 4c 26 00 00 	lea    0x264c(%rip),%rsi        # 1a0c6 <g_1850+0x101e>
   17a7a:	48 89 c7             	mov    %rax,%rdi
   17a7d:	e8 71 4c ff ff       	callq  c6f3 <transparent_crc>
   17a82:	0f b7 05 41 56 00 00 	movzwl 0x5641(%rip),%eax        # 1d0ca <g_204+0x2>
   17a89:	0f b7 c0             	movzwl %ax,%eax
   17a8c:	8b 55 fc             	mov    -0x4(%rbp),%edx
   17a8f:	48 8d 35 39 26 00 00 	lea    0x2639(%rip),%rsi        # 1a0cf <g_1850+0x1027>
   17a96:	48 89 c7             	mov    %rax,%rdi
   17a99:	e8 55 4c ff ff       	callq  c6f3 <transparent_crc>
   17a9e:	0f b6 05 27 56 00 00 	movzbl 0x5627(%rip),%eax        # 1d0cc <g_204+0x4>
   17aa5:	c1 e0 05             	shl    $0x5,%eax
   17aa8:	c0 f8 05             	sar    $0x5,%al
   17aab:	48 0f be c0          	movsbq %al,%rax
   17aaf:	8b 55 fc             	mov    -0x4(%rbp),%edx
   17ab2:	48 8d 35 1f 26 00 00 	lea    0x261f(%rip),%rsi        # 1a0d8 <g_1850+0x1030>
   17ab9:	48 89 c7             	mov    %rax,%rdi
   17abc:	e8 32 4c ff ff       	callq  c6f3 <transparent_crc>
   17ac1:	8b 05 05 56 00 00    	mov    0x5605(%rip),%eax        # 1d0cc <g_204+0x4>
   17ac7:	c1 e8 03             	shr    $0x3,%eax
   17aca:	25 ff ff ff 01       	and    $0x1ffffff,%eax
   17acf:	89 c1                	mov    %eax,%ecx
   17ad1:	8b 45 fc             	mov    -0x4(%rbp),%eax
   17ad4:	89 c2                	mov    %eax,%edx
   17ad6:	48 8d 35 04 26 00 00 	lea    0x2604(%rip),%rsi        # 1a0e1 <g_1850+0x1039>
   17add:	48 89 cf             	mov    %rcx,%rdi
   17ae0:	e8 0e 4c ff ff       	callq  c6f3 <transparent_crc>
   17ae5:	8b 05 e5 55 00 00    	mov    0x55e5(%rip),%eax        # 1d0d0 <g_204+0x8>
   17aeb:	48 98                	cltq   
   17aed:	8b 55 fc             	mov    -0x4(%rbp),%edx
   17af0:	48 8d 35 f3 25 00 00 	lea    0x25f3(%rip),%rsi        # 1a0ea <g_1850+0x1042>
   17af7:	48 89 c7             	mov    %rax,%rdi
   17afa:	e8 f4 4b ff ff       	callq  c6f3 <transparent_crc>
   17aff:	0f b7 05 ce 55 00 00 	movzwl 0x55ce(%rip),%eax        # 1d0d4 <g_204+0xc>
   17b06:	66 25 ff 07          	and    $0x7ff,%ax
   17b0a:	0f b7 c0             	movzwl %ax,%eax
   17b0d:	8b 55 fc             	mov    -0x4(%rbp),%edx
   17b10:	48 8d 35 dc 25 00 00 	lea    0x25dc(%rip),%rsi        # 1a0f3 <g_1850+0x104b>
   17b17:	48 89 c7             	mov    %rax,%rdi
   17b1a:	e8 d4 4b ff ff       	callq  c6f3 <transparent_crc>
   17b1f:	0f b6 05 af 55 00 00 	movzbl 0x55af(%rip),%eax        # 1d0d5 <g_204+0xd>
   17b26:	01 c0                	add    %eax,%eax
   17b28:	c0 f8 04             	sar    $0x4,%al
   17b2b:	48 0f be c0          	movsbq %al,%rax
   17b2f:	8b 55 fc             	mov    -0x4(%rbp),%edx
   17b32:	48 8d 35 c3 25 00 00 	lea    0x25c3(%rip),%rsi        # 1a0fc <g_1850+0x1054>
   17b39:	48 89 c7             	mov    %rax,%rdi
   17b3c:	e8 b2 4b ff ff       	callq  c6f3 <transparent_crc>
   17b41:	c7 45 f4 00 00 00 00 	movl   $0x0,-0xc(%rbp)
   17b48:	eb 4d                	jmp    17b97 <main+0x56e>
   17b4a:	8b 45 f4             	mov    -0xc(%rbp),%eax
   17b4d:	48 98                	cltq   
   17b4f:	48 8d 14 c5 00 00 00 	lea    0x0(,%rax,8),%rdx
   17b56:	00 
   17b57:	48 8d 05 7a 55 00 00 	lea    0x557a(%rip),%rax        # 1d0d8 <g_220>
   17b5e:	8b 04 02             	mov    (%rdx,%rax,1),%eax
   17b61:	89 c1                	mov    %eax,%ecx
   17b63:	8b 45 fc             	mov    -0x4(%rbp),%eax
   17b66:	89 c2                	mov    %eax,%edx
   17b68:	48 8d 35 96 25 00 00 	lea    0x2596(%rip),%rsi        # 1a105 <g_1850+0x105d>
   17b6f:	48 89 cf             	mov    %rcx,%rdi
   17b72:	e8 7c 4b ff ff       	callq  c6f3 <transparent_crc>
   17b77:	83 7d fc 00          	cmpl   $0x0,-0x4(%rbp)
   17b7b:	74 16                	je     17b93 <main+0x56a>
   17b7d:	8b 45 f4             	mov    -0xc(%rbp),%eax
   17b80:	89 c6                	mov    %eax,%esi
   17b82:	48 8d 3d 52 24 00 00 	lea    0x2452(%rip),%rdi        # 19fdb <g_1850+0xf33>
   17b89:	b8 00 00 00 00       	mov    $0x0,%eax
   17b8e:	e8 ed 34 ff ff       	callq  b080 <printf@plt>
   17b93:	83 45 f4 01          	addl   $0x1,-0xc(%rbp)
   17b97:	83 7d f4 00          	cmpl   $0x0,-0xc(%rbp)
   17b9b:	7e ad                	jle    17b4a <main+0x521>
   17b9d:	48 8b 05 3c 55 00 00 	mov    0x553c(%rip),%rax        # 1d0e0 <g_344>
   17ba4:	8b 55 fc             	mov    -0x4(%rbp),%edx
   17ba7:	48 8d 35 63 25 00 00 	lea    0x2563(%rip),%rsi        # 1a111 <g_1850+0x1069>
   17bae:	48 89 c7             	mov    %rax,%rdi
   17bb1:	e8 3d 4b ff ff       	callq  c6f3 <transparent_crc>
   17bb6:	c7 45 f4 00 00 00 00 	movl   $0x0,-0xc(%rbp)
   17bbd:	eb 4a                	jmp    17c09 <main+0x5e0>
   17bbf:	8b 45 f4             	mov    -0xc(%rbp),%eax
   17bc2:	48 98                	cltq   
   17bc4:	48 8d 14 c5 00 00 00 	lea    0x0(,%rax,8),%rdx
   17bcb:	00 
   17bcc:	48 8d 05 8d 14 00 00 	lea    0x148d(%rip),%rax        # 19060 <g_462>
   17bd3:	48 8b 04 02          	mov    (%rdx,%rax,1),%rax
   17bd7:	8b 55 fc             	mov    -0x4(%rbp),%edx
   17bda:	48 8d 35 36 25 00 00 	lea    0x2536(%rip),%rsi        # 1a117 <g_1850+0x106f>
   17be1:	48 89 c7             	mov    %rax,%rdi
   17be4:	e8 0a 4b ff ff       	callq  c6f3 <transparent_crc>
   17be9:	83 7d fc 00          	cmpl   $0x0,-0x4(%rbp)
   17bed:	74 16                	je     17c05 <main+0x5dc>
   17bef:	8b 45 f4             	mov    -0xc(%rbp),%eax
   17bf2:	89 c6                	mov    %eax,%esi
   17bf4:	48 8d 3d e0 23 00 00 	lea    0x23e0(%rip),%rdi        # 19fdb <g_1850+0xf33>
   17bfb:	b8 00 00 00 00       	mov    $0x0,%eax
   17c00:	e8 7b 34 ff ff       	callq  b080 <printf@plt>
   17c05:	83 45 f4 01          	addl   $0x1,-0xc(%rbp)
   17c09:	83 7d f4 01          	cmpl   $0x1,-0xc(%rbp)
   17c0d:	7e b0                	jle    17bbf <main+0x596>
   17c0f:	8b 05 d3 54 00 00    	mov    0x54d3(%rip),%eax        # 1d0e8 <g_473>
   17c15:	89 c1                	mov    %eax,%ecx
   17c17:	8b 45 fc             	mov    -0x4(%rbp),%eax
   17c1a:	89 c2                	mov    %eax,%edx
   17c1c:	48 8d 35 fd 24 00 00 	lea    0x24fd(%rip),%rsi        # 1a120 <g_1850+0x1078>
   17c23:	48 89 cf             	mov    %rcx,%rdi
   17c26:	e8 c8 4a ff ff       	callq  c6f3 <transparent_crc>
   17c2b:	0f b6 05 b6 54 00 00 	movzbl 0x54b6(%rip),%eax        # 1d0e8 <g_473>
   17c32:	0f b6 c0             	movzbl %al,%eax
   17c35:	8b 55 fc             	mov    -0x4(%rbp),%edx
   17c38:	48 8d 35 ea 24 00 00 	lea    0x24ea(%rip),%rsi        # 1a129 <g_1850+0x1081>
   17c3f:	48 89 c7             	mov    %rax,%rdi
   17c42:	e8 ac 4a ff ff       	callq  c6f3 <transparent_crc>
   17c47:	0f b7 05 9a 54 00 00 	movzwl 0x549a(%rip),%eax        # 1d0e8 <g_473>
   17c4e:	0f b7 c0             	movzwl %ax,%eax
   17c51:	8b 55 fc             	mov    -0x4(%rbp),%edx
   17c54:	48 8d 35 d7 24 00 00 	lea    0x24d7(%rip),%rsi        # 1a132 <g_1850+0x108a>
   17c5b:	48 89 c7             	mov    %rax,%rdi
   17c5e:	e8 90 4a ff ff       	callq  c6f3 <transparent_crc>
   17c63:	0f b7 05 7e 54 00 00 	movzwl 0x547e(%rip),%eax        # 1d0e8 <g_473>
   17c6a:	48 0f bf c0          	movswq %ax,%rax
   17c6e:	8b 55 fc             	mov    -0x4(%rbp),%edx
   17c71:	48 8d 35 c3 24 00 00 	lea    0x24c3(%rip),%rsi        # 1a13b <g_1850+0x1093>
   17c78:	48 89 c7             	mov    %rax,%rdi
   17c7b:	e8 73 4a ff ff       	callq  c6f3 <transparent_crc>
   17c80:	0f b7 05 69 54 00 00 	movzwl 0x5469(%rip),%eax        # 1d0f0 <g_485>
   17c87:	0f b7 c0             	movzwl %ax,%eax
   17c8a:	8b 55 fc             	mov    -0x4(%rbp),%edx
   17c8d:	48 8d 35 b0 24 00 00 	lea    0x24b0(%rip),%rsi        # 1a144 <g_1850+0x109c>
   17c94:	48 89 c7             	mov    %rax,%rdi
   17c97:	e8 57 4a ff ff       	callq  c6f3 <transparent_crc>
   17c9c:	8b 05 52 54 00 00    	mov    0x5452(%rip),%eax        # 1d0f4 <g_558>
   17ca2:	89 c1                	mov    %eax,%ecx
   17ca4:	8b 45 fc             	mov    -0x4(%rbp),%eax
   17ca7:	89 c2                	mov    %eax,%edx
   17ca9:	48 8d 35 9a 24 00 00 	lea    0x249a(%rip),%rsi        # 1a14a <g_1850+0x10a2>
   17cb0:	48 89 cf             	mov    %rcx,%rdi
   17cb3:	e8 3b 4a ff ff       	callq  c6f3 <transparent_crc>
   17cb8:	8b 05 3a 54 00 00    	mov    0x543a(%rip),%eax        # 1d0f8 <g_596>
   17cbe:	89 c1                	mov    %eax,%ecx
   17cc0:	8b 45 fc             	mov    -0x4(%rbp),%eax
   17cc3:	89 c2                	mov    %eax,%edx
   17cc5:	48 8d 35 84 24 00 00 	lea    0x2484(%rip),%rsi        # 1a150 <g_1850+0x10a8>
   17ccc:	48 89 cf             	mov    %rcx,%rdi
   17ccf:	e8 1f 4a ff ff       	callq  c6f3 <transparent_crc>
   17cd4:	8b 05 f6 93 00 00    	mov    0x93f6(%rip),%eax        # 210d0 <g_617>
   17cda:	89 c1                	mov    %eax,%ecx
   17cdc:	8b 45 fc             	mov    -0x4(%rbp),%eax
   17cdf:	89 c2                	mov    %eax,%edx
   17ce1:	48 8d 35 71 24 00 00 	lea    0x2471(%rip),%rsi        # 1a159 <g_1850+0x10b1>
   17ce8:	48 89 cf             	mov    %rcx,%rdi
   17ceb:	e8 03 4a ff ff       	callq  c6f3 <transparent_crc>
   17cf0:	8b 05 12 94 00 00    	mov    0x9412(%rip),%eax        # 21108 <g_659>
   17cf6:	89 c1                	mov    %eax,%ecx
   17cf8:	8b 45 fc             	mov    -0x4(%rbp),%eax
   17cfb:	89 c2                	mov    %eax,%edx
   17cfd:	48 8d 35 5b 24 00 00 	lea    0x245b(%rip),%rsi        # 1a15f <g_1850+0x10b7>
   17d04:	48 89 cf             	mov    %rcx,%rdi
   17d07:	e8 e7 49 ff ff       	callq  c6f3 <transparent_crc>
   17d0c:	0f b6 05 f5 93 00 00 	movzbl 0x93f5(%rip),%eax        # 21108 <g_659>
   17d13:	0f b6 c0             	movzbl %al,%eax
   17d16:	8b 55 fc             	mov    -0x4(%rbp),%edx
   17d19:	48 8d 35 48 24 00 00 	lea    0x2448(%rip),%rsi        # 1a168 <g_1850+0x10c0>
   17d20:	48 89 c7             	mov    %rax,%rdi
   17d23:	e8 cb 49 ff ff       	callq  c6f3 <transparent_crc>
   17d28:	0f b7 05 d9 93 00 00 	movzwl 0x93d9(%rip),%eax        # 21108 <g_659>
   17d2f:	0f b7 c0             	movzwl %ax,%eax
   17d32:	8b 55 fc             	mov    -0x4(%rbp),%edx
   17d35:	48 8d 35 35 24 00 00 	lea    0x2435(%rip),%rsi        # 1a171 <g_1850+0x10c9>
   17d3c:	48 89 c7             	mov    %rax,%rdi
   17d3f:	e8 af 49 ff ff       	callq  c6f3 <transparent_crc>
   17d44:	0f b7 05 bd 93 00 00 	movzwl 0x93bd(%rip),%eax        # 21108 <g_659>
   17d4b:	48 0f bf c0          	movswq %ax,%rax
   17d4f:	8b 55 fc             	mov    -0x4(%rbp),%edx
   17d52:	48 8d 35 21 24 00 00 	lea    0x2421(%rip),%rsi        # 1a17a <g_1850+0x10d2>
   17d59:	48 89 c7             	mov    %rax,%rdi
   17d5c:	e8 92 49 ff ff       	callq  c6f3 <transparent_crc>
   17d61:	8b 05 99 53 00 00    	mov    0x5399(%rip),%eax        # 1d100 <g_686>
   17d67:	89 c1                	mov    %eax,%ecx
   17d69:	8b 45 fc             	mov    -0x4(%rbp),%eax
   17d6c:	89 c2                	mov    %eax,%edx
   17d6e:	48 8d 35 0e 24 00 00 	lea    0x240e(%rip),%rsi        # 1a183 <g_1850+0x10db>
   17d75:	48 89 cf             	mov    %rcx,%rdi
   17d78:	e8 76 49 ff ff       	callq  c6f3 <transparent_crc>
   17d7d:	0f b6 05 7c 53 00 00 	movzbl 0x537c(%rip),%eax        # 1d100 <g_686>
   17d84:	0f b6 c0             	movzbl %al,%eax
   17d87:	8b 55 fc             	mov    -0x4(%rbp),%edx
   17d8a:	48 8d 35 fb 23 00 00 	lea    0x23fb(%rip),%rsi        # 1a18c <g_1850+0x10e4>
   17d91:	48 89 c7             	mov    %rax,%rdi
   17d94:	e8 5a 49 ff ff       	callq  c6f3 <transparent_crc>
   17d99:	0f b7 05 60 53 00 00 	movzwl 0x5360(%rip),%eax        # 1d100 <g_686>
   17da0:	0f b7 c0             	movzwl %ax,%eax
   17da3:	8b 55 fc             	mov    -0x4(%rbp),%edx
   17da6:	48 8d 35 e8 23 00 00 	lea    0x23e8(%rip),%rsi        # 1a195 <g_1850+0x10ed>
   17dad:	48 89 c7             	mov    %rax,%rdi
   17db0:	e8 3e 49 ff ff       	callq  c6f3 <transparent_crc>
   17db5:	0f b7 05 44 53 00 00 	movzwl 0x5344(%rip),%eax        # 1d100 <g_686>
   17dbc:	48 0f bf c0          	movswq %ax,%rax
   17dc0:	8b 55 fc             	mov    -0x4(%rbp),%edx
   17dc3:	48 8d 35 d4 23 00 00 	lea    0x23d4(%rip),%rsi        # 1a19e <g_1850+0x10f6>
   17dca:	48 89 c7             	mov    %rax,%rdi
   17dcd:	e8 21 49 ff ff       	callq  c6f3 <transparent_crc>
   17dd2:	c7 45 f4 00 00 00 00 	movl   $0x0,-0xc(%rbp)
   17dd9:	eb 4d                	jmp    17e28 <main+0x7ff>
   17ddb:	8b 45 f4             	mov    -0xc(%rbp),%eax
   17dde:	48 98                	cltq   
   17de0:	48 8d 14 85 00 00 00 	lea    0x0(,%rax,4),%rdx
   17de7:	00 
   17de8:	48 8d 05 81 12 00 00 	lea    0x1281(%rip),%rax        # 19070 <g_689>
   17def:	8b 04 02             	mov    (%rdx,%rax,1),%eax
   17df2:	89 c1                	mov    %eax,%ecx
   17df4:	8b 45 fc             	mov    -0x4(%rbp),%eax
   17df7:	89 c2                	mov    %eax,%edx
   17df9:	48 8d 35 a7 23 00 00 	lea    0x23a7(%rip),%rsi        # 1a1a7 <g_1850+0x10ff>
   17e00:	48 89 cf             	mov    %rcx,%rdi
   17e03:	e8 eb 48 ff ff       	callq  c6f3 <transparent_crc>
   17e08:	83 7d fc 00          	cmpl   $0x0,-0x4(%rbp)
   17e0c:	74 16                	je     17e24 <main+0x7fb>
   17e0e:	8b 45 f4             	mov    -0xc(%rbp),%eax
   17e11:	89 c6                	mov    %eax,%esi
   17e13:	48 8d 3d c1 21 00 00 	lea    0x21c1(%rip),%rdi        # 19fdb <g_1850+0xf33>
   17e1a:	b8 00 00 00 00       	mov    $0x0,%eax
   17e1f:	e8 5c 32 ff ff       	callq  b080 <printf@plt>
   17e24:	83 45 f4 01          	addl   $0x1,-0xc(%rbp)
   17e28:	83 7d f4 06          	cmpl   $0x6,-0xc(%rbp)
   17e2c:	7e ad                	jle    17ddb <main+0x7b2>
   17e2e:	0f b7 05 d3 52 00 00 	movzwl 0x52d3(%rip),%eax        # 1d108 <g_738>
   17e35:	48 0f bf c0          	movswq %ax,%rax
   17e39:	8b 55 fc             	mov    -0x4(%rbp),%edx
   17e3c:	48 8d 35 6d 23 00 00 	lea    0x236d(%rip),%rsi        # 1a1b0 <g_1850+0x1108>
   17e43:	48 89 c7             	mov    %rax,%rdi
   17e46:	e8 a8 48 ff ff       	callq  c6f3 <transparent_crc>
   17e4b:	8b 05 bf 52 00 00    	mov    0x52bf(%rip),%eax        # 1d110 <g_757>
   17e51:	89 c1                	mov    %eax,%ecx
   17e53:	8b 45 fc             	mov    -0x4(%rbp),%eax
   17e56:	89 c2                	mov    %eax,%edx
   17e58:	48 8d 35 57 23 00 00 	lea    0x2357(%rip),%rsi        # 1a1b6 <g_1850+0x110e>
   17e5f:	48 89 cf             	mov    %rcx,%rdi
   17e62:	e8 8c 48 ff ff       	callq  c6f3 <transparent_crc>
   17e67:	0f b6 05 a2 52 00 00 	movzbl 0x52a2(%rip),%eax        # 1d110 <g_757>
   17e6e:	0f b6 c0             	movzbl %al,%eax
   17e71:	8b 55 fc             	mov    -0x4(%rbp),%edx
   17e74:	48 8d 35 44 23 00 00 	lea    0x2344(%rip),%rsi        # 1a1bf <g_1850+0x1117>
   17e7b:	48 89 c7             	mov    %rax,%rdi
   17e7e:	e8 70 48 ff ff       	callq  c6f3 <transparent_crc>
   17e83:	0f b7 05 86 52 00 00 	movzwl 0x5286(%rip),%eax        # 1d110 <g_757>
   17e8a:	0f b7 c0             	movzwl %ax,%eax
   17e8d:	8b 55 fc             	mov    -0x4(%rbp),%edx
   17e90:	48 8d 35 31 23 00 00 	lea    0x2331(%rip),%rsi        # 1a1c8 <g_1850+0x1120>
   17e97:	48 89 c7             	mov    %rax,%rdi
   17e9a:	e8 54 48 ff ff       	callq  c6f3 <transparent_crc>
   17e9f:	0f b7 05 6a 52 00 00 	movzwl 0x526a(%rip),%eax        # 1d110 <g_757>
   17ea6:	48 0f bf c0          	movswq %ax,%rax
   17eaa:	8b 55 fc             	mov    -0x4(%rbp),%edx
   17ead:	48 8d 35 1d 23 00 00 	lea    0x231d(%rip),%rsi        # 1a1d1 <g_1850+0x1129>
   17eb4:	48 89 c7             	mov    %rax,%rdi
   17eb7:	e8 37 48 ff ff       	callq  c6f3 <transparent_crc>
   17ebc:	0f b7 05 55 52 00 00 	movzwl 0x5255(%rip),%eax        # 1d118 <g_764>
   17ec3:	48 0f bf c0          	movswq %ax,%rax
   17ec7:	8b 55 fc             	mov    -0x4(%rbp),%edx
   17eca:	48 8d 35 09 23 00 00 	lea    0x2309(%rip),%rsi        # 1a1da <g_1850+0x1132>
   17ed1:	48 89 c7             	mov    %rax,%rdi
   17ed4:	e8 1a 48 ff ff       	callq  c6f3 <transparent_crc>
   17ed9:	c7 45 f4 00 00 00 00 	movl   $0x0,-0xc(%rbp)
   17ee0:	e9 d5 00 00 00       	jmpq   17fba <main+0x991>
   17ee5:	8b 45 f4             	mov    -0xc(%rbp),%eax
   17ee8:	48 98                	cltq   
   17eea:	48 8d 14 c5 00 00 00 	lea    0x0(,%rax,8),%rdx
   17ef1:	00 
   17ef2:	48 8d 05 27 52 00 00 	lea    0x5227(%rip),%rax        # 1d120 <g_800>
   17ef9:	8b 04 02             	mov    (%rdx,%rax,1),%eax
   17efc:	89 c1                	mov    %eax,%ecx
   17efe:	8b 45 fc             	mov    -0x4(%rbp),%eax
   17f01:	89 c2                	mov    %eax,%edx
   17f03:	48 8d 35 d6 22 00 00 	lea    0x22d6(%rip),%rsi        # 1a1e0 <g_1850+0x1138>
   17f0a:	48 89 cf             	mov    %rcx,%rdi
   17f0d:	e8 e1 47 ff ff       	callq  c6f3 <transparent_crc>
   17f12:	8b 45 f4             	mov    -0xc(%rbp),%eax
   17f15:	48 98                	cltq   
   17f17:	48 8d 14 c5 00 00 00 	lea    0x0(,%rax,8),%rdx
   17f1e:	00 
   17f1f:	48 8d 05 fa 51 00 00 	lea    0x51fa(%rip),%rax        # 1d120 <g_800>
   17f26:	0f b6 04 02          	movzbl (%rdx,%rax,1),%eax
   17f2a:	0f b6 c0             	movzbl %al,%eax
   17f2d:	8b 55 fc             	mov    -0x4(%rbp),%edx
   17f30:	48 8d 35 b5 22 00 00 	lea    0x22b5(%rip),%rsi        # 1a1ec <g_1850+0x1144>
   17f37:	48 89 c7             	mov    %rax,%rdi
   17f3a:	e8 b4 47 ff ff       	callq  c6f3 <transparent_crc>
   17f3f:	8b 45 f4             	mov    -0xc(%rbp),%eax
   17f42:	48 98                	cltq   
   17f44:	48 8d 14 c5 00 00 00 	lea    0x0(,%rax,8),%rdx
   17f4b:	00 
   17f4c:	48 8d 05 cd 51 00 00 	lea    0x51cd(%rip),%rax        # 1d120 <g_800>
   17f53:	0f b7 04 02          	movzwl (%rdx,%rax,1),%eax
   17f57:	0f b7 c0             	movzwl %ax,%eax
   17f5a:	8b 55 fc             	mov    -0x4(%rbp),%edx
   17f5d:	48 8d 35 94 22 00 00 	lea    0x2294(%rip),%rsi        # 1a1f8 <g_1850+0x1150>
   17f64:	48 89 c7             	mov    %rax,%rdi
   17f67:	e8 87 47 ff ff       	callq  c6f3 <transparent_crc>
   17f6c:	8b 45 f4             	mov    -0xc(%rbp),%eax
   17f6f:	48 98                	cltq   
   17f71:	48 8d 14 c5 00 00 00 	lea    0x0(,%rax,8),%rdx
   17f78:	00 
   17f79:	48 8d 05 a0 51 00 00 	lea    0x51a0(%rip),%rax        # 1d120 <g_800>
   17f80:	0f b7 04 02          	movzwl (%rdx,%rax,1),%eax
   17f84:	48 0f bf c0          	movswq %ax,%rax
   17f88:	8b 55 fc             	mov    -0x4(%rbp),%edx
   17f8b:	48 8d 35 72 22 00 00 	lea    0x2272(%rip),%rsi        # 1a204 <g_1850+0x115c>
   17f92:	48 89 c7             	mov    %rax,%rdi
   17f95:	e8 59 47 ff ff       	callq  c6f3 <transparent_crc>
   17f9a:	83 7d fc 00          	cmpl   $0x0,-0x4(%rbp)
   17f9e:	74 16                	je     17fb6 <main+0x98d>
   17fa0:	8b 45 f4             	mov    -0xc(%rbp),%eax
   17fa3:	89 c6                	mov    %eax,%esi
   17fa5:	48 8d 3d 2f 20 00 00 	lea    0x202f(%rip),%rdi        # 19fdb <g_1850+0xf33>
   17fac:	b8 00 00 00 00       	mov    $0x0,%eax
   17fb1:	e8 ca 30 ff ff       	callq  b080 <printf@plt>
   17fb6:	83 45 f4 01          	addl   $0x1,-0xc(%rbp)
   17fba:	83 7d f4 08          	cmpl   $0x8,-0xc(%rbp)
   17fbe:	0f 8e 21 ff ff ff    	jle    17ee5 <main+0x8bc>
   17fc4:	48 c7 c1 fc ff ff ff 	mov    $0xfffffffffffffffc,%rcx
   17fcb:	8b 45 fc             	mov    -0x4(%rbp),%eax
   17fce:	89 c2                	mov    %eax,%edx
   17fd0:	48 8d 35 39 22 00 00 	lea    0x2239(%rip),%rsi        # 1a210 <g_1850+0x1168>
   17fd7:	48 89 cf             	mov    %rcx,%rdi
   17fda:	e8 14 47 ff ff       	callq  c6f3 <transparent_crc>
   17fdf:	8b 05 2b 91 00 00    	mov    0x912b(%rip),%eax        # 21110 <g_917>
   17fe5:	89 c1                	mov    %eax,%ecx
   17fe7:	8b 45 fc             	mov    -0x4(%rbp),%eax
   17fea:	89 c2                	mov    %eax,%edx
   17fec:	48 8d 35 23 22 00 00 	lea    0x2223(%rip),%rsi        # 1a216 <g_1850+0x116e>
   17ff3:	48 89 cf             	mov    %rcx,%rdi
   17ff6:	e8 f8 46 ff ff       	callq  c6f3 <transparent_crc>
   17ffb:	0f b6 05 0e 91 00 00 	movzbl 0x910e(%rip),%eax        # 21110 <g_917>
   18002:	0f b6 c0             	movzbl %al,%eax
   18005:	8b 55 fc             	mov    -0x4(%rbp),%edx
   18008:	48 8d 35 10 22 00 00 	lea    0x2210(%rip),%rsi        # 1a21f <g_1850+0x1177>
   1800f:	48 89 c7             	mov    %rax,%rdi
   18012:	e8 dc 46 ff ff       	callq  c6f3 <transparent_crc>
   18017:	0f b7 05 f2 90 00 00 	movzwl 0x90f2(%rip),%eax        # 21110 <g_917>
   1801e:	0f b7 c0             	movzwl %ax,%eax
   18021:	8b 55 fc             	mov    -0x4(%rbp),%edx
   18024:	48 8d 35 fd 21 00 00 	lea    0x21fd(%rip),%rsi        # 1a228 <g_1850+0x1180>
   1802b:	48 89 c7             	mov    %rax,%rdi
   1802e:	e8 c0 46 ff ff       	callq  c6f3 <transparent_crc>
   18033:	0f b7 05 d6 90 00 00 	movzwl 0x90d6(%rip),%eax        # 21110 <g_917>
   1803a:	48 0f bf c0          	movswq %ax,%rax
   1803e:	8b 55 fc             	mov    -0x4(%rbp),%edx
   18041:	48 8d 35 e9 21 00 00 	lea    0x21e9(%rip),%rsi        # 1a231 <g_1850+0x1189>
   18048:	48 89 c7             	mov    %rax,%rdi
   1804b:	e8 a3 46 ff ff       	callq  c6f3 <transparent_crc>
   18050:	8b 05 1a 51 00 00    	mov    0x511a(%rip),%eax        # 1d170 <g_1035>
   18056:	48 98                	cltq   
   18058:	8b 55 fc             	mov    -0x4(%rbp),%edx
   1805b:	48 8d 35 d8 21 00 00 	lea    0x21d8(%rip),%rsi        # 1a23a <g_1850+0x1192>
   18062:	48 89 c7             	mov    %rax,%rdi
   18065:	e8 89 46 ff ff       	callq  c6f3 <transparent_crc>
   1806a:	8b 05 08 51 00 00    	mov    0x5108(%rip),%eax        # 1d178 <g_1038>
   18070:	89 c1                	mov    %eax,%ecx
   18072:	8b 45 fc             	mov    -0x4(%rbp),%eax
   18075:	89 c2                	mov    %eax,%edx
   18077:	48 8d 35 c3 21 00 00 	lea    0x21c3(%rip),%rsi        # 1a241 <g_1850+0x1199>
   1807e:	48 89 cf             	mov    %rcx,%rdi
   18081:	e8 6d 46 ff ff       	callq  c6f3 <transparent_crc>
   18086:	0f b6 05 eb 50 00 00 	movzbl 0x50eb(%rip),%eax        # 1d178 <g_1038>
   1808d:	0f b6 c0             	movzbl %al,%eax
   18090:	8b 55 fc             	mov    -0x4(%rbp),%edx
   18093:	48 8d 35 b1 21 00 00 	lea    0x21b1(%rip),%rsi        # 1a24b <g_1850+0x11a3>
   1809a:	48 89 c7             	mov    %rax,%rdi
   1809d:	e8 51 46 ff ff       	callq  c6f3 <transparent_crc>
   180a2:	0f b7 05 cf 50 00 00 	movzwl 0x50cf(%rip),%eax        # 1d178 <g_1038>
   180a9:	0f b7 c0             	movzwl %ax,%eax
   180ac:	8b 55 fc             	mov    -0x4(%rbp),%edx
   180af:	48 8d 35 9f 21 00 00 	lea    0x219f(%rip),%rsi        # 1a255 <g_1850+0x11ad>
   180b6:	48 89 c7             	mov    %rax,%rdi
   180b9:	e8 35 46 ff ff       	callq  c6f3 <transparent_crc>
   180be:	0f b7 05 b3 50 00 00 	movzwl 0x50b3(%rip),%eax        # 1d178 <g_1038>
   180c5:	48 0f bf c0          	movswq %ax,%rax
   180c9:	8b 55 fc             	mov    -0x4(%rbp),%edx
   180cc:	48 8d 35 8c 21 00 00 	lea    0x218c(%rip),%rsi        # 1a25f <g_1850+0x11b7>
   180d3:	48 89 c7             	mov    %rax,%rdi
   180d6:	e8 18 46 ff ff       	callq  c6f3 <transparent_crc>
   180db:	0f b6 05 9e 50 00 00 	movzbl 0x509e(%rip),%eax        # 1d180 <g_1071>
   180e2:	0f b6 c0             	movzbl %al,%eax
   180e5:	8b 55 fc             	mov    -0x4(%rbp),%edx
   180e8:	48 8d 35 7a 21 00 00 	lea    0x217a(%rip),%rsi        # 1a269 <g_1850+0x11c1>
   180ef:	48 89 c7             	mov    %rax,%rdi
   180f2:	e8 fc 45 ff ff       	callq  c6f3 <transparent_crc>
   180f7:	8b 05 87 50 00 00    	mov    0x5087(%rip),%eax        # 1d184 <g_1185>
   180fd:	48 98                	cltq   
   180ff:	8b 55 fc             	mov    -0x4(%rbp),%edx
   18102:	48 8d 35 67 21 00 00 	lea    0x2167(%rip),%rsi        # 1a270 <g_1850+0x11c8>
   18109:	48 89 c7             	mov    %rax,%rdi
   1810c:	e8 e2 45 ff ff       	callq  c6f3 <transparent_crc>
   18111:	8b 05 79 50 00 00    	mov    0x5079(%rip),%eax        # 1d190 <g_1304>
   18117:	89 c1                	mov    %eax,%ecx
   18119:	8b 45 fc             	mov    -0x4(%rbp),%eax
   1811c:	89 c2                	mov    %eax,%edx
   1811e:	48 8d 35 52 21 00 00 	lea    0x2152(%rip),%rsi        # 1a277 <g_1850+0x11cf>
   18125:	48 89 cf             	mov    %rcx,%rdi
   18128:	e8 c6 45 ff ff       	callq  c6f3 <transparent_crc>
   1812d:	0f b6 05 5c 50 00 00 	movzbl 0x505c(%rip),%eax        # 1d190 <g_1304>
   18134:	0f b6 c0             	movzbl %al,%eax
   18137:	8b 55 fc             	mov    -0x4(%rbp),%edx
   1813a:	48 8d 35 40 21 00 00 	lea    0x2140(%rip),%rsi        # 1a281 <g_1850+0x11d9>
   18141:	48 89 c7             	mov    %rax,%rdi
   18144:	e8 aa 45 ff ff       	callq  c6f3 <transparent_crc>
   18149:	0f b7 05 40 50 00 00 	movzwl 0x5040(%rip),%eax        # 1d190 <g_1304>
   18150:	0f b7 c0             	movzwl %ax,%eax
   18153:	8b 55 fc             	mov    -0x4(%rbp),%edx
   18156:	48 8d 35 2e 21 00 00 	lea    0x212e(%rip),%rsi        # 1a28b <g_1850+0x11e3>
   1815d:	48 89 c7             	mov    %rax,%rdi
   18160:	e8 8e 45 ff ff       	callq  c6f3 <transparent_crc>
   18165:	0f b7 05 24 50 00 00 	movzwl 0x5024(%rip),%eax        # 1d190 <g_1304>
   1816c:	48 0f bf c0          	movswq %ax,%rax
   18170:	8b 55 fc             	mov    -0x4(%rbp),%edx
   18173:	48 8d 35 1b 21 00 00 	lea    0x211b(%rip),%rsi        # 1a295 <g_1850+0x11ed>
   1817a:	48 89 c7             	mov    %rax,%rdi
   1817d:	e8 71 45 ff ff       	callq  c6f3 <transparent_crc>
   18182:	8b 05 10 50 00 00    	mov    0x5010(%rip),%eax        # 1d198 <g_1313>
   18188:	89 c1                	mov    %eax,%ecx
   1818a:	8b 45 fc             	mov    -0x4(%rbp),%eax
   1818d:	89 c2                	mov    %eax,%edx
   1818f:	48 8d 35 09 21 00 00 	lea    0x2109(%rip),%rsi        # 1a29f <g_1850+0x11f7>
   18196:	48 89 cf             	mov    %rcx,%rdi
   18199:	e8 55 45 ff ff       	callq  c6f3 <transparent_crc>
   1819e:	0f b6 05 f3 4f 00 00 	movzbl 0x4ff3(%rip),%eax        # 1d198 <g_1313>
   181a5:	0f b6 c0             	movzbl %al,%eax
   181a8:	8b 55 fc             	mov    -0x4(%rbp),%edx
   181ab:	48 8d 35 f7 20 00 00 	lea    0x20f7(%rip),%rsi        # 1a2a9 <g_1850+0x1201>
   181b2:	48 89 c7             	mov    %rax,%rdi
   181b5:	e8 39 45 ff ff       	callq  c6f3 <transparent_crc>
   181ba:	0f b7 05 d7 4f 00 00 	movzwl 0x4fd7(%rip),%eax        # 1d198 <g_1313>
   181c1:	0f b7 c0             	movzwl %ax,%eax
   181c4:	8b 55 fc             	mov    -0x4(%rbp),%edx
   181c7:	48 8d 35 e5 20 00 00 	lea    0x20e5(%rip),%rsi        # 1a2b3 <g_1850+0x120b>
   181ce:	48 89 c7             	mov    %rax,%rdi
   181d1:	e8 1d 45 ff ff       	callq  c6f3 <transparent_crc>
   181d6:	0f b7 05 bb 4f 00 00 	movzwl 0x4fbb(%rip),%eax        # 1d198 <g_1313>
   181dd:	48 0f bf c0          	movswq %ax,%rax
   181e1:	8b 55 fc             	mov    -0x4(%rbp),%edx
   181e4:	48 8d 35 d2 20 00 00 	lea    0x20d2(%rip),%rsi        # 1a2bd <g_1850+0x1215>
   181eb:	48 89 c7             	mov    %rax,%rdi
   181ee:	e8 00 45 ff ff       	callq  c6f3 <transparent_crc>
   181f3:	0f b7 05 a6 4f 00 00 	movzwl 0x4fa6(%rip),%eax        # 1d1a0 <g_1320>
   181fa:	48 0f bf c0          	movswq %ax,%rax
   181fe:	8b 55 fc             	mov    -0x4(%rbp),%edx
   18201:	48 8d 35 bf 20 00 00 	lea    0x20bf(%rip),%rsi        # 1a2c7 <g_1850+0x121f>
   18208:	48 89 c7             	mov    %rax,%rdi
   1820b:	e8 e3 44 ff ff       	callq  c6f3 <transparent_crc>
   18210:	8b 05 92 4f 00 00    	mov    0x4f92(%rip),%eax        # 1d1a8 <g_1379>
   18216:	89 c1                	mov    %eax,%ecx
   18218:	8b 45 fc             	mov    -0x4(%rbp),%eax
   1821b:	89 c2                	mov    %eax,%edx
   1821d:	48 8d 35 aa 20 00 00 	lea    0x20aa(%rip),%rsi        # 1a2ce <g_1850+0x1226>
   18224:	48 89 cf             	mov    %rcx,%rdi
   18227:	e8 c7 44 ff ff       	callq  c6f3 <transparent_crc>
   1822c:	0f b6 05 75 4f 00 00 	movzbl 0x4f75(%rip),%eax        # 1d1a8 <g_1379>
   18233:	0f b6 c0             	movzbl %al,%eax
   18236:	8b 55 fc             	mov    -0x4(%rbp),%edx
   18239:	48 8d 35 98 20 00 00 	lea    0x2098(%rip),%rsi        # 1a2d8 <g_1850+0x1230>
   18240:	48 89 c7             	mov    %rax,%rdi
   18243:	e8 ab 44 ff ff       	callq  c6f3 <transparent_crc>
   18248:	0f b7 05 59 4f 00 00 	movzwl 0x4f59(%rip),%eax        # 1d1a8 <g_1379>
   1824f:	0f b7 c0             	movzwl %ax,%eax
   18252:	8b 55 fc             	mov    -0x4(%rbp),%edx
   18255:	48 8d 35 86 20 00 00 	lea    0x2086(%rip),%rsi        # 1a2e2 <g_1850+0x123a>
   1825c:	48 89 c7             	mov    %rax,%rdi
   1825f:	e8 8f 44 ff ff       	callq  c6f3 <transparent_crc>
   18264:	0f b7 05 3d 4f 00 00 	movzwl 0x4f3d(%rip),%eax        # 1d1a8 <g_1379>
   1826b:	48 0f bf c0          	movswq %ax,%rax
   1826f:	8b 55 fc             	mov    -0x4(%rbp),%edx
   18272:	48 8d 35 73 20 00 00 	lea    0x2073(%rip),%rsi        # 1a2ec <g_1850+0x1244>
   18279:	48 89 c7             	mov    %rax,%rdi
   1827c:	e8 72 44 ff ff       	callq  c6f3 <transparent_crc>
   18281:	8b 05 a9 8e 00 00    	mov    0x8ea9(%rip),%eax        # 21130 <g_1415>
   18287:	89 c1                	mov    %eax,%ecx
   18289:	8b 45 fc             	mov    -0x4(%rbp),%eax
   1828c:	89 c2                	mov    %eax,%edx
   1828e:	48 8d 35 61 20 00 00 	lea    0x2061(%rip),%rsi        # 1a2f6 <g_1850+0x124e>
   18295:	48 89 cf             	mov    %rcx,%rdi
   18298:	e8 56 44 ff ff       	callq  c6f3 <transparent_crc>
   1829d:	0f b6 05 8c 8e 00 00 	movzbl 0x8e8c(%rip),%eax        # 21130 <g_1415>
   182a4:	0f b6 c0             	movzbl %al,%eax
   182a7:	8b 55 fc             	mov    -0x4(%rbp),%edx
   182aa:	48 8d 35 4f 20 00 00 	lea    0x204f(%rip),%rsi        # 1a300 <g_1850+0x1258>
   182b1:	48 89 c7             	mov    %rax,%rdi
   182b4:	e8 3a 44 ff ff       	callq  c6f3 <transparent_crc>
   182b9:	0f b7 05 70 8e 00 00 	movzwl 0x8e70(%rip),%eax        # 21130 <g_1415>
   182c0:	0f b7 c0             	movzwl %ax,%eax
   182c3:	8b 55 fc             	mov    -0x4(%rbp),%edx
   182c6:	48 8d 35 3d 20 00 00 	lea    0x203d(%rip),%rsi        # 1a30a <g_1850+0x1262>
   182cd:	48 89 c7             	mov    %rax,%rdi
   182d0:	e8 1e 44 ff ff       	callq  c6f3 <transparent_crc>
   182d5:	0f b7 05 54 8e 00 00 	movzwl 0x8e54(%rip),%eax        # 21130 <g_1415>
   182dc:	48 0f bf c0          	movswq %ax,%rax
   182e0:	8b 55 fc             	mov    -0x4(%rbp),%edx
   182e3:	48 8d 35 2a 20 00 00 	lea    0x202a(%rip),%rsi        # 1a314 <g_1850+0x126c>
   182ea:	48 89 c7             	mov    %rax,%rdi
   182ed:	e8 01 44 ff ff       	callq  c6f3 <transparent_crc>
   182f2:	8b 05 b8 4e 00 00    	mov    0x4eb8(%rip),%eax        # 1d1b0 <g_1528>
   182f8:	89 c1                	mov    %eax,%ecx
   182fa:	8b 45 fc             	mov    -0x4(%rbp),%eax
   182fd:	89 c2                	mov    %eax,%edx
   182ff:	48 8d 35 18 20 00 00 	lea    0x2018(%rip),%rsi        # 1a31e <g_1850+0x1276>
   18306:	48 89 cf             	mov    %rcx,%rdi
   18309:	e8 e5 43 ff ff       	callq  c6f3 <transparent_crc>
   1830e:	0f b6 05 9b 4e 00 00 	movzbl 0x4e9b(%rip),%eax        # 1d1b0 <g_1528>
   18315:	0f b6 c0             	movzbl %al,%eax
   18318:	8b 55 fc             	mov    -0x4(%rbp),%edx
   1831b:	48 8d 35 06 20 00 00 	lea    0x2006(%rip),%rsi        # 1a328 <g_1850+0x1280>
   18322:	48 89 c7             	mov    %rax,%rdi
   18325:	e8 c9 43 ff ff       	callq  c6f3 <transparent_crc>
   1832a:	0f b7 05 7f 4e 00 00 	movzwl 0x4e7f(%rip),%eax        # 1d1b0 <g_1528>
   18331:	0f b7 c0             	movzwl %ax,%eax
   18334:	8b 55 fc             	mov    -0x4(%rbp),%edx
   18337:	48 8d 35 f4 1f 00 00 	lea    0x1ff4(%rip),%rsi        # 1a332 <g_1850+0x128a>
   1833e:	48 89 c7             	mov    %rax,%rdi
   18341:	e8 ad 43 ff ff       	callq  c6f3 <transparent_crc>
   18346:	0f b7 05 63 4e 00 00 	movzwl 0x4e63(%rip),%eax        # 1d1b0 <g_1528>
   1834d:	48 0f bf c0          	movswq %ax,%rax
   18351:	8b 55 fc             	mov    -0x4(%rbp),%edx
   18354:	48 8d 35 e1 1f 00 00 	lea    0x1fe1(%rip),%rsi        # 1a33c <g_1850+0x1294>
   1835b:	48 89 c7             	mov    %rax,%rdi
   1835e:	e8 90 43 ff ff       	callq  c6f3 <transparent_crc>
   18363:	8b 05 4f 4e 00 00    	mov    0x4e4f(%rip),%eax        # 1d1b8 <g_1565>
   18369:	89 c1                	mov    %eax,%ecx
   1836b:	8b 45 fc             	mov    -0x4(%rbp),%eax
   1836e:	89 c2                	mov    %eax,%edx
   18370:	48 8d 35 cf 1f 00 00 	lea    0x1fcf(%rip),%rsi        # 1a346 <g_1850+0x129e>
   18377:	48 89 cf             	mov    %rcx,%rdi
   1837a:	e8 74 43 ff ff       	callq  c6f3 <transparent_crc>
   1837f:	0f b6 05 32 4e 00 00 	movzbl 0x4e32(%rip),%eax        # 1d1b8 <g_1565>
   18386:	0f b6 c0             	movzbl %al,%eax
   18389:	8b 55 fc             	mov    -0x4(%rbp),%edx
   1838c:	48 8d 35 bd 1f 00 00 	lea    0x1fbd(%rip),%rsi        # 1a350 <g_1850+0x12a8>
   18393:	48 89 c7             	mov    %rax,%rdi
   18396:	e8 58 43 ff ff       	callq  c6f3 <transparent_crc>
   1839b:	0f b7 05 16 4e 00 00 	movzwl 0x4e16(%rip),%eax        # 1d1b8 <g_1565>
   183a2:	0f b7 c0             	movzwl %ax,%eax
   183a5:	8b 55 fc             	mov    -0x4(%rbp),%edx
   183a8:	48 8d 35 ab 1f 00 00 	lea    0x1fab(%rip),%rsi        # 1a35a <g_1850+0x12b2>
   183af:	48 89 c7             	mov    %rax,%rdi
   183b2:	e8 3c 43 ff ff       	callq  c6f3 <transparent_crc>
   183b7:	0f b7 05 fa 4d 00 00 	movzwl 0x4dfa(%rip),%eax        # 1d1b8 <g_1565>
   183be:	48 0f bf c0          	movswq %ax,%rax
   183c2:	8b 55 fc             	mov    -0x4(%rbp),%edx
   183c5:	48 8d 35 98 1f 00 00 	lea    0x1f98(%rip),%rsi        # 1a364 <g_1850+0x12bc>
   183cc:	48 89 c7             	mov    %rax,%rdi
   183cf:	e8 1f 43 ff ff       	callq  c6f3 <transparent_crc>
   183d4:	48 8b 05 e5 4d 00 00 	mov    0x4de5(%rip),%rax        # 1d1c0 <g_1621>
   183db:	48 89 c1             	mov    %rax,%rcx
   183de:	8b 45 fc             	mov    -0x4(%rbp),%eax
   183e1:	89 c2                	mov    %eax,%edx
   183e3:	48 8d 35 84 1f 00 00 	lea    0x1f84(%rip),%rsi        # 1a36e <g_1850+0x12c6>
   183ea:	48 89 cf             	mov    %rcx,%rdi
   183ed:	e8 01 43 ff ff       	callq  c6f3 <transparent_crc>
   183f2:	8b 05 d0 4d 00 00    	mov    0x4dd0(%rip),%eax        # 1d1c8 <g_1747>
   183f8:	89 c1                	mov    %eax,%ecx
   183fa:	8b 45 fc             	mov    -0x4(%rbp),%eax
   183fd:	89 c2                	mov    %eax,%edx
   183ff:	48 8d 35 6f 1f 00 00 	lea    0x1f6f(%rip),%rsi        # 1a375 <g_1850+0x12cd>
   18406:	48 89 cf             	mov    %rcx,%rdi
   18409:	e8 e5 42 ff ff       	callq  c6f3 <transparent_crc>
   1840e:	0f b6 05 b3 4d 00 00 	movzbl 0x4db3(%rip),%eax        # 1d1c8 <g_1747>
   18415:	0f b6 c0             	movzbl %al,%eax
   18418:	8b 55 fc             	mov    -0x4(%rbp),%edx
   1841b:	48 8d 35 5d 1f 00 00 	lea    0x1f5d(%rip),%rsi        # 1a37f <g_1850+0x12d7>
   18422:	48 89 c7             	mov    %rax,%rdi
   18425:	e8 c9 42 ff ff       	callq  c6f3 <transparent_crc>
   1842a:	0f b7 05 97 4d 00 00 	movzwl 0x4d97(%rip),%eax        # 1d1c8 <g_1747>
   18431:	0f b7 c0             	movzwl %ax,%eax
   18434:	8b 55 fc             	mov    -0x4(%rbp),%edx
   18437:	48 8d 35 4b 1f 00 00 	lea    0x1f4b(%rip),%rsi        # 1a389 <g_1850+0x12e1>
   1843e:	48 89 c7             	mov    %rax,%rdi
   18441:	e8 ad 42 ff ff       	callq  c6f3 <transparent_crc>
   18446:	0f b7 05 7b 4d 00 00 	movzwl 0x4d7b(%rip),%eax        # 1d1c8 <g_1747>
   1844d:	48 0f bf c0          	movswq %ax,%rax
   18451:	8b 55 fc             	mov    -0x4(%rbp),%edx
   18454:	48 8d 35 38 1f 00 00 	lea    0x1f38(%rip),%rsi        # 1a393 <g_1850+0x12eb>
   1845b:	48 89 c7             	mov    %rax,%rdi
   1845e:	e8 90 42 ff ff       	callq  c6f3 <transparent_crc>
   18463:	b8 61 0d b4 2f       	mov    $0x2fb40d61,%eax
   18468:	89 c1                	mov    %eax,%ecx
   1846a:	8b 45 fc             	mov    -0x4(%rbp),%eax
   1846d:	89 c2                	mov    %eax,%edx
   1846f:	48 8d 35 27 1f 00 00 	lea    0x1f27(%rip),%rsi        # 1a39d <g_1850+0x12f5>
   18476:	48 89 cf             	mov    %rcx,%rdi
   18479:	e8 75 42 ff ff       	callq  c6f3 <transparent_crc>
   1847e:	b8 61 00 00 00       	mov    $0x61,%eax
   18483:	0f b6 c0             	movzbl %al,%eax
   18486:	8b 55 fc             	mov    -0x4(%rbp),%edx
   18489:	48 8d 35 17 1f 00 00 	lea    0x1f17(%rip),%rsi        # 1a3a7 <g_1850+0x12ff>
   18490:	48 89 c7             	mov    %rax,%rdi
   18493:	e8 5b 42 ff ff       	callq  c6f3 <transparent_crc>
   18498:	b8 61 0d 00 00       	mov    $0xd61,%eax
   1849d:	0f b7 c0             	movzwl %ax,%eax
   184a0:	8b 55 fc             	mov    -0x4(%rbp),%edx
   184a3:	48 8d 35 07 1f 00 00 	lea    0x1f07(%rip),%rsi        # 1a3b1 <g_1850+0x1309>
   184aa:	48 89 c7             	mov    %rax,%rdi
   184ad:	e8 41 42 ff ff       	callq  c6f3 <transparent_crc>
   184b2:	0f b7 05 df 0b 00 00 	movzwl 0xbdf(%rip),%eax        # 19098 <g_1754>
   184b9:	48 0f bf c0          	movswq %ax,%rax
   184bd:	8b 55 fc             	mov    -0x4(%rbp),%edx
   184c0:	48 8d 35 f4 1e 00 00 	lea    0x1ef4(%rip),%rsi        # 1a3bb <g_1850+0x1313>
   184c7:	48 89 c7             	mov    %rax,%rdi
   184ca:	e8 24 42 ff ff       	callq  c6f3 <transparent_crc>
   184cf:	0f b7 05 fa 4c 00 00 	movzwl 0x4cfa(%rip),%eax        # 1d1d0 <g_1757>
   184d6:	c1 e0 02             	shl    $0x2,%eax
   184d9:	66 c1 f8 02          	sar    $0x2,%ax
   184dd:	48 0f bf c0          	movswq %ax,%rax
   184e1:	8b 55 fc             	mov    -0x4(%rbp),%edx
   184e4:	48 8d 35 da 1e 00 00 	lea    0x1eda(%rip),%rsi        # 1a3c5 <g_1850+0x131d>
   184eb:	48 89 c7             	mov    %rax,%rdi
   184ee:	e8 00 42 ff ff       	callq  c6f3 <transparent_crc>
   184f3:	0f b7 05 d8 4c 00 00 	movzwl 0x4cd8(%rip),%eax        # 1d1d2 <g_1757+0x2>
   184fa:	0f b7 c0             	movzwl %ax,%eax
   184fd:	8b 55 fc             	mov    -0x4(%rbp),%edx
   18500:	48 8d 35 c8 1e 00 00 	lea    0x1ec8(%rip),%rsi        # 1a3cf <g_1850+0x1327>
   18507:	48 89 c7             	mov    %rax,%rdi
   1850a:	e8 e4 41 ff ff       	callq  c6f3 <transparent_crc>
   1850f:	0f b6 05 be 4c 00 00 	movzbl 0x4cbe(%rip),%eax        # 1d1d4 <g_1757+0x4>
   18516:	c1 e0 05             	shl    $0x5,%eax
   18519:	c0 f8 05             	sar    $0x5,%al
   1851c:	48 0f be c0          	movsbq %al,%rax
   18520:	8b 55 fc             	mov    -0x4(%rbp),%edx
   18523:	48 8d 35 af 1e 00 00 	lea    0x1eaf(%rip),%rsi        # 1a3d9 <g_1850+0x1331>
   1852a:	48 89 c7             	mov    %rax,%rdi
   1852d:	e8 c1 41 ff ff       	callq  c6f3 <transparent_crc>
   18532:	8b 05 9c 4c 00 00    	mov    0x4c9c(%rip),%eax        # 1d1d4 <g_1757+0x4>
   18538:	c1 e8 03             	shr    $0x3,%eax
   1853b:	25 ff ff ff 01       	and    $0x1ffffff,%eax
   18540:	89 c1                	mov    %eax,%ecx
   18542:	8b 45 fc             	mov    -0x4(%rbp),%eax
   18545:	89 c2                	mov    %eax,%edx
   18547:	48 8d 35 95 1e 00 00 	lea    0x1e95(%rip),%rsi        # 1a3e3 <g_1850+0x133b>
   1854e:	48 89 cf             	mov    %rcx,%rdi
   18551:	e8 9d 41 ff ff       	callq  c6f3 <transparent_crc>
   18556:	8b 05 7c 4c 00 00    	mov    0x4c7c(%rip),%eax        # 1d1d8 <g_1757+0x8>
   1855c:	48 98                	cltq   
   1855e:	8b 55 fc             	mov    -0x4(%rbp),%edx
   18561:	48 8d 35 85 1e 00 00 	lea    0x1e85(%rip),%rsi        # 1a3ed <g_1850+0x1345>
   18568:	48 89 c7             	mov    %rax,%rdi
   1856b:	e8 83 41 ff ff       	callq  c6f3 <transparent_crc>
   18570:	0f b7 05 65 4c 00 00 	movzwl 0x4c65(%rip),%eax        # 1d1dc <g_1757+0xc>
   18577:	66 25 ff 07          	and    $0x7ff,%ax
   1857b:	0f b7 c0             	movzwl %ax,%eax
   1857e:	8b 55 fc             	mov    -0x4(%rbp),%edx
   18581:	48 8d 35 6f 1e 00 00 	lea    0x1e6f(%rip),%rsi        # 1a3f7 <g_1850+0x134f>
   18588:	48 89 c7             	mov    %rax,%rdi
   1858b:	e8 63 41 ff ff       	callq  c6f3 <transparent_crc>
   18590:	0f b6 05 46 4c 00 00 	movzbl 0x4c46(%rip),%eax        # 1d1dd <g_1757+0xd>
   18597:	01 c0                	add    %eax,%eax
   18599:	c0 f8 04             	sar    $0x4,%al
   1859c:	48 0f be c0          	movsbq %al,%rax
   185a0:	8b 55 fc             	mov    -0x4(%rbp),%edx
   185a3:	48 8d 35 57 1e 00 00 	lea    0x1e57(%rip),%rsi        # 1a401 <g_1850+0x1359>
   185aa:	48 89 c7             	mov    %rax,%rdi
   185ad:	e8 41 41 ff ff       	callq  c6f3 <transparent_crc>
   185b2:	b8 76 e9 da 3b       	mov    $0x3bdae976,%eax
   185b7:	89 c1                	mov    %eax,%ecx
   185b9:	8b 45 fc             	mov    -0x4(%rbp),%eax
   185bc:	89 c2                	mov    %eax,%edx
   185be:	48 8d 35 46 1e 00 00 	lea    0x1e46(%rip),%rsi        # 1a40b <g_1850+0x1363>
   185c5:	48 89 cf             	mov    %rcx,%rdi
   185c8:	e8 26 41 ff ff       	callq  c6f3 <transparent_crc>
   185cd:	b8 76 00 00 00       	mov    $0x76,%eax
   185d2:	0f b6 c0             	movzbl %al,%eax
   185d5:	8b 55 fc             	mov    -0x4(%rbp),%edx
   185d8:	48 8d 35 36 1e 00 00 	lea    0x1e36(%rip),%rsi        # 1a415 <g_1850+0x136d>
   185df:	48 89 c7             	mov    %rax,%rdi
   185e2:	e8 0c 41 ff ff       	callq  c6f3 <transparent_crc>
   185e7:	b8 76 e9 ff ff       	mov    $0xffffe976,%eax
   185ec:	0f b7 c0             	movzwl %ax,%eax
   185ef:	8b 55 fc             	mov    -0x4(%rbp),%edx
   185f2:	48 8d 35 26 1e 00 00 	lea    0x1e26(%rip),%rsi        # 1a41f <g_1850+0x1377>
   185f9:	48 89 c7             	mov    %rax,%rdi
   185fc:	e8 f2 40 ff ff       	callq  c6f3 <transparent_crc>
   18601:	0f b7 05 98 0a 00 00 	movzwl 0xa98(%rip),%eax        # 190a0 <g_1781>
   18608:	48 0f bf c0          	movswq %ax,%rax
   1860c:	8b 55 fc             	mov    -0x4(%rbp),%edx
   1860f:	48 8d 35 13 1e 00 00 	lea    0x1e13(%rip),%rsi        # 1a429 <g_1850+0x1381>
   18616:	48 89 c7             	mov    %rax,%rdi
   18619:	e8 d5 40 ff ff       	callq  c6f3 <transparent_crc>
   1861e:	b8 13 00 00 00       	mov    $0x13,%eax
   18623:	48 0f bf c0          	movswq %ax,%rax
   18627:	8b 55 fc             	mov    -0x4(%rbp),%edx
   1862a:	48 8d 35 02 1e 00 00 	lea    0x1e02(%rip),%rsi        # 1a433 <g_1850+0x138b>
   18631:	48 89 c7             	mov    %rax,%rdi
   18634:	e8 ba 40 ff ff       	callq  c6f3 <transparent_crc>
   18639:	b8 2f 8a ff ff       	mov    $0xffff8a2f,%eax
   1863e:	0f b7 c0             	movzwl %ax,%eax
   18641:	8b 55 fc             	mov    -0x4(%rbp),%edx
   18644:	48 8d 35 f2 1d 00 00 	lea    0x1df2(%rip),%rsi        # 1a43d <g_1850+0x1395>
   1864b:	48 89 c7             	mov    %rax,%rdi
   1864e:	e8 a0 40 ff ff       	callq  c6f3 <transparent_crc>
   18653:	b8 00 00 00 00       	mov    $0x0,%eax
   18658:	48 0f be c0          	movsbq %al,%rax
   1865c:	8b 55 fc             	mov    -0x4(%rbp),%edx
   1865f:	48 8d 35 e1 1d 00 00 	lea    0x1de1(%rip),%rsi        # 1a447 <g_1850+0x139f>
   18666:	48 89 c7             	mov    %rax,%rdi
   18669:	e8 85 40 ff ff       	callq  c6f3 <transparent_crc>
   1866e:	b8 f8 05 00 00       	mov    $0x5f8,%eax
   18673:	89 c1                	mov    %eax,%ecx
   18675:	8b 45 fc             	mov    -0x4(%rbp),%eax
   18678:	89 c2                	mov    %eax,%edx
   1867a:	48 8d 35 d0 1d 00 00 	lea    0x1dd0(%rip),%rsi        # 1a451 <g_1850+0x13a9>
   18681:	48 89 cf             	mov    %rcx,%rdi
   18684:	e8 6a 40 ff ff       	callq  c6f3 <transparent_crc>
   18689:	b8 02 00 00 00       	mov    $0x2,%eax
   1868e:	48 98                	cltq   
   18690:	8b 55 fc             	mov    -0x4(%rbp),%edx
   18693:	48 8d 35 c1 1d 00 00 	lea    0x1dc1(%rip),%rsi        # 1a45b <g_1850+0x13b3>
   1869a:	48 89 c7             	mov    %rax,%rdi
   1869d:	e8 51 40 ff ff       	callq  c6f3 <transparent_crc>
   186a2:	b8 11 00 00 00       	mov    $0x11,%eax
   186a7:	0f b7 c0             	movzwl %ax,%eax
   186aa:	8b 55 fc             	mov    -0x4(%rbp),%edx
   186ad:	48 8d 35 b1 1d 00 00 	lea    0x1db1(%rip),%rsi        # 1a465 <g_1850+0x13bd>
   186b4:	48 89 c7             	mov    %rax,%rdi
   186b7:	e8 37 40 ff ff       	callq  c6f3 <transparent_crc>
   186bc:	b8 02 00 00 00       	mov    $0x2,%eax
   186c1:	48 0f be c0          	movsbq %al,%rax
   186c5:	8b 55 fc             	mov    -0x4(%rbp),%edx
   186c8:	48 8d 35 a0 1d 00 00 	lea    0x1da0(%rip),%rsi        # 1a46f <g_1850+0x13c7>
   186cf:	48 89 c7             	mov    %rax,%rdi
   186d2:	e8 1c 40 ff ff       	callq  c6f3 <transparent_crc>
   186d7:	8b 05 03 4b 00 00    	mov    0x4b03(%rip),%eax        # 1d1e0 <g_1862>
   186dd:	48 98                	cltq   
   186df:	8b 55 fc             	mov    -0x4(%rbp),%edx
   186e2:	48 8d 35 90 1d 00 00 	lea    0x1d90(%rip),%rsi        # 1a479 <g_1850+0x13d1>
   186e9:	48 89 c7             	mov    %rax,%rdi
   186ec:	e8 02 40 ff ff       	callq  c6f3 <transparent_crc>
   186f1:	c7 45 f4 00 00 00 00 	movl   $0x0,-0xc(%rbp)
   186f8:	e9 d5 00 00 00       	jmpq   187d2 <main+0x11a9>
   186fd:	8b 45 f4             	mov    -0xc(%rbp),%eax
   18700:	48 98                	cltq   
   18702:	48 8d 14 c5 00 00 00 	lea    0x0(,%rax,8),%rdx
   18709:	00 
   1870a:	48 8d 05 df 4a 00 00 	lea    0x4adf(%rip),%rax        # 1d1f0 <g_1879>
   18711:	8b 04 02             	mov    (%rdx,%rax,1),%eax
   18714:	89 c1                	mov    %eax,%ecx
   18716:	8b 45 fc             	mov    -0x4(%rbp),%eax
   18719:	89 c2                	mov    %eax,%edx
   1871b:	48 8d 35 5e 1d 00 00 	lea    0x1d5e(%rip),%rsi        # 1a480 <g_1850+0x13d8>
   18722:	48 89 cf             	mov    %rcx,%rdi
   18725:	e8 c9 3f ff ff       	callq  c6f3 <transparent_crc>
   1872a:	8b 45 f4             	mov    -0xc(%rbp),%eax
   1872d:	48 98                	cltq   
   1872f:	48 8d 14 c5 00 00 00 	lea    0x0(,%rax,8),%rdx
   18736:	00 
   18737:	48 8d 05 b2 4a 00 00 	lea    0x4ab2(%rip),%rax        # 1d1f0 <g_1879>
   1873e:	0f b6 04 02          	movzbl (%rdx,%rax,1),%eax
   18742:	0f b6 c0             	movzbl %al,%eax
   18745:	8b 55 fc             	mov    -0x4(%rbp),%edx
   18748:	48 8d 35 3e 1d 00 00 	lea    0x1d3e(%rip),%rsi        # 1a48d <g_1850+0x13e5>
   1874f:	48 89 c7             	mov    %rax,%rdi
   18752:	e8 9c 3f ff ff       	callq  c6f3 <transparent_crc>
   18757:	8b 45 f4             	mov    -0xc(%rbp),%eax
   1875a:	48 98                	cltq   
   1875c:	48 8d 14 c5 00 00 00 	lea    0x0(,%rax,8),%rdx
   18763:	00 
   18764:	48 8d 05 85 4a 00 00 	lea    0x4a85(%rip),%rax        # 1d1f0 <g_1879>
   1876b:	0f b7 04 02          	movzwl (%rdx,%rax,1),%eax
   1876f:	0f b7 c0             	movzwl %ax,%eax
   18772:	8b 55 fc             	mov    -0x4(%rbp),%edx
   18775:	48 8d 35 1e 1d 00 00 	lea    0x1d1e(%rip),%rsi        # 1a49a <g_1850+0x13f2>
   1877c:	48 89 c7             	mov    %rax,%rdi
   1877f:	e8 6f 3f ff ff       	callq  c6f3 <transparent_crc>
   18784:	8b 45 f4             	mov    -0xc(%rbp),%eax
   18787:	48 98                	cltq   
   18789:	48 8d 14 c5 00 00 00 	lea    0x0(,%rax,8),%rdx
   18790:	00 
   18791:	48 8d 05 58 4a 00 00 	lea    0x4a58(%rip),%rax        # 1d1f0 <g_1879>
   18798:	0f b7 04 02          	movzwl (%rdx,%rax,1),%eax
   1879c:	48 0f bf c0          	movswq %ax,%rax
   187a0:	8b 55 fc             	mov    -0x4(%rbp),%edx
   187a3:	48 8d 35 fd 1c 00 00 	lea    0x1cfd(%rip),%rsi        # 1a4a7 <g_1850+0x13ff>
   187aa:	48 89 c7             	mov    %rax,%rdi
   187ad:	e8 41 3f ff ff       	callq  c6f3 <transparent_crc>
   187b2:	83 7d fc 00          	cmpl   $0x0,-0x4(%rbp)
   187b6:	74 16                	je     187ce <main+0x11a5>
   187b8:	8b 45 f4             	mov    -0xc(%rbp),%eax
   187bb:	89 c6                	mov    %eax,%esi
   187bd:	48 8d 3d 17 18 00 00 	lea    0x1817(%rip),%rdi        # 19fdb <g_1850+0xf33>
   187c4:	b8 00 00 00 00       	mov    $0x0,%eax
   187c9:	e8 b2 28 ff ff       	callq  b080 <printf@plt>
   187ce:	83 45 f4 01          	addl   $0x1,-0xc(%rbp)
   187d2:	83 7d f4 01          	cmpl   $0x1,-0xc(%rbp)
   187d6:	0f 8e 21 ff ff ff    	jle    186fd <main+0x10d4>
   187dc:	8b 05 1e 4a 00 00    	mov    0x4a1e(%rip),%eax        # 1d200 <g_1914>
   187e2:	89 c1                	mov    %eax,%ecx
   187e4:	8b 45 fc             	mov    -0x4(%rbp),%eax
   187e7:	89 c2                	mov    %eax,%edx
   187e9:	48 8d 35 c4 1c 00 00 	lea    0x1cc4(%rip),%rsi        # 1a4b4 <g_1850+0x140c>
   187f0:	48 89 cf             	mov    %rcx,%rdi
   187f3:	e8 fb 3e ff ff       	callq  c6f3 <transparent_crc>
   187f8:	0f b6 05 01 4a 00 00 	movzbl 0x4a01(%rip),%eax        # 1d200 <g_1914>
   187ff:	0f b6 c0             	movzbl %al,%eax
   18802:	8b 55 fc             	mov    -0x4(%rbp),%edx
   18805:	48 8d 35 b2 1c 00 00 	lea    0x1cb2(%rip),%rsi        # 1a4be <g_1850+0x1416>
   1880c:	48 89 c7             	mov    %rax,%rdi
   1880f:	e8 df 3e ff ff       	callq  c6f3 <transparent_crc>
   18814:	0f b7 05 e5 49 00 00 	movzwl 0x49e5(%rip),%eax        # 1d200 <g_1914>
   1881b:	0f b7 c0             	movzwl %ax,%eax
   1881e:	8b 55 fc             	mov    -0x4(%rbp),%edx
   18821:	48 8d 35 a0 1c 00 00 	lea    0x1ca0(%rip),%rsi        # 1a4c8 <g_1850+0x1420>
   18828:	48 89 c7             	mov    %rax,%rdi
   1882b:	e8 c3 3e ff ff       	callq  c6f3 <transparent_crc>
   18830:	0f b7 05 c9 49 00 00 	movzwl 0x49c9(%rip),%eax        # 1d200 <g_1914>
   18837:	48 0f bf c0          	movswq %ax,%rax
   1883b:	8b 55 fc             	mov    -0x4(%rbp),%edx
   1883e:	48 8d 35 8d 1c 00 00 	lea    0x1c8d(%rip),%rsi        # 1a4d2 <g_1850+0x142a>
   18845:	48 89 c7             	mov    %rax,%rdi
   18848:	e8 a6 3e ff ff       	callq  c6f3 <transparent_crc>
   1884d:	8b 05 b5 49 00 00    	mov    0x49b5(%rip),%eax        # 1d208 <g_1920>
   18853:	48 98                	cltq   
   18855:	8b 55 fc             	mov    -0x4(%rbp),%edx
   18858:	48 8d 35 7d 1c 00 00 	lea    0x1c7d(%rip),%rsi        # 1a4dc <g_1850+0x1434>
   1885f:	48 89 c7             	mov    %rax,%rdi
   18862:	e8 8c 3e ff ff       	callq  c6f3 <transparent_crc>
   18867:	0f b6 05 9e 49 00 00 	movzbl 0x499e(%rip),%eax        # 1d20c <g_1934>
   1886e:	0f b6 c0             	movzbl %al,%eax
   18871:	8b 55 fc             	mov    -0x4(%rbp),%edx
   18874:	48 8d 35 68 1c 00 00 	lea    0x1c68(%rip),%rsi        # 1a4e3 <g_1850+0x143b>
   1887b:	48 89 c7             	mov    %rax,%rdi
   1887e:	e8 70 3e ff ff       	callq  c6f3 <transparent_crc>
   18883:	8b 05 87 49 00 00    	mov    0x4987(%rip),%eax        # 1d210 <g_1942>
   18889:	89 c1                	mov    %eax,%ecx
   1888b:	8b 45 fc             	mov    -0x4(%rbp),%eax
   1888e:	89 c2                	mov    %eax,%edx
   18890:	48 8d 35 53 1c 00 00 	lea    0x1c53(%rip),%rsi        # 1a4ea <g_1850+0x1442>
   18897:	48 89 cf             	mov    %rcx,%rdi
   1889a:	e8 54 3e ff ff       	callq  c6f3 <transparent_crc>
   1889f:	8b 05 7b 47 00 00    	mov    0x477b(%rip),%eax        # 1d020 <crc32_context>
   188a5:	f7 d0                	not    %eax
   188a7:	89 c2                	mov    %eax,%edx
   188a9:	8b 45 fc             	mov    -0x4(%rbp),%eax
   188ac:	89 c6                	mov    %eax,%esi
   188ae:	89 d7                	mov    %edx,%edi
   188b0:	e8 df 28 ff ff       	callq  b194 <platform_main_end>
   188b5:	b8 00 00 00 00       	mov    $0x0,%eax
   188ba:	c9                   	leaveq 
   188bb:	c3                   	retq   
   188bc:	0f 1f 40 00          	nopl   0x0(%rax)

00000000000188c0 <__libc_csu_init>:
   188c0:	f3 0f 1e fa          	endbr64 
   188c4:	41 57                	push   %r15
   188c6:	4c 8d 3d 83 44 00 00 	lea    0x4483(%rip),%r15        # 1cd50 <__frame_dummy_init_array_entry>
   188cd:	41 56                	push   %r14
   188cf:	49 89 d6             	mov    %rdx,%r14
   188d2:	41 55                	push   %r13
   188d4:	49 89 f5             	mov    %rsi,%r13
   188d7:	41 54                	push   %r12
   188d9:	41 89 fc             	mov    %edi,%r12d
   188dc:	55                   	push   %rbp
   188dd:	48 8d 2d 74 44 00 00 	lea    0x4474(%rip),%rbp        # 1cd58 <__do_global_dtors_aux_fini_array_entry>
   188e4:	53                   	push   %rbx
   188e5:	4c 29 fd             	sub    %r15,%rbp
   188e8:	48 83 ec 08          	sub    $0x8,%rsp
   188ec:	e8 0f 27 ff ff       	callq  b000 <_init>
   188f1:	48 c1 fd 03          	sar    $0x3,%rbp
   188f5:	74 1f                	je     18916 <__libc_csu_init+0x56>
   188f7:	31 db                	xor    %ebx,%ebx
   188f9:	0f 1f 80 00 00 00 00 	nopl   0x0(%rax)
   18900:	4c 89 f2             	mov    %r14,%rdx
   18903:	4c 89 ee             	mov    %r13,%rsi
   18906:	44 89 e7             	mov    %r12d,%edi
   18909:	41 ff 14 df          	callq  *(%r15,%rbx,8)
   1890d:	48 83 c3 01          	add    $0x1,%rbx
   18911:	48 39 dd             	cmp    %rbx,%rbp
   18914:	75 ea                	jne    18900 <__libc_csu_init+0x40>
   18916:	48 83 c4 08          	add    $0x8,%rsp
   1891a:	5b                   	pop    %rbx
   1891b:	5d                   	pop    %rbp
   1891c:	41 5c                	pop    %r12
   1891e:	41 5d                	pop    %r13
   18920:	41 5e                	pop    %r14
   18922:	41 5f                	pop    %r15
   18924:	c3                   	retq   
   18925:	66 66 2e 0f 1f 84 00 	data16 nopw %cs:0x0(%rax,%rax,1)
   1892c:	00 00 00 00 

0000000000018930 <__libc_csu_fini>:
   18930:	f3 0f 1e fa          	endbr64 
   18934:	c3                   	retq   
