


Disassembly of section .text:

00000000000050a0 <_start>:
    50a0:	f3 0f 1e fa          	endbr64 
    50a4:	31 ed                	xor    %ebp,%ebp
    50a6:	49 89 d1             	mov    %rdx,%r9
    50a9:	5e                   	pop    %rsi
    50aa:	48 89 e2             	mov    %rsp,%rdx
    50ad:	48 83 e4 f0          	and    $0xfffffffffffffff0,%rsp
    50b1:	50                   	push   %rax
    50b2:	54                   	push   %rsp
    50b3:	4c 8d 05 56 a9 00 00 	lea    0xa956(%rip),%r8        # fa10 <__libc_csu_fini>
    50ba:	48 8d 0d df a8 00 00 	lea    0xa8df(%rip),%rcx        # f9a0 <__libc_csu_init>
    50c1:	48 8d 3d 4f 9c 00 00 	lea    0x9c4f(%rip),%rdi        # ed17 <main>
    50c8:	ff 15 12 df 00 00    	callq  *0xdf12(%rip)        # 12fe0 <__libc_start_main@GLIBC_2.2.5>
    50ce:	f4                   	hlt    
    50cf:	90                   	nop

00000000000050d0 <deregister_tm_clones>:
    50d0:	48 8d 3d 71 01 01 00 	lea    0x10171(%rip),%rdi        # 15248 <__TMC_END__>
    50d7:	48 8d 05 6a 01 01 00 	lea    0x1016a(%rip),%rax        # 15248 <__TMC_END__>
    50de:	48 39 f8             	cmp    %rdi,%rax
    50e1:	74 15                	je     50f8 <deregister_tm_clones+0x28>
    50e3:	48 8b 05 ee de 00 00 	mov    0xdeee(%rip),%rax        # 12fd8 <_ITM_deregisterTMCloneTable>
    50ea:	48 85 c0             	test   %rax,%rax
    50ed:	74 09                	je     50f8 <deregister_tm_clones+0x28>
    50ef:	ff e0                	jmpq   *%rax
    50f1:	0f 1f 80 00 00 00 00 	nopl   0x0(%rax)
    50f8:	c3                   	retq   
    50f9:	0f 1f 80 00 00 00 00 	nopl   0x0(%rax)

0000000000005100 <register_tm_clones>:
    5100:	48 8d 3d 41 01 01 00 	lea    0x10141(%rip),%rdi        # 15248 <__TMC_END__>
    5107:	48 8d 35 3a 01 01 00 	lea    0x1013a(%rip),%rsi        # 15248 <__TMC_END__>
    510e:	48 29 fe             	sub    %rdi,%rsi
    5111:	48 89 f0             	mov    %rsi,%rax
    5114:	48 c1 ee 3f          	shr    $0x3f,%rsi
    5118:	48 c1 f8 03          	sar    $0x3,%rax
    511c:	48 01 c6             	add    %rax,%rsi
    511f:	48 d1 fe             	sar    %rsi
    5122:	74 14                	je     5138 <register_tm_clones+0x38>
    5124:	48 8b 05 c5 de 00 00 	mov    0xdec5(%rip),%rax        # 12ff0 <_ITM_registerTMCloneTable>
    512b:	48 85 c0             	test   %rax,%rax
    512e:	74 08                	je     5138 <register_tm_clones+0x38>
    5130:	ff e0                	jmpq   *%rax
    5132:	66 0f 1f 44 00 00    	nopw   0x0(%rax,%rax,1)
    5138:	c3                   	retq   
    5139:	0f 1f 80 00 00 00 00 	nopl   0x0(%rax)

0000000000005140 <__do_global_dtors_aux>:
    5140:	f3 0f 1e fa          	endbr64 
    5144:	80 3d 15 01 01 00 00 	cmpb   $0x0,0x10115(%rip)        # 15260 <completed.8061>
    514b:	75 2b                	jne    5178 <__do_global_dtors_aux+0x38>
    514d:	55                   	push   %rbp
    514e:	48 83 3d a2 de 00 00 	cmpq   $0x0,0xdea2(%rip)        # 12ff8 <__cxa_finalize@GLIBC_2.2.5>
    5155:	00 
    5156:	48 89 e5             	mov    %rsp,%rbp
    5159:	74 0c                	je     5167 <__do_global_dtors_aux+0x27>
    515b:	48 8b 3d a6 de 00 00 	mov    0xdea6(%rip),%rdi        # 13008 <__dso_handle>
    5162:	e8 f9 fe ff ff       	callq  5060 <__cxa_finalize@plt>
    5167:	e8 64 ff ff ff       	callq  50d0 <deregister_tm_clones>
    516c:	c6 05 ed 00 01 00 01 	movb   $0x1,0x100ed(%rip)        # 15260 <completed.8061>
    5173:	5d                   	pop    %rbp
    5174:	c3                   	retq   
    5175:	0f 1f 00             	nopl   (%rax)
    5178:	c3                   	retq   
    5179:	0f 1f 80 00 00 00 00 	nopl   0x0(%rax)

0000000000005180 <frame_dummy>:
    5180:	f3 0f 1e fa          	endbr64 
    5184:	e9 77 ff ff ff       	jmpq   5100 <register_tm_clones>

0000000000005189 <platform_main_begin>:
    5189:	f3 0f 1e fa          	endbr64 
    518d:	55                   	push   %rbp
    518e:	48 89 e5             	mov    %rsp,%rbp
    5191:	90                   	nop
    5192:	5d                   	pop    %rbp
    5193:	c3                   	retq   

0000000000005194 <platform_main_end>:
    5194:	f3 0f 1e fa          	endbr64 
    5198:	55                   	push   %rbp
    5199:	48 89 e5             	mov    %rsp,%rbp
    519c:	48 83 ec 10          	sub    $0x10,%rsp
    51a0:	89 7d fc             	mov    %edi,-0x4(%rbp)
    51a3:	89 75 f8             	mov    %esi,-0x8(%rbp)
    51a6:	8b 45 fc             	mov    -0x4(%rbp),%eax
    51a9:	89 c6                	mov    %eax,%esi
    51ab:	48 8d 3d 6e ae 00 00 	lea    0xae6e(%rip),%rdi        # 10020 <_IO_stdin_used+0x20>
    51b2:	b8 00 00 00 00       	mov    $0x0,%eax
    51b7:	e8 c4 fe ff ff       	callq  5080 <printf@plt>
    51bc:	90                   	nop
    51bd:	c9                   	leaveq 
    51be:	c3                   	retq   

00000000000051bf <safe_unary_minus_func_int8_t_s>:
    51bf:	f3 0f 1e fa          	endbr64 
    51c3:	55                   	push   %rbp
    51c4:	48 89 e5             	mov    %rsp,%rbp
    51c7:	89 f8                	mov    %edi,%eax
    51c9:	88 45 fc             	mov    %al,-0x4(%rbp)
    51cc:	0f b6 45 fc          	movzbl -0x4(%rbp),%eax
    51d0:	f7 d8                	neg    %eax
    51d2:	5d                   	pop    %rbp
    51d3:	c3                   	retq   

00000000000051d4 <safe_add_func_int8_t_s_s>:
    51d4:	f3 0f 1e fa          	endbr64 
    51d8:	55                   	push   %rbp
    51d9:	48 89 e5             	mov    %rsp,%rbp
    51dc:	89 fa                	mov    %edi,%edx
    51de:	89 f0                	mov    %esi,%eax
    51e0:	88 55 fc             	mov    %dl,-0x4(%rbp)
    51e3:	88 45 f8             	mov    %al,-0x8(%rbp)
    51e6:	0f b6 55 fc          	movzbl -0x4(%rbp),%edx
    51ea:	0f b6 45 f8          	movzbl -0x8(%rbp),%eax
    51ee:	01 d0                	add    %edx,%eax
    51f0:	5d                   	pop    %rbp
    51f1:	c3                   	retq   

00000000000051f2 <safe_sub_func_int8_t_s_s>:
    51f2:	f3 0f 1e fa          	endbr64 
    51f6:	55                   	push   %rbp
    51f7:	48 89 e5             	mov    %rsp,%rbp
    51fa:	89 fa                	mov    %edi,%edx
    51fc:	89 f0                	mov    %esi,%eax
    51fe:	88 55 fc             	mov    %dl,-0x4(%rbp)
    5201:	88 45 f8             	mov    %al,-0x8(%rbp)
    5204:	0f b6 55 fc          	movzbl -0x4(%rbp),%edx
    5208:	0f b6 45 f8          	movzbl -0x8(%rbp),%eax
    520c:	29 c2                	sub    %eax,%edx
    520e:	89 d0                	mov    %edx,%eax
    5210:	5d                   	pop    %rbp
    5211:	c3                   	retq   

0000000000005212 <safe_mul_func_int8_t_s_s>:
    5212:	f3 0f 1e fa          	endbr64 
    5216:	55                   	push   %rbp
    5217:	48 89 e5             	mov    %rsp,%rbp
    521a:	89 fa                	mov    %edi,%edx
    521c:	89 f0                	mov    %esi,%eax
    521e:	88 55 fc             	mov    %dl,-0x4(%rbp)
    5221:	88 45 f8             	mov    %al,-0x8(%rbp)
    5224:	0f b6 45 fc          	movzbl -0x4(%rbp),%eax
    5228:	0f b6 55 f8          	movzbl -0x8(%rbp),%edx
    522c:	0f af c2             	imul   %edx,%eax
    522f:	5d                   	pop    %rbp
    5230:	c3                   	retq   

0000000000005231 <safe_mod_func_int8_t_s_s>:
    5231:	f3 0f 1e fa          	endbr64 
    5235:	55                   	push   %rbp
    5236:	48 89 e5             	mov    %rsp,%rbp
    5239:	89 fa                	mov    %edi,%edx
    523b:	89 f0                	mov    %esi,%eax
    523d:	88 55 fc             	mov    %dl,-0x4(%rbp)
    5240:	88 45 f8             	mov    %al,-0x8(%rbp)
    5243:	80 7d f8 00          	cmpb   $0x0,-0x8(%rbp)
    5247:	74 1b                	je     5264 <safe_mod_func_int8_t_s_s+0x33>
    5249:	80 7d fc 80          	cmpb   $0x80,-0x4(%rbp)
    524d:	75 06                	jne    5255 <safe_mod_func_int8_t_s_s+0x24>
    524f:	80 7d f8 ff          	cmpb   $0xff,-0x8(%rbp)
    5253:	74 0f                	je     5264 <safe_mod_func_int8_t_s_s+0x33>
    5255:	0f be 45 fc          	movsbl -0x4(%rbp),%eax
    5259:	0f be 4d f8          	movsbl -0x8(%rbp),%ecx
    525d:	99                   	cltd   
    525e:	f7 f9                	idiv   %ecx
    5260:	89 d0                	mov    %edx,%eax
    5262:	eb 04                	jmp    5268 <safe_mod_func_int8_t_s_s+0x37>
    5264:	0f b6 45 fc          	movzbl -0x4(%rbp),%eax
    5268:	5d                   	pop    %rbp
    5269:	c3                   	retq   

000000000000526a <safe_div_func_int8_t_s_s>:
    526a:	f3 0f 1e fa          	endbr64 
    526e:	55                   	push   %rbp
    526f:	48 89 e5             	mov    %rsp,%rbp
    5272:	89 fa                	mov    %edi,%edx
    5274:	89 f0                	mov    %esi,%eax
    5276:	88 55 fc             	mov    %dl,-0x4(%rbp)
    5279:	88 45 f8             	mov    %al,-0x8(%rbp)
    527c:	80 7d f8 00          	cmpb   $0x0,-0x8(%rbp)
    5280:	74 19                	je     529b <safe_div_func_int8_t_s_s+0x31>
    5282:	80 7d fc 80          	cmpb   $0x80,-0x4(%rbp)
    5286:	75 06                	jne    528e <safe_div_func_int8_t_s_s+0x24>
    5288:	80 7d f8 ff          	cmpb   $0xff,-0x8(%rbp)
    528c:	74 0d                	je     529b <safe_div_func_int8_t_s_s+0x31>
    528e:	0f be 45 fc          	movsbl -0x4(%rbp),%eax
    5292:	0f be 4d f8          	movsbl -0x8(%rbp),%ecx
    5296:	99                   	cltd   
    5297:	f7 f9                	idiv   %ecx
    5299:	eb 04                	jmp    529f <safe_div_func_int8_t_s_s+0x35>
    529b:	0f b6 45 fc          	movzbl -0x4(%rbp),%eax
    529f:	5d                   	pop    %rbp
    52a0:	c3                   	retq   

00000000000052a1 <safe_lshift_func_int8_t_s_s>:
    52a1:	f3 0f 1e fa          	endbr64 
    52a5:	55                   	push   %rbp
    52a6:	48 89 e5             	mov    %rsp,%rbp
    52a9:	89 f8                	mov    %edi,%eax
    52ab:	89 75 f8             	mov    %esi,-0x8(%rbp)
    52ae:	88 45 fc             	mov    %al,-0x4(%rbp)
    52b1:	80 7d fc 00          	cmpb   $0x0,-0x4(%rbp)
    52b5:	78 31                	js     52e8 <safe_lshift_func_int8_t_s_s+0x47>
    52b7:	83 7d f8 00          	cmpl   $0x0,-0x8(%rbp)
    52bb:	78 2b                	js     52e8 <safe_lshift_func_int8_t_s_s+0x47>
    52bd:	83 7d f8 1f          	cmpl   $0x1f,-0x8(%rbp)
    52c1:	7f 25                	jg     52e8 <safe_lshift_func_int8_t_s_s+0x47>
    52c3:	0f be 55 fc          	movsbl -0x4(%rbp),%edx
    52c7:	8b 45 f8             	mov    -0x8(%rbp),%eax
    52ca:	be 7f 00 00 00       	mov    $0x7f,%esi
    52cf:	89 c1                	mov    %eax,%ecx
    52d1:	d3 fe                	sar    %cl,%esi
    52d3:	89 f0                	mov    %esi,%eax
    52d5:	39 c2                	cmp    %eax,%edx
    52d7:	7f 0f                	jg     52e8 <safe_lshift_func_int8_t_s_s+0x47>
    52d9:	0f be 55 fc          	movsbl -0x4(%rbp),%edx
    52dd:	8b 45 f8             	mov    -0x8(%rbp),%eax
    52e0:	89 c1                	mov    %eax,%ecx
    52e2:	d3 e2                	shl    %cl,%edx
    52e4:	89 d0                	mov    %edx,%eax
    52e6:	eb 04                	jmp    52ec <safe_lshift_func_int8_t_s_s+0x4b>
    52e8:	0f b6 45 fc          	movzbl -0x4(%rbp),%eax
    52ec:	5d                   	pop    %rbp
    52ed:	c3                   	retq   

00000000000052ee <safe_lshift_func_int8_t_s_u>:
    52ee:	f3 0f 1e fa          	endbr64 
    52f2:	55                   	push   %rbp
    52f3:	48 89 e5             	mov    %rsp,%rbp
    52f6:	89 f8                	mov    %edi,%eax
    52f8:	89 75 f8             	mov    %esi,-0x8(%rbp)
    52fb:	88 45 fc             	mov    %al,-0x4(%rbp)
    52fe:	80 7d fc 00          	cmpb   $0x0,-0x4(%rbp)
    5302:	78 2b                	js     532f <safe_lshift_func_int8_t_s_u+0x41>
    5304:	83 7d f8 1f          	cmpl   $0x1f,-0x8(%rbp)
    5308:	77 25                	ja     532f <safe_lshift_func_int8_t_s_u+0x41>
    530a:	0f be 55 fc          	movsbl -0x4(%rbp),%edx
    530e:	8b 45 f8             	mov    -0x8(%rbp),%eax
    5311:	be 7f 00 00 00       	mov    $0x7f,%esi
    5316:	89 c1                	mov    %eax,%ecx
    5318:	d3 fe                	sar    %cl,%esi
    531a:	89 f0                	mov    %esi,%eax
    531c:	39 c2                	cmp    %eax,%edx
    531e:	7f 0f                	jg     532f <safe_lshift_func_int8_t_s_u+0x41>
    5320:	0f be 55 fc          	movsbl -0x4(%rbp),%edx
    5324:	8b 45 f8             	mov    -0x8(%rbp),%eax
    5327:	89 c1                	mov    %eax,%ecx
    5329:	d3 e2                	shl    %cl,%edx
    532b:	89 d0                	mov    %edx,%eax
    532d:	eb 04                	jmp    5333 <safe_lshift_func_int8_t_s_u+0x45>
    532f:	0f b6 45 fc          	movzbl -0x4(%rbp),%eax
    5333:	5d                   	pop    %rbp
    5334:	c3                   	retq   

0000000000005335 <safe_rshift_func_int8_t_s_s>:
    5335:	f3 0f 1e fa          	endbr64 
    5339:	55                   	push   %rbp
    533a:	48 89 e5             	mov    %rsp,%rbp
    533d:	89 f8                	mov    %edi,%eax
    533f:	89 75 f8             	mov    %esi,-0x8(%rbp)
    5342:	88 45 fc             	mov    %al,-0x4(%rbp)
    5345:	80 7d fc 00          	cmpb   $0x0,-0x4(%rbp)
    5349:	78 1b                	js     5366 <safe_rshift_func_int8_t_s_s+0x31>
    534b:	83 7d f8 00          	cmpl   $0x0,-0x8(%rbp)
    534f:	78 15                	js     5366 <safe_rshift_func_int8_t_s_s+0x31>
    5351:	83 7d f8 1f          	cmpl   $0x1f,-0x8(%rbp)
    5355:	7f 0f                	jg     5366 <safe_rshift_func_int8_t_s_s+0x31>
    5357:	0f be 55 fc          	movsbl -0x4(%rbp),%edx
    535b:	8b 45 f8             	mov    -0x8(%rbp),%eax
    535e:	89 c1                	mov    %eax,%ecx
    5360:	d3 fa                	sar    %cl,%edx
    5362:	89 d0                	mov    %edx,%eax
    5364:	eb 04                	jmp    536a <safe_rshift_func_int8_t_s_s+0x35>
    5366:	0f b6 45 fc          	movzbl -0x4(%rbp),%eax
    536a:	5d                   	pop    %rbp
    536b:	c3                   	retq   

000000000000536c <safe_rshift_func_int8_t_s_u>:
    536c:	f3 0f 1e fa          	endbr64 
    5370:	55                   	push   %rbp
    5371:	48 89 e5             	mov    %rsp,%rbp
    5374:	89 f8                	mov    %edi,%eax
    5376:	89 75 f8             	mov    %esi,-0x8(%rbp)
    5379:	88 45 fc             	mov    %al,-0x4(%rbp)
    537c:	80 7d fc 00          	cmpb   $0x0,-0x4(%rbp)
    5380:	78 15                	js     5397 <safe_rshift_func_int8_t_s_u+0x2b>
    5382:	83 7d f8 1f          	cmpl   $0x1f,-0x8(%rbp)
    5386:	77 0f                	ja     5397 <safe_rshift_func_int8_t_s_u+0x2b>
    5388:	0f be 55 fc          	movsbl -0x4(%rbp),%edx
    538c:	8b 45 f8             	mov    -0x8(%rbp),%eax
    538f:	89 c1                	mov    %eax,%ecx
    5391:	d3 fa                	sar    %cl,%edx
    5393:	89 d0                	mov    %edx,%eax
    5395:	eb 04                	jmp    539b <safe_rshift_func_int8_t_s_u+0x2f>
    5397:	0f b6 45 fc          	movzbl -0x4(%rbp),%eax
    539b:	5d                   	pop    %rbp
    539c:	c3                   	retq   

000000000000539d <safe_unary_minus_func_int16_t_s>:
    539d:	f3 0f 1e fa          	endbr64 
    53a1:	55                   	push   %rbp
    53a2:	48 89 e5             	mov    %rsp,%rbp
    53a5:	89 f8                	mov    %edi,%eax
    53a7:	66 89 45 fc          	mov    %ax,-0x4(%rbp)
    53ab:	0f b7 45 fc          	movzwl -0x4(%rbp),%eax
    53af:	f7 d8                	neg    %eax
    53b1:	5d                   	pop    %rbp
    53b2:	c3                   	retq   

00000000000053b3 <safe_add_func_int16_t_s_s>:
    53b3:	f3 0f 1e fa          	endbr64 
    53b7:	55                   	push   %rbp
    53b8:	48 89 e5             	mov    %rsp,%rbp
    53bb:	89 fa                	mov    %edi,%edx
    53bd:	89 f0                	mov    %esi,%eax
    53bf:	66 89 55 fc          	mov    %dx,-0x4(%rbp)
    53c3:	66 89 45 f8          	mov    %ax,-0x8(%rbp)
    53c7:	0f b7 55 fc          	movzwl -0x4(%rbp),%edx
    53cb:	0f b7 45 f8          	movzwl -0x8(%rbp),%eax
    53cf:	01 d0                	add    %edx,%eax
    53d1:	5d                   	pop    %rbp
    53d2:	c3                   	retq   

00000000000053d3 <safe_sub_func_int16_t_s_s>:
    53d3:	f3 0f 1e fa          	endbr64 
    53d7:	55                   	push   %rbp
    53d8:	48 89 e5             	mov    %rsp,%rbp
    53db:	89 fa                	mov    %edi,%edx
    53dd:	89 f0                	mov    %esi,%eax
    53df:	66 89 55 fc          	mov    %dx,-0x4(%rbp)
    53e3:	66 89 45 f8          	mov    %ax,-0x8(%rbp)
    53e7:	0f b7 55 fc          	movzwl -0x4(%rbp),%edx
    53eb:	0f b7 45 f8          	movzwl -0x8(%rbp),%eax
    53ef:	29 c2                	sub    %eax,%edx
    53f1:	89 d0                	mov    %edx,%eax
    53f3:	5d                   	pop    %rbp
    53f4:	c3                   	retq   

00000000000053f5 <safe_mul_func_int16_t_s_s>:
    53f5:	f3 0f 1e fa          	endbr64 
    53f9:	55                   	push   %rbp
    53fa:	48 89 e5             	mov    %rsp,%rbp
    53fd:	89 fa                	mov    %edi,%edx
    53ff:	89 f0                	mov    %esi,%eax
    5401:	66 89 55 fc          	mov    %dx,-0x4(%rbp)
    5405:	66 89 45 f8          	mov    %ax,-0x8(%rbp)
    5409:	0f b7 55 fc          	movzwl -0x4(%rbp),%edx
    540d:	0f b7 45 f8          	movzwl -0x8(%rbp),%eax
    5411:	0f af c2             	imul   %edx,%eax
    5414:	5d                   	pop    %rbp
    5415:	c3                   	retq   

0000000000005416 <safe_mod_func_int16_t_s_s>:
    5416:	f3 0f 1e fa          	endbr64 
    541a:	55                   	push   %rbp
    541b:	48 89 e5             	mov    %rsp,%rbp
    541e:	89 fa                	mov    %edi,%edx
    5420:	89 f0                	mov    %esi,%eax
    5422:	66 89 55 fc          	mov    %dx,-0x4(%rbp)
    5426:	66 89 45 f8          	mov    %ax,-0x8(%rbp)
    542a:	66 83 7d f8 00       	cmpw   $0x0,-0x8(%rbp)
    542f:	74 1e                	je     544f <safe_mod_func_int16_t_s_s+0x39>
    5431:	66 81 7d fc 00 80    	cmpw   $0x8000,-0x4(%rbp)
    5437:	75 07                	jne    5440 <safe_mod_func_int16_t_s_s+0x2a>
    5439:	66 83 7d f8 ff       	cmpw   $0xffff,-0x8(%rbp)
    543e:	74 0f                	je     544f <safe_mod_func_int16_t_s_s+0x39>
    5440:	0f bf 45 fc          	movswl -0x4(%rbp),%eax
    5444:	0f bf 4d f8          	movswl -0x8(%rbp),%ecx
    5448:	99                   	cltd   
    5449:	f7 f9                	idiv   %ecx
    544b:	89 d0                	mov    %edx,%eax
    544d:	eb 04                	jmp    5453 <safe_mod_func_int16_t_s_s+0x3d>
    544f:	0f b7 45 fc          	movzwl -0x4(%rbp),%eax
    5453:	5d                   	pop    %rbp
    5454:	c3                   	retq   

0000000000005455 <safe_div_func_int16_t_s_s>:
    5455:	f3 0f 1e fa          	endbr64 
    5459:	55                   	push   %rbp
    545a:	48 89 e5             	mov    %rsp,%rbp
    545d:	89 fa                	mov    %edi,%edx
    545f:	89 f0                	mov    %esi,%eax
    5461:	66 89 55 fc          	mov    %dx,-0x4(%rbp)
    5465:	66 89 45 f8          	mov    %ax,-0x8(%rbp)
    5469:	66 83 7d f8 00       	cmpw   $0x0,-0x8(%rbp)
    546e:	74 1c                	je     548c <safe_div_func_int16_t_s_s+0x37>
    5470:	66 81 7d fc 00 80    	cmpw   $0x8000,-0x4(%rbp)
    5476:	75 07                	jne    547f <safe_div_func_int16_t_s_s+0x2a>
    5478:	66 83 7d f8 ff       	cmpw   $0xffff,-0x8(%rbp)
    547d:	74 0d                	je     548c <safe_div_func_int16_t_s_s+0x37>
    547f:	0f bf 45 fc          	movswl -0x4(%rbp),%eax
    5483:	0f bf 4d f8          	movswl -0x8(%rbp),%ecx
    5487:	99                   	cltd   
    5488:	f7 f9                	idiv   %ecx
    548a:	eb 04                	jmp    5490 <safe_div_func_int16_t_s_s+0x3b>
    548c:	0f b7 45 fc          	movzwl -0x4(%rbp),%eax
    5490:	5d                   	pop    %rbp
    5491:	c3                   	retq   

0000000000005492 <safe_lshift_func_int16_t_s_s>:
    5492:	f3 0f 1e fa          	endbr64 
    5496:	55                   	push   %rbp
    5497:	48 89 e5             	mov    %rsp,%rbp
    549a:	89 f8                	mov    %edi,%eax
    549c:	89 75 f8             	mov    %esi,-0x8(%rbp)
    549f:	66 89 45 fc          	mov    %ax,-0x4(%rbp)
    54a3:	66 83 7d fc 00       	cmpw   $0x0,-0x4(%rbp)
    54a8:	78 31                	js     54db <safe_lshift_func_int16_t_s_s+0x49>
    54aa:	83 7d f8 00          	cmpl   $0x0,-0x8(%rbp)
    54ae:	78 2b                	js     54db <safe_lshift_func_int16_t_s_s+0x49>
    54b0:	83 7d f8 1f          	cmpl   $0x1f,-0x8(%rbp)
    54b4:	7f 25                	jg     54db <safe_lshift_func_int16_t_s_s+0x49>
    54b6:	0f bf 55 fc          	movswl -0x4(%rbp),%edx
    54ba:	8b 45 f8             	mov    -0x8(%rbp),%eax
    54bd:	be ff 7f 00 00       	mov    $0x7fff,%esi
    54c2:	89 c1                	mov    %eax,%ecx
    54c4:	d3 fe                	sar    %cl,%esi
    54c6:	89 f0                	mov    %esi,%eax
    54c8:	39 c2                	cmp    %eax,%edx
    54ca:	7f 0f                	jg     54db <safe_lshift_func_int16_t_s_s+0x49>
    54cc:	0f bf 55 fc          	movswl -0x4(%rbp),%edx
    54d0:	8b 45 f8             	mov    -0x8(%rbp),%eax
    54d3:	89 c1                	mov    %eax,%ecx
    54d5:	d3 e2                	shl    %cl,%edx
    54d7:	89 d0                	mov    %edx,%eax
    54d9:	eb 04                	jmp    54df <safe_lshift_func_int16_t_s_s+0x4d>
    54db:	0f b7 45 fc          	movzwl -0x4(%rbp),%eax
    54df:	5d                   	pop    %rbp
    54e0:	c3                   	retq   

00000000000054e1 <safe_lshift_func_int16_t_s_u>:
    54e1:	f3 0f 1e fa          	endbr64 
    54e5:	55                   	push   %rbp
    54e6:	48 89 e5             	mov    %rsp,%rbp
    54e9:	89 f8                	mov    %edi,%eax
    54eb:	89 75 f8             	mov    %esi,-0x8(%rbp)
    54ee:	66 89 45 fc          	mov    %ax,-0x4(%rbp)
    54f2:	66 83 7d fc 00       	cmpw   $0x0,-0x4(%rbp)
    54f7:	78 2b                	js     5524 <safe_lshift_func_int16_t_s_u+0x43>
    54f9:	83 7d f8 1f          	cmpl   $0x1f,-0x8(%rbp)
    54fd:	77 25                	ja     5524 <safe_lshift_func_int16_t_s_u+0x43>
    54ff:	0f bf 55 fc          	movswl -0x4(%rbp),%edx
    5503:	8b 45 f8             	mov    -0x8(%rbp),%eax
    5506:	be ff 7f 00 00       	mov    $0x7fff,%esi
    550b:	89 c1                	mov    %eax,%ecx
    550d:	d3 fe                	sar    %cl,%esi
    550f:	89 f0                	mov    %esi,%eax
    5511:	39 c2                	cmp    %eax,%edx
    5513:	7f 0f                	jg     5524 <safe_lshift_func_int16_t_s_u+0x43>
    5515:	0f bf 55 fc          	movswl -0x4(%rbp),%edx
    5519:	8b 45 f8             	mov    -0x8(%rbp),%eax
    551c:	89 c1                	mov    %eax,%ecx
    551e:	d3 e2                	shl    %cl,%edx
    5520:	89 d0                	mov    %edx,%eax
    5522:	eb 04                	jmp    5528 <safe_lshift_func_int16_t_s_u+0x47>
    5524:	0f b7 45 fc          	movzwl -0x4(%rbp),%eax
    5528:	5d                   	pop    %rbp
    5529:	c3                   	retq   

000000000000552a <safe_rshift_func_int16_t_s_s>:
    552a:	f3 0f 1e fa          	endbr64 
    552e:	55                   	push   %rbp
    552f:	48 89 e5             	mov    %rsp,%rbp
    5532:	89 f8                	mov    %edi,%eax
    5534:	89 75 f8             	mov    %esi,-0x8(%rbp)
    5537:	66 89 45 fc          	mov    %ax,-0x4(%rbp)
    553b:	66 83 7d fc 00       	cmpw   $0x0,-0x4(%rbp)
    5540:	78 1b                	js     555d <safe_rshift_func_int16_t_s_s+0x33>
    5542:	83 7d f8 00          	cmpl   $0x0,-0x8(%rbp)
    5546:	78 15                	js     555d <safe_rshift_func_int16_t_s_s+0x33>
    5548:	83 7d f8 1f          	cmpl   $0x1f,-0x8(%rbp)
    554c:	7f 0f                	jg     555d <safe_rshift_func_int16_t_s_s+0x33>
    554e:	0f bf 55 fc          	movswl -0x4(%rbp),%edx
    5552:	8b 45 f8             	mov    -0x8(%rbp),%eax
    5555:	89 c1                	mov    %eax,%ecx
    5557:	d3 fa                	sar    %cl,%edx
    5559:	89 d0                	mov    %edx,%eax
    555b:	eb 04                	jmp    5561 <safe_rshift_func_int16_t_s_s+0x37>
    555d:	0f b7 45 fc          	movzwl -0x4(%rbp),%eax
    5561:	5d                   	pop    %rbp
    5562:	c3                   	retq   

0000000000005563 <safe_rshift_func_int16_t_s_u>:
    5563:	f3 0f 1e fa          	endbr64 
    5567:	55                   	push   %rbp
    5568:	48 89 e5             	mov    %rsp,%rbp
    556b:	89 f8                	mov    %edi,%eax
    556d:	89 75 f8             	mov    %esi,-0x8(%rbp)
    5570:	66 89 45 fc          	mov    %ax,-0x4(%rbp)
    5574:	66 83 7d fc 00       	cmpw   $0x0,-0x4(%rbp)
    5579:	78 15                	js     5590 <safe_rshift_func_int16_t_s_u+0x2d>
    557b:	83 7d f8 1f          	cmpl   $0x1f,-0x8(%rbp)
    557f:	77 0f                	ja     5590 <safe_rshift_func_int16_t_s_u+0x2d>
    5581:	0f bf 55 fc          	movswl -0x4(%rbp),%edx
    5585:	8b 45 f8             	mov    -0x8(%rbp),%eax
    5588:	89 c1                	mov    %eax,%ecx
    558a:	d3 fa                	sar    %cl,%edx
    558c:	89 d0                	mov    %edx,%eax
    558e:	eb 04                	jmp    5594 <safe_rshift_func_int16_t_s_u+0x31>
    5590:	0f b7 45 fc          	movzwl -0x4(%rbp),%eax
    5594:	5d                   	pop    %rbp
    5595:	c3                   	retq   

0000000000005596 <safe_unary_minus_func_int32_t_s>:
    5596:	f3 0f 1e fa          	endbr64 
    559a:	55                   	push   %rbp
    559b:	48 89 e5             	mov    %rsp,%rbp
    559e:	89 7d fc             	mov    %edi,-0x4(%rbp)
    55a1:	81 7d fc 00 00 00 80 	cmpl   $0x80000000,-0x4(%rbp)
    55a8:	74 07                	je     55b1 <safe_unary_minus_func_int32_t_s+0x1b>
    55aa:	8b 45 fc             	mov    -0x4(%rbp),%eax
    55ad:	f7 d8                	neg    %eax
    55af:	eb 03                	jmp    55b4 <safe_unary_minus_func_int32_t_s+0x1e>
    55b1:	8b 45 fc             	mov    -0x4(%rbp),%eax
    55b4:	5d                   	pop    %rbp
    55b5:	c3                   	retq   

00000000000055b6 <safe_add_func_int32_t_s_s>:
    55b6:	f3 0f 1e fa          	endbr64 
    55ba:	55                   	push   %rbp
    55bb:	48 89 e5             	mov    %rsp,%rbp
    55be:	89 7d fc             	mov    %edi,-0x4(%rbp)
    55c1:	89 75 f8             	mov    %esi,-0x8(%rbp)
    55c4:	83 7d fc 00          	cmpl   $0x0,-0x4(%rbp)
    55c8:	7e 13                	jle    55dd <safe_add_func_int32_t_s_s+0x27>
    55ca:	83 7d f8 00          	cmpl   $0x0,-0x8(%rbp)
    55ce:	7e 0d                	jle    55dd <safe_add_func_int32_t_s_s+0x27>
    55d0:	b8 ff ff ff 7f       	mov    $0x7fffffff,%eax
    55d5:	2b 45 f8             	sub    -0x8(%rbp),%eax
    55d8:	39 45 fc             	cmp    %eax,-0x4(%rbp)
    55db:	7f 23                	jg     5600 <safe_add_func_int32_t_s_s+0x4a>
    55dd:	83 7d fc 00          	cmpl   $0x0,-0x4(%rbp)
    55e1:	79 13                	jns    55f6 <safe_add_func_int32_t_s_s+0x40>
    55e3:	83 7d f8 00          	cmpl   $0x0,-0x8(%rbp)
    55e7:	79 0d                	jns    55f6 <safe_add_func_int32_t_s_s+0x40>
    55e9:	b8 00 00 00 80       	mov    $0x80000000,%eax
    55ee:	2b 45 f8             	sub    -0x8(%rbp),%eax
    55f1:	39 45 fc             	cmp    %eax,-0x4(%rbp)
    55f4:	7c 0a                	jl     5600 <safe_add_func_int32_t_s_s+0x4a>
    55f6:	8b 55 fc             	mov    -0x4(%rbp),%edx
    55f9:	8b 45 f8             	mov    -0x8(%rbp),%eax
    55fc:	01 d0                	add    %edx,%eax
    55fe:	eb 03                	jmp    5603 <safe_add_func_int32_t_s_s+0x4d>
    5600:	8b 45 fc             	mov    -0x4(%rbp),%eax
    5603:	5d                   	pop    %rbp
    5604:	c3                   	retq   

0000000000005605 <safe_sub_func_int32_t_s_s>:
    5605:	f3 0f 1e fa          	endbr64 
    5609:	55                   	push   %rbp
    560a:	48 89 e5             	mov    %rsp,%rbp
    560d:	89 7d fc             	mov    %edi,-0x4(%rbp)
    5610:	89 75 f8             	mov    %esi,-0x8(%rbp)
    5613:	8b 45 fc             	mov    -0x4(%rbp),%eax
    5616:	33 45 f8             	xor    -0x8(%rbp),%eax
    5619:	89 c2                	mov    %eax,%edx
    561b:	8b 45 fc             	mov    -0x4(%rbp),%eax
    561e:	33 45 f8             	xor    -0x8(%rbp),%eax
    5621:	25 00 00 00 80       	and    $0x80000000,%eax
    5626:	33 45 fc             	xor    -0x4(%rbp),%eax
    5629:	2b 45 f8             	sub    -0x8(%rbp),%eax
    562c:	33 45 f8             	xor    -0x8(%rbp),%eax
    562f:	21 d0                	and    %edx,%eax
    5631:	85 c0                	test   %eax,%eax
    5633:	78 08                	js     563d <safe_sub_func_int32_t_s_s+0x38>
    5635:	8b 45 fc             	mov    -0x4(%rbp),%eax
    5638:	2b 45 f8             	sub    -0x8(%rbp),%eax
    563b:	eb 03                	jmp    5640 <safe_sub_func_int32_t_s_s+0x3b>
    563d:	8b 45 fc             	mov    -0x4(%rbp),%eax
    5640:	5d                   	pop    %rbp
    5641:	c3                   	retq   

0000000000005642 <safe_mul_func_int32_t_s_s>:
    5642:	f3 0f 1e fa          	endbr64 
    5646:	55                   	push   %rbp
    5647:	48 89 e5             	mov    %rsp,%rbp
    564a:	89 7d fc             	mov    %edi,-0x4(%rbp)
    564d:	89 75 f8             	mov    %esi,-0x8(%rbp)
    5650:	83 7d fc 00          	cmpl   $0x0,-0x4(%rbp)
    5654:	7e 14                	jle    566a <safe_mul_func_int32_t_s_s+0x28>
    5656:	83 7d f8 00          	cmpl   $0x0,-0x8(%rbp)
    565a:	7e 0e                	jle    566a <safe_mul_func_int32_t_s_s+0x28>
    565c:	b8 ff ff ff 7f       	mov    $0x7fffffff,%eax
    5661:	99                   	cltd   
    5662:	f7 7d f8             	idivl  -0x8(%rbp)
    5665:	39 45 fc             	cmp    %eax,-0x4(%rbp)
    5668:	7f 5d                	jg     56c7 <safe_mul_func_int32_t_s_s+0x85>
    566a:	83 7d fc 00          	cmpl   $0x0,-0x4(%rbp)
    566e:	7e 14                	jle    5684 <safe_mul_func_int32_t_s_s+0x42>
    5670:	83 7d f8 00          	cmpl   $0x0,-0x8(%rbp)
    5674:	7f 0e                	jg     5684 <safe_mul_func_int32_t_s_s+0x42>
    5676:	b8 00 00 00 80       	mov    $0x80000000,%eax
    567b:	99                   	cltd   
    567c:	f7 7d fc             	idivl  -0x4(%rbp)
    567f:	39 45 f8             	cmp    %eax,-0x8(%rbp)
    5682:	7c 43                	jl     56c7 <safe_mul_func_int32_t_s_s+0x85>
    5684:	83 7d fc 00          	cmpl   $0x0,-0x4(%rbp)
    5688:	7f 14                	jg     569e <safe_mul_func_int32_t_s_s+0x5c>
    568a:	83 7d f8 00          	cmpl   $0x0,-0x8(%rbp)
    568e:	7e 0e                	jle    569e <safe_mul_func_int32_t_s_s+0x5c>
    5690:	b8 00 00 00 80       	mov    $0x80000000,%eax
    5695:	99                   	cltd   
    5696:	f7 7d f8             	idivl  -0x8(%rbp)
    5699:	39 45 fc             	cmp    %eax,-0x4(%rbp)
    569c:	7c 29                	jl     56c7 <safe_mul_func_int32_t_s_s+0x85>
    569e:	83 7d fc 00          	cmpl   $0x0,-0x4(%rbp)
    56a2:	7f 1a                	jg     56be <safe_mul_func_int32_t_s_s+0x7c>
    56a4:	83 7d f8 00          	cmpl   $0x0,-0x8(%rbp)
    56a8:	7f 14                	jg     56be <safe_mul_func_int32_t_s_s+0x7c>
    56aa:	83 7d fc 00          	cmpl   $0x0,-0x4(%rbp)
    56ae:	74 0e                	je     56be <safe_mul_func_int32_t_s_s+0x7c>
    56b0:	b8 ff ff ff 7f       	mov    $0x7fffffff,%eax
    56b5:	99                   	cltd   
    56b6:	f7 7d fc             	idivl  -0x4(%rbp)
    56b9:	39 45 f8             	cmp    %eax,-0x8(%rbp)
    56bc:	7c 09                	jl     56c7 <safe_mul_func_int32_t_s_s+0x85>
    56be:	8b 45 fc             	mov    -0x4(%rbp),%eax
    56c1:	0f af 45 f8          	imul   -0x8(%rbp),%eax
    56c5:	eb 03                	jmp    56ca <safe_mul_func_int32_t_s_s+0x88>
    56c7:	8b 45 fc             	mov    -0x4(%rbp),%eax
    56ca:	5d                   	pop    %rbp
    56cb:	c3                   	retq   

00000000000056cc <safe_mod_func_int32_t_s_s>:
    56cc:	f3 0f 1e fa          	endbr64 
    56d0:	55                   	push   %rbp
    56d1:	48 89 e5             	mov    %rsp,%rbp
    56d4:	89 7d fc             	mov    %edi,-0x4(%rbp)
    56d7:	89 75 f8             	mov    %esi,-0x8(%rbp)
    56da:	83 7d f8 00          	cmpl   $0x0,-0x8(%rbp)
    56de:	74 1a                	je     56fa <safe_mod_func_int32_t_s_s+0x2e>
    56e0:	81 7d fc 00 00 00 80 	cmpl   $0x80000000,-0x4(%rbp)
    56e7:	75 06                	jne    56ef <safe_mod_func_int32_t_s_s+0x23>
    56e9:	83 7d f8 ff          	cmpl   $0xffffffff,-0x8(%rbp)
    56ed:	74 0b                	je     56fa <safe_mod_func_int32_t_s_s+0x2e>
    56ef:	8b 45 fc             	mov    -0x4(%rbp),%eax
    56f2:	99                   	cltd   
    56f3:	f7 7d f8             	idivl  -0x8(%rbp)
    56f6:	89 d0                	mov    %edx,%eax
    56f8:	eb 03                	jmp    56fd <safe_mod_func_int32_t_s_s+0x31>
    56fa:	8b 45 fc             	mov    -0x4(%rbp),%eax
    56fd:	5d                   	pop    %rbp
    56fe:	c3                   	retq   

00000000000056ff <safe_div_func_int32_t_s_s>:
    56ff:	f3 0f 1e fa          	endbr64 
    5703:	55                   	push   %rbp
    5704:	48 89 e5             	mov    %rsp,%rbp
    5707:	89 7d fc             	mov    %edi,-0x4(%rbp)
    570a:	89 75 f8             	mov    %esi,-0x8(%rbp)
    570d:	83 7d f8 00          	cmpl   $0x0,-0x8(%rbp)
    5711:	74 18                	je     572b <safe_div_func_int32_t_s_s+0x2c>
    5713:	81 7d fc 00 00 00 80 	cmpl   $0x80000000,-0x4(%rbp)
    571a:	75 06                	jne    5722 <safe_div_func_int32_t_s_s+0x23>
    571c:	83 7d f8 ff          	cmpl   $0xffffffff,-0x8(%rbp)
    5720:	74 09                	je     572b <safe_div_func_int32_t_s_s+0x2c>
    5722:	8b 45 fc             	mov    -0x4(%rbp),%eax
    5725:	99                   	cltd   
    5726:	f7 7d f8             	idivl  -0x8(%rbp)
    5729:	eb 03                	jmp    572e <safe_div_func_int32_t_s_s+0x2f>
    572b:	8b 45 fc             	mov    -0x4(%rbp),%eax
    572e:	5d                   	pop    %rbp
    572f:	c3                   	retq   

0000000000005730 <safe_lshift_func_int32_t_s_s>:
    5730:	f3 0f 1e fa          	endbr64 
    5734:	55                   	push   %rbp
    5735:	48 89 e5             	mov    %rsp,%rbp
    5738:	89 7d fc             	mov    %edi,-0x4(%rbp)
    573b:	89 75 f8             	mov    %esi,-0x8(%rbp)
    573e:	83 7d fc 00          	cmpl   $0x0,-0x4(%rbp)
    5742:	78 2d                	js     5771 <safe_lshift_func_int32_t_s_s+0x41>
    5744:	83 7d f8 00          	cmpl   $0x0,-0x8(%rbp)
    5748:	78 27                	js     5771 <safe_lshift_func_int32_t_s_s+0x41>
    574a:	83 7d f8 1f          	cmpl   $0x1f,-0x8(%rbp)
    574e:	7f 21                	jg     5771 <safe_lshift_func_int32_t_s_s+0x41>
    5750:	8b 45 f8             	mov    -0x8(%rbp),%eax
    5753:	ba ff ff ff 7f       	mov    $0x7fffffff,%edx
    5758:	89 c1                	mov    %eax,%ecx
    575a:	d3 fa                	sar    %cl,%edx
    575c:	89 d0                	mov    %edx,%eax
    575e:	39 45 fc             	cmp    %eax,-0x4(%rbp)
    5761:	7f 0e                	jg     5771 <safe_lshift_func_int32_t_s_s+0x41>
    5763:	8b 45 f8             	mov    -0x8(%rbp),%eax
    5766:	8b 55 fc             	mov    -0x4(%rbp),%edx
    5769:	89 c1                	mov    %eax,%ecx
    576b:	d3 e2                	shl    %cl,%edx
    576d:	89 d0                	mov    %edx,%eax
    576f:	eb 03                	jmp    5774 <safe_lshift_func_int32_t_s_s+0x44>
    5771:	8b 45 fc             	mov    -0x4(%rbp),%eax
    5774:	5d                   	pop    %rbp
    5775:	c3                   	retq   

0000000000005776 <safe_lshift_func_int32_t_s_u>:
    5776:	f3 0f 1e fa          	endbr64 
    577a:	55                   	push   %rbp
    577b:	48 89 e5             	mov    %rsp,%rbp
    577e:	89 7d fc             	mov    %edi,-0x4(%rbp)
    5781:	89 75 f8             	mov    %esi,-0x8(%rbp)
    5784:	83 7d fc 00          	cmpl   $0x0,-0x4(%rbp)
    5788:	78 27                	js     57b1 <safe_lshift_func_int32_t_s_u+0x3b>
    578a:	83 7d f8 1f          	cmpl   $0x1f,-0x8(%rbp)
    578e:	77 21                	ja     57b1 <safe_lshift_func_int32_t_s_u+0x3b>
    5790:	8b 45 f8             	mov    -0x8(%rbp),%eax
    5793:	ba ff ff ff 7f       	mov    $0x7fffffff,%edx
    5798:	89 c1                	mov    %eax,%ecx
    579a:	d3 fa                	sar    %cl,%edx
    579c:	89 d0                	mov    %edx,%eax
    579e:	39 45 fc             	cmp    %eax,-0x4(%rbp)
    57a1:	7f 0e                	jg     57b1 <safe_lshift_func_int32_t_s_u+0x3b>
    57a3:	8b 45 f8             	mov    -0x8(%rbp),%eax
    57a6:	8b 55 fc             	mov    -0x4(%rbp),%edx
    57a9:	89 c1                	mov    %eax,%ecx
    57ab:	d3 e2                	shl    %cl,%edx
    57ad:	89 d0                	mov    %edx,%eax
    57af:	eb 03                	jmp    57b4 <safe_lshift_func_int32_t_s_u+0x3e>
    57b1:	8b 45 fc             	mov    -0x4(%rbp),%eax
    57b4:	5d                   	pop    %rbp
    57b5:	c3                   	retq   

00000000000057b6 <safe_rshift_func_int32_t_s_s>:
    57b6:	f3 0f 1e fa          	endbr64 
    57ba:	55                   	push   %rbp
    57bb:	48 89 e5             	mov    %rsp,%rbp
    57be:	89 7d fc             	mov    %edi,-0x4(%rbp)
    57c1:	89 75 f8             	mov    %esi,-0x8(%rbp)
    57c4:	83 7d fc 00          	cmpl   $0x0,-0x4(%rbp)
    57c8:	78 1a                	js     57e4 <safe_rshift_func_int32_t_s_s+0x2e>
    57ca:	83 7d f8 00          	cmpl   $0x0,-0x8(%rbp)
    57ce:	78 14                	js     57e4 <safe_rshift_func_int32_t_s_s+0x2e>
    57d0:	83 7d f8 1f          	cmpl   $0x1f,-0x8(%rbp)
    57d4:	7f 0e                	jg     57e4 <safe_rshift_func_int32_t_s_s+0x2e>
    57d6:	8b 45 f8             	mov    -0x8(%rbp),%eax
    57d9:	8b 55 fc             	mov    -0x4(%rbp),%edx
    57dc:	89 c1                	mov    %eax,%ecx
    57de:	d3 fa                	sar    %cl,%edx
    57e0:	89 d0                	mov    %edx,%eax
    57e2:	eb 03                	jmp    57e7 <safe_rshift_func_int32_t_s_s+0x31>
    57e4:	8b 45 fc             	mov    -0x4(%rbp),%eax
    57e7:	5d                   	pop    %rbp
    57e8:	c3                   	retq   

00000000000057e9 <safe_rshift_func_int32_t_s_u>:
    57e9:	f3 0f 1e fa          	endbr64 
    57ed:	55                   	push   %rbp
    57ee:	48 89 e5             	mov    %rsp,%rbp
    57f1:	89 7d fc             	mov    %edi,-0x4(%rbp)
    57f4:	89 75 f8             	mov    %esi,-0x8(%rbp)
    57f7:	83 7d fc 00          	cmpl   $0x0,-0x4(%rbp)
    57fb:	78 14                	js     5811 <safe_rshift_func_int32_t_s_u+0x28>
    57fd:	83 7d f8 1f          	cmpl   $0x1f,-0x8(%rbp)
    5801:	77 0e                	ja     5811 <safe_rshift_func_int32_t_s_u+0x28>
    5803:	8b 45 f8             	mov    -0x8(%rbp),%eax
    5806:	8b 55 fc             	mov    -0x4(%rbp),%edx
    5809:	89 c1                	mov    %eax,%ecx
    580b:	d3 fa                	sar    %cl,%edx
    580d:	89 d0                	mov    %edx,%eax
    580f:	eb 03                	jmp    5814 <safe_rshift_func_int32_t_s_u+0x2b>
    5811:	8b 45 fc             	mov    -0x4(%rbp),%eax
    5814:	5d                   	pop    %rbp
    5815:	c3                   	retq   

0000000000005816 <safe_unary_minus_func_int64_t_s>:
    5816:	f3 0f 1e fa          	endbr64 
    581a:	55                   	push   %rbp
    581b:	48 89 e5             	mov    %rsp,%rbp
    581e:	48 89 7d f8          	mov    %rdi,-0x8(%rbp)
    5822:	48 b8 00 00 00 00 00 	movabs $0x8000000000000000,%rax
    5829:	00 00 80 
    582c:	48 39 45 f8          	cmp    %rax,-0x8(%rbp)
    5830:	74 09                	je     583b <safe_unary_minus_func_int64_t_s+0x25>
    5832:	48 8b 45 f8          	mov    -0x8(%rbp),%rax
    5836:	48 f7 d8             	neg    %rax
    5839:	eb 04                	jmp    583f <safe_unary_minus_func_int64_t_s+0x29>
    583b:	48 8b 45 f8          	mov    -0x8(%rbp),%rax
    583f:	5d                   	pop    %rbp
    5840:	c3                   	retq   

0000000000005841 <safe_add_func_int64_t_s_s>:
    5841:	f3 0f 1e fa          	endbr64 
    5845:	55                   	push   %rbp
    5846:	48 89 e5             	mov    %rsp,%rbp
    5849:	48 89 7d f8          	mov    %rdi,-0x8(%rbp)
    584d:	48 89 75 f0          	mov    %rsi,-0x10(%rbp)
    5851:	48 83 7d f8 00       	cmpq   $0x0,-0x8(%rbp)
    5856:	7e 1b                	jle    5873 <safe_add_func_int64_t_s_s+0x32>
    5858:	48 83 7d f0 00       	cmpq   $0x0,-0x10(%rbp)
    585d:	7e 14                	jle    5873 <safe_add_func_int64_t_s_s+0x32>
    585f:	48 b8 ff ff ff ff ff 	movabs $0x7fffffffffffffff,%rax
    5866:	ff ff 7f 
    5869:	48 2b 45 f0          	sub    -0x10(%rbp),%rax
    586d:	48 39 45 f8          	cmp    %rax,-0x8(%rbp)
    5871:	7f 2f                	jg     58a2 <safe_add_func_int64_t_s_s+0x61>
    5873:	48 83 7d f8 00       	cmpq   $0x0,-0x8(%rbp)
    5878:	79 1b                	jns    5895 <safe_add_func_int64_t_s_s+0x54>
    587a:	48 83 7d f0 00       	cmpq   $0x0,-0x10(%rbp)
    587f:	79 14                	jns    5895 <safe_add_func_int64_t_s_s+0x54>
    5881:	48 b8 00 00 00 00 00 	movabs $0x8000000000000000,%rax
    5888:	00 00 80 
    588b:	48 2b 45 f0          	sub    -0x10(%rbp),%rax
    588f:	48 39 45 f8          	cmp    %rax,-0x8(%rbp)
    5893:	7c 0d                	jl     58a2 <safe_add_func_int64_t_s_s+0x61>
    5895:	48 8b 55 f8          	mov    -0x8(%rbp),%rdx
    5899:	48 8b 45 f0          	mov    -0x10(%rbp),%rax
    589d:	48 01 d0             	add    %rdx,%rax
    58a0:	eb 04                	jmp    58a6 <safe_add_func_int64_t_s_s+0x65>
    58a2:	48 8b 45 f8          	mov    -0x8(%rbp),%rax
    58a6:	5d                   	pop    %rbp
    58a7:	c3                   	retq   

00000000000058a8 <safe_sub_func_int64_t_s_s>:
    58a8:	f3 0f 1e fa          	endbr64 
    58ac:	55                   	push   %rbp
    58ad:	48 89 e5             	mov    %rsp,%rbp
    58b0:	48 89 7d f8          	mov    %rdi,-0x8(%rbp)
    58b4:	48 89 75 f0          	mov    %rsi,-0x10(%rbp)
    58b8:	48 8b 45 f8          	mov    -0x8(%rbp),%rax
    58bc:	48 33 45 f0          	xor    -0x10(%rbp),%rax
    58c0:	48 89 c2             	mov    %rax,%rdx
    58c3:	48 8b 45 f8          	mov    -0x8(%rbp),%rax
    58c7:	48 33 45 f0          	xor    -0x10(%rbp),%rax
    58cb:	48 b9 00 00 00 00 00 	movabs $0x8000000000000000,%rcx
    58d2:	00 00 80 
    58d5:	48 21 c8             	and    %rcx,%rax
    58d8:	48 33 45 f8          	xor    -0x8(%rbp),%rax
    58dc:	48 2b 45 f0          	sub    -0x10(%rbp),%rax
    58e0:	48 33 45 f0          	xor    -0x10(%rbp),%rax
    58e4:	48 21 d0             	and    %rdx,%rax
    58e7:	48 85 c0             	test   %rax,%rax
    58ea:	78 0a                	js     58f6 <safe_sub_func_int64_t_s_s+0x4e>
    58ec:	48 8b 45 f8          	mov    -0x8(%rbp),%rax
    58f0:	48 2b 45 f0          	sub    -0x10(%rbp),%rax
    58f4:	eb 04                	jmp    58fa <safe_sub_func_int64_t_s_s+0x52>
    58f6:	48 8b 45 f8          	mov    -0x8(%rbp),%rax
    58fa:	5d                   	pop    %rbp
    58fb:	c3                   	retq   

00000000000058fc <safe_mul_func_int64_t_s_s>:
    58fc:	f3 0f 1e fa          	endbr64 
    5900:	55                   	push   %rbp
    5901:	48 89 e5             	mov    %rsp,%rbp
    5904:	48 89 7d f8          	mov    %rdi,-0x8(%rbp)
    5908:	48 89 75 f0          	mov    %rsi,-0x10(%rbp)
    590c:	48 83 7d f8 00       	cmpq   $0x0,-0x8(%rbp)
    5911:	7e 1d                	jle    5930 <safe_mul_func_int64_t_s_s+0x34>
    5913:	48 83 7d f0 00       	cmpq   $0x0,-0x10(%rbp)
    5918:	7e 16                	jle    5930 <safe_mul_func_int64_t_s_s+0x34>
    591a:	48 b8 ff ff ff ff ff 	movabs $0x7fffffffffffffff,%rax
    5921:	ff ff 7f 
    5924:	48 99                	cqto   
    5926:	48 f7 7d f0          	idivq  -0x10(%rbp)
    592a:	48 39 45 f8          	cmp    %rax,-0x8(%rbp)
    592e:	7f 7e                	jg     59ae <safe_mul_func_int64_t_s_s+0xb2>
    5930:	48 83 7d f8 00       	cmpq   $0x0,-0x8(%rbp)
    5935:	7e 1d                	jle    5954 <safe_mul_func_int64_t_s_s+0x58>
    5937:	48 83 7d f0 00       	cmpq   $0x0,-0x10(%rbp)
    593c:	7f 16                	jg     5954 <safe_mul_func_int64_t_s_s+0x58>
    593e:	48 b8 00 00 00 00 00 	movabs $0x8000000000000000,%rax
    5945:	00 00 80 
    5948:	48 99                	cqto   
    594a:	48 f7 7d f8          	idivq  -0x8(%rbp)
    594e:	48 39 45 f0          	cmp    %rax,-0x10(%rbp)
    5952:	7c 5a                	jl     59ae <safe_mul_func_int64_t_s_s+0xb2>
    5954:	48 83 7d f8 00       	cmpq   $0x0,-0x8(%rbp)
    5959:	7f 1d                	jg     5978 <safe_mul_func_int64_t_s_s+0x7c>
    595b:	48 83 7d f0 00       	cmpq   $0x0,-0x10(%rbp)
    5960:	7e 16                	jle    5978 <safe_mul_func_int64_t_s_s+0x7c>
    5962:	48 b8 00 00 00 00 00 	movabs $0x8000000000000000,%rax
    5969:	00 00 80 
    596c:	48 99                	cqto   
    596e:	48 f7 7d f0          	idivq  -0x10(%rbp)
    5972:	48 39 45 f8          	cmp    %rax,-0x8(%rbp)
    5976:	7c 36                	jl     59ae <safe_mul_func_int64_t_s_s+0xb2>
    5978:	48 83 7d f8 00       	cmpq   $0x0,-0x8(%rbp)
    597d:	7f 24                	jg     59a3 <safe_mul_func_int64_t_s_s+0xa7>
    597f:	48 83 7d f0 00       	cmpq   $0x0,-0x10(%rbp)
    5984:	7f 1d                	jg     59a3 <safe_mul_func_int64_t_s_s+0xa7>
    5986:	48 83 7d f8 00       	cmpq   $0x0,-0x8(%rbp)
    598b:	74 16                	je     59a3 <safe_mul_func_int64_t_s_s+0xa7>
    598d:	48 b8 ff ff ff ff ff 	movabs $0x7fffffffffffffff,%rax
    5994:	ff ff 7f 
    5997:	48 99                	cqto   
    5999:	48 f7 7d f8          	idivq  -0x8(%rbp)
    599d:	48 39 45 f0          	cmp    %rax,-0x10(%rbp)
    59a1:	7c 0b                	jl     59ae <safe_mul_func_int64_t_s_s+0xb2>
    59a3:	48 8b 45 f8          	mov    -0x8(%rbp),%rax
    59a7:	48 0f af 45 f0       	imul   -0x10(%rbp),%rax
    59ac:	eb 04                	jmp    59b2 <safe_mul_func_int64_t_s_s+0xb6>
    59ae:	48 8b 45 f8          	mov    -0x8(%rbp),%rax
    59b2:	5d                   	pop    %rbp
    59b3:	c3                   	retq   

00000000000059b4 <safe_mod_func_int64_t_s_s>:
    59b4:	f3 0f 1e fa          	endbr64 
    59b8:	55                   	push   %rbp
    59b9:	48 89 e5             	mov    %rsp,%rbp
    59bc:	48 89 7d f8          	mov    %rdi,-0x8(%rbp)
    59c0:	48 89 75 f0          	mov    %rsi,-0x10(%rbp)
    59c4:	48 83 7d f0 00       	cmpq   $0x0,-0x10(%rbp)
    59c9:	74 26                	je     59f1 <safe_mod_func_int64_t_s_s+0x3d>
    59cb:	48 b8 00 00 00 00 00 	movabs $0x8000000000000000,%rax
    59d2:	00 00 80 
    59d5:	48 39 45 f8          	cmp    %rax,-0x8(%rbp)
    59d9:	75 07                	jne    59e2 <safe_mod_func_int64_t_s_s+0x2e>
    59db:	48 83 7d f0 ff       	cmpq   $0xffffffffffffffff,-0x10(%rbp)
    59e0:	74 0f                	je     59f1 <safe_mod_func_int64_t_s_s+0x3d>
    59e2:	48 8b 45 f8          	mov    -0x8(%rbp),%rax
    59e6:	48 99                	cqto   
    59e8:	48 f7 7d f0          	idivq  -0x10(%rbp)
    59ec:	48 89 d0             	mov    %rdx,%rax
    59ef:	eb 04                	jmp    59f5 <safe_mod_func_int64_t_s_s+0x41>
    59f1:	48 8b 45 f8          	mov    -0x8(%rbp),%rax
    59f5:	5d                   	pop    %rbp
    59f6:	c3                   	retq   

00000000000059f7 <safe_div_func_int64_t_s_s>:
    59f7:	f3 0f 1e fa          	endbr64 
    59fb:	55                   	push   %rbp
    59fc:	48 89 e5             	mov    %rsp,%rbp
    59ff:	48 89 7d f8          	mov    %rdi,-0x8(%rbp)
    5a03:	48 89 75 f0          	mov    %rsi,-0x10(%rbp)
    5a07:	48 83 7d f0 00       	cmpq   $0x0,-0x10(%rbp)
    5a0c:	74 23                	je     5a31 <safe_div_func_int64_t_s_s+0x3a>
    5a0e:	48 b8 00 00 00 00 00 	movabs $0x8000000000000000,%rax
    5a15:	00 00 80 
    5a18:	48 39 45 f8          	cmp    %rax,-0x8(%rbp)
    5a1c:	75 07                	jne    5a25 <safe_div_func_int64_t_s_s+0x2e>
    5a1e:	48 83 7d f0 ff       	cmpq   $0xffffffffffffffff,-0x10(%rbp)
    5a23:	74 0c                	je     5a31 <safe_div_func_int64_t_s_s+0x3a>
    5a25:	48 8b 45 f8          	mov    -0x8(%rbp),%rax
    5a29:	48 99                	cqto   
    5a2b:	48 f7 7d f0          	idivq  -0x10(%rbp)
    5a2f:	eb 04                	jmp    5a35 <safe_div_func_int64_t_s_s+0x3e>
    5a31:	48 8b 45 f8          	mov    -0x8(%rbp),%rax
    5a35:	5d                   	pop    %rbp
    5a36:	c3                   	retq   

0000000000005a37 <safe_lshift_func_int64_t_s_s>:
    5a37:	f3 0f 1e fa          	endbr64 
    5a3b:	55                   	push   %rbp
    5a3c:	48 89 e5             	mov    %rsp,%rbp
    5a3f:	48 89 7d f8          	mov    %rdi,-0x8(%rbp)
    5a43:	89 75 f4             	mov    %esi,-0xc(%rbp)
    5a46:	48 83 7d f8 00       	cmpq   $0x0,-0x8(%rbp)
    5a4b:	78 38                	js     5a85 <safe_lshift_func_int64_t_s_s+0x4e>
    5a4d:	83 7d f4 00          	cmpl   $0x0,-0xc(%rbp)
    5a51:	78 32                	js     5a85 <safe_lshift_func_int64_t_s_s+0x4e>
    5a53:	83 7d f4 1f          	cmpl   $0x1f,-0xc(%rbp)
    5a57:	7f 2c                	jg     5a85 <safe_lshift_func_int64_t_s_s+0x4e>
    5a59:	8b 45 f4             	mov    -0xc(%rbp),%eax
    5a5c:	48 ba ff ff ff ff ff 	movabs $0x7fffffffffffffff,%rdx
    5a63:	ff ff 7f 
    5a66:	89 c1                	mov    %eax,%ecx
    5a68:	48 d3 fa             	sar    %cl,%rdx
    5a6b:	48 89 d0             	mov    %rdx,%rax
    5a6e:	48 39 45 f8          	cmp    %rax,-0x8(%rbp)
    5a72:	7f 11                	jg     5a85 <safe_lshift_func_int64_t_s_s+0x4e>
    5a74:	8b 45 f4             	mov    -0xc(%rbp),%eax
    5a77:	48 8b 55 f8          	mov    -0x8(%rbp),%rdx
    5a7b:	89 c1                	mov    %eax,%ecx
    5a7d:	48 d3 e2             	shl    %cl,%rdx
    5a80:	48 89 d0             	mov    %rdx,%rax
    5a83:	eb 04                	jmp    5a89 <safe_lshift_func_int64_t_s_s+0x52>
    5a85:	48 8b 45 f8          	mov    -0x8(%rbp),%rax
    5a89:	5d                   	pop    %rbp
    5a8a:	c3                   	retq   

0000000000005a8b <safe_lshift_func_int64_t_s_u>:
    5a8b:	f3 0f 1e fa          	endbr64 
    5a8f:	55                   	push   %rbp
    5a90:	48 89 e5             	mov    %rsp,%rbp
    5a93:	48 89 7d f8          	mov    %rdi,-0x8(%rbp)
    5a97:	89 75 f4             	mov    %esi,-0xc(%rbp)
    5a9a:	48 83 7d f8 00       	cmpq   $0x0,-0x8(%rbp)
    5a9f:	78 32                	js     5ad3 <safe_lshift_func_int64_t_s_u+0x48>
    5aa1:	83 7d f4 1f          	cmpl   $0x1f,-0xc(%rbp)
    5aa5:	77 2c                	ja     5ad3 <safe_lshift_func_int64_t_s_u+0x48>
    5aa7:	8b 45 f4             	mov    -0xc(%rbp),%eax
    5aaa:	48 ba ff ff ff ff ff 	movabs $0x7fffffffffffffff,%rdx
    5ab1:	ff ff 7f 
    5ab4:	89 c1                	mov    %eax,%ecx
    5ab6:	48 d3 fa             	sar    %cl,%rdx
    5ab9:	48 89 d0             	mov    %rdx,%rax
    5abc:	48 39 45 f8          	cmp    %rax,-0x8(%rbp)
    5ac0:	7f 11                	jg     5ad3 <safe_lshift_func_int64_t_s_u+0x48>
    5ac2:	8b 45 f4             	mov    -0xc(%rbp),%eax
    5ac5:	48 8b 55 f8          	mov    -0x8(%rbp),%rdx
    5ac9:	89 c1                	mov    %eax,%ecx
    5acb:	48 d3 e2             	shl    %cl,%rdx
    5ace:	48 89 d0             	mov    %rdx,%rax
    5ad1:	eb 04                	jmp    5ad7 <safe_lshift_func_int64_t_s_u+0x4c>
    5ad3:	48 8b 45 f8          	mov    -0x8(%rbp),%rax
    5ad7:	5d                   	pop    %rbp
    5ad8:	c3                   	retq   

0000000000005ad9 <safe_rshift_func_int64_t_s_s>:
    5ad9:	f3 0f 1e fa          	endbr64 
    5add:	55                   	push   %rbp
    5ade:	48 89 e5             	mov    %rsp,%rbp
    5ae1:	48 89 7d f8          	mov    %rdi,-0x8(%rbp)
    5ae5:	89 75 f4             	mov    %esi,-0xc(%rbp)
    5ae8:	48 83 7d f8 00       	cmpq   $0x0,-0x8(%rbp)
    5aed:	78 1d                	js     5b0c <safe_rshift_func_int64_t_s_s+0x33>
    5aef:	83 7d f4 00          	cmpl   $0x0,-0xc(%rbp)
    5af3:	78 17                	js     5b0c <safe_rshift_func_int64_t_s_s+0x33>
    5af5:	83 7d f4 1f          	cmpl   $0x1f,-0xc(%rbp)
    5af9:	7f 11                	jg     5b0c <safe_rshift_func_int64_t_s_s+0x33>
    5afb:	8b 45 f4             	mov    -0xc(%rbp),%eax
    5afe:	48 8b 55 f8          	mov    -0x8(%rbp),%rdx
    5b02:	89 c1                	mov    %eax,%ecx
    5b04:	48 d3 fa             	sar    %cl,%rdx
    5b07:	48 89 d0             	mov    %rdx,%rax
    5b0a:	eb 04                	jmp    5b10 <safe_rshift_func_int64_t_s_s+0x37>
    5b0c:	48 8b 45 f8          	mov    -0x8(%rbp),%rax
    5b10:	5d                   	pop    %rbp
    5b11:	c3                   	retq   

0000000000005b12 <safe_rshift_func_int64_t_s_u>:
    5b12:	f3 0f 1e fa          	endbr64 
    5b16:	55                   	push   %rbp
    5b17:	48 89 e5             	mov    %rsp,%rbp
    5b1a:	48 89 7d f8          	mov    %rdi,-0x8(%rbp)
    5b1e:	89 75 f4             	mov    %esi,-0xc(%rbp)
    5b21:	48 83 7d f8 00       	cmpq   $0x0,-0x8(%rbp)
    5b26:	78 17                	js     5b3f <safe_rshift_func_int64_t_s_u+0x2d>
    5b28:	83 7d f4 1f          	cmpl   $0x1f,-0xc(%rbp)
    5b2c:	77 11                	ja     5b3f <safe_rshift_func_int64_t_s_u+0x2d>
    5b2e:	8b 45 f4             	mov    -0xc(%rbp),%eax
    5b31:	48 8b 55 f8          	mov    -0x8(%rbp),%rdx
    5b35:	89 c1                	mov    %eax,%ecx
    5b37:	48 d3 fa             	sar    %cl,%rdx
    5b3a:	48 89 d0             	mov    %rdx,%rax
    5b3d:	eb 04                	jmp    5b43 <safe_rshift_func_int64_t_s_u+0x31>
    5b3f:	48 8b 45 f8          	mov    -0x8(%rbp),%rax
    5b43:	5d                   	pop    %rbp
    5b44:	c3                   	retq   

0000000000005b45 <safe_unary_minus_func_uint8_t_u>:
    5b45:	f3 0f 1e fa          	endbr64 
    5b49:	55                   	push   %rbp
    5b4a:	48 89 e5             	mov    %rsp,%rbp
    5b4d:	89 f8                	mov    %edi,%eax
    5b4f:	88 45 fc             	mov    %al,-0x4(%rbp)
    5b52:	0f b6 45 fc          	movzbl -0x4(%rbp),%eax
    5b56:	f7 d8                	neg    %eax
    5b58:	5d                   	pop    %rbp
    5b59:	c3                   	retq   

0000000000005b5a <safe_add_func_uint8_t_u_u>:
    5b5a:	f3 0f 1e fa          	endbr64 
    5b5e:	55                   	push   %rbp
    5b5f:	48 89 e5             	mov    %rsp,%rbp
    5b62:	89 fa                	mov    %edi,%edx
    5b64:	89 f0                	mov    %esi,%eax
    5b66:	88 55 fc             	mov    %dl,-0x4(%rbp)
    5b69:	88 45 f8             	mov    %al,-0x8(%rbp)
    5b6c:	0f b6 55 fc          	movzbl -0x4(%rbp),%edx
    5b70:	0f b6 45 f8          	movzbl -0x8(%rbp),%eax
    5b74:	01 d0                	add    %edx,%eax
    5b76:	5d                   	pop    %rbp
    5b77:	c3                   	retq   

0000000000005b78 <safe_sub_func_uint8_t_u_u>:
    5b78:	f3 0f 1e fa          	endbr64 
    5b7c:	55                   	push   %rbp
    5b7d:	48 89 e5             	mov    %rsp,%rbp
    5b80:	89 fa                	mov    %edi,%edx
    5b82:	89 f0                	mov    %esi,%eax
    5b84:	88 55 fc             	mov    %dl,-0x4(%rbp)
    5b87:	88 45 f8             	mov    %al,-0x8(%rbp)
    5b8a:	0f b6 45 fc          	movzbl -0x4(%rbp),%eax
    5b8e:	2a 45 f8             	sub    -0x8(%rbp),%al
    5b91:	5d                   	pop    %rbp
    5b92:	c3                   	retq   

0000000000005b93 <safe_mul_func_uint8_t_u_u>:
    5b93:	f3 0f 1e fa          	endbr64 
    5b97:	55                   	push   %rbp
    5b98:	48 89 e5             	mov    %rsp,%rbp
    5b9b:	89 fa                	mov    %edi,%edx
    5b9d:	89 f0                	mov    %esi,%eax
    5b9f:	88 55 fc             	mov    %dl,-0x4(%rbp)
    5ba2:	88 45 f8             	mov    %al,-0x8(%rbp)
    5ba5:	0f b6 45 fc          	movzbl -0x4(%rbp),%eax
    5ba9:	f6 65 f8             	mulb   -0x8(%rbp)
    5bac:	5d                   	pop    %rbp
    5bad:	c3                   	retq   

0000000000005bae <safe_mod_func_uint8_t_u_u>:
    5bae:	f3 0f 1e fa          	endbr64 
    5bb2:	55                   	push   %rbp
    5bb3:	48 89 e5             	mov    %rsp,%rbp
    5bb6:	89 fa                	mov    %edi,%edx
    5bb8:	89 f0                	mov    %esi,%eax
    5bba:	88 55 fc             	mov    %dl,-0x4(%rbp)
    5bbd:	88 45 f8             	mov    %al,-0x8(%rbp)
    5bc0:	80 7d f8 00          	cmpb   $0x0,-0x8(%rbp)
    5bc4:	74 0f                	je     5bd5 <safe_mod_func_uint8_t_u_u+0x27>
    5bc6:	0f b6 45 fc          	movzbl -0x4(%rbp),%eax
    5bca:	0f b6 c0             	movzbl %al,%eax
    5bcd:	f6 75 f8             	divb   -0x8(%rbp)
    5bd0:	0f b6 c4             	movzbl %ah,%eax
    5bd3:	eb 04                	jmp    5bd9 <safe_mod_func_uint8_t_u_u+0x2b>
    5bd5:	0f b6 45 fc          	movzbl -0x4(%rbp),%eax
    5bd9:	5d                   	pop    %rbp
    5bda:	c3                   	retq   

0000000000005bdb <safe_div_func_uint8_t_u_u>:
    5bdb:	f3 0f 1e fa          	endbr64 
    5bdf:	55                   	push   %rbp
    5be0:	48 89 e5             	mov    %rsp,%rbp
    5be3:	89 fa                	mov    %edi,%edx
    5be5:	89 f0                	mov    %esi,%eax
    5be7:	88 55 fc             	mov    %dl,-0x4(%rbp)
    5bea:	88 45 f8             	mov    %al,-0x8(%rbp)
    5bed:	80 7d f8 00          	cmpb   $0x0,-0x8(%rbp)
    5bf1:	74 0c                	je     5bff <safe_div_func_uint8_t_u_u+0x24>
    5bf3:	0f b6 45 fc          	movzbl -0x4(%rbp),%eax
    5bf7:	0f b6 c0             	movzbl %al,%eax
    5bfa:	f6 75 f8             	divb   -0x8(%rbp)
    5bfd:	eb 04                	jmp    5c03 <safe_div_func_uint8_t_u_u+0x28>
    5bff:	0f b6 45 fc          	movzbl -0x4(%rbp),%eax
    5c03:	5d                   	pop    %rbp
    5c04:	c3                   	retq   

0000000000005c05 <safe_lshift_func_uint8_t_u_s>:
    5c05:	f3 0f 1e fa          	endbr64 
    5c09:	55                   	push   %rbp
    5c0a:	48 89 e5             	mov    %rsp,%rbp
    5c0d:	89 f8                	mov    %edi,%eax
    5c0f:	89 75 f8             	mov    %esi,-0x8(%rbp)
    5c12:	88 45 fc             	mov    %al,-0x4(%rbp)
    5c15:	83 7d f8 00          	cmpl   $0x0,-0x8(%rbp)
    5c19:	78 2b                	js     5c46 <safe_lshift_func_uint8_t_u_s+0x41>
    5c1b:	83 7d f8 1f          	cmpl   $0x1f,-0x8(%rbp)
    5c1f:	7f 25                	jg     5c46 <safe_lshift_func_uint8_t_u_s+0x41>
    5c21:	0f b6 55 fc          	movzbl -0x4(%rbp),%edx
    5c25:	8b 45 f8             	mov    -0x8(%rbp),%eax
    5c28:	be ff 00 00 00       	mov    $0xff,%esi
    5c2d:	89 c1                	mov    %eax,%ecx
    5c2f:	d3 fe                	sar    %cl,%esi
    5c31:	89 f0                	mov    %esi,%eax
    5c33:	39 c2                	cmp    %eax,%edx
    5c35:	7f 0f                	jg     5c46 <safe_lshift_func_uint8_t_u_s+0x41>
    5c37:	0f b6 55 fc          	movzbl -0x4(%rbp),%edx
    5c3b:	8b 45 f8             	mov    -0x8(%rbp),%eax
    5c3e:	89 c1                	mov    %eax,%ecx
    5c40:	d3 e2                	shl    %cl,%edx
    5c42:	89 d0                	mov    %edx,%eax
    5c44:	eb 04                	jmp    5c4a <safe_lshift_func_uint8_t_u_s+0x45>
    5c46:	0f b6 45 fc          	movzbl -0x4(%rbp),%eax
    5c4a:	5d                   	pop    %rbp
    5c4b:	c3                   	retq   

0000000000005c4c <safe_lshift_func_uint8_t_u_u>:
    5c4c:	f3 0f 1e fa          	endbr64 
    5c50:	55                   	push   %rbp
    5c51:	48 89 e5             	mov    %rsp,%rbp
    5c54:	89 f8                	mov    %edi,%eax
    5c56:	89 75 f8             	mov    %esi,-0x8(%rbp)
    5c59:	88 45 fc             	mov    %al,-0x4(%rbp)
    5c5c:	83 7d f8 1f          	cmpl   $0x1f,-0x8(%rbp)
    5c60:	77 25                	ja     5c87 <safe_lshift_func_uint8_t_u_u+0x3b>
    5c62:	0f b6 55 fc          	movzbl -0x4(%rbp),%edx
    5c66:	8b 45 f8             	mov    -0x8(%rbp),%eax
    5c69:	be ff 00 00 00       	mov    $0xff,%esi
    5c6e:	89 c1                	mov    %eax,%ecx
    5c70:	d3 fe                	sar    %cl,%esi
    5c72:	89 f0                	mov    %esi,%eax
    5c74:	39 c2                	cmp    %eax,%edx
    5c76:	7f 0f                	jg     5c87 <safe_lshift_func_uint8_t_u_u+0x3b>
    5c78:	0f b6 55 fc          	movzbl -0x4(%rbp),%edx
    5c7c:	8b 45 f8             	mov    -0x8(%rbp),%eax
    5c7f:	89 c1                	mov    %eax,%ecx
    5c81:	d3 e2                	shl    %cl,%edx
    5c83:	89 d0                	mov    %edx,%eax
    5c85:	eb 04                	jmp    5c8b <safe_lshift_func_uint8_t_u_u+0x3f>
    5c87:	0f b6 45 fc          	movzbl -0x4(%rbp),%eax
    5c8b:	5d                   	pop    %rbp
    5c8c:	c3                   	retq   

0000000000005c8d <safe_rshift_func_uint8_t_u_s>:
    5c8d:	f3 0f 1e fa          	endbr64 
    5c91:	55                   	push   %rbp
    5c92:	48 89 e5             	mov    %rsp,%rbp
    5c95:	89 f8                	mov    %edi,%eax
    5c97:	89 75 f8             	mov    %esi,-0x8(%rbp)
    5c9a:	88 45 fc             	mov    %al,-0x4(%rbp)
    5c9d:	83 7d f8 00          	cmpl   $0x0,-0x8(%rbp)
    5ca1:	78 15                	js     5cb8 <safe_rshift_func_uint8_t_u_s+0x2b>
    5ca3:	83 7d f8 1f          	cmpl   $0x1f,-0x8(%rbp)
    5ca7:	7f 0f                	jg     5cb8 <safe_rshift_func_uint8_t_u_s+0x2b>
    5ca9:	0f b6 55 fc          	movzbl -0x4(%rbp),%edx
    5cad:	8b 45 f8             	mov    -0x8(%rbp),%eax
    5cb0:	89 c1                	mov    %eax,%ecx
    5cb2:	d3 fa                	sar    %cl,%edx
    5cb4:	89 d0                	mov    %edx,%eax
    5cb6:	eb 04                	jmp    5cbc <safe_rshift_func_uint8_t_u_s+0x2f>
    5cb8:	0f b6 45 fc          	movzbl -0x4(%rbp),%eax
    5cbc:	5d                   	pop    %rbp
    5cbd:	c3                   	retq   

0000000000005cbe <safe_rshift_func_uint8_t_u_u>:
    5cbe:	f3 0f 1e fa          	endbr64 
    5cc2:	55                   	push   %rbp
    5cc3:	48 89 e5             	mov    %rsp,%rbp
    5cc6:	89 f8                	mov    %edi,%eax
    5cc8:	89 75 f8             	mov    %esi,-0x8(%rbp)
    5ccb:	88 45 fc             	mov    %al,-0x4(%rbp)
    5cce:	83 7d f8 1f          	cmpl   $0x1f,-0x8(%rbp)
    5cd2:	77 0f                	ja     5ce3 <safe_rshift_func_uint8_t_u_u+0x25>
    5cd4:	0f b6 55 fc          	movzbl -0x4(%rbp),%edx
    5cd8:	8b 45 f8             	mov    -0x8(%rbp),%eax
    5cdb:	89 c1                	mov    %eax,%ecx
    5cdd:	d3 fa                	sar    %cl,%edx
    5cdf:	89 d0                	mov    %edx,%eax
    5ce1:	eb 04                	jmp    5ce7 <safe_rshift_func_uint8_t_u_u+0x29>
    5ce3:	0f b6 45 fc          	movzbl -0x4(%rbp),%eax
    5ce7:	5d                   	pop    %rbp
    5ce8:	c3                   	retq   

0000000000005ce9 <safe_unary_minus_func_uint16_t_u>:
    5ce9:	f3 0f 1e fa          	endbr64 
    5ced:	55                   	push   %rbp
    5cee:	48 89 e5             	mov    %rsp,%rbp
    5cf1:	89 f8                	mov    %edi,%eax
    5cf3:	66 89 45 fc          	mov    %ax,-0x4(%rbp)
    5cf7:	0f b7 45 fc          	movzwl -0x4(%rbp),%eax
    5cfb:	f7 d8                	neg    %eax
    5cfd:	5d                   	pop    %rbp
    5cfe:	c3                   	retq   

0000000000005cff <safe_add_func_uint16_t_u_u>:
    5cff:	f3 0f 1e fa          	endbr64 
    5d03:	55                   	push   %rbp
    5d04:	48 89 e5             	mov    %rsp,%rbp
    5d07:	89 fa                	mov    %edi,%edx
    5d09:	89 f0                	mov    %esi,%eax
    5d0b:	66 89 55 fc          	mov    %dx,-0x4(%rbp)
    5d0f:	66 89 45 f8          	mov    %ax,-0x8(%rbp)
    5d13:	0f b7 55 fc          	movzwl -0x4(%rbp),%edx
    5d17:	0f b7 45 f8          	movzwl -0x8(%rbp),%eax
    5d1b:	01 d0                	add    %edx,%eax
    5d1d:	5d                   	pop    %rbp
    5d1e:	c3                   	retq   

0000000000005d1f <safe_sub_func_uint16_t_u_u>:
    5d1f:	f3 0f 1e fa          	endbr64 
    5d23:	55                   	push   %rbp
    5d24:	48 89 e5             	mov    %rsp,%rbp
    5d27:	89 fa                	mov    %edi,%edx
    5d29:	89 f0                	mov    %esi,%eax
    5d2b:	66 89 55 fc          	mov    %dx,-0x4(%rbp)
    5d2f:	66 89 45 f8          	mov    %ax,-0x8(%rbp)
    5d33:	0f b7 45 fc          	movzwl -0x4(%rbp),%eax
    5d37:	66 2b 45 f8          	sub    -0x8(%rbp),%ax
    5d3b:	5d                   	pop    %rbp
    5d3c:	c3                   	retq   

0000000000005d3d <safe_mul_func_uint16_t_u_u>:
    5d3d:	f3 0f 1e fa          	endbr64 
    5d41:	55                   	push   %rbp
    5d42:	48 89 e5             	mov    %rsp,%rbp
    5d45:	89 fa                	mov    %edi,%edx
    5d47:	89 f0                	mov    %esi,%eax
    5d49:	66 89 55 fc          	mov    %dx,-0x4(%rbp)
    5d4d:	66 89 45 f8          	mov    %ax,-0x8(%rbp)
    5d51:	0f b7 45 fc          	movzwl -0x4(%rbp),%eax
    5d55:	66 0f af 45 f8       	imul   -0x8(%rbp),%ax
    5d5a:	5d                   	pop    %rbp
    5d5b:	c3                   	retq   

0000000000005d5c <safe_mod_func_uint16_t_u_u>:
    5d5c:	f3 0f 1e fa          	endbr64 
    5d60:	55                   	push   %rbp
    5d61:	48 89 e5             	mov    %rsp,%rbp
    5d64:	89 fa                	mov    %edi,%edx
    5d66:	89 f0                	mov    %esi,%eax
    5d68:	66 89 55 fc          	mov    %dx,-0x4(%rbp)
    5d6c:	66 89 45 f8          	mov    %ax,-0x8(%rbp)
    5d70:	66 83 7d f8 00       	cmpw   $0x0,-0x8(%rbp)
    5d75:	74 11                	je     5d88 <safe_mod_func_uint16_t_u_u+0x2c>
    5d77:	0f b7 45 fc          	movzwl -0x4(%rbp),%eax
    5d7b:	ba 00 00 00 00       	mov    $0x0,%edx
    5d80:	66 f7 75 f8          	divw   -0x8(%rbp)
    5d84:	89 d0                	mov    %edx,%eax
    5d86:	eb 04                	jmp    5d8c <safe_mod_func_uint16_t_u_u+0x30>
    5d88:	0f b7 45 fc          	movzwl -0x4(%rbp),%eax
    5d8c:	5d                   	pop    %rbp
    5d8d:	c3                   	retq   

0000000000005d8e <safe_div_func_uint16_t_u_u>:
    5d8e:	f3 0f 1e fa          	endbr64 
    5d92:	55                   	push   %rbp
    5d93:	48 89 e5             	mov    %rsp,%rbp
    5d96:	89 fa                	mov    %edi,%edx
    5d98:	89 f0                	mov    %esi,%eax
    5d9a:	66 89 55 fc          	mov    %dx,-0x4(%rbp)
    5d9e:	66 89 45 f8          	mov    %ax,-0x8(%rbp)
    5da2:	66 83 7d f8 00       	cmpw   $0x0,-0x8(%rbp)
    5da7:	74 0f                	je     5db8 <safe_div_func_uint16_t_u_u+0x2a>
    5da9:	0f b7 45 fc          	movzwl -0x4(%rbp),%eax
    5dad:	ba 00 00 00 00       	mov    $0x0,%edx
    5db2:	66 f7 75 f8          	divw   -0x8(%rbp)
    5db6:	eb 04                	jmp    5dbc <safe_div_func_uint16_t_u_u+0x2e>
    5db8:	0f b7 45 fc          	movzwl -0x4(%rbp),%eax
    5dbc:	5d                   	pop    %rbp
    5dbd:	c3                   	retq   

0000000000005dbe <safe_lshift_func_uint16_t_u_s>:
    5dbe:	f3 0f 1e fa          	endbr64 
    5dc2:	55                   	push   %rbp
    5dc3:	48 89 e5             	mov    %rsp,%rbp
    5dc6:	89 f8                	mov    %edi,%eax
    5dc8:	89 75 f8             	mov    %esi,-0x8(%rbp)
    5dcb:	66 89 45 fc          	mov    %ax,-0x4(%rbp)
    5dcf:	83 7d f8 00          	cmpl   $0x0,-0x8(%rbp)
    5dd3:	78 2b                	js     5e00 <safe_lshift_func_uint16_t_u_s+0x42>
    5dd5:	83 7d f8 1f          	cmpl   $0x1f,-0x8(%rbp)
    5dd9:	7f 25                	jg     5e00 <safe_lshift_func_uint16_t_u_s+0x42>
    5ddb:	0f b7 55 fc          	movzwl -0x4(%rbp),%edx
    5ddf:	8b 45 f8             	mov    -0x8(%rbp),%eax
    5de2:	be ff ff 00 00       	mov    $0xffff,%esi
    5de7:	89 c1                	mov    %eax,%ecx
    5de9:	d3 fe                	sar    %cl,%esi
    5deb:	89 f0                	mov    %esi,%eax
    5ded:	39 c2                	cmp    %eax,%edx
    5def:	7f 0f                	jg     5e00 <safe_lshift_func_uint16_t_u_s+0x42>
    5df1:	0f b7 55 fc          	movzwl -0x4(%rbp),%edx
    5df5:	8b 45 f8             	mov    -0x8(%rbp),%eax
    5df8:	89 c1                	mov    %eax,%ecx
    5dfa:	d3 e2                	shl    %cl,%edx
    5dfc:	89 d0                	mov    %edx,%eax
    5dfe:	eb 04                	jmp    5e04 <safe_lshift_func_uint16_t_u_s+0x46>
    5e00:	0f b7 45 fc          	movzwl -0x4(%rbp),%eax
    5e04:	5d                   	pop    %rbp
    5e05:	c3                   	retq   

0000000000005e06 <safe_lshift_func_uint16_t_u_u>:
    5e06:	f3 0f 1e fa          	endbr64 
    5e0a:	55                   	push   %rbp
    5e0b:	48 89 e5             	mov    %rsp,%rbp
    5e0e:	89 f8                	mov    %edi,%eax
    5e10:	89 75 f8             	mov    %esi,-0x8(%rbp)
    5e13:	66 89 45 fc          	mov    %ax,-0x4(%rbp)
    5e17:	83 7d f8 1f          	cmpl   $0x1f,-0x8(%rbp)
    5e1b:	77 25                	ja     5e42 <safe_lshift_func_uint16_t_u_u+0x3c>
    5e1d:	0f b7 55 fc          	movzwl -0x4(%rbp),%edx
    5e21:	8b 45 f8             	mov    -0x8(%rbp),%eax
    5e24:	be ff ff 00 00       	mov    $0xffff,%esi
    5e29:	89 c1                	mov    %eax,%ecx
    5e2b:	d3 fe                	sar    %cl,%esi
    5e2d:	89 f0                	mov    %esi,%eax
    5e2f:	39 c2                	cmp    %eax,%edx
    5e31:	7f 0f                	jg     5e42 <safe_lshift_func_uint16_t_u_u+0x3c>
    5e33:	0f b7 55 fc          	movzwl -0x4(%rbp),%edx
    5e37:	8b 45 f8             	mov    -0x8(%rbp),%eax
    5e3a:	89 c1                	mov    %eax,%ecx
    5e3c:	d3 e2                	shl    %cl,%edx
    5e3e:	89 d0                	mov    %edx,%eax
    5e40:	eb 04                	jmp    5e46 <safe_lshift_func_uint16_t_u_u+0x40>
    5e42:	0f b7 45 fc          	movzwl -0x4(%rbp),%eax
    5e46:	5d                   	pop    %rbp
    5e47:	c3                   	retq   

0000000000005e48 <safe_rshift_func_uint16_t_u_s>:
    5e48:	f3 0f 1e fa          	endbr64 
    5e4c:	55                   	push   %rbp
    5e4d:	48 89 e5             	mov    %rsp,%rbp
    5e50:	89 f8                	mov    %edi,%eax
    5e52:	89 75 f8             	mov    %esi,-0x8(%rbp)
    5e55:	66 89 45 fc          	mov    %ax,-0x4(%rbp)
    5e59:	83 7d f8 00          	cmpl   $0x0,-0x8(%rbp)
    5e5d:	78 15                	js     5e74 <safe_rshift_func_uint16_t_u_s+0x2c>
    5e5f:	83 7d f8 1f          	cmpl   $0x1f,-0x8(%rbp)
    5e63:	7f 0f                	jg     5e74 <safe_rshift_func_uint16_t_u_s+0x2c>
    5e65:	0f b7 55 fc          	movzwl -0x4(%rbp),%edx
    5e69:	8b 45 f8             	mov    -0x8(%rbp),%eax
    5e6c:	89 c1                	mov    %eax,%ecx
    5e6e:	d3 fa                	sar    %cl,%edx
    5e70:	89 d0                	mov    %edx,%eax
    5e72:	eb 04                	jmp    5e78 <safe_rshift_func_uint16_t_u_s+0x30>
    5e74:	0f b7 45 fc          	movzwl -0x4(%rbp),%eax
    5e78:	5d                   	pop    %rbp
    5e79:	c3                   	retq   

0000000000005e7a <safe_rshift_func_uint16_t_u_u>:
    5e7a:	f3 0f 1e fa          	endbr64 
    5e7e:	55                   	push   %rbp
    5e7f:	48 89 e5             	mov    %rsp,%rbp
    5e82:	89 f8                	mov    %edi,%eax
    5e84:	89 75 f8             	mov    %esi,-0x8(%rbp)
    5e87:	66 89 45 fc          	mov    %ax,-0x4(%rbp)
    5e8b:	83 7d f8 1f          	cmpl   $0x1f,-0x8(%rbp)
    5e8f:	77 0f                	ja     5ea0 <safe_rshift_func_uint16_t_u_u+0x26>
    5e91:	0f b7 55 fc          	movzwl -0x4(%rbp),%edx
    5e95:	8b 45 f8             	mov    -0x8(%rbp),%eax
    5e98:	89 c1                	mov    %eax,%ecx
    5e9a:	d3 fa                	sar    %cl,%edx
    5e9c:	89 d0                	mov    %edx,%eax
    5e9e:	eb 04                	jmp    5ea4 <safe_rshift_func_uint16_t_u_u+0x2a>
    5ea0:	0f b7 45 fc          	movzwl -0x4(%rbp),%eax
    5ea4:	5d                   	pop    %rbp
    5ea5:	c3                   	retq   

0000000000005ea6 <safe_unary_minus_func_uint32_t_u>:
    5ea6:	f3 0f 1e fa          	endbr64 
    5eaa:	55                   	push   %rbp
    5eab:	48 89 e5             	mov    %rsp,%rbp
    5eae:	89 7d fc             	mov    %edi,-0x4(%rbp)
    5eb1:	8b 45 fc             	mov    -0x4(%rbp),%eax
    5eb4:	f7 d8                	neg    %eax
    5eb6:	5d                   	pop    %rbp
    5eb7:	c3                   	retq   

0000000000005eb8 <safe_add_func_uint32_t_u_u>:
    5eb8:	f3 0f 1e fa          	endbr64 
    5ebc:	55                   	push   %rbp
    5ebd:	48 89 e5             	mov    %rsp,%rbp
    5ec0:	89 7d fc             	mov    %edi,-0x4(%rbp)
    5ec3:	89 75 f8             	mov    %esi,-0x8(%rbp)
    5ec6:	8b 55 fc             	mov    -0x4(%rbp),%edx
    5ec9:	8b 45 f8             	mov    -0x8(%rbp),%eax
    5ecc:	01 d0                	add    %edx,%eax
    5ece:	5d                   	pop    %rbp
    5ecf:	c3                   	retq   

0000000000005ed0 <safe_sub_func_uint32_t_u_u>:
    5ed0:	f3 0f 1e fa          	endbr64 
    5ed4:	55                   	push   %rbp
    5ed5:	48 89 e5             	mov    %rsp,%rbp
    5ed8:	89 7d fc             	mov    %edi,-0x4(%rbp)
    5edb:	89 75 f8             	mov    %esi,-0x8(%rbp)
    5ede:	8b 45 fc             	mov    -0x4(%rbp),%eax
    5ee1:	2b 45 f8             	sub    -0x8(%rbp),%eax
    5ee4:	5d                   	pop    %rbp
    5ee5:	c3                   	retq   

0000000000005ee6 <safe_mul_func_uint32_t_u_u>:
    5ee6:	f3 0f 1e fa          	endbr64 
    5eea:	55                   	push   %rbp
    5eeb:	48 89 e5             	mov    %rsp,%rbp
    5eee:	89 7d fc             	mov    %edi,-0x4(%rbp)
    5ef1:	89 75 f8             	mov    %esi,-0x8(%rbp)
    5ef4:	8b 45 fc             	mov    -0x4(%rbp),%eax
    5ef7:	0f af 45 f8          	imul   -0x8(%rbp),%eax
    5efb:	5d                   	pop    %rbp
    5efc:	c3                   	retq   

0000000000005efd <safe_mod_func_uint32_t_u_u>:
    5efd:	f3 0f 1e fa          	endbr64 
    5f01:	55                   	push   %rbp
    5f02:	48 89 e5             	mov    %rsp,%rbp
    5f05:	89 7d fc             	mov    %edi,-0x4(%rbp)
    5f08:	89 75 f8             	mov    %esi,-0x8(%rbp)
    5f0b:	83 7d f8 00          	cmpl   $0x0,-0x8(%rbp)
    5f0f:	74 0f                	je     5f20 <safe_mod_func_uint32_t_u_u+0x23>
    5f11:	8b 45 fc             	mov    -0x4(%rbp),%eax
    5f14:	ba 00 00 00 00       	mov    $0x0,%edx
    5f19:	f7 75 f8             	divl   -0x8(%rbp)
    5f1c:	89 d0                	mov    %edx,%eax
    5f1e:	eb 03                	jmp    5f23 <safe_mod_func_uint32_t_u_u+0x26>
    5f20:	8b 45 fc             	mov    -0x4(%rbp),%eax
    5f23:	5d                   	pop    %rbp
    5f24:	c3                   	retq   

0000000000005f25 <safe_div_func_uint32_t_u_u>:
    5f25:	f3 0f 1e fa          	endbr64 
    5f29:	55                   	push   %rbp
    5f2a:	48 89 e5             	mov    %rsp,%rbp
    5f2d:	89 7d fc             	mov    %edi,-0x4(%rbp)
    5f30:	89 75 f8             	mov    %esi,-0x8(%rbp)
    5f33:	83 7d f8 00          	cmpl   $0x0,-0x8(%rbp)
    5f37:	74 0d                	je     5f46 <safe_div_func_uint32_t_u_u+0x21>
    5f39:	8b 45 fc             	mov    -0x4(%rbp),%eax
    5f3c:	ba 00 00 00 00       	mov    $0x0,%edx
    5f41:	f7 75 f8             	divl   -0x8(%rbp)
    5f44:	eb 03                	jmp    5f49 <safe_div_func_uint32_t_u_u+0x24>
    5f46:	8b 45 fc             	mov    -0x4(%rbp),%eax
    5f49:	5d                   	pop    %rbp
    5f4a:	c3                   	retq   

0000000000005f4b <safe_lshift_func_uint32_t_u_s>:
    5f4b:	f3 0f 1e fa          	endbr64 
    5f4f:	55                   	push   %rbp
    5f50:	48 89 e5             	mov    %rsp,%rbp
    5f53:	89 7d fc             	mov    %edi,-0x4(%rbp)
    5f56:	89 75 f8             	mov    %esi,-0x8(%rbp)
    5f59:	83 7d f8 00          	cmpl   $0x0,-0x8(%rbp)
    5f5d:	78 27                	js     5f86 <safe_lshift_func_uint32_t_u_s+0x3b>
    5f5f:	83 7d f8 1f          	cmpl   $0x1f,-0x8(%rbp)
    5f63:	7f 21                	jg     5f86 <safe_lshift_func_uint32_t_u_s+0x3b>
    5f65:	8b 45 f8             	mov    -0x8(%rbp),%eax
    5f68:	ba ff ff ff ff       	mov    $0xffffffff,%edx
    5f6d:	89 c1                	mov    %eax,%ecx
    5f6f:	d3 ea                	shr    %cl,%edx
    5f71:	89 d0                	mov    %edx,%eax
    5f73:	39 45 fc             	cmp    %eax,-0x4(%rbp)
    5f76:	77 0e                	ja     5f86 <safe_lshift_func_uint32_t_u_s+0x3b>
    5f78:	8b 45 f8             	mov    -0x8(%rbp),%eax
    5f7b:	8b 55 fc             	mov    -0x4(%rbp),%edx
    5f7e:	89 c1                	mov    %eax,%ecx
    5f80:	d3 e2                	shl    %cl,%edx
    5f82:	89 d0                	mov    %edx,%eax
    5f84:	eb 03                	jmp    5f89 <safe_lshift_func_uint32_t_u_s+0x3e>
    5f86:	8b 45 fc             	mov    -0x4(%rbp),%eax
    5f89:	5d                   	pop    %rbp
    5f8a:	c3                   	retq   

0000000000005f8b <safe_lshift_func_uint32_t_u_u>:
    5f8b:	f3 0f 1e fa          	endbr64 
    5f8f:	55                   	push   %rbp
    5f90:	48 89 e5             	mov    %rsp,%rbp
    5f93:	89 7d fc             	mov    %edi,-0x4(%rbp)
    5f96:	89 75 f8             	mov    %esi,-0x8(%rbp)
    5f99:	83 7d f8 1f          	cmpl   $0x1f,-0x8(%rbp)
    5f9d:	77 21                	ja     5fc0 <safe_lshift_func_uint32_t_u_u+0x35>
    5f9f:	8b 45 f8             	mov    -0x8(%rbp),%eax
    5fa2:	ba ff ff ff ff       	mov    $0xffffffff,%edx
    5fa7:	89 c1                	mov    %eax,%ecx
    5fa9:	d3 ea                	shr    %cl,%edx
    5fab:	89 d0                	mov    %edx,%eax
    5fad:	39 45 fc             	cmp    %eax,-0x4(%rbp)
    5fb0:	77 0e                	ja     5fc0 <safe_lshift_func_uint32_t_u_u+0x35>
    5fb2:	8b 45 f8             	mov    -0x8(%rbp),%eax
    5fb5:	8b 55 fc             	mov    -0x4(%rbp),%edx
    5fb8:	89 c1                	mov    %eax,%ecx
    5fba:	d3 e2                	shl    %cl,%edx
    5fbc:	89 d0                	mov    %edx,%eax
    5fbe:	eb 03                	jmp    5fc3 <safe_lshift_func_uint32_t_u_u+0x38>
    5fc0:	8b 45 fc             	mov    -0x4(%rbp),%eax
    5fc3:	5d                   	pop    %rbp
    5fc4:	c3                   	retq   

0000000000005fc5 <safe_rshift_func_uint32_t_u_s>:
    5fc5:	f3 0f 1e fa          	endbr64 
    5fc9:	55                   	push   %rbp
    5fca:	48 89 e5             	mov    %rsp,%rbp
    5fcd:	89 7d fc             	mov    %edi,-0x4(%rbp)
    5fd0:	89 75 f8             	mov    %esi,-0x8(%rbp)
    5fd3:	83 7d f8 00          	cmpl   $0x0,-0x8(%rbp)
    5fd7:	78 14                	js     5fed <safe_rshift_func_uint32_t_u_s+0x28>
    5fd9:	83 7d f8 1f          	cmpl   $0x1f,-0x8(%rbp)
    5fdd:	7f 0e                	jg     5fed <safe_rshift_func_uint32_t_u_s+0x28>
    5fdf:	8b 45 f8             	mov    -0x8(%rbp),%eax
    5fe2:	8b 55 fc             	mov    -0x4(%rbp),%edx
    5fe5:	89 c1                	mov    %eax,%ecx
    5fe7:	d3 ea                	shr    %cl,%edx
    5fe9:	89 d0                	mov    %edx,%eax
    5feb:	eb 03                	jmp    5ff0 <safe_rshift_func_uint32_t_u_s+0x2b>
    5fed:	8b 45 fc             	mov    -0x4(%rbp),%eax
    5ff0:	5d                   	pop    %rbp
    5ff1:	c3                   	retq   

0000000000005ff2 <safe_rshift_func_uint32_t_u_u>:
    5ff2:	f3 0f 1e fa          	endbr64 
    5ff6:	55                   	push   %rbp
    5ff7:	48 89 e5             	mov    %rsp,%rbp
    5ffa:	89 7d fc             	mov    %edi,-0x4(%rbp)
    5ffd:	89 75 f8             	mov    %esi,-0x8(%rbp)
    6000:	83 7d f8 1f          	cmpl   $0x1f,-0x8(%rbp)
    6004:	77 0e                	ja     6014 <safe_rshift_func_uint32_t_u_u+0x22>
    6006:	8b 45 f8             	mov    -0x8(%rbp),%eax
    6009:	8b 55 fc             	mov    -0x4(%rbp),%edx
    600c:	89 c1                	mov    %eax,%ecx
    600e:	d3 ea                	shr    %cl,%edx
    6010:	89 d0                	mov    %edx,%eax
    6012:	eb 03                	jmp    6017 <safe_rshift_func_uint32_t_u_u+0x25>
    6014:	8b 45 fc             	mov    -0x4(%rbp),%eax
    6017:	5d                   	pop    %rbp
    6018:	c3                   	retq   

0000000000006019 <safe_unary_minus_func_uint64_t_u>:
    6019:	f3 0f 1e fa          	endbr64 
    601d:	55                   	push   %rbp
    601e:	48 89 e5             	mov    %rsp,%rbp
    6021:	48 89 7d f8          	mov    %rdi,-0x8(%rbp)
    6025:	48 8b 45 f8          	mov    -0x8(%rbp),%rax
    6029:	48 f7 d8             	neg    %rax
    602c:	5d                   	pop    %rbp
    602d:	c3                   	retq   

000000000000602e <safe_add_func_uint64_t_u_u>:
    602e:	f3 0f 1e fa          	endbr64 
    6032:	55                   	push   %rbp
    6033:	48 89 e5             	mov    %rsp,%rbp
    6036:	48 89 7d f8          	mov    %rdi,-0x8(%rbp)
    603a:	48 89 75 f0          	mov    %rsi,-0x10(%rbp)
    603e:	48 8b 55 f8          	mov    -0x8(%rbp),%rdx
    6042:	48 8b 45 f0          	mov    -0x10(%rbp),%rax
    6046:	48 01 d0             	add    %rdx,%rax
    6049:	5d                   	pop    %rbp
    604a:	c3                   	retq   

000000000000604b <safe_sub_func_uint64_t_u_u>:
    604b:	f3 0f 1e fa          	endbr64 
    604f:	55                   	push   %rbp
    6050:	48 89 e5             	mov    %rsp,%rbp
    6053:	48 89 7d f8          	mov    %rdi,-0x8(%rbp)
    6057:	48 89 75 f0          	mov    %rsi,-0x10(%rbp)
    605b:	48 8b 45 f8          	mov    -0x8(%rbp),%rax
    605f:	48 2b 45 f0          	sub    -0x10(%rbp),%rax
    6063:	5d                   	pop    %rbp
    6064:	c3                   	retq   

0000000000006065 <safe_mul_func_uint64_t_u_u>:
    6065:	f3 0f 1e fa          	endbr64 
    6069:	55                   	push   %rbp
    606a:	48 89 e5             	mov    %rsp,%rbp
    606d:	48 89 7d f8          	mov    %rdi,-0x8(%rbp)
    6071:	48 89 75 f0          	mov    %rsi,-0x10(%rbp)
    6075:	48 8b 45 f8          	mov    -0x8(%rbp),%rax
    6079:	48 0f af 45 f0       	imul   -0x10(%rbp),%rax
    607e:	5d                   	pop    %rbp
    607f:	c3                   	retq   

0000000000006080 <safe_mod_func_uint64_t_u_u>:
    6080:	f3 0f 1e fa          	endbr64 
    6084:	55                   	push   %rbp
    6085:	48 89 e5             	mov    %rsp,%rbp
    6088:	48 89 7d f8          	mov    %rdi,-0x8(%rbp)
    608c:	48 89 75 f0          	mov    %rsi,-0x10(%rbp)
    6090:	48 83 7d f0 00       	cmpq   $0x0,-0x10(%rbp)
    6095:	74 12                	je     60a9 <safe_mod_func_uint64_t_u_u+0x29>
    6097:	48 8b 45 f8          	mov    -0x8(%rbp),%rax
    609b:	ba 00 00 00 00       	mov    $0x0,%edx
    60a0:	48 f7 75 f0          	divq   -0x10(%rbp)
    60a4:	48 89 d0             	mov    %rdx,%rax
    60a7:	eb 04                	jmp    60ad <safe_mod_func_uint64_t_u_u+0x2d>
    60a9:	48 8b 45 f8          	mov    -0x8(%rbp),%rax
    60ad:	5d                   	pop    %rbp
    60ae:	c3                   	retq   

00000000000060af <safe_div_func_uint64_t_u_u>:
    60af:	f3 0f 1e fa          	endbr64 
    60b3:	55                   	push   %rbp
    60b4:	48 89 e5             	mov    %rsp,%rbp
    60b7:	48 89 7d f8          	mov    %rdi,-0x8(%rbp)
    60bb:	48 89 75 f0          	mov    %rsi,-0x10(%rbp)
    60bf:	48 83 7d f0 00       	cmpq   $0x0,-0x10(%rbp)
    60c4:	74 0f                	je     60d5 <safe_div_func_uint64_t_u_u+0x26>
    60c6:	48 8b 45 f8          	mov    -0x8(%rbp),%rax
    60ca:	ba 00 00 00 00       	mov    $0x0,%edx
    60cf:	48 f7 75 f0          	divq   -0x10(%rbp)
    60d3:	eb 04                	jmp    60d9 <safe_div_func_uint64_t_u_u+0x2a>
    60d5:	48 8b 45 f8          	mov    -0x8(%rbp),%rax
    60d9:	5d                   	pop    %rbp
    60da:	c3                   	retq   

00000000000060db <safe_lshift_func_uint64_t_u_s>:
    60db:	f3 0f 1e fa          	endbr64 
    60df:	55                   	push   %rbp
    60e0:	48 89 e5             	mov    %rsp,%rbp
    60e3:	48 89 7d f8          	mov    %rdi,-0x8(%rbp)
    60e7:	89 75 f4             	mov    %esi,-0xc(%rbp)
    60ea:	83 7d f4 00          	cmpl   $0x0,-0xc(%rbp)
    60ee:	78 2f                	js     611f <safe_lshift_func_uint64_t_u_s+0x44>
    60f0:	83 7d f4 1f          	cmpl   $0x1f,-0xc(%rbp)
    60f4:	7f 29                	jg     611f <safe_lshift_func_uint64_t_u_s+0x44>
    60f6:	8b 45 f4             	mov    -0xc(%rbp),%eax
    60f9:	48 c7 c2 ff ff ff ff 	mov    $0xffffffffffffffff,%rdx
    6100:	89 c1                	mov    %eax,%ecx
    6102:	48 d3 ea             	shr    %cl,%rdx
    6105:	48 89 d0             	mov    %rdx,%rax
    6108:	48 39 45 f8          	cmp    %rax,-0x8(%rbp)
    610c:	77 11                	ja     611f <safe_lshift_func_uint64_t_u_s+0x44>
    610e:	8b 45 f4             	mov    -0xc(%rbp),%eax
    6111:	48 8b 55 f8          	mov    -0x8(%rbp),%rdx
    6115:	89 c1                	mov    %eax,%ecx
    6117:	48 d3 e2             	shl    %cl,%rdx
    611a:	48 89 d0             	mov    %rdx,%rax
    611d:	eb 04                	jmp    6123 <safe_lshift_func_uint64_t_u_s+0x48>
    611f:	48 8b 45 f8          	mov    -0x8(%rbp),%rax
    6123:	5d                   	pop    %rbp
    6124:	c3                   	retq   

0000000000006125 <safe_lshift_func_uint64_t_u_u>:
    6125:	f3 0f 1e fa          	endbr64 
    6129:	55                   	push   %rbp
    612a:	48 89 e5             	mov    %rsp,%rbp
    612d:	48 89 7d f8          	mov    %rdi,-0x8(%rbp)
    6131:	89 75 f4             	mov    %esi,-0xc(%rbp)
    6134:	83 7d f4 1f          	cmpl   $0x1f,-0xc(%rbp)
    6138:	77 29                	ja     6163 <safe_lshift_func_uint64_t_u_u+0x3e>
    613a:	8b 45 f4             	mov    -0xc(%rbp),%eax
    613d:	48 c7 c2 ff ff ff ff 	mov    $0xffffffffffffffff,%rdx
    6144:	89 c1                	mov    %eax,%ecx
    6146:	48 d3 ea             	shr    %cl,%rdx
    6149:	48 89 d0             	mov    %rdx,%rax
    614c:	48 39 45 f8          	cmp    %rax,-0x8(%rbp)
    6150:	77 11                	ja     6163 <safe_lshift_func_uint64_t_u_u+0x3e>
    6152:	8b 45 f4             	mov    -0xc(%rbp),%eax
    6155:	48 8b 55 f8          	mov    -0x8(%rbp),%rdx
    6159:	89 c1                	mov    %eax,%ecx
    615b:	48 d3 e2             	shl    %cl,%rdx
    615e:	48 89 d0             	mov    %rdx,%rax
    6161:	eb 04                	jmp    6167 <safe_lshift_func_uint64_t_u_u+0x42>
    6163:	48 8b 45 f8          	mov    -0x8(%rbp),%rax
    6167:	5d                   	pop    %rbp
    6168:	c3                   	retq   

0000000000006169 <safe_rshift_func_uint64_t_u_s>:
    6169:	f3 0f 1e fa          	endbr64 
    616d:	55                   	push   %rbp
    616e:	48 89 e5             	mov    %rsp,%rbp
    6171:	48 89 7d f8          	mov    %rdi,-0x8(%rbp)
    6175:	89 75 f4             	mov    %esi,-0xc(%rbp)
    6178:	83 7d f4 00          	cmpl   $0x0,-0xc(%rbp)
    617c:	78 17                	js     6195 <safe_rshift_func_uint64_t_u_s+0x2c>
    617e:	83 7d f4 1f          	cmpl   $0x1f,-0xc(%rbp)
    6182:	7f 11                	jg     6195 <safe_rshift_func_uint64_t_u_s+0x2c>
    6184:	8b 45 f4             	mov    -0xc(%rbp),%eax
    6187:	48 8b 55 f8          	mov    -0x8(%rbp),%rdx
    618b:	89 c1                	mov    %eax,%ecx
    618d:	48 d3 ea             	shr    %cl,%rdx
    6190:	48 89 d0             	mov    %rdx,%rax
    6193:	eb 04                	jmp    6199 <safe_rshift_func_uint64_t_u_s+0x30>
    6195:	48 8b 45 f8          	mov    -0x8(%rbp),%rax
    6199:	5d                   	pop    %rbp
    619a:	c3                   	retq   

000000000000619b <safe_rshift_func_uint64_t_u_u>:
    619b:	f3 0f 1e fa          	endbr64 
    619f:	55                   	push   %rbp
    61a0:	48 89 e5             	mov    %rsp,%rbp
    61a3:	48 89 7d f8          	mov    %rdi,-0x8(%rbp)
    61a7:	89 75 f4             	mov    %esi,-0xc(%rbp)
    61aa:	83 7d f4 1f          	cmpl   $0x1f,-0xc(%rbp)
    61ae:	77 11                	ja     61c1 <safe_rshift_func_uint64_t_u_u+0x26>
    61b0:	8b 45 f4             	mov    -0xc(%rbp),%eax
    61b3:	48 8b 55 f8          	mov    -0x8(%rbp),%rdx
    61b7:	89 c1                	mov    %eax,%ecx
    61b9:	48 d3 ea             	shr    %cl,%rdx
    61bc:	48 89 d0             	mov    %rdx,%rax
    61bf:	eb 04                	jmp    61c5 <safe_rshift_func_uint64_t_u_u+0x2a>
    61c1:	48 8b 45 f8          	mov    -0x8(%rbp),%rax
    61c5:	5d                   	pop    %rbp
    61c6:	c3                   	retq   

00000000000061c7 <safe_add_func_float_f_f>:
    61c7:	f3 0f 1e fa          	endbr64 
    61cb:	55                   	push   %rbp
    61cc:	48 89 e5             	mov    %rsp,%rbp
    61cf:	f3 0f 11 45 fc       	movss  %xmm0,-0x4(%rbp)
    61d4:	f3 0f 11 4d f8       	movss  %xmm1,-0x8(%rbp)
    61d9:	f3 0f 10 4d fc       	movss  -0x4(%rbp),%xmm1
    61de:	f3 0f 10 05 d6 a6 00 	movss  0xa6d6(%rip),%xmm0        # 108bc <g_824+0x864>
    61e5:	00 
    61e6:	f3 0f 59 c8          	mulss  %xmm0,%xmm1
    61ea:	f3 0f 10 55 f8       	movss  -0x8(%rbp),%xmm2
    61ef:	f3 0f 10 05 c5 a6 00 	movss  0xa6c5(%rip),%xmm0        # 108bc <g_824+0x864>
    61f6:	00 
    61f7:	f3 0f 59 c2          	mulss  %xmm2,%xmm0
    61fb:	f3 0f 58 c1          	addss  %xmm1,%xmm0
    61ff:	f3 0f 10 0d b9 a6 00 	movss  0xa6b9(%rip),%xmm1        # 108c0 <g_824+0x868>
    6206:	00 
    6207:	0f 54 c1             	andps  %xmm1,%xmm0
    620a:	0f 2f 05 bf a6 00 00 	comiss 0xa6bf(%rip),%xmm0        # 108d0 <g_824+0x878>
    6211:	76 07                	jbe    621a <safe_add_func_float_f_f+0x53>
    6213:	f3 0f 10 45 fc       	movss  -0x4(%rbp),%xmm0
    6218:	eb 0a                	jmp    6224 <safe_add_func_float_f_f+0x5d>
    621a:	f3 0f 10 45 fc       	movss  -0x4(%rbp),%xmm0
    621f:	f3 0f 58 45 f8       	addss  -0x8(%rbp),%xmm0
    6224:	5d                   	pop    %rbp
    6225:	c3                   	retq   

0000000000006226 <safe_sub_func_float_f_f>:
    6226:	f3 0f 1e fa          	endbr64 
    622a:	55                   	push   %rbp
    622b:	48 89 e5             	mov    %rsp,%rbp
    622e:	f3 0f 11 45 fc       	movss  %xmm0,-0x4(%rbp)
    6233:	f3 0f 11 4d f8       	movss  %xmm1,-0x8(%rbp)
    6238:	f3 0f 10 4d fc       	movss  -0x4(%rbp),%xmm1
    623d:	f3 0f 10 05 77 a6 00 	movss  0xa677(%rip),%xmm0        # 108bc <g_824+0x864>
    6244:	00 
    6245:	f3 0f 59 c1          	mulss  %xmm1,%xmm0
    6249:	f3 0f 10 55 f8       	movss  -0x8(%rbp),%xmm2
    624e:	f3 0f 10 0d 66 a6 00 	movss  0xa666(%rip),%xmm1        # 108bc <g_824+0x864>
    6255:	00 
    6256:	f3 0f 59 ca          	mulss  %xmm2,%xmm1
    625a:	f3 0f 5c c1          	subss  %xmm1,%xmm0
    625e:	f3 0f 10 0d 5a a6 00 	movss  0xa65a(%rip),%xmm1        # 108c0 <g_824+0x868>
    6265:	00 
    6266:	0f 54 c1             	andps  %xmm1,%xmm0
    6269:	0f 2f 05 60 a6 00 00 	comiss 0xa660(%rip),%xmm0        # 108d0 <g_824+0x878>
    6270:	76 07                	jbe    6279 <safe_sub_func_float_f_f+0x53>
    6272:	f3 0f 10 45 fc       	movss  -0x4(%rbp),%xmm0
    6277:	eb 0a                	jmp    6283 <safe_sub_func_float_f_f+0x5d>
    6279:	f3 0f 10 45 fc       	movss  -0x4(%rbp),%xmm0
    627e:	f3 0f 5c 45 f8       	subss  -0x8(%rbp),%xmm0
    6283:	5d                   	pop    %rbp
    6284:	c3                   	retq   

0000000000006285 <safe_mul_func_float_f_f>:
    6285:	f3 0f 1e fa          	endbr64 
    6289:	55                   	push   %rbp
    628a:	48 89 e5             	mov    %rsp,%rbp
    628d:	f3 0f 11 45 fc       	movss  %xmm0,-0x4(%rbp)
    6292:	f3 0f 11 4d f8       	movss  %xmm1,-0x8(%rbp)
    6297:	f3 0f 10 4d fc       	movss  -0x4(%rbp),%xmm1
    629c:	f3 0f 10 05 30 a6 00 	movss  0xa630(%rip),%xmm0        # 108d4 <g_824+0x87c>
    62a3:	00 
    62a4:	f3 0f 59 c8          	mulss  %xmm0,%xmm1
    62a8:	f3 0f 10 55 f8       	movss  -0x8(%rbp),%xmm2
    62ad:	f3 0f 10 05 23 a6 00 	movss  0xa623(%rip),%xmm0        # 108d8 <g_824+0x880>
    62b4:	00 
    62b5:	f3 0f 59 c2          	mulss  %xmm2,%xmm0
    62b9:	f3 0f 59 c1          	mulss  %xmm1,%xmm0
    62bd:	f3 0f 10 0d fb a5 00 	movss  0xa5fb(%rip),%xmm1        # 108c0 <g_824+0x868>
    62c4:	00 
    62c5:	0f 54 c1             	andps  %xmm1,%xmm0
    62c8:	0f 2f 05 0d a6 00 00 	comiss 0xa60d(%rip),%xmm0        # 108dc <g_824+0x884>
    62cf:	76 07                	jbe    62d8 <safe_mul_func_float_f_f+0x53>
    62d1:	f3 0f 10 45 fc       	movss  -0x4(%rbp),%xmm0
    62d6:	eb 0a                	jmp    62e2 <safe_mul_func_float_f_f+0x5d>
    62d8:	f3 0f 10 45 fc       	movss  -0x4(%rbp),%xmm0
    62dd:	f3 0f 59 45 f8       	mulss  -0x8(%rbp),%xmm0
    62e2:	5d                   	pop    %rbp
    62e3:	c3                   	retq   

00000000000062e4 <safe_div_func_float_f_f>:
    62e4:	f3 0f 1e fa          	endbr64 
    62e8:	55                   	push   %rbp
    62e9:	48 89 e5             	mov    %rsp,%rbp
    62ec:	f3 0f 11 45 fc       	movss  %xmm0,-0x4(%rbp)
    62f1:	f3 0f 11 4d f8       	movss  %xmm1,-0x8(%rbp)
    62f6:	f3 0f 10 45 f8       	movss  -0x8(%rbp),%xmm0
    62fb:	f3 0f 10 0d bd a5 00 	movss  0xa5bd(%rip),%xmm1        # 108c0 <g_824+0x868>
    6302:	00 
    6303:	0f 54 c8             	andps  %xmm0,%xmm1
    6306:	f3 0f 10 05 d2 a5 00 	movss  0xa5d2(%rip),%xmm0        # 108e0 <g_824+0x888>
    630d:	00 
    630e:	0f 2f c1             	comiss %xmm1,%xmm0
    6311:	0f 97 c0             	seta   %al
    6314:	83 f0 01             	xor    $0x1,%eax
    6317:	84 c0                	test   %al,%al
    6319:	75 56                	jne    6371 <safe_div_func_float_f_f+0x8d>
    631b:	66 0f ef c0          	pxor   %xmm0,%xmm0
    631f:	0f 2e 45 f8          	ucomiss -0x8(%rbp),%xmm0
    6323:	7a 0a                	jp     632f <safe_div_func_float_f_f+0x4b>
    6325:	66 0f ef c0          	pxor   %xmm0,%xmm0
    6329:	0f 2e 45 f8          	ucomiss -0x8(%rbp),%xmm0
    632d:	74 4e                	je     637d <safe_div_func_float_f_f+0x99>
    632f:	f3 0f 10 4d fc       	movss  -0x4(%rbp),%xmm1
    6334:	f3 0f 10 05 a8 a5 00 	movss  0xa5a8(%rip),%xmm0        # 108e4 <g_824+0x88c>
    633b:	00 
    633c:	f3 0f 59 c1          	mulss  %xmm1,%xmm0
    6340:	f3 0f 10 55 f8       	movss  -0x8(%rbp),%xmm2
    6345:	f3 0f 10 0d 9b a5 00 	movss  0xa59b(%rip),%xmm1        # 108e8 <g_824+0x890>
    634c:	00 
    634d:	f3 0f 59 ca          	mulss  %xmm2,%xmm1
    6351:	f3 0f 5e c1          	divss  %xmm1,%xmm0
    6355:	f3 0f 10 0d 63 a5 00 	movss  0xa563(%rip),%xmm1        # 108c0 <g_824+0x868>
    635c:	00 
    635d:	0f 54 c1             	andps  %xmm1,%xmm0
    6360:	0f 2f 05 85 a5 00 00 	comiss 0xa585(%rip),%xmm0        # 108ec <g_824+0x894>
    6367:	0f 97 c0             	seta   %al
    636a:	83 f0 01             	xor    $0x1,%eax
    636d:	84 c0                	test   %al,%al
    636f:	74 0c                	je     637d <safe_div_func_float_f_f+0x99>
    6371:	f3 0f 10 45 fc       	movss  -0x4(%rbp),%xmm0
    6376:	f3 0f 5e 45 f8       	divss  -0x8(%rbp),%xmm0
    637b:	eb 05                	jmp    6382 <safe_div_func_float_f_f+0x9e>
    637d:	f3 0f 10 45 fc       	movss  -0x4(%rbp),%xmm0
    6382:	5d                   	pop    %rbp
    6383:	c3                   	retq   

0000000000006384 <safe_add_func_double_f_f>:
    6384:	f3 0f 1e fa          	endbr64 
    6388:	55                   	push   %rbp
    6389:	48 89 e5             	mov    %rsp,%rbp
    638c:	f2 0f 11 45 f8       	movsd  %xmm0,-0x8(%rbp)
    6391:	f2 0f 11 4d f0       	movsd  %xmm1,-0x10(%rbp)
    6396:	f2 0f 10 4d f8       	movsd  -0x8(%rbp),%xmm1
    639b:	f2 0f 10 05 4d a5 00 	movsd  0xa54d(%rip),%xmm0        # 108f0 <g_824+0x898>
    63a2:	00 
    63a3:	f2 0f 59 c8          	mulsd  %xmm0,%xmm1
    63a7:	f2 0f 10 55 f0       	movsd  -0x10(%rbp),%xmm2
    63ac:	f2 0f 10 05 3c a5 00 	movsd  0xa53c(%rip),%xmm0        # 108f0 <g_824+0x898>
    63b3:	00 
    63b4:	f2 0f 59 c2          	mulsd  %xmm2,%xmm0
    63b8:	f2 0f 58 c1          	addsd  %xmm1,%xmm0
    63bc:	f3 0f 7e 0d 3c a5 00 	movq   0xa53c(%rip),%xmm1        # 10900 <g_824+0x8a8>
    63c3:	00 
    63c4:	66 0f 54 c1          	andpd  %xmm1,%xmm0
    63c8:	66 0f 2f 05 40 a5 00 	comisd 0xa540(%rip),%xmm0        # 10910 <g_824+0x8b8>
    63cf:	00 
    63d0:	76 07                	jbe    63d9 <safe_add_func_double_f_f+0x55>
    63d2:	f2 0f 10 45 f8       	movsd  -0x8(%rbp),%xmm0
    63d7:	eb 0a                	jmp    63e3 <safe_add_func_double_f_f+0x5f>
    63d9:	f2 0f 10 45 f8       	movsd  -0x8(%rbp),%xmm0
    63de:	f2 0f 58 45 f0       	addsd  -0x10(%rbp),%xmm0
    63e3:	5d                   	pop    %rbp
    63e4:	c3                   	retq   

00000000000063e5 <safe_sub_func_double_f_f>:
    63e5:	f3 0f 1e fa          	endbr64 
    63e9:	55                   	push   %rbp
    63ea:	48 89 e5             	mov    %rsp,%rbp
    63ed:	f2 0f 11 45 f8       	movsd  %xmm0,-0x8(%rbp)
    63f2:	f2 0f 11 4d f0       	movsd  %xmm1,-0x10(%rbp)
    63f7:	f2 0f 10 4d f8       	movsd  -0x8(%rbp),%xmm1
    63fc:	f2 0f 10 05 ec a4 00 	movsd  0xa4ec(%rip),%xmm0        # 108f0 <g_824+0x898>
    6403:	00 
    6404:	f2 0f 59 c1          	mulsd  %xmm1,%xmm0
    6408:	f2 0f 10 55 f0       	movsd  -0x10(%rbp),%xmm2
    640d:	f2 0f 10 0d db a4 00 	movsd  0xa4db(%rip),%xmm1        # 108f0 <g_824+0x898>
    6414:	00 
    6415:	f2 0f 59 ca          	mulsd  %xmm2,%xmm1
    6419:	f2 0f 5c c1          	subsd  %xmm1,%xmm0
    641d:	f3 0f 7e 0d db a4 00 	movq   0xa4db(%rip),%xmm1        # 10900 <g_824+0x8a8>
    6424:	00 
    6425:	66 0f 54 c1          	andpd  %xmm1,%xmm0
    6429:	66 0f 2f 05 df a4 00 	comisd 0xa4df(%rip),%xmm0        # 10910 <g_824+0x8b8>
    6430:	00 
    6431:	76 07                	jbe    643a <safe_sub_func_double_f_f+0x55>
    6433:	f2 0f 10 45 f8       	movsd  -0x8(%rbp),%xmm0
    6438:	eb 0a                	jmp    6444 <safe_sub_func_double_f_f+0x5f>
    643a:	f2 0f 10 45 f8       	movsd  -0x8(%rbp),%xmm0
    643f:	f2 0f 5c 45 f0       	subsd  -0x10(%rbp),%xmm0
    6444:	5d                   	pop    %rbp
    6445:	c3                   	retq   

0000000000006446 <safe_mul_func_double_f_f>:
    6446:	f3 0f 1e fa          	endbr64 
    644a:	55                   	push   %rbp
    644b:	48 89 e5             	mov    %rsp,%rbp
    644e:	f2 0f 11 45 f8       	movsd  %xmm0,-0x8(%rbp)
    6453:	f2 0f 11 4d f0       	movsd  %xmm1,-0x10(%rbp)
    6458:	f2 0f 10 4d f8       	movsd  -0x8(%rbp),%xmm1
    645d:	f2 0f 10 05 b3 a4 00 	movsd  0xa4b3(%rip),%xmm0        # 10918 <g_824+0x8c0>
    6464:	00 
    6465:	f2 0f 59 c8          	mulsd  %xmm0,%xmm1
    6469:	f2 0f 10 55 f0       	movsd  -0x10(%rbp),%xmm2
    646e:	f2 0f 10 05 aa a4 00 	movsd  0xa4aa(%rip),%xmm0        # 10920 <g_824+0x8c8>
    6475:	00 
    6476:	f2 0f 59 c2          	mulsd  %xmm2,%xmm0
    647a:	f2 0f 59 c1          	mulsd  %xmm1,%xmm0
    647e:	f3 0f 7e 0d 7a a4 00 	movq   0xa47a(%rip),%xmm1        # 10900 <g_824+0x8a8>
    6485:	00 
    6486:	66 0f 54 c1          	andpd  %xmm1,%xmm0
    648a:	66 0f 2f 05 96 a4 00 	comisd 0xa496(%rip),%xmm0        # 10928 <g_824+0x8d0>
    6491:	00 
    6492:	76 07                	jbe    649b <safe_mul_func_double_f_f+0x55>
    6494:	f2 0f 10 45 f8       	movsd  -0x8(%rbp),%xmm0
    6499:	eb 0a                	jmp    64a5 <safe_mul_func_double_f_f+0x5f>
    649b:	f2 0f 10 45 f8       	movsd  -0x8(%rbp),%xmm0
    64a0:	f2 0f 59 45 f0       	mulsd  -0x10(%rbp),%xmm0
    64a5:	5d                   	pop    %rbp
    64a6:	c3                   	retq   

00000000000064a7 <safe_div_func_double_f_f>:
    64a7:	f3 0f 1e fa          	endbr64 
    64ab:	55                   	push   %rbp
    64ac:	48 89 e5             	mov    %rsp,%rbp
    64af:	f2 0f 11 45 f8       	movsd  %xmm0,-0x8(%rbp)
    64b4:	f2 0f 11 4d f0       	movsd  %xmm1,-0x10(%rbp)
    64b9:	f2 0f 10 45 f0       	movsd  -0x10(%rbp),%xmm0
    64be:	f3 0f 7e 0d 3a a4 00 	movq   0xa43a(%rip),%xmm1        # 10900 <g_824+0x8a8>
    64c5:	00 
    64c6:	66 0f 54 c8          	andpd  %xmm0,%xmm1
    64ca:	f2 0f 10 05 5e a4 00 	movsd  0xa45e(%rip),%xmm0        # 10930 <g_824+0x8d8>
    64d1:	00 
    64d2:	66 0f 2f c1          	comisd %xmm1,%xmm0
    64d6:	0f 97 c0             	seta   %al
    64d9:	83 f0 01             	xor    $0x1,%eax
    64dc:	84 c0                	test   %al,%al
    64de:	75 5a                	jne    653a <safe_div_func_double_f_f+0x93>
    64e0:	66 0f ef c0          	pxor   %xmm0,%xmm0
    64e4:	66 0f 2e 45 f0       	ucomisd -0x10(%rbp),%xmm0
    64e9:	7a 0b                	jp     64f6 <safe_div_func_double_f_f+0x4f>
    64eb:	66 0f ef c0          	pxor   %xmm0,%xmm0
    64ef:	66 0f 2e 45 f0       	ucomisd -0x10(%rbp),%xmm0
    64f4:	74 50                	je     6546 <safe_div_func_double_f_f+0x9f>
    64f6:	f2 0f 10 4d f8       	movsd  -0x8(%rbp),%xmm1
    64fb:	f2 0f 10 05 35 a4 00 	movsd  0xa435(%rip),%xmm0        # 10938 <g_824+0x8e0>
    6502:	00 
    6503:	f2 0f 59 c1          	mulsd  %xmm1,%xmm0
    6507:	f2 0f 10 55 f0       	movsd  -0x10(%rbp),%xmm2
    650c:	f2 0f 10 0d 2c a4 00 	movsd  0xa42c(%rip),%xmm1        # 10940 <g_824+0x8e8>
    6513:	00 
    6514:	f2 0f 59 ca          	mulsd  %xmm2,%xmm1
    6518:	f2 0f 5e c1          	divsd  %xmm1,%xmm0
    651c:	f3 0f 7e 0d dc a3 00 	movq   0xa3dc(%rip),%xmm1        # 10900 <g_824+0x8a8>
    6523:	00 
    6524:	66 0f 54 c1          	andpd  %xmm1,%xmm0
    6528:	66 0f 2f 05 18 a4 00 	comisd 0xa418(%rip),%xmm0        # 10948 <g_824+0x8f0>
    652f:	00 
    6530:	0f 97 c0             	seta   %al
    6533:	83 f0 01             	xor    $0x1,%eax
    6536:	84 c0                	test   %al,%al
    6538:	74 0c                	je     6546 <safe_div_func_double_f_f+0x9f>
    653a:	f2 0f 10 45 f8       	movsd  -0x8(%rbp),%xmm0
    653f:	f2 0f 5e 45 f0       	divsd  -0x10(%rbp),%xmm0
    6544:	eb 05                	jmp    654b <safe_div_func_double_f_f+0xa4>
    6546:	f2 0f 10 45 f8       	movsd  -0x8(%rbp),%xmm0
    654b:	5d                   	pop    %rbp
    654c:	c3                   	retq   

000000000000654d <safe_convert_func_float_to_int32_t>:
    654d:	f3 0f 1e fa          	endbr64 
    6551:	55                   	push   %rbp
    6552:	48 89 e5             	mov    %rsp,%rbp
    6555:	f3 0f 11 45 fc       	movss  %xmm0,-0x4(%rbp)
    655a:	f3 0f 10 05 ee a3 00 	movss  0xa3ee(%rip),%xmm0        # 10950 <g_824+0x8f8>
    6561:	00 
    6562:	0f 2f 45 fc          	comiss -0x4(%rbp),%xmm0
    6566:	0f 93 c0             	setae  %al
    6569:	83 f0 01             	xor    $0x1,%eax
    656c:	84 c0                	test   %al,%al
    656e:	74 21                	je     6591 <safe_convert_func_float_to_int32_t+0x44>
    6570:	f3 0f 10 45 fc       	movss  -0x4(%rbp),%xmm0
    6575:	0f 2f 05 d8 a3 00 00 	comiss 0xa3d8(%rip),%xmm0        # 10954 <g_824+0x8fc>
    657c:	0f 93 c0             	setae  %al
    657f:	83 f0 01             	xor    $0x1,%eax
    6582:	84 c0                	test   %al,%al
    6584:	74 0b                	je     6591 <safe_convert_func_float_to_int32_t+0x44>
    6586:	f3 0f 10 45 fc       	movss  -0x4(%rbp),%xmm0
    658b:	f3 0f 2c c0          	cvttss2si %xmm0,%eax
    658f:	eb 05                	jmp    6596 <safe_convert_func_float_to_int32_t+0x49>
    6591:	b8 ff ff ff 7f       	mov    $0x7fffffff,%eax
    6596:	5d                   	pop    %rbp
    6597:	c3                   	retq   

0000000000006598 <crc32_gentab>:
    6598:	f3 0f 1e fa          	endbr64 
    659c:	55                   	push   %rbp
    659d:	48 89 e5             	mov    %rsp,%rbp
    65a0:	c7 45 fc 20 83 b8 ed 	movl   $0xedb88320,-0x4(%rbp)
    65a7:	c7 45 f4 00 00 00 00 	movl   $0x0,-0xc(%rbp)
    65ae:	eb 51                	jmp    6601 <crc32_gentab+0x69>
    65b0:	8b 45 f4             	mov    -0xc(%rbp),%eax
    65b3:	89 45 f0             	mov    %eax,-0x10(%rbp)
    65b6:	c7 45 f8 08 00 00 00 	movl   $0x8,-0x8(%rbp)
    65bd:	eb 1e                	jmp    65dd <crc32_gentab+0x45>
    65bf:	8b 45 f0             	mov    -0x10(%rbp),%eax
    65c2:	83 e0 01             	and    $0x1,%eax
    65c5:	85 c0                	test   %eax,%eax
    65c7:	74 0d                	je     65d6 <crc32_gentab+0x3e>
    65c9:	8b 45 f0             	mov    -0x10(%rbp),%eax
    65cc:	d1 e8                	shr    %eax
    65ce:	33 45 fc             	xor    -0x4(%rbp),%eax
    65d1:	89 45 f0             	mov    %eax,-0x10(%rbp)
    65d4:	eb 03                	jmp    65d9 <crc32_gentab+0x41>
    65d6:	d1 6d f0             	shrl   -0x10(%rbp)
    65d9:	83 6d f8 01          	subl   $0x1,-0x8(%rbp)
    65dd:	83 7d f8 00          	cmpl   $0x0,-0x8(%rbp)
    65e1:	7f dc                	jg     65bf <crc32_gentab+0x27>
    65e3:	8b 45 f4             	mov    -0xc(%rbp),%eax
    65e6:	48 98                	cltq   
    65e8:	48 8d 0c 85 00 00 00 	lea    0x0(,%rax,4),%rcx
    65ef:	00 
    65f0:	48 8d 15 89 ec 00 00 	lea    0xec89(%rip),%rdx        # 15280 <crc32_tab>
    65f7:	8b 45 f0             	mov    -0x10(%rbp),%eax
    65fa:	89 04 11             	mov    %eax,(%rcx,%rdx,1)
    65fd:	83 45 f4 01          	addl   $0x1,-0xc(%rbp)
    6601:	81 7d f4 ff 00 00 00 	cmpl   $0xff,-0xc(%rbp)
    6608:	7e a6                	jle    65b0 <crc32_gentab+0x18>
    660a:	90                   	nop
    660b:	90                   	nop
    660c:	5d                   	pop    %rbp
    660d:	c3                   	retq   

000000000000660e <crc32_byte>:
    660e:	f3 0f 1e fa          	endbr64 
    6612:	55                   	push   %rbp
    6613:	48 89 e5             	mov    %rsp,%rbp
    6616:	89 f8                	mov    %edi,%eax
    6618:	88 45 fc             	mov    %al,-0x4(%rbp)
    661b:	8b 05 ff c9 00 00    	mov    0xc9ff(%rip),%eax        # 13020 <crc32_context>
    6621:	c1 e8 08             	shr    $0x8,%eax
    6624:	89 c1                	mov    %eax,%ecx
    6626:	0f b6 55 fc          	movzbl -0x4(%rbp),%edx
    662a:	8b 05 f0 c9 00 00    	mov    0xc9f0(%rip),%eax        # 13020 <crc32_context>
    6630:	31 d0                	xor    %edx,%eax
    6632:	0f b6 c0             	movzbl %al,%eax
    6635:	89 c0                	mov    %eax,%eax
    6637:	48 8d 14 85 00 00 00 	lea    0x0(,%rax,4),%rdx
    663e:	00 
    663f:	48 8d 05 3a ec 00 00 	lea    0xec3a(%rip),%rax        # 15280 <crc32_tab>
    6646:	8b 04 02             	mov    (%rdx,%rax,1),%eax
    6649:	31 c8                	xor    %ecx,%eax
    664b:	89 05 cf c9 00 00    	mov    %eax,0xc9cf(%rip)        # 13020 <crc32_context>
    6651:	90                   	nop
    6652:	5d                   	pop    %rbp
    6653:	c3                   	retq   

0000000000006654 <crc32_8bytes>:
    6654:	f3 0f 1e fa          	endbr64 
    6658:	55                   	push   %rbp
    6659:	48 89 e5             	mov    %rsp,%rbp
    665c:	48 83 ec 08          	sub    $0x8,%rsp
    6660:	48 89 7d f8          	mov    %rdi,-0x8(%rbp)
    6664:	48 8b 45 f8          	mov    -0x8(%rbp),%rax
    6668:	0f b6 c0             	movzbl %al,%eax
    666b:	89 c7                	mov    %eax,%edi
    666d:	e8 9c ff ff ff       	callq  660e <crc32_byte>
    6672:	48 8b 45 f8          	mov    -0x8(%rbp),%rax
    6676:	48 c1 e8 08          	shr    $0x8,%rax
    667a:	0f b6 c0             	movzbl %al,%eax
    667d:	89 c7                	mov    %eax,%edi
    667f:	e8 8a ff ff ff       	callq  660e <crc32_byte>
    6684:	48 8b 45 f8          	mov    -0x8(%rbp),%rax
    6688:	48 c1 e8 10          	shr    $0x10,%rax
    668c:	0f b6 c0             	movzbl %al,%eax
    668f:	89 c7                	mov    %eax,%edi
    6691:	e8 78 ff ff ff       	callq  660e <crc32_byte>
    6696:	48 8b 45 f8          	mov    -0x8(%rbp),%rax
    669a:	48 c1 e8 18          	shr    $0x18,%rax
    669e:	0f b6 c0             	movzbl %al,%eax
    66a1:	89 c7                	mov    %eax,%edi
    66a3:	e8 66 ff ff ff       	callq  660e <crc32_byte>
    66a8:	48 8b 45 f8          	mov    -0x8(%rbp),%rax
    66ac:	48 c1 e8 20          	shr    $0x20,%rax
    66b0:	0f b6 c0             	movzbl %al,%eax
    66b3:	89 c7                	mov    %eax,%edi
    66b5:	e8 54 ff ff ff       	callq  660e <crc32_byte>
    66ba:	48 8b 45 f8          	mov    -0x8(%rbp),%rax
    66be:	48 c1 e8 28          	shr    $0x28,%rax
    66c2:	0f b6 c0             	movzbl %al,%eax
    66c5:	89 c7                	mov    %eax,%edi
    66c7:	e8 42 ff ff ff       	callq  660e <crc32_byte>
    66cc:	48 8b 45 f8          	mov    -0x8(%rbp),%rax
    66d0:	48 c1 e8 30          	shr    $0x30,%rax
    66d4:	0f b6 c0             	movzbl %al,%eax
    66d7:	89 c7                	mov    %eax,%edi
    66d9:	e8 30 ff ff ff       	callq  660e <crc32_byte>
    66de:	48 8b 45 f8          	mov    -0x8(%rbp),%rax
    66e2:	48 c1 e8 38          	shr    $0x38,%rax
    66e6:	0f b6 c0             	movzbl %al,%eax
    66e9:	89 c7                	mov    %eax,%edi
    66eb:	e8 1e ff ff ff       	callq  660e <crc32_byte>
    66f0:	90                   	nop
    66f1:	c9                   	leaveq 
    66f2:	c3                   	retq   

00000000000066f3 <transparent_crc>:
    66f3:	f3 0f 1e fa          	endbr64 
    66f7:	55                   	push   %rbp
    66f8:	48 89 e5             	mov    %rsp,%rbp
    66fb:	48 83 ec 20          	sub    $0x20,%rsp
    66ff:	48 89 7d f8          	mov    %rdi,-0x8(%rbp)
    6703:	48 89 75 f0          	mov    %rsi,-0x10(%rbp)
    6707:	89 55 ec             	mov    %edx,-0x14(%rbp)
    670a:	48 8b 45 f8          	mov    -0x8(%rbp),%rax
    670e:	48 89 c7             	mov    %rax,%rdi
    6711:	e8 3e ff ff ff       	callq  6654 <crc32_8bytes>
    6716:	83 7d ec 00          	cmpl   $0x0,-0x14(%rbp)
    671a:	74 22                	je     673e <transparent_crc+0x4b>
    671c:	8b 05 fe c8 00 00    	mov    0xc8fe(%rip),%eax        # 13020 <crc32_context>
    6722:	f7 d0                	not    %eax
    6724:	89 c2                	mov    %eax,%edx
    6726:	48 8b 45 f0          	mov    -0x10(%rbp),%rax
    672a:	48 89 c6             	mov    %rax,%rsi
    672d:	48 8d 3d fc 98 00 00 	lea    0x98fc(%rip),%rdi        # 10030 <_IO_stdin_used+0x30>
    6734:	b8 00 00 00 00       	mov    $0x0,%eax
    6739:	e8 42 e9 ff ff       	callq  5080 <printf@plt>
    673e:	90                   	nop
    673f:	c9                   	leaveq 
    6740:	c3                   	retq   

0000000000006741 <transparent_crc_bytes>:
    6741:	f3 0f 1e fa          	endbr64 
    6745:	55                   	push   %rbp
    6746:	48 89 e5             	mov    %rsp,%rbp
    6749:	48 83 ec 30          	sub    $0x30,%rsp
    674d:	48 89 7d e8          	mov    %rdi,-0x18(%rbp)
    6751:	89 75 e4             	mov    %esi,-0x1c(%rbp)
    6754:	48 89 55 d8          	mov    %rdx,-0x28(%rbp)
    6758:	89 4d e0             	mov    %ecx,-0x20(%rbp)
    675b:	c7 45 fc 00 00 00 00 	movl   $0x0,-0x4(%rbp)
    6762:	eb 1e                	jmp    6782 <transparent_crc_bytes+0x41>
    6764:	8b 45 fc             	mov    -0x4(%rbp),%eax
    6767:	48 63 d0             	movslq %eax,%rdx
    676a:	48 8b 45 e8          	mov    -0x18(%rbp),%rax
    676e:	48 01 d0             	add    %rdx,%rax
    6771:	0f b6 00             	movzbl (%rax),%eax
    6774:	0f b6 c0             	movzbl %al,%eax
    6777:	89 c7                	mov    %eax,%edi
    6779:	e8 90 fe ff ff       	callq  660e <crc32_byte>
    677e:	83 45 fc 01          	addl   $0x1,-0x4(%rbp)
    6782:	8b 45 fc             	mov    -0x4(%rbp),%eax
    6785:	3b 45 e4             	cmp    -0x1c(%rbp),%eax
    6788:	7c da                	jl     6764 <transparent_crc_bytes+0x23>
    678a:	83 7d e0 00          	cmpl   $0x0,-0x20(%rbp)
    678e:	74 22                	je     67b2 <transparent_crc_bytes+0x71>
    6790:	8b 05 8a c8 00 00    	mov    0xc88a(%rip),%eax        # 13020 <crc32_context>
    6796:	f7 d0                	not    %eax
    6798:	89 c2                	mov    %eax,%edx
    679a:	48 8b 45 d8          	mov    -0x28(%rbp),%rax
    679e:	48 89 c6             	mov    %rax,%rsi
    67a1:	48 8d 3d 88 98 00 00 	lea    0x9888(%rip),%rdi        # 10030 <_IO_stdin_used+0x30>
    67a8:	b8 00 00 00 00       	mov    $0x0,%eax
    67ad:	e8 ce e8 ff ff       	callq  5080 <printf@plt>
    67b2:	90                   	nop
    67b3:	c9                   	leaveq 
    67b4:	c3                   	retq   

00000000000067b5 <func_1>:
    67b5:	f3 0f 1e fa          	endbr64 
    67b9:	55                   	push   %rbp
    67ba:	48 89 e5             	mov    %rsp,%rbp
    67bd:	48 83 ec 20          	sub    $0x20,%rsp
    67c1:	64 48 8b 04 25 28 00 	mov    %fs:0x28,%rax
    67c8:	00 00 
    67ca:	48 89 45 f8          	mov    %rax,-0x8(%rbp)
    67ce:	31 c0                	xor    %eax,%eax
    67d0:	48 c7 45 e8 00 00 00 	movq   $0x0,-0x18(%rbp)
    67d7:	00 
    67d8:	48 8d 45 e8          	lea    -0x18(%rbp),%rax
    67dc:	48 89 45 f0          	mov    %rax,-0x10(%rbp)
    67e0:	c7 45 e4 07 00 00 00 	movl   $0x7,-0x1c(%rbp)
    67e7:	48 8b 45 f0          	mov    -0x10(%rbp),%rax
    67eb:	48 c7 00 00 00 00 00 	movq   $0x0,(%rax)
    67f2:	8b 45 e4             	mov    -0x1c(%rbp),%eax
    67f5:	89 c7                	mov    %eax,%edi
    67f7:	e8 26 00 00 00       	callq  6822 <func_4>
    67fc:	48 89 05 3d ea 00 00 	mov    %rax,0xea3d(%rip)        # 15240 <g_1830>
    6803:	48 8b 05 7e e2 00 00 	mov    0xe27e(%rip),%rax        # 14a88 <g_1702>
    680a:	8b 00                	mov    (%rax),%eax
    680c:	48 8b 55 f8          	mov    -0x8(%rbp),%rdx
    6810:	64 48 33 14 25 28 00 	xor    %fs:0x28,%rdx
    6817:	00 00 
    6819:	74 05                	je     6820 <func_1+0x6b>
    681b:	e8 50 e8 ff ff       	callq  5070 <__stack_chk_fail@plt>
    6820:	c9                   	leaveq 
    6821:	c3                   	retq   

0000000000006822 <func_4>:
    6822:	f3 0f 1e fa          	endbr64 
    6826:	55                   	push   %rbp
    6827:	48 89 e5             	mov    %rsp,%rbp
    682a:	41 57                	push   %r15
    682c:	41 56                	push   %r14
    682e:	41 55                	push   %r13
    6830:	41 54                	push   %r12
    6832:	53                   	push   %rbx
    6833:	48 81 ec 68 06 00 00 	sub    $0x668,%rsp
    683a:	89 bd 7c f9 ff ff    	mov    %edi,-0x684(%rbp)
    6840:	64 48 8b 04 25 28 00 	mov    %fs:0x28,%rax
    6847:	00 00 
    6849:	48 89 45 c8          	mov    %rax,-0x38(%rbp)
    684d:	31 c0                	xor    %eax,%eax
    684f:	48 8d 05 ce c7 00 00 	lea    0xc7ce(%rip),%rax        # 13024 <g_18>
    6856:	48 89 85 b8 f9 ff ff 	mov    %rax,-0x648(%rbp)
    685d:	48 8d 85 b8 f9 ff ff 	lea    -0x648(%rbp),%rax
    6864:	48 89 85 f8 f9 ff ff 	mov    %rax,-0x608(%rbp)
    686b:	48 c7 85 00 fa ff ff 	movq   $0x0,-0x600(%rbp)
    6872:	00 00 00 00 
    6876:	48 8d 05 ab c7 00 00 	lea    0xc7ab(%rip),%rax        # 13028 <g_43>
    687d:	48 89 85 c0 f9 ff ff 	mov    %rax,-0x640(%rbp)
    6884:	48 8d 05 05 ee 00 00 	lea    0xee05(%rip),%rax        # 15690 <g_229>
    688b:	48 89 85 08 fa ff ff 	mov    %rax,-0x5f8(%rbp)
    6892:	48 c7 85 c8 f9 ff ff 	movq   $0x0,-0x638(%rbp)
    6899:	00 00 00 00 
    689d:	48 8d 85 c8 f9 ff ff 	lea    -0x638(%rbp),%rax
    68a4:	48 89 85 d0 f9 ff ff 	mov    %rax,-0x630(%rbp)
    68ab:	48 8d 85 d0 f9 ff ff 	lea    -0x630(%rbp),%rax
    68b2:	48 89 85 c0 fa ff ff 	mov    %rax,-0x540(%rbp)
    68b9:	48 8d 85 d0 f9 ff ff 	lea    -0x630(%rbp),%rax
    68c0:	48 89 85 c8 fa ff ff 	mov    %rax,-0x538(%rbp)
    68c7:	48 c7 85 d0 fa ff ff 	movq   $0x0,-0x530(%rbp)
    68ce:	00 00 00 00 
    68d2:	48 8d 85 d0 f9 ff ff 	lea    -0x630(%rbp),%rax
    68d9:	48 89 85 d8 fa ff ff 	mov    %rax,-0x528(%rbp)
    68e0:	48 c7 85 e0 fa ff ff 	movq   $0x0,-0x520(%rbp)
    68e7:	00 00 00 00 
    68eb:	48 8d 85 d0 f9 ff ff 	lea    -0x630(%rbp),%rax
    68f2:	48 89 85 e8 fa ff ff 	mov    %rax,-0x518(%rbp)
    68f9:	48 8d 85 d0 f9 ff ff 	lea    -0x630(%rbp),%rax
    6900:	48 89 85 f0 fa ff ff 	mov    %rax,-0x510(%rbp)
    6907:	48 c7 85 f8 fa ff ff 	movq   $0x0,-0x508(%rbp)
    690e:	00 00 00 00 
    6912:	48 c7 85 00 fb ff ff 	movq   $0x0,-0x500(%rbp)
    6919:	00 00 00 00 
    691d:	48 8d 85 d0 f9 ff ff 	lea    -0x630(%rbp),%rax
    6924:	48 89 85 08 fb ff ff 	mov    %rax,-0x4f8(%rbp)
    692b:	48 8d 85 d0 f9 ff ff 	lea    -0x630(%rbp),%rax
    6932:	48 89 85 10 fb ff ff 	mov    %rax,-0x4f0(%rbp)
    6939:	48 c7 85 18 fb ff ff 	movq   $0x0,-0x4e8(%rbp)
    6940:	00 00 00 00 
    6944:	48 8d 85 d0 f9 ff ff 	lea    -0x630(%rbp),%rax
    694b:	48 89 85 20 fb ff ff 	mov    %rax,-0x4e0(%rbp)
    6952:	48 8d 85 d0 f9 ff ff 	lea    -0x630(%rbp),%rax
    6959:	48 89 85 28 fb ff ff 	mov    %rax,-0x4d8(%rbp)
    6960:	48 8d 85 d0 f9 ff ff 	lea    -0x630(%rbp),%rax
    6967:	48 89 85 30 fb ff ff 	mov    %rax,-0x4d0(%rbp)
    696e:	48 c7 85 38 fb ff ff 	movq   $0x0,-0x4c8(%rbp)
    6975:	00 00 00 00 
    6979:	48 8d 85 d0 f9 ff ff 	lea    -0x630(%rbp),%rax
    6980:	48 89 85 40 fb ff ff 	mov    %rax,-0x4c0(%rbp)
    6987:	48 8d 85 d0 f9 ff ff 	lea    -0x630(%rbp),%rax
    698e:	48 89 85 48 fb ff ff 	mov    %rax,-0x4b8(%rbp)
    6995:	48 8d 85 d0 f9 ff ff 	lea    -0x630(%rbp),%rax
    699c:	48 89 85 50 fb ff ff 	mov    %rax,-0x4b0(%rbp)
    69a3:	48 8d 85 d0 f9 ff ff 	lea    -0x630(%rbp),%rax
    69aa:	48 89 85 58 fb ff ff 	mov    %rax,-0x4a8(%rbp)
    69b1:	48 8d 85 d0 f9 ff ff 	lea    -0x630(%rbp),%rax
    69b8:	48 89 85 60 fb ff ff 	mov    %rax,-0x4a0(%rbp)
    69bf:	48 8d 85 d0 f9 ff ff 	lea    -0x630(%rbp),%rax
    69c6:	48 89 85 68 fb ff ff 	mov    %rax,-0x498(%rbp)
    69cd:	48 8d 85 d0 f9 ff ff 	lea    -0x630(%rbp),%rax
    69d4:	48 89 85 70 fb ff ff 	mov    %rax,-0x490(%rbp)
    69db:	48 8d 85 d0 f9 ff ff 	lea    -0x630(%rbp),%rax
    69e2:	48 89 85 78 fb ff ff 	mov    %rax,-0x488(%rbp)
    69e9:	48 8d 85 d0 f9 ff ff 	lea    -0x630(%rbp),%rax
    69f0:	48 89 85 80 fb ff ff 	mov    %rax,-0x480(%rbp)
    69f7:	48 8d 85 d0 f9 ff ff 	lea    -0x630(%rbp),%rax
    69fe:	48 89 85 88 fb ff ff 	mov    %rax,-0x478(%rbp)
    6a05:	48 8d 85 d0 f9 ff ff 	lea    -0x630(%rbp),%rax
    6a0c:	48 89 85 90 fb ff ff 	mov    %rax,-0x470(%rbp)
    6a13:	48 8d 85 d0 f9 ff ff 	lea    -0x630(%rbp),%rax
    6a1a:	48 89 85 98 fb ff ff 	mov    %rax,-0x468(%rbp)
    6a21:	48 8d 85 d0 f9 ff ff 	lea    -0x630(%rbp),%rax
    6a28:	48 89 85 a0 fb ff ff 	mov    %rax,-0x460(%rbp)
    6a2f:	48 8d 85 d0 f9 ff ff 	lea    -0x630(%rbp),%rax
    6a36:	48 89 85 a8 fb ff ff 	mov    %rax,-0x458(%rbp)
    6a3d:	48 c7 85 b0 fb ff ff 	movq   $0x0,-0x450(%rbp)
    6a44:	00 00 00 00 
    6a48:	48 8d 85 d0 f9 ff ff 	lea    -0x630(%rbp),%rax
    6a4f:	48 89 85 b8 fb ff ff 	mov    %rax,-0x448(%rbp)
    6a56:	48 8d 85 d0 f9 ff ff 	lea    -0x630(%rbp),%rax
    6a5d:	48 89 85 c0 fb ff ff 	mov    %rax,-0x440(%rbp)
    6a64:	48 8d 85 d0 f9 ff ff 	lea    -0x630(%rbp),%rax
    6a6b:	48 89 85 c8 fb ff ff 	mov    %rax,-0x438(%rbp)
    6a72:	48 8d 85 d0 f9 ff ff 	lea    -0x630(%rbp),%rax
    6a79:	48 89 85 d0 fb ff ff 	mov    %rax,-0x430(%rbp)
    6a80:	48 8d 85 d0 f9 ff ff 	lea    -0x630(%rbp),%rax
    6a87:	48 89 85 d8 fb ff ff 	mov    %rax,-0x428(%rbp)
    6a8e:	48 8d 85 d0 f9 ff ff 	lea    -0x630(%rbp),%rax
    6a95:	48 89 85 e0 fb ff ff 	mov    %rax,-0x420(%rbp)
    6a9c:	48 8d 85 d0 f9 ff ff 	lea    -0x630(%rbp),%rax
    6aa3:	48 89 85 e8 fb ff ff 	mov    %rax,-0x418(%rbp)
    6aaa:	48 c7 85 f0 fb ff ff 	movq   $0x0,-0x410(%rbp)
    6ab1:	00 00 00 00 
    6ab5:	48 8d 85 d0 f9 ff ff 	lea    -0x630(%rbp),%rax
    6abc:	48 89 85 f8 fb ff ff 	mov    %rax,-0x408(%rbp)
    6ac3:	48 8d 85 d0 f9 ff ff 	lea    -0x630(%rbp),%rax
    6aca:	48 89 85 00 fc ff ff 	mov    %rax,-0x400(%rbp)
    6ad1:	48 8d 85 d0 f9 ff ff 	lea    -0x630(%rbp),%rax
    6ad8:	48 89 85 08 fc ff ff 	mov    %rax,-0x3f8(%rbp)
    6adf:	48 8d 85 d0 f9 ff ff 	lea    -0x630(%rbp),%rax
    6ae6:	48 89 85 10 fc ff ff 	mov    %rax,-0x3f0(%rbp)
    6aed:	48 c7 85 18 fc ff ff 	movq   $0x0,-0x3e8(%rbp)
    6af4:	00 00 00 00 
    6af8:	48 8d 85 d0 f9 ff ff 	lea    -0x630(%rbp),%rax
    6aff:	48 89 85 20 fc ff ff 	mov    %rax,-0x3e0(%rbp)
    6b06:	48 c7 85 28 fc ff ff 	movq   $0x0,-0x3d8(%rbp)
    6b0d:	00 00 00 00 
    6b11:	48 8d 85 d0 f9 ff ff 	lea    -0x630(%rbp),%rax
    6b18:	48 89 85 30 fc ff ff 	mov    %rax,-0x3d0(%rbp)
    6b1f:	48 8d 85 d0 f9 ff ff 	lea    -0x630(%rbp),%rax
    6b26:	48 89 85 38 fc ff ff 	mov    %rax,-0x3c8(%rbp)
    6b2d:	48 8d 85 d0 f9 ff ff 	lea    -0x630(%rbp),%rax
    6b34:	48 89 85 40 fc ff ff 	mov    %rax,-0x3c0(%rbp)
    6b3b:	48 8d 85 d0 f9 ff ff 	lea    -0x630(%rbp),%rax
    6b42:	48 89 85 48 fc ff ff 	mov    %rax,-0x3b8(%rbp)
    6b49:	48 8d 85 d0 f9 ff ff 	lea    -0x630(%rbp),%rax
    6b50:	48 89 85 50 fc ff ff 	mov    %rax,-0x3b0(%rbp)
    6b57:	48 8d 85 d0 f9 ff ff 	lea    -0x630(%rbp),%rax
    6b5e:	48 89 85 58 fc ff ff 	mov    %rax,-0x3a8(%rbp)
    6b65:	48 c7 85 60 fc ff ff 	movq   $0x0,-0x3a0(%rbp)
    6b6c:	00 00 00 00 
    6b70:	48 c7 85 68 fc ff ff 	movq   $0x0,-0x398(%rbp)
    6b77:	00 00 00 00 
    6b7b:	48 8d 85 d0 f9 ff ff 	lea    -0x630(%rbp),%rax
    6b82:	48 89 85 70 fc ff ff 	mov    %rax,-0x390(%rbp)
    6b89:	48 8d 85 d0 f9 ff ff 	lea    -0x630(%rbp),%rax
    6b90:	48 89 85 78 fc ff ff 	mov    %rax,-0x388(%rbp)
    6b97:	48 8d 85 d0 f9 ff ff 	lea    -0x630(%rbp),%rax
    6b9e:	48 89 85 80 fc ff ff 	mov    %rax,-0x380(%rbp)
    6ba5:	48 8d 85 d0 f9 ff ff 	lea    -0x630(%rbp),%rax
    6bac:	48 89 85 88 fc ff ff 	mov    %rax,-0x378(%rbp)
    6bb3:	48 8d 85 d0 f9 ff ff 	lea    -0x630(%rbp),%rax
    6bba:	48 89 85 90 fc ff ff 	mov    %rax,-0x370(%rbp)
    6bc1:	48 8d 85 d0 f9 ff ff 	lea    -0x630(%rbp),%rax
    6bc8:	48 89 85 98 fc ff ff 	mov    %rax,-0x368(%rbp)
    6bcf:	48 8d 85 d0 f9 ff ff 	lea    -0x630(%rbp),%rax
    6bd6:	48 89 85 a0 fc ff ff 	mov    %rax,-0x360(%rbp)
    6bdd:	48 8d 85 d0 f9 ff ff 	lea    -0x630(%rbp),%rax
    6be4:	48 89 85 a8 fc ff ff 	mov    %rax,-0x358(%rbp)
    6beb:	48 8d 85 d0 f9 ff ff 	lea    -0x630(%rbp),%rax
    6bf2:	48 89 85 b0 fc ff ff 	mov    %rax,-0x350(%rbp)
    6bf9:	48 8d 85 d0 f9 ff ff 	lea    -0x630(%rbp),%rax
    6c00:	48 89 85 b8 fc ff ff 	mov    %rax,-0x348(%rbp)
    6c07:	48 8d 85 d0 f9 ff ff 	lea    -0x630(%rbp),%rax
    6c0e:	48 89 85 c0 fc ff ff 	mov    %rax,-0x340(%rbp)
    6c15:	48 8d 85 d0 f9 ff ff 	lea    -0x630(%rbp),%rax
    6c1c:	48 89 85 c8 fc ff ff 	mov    %rax,-0x338(%rbp)
    6c23:	48 8d 85 d0 f9 ff ff 	lea    -0x630(%rbp),%rax
    6c2a:	48 89 85 d0 fc ff ff 	mov    %rax,-0x330(%rbp)
    6c31:	48 c7 85 d8 fc ff ff 	movq   $0x0,-0x328(%rbp)
    6c38:	00 00 00 00 
    6c3c:	48 8d 85 d0 f9 ff ff 	lea    -0x630(%rbp),%rax
    6c43:	48 89 85 e0 fc ff ff 	mov    %rax,-0x320(%rbp)
    6c4a:	48 8d 85 d0 f9 ff ff 	lea    -0x630(%rbp),%rax
    6c51:	48 89 85 e8 fc ff ff 	mov    %rax,-0x318(%rbp)
    6c58:	48 8d 85 d0 f9 ff ff 	lea    -0x630(%rbp),%rax
    6c5f:	48 89 85 f0 fc ff ff 	mov    %rax,-0x310(%rbp)
    6c66:	48 8d 85 d0 f9 ff ff 	lea    -0x630(%rbp),%rax
    6c6d:	48 89 85 f8 fc ff ff 	mov    %rax,-0x308(%rbp)
    6c74:	48 8d 85 d0 f9 ff ff 	lea    -0x630(%rbp),%rax
    6c7b:	48 89 85 00 fd ff ff 	mov    %rax,-0x300(%rbp)
    6c82:	48 8d 85 d0 f9 ff ff 	lea    -0x630(%rbp),%rax
    6c89:	48 89 85 08 fd ff ff 	mov    %rax,-0x2f8(%rbp)
    6c90:	48 8d 85 d0 f9 ff ff 	lea    -0x630(%rbp),%rax
    6c97:	48 89 85 10 fd ff ff 	mov    %rax,-0x2f0(%rbp)
    6c9e:	48 8d 85 d0 f9 ff ff 	lea    -0x630(%rbp),%rax
    6ca5:	48 89 85 18 fd ff ff 	mov    %rax,-0x2e8(%rbp)
    6cac:	48 8d 85 d0 f9 ff ff 	lea    -0x630(%rbp),%rax
    6cb3:	48 89 85 20 fd ff ff 	mov    %rax,-0x2e0(%rbp)
    6cba:	48 8d 85 d0 f9 ff ff 	lea    -0x630(%rbp),%rax
    6cc1:	48 89 85 28 fd ff ff 	mov    %rax,-0x2d8(%rbp)
    6cc8:	48 c7 85 30 fd ff ff 	movq   $0x0,-0x2d0(%rbp)
    6ccf:	00 00 00 00 
    6cd3:	48 c7 85 38 fd ff ff 	movq   $0x0,-0x2c8(%rbp)
    6cda:	00 00 00 00 
    6cde:	48 c7 85 40 fd ff ff 	movq   $0x0,-0x2c0(%rbp)
    6ce5:	00 00 00 00 
    6ce9:	48 8d 85 d0 f9 ff ff 	lea    -0x630(%rbp),%rax
    6cf0:	48 89 85 48 fd ff ff 	mov    %rax,-0x2b8(%rbp)
    6cf7:	48 8d 85 d0 f9 ff ff 	lea    -0x630(%rbp),%rax
    6cfe:	48 89 85 50 fd ff ff 	mov    %rax,-0x2b0(%rbp)
    6d05:	48 8d 85 d0 f9 ff ff 	lea    -0x630(%rbp),%rax
    6d0c:	48 89 85 58 fd ff ff 	mov    %rax,-0x2a8(%rbp)
    6d13:	48 8d 85 d0 f9 ff ff 	lea    -0x630(%rbp),%rax
    6d1a:	48 89 85 60 fd ff ff 	mov    %rax,-0x2a0(%rbp)
    6d21:	48 c7 85 68 fd ff ff 	movq   $0x0,-0x298(%rbp)
    6d28:	00 00 00 00 
    6d2c:	48 c7 85 70 fd ff ff 	movq   $0x0,-0x290(%rbp)
    6d33:	00 00 00 00 
    6d37:	48 8d 85 d0 f9 ff ff 	lea    -0x630(%rbp),%rax
    6d3e:	48 89 85 78 fd ff ff 	mov    %rax,-0x288(%rbp)
    6d45:	48 c7 85 80 fd ff ff 	movq   $0x0,-0x280(%rbp)
    6d4c:	00 00 00 00 
    6d50:	48 8d 85 d0 f9 ff ff 	lea    -0x630(%rbp),%rax
    6d57:	48 89 85 88 fd ff ff 	mov    %rax,-0x278(%rbp)
    6d5e:	48 8d 85 d0 f9 ff ff 	lea    -0x630(%rbp),%rax
    6d65:	48 89 85 90 fd ff ff 	mov    %rax,-0x270(%rbp)
    6d6c:	48 8d 85 d0 f9 ff ff 	lea    -0x630(%rbp),%rax
    6d73:	48 89 85 98 fd ff ff 	mov    %rax,-0x268(%rbp)
    6d7a:	48 8d 85 d0 f9 ff ff 	lea    -0x630(%rbp),%rax
    6d81:	48 89 85 a0 fd ff ff 	mov    %rax,-0x260(%rbp)
    6d88:	48 8d 85 d0 f9 ff ff 	lea    -0x630(%rbp),%rax
    6d8f:	48 89 85 a8 fd ff ff 	mov    %rax,-0x258(%rbp)
    6d96:	48 8d 85 d0 f9 ff ff 	lea    -0x630(%rbp),%rax
    6d9d:	48 89 85 b0 fd ff ff 	mov    %rax,-0x250(%rbp)
    6da4:	48 8d 85 d0 f9 ff ff 	lea    -0x630(%rbp),%rax
    6dab:	48 89 85 b8 fd ff ff 	mov    %rax,-0x248(%rbp)
    6db2:	48 c7 85 c0 fd ff ff 	movq   $0x0,-0x240(%rbp)
    6db9:	00 00 00 00 
    6dbd:	48 8d 85 d0 f9 ff ff 	lea    -0x630(%rbp),%rax
    6dc4:	48 89 85 c8 fd ff ff 	mov    %rax,-0x238(%rbp)
    6dcb:	48 8d 85 d0 f9 ff ff 	lea    -0x630(%rbp),%rax
    6dd2:	48 89 85 d0 fd ff ff 	mov    %rax,-0x230(%rbp)
    6dd9:	48 8d 85 d0 f9 ff ff 	lea    -0x630(%rbp),%rax
    6de0:	48 89 85 d8 fd ff ff 	mov    %rax,-0x228(%rbp)
    6de7:	48 8d 85 d0 f9 ff ff 	lea    -0x630(%rbp),%rax
    6dee:	48 89 85 e0 fd ff ff 	mov    %rax,-0x220(%rbp)
    6df5:	48 8d 85 d0 f9 ff ff 	lea    -0x630(%rbp),%rax
    6dfc:	48 89 85 e8 fd ff ff 	mov    %rax,-0x218(%rbp)
    6e03:	48 8d 85 d0 f9 ff ff 	lea    -0x630(%rbp),%rax
    6e0a:	48 89 85 f0 fd ff ff 	mov    %rax,-0x210(%rbp)
    6e11:	48 8d 85 d0 f9 ff ff 	lea    -0x630(%rbp),%rax
    6e18:	48 89 85 f8 fd ff ff 	mov    %rax,-0x208(%rbp)
    6e1f:	48 8d 85 d0 f9 ff ff 	lea    -0x630(%rbp),%rax
    6e26:	48 89 85 00 fe ff ff 	mov    %rax,-0x200(%rbp)
    6e2d:	48 8d 85 d0 f9 ff ff 	lea    -0x630(%rbp),%rax
    6e34:	48 89 85 08 fe ff ff 	mov    %rax,-0x1f8(%rbp)
    6e3b:	48 8d 85 d0 f9 ff ff 	lea    -0x630(%rbp),%rax
    6e42:	48 89 85 10 fe ff ff 	mov    %rax,-0x1f0(%rbp)
    6e49:	48 8d 85 d0 f9 ff ff 	lea    -0x630(%rbp),%rax
    6e50:	48 89 85 18 fe ff ff 	mov    %rax,-0x1e8(%rbp)
    6e57:	48 8d 85 d0 f9 ff ff 	lea    -0x630(%rbp),%rax
    6e5e:	48 89 85 20 fe ff ff 	mov    %rax,-0x1e0(%rbp)
    6e65:	48 8d 85 d0 f9 ff ff 	lea    -0x630(%rbp),%rax
    6e6c:	48 89 85 28 fe ff ff 	mov    %rax,-0x1d8(%rbp)
    6e73:	48 8d 85 d0 f9 ff ff 	lea    -0x630(%rbp),%rax
    6e7a:	48 89 85 30 fe ff ff 	mov    %rax,-0x1d0(%rbp)
    6e81:	48 c7 85 38 fe ff ff 	movq   $0x0,-0x1c8(%rbp)
    6e88:	00 00 00 00 
    6e8c:	48 8d 85 d0 f9 ff ff 	lea    -0x630(%rbp),%rax
    6e93:	48 89 85 40 fe ff ff 	mov    %rax,-0x1c0(%rbp)
    6e9a:	48 c7 85 48 fe ff ff 	movq   $0x0,-0x1b8(%rbp)
    6ea1:	00 00 00 00 
    6ea5:	48 c7 85 50 fe ff ff 	movq   $0x0,-0x1b0(%rbp)
    6eac:	00 00 00 00 
    6eb0:	48 8d 85 d0 f9 ff ff 	lea    -0x630(%rbp),%rax
    6eb7:	48 89 85 58 fe ff ff 	mov    %rax,-0x1a8(%rbp)
    6ebe:	48 8d 85 d0 f9 ff ff 	lea    -0x630(%rbp),%rax
    6ec5:	48 89 85 60 fe ff ff 	mov    %rax,-0x1a0(%rbp)
    6ecc:	48 8d 85 d0 f9 ff ff 	lea    -0x630(%rbp),%rax
    6ed3:	48 89 85 68 fe ff ff 	mov    %rax,-0x198(%rbp)
    6eda:	48 c7 85 70 fe ff ff 	movq   $0x0,-0x190(%rbp)
    6ee1:	00 00 00 00 
    6ee5:	48 8d 85 d0 f9 ff ff 	lea    -0x630(%rbp),%rax
    6eec:	48 89 85 78 fe ff ff 	mov    %rax,-0x188(%rbp)
    6ef3:	48 8d 85 d0 f9 ff ff 	lea    -0x630(%rbp),%rax
    6efa:	48 89 85 80 fe ff ff 	mov    %rax,-0x180(%rbp)
    6f01:	48 8d 85 d0 f9 ff ff 	lea    -0x630(%rbp),%rax
    6f08:	48 89 85 88 fe ff ff 	mov    %rax,-0x178(%rbp)
    6f0f:	48 8d 85 d0 f9 ff ff 	lea    -0x630(%rbp),%rax
    6f16:	48 89 85 90 fe ff ff 	mov    %rax,-0x170(%rbp)
    6f1d:	48 8d 85 d0 f9 ff ff 	lea    -0x630(%rbp),%rax
    6f24:	48 89 85 98 fe ff ff 	mov    %rax,-0x168(%rbp)
    6f2b:	48 8d 85 d0 f9 ff ff 	lea    -0x630(%rbp),%rax
    6f32:	48 89 85 a0 fe ff ff 	mov    %rax,-0x160(%rbp)
    6f39:	48 8d 85 d0 f9 ff ff 	lea    -0x630(%rbp),%rax
    6f40:	48 89 85 a8 fe ff ff 	mov    %rax,-0x158(%rbp)
    6f47:	48 8d 85 d0 f9 ff ff 	lea    -0x630(%rbp),%rax
    6f4e:	48 89 85 b0 fe ff ff 	mov    %rax,-0x150(%rbp)
    6f55:	48 8d 85 d0 f9 ff ff 	lea    -0x630(%rbp),%rax
    6f5c:	48 89 85 b8 fe ff ff 	mov    %rax,-0x148(%rbp)
    6f63:	48 8d 85 d0 f9 ff ff 	lea    -0x630(%rbp),%rax
    6f6a:	48 89 85 c0 fe ff ff 	mov    %rax,-0x140(%rbp)
    6f71:	48 8d 85 d0 f9 ff ff 	lea    -0x630(%rbp),%rax
    6f78:	48 89 85 c8 fe ff ff 	mov    %rax,-0x138(%rbp)
    6f7f:	48 8d 85 d0 f9 ff ff 	lea    -0x630(%rbp),%rax
    6f86:	48 89 85 d0 fe ff ff 	mov    %rax,-0x130(%rbp)
    6f8d:	48 8d 85 d0 f9 ff ff 	lea    -0x630(%rbp),%rax
    6f94:	48 89 85 d8 fe ff ff 	mov    %rax,-0x128(%rbp)
    6f9b:	48 c7 85 e0 fe ff ff 	movq   $0x0,-0x120(%rbp)
    6fa2:	00 00 00 00 
    6fa6:	48 8d 85 d0 f9 ff ff 	lea    -0x630(%rbp),%rax
    6fad:	48 89 85 e8 fe ff ff 	mov    %rax,-0x118(%rbp)
    6fb4:	48 8d 85 d0 f9 ff ff 	lea    -0x630(%rbp),%rax
    6fbb:	48 89 85 f0 fe ff ff 	mov    %rax,-0x110(%rbp)
    6fc2:	48 8d 85 d0 f9 ff ff 	lea    -0x630(%rbp),%rax
    6fc9:	48 89 85 f8 fe ff ff 	mov    %rax,-0x108(%rbp)
    6fd0:	48 8d 85 d0 f9 ff ff 	lea    -0x630(%rbp),%rax
    6fd7:	48 89 85 00 ff ff ff 	mov    %rax,-0x100(%rbp)
    6fde:	48 c7 85 08 ff ff ff 	movq   $0x0,-0xf8(%rbp)
    6fe5:	00 00 00 00 
    6fe9:	48 8d 85 d0 f9 ff ff 	lea    -0x630(%rbp),%rax
    6ff0:	48 89 85 10 ff ff ff 	mov    %rax,-0xf0(%rbp)
    6ff7:	48 8d 85 d0 f9 ff ff 	lea    -0x630(%rbp),%rax
    6ffe:	48 89 85 18 ff ff ff 	mov    %rax,-0xe8(%rbp)
    7005:	48 8d 85 d0 f9 ff ff 	lea    -0x630(%rbp),%rax
    700c:	48 89 85 20 ff ff ff 	mov    %rax,-0xe0(%rbp)
    7013:	48 8d 85 d0 f9 ff ff 	lea    -0x630(%rbp),%rax
    701a:	48 89 85 28 ff ff ff 	mov    %rax,-0xd8(%rbp)
    7021:	48 8d 85 d0 f9 ff ff 	lea    -0x630(%rbp),%rax
    7028:	48 89 85 30 ff ff ff 	mov    %rax,-0xd0(%rbp)
    702f:	48 8d 85 d0 f9 ff ff 	lea    -0x630(%rbp),%rax
    7036:	48 89 85 38 ff ff ff 	mov    %rax,-0xc8(%rbp)
    703d:	48 8d 85 d0 f9 ff ff 	lea    -0x630(%rbp),%rax
    7044:	48 89 85 40 ff ff ff 	mov    %rax,-0xc0(%rbp)
    704b:	48 c7 85 48 ff ff ff 	movq   $0x0,-0xb8(%rbp)
    7052:	00 00 00 00 
    7056:	48 8d 85 d0 f9 ff ff 	lea    -0x630(%rbp),%rax
    705d:	48 89 85 50 ff ff ff 	mov    %rax,-0xb0(%rbp)
    7064:	48 8d 85 d0 f9 ff ff 	lea    -0x630(%rbp),%rax
    706b:	48 89 85 58 ff ff ff 	mov    %rax,-0xa8(%rbp)
    7072:	48 c7 85 60 ff ff ff 	movq   $0x0,-0xa0(%rbp)
    7079:	00 00 00 00 
    707d:	48 8d 85 d0 f9 ff ff 	lea    -0x630(%rbp),%rax
    7084:	48 89 85 68 ff ff ff 	mov    %rax,-0x98(%rbp)
    708b:	48 8d 85 d0 f9 ff ff 	lea    -0x630(%rbp),%rax
    7092:	48 89 85 70 ff ff ff 	mov    %rax,-0x90(%rbp)
    7099:	48 8d 85 d0 f9 ff ff 	lea    -0x630(%rbp),%rax
    70a0:	48 89 85 78 ff ff ff 	mov    %rax,-0x88(%rbp)
    70a7:	48 8d 85 d0 f9 ff ff 	lea    -0x630(%rbp),%rax
    70ae:	48 89 45 80          	mov    %rax,-0x80(%rbp)
    70b2:	48 8d 85 d0 f9 ff ff 	lea    -0x630(%rbp),%rax
    70b9:	48 89 45 88          	mov    %rax,-0x78(%rbp)
    70bd:	48 c7 45 90 00 00 00 	movq   $0x0,-0x70(%rbp)
    70c4:	00 
    70c5:	48 8d 85 d0 f9 ff ff 	lea    -0x630(%rbp),%rax
    70cc:	48 89 45 98          	mov    %rax,-0x68(%rbp)
    70d0:	48 8d 85 d0 f9 ff ff 	lea    -0x630(%rbp),%rax
    70d7:	48 89 45 a0          	mov    %rax,-0x60(%rbp)
    70db:	48 c7 45 a8 00 00 00 	movq   $0x0,-0x58(%rbp)
    70e2:	00 
    70e3:	48 8d 85 d0 f9 ff ff 	lea    -0x630(%rbp),%rax
    70ea:	48 89 45 b0          	mov    %rax,-0x50(%rbp)
    70ee:	48 8d 85 d0 f9 ff ff 	lea    -0x630(%rbp),%rax
    70f5:	48 89 45 b8          	mov    %rax,-0x48(%rbp)
    70f9:	48 8d 05 40 bf 00 00 	lea    0xbf40(%rip),%rax        # 13040 <g_119>
    7100:	48 89 85 10 fa ff ff 	mov    %rax,-0x5f0(%rbp)
    7107:	c7 85 a0 f9 ff ff f6 	movl   $0xfffffff6,-0x660(%rbp)
    710e:	ff ff ff 
    7111:	48 8d 05 d4 c3 00 00 	lea    0xc3d4(%rip),%rax        # 134ec <g_1528>
    7118:	48 89 85 d8 f9 ff ff 	mov    %rax,-0x628(%rbp)
    711f:	48 8d 85 d8 f9 ff ff 	lea    -0x628(%rbp),%rax
    7126:	48 89 85 e0 f9 ff ff 	mov    %rax,-0x620(%rbp)
    712d:	48 8d 85 e0 f9 ff ff 	lea    -0x620(%rbp),%rax
    7134:	48 89 85 e8 f9 ff ff 	mov    %rax,-0x618(%rbp)
    713b:	48 8d 85 e8 f9 ff ff 	lea    -0x618(%rbp),%rax
    7142:	48 89 85 18 fa ff ff 	mov    %rax,-0x5e8(%rbp)
    7149:	48 8d 05 90 d4 00 00 	lea    0xd490(%rip),%rax        # 145e0 <g_328>
    7150:	48 89 85 20 fa ff ff 	mov    %rax,-0x5e0(%rbp)
    7157:	c7 85 a4 f9 ff ff fd 	movl   $0xfffffffd,-0x65c(%rbp)
    715e:	ff ff ff 
    7161:	c7 85 90 f9 ff ff 00 	movl   $0x0,-0x670(%rbp)
    7168:	00 00 00 
    716b:	eb 4b                	jmp    71b8 <func_4+0x996>
    716d:	c7 85 94 f9 ff ff 00 	movl   $0x0,-0x66c(%rbp)
    7174:	00 00 00 
    7177:	eb 2f                	jmp    71a8 <func_4+0x986>
    7179:	8b 85 94 f9 ff ff    	mov    -0x66c(%rbp),%eax
    717f:	48 63 c8             	movslq %eax,%rcx
    7182:	8b 85 90 f9 ff ff    	mov    -0x670(%rbp),%eax
    7188:	48 63 d0             	movslq %eax,%rdx
    718b:	48 89 d0             	mov    %rdx,%rax
    718e:	48 01 c0             	add    %rax,%rax
    7191:	48 01 d0             	add    %rdx,%rax
    7194:	48 01 c8             	add    %rcx,%rax
    7197:	66 c7 84 45 80 fa ff 	movw   $0xd76c,-0x580(%rbp,%rax,2)
    719e:	ff 6c d7 
    71a1:	83 85 94 f9 ff ff 01 	addl   $0x1,-0x66c(%rbp)
    71a8:	83 bd 94 f9 ff ff 02 	cmpl   $0x2,-0x66c(%rbp)
    71af:	7e c8                	jle    7179 <func_4+0x957>
    71b1:	83 85 90 f9 ff ff 01 	addl   $0x1,-0x670(%rbp)
    71b8:	83 bd 90 f9 ff ff 08 	cmpl   $0x8,-0x670(%rbp)
    71bf:	7e ac                	jle    716d <func_4+0x94b>
    71c1:	c7 85 90 f9 ff ff 00 	movl   $0x0,-0x670(%rbp)
    71c8:	00 00 00 
    71cb:	eb 1a                	jmp    71e7 <func_4+0x9c5>
    71cd:	8b 85 90 f9 ff ff    	mov    -0x670(%rbp),%eax
    71d3:	48 98                	cltq   
    71d5:	c7 84 85 70 fa ff ff 	movl   $0xfffffff9,-0x590(%rbp,%rax,4)
    71dc:	f9 ff ff ff 
    71e0:	83 85 90 f9 ff ff 01 	addl   $0x1,-0x670(%rbp)
    71e7:	83 bd 90 f9 ff ff 03 	cmpl   $0x3,-0x670(%rbp)
    71ee:	7e dd                	jle    71cd <func_4+0x9ab>
    71f0:	48 8b 85 f8 f9 ff ff 	mov    -0x608(%rbp),%rax
    71f7:	48 89 c7             	mov    %rax,%rdi
    71fa:	e8 1f 08 00 00       	callq  7a1e <func_14>
    71ff:	48 89 c1             	mov    %rax,%rcx
    7202:	0f b7 85 82 fa ff ff 	movzwl -0x57e(%rbp),%eax
    7209:	0f b6 c0             	movzbl %al,%eax
    720c:	48 8d 95 c0 f9 ff ff 	lea    -0x640(%rbp),%rdx
    7213:	48 89 ce             	mov    %rcx,%rsi
    7216:	89 c7                	mov    %eax,%edi
    7218:	e8 e1 07 00 00       	callq  79fe <func_9>
    721d:	98                   	cwtl   
    721e:	0b 85 7c f9 ff ff    	or     -0x684(%rbp),%eax
    7224:	48 98                	cltq   
    7226:	be 09 00 00 00       	mov    $0x9,%esi
    722b:	48 89 c7             	mov    %rax,%rdi
    722e:	e8 fb ed ff ff       	callq  602e <safe_add_func_uint64_t_u_u>
    7233:	35 50 54 90 46       	xor    $0x46905450,%eax
    7238:	89 c2                	mov    %eax,%edx
    723a:	48 8b 85 c0 f9 ff ff 	mov    -0x640(%rbp),%rax
    7241:	89 10                	mov    %edx,(%rax)
    7243:	83 bd 7c f9 ff ff 00 	cmpl   $0x0,-0x684(%rbp)
    724a:	75 74                	jne    72c0 <func_4+0xa9e>
    724c:	0f b6 05 e6 bd 00 00 	movzbl 0xbde6(%rip),%eax        # 13039 <g_110>
    7253:	0f be c0             	movsbl %al,%eax
    7256:	be 00 00 00 00       	mov    $0x0,%esi
    725b:	89 c7                	mov    %eax,%edi
    725d:	e8 0a e1 ff ff       	callq  536c <safe_rshift_func_int8_t_s_u>
    7262:	66 98                	cbtw   
    7264:	0f b7 d0             	movzwl %ax,%edx
    7267:	48 8b 85 b8 f9 ff ff 	mov    -0x648(%rbp),%rax
    726e:	8b 00                	mov    (%rax),%eax
    7270:	39 85 7c f9 ff ff    	cmp    %eax,-0x684(%rbp)
    7276:	0f 9e c0             	setle  %al
    7279:	0f b6 c0             	movzbl %al,%eax
    727c:	89 d6                	mov    %edx,%esi
    727e:	89 c7                	mov    %eax,%edi
    7280:	e8 09 eb ff ff       	callq  5d8e <safe_div_func_uint16_t_u_u>
    7285:	89 c2                	mov    %eax,%edx
    7287:	48 8b 05 52 d3 00 00 	mov    0xd352(%rip),%rax        # 145e0 <g_328>
    728e:	0f b7 d2             	movzwl %dx,%edx
    7291:	48 89 10             	mov    %rdx,(%rax)
    7294:	8b 95 7c f9 ff ff    	mov    -0x684(%rbp),%edx
    729a:	48 8b 85 10 fa ff ff 	mov    -0x5f0(%rbp),%rax
    72a1:	0f b7 00             	movzwl (%rax),%eax
    72a4:	31 c2                	xor    %eax,%edx
    72a6:	48 8b 85 10 fa ff ff 	mov    -0x5f0(%rbp),%rax
    72ad:	66 89 10             	mov    %dx,(%rax)
    72b0:	48 8b 85 f8 f9 ff ff 	mov    -0x608(%rbp),%rax
    72b7:	48 8b 00             	mov    (%rax),%rax
    72ba:	8b 00                	mov    (%rax),%eax
    72bc:	85 c0                	test   %eax,%eax
    72be:	74 07                	je     72c7 <func_4+0xaa5>
    72c0:	b8 01 00 00 00       	mov    $0x1,%eax
    72c5:	eb 05                	jmp    72cc <func_4+0xaaa>
    72c7:	b8 00 00 00 00       	mov    $0x0,%eax
    72cc:	83 f8 f9             	cmp    $0xfffffff9,%eax
    72cf:	0f 9c c0             	setl   %al
    72d2:	0f b6 c0             	movzbl %al,%eax
    72d5:	09 85 a0 f9 ff ff    	or     %eax,-0x660(%rbp)
    72db:	8b 85 7c f9 ff ff    	mov    -0x684(%rbp),%eax
    72e1:	0f bf d8             	movswl %ax,%ebx
    72e4:	48 8b 05 d5 bd 00 00 	mov    0xbdd5(%rip),%rax        # 130c0 <g_519>
    72eb:	89 85 78 f9 ff ff    	mov    %eax,-0x688(%rbp)
    72f1:	48 8b 85 f8 f9 ff ff 	mov    -0x608(%rbp),%rax
    72f8:	48 8b 00             	mov    (%rax),%rax
    72fb:	8b 10                	mov    (%rax),%edx
    72fd:	48 8b 85 f8 f9 ff ff 	mov    -0x608(%rbp),%rax
    7304:	48 8b 00             	mov    (%rax),%rax
    7307:	83 f2 04             	xor    $0x4,%edx
    730a:	89 10                	mov    %edx,(%rax)
    730c:	8b 00                	mov    (%rax),%eax
    730e:	0f b7 d0             	movzwl %ax,%edx
    7311:	0f b6 05 e0 c1 00 00 	movzbl 0xc1e0(%rip),%eax        # 134f8 <g_1735>
    7318:	0f b6 c0             	movzbl %al,%eax
    731b:	89 d6                	mov    %edx,%esi
    731d:	89 c7                	mov    %eax,%edi
    731f:	e8 19 ea ff ff       	callq  5d3d <safe_mul_func_uint16_t_u_u>
    7324:	0f b6 05 11 bd 00 00 	movzbl 0xbd11(%rip),%eax        # 1303c <g_115>
    732b:	66 98                	cbtw   
    732d:	44 0f b7 e0          	movzwl %ax,%r12d
    7331:	48 8b 85 f8 f9 ff ff 	mov    -0x608(%rbp),%rax
    7338:	48 8b 00             	mov    (%rax),%rax
    733b:	44 8b 38             	mov    (%rax),%r15d
    733e:	48 8b 85 f8 f9 ff ff 	mov    -0x608(%rbp),%rax
    7345:	48 8b 00             	mov    (%rax),%rax
    7348:	8b 00                	mov    (%rax),%eax
    734a:	4c 63 e8             	movslq %eax,%r13
    734d:	8b 85 7c f9 ff ff    	mov    -0x684(%rbp),%eax
    7353:	44 0f bf f0          	movswl %ax,%r14d
    7357:	8b 85 7c f9 ff ff    	mov    -0x684(%rbp),%eax
    735d:	83 f8 fb             	cmp    $0xfffffffb,%eax
    7360:	0f 97 c0             	seta   %al
    7363:	0f b6 c0             	movzbl %al,%eax
    7366:	be 05 00 00 00       	mov    $0x5,%esi
    736b:	89 c7                	mov    %eax,%edi
    736d:	e8 c3 df ff ff       	callq  5335 <safe_rshift_func_int8_t_s_s>
    7372:	89 c2                	mov    %eax,%edx
    7374:	48 8b 05 65 d2 00 00 	mov    0xd265(%rip),%rax        # 145e0 <g_328>
    737b:	48 0f be d2          	movsbq %dl,%rdx
    737f:	48 89 10             	mov    %rdx,(%rax)
    7382:	48 8b 85 c0 f9 ff ff 	mov    -0x640(%rbp),%rax
    7389:	8b 00                	mov    (%rax),%eax
    738b:	0f bf d0             	movswl %ax,%edx
    738e:	48 8b 05 cb d2 00 00 	mov    0xd2cb(%rip),%rax        # 14660 <g_967>
    7395:	48 8b 00             	mov    (%rax),%rax
    7398:	48 8b 00             	mov    (%rax),%rax
    739b:	83 c8 01             	or     $0x1,%eax
    739e:	98                   	cwtl   
    739f:	89 d6                	mov    %edx,%esi
    73a1:	89 c7                	mov    %eax,%edi
    73a3:	e8 0b e0 ff ff       	callq  53b3 <safe_add_func_int16_t_s_s>
    73a8:	98                   	cwtl   
    73a9:	44 89 f6             	mov    %r14d,%esi
    73ac:	89 c7                	mov    %eax,%edi
    73ae:	e8 00 e0 ff ff       	callq  53b3 <safe_add_func_int16_t_s_s>
    73b3:	48 0f bf c0          	movswq %ax,%rax
    73b7:	4c 89 ee             	mov    %r13,%rsi
    73ba:	48 89 c7             	mov    %rax,%rdi
    73bd:	e8 e6 e4 ff ff       	callq  58a8 <safe_sub_func_int64_t_s_s>
    73c2:	8b 95 7c f9 ff ff    	mov    -0x684(%rbp),%edx
    73c8:	48 63 d2             	movslq %edx,%rdx
    73cb:	48 39 d0             	cmp    %rdx,%rax
    73ce:	0f 9c c0             	setl   %al
    73d1:	0f b6 c0             	movzbl %al,%eax
    73d4:	41 39 c7             	cmp    %eax,%r15d
    73d7:	0f 94 c0             	sete   %al
    73da:	0f b6 c0             	movzbl %al,%eax
    73dd:	44 89 e6             	mov    %r12d,%esi
    73e0:	89 c7                	mov    %eax,%edi
    73e2:	e8 75 e9 ff ff       	callq  5d5c <safe_mod_func_uint16_t_u_u>
    73e7:	89 c2                	mov    %eax,%edx
    73e9:	48 8b 85 c0 f9 ff ff 	mov    -0x640(%rbp),%rax
    73f0:	0f b7 d2             	movzwl %dx,%edx
    73f3:	89 10                	mov    %edx,(%rax)
    73f5:	48 8b 05 84 d6 00 00 	mov    0xd684(%rip),%rax        # 14a80 <g_1686>
    73fc:	48 8b 00             	mov    (%rax),%rax
    73ff:	48 39 85 18 fa ff ff 	cmp    %rax,-0x5e8(%rbp)
    7406:	0f 94 c0             	sete   %al
    7409:	0f b6 d0             	movzbl %al,%edx
    740c:	48 8b 85 f8 f9 ff ff 	mov    -0x608(%rbp),%rax
    7413:	48 8b 00             	mov    (%rax),%rax
    7416:	8b 00                	mov    (%rax),%eax
    7418:	39 c2                	cmp    %eax,%edx
    741a:	0f 9f c0             	setg   %al
    741d:	0f b6 d0             	movzbl %al,%edx
    7420:	0f b6 05 85 c0 00 00 	movzbl 0xc085(%rip),%eax        # 134ac <g_1056>
    7427:	0f be c0             	movsbl %al,%eax
    742a:	39 c2                	cmp    %eax,%edx
    742c:	0f 9f c0             	setg   %al
    742f:	0f b6 c0             	movzbl %al,%eax
    7432:	8b b5 78 f9 ff ff    	mov    -0x688(%rbp),%esi
    7438:	89 c7                	mov    %eax,%edi
    743a:	e8 24 e1 ff ff       	callq  5563 <safe_rshift_func_int16_t_s_u>
    743f:	98                   	cwtl   
    7440:	89 de                	mov    %ebx,%esi
    7442:	89 c7                	mov    %eax,%edi
    7444:	e8 cd df ff ff       	callq  5416 <safe_mod_func_int16_t_s_s>
    7449:	98                   	cwtl   
    744a:	39 85 7c f9 ff ff    	cmp    %eax,-0x684(%rbp)
    7450:	0f 8c 33 03 00 00    	jl     7789 <func_4+0xf67>
    7456:	c7 85 b0 f9 ff ff 40 	movl   $0x747bc540,-0x650(%rbp)
    745d:	c5 7b 74 
    7460:	48 8d 05 79 d1 00 00 	lea    0xd179(%rip),%rax        # 145e0 <g_328>
    7467:	48 89 85 50 fa ff ff 	mov    %rax,-0x5b0(%rbp)
    746e:	c7 85 b4 f9 ff ff 01 	movl   $0x1,-0x64c(%rbp)
    7475:	00 00 00 
    7478:	c7 85 98 f9 ff ff 00 	movl   $0x0,-0x668(%rbp)
    747f:	00 00 00 
    7482:	eb 1e                	jmp    74a2 <func_4+0xc80>
    7484:	8b 85 98 f9 ff ff    	mov    -0x668(%rbp),%eax
    748a:	48 98                	cltq   
    748c:	48 8d 15 05 e2 00 00 	lea    0xe205(%rip),%rdx        # 15698 <g_454>
    7493:	48 89 94 c5 68 fa ff 	mov    %rdx,-0x598(%rbp,%rax,8)
    749a:	ff 
    749b:	83 85 98 f9 ff ff 01 	addl   $0x1,-0x668(%rbp)
    74a2:	83 bd 98 f9 ff ff 00 	cmpl   $0x0,-0x668(%rbp)
    74a9:	7e d9                	jle    7484 <func_4+0xc62>
    74ab:	8b 85 7c f9 ff ff    	mov    -0x684(%rbp),%eax
    74b1:	0f b6 d8             	movzbl %al,%ebx
    74b4:	48 8b 85 b8 f9 ff ff 	mov    -0x648(%rbp),%rax
    74bb:	8b 00                	mov    (%rax),%eax
    74bd:	0f b6 c0             	movzbl %al,%eax
    74c0:	89 c7                	mov    %eax,%edi
    74c2:	e8 7e e6 ff ff       	callq  5b45 <safe_unary_minus_func_uint8_t_u>
    74c7:	0f b6 d0             	movzbl %al,%edx
    74ca:	48 8b 85 b8 f9 ff ff 	mov    -0x648(%rbp),%rax
    74d1:	8b 00                	mov    (%rax),%eax
    74d3:	89 d6                	mov    %edx,%esi
    74d5:	89 c7                	mov    %eax,%edi
    74d7:	e8 f0 e1 ff ff       	callq  56cc <safe_mod_func_int32_t_s_s>
    74dc:	4c 63 f8             	movslq %eax,%r15
    74df:	48 8b 85 b8 f9 ff ff 	mov    -0x648(%rbp),%rax
    74e6:	8b 00                	mov    (%rax),%eax
    74e8:	89 85 78 f9 ff ff    	mov    %eax,-0x688(%rbp)
    74ee:	8b 85 7c f9 ff ff    	mov    -0x684(%rbp),%eax
    74f4:	44 0f b6 e0          	movzbl %al,%r12d
    74f8:	44 8b ad 7c f9 ff ff 	mov    -0x684(%rbp),%r13d
    74ff:	44 8b b5 b0 f9 ff ff 	mov    -0x650(%rbp),%r14d
    7506:	66 c7 05 31 bb 00 00 	movw   $0x1a75,0xbb31(%rip)        # 13040 <g_119>
    750d:	75 1a 
    750f:	48 8d 05 72 d1 00 00 	lea    0xd172(%rip),%rax        # 14688 <g_1105>
    7516:	48 8b 00             	mov    (%rax),%rax
    7519:	0f b6 00             	movzbl (%rax),%eax
    751c:	0f be d0             	movsbl %al,%edx
    751f:	48 8b 05 22 d5 00 00 	mov    0xd522(%rip),%rax        # 14a48 <g_1660>
    7526:	48 8b 00             	mov    (%rax),%rax
    7529:	48 85 c0             	test   %rax,%rax
    752c:	0f 95 c0             	setne  %al
    752f:	0f b6 c0             	movzbl %al,%eax
    7532:	39 c2                	cmp    %eax,%edx
    7534:	0f 9d c0             	setge  %al
    7537:	0f b6 c0             	movzbl %al,%eax
    753a:	8b 95 7c f9 ff ff    	mov    -0x684(%rbp),%edx
    7540:	89 d6                	mov    %edx,%esi
    7542:	89 c7                	mov    %eax,%edi
    7544:	e8 6d e0 ff ff       	callq  55b6 <safe_add_func_int32_t_s_s>
    7549:	0f be c0             	movsbl %al,%eax
    754c:	be 01 00 00 00       	mov    $0x1,%esi
    7551:	89 c7                	mov    %eax,%edi
    7553:	e8 9a dc ff ff       	callq  51f2 <safe_sub_func_int8_t_s_s>
    7558:	0f be c0             	movsbl %al,%eax
    755b:	0d 75 1a 00 00       	or     $0x1a75,%eax
    7560:	89 c2                	mov    %eax,%edx
    7562:	48 8b 85 68 fa ff ff 	mov    -0x598(%rbp),%rax
    7569:	48 85 c0             	test   %rax,%rax
    756c:	0f 95 c0             	setne  %al
    756f:	0f b6 c0             	movzbl %al,%eax
    7572:	89 d6                	mov    %edx,%esi
    7574:	89 c7                	mov    %eax,%edi
    7576:	e8 84 e1 ff ff       	callq  56ff <safe_div_func_int32_t_s_s>
    757b:	39 85 7c f9 ff ff    	cmp    %eax,-0x684(%rbp)
    7581:	0f 9f c0             	setg   %al
    7584:	0f b6 c0             	movzbl %al,%eax
    7587:	44 89 f6             	mov    %r14d,%esi
    758a:	89 c7                	mov    %eax,%edi
    758c:	e8 50 df ff ff       	callq  54e1 <safe_lshift_func_int16_t_s_u>
    7591:	89 c2                	mov    %eax,%edx
    7593:	48 8b 05 06 d1 00 00 	mov    0xd106(%rip),%rax        # 146a0 <g_1225>
    759a:	0f bf d2             	movswl %dx,%edx
    759d:	89 10                	mov    %edx,(%rax)
    759f:	8b 00                	mov    (%rax),%eax
    75a1:	3d 31 4b 93 3f       	cmp    $0x3f934b31,%eax
    75a6:	0f 94 c0             	sete   %al
    75a9:	0f b6 c0             	movzbl %al,%eax
    75ac:	44 89 ee             	mov    %r13d,%esi
    75af:	89 c7                	mov    %eax,%edi
    75b1:	e8 50 e8 ff ff       	callq  5e06 <safe_lshift_func_uint16_t_u_u>
    75b6:	0f b6 c0             	movzbl %al,%eax
    75b9:	44 89 e6             	mov    %r12d,%esi
    75bc:	89 c7                	mov    %eax,%edi
    75be:	e8 97 e5 ff ff       	callq  5b5a <safe_add_func_uint8_t_u_u>
    75c3:	0f b6 d0             	movzbl %al,%edx
    75c6:	48 8b 85 c0 f9 ff ff 	mov    -0x640(%rbp),%rax
    75cd:	8b 00                	mov    (%rax),%eax
    75cf:	0f b7 c0             	movzwl %ax,%eax
    75d2:	89 d6                	mov    %edx,%esi
    75d4:	89 c7                	mov    %eax,%edi
    75d6:	e8 24 e7 ff ff       	callq  5cff <safe_add_func_uint16_t_u_u>
    75db:	0f b7 c0             	movzwl %ax,%eax
    75de:	be 36 49 00 00       	mov    $0x4936,%esi
    75e3:	89 c7                	mov    %eax,%edi
    75e5:	e8 a4 e7 ff ff       	callq  5d8e <safe_div_func_uint16_t_u_u>
    75ea:	0f b7 c0             	movzwl %ax,%eax
    75ed:	39 85 78 f9 ff ff    	cmp    %eax,-0x688(%rbp)
    75f3:	0f 9c c0             	setl   %al
    75f6:	0f b6 c0             	movzbl %al,%eax
    75f9:	48 c7 c6 fd ff ff ff 	mov    $0xfffffffffffffffd,%rsi
    7600:	48 89 c7             	mov    %rax,%rdi
    7603:	e8 a0 e2 ff ff       	callq  58a8 <safe_sub_func_int64_t_s_s>
    7608:	49 39 c7             	cmp    %rax,%r15
    760b:	0f 95 c0             	setne  %al
    760e:	0f b6 c0             	movzbl %al,%eax
    7611:	39 85 7c f9 ff ff    	cmp    %eax,-0x684(%rbp)
    7617:	0f 9d c0             	setge  %al
    761a:	0f b6 c0             	movzbl %al,%eax
    761d:	89 de                	mov    %ebx,%esi
    761f:	89 c7                	mov    %eax,%edi
    7621:	e8 b5 e5 ff ff       	callq  5bdb <safe_div_func_uint8_t_u_u>
    7626:	0f b6 c0             	movzbl %al,%eax
    7629:	0b 85 7c f9 ff ff    	or     -0x684(%rbp),%eax
    762f:	85 c0                	test   %eax,%eax
    7631:	74 3d                	je     7670 <func_4+0xe4e>
    7633:	66 c7 85 8e f9 ff ff 	movw   $0x8c44,-0x672(%rbp)
    763a:	44 8c 
    763c:	48 8d 05 e1 b9 00 00 	lea    0xb9e1(%rip),%rax        # 13024 <g_18>
    7643:	48 89 85 60 fa ff ff 	mov    %rax,-0x5a0(%rbp)
    764a:	48 8b 85 b8 f9 ff ff 	mov    -0x648(%rbp),%rax
    7651:	0f bf 95 8e f9 ff ff 	movswl -0x672(%rbp),%edx
    7658:	89 10                	mov    %edx,(%rax)
    765a:	48 8b 85 f8 f9 ff ff 	mov    -0x608(%rbp),%rax
    7661:	48 8b 95 60 fa ff ff 	mov    -0x5a0(%rbp),%rdx
    7668:	48 89 10             	mov    %rdx,(%rax)
    766b:	e9 c9 00 00 00       	jmpq   7739 <func_4+0xf17>
    7670:	48 8d 05 91 e0 00 00 	lea    0xe091(%rip),%rax        # 15708 <g_1700>
    7677:	48 89 85 f0 f9 ff ff 	mov    %rax,-0x610(%rbp)
    767e:	48 8d 85 f0 f9 ff ff 	lea    -0x610(%rbp),%rax
    7685:	48 89 85 58 fa ff ff 	mov    %rax,-0x5a8(%rbp)
    768c:	48 8b 05 85 d3 00 00 	mov    0xd385(%rip),%rax        # 14a18 <g_1408>
    7693:	0f b6 00             	movzbl (%rax),%eax
    7696:	0f b6 d0             	movzbl %al,%edx
    7699:	48 83 bd 58 fa ff ff 	cmpq   $0x0,-0x5a8(%rbp)
    76a0:	00 
    76a1:	0f 95 c0             	setne  %al
    76a4:	0f b6 c0             	movzbl %al,%eax
    76a7:	39 85 b0 f9 ff ff    	cmp    %eax,-0x650(%rbp)
    76ad:	74 17                	je     76c6 <func_4+0xea4>
    76af:	48 8b 05 72 d3 00 00 	mov    0xd372(%rip),%rax        # 14a28 <g_1526>
    76b6:	48 8b 00             	mov    (%rax),%rax
    76b9:	8b 00                	mov    (%rax),%eax
    76bb:	85 c0                	test   %eax,%eax
    76bd:	74 07                	je     76c6 <func_4+0xea4>
    76bf:	b8 01 00 00 00       	mov    $0x1,%eax
    76c4:	eb 05                	jmp    76cb <func_4+0xea9>
    76c6:	b8 00 00 00 00       	mov    $0x0,%eax
    76cb:	21 d0                	and    %edx,%eax
    76cd:	89 c3                	mov    %eax,%ebx
    76cf:	8b 85 7c f9 ff ff    	mov    -0x684(%rbp),%eax
    76d5:	89 c6                	mov    %eax,%esi
    76d7:	bf fb ff ff ff       	mov    $0xfffffffb,%edi
    76dc:	e8 1c e8 ff ff       	callq  5efd <safe_mod_func_uint32_t_u_u>
    76e1:	3d 9a 61 14 af       	cmp    $0xaf14619a,%eax
    76e6:	0f 97 c0             	seta   %al
    76e9:	0f b6 c0             	movzbl %al,%eax
    76ec:	39 c3                	cmp    %eax,%ebx
    76ee:	0f 9d c0             	setge  %al
    76f1:	0f b6 d0             	movzbl %al,%edx
    76f4:	8b 05 2a b9 00 00    	mov    0xb92a(%rip),%eax        # 13024 <g_18>
    76fa:	39 c2                	cmp    %eax,%edx
    76fc:	0f 95 c0             	setne  %al
    76ff:	0f b6 d8             	movzbl %al,%ebx
    7702:	83 bd 7c f9 ff ff fe 	cmpl   $0xfffffffe,-0x684(%rbp)
    7709:	0f 94 c0             	sete   %al
    770c:	0f b6 c0             	movzbl %al,%eax
    770f:	89 c7                	mov    %eax,%edi
    7711:	e8 90 e7 ff ff       	callq  5ea6 <safe_unary_minus_func_uint32_t_u>
    7716:	89 de                	mov    %ebx,%esi
    7718:	89 c7                	mov    %eax,%edi
    771a:	e8 c7 e7 ff ff       	callq  5ee6 <safe_mul_func_uint32_t_u_u>
    771f:	48 8b 85 50 fa ff ff 	mov    -0x5b0(%rbp),%rax
    7726:	48 3b 85 20 fa ff ff 	cmp    -0x5e0(%rbp),%rax
    772d:	0f 94 c0             	sete   %al
    7730:	0f b6 c0             	movzbl %al,%eax
    7733:	09 85 b4 f9 ff ff    	or     %eax,-0x64c(%rbp)
    7739:	8b 85 7c f9 ff ff    	mov    -0x684(%rbp),%eax
    773f:	0f be c0             	movsbl %al,%eax
    7742:	be 04 00 00 00       	mov    $0x4,%esi
    7747:	89 c7                	mov    %eax,%edi
    7749:	e8 1e dc ff ff       	callq  536c <safe_rshift_func_int8_t_s_u>
    774e:	89 c2                	mov    %eax,%edx
    7750:	48 8b 05 49 cf 00 00 	mov    0xcf49(%rip),%rax        # 146a0 <g_1225>
    7757:	0f be d2             	movsbl %dl,%edx
    775a:	89 10                	mov    %edx,(%rax)
    775c:	48 8b 85 f8 f9 ff ff 	mov    -0x608(%rbp),%rax
    7763:	48 8b 00             	mov    (%rax),%rax
    7766:	8b 08                	mov    (%rax),%ecx
    7768:	8b 85 7c f9 ff ff    	mov    -0x684(%rbp),%eax
    776e:	0b 85 b0 f9 ff ff    	or     -0x650(%rbp),%eax
    7774:	89 c2                	mov    %eax,%edx
    7776:	48 8b 85 f8 f9 ff ff 	mov    -0x608(%rbp),%rax
    777d:	48 8b 00             	mov    (%rax),%rax
    7780:	09 ca                	or     %ecx,%edx
    7782:	89 10                	mov    %edx,(%rax)
    7784:	e9 45 02 00 00       	jmpq   79ce <func_4+0x11ac>
    7789:	48 b8 a8 9d 50 40 a6 	movabs $0x6dad02a640509da8,%rax
    7790:	02 ad 6d 
    7793:	48 89 85 28 fa ff ff 	mov    %rax,-0x5d8(%rbp)
    779a:	48 c7 85 30 fa ff ff 	movq   $0x0,-0x5d0(%rbp)
    77a1:	00 00 00 00 
    77a5:	48 c7 85 38 fa ff ff 	movq   $0x0,-0x5c8(%rbp)
    77ac:	00 00 00 00 
    77b0:	48 c7 85 40 fa ff ff 	movq   $0x0,-0x5c0(%rbp)
    77b7:	00 00 00 00 
    77bb:	66 c7 85 8c f9 ff ff 	movw   $0x8,-0x674(%rbp)
    77c2:	08 00 
    77c4:	c7 85 9c f9 ff ff 00 	movl   $0x0,-0x664(%rbp)
    77cb:	00 00 00 
    77ce:	eb 1b                	jmp    77eb <func_4+0xfc9>
    77d0:	8b 85 9c f9 ff ff    	mov    -0x664(%rbp),%eax
    77d6:	48 98                	cltq   
    77d8:	48 c7 84 c5 68 fa ff 	movq   $0x0,-0x598(%rbp,%rax,8)
    77df:	ff 00 00 00 00 
    77e4:	83 85 9c f9 ff ff 01 	addl   $0x1,-0x664(%rbp)
    77eb:	83 bd 9c f9 ff ff 00 	cmpl   $0x0,-0x664(%rbp)
    77f2:	7e dc                	jle    77d0 <func_4+0xfae>
    77f4:	c6 05 e2 bc 00 00 0e 	movb   $0xe,0xbce2(%rip)        # 134dd <g_1418>
    77fb:	90                   	nop
    77fc:	0f b6 05 da bc 00 00 	movzbl 0xbcda(%rip),%eax        # 134dd <g_1418>
    7803:	3c 1d                	cmp    $0x1d,%al
    7805:	0f 87 b4 01 00 00    	ja     79bf <func_4+0x119d>
    780b:	c7 85 a8 f9 ff ff 71 	movl   $0xe55e7e71,-0x658(%rbp)
    7812:	7e 5e e5 
    7815:	48 b8 c3 ba 45 28 9d 	movabs $0x6e887f9d2845bac3,%rax
    781c:	7f 88 6e 
    781f:	48 89 85 48 fa ff ff 	mov    %rax,-0x5b8(%rbp)
    7826:	c7 85 ac f9 ff ff 9f 	movl   $0x5f507b9f,-0x654(%rbp)
    782d:	7b 50 5f 
    7830:	83 bd a8 f9 ff ff 00 	cmpl   $0x0,-0x658(%rbp)
    7837:	0f 85 81 01 00 00    	jne    79be <func_4+0x119c>
    783d:	0f b6 05 94 bc 00 00 	movzbl 0xbc94(%rip),%eax        # 134d8 <g_1377>
    7844:	0f b6 d8             	movzbl %al,%ebx
    7847:	48 8b 05 2a ce 00 00 	mov    0xce2a(%rip),%rax        # 14678 <g_1052>
    784e:	44 8b a5 a8 f9 ff ff 	mov    -0x658(%rbp),%r12d
    7855:	8b 85 7c f9 ff ff    	mov    -0x684(%rbp),%eax
    785b:	4c 63 e8             	movslq %eax,%r13
    785e:	48 8b 05 23 ce 00 00 	mov    0xce23(%rip),%rax        # 14688 <g_1105>
    7865:	0f b6 00             	movzbl (%rax),%eax
    7868:	0f be c0             	movsbl %al,%eax
    786b:	39 85 7c f9 ff ff    	cmp    %eax,-0x684(%rbp)
    7871:	0f 9e c0             	setle  %al
    7874:	0f b6 c0             	movzbl %al,%eax
    7877:	48 39 85 28 fa ff ff 	cmp    %rax,-0x5d8(%rbp)
    787e:	77 28                	ja     78a8 <func_4+0x1086>
    7880:	48 8d 05 c9 cd 00 00 	lea    0xcdc9(%rip),%rax        # 14650 <g_926>
    7887:	48 8b 00             	mov    (%rax),%rax
    788a:	48 8b 00             	mov    (%rax),%rax
    788d:	48 8b 00             	mov    (%rax),%rax
    7890:	8b 00                	mov    (%rax),%eax
    7892:	85 c0                	test   %eax,%eax
    7894:	74 0b                	je     78a1 <func_4+0x107f>
    7896:	0f b6 05 2f bc 00 00 	movzbl 0xbc2f(%rip),%eax        # 134cc <g_1244>
    789d:	84 c0                	test   %al,%al
    789f:	74 07                	je     78a8 <func_4+0x1086>
    78a1:	b8 01 00 00 00       	mov    $0x1,%eax
    78a6:	eb 05                	jmp    78ad <func_4+0x108b>
    78a8:	b8 00 00 00 00       	mov    $0x0,%eax
    78ad:	85 c0                	test   %eax,%eax
    78af:	0f 95 c2             	setne  %dl
    78b2:	48 8b 05 a7 ca 00 00 	mov    0xcaa7(%rip),%rax        # 14360 <g_273>
    78b9:	88 10                	mov    %dl,(%rax)
    78bb:	0f b6 00             	movzbl (%rax),%eax
    78be:	3c f0                	cmp    $0xf0,%al
    78c0:	0f 96 c0             	setbe  %al
    78c3:	0f b6 d0             	movzbl %al,%edx
    78c6:	48 8b 05 b3 d1 00 00 	mov    0xd1b3(%rip),%rax        # 14a80 <g_1686>
    78cd:	48 8b 00             	mov    (%rax),%rax
    78d0:	48 8b 00             	mov    (%rax),%rax
    78d3:	48 8b 00             	mov    (%rax),%rax
    78d6:	48 8b 00             	mov    (%rax),%rax
    78d9:	8b 00                	mov    (%rax),%eax
    78db:	89 d6                	mov    %edx,%esi
    78dd:	89 c7                	mov    %eax,%edi
    78df:	e8 d4 e5 ff ff       	callq  5eb8 <safe_add_func_uint32_t_u_u>
    78e4:	48 8d 05 75 cd 00 00 	lea    0xcd75(%rip),%rax        # 14660 <g_967>
    78eb:	48 8b 00             	mov    (%rax),%rax
    78ee:	48 8b 00             	mov    (%rax),%rax
    78f1:	48 8b 00             	mov    (%rax),%rax
    78f4:	4c 89 ee             	mov    %r13,%rsi
    78f7:	48 89 c7             	mov    %rax,%rdi
    78fa:	e8 a9 df ff ff       	callq  58a8 <safe_sub_func_int64_t_s_s>
    78ff:	48 89 c2             	mov    %rax,%rdx
    7902:	48 b8 87 7c 7e da 0e 	movabs $0xb9add90eda7e7c87,%rax
    7909:	d9 ad b9 
    790c:	48 39 c2             	cmp    %rax,%rdx
    790f:	0f 96 c0             	setbe  %al
    7912:	44 0f b6 e8          	movzbl %al,%r13d
    7916:	bf a2 f2 ff ff       	mov    $0xfffff2a2,%edi
    791b:	e8 7d da ff ff       	callq  539d <safe_unary_minus_func_int16_t_s>
    7920:	98                   	cwtl   
    7921:	44 89 ee             	mov    %r13d,%esi
    7924:	89 c7                	mov    %eax,%edi
    7926:	e8 38 dc ff ff       	callq  5563 <safe_rshift_func_int16_t_s_u>
    792b:	0f b6 c0             	movzbl %al,%eax
    792e:	44 89 e6             	mov    %r12d,%esi
    7931:	89 c7                	mov    %eax,%edi
    7933:	e8 cd e2 ff ff       	callq  5c05 <safe_lshift_func_uint8_t_u_s>
    7938:	0f b6 c0             	movzbl %al,%eax
    793b:	48 0b 85 48 fa ff ff 	or     -0x5b8(%rbp),%rax
    7942:	48 ba 03 ec 73 75 63 	movabs $0x60af7f637573ec03,%rdx
    7949:	7f af 60 
    794c:	48 31 c2             	xor    %rax,%rdx
    794f:	48 8b 85 b8 f9 ff ff 	mov    -0x648(%rbp),%rax
    7956:	8b 00                	mov    (%rax),%eax
    7958:	48 98                	cltq   
    795a:	48 09 d0             	or     %rdx,%rax
    795d:	48 85 c0             	test   %rax,%rax
    7960:	74 09                	je     796b <func_4+0x1149>
    7962:	0f b6 05 67 b7 00 00 	movzbl 0xb767(%rip),%eax        # 130d0 <g_563>
    7969:	84 c0                	test   %al,%al
    796b:	48 8d 05 16 cd 00 00 	lea    0xcd16(%rip),%rax        # 14688 <g_1105>
    7972:	48 8b 00             	mov    (%rax),%rax
    7975:	0f b6 00             	movzbl (%rax),%eax
    7978:	8b 85 7c f9 ff ff    	mov    -0x684(%rbp),%eax
    797e:	0f b6 c0             	movzbl %al,%eax
    7981:	89 de                	mov    %ebx,%esi
    7983:	89 c7                	mov    %eax,%edi
    7985:	e8 d0 e1 ff ff       	callq  5b5a <safe_add_func_uint8_t_u_u>
    798a:	0f b6 d0             	movzbl %al,%edx
    798d:	8b 05 95 b6 00 00    	mov    0xb695(%rip),%eax        # 13028 <g_43>
    7993:	39 c2                	cmp    %eax,%edx
    7995:	0f 94 c0             	sete   %al
    7998:	0f b6 d0             	movzbl %al,%edx
    799b:	48 8b 05 1e bb 00 00 	mov    0xbb1e(%rip),%rax        # 134c0 <g_1170>
    79a2:	48 31 d0             	xor    %rdx,%rax
    79a5:	89 c2                	mov    %eax,%edx
    79a7:	8b 85 ac f9 ff ff    	mov    -0x654(%rbp),%eax
    79ad:	31 d0                	xor    %edx,%eax
    79af:	89 85 ac f9 ff ff    	mov    %eax,-0x654(%rbp)
    79b5:	48 8b 85 30 fa ff ff 	mov    -0x5d0(%rbp),%rax
    79bc:	eb 1a                	jmp    79d8 <func_4+0x11b6>
    79be:	90                   	nop
    79bf:	8b 05 37 bb 00 00    	mov    0xbb37(%rip),%eax        # 134fc <g_1827>
    79c5:	83 e8 01             	sub    $0x1,%eax
    79c8:	89 05 2e bb 00 00    	mov    %eax,0xbb2e(%rip)        # 134fc <g_1827>
    79ce:	48 8b 05 2b cc 00 00 	mov    0xcc2b(%rip),%rax        # 14600 <g_532>
    79d5:	48 8b 00             	mov    (%rax),%rax
    79d8:	48 8b 4d c8          	mov    -0x38(%rbp),%rcx
    79dc:	64 48 33 0c 25 28 00 	xor    %fs:0x28,%rcx
    79e3:	00 00 
    79e5:	74 05                	je     79ec <func_4+0x11ca>
    79e7:	e8 84 d6 ff ff       	callq  5070 <__stack_chk_fail@plt>
    79ec:	48 81 c4 68 06 00 00 	add    $0x668,%rsp
    79f3:	5b                   	pop    %rbx
    79f4:	41 5c                	pop    %r12
    79f6:	41 5d                	pop    %r13
    79f8:	41 5e                	pop    %r14
    79fa:	41 5f                	pop    %r15
    79fc:	5d                   	pop    %rbp
    79fd:	c3                   	retq   

00000000000079fe <func_9>:
    79fe:	f3 0f 1e fa          	endbr64 
    7a02:	55                   	push   %rbp
    7a03:	48 89 e5             	mov    %rsp,%rbp
    7a06:	89 f8                	mov    %edi,%eax
    7a08:	48 89 75 f0          	mov    %rsi,-0x10(%rbp)
    7a0c:	48 89 55 e8          	mov    %rdx,-0x18(%rbp)
    7a10:	88 45 fc             	mov    %al,-0x4(%rbp)
    7a13:	0f b6 05 c6 ba 00 00 	movzbl 0xbac6(%rip),%eax        # 134e0 <g_1435>
    7a1a:	66 98                	cbtw   
    7a1c:	5d                   	pop    %rbp
    7a1d:	c3                   	retq   

0000000000007a1e <func_14>:
    7a1e:	f3 0f 1e fa          	endbr64 
    7a22:	55                   	push   %rbp
    7a23:	48 89 e5             	mov    %rsp,%rbp
    7a26:	48 89 7d f8          	mov    %rdi,-0x8(%rbp)
    7a2a:	48 8b 45 f8          	mov    -0x8(%rbp),%rax
    7a2e:	48 8b 10             	mov    (%rax),%rdx
    7a31:	48 8b 45 f8          	mov    -0x8(%rbp),%rax
    7a35:	48 89 10             	mov    %rdx,(%rax)
    7a38:	48 8b 45 f8          	mov    -0x8(%rbp),%rax
    7a3c:	5d                   	pop    %rbp
    7a3d:	c3                   	retq   

0000000000007a3e <func_19>:
    7a3e:	f3 0f 1e fa          	endbr64 
    7a42:	55                   	push   %rbp
    7a43:	48 89 e5             	mov    %rsp,%rbp
    7a46:	48 89 75 f0          	mov    %rsi,-0x10(%rbp)
    7a4a:	48 89 55 e8          	mov    %rdx,-0x18(%rbp)
    7a4e:	89 c8                	mov    %ecx,%eax
    7a50:	89 fa                	mov    %edi,%edx
    7a52:	88 55 fc             	mov    %dl,-0x4(%rbp)
    7a55:	66 89 45 f8          	mov    %ax,-0x8(%rbp)
    7a59:	66 c7 05 ee b5 00 00 	movw   $0xfff7,0xb5ee(%rip)        # 13050 <g_131>
    7a60:	f7 ff 
    7a62:	90                   	nop
    7a63:	0f b7 05 e6 b5 00 00 	movzwl 0xb5e6(%rip),%eax        # 13050 <g_131>
    7a6a:	66 83 f8 14          	cmp    $0x14,%ax
    7a6e:	77 09                	ja     7a79 <func_19+0x3b>
    7a70:	48 8d 05 21 c5 00 00 	lea    0xc521(%rip),%rax        # 13f98 <g_99+0x318>
    7a77:	eb 04                	jmp    7a7d <func_19+0x3f>
    7a79:	48 8b 45 e8          	mov    -0x18(%rbp),%rax
    7a7d:	5d                   	pop    %rbp
    7a7e:	c3                   	retq   

0000000000007a7f <func_24>:
    7a7f:	f3 0f 1e fa          	endbr64 
    7a83:	55                   	push   %rbp
    7a84:	48 89 e5             	mov    %rsp,%rbp
    7a87:	48 89 7d e8          	mov    %rdi,-0x18(%rbp)
    7a8b:	48 89 75 e0          	mov    %rsi,-0x20(%rbp)
    7a8f:	48 89 55 d8          	mov    %rdx,-0x28(%rbp)
    7a93:	89 4d d4             	mov    %ecx,-0x2c(%rbp)
    7a96:	4c 89 45 c8          	mov    %r8,-0x38(%rbp)
    7a9a:	c6 45 ff 01          	movb   $0x1,-0x1(%rbp)
    7a9e:	48 0f be 45 ff       	movsbq -0x1(%rbp),%rax
    7aa3:	5d                   	pop    %rbp
    7aa4:	c3                   	retq   

0000000000007aa5 <func_30>:
    7aa5:	f3 0f 1e fa          	endbr64 
    7aa9:	55                   	push   %rbp
    7aaa:	48 89 e5             	mov    %rsp,%rbp
    7aad:	41 57                	push   %r15
    7aaf:	41 56                	push   %r14
    7ab1:	41 55                	push   %r13
    7ab3:	41 54                	push   %r12
    7ab5:	53                   	push   %rbx
    7ab6:	48 81 ec c8 0f 00 00 	sub    $0xfc8,%rsp
    7abd:	48 89 bd 38 f0 ff ff 	mov    %rdi,-0xfc8(%rbp)
    7ac4:	48 89 b5 30 f0 ff ff 	mov    %rsi,-0xfd0(%rbp)
    7acb:	89 95 2c f0 ff ff    	mov    %edx,-0xfd4(%rbp)
    7ad1:	89 8d 28 f0 ff ff    	mov    %ecx,-0xfd8(%rbp)
    7ad7:	64 48 8b 04 25 28 00 	mov    %fs:0x28,%rax
    7ade:	00 00 
    7ae0:	48 89 45 c8          	mov    %rax,-0x38(%rbp)
    7ae4:	31 c0                	xor    %eax,%eax
    7ae6:	c7 85 5c f0 ff ff 68 	movl   $0xbdc73e68,-0xfa4(%rbp)
    7aed:	3e c7 bd 
    7af0:	c6 85 46 f0 ff ff 56 	movb   $0x56,-0xfba(%rbp)
    7af7:	48 8d 05 6a c8 00 00 	lea    0xc86a(%rip),%rax        # 14368 <g_272>
    7afe:	48 89 85 20 f1 ff ff 	mov    %rax,-0xee0(%rbp)
    7b05:	c7 85 b8 f0 ff ff 33 	movl   $0xc8944d33,-0xf48(%rbp)
    7b0c:	4d 94 c8 
    7b0f:	c7 85 88 f0 ff ff 01 	movl   $0x1,-0xf78(%rbp)
    7b16:	00 00 00 
    7b19:	66 c7 85 4e f0 ff ff 	movw   $0xffff,-0xfb2(%rbp)
    7b20:	ff ff 
    7b22:	48 8d 05 7f b9 00 00 	lea    0xb97f(%rip),%rax        # 134a8 <g_1047>
    7b29:	48 89 85 a0 f1 ff ff 	mov    %rax,-0xe60(%rbp)
    7b30:	66 c7 85 50 f0 ff ff 	movw   $0xffff,-0xfb0(%rbp)
    7b37:	ff ff 
    7b39:	48 8d 05 f0 b4 00 00 	lea    0xb4f0(%rip),%rax        # 13030 <g_48>
    7b40:	48 89 85 28 f1 ff ff 	mov    %rax,-0xed8(%rbp)
    7b47:	48 8d 05 8a b5 00 00 	lea    0xb58a(%rip),%rax        # 130d8 <g_577>
    7b4e:	48 89 85 30 f1 ff ff 	mov    %rax,-0xed0(%rbp)
    7b55:	c7 85 60 f0 ff ff b1 	movl   $0x684d29b1,-0xfa0(%rbp)
    7b5c:	29 4d 68 
    7b5f:	48 8d 05 5a b9 00 00 	lea    0xb95a(%rip),%rax        # 134c0 <g_1170>
    7b66:	48 89 85 a8 f1 ff ff 	mov    %rax,-0xe58(%rbp)
    7b6d:	48 8d 05 cc b4 00 00 	lea    0xb4cc(%rip),%rax        # 13040 <g_119>
    7b74:	48 89 85 b0 f1 ff ff 	mov    %rax,-0xe50(%rbp)
    7b7b:	48 c7 85 38 f1 ff ff 	movq   $0x0,-0xec8(%rbp)
    7b82:	00 00 00 00 
    7b86:	48 8d 05 bf b8 00 00 	lea    0xb8bf(%rip),%rax        # 1344c <g_987+0xc>
    7b8d:	48 89 85 40 f1 ff ff 	mov    %rax,-0xec0(%rbp)
    7b94:	48 c7 85 e0 f4 ff ff 	movq   $0x0,-0xb20(%rbp)
    7b9b:	00 00 00 00 
    7b9f:	48 c7 85 e8 f4 ff ff 	movq   $0x0,-0xb18(%rbp)
    7ba6:	00 00 00 00 
    7baa:	48 c7 85 f0 f4 ff ff 	movq   $0x0,-0xb10(%rbp)
    7bb1:	00 00 00 00 
    7bb5:	48 c7 85 f8 f4 ff ff 	movq   $0x0,-0xb08(%rbp)
    7bbc:	00 00 00 00 
    7bc0:	48 c7 85 00 f5 ff ff 	movq   $0x0,-0xb00(%rbp)
    7bc7:	00 00 00 00 
    7bcb:	48 c7 85 08 f5 ff ff 	movq   $0x0,-0xaf8(%rbp)
    7bd2:	00 00 00 00 
    7bd6:	48 c7 85 10 f5 ff ff 	movq   $0x0,-0xaf0(%rbp)
    7bdd:	00 00 00 00 
    7be1:	48 c7 85 18 f5 ff ff 	movq   $0x0,-0xae8(%rbp)
    7be8:	00 00 00 00 
    7bec:	48 c7 85 20 f5 ff ff 	movq   $0x0,-0xae0(%rbp)
    7bf3:	00 00 00 00 
    7bf7:	48 8d 85 e0 f4 ff ff 	lea    -0xb20(%rbp),%rax
    7bfe:	48 83 c0 28          	add    $0x28,%rax
    7c02:	48 89 85 48 f1 ff ff 	mov    %rax,-0xeb8(%rbp)
    7c09:	48 8d 85 48 f1 ff ff 	lea    -0xeb8(%rbp),%rax
    7c10:	48 89 85 50 f1 ff ff 	mov    %rax,-0xeb0(%rbp)
    7c17:	48 8d 85 f4 f3 ff ff 	lea    -0xc0c(%rbp),%rax
    7c1e:	48 83 c0 08          	add    $0x8,%rax
    7c22:	48 89 85 58 f1 ff ff 	mov    %rax,-0xea8(%rbp)
    7c29:	48 8d 85 58 f1 ff ff 	lea    -0xea8(%rbp),%rax
    7c30:	48 89 85 60 f1 ff ff 	mov    %rax,-0xea0(%rbp)
    7c37:	48 8d 85 60 f1 ff ff 	lea    -0xea0(%rbp),%rax
    7c3e:	48 89 85 68 f1 ff ff 	mov    %rax,-0xe98(%rbp)
    7c45:	66 c7 85 52 f0 ff ff 	movw   $0x1,-0xfae(%rbp)
    7c4c:	01 00 
    7c4e:	c6 85 47 f0 ff ff 53 	movb   $0x53,-0xfb9(%rbp)
    7c55:	c7 85 64 f0 ff ff 60 	movl   $0x82053960,-0xf9c(%rbp)
    7c5c:	39 05 82 
    7c5f:	c7 85 bc f0 ff ff 96 	movl   $0x4c0a5296,-0xf44(%rbp)
    7c66:	52 0a 4c 
    7c69:	48 8d 85 58 f1 ff ff 	lea    -0xea8(%rbp),%rax
    7c70:	48 89 85 30 f6 ff ff 	mov    %rax,-0x9d0(%rbp)
    7c77:	48 8d 85 58 f1 ff ff 	lea    -0xea8(%rbp),%rax
    7c7e:	48 89 85 38 f6 ff ff 	mov    %rax,-0x9c8(%rbp)
    7c85:	48 8d 85 58 f1 ff ff 	lea    -0xea8(%rbp),%rax
    7c8c:	48 89 85 40 f6 ff ff 	mov    %rax,-0x9c0(%rbp)
    7c93:	48 8d 85 58 f1 ff ff 	lea    -0xea8(%rbp),%rax
    7c9a:	48 89 85 48 f6 ff ff 	mov    %rax,-0x9b8(%rbp)
    7ca1:	48 8d 85 58 f1 ff ff 	lea    -0xea8(%rbp),%rax
    7ca8:	48 89 85 50 f6 ff ff 	mov    %rax,-0x9b0(%rbp)
    7caf:	48 8d 85 58 f1 ff ff 	lea    -0xea8(%rbp),%rax
    7cb6:	48 89 85 58 f6 ff ff 	mov    %rax,-0x9a8(%rbp)
    7cbd:	48 8d 85 58 f1 ff ff 	lea    -0xea8(%rbp),%rax
    7cc4:	48 89 85 60 f6 ff ff 	mov    %rax,-0x9a0(%rbp)
    7ccb:	48 8d 85 58 f1 ff ff 	lea    -0xea8(%rbp),%rax
    7cd2:	48 89 85 68 f6 ff ff 	mov    %rax,-0x998(%rbp)
    7cd9:	48 8d 85 58 f1 ff ff 	lea    -0xea8(%rbp),%rax
    7ce0:	48 89 85 70 f6 ff ff 	mov    %rax,-0x990(%rbp)
    7ce7:	48 8d 85 58 f1 ff ff 	lea    -0xea8(%rbp),%rax
    7cee:	48 89 85 78 f6 ff ff 	mov    %rax,-0x988(%rbp)
    7cf5:	48 8d 85 58 f1 ff ff 	lea    -0xea8(%rbp),%rax
    7cfc:	48 89 85 80 f6 ff ff 	mov    %rax,-0x980(%rbp)
    7d03:	48 8d 85 58 f1 ff ff 	lea    -0xea8(%rbp),%rax
    7d0a:	48 89 85 88 f6 ff ff 	mov    %rax,-0x978(%rbp)
    7d11:	48 c7 85 90 f6 ff ff 	movq   $0x0,-0x970(%rbp)
    7d18:	00 00 00 00 
    7d1c:	48 c7 85 98 f6 ff ff 	movq   $0x0,-0x968(%rbp)
    7d23:	00 00 00 00 
    7d27:	48 8d 85 58 f1 ff ff 	lea    -0xea8(%rbp),%rax
    7d2e:	48 89 85 a0 f6 ff ff 	mov    %rax,-0x960(%rbp)
    7d35:	48 8d 85 58 f1 ff ff 	lea    -0xea8(%rbp),%rax
    7d3c:	48 89 85 a8 f6 ff ff 	mov    %rax,-0x958(%rbp)
    7d43:	48 8d 85 58 f1 ff ff 	lea    -0xea8(%rbp),%rax
    7d4a:	48 89 85 b0 f6 ff ff 	mov    %rax,-0x950(%rbp)
    7d51:	48 c7 85 b8 f6 ff ff 	movq   $0x0,-0x948(%rbp)
    7d58:	00 00 00 00 
    7d5c:	48 8d 85 58 f1 ff ff 	lea    -0xea8(%rbp),%rax
    7d63:	48 89 85 c0 f6 ff ff 	mov    %rax,-0x940(%rbp)
    7d6a:	48 8d 85 58 f1 ff ff 	lea    -0xea8(%rbp),%rax
    7d71:	48 89 85 c8 f6 ff ff 	mov    %rax,-0x938(%rbp)
    7d78:	48 8d 85 58 f1 ff ff 	lea    -0xea8(%rbp),%rax
    7d7f:	48 89 85 d0 f6 ff ff 	mov    %rax,-0x930(%rbp)
    7d86:	48 8d 85 58 f1 ff ff 	lea    -0xea8(%rbp),%rax
    7d8d:	48 89 85 d8 f6 ff ff 	mov    %rax,-0x928(%rbp)
    7d94:	48 8d 85 58 f1 ff ff 	lea    -0xea8(%rbp),%rax
    7d9b:	48 89 85 e0 f6 ff ff 	mov    %rax,-0x920(%rbp)
    7da2:	48 8d 85 58 f1 ff ff 	lea    -0xea8(%rbp),%rax
    7da9:	48 89 85 e8 f6 ff ff 	mov    %rax,-0x918(%rbp)
    7db0:	48 8d 85 30 f6 ff ff 	lea    -0x9d0(%rbp),%rax
    7db7:	48 83 c0 58          	add    $0x58,%rax
    7dbb:	48 89 85 b8 f1 ff ff 	mov    %rax,-0xe48(%rbp)
    7dc2:	48 c7 85 70 f1 ff ff 	movq   $0x0,-0xe90(%rbp)
    7dc9:	00 00 00 00 
    7dcd:	66 c7 85 54 f0 ff ff 	movw   $0x3,-0xfac(%rbp)
    7dd4:	03 00 
    7dd6:	48 c7 85 c0 f1 ff ff 	movq   $0x0,-0xe40(%rbp)
    7ddd:	00 00 00 00 
    7de1:	c7 85 8c f0 ff ff 00 	movl   $0x0,-0xf74(%rbp)
    7de8:	00 00 00 
    7deb:	eb 1a                	jmp    7e07 <func_30+0x362>
    7ded:	8b 85 8c f0 ff ff    	mov    -0xf74(%rbp),%eax
    7df3:	48 98                	cltq   
    7df5:	c7 84 85 f4 f3 ff ff 	movl   $0xc11e6c19,-0xc0c(%rbp,%rax,4)
    7dfc:	19 6c 1e c1 
    7e00:	83 85 8c f0 ff ff 01 	addl   $0x1,-0xf74(%rbp)
    7e07:	83 bd 8c f0 ff ff 02 	cmpl   $0x2,-0xf74(%rbp)
    7e0e:	7e dd                	jle    7ded <func_30+0x348>
    7e10:	c7 85 8c f0 ff ff 00 	movl   $0x0,-0xf74(%rbp)
    7e17:	00 00 00 
    7e1a:	eb 19                	jmp    7e35 <func_30+0x390>
    7e1c:	8b 85 8c f0 ff ff    	mov    -0xf74(%rbp),%eax
    7e22:	48 98                	cltq   
    7e24:	66 c7 84 45 e4 f3 ff 	movw   $0xa7a,-0xc1c(%rbp,%rax,2)
    7e2b:	ff 7a 0a 
    7e2e:	83 85 8c f0 ff ff 01 	addl   $0x1,-0xf74(%rbp)
    7e35:	83 bd 8c f0 ff ff 01 	cmpl   $0x1,-0xf74(%rbp)
    7e3c:	7e de                	jle    7e1c <func_30+0x377>
    7e3e:	c7 85 8c f0 ff ff 00 	movl   $0x0,-0xf74(%rbp)
    7e45:	00 00 00 
    7e48:	eb 75                	jmp    7ebf <func_30+0x41a>
    7e4a:	c7 85 90 f0 ff ff 00 	movl   $0x0,-0xf70(%rbp)
    7e51:	00 00 00 
    7e54:	eb 59                	jmp    7eaf <func_30+0x40a>
    7e56:	c7 85 94 f0 ff ff 00 	movl   $0x0,-0xf6c(%rbp)
    7e5d:	00 00 00 
    7e60:	eb 3d                	jmp    7e9f <func_30+0x3fa>
    7e62:	8b 85 94 f0 ff ff    	mov    -0xf6c(%rbp),%eax
    7e68:	48 98                	cltq   
    7e6a:	8b 95 8c f0 ff ff    	mov    -0xf74(%rbp),%edx
    7e70:	48 63 ca             	movslq %edx,%rcx
    7e73:	8b 95 90 f0 ff ff    	mov    -0xf70(%rbp),%edx
    7e79:	48 63 d2             	movslq %edx,%rdx
    7e7c:	48 c1 e1 02          	shl    $0x2,%rcx
    7e80:	48 01 ca             	add    %rcx,%rdx
    7e83:	48 01 d2             	add    %rdx,%rdx
    7e86:	48 01 c2             	add    %rax,%rdx
    7e89:	48 8d 85 5c f0 ff ff 	lea    -0xfa4(%rbp),%rax
    7e90:	48 89 84 d5 a0 f4 ff 	mov    %rax,-0xb60(%rbp,%rdx,8)
    7e97:	ff 
    7e98:	83 85 94 f0 ff ff 01 	addl   $0x1,-0xf6c(%rbp)
    7e9f:	83 bd 94 f0 ff ff 01 	cmpl   $0x1,-0xf6c(%rbp)
    7ea6:	7e ba                	jle    7e62 <func_30+0x3bd>
    7ea8:	83 85 90 f0 ff ff 01 	addl   $0x1,-0xf70(%rbp)
    7eaf:	83 bd 90 f0 ff ff 03 	cmpl   $0x3,-0xf70(%rbp)
    7eb6:	7e 9e                	jle    7e56 <func_30+0x3b1>
    7eb8:	83 85 8c f0 ff ff 01 	addl   $0x1,-0xf74(%rbp)
    7ebf:	83 bd 8c f0 ff ff 00 	cmpl   $0x0,-0xf74(%rbp)
    7ec6:	7e 82                	jle    7e4a <func_30+0x3a5>
    7ec8:	48 c7 05 05 b2 00 00 	movq   $0x0,0xb205(%rip)        # 130d8 <g_577>
    7ecf:	00 00 00 00 
    7ed3:	e9 8b 0a 00 00       	jmpq   8963 <func_30+0xebe>
    7ed8:	48 c7 85 58 f3 ff ff 	movq   $0x0,-0xca8(%rbp)
    7edf:	00 00 00 00 
    7ee3:	48 8d 05 56 b1 00 00 	lea    0xb156(%rip),%rax        # 13040 <g_119>
    7eea:	48 89 85 60 f3 ff ff 	mov    %rax,-0xca0(%rbp)
    7ef1:	48 8d 05 58 b1 00 00 	lea    0xb158(%rip),%rax        # 13050 <g_131>
    7ef8:	48 89 85 68 f3 ff ff 	mov    %rax,-0xc98(%rbp)
    7eff:	48 8d 05 36 b1 00 00 	lea    0xb136(%rip),%rax        # 1303c <g_115>
    7f06:	48 89 85 70 f3 ff ff 	mov    %rax,-0xc90(%rbp)
    7f0d:	c7 85 08 f1 ff ff bf 	movl   $0x7235d7bf,-0xef8(%rbp)
    7f14:	d7 35 72 
    7f17:	c7 85 0c f1 ff ff 01 	movl   $0x1,-0xef4(%rbp)
    7f1e:	00 00 00 
    7f21:	48 8d 05 38 c4 00 00 	lea    0xc438(%rip),%rax        # 14360 <g_273>
    7f28:	48 89 85 80 f1 ff ff 	mov    %rax,-0xe80(%rbp)
    7f2f:	48 8d 85 50 f4 ff ff 	lea    -0xbb0(%rbp),%rax
    7f36:	48 89 85 f0 f6 ff ff 	mov    %rax,-0x910(%rbp)
    7f3d:	48 c7 85 f8 f6 ff ff 	movq   $0x0,-0x908(%rbp)
    7f44:	00 00 00 00 
    7f48:	48 c7 85 00 f7 ff ff 	movq   $0x0,-0x900(%rbp)
    7f4f:	00 00 00 00 
    7f53:	48 c7 85 08 f7 ff ff 	movq   $0x0,-0x8f8(%rbp)
    7f5a:	00 00 00 00 
    7f5e:	48 8d 85 50 f4 ff ff 	lea    -0xbb0(%rbp),%rax
    7f65:	48 89 85 10 f7 ff ff 	mov    %rax,-0x8f0(%rbp)
    7f6c:	48 8d 85 50 f4 ff ff 	lea    -0xbb0(%rbp),%rax
    7f73:	48 89 85 18 f7 ff ff 	mov    %rax,-0x8e8(%rbp)
    7f7a:	48 8d 85 50 f4 ff ff 	lea    -0xbb0(%rbp),%rax
    7f81:	48 89 85 20 f7 ff ff 	mov    %rax,-0x8e0(%rbp)
    7f88:	48 8d 85 50 f4 ff ff 	lea    -0xbb0(%rbp),%rax
    7f8f:	48 89 85 28 f7 ff ff 	mov    %rax,-0x8d8(%rbp)
    7f96:	48 c7 85 30 f7 ff ff 	movq   $0x0,-0x8d0(%rbp)
    7f9d:	00 00 00 00 
    7fa1:	48 8d 85 50 f4 ff ff 	lea    -0xbb0(%rbp),%rax
    7fa8:	48 89 85 38 f7 ff ff 	mov    %rax,-0x8c8(%rbp)
    7faf:	48 8d 85 50 f4 ff ff 	lea    -0xbb0(%rbp),%rax
    7fb6:	48 89 85 40 f7 ff ff 	mov    %rax,-0x8c0(%rbp)
    7fbd:	48 c7 85 48 f7 ff ff 	movq   $0x0,-0x8b8(%rbp)
    7fc4:	00 00 00 00 
    7fc8:	48 8d 85 50 f4 ff ff 	lea    -0xbb0(%rbp),%rax
    7fcf:	48 83 c0 08          	add    $0x8,%rax
    7fd3:	48 89 85 50 f7 ff ff 	mov    %rax,-0x8b0(%rbp)
    7fda:	48 8d 85 50 f4 ff ff 	lea    -0xbb0(%rbp),%rax
    7fe1:	48 89 85 58 f7 ff ff 	mov    %rax,-0x8a8(%rbp)
    7fe8:	48 c7 85 60 f7 ff ff 	movq   $0x0,-0x8a0(%rbp)
    7fef:	00 00 00 00 
    7ff3:	48 c7 85 68 f7 ff ff 	movq   $0x0,-0x898(%rbp)
    7ffa:	00 00 00 00 
    7ffe:	48 8d 85 50 f4 ff ff 	lea    -0xbb0(%rbp),%rax
    8005:	48 89 85 70 f7 ff ff 	mov    %rax,-0x890(%rbp)
    800c:	48 c7 85 78 f7 ff ff 	movq   $0x0,-0x888(%rbp)
    8013:	00 00 00 00 
    8017:	48 8d 85 50 f4 ff ff 	lea    -0xbb0(%rbp),%rax
    801e:	48 89 85 80 f7 ff ff 	mov    %rax,-0x880(%rbp)
    8025:	48 8d 85 50 f4 ff ff 	lea    -0xbb0(%rbp),%rax
    802c:	48 83 c0 08          	add    $0x8,%rax
    8030:	48 89 85 88 f7 ff ff 	mov    %rax,-0x878(%rbp)
    8037:	48 8d 85 50 f4 ff ff 	lea    -0xbb0(%rbp),%rax
    803e:	48 89 85 90 f7 ff ff 	mov    %rax,-0x870(%rbp)
    8045:	48 8d 85 50 f4 ff ff 	lea    -0xbb0(%rbp),%rax
    804c:	48 89 85 98 f7 ff ff 	mov    %rax,-0x868(%rbp)
    8053:	48 8d 85 50 f4 ff ff 	lea    -0xbb0(%rbp),%rax
    805a:	48 83 c0 08          	add    $0x8,%rax
    805e:	48 89 85 a0 f7 ff ff 	mov    %rax,-0x860(%rbp)
    8065:	48 8d 85 50 f4 ff ff 	lea    -0xbb0(%rbp),%rax
    806c:	48 89 85 a8 f7 ff ff 	mov    %rax,-0x858(%rbp)
    8073:	48 8d 85 50 f4 ff ff 	lea    -0xbb0(%rbp),%rax
    807a:	48 83 c0 08          	add    $0x8,%rax
    807e:	48 89 85 b0 f7 ff ff 	mov    %rax,-0x850(%rbp)
    8085:	48 c7 85 b8 f7 ff ff 	movq   $0x0,-0x848(%rbp)
    808c:	00 00 00 00 
    8090:	48 c7 85 c0 f7 ff ff 	movq   $0x0,-0x840(%rbp)
    8097:	00 00 00 00 
    809b:	48 8d 85 50 f4 ff ff 	lea    -0xbb0(%rbp),%rax
    80a2:	48 89 85 c8 f7 ff ff 	mov    %rax,-0x838(%rbp)
    80a9:	48 8d 85 50 f4 ff ff 	lea    -0xbb0(%rbp),%rax
    80b0:	48 89 85 d0 f7 ff ff 	mov    %rax,-0x830(%rbp)
    80b7:	48 8d 85 50 f4 ff ff 	lea    -0xbb0(%rbp),%rax
    80be:	48 89 85 d8 f7 ff ff 	mov    %rax,-0x828(%rbp)
    80c5:	48 c7 85 e0 f7 ff ff 	movq   $0x0,-0x820(%rbp)
    80cc:	00 00 00 00 
    80d0:	48 c7 85 e8 f7 ff ff 	movq   $0x0,-0x818(%rbp)
    80d7:	00 00 00 00 
    80db:	48 c7 85 f0 f7 ff ff 	movq   $0x0,-0x810(%rbp)
    80e2:	00 00 00 00 
    80e6:	48 8d 85 50 f4 ff ff 	lea    -0xbb0(%rbp),%rax
    80ed:	48 89 85 f8 f7 ff ff 	mov    %rax,-0x808(%rbp)
    80f4:	48 8d 85 50 f4 ff ff 	lea    -0xbb0(%rbp),%rax
    80fb:	48 89 85 00 f8 ff ff 	mov    %rax,-0x800(%rbp)
    8102:	48 8d 85 50 f4 ff ff 	lea    -0xbb0(%rbp),%rax
    8109:	48 89 85 08 f8 ff ff 	mov    %rax,-0x7f8(%rbp)
    8110:	48 c7 85 10 f8 ff ff 	movq   $0x0,-0x7f0(%rbp)
    8117:	00 00 00 00 
    811b:	48 8d 85 50 f4 ff ff 	lea    -0xbb0(%rbp),%rax
    8122:	48 89 85 18 f8 ff ff 	mov    %rax,-0x7e8(%rbp)
    8129:	48 8d 85 50 f4 ff ff 	lea    -0xbb0(%rbp),%rax
    8130:	48 89 85 20 f8 ff ff 	mov    %rax,-0x7e0(%rbp)
    8137:	48 8d 85 50 f4 ff ff 	lea    -0xbb0(%rbp),%rax
    813e:	48 83 c0 08          	add    $0x8,%rax
    8142:	48 89 85 28 f8 ff ff 	mov    %rax,-0x7d8(%rbp)
    8149:	48 8d 85 50 f4 ff ff 	lea    -0xbb0(%rbp),%rax
    8150:	48 89 85 30 f8 ff ff 	mov    %rax,-0x7d0(%rbp)
    8157:	48 c7 85 38 f8 ff ff 	movq   $0x0,-0x7c8(%rbp)
    815e:	00 00 00 00 
    8162:	48 8d 85 50 f4 ff ff 	lea    -0xbb0(%rbp),%rax
    8169:	48 89 85 40 f8 ff ff 	mov    %rax,-0x7c0(%rbp)
    8170:	48 8d 85 50 f4 ff ff 	lea    -0xbb0(%rbp),%rax
    8177:	48 89 85 48 f8 ff ff 	mov    %rax,-0x7b8(%rbp)
    817e:	48 c7 85 50 f8 ff ff 	movq   $0x0,-0x7b0(%rbp)
    8185:	00 00 00 00 
    8189:	48 c7 85 58 f8 ff ff 	movq   $0x0,-0x7a8(%rbp)
    8190:	00 00 00 00 
    8194:	48 8d 85 50 f4 ff ff 	lea    -0xbb0(%rbp),%rax
    819b:	48 89 85 60 f8 ff ff 	mov    %rax,-0x7a0(%rbp)
    81a2:	48 8d 85 50 f4 ff ff 	lea    -0xbb0(%rbp),%rax
    81a9:	48 89 85 68 f8 ff ff 	mov    %rax,-0x798(%rbp)
    81b0:	48 c7 85 70 f8 ff ff 	movq   $0x0,-0x790(%rbp)
    81b7:	00 00 00 00 
    81bb:	48 8d 85 50 f4 ff ff 	lea    -0xbb0(%rbp),%rax
    81c2:	48 89 85 78 f8 ff ff 	mov    %rax,-0x788(%rbp)
    81c9:	48 8d 85 50 f4 ff ff 	lea    -0xbb0(%rbp),%rax
    81d0:	48 89 85 80 f8 ff ff 	mov    %rax,-0x780(%rbp)
    81d7:	48 8d 85 50 f4 ff ff 	lea    -0xbb0(%rbp),%rax
    81de:	48 89 85 88 f8 ff ff 	mov    %rax,-0x778(%rbp)
    81e5:	48 8d 85 50 f4 ff ff 	lea    -0xbb0(%rbp),%rax
    81ec:	48 89 85 90 f8 ff ff 	mov    %rax,-0x770(%rbp)
    81f3:	48 c7 85 98 f8 ff ff 	movq   $0x0,-0x768(%rbp)
    81fa:	00 00 00 00 
    81fe:	48 c7 85 a0 f8 ff ff 	movq   $0x0,-0x760(%rbp)
    8205:	00 00 00 00 
    8209:	48 c7 85 a8 f8 ff ff 	movq   $0x0,-0x758(%rbp)
    8210:	00 00 00 00 
    8214:	48 8d 85 50 f4 ff ff 	lea    -0xbb0(%rbp),%rax
    821b:	48 89 85 b0 f8 ff ff 	mov    %rax,-0x750(%rbp)
    8222:	48 c7 85 b8 f8 ff ff 	movq   $0x0,-0x748(%rbp)
    8229:	00 00 00 00 
    822d:	48 c7 85 c0 f8 ff ff 	movq   $0x0,-0x740(%rbp)
    8234:	00 00 00 00 
    8238:	48 c7 85 c8 f8 ff ff 	movq   $0x0,-0x738(%rbp)
    823f:	00 00 00 00 
    8243:	48 8d 85 50 f4 ff ff 	lea    -0xbb0(%rbp),%rax
    824a:	48 89 85 d0 f8 ff ff 	mov    %rax,-0x730(%rbp)
    8251:	48 8d 85 50 f4 ff ff 	lea    -0xbb0(%rbp),%rax
    8258:	48 89 85 d8 f8 ff ff 	mov    %rax,-0x728(%rbp)
    825f:	48 8d 85 50 f4 ff ff 	lea    -0xbb0(%rbp),%rax
    8266:	48 83 c0 08          	add    $0x8,%rax
    826a:	48 89 85 e0 f8 ff ff 	mov    %rax,-0x720(%rbp)
    8271:	48 8d 85 50 f4 ff ff 	lea    -0xbb0(%rbp),%rax
    8278:	48 89 85 e8 f8 ff ff 	mov    %rax,-0x718(%rbp)
    827f:	48 8d 85 f0 f6 ff ff 	lea    -0x910(%rbp),%rax
    8286:	48 83 c0 08          	add    $0x8,%rax
    828a:	48 89 85 78 f3 ff ff 	mov    %rax,-0xc88(%rbp)
    8291:	48 c7 85 80 f3 ff ff 	movq   $0x0,-0xc80(%rbp)
    8298:	00 00 00 00 
    829c:	48 8d 05 1d ae 00 00 	lea    0xae1d(%rip),%rax        # 130c0 <g_519>
    82a3:	48 89 85 88 f3 ff ff 	mov    %rax,-0xc78(%rbp)
    82aa:	c7 85 10 f1 ff ff 00 	movl   $0x0,-0xef0(%rbp)
    82b1:	00 00 00 
    82b4:	66 c7 85 80 f5 ff ff 	movw   $0xfffe,-0xa80(%rbp)
    82bb:	fe ff 
    82bd:	66 c7 85 82 f5 ff ff 	movw   $0xfff6,-0xa7e(%rbp)
    82c4:	f6 ff 
    82c6:	66 c7 85 84 f5 ff ff 	movw   $0xfff6,-0xa7c(%rbp)
    82cd:	f6 ff 
    82cf:	66 c7 85 86 f5 ff ff 	movw   $0xfffe,-0xa7a(%rbp)
    82d6:	fe ff 
    82d8:	66 c7 85 88 f5 ff ff 	movw   $0xfffa,-0xa78(%rbp)
    82df:	fa ff 
    82e1:	66 c7 85 8a f5 ff ff 	movw   $0xfff7,-0xa76(%rbp)
    82e8:	f7 ff 
    82ea:	66 c7 85 8c f5 ff ff 	movw   $0xfffa,-0xa74(%rbp)
    82f1:	fa ff 
    82f3:	66 c7 85 8e f5 ff ff 	movw   $0xfffe,-0xa72(%rbp)
    82fa:	fe ff 
    82fc:	66 c7 85 90 f5 ff ff 	movw   $0xfff6,-0xa70(%rbp)
    8303:	f6 ff 
    8305:	66 c7 85 92 f5 ff ff 	movw   $0xfff8,-0xa6e(%rbp)
    830c:	f8 ff 
    830e:	66 c7 85 94 f5 ff ff 	movw   $0xfff8,-0xa6c(%rbp)
    8315:	f8 ff 
    8317:	66 c7 85 96 f5 ff ff 	movw   $0x3178,-0xa6a(%rbp)
    831e:	78 31 
    8320:	66 c7 85 98 f5 ff ff 	movw   $0x809f,-0xa68(%rbp)
    8327:	9f 80 
    8329:	66 c7 85 9a f5 ff ff 	movw   $0xf4d0,-0xa66(%rbp)
    8330:	d0 f4 
    8332:	66 c7 85 9c f5 ff ff 	movw   $0x809f,-0xa64(%rbp)
    8339:	9f 80 
    833b:	66 c7 85 9e f5 ff ff 	movw   $0x3178,-0xa62(%rbp)
    8342:	78 31 
    8344:	66 c7 85 a0 f5 ff ff 	movw   $0xfff8,-0xa60(%rbp)
    834b:	f8 ff 
    834d:	66 c7 85 a2 f5 ff ff 	movw   $0xfff8,-0xa5e(%rbp)
    8354:	f8 ff 
    8356:	66 c7 85 a4 f5 ff ff 	movw   $0xfff6,-0xa5c(%rbp)
    835d:	f6 ff 
    835f:	66 c7 85 a6 f5 ff ff 	movw   $0xfffe,-0xa5a(%rbp)
    8366:	fe ff 
    8368:	66 c7 85 a8 f5 ff ff 	movw   $0xfffa,-0xa58(%rbp)
    836f:	fa ff 
    8371:	66 c7 85 aa f5 ff ff 	movw   $0xfff7,-0xa56(%rbp)
    8378:	f7 ff 
    837a:	66 c7 85 ac f5 ff ff 	movw   $0xfffa,-0xa54(%rbp)
    8381:	fa ff 
    8383:	66 c7 85 ae f5 ff ff 	movw   $0xfffe,-0xa52(%rbp)
    838a:	fe ff 
    838c:	66 c7 85 b0 f5 ff ff 	movw   $0xfff6,-0xa50(%rbp)
    8393:	f6 ff 
    8395:	66 c7 85 b2 f5 ff ff 	movw   $0xfff6,-0xa4e(%rbp)
    839c:	f6 ff 
    839e:	66 c7 85 b4 f5 ff ff 	movw   $0xfffe,-0xa4c(%rbp)
    83a5:	fe ff 
    83a7:	66 c7 85 b6 f5 ff ff 	movw   $0x809f,-0xa4a(%rbp)
    83ae:	9f 80 
    83b0:	66 c7 85 b8 f5 ff ff 	movw   $0xe0bf,-0xa48(%rbp)
    83b7:	bf e0 
    83b9:	66 c7 85 ba f5 ff ff 	movw   $0x3178,-0xa46(%rbp)
    83c0:	78 31 
    83c2:	66 c7 85 bc f5 ff ff 	movw   $0xe0bf,-0xa44(%rbp)
    83c9:	bf e0 
    83cb:	66 c7 85 be f5 ff ff 	movw   $0x809f,-0xa42(%rbp)
    83d2:	9f 80 
    83d4:	66 c7 85 c0 f5 ff ff 	movw   $0xd834,-0xa40(%rbp)
    83db:	34 d8 
    83dd:	66 c7 85 c2 f5 ff ff 	movw   $0xd834,-0xa3e(%rbp)
    83e4:	34 d8 
    83e6:	66 c7 85 c4 f5 ff ff 	movw   $0x809f,-0xa3c(%rbp)
    83ed:	9f 80 
    83ef:	66 c7 85 c6 f5 ff ff 	movw   $0xe0bf,-0xa3a(%rbp)
    83f6:	bf e0 
    83f8:	66 c7 85 c8 f5 ff ff 	movw   $0xfff6,-0xa38(%rbp)
    83ff:	f6 ff 
    8401:	66 c7 85 ca f5 ff ff 	movw   $0xfffa,-0xa36(%rbp)
    8408:	fa ff 
    840a:	66 c7 85 cc f5 ff ff 	movw   $0xfff6,-0xa34(%rbp)
    8411:	f6 ff 
    8413:	66 c7 85 ce f5 ff ff 	movw   $0x0,-0xa32(%rbp)
    841a:	00 00 
    841c:	66 c7 85 d0 f5 ff ff 	movw   $0xffff,-0xa30(%rbp)
    8423:	ff ff 
    8425:	66 c7 85 d2 f5 ff ff 	movw   $0xffff,-0xa2e(%rbp)
    842c:	ff ff 
    842e:	66 c7 85 d4 f5 ff ff 	movw   $0x0,-0xa2c(%rbp)
    8435:	00 00 
    8437:	66 c7 85 d6 f5 ff ff 	movw   $0xfff6,-0xa2a(%rbp)
    843e:	f6 ff 
    8440:	66 c7 85 d8 f5 ff ff 	movw   $0xfffa,-0xa28(%rbp)
    8447:	fa ff 
    8449:	66 c7 85 da f5 ff ff 	movw   $0xfff8,-0xa26(%rbp)
    8450:	f8 ff 
    8452:	66 c7 85 dc f5 ff ff 	movw   $0x1,-0xa24(%rbp)
    8459:	01 00 
    845b:	66 c7 85 de f5 ff ff 	movw   $0xd834,-0xa22(%rbp)
    8462:	34 d8 
    8464:	66 c7 85 e0 f5 ff ff 	movw   $0x3178,-0xa20(%rbp)
    846b:	78 31 
    846d:	66 c7 85 e2 f5 ff ff 	movw   $0x3178,-0xa1e(%rbp)
    8474:	78 31 
    8476:	66 c7 85 e4 f5 ff ff 	movw   $0xd834,-0xa1c(%rbp)
    847d:	34 d8 
    847f:	66 c7 85 e6 f5 ff ff 	movw   $0x809f,-0xa1a(%rbp)
    8486:	9f 80 
    8488:	66 c7 85 e8 f5 ff ff 	movw   $0xf4d0,-0xa18(%rbp)
    848f:	d0 f4 
    8491:	66 c7 85 ea f5 ff ff 	movw   $0x809f,-0xa16(%rbp)
    8498:	9f 80 
    849a:	66 c7 85 ec f5 ff ff 	movw   $0xfff6,-0xa14(%rbp)
    84a1:	f6 ff 
    84a3:	66 c7 85 ee f5 ff ff 	movw   $0x0,-0xa12(%rbp)
    84aa:	00 00 
    84ac:	66 c7 85 f0 f5 ff ff 	movw   $0xffff,-0xa10(%rbp)
    84b3:	ff ff 
    84b5:	66 c7 85 f2 f5 ff ff 	movw   $0xffff,-0xa0e(%rbp)
    84bc:	ff ff 
    84be:	66 c7 85 f4 f5 ff ff 	movw   $0x0,-0xa0c(%rbp)
    84c5:	00 00 
    84c7:	66 c7 85 f6 f5 ff ff 	movw   $0xfff6,-0xa0a(%rbp)
    84ce:	f6 ff 
    84d0:	66 c7 85 f8 f5 ff ff 	movw   $0xfffa,-0xa08(%rbp)
    84d7:	fa ff 
    84d9:	66 c7 85 fa f5 ff ff 	movw   $0xfff6,-0xa06(%rbp)
    84e0:	f6 ff 
    84e2:	66 c7 85 fc f5 ff ff 	movw   $0x0,-0xa04(%rbp)
    84e9:	00 00 
    84eb:	48 8d 05 db ab 00 00 	lea    0xabdb(%rip),%rax        # 130cd <g_552>
    84f2:	48 89 85 90 f3 ff ff 	mov    %rax,-0xc70(%rbp)
    84f9:	48 8d 05 94 ab 00 00 	lea    0xab94(%rip),%rax        # 13094 <g_433+0x34>
    8500:	48 89 85 98 f3 ff ff 	mov    %rax,-0xc68(%rbp)
    8507:	c7 85 14 f1 ff ff 01 	movl   $0x1,-0xeec(%rbp)
    850e:	00 00 00 
    8511:	48 8d 85 f0 f8 ff ff 	lea    -0x710(%rbp),%rax
    8518:	48 8d 15 41 7b 00 00 	lea    0x7b41(%rip),%rdx        # 10060 <g_824+0x8>
    851f:	b9 69 00 00 00       	mov    $0x69,%ecx
    8524:	48 89 c7             	mov    %rax,%rdi
    8527:	48 89 d6             	mov    %rdx,%rsi
    852a:	f3 48 a5             	rep movsq %ds:(%rsi),%es:(%rdi)
    852d:	c7 85 98 f0 ff ff 00 	movl   $0x0,-0xf68(%rbp)
    8534:	00 00 00 
    8537:	eb 1e                	jmp    8557 <func_30+0xab2>
    8539:	8b 85 98 f0 ff ff    	mov    -0xf68(%rbp),%eax
    853f:	48 98                	cltq   
    8541:	48 8d 95 80 f1 ff ff 	lea    -0xe80(%rbp),%rdx
    8548:	48 89 94 c5 50 f4 ff 	mov    %rdx,-0xbb0(%rbp,%rax,8)
    854f:	ff 
    8550:	83 85 98 f0 ff ff 01 	addl   $0x1,-0xf68(%rbp)
    8557:	83 bd 98 f0 ff ff 01 	cmpl   $0x1,-0xf68(%rbp)
    855e:	7e d9                	jle    8539 <func_30+0xa94>
    8560:	c7 85 98 f0 ff ff 00 	movl   $0x0,-0xf68(%rbp)
    8567:	00 00 00 
    856a:	eb 1e                	jmp    858a <func_30+0xae5>
    856c:	8b 85 98 f0 ff ff    	mov    -0xf68(%rbp),%eax
    8572:	48 98                	cltq   
    8574:	48 8d 15 b5 aa 00 00 	lea    0xaab5(%rip),%rdx        # 13030 <g_48>
    857b:	48 89 94 c5 70 f4 ff 	mov    %rdx,-0xb90(%rbp,%rax,8)
    8582:	ff 
    8583:	83 85 98 f0 ff ff 01 	addl   $0x1,-0xf68(%rbp)
    858a:	83 bd 98 f0 ff ff 01 	cmpl   $0x1,-0xf68(%rbp)
    8591:	7e d9                	jle    856c <func_30+0xac7>
    8593:	8b 85 fc f3 ff ff    	mov    -0xc04(%rbp),%eax
    8599:	41 89 c7             	mov    %eax,%r15d
    859c:	8b 9d 28 f0 ff ff    	mov    -0xfd8(%rbp),%ebx
    85a2:	48 8b 05 37 c0 00 00 	mov    0xc037(%rip),%rax        # 145e0 <g_328>
    85a9:	48 8b 00             	mov    (%rax),%rax
    85ac:	48 89 85 20 f0 ff ff 	mov    %rax,-0xfe0(%rbp)
    85b3:	8b 85 28 f0 ff ff    	mov    -0xfd8(%rbp),%eax
    85b9:	44 0f b7 e0          	movzwl %ax,%r12d
    85bd:	44 8b ad fc f3 ff ff 	mov    -0xc04(%rbp),%r13d
    85c4:	48 8b 05 15 c0 00 00 	mov    0xc015(%rip),%rax        # 145e0 <g_328>
    85cb:	48 8b 00             	mov    (%rax),%rax
    85ce:	48 89 85 18 f0 ff ff 	mov    %rax,-0xfe8(%rbp)
    85d5:	48 8b 85 70 f3 ff ff 	mov    -0xc90(%rbp),%rax
    85dc:	0f b6 00             	movzbl (%rax),%eax
    85df:	83 e0 fc             	and    $0xfffffffc,%eax
    85e2:	89 c2                	mov    %eax,%edx
    85e4:	48 8b 85 70 f3 ff ff 	mov    -0xc90(%rbp),%rax
    85eb:	88 10                	mov    %dl,(%rax)
    85ed:	48 8b 85 70 f3 ff ff 	mov    -0xc90(%rbp),%rax
    85f4:	0f b6 00             	movzbl (%rax),%eax
    85f7:	0f be c0             	movsbl %al,%eax
    85fa:	be 01 00 00 00       	mov    $0x1,%esi
    85ff:	89 c7                	mov    %eax,%edi
    8601:	e8 9b cc ff ff       	callq  52a1 <safe_lshift_func_int8_t_s_s>
    8606:	44 0f be f0          	movsbl %al,%r14d
    860a:	8b 85 08 f1 ff ff    	mov    -0xef8(%rbp),%eax
    8610:	89 85 0c f1 ff ff    	mov    %eax,-0xef4(%rbp)
    8616:	48 8d 05 4b be 00 00 	lea    0xbe4b(%rip),%rax        # 14468 <g_309+0xc8>
    861d:	48 39 85 78 f3 ff ff 	cmp    %rax,-0xc88(%rbp)
    8624:	0f 95 c0             	setne  %al
    8627:	0f b6 c0             	movzbl %al,%eax
    862a:	be 01 00 00 00       	mov    $0x1,%esi
    862f:	89 c7                	mov    %eax,%edi
    8631:	e8 9d cd ff ff       	callq  53d3 <safe_sub_func_int16_t_s_s>
    8636:	66 85 c0             	test   %ax,%ax
    8639:	75 09                	jne    8644 <func_30+0xb9f>
    863b:	83 bd 08 f1 ff ff 00 	cmpl   $0x0,-0xef8(%rbp)
    8642:	74 07                	je     864b <func_30+0xba6>
    8644:	b8 01 00 00 00       	mov    $0x1,%eax
    8649:	eb 05                	jmp    8650 <func_30+0xbab>
    864b:	b8 00 00 00 00       	mov    $0x0,%eax
    8650:	48 63 d0             	movslq %eax,%rdx
    8653:	48 8b 85 88 f3 ff ff 	mov    -0xc78(%rbp),%rax
    865a:	48 89 10             	mov    %rdx,(%rax)
    865d:	8b 85 2c f0 ff ff    	mov    -0xfd4(%rbp),%eax
    8663:	0f b7 c0             	movzwl %ax,%eax
    8666:	be 0e 00 00 00       	mov    $0xe,%esi
    866b:	89 c7                	mov    %eax,%edi
    866d:	e8 d6 d7 ff ff       	callq  5e48 <safe_rshift_func_uint16_t_u_s>
    8672:	0f b7 c0             	movzwl %ax,%eax
    8675:	41 39 c6             	cmp    %eax,%r14d
    8678:	0f 9f c0             	setg   %al
    867b:	0f b6 d0             	movzbl %al,%edx
    867e:	8b 85 fc f3 ff ff    	mov    -0xc04(%rbp),%eax
    8684:	89 c1                	mov    %eax,%ecx
    8686:	48 8b 85 60 f3 ff ff 	mov    -0xca0(%rbp),%rax
    868d:	66 89 08             	mov    %cx,(%rax)
    8690:	48 8b 85 60 f3 ff ff 	mov    -0xca0(%rbp),%rax
    8697:	0f b7 00             	movzwl (%rax),%eax
    869a:	66 85 c0             	test   %ax,%ax
    869d:	0f 94 c0             	sete   %al
    86a0:	0f b6 c8             	movzbl %al,%ecx
    86a3:	48 8b 85 68 f3 ff ff 	mov    -0xc98(%rbp),%rax
    86aa:	66 89 08             	mov    %cx,(%rax)
    86ad:	48 8b 85 68 f3 ff ff 	mov    -0xc98(%rbp),%rax
    86b4:	0f b7 00             	movzwl (%rax),%eax
    86b7:	0f b7 c0             	movzwl %ax,%eax
    86ba:	89 d6                	mov    %edx,%esi
    86bc:	89 c7                	mov    %eax,%edi
    86be:	e8 7a d6 ff ff       	callq  5d3d <safe_mul_func_uint16_t_u_u>
    86c3:	0f b7 c0             	movzwl %ax,%eax
    86c6:	ba fd ff ff ff       	mov    $0xfffffffd,%edx
    86cb:	48 31 c2             	xor    %rax,%rdx
    86ce:	48 8b 05 ab bc 00 00 	mov    0xbcab(%rip),%rax        # 14380 <g_310>
    86d5:	48 8b 00             	mov    (%rax),%rax
    86d8:	48 8b 00             	mov    (%rax),%rax
    86db:	0f b6 00             	movzbl (%rax),%eax
    86de:	0f b6 c0             	movzbl %al,%eax
    86e1:	48 09 d0             	or     %rdx,%rax
    86e4:	48 39 85 18 f0 ff ff 	cmp    %rax,-0xfe8(%rbp)
    86eb:	0f 96 c0             	setbe  %al
    86ee:	0f b6 c0             	movzbl %al,%eax
    86f1:	41 39 c5             	cmp    %eax,%r13d
    86f4:	0f 97 c0             	seta   %al
    86f7:	0f b6 c0             	movzbl %al,%eax
    86fa:	44 89 e6             	mov    %r12d,%esi
    86fd:	89 c7                	mov    %eax,%edi
    86ff:	e8 1b d6 ff ff       	callq  5d1f <safe_sub_func_uint16_t_u_u>
    8704:	0f b7 c0             	movzwl %ax,%eax
    8707:	0b 85 08 f1 ff ff    	or     -0xef8(%rbp),%eax
    870d:	83 f0 06             	xor    $0x6,%eax
    8710:	48 98                	cltq   
    8712:	48 8b b5 20 f0 ff ff 	mov    -0xfe0(%rbp),%rsi
    8719:	48 89 c7             	mov    %rax,%rdi
    871c:	e8 5f d9 ff ff       	callq  6080 <safe_mod_func_uint64_t_u_u>
    8721:	8b 95 08 f1 ff ff    	mov    -0xef8(%rbp),%edx
    8727:	48 63 d2             	movslq %edx,%rdx
    872a:	48 39 d0             	cmp    %rdx,%rax
    872d:	0f 93 c0             	setae  %al
    8730:	0f b6 c0             	movzbl %al,%eax
    8733:	89 de                	mov    %ebx,%esi
    8735:	89 c7                	mov    %eax,%edi
    8737:	e8 51 d5 ff ff       	callq  5c8d <safe_rshift_func_uint8_t_u_s>
    873c:	0f b6 c0             	movzbl %al,%eax
    873f:	4c 89 fe             	mov    %r15,%rsi
    8742:	48 89 c7             	mov    %rax,%rdi
    8745:	e8 65 d9 ff ff       	callq  60af <safe_div_func_uint64_t_u_u>
    874a:	89 85 5c f0 ff ff    	mov    %eax,-0xfa4(%rbp)
    8750:	48 8b 05 01 bc 00 00 	mov    0xbc01(%rip),%rax        # 14358 <g_256>
    8757:	8b 95 5c f0 ff ff    	mov    -0xfa4(%rbp),%edx
    875d:	89 10                	mov    %edx,(%rax)
    875f:	c7 05 87 a9 00 00 00 	movl   $0x0,0xa987(%rip)        # 130f0 <g_690>
    8766:	00 00 00 
    8769:	e9 d2 01 00 00       	jmpq   8940 <func_30+0xe9b>
    876e:	48 b8 c4 d8 4b 2c 0f 	movabs $0x786c600f2c4bd8c4,%rax
    8775:	60 6c 78 
    8778:	48 89 85 a0 f3 ff ff 	mov    %rax,-0xc60(%rbp)
    877f:	48 8d 05 aa a8 00 00 	lea    0xa8aa(%rip),%rax        # 13030 <g_48>
    8786:	48 89 85 a8 f3 ff ff 	mov    %rax,-0xc58(%rbp)
    878d:	48 8d 85 f4 f3 ff ff 	lea    -0xc0c(%rbp),%rax
    8794:	48 83 c0 08          	add    $0x8,%rax
    8798:	48 89 85 88 f1 ff ff 	mov    %rax,-0xe78(%rbp)
    879f:	48 8d 85 88 f1 ff ff 	lea    -0xe78(%rbp),%rax
    87a6:	48 89 85 90 f1 ff ff 	mov    %rax,-0xe70(%rbp)
    87ad:	48 8d 85 90 f1 ff ff 	lea    -0xe70(%rbp),%rax
    87b4:	48 89 85 30 f5 ff ff 	mov    %rax,-0xad0(%rbp)
    87bb:	48 8d 85 90 f1 ff ff 	lea    -0xe70(%rbp),%rax
    87c2:	48 89 85 38 f5 ff ff 	mov    %rax,-0xac8(%rbp)
    87c9:	48 8d 85 90 f1 ff ff 	lea    -0xe70(%rbp),%rax
    87d0:	48 89 85 40 f5 ff ff 	mov    %rax,-0xac0(%rbp)
    87d7:	48 8d 85 90 f1 ff ff 	lea    -0xe70(%rbp),%rax
    87de:	48 89 85 48 f5 ff ff 	mov    %rax,-0xab8(%rbp)
    87e5:	48 8d 85 90 f1 ff ff 	lea    -0xe70(%rbp),%rax
    87ec:	48 89 85 50 f5 ff ff 	mov    %rax,-0xab0(%rbp)
    87f3:	48 8d 85 90 f1 ff ff 	lea    -0xe70(%rbp),%rax
    87fa:	48 89 85 58 f5 ff ff 	mov    %rax,-0xaa8(%rbp)
    8801:	48 8d 85 30 f5 ff ff 	lea    -0xad0(%rbp),%rax
    8808:	48 83 c0 28          	add    $0x28,%rax
    880c:	48 89 85 b0 f3 ff ff 	mov    %rax,-0xc50(%rbp)
    8813:	c6 85 30 f4 ff ff 71 	movb   $0x71,-0xbd0(%rbp)
    881a:	c6 85 31 f4 ff ff 1e 	movb   $0x1e,-0xbcf(%rbp)
    8821:	c6 85 32 f4 ff ff 71 	movb   $0x71,-0xbce(%rbp)
    8828:	c6 85 33 f4 ff ff 1e 	movb   $0x1e,-0xbcd(%rbp)
    882f:	c6 85 34 f4 ff ff 71 	movb   $0x71,-0xbcc(%rbp)
    8836:	c6 85 35 f4 ff ff 1e 	movb   $0x1e,-0xbcb(%rbp)
    883d:	c6 85 36 f4 ff ff 71 	movb   $0x71,-0xbca(%rbp)
    8844:	c6 85 37 f4 ff ff 1e 	movb   $0x1e,-0xbc9(%rbp)
    884b:	c6 85 38 f4 ff ff 71 	movb   $0x71,-0xbc8(%rbp)
    8852:	48 8d 05 e7 a7 00 00 	lea    0xa7e7(%rip),%rax        # 13040 <g_119>
    8859:	48 89 85 b8 f3 ff ff 	mov    %rax,-0xc48(%rbp)
    8860:	48 c7 85 c0 f3 ff ff 	movq   $0x0,-0xc40(%rbp)
    8867:	00 00 00 00 
    886b:	c7 85 18 f1 ff ff f9 	movl   $0xfffffff9,-0xee8(%rbp)
    8872:	ff ff ff 
    8875:	48 8d 05 ec bd 00 00 	lea    0xbdec(%rip),%rax        # 14668 <g_971>
    887c:	48 89 85 c8 f3 ff ff 	mov    %rax,-0xc38(%rbp)
    8883:	48 8d 05 de bd 00 00 	lea    0xbdde(%rip),%rax        # 14668 <g_971>
    888a:	48 89 85 d0 f3 ff ff 	mov    %rax,-0xc30(%rbp)
    8891:	c7 85 1c f1 ff ff ff 	movl   $0xffffffff,-0xee4(%rbp)
    8898:	ff ff ff 
    889b:	48 c7 85 98 f1 ff ff 	movq   $0x0,-0xe68(%rbp)
    88a2:	00 00 00 00 
    88a6:	48 8d 85 98 f1 ff ff 	lea    -0xe68(%rbp),%rax
    88ad:	48 89 85 d8 f3 ff ff 	mov    %rax,-0xc28(%rbp)
    88b4:	66 c7 85 5a f0 ff ff 	movw   $0x0,-0xfa6(%rbp)
    88bb:	00 00 
    88bd:	48 b8 04 04 04 04 04 	movabs $0x404040404040404,%rax
    88c4:	04 04 04 
    88c7:	48 89 45 be          	mov    %rax,-0x42(%rbp)
    88cb:	66 c7 45 c6 04 04    	movw   $0x404,-0x3a(%rbp)
    88d1:	c7 85 9c f0 ff ff 00 	movl   $0x0,-0xf64(%rbp)
    88d8:	00 00 00 
    88db:	eb 42                	jmp    891f <func_30+0xe7a>
    88dd:	c7 85 a0 f0 ff ff 00 	movl   $0x0,-0xf60(%rbp)
    88e4:	00 00 00 
    88e7:	eb 26                	jmp    890f <func_30+0xe6a>
    88e9:	8b 85 a0 f0 ff ff    	mov    -0xf60(%rbp),%eax
    88ef:	48 63 d0             	movslq %eax,%rdx
    88f2:	8b 85 9c f0 ff ff    	mov    -0xf64(%rbp),%eax
    88f8:	48 98                	cltq   
    88fa:	48 01 d0             	add    %rdx,%rax
    88fd:	c7 84 85 20 f4 ff ff 	movl   $0x8930ac1f,-0xbe0(%rbp,%rax,4)
    8904:	1f ac 30 89 
    8908:	83 85 a0 f0 ff ff 01 	addl   $0x1,-0xf60(%rbp)
    890f:	83 bd a0 f0 ff ff 00 	cmpl   $0x0,-0xf60(%rbp)
    8916:	7e d1                	jle    88e9 <func_30+0xe44>
    8918:	83 85 9c f0 ff ff 01 	addl   $0x1,-0xf64(%rbp)
    891f:	83 bd 9c f0 ff ff 00 	cmpl   $0x0,-0xf64(%rbp)
    8926:	7e b5                	jle    88dd <func_30+0xe38>
    8928:	80 bd 46 f0 ff ff 00 	cmpb   $0x0,-0xfba(%rbp)
    892f:	75 1f                	jne    8950 <func_30+0xeab>
    8931:	8b 05 b9 a7 00 00    	mov    0xa7b9(%rip),%eax        # 130f0 <g_690>
    8937:	83 c0 01             	add    $0x1,%eax
    893a:	89 05 b0 a7 00 00    	mov    %eax,0xa7b0(%rip)        # 130f0 <g_690>
    8940:	8b 05 aa a7 00 00    	mov    0xa7aa(%rip),%eax        # 130f0 <g_690>
    8946:	85 c0                	test   %eax,%eax
    8948:	0f 84 20 fe ff ff    	je     876e <func_30+0xcc9>
    894e:	eb 01                	jmp    8951 <func_30+0xeac>
    8950:	90                   	nop
    8951:	48 8b 05 80 a7 00 00 	mov    0xa780(%rip),%rax        # 130d8 <g_577>
    8958:	48 83 c0 01          	add    $0x1,%rax
    895c:	48 89 05 75 a7 00 00 	mov    %rax,0xa775(%rip)        # 130d8 <g_577>
    8963:	48 8b 05 6e a7 00 00 	mov    0xa76e(%rip),%rax        # 130d8 <g_577>
    896a:	48 85 c0             	test   %rax,%rax
    896d:	0f 84 65 f5 ff ff    	je     7ed8 <func_30+0x433>
    8973:	0f b7 85 e6 f3 ff ff 	movzwl -0xc1a(%rbp),%eax
    897a:	0f be d0             	movsbl %al,%edx
    897d:	48 8b 85 a8 f1 ff ff 	mov    -0xe58(%rbp),%rax
    8984:	48 8b 00             	mov    (%rax),%rax
    8987:	48 8d 70 01          	lea    0x1(%rax),%rsi
    898b:	48 8b 8d a8 f1 ff ff 	mov    -0xe58(%rbp),%rcx
    8992:	48 89 31             	mov    %rsi,(%rcx)
    8995:	48 b9 f0 b7 f5 80 df 	movabs $0x5cdd9bdf80f5b7f0,%rcx
    899c:	9b dd 5c 
    899f:	48 39 c8             	cmp    %rcx,%rax
    89a2:	0f 96 c0             	setbe  %al
    89a5:	0f b6 c0             	movzbl %al,%eax
    89a8:	89 d6                	mov    %edx,%esi
    89aa:	89 c7                	mov    %eax,%edi
    89ac:	e8 61 c8 ff ff       	callq  5212 <safe_mul_func_int8_t_s_s>
    89b1:	84 c0                	test   %al,%al
    89b3:	0f 84 c7 00 00 00    	je     8a80 <func_30+0xfdb>
    89b9:	0f b6 05 0d a7 00 00 	movzbl 0xa70d(%rip),%eax        # 130cd <g_552>
    89c0:	0f b6 d8             	movzbl %al,%ebx
    89c3:	8b 85 2c f0 ff ff    	mov    -0xfd4(%rbp),%eax
    89c9:	89 c2                	mov    %eax,%edx
    89cb:	48 8b 85 40 f1 ff ff 	mov    -0xec0(%rbp),%rax
    89d2:	0f b6 08             	movzbl (%rax),%ecx
    89d5:	48 8b 85 40 f1 ff ff 	mov    -0xec0(%rbp),%rax
    89dc:	83 c9 01             	or     $0x1,%ecx
    89df:	88 08                	mov    %cl,(%rax)
    89e1:	0f b6 00             	movzbl (%rax),%eax
    89e4:	0f be c0             	movsbl %al,%eax
    89e7:	89 d6                	mov    %edx,%esi
    89e9:	89 c7                	mov    %eax,%edi
    89eb:	e8 7c c9 ff ff       	callq  536c <safe_rshift_func_int8_t_s_u>
    89f0:	66 98                	cbtw   
    89f2:	0f b7 c0             	movzwl %ax,%eax
    89f5:	be 8c 80 00 00       	mov    $0x808c,%esi
    89fa:	89 c7                	mov    %eax,%edi
    89fc:	e8 8d d3 ff ff       	callq  5d8e <safe_div_func_uint16_t_u_u>
    8a01:	66 85 c0             	test   %ax,%ax
    8a04:	0f 95 c0             	setne  %al
    8a07:	0f b6 c0             	movzbl %al,%eax
    8a0a:	be 91 1e 3a 93       	mov    $0x933a1e91,%esi
    8a0f:	89 c7                	mov    %eax,%edi
    8a11:	e8 e7 d4 ff ff       	callq  5efd <safe_mod_func_uint32_t_u_u>
    8a16:	8b 95 2c f0 ff ff    	mov    -0xfd4(%rbp),%edx
    8a1c:	39 d0                	cmp    %edx,%eax
    8a1e:	0f 93 c0             	setae  %al
    8a21:	0f b6 c0             	movzbl %al,%eax
    8a24:	89 de                	mov    %ebx,%esi
    8a26:	89 c7                	mov    %eax,%edi
    8a28:	e8 d2 d2 ff ff       	callq  5cff <safe_add_func_uint16_t_u_u>
    8a2d:	0f bf d0             	movswl %ax,%edx
    8a30:	8b 85 2c f0 ff ff    	mov    -0xfd4(%rbp),%eax
    8a36:	85 c0                	test   %eax,%eax
    8a38:	0f 94 c0             	sete   %al
    8a3b:	0f b6 c8             	movzbl %al,%ecx
    8a3e:	48 8b 85 b0 f1 ff ff 	mov    -0xe50(%rbp),%rax
    8a45:	66 89 08             	mov    %cx,(%rax)
    8a48:	48 8b 85 b0 f1 ff ff 	mov    -0xe50(%rbp),%rax
    8a4f:	0f b7 00             	movzwl (%rax),%eax
    8a52:	98                   	cwtl   
    8a53:	89 d6                	mov    %edx,%esi
    8a55:	89 c7                	mov    %eax,%edi
    8a57:	e8 77 c9 ff ff       	callq  53d3 <safe_sub_func_int16_t_s_s>
    8a5c:	89 c2                	mov    %eax,%edx
    8a5e:	48 8b 05 83 bb 00 00 	mov    0xbb83(%rip),%rax        # 145e8 <g_372>
    8a65:	0f bf d2             	movswl %dx,%edx
    8a68:	89 10                	mov    %edx,(%rax)
    8a6a:	8b 00                	mov    (%rax),%eax
    8a6c:	85 c0                	test   %eax,%eax
    8a6e:	74 10                	je     8a80 <func_30+0xfdb>
    8a70:	83 bd b8 f0 ff ff 00 	cmpl   $0x0,-0xf48(%rbp)
    8a77:	74 07                	je     8a80 <func_30+0xfdb>
    8a79:	b8 01 00 00 00       	mov    $0x1,%eax
    8a7e:	eb 05                	jmp    8a85 <func_30+0xfe0>
    8a80:	b8 00 00 00 00       	mov    $0x0,%eax
    8a85:	83 f0 53             	xor    $0x53,%eax
    8a88:	0f be d8             	movsbl %al,%ebx
    8a8b:	0f b6 05 9e a9 00 00 	movzbl 0xa99e(%rip),%eax        # 13430 <g_808>
    8a92:	66 98                	cbtw   
    8a94:	0f b7 c8             	movzwl %ax,%ecx
    8a97:	48 8b 85 28 f1 ff ff 	mov    -0xed8(%rbp),%rax
    8a9e:	48 8b 10             	mov    (%rax),%rdx
    8aa1:	48 8d 72 01          	lea    0x1(%rdx),%rsi
    8aa5:	48 89 30             	mov    %rsi,(%rax)
    8aa8:	48 8b 85 30 f1 ff ff 	mov    -0xed0(%rbp),%rax
    8aaf:	48 89 10             	mov    %rdx,(%rax)
    8ab2:	48 8b 00             	mov    (%rax),%rax
    8ab5:	48 ba 9b ef e9 e0 e1 	movabs $0xfb9ac2e1e0e9ef9b,%rdx
    8abc:	c2 9a fb 
    8abf:	48 39 d0             	cmp    %rdx,%rax
    8ac2:	0f 95 c0             	setne  %al
    8ac5:	0f b6 c0             	movzbl %al,%eax
    8ac8:	8b 95 2c f0 ff ff    	mov    -0xfd4(%rbp),%edx
    8ace:	09 d0                	or     %edx,%eax
    8ad0:	0f b7 c0             	movzwl %ax,%eax
    8ad3:	89 ce                	mov    %ecx,%esi
    8ad5:	89 c7                	mov    %eax,%edi
    8ad7:	e8 80 d2 ff ff       	callq  5d5c <safe_mod_func_uint16_t_u_u>
    8adc:	0f be c0             	movsbl %al,%eax
    8adf:	89 de                	mov    %ebx,%esi
    8ae1:	89 c7                	mov    %eax,%edi
    8ae3:	e8 49 c7 ff ff       	callq  5231 <safe_mod_func_int8_t_s_s>
    8ae8:	89 c2                	mov    %eax,%edx
    8aea:	48 8b 05 9f bb 00 00 	mov    0xbb9f(%rip),%rax        # 14690 <g_1187>
    8af1:	0f be d2             	movsbl %dl,%edx
    8af4:	89 10                	mov    %edx,(%rax)
    8af6:	48 8b 05 9b bb 00 00 	mov    0xbb9b(%rip),%rax        # 14698 <g_1188>
    8afd:	8b 10                	mov    (%rax),%edx
    8aff:	89 d1                	mov    %edx,%ecx
    8b01:	8b 95 f8 f3 ff ff    	mov    -0xc08(%rbp),%edx
    8b07:	31 ca                	xor    %ecx,%edx
    8b09:	89 10                	mov    %edx,(%rax)
    8b0b:	8b 85 f4 f3 ff ff    	mov    -0xc0c(%rbp),%eax
    8b11:	85 c0                	test   %eax,%eax
    8b13:	0f 84 dd 01 00 00    	je     8cf6 <func_30+0x1251>
    8b19:	48 c7 85 40 f3 ff ff 	movq   $0x0,-0xcc0(%rbp)
    8b20:	00 00 00 00 
    8b24:	48 8d 05 05 a8 00 00 	lea    0xa805(%rip),%rax        # 13330 <g_745>
    8b2b:	48 89 85 48 f3 ff ff 	mov    %rax,-0xcb8(%rbp)
    8b32:	48 8d 05 eb a4 00 00 	lea    0xa4eb(%rip),%rax        # 13024 <g_18>
    8b39:	48 89 85 50 f3 ff ff 	mov    %rax,-0xcb0(%rbp)
    8b40:	c7 85 ec f0 ff ff 00 	movl   $0x0,-0xf14(%rbp)
    8b47:	00 00 00 
    8b4a:	c7 85 f0 f0 ff ff 0c 	movl   $0x93d12e0c,-0xf10(%rbp)
    8b51:	2e d1 93 
    8b54:	c7 85 f4 f0 ff ff f8 	movl   $0xfffffff8,-0xf0c(%rbp)
    8b5b:	ff ff ff 
    8b5e:	c7 85 f8 f0 ff ff b5 	movl   $0x262e73b5,-0xf08(%rbp)
    8b65:	73 2e 26 
    8b68:	c7 85 fc f0 ff ff 6f 	movl   $0x863ef96f,-0xf04(%rbp)
    8b6f:	f9 3e 86 
    8b72:	c7 85 00 f1 ff ff 67 	movl   $0xe3e3c067,-0xf00(%rbp)
    8b79:	c0 e3 e3 
    8b7c:	c7 85 04 f1 ff ff a0 	movl   $0x4308a9a0,-0xefc(%rbp)
    8b83:	a9 08 43 
    8b86:	48 8b 85 40 f3 ff ff 	mov    -0xcc0(%rbp),%rax
    8b8d:	89 c2                	mov    %eax,%edx
    8b8f:	8b 85 60 f0 ff ff    	mov    -0xfa0(%rbp),%eax
    8b95:	31 d0                	xor    %edx,%eax
    8b97:	89 85 60 f0 ff ff    	mov    %eax,-0xfa0(%rbp)
    8b9d:	8b 85 2c f0 ff ff    	mov    -0xfd4(%rbp),%eax
    8ba3:	0f be d8             	movsbl %al,%ebx
    8ba6:	8b 85 28 f0 ff ff    	mov    -0xfd8(%rbp),%eax
    8bac:	44 0f be e0          	movsbl %al,%r12d
    8bb0:	8b 85 28 f0 ff ff    	mov    -0xfd8(%rbp),%eax
    8bb6:	0f b6 d0             	movzbl %al,%edx
    8bb9:	48 8b 05 a0 b7 00 00 	mov    0xb7a0(%rip),%rax        # 14360 <g_273>
    8bc0:	0f b6 08             	movzbl (%rax),%ecx
    8bc3:	83 c1 01             	add    $0x1,%ecx
    8bc6:	88 08                	mov    %cl,(%rax)
    8bc8:	0f b6 00             	movzbl (%rax),%eax
    8bcb:	0f b6 c0             	movzbl %al,%eax
    8bce:	89 d6                	mov    %edx,%esi
    8bd0:	89 c7                	mov    %eax,%edi
    8bd2:	e8 bc cf ff ff       	callq  5b93 <safe_mul_func_uint8_t_u_u>
    8bd7:	48 8b 95 48 f3 ff ff 	mov    -0xcb8(%rbp),%rdx
    8bde:	8b 12                	mov    (%rdx),%edx
    8be0:	0f b6 c0             	movzbl %al,%eax
    8be3:	21 c2                	and    %eax,%edx
    8be5:	48 8b 85 48 f3 ff ff 	mov    -0xcb8(%rbp),%rax
    8bec:	89 10                	mov    %edx,(%rax)
    8bee:	48 8b 85 48 f3 ff ff 	mov    -0xcb8(%rbp),%rax
    8bf5:	8b 00                	mov    (%rax),%eax
    8bf7:	85 c0                	test   %eax,%eax
    8bf9:	74 63                	je     8c5e <func_30+0x11b9>
    8bfb:	48 8b 05 1e ba 00 00 	mov    0xba1e(%rip),%rax        # 14620 <g_664>
    8c02:	48 8b 00             	mov    (%rax),%rax
    8c05:	48 8b 00             	mov    (%rax),%rax
    8c08:	48 85 c0             	test   %rax,%rax
    8c0b:	0f 94 c0             	sete   %al
    8c0e:	0f b6 c0             	movzbl %al,%eax
    8c11:	f7 d0                	not    %eax
    8c13:	41 89 c5             	mov    %eax,%r13d
    8c16:	8b 85 28 f0 ff ff    	mov    -0xfd8(%rbp),%eax
    8c1c:	0f be d0             	movsbl %al,%edx
    8c1f:	81 bd 28 f0 ff ff 3c 	cmpl   $0x533c,-0xfd8(%rbp)
    8c26:	53 00 00 
    8c29:	77 0c                	ja     8c37 <func_30+0x1192>
    8c2b:	0f b7 05 96 ca 00 00 	movzwl 0xca96(%rip),%eax        # 156c8 <g_1205>
    8c32:	66 85 c0             	test   %ax,%ax
    8c35:	74 07                	je     8c3e <func_30+0x1199>
    8c37:	b8 01 00 00 00       	mov    $0x1,%eax
    8c3c:	eb 05                	jmp    8c43 <func_30+0x119e>
    8c3e:	b8 00 00 00 00       	mov    $0x0,%eax
    8c43:	0f be c0             	movsbl %al,%eax
    8c46:	89 d6                	mov    %edx,%esi
    8c48:	89 c7                	mov    %eax,%edi
    8c4a:	e8 e2 c5 ff ff       	callq  5231 <safe_mod_func_int8_t_s_s>
    8c4f:	0f be c0             	movsbl %al,%eax
    8c52:	41 39 c5             	cmp    %eax,%r13d
    8c55:	7c 07                	jl     8c5e <func_30+0x11b9>
    8c57:	b8 01 00 00 00       	mov    $0x1,%eax
    8c5c:	eb 05                	jmp    8c63 <func_30+0x11be>
    8c5e:	b8 00 00 00 00       	mov    $0x0,%eax
    8c63:	83 f8 78             	cmp    $0x78,%eax
    8c66:	0f 9e c0             	setle  %al
    8c69:	0f b6 c0             	movzbl %al,%eax
    8c6c:	44 89 e6             	mov    %r12d,%esi
    8c6f:	89 c7                	mov    %eax,%edi
    8c71:	e8 9c c5 ff ff       	callq  5212 <safe_mul_func_int8_t_s_s>
    8c76:	0f be d0             	movsbl %al,%edx
    8c79:	48 8b 85 50 f3 ff ff 	mov    -0xcb0(%rbp),%rax
    8c80:	89 10                	mov    %edx,(%rax)
    8c82:	48 8b 85 50 f3 ff ff 	mov    -0xcb0(%rbp),%rax
    8c89:	8b 10                	mov    (%rax),%edx
    8c8b:	0f b6 05 aa a3 00 00 	movzbl 0xa3aa(%rip),%eax        # 1303c <g_115>
    8c92:	0f be c0             	movsbl %al,%eax
    8c95:	39 c2                	cmp    %eax,%edx
    8c97:	0f 9c c0             	setl   %al
    8c9a:	0f b6 d0             	movzbl %al,%edx
    8c9d:	0f b7 85 e6 f3 ff ff 	movzwl -0xc1a(%rbp),%eax
    8ca4:	98                   	cwtl   
    8ca5:	39 c2                	cmp    %eax,%edx
    8ca7:	0f 9d c0             	setge  %al
    8caa:	0f b6 c0             	movzbl %al,%eax
    8cad:	89 85 5c f0 ff ff    	mov    %eax,-0xfa4(%rbp)
    8cb3:	0f b7 85 e6 f3 ff ff 	movzwl -0xc1a(%rbp),%eax
    8cba:	66 3d f8 00          	cmp    $0xf8,%ax
    8cbe:	0f 94 c0             	sete   %al
    8cc1:	0f b6 c0             	movzbl %al,%eax
    8cc4:	89 de                	mov    %ebx,%esi
    8cc6:	89 c7                	mov    %eax,%edi
    8cc8:	e8 45 c5 ff ff       	callq  5212 <safe_mul_func_int8_t_s_s>
    8ccd:	0f b6 d0             	movzbl %al,%edx
    8cd0:	48 83 bd 40 f3 ff ff 	cmpq   $0x0,-0xcc0(%rbp)
    8cd7:	00 
    8cd8:	0f 95 c0             	setne  %al
    8cdb:	0f b6 c0             	movzbl %al,%eax
    8cde:	89 d6                	mov    %edx,%esi
    8ce0:	89 c7                	mov    %eax,%edi
    8ce2:	e8 ac ce ff ff       	callq  5b93 <safe_mul_func_uint8_t_u_u>
    8ce7:	48 8b 05 3a b9 00 00 	mov    0xb93a(%rip),%rax        # 14628 <g_686>
    8cee:	48 8b 00             	mov    (%rax),%rax
    8cf1:	e9 1e 34 00 00       	jmpq   c114 <func_30+0x466f>
    8cf6:	48 c7 85 50 f4 ff ff 	movq   $0x0,-0xbb0(%rbp)
    8cfd:	00 00 00 00 
    8d01:	48 c7 85 58 f4 ff ff 	movq   $0x0,-0xba8(%rbp)
    8d08:	00 00 00 00 
    8d0c:	48 c7 85 60 f4 ff ff 	movq   $0x0,-0xba0(%rbp)
    8d13:	00 00 00 00 
    8d17:	48 c7 85 68 f4 ff ff 	movq   $0x0,-0xb98(%rbp)
    8d1e:	00 00 00 00 
    8d22:	c7 85 68 f0 ff ff 01 	movl   $0x1,-0xf98(%rbp)
    8d29:	00 00 00 
    8d2c:	48 8d 05 2d b6 00 00 	lea    0xb62d(%rip),%rax        # 14360 <g_273>
    8d33:	48 89 85 c8 f1 ff ff 	mov    %rax,-0xe38(%rbp)
    8d3a:	48 8d 05 9f b8 00 00 	lea    0xb89f(%rip),%rax        # 145e0 <g_328>
    8d41:	48 89 85 30 f5 ff ff 	mov    %rax,-0xad0(%rbp)
    8d48:	48 8d 05 91 b8 00 00 	lea    0xb891(%rip),%rax        # 145e0 <g_328>
    8d4f:	48 89 85 38 f5 ff ff 	mov    %rax,-0xac8(%rbp)
    8d56:	48 8d 05 83 b8 00 00 	lea    0xb883(%rip),%rax        # 145e0 <g_328>
    8d5d:	48 89 85 40 f5 ff ff 	mov    %rax,-0xac0(%rbp)
    8d64:	48 8d 05 75 b8 00 00 	lea    0xb875(%rip),%rax        # 145e0 <g_328>
    8d6b:	48 89 85 48 f5 ff ff 	mov    %rax,-0xab8(%rbp)
    8d72:	48 8d 05 67 b8 00 00 	lea    0xb867(%rip),%rax        # 145e0 <g_328>
    8d79:	48 89 85 50 f5 ff ff 	mov    %rax,-0xab0(%rbp)
    8d80:	48 8d 05 59 b8 00 00 	lea    0xb859(%rip),%rax        # 145e0 <g_328>
    8d87:	48 89 85 58 f5 ff ff 	mov    %rax,-0xaa8(%rbp)
    8d8e:	48 8d 05 4b b8 00 00 	lea    0xb84b(%rip),%rax        # 145e0 <g_328>
    8d95:	48 89 85 60 f5 ff ff 	mov    %rax,-0xaa0(%rbp)
    8d9c:	48 8d 05 3d b8 00 00 	lea    0xb83d(%rip),%rax        # 145e0 <g_328>
    8da3:	48 89 85 68 f5 ff ff 	mov    %rax,-0xa98(%rbp)
    8daa:	48 8d 05 2f b8 00 00 	lea    0xb82f(%rip),%rax        # 145e0 <g_328>
    8db1:	48 89 85 70 f5 ff ff 	mov    %rax,-0xa90(%rbp)
    8db8:	c7 85 6c f0 ff ff 5f 	movl   $0x4783705f,-0xf94(%rbp)
    8dbf:	70 83 47 
    8dc2:	48 8d 85 38 f1 ff ff 	lea    -0xec8(%rbp),%rax
    8dc9:	48 89 85 78 f1 ff ff 	mov    %rax,-0xe88(%rbp)
    8dd0:	48 8d 85 6c f0 ff ff 	lea    -0xf94(%rbp),%rax
    8dd7:	48 89 85 d0 f1 ff ff 	mov    %rax,-0xe30(%rbp)
    8dde:	48 c7 85 d8 f1 ff ff 	movq   $0x0,-0xe28(%rbp)
    8de5:	00 00 00 00 
    8de9:	c7 85 70 f0 ff ff 00 	movl   $0x0,-0xf90(%rbp)
    8df0:	00 00 00 
    8df3:	c7 85 c0 f0 ff ff 01 	movl   $0x1,-0xf40(%rbp)
    8dfa:	00 00 00 
    8dfd:	c7 85 c4 f0 ff ff f0 	movl   $0xad802ff0,-0xf3c(%rbp)
    8e04:	2f 80 ad 
    8e07:	c7 85 a4 f0 ff ff d5 	movl   $0x15385dd5,-0xf5c(%rbp)
    8e0e:	5d 38 15 
    8e11:	c7 85 c8 f0 ff ff 08 	movl   $0x8,-0xf38(%rbp)
    8e18:	00 00 00 
    8e1b:	66 c7 85 56 f0 ff ff 	movw   $0xcce,-0xfaa(%rbp)
    8e22:	ce 0c 
    8e24:	c7 85 a8 f0 ff ff 03 	movl   $0x3,-0xf58(%rbp)
    8e2b:	00 00 00 
    8e2e:	c7 85 ac f0 ff ff 00 	movl   $0x0,-0xf54(%rbp)
    8e35:	00 00 00 
    8e38:	eb 1e                	jmp    8e58 <func_30+0x13b3>
    8e3a:	8b 85 ac f0 ff ff    	mov    -0xf54(%rbp),%eax
    8e40:	48 98                	cltq   
    8e42:	48 8d 95 30 f1 ff ff 	lea    -0xed0(%rbp),%rdx
    8e49:	48 89 94 c5 e8 f3 ff 	mov    %rdx,-0xc18(%rbp,%rax,8)
    8e50:	ff 
    8e51:	83 85 ac f0 ff ff 01 	addl   $0x1,-0xf54(%rbp)
    8e58:	83 bd ac f0 ff ff 00 	cmpl   $0x0,-0xf54(%rbp)
    8e5f:	7e d9                	jle    8e3a <func_30+0x1395>
    8e61:	90                   	nop
    8e62:	8b 85 b8 f0 ff ff    	mov    -0xf48(%rbp),%eax
    8e68:	be f7 ff ff ff       	mov    $0xfffffff7,%esi
    8e6d:	89 c7                	mov    %eax,%edi
    8e6f:	e8 8b c8 ff ff       	callq  56ff <safe_div_func_int32_t_s_s>
    8e74:	48 63 d0             	movslq %eax,%rdx
    8e77:	48 8b 05 e2 b7 00 00 	mov    0xb7e2(%rip),%rax        # 14660 <g_967>
    8e7e:	48 8b 00             	mov    (%rax),%rax
    8e81:	48 8b 00             	mov    (%rax),%rax
    8e84:	48 89 d3             	mov    %rdx,%rbx
    8e87:	48 21 c3             	and    %rax,%rbx
    8e8a:	8b 85 2c f0 ff ff    	mov    -0xfd4(%rbp),%eax
    8e90:	83 f8 01             	cmp    $0x1,%eax
    8e93:	0f 9f c0             	setg   %al
    8e96:	0f b6 d0             	movzbl %al,%edx
    8e99:	48 8b 85 68 f4 ff ff 	mov    -0xb98(%rbp),%rax
    8ea0:	48 8d 8d e4 f3 ff ff 	lea    -0xc1c(%rbp),%rcx
    8ea7:	48 83 c1 02          	add    $0x2,%rcx
    8eab:	48 39 c8             	cmp    %rcx,%rax
    8eae:	0f 95 c0             	setne  %al
    8eb1:	0f b6 c0             	movzbl %al,%eax
    8eb4:	48 89 d6             	mov    %rdx,%rsi
    8eb7:	48 89 c7             	mov    %rax,%rdi
    8eba:	e8 8c d1 ff ff       	callq  604b <safe_sub_func_uint64_t_u_u>
    8ebf:	be 0a 00 00 00       	mov    $0xa,%esi
    8ec4:	bf 01 00 00 00       	mov    $0x1,%edi
    8ec9:	e8 c4 c5 ff ff       	callq  5492 <safe_lshift_func_int16_t_s_s>
    8ece:	48 8b 05 8b b4 00 00 	mov    0xb48b(%rip),%rax        # 14360 <g_273>
    8ed5:	0f b6 00             	movzbl (%rax),%eax
    8ed8:	89 c2                	mov    %eax,%edx
    8eda:	89 d8                	mov    %ebx,%eax
    8edc:	31 c2                	xor    %eax,%edx
    8ede:	48 8b 05 7b b4 00 00 	mov    0xb47b(%rip),%rax        # 14360 <g_273>
    8ee5:	88 10                	mov    %dl,(%rax)
    8ee7:	48 8b 05 b2 b7 00 00 	mov    0xb7b2(%rip),%rax        # 146a0 <g_1225>
    8eee:	c7 00 01 00 00 00    	movl   $0x1,(%rax)
    8ef4:	8b 05 d2 a5 00 00    	mov    0xa5d2(%rip),%eax        # 134cc <g_1244>
    8efa:	8b 85 28 f0 ff ff    	mov    -0xfd8(%rbp),%eax
    8f00:	0f b6 c0             	movzbl %al,%eax
    8f03:	be 04 00 00 00       	mov    $0x4,%esi
    8f08:	89 c7                	mov    %eax,%edi
    8f0a:	e8 f6 cc ff ff       	callq  5c05 <safe_lshift_func_uint8_t_u_s>
    8f0f:	84 c0                	test   %al,%al
    8f11:	0f 84 6d 29 00 00    	je     b884 <func_30+0x3ddf>
    8f17:	48 8d 85 50 f1 ff ff 	lea    -0xeb0(%rbp),%rax
    8f1e:	48 89 85 68 f2 ff ff 	mov    %rax,-0xd98(%rbp)
    8f25:	c7 85 74 f0 ff ff 01 	movl   $0x1,-0xf8c(%rbp)
    8f2c:	00 00 00 
    8f2f:	48 8d 05 92 c7 00 00 	lea    0xc792(%rip),%rax        # 156c8 <g_1205>
    8f36:	48 89 85 70 f2 ff ff 	mov    %rax,-0xd90(%rbp)
    8f3d:	48 c7 85 78 f2 ff ff 	movq   $0x0,-0xd88(%rbp)
    8f44:	00 00 00 00 
    8f48:	48 c7 85 80 f2 ff ff 	movq   $0x0,-0xd80(%rbp)
    8f4f:	00 00 00 00 
    8f53:	c7 85 30 f4 ff ff fe 	movl   $0x4556ccfe,-0xbd0(%rbp)
    8f5a:	cc 56 45 
    8f5d:	c7 85 34 f4 ff ff fe 	movl   $0x4556ccfe,-0xbcc(%rbp)
    8f64:	cc 56 45 
    8f67:	c7 85 38 f4 ff ff fe 	movl   $0x4556ccfe,-0xbc8(%rbp)
    8f6e:	cc 56 45 
    8f71:	c7 85 3c f4 ff ff fe 	movl   $0x4556ccfe,-0xbc4(%rbp)
    8f78:	cc 56 45 
    8f7b:	c7 85 40 f4 ff ff fe 	movl   $0x4556ccfe,-0xbc0(%rbp)
    8f82:	cc 56 45 
    8f85:	c7 85 44 f4 ff ff fe 	movl   $0x4556ccfe,-0xbbc(%rbp)
    8f8c:	cc 56 45 
    8f8f:	c7 85 48 f4 ff ff fe 	movl   $0x4556ccfe,-0xbb8(%rbp)
    8f96:	cc 56 45 
    8f99:	c7 85 dc f0 ff ff 9d 	movl   $0x1fc4949d,-0xf24(%rbp)
    8fa0:	94 c4 1f 
    8fa3:	48 8d 85 6c f0 ff ff 	lea    -0xf94(%rbp),%rax
    8faa:	48 89 85 88 f2 ff ff 	mov    %rax,-0xd78(%rbp)
    8fb1:	c7 85 b0 f0 ff ff 00 	movl   $0x0,-0xf50(%rbp)
    8fb8:	00 00 00 
    8fbb:	eb 1a                	jmp    8fd7 <func_30+0x1532>
    8fbd:	8b 85 b0 f0 ff ff    	mov    -0xf50(%rbp),%eax
    8fc3:	48 98                	cltq   
    8fc5:	c7 84 85 00 f4 ff ff 	movl   $0x1,-0xc00(%rbp,%rax,4)
    8fcc:	01 00 00 00 
    8fd0:	83 85 b0 f0 ff ff 01 	addl   $0x1,-0xf50(%rbp)
    8fd7:	83 bd b0 f0 ff ff 03 	cmpl   $0x3,-0xf50(%rbp)
    8fde:	7e dd                	jle    8fbd <func_30+0x1518>
    8fe0:	48 8b 95 50 f1 ff ff 	mov    -0xeb0(%rbp),%rdx
    8fe7:	48 8b 85 68 f2 ff ff 	mov    -0xd98(%rbp),%rax
    8fee:	48 89 10             	mov    %rdx,(%rax)
    8ff1:	8b 05 2d a0 00 00    	mov    0xa02d(%rip),%eax        # 13024 <g_18>
    8ff7:	0f bf d8             	movswl %ax,%ebx
    8ffa:	8b 85 2c f0 ff ff    	mov    -0xfd4(%rbp),%eax
    9000:	0f bf d0             	movswl %ax,%edx
    9003:	48 8b 85 70 f2 ff ff 	mov    -0xd90(%rbp),%rax
    900a:	0f b7 00             	movzwl (%rax),%eax
    900d:	8d 48 ff             	lea    -0x1(%rax),%ecx
    9010:	48 8b 85 70 f2 ff ff 	mov    -0xd90(%rbp),%rax
    9017:	66 89 08             	mov    %cx,(%rax)
    901a:	48 8b 85 70 f2 ff ff 	mov    -0xd90(%rbp),%rax
    9021:	0f b7 00             	movzwl (%rax),%eax
    9024:	0f b7 c8             	movzwl %ax,%ecx
    9027:	8b 85 74 f0 ff ff    	mov    -0xf8c(%rbp),%eax
    902d:	21 c1                	and    %eax,%ecx
    902f:	89 ce                	mov    %ecx,%esi
    9031:	48 8d 05 28 b6 00 00 	lea    0xb628(%rip),%rax        # 14660 <g_967>
    9038:	48 8b 00             	mov    (%rax),%rax
    903b:	48 8b 00             	mov    (%rax),%rax
    903e:	48 8b 08             	mov    (%rax),%rcx
    9041:	48 8b 05 98 b5 00 00 	mov    0xb598(%rip),%rax        # 145e0 <g_328>
    9048:	48 8b 00             	mov    (%rax),%rax
    904b:	48 83 f8 07          	cmp    $0x7,%rax
    904f:	77 13                	ja     9064 <func_30+0x15bf>
    9051:	48 8b 85 20 f1 ff ff 	mov    -0xee0(%rbp),%rax
    9058:	48 8b 00             	mov    (%rax),%rax
    905b:	48 39 85 c8 f1 ff ff 	cmp    %rax,-0xe38(%rbp)
    9062:	75 07                	jne    906b <func_30+0x15c6>
    9064:	b8 01 00 00 00       	mov    $0x1,%eax
    9069:	eb 05                	jmp    9070 <func_30+0x15cb>
    906b:	b8 00 00 00 00       	mov    $0x0,%eax
    9070:	48 98                	cltq   
    9072:	48 39 c1             	cmp    %rax,%rcx
    9075:	0f 9d c0             	setge  %al
    9078:	0f b6 c0             	movzbl %al,%eax
    907b:	39 c6                	cmp    %eax,%esi
    907d:	0f 9f c0             	setg   %al
    9080:	0f b6 c8             	movzbl %al,%ecx
    9083:	48 8b 05 16 b6 00 00 	mov    0xb616(%rip),%rax        # 146a0 <g_1225>
    908a:	8b 38                	mov    (%rax),%edi
    908c:	48 8b 85 68 f5 ff ff 	mov    -0xa98(%rbp),%rax
    9093:	48 85 c0             	test   %rax,%rax
    9096:	0f 95 c0             	setne  %al
    9099:	0f b6 f0             	movzbl %al,%esi
    909c:	48 8b 05 fd b5 00 00 	mov    0xb5fd(%rip),%rax        # 146a0 <g_1225>
    90a3:	31 fe                	xor    %edi,%esi
    90a5:	89 30                	mov    %esi,(%rax)
    90a7:	8b 00                	mov    (%rax),%eax
    90a9:	39 c1                	cmp    %eax,%ecx
    90ab:	0f 9e c0             	setle  %al
    90ae:	0f b6 c0             	movzbl %al,%eax
    90b1:	8b 8d 2c f0 ff ff    	mov    -0xfd4(%rbp),%ecx
    90b7:	09 c8                	or     %ecx,%eax
    90b9:	98                   	cwtl   
    90ba:	89 d6                	mov    %edx,%esi
    90bc:	89 c7                	mov    %eax,%edi
    90be:	e8 32 c3 ff ff       	callq  53f5 <safe_mul_func_int16_t_s_s>
    90c3:	98                   	cwtl   
    90c4:	be 13 51 02 bf       	mov    $0xbf025113,%esi
    90c9:	89 c7                	mov    %eax,%edi
    90cb:	e8 00 ce ff ff       	callq  5ed0 <safe_sub_func_uint32_t_u_u>
    90d0:	89 c6                	mov    %eax,%esi
    90d2:	bf 79 00 00 00       	mov    $0x79,%edi
    90d7:	e8 70 cb ff ff       	callq  5c4c <safe_lshift_func_uint8_t_u_u>
    90dc:	0f b6 c0             	movzbl %al,%eax
    90df:	89 de                	mov    %ebx,%esi
    90e1:	89 c7                	mov    %eax,%edi
    90e3:	e8 cb c2 ff ff       	callq  53b3 <safe_add_func_int16_t_s_s>
    90e8:	0f b7 c0             	movzwl %ax,%eax
    90eb:	be 02 00 00 00       	mov    $0x2,%esi
    90f0:	89 c7                	mov    %eax,%edi
    90f2:	e8 83 cd ff ff       	callq  5e7a <safe_rshift_func_uint16_t_u_u>
    90f7:	8b 85 fc f3 ff ff    	mov    -0xc04(%rbp),%eax
    90fd:	89 c6                	mov    %eax,%esi
    90ff:	bf 01 b8 88 14       	mov    $0x1488b801,%edi
    9104:	e8 c3 c5 ff ff       	callq  56cc <safe_mod_func_int32_t_s_s>
    9109:	83 bd b8 f0 ff ff 00 	cmpl   $0x0,-0xf48(%rbp)
    9110:	0f 84 0e 27 00 00    	je     b824 <func_30+0x3d7f>
    9116:	48 c7 85 90 f2 ff ff 	movq   $0x0,-0xd70(%rbp)
    911d:	00 00 00 00 
    9121:	c7 85 78 f0 ff ff b4 	movl   $0xf32166b4,-0xf88(%rbp)
    9128:	66 21 f3 
    912b:	48 8d 85 f4 f3 ff ff 	lea    -0xc0c(%rbp),%rax
    9132:	48 83 c0 08          	add    $0x8,%rax
    9136:	48 89 85 f0 f6 ff ff 	mov    %rax,-0x910(%rbp)
    913d:	48 8d 05 ac 9f 00 00 	lea    0x9fac(%rip),%rax        # 130f0 <g_690>
    9144:	48 89 85 f8 f6 ff ff 	mov    %rax,-0x908(%rbp)
    914b:	48 8d 85 f4 f3 ff ff 	lea    -0xc0c(%rbp),%rax
    9152:	48 83 c0 08          	add    $0x8,%rax
    9156:	48 89 85 00 f7 ff ff 	mov    %rax,-0x900(%rbp)
    915d:	48 8d 85 f4 f3 ff ff 	lea    -0xc0c(%rbp),%rax
    9164:	48 83 c0 08          	add    $0x8,%rax
    9168:	48 89 85 08 f7 ff ff 	mov    %rax,-0x8f8(%rbp)
    916f:	48 8d 05 7a 9f 00 00 	lea    0x9f7a(%rip),%rax        # 130f0 <g_690>
    9176:	48 89 85 10 f7 ff ff 	mov    %rax,-0x8f0(%rbp)
    917d:	48 8d 85 f4 f3 ff ff 	lea    -0xc0c(%rbp),%rax
    9184:	48 83 c0 08          	add    $0x8,%rax
    9188:	48 89 85 18 f7 ff ff 	mov    %rax,-0x8e8(%rbp)
    918f:	48 8d 85 f4 f3 ff ff 	lea    -0xc0c(%rbp),%rax
    9196:	48 83 c0 08          	add    $0x8,%rax
    919a:	48 89 85 20 f7 ff ff 	mov    %rax,-0x8e0(%rbp)
    91a1:	48 c7 85 28 f7 ff ff 	movq   $0x0,-0x8d8(%rbp)
    91a8:	00 00 00 00 
    91ac:	48 8d 05 3d 9f 00 00 	lea    0x9f3d(%rip),%rax        # 130f0 <g_690>
    91b3:	48 89 85 30 f7 ff ff 	mov    %rax,-0x8d0(%rbp)
    91ba:	48 8d 05 2f 9f 00 00 	lea    0x9f2f(%rip),%rax        # 130f0 <g_690>
    91c1:	48 89 85 38 f7 ff ff 	mov    %rax,-0x8c8(%rbp)
    91c8:	48 8d 85 f4 f3 ff ff 	lea    -0xc0c(%rbp),%rax
    91cf:	48 83 c0 04          	add    $0x4,%rax
    91d3:	48 89 85 40 f7 ff ff 	mov    %rax,-0x8c0(%rbp)
    91da:	48 8d 85 f4 f3 ff ff 	lea    -0xc0c(%rbp),%rax
    91e1:	48 83 c0 08          	add    $0x8,%rax
    91e5:	48 89 85 48 f7 ff ff 	mov    %rax,-0x8b8(%rbp)
    91ec:	48 c7 85 50 f7 ff ff 	movq   $0x0,-0x8b0(%rbp)
    91f3:	00 00 00 00 
    91f7:	48 c7 85 58 f7 ff ff 	movq   $0x0,-0x8a8(%rbp)
    91fe:	00 00 00 00 
    9202:	48 8d 85 f4 f3 ff ff 	lea    -0xc0c(%rbp),%rax
    9209:	48 83 c0 08          	add    $0x8,%rax
    920d:	48 89 85 60 f7 ff ff 	mov    %rax,-0x8a0(%rbp)
    9214:	48 8d 85 f4 f3 ff ff 	lea    -0xc0c(%rbp),%rax
    921b:	48 83 c0 04          	add    $0x4,%rax
    921f:	48 89 85 68 f7 ff ff 	mov    %rax,-0x898(%rbp)
    9226:	48 8d 05 c3 9e 00 00 	lea    0x9ec3(%rip),%rax        # 130f0 <g_690>
    922d:	48 89 85 70 f7 ff ff 	mov    %rax,-0x890(%rbp)
    9234:	48 8d 05 b5 9e 00 00 	lea    0x9eb5(%rip),%rax        # 130f0 <g_690>
    923b:	48 89 85 78 f7 ff ff 	mov    %rax,-0x888(%rbp)
    9242:	48 8d 05 a7 9e 00 00 	lea    0x9ea7(%rip),%rax        # 130f0 <g_690>
    9249:	48 89 85 80 f7 ff ff 	mov    %rax,-0x880(%rbp)
    9250:	48 8d 85 f4 f3 ff ff 	lea    -0xc0c(%rbp),%rax
    9257:	48 83 c0 08          	add    $0x8,%rax
    925b:	48 89 85 88 f7 ff ff 	mov    %rax,-0x878(%rbp)
    9262:	48 8d 05 87 9e 00 00 	lea    0x9e87(%rip),%rax        # 130f0 <g_690>
    9269:	48 89 85 90 f7 ff ff 	mov    %rax,-0x870(%rbp)
    9270:	48 8d 85 f4 f3 ff ff 	lea    -0xc0c(%rbp),%rax
    9277:	48 83 c0 08          	add    $0x8,%rax
    927b:	48 89 85 98 f7 ff ff 	mov    %rax,-0x868(%rbp)
    9282:	48 8d 85 f4 f3 ff ff 	lea    -0xc0c(%rbp),%rax
    9289:	48 83 c0 04          	add    $0x4,%rax
    928d:	48 89 85 a0 f7 ff ff 	mov    %rax,-0x860(%rbp)
    9294:	48 8d 85 f4 f3 ff ff 	lea    -0xc0c(%rbp),%rax
    929b:	48 83 c0 04          	add    $0x4,%rax
    929f:	48 89 85 a8 f7 ff ff 	mov    %rax,-0x858(%rbp)
    92a6:	48 8d 85 f4 f3 ff ff 	lea    -0xc0c(%rbp),%rax
    92ad:	48 83 c0 08          	add    $0x8,%rax
    92b1:	48 89 85 b0 f7 ff ff 	mov    %rax,-0x850(%rbp)
    92b8:	48 8d 05 31 9e 00 00 	lea    0x9e31(%rip),%rax        # 130f0 <g_690>
    92bf:	48 89 85 b8 f7 ff ff 	mov    %rax,-0x848(%rbp)
    92c6:	48 8d 85 f4 f3 ff ff 	lea    -0xc0c(%rbp),%rax
    92cd:	48 83 c0 08          	add    $0x8,%rax
    92d1:	48 89 85 c0 f7 ff ff 	mov    %rax,-0x840(%rbp)
    92d8:	48 c7 85 c8 f7 ff ff 	movq   $0x0,-0x838(%rbp)
    92df:	00 00 00 00 
    92e3:	48 8d 05 06 9e 00 00 	lea    0x9e06(%rip),%rax        # 130f0 <g_690>
    92ea:	48 89 85 d0 f7 ff ff 	mov    %rax,-0x830(%rbp)
    92f1:	48 8d 05 f8 9d 00 00 	lea    0x9df8(%rip),%rax        # 130f0 <g_690>
    92f8:	48 89 85 d8 f7 ff ff 	mov    %rax,-0x828(%rbp)
    92ff:	48 8d 05 ea 9d 00 00 	lea    0x9dea(%rip),%rax        # 130f0 <g_690>
    9306:	48 89 85 e0 f7 ff ff 	mov    %rax,-0x820(%rbp)
    930d:	48 c7 85 e8 f7 ff ff 	movq   $0x0,-0x818(%rbp)
    9314:	00 00 00 00 
    9318:	48 8d 05 d1 9d 00 00 	lea    0x9dd1(%rip),%rax        # 130f0 <g_690>
    931f:	48 89 85 f0 f7 ff ff 	mov    %rax,-0x810(%rbp)
    9326:	48 8d 05 c3 9d 00 00 	lea    0x9dc3(%rip),%rax        # 130f0 <g_690>
    932d:	48 89 85 f8 f7 ff ff 	mov    %rax,-0x808(%rbp)
    9334:	48 c7 85 00 f8 ff ff 	movq   $0x0,-0x800(%rbp)
    933b:	00 00 00 00 
    933f:	48 8d 05 aa 9d 00 00 	lea    0x9daa(%rip),%rax        # 130f0 <g_690>
    9346:	48 89 85 08 f8 ff ff 	mov    %rax,-0x7f8(%rbp)
    934d:	48 8d 85 f0 f6 ff ff 	lea    -0x910(%rbp),%rax
    9354:	48 05 a0 00 00 00    	add    $0xa0,%rax
    935a:	48 89 85 80 f1 ff ff 	mov    %rax,-0xe80(%rbp)
    9361:	48 8d 85 80 f1 ff ff 	lea    -0xe80(%rbp),%rax
    9368:	48 89 85 88 f1 ff ff 	mov    %rax,-0xe78(%rbp)
    936f:	c7 85 e0 f0 ff ff fd 	movl   $0xfffffffd,-0xf20(%rbp)
    9376:	ff ff ff 
    9379:	48 b8 61 fd c7 59 9a 	movabs $0x2f8efb9a59c7fd61,%rax
    9380:	fb 8e 2f 
    9383:	48 89 85 90 f1 ff ff 	mov    %rax,-0xe70(%rbp)
    938a:	48 8d 85 38 f1 ff ff 	lea    -0xec8(%rbp),%rax
    9391:	48 89 85 80 f5 ff ff 	mov    %rax,-0xa80(%rbp)
    9398:	48 8d 85 38 f1 ff ff 	lea    -0xec8(%rbp),%rax
    939f:	48 89 85 88 f5 ff ff 	mov    %rax,-0xa78(%rbp)
    93a6:	48 8d 85 38 f1 ff ff 	lea    -0xec8(%rbp),%rax
    93ad:	48 89 85 90 f5 ff ff 	mov    %rax,-0xa70(%rbp)
    93b4:	48 8d 85 38 f1 ff ff 	lea    -0xec8(%rbp),%rax
    93bb:	48 89 85 98 f5 ff ff 	mov    %rax,-0xa68(%rbp)
    93c2:	48 8d 85 38 f1 ff ff 	lea    -0xec8(%rbp),%rax
    93c9:	48 89 85 a0 f5 ff ff 	mov    %rax,-0xa60(%rbp)
    93d0:	48 8d 85 38 f1 ff ff 	lea    -0xec8(%rbp),%rax
    93d7:	48 89 85 a8 f5 ff ff 	mov    %rax,-0xa58(%rbp)
    93de:	48 8d 85 38 f1 ff ff 	lea    -0xec8(%rbp),%rax
    93e5:	48 89 85 b0 f5 ff ff 	mov    %rax,-0xa50(%rbp)
    93ec:	48 8d 85 38 f1 ff ff 	lea    -0xec8(%rbp),%rax
    93f3:	48 89 85 b8 f5 ff ff 	mov    %rax,-0xa48(%rbp)
    93fa:	48 8d 85 38 f1 ff ff 	lea    -0xec8(%rbp),%rax
    9401:	48 89 85 c0 f5 ff ff 	mov    %rax,-0xa40(%rbp)
    9408:	48 8d 85 38 f1 ff ff 	lea    -0xec8(%rbp),%rax
    940f:	48 89 85 c8 f5 ff ff 	mov    %rax,-0xa38(%rbp)
    9416:	48 8d 85 38 f1 ff ff 	lea    -0xec8(%rbp),%rax
    941d:	48 89 85 d0 f5 ff ff 	mov    %rax,-0xa30(%rbp)
    9424:	48 8d 85 38 f1 ff ff 	lea    -0xec8(%rbp),%rax
    942b:	48 89 85 d8 f5 ff ff 	mov    %rax,-0xa28(%rbp)
    9432:	48 8d 85 38 f1 ff ff 	lea    -0xec8(%rbp),%rax
    9439:	48 89 85 e0 f5 ff ff 	mov    %rax,-0xa20(%rbp)
    9440:	48 8d 85 38 f1 ff ff 	lea    -0xec8(%rbp),%rax
    9447:	48 89 85 e8 f5 ff ff 	mov    %rax,-0xa18(%rbp)
    944e:	48 8d 85 38 f1 ff ff 	lea    -0xec8(%rbp),%rax
    9455:	48 89 85 f0 f5 ff ff 	mov    %rax,-0xa10(%rbp)
    945c:	48 8d 85 38 f1 ff ff 	lea    -0xec8(%rbp),%rax
    9463:	48 89 85 f8 f5 ff ff 	mov    %rax,-0xa08(%rbp)
    946a:	48 8d 85 38 f1 ff ff 	lea    -0xec8(%rbp),%rax
    9471:	48 89 85 00 f6 ff ff 	mov    %rax,-0xa00(%rbp)
    9478:	48 8d 85 38 f1 ff ff 	lea    -0xec8(%rbp),%rax
    947f:	48 89 85 08 f6 ff ff 	mov    %rax,-0x9f8(%rbp)
    9486:	48 8d 85 38 f1 ff ff 	lea    -0xec8(%rbp),%rax
    948d:	48 89 85 10 f6 ff ff 	mov    %rax,-0x9f0(%rbp)
    9494:	48 8d 85 38 f1 ff ff 	lea    -0xec8(%rbp),%rax
    949b:	48 89 85 18 f6 ff ff 	mov    %rax,-0x9e8(%rbp)
    94a2:	48 8d 85 38 f1 ff ff 	lea    -0xec8(%rbp),%rax
    94a9:	48 89 85 20 f6 ff ff 	mov    %rax,-0x9e0(%rbp)
    94b0:	48 8d 05 79 9b 00 00 	lea    0x9b79(%rip),%rax        # 13030 <g_48>
    94b7:	48 89 85 98 f2 ff ff 	mov    %rax,-0xd68(%rbp)
    94be:	c7 85 b4 f0 ff ff fc 	movl   $0xfffffffc,-0xf4c(%rbp)
    94c5:	ff ff ff 
    94c8:	8b 85 08 f4 ff ff    	mov    -0xbf8(%rbp),%eax
    94ce:	0f b6 d8             	movzbl %al,%ebx
    94d1:	8b 85 28 f0 ff ff    	mov    -0xfd8(%rbp),%eax
    94d7:	0f b6 c0             	movzbl %al,%eax
    94da:	be 06 00 00 00       	mov    $0x6,%esi
    94df:	89 c7                	mov    %eax,%edi
    94e1:	e8 1f c7 ff ff       	callq  5c05 <safe_lshift_func_uint8_t_u_s>
    94e6:	0f b6 c0             	movzbl %al,%eax
    94e9:	ba 00 00 00 00       	mov    $0x0,%edx
    94ee:	39 c2                	cmp    %eax,%edx
    94f0:	0f 9e c2             	setle  %dl
    94f3:	48 8b 05 66 ae 00 00 	mov    0xae66(%rip),%rax        # 14360 <g_273>
    94fa:	88 10                	mov    %dl,(%rax)
    94fc:	bf 00 00 00 00       	mov    $0x0,%edi
    9501:	e8 90 c0 ff ff       	callq  5596 <safe_unary_minus_func_int32_t_s>
    9506:	83 f8 01             	cmp    $0x1,%eax
    9509:	0f 94 c2             	sete   %dl
    950c:	48 8b 85 40 f1 ff ff 	mov    -0xec0(%rbp),%rax
    9513:	88 10                	mov    %dl,(%rax)
    9515:	0f b6 00             	movzbl (%rax),%eax
    9518:	0f b6 15 ad 9b 00 00 	movzbl 0x9bad(%rip),%edx        # 130cc <g_551>
    951f:	31 d0                	xor    %edx,%eax
    9521:	0f b6 c0             	movzbl %al,%eax
    9524:	89 de                	mov    %ebx,%esi
    9526:	89 c7                	mov    %eax,%edi
    9528:	e8 81 c6 ff ff       	callq  5bae <safe_mod_func_uint8_t_u_u>
    952d:	0f b6 c0             	movzbl %al,%eax
    9530:	83 e0 13             	and    $0x13,%eax
    9533:	be 09 00 00 00       	mov    $0x9,%esi
    9538:	89 c7                	mov    %eax,%edi
    953a:	e8 09 c9 ff ff       	callq  5e48 <safe_rshift_func_uint16_t_u_s>
    953f:	8b 15 8b 9f 00 00    	mov    0x9f8b(%rip),%edx        # 134d0 <g_1269>
    9545:	48 8b 95 a8 f1 ff ff 	mov    -0xe58(%rbp),%rdx
    954c:	48 8b 12             	mov    (%rdx),%rdx
    954f:	0f b7 c0             	movzwl %ax,%eax
    9552:	48 31 c2             	xor    %rax,%rdx
    9555:	48 8b 85 a8 f1 ff ff 	mov    -0xe58(%rbp),%rax
    955c:	48 89 10             	mov    %rdx,(%rax)
    955f:	8b 85 08 f4 ff ff    	mov    -0xbf8(%rbp),%eax
    9565:	89 85 74 f0 ff ff    	mov    %eax,-0xf8c(%rbp)
    956b:	be 00 00 00 00       	mov    $0x0,%esi
    9570:	bf fc 00 00 00       	mov    $0xfc,%edi
    9575:	e8 19 c6 ff ff       	callq  5b93 <safe_mul_func_uint8_t_u_u>
    957a:	84 c0                	test   %al,%al
    957c:	0f 84 bf 00 00 00    	je     9641 <func_30+0x1b9c>
    9582:	48 c7 85 98 f1 ff ff 	movq   $0x0,-0xe68(%rbp)
    9589:	00 00 00 00 
    958d:	48 8d 85 98 f1 ff ff 	lea    -0xe68(%rbp),%rax
    9594:	48 89 85 20 f3 ff ff 	mov    %rax,-0xce0(%rbp)
    959b:	48 83 bd 20 f3 ff ff 	cmpq   $0x0,-0xce0(%rbp)
    95a2:	00 
    95a3:	0f 95 c2             	setne  %dl
    95a6:	48 8b 05 43 b0 00 00 	mov    0xb043(%rip),%rax        # 145f0 <g_435>
    95ad:	0f b6 d2             	movzbl %dl,%edx
    95b0:	89 10                	mov    %edx,(%rax)
    95b2:	48 8b 05 e7 b0 00 00 	mov    0xb0e7(%rip),%rax        # 146a0 <g_1225>
    95b9:	8b 95 68 f0 ff ff    	mov    -0xf98(%rbp),%edx
    95bf:	89 10                	mov    %edx,(%rax)
    95c1:	8b 00                	mov    (%rax),%eax
    95c3:	85 c0                	test   %eax,%eax
    95c5:	74 0f                	je     95d6 <func_30+0x1b31>
    95c7:	48 8b 05 62 b0 00 00 	mov    0xb062(%rip),%rax        # 14630 <g_764>
    95ce:	48 8b 00             	mov    (%rax),%rax
    95d1:	e9 3e 2b 00 00       	jmpq   c114 <func_30+0x466f>
    95d6:	48 c7 85 28 f3 ff ff 	movq   $0x0,-0xcd8(%rbp)
    95dd:	00 00 00 00 
    95e1:	48 8d 05 d8 b0 00 00 	lea    0xb0d8(%rip),%rax        # 146c0 <g_1288>
    95e8:	48 89 85 30 f3 ff ff 	mov    %rax,-0xcd0(%rbp)
    95ef:	48 8d 05 aa b0 00 00 	lea    0xb0aa(%rip),%rax        # 146a0 <g_1225>
    95f6:	48 89 85 38 f3 ff ff 	mov    %rax,-0xcc8(%rbp)
    95fd:	48 8b 85 30 f3 ff ff 	mov    -0xcd0(%rbp),%rax
    9604:	48 8b 95 80 f2 ff ff 	mov    -0xd80(%rbp),%rdx
    960b:	48 89 10             	mov    %rdx,(%rax)
    960e:	48 8b 05 1b b0 00 00 	mov    0xb01b(%rip),%rax        # 14630 <g_764>
    9615:	48 8b 00             	mov    (%rax),%rax
    9618:	48 89 c7             	mov    %rax,%rdi
    961b:	e8 1a 2b 00 00       	callq  c13a <func_35>
    9620:	48 89 c7             	mov    %rax,%rdi
    9623:	e8 12 2b 00 00       	callq  c13a <func_35>
    9628:	48 8b 95 38 f3 ff ff 	mov    -0xcc8(%rbp),%rdx
    962f:	48 89 02             	mov    %rax,(%rdx)
    9632:	48 8b 05 ef af 00 00 	mov    0xafef(%rip),%rax        # 14628 <g_686>
    9639:	48 8b 00             	mov    (%rax),%rax
    963c:	e9 d3 2a 00 00       	jmpq   c114 <func_30+0x466f>
    9641:	66 c7 85 58 f0 ff ff 	movw   $0x620a,-0xfa8(%rbp)
    9648:	0a 62 
    964a:	48 8d 05 ff 99 00 00 	lea    0x99ff(%rip),%rax        # 13050 <g_131>
    9651:	48 89 85 f0 f8 ff ff 	mov    %rax,-0x710(%rbp)
    9658:	48 8d 05 d5 9d 00 00 	lea    0x9dd5(%rip),%rax        # 13434 <g_896>
    965f:	48 89 85 f8 f8 ff ff 	mov    %rax,-0x708(%rbp)
    9666:	48 8d 85 50 f0 ff ff 	lea    -0xfb0(%rbp),%rax
    966d:	48 89 85 00 f9 ff ff 	mov    %rax,-0x700(%rbp)
    9674:	48 8d 85 50 f0 ff ff 	lea    -0xfb0(%rbp),%rax
    967b:	48 89 85 08 f9 ff ff 	mov    %rax,-0x6f8(%rbp)
    9682:	48 8d 85 4e f0 ff ff 	lea    -0xfb2(%rbp),%rax
    9689:	48 89 85 10 f9 ff ff 	mov    %rax,-0x6f0(%rbp)
    9690:	48 8d 05 b9 99 00 00 	lea    0x99b9(%rip),%rax        # 13050 <g_131>
    9697:	48 89 85 18 f9 ff ff 	mov    %rax,-0x6e8(%rbp)
    969e:	48 c7 85 20 f9 ff ff 	movq   $0x0,-0x6e0(%rbp)
    96a5:	00 00 00 00 
    96a9:	48 c7 85 28 f9 ff ff 	movq   $0x0,-0x6d8(%rbp)
    96b0:	00 00 00 00 
    96b4:	48 c7 85 30 f9 ff ff 	movq   $0x0,-0x6d0(%rbp)
    96bb:	00 00 00 00 
    96bf:	48 8d 85 50 f0 ff ff 	lea    -0xfb0(%rbp),%rax
    96c6:	48 89 85 38 f9 ff ff 	mov    %rax,-0x6c8(%rbp)
    96cd:	48 8d 05 7c 99 00 00 	lea    0x997c(%rip),%rax        # 13050 <g_131>
    96d4:	48 89 85 40 f9 ff ff 	mov    %rax,-0x6c0(%rbp)
    96db:	48 8d 05 52 9d 00 00 	lea    0x9d52(%rip),%rax        # 13434 <g_896>
    96e2:	48 89 85 48 f9 ff ff 	mov    %rax,-0x6b8(%rbp)
    96e9:	48 8d 85 50 f0 ff ff 	lea    -0xfb0(%rbp),%rax
    96f0:	48 89 85 50 f9 ff ff 	mov    %rax,-0x6b0(%rbp)
    96f7:	48 8d 05 36 9d 00 00 	lea    0x9d36(%rip),%rax        # 13434 <g_896>
    96fe:	48 89 85 58 f9 ff ff 	mov    %rax,-0x6a8(%rbp)
    9705:	48 c7 85 60 f9 ff ff 	movq   $0x0,-0x6a0(%rbp)
    970c:	00 00 00 00 
    9710:	48 8d 05 39 99 00 00 	lea    0x9939(%rip),%rax        # 13050 <g_131>
    9717:	48 89 85 68 f9 ff ff 	mov    %rax,-0x698(%rbp)
    971e:	48 8d 85 4e f0 ff ff 	lea    -0xfb2(%rbp),%rax
    9725:	48 89 85 70 f9 ff ff 	mov    %rax,-0x690(%rbp)
    972c:	48 c7 85 78 f9 ff ff 	movq   $0x0,-0x688(%rbp)
    9733:	00 00 00 00 
    9737:	48 8d 85 50 f0 ff ff 	lea    -0xfb0(%rbp),%rax
    973e:	48 89 85 80 f9 ff ff 	mov    %rax,-0x680(%rbp)
    9745:	48 8d 05 04 99 00 00 	lea    0x9904(%rip),%rax        # 13050 <g_131>
    974c:	48 89 85 88 f9 ff ff 	mov    %rax,-0x678(%rbp)
    9753:	48 c7 85 90 f9 ff ff 	movq   $0x0,-0x670(%rbp)
    975a:	00 00 00 00 
    975e:	48 8d 05 eb 98 00 00 	lea    0x98eb(%rip),%rax        # 13050 <g_131>
    9765:	48 89 85 98 f9 ff ff 	mov    %rax,-0x668(%rbp)
    976c:	48 8d 85 50 f0 ff ff 	lea    -0xfb0(%rbp),%rax
    9773:	48 89 85 a0 f9 ff ff 	mov    %rax,-0x660(%rbp)
    977a:	48 c7 85 a8 f9 ff ff 	movq   $0x0,-0x658(%rbp)
    9781:	00 00 00 00 
    9785:	48 c7 85 b0 f9 ff ff 	movq   $0x0,-0x650(%rbp)
    978c:	00 00 00 00 
    9790:	48 8d 85 50 f0 ff ff 	lea    -0xfb0(%rbp),%rax
    9797:	48 89 85 b8 f9 ff ff 	mov    %rax,-0x648(%rbp)
    979e:	48 8d 05 8f 9c 00 00 	lea    0x9c8f(%rip),%rax        # 13434 <g_896>
    97a5:	48 89 85 c0 f9 ff ff 	mov    %rax,-0x640(%rbp)
    97ac:	48 8d 85 50 f0 ff ff 	lea    -0xfb0(%rbp),%rax
    97b3:	48 89 85 c8 f9 ff ff 	mov    %rax,-0x638(%rbp)
    97ba:	48 8d 85 50 f0 ff ff 	lea    -0xfb0(%rbp),%rax
    97c1:	48 89 85 d0 f9 ff ff 	mov    %rax,-0x630(%rbp)
    97c8:	48 c7 85 d8 f9 ff ff 	movq   $0x0,-0x628(%rbp)
    97cf:	00 00 00 00 
    97d3:	48 8d 85 4e f0 ff ff 	lea    -0xfb2(%rbp),%rax
    97da:	48 89 85 e0 f9 ff ff 	mov    %rax,-0x620(%rbp)
    97e1:	48 8d 05 68 98 00 00 	lea    0x9868(%rip),%rax        # 13050 <g_131>
    97e8:	48 89 85 e8 f9 ff ff 	mov    %rax,-0x618(%rbp)
    97ef:	48 8d 05 5a 98 00 00 	lea    0x985a(%rip),%rax        # 13050 <g_131>
    97f6:	48 89 85 f0 f9 ff ff 	mov    %rax,-0x610(%rbp)
    97fd:	48 8d 05 30 9c 00 00 	lea    0x9c30(%rip),%rax        # 13434 <g_896>
    9804:	48 89 85 f8 f9 ff ff 	mov    %rax,-0x608(%rbp)
    980b:	48 8d 85 50 f0 ff ff 	lea    -0xfb0(%rbp),%rax
    9812:	48 89 85 00 fa ff ff 	mov    %rax,-0x600(%rbp)
    9819:	48 8d 85 50 f0 ff ff 	lea    -0xfb0(%rbp),%rax
    9820:	48 89 85 08 fa ff ff 	mov    %rax,-0x5f8(%rbp)
    9827:	48 8d 85 4e f0 ff ff 	lea    -0xfb2(%rbp),%rax
    982e:	48 89 85 10 fa ff ff 	mov    %rax,-0x5f0(%rbp)
    9835:	48 8d 85 50 f0 ff ff 	lea    -0xfb0(%rbp),%rax
    983c:	48 89 85 18 fa ff ff 	mov    %rax,-0x5e8(%rbp)
    9843:	48 c7 85 20 fa ff ff 	movq   $0x0,-0x5e0(%rbp)
    984a:	00 00 00 00 
    984e:	48 8d 85 50 f0 ff ff 	lea    -0xfb0(%rbp),%rax
    9855:	48 89 85 28 fa ff ff 	mov    %rax,-0x5d8(%rbp)
    985c:	48 c7 85 30 fa ff ff 	movq   $0x0,-0x5d0(%rbp)
    9863:	00 00 00 00 
    9867:	48 8d 85 50 f0 ff ff 	lea    -0xfb0(%rbp),%rax
    986e:	48 89 85 38 fa ff ff 	mov    %rax,-0x5c8(%rbp)
    9875:	48 8d 85 50 f0 ff ff 	lea    -0xfb0(%rbp),%rax
    987c:	48 89 85 40 fa ff ff 	mov    %rax,-0x5c0(%rbp)
    9883:	48 8d 05 aa 9b 00 00 	lea    0x9baa(%rip),%rax        # 13434 <g_896>
    988a:	48 89 85 48 fa ff ff 	mov    %rax,-0x5b8(%rbp)
    9891:	48 8d 85 50 f0 ff ff 	lea    -0xfb0(%rbp),%rax
    9898:	48 89 85 50 fa ff ff 	mov    %rax,-0x5b0(%rbp)
    989f:	48 c7 85 58 fa ff ff 	movq   $0x0,-0x5a8(%rbp)
    98a6:	00 00 00 00 
    98aa:	48 8d 85 4e f0 ff ff 	lea    -0xfb2(%rbp),%rax
    98b1:	48 89 85 60 fa ff ff 	mov    %rax,-0x5a0(%rbp)
    98b8:	48 8d 05 91 97 00 00 	lea    0x9791(%rip),%rax        # 13050 <g_131>
    98bf:	48 89 85 68 fa ff ff 	mov    %rax,-0x598(%rbp)
    98c6:	48 c7 85 70 fa ff ff 	movq   $0x0,-0x590(%rbp)
    98cd:	00 00 00 00 
    98d1:	48 8d 05 5c 9b 00 00 	lea    0x9b5c(%rip),%rax        # 13434 <g_896>
    98d8:	48 89 85 78 fa ff ff 	mov    %rax,-0x588(%rbp)
    98df:	48 8d 85 50 f0 ff ff 	lea    -0xfb0(%rbp),%rax
    98e6:	48 89 85 80 fa ff ff 	mov    %rax,-0x580(%rbp)
    98ed:	48 8d 85 4e f0 ff ff 	lea    -0xfb2(%rbp),%rax
    98f4:	48 89 85 88 fa ff ff 	mov    %rax,-0x578(%rbp)
    98fb:	48 8d 85 50 f0 ff ff 	lea    -0xfb0(%rbp),%rax
    9902:	48 89 85 90 fa ff ff 	mov    %rax,-0x570(%rbp)
    9909:	48 8d 05 40 97 00 00 	lea    0x9740(%rip),%rax        # 13050 <g_131>
    9910:	48 89 85 98 fa ff ff 	mov    %rax,-0x568(%rbp)
    9917:	48 c7 85 a0 fa ff ff 	movq   $0x0,-0x560(%rbp)
    991e:	00 00 00 00 
    9922:	48 8d 85 50 f0 ff ff 	lea    -0xfb0(%rbp),%rax
    9929:	48 89 85 a8 fa ff ff 	mov    %rax,-0x558(%rbp)
    9930:	48 8d 85 50 f0 ff ff 	lea    -0xfb0(%rbp),%rax
    9937:	48 89 85 b0 fa ff ff 	mov    %rax,-0x550(%rbp)
    993e:	48 8d 85 50 f0 ff ff 	lea    -0xfb0(%rbp),%rax
    9945:	48 89 85 b8 fa ff ff 	mov    %rax,-0x548(%rbp)
    994c:	48 8d 85 4e f0 ff ff 	lea    -0xfb2(%rbp),%rax
    9953:	48 89 85 c0 fa ff ff 	mov    %rax,-0x540(%rbp)
    995a:	48 8d 85 50 f0 ff ff 	lea    -0xfb0(%rbp),%rax
    9961:	48 89 85 c8 fa ff ff 	mov    %rax,-0x538(%rbp)
    9968:	48 c7 85 d0 fa ff ff 	movq   $0x0,-0x530(%rbp)
    996f:	00 00 00 00 
    9973:	48 8d 85 50 f0 ff ff 	lea    -0xfb0(%rbp),%rax
    997a:	48 89 85 d8 fa ff ff 	mov    %rax,-0x528(%rbp)
    9981:	48 8d 85 4e f0 ff ff 	lea    -0xfb2(%rbp),%rax
    9988:	48 89 85 e0 fa ff ff 	mov    %rax,-0x520(%rbp)
    998f:	48 c7 85 e8 fa ff ff 	movq   $0x0,-0x518(%rbp)
    9996:	00 00 00 00 
    999a:	48 c7 85 f0 fa ff ff 	movq   $0x0,-0x510(%rbp)
    99a1:	00 00 00 00 
    99a5:	48 8d 85 50 f0 ff ff 	lea    -0xfb0(%rbp),%rax
    99ac:	48 89 85 f8 fa ff ff 	mov    %rax,-0x508(%rbp)
    99b3:	48 c7 85 00 fb ff ff 	movq   $0x0,-0x500(%rbp)
    99ba:	00 00 00 00 
    99be:	48 c7 85 08 fb ff ff 	movq   $0x0,-0x4f8(%rbp)
    99c5:	00 00 00 00 
    99c9:	48 8d 85 50 f0 ff ff 	lea    -0xfb0(%rbp),%rax
    99d0:	48 89 85 10 fb ff ff 	mov    %rax,-0x4f0(%rbp)
    99d7:	48 8d 85 50 f0 ff ff 	lea    -0xfb0(%rbp),%rax
    99de:	48 89 85 18 fb ff ff 	mov    %rax,-0x4e8(%rbp)
    99e5:	48 8d 85 50 f0 ff ff 	lea    -0xfb0(%rbp),%rax
    99ec:	48 89 85 20 fb ff ff 	mov    %rax,-0x4e0(%rbp)
    99f3:	48 c7 85 28 fb ff ff 	movq   $0x0,-0x4d8(%rbp)
    99fa:	00 00 00 00 
    99fe:	48 8d 85 4e f0 ff ff 	lea    -0xfb2(%rbp),%rax
    9a05:	48 89 85 30 fb ff ff 	mov    %rax,-0x4d0(%rbp)
    9a0c:	48 8d 05 3d 96 00 00 	lea    0x963d(%rip),%rax        # 13050 <g_131>
    9a13:	48 89 85 38 fb ff ff 	mov    %rax,-0x4c8(%rbp)
    9a1a:	48 8d 85 50 f0 ff ff 	lea    -0xfb0(%rbp),%rax
    9a21:	48 89 85 40 fb ff ff 	mov    %rax,-0x4c0(%rbp)
    9a28:	48 8d 85 4e f0 ff ff 	lea    -0xfb2(%rbp),%rax
    9a2f:	48 89 85 48 fb ff ff 	mov    %rax,-0x4b8(%rbp)
    9a36:	48 8d 85 50 f0 ff ff 	lea    -0xfb0(%rbp),%rax
    9a3d:	48 89 85 50 fb ff ff 	mov    %rax,-0x4b0(%rbp)
    9a44:	48 c7 85 58 fb ff ff 	movq   $0x0,-0x4a8(%rbp)
    9a4b:	00 00 00 00 
    9a4f:	48 8d 85 50 f0 ff ff 	lea    -0xfb0(%rbp),%rax
    9a56:	48 89 85 60 fb ff ff 	mov    %rax,-0x4a0(%rbp)
    9a5d:	48 8d 85 50 f0 ff ff 	lea    -0xfb0(%rbp),%rax
    9a64:	48 89 85 68 fb ff ff 	mov    %rax,-0x498(%rbp)
    9a6b:	48 8d 05 de 95 00 00 	lea    0x95de(%rip),%rax        # 13050 <g_131>
    9a72:	48 89 85 70 fb ff ff 	mov    %rax,-0x490(%rbp)
    9a79:	48 c7 85 78 fb ff ff 	movq   $0x0,-0x488(%rbp)
    9a80:	00 00 00 00 
    9a84:	48 8d 05 c5 95 00 00 	lea    0x95c5(%rip),%rax        # 13050 <g_131>
    9a8b:	48 89 85 80 fb ff ff 	mov    %rax,-0x480(%rbp)
    9a92:	48 8d 05 b7 95 00 00 	lea    0x95b7(%rip),%rax        # 13050 <g_131>
    9a99:	48 89 85 88 fb ff ff 	mov    %rax,-0x478(%rbp)
    9aa0:	48 c7 85 90 fb ff ff 	movq   $0x0,-0x470(%rbp)
    9aa7:	00 00 00 00 
    9aab:	48 8d 85 50 f0 ff ff 	lea    -0xfb0(%rbp),%rax
    9ab2:	48 89 85 98 fb ff ff 	mov    %rax,-0x468(%rbp)
    9ab9:	48 c7 85 a0 fb ff ff 	movq   $0x0,-0x460(%rbp)
    9ac0:	00 00 00 00 
    9ac4:	48 c7 85 a8 fb ff ff 	movq   $0x0,-0x458(%rbp)
    9acb:	00 00 00 00 
    9acf:	48 8d 85 4e f0 ff ff 	lea    -0xfb2(%rbp),%rax
    9ad6:	48 89 85 b0 fb ff ff 	mov    %rax,-0x450(%rbp)
    9add:	48 8d 05 6c 95 00 00 	lea    0x956c(%rip),%rax        # 13050 <g_131>
    9ae4:	48 89 85 b8 fb ff ff 	mov    %rax,-0x448(%rbp)
    9aeb:	48 8d 85 50 f0 ff ff 	lea    -0xfb0(%rbp),%rax
    9af2:	48 89 85 c0 fb ff ff 	mov    %rax,-0x440(%rbp)
    9af9:	48 8d 85 50 f0 ff ff 	lea    -0xfb0(%rbp),%rax
    9b00:	48 89 85 c8 fb ff ff 	mov    %rax,-0x438(%rbp)
    9b07:	48 c7 85 d0 fb ff ff 	movq   $0x0,-0x430(%rbp)
    9b0e:	00 00 00 00 
    9b12:	48 c7 85 d8 fb ff ff 	movq   $0x0,-0x428(%rbp)
    9b19:	00 00 00 00 
    9b1d:	48 c7 85 e0 fb ff ff 	movq   $0x0,-0x420(%rbp)
    9b24:	00 00 00 00 
    9b28:	48 8d 85 4e f0 ff ff 	lea    -0xfb2(%rbp),%rax
    9b2f:	48 89 85 e8 fb ff ff 	mov    %rax,-0x418(%rbp)
    9b36:	48 8d 85 4e f0 ff ff 	lea    -0xfb2(%rbp),%rax
    9b3d:	48 89 85 f0 fb ff ff 	mov    %rax,-0x410(%rbp)
    9b44:	48 8d 05 e9 98 00 00 	lea    0x98e9(%rip),%rax        # 13434 <g_896>
    9b4b:	48 89 85 f8 fb ff ff 	mov    %rax,-0x408(%rbp)
    9b52:	48 8d 85 50 f0 ff ff 	lea    -0xfb0(%rbp),%rax
    9b59:	48 89 85 00 fc ff ff 	mov    %rax,-0x400(%rbp)
    9b60:	48 c7 85 08 fc ff ff 	movq   $0x0,-0x3f8(%rbp)
    9b67:	00 00 00 00 
    9b6b:	48 c7 85 10 fc ff ff 	movq   $0x0,-0x3f0(%rbp)
    9b72:	00 00 00 00 
    9b76:	48 8d 85 50 f0 ff ff 	lea    -0xfb0(%rbp),%rax
    9b7d:	48 89 85 18 fc ff ff 	mov    %rax,-0x3e8(%rbp)
    9b84:	48 c7 85 20 fc ff ff 	movq   $0x0,-0x3e0(%rbp)
    9b8b:	00 00 00 00 
    9b8f:	48 8d 85 4e f0 ff ff 	lea    -0xfb2(%rbp),%rax
    9b96:	48 89 85 28 fc ff ff 	mov    %rax,-0x3d8(%rbp)
    9b9d:	48 8d 85 50 f0 ff ff 	lea    -0xfb0(%rbp),%rax
    9ba4:	48 89 85 30 fc ff ff 	mov    %rax,-0x3d0(%rbp)
    9bab:	48 8d 85 4e f0 ff ff 	lea    -0xfb2(%rbp),%rax
    9bb2:	48 89 85 38 fc ff ff 	mov    %rax,-0x3c8(%rbp)
    9bb9:	48 8d 05 90 94 00 00 	lea    0x9490(%rip),%rax        # 13050 <g_131>
    9bc0:	48 89 85 40 fc ff ff 	mov    %rax,-0x3c0(%rbp)
    9bc7:	48 8d 85 4e f0 ff ff 	lea    -0xfb2(%rbp),%rax
    9bce:	48 89 85 48 fc ff ff 	mov    %rax,-0x3b8(%rbp)
    9bd5:	48 c7 85 50 fc ff ff 	movq   $0x0,-0x3b0(%rbp)
    9bdc:	00 00 00 00 
    9be0:	48 8d 05 4d 98 00 00 	lea    0x984d(%rip),%rax        # 13434 <g_896>
    9be7:	48 89 85 58 fc ff ff 	mov    %rax,-0x3a8(%rbp)
    9bee:	48 c7 85 60 fc ff ff 	movq   $0x0,-0x3a0(%rbp)
    9bf5:	00 00 00 00 
    9bf9:	48 8d 05 50 94 00 00 	lea    0x9450(%rip),%rax        # 13050 <g_131>
    9c00:	48 89 85 68 fc ff ff 	mov    %rax,-0x398(%rbp)
    9c07:	48 8d 85 50 f0 ff ff 	lea    -0xfb0(%rbp),%rax
    9c0e:	48 89 85 70 fc ff ff 	mov    %rax,-0x390(%rbp)
    9c15:	48 8d 05 34 94 00 00 	lea    0x9434(%rip),%rax        # 13050 <g_131>
    9c1c:	48 89 85 78 fc ff ff 	mov    %rax,-0x388(%rbp)
    9c23:	48 c7 85 80 fc ff ff 	movq   $0x0,-0x380(%rbp)
    9c2a:	00 00 00 00 
    9c2e:	48 8d 05 1b 94 00 00 	lea    0x941b(%rip),%rax        # 13050 <g_131>
    9c35:	48 89 85 88 fc ff ff 	mov    %rax,-0x378(%rbp)
    9c3c:	48 c7 85 90 fc ff ff 	movq   $0x0,-0x370(%rbp)
    9c43:	00 00 00 00 
    9c47:	48 8d 05 e6 97 00 00 	lea    0x97e6(%rip),%rax        # 13434 <g_896>
    9c4e:	48 89 85 98 fc ff ff 	mov    %rax,-0x368(%rbp)
    9c55:	48 8d 05 f4 93 00 00 	lea    0x93f4(%rip),%rax        # 13050 <g_131>
    9c5c:	48 89 85 a0 fc ff ff 	mov    %rax,-0x360(%rbp)
    9c63:	48 8d 05 e6 93 00 00 	lea    0x93e6(%rip),%rax        # 13050 <g_131>
    9c6a:	48 89 85 a8 fc ff ff 	mov    %rax,-0x358(%rbp)
    9c71:	48 c7 85 b0 fc ff ff 	movq   $0x0,-0x350(%rbp)
    9c78:	00 00 00 00 
    9c7c:	48 8d 05 b1 97 00 00 	lea    0x97b1(%rip),%rax        # 13434 <g_896>
    9c83:	48 89 85 b8 fc ff ff 	mov    %rax,-0x348(%rbp)
    9c8a:	48 8d 05 bf 93 00 00 	lea    0x93bf(%rip),%rax        # 13050 <g_131>
    9c91:	48 89 85 c0 fc ff ff 	mov    %rax,-0x340(%rbp)
    9c98:	48 8d 85 50 f0 ff ff 	lea    -0xfb0(%rbp),%rax
    9c9f:	48 89 85 c8 fc ff ff 	mov    %rax,-0x338(%rbp)
    9ca6:	48 8d 85 4e f0 ff ff 	lea    -0xfb2(%rbp),%rax
    9cad:	48 89 85 d0 fc ff ff 	mov    %rax,-0x330(%rbp)
    9cb4:	48 c7 85 d8 fc ff ff 	movq   $0x0,-0x328(%rbp)
    9cbb:	00 00 00 00 
    9cbf:	48 8d 85 50 f0 ff ff 	lea    -0xfb0(%rbp),%rax
    9cc6:	48 89 85 e0 fc ff ff 	mov    %rax,-0x320(%rbp)
    9ccd:	48 8d 05 60 97 00 00 	lea    0x9760(%rip),%rax        # 13434 <g_896>
    9cd4:	48 89 85 e8 fc ff ff 	mov    %rax,-0x318(%rbp)
    9cdb:	48 8d 85 50 f0 ff ff 	lea    -0xfb0(%rbp),%rax
    9ce2:	48 89 85 f0 fc ff ff 	mov    %rax,-0x310(%rbp)
    9ce9:	48 c7 85 f8 fc ff ff 	movq   $0x0,-0x308(%rbp)
    9cf0:	00 00 00 00 
    9cf4:	48 8d 05 39 97 00 00 	lea    0x9739(%rip),%rax        # 13434 <g_896>
    9cfb:	48 89 85 00 fd ff ff 	mov    %rax,-0x300(%rbp)
    9d02:	48 c7 85 08 fd ff ff 	movq   $0x0,-0x2f8(%rbp)
    9d09:	00 00 00 00 
    9d0d:	48 8d 85 50 f0 ff ff 	lea    -0xfb0(%rbp),%rax
    9d14:	48 89 85 10 fd ff ff 	mov    %rax,-0x2f0(%rbp)
    9d1b:	48 8d 85 4e f0 ff ff 	lea    -0xfb2(%rbp),%rax
    9d22:	48 89 85 18 fd ff ff 	mov    %rax,-0x2e8(%rbp)
    9d29:	48 8d 85 50 f0 ff ff 	lea    -0xfb0(%rbp),%rax
    9d30:	48 89 85 20 fd ff ff 	mov    %rax,-0x2e0(%rbp)
    9d37:	48 c7 85 28 fd ff ff 	movq   $0x0,-0x2d8(%rbp)
    9d3e:	00 00 00 00 
    9d42:	48 8d 05 eb 96 00 00 	lea    0x96eb(%rip),%rax        # 13434 <g_896>
    9d49:	48 89 85 30 fd ff ff 	mov    %rax,-0x2d0(%rbp)
    9d50:	48 8d 85 50 f0 ff ff 	lea    -0xfb0(%rbp),%rax
    9d57:	48 89 85 38 fd ff ff 	mov    %rax,-0x2c8(%rbp)
    9d5e:	48 c7 85 40 fd ff ff 	movq   $0x0,-0x2c0(%rbp)
    9d65:	00 00 00 00 
    9d69:	48 8d 05 e0 92 00 00 	lea    0x92e0(%rip),%rax        # 13050 <g_131>
    9d70:	48 89 85 48 fd ff ff 	mov    %rax,-0x2b8(%rbp)
    9d77:	48 8d 85 4e f0 ff ff 	lea    -0xfb2(%rbp),%rax
    9d7e:	48 89 85 50 fd ff ff 	mov    %rax,-0x2b0(%rbp)
    9d85:	48 8d 85 50 f0 ff ff 	lea    -0xfb0(%rbp),%rax
    9d8c:	48 89 85 58 fd ff ff 	mov    %rax,-0x2a8(%rbp)
    9d93:	48 8d 05 b6 92 00 00 	lea    0x92b6(%rip),%rax        # 13050 <g_131>
    9d9a:	48 89 85 60 fd ff ff 	mov    %rax,-0x2a0(%rbp)
    9da1:	48 8d 85 50 f0 ff ff 	lea    -0xfb0(%rbp),%rax
    9da8:	48 89 85 68 fd ff ff 	mov    %rax,-0x298(%rbp)
    9daf:	48 8d 85 50 f0 ff ff 	lea    -0xfb0(%rbp),%rax
    9db6:	48 89 85 70 fd ff ff 	mov    %rax,-0x290(%rbp)
    9dbd:	48 8d 85 50 f0 ff ff 	lea    -0xfb0(%rbp),%rax
    9dc4:	48 89 85 78 fd ff ff 	mov    %rax,-0x288(%rbp)
    9dcb:	48 8d 85 50 f0 ff ff 	lea    -0xfb0(%rbp),%rax
    9dd2:	48 89 85 80 fd ff ff 	mov    %rax,-0x280(%rbp)
    9dd9:	48 8d 85 50 f0 ff ff 	lea    -0xfb0(%rbp),%rax
    9de0:	48 89 85 88 fd ff ff 	mov    %rax,-0x278(%rbp)
    9de7:	48 8d 05 46 96 00 00 	lea    0x9646(%rip),%rax        # 13434 <g_896>
    9dee:	48 89 85 90 fd ff ff 	mov    %rax,-0x270(%rbp)
    9df5:	48 8d 05 54 92 00 00 	lea    0x9254(%rip),%rax        # 13050 <g_131>
    9dfc:	48 89 85 98 fd ff ff 	mov    %rax,-0x268(%rbp)
    9e03:	48 8d 05 2a 96 00 00 	lea    0x962a(%rip),%rax        # 13434 <g_896>
    9e0a:	48 89 85 a0 fd ff ff 	mov    %rax,-0x260(%rbp)
    9e11:	48 8d 05 38 92 00 00 	lea    0x9238(%rip),%rax        # 13050 <g_131>
    9e18:	48 89 85 a8 fd ff ff 	mov    %rax,-0x258(%rbp)
    9e1f:	48 8d 85 50 f0 ff ff 	lea    -0xfb0(%rbp),%rax
    9e26:	48 89 85 b0 fd ff ff 	mov    %rax,-0x250(%rbp)
    9e2d:	48 c7 85 b8 fd ff ff 	movq   $0x0,-0x248(%rbp)
    9e34:	00 00 00 00 
    9e38:	48 8d 85 4e f0 ff ff 	lea    -0xfb2(%rbp),%rax
    9e3f:	48 89 85 c0 fd ff ff 	mov    %rax,-0x240(%rbp)
    9e46:	48 8d 05 03 92 00 00 	lea    0x9203(%rip),%rax        # 13050 <g_131>
    9e4d:	48 89 85 c8 fd ff ff 	mov    %rax,-0x238(%rbp)
    9e54:	48 8d 85 4e f0 ff ff 	lea    -0xfb2(%rbp),%rax
    9e5b:	48 89 85 d0 fd ff ff 	mov    %rax,-0x230(%rbp)
    9e62:	48 c7 85 d8 fd ff ff 	movq   $0x0,-0x228(%rbp)
    9e69:	00 00 00 00 
    9e6d:	48 8d 85 50 f0 ff ff 	lea    -0xfb0(%rbp),%rax
    9e74:	48 89 85 e0 fd ff ff 	mov    %rax,-0x220(%rbp)
    9e7b:	48 c7 85 e8 fd ff ff 	movq   $0x0,-0x218(%rbp)
    9e82:	00 00 00 00 
    9e86:	48 8d 05 a7 95 00 00 	lea    0x95a7(%rip),%rax        # 13434 <g_896>
    9e8d:	48 89 85 f0 fd ff ff 	mov    %rax,-0x210(%rbp)
    9e94:	48 c7 85 f8 fd ff ff 	movq   $0x0,-0x208(%rbp)
    9e9b:	00 00 00 00 
    9e9f:	48 8d 05 8e 95 00 00 	lea    0x958e(%rip),%rax        # 13434 <g_896>
    9ea6:	48 89 85 00 fe ff ff 	mov    %rax,-0x200(%rbp)
    9ead:	48 c7 85 08 fe ff ff 	movq   $0x0,-0x1f8(%rbp)
    9eb4:	00 00 00 00 
    9eb8:	48 8d 85 50 f0 ff ff 	lea    -0xfb0(%rbp),%rax
    9ebf:	48 89 85 10 fe ff ff 	mov    %rax,-0x1f0(%rbp)
    9ec6:	48 8d 85 50 f0 ff ff 	lea    -0xfb0(%rbp),%rax
    9ecd:	48 89 85 18 fe ff ff 	mov    %rax,-0x1e8(%rbp)
    9ed4:	48 8d 85 50 f0 ff ff 	lea    -0xfb0(%rbp),%rax
    9edb:	48 89 85 20 fe ff ff 	mov    %rax,-0x1e0(%rbp)
    9ee2:	48 8d 85 4e f0 ff ff 	lea    -0xfb2(%rbp),%rax
    9ee9:	48 89 85 28 fe ff ff 	mov    %rax,-0x1d8(%rbp)
    9ef0:	48 8d 85 50 f0 ff ff 	lea    -0xfb0(%rbp),%rax
    9ef7:	48 89 85 30 fe ff ff 	mov    %rax,-0x1d0(%rbp)
    9efe:	48 8d 85 4e f0 ff ff 	lea    -0xfb2(%rbp),%rax
    9f05:	48 89 85 38 fe ff ff 	mov    %rax,-0x1c8(%rbp)
    9f0c:	48 8d 85 50 f0 ff ff 	lea    -0xfb0(%rbp),%rax
    9f13:	48 89 85 40 fe ff ff 	mov    %rax,-0x1c0(%rbp)
    9f1a:	48 8d 85 50 f0 ff ff 	lea    -0xfb0(%rbp),%rax
    9f21:	48 89 85 48 fe ff ff 	mov    %rax,-0x1b8(%rbp)
    9f28:	48 8d 85 50 f0 ff ff 	lea    -0xfb0(%rbp),%rax
    9f2f:	48 89 85 50 fe ff ff 	mov    %rax,-0x1b0(%rbp)
    9f36:	48 8d 85 50 f0 ff ff 	lea    -0xfb0(%rbp),%rax
    9f3d:	48 89 85 58 fe ff ff 	mov    %rax,-0x1a8(%rbp)
    9f44:	48 c7 85 60 fe ff ff 	movq   $0x0,-0x1a0(%rbp)
    9f4b:	00 00 00 00 
    9f4f:	48 8d 05 fa 90 00 00 	lea    0x90fa(%rip),%rax        # 13050 <g_131>
    9f56:	48 89 85 68 fe ff ff 	mov    %rax,-0x198(%rbp)
    9f5d:	48 c7 85 70 fe ff ff 	movq   $0x0,-0x190(%rbp)
    9f64:	00 00 00 00 
    9f68:	48 c7 85 78 fe ff ff 	movq   $0x0,-0x188(%rbp)
    9f6f:	00 00 00 00 
    9f73:	48 8d 85 50 f0 ff ff 	lea    -0xfb0(%rbp),%rax
    9f7a:	48 89 85 80 fe ff ff 	mov    %rax,-0x180(%rbp)
    9f81:	48 8d 05 c8 90 00 00 	lea    0x90c8(%rip),%rax        # 13050 <g_131>
    9f88:	48 89 85 88 fe ff ff 	mov    %rax,-0x178(%rbp)
    9f8f:	48 8d 85 50 f0 ff ff 	lea    -0xfb0(%rbp),%rax
    9f96:	48 89 85 90 fe ff ff 	mov    %rax,-0x170(%rbp)
    9f9d:	48 8d 85 50 f0 ff ff 	lea    -0xfb0(%rbp),%rax
    9fa4:	48 89 85 98 fe ff ff 	mov    %rax,-0x168(%rbp)
    9fab:	48 8d 85 50 f0 ff ff 	lea    -0xfb0(%rbp),%rax
    9fb2:	48 89 85 a0 fe ff ff 	mov    %rax,-0x160(%rbp)
    9fb9:	48 c7 85 a8 fe ff ff 	movq   $0x0,-0x158(%rbp)
    9fc0:	00 00 00 00 
    9fc4:	48 8d 05 85 90 00 00 	lea    0x9085(%rip),%rax        # 13050 <g_131>
    9fcb:	48 89 85 b0 fe ff ff 	mov    %rax,-0x150(%rbp)
    9fd2:	48 8d 85 50 f0 ff ff 	lea    -0xfb0(%rbp),%rax
    9fd9:	48 89 85 b8 fe ff ff 	mov    %rax,-0x148(%rbp)
    9fe0:	48 8d 85 50 f0 ff ff 	lea    -0xfb0(%rbp),%rax
    9fe7:	48 89 85 c0 fe ff ff 	mov    %rax,-0x140(%rbp)
    9fee:	48 8d 85 50 f0 ff ff 	lea    -0xfb0(%rbp),%rax
    9ff5:	48 89 85 c8 fe ff ff 	mov    %rax,-0x138(%rbp)
    9ffc:	48 8d 05 4d 90 00 00 	lea    0x904d(%rip),%rax        # 13050 <g_131>
    a003:	48 89 85 d0 fe ff ff 	mov    %rax,-0x130(%rbp)
    a00a:	48 8d 85 50 f0 ff ff 	lea    -0xfb0(%rbp),%rax
    a011:	48 89 85 d8 fe ff ff 	mov    %rax,-0x128(%rbp)
    a018:	48 c7 85 e0 fe ff ff 	movq   $0x0,-0x120(%rbp)
    a01f:	00 00 00 00 
    a023:	48 c7 85 e8 fe ff ff 	movq   $0x0,-0x118(%rbp)
    a02a:	00 00 00 00 
    a02e:	48 c7 85 f0 fe ff ff 	movq   $0x0,-0x110(%rbp)
    a035:	00 00 00 00 
    a039:	48 c7 85 f8 fe ff ff 	movq   $0x0,-0x108(%rbp)
    a040:	00 00 00 00 
    a044:	48 8d 85 50 f0 ff ff 	lea    -0xfb0(%rbp),%rax
    a04b:	48 89 85 00 ff ff ff 	mov    %rax,-0x100(%rbp)
    a052:	48 8d 05 db 93 00 00 	lea    0x93db(%rip),%rax        # 13434 <g_896>
    a059:	48 89 85 08 ff ff ff 	mov    %rax,-0xf8(%rbp)
    a060:	48 8d 85 50 f0 ff ff 	lea    -0xfb0(%rbp),%rax
    a067:	48 89 85 10 ff ff ff 	mov    %rax,-0xf0(%rbp)
    a06e:	48 8d 85 50 f0 ff ff 	lea    -0xfb0(%rbp),%rax
    a075:	48 89 85 18 ff ff ff 	mov    %rax,-0xe8(%rbp)
    a07c:	48 c7 85 20 ff ff ff 	movq   $0x0,-0xe0(%rbp)
    a083:	00 00 00 00 
    a087:	48 8d 85 4e f0 ff ff 	lea    -0xfb2(%rbp),%rax
    a08e:	48 89 85 28 ff ff ff 	mov    %rax,-0xd8(%rbp)
    a095:	48 8d 85 4e f0 ff ff 	lea    -0xfb2(%rbp),%rax
    a09c:	48 89 85 30 ff ff ff 	mov    %rax,-0xd0(%rbp)
    a0a3:	48 8d 05 a6 8f 00 00 	lea    0x8fa6(%rip),%rax        # 13050 <g_131>
    a0aa:	48 89 85 38 ff ff ff 	mov    %rax,-0xc8(%rbp)
    a0b1:	48 8d 85 50 f0 ff ff 	lea    -0xfb0(%rbp),%rax
    a0b8:	48 89 85 40 ff ff ff 	mov    %rax,-0xc0(%rbp)
    a0bf:	48 8d 85 50 f0 ff ff 	lea    -0xfb0(%rbp),%rax
    a0c6:	48 89 85 48 ff ff ff 	mov    %rax,-0xb8(%rbp)
    a0cd:	48 c7 85 50 ff ff ff 	movq   $0x0,-0xb0(%rbp)
    a0d4:	00 00 00 00 
    a0d8:	48 8d 85 50 f0 ff ff 	lea    -0xfb0(%rbp),%rax
    a0df:	48 89 85 58 ff ff ff 	mov    %rax,-0xa8(%rbp)
    a0e6:	48 c7 85 60 ff ff ff 	movq   $0x0,-0xa0(%rbp)
    a0ed:	00 00 00 00 
    a0f1:	48 8d 85 4e f0 ff ff 	lea    -0xfb2(%rbp),%rax
    a0f8:	48 89 85 68 ff ff ff 	mov    %rax,-0x98(%rbp)
    a0ff:	48 8d 05 2e 93 00 00 	lea    0x932e(%rip),%rax        # 13434 <g_896>
    a106:	48 89 85 70 ff ff ff 	mov    %rax,-0x90(%rbp)
    a10d:	48 8d 85 50 f0 ff ff 	lea    -0xfb0(%rbp),%rax
    a114:	48 89 85 78 ff ff ff 	mov    %rax,-0x88(%rbp)
    a11b:	48 c7 45 80 00 00 00 	movq   $0x0,-0x80(%rbp)
    a122:	00 
    a123:	48 8d 85 4e f0 ff ff 	lea    -0xfb2(%rbp),%rax
    a12a:	48 89 45 88          	mov    %rax,-0x78(%rbp)
    a12e:	48 8d 05 1b 8f 00 00 	lea    0x8f1b(%rip),%rax        # 13050 <g_131>
    a135:	48 89 45 90          	mov    %rax,-0x70(%rbp)
    a139:	48 c7 45 98 00 00 00 	movq   $0x0,-0x68(%rbp)
    a140:	00 
    a141:	48 8d 05 ec 92 00 00 	lea    0x92ec(%rip),%rax        # 13434 <g_896>
    a148:	48 89 45 a0          	mov    %rax,-0x60(%rbp)
    a14c:	48 8d 85 50 f0 ff ff 	lea    -0xfb0(%rbp),%rax
    a153:	48 89 45 a8          	mov    %rax,-0x58(%rbp)
    a157:	48 8d 85 78 f1 ff ff 	lea    -0xe88(%rbp),%rax
    a15e:	48 89 85 a0 f2 ff ff 	mov    %rax,-0xd60(%rbp)
    a165:	48 8d 85 20 f4 ff ff 	lea    -0xbe0(%rbp),%rax
    a16c:	48 89 85 a8 f2 ff ff 	mov    %rax,-0xd58(%rbp)
    a173:	c7 85 e4 f0 ff ff 01 	movl   $0x1,-0xf1c(%rbp)
    a17a:	00 00 00 
    a17d:	c7 85 80 f0 ff ff 00 	movl   $0x0,-0xf80(%rbp)
    a184:	00 00 00 
    a187:	eb 1a                	jmp    a1a3 <func_30+0x26fe>
    a189:	8b 85 80 f0 ff ff    	mov    -0xf80(%rbp),%eax
    a18f:	48 98                	cltq   
    a191:	c7 84 85 10 f4 ff ff 	movl   $0x0,-0xbf0(%rbp,%rax,4)
    a198:	00 00 00 00 
    a19c:	83 85 80 f0 ff ff 01 	addl   $0x1,-0xf80(%rbp)
    a1a3:	83 bd 80 f0 ff ff 03 	cmpl   $0x3,-0xf80(%rbp)
    a1aa:	7e dd                	jle    a189 <func_30+0x26e4>
    a1ac:	c7 85 80 f0 ff ff 00 	movl   $0x0,-0xf80(%rbp)
    a1b3:	00 00 00 
    a1b6:	eb 1e                	jmp    a1d6 <func_30+0x2731>
    a1b8:	8b 85 80 f0 ff ff    	mov    -0xf80(%rbp),%eax
    a1be:	48 98                	cltq   
    a1c0:	48 8d 95 40 f1 ff ff 	lea    -0xec0(%rbp),%rdx
    a1c7:	48 89 94 c5 20 f4 ff 	mov    %rdx,-0xbe0(%rbp,%rax,8)
    a1ce:	ff 
    a1cf:	83 85 80 f0 ff ff 01 	addl   $0x1,-0xf80(%rbp)
    a1d6:	83 bd 80 f0 ff ff 01 	cmpl   $0x1,-0xf80(%rbp)
    a1dd:	7e d9                	jle    a1b8 <func_30+0x2713>
    a1df:	ba ff ff ff ff       	mov    $0xffffffff,%edx
    a1e4:	8b 05 e6 92 00 00    	mov    0x92e6(%rip),%eax        # 134d0 <g_1269>
    a1ea:	39 c2                	cmp    %eax,%edx
    a1ec:	0f 97 c0             	seta   %al
    a1ef:	44 0f b6 e0          	movzbl %al,%r12d
    a1f3:	8b 05 37 91 00 00    	mov    0x9137(%rip),%eax        # 13330 <g_745>
    a1f9:	0f b7 d8             	movzwl %ax,%ebx
    a1fc:	8b 85 78 f0 ff ff    	mov    -0xf88(%rbp),%eax
    a202:	0f b6 c0             	movzbl %al,%eax
    a205:	48 8b 8d 88 f1 ff ff 	mov    -0xe78(%rbp),%rcx
    a20c:	48 8b 95 68 f1 ff ff 	mov    -0xe98(%rbp),%rdx
    a213:	48 39 d1             	cmp    %rdx,%rcx
    a216:	0f 94 c2             	sete   %dl
    a219:	0f b6 ca             	movzbl %dl,%ecx
    a21c:	0f b6 15 a5 92 00 00 	movzbl 0x92a5(%rip),%edx        # 134c8 <g_1189>
    a223:	0f be d2             	movsbl %dl,%edx
    a226:	39 d1                	cmp    %edx,%ecx
    a228:	0f 9e c2             	setle  %dl
    a22b:	0f b6 ca             	movzbl %dl,%ecx
    a22e:	8b 15 20 8e 00 00    	mov    0x8e20(%rip),%edx        # 13054 <g_255>
    a234:	39 d1                	cmp    %edx,%ecx
    a236:	89 c6                	mov    %eax,%esi
    a238:	bf 01 00 00 00       	mov    $0x1,%edi
    a23d:	e8 36 b9 ff ff       	callq  5b78 <safe_sub_func_uint8_t_u_u>
    a242:	0f b6 d0             	movzbl %al,%edx
    a245:	48 0f bf 85 58 f0 ff 	movswq -0xfa8(%rbp),%rax
    a24c:	ff 
    a24d:	48 89 d6             	mov    %rdx,%rsi
    a250:	48 89 c7             	mov    %rax,%rdi
    a253:	e8 50 b6 ff ff       	callq  58a8 <safe_sub_func_int64_t_s_s>
    a258:	48 8b 95 e8 f3 ff ff 	mov    -0xc18(%rbp),%rdx
    a25f:	48 8d 85 28 f1 ff ff 	lea    -0xed8(%rbp),%rax
    a266:	48 39 c2             	cmp    %rax,%rdx
    a269:	0f 94 c0             	sete   %al
    a26c:	0f b6 c0             	movzbl %al,%eax
    a26f:	89 de                	mov    %ebx,%esi
    a271:	89 c7                	mov    %eax,%edi
    a273:	e8 c5 ba ff ff       	callq  5d3d <safe_mul_func_uint16_t_u_u>
    a278:	44 21 e0             	and    %r12d,%eax
    a27b:	89 c2                	mov    %eax,%edx
    a27d:	48 8b 85 70 f2 ff ff 	mov    -0xd90(%rbp),%rax
    a284:	66 89 10             	mov    %dx,(%rax)
    a287:	48 8b 85 70 f2 ff ff 	mov    -0xd90(%rbp),%rax
    a28e:	0f b7 10             	movzwl (%rax),%edx
    a291:	0f b7 05 9c 91 00 00 	movzwl 0x919c(%rip),%eax        # 13434 <g_896>
    a298:	21 d0                	and    %edx,%eax
    a29a:	66 89 05 93 91 00 00 	mov    %ax,0x9193(%rip)        # 13434 <g_896>
    a2a1:	8b 85 34 f4 ff ff    	mov    -0xbcc(%rbp),%eax
    a2a7:	89 c0                	mov    %eax,%eax
    a2a9:	48 89 c7             	mov    %rax,%rdi
    a2ac:	e8 65 b5 ff ff       	callq  5816 <safe_unary_minus_func_int64_t_s>
    a2b1:	48 8b 15 88 a3 00 00 	mov    0xa388(%rip),%rdx        # 14640 <g_928>
    a2b8:	8b 12                	mov    (%rdx),%edx
    a2ba:	89 d2                	mov    %edx,%edx
    a2bc:	48 39 d0             	cmp    %rdx,%rax
    a2bf:	0f 9c c0             	setl   %al
    a2c2:	0f b6 d0             	movzbl %al,%edx
    a2c5:	8b 85 08 f4 ff ff    	mov    -0xbf8(%rbp),%eax
    a2cb:	39 c2                	cmp    %eax,%edx
    a2cd:	0f 97 c0             	seta   %al
    a2d0:	0f b6 c0             	movzbl %al,%eax
    a2d3:	be f0 0d 00 00       	mov    $0xdf0,%esi
    a2d8:	89 c7                	mov    %eax,%edi
    a2da:	e8 5e ba ff ff       	callq  5d3d <safe_mul_func_uint16_t_u_u>
    a2df:	66 c7 05 68 8d 00 00 	movw   $0x0,0x8d68(%rip)        # 13050 <g_131>
    a2e6:	00 00 
    a2e8:	0f b7 05 61 8d 00 00 	movzwl 0x8d61(%rip),%eax        # 13050 <g_131>
    a2ef:	0f b7 c0             	movzwl %ax,%eax
    a2f2:	89 c6                	mov    %eax,%esi
    a2f4:	bf 00 00 00 00       	mov    $0x0,%edi
    a2f9:	e8 3f ba ff ff       	callq  5d3d <safe_mul_func_uint16_t_u_u>
    a2fe:	0f b7 d0             	movzwl %ax,%edx
    a301:	8b 85 2c f0 ff ff    	mov    -0xfd4(%rbp),%eax
    a307:	39 c2                	cmp    %eax,%edx
    a309:	0f 95 c0             	setne  %al
    a30c:	0f b6 c0             	movzbl %al,%eax
    a30f:	be ff 00 00 00       	mov    $0xff,%esi
    a314:	89 c7                	mov    %eax,%edi
    a316:	e8 78 b8 ff ff       	callq  5b93 <safe_mul_func_uint8_t_u_u>
    a31b:	66 83 bd 58 f0 ff ff 	cmpw   $0x0,-0xfa8(%rbp)
    a322:	00 
    a323:	0f 84 d1 00 00 00    	je     a3fa <func_30+0x2955>
    a329:	48 c7 85 c0 f2 ff ff 	movq   $0x0,-0xd40(%rbp)
    a330:	00 00 00 00 
    a334:	48 c7 85 c8 f2 ff ff 	movq   $0x0,-0xd38(%rbp)
    a33b:	00 00 00 00 
    a33f:	48 8d 05 4a 9a 00 00 	lea    0x9a4a(%rip),%rax        # 13d90 <g_99+0x110>
    a346:	48 89 85 70 f4 ff ff 	mov    %rax,-0xb90(%rbp)
    a34d:	48 8d 05 3c 9a 00 00 	lea    0x9a3c(%rip),%rax        # 13d90 <g_99+0x110>
    a354:	48 89 85 78 f4 ff ff 	mov    %rax,-0xb88(%rbp)
    a35b:	48 8d 05 2e 9a 00 00 	lea    0x9a2e(%rip),%rax        # 13d90 <g_99+0x110>
    a362:	48 89 85 80 f4 ff ff 	mov    %rax,-0xb80(%rbp)
    a369:	48 8d 05 20 9a 00 00 	lea    0x9a20(%rip),%rax        # 13d90 <g_99+0x110>
    a370:	48 89 85 88 f4 ff ff 	mov    %rax,-0xb78(%rbp)
    a377:	48 8b 05 92 a6 00 00 	mov    0xa692(%rip),%rax        # 14a10 <g_1317>
    a37e:	48 8d 95 2c f0 ff ff 	lea    -0xfd4(%rbp),%rdx
    a385:	48 89 10             	mov    %rdx,(%rax)
    a388:	0f b6 05 ad 8c 00 00 	movzbl 0x8cad(%rip),%eax        # 1303c <g_115>
    a38f:	84 c0                	test   %al,%al
    a391:	90                   	nop
    a392:	f3 0f 1e fa          	endbr64 
    a396:	48 8b 05 c3 a2 00 00 	mov    0xa2c3(%rip),%rax        # 14660 <g_967>
    a39d:	48 8b 00             	mov    (%rax),%rax
    a3a0:	48 8b 10             	mov    (%rax),%rdx
    a3a3:	48 b9 0d 72 15 1c da 	movabs $0xdfe04ada1c15720d,%rcx
    a3aa:	4a e0 df 
    a3ad:	48 21 ca             	and    %rcx,%rdx
    a3b0:	48 89 10             	mov    %rdx,(%rax)
    a3b3:	48 8b 00             	mov    (%rax),%rax
    a3b6:	89 c2                	mov    %eax,%edx
    a3b8:	48 8b 05 e1 a2 00 00 	mov    0xa2e1(%rip),%rax        # 146a0 <g_1225>
    a3bf:	83 e2 01             	and    $0x1,%edx
    a3c2:	89 10                	mov    %edx,(%rax)
    a3c4:	48 8b 05 45 a6 00 00 	mov    0xa645(%rip),%rax        # 14a10 <g_1317>
    a3cb:	48 8b 00             	mov    (%rax),%rax
    a3ce:	48 8b 1d 53 a2 00 00 	mov    0xa253(%rip),%rbx        # 14628 <g_686>
    a3d5:	48 89 c7             	mov    %rax,%rdi
    a3d8:	e8 5d 1d 00 00       	callq  c13a <func_35>
    a3dd:	48 89 03             	mov    %rax,(%rbx)
    a3e0:	48 8b 03             	mov    (%rbx),%rax
    a3e3:	48 8b 1d 46 a2 00 00 	mov    0xa246(%rip),%rbx        # 14630 <g_764>
    a3ea:	48 89 c7             	mov    %rax,%rdi
    a3ed:	e8 48 1d 00 00       	callq  c13a <func_35>
    a3f2:	48 89 03             	mov    %rax,(%rbx)
    a3f5:	e9 7e 02 00 00       	jmpq   a678 <func_30+0x2bd3>
    a3fa:	48 8d 85 e0 f4 ff ff 	lea    -0xb20(%rbp),%rax
    a401:	48 83 c0 28          	add    $0x28,%rax
    a405:	48 89 85 b0 f2 ff ff 	mov    %rax,-0xd50(%rbp)
    a40c:	c7 85 70 f4 ff ff db 	movl   $0x8cbf2ddb,-0xb90(%rbp)
    a413:	2d bf 8c 
    a416:	c7 85 74 f4 ff ff db 	movl   $0x8cbf2ddb,-0xb8c(%rbp)
    a41d:	2d bf 8c 
    a420:	c7 85 78 f4 ff ff f4 	movl   $0x1b4cfcf4,-0xb88(%rbp)
    a427:	fc 4c 1b 
    a42a:	c7 85 7c f4 ff ff db 	movl   $0x8cbf2ddb,-0xb84(%rbp)
    a431:	2d bf 8c 
    a434:	c7 85 80 f4 ff ff db 	movl   $0x8cbf2ddb,-0xb80(%rbp)
    a43b:	2d bf 8c 
    a43e:	c7 85 84 f4 ff ff f4 	movl   $0x1b4cfcf4,-0xb7c(%rbp)
    a445:	fc 4c 1b 
    a448:	48 8d 05 d5 8b 00 00 	lea    0x8bd5(%rip),%rax        # 13024 <g_18>
    a44f:	48 89 85 b8 f2 ff ff 	mov    %rax,-0xd48(%rbp)
    a456:	8b 85 2c f0 ff ff    	mov    -0xfd4(%rbp),%eax
    a45c:	48 63 d0             	movslq %eax,%rdx
    a45f:	48 8b 85 a8 f1 ff ff 	mov    -0xe58(%rbp),%rax
    a466:	48 89 10             	mov    %rdx,(%rax)
    a469:	48 8b 85 a8 f1 ff ff 	mov    -0xe58(%rbp),%rax
    a470:	48 8b 00             	mov    (%rax),%rax
    a473:	48 85 c0             	test   %rax,%rax
    a476:	8b 95 e0 f0 ff ff    	mov    -0xf20(%rbp),%edx
    a47c:	8b 85 6c f0 ff ff    	mov    -0xf94(%rbp),%eax
    a482:	39 85 28 f0 ff ff    	cmp    %eax,-0xfd8(%rbp)
    a488:	0f 94 c0             	sete   %al
    a48b:	0f b6 c0             	movzbl %al,%eax
    a48e:	89 d6                	mov    %edx,%esi
    a490:	89 c7                	mov    %eax,%edi
    a492:	e8 6e b1 ff ff       	callq  5605 <safe_sub_func_int32_t_s_s>
    a497:	89 c2                	mov    %eax,%edx
    a499:	48 8b 85 20 f1 ff ff 	mov    -0xee0(%rbp),%rax
    a4a0:	48 8b 00             	mov    (%rax),%rax
    a4a3:	48 8b 00             	mov    (%rax),%rax
    a4a6:	0f b6 00             	movzbl (%rax),%eax
    a4a9:	89 c1                	mov    %eax,%ecx
    a4ab:	89 d0                	mov    %edx,%eax
    a4ad:	31 c1                	xor    %eax,%ecx
    a4af:	89 ca                	mov    %ecx,%edx
    a4b1:	48 8b 85 20 f1 ff ff 	mov    -0xee0(%rbp),%rax
    a4b8:	48 8b 00             	mov    (%rax),%rax
    a4bb:	48 8b 00             	mov    (%rax),%rax
    a4be:	88 10                	mov    %dl,(%rax)
    a4c0:	0f b6 00             	movzbl (%rax),%eax
    a4c3:	0f b6 d0             	movzbl %al,%edx
    a4c6:	48 8b 05 a3 a1 00 00 	mov    0xa1a3(%rip),%rax        # 14670 <g_970>
    a4cd:	48 8b 00             	mov    (%rax),%rax
    a4d0:	48 85 c0             	test   %rax,%rax
    a4d3:	0f 95 c0             	setne  %al
    a4d6:	0f b6 c0             	movzbl %al,%eax
    a4d9:	89 d6                	mov    %edx,%esi
    a4db:	89 c7                	mov    %eax,%edi
    a4dd:	e8 cc b6 ff ff       	callq  5bae <safe_mod_func_uint8_t_u_u>
    a4e2:	8b 85 e0 f0 ff ff    	mov    -0xf20(%rbp),%eax
    a4e8:	0f be d0             	movsbl %al,%edx
    a4eb:	8b 85 2c f0 ff ff    	mov    -0xfd4(%rbp),%eax
    a4f1:	85 c0                	test   %eax,%eax
    a4f3:	75 26                	jne    a51b <func_30+0x2a76>
    a4f5:	48 8b 85 68 f2 ff ff 	mov    -0xd98(%rbp),%rax
    a4fc:	48 8b 08             	mov    (%rax),%rcx
    a4ff:	48 8b 85 68 f2 ff ff 	mov    -0xd98(%rbp),%rax
    a506:	48 8b 00             	mov    (%rax),%rax
    a509:	48 8b 09             	mov    (%rcx),%rcx
    a50c:	48 89 08             	mov    %rcx,(%rax)
    a50f:	48 8b 00             	mov    (%rax),%rax
    a512:	48 39 85 b0 f2 ff ff 	cmp    %rax,-0xd50(%rbp)
    a519:	74 07                	je     a522 <func_30+0x2a7d>
    a51b:	b8 01 00 00 00       	mov    $0x1,%eax
    a520:	eb 05                	jmp    a527 <func_30+0x2a82>
    a522:	b8 00 00 00 00       	mov    $0x0,%eax
    a527:	0f be c0             	movsbl %al,%eax
    a52a:	89 d6                	mov    %edx,%esi
    a52c:	89 c7                	mov    %eax,%edi
    a52e:	e8 37 ad ff ff       	callq  526a <safe_div_func_int8_t_s_s>
    a533:	89 c2                	mov    %eax,%edx
    a535:	48 8b 05 64 a1 00 00 	mov    0xa164(%rip),%rax        # 146a0 <g_1225>
    a53c:	0f be d2             	movsbl %dl,%edx
    a53f:	89 10                	mov    %edx,(%rax)
    a541:	8b 85 6c f0 ff ff    	mov    -0xf94(%rbp),%eax
    a547:	85 c0                	test   %eax,%eax
    a549:	90                   	nop
    a54a:	f3 0f 1e fa          	endbr64 
    a54e:	8b 85 2c f0 ff ff    	mov    -0xfd4(%rbp),%eax
    a554:	48 63 d8             	movslq %eax,%rbx
    a557:	48 8b 05 fa 9d 00 00 	mov    0x9dfa(%rip),%rax        # 14358 <g_256>
    a55e:	44 8b 20             	mov    (%rax),%r12d
    a561:	8b 85 2c f0 ff ff    	mov    -0xfd4(%rbp),%eax
    a567:	41 89 c5             	mov    %eax,%r13d
    a56a:	c7 05 7c 8b 00 00 01 	movl   $0x1,0x8b7c(%rip)        # 130f0 <g_690>
    a571:	00 00 00 
    a574:	be 00 00 00 00       	mov    $0x0,%esi
    a579:	bf 25 00 00 00       	mov    $0x25,%edi
    a57e:	e8 82 b6 ff ff       	callq  5c05 <safe_lshift_func_uint8_t_u_s>
    a583:	0f b6 d0             	movzbl %al,%edx
    a586:	48 8b 05 13 a1 00 00 	mov    0xa113(%rip),%rax        # 146a0 <g_1225>
    a58d:	8b 8d 2c f0 ff ff    	mov    -0xfd4(%rbp),%ecx
    a593:	89 08                	mov    %ecx,(%rax)
    a595:	8b 00                	mov    (%rax),%eax
    a597:	89 c1                	mov    %eax,%ecx
    a599:	48 8b 85 90 f1 ff ff 	mov    -0xe70(%rbp),%rax
    a5a0:	31 c8                	xor    %ecx,%eax
    a5a2:	89 d6                	mov    %edx,%esi
    a5a4:	89 c7                	mov    %eax,%edi
    a5a6:	e8 25 b9 ff ff       	callq  5ed0 <safe_sub_func_uint32_t_u_u>
    a5ab:	85 c0                	test   %eax,%eax
    a5ad:	74 09                	je     a5b8 <func_30+0x2b13>
    a5af:	83 bd 28 f0 ff ff 00 	cmpl   $0x0,-0xfd8(%rbp)
    a5b6:	75 09                	jne    a5c1 <func_30+0x2b1c>
    a5b8:	83 bd 28 f0 ff ff 00 	cmpl   $0x0,-0xfd8(%rbp)
    a5bf:	74 07                	je     a5c8 <func_30+0x2b23>
    a5c1:	b8 01 00 00 00       	mov    $0x1,%eax
    a5c6:	eb 05                	jmp    a5cd <func_30+0x2b28>
    a5c8:	b8 00 00 00 00       	mov    $0x0,%eax
    a5cd:	0f be c0             	movsbl %al,%eax
    a5d0:	44 89 ee             	mov    %r13d,%esi
    a5d3:	89 c7                	mov    %eax,%edi
    a5d5:	e8 14 ad ff ff       	callq  52ee <safe_lshift_func_int8_t_s_u>
    a5da:	0f be c0             	movsbl %al,%eax
    a5dd:	44 89 e6             	mov    %r12d,%esi
    a5e0:	89 c7                	mov    %eax,%edi
    a5e2:	e8 18 b1 ff ff       	callq  56ff <safe_div_func_int32_t_s_s>
    a5e7:	8b 85 7c f4 ff ff    	mov    -0xb84(%rbp),%eax
    a5ed:	85 c0                	test   %eax,%eax
    a5ef:	74 11                	je     a602 <func_30+0x2b5d>
    a5f1:	8b 85 2c f0 ff ff    	mov    -0xfd4(%rbp),%eax
    a5f7:	85 c0                	test   %eax,%eax
    a5f9:	74 07                	je     a602 <func_30+0x2b5d>
    a5fb:	b8 01 00 00 00       	mov    $0x1,%eax
    a600:	eb 05                	jmp    a607 <func_30+0x2b62>
    a602:	b8 00 00 00 00       	mov    $0x0,%eax
    a607:	48 63 d0             	movslq %eax,%rdx
    a60a:	48 8b 05 cf 9f 00 00 	mov    0x9fcf(%rip),%rax        # 145e0 <g_328>
    a611:	48 8b 00             	mov    (%rax),%rax
    a614:	48 09 d0             	or     %rdx,%rax
    a617:	48 89 de             	mov    %rbx,%rsi
    a61a:	48 89 c7             	mov    %rax,%rdi
    a61d:	e8 8d ba ff ff       	callq  60af <safe_div_func_uint64_t_u_u>
    a622:	48 8b 85 50 f1 ff ff 	mov    -0xeb0(%rbp),%rax
    a629:	48 8b 00             	mov    (%rax),%rax
    a62c:	48 8b 00             	mov    (%rax),%rax
    a62f:	48 85 c0             	test   %rax,%rax
    a632:	0f 94 c2             	sete   %dl
    a635:	8b 85 14 f4 ff ff    	mov    -0xbec(%rbp),%eax
    a63b:	85 c0                	test   %eax,%eax
    a63d:	0f 94 c0             	sete   %al
    a640:	0f b6 c0             	movzbl %al,%eax
    a643:	39 85 28 f0 ff ff    	cmp    %eax,-0xfd8(%rbp)
    a649:	0f 97 c0             	seta   %al
    a64c:	31 d0                	xor    %edx,%eax
    a64e:	0f b6 d0             	movzbl %al,%edx
    a651:	48 8b 85 b8 f2 ff ff 	mov    -0xd48(%rbp),%rax
    a658:	89 10                	mov    %edx,(%rax)
    a65a:	48 8b 85 b8 f2 ff ff 	mov    -0xd48(%rbp),%rax
    a661:	8b 00                	mov    (%rax),%eax
    a663:	89 85 5c f0 ff ff    	mov    %eax,-0xfa4(%rbp)
    a669:	8b 05 19 b0 00 00    	mov    0xb019(%rip),%eax        # 15688 <g_190>
    a66f:	85 c0                	test   %eax,%eax
    a671:	74 05                	je     a678 <func_30+0x2bd3>
    a673:	e9 7e e4 ff ff       	jmpq   8af6 <func_30+0x1051>
    a678:	48 c7 85 d0 f2 ff ff 	movq   $0x0,-0xd30(%rbp)
    a67f:	00 00 00 00 
    a683:	48 8d 85 70 f4 ff ff 	lea    -0xb90(%rbp),%rax
    a68a:	48 89 85 d8 f2 ff ff 	mov    %rax,-0xd28(%rbp)
    a691:	c7 85 84 f0 ff ff 00 	movl   $0x0,-0xf7c(%rbp)
    a698:	00 00 00 
    a69b:	eb 1e                	jmp    a6bb <func_30+0x2c16>
    a69d:	8b 85 84 f0 ff ff    	mov    -0xf7c(%rbp),%eax
    a6a3:	48 98                	cltq   
    a6a5:	48 8d 15 6c 9c 00 00 	lea    0x9c6c(%rip),%rdx        # 14318 <g_98+0x8>
    a6ac:	48 89 94 c5 70 f4 ff 	mov    %rdx,-0xb90(%rbp,%rax,8)
    a6b3:	ff 
    a6b4:	83 85 84 f0 ff ff 01 	addl   $0x1,-0xf7c(%rbp)
    a6bb:	83 bd 84 f0 ff ff 04 	cmpl   $0x4,-0xf7c(%rbp)
    a6c2:	7e d9                	jle    a69d <func_30+0x2bf8>
    a6c4:	8b 85 f8 f3 ff ff    	mov    -0xc08(%rbp),%eax
    a6ca:	85 c0                	test   %eax,%eax
    a6cc:	75 65                	jne    a733 <func_30+0x2c8e>
    a6ce:	8b 85 2c f0 ff ff    	mov    -0xfd4(%rbp),%eax
    a6d4:	85 c0                	test   %eax,%eax
    a6d6:	75 5b                	jne    a733 <func_30+0x2c8e>
    a6d8:	8b 05 4a 89 00 00    	mov    0x894a(%rip),%eax        # 13028 <g_43>
    a6de:	0f b7 d8             	movzwl %ax,%ebx
    a6e1:	8b 85 08 f4 ff ff    	mov    -0xbf8(%rbp),%eax
    a6e7:	41 89 c4             	mov    %eax,%r12d
    a6ea:	8b 05 38 89 00 00    	mov    0x8938(%rip),%eax        # 13028 <g_43>
    a6f0:	89 c6                	mov    %eax,%esi
    a6f2:	bf 0d 15 00 00       	mov    $0x150d,%edi
    a6f7:	e8 0a b7 ff ff       	callq  5e06 <safe_lshift_func_uint16_t_u_u>
    a6fc:	0f be c0             	movsbl %al,%eax
    a6ff:	44 89 e6             	mov    %r12d,%esi
    a702:	89 c7                	mov    %eax,%edi
    a704:	e8 98 ab ff ff       	callq  52a1 <safe_lshift_func_int8_t_s_s>
    a709:	8b 05 e1 89 00 00    	mov    0x89e1(%rip),%eax        # 130f0 <g_690>
    a70f:	0f b7 c0             	movzwl %ax,%eax
    a712:	89 de                	mov    %ebx,%esi
    a714:	89 c7                	mov    %eax,%edi
    a716:	e8 04 b6 ff ff       	callq  5d1f <safe_sub_func_uint16_t_u_u>
    a71b:	0f b7 85 e4 f3 ff ff 	movzwl -0xc1c(%rbp),%eax
    a722:	66 85 c0             	test   %ax,%ax
    a725:	0f 9f c0             	setg   %al
    a728:	0f b6 c0             	movzbl %al,%eax
    a72b:	39 85 28 f0 ff ff    	cmp    %eax,-0xfd8(%rbp)
    a731:	77 07                	ja     a73a <func_30+0x2c95>
    a733:	b8 01 00 00 00       	mov    $0x1,%eax
    a738:	eb 05                	jmp    a73f <func_30+0x2c9a>
    a73a:	b8 00 00 00 00       	mov    $0x0,%eax
    a73f:	48 98                	cltq   
    a741:	48 8b 95 d8 f2 ff ff 	mov    -0xd28(%rbp),%rdx
    a748:	48 8d 0d c9 9b 00 00 	lea    0x9bc9(%rip),%rcx        # 14318 <g_98+0x8>
    a74f:	48 89 0a             	mov    %rcx,(%rdx)
    a752:	48 89 c6             	mov    %rax,%rsi
    a755:	bf 00 00 00 00       	mov    $0x0,%edi
    a75a:	e8 21 b9 ff ff       	callq  6080 <safe_mod_func_uint64_t_u_u>
    a75f:	0f b6 c0             	movzbl %al,%eax
    a762:	be fd 00 00 00       	mov    $0xfd,%esi
    a767:	89 c7                	mov    %eax,%edi
    a769:	e8 25 b4 ff ff       	callq  5b93 <safe_mul_func_uint8_t_u_u>
    a76e:	89 c2                	mov    %eax,%edx
    a770:	48 8b 05 29 9f 00 00 	mov    0x9f29(%rip),%rax        # 146a0 <g_1225>
    a777:	0f b6 d2             	movzbl %dl,%edx
    a77a:	89 10                	mov    %edx,(%rax)
    a77c:	8b 85 68 f0 ff ff    	mov    -0xf98(%rbp),%eax
    a782:	3d fa ff 00 00       	cmp    $0xfffa,%eax
    a787:	0f 96 c0             	setbe  %al
    a78a:	0f b6 d8             	movzbl %al,%ebx
    a78d:	44 8b a5 2c f0 ff ff 	mov    -0xfd4(%rbp),%r12d
    a794:	8b 85 e0 f0 ff ff    	mov    -0xf20(%rbp),%eax
    a79a:	89 c6                	mov    %eax,%esi
    a79c:	bf 68 72 0d 74       	mov    $0x740d7268,%edi
    a7a1:	e8 2a b7 ff ff       	callq  5ed0 <safe_sub_func_uint32_t_u_u>
    a7a6:	44 89 e6             	mov    %r12d,%esi
    a7a9:	bf 00 00 00 00       	mov    $0x0,%edi
    a7ae:	e8 95 b6 ff ff       	callq  5e48 <safe_rshift_func_uint16_t_u_s>
    a7b3:	0f b6 c0             	movzbl %al,%eax
    a7b6:	89 de                	mov    %ebx,%esi
    a7b8:	89 c7                	mov    %eax,%edi
    a7ba:	e8 8d b4 ff ff       	callq  5c4c <safe_lshift_func_uint8_t_u_u>
    a7bf:	0f b6 d0             	movzbl %al,%edx
    a7c2:	8b 85 74 f0 ff ff    	mov    -0xf8c(%rbp),%eax
    a7c8:	09 d0                	or     %edx,%eax
    a7ca:	89 85 74 f0 ff ff    	mov    %eax,-0xf8c(%rbp)
    a7d0:	48 8d 05 79 9e 00 00 	lea    0x9e79(%rip),%rax        # 14650 <g_926>
    a7d7:	48 8b 00             	mov    (%rax),%rax
    a7da:	48 8b 00             	mov    (%rax),%rax
    a7dd:	48 8b 00             	mov    (%rax),%rax
    a7e0:	8b 00                	mov    (%rax),%eax
    a7e2:	0f b6 05 f4 8c 00 00 	movzbl 0x8cf4(%rip),%eax        # 134dd <g_1418>
    a7e9:	0f b6 c0             	movzbl %al,%eax
    a7ec:	8b 95 28 f0 ff ff    	mov    -0xfd8(%rbp),%edx
    a7f2:	0f b6 d2             	movzbl %dl,%edx
    a7f5:	81 e2 f2 00 00 00    	and    $0xf2,%edx
    a7fb:	89 c6                	mov    %eax,%esi
    a7fd:	89 d7                	mov    %edx,%edi
    a7ff:	e8 aa b3 ff ff       	callq  5bae <safe_mod_func_uint8_t_u_u>
    a804:	84 c0                	test   %al,%al
    a806:	75 61                	jne    a869 <func_30+0x2dc4>
    a808:	8b 85 30 f4 ff ff    	mov    -0xbd0(%rbp),%eax
    a80e:	89 c1                	mov    %eax,%ecx
    a810:	8b 85 74 f0 ff ff    	mov    -0xf8c(%rbp),%eax
    a816:	39 85 e0 f0 ff ff    	cmp    %eax,-0xf20(%rbp)
    a81c:	0f 92 c0             	setb   %al
    a81f:	0f b6 d0             	movzbl %al,%edx
    a822:	0f b6 05 83 8c 00 00 	movzbl 0x8c83(%rip),%eax        # 134ac <g_1056>
    a829:	0f be c0             	movsbl %al,%eax
    a82c:	39 c2                	cmp    %eax,%edx
    a82e:	0f 95 c0             	setne  %al
    a831:	0f b6 c0             	movzbl %al,%eax
    a834:	48 89 ce             	mov    %rcx,%rsi
    a837:	48 89 c7             	mov    %rax,%rdi
    a83a:	e8 69 b0 ff ff       	callq  58a8 <safe_sub_func_int64_t_s_s>
    a83f:	89 c2                	mov    %eax,%edx
    a841:	48 8b 85 70 f2 ff ff 	mov    -0xd90(%rbp),%rax
    a848:	66 89 10             	mov    %dx,(%rax)
    a84b:	48 8b 85 70 f2 ff ff 	mov    -0xd90(%rbp),%rax
    a852:	0f b7 00             	movzwl (%rax),%eax
    a855:	0f b7 c0             	movzwl %ax,%eax
    a858:	be 09 00 00 00       	mov    $0x9,%esi
    a85d:	89 c7                	mov    %eax,%edi
    a85f:	e8 e4 b5 ff ff       	callq  5e48 <safe_rshift_func_uint16_t_u_s>
    a864:	66 85 c0             	test   %ax,%ax
    a867:	74 07                	je     a870 <func_30+0x2dcb>
    a869:	b8 01 00 00 00       	mov    $0x1,%eax
    a86e:	eb 05                	jmp    a875 <func_30+0x2dd0>
    a870:	b8 00 00 00 00       	mov    $0x0,%eax
    a875:	0f bf d0             	movswl %ax,%edx
    a878:	8b 85 28 f0 ff ff    	mov    -0xfd8(%rbp),%eax
    a87e:	98                   	cwtl   
    a87f:	89 d6                	mov    %edx,%esi
    a881:	89 c7                	mov    %eax,%edi
    a883:	e8 8e ab ff ff       	callq  5416 <safe_mod_func_int16_t_s_s>
    a888:	48 0f bf d0          	movswq %ax,%rdx
    a88c:	48 8b 85 a8 f1 ff ff 	mov    -0xe58(%rbp),%rax
    a893:	48 89 10             	mov    %rdx,(%rax)
    a896:	48 8b 85 a8 f1 ff ff 	mov    -0xe58(%rbp),%rax
    a89d:	48 8b 10             	mov    (%rax),%rdx
    a8a0:	0f b7 85 e6 f3 ff ff 	movzwl -0xc1a(%rbp),%eax
    a8a7:	48 0f bf c0          	movswq %ax,%rax
    a8ab:	48 39 c2             	cmp    %rax,%rdx
    a8ae:	0f 94 c0             	sete   %al
    a8b1:	0f b6 d0             	movzbl %al,%edx
    a8b4:	0f b6 05 0d 8c 00 00 	movzbl 0x8c0d(%rip),%eax        # 134c8 <g_1189>
    a8bb:	0f be c0             	movsbl %al,%eax
    a8be:	89 d6                	mov    %edx,%esi
    a8c0:	89 c7                	mov    %eax,%edi
    a8c2:	e8 cb ab ff ff       	callq  5492 <safe_lshift_func_int16_t_s_s>
    a8c7:	48 8d 85 74 f0 ff ff 	lea    -0xf8c(%rbp),%rax
    a8ce:	48 89 c7             	mov    %rax,%rdi
    a8d1:	e8 64 18 00 00       	callq  c13a <func_35>
    a8d6:	48 8b 1d 43 a1 00 00 	mov    0xa143(%rip),%rbx        # 14a20 <g_1424>
    a8dd:	48 89 c7             	mov    %rax,%rdi
    a8e0:	e8 55 18 00 00       	callq  c13a <func_35>
    a8e5:	48 89 03             	mov    %rax,(%rbx)
    a8e8:	80 bd 47 f0 ff ff 00 	cmpb   $0x0,-0xfb9(%rbp)
    a8ef:	0f 84 3c 0b 00 00    	je     b431 <func_30+0x398c>
    a8f5:	48 8d 05 e4 8b 00 00 	lea    0x8be4(%rip),%rax        # 134e0 <g_1435>
    a8fc:	48 89 85 f0 f2 ff ff 	mov    %rax,-0xd10(%rbp)
    a903:	c7 85 70 f4 ff ff 42 	movl   $0x878a42,-0xb90(%rbp)
    a90a:	8a 87 00 
    a90d:	c7 85 74 f4 ff ff 42 	movl   $0x878a42,-0xb8c(%rbp)
    a914:	8a 87 00 
    a917:	c7 85 78 f4 ff ff 42 	movl   $0x878a42,-0xb88(%rbp)
    a91e:	8a 87 00 
    a921:	c7 85 7c f4 ff ff 42 	movl   $0x878a42,-0xb84(%rbp)
    a928:	8a 87 00 
    a92b:	c7 85 80 f4 ff ff 42 	movl   $0x878a42,-0xb80(%rbp)
    a932:	8a 87 00 
    a935:	48 8d 85 20 f1 ff ff 	lea    -0xee0(%rbp),%rax
    a93c:	48 89 85 f8 f2 ff ff 	mov    %rax,-0xd08(%rbp)
    a943:	48 8d 85 88 f1 ff ff 	lea    -0xe78(%rbp),%rax
    a94a:	48 89 85 00 f3 ff ff 	mov    %rax,-0xd00(%rbp)
    a951:	48 8d 85 6c f0 ff ff 	lea    -0xf94(%rbp),%rax
    a958:	48 89 85 08 f3 ff ff 	mov    %rax,-0xcf8(%rbp)
    a95f:	48 8d 85 78 f0 ff ff 	lea    -0xf88(%rbp),%rax
    a966:	48 89 85 10 f3 ff ff 	mov    %rax,-0xcf0(%rbp)
    a96d:	48 8d 85 64 f0 ff ff 	lea    -0xf9c(%rbp),%rax
    a974:	48 89 85 f0 f8 ff ff 	mov    %rax,-0x710(%rbp)
    a97b:	48 8d 85 70 f4 ff ff 	lea    -0xb90(%rbp),%rax
    a982:	48 83 c0 0c          	add    $0xc,%rax
    a986:	48 89 85 f8 f8 ff ff 	mov    %rax,-0x708(%rbp)
    a98d:	48 8d 85 74 f0 ff ff 	lea    -0xf8c(%rbp),%rax
    a994:	48 89 85 00 f9 ff ff 	mov    %rax,-0x700(%rbp)
    a99b:	48 8d 85 5c f0 ff ff 	lea    -0xfa4(%rbp),%rax
    a9a2:	48 89 85 08 f9 ff ff 	mov    %rax,-0x6f8(%rbp)
    a9a9:	48 8d 85 74 f0 ff ff 	lea    -0xf8c(%rbp),%rax
    a9b0:	48 89 85 10 f9 ff ff 	mov    %rax,-0x6f0(%rbp)
    a9b7:	48 8d 85 5c f0 ff ff 	lea    -0xfa4(%rbp),%rax
    a9be:	48 89 85 18 f9 ff ff 	mov    %rax,-0x6e8(%rbp)
    a9c5:	48 8d 85 68 f0 ff ff 	lea    -0xf98(%rbp),%rax
    a9cc:	48 89 85 20 f9 ff ff 	mov    %rax,-0x6e0(%rbp)
    a9d3:	48 8d 85 70 f4 ff ff 	lea    -0xb90(%rbp),%rax
    a9da:	48 83 c0 0c          	add    $0xc,%rax
    a9de:	48 89 85 28 f9 ff ff 	mov    %rax,-0x6d8(%rbp)
    a9e5:	48 8d 85 60 f0 ff ff 	lea    -0xfa0(%rbp),%rax
    a9ec:	48 89 85 30 f9 ff ff 	mov    %rax,-0x6d0(%rbp)
    a9f3:	48 8d 05 36 89 00 00 	lea    0x8936(%rip),%rax        # 13330 <g_745>
    a9fa:	48 89 85 38 f9 ff ff 	mov    %rax,-0x6c8(%rbp)
    aa01:	48 8d 85 70 f4 ff ff 	lea    -0xb90(%rbp),%rax
    aa08:	48 83 c0 0c          	add    $0xc,%rax
    aa0c:	48 89 85 40 f9 ff ff 	mov    %rax,-0x6c0(%rbp)
    aa13:	48 c7 85 48 f9 ff ff 	movq   $0x0,-0x6b8(%rbp)
    aa1a:	00 00 00 00 
    aa1e:	48 8d 85 5c f0 ff ff 	lea    -0xfa4(%rbp),%rax
    aa25:	48 89 85 50 f9 ff ff 	mov    %rax,-0x6b0(%rbp)
    aa2c:	48 8d 85 5c f0 ff ff 	lea    -0xfa4(%rbp),%rax
    aa33:	48 89 85 58 f9 ff ff 	mov    %rax,-0x6a8(%rbp)
    aa3a:	48 c7 85 60 f9 ff ff 	movq   $0x0,-0x6a0(%rbp)
    aa41:	00 00 00 00 
    aa45:	48 c7 85 68 f9 ff ff 	movq   $0x0,-0x698(%rbp)
    aa4c:	00 00 00 00 
    aa50:	48 8d 85 5c f0 ff ff 	lea    -0xfa4(%rbp),%rax
    aa57:	48 89 85 70 f9 ff ff 	mov    %rax,-0x690(%rbp)
    aa5e:	48 8d 85 5c f0 ff ff 	lea    -0xfa4(%rbp),%rax
    aa65:	48 89 85 78 f9 ff ff 	mov    %rax,-0x688(%rbp)
    aa6c:	48 c7 85 80 f9 ff ff 	movq   $0x0,-0x680(%rbp)
    aa73:	00 00 00 00 
    aa77:	48 8d 85 70 f4 ff ff 	lea    -0xb90(%rbp),%rax
    aa7e:	48 83 c0 0c          	add    $0xc,%rax
    aa82:	48 89 85 88 f9 ff ff 	mov    %rax,-0x678(%rbp)
    aa89:	48 8d 85 70 f4 ff ff 	lea    -0xb90(%rbp),%rax
    aa90:	48 83 c0 0c          	add    $0xc,%rax
    aa94:	48 89 85 90 f9 ff ff 	mov    %rax,-0x670(%rbp)
    aa9b:	48 8d 85 74 f0 ff ff 	lea    -0xf8c(%rbp),%rax
    aaa2:	48 89 85 98 f9 ff ff 	mov    %rax,-0x668(%rbp)
    aaa9:	48 8d 85 68 f0 ff ff 	lea    -0xf98(%rbp),%rax
    aab0:	48 89 85 a0 f9 ff ff 	mov    %rax,-0x660(%rbp)
    aab7:	48 8d 85 6c f0 ff ff 	lea    -0xf94(%rbp),%rax
    aabe:	48 89 85 a8 f9 ff ff 	mov    %rax,-0x658(%rbp)
    aac5:	48 8d 85 74 f0 ff ff 	lea    -0xf8c(%rbp),%rax
    aacc:	48 89 85 b0 f9 ff ff 	mov    %rax,-0x650(%rbp)
    aad3:	48 8d 85 60 f0 ff ff 	lea    -0xfa0(%rbp),%rax
    aada:	48 89 85 b8 f9 ff ff 	mov    %rax,-0x648(%rbp)
    aae1:	48 8d 85 74 f0 ff ff 	lea    -0xf8c(%rbp),%rax
    aae8:	48 89 85 c0 f9 ff ff 	mov    %rax,-0x640(%rbp)
    aaef:	48 8d 85 6c f0 ff ff 	lea    -0xf94(%rbp),%rax
    aaf6:	48 89 85 c8 f9 ff ff 	mov    %rax,-0x638(%rbp)
    aafd:	48 8d 05 20 85 00 00 	lea    0x8520(%rip),%rax        # 13024 <g_18>
    ab04:	48 89 85 d0 f9 ff ff 	mov    %rax,-0x630(%rbp)
    ab0b:	48 8d 05 16 85 00 00 	lea    0x8516(%rip),%rax        # 13028 <g_43>
    ab12:	48 89 85 d8 f9 ff ff 	mov    %rax,-0x628(%rbp)
    ab19:	48 8d 85 5c f0 ff ff 	lea    -0xfa4(%rbp),%rax
    ab20:	48 89 85 e0 f9 ff ff 	mov    %rax,-0x620(%rbp)
    ab27:	48 c7 85 e8 f9 ff ff 	movq   $0x0,-0x618(%rbp)
    ab2e:	00 00 00 00 
    ab32:	48 8d 05 f7 87 00 00 	lea    0x87f7(%rip),%rax        # 13330 <g_745>
    ab39:	48 89 85 f0 f9 ff ff 	mov    %rax,-0x610(%rbp)
    ab40:	48 8d 85 74 f0 ff ff 	lea    -0xf8c(%rbp),%rax
    ab47:	48 89 85 f8 f9 ff ff 	mov    %rax,-0x608(%rbp)
    ab4e:	48 8d 85 74 f0 ff ff 	lea    -0xf8c(%rbp),%rax
    ab55:	48 89 85 00 fa ff ff 	mov    %rax,-0x600(%rbp)
    ab5c:	48 8d 85 6c f0 ff ff 	lea    -0xf94(%rbp),%rax
    ab63:	48 89 85 08 fa ff ff 	mov    %rax,-0x5f8(%rbp)
    ab6a:	48 8d 85 70 f4 ff ff 	lea    -0xb90(%rbp),%rax
    ab71:	48 83 c0 04          	add    $0x4,%rax
    ab75:	48 89 85 10 fa ff ff 	mov    %rax,-0x5f0(%rbp)
    ab7c:	48 8d 85 6c f0 ff ff 	lea    -0xf94(%rbp),%rax
    ab83:	48 89 85 18 fa ff ff 	mov    %rax,-0x5e8(%rbp)
    ab8a:	48 c7 85 20 fa ff ff 	movq   $0x0,-0x5e0(%rbp)
    ab91:	00 00 00 00 
    ab95:	48 8d 85 70 f4 ff ff 	lea    -0xb90(%rbp),%rax
    ab9c:	48 83 c0 0c          	add    $0xc,%rax
    aba0:	48 89 85 28 fa ff ff 	mov    %rax,-0x5d8(%rbp)
    aba7:	48 8d 85 74 f0 ff ff 	lea    -0xf8c(%rbp),%rax
    abae:	48 89 85 30 fa ff ff 	mov    %rax,-0x5d0(%rbp)
    abb5:	48 8d 85 74 f0 ff ff 	lea    -0xf8c(%rbp),%rax
    abbc:	48 89 85 38 fa ff ff 	mov    %rax,-0x5c8(%rbp)
    abc3:	48 8d 85 70 f4 ff ff 	lea    -0xb90(%rbp),%rax
    abca:	48 83 c0 0c          	add    $0xc,%rax
    abce:	48 89 85 40 fa ff ff 	mov    %rax,-0x5c0(%rbp)
    abd5:	48 8d 85 78 f0 ff ff 	lea    -0xf88(%rbp),%rax
    abdc:	48 89 85 48 fa ff ff 	mov    %rax,-0x5b8(%rbp)
    abe3:	48 c7 85 50 fa ff ff 	movq   $0x0,-0x5b0(%rbp)
    abea:	00 00 00 00 
    abee:	48 8d 85 74 f0 ff ff 	lea    -0xf8c(%rbp),%rax
    abf5:	48 89 85 58 fa ff ff 	mov    %rax,-0x5a8(%rbp)
    abfc:	48 8d 85 5c f0 ff ff 	lea    -0xfa4(%rbp),%rax
    ac03:	48 89 85 60 fa ff ff 	mov    %rax,-0x5a0(%rbp)
    ac0a:	48 8d 05 1f 87 00 00 	lea    0x871f(%rip),%rax        # 13330 <g_745>
    ac11:	48 89 85 68 fa ff ff 	mov    %rax,-0x598(%rbp)
    ac18:	48 8d 85 60 f0 ff ff 	lea    -0xfa0(%rbp),%rax
    ac1f:	48 89 85 70 fa ff ff 	mov    %rax,-0x590(%rbp)
    ac26:	48 8d 05 03 87 00 00 	lea    0x8703(%rip),%rax        # 13330 <g_745>
    ac2d:	48 89 85 78 fa ff ff 	mov    %rax,-0x588(%rbp)
    ac34:	48 8d 85 60 f0 ff ff 	lea    -0xfa0(%rbp),%rax
    ac3b:	48 89 85 80 fa ff ff 	mov    %rax,-0x580(%rbp)
    ac42:	48 c7 85 88 fa ff ff 	movq   $0x0,-0x578(%rbp)
    ac49:	00 00 00 00 
    ac4d:	48 8d 85 74 f0 ff ff 	lea    -0xf8c(%rbp),%rax
    ac54:	48 89 85 90 fa ff ff 	mov    %rax,-0x570(%rbp)
    ac5b:	48 8d 05 ce 86 00 00 	lea    0x86ce(%rip),%rax        # 13330 <g_745>
    ac62:	48 89 85 98 fa ff ff 	mov    %rax,-0x568(%rbp)
    ac69:	48 8d 85 74 f0 ff ff 	lea    -0xf8c(%rbp),%rax
    ac70:	48 89 85 a0 fa ff ff 	mov    %rax,-0x560(%rbp)
    ac77:	48 c7 85 a8 fa ff ff 	movq   $0x0,-0x558(%rbp)
    ac7e:	00 00 00 00 
    ac82:	48 8d 85 60 f0 ff ff 	lea    -0xfa0(%rbp),%rax
    ac89:	48 89 85 b0 fa ff ff 	mov    %rax,-0x550(%rbp)
    ac90:	48 8d 85 74 f0 ff ff 	lea    -0xf8c(%rbp),%rax
    ac97:	48 89 85 b8 fa ff ff 	mov    %rax,-0x548(%rbp)
    ac9e:	48 8d 85 5c f0 ff ff 	lea    -0xfa4(%rbp),%rax
    aca5:	48 89 85 c0 fa ff ff 	mov    %rax,-0x540(%rbp)
    acac:	48 8d 85 68 f0 ff ff 	lea    -0xf98(%rbp),%rax
    acb3:	48 89 85 c8 fa ff ff 	mov    %rax,-0x538(%rbp)
    acba:	48 8d 85 60 f0 ff ff 	lea    -0xfa0(%rbp),%rax
    acc1:	48 89 85 d0 fa ff ff 	mov    %rax,-0x530(%rbp)
    acc8:	48 c7 85 d8 fa ff ff 	movq   $0x0,-0x528(%rbp)
    accf:	00 00 00 00 
    acd3:	48 8d 85 64 f0 ff ff 	lea    -0xf9c(%rbp),%rax
    acda:	48 89 85 e0 fa ff ff 	mov    %rax,-0x520(%rbp)
    ace1:	48 8d 05 3c 83 00 00 	lea    0x833c(%rip),%rax        # 13024 <g_18>
    ace8:	48 89 85 e8 fa ff ff 	mov    %rax,-0x518(%rbp)
    acef:	48 8d 85 5c f0 ff ff 	lea    -0xfa4(%rbp),%rax
    acf6:	48 89 85 f0 fa ff ff 	mov    %rax,-0x510(%rbp)
    acfd:	48 8d 85 6c f0 ff ff 	lea    -0xf94(%rbp),%rax
    ad04:	48 89 85 f8 fa ff ff 	mov    %rax,-0x508(%rbp)
    ad0b:	48 8d 85 6c f0 ff ff 	lea    -0xf94(%rbp),%rax
    ad12:	48 89 85 00 fb ff ff 	mov    %rax,-0x500(%rbp)
    ad19:	48 8d 85 5c f0 ff ff 	lea    -0xfa4(%rbp),%rax
    ad20:	48 89 85 08 fb ff ff 	mov    %rax,-0x4f8(%rbp)
    ad27:	48 8d 85 78 f0 ff ff 	lea    -0xf88(%rbp),%rax
    ad2e:	48 89 85 10 fb ff ff 	mov    %rax,-0x4f0(%rbp)
    ad35:	48 8d 85 74 f0 ff ff 	lea    -0xf8c(%rbp),%rax
    ad3c:	48 89 85 18 fb ff ff 	mov    %rax,-0x4e8(%rbp)
    ad43:	48 8d 05 e6 85 00 00 	lea    0x85e6(%rip),%rax        # 13330 <g_745>
    ad4a:	48 89 85 20 fb ff ff 	mov    %rax,-0x4e0(%rbp)
    ad51:	48 c7 85 28 fb ff ff 	movq   $0x0,-0x4d8(%rbp)
    ad58:	00 00 00 00 
    ad5c:	48 8d 85 78 f0 ff ff 	lea    -0xf88(%rbp),%rax
    ad63:	48 89 85 30 fb ff ff 	mov    %rax,-0x4d0(%rbp)
    ad6a:	48 8d 85 70 f4 ff ff 	lea    -0xb90(%rbp),%rax
    ad71:	48 83 c0 0c          	add    $0xc,%rax
    ad75:	48 89 85 38 fb ff ff 	mov    %rax,-0x4c8(%rbp)
    ad7c:	48 c7 85 40 fb ff ff 	movq   $0x0,-0x4c0(%rbp)
    ad83:	00 00 00 00 
    ad87:	48 8d 85 70 f4 ff ff 	lea    -0xb90(%rbp),%rax
    ad8e:	48 83 c0 0c          	add    $0xc,%rax
    ad92:	48 89 85 48 fb ff ff 	mov    %rax,-0x4b8(%rbp)
    ad99:	48 8d 85 60 f0 ff ff 	lea    -0xfa0(%rbp),%rax
    ada0:	48 89 85 50 fb ff ff 	mov    %rax,-0x4b0(%rbp)
    ada7:	48 8d 85 68 f0 ff ff 	lea    -0xf98(%rbp),%rax
    adae:	48 89 85 58 fb ff ff 	mov    %rax,-0x4a8(%rbp)
    adb5:	48 8d 85 5c f0 ff ff 	lea    -0xfa4(%rbp),%rax
    adbc:	48 89 85 60 fb ff ff 	mov    %rax,-0x4a0(%rbp)
    adc3:	48 8d 85 64 f0 ff ff 	lea    -0xf9c(%rbp),%rax
    adca:	48 89 85 68 fb ff ff 	mov    %rax,-0x498(%rbp)
    add1:	48 8d 85 74 f0 ff ff 	lea    -0xf8c(%rbp),%rax
    add8:	48 89 85 70 fb ff ff 	mov    %rax,-0x490(%rbp)
    addf:	48 c7 85 78 fb ff ff 	movq   $0x0,-0x488(%rbp)
    ade6:	00 00 00 00 
    adea:	48 8d 05 33 82 00 00 	lea    0x8233(%rip),%rax        # 13024 <g_18>
    adf1:	48 89 85 80 fb ff ff 	mov    %rax,-0x480(%rbp)
    adf8:	48 c7 85 88 fb ff ff 	movq   $0x0,-0x478(%rbp)
    adff:	00 00 00 00 
    ae03:	48 8d 85 6c f0 ff ff 	lea    -0xf94(%rbp),%rax
    ae0a:	48 89 85 90 fb ff ff 	mov    %rax,-0x470(%rbp)
    ae11:	48 8d 85 5c f0 ff ff 	lea    -0xfa4(%rbp),%rax
    ae18:	48 89 85 98 fb ff ff 	mov    %rax,-0x468(%rbp)
    ae1f:	48 8d 85 5c f0 ff ff 	lea    -0xfa4(%rbp),%rax
    ae26:	48 89 85 a0 fb ff ff 	mov    %rax,-0x460(%rbp)
    ae2d:	48 8d 85 5c f0 ff ff 	lea    -0xfa4(%rbp),%rax
    ae34:	48 89 85 a8 fb ff ff 	mov    %rax,-0x458(%rbp)
    ae3b:	48 8d 85 5c f0 ff ff 	lea    -0xfa4(%rbp),%rax
    ae42:	48 89 85 b0 fb ff ff 	mov    %rax,-0x450(%rbp)
    ae49:	48 8d 85 6c f0 ff ff 	lea    -0xf94(%rbp),%rax
    ae50:	48 89 85 b8 fb ff ff 	mov    %rax,-0x448(%rbp)
    ae57:	48 8d 85 70 f4 ff ff 	lea    -0xb90(%rbp),%rax
    ae5e:	48 83 c0 0c          	add    $0xc,%rax
    ae62:	48 89 85 c0 fb ff ff 	mov    %rax,-0x440(%rbp)
    ae69:	48 8d 85 74 f0 ff ff 	lea    -0xf8c(%rbp),%rax
    ae70:	48 89 85 c8 fb ff ff 	mov    %rax,-0x438(%rbp)
    ae77:	48 8d 85 74 f0 ff ff 	lea    -0xf8c(%rbp),%rax
    ae7e:	48 89 85 d0 fb ff ff 	mov    %rax,-0x430(%rbp)
    ae85:	48 8d 85 70 f4 ff ff 	lea    -0xb90(%rbp),%rax
    ae8c:	48 83 c0 0c          	add    $0xc,%rax
    ae90:	48 89 85 d8 fb ff ff 	mov    %rax,-0x428(%rbp)
    ae97:	48 8d 85 5c f0 ff ff 	lea    -0xfa4(%rbp),%rax
    ae9e:	48 89 85 e0 fb ff ff 	mov    %rax,-0x420(%rbp)
    aea5:	48 8d 05 78 81 00 00 	lea    0x8178(%rip),%rax        # 13024 <g_18>
    aeac:	48 89 85 e8 fb ff ff 	mov    %rax,-0x418(%rbp)
    aeb3:	48 8d 85 70 f4 ff ff 	lea    -0xb90(%rbp),%rax
    aeba:	48 83 c0 04          	add    $0x4,%rax
    aebe:	48 89 85 f0 fb ff ff 	mov    %rax,-0x410(%rbp)
    aec5:	48 8d 05 58 81 00 00 	lea    0x8158(%rip),%rax        # 13024 <g_18>
    aecc:	48 89 85 f8 fb ff ff 	mov    %rax,-0x408(%rbp)
    aed3:	48 8d 85 64 f0 ff ff 	lea    -0xf9c(%rbp),%rax
    aeda:	48 89 85 00 fc ff ff 	mov    %rax,-0x400(%rbp)
    aee1:	48 8d 85 74 f0 ff ff 	lea    -0xf8c(%rbp),%rax
    aee8:	48 89 85 08 fc ff ff 	mov    %rax,-0x3f8(%rbp)
    aeef:	48 c7 85 10 fc ff ff 	movq   $0x0,-0x3f0(%rbp)
    aef6:	00 00 00 00 
    aefa:	48 c7 85 18 fc ff ff 	movq   $0x0,-0x3e8(%rbp)
    af01:	00 00 00 00 
    af05:	48 8d 85 6c f0 ff ff 	lea    -0xf94(%rbp),%rax
    af0c:	48 89 85 20 fc ff ff 	mov    %rax,-0x3e0(%rbp)
    af13:	48 8d 05 16 84 00 00 	lea    0x8416(%rip),%rax        # 13330 <g_745>
    af1a:	48 89 85 28 fc ff ff 	mov    %rax,-0x3d8(%rbp)
    af21:	48 8d 85 64 f0 ff ff 	lea    -0xf9c(%rbp),%rax
    af28:	48 89 85 30 fc ff ff 	mov    %rax,-0x3d0(%rbp)
    af2f:	48 8d 85 74 f0 ff ff 	lea    -0xf8c(%rbp),%rax
    af36:	48 89 85 38 fc ff ff 	mov    %rax,-0x3c8(%rbp)
    af3d:	48 8d 85 74 f0 ff ff 	lea    -0xf8c(%rbp),%rax
    af44:	48 89 85 40 fc ff ff 	mov    %rax,-0x3c0(%rbp)
    af4b:	48 8d 85 70 f4 ff ff 	lea    -0xb90(%rbp),%rax
    af52:	48 83 c0 04          	add    $0x4,%rax
    af56:	48 89 85 48 fc ff ff 	mov    %rax,-0x3b8(%rbp)
    af5d:	48 8d 85 64 f0 ff ff 	lea    -0xf9c(%rbp),%rax
    af64:	48 89 85 50 fc ff ff 	mov    %rax,-0x3b0(%rbp)
    af6b:	48 8d 85 5c f0 ff ff 	lea    -0xfa4(%rbp),%rax
    af72:	48 89 85 58 fc ff ff 	mov    %rax,-0x3a8(%rbp)
    af79:	48 c7 85 60 fc ff ff 	movq   $0x0,-0x3a0(%rbp)
    af80:	00 00 00 00 
    af84:	48 8d 85 74 f0 ff ff 	lea    -0xf8c(%rbp),%rax
    af8b:	48 89 85 68 fc ff ff 	mov    %rax,-0x398(%rbp)
    af92:	48 8d 85 68 f0 ff ff 	lea    -0xf98(%rbp),%rax
    af99:	48 89 85 70 fc ff ff 	mov    %rax,-0x390(%rbp)
    afa0:	48 8d 85 70 f4 ff ff 	lea    -0xb90(%rbp),%rax
    afa7:	48 83 c0 0c          	add    $0xc,%rax
    afab:	48 89 85 78 fc ff ff 	mov    %rax,-0x388(%rbp)
    afb2:	48 8d 05 77 83 00 00 	lea    0x8377(%rip),%rax        # 13330 <g_745>
    afb9:	48 89 85 80 fc ff ff 	mov    %rax,-0x380(%rbp)
    afc0:	48 8d 85 74 f0 ff ff 	lea    -0xf8c(%rbp),%rax
    afc7:	48 89 85 88 fc ff ff 	mov    %rax,-0x378(%rbp)
    afce:	48 8d 85 5c f0 ff ff 	lea    -0xfa4(%rbp),%rax
    afd5:	48 89 85 90 fc ff ff 	mov    %rax,-0x370(%rbp)
    afdc:	48 8d 85 6c f0 ff ff 	lea    -0xf94(%rbp),%rax
    afe3:	48 89 85 98 fc ff ff 	mov    %rax,-0x368(%rbp)
    afea:	48 8d 85 5c f0 ff ff 	lea    -0xfa4(%rbp),%rax
    aff1:	48 89 85 a0 fc ff ff 	mov    %rax,-0x360(%rbp)
    aff8:	48 8d 85 60 f0 ff ff 	lea    -0xfa0(%rbp),%rax
    afff:	48 89 85 a8 fc ff ff 	mov    %rax,-0x358(%rbp)
    b006:	48 8d 85 60 f0 ff ff 	lea    -0xfa0(%rbp),%rax
    b00d:	48 89 85 b0 fc ff ff 	mov    %rax,-0x350(%rbp)
    b014:	48 c7 85 b8 fc ff ff 	movq   $0x0,-0x348(%rbp)
    b01b:	00 00 00 00 
    b01f:	48 8d 85 5c f0 ff ff 	lea    -0xfa4(%rbp),%rax
    b026:	48 89 85 c0 fc ff ff 	mov    %rax,-0x340(%rbp)
    b02d:	48 c7 85 c8 fc ff ff 	movq   $0x0,-0x338(%rbp)
    b034:	00 00 00 00 
    b038:	48 8d 85 68 f0 ff ff 	lea    -0xf98(%rbp),%rax
    b03f:	48 89 85 d0 fc ff ff 	mov    %rax,-0x330(%rbp)
    b046:	48 8d 85 74 f0 ff ff 	lea    -0xf8c(%rbp),%rax
    b04d:	48 89 85 d8 fc ff ff 	mov    %rax,-0x328(%rbp)
    b054:	48 8d 85 68 f0 ff ff 	lea    -0xf98(%rbp),%rax
    b05b:	48 89 85 e0 fc ff ff 	mov    %rax,-0x320(%rbp)
    b062:	48 c7 85 e8 fc ff ff 	movq   $0x0,-0x318(%rbp)
    b069:	00 00 00 00 
    b06d:	48 8d 85 5c f0 ff ff 	lea    -0xfa4(%rbp),%rax
    b074:	48 89 85 f0 fc ff ff 	mov    %rax,-0x310(%rbp)
    b07b:	48 c7 85 f8 fc ff ff 	movq   $0x0,-0x308(%rbp)
    b082:	00 00 00 00 
    b086:	48 8d 85 5c f0 ff ff 	lea    -0xfa4(%rbp),%rax
    b08d:	48 89 85 00 fd ff ff 	mov    %rax,-0x300(%rbp)
    b094:	48 8d 85 70 f4 ff ff 	lea    -0xb90(%rbp),%rax
    b09b:	48 83 c0 0c          	add    $0xc,%rax
    b09f:	48 89 85 08 fd ff ff 	mov    %rax,-0x2f8(%rbp)
    b0a6:	48 8d 85 60 f0 ff ff 	lea    -0xfa0(%rbp),%rax
    b0ad:	48 89 85 10 fd ff ff 	mov    %rax,-0x2f0(%rbp)
    b0b4:	48 8d 85 70 f4 ff ff 	lea    -0xb90(%rbp),%rax
    b0bb:	48 83 c0 0c          	add    $0xc,%rax
    b0bf:	48 89 85 18 fd ff ff 	mov    %rax,-0x2e8(%rbp)
    b0c6:	48 8d 85 70 f4 ff ff 	lea    -0xb90(%rbp),%rax
    b0cd:	48 83 c0 0c          	add    $0xc,%rax
    b0d1:	48 89 85 20 fd ff ff 	mov    %rax,-0x2e0(%rbp)
    b0d8:	48 8d 05 49 7f 00 00 	lea    0x7f49(%rip),%rax        # 13028 <g_43>
    b0df:	48 89 85 28 fd ff ff 	mov    %rax,-0x2d8(%rbp)
    b0e6:	48 c7 85 30 fd ff ff 	movq   $0x0,-0x2d0(%rbp)
    b0ed:	00 00 00 00 
    b0f1:	48 8d 85 6c f0 ff ff 	lea    -0xf94(%rbp),%rax
    b0f8:	48 89 85 38 fd ff ff 	mov    %rax,-0x2c8(%rbp)
    b0ff:	48 8d 85 78 f0 ff ff 	lea    -0xf88(%rbp),%rax
    b106:	48 89 85 40 fd ff ff 	mov    %rax,-0x2c0(%rbp)
    b10d:	48 8d 05 10 7f 00 00 	lea    0x7f10(%rip),%rax        # 13024 <g_18>
    b114:	48 89 85 48 fd ff ff 	mov    %rax,-0x2b8(%rbp)
    b11b:	48 8d 85 5c f0 ff ff 	lea    -0xfa4(%rbp),%rax
    b122:	48 89 85 50 fd ff ff 	mov    %rax,-0x2b0(%rbp)
    b129:	48 8d 85 68 f0 ff ff 	lea    -0xf98(%rbp),%rax
    b130:	48 89 85 58 fd ff ff 	mov    %rax,-0x2a8(%rbp)
    b137:	48 8d 85 74 f0 ff ff 	lea    -0xf8c(%rbp),%rax
    b13e:	48 89 85 60 fd ff ff 	mov    %rax,-0x2a0(%rbp)
    b145:	48 8d 05 d8 7e 00 00 	lea    0x7ed8(%rip),%rax        # 13024 <g_18>
    b14c:	48 89 85 68 fd ff ff 	mov    %rax,-0x298(%rbp)
    b153:	48 8d 85 5c f0 ff ff 	lea    -0xfa4(%rbp),%rax
    b15a:	48 89 85 70 fd ff ff 	mov    %rax,-0x290(%rbp)
    b161:	48 8d 05 c0 7e 00 00 	lea    0x7ec0(%rip),%rax        # 13028 <g_43>
    b168:	48 89 85 78 fd ff ff 	mov    %rax,-0x288(%rbp)
    b16f:	48 8d 85 70 f4 ff ff 	lea    -0xb90(%rbp),%rax
    b176:	48 83 c0 0c          	add    $0xc,%rax
    b17a:	48 89 85 80 fd ff ff 	mov    %rax,-0x280(%rbp)
    b181:	48 8d 05 a8 81 00 00 	lea    0x81a8(%rip),%rax        # 13330 <g_745>
    b188:	48 89 85 88 fd ff ff 	mov    %rax,-0x278(%rbp)
    b18f:	48 8d 85 5c f0 ff ff 	lea    -0xfa4(%rbp),%rax
    b196:	48 89 85 90 fd ff ff 	mov    %rax,-0x270(%rbp)
    b19d:	48 c7 85 98 fd ff ff 	movq   $0x0,-0x268(%rbp)
    b1a4:	00 00 00 00 
    b1a8:	48 8d 85 5c f0 ff ff 	lea    -0xfa4(%rbp),%rax
    b1af:	48 89 85 a0 fd ff ff 	mov    %rax,-0x260(%rbp)
    b1b6:	48 8d 85 6c f0 ff ff 	lea    -0xf94(%rbp),%rax
    b1bd:	48 89 85 a8 fd ff ff 	mov    %rax,-0x258(%rbp)
    b1c4:	48 8d 05 59 7e 00 00 	lea    0x7e59(%rip),%rax        # 13024 <g_18>
    b1cb:	48 89 85 b0 fd ff ff 	mov    %rax,-0x250(%rbp)
    b1d2:	48 8d 05 57 81 00 00 	lea    0x8157(%rip),%rax        # 13330 <g_745>
    b1d9:	48 89 85 b8 fd ff ff 	mov    %rax,-0x248(%rbp)
    b1e0:	48 8d 85 5c f0 ff ff 	lea    -0xfa4(%rbp),%rax
    b1e7:	48 89 85 c0 fd ff ff 	mov    %rax,-0x240(%rbp)
    b1ee:	48 8d 85 74 f0 ff ff 	lea    -0xf8c(%rbp),%rax
    b1f5:	48 89 85 c8 fd ff ff 	mov    %rax,-0x238(%rbp)
    b1fc:	48 8d 85 5c f0 ff ff 	lea    -0xfa4(%rbp),%rax
    b203:	48 89 85 d0 fd ff ff 	mov    %rax,-0x230(%rbp)
    b20a:	48 8d 85 64 f0 ff ff 	lea    -0xf9c(%rbp),%rax
    b211:	48 89 85 d8 fd ff ff 	mov    %rax,-0x228(%rbp)
    b218:	48 8d 85 64 f0 ff ff 	lea    -0xf9c(%rbp),%rax
    b21f:	48 89 85 e0 fd ff ff 	mov    %rax,-0x220(%rbp)
    b226:	48 8d 85 64 f0 ff ff 	lea    -0xf9c(%rbp),%rax
    b22d:	48 89 85 e8 fd ff ff 	mov    %rax,-0x218(%rbp)
    b234:	c6 85 4b f0 ff ff fb 	movb   $0xfb,-0xfb5(%rbp)
    b23b:	c7 85 2c f0 ff ff 03 	movl   $0x3,-0xfd4(%rbp)
    b242:	00 00 00 
    b245:	e9 22 01 00 00       	jmpq   b36c <func_30+0x38c7>
    b24a:	c6 85 4c f0 ff ff 1b 	movb   $0x1b,-0xfb4(%rbp)
    b251:	48 8d 85 74 f0 ff ff 	lea    -0xf8c(%rbp),%rax
    b258:	48 89 85 18 f3 ff ff 	mov    %rax,-0xce8(%rbp)
    b25f:	8b 85 78 f0 ff ff    	mov    -0xf88(%rbp),%eax
    b265:	85 c0                	test   %eax,%eax
    b267:	0f 85 10 01 00 00    	jne    b37d <func_30+0x38d8>
    b26d:	48 8b 05 fc 93 00 00 	mov    0x93fc(%rip),%rax        # 14670 <g_970>
    b274:	48 8b 00             	mov    (%rax),%rax
    b277:	48 39 85 f8 f2 ff ff 	cmp    %rax,-0xd08(%rbp)
    b27e:	0f 94 c0             	sete   %al
    b281:	0f b6 c0             	movzbl %al,%eax
    b284:	be 05 00 00 00       	mov    $0x5,%esi
    b289:	89 c7                	mov    %eax,%edi
    b28b:	e8 75 a9 ff ff       	callq  5c05 <safe_lshift_func_uint8_t_u_s>
    b290:	0f b6 c0             	movzbl %al,%eax
    b293:	89 c6                	mov    %eax,%esi
    b295:	bf 00 00 00 00       	mov    $0x0,%edi
    b29a:	e8 9e aa ff ff       	callq  5d3d <safe_mul_func_uint16_t_u_u>
    b29f:	8b 85 78 f0 ff ff    	mov    -0xf88(%rbp),%eax
    b2a5:	85 c0                	test   %eax,%eax
    b2a7:	48 8b 05 da 93 00 00 	mov    0x93da(%rip),%rax        # 14688 <g_1105>
    b2ae:	0f b6 00             	movzbl (%rax),%eax
    b2b1:	88 05 82 7d 00 00    	mov    %al,0x7d82(%rip)        # 13039 <g_110>
    b2b7:	0f b6 05 7b 7d 00 00 	movzbl 0x7d7b(%rip),%eax        # 13039 <g_110>
    b2be:	0f be d8             	movsbl %al,%ebx
    b2c1:	8b 85 2c f0 ff ff    	mov    -0xfd4(%rbp),%eax
    b2c7:	0f b7 d0             	movzwl %ax,%edx
    b2ca:	48 83 bd f0 f2 ff ff 	cmpq   $0x0,-0xd10(%rbp)
    b2d1:	00 
    b2d2:	0f 94 c0             	sete   %al
    b2d5:	0f b6 c0             	movzbl %al,%eax
    b2d8:	89 d6                	mov    %edx,%esi
    b2da:	89 c7                	mov    %eax,%edi
    b2dc:	e8 5c aa ff ff       	callq  5d3d <safe_mul_func_uint16_t_u_u>
    b2e1:	0f b7 c0             	movzwl %ax,%eax
    b2e4:	f7 d0                	not    %eax
    b2e6:	39 c3                	cmp    %eax,%ebx
    b2e8:	8b 85 2c f0 ff ff    	mov    -0xfd4(%rbp),%eax
    b2ee:	83 f8 01             	cmp    $0x1,%eax
    b2f1:	48 8b 05 98 93 00 00 	mov    0x9398(%rip),%rax        # 14690 <g_1187>
    b2f8:	8b 10                	mov    (%rax),%edx
    b2fa:	8b 85 64 f0 ff ff    	mov    -0xf9c(%rbp),%eax
    b300:	39 c2                	cmp    %eax,%edx
    b302:	74 07                	je     b30b <func_30+0x3866>
    b304:	ba 01 00 00 00       	mov    $0x1,%edx
    b309:	eb 05                	jmp    b310 <func_30+0x386b>
    b30b:	ba 00 00 00 00       	mov    $0x0,%edx
    b310:	48 8b 85 18 f3 ff ff 	mov    -0xce8(%rbp),%rax
    b317:	89 10                	mov    %edx,(%rax)
    b319:	48 8b 85 18 f3 ff ff 	mov    -0xce8(%rbp),%rax
    b320:	c7 00 da 19 c3 b2    	movl   $0xb2c319da,(%rax)
    b326:	48 8b 05 33 90 00 00 	mov    0x9033(%rip),%rax        # 14360 <g_273>
    b32d:	0f b6 00             	movzbl (%rax),%eax
    b330:	0f b6 c0             	movzbl %al,%eax
    b333:	39 85 28 f0 ff ff    	cmp    %eax,-0xfd8(%rbp)
    b339:	0f 95 c0             	setne  %al
    b33c:	0f b6 d0             	movzbl %al,%edx
    b33f:	8b 85 2c f0 ff ff    	mov    -0xfd4(%rbp),%eax
    b345:	0f b6 c0             	movzbl %al,%eax
    b348:	89 d6                	mov    %edx,%esi
    b34a:	89 c7                	mov    %eax,%edi
    b34c:	e8 09 a8 ff ff       	callq  5b5a <safe_add_func_uint8_t_u_u>
    b351:	0f b6 d0             	movzbl %al,%edx
    b354:	48 8b 85 18 f3 ff ff 	mov    -0xce8(%rbp),%rax
    b35b:	89 10                	mov    %edx,(%rax)
    b35d:	8b 85 2c f0 ff ff    	mov    -0xfd4(%rbp),%eax
    b363:	83 c0 01             	add    $0x1,%eax
    b366:	89 85 2c f0 ff ff    	mov    %eax,-0xfd4(%rbp)
    b36c:	8b 85 2c f0 ff ff    	mov    -0xfd4(%rbp),%eax
    b372:	83 f8 05             	cmp    $0x5,%eax
    b375:	0f 84 cf fe ff ff    	je     b24a <func_30+0x37a5>
    b37b:	eb 01                	jmp    b37e <func_30+0x38d9>
    b37d:	90                   	nop
    b37e:	8b 9d 2c f0 ff ff    	mov    -0xfd4(%rbp),%ebx
    b384:	8b 05 5a 81 00 00    	mov    0x815a(%rip),%eax        # 134e4 <g_1451>
    b38a:	48 8b 05 cf 92 00 00 	mov    0x92cf(%rip),%rax        # 14660 <g_967>
    b391:	48 8b 00             	mov    (%rax),%rax
    b394:	48 8b 10             	mov    (%rax),%rdx
    b397:	8b 85 2c f0 ff ff    	mov    -0xfd4(%rbp),%eax
    b39d:	f7 d0                	not    %eax
    b39f:	48 98                	cltq   
    b3a1:	48 39 c2             	cmp    %rax,%rdx
    b3a4:	0f 94 c0             	sete   %al
    b3a7:	0f b6 c0             	movzbl %al,%eax
    b3aa:	f7 d0                	not    %eax
    b3ac:	41 89 c4             	mov    %eax,%r12d
    b3af:	8b 85 44 f4 ff ff    	mov    -0xbbc(%rbp),%eax
    b3b5:	8b 95 78 f0 ff ff    	mov    -0xf88(%rbp),%edx
    b3bb:	83 e2 01             	and    $0x1,%edx
    b3be:	89 c6                	mov    %eax,%esi
    b3c0:	89 d7                	mov    %edx,%edi
    b3c2:	e8 09 ab ff ff       	callq  5ed0 <safe_sub_func_uint32_t_u_u>
    b3c7:	39 85 e0 f0 ff ff    	cmp    %eax,-0xf20(%rbp)
    b3cd:	0f 93 c0             	setae  %al
    b3d0:	0f b6 d0             	movzbl %al,%edx
    b3d3:	8b 85 74 f0 ff ff    	mov    -0xf8c(%rbp),%eax
    b3d9:	39 c2                	cmp    %eax,%edx
    b3db:	0f 95 c0             	setne  %al
    b3de:	0f b6 c0             	movzbl %al,%eax
    b3e1:	41 39 c4             	cmp    %eax,%r12d
    b3e4:	0f 9c c0             	setl   %al
    b3e7:	0f b6 d0             	movzbl %al,%edx
    b3ea:	8b 85 70 f4 ff ff    	mov    -0xb90(%rbp),%eax
    b3f0:	39 c2                	cmp    %eax,%edx
    b3f2:	0f 9d c0             	setge  %al
    b3f5:	0f b6 c0             	movzbl %al,%eax
    b3f8:	89 de                	mov    %ebx,%esi
    b3fa:	89 c7                	mov    %eax,%edi
    b3fc:	e8 b5 a1 ff ff       	callq  55b6 <safe_add_func_int32_t_s_s>
    b401:	89 c7                	mov    %eax,%edi
    b403:	e8 8e a1 ff ff       	callq  5596 <safe_unary_minus_func_int32_t_s>
    b408:	48 8b 95 08 f3 ff ff 	mov    -0xcf8(%rbp),%rdx
    b40f:	8b 12                	mov    (%rdx),%edx
    b411:	09 c2                	or     %eax,%edx
    b413:	48 8b 85 08 f3 ff ff 	mov    -0xcf8(%rbp),%rax
    b41a:	89 10                	mov    %edx,(%rax)
    b41c:	0f b6 85 4b f0 ff ff 	movzbl -0xfb5(%rbp),%eax
    b423:	83 e8 01             	sub    $0x1,%eax
    b426:	88 85 4b f0 ff ff    	mov    %al,-0xfb5(%rbp)
    b42c:	e9 3c 03 00 00       	jmpq   b76d <func_30+0x3cc8>
    b431:	c6 85 4a f0 ff ff 01 	movb   $0x1,-0xfb6(%rbp)
    b438:	48 8d 05 61 92 00 00 	lea    0x9261(%rip),%rax        # 146a0 <g_1225>
    b43f:	48 89 85 e0 f2 ff ff 	mov    %rax,-0xd20(%rbp)
    b446:	48 8d 05 43 89 00 00 	lea    0x8943(%rip),%rax        # 13d90 <g_99+0x110>
    b44d:	48 89 85 e8 f2 ff ff 	mov    %rax,-0xd18(%rbp)
    b454:	0f b6 05 89 7c 00 00 	movzbl 0x7c89(%rip),%eax        # 130e4 <g_670>
    b45b:	66 98                	cbtw   
    b45d:	0f b7 d8             	movzwl %ax,%ebx
    b460:	48 8b 05 71 7c 00 00 	mov    0x7c71(%rip),%rax        # 130d8 <g_577>
    b467:	44 0f bf e0          	movswl %ax,%r12d
    b46b:	8b 85 6c f0 ff ff    	mov    -0xf94(%rbp),%eax
    b471:	88 85 4a f0 ff ff    	mov    %al,-0xfb6(%rbp)
    b477:	0f b6 85 4a f0 ff ff 	movzbl -0xfb6(%rbp),%eax
    b47e:	0f b6 d0             	movzbl %al,%edx
    b481:	8b 85 dc f0 ff ff    	mov    -0xf24(%rbp),%eax
    b487:	89 c1                	mov    %eax,%ecx
    b489:	0f b6 05 4d 80 00 00 	movzbl 0x804d(%rip),%eax        # 134dd <g_1418>
    b490:	31 c8                	xor    %ecx,%eax
    b492:	0f b6 c0             	movzbl %al,%eax
    b495:	89 d6                	mov    %edx,%esi
    b497:	89 c7                	mov    %eax,%edi
    b499:	e8 f5 a6 ff ff       	callq  5b93 <safe_mul_func_uint8_t_u_u>
    b49e:	0f b6 c0             	movzbl %al,%eax
    b4a1:	be eb 1f 00 00       	mov    $0x1feb,%esi
    b4a6:	89 c7                	mov    %eax,%edi
    b4a8:	e8 90 a8 ff ff       	callq  5d3d <safe_mul_func_uint16_t_u_u>
    b4ad:	0f b7 c0             	movzwl %ax,%eax
    b4b0:	39 85 bc f0 ff ff    	cmp    %eax,-0xf44(%rbp)
    b4b6:	72 09                	jb     b4c1 <func_30+0x3a1c>
    b4b8:	83 bd 28 f0 ff ff 00 	cmpl   $0x0,-0xfd8(%rbp)
    b4bf:	74 07                	je     b4c8 <func_30+0x3a23>
    b4c1:	ba 01 00 00 00       	mov    $0x1,%edx
    b4c6:	eb 05                	jmp    b4cd <func_30+0x3a28>
    b4c8:	ba 00 00 00 00       	mov    $0x0,%edx
    b4cd:	0f b7 05 6c 7b 00 00 	movzwl 0x7b6c(%rip),%eax        # 13040 <g_119>
    b4d4:	98                   	cwtl   
    b4d5:	39 c2                	cmp    %eax,%edx
    b4d7:	0f 9e c0             	setle  %al
    b4da:	f7 d0                	not    %eax
    b4dc:	0f be d0             	movsbl %al,%edx
    b4df:	48 8b 05 a2 91 00 00 	mov    0x91a2(%rip),%rax        # 14688 <g_1105>
    b4e6:	0f b6 00             	movzbl (%rax),%eax
    b4e9:	0f be c0             	movsbl %al,%eax
    b4ec:	89 d6                	mov    %edx,%esi
    b4ee:	89 c7                	mov    %eax,%edi
    b4f0:	e8 fd 9c ff ff       	callq  51f2 <safe_sub_func_int8_t_s_s>
    b4f5:	89 c2                	mov    %eax,%edx
    b4f7:	48 8b 05 6a 8e 00 00 	mov    0x8e6a(%rip),%rax        # 14368 <g_272>
    b4fe:	48 8b 00             	mov    (%rax),%rax
    b501:	88 10                	mov    %dl,(%rax)
    b503:	44 89 e6             	mov    %r12d,%esi
    b506:	bf 01 00 00 00       	mov    $0x1,%edi
    b50b:	e8 06 9f ff ff       	callq  5416 <safe_mod_func_int16_t_s_s>
    b510:	66 83 f8 f6          	cmp    $0xfff6,%ax
    b514:	0f b6 05 ad 7f 00 00 	movzbl 0x7fad(%rip),%eax        # 134c8 <g_1189>
    b51b:	0f be c0             	movsbl %al,%eax
    b51e:	be ce 86 ff ff       	mov    $0xffff86ce,%esi
    b523:	89 c7                	mov    %eax,%edi
    b525:	e8 a9 9e ff ff       	callq  53d3 <safe_sub_func_int16_t_s_s>
    b52a:	89 c2                	mov    %eax,%edx
    b52c:	48 8b 05 6d 91 00 00 	mov    0x916d(%rip),%rax        # 146a0 <g_1225>
    b533:	0f bf d2             	movswl %dx,%edx
    b536:	89 10                	mov    %edx,(%rax)
    b538:	8b 10                	mov    (%rax),%edx
    b53a:	8b 85 68 f0 ff ff    	mov    -0xf98(%rbp),%eax
    b540:	39 c2                	cmp    %eax,%edx
    b542:	0f 9e c0             	setle  %al
    b545:	0f b6 c0             	movzbl %al,%eax
    b548:	89 85 68 f0 ff ff    	mov    %eax,-0xf98(%rbp)
    b54e:	8b 85 68 f0 ff ff    	mov    -0xf98(%rbp),%eax
    b554:	0f b7 c0             	movzwl %ax,%eax
    b557:	89 de                	mov    %ebx,%esi
    b559:	89 c7                	mov    %eax,%edi
    b55b:	e8 fc a7 ff ff       	callq  5d5c <safe_mod_func_uint16_t_u_u>
    b560:	48 8b 05 99 90 00 00 	mov    0x9099(%rip),%rax        # 14600 <g_532>
    b567:	48 8b 10             	mov    (%rax),%rdx
    b56a:	48 8b 85 e0 f2 ff ff 	mov    -0xd20(%rbp),%rax
    b571:	48 89 10             	mov    %rdx,(%rax)
    b574:	48 8b 85 e0 f2 ff ff 	mov    -0xd20(%rbp),%rax
    b57b:	48 8b 10             	mov    (%rax),%rdx
    b57e:	48 8b 85 e8 f2 ff ff 	mov    -0xd18(%rbp),%rax
    b585:	48 89 10             	mov    %rdx,(%rax)
    b588:	48 8b 85 e8 f2 ff ff 	mov    -0xd18(%rbp),%rax
    b58f:	48 8b 00             	mov    (%rax),%rax
    b592:	48 89 85 38 f0 ff ff 	mov    %rax,-0xfc8(%rbp)
    b599:	c7 85 78 f0 ff ff 00 	movl   $0x0,-0xf88(%rbp)
    b5a0:	00 00 00 
    b5a3:	e9 b6 01 00 00       	jmpq   b75e <func_30+0x3cb9>
    b5a8:	48 c7 85 f0 f8 ff ff 	movq   $0x0,-0x710(%rbp)
    b5af:	00 00 00 00 
    b5b3:	48 8d 85 60 f0 ff ff 	lea    -0xfa0(%rbp),%rax
    b5ba:	48 89 85 f8 f8 ff ff 	mov    %rax,-0x708(%rbp)
    b5c1:	48 8d 85 60 f0 ff ff 	lea    -0xfa0(%rbp),%rax
    b5c8:	48 89 85 00 f9 ff ff 	mov    %rax,-0x700(%rbp)
    b5cf:	48 c7 85 08 f9 ff ff 	movq   $0x0,-0x6f8(%rbp)
    b5d6:	00 00 00 00 
    b5da:	48 8d 85 60 f0 ff ff 	lea    -0xfa0(%rbp),%rax
    b5e1:	48 89 85 10 f9 ff ff 	mov    %rax,-0x6f0(%rbp)
    b5e8:	48 8d 85 74 f0 ff ff 	lea    -0xf8c(%rbp),%rax
    b5ef:	48 89 85 18 f9 ff ff 	mov    %rax,-0x6e8(%rbp)
    b5f6:	48 8d 85 74 f0 ff ff 	lea    -0xf8c(%rbp),%rax
    b5fd:	48 89 85 20 f9 ff ff 	mov    %rax,-0x6e0(%rbp)
    b604:	48 8d 85 60 f0 ff ff 	lea    -0xfa0(%rbp),%rax
    b60b:	48 89 85 28 f9 ff ff 	mov    %rax,-0x6d8(%rbp)
    b612:	48 8d 85 74 f0 ff ff 	lea    -0xf8c(%rbp),%rax
    b619:	48 89 85 30 f9 ff ff 	mov    %rax,-0x6d0(%rbp)
    b620:	48 8d 85 74 f0 ff ff 	lea    -0xf8c(%rbp),%rax
    b627:	48 89 85 38 f9 ff ff 	mov    %rax,-0x6c8(%rbp)
    b62e:	48 8d 85 60 f0 ff ff 	lea    -0xfa0(%rbp),%rax
    b635:	48 89 85 40 f9 ff ff 	mov    %rax,-0x6c0(%rbp)
    b63c:	48 c7 85 48 f9 ff ff 	movq   $0x0,-0x6b8(%rbp)
    b643:	00 00 00 00 
    b647:	48 8d 85 60 f0 ff ff 	lea    -0xfa0(%rbp),%rax
    b64e:	48 89 85 50 f9 ff ff 	mov    %rax,-0x6b0(%rbp)
    b655:	48 8d 85 60 f0 ff ff 	lea    -0xfa0(%rbp),%rax
    b65c:	48 89 85 58 f9 ff ff 	mov    %rax,-0x6a8(%rbp)
    b663:	48 c7 85 60 f9 ff ff 	movq   $0x0,-0x6a0(%rbp)
    b66a:	00 00 00 00 
    b66e:	48 8d 85 74 f0 ff ff 	lea    -0xf8c(%rbp),%rax
    b675:	48 89 85 68 f9 ff ff 	mov    %rax,-0x698(%rbp)
    b67c:	48 8d 85 5c f0 ff ff 	lea    -0xfa4(%rbp),%rax
    b683:	48 89 85 70 f9 ff ff 	mov    %rax,-0x690(%rbp)
    b68a:	48 8d 85 5c f0 ff ff 	lea    -0xfa4(%rbp),%rax
    b691:	48 89 85 78 f9 ff ff 	mov    %rax,-0x688(%rbp)
    b698:	48 8d 85 74 f0 ff ff 	lea    -0xf8c(%rbp),%rax
    b69f:	48 89 85 80 f9 ff ff 	mov    %rax,-0x680(%rbp)
    b6a6:	48 8d 85 5c f0 ff ff 	lea    -0xfa4(%rbp),%rax
    b6ad:	48 89 85 88 f9 ff ff 	mov    %rax,-0x678(%rbp)
    b6b4:	48 c7 85 90 f9 ff ff 	movq   $0x0,-0x670(%rbp)
    b6bb:	00 00 00 00 
    b6bf:	48 c7 85 98 f9 ff ff 	movq   $0x0,-0x668(%rbp)
    b6c6:	00 00 00 00 
    b6ca:	48 8d 85 64 f0 ff ff 	lea    -0xf9c(%rbp),%rax
    b6d1:	48 89 85 a0 f9 ff ff 	mov    %rax,-0x660(%rbp)
    b6d8:	48 c7 85 a8 f9 ff ff 	movq   $0x0,-0x658(%rbp)
    b6df:	00 00 00 00 
    b6e3:	48 c7 85 b0 f9 ff ff 	movq   $0x0,-0x650(%rbp)
    b6ea:	00 00 00 00 
    b6ee:	48 8d 85 5c f0 ff ff 	lea    -0xfa4(%rbp),%rax
    b6f5:	48 89 85 b8 f9 ff ff 	mov    %rax,-0x648(%rbp)
    b6fc:	48 8d 85 74 f0 ff ff 	lea    -0xf8c(%rbp),%rax
    b703:	48 89 85 c0 f9 ff ff 	mov    %rax,-0x640(%rbp)
    b70a:	48 8d 85 5c f0 ff ff 	lea    -0xfa4(%rbp),%rax
    b711:	48 89 85 c8 f9 ff ff 	mov    %rax,-0x638(%rbp)
    b718:	48 8d 85 5c f0 ff ff 	lea    -0xfa4(%rbp),%rax
    b71f:	48 89 85 d0 f9 ff ff 	mov    %rax,-0x630(%rbp)
    b726:	48 8d 85 74 f0 ff ff 	lea    -0xf8c(%rbp),%rax
    b72d:	48 89 85 d8 f9 ff ff 	mov    %rax,-0x628(%rbp)
    b734:	8b 85 b4 f0 ff ff    	mov    -0xf4c(%rbp),%eax
    b73a:	33 85 e0 f0 ff ff    	xor    -0xf20(%rbp),%eax
    b740:	89 85 b4 f0 ff ff    	mov    %eax,-0xf4c(%rbp)
    b746:	8b 85 78 f0 ff ff    	mov    -0xf88(%rbp),%eax
    b74c:	be 02 00 00 00       	mov    $0x2,%esi
    b751:	89 c7                	mov    %eax,%edi
    b753:	e8 ad 9e ff ff       	callq  5605 <safe_sub_func_int32_t_s_s>
    b758:	89 85 78 f0 ff ff    	mov    %eax,-0xf88(%rbp)
    b75e:	8b 85 78 f0 ff ff    	mov    -0xf88(%rbp),%eax
    b764:	83 f8 e9             	cmp    $0xffffffe9,%eax
    b767:	0f 8c 3b fe ff ff    	jl     b5a8 <func_30+0x3b03>
    b76d:	c6 85 46 f0 ff ff 00 	movb   $0x0,-0xfba(%rbp)
    b774:	e9 9c 00 00 00       	jmpq   b815 <func_30+0x3d70>
    b779:	c7 85 e8 f0 ff ff f7 	movl   $0x2bafc3f7,-0xf18(%rbp)
    b780:	c3 af 2b 
    b783:	8b 85 2c f0 ff ff    	mov    -0xfd4(%rbp),%eax
    b789:	83 f8 fd             	cmp    $0xfffffffd,%eax
    b78c:	0f 97 c0             	seta   %al
    b78f:	0f b6 c0             	movzbl %al,%eax
    b792:	09 85 e8 f0 ff ff    	or     %eax,-0xf18(%rbp)
    b798:	c6 05 2e 79 00 00 ff 	movb   $0xff,0x792e(%rip)        # 130cd <g_552>
    b79f:	eb 1a                	jmp    b7bb <func_30+0x3d16>
    b7a1:	8b 85 64 f0 ff ff    	mov    -0xf9c(%rbp),%eax
    b7a7:	85 c0                	test   %eax,%eax
    b7a9:	75 1d                	jne    b7c8 <func_30+0x3d23>
    b7ab:	0f b6 05 1b 79 00 00 	movzbl 0x791b(%rip),%eax        # 130cd <g_552>
    b7b2:	83 c0 01             	add    $0x1,%eax
    b7b5:	88 05 12 79 00 00    	mov    %al,0x7912(%rip)        # 130cd <g_552>
    b7bb:	0f b6 05 0b 79 00 00 	movzbl 0x790b(%rip),%eax        # 130cd <g_552>
    b7c2:	3c 21                	cmp    $0x21,%al
    b7c4:	75 db                	jne    b7a1 <func_30+0x3cfc>
    b7c6:	eb 01                	jmp    b7c9 <func_30+0x3d24>
    b7c8:	90                   	nop
    b7c9:	83 bd e8 f0 ff ff 00 	cmpl   $0x0,-0xf18(%rbp)
    b7d0:	0f 85 8f 00 00 00    	jne    b865 <func_30+0x3dc0>
    b7d6:	48 8d 85 78 f0 ff ff 	lea    -0xf88(%rbp),%rax
    b7dd:	48 89 c7             	mov    %rax,%rdi
    b7e0:	e8 55 09 00 00       	callq  c13a <func_35>
    b7e5:	48 89 c7             	mov    %rax,%rdi
    b7e8:	e8 4d 09 00 00       	callq  c13a <func_35>
    b7ed:	48 89 c7             	mov    %rax,%rdi
    b7f0:	e8 45 09 00 00       	callq  c13a <func_35>
    b7f5:	48 89 85 d0 f1 ff ff 	mov    %rax,-0xe30(%rbp)
    b7fc:	0f b6 85 46 f0 ff ff 	movzbl -0xfba(%rbp),%eax
    b803:	be 05 00 00 00       	mov    $0x5,%esi
    b808:	89 c7                	mov    %eax,%edi
    b80a:	e8 a4 9b ff ff       	callq  53b3 <safe_add_func_int16_t_s_s>
    b80f:	88 85 46 f0 ff ff    	mov    %al,-0xfba(%rbp)
    b815:	80 bd 46 f0 ff ff 37 	cmpb   $0x37,-0xfba(%rbp)
    b81c:	0f 86 57 ff ff ff    	jbe    b779 <func_30+0x3cd4>
    b822:	eb 42                	jmp    b866 <func_30+0x3dc1>
    b824:	c7 85 88 f0 ff ff 00 	movl   $0x0,-0xf78(%rbp)
    b82b:	00 00 00 
    b82e:	eb 1c                	jmp    b84c <func_30+0x3da7>
    b830:	48 8b 05 69 8e 00 00 	mov    0x8e69(%rip),%rax        # 146a0 <g_1225>
    b837:	c7 00 01 00 00 00    	movl   $0x1,(%rax)
    b83d:	8b 00                	mov    (%rax),%eax
    b83f:	89 85 74 f0 ff ff    	mov    %eax,-0xf8c(%rbp)
    b845:	83 85 88 f0 ff ff 01 	addl   $0x1,-0xf78(%rbp)
    b84c:	83 bd 88 f0 ff ff 07 	cmpl   $0x7,-0xf78(%rbp)
    b853:	76 db                	jbe    b830 <func_30+0x3d8b>
    b855:	0f b6 05 6c 7c 00 00 	movzbl 0x7c6c(%rip),%eax        # 134c8 <g_1189>
    b85c:	84 c0                	test   %al,%al
    b85e:	74 06                	je     b866 <func_30+0x3dc1>
    b860:	e9 fd d5 ff ff       	jmpq   8e62 <func_30+0x13bd>
    b865:	90                   	nop
    b866:	48 8b 85 88 f2 ff ff 	mov    -0xd78(%rbp),%rax
    b86d:	8b 00                	mov    (%rax),%eax
    b86f:	0d ec 87 59 f8       	or     $0xf85987ec,%eax
    b874:	89 c2                	mov    %eax,%edx
    b876:	48 8b 85 88 f2 ff ff 	mov    -0xd78(%rbp),%rax
    b87d:	89 10                	mov    %edx,(%rax)
    b87f:	e9 03 07 00 00       	jmpq   bf87 <func_30+0x44e2>
    b884:	48 c7 85 e0 f1 ff ff 	movq   $0x0,-0xe20(%rbp)
    b88b:	00 00 00 00 
    b88f:	48 8d 05 2a 7c 00 00 	lea    0x7c2a(%rip),%rax        # 134c0 <g_1170>
    b896:	48 89 85 e8 f1 ff ff 	mov    %rax,-0xe18(%rbp)
    b89d:	48 c7 85 f0 f1 ff ff 	movq   $0x0,-0xe10(%rbp)
    b8a4:	00 00 00 00 
    b8a8:	c7 85 f0 f6 ff ff 99 	movl   $0xb499f199,-0x910(%rbp)
    b8af:	f1 99 b4 
    b8b2:	c7 85 f4 f6 ff ff 99 	movl   $0xb499f199,-0x90c(%rbp)
    b8b9:	f1 99 b4 
    b8bc:	c7 85 f8 f6 ff ff 99 	movl   $0xb499f199,-0x908(%rbp)
    b8c3:	f1 99 b4 
    b8c6:	c7 85 fc f6 ff ff 99 	movl   $0xb499f199,-0x904(%rbp)
    b8cd:	f1 99 b4 
    b8d0:	c7 85 00 f7 ff ff 99 	movl   $0xb499f199,-0x900(%rbp)
    b8d7:	f1 99 b4 
    b8da:	c7 85 04 f7 ff ff 99 	movl   $0xb499f199,-0x8fc(%rbp)
    b8e1:	f1 99 b4 
    b8e4:	c7 85 08 f7 ff ff 99 	movl   $0xb499f199,-0x8f8(%rbp)
    b8eb:	f1 99 b4 
    b8ee:	c7 85 0c f7 ff ff 99 	movl   $0xb499f199,-0x8f4(%rbp)
    b8f5:	f1 99 b4 
    b8f8:	48 c7 85 f8 f1 ff ff 	movq   $0xffffffffffffffff,-0xe08(%rbp)
    b8ff:	ff ff ff ff 
    b903:	48 8d 85 70 f0 ff ff 	lea    -0xf90(%rbp),%rax
    b90a:	48 89 85 00 f2 ff ff 	mov    %rax,-0xe00(%rbp)
    b911:	48 c7 85 08 f2 ff ff 	movq   $0x0,-0xdf8(%rbp)
    b918:	00 00 00 00 
    b91c:	48 c7 85 10 f2 ff ff 	movq   $0x0,-0xdf0(%rbp)
    b923:	00 00 00 00 
    b927:	48 c7 85 18 f2 ff ff 	movq   $0x0,-0xde8(%rbp)
    b92e:	00 00 00 00 
    b932:	c7 85 7c f0 ff ff 00 	movl   $0x0,-0xf84(%rbp)
    b939:	00 00 00 
    b93c:	eb 1a                	jmp    b958 <func_30+0x3eb3>
    b93e:	8b 85 7c f0 ff ff    	mov    -0xf84(%rbp),%eax
    b944:	48 98                	cltq   
    b946:	c7 84 85 80 f5 ff ff 	movl   $0x0,-0xa80(%rbp,%rax,4)
    b94d:	00 00 00 00 
    b951:	83 85 7c f0 ff ff 01 	addl   $0x1,-0xf84(%rbp)
    b958:	83 bd 7c f0 ff ff 04 	cmpl   $0x4,-0xf84(%rbp)
    b95f:	7e dd                	jle    b93e <func_30+0x3e99>
    b961:	90                   	nop
    b962:	48 8b 85 e0 f1 ff ff 	mov    -0xe20(%rbp),%rax
    b969:	48 89 85 e8 f1 ff ff 	mov    %rax,-0xe18(%rbp)
    b970:	48 8b 85 e8 f1 ff ff 	mov    -0xe18(%rbp),%rax
    b977:	48 3b 85 e0 f1 ff ff 	cmp    -0xe20(%rbp),%rax
    b97e:	0f 94 c2             	sete   %dl
    b981:	48 8b 05 18 8d 00 00 	mov    0x8d18(%rip),%rax        # 146a0 <g_1225>
    b988:	0f b6 d2             	movzbl %dl,%edx
    b98b:	89 10                	mov    %edx,(%rax)
    b98d:	c7 85 68 f0 ff ff 12 	movl   $0x12,-0xf98(%rbp)
    b994:	00 00 00 
    b997:	e9 f3 01 00 00       	jmpq   bb8f <func_30+0x40ea>
    b99c:	48 8d 05 1d 8d 00 00 	lea    0x8d1d(%rip),%rax        # 146c0 <g_1288>
    b9a3:	48 89 85 f0 f8 ff ff 	mov    %rax,-0x710(%rbp)
    b9aa:	48 8d 05 0f 8d 00 00 	lea    0x8d0f(%rip),%rax        # 146c0 <g_1288>
    b9b1:	48 89 85 f8 f8 ff ff 	mov    %rax,-0x708(%rbp)
    b9b8:	48 8d 05 01 8d 00 00 	lea    0x8d01(%rip),%rax        # 146c0 <g_1288>
    b9bf:	48 89 85 00 f9 ff ff 	mov    %rax,-0x700(%rbp)
    b9c6:	48 8d 05 f3 8c 00 00 	lea    0x8cf3(%rip),%rax        # 146c0 <g_1288>
    b9cd:	48 89 85 08 f9 ff ff 	mov    %rax,-0x6f8(%rbp)
    b9d4:	48 8d 05 e5 8c 00 00 	lea    0x8ce5(%rip),%rax        # 146c0 <g_1288>
    b9db:	48 89 85 10 f9 ff ff 	mov    %rax,-0x6f0(%rbp)
    b9e2:	48 8d 05 d7 8c 00 00 	lea    0x8cd7(%rip),%rax        # 146c0 <g_1288>
    b9e9:	48 89 85 18 f9 ff ff 	mov    %rax,-0x6e8(%rbp)
    b9f0:	48 8d 05 c9 8c 00 00 	lea    0x8cc9(%rip),%rax        # 146c0 <g_1288>
    b9f7:	48 89 85 20 f9 ff ff 	mov    %rax,-0x6e0(%rbp)
    b9fe:	48 8d 05 bb 8c 00 00 	lea    0x8cbb(%rip),%rax        # 146c0 <g_1288>
    ba05:	48 89 85 28 f9 ff ff 	mov    %rax,-0x6d8(%rbp)
    ba0c:	48 8d 05 ad 8c 00 00 	lea    0x8cad(%rip),%rax        # 146c0 <g_1288>
    ba13:	48 89 85 30 f9 ff ff 	mov    %rax,-0x6d0(%rbp)
    ba1a:	48 8d 05 9f 8c 00 00 	lea    0x8c9f(%rip),%rax        # 146c0 <g_1288>
    ba21:	48 89 85 38 f9 ff ff 	mov    %rax,-0x6c8(%rbp)
    ba28:	48 8d 05 91 8c 00 00 	lea    0x8c91(%rip),%rax        # 146c0 <g_1288>
    ba2f:	48 89 85 40 f9 ff ff 	mov    %rax,-0x6c0(%rbp)
    ba36:	48 8d 05 83 8c 00 00 	lea    0x8c83(%rip),%rax        # 146c0 <g_1288>
    ba3d:	48 89 85 48 f9 ff ff 	mov    %rax,-0x6b8(%rbp)
    ba44:	48 8d 05 75 8c 00 00 	lea    0x8c75(%rip),%rax        # 146c0 <g_1288>
    ba4b:	48 89 85 50 f9 ff ff 	mov    %rax,-0x6b0(%rbp)
    ba52:	48 8d 05 67 8c 00 00 	lea    0x8c67(%rip),%rax        # 146c0 <g_1288>
    ba59:	48 89 85 58 f9 ff ff 	mov    %rax,-0x6a8(%rbp)
    ba60:	48 8d 05 59 8c 00 00 	lea    0x8c59(%rip),%rax        # 146c0 <g_1288>
    ba67:	48 89 85 60 f9 ff ff 	mov    %rax,-0x6a0(%rbp)
    ba6e:	48 8d 05 4b 8c 00 00 	lea    0x8c4b(%rip),%rax        # 146c0 <g_1288>
    ba75:	48 89 85 68 f9 ff ff 	mov    %rax,-0x698(%rbp)
    ba7c:	48 8d 05 3d 8c 00 00 	lea    0x8c3d(%rip),%rax        # 146c0 <g_1288>
    ba83:	48 89 85 70 f9 ff ff 	mov    %rax,-0x690(%rbp)
    ba8a:	48 8d 05 2f 8c 00 00 	lea    0x8c2f(%rip),%rax        # 146c0 <g_1288>
    ba91:	48 89 85 78 f9 ff ff 	mov    %rax,-0x688(%rbp)
    ba98:	48 8d 05 21 8c 00 00 	lea    0x8c21(%rip),%rax        # 146c0 <g_1288>
    ba9f:	48 89 85 80 f9 ff ff 	mov    %rax,-0x680(%rbp)
    baa6:	48 8d 05 13 8c 00 00 	lea    0x8c13(%rip),%rax        # 146c0 <g_1288>
    baad:	48 89 85 88 f9 ff ff 	mov    %rax,-0x678(%rbp)
    bab4:	48 8d 05 05 8c 00 00 	lea    0x8c05(%rip),%rax        # 146c0 <g_1288>
    babb:	48 89 85 90 f9 ff ff 	mov    %rax,-0x670(%rbp)
    bac2:	48 8d 05 f7 8b 00 00 	lea    0x8bf7(%rip),%rax        # 146c0 <g_1288>
    bac9:	48 89 85 98 f9 ff ff 	mov    %rax,-0x668(%rbp)
    bad0:	48 8d 05 e9 8b 00 00 	lea    0x8be9(%rip),%rax        # 146c0 <g_1288>
    bad7:	48 89 85 a0 f9 ff ff 	mov    %rax,-0x660(%rbp)
    bade:	48 8d 05 db 8b 00 00 	lea    0x8bdb(%rip),%rax        # 146c0 <g_1288>
    bae5:	48 89 85 a8 f9 ff ff 	mov    %rax,-0x658(%rbp)
    baec:	48 8d 05 cd 8b 00 00 	lea    0x8bcd(%rip),%rax        # 146c0 <g_1288>
    baf3:	48 89 85 b0 f9 ff ff 	mov    %rax,-0x650(%rbp)
    bafa:	48 8d 05 bf 8b 00 00 	lea    0x8bbf(%rip),%rax        # 146c0 <g_1288>
    bb01:	48 89 85 b8 f9 ff ff 	mov    %rax,-0x648(%rbp)
    bb08:	48 8d 05 b1 8b 00 00 	lea    0x8bb1(%rip),%rax        # 146c0 <g_1288>
    bb0f:	48 89 85 c0 f9 ff ff 	mov    %rax,-0x640(%rbp)
    bb16:	48 8d 05 a3 8b 00 00 	lea    0x8ba3(%rip),%rax        # 146c0 <g_1288>
    bb1d:	48 89 85 c8 f9 ff ff 	mov    %rax,-0x638(%rbp)
    bb24:	48 8d 05 95 8b 00 00 	lea    0x8b95(%rip),%rax        # 146c0 <g_1288>
    bb2b:	48 89 85 d0 f9 ff ff 	mov    %rax,-0x630(%rbp)
    bb32:	48 8d 05 87 8b 00 00 	lea    0x8b87(%rip),%rax        # 146c0 <g_1288>
    bb39:	48 89 85 d8 f9 ff ff 	mov    %rax,-0x628(%rbp)
    bb40:	c7 85 d0 f0 ff ff 02 	movl   $0x2,-0xf30(%rbp)
    bb47:	00 00 00 
    bb4a:	48 8d 85 30 f5 ff ff 	lea    -0xad0(%rbp),%rax
    bb51:	48 83 c0 38          	add    $0x38,%rax
    bb55:	48 89 85 60 f2 ff ff 	mov    %rax,-0xda0(%rbp)
    bb5c:	c7 85 d4 f0 ff ff 68 	movl   $0x1451d868,-0xf2c(%rbp)
    bb63:	d8 51 14 
    bb66:	c7 85 d8 f0 ff ff 08 	movl   $0x8,-0xf28(%rbp)
    bb6d:	00 00 00 
    bb70:	c6 85 49 f0 ff ff ff 	movb   $0xff,-0xfb7(%rbp)
    bb77:	8b 85 68 f0 ff ff    	mov    -0xf98(%rbp),%eax
    bb7d:	be 08 00 00 00       	mov    $0x8,%esi
    bb82:	89 c7                	mov    %eax,%edi
    bb84:	e8 47 a3 ff ff       	callq  5ed0 <safe_sub_func_uint32_t_u_u>
    bb89:	89 85 68 f0 ff ff    	mov    %eax,-0xf98(%rbp)
    bb8f:	8b 85 68 f0 ff ff    	mov    -0xf98(%rbp),%eax
    bb95:	83 f8 fa             	cmp    $0xfffffffa,%eax
    bb98:	0f 85 fe fd ff ff    	jne    b99c <func_30+0x3ef7>
    bb9e:	66 c7 85 52 f0 ff ff 	movw   $0x0,-0xfae(%rbp)
    bba5:	00 00 
    bba7:	e9 cd 03 00 00       	jmpq   bf79 <func_30+0x44d4>
    bbac:	48 c7 85 20 f2 ff ff 	movq   $0x0,-0xde0(%rbp)
    bbb3:	00 00 00 00 
    bbb7:	c7 85 90 f1 ff ff 08 	movl   $0x8,-0xe70(%rbp)
    bbbe:	00 00 00 
    bbc1:	48 8b 05 58 8e 00 00 	mov    0x8e58(%rip),%rax        # 14a20 <g_1424>
    bbc8:	48 8d 95 2c f0 ff ff 	lea    -0xfd4(%rbp),%rdx
    bbcf:	48 89 10             	mov    %rdx,(%rax)
    bbd2:	c6 05 57 78 00 00 1c 	movb   $0x1c,0x7857(%rip)        # 13430 <g_808>
    bbd9:	e9 20 03 00 00       	jmpq   befe <func_30+0x4459>
    bbde:	48 b8 14 8f 78 4c d7 	movabs $0xbc6641d74c788f14,%rax
    bbe5:	41 66 bc 
    bbe8:	48 89 85 28 f2 ff ff 	mov    %rax,-0xdd8(%rbp)
    bbef:	c7 85 cc f0 ff ff fd 	movl   $0x8bc893fd,-0xf34(%rbp)
    bbf6:	93 c8 8b 
    bbf9:	48 8d 85 90 f1 ff ff 	lea    -0xe70(%rbp),%rax
    bc00:	48 89 85 98 f1 ff ff 	mov    %rax,-0xe68(%rbp)
    bc07:	48 8d 85 98 f1 ff ff 	lea    -0xe68(%rbp),%rax
    bc0e:	48 89 85 30 f2 ff ff 	mov    %rax,-0xdd0(%rbp)
    bc15:	66 c7 05 22 74 00 00 	movw   $0x1,0x7422(%rip)        # 13040 <g_119>
    bc1c:	01 00 
    bc1e:	8b 85 2c f0 ff ff    	mov    -0xfd4(%rbp),%eax
    bc24:	85 c0                	test   %eax,%eax
    bc26:	0f 85 ad 00 00 00    	jne    bcd9 <func_30+0x4234>
    bc2c:	8b 9d 2c f0 ff ff    	mov    -0xfd4(%rbp),%ebx
    bc32:	44 0f b7 a5 52 f0 ff 	movzwl -0xfae(%rbp),%r12d
    bc39:	ff 
    bc3a:	48 8d 05 0f 8a 00 00 	lea    0x8a0f(%rip),%rax        # 14650 <g_926>
    bc41:	48 8b 00             	mov    (%rax),%rax
    bc44:	48 8b 00             	mov    (%rax),%rax
    bc47:	48 8b 00             	mov    (%rax),%rax
    bc4a:	8b 00                	mov    (%rax),%eax
    bc4c:	41 89 c6             	mov    %eax,%r14d
    bc4f:	0f b7 85 50 f0 ff ff 	movzwl -0xfb0(%rbp),%eax
    bc56:	44 0f b7 e8          	movzwl %ax,%r13d
    bc5a:	48 8b 05 1f 8e 00 00 	mov    0x8e1f(%rip),%rax        # 14a80 <g_1686>
    bc61:	48 89 05 18 8e 00 00 	mov    %rax,0x8e18(%rip)        # 14a80 <g_1686>
    bc68:	48 8b 05 11 8e 00 00 	mov    0x8e11(%rip),%rax        # 14a80 <g_1686>
    bc6f:	48 85 c0             	test   %rax,%rax
    bc72:	0f 95 c0             	setne  %al
    bc75:	0f b6 d0             	movzbl %al,%edx
    bc78:	48 8b 05 f1 8d 00 00 	mov    0x8df1(%rip),%rax        # 14a70 <g_1680>
    bc7f:	48 39 85 20 f2 ff ff 	cmp    %rax,-0xde0(%rbp)
    bc86:	0f 95 c0             	setne  %al
    bc89:	0f b6 c0             	movzbl %al,%eax
    bc8c:	89 d6                	mov    %edx,%esi
    bc8e:	89 c7                	mov    %eax,%edi
    bc90:	e8 3f 95 ff ff       	callq  51d4 <safe_add_func_int8_t_s_s>
    bc95:	66 98                	cbtw   
    bc97:	0f b7 c0             	movzwl %ax,%eax
    bc9a:	44 89 ee             	mov    %r13d,%esi
    bc9d:	89 c7                	mov    %eax,%edi
    bc9f:	e8 b8 a0 ff ff       	callq  5d5c <safe_mod_func_uint16_t_u_u>
    bca4:	48 c7 85 28 f2 ff ff 	movq   $0x51c11e46,-0xdd8(%rbp)
    bcab:	46 1e c1 51 
    bcaf:	48 8b 85 28 f2 ff ff 	mov    -0xdd8(%rbp),%rax
    bcb6:	44 89 f6             	mov    %r14d,%esi
    bcb9:	89 c7                	mov    %eax,%edi
    bcbb:	e8 f6 98 ff ff       	callq  55b6 <safe_add_func_int32_t_s_s>
    bcc0:	48 98                	cltq   
    bcc2:	4c 89 e6             	mov    %r12,%rsi
    bcc5:	48 89 c7             	mov    %rax,%rdi
    bcc8:	e8 7e a3 ff ff       	callq  604b <safe_sub_func_uint64_t_u_u>
    bccd:	89 de                	mov    %ebx,%esi
    bccf:	bf 00 00 00 00       	mov    $0x0,%edi
    bcd4:	e8 2c 99 ff ff       	callq  5605 <safe_sub_func_int32_t_s_s>
    bcd9:	b8 01 00 00 00       	mov    $0x1,%eax
    bcde:	89 85 cc f0 ff ff    	mov    %eax,-0xf34(%rbp)
    bce4:	8b 85 90 f1 ff ff    	mov    -0xe70(%rbp),%eax
    bcea:	0f b7 d0             	movzwl %ax,%edx
    bced:	8b 85 28 f0 ff ff    	mov    -0xfd8(%rbp),%eax
    bcf3:	0f b7 c0             	movzwl %ax,%eax
    bcf6:	89 d6                	mov    %edx,%esi
    bcf8:	89 c7                	mov    %eax,%edi
    bcfa:	e8 8f a0 ff ff       	callq  5d8e <safe_div_func_uint16_t_u_u>
    bcff:	48 8b 15 9a 89 00 00 	mov    0x899a(%rip),%rdx        # 146a0 <g_1225>
    bd06:	8b 0a                	mov    (%rdx),%ecx
    bd08:	0f b7 d0             	movzwl %ax,%edx
    bd0b:	48 8b 05 8e 89 00 00 	mov    0x898e(%rip),%rax        # 146a0 <g_1225>
    bd12:	09 ca                	or     %ecx,%edx
    bd14:	89 10                	mov    %edx,(%rax)
    bd16:	48 8b 05 1b 8d 00 00 	mov    0x8d1b(%rip),%rax        # 14a38 <g_1548>
    bd1d:	48 8b 00             	mov    (%rax),%rax
    bd20:	48 89 85 98 f1 ff ff 	mov    %rax,-0xe68(%rbp)
    bd27:	48 8b 85 98 f1 ff ff 	mov    -0xe68(%rbp),%rax
    bd2e:	48 8b 1d fb 88 00 00 	mov    0x88fb(%rip),%rbx        # 14630 <g_764>
    bd35:	48 89 c7             	mov    %rax,%rdi
    bd38:	e8 fd 03 00 00       	callq  c13a <func_35>
    bd3d:	48 89 03             	mov    %rax,(%rbx)
    bd40:	c6 05 a1 77 00 00 00 	movb   $0x0,0x77a1(%rip)        # 134e8 <g_1508>
    bd47:	e9 7f 01 00 00       	jmpq   becb <func_30+0x4426>
    bd4c:	48 8d 85 70 f1 ff ff 	lea    -0xe90(%rbp),%rax
    bd53:	48 89 85 38 f2 ff ff 	mov    %rax,-0xdc8(%rbp)
    bd5a:	48 8d 85 6c f0 ff ff 	lea    -0xf94(%rbp),%rax
    bd61:	48 89 85 40 f2 ff ff 	mov    %rax,-0xdc0(%rbp)
    bd68:	48 c7 85 48 f2 ff ff 	movq   $0x0,-0xdb8(%rbp)
    bd6f:	00 00 00 00 
    bd73:	48 8d 85 64 f0 ff ff 	lea    -0xf9c(%rbp),%rax
    bd7a:	48 89 85 50 f2 ff ff 	mov    %rax,-0xdb0(%rbp)
    bd81:	48 8d 85 f0 f6 ff ff 	lea    -0x910(%rbp),%rax
    bd88:	48 83 c0 10          	add    $0x10,%rax
    bd8c:	48 89 85 58 f2 ff ff 	mov    %rax,-0xda8(%rbp)
    bd93:	48 8d 85 f0 f6 ff ff 	lea    -0x910(%rbp),%rax
    bd9a:	48 83 c0 04          	add    $0x4,%rax
    bd9e:	48 89 85 f0 f8 ff ff 	mov    %rax,-0x710(%rbp)
    bda5:	48 8d 85 f0 f6 ff ff 	lea    -0x910(%rbp),%rax
    bdac:	48 83 c0 04          	add    $0x4,%rax
    bdb0:	48 89 85 f8 f8 ff ff 	mov    %rax,-0x708(%rbp)
    bdb7:	48 8d 85 f0 f6 ff ff 	lea    -0x910(%rbp),%rax
    bdbe:	48 83 c0 04          	add    $0x4,%rax
    bdc2:	48 89 85 00 f9 ff ff 	mov    %rax,-0x700(%rbp)
    bdc9:	48 8d 85 f0 f6 ff ff 	lea    -0x910(%rbp),%rax
    bdd0:	48 83 c0 04          	add    $0x4,%rax
    bdd4:	48 89 85 08 f9 ff ff 	mov    %rax,-0x6f8(%rbp)
    bddb:	48 8d 85 f0 f6 ff ff 	lea    -0x910(%rbp),%rax
    bde2:	48 83 c0 04          	add    $0x4,%rax
    bde6:	48 89 85 10 f9 ff ff 	mov    %rax,-0x6f0(%rbp)
    bded:	48 8d 85 f0 f6 ff ff 	lea    -0x910(%rbp),%rax
    bdf4:	48 83 c0 04          	add    $0x4,%rax
    bdf8:	48 89 85 18 f9 ff ff 	mov    %rax,-0x6e8(%rbp)
    bdff:	48 8d 85 f0 f6 ff ff 	lea    -0x910(%rbp),%rax
    be06:	48 83 c0 04          	add    $0x4,%rax
    be0a:	48 89 85 20 f9 ff ff 	mov    %rax,-0x6e0(%rbp)
    be11:	48 8d 85 f0 f6 ff ff 	lea    -0x910(%rbp),%rax
    be18:	48 83 c0 04          	add    $0x4,%rax
    be1c:	48 89 85 28 f9 ff ff 	mov    %rax,-0x6d8(%rbp)
    be23:	48 8d 85 f0 f6 ff ff 	lea    -0x910(%rbp),%rax
    be2a:	48 83 c0 04          	add    $0x4,%rax
    be2e:	48 89 85 30 f9 ff ff 	mov    %rax,-0x6d0(%rbp)
    be35:	c6 85 48 f0 ff ff 28 	movb   $0x28,-0xfb8(%rbp)
    be3c:	48 8b 95 70 f1 ff ff 	mov    -0xe90(%rbp),%rdx
    be43:	48 8b 85 38 f2 ff ff 	mov    -0xdc8(%rbp),%rax
    be4a:	48 89 10             	mov    %rdx,(%rax)
    be4d:	48 8b 85 38 f2 ff ff 	mov    -0xdc8(%rbp),%rax
    be54:	48 8b 10             	mov    (%rax),%rdx
    be57:	48 8b 85 18 f2 ff ff 	mov    -0xde8(%rbp),%rax
    be5e:	48 89 05 a3 98 00 00 	mov    %rax,0x98a3(%rip)        # 15708 <g_1700>
    be65:	48 8b 05 9c 98 00 00 	mov    0x989c(%rip),%rax        # 15708 <g_1700>
    be6c:	48 39 c2             	cmp    %rax,%rdx
    be6f:	0f 95 c0             	setne  %al
    be72:	0f b6 c0             	movzbl %al,%eax
    be75:	89 85 a8 f0 ff ff    	mov    %eax,-0xf58(%rbp)
    be7b:	48 8b 15 66 87 00 00 	mov    0x8766(%rip),%rdx        # 145e8 <g_372>
    be82:	48 8b 05 17 88 00 00 	mov    0x8817(%rip),%rax        # 146a0 <g_1225>
    be89:	8b 12                	mov    (%rdx),%edx
    be8b:	89 10                	mov    %edx,(%rax)
    be8d:	48 8b 15 f4 8b 00 00 	mov    0x8bf4(%rip),%rdx        # 14a88 <g_1702>
    be94:	8b 00                	mov    (%rax),%eax
    be96:	89 02                	mov    %eax,(%rdx)
    be98:	48 8b 05 d9 87 00 00 	mov    0x87d9(%rip),%rax        # 14678 <g_1052>
    be9f:	8b 00                	mov    (%rax),%eax
    bea1:	85 c0                	test   %eax,%eax
    bea3:	75 09                	jne    beae <func_30+0x4409>
    bea5:	80 85 48 f0 ff ff 01 	addb   $0x1,-0xfb8(%rbp)
    beac:	eb 01                	jmp    beaf <func_30+0x440a>
    beae:	90                   	nop
    beaf:	0f b6 05 32 76 00 00 	movzbl 0x7632(%rip),%eax        # 134e8 <g_1508>
    beb6:	0f be c0             	movsbl %al,%eax
    beb9:	be 09 00 00 00       	mov    $0x9,%esi
    bebe:	89 c7                	mov    %eax,%edi
    bec0:	e8 0f 93 ff ff       	callq  51d4 <safe_add_func_int8_t_s_s>
    bec5:	88 05 1d 76 00 00    	mov    %al,0x761d(%rip)        # 134e8 <g_1508>
    becb:	0f b6 05 16 76 00 00 	movzbl 0x7616(%rip),%eax        # 134e8 <g_1508>
    bed2:	84 c0                	test   %al,%al
    bed4:	0f 85 72 fe ff ff    	jne    bd4c <func_30+0x42a7>
    beda:	48 8b 05 57 8b 00 00 	mov    0x8b57(%rip),%rax        # 14a38 <g_1548>
    bee1:	48 8b 10             	mov    (%rax),%rdx
    bee4:	48 8b 85 30 f2 ff ff 	mov    -0xdd0(%rbp),%rax
    beeb:	48 89 10             	mov    %rdx,(%rax)
    beee:	0f b6 05 3b 75 00 00 	movzbl 0x753b(%rip),%eax        # 13430 <g_808>
    bef5:	83 e8 01             	sub    $0x1,%eax
    bef8:	88 05 32 75 00 00    	mov    %al,0x7532(%rip)        # 13430 <g_808>
    befe:	0f b6 05 2b 75 00 00 	movzbl 0x752b(%rip),%eax        # 13430 <g_808>
    bf05:	3c 0f                	cmp    $0xf,%al
    bf07:	0f 8e d1 fc ff ff    	jle    bbde <func_30+0x4139>
    bf0d:	c6 05 94 75 00 00 00 	movb   $0x0,0x7594(%rip)        # 134a8 <g_1047>
    bf14:	eb 47                	jmp    bf5d <func_30+0x44b8>
    bf16:	c7 05 94 75 00 00 00 	movl   $0x0,0x7594(%rip)        # 134b4 <g_1100>
    bf1d:	00 00 00 
    bf20:	eb 20                	jmp    bf42 <func_30+0x449d>
    bf22:	0f b7 05 17 71 00 00 	movzwl 0x7117(%rip),%eax        # 13040 <g_119>
    bf29:	66 85 c0             	test   %ax,%ax
    bf2c:	74 05                	je     bf33 <func_30+0x448e>
    bf2e:	e9 2f fa ff ff       	jmpq   b962 <func_30+0x3ebd>
    bf33:	8b 05 7b 75 00 00    	mov    0x757b(%rip),%eax        # 134b4 <g_1100>
    bf39:	83 c0 01             	add    $0x1,%eax
    bf3c:	89 05 72 75 00 00    	mov    %eax,0x7572(%rip)        # 134b4 <g_1100>
    bf42:	8b 05 6c 75 00 00    	mov    0x756c(%rip),%eax        # 134b4 <g_1100>
    bf48:	83 f8 03             	cmp    $0x3,%eax
    bf4b:	76 d5                	jbe    bf22 <func_30+0x447d>
    bf4d:	0f b6 05 54 75 00 00 	movzbl 0x7554(%rip),%eax        # 134a8 <g_1047>
    bf54:	83 e8 01             	sub    $0x1,%eax
    bf57:	88 05 4b 75 00 00    	mov    %al,0x754b(%rip)        # 134a8 <g_1047>
    bf5d:	0f b6 05 44 75 00 00 	movzbl 0x7544(%rip),%eax        # 134a8 <g_1047>
    bf64:	3c e6                	cmp    $0xe6,%al
    bf66:	7d ae                	jge    bf16 <func_30+0x4471>
    bf68:	0f b7 85 52 f0 ff ff 	movzwl -0xfae(%rbp),%eax
    bf6f:	83 c0 01             	add    $0x1,%eax
    bf72:	66 89 85 52 f0 ff ff 	mov    %ax,-0xfae(%rbp)
    bf79:	66 83 bd 52 f0 ff ff 	cmpw   $0x7,-0xfae(%rbp)
    bf80:	07 
    bf81:	0f 87 25 fc ff ff    	ja     bbac <func_30+0x4107>
    bf87:	c7 85 a8 f0 ff ff 00 	movl   $0x0,-0xf58(%rbp)
    bf8e:	00 00 00 
    bf91:	e9 6a 01 00 00       	jmpq   c100 <func_30+0x465b>
    bf96:	c6 85 4d f0 ff ff 06 	movb   $0x6,-0xfb3(%rbp)
    bf9d:	48 c7 85 f0 f6 ff ff 	movq   $0x0,-0x910(%rbp)
    bfa4:	00 00 00 00 
    bfa8:	48 c7 85 f8 f6 ff ff 	movq   $0x0,-0x908(%rbp)
    bfaf:	00 00 00 00 
    bfb3:	48 8d 85 6c f0 ff ff 	lea    -0xf94(%rbp),%rax
    bfba:	48 89 85 00 f7 ff ff 	mov    %rax,-0x900(%rbp)
    bfc1:	48 c7 85 08 f7 ff ff 	movq   $0x0,-0x8f8(%rbp)
    bfc8:	00 00 00 00 
    bfcc:	48 c7 85 10 f7 ff ff 	movq   $0x0,-0x8f0(%rbp)
    bfd3:	00 00 00 00 
    bfd7:	48 8d 85 6c f0 ff ff 	lea    -0xf94(%rbp),%rax
    bfde:	48 89 85 18 f7 ff ff 	mov    %rax,-0x8e8(%rbp)
    bfe5:	48 c7 85 20 f7 ff ff 	movq   $0x0,-0x8e0(%rbp)
    bfec:	00 00 00 00 
    bff0:	48 c7 85 f0 f8 ff ff 	movq   $0x0,-0x710(%rbp)
    bff7:	00 00 00 00 
    bffb:	48 c7 85 f8 f8 ff ff 	movq   $0x0,-0x708(%rbp)
    c002:	00 00 00 00 
    c006:	48 c7 85 00 f9 ff ff 	movq   $0x0,-0x700(%rbp)
    c00d:	00 00 00 00 
    c011:	48 c7 85 08 f9 ff ff 	movq   $0x0,-0x6f8(%rbp)
    c018:	00 00 00 00 
    c01c:	48 c7 85 10 f9 ff ff 	movq   $0x0,-0x6f0(%rbp)
    c023:	00 00 00 00 
    c027:	48 c7 85 18 f9 ff ff 	movq   $0x0,-0x6e8(%rbp)
    c02e:	00 00 00 00 
    c032:	48 c7 85 20 f9 ff ff 	movq   $0x0,-0x6e0(%rbp)
    c039:	00 00 00 00 
    c03d:	0f be 95 4d f0 ff ff 	movsbl -0xfb3(%rbp),%edx
    c044:	8b 85 2c f0 ff ff    	mov    -0xfd4(%rbp),%eax
    c04a:	21 d0                	and    %edx,%eax
    c04c:	89 85 2c f0 ff ff    	mov    %eax,-0xfd4(%rbp)
    c052:	48 8b 15 cf 85 00 00 	mov    0x85cf(%rip),%rdx        # 14628 <g_686>
    c059:	48 8b 05 d8 91 00 00 	mov    0x91d8(%rip),%rax        # 15238 <g_1720>
    c060:	48 8b 12             	mov    (%rdx),%rdx
    c063:	48 89 10             	mov    %rdx,(%rax)
    c066:	0f b7 9d 54 f0 ff ff 	movzwl -0xfac(%rbp),%ebx
    c06d:	48 8b 85 08 f9 ff ff 	mov    -0x6f8(%rbp),%rax
    c074:	0f b6 d0             	movzbl %al,%edx
    c077:	8b 85 b8 f0 ff ff    	mov    -0xf48(%rbp),%eax
    c07d:	f7 d0                	not    %eax
    c07f:	0f b6 c0             	movzbl %al,%eax
    c082:	89 d6                	mov    %edx,%esi
    c084:	89 c7                	mov    %eax,%edi
    c086:	e8 50 9b ff ff       	callq  5bdb <safe_div_func_uint8_t_u_u>
    c08b:	44 0f b6 e0          	movzbl %al,%r12d
    c08f:	48 8b 05 da 89 00 00 	mov    0x89da(%rip),%rax        # 14a70 <g_1680>
    c096:	48 8b 10             	mov    (%rax),%rdx
    c099:	48 8d 85 48 f1 ff ff 	lea    -0xeb8(%rbp),%rax
    c0a0:	48 39 c2             	cmp    %rax,%rdx
    c0a3:	0f 95 c0             	setne  %al
    c0a6:	0f b6 d0             	movzbl %al,%edx
    c0a9:	0f b7 85 e4 f3 ff ff 	movzwl -0xc1c(%rbp),%eax
    c0b0:	66 85 c0             	test   %ax,%ax
    c0b3:	74 10                	je     c0c5 <func_30+0x4620>
    c0b5:	83 bd 88 f0 ff ff 00 	cmpl   $0x0,-0xf78(%rbp)
    c0bc:	74 07                	je     c0c5 <func_30+0x4620>
    c0be:	b8 01 00 00 00       	mov    $0x1,%eax
    c0c3:	eb 05                	jmp    c0ca <func_30+0x4625>
    c0c5:	b8 00 00 00 00       	mov    $0x0,%eax
    c0ca:	0f b7 c0             	movzwl %ax,%eax
    c0cd:	89 d6                	mov    %edx,%esi
    c0cf:	89 c7                	mov    %eax,%edi
    c0d1:	e8 72 9d ff ff       	callq  5e48 <safe_rshift_func_uint16_t_u_s>
    c0d6:	0f b7 c0             	movzwl %ax,%eax
    c0d9:	0b 85 28 f0 ff ff    	or     -0xfd8(%rbp),%eax
    c0df:	41 39 c4             	cmp    %eax,%r12d
    c0e2:	0f 92 c0             	setb   %al
    c0e5:	0f b6 c0             	movzbl %al,%eax
    c0e8:	48 89 de             	mov    %rbx,%rsi
    c0eb:	48 89 c7             	mov    %rax,%rdi
    c0ee:	e8 b5 97 ff ff       	callq  58a8 <safe_sub_func_int64_t_s_s>
    c0f3:	09 85 a4 f0 ff ff    	or     %eax,-0xf5c(%rbp)
    c0f9:	83 85 a8 f0 ff ff 01 	addl   $0x1,-0xf58(%rbp)
    c100:	83 bd a8 f0 ff ff 22 	cmpl   $0x22,-0xf58(%rbp)
    c107:	0f 86 89 fe ff ff    	jbe    bf96 <func_30+0x44f1>
    c10d:	48 8b 85 c0 f1 ff ff 	mov    -0xe40(%rbp),%rax
    c114:	48 8b 5d c8          	mov    -0x38(%rbp),%rbx
    c118:	64 48 33 1c 25 28 00 	xor    %fs:0x28,%rbx
    c11f:	00 00 
    c121:	74 05                	je     c128 <func_30+0x4683>
    c123:	e8 48 8f ff ff       	callq  5070 <__stack_chk_fail@plt>
    c128:	48 81 c4 c8 0f 00 00 	add    $0xfc8,%rsp
    c12f:	5b                   	pop    %rbx
    c130:	41 5c                	pop    %r12
    c132:	41 5d                	pop    %r13
    c134:	41 5e                	pop    %r14
    c136:	41 5f                	pop    %r15
    c138:	5d                   	pop    %rbp
    c139:	c3                   	retq   

000000000000c13a <func_35>:
    c13a:	f3 0f 1e fa          	endbr64 
    c13e:	55                   	push   %rbp
    c13f:	48 89 e5             	mov    %rsp,%rbp
    c142:	48 81 ec 50 01 00 00 	sub    $0x150,%rsp
    c149:	48 89 bd b8 fe ff ff 	mov    %rdi,-0x148(%rbp)
    c150:	64 48 8b 04 25 28 00 	mov    %fs:0x28,%rax
    c157:	00 00 
    c159:	48 89 45 f8          	mov    %rax,-0x8(%rbp)
    c15d:	31 c0                	xor    %eax,%eax
    c15f:	c7 85 c8 fe ff ff fa 	movl   $0xfffffffa,-0x138(%rbp)
    c166:	ff ff ff 
    c169:	c7 85 d4 fe ff ff ff 	movl   $0xffffffff,-0x12c(%rbp)
    c170:	ff ff ff 
    c173:	c7 85 d8 fe ff ff 06 	movl   $0x9ef5b506,-0x128(%rbp)
    c17a:	b5 f5 9e 
    c17d:	c7 85 dc fe ff ff 4b 	movl   $0x8443824b,-0x124(%rbp)
    c184:	82 43 84 
    c187:	c7 85 60 ff ff ff 00 	movl   $0x0,-0xa0(%rbp)
    c18e:	00 00 00 
    c191:	c7 85 64 ff ff ff c8 	movl   $0xbd2942c8,-0x9c(%rbp)
    c198:	42 29 bd 
    c19b:	c7 85 68 ff ff ff ff 	movl   $0xffffffff,-0x98(%rbp)
    c1a2:	ff ff ff 
    c1a5:	c7 85 6c ff ff ff 3e 	movl   $0xc78fc93e,-0x94(%rbp)
    c1ac:	c9 8f c7 
    c1af:	c7 85 70 ff ff ff ff 	movl   $0xffffffff,-0x90(%rbp)
    c1b6:	ff ff ff 
    c1b9:	c7 85 74 ff ff ff ff 	movl   $0xffffffff,-0x8c(%rbp)
    c1c0:	ff ff ff 
    c1c3:	c7 85 78 ff ff ff 4d 	movl   $0x71fb994d,-0x88(%rbp)
    c1ca:	99 fb 71 
    c1cd:	c7 85 7c ff ff ff 02 	movl   $0x2,-0x84(%rbp)
    c1d4:	00 00 00 
    c1d7:	c7 45 80 8f 8d 38 dc 	movl   $0xdc388d8f,-0x80(%rbp)
    c1de:	c7 45 84 8f 8d 38 dc 	movl   $0xdc388d8f,-0x7c(%rbp)
    c1e5:	c7 45 88 02 00 00 00 	movl   $0x2,-0x78(%rbp)
    c1ec:	c7 45 8c 4d 99 fb 71 	movl   $0x71fb994d,-0x74(%rbp)
    c1f3:	c7 45 90 ff ff ff ff 	movl   $0xffffffff,-0x70(%rbp)
    c1fa:	c7 45 94 ff ff ff ff 	movl   $0xffffffff,-0x6c(%rbp)
    c201:	c7 45 98 3e c9 8f c7 	movl   $0xc78fc93e,-0x68(%rbp)
    c208:	c7 45 9c ff ff ff ff 	movl   $0xffffffff,-0x64(%rbp)
    c20f:	c7 45 a0 c8 42 29 bd 	movl   $0xbd2942c8,-0x60(%rbp)
    c216:	c7 45 a4 00 00 00 00 	movl   $0x0,-0x5c(%rbp)
    c21d:	c7 45 a8 c8 42 29 bd 	movl   $0xbd2942c8,-0x58(%rbp)
    c224:	c7 45 ac ff ff ff ff 	movl   $0xffffffff,-0x54(%rbp)
    c22b:	c7 45 b0 3e c9 8f c7 	movl   $0xc78fc93e,-0x50(%rbp)
    c232:	c7 45 b4 ff ff ff ff 	movl   $0xffffffff,-0x4c(%rbp)
    c239:	c7 45 b8 ff ff ff ff 	movl   $0xffffffff,-0x48(%rbp)
    c240:	c7 45 bc 4d 99 fb 71 	movl   $0x71fb994d,-0x44(%rbp)
    c247:	c7 45 c0 02 00 00 00 	movl   $0x2,-0x40(%rbp)
    c24e:	c7 45 c4 8f 8d 38 dc 	movl   $0xdc388d8f,-0x3c(%rbp)
    c255:	c7 45 c8 8f 8d 38 dc 	movl   $0xdc388d8f,-0x38(%rbp)
    c25c:	c7 45 cc 02 00 00 00 	movl   $0x2,-0x34(%rbp)
    c263:	c7 45 d0 4d 99 fb 71 	movl   $0x71fb994d,-0x30(%rbp)
    c26a:	c7 45 d4 ff ff ff ff 	movl   $0xffffffff,-0x2c(%rbp)
    c271:	c7 45 d8 ff ff ff ff 	movl   $0xffffffff,-0x28(%rbp)
    c278:	c7 45 dc 3e c9 8f c7 	movl   $0xc78fc93e,-0x24(%rbp)
    c27f:	c7 45 e0 ff ff ff ff 	movl   $0xffffffff,-0x20(%rbp)
    c286:	c7 45 e4 c8 42 29 bd 	movl   $0xbd2942c8,-0x1c(%rbp)
    c28d:	c7 45 e8 00 00 00 00 	movl   $0x0,-0x18(%rbp)
    c294:	48 8d 85 30 ff ff ff 	lea    -0xd0(%rbp),%rax
    c29b:	48 89 85 e0 fe ff ff 	mov    %rax,-0x120(%rbp)
    c2a2:	48 c7 85 e8 fe ff ff 	movq   $0x7,-0x118(%rbp)
    c2a9:	07 00 00 00 
    c2ad:	48 8d 05 9c 6d 00 00 	lea    0x6d9c(%rip),%rax        # 13050 <g_131>
    c2b4:	48 89 85 f0 fe ff ff 	mov    %rax,-0x110(%rbp)
    c2bb:	48 8d 05 ce 7a 00 00 	lea    0x7ace(%rip),%rax        # 13d90 <g_99+0x110>
    c2c2:	48 89 85 f8 fe ff ff 	mov    %rax,-0x108(%rbp)
    c2c9:	c7 85 cc fe ff ff 00 	movl   $0x0,-0x134(%rbp)
    c2d0:	00 00 00 
    c2d3:	eb 1e                	jmp    c2f3 <func_35+0x1b9>
    c2d5:	8b 85 cc fe ff ff    	mov    -0x134(%rbp),%eax
    c2db:	48 98                	cltq   
    c2dd:	48 8d 15 55 6d 00 00 	lea    0x6d55(%rip),%rdx        # 13039 <g_110>
    c2e4:	48 89 94 c5 30 ff ff 	mov    %rdx,-0xd0(%rbp,%rax,8)
    c2eb:	ff 
    c2ec:	83 85 cc fe ff ff 01 	addl   $0x1,-0x134(%rbp)
    c2f3:	83 bd cc fe ff ff 04 	cmpl   $0x4,-0x134(%rbp)
    c2fa:	7e d9                	jle    c2d5 <func_35+0x19b>
    c2fc:	c7 05 1e 6d 00 00 e2 	movl   $0xffffffe2,0x6d1e(%rip)        # 13024 <g_18>
    c303:	ff ff ff 
    c306:	e9 c2 00 00 00       	jmpq   c3cd <func_35+0x293>
    c30b:	48 c7 85 00 ff ff ff 	movq   $0x0,-0x100(%rbp)
    c312:	00 00 00 00 
    c316:	48 8d 05 0b 6d 00 00 	lea    0x6d0b(%rip),%rax        # 13028 <g_43>
    c31d:	48 89 85 08 ff ff ff 	mov    %rax,-0xf8(%rbp)
    c324:	48 8d 05 fd 6c 00 00 	lea    0x6cfd(%rip),%rax        # 13028 <g_43>
    c32b:	48 89 85 10 ff ff ff 	mov    %rax,-0xf0(%rbp)
    c332:	48 c7 85 18 ff ff ff 	movq   $0x0,-0xe8(%rbp)
    c339:	00 00 00 00 
    c33d:	c7 85 d0 fe ff ff 00 	movl   $0x0,-0x130(%rbp)
    c344:	00 00 00 
    c347:	eb 1e                	jmp    c367 <func_35+0x22d>
    c349:	8b 85 d0 fe ff ff    	mov    -0x130(%rbp),%eax
    c34f:	48 98                	cltq   
    c351:	48 8d 15 d0 6c 00 00 	lea    0x6cd0(%rip),%rdx        # 13028 <g_43>
    c358:	48 89 94 c5 20 ff ff 	mov    %rdx,-0xe0(%rbp,%rax,8)
    c35f:	ff 
    c360:	83 85 d0 fe ff ff 01 	addl   $0x1,-0x130(%rbp)
    c367:	83 bd d0 fe ff ff 01 	cmpl   $0x1,-0x130(%rbp)
    c36e:	7e d9                	jle    c349 <func_35+0x20f>
    c370:	48 8b 05 b9 6c 00 00 	mov    0x6cb9(%rip),%rax        # 13030 <g_48>
    c377:	48 83 e8 01          	sub    $0x1,%rax
    c37b:	48 89 05 ae 6c 00 00 	mov    %rax,0x6cae(%rip)        # 13030 <g_48>
    c382:	c7 85 c8 fe ff ff 00 	movl   $0x0,-0x138(%rbp)
    c389:	00 00 00 
    c38c:	eb 1e                	jmp    c3ac <func_35+0x272>
    c38e:	8b 85 c8 fe ff ff    	mov    -0x138(%rbp),%eax
    c394:	48 98                	cltq   
    c396:	48 8d 15 8b 6c 00 00 	lea    0x6c8b(%rip),%rdx        # 13028 <g_43>
    c39d:	48 89 94 c5 20 ff ff 	mov    %rdx,-0xe0(%rbp,%rax,8)
    c3a4:	ff 
    c3a5:	83 85 c8 fe ff ff 01 	addl   $0x1,-0x138(%rbp)
    c3ac:	83 bd c8 fe ff ff 01 	cmpl   $0x1,-0x138(%rbp)
    c3b3:	7e d9                	jle    c38e <func_35+0x254>
    c3b5:	8b 05 69 6c 00 00    	mov    0x6c69(%rip),%eax        # 13024 <g_18>
    c3bb:	be 05 00 00 00       	mov    $0x5,%esi
    c3c0:	89 c7                	mov    %eax,%edi
    c3c2:	e8 f1 9a ff ff       	callq  5eb8 <safe_add_func_uint32_t_u_u>
    c3c7:	89 05 57 6c 00 00    	mov    %eax,0x6c57(%rip)        # 13024 <g_18>
    c3cd:	8b 05 51 6c 00 00    	mov    0x6c51(%rip),%eax        # 13024 <g_18>
    c3d3:	83 f8 1b             	cmp    $0x1b,%eax
    c3d6:	0f 8f 2f ff ff ff    	jg     c30b <func_35+0x1d1>
    c3dc:	48 8b 05 1d 82 00 00 	mov    0x821d(%rip),%rax        # 14600 <g_532>
    c3e3:	48 8b 00             	mov    (%rax),%rax
    c3e6:	48 8b 4d f8          	mov    -0x8(%rbp),%rcx
    c3ea:	64 48 33 0c 25 28 00 	xor    %fs:0x28,%rcx
    c3f1:	00 00 
    c3f3:	74 05                	je     c3fa <func_35+0x2c0>
    c3f5:	e8 76 8c ff ff       	callq  5070 <__stack_chk_fail@plt>
    c3fa:	c9                   	leaveq 
    c3fb:	c3                   	retq   

000000000000c3fc <func_68>:
    c3fc:	f3 0f 1e fa          	endbr64 
    c400:	55                   	push   %rbp
    c401:	48 89 e5             	mov    %rsp,%rbp
    c404:	41 54                	push   %r12
    c406:	53                   	push   %rbx
    c407:	48 81 ec 00 10 00 00 	sub    $0x1000,%rsp
    c40e:	48 83 0c 24 00       	orq    $0x0,(%rsp)
    c413:	48 81 ec c0 07 00 00 	sub    $0x7c0,%rsp
    c41a:	89 bd 3c e8 ff ff    	mov    %edi,-0x17c4(%rbp)
    c420:	48 89 b5 30 e8 ff ff 	mov    %rsi,-0x17d0(%rbp)
    c427:	64 48 8b 04 25 28 00 	mov    %fs:0x28,%rax
    c42e:	00 00 
    c430:	48 89 45 e8          	mov    %rax,-0x18(%rbp)
    c434:	31 c0                	xor    %eax,%eax
    c436:	48 8d 85 40 eb ff ff 	lea    -0x14c0(%rbp),%rax
    c43d:	48 8d 15 7c 3f 00 00 	lea    0x3f7c(%rip),%rdx        # 103c0 <g_824+0x368>
    c444:	b9 3f 00 00 00       	mov    $0x3f,%ecx
    c449:	48 89 c7             	mov    %rax,%rdi
    c44c:	48 89 d6             	mov    %rdx,%rsi
    c44f:	f3 48 a5             	rep movsq %ds:(%rsi),%es:(%rdi)
    c452:	c7 85 4c e8 ff ff 84 	movl   $0xc80cf284,-0x17b4(%rbp)
    c459:	f2 0c c8 
    c45c:	c7 85 50 e8 ff ff 01 	movl   $0x1,-0x17b0(%rbp)
    c463:	00 00 00 
    c466:	c6 85 44 e8 ff ff 00 	movb   $0x0,-0x17bc(%rbp)
    c46d:	c7 85 5c e8 ff ff 01 	movl   $0x1,-0x17a4(%rbp)
    c474:	00 00 00 
    c477:	c7 85 70 e8 ff ff 03 	movl   $0x3,-0x1790(%rbp)
    c47e:	00 00 00 
    c481:	c7 85 74 e8 ff ff 06 	movl   $0x6,-0x178c(%rbp)
    c488:	00 00 00 
    c48b:	c7 85 60 e8 ff ff ff 	movl   $0xffffffff,-0x17a0(%rbp)
    c492:	ff ff ff 
    c495:	c7 85 64 e8 ff ff 03 	movl   $0x3,-0x179c(%rbp)
    c49c:	00 00 00 
    c49f:	48 8d 05 a2 6b 00 00 	lea    0x6ba2(%rip),%rax        # 13048 <g_128>
    c4a6:	48 89 85 d0 e8 ff ff 	mov    %rax,-0x1730(%rbp)
    c4ad:	66 c7 85 b0 e9 ff ff 	movw   $0xda01,-0x1650(%rbp)
    c4b4:	01 da 
    c4b6:	66 c7 85 b2 e9 ff ff 	movw   $0x1da,-0x164e(%rbp)
    c4bd:	da 01 
    c4bf:	66 c7 85 b4 e9 ff ff 	movw   $0x1ff,-0x164c(%rbp)
    c4c6:	ff 01 
    c4c8:	66 c7 85 b6 e9 ff ff 	movw   $0x1ff,-0x164a(%rbp)
    c4cf:	ff 01 
    c4d1:	66 c7 85 b8 e9 ff ff 	movw   $0xdada,-0x1648(%rbp)
    c4d8:	da da 
    c4da:	66 c7 85 ba e9 ff ff 	movw   $0xff01,-0x1646(%rbp)
    c4e1:	01 ff 
    c4e3:	66 c7 85 bc e9 ff ff 	movw   $0xff01,-0x1644(%rbp)
    c4ea:	01 ff 
    c4ec:	66 c7 85 be e9 ff ff 	movw   $0xda01,-0x1642(%rbp)
    c4f3:	01 da 
    c4f5:	66 c7 85 c0 e9 ff ff 	movw   $0x1da,-0x1640(%rbp)
    c4fc:	da 01 
    c4fe:	66 c7 85 c2 e9 ff ff 	movw   $0x1ff,-0x163e(%rbp)
    c505:	ff 01 
    c507:	66 c7 85 c4 e9 ff ff 	movw   $0x1ff,-0x163c(%rbp)
    c50e:	ff 01 
    c510:	66 c7 85 c6 e9 ff ff 	movw   $0xdada,-0x163a(%rbp)
    c517:	da da 
    c519:	c7 85 68 e8 ff ff 58 	movl   $0xc43b3258,-0x1798(%rbp)
    c520:	32 3b c4 
    c523:	66 c7 85 46 e8 ff ff 	movw   $0x615e,-0x17ba(%rbp)
    c52a:	5e 61 
    c52c:	48 8d 05 09 6b 00 00 	lea    0x6b09(%rip),%rax        # 1303c <g_115>
    c533:	48 89 85 d8 e8 ff ff 	mov    %rax,-0x1728(%rbp)
    c53a:	48 8d 85 d8 e8 ff ff 	lea    -0x1728(%rbp),%rax
    c541:	48 89 85 08 e9 ff ff 	mov    %rax,-0x16f8(%rbp)
    c548:	48 8d 05 41 78 00 00 	lea    0x7841(%rip),%rax        # 13d90 <g_99+0x110>
    c54f:	48 89 85 10 e9 ff ff 	mov    %rax,-0x16f0(%rbp)
    c556:	48 8d 05 33 91 00 00 	lea    0x9133(%rip),%rax        # 15690 <g_229>
    c55d:	48 89 85 18 e9 ff ff 	mov    %rax,-0x16e8(%rbp)
    c564:	c7 85 6c e8 ff ff 58 	movl   $0xc79be458,-0x1794(%rbp)
    c56b:	e4 9b c7 
    c56e:	c7 85 58 e8 ff ff 00 	movl   $0x0,-0x17a8(%rbp)
    c575:	00 00 00 
    c578:	eb 79                	jmp    c5f3 <func_68+0x1f7>
    c57a:	c7 85 78 e8 ff ff 00 	movl   $0x0,-0x1788(%rbp)
    c581:	00 00 00 
    c584:	eb 5d                	jmp    c5e3 <func_68+0x1e7>
    c586:	c7 85 7c e8 ff ff 00 	movl   $0x0,-0x1784(%rbp)
    c58d:	00 00 00 
    c590:	eb 41                	jmp    c5d3 <func_68+0x1d7>
    c592:	8b 85 7c e8 ff ff    	mov    -0x1784(%rbp),%eax
    c598:	48 63 c8             	movslq %eax,%rcx
    c59b:	8b 85 58 e8 ff ff    	mov    -0x17a8(%rbp),%eax
    c5a1:	48 63 d0             	movslq %eax,%rdx
    c5a4:	8b 85 78 e8 ff ff    	mov    -0x1788(%rbp),%eax
    c5aa:	48 63 f0             	movslq %eax,%rsi
    c5ad:	48 89 d0             	mov    %rdx,%rax
    c5b0:	48 c1 e0 03          	shl    $0x3,%rax
    c5b4:	48 29 d0             	sub    %rdx,%rax
    c5b7:	48 01 f0             	add    %rsi,%rax
    c5ba:	48 c1 e0 02          	shl    $0x2,%rax
    c5be:	48 01 c8             	add    %rcx,%rax
    c5c1:	c7 84 85 40 ed ff ff 	movl   $0x695a641e,-0x12c0(%rbp,%rax,4)
    c5c8:	1e 64 5a 69 
    c5cc:	83 85 7c e8 ff ff 01 	addl   $0x1,-0x1784(%rbp)
    c5d3:	83 bd 7c e8 ff ff 03 	cmpl   $0x3,-0x1784(%rbp)
    c5da:	7e b6                	jle    c592 <func_68+0x196>
    c5dc:	83 85 78 e8 ff ff 01 	addl   $0x1,-0x1788(%rbp)
    c5e3:	83 bd 78 e8 ff ff 06 	cmpl   $0x6,-0x1788(%rbp)
    c5ea:	7e 9a                	jle    c586 <func_68+0x18a>
    c5ec:	83 85 58 e8 ff ff 01 	addl   $0x1,-0x17a8(%rbp)
    c5f3:	83 bd 58 e8 ff ff 07 	cmpl   $0x7,-0x17a8(%rbp)
    c5fa:	0f 8e 7a ff ff ff    	jle    c57a <func_68+0x17e>
    c600:	c7 85 58 e8 ff ff 00 	movl   $0x0,-0x17a8(%rbp)
    c607:	00 00 00 
    c60a:	eb 44                	jmp    c650 <func_68+0x254>
    c60c:	c7 85 78 e8 ff ff 00 	movl   $0x0,-0x1788(%rbp)
    c613:	00 00 00 
    c616:	eb 28                	jmp    c640 <func_68+0x244>
    c618:	8b 85 78 e8 ff ff    	mov    -0x1788(%rbp),%eax
    c61e:	48 98                	cltq   
    c620:	8b 95 58 e8 ff ff    	mov    -0x17a8(%rbp),%edx
    c626:	48 63 d2             	movslq %edx,%rdx
    c629:	48 01 d2             	add    %rdx,%rdx
    c62c:	48 01 d0             	add    %rdx,%rax
    c62f:	66 c7 84 45 d0 e9 ff 	movw   $0xfffe,-0x1630(%rbp,%rax,2)
    c636:	ff fe ff 
    c639:	83 85 78 e8 ff ff 01 	addl   $0x1,-0x1788(%rbp)
    c640:	83 bd 78 e8 ff ff 01 	cmpl   $0x1,-0x1788(%rbp)
    c647:	7e cf                	jle    c618 <func_68+0x21c>
    c649:	83 85 58 e8 ff ff 01 	addl   $0x1,-0x17a8(%rbp)
    c650:	83 bd 58 e8 ff ff 05 	cmpl   $0x5,-0x17a8(%rbp)
    c657:	7e b3                	jle    c60c <func_68+0x210>
    c659:	c7 85 3c e8 ff ff ea 	movl   $0xffffffea,-0x17c4(%rbp)
    c660:	ff ff ff 
    c663:	e9 2c 16 00 00       	jmpq   dc94 <func_68+0x1898>
    c668:	c7 85 ac e8 ff ff 01 	movl   $0x1,-0x1754(%rbp)
    c66f:	00 00 00 
    c672:	48 c7 85 f8 e8 ff ff 	movq   $0x0,-0x1708(%rbp)
    c679:	00 00 00 00 
    c67d:	48 8d 85 f8 e8 ff ff 	lea    -0x1708(%rbp),%rax
    c684:	48 89 85 58 e9 ff ff 	mov    %rax,-0x16a8(%rbp)
    c68b:	48 8d 05 96 69 00 00 	lea    0x6996(%rip),%rax        # 13028 <g_43>
    c692:	48 89 85 60 e9 ff ff 	mov    %rax,-0x16a0(%rbp)
    c699:	c7 85 f0 e8 ff ff 49 	movl   $0x3ec93249,-0x1710(%rbp)
    c6a0:	32 c9 3e 
    c6a3:	48 c7 85 68 e9 ff ff 	movq   $0x0,-0x1698(%rbp)
    c6aa:	00 00 00 00 
    c6ae:	48 8d 85 c0 f0 ff ff 	lea    -0xf40(%rbp),%rax
    c6b5:	48 8d 15 44 6e 00 00 	lea    0x6e44(%rip),%rdx        # 13500 <g_1827+0x4>
    c6bc:	b9 f0 00 00 00       	mov    $0xf0,%ecx
    c6c1:	48 89 c7             	mov    %rax,%rdi
    c6c4:	48 89 d6             	mov    %rdx,%rsi
    c6c7:	f3 48 a5             	rep movsq %ds:(%rsi),%es:(%rdi)
    c6ca:	48 8d 85 c0 f0 ff ff 	lea    -0xf40(%rbp),%rax
    c6d1:	48 83 c0 60          	add    $0x60,%rax
    c6d5:	48 89 85 70 e9 ff ff 	mov    %rax,-0x1690(%rbp)
    c6dc:	c7 85 b0 e8 ff ff fa 	movl   $0xfffffffa,-0x1750(%rbp)
    c6e3:	ff ff ff 
    c6e6:	c7 85 10 ea ff ff da 	movl   $0x8e5b17da,-0x15f0(%rbp)
    c6ed:	17 5b 8e 
    c6f0:	c7 85 14 ea ff ff 01 	movl   $0x1,-0x15ec(%rbp)
    c6f7:	00 00 00 
    c6fa:	c7 85 18 ea ff ff 01 	movl   $0x1,-0x15e8(%rbp)
    c701:	00 00 00 
    c704:	c7 85 1c ea ff ff da 	movl   $0x8e5b17da,-0x15e4(%rbp)
    c70b:	17 5b 8e 
    c70e:	c7 85 20 ea ff ff 01 	movl   $0x1,-0x15e0(%rbp)
    c715:	00 00 00 
    c718:	c7 85 24 ea ff ff 01 	movl   $0x1,-0x15dc(%rbp)
    c71f:	00 00 00 
    c722:	c7 85 28 ea ff ff da 	movl   $0x8e5b17da,-0x15d8(%rbp)
    c729:	17 5b 8e 
    c72c:	48 b8 48 3c b1 31 70 	movabs $0xd0dfbb7031b13c48,%rax
    c733:	bb df d0 
    c736:	48 89 85 20 e9 ff ff 	mov    %rax,-0x16e0(%rbp)
    c73d:	66 c7 85 48 e8 ff ff 	movw   $0x1cb,-0x17b8(%rbp)
    c744:	cb 01 
    c746:	c6 85 45 e8 ff ff 33 	movb   $0x33,-0x17bb(%rbp)
    c74d:	48 c7 85 78 e9 ff ff 	movq   $0x7,-0x1688(%rbp)
    c754:	07 00 00 00 
    c758:	c7 85 80 e8 ff ff 00 	movl   $0x0,-0x1780(%rbp)
    c75f:	00 00 00 
    c762:	eb 1a                	jmp    c77e <func_68+0x382>
    c764:	8b 85 80 e8 ff ff    	mov    -0x1780(%rbp),%eax
    c76a:	48 98                	cltq   
    c76c:	c7 84 85 a8 e9 ff ff 	movl   $0xfffffff7,-0x1658(%rbp,%rax,4)
    c773:	f7 ff ff ff 
    c777:	83 85 80 e8 ff ff 01 	addl   $0x1,-0x1780(%rbp)
    c77e:	83 bd 80 e8 ff ff 01 	cmpl   $0x1,-0x1780(%rbp)
    c785:	7e dd                	jle    c764 <func_68+0x368>
    c787:	8b 85 3c e8 ff ff    	mov    -0x17c4(%rbp),%eax
    c78d:	0f b6 d8             	movzbl %al,%ebx
    c790:	be 45 90 ff ff       	mov    $0xffff9045,%esi
    c795:	bf 01 00 00 00       	mov    $0x1,%edi
    c79a:	e8 b6 8c ff ff       	callq  5455 <safe_div_func_int16_t_s_s>
    c79f:	83 bd ac e8 ff ff 01 	cmpl   $0x1,-0x1754(%rbp)
    c7a6:	0f 95 c0             	setne  %al
    c7a9:	0f b6 c0             	movzbl %al,%eax
    c7ac:	89 de                	mov    %ebx,%esi
    c7ae:	89 c7                	mov    %eax,%edi
    c7b0:	e8 f9 93 ff ff       	callq  5bae <safe_mod_func_uint8_t_u_u>
    c7b5:	0f b6 c0             	movzbl %al,%eax
    c7b8:	be d1 88 63 44       	mov    $0x446388d1,%esi
    c7bd:	89 c7                	mov    %eax,%edi
    c7bf:	e8 08 8f ff ff       	callq  56cc <safe_mod_func_int32_t_s_s>
    c7c4:	ba 00 00 00 00       	mov    $0x0,%edx
    c7c9:	0f b7 85 56 ec ff ff 	movzwl -0x13aa(%rbp),%eax
    c7d0:	98                   	cwtl   
    c7d1:	39 c2                	cmp    %eax,%edx
    c7d3:	0f 9d c0             	setge  %al
    c7d6:	0f b6 d0             	movzbl %al,%edx
    c7d9:	48 8b 85 60 e9 ff ff 	mov    -0x16a0(%rbp),%rax
    c7e0:	8b 00                	mov    (%rax),%eax
    c7e2:	21 c2                	and    %eax,%edx
    c7e4:	48 8b 85 60 e9 ff ff 	mov    -0x16a0(%rbp),%rax
    c7eb:	89 10                	mov    %edx,(%rax)
    c7ed:	c7 05 2d 68 00 00 04 	movl   $0x4,0x682d(%rip)        # 13024 <g_18>
    c7f4:	00 00 00 
    c7f7:	e9 82 14 00 00       	jmpq   dc7e <func_68+0x1882>
    c7fc:	48 8d 05 36 68 00 00 	lea    0x6836(%rip),%rax        # 13039 <g_110>
    c803:	48 89 85 80 e9 ff ff 	mov    %rax,-0x1680(%rbp)
    c80a:	48 8d 05 2f 68 00 00 	lea    0x682f(%rip),%rax        # 13040 <g_119>
    c811:	48 89 85 40 f8 ff ff 	mov    %rax,-0x7c0(%rbp)
    c818:	48 8d 05 21 68 00 00 	lea    0x6821(%rip),%rax        # 13040 <g_119>
    c81f:	48 89 85 48 f8 ff ff 	mov    %rax,-0x7b8(%rbp)
    c826:	48 c7 85 50 f8 ff ff 	movq   $0x0,-0x7b0(%rbp)
    c82d:	00 00 00 00 
    c831:	48 8d 05 08 68 00 00 	lea    0x6808(%rip),%rax        # 13040 <g_119>
    c838:	48 89 85 58 f8 ff ff 	mov    %rax,-0x7a8(%rbp)
    c83f:	48 8d 05 fa 67 00 00 	lea    0x67fa(%rip),%rax        # 13040 <g_119>
    c846:	48 89 85 60 f8 ff ff 	mov    %rax,-0x7a0(%rbp)
    c84d:	48 8d 05 ec 67 00 00 	lea    0x67ec(%rip),%rax        # 13040 <g_119>
    c854:	48 89 85 68 f8 ff ff 	mov    %rax,-0x798(%rbp)
    c85b:	48 8d 05 de 67 00 00 	lea    0x67de(%rip),%rax        # 13040 <g_119>
    c862:	48 89 85 70 f8 ff ff 	mov    %rax,-0x790(%rbp)
    c869:	48 c7 85 78 f8 ff ff 	movq   $0x0,-0x788(%rbp)
    c870:	00 00 00 00 
    c874:	48 8d 85 40 eb ff ff 	lea    -0x14c0(%rbp),%rax
    c87b:	48 05 16 01 00 00    	add    $0x116,%rax
    c881:	48 89 85 80 f8 ff ff 	mov    %rax,-0x780(%rbp)
    c888:	48 c7 85 88 f8 ff ff 	movq   $0x0,-0x778(%rbp)
    c88f:	00 00 00 00 
    c893:	48 8d 05 a6 67 00 00 	lea    0x67a6(%rip),%rax        # 13040 <g_119>
    c89a:	48 89 85 90 f8 ff ff 	mov    %rax,-0x770(%rbp)
    c8a1:	48 8d 85 40 eb ff ff 	lea    -0x14c0(%rbp),%rax
    c8a8:	48 83 c0 52          	add    $0x52,%rax
    c8ac:	48 89 85 98 f8 ff ff 	mov    %rax,-0x768(%rbp)
    c8b3:	48 8d 85 40 eb ff ff 	lea    -0x14c0(%rbp),%rax
    c8ba:	48 83 c0 3e          	add    $0x3e,%rax
    c8be:	48 89 85 a0 f8 ff ff 	mov    %rax,-0x760(%rbp)
    c8c5:	48 c7 85 a8 f8 ff ff 	movq   $0x0,-0x758(%rbp)
    c8cc:	00 00 00 00 
    c8d0:	48 c7 85 b0 f8 ff ff 	movq   $0x0,-0x750(%rbp)
    c8d7:	00 00 00 00 
    c8db:	48 8d 85 40 eb ff ff 	lea    -0x14c0(%rbp),%rax
    c8e2:	48 05 16 01 00 00    	add    $0x116,%rax
    c8e8:	48 89 85 b8 f8 ff ff 	mov    %rax,-0x748(%rbp)
    c8ef:	48 8d 05 4a 67 00 00 	lea    0x674a(%rip),%rax        # 13040 <g_119>
    c8f6:	48 89 85 c0 f8 ff ff 	mov    %rax,-0x740(%rbp)
    c8fd:	48 c7 85 c8 f8 ff ff 	movq   $0x0,-0x738(%rbp)
    c904:	00 00 00 00 
    c908:	48 c7 85 d0 f8 ff ff 	movq   $0x0,-0x730(%rbp)
    c90f:	00 00 00 00 
    c913:	48 c7 85 d8 f8 ff ff 	movq   $0x0,-0x728(%rbp)
    c91a:	00 00 00 00 
    c91e:	48 8d 85 40 eb ff ff 	lea    -0x14c0(%rbp),%rax
    c925:	48 05 16 01 00 00    	add    $0x116,%rax
    c92b:	48 89 85 e0 f8 ff ff 	mov    %rax,-0x720(%rbp)
    c932:	48 8d 05 07 67 00 00 	lea    0x6707(%rip),%rax        # 13040 <g_119>
    c939:	48 89 85 e8 f8 ff ff 	mov    %rax,-0x718(%rbp)
    c940:	48 8d 05 f9 66 00 00 	lea    0x66f9(%rip),%rax        # 13040 <g_119>
    c947:	48 89 85 f0 f8 ff ff 	mov    %rax,-0x710(%rbp)
    c94e:	48 c7 85 f8 f8 ff ff 	movq   $0x0,-0x708(%rbp)
    c955:	00 00 00 00 
    c959:	48 8d 85 40 eb ff ff 	lea    -0x14c0(%rbp),%rax
    c960:	48 83 c0 5e          	add    $0x5e,%rax
    c964:	48 89 85 00 f9 ff ff 	mov    %rax,-0x700(%rbp)
    c96b:	48 8d 05 ce 66 00 00 	lea    0x66ce(%rip),%rax        # 13040 <g_119>
    c972:	48 89 85 08 f9 ff ff 	mov    %rax,-0x6f8(%rbp)
    c979:	48 c7 85 10 f9 ff ff 	movq   $0x0,-0x6f0(%rbp)
    c980:	00 00 00 00 
    c984:	48 8d 05 b5 66 00 00 	lea    0x66b5(%rip),%rax        # 13040 <g_119>
    c98b:	48 89 85 18 f9 ff ff 	mov    %rax,-0x6e8(%rbp)
    c992:	48 8d 85 40 eb ff ff 	lea    -0x14c0(%rbp),%rax
    c999:	48 05 16 01 00 00    	add    $0x116,%rax
    c99f:	48 89 85 20 f9 ff ff 	mov    %rax,-0x6e0(%rbp)
    c9a6:	48 8d 85 40 eb ff ff 	lea    -0x14c0(%rbp),%rax
    c9ad:	48 05 16 01 00 00    	add    $0x116,%rax
    c9b3:	48 89 85 28 f9 ff ff 	mov    %rax,-0x6d8(%rbp)
    c9ba:	48 8d 85 40 eb ff ff 	lea    -0x14c0(%rbp),%rax
    c9c1:	48 05 16 01 00 00    	add    $0x116,%rax
    c9c7:	48 89 85 30 f9 ff ff 	mov    %rax,-0x6d0(%rbp)
    c9ce:	48 8d 85 40 eb ff ff 	lea    -0x14c0(%rbp),%rax
    c9d5:	48 05 16 01 00 00    	add    $0x116,%rax
    c9db:	48 89 85 38 f9 ff ff 	mov    %rax,-0x6c8(%rbp)
    c9e2:	48 c7 85 40 f9 ff ff 	movq   $0x0,-0x6c0(%rbp)
    c9e9:	00 00 00 00 
    c9ed:	48 8d 85 40 eb ff ff 	lea    -0x14c0(%rbp),%rax
    c9f4:	48 83 c0 18          	add    $0x18,%rax
    c9f8:	48 89 85 48 f9 ff ff 	mov    %rax,-0x6b8(%rbp)
    c9ff:	48 8d 05 3a 66 00 00 	lea    0x663a(%rip),%rax        # 13040 <g_119>
    ca06:	48 89 85 50 f9 ff ff 	mov    %rax,-0x6b0(%rbp)
    ca0d:	48 8d 05 2c 66 00 00 	lea    0x662c(%rip),%rax        # 13040 <g_119>
    ca14:	48 89 85 58 f9 ff ff 	mov    %rax,-0x6a8(%rbp)
    ca1b:	48 8d 05 1e 66 00 00 	lea    0x661e(%rip),%rax        # 13040 <g_119>
    ca22:	48 89 85 60 f9 ff ff 	mov    %rax,-0x6a0(%rbp)
    ca29:	48 c7 85 68 f9 ff ff 	movq   $0x0,-0x698(%rbp)
    ca30:	00 00 00 00 
    ca34:	48 c7 85 70 f9 ff ff 	movq   $0x0,-0x690(%rbp)
    ca3b:	00 00 00 00 
    ca3f:	48 8d 85 40 eb ff ff 	lea    -0x14c0(%rbp),%rax
    ca46:	48 05 92 01 00 00    	add    $0x192,%rax
    ca4c:	48 89 85 78 f9 ff ff 	mov    %rax,-0x688(%rbp)
    ca53:	48 8d 85 40 eb ff ff 	lea    -0x14c0(%rbp),%rax
    ca5a:	48 05 16 01 00 00    	add    $0x116,%rax
    ca60:	48 89 85 80 f9 ff ff 	mov    %rax,-0x680(%rbp)
    ca67:	48 8d 05 d2 65 00 00 	lea    0x65d2(%rip),%rax        # 13040 <g_119>
    ca6e:	48 89 85 88 f9 ff ff 	mov    %rax,-0x678(%rbp)
    ca75:	48 c7 85 90 f9 ff ff 	movq   $0x0,-0x670(%rbp)
    ca7c:	00 00 00 00 
    ca80:	48 c7 85 98 f9 ff ff 	movq   $0x0,-0x668(%rbp)
    ca87:	00 00 00 00 
    ca8b:	48 8d 85 40 eb ff ff 	lea    -0x14c0(%rbp),%rax
    ca92:	48 05 16 01 00 00    	add    $0x116,%rax
    ca98:	48 89 85 a0 f9 ff ff 	mov    %rax,-0x660(%rbp)
    ca9f:	48 8d 85 40 eb ff ff 	lea    -0x14c0(%rbp),%rax
    caa6:	48 05 16 01 00 00    	add    $0x116,%rax
    caac:	48 89 85 a8 f9 ff ff 	mov    %rax,-0x658(%rbp)
    cab3:	48 8d 05 86 65 00 00 	lea    0x6586(%rip),%rax        # 13040 <g_119>
    caba:	48 89 85 b0 f9 ff ff 	mov    %rax,-0x650(%rbp)
    cac1:	48 8d 85 40 eb ff ff 	lea    -0x14c0(%rbp),%rax
    cac8:	48 05 16 01 00 00    	add    $0x116,%rax
    cace:	48 89 85 b8 f9 ff ff 	mov    %rax,-0x648(%rbp)
    cad5:	48 8d 05 64 65 00 00 	lea    0x6564(%rip),%rax        # 13040 <g_119>
    cadc:	48 89 85 c0 f9 ff ff 	mov    %rax,-0x640(%rbp)
    cae3:	48 8d 05 56 65 00 00 	lea    0x6556(%rip),%rax        # 13040 <g_119>
    caea:	48 89 85 c8 f9 ff ff 	mov    %rax,-0x638(%rbp)
    caf1:	48 8d 85 40 eb ff ff 	lea    -0x14c0(%rbp),%rax
    caf8:	48 05 16 01 00 00    	add    $0x116,%rax
    cafe:	48 89 85 d0 f9 ff ff 	mov    %rax,-0x630(%rbp)
    cb05:	48 8d 85 40 eb ff ff 	lea    -0x14c0(%rbp),%rax
    cb0c:	48 05 16 01 00 00    	add    $0x116,%rax
    cb12:	48 89 85 d8 f9 ff ff 	mov    %rax,-0x628(%rbp)
    cb19:	48 8d 85 40 eb ff ff 	lea    -0x14c0(%rbp),%rax
    cb20:	48 05 20 01 00 00    	add    $0x120,%rax
    cb26:	48 89 85 e0 f9 ff ff 	mov    %rax,-0x620(%rbp)
    cb2d:	48 8d 85 40 eb ff ff 	lea    -0x14c0(%rbp),%rax
    cb34:	48 83 c0 5e          	add    $0x5e,%rax
    cb38:	48 89 85 e8 f9 ff ff 	mov    %rax,-0x618(%rbp)
    cb3f:	48 8d 85 40 eb ff ff 	lea    -0x14c0(%rbp),%rax
    cb46:	48 05 16 01 00 00    	add    $0x116,%rax
    cb4c:	48 89 85 f0 f9 ff ff 	mov    %rax,-0x610(%rbp)
    cb53:	48 8d 05 e6 64 00 00 	lea    0x64e6(%rip),%rax        # 13040 <g_119>
    cb5a:	48 89 85 f8 f9 ff ff 	mov    %rax,-0x608(%rbp)
    cb61:	48 8d 85 40 eb ff ff 	lea    -0x14c0(%rbp),%rax
    cb68:	48 05 16 01 00 00    	add    $0x116,%rax
    cb6e:	48 89 85 00 fa ff ff 	mov    %rax,-0x600(%rbp)
    cb75:	48 8d 85 40 eb ff ff 	lea    -0x14c0(%rbp),%rax
    cb7c:	48 05 92 01 00 00    	add    $0x192,%rax
    cb82:	48 89 85 08 fa ff ff 	mov    %rax,-0x5f8(%rbp)
    cb89:	48 8d 05 b0 64 00 00 	lea    0x64b0(%rip),%rax        # 13040 <g_119>
    cb90:	48 89 85 10 fa ff ff 	mov    %rax,-0x5f0(%rbp)
    cb97:	48 8d 85 40 eb ff ff 	lea    -0x14c0(%rbp),%rax
    cb9e:	48 05 16 01 00 00    	add    $0x116,%rax
    cba4:	48 89 85 18 fa ff ff 	mov    %rax,-0x5e8(%rbp)
    cbab:	48 8d 85 40 eb ff ff 	lea    -0x14c0(%rbp),%rax
    cbb2:	48 05 90 00 00 00    	add    $0x90,%rax
    cbb8:	48 89 85 20 fa ff ff 	mov    %rax,-0x5e0(%rbp)
    cbbf:	48 8d 85 40 eb ff ff 	lea    -0x14c0(%rbp),%rax
    cbc6:	48 05 16 01 00 00    	add    $0x116,%rax
    cbcc:	48 89 85 28 fa ff ff 	mov    %rax,-0x5d8(%rbp)
    cbd3:	48 8d 85 40 eb ff ff 	lea    -0x14c0(%rbp),%rax
    cbda:	48 05 16 01 00 00    	add    $0x116,%rax
    cbe0:	48 89 85 30 fa ff ff 	mov    %rax,-0x5d0(%rbp)
    cbe7:	48 8d 85 40 eb ff ff 	lea    -0x14c0(%rbp),%rax
    cbee:	48 83 c0 18          	add    $0x18,%rax
    cbf2:	48 89 85 38 fa ff ff 	mov    %rax,-0x5c8(%rbp)
    cbf9:	48 c7 85 40 fa ff ff 	movq   $0x0,-0x5c0(%rbp)
    cc00:	00 00 00 00 
    cc04:	48 8d 85 40 eb ff ff 	lea    -0x14c0(%rbp),%rax
    cc0b:	48 05 16 01 00 00    	add    $0x116,%rax
    cc11:	48 89 85 48 fa ff ff 	mov    %rax,-0x5b8(%rbp)
    cc18:	48 8d 05 21 64 00 00 	lea    0x6421(%rip),%rax        # 13040 <g_119>
    cc1f:	48 89 85 50 fa ff ff 	mov    %rax,-0x5b0(%rbp)
    cc26:	48 8d 05 13 64 00 00 	lea    0x6413(%rip),%rax        # 13040 <g_119>
    cc2d:	48 89 85 58 fa ff ff 	mov    %rax,-0x5a8(%rbp)
    cc34:	48 8d 05 05 64 00 00 	lea    0x6405(%rip),%rax        # 13040 <g_119>
    cc3b:	48 89 85 60 fa ff ff 	mov    %rax,-0x5a0(%rbp)
    cc42:	48 c7 85 68 fa ff ff 	movq   $0x0,-0x598(%rbp)
    cc49:	00 00 00 00 
    cc4d:	48 8d 05 ec 63 00 00 	lea    0x63ec(%rip),%rax        # 13040 <g_119>
    cc54:	48 89 85 70 fa ff ff 	mov    %rax,-0x590(%rbp)
    cc5b:	48 8d 05 de 63 00 00 	lea    0x63de(%rip),%rax        # 13040 <g_119>
    cc62:	48 89 85 78 fa ff ff 	mov    %rax,-0x588(%rbp)
    cc69:	48 8d 05 d0 63 00 00 	lea    0x63d0(%rip),%rax        # 13040 <g_119>
    cc70:	48 89 85 80 fa ff ff 	mov    %rax,-0x580(%rbp)
    cc77:	48 c7 85 88 fa ff ff 	movq   $0x0,-0x578(%rbp)
    cc7e:	00 00 00 00 
    cc82:	48 8d 05 b7 63 00 00 	lea    0x63b7(%rip),%rax        # 13040 <g_119>
    cc89:	48 89 85 90 fa ff ff 	mov    %rax,-0x570(%rbp)
    cc90:	48 8d 05 a9 63 00 00 	lea    0x63a9(%rip),%rax        # 13040 <g_119>
    cc97:	48 89 85 98 fa ff ff 	mov    %rax,-0x568(%rbp)
    cc9e:	48 8d 05 9b 63 00 00 	lea    0x639b(%rip),%rax        # 13040 <g_119>
    cca5:	48 89 85 a0 fa ff ff 	mov    %rax,-0x560(%rbp)
    ccac:	48 8d 05 8d 63 00 00 	lea    0x638d(%rip),%rax        # 13040 <g_119>
    ccb3:	48 89 85 a8 fa ff ff 	mov    %rax,-0x558(%rbp)
    ccba:	48 8d 05 7f 63 00 00 	lea    0x637f(%rip),%rax        # 13040 <g_119>
    ccc1:	48 89 85 b0 fa ff ff 	mov    %rax,-0x550(%rbp)
    ccc8:	48 8d 85 40 eb ff ff 	lea    -0x14c0(%rbp),%rax
    cccf:	48 05 20 01 00 00    	add    $0x120,%rax
    ccd5:	48 89 85 b8 fa ff ff 	mov    %rax,-0x548(%rbp)
    ccdc:	48 8d 85 40 eb ff ff 	lea    -0x14c0(%rbp),%rax
    cce3:	48 83 c0 7c          	add    $0x7c,%rax
    cce7:	48 89 85 c0 fa ff ff 	mov    %rax,-0x540(%rbp)
    ccee:	48 8d 85 40 eb ff ff 	lea    -0x14c0(%rbp),%rax
    ccf5:	48 05 90 00 00 00    	add    $0x90,%rax
    ccfb:	48 89 85 c8 fa ff ff 	mov    %rax,-0x538(%rbp)
    cd02:	48 8d 05 37 63 00 00 	lea    0x6337(%rip),%rax        # 13040 <g_119>
    cd09:	48 89 85 d0 fa ff ff 	mov    %rax,-0x530(%rbp)
    cd10:	48 8d 85 40 eb ff ff 	lea    -0x14c0(%rbp),%rax
    cd17:	48 05 d2 00 00 00    	add    $0xd2,%rax
    cd1d:	48 89 85 d8 fa ff ff 	mov    %rax,-0x528(%rbp)
    cd24:	48 8d 05 15 63 00 00 	lea    0x6315(%rip),%rax        # 13040 <g_119>
    cd2b:	48 89 85 e0 fa ff ff 	mov    %rax,-0x520(%rbp)
    cd32:	48 8d 85 40 eb ff ff 	lea    -0x14c0(%rbp),%rax
    cd39:	48 05 16 01 00 00    	add    $0x116,%rax
    cd3f:	48 89 85 e8 fa ff ff 	mov    %rax,-0x518(%rbp)
    cd46:	48 8d 85 40 eb ff ff 	lea    -0x14c0(%rbp),%rax
    cd4d:	48 83 c0 5e          	add    $0x5e,%rax
    cd51:	48 89 85 f0 fa ff ff 	mov    %rax,-0x510(%rbp)
    cd58:	48 8d 05 e1 62 00 00 	lea    0x62e1(%rip),%rax        # 13040 <g_119>
    cd5f:	48 89 85 f8 fa ff ff 	mov    %rax,-0x508(%rbp)
    cd66:	48 8d 85 40 eb ff ff 	lea    -0x14c0(%rbp),%rax
    cd6d:	48 83 c0 5e          	add    $0x5e,%rax
    cd71:	48 89 85 00 fb ff ff 	mov    %rax,-0x500(%rbp)
    cd78:	48 8d 85 40 eb ff ff 	lea    -0x14c0(%rbp),%rax
    cd7f:	48 05 16 01 00 00    	add    $0x116,%rax
    cd85:	48 89 85 08 fb ff ff 	mov    %rax,-0x4f8(%rbp)
    cd8c:	48 8d 05 ad 62 00 00 	lea    0x62ad(%rip),%rax        # 13040 <g_119>
    cd93:	48 89 85 10 fb ff ff 	mov    %rax,-0x4f0(%rbp)
    cd9a:	48 8d 85 40 eb ff ff 	lea    -0x14c0(%rbp),%rax
    cda1:	48 83 c0 3e          	add    $0x3e,%rax
    cda5:	48 89 85 18 fb ff ff 	mov    %rax,-0x4e8(%rbp)
    cdac:	48 8d 85 40 eb ff ff 	lea    -0x14c0(%rbp),%rax
    cdb3:	48 05 16 01 00 00    	add    $0x116,%rax
    cdb9:	48 89 85 20 fb ff ff 	mov    %rax,-0x4e0(%rbp)
    cdc0:	48 c7 85 28 fb ff ff 	movq   $0x0,-0x4d8(%rbp)
    cdc7:	00 00 00 00 
    cdcb:	48 8d 05 6e 62 00 00 	lea    0x626e(%rip),%rax        # 13040 <g_119>
    cdd2:	48 89 85 30 fb ff ff 	mov    %rax,-0x4d0(%rbp)
    cdd9:	48 8d 05 60 62 00 00 	lea    0x6260(%rip),%rax        # 13040 <g_119>
    cde0:	48 89 85 38 fb ff ff 	mov    %rax,-0x4c8(%rbp)
    cde7:	48 8d 05 52 62 00 00 	lea    0x6252(%rip),%rax        # 13040 <g_119>
    cdee:	48 89 85 40 fb ff ff 	mov    %rax,-0x4c0(%rbp)
    cdf5:	48 8d 85 40 eb ff ff 	lea    -0x14c0(%rbp),%rax
    cdfc:	48 05 16 01 00 00    	add    $0x116,%rax
    ce02:	48 89 85 48 fb ff ff 	mov    %rax,-0x4b8(%rbp)
    ce09:	48 8d 85 40 eb ff ff 	lea    -0x14c0(%rbp),%rax
    ce10:	48 83 c0 5e          	add    $0x5e,%rax
    ce14:	48 89 85 50 fb ff ff 	mov    %rax,-0x4b0(%rbp)
    ce1b:	48 8d 85 40 eb ff ff 	lea    -0x14c0(%rbp),%rax
    ce22:	48 83 c0 3e          	add    $0x3e,%rax
    ce26:	48 89 85 58 fb ff ff 	mov    %rax,-0x4a8(%rbp)
    ce2d:	48 8d 85 40 eb ff ff 	lea    -0x14c0(%rbp),%rax
    ce34:	48 05 90 00 00 00    	add    $0x90,%rax
    ce3a:	48 89 85 60 fb ff ff 	mov    %rax,-0x4a0(%rbp)
    ce41:	48 8d 05 f8 61 00 00 	lea    0x61f8(%rip),%rax        # 13040 <g_119>
    ce48:	48 89 85 68 fb ff ff 	mov    %rax,-0x498(%rbp)
    ce4f:	48 8d 85 40 eb ff ff 	lea    -0x14c0(%rbp),%rax
    ce56:	48 05 92 01 00 00    	add    $0x192,%rax
    ce5c:	48 89 85 70 fb ff ff 	mov    %rax,-0x490(%rbp)
    ce63:	48 8d 85 40 eb ff ff 	lea    -0x14c0(%rbp),%rax
    ce6a:	48 05 16 01 00 00    	add    $0x116,%rax
    ce70:	48 89 85 78 fb ff ff 	mov    %rax,-0x488(%rbp)
    ce77:	48 c7 85 80 fb ff ff 	movq   $0x0,-0x480(%rbp)
    ce7e:	00 00 00 00 
    ce82:	48 c7 85 88 fb ff ff 	movq   $0x0,-0x478(%rbp)
    ce89:	00 00 00 00 
    ce8d:	48 8d 05 ac 61 00 00 	lea    0x61ac(%rip),%rax        # 13040 <g_119>
    ce94:	48 89 85 90 fb ff ff 	mov    %rax,-0x470(%rbp)
    ce9b:	48 c7 85 98 fb ff ff 	movq   $0x0,-0x468(%rbp)
    cea2:	00 00 00 00 
    cea6:	48 8d 05 93 61 00 00 	lea    0x6193(%rip),%rax        # 13040 <g_119>
    cead:	48 89 85 a0 fb ff ff 	mov    %rax,-0x460(%rbp)
    ceb4:	48 8d 85 40 eb ff ff 	lea    -0x14c0(%rbp),%rax
    cebb:	48 05 16 01 00 00    	add    $0x116,%rax
    cec1:	48 89 85 a8 fb ff ff 	mov    %rax,-0x458(%rbp)
    cec8:	48 8d 85 40 eb ff ff 	lea    -0x14c0(%rbp),%rax
    cecf:	48 83 c0 7c          	add    $0x7c,%rax
    ced3:	48 89 85 b0 fb ff ff 	mov    %rax,-0x450(%rbp)
    ceda:	48 8d 05 5f 61 00 00 	lea    0x615f(%rip),%rax        # 13040 <g_119>
    cee1:	48 89 85 b8 fb ff ff 	mov    %rax,-0x448(%rbp)
    cee8:	48 c7 85 c0 fb ff ff 	movq   $0x0,-0x440(%rbp)
    ceef:	00 00 00 00 
    cef3:	48 c7 85 c8 fb ff ff 	movq   $0x0,-0x438(%rbp)
    cefa:	00 00 00 00 
    cefe:	48 8d 85 40 eb ff ff 	lea    -0x14c0(%rbp),%rax
    cf05:	48 83 c0 18          	add    $0x18,%rax
    cf09:	48 89 85 d0 fb ff ff 	mov    %rax,-0x430(%rbp)
    cf10:	48 8d 85 40 eb ff ff 	lea    -0x14c0(%rbp),%rax
    cf17:	48 05 16 01 00 00    	add    $0x116,%rax
    cf1d:	48 89 85 d8 fb ff ff 	mov    %rax,-0x428(%rbp)
    cf24:	48 c7 85 e0 fb ff ff 	movq   $0x0,-0x420(%rbp)
    cf2b:	00 00 00 00 
    cf2f:	48 8d 85 40 eb ff ff 	lea    -0x14c0(%rbp),%rax
    cf36:	48 05 16 01 00 00    	add    $0x116,%rax
    cf3c:	48 89 85 e8 fb ff ff 	mov    %rax,-0x418(%rbp)
    cf43:	48 8d 85 40 eb ff ff 	lea    -0x14c0(%rbp),%rax
    cf4a:	48 05 16 01 00 00    	add    $0x116,%rax
    cf50:	48 89 85 f0 fb ff ff 	mov    %rax,-0x410(%rbp)
    cf57:	48 8d 05 e2 60 00 00 	lea    0x60e2(%rip),%rax        # 13040 <g_119>
    cf5e:	48 89 85 f8 fb ff ff 	mov    %rax,-0x408(%rbp)
    cf65:	48 8d 85 40 eb ff ff 	lea    -0x14c0(%rbp),%rax
    cf6c:	48 05 16 01 00 00    	add    $0x116,%rax
    cf72:	48 89 85 00 fc ff ff 	mov    %rax,-0x400(%rbp)
    cf79:	48 c7 85 08 fc ff ff 	movq   $0x0,-0x3f8(%rbp)
    cf80:	00 00 00 00 
    cf84:	48 8d 85 40 eb ff ff 	lea    -0x14c0(%rbp),%rax
    cf8b:	48 05 16 01 00 00    	add    $0x116,%rax
    cf91:	48 89 85 10 fc ff ff 	mov    %rax,-0x3f0(%rbp)
    cf98:	48 8d 85 40 eb ff ff 	lea    -0x14c0(%rbp),%rax
    cf9f:	48 05 16 01 00 00    	add    $0x116,%rax
    cfa5:	48 89 85 18 fc ff ff 	mov    %rax,-0x3e8(%rbp)
    cfac:	48 c7 85 20 fc ff ff 	movq   $0x0,-0x3e0(%rbp)
    cfb3:	00 00 00 00 
    cfb7:	48 8d 85 40 eb ff ff 	lea    -0x14c0(%rbp),%rax
    cfbe:	48 83 c0 3e          	add    $0x3e,%rax
    cfc2:	48 89 85 28 fc ff ff 	mov    %rax,-0x3d8(%rbp)
    cfc9:	48 c7 85 30 fc ff ff 	movq   $0x0,-0x3d0(%rbp)
    cfd0:	00 00 00 00 
    cfd4:	48 8d 85 40 eb ff ff 	lea    -0x14c0(%rbp),%rax
    cfdb:	48 05 12 01 00 00    	add    $0x112,%rax
    cfe1:	48 89 85 38 fc ff ff 	mov    %rax,-0x3c8(%rbp)
    cfe8:	48 8d 85 40 eb ff ff 	lea    -0x14c0(%rbp),%rax
    cfef:	48 05 16 01 00 00    	add    $0x116,%rax
    cff5:	48 89 85 40 fc ff ff 	mov    %rax,-0x3c0(%rbp)
    cffc:	48 8d 05 3d 60 00 00 	lea    0x603d(%rip),%rax        # 13040 <g_119>
    d003:	48 89 85 48 fc ff ff 	mov    %rax,-0x3b8(%rbp)
    d00a:	48 c7 85 50 fc ff ff 	movq   $0x0,-0x3b0(%rbp)
    d011:	00 00 00 00 
    d015:	48 8d 85 40 eb ff ff 	lea    -0x14c0(%rbp),%rax
    d01c:	48 05 d2 00 00 00    	add    $0xd2,%rax
    d022:	48 89 85 58 fc ff ff 	mov    %rax,-0x3a8(%rbp)
    d029:	48 8d 85 40 eb ff ff 	lea    -0x14c0(%rbp),%rax
    d030:	48 05 16 01 00 00    	add    $0x116,%rax
    d036:	48 89 85 60 fc ff ff 	mov    %rax,-0x3a0(%rbp)
    d03d:	48 c7 85 68 fc ff ff 	movq   $0x0,-0x398(%rbp)
    d044:	00 00 00 00 
    d048:	48 8d 05 f1 5f 00 00 	lea    0x5ff1(%rip),%rax        # 13040 <g_119>
    d04f:	48 89 85 70 fc ff ff 	mov    %rax,-0x390(%rbp)
    d056:	48 8d 05 e3 5f 00 00 	lea    0x5fe3(%rip),%rax        # 13040 <g_119>
    d05d:	48 89 85 78 fc ff ff 	mov    %rax,-0x388(%rbp)
    d064:	48 8d 85 40 eb ff ff 	lea    -0x14c0(%rbp),%rax
    d06b:	48 05 16 01 00 00    	add    $0x116,%rax
    d071:	48 89 85 80 fc ff ff 	mov    %rax,-0x380(%rbp)
    d078:	48 8d 05 c1 5f 00 00 	lea    0x5fc1(%rip),%rax        # 13040 <g_119>
    d07f:	48 89 85 88 fc ff ff 	mov    %rax,-0x378(%rbp)
    d086:	48 8d 85 40 eb ff ff 	lea    -0x14c0(%rbp),%rax
    d08d:	48 05 16 01 00 00    	add    $0x116,%rax
    d093:	48 89 85 90 fc ff ff 	mov    %rax,-0x370(%rbp)
    d09a:	48 8d 05 9f 5f 00 00 	lea    0x5f9f(%rip),%rax        # 13040 <g_119>
    d0a1:	48 89 85 98 fc ff ff 	mov    %rax,-0x368(%rbp)
    d0a8:	48 8d 05 91 5f 00 00 	lea    0x5f91(%rip),%rax        # 13040 <g_119>
    d0af:	48 89 85 a0 fc ff ff 	mov    %rax,-0x360(%rbp)
    d0b6:	48 8d 85 40 eb ff ff 	lea    -0x14c0(%rbp),%rax
    d0bd:	48 05 16 01 00 00    	add    $0x116,%rax
    d0c3:	48 89 85 a8 fc ff ff 	mov    %rax,-0x358(%rbp)
    d0ca:	48 8d 05 6f 5f 00 00 	lea    0x5f6f(%rip),%rax        # 13040 <g_119>
    d0d1:	48 89 85 b0 fc ff ff 	mov    %rax,-0x350(%rbp)
    d0d8:	48 8d 05 61 5f 00 00 	lea    0x5f61(%rip),%rax        # 13040 <g_119>
    d0df:	48 89 85 b8 fc ff ff 	mov    %rax,-0x348(%rbp)
    d0e6:	48 c7 85 c0 fc ff ff 	movq   $0x0,-0x340(%rbp)
    d0ed:	00 00 00 00 
    d0f1:	48 c7 85 c8 fc ff ff 	movq   $0x0,-0x338(%rbp)
    d0f8:	00 00 00 00 
    d0fc:	48 8d 05 3d 5f 00 00 	lea    0x5f3d(%rip),%rax        # 13040 <g_119>
    d103:	48 89 85 d0 fc ff ff 	mov    %rax,-0x330(%rbp)
    d10a:	48 c7 85 d8 fc ff ff 	movq   $0x0,-0x328(%rbp)
    d111:	00 00 00 00 
    d115:	48 8d 85 40 eb ff ff 	lea    -0x14c0(%rbp),%rax
    d11c:	48 05 d2 00 00 00    	add    $0xd2,%rax
    d122:	48 89 85 e0 fc ff ff 	mov    %rax,-0x320(%rbp)
    d129:	48 c7 85 e8 fc ff ff 	movq   $0x0,-0x318(%rbp)
    d130:	00 00 00 00 
    d134:	48 8d 85 40 eb ff ff 	lea    -0x14c0(%rbp),%rax
    d13b:	48 05 16 01 00 00    	add    $0x116,%rax
    d141:	48 89 85 f0 fc ff ff 	mov    %rax,-0x310(%rbp)
    d148:	48 8d 85 40 eb ff ff 	lea    -0x14c0(%rbp),%rax
    d14f:	48 05 12 01 00 00    	add    $0x112,%rax
    d155:	48 89 85 f8 fc ff ff 	mov    %rax,-0x308(%rbp)
    d15c:	48 8d 05 dd 5e 00 00 	lea    0x5edd(%rip),%rax        # 13040 <g_119>
    d163:	48 89 85 00 fd ff ff 	mov    %rax,-0x300(%rbp)
    d16a:	48 8d 05 cf 5e 00 00 	lea    0x5ecf(%rip),%rax        # 13040 <g_119>
    d171:	48 89 85 08 fd ff ff 	mov    %rax,-0x2f8(%rbp)
    d178:	48 8d 05 c1 5e 00 00 	lea    0x5ec1(%rip),%rax        # 13040 <g_119>
    d17f:	48 89 85 10 fd ff ff 	mov    %rax,-0x2f0(%rbp)
    d186:	48 8d 05 b3 5e 00 00 	lea    0x5eb3(%rip),%rax        # 13040 <g_119>
    d18d:	48 89 85 18 fd ff ff 	mov    %rax,-0x2e8(%rbp)
    d194:	48 8d 05 a5 5e 00 00 	lea    0x5ea5(%rip),%rax        # 13040 <g_119>
    d19b:	48 89 85 20 fd ff ff 	mov    %rax,-0x2e0(%rbp)
    d1a2:	48 8d 85 40 eb ff ff 	lea    -0x14c0(%rbp),%rax
    d1a9:	48 83 c0 3e          	add    $0x3e,%rax
    d1ad:	48 89 85 28 fd ff ff 	mov    %rax,-0x2d8(%rbp)
    d1b4:	48 8d 05 85 5e 00 00 	lea    0x5e85(%rip),%rax        # 13040 <g_119>
    d1bb:	48 89 85 30 fd ff ff 	mov    %rax,-0x2d0(%rbp)
    d1c2:	48 8d 05 77 5e 00 00 	lea    0x5e77(%rip),%rax        # 13040 <g_119>
    d1c9:	48 89 85 38 fd ff ff 	mov    %rax,-0x2c8(%rbp)
    d1d0:	48 8d 85 40 eb ff ff 	lea    -0x14c0(%rbp),%rax
    d1d7:	48 05 16 01 00 00    	add    $0x116,%rax
    d1dd:	48 89 85 40 fd ff ff 	mov    %rax,-0x2c0(%rbp)
    d1e4:	48 8d 85 40 eb ff ff 	lea    -0x14c0(%rbp),%rax
    d1eb:	48 83 c0 18          	add    $0x18,%rax
    d1ef:	48 89 85 48 fd ff ff 	mov    %rax,-0x2b8(%rbp)
    d1f6:	48 8d 05 43 5e 00 00 	lea    0x5e43(%rip),%rax        # 13040 <g_119>
    d1fd:	48 89 85 50 fd ff ff 	mov    %rax,-0x2b0(%rbp)
    d204:	48 8d 85 40 eb ff ff 	lea    -0x14c0(%rbp),%rax
    d20b:	48 05 16 01 00 00    	add    $0x116,%rax
    d211:	48 89 85 58 fd ff ff 	mov    %rax,-0x2a8(%rbp)
    d218:	48 8d 85 40 eb ff ff 	lea    -0x14c0(%rbp),%rax
    d21f:	48 05 16 01 00 00    	add    $0x116,%rax
    d225:	48 89 85 60 fd ff ff 	mov    %rax,-0x2a0(%rbp)
    d22c:	48 8d 85 40 eb ff ff 	lea    -0x14c0(%rbp),%rax
    d233:	48 83 c0 3e          	add    $0x3e,%rax
    d237:	48 89 85 68 fd ff ff 	mov    %rax,-0x298(%rbp)
    d23e:	48 8d 05 fb 5d 00 00 	lea    0x5dfb(%rip),%rax        # 13040 <g_119>
    d245:	48 89 85 70 fd ff ff 	mov    %rax,-0x290(%rbp)
    d24c:	48 8d 85 40 eb ff ff 	lea    -0x14c0(%rbp),%rax
    d253:	48 05 16 01 00 00    	add    $0x116,%rax
    d259:	48 89 85 78 fd ff ff 	mov    %rax,-0x288(%rbp)
    d260:	48 8d 85 40 eb ff ff 	lea    -0x14c0(%rbp),%rax
    d267:	48 05 16 01 00 00    	add    $0x116,%rax
    d26d:	48 89 85 80 fd ff ff 	mov    %rax,-0x280(%rbp)
    d274:	48 8d 05 c5 5d 00 00 	lea    0x5dc5(%rip),%rax        # 13040 <g_119>
    d27b:	48 89 85 88 fd ff ff 	mov    %rax,-0x278(%rbp)
    d282:	48 c7 85 90 fd ff ff 	movq   $0x0,-0x270(%rbp)
    d289:	00 00 00 00 
    d28d:	48 8d 85 40 eb ff ff 	lea    -0x14c0(%rbp),%rax
    d294:	48 05 90 00 00 00    	add    $0x90,%rax
    d29a:	48 89 85 98 fd ff ff 	mov    %rax,-0x268(%rbp)
    d2a1:	48 8d 85 40 eb ff ff 	lea    -0x14c0(%rbp),%rax
    d2a8:	48 05 c6 00 00 00    	add    $0xc6,%rax
    d2ae:	48 89 85 a0 fd ff ff 	mov    %rax,-0x260(%rbp)
    d2b5:	48 c7 85 a8 fd ff ff 	movq   $0x0,-0x258(%rbp)
    d2bc:	00 00 00 00 
    d2c0:	48 c7 85 b0 fd ff ff 	movq   $0x0,-0x250(%rbp)
    d2c7:	00 00 00 00 
    d2cb:	48 8d 05 6e 5d 00 00 	lea    0x5d6e(%rip),%rax        # 13040 <g_119>
    d2d2:	48 89 85 b8 fd ff ff 	mov    %rax,-0x248(%rbp)
    d2d9:	48 8d 05 60 5d 00 00 	lea    0x5d60(%rip),%rax        # 13040 <g_119>
    d2e0:	48 89 85 c0 fd ff ff 	mov    %rax,-0x240(%rbp)
    d2e7:	48 8d 85 40 eb ff ff 	lea    -0x14c0(%rbp),%rax
    d2ee:	48 83 c0 3e          	add    $0x3e,%rax
    d2f2:	48 89 85 c8 fd ff ff 	mov    %rax,-0x238(%rbp)
    d2f9:	48 c7 85 d0 fd ff ff 	movq   $0x0,-0x230(%rbp)
    d300:	00 00 00 00 
    d304:	48 8d 85 40 eb ff ff 	lea    -0x14c0(%rbp),%rax
    d30b:	48 05 d2 00 00 00    	add    $0xd2,%rax
    d311:	48 89 85 d8 fd ff ff 	mov    %rax,-0x228(%rbp)
    d318:	48 8d 85 40 eb ff ff 	lea    -0x14c0(%rbp),%rax
    d31f:	48 05 16 01 00 00    	add    $0x116,%rax
    d325:	48 89 85 e0 fd ff ff 	mov    %rax,-0x220(%rbp)
    d32c:	48 8d 85 40 eb ff ff 	lea    -0x14c0(%rbp),%rax
    d333:	48 05 16 01 00 00    	add    $0x116,%rax
    d339:	48 89 85 e8 fd ff ff 	mov    %rax,-0x218(%rbp)
    d340:	48 c7 85 f0 fd ff ff 	movq   $0x0,-0x210(%rbp)
    d347:	00 00 00 00 
    d34b:	48 8d 05 ee 5c 00 00 	lea    0x5cee(%rip),%rax        # 13040 <g_119>
    d352:	48 89 85 f8 fd ff ff 	mov    %rax,-0x208(%rbp)
    d359:	48 8d 05 e0 5c 00 00 	lea    0x5ce0(%rip),%rax        # 13040 <g_119>
    d360:	48 89 85 00 fe ff ff 	mov    %rax,-0x200(%rbp)
    d367:	48 8d 05 d2 5c 00 00 	lea    0x5cd2(%rip),%rax        # 13040 <g_119>
    d36e:	48 89 85 08 fe ff ff 	mov    %rax,-0x1f8(%rbp)
    d375:	48 8d 85 40 eb ff ff 	lea    -0x14c0(%rbp),%rax
    d37c:	48 05 16 01 00 00    	add    $0x116,%rax
    d382:	48 89 85 10 fe ff ff 	mov    %rax,-0x1f0(%rbp)
    d389:	48 8d 85 40 eb ff ff 	lea    -0x14c0(%rbp),%rax
    d390:	48 05 d2 00 00 00    	add    $0xd2,%rax
    d396:	48 89 85 18 fe ff ff 	mov    %rax,-0x1e8(%rbp)
    d39d:	48 8d 05 9c 5c 00 00 	lea    0x5c9c(%rip),%rax        # 13040 <g_119>
    d3a4:	48 89 85 20 fe ff ff 	mov    %rax,-0x1e0(%rbp)
    d3ab:	48 8d 05 8e 5c 00 00 	lea    0x5c8e(%rip),%rax        # 13040 <g_119>
    d3b2:	48 89 85 28 fe ff ff 	mov    %rax,-0x1d8(%rbp)
    d3b9:	48 8d 05 80 5c 00 00 	lea    0x5c80(%rip),%rax        # 13040 <g_119>
    d3c0:	48 89 85 30 fe ff ff 	mov    %rax,-0x1d0(%rbp)
    d3c7:	48 c7 85 38 fe ff ff 	movq   $0x0,-0x1c8(%rbp)
    d3ce:	00 00 00 00 
    d3d2:	48 8d 05 67 5c 00 00 	lea    0x5c67(%rip),%rax        # 13040 <g_119>
    d3d9:	48 89 85 40 fe ff ff 	mov    %rax,-0x1c0(%rbp)
    d3e0:	48 c7 85 48 fe ff ff 	movq   $0x0,-0x1b8(%rbp)
    d3e7:	00 00 00 00 
    d3eb:	48 c7 85 50 fe ff ff 	movq   $0x0,-0x1b0(%rbp)
    d3f2:	00 00 00 00 
    d3f6:	48 8d 85 40 eb ff ff 	lea    -0x14c0(%rbp),%rax
    d3fd:	48 05 90 00 00 00    	add    $0x90,%rax
    d403:	48 89 85 58 fe ff ff 	mov    %rax,-0x1a8(%rbp)
    d40a:	48 8d 05 2f 5c 00 00 	lea    0x5c2f(%rip),%rax        # 13040 <g_119>
    d411:	48 89 85 60 fe ff ff 	mov    %rax,-0x1a0(%rbp)
    d418:	48 8d 05 21 5c 00 00 	lea    0x5c21(%rip),%rax        # 13040 <g_119>
    d41f:	48 89 85 68 fe ff ff 	mov    %rax,-0x198(%rbp)
    d426:	48 8d 85 40 eb ff ff 	lea    -0x14c0(%rbp),%rax
    d42d:	48 05 16 01 00 00    	add    $0x116,%rax
    d433:	48 89 85 70 fe ff ff 	mov    %rax,-0x190(%rbp)
    d43a:	48 c7 85 78 fe ff ff 	movq   $0x0,-0x188(%rbp)
    d441:	00 00 00 00 
    d445:	48 8d 05 f4 5b 00 00 	lea    0x5bf4(%rip),%rax        # 13040 <g_119>
    d44c:	48 89 85 80 fe ff ff 	mov    %rax,-0x180(%rbp)
    d453:	48 8d 85 40 eb ff ff 	lea    -0x14c0(%rbp),%rax
    d45a:	48 05 16 01 00 00    	add    $0x116,%rax
    d460:	48 89 85 88 fe ff ff 	mov    %rax,-0x178(%rbp)
    d467:	48 8d 85 40 eb ff ff 	lea    -0x14c0(%rbp),%rax
    d46e:	48 05 16 01 00 00    	add    $0x116,%rax
    d474:	48 89 85 90 fe ff ff 	mov    %rax,-0x170(%rbp)
    d47b:	48 8d 85 40 eb ff ff 	lea    -0x14c0(%rbp),%rax
    d482:	48 83 c0 7c          	add    $0x7c,%rax
    d486:	48 89 85 98 fe ff ff 	mov    %rax,-0x168(%rbp)
    d48d:	48 8d 85 40 eb ff ff 	lea    -0x14c0(%rbp),%rax
    d494:	48 05 16 01 00 00    	add    $0x116,%rax
    d49a:	48 89 85 a0 fe ff ff 	mov    %rax,-0x160(%rbp)
    d4a1:	48 8d 85 40 eb ff ff 	lea    -0x14c0(%rbp),%rax
    d4a8:	48 05 90 00 00 00    	add    $0x90,%rax
    d4ae:	48 89 85 a8 fe ff ff 	mov    %rax,-0x158(%rbp)
    d4b5:	48 8d 85 40 eb ff ff 	lea    -0x14c0(%rbp),%rax
    d4bc:	48 05 90 00 00 00    	add    $0x90,%rax
    d4c2:	48 89 85 b0 fe ff ff 	mov    %rax,-0x150(%rbp)
    d4c9:	48 8d 85 40 eb ff ff 	lea    -0x14c0(%rbp),%rax
    d4d0:	48 05 16 01 00 00    	add    $0x116,%rax
    d4d6:	48 89 85 b8 fe ff ff 	mov    %rax,-0x148(%rbp)
    d4dd:	48 8d 85 40 eb ff ff 	lea    -0x14c0(%rbp),%rax
    d4e4:	48 83 c0 7c          	add    $0x7c,%rax
    d4e8:	48 89 85 c0 fe ff ff 	mov    %rax,-0x140(%rbp)
    d4ef:	48 8d 85 40 eb ff ff 	lea    -0x14c0(%rbp),%rax
    d4f6:	48 05 16 01 00 00    	add    $0x116,%rax
    d4fc:	48 89 85 c8 fe ff ff 	mov    %rax,-0x138(%rbp)
    d503:	48 8d 85 40 eb ff ff 	lea    -0x14c0(%rbp),%rax
    d50a:	48 05 20 01 00 00    	add    $0x120,%rax
    d510:	48 89 85 d0 fe ff ff 	mov    %rax,-0x130(%rbp)
    d517:	48 c7 85 d8 fe ff ff 	movq   $0x0,-0x128(%rbp)
    d51e:	00 00 00 00 
    d522:	48 8d 05 17 5b 00 00 	lea    0x5b17(%rip),%rax        # 13040 <g_119>
    d529:	48 89 85 e0 fe ff ff 	mov    %rax,-0x120(%rbp)
    d530:	48 8d 85 40 eb ff ff 	lea    -0x14c0(%rbp),%rax
    d537:	48 05 16 01 00 00    	add    $0x116,%rax
    d53d:	48 89 85 e8 fe ff ff 	mov    %rax,-0x118(%rbp)
    d544:	48 8d 05 f5 5a 00 00 	lea    0x5af5(%rip),%rax        # 13040 <g_119>
    d54b:	48 89 85 f0 fe ff ff 	mov    %rax,-0x110(%rbp)
    d552:	48 8d 05 e7 5a 00 00 	lea    0x5ae7(%rip),%rax        # 13040 <g_119>
    d559:	48 89 85 f8 fe ff ff 	mov    %rax,-0x108(%rbp)
    d560:	48 8d 85 40 eb ff ff 	lea    -0x14c0(%rbp),%rax
    d567:	48 05 12 01 00 00    	add    $0x112,%rax
    d56d:	48 89 85 00 ff ff ff 	mov    %rax,-0x100(%rbp)
    d574:	48 8d 85 40 eb ff ff 	lea    -0x14c0(%rbp),%rax
    d57b:	48 05 16 01 00 00    	add    $0x116,%rax
    d581:	48 89 85 08 ff ff ff 	mov    %rax,-0xf8(%rbp)
    d588:	48 8d 05 b1 5a 00 00 	lea    0x5ab1(%rip),%rax        # 13040 <g_119>
    d58f:	48 89 85 10 ff ff ff 	mov    %rax,-0xf0(%rbp)
    d596:	48 8d 85 40 eb ff ff 	lea    -0x14c0(%rbp),%rax
    d59d:	48 05 16 01 00 00    	add    $0x116,%rax
    d5a3:	48 89 85 18 ff ff ff 	mov    %rax,-0xe8(%rbp)
    d5aa:	48 8d 85 40 eb ff ff 	lea    -0x14c0(%rbp),%rax
    d5b1:	48 83 c0 3e          	add    $0x3e,%rax
    d5b5:	48 89 85 20 ff ff ff 	mov    %rax,-0xe0(%rbp)
    d5bc:	48 c7 85 28 ff ff ff 	movq   $0x0,-0xd8(%rbp)
    d5c3:	00 00 00 00 
    d5c7:	48 c7 85 30 ff ff ff 	movq   $0x0,-0xd0(%rbp)
    d5ce:	00 00 00 00 
    d5d2:	48 8d 85 40 eb ff ff 	lea    -0x14c0(%rbp),%rax
    d5d9:	48 83 c0 18          	add    $0x18,%rax
    d5dd:	48 89 85 38 ff ff ff 	mov    %rax,-0xc8(%rbp)
    d5e4:	48 8d 85 40 eb ff ff 	lea    -0x14c0(%rbp),%rax
    d5eb:	48 05 90 00 00 00    	add    $0x90,%rax
    d5f1:	48 89 85 40 ff ff ff 	mov    %rax,-0xc0(%rbp)
    d5f8:	48 c7 85 48 ff ff ff 	movq   $0x0,-0xb8(%rbp)
    d5ff:	00 00 00 00 
    d603:	48 8d 05 36 5a 00 00 	lea    0x5a36(%rip),%rax        # 13040 <g_119>
    d60a:	48 89 85 50 ff ff ff 	mov    %rax,-0xb0(%rbp)
    d611:	48 8d 85 40 eb ff ff 	lea    -0x14c0(%rbp),%rax
    d618:	48 05 16 01 00 00    	add    $0x116,%rax
    d61e:	48 89 85 58 ff ff ff 	mov    %rax,-0xa8(%rbp)
    d625:	48 8d 05 14 5a 00 00 	lea    0x5a14(%rip),%rax        # 13040 <g_119>
    d62c:	48 89 85 60 ff ff ff 	mov    %rax,-0xa0(%rbp)
    d633:	48 8d 85 40 eb ff ff 	lea    -0x14c0(%rbp),%rax
    d63a:	48 05 16 01 00 00    	add    $0x116,%rax
    d640:	48 89 85 68 ff ff ff 	mov    %rax,-0x98(%rbp)
    d647:	48 8d 85 40 eb ff ff 	lea    -0x14c0(%rbp),%rax
    d64e:	48 05 20 01 00 00    	add    $0x120,%rax
    d654:	48 89 85 70 ff ff ff 	mov    %rax,-0x90(%rbp)
    d65b:	48 c7 85 78 ff ff ff 	movq   $0x0,-0x88(%rbp)
    d662:	00 00 00 00 
    d666:	48 8d 85 40 eb ff ff 	lea    -0x14c0(%rbp),%rax
    d66d:	48 05 16 01 00 00    	add    $0x116,%rax
    d673:	48 89 45 80          	mov    %rax,-0x80(%rbp)
    d677:	48 8d 85 40 eb ff ff 	lea    -0x14c0(%rbp),%rax
    d67e:	48 05 92 01 00 00    	add    $0x192,%rax
    d684:	48 89 45 88          	mov    %rax,-0x78(%rbp)
    d688:	48 8d 05 b1 59 00 00 	lea    0x59b1(%rip),%rax        # 13040 <g_119>
    d68f:	48 89 45 90          	mov    %rax,-0x70(%rbp)
    d693:	48 8d 85 40 eb ff ff 	lea    -0x14c0(%rbp),%rax
    d69a:	48 05 16 01 00 00    	add    $0x116,%rax
    d6a0:	48 89 45 98          	mov    %rax,-0x68(%rbp)
    d6a4:	48 8d 85 40 eb ff ff 	lea    -0x14c0(%rbp),%rax
    d6ab:	48 05 90 00 00 00    	add    $0x90,%rax
    d6b1:	48 89 45 a0          	mov    %rax,-0x60(%rbp)
    d6b5:	48 8d 85 40 eb ff ff 	lea    -0x14c0(%rbp),%rax
    d6bc:	48 05 16 01 00 00    	add    $0x116,%rax
    d6c2:	48 89 45 a8          	mov    %rax,-0x58(%rbp)
    d6c6:	48 c7 45 b0 00 00 00 	movq   $0x0,-0x50(%rbp)
    d6cd:	00 
    d6ce:	48 8d 05 6b 59 00 00 	lea    0x596b(%rip),%rax        # 13040 <g_119>
    d6d5:	48 89 45 b8          	mov    %rax,-0x48(%rbp)
    d6d9:	48 8d 05 60 59 00 00 	lea    0x5960(%rip),%rax        # 13040 <g_119>
    d6e0:	48 89 45 c0          	mov    %rax,-0x40(%rbp)
    d6e4:	48 8d 85 40 eb ff ff 	lea    -0x14c0(%rbp),%rax
    d6eb:	48 05 16 01 00 00    	add    $0x116,%rax
    d6f1:	48 89 45 c8          	mov    %rax,-0x38(%rbp)
    d6f5:	48 c7 45 d0 00 00 00 	movq   $0x0,-0x30(%rbp)
    d6fc:	00 
    d6fd:	48 8d 85 40 eb ff ff 	lea    -0x14c0(%rbp),%rax
    d704:	48 05 12 01 00 00    	add    $0x112,%rax
    d70a:	48 89 45 d8          	mov    %rax,-0x28(%rbp)
    d70e:	48 c7 45 e0 00 00 00 	movq   $0x0,-0x20(%rbp)
    d715:	00 
    d716:	48 c7 85 a0 ea ff ff 	movq   $0x0,-0x1560(%rbp)
    d71d:	00 00 00 00 
    d721:	48 c7 85 a8 ea ff ff 	movq   $0x0,-0x1558(%rbp)
    d728:	00 00 00 00 
    d72c:	48 8d 05 15 59 00 00 	lea    0x5915(%rip),%rax        # 13048 <g_128>
    d733:	48 89 85 b0 ea ff ff 	mov    %rax,-0x1550(%rbp)
    d73a:	48 8d 05 07 59 00 00 	lea    0x5907(%rip),%rax        # 13048 <g_128>
    d741:	48 89 85 b8 ea ff ff 	mov    %rax,-0x1548(%rbp)
    d748:	48 8d 05 f9 58 00 00 	lea    0x58f9(%rip),%rax        # 13048 <g_128>
    d74f:	48 89 85 c0 ea ff ff 	mov    %rax,-0x1540(%rbp)
    d756:	48 8d 05 eb 58 00 00 	lea    0x58eb(%rip),%rax        # 13048 <g_128>
    d75d:	48 89 85 c8 ea ff ff 	mov    %rax,-0x1538(%rbp)
    d764:	48 8d 05 dd 58 00 00 	lea    0x58dd(%rip),%rax        # 13048 <g_128>
    d76b:	48 89 85 d0 ea ff ff 	mov    %rax,-0x1530(%rbp)
    d772:	48 8d 05 cf 58 00 00 	lea    0x58cf(%rip),%rax        # 13048 <g_128>
    d779:	48 89 85 d8 ea ff ff 	mov    %rax,-0x1528(%rbp)
    d780:	48 8d 05 c1 58 00 00 	lea    0x58c1(%rip),%rax        # 13048 <g_128>
    d787:	48 89 85 e0 ea ff ff 	mov    %rax,-0x1520(%rbp)
    d78e:	48 8d 05 b3 58 00 00 	lea    0x58b3(%rip),%rax        # 13048 <g_128>
    d795:	48 89 85 e8 ea ff ff 	mov    %rax,-0x1518(%rbp)
    d79c:	48 c7 85 f0 ea ff ff 	movq   $0x0,-0x1510(%rbp)
    d7a3:	00 00 00 00 
    d7a7:	48 c7 85 f8 ea ff ff 	movq   $0x0,-0x1508(%rbp)
    d7ae:	00 00 00 00 
    d7b2:	48 8d 05 8f 58 00 00 	lea    0x588f(%rip),%rax        # 13048 <g_128>
    d7b9:	48 89 85 00 eb ff ff 	mov    %rax,-0x1500(%rbp)
    d7c0:	48 8d 05 81 58 00 00 	lea    0x5881(%rip),%rax        # 13048 <g_128>
    d7c7:	48 89 85 08 eb ff ff 	mov    %rax,-0x14f8(%rbp)
    d7ce:	48 8d 05 73 58 00 00 	lea    0x5873(%rip),%rax        # 13048 <g_128>
    d7d5:	48 89 85 10 eb ff ff 	mov    %rax,-0x14f0(%rbp)
    d7dc:	48 8d 05 65 58 00 00 	lea    0x5865(%rip),%rax        # 13048 <g_128>
    d7e3:	48 89 85 18 eb ff ff 	mov    %rax,-0x14e8(%rbp)
    d7ea:	48 8d 05 57 58 00 00 	lea    0x5857(%rip),%rax        # 13048 <g_128>
    d7f1:	48 89 85 20 eb ff ff 	mov    %rax,-0x14e0(%rbp)
    d7f8:	48 8d 05 49 58 00 00 	lea    0x5849(%rip),%rax        # 13048 <g_128>
    d7ff:	48 89 85 28 eb ff ff 	mov    %rax,-0x14d8(%rbp)
    d806:	48 8d 05 3b 58 00 00 	lea    0x583b(%rip),%rax        # 13048 <g_128>
    d80d:	48 89 85 30 eb ff ff 	mov    %rax,-0x14d0(%rbp)
    d814:	48 8d 05 2d 58 00 00 	lea    0x582d(%rip),%rax        # 13048 <g_128>
    d81b:	48 89 85 38 eb ff ff 	mov    %rax,-0x14c8(%rbp)
    d822:	c7 85 84 e8 ff ff 35 	movl   $0x1e15b835,-0x177c(%rbp)
    d829:	b8 15 1e 
    d82c:	48 8d 05 1d 58 00 00 	lea    0x581d(%rip),%rax        # 13050 <g_131>
    d833:	48 89 85 60 ea ff ff 	mov    %rax,-0x15a0(%rbp)
    d83a:	48 8d 05 0f 58 00 00 	lea    0x580f(%rip),%rax        # 13050 <g_131>
    d841:	48 89 85 68 ea ff ff 	mov    %rax,-0x1598(%rbp)
    d848:	48 8d 05 01 58 00 00 	lea    0x5801(%rip),%rax        # 13050 <g_131>
    d84f:	48 89 85 70 ea ff ff 	mov    %rax,-0x1590(%rbp)
    d856:	48 8d 05 f3 57 00 00 	lea    0x57f3(%rip),%rax        # 13050 <g_131>
    d85d:	48 89 85 78 ea ff ff 	mov    %rax,-0x1588(%rbp)
    d864:	48 8d 05 e5 57 00 00 	lea    0x57e5(%rip),%rax        # 13050 <g_131>
    d86b:	48 89 85 80 ea ff ff 	mov    %rax,-0x1580(%rbp)
    d872:	48 8d 05 d7 57 00 00 	lea    0x57d7(%rip),%rax        # 13050 <g_131>
    d879:	48 89 85 88 ea ff ff 	mov    %rax,-0x1578(%rbp)
    d880:	48 8d 05 c9 57 00 00 	lea    0x57c9(%rip),%rax        # 13050 <g_131>
    d887:	48 89 85 90 ea ff ff 	mov    %rax,-0x1570(%rbp)
    d88e:	48 8d 85 f0 e9 ff ff 	lea    -0x1610(%rbp),%rax
    d895:	48 89 85 00 e9 ff ff 	mov    %rax,-0x1700(%rbp)
    d89c:	c7 85 b4 e8 ff ff ff 	movl   $0xffffffff,-0x174c(%rbp)
    d8a3:	ff ff ff 
    d8a6:	c7 85 b8 e8 ff ff 0c 	movl   $0xca091e0c,-0x1748(%rbp)
    d8ad:	1e 09 ca 
    d8b0:	c7 85 88 e8 ff ff 00 	movl   $0x0,-0x1778(%rbp)
    d8b7:	00 00 00 
    d8ba:	eb 1e                	jmp    d8da <func_68+0x14de>
    d8bc:	8b 85 88 e8 ff ff    	mov    -0x1778(%rbp),%eax
    d8c2:	48 98                	cltq   
    d8c4:	48 8d 15 87 57 00 00 	lea    0x5787(%rip),%rdx        # 13052 <g_167>
    d8cb:	48 89 94 c5 f0 e9 ff 	mov    %rdx,-0x1610(%rbp,%rax,8)
    d8d2:	ff 
    d8d3:	83 85 88 e8 ff ff 01 	addl   $0x1,-0x1778(%rbp)
    d8da:	83 bd 88 e8 ff ff 02 	cmpl   $0x2,-0x1778(%rbp)
    d8e1:	7e d9                	jle    d8bc <func_68+0x14c0>
    d8e3:	48 8b 85 80 e9 ff ff 	mov    -0x1680(%rbp),%rax
    d8ea:	0f b6 00             	movzbl (%rax),%eax
    d8ed:	89 c2                	mov    %eax,%edx
    d8ef:	48 8b 05 3a 57 00 00 	mov    0x573a(%rip),%rax        # 13030 <g_48>
    d8f6:	09 d0                	or     %edx,%eax
    d8f8:	89 c2                	mov    %eax,%edx
    d8fa:	48 8b 85 80 e9 ff ff 	mov    -0x1680(%rbp),%rax
    d901:	88 10                	mov    %dl,(%rax)
    d903:	c7 85 4c e8 ff ff e0 	movl   $0x66e0,-0x17b4(%rbp)
    d90a:	66 00 00 
    d90d:	bf e0 66 00 00       	mov    $0x66e0,%edi
    d912:	e8 86 7a ff ff       	callq  539d <safe_unary_minus_func_int16_t_s>
    d917:	66 85 c0             	test   %ax,%ax
    d91a:	74 78                	je     d994 <func_68+0x1598>
    d91c:	8b 9d 3c e8 ff ff    	mov    -0x17c4(%rbp),%ebx
    d922:	8b 85 4c e8 ff ff    	mov    -0x17b4(%rbp),%eax
    d928:	44 0f bf e0          	movswl %ax,%r12d
    d92c:	0f b7 85 56 ec ff ff 	movzwl -0x13aa(%rbp),%eax
    d933:	98                   	cwtl   
    d934:	89 85 84 e8 ff ff    	mov    %eax,-0x177c(%rbp)
    d93a:	83 bd 84 e8 ff ff 00 	cmpl   $0x0,-0x177c(%rbp)
    d941:	74 16                	je     d959 <func_68+0x155d>
    d943:	8b 85 f0 e8 ff ff    	mov    -0x1710(%rbp),%eax
    d949:	83 c0 01             	add    $0x1,%eax
    d94c:	89 85 f0 e8 ff ff    	mov    %eax,-0x1710(%rbp)
    d952:	b8 01 00 00 00       	mov    $0x1,%eax
    d957:	eb 05                	jmp    d95e <func_68+0x1562>
    d959:	b8 00 00 00 00       	mov    $0x0,%eax
    d95e:	89 c2                	mov    %eax,%edx
    d960:	8b 05 c2 56 00 00    	mov    0x56c2(%rip),%eax        # 13028 <g_43>
    d966:	98                   	cwtl   
    d967:	89 d6                	mov    %edx,%esi
    d969:	89 c7                	mov    %eax,%edi
    d96b:	e8 f3 7b ff ff       	callq  5563 <safe_rshift_func_int16_t_s_u>
    d970:	34 e1                	xor    $0xe1,%al
    d972:	98                   	cwtl   
    d973:	44 89 e6             	mov    %r12d,%esi
    d976:	89 c7                	mov    %eax,%edi
    d978:	e8 78 7a ff ff       	callq  53f5 <safe_mul_func_int16_t_s_s>
    d97d:	48 89 de             	mov    %rbx,%rsi
    d980:	48 bf 11 a9 03 52 f4 	movabs $0xd86666f45203a911,%rdi
    d987:	66 66 d8 
    d98a:	e8 25 80 ff ff       	callq  59b4 <safe_mod_func_int64_t_s_s>
    d98f:	48 85 c0             	test   %rax,%rax
    d992:	74 10                	je     d9a4 <func_68+0x15a8>
    d994:	83 bd 3c e8 ff ff 00 	cmpl   $0x0,-0x17c4(%rbp)
    d99b:	74 07                	je     d9a4 <func_68+0x15a8>
    d99d:	b8 01 00 00 00       	mov    $0x1,%eax
    d9a2:	eb 05                	jmp    d9a9 <func_68+0x15ad>
    d9a4:	b8 00 00 00 00       	mov    $0x0,%eax
    d9a9:	89 c2                	mov    %eax,%edx
    d9ab:	0f b7 85 ca eb ff ff 	movzwl -0x1436(%rbp),%eax
    d9b2:	0f b7 c0             	movzwl %ax,%eax
    d9b5:	89 d6                	mov    %edx,%esi
    d9b7:	89 c7                	mov    %eax,%edi
    d9b9:	e8 48 84 ff ff       	callq  5e06 <safe_lshift_func_uint16_t_u_u>
    d9be:	0f b7 c0             	movzwl %ax,%eax
    d9c1:	39 85 3c e8 ff ff    	cmp    %eax,-0x17c4(%rbp)
    d9c7:	c7 85 bc e8 ff ff 91 	movl   $0xfb71b891,-0x1744(%rbp)
    d9ce:	b8 71 fb 
    d9d1:	48 8d 85 4c e8 ff ff 	lea    -0x17b4(%rbp),%rax
    d9d8:	48 89 85 88 e9 ff ff 	mov    %rax,-0x1678(%rbp)
    d9df:	48 8d 05 6c 56 00 00 	lea    0x566c(%rip),%rax        # 13052 <g_167>
    d9e6:	48 89 85 90 e9 ff ff 	mov    %rax,-0x1670(%rbp)
    d9ed:	48 8d 05 48 56 00 00 	lea    0x5648(%rip),%rax        # 1303c <g_115>
    d9f4:	48 89 85 98 e9 ff ff 	mov    %rax,-0x1668(%rbp)
    d9fb:	c7 85 ac e8 ff ff 19 	movl   $0x19,-0x1754(%rbp)
    da02:	00 00 00 
    da05:	83 bd ac e8 ff ff 20 	cmpl   $0x20,-0x1754(%rbp)
    da0c:	76 0b                	jbe    da19 <func_68+0x161d>
    da0e:	8b 85 3c e8 ff ff    	mov    -0x17c4(%rbp),%eax
    da14:	e9 ce 12 00 00       	jmpq   ece7 <func_68+0x28eb>
    da19:	8b 85 3c e8 ff ff    	mov    -0x17c4(%rbp),%eax
    da1f:	89 c6                	mov    %eax,%esi
    da21:	bf 00 00 00 00       	mov    $0x0,%edi
    da26:	e8 4f 84 ff ff       	callq  5e7a <safe_rshift_func_uint16_t_u_u>
    da2b:	8b 85 84 e8 ff ff    	mov    -0x177c(%rbp),%eax
    da31:	0f b6 c0             	movzbl %al,%eax
    da34:	be 01 00 00 00       	mov    $0x1,%esi
    da39:	89 c7                	mov    %eax,%edi
    da3b:	e8 53 81 ff ff       	callq  5b93 <safe_mul_func_uint8_t_u_u>
    da40:	0f b6 c0             	movzbl %al,%eax
    da43:	89 85 84 e8 ff ff    	mov    %eax,-0x177c(%rbp)
    da49:	0f b7 85 84 eb ff ff 	movzwl -0x147c(%rbp),%eax
    da50:	0f bf d0             	movswl %ax,%edx
    da53:	0f b7 05 e6 55 00 00 	movzwl 0x55e6(%rip),%eax        # 13040 <g_119>
    da5a:	98                   	cwtl   
    da5b:	21 d0                	and    %edx,%eax
    da5d:	f7 d0                	not    %eax
    da5f:	89 c2                	mov    %eax,%edx
    da61:	8b 05 c1 55 00 00    	mov    0x55c1(%rip),%eax        # 13028 <g_43>
    da67:	39 c2                	cmp    %eax,%edx
    da69:	0f 9e c0             	setle  %al
    da6c:	0f b6 d0             	movzbl %al,%edx
    da6f:	48 8b 05 d2 55 00 00 	mov    0x55d2(%rip),%rax        # 13048 <g_128>
    da76:	48 39 c2             	cmp    %rax,%rdx
    da79:	0f 9e c0             	setle  %al
    da7c:	0f b6 c0             	movzbl %al,%eax
    da7f:	89 c2                	mov    %eax,%edx
    da81:	0f b6 05 cb 55 00 00 	movzbl 0x55cb(%rip),%eax        # 13053 <g_168>
    da88:	21 d0                	and    %edx,%eax
    da8a:	88 05 c3 55 00 00    	mov    %al,0x55c3(%rip)        # 13053 <g_168>
    da90:	be 08 00 00 00       	mov    $0x8,%esi
    da95:	bf 01 00 00 00       	mov    $0x1,%edi
    da9a:	e8 f3 79 ff ff       	callq  5492 <safe_lshift_func_int16_t_s_s>
    da9f:	89 c2                	mov    %eax,%edx
    daa1:	48 8b 85 98 e9 ff ff 	mov    -0x1668(%rbp),%rax
    daa8:	88 10                	mov    %dl,(%rax)
    daaa:	8b 05 74 55 00 00    	mov    0x5574(%rip),%eax        # 13024 <g_18>
    dab0:	83 f8 fc             	cmp    $0xfffffffc,%eax
    dab3:	0f 96 c0             	setbe  %al
    dab6:	0f b6 c0             	movzbl %al,%eax
    dab9:	48 be 74 75 7e 75 9a 	movabs $0x5633c59a757e7574,%rsi
    dac0:	c5 33 56 
    dac3:	48 89 c7             	mov    %rax,%rdi
    dac6:	e8 e4 85 ff ff       	callq  60af <safe_div_func_uint64_t_u_u>
    dacb:	48 85 c0             	test   %rax,%rax
    dace:	74 12                	je     dae2 <func_68+0x16e6>
    dad0:	48 8b 85 60 e9 ff ff 	mov    -0x16a0(%rbp),%rax
    dad7:	c7 00 59 0c b7 27    	movl   $0x27b70c59,(%rax)
    dadd:	e9 b7 00 00 00       	jmpq   db99 <func_68+0x179d>
    dae2:	48 c7 85 a0 e9 ff ff 	movq   $0x0,-0x1660(%rbp)
    dae9:	00 00 00 00 
    daed:	b8 d7 9b c5 c9       	mov    $0xc9c59bd7,%eax
    daf2:	48 0b 85 a0 e9 ff ff 	or     -0x1660(%rbp),%rax
    daf9:	48 89 c2             	mov    %rax,%rdx
    dafc:	81 bd 3c e8 ff ff fc 	cmpl   $0xf7c884fc,-0x17c4(%rbp)
    db03:	84 c8 f7 
    db06:	0f 96 c0             	setbe  %al
    db09:	0f b6 c0             	movzbl %al,%eax
    db0c:	48 39 c2             	cmp    %rax,%rdx
    db0f:	74 48                	je     db59 <func_68+0x175d>
    db11:	66 c7 85 4a e8 ff ff 	movw   $0x1,-0x17b6(%rbp)
    db18:	01 00 
    db1a:	48 8b 85 88 e9 ff ff 	mov    -0x1678(%rbp),%rax
    db21:	c7 00 64 36 91 35    	movl   $0x35913664,(%rax)
    db27:	c7 85 84 e8 ff ff 00 	movl   $0x0,-0x177c(%rbp)
    db2e:	00 00 00 
    db31:	48 8b 85 60 e9 ff ff 	mov    -0x16a0(%rbp),%rax
    db38:	8b 95 84 e8 ff ff    	mov    -0x177c(%rbp),%edx
    db3e:	89 10                	mov    %edx,(%rax)
    db40:	48 83 bd a0 e9 ff ff 	cmpq   $0x0,-0x1660(%rbp)
    db47:	00 
    db48:	0f 85 17 01 00 00    	jne    dc65 <func_68+0x1869>
    db4e:	8b 85 50 e8 ff ff    	mov    -0x17b0(%rbp),%eax
    db54:	e9 8e 11 00 00       	jmpq   ece7 <func_68+0x28eb>
    db59:	be 04 00 00 00       	mov    $0x4,%esi
    db5e:	bf 00 00 00 00       	mov    $0x0,%edi
    db63:	e8 46 80 ff ff       	callq  5bae <safe_mod_func_uint8_t_u_u>
    db68:	0f b6 c0             	movzbl %al,%eax
    db6b:	89 c6                	mov    %eax,%esi
    db6d:	bf 01 00 00 00       	mov    $0x1,%edi
    db72:	e8 1b 79 ff ff       	callq  5492 <safe_lshift_func_int16_t_s_s>
    db77:	0f b6 85 44 e8 ff ff 	movzbl -0x17bc(%rbp),%eax
    db7e:	0f be d0             	movsbl %al,%edx
    db81:	48 8b 85 60 e9 ff ff 	mov    -0x16a0(%rbp),%rax
    db88:	89 10                	mov    %edx,(%rax)
    db8a:	8b 85 4c e8 ff ff    	mov    -0x17b4(%rbp),%eax
    db90:	83 c8 fe             	or     $0xfffffffe,%eax
    db93:	89 85 4c e8 ff ff    	mov    %eax,-0x17b4(%rbp)
    db99:	f7 95 84 e8 ff ff    	notl   -0x177c(%rbp)
    db9f:	c6 85 44 e8 ff ff ec 	movb   $0xec,-0x17bc(%rbp)
    dba6:	e9 a9 00 00 00       	jmpq   dc54 <func_68+0x1858>
    dbab:	c7 85 c0 e8 ff ff de 	movl   $0xb9419de,-0x1740(%rbp)
    dbb2:	19 94 0b 
    dbb5:	c7 85 c4 e8 ff ff f6 	movl   $0xfffffff6,-0x173c(%rbp)
    dbbc:	ff ff ff 
    dbbf:	c7 85 c8 e8 ff ff 03 	movl   $0x3,-0x1738(%rbp)
    dbc6:	00 00 00 
    dbc9:	c7 85 cc e8 ff ff 59 	movl   $0x3e715459,-0x1734(%rbp)
    dbd0:	54 71 3e 
    dbd3:	c7 85 4c e8 ff ff 18 	movl   $0x18,-0x17b4(%rbp)
    dbda:	00 00 00 
    dbdd:	eb 4e                	jmp    dc2d <func_68+0x1831>
    dbdf:	48 c7 85 30 ea ff ff 	movq   $0x0,-0x15d0(%rbp)
    dbe6:	00 00 00 00 
    dbea:	48 c7 85 38 ea ff ff 	movq   $0x0,-0x15c8(%rbp)
    dbf1:	00 00 00 00 
    dbf5:	48 c7 85 40 ea ff ff 	movq   $0x0,-0x15c0(%rbp)
    dbfc:	00 00 00 00 
    dc00:	48 c7 85 48 ea ff ff 	movq   $0x0,-0x15b8(%rbp)
    dc07:	00 00 00 00 
    dc0b:	48 c7 85 50 ea ff ff 	movq   $0x0,-0x15b0(%rbp)
    dc12:	00 00 00 00 
    dc16:	48 83 ad 20 e9 ff ff 	subq   $0x1,-0x16e0(%rbp)
    dc1d:	01 
    dc1e:	8b 85 4c e8 ff ff    	mov    -0x17b4(%rbp),%eax
    dc24:	83 e8 01             	sub    $0x1,%eax
    dc27:	89 85 4c e8 ff ff    	mov    %eax,-0x17b4(%rbp)
    dc2d:	8b 85 4c e8 ff ff    	mov    -0x17b4(%rbp),%eax
    dc33:	83 f8 e6             	cmp    $0xffffffe6,%eax
    dc36:	74 a7                	je     dbdf <func_68+0x17e3>
    dc38:	0f b6 85 44 e8 ff ff 	movzbl -0x17bc(%rbp),%eax
    dc3f:	0f be c0             	movsbl %al,%eax
    dc42:	be 09 00 00 00       	mov    $0x9,%esi
    dc47:	89 c7                	mov    %eax,%edi
    dc49:	e8 6a 82 ff ff       	callq  5eb8 <safe_add_func_uint32_t_u_u>
    dc4e:	88 85 44 e8 ff ff    	mov    %al,-0x17bc(%rbp)
    dc54:	0f b6 85 44 e8 ff ff 	movzbl -0x17bc(%rbp),%eax
    dc5b:	3c 18                	cmp    $0x18,%al
    dc5d:	0f 8e 48 ff ff ff    	jle    dbab <func_68+0x17af>
    dc63:	eb 01                	jmp    dc66 <func_68+0x186a>
    dc65:	90                   	nop
    dc66:	8b 05 b8 53 00 00    	mov    0x53b8(%rip),%eax        # 13024 <g_18>
    dc6c:	be 01 00 00 00       	mov    $0x1,%esi
    dc71:	89 c7                	mov    %eax,%edi
    dc73:	e8 3e 79 ff ff       	callq  55b6 <safe_add_func_int32_t_s_s>
    dc78:	89 05 a6 53 00 00    	mov    %eax,0x53a6(%rip)        # 13024 <g_18>
    dc7e:	8b 05 a0 53 00 00    	mov    0x53a0(%rip),%eax        # 13024 <g_18>
    dc84:	83 f8 17             	cmp    $0x17,%eax
    dc87:	0f 8f 6f eb ff ff    	jg     c7fc <func_68+0x400>
    dc8d:	83 85 3c e8 ff ff 01 	addl   $0x1,-0x17c4(%rbp)
    dc94:	83 bd 3c e8 ff ff 04 	cmpl   $0x4,-0x17c4(%rbp)
    dc9b:	0f 84 c7 e9 ff ff    	je     c668 <func_68+0x26c>
    dca1:	c7 85 5c e8 ff ff 00 	movl   $0x0,-0x17a4(%rbp)
    dca8:	00 00 00 
    dcab:	e9 12 10 00 00       	jmpq   ecc2 <func_68+0x28c6>
    dcb0:	48 8d 85 d0 e8 ff ff 	lea    -0x1730(%rbp),%rax
    dcb7:	48 89 85 40 f8 ff ff 	mov    %rax,-0x7c0(%rbp)
    dcbe:	48 c7 85 48 f8 ff ff 	movq   $0x0,-0x7b8(%rbp)
    dcc5:	00 00 00 00 
    dcc9:	48 8d 85 d0 e8 ff ff 	lea    -0x1730(%rbp),%rax
    dcd0:	48 89 85 50 f8 ff ff 	mov    %rax,-0x7b0(%rbp)
    dcd7:	48 8d 85 d0 e8 ff ff 	lea    -0x1730(%rbp),%rax
    dcde:	48 89 85 58 f8 ff ff 	mov    %rax,-0x7a8(%rbp)
    dce5:	48 c7 85 60 f8 ff ff 	movq   $0x0,-0x7a0(%rbp)
    dcec:	00 00 00 00 
    dcf0:	48 8d 85 d0 e8 ff ff 	lea    -0x1730(%rbp),%rax
    dcf7:	48 89 85 68 f8 ff ff 	mov    %rax,-0x798(%rbp)
    dcfe:	48 8d 05 db 68 00 00 	lea    0x68db(%rip),%rax        # 145e0 <g_328>
    dd05:	48 89 85 70 f8 ff ff 	mov    %rax,-0x790(%rbp)
    dd0c:	48 c7 85 78 f8 ff ff 	movq   $0x0,-0x788(%rbp)
    dd13:	00 00 00 00 
    dd17:	48 8d 85 d0 e8 ff ff 	lea    -0x1730(%rbp),%rax
    dd1e:	48 89 85 80 f8 ff ff 	mov    %rax,-0x780(%rbp)
    dd25:	48 c7 85 88 f8 ff ff 	movq   $0x0,-0x778(%rbp)
    dd2c:	00 00 00 00 
    dd30:	48 8d 05 a9 68 00 00 	lea    0x68a9(%rip),%rax        # 145e0 <g_328>
    dd37:	48 89 85 90 f8 ff ff 	mov    %rax,-0x770(%rbp)
    dd3e:	48 8d 85 d0 e8 ff ff 	lea    -0x1730(%rbp),%rax
    dd45:	48 89 85 98 f8 ff ff 	mov    %rax,-0x768(%rbp)
    dd4c:	48 8d 05 8d 68 00 00 	lea    0x688d(%rip),%rax        # 145e0 <g_328>
    dd53:	48 89 85 a0 f8 ff ff 	mov    %rax,-0x760(%rbp)
    dd5a:	48 c7 85 a8 f8 ff ff 	movq   $0x0,-0x758(%rbp)
    dd61:	00 00 00 00 
    dd65:	48 c7 85 b0 f8 ff ff 	movq   $0x0,-0x750(%rbp)
    dd6c:	00 00 00 00 
    dd70:	48 8d 85 d0 e8 ff ff 	lea    -0x1730(%rbp),%rax
    dd77:	48 89 85 b8 f8 ff ff 	mov    %rax,-0x748(%rbp)
    dd7e:	48 8d 85 d0 e8 ff ff 	lea    -0x1730(%rbp),%rax
    dd85:	48 89 85 c0 f8 ff ff 	mov    %rax,-0x740(%rbp)
    dd8c:	48 8d 85 d0 e8 ff ff 	lea    -0x1730(%rbp),%rax
    dd93:	48 89 85 c8 f8 ff ff 	mov    %rax,-0x738(%rbp)
    dd9a:	48 c7 85 d0 f8 ff ff 	movq   $0x0,-0x730(%rbp)
    dda1:	00 00 00 00 
    dda5:	48 8d 85 d0 e8 ff ff 	lea    -0x1730(%rbp),%rax
    ddac:	48 89 85 d8 f8 ff ff 	mov    %rax,-0x728(%rbp)
    ddb3:	48 8d 05 26 68 00 00 	lea    0x6826(%rip),%rax        # 145e0 <g_328>
    ddba:	48 89 85 e0 f8 ff ff 	mov    %rax,-0x720(%rbp)
    ddc1:	48 c7 85 e8 f8 ff ff 	movq   $0x0,-0x718(%rbp)
    ddc8:	00 00 00 00 
    ddcc:	48 c7 85 f0 f8 ff ff 	movq   $0x0,-0x710(%rbp)
    ddd3:	00 00 00 00 
    ddd7:	48 8d 05 02 68 00 00 	lea    0x6802(%rip),%rax        # 145e0 <g_328>
    ddde:	48 89 85 f8 f8 ff ff 	mov    %rax,-0x708(%rbp)
    dde5:	48 8d 85 d0 e8 ff ff 	lea    -0x1730(%rbp),%rax
    ddec:	48 89 85 00 f9 ff ff 	mov    %rax,-0x700(%rbp)
    ddf3:	48 8d 85 d0 e8 ff ff 	lea    -0x1730(%rbp),%rax
    ddfa:	48 89 85 08 f9 ff ff 	mov    %rax,-0x6f8(%rbp)
    de01:	48 8d 05 d8 67 00 00 	lea    0x67d8(%rip),%rax        # 145e0 <g_328>
    de08:	48 89 85 10 f9 ff ff 	mov    %rax,-0x6f0(%rbp)
    de0f:	48 8d 85 d0 e8 ff ff 	lea    -0x1730(%rbp),%rax
    de16:	48 89 85 18 f9 ff ff 	mov    %rax,-0x6e8(%rbp)
    de1d:	48 c7 85 20 f9 ff ff 	movq   $0x0,-0x6e0(%rbp)
    de24:	00 00 00 00 
    de28:	48 8d 05 b1 67 00 00 	lea    0x67b1(%rip),%rax        # 145e0 <g_328>
    de2f:	48 89 85 28 f9 ff ff 	mov    %rax,-0x6d8(%rbp)
    de36:	48 8d 05 a3 67 00 00 	lea    0x67a3(%rip),%rax        # 145e0 <g_328>
    de3d:	48 89 85 30 f9 ff ff 	mov    %rax,-0x6d0(%rbp)
    de44:	48 c7 85 38 f9 ff ff 	movq   $0x0,-0x6c8(%rbp)
    de4b:	00 00 00 00 
    de4f:	48 8d 85 d0 e8 ff ff 	lea    -0x1730(%rbp),%rax
    de56:	48 89 85 40 f9 ff ff 	mov    %rax,-0x6c0(%rbp)
    de5d:	48 8d 85 d0 e8 ff ff 	lea    -0x1730(%rbp),%rax
    de64:	48 89 85 48 f9 ff ff 	mov    %rax,-0x6b8(%rbp)
    de6b:	48 8d 85 d0 e8 ff ff 	lea    -0x1730(%rbp),%rax
    de72:	48 89 85 50 f9 ff ff 	mov    %rax,-0x6b0(%rbp)
    de79:	48 c7 85 58 f9 ff ff 	movq   $0x0,-0x6a8(%rbp)
    de80:	00 00 00 00 
    de84:	48 8d 05 55 67 00 00 	lea    0x6755(%rip),%rax        # 145e0 <g_328>
    de8b:	48 89 85 60 f9 ff ff 	mov    %rax,-0x6a0(%rbp)
    de92:	48 8d 05 47 67 00 00 	lea    0x6747(%rip),%rax        # 145e0 <g_328>
    de99:	48 89 85 68 f9 ff ff 	mov    %rax,-0x698(%rbp)
    dea0:	48 c7 85 70 f9 ff ff 	movq   $0x0,-0x690(%rbp)
    dea7:	00 00 00 00 
    deab:	48 8d 85 d0 e8 ff ff 	lea    -0x1730(%rbp),%rax
    deb2:	48 89 85 78 f9 ff ff 	mov    %rax,-0x688(%rbp)
    deb9:	48 c7 85 80 f9 ff ff 	movq   $0x0,-0x680(%rbp)
    dec0:	00 00 00 00 
    dec4:	48 8d 85 d0 e8 ff ff 	lea    -0x1730(%rbp),%rax
    decb:	48 89 85 88 f9 ff ff 	mov    %rax,-0x678(%rbp)
    ded2:	48 8d 85 d0 e8 ff ff 	lea    -0x1730(%rbp),%rax
    ded9:	48 89 85 90 f9 ff ff 	mov    %rax,-0x670(%rbp)
    dee0:	48 8d 05 f9 66 00 00 	lea    0x66f9(%rip),%rax        # 145e0 <g_328>
    dee7:	48 89 85 98 f9 ff ff 	mov    %rax,-0x668(%rbp)
    deee:	48 8d 85 d0 e8 ff ff 	lea    -0x1730(%rbp),%rax
    def5:	48 89 85 a0 f9 ff ff 	mov    %rax,-0x660(%rbp)
    defc:	48 c7 85 a8 f9 ff ff 	movq   $0x0,-0x658(%rbp)
    df03:	00 00 00 00 
    df07:	48 8d 85 d0 e8 ff ff 	lea    -0x1730(%rbp),%rax
    df0e:	48 89 85 b0 f9 ff ff 	mov    %rax,-0x650(%rbp)
    df15:	48 8d 85 d0 e8 ff ff 	lea    -0x1730(%rbp),%rax
    df1c:	48 89 85 b8 f9 ff ff 	mov    %rax,-0x648(%rbp)
    df23:	48 8d 05 b6 66 00 00 	lea    0x66b6(%rip),%rax        # 145e0 <g_328>
    df2a:	48 89 85 c0 f9 ff ff 	mov    %rax,-0x640(%rbp)
    df31:	48 8d 85 d0 e8 ff ff 	lea    -0x1730(%rbp),%rax
    df38:	48 89 85 c8 f9 ff ff 	mov    %rax,-0x638(%rbp)
    df3f:	48 c7 85 d0 f9 ff ff 	movq   $0x0,-0x630(%rbp)
    df46:	00 00 00 00 
    df4a:	48 8d 85 d0 e8 ff ff 	lea    -0x1730(%rbp),%rax
    df51:	48 89 85 d8 f9 ff ff 	mov    %rax,-0x628(%rbp)
    df58:	48 8d 05 81 66 00 00 	lea    0x6681(%rip),%rax        # 145e0 <g_328>
    df5f:	48 89 85 e0 f9 ff ff 	mov    %rax,-0x620(%rbp)
    df66:	48 c7 85 e8 f9 ff ff 	movq   $0x0,-0x618(%rbp)
    df6d:	00 00 00 00 
    df71:	48 8d 05 68 66 00 00 	lea    0x6668(%rip),%rax        # 145e0 <g_328>
    df78:	48 89 85 f0 f9 ff ff 	mov    %rax,-0x610(%rbp)
    df7f:	48 8d 85 d0 e8 ff ff 	lea    -0x1730(%rbp),%rax
    df86:	48 89 85 f8 f9 ff ff 	mov    %rax,-0x608(%rbp)
    df8d:	48 8d 85 d0 e8 ff ff 	lea    -0x1730(%rbp),%rax
    df94:	48 89 85 00 fa ff ff 	mov    %rax,-0x600(%rbp)
    df9b:	48 c7 85 08 fa ff ff 	movq   $0x0,-0x5f8(%rbp)
    dfa2:	00 00 00 00 
    dfa6:	48 8d 85 d0 e8 ff ff 	lea    -0x1730(%rbp),%rax
    dfad:	48 89 85 10 fa ff ff 	mov    %rax,-0x5f0(%rbp)
    dfb4:	48 c7 85 18 fa ff ff 	movq   $0x0,-0x5e8(%rbp)
    dfbb:	00 00 00 00 
    dfbf:	48 8d 85 d0 e8 ff ff 	lea    -0x1730(%rbp),%rax
    dfc6:	48 89 85 20 fa ff ff 	mov    %rax,-0x5e0(%rbp)
    dfcd:	48 8d 05 0c 66 00 00 	lea    0x660c(%rip),%rax        # 145e0 <g_328>
    dfd4:	48 89 85 28 fa ff ff 	mov    %rax,-0x5d8(%rbp)
    dfdb:	48 8d 85 d0 e8 ff ff 	lea    -0x1730(%rbp),%rax
    dfe2:	48 89 85 30 fa ff ff 	mov    %rax,-0x5d0(%rbp)
    dfe9:	48 c7 85 38 fa ff ff 	movq   $0x0,-0x5c8(%rbp)
    dff0:	00 00 00 00 
    dff4:	48 8d 85 d0 e8 ff ff 	lea    -0x1730(%rbp),%rax
    dffb:	48 89 85 40 fa ff ff 	mov    %rax,-0x5c0(%rbp)
    e002:	48 8d 85 d0 e8 ff ff 	lea    -0x1730(%rbp),%rax
    e009:	48 89 85 48 fa ff ff 	mov    %rax,-0x5b8(%rbp)
    e010:	48 8d 05 c9 65 00 00 	lea    0x65c9(%rip),%rax        # 145e0 <g_328>
    e017:	48 89 85 50 fa ff ff 	mov    %rax,-0x5b0(%rbp)
    e01e:	48 8d 85 d0 e8 ff ff 	lea    -0x1730(%rbp),%rax
    e025:	48 89 85 58 fa ff ff 	mov    %rax,-0x5a8(%rbp)
    e02c:	48 8d 85 d0 e8 ff ff 	lea    -0x1730(%rbp),%rax
    e033:	48 89 85 60 fa ff ff 	mov    %rax,-0x5a0(%rbp)
    e03a:	48 c7 85 68 fa ff ff 	movq   $0x0,-0x598(%rbp)
    e041:	00 00 00 00 
    e045:	48 8d 85 d0 e8 ff ff 	lea    -0x1730(%rbp),%rax
    e04c:	48 89 85 70 fa ff ff 	mov    %rax,-0x590(%rbp)
    e053:	48 8d 85 d0 e8 ff ff 	lea    -0x1730(%rbp),%rax
    e05a:	48 89 85 78 fa ff ff 	mov    %rax,-0x588(%rbp)
    e061:	48 c7 85 80 fa ff ff 	movq   $0x0,-0x580(%rbp)
    e068:	00 00 00 00 
    e06c:	48 8d 85 d0 e8 ff ff 	lea    -0x1730(%rbp),%rax
    e073:	48 89 85 88 fa ff ff 	mov    %rax,-0x578(%rbp)
    e07a:	48 c7 85 90 fa ff ff 	movq   $0x0,-0x570(%rbp)
    e081:	00 00 00 00 
    e085:	48 8d 05 54 65 00 00 	lea    0x6554(%rip),%rax        # 145e0 <g_328>
    e08c:	48 89 85 98 fa ff ff 	mov    %rax,-0x568(%rbp)
    e093:	48 8d 05 46 65 00 00 	lea    0x6546(%rip),%rax        # 145e0 <g_328>
    e09a:	48 89 85 a0 fa ff ff 	mov    %rax,-0x560(%rbp)
    e0a1:	48 8d 85 d0 e8 ff ff 	lea    -0x1730(%rbp),%rax
    e0a8:	48 89 85 a8 fa ff ff 	mov    %rax,-0x558(%rbp)
    e0af:	48 8d 85 d0 e8 ff ff 	lea    -0x1730(%rbp),%rax
    e0b6:	48 89 85 b0 fa ff ff 	mov    %rax,-0x550(%rbp)
    e0bd:	48 8d 05 1c 65 00 00 	lea    0x651c(%rip),%rax        # 145e0 <g_328>
    e0c4:	48 89 85 b8 fa ff ff 	mov    %rax,-0x548(%rbp)
    e0cb:	48 8d 85 d0 e8 ff ff 	lea    -0x1730(%rbp),%rax
    e0d2:	48 89 85 c0 fa ff ff 	mov    %rax,-0x540(%rbp)
    e0d9:	48 8d 85 d0 e8 ff ff 	lea    -0x1730(%rbp),%rax
    e0e0:	48 89 85 c8 fa ff ff 	mov    %rax,-0x538(%rbp)
    e0e7:	48 8d 05 f2 64 00 00 	lea    0x64f2(%rip),%rax        # 145e0 <g_328>
    e0ee:	48 89 85 d0 fa ff ff 	mov    %rax,-0x530(%rbp)
    e0f5:	48 8d 05 e4 64 00 00 	lea    0x64e4(%rip),%rax        # 145e0 <g_328>
    e0fc:	48 89 85 d8 fa ff ff 	mov    %rax,-0x528(%rbp)
    e103:	48 c7 85 e0 fa ff ff 	movq   $0x0,-0x520(%rbp)
    e10a:	00 00 00 00 
    e10e:	48 8d 85 d0 e8 ff ff 	lea    -0x1730(%rbp),%rax
    e115:	48 89 85 e8 fa ff ff 	mov    %rax,-0x518(%rbp)
    e11c:	48 c7 85 f0 fa ff ff 	movq   $0x0,-0x510(%rbp)
    e123:	00 00 00 00 
    e127:	48 c7 85 f8 fa ff ff 	movq   $0x0,-0x508(%rbp)
    e12e:	00 00 00 00 
    e132:	48 8d 85 d0 e8 ff ff 	lea    -0x1730(%rbp),%rax
    e139:	48 89 85 00 fb ff ff 	mov    %rax,-0x500(%rbp)
    e140:	48 c7 85 08 fb ff ff 	movq   $0x0,-0x4f8(%rbp)
    e147:	00 00 00 00 
    e14b:	48 c7 85 10 fb ff ff 	movq   $0x0,-0x4f0(%rbp)
    e152:	00 00 00 00 
    e156:	48 8d 05 83 64 00 00 	lea    0x6483(%rip),%rax        # 145e0 <g_328>
    e15d:	48 89 85 18 fb ff ff 	mov    %rax,-0x4e8(%rbp)
    e164:	48 8d 85 d0 e8 ff ff 	lea    -0x1730(%rbp),%rax
    e16b:	48 89 85 20 fb ff ff 	mov    %rax,-0x4e0(%rbp)
    e172:	48 8d 85 d0 e8 ff ff 	lea    -0x1730(%rbp),%rax
    e179:	48 89 85 28 fb ff ff 	mov    %rax,-0x4d8(%rbp)
    e180:	48 8d 85 d0 e8 ff ff 	lea    -0x1730(%rbp),%rax
    e187:	48 89 85 30 fb ff ff 	mov    %rax,-0x4d0(%rbp)
    e18e:	48 8d 85 d0 e8 ff ff 	lea    -0x1730(%rbp),%rax
    e195:	48 89 85 38 fb ff ff 	mov    %rax,-0x4c8(%rbp)
    e19c:	48 8d 85 d0 e8 ff ff 	lea    -0x1730(%rbp),%rax
    e1a3:	48 89 85 40 fb ff ff 	mov    %rax,-0x4c0(%rbp)
    e1aa:	48 8d 85 d0 e8 ff ff 	lea    -0x1730(%rbp),%rax
    e1b1:	48 89 85 48 fb ff ff 	mov    %rax,-0x4b8(%rbp)
    e1b8:	48 8d 05 21 64 00 00 	lea    0x6421(%rip),%rax        # 145e0 <g_328>
    e1bf:	48 89 85 50 fb ff ff 	mov    %rax,-0x4b0(%rbp)
    e1c6:	48 c7 85 58 fb ff ff 	movq   $0x0,-0x4a8(%rbp)
    e1cd:	00 00 00 00 
    e1d1:	48 8d 85 d0 e8 ff ff 	lea    -0x1730(%rbp),%rax
    e1d8:	48 89 85 60 fb ff ff 	mov    %rax,-0x4a0(%rbp)
    e1df:	48 8d 85 d0 e8 ff ff 	lea    -0x1730(%rbp),%rax
    e1e6:	48 89 85 68 fb ff ff 	mov    %rax,-0x498(%rbp)
    e1ed:	48 8d 05 ec 63 00 00 	lea    0x63ec(%rip),%rax        # 145e0 <g_328>
    e1f4:	48 89 85 70 fb ff ff 	mov    %rax,-0x490(%rbp)
    e1fb:	48 8d 05 de 63 00 00 	lea    0x63de(%rip),%rax        # 145e0 <g_328>
    e202:	48 89 85 78 fb ff ff 	mov    %rax,-0x488(%rbp)
    e209:	48 8d 05 d0 63 00 00 	lea    0x63d0(%rip),%rax        # 145e0 <g_328>
    e210:	48 89 85 80 fb ff ff 	mov    %rax,-0x480(%rbp)
    e217:	48 c7 85 88 fb ff ff 	movq   $0x0,-0x478(%rbp)
    e21e:	00 00 00 00 
    e222:	48 8d 85 d0 e8 ff ff 	lea    -0x1730(%rbp),%rax
    e229:	48 89 85 90 fb ff ff 	mov    %rax,-0x470(%rbp)
    e230:	48 8d 85 d0 e8 ff ff 	lea    -0x1730(%rbp),%rax
    e237:	48 89 85 98 fb ff ff 	mov    %rax,-0x468(%rbp)
    e23e:	48 c7 85 a0 fb ff ff 	movq   $0x0,-0x460(%rbp)
    e245:	00 00 00 00 
    e249:	48 8d 85 d0 e8 ff ff 	lea    -0x1730(%rbp),%rax
    e250:	48 89 85 a8 fb ff ff 	mov    %rax,-0x458(%rbp)
    e257:	48 c7 85 b0 fb ff ff 	movq   $0x0,-0x450(%rbp)
    e25e:	00 00 00 00 
    e262:	48 8d 85 d0 e8 ff ff 	lea    -0x1730(%rbp),%rax
    e269:	48 89 85 b8 fb ff ff 	mov    %rax,-0x448(%rbp)
    e270:	48 8d 85 d0 e8 ff ff 	lea    -0x1730(%rbp),%rax
    e277:	48 89 85 c0 fb ff ff 	mov    %rax,-0x440(%rbp)
    e27e:	48 8d 85 d0 e8 ff ff 	lea    -0x1730(%rbp),%rax
    e285:	48 89 85 c8 fb ff ff 	mov    %rax,-0x438(%rbp)
    e28c:	48 8d 05 4d 63 00 00 	lea    0x634d(%rip),%rax        # 145e0 <g_328>
    e293:	48 89 85 d0 fb ff ff 	mov    %rax,-0x430(%rbp)
    e29a:	48 8d 85 d0 e8 ff ff 	lea    -0x1730(%rbp),%rax
    e2a1:	48 89 85 d8 fb ff ff 	mov    %rax,-0x428(%rbp)
    e2a8:	48 8d 85 d0 e8 ff ff 	lea    -0x1730(%rbp),%rax
    e2af:	48 89 85 e0 fb ff ff 	mov    %rax,-0x420(%rbp)
    e2b6:	48 8d 85 d0 e8 ff ff 	lea    -0x1730(%rbp),%rax
    e2bd:	48 89 85 e8 fb ff ff 	mov    %rax,-0x418(%rbp)
    e2c4:	48 c7 85 f0 fb ff ff 	movq   $0x0,-0x410(%rbp)
    e2cb:	00 00 00 00 
    e2cf:	48 8d 85 d0 e8 ff ff 	lea    -0x1730(%rbp),%rax
    e2d6:	48 89 85 f8 fb ff ff 	mov    %rax,-0x408(%rbp)
    e2dd:	48 c7 85 00 fc ff ff 	movq   $0x0,-0x400(%rbp)
    e2e4:	00 00 00 00 
    e2e8:	48 8d 05 f1 62 00 00 	lea    0x62f1(%rip),%rax        # 145e0 <g_328>
    e2ef:	48 89 85 08 fc ff ff 	mov    %rax,-0x3f8(%rbp)
    e2f6:	48 c7 85 10 fc ff ff 	movq   $0x0,-0x3f0(%rbp)
    e2fd:	00 00 00 00 
    e301:	48 c7 85 18 fc ff ff 	movq   $0x0,-0x3e8(%rbp)
    e308:	00 00 00 00 
    e30c:	48 8d 85 d0 e8 ff ff 	lea    -0x1730(%rbp),%rax
    e313:	48 89 85 20 fc ff ff 	mov    %rax,-0x3e0(%rbp)
    e31a:	48 8d 05 bf 62 00 00 	lea    0x62bf(%rip),%rax        # 145e0 <g_328>
    e321:	48 89 85 28 fc ff ff 	mov    %rax,-0x3d8(%rbp)
    e328:	48 8d 05 b1 62 00 00 	lea    0x62b1(%rip),%rax        # 145e0 <g_328>
    e32f:	48 89 85 30 fc ff ff 	mov    %rax,-0x3d0(%rbp)
    e336:	48 8d 85 d0 e8 ff ff 	lea    -0x1730(%rbp),%rax
    e33d:	48 89 85 38 fc ff ff 	mov    %rax,-0x3c8(%rbp)
    e344:	48 8d 85 d0 e8 ff ff 	lea    -0x1730(%rbp),%rax
    e34b:	48 89 85 40 fc ff ff 	mov    %rax,-0x3c0(%rbp)
    e352:	48 8d 85 d0 e8 ff ff 	lea    -0x1730(%rbp),%rax
    e359:	48 89 85 48 fc ff ff 	mov    %rax,-0x3b8(%rbp)
    e360:	48 c7 85 50 fc ff ff 	movq   $0x0,-0x3b0(%rbp)
    e367:	00 00 00 00 
    e36b:	48 8d 85 d0 e8 ff ff 	lea    -0x1730(%rbp),%rax
    e372:	48 89 85 58 fc ff ff 	mov    %rax,-0x3a8(%rbp)
    e379:	48 c7 85 60 fc ff ff 	movq   $0x0,-0x3a0(%rbp)
    e380:	00 00 00 00 
    e384:	48 8d 85 d0 e8 ff ff 	lea    -0x1730(%rbp),%rax
    e38b:	48 89 85 68 fc ff ff 	mov    %rax,-0x398(%rbp)
    e392:	48 8d 85 d0 e8 ff ff 	lea    -0x1730(%rbp),%rax
    e399:	48 89 85 70 fc ff ff 	mov    %rax,-0x390(%rbp)
    e3a0:	48 8d 85 d0 e8 ff ff 	lea    -0x1730(%rbp),%rax
    e3a7:	48 89 85 78 fc ff ff 	mov    %rax,-0x388(%rbp)
    e3ae:	48 8d 05 2b 62 00 00 	lea    0x622b(%rip),%rax        # 145e0 <g_328>
    e3b5:	48 89 85 80 fc ff ff 	mov    %rax,-0x380(%rbp)
    e3bc:	48 c7 85 88 fc ff ff 	movq   $0x0,-0x378(%rbp)
    e3c3:	00 00 00 00 
    e3c7:	48 8d 05 12 62 00 00 	lea    0x6212(%rip),%rax        # 145e0 <g_328>
    e3ce:	48 89 85 90 fc ff ff 	mov    %rax,-0x370(%rbp)
    e3d5:	48 8d 05 04 62 00 00 	lea    0x6204(%rip),%rax        # 145e0 <g_328>
    e3dc:	48 89 85 98 fc ff ff 	mov    %rax,-0x368(%rbp)
    e3e3:	48 8d 85 d0 e8 ff ff 	lea    -0x1730(%rbp),%rax
    e3ea:	48 89 85 a0 fc ff ff 	mov    %rax,-0x360(%rbp)
    e3f1:	48 c7 85 a8 fc ff ff 	movq   $0x0,-0x358(%rbp)
    e3f8:	00 00 00 00 
    e3fc:	48 8d 05 dd 61 00 00 	lea    0x61dd(%rip),%rax        # 145e0 <g_328>
    e403:	48 89 85 b0 fc ff ff 	mov    %rax,-0x350(%rbp)
    e40a:	48 8d 05 cf 61 00 00 	lea    0x61cf(%rip),%rax        # 145e0 <g_328>
    e411:	48 89 85 b8 fc ff ff 	mov    %rax,-0x348(%rbp)
    e418:	48 8d 85 d0 e8 ff ff 	lea    -0x1730(%rbp),%rax
    e41f:	48 89 85 c0 fc ff ff 	mov    %rax,-0x340(%rbp)
    e426:	48 8d 05 b3 61 00 00 	lea    0x61b3(%rip),%rax        # 145e0 <g_328>
    e42d:	48 89 85 c8 fc ff ff 	mov    %rax,-0x338(%rbp)
    e434:	48 8d 85 d0 e8 ff ff 	lea    -0x1730(%rbp),%rax
    e43b:	48 89 85 d0 fc ff ff 	mov    %rax,-0x330(%rbp)
    e442:	48 8d 85 d0 e8 ff ff 	lea    -0x1730(%rbp),%rax
    e449:	48 89 85 d8 fc ff ff 	mov    %rax,-0x328(%rbp)
    e450:	48 8d 85 d0 e8 ff ff 	lea    -0x1730(%rbp),%rax
    e457:	48 89 85 e0 fc ff ff 	mov    %rax,-0x320(%rbp)
    e45e:	48 8d 05 7b 61 00 00 	lea    0x617b(%rip),%rax        # 145e0 <g_328>
    e465:	48 89 85 e8 fc ff ff 	mov    %rax,-0x318(%rbp)
    e46c:	48 c7 85 f0 fc ff ff 	movq   $0x0,-0x310(%rbp)
    e473:	00 00 00 00 
    e477:	48 c7 85 f8 fc ff ff 	movq   $0x0,-0x308(%rbp)
    e47e:	00 00 00 00 
    e482:	48 8d 85 d0 e8 ff ff 	lea    -0x1730(%rbp),%rax
    e489:	48 89 85 00 fd ff ff 	mov    %rax,-0x300(%rbp)
    e490:	48 8d 85 d0 e8 ff ff 	lea    -0x1730(%rbp),%rax
    e497:	48 89 85 08 fd ff ff 	mov    %rax,-0x2f8(%rbp)
    e49e:	48 c7 85 10 fd ff ff 	movq   $0x0,-0x2f0(%rbp)
    e4a5:	00 00 00 00 
    e4a9:	48 8d 05 30 61 00 00 	lea    0x6130(%rip),%rax        # 145e0 <g_328>
    e4b0:	48 89 85 18 fd ff ff 	mov    %rax,-0x2e8(%rbp)
    e4b7:	48 c7 85 20 fd ff ff 	movq   $0x0,-0x2e0(%rbp)
    e4be:	00 00 00 00 
    e4c2:	48 8d 85 d0 e8 ff ff 	lea    -0x1730(%rbp),%rax
    e4c9:	48 89 85 28 fd ff ff 	mov    %rax,-0x2d8(%rbp)
    e4d0:	48 8d 05 09 61 00 00 	lea    0x6109(%rip),%rax        # 145e0 <g_328>
    e4d7:	48 89 85 30 fd ff ff 	mov    %rax,-0x2d0(%rbp)
    e4de:	48 8d 85 d0 e8 ff ff 	lea    -0x1730(%rbp),%rax
    e4e5:	48 89 85 38 fd ff ff 	mov    %rax,-0x2c8(%rbp)
    e4ec:	48 8d 85 d0 e8 ff ff 	lea    -0x1730(%rbp),%rax
    e4f3:	48 89 85 40 fd ff ff 	mov    %rax,-0x2c0(%rbp)
    e4fa:	48 c7 85 48 fd ff ff 	movq   $0x0,-0x2b8(%rbp)
    e501:	00 00 00 00 
    e505:	48 8d 85 d0 e8 ff ff 	lea    -0x1730(%rbp),%rax
    e50c:	48 89 85 50 fd ff ff 	mov    %rax,-0x2b0(%rbp)
    e513:	48 8d 85 d0 e8 ff ff 	lea    -0x1730(%rbp),%rax
    e51a:	48 89 85 58 fd ff ff 	mov    %rax,-0x2a8(%rbp)
    e521:	48 8d 05 b8 60 00 00 	lea    0x60b8(%rip),%rax        # 145e0 <g_328>
    e528:	48 89 85 60 fd ff ff 	mov    %rax,-0x2a0(%rbp)
    e52f:	48 8d 85 d0 e8 ff ff 	lea    -0x1730(%rbp),%rax
    e536:	48 89 85 68 fd ff ff 	mov    %rax,-0x298(%rbp)
    e53d:	48 c7 85 70 fd ff ff 	movq   $0x0,-0x290(%rbp)
    e544:	00 00 00 00 
    e548:	48 8d 85 d0 e8 ff ff 	lea    -0x1730(%rbp),%rax
    e54f:	48 89 85 78 fd ff ff 	mov    %rax,-0x288(%rbp)
    e556:	48 c7 85 80 fd ff ff 	movq   $0x0,-0x280(%rbp)
    e55d:	00 00 00 00 
    e561:	48 c7 85 88 fd ff ff 	movq   $0x0,-0x278(%rbp)
    e568:	00 00 00 00 
    e56c:	48 8d 85 d0 e8 ff ff 	lea    -0x1730(%rbp),%rax
    e573:	48 89 85 90 fd ff ff 	mov    %rax,-0x270(%rbp)
    e57a:	48 8d 85 d0 e8 ff ff 	lea    -0x1730(%rbp),%rax
    e581:	48 89 85 98 fd ff ff 	mov    %rax,-0x268(%rbp)
    e588:	48 8d 85 d0 e8 ff ff 	lea    -0x1730(%rbp),%rax
    e58f:	48 89 85 a0 fd ff ff 	mov    %rax,-0x260(%rbp)
    e596:	48 8d 05 43 60 00 00 	lea    0x6043(%rip),%rax        # 145e0 <g_328>
    e59d:	48 89 85 a8 fd ff ff 	mov    %rax,-0x258(%rbp)
    e5a4:	48 8d 05 35 60 00 00 	lea    0x6035(%rip),%rax        # 145e0 <g_328>
    e5ab:	48 89 85 b0 fd ff ff 	mov    %rax,-0x250(%rbp)
    e5b2:	48 c7 85 b8 fd ff ff 	movq   $0x0,-0x248(%rbp)
    e5b9:	00 00 00 00 
    e5bd:	48 8d 85 d0 e8 ff ff 	lea    -0x1730(%rbp),%rax
    e5c4:	48 89 85 c0 fd ff ff 	mov    %rax,-0x240(%rbp)
    e5cb:	48 8d 05 0e 60 00 00 	lea    0x600e(%rip),%rax        # 145e0 <g_328>
    e5d2:	48 89 85 c8 fd ff ff 	mov    %rax,-0x238(%rbp)
    e5d9:	48 8d 85 d0 e8 ff ff 	lea    -0x1730(%rbp),%rax
    e5e0:	48 89 85 d0 fd ff ff 	mov    %rax,-0x230(%rbp)
    e5e7:	48 8d 85 d0 e8 ff ff 	lea    -0x1730(%rbp),%rax
    e5ee:	48 89 85 d8 fd ff ff 	mov    %rax,-0x228(%rbp)
    e5f5:	48 8d 85 d0 e8 ff ff 	lea    -0x1730(%rbp),%rax
    e5fc:	48 89 85 e0 fd ff ff 	mov    %rax,-0x220(%rbp)
    e603:	48 8d 85 d0 e8 ff ff 	lea    -0x1730(%rbp),%rax
    e60a:	48 89 85 e8 fd ff ff 	mov    %rax,-0x218(%rbp)
    e611:	48 8d 85 d0 e8 ff ff 	lea    -0x1730(%rbp),%rax
    e618:	48 89 85 f0 fd ff ff 	mov    %rax,-0x210(%rbp)
    e61f:	48 8d 85 d0 e8 ff ff 	lea    -0x1730(%rbp),%rax
    e626:	48 89 85 f8 fd ff ff 	mov    %rax,-0x208(%rbp)
    e62d:	48 8d 85 d0 e8 ff ff 	lea    -0x1730(%rbp),%rax
    e634:	48 89 85 00 fe ff ff 	mov    %rax,-0x200(%rbp)
    e63b:	48 8d 85 d0 e8 ff ff 	lea    -0x1730(%rbp),%rax
    e642:	48 89 85 08 fe ff ff 	mov    %rax,-0x1f8(%rbp)
    e649:	48 8d 05 90 5f 00 00 	lea    0x5f90(%rip),%rax        # 145e0 <g_328>
    e650:	48 89 85 10 fe ff ff 	mov    %rax,-0x1f0(%rbp)
    e657:	48 8d 85 d0 e8 ff ff 	lea    -0x1730(%rbp),%rax
    e65e:	48 89 85 18 fe ff ff 	mov    %rax,-0x1e8(%rbp)
    e665:	48 8d 05 74 5f 00 00 	lea    0x5f74(%rip),%rax        # 145e0 <g_328>
    e66c:	48 89 85 20 fe ff ff 	mov    %rax,-0x1e0(%rbp)
    e673:	48 8d 85 d0 e8 ff ff 	lea    -0x1730(%rbp),%rax
    e67a:	48 89 85 28 fe ff ff 	mov    %rax,-0x1d8(%rbp)
    e681:	48 c7 85 30 fe ff ff 	movq   $0x0,-0x1d0(%rbp)
    e688:	00 00 00 00 
    e68c:	48 8d 85 d0 e8 ff ff 	lea    -0x1730(%rbp),%rax
    e693:	48 89 85 38 fe ff ff 	mov    %rax,-0x1c8(%rbp)
    e69a:	48 8d 05 3f 5f 00 00 	lea    0x5f3f(%rip),%rax        # 145e0 <g_328>
    e6a1:	48 89 85 40 fe ff ff 	mov    %rax,-0x1c0(%rbp)
    e6a8:	48 8d 85 d0 e8 ff ff 	lea    -0x1730(%rbp),%rax
    e6af:	48 89 85 48 fe ff ff 	mov    %rax,-0x1b8(%rbp)
    e6b6:	48 8d 85 d0 e8 ff ff 	lea    -0x1730(%rbp),%rax
    e6bd:	48 89 85 50 fe ff ff 	mov    %rax,-0x1b0(%rbp)
    e6c4:	48 8d 85 d0 e8 ff ff 	lea    -0x1730(%rbp),%rax
    e6cb:	48 89 85 58 fe ff ff 	mov    %rax,-0x1a8(%rbp)
    e6d2:	48 8d 85 d0 e8 ff ff 	lea    -0x1730(%rbp),%rax
    e6d9:	48 89 85 60 fe ff ff 	mov    %rax,-0x1a0(%rbp)
    e6e0:	48 8d 85 d0 e8 ff ff 	lea    -0x1730(%rbp),%rax
    e6e7:	48 89 85 68 fe ff ff 	mov    %rax,-0x198(%rbp)
    e6ee:	48 8d 05 eb 5e 00 00 	lea    0x5eeb(%rip),%rax        # 145e0 <g_328>
    e6f5:	48 89 85 70 fe ff ff 	mov    %rax,-0x190(%rbp)
    e6fc:	48 8d 85 d0 e8 ff ff 	lea    -0x1730(%rbp),%rax
    e703:	48 89 85 78 fe ff ff 	mov    %rax,-0x188(%rbp)
    e70a:	48 8d 85 d0 e8 ff ff 	lea    -0x1730(%rbp),%rax
    e711:	48 89 85 80 fe ff ff 	mov    %rax,-0x180(%rbp)
    e718:	48 8d 05 c1 5e 00 00 	lea    0x5ec1(%rip),%rax        # 145e0 <g_328>
    e71f:	48 89 85 88 fe ff ff 	mov    %rax,-0x178(%rbp)
    e726:	48 8d 05 b3 5e 00 00 	lea    0x5eb3(%rip),%rax        # 145e0 <g_328>
    e72d:	48 89 85 90 fe ff ff 	mov    %rax,-0x170(%rbp)
    e734:	48 c7 85 98 fe ff ff 	movq   $0x0,-0x168(%rbp)
    e73b:	00 00 00 00 
    e73f:	48 8d 05 9a 5e 00 00 	lea    0x5e9a(%rip),%rax        # 145e0 <g_328>
    e746:	48 89 85 a0 fe ff ff 	mov    %rax,-0x160(%rbp)
    e74d:	48 8d 05 8c 5e 00 00 	lea    0x5e8c(%rip),%rax        # 145e0 <g_328>
    e754:	48 89 85 a8 fe ff ff 	mov    %rax,-0x158(%rbp)
    e75b:	48 8d 85 d0 e8 ff ff 	lea    -0x1730(%rbp),%rax
    e762:	48 89 85 b0 fe ff ff 	mov    %rax,-0x150(%rbp)
    e769:	48 8d 05 70 5e 00 00 	lea    0x5e70(%rip),%rax        # 145e0 <g_328>
    e770:	48 89 85 b8 fe ff ff 	mov    %rax,-0x148(%rbp)
    e777:	48 c7 85 c0 fe ff ff 	movq   $0x0,-0x140(%rbp)
    e77e:	00 00 00 00 
    e782:	48 8d 05 57 5e 00 00 	lea    0x5e57(%rip),%rax        # 145e0 <g_328>
    e789:	48 89 85 c8 fe ff ff 	mov    %rax,-0x138(%rbp)
    e790:	48 8d 05 49 5e 00 00 	lea    0x5e49(%rip),%rax        # 145e0 <g_328>
    e797:	48 89 85 d0 fe ff ff 	mov    %rax,-0x130(%rbp)
    e79e:	48 c7 85 d8 fe ff ff 	movq   $0x0,-0x128(%rbp)
    e7a5:	00 00 00 00 
    e7a9:	48 8d 05 30 5e 00 00 	lea    0x5e30(%rip),%rax        # 145e0 <g_328>
    e7b0:	48 89 85 e0 fe ff ff 	mov    %rax,-0x120(%rbp)
    e7b7:	48 8d 05 22 5e 00 00 	lea    0x5e22(%rip),%rax        # 145e0 <g_328>
    e7be:	48 89 85 e8 fe ff ff 	mov    %rax,-0x118(%rbp)
    e7c5:	48 c7 85 f0 fe ff ff 	movq   $0x0,-0x110(%rbp)
    e7cc:	00 00 00 00 
    e7d0:	48 8d 85 d0 e8 ff ff 	lea    -0x1730(%rbp),%rax
    e7d7:	48 89 85 f8 fe ff ff 	mov    %rax,-0x108(%rbp)
    e7de:	48 8d 05 fb 5d 00 00 	lea    0x5dfb(%rip),%rax        # 145e0 <g_328>
    e7e5:	48 89 85 00 ff ff ff 	mov    %rax,-0x100(%rbp)
    e7ec:	48 8d 85 d0 e8 ff ff 	lea    -0x1730(%rbp),%rax
    e7f3:	48 89 85 08 ff ff ff 	mov    %rax,-0xf8(%rbp)
    e7fa:	48 c7 85 10 ff ff ff 	movq   $0x0,-0xf0(%rbp)
    e801:	00 00 00 00 
    e805:	48 8d 85 d0 e8 ff ff 	lea    -0x1730(%rbp),%rax
    e80c:	48 89 85 18 ff ff ff 	mov    %rax,-0xe8(%rbp)
    e813:	48 8d 85 d0 e8 ff ff 	lea    -0x1730(%rbp),%rax
    e81a:	48 89 85 20 ff ff ff 	mov    %rax,-0xe0(%rbp)
    e821:	48 c7 85 28 ff ff ff 	movq   $0x0,-0xd8(%rbp)
    e828:	00 00 00 00 
    e82c:	48 8d 05 ad 5d 00 00 	lea    0x5dad(%rip),%rax        # 145e0 <g_328>
    e833:	48 89 85 30 ff ff ff 	mov    %rax,-0xd0(%rbp)
    e83a:	48 c7 85 38 ff ff ff 	movq   $0x0,-0xc8(%rbp)
    e841:	00 00 00 00 
    e845:	48 8d 05 74 48 00 00 	lea    0x4874(%rip),%rax        # 130c0 <g_519>
    e84c:	48 89 85 e0 e8 ff ff 	mov    %rax,-0x1720(%rbp)
    e853:	48 8d 85 e0 e8 ff ff 	lea    -0x1720(%rbp),%rax
    e85a:	48 89 85 28 e9 ff ff 	mov    %rax,-0x16d8(%rbp)
    e861:	c7 85 90 e8 ff ff fd 	movl   $0xfffffffd,-0x1770(%rbp)
    e868:	ff ff ff 
    e86b:	48 8d 85 b0 e9 ff ff 	lea    -0x1650(%rbp),%rax
    e872:	48 83 c0 0f          	add    $0xf,%rax
    e876:	48 89 85 30 e9 ff ff 	mov    %rax,-0x16d0(%rbp)
    e87d:	c7 85 94 e8 ff ff 1c 	movl   $0x8699f31c,-0x176c(%rbp)
    e884:	f3 99 86 
    e887:	c7 85 98 e8 ff ff 8c 	movl   $0x4cc7728c,-0x1768(%rbp)
    e88e:	72 c7 4c 
    e891:	48 8d 85 50 e8 ff ff 	lea    -0x17b0(%rbp),%rax
    e898:	48 89 85 38 e9 ff ff 	mov    %rax,-0x16c8(%rbp)
    e89f:	c6 05 93 47 00 00 00 	movb   $0x0,0x4793(%rip)        # 13039 <g_110>
    e8a6:	e9 cf 02 00 00       	jmpq   eb7a <func_68+0x277e>
    e8ab:	48 8d 05 a1 47 00 00 	lea    0x47a1(%rip),%rax        # 13053 <g_168>
    e8b2:	48 89 85 e8 e8 ff ff 	mov    %rax,-0x1718(%rbp)
    e8b9:	48 8d 85 e8 e8 ff ff 	lea    -0x1718(%rbp),%rax
    e8c0:	48 89 85 40 e9 ff ff 	mov    %rax,-0x16c0(%rbp)
    e8c7:	48 8d 05 6b 47 00 00 	lea    0x476b(%rip),%rax        # 13039 <g_110>
    e8ce:	48 89 85 f0 e8 ff ff 	mov    %rax,-0x1710(%rbp)
    e8d5:	48 8d 85 f0 e8 ff ff 	lea    -0x1710(%rbp),%rax
    e8dc:	48 89 85 48 e9 ff ff 	mov    %rax,-0x16b8(%rbp)
    e8e3:	c7 85 54 e8 ff ff 58 	movl   $0x3bb0d358,-0x17ac(%rbp)
    e8ea:	d3 b0 3b 
    e8ed:	c7 85 9c e8 ff ff 84 	movl   $0xb872eb84,-0x1764(%rbp)
    e8f4:	eb 72 b8 
    e8f7:	48 c7 85 c0 f0 ff ff 	movq   $0x0,-0xf40(%rbp)
    e8fe:	00 00 00 00 
    e902:	48 8d 05 c4 47 00 00 	lea    0x47c4(%rip),%rax        # 130cd <g_552>
    e909:	48 89 85 c8 f0 ff ff 	mov    %rax,-0xf38(%rbp)
    e910:	48 8d 05 b6 47 00 00 	lea    0x47b6(%rip),%rax        # 130cd <g_552>
    e917:	48 89 85 d0 f0 ff ff 	mov    %rax,-0xf30(%rbp)
    e91e:	48 c7 85 d8 f0 ff ff 	movq   $0x0,-0xf28(%rbp)
    e925:	00 00 00 00 
    e929:	48 8d 05 9d 47 00 00 	lea    0x479d(%rip),%rax        # 130cd <g_552>
    e930:	48 89 85 e0 f0 ff ff 	mov    %rax,-0xf20(%rbp)
    e937:	48 8d 05 8f 47 00 00 	lea    0x478f(%rip),%rax        # 130cd <g_552>
    e93e:	48 89 85 e8 f0 ff ff 	mov    %rax,-0xf18(%rbp)
    e945:	48 c7 85 f0 f0 ff ff 	movq   $0x0,-0xf10(%rbp)
    e94c:	00 00 00 00 
    e950:	48 8d 05 76 47 00 00 	lea    0x4776(%rip),%rax        # 130cd <g_552>
    e957:	48 89 85 f8 f0 ff ff 	mov    %rax,-0xf08(%rbp)
    e95e:	48 8d 05 68 47 00 00 	lea    0x4768(%rip),%rax        # 130cd <g_552>
    e965:	48 89 85 00 f1 ff ff 	mov    %rax,-0xf00(%rbp)
    e96c:	48 8d 85 c0 f0 ff ff 	lea    -0xf40(%rbp),%rax
    e973:	48 83 c0 08          	add    $0x8,%rax
    e977:	48 89 85 f8 e8 ff ff 	mov    %rax,-0x1708(%rbp)
    e97e:	48 8d 85 f8 e8 ff ff 	lea    -0x1708(%rbp),%rax
    e985:	48 89 85 00 e9 ff ff 	mov    %rax,-0x1700(%rbp)
    e98c:	48 8d 85 a0 ea ff ff 	lea    -0x1560(%rbp),%rax
    e993:	48 89 85 50 e9 ff ff 	mov    %rax,-0x16b0(%rbp)
    e99a:	c7 85 a0 e8 ff ff 44 	movl   $0x4e535d44,-0x1760(%rbp)
    e9a1:	5d 53 4e 
    e9a4:	c7 85 a4 e8 ff ff 01 	movl   $0x1,-0x175c(%rbp)
    e9ab:	00 00 00 
    e9ae:	c7 85 a8 e8 ff ff 00 	movl   $0x0,-0x1758(%rbp)
    e9b5:	00 00 00 
    e9b8:	c7 85 8c e8 ff ff 00 	movl   $0x0,-0x1774(%rbp)
    e9bf:	00 00 00 
    e9c2:	eb 1e                	jmp    e9e2 <func_68+0x25e6>
    e9c4:	8b 85 8c e8 ff ff    	mov    -0x1774(%rbp),%eax
    e9ca:	48 98                	cltq   
    e9cc:	48 8d 95 00 e9 ff ff 	lea    -0x1700(%rbp),%rdx
    e9d3:	48 89 94 c5 a0 ea ff 	mov    %rdx,-0x1560(%rbp,%rax,8)
    e9da:	ff 
    e9db:	83 85 8c e8 ff ff 01 	addl   $0x1,-0x1774(%rbp)
    e9e2:	83 bd 8c e8 ff ff 00 	cmpl   $0x0,-0x1774(%rbp)
    e9e9:	7e d9                	jle    e9c4 <func_68+0x25c8>
    e9eb:	48 8d 05 ee 5b 00 00 	lea    0x5bee(%rip),%rax        # 145e0 <g_328>
    e9f2:	48 89 85 28 e9 ff ff 	mov    %rax,-0x16d8(%rbp)
    e9f9:	48 8b 85 40 e9 ff ff 	mov    -0x16c0(%rbp),%rax
    ea00:	48 8d 15 4c 46 00 00 	lea    0x464c(%rip),%rdx        # 13053 <g_168>
    ea07:	48 89 10             	mov    %rdx,(%rax)
    ea0a:	48 8b 85 40 e9 ff ff 	mov    -0x16c0(%rbp),%rax
    ea11:	48 8b 10             	mov    (%rax),%rdx
    ea14:	48 8b 85 48 e9 ff ff 	mov    -0x16b8(%rbp),%rax
    ea1b:	48 89 10             	mov    %rdx,(%rax)
    ea1e:	0f b6 85 44 e8 ff ff 	movzbl -0x17bc(%rbp),%eax
    ea25:	0f be c0             	movsbl %al,%eax
    ea28:	89 c6                	mov    %eax,%esi
    ea2a:	bf e2 00 00 00       	mov    $0xe2,%edi
    ea2f:	e8 8a 72 ff ff       	callq  5cbe <safe_rshift_func_uint8_t_u_u>
    ea34:	c7 85 90 e8 ff ff 00 	movl   $0x0,-0x1770(%rbp)
    ea3b:	00 00 00 
    ea3e:	8b 85 90 e8 ff ff    	mov    -0x1770(%rbp),%eax
    ea44:	89 85 54 e8 ff ff    	mov    %eax,-0x17ac(%rbp)
    ea4a:	48 8b 05 17 59 00 00 	mov    0x5917(%rip),%rax        # 14368 <g_272>
    ea51:	48 8b 95 30 e9 ff ff 	mov    -0x16d0(%rbp),%rdx
    ea58:	48 89 10             	mov    %rdx,(%rax)
    ea5b:	48 8b 00             	mov    (%rax),%rax
    ea5e:	48 85 c0             	test   %rax,%rax
    ea61:	0f 94 c0             	sete   %al
    ea64:	0f b6 c0             	movzbl %al,%eax
    ea67:	be 00 00 00 00       	mov    $0x0,%esi
    ea6c:	89 c7                	mov    %eax,%edi
    ea6e:	e8 d9 71 ff ff       	callq  5c4c <safe_lshift_func_uint8_t_u_u>
    ea73:	89 c2                	mov    %eax,%edx
    ea75:	48 8b 05 7c 5b 00 00 	mov    0x5b7c(%rip),%rax        # 145f8 <g_531>
    ea7c:	8b 08                	mov    (%rax),%ecx
    ea7e:	0f b6 d2             	movzbl %dl,%edx
    ea81:	09 ca                	or     %ecx,%edx
    ea83:	89 10                	mov    %edx,(%rax)
    ea85:	c7 85 60 e8 ff ff 04 	movl   $0x4,-0x17a0(%rbp)
    ea8c:	00 00 00 
    ea8f:	e9 c3 00 00 00       	jmpq   eb57 <func_68+0x275b>
    ea94:	0f b6 05 9e 45 00 00 	movzbl 0x459e(%rip),%eax        # 13039 <g_110>
    ea9b:	0f be c0             	movsbl %al,%eax
    ea9e:	8b 95 60 e8 ff ff    	mov    -0x17a0(%rbp),%edx
    eaa4:	8d 4a 02             	lea    0x2(%rdx),%ecx
    eaa7:	8b 95 60 e8 ff ff    	mov    -0x17a0(%rbp),%edx
    eaad:	48 63 f2             	movslq %edx,%rsi
    eab0:	48 63 d0             	movslq %eax,%rdx
    eab3:	48 63 c9             	movslq %ecx,%rcx
    eab6:	48 89 d0             	mov    %rdx,%rax
    eab9:	48 c1 e0 02          	shl    $0x2,%rax
    eabd:	48 01 d0             	add    %rdx,%rax
    eac0:	48 c1 e0 02          	shl    $0x2,%rax
    eac4:	48 01 d0             	add    %rdx,%rax
    eac7:	48 01 c0             	add    %rax,%rax
    eaca:	48 89 ca             	mov    %rcx,%rdx
    eacd:	48 01 d2             	add    %rdx,%rdx
    ead0:	48 01 ca             	add    %rcx,%rdx
    ead3:	48 01 d2             	add    %rdx,%rdx
    ead6:	48 01 d0             	add    %rdx,%rax
    ead9:	48 01 f0             	add    %rsi,%rax
    eadc:	0f b7 84 45 40 eb ff 	movzwl -0x14c0(%rbp,%rax,2),%eax
    eae3:	ff 
    eae4:	66 85 c0             	test   %ax,%ax
    eae7:	75 7d                	jne    eb66 <func_68+0x276a>
    eae9:	0f b6 05 49 45 00 00 	movzbl 0x4549(%rip),%eax        # 13039 <g_110>
    eaf0:	0f be c0             	movsbl %al,%eax
    eaf3:	0f b6 15 3f 45 00 00 	movzbl 0x453f(%rip),%edx        # 13039 <g_110>
    eafa:	0f be d2             	movsbl %dl,%edx
    eafd:	48 63 f2             	movslq %edx,%rsi
    eb00:	48 63 d0             	movslq %eax,%rdx
    eb03:	8b 85 60 e8 ff ff    	mov    -0x17a0(%rbp),%eax
    eb09:	48 63 c8             	movslq %eax,%rcx
    eb0c:	48 89 d0             	mov    %rdx,%rax
    eb0f:	48 c1 e0 02          	shl    $0x2,%rax
    eb13:	48 01 d0             	add    %rdx,%rax
    eb16:	48 c1 e0 02          	shl    $0x2,%rax
    eb1a:	48 01 d0             	add    %rdx,%rax
    eb1d:	48 01 c0             	add    %rax,%rax
    eb20:	48 89 ca             	mov    %rcx,%rdx
    eb23:	48 01 d2             	add    %rdx,%rdx
    eb26:	48 01 ca             	add    %rcx,%rdx
    eb29:	48 01 d2             	add    %rdx,%rdx
    eb2c:	48 01 d0             	add    %rdx,%rax
    eb2f:	48 01 f0             	add    %rsi,%rax
    eb32:	0f b7 84 45 40 eb ff 	movzwl -0x14c0(%rbp,%rax,2),%eax
    eb39:	ff 
    eb3a:	66 85 c0             	test   %ax,%ax
    eb3d:	75 2a                	jne    eb69 <func_68+0x276d>
    eb3f:	48 8b 05 ba 5a 00 00 	mov    0x5aba(%rip),%rax        # 14600 <g_532>
    eb46:	48 8d 95 54 e8 ff ff 	lea    -0x17ac(%rbp),%rdx
    eb4d:	48 89 10             	mov    %rdx,(%rax)
    eb50:	83 ad 60 e8 ff ff 01 	subl   $0x1,-0x17a0(%rbp)
    eb57:	83 bd 60 e8 ff ff 00 	cmpl   $0x0,-0x17a0(%rbp)
    eb5e:	0f 89 30 ff ff ff    	jns    ea94 <func_68+0x2698>
    eb64:	eb 04                	jmp    eb6a <func_68+0x276e>
    eb66:	90                   	nop
    eb67:	eb 01                	jmp    eb6a <func_68+0x276e>
    eb69:	90                   	nop
    eb6a:	0f b6 05 c8 44 00 00 	movzbl 0x44c8(%rip),%eax        # 13039 <g_110>
    eb71:	83 c0 01             	add    $0x1,%eax
    eb74:	88 05 bf 44 00 00    	mov    %al,0x44bf(%rip)        # 13039 <g_110>
    eb7a:	0f b6 05 b8 44 00 00 	movzbl 0x44b8(%rip),%eax        # 13039 <g_110>
    eb81:	3c 05                	cmp    $0x5,%al
    eb83:	0f 8e 22 fd ff ff    	jle    e8ab <func_68+0x24af>
    eb89:	48 8b 05 58 5a 00 00 	mov    0x5a58(%rip),%rax        # 145e8 <g_372>
    eb90:	8b 00                	mov    (%rax),%eax
    eb92:	85 c0                	test   %eax,%eax
    eb94:	0f 85 37 01 00 00    	jne    ecd1 <func_68+0x28d5>
    eb9a:	48 8b 05 bf 57 00 00 	mov    0x57bf(%rip),%rax        # 14360 <g_273>
    eba1:	0f b6 00             	movzbl (%rax),%eax
    eba4:	0f be d8             	movsbl %al,%ebx
    eba7:	8b 85 3c e8 ff ff    	mov    -0x17c4(%rbp),%eax
    ebad:	0f b6 d0             	movzbl %al,%edx
    ebb0:	8b 85 3c e8 ff ff    	mov    -0x17c4(%rbp),%eax
    ebb6:	0f b6 c0             	movzbl %al,%eax
    ebb9:	89 d6                	mov    %edx,%esi
    ebbb:	89 c7                	mov    %eax,%edi
    ebbd:	e8 19 70 ff ff       	callq  5bdb <safe_div_func_uint8_t_u_u>
    ebc2:	8b 05 18 45 00 00    	mov    0x4518(%rip),%eax        # 130e0 <g_623>
    ebc8:	48 8b 05 79 44 00 00 	mov    0x4479(%rip),%rax        # 13048 <g_128>
    ebcf:	44 0f bf e0          	movswl %ax,%r12d
    ebd3:	8b 85 98 e8 ff ff    	mov    -0x1768(%rbp),%eax
    ebd9:	0f b7 c0             	movzwl %ax,%eax
    ebdc:	48 8b 15 9d 57 00 00 	mov    0x579d(%rip),%rdx        # 14380 <g_310>
    ebe3:	48 8b 12             	mov    (%rdx),%rdx
    ebe6:	48 8b 12             	mov    (%rdx),%rdx
    ebe9:	0f b6 12             	movzbl (%rdx),%edx
    ebec:	89 c6                	mov    %eax,%esi
    ebee:	bf 01 00 00 00       	mov    $0x1,%edi
    ebf3:	e8 96 71 ff ff       	callq  5d8e <safe_div_func_uint16_t_u_u>
    ebf8:	0f b7 d0             	movzwl %ax,%edx
    ebfb:	8b 85 3c e8 ff ff    	mov    -0x17c4(%rbp),%eax
    ec01:	89 d6                	mov    %edx,%esi
    ec03:	89 c7                	mov    %eax,%edi
    ec05:	e8 1b 73 ff ff       	callq  5f25 <safe_div_func_uint32_t_u_u>
    ec0a:	83 f8 08             	cmp    $0x8,%eax
    ec0d:	77 07                	ja     ec16 <func_68+0x281a>
    ec0f:	b8 01 00 00 00       	mov    $0x1,%eax
    ec14:	eb 05                	jmp    ec1b <func_68+0x281f>
    ec16:	b8 00 00 00 00       	mov    $0x0,%eax
    ec1b:	89 c2                	mov    %eax,%edx
    ec1d:	8b 85 3c e8 ff ff    	mov    -0x17c4(%rbp),%eax
    ec23:	09 d0                	or     %edx,%eax
    ec25:	0f b7 c0             	movzwl %ax,%eax
    ec28:	be 03 00 00 00       	mov    $0x3,%esi
    ec2d:	89 c7                	mov    %eax,%edi
    ec2f:	e8 14 72 ff ff       	callq  5e48 <safe_rshift_func_uint16_t_u_s>
    ec34:	0f b6 05 fd 43 00 00 	movzbl 0x43fd(%rip),%eax        # 13038 <g_64>
    ec3b:	0f b6 c0             	movzbl %al,%eax
    ec3e:	44 89 e6             	mov    %r12d,%esi
    ec41:	89 c7                	mov    %eax,%edi
    ec43:	e8 6b 67 ff ff       	callq  53b3 <safe_add_func_int16_t_s_s>
    ec48:	0f bf d0             	movswl %ax,%edx
    ec4b:	48 8b 85 38 e9 ff ff 	mov    -0x16c8(%rbp),%rax
    ec52:	89 10                	mov    %edx,(%rax)
    ec54:	0f b6 05 de 43 00 00 	movzbl 0x43de(%rip),%eax        # 13039 <g_110>
    ec5b:	84 c0                	test   %al,%al
    ec5d:	0f 9f c0             	setg   %al
    ec60:	0f b6 c0             	movzbl %al,%eax
    ec63:	be 99 00 00 00       	mov    $0x99,%esi
    ec68:	89 c7                	mov    %eax,%edi
    ec6a:	e8 24 6f ff ff       	callq  5b93 <safe_mul_func_uint8_t_u_u>
    ec6f:	0f b6 c0             	movzbl %al,%eax
    ec72:	33 85 3c e8 ff ff    	xor    -0x17c4(%rbp),%eax
    ec78:	83 f8 07             	cmp    $0x7,%eax
    ec7b:	8b 85 6c e8 ff ff    	mov    -0x1794(%rbp),%eax
    ec81:	3b 85 94 e8 ff ff    	cmp    -0x176c(%rbp),%eax
    ec87:	0f 9d c0             	setge  %al
    ec8a:	0f b6 c0             	movzbl %al,%eax
    ec8d:	89 de                	mov    %ebx,%esi
    ec8f:	89 c7                	mov    %eax,%edi
    ec91:	e8 5c 65 ff ff       	callq  51f2 <safe_sub_func_int8_t_s_s>
    ec96:	89 c2                	mov    %eax,%edx
    ec98:	48 8b 05 71 59 00 00 	mov    0x5971(%rip),%rax        # 14610 <g_636>
    ec9f:	0f be d2             	movsbl %dl,%edx
    eca2:	89 10                	mov    %edx,(%rax)
    eca4:	8b 85 5c e8 ff ff    	mov    -0x17a4(%rbp),%eax
    ecaa:	0f b6 c0             	movzbl %al,%eax
    ecad:	be 01 00 00 00       	mov    $0x1,%esi
    ecb2:	89 c7                	mov    %eax,%edi
    ecb4:	e8 a1 6e ff ff       	callq  5b5a <safe_add_func_uint8_t_u_u>
    ecb9:	0f b6 c0             	movzbl %al,%eax
    ecbc:	89 85 5c e8 ff ff    	mov    %eax,-0x17a4(%rbp)
    ecc2:	83 bd 5c e8 ff ff 1a 	cmpl   $0x1a,-0x17a4(%rbp)
    ecc9:	0f 8e e1 ef ff ff    	jle    dcb0 <func_68+0x18b4>
    eccf:	eb 01                	jmp    ecd2 <func_68+0x28d6>
    ecd1:	90                   	nop
    ecd2:	48 8b 05 37 59 00 00 	mov    0x5937(%rip),%rax        # 14610 <g_636>
    ecd9:	8b 00                	mov    (%rax),%eax
    ecdb:	89 85 60 e8 ff ff    	mov    %eax,-0x17a0(%rbp)
    ece1:	8b 85 74 e8 ff ff    	mov    -0x178c(%rbp),%eax
    ece7:	48 8b 5d e8          	mov    -0x18(%rbp),%rbx
    eceb:	64 48 33 1c 25 28 00 	xor    %fs:0x28,%rbx
    ecf2:	00 00 
    ecf4:	74 05                	je     ecfb <func_68+0x28ff>
    ecf6:	e8 75 63 ff ff       	callq  5070 <__stack_chk_fail@plt>
    ecfb:	48 81 c4 c0 17 00 00 	add    $0x17c0,%rsp
    ed02:	5b                   	pop    %rbx
    ed03:	41 5c                	pop    %r12
    ed05:	5d                   	pop    %rbp
    ed06:	c3                   	retq   

000000000000ed07 <func_71>:
    ed07:	f3 0f 1e fa          	endbr64 
    ed0b:	55                   	push   %rbp
    ed0c:	48 89 e5             	mov    %rsp,%rbp
    ed0f:	89 7d fc             	mov    %edi,-0x4(%rbp)
    ed12:	8b 45 fc             	mov    -0x4(%rbp),%eax
    ed15:	5d                   	pop    %rbp
    ed16:	c3                   	retq   

000000000000ed17 <main>:
    ed17:	f3 0f 1e fa          	endbr64 
    ed1b:	55                   	push   %rbp
    ed1c:	48 89 e5             	mov    %rsp,%rbp
    ed1f:	48 83 ec 20          	sub    $0x20,%rsp
    ed23:	89 7d ec             	mov    %edi,-0x14(%rbp)
    ed26:	48 89 75 e0          	mov    %rsi,-0x20(%rbp)
    ed2a:	c7 45 fc 00 00 00 00 	movl   $0x0,-0x4(%rbp)
    ed31:	83 7d ec 02          	cmpl   $0x2,-0x14(%rbp)
    ed35:	75 25                	jne    ed5c <main+0x45>
    ed37:	48 8b 45 e0          	mov    -0x20(%rbp),%rax
    ed3b:	48 83 c0 08          	add    $0x8,%rax
    ed3f:	48 8b 00             	mov    (%rax),%rax
    ed42:	48 8d 35 6f 18 00 00 	lea    0x186f(%rip),%rsi        # 105b8 <g_824+0x560>
    ed49:	48 89 c7             	mov    %rax,%rdi
    ed4c:	e8 3f 63 ff ff       	callq  5090 <strcmp@plt>
    ed51:	85 c0                	test   %eax,%eax
    ed53:	75 07                	jne    ed5c <main+0x45>
    ed55:	c7 45 fc 01 00 00 00 	movl   $0x1,-0x4(%rbp)
    ed5c:	e8 28 64 ff ff       	callq  5189 <platform_main_begin>
    ed61:	e8 32 78 ff ff       	callq  6598 <crc32_gentab>
    ed66:	e8 4a 7a ff ff       	callq  67b5 <func_1>
    ed6b:	8b 05 b3 42 00 00    	mov    0x42b3(%rip),%eax        # 13024 <g_18>
    ed71:	48 98                	cltq   
    ed73:	8b 55 fc             	mov    -0x4(%rbp),%edx
    ed76:	48 8d 35 3d 18 00 00 	lea    0x183d(%rip),%rsi        # 105ba <g_824+0x562>
    ed7d:	48 89 c7             	mov    %rax,%rdi
    ed80:	e8 6e 79 ff ff       	callq  66f3 <transparent_crc>
    ed85:	8b 05 9d 42 00 00    	mov    0x429d(%rip),%eax        # 13028 <g_43>
    ed8b:	48 98                	cltq   
    ed8d:	8b 55 fc             	mov    -0x4(%rbp),%edx
    ed90:	48 8d 35 28 18 00 00 	lea    0x1828(%rip),%rsi        # 105bf <g_824+0x567>
    ed97:	48 89 c7             	mov    %rax,%rdi
    ed9a:	e8 54 79 ff ff       	callq  66f3 <transparent_crc>
    ed9f:	48 8b 05 8a 42 00 00 	mov    0x428a(%rip),%rax        # 13030 <g_48>
    eda6:	8b 55 fc             	mov    -0x4(%rbp),%edx
    eda9:	48 8d 35 14 18 00 00 	lea    0x1814(%rip),%rsi        # 105c4 <g_824+0x56c>
    edb0:	48 89 c7             	mov    %rax,%rdi
    edb3:	e8 3b 79 ff ff       	callq  66f3 <transparent_crc>
    edb8:	0f b6 05 79 42 00 00 	movzbl 0x4279(%rip),%eax        # 13038 <g_64>
    edbf:	0f b6 c0             	movzbl %al,%eax
    edc2:	8b 55 fc             	mov    -0x4(%rbp),%edx
    edc5:	48 8d 35 fd 17 00 00 	lea    0x17fd(%rip),%rsi        # 105c9 <g_824+0x571>
    edcc:	48 89 c7             	mov    %rax,%rdi
    edcf:	e8 1f 79 ff ff       	callq  66f3 <transparent_crc>
    edd4:	0f b6 05 5e 42 00 00 	movzbl 0x425e(%rip),%eax        # 13039 <g_110>
    eddb:	48 0f be c0          	movsbq %al,%rax
    eddf:	8b 55 fc             	mov    -0x4(%rbp),%edx
    ede2:	48 8d 35 e5 17 00 00 	lea    0x17e5(%rip),%rsi        # 105ce <g_824+0x576>
    ede9:	48 89 c7             	mov    %rax,%rdi
    edec:	e8 02 79 ff ff       	callq  66f3 <transparent_crc>
    edf1:	0f b6 05 44 42 00 00 	movzbl 0x4244(%rip),%eax        # 1303c <g_115>
    edf8:	48 0f be c0          	movsbq %al,%rax
    edfc:	8b 55 fc             	mov    -0x4(%rbp),%edx
    edff:	48 8d 35 ce 17 00 00 	lea    0x17ce(%rip),%rsi        # 105d4 <g_824+0x57c>
    ee06:	48 89 c7             	mov    %rax,%rdi
    ee09:	e8 e5 78 ff ff       	callq  66f3 <transparent_crc>
    ee0e:	0f b6 05 27 42 00 00 	movzbl 0x4227(%rip),%eax        # 1303c <g_115>
    ee15:	0f b6 c0             	movzbl %al,%eax
    ee18:	8b 55 fc             	mov    -0x4(%rbp),%edx
    ee1b:	48 8d 35 bb 17 00 00 	lea    0x17bb(%rip),%rsi        # 105dd <g_824+0x585>
    ee22:	48 89 c7             	mov    %rax,%rdi
    ee25:	e8 c9 78 ff ff       	callq  66f3 <transparent_crc>
    ee2a:	0f b7 05 0f 42 00 00 	movzwl 0x420f(%rip),%eax        # 13040 <g_119>
    ee31:	48 0f bf c0          	movswq %ax,%rax
    ee35:	8b 55 fc             	mov    -0x4(%rbp),%edx
    ee38:	48 8d 35 a7 17 00 00 	lea    0x17a7(%rip),%rsi        # 105e6 <g_824+0x58e>
    ee3f:	48 89 c7             	mov    %rax,%rdi
    ee42:	e8 ac 78 ff ff       	callq  66f3 <transparent_crc>
    ee47:	48 8b 05 fa 41 00 00 	mov    0x41fa(%rip),%rax        # 13048 <g_128>
    ee4e:	48 89 c1             	mov    %rax,%rcx
    ee51:	8b 45 fc             	mov    -0x4(%rbp),%eax
    ee54:	89 c2                	mov    %eax,%edx
    ee56:	48 8d 35 8f 17 00 00 	lea    0x178f(%rip),%rsi        # 105ec <g_824+0x594>
    ee5d:	48 89 cf             	mov    %rcx,%rdi
    ee60:	e8 8e 78 ff ff       	callq  66f3 <transparent_crc>
    ee65:	0f b7 05 e4 41 00 00 	movzwl 0x41e4(%rip),%eax        # 13050 <g_131>
    ee6c:	0f b7 c0             	movzwl %ax,%eax
    ee6f:	8b 55 fc             	mov    -0x4(%rbp),%edx
    ee72:	48 8d 35 79 17 00 00 	lea    0x1779(%rip),%rsi        # 105f2 <g_824+0x59a>
    ee79:	48 89 c7             	mov    %rax,%rdi
    ee7c:	e8 72 78 ff ff       	callq  66f3 <transparent_crc>
    ee81:	0f b6 05 ca 41 00 00 	movzbl 0x41ca(%rip),%eax        # 13052 <g_167>
    ee88:	0f b6 c0             	movzbl %al,%eax
    ee8b:	8b 55 fc             	mov    -0x4(%rbp),%edx
    ee8e:	48 8d 35 63 17 00 00 	lea    0x1763(%rip),%rsi        # 105f8 <g_824+0x5a0>
    ee95:	48 89 c7             	mov    %rax,%rdi
    ee98:	e8 56 78 ff ff       	callq  66f3 <transparent_crc>
    ee9d:	0f b6 05 af 41 00 00 	movzbl 0x41af(%rip),%eax        # 13053 <g_168>
    eea4:	48 0f be c0          	movsbq %al,%rax
    eea8:	8b 55 fc             	mov    -0x4(%rbp),%edx
    eeab:	48 8d 35 4c 17 00 00 	lea    0x174c(%rip),%rsi        # 105fe <g_824+0x5a6>
    eeb2:	48 89 c7             	mov    %rax,%rdi
    eeb5:	e8 39 78 ff ff       	callq  66f3 <transparent_crc>
    eeba:	8b 05 c8 67 00 00    	mov    0x67c8(%rip),%eax        # 15688 <g_190>
    eec0:	48 98                	cltq   
    eec2:	8b 55 fc             	mov    -0x4(%rbp),%edx
    eec5:	48 8d 35 38 17 00 00 	lea    0x1738(%rip),%rsi        # 10604 <g_824+0x5ac>
    eecc:	48 89 c7             	mov    %rax,%rdi
    eecf:	e8 1f 78 ff ff       	callq  66f3 <transparent_crc>
    eed4:	8b 05 7a 41 00 00    	mov    0x417a(%rip),%eax        # 13054 <g_255>
    eeda:	48 98                	cltq   
    eedc:	8b 55 fc             	mov    -0x4(%rbp),%edx
    eedf:	48 8d 35 24 17 00 00 	lea    0x1724(%rip),%rsi        # 1060a <g_824+0x5b2>
    eee6:	48 89 c7             	mov    %rax,%rdi
    eee9:	e8 05 78 ff ff       	callq  66f3 <transparent_crc>
    eeee:	c7 45 f0 00 00 00 00 	movl   $0x0,-0x10(%rbp)
    eef5:	e9 b2 00 00 00       	jmpq   efac <main+0x295>
    eefa:	c7 45 f4 00 00 00 00 	movl   $0x0,-0xc(%rbp)
    ef01:	e9 98 00 00 00       	jmpq   ef9e <main+0x287>
    ef06:	8b 45 f4             	mov    -0xc(%rbp),%eax
    ef09:	48 98                	cltq   
    ef0b:	8b 55 f0             	mov    -0x10(%rbp),%edx
    ef0e:	48 63 d2             	movslq %edx,%rdx
    ef11:	48 c1 e2 03          	shl    $0x3,%rdx
    ef15:	48 01 d0             	add    %rdx,%rax
    ef18:	48 8d 14 85 00 00 00 	lea    0x0(,%rax,4),%rdx
    ef1f:	00 
    ef20:	48 8d 05 39 41 00 00 	lea    0x4139(%rip),%rax        # 13060 <g_433>
    ef27:	0f b6 04 02          	movzbl (%rdx,%rax,1),%eax
    ef2b:	48 0f be c0          	movsbq %al,%rax
    ef2f:	8b 55 fc             	mov    -0x4(%rbp),%edx
    ef32:	48 8d 35 d7 16 00 00 	lea    0x16d7(%rip),%rsi        # 10610 <g_824+0x5b8>
    ef39:	48 89 c7             	mov    %rax,%rdi
    ef3c:	e8 b2 77 ff ff       	callq  66f3 <transparent_crc>
    ef41:	8b 45 f4             	mov    -0xc(%rbp),%eax
    ef44:	48 98                	cltq   
    ef46:	8b 55 f0             	mov    -0x10(%rbp),%edx
    ef49:	48 63 d2             	movslq %edx,%rdx
    ef4c:	48 c1 e2 03          	shl    $0x3,%rdx
    ef50:	48 01 d0             	add    %rdx,%rax
    ef53:	48 8d 14 85 00 00 00 	lea    0x0(,%rax,4),%rdx
    ef5a:	00 
    ef5b:	48 8d 05 fe 40 00 00 	lea    0x40fe(%rip),%rax        # 13060 <g_433>
    ef62:	0f b6 04 02          	movzbl (%rdx,%rax,1),%eax
    ef66:	0f b6 c0             	movzbl %al,%eax
    ef69:	8b 55 fc             	mov    -0x4(%rbp),%edx
    ef6c:	48 8d 35 ac 16 00 00 	lea    0x16ac(%rip),%rsi        # 1061f <g_824+0x5c7>
    ef73:	48 89 c7             	mov    %rax,%rdi
    ef76:	e8 78 77 ff ff       	callq  66f3 <transparent_crc>
    ef7b:	83 7d fc 00          	cmpl   $0x0,-0x4(%rbp)
    ef7f:	74 19                	je     ef9a <main+0x283>
    ef81:	8b 55 f4             	mov    -0xc(%rbp),%edx
    ef84:	8b 45 f0             	mov    -0x10(%rbp),%eax
    ef87:	89 c6                	mov    %eax,%esi
    ef89:	48 8d 3d 9e 16 00 00 	lea    0x169e(%rip),%rdi        # 1062e <g_824+0x5d6>
    ef90:	b8 00 00 00 00       	mov    $0x0,%eax
    ef95:	e8 e6 60 ff ff       	callq  5080 <printf@plt>
    ef9a:	83 45 f4 01          	addl   $0x1,-0xc(%rbp)
    ef9e:	83 7d f4 07          	cmpl   $0x7,-0xc(%rbp)
    efa2:	0f 8e 5e ff ff ff    	jle    ef06 <main+0x1ef>
    efa8:	83 45 f0 01          	addl   $0x1,-0x10(%rbp)
    efac:	83 7d f0 02          	cmpl   $0x2,-0x10(%rbp)
    efb0:	0f 8e 44 ff ff ff    	jle    eefa <main+0x1e3>
    efb6:	48 8b 05 03 41 00 00 	mov    0x4103(%rip),%rax        # 130c0 <g_519>
    efbd:	48 89 c1             	mov    %rax,%rcx
    efc0:	8b 45 fc             	mov    -0x4(%rbp),%eax
    efc3:	89 c2                	mov    %eax,%edx
    efc5:	48 8d 35 74 16 00 00 	lea    0x1674(%rip),%rsi        # 10640 <g_824+0x5e8>
    efcc:	48 89 cf             	mov    %rcx,%rdi
    efcf:	e8 1f 77 ff ff       	callq  66f3 <transparent_crc>
    efd4:	0f b6 05 ed 40 00 00 	movzbl 0x40ed(%rip),%eax        # 130c8 <g_541>
    efdb:	48 0f be c0          	movsbq %al,%rax
    efdf:	8b 55 fc             	mov    -0x4(%rbp),%edx
    efe2:	48 8d 35 5d 16 00 00 	lea    0x165d(%rip),%rsi        # 10646 <g_824+0x5ee>
    efe9:	48 89 c7             	mov    %rax,%rdi
    efec:	e8 02 77 ff ff       	callq  66f3 <transparent_crc>
    eff1:	0f b6 05 d0 40 00 00 	movzbl 0x40d0(%rip),%eax        # 130c8 <g_541>
    eff8:	0f b6 c0             	movzbl %al,%eax
    effb:	8b 55 fc             	mov    -0x4(%rbp),%edx
    effe:	48 8d 35 4a 16 00 00 	lea    0x164a(%rip),%rsi        # 1064f <g_824+0x5f7>
    f005:	48 89 c7             	mov    %rax,%rdi
    f008:	e8 e6 76 ff ff       	callq  66f3 <transparent_crc>
    f00d:	0f b6 05 b8 40 00 00 	movzbl 0x40b8(%rip),%eax        # 130cc <g_551>
    f014:	0f b6 c0             	movzbl %al,%eax
    f017:	8b 55 fc             	mov    -0x4(%rbp),%edx
    f01a:	48 8d 35 37 16 00 00 	lea    0x1637(%rip),%rsi        # 10658 <g_824+0x600>
    f021:	48 89 c7             	mov    %rax,%rdi
    f024:	e8 ca 76 ff ff       	callq  66f3 <transparent_crc>
    f029:	0f b6 05 9d 40 00 00 	movzbl 0x409d(%rip),%eax        # 130cd <g_552>
    f030:	0f b6 c0             	movzbl %al,%eax
    f033:	8b 55 fc             	mov    -0x4(%rbp),%edx
    f036:	48 8d 35 21 16 00 00 	lea    0x1621(%rip),%rsi        # 1065e <g_824+0x606>
    f03d:	48 89 c7             	mov    %rax,%rdi
    f040:	e8 ae 76 ff ff       	callq  66f3 <transparent_crc>
    f045:	0f b6 05 84 40 00 00 	movzbl 0x4084(%rip),%eax        # 130d0 <g_563>
    f04c:	48 0f be c0          	movsbq %al,%rax
    f050:	8b 55 fc             	mov    -0x4(%rbp),%edx
    f053:	48 8d 35 0a 16 00 00 	lea    0x160a(%rip),%rsi        # 10664 <g_824+0x60c>
    f05a:	48 89 c7             	mov    %rax,%rdi
    f05d:	e8 91 76 ff ff       	callq  66f3 <transparent_crc>
    f062:	0f b6 05 67 40 00 00 	movzbl 0x4067(%rip),%eax        # 130d0 <g_563>
    f069:	0f b6 c0             	movzbl %al,%eax
    f06c:	8b 55 fc             	mov    -0x4(%rbp),%edx
    f06f:	48 8d 35 f7 15 00 00 	lea    0x15f7(%rip),%rsi        # 1066d <g_824+0x615>
    f076:	48 89 c7             	mov    %rax,%rdi
    f079:	e8 75 76 ff ff       	callq  66f3 <transparent_crc>
    f07e:	48 8b 05 53 40 00 00 	mov    0x4053(%rip),%rax        # 130d8 <g_577>
    f085:	8b 55 fc             	mov    -0x4(%rbp),%edx
    f088:	48 8d 35 e7 15 00 00 	lea    0x15e7(%rip),%rsi        # 10676 <g_824+0x61e>
    f08f:	48 89 c7             	mov    %rax,%rdi
    f092:	e8 5c 76 ff ff       	callq  66f3 <transparent_crc>
    f097:	0f b6 05 42 40 00 00 	movzbl 0x4042(%rip),%eax        # 130e0 <g_623>
    f09e:	48 0f be c0          	movsbq %al,%rax
    f0a2:	8b 55 fc             	mov    -0x4(%rbp),%edx
    f0a5:	48 8d 35 d0 15 00 00 	lea    0x15d0(%rip),%rsi        # 1067c <g_824+0x624>
    f0ac:	48 89 c7             	mov    %rax,%rdi
    f0af:	e8 3f 76 ff ff       	callq  66f3 <transparent_crc>
    f0b4:	0f b6 05 25 40 00 00 	movzbl 0x4025(%rip),%eax        # 130e0 <g_623>
    f0bb:	0f b6 c0             	movzbl %al,%eax
    f0be:	8b 55 fc             	mov    -0x4(%rbp),%edx
    f0c1:	48 8d 35 bd 15 00 00 	lea    0x15bd(%rip),%rsi        # 10685 <g_824+0x62d>
    f0c8:	48 89 c7             	mov    %rax,%rdi
    f0cb:	e8 23 76 ff ff       	callq  66f3 <transparent_crc>
    f0d0:	0f b6 05 0d 40 00 00 	movzbl 0x400d(%rip),%eax        # 130e4 <g_670>
    f0d7:	48 0f be c0          	movsbq %al,%rax
    f0db:	8b 55 fc             	mov    -0x4(%rbp),%edx
    f0de:	48 8d 35 a9 15 00 00 	lea    0x15a9(%rip),%rsi        # 1068e <g_824+0x636>
    f0e5:	48 89 c7             	mov    %rax,%rdi
    f0e8:	e8 06 76 ff ff       	callq  66f3 <transparent_crc>
    f0ed:	8b 05 f5 3f 00 00    	mov    0x3ff5(%rip),%eax        # 130e8 <g_675>
    f0f3:	89 c1                	mov    %eax,%ecx
    f0f5:	8b 45 fc             	mov    -0x4(%rbp),%eax
    f0f8:	89 c2                	mov    %eax,%edx
    f0fa:	48 8d 35 93 15 00 00 	lea    0x1593(%rip),%rsi        # 10694 <g_824+0x63c>
    f101:	48 89 cf             	mov    %rcx,%rdi
    f104:	e8 ea 75 ff ff       	callq  66f3 <transparent_crc>
    f109:	0f b6 05 dc 3f 00 00 	movzbl 0x3fdc(%rip),%eax        # 130ec <g_678>
    f110:	48 0f be c0          	movsbq %al,%rax
    f114:	8b 55 fc             	mov    -0x4(%rbp),%edx
    f117:	48 8d 35 7c 15 00 00 	lea    0x157c(%rip),%rsi        # 1069a <g_824+0x642>
    f11e:	48 89 c7             	mov    %rax,%rdi
    f121:	e8 cd 75 ff ff       	callq  66f3 <transparent_crc>
    f126:	0f b6 05 bf 3f 00 00 	movzbl 0x3fbf(%rip),%eax        # 130ec <g_678>
    f12d:	0f b6 c0             	movzbl %al,%eax
    f130:	8b 55 fc             	mov    -0x4(%rbp),%edx
    f133:	48 8d 35 69 15 00 00 	lea    0x1569(%rip),%rsi        # 106a3 <g_824+0x64b>
    f13a:	48 89 c7             	mov    %rax,%rdi
    f13d:	e8 b1 75 ff ff       	callq  66f3 <transparent_crc>
    f142:	8b 05 a8 3f 00 00    	mov    0x3fa8(%rip),%eax        # 130f0 <g_690>
    f148:	89 c1                	mov    %eax,%ecx
    f14a:	8b 45 fc             	mov    -0x4(%rbp),%eax
    f14d:	89 c2                	mov    %eax,%edx
    f14f:	48 8d 35 56 15 00 00 	lea    0x1556(%rip),%rsi        # 106ac <g_824+0x654>
    f156:	48 89 cf             	mov    %rcx,%rdi
    f159:	e8 95 75 ff ff       	callq  66f3 <transparent_crc>
    f15e:	c7 45 f0 00 00 00 00 	movl   $0x0,-0x10(%rbp)
    f165:	e9 f7 00 00 00       	jmpq   f261 <main+0x54a>
    f16a:	c7 45 f4 00 00 00 00 	movl   $0x0,-0xc(%rbp)
    f171:	e9 dd 00 00 00       	jmpq   f253 <main+0x53c>
    f176:	c7 45 f8 00 00 00 00 	movl   $0x0,-0x8(%rbp)
    f17d:	e9 c3 00 00 00       	jmpq   f245 <main+0x52e>
    f182:	8b 45 f8             	mov    -0x8(%rbp),%eax
    f185:	48 63 c8             	movslq %eax,%rcx
    f188:	8b 45 f0             	mov    -0x10(%rbp),%eax
    f18b:	48 63 d0             	movslq %eax,%rdx
    f18e:	8b 45 f4             	mov    -0xc(%rbp),%eax
    f191:	48 63 f0             	movslq %eax,%rsi
    f194:	48 89 d0             	mov    %rdx,%rax
    f197:	48 c1 e0 02          	shl    $0x2,%rax
    f19b:	48 01 d0             	add    %rdx,%rax
    f19e:	48 01 f0             	add    %rsi,%rax
    f1a1:	48 c1 e0 02          	shl    $0x2,%rax
    f1a5:	48 01 c8             	add    %rcx,%rax
    f1a8:	48 8d 14 85 00 00 00 	lea    0x0(,%rax,4),%rdx
    f1af:	00 
    f1b0:	48 8d 05 49 3f 00 00 	lea    0x3f49(%rip),%rax        # 13100 <g_706>
    f1b7:	0f b6 04 02          	movzbl (%rdx,%rax,1),%eax
    f1bb:	48 0f be c0          	movsbq %al,%rax
    f1bf:	8b 55 fc             	mov    -0x4(%rbp),%edx
    f1c2:	48 8d 35 e9 14 00 00 	lea    0x14e9(%rip),%rsi        # 106b2 <g_824+0x65a>
    f1c9:	48 89 c7             	mov    %rax,%rdi
    f1cc:	e8 22 75 ff ff       	callq  66f3 <transparent_crc>
    f1d1:	8b 45 f8             	mov    -0x8(%rbp),%eax
    f1d4:	48 63 c8             	movslq %eax,%rcx
    f1d7:	8b 45 f0             	mov    -0x10(%rbp),%eax
    f1da:	48 63 d0             	movslq %eax,%rdx
    f1dd:	8b 45 f4             	mov    -0xc(%rbp),%eax
    f1e0:	48 63 f0             	movslq %eax,%rsi
    f1e3:	48 89 d0             	mov    %rdx,%rax
    f1e6:	48 c1 e0 02          	shl    $0x2,%rax
    f1ea:	48 01 d0             	add    %rdx,%rax
    f1ed:	48 01 f0             	add    %rsi,%rax
    f1f0:	48 c1 e0 02          	shl    $0x2,%rax
    f1f4:	48 01 c8             	add    %rcx,%rax
    f1f7:	48 8d 14 85 00 00 00 	lea    0x0(,%rax,4),%rdx
    f1fe:	00 
    f1ff:	48 8d 05 fa 3e 00 00 	lea    0x3efa(%rip),%rax        # 13100 <g_706>
    f206:	0f b6 04 02          	movzbl (%rdx,%rax,1),%eax
    f20a:	0f b6 c0             	movzbl %al,%eax
    f20d:	8b 55 fc             	mov    -0x4(%rbp),%edx
    f210:	48 8d 35 ad 14 00 00 	lea    0x14ad(%rip),%rsi        # 106c4 <g_824+0x66c>
    f217:	48 89 c7             	mov    %rax,%rdi
    f21a:	e8 d4 74 ff ff       	callq  66f3 <transparent_crc>
    f21f:	83 7d fc 00          	cmpl   $0x0,-0x4(%rbp)
    f223:	74 1c                	je     f241 <main+0x52a>
    f225:	8b 4d f8             	mov    -0x8(%rbp),%ecx
    f228:	8b 55 f4             	mov    -0xc(%rbp),%edx
    f22b:	8b 45 f0             	mov    -0x10(%rbp),%eax
    f22e:	89 c6                	mov    %eax,%esi
    f230:	48 8d 3d 9f 14 00 00 	lea    0x149f(%rip),%rdi        # 106d6 <g_824+0x67e>
    f237:	b8 00 00 00 00       	mov    $0x0,%eax
    f23c:	e8 3f 5e ff ff       	callq  5080 <printf@plt>
    f241:	83 45 f8 01          	addl   $0x1,-0x8(%rbp)
    f245:	83 7d f8 03          	cmpl   $0x3,-0x8(%rbp)
    f249:	0f 8e 33 ff ff ff    	jle    f182 <main+0x46b>
    f24f:	83 45 f4 01          	addl   $0x1,-0xc(%rbp)
    f253:	83 7d f4 04          	cmpl   $0x4,-0xc(%rbp)
    f257:	0f 8e 19 ff ff ff    	jle    f176 <main+0x45f>
    f25d:	83 45 f0 01          	addl   $0x1,-0x10(%rbp)
    f261:	83 7d f0 06          	cmpl   $0x6,-0x10(%rbp)
    f265:	0f 8e ff fe ff ff    	jle    f16a <main+0x453>
    f26b:	8b 05 bf 40 00 00    	mov    0x40bf(%rip),%eax        # 13330 <g_745>
    f271:	48 98                	cltq   
    f273:	8b 55 fc             	mov    -0x4(%rbp),%edx
    f276:	48 8d 35 6f 14 00 00 	lea    0x146f(%rip),%rsi        # 106ec <g_824+0x694>
    f27d:	48 89 c7             	mov    %rax,%rdi
    f280:	e8 6e 74 ff ff       	callq  66f3 <transparent_crc>
    f285:	b8 ff ff ff ff       	mov    $0xffffffff,%eax
    f28a:	89 c1                	mov    %eax,%ecx
    f28c:	8b 45 fc             	mov    -0x4(%rbp),%eax
    f28f:	89 c2                	mov    %eax,%edx
    f291:	48 8d 35 5a 14 00 00 	lea    0x145a(%rip),%rsi        # 106f2 <g_824+0x69a>
    f298:	48 89 cf             	mov    %rcx,%rdi
    f29b:	e8 53 74 ff ff       	callq  66f3 <transparent_crc>
    f2a0:	c7 45 f0 00 00 00 00 	movl   $0x0,-0x10(%rbp)
    f2a7:	e9 a6 00 00 00       	jmpq   f352 <main+0x63b>
    f2ac:	c7 45 f4 00 00 00 00 	movl   $0x0,-0xc(%rbp)
    f2b3:	e9 8c 00 00 00       	jmpq   f344 <main+0x62d>
    f2b8:	c7 45 f8 00 00 00 00 	movl   $0x0,-0x8(%rbp)
    f2bf:	eb 79                	jmp    f33a <main+0x623>
    f2c1:	8b 45 f8             	mov    -0x8(%rbp),%eax
    f2c4:	48 63 f0             	movslq %eax,%rsi
    f2c7:	8b 45 f0             	mov    -0x10(%rbp),%eax
    f2ca:	48 63 d0             	movslq %eax,%rdx
    f2cd:	8b 45 f4             	mov    -0xc(%rbp),%eax
    f2d0:	48 63 c8             	movslq %eax,%rcx
    f2d3:	48 89 d0             	mov    %rdx,%rax
    f2d6:	48 c1 e0 04          	shl    $0x4,%rax
    f2da:	48 29 d0             	sub    %rdx,%rax
    f2dd:	48 01 c0             	add    %rax,%rax
    f2e0:	48 89 ca             	mov    %rcx,%rdx
    f2e3:	48 c1 e2 02          	shl    $0x2,%rdx
    f2e7:	48 01 ca             	add    %rcx,%rdx
    f2ea:	48 01 d0             	add    %rdx,%rax
    f2ed:	48 8d 14 30          	lea    (%rax,%rsi,1),%rdx
    f2f1:	48 8d 05 48 40 00 00 	lea    0x4048(%rip),%rax        # 13340 <g_777>
    f2f8:	48 01 d0             	add    %rdx,%rax
    f2fb:	0f b6 00             	movzbl (%rax),%eax
    f2fe:	48 0f be c0          	movsbq %al,%rax
    f302:	8b 55 fc             	mov    -0x4(%rbp),%edx
    f305:	48 8d 35 ec 13 00 00 	lea    0x13ec(%rip),%rsi        # 106f8 <g_824+0x6a0>
    f30c:	48 89 c7             	mov    %rax,%rdi
    f30f:	e8 df 73 ff ff       	callq  66f3 <transparent_crc>
    f314:	83 7d fc 00          	cmpl   $0x0,-0x4(%rbp)
    f318:	74 1c                	je     f336 <main+0x61f>
    f31a:	8b 4d f8             	mov    -0x8(%rbp),%ecx
    f31d:	8b 55 f4             	mov    -0xc(%rbp),%edx
    f320:	8b 45 f0             	mov    -0x10(%rbp),%eax
    f323:	89 c6                	mov    %eax,%esi
    f325:	48 8d 3d aa 13 00 00 	lea    0x13aa(%rip),%rdi        # 106d6 <g_824+0x67e>
    f32c:	b8 00 00 00 00       	mov    $0x0,%eax
    f331:	e8 4a 5d ff ff       	callq  5080 <printf@plt>
    f336:	83 45 f8 01          	addl   $0x1,-0x8(%rbp)
    f33a:	83 7d f8 04          	cmpl   $0x4,-0x8(%rbp)
    f33e:	7e 81                	jle    f2c1 <main+0x5aa>
    f340:	83 45 f4 01          	addl   $0x1,-0xc(%rbp)
    f344:	83 7d f4 05          	cmpl   $0x5,-0xc(%rbp)
    f348:	0f 8e 6a ff ff ff    	jle    f2b8 <main+0x5a1>
    f34e:	83 45 f0 01          	addl   $0x1,-0x10(%rbp)
    f352:	83 7d f0 07          	cmpl   $0x7,-0x10(%rbp)
    f356:	0f 8e 50 ff ff ff    	jle    f2ac <main+0x595>
    f35c:	0f b6 05 cd 40 00 00 	movzbl 0x40cd(%rip),%eax        # 13430 <g_808>
    f363:	48 0f be c0          	movsbq %al,%rax
    f367:	8b 55 fc             	mov    -0x4(%rbp),%edx
    f36a:	48 8d 35 96 13 00 00 	lea    0x1396(%rip),%rsi        # 10707 <g_824+0x6af>
    f371:	48 89 c7             	mov    %rax,%rdi
    f374:	e8 7a 73 ff ff       	callq  66f3 <transparent_crc>
    f379:	0f b6 05 b0 40 00 00 	movzbl 0x40b0(%rip),%eax        # 13430 <g_808>
    f380:	0f b6 c0             	movzbl %al,%eax
    f383:	8b 55 fc             	mov    -0x4(%rbp),%edx
    f386:	48 8d 35 83 13 00 00 	lea    0x1383(%rip),%rsi        # 10710 <g_824+0x6b8>
    f38d:	48 89 c7             	mov    %rax,%rdi
    f390:	e8 5e 73 ff ff       	callq  66f3 <transparent_crc>
    f395:	0f b7 05 98 40 00 00 	movzwl 0x4098(%rip),%eax        # 13434 <g_896>
    f39c:	0f b7 c0             	movzwl %ax,%eax
    f39f:	8b 55 fc             	mov    -0x4(%rbp),%edx
    f3a2:	48 8d 35 70 13 00 00 	lea    0x1370(%rip),%rsi        # 10719 <g_824+0x6c1>
    f3a9:	48 89 c7             	mov    %rax,%rdi
    f3ac:	e8 42 73 ff ff       	callq  66f3 <transparent_crc>
    f3b1:	c7 45 f0 00 00 00 00 	movl   $0x0,-0x10(%rbp)
    f3b8:	eb 7b                	jmp    f435 <main+0x71e>
    f3ba:	8b 45 f0             	mov    -0x10(%rbp),%eax
    f3bd:	48 98                	cltq   
    f3bf:	48 8d 14 85 00 00 00 	lea    0x0(,%rax,4),%rdx
    f3c6:	00 
    f3c7:	48 8d 05 72 40 00 00 	lea    0x4072(%rip),%rax        # 13440 <g_987>
    f3ce:	0f b6 04 02          	movzbl (%rdx,%rax,1),%eax
    f3d2:	48 0f be c0          	movsbq %al,%rax
    f3d6:	8b 55 fc             	mov    -0x4(%rbp),%edx
    f3d9:	48 8d 35 3f 13 00 00 	lea    0x133f(%rip),%rsi        # 1071f <g_824+0x6c7>
    f3e0:	48 89 c7             	mov    %rax,%rdi
    f3e3:	e8 0b 73 ff ff       	callq  66f3 <transparent_crc>
    f3e8:	8b 45 f0             	mov    -0x10(%rbp),%eax
    f3eb:	48 98                	cltq   
    f3ed:	48 8d 14 85 00 00 00 	lea    0x0(,%rax,4),%rdx
    f3f4:	00 
    f3f5:	48 8d 05 44 40 00 00 	lea    0x4044(%rip),%rax        # 13440 <g_987>
    f3fc:	0f b6 04 02          	movzbl (%rdx,%rax,1),%eax
    f400:	0f b6 c0             	movzbl %al,%eax
    f403:	8b 55 fc             	mov    -0x4(%rbp),%edx
    f406:	48 8d 35 1e 13 00 00 	lea    0x131e(%rip),%rsi        # 1072b <g_824+0x6d3>
    f40d:	48 89 c7             	mov    %rax,%rdi
    f410:	e8 de 72 ff ff       	callq  66f3 <transparent_crc>
    f415:	83 7d fc 00          	cmpl   $0x0,-0x4(%rbp)
    f419:	74 16                	je     f431 <main+0x71a>
    f41b:	8b 45 f0             	mov    -0x10(%rbp),%eax
    f41e:	89 c6                	mov    %eax,%esi
    f420:	48 8d 3d 10 13 00 00 	lea    0x1310(%rip),%rdi        # 10737 <g_824+0x6df>
    f427:	b8 00 00 00 00       	mov    $0x0,%eax
    f42c:	e8 4f 5c ff ff       	callq  5080 <printf@plt>
    f431:	83 45 f0 01          	addl   $0x1,-0x10(%rbp)
    f435:	83 7d f0 03          	cmpl   $0x3,-0x10(%rbp)
    f439:	0f 8e 7b ff ff ff    	jle    f3ba <main+0x6a3>
    f43f:	0f b7 05 0a 40 00 00 	movzwl 0x400a(%rip),%eax        # 13450 <g_997>
    f446:	48 0f bf c0          	movswq %ax,%rax
    f44a:	8b 55 fc             	mov    -0x4(%rbp),%edx
    f44d:	48 8d 35 f1 12 00 00 	lea    0x12f1(%rip),%rsi        # 10745 <g_824+0x6ed>
    f454:	48 89 c7             	mov    %rax,%rdi
    f457:	e8 97 72 ff ff       	callq  66f3 <transparent_crc>
    f45c:	c7 45 f0 00 00 00 00 	movl   $0x0,-0x10(%rbp)
    f463:	e9 be 00 00 00       	jmpq   f526 <main+0x80f>
    f468:	c7 45 f4 00 00 00 00 	movl   $0x0,-0xc(%rbp)
    f46f:	e9 a4 00 00 00       	jmpq   f518 <main+0x801>
    f474:	8b 45 f4             	mov    -0xc(%rbp),%eax
    f477:	48 63 c8             	movslq %eax,%rcx
    f47a:	8b 45 f0             	mov    -0x10(%rbp),%eax
    f47d:	48 63 d0             	movslq %eax,%rdx
    f480:	48 89 d0             	mov    %rdx,%rax
    f483:	48 01 c0             	add    %rax,%rax
    f486:	48 01 d0             	add    %rdx,%rax
    f489:	48 01 c8             	add    %rcx,%rax
    f48c:	48 8d 14 85 00 00 00 	lea    0x0(,%rax,4),%rdx
    f493:	00 
    f494:	48 8d 05 c5 3f 00 00 	lea    0x3fc5(%rip),%rax        # 13460 <g_1020>
    f49b:	0f b6 04 02          	movzbl (%rdx,%rax,1),%eax
    f49f:	48 0f be c0          	movsbq %al,%rax
    f4a3:	8b 55 fc             	mov    -0x4(%rbp),%edx
    f4a6:	48 8d 35 9e 12 00 00 	lea    0x129e(%rip),%rsi        # 1074b <g_824+0x6f3>
    f4ad:	48 89 c7             	mov    %rax,%rdi
    f4b0:	e8 3e 72 ff ff       	callq  66f3 <transparent_crc>
    f4b5:	8b 45 f4             	mov    -0xc(%rbp),%eax
    f4b8:	48 63 c8             	movslq %eax,%rcx
    f4bb:	8b 45 f0             	mov    -0x10(%rbp),%eax
    f4be:	48 63 d0             	movslq %eax,%rdx
    f4c1:	48 89 d0             	mov    %rdx,%rax
    f4c4:	48 01 c0             	add    %rax,%rax
    f4c7:	48 01 d0             	add    %rdx,%rax
    f4ca:	48 01 c8             	add    %rcx,%rax
    f4cd:	48 8d 14 85 00 00 00 	lea    0x0(,%rax,4),%rdx
    f4d4:	00 
    f4d5:	48 8d 05 84 3f 00 00 	lea    0x3f84(%rip),%rax        # 13460 <g_1020>
    f4dc:	0f b6 04 02          	movzbl (%rdx,%rax,1),%eax
    f4e0:	0f b6 c0             	movzbl %al,%eax
    f4e3:	8b 55 fc             	mov    -0x4(%rbp),%edx
    f4e6:	48 8d 35 6e 12 00 00 	lea    0x126e(%rip),%rsi        # 1075b <g_824+0x703>
    f4ed:	48 89 c7             	mov    %rax,%rdi
    f4f0:	e8 fe 71 ff ff       	callq  66f3 <transparent_crc>
    f4f5:	83 7d fc 00          	cmpl   $0x0,-0x4(%rbp)
    f4f9:	74 19                	je     f514 <main+0x7fd>
    f4fb:	8b 55 f4             	mov    -0xc(%rbp),%edx
    f4fe:	8b 45 f0             	mov    -0x10(%rbp),%eax
    f501:	89 c6                	mov    %eax,%esi
    f503:	48 8d 3d 24 11 00 00 	lea    0x1124(%rip),%rdi        # 1062e <g_824+0x5d6>
    f50a:	b8 00 00 00 00       	mov    $0x0,%eax
    f50f:	e8 6c 5b ff ff       	callq  5080 <printf@plt>
    f514:	83 45 f4 01          	addl   $0x1,-0xc(%rbp)
    f518:	83 7d f4 02          	cmpl   $0x2,-0xc(%rbp)
    f51c:	0f 8e 52 ff ff ff    	jle    f474 <main+0x75d>
    f522:	83 45 f0 01          	addl   $0x1,-0x10(%rbp)
    f526:	83 7d f0 05          	cmpl   $0x5,-0x10(%rbp)
    f52a:	0f 8e 38 ff ff ff    	jle    f468 <main+0x751>
    f530:	0f b6 05 71 3f 00 00 	movzbl 0x3f71(%rip),%eax        # 134a8 <g_1047>
    f537:	48 0f be c0          	movsbq %al,%rax
    f53b:	8b 55 fc             	mov    -0x4(%rbp),%edx
    f53e:	48 8d 35 26 12 00 00 	lea    0x1226(%rip),%rsi        # 1076b <g_824+0x713>
    f545:	48 89 c7             	mov    %rax,%rdi
    f548:	e8 a6 71 ff ff       	callq  66f3 <transparent_crc>
    f54d:	0f b6 05 54 3f 00 00 	movzbl 0x3f54(%rip),%eax        # 134a8 <g_1047>
    f554:	0f b6 c0             	movzbl %al,%eax
    f557:	8b 55 fc             	mov    -0x4(%rbp),%edx
    f55a:	48 8d 35 14 12 00 00 	lea    0x1214(%rip),%rsi        # 10775 <g_824+0x71d>
    f561:	48 89 c7             	mov    %rax,%rdi
    f564:	e8 8a 71 ff ff       	callq  66f3 <transparent_crc>
    f569:	0f b6 05 3c 3f 00 00 	movzbl 0x3f3c(%rip),%eax        # 134ac <g_1056>
    f570:	48 0f be c0          	movsbq %al,%rax
    f574:	8b 55 fc             	mov    -0x4(%rbp),%edx
    f577:	48 8d 35 01 12 00 00 	lea    0x1201(%rip),%rsi        # 1077f <g_824+0x727>
    f57e:	48 89 c7             	mov    %rax,%rdi
    f581:	e8 6d 71 ff ff       	callq  66f3 <transparent_crc>
    f586:	0f b6 05 1f 3f 00 00 	movzbl 0x3f1f(%rip),%eax        # 134ac <g_1056>
    f58d:	0f b6 c0             	movzbl %al,%eax
    f590:	8b 55 fc             	mov    -0x4(%rbp),%edx
    f593:	48 8d 35 ef 11 00 00 	lea    0x11ef(%rip),%rsi        # 10789 <g_824+0x731>
    f59a:	48 89 c7             	mov    %rax,%rdi
    f59d:	e8 51 71 ff ff       	callq  66f3 <transparent_crc>
    f5a2:	0f b6 05 07 3f 00 00 	movzbl 0x3f07(%rip),%eax        # 134b0 <g_1073>
    f5a9:	48 0f be c0          	movsbq %al,%rax
    f5ad:	8b 55 fc             	mov    -0x4(%rbp),%edx
    f5b0:	48 8d 35 dc 11 00 00 	lea    0x11dc(%rip),%rsi        # 10793 <g_824+0x73b>
    f5b7:	48 89 c7             	mov    %rax,%rdi
    f5ba:	e8 34 71 ff ff       	callq  66f3 <transparent_crc>
    f5bf:	0f b6 05 ea 3e 00 00 	movzbl 0x3eea(%rip),%eax        # 134b0 <g_1073>
    f5c6:	0f b6 c0             	movzbl %al,%eax
    f5c9:	8b 55 fc             	mov    -0x4(%rbp),%edx
    f5cc:	48 8d 35 ca 11 00 00 	lea    0x11ca(%rip),%rsi        # 1079d <g_824+0x745>
    f5d3:	48 89 c7             	mov    %rax,%rdi
    f5d6:	e8 18 71 ff ff       	callq  66f3 <transparent_crc>
    f5db:	8b 05 d3 3e 00 00    	mov    0x3ed3(%rip),%eax        # 134b4 <g_1100>
    f5e1:	89 c1                	mov    %eax,%ecx
    f5e3:	8b 45 fc             	mov    -0x4(%rbp),%eax
    f5e6:	89 c2                	mov    %eax,%edx
    f5e8:	48 8d 35 b8 11 00 00 	lea    0x11b8(%rip),%rsi        # 107a7 <g_824+0x74f>
    f5ef:	48 89 cf             	mov    %rcx,%rdi
    f5f2:	e8 fc 70 ff ff       	callq  66f3 <transparent_crc>
    f5f7:	0f b6 05 ba 3e 00 00 	movzbl 0x3eba(%rip),%eax        # 134b8 <g_1110>
    f5fe:	48 0f be c0          	movsbq %al,%rax
    f602:	8b 55 fc             	mov    -0x4(%rbp),%edx
    f605:	48 8d 35 a2 11 00 00 	lea    0x11a2(%rip),%rsi        # 107ae <g_824+0x756>
    f60c:	48 89 c7             	mov    %rax,%rdi
    f60f:	e8 df 70 ff ff       	callq  66f3 <transparent_crc>
    f614:	0f b6 05 9d 3e 00 00 	movzbl 0x3e9d(%rip),%eax        # 134b8 <g_1110>
    f61b:	0f b6 c0             	movzbl %al,%eax
    f61e:	8b 55 fc             	mov    -0x4(%rbp),%edx
    f621:	48 8d 35 90 11 00 00 	lea    0x1190(%rip),%rsi        # 107b8 <g_824+0x760>
    f628:	48 89 c7             	mov    %rax,%rdi
    f62b:	e8 c3 70 ff ff       	callq  66f3 <transparent_crc>
    f630:	48 8b 05 89 3e 00 00 	mov    0x3e89(%rip),%rax        # 134c0 <g_1170>
    f637:	8b 55 fc             	mov    -0x4(%rbp),%edx
    f63a:	48 8d 35 81 11 00 00 	lea    0x1181(%rip),%rsi        # 107c2 <g_824+0x76a>
    f641:	48 89 c7             	mov    %rax,%rdi
    f644:	e8 aa 70 ff ff       	callq  66f3 <transparent_crc>
    f649:	0f b6 05 78 3e 00 00 	movzbl 0x3e78(%rip),%eax        # 134c8 <g_1189>
    f650:	48 0f be c0          	movsbq %al,%rax
    f654:	8b 55 fc             	mov    -0x4(%rbp),%edx
    f657:	48 8d 35 6b 11 00 00 	lea    0x116b(%rip),%rsi        # 107c9 <g_824+0x771>
    f65e:	48 89 c7             	mov    %rax,%rdi
    f661:	e8 8d 70 ff ff       	callq  66f3 <transparent_crc>
    f666:	0f b6 05 5b 3e 00 00 	movzbl 0x3e5b(%rip),%eax        # 134c8 <g_1189>
    f66d:	0f b6 c0             	movzbl %al,%eax
    f670:	8b 55 fc             	mov    -0x4(%rbp),%edx
    f673:	48 8d 35 59 11 00 00 	lea    0x1159(%rip),%rsi        # 107d3 <g_824+0x77b>
    f67a:	48 89 c7             	mov    %rax,%rdi
    f67d:	e8 71 70 ff ff       	callq  66f3 <transparent_crc>
    f682:	0f b7 05 3f 60 00 00 	movzwl 0x603f(%rip),%eax        # 156c8 <g_1205>
    f689:	0f b7 c0             	movzwl %ax,%eax
    f68c:	8b 55 fc             	mov    -0x4(%rbp),%edx
    f68f:	48 8d 35 47 11 00 00 	lea    0x1147(%rip),%rsi        # 107dd <g_824+0x785>
    f696:	48 89 c7             	mov    %rax,%rdi
    f699:	e8 55 70 ff ff       	callq  66f3 <transparent_crc>
    f69e:	0f b6 05 27 3e 00 00 	movzbl 0x3e27(%rip),%eax        # 134cc <g_1244>
    f6a5:	48 0f be c0          	movsbq %al,%rax
    f6a9:	8b 55 fc             	mov    -0x4(%rbp),%edx
    f6ac:	48 8d 35 31 11 00 00 	lea    0x1131(%rip),%rsi        # 107e4 <g_824+0x78c>
    f6b3:	48 89 c7             	mov    %rax,%rdi
    f6b6:	e8 38 70 ff ff       	callq  66f3 <transparent_crc>
    f6bb:	0f b6 05 0a 3e 00 00 	movzbl 0x3e0a(%rip),%eax        # 134cc <g_1244>
    f6c2:	0f b6 c0             	movzbl %al,%eax
    f6c5:	8b 55 fc             	mov    -0x4(%rbp),%edx
    f6c8:	48 8d 35 1f 11 00 00 	lea    0x111f(%rip),%rsi        # 107ee <g_824+0x796>
    f6cf:	48 89 c7             	mov    %rax,%rdi
    f6d2:	e8 1c 70 ff ff       	callq  66f3 <transparent_crc>
    f6d7:	8b 05 f3 3d 00 00    	mov    0x3df3(%rip),%eax        # 134d0 <g_1269>
    f6dd:	89 c1                	mov    %eax,%ecx
    f6df:	8b 45 fc             	mov    -0x4(%rbp),%eax
    f6e2:	89 c2                	mov    %eax,%edx
    f6e4:	48 8d 35 0d 11 00 00 	lea    0x110d(%rip),%rsi        # 107f8 <g_824+0x7a0>
    f6eb:	48 89 cf             	mov    %rcx,%rdi
    f6ee:	e8 00 70 ff ff       	callq  66f3 <transparent_crc>
    f6f3:	0f b6 05 da 3d 00 00 	movzbl 0x3dda(%rip),%eax        # 134d4 <g_1358>
    f6fa:	48 0f be c0          	movsbq %al,%rax
    f6fe:	8b 55 fc             	mov    -0x4(%rbp),%edx
    f701:	48 8d 35 f7 10 00 00 	lea    0x10f7(%rip),%rsi        # 107ff <g_824+0x7a7>
    f708:	48 89 c7             	mov    %rax,%rdi
    f70b:	e8 e3 6f ff ff       	callq  66f3 <transparent_crc>
    f710:	0f b6 05 bd 3d 00 00 	movzbl 0x3dbd(%rip),%eax        # 134d4 <g_1358>
    f717:	0f b6 c0             	movzbl %al,%eax
    f71a:	8b 55 fc             	mov    -0x4(%rbp),%edx
    f71d:	48 8d 35 e5 10 00 00 	lea    0x10e5(%rip),%rsi        # 10809 <g_824+0x7b1>
    f724:	48 89 c7             	mov    %rax,%rdi
    f727:	e8 c7 6f ff ff       	callq  66f3 <transparent_crc>
    f72c:	0f b6 05 a5 3d 00 00 	movzbl 0x3da5(%rip),%eax        # 134d8 <g_1377>
    f733:	48 0f be c0          	movsbq %al,%rax
    f737:	8b 55 fc             	mov    -0x4(%rbp),%edx
    f73a:	48 8d 35 d2 10 00 00 	lea    0x10d2(%rip),%rsi        # 10813 <g_824+0x7bb>
    f741:	48 89 c7             	mov    %rax,%rdi
    f744:	e8 aa 6f ff ff       	callq  66f3 <transparent_crc>
    f749:	0f b6 05 88 3d 00 00 	movzbl 0x3d88(%rip),%eax        # 134d8 <g_1377>
    f750:	0f b6 c0             	movzbl %al,%eax
    f753:	8b 55 fc             	mov    -0x4(%rbp),%edx
    f756:	48 8d 35 c0 10 00 00 	lea    0x10c0(%rip),%rsi        # 1081d <g_824+0x7c5>
    f75d:	48 89 c7             	mov    %rax,%rdi
    f760:	e8 8e 6f ff ff       	callq  66f3 <transparent_crc>
    f765:	0f b6 05 70 3d 00 00 	movzbl 0x3d70(%rip),%eax        # 134dc <g_1409>
    f76c:	0f b6 c0             	movzbl %al,%eax
    f76f:	8b 55 fc             	mov    -0x4(%rbp),%edx
    f772:	48 8d 35 ae 10 00 00 	lea    0x10ae(%rip),%rsi        # 10827 <g_824+0x7cf>
    f779:	48 89 c7             	mov    %rax,%rdi
    f77c:	e8 72 6f ff ff       	callq  66f3 <transparent_crc>
    f781:	0f b6 05 55 3d 00 00 	movzbl 0x3d55(%rip),%eax        # 134dd <g_1418>
    f788:	0f b6 c0             	movzbl %al,%eax
    f78b:	8b 55 fc             	mov    -0x4(%rbp),%edx
    f78e:	48 8d 35 99 10 00 00 	lea    0x1099(%rip),%rsi        # 1082e <g_824+0x7d6>
    f795:	48 89 c7             	mov    %rax,%rdi
    f798:	e8 56 6f ff ff       	callq  66f3 <transparent_crc>
    f79d:	0f b6 05 3c 3d 00 00 	movzbl 0x3d3c(%rip),%eax        # 134e0 <g_1435>
    f7a4:	48 0f be c0          	movsbq %al,%rax
    f7a8:	8b 55 fc             	mov    -0x4(%rbp),%edx
    f7ab:	48 8d 35 83 10 00 00 	lea    0x1083(%rip),%rsi        # 10835 <g_824+0x7dd>
    f7b2:	48 89 c7             	mov    %rax,%rdi
    f7b5:	e8 39 6f ff ff       	callq  66f3 <transparent_crc>
    f7ba:	0f b6 05 1f 3d 00 00 	movzbl 0x3d1f(%rip),%eax        # 134e0 <g_1435>
    f7c1:	0f b6 c0             	movzbl %al,%eax
    f7c4:	8b 55 fc             	mov    -0x4(%rbp),%edx
    f7c7:	48 8d 35 71 10 00 00 	lea    0x1071(%rip),%rsi        # 1083f <g_824+0x7e7>
    f7ce:	48 89 c7             	mov    %rax,%rdi
    f7d1:	e8 1d 6f ff ff       	callq  66f3 <transparent_crc>
    f7d6:	0f b6 05 07 3d 00 00 	movzbl 0x3d07(%rip),%eax        # 134e4 <g_1451>
    f7dd:	48 0f be c0          	movsbq %al,%rax
    f7e1:	8b 55 fc             	mov    -0x4(%rbp),%edx
    f7e4:	48 8d 35 5e 10 00 00 	lea    0x105e(%rip),%rsi        # 10849 <g_824+0x7f1>
    f7eb:	48 89 c7             	mov    %rax,%rdi
    f7ee:	e8 00 6f ff ff       	callq  66f3 <transparent_crc>
    f7f3:	0f b6 05 ea 3c 00 00 	movzbl 0x3cea(%rip),%eax        # 134e4 <g_1451>
    f7fa:	0f b6 c0             	movzbl %al,%eax
    f7fd:	8b 55 fc             	mov    -0x4(%rbp),%edx
    f800:	48 8d 35 4c 10 00 00 	lea    0x104c(%rip),%rsi        # 10853 <g_824+0x7fb>
    f807:	48 89 c7             	mov    %rax,%rdi
    f80a:	e8 e4 6e ff ff       	callq  66f3 <transparent_crc>
    f80f:	0f b6 05 d2 3c 00 00 	movzbl 0x3cd2(%rip),%eax        # 134e8 <g_1508>
    f816:	48 0f be c0          	movsbq %al,%rax
    f81a:	8b 55 fc             	mov    -0x4(%rbp),%edx
    f81d:	48 8d 35 39 10 00 00 	lea    0x1039(%rip),%rsi        # 1085d <g_824+0x805>
    f824:	48 89 c7             	mov    %rax,%rdi
    f827:	e8 c7 6e ff ff       	callq  66f3 <transparent_crc>
    f82c:	0f b6 05 b5 3c 00 00 	movzbl 0x3cb5(%rip),%eax        # 134e8 <g_1508>
    f833:	0f b6 c0             	movzbl %al,%eax
    f836:	8b 55 fc             	mov    -0x4(%rbp),%edx
    f839:	48 8d 35 27 10 00 00 	lea    0x1027(%rip),%rsi        # 10867 <g_824+0x80f>
    f840:	48 89 c7             	mov    %rax,%rdi
    f843:	e8 ab 6e ff ff       	callq  66f3 <transparent_crc>
    f848:	8b 05 9e 3c 00 00    	mov    0x3c9e(%rip),%eax        # 134ec <g_1528>
    f84e:	89 c1                	mov    %eax,%ecx
    f850:	8b 45 fc             	mov    -0x4(%rbp),%eax
    f853:	89 c2                	mov    %eax,%edx
    f855:	48 8d 35 15 10 00 00 	lea    0x1015(%rip),%rsi        # 10871 <g_824+0x819>
    f85c:	48 89 cf             	mov    %rcx,%rdi
    f85f:	e8 8f 6e ff ff       	callq  66f3 <transparent_crc>
    f864:	8b 05 8e 5e 00 00    	mov    0x5e8e(%rip),%eax        # 156f8 <g_1587>
    f86a:	89 c1                	mov    %eax,%ecx
    f86c:	8b 45 fc             	mov    -0x4(%rbp),%eax
    f86f:	89 c2                	mov    %eax,%edx
    f871:	48 8d 35 00 10 00 00 	lea    0x1000(%rip),%rsi        # 10878 <g_824+0x820>
    f878:	48 89 cf             	mov    %rcx,%rdi
    f87b:	e8 73 6e ff ff       	callq  66f3 <transparent_crc>
    f880:	0f b6 05 75 5e 00 00 	movzbl 0x5e75(%rip),%eax        # 156fc <g_1635>
    f887:	48 0f be c0          	movsbq %al,%rax
    f88b:	8b 55 fc             	mov    -0x4(%rbp),%edx
    f88e:	48 8d 35 ea 0f 00 00 	lea    0xfea(%rip),%rsi        # 1087f <g_824+0x827>
    f895:	48 89 c7             	mov    %rax,%rdi
    f898:	e8 56 6e ff ff       	callq  66f3 <transparent_crc>
    f89d:	0f b6 05 58 5e 00 00 	movzbl 0x5e58(%rip),%eax        # 156fc <g_1635>
    f8a4:	0f b6 c0             	movzbl %al,%eax
    f8a7:	8b 55 fc             	mov    -0x4(%rbp),%edx
    f8aa:	48 8d 35 d8 0f 00 00 	lea    0xfd8(%rip),%rsi        # 10889 <g_824+0x831>
    f8b1:	48 89 c7             	mov    %rax,%rdi
    f8b4:	e8 3a 6e ff ff       	callq  66f3 <transparent_crc>
    f8b9:	48 8b 05 30 3c 00 00 	mov    0x3c30(%rip),%rax        # 134f0 <g_1685>
    f8c0:	48 89 c1             	mov    %rax,%rcx
    f8c3:	8b 45 fc             	mov    -0x4(%rbp),%eax
    f8c6:	89 c2                	mov    %eax,%edx
    f8c8:	48 8d 35 c4 0f 00 00 	lea    0xfc4(%rip),%rsi        # 10893 <g_824+0x83b>
    f8cf:	48 89 cf             	mov    %rcx,%rdi
    f8d2:	e8 1c 6e ff ff       	callq  66f3 <transparent_crc>
    f8d7:	c7 45 f0 00 00 00 00 	movl   $0x0,-0x10(%rbp)
    f8de:	eb 7b                	jmp    f95b <main+0xc44>
    f8e0:	8b 45 f0             	mov    -0x10(%rbp),%eax
    f8e3:	48 98                	cltq   
    f8e5:	48 8d 14 85 00 00 00 	lea    0x0(,%rax,4),%rdx
    f8ec:	00 
    f8ed:	48 8d 05 04 3c 00 00 	lea    0x3c04(%rip),%rax        # 134f8 <g_1735>
    f8f4:	0f b6 04 02          	movzbl (%rdx,%rax,1),%eax
    f8f8:	48 0f be c0          	movsbq %al,%rax
    f8fc:	8b 55 fc             	mov    -0x4(%rbp),%edx
    f8ff:	48 8d 35 94 0f 00 00 	lea    0xf94(%rip),%rsi        # 1089a <g_824+0x842>
    f906:	48 89 c7             	mov    %rax,%rdi
    f909:	e8 e5 6d ff ff       	callq  66f3 <transparent_crc>
    f90e:	8b 45 f0             	mov    -0x10(%rbp),%eax
    f911:	48 98                	cltq   
    f913:	48 8d 14 85 00 00 00 	lea    0x0(,%rax,4),%rdx
    f91a:	00 
    f91b:	48 8d 05 d6 3b 00 00 	lea    0x3bd6(%rip),%rax        # 134f8 <g_1735>
    f922:	0f b6 04 02          	movzbl (%rdx,%rax,1),%eax
    f926:	0f b6 c0             	movzbl %al,%eax
    f929:	8b 55 fc             	mov    -0x4(%rbp),%edx
    f92c:	48 8d 35 74 0f 00 00 	lea    0xf74(%rip),%rsi        # 108a7 <g_824+0x84f>
    f933:	48 89 c7             	mov    %rax,%rdi
    f936:	e8 b8 6d ff ff       	callq  66f3 <transparent_crc>
    f93b:	83 7d fc 00          	cmpl   $0x0,-0x4(%rbp)
    f93f:	74 16                	je     f957 <main+0xc40>
    f941:	8b 45 f0             	mov    -0x10(%rbp),%eax
    f944:	89 c6                	mov    %eax,%esi
    f946:	48 8d 3d ea 0d 00 00 	lea    0xdea(%rip),%rdi        # 10737 <g_824+0x6df>
    f94d:	b8 00 00 00 00       	mov    $0x0,%eax
    f952:	e8 29 57 ff ff       	callq  5080 <printf@plt>
    f957:	83 45 f0 01          	addl   $0x1,-0x10(%rbp)
    f95b:	83 7d f0 00          	cmpl   $0x0,-0x10(%rbp)
    f95f:	0f 8e 7b ff ff ff    	jle    f8e0 <main+0xbc9>
    f965:	8b 05 91 3b 00 00    	mov    0x3b91(%rip),%eax        # 134fc <g_1827>
    f96b:	89 c1                	mov    %eax,%ecx
    f96d:	8b 45 fc             	mov    -0x4(%rbp),%eax
    f970:	89 c2                	mov    %eax,%edx
    f972:	48 8d 35 3b 0f 00 00 	lea    0xf3b(%rip),%rsi        # 108b4 <g_824+0x85c>
    f979:	48 89 cf             	mov    %rcx,%rdi
    f97c:	e8 72 6d ff ff       	callq  66f3 <transparent_crc>
    f981:	8b 05 99 36 00 00    	mov    0x3699(%rip),%eax        # 13020 <crc32_context>
    f987:	f7 d0                	not    %eax
    f989:	89 c2                	mov    %eax,%edx
    f98b:	8b 45 fc             	mov    -0x4(%rbp),%eax
    f98e:	89 c6                	mov    %eax,%esi
    f990:	89 d7                	mov    %edx,%edi
    f992:	e8 fd 57 ff ff       	callq  5194 <platform_main_end>
    f997:	b8 00 00 00 00       	mov    $0x0,%eax
    f99c:	c9                   	leaveq 
    f99d:	c3                   	retq   
    f99e:	66 90                	xchg   %ax,%ax

000000000000f9a0 <__libc_csu_init>:
    f9a0:	f3 0f 1e fa          	endbr64 
    f9a4:	41 57                	push   %r15
    f9a6:	4c 8d 3d d3 33 00 00 	lea    0x33d3(%rip),%r15        # 12d80 <__frame_dummy_init_array_entry>
    f9ad:	41 56                	push   %r14
    f9af:	49 89 d6             	mov    %rdx,%r14
    f9b2:	41 55                	push   %r13
    f9b4:	49 89 f5             	mov    %rsi,%r13
    f9b7:	41 54                	push   %r12
    f9b9:	41 89 fc             	mov    %edi,%r12d
    f9bc:	55                   	push   %rbp
    f9bd:	48 8d 2d c4 33 00 00 	lea    0x33c4(%rip),%rbp        # 12d88 <__do_global_dtors_aux_fini_array_entry>
    f9c4:	53                   	push   %rbx
    f9c5:	4c 29 fd             	sub    %r15,%rbp
    f9c8:	48 83 ec 08          	sub    $0x8,%rsp
    f9cc:	e8 2f 56 ff ff       	callq  5000 <_init>
    f9d1:	48 c1 fd 03          	sar    $0x3,%rbp
    f9d5:	74 1f                	je     f9f6 <__libc_csu_init+0x56>
    f9d7:	31 db                	xor    %ebx,%ebx
    f9d9:	0f 1f 80 00 00 00 00 	nopl   0x0(%rax)
    f9e0:	4c 89 f2             	mov    %r14,%rdx
    f9e3:	4c 89 ee             	mov    %r13,%rsi
    f9e6:	44 89 e7             	mov    %r12d,%edi
    f9e9:	41 ff 14 df          	callq  *(%r15,%rbx,8)
    f9ed:	48 83 c3 01          	add    $0x1,%rbx
    f9f1:	48 39 dd             	cmp    %rbx,%rbp
    f9f4:	75 ea                	jne    f9e0 <__libc_csu_init+0x40>
    f9f6:	48 83 c4 08          	add    $0x8,%rsp
    f9fa:	5b                   	pop    %rbx
    f9fb:	5d                   	pop    %rbp
    f9fc:	41 5c                	pop    %r12
    f9fe:	41 5d                	pop    %r13
    fa00:	41 5e                	pop    %r14
    fa02:	41 5f                	pop    %r15
    fa04:	c3                   	retq   
    fa05:	66 66 2e 0f 1f 84 00 	data16 nopw %cs:0x0(%rax,%rax,1)
    fa0c:	00 00 00 00 

000000000000fa10 <__libc_csu_fini>:
    fa10:	f3 0f 1e fa          	endbr64 
    fa14:	c3                   	retq   
