


Disassembly of section .text:

00000000000030a0 <_start>:
    30a0:	f3 0f 1e fa          	endbr64 
    30a4:	31 ed                	xor    %ebp,%ebp
    30a6:	49 89 d1             	mov    %rdx,%r9
    30a9:	5e                   	pop    %rsi
    30aa:	48 89 e2             	mov    %rsp,%rdx
    30ad:	48 83 e4 f0          	and    $0xfffffffffffffff0,%rsp
    30b1:	50                   	push   %rax
    30b2:	54                   	push   %rsp
    30b3:	4c 8d 05 16 83 00 00 	lea    0x8316(%rip),%r8        # b3d0 <__libc_csu_fini>
    30ba:	48 8d 0d 9f 82 00 00 	lea    0x829f(%rip),%rcx        # b360 <__libc_csu_init>
    30c1:	48 8d 3d 0a 7d 00 00 	lea    0x7d0a(%rip),%rdi        # add2 <main>
    30c8:	ff 15 fa de 00 00    	callq  *0xdefa(%rip)        # 10fc8 <__libc_start_main@GLIBC_2.2.5>
    30ce:	f4                   	hlt    
    30cf:	90                   	nop

00000000000030d0 <deregister_tm_clones>:
    30d0:	48 8d 3d 39 f0 00 00 	lea    0xf039(%rip),%rdi        # 12110 <__TMC_END__>
    30d7:	48 8d 05 32 f0 00 00 	lea    0xf032(%rip),%rax        # 12110 <__TMC_END__>
    30de:	48 39 f8             	cmp    %rdi,%rax
    30e1:	74 15                	je     30f8 <deregister_tm_clones+0x28>
    30e3:	48 8b 05 d6 de 00 00 	mov    0xded6(%rip),%rax        # 10fc0 <_ITM_deregisterTMCloneTable>
    30ea:	48 85 c0             	test   %rax,%rax
    30ed:	74 09                	je     30f8 <deregister_tm_clones+0x28>
    30ef:	ff e0                	jmpq   *%rax
    30f1:	0f 1f 80 00 00 00 00 	nopl   0x0(%rax)
    30f8:	c3                   	retq   
    30f9:	0f 1f 80 00 00 00 00 	nopl   0x0(%rax)

0000000000003100 <register_tm_clones>:
    3100:	48 8d 3d 09 f0 00 00 	lea    0xf009(%rip),%rdi        # 12110 <__TMC_END__>
    3107:	48 8d 35 02 f0 00 00 	lea    0xf002(%rip),%rsi        # 12110 <__TMC_END__>
    310e:	48 29 fe             	sub    %rdi,%rsi
    3111:	48 89 f0             	mov    %rsi,%rax
    3114:	48 c1 ee 3f          	shr    $0x3f,%rsi
    3118:	48 c1 f8 03          	sar    $0x3,%rax
    311c:	48 01 c6             	add    %rax,%rsi
    311f:	48 d1 fe             	sar    %rsi
    3122:	74 14                	je     3138 <register_tm_clones+0x38>
    3124:	48 8b 05 ad de 00 00 	mov    0xdead(%rip),%rax        # 10fd8 <_ITM_registerTMCloneTable>
    312b:	48 85 c0             	test   %rax,%rax
    312e:	74 08                	je     3138 <register_tm_clones+0x38>
    3130:	ff e0                	jmpq   *%rax
    3132:	66 0f 1f 44 00 00    	nopw   0x0(%rax,%rax,1)
    3138:	c3                   	retq   
    3139:	0f 1f 80 00 00 00 00 	nopl   0x0(%rax)

0000000000003140 <__do_global_dtors_aux>:
    3140:	f3 0f 1e fa          	endbr64 
    3144:	80 3d d5 ef 00 00 00 	cmpb   $0x0,0xefd5(%rip)        # 12120 <completed.8061>
    314b:	75 2b                	jne    3178 <__do_global_dtors_aux+0x38>
    314d:	55                   	push   %rbp
    314e:	48 83 3d 8a de 00 00 	cmpq   $0x0,0xde8a(%rip)        # 10fe0 <__cxa_finalize@GLIBC_2.2.5>
    3155:	00 
    3156:	48 89 e5             	mov    %rsp,%rbp
    3159:	74 0c                	je     3167 <__do_global_dtors_aux+0x27>
    315b:	48 8b 3d a6 de 00 00 	mov    0xdea6(%rip),%rdi        # 11008 <__dso_handle>
    3162:	e8 f9 fe ff ff       	callq  3060 <__cxa_finalize@plt>
    3167:	e8 64 ff ff ff       	callq  30d0 <deregister_tm_clones>
    316c:	c6 05 ad ef 00 00 01 	movb   $0x1,0xefad(%rip)        # 12120 <completed.8061>
    3173:	5d                   	pop    %rbp
    3174:	c3                   	retq   
    3175:	0f 1f 00             	nopl   (%rax)
    3178:	c3                   	retq   
    3179:	0f 1f 80 00 00 00 00 	nopl   0x0(%rax)

0000000000003180 <frame_dummy>:
    3180:	f3 0f 1e fa          	endbr64 
    3184:	e9 77 ff ff ff       	jmpq   3100 <register_tm_clones>

0000000000003189 <platform_main_begin>:
    3189:	f3 0f 1e fa          	endbr64 
    318d:	55                   	push   %rbp
    318e:	48 89 e5             	mov    %rsp,%rbp
    3191:	90                   	nop
    3192:	5d                   	pop    %rbp
    3193:	c3                   	retq   

0000000000003194 <platform_main_end>:
    3194:	f3 0f 1e fa          	endbr64 
    3198:	55                   	push   %rbp
    3199:	48 89 e5             	mov    %rsp,%rbp
    319c:	48 83 ec 10          	sub    $0x10,%rsp
    31a0:	89 7d fc             	mov    %edi,-0x4(%rbp)
    31a3:	89 75 f8             	mov    %esi,-0x8(%rbp)
    31a6:	8b 45 fc             	mov    -0x4(%rbp),%eax
    31a9:	89 c6                	mov    %eax,%esi
    31ab:	48 8d 3d 6e 8e 00 00 	lea    0x8e6e(%rip),%rdi        # c020 <_IO_stdin_used+0x20>
    31b2:	b8 00 00 00 00       	mov    $0x0,%eax
    31b7:	e8 c4 fe ff ff       	callq  3080 <printf@plt>
    31bc:	90                   	nop
    31bd:	c9                   	leaveq 
    31be:	c3                   	retq   

00000000000031bf <safe_unary_minus_func_int8_t_s>:
    31bf:	f3 0f 1e fa          	endbr64 
    31c3:	55                   	push   %rbp
    31c4:	48 89 e5             	mov    %rsp,%rbp
    31c7:	89 f8                	mov    %edi,%eax
    31c9:	88 45 fc             	mov    %al,-0x4(%rbp)
    31cc:	0f b6 45 fc          	movzbl -0x4(%rbp),%eax
    31d0:	f7 d8                	neg    %eax
    31d2:	5d                   	pop    %rbp
    31d3:	c3                   	retq   

00000000000031d4 <safe_add_func_int8_t_s_s>:
    31d4:	f3 0f 1e fa          	endbr64 
    31d8:	55                   	push   %rbp
    31d9:	48 89 e5             	mov    %rsp,%rbp
    31dc:	89 fa                	mov    %edi,%edx
    31de:	89 f0                	mov    %esi,%eax
    31e0:	88 55 fc             	mov    %dl,-0x4(%rbp)
    31e3:	88 45 f8             	mov    %al,-0x8(%rbp)
    31e6:	0f b6 55 fc          	movzbl -0x4(%rbp),%edx
    31ea:	0f b6 45 f8          	movzbl -0x8(%rbp),%eax
    31ee:	01 d0                	add    %edx,%eax
    31f0:	5d                   	pop    %rbp
    31f1:	c3                   	retq   

00000000000031f2 <safe_sub_func_int8_t_s_s>:
    31f2:	f3 0f 1e fa          	endbr64 
    31f6:	55                   	push   %rbp
    31f7:	48 89 e5             	mov    %rsp,%rbp
    31fa:	89 fa                	mov    %edi,%edx
    31fc:	89 f0                	mov    %esi,%eax
    31fe:	88 55 fc             	mov    %dl,-0x4(%rbp)
    3201:	88 45 f8             	mov    %al,-0x8(%rbp)
    3204:	0f b6 55 fc          	movzbl -0x4(%rbp),%edx
    3208:	0f b6 45 f8          	movzbl -0x8(%rbp),%eax
    320c:	29 c2                	sub    %eax,%edx
    320e:	89 d0                	mov    %edx,%eax
    3210:	5d                   	pop    %rbp
    3211:	c3                   	retq   

0000000000003212 <safe_mul_func_int8_t_s_s>:
    3212:	f3 0f 1e fa          	endbr64 
    3216:	55                   	push   %rbp
    3217:	48 89 e5             	mov    %rsp,%rbp
    321a:	89 fa                	mov    %edi,%edx
    321c:	89 f0                	mov    %esi,%eax
    321e:	88 55 fc             	mov    %dl,-0x4(%rbp)
    3221:	88 45 f8             	mov    %al,-0x8(%rbp)
    3224:	0f b6 45 fc          	movzbl -0x4(%rbp),%eax
    3228:	0f b6 55 f8          	movzbl -0x8(%rbp),%edx
    322c:	0f af c2             	imul   %edx,%eax
    322f:	5d                   	pop    %rbp
    3230:	c3                   	retq   

0000000000003231 <safe_mod_func_int8_t_s_s>:
    3231:	f3 0f 1e fa          	endbr64 
    3235:	55                   	push   %rbp
    3236:	48 89 e5             	mov    %rsp,%rbp
    3239:	89 fa                	mov    %edi,%edx
    323b:	89 f0                	mov    %esi,%eax
    323d:	88 55 fc             	mov    %dl,-0x4(%rbp)
    3240:	88 45 f8             	mov    %al,-0x8(%rbp)
    3243:	80 7d f8 00          	cmpb   $0x0,-0x8(%rbp)
    3247:	74 1b                	je     3264 <safe_mod_func_int8_t_s_s+0x33>
    3249:	80 7d fc 80          	cmpb   $0x80,-0x4(%rbp)
    324d:	75 06                	jne    3255 <safe_mod_func_int8_t_s_s+0x24>
    324f:	80 7d f8 ff          	cmpb   $0xff,-0x8(%rbp)
    3253:	74 0f                	je     3264 <safe_mod_func_int8_t_s_s+0x33>
    3255:	0f be 45 fc          	movsbl -0x4(%rbp),%eax
    3259:	0f be 4d f8          	movsbl -0x8(%rbp),%ecx
    325d:	99                   	cltd   
    325e:	f7 f9                	idiv   %ecx
    3260:	89 d0                	mov    %edx,%eax
    3262:	eb 04                	jmp    3268 <safe_mod_func_int8_t_s_s+0x37>
    3264:	0f b6 45 fc          	movzbl -0x4(%rbp),%eax
    3268:	5d                   	pop    %rbp
    3269:	c3                   	retq   

000000000000326a <safe_div_func_int8_t_s_s>:
    326a:	f3 0f 1e fa          	endbr64 
    326e:	55                   	push   %rbp
    326f:	48 89 e5             	mov    %rsp,%rbp
    3272:	89 fa                	mov    %edi,%edx
    3274:	89 f0                	mov    %esi,%eax
    3276:	88 55 fc             	mov    %dl,-0x4(%rbp)
    3279:	88 45 f8             	mov    %al,-0x8(%rbp)
    327c:	80 7d f8 00          	cmpb   $0x0,-0x8(%rbp)
    3280:	74 19                	je     329b <safe_div_func_int8_t_s_s+0x31>
    3282:	80 7d fc 80          	cmpb   $0x80,-0x4(%rbp)
    3286:	75 06                	jne    328e <safe_div_func_int8_t_s_s+0x24>
    3288:	80 7d f8 ff          	cmpb   $0xff,-0x8(%rbp)
    328c:	74 0d                	je     329b <safe_div_func_int8_t_s_s+0x31>
    328e:	0f be 45 fc          	movsbl -0x4(%rbp),%eax
    3292:	0f be 4d f8          	movsbl -0x8(%rbp),%ecx
    3296:	99                   	cltd   
    3297:	f7 f9                	idiv   %ecx
    3299:	eb 04                	jmp    329f <safe_div_func_int8_t_s_s+0x35>
    329b:	0f b6 45 fc          	movzbl -0x4(%rbp),%eax
    329f:	5d                   	pop    %rbp
    32a0:	c3                   	retq   

00000000000032a1 <safe_lshift_func_int8_t_s_s>:
    32a1:	f3 0f 1e fa          	endbr64 
    32a5:	55                   	push   %rbp
    32a6:	48 89 e5             	mov    %rsp,%rbp
    32a9:	89 f8                	mov    %edi,%eax
    32ab:	89 75 f8             	mov    %esi,-0x8(%rbp)
    32ae:	88 45 fc             	mov    %al,-0x4(%rbp)
    32b1:	80 7d fc 00          	cmpb   $0x0,-0x4(%rbp)
    32b5:	78 31                	js     32e8 <safe_lshift_func_int8_t_s_s+0x47>
    32b7:	83 7d f8 00          	cmpl   $0x0,-0x8(%rbp)
    32bb:	78 2b                	js     32e8 <safe_lshift_func_int8_t_s_s+0x47>
    32bd:	83 7d f8 1f          	cmpl   $0x1f,-0x8(%rbp)
    32c1:	7f 25                	jg     32e8 <safe_lshift_func_int8_t_s_s+0x47>
    32c3:	0f be 55 fc          	movsbl -0x4(%rbp),%edx
    32c7:	8b 45 f8             	mov    -0x8(%rbp),%eax
    32ca:	be 7f 00 00 00       	mov    $0x7f,%esi
    32cf:	89 c1                	mov    %eax,%ecx
    32d1:	d3 fe                	sar    %cl,%esi
    32d3:	89 f0                	mov    %esi,%eax
    32d5:	39 c2                	cmp    %eax,%edx
    32d7:	7f 0f                	jg     32e8 <safe_lshift_func_int8_t_s_s+0x47>
    32d9:	0f be 55 fc          	movsbl -0x4(%rbp),%edx
    32dd:	8b 45 f8             	mov    -0x8(%rbp),%eax
    32e0:	89 c1                	mov    %eax,%ecx
    32e2:	d3 e2                	shl    %cl,%edx
    32e4:	89 d0                	mov    %edx,%eax
    32e6:	eb 04                	jmp    32ec <safe_lshift_func_int8_t_s_s+0x4b>
    32e8:	0f b6 45 fc          	movzbl -0x4(%rbp),%eax
    32ec:	5d                   	pop    %rbp
    32ed:	c3                   	retq   

00000000000032ee <safe_lshift_func_int8_t_s_u>:
    32ee:	f3 0f 1e fa          	endbr64 
    32f2:	55                   	push   %rbp
    32f3:	48 89 e5             	mov    %rsp,%rbp
    32f6:	89 f8                	mov    %edi,%eax
    32f8:	89 75 f8             	mov    %esi,-0x8(%rbp)
    32fb:	88 45 fc             	mov    %al,-0x4(%rbp)
    32fe:	80 7d fc 00          	cmpb   $0x0,-0x4(%rbp)
    3302:	78 2b                	js     332f <safe_lshift_func_int8_t_s_u+0x41>
    3304:	83 7d f8 1f          	cmpl   $0x1f,-0x8(%rbp)
    3308:	77 25                	ja     332f <safe_lshift_func_int8_t_s_u+0x41>
    330a:	0f be 55 fc          	movsbl -0x4(%rbp),%edx
    330e:	8b 45 f8             	mov    -0x8(%rbp),%eax
    3311:	be 7f 00 00 00       	mov    $0x7f,%esi
    3316:	89 c1                	mov    %eax,%ecx
    3318:	d3 fe                	sar    %cl,%esi
    331a:	89 f0                	mov    %esi,%eax
    331c:	39 c2                	cmp    %eax,%edx
    331e:	7f 0f                	jg     332f <safe_lshift_func_int8_t_s_u+0x41>
    3320:	0f be 55 fc          	movsbl -0x4(%rbp),%edx
    3324:	8b 45 f8             	mov    -0x8(%rbp),%eax
    3327:	89 c1                	mov    %eax,%ecx
    3329:	d3 e2                	shl    %cl,%edx
    332b:	89 d0                	mov    %edx,%eax
    332d:	eb 04                	jmp    3333 <safe_lshift_func_int8_t_s_u+0x45>
    332f:	0f b6 45 fc          	movzbl -0x4(%rbp),%eax
    3333:	5d                   	pop    %rbp
    3334:	c3                   	retq   

0000000000003335 <safe_rshift_func_int8_t_s_s>:
    3335:	f3 0f 1e fa          	endbr64 
    3339:	55                   	push   %rbp
    333a:	48 89 e5             	mov    %rsp,%rbp
    333d:	89 f8                	mov    %edi,%eax
    333f:	89 75 f8             	mov    %esi,-0x8(%rbp)
    3342:	88 45 fc             	mov    %al,-0x4(%rbp)
    3345:	80 7d fc 00          	cmpb   $0x0,-0x4(%rbp)
    3349:	78 1b                	js     3366 <safe_rshift_func_int8_t_s_s+0x31>
    334b:	83 7d f8 00          	cmpl   $0x0,-0x8(%rbp)
    334f:	78 15                	js     3366 <safe_rshift_func_int8_t_s_s+0x31>
    3351:	83 7d f8 1f          	cmpl   $0x1f,-0x8(%rbp)
    3355:	7f 0f                	jg     3366 <safe_rshift_func_int8_t_s_s+0x31>
    3357:	0f be 55 fc          	movsbl -0x4(%rbp),%edx
    335b:	8b 45 f8             	mov    -0x8(%rbp),%eax
    335e:	89 c1                	mov    %eax,%ecx
    3360:	d3 fa                	sar    %cl,%edx
    3362:	89 d0                	mov    %edx,%eax
    3364:	eb 04                	jmp    336a <safe_rshift_func_int8_t_s_s+0x35>
    3366:	0f b6 45 fc          	movzbl -0x4(%rbp),%eax
    336a:	5d                   	pop    %rbp
    336b:	c3                   	retq   

000000000000336c <safe_rshift_func_int8_t_s_u>:
    336c:	f3 0f 1e fa          	endbr64 
    3370:	55                   	push   %rbp
    3371:	48 89 e5             	mov    %rsp,%rbp
    3374:	89 f8                	mov    %edi,%eax
    3376:	89 75 f8             	mov    %esi,-0x8(%rbp)
    3379:	88 45 fc             	mov    %al,-0x4(%rbp)
    337c:	80 7d fc 00          	cmpb   $0x0,-0x4(%rbp)
    3380:	78 15                	js     3397 <safe_rshift_func_int8_t_s_u+0x2b>
    3382:	83 7d f8 1f          	cmpl   $0x1f,-0x8(%rbp)
    3386:	77 0f                	ja     3397 <safe_rshift_func_int8_t_s_u+0x2b>
    3388:	0f be 55 fc          	movsbl -0x4(%rbp),%edx
    338c:	8b 45 f8             	mov    -0x8(%rbp),%eax
    338f:	89 c1                	mov    %eax,%ecx
    3391:	d3 fa                	sar    %cl,%edx
    3393:	89 d0                	mov    %edx,%eax
    3395:	eb 04                	jmp    339b <safe_rshift_func_int8_t_s_u+0x2f>
    3397:	0f b6 45 fc          	movzbl -0x4(%rbp),%eax
    339b:	5d                   	pop    %rbp
    339c:	c3                   	retq   

000000000000339d <safe_unary_minus_func_int16_t_s>:
    339d:	f3 0f 1e fa          	endbr64 
    33a1:	55                   	push   %rbp
    33a2:	48 89 e5             	mov    %rsp,%rbp
    33a5:	89 f8                	mov    %edi,%eax
    33a7:	66 89 45 fc          	mov    %ax,-0x4(%rbp)
    33ab:	0f b7 45 fc          	movzwl -0x4(%rbp),%eax
    33af:	f7 d8                	neg    %eax
    33b1:	5d                   	pop    %rbp
    33b2:	c3                   	retq   

00000000000033b3 <safe_add_func_int16_t_s_s>:
    33b3:	f3 0f 1e fa          	endbr64 
    33b7:	55                   	push   %rbp
    33b8:	48 89 e5             	mov    %rsp,%rbp
    33bb:	89 fa                	mov    %edi,%edx
    33bd:	89 f0                	mov    %esi,%eax
    33bf:	66 89 55 fc          	mov    %dx,-0x4(%rbp)
    33c3:	66 89 45 f8          	mov    %ax,-0x8(%rbp)
    33c7:	0f b7 55 fc          	movzwl -0x4(%rbp),%edx
    33cb:	0f b7 45 f8          	movzwl -0x8(%rbp),%eax
    33cf:	01 d0                	add    %edx,%eax
    33d1:	5d                   	pop    %rbp
    33d2:	c3                   	retq   

00000000000033d3 <safe_sub_func_int16_t_s_s>:
    33d3:	f3 0f 1e fa          	endbr64 
    33d7:	55                   	push   %rbp
    33d8:	48 89 e5             	mov    %rsp,%rbp
    33db:	89 fa                	mov    %edi,%edx
    33dd:	89 f0                	mov    %esi,%eax
    33df:	66 89 55 fc          	mov    %dx,-0x4(%rbp)
    33e3:	66 89 45 f8          	mov    %ax,-0x8(%rbp)
    33e7:	0f b7 55 fc          	movzwl -0x4(%rbp),%edx
    33eb:	0f b7 45 f8          	movzwl -0x8(%rbp),%eax
    33ef:	29 c2                	sub    %eax,%edx
    33f1:	89 d0                	mov    %edx,%eax
    33f3:	5d                   	pop    %rbp
    33f4:	c3                   	retq   

00000000000033f5 <safe_mul_func_int16_t_s_s>:
    33f5:	f3 0f 1e fa          	endbr64 
    33f9:	55                   	push   %rbp
    33fa:	48 89 e5             	mov    %rsp,%rbp
    33fd:	89 fa                	mov    %edi,%edx
    33ff:	89 f0                	mov    %esi,%eax
    3401:	66 89 55 fc          	mov    %dx,-0x4(%rbp)
    3405:	66 89 45 f8          	mov    %ax,-0x8(%rbp)
    3409:	0f b7 55 fc          	movzwl -0x4(%rbp),%edx
    340d:	0f b7 45 f8          	movzwl -0x8(%rbp),%eax
    3411:	0f af c2             	imul   %edx,%eax
    3414:	5d                   	pop    %rbp
    3415:	c3                   	retq   

0000000000003416 <safe_mod_func_int16_t_s_s>:
    3416:	f3 0f 1e fa          	endbr64 
    341a:	55                   	push   %rbp
    341b:	48 89 e5             	mov    %rsp,%rbp
    341e:	89 fa                	mov    %edi,%edx
    3420:	89 f0                	mov    %esi,%eax
    3422:	66 89 55 fc          	mov    %dx,-0x4(%rbp)
    3426:	66 89 45 f8          	mov    %ax,-0x8(%rbp)
    342a:	66 83 7d f8 00       	cmpw   $0x0,-0x8(%rbp)
    342f:	74 1e                	je     344f <safe_mod_func_int16_t_s_s+0x39>
    3431:	66 81 7d fc 00 80    	cmpw   $0x8000,-0x4(%rbp)
    3437:	75 07                	jne    3440 <safe_mod_func_int16_t_s_s+0x2a>
    3439:	66 83 7d f8 ff       	cmpw   $0xffff,-0x8(%rbp)
    343e:	74 0f                	je     344f <safe_mod_func_int16_t_s_s+0x39>
    3440:	0f bf 45 fc          	movswl -0x4(%rbp),%eax
    3444:	0f bf 4d f8          	movswl -0x8(%rbp),%ecx
    3448:	99                   	cltd   
    3449:	f7 f9                	idiv   %ecx
    344b:	89 d0                	mov    %edx,%eax
    344d:	eb 04                	jmp    3453 <safe_mod_func_int16_t_s_s+0x3d>
    344f:	0f b7 45 fc          	movzwl -0x4(%rbp),%eax
    3453:	5d                   	pop    %rbp
    3454:	c3                   	retq   

0000000000003455 <safe_div_func_int16_t_s_s>:
    3455:	f3 0f 1e fa          	endbr64 
    3459:	55                   	push   %rbp
    345a:	48 89 e5             	mov    %rsp,%rbp
    345d:	89 fa                	mov    %edi,%edx
    345f:	89 f0                	mov    %esi,%eax
    3461:	66 89 55 fc          	mov    %dx,-0x4(%rbp)
    3465:	66 89 45 f8          	mov    %ax,-0x8(%rbp)
    3469:	66 83 7d f8 00       	cmpw   $0x0,-0x8(%rbp)
    346e:	74 1c                	je     348c <safe_div_func_int16_t_s_s+0x37>
    3470:	66 81 7d fc 00 80    	cmpw   $0x8000,-0x4(%rbp)
    3476:	75 07                	jne    347f <safe_div_func_int16_t_s_s+0x2a>
    3478:	66 83 7d f8 ff       	cmpw   $0xffff,-0x8(%rbp)
    347d:	74 0d                	je     348c <safe_div_func_int16_t_s_s+0x37>
    347f:	0f bf 45 fc          	movswl -0x4(%rbp),%eax
    3483:	0f bf 4d f8          	movswl -0x8(%rbp),%ecx
    3487:	99                   	cltd   
    3488:	f7 f9                	idiv   %ecx
    348a:	eb 04                	jmp    3490 <safe_div_func_int16_t_s_s+0x3b>
    348c:	0f b7 45 fc          	movzwl -0x4(%rbp),%eax
    3490:	5d                   	pop    %rbp
    3491:	c3                   	retq   

0000000000003492 <safe_lshift_func_int16_t_s_s>:
    3492:	f3 0f 1e fa          	endbr64 
    3496:	55                   	push   %rbp
    3497:	48 89 e5             	mov    %rsp,%rbp
    349a:	89 f8                	mov    %edi,%eax
    349c:	89 75 f8             	mov    %esi,-0x8(%rbp)
    349f:	66 89 45 fc          	mov    %ax,-0x4(%rbp)
    34a3:	66 83 7d fc 00       	cmpw   $0x0,-0x4(%rbp)
    34a8:	78 31                	js     34db <safe_lshift_func_int16_t_s_s+0x49>
    34aa:	83 7d f8 00          	cmpl   $0x0,-0x8(%rbp)
    34ae:	78 2b                	js     34db <safe_lshift_func_int16_t_s_s+0x49>
    34b0:	83 7d f8 1f          	cmpl   $0x1f,-0x8(%rbp)
    34b4:	7f 25                	jg     34db <safe_lshift_func_int16_t_s_s+0x49>
    34b6:	0f bf 55 fc          	movswl -0x4(%rbp),%edx
    34ba:	8b 45 f8             	mov    -0x8(%rbp),%eax
    34bd:	be ff 7f 00 00       	mov    $0x7fff,%esi
    34c2:	89 c1                	mov    %eax,%ecx
    34c4:	d3 fe                	sar    %cl,%esi
    34c6:	89 f0                	mov    %esi,%eax
    34c8:	39 c2                	cmp    %eax,%edx
    34ca:	7f 0f                	jg     34db <safe_lshift_func_int16_t_s_s+0x49>
    34cc:	0f bf 55 fc          	movswl -0x4(%rbp),%edx
    34d0:	8b 45 f8             	mov    -0x8(%rbp),%eax
    34d3:	89 c1                	mov    %eax,%ecx
    34d5:	d3 e2                	shl    %cl,%edx
    34d7:	89 d0                	mov    %edx,%eax
    34d9:	eb 04                	jmp    34df <safe_lshift_func_int16_t_s_s+0x4d>
    34db:	0f b7 45 fc          	movzwl -0x4(%rbp),%eax
    34df:	5d                   	pop    %rbp
    34e0:	c3                   	retq   

00000000000034e1 <safe_lshift_func_int16_t_s_u>:
    34e1:	f3 0f 1e fa          	endbr64 
    34e5:	55                   	push   %rbp
    34e6:	48 89 e5             	mov    %rsp,%rbp
    34e9:	89 f8                	mov    %edi,%eax
    34eb:	89 75 f8             	mov    %esi,-0x8(%rbp)
    34ee:	66 89 45 fc          	mov    %ax,-0x4(%rbp)
    34f2:	66 83 7d fc 00       	cmpw   $0x0,-0x4(%rbp)
    34f7:	78 2b                	js     3524 <safe_lshift_func_int16_t_s_u+0x43>
    34f9:	83 7d f8 1f          	cmpl   $0x1f,-0x8(%rbp)
    34fd:	77 25                	ja     3524 <safe_lshift_func_int16_t_s_u+0x43>
    34ff:	0f bf 55 fc          	movswl -0x4(%rbp),%edx
    3503:	8b 45 f8             	mov    -0x8(%rbp),%eax
    3506:	be ff 7f 00 00       	mov    $0x7fff,%esi
    350b:	89 c1                	mov    %eax,%ecx
    350d:	d3 fe                	sar    %cl,%esi
    350f:	89 f0                	mov    %esi,%eax
    3511:	39 c2                	cmp    %eax,%edx
    3513:	7f 0f                	jg     3524 <safe_lshift_func_int16_t_s_u+0x43>
    3515:	0f bf 55 fc          	movswl -0x4(%rbp),%edx
    3519:	8b 45 f8             	mov    -0x8(%rbp),%eax
    351c:	89 c1                	mov    %eax,%ecx
    351e:	d3 e2                	shl    %cl,%edx
    3520:	89 d0                	mov    %edx,%eax
    3522:	eb 04                	jmp    3528 <safe_lshift_func_int16_t_s_u+0x47>
    3524:	0f b7 45 fc          	movzwl -0x4(%rbp),%eax
    3528:	5d                   	pop    %rbp
    3529:	c3                   	retq   

000000000000352a <safe_rshift_func_int16_t_s_s>:
    352a:	f3 0f 1e fa          	endbr64 
    352e:	55                   	push   %rbp
    352f:	48 89 e5             	mov    %rsp,%rbp
    3532:	89 f8                	mov    %edi,%eax
    3534:	89 75 f8             	mov    %esi,-0x8(%rbp)
    3537:	66 89 45 fc          	mov    %ax,-0x4(%rbp)
    353b:	66 83 7d fc 00       	cmpw   $0x0,-0x4(%rbp)
    3540:	78 1b                	js     355d <safe_rshift_func_int16_t_s_s+0x33>
    3542:	83 7d f8 00          	cmpl   $0x0,-0x8(%rbp)
    3546:	78 15                	js     355d <safe_rshift_func_int16_t_s_s+0x33>
    3548:	83 7d f8 1f          	cmpl   $0x1f,-0x8(%rbp)
    354c:	7f 0f                	jg     355d <safe_rshift_func_int16_t_s_s+0x33>
    354e:	0f bf 55 fc          	movswl -0x4(%rbp),%edx
    3552:	8b 45 f8             	mov    -0x8(%rbp),%eax
    3555:	89 c1                	mov    %eax,%ecx
    3557:	d3 fa                	sar    %cl,%edx
    3559:	89 d0                	mov    %edx,%eax
    355b:	eb 04                	jmp    3561 <safe_rshift_func_int16_t_s_s+0x37>
    355d:	0f b7 45 fc          	movzwl -0x4(%rbp),%eax
    3561:	5d                   	pop    %rbp
    3562:	c3                   	retq   

0000000000003563 <safe_rshift_func_int16_t_s_u>:
    3563:	f3 0f 1e fa          	endbr64 
    3567:	55                   	push   %rbp
    3568:	48 89 e5             	mov    %rsp,%rbp
    356b:	89 f8                	mov    %edi,%eax
    356d:	89 75 f8             	mov    %esi,-0x8(%rbp)
    3570:	66 89 45 fc          	mov    %ax,-0x4(%rbp)
    3574:	66 83 7d fc 00       	cmpw   $0x0,-0x4(%rbp)
    3579:	78 15                	js     3590 <safe_rshift_func_int16_t_s_u+0x2d>
    357b:	83 7d f8 1f          	cmpl   $0x1f,-0x8(%rbp)
    357f:	77 0f                	ja     3590 <safe_rshift_func_int16_t_s_u+0x2d>
    3581:	0f bf 55 fc          	movswl -0x4(%rbp),%edx
    3585:	8b 45 f8             	mov    -0x8(%rbp),%eax
    3588:	89 c1                	mov    %eax,%ecx
    358a:	d3 fa                	sar    %cl,%edx
    358c:	89 d0                	mov    %edx,%eax
    358e:	eb 04                	jmp    3594 <safe_rshift_func_int16_t_s_u+0x31>
    3590:	0f b7 45 fc          	movzwl -0x4(%rbp),%eax
    3594:	5d                   	pop    %rbp
    3595:	c3                   	retq   

0000000000003596 <safe_unary_minus_func_int32_t_s>:
    3596:	f3 0f 1e fa          	endbr64 
    359a:	55                   	push   %rbp
    359b:	48 89 e5             	mov    %rsp,%rbp
    359e:	89 7d fc             	mov    %edi,-0x4(%rbp)
    35a1:	81 7d fc 00 00 00 80 	cmpl   $0x80000000,-0x4(%rbp)
    35a8:	74 07                	je     35b1 <safe_unary_minus_func_int32_t_s+0x1b>
    35aa:	8b 45 fc             	mov    -0x4(%rbp),%eax
    35ad:	f7 d8                	neg    %eax
    35af:	eb 03                	jmp    35b4 <safe_unary_minus_func_int32_t_s+0x1e>
    35b1:	8b 45 fc             	mov    -0x4(%rbp),%eax
    35b4:	5d                   	pop    %rbp
    35b5:	c3                   	retq   

00000000000035b6 <safe_add_func_int32_t_s_s>:
    35b6:	f3 0f 1e fa          	endbr64 
    35ba:	55                   	push   %rbp
    35bb:	48 89 e5             	mov    %rsp,%rbp
    35be:	89 7d fc             	mov    %edi,-0x4(%rbp)
    35c1:	89 75 f8             	mov    %esi,-0x8(%rbp)
    35c4:	83 7d fc 00          	cmpl   $0x0,-0x4(%rbp)
    35c8:	7e 13                	jle    35dd <safe_add_func_int32_t_s_s+0x27>
    35ca:	83 7d f8 00          	cmpl   $0x0,-0x8(%rbp)
    35ce:	7e 0d                	jle    35dd <safe_add_func_int32_t_s_s+0x27>
    35d0:	b8 ff ff ff 7f       	mov    $0x7fffffff,%eax
    35d5:	2b 45 f8             	sub    -0x8(%rbp),%eax
    35d8:	39 45 fc             	cmp    %eax,-0x4(%rbp)
    35db:	7f 23                	jg     3600 <safe_add_func_int32_t_s_s+0x4a>
    35dd:	83 7d fc 00          	cmpl   $0x0,-0x4(%rbp)
    35e1:	79 13                	jns    35f6 <safe_add_func_int32_t_s_s+0x40>
    35e3:	83 7d f8 00          	cmpl   $0x0,-0x8(%rbp)
    35e7:	79 0d                	jns    35f6 <safe_add_func_int32_t_s_s+0x40>
    35e9:	b8 00 00 00 80       	mov    $0x80000000,%eax
    35ee:	2b 45 f8             	sub    -0x8(%rbp),%eax
    35f1:	39 45 fc             	cmp    %eax,-0x4(%rbp)
    35f4:	7c 0a                	jl     3600 <safe_add_func_int32_t_s_s+0x4a>
    35f6:	8b 55 fc             	mov    -0x4(%rbp),%edx
    35f9:	8b 45 f8             	mov    -0x8(%rbp),%eax
    35fc:	01 d0                	add    %edx,%eax
    35fe:	eb 03                	jmp    3603 <safe_add_func_int32_t_s_s+0x4d>
    3600:	8b 45 fc             	mov    -0x4(%rbp),%eax
    3603:	5d                   	pop    %rbp
    3604:	c3                   	retq   

0000000000003605 <safe_sub_func_int32_t_s_s>:
    3605:	f3 0f 1e fa          	endbr64 
    3609:	55                   	push   %rbp
    360a:	48 89 e5             	mov    %rsp,%rbp
    360d:	89 7d fc             	mov    %edi,-0x4(%rbp)
    3610:	89 75 f8             	mov    %esi,-0x8(%rbp)
    3613:	8b 45 fc             	mov    -0x4(%rbp),%eax
    3616:	33 45 f8             	xor    -0x8(%rbp),%eax
    3619:	89 c2                	mov    %eax,%edx
    361b:	8b 45 fc             	mov    -0x4(%rbp),%eax
    361e:	33 45 f8             	xor    -0x8(%rbp),%eax
    3621:	25 00 00 00 80       	and    $0x80000000,%eax
    3626:	33 45 fc             	xor    -0x4(%rbp),%eax
    3629:	2b 45 f8             	sub    -0x8(%rbp),%eax
    362c:	33 45 f8             	xor    -0x8(%rbp),%eax
    362f:	21 d0                	and    %edx,%eax
    3631:	85 c0                	test   %eax,%eax
    3633:	78 08                	js     363d <safe_sub_func_int32_t_s_s+0x38>
    3635:	8b 45 fc             	mov    -0x4(%rbp),%eax
    3638:	2b 45 f8             	sub    -0x8(%rbp),%eax
    363b:	eb 03                	jmp    3640 <safe_sub_func_int32_t_s_s+0x3b>
    363d:	8b 45 fc             	mov    -0x4(%rbp),%eax
    3640:	5d                   	pop    %rbp
    3641:	c3                   	retq   

0000000000003642 <safe_mul_func_int32_t_s_s>:
    3642:	f3 0f 1e fa          	endbr64 
    3646:	55                   	push   %rbp
    3647:	48 89 e5             	mov    %rsp,%rbp
    364a:	89 7d fc             	mov    %edi,-0x4(%rbp)
    364d:	89 75 f8             	mov    %esi,-0x8(%rbp)
    3650:	83 7d fc 00          	cmpl   $0x0,-0x4(%rbp)
    3654:	7e 14                	jle    366a <safe_mul_func_int32_t_s_s+0x28>
    3656:	83 7d f8 00          	cmpl   $0x0,-0x8(%rbp)
    365a:	7e 0e                	jle    366a <safe_mul_func_int32_t_s_s+0x28>
    365c:	b8 ff ff ff 7f       	mov    $0x7fffffff,%eax
    3661:	99                   	cltd   
    3662:	f7 7d f8             	idivl  -0x8(%rbp)
    3665:	39 45 fc             	cmp    %eax,-0x4(%rbp)
    3668:	7f 5d                	jg     36c7 <safe_mul_func_int32_t_s_s+0x85>
    366a:	83 7d fc 00          	cmpl   $0x0,-0x4(%rbp)
    366e:	7e 14                	jle    3684 <safe_mul_func_int32_t_s_s+0x42>
    3670:	83 7d f8 00          	cmpl   $0x0,-0x8(%rbp)
    3674:	7f 0e                	jg     3684 <safe_mul_func_int32_t_s_s+0x42>
    3676:	b8 00 00 00 80       	mov    $0x80000000,%eax
    367b:	99                   	cltd   
    367c:	f7 7d fc             	idivl  -0x4(%rbp)
    367f:	39 45 f8             	cmp    %eax,-0x8(%rbp)
    3682:	7c 43                	jl     36c7 <safe_mul_func_int32_t_s_s+0x85>
    3684:	83 7d fc 00          	cmpl   $0x0,-0x4(%rbp)
    3688:	7f 14                	jg     369e <safe_mul_func_int32_t_s_s+0x5c>
    368a:	83 7d f8 00          	cmpl   $0x0,-0x8(%rbp)
    368e:	7e 0e                	jle    369e <safe_mul_func_int32_t_s_s+0x5c>
    3690:	b8 00 00 00 80       	mov    $0x80000000,%eax
    3695:	99                   	cltd   
    3696:	f7 7d f8             	idivl  -0x8(%rbp)
    3699:	39 45 fc             	cmp    %eax,-0x4(%rbp)
    369c:	7c 29                	jl     36c7 <safe_mul_func_int32_t_s_s+0x85>
    369e:	83 7d fc 00          	cmpl   $0x0,-0x4(%rbp)
    36a2:	7f 1a                	jg     36be <safe_mul_func_int32_t_s_s+0x7c>
    36a4:	83 7d f8 00          	cmpl   $0x0,-0x8(%rbp)
    36a8:	7f 14                	jg     36be <safe_mul_func_int32_t_s_s+0x7c>
    36aa:	83 7d fc 00          	cmpl   $0x0,-0x4(%rbp)
    36ae:	74 0e                	je     36be <safe_mul_func_int32_t_s_s+0x7c>
    36b0:	b8 ff ff ff 7f       	mov    $0x7fffffff,%eax
    36b5:	99                   	cltd   
    36b6:	f7 7d fc             	idivl  -0x4(%rbp)
    36b9:	39 45 f8             	cmp    %eax,-0x8(%rbp)
    36bc:	7c 09                	jl     36c7 <safe_mul_func_int32_t_s_s+0x85>
    36be:	8b 45 fc             	mov    -0x4(%rbp),%eax
    36c1:	0f af 45 f8          	imul   -0x8(%rbp),%eax
    36c5:	eb 03                	jmp    36ca <safe_mul_func_int32_t_s_s+0x88>
    36c7:	8b 45 fc             	mov    -0x4(%rbp),%eax
    36ca:	5d                   	pop    %rbp
    36cb:	c3                   	retq   

00000000000036cc <safe_mod_func_int32_t_s_s>:
    36cc:	f3 0f 1e fa          	endbr64 
    36d0:	55                   	push   %rbp
    36d1:	48 89 e5             	mov    %rsp,%rbp
    36d4:	89 7d fc             	mov    %edi,-0x4(%rbp)
    36d7:	89 75 f8             	mov    %esi,-0x8(%rbp)
    36da:	83 7d f8 00          	cmpl   $0x0,-0x8(%rbp)
    36de:	74 1a                	je     36fa <safe_mod_func_int32_t_s_s+0x2e>
    36e0:	81 7d fc 00 00 00 80 	cmpl   $0x80000000,-0x4(%rbp)
    36e7:	75 06                	jne    36ef <safe_mod_func_int32_t_s_s+0x23>
    36e9:	83 7d f8 ff          	cmpl   $0xffffffff,-0x8(%rbp)
    36ed:	74 0b                	je     36fa <safe_mod_func_int32_t_s_s+0x2e>
    36ef:	8b 45 fc             	mov    -0x4(%rbp),%eax
    36f2:	99                   	cltd   
    36f3:	f7 7d f8             	idivl  -0x8(%rbp)
    36f6:	89 d0                	mov    %edx,%eax
    36f8:	eb 03                	jmp    36fd <safe_mod_func_int32_t_s_s+0x31>
    36fa:	8b 45 fc             	mov    -0x4(%rbp),%eax
    36fd:	5d                   	pop    %rbp
    36fe:	c3                   	retq   

00000000000036ff <safe_div_func_int32_t_s_s>:
    36ff:	f3 0f 1e fa          	endbr64 
    3703:	55                   	push   %rbp
    3704:	48 89 e5             	mov    %rsp,%rbp
    3707:	89 7d fc             	mov    %edi,-0x4(%rbp)
    370a:	89 75 f8             	mov    %esi,-0x8(%rbp)
    370d:	83 7d f8 00          	cmpl   $0x0,-0x8(%rbp)
    3711:	74 18                	je     372b <safe_div_func_int32_t_s_s+0x2c>
    3713:	81 7d fc 00 00 00 80 	cmpl   $0x80000000,-0x4(%rbp)
    371a:	75 06                	jne    3722 <safe_div_func_int32_t_s_s+0x23>
    371c:	83 7d f8 ff          	cmpl   $0xffffffff,-0x8(%rbp)
    3720:	74 09                	je     372b <safe_div_func_int32_t_s_s+0x2c>
    3722:	8b 45 fc             	mov    -0x4(%rbp),%eax
    3725:	99                   	cltd   
    3726:	f7 7d f8             	idivl  -0x8(%rbp)
    3729:	eb 03                	jmp    372e <safe_div_func_int32_t_s_s+0x2f>
    372b:	8b 45 fc             	mov    -0x4(%rbp),%eax
    372e:	5d                   	pop    %rbp
    372f:	c3                   	retq   

0000000000003730 <safe_lshift_func_int32_t_s_s>:
    3730:	f3 0f 1e fa          	endbr64 
    3734:	55                   	push   %rbp
    3735:	48 89 e5             	mov    %rsp,%rbp
    3738:	89 7d fc             	mov    %edi,-0x4(%rbp)
    373b:	89 75 f8             	mov    %esi,-0x8(%rbp)
    373e:	83 7d fc 00          	cmpl   $0x0,-0x4(%rbp)
    3742:	78 2d                	js     3771 <safe_lshift_func_int32_t_s_s+0x41>
    3744:	83 7d f8 00          	cmpl   $0x0,-0x8(%rbp)
    3748:	78 27                	js     3771 <safe_lshift_func_int32_t_s_s+0x41>
    374a:	83 7d f8 1f          	cmpl   $0x1f,-0x8(%rbp)
    374e:	7f 21                	jg     3771 <safe_lshift_func_int32_t_s_s+0x41>
    3750:	8b 45 f8             	mov    -0x8(%rbp),%eax
    3753:	ba ff ff ff 7f       	mov    $0x7fffffff,%edx
    3758:	89 c1                	mov    %eax,%ecx
    375a:	d3 fa                	sar    %cl,%edx
    375c:	89 d0                	mov    %edx,%eax
    375e:	39 45 fc             	cmp    %eax,-0x4(%rbp)
    3761:	7f 0e                	jg     3771 <safe_lshift_func_int32_t_s_s+0x41>
    3763:	8b 45 f8             	mov    -0x8(%rbp),%eax
    3766:	8b 55 fc             	mov    -0x4(%rbp),%edx
    3769:	89 c1                	mov    %eax,%ecx
    376b:	d3 e2                	shl    %cl,%edx
    376d:	89 d0                	mov    %edx,%eax
    376f:	eb 03                	jmp    3774 <safe_lshift_func_int32_t_s_s+0x44>
    3771:	8b 45 fc             	mov    -0x4(%rbp),%eax
    3774:	5d                   	pop    %rbp
    3775:	c3                   	retq   

0000000000003776 <safe_lshift_func_int32_t_s_u>:
    3776:	f3 0f 1e fa          	endbr64 
    377a:	55                   	push   %rbp
    377b:	48 89 e5             	mov    %rsp,%rbp
    377e:	89 7d fc             	mov    %edi,-0x4(%rbp)
    3781:	89 75 f8             	mov    %esi,-0x8(%rbp)
    3784:	83 7d fc 00          	cmpl   $0x0,-0x4(%rbp)
    3788:	78 27                	js     37b1 <safe_lshift_func_int32_t_s_u+0x3b>
    378a:	83 7d f8 1f          	cmpl   $0x1f,-0x8(%rbp)
    378e:	77 21                	ja     37b1 <safe_lshift_func_int32_t_s_u+0x3b>
    3790:	8b 45 f8             	mov    -0x8(%rbp),%eax
    3793:	ba ff ff ff 7f       	mov    $0x7fffffff,%edx
    3798:	89 c1                	mov    %eax,%ecx
    379a:	d3 fa                	sar    %cl,%edx
    379c:	89 d0                	mov    %edx,%eax
    379e:	39 45 fc             	cmp    %eax,-0x4(%rbp)
    37a1:	7f 0e                	jg     37b1 <safe_lshift_func_int32_t_s_u+0x3b>
    37a3:	8b 45 f8             	mov    -0x8(%rbp),%eax
    37a6:	8b 55 fc             	mov    -0x4(%rbp),%edx
    37a9:	89 c1                	mov    %eax,%ecx
    37ab:	d3 e2                	shl    %cl,%edx
    37ad:	89 d0                	mov    %edx,%eax
    37af:	eb 03                	jmp    37b4 <safe_lshift_func_int32_t_s_u+0x3e>
    37b1:	8b 45 fc             	mov    -0x4(%rbp),%eax
    37b4:	5d                   	pop    %rbp
    37b5:	c3                   	retq   

00000000000037b6 <safe_rshift_func_int32_t_s_s>:
    37b6:	f3 0f 1e fa          	endbr64 
    37ba:	55                   	push   %rbp
    37bb:	48 89 e5             	mov    %rsp,%rbp
    37be:	89 7d fc             	mov    %edi,-0x4(%rbp)
    37c1:	89 75 f8             	mov    %esi,-0x8(%rbp)
    37c4:	83 7d fc 00          	cmpl   $0x0,-0x4(%rbp)
    37c8:	78 1a                	js     37e4 <safe_rshift_func_int32_t_s_s+0x2e>
    37ca:	83 7d f8 00          	cmpl   $0x0,-0x8(%rbp)
    37ce:	78 14                	js     37e4 <safe_rshift_func_int32_t_s_s+0x2e>
    37d0:	83 7d f8 1f          	cmpl   $0x1f,-0x8(%rbp)
    37d4:	7f 0e                	jg     37e4 <safe_rshift_func_int32_t_s_s+0x2e>
    37d6:	8b 45 f8             	mov    -0x8(%rbp),%eax
    37d9:	8b 55 fc             	mov    -0x4(%rbp),%edx
    37dc:	89 c1                	mov    %eax,%ecx
    37de:	d3 fa                	sar    %cl,%edx
    37e0:	89 d0                	mov    %edx,%eax
    37e2:	eb 03                	jmp    37e7 <safe_rshift_func_int32_t_s_s+0x31>
    37e4:	8b 45 fc             	mov    -0x4(%rbp),%eax
    37e7:	5d                   	pop    %rbp
    37e8:	c3                   	retq   

00000000000037e9 <safe_rshift_func_int32_t_s_u>:
    37e9:	f3 0f 1e fa          	endbr64 
    37ed:	55                   	push   %rbp
    37ee:	48 89 e5             	mov    %rsp,%rbp
    37f1:	89 7d fc             	mov    %edi,-0x4(%rbp)
    37f4:	89 75 f8             	mov    %esi,-0x8(%rbp)
    37f7:	83 7d fc 00          	cmpl   $0x0,-0x4(%rbp)
    37fb:	78 14                	js     3811 <safe_rshift_func_int32_t_s_u+0x28>
    37fd:	83 7d f8 1f          	cmpl   $0x1f,-0x8(%rbp)
    3801:	77 0e                	ja     3811 <safe_rshift_func_int32_t_s_u+0x28>
    3803:	8b 45 f8             	mov    -0x8(%rbp),%eax
    3806:	8b 55 fc             	mov    -0x4(%rbp),%edx
    3809:	89 c1                	mov    %eax,%ecx
    380b:	d3 fa                	sar    %cl,%edx
    380d:	89 d0                	mov    %edx,%eax
    380f:	eb 03                	jmp    3814 <safe_rshift_func_int32_t_s_u+0x2b>
    3811:	8b 45 fc             	mov    -0x4(%rbp),%eax
    3814:	5d                   	pop    %rbp
    3815:	c3                   	retq   

0000000000003816 <safe_unary_minus_func_int64_t_s>:
    3816:	f3 0f 1e fa          	endbr64 
    381a:	55                   	push   %rbp
    381b:	48 89 e5             	mov    %rsp,%rbp
    381e:	48 89 7d f8          	mov    %rdi,-0x8(%rbp)
    3822:	48 b8 00 00 00 00 00 	movabs $0x8000000000000000,%rax
    3829:	00 00 80 
    382c:	48 39 45 f8          	cmp    %rax,-0x8(%rbp)
    3830:	74 09                	je     383b <safe_unary_minus_func_int64_t_s+0x25>
    3832:	48 8b 45 f8          	mov    -0x8(%rbp),%rax
    3836:	48 f7 d8             	neg    %rax
    3839:	eb 04                	jmp    383f <safe_unary_minus_func_int64_t_s+0x29>
    383b:	48 8b 45 f8          	mov    -0x8(%rbp),%rax
    383f:	5d                   	pop    %rbp
    3840:	c3                   	retq   

0000000000003841 <safe_add_func_int64_t_s_s>:
    3841:	f3 0f 1e fa          	endbr64 
    3845:	55                   	push   %rbp
    3846:	48 89 e5             	mov    %rsp,%rbp
    3849:	48 89 7d f8          	mov    %rdi,-0x8(%rbp)
    384d:	48 89 75 f0          	mov    %rsi,-0x10(%rbp)
    3851:	48 83 7d f8 00       	cmpq   $0x0,-0x8(%rbp)
    3856:	7e 1b                	jle    3873 <safe_add_func_int64_t_s_s+0x32>
    3858:	48 83 7d f0 00       	cmpq   $0x0,-0x10(%rbp)
    385d:	7e 14                	jle    3873 <safe_add_func_int64_t_s_s+0x32>
    385f:	48 b8 ff ff ff ff ff 	movabs $0x7fffffffffffffff,%rax
    3866:	ff ff 7f 
    3869:	48 2b 45 f0          	sub    -0x10(%rbp),%rax
    386d:	48 39 45 f8          	cmp    %rax,-0x8(%rbp)
    3871:	7f 2f                	jg     38a2 <safe_add_func_int64_t_s_s+0x61>
    3873:	48 83 7d f8 00       	cmpq   $0x0,-0x8(%rbp)
    3878:	79 1b                	jns    3895 <safe_add_func_int64_t_s_s+0x54>
    387a:	48 83 7d f0 00       	cmpq   $0x0,-0x10(%rbp)
    387f:	79 14                	jns    3895 <safe_add_func_int64_t_s_s+0x54>
    3881:	48 b8 00 00 00 00 00 	movabs $0x8000000000000000,%rax
    3888:	00 00 80 
    388b:	48 2b 45 f0          	sub    -0x10(%rbp),%rax
    388f:	48 39 45 f8          	cmp    %rax,-0x8(%rbp)
    3893:	7c 0d                	jl     38a2 <safe_add_func_int64_t_s_s+0x61>
    3895:	48 8b 55 f8          	mov    -0x8(%rbp),%rdx
    3899:	48 8b 45 f0          	mov    -0x10(%rbp),%rax
    389d:	48 01 d0             	add    %rdx,%rax
    38a0:	eb 04                	jmp    38a6 <safe_add_func_int64_t_s_s+0x65>
    38a2:	48 8b 45 f8          	mov    -0x8(%rbp),%rax
    38a6:	5d                   	pop    %rbp
    38a7:	c3                   	retq   

00000000000038a8 <safe_sub_func_int64_t_s_s>:
    38a8:	f3 0f 1e fa          	endbr64 
    38ac:	55                   	push   %rbp
    38ad:	48 89 e5             	mov    %rsp,%rbp
    38b0:	48 89 7d f8          	mov    %rdi,-0x8(%rbp)
    38b4:	48 89 75 f0          	mov    %rsi,-0x10(%rbp)
    38b8:	48 8b 45 f8          	mov    -0x8(%rbp),%rax
    38bc:	48 33 45 f0          	xor    -0x10(%rbp),%rax
    38c0:	48 89 c2             	mov    %rax,%rdx
    38c3:	48 8b 45 f8          	mov    -0x8(%rbp),%rax
    38c7:	48 33 45 f0          	xor    -0x10(%rbp),%rax
    38cb:	48 b9 00 00 00 00 00 	movabs $0x8000000000000000,%rcx
    38d2:	00 00 80 
    38d5:	48 21 c8             	and    %rcx,%rax
    38d8:	48 33 45 f8          	xor    -0x8(%rbp),%rax
    38dc:	48 2b 45 f0          	sub    -0x10(%rbp),%rax
    38e0:	48 33 45 f0          	xor    -0x10(%rbp),%rax
    38e4:	48 21 d0             	and    %rdx,%rax
    38e7:	48 85 c0             	test   %rax,%rax
    38ea:	78 0a                	js     38f6 <safe_sub_func_int64_t_s_s+0x4e>
    38ec:	48 8b 45 f8          	mov    -0x8(%rbp),%rax
    38f0:	48 2b 45 f0          	sub    -0x10(%rbp),%rax
    38f4:	eb 04                	jmp    38fa <safe_sub_func_int64_t_s_s+0x52>
    38f6:	48 8b 45 f8          	mov    -0x8(%rbp),%rax
    38fa:	5d                   	pop    %rbp
    38fb:	c3                   	retq   

00000000000038fc <safe_mul_func_int64_t_s_s>:
    38fc:	f3 0f 1e fa          	endbr64 
    3900:	55                   	push   %rbp
    3901:	48 89 e5             	mov    %rsp,%rbp
    3904:	48 89 7d f8          	mov    %rdi,-0x8(%rbp)
    3908:	48 89 75 f0          	mov    %rsi,-0x10(%rbp)
    390c:	48 83 7d f8 00       	cmpq   $0x0,-0x8(%rbp)
    3911:	7e 1d                	jle    3930 <safe_mul_func_int64_t_s_s+0x34>
    3913:	48 83 7d f0 00       	cmpq   $0x0,-0x10(%rbp)
    3918:	7e 16                	jle    3930 <safe_mul_func_int64_t_s_s+0x34>
    391a:	48 b8 ff ff ff ff ff 	movabs $0x7fffffffffffffff,%rax
    3921:	ff ff 7f 
    3924:	48 99                	cqto   
    3926:	48 f7 7d f0          	idivq  -0x10(%rbp)
    392a:	48 39 45 f8          	cmp    %rax,-0x8(%rbp)
    392e:	7f 7e                	jg     39ae <safe_mul_func_int64_t_s_s+0xb2>
    3930:	48 83 7d f8 00       	cmpq   $0x0,-0x8(%rbp)
    3935:	7e 1d                	jle    3954 <safe_mul_func_int64_t_s_s+0x58>
    3937:	48 83 7d f0 00       	cmpq   $0x0,-0x10(%rbp)
    393c:	7f 16                	jg     3954 <safe_mul_func_int64_t_s_s+0x58>
    393e:	48 b8 00 00 00 00 00 	movabs $0x8000000000000000,%rax
    3945:	00 00 80 
    3948:	48 99                	cqto   
    394a:	48 f7 7d f8          	idivq  -0x8(%rbp)
    394e:	48 39 45 f0          	cmp    %rax,-0x10(%rbp)
    3952:	7c 5a                	jl     39ae <safe_mul_func_int64_t_s_s+0xb2>
    3954:	48 83 7d f8 00       	cmpq   $0x0,-0x8(%rbp)
    3959:	7f 1d                	jg     3978 <safe_mul_func_int64_t_s_s+0x7c>
    395b:	48 83 7d f0 00       	cmpq   $0x0,-0x10(%rbp)
    3960:	7e 16                	jle    3978 <safe_mul_func_int64_t_s_s+0x7c>
    3962:	48 b8 00 00 00 00 00 	movabs $0x8000000000000000,%rax
    3969:	00 00 80 
    396c:	48 99                	cqto   
    396e:	48 f7 7d f0          	idivq  -0x10(%rbp)
    3972:	48 39 45 f8          	cmp    %rax,-0x8(%rbp)
    3976:	7c 36                	jl     39ae <safe_mul_func_int64_t_s_s+0xb2>
    3978:	48 83 7d f8 00       	cmpq   $0x0,-0x8(%rbp)
    397d:	7f 24                	jg     39a3 <safe_mul_func_int64_t_s_s+0xa7>
    397f:	48 83 7d f0 00       	cmpq   $0x0,-0x10(%rbp)
    3984:	7f 1d                	jg     39a3 <safe_mul_func_int64_t_s_s+0xa7>
    3986:	48 83 7d f8 00       	cmpq   $0x0,-0x8(%rbp)
    398b:	74 16                	je     39a3 <safe_mul_func_int64_t_s_s+0xa7>
    398d:	48 b8 ff ff ff ff ff 	movabs $0x7fffffffffffffff,%rax
    3994:	ff ff 7f 
    3997:	48 99                	cqto   
    3999:	48 f7 7d f8          	idivq  -0x8(%rbp)
    399d:	48 39 45 f0          	cmp    %rax,-0x10(%rbp)
    39a1:	7c 0b                	jl     39ae <safe_mul_func_int64_t_s_s+0xb2>
    39a3:	48 8b 45 f8          	mov    -0x8(%rbp),%rax
    39a7:	48 0f af 45 f0       	imul   -0x10(%rbp),%rax
    39ac:	eb 04                	jmp    39b2 <safe_mul_func_int64_t_s_s+0xb6>
    39ae:	48 8b 45 f8          	mov    -0x8(%rbp),%rax
    39b2:	5d                   	pop    %rbp
    39b3:	c3                   	retq   

00000000000039b4 <safe_mod_func_int64_t_s_s>:
    39b4:	f3 0f 1e fa          	endbr64 
    39b8:	55                   	push   %rbp
    39b9:	48 89 e5             	mov    %rsp,%rbp
    39bc:	48 89 7d f8          	mov    %rdi,-0x8(%rbp)
    39c0:	48 89 75 f0          	mov    %rsi,-0x10(%rbp)
    39c4:	48 83 7d f0 00       	cmpq   $0x0,-0x10(%rbp)
    39c9:	74 26                	je     39f1 <safe_mod_func_int64_t_s_s+0x3d>
    39cb:	48 b8 00 00 00 00 00 	movabs $0x8000000000000000,%rax
    39d2:	00 00 80 
    39d5:	48 39 45 f8          	cmp    %rax,-0x8(%rbp)
    39d9:	75 07                	jne    39e2 <safe_mod_func_int64_t_s_s+0x2e>
    39db:	48 83 7d f0 ff       	cmpq   $0xffffffffffffffff,-0x10(%rbp)
    39e0:	74 0f                	je     39f1 <safe_mod_func_int64_t_s_s+0x3d>
    39e2:	48 8b 45 f8          	mov    -0x8(%rbp),%rax
    39e6:	48 99                	cqto   
    39e8:	48 f7 7d f0          	idivq  -0x10(%rbp)
    39ec:	48 89 d0             	mov    %rdx,%rax
    39ef:	eb 04                	jmp    39f5 <safe_mod_func_int64_t_s_s+0x41>
    39f1:	48 8b 45 f8          	mov    -0x8(%rbp),%rax
    39f5:	5d                   	pop    %rbp
    39f6:	c3                   	retq   

00000000000039f7 <safe_div_func_int64_t_s_s>:
    39f7:	f3 0f 1e fa          	endbr64 
    39fb:	55                   	push   %rbp
    39fc:	48 89 e5             	mov    %rsp,%rbp
    39ff:	48 89 7d f8          	mov    %rdi,-0x8(%rbp)
    3a03:	48 89 75 f0          	mov    %rsi,-0x10(%rbp)
    3a07:	48 83 7d f0 00       	cmpq   $0x0,-0x10(%rbp)
    3a0c:	74 23                	je     3a31 <safe_div_func_int64_t_s_s+0x3a>
    3a0e:	48 b8 00 00 00 00 00 	movabs $0x8000000000000000,%rax
    3a15:	00 00 80 
    3a18:	48 39 45 f8          	cmp    %rax,-0x8(%rbp)
    3a1c:	75 07                	jne    3a25 <safe_div_func_int64_t_s_s+0x2e>
    3a1e:	48 83 7d f0 ff       	cmpq   $0xffffffffffffffff,-0x10(%rbp)
    3a23:	74 0c                	je     3a31 <safe_div_func_int64_t_s_s+0x3a>
    3a25:	48 8b 45 f8          	mov    -0x8(%rbp),%rax
    3a29:	48 99                	cqto   
    3a2b:	48 f7 7d f0          	idivq  -0x10(%rbp)
    3a2f:	eb 04                	jmp    3a35 <safe_div_func_int64_t_s_s+0x3e>
    3a31:	48 8b 45 f8          	mov    -0x8(%rbp),%rax
    3a35:	5d                   	pop    %rbp
    3a36:	c3                   	retq   

0000000000003a37 <safe_lshift_func_int64_t_s_s>:
    3a37:	f3 0f 1e fa          	endbr64 
    3a3b:	55                   	push   %rbp
    3a3c:	48 89 e5             	mov    %rsp,%rbp
    3a3f:	48 89 7d f8          	mov    %rdi,-0x8(%rbp)
    3a43:	89 75 f4             	mov    %esi,-0xc(%rbp)
    3a46:	48 83 7d f8 00       	cmpq   $0x0,-0x8(%rbp)
    3a4b:	78 38                	js     3a85 <safe_lshift_func_int64_t_s_s+0x4e>
    3a4d:	83 7d f4 00          	cmpl   $0x0,-0xc(%rbp)
    3a51:	78 32                	js     3a85 <safe_lshift_func_int64_t_s_s+0x4e>
    3a53:	83 7d f4 1f          	cmpl   $0x1f,-0xc(%rbp)
    3a57:	7f 2c                	jg     3a85 <safe_lshift_func_int64_t_s_s+0x4e>
    3a59:	8b 45 f4             	mov    -0xc(%rbp),%eax
    3a5c:	48 ba ff ff ff ff ff 	movabs $0x7fffffffffffffff,%rdx
    3a63:	ff ff 7f 
    3a66:	89 c1                	mov    %eax,%ecx
    3a68:	48 d3 fa             	sar    %cl,%rdx
    3a6b:	48 89 d0             	mov    %rdx,%rax
    3a6e:	48 39 45 f8          	cmp    %rax,-0x8(%rbp)
    3a72:	7f 11                	jg     3a85 <safe_lshift_func_int64_t_s_s+0x4e>
    3a74:	8b 45 f4             	mov    -0xc(%rbp),%eax
    3a77:	48 8b 55 f8          	mov    -0x8(%rbp),%rdx
    3a7b:	89 c1                	mov    %eax,%ecx
    3a7d:	48 d3 e2             	shl    %cl,%rdx
    3a80:	48 89 d0             	mov    %rdx,%rax
    3a83:	eb 04                	jmp    3a89 <safe_lshift_func_int64_t_s_s+0x52>
    3a85:	48 8b 45 f8          	mov    -0x8(%rbp),%rax
    3a89:	5d                   	pop    %rbp
    3a8a:	c3                   	retq   

0000000000003a8b <safe_lshift_func_int64_t_s_u>:
    3a8b:	f3 0f 1e fa          	endbr64 
    3a8f:	55                   	push   %rbp
    3a90:	48 89 e5             	mov    %rsp,%rbp
    3a93:	48 89 7d f8          	mov    %rdi,-0x8(%rbp)
    3a97:	89 75 f4             	mov    %esi,-0xc(%rbp)
    3a9a:	48 83 7d f8 00       	cmpq   $0x0,-0x8(%rbp)
    3a9f:	78 32                	js     3ad3 <safe_lshift_func_int64_t_s_u+0x48>
    3aa1:	83 7d f4 1f          	cmpl   $0x1f,-0xc(%rbp)
    3aa5:	77 2c                	ja     3ad3 <safe_lshift_func_int64_t_s_u+0x48>
    3aa7:	8b 45 f4             	mov    -0xc(%rbp),%eax
    3aaa:	48 ba ff ff ff ff ff 	movabs $0x7fffffffffffffff,%rdx
    3ab1:	ff ff 7f 
    3ab4:	89 c1                	mov    %eax,%ecx
    3ab6:	48 d3 fa             	sar    %cl,%rdx
    3ab9:	48 89 d0             	mov    %rdx,%rax
    3abc:	48 39 45 f8          	cmp    %rax,-0x8(%rbp)
    3ac0:	7f 11                	jg     3ad3 <safe_lshift_func_int64_t_s_u+0x48>
    3ac2:	8b 45 f4             	mov    -0xc(%rbp),%eax
    3ac5:	48 8b 55 f8          	mov    -0x8(%rbp),%rdx
    3ac9:	89 c1                	mov    %eax,%ecx
    3acb:	48 d3 e2             	shl    %cl,%rdx
    3ace:	48 89 d0             	mov    %rdx,%rax
    3ad1:	eb 04                	jmp    3ad7 <safe_lshift_func_int64_t_s_u+0x4c>
    3ad3:	48 8b 45 f8          	mov    -0x8(%rbp),%rax
    3ad7:	5d                   	pop    %rbp
    3ad8:	c3                   	retq   

0000000000003ad9 <safe_rshift_func_int64_t_s_s>:
    3ad9:	f3 0f 1e fa          	endbr64 
    3add:	55                   	push   %rbp
    3ade:	48 89 e5             	mov    %rsp,%rbp
    3ae1:	48 89 7d f8          	mov    %rdi,-0x8(%rbp)
    3ae5:	89 75 f4             	mov    %esi,-0xc(%rbp)
    3ae8:	48 83 7d f8 00       	cmpq   $0x0,-0x8(%rbp)
    3aed:	78 1d                	js     3b0c <safe_rshift_func_int64_t_s_s+0x33>
    3aef:	83 7d f4 00          	cmpl   $0x0,-0xc(%rbp)
    3af3:	78 17                	js     3b0c <safe_rshift_func_int64_t_s_s+0x33>
    3af5:	83 7d f4 1f          	cmpl   $0x1f,-0xc(%rbp)
    3af9:	7f 11                	jg     3b0c <safe_rshift_func_int64_t_s_s+0x33>
    3afb:	8b 45 f4             	mov    -0xc(%rbp),%eax
    3afe:	48 8b 55 f8          	mov    -0x8(%rbp),%rdx
    3b02:	89 c1                	mov    %eax,%ecx
    3b04:	48 d3 fa             	sar    %cl,%rdx
    3b07:	48 89 d0             	mov    %rdx,%rax
    3b0a:	eb 04                	jmp    3b10 <safe_rshift_func_int64_t_s_s+0x37>
    3b0c:	48 8b 45 f8          	mov    -0x8(%rbp),%rax
    3b10:	5d                   	pop    %rbp
    3b11:	c3                   	retq   

0000000000003b12 <safe_rshift_func_int64_t_s_u>:
    3b12:	f3 0f 1e fa          	endbr64 
    3b16:	55                   	push   %rbp
    3b17:	48 89 e5             	mov    %rsp,%rbp
    3b1a:	48 89 7d f8          	mov    %rdi,-0x8(%rbp)
    3b1e:	89 75 f4             	mov    %esi,-0xc(%rbp)
    3b21:	48 83 7d f8 00       	cmpq   $0x0,-0x8(%rbp)
    3b26:	78 17                	js     3b3f <safe_rshift_func_int64_t_s_u+0x2d>
    3b28:	83 7d f4 1f          	cmpl   $0x1f,-0xc(%rbp)
    3b2c:	77 11                	ja     3b3f <safe_rshift_func_int64_t_s_u+0x2d>
    3b2e:	8b 45 f4             	mov    -0xc(%rbp),%eax
    3b31:	48 8b 55 f8          	mov    -0x8(%rbp),%rdx
    3b35:	89 c1                	mov    %eax,%ecx
    3b37:	48 d3 fa             	sar    %cl,%rdx
    3b3a:	48 89 d0             	mov    %rdx,%rax
    3b3d:	eb 04                	jmp    3b43 <safe_rshift_func_int64_t_s_u+0x31>
    3b3f:	48 8b 45 f8          	mov    -0x8(%rbp),%rax
    3b43:	5d                   	pop    %rbp
    3b44:	c3                   	retq   

0000000000003b45 <safe_unary_minus_func_uint8_t_u>:
    3b45:	f3 0f 1e fa          	endbr64 
    3b49:	55                   	push   %rbp
    3b4a:	48 89 e5             	mov    %rsp,%rbp
    3b4d:	89 f8                	mov    %edi,%eax
    3b4f:	88 45 fc             	mov    %al,-0x4(%rbp)
    3b52:	0f b6 45 fc          	movzbl -0x4(%rbp),%eax
    3b56:	f7 d8                	neg    %eax
    3b58:	5d                   	pop    %rbp
    3b59:	c3                   	retq   

0000000000003b5a <safe_add_func_uint8_t_u_u>:
    3b5a:	f3 0f 1e fa          	endbr64 
    3b5e:	55                   	push   %rbp
    3b5f:	48 89 e5             	mov    %rsp,%rbp
    3b62:	89 fa                	mov    %edi,%edx
    3b64:	89 f0                	mov    %esi,%eax
    3b66:	88 55 fc             	mov    %dl,-0x4(%rbp)
    3b69:	88 45 f8             	mov    %al,-0x8(%rbp)
    3b6c:	0f b6 55 fc          	movzbl -0x4(%rbp),%edx
    3b70:	0f b6 45 f8          	movzbl -0x8(%rbp),%eax
    3b74:	01 d0                	add    %edx,%eax
    3b76:	5d                   	pop    %rbp
    3b77:	c3                   	retq   

0000000000003b78 <safe_sub_func_uint8_t_u_u>:
    3b78:	f3 0f 1e fa          	endbr64 
    3b7c:	55                   	push   %rbp
    3b7d:	48 89 e5             	mov    %rsp,%rbp
    3b80:	89 fa                	mov    %edi,%edx
    3b82:	89 f0                	mov    %esi,%eax
    3b84:	88 55 fc             	mov    %dl,-0x4(%rbp)
    3b87:	88 45 f8             	mov    %al,-0x8(%rbp)
    3b8a:	0f b6 45 fc          	movzbl -0x4(%rbp),%eax
    3b8e:	2a 45 f8             	sub    -0x8(%rbp),%al
    3b91:	5d                   	pop    %rbp
    3b92:	c3                   	retq   

0000000000003b93 <safe_mul_func_uint8_t_u_u>:
    3b93:	f3 0f 1e fa          	endbr64 
    3b97:	55                   	push   %rbp
    3b98:	48 89 e5             	mov    %rsp,%rbp
    3b9b:	89 fa                	mov    %edi,%edx
    3b9d:	89 f0                	mov    %esi,%eax
    3b9f:	88 55 fc             	mov    %dl,-0x4(%rbp)
    3ba2:	88 45 f8             	mov    %al,-0x8(%rbp)
    3ba5:	0f b6 45 fc          	movzbl -0x4(%rbp),%eax
    3ba9:	f6 65 f8             	mulb   -0x8(%rbp)
    3bac:	5d                   	pop    %rbp
    3bad:	c3                   	retq   

0000000000003bae <safe_mod_func_uint8_t_u_u>:
    3bae:	f3 0f 1e fa          	endbr64 
    3bb2:	55                   	push   %rbp
    3bb3:	48 89 e5             	mov    %rsp,%rbp
    3bb6:	89 fa                	mov    %edi,%edx
    3bb8:	89 f0                	mov    %esi,%eax
    3bba:	88 55 fc             	mov    %dl,-0x4(%rbp)
    3bbd:	88 45 f8             	mov    %al,-0x8(%rbp)
    3bc0:	80 7d f8 00          	cmpb   $0x0,-0x8(%rbp)
    3bc4:	74 0f                	je     3bd5 <safe_mod_func_uint8_t_u_u+0x27>
    3bc6:	0f b6 45 fc          	movzbl -0x4(%rbp),%eax
    3bca:	0f b6 c0             	movzbl %al,%eax
    3bcd:	f6 75 f8             	divb   -0x8(%rbp)
    3bd0:	0f b6 c4             	movzbl %ah,%eax
    3bd3:	eb 04                	jmp    3bd9 <safe_mod_func_uint8_t_u_u+0x2b>
    3bd5:	0f b6 45 fc          	movzbl -0x4(%rbp),%eax
    3bd9:	5d                   	pop    %rbp
    3bda:	c3                   	retq   

0000000000003bdb <safe_div_func_uint8_t_u_u>:
    3bdb:	f3 0f 1e fa          	endbr64 
    3bdf:	55                   	push   %rbp
    3be0:	48 89 e5             	mov    %rsp,%rbp
    3be3:	89 fa                	mov    %edi,%edx
    3be5:	89 f0                	mov    %esi,%eax
    3be7:	88 55 fc             	mov    %dl,-0x4(%rbp)
    3bea:	88 45 f8             	mov    %al,-0x8(%rbp)
    3bed:	80 7d f8 00          	cmpb   $0x0,-0x8(%rbp)
    3bf1:	74 0c                	je     3bff <safe_div_func_uint8_t_u_u+0x24>
    3bf3:	0f b6 45 fc          	movzbl -0x4(%rbp),%eax
    3bf7:	0f b6 c0             	movzbl %al,%eax
    3bfa:	f6 75 f8             	divb   -0x8(%rbp)
    3bfd:	eb 04                	jmp    3c03 <safe_div_func_uint8_t_u_u+0x28>
    3bff:	0f b6 45 fc          	movzbl -0x4(%rbp),%eax
    3c03:	5d                   	pop    %rbp
    3c04:	c3                   	retq   

0000000000003c05 <safe_lshift_func_uint8_t_u_s>:
    3c05:	f3 0f 1e fa          	endbr64 
    3c09:	55                   	push   %rbp
    3c0a:	48 89 e5             	mov    %rsp,%rbp
    3c0d:	89 f8                	mov    %edi,%eax
    3c0f:	89 75 f8             	mov    %esi,-0x8(%rbp)
    3c12:	88 45 fc             	mov    %al,-0x4(%rbp)
    3c15:	83 7d f8 00          	cmpl   $0x0,-0x8(%rbp)
    3c19:	78 2b                	js     3c46 <safe_lshift_func_uint8_t_u_s+0x41>
    3c1b:	83 7d f8 1f          	cmpl   $0x1f,-0x8(%rbp)
    3c1f:	7f 25                	jg     3c46 <safe_lshift_func_uint8_t_u_s+0x41>
    3c21:	0f b6 55 fc          	movzbl -0x4(%rbp),%edx
    3c25:	8b 45 f8             	mov    -0x8(%rbp),%eax
    3c28:	be ff 00 00 00       	mov    $0xff,%esi
    3c2d:	89 c1                	mov    %eax,%ecx
    3c2f:	d3 fe                	sar    %cl,%esi
    3c31:	89 f0                	mov    %esi,%eax
    3c33:	39 c2                	cmp    %eax,%edx
    3c35:	7f 0f                	jg     3c46 <safe_lshift_func_uint8_t_u_s+0x41>
    3c37:	0f b6 55 fc          	movzbl -0x4(%rbp),%edx
    3c3b:	8b 45 f8             	mov    -0x8(%rbp),%eax
    3c3e:	89 c1                	mov    %eax,%ecx
    3c40:	d3 e2                	shl    %cl,%edx
    3c42:	89 d0                	mov    %edx,%eax
    3c44:	eb 04                	jmp    3c4a <safe_lshift_func_uint8_t_u_s+0x45>
    3c46:	0f b6 45 fc          	movzbl -0x4(%rbp),%eax
    3c4a:	5d                   	pop    %rbp
    3c4b:	c3                   	retq   

0000000000003c4c <safe_lshift_func_uint8_t_u_u>:
    3c4c:	f3 0f 1e fa          	endbr64 
    3c50:	55                   	push   %rbp
    3c51:	48 89 e5             	mov    %rsp,%rbp
    3c54:	89 f8                	mov    %edi,%eax
    3c56:	89 75 f8             	mov    %esi,-0x8(%rbp)
    3c59:	88 45 fc             	mov    %al,-0x4(%rbp)
    3c5c:	83 7d f8 1f          	cmpl   $0x1f,-0x8(%rbp)
    3c60:	77 25                	ja     3c87 <safe_lshift_func_uint8_t_u_u+0x3b>
    3c62:	0f b6 55 fc          	movzbl -0x4(%rbp),%edx
    3c66:	8b 45 f8             	mov    -0x8(%rbp),%eax
    3c69:	be ff 00 00 00       	mov    $0xff,%esi
    3c6e:	89 c1                	mov    %eax,%ecx
    3c70:	d3 fe                	sar    %cl,%esi
    3c72:	89 f0                	mov    %esi,%eax
    3c74:	39 c2                	cmp    %eax,%edx
    3c76:	7f 0f                	jg     3c87 <safe_lshift_func_uint8_t_u_u+0x3b>
    3c78:	0f b6 55 fc          	movzbl -0x4(%rbp),%edx
    3c7c:	8b 45 f8             	mov    -0x8(%rbp),%eax
    3c7f:	89 c1                	mov    %eax,%ecx
    3c81:	d3 e2                	shl    %cl,%edx
    3c83:	89 d0                	mov    %edx,%eax
    3c85:	eb 04                	jmp    3c8b <safe_lshift_func_uint8_t_u_u+0x3f>
    3c87:	0f b6 45 fc          	movzbl -0x4(%rbp),%eax
    3c8b:	5d                   	pop    %rbp
    3c8c:	c3                   	retq   

0000000000003c8d <safe_rshift_func_uint8_t_u_s>:
    3c8d:	f3 0f 1e fa          	endbr64 
    3c91:	55                   	push   %rbp
    3c92:	48 89 e5             	mov    %rsp,%rbp
    3c95:	89 f8                	mov    %edi,%eax
    3c97:	89 75 f8             	mov    %esi,-0x8(%rbp)
    3c9a:	88 45 fc             	mov    %al,-0x4(%rbp)
    3c9d:	83 7d f8 00          	cmpl   $0x0,-0x8(%rbp)
    3ca1:	78 15                	js     3cb8 <safe_rshift_func_uint8_t_u_s+0x2b>
    3ca3:	83 7d f8 1f          	cmpl   $0x1f,-0x8(%rbp)
    3ca7:	7f 0f                	jg     3cb8 <safe_rshift_func_uint8_t_u_s+0x2b>
    3ca9:	0f b6 55 fc          	movzbl -0x4(%rbp),%edx
    3cad:	8b 45 f8             	mov    -0x8(%rbp),%eax
    3cb0:	89 c1                	mov    %eax,%ecx
    3cb2:	d3 fa                	sar    %cl,%edx
    3cb4:	89 d0                	mov    %edx,%eax
    3cb6:	eb 04                	jmp    3cbc <safe_rshift_func_uint8_t_u_s+0x2f>
    3cb8:	0f b6 45 fc          	movzbl -0x4(%rbp),%eax
    3cbc:	5d                   	pop    %rbp
    3cbd:	c3                   	retq   

0000000000003cbe <safe_rshift_func_uint8_t_u_u>:
    3cbe:	f3 0f 1e fa          	endbr64 
    3cc2:	55                   	push   %rbp
    3cc3:	48 89 e5             	mov    %rsp,%rbp
    3cc6:	89 f8                	mov    %edi,%eax
    3cc8:	89 75 f8             	mov    %esi,-0x8(%rbp)
    3ccb:	88 45 fc             	mov    %al,-0x4(%rbp)
    3cce:	83 7d f8 1f          	cmpl   $0x1f,-0x8(%rbp)
    3cd2:	77 0f                	ja     3ce3 <safe_rshift_func_uint8_t_u_u+0x25>
    3cd4:	0f b6 55 fc          	movzbl -0x4(%rbp),%edx
    3cd8:	8b 45 f8             	mov    -0x8(%rbp),%eax
    3cdb:	89 c1                	mov    %eax,%ecx
    3cdd:	d3 fa                	sar    %cl,%edx
    3cdf:	89 d0                	mov    %edx,%eax
    3ce1:	eb 04                	jmp    3ce7 <safe_rshift_func_uint8_t_u_u+0x29>
    3ce3:	0f b6 45 fc          	movzbl -0x4(%rbp),%eax
    3ce7:	5d                   	pop    %rbp
    3ce8:	c3                   	retq   

0000000000003ce9 <safe_unary_minus_func_uint16_t_u>:
    3ce9:	f3 0f 1e fa          	endbr64 
    3ced:	55                   	push   %rbp
    3cee:	48 89 e5             	mov    %rsp,%rbp
    3cf1:	89 f8                	mov    %edi,%eax
    3cf3:	66 89 45 fc          	mov    %ax,-0x4(%rbp)
    3cf7:	0f b7 45 fc          	movzwl -0x4(%rbp),%eax
    3cfb:	f7 d8                	neg    %eax
    3cfd:	5d                   	pop    %rbp
    3cfe:	c3                   	retq   

0000000000003cff <safe_add_func_uint16_t_u_u>:
    3cff:	f3 0f 1e fa          	endbr64 
    3d03:	55                   	push   %rbp
    3d04:	48 89 e5             	mov    %rsp,%rbp
    3d07:	89 fa                	mov    %edi,%edx
    3d09:	89 f0                	mov    %esi,%eax
    3d0b:	66 89 55 fc          	mov    %dx,-0x4(%rbp)
    3d0f:	66 89 45 f8          	mov    %ax,-0x8(%rbp)
    3d13:	0f b7 55 fc          	movzwl -0x4(%rbp),%edx
    3d17:	0f b7 45 f8          	movzwl -0x8(%rbp),%eax
    3d1b:	01 d0                	add    %edx,%eax
    3d1d:	5d                   	pop    %rbp
    3d1e:	c3                   	retq   

0000000000003d1f <safe_sub_func_uint16_t_u_u>:
    3d1f:	f3 0f 1e fa          	endbr64 
    3d23:	55                   	push   %rbp
    3d24:	48 89 e5             	mov    %rsp,%rbp
    3d27:	89 fa                	mov    %edi,%edx
    3d29:	89 f0                	mov    %esi,%eax
    3d2b:	66 89 55 fc          	mov    %dx,-0x4(%rbp)
    3d2f:	66 89 45 f8          	mov    %ax,-0x8(%rbp)
    3d33:	0f b7 45 fc          	movzwl -0x4(%rbp),%eax
    3d37:	66 2b 45 f8          	sub    -0x8(%rbp),%ax
    3d3b:	5d                   	pop    %rbp
    3d3c:	c3                   	retq   

0000000000003d3d <safe_mul_func_uint16_t_u_u>:
    3d3d:	f3 0f 1e fa          	endbr64 
    3d41:	55                   	push   %rbp
    3d42:	48 89 e5             	mov    %rsp,%rbp
    3d45:	89 fa                	mov    %edi,%edx
    3d47:	89 f0                	mov    %esi,%eax
    3d49:	66 89 55 fc          	mov    %dx,-0x4(%rbp)
    3d4d:	66 89 45 f8          	mov    %ax,-0x8(%rbp)
    3d51:	0f b7 45 fc          	movzwl -0x4(%rbp),%eax
    3d55:	66 0f af 45 f8       	imul   -0x8(%rbp),%ax
    3d5a:	5d                   	pop    %rbp
    3d5b:	c3                   	retq   

0000000000003d5c <safe_mod_func_uint16_t_u_u>:
    3d5c:	f3 0f 1e fa          	endbr64 
    3d60:	55                   	push   %rbp
    3d61:	48 89 e5             	mov    %rsp,%rbp
    3d64:	89 fa                	mov    %edi,%edx
    3d66:	89 f0                	mov    %esi,%eax
    3d68:	66 89 55 fc          	mov    %dx,-0x4(%rbp)
    3d6c:	66 89 45 f8          	mov    %ax,-0x8(%rbp)
    3d70:	66 83 7d f8 00       	cmpw   $0x0,-0x8(%rbp)
    3d75:	74 11                	je     3d88 <safe_mod_func_uint16_t_u_u+0x2c>
    3d77:	0f b7 45 fc          	movzwl -0x4(%rbp),%eax
    3d7b:	ba 00 00 00 00       	mov    $0x0,%edx
    3d80:	66 f7 75 f8          	divw   -0x8(%rbp)
    3d84:	89 d0                	mov    %edx,%eax
    3d86:	eb 04                	jmp    3d8c <safe_mod_func_uint16_t_u_u+0x30>
    3d88:	0f b7 45 fc          	movzwl -0x4(%rbp),%eax
    3d8c:	5d                   	pop    %rbp
    3d8d:	c3                   	retq   

0000000000003d8e <safe_div_func_uint16_t_u_u>:
    3d8e:	f3 0f 1e fa          	endbr64 
    3d92:	55                   	push   %rbp
    3d93:	48 89 e5             	mov    %rsp,%rbp
    3d96:	89 fa                	mov    %edi,%edx
    3d98:	89 f0                	mov    %esi,%eax
    3d9a:	66 89 55 fc          	mov    %dx,-0x4(%rbp)
    3d9e:	66 89 45 f8          	mov    %ax,-0x8(%rbp)
    3da2:	66 83 7d f8 00       	cmpw   $0x0,-0x8(%rbp)
    3da7:	74 0f                	je     3db8 <safe_div_func_uint16_t_u_u+0x2a>
    3da9:	0f b7 45 fc          	movzwl -0x4(%rbp),%eax
    3dad:	ba 00 00 00 00       	mov    $0x0,%edx
    3db2:	66 f7 75 f8          	divw   -0x8(%rbp)
    3db6:	eb 04                	jmp    3dbc <safe_div_func_uint16_t_u_u+0x2e>
    3db8:	0f b7 45 fc          	movzwl -0x4(%rbp),%eax
    3dbc:	5d                   	pop    %rbp
    3dbd:	c3                   	retq   

0000000000003dbe <safe_lshift_func_uint16_t_u_s>:
    3dbe:	f3 0f 1e fa          	endbr64 
    3dc2:	55                   	push   %rbp
    3dc3:	48 89 e5             	mov    %rsp,%rbp
    3dc6:	89 f8                	mov    %edi,%eax
    3dc8:	89 75 f8             	mov    %esi,-0x8(%rbp)
    3dcb:	66 89 45 fc          	mov    %ax,-0x4(%rbp)
    3dcf:	83 7d f8 00          	cmpl   $0x0,-0x8(%rbp)
    3dd3:	78 2b                	js     3e00 <safe_lshift_func_uint16_t_u_s+0x42>
    3dd5:	83 7d f8 1f          	cmpl   $0x1f,-0x8(%rbp)
    3dd9:	7f 25                	jg     3e00 <safe_lshift_func_uint16_t_u_s+0x42>
    3ddb:	0f b7 55 fc          	movzwl -0x4(%rbp),%edx
    3ddf:	8b 45 f8             	mov    -0x8(%rbp),%eax
    3de2:	be ff ff 00 00       	mov    $0xffff,%esi
    3de7:	89 c1                	mov    %eax,%ecx
    3de9:	d3 fe                	sar    %cl,%esi
    3deb:	89 f0                	mov    %esi,%eax
    3ded:	39 c2                	cmp    %eax,%edx
    3def:	7f 0f                	jg     3e00 <safe_lshift_func_uint16_t_u_s+0x42>
    3df1:	0f b7 55 fc          	movzwl -0x4(%rbp),%edx
    3df5:	8b 45 f8             	mov    -0x8(%rbp),%eax
    3df8:	89 c1                	mov    %eax,%ecx
    3dfa:	d3 e2                	shl    %cl,%edx
    3dfc:	89 d0                	mov    %edx,%eax
    3dfe:	eb 04                	jmp    3e04 <safe_lshift_func_uint16_t_u_s+0x46>
    3e00:	0f b7 45 fc          	movzwl -0x4(%rbp),%eax
    3e04:	5d                   	pop    %rbp
    3e05:	c3                   	retq   

0000000000003e06 <safe_lshift_func_uint16_t_u_u>:
    3e06:	f3 0f 1e fa          	endbr64 
    3e0a:	55                   	push   %rbp
    3e0b:	48 89 e5             	mov    %rsp,%rbp
    3e0e:	89 f8                	mov    %edi,%eax
    3e10:	89 75 f8             	mov    %esi,-0x8(%rbp)
    3e13:	66 89 45 fc          	mov    %ax,-0x4(%rbp)
    3e17:	83 7d f8 1f          	cmpl   $0x1f,-0x8(%rbp)
    3e1b:	77 25                	ja     3e42 <safe_lshift_func_uint16_t_u_u+0x3c>
    3e1d:	0f b7 55 fc          	movzwl -0x4(%rbp),%edx
    3e21:	8b 45 f8             	mov    -0x8(%rbp),%eax
    3e24:	be ff ff 00 00       	mov    $0xffff,%esi
    3e29:	89 c1                	mov    %eax,%ecx
    3e2b:	d3 fe                	sar    %cl,%esi
    3e2d:	89 f0                	mov    %esi,%eax
    3e2f:	39 c2                	cmp    %eax,%edx
    3e31:	7f 0f                	jg     3e42 <safe_lshift_func_uint16_t_u_u+0x3c>
    3e33:	0f b7 55 fc          	movzwl -0x4(%rbp),%edx
    3e37:	8b 45 f8             	mov    -0x8(%rbp),%eax
    3e3a:	89 c1                	mov    %eax,%ecx
    3e3c:	d3 e2                	shl    %cl,%edx
    3e3e:	89 d0                	mov    %edx,%eax
    3e40:	eb 04                	jmp    3e46 <safe_lshift_func_uint16_t_u_u+0x40>
    3e42:	0f b7 45 fc          	movzwl -0x4(%rbp),%eax
    3e46:	5d                   	pop    %rbp
    3e47:	c3                   	retq   

0000000000003e48 <safe_rshift_func_uint16_t_u_s>:
    3e48:	f3 0f 1e fa          	endbr64 
    3e4c:	55                   	push   %rbp
    3e4d:	48 89 e5             	mov    %rsp,%rbp
    3e50:	89 f8                	mov    %edi,%eax
    3e52:	89 75 f8             	mov    %esi,-0x8(%rbp)
    3e55:	66 89 45 fc          	mov    %ax,-0x4(%rbp)
    3e59:	83 7d f8 00          	cmpl   $0x0,-0x8(%rbp)
    3e5d:	78 15                	js     3e74 <safe_rshift_func_uint16_t_u_s+0x2c>
    3e5f:	83 7d f8 1f          	cmpl   $0x1f,-0x8(%rbp)
    3e63:	7f 0f                	jg     3e74 <safe_rshift_func_uint16_t_u_s+0x2c>
    3e65:	0f b7 55 fc          	movzwl -0x4(%rbp),%edx
    3e69:	8b 45 f8             	mov    -0x8(%rbp),%eax
    3e6c:	89 c1                	mov    %eax,%ecx
    3e6e:	d3 fa                	sar    %cl,%edx
    3e70:	89 d0                	mov    %edx,%eax
    3e72:	eb 04                	jmp    3e78 <safe_rshift_func_uint16_t_u_s+0x30>
    3e74:	0f b7 45 fc          	movzwl -0x4(%rbp),%eax
    3e78:	5d                   	pop    %rbp
    3e79:	c3                   	retq   

0000000000003e7a <safe_rshift_func_uint16_t_u_u>:
    3e7a:	f3 0f 1e fa          	endbr64 
    3e7e:	55                   	push   %rbp
    3e7f:	48 89 e5             	mov    %rsp,%rbp
    3e82:	89 f8                	mov    %edi,%eax
    3e84:	89 75 f8             	mov    %esi,-0x8(%rbp)
    3e87:	66 89 45 fc          	mov    %ax,-0x4(%rbp)
    3e8b:	83 7d f8 1f          	cmpl   $0x1f,-0x8(%rbp)
    3e8f:	77 0f                	ja     3ea0 <safe_rshift_func_uint16_t_u_u+0x26>
    3e91:	0f b7 55 fc          	movzwl -0x4(%rbp),%edx
    3e95:	8b 45 f8             	mov    -0x8(%rbp),%eax
    3e98:	89 c1                	mov    %eax,%ecx
    3e9a:	d3 fa                	sar    %cl,%edx
    3e9c:	89 d0                	mov    %edx,%eax
    3e9e:	eb 04                	jmp    3ea4 <safe_rshift_func_uint16_t_u_u+0x2a>
    3ea0:	0f b7 45 fc          	movzwl -0x4(%rbp),%eax
    3ea4:	5d                   	pop    %rbp
    3ea5:	c3                   	retq   

0000000000003ea6 <safe_unary_minus_func_uint32_t_u>:
    3ea6:	f3 0f 1e fa          	endbr64 
    3eaa:	55                   	push   %rbp
    3eab:	48 89 e5             	mov    %rsp,%rbp
    3eae:	89 7d fc             	mov    %edi,-0x4(%rbp)
    3eb1:	8b 45 fc             	mov    -0x4(%rbp),%eax
    3eb4:	f7 d8                	neg    %eax
    3eb6:	5d                   	pop    %rbp
    3eb7:	c3                   	retq   

0000000000003eb8 <safe_add_func_uint32_t_u_u>:
    3eb8:	f3 0f 1e fa          	endbr64 
    3ebc:	55                   	push   %rbp
    3ebd:	48 89 e5             	mov    %rsp,%rbp
    3ec0:	89 7d fc             	mov    %edi,-0x4(%rbp)
    3ec3:	89 75 f8             	mov    %esi,-0x8(%rbp)
    3ec6:	8b 55 fc             	mov    -0x4(%rbp),%edx
    3ec9:	8b 45 f8             	mov    -0x8(%rbp),%eax
    3ecc:	01 d0                	add    %edx,%eax
    3ece:	5d                   	pop    %rbp
    3ecf:	c3                   	retq   

0000000000003ed0 <safe_sub_func_uint32_t_u_u>:
    3ed0:	f3 0f 1e fa          	endbr64 
    3ed4:	55                   	push   %rbp
    3ed5:	48 89 e5             	mov    %rsp,%rbp
    3ed8:	89 7d fc             	mov    %edi,-0x4(%rbp)
    3edb:	89 75 f8             	mov    %esi,-0x8(%rbp)
    3ede:	8b 45 fc             	mov    -0x4(%rbp),%eax
    3ee1:	2b 45 f8             	sub    -0x8(%rbp),%eax
    3ee4:	5d                   	pop    %rbp
    3ee5:	c3                   	retq   

0000000000003ee6 <safe_mul_func_uint32_t_u_u>:
    3ee6:	f3 0f 1e fa          	endbr64 
    3eea:	55                   	push   %rbp
    3eeb:	48 89 e5             	mov    %rsp,%rbp
    3eee:	89 7d fc             	mov    %edi,-0x4(%rbp)
    3ef1:	89 75 f8             	mov    %esi,-0x8(%rbp)
    3ef4:	8b 45 fc             	mov    -0x4(%rbp),%eax
    3ef7:	0f af 45 f8          	imul   -0x8(%rbp),%eax
    3efb:	5d                   	pop    %rbp
    3efc:	c3                   	retq   

0000000000003efd <safe_mod_func_uint32_t_u_u>:
    3efd:	f3 0f 1e fa          	endbr64 
    3f01:	55                   	push   %rbp
    3f02:	48 89 e5             	mov    %rsp,%rbp
    3f05:	89 7d fc             	mov    %edi,-0x4(%rbp)
    3f08:	89 75 f8             	mov    %esi,-0x8(%rbp)
    3f0b:	83 7d f8 00          	cmpl   $0x0,-0x8(%rbp)
    3f0f:	74 0f                	je     3f20 <safe_mod_func_uint32_t_u_u+0x23>
    3f11:	8b 45 fc             	mov    -0x4(%rbp),%eax
    3f14:	ba 00 00 00 00       	mov    $0x0,%edx
    3f19:	f7 75 f8             	divl   -0x8(%rbp)
    3f1c:	89 d0                	mov    %edx,%eax
    3f1e:	eb 03                	jmp    3f23 <safe_mod_func_uint32_t_u_u+0x26>
    3f20:	8b 45 fc             	mov    -0x4(%rbp),%eax
    3f23:	5d                   	pop    %rbp
    3f24:	c3                   	retq   

0000000000003f25 <safe_div_func_uint32_t_u_u>:
    3f25:	f3 0f 1e fa          	endbr64 
    3f29:	55                   	push   %rbp
    3f2a:	48 89 e5             	mov    %rsp,%rbp
    3f2d:	89 7d fc             	mov    %edi,-0x4(%rbp)
    3f30:	89 75 f8             	mov    %esi,-0x8(%rbp)
    3f33:	83 7d f8 00          	cmpl   $0x0,-0x8(%rbp)
    3f37:	74 0d                	je     3f46 <safe_div_func_uint32_t_u_u+0x21>
    3f39:	8b 45 fc             	mov    -0x4(%rbp),%eax
    3f3c:	ba 00 00 00 00       	mov    $0x0,%edx
    3f41:	f7 75 f8             	divl   -0x8(%rbp)
    3f44:	eb 03                	jmp    3f49 <safe_div_func_uint32_t_u_u+0x24>
    3f46:	8b 45 fc             	mov    -0x4(%rbp),%eax
    3f49:	5d                   	pop    %rbp
    3f4a:	c3                   	retq   

0000000000003f4b <safe_lshift_func_uint32_t_u_s>:
    3f4b:	f3 0f 1e fa          	endbr64 
    3f4f:	55                   	push   %rbp
    3f50:	48 89 e5             	mov    %rsp,%rbp
    3f53:	89 7d fc             	mov    %edi,-0x4(%rbp)
    3f56:	89 75 f8             	mov    %esi,-0x8(%rbp)
    3f59:	83 7d f8 00          	cmpl   $0x0,-0x8(%rbp)
    3f5d:	78 27                	js     3f86 <safe_lshift_func_uint32_t_u_s+0x3b>
    3f5f:	83 7d f8 1f          	cmpl   $0x1f,-0x8(%rbp)
    3f63:	7f 21                	jg     3f86 <safe_lshift_func_uint32_t_u_s+0x3b>
    3f65:	8b 45 f8             	mov    -0x8(%rbp),%eax
    3f68:	ba ff ff ff ff       	mov    $0xffffffff,%edx
    3f6d:	89 c1                	mov    %eax,%ecx
    3f6f:	d3 ea                	shr    %cl,%edx
    3f71:	89 d0                	mov    %edx,%eax
    3f73:	39 45 fc             	cmp    %eax,-0x4(%rbp)
    3f76:	77 0e                	ja     3f86 <safe_lshift_func_uint32_t_u_s+0x3b>
    3f78:	8b 45 f8             	mov    -0x8(%rbp),%eax
    3f7b:	8b 55 fc             	mov    -0x4(%rbp),%edx
    3f7e:	89 c1                	mov    %eax,%ecx
    3f80:	d3 e2                	shl    %cl,%edx
    3f82:	89 d0                	mov    %edx,%eax
    3f84:	eb 03                	jmp    3f89 <safe_lshift_func_uint32_t_u_s+0x3e>
    3f86:	8b 45 fc             	mov    -0x4(%rbp),%eax
    3f89:	5d                   	pop    %rbp
    3f8a:	c3                   	retq   

0000000000003f8b <safe_lshift_func_uint32_t_u_u>:
    3f8b:	f3 0f 1e fa          	endbr64 
    3f8f:	55                   	push   %rbp
    3f90:	48 89 e5             	mov    %rsp,%rbp
    3f93:	89 7d fc             	mov    %edi,-0x4(%rbp)
    3f96:	89 75 f8             	mov    %esi,-0x8(%rbp)
    3f99:	83 7d f8 1f          	cmpl   $0x1f,-0x8(%rbp)
    3f9d:	77 21                	ja     3fc0 <safe_lshift_func_uint32_t_u_u+0x35>
    3f9f:	8b 45 f8             	mov    -0x8(%rbp),%eax
    3fa2:	ba ff ff ff ff       	mov    $0xffffffff,%edx
    3fa7:	89 c1                	mov    %eax,%ecx
    3fa9:	d3 ea                	shr    %cl,%edx
    3fab:	89 d0                	mov    %edx,%eax
    3fad:	39 45 fc             	cmp    %eax,-0x4(%rbp)
    3fb0:	77 0e                	ja     3fc0 <safe_lshift_func_uint32_t_u_u+0x35>
    3fb2:	8b 45 f8             	mov    -0x8(%rbp),%eax
    3fb5:	8b 55 fc             	mov    -0x4(%rbp),%edx
    3fb8:	89 c1                	mov    %eax,%ecx
    3fba:	d3 e2                	shl    %cl,%edx
    3fbc:	89 d0                	mov    %edx,%eax
    3fbe:	eb 03                	jmp    3fc3 <safe_lshift_func_uint32_t_u_u+0x38>
    3fc0:	8b 45 fc             	mov    -0x4(%rbp),%eax
    3fc3:	5d                   	pop    %rbp
    3fc4:	c3                   	retq   

0000000000003fc5 <safe_rshift_func_uint32_t_u_s>:
    3fc5:	f3 0f 1e fa          	endbr64 
    3fc9:	55                   	push   %rbp
    3fca:	48 89 e5             	mov    %rsp,%rbp
    3fcd:	89 7d fc             	mov    %edi,-0x4(%rbp)
    3fd0:	89 75 f8             	mov    %esi,-0x8(%rbp)
    3fd3:	83 7d f8 00          	cmpl   $0x0,-0x8(%rbp)
    3fd7:	78 14                	js     3fed <safe_rshift_func_uint32_t_u_s+0x28>
    3fd9:	83 7d f8 1f          	cmpl   $0x1f,-0x8(%rbp)
    3fdd:	7f 0e                	jg     3fed <safe_rshift_func_uint32_t_u_s+0x28>
    3fdf:	8b 45 f8             	mov    -0x8(%rbp),%eax
    3fe2:	8b 55 fc             	mov    -0x4(%rbp),%edx
    3fe5:	89 c1                	mov    %eax,%ecx
    3fe7:	d3 ea                	shr    %cl,%edx
    3fe9:	89 d0                	mov    %edx,%eax
    3feb:	eb 03                	jmp    3ff0 <safe_rshift_func_uint32_t_u_s+0x2b>
    3fed:	8b 45 fc             	mov    -0x4(%rbp),%eax
    3ff0:	5d                   	pop    %rbp
    3ff1:	c3                   	retq   

0000000000003ff2 <safe_rshift_func_uint32_t_u_u>:
    3ff2:	f3 0f 1e fa          	endbr64 
    3ff6:	55                   	push   %rbp
    3ff7:	48 89 e5             	mov    %rsp,%rbp
    3ffa:	89 7d fc             	mov    %edi,-0x4(%rbp)
    3ffd:	89 75 f8             	mov    %esi,-0x8(%rbp)
    4000:	83 7d f8 1f          	cmpl   $0x1f,-0x8(%rbp)
    4004:	77 0e                	ja     4014 <safe_rshift_func_uint32_t_u_u+0x22>
    4006:	8b 45 f8             	mov    -0x8(%rbp),%eax
    4009:	8b 55 fc             	mov    -0x4(%rbp),%edx
    400c:	89 c1                	mov    %eax,%ecx
    400e:	d3 ea                	shr    %cl,%edx
    4010:	89 d0                	mov    %edx,%eax
    4012:	eb 03                	jmp    4017 <safe_rshift_func_uint32_t_u_u+0x25>
    4014:	8b 45 fc             	mov    -0x4(%rbp),%eax
    4017:	5d                   	pop    %rbp
    4018:	c3                   	retq   

0000000000004019 <safe_unary_minus_func_uint64_t_u>:
    4019:	f3 0f 1e fa          	endbr64 
    401d:	55                   	push   %rbp
    401e:	48 89 e5             	mov    %rsp,%rbp
    4021:	48 89 7d f8          	mov    %rdi,-0x8(%rbp)
    4025:	48 8b 45 f8          	mov    -0x8(%rbp),%rax
    4029:	48 f7 d8             	neg    %rax
    402c:	5d                   	pop    %rbp
    402d:	c3                   	retq   

000000000000402e <safe_add_func_uint64_t_u_u>:
    402e:	f3 0f 1e fa          	endbr64 
    4032:	55                   	push   %rbp
    4033:	48 89 e5             	mov    %rsp,%rbp
    4036:	48 89 7d f8          	mov    %rdi,-0x8(%rbp)
    403a:	48 89 75 f0          	mov    %rsi,-0x10(%rbp)
    403e:	48 8b 55 f8          	mov    -0x8(%rbp),%rdx
    4042:	48 8b 45 f0          	mov    -0x10(%rbp),%rax
    4046:	48 01 d0             	add    %rdx,%rax
    4049:	5d                   	pop    %rbp
    404a:	c3                   	retq   

000000000000404b <safe_sub_func_uint64_t_u_u>:
    404b:	f3 0f 1e fa          	endbr64 
    404f:	55                   	push   %rbp
    4050:	48 89 e5             	mov    %rsp,%rbp
    4053:	48 89 7d f8          	mov    %rdi,-0x8(%rbp)
    4057:	48 89 75 f0          	mov    %rsi,-0x10(%rbp)
    405b:	48 8b 45 f8          	mov    -0x8(%rbp),%rax
    405f:	48 2b 45 f0          	sub    -0x10(%rbp),%rax
    4063:	5d                   	pop    %rbp
    4064:	c3                   	retq   

0000000000004065 <safe_mul_func_uint64_t_u_u>:
    4065:	f3 0f 1e fa          	endbr64 
    4069:	55                   	push   %rbp
    406a:	48 89 e5             	mov    %rsp,%rbp
    406d:	48 89 7d f8          	mov    %rdi,-0x8(%rbp)
    4071:	48 89 75 f0          	mov    %rsi,-0x10(%rbp)
    4075:	48 8b 45 f8          	mov    -0x8(%rbp),%rax
    4079:	48 0f af 45 f0       	imul   -0x10(%rbp),%rax
    407e:	5d                   	pop    %rbp
    407f:	c3                   	retq   

0000000000004080 <safe_mod_func_uint64_t_u_u>:
    4080:	f3 0f 1e fa          	endbr64 
    4084:	55                   	push   %rbp
    4085:	48 89 e5             	mov    %rsp,%rbp
    4088:	48 89 7d f8          	mov    %rdi,-0x8(%rbp)
    408c:	48 89 75 f0          	mov    %rsi,-0x10(%rbp)
    4090:	48 83 7d f0 00       	cmpq   $0x0,-0x10(%rbp)
    4095:	74 12                	je     40a9 <safe_mod_func_uint64_t_u_u+0x29>
    4097:	48 8b 45 f8          	mov    -0x8(%rbp),%rax
    409b:	ba 00 00 00 00       	mov    $0x0,%edx
    40a0:	48 f7 75 f0          	divq   -0x10(%rbp)
    40a4:	48 89 d0             	mov    %rdx,%rax
    40a7:	eb 04                	jmp    40ad <safe_mod_func_uint64_t_u_u+0x2d>
    40a9:	48 8b 45 f8          	mov    -0x8(%rbp),%rax
    40ad:	5d                   	pop    %rbp
    40ae:	c3                   	retq   

00000000000040af <safe_div_func_uint64_t_u_u>:
    40af:	f3 0f 1e fa          	endbr64 
    40b3:	55                   	push   %rbp
    40b4:	48 89 e5             	mov    %rsp,%rbp
    40b7:	48 89 7d f8          	mov    %rdi,-0x8(%rbp)
    40bb:	48 89 75 f0          	mov    %rsi,-0x10(%rbp)
    40bf:	48 83 7d f0 00       	cmpq   $0x0,-0x10(%rbp)
    40c4:	74 0f                	je     40d5 <safe_div_func_uint64_t_u_u+0x26>
    40c6:	48 8b 45 f8          	mov    -0x8(%rbp),%rax
    40ca:	ba 00 00 00 00       	mov    $0x0,%edx
    40cf:	48 f7 75 f0          	divq   -0x10(%rbp)
    40d3:	eb 04                	jmp    40d9 <safe_div_func_uint64_t_u_u+0x2a>
    40d5:	48 8b 45 f8          	mov    -0x8(%rbp),%rax
    40d9:	5d                   	pop    %rbp
    40da:	c3                   	retq   

00000000000040db <safe_lshift_func_uint64_t_u_s>:
    40db:	f3 0f 1e fa          	endbr64 
    40df:	55                   	push   %rbp
    40e0:	48 89 e5             	mov    %rsp,%rbp
    40e3:	48 89 7d f8          	mov    %rdi,-0x8(%rbp)
    40e7:	89 75 f4             	mov    %esi,-0xc(%rbp)
    40ea:	83 7d f4 00          	cmpl   $0x0,-0xc(%rbp)
    40ee:	78 2f                	js     411f <safe_lshift_func_uint64_t_u_s+0x44>
    40f0:	83 7d f4 1f          	cmpl   $0x1f,-0xc(%rbp)
    40f4:	7f 29                	jg     411f <safe_lshift_func_uint64_t_u_s+0x44>
    40f6:	8b 45 f4             	mov    -0xc(%rbp),%eax
    40f9:	48 c7 c2 ff ff ff ff 	mov    $0xffffffffffffffff,%rdx
    4100:	89 c1                	mov    %eax,%ecx
    4102:	48 d3 ea             	shr    %cl,%rdx
    4105:	48 89 d0             	mov    %rdx,%rax
    4108:	48 39 45 f8          	cmp    %rax,-0x8(%rbp)
    410c:	77 11                	ja     411f <safe_lshift_func_uint64_t_u_s+0x44>
    410e:	8b 45 f4             	mov    -0xc(%rbp),%eax
    4111:	48 8b 55 f8          	mov    -0x8(%rbp),%rdx
    4115:	89 c1                	mov    %eax,%ecx
    4117:	48 d3 e2             	shl    %cl,%rdx
    411a:	48 89 d0             	mov    %rdx,%rax
    411d:	eb 04                	jmp    4123 <safe_lshift_func_uint64_t_u_s+0x48>
    411f:	48 8b 45 f8          	mov    -0x8(%rbp),%rax
    4123:	5d                   	pop    %rbp
    4124:	c3                   	retq   

0000000000004125 <safe_lshift_func_uint64_t_u_u>:
    4125:	f3 0f 1e fa          	endbr64 
    4129:	55                   	push   %rbp
    412a:	48 89 e5             	mov    %rsp,%rbp
    412d:	48 89 7d f8          	mov    %rdi,-0x8(%rbp)
    4131:	89 75 f4             	mov    %esi,-0xc(%rbp)
    4134:	83 7d f4 1f          	cmpl   $0x1f,-0xc(%rbp)
    4138:	77 29                	ja     4163 <safe_lshift_func_uint64_t_u_u+0x3e>
    413a:	8b 45 f4             	mov    -0xc(%rbp),%eax
    413d:	48 c7 c2 ff ff ff ff 	mov    $0xffffffffffffffff,%rdx
    4144:	89 c1                	mov    %eax,%ecx
    4146:	48 d3 ea             	shr    %cl,%rdx
    4149:	48 89 d0             	mov    %rdx,%rax
    414c:	48 39 45 f8          	cmp    %rax,-0x8(%rbp)
    4150:	77 11                	ja     4163 <safe_lshift_func_uint64_t_u_u+0x3e>
    4152:	8b 45 f4             	mov    -0xc(%rbp),%eax
    4155:	48 8b 55 f8          	mov    -0x8(%rbp),%rdx
    4159:	89 c1                	mov    %eax,%ecx
    415b:	48 d3 e2             	shl    %cl,%rdx
    415e:	48 89 d0             	mov    %rdx,%rax
    4161:	eb 04                	jmp    4167 <safe_lshift_func_uint64_t_u_u+0x42>
    4163:	48 8b 45 f8          	mov    -0x8(%rbp),%rax
    4167:	5d                   	pop    %rbp
    4168:	c3                   	retq   

0000000000004169 <safe_rshift_func_uint64_t_u_s>:
    4169:	f3 0f 1e fa          	endbr64 
    416d:	55                   	push   %rbp
    416e:	48 89 e5             	mov    %rsp,%rbp
    4171:	48 89 7d f8          	mov    %rdi,-0x8(%rbp)
    4175:	89 75 f4             	mov    %esi,-0xc(%rbp)
    4178:	83 7d f4 00          	cmpl   $0x0,-0xc(%rbp)
    417c:	78 17                	js     4195 <safe_rshift_func_uint64_t_u_s+0x2c>
    417e:	83 7d f4 1f          	cmpl   $0x1f,-0xc(%rbp)
    4182:	7f 11                	jg     4195 <safe_rshift_func_uint64_t_u_s+0x2c>
    4184:	8b 45 f4             	mov    -0xc(%rbp),%eax
    4187:	48 8b 55 f8          	mov    -0x8(%rbp),%rdx
    418b:	89 c1                	mov    %eax,%ecx
    418d:	48 d3 ea             	shr    %cl,%rdx
    4190:	48 89 d0             	mov    %rdx,%rax
    4193:	eb 04                	jmp    4199 <safe_rshift_func_uint64_t_u_s+0x30>
    4195:	48 8b 45 f8          	mov    -0x8(%rbp),%rax
    4199:	5d                   	pop    %rbp
    419a:	c3                   	retq   

000000000000419b <safe_rshift_func_uint64_t_u_u>:
    419b:	f3 0f 1e fa          	endbr64 
    419f:	55                   	push   %rbp
    41a0:	48 89 e5             	mov    %rsp,%rbp
    41a3:	48 89 7d f8          	mov    %rdi,-0x8(%rbp)
    41a7:	89 75 f4             	mov    %esi,-0xc(%rbp)
    41aa:	83 7d f4 1f          	cmpl   $0x1f,-0xc(%rbp)
    41ae:	77 11                	ja     41c1 <safe_rshift_func_uint64_t_u_u+0x26>
    41b0:	8b 45 f4             	mov    -0xc(%rbp),%eax
    41b3:	48 8b 55 f8          	mov    -0x8(%rbp),%rdx
    41b7:	89 c1                	mov    %eax,%ecx
    41b9:	48 d3 ea             	shr    %cl,%rdx
    41bc:	48 89 d0             	mov    %rdx,%rax
    41bf:	eb 04                	jmp    41c5 <safe_rshift_func_uint64_t_u_u+0x2a>
    41c1:	48 8b 45 f8          	mov    -0x8(%rbp),%rax
    41c5:	5d                   	pop    %rbp
    41c6:	c3                   	retq   

00000000000041c7 <safe_add_func_float_f_f>:
    41c7:	f3 0f 1e fa          	endbr64 
    41cb:	55                   	push   %rbp
    41cc:	48 89 e5             	mov    %rsp,%rbp
    41cf:	f3 0f 11 45 fc       	movss  %xmm0,-0x4(%rbp)
    41d4:	f3 0f 11 4d f8       	movss  %xmm1,-0x8(%rbp)
    41d9:	f3 0f 10 4d fc       	movss  -0x4(%rbp),%xmm1
    41de:	f3 0f 10 05 ca 9a 00 	movss  0x9aca(%rip),%xmm0        # dcb0 <l_1058.4120+0x230>
    41e5:	00 
    41e6:	f3 0f 59 c8          	mulss  %xmm0,%xmm1
    41ea:	f3 0f 10 55 f8       	movss  -0x8(%rbp),%xmm2
    41ef:	f3 0f 10 05 b9 9a 00 	movss  0x9ab9(%rip),%xmm0        # dcb0 <l_1058.4120+0x230>
    41f6:	00 
    41f7:	f3 0f 59 c2          	mulss  %xmm2,%xmm0
    41fb:	f3 0f 58 c1          	addss  %xmm1,%xmm0
    41ff:	f3 0f 10 0d b9 9a 00 	movss  0x9ab9(%rip),%xmm1        # dcc0 <l_1058.4120+0x240>
    4206:	00 
    4207:	0f 54 c1             	andps  %xmm1,%xmm0
    420a:	0f 2f 05 bf 9a 00 00 	comiss 0x9abf(%rip),%xmm0        # dcd0 <l_1058.4120+0x250>
    4211:	76 07                	jbe    421a <safe_add_func_float_f_f+0x53>
    4213:	f3 0f 10 45 fc       	movss  -0x4(%rbp),%xmm0
    4218:	eb 0a                	jmp    4224 <safe_add_func_float_f_f+0x5d>
    421a:	f3 0f 10 45 fc       	movss  -0x4(%rbp),%xmm0
    421f:	f3 0f 58 45 f8       	addss  -0x8(%rbp),%xmm0
    4224:	5d                   	pop    %rbp
    4225:	c3                   	retq   

0000000000004226 <safe_sub_func_float_f_f>:
    4226:	f3 0f 1e fa          	endbr64 
    422a:	55                   	push   %rbp
    422b:	48 89 e5             	mov    %rsp,%rbp
    422e:	f3 0f 11 45 fc       	movss  %xmm0,-0x4(%rbp)
    4233:	f3 0f 11 4d f8       	movss  %xmm1,-0x8(%rbp)
    4238:	f3 0f 10 4d fc       	movss  -0x4(%rbp),%xmm1
    423d:	f3 0f 10 05 6b 9a 00 	movss  0x9a6b(%rip),%xmm0        # dcb0 <l_1058.4120+0x230>
    4244:	00 
    4245:	f3 0f 59 c1          	mulss  %xmm1,%xmm0
    4249:	f3 0f 10 55 f8       	movss  -0x8(%rbp),%xmm2
    424e:	f3 0f 10 0d 5a 9a 00 	movss  0x9a5a(%rip),%xmm1        # dcb0 <l_1058.4120+0x230>
    4255:	00 
    4256:	f3 0f 59 ca          	mulss  %xmm2,%xmm1
    425a:	f3 0f 5c c1          	subss  %xmm1,%xmm0
    425e:	f3 0f 10 0d 5a 9a 00 	movss  0x9a5a(%rip),%xmm1        # dcc0 <l_1058.4120+0x240>
    4265:	00 
    4266:	0f 54 c1             	andps  %xmm1,%xmm0
    4269:	0f 2f 05 60 9a 00 00 	comiss 0x9a60(%rip),%xmm0        # dcd0 <l_1058.4120+0x250>
    4270:	76 07                	jbe    4279 <safe_sub_func_float_f_f+0x53>
    4272:	f3 0f 10 45 fc       	movss  -0x4(%rbp),%xmm0
    4277:	eb 0a                	jmp    4283 <safe_sub_func_float_f_f+0x5d>
    4279:	f3 0f 10 45 fc       	movss  -0x4(%rbp),%xmm0
    427e:	f3 0f 5c 45 f8       	subss  -0x8(%rbp),%xmm0
    4283:	5d                   	pop    %rbp
    4284:	c3                   	retq   

0000000000004285 <safe_mul_func_float_f_f>:
    4285:	f3 0f 1e fa          	endbr64 
    4289:	55                   	push   %rbp
    428a:	48 89 e5             	mov    %rsp,%rbp
    428d:	f3 0f 11 45 fc       	movss  %xmm0,-0x4(%rbp)
    4292:	f3 0f 11 4d f8       	movss  %xmm1,-0x8(%rbp)
    4297:	f3 0f 10 4d fc       	movss  -0x4(%rbp),%xmm1
    429c:	f3 0f 10 05 30 9a 00 	movss  0x9a30(%rip),%xmm0        # dcd4 <l_1058.4120+0x254>
    42a3:	00 
    42a4:	f3 0f 59 c8          	mulss  %xmm0,%xmm1
    42a8:	f3 0f 10 55 f8       	movss  -0x8(%rbp),%xmm2
    42ad:	f3 0f 10 05 23 9a 00 	movss  0x9a23(%rip),%xmm0        # dcd8 <l_1058.4120+0x258>
    42b4:	00 
    42b5:	f3 0f 59 c2          	mulss  %xmm2,%xmm0
    42b9:	f3 0f 59 c1          	mulss  %xmm1,%xmm0
    42bd:	f3 0f 10 0d fb 99 00 	movss  0x99fb(%rip),%xmm1        # dcc0 <l_1058.4120+0x240>
    42c4:	00 
    42c5:	0f 54 c1             	andps  %xmm1,%xmm0
    42c8:	0f 2f 05 0d 9a 00 00 	comiss 0x9a0d(%rip),%xmm0        # dcdc <l_1058.4120+0x25c>
    42cf:	76 07                	jbe    42d8 <safe_mul_func_float_f_f+0x53>
    42d1:	f3 0f 10 45 fc       	movss  -0x4(%rbp),%xmm0
    42d6:	eb 0a                	jmp    42e2 <safe_mul_func_float_f_f+0x5d>
    42d8:	f3 0f 10 45 fc       	movss  -0x4(%rbp),%xmm0
    42dd:	f3 0f 59 45 f8       	mulss  -0x8(%rbp),%xmm0
    42e2:	5d                   	pop    %rbp
    42e3:	c3                   	retq   

00000000000042e4 <safe_div_func_float_f_f>:
    42e4:	f3 0f 1e fa          	endbr64 
    42e8:	55                   	push   %rbp
    42e9:	48 89 e5             	mov    %rsp,%rbp
    42ec:	f3 0f 11 45 fc       	movss  %xmm0,-0x4(%rbp)
    42f1:	f3 0f 11 4d f8       	movss  %xmm1,-0x8(%rbp)
    42f6:	f3 0f 10 45 f8       	movss  -0x8(%rbp),%xmm0
    42fb:	f3 0f 10 0d bd 99 00 	movss  0x99bd(%rip),%xmm1        # dcc0 <l_1058.4120+0x240>
    4302:	00 
    4303:	0f 54 c8             	andps  %xmm0,%xmm1
    4306:	f3 0f 10 05 d2 99 00 	movss  0x99d2(%rip),%xmm0        # dce0 <l_1058.4120+0x260>
    430d:	00 
    430e:	0f 2f c1             	comiss %xmm1,%xmm0
    4311:	0f 97 c0             	seta   %al
    4314:	83 f0 01             	xor    $0x1,%eax
    4317:	84 c0                	test   %al,%al
    4319:	75 56                	jne    4371 <safe_div_func_float_f_f+0x8d>
    431b:	66 0f ef c0          	pxor   %xmm0,%xmm0
    431f:	0f 2e 45 f8          	ucomiss -0x8(%rbp),%xmm0
    4323:	7a 0a                	jp     432f <safe_div_func_float_f_f+0x4b>
    4325:	66 0f ef c0          	pxor   %xmm0,%xmm0
    4329:	0f 2e 45 f8          	ucomiss -0x8(%rbp),%xmm0
    432d:	74 4e                	je     437d <safe_div_func_float_f_f+0x99>
    432f:	f3 0f 10 4d fc       	movss  -0x4(%rbp),%xmm1
    4334:	f3 0f 10 05 a8 99 00 	movss  0x99a8(%rip),%xmm0        # dce4 <l_1058.4120+0x264>
    433b:	00 
    433c:	f3 0f 59 c1          	mulss  %xmm1,%xmm0
    4340:	f3 0f 10 55 f8       	movss  -0x8(%rbp),%xmm2
    4345:	f3 0f 10 0d 9b 99 00 	movss  0x999b(%rip),%xmm1        # dce8 <l_1058.4120+0x268>
    434c:	00 
    434d:	f3 0f 59 ca          	mulss  %xmm2,%xmm1
    4351:	f3 0f 5e c1          	divss  %xmm1,%xmm0
    4355:	f3 0f 10 0d 63 99 00 	movss  0x9963(%rip),%xmm1        # dcc0 <l_1058.4120+0x240>
    435c:	00 
    435d:	0f 54 c1             	andps  %xmm1,%xmm0
    4360:	0f 2f 05 85 99 00 00 	comiss 0x9985(%rip),%xmm0        # dcec <l_1058.4120+0x26c>
    4367:	0f 97 c0             	seta   %al
    436a:	83 f0 01             	xor    $0x1,%eax
    436d:	84 c0                	test   %al,%al
    436f:	74 0c                	je     437d <safe_div_func_float_f_f+0x99>
    4371:	f3 0f 10 45 fc       	movss  -0x4(%rbp),%xmm0
    4376:	f3 0f 5e 45 f8       	divss  -0x8(%rbp),%xmm0
    437b:	eb 05                	jmp    4382 <safe_div_func_float_f_f+0x9e>
    437d:	f3 0f 10 45 fc       	movss  -0x4(%rbp),%xmm0
    4382:	5d                   	pop    %rbp
    4383:	c3                   	retq   

0000000000004384 <safe_add_func_double_f_f>:
    4384:	f3 0f 1e fa          	endbr64 
    4388:	55                   	push   %rbp
    4389:	48 89 e5             	mov    %rsp,%rbp
    438c:	f2 0f 11 45 f8       	movsd  %xmm0,-0x8(%rbp)
    4391:	f2 0f 11 4d f0       	movsd  %xmm1,-0x10(%rbp)
    4396:	f2 0f 10 4d f8       	movsd  -0x8(%rbp),%xmm1
    439b:	f2 0f 10 05 4d 99 00 	movsd  0x994d(%rip),%xmm0        # dcf0 <l_1058.4120+0x270>
    43a2:	00 
    43a3:	f2 0f 59 c8          	mulsd  %xmm0,%xmm1
    43a7:	f2 0f 10 55 f0       	movsd  -0x10(%rbp),%xmm2
    43ac:	f2 0f 10 05 3c 99 00 	movsd  0x993c(%rip),%xmm0        # dcf0 <l_1058.4120+0x270>
    43b3:	00 
    43b4:	f2 0f 59 c2          	mulsd  %xmm2,%xmm0
    43b8:	f2 0f 58 c1          	addsd  %xmm1,%xmm0
    43bc:	f3 0f 7e 0d 3c 99 00 	movq   0x993c(%rip),%xmm1        # dd00 <l_1058.4120+0x280>
    43c3:	00 
    43c4:	66 0f 54 c1          	andpd  %xmm1,%xmm0
    43c8:	66 0f 2f 05 40 99 00 	comisd 0x9940(%rip),%xmm0        # dd10 <l_1058.4120+0x290>
    43cf:	00 
    43d0:	76 07                	jbe    43d9 <safe_add_func_double_f_f+0x55>
    43d2:	f2 0f 10 45 f8       	movsd  -0x8(%rbp),%xmm0
    43d7:	eb 0a                	jmp    43e3 <safe_add_func_double_f_f+0x5f>
    43d9:	f2 0f 10 45 f8       	movsd  -0x8(%rbp),%xmm0
    43de:	f2 0f 58 45 f0       	addsd  -0x10(%rbp),%xmm0
    43e3:	5d                   	pop    %rbp
    43e4:	c3                   	retq   

00000000000043e5 <safe_sub_func_double_f_f>:
    43e5:	f3 0f 1e fa          	endbr64 
    43e9:	55                   	push   %rbp
    43ea:	48 89 e5             	mov    %rsp,%rbp
    43ed:	f2 0f 11 45 f8       	movsd  %xmm0,-0x8(%rbp)
    43f2:	f2 0f 11 4d f0       	movsd  %xmm1,-0x10(%rbp)
    43f7:	f2 0f 10 4d f8       	movsd  -0x8(%rbp),%xmm1
    43fc:	f2 0f 10 05 ec 98 00 	movsd  0x98ec(%rip),%xmm0        # dcf0 <l_1058.4120+0x270>
    4403:	00 
    4404:	f2 0f 59 c1          	mulsd  %xmm1,%xmm0
    4408:	f2 0f 10 55 f0       	movsd  -0x10(%rbp),%xmm2
    440d:	f2 0f 10 0d db 98 00 	movsd  0x98db(%rip),%xmm1        # dcf0 <l_1058.4120+0x270>
    4414:	00 
    4415:	f2 0f 59 ca          	mulsd  %xmm2,%xmm1
    4419:	f2 0f 5c c1          	subsd  %xmm1,%xmm0
    441d:	f3 0f 7e 0d db 98 00 	movq   0x98db(%rip),%xmm1        # dd00 <l_1058.4120+0x280>
    4424:	00 
    4425:	66 0f 54 c1          	andpd  %xmm1,%xmm0
    4429:	66 0f 2f 05 df 98 00 	comisd 0x98df(%rip),%xmm0        # dd10 <l_1058.4120+0x290>
    4430:	00 
    4431:	76 07                	jbe    443a <safe_sub_func_double_f_f+0x55>
    4433:	f2 0f 10 45 f8       	movsd  -0x8(%rbp),%xmm0
    4438:	eb 0a                	jmp    4444 <safe_sub_func_double_f_f+0x5f>
    443a:	f2 0f 10 45 f8       	movsd  -0x8(%rbp),%xmm0
    443f:	f2 0f 5c 45 f0       	subsd  -0x10(%rbp),%xmm0
    4444:	5d                   	pop    %rbp
    4445:	c3                   	retq   

0000000000004446 <safe_mul_func_double_f_f>:
    4446:	f3 0f 1e fa          	endbr64 
    444a:	55                   	push   %rbp
    444b:	48 89 e5             	mov    %rsp,%rbp
    444e:	f2 0f 11 45 f8       	movsd  %xmm0,-0x8(%rbp)
    4453:	f2 0f 11 4d f0       	movsd  %xmm1,-0x10(%rbp)
    4458:	f2 0f 10 4d f8       	movsd  -0x8(%rbp),%xmm1
    445d:	f2 0f 10 05 b3 98 00 	movsd  0x98b3(%rip),%xmm0        # dd18 <l_1058.4120+0x298>
    4464:	00 
    4465:	f2 0f 59 c8          	mulsd  %xmm0,%xmm1
    4469:	f2 0f 10 55 f0       	movsd  -0x10(%rbp),%xmm2
    446e:	f2 0f 10 05 aa 98 00 	movsd  0x98aa(%rip),%xmm0        # dd20 <l_1058.4120+0x2a0>
    4475:	00 
    4476:	f2 0f 59 c2          	mulsd  %xmm2,%xmm0
    447a:	f2 0f 59 c1          	mulsd  %xmm1,%xmm0
    447e:	f3 0f 7e 0d 7a 98 00 	movq   0x987a(%rip),%xmm1        # dd00 <l_1058.4120+0x280>
    4485:	00 
    4486:	66 0f 54 c1          	andpd  %xmm1,%xmm0
    448a:	66 0f 2f 05 96 98 00 	comisd 0x9896(%rip),%xmm0        # dd28 <l_1058.4120+0x2a8>
    4491:	00 
    4492:	76 07                	jbe    449b <safe_mul_func_double_f_f+0x55>
    4494:	f2 0f 10 45 f8       	movsd  -0x8(%rbp),%xmm0
    4499:	eb 0a                	jmp    44a5 <safe_mul_func_double_f_f+0x5f>
    449b:	f2 0f 10 45 f8       	movsd  -0x8(%rbp),%xmm0
    44a0:	f2 0f 59 45 f0       	mulsd  -0x10(%rbp),%xmm0
    44a5:	5d                   	pop    %rbp
    44a6:	c3                   	retq   

00000000000044a7 <safe_div_func_double_f_f>:
    44a7:	f3 0f 1e fa          	endbr64 
    44ab:	55                   	push   %rbp
    44ac:	48 89 e5             	mov    %rsp,%rbp
    44af:	f2 0f 11 45 f8       	movsd  %xmm0,-0x8(%rbp)
    44b4:	f2 0f 11 4d f0       	movsd  %xmm1,-0x10(%rbp)
    44b9:	f2 0f 10 45 f0       	movsd  -0x10(%rbp),%xmm0
    44be:	f3 0f 7e 0d 3a 98 00 	movq   0x983a(%rip),%xmm1        # dd00 <l_1058.4120+0x280>
    44c5:	00 
    44c6:	66 0f 54 c8          	andpd  %xmm0,%xmm1
    44ca:	f2 0f 10 05 5e 98 00 	movsd  0x985e(%rip),%xmm0        # dd30 <l_1058.4120+0x2b0>
    44d1:	00 
    44d2:	66 0f 2f c1          	comisd %xmm1,%xmm0
    44d6:	0f 97 c0             	seta   %al
    44d9:	83 f0 01             	xor    $0x1,%eax
    44dc:	84 c0                	test   %al,%al
    44de:	75 5a                	jne    453a <safe_div_func_double_f_f+0x93>
    44e0:	66 0f ef c0          	pxor   %xmm0,%xmm0
    44e4:	66 0f 2e 45 f0       	ucomisd -0x10(%rbp),%xmm0
    44e9:	7a 0b                	jp     44f6 <safe_div_func_double_f_f+0x4f>
    44eb:	66 0f ef c0          	pxor   %xmm0,%xmm0
    44ef:	66 0f 2e 45 f0       	ucomisd -0x10(%rbp),%xmm0
    44f4:	74 50                	je     4546 <safe_div_func_double_f_f+0x9f>
    44f6:	f2 0f 10 4d f8       	movsd  -0x8(%rbp),%xmm1
    44fb:	f2 0f 10 05 35 98 00 	movsd  0x9835(%rip),%xmm0        # dd38 <l_1058.4120+0x2b8>
    4502:	00 
    4503:	f2 0f 59 c1          	mulsd  %xmm1,%xmm0
    4507:	f2 0f 10 55 f0       	movsd  -0x10(%rbp),%xmm2
    450c:	f2 0f 10 0d 2c 98 00 	movsd  0x982c(%rip),%xmm1        # dd40 <l_1058.4120+0x2c0>
    4513:	00 
    4514:	f2 0f 59 ca          	mulsd  %xmm2,%xmm1
    4518:	f2 0f 5e c1          	divsd  %xmm1,%xmm0
    451c:	f3 0f 7e 0d dc 97 00 	movq   0x97dc(%rip),%xmm1        # dd00 <l_1058.4120+0x280>
    4523:	00 
    4524:	66 0f 54 c1          	andpd  %xmm1,%xmm0
    4528:	66 0f 2f 05 18 98 00 	comisd 0x9818(%rip),%xmm0        # dd48 <l_1058.4120+0x2c8>
    452f:	00 
    4530:	0f 97 c0             	seta   %al
    4533:	83 f0 01             	xor    $0x1,%eax
    4536:	84 c0                	test   %al,%al
    4538:	74 0c                	je     4546 <safe_div_func_double_f_f+0x9f>
    453a:	f2 0f 10 45 f8       	movsd  -0x8(%rbp),%xmm0
    453f:	f2 0f 5e 45 f0       	divsd  -0x10(%rbp),%xmm0
    4544:	eb 05                	jmp    454b <safe_div_func_double_f_f+0xa4>
    4546:	f2 0f 10 45 f8       	movsd  -0x8(%rbp),%xmm0
    454b:	5d                   	pop    %rbp
    454c:	c3                   	retq   

000000000000454d <safe_convert_func_float_to_int32_t>:
    454d:	f3 0f 1e fa          	endbr64 
    4551:	55                   	push   %rbp
    4552:	48 89 e5             	mov    %rsp,%rbp
    4555:	f3 0f 11 45 fc       	movss  %xmm0,-0x4(%rbp)
    455a:	f3 0f 10 05 ee 97 00 	movss  0x97ee(%rip),%xmm0        # dd50 <l_1058.4120+0x2d0>
    4561:	00 
    4562:	0f 2f 45 fc          	comiss -0x4(%rbp),%xmm0
    4566:	0f 93 c0             	setae  %al
    4569:	83 f0 01             	xor    $0x1,%eax
    456c:	84 c0                	test   %al,%al
    456e:	74 21                	je     4591 <safe_convert_func_float_to_int32_t+0x44>
    4570:	f3 0f 10 45 fc       	movss  -0x4(%rbp),%xmm0
    4575:	0f 2f 05 d8 97 00 00 	comiss 0x97d8(%rip),%xmm0        # dd54 <l_1058.4120+0x2d4>
    457c:	0f 93 c0             	setae  %al
    457f:	83 f0 01             	xor    $0x1,%eax
    4582:	84 c0                	test   %al,%al
    4584:	74 0b                	je     4591 <safe_convert_func_float_to_int32_t+0x44>
    4586:	f3 0f 10 45 fc       	movss  -0x4(%rbp),%xmm0
    458b:	f3 0f 2c c0          	cvttss2si %xmm0,%eax
    458f:	eb 05                	jmp    4596 <safe_convert_func_float_to_int32_t+0x49>
    4591:	b8 ff ff ff 7f       	mov    $0x7fffffff,%eax
    4596:	5d                   	pop    %rbp
    4597:	c3                   	retq   

0000000000004598 <crc32_gentab>:
    4598:	f3 0f 1e fa          	endbr64 
    459c:	55                   	push   %rbp
    459d:	48 89 e5             	mov    %rsp,%rbp
    45a0:	c7 45 fc 20 83 b8 ed 	movl   $0xedb88320,-0x4(%rbp)
    45a7:	c7 45 f4 00 00 00 00 	movl   $0x0,-0xc(%rbp)
    45ae:	eb 51                	jmp    4601 <crc32_gentab+0x69>
    45b0:	8b 45 f4             	mov    -0xc(%rbp),%eax
    45b3:	89 45 f0             	mov    %eax,-0x10(%rbp)
    45b6:	c7 45 f8 08 00 00 00 	movl   $0x8,-0x8(%rbp)
    45bd:	eb 1e                	jmp    45dd <crc32_gentab+0x45>
    45bf:	8b 45 f0             	mov    -0x10(%rbp),%eax
    45c2:	83 e0 01             	and    $0x1,%eax
    45c5:	85 c0                	test   %eax,%eax
    45c7:	74 0d                	je     45d6 <crc32_gentab+0x3e>
    45c9:	8b 45 f0             	mov    -0x10(%rbp),%eax
    45cc:	d1 e8                	shr    %eax
    45ce:	33 45 fc             	xor    -0x4(%rbp),%eax
    45d1:	89 45 f0             	mov    %eax,-0x10(%rbp)
    45d4:	eb 03                	jmp    45d9 <crc32_gentab+0x41>
    45d6:	d1 6d f0             	shrl   -0x10(%rbp)
    45d9:	83 6d f8 01          	subl   $0x1,-0x8(%rbp)
    45dd:	83 7d f8 00          	cmpl   $0x0,-0x8(%rbp)
    45e1:	7f dc                	jg     45bf <crc32_gentab+0x27>
    45e3:	8b 45 f4             	mov    -0xc(%rbp),%eax
    45e6:	48 98                	cltq   
    45e8:	48 8d 0c 85 00 00 00 	lea    0x0(,%rax,4),%rcx
    45ef:	00 
    45f0:	48 8d 15 49 db 00 00 	lea    0xdb49(%rip),%rdx        # 12140 <crc32_tab>
    45f7:	8b 45 f0             	mov    -0x10(%rbp),%eax
    45fa:	89 04 11             	mov    %eax,(%rcx,%rdx,1)
    45fd:	83 45 f4 01          	addl   $0x1,-0xc(%rbp)
    4601:	81 7d f4 ff 00 00 00 	cmpl   $0xff,-0xc(%rbp)
    4608:	7e a6                	jle    45b0 <crc32_gentab+0x18>
    460a:	90                   	nop
    460b:	90                   	nop
    460c:	5d                   	pop    %rbp
    460d:	c3                   	retq   

000000000000460e <crc32_byte>:
    460e:	f3 0f 1e fa          	endbr64 
    4612:	55                   	push   %rbp
    4613:	48 89 e5             	mov    %rsp,%rbp
    4616:	89 f8                	mov    %edi,%eax
    4618:	88 45 fc             	mov    %al,-0x4(%rbp)
    461b:	8b 05 ff c9 00 00    	mov    0xc9ff(%rip),%eax        # 11020 <crc32_context>
    4621:	c1 e8 08             	shr    $0x8,%eax
    4624:	89 c1                	mov    %eax,%ecx
    4626:	0f b6 55 fc          	movzbl -0x4(%rbp),%edx
    462a:	8b 05 f0 c9 00 00    	mov    0xc9f0(%rip),%eax        # 11020 <crc32_context>
    4630:	31 d0                	xor    %edx,%eax
    4632:	0f b6 c0             	movzbl %al,%eax
    4635:	89 c0                	mov    %eax,%eax
    4637:	48 8d 14 85 00 00 00 	lea    0x0(,%rax,4),%rdx
    463e:	00 
    463f:	48 8d 05 fa da 00 00 	lea    0xdafa(%rip),%rax        # 12140 <crc32_tab>
    4646:	8b 04 02             	mov    (%rdx,%rax,1),%eax
    4649:	31 c8                	xor    %ecx,%eax
    464b:	89 05 cf c9 00 00    	mov    %eax,0xc9cf(%rip)        # 11020 <crc32_context>
    4651:	90                   	nop
    4652:	5d                   	pop    %rbp
    4653:	c3                   	retq   

0000000000004654 <crc32_8bytes>:
    4654:	f3 0f 1e fa          	endbr64 
    4658:	55                   	push   %rbp
    4659:	48 89 e5             	mov    %rsp,%rbp
    465c:	48 83 ec 08          	sub    $0x8,%rsp
    4660:	48 89 7d f8          	mov    %rdi,-0x8(%rbp)
    4664:	48 8b 45 f8          	mov    -0x8(%rbp),%rax
    4668:	0f b6 c0             	movzbl %al,%eax
    466b:	89 c7                	mov    %eax,%edi
    466d:	e8 9c ff ff ff       	callq  460e <crc32_byte>
    4672:	48 8b 45 f8          	mov    -0x8(%rbp),%rax
    4676:	48 c1 e8 08          	shr    $0x8,%rax
    467a:	0f b6 c0             	movzbl %al,%eax
    467d:	89 c7                	mov    %eax,%edi
    467f:	e8 8a ff ff ff       	callq  460e <crc32_byte>
    4684:	48 8b 45 f8          	mov    -0x8(%rbp),%rax
    4688:	48 c1 e8 10          	shr    $0x10,%rax
    468c:	0f b6 c0             	movzbl %al,%eax
    468f:	89 c7                	mov    %eax,%edi
    4691:	e8 78 ff ff ff       	callq  460e <crc32_byte>
    4696:	48 8b 45 f8          	mov    -0x8(%rbp),%rax
    469a:	48 c1 e8 18          	shr    $0x18,%rax
    469e:	0f b6 c0             	movzbl %al,%eax
    46a1:	89 c7                	mov    %eax,%edi
    46a3:	e8 66 ff ff ff       	callq  460e <crc32_byte>
    46a8:	48 8b 45 f8          	mov    -0x8(%rbp),%rax
    46ac:	48 c1 e8 20          	shr    $0x20,%rax
    46b0:	0f b6 c0             	movzbl %al,%eax
    46b3:	89 c7                	mov    %eax,%edi
    46b5:	e8 54 ff ff ff       	callq  460e <crc32_byte>
    46ba:	48 8b 45 f8          	mov    -0x8(%rbp),%rax
    46be:	48 c1 e8 28          	shr    $0x28,%rax
    46c2:	0f b6 c0             	movzbl %al,%eax
    46c5:	89 c7                	mov    %eax,%edi
    46c7:	e8 42 ff ff ff       	callq  460e <crc32_byte>
    46cc:	48 8b 45 f8          	mov    -0x8(%rbp),%rax
    46d0:	48 c1 e8 30          	shr    $0x30,%rax
    46d4:	0f b6 c0             	movzbl %al,%eax
    46d7:	89 c7                	mov    %eax,%edi
    46d9:	e8 30 ff ff ff       	callq  460e <crc32_byte>
    46de:	48 8b 45 f8          	mov    -0x8(%rbp),%rax
    46e2:	48 c1 e8 38          	shr    $0x38,%rax
    46e6:	0f b6 c0             	movzbl %al,%eax
    46e9:	89 c7                	mov    %eax,%edi
    46eb:	e8 1e ff ff ff       	callq  460e <crc32_byte>
    46f0:	90                   	nop
    46f1:	c9                   	leaveq 
    46f2:	c3                   	retq   

00000000000046f3 <transparent_crc>:
    46f3:	f3 0f 1e fa          	endbr64 
    46f7:	55                   	push   %rbp
    46f8:	48 89 e5             	mov    %rsp,%rbp
    46fb:	48 83 ec 20          	sub    $0x20,%rsp
    46ff:	48 89 7d f8          	mov    %rdi,-0x8(%rbp)
    4703:	48 89 75 f0          	mov    %rsi,-0x10(%rbp)
    4707:	89 55 ec             	mov    %edx,-0x14(%rbp)
    470a:	48 8b 45 f8          	mov    -0x8(%rbp),%rax
    470e:	48 89 c7             	mov    %rax,%rdi
    4711:	e8 3e ff ff ff       	callq  4654 <crc32_8bytes>
    4716:	83 7d ec 00          	cmpl   $0x0,-0x14(%rbp)
    471a:	74 22                	je     473e <transparent_crc+0x4b>
    471c:	8b 05 fe c8 00 00    	mov    0xc8fe(%rip),%eax        # 11020 <crc32_context>
    4722:	f7 d0                	not    %eax
    4724:	89 c2                	mov    %eax,%edx
    4726:	48 8b 45 f0          	mov    -0x10(%rbp),%rax
    472a:	48 89 c6             	mov    %rax,%rsi
    472d:	48 8d 3d fc 78 00 00 	lea    0x78fc(%rip),%rdi        # c030 <_IO_stdin_used+0x30>
    4734:	b8 00 00 00 00       	mov    $0x0,%eax
    4739:	e8 42 e9 ff ff       	callq  3080 <printf@plt>
    473e:	90                   	nop
    473f:	c9                   	leaveq 
    4740:	c3                   	retq   

0000000000004741 <transparent_crc_bytes>:
    4741:	f3 0f 1e fa          	endbr64 
    4745:	55                   	push   %rbp
    4746:	48 89 e5             	mov    %rsp,%rbp
    4749:	48 83 ec 30          	sub    $0x30,%rsp
    474d:	48 89 7d e8          	mov    %rdi,-0x18(%rbp)
    4751:	89 75 e4             	mov    %esi,-0x1c(%rbp)
    4754:	48 89 55 d8          	mov    %rdx,-0x28(%rbp)
    4758:	89 4d e0             	mov    %ecx,-0x20(%rbp)
    475b:	c7 45 fc 00 00 00 00 	movl   $0x0,-0x4(%rbp)
    4762:	eb 1e                	jmp    4782 <transparent_crc_bytes+0x41>
    4764:	8b 45 fc             	mov    -0x4(%rbp),%eax
    4767:	48 63 d0             	movslq %eax,%rdx
    476a:	48 8b 45 e8          	mov    -0x18(%rbp),%rax
    476e:	48 01 d0             	add    %rdx,%rax
    4771:	0f b6 00             	movzbl (%rax),%eax
    4774:	0f b6 c0             	movzbl %al,%eax
    4777:	89 c7                	mov    %eax,%edi
    4779:	e8 90 fe ff ff       	callq  460e <crc32_byte>
    477e:	83 45 fc 01          	addl   $0x1,-0x4(%rbp)
    4782:	8b 45 fc             	mov    -0x4(%rbp),%eax
    4785:	3b 45 e4             	cmp    -0x1c(%rbp),%eax
    4788:	7c da                	jl     4764 <transparent_crc_bytes+0x23>
    478a:	83 7d e0 00          	cmpl   $0x0,-0x20(%rbp)
    478e:	74 22                	je     47b2 <transparent_crc_bytes+0x71>
    4790:	8b 05 8a c8 00 00    	mov    0xc88a(%rip),%eax        # 11020 <crc32_context>
    4796:	f7 d0                	not    %eax
    4798:	89 c2                	mov    %eax,%edx
    479a:	48 8b 45 d8          	mov    -0x28(%rbp),%rax
    479e:	48 89 c6             	mov    %rax,%rsi
    47a1:	48 8d 3d 88 78 00 00 	lea    0x7888(%rip),%rdi        # c030 <_IO_stdin_used+0x30>
    47a8:	b8 00 00 00 00       	mov    $0x0,%eax
    47ad:	e8 ce e8 ff ff       	callq  3080 <printf@plt>
    47b2:	90                   	nop
    47b3:	c9                   	leaveq 
    47b4:	c3                   	retq   

00000000000047b5 <func_1>:
    47b5:	f3 0f 1e fa          	endbr64 
    47b9:	55                   	push   %rbp
    47ba:	48 89 e5             	mov    %rsp,%rbp
    47bd:	41 54                	push   %r12
    47bf:	53                   	push   %rbx
    47c0:	48 81 ec a0 00 00 00 	sub    $0xa0,%rsp
    47c7:	64 48 8b 04 25 28 00 	mov    %fs:0x28,%rax
    47ce:	00 00 
    47d0:	48 89 45 e8          	mov    %rax,-0x18(%rbp)
    47d4:	31 c0                	xor    %eax,%eax
    47d6:	48 8d 05 57 c8 00 00 	lea    0xc857(%rip),%rax        # 11034 <g_3+0x4>
    47dd:	48 89 85 60 ff ff ff 	mov    %rax,-0xa0(%rbp)
    47e4:	48 8d 05 65 d8 00 00 	lea    0xd865(%rip),%rax        # 12050 <g_911>
    47eb:	48 89 85 68 ff ff ff 	mov    %rax,-0x98(%rbp)
    47f2:	c7 85 58 ff ff ff 00 	movl   $0x0,-0xa8(%rbp)
    47f9:	00 00 00 
    47fc:	eb 4e                	jmp    484c <func_1+0x97>
    47fe:	c7 85 5c ff ff ff 00 	movl   $0x0,-0xa4(%rbp)
    4805:	00 00 00 
    4808:	eb 32                	jmp    483c <func_1+0x87>
    480a:	8b 85 5c ff ff ff    	mov    -0xa4(%rbp),%eax
    4810:	48 63 c8             	movslq %eax,%rcx
    4813:	8b 85 58 ff ff ff    	mov    -0xa8(%rbp),%eax
    4819:	48 63 d0             	movslq %eax,%rdx
    481c:	48 89 d0             	mov    %rdx,%rax
    481f:	48 c1 e0 02          	shl    $0x2,%rax
    4823:	48 01 d0             	add    %rdx,%rax
    4826:	48 01 c8             	add    %rcx,%rax
    4829:	48 c7 84 c5 70 ff ff 	movq   $0x0,-0x90(%rbp,%rax,8)
    4830:	ff 00 00 00 00 
    4835:	83 85 5c ff ff ff 01 	addl   $0x1,-0xa4(%rbp)
    483c:	83 bd 5c ff ff ff 04 	cmpl   $0x4,-0xa4(%rbp)
    4843:	7e c5                	jle    480a <func_1+0x55>
    4845:	83 85 58 ff ff ff 01 	addl   $0x1,-0xa8(%rbp)
    484c:	83 bd 58 ff ff ff 02 	cmpl   $0x2,-0xa8(%rbp)
    4853:	7e a9                	jle    47fe <func_1+0x49>
    4855:	48 8b 85 60 ff ff ff 	mov    -0xa0(%rbp),%rax
    485c:	48 89 45 90          	mov    %rax,-0x70(%rbp)
    4860:	48 8d 05 a1 d8 00 00 	lea    0xd8a1(%rip),%rax        # 12108 <g_947>
    4867:	48 8b 18             	mov    (%rax),%rbx
    486a:	8b 05 cc c7 00 00    	mov    0xc7cc(%rip),%eax        # 1103c <g_3+0xc>
    4870:	41 89 c4             	mov    %eax,%r12d
    4873:	8b 05 bb c7 00 00    	mov    0xc7bb(%rip),%eax        # 11034 <g_3+0x4>
    4879:	48 98                	cltq   
    487b:	48 89 c7             	mov    %rax,%rdi
    487e:	e8 b8 02 00 00       	callq  4b3b <func_9>
    4883:	48 89 da             	mov    %rbx,%rdx
    4886:	44 89 e6             	mov    %r12d,%esi
    4889:	48 89 c7             	mov    %rax,%rdi
    488c:	e8 38 00 00 00       	callq  48c9 <func_5>
    4891:	48 8b 95 68 ff ff ff 	mov    -0x98(%rbp),%rdx
    4898:	48 89 02             	mov    %rax,(%rdx)
    489b:	48 8b 85 68 ff ff ff 	mov    -0x98(%rbp),%rax
    48a2:	48 8b 00             	mov    (%rax),%rax
    48a5:	8b 00                	mov    (%rax),%eax
    48a7:	48 98                	cltq   
    48a9:	48 8b 75 e8          	mov    -0x18(%rbp),%rsi
    48ad:	64 48 33 34 25 28 00 	xor    %fs:0x28,%rsi
    48b4:	00 00 
    48b6:	74 05                	je     48bd <func_1+0x108>
    48b8:	e8 b3 e7 ff ff       	callq  3070 <__stack_chk_fail@plt>
    48bd:	48 81 c4 a0 00 00 00 	add    $0xa0,%rsp
    48c4:	5b                   	pop    %rbx
    48c5:	41 5c                	pop    %r12
    48c7:	5d                   	pop    %rbp
    48c8:	c3                   	retq   

00000000000048c9 <func_5>:
    48c9:	f3 0f 1e fa          	endbr64 
    48cd:	55                   	push   %rbp
    48ce:	48 89 e5             	mov    %rsp,%rbp
    48d1:	41 57                	push   %r15
    48d3:	41 56                	push   %r14
    48d5:	41 55                	push   %r13
    48d7:	41 54                	push   %r12
    48d9:	53                   	push   %rbx
    48da:	48 83 ec 68          	sub    $0x68,%rsp
    48de:	48 89 7d 88          	mov    %rdi,-0x78(%rbp)
    48e2:	89 75 84             	mov    %esi,-0x7c(%rbp)
    48e5:	48 89 95 78 ff ff ff 	mov    %rdx,-0x88(%rbp)
    48ec:	64 48 8b 04 25 28 00 	mov    %fs:0x28,%rax
    48f3:	00 00 
    48f5:	48 89 45 c8          	mov    %rax,-0x38(%rbp)
    48f9:	31 c0                	xor    %eax,%eax
    48fb:	c7 45 a9 ff ff ff ff 	movl   $0xffffffff,-0x57(%rbp)
    4902:	66 c7 45 ad ff ff    	movw   $0xffff,-0x53(%rbp)
    4908:	c6 45 af ff          	movb   $0xff,-0x51(%rbp)
    490c:	48 8d 05 45 c7 00 00 	lea    0xc745(%rip),%rax        # 11058 <g_71>
    4913:	48 89 45 98          	mov    %rax,-0x68(%rbp)
    4917:	48 8d 05 32 d7 00 00 	lea    0xd732(%rip),%rax        # 12050 <g_911>
    491e:	48 89 45 a0          	mov    %rax,-0x60(%rbp)
    4922:	c7 45 94 00 00 00 00 	movl   $0x0,-0x6c(%rbp)
    4929:	c7 45 90 00 00 00 00 	movl   $0x0,-0x70(%rbp)
    4930:	eb 15                	jmp    4947 <func_5+0x7e>
    4932:	8b 45 90             	mov    -0x70(%rbp),%eax
    4935:	48 98                	cltq   
    4937:	48 8d 15 02 d7 00 00 	lea    0xd702(%rip),%rdx        # 12040 <g_655>
    493e:	48 89 54 c5 b0       	mov    %rdx,-0x50(%rbp,%rax,8)
    4943:	83 45 90 01          	addl   $0x1,-0x70(%rbp)
    4947:	83 7d 90 01          	cmpl   $0x1,-0x70(%rbp)
    494b:	7e e5                	jle    4932 <func_5+0x69>
    494d:	0f b7 05 66 c8 00 00 	movzwl 0xc866(%rip),%eax        # 111ba <g_323+0xda>
    4954:	0f b7 d0             	movzwl %ax,%edx
    4957:	0f b6 45 aa          	movzbl -0x56(%rbp),%eax
    495b:	f7 d0                	not    %eax
    495d:	88 45 aa             	mov    %al,-0x56(%rbp)
    4960:	0f b6 45 aa          	movzbl -0x56(%rbp),%eax
    4964:	84 c0                	test   %al,%al
    4966:	74 10                	je     4978 <func_5+0xaf>
    4968:	81 7d 84 77 0c 00 00 	cmpl   $0xc77,-0x7c(%rbp)
    496f:	77 07                	ja     4978 <func_5+0xaf>
    4971:	b8 01 00 00 00       	mov    $0x1,%eax
    4976:	eb 05                	jmp    497d <func_5+0xb4>
    4978:	b8 00 00 00 00       	mov    $0x0,%eax
    497d:	39 d0                	cmp    %edx,%eax
    497f:	0f 95 c0             	setne  %al
    4982:	0f b6 c0             	movzbl %al,%eax
    4985:	be 03 00 00 00       	mov    $0x3,%esi
    498a:	89 c7                	mov    %eax,%edi
    498c:	e8 b7 f4 ff ff       	callq  3e48 <safe_rshift_func_uint16_t_u_s>
    4991:	8b 05 c9 c8 00 00    	mov    0xc8c9(%rip),%eax        # 11260 <g_1078>
    4997:	89 c6                	mov    %eax,%esi
    4999:	bf 01 00 00 00       	mov    $0x1,%edi
    499e:	e8 1b f3 ff ff       	callq  3cbe <safe_rshift_func_uint8_t_u_u>
    49a3:	0f be d0             	movsbl %al,%edx
    49a6:	0f b6 45 aa          	movzbl -0x56(%rbp),%eax
    49aa:	0f be c0             	movsbl %al,%eax
    49ad:	89 d6                	mov    %edx,%esi
    49af:	89 c7                	mov    %eax,%edi
    49b1:	e8 b4 e8 ff ff       	callq  326a <safe_div_func_int8_t_s_s>
    49b6:	0f be c0             	movsbl %al,%eax
    49b9:	be 01 00 00 00       	mov    $0x1,%esi
    49be:	89 c7                	mov    %eax,%edi
    49c0:	e8 70 e9 ff ff       	callq  3335 <safe_rshift_func_int8_t_s_s>
    49c5:	48 8d 1d 3c d7 00 00 	lea    0xd73c(%rip),%rbx        # 12108 <g_947>
    49cc:	8b 45 84             	mov    -0x7c(%rbp),%eax
    49cf:	89 c7                	mov    %eax,%edi
    49d1:	e8 88 05 00 00       	callq  4f5e <func_26>
    49d6:	48 89 03             	mov    %rax,(%rbx)
    49d9:	8b 45 84             	mov    -0x7c(%rbp),%eax
    49dc:	0f be d8             	movsbl %al,%ebx
    49df:	0f b6 45 aa          	movzbl -0x56(%rbp),%eax
    49e3:	44 0f be e0          	movsbl %al,%r12d
    49e7:	0f b6 45 aa          	movzbl -0x56(%rbp),%eax
    49eb:	44 0f b6 e8          	movzbl %al,%r13d
    49ef:	48 8b 05 32 d1 00 00 	mov    0xd132(%rip),%rax        # 11b28 <g_20>
    49f6:	44 8b 38             	mov    (%rax),%r15d
    49f9:	0f b6 45 aa          	movzbl -0x56(%rbp),%eax
    49fd:	44 0f b6 f0          	movzbl %al,%r14d
    4a01:	0f b6 45 aa          	movzbl -0x56(%rbp),%eax
    4a05:	0f b6 d0             	movzbl %al,%edx
    4a08:	48 83 7d 98 00       	cmpq   $0x0,-0x68(%rbp)
    4a0d:	0f 95 c0             	setne  %al
    4a10:	0f b6 c0             	movzbl %al,%eax
    4a13:	89 d6                	mov    %edx,%esi
    4a15:	89 c7                	mov    %eax,%edi
    4a17:	e8 b7 e9 ff ff       	callq  33d3 <safe_sub_func_int16_t_s_s>
    4a1c:	89 c2                	mov    %eax,%edx
    4a1e:	8b 45 84             	mov    -0x7c(%rbp),%eax
    4a21:	09 c2                	or     %eax,%edx
    4a23:	0f b6 45 aa          	movzbl -0x56(%rbp),%eax
    4a27:	09 d0                	or     %edx,%eax
    4a29:	0f b6 c0             	movzbl %al,%eax
    4a2c:	be 01 00 00 00       	mov    $0x1,%esi
    4a31:	89 c7                	mov    %eax,%edi
    4a33:	e8 55 f2 ff ff       	callq  3c8d <safe_rshift_func_uint8_t_u_s>
    4a38:	0f b6 d0             	movzbl %al,%edx
    4a3b:	0f b6 45 aa          	movzbl -0x56(%rbp),%eax
    4a3f:	0f b6 c0             	movzbl %al,%eax
    4a42:	89 d6                	mov    %edx,%esi
    4a44:	89 c7                	mov    %eax,%edi
    4a46:	e8 b4 f2 ff ff       	callq  3cff <safe_add_func_uint16_t_u_u>
    4a4b:	0f b7 c0             	movzwl %ax,%eax
    4a4e:	44 89 f6             	mov    %r14d,%esi
    4a51:	89 c7                	mov    %eax,%edi
    4a53:	e8 a7 f2 ff ff       	callq  3cff <safe_add_func_uint16_t_u_u>
    4a58:	66 85 c0             	test   %ax,%ax
    4a5b:	0f 94 c0             	sete   %al
    4a5e:	0f b6 c0             	movzbl %al,%eax
    4a61:	41 39 c7             	cmp    %eax,%r15d
    4a64:	0f 9e c0             	setle  %al
    4a67:	0f b6 d0             	movzbl %al,%edx
    4a6a:	48 8b 45 b8          	mov    -0x48(%rbp),%rax
    4a6e:	48 85 c0             	test   %rax,%rax
    4a71:	0f 95 c0             	setne  %al
    4a74:	0f b6 c0             	movzbl %al,%eax
    4a77:	89 d6                	mov    %edx,%esi
    4a79:	89 c7                	mov    %eax,%edi
    4a7b:	e8 75 e9 ff ff       	callq  33f5 <safe_mul_func_int16_t_s_s>
    4a80:	48 0f bf c0          	movswq %ax,%rax
    4a84:	4c 89 ee             	mov    %r13,%rsi
    4a87:	48 89 c7             	mov    %rax,%rdi
    4a8a:	e8 68 ef ff ff       	callq  39f7 <safe_div_func_int64_t_s_s>
    4a8f:	0f be c0             	movsbl %al,%eax
    4a92:	44 89 e6             	mov    %r12d,%esi
    4a95:	89 c7                	mov    %eax,%edi
    4a97:	e8 38 e7 ff ff       	callq  31d4 <safe_add_func_int8_t_s_s>
    4a9c:	0f be c0             	movsbl %al,%eax
    4a9f:	89 de                	mov    %ebx,%esi
    4aa1:	89 c7                	mov    %eax,%edi
    4aa3:	e8 4a e7 ff ff       	callq  31f2 <safe_sub_func_int8_t_s_s>
    4aa8:	48 8b 05 69 d5 00 00 	mov    0xd569(%rip),%rax        # 12018 <g_627>
    4aaf:	48 8b 00             	mov    (%rax),%rax
    4ab2:	48 8b 00             	mov    (%rax),%rax
    4ab5:	48 39 45 a0          	cmp    %rax,-0x60(%rbp)
    4ab9:	0f 95 c0             	setne  %al
    4abc:	0f b6 c0             	movzbl %al,%eax
    4abf:	be 00 00 00 00       	mov    $0x0,%esi
    4ac4:	89 c7                	mov    %eax,%edi
    4ac6:	e8 72 f2 ff ff       	callq  3d3d <safe_mul_func_uint16_t_u_u>
    4acb:	0f b7 c0             	movzwl %ax,%eax
    4ace:	8b 55 84             	mov    -0x7c(%rbp),%edx
    4ad1:	89 d6                	mov    %edx,%esi
    4ad3:	89 c7                	mov    %eax,%edi
    4ad5:	e8 4b f4 ff ff       	callq  3f25 <safe_div_func_uint32_t_u_u>
    4ada:	be 0d 00 00 00       	mov    $0xd,%esi
    4adf:	bf 01 00 00 00       	mov    $0x1,%edi
    4ae4:	e8 d5 f2 ff ff       	callq  3dbe <safe_lshift_func_uint16_t_u_s>
    4ae9:	0f b6 c0             	movzbl %al,%eax
    4aec:	be 00 00 00 00       	mov    $0x0,%esi
    4af1:	89 c7                	mov    %eax,%edi
    4af3:	e8 0d f1 ff ff       	callq  3c05 <safe_lshift_func_uint8_t_u_s>
    4af8:	83 7d 94 00          	cmpl   $0x0,-0x6c(%rbp)
    4afc:	0f 94 c2             	sete   %dl
    4aff:	48 8b 05 32 d0 00 00 	mov    0xd032(%rip),%rax        # 11b38 <g_56>
    4b06:	48 8b 00             	mov    (%rax),%rax
    4b09:	0f b6 d2             	movzbl %dl,%edx
    4b0c:	89 10                	mov    %edx,(%rax)
    4b0e:	48 8d 05 f3 d5 00 00 	lea    0xd5f3(%rip),%rax        # 12108 <g_947>
    4b15:	48 8b 00             	mov    (%rax),%rax
    4b18:	48 8b 4d c8          	mov    -0x38(%rbp),%rcx
    4b1c:	64 48 33 0c 25 28 00 	xor    %fs:0x28,%rcx
    4b23:	00 00 
    4b25:	74 05                	je     4b2c <func_5+0x263>
    4b27:	e8 44 e5 ff ff       	callq  3070 <__stack_chk_fail@plt>
    4b2c:	48 83 c4 68          	add    $0x68,%rsp
    4b30:	5b                   	pop    %rbx
    4b31:	41 5c                	pop    %r12
    4b33:	41 5d                	pop    %r13
    4b35:	41 5e                	pop    %r14
    4b37:	41 5f                	pop    %r15
    4b39:	5d                   	pop    %rbp
    4b3a:	c3                   	retq   

0000000000004b3b <func_9>:
    4b3b:	f3 0f 1e fa          	endbr64 
    4b3f:	55                   	push   %rbp
    4b40:	48 89 e5             	mov    %rsp,%rbp
    4b43:	48 81 ec a0 03 00 00 	sub    $0x3a0,%rsp
    4b4a:	48 89 bd 68 fc ff ff 	mov    %rdi,-0x398(%rbp)
    4b51:	64 48 8b 04 25 28 00 	mov    %fs:0x28,%rax
    4b58:	00 00 
    4b5a:	48 89 45 f8          	mov    %rax,-0x8(%rbp)
    4b5e:	31 c0                	xor    %eax,%eax
    4b60:	48 c7 85 78 fc ff ff 	movq   $0x0,-0x388(%rbp)
    4b67:	00 00 00 00 
    4b6b:	48 8d 85 78 fc ff ff 	lea    -0x388(%rbp),%rax
    4b72:	48 89 85 b0 fc ff ff 	mov    %rax,-0x350(%rbp)
    4b79:	48 8d 85 78 fc ff ff 	lea    -0x388(%rbp),%rax
    4b80:	48 89 85 b8 fc ff ff 	mov    %rax,-0x348(%rbp)
    4b87:	48 8d 85 78 fc ff ff 	lea    -0x388(%rbp),%rax
    4b8e:	48 89 85 c0 fc ff ff 	mov    %rax,-0x340(%rbp)
    4b95:	48 8d 85 78 fc ff ff 	lea    -0x388(%rbp),%rax
    4b9c:	48 89 85 c8 fc ff ff 	mov    %rax,-0x338(%rbp)
    4ba3:	48 8d 85 78 fc ff ff 	lea    -0x388(%rbp),%rax
    4baa:	48 89 85 d0 fc ff ff 	mov    %rax,-0x330(%rbp)
    4bb1:	48 8d 85 78 fc ff ff 	lea    -0x388(%rbp),%rax
    4bb8:	48 89 85 d8 fc ff ff 	mov    %rax,-0x328(%rbp)
    4bbf:	48 8d 85 78 fc ff ff 	lea    -0x388(%rbp),%rax
    4bc6:	48 89 85 e0 fc ff ff 	mov    %rax,-0x320(%rbp)
    4bcd:	48 8d 85 78 fc ff ff 	lea    -0x388(%rbp),%rax
    4bd4:	48 89 85 e8 fc ff ff 	mov    %rax,-0x318(%rbp)
    4bdb:	48 8d 05 ae d9 00 00 	lea    0xd9ae(%rip),%rax        # 12590 <g_864>
    4be2:	48 89 85 80 fc ff ff 	mov    %rax,-0x380(%rbp)
    4be9:	48 8d 85 80 fc ff ff 	lea    -0x380(%rbp),%rax
    4bf0:	48 89 85 88 fc ff ff 	mov    %rax,-0x378(%rbp)
    4bf7:	48 8d 85 88 fc ff ff 	lea    -0x378(%rbp),%rax
    4bfe:	48 89 85 90 fc ff ff 	mov    %rax,-0x370(%rbp)
    4c05:	48 c7 85 98 fc ff ff 	movq   $0x0,-0x368(%rbp)
    4c0c:	00 00 00 00 
    4c10:	48 8d 05 31 c4 00 00 	lea    0xc431(%rip),%rax        # 11048 <g_52>
    4c17:	48 89 85 f0 fc ff ff 	mov    %rax,-0x310(%rbp)
    4c1e:	48 8d 05 1b c6 00 00 	lea    0xc61b(%rip),%rax        # 11240 <g_1070>
    4c25:	48 89 85 f8 fc ff ff 	mov    %rax,-0x308(%rbp)
    4c2c:	48 8d 05 0d c6 00 00 	lea    0xc60d(%rip),%rax        # 11240 <g_1070>
    4c33:	48 89 85 00 fd ff ff 	mov    %rax,-0x300(%rbp)
    4c3a:	48 8d 05 07 c4 00 00 	lea    0xc407(%rip),%rax        # 11048 <g_52>
    4c41:	48 89 85 08 fd ff ff 	mov    %rax,-0x2f8(%rbp)
    4c48:	48 8d 05 f1 c5 00 00 	lea    0xc5f1(%rip),%rax        # 11240 <g_1070>
    4c4f:	48 89 85 10 fd ff ff 	mov    %rax,-0x2f0(%rbp)
    4c56:	48 8d 05 e3 c5 00 00 	lea    0xc5e3(%rip),%rax        # 11240 <g_1070>
    4c5d:	48 89 85 18 fd ff ff 	mov    %rax,-0x2e8(%rbp)
    4c64:	48 8d 05 dd c3 00 00 	lea    0xc3dd(%rip),%rax        # 11048 <g_52>
    4c6b:	48 89 85 20 fd ff ff 	mov    %rax,-0x2e0(%rbp)
    4c72:	48 8d 05 c7 c5 00 00 	lea    0xc5c7(%rip),%rax        # 11240 <g_1070>
    4c79:	48 89 85 28 fd ff ff 	mov    %rax,-0x2d8(%rbp)
    4c80:	48 8d 05 c1 c3 00 00 	lea    0xc3c1(%rip),%rax        # 11048 <g_52>
    4c87:	48 89 85 30 fd ff ff 	mov    %rax,-0x2d0(%rbp)
    4c8e:	48 8d 05 b3 c3 00 00 	lea    0xc3b3(%rip),%rax        # 11048 <g_52>
    4c95:	48 89 85 38 fd ff ff 	mov    %rax,-0x2c8(%rbp)
    4c9c:	48 c7 85 40 fd ff ff 	movq   $0x0,-0x2c0(%rbp)
    4ca3:	00 00 00 00 
    4ca7:	48 8d 05 9a c3 00 00 	lea    0xc39a(%rip),%rax        # 11048 <g_52>
    4cae:	48 89 85 48 fd ff ff 	mov    %rax,-0x2b8(%rbp)
    4cb5:	48 8d 05 8c c3 00 00 	lea    0xc38c(%rip),%rax        # 11048 <g_52>
    4cbc:	48 89 85 50 fd ff ff 	mov    %rax,-0x2b0(%rbp)
    4cc3:	48 c7 85 58 fd ff ff 	movq   $0x0,-0x2a8(%rbp)
    4cca:	00 00 00 00 
    4cce:	48 8d 05 73 c3 00 00 	lea    0xc373(%rip),%rax        # 11048 <g_52>
    4cd5:	48 89 85 60 fd ff ff 	mov    %rax,-0x2a0(%rbp)
    4cdc:	48 8d 05 65 c3 00 00 	lea    0xc365(%rip),%rax        # 11048 <g_52>
    4ce3:	48 89 85 68 fd ff ff 	mov    %rax,-0x298(%rbp)
    4cea:	48 8d 05 4f c5 00 00 	lea    0xc54f(%rip),%rax        # 11240 <g_1070>
    4cf1:	48 89 85 70 fd ff ff 	mov    %rax,-0x290(%rbp)
    4cf8:	48 8d 05 49 c3 00 00 	lea    0xc349(%rip),%rax        # 11048 <g_52>
    4cff:	48 89 85 78 fd ff ff 	mov    %rax,-0x288(%rbp)
    4d06:	48 8d 05 33 c5 00 00 	lea    0xc533(%rip),%rax        # 11240 <g_1070>
    4d0d:	48 89 85 80 fd ff ff 	mov    %rax,-0x280(%rbp)
    4d14:	48 8d 05 25 c5 00 00 	lea    0xc525(%rip),%rax        # 11240 <g_1070>
    4d1b:	48 89 85 88 fd ff ff 	mov    %rax,-0x278(%rbp)
    4d22:	48 8d 05 1f c3 00 00 	lea    0xc31f(%rip),%rax        # 11048 <g_52>
    4d29:	48 89 85 90 fd ff ff 	mov    %rax,-0x270(%rbp)
    4d30:	48 8d 05 09 c5 00 00 	lea    0xc509(%rip),%rax        # 11240 <g_1070>
    4d37:	48 89 85 98 fd ff ff 	mov    %rax,-0x268(%rbp)
    4d3e:	48 8d 05 fb c4 00 00 	lea    0xc4fb(%rip),%rax        # 11240 <g_1070>
    4d45:	48 89 85 a0 fd ff ff 	mov    %rax,-0x260(%rbp)
    4d4c:	48 8d 05 f5 c2 00 00 	lea    0xc2f5(%rip),%rax        # 11048 <g_52>
    4d53:	48 89 85 a8 fd ff ff 	mov    %rax,-0x258(%rbp)
    4d5a:	48 8d 85 b0 fd ff ff 	lea    -0x250(%rbp),%rax
    4d61:	48 8d 15 38 c5 00 00 	lea    0xc538(%rip),%rdx        # 112a0 <g_1078+0x40>
    4d68:	b9 48 00 00 00       	mov    $0x48,%ecx
    4d6d:	48 89 c7             	mov    %rax,%rdi
    4d70:	48 89 d6             	mov    %rdx,%rsi
    4d73:	f3 48 a5             	rep movsq %ds:(%rsi),%es:(%rdi)
    4d76:	c7 85 74 fc ff ff 00 	movl   $0x0,-0x38c(%rbp)
    4d7d:	00 00 00 
    4d80:	eb 1e                	jmp    4da0 <func_9+0x265>
    4d82:	8b 85 74 fc ff ff    	mov    -0x38c(%rbp),%eax
    4d88:	48 98                	cltq   
    4d8a:	48 8d 15 ab c4 00 00 	lea    0xc4ab(%rip),%rdx        # 1123c <g_906+0x1c>
    4d91:	48 89 94 c5 a0 fc ff 	mov    %rdx,-0x360(%rbp,%rax,8)
    4d98:	ff 
    4d99:	83 85 74 fc ff ff 01 	addl   $0x1,-0x38c(%rbp)
    4da0:	83 bd 74 fc ff ff 01 	cmpl   $0x1,-0x38c(%rbp)
    4da7:	7e d9                	jle    4d82 <func_9+0x247>
    4da9:	48 8b 05 c8 d0 00 00 	mov    0xd0c8(%rip),%rax        # 11e78 <g_309>
    4db0:	48 8b 00             	mov    (%rax),%rax
    4db3:	48 8b 4d f8          	mov    -0x8(%rbp),%rcx
    4db7:	64 48 33 0c 25 28 00 	xor    %fs:0x28,%rcx
    4dbe:	00 00 
    4dc0:	74 05                	je     4dc7 <func_9+0x28c>
    4dc2:	e8 a9 e2 ff ff       	callq  3070 <__stack_chk_fail@plt>
    4dc7:	c9                   	leaveq 
    4dc8:	c3                   	retq   

0000000000004dc9 <func_11>:
    4dc9:	f3 0f 1e fa          	endbr64 
    4dcd:	55                   	push   %rbp
    4dce:	48 89 e5             	mov    %rsp,%rbp
    4dd1:	89 f0                	mov    %esi,%eax
    4dd3:	48 89 55 e0          	mov    %rdx,-0x20(%rbp)
    4dd7:	48 89 4d d8          	mov    %rcx,-0x28(%rbp)
    4ddb:	89 fa                	mov    %edi,%edx
    4ddd:	66 89 55 ec          	mov    %dx,-0x14(%rbp)
    4de1:	66 89 45 e8          	mov    %ax,-0x18(%rbp)
    4de5:	c6 45 ff 83          	movb   $0x83,-0x1(%rbp)
    4de9:	0f b6 45 ff          	movzbl -0x1(%rbp),%eax
    4ded:	5d                   	pop    %rbp
    4dee:	c3                   	retq   

0000000000004def <func_23>:
    4def:	f3 0f 1e fa          	endbr64 
    4df3:	55                   	push   %rbp
    4df4:	48 89 e5             	mov    %rsp,%rbp
    4df7:	48 81 ec 70 04 00 00 	sub    $0x470,%rsp
    4dfe:	48 89 bd 98 fb ff ff 	mov    %rdi,-0x468(%rbp)
    4e05:	48 89 b5 90 fb ff ff 	mov    %rsi,-0x470(%rbp)
    4e0c:	64 48 8b 04 25 28 00 	mov    %fs:0x28,%rax
    4e13:	00 00 
    4e15:	48 89 45 f8          	mov    %rax,-0x8(%rbp)
    4e19:	31 c0                	xor    %eax,%eax
    4e1b:	48 b8 f9 75 1e 6b 72 	movabs $0xd4882c726b1e75f9,%rax
    4e22:	2c 88 d4 
    4e25:	48 89 85 b0 fb ff ff 	mov    %rax,-0x450(%rbp)
    4e2c:	48 8d 05 01 c2 00 00 	lea    0xc201(%rip),%rax        # 11034 <g_3+0x4>
    4e33:	48 89 85 e0 fb ff ff 	mov    %rax,-0x420(%rbp)
    4e3a:	48 8d 05 e7 c3 00 00 	lea    0xc3e7(%rip),%rax        # 11228 <g_906+0x8>
    4e41:	48 89 85 e8 fb ff ff 	mov    %rax,-0x418(%rbp)
    4e48:	48 8d 05 e5 c1 00 00 	lea    0xc1e5(%rip),%rax        # 11034 <g_3+0x4>
    4e4f:	48 89 85 f0 fb ff ff 	mov    %rax,-0x410(%rbp)
    4e56:	48 8d 05 cb c3 00 00 	lea    0xc3cb(%rip),%rax        # 11228 <g_906+0x8>
    4e5d:	48 89 85 f8 fb ff ff 	mov    %rax,-0x408(%rbp)
    4e64:	48 8d 05 c9 c1 00 00 	lea    0xc1c9(%rip),%rax        # 11034 <g_3+0x4>
    4e6b:	48 89 85 00 fc ff ff 	mov    %rax,-0x400(%rbp)
    4e72:	48 8d 05 af c3 00 00 	lea    0xc3af(%rip),%rax        # 11228 <g_906+0x8>
    4e79:	48 89 85 08 fc ff ff 	mov    %rax,-0x3f8(%rbp)
    4e80:	48 8d 05 ad c1 00 00 	lea    0xc1ad(%rip),%rax        # 11034 <g_3+0x4>
    4e87:	48 89 85 10 fc ff ff 	mov    %rax,-0x3f0(%rbp)
    4e8e:	48 8d 05 93 c3 00 00 	lea    0xc393(%rip),%rax        # 11228 <g_906+0x8>
    4e95:	48 89 85 18 fc ff ff 	mov    %rax,-0x3e8(%rbp)
    4e9c:	c7 85 a0 fb ff ff e4 	movl   $0x252916e4,-0x460(%rbp)
    4ea3:	16 29 25 
    4ea6:	48 c7 85 b8 fb ff ff 	movq   $0x0,-0x448(%rbp)
    4ead:	00 00 00 00 
    4eb1:	48 8d 05 a4 c1 00 00 	lea    0xc1a4(%rip),%rax        # 1105c <g_157>
    4eb8:	48 89 85 c0 fb ff ff 	mov    %rax,-0x440(%rbp)
    4ebf:	48 c7 85 c8 fb ff ff 	movq   $0x0,-0x438(%rbp)
    4ec6:	00 00 00 00 
    4eca:	48 8d 05 6f d1 00 00 	lea    0xd16f(%rip),%rax        # 12040 <g_655>
    4ed1:	48 89 85 a8 fb ff ff 	mov    %rax,-0x458(%rbp)
    4ed8:	48 c7 85 d0 fb ff ff 	movq   $0x0,-0x430(%rbp)
    4edf:	00 00 00 00 
    4ee3:	48 8d 85 a8 fb ff ff 	lea    -0x458(%rbp),%rax
    4eea:	48 89 85 d8 fb ff ff 	mov    %rax,-0x428(%rbp)
    4ef1:	c7 85 a4 fb ff ff f8 	movl   $0xfffffff8,-0x45c(%rbp)
    4ef8:	ff ff ff 
    4efb:	48 8d 85 20 fc ff ff 	lea    -0x3e0(%rbp),%rax
    4f02:	48 8d 15 57 71 00 00 	lea    0x7157(%rip),%rdx        # c060 <_IO_stdin_used+0x60>
    4f09:	b9 79 00 00 00       	mov    $0x79,%ecx
    4f0e:	48 89 c7             	mov    %rax,%rdi
    4f11:	48 89 d6             	mov    %rdx,%rsi
    4f14:	f3 48 a5             	rep movsq %ds:(%rsi),%es:(%rdi)
    4f17:	48 89 f2             	mov    %rsi,%rdx
    4f1a:	48 89 f8             	mov    %rdi,%rax
    4f1d:	8b 0a                	mov    (%rdx),%ecx
    4f1f:	89 08                	mov    %ecx,(%rax)
    4f21:	48 8d 40 04          	lea    0x4(%rax),%rax
    4f25:	48 8d 52 04          	lea    0x4(%rdx),%rdx
    4f29:	83 85 a0 fb ff ff 01 	addl   $0x1,-0x460(%rbp)
    4f30:	48 8d 15 d1 d1 00 00 	lea    0xd1d1(%rip),%rdx        # 12108 <g_947>
    4f37:	48 8b 85 90 fb ff ff 	mov    -0x470(%rbp),%rax
    4f3e:	48 89 02             	mov    %rax,(%rdx)
    4f41:	48 8b 85 98 fb ff ff 	mov    -0x468(%rbp),%rax
    4f48:	48 8b 4d f8          	mov    -0x8(%rbp),%rcx
    4f4c:	64 48 33 0c 25 28 00 	xor    %fs:0x28,%rcx
    4f53:	00 00 
    4f55:	74 05                	je     4f5c <func_23+0x16d>
    4f57:	e8 14 e1 ff ff       	callq  3070 <__stack_chk_fail@plt>
    4f5c:	c9                   	leaveq 
    4f5d:	c3                   	retq   

0000000000004f5e <func_26>:
    4f5e:	f3 0f 1e fa          	endbr64 
    4f62:	55                   	push   %rbp
    4f63:	48 89 e5             	mov    %rsp,%rbp
    4f66:	41 57                	push   %r15
    4f68:	41 56                	push   %r14
    4f6a:	41 55                	push   %r13
    4f6c:	41 54                	push   %r12
    4f6e:	53                   	push   %rbx
    4f6f:	48 81 ec 88 02 00 00 	sub    $0x288,%rsp
    4f76:	89 bd 6c fd ff ff    	mov    %edi,-0x294(%rbp)
    4f7c:	64 48 8b 04 25 28 00 	mov    %fs:0x28,%rax
    4f83:	00 00 
    4f85:	48 89 45 c8          	mov    %rax,-0x38(%rbp)
    4f89:	31 c0                	xor    %eax,%eax
    4f8b:	48 8d 85 e0 fd ff ff 	lea    -0x220(%rbp),%rax
    4f92:	48 8d 15 47 c5 00 00 	lea    0xc547(%rip),%rdx        # 114e0 <g_1078+0x280>
    4f99:	b9 3c 00 00 00       	mov    $0x3c,%ecx
    4f9e:	48 89 c7             	mov    %rax,%rdi
    4fa1:	48 89 d6             	mov    %rdx,%rsi
    4fa4:	f3 48 a5             	rep movsq %ds:(%rsi),%es:(%rdi)
    4fa7:	c7 85 74 fd ff ff 3b 	movl   $0x24d8f3b,-0x28c(%rbp)
    4fae:	8f 4d 02 
    4fb1:	48 8d 05 88 c0 00 00 	lea    0xc088(%rip),%rax        # 11040 <g_19>
    4fb8:	48 89 85 78 fd ff ff 	mov    %rax,-0x288(%rbp)
    4fbf:	48 8d 85 78 fd ff ff 	lea    -0x288(%rbp),%rax
    4fc6:	48 89 85 80 fd ff ff 	mov    %rax,-0x280(%rbp)
    4fcd:	48 8d 05 80 c0 00 00 	lea    0xc080(%rip),%rax        # 11054 <g_64>
    4fd4:	48 89 85 88 fd ff ff 	mov    %rax,-0x278(%rbp)
    4fdb:	48 8d 05 1e c2 00 00 	lea    0xc21e(%rip),%rax        # 11200 <g_661>
    4fe2:	48 89 85 90 fd ff ff 	mov    %rax,-0x270(%rbp)
    4fe9:	c7 85 c0 fd ff ff 03 	movl   $0x3,-0x240(%rbp)
    4ff0:	00 00 00 
    4ff3:	c7 85 c4 fd ff ff 03 	movl   $0x3,-0x23c(%rbp)
    4ffa:	00 00 00 
    4ffd:	c7 85 c8 fd ff ff 03 	movl   $0x3,-0x238(%rbp)
    5004:	00 00 00 
    5007:	c7 85 cc fd ff ff 03 	movl   $0x3,-0x234(%rbp)
    500e:	00 00 00 
    5011:	c7 85 d0 fd ff ff 03 	movl   $0x3,-0x230(%rbp)
    5018:	00 00 00 
    501b:	c7 85 d4 fd ff ff 03 	movl   $0x3,-0x22c(%rbp)
    5022:	00 00 00 
    5025:	c7 85 d8 fd ff ff 03 	movl   $0x3,-0x228(%rbp)
    502c:	00 00 00 
    502f:	c7 85 dc fd ff ff 03 	movl   $0x3,-0x224(%rbp)
    5036:	00 00 00 
    5039:	48 8d 05 f4 bf 00 00 	lea    0xbff4(%rip),%rax        # 11034 <g_3+0x4>
    5040:	48 89 85 98 fd ff ff 	mov    %rax,-0x268(%rbp)
    5047:	c7 85 70 fd ff ff 00 	movl   $0x0,-0x290(%rbp)
    504e:	00 00 00 
    5051:	eb 19                	jmp    506c <func_26+0x10e>
    5053:	8b 85 70 fd ff ff    	mov    -0x290(%rbp),%eax
    5059:	48 98                	cltq   
    505b:	66 c7 84 45 a0 fd ff 	movw   $0xffff,-0x260(%rbp,%rax,2)
    5062:	ff ff ff 
    5065:	83 85 70 fd ff ff 01 	addl   $0x1,-0x290(%rbp)
    506c:	83 bd 70 fd ff ff 08 	cmpl   $0x8,-0x290(%rbp)
    5073:	7e de                	jle    5053 <func_26+0xf5>
    5075:	48 8d 05 8c d0 00 00 	lea    0xd08c(%rip),%rax        # 12108 <g_947>
    507c:	48 8b 00             	mov    (%rax),%rax
    507f:	48 89 85 60 fd ff ff 	mov    %rax,-0x2a0(%rbp)
    5086:	48 8d 05 7b d0 00 00 	lea    0xd07b(%rip),%rax        # 12108 <g_947>
    508d:	48 89 85 58 fd ff ff 	mov    %rax,-0x2a8(%rbp)
    5094:	8b 05 9a bf 00 00    	mov    0xbf9a(%rip),%eax        # 11034 <g_3+0x4>
    509a:	89 85 68 fd ff ff    	mov    %eax,-0x298(%rbp)
    50a0:	0f b6 05 e1 d4 00 00 	movzbl 0xd4e1(%rip),%eax        # 12588 <g_809>
    50a7:	0f be d8             	movsbl %al,%ebx
    50aa:	44 8b a5 6c fd ff ff 	mov    -0x294(%rbp),%r12d
    50b1:	8b 85 6c fd ff ff    	mov    -0x294(%rbp),%eax
    50b7:	44 0f bf f0          	movswl %ax,%r14d
    50bb:	48 8b 85 78 fd ff ff 	mov    -0x288(%rbp),%rax
    50c2:	8b 00                	mov    (%rax),%eax
    50c4:	44 0f b7 e8          	movzwl %ax,%r13d
    50c8:	48 8b 85 80 fd ff ff 	mov    -0x280(%rbp),%rax
    50cf:	48 8b 00             	mov    (%rax),%rax
    50d2:	8b 00                	mov    (%rax),%eax
    50d4:	0f b7 d0             	movzwl %ax,%edx
    50d7:	8b 85 6c fd ff ff    	mov    -0x294(%rbp),%eax
    50dd:	0f b7 c0             	movzwl %ax,%eax
    50e0:	89 d6                	mov    %edx,%esi
    50e2:	89 c7                	mov    %eax,%edi
    50e4:	e8 16 ec ff ff       	callq  3cff <safe_add_func_uint16_t_u_u>
    50e9:	44 0f b7 f8          	movzwl %ax,%r15d
    50ed:	8b 85 6c fd ff ff    	mov    -0x294(%rbp),%eax
    50f3:	89 85 74 fd ff ff    	mov    %eax,-0x28c(%rbp)
    50f9:	8b 85 6c fd ff ff    	mov    -0x294(%rbp),%eax
    50ff:	0f b6 d0             	movzbl %al,%edx
    5102:	48 8b 05 2f ca 00 00 	mov    0xca2f(%rip),%rax        # 11b38 <g_56>
    5109:	48 39 85 80 fd ff ff 	cmp    %rax,-0x280(%rbp)
    5110:	0f 95 c0             	setne  %al
    5113:	0f b6 c0             	movzbl %al,%eax
    5116:	89 d6                	mov    %edx,%esi
    5118:	89 c7                	mov    %eax,%edi
    511a:	e8 59 ea ff ff       	callq  3b78 <safe_sub_func_uint8_t_u_u>
    511f:	0f b6 c0             	movzbl %al,%eax
    5122:	39 85 74 fd ff ff    	cmp    %eax,-0x28c(%rbp)
    5128:	0f 95 c0             	setne  %al
    512b:	0f b6 c0             	movzbl %al,%eax
    512e:	44 89 fe             	mov    %r15d,%esi
    5131:	89 c7                	mov    %eax,%edi
    5133:	e8 c5 ed ff ff       	callq  3efd <safe_mod_func_uint32_t_u_u>
    5138:	83 bd 6c fd ff ff 00 	cmpl   $0x0,-0x294(%rbp)
    513f:	74 07                	je     5148 <func_26+0x1ea>
    5141:	ba 01 00 00 00       	mov    $0x1,%edx
    5146:	eb 05                	jmp    514d <func_26+0x1ef>
    5148:	ba 00 00 00 00       	mov    $0x0,%edx
    514d:	48 8b 85 80 fd ff ff 	mov    -0x280(%rbp),%rax
    5154:	48 8b 00             	mov    (%rax),%rax
    5157:	8b 00                	mov    (%rax),%eax
    5159:	39 c2                	cmp    %eax,%edx
    515b:	0f 9d c0             	setge  %al
    515e:	0f b6 c8             	movzbl %al,%ecx
    5161:	0f b7 85 a4 fd ff ff 	movzwl -0x25c(%rbp),%eax
    5168:	0f bf d0             	movswl %ax,%edx
    516b:	48 8b 85 88 fd ff ff 	mov    -0x278(%rbp),%rax
    5172:	0f b6 00             	movzbl (%rax),%eax
    5175:	89 c6                	mov    %eax,%esi
    5177:	89 c8                	mov    %ecx,%eax
    5179:	31 f0                	xor    %esi,%eax
    517b:	89 c1                	mov    %eax,%ecx
    517d:	48 8b 85 88 fd ff ff 	mov    -0x278(%rbp),%rax
    5184:	88 08                	mov    %cl,(%rax)
    5186:	48 8b 85 88 fd ff ff 	mov    -0x278(%rbp),%rax
    518d:	0f b6 00             	movzbl (%rax),%eax
    5190:	0f b6 c0             	movzbl %al,%eax
    5193:	31 d0                	xor    %edx,%eax
    5195:	39 85 6c fd ff ff    	cmp    %eax,-0x294(%rbp)
    519b:	0f 92 c0             	setb   %al
    519e:	0f b6 d0             	movzbl %al,%edx
    51a1:	48 8b 05 a0 be 00 00 	mov    0xbea0(%rip),%rax        # 11048 <g_52>
    51a8:	48 39 c2             	cmp    %rax,%rdx
    51ab:	0f 92 c0             	setb   %al
    51ae:	0f b6 c0             	movzbl %al,%eax
    51b1:	44 89 f1             	mov    %r14d,%ecx
    51b4:	44 89 ea             	mov    %r13d,%edx
    51b7:	89 c6                	mov    %eax,%esi
    51b9:	48 8d 3d 70 be 00 00 	lea    0xbe70(%rip),%rdi        # 11030 <g_3>
    51c0:	e8 28 10 00 00       	callq  61ed <func_44>
    51c5:	48 8b 95 90 fd ff ff 	mov    -0x270(%rbp),%rdx
    51cc:	0f b7 12             	movzwl (%rdx),%edx
    51cf:	09 c2                	or     %eax,%edx
    51d1:	48 8b 85 90 fd ff ff 	mov    -0x270(%rbp),%rax
    51d8:	66 89 10             	mov    %dx,(%rax)
    51db:	48 8b 85 90 fd ff ff 	mov    -0x270(%rbp),%rax
    51e2:	0f b7 00             	movzwl (%rax),%eax
    51e5:	0f bf f0             	movswl %ax,%esi
    51e8:	0f b7 85 a4 fd ff ff 	movzwl -0x25c(%rbp),%eax
    51ef:	0f be c0             	movsbl %al,%eax
    51f2:	48 8d 95 78 fd ff ff 	lea    -0x288(%rbp),%rdx
    51f9:	4c 89 e1             	mov    %r12,%rcx
    51fc:	89 c7                	mov    %eax,%edi
    51fe:	e8 8a 09 00 00       	callq  5b8d <func_38>
    5203:	0f be c0             	movsbl %al,%eax
    5206:	89 de                	mov    %ebx,%esi
    5208:	89 c7                	mov    %eax,%edi
    520a:	e8 c5 df ff ff       	callq  31d4 <safe_add_func_int8_t_s_s>
    520f:	bf 00 00 00 00       	mov    $0x0,%edi
    5214:	e8 0f 05 00 00       	callq  5728 <func_34>
    5219:	48 89 c7             	mov    %rax,%rdi
    521c:	48 8d 85 78 fd ff ff 	lea    -0x288(%rbp),%rax
    5223:	4c 8b 85 60 fd ff ff 	mov    -0x2a0(%rbp),%r8
    522a:	48 89 c1             	mov    %rax,%rcx
    522d:	48 8b 95 58 fd ff ff 	mov    -0x2a8(%rbp),%rdx
    5234:	8b b5 68 fd ff ff    	mov    -0x298(%rbp),%esi
    523a:	e8 63 00 00 00       	callq  52a2 <func_28>
    523f:	8b 95 d4 fd ff ff    	mov    -0x22c(%rbp),%edx
    5245:	21 d0                	and    %edx,%eax
    5247:	89 85 d4 fd ff ff    	mov    %eax,-0x22c(%rbp)
    524d:	48 8d 15 b4 ce 00 00 	lea    0xceb4(%rip),%rdx        # 12108 <g_947>
    5254:	48 8b 85 80 fd ff ff 	mov    -0x280(%rbp),%rax
    525b:	48 8b 00             	mov    (%rax),%rax
    525e:	48 89 02             	mov    %rax,(%rdx)
    5261:	48 8b 85 80 fd ff ff 	mov    -0x280(%rbp),%rax
    5268:	48 8b 10             	mov    (%rax),%rdx
    526b:	48 8b 85 80 fd ff ff 	mov    -0x280(%rbp),%rax
    5272:	48 89 10             	mov    %rdx,(%rax)
    5275:	48 8b 85 98 fd ff ff 	mov    -0x268(%rbp),%rax
    527c:	48 8b 5d c8          	mov    -0x38(%rbp),%rbx
    5280:	64 48 33 1c 25 28 00 	xor    %fs:0x28,%rbx
    5287:	00 00 
    5289:	74 05                	je     5290 <func_26+0x332>
    528b:	e8 e0 dd ff ff       	callq  3070 <__stack_chk_fail@plt>
    5290:	48 81 c4 88 02 00 00 	add    $0x288,%rsp
    5297:	5b                   	pop    %rbx
    5298:	41 5c                	pop    %r12
    529a:	41 5d                	pop    %r13
    529c:	41 5e                	pop    %r14
    529e:	41 5f                	pop    %r15
    52a0:	5d                   	pop    %rbp
    52a1:	c3                   	retq   

00000000000052a2 <func_28>:
    52a2:	f3 0f 1e fa          	endbr64 
    52a6:	55                   	push   %rbp
    52a7:	48 89 e5             	mov    %rsp,%rbp
    52aa:	41 57                	push   %r15
    52ac:	41 56                	push   %r14
    52ae:	41 55                	push   %r13
    52b0:	41 54                	push   %r12
    52b2:	53                   	push   %rbx
    52b3:	48 81 ec 38 01 00 00 	sub    $0x138,%rsp
    52ba:	48 89 bd c8 fe ff ff 	mov    %rdi,-0x138(%rbp)
    52c1:	89 b5 c4 fe ff ff    	mov    %esi,-0x13c(%rbp)
    52c7:	48 89 95 b8 fe ff ff 	mov    %rdx,-0x148(%rbp)
    52ce:	48 89 8d b0 fe ff ff 	mov    %rcx,-0x150(%rbp)
    52d5:	4c 89 85 a8 fe ff ff 	mov    %r8,-0x158(%rbp)
    52dc:	64 48 8b 04 25 28 00 	mov    %fs:0x28,%rax
    52e3:	00 00 
    52e5:	48 89 45 c8          	mov    %rax,-0x38(%rbp)
    52e9:	31 c0                	xor    %eax,%eax
    52eb:	48 b8 e0 40 a5 6a 3e 	movabs $0x8e910f3e6aa540e0,%rax
    52f2:	0f 91 8e 
    52f5:	48 89 85 e0 fe ff ff 	mov    %rax,-0x120(%rbp)
    52fc:	48 8d 05 fd be 00 00 	lea    0xbefd(%rip),%rax        # 11200 <g_661>
    5303:	48 89 85 e8 fe ff ff 	mov    %rax,-0x118(%rbp)
    530a:	48 8d 85 e8 fe ff ff 	lea    -0x118(%rbp),%rax
    5311:	48 89 85 f8 fe ff ff 	mov    %rax,-0x108(%rbp)
    5318:	48 8d 05 71 d2 00 00 	lea    0xd271(%rip),%rax        # 12590 <g_864>
    531f:	48 89 85 00 ff ff ff 	mov    %rax,-0x100(%rbp)
    5326:	66 c7 85 da fe ff ff 	movw   $0xf1fd,-0x126(%rbp)
    532d:	fd f1 
    532f:	48 c7 85 f0 fe ff ff 	movq   $0x0,-0x110(%rbp)
    5336:	00 00 00 00 
    533a:	48 8d 85 f0 fe ff ff 	lea    -0x110(%rbp),%rax
    5341:	48 89 85 08 ff ff ff 	mov    %rax,-0xf8(%rbp)
    5348:	48 c7 85 50 ff ff ff 	movq   $0x0,-0xb0(%rbp)
    534f:	00 00 00 00 
    5353:	48 8d 05 ee bc 00 00 	lea    0xbcee(%rip),%rax        # 11048 <g_52>
    535a:	48 89 85 58 ff ff ff 	mov    %rax,-0xa8(%rbp)
    5361:	48 c7 85 60 ff ff ff 	movq   $0x0,-0xa0(%rbp)
    5368:	00 00 00 00 
    536c:	48 8d 05 d5 bc 00 00 	lea    0xbcd5(%rip),%rax        # 11048 <g_52>
    5373:	48 89 85 68 ff ff ff 	mov    %rax,-0x98(%rbp)
    537a:	48 c7 85 70 ff ff ff 	movq   $0x0,-0x90(%rbp)
    5381:	00 00 00 00 
    5385:	48 c7 85 78 ff ff ff 	movq   $0x0,-0x88(%rbp)
    538c:	00 00 00 00 
    5390:	48 8d 05 b1 bc 00 00 	lea    0xbcb1(%rip),%rax        # 11048 <g_52>
    5397:	48 89 45 80          	mov    %rax,-0x80(%rbp)
    539b:	48 c7 45 88 00 00 00 	movq   $0x0,-0x78(%rbp)
    53a2:	00 
    53a3:	48 8d 05 9e bc 00 00 	lea    0xbc9e(%rip),%rax        # 11048 <g_52>
    53aa:	48 89 45 90          	mov    %rax,-0x70(%rbp)
    53ae:	48 c7 45 98 00 00 00 	movq   $0x0,-0x68(%rbp)
    53b5:	00 
    53b6:	48 8d 05 8b bc 00 00 	lea    0xbc8b(%rip),%rax        # 11048 <g_52>
    53bd:	48 89 45 a0          	mov    %rax,-0x60(%rbp)
    53c1:	48 c7 45 a8 00 00 00 	movq   $0x0,-0x58(%rbp)
    53c8:	00 
    53c9:	48 c7 45 b0 00 00 00 	movq   $0x0,-0x50(%rbp)
    53d0:	00 
    53d1:	48 8d 05 70 bc 00 00 	lea    0xbc70(%rip),%rax        # 11048 <g_52>
    53d8:	48 89 45 b8          	mov    %rax,-0x48(%rbp)
    53dc:	48 c7 45 c0 00 00 00 	movq   $0x0,-0x40(%rbp)
    53e3:	00 
    53e4:	c6 85 d9 fe ff ff 01 	movb   $0x1,-0x127(%rbp)
    53eb:	c7 85 dc fe ff ff 00 	movl   $0x0,-0x124(%rbp)
    53f2:	00 00 00 
    53f5:	eb 1e                	jmp    5415 <func_28+0x173>
    53f7:	8b 85 dc fe ff ff    	mov    -0x124(%rbp),%eax
    53fd:	48 98                	cltq   
    53ff:	48 8d 15 36 be 00 00 	lea    0xbe36(%rip),%rdx        # 1123c <g_906+0x1c>
    5406:	48 89 94 c5 20 ff ff 	mov    %rdx,-0xe0(%rbp,%rax,8)
    540d:	ff 
    540e:	83 85 dc fe ff ff 01 	addl   $0x1,-0x124(%rbp)
    5415:	83 bd dc fe ff ff 04 	cmpl   $0x4,-0x124(%rbp)
    541c:	7e d9                	jle    53f7 <func_28+0x155>
    541e:	c7 85 dc fe ff ff 00 	movl   $0x0,-0x124(%rbp)
    5425:	00 00 00 
    5428:	eb 1a                	jmp    5444 <func_28+0x1a2>
    542a:	8b 85 dc fe ff ff    	mov    -0x124(%rbp),%eax
    5430:	48 98                	cltq   
    5432:	c7 84 85 14 ff ff ff 	movl   $0x1,-0xec(%rbp,%rax,4)
    5439:	01 00 00 00 
    543d:	83 85 dc fe ff ff 01 	addl   $0x1,-0x124(%rbp)
    5444:	83 bd dc fe ff ff 02 	cmpl   $0x2,-0x124(%rbp)
    544b:	7e dd                	jle    542a <func_28+0x188>
    544d:	8b 85 c4 fe ff ff    	mov    -0x13c(%rbp),%eax
    5453:	0f bf d8             	movswl %ax,%ebx
    5456:	4c 0f be a5 d9 fe ff 	movsbq -0x127(%rbp),%r12
    545d:	ff 
    545e:	8b 85 c4 fe ff ff    	mov    -0x13c(%rbp),%eax
    5464:	44 0f b7 e8          	movzwl %ax,%r13d
    5468:	44 8b b5 c4 fe ff ff 	mov    -0x13c(%rbp),%r14d
    546f:	48 8b 05 ca cb 00 00 	mov    0xcbca(%rip),%rax        # 12040 <g_655>
    5476:	0f b7 00             	movzwl (%rax),%eax
    5479:	44 0f b7 f8          	movzwl %ax,%r15d
    547d:	48 8b 85 08 ff ff ff 	mov    -0xf8(%rbp),%rax
    5484:	48 8d 15 bd bb 00 00 	lea    0xbbbd(%rip),%rdx        # 11048 <g_52>
    548b:	48 89 10             	mov    %rdx,(%rax)
    548e:	48 8b 05 43 bc 00 00 	mov    0xbc43(%rip),%rax        # 110d8 <g_281>
    5495:	48 3d b1 00 00 00    	cmp    $0xb1,%rax
    549b:	0f 9e c0             	setle  %al
    549e:	0f b6 c0             	movzbl %al,%eax
    54a1:	be 78 9e ff ff       	mov    $0xffff9e78,%esi
    54a6:	89 c7                	mov    %eax,%edi
    54a8:	e8 06 df ff ff       	callq  33b3 <safe_add_func_int16_t_s_s>
    54ad:	0f b7 c0             	movzwl %ax,%eax
    54b0:	44 89 fe             	mov    %r15d,%esi
    54b3:	89 c7                	mov    %eax,%edi
    54b5:	e8 83 e8 ff ff       	callq  3d3d <safe_mul_func_uint16_t_u_u>
    54ba:	66 85 c0             	test   %ax,%ax
    54bd:	0f 95 c0             	setne  %al
    54c0:	0f b6 c0             	movzbl %al,%eax
    54c3:	44 89 f6             	mov    %r14d,%esi
    54c6:	89 c7                	mov    %eax,%edi
    54c8:	e8 e9 e0 ff ff       	callq  35b6 <safe_add_func_int32_t_s_s>
    54cd:	0b 85 c4 fe ff ff    	or     -0x13c(%rbp),%eax
    54d3:	3d c3 00 00 00       	cmp    $0xc3,%eax
    54d8:	76 07                	jbe    54e1 <func_28+0x23f>
    54da:	b8 3d e8 00 00       	mov    $0xe83d,%eax
    54df:	eb 05                	jmp    54e6 <func_28+0x244>
    54e1:	b8 3c e8 00 00       	mov    $0xe83c,%eax
    54e6:	44 89 ee             	mov    %r13d,%esi
    54e9:	89 c7                	mov    %eax,%edi
    54eb:	e8 0f e8 ff ff       	callq  3cff <safe_add_func_uint16_t_u_u>
    54f0:	0f b7 15 c3 bc 00 00 	movzwl 0xbcc3(%rip),%edx        # 111ba <g_323+0xda>
    54f7:	66 39 d0             	cmp    %dx,%ax
    54fa:	0f 92 c0             	setb   %al
    54fd:	0f b6 c0             	movzbl %al,%eax
    5500:	48 89 05 41 bb 00 00 	mov    %rax,0xbb41(%rip)        # 11048 <g_52>
    5507:	48 8b 05 3a bb 00 00 	mov    0xbb3a(%rip),%rax        # 11048 <g_52>
    550e:	4c 89 e6             	mov    %r12,%rsi
    5511:	48 89 c7             	mov    %rax,%rdi
    5514:	e8 32 eb ff ff       	callq  404b <safe_sub_func_uint64_t_u_u>
    5519:	8b 95 c4 fe ff ff    	mov    -0x13c(%rbp),%edx
    551f:	48 09 d0             	or     %rdx,%rax
    5522:	48 83 f8 01          	cmp    $0x1,%rax
    5526:	75 09                	jne    5531 <func_28+0x28f>
    5528:	83 bd c4 fe ff ff 00 	cmpl   $0x0,-0x13c(%rbp)
    552f:	74 07                	je     5538 <func_28+0x296>
    5531:	b8 01 00 00 00       	mov    $0x1,%eax
    5536:	eb 05                	jmp    553d <func_28+0x29b>
    5538:	b8 00 00 00 00       	mov    $0x0,%eax
    553d:	98                   	cwtl   
    553e:	89 de                	mov    %ebx,%esi
    5540:	89 c7                	mov    %eax,%edi
    5542:	e8 cf de ff ff       	callq  3416 <safe_mod_func_int16_t_s_s>
    5547:	66 0b 85 da fe ff ff 	or     -0x126(%rbp),%ax
    554e:	0f bf d0             	movswl %ax,%edx
    5551:	8b 85 1c ff ff ff    	mov    -0xe4(%rbp),%eax
    5557:	39 c2                	cmp    %eax,%edx
    5559:	0f 93 c0             	setae  %al
    555c:	0f b6 c0             	movzbl %al,%eax
    555f:	be 03 00 00 00       	mov    $0x3,%esi
    5564:	89 c7                	mov    %eax,%edi
    5566:	e8 9a e6 ff ff       	callq  3c05 <safe_lshift_func_uint8_t_u_s>
    556b:	0f b6 d0             	movzbl %al,%edx
    556e:	48 8b 85 b8 fe ff ff 	mov    -0x148(%rbp),%rax
    5575:	48 8b 00             	mov    (%rax),%rax
    5578:	8b 00                	mov    (%rax),%eax
    557a:	39 c2                	cmp    %eax,%edx
    557c:	0f 9f c0             	setg   %al
    557f:	0f b6 c0             	movzbl %al,%eax
    5582:	be 00 00 00 00       	mov    $0x0,%esi
    5587:	89 c7                	mov    %eax,%edi
    5589:	e8 cc e5 ff ff       	callq  3b5a <safe_add_func_uint8_t_u_u>
    558e:	0f b6 d0             	movzbl %al,%edx
    5591:	48 8b 8d e0 fe ff ff 	mov    -0x120(%rbp),%rcx
    5598:	48 8b 85 b0 fe ff ff 	mov    -0x150(%rbp),%rax
    559f:	48 8b 00             	mov    (%rax),%rax
    55a2:	89 08                	mov    %ecx,(%rax)
    55a4:	8b 30                	mov    (%rax),%esi
    55a6:	48 8b 85 00 ff ff ff 	mov    -0x100(%rbp),%rax
    55ad:	48 8d 8d e8 fe ff ff 	lea    -0x118(%rbp),%rcx
    55b4:	48 89 08             	mov    %rcx,(%rax)
    55b7:	48 8b 85 00 ff ff ff 	mov    -0x100(%rbp),%rax
    55be:	48 8b 00             	mov    (%rax),%rax
    55c1:	48 39 85 f8 fe ff ff 	cmp    %rax,-0x108(%rbp)
    55c8:	0f 95 c0             	setne  %al
    55cb:	0f b6 c0             	movzbl %al,%eax
    55ce:	39 c6                	cmp    %eax,%esi
    55d0:	0f 9c c0             	setl   %al
    55d3:	0f b6 c0             	movzbl %al,%eax
    55d6:	89 05 60 bc 00 00    	mov    %eax,0xbc60(%rip)        # 1123c <g_906+0x1c>
    55dc:	8b 05 5a bc 00 00    	mov    0xbc5a(%rip),%eax        # 1123c <g_906+0x1c>
    55e2:	89 d6                	mov    %edx,%esi
    55e4:	89 c7                	mov    %eax,%edi
    55e6:	e8 e1 e0 ff ff       	callq  36cc <safe_mod_func_int32_t_s_s>
    55eb:	48 8b 85 00 ff ff ff 	mov    -0x100(%rbp),%rax
    55f2:	48 8b 10             	mov    (%rax),%rdx
    55f5:	48 8d 85 e8 fe ff ff 	lea    -0x118(%rbp),%rax
    55fc:	48 39 c2             	cmp    %rax,%rdx
    55ff:	0f 95 c0             	setne  %al
    5602:	0f b6 c0             	movzbl %al,%eax
    5605:	8b 95 c4 fe ff ff    	mov    -0x13c(%rbp),%edx
    560b:	89 d6                	mov    %edx,%esi
    560d:	89 c7                	mov    %eax,%edi
    560f:	e8 f2 e7 ff ff       	callq  3e06 <safe_lshift_func_uint16_t_u_u>
    5614:	0f b7 c0             	movzwl %ax,%eax
    5617:	be fe ff ff ff       	mov    $0xfffffffe,%esi
    561c:	89 c7                	mov    %eax,%edi
    561e:	e8 da e8 ff ff       	callq  3efd <safe_mod_func_uint32_t_u_u>
    5623:	48 8b 05 06 c5 00 00 	mov    0xc506(%rip),%rax        # 11b30 <g_57>
    562a:	c7 00 e7 70 95 12    	movl   $0x129570e7,(%rax)
    5630:	c6 05 c7 bb 00 00 00 	movb   $0x0,0xbbc7(%rip)        # 111fe <g_658>
    5637:	e9 a5 00 00 00       	jmpq   56e1 <func_28+0x43f>
    563c:	c7 05 16 ba 00 00 00 	movl   $0x0,0xba16(%rip)        # 1105c <g_157>
    5643:	00 00 00 
    5646:	eb 7a                	jmp    56c2 <func_28+0x420>
    5648:	48 c7 05 75 ba 00 00 	movq   $0x0,0xba75(%rip)        # 110c8 <g_230>
    564f:	00 00 00 00 
    5653:	eb 51                	jmp    56a6 <func_28+0x404>
    5655:	0f b6 05 a2 bb 00 00 	movzbl 0xbba2(%rip),%eax        # 111fe <g_658>
    565c:	0f b6 d0             	movzbl %al,%edx
    565f:	8b 0d f7 b9 00 00    	mov    0xb9f7(%rip),%ecx        # 1105c <g_157>
    5665:	48 8b 05 5c ba 00 00 	mov    0xba5c(%rip),%rax        # 110c8 <g_230>
    566c:	89 c9                	mov    %ecx,%ecx
    566e:	48 63 d2             	movslq %edx,%rdx
    5671:	48 01 d2             	add    %rdx,%rdx
    5674:	48 01 ca             	add    %rcx,%rdx
    5677:	48 01 d2             	add    %rdx,%rdx
    567a:	48 01 d0             	add    %rdx,%rax
    567d:	48 8d 14 c5 00 00 00 	lea    0x0(,%rax,8),%rdx
    5684:	00 
    5685:	48 8d 05 d4 c9 00 00 	lea    0xc9d4(%rip),%rax        # 12060 <g_910>
    568c:	48 c7 04 02 00 00 00 	movq   $0x0,(%rdx,%rax,1)
    5693:	00 
    5694:	48 8b 05 2d ba 00 00 	mov    0xba2d(%rip),%rax        # 110c8 <g_230>
    569b:	48 83 c0 01          	add    $0x1,%rax
    569f:	48 89 05 22 ba 00 00 	mov    %rax,0xba22(%rip)        # 110c8 <g_230>
    56a6:	48 8b 05 1b ba 00 00 	mov    0xba1b(%rip),%rax        # 110c8 <g_230>
    56ad:	48 83 f8 01          	cmp    $0x1,%rax
    56b1:	7e a2                	jle    5655 <func_28+0x3b3>
    56b3:	8b 05 a3 b9 00 00    	mov    0xb9a3(%rip),%eax        # 1105c <g_157>
    56b9:	83 c0 01             	add    $0x1,%eax
    56bc:	89 05 9a b9 00 00    	mov    %eax,0xb99a(%rip)        # 1105c <g_157>
    56c2:	8b 05 94 b9 00 00    	mov    0xb994(%rip),%eax        # 1105c <g_157>
    56c8:	83 f8 01             	cmp    $0x1,%eax
    56cb:	0f 86 77 ff ff ff    	jbe    5648 <func_28+0x3a6>
    56d1:	0f b6 05 26 bb 00 00 	movzbl 0xbb26(%rip),%eax        # 111fe <g_658>
    56d8:	83 c0 01             	add    $0x1,%eax
    56db:	88 05 1d bb 00 00    	mov    %al,0xbb1d(%rip)        # 111fe <g_658>
    56e1:	0f b6 05 16 bb 00 00 	movzbl 0xbb16(%rip),%eax        # 111fe <g_658>
    56e8:	3c 04                	cmp    $0x4,%al
    56ea:	0f 86 4c ff ff ff    	jbe    563c <func_28+0x39a>
    56f0:	48 8b 05 21 c9 00 00 	mov    0xc921(%rip),%rax        # 12018 <g_627>
    56f7:	48 8b 00             	mov    (%rax),%rax
    56fa:	48 8b 00             	mov    (%rax),%rax
    56fd:	48 8b 00             	mov    (%rax),%rax
    5700:	8b 00                	mov    (%rax),%eax
    5702:	48 8b 5d c8          	mov    -0x38(%rbp),%rbx
    5706:	64 48 33 1c 25 28 00 	xor    %fs:0x28,%rbx
    570d:	00 00 
    570f:	74 05                	je     5716 <func_28+0x474>
    5711:	e8 5a d9 ff ff       	callq  3070 <__stack_chk_fail@plt>
    5716:	48 81 c4 38 01 00 00 	add    $0x138,%rsp
    571d:	5b                   	pop    %rbx
    571e:	41 5c                	pop    %r12
    5720:	41 5d                	pop    %r13
    5722:	41 5e                	pop    %r14
    5724:	41 5f                	pop    %r15
    5726:	5d                   	pop    %rbp
    5727:	c3                   	retq   

0000000000005728 <func_34>:
    5728:	f3 0f 1e fa          	endbr64 
    572c:	55                   	push   %rbp
    572d:	48 89 e5             	mov    %rsp,%rbp
    5730:	48 81 ec 30 07 00 00 	sub    $0x730,%rsp
    5737:	48 89 bd d8 f8 ff ff 	mov    %rdi,-0x728(%rbp)
    573e:	64 48 8b 04 25 28 00 	mov    %fs:0x28,%rax
    5745:	00 00 
    5747:	48 89 45 f8          	mov    %rax,-0x8(%rbp)
    574b:	31 c0                	xor    %eax,%eax
    574d:	c7 85 e8 f8 ff ff fb 	movl   $0xfffffffb,-0x718(%rbp)
    5754:	ff ff ff 
    5757:	c7 85 f8 f8 ff ff 37 	movl   $0x9681a037,-0x708(%rbp)
    575e:	a0 81 96 
    5761:	c7 85 fc f8 ff ff be 	movl   $0x1a0f79be,-0x704(%rbp)
    5768:	79 0f 1a 
    576b:	c7 85 00 f9 ff ff 06 	movl   $0x6,-0x700(%rbp)
    5772:	00 00 00 
    5775:	c7 85 04 f9 ff ff f6 	movl   $0xfffffff6,-0x6fc(%rbp)
    577c:	ff ff ff 
    577f:	c7 85 08 f9 ff ff 27 	movl   $0x7c725c27,-0x6f8(%rbp)
    5786:	5c 72 7c 
    5789:	c7 85 ec f8 ff ff 49 	movl   $0x3cdf1049,-0x714(%rbp)
    5790:	10 df 3c 
    5793:	c7 85 0c f9 ff ff 9a 	movl   $0xca596b9a,-0x6f4(%rbp)
    579a:	6b 59 ca 
    579d:	48 8d 85 b0 f9 ff ff 	lea    -0x650(%rbp),%rax
    57a4:	48 8d 15 95 6c 00 00 	lea    0x6c95(%rip),%rdx        # c440 <_IO_stdin_used+0x440>
    57ab:	b9 28 00 00 00       	mov    $0x28,%ecx
    57b0:	48 89 c7             	mov    %rax,%rdi
    57b3:	48 89 d6             	mov    %rdx,%rsi
    57b6:	f3 48 a5             	rep movsq %ds:(%rsi),%es:(%rdi)
    57b9:	c6 85 e7 f8 ff ff ff 	movb   $0xff,-0x719(%rbp)
    57c0:	48 8d 05 81 c8 00 00 	lea    0xc881(%rip),%rax        # 12048 <g_654>
    57c7:	48 89 85 30 f9 ff ff 	mov    %rax,-0x6d0(%rbp)
    57ce:	48 8d 85 ec f8 ff ff 	lea    -0x714(%rbp),%rax
    57d5:	48 89 85 38 f9 ff ff 	mov    %rax,-0x6c8(%rbp)
    57dc:	48 8d 05 65 b8 00 00 	lea    0xb865(%rip),%rax        # 11048 <g_52>
    57e3:	48 89 85 18 f9 ff ff 	mov    %rax,-0x6e8(%rbp)
    57ea:	48 8d 85 18 f9 ff ff 	lea    -0x6e8(%rbp),%rax
    57f1:	48 89 85 40 f9 ff ff 	mov    %rax,-0x6c0(%rbp)
    57f8:	48 c7 85 48 f9 ff ff 	movq   $0x0,-0x6b8(%rbp)
    57ff:	00 00 00 00 
    5803:	48 c7 85 50 f9 ff ff 	movq   $0x0,-0x6b0(%rbp)
    580a:	00 00 00 00 
    580e:	66 c7 05 41 b8 00 00 	movw   $0xfffb,0xb841(%rip)        # 11058 <g_71>
    5815:	fb ff 
    5817:	e9 b6 02 00 00       	jmpq   5ad2 <func_34+0x3aa>
    581c:	48 8d 05 35 cd 00 00 	lea    0xcd35(%rip),%rax        # 12558 <g_310>
    5823:	48 89 85 58 f9 ff ff 	mov    %rax,-0x6a8(%rbp)
    582a:	48 8d 85 d0 fc ff ff 	lea    -0x330(%rbp),%rax
    5831:	48 8d 15 48 6d 00 00 	lea    0x6d48(%rip),%rdx        # c580 <_IO_stdin_used+0x580>
    5838:	b9 64 00 00 00       	mov    $0x64,%ecx
    583d:	48 89 c7             	mov    %rax,%rdi
    5840:	48 89 d6             	mov    %rdx,%rsi
    5843:	f3 48 a5             	rep movsq %ds:(%rsi),%es:(%rdi)
    5846:	c7 85 10 f9 ff ff ff 	movl   $0xffffffff,-0x6f0(%rbp)
    584d:	ff ff ff 
    5850:	c7 85 14 f9 ff ff 09 	movl   $0x9,-0x6ec(%rbp)
    5857:	00 00 00 
    585a:	48 8d 85 f0 fa ff ff 	lea    -0x510(%rbp),%rax
    5861:	48 8d 15 38 70 00 00 	lea    0x7038(%rip),%rdx        # c8a0 <_IO_stdin_used+0x8a0>
    5868:	b9 3c 00 00 00       	mov    $0x3c,%ecx
    586d:	48 89 c7             	mov    %rax,%rdi
    5870:	48 89 d6             	mov    %rdx,%rsi
    5873:	f3 48 a5             	rep movsq %ds:(%rsi),%es:(%rdi)
    5876:	48 8b 85 58 f9 ff ff 	mov    -0x6a8(%rbp),%rax
    587d:	48 8b 95 d8 f8 ff ff 	mov    -0x728(%rbp),%rdx
    5884:	48 89 10             	mov    %rdx,(%rax)
    5887:	c6 05 cc b7 00 00 f7 	movb   $0xf7,0xb7cc(%rip)        # 1105a <g_103>
    588e:	e9 49 01 00 00       	jmpq   59dc <func_34+0x2b4>
    5893:	c7 05 a3 b7 00 00 00 	movl   $0x0,0xb7a3(%rip)        # 11040 <g_19>
    589a:	00 00 00 
    589d:	e9 0c 01 00 00       	jmpq   59ae <func_34+0x286>
    58a2:	8b 85 e8 f8 ff ff    	mov    -0x718(%rbp),%eax
    58a8:	85 c0                	test   %eax,%eax
    58aa:	74 58                	je     5904 <func_34+0x1dc>
    58ac:	c7 85 f0 f8 ff ff 00 	movl   $0x0,-0x710(%rbp)
    58b3:	00 00 00 
    58b6:	eb 1e                	jmp    58d6 <func_34+0x1ae>
    58b8:	8b 85 f0 f8 ff ff    	mov    -0x710(%rbp),%eax
    58be:	48 98                	cltq   
    58c0:	48 8d 95 e8 f8 ff ff 	lea    -0x718(%rbp),%rdx
    58c7:	48 89 94 c5 90 f9 ff 	mov    %rdx,-0x670(%rbp,%rax,8)
    58ce:	ff 
    58cf:	83 85 f0 f8 ff ff 01 	addl   $0x1,-0x710(%rbp)
    58d6:	83 bd f0 f8 ff ff 02 	cmpl   $0x2,-0x710(%rbp)
    58dd:	7e d9                	jle    58b8 <func_34+0x190>
    58df:	48 8b 05 32 c7 00 00 	mov    0xc732(%rip),%rax        # 12018 <g_627>
    58e6:	48 8b 00             	mov    (%rax),%rax
    58e9:	48 8b 00             	mov    (%rax),%rax
    58ec:	48 8b 00             	mov    (%rax),%rax
    58ef:	8b 10                	mov    (%rax),%edx
    58f1:	8b 05 45 b9 00 00    	mov    0xb945(%rip),%eax        # 1123c <g_906+0x1c>
    58f7:	31 d0                	xor    %edx,%eax
    58f9:	89 05 3d b9 00 00    	mov    %eax,0xb93d(%rip)        # 1123c <g_906+0x1c>
    58ff:	e9 8f 00 00 00       	jmpq   5993 <func_34+0x26b>
    5904:	48 8d 05 29 b7 00 00 	lea    0xb729(%rip),%rax        # 11034 <g_3+0x4>
    590b:	48 89 85 20 f9 ff ff 	mov    %rax,-0x6e0(%rbp)
    5912:	48 8d 85 20 f9 ff ff 	lea    -0x6e0(%rbp),%rax
    5919:	48 89 85 80 f9 ff ff 	mov    %rax,-0x680(%rbp)
    5920:	48 8d 05 a1 b7 00 00 	lea    0xb7a1(%rip),%rax        # 110c8 <g_230>
    5927:	48 89 85 28 f9 ff ff 	mov    %rax,-0x6d8(%rbp)
    592e:	48 8d 85 28 f9 ff ff 	lea    -0x6d8(%rbp),%rax
    5935:	48 89 85 88 f9 ff ff 	mov    %rax,-0x678(%rbp)
    593c:	8b 85 78 ff ff ff    	mov    -0x88(%rbp),%eax
    5942:	85 c0                	test   %eax,%eax
    5944:	75 79                	jne    59bf <func_34+0x297>
    5946:	48 8b 95 20 f9 ff ff 	mov    -0x6e0(%rbp),%rdx
    594d:	48 8b 85 80 f9 ff ff 	mov    -0x680(%rbp),%rax
    5954:	48 89 10             	mov    %rdx,(%rax)
    5957:	48 8b 05 a2 c7 00 00 	mov    0xc7a2(%rip),%rax        # 12100 <g_912>
    595e:	48 8b 95 80 f9 ff ff 	mov    -0x680(%rbp),%rdx
    5965:	48 8b 12             	mov    (%rdx),%rdx
    5968:	48 89 10             	mov    %rdx,(%rax)
    596b:	48 8b 05 c6 c1 00 00 	mov    0xc1c6(%rip),%rax        # 11b38 <g_56>
    5972:	48 8b 00             	mov    (%rax),%rax
    5975:	c7 00 01 00 00 00    	movl   $0x1,(%rax)
    597b:	48 8b 05 ae c1 00 00 	mov    0xc1ae(%rip),%rax        # 11b30 <g_57>
    5982:	8b 10                	mov    (%rax),%edx
    5984:	48 8b 05 a5 c1 00 00 	mov    0xc1a5(%rip),%rax        # 11b30 <g_57>
    598b:	81 ca 12 09 48 51    	or     $0x51480912,%edx
    5991:	89 10                	mov    %edx,(%rax)
    5993:	8b 05 a7 b6 00 00    	mov    0xb6a7(%rip),%eax        # 11040 <g_19>
    5999:	48 98                	cltq   
    599b:	be 01 00 00 00       	mov    $0x1,%esi
    59a0:	48 89 c7             	mov    %rax,%rdi
    59a3:	e8 86 e6 ff ff       	callq  402e <safe_add_func_uint64_t_u_u>
    59a8:	89 05 92 b6 00 00    	mov    %eax,0xb692(%rip)        # 11040 <g_19>
    59ae:	8b 05 8c b6 00 00    	mov    0xb68c(%rip),%eax        # 11040 <g_19>
    59b4:	83 f8 06             	cmp    $0x6,%eax
    59b7:	0f 8f e5 fe ff ff    	jg     58a2 <func_34+0x17a>
    59bd:	eb 01                	jmp    59c0 <func_34+0x298>
    59bf:	90                   	nop
    59c0:	0f b6 05 93 b6 00 00 	movzbl 0xb693(%rip),%eax        # 1105a <g_103>
    59c7:	0f be c0             	movsbl %al,%eax
    59ca:	be 02 00 00 00       	mov    $0x2,%esi
    59cf:	89 c7                	mov    %eax,%edi
    59d1:	e8 fd d9 ff ff       	callq  33d3 <safe_sub_func_int16_t_s_s>
    59d6:	88 05 7e b6 00 00    	mov    %al,0xb67e(%rip)        # 1105a <g_103>
    59dc:	0f b6 05 77 b6 00 00 	movzbl 0xb677(%rip),%eax        # 1105a <g_103>
    59e3:	3c e4                	cmp    $0xe4,%al
    59e5:	0f 8c a8 fe ff ff    	jl     5893 <func_34+0x16b>
    59eb:	48 c7 05 52 b6 00 00 	movq   $0x0,0xb652(%rip)        # 11048 <g_52>
    59f2:	00 00 00 00 
    59f6:	e9 a4 00 00 00       	jmpq   5a9f <func_34+0x377>
    59fb:	48 8d 05 32 b8 00 00 	lea    0xb832(%rip),%rax        # 11234 <g_906+0x14>
    5a02:	48 89 85 60 f9 ff ff 	mov    %rax,-0x6a0(%rbp)
    5a09:	48 8d 05 30 b6 00 00 	lea    0xb630(%rip),%rax        # 11040 <g_19>
    5a10:	48 89 85 68 f9 ff ff 	mov    %rax,-0x698(%rbp)
    5a17:	48 8d 85 e8 f8 ff ff 	lea    -0x718(%rbp),%rax
    5a1e:	48 89 85 70 f9 ff ff 	mov    %rax,-0x690(%rbp)
    5a25:	48 8d 05 14 b6 00 00 	lea    0xb614(%rip),%rax        # 11040 <g_19>
    5a2c:	48 89 85 78 f9 ff ff 	mov    %rax,-0x688(%rbp)
    5a33:	c7 85 f4 f8 ff ff 00 	movl   $0x0,-0x70c(%rbp)
    5a3a:	00 00 00 
    5a3d:	eb 1b                	jmp    5a5a <func_34+0x332>
    5a3f:	8b 85 f4 f8 ff ff    	mov    -0x70c(%rbp),%eax
    5a45:	48 98                	cltq   
    5a47:	48 c7 84 c5 90 f9 ff 	movq   $0x0,-0x670(%rbp,%rax,8)
    5a4e:	ff 00 00 00 00 
    5a53:	83 85 f4 f8 ff ff 01 	addl   $0x1,-0x70c(%rbp)
    5a5a:	83 bd f4 f8 ff ff 00 	cmpl   $0x0,-0x70c(%rbp)
    5a61:	7e dc                	jle    5a3f <func_34+0x317>
    5a63:	0f b6 85 e7 f8 ff ff 	movzbl -0x719(%rbp),%eax
    5a6a:	83 e8 01             	sub    $0x1,%eax
    5a6d:	88 85 e7 f8 ff ff    	mov    %al,-0x719(%rbp)
    5a73:	48 8b 85 78 f9 ff ff 	mov    -0x688(%rbp),%rax
    5a7a:	8b 10                	mov    (%rax),%edx
    5a7c:	8b 85 2c fa ff ff    	mov    -0x5d4(%rbp),%eax
    5a82:	31 c2                	xor    %eax,%edx
    5a84:	48 8b 85 78 f9 ff ff 	mov    -0x688(%rbp),%rax
    5a8b:	89 10                	mov    %edx,(%rax)
    5a8d:	48 8b 05 b4 b5 00 00 	mov    0xb5b4(%rip),%rax        # 11048 <g_52>
    5a94:	48 83 c0 01          	add    $0x1,%rax
    5a98:	48 89 05 a9 b5 00 00 	mov    %rax,0xb5a9(%rip)        # 11048 <g_52>
    5a9f:	48 8b 05 a2 b5 00 00 	mov    0xb5a2(%rip),%rax        # 11048 <g_52>
    5aa6:	48 83 f8 1b          	cmp    $0x1b,%rax
    5aaa:	0f 86 4b ff ff ff    	jbe    59fb <func_34+0x2d3>
    5ab0:	8b 85 e8 f8 ff ff    	mov    -0x718(%rbp),%eax
    5ab6:	85 c0                	test   %eax,%eax
    5ab8:	75 5d                	jne    5b17 <func_34+0x3ef>
    5aba:	80 bd e7 f8 ff ff 00 	cmpb   $0x0,-0x719(%rbp)
    5ac1:	0f b7 05 90 b5 00 00 	movzwl 0xb590(%rip),%eax        # 11058 <g_71>
    5ac8:	83 c0 01             	add    $0x1,%eax
    5acb:	66 89 05 86 b5 00 00 	mov    %ax,0xb586(%rip)        # 11058 <g_71>
    5ad2:	0f b7 05 7f b5 00 00 	movzwl 0xb57f(%rip),%eax        # 11058 <g_71>
    5ad9:	66 83 f8 16          	cmp    $0x16,%ax
    5add:	0f 85 39 fd ff ff    	jne    581c <func_34+0xf4>
    5ae3:	48 8d 05 5e c5 00 00 	lea    0xc55e(%rip),%rax        # 12048 <g_654>
    5aea:	48 89 05 a7 ca 00 00 	mov    %rax,0xcaa7(%rip)        # 12598 <g_939>
    5af1:	48 8b 05 a0 ca 00 00 	mov    0xcaa0(%rip),%rax        # 12598 <g_939>
    5af8:	48 39 85 30 f9 ff ff 	cmp    %rax,-0x6d0(%rbp)
    5aff:	0f 95 c0             	setne  %al
    5b02:	0f b6 c8             	movzbl %al,%ecx
    5b05:	48 8b 05 2c c0 00 00 	mov    0xc02c(%rip),%rax        # 11b38 <g_56>
    5b0c:	48 8b 00             	mov    (%rax),%rax
    5b0f:	8b 10                	mov    (%rax),%edx
    5b11:	21 ca                	and    %ecx,%edx
    5b13:	89 10                	mov    %edx,(%rax)
    5b15:	eb 01                	jmp    5b18 <func_34+0x3f0>
    5b17:	90                   	nop
    5b18:	48 8b 85 38 f9 ff ff 	mov    -0x6c8(%rbp),%rax
    5b1f:	48 89 85 d8 f8 ff ff 	mov    %rax,-0x728(%rbp)
    5b26:	48 8b 85 40 f9 ff ff 	mov    -0x6c0(%rbp),%rax
    5b2d:	48 8d 15 14 b5 00 00 	lea    0xb514(%rip),%rdx        # 11048 <g_52>
    5b34:	48 89 10             	mov    %rdx,(%rax)
    5b37:	48 8d 05 0a b5 00 00 	lea    0xb50a(%rip),%rax        # 11048 <g_52>
    5b3e:	48 39 85 48 f9 ff ff 	cmp    %rax,-0x6b8(%rbp)
    5b45:	0f 95 c0             	setne  %al
    5b48:	0f b6 d0             	movzbl %al,%edx
    5b4b:	48 8b 85 38 f9 ff ff 	mov    -0x6c8(%rbp),%rax
    5b52:	89 10                	mov    %edx,(%rax)
    5b54:	48 8b 85 38 f9 ff ff 	mov    -0x6c8(%rbp),%rax
    5b5b:	8b 08                	mov    (%rax),%ecx
    5b5d:	48 8b 05 ac c4 00 00 	mov    0xc4ac(%rip),%rax        # 12010 <g_628>
    5b64:	48 8b 00             	mov    (%rax),%rax
    5b67:	48 8b 00             	mov    (%rax),%rax
    5b6a:	8b 10                	mov    (%rax),%edx
    5b6c:	31 ca                	xor    %ecx,%edx
    5b6e:	89 10                	mov    %edx,(%rax)
    5b70:	48 8b 85 50 f9 ff ff 	mov    -0x6b0(%rbp),%rax
    5b77:	48 8b 75 f8          	mov    -0x8(%rbp),%rsi
    5b7b:	64 48 33 34 25 28 00 	xor    %fs:0x28,%rsi
    5b82:	00 00 
    5b84:	74 05                	je     5b8b <func_34+0x463>
    5b86:	e8 e5 d4 ff ff       	callq  3070 <__stack_chk_fail@plt>
    5b8b:	c9                   	leaveq 
    5b8c:	c3                   	retq   

0000000000005b8d <func_38>:
    5b8d:	f3 0f 1e fa          	endbr64 
    5b91:	55                   	push   %rbp
    5b92:	48 89 e5             	mov    %rsp,%rbp
    5b95:	48 81 ec 00 07 00 00 	sub    $0x700,%rsp
    5b9c:	89 f0                	mov    %esi,%eax
    5b9e:	48 89 95 10 f9 ff ff 	mov    %rdx,-0x6f0(%rbp)
    5ba5:	48 89 8d 08 f9 ff ff 	mov    %rcx,-0x6f8(%rbp)
    5bac:	89 fa                	mov    %edi,%edx
    5bae:	88 95 1c f9 ff ff    	mov    %dl,-0x6e4(%rbp)
    5bb4:	66 89 85 18 f9 ff ff 	mov    %ax,-0x6e8(%rbp)
    5bbb:	64 48 8b 04 25 28 00 	mov    %fs:0x28,%rax
    5bc2:	00 00 
    5bc4:	48 89 45 f8          	mov    %rax,-0x8(%rbp)
    5bc8:	31 c0                	xor    %eax,%eax
    5bca:	48 8d 05 77 b4 00 00 	lea    0xb477(%rip),%rax        # 11048 <g_52>
    5bd1:	48 89 85 78 f9 ff ff 	mov    %rax,-0x688(%rbp)
    5bd8:	48 8d 85 78 f9 ff ff 	lea    -0x688(%rbp),%rax
    5bdf:	48 89 85 80 f9 ff ff 	mov    %rax,-0x680(%rbp)
    5be6:	48 8d 85 80 f9 ff ff 	lea    -0x680(%rbp),%rax
    5bed:	48 89 85 a0 f9 ff ff 	mov    %rax,-0x660(%rbp)
    5bf4:	48 8d 85 10 fc ff ff 	lea    -0x3f0(%rbp),%rax
    5bfb:	48 8d 15 7e 6e 00 00 	lea    0x6e7e(%rip),%rdx        # ca80 <_IO_stdin_used+0xa80>
    5c02:	b9 3c 00 00 00       	mov    $0x3c,%ecx
    5c07:	48 89 c7             	mov    %rax,%rdi
    5c0a:	48 89 d6             	mov    %rdx,%rsi
    5c0d:	f3 48 a5             	rep movsq %ds:(%rsi),%es:(%rdi)
    5c10:	c7 85 40 f9 ff ff 10 	movl   $0x493f8610,-0x6c0(%rbp)
    5c17:	86 3f 49 
    5c1a:	c7 85 44 f9 ff ff ff 	movl   $0xffffffff,-0x6bc(%rbp)
    5c21:	ff ff ff 
    5c24:	c6 85 2c f9 ff ff 01 	movb   $0x1,-0x6d4(%rbp)
    5c2b:	c7 85 20 fa ff ff 93 	movl   $0x18caa693,-0x5e0(%rbp)
    5c32:	a6 ca 18 
    5c35:	c7 85 24 fa ff ff 93 	movl   $0x18caa693,-0x5dc(%rbp)
    5c3c:	a6 ca 18 
    5c3f:	c7 85 28 fa ff ff 93 	movl   $0x18caa693,-0x5d8(%rbp)
    5c46:	a6 ca 18 
    5c49:	c7 85 2c fa ff ff 93 	movl   $0x18caa693,-0x5d4(%rbp)
    5c50:	a6 ca 18 
    5c53:	c7 85 30 fa ff ff 93 	movl   $0x18caa693,-0x5d0(%rbp)
    5c5a:	a6 ca 18 
    5c5d:	c7 85 34 fa ff ff 93 	movl   $0x18caa693,-0x5cc(%rbp)
    5c64:	a6 ca 18 
    5c67:	c7 85 38 fa ff ff 93 	movl   $0x18caa693,-0x5c8(%rbp)
    5c6e:	a6 ca 18 
    5c71:	c7 85 3c fa ff ff 93 	movl   $0x18caa693,-0x5c4(%rbp)
    5c78:	a6 ca 18 
    5c7b:	c7 85 40 fa ff ff 93 	movl   $0x18caa693,-0x5c0(%rbp)
    5c82:	a6 ca 18 
    5c85:	c7 85 44 fa ff ff 93 	movl   $0x18caa693,-0x5bc(%rbp)
    5c8c:	a6 ca 18 
    5c8f:	c7 85 48 fa ff ff 93 	movl   $0x18caa693,-0x5b8(%rbp)
    5c96:	a6 ca 18 
    5c99:	c7 85 4c fa ff ff 93 	movl   $0x18caa693,-0x5b4(%rbp)
    5ca0:	a6 ca 18 
    5ca3:	48 8d 05 7e c3 00 00 	lea    0xc37e(%rip),%rax        # 12028 <g_631>
    5caa:	48 89 85 a8 f9 ff ff 	mov    %rax,-0x658(%rbp)
    5cb1:	48 c7 85 b0 f9 ff ff 	movq   $0x0,-0x650(%rbp)
    5cb8:	00 00 00 00 
    5cbc:	48 8d 05 9d b3 00 00 	lea    0xb39d(%rip),%rax        # 11060 <g_184>
    5cc3:	48 89 85 b8 f9 ff ff 	mov    %rax,-0x648(%rbp)
    5cca:	c6 85 2d f9 ff ff ff 	movb   $0xff,-0x6d3(%rbp)
    5cd1:	48 8d 85 f0 fd ff ff 	lea    -0x210(%rbp),%rax
    5cd8:	48 8d 15 81 6f 00 00 	lea    0x6f81(%rip),%rdx        # cc60 <_IO_stdin_used+0xc60>
    5cdf:	b9 40 00 00 00       	mov    $0x40,%ecx
    5ce4:	48 89 c7             	mov    %rax,%rdi
    5ce7:	48 89 d6             	mov    %rdx,%rsi
    5cea:	f3 48 a5             	rep movsq %ds:(%rsi),%es:(%rdi)
    5ced:	c7 85 48 f9 ff ff be 	movl   $0xfbb77bbe,-0x6b8(%rbp)
    5cf4:	7b b7 fb 
    5cf7:	48 8d 05 56 b3 00 00 	lea    0xb356(%rip),%rax        # 11054 <g_64>
    5cfe:	48 89 85 c0 f9 ff ff 	mov    %rax,-0x640(%rbp)
    5d05:	66 c7 85 2e f9 ff ff 	movw   $0xffff,-0x6d2(%rbp)
    5d0c:	ff ff 
    5d0e:	48 8d 85 10 fc ff ff 	lea    -0x3f0(%rbp),%rax
    5d15:	48 05 44 01 00 00    	add    $0x144,%rax
    5d1b:	48 89 85 c8 f9 ff ff 	mov    %rax,-0x638(%rbp)
    5d22:	c6 05 31 b3 00 00 04 	movb   $0x4,0xb331(%rip)        # 1105a <g_103>
    5d29:	e9 93 04 00 00       	jmpq   61c1 <func_38+0x634>
    5d2e:	c7 85 4c f9 ff ff 6a 	movl   $0x4456736a,-0x6b4(%rbp)
    5d35:	73 56 44 
    5d38:	c7 85 50 f9 ff ff 01 	movl   $0x1,-0x6b0(%rbp)
    5d3f:	00 00 00 
    5d42:	c7 85 54 f9 ff ff 38 	movl   $0xe4165638,-0x6ac(%rbp)
    5d49:	56 16 e4 
    5d4c:	c7 85 58 f9 ff ff fa 	movl   $0xfffffffa,-0x6a8(%rbp)
    5d53:	ff ff ff 
    5d56:	c7 85 5c f9 ff ff ff 	movl   $0xffffffff,-0x6a4(%rbp)
    5d5d:	ff ff ff 
    5d60:	48 8d 05 99 b4 00 00 	lea    0xb499(%rip),%rax        # 11200 <g_661>
    5d67:	48 89 85 88 f9 ff ff 	mov    %rax,-0x678(%rbp)
    5d6e:	48 8d 85 88 f9 ff ff 	lea    -0x678(%rbp),%rax
    5d75:	48 89 85 90 f9 ff ff 	mov    %rax,-0x670(%rbp)
    5d7c:	48 8d 85 90 f9 ff ff 	lea    -0x670(%rbp),%rax
    5d83:	48 89 85 98 f9 ff ff 	mov    %rax,-0x668(%rbp)
    5d8a:	48 8d 85 98 f9 ff ff 	lea    -0x668(%rbp),%rax
    5d91:	48 89 85 80 fa ff ff 	mov    %rax,-0x580(%rbp)
    5d98:	48 8d 85 98 f9 ff ff 	lea    -0x668(%rbp),%rax
    5d9f:	48 89 85 88 fa ff ff 	mov    %rax,-0x578(%rbp)
    5da6:	48 8d 85 98 f9 ff ff 	lea    -0x668(%rbp),%rax
    5dad:	48 89 85 90 fa ff ff 	mov    %rax,-0x570(%rbp)
    5db4:	48 8d 85 98 f9 ff ff 	lea    -0x668(%rbp),%rax
    5dbb:	48 89 85 98 fa ff ff 	mov    %rax,-0x568(%rbp)
    5dc2:	48 8d 85 98 f9 ff ff 	lea    -0x668(%rbp),%rax
    5dc9:	48 89 85 a0 fa ff ff 	mov    %rax,-0x560(%rbp)
    5dd0:	48 8d 85 98 f9 ff ff 	lea    -0x668(%rbp),%rax
    5dd7:	48 89 85 a8 fa ff ff 	mov    %rax,-0x558(%rbp)
    5dde:	48 8d 85 98 f9 ff ff 	lea    -0x668(%rbp),%rax
    5de5:	48 89 85 b0 fa ff ff 	mov    %rax,-0x550(%rbp)
    5dec:	48 c7 85 b8 fa ff ff 	movq   $0x0,-0x548(%rbp)
    5df3:	00 00 00 00 
    5df7:	48 8d 85 98 f9 ff ff 	lea    -0x668(%rbp),%rax
    5dfe:	48 89 85 c0 fa ff ff 	mov    %rax,-0x540(%rbp)
    5e05:	48 8d 85 98 f9 ff ff 	lea    -0x668(%rbp),%rax
    5e0c:	48 89 85 c8 fa ff ff 	mov    %rax,-0x538(%rbp)
    5e13:	48 8d 85 98 f9 ff ff 	lea    -0x668(%rbp),%rax
    5e1a:	48 89 85 d0 fa ff ff 	mov    %rax,-0x530(%rbp)
    5e21:	48 8d 85 98 f9 ff ff 	lea    -0x668(%rbp),%rax
    5e28:	48 89 85 d8 fa ff ff 	mov    %rax,-0x528(%rbp)
    5e2f:	48 8d 85 98 f9 ff ff 	lea    -0x668(%rbp),%rax
    5e36:	48 89 85 e0 fa ff ff 	mov    %rax,-0x520(%rbp)
    5e3d:	48 8d 85 98 f9 ff ff 	lea    -0x668(%rbp),%rax
    5e44:	48 89 85 e8 fa ff ff 	mov    %rax,-0x518(%rbp)
    5e4b:	48 8d 85 98 f9 ff ff 	lea    -0x668(%rbp),%rax
    5e52:	48 89 85 f0 fa ff ff 	mov    %rax,-0x510(%rbp)
    5e59:	48 8d 85 98 f9 ff ff 	lea    -0x668(%rbp),%rax
    5e60:	48 89 85 f8 fa ff ff 	mov    %rax,-0x508(%rbp)
    5e67:	48 8d 85 98 f9 ff ff 	lea    -0x668(%rbp),%rax
    5e6e:	48 89 85 00 fb ff ff 	mov    %rax,-0x500(%rbp)
    5e75:	48 8d 85 98 f9 ff ff 	lea    -0x668(%rbp),%rax
    5e7c:	48 89 85 08 fb ff ff 	mov    %rax,-0x4f8(%rbp)
    5e83:	48 8d 85 98 f9 ff ff 	lea    -0x668(%rbp),%rax
    5e8a:	48 89 85 10 fb ff ff 	mov    %rax,-0x4f0(%rbp)
    5e91:	48 8d 85 98 f9 ff ff 	lea    -0x668(%rbp),%rax
    5e98:	48 89 85 18 fb ff ff 	mov    %rax,-0x4e8(%rbp)
    5e9f:	48 8d 85 98 f9 ff ff 	lea    -0x668(%rbp),%rax
    5ea6:	48 89 85 20 fb ff ff 	mov    %rax,-0x4e0(%rbp)
    5ead:	48 c7 85 28 fb ff ff 	movq   $0x0,-0x4d8(%rbp)
    5eb4:	00 00 00 00 
    5eb8:	48 8d 85 98 f9 ff ff 	lea    -0x668(%rbp),%rax
    5ebf:	48 89 85 30 fb ff ff 	mov    %rax,-0x4d0(%rbp)
    5ec6:	48 8d 85 98 f9 ff ff 	lea    -0x668(%rbp),%rax
    5ecd:	48 89 85 38 fb ff ff 	mov    %rax,-0x4c8(%rbp)
    5ed4:	48 8d 85 98 f9 ff ff 	lea    -0x668(%rbp),%rax
    5edb:	48 89 85 40 fb ff ff 	mov    %rax,-0x4c0(%rbp)
    5ee2:	48 8d 85 98 f9 ff ff 	lea    -0x668(%rbp),%rax
    5ee9:	48 89 85 48 fb ff ff 	mov    %rax,-0x4b8(%rbp)
    5ef0:	48 8d 85 98 f9 ff ff 	lea    -0x668(%rbp),%rax
    5ef7:	48 89 85 50 fb ff ff 	mov    %rax,-0x4b0(%rbp)
    5efe:	48 8d 85 98 f9 ff ff 	lea    -0x668(%rbp),%rax
    5f05:	48 89 85 58 fb ff ff 	mov    %rax,-0x4a8(%rbp)
    5f0c:	48 8d 85 98 f9 ff ff 	lea    -0x668(%rbp),%rax
    5f13:	48 89 85 60 fb ff ff 	mov    %rax,-0x4a0(%rbp)
    5f1a:	48 8d 85 98 f9 ff ff 	lea    -0x668(%rbp),%rax
    5f21:	48 89 85 68 fb ff ff 	mov    %rax,-0x498(%rbp)
    5f28:	48 8d 85 98 f9 ff ff 	lea    -0x668(%rbp),%rax
    5f2f:	48 89 85 70 fb ff ff 	mov    %rax,-0x490(%rbp)
    5f36:	48 8d 85 98 f9 ff ff 	lea    -0x668(%rbp),%rax
    5f3d:	48 89 85 78 fb ff ff 	mov    %rax,-0x488(%rbp)
    5f44:	48 8d 85 98 f9 ff ff 	lea    -0x668(%rbp),%rax
    5f4b:	48 89 85 80 fb ff ff 	mov    %rax,-0x480(%rbp)
    5f52:	48 8d 85 98 f9 ff ff 	lea    -0x668(%rbp),%rax
    5f59:	48 89 85 88 fb ff ff 	mov    %rax,-0x478(%rbp)
    5f60:	48 8d 85 98 f9 ff ff 	lea    -0x668(%rbp),%rax
    5f67:	48 89 85 90 fb ff ff 	mov    %rax,-0x470(%rbp)
    5f6e:	48 c7 85 98 fb ff ff 	movq   $0x0,-0x468(%rbp)
    5f75:	00 00 00 00 
    5f79:	48 8d 85 98 f9 ff ff 	lea    -0x668(%rbp),%rax
    5f80:	48 89 85 a0 fb ff ff 	mov    %rax,-0x460(%rbp)
    5f87:	48 8d 85 98 f9 ff ff 	lea    -0x668(%rbp),%rax
    5f8e:	48 89 85 a8 fb ff ff 	mov    %rax,-0x458(%rbp)
    5f95:	48 8d 85 98 f9 ff ff 	lea    -0x668(%rbp),%rax
    5f9c:	48 89 85 b0 fb ff ff 	mov    %rax,-0x450(%rbp)
    5fa3:	48 8d 85 98 f9 ff ff 	lea    -0x668(%rbp),%rax
    5faa:	48 89 85 b8 fb ff ff 	mov    %rax,-0x448(%rbp)
    5fb1:	48 8d 85 98 f9 ff ff 	lea    -0x668(%rbp),%rax
    5fb8:	48 89 85 c0 fb ff ff 	mov    %rax,-0x440(%rbp)
    5fbf:	48 8d 85 98 f9 ff ff 	lea    -0x668(%rbp),%rax
    5fc6:	48 89 85 c8 fb ff ff 	mov    %rax,-0x438(%rbp)
    5fcd:	48 8d 85 98 f9 ff ff 	lea    -0x668(%rbp),%rax
    5fd4:	48 89 85 d0 fb ff ff 	mov    %rax,-0x430(%rbp)
    5fdb:	48 8d 85 98 f9 ff ff 	lea    -0x668(%rbp),%rax
    5fe2:	48 89 85 d8 fb ff ff 	mov    %rax,-0x428(%rbp)
    5fe9:	48 8d 85 98 f9 ff ff 	lea    -0x668(%rbp),%rax
    5ff0:	48 89 85 e0 fb ff ff 	mov    %rax,-0x420(%rbp)
    5ff7:	48 8d 85 98 f9 ff ff 	lea    -0x668(%rbp),%rax
    5ffe:	48 89 85 e8 fb ff ff 	mov    %rax,-0x418(%rbp)
    6005:	48 8d 85 98 f9 ff ff 	lea    -0x668(%rbp),%rax
    600c:	48 89 85 f0 fb ff ff 	mov    %rax,-0x410(%rbp)
    6013:	48 8d 85 98 f9 ff ff 	lea    -0x668(%rbp),%rax
    601a:	48 89 85 f8 fb ff ff 	mov    %rax,-0x408(%rbp)
    6021:	48 8d 85 98 f9 ff ff 	lea    -0x668(%rbp),%rax
    6028:	48 89 85 00 fc ff ff 	mov    %rax,-0x400(%rbp)
    602f:	c7 85 60 f9 ff ff 69 	movl   $0xf5ec8d69,-0x6a0(%rbp)
    6036:	8d ec f5 
    6039:	48 8d 05 98 b0 00 00 	lea    0xb098(%rip),%rax        # 110d8 <g_281>
    6040:	48 89 85 50 fa ff ff 	mov    %rax,-0x5b0(%rbp)
    6047:	48 8d 05 8a b0 00 00 	lea    0xb08a(%rip),%rax        # 110d8 <g_281>
    604e:	48 89 85 58 fa ff ff 	mov    %rax,-0x5a8(%rbp)
    6055:	48 8d 05 7c b0 00 00 	lea    0xb07c(%rip),%rax        # 110d8 <g_281>
    605c:	48 89 85 60 fa ff ff 	mov    %rax,-0x5a0(%rbp)
    6063:	48 8d 05 6e b0 00 00 	lea    0xb06e(%rip),%rax        # 110d8 <g_281>
    606a:	48 89 85 68 fa ff ff 	mov    %rax,-0x598(%rbp)
    6071:	48 8d 05 60 b0 00 00 	lea    0xb060(%rip),%rax        # 110d8 <g_281>
    6078:	48 89 85 70 fa ff ff 	mov    %rax,-0x590(%rbp)
    607f:	48 8d 05 52 b0 00 00 	lea    0xb052(%rip),%rax        # 110d8 <g_281>
    6086:	48 89 85 78 fa ff ff 	mov    %rax,-0x588(%rbp)
    608d:	c7 85 64 f9 ff ff 01 	movl   $0x1,-0x69c(%rbp)
    6094:	00 00 00 
    6097:	c7 85 68 f9 ff ff 48 	movl   $0xfed3d548,-0x698(%rbp)
    609e:	d5 d3 fe 
    60a1:	c7 85 6c f9 ff ff 3b 	movl   $0xdd8723b,-0x694(%rbp)
    60a8:	72 d8 0d 
    60ab:	c7 85 70 f9 ff ff f6 	movl   $0xfffffff6,-0x690(%rbp)
    60b2:	ff ff ff 
    60b5:	c7 85 74 f9 ff ff e4 	movl   $0x9cd523e4,-0x68c(%rbp)
    60bc:	23 d5 9c 
    60bf:	48 8d 85 2c f9 ff ff 	lea    -0x6d4(%rbp),%rax
    60c6:	48 89 85 d0 f9 ff ff 	mov    %rax,-0x630(%rbp)
    60cd:	66 c7 85 30 f9 ff ff 	movw   $0xfe0a,-0x6d0(%rbp)
    60d4:	0a fe 
    60d6:	66 c7 85 32 f9 ff ff 	movw   $0xffff,-0x6ce(%rbp)
    60dd:	ff ff 
    60df:	48 c7 85 d8 f9 ff ff 	movq   $0xfffffffffffffff8,-0x628(%rbp)
    60e6:	f8 ff ff ff 
    60ea:	66 c7 85 e4 f9 ff ff 	movw   $0xffff,-0x61c(%rbp)
    60f1:	ff ff 
    60f3:	66 c7 85 e6 f9 ff ff 	movw   $0xffff,-0x61a(%rbp)
    60fa:	ff ff 
    60fc:	66 c7 85 e8 f9 ff ff 	movw   $0xffff,-0x618(%rbp)
    6103:	ff ff 
    6105:	66 c7 85 ea f9 ff ff 	movw   $0xffff,-0x616(%rbp)
    610c:	ff ff 
    610e:	66 c7 85 ec f9 ff ff 	movw   $0xffff,-0x614(%rbp)
    6115:	ff ff 
    6117:	66 c7 85 ee f9 ff ff 	movw   $0xffff,-0x612(%rbp)
    611e:	ff ff 
    6120:	c7 85 34 f9 ff ff 00 	movl   $0x0,-0x6cc(%rbp)
    6127:	00 00 00 
    612a:	eb 78                	jmp    61a4 <func_38+0x617>
    612c:	c7 85 38 f9 ff ff 00 	movl   $0x0,-0x6c8(%rbp)
    6133:	00 00 00 
    6136:	eb 5c                	jmp    6194 <func_38+0x607>
    6138:	c7 85 3c f9 ff ff 00 	movl   $0x0,-0x6c4(%rbp)
    613f:	00 00 00 
    6142:	eb 40                	jmp    6184 <func_38+0x5f7>
    6144:	8b 85 3c f9 ff ff    	mov    -0x6c4(%rbp),%eax
    614a:	48 63 c8             	movslq %eax,%rcx
    614d:	8b 85 34 f9 ff ff    	mov    -0x6cc(%rbp),%eax
    6153:	48 63 d0             	movslq %eax,%rdx
    6156:	8b 85 38 f9 ff ff    	mov    -0x6c8(%rbp),%eax
    615c:	48 98                	cltq   
    615e:	48 01 c2             	add    %rax,%rdx
    6161:	48 89 d0             	mov    %rdx,%rax
    6164:	48 c1 e0 02          	shl    $0x2,%rax
    6168:	48 01 d0             	add    %rdx,%rax
    616b:	48 01 c8             	add    %rcx,%rax
    616e:	48 8d 15 17 af 00 00 	lea    0xaf17(%rip),%rdx        # 1108c <g_195+0xc>
    6175:	48 89 94 c5 f0 f9 ff 	mov    %rdx,-0x610(%rbp,%rax,8)
    617c:	ff 
    617d:	83 85 3c f9 ff ff 01 	addl   $0x1,-0x6c4(%rbp)
    6184:	83 bd 3c f9 ff ff 04 	cmpl   $0x4,-0x6c4(%rbp)
    618b:	7e b7                	jle    6144 <func_38+0x5b7>
    618d:	83 85 38 f9 ff ff 01 	addl   $0x1,-0x6c8(%rbp)
    6194:	83 bd 38 f9 ff ff 00 	cmpl   $0x0,-0x6c8(%rbp)
    619b:	7e 9b                	jle    6138 <func_38+0x5ab>
    619d:	83 85 34 f9 ff ff 01 	addl   $0x1,-0x6cc(%rbp)
    61a4:	83 bd 34 f9 ff ff 00 	cmpl   $0x0,-0x6cc(%rbp)
    61ab:	0f 8e 7b ff ff ff    	jle    612c <func_38+0x59f>
    61b1:	0f b6 05 a2 ae 00 00 	movzbl 0xaea2(%rip),%eax        # 1105a <g_103>
    61b8:	83 e8 01             	sub    $0x1,%eax
    61bb:	88 05 99 ae 00 00    	mov    %al,0xae99(%rip)        # 1105a <g_103>
    61c1:	0f b6 05 92 ae 00 00 	movzbl 0xae92(%rip),%eax        # 1105a <g_103>
    61c8:	84 c0                	test   %al,%al
    61ca:	0f 8f 5e fb ff ff    	jg     5d2e <func_38+0x1a1>
    61d0:	0f b7 85 18 f9 ff ff 	movzwl -0x6e8(%rbp),%eax
    61d7:	48 8b 75 f8          	mov    -0x8(%rbp),%rsi
    61db:	64 48 33 34 25 28 00 	xor    %fs:0x28,%rsi
    61e2:	00 00 
    61e4:	74 05                	je     61eb <func_38+0x65e>
    61e6:	e8 85 ce ff ff       	callq  3070 <__stack_chk_fail@plt>
    61eb:	c9                   	leaveq 
    61ec:	c3                   	retq   

00000000000061ed <func_44>:
    61ed:	f3 0f 1e fa          	endbr64 
    61f1:	55                   	push   %rbp
    61f2:	48 89 e5             	mov    %rsp,%rbp
    61f5:	41 57                	push   %r15
    61f7:	41 56                	push   %r14
    61f9:	41 55                	push   %r13
    61fb:	41 54                	push   %r12
    61fd:	53                   	push   %rbx
    61fe:	48 81 ec 00 10 00 00 	sub    $0x1000,%rsp
    6205:	48 83 0c 24 00       	orq    $0x0,(%rsp)
    620a:	48 81 ec d8 04 00 00 	sub    $0x4d8,%rsp
    6211:	48 89 bd 28 eb ff ff 	mov    %rdi,-0x14d8(%rbp)
    6218:	89 c8                	mov    %ecx,%eax
    621a:	89 f1                	mov    %esi,%ecx
    621c:	66 89 8d 24 eb ff ff 	mov    %cx,-0x14dc(%rbp)
    6223:	66 89 95 20 eb ff ff 	mov    %dx,-0x14e0(%rbp)
    622a:	66 89 85 1c eb ff ff 	mov    %ax,-0x14e4(%rbp)
    6231:	64 48 8b 04 25 28 00 	mov    %fs:0x28,%rax
    6238:	00 00 
    623a:	48 89 45 c8          	mov    %rax,-0x38(%rbp)
    623e:	31 c0                	xor    %eax,%eax
    6240:	48 c7 85 f0 eb ff ff 	movq   $0x0,-0x1410(%rbp)
    6247:	00 00 00 00 
    624b:	48 8d 05 04 ae 00 00 	lea    0xae04(%rip),%rax        # 11056 <g_69>
    6252:	48 89 85 f8 eb ff ff 	mov    %rax,-0x1408(%rbp)
    6259:	48 8d 05 f8 ad 00 00 	lea    0xadf8(%rip),%rax        # 11058 <g_71>
    6260:	48 89 85 00 ec ff ff 	mov    %rax,-0x1400(%rbp)
    6267:	c7 85 60 eb ff ff 08 	movl   $0x8,-0x14a0(%rbp)
    626e:	00 00 00 
    6271:	48 c7 85 80 ee ff ff 	movq   $0x0,-0x1180(%rbp)
    6278:	00 00 00 00 
    627c:	48 c7 85 88 ee ff ff 	movq   $0x0,-0x1178(%rbp)
    6283:	00 00 00 00 
    6287:	48 c7 85 90 ee ff ff 	movq   $0x0,-0x1170(%rbp)
    628e:	00 00 00 00 
    6292:	48 c7 85 98 ee ff ff 	movq   $0x0,-0x1168(%rbp)
    6299:	00 00 00 00 
    629d:	48 c7 85 a0 ee ff ff 	movq   $0x0,-0x1160(%rbp)
    62a4:	00 00 00 00 
    62a8:	48 b8 03 27 f4 cf 42 	movabs $0x7376b242cff42703,%rax
    62af:	b2 76 73 
    62b2:	48 89 85 90 ec ff ff 	mov    %rax,-0x1370(%rbp)
    62b9:	48 8d 05 88 ad 00 00 	lea    0xad88(%rip),%rax        # 11048 <g_52>
    62c0:	48 89 85 08 ec ff ff 	mov    %rax,-0x13f8(%rbp)
    62c7:	48 8d 05 8c ad 00 00 	lea    0xad8c(%rip),%rax        # 1105a <g_103>
    62ce:	48 89 85 10 ec ff ff 	mov    %rax,-0x13f0(%rbp)
    62d5:	48 8d 85 24 ee ff ff 	lea    -0x11dc(%rbp),%rax
    62dc:	48 83 c0 06          	add    $0x6,%rax
    62e0:	48 89 85 18 ec ff ff 	mov    %rax,-0x13e8(%rbp)
    62e7:	48 b8 5c 34 bd 88 0a 	movabs $0xc926580a88bd345c,%rax
    62ee:	58 26 c9 
    62f1:	48 89 85 20 ec ff ff 	mov    %rax,-0x13e0(%rbp)
    62f8:	48 8d 05 49 c2 00 00 	lea    0xc249(%rip),%rax        # 12548 <g_137>
    62ff:	48 89 85 28 ec ff ff 	mov    %rax,-0x13d8(%rbp)
    6306:	c7 85 40 eb ff ff d3 	movl   $0x60827d3,-0x14c0(%rbp)
    630d:	27 08 06 
    6310:	c7 85 44 eb ff ff f8 	movl   $0xfffffff8,-0x14bc(%rbp)
    6317:	ff ff ff 
    631a:	48 c7 85 88 ec ff ff 	movq   $0xfffffffffffffffb,-0x1378(%rbp)
    6321:	fb ff ff ff 
    6325:	c7 85 5c eb ff ff 00 	movl   $0x0,-0x14a4(%rbp)
    632c:	00 00 00 
    632f:	48 8d 05 12 ad 00 00 	lea    0xad12(%rip),%rax        # 11048 <g_52>
    6336:	48 89 85 78 ec ff ff 	mov    %rax,-0x1388(%rbp)
    633d:	48 b8 4b 25 49 7f 0a 	movabs $0xbdfc090a7f49254b,%rax
    6344:	09 fc bd 
    6347:	48 89 85 40 ee ff ff 	mov    %rax,-0x11c0(%rbp)
    634e:	48 89 85 48 ee ff ff 	mov    %rax,-0x11b8(%rbp)
    6355:	48 89 85 50 ee ff ff 	mov    %rax,-0x11b0(%rbp)
    635c:	48 89 85 58 ee ff ff 	mov    %rax,-0x11a8(%rbp)
    6363:	48 8d 85 f0 eb ff ff 	lea    -0x1410(%rbp),%rax
    636a:	48 89 85 30 ec ff ff 	mov    %rax,-0x13d0(%rbp)
    6371:	48 8d 85 30 ec ff ff 	lea    -0x13d0(%rbp),%rax
    6378:	48 89 85 38 ec ff ff 	mov    %rax,-0x13c8(%rbp)
    637f:	48 8d 85 38 ec ff ff 	lea    -0x13c8(%rbp),%rax
    6386:	48 89 85 40 ec ff ff 	mov    %rax,-0x13c0(%rbp)
    638d:	48 c7 85 80 ec ff ff 	movq   $0x1,-0x1380(%rbp)
    6394:	01 00 00 00 
    6398:	c7 85 54 eb ff ff 06 	movl   $0x6,-0x14ac(%rbp)
    639f:	00 00 00 
    63a2:	c7 85 58 eb ff ff 00 	movl   $0x0,-0x14a8(%rbp)
    63a9:	00 00 00 
    63ac:	eb 19                	jmp    63c7 <func_44+0x1da>
    63ae:	8b 85 58 eb ff ff    	mov    -0x14a8(%rbp),%eax
    63b4:	48 98                	cltq   
    63b6:	66 c7 84 45 24 ee ff 	movw   $0xfffe,-0x11dc(%rbp,%rax,2)
    63bd:	ff fe ff 
    63c0:	83 85 58 eb ff ff 01 	addl   $0x1,-0x14a8(%rbp)
    63c7:	83 bd 58 eb ff ff 05 	cmpl   $0x5,-0x14a8(%rbp)
    63ce:	7e de                	jle    63ae <func_44+0x1c1>
    63d0:	48 8b 05 61 b7 00 00 	mov    0xb761(%rip),%rax        # 11b38 <g_56>
    63d7:	48 8b 00             	mov    (%rax),%rax
    63da:	8b 00                	mov    (%rax),%eax
    63dc:	0f b7 9d 20 eb ff ff 	movzwl -0x14e0(%rbp),%ebx
    63e3:	8b 85 60 eb ff ff    	mov    -0x14a0(%rbp),%eax
    63e9:	44 0f b6 e0          	movzbl %al,%r12d
    63ed:	8b 85 60 eb ff ff    	mov    -0x14a0(%rbp),%eax
    63f3:	44 0f b7 e8          	movzwl %ax,%r13d
    63f7:	8b 85 60 eb ff ff    	mov    -0x14a0(%rbp),%eax
    63fd:	44 0f be f0          	movsbl %al,%r14d
    6401:	0f b7 85 20 eb ff ff 	movzwl -0x14e0(%rbp),%eax
    6408:	89 85 18 eb ff ff    	mov    %eax,-0x14e8(%rbp)
    640e:	83 bd 60 eb ff ff 00 	cmpl   $0x0,-0x14a0(%rbp)
    6415:	0f 85 4c 01 00 00    	jne    6567 <func_44+0x37a>
    641b:	8b 05 13 ac 00 00    	mov    0xac13(%rip),%eax        # 11034 <g_3+0x4>
    6421:	89 85 14 eb ff ff    	mov    %eax,-0x14ec(%rbp)
    6427:	44 0f b7 bd 24 eb ff 	movzwl -0x14dc(%rbp),%r15d
    642e:	ff 
    642f:	0f b6 05 1e ac 00 00 	movzbl 0xac1e(%rip),%eax        # 11054 <g_64>
    6436:	0f b6 c0             	movzbl %al,%eax
    6439:	89 85 10 eb ff ff    	mov    %eax,-0x14f0(%rbp)
    643f:	8b 05 eb ab 00 00    	mov    0xabeb(%rip),%eax        # 11030 <g_3>
    6445:	48 98                	cltq   
    6447:	48 89 85 08 eb ff ff 	mov    %rax,-0x14f8(%rbp)
    644e:	0f b7 85 2a ee ff ff 	movzwl -0x11d6(%rbp),%eax
    6455:	98                   	cwtl   
    6456:	89 85 04 eb ff ff    	mov    %eax,-0x14fc(%rbp)
    645c:	8b 05 d2 ab 00 00    	mov    0xabd2(%rip),%eax        # 11034 <g_3+0x4>
    6462:	89 85 00 eb ff ff    	mov    %eax,-0x1500(%rbp)
    6468:	48 8b 85 28 eb ff ff 	mov    -0x14d8(%rbp),%rax
    646f:	8b 00                	mov    (%rax),%eax
    6471:	89 c2                	mov    %eax,%edx
    6473:	0f b7 85 24 eb ff ff 	movzwl -0x14dc(%rbp),%eax
    647a:	89 d6                	mov    %edx,%esi
    647c:	89 c7                	mov    %eax,%edi
    647e:	e8 7a da ff ff       	callq  3efd <safe_mod_func_uint32_t_u_u>
    6483:	83 f8 09             	cmp    $0x9,%eax
    6486:	0f 95 c0             	setne  %al
    6489:	0f b6 c0             	movzbl %al,%eax
    648c:	39 85 00 eb ff ff    	cmp    %eax,-0x1500(%rbp)
    6492:	0f 9c c0             	setl   %al
    6495:	0f b6 d0             	movzbl %al,%edx
    6498:	0f b7 85 2a ee ff ff 	movzwl -0x11d6(%rbp),%eax
    649f:	98                   	cwtl   
    64a0:	21 d0                	and    %edx,%eax
    64a2:	3d f3 a7 00 00       	cmp    $0xa7f3,%eax
    64a7:	0f 9f c0             	setg   %al
    64aa:	0f b6 c0             	movzbl %al,%eax
    64ad:	be 09 00 00 00       	mov    $0x9,%esi
    64b2:	89 c7                	mov    %eax,%edi
    64b4:	e8 4d d9 ff ff       	callq  3e06 <safe_lshift_func_uint16_t_u_u>
    64b9:	8b 95 9c ee ff ff    	mov    -0x1164(%rbp),%edx
    64bf:	0f b7 c0             	movzwl %ax,%eax
    64c2:	31 d0                	xor    %edx,%eax
    64c4:	89 85 9c ee ff ff    	mov    %eax,-0x1164(%rbp)
    64ca:	8b 85 9c ee ff ff    	mov    -0x1164(%rbp),%eax
    64d0:	85 c0                	test   %eax,%eax
    64d2:	74 11                	je     64e5 <func_44+0x2f8>
    64d4:	48 83 bd 90 ec ff ff 	cmpq   $0x0,-0x1370(%rbp)
    64db:	00 
    64dc:	74 07                	je     64e5 <func_44+0x2f8>
    64de:	ba 01 00 00 00       	mov    $0x1,%edx
    64e3:	eb 05                	jmp    64ea <func_44+0x2fd>
    64e5:	ba 00 00 00 00       	mov    $0x0,%edx
    64ea:	48 8b 85 08 ec ff ff 	mov    -0x13f8(%rbp),%rax
    64f1:	48 63 d2             	movslq %edx,%rdx
    64f4:	48 89 10             	mov    %rdx,(%rax)
    64f7:	8b b5 04 eb ff ff    	mov    -0x14fc(%rbp),%esi
    64fd:	bf b9 5b 00 00       	mov    $0x5bb9,%edi
    6502:	e8 da cf ff ff       	callq  34e1 <safe_lshift_func_int16_t_s_u>
    6507:	48 0f bf c0          	movswq %ax,%rax
    650b:	48 8b b5 08 eb ff ff 	mov    -0x14f8(%rbp),%rsi
    6512:	48 89 c7             	mov    %rax,%rdi
    6515:	e8 dd d4 ff ff       	callq  39f7 <safe_div_func_int64_t_s_s>
    651a:	0f b7 c0             	movzwl %ax,%eax
    651d:	8b b5 10 eb ff ff    	mov    -0x14f0(%rbp),%esi
    6523:	89 c7                	mov    %eax,%edi
    6525:	e8 1e d9 ff ff       	callq  3e48 <safe_rshift_func_uint16_t_u_s>
    652a:	89 c2                	mov    %eax,%edx
    652c:	8b 05 02 ab 00 00    	mov    0xab02(%rip),%eax        # 11034 <g_3+0x4>
    6532:	31 d0                	xor    %edx,%eax
    6534:	0f b7 c0             	movzwl %ax,%eax
    6537:	44 89 fe             	mov    %r15d,%esi
    653a:	89 c7                	mov    %eax,%edi
    653c:	e8 de d7 ff ff       	callq  3d1f <safe_sub_func_uint16_t_u_u>
    6541:	48 8b 85 10 ec ff ff 	mov    -0x13f0(%rbp),%rax
    6548:	c6 00 01             	movb   $0x1,(%rax)
    654b:	0f b6 00             	movzbl (%rax),%eax
    654e:	0f be d0             	movsbl %al,%edx
    6551:	8b 05 e1 aa 00 00    	mov    0xaae1(%rip),%eax        # 11038 <g_3+0x8>
    6557:	39 c2                	cmp    %eax,%edx
    6559:	0f 9c c0             	setl   %al
    655c:	0f b6 c0             	movzbl %al,%eax
    655f:	39 85 14 eb ff ff    	cmp    %eax,-0x14ec(%rbp)
    6565:	7d 07                	jge    656e <func_44+0x381>
    6567:	b8 01 00 00 00       	mov    $0x1,%eax
    656c:	eb 05                	jmp    6573 <func_44+0x386>
    656e:	b8 00 00 00 00       	mov    $0x0,%eax
    6573:	3b 85 18 eb ff ff    	cmp    -0x14e8(%rbp),%eax
    6579:	0f 9d c0             	setge  %al
    657c:	0f b6 d0             	movzbl %al,%edx
    657f:	0f b7 85 20 eb ff ff 	movzwl -0x14e0(%rbp),%eax
    6586:	0f be c0             	movsbl %al,%eax
    6589:	89 d6                	mov    %edx,%esi
    658b:	89 c7                	mov    %eax,%edi
    658d:	e8 42 cc ff ff       	callq  31d4 <safe_add_func_int8_t_s_s>
    6592:	0f be c0             	movsbl %al,%eax
    6595:	44 89 f6             	mov    %r14d,%esi
    6598:	89 c7                	mov    %eax,%edi
    659a:	e8 35 cc ff ff       	callq  31d4 <safe_add_func_int8_t_s_s>
    659f:	66 98                	cbtw   
    65a1:	66 0b 85 20 eb ff ff 	or     -0x14e0(%rbp),%ax
    65a8:	66 0d 4a 16          	or     $0x164a,%ax
    65ac:	89 c2                	mov    %eax,%edx
    65ae:	48 8b 85 18 ec ff ff 	mov    -0x13e8(%rbp),%rax
    65b5:	66 89 10             	mov    %dx,(%rax)
    65b8:	44 89 ee             	mov    %r13d,%esi
    65bb:	bf 01 00 00 00       	mov    $0x1,%edi
    65c0:	e8 5a d7 ff ff       	callq  3d1f <safe_sub_func_uint16_t_u_u>
    65c5:	0f b6 c0             	movzbl %al,%eax
    65c8:	44 89 e6             	mov    %r12d,%esi
    65cb:	89 c7                	mov    %eax,%edi
    65cd:	e8 dc d5 ff ff       	callq  3bae <safe_mod_func_uint8_t_u_u>
    65d2:	0f b6 c0             	movzbl %al,%eax
    65d5:	89 de                	mov    %ebx,%esi
    65d7:	89 c7                	mov    %eax,%edi
    65d9:	e8 5f d7 ff ff       	callq  3d3d <safe_mul_func_uint16_t_u_u>
    65de:	8b 15 50 aa 00 00    	mov    0xaa50(%rip),%edx        # 11034 <g_3+0x4>
    65e4:	48 8b 85 f8 eb ff ff 	mov    -0x1408(%rbp),%rax
    65eb:	66 89 10             	mov    %dx,(%rax)
    65ee:	0f b7 08             	movzwl (%rax),%ecx
    65f1:	48 8b 85 00 ec ff ff 	mov    -0x1400(%rbp),%rax
    65f8:	0f b7 10             	movzwl (%rax),%edx
    65fb:	48 8b 85 00 ec ff ff 	mov    -0x1400(%rbp),%rax
    6602:	21 ca                	and    %ecx,%edx
    6604:	66 89 10             	mov    %dx,(%rax)
    6607:	0f b7 00             	movzwl (%rax),%eax
    660a:	98                   	cwtl   
    660b:	be 6e d9 ff ff       	mov    $0xffffd96e,%esi
    6610:	89 c7                	mov    %eax,%edi
    6612:	e8 bc cd ff ff       	callq  33d3 <safe_sub_func_int16_t_s_s>
    6617:	98                   	cwtl   
    6618:	39 85 60 eb ff ff    	cmp    %eax,-0x14a0(%rbp)
    661e:	0f 8c e2 31 00 00    	jl     9806 <func_44+0x3619>
    6624:	48 c7 85 48 ec ff ff 	movq   $0x5,-0x13b8(%rbp)
    662b:	05 00 00 00 
    662f:	48 8d 05 22 aa 00 00 	lea    0xaa22(%rip),%rax        # 11058 <g_71>
    6636:	48 89 85 10 ed ff ff 	mov    %rax,-0x12f0(%rbp)
    663d:	48 8d 85 f0 ef ff ff 	lea    -0x1010(%rbp),%rax
    6644:	48 8d 15 15 68 00 00 	lea    0x6815(%rip),%rdx        # ce60 <_IO_stdin_used+0xe60>
    664b:	b9 78 00 00 00       	mov    $0x78,%ecx
    6650:	48 89 c7             	mov    %rax,%rdi
    6653:	48 89 d6             	mov    %rdx,%rsi
    6656:	f3 48 a5             	rep movsq %ds:(%rsi),%es:(%rdi)
    6659:	48 c7 85 18 ed ff ff 	movq   $0x9,-0x12e8(%rbp)
    6660:	09 00 00 00 
    6664:	48 b8 9e af 0a 5d 77 	movabs $0xb4df1b775d0aaf9e,%rax
    666b:	1b df b4 
    666e:	48 89 85 20 ed ff ff 	mov    %rax,-0x12e0(%rbp)
    6675:	48 b8 ff 07 07 ff 07 	movabs $0x7ff0707ff0707ff,%rax
    667c:	07 ff 07 
    667f:	48 89 45 be          	mov    %rax,-0x42(%rbp)
    6683:	66 c7 45 c6 07 ff    	movw   $0xff07,-0x3a(%rbp)
    6689:	c7 85 60 ee ff ff ff 	movl   $0xffffffff,-0x11a0(%rbp)
    6690:	ff ff ff 
    6693:	c7 85 64 ee ff ff 5d 	movl   $0x582a755d,-0x119c(%rbp)
    669a:	75 2a 58 
    669d:	c7 85 68 ee ff ff ff 	movl   $0xffffffff,-0x1198(%rbp)
    66a4:	ff ff ff 
    66a7:	c7 85 6c ee ff ff ff 	movl   $0xffffffff,-0x1194(%rbp)
    66ae:	ff ff ff 
    66b1:	c7 85 70 ee ff ff 5d 	movl   $0x582a755d,-0x1190(%rbp)
    66b8:	75 2a 58 
    66bb:	c7 85 74 ee ff ff ff 	movl   $0xffffffff,-0x118c(%rbp)
    66c2:	ff ff ff 
    66c5:	c7 85 78 ee ff ff ff 	movl   $0xffffffff,-0x1188(%rbp)
    66cc:	ff ff ff 
    66cf:	c7 85 7c ee ff ff 5d 	movl   $0x582a755d,-0x1184(%rbp)
    66d6:	75 2a 58 
    66d9:	c7 85 a4 eb ff ff a5 	movl   $0x5f2890a5,-0x145c(%rbp)
    66e0:	90 28 5f 
    66e3:	c6 85 34 eb ff ff d3 	movb   $0xd3,-0x14cc(%rbp)
    66ea:	c7 85 a8 eb ff ff fa 	movl   $0xfffffffa,-0x1458(%rbp)
    66f1:	ff ff ff 
    66f4:	48 8d 05 c9 aa 00 00 	lea    0xaac9(%rip),%rax        # 111c4 <g_323+0xe4>
    66fb:	48 89 85 28 ed ff ff 	mov    %rax,-0x12d8(%rbp)
    6702:	48 8d 85 10 ee ff ff 	lea    -0x11f0(%rbp),%rax
    6709:	48 89 85 30 ed ff ff 	mov    %rax,-0x12d0(%rbp)
    6710:	48 8d 85 40 eb ff ff 	lea    -0x14c0(%rbp),%rax
    6717:	48 89 85 38 ed ff ff 	mov    %rax,-0x12c8(%rbp)
    671e:	c6 85 35 eb ff ff ff 	movb   $0xff,-0x14cb(%rbp)
    6725:	48 8d 85 18 ee ff ff 	lea    -0x11e8(%rbp),%rax
    672c:	48 89 85 40 ed ff ff 	mov    %rax,-0x12c0(%rbp)
    6733:	c7 85 64 eb ff ff 00 	movl   $0x0,-0x149c(%rbp)
    673a:	00 00 00 
    673d:	eb 1e                	jmp    675d <func_44+0x570>
    673f:	8b 85 64 eb ff ff    	mov    -0x149c(%rbp),%eax
    6745:	48 98                	cltq   
    6747:	48 8d 15 fa bd 00 00 	lea    0xbdfa(%rip),%rdx        # 12548 <g_137>
    674e:	48 89 94 c5 10 ee ff 	mov    %rdx,-0x11f0(%rbp,%rax,8)
    6755:	ff 
    6756:	83 85 64 eb ff ff 01 	addl   $0x1,-0x149c(%rbp)
    675d:	83 bd 64 eb ff ff 00 	cmpl   $0x0,-0x149c(%rbp)
    6764:	7e d9                	jle    673f <func_44+0x552>
    6766:	c7 85 64 eb ff ff 00 	movl   $0x0,-0x149c(%rbp)
    676d:	00 00 00 
    6770:	eb 1e                	jmp    6790 <func_44+0x5a3>
    6772:	8b 85 64 eb ff ff    	mov    -0x149c(%rbp),%eax
    6778:	48 98                	cltq   
    677a:	48 8d 95 40 ee ff ff 	lea    -0x11c0(%rbp),%rdx
    6781:	48 89 94 c5 18 ee ff 	mov    %rdx,-0x11e8(%rbp,%rax,8)
    6788:	ff 
    6789:	83 85 64 eb ff ff 01 	addl   $0x1,-0x149c(%rbp)
    6790:	83 bd 64 eb ff ff 00 	cmpl   $0x0,-0x149c(%rbp)
    6797:	7e d9                	jle    6772 <func_44+0x585>
    6799:	0f b6 05 ba a8 00 00 	movzbl 0xa8ba(%rip),%eax        # 1105a <g_103>
    67a0:	84 c0                	test   %al,%al
    67a2:	0f 94 c0             	sete   %al
    67a5:	0f b6 d0             	movzbl %al,%edx
    67a8:	8b 05 a2 a8 00 00    	mov    0xa8a2(%rip),%eax        # 11050 <g_58>
    67ae:	0f b6 c0             	movzbl %al,%eax
    67b1:	89 d6                	mov    %edx,%esi
    67b3:	89 c7                	mov    %eax,%edi
    67b5:	e8 d9 d3 ff ff       	callq  3b93 <safe_mul_func_uint8_t_u_u>
    67ba:	84 c0                	test   %al,%al
    67bc:	0f 84 66 0f 00 00    	je     7728 <func_44+0x153b>
    67c2:	48 c7 85 d8 ed ff ff 	movq   $0x0,-0x1228(%rbp)
    67c9:	00 00 00 00 
    67cd:	48 8d 05 6c a8 00 00 	lea    0xa86c(%rip),%rax        # 11040 <g_19>
    67d4:	48 89 85 50 ec ff ff 	mov    %rax,-0x13b0(%rbp)
    67db:	48 c7 85 30 f8 ff ff 	movq   $0x0,-0x7d0(%rbp)
    67e2:	00 00 00 00 
    67e6:	48 8d 85 80 ee ff ff 	lea    -0x1180(%rbp),%rax
    67ed:	48 83 c0 08          	add    $0x8,%rax
    67f1:	48 89 85 38 f8 ff ff 	mov    %rax,-0x7c8(%rbp)
    67f8:	48 8d 85 80 ee ff ff 	lea    -0x1180(%rbp),%rax
    67ff:	48 83 c0 08          	add    $0x8,%rax
    6803:	48 89 85 40 f8 ff ff 	mov    %rax,-0x7c0(%rbp)
    680a:	48 c7 85 48 f8 ff ff 	movq   $0x0,-0x7b8(%rbp)
    6811:	00 00 00 00 
    6815:	48 8d 85 80 ee ff ff 	lea    -0x1180(%rbp),%rax
    681c:	48 83 c0 1c          	add    $0x1c,%rax
    6820:	48 89 85 50 f8 ff ff 	mov    %rax,-0x7b0(%rbp)
    6827:	48 8d 05 12 a8 00 00 	lea    0xa812(%rip),%rax        # 11040 <g_19>
    682e:	48 89 85 58 f8 ff ff 	mov    %rax,-0x7a8(%rbp)
    6835:	48 8d 85 80 ee ff ff 	lea    -0x1180(%rbp),%rax
    683c:	48 83 c0 08          	add    $0x8,%rax
    6840:	48 89 85 60 f8 ff ff 	mov    %rax,-0x7a0(%rbp)
    6847:	48 8d 85 80 ee ff ff 	lea    -0x1180(%rbp),%rax
    684e:	48 83 c0 1c          	add    $0x1c,%rax
    6852:	48 89 85 68 f8 ff ff 	mov    %rax,-0x798(%rbp)
    6859:	48 c7 85 70 f8 ff ff 	movq   $0x0,-0x790(%rbp)
    6860:	00 00 00 00 
    6864:	48 8d 05 d5 a7 00 00 	lea    0xa7d5(%rip),%rax        # 11040 <g_19>
    686b:	48 89 85 78 f8 ff ff 	mov    %rax,-0x788(%rbp)
    6872:	48 8d 05 bb a7 00 00 	lea    0xa7bb(%rip),%rax        # 11034 <g_3+0x4>
    6879:	48 89 85 80 f8 ff ff 	mov    %rax,-0x780(%rbp)
    6880:	48 c7 85 88 f8 ff ff 	movq   $0x0,-0x778(%rbp)
    6887:	00 00 00 00 
    688b:	48 c7 85 90 f8 ff ff 	movq   $0x0,-0x770(%rbp)
    6892:	00 00 00 00 
    6896:	48 8d 85 80 ee ff ff 	lea    -0x1180(%rbp),%rax
    689d:	48 83 c0 08          	add    $0x8,%rax
    68a1:	48 89 85 98 f8 ff ff 	mov    %rax,-0x768(%rbp)
    68a8:	48 8d 85 80 ee ff ff 	lea    -0x1180(%rbp),%rax
    68af:	48 83 c0 08          	add    $0x8,%rax
    68b3:	48 89 85 a0 f8 ff ff 	mov    %rax,-0x760(%rbp)
    68ba:	48 c7 85 a8 f8 ff ff 	movq   $0x0,-0x758(%rbp)
    68c1:	00 00 00 00 
    68c5:	48 8d 85 80 ee ff ff 	lea    -0x1180(%rbp),%rax
    68cc:	48 83 c0 1c          	add    $0x1c,%rax
    68d0:	48 89 85 b0 f8 ff ff 	mov    %rax,-0x750(%rbp)
    68d7:	48 8d 05 62 a7 00 00 	lea    0xa762(%rip),%rax        # 11040 <g_19>
    68de:	48 89 85 b8 f8 ff ff 	mov    %rax,-0x748(%rbp)
    68e5:	48 8d 85 80 ee ff ff 	lea    -0x1180(%rbp),%rax
    68ec:	48 83 c0 08          	add    $0x8,%rax
    68f0:	48 89 85 c0 f8 ff ff 	mov    %rax,-0x740(%rbp)
    68f7:	48 8d 85 80 ee ff ff 	lea    -0x1180(%rbp),%rax
    68fe:	48 83 c0 1c          	add    $0x1c,%rax
    6902:	48 89 85 c8 f8 ff ff 	mov    %rax,-0x738(%rbp)
    6909:	48 c7 85 d0 f8 ff ff 	movq   $0x0,-0x730(%rbp)
    6910:	00 00 00 00 
    6914:	48 8d 05 25 a7 00 00 	lea    0xa725(%rip),%rax        # 11040 <g_19>
    691b:	48 89 85 d8 f8 ff ff 	mov    %rax,-0x728(%rbp)
    6922:	48 8d 05 0b a7 00 00 	lea    0xa70b(%rip),%rax        # 11034 <g_3+0x4>
    6929:	48 89 85 e0 f8 ff ff 	mov    %rax,-0x720(%rbp)
    6930:	48 c7 85 e8 f8 ff ff 	movq   $0x0,-0x718(%rbp)
    6937:	00 00 00 00 
    693b:	48 c7 85 f0 f8 ff ff 	movq   $0x0,-0x710(%rbp)
    6942:	00 00 00 00 
    6946:	48 8d 85 80 ee ff ff 	lea    -0x1180(%rbp),%rax
    694d:	48 83 c0 08          	add    $0x8,%rax
    6951:	48 89 85 f8 f8 ff ff 	mov    %rax,-0x708(%rbp)
    6958:	48 8d 85 80 ee ff ff 	lea    -0x1180(%rbp),%rax
    695f:	48 83 c0 08          	add    $0x8,%rax
    6963:	48 89 85 00 f9 ff ff 	mov    %rax,-0x700(%rbp)
    696a:	48 c7 85 08 f9 ff ff 	movq   $0x0,-0x6f8(%rbp)
    6971:	00 00 00 00 
    6975:	48 8d 85 80 ee ff ff 	lea    -0x1180(%rbp),%rax
    697c:	48 83 c0 1c          	add    $0x1c,%rax
    6980:	48 89 85 10 f9 ff ff 	mov    %rax,-0x6f0(%rbp)
    6987:	48 8d 05 b2 a6 00 00 	lea    0xa6b2(%rip),%rax        # 11040 <g_19>
    698e:	48 89 85 18 f9 ff ff 	mov    %rax,-0x6e8(%rbp)
    6995:	48 8d 85 80 ee ff ff 	lea    -0x1180(%rbp),%rax
    699c:	48 83 c0 08          	add    $0x8,%rax
    69a0:	48 89 85 20 f9 ff ff 	mov    %rax,-0x6e0(%rbp)
    69a7:	48 8d 85 80 ee ff ff 	lea    -0x1180(%rbp),%rax
    69ae:	48 83 c0 1c          	add    $0x1c,%rax
    69b2:	48 89 85 28 f9 ff ff 	mov    %rax,-0x6d8(%rbp)
    69b9:	48 c7 85 30 f9 ff ff 	movq   $0x0,-0x6d0(%rbp)
    69c0:	00 00 00 00 
    69c4:	48 8d 05 75 a6 00 00 	lea    0xa675(%rip),%rax        # 11040 <g_19>
    69cb:	48 89 85 38 f9 ff ff 	mov    %rax,-0x6c8(%rbp)
    69d2:	48 8d 05 5b a6 00 00 	lea    0xa65b(%rip),%rax        # 11034 <g_3+0x4>
    69d9:	48 89 85 40 f9 ff ff 	mov    %rax,-0x6c0(%rbp)
    69e0:	48 c7 85 48 f9 ff ff 	movq   $0x0,-0x6b8(%rbp)
    69e7:	00 00 00 00 
    69eb:	48 c7 85 50 f9 ff ff 	movq   $0x0,-0x6b0(%rbp)
    69f2:	00 00 00 00 
    69f6:	48 8d 85 80 ee ff ff 	lea    -0x1180(%rbp),%rax
    69fd:	48 83 c0 08          	add    $0x8,%rax
    6a01:	48 89 85 58 f9 ff ff 	mov    %rax,-0x6a8(%rbp)
    6a08:	48 8d 85 80 ee ff ff 	lea    -0x1180(%rbp),%rax
    6a0f:	48 83 c0 08          	add    $0x8,%rax
    6a13:	48 89 85 60 f9 ff ff 	mov    %rax,-0x6a0(%rbp)
    6a1a:	48 c7 85 68 f9 ff ff 	movq   $0x0,-0x698(%rbp)
    6a21:	00 00 00 00 
    6a25:	48 8d 85 80 ee ff ff 	lea    -0x1180(%rbp),%rax
    6a2c:	48 83 c0 1c          	add    $0x1c,%rax
    6a30:	48 89 85 70 f9 ff ff 	mov    %rax,-0x690(%rbp)
    6a37:	48 8d 05 02 a6 00 00 	lea    0xa602(%rip),%rax        # 11040 <g_19>
    6a3e:	48 89 85 78 f9 ff ff 	mov    %rax,-0x688(%rbp)
    6a45:	48 8d 85 80 ee ff ff 	lea    -0x1180(%rbp),%rax
    6a4c:	48 83 c0 08          	add    $0x8,%rax
    6a50:	48 89 85 80 f9 ff ff 	mov    %rax,-0x680(%rbp)
    6a57:	48 8d 85 80 ee ff ff 	lea    -0x1180(%rbp),%rax
    6a5e:	48 83 c0 1c          	add    $0x1c,%rax
    6a62:	48 89 85 88 f9 ff ff 	mov    %rax,-0x678(%rbp)
    6a69:	48 c7 85 90 f9 ff ff 	movq   $0x0,-0x670(%rbp)
    6a70:	00 00 00 00 
    6a74:	48 8d 05 c5 a5 00 00 	lea    0xa5c5(%rip),%rax        # 11040 <g_19>
    6a7b:	48 89 85 98 f9 ff ff 	mov    %rax,-0x668(%rbp)
    6a82:	48 8d 05 ab a5 00 00 	lea    0xa5ab(%rip),%rax        # 11034 <g_3+0x4>
    6a89:	48 89 85 a0 f9 ff ff 	mov    %rax,-0x660(%rbp)
    6a90:	48 c7 85 a8 f9 ff ff 	movq   $0x0,-0x658(%rbp)
    6a97:	00 00 00 00 
    6a9b:	48 c7 85 b0 f9 ff ff 	movq   $0x0,-0x650(%rbp)
    6aa2:	00 00 00 00 
    6aa6:	48 8d 85 80 ee ff ff 	lea    -0x1180(%rbp),%rax
    6aad:	48 83 c0 08          	add    $0x8,%rax
    6ab1:	48 89 85 b8 f9 ff ff 	mov    %rax,-0x648(%rbp)
    6ab8:	48 8d 85 80 ee ff ff 	lea    -0x1180(%rbp),%rax
    6abf:	48 83 c0 08          	add    $0x8,%rax
    6ac3:	48 89 85 c0 f9 ff ff 	mov    %rax,-0x640(%rbp)
    6aca:	48 c7 85 c8 f9 ff ff 	movq   $0x0,-0x638(%rbp)
    6ad1:	00 00 00 00 
    6ad5:	48 8d 85 80 ee ff ff 	lea    -0x1180(%rbp),%rax
    6adc:	48 83 c0 1c          	add    $0x1c,%rax
    6ae0:	48 89 85 d0 f9 ff ff 	mov    %rax,-0x630(%rbp)
    6ae7:	48 8d 05 52 a5 00 00 	lea    0xa552(%rip),%rax        # 11040 <g_19>
    6aee:	48 89 85 d8 f9 ff ff 	mov    %rax,-0x628(%rbp)
    6af5:	48 8d 85 80 ee ff ff 	lea    -0x1180(%rbp),%rax
    6afc:	48 83 c0 08          	add    $0x8,%rax
    6b00:	48 89 85 e0 f9 ff ff 	mov    %rax,-0x620(%rbp)
    6b07:	48 8d 85 80 ee ff ff 	lea    -0x1180(%rbp),%rax
    6b0e:	48 83 c0 1c          	add    $0x1c,%rax
    6b12:	48 89 85 e8 f9 ff ff 	mov    %rax,-0x618(%rbp)
    6b19:	48 c7 85 f0 f9 ff ff 	movq   $0x0,-0x610(%rbp)
    6b20:	00 00 00 00 
    6b24:	48 8d 05 15 a5 00 00 	lea    0xa515(%rip),%rax        # 11040 <g_19>
    6b2b:	48 89 85 f8 f9 ff ff 	mov    %rax,-0x608(%rbp)
    6b32:	48 8d 05 fb a4 00 00 	lea    0xa4fb(%rip),%rax        # 11034 <g_3+0x4>
    6b39:	48 89 85 00 fa ff ff 	mov    %rax,-0x600(%rbp)
    6b40:	48 c7 85 08 fa ff ff 	movq   $0x0,-0x5f8(%rbp)
    6b47:	00 00 00 00 
    6b4b:	48 c7 85 10 fa ff ff 	movq   $0x0,-0x5f0(%rbp)
    6b52:	00 00 00 00 
    6b56:	48 8d 85 80 ee ff ff 	lea    -0x1180(%rbp),%rax
    6b5d:	48 83 c0 08          	add    $0x8,%rax
    6b61:	48 89 85 18 fa ff ff 	mov    %rax,-0x5e8(%rbp)
    6b68:	48 8d 85 80 ee ff ff 	lea    -0x1180(%rbp),%rax
    6b6f:	48 83 c0 08          	add    $0x8,%rax
    6b73:	48 89 85 20 fa ff ff 	mov    %rax,-0x5e0(%rbp)
    6b7a:	48 c7 85 28 fa ff ff 	movq   $0x0,-0x5d8(%rbp)
    6b81:	00 00 00 00 
    6b85:	48 8d 85 80 ee ff ff 	lea    -0x1180(%rbp),%rax
    6b8c:	48 83 c0 1c          	add    $0x1c,%rax
    6b90:	48 89 85 30 fa ff ff 	mov    %rax,-0x5d0(%rbp)
    6b97:	48 8d 05 a2 a4 00 00 	lea    0xa4a2(%rip),%rax        # 11040 <g_19>
    6b9e:	48 89 85 38 fa ff ff 	mov    %rax,-0x5c8(%rbp)
    6ba5:	48 8d 85 80 ee ff ff 	lea    -0x1180(%rbp),%rax
    6bac:	48 83 c0 08          	add    $0x8,%rax
    6bb0:	48 89 85 40 fa ff ff 	mov    %rax,-0x5c0(%rbp)
    6bb7:	48 8d 85 80 ee ff ff 	lea    -0x1180(%rbp),%rax
    6bbe:	48 83 c0 1c          	add    $0x1c,%rax
    6bc2:	48 89 85 48 fa ff ff 	mov    %rax,-0x5b8(%rbp)
    6bc9:	48 c7 85 50 fa ff ff 	movq   $0x0,-0x5b0(%rbp)
    6bd0:	00 00 00 00 
    6bd4:	48 8d 05 65 a4 00 00 	lea    0xa465(%rip),%rax        # 11040 <g_19>
    6bdb:	48 89 85 58 fa ff ff 	mov    %rax,-0x5a8(%rbp)
    6be2:	48 8d 05 4b a4 00 00 	lea    0xa44b(%rip),%rax        # 11034 <g_3+0x4>
    6be9:	48 89 85 60 fa ff ff 	mov    %rax,-0x5a0(%rbp)
    6bf0:	48 c7 85 68 fa ff ff 	movq   $0x0,-0x598(%rbp)
    6bf7:	00 00 00 00 
    6bfb:	48 c7 85 70 fa ff ff 	movq   $0x0,-0x590(%rbp)
    6c02:	00 00 00 00 
    6c06:	48 8d 85 80 ee ff ff 	lea    -0x1180(%rbp),%rax
    6c0d:	48 83 c0 08          	add    $0x8,%rax
    6c11:	48 89 85 78 fa ff ff 	mov    %rax,-0x588(%rbp)
    6c18:	48 8d 85 80 ee ff ff 	lea    -0x1180(%rbp),%rax
    6c1f:	48 83 c0 08          	add    $0x8,%rax
    6c23:	48 89 85 80 fa ff ff 	mov    %rax,-0x580(%rbp)
    6c2a:	48 c7 85 88 fa ff ff 	movq   $0x0,-0x578(%rbp)
    6c31:	00 00 00 00 
    6c35:	48 8d 85 80 ee ff ff 	lea    -0x1180(%rbp),%rax
    6c3c:	48 83 c0 1c          	add    $0x1c,%rax
    6c40:	48 89 85 90 fa ff ff 	mov    %rax,-0x570(%rbp)
    6c47:	48 8d 05 f2 a3 00 00 	lea    0xa3f2(%rip),%rax        # 11040 <g_19>
    6c4e:	48 89 85 98 fa ff ff 	mov    %rax,-0x568(%rbp)
    6c55:	48 8d 85 80 ee ff ff 	lea    -0x1180(%rbp),%rax
    6c5c:	48 83 c0 08          	add    $0x8,%rax
    6c60:	48 89 85 a0 fa ff ff 	mov    %rax,-0x560(%rbp)
    6c67:	48 8d 85 80 ee ff ff 	lea    -0x1180(%rbp),%rax
    6c6e:	48 83 c0 1c          	add    $0x1c,%rax
    6c72:	48 89 85 a8 fa ff ff 	mov    %rax,-0x558(%rbp)
    6c79:	48 c7 85 b0 fa ff ff 	movq   $0x0,-0x550(%rbp)
    6c80:	00 00 00 00 
    6c84:	48 8d 05 b5 a3 00 00 	lea    0xa3b5(%rip),%rax        # 11040 <g_19>
    6c8b:	48 89 85 b8 fa ff ff 	mov    %rax,-0x548(%rbp)
    6c92:	48 8d 05 9b a3 00 00 	lea    0xa39b(%rip),%rax        # 11034 <g_3+0x4>
    6c99:	48 89 85 c0 fa ff ff 	mov    %rax,-0x540(%rbp)
    6ca0:	48 c7 85 c8 fa ff ff 	movq   $0x0,-0x538(%rbp)
    6ca7:	00 00 00 00 
    6cab:	48 c7 85 d0 fa ff ff 	movq   $0x0,-0x530(%rbp)
    6cb2:	00 00 00 00 
    6cb6:	48 8d 85 80 ee ff ff 	lea    -0x1180(%rbp),%rax
    6cbd:	48 83 c0 08          	add    $0x8,%rax
    6cc1:	48 89 85 d8 fa ff ff 	mov    %rax,-0x528(%rbp)
    6cc8:	48 8d 85 80 ee ff ff 	lea    -0x1180(%rbp),%rax
    6ccf:	48 83 c0 08          	add    $0x8,%rax
    6cd3:	48 89 85 e0 fa ff ff 	mov    %rax,-0x520(%rbp)
    6cda:	48 c7 85 e8 fa ff ff 	movq   $0x0,-0x518(%rbp)
    6ce1:	00 00 00 00 
    6ce5:	48 8d 85 80 ee ff ff 	lea    -0x1180(%rbp),%rax
    6cec:	48 83 c0 1c          	add    $0x1c,%rax
    6cf0:	48 89 85 f0 fa ff ff 	mov    %rax,-0x510(%rbp)
    6cf7:	48 8d 05 42 a3 00 00 	lea    0xa342(%rip),%rax        # 11040 <g_19>
    6cfe:	48 89 85 f8 fa ff ff 	mov    %rax,-0x508(%rbp)
    6d05:	48 8d 85 80 ee ff ff 	lea    -0x1180(%rbp),%rax
    6d0c:	48 83 c0 08          	add    $0x8,%rax
    6d10:	48 89 85 00 fb ff ff 	mov    %rax,-0x500(%rbp)
    6d17:	48 8d 85 80 ee ff ff 	lea    -0x1180(%rbp),%rax
    6d1e:	48 83 c0 1c          	add    $0x1c,%rax
    6d22:	48 89 85 08 fb ff ff 	mov    %rax,-0x4f8(%rbp)
    6d29:	48 c7 85 10 fb ff ff 	movq   $0x0,-0x4f0(%rbp)
    6d30:	00 00 00 00 
    6d34:	48 8d 05 05 a3 00 00 	lea    0xa305(%rip),%rax        # 11040 <g_19>
    6d3b:	48 89 85 18 fb ff ff 	mov    %rax,-0x4e8(%rbp)
    6d42:	48 8d 05 eb a2 00 00 	lea    0xa2eb(%rip),%rax        # 11034 <g_3+0x4>
    6d49:	48 89 85 20 fb ff ff 	mov    %rax,-0x4e0(%rbp)
    6d50:	48 c7 85 28 fb ff ff 	movq   $0x0,-0x4d8(%rbp)
    6d57:	00 00 00 00 
    6d5b:	48 c7 85 30 fb ff ff 	movq   $0x0,-0x4d0(%rbp)
    6d62:	00 00 00 00 
    6d66:	48 8d 85 80 ee ff ff 	lea    -0x1180(%rbp),%rax
    6d6d:	48 83 c0 08          	add    $0x8,%rax
    6d71:	48 89 85 38 fb ff ff 	mov    %rax,-0x4c8(%rbp)
    6d78:	48 8d 85 80 ee ff ff 	lea    -0x1180(%rbp),%rax
    6d7f:	48 83 c0 08          	add    $0x8,%rax
    6d83:	48 89 85 40 fb ff ff 	mov    %rax,-0x4c0(%rbp)
    6d8a:	48 c7 85 48 fb ff ff 	movq   $0x0,-0x4b8(%rbp)
    6d91:	00 00 00 00 
    6d95:	48 8d 85 80 ee ff ff 	lea    -0x1180(%rbp),%rax
    6d9c:	48 83 c0 1c          	add    $0x1c,%rax
    6da0:	48 89 85 50 fb ff ff 	mov    %rax,-0x4b0(%rbp)
    6da7:	48 8d 05 92 a2 00 00 	lea    0xa292(%rip),%rax        # 11040 <g_19>
    6dae:	48 89 85 58 fb ff ff 	mov    %rax,-0x4a8(%rbp)
    6db5:	48 8d 85 80 ee ff ff 	lea    -0x1180(%rbp),%rax
    6dbc:	48 83 c0 08          	add    $0x8,%rax
    6dc0:	48 89 85 60 fb ff ff 	mov    %rax,-0x4a0(%rbp)
    6dc7:	48 8d 85 80 ee ff ff 	lea    -0x1180(%rbp),%rax
    6dce:	48 83 c0 1c          	add    $0x1c,%rax
    6dd2:	48 89 85 68 fb ff ff 	mov    %rax,-0x498(%rbp)
    6dd9:	48 c7 85 70 fb ff ff 	movq   $0x0,-0x490(%rbp)
    6de0:	00 00 00 00 
    6de4:	48 8d 05 55 a2 00 00 	lea    0xa255(%rip),%rax        # 11040 <g_19>
    6deb:	48 89 85 78 fb ff ff 	mov    %rax,-0x488(%rbp)
    6df2:	48 8d 05 3b a2 00 00 	lea    0xa23b(%rip),%rax        # 11034 <g_3+0x4>
    6df9:	48 89 85 80 fb ff ff 	mov    %rax,-0x480(%rbp)
    6e00:	48 c7 85 88 fb ff ff 	movq   $0x0,-0x478(%rbp)
    6e07:	00 00 00 00 
    6e0b:	48 c7 85 90 fb ff ff 	movq   $0x0,-0x470(%rbp)
    6e12:	00 00 00 00 
    6e16:	48 8d 85 80 ee ff ff 	lea    -0x1180(%rbp),%rax
    6e1d:	48 83 c0 08          	add    $0x8,%rax
    6e21:	48 89 85 98 fb ff ff 	mov    %rax,-0x468(%rbp)
    6e28:	48 8d 85 80 ee ff ff 	lea    -0x1180(%rbp),%rax
    6e2f:	48 83 c0 08          	add    $0x8,%rax
    6e33:	48 89 85 a0 fb ff ff 	mov    %rax,-0x460(%rbp)
    6e3a:	48 c7 85 a8 fb ff ff 	movq   $0x0,-0x458(%rbp)
    6e41:	00 00 00 00 
    6e45:	48 8d 85 80 ee ff ff 	lea    -0x1180(%rbp),%rax
    6e4c:	48 83 c0 1c          	add    $0x1c,%rax
    6e50:	48 89 85 b0 fb ff ff 	mov    %rax,-0x450(%rbp)
    6e57:	48 8d 05 e2 a1 00 00 	lea    0xa1e2(%rip),%rax        # 11040 <g_19>
    6e5e:	48 89 85 b8 fb ff ff 	mov    %rax,-0x448(%rbp)
    6e65:	48 8d 85 80 ee ff ff 	lea    -0x1180(%rbp),%rax
    6e6c:	48 83 c0 08          	add    $0x8,%rax
    6e70:	48 89 85 c0 fb ff ff 	mov    %rax,-0x440(%rbp)
    6e77:	48 8d 85 80 ee ff ff 	lea    -0x1180(%rbp),%rax
    6e7e:	48 83 c0 1c          	add    $0x1c,%rax
    6e82:	48 89 85 c8 fb ff ff 	mov    %rax,-0x438(%rbp)
    6e89:	48 c7 85 d0 fb ff ff 	movq   $0x0,-0x430(%rbp)
    6e90:	00 00 00 00 
    6e94:	48 8d 05 a5 a1 00 00 	lea    0xa1a5(%rip),%rax        # 11040 <g_19>
    6e9b:	48 89 85 d8 fb ff ff 	mov    %rax,-0x428(%rbp)
    6ea2:	48 8d 05 8b a1 00 00 	lea    0xa18b(%rip),%rax        # 11034 <g_3+0x4>
    6ea9:	48 89 85 e0 fb ff ff 	mov    %rax,-0x420(%rbp)
    6eb0:	48 c7 85 e8 fb ff ff 	movq   $0x0,-0x418(%rbp)
    6eb7:	00 00 00 00 
    6ebb:	48 c7 85 f0 fb ff ff 	movq   $0x0,-0x410(%rbp)
    6ec2:	00 00 00 00 
    6ec6:	48 8d 85 80 ee ff ff 	lea    -0x1180(%rbp),%rax
    6ecd:	48 83 c0 08          	add    $0x8,%rax
    6ed1:	48 89 85 f8 fb ff ff 	mov    %rax,-0x408(%rbp)
    6ed8:	48 8d 85 80 ee ff ff 	lea    -0x1180(%rbp),%rax
    6edf:	48 83 c0 08          	add    $0x8,%rax
    6ee3:	48 89 85 00 fc ff ff 	mov    %rax,-0x400(%rbp)
    6eea:	48 c7 85 08 fc ff ff 	movq   $0x0,-0x3f8(%rbp)
    6ef1:	00 00 00 00 
    6ef5:	48 8d 85 80 ee ff ff 	lea    -0x1180(%rbp),%rax
    6efc:	48 83 c0 1c          	add    $0x1c,%rax
    6f00:	48 89 85 10 fc ff ff 	mov    %rax,-0x3f0(%rbp)
    6f07:	48 8d 05 32 a1 00 00 	lea    0xa132(%rip),%rax        # 11040 <g_19>
    6f0e:	48 89 85 18 fc ff ff 	mov    %rax,-0x3e8(%rbp)
    6f15:	48 8d 85 80 ee ff ff 	lea    -0x1180(%rbp),%rax
    6f1c:	48 83 c0 08          	add    $0x8,%rax
    6f20:	48 89 85 20 fc ff ff 	mov    %rax,-0x3e0(%rbp)
    6f27:	48 8d 85 80 ee ff ff 	lea    -0x1180(%rbp),%rax
    6f2e:	48 83 c0 1c          	add    $0x1c,%rax
    6f32:	48 89 85 28 fc ff ff 	mov    %rax,-0x3d8(%rbp)
    6f39:	48 c7 85 30 fc ff ff 	movq   $0x0,-0x3d0(%rbp)
    6f40:	00 00 00 00 
    6f44:	48 8d 05 f5 a0 00 00 	lea    0xa0f5(%rip),%rax        # 11040 <g_19>
    6f4b:	48 89 85 38 fc ff ff 	mov    %rax,-0x3c8(%rbp)
    6f52:	48 8d 05 db a0 00 00 	lea    0xa0db(%rip),%rax        # 11034 <g_3+0x4>
    6f59:	48 89 85 40 fc ff ff 	mov    %rax,-0x3c0(%rbp)
    6f60:	48 c7 85 48 fc ff ff 	movq   $0x0,-0x3b8(%rbp)
    6f67:	00 00 00 00 
    6f6b:	48 c7 85 50 fc ff ff 	movq   $0x0,-0x3b0(%rbp)
    6f72:	00 00 00 00 
    6f76:	48 8d 85 80 ee ff ff 	lea    -0x1180(%rbp),%rax
    6f7d:	48 83 c0 08          	add    $0x8,%rax
    6f81:	48 89 85 58 fc ff ff 	mov    %rax,-0x3a8(%rbp)
    6f88:	48 8d 85 80 ee ff ff 	lea    -0x1180(%rbp),%rax
    6f8f:	48 83 c0 08          	add    $0x8,%rax
    6f93:	48 89 85 60 fc ff ff 	mov    %rax,-0x3a0(%rbp)
    6f9a:	48 c7 85 68 fc ff ff 	movq   $0x0,-0x398(%rbp)
    6fa1:	00 00 00 00 
    6fa5:	48 8d 85 80 ee ff ff 	lea    -0x1180(%rbp),%rax
    6fac:	48 83 c0 1c          	add    $0x1c,%rax
    6fb0:	48 89 85 70 fc ff ff 	mov    %rax,-0x390(%rbp)
    6fb7:	48 8d 05 82 a0 00 00 	lea    0xa082(%rip),%rax        # 11040 <g_19>
    6fbe:	48 89 85 78 fc ff ff 	mov    %rax,-0x388(%rbp)
    6fc5:	48 8d 85 80 ee ff ff 	lea    -0x1180(%rbp),%rax
    6fcc:	48 83 c0 08          	add    $0x8,%rax
    6fd0:	48 89 85 80 fc ff ff 	mov    %rax,-0x380(%rbp)
    6fd7:	48 8d 85 80 ee ff ff 	lea    -0x1180(%rbp),%rax
    6fde:	48 83 c0 1c          	add    $0x1c,%rax
    6fe2:	48 89 85 88 fc ff ff 	mov    %rax,-0x378(%rbp)
    6fe9:	48 c7 85 90 fc ff ff 	movq   $0x0,-0x370(%rbp)
    6ff0:	00 00 00 00 
    6ff4:	48 8d 05 45 a0 00 00 	lea    0xa045(%rip),%rax        # 11040 <g_19>
    6ffb:	48 89 85 98 fc ff ff 	mov    %rax,-0x368(%rbp)
    7002:	48 8d 05 2b a0 00 00 	lea    0xa02b(%rip),%rax        # 11034 <g_3+0x4>
    7009:	48 89 85 a0 fc ff ff 	mov    %rax,-0x360(%rbp)
    7010:	48 c7 85 a8 fc ff ff 	movq   $0x0,-0x358(%rbp)
    7017:	00 00 00 00 
    701b:	48 c7 85 b0 fc ff ff 	movq   $0x0,-0x350(%rbp)
    7022:	00 00 00 00 
    7026:	48 8d 85 80 ee ff ff 	lea    -0x1180(%rbp),%rax
    702d:	48 83 c0 08          	add    $0x8,%rax
    7031:	48 89 85 b8 fc ff ff 	mov    %rax,-0x348(%rbp)
    7038:	48 8d 85 80 ee ff ff 	lea    -0x1180(%rbp),%rax
    703f:	48 83 c0 08          	add    $0x8,%rax
    7043:	48 89 85 c0 fc ff ff 	mov    %rax,-0x340(%rbp)
    704a:	48 c7 85 c8 fc ff ff 	movq   $0x0,-0x338(%rbp)
    7051:	00 00 00 00 
    7055:	48 8d 85 80 ee ff ff 	lea    -0x1180(%rbp),%rax
    705c:	48 83 c0 1c          	add    $0x1c,%rax
    7060:	48 89 85 d0 fc ff ff 	mov    %rax,-0x330(%rbp)
    7067:	48 8d 05 d2 9f 00 00 	lea    0x9fd2(%rip),%rax        # 11040 <g_19>
    706e:	48 89 85 d8 fc ff ff 	mov    %rax,-0x328(%rbp)
    7075:	48 8d 85 80 ee ff ff 	lea    -0x1180(%rbp),%rax
    707c:	48 83 c0 08          	add    $0x8,%rax
    7080:	48 89 85 e0 fc ff ff 	mov    %rax,-0x320(%rbp)
    7087:	48 8d 85 80 ee ff ff 	lea    -0x1180(%rbp),%rax
    708e:	48 83 c0 1c          	add    $0x1c,%rax
    7092:	48 89 85 e8 fc ff ff 	mov    %rax,-0x318(%rbp)
    7099:	48 c7 85 f0 fc ff ff 	movq   $0x0,-0x310(%rbp)
    70a0:	00 00 00 00 
    70a4:	48 8d 05 95 9f 00 00 	lea    0x9f95(%rip),%rax        # 11040 <g_19>
    70ab:	48 89 85 f8 fc ff ff 	mov    %rax,-0x308(%rbp)
    70b2:	48 8d 05 7b 9f 00 00 	lea    0x9f7b(%rip),%rax        # 11034 <g_3+0x4>
    70b9:	48 89 85 00 fd ff ff 	mov    %rax,-0x300(%rbp)
    70c0:	48 c7 85 08 fd ff ff 	movq   $0x0,-0x2f8(%rbp)
    70c7:	00 00 00 00 
    70cb:	48 8d 85 80 ee ff ff 	lea    -0x1180(%rbp),%rax
    70d2:	48 83 c0 1c          	add    $0x1c,%rax
    70d6:	48 89 85 10 fd ff ff 	mov    %rax,-0x2f0(%rbp)
    70dd:	48 8d 05 50 9f 00 00 	lea    0x9f50(%rip),%rax        # 11034 <g_3+0x4>
    70e4:	48 89 85 18 fd ff ff 	mov    %rax,-0x2e8(%rbp)
    70eb:	48 8d 05 42 9f 00 00 	lea    0x9f42(%rip),%rax        # 11034 <g_3+0x4>
    70f2:	48 89 85 20 fd ff ff 	mov    %rax,-0x2e0(%rbp)
    70f9:	48 8d 85 80 ee ff ff 	lea    -0x1180(%rbp),%rax
    7100:	48 83 c0 1c          	add    $0x1c,%rax
    7104:	48 89 85 28 fd ff ff 	mov    %rax,-0x2d8(%rbp)
    710b:	48 8d 85 80 ee ff ff 	lea    -0x1180(%rbp),%rax
    7112:	48 83 c0 1c          	add    $0x1c,%rax
    7116:	48 89 85 30 fd ff ff 	mov    %rax,-0x2d0(%rbp)
    711d:	48 8d 85 80 ee ff ff 	lea    -0x1180(%rbp),%rax
    7124:	48 83 c0 08          	add    $0x8,%rax
    7128:	48 89 85 38 fd ff ff 	mov    %rax,-0x2c8(%rbp)
    712f:	48 8d 05 fe 9e 00 00 	lea    0x9efe(%rip),%rax        # 11034 <g_3+0x4>
    7136:	48 89 85 40 fd ff ff 	mov    %rax,-0x2c0(%rbp)
    713d:	48 8d 85 80 ee ff ff 	lea    -0x1180(%rbp),%rax
    7144:	48 83 c0 1c          	add    $0x1c,%rax
    7148:	48 89 85 48 fd ff ff 	mov    %rax,-0x2b8(%rbp)
    714f:	48 8d 85 80 ee ff ff 	lea    -0x1180(%rbp),%rax
    7156:	48 83 c0 1c          	add    $0x1c,%rax
    715a:	48 89 85 50 fd ff ff 	mov    %rax,-0x2b0(%rbp)
    7161:	48 8d 85 80 ee ff ff 	lea    -0x1180(%rbp),%rax
    7168:	48 83 c0 08          	add    $0x8,%rax
    716c:	48 89 85 58 fd ff ff 	mov    %rax,-0x2a8(%rbp)
    7173:	48 8d 05 c6 9e 00 00 	lea    0x9ec6(%rip),%rax        # 11040 <g_19>
    717a:	48 89 85 60 fd ff ff 	mov    %rax,-0x2a0(%rbp)
    7181:	48 8d 85 80 ee ff ff 	lea    -0x1180(%rbp),%rax
    7188:	48 83 c0 1c          	add    $0x1c,%rax
    718c:	48 89 85 68 fd ff ff 	mov    %rax,-0x298(%rbp)
    7193:	48 8d 85 80 ee ff ff 	lea    -0x1180(%rbp),%rax
    719a:	48 83 c0 1c          	add    $0x1c,%rax
    719e:	48 89 85 70 fd ff ff 	mov    %rax,-0x290(%rbp)
    71a5:	48 8d 05 88 9e 00 00 	lea    0x9e88(%rip),%rax        # 11034 <g_3+0x4>
    71ac:	48 89 85 78 fd ff ff 	mov    %rax,-0x288(%rbp)
    71b3:	48 8d 05 7a 9e 00 00 	lea    0x9e7a(%rip),%rax        # 11034 <g_3+0x4>
    71ba:	48 89 85 80 fd ff ff 	mov    %rax,-0x280(%rbp)
    71c1:	48 8d 85 80 ee ff ff 	lea    -0x1180(%rbp),%rax
    71c8:	48 83 c0 1c          	add    $0x1c,%rax
    71cc:	48 89 85 88 fd ff ff 	mov    %rax,-0x278(%rbp)
    71d3:	48 8d 85 80 ee ff ff 	lea    -0x1180(%rbp),%rax
    71da:	48 83 c0 1c          	add    $0x1c,%rax
    71de:	48 89 85 90 fd ff ff 	mov    %rax,-0x270(%rbp)
    71e5:	48 8d 85 80 ee ff ff 	lea    -0x1180(%rbp),%rax
    71ec:	48 83 c0 08          	add    $0x8,%rax
    71f0:	48 89 85 98 fd ff ff 	mov    %rax,-0x268(%rbp)
    71f7:	48 8d 05 36 9e 00 00 	lea    0x9e36(%rip),%rax        # 11034 <g_3+0x4>
    71fe:	48 89 85 a0 fd ff ff 	mov    %rax,-0x260(%rbp)
    7205:	48 8d 85 80 ee ff ff 	lea    -0x1180(%rbp),%rax
    720c:	48 83 c0 1c          	add    $0x1c,%rax
    7210:	48 89 85 a8 fd ff ff 	mov    %rax,-0x258(%rbp)
    7217:	48 8d 85 80 ee ff ff 	lea    -0x1180(%rbp),%rax
    721e:	48 83 c0 1c          	add    $0x1c,%rax
    7222:	48 89 85 b0 fd ff ff 	mov    %rax,-0x250(%rbp)
    7229:	48 8d 85 80 ee ff ff 	lea    -0x1180(%rbp),%rax
    7230:	48 83 c0 08          	add    $0x8,%rax
    7234:	48 89 85 b8 fd ff ff 	mov    %rax,-0x248(%rbp)
    723b:	48 8d 05 fe 9d 00 00 	lea    0x9dfe(%rip),%rax        # 11040 <g_19>
    7242:	48 89 85 c0 fd ff ff 	mov    %rax,-0x240(%rbp)
    7249:	48 8d 85 80 ee ff ff 	lea    -0x1180(%rbp),%rax
    7250:	48 83 c0 1c          	add    $0x1c,%rax
    7254:	48 89 85 c8 fd ff ff 	mov    %rax,-0x238(%rbp)
    725b:	48 8d 85 80 ee ff ff 	lea    -0x1180(%rbp),%rax
    7262:	48 83 c0 1c          	add    $0x1c,%rax
    7266:	48 89 85 d0 fd ff ff 	mov    %rax,-0x230(%rbp)
    726d:	48 8d 05 c0 9d 00 00 	lea    0x9dc0(%rip),%rax        # 11034 <g_3+0x4>
    7274:	48 89 85 d8 fd ff ff 	mov    %rax,-0x228(%rbp)
    727b:	48 8d 05 b2 9d 00 00 	lea    0x9db2(%rip),%rax        # 11034 <g_3+0x4>
    7282:	48 89 85 e0 fd ff ff 	mov    %rax,-0x220(%rbp)
    7289:	48 8d 85 80 ee ff ff 	lea    -0x1180(%rbp),%rax
    7290:	48 83 c0 1c          	add    $0x1c,%rax
    7294:	48 89 85 e8 fd ff ff 	mov    %rax,-0x218(%rbp)
    729b:	48 8d 85 80 ee ff ff 	lea    -0x1180(%rbp),%rax
    72a2:	48 83 c0 1c          	add    $0x1c,%rax
    72a6:	48 89 85 f0 fd ff ff 	mov    %rax,-0x210(%rbp)
    72ad:	48 8d 85 80 ee ff ff 	lea    -0x1180(%rbp),%rax
    72b4:	48 83 c0 08          	add    $0x8,%rax
    72b8:	48 89 85 f8 fd ff ff 	mov    %rax,-0x208(%rbp)
    72bf:	48 8d 05 6e 9d 00 00 	lea    0x9d6e(%rip),%rax        # 11034 <g_3+0x4>
    72c6:	48 89 85 00 fe ff ff 	mov    %rax,-0x200(%rbp)
    72cd:	48 8d 85 80 ee ff ff 	lea    -0x1180(%rbp),%rax
    72d4:	48 83 c0 1c          	add    $0x1c,%rax
    72d8:	48 89 85 08 fe ff ff 	mov    %rax,-0x1f8(%rbp)
    72df:	48 8d 85 80 ee ff ff 	lea    -0x1180(%rbp),%rax
    72e6:	48 83 c0 1c          	add    $0x1c,%rax
    72ea:	48 89 85 10 fe ff ff 	mov    %rax,-0x1f0(%rbp)
    72f1:	48 8d 85 80 ee ff ff 	lea    -0x1180(%rbp),%rax
    72f8:	48 83 c0 08          	add    $0x8,%rax
    72fc:	48 89 85 18 fe ff ff 	mov    %rax,-0x1e8(%rbp)
    7303:	48 8d 05 36 9d 00 00 	lea    0x9d36(%rip),%rax        # 11040 <g_19>
    730a:	48 89 85 20 fe ff ff 	mov    %rax,-0x1e0(%rbp)
    7311:	48 8d 85 80 ee ff ff 	lea    -0x1180(%rbp),%rax
    7318:	48 83 c0 1c          	add    $0x1c,%rax
    731c:	48 89 85 28 fe ff ff 	mov    %rax,-0x1d8(%rbp)
    7323:	48 8d 85 80 ee ff ff 	lea    -0x1180(%rbp),%rax
    732a:	48 83 c0 1c          	add    $0x1c,%rax
    732e:	48 89 85 30 fe ff ff 	mov    %rax,-0x1d0(%rbp)
    7335:	48 8d 05 f8 9c 00 00 	lea    0x9cf8(%rip),%rax        # 11034 <g_3+0x4>
    733c:	48 89 85 38 fe ff ff 	mov    %rax,-0x1c8(%rbp)
    7343:	48 8d 05 ea 9c 00 00 	lea    0x9cea(%rip),%rax        # 11034 <g_3+0x4>
    734a:	48 89 85 40 fe ff ff 	mov    %rax,-0x1c0(%rbp)
    7351:	48 8d 85 80 ee ff ff 	lea    -0x1180(%rbp),%rax
    7358:	48 83 c0 1c          	add    $0x1c,%rax
    735c:	48 89 85 48 fe ff ff 	mov    %rax,-0x1b8(%rbp)
    7363:	48 8d 85 80 ee ff ff 	lea    -0x1180(%rbp),%rax
    736a:	48 83 c0 1c          	add    $0x1c,%rax
    736e:	48 89 85 50 fe ff ff 	mov    %rax,-0x1b0(%rbp)
    7375:	48 8d 85 80 ee ff ff 	lea    -0x1180(%rbp),%rax
    737c:	48 83 c0 08          	add    $0x8,%rax
    7380:	48 89 85 58 fe ff ff 	mov    %rax,-0x1a8(%rbp)
    7387:	48 8d 05 a6 9c 00 00 	lea    0x9ca6(%rip),%rax        # 11034 <g_3+0x4>
    738e:	48 89 85 60 fe ff ff 	mov    %rax,-0x1a0(%rbp)
    7395:	48 8d 85 80 ee ff ff 	lea    -0x1180(%rbp),%rax
    739c:	48 83 c0 1c          	add    $0x1c,%rax
    73a0:	48 89 85 68 fe ff ff 	mov    %rax,-0x198(%rbp)
    73a7:	48 8d 85 80 ee ff ff 	lea    -0x1180(%rbp),%rax
    73ae:	48 83 c0 1c          	add    $0x1c,%rax
    73b2:	48 89 85 70 fe ff ff 	mov    %rax,-0x190(%rbp)
    73b9:	48 8d 85 80 ee ff ff 	lea    -0x1180(%rbp),%rax
    73c0:	48 83 c0 08          	add    $0x8,%rax
    73c4:	48 89 85 78 fe ff ff 	mov    %rax,-0x188(%rbp)
    73cb:	48 8d 05 6e 9c 00 00 	lea    0x9c6e(%rip),%rax        # 11040 <g_19>
    73d2:	48 89 85 80 fe ff ff 	mov    %rax,-0x180(%rbp)
    73d9:	48 8d 85 80 ee ff ff 	lea    -0x1180(%rbp),%rax
    73e0:	48 83 c0 1c          	add    $0x1c,%rax
    73e4:	48 89 85 88 fe ff ff 	mov    %rax,-0x178(%rbp)
    73eb:	48 8d 85 80 ee ff ff 	lea    -0x1180(%rbp),%rax
    73f2:	48 83 c0 1c          	add    $0x1c,%rax
    73f6:	48 89 85 90 fe ff ff 	mov    %rax,-0x170(%rbp)
    73fd:	48 8d 05 30 9c 00 00 	lea    0x9c30(%rip),%rax        # 11034 <g_3+0x4>
    7404:	48 89 85 98 fe ff ff 	mov    %rax,-0x168(%rbp)
    740b:	48 8d 05 22 9c 00 00 	lea    0x9c22(%rip),%rax        # 11034 <g_3+0x4>
    7412:	48 89 85 a0 fe ff ff 	mov    %rax,-0x160(%rbp)
    7419:	48 8d 85 80 ee ff ff 	lea    -0x1180(%rbp),%rax
    7420:	48 83 c0 1c          	add    $0x1c,%rax
    7424:	48 89 85 a8 fe ff ff 	mov    %rax,-0x158(%rbp)
    742b:	48 8d 85 80 ee ff ff 	lea    -0x1180(%rbp),%rax
    7432:	48 83 c0 1c          	add    $0x1c,%rax
    7436:	48 89 85 b0 fe ff ff 	mov    %rax,-0x150(%rbp)
    743d:	48 8d 85 80 ee ff ff 	lea    -0x1180(%rbp),%rax
    7444:	48 83 c0 08          	add    $0x8,%rax
    7448:	48 89 85 b8 fe ff ff 	mov    %rax,-0x148(%rbp)
    744f:	48 8d 05 de 9b 00 00 	lea    0x9bde(%rip),%rax        # 11034 <g_3+0x4>
    7456:	48 89 85 c0 fe ff ff 	mov    %rax,-0x140(%rbp)
    745d:	48 8d 85 80 ee ff ff 	lea    -0x1180(%rbp),%rax
    7464:	48 83 c0 1c          	add    $0x1c,%rax
    7468:	48 89 85 c8 fe ff ff 	mov    %rax,-0x138(%rbp)
    746f:	48 8d 85 80 ee ff ff 	lea    -0x1180(%rbp),%rax
    7476:	48 83 c0 1c          	add    $0x1c,%rax
    747a:	48 89 85 d0 fe ff ff 	mov    %rax,-0x130(%rbp)
    7481:	48 8d 85 80 ee ff ff 	lea    -0x1180(%rbp),%rax
    7488:	48 83 c0 08          	add    $0x8,%rax
    748c:	48 89 85 d8 fe ff ff 	mov    %rax,-0x128(%rbp)
    7493:	48 8d 05 a6 9b 00 00 	lea    0x9ba6(%rip),%rax        # 11040 <g_19>
    749a:	48 89 85 e0 fe ff ff 	mov    %rax,-0x120(%rbp)
    74a1:	48 8d 85 80 ee ff ff 	lea    -0x1180(%rbp),%rax
    74a8:	48 83 c0 1c          	add    $0x1c,%rax
    74ac:	48 89 85 e8 fe ff ff 	mov    %rax,-0x118(%rbp)
    74b3:	48 c7 85 e0 ed ff ff 	movq   $0x0,-0x1220(%rbp)
    74ba:	00 00 00 00 
    74be:	48 8d 05 83 b0 00 00 	lea    0xb083(%rip),%rax        # 12548 <g_137>
    74c5:	48 89 85 e8 ed ff ff 	mov    %rax,-0x1218(%rbp)
    74cc:	c7 85 e8 eb ff ff ff 	movl   $0xffffffff,-0x1418(%rbp)
    74d3:	ff ff ff 
    74d6:	8b 05 74 9b 00 00    	mov    0x9b74(%rip),%eax        # 11050 <g_58>
    74dc:	0f be d0             	movsbl %al,%edx
    74df:	0f b7 8d 24 eb ff ff 	movzwl -0x14dc(%rbp),%ecx
    74e6:	0f b6 05 6d 9b 00 00 	movzbl 0x9b6d(%rip),%eax        # 1105a <g_103>
    74ed:	0f be c0             	movsbl %al,%eax
    74f0:	39 c1                	cmp    %eax,%ecx
    74f2:	0f 94 c0             	sete   %al
    74f5:	0f b6 c8             	movzbl %al,%ecx
    74f8:	0f b7 05 59 9b 00 00 	movzwl 0x9b59(%rip),%eax        # 11058 <g_71>
    74ff:	98                   	cwtl   
    7500:	39 c1                	cmp    %eax,%ecx
    7502:	0f 9f c0             	setg   %al
    7505:	0f b6 c0             	movzbl %al,%eax
    7508:	89 d6                	mov    %edx,%esi
    750a:	89 c7                	mov    %eax,%edi
    750c:	e8 01 bd ff ff       	callq  3212 <safe_mul_func_int8_t_s_s>
    7511:	8b 95 9c ee ff ff    	mov    -0x1164(%rbp),%edx
    7517:	0f be c0             	movsbl %al,%eax
    751a:	21 d0                	and    %edx,%eax
    751c:	89 85 9c ee ff ff    	mov    %eax,-0x1164(%rbp)
    7522:	48 8b 85 48 ec ff ff 	mov    -0x13b8(%rbp),%rax
    7529:	48 83 e8 01          	sub    $0x1,%rax
    752d:	48 89 85 48 ec ff ff 	mov    %rax,-0x13b8(%rbp)
    7534:	c7 85 60 eb ff ff 00 	movl   $0x0,-0x14a0(%rbp)
    753b:	00 00 00 
    753e:	e9 d3 01 00 00       	jmpq   7716 <func_44+0x1529>
    7543:	48 8d 85 18 ec ff ff 	lea    -0x13e8(%rbp),%rax
    754a:	48 89 85 f0 ed ff ff 	mov    %rax,-0x1210(%rbp)
    7551:	c7 85 ec eb ff ff 00 	movl   $0x0,-0x1414(%rbp)
    7558:	00 00 00 
    755b:	48 8b 85 f0 ed ff ff 	mov    -0x1210(%rbp),%rax
    7562:	48 8d 15 ef 9a 00 00 	lea    0x9aef(%rip),%rdx        # 11058 <g_71>
    7569:	48 89 10             	mov    %rdx,(%rax)
    756c:	48 8b 9d 48 ec ff ff 	mov    -0x13b8(%rbp),%rbx
    7573:	4c 8b 25 ce 9a 00 00 	mov    0x9ace(%rip),%r12        # 11048 <g_52>
    757a:	48 8b 85 10 ec ff ff 	mov    -0x13f0(%rbp),%rax
    7581:	0f b6 10             	movzbl (%rax),%edx
    7584:	48 8b 85 10 ec ff ff 	mov    -0x13f0(%rbp),%rax
    758b:	83 e2 f6             	and    $0xfffffff6,%edx
    758e:	88 10                	mov    %dl,(%rax)
    7590:	0f b6 00             	movzbl (%rax),%eax
    7593:	44 0f be f8          	movsbl %al,%r15d
    7597:	48 8b 05 9a a5 00 00 	mov    0xa59a(%rip),%rax        # 11b38 <g_56>
    759e:	48 8b 00             	mov    (%rax),%rax
    75a1:	8b 00                	mov    (%rax),%eax
    75a3:	0f b7 95 20 eb ff ff 	movzwl -0x14e0(%rbp),%edx
    75aa:	8b 05 90 9a 00 00    	mov    0x9a90(%rip),%eax        # 11040 <g_19>
    75b0:	39 c2                	cmp    %eax,%edx
    75b2:	0f 95 c0             	setne  %al
    75b5:	44 0f b6 e8          	movzbl %al,%r13d
    75b9:	be 00 00 00 00       	mov    $0x0,%esi
    75be:	bf 11 00 00 00       	mov    $0x11,%edi
    75c3:	e8 cb c5 ff ff       	callq  3b93 <safe_mul_func_uint8_t_u_u>
    75c8:	0f b6 c0             	movzbl %al,%eax
    75cb:	44 89 ee             	mov    %r13d,%esi
    75ce:	89 c7                	mov    %eax,%edi
    75d0:	e8 fb c8 ff ff       	callq  3ed0 <safe_sub_func_uint32_t_u_u>
    75d5:	41 89 c6             	mov    %eax,%r14d
    75d8:	8b 05 56 9a 00 00    	mov    0x9a56(%rip),%eax        # 11034 <g_3+0x4>
    75de:	4c 63 e8             	movslq %eax,%r13
    75e1:	0f b6 05 6c 9a 00 00 	movzbl 0x9a6c(%rip),%eax        # 11054 <g_64>
    75e8:	0f b6 d0             	movzbl %al,%edx
    75eb:	0f b7 85 1c eb ff ff 	movzwl -0x14e4(%rbp),%eax
    75f2:	98                   	cwtl   
    75f3:	39 c2                	cmp    %eax,%edx
    75f5:	0f 9c c0             	setl   %al
    75f8:	0f b6 c0             	movzbl %al,%eax
    75fb:	be ff ff ff ff       	mov    $0xffffffff,%esi
    7600:	89 c7                	mov    %eax,%edi
    7602:	e8 0f be ff ff       	callq  3416 <safe_mod_func_int16_t_s_s>
    7607:	98                   	cwtl   
    7608:	f7 d0                	not    %eax
    760a:	48 98                	cltq   
    760c:	4c 89 ee             	mov    %r13,%rsi
    760f:	48 89 c7             	mov    %rax,%rdi
    7612:	e8 17 ca ff ff       	callq  402e <safe_add_func_uint64_t_u_u>
    7617:	0f b7 95 24 eb ff ff 	movzwl -0x14dc(%rbp),%edx
    761e:	48 39 d0             	cmp    %rdx,%rax
    7621:	0f 95 c2             	setne  %dl
    7624:	48 8b 85 f8 eb ff ff 	mov    -0x1408(%rbp),%rax
    762b:	0f b6 d2             	movzbl %dl,%edx
    762e:	66 89 10             	mov    %dx,(%rax)
    7631:	0f b7 00             	movzwl (%rax),%eax
    7634:	98                   	cwtl   
    7635:	41 39 c6             	cmp    %eax,%r14d
    7638:	c7 85 94 ee ff ff db 	movl   $0x921c45db,-0x116c(%rbp)
    763f:	45 1c 92 
    7642:	8b 85 94 ee ff ff    	mov    -0x116c(%rbp),%eax
    7648:	44 09 f8             	or     %r15d,%eax
    764b:	48 98                	cltq   
    764d:	4c 89 e6             	mov    %r12,%rsi
    7650:	48 89 c7             	mov    %rax,%rdi
    7653:	e8 57 ca ff ff       	callq  40af <safe_div_func_uint64_t_u_u>
    7658:	48 8b 95 48 ec ff ff 	mov    -0x13b8(%rbp),%rdx
    765f:	48 39 d0             	cmp    %rdx,%rax
    7662:	0f 95 c0             	setne  %al
    7665:	0f b6 c0             	movzbl %al,%eax
    7668:	48 89 de             	mov    %rbx,%rsi
    766b:	48 89 c7             	mov    %rax,%rdi
    766e:	e8 0d ca ff ff       	callq  4080 <safe_mod_func_uint64_t_u_u>
    7673:	48 8d 85 1c eb ff ff 	lea    -0x14e4(%rbp),%rax
    767a:	48 89 85 10 ed ff ff 	mov    %rax,-0x12f0(%rbp)
    7681:	48 8b 85 10 ed ff ff 	mov    -0x12f0(%rbp),%rax
    7688:	48 89 85 f8 eb ff ff 	mov    %rax,-0x1408(%rbp)
    768f:	48 8d 85 50 ec ff ff 	lea    -0x13b0(%rbp),%rax
    7696:	48 89 85 58 ec ff ff 	mov    %rax,-0x13a8(%rbp)
    769d:	48 8d 85 58 ec ff ff 	lea    -0x13a8(%rbp),%rax
    76a4:	48 89 85 f8 ed ff ff 	mov    %rax,-0x1208(%rbp)
    76ab:	48 c7 85 00 ee ff ff 	movq   $0x0,-0x1200(%rbp)
    76b2:	00 00 00 00 
    76b6:	48 8d 05 8b ae 00 00 	lea    0xae8b(%rip),%rax        # 12548 <g_137>
    76bd:	48 89 85 08 ee ff ff 	mov    %rax,-0x11f8(%rbp)
    76c4:	48 8b 85 f8 ed ff ff 	mov    -0x1208(%rbp),%rax
    76cb:	48 8d 95 28 eb ff ff 	lea    -0x14d8(%rbp),%rdx
    76d2:	48 89 10             	mov    %rdx,(%rax)
    76d5:	48 8b 85 f8 ed ff ff 	mov    -0x1208(%rbp),%rax
    76dc:	48 8b 08             	mov    (%rax),%rcx
    76df:	48 8b 15 62 ae 00 00 	mov    0xae62(%rip),%rdx        # 12548 <g_137>
    76e6:	48 8b 85 08 ee ff ff 	mov    -0x11f8(%rbp),%rax
    76ed:	48 89 10             	mov    %rdx,(%rax)
    76f0:	48 8b 85 08 ee ff ff 	mov    -0x11f8(%rbp),%rax
    76f7:	48 8b 00             	mov    (%rax),%rax
    76fa:	48 39 c1             	cmp    %rax,%rcx
    76fd:	0f 95 c2             	setne  %dl
    7700:	48 8b 05 31 a4 00 00 	mov    0xa431(%rip),%rax        # 11b38 <g_56>
    7707:	48 8b 00             	mov    (%rax),%rax
    770a:	0f b6 d2             	movzbl %dl,%edx
    770d:	89 10                	mov    %edx,(%rax)
    770f:	83 ad 60 eb ff ff 01 	subl   $0x1,-0x14a0(%rbp)
    7716:	83 bd 60 eb ff ff eb 	cmpl   $0xffffffeb,-0x14a0(%rbp)
    771d:	0f 8d 20 fe ff ff    	jge    7543 <func_44+0x1356>
    7723:	e9 d6 1f 00 00       	jmpq   96fe <func_44+0x3511>
    7728:	48 8d 85 80 ee ff ff 	lea    -0x1180(%rbp),%rax
    772f:	48 83 c0 1c          	add    $0x1c,%rax
    7733:	48 89 85 48 ed ff ff 	mov    %rax,-0x12b8(%rbp)
    773a:	48 8d 85 80 ee ff ff 	lea    -0x1180(%rbp),%rax
    7741:	48 83 c0 0c          	add    $0xc,%rax
    7745:	48 89 85 50 ed ff ff 	mov    %rax,-0x12b0(%rbp)
    774c:	48 8d 05 ed 98 00 00 	lea    0x98ed(%rip),%rax        # 11040 <g_19>
    7753:	48 89 85 58 ed ff ff 	mov    %rax,-0x12a8(%rbp)
    775a:	48 c7 85 60 ed ff ff 	movq   $0x0,-0x12a0(%rbp)
    7761:	00 00 00 00 
    7765:	48 8d 85 80 ee ff ff 	lea    -0x1180(%rbp),%rax
    776c:	48 83 c0 1c          	add    $0x1c,%rax
    7770:	48 89 85 00 ef ff ff 	mov    %rax,-0x1100(%rbp)
    7777:	48 8d 85 f0 ef ff ff 	lea    -0x1010(%rbp),%rax
    777e:	48 83 c0 44          	add    $0x44,%rax
    7782:	48 89 85 08 ef ff ff 	mov    %rax,-0x10f8(%rbp)
    7789:	48 8d 85 80 ee ff ff 	lea    -0x1180(%rbp),%rax
    7790:	48 83 c0 1c          	add    $0x1c,%rax
    7794:	48 89 85 10 ef ff ff 	mov    %rax,-0x10f0(%rbp)
    779b:	48 8d 85 f0 ef ff ff 	lea    -0x1010(%rbp),%rax
    77a2:	48 83 c0 68          	add    $0x68,%rax
    77a6:	48 89 85 18 ef ff ff 	mov    %rax,-0x10e8(%rbp)
    77ad:	48 c7 85 20 ef ff ff 	movq   $0x0,-0x10e0(%rbp)
    77b4:	00 00 00 00 
    77b8:	48 c7 85 28 ef ff ff 	movq   $0x0,-0x10d8(%rbp)
    77bf:	00 00 00 00 
    77c3:	48 8d 85 f0 ef ff ff 	lea    -0x1010(%rbp),%rax
    77ca:	48 83 c0 68          	add    $0x68,%rax
    77ce:	48 89 85 30 ef ff ff 	mov    %rax,-0x10d0(%rbp)
    77d5:	48 8d 85 80 ee ff ff 	lea    -0x1180(%rbp),%rax
    77dc:	48 83 c0 1c          	add    $0x1c,%rax
    77e0:	48 89 85 38 ef ff ff 	mov    %rax,-0x10c8(%rbp)
    77e7:	48 8d 85 80 ee ff ff 	lea    -0x1180(%rbp),%rax
    77ee:	48 83 c0 18          	add    $0x18,%rax
    77f2:	48 89 85 40 ef ff ff 	mov    %rax,-0x10c0(%rbp)
    77f9:	48 8d 05 40 98 00 00 	lea    0x9840(%rip),%rax        # 11040 <g_19>
    7800:	48 89 85 48 ef ff ff 	mov    %rax,-0x10b8(%rbp)
    7807:	48 c7 85 50 ef ff ff 	movq   $0x0,-0x10b0(%rbp)
    780e:	00 00 00 00 
    7812:	48 8d 05 27 98 00 00 	lea    0x9827(%rip),%rax        # 11040 <g_19>
    7819:	48 89 85 58 ef ff ff 	mov    %rax,-0x10a8(%rbp)
    7820:	48 8d 05 19 98 00 00 	lea    0x9819(%rip),%rax        # 11040 <g_19>
    7827:	48 89 85 60 ef ff ff 	mov    %rax,-0x10a0(%rbp)
    782e:	48 8d 05 0b 98 00 00 	lea    0x980b(%rip),%rax        # 11040 <g_19>
    7835:	48 89 85 68 ef ff ff 	mov    %rax,-0x1098(%rbp)
    783c:	48 c7 85 70 ef ff ff 	movq   $0x0,-0x1090(%rbp)
    7843:	00 00 00 00 
    7847:	48 8d 05 f2 97 00 00 	lea    0x97f2(%rip),%rax        # 11040 <g_19>
    784e:	48 89 85 78 ef ff ff 	mov    %rax,-0x1088(%rbp)
    7855:	48 8d 85 80 ee ff ff 	lea    -0x1180(%rbp),%rax
    785c:	48 83 c0 18          	add    $0x18,%rax
    7860:	48 89 85 80 ef ff ff 	mov    %rax,-0x1080(%rbp)
    7867:	48 8d 85 80 ee ff ff 	lea    -0x1180(%rbp),%rax
    786e:	48 83 c0 1c          	add    $0x1c,%rax
    7872:	48 89 85 88 ef ff ff 	mov    %rax,-0x1078(%rbp)
    7879:	48 8d 85 f0 ef ff ff 	lea    -0x1010(%rbp),%rax
    7880:	48 83 c0 68          	add    $0x68,%rax
    7884:	48 89 85 90 ef ff ff 	mov    %rax,-0x1070(%rbp)
    788b:	48 c7 85 98 ef ff ff 	movq   $0x0,-0x1068(%rbp)
    7892:	00 00 00 00 
    7896:	48 c7 85 a0 ef ff ff 	movq   $0x0,-0x1060(%rbp)
    789d:	00 00 00 00 
    78a1:	48 8d 85 f0 ef ff ff 	lea    -0x1010(%rbp),%rax
    78a8:	48 83 c0 68          	add    $0x68,%rax
    78ac:	48 89 85 a8 ef ff ff 	mov    %rax,-0x1058(%rbp)
    78b3:	48 8d 85 80 ee ff ff 	lea    -0x1180(%rbp),%rax
    78ba:	48 83 c0 1c          	add    $0x1c,%rax
    78be:	48 89 85 b0 ef ff ff 	mov    %rax,-0x1050(%rbp)
    78c5:	48 8d 85 f0 ef ff ff 	lea    -0x1010(%rbp),%rax
    78cc:	48 83 c0 44          	add    $0x44,%rax
    78d0:	48 89 85 b8 ef ff ff 	mov    %rax,-0x1048(%rbp)
    78d7:	48 8d 85 80 ee ff ff 	lea    -0x1180(%rbp),%rax
    78de:	48 83 c0 1c          	add    $0x1c,%rax
    78e2:	48 89 85 c0 ef ff ff 	mov    %rax,-0x1040(%rbp)
    78e9:	48 8d 85 f0 ef ff ff 	lea    -0x1010(%rbp),%rax
    78f0:	48 83 c0 68          	add    $0x68,%rax
    78f4:	48 89 85 c8 ef ff ff 	mov    %rax,-0x1038(%rbp)
    78fb:	48 c7 85 d0 ef ff ff 	movq   $0x0,-0x1030(%rbp)
    7902:	00 00 00 00 
    7906:	48 c7 85 d8 ef ff ff 	movq   $0x0,-0x1028(%rbp)
    790d:	00 00 00 00 
    7911:	48 8d 85 f0 ef ff ff 	lea    -0x1010(%rbp),%rax
    7918:	48 83 c0 68          	add    $0x68,%rax
    791c:	48 89 85 e0 ef ff ff 	mov    %rax,-0x1020(%rbp)
    7923:	48 8d 85 80 ee ff ff 	lea    -0x1180(%rbp),%rax
    792a:	48 83 c0 1c          	add    $0x1c,%rax
    792e:	48 89 85 e8 ef ff ff 	mov    %rax,-0x1018(%rbp)
    7935:	66 c7 85 48 eb ff ff 	movw   $0x2892,-0x14b8(%rbp)
    793c:	92 28 
    793e:	48 8d 05 83 97 00 00 	lea    0x9783(%rip),%rax        # 110c8 <g_230>
    7945:	48 89 85 68 ed ff ff 	mov    %rax,-0x1298(%rbp)
    794c:	48 8d 85 48 eb ff ff 	lea    -0x14b8(%rbp),%rax
    7953:	48 89 85 58 ec ff ff 	mov    %rax,-0x13a8(%rbp)
    795a:	c7 85 ac eb ff ff c5 	movl   $0x3e6784c5,-0x1454(%rbp)
    7961:	84 67 3e 
    7964:	48 8d 85 b0 f3 ff ff 	lea    -0xc50(%rbp),%rax
    796b:	48 8d 15 ae 58 00 00 	lea    0x58ae(%rip),%rdx        # d220 <_IO_stdin_used+0x1220>
    7972:	b9 90 00 00 00       	mov    $0x90,%ecx
    7977:	48 89 c7             	mov    %rax,%rdi
    797a:	48 89 d6             	mov    %rdx,%rsi
    797d:	f3 48 a5             	rep movsq %ds:(%rsi),%es:(%rdi)
    7980:	0f b7 85 48 eb ff ff 	movzwl -0x14b8(%rbp),%eax
    7987:	83 e8 01             	sub    $0x1,%eax
    798a:	66 89 85 48 eb ff ff 	mov    %ax,-0x14b8(%rbp)
    7991:	48 c7 85 48 ec ff ff 	movq   $0x0,-0x13b8(%rbp)
    7998:	00 00 00 00 
    799c:	e9 9d 0e 00 00       	jmpq   883e <func_44+0x2651>
    79a1:	c7 85 e4 eb ff ff f6 	movl   $0xfffffff6,-0x141c(%rbp)
    79a8:	ff ff ff 
    79ab:	c7 85 68 eb ff ff 00 	movl   $0x0,-0x1498(%rbp)
    79b2:	00 00 00 
    79b5:	eb 14                	jmp    79cb <func_44+0x17de>
    79b7:	8b 85 68 eb ff ff    	mov    -0x1498(%rbp),%eax
    79bd:	48 98                	cltq   
    79bf:	c6 44 05 b8 ff       	movb   $0xff,-0x48(%rbp,%rax,1)
    79c4:	83 85 68 eb ff ff 01 	addl   $0x1,-0x1498(%rbp)
    79cb:	83 bd 68 eb ff ff 05 	cmpl   $0x5,-0x1498(%rbp)
    79d2:	7e e3                	jle    79b7 <func_44+0x17ca>
    79d4:	48 8b 05 5d a1 00 00 	mov    0xa15d(%rip),%rax        # 11b38 <g_56>
    79db:	48 8b 00             	mov    (%rax),%rax
    79de:	8b 10                	mov    (%rax),%edx
    79e0:	48 8b 85 50 ed ff ff 	mov    -0x12b0(%rbp),%rax
    79e7:	8b 00                	mov    (%rax),%eax
    79e9:	09 c2                	or     %eax,%edx
    79eb:	48 8b 85 50 ed ff ff 	mov    -0x12b0(%rbp),%rax
    79f2:	89 10                	mov    %edx,(%rax)
    79f4:	c7 85 60 eb ff ff 00 	movl   $0x0,-0x14a0(%rbp)
    79fb:	00 00 00 
    79fe:	e9 25 0d 00 00       	jmpq   8728 <func_44+0x253b>
    7a03:	48 8d 85 48 ec ff ff 	lea    -0x13b8(%rbp),%rax
    7a0a:	48 89 85 30 f8 ff ff 	mov    %rax,-0x7d0(%rbp)
    7a11:	48 8d 85 48 ec ff ff 	lea    -0x13b8(%rbp),%rax
    7a18:	48 89 85 38 f8 ff ff 	mov    %rax,-0x7c8(%rbp)
    7a1f:	48 8d 85 48 ec ff ff 	lea    -0x13b8(%rbp),%rax
    7a26:	48 89 85 40 f8 ff ff 	mov    %rax,-0x7c0(%rbp)
    7a2d:	48 8d 85 48 ec ff ff 	lea    -0x13b8(%rbp),%rax
    7a34:	48 89 85 48 f8 ff ff 	mov    %rax,-0x7b8(%rbp)
    7a3b:	48 c7 85 50 f8 ff ff 	movq   $0x0,-0x7b0(%rbp)
    7a42:	00 00 00 00 
    7a46:	48 8d 85 48 ec ff ff 	lea    -0x13b8(%rbp),%rax
    7a4d:	48 89 85 58 f8 ff ff 	mov    %rax,-0x7a8(%rbp)
    7a54:	48 8d 85 48 ec ff ff 	lea    -0x13b8(%rbp),%rax
    7a5b:	48 89 85 60 f8 ff ff 	mov    %rax,-0x7a0(%rbp)
    7a62:	48 8d 85 48 ec ff ff 	lea    -0x13b8(%rbp),%rax
    7a69:	48 89 85 68 f8 ff ff 	mov    %rax,-0x798(%rbp)
    7a70:	48 8d 85 48 ec ff ff 	lea    -0x13b8(%rbp),%rax
    7a77:	48 89 85 70 f8 ff ff 	mov    %rax,-0x790(%rbp)
    7a7e:	48 8d 85 48 ec ff ff 	lea    -0x13b8(%rbp),%rax
    7a85:	48 89 85 78 f8 ff ff 	mov    %rax,-0x788(%rbp)
    7a8c:	48 8d 85 48 ec ff ff 	lea    -0x13b8(%rbp),%rax
    7a93:	48 89 85 80 f8 ff ff 	mov    %rax,-0x780(%rbp)
    7a9a:	48 8d 85 48 ec ff ff 	lea    -0x13b8(%rbp),%rax
    7aa1:	48 89 85 88 f8 ff ff 	mov    %rax,-0x778(%rbp)
    7aa8:	48 8d 85 48 ec ff ff 	lea    -0x13b8(%rbp),%rax
    7aaf:	48 89 85 90 f8 ff ff 	mov    %rax,-0x770(%rbp)
    7ab6:	48 c7 85 98 f8 ff ff 	movq   $0x0,-0x768(%rbp)
    7abd:	00 00 00 00 
    7ac1:	48 c7 85 a0 f8 ff ff 	movq   $0x0,-0x760(%rbp)
    7ac8:	00 00 00 00 
    7acc:	48 8d 85 48 ec ff ff 	lea    -0x13b8(%rbp),%rax
    7ad3:	48 89 85 a8 f8 ff ff 	mov    %rax,-0x758(%rbp)
    7ada:	48 8d 85 48 ec ff ff 	lea    -0x13b8(%rbp),%rax
    7ae1:	48 89 85 b0 f8 ff ff 	mov    %rax,-0x750(%rbp)
    7ae8:	48 8d 85 48 ec ff ff 	lea    -0x13b8(%rbp),%rax
    7aef:	48 89 85 b8 f8 ff ff 	mov    %rax,-0x748(%rbp)
    7af6:	48 8d 85 48 ec ff ff 	lea    -0x13b8(%rbp),%rax
    7afd:	48 89 85 c0 f8 ff ff 	mov    %rax,-0x740(%rbp)
    7b04:	48 8d 85 48 ec ff ff 	lea    -0x13b8(%rbp),%rax
    7b0b:	48 89 85 c8 f8 ff ff 	mov    %rax,-0x738(%rbp)
    7b12:	48 8d 85 48 ec ff ff 	lea    -0x13b8(%rbp),%rax
    7b19:	48 89 85 d0 f8 ff ff 	mov    %rax,-0x730(%rbp)
    7b20:	48 8d 85 48 ec ff ff 	lea    -0x13b8(%rbp),%rax
    7b27:	48 89 85 d8 f8 ff ff 	mov    %rax,-0x728(%rbp)
    7b2e:	48 c7 85 e0 f8 ff ff 	movq   $0x0,-0x720(%rbp)
    7b35:	00 00 00 00 
    7b39:	48 8d 85 48 ec ff ff 	lea    -0x13b8(%rbp),%rax
    7b40:	48 89 85 e8 f8 ff ff 	mov    %rax,-0x718(%rbp)
    7b47:	48 8d 85 48 ec ff ff 	lea    -0x13b8(%rbp),%rax
    7b4e:	48 89 85 f0 f8 ff ff 	mov    %rax,-0x710(%rbp)
    7b55:	48 8d 85 48 ec ff ff 	lea    -0x13b8(%rbp),%rax
    7b5c:	48 89 85 f8 f8 ff ff 	mov    %rax,-0x708(%rbp)
    7b63:	48 8d 85 48 ec ff ff 	lea    -0x13b8(%rbp),%rax
    7b6a:	48 89 85 00 f9 ff ff 	mov    %rax,-0x700(%rbp)
    7b71:	48 8d 85 48 ec ff ff 	lea    -0x13b8(%rbp),%rax
    7b78:	48 89 85 08 f9 ff ff 	mov    %rax,-0x6f8(%rbp)
    7b7f:	48 c7 85 10 f9 ff ff 	movq   $0x0,-0x6f0(%rbp)
    7b86:	00 00 00 00 
    7b8a:	48 c7 85 18 f9 ff ff 	movq   $0x0,-0x6e8(%rbp)
    7b91:	00 00 00 00 
    7b95:	48 8d 85 48 ec ff ff 	lea    -0x13b8(%rbp),%rax
    7b9c:	48 89 85 20 f9 ff ff 	mov    %rax,-0x6e0(%rbp)
    7ba3:	48 8d 85 48 ec ff ff 	lea    -0x13b8(%rbp),%rax
    7baa:	48 89 85 28 f9 ff ff 	mov    %rax,-0x6d8(%rbp)
    7bb1:	48 8d 85 48 ec ff ff 	lea    -0x13b8(%rbp),%rax
    7bb8:	48 89 85 30 f9 ff ff 	mov    %rax,-0x6d0(%rbp)
    7bbf:	48 8d 85 48 ec ff ff 	lea    -0x13b8(%rbp),%rax
    7bc6:	48 89 85 38 f9 ff ff 	mov    %rax,-0x6c8(%rbp)
    7bcd:	48 8d 85 48 ec ff ff 	lea    -0x13b8(%rbp),%rax
    7bd4:	48 89 85 40 f9 ff ff 	mov    %rax,-0x6c0(%rbp)
    7bdb:	48 8d 85 48 ec ff ff 	lea    -0x13b8(%rbp),%rax
    7be2:	48 89 85 48 f9 ff ff 	mov    %rax,-0x6b8(%rbp)
    7be9:	48 c7 85 50 f9 ff ff 	movq   $0x0,-0x6b0(%rbp)
    7bf0:	00 00 00 00 
    7bf4:	48 c7 85 58 f9 ff ff 	movq   $0x0,-0x6a8(%rbp)
    7bfb:	00 00 00 00 
    7bff:	48 8d 85 48 ec ff ff 	lea    -0x13b8(%rbp),%rax
    7c06:	48 89 85 60 f9 ff ff 	mov    %rax,-0x6a0(%rbp)
    7c0d:	48 8d 85 48 ec ff ff 	lea    -0x13b8(%rbp),%rax
    7c14:	48 89 85 68 f9 ff ff 	mov    %rax,-0x698(%rbp)
    7c1b:	48 8d 85 48 ec ff ff 	lea    -0x13b8(%rbp),%rax
    7c22:	48 89 85 70 f9 ff ff 	mov    %rax,-0x690(%rbp)
    7c29:	48 8d 85 48 ec ff ff 	lea    -0x13b8(%rbp),%rax
    7c30:	48 89 85 78 f9 ff ff 	mov    %rax,-0x688(%rbp)
    7c37:	48 8d 85 48 ec ff ff 	lea    -0x13b8(%rbp),%rax
    7c3e:	48 89 85 80 f9 ff ff 	mov    %rax,-0x680(%rbp)
    7c45:	48 8d 85 48 ec ff ff 	lea    -0x13b8(%rbp),%rax
    7c4c:	48 89 85 88 f9 ff ff 	mov    %rax,-0x678(%rbp)
    7c53:	48 c7 85 90 f9 ff ff 	movq   $0x0,-0x670(%rbp)
    7c5a:	00 00 00 00 
    7c5e:	48 8d 85 48 ec ff ff 	lea    -0x13b8(%rbp),%rax
    7c65:	48 89 85 98 f9 ff ff 	mov    %rax,-0x668(%rbp)
    7c6c:	48 c7 85 a0 f9 ff ff 	movq   $0x0,-0x660(%rbp)
    7c73:	00 00 00 00 
    7c77:	48 8d 85 48 ec ff ff 	lea    -0x13b8(%rbp),%rax
    7c7e:	48 89 85 a8 f9 ff ff 	mov    %rax,-0x658(%rbp)
    7c85:	48 8d 85 48 ec ff ff 	lea    -0x13b8(%rbp),%rax
    7c8c:	48 89 85 b0 f9 ff ff 	mov    %rax,-0x650(%rbp)
    7c93:	48 8d 85 48 ec ff ff 	lea    -0x13b8(%rbp),%rax
    7c9a:	48 89 85 b8 f9 ff ff 	mov    %rax,-0x648(%rbp)
    7ca1:	48 c7 85 c0 f9 ff ff 	movq   $0x0,-0x640(%rbp)
    7ca8:	00 00 00 00 
    7cac:	48 8d 85 48 ec ff ff 	lea    -0x13b8(%rbp),%rax
    7cb3:	48 89 85 c8 f9 ff ff 	mov    %rax,-0x638(%rbp)
    7cba:	48 c7 85 d0 f9 ff ff 	movq   $0x0,-0x630(%rbp)
    7cc1:	00 00 00 00 
    7cc5:	48 8d 85 48 ec ff ff 	lea    -0x13b8(%rbp),%rax
    7ccc:	48 89 85 d8 f9 ff ff 	mov    %rax,-0x628(%rbp)
    7cd3:	48 8d 85 48 ec ff ff 	lea    -0x13b8(%rbp),%rax
    7cda:	48 89 85 e0 f9 ff ff 	mov    %rax,-0x620(%rbp)
    7ce1:	48 8d 85 48 ec ff ff 	lea    -0x13b8(%rbp),%rax
    7ce8:	48 89 85 e8 f9 ff ff 	mov    %rax,-0x618(%rbp)
    7cef:	48 8d 85 48 ec ff ff 	lea    -0x13b8(%rbp),%rax
    7cf6:	48 89 85 f0 f9 ff ff 	mov    %rax,-0x610(%rbp)
    7cfd:	48 8d 85 48 ec ff ff 	lea    -0x13b8(%rbp),%rax
    7d04:	48 89 85 f8 f9 ff ff 	mov    %rax,-0x608(%rbp)
    7d0b:	48 8d 85 48 ec ff ff 	lea    -0x13b8(%rbp),%rax
    7d12:	48 89 85 00 fa ff ff 	mov    %rax,-0x600(%rbp)
    7d19:	48 8d 85 48 ec ff ff 	lea    -0x13b8(%rbp),%rax
    7d20:	48 89 85 08 fa ff ff 	mov    %rax,-0x5f8(%rbp)
    7d27:	48 8d 85 48 ec ff ff 	lea    -0x13b8(%rbp),%rax
    7d2e:	48 89 85 10 fa ff ff 	mov    %rax,-0x5f0(%rbp)
    7d35:	48 8d 85 48 ec ff ff 	lea    -0x13b8(%rbp),%rax
    7d3c:	48 89 85 18 fa ff ff 	mov    %rax,-0x5e8(%rbp)
    7d43:	48 8d 85 48 ec ff ff 	lea    -0x13b8(%rbp),%rax
    7d4a:	48 89 85 20 fa ff ff 	mov    %rax,-0x5e0(%rbp)
    7d51:	48 8d 85 48 ec ff ff 	lea    -0x13b8(%rbp),%rax
    7d58:	48 89 85 28 fa ff ff 	mov    %rax,-0x5d8(%rbp)
    7d5f:	48 c7 85 30 fa ff ff 	movq   $0x0,-0x5d0(%rbp)
    7d66:	00 00 00 00 
    7d6a:	48 c7 85 38 fa ff ff 	movq   $0x0,-0x5c8(%rbp)
    7d71:	00 00 00 00 
    7d75:	48 8d 85 48 ec ff ff 	lea    -0x13b8(%rbp),%rax
    7d7c:	48 89 85 40 fa ff ff 	mov    %rax,-0x5c0(%rbp)
    7d83:	48 8d 85 48 ec ff ff 	lea    -0x13b8(%rbp),%rax
    7d8a:	48 89 85 48 fa ff ff 	mov    %rax,-0x5b8(%rbp)
    7d91:	48 8d 85 48 ec ff ff 	lea    -0x13b8(%rbp),%rax
    7d98:	48 89 85 50 fa ff ff 	mov    %rax,-0x5b0(%rbp)
    7d9f:	48 8d 85 48 ec ff ff 	lea    -0x13b8(%rbp),%rax
    7da6:	48 89 85 58 fa ff ff 	mov    %rax,-0x5a8(%rbp)
    7dad:	48 c7 85 60 fa ff ff 	movq   $0x0,-0x5a0(%rbp)
    7db4:	00 00 00 00 
    7db8:	48 8d 85 48 ec ff ff 	lea    -0x13b8(%rbp),%rax
    7dbf:	48 89 85 68 fa ff ff 	mov    %rax,-0x598(%rbp)
    7dc6:	48 8d 85 48 ec ff ff 	lea    -0x13b8(%rbp),%rax
    7dcd:	48 89 85 70 fa ff ff 	mov    %rax,-0x590(%rbp)
    7dd4:	48 8d 85 48 ec ff ff 	lea    -0x13b8(%rbp),%rax
    7ddb:	48 89 85 78 fa ff ff 	mov    %rax,-0x588(%rbp)
    7de2:	48 8d 85 48 ec ff ff 	lea    -0x13b8(%rbp),%rax
    7de9:	48 89 85 80 fa ff ff 	mov    %rax,-0x580(%rbp)
    7df0:	48 8d 85 48 ec ff ff 	lea    -0x13b8(%rbp),%rax
    7df7:	48 89 85 88 fa ff ff 	mov    %rax,-0x578(%rbp)
    7dfe:	48 8d 85 48 ec ff ff 	lea    -0x13b8(%rbp),%rax
    7e05:	48 89 85 90 fa ff ff 	mov    %rax,-0x570(%rbp)
    7e0c:	48 8d 85 48 ec ff ff 	lea    -0x13b8(%rbp),%rax
    7e13:	48 89 85 98 fa ff ff 	mov    %rax,-0x568(%rbp)
    7e1a:	48 8d 85 48 ec ff ff 	lea    -0x13b8(%rbp),%rax
    7e21:	48 89 85 a0 fa ff ff 	mov    %rax,-0x560(%rbp)
    7e28:	48 c7 85 a8 fa ff ff 	movq   $0x0,-0x558(%rbp)
    7e2f:	00 00 00 00 
    7e33:	48 c7 85 b0 fa ff ff 	movq   $0x0,-0x550(%rbp)
    7e3a:	00 00 00 00 
    7e3e:	48 8d 85 48 ec ff ff 	lea    -0x13b8(%rbp),%rax
    7e45:	48 89 85 b8 fa ff ff 	mov    %rax,-0x548(%rbp)
    7e4c:	48 8d 85 48 ec ff ff 	lea    -0x13b8(%rbp),%rax
    7e53:	48 89 85 c0 fa ff ff 	mov    %rax,-0x540(%rbp)
    7e5a:	48 8d 85 48 ec ff ff 	lea    -0x13b8(%rbp),%rax
    7e61:	48 89 85 c8 fa ff ff 	mov    %rax,-0x538(%rbp)
    7e68:	48 8d 85 48 ec ff ff 	lea    -0x13b8(%rbp),%rax
    7e6f:	48 89 85 d0 fa ff ff 	mov    %rax,-0x530(%rbp)
    7e76:	48 8d 85 48 ec ff ff 	lea    -0x13b8(%rbp),%rax
    7e7d:	48 89 85 d8 fa ff ff 	mov    %rax,-0x528(%rbp)
    7e84:	48 8d 85 48 ec ff ff 	lea    -0x13b8(%rbp),%rax
    7e8b:	48 89 85 e0 fa ff ff 	mov    %rax,-0x520(%rbp)
    7e92:	48 8d 85 48 ec ff ff 	lea    -0x13b8(%rbp),%rax
    7e99:	48 89 85 e8 fa ff ff 	mov    %rax,-0x518(%rbp)
    7ea0:	48 c7 85 f0 fa ff ff 	movq   $0x0,-0x510(%rbp)
    7ea7:	00 00 00 00 
    7eab:	48 8d 85 48 ec ff ff 	lea    -0x13b8(%rbp),%rax
    7eb2:	48 89 85 f8 fa ff ff 	mov    %rax,-0x508(%rbp)
    7eb9:	48 8d 85 48 ec ff ff 	lea    -0x13b8(%rbp),%rax
    7ec0:	48 89 85 00 fb ff ff 	mov    %rax,-0x500(%rbp)
    7ec7:	48 8d 85 48 ec ff ff 	lea    -0x13b8(%rbp),%rax
    7ece:	48 89 85 08 fb ff ff 	mov    %rax,-0x4f8(%rbp)
    7ed5:	48 8d 85 48 ec ff ff 	lea    -0x13b8(%rbp),%rax
    7edc:	48 89 85 10 fb ff ff 	mov    %rax,-0x4f0(%rbp)
    7ee3:	48 8d 85 48 ec ff ff 	lea    -0x13b8(%rbp),%rax
    7eea:	48 89 85 18 fb ff ff 	mov    %rax,-0x4e8(%rbp)
    7ef1:	48 c7 85 20 fb ff ff 	movq   $0x0,-0x4e0(%rbp)
    7ef8:	00 00 00 00 
    7efc:	48 c7 85 28 fb ff ff 	movq   $0x0,-0x4d8(%rbp)
    7f03:	00 00 00 00 
    7f07:	48 8d 85 48 ec ff ff 	lea    -0x13b8(%rbp),%rax
    7f0e:	48 89 85 30 fb ff ff 	mov    %rax,-0x4d0(%rbp)
    7f15:	48 8d 85 48 ec ff ff 	lea    -0x13b8(%rbp),%rax
    7f1c:	48 89 85 38 fb ff ff 	mov    %rax,-0x4c8(%rbp)
    7f23:	48 8d 85 48 ec ff ff 	lea    -0x13b8(%rbp),%rax
    7f2a:	48 89 85 40 fb ff ff 	mov    %rax,-0x4c0(%rbp)
    7f31:	48 8d 85 48 ec ff ff 	lea    -0x13b8(%rbp),%rax
    7f38:	48 89 85 48 fb ff ff 	mov    %rax,-0x4b8(%rbp)
    7f3f:	48 8d 85 48 ec ff ff 	lea    -0x13b8(%rbp),%rax
    7f46:	48 89 85 50 fb ff ff 	mov    %rax,-0x4b0(%rbp)
    7f4d:	48 8d 85 48 ec ff ff 	lea    -0x13b8(%rbp),%rax
    7f54:	48 89 85 58 fb ff ff 	mov    %rax,-0x4a8(%rbp)
    7f5b:	48 c7 85 60 fb ff ff 	movq   $0x0,-0x4a0(%rbp)
    7f62:	00 00 00 00 
    7f66:	48 c7 85 68 fb ff ff 	movq   $0x0,-0x498(%rbp)
    7f6d:	00 00 00 00 
    7f71:	48 8d 85 48 ec ff ff 	lea    -0x13b8(%rbp),%rax
    7f78:	48 89 85 70 fb ff ff 	mov    %rax,-0x490(%rbp)
    7f7f:	48 8d 85 48 ec ff ff 	lea    -0x13b8(%rbp),%rax
    7f86:	48 89 85 78 fb ff ff 	mov    %rax,-0x488(%rbp)
    7f8d:	48 8d 85 48 ec ff ff 	lea    -0x13b8(%rbp),%rax
    7f94:	48 89 85 80 fb ff ff 	mov    %rax,-0x480(%rbp)
    7f9b:	48 8d 85 48 ec ff ff 	lea    -0x13b8(%rbp),%rax
    7fa2:	48 89 85 88 fb ff ff 	mov    %rax,-0x478(%rbp)
    7fa9:	48 8d 85 48 ec ff ff 	lea    -0x13b8(%rbp),%rax
    7fb0:	48 89 85 90 fb ff ff 	mov    %rax,-0x470(%rbp)
    7fb7:	48 8d 85 48 ec ff ff 	lea    -0x13b8(%rbp),%rax
    7fbe:	48 89 85 98 fb ff ff 	mov    %rax,-0x468(%rbp)
    7fc5:	48 c7 85 a0 fb ff ff 	movq   $0x0,-0x460(%rbp)
    7fcc:	00 00 00 00 
    7fd0:	48 8d 85 48 ec ff ff 	lea    -0x13b8(%rbp),%rax
    7fd7:	48 89 85 a8 fb ff ff 	mov    %rax,-0x458(%rbp)
    7fde:	48 c7 85 b0 fb ff ff 	movq   $0x0,-0x450(%rbp)
    7fe5:	00 00 00 00 
    7fe9:	48 8d 85 48 ec ff ff 	lea    -0x13b8(%rbp),%rax
    7ff0:	48 89 85 b8 fb ff ff 	mov    %rax,-0x448(%rbp)
    7ff7:	48 8d 85 48 ec ff ff 	lea    -0x13b8(%rbp),%rax
    7ffe:	48 89 85 c0 fb ff ff 	mov    %rax,-0x440(%rbp)
    8005:	48 8d 85 48 ec ff ff 	lea    -0x13b8(%rbp),%rax
    800c:	48 89 85 c8 fb ff ff 	mov    %rax,-0x438(%rbp)
    8013:	48 c7 85 d0 fb ff ff 	movq   $0x0,-0x430(%rbp)
    801a:	00 00 00 00 
    801e:	48 8d 85 48 ec ff ff 	lea    -0x13b8(%rbp),%rax
    8025:	48 89 85 d8 fb ff ff 	mov    %rax,-0x428(%rbp)
    802c:	48 c7 85 e0 fb ff ff 	movq   $0x0,-0x420(%rbp)
    8033:	00 00 00 00 
    8037:	48 8d 85 48 ec ff ff 	lea    -0x13b8(%rbp),%rax
    803e:	48 89 85 e8 fb ff ff 	mov    %rax,-0x418(%rbp)
    8045:	48 8d 85 48 ec ff ff 	lea    -0x13b8(%rbp),%rax
    804c:	48 89 85 f0 fb ff ff 	mov    %rax,-0x410(%rbp)
    8053:	48 8d 85 48 ec ff ff 	lea    -0x13b8(%rbp),%rax
    805a:	48 89 85 f8 fb ff ff 	mov    %rax,-0x408(%rbp)
    8061:	48 8d 85 48 ec ff ff 	lea    -0x13b8(%rbp),%rax
    8068:	48 89 85 00 fc ff ff 	mov    %rax,-0x400(%rbp)
    806f:	48 8d 85 48 ec ff ff 	lea    -0x13b8(%rbp),%rax
    8076:	48 89 85 08 fc ff ff 	mov    %rax,-0x3f8(%rbp)
    807d:	48 8d 85 48 ec ff ff 	lea    -0x13b8(%rbp),%rax
    8084:	48 89 85 10 fc ff ff 	mov    %rax,-0x3f0(%rbp)
    808b:	48 8d 85 48 ec ff ff 	lea    -0x13b8(%rbp),%rax
    8092:	48 89 85 18 fc ff ff 	mov    %rax,-0x3e8(%rbp)
    8099:	48 8d 85 48 ec ff ff 	lea    -0x13b8(%rbp),%rax
    80a0:	48 89 85 20 fc ff ff 	mov    %rax,-0x3e0(%rbp)
    80a7:	48 8d 85 48 ec ff ff 	lea    -0x13b8(%rbp),%rax
    80ae:	48 89 85 28 fc ff ff 	mov    %rax,-0x3d8(%rbp)
    80b5:	48 8d 85 48 ec ff ff 	lea    -0x13b8(%rbp),%rax
    80bc:	48 89 85 30 fc ff ff 	mov    %rax,-0x3d0(%rbp)
    80c3:	48 8d 85 48 ec ff ff 	lea    -0x13b8(%rbp),%rax
    80ca:	48 89 85 38 fc ff ff 	mov    %rax,-0x3c8(%rbp)
    80d1:	48 c7 85 40 fc ff ff 	movq   $0x0,-0x3c0(%rbp)
    80d8:	00 00 00 00 
    80dc:	48 c7 85 48 fc ff ff 	movq   $0x0,-0x3b8(%rbp)
    80e3:	00 00 00 00 
    80e7:	48 8d 85 48 ec ff ff 	lea    -0x13b8(%rbp),%rax
    80ee:	48 89 85 50 fc ff ff 	mov    %rax,-0x3b0(%rbp)
    80f5:	48 8d 85 48 ec ff ff 	lea    -0x13b8(%rbp),%rax
    80fc:	48 89 85 58 fc ff ff 	mov    %rax,-0x3a8(%rbp)
    8103:	48 8d 85 48 ec ff ff 	lea    -0x13b8(%rbp),%rax
    810a:	48 89 85 60 fc ff ff 	mov    %rax,-0x3a0(%rbp)
    8111:	48 8d 85 48 ec ff ff 	lea    -0x13b8(%rbp),%rax
    8118:	48 89 85 68 fc ff ff 	mov    %rax,-0x398(%rbp)
    811f:	48 c7 85 70 fc ff ff 	movq   $0x0,-0x390(%rbp)
    8126:	00 00 00 00 
    812a:	48 8d 85 48 ec ff ff 	lea    -0x13b8(%rbp),%rax
    8131:	48 89 85 78 fc ff ff 	mov    %rax,-0x388(%rbp)
    8138:	48 8d 85 48 ec ff ff 	lea    -0x13b8(%rbp),%rax
    813f:	48 89 85 80 fc ff ff 	mov    %rax,-0x380(%rbp)
    8146:	48 8d 85 48 ec ff ff 	lea    -0x13b8(%rbp),%rax
    814d:	48 89 85 88 fc ff ff 	mov    %rax,-0x378(%rbp)
    8154:	48 8d 85 48 ec ff ff 	lea    -0x13b8(%rbp),%rax
    815b:	48 89 85 90 fc ff ff 	mov    %rax,-0x370(%rbp)
    8162:	48 8d 85 48 ec ff ff 	lea    -0x13b8(%rbp),%rax
    8169:	48 89 85 98 fc ff ff 	mov    %rax,-0x368(%rbp)
    8170:	48 8d 85 48 ec ff ff 	lea    -0x13b8(%rbp),%rax
    8177:	48 89 85 a0 fc ff ff 	mov    %rax,-0x360(%rbp)
    817e:	48 8d 85 48 ec ff ff 	lea    -0x13b8(%rbp),%rax
    8185:	48 89 85 a8 fc ff ff 	mov    %rax,-0x358(%rbp)
    818c:	48 8d 85 48 ec ff ff 	lea    -0x13b8(%rbp),%rax
    8193:	48 89 85 b0 fc ff ff 	mov    %rax,-0x350(%rbp)
    819a:	48 c7 85 b8 fc ff ff 	movq   $0x0,-0x348(%rbp)
    81a1:	00 00 00 00 
    81a5:	48 c7 85 c0 fc ff ff 	movq   $0x0,-0x340(%rbp)
    81ac:	00 00 00 00 
    81b0:	48 c7 85 c8 fc ff ff 	movq   $0x0,-0x338(%rbp)
    81b7:	00 00 00 00 
    81bb:	48 8d 85 48 ec ff ff 	lea    -0x13b8(%rbp),%rax
    81c2:	48 89 85 d0 fc ff ff 	mov    %rax,-0x330(%rbp)
    81c9:	48 8d 85 48 ec ff ff 	lea    -0x13b8(%rbp),%rax
    81d0:	48 89 85 d8 fc ff ff 	mov    %rax,-0x328(%rbp)
    81d7:	48 8d 85 48 ec ff ff 	lea    -0x13b8(%rbp),%rax
    81de:	48 89 85 e0 fc ff ff 	mov    %rax,-0x320(%rbp)
    81e5:	48 8d 85 48 ec ff ff 	lea    -0x13b8(%rbp),%rax
    81ec:	48 89 85 e8 fc ff ff 	mov    %rax,-0x318(%rbp)
    81f3:	48 c7 85 f0 fc ff ff 	movq   $0x0,-0x310(%rbp)
    81fa:	00 00 00 00 
    81fe:	48 8d 85 48 ec ff ff 	lea    -0x13b8(%rbp),%rax
    8205:	48 89 85 f8 fc ff ff 	mov    %rax,-0x308(%rbp)
    820c:	48 8d 85 48 ec ff ff 	lea    -0x13b8(%rbp),%rax
    8213:	48 89 85 00 fd ff ff 	mov    %rax,-0x300(%rbp)
    821a:	48 8d 85 48 ec ff ff 	lea    -0x13b8(%rbp),%rax
    8221:	48 89 85 08 fd ff ff 	mov    %rax,-0x2f8(%rbp)
    8228:	48 8d 85 48 ec ff ff 	lea    -0x13b8(%rbp),%rax
    822f:	48 89 85 10 fd ff ff 	mov    %rax,-0x2f0(%rbp)
    8236:	48 8d 85 48 ec ff ff 	lea    -0x13b8(%rbp),%rax
    823d:	48 89 85 18 fd ff ff 	mov    %rax,-0x2e8(%rbp)
    8244:	48 8d 85 48 ec ff ff 	lea    -0x13b8(%rbp),%rax
    824b:	48 89 85 20 fd ff ff 	mov    %rax,-0x2e0(%rbp)
    8252:	48 8d 85 48 ec ff ff 	lea    -0x13b8(%rbp),%rax
    8259:	48 89 85 28 fd ff ff 	mov    %rax,-0x2d8(%rbp)
    8260:	48 8d 85 48 ec ff ff 	lea    -0x13b8(%rbp),%rax
    8267:	48 89 85 30 fd ff ff 	mov    %rax,-0x2d0(%rbp)
    826e:	48 8d 85 48 ec ff ff 	lea    -0x13b8(%rbp),%rax
    8275:	48 89 85 38 fd ff ff 	mov    %rax,-0x2c8(%rbp)
    827c:	48 8d 85 48 ec ff ff 	lea    -0x13b8(%rbp),%rax
    8283:	48 89 85 40 fd ff ff 	mov    %rax,-0x2c0(%rbp)
    828a:	48 8d 85 48 ec ff ff 	lea    -0x13b8(%rbp),%rax
    8291:	48 89 85 48 fd ff ff 	mov    %rax,-0x2b8(%rbp)
    8298:	48 8d 85 48 ec ff ff 	lea    -0x13b8(%rbp),%rax
    829f:	48 89 85 50 fd ff ff 	mov    %rax,-0x2b0(%rbp)
    82a6:	48 8d 85 48 ec ff ff 	lea    -0x13b8(%rbp),%rax
    82ad:	48 89 85 58 fd ff ff 	mov    %rax,-0x2a8(%rbp)
    82b4:	48 8d 85 48 ec ff ff 	lea    -0x13b8(%rbp),%rax
    82bb:	48 89 85 60 fd ff ff 	mov    %rax,-0x2a0(%rbp)
    82c2:	48 8d 85 48 ec ff ff 	lea    -0x13b8(%rbp),%rax
    82c9:	48 89 85 68 fd ff ff 	mov    %rax,-0x298(%rbp)
    82d0:	48 8d 85 48 ec ff ff 	lea    -0x13b8(%rbp),%rax
    82d7:	48 89 85 70 fd ff ff 	mov    %rax,-0x290(%rbp)
    82de:	48 8d 85 48 ec ff ff 	lea    -0x13b8(%rbp),%rax
    82e5:	48 89 85 78 fd ff ff 	mov    %rax,-0x288(%rbp)
    82ec:	48 8d 85 48 ec ff ff 	lea    -0x13b8(%rbp),%rax
    82f3:	48 89 85 80 fd ff ff 	mov    %rax,-0x280(%rbp)
    82fa:	48 8d 85 48 ec ff ff 	lea    -0x13b8(%rbp),%rax
    8301:	48 89 85 88 fd ff ff 	mov    %rax,-0x278(%rbp)
    8308:	48 8d 85 48 ec ff ff 	lea    -0x13b8(%rbp),%rax
    830f:	48 89 85 90 fd ff ff 	mov    %rax,-0x270(%rbp)
    8316:	48 8d 85 48 ec ff ff 	lea    -0x13b8(%rbp),%rax
    831d:	48 89 85 98 fd ff ff 	mov    %rax,-0x268(%rbp)
    8324:	48 8d 85 48 ec ff ff 	lea    -0x13b8(%rbp),%rax
    832b:	48 89 85 a0 fd ff ff 	mov    %rax,-0x260(%rbp)
    8332:	48 8d 85 48 ec ff ff 	lea    -0x13b8(%rbp),%rax
    8339:	48 89 85 a8 fd ff ff 	mov    %rax,-0x258(%rbp)
    8340:	48 8d 85 48 ec ff ff 	lea    -0x13b8(%rbp),%rax
    8347:	48 89 85 b0 fd ff ff 	mov    %rax,-0x250(%rbp)
    834e:	48 8d 85 48 ec ff ff 	lea    -0x13b8(%rbp),%rax
    8355:	48 89 85 b8 fd ff ff 	mov    %rax,-0x248(%rbp)
    835c:	48 8d 85 48 ec ff ff 	lea    -0x13b8(%rbp),%rax
    8363:	48 89 85 c0 fd ff ff 	mov    %rax,-0x240(%rbp)
    836a:	48 8d 85 48 ec ff ff 	lea    -0x13b8(%rbp),%rax
    8371:	48 89 85 c8 fd ff ff 	mov    %rax,-0x238(%rbp)
    8378:	48 8d 85 48 ec ff ff 	lea    -0x13b8(%rbp),%rax
    837f:	48 89 85 d0 fd ff ff 	mov    %rax,-0x230(%rbp)
    8386:	48 c7 85 d8 fd ff ff 	movq   $0x0,-0x228(%rbp)
    838d:	00 00 00 00 
    8391:	48 8d 85 48 ec ff ff 	lea    -0x13b8(%rbp),%rax
    8398:	48 89 85 e0 fd ff ff 	mov    %rax,-0x220(%rbp)
    839f:	48 8d 85 48 ec ff ff 	lea    -0x13b8(%rbp),%rax
    83a6:	48 89 85 e8 fd ff ff 	mov    %rax,-0x218(%rbp)
    83ad:	48 8d 85 48 ec ff ff 	lea    -0x13b8(%rbp),%rax
    83b4:	48 89 85 f0 fd ff ff 	mov    %rax,-0x210(%rbp)
    83bb:	48 8d 85 48 ec ff ff 	lea    -0x13b8(%rbp),%rax
    83c2:	48 89 85 f8 fd ff ff 	mov    %rax,-0x208(%rbp)
    83c9:	48 8d 85 48 ec ff ff 	lea    -0x13b8(%rbp),%rax
    83d0:	48 89 85 00 fe ff ff 	mov    %rax,-0x200(%rbp)
    83d7:	48 8d 85 48 ec ff ff 	lea    -0x13b8(%rbp),%rax
    83de:	48 89 85 08 fe ff ff 	mov    %rax,-0x1f8(%rbp)
    83e5:	48 8d 85 48 ec ff ff 	lea    -0x13b8(%rbp),%rax
    83ec:	48 89 85 10 fe ff ff 	mov    %rax,-0x1f0(%rbp)
    83f3:	48 c7 85 18 fe ff ff 	movq   $0x0,-0x1e8(%rbp)
    83fa:	00 00 00 00 
    83fe:	48 8d 85 48 ec ff ff 	lea    -0x13b8(%rbp),%rax
    8405:	48 89 85 20 fe ff ff 	mov    %rax,-0x1e0(%rbp)
    840c:	48 8d 85 48 ec ff ff 	lea    -0x13b8(%rbp),%rax
    8413:	48 89 85 28 fe ff ff 	mov    %rax,-0x1d8(%rbp)
    841a:	48 c7 85 30 fe ff ff 	movq   $0x0,-0x1d0(%rbp)
    8421:	00 00 00 00 
    8425:	48 8d 85 48 ec ff ff 	lea    -0x13b8(%rbp),%rax
    842c:	48 89 85 38 fe ff ff 	mov    %rax,-0x1c8(%rbp)
    8433:	48 8d 85 48 ec ff ff 	lea    -0x13b8(%rbp),%rax
    843a:	48 89 85 40 fe ff ff 	mov    %rax,-0x1c0(%rbp)
    8441:	48 8d 85 48 ec ff ff 	lea    -0x13b8(%rbp),%rax
    8448:	48 89 85 48 fe ff ff 	mov    %rax,-0x1b8(%rbp)
    844f:	48 8d 85 48 ec ff ff 	lea    -0x13b8(%rbp),%rax
    8456:	48 89 85 50 fe ff ff 	mov    %rax,-0x1b0(%rbp)
    845d:	48 8d 85 48 ec ff ff 	lea    -0x13b8(%rbp),%rax
    8464:	48 89 85 58 fe ff ff 	mov    %rax,-0x1a8(%rbp)
    846b:	48 8d 85 48 ec ff ff 	lea    -0x13b8(%rbp),%rax
    8472:	48 89 85 60 fe ff ff 	mov    %rax,-0x1a0(%rbp)
    8479:	48 c7 85 68 fe ff ff 	movq   $0x0,-0x198(%rbp)
    8480:	00 00 00 00 
    8484:	48 8d 85 48 ec ff ff 	lea    -0x13b8(%rbp),%rax
    848b:	48 89 85 70 fe ff ff 	mov    %rax,-0x190(%rbp)
    8492:	48 8d 85 48 ec ff ff 	lea    -0x13b8(%rbp),%rax
    8499:	48 89 85 78 fe ff ff 	mov    %rax,-0x188(%rbp)
    84a0:	48 8d 85 48 ec ff ff 	lea    -0x13b8(%rbp),%rax
    84a7:	48 89 85 80 fe ff ff 	mov    %rax,-0x180(%rbp)
    84ae:	48 8d 85 48 ec ff ff 	lea    -0x13b8(%rbp),%rax
    84b5:	48 89 85 88 fe ff ff 	mov    %rax,-0x178(%rbp)
    84bc:	48 8d 85 48 ec ff ff 	lea    -0x13b8(%rbp),%rax
    84c3:	48 89 85 90 fe ff ff 	mov    %rax,-0x170(%rbp)
    84ca:	48 8d 85 48 ec ff ff 	lea    -0x13b8(%rbp),%rax
    84d1:	48 89 85 98 fe ff ff 	mov    %rax,-0x168(%rbp)
    84d8:	48 c7 85 a0 fe ff ff 	movq   $0x0,-0x160(%rbp)
    84df:	00 00 00 00 
    84e3:	48 8d 85 48 ec ff ff 	lea    -0x13b8(%rbp),%rax
    84ea:	48 89 85 a8 fe ff ff 	mov    %rax,-0x158(%rbp)
    84f1:	48 8d 85 48 ec ff ff 	lea    -0x13b8(%rbp),%rax
    84f8:	48 89 85 b0 fe ff ff 	mov    %rax,-0x150(%rbp)
    84ff:	48 8d 85 48 ec ff ff 	lea    -0x13b8(%rbp),%rax
    8506:	48 89 85 b8 fe ff ff 	mov    %rax,-0x148(%rbp)
    850d:	48 c7 85 c0 fe ff ff 	movq   $0x0,-0x140(%rbp)
    8514:	00 00 00 00 
    8518:	48 8d 85 48 ec ff ff 	lea    -0x13b8(%rbp),%rax
    851f:	48 89 85 c8 fe ff ff 	mov    %rax,-0x138(%rbp)
    8526:	48 8d 85 48 ec ff ff 	lea    -0x13b8(%rbp),%rax
    852d:	48 89 85 d0 fe ff ff 	mov    %rax,-0x130(%rbp)
    8534:	48 c7 85 d8 fe ff ff 	movq   $0x0,-0x128(%rbp)
    853b:	00 00 00 00 
    853f:	48 8d 85 48 ec ff ff 	lea    -0x13b8(%rbp),%rax
    8546:	48 89 85 e0 fe ff ff 	mov    %rax,-0x120(%rbp)
    854d:	48 8d 85 48 ec ff ff 	lea    -0x13b8(%rbp),%rax
    8554:	48 89 85 e8 fe ff ff 	mov    %rax,-0x118(%rbp)
    855b:	48 8d 85 48 ec ff ff 	lea    -0x13b8(%rbp),%rax
    8562:	48 89 85 f0 fe ff ff 	mov    %rax,-0x110(%rbp)
    8569:	48 8d 85 48 ec ff ff 	lea    -0x13b8(%rbp),%rax
    8570:	48 89 85 f8 fe ff ff 	mov    %rax,-0x108(%rbp)
    8577:	48 c7 85 00 ff ff ff 	movq   $0x0,-0x100(%rbp)
    857e:	00 00 00 00 
    8582:	48 8d 85 48 ec ff ff 	lea    -0x13b8(%rbp),%rax
    8589:	48 89 85 08 ff ff ff 	mov    %rax,-0xf8(%rbp)
    8590:	48 8d 85 48 ec ff ff 	lea    -0x13b8(%rbp),%rax
    8597:	48 89 85 10 ff ff ff 	mov    %rax,-0xf0(%rbp)
    859e:	48 8d 85 48 ec ff ff 	lea    -0x13b8(%rbp),%rax
    85a5:	48 89 85 18 ff ff ff 	mov    %rax,-0xe8(%rbp)
    85ac:	48 8d 85 48 ec ff ff 	lea    -0x13b8(%rbp),%rax
    85b3:	48 89 85 20 ff ff ff 	mov    %rax,-0xe0(%rbp)
    85ba:	48 8d 85 48 ec ff ff 	lea    -0x13b8(%rbp),%rax
    85c1:	48 89 85 28 ff ff ff 	mov    %rax,-0xd8(%rbp)
    85c8:	48 8d 85 48 ec ff ff 	lea    -0x13b8(%rbp),%rax
    85cf:	48 89 85 30 ff ff ff 	mov    %rax,-0xd0(%rbp)
    85d6:	48 8d 85 48 ec ff ff 	lea    -0x13b8(%rbp),%rax
    85dd:	48 89 85 38 ff ff ff 	mov    %rax,-0xc8(%rbp)
    85e4:	48 8d 85 48 ec ff ff 	lea    -0x13b8(%rbp),%rax
    85eb:	48 89 85 40 ff ff ff 	mov    %rax,-0xc0(%rbp)
    85f2:	48 8d 85 48 ec ff ff 	lea    -0x13b8(%rbp),%rax
    85f9:	48 89 85 48 ff ff ff 	mov    %rax,-0xb8(%rbp)
    8600:	48 8d 85 48 ec ff ff 	lea    -0x13b8(%rbp),%rax
    8607:	48 89 85 50 ff ff ff 	mov    %rax,-0xb0(%rbp)
    860e:	48 8d 85 48 ec ff ff 	lea    -0x13b8(%rbp),%rax
    8615:	48 89 85 58 ff ff ff 	mov    %rax,-0xa8(%rbp)
    861c:	48 8d 85 48 ec ff ff 	lea    -0x13b8(%rbp),%rax
    8623:	48 89 85 60 ff ff ff 	mov    %rax,-0xa0(%rbp)
    862a:	48 8d 85 48 ec ff ff 	lea    -0x13b8(%rbp),%rax
    8631:	48 89 85 68 ff ff ff 	mov    %rax,-0x98(%rbp)
    8638:	48 8d 85 48 ec ff ff 	lea    -0x13b8(%rbp),%rax
    863f:	48 89 85 70 ff ff ff 	mov    %rax,-0x90(%rbp)
    8646:	48 8d 85 48 ec ff ff 	lea    -0x13b8(%rbp),%rax
    864d:	48 89 85 78 ff ff ff 	mov    %rax,-0x88(%rbp)
    8654:	48 8d 85 48 ec ff ff 	lea    -0x13b8(%rbp),%rax
    865b:	48 89 45 80          	mov    %rax,-0x80(%rbp)
    865f:	48 8d 85 48 ec ff ff 	lea    -0x13b8(%rbp),%rax
    8666:	48 89 45 88          	mov    %rax,-0x78(%rbp)
    866a:	48 8d 85 48 ec ff ff 	lea    -0x13b8(%rbp),%rax
    8671:	48 89 45 90          	mov    %rax,-0x70(%rbp)
    8675:	48 8d 85 48 ec ff ff 	lea    -0x13b8(%rbp),%rax
    867c:	48 89 45 98          	mov    %rax,-0x68(%rbp)
    8680:	48 8d 85 48 ec ff ff 	lea    -0x13b8(%rbp),%rax
    8687:	48 89 45 a0          	mov    %rax,-0x60(%rbp)
    868b:	48 8d 85 48 ec ff ff 	lea    -0x13b8(%rbp),%rax
    8692:	48 89 45 a8          	mov    %rax,-0x58(%rbp)
    8696:	48 8b 95 78 fa ff ff 	mov    -0x588(%rbp),%rdx
    869d:	48 8b 05 9c 94 00 00 	mov    0x949c(%rip),%rax        # 11b40 <g_205>
    86a4:	48 39 c2             	cmp    %rax,%rdx
    86a7:	0f 95 c0             	setne  %al
    86aa:	0f b6 d0             	movzbl %al,%edx
    86ad:	0f b7 0d a2 89 00 00 	movzwl 0x89a2(%rip),%ecx        # 11056 <g_69>
    86b4:	48 8b 85 08 ec ff ff 	mov    -0x13f8(%rbp),%rax
    86bb:	48 0f bf c9          	movswq %cx,%rcx
    86bf:	48 89 08             	mov    %rcx,(%rax)
    86c2:	48 8b 00             	mov    (%rax),%rax
    86c5:	48 89 d6             	mov    %rdx,%rsi
    86c8:	48 89 c7             	mov    %rax,%rdi
    86cb:	e8 7b b9 ff ff       	callq  404b <safe_sub_func_uint64_t_u_u>
    86d0:	48 85 c0             	test   %rax,%rax
    86d3:	74 0f                	je     86e4 <func_44+0x24f7>
    86d5:	48 8b 85 28 eb ff ff 	mov    -0x14d8(%rbp),%rax
    86dc:	8b 00                	mov    (%rax),%eax
    86de:	85 c0                	test   %eax,%eax
    86e0:	74 28                	je     870a <func_44+0x251d>
    86e2:	eb 51                	jmp    8735 <func_44+0x2548>
    86e4:	48 8b 05 85 97 00 00 	mov    0x9785(%rip),%rax        # 11e70 <g_213>
    86eb:	48 8b 15 9e 94 00 00 	mov    0x949e(%rip),%rdx        # 11b90 <g_208>
    86f2:	48 89 10             	mov    %rdx,(%rax)
    86f5:	48 8b 05 94 94 00 00 	mov    0x9494(%rip),%rax        # 11b90 <g_208>
    86fc:	48 8b 00             	mov    (%rax),%rax
    86ff:	48 8b 00             	mov    (%rax),%rax
    8702:	0f b7 00             	movzwl (%rax),%eax
    8705:	e9 a2 26 00 00       	jmpq   adac <func_44+0x4bbf>
    870a:	8b 85 60 eb ff ff    	mov    -0x14a0(%rbp),%eax
    8710:	0f b6 c0             	movzbl %al,%eax
    8713:	be 06 00 00 00       	mov    $0x6,%esi
    8718:	89 c7                	mov    %eax,%edi
    871a:	e8 3b b4 ff ff       	callq  3b5a <safe_add_func_uint8_t_u_u>
    871f:	0f b6 c0             	movzbl %al,%eax
    8722:	89 85 60 eb ff ff    	mov    %eax,-0x14a0(%rbp)
    8728:	83 bd 60 eb ff ff 16 	cmpl   $0x16,-0x14a0(%rbp)
    872f:	0f 8f ce f2 ff ff    	jg     7a03 <func_44+0x1816>
    8735:	0f b7 9d 24 eb ff ff 	movzwl -0x14dc(%rbp),%ebx
    873c:	0f b7 85 1c eb ff ff 	movzwl -0x14e4(%rbp),%eax
    8743:	66 85 c0             	test   %ax,%ax
    8746:	74 15                	je     875d <func_44+0x2570>
    8748:	0f b6 55 b9          	movzbl -0x47(%rbp),%edx
    874c:	0f b6 45 bb          	movzbl -0x45(%rbp),%eax
    8750:	09 d0                	or     %edx,%eax
    8752:	84 c0                	test   %al,%al
    8754:	74 07                	je     875d <func_44+0x2570>
    8756:	b8 01 00 00 00       	mov    $0x1,%eax
    875b:	eb 05                	jmp    8762 <func_44+0x2575>
    875d:	b8 00 00 00 00       	mov    $0x0,%eax
    8762:	98                   	cwtl   
    8763:	89 c6                	mov    %eax,%esi
    8765:	bf 41 86 ff ff       	mov    $0xffff8641,%edi
    876a:	e8 86 ac ff ff       	callq  33f5 <safe_mul_func_int16_t_s_s>
    876f:	48 0f bf d0          	movswq %ax,%rdx
    8773:	48 8b 85 48 ec ff ff 	mov    -0x13b8(%rbp),%rax
    877a:	48 31 c2             	xor    %rax,%rdx
    877d:	8b 85 60 eb ff ff    	mov    -0x14a0(%rbp),%eax
    8783:	48 98                	cltq   
    8785:	48 39 c2             	cmp    %rax,%rdx
    8788:	0f 93 c0             	setae  %al
    878b:	0f b6 c0             	movzbl %al,%eax
    878e:	89 c2                	mov    %eax,%edx
    8790:	0f b7 05 c9 88 00 00 	movzwl 0x88c9(%rip),%eax        # 11060 <g_184>
    8797:	31 d0                	xor    %edx,%eax
    8799:	66 89 05 c0 88 00 00 	mov    %ax,0x88c0(%rip)        # 11060 <g_184>
    87a0:	0f b7 05 b9 88 00 00 	movzwl 0x88b9(%rip),%eax        # 11060 <g_184>
    87a7:	0f b7 c0             	movzwl %ax,%eax
    87aa:	89 de                	mov    %ebx,%esi
    87ac:	89 c7                	mov    %eax,%edi
    87ae:	e8 0b b6 ff ff       	callq  3dbe <safe_lshift_func_uint16_t_u_s>
    87b3:	0f b7 d0             	movzwl %ax,%edx
    87b6:	0f b7 85 20 eb ff ff 	movzwl -0x14e0(%rbp),%eax
    87bd:	83 c8 01             	or     $0x1,%eax
    87c0:	88 05 8e 88 00 00    	mov    %al,0x888e(%rip)        # 11054 <g_64>
    87c6:	0f b6 05 87 88 00 00 	movzbl 0x8887(%rip),%eax        # 11054 <g_64>
    87cd:	0f b6 c0             	movzbl %al,%eax
    87d0:	89 d6                	mov    %edx,%esi
    87d2:	89 c7                	mov    %eax,%edi
    87d4:	e8 2c b4 ff ff       	callq  3c05 <safe_lshift_func_uint8_t_u_s>
    87d9:	8b 05 ad 88 00 00    	mov    0x88ad(%rip),%eax        # 1108c <g_195+0xc>
    87df:	0f b6 05 74 88 00 00 	movzbl 0x8874(%rip),%eax        # 1105a <g_103>
    87e6:	0f be c0             	movsbl %al,%eax
    87e9:	be 07 00 00 00       	mov    $0x7,%esi
    87ee:	89 c7                	mov    %eax,%edi
    87f0:	e8 ac aa ff ff       	callq  32a1 <safe_lshift_func_int8_t_s_s>
    87f5:	0f be c0             	movsbl %al,%eax
    87f8:	89 c7                	mov    %eax,%edi
    87fa:	e8 c0 a9 ff ff       	callq  31bf <safe_unary_minus_func_int8_t_s>
    87ff:	0f be d0             	movsbl %al,%edx
    8802:	0f b7 85 24 eb ff ff 	movzwl -0x14dc(%rbp),%eax
    8809:	21 d0                	and    %edx,%eax
    880b:	3d 20 92 00 00       	cmp    $0x9220,%eax
    8810:	0f 9f c0             	setg   %al
    8813:	0f b6 d0             	movzbl %al,%edx
    8816:	0f b7 05 3b 88 00 00 	movzwl 0x883b(%rip),%eax        # 11058 <g_71>
    881d:	98                   	cwtl   
    881e:	39 c2                	cmp    %eax,%edx
    8820:	0f 9d c0             	setge  %al
    8823:	0f b6 c0             	movzbl %al,%eax
    8826:	89 85 e4 eb ff ff    	mov    %eax,-0x141c(%rbp)
    882c:	48 8b 85 48 ec ff ff 	mov    -0x13b8(%rbp),%rax
    8833:	48 83 c0 01          	add    $0x1,%rax
    8837:	48 89 85 48 ec ff ff 	mov    %rax,-0x13b8(%rbp)
    883e:	48 8b 85 48 ec ff ff 	mov    -0x13b8(%rbp),%rax
    8845:	48 83 f8 0d          	cmp    $0xd,%rax
    8849:	0f 86 52 f1 ff ff    	jbe    79a1 <func_44+0x17b4>
    884f:	0f b7 85 1c eb ff ff 	movzwl -0x14e4(%rbp),%eax
    8856:	0f bf d8             	movswl %ax,%ebx
    8859:	48 8b 85 68 ed ff ff 	mov    -0x1298(%rbp),%rax
    8860:	48 8b 00             	mov    (%rax),%rax
    8863:	48 83 c8 01          	or     $0x1,%rax
    8867:	48 89 c2             	mov    %rax,%rdx
    886a:	48 8b 85 68 ed ff ff 	mov    -0x1298(%rbp),%rax
    8871:	48 89 10             	mov    %rdx,(%rax)
    8874:	48 8b 85 68 ed ff ff 	mov    -0x1298(%rbp),%rax
    887b:	48 8b 10             	mov    (%rax),%rdx
    887e:	8b 85 64 f3 ff ff    	mov    -0xc9c(%rbp),%eax
    8884:	21 d0                	and    %edx,%eax
    8886:	89 85 64 f3 ff ff    	mov    %eax,-0xc9c(%rbp)
    888c:	be 04 00 00 00       	mov    $0x4,%esi
    8891:	bf 40 05 00 00       	mov    $0x540,%edi
    8896:	e8 f7 ab ff ff       	callq  3492 <safe_lshift_func_int16_t_s_s>
    889b:	48 0f bf c0          	movswq %ax,%rax
    889f:	48 89 05 a2 87 00 00 	mov    %rax,0x87a2(%rip)        # 11048 <g_52>
    88a6:	0f b7 95 24 eb ff ff 	movzwl -0x14dc(%rbp),%edx
    88ad:	8b 05 a9 87 00 00    	mov    0x87a9(%rip),%eax        # 1105c <g_157>
    88b3:	21 c2                	and    %eax,%edx
    88b5:	8b 05 81 87 00 00    	mov    0x8781(%rip),%eax        # 1103c <g_3+0xc>
    88bb:	39 85 60 eb ff ff    	cmp    %eax,-0x14a0(%rbp)
    88c1:	0f 95 c0             	setne  %al
    88c4:	0f b6 c0             	movzbl %al,%eax
    88c7:	31 d0                	xor    %edx,%eax
    88c9:	83 f0 05             	xor    $0x5,%eax
    88cc:	4c 8b a5 58 ec ff ff 	mov    -0x13a8(%rbp),%r12
    88d3:	89 c6                	mov    %eax,%esi
    88d5:	bf fd ff 00 00       	mov    $0xfffd,%edi
    88da:	e8 27 b5 ff ff       	callq  3e06 <safe_lshift_func_uint16_t_u_u>
    88df:	66 41 89 04 24       	mov    %ax,(%r12)
    88e4:	0f b7 85 24 eb ff ff 	movzwl -0x14dc(%rbp),%eax
    88eb:	89 de                	mov    %ebx,%esi
    88ed:	89 c7                	mov    %eax,%edi
    88ef:	e8 54 b5 ff ff       	callq  3e48 <safe_rshift_func_uint16_t_u_s>
    88f4:	66 85 c0             	test   %ax,%ax
    88f7:	0f 84 65 07 00 00    	je     9062 <func_44+0x2e75>
    88fd:	c7 85 c4 eb ff ff fc 	movl   $0xfffffffc,-0x143c(%rbp)
    8904:	ff ff ff 
    8907:	48 8d 05 3a 9c 00 00 	lea    0x9c3a(%rip),%rax        # 12548 <g_137>
    890e:	48 89 85 98 ed ff ff 	mov    %rax,-0x1268(%rbp)
    8915:	48 8d 85 28 ec ff ff 	lea    -0x13d8(%rbp),%rax
    891c:	48 89 85 a0 ed ff ff 	mov    %rax,-0x1260(%rbp)
    8923:	c7 85 c8 eb ff ff ff 	movl   $0xffffffff,-0x1438(%rbp)
    892a:	ff ff ff 
    892d:	c7 85 cc eb ff ff 01 	movl   $0x1,-0x1434(%rbp)
    8934:	00 00 00 
    8937:	48 8d 85 30 f8 ff ff 	lea    -0x7d0(%rbp),%rax
    893e:	48 8d 15 5b 4d 00 00 	lea    0x4d5b(%rip),%rdx        # d6a0 <_IO_stdin_used+0x16a0>
    8945:	b9 1f 00 00 00       	mov    $0x1f,%ecx
    894a:	48 89 c7             	mov    %rax,%rdi
    894d:	48 89 d6             	mov    %rdx,%rsi
    8950:	f3 48 a5             	rep movsq %ds:(%rsi),%es:(%rdi)
    8953:	48 89 f2             	mov    %rsi,%rdx
    8956:	48 89 f8             	mov    %rdi,%rax
    8959:	8b 0a                	mov    (%rdx),%ecx
    895b:	89 08                	mov    %ecx,(%rax)
    895d:	66 c7 85 4c eb ff ff 	movw   $0xba4b,-0x14b4(%rbp)
    8964:	4b ba 
    8966:	48 8d 05 ef 86 00 00 	lea    0x86ef(%rip),%rax        # 1105c <g_157>
    896d:	48 89 85 a8 ed ff ff 	mov    %rax,-0x1258(%rbp)
    8974:	48 c7 85 b0 ed ff ff 	movq   $0x0,-0x1250(%rbp)
    897b:	00 00 00 00 
    897f:	48 8d 85 10 ee ff ff 	lea    -0x11f0(%rbp),%rax
    8986:	48 89 85 b8 ed ff ff 	mov    %rax,-0x1248(%rbp)
    898d:	c7 85 d0 eb ff ff 09 	movl   $0x9,-0x1430(%rbp)
    8994:	00 00 00 
    8997:	c7 85 6c eb ff ff 00 	movl   $0x0,-0x1494(%rbp)
    899e:	00 00 00 
    89a1:	eb 42                	jmp    89e5 <func_44+0x27f8>
    89a3:	c7 85 70 eb ff ff 00 	movl   $0x0,-0x1490(%rbp)
    89aa:	00 00 00 
    89ad:	eb 26                	jmp    89d5 <func_44+0x27e8>
    89af:	8b 85 70 eb ff ff    	mov    -0x1490(%rbp),%eax
    89b5:	48 63 d0             	movslq %eax,%rdx
    89b8:	8b 85 6c eb ff ff    	mov    -0x1494(%rbp),%eax
    89be:	48 98                	cltq   
    89c0:	48 01 d0             	add    %rdx,%rax
    89c3:	c7 84 85 30 ee ff ff 	movl   $0x673f8d64,-0x11d0(%rbp,%rax,4)
    89ca:	64 8d 3f 67 
    89ce:	83 85 70 eb ff ff 01 	addl   $0x1,-0x1490(%rbp)
    89d5:	83 bd 70 eb ff ff 00 	cmpl   $0x0,-0x1490(%rbp)
    89dc:	7e d1                	jle    89af <func_44+0x27c2>
    89de:	83 85 6c eb ff ff 01 	addl   $0x1,-0x1494(%rbp)
    89e5:	83 bd 6c eb ff ff 03 	cmpl   $0x3,-0x1494(%rbp)
    89ec:	7e b5                	jle    89a3 <func_44+0x27b6>
    89ee:	48 8b 85 28 eb ff ff 	mov    -0x14d8(%rbp),%rax
    89f5:	8b 00                	mov    (%rax),%eax
    89f7:	41 89 c7             	mov    %eax,%r15d
    89fa:	be 06 00 00 00       	mov    $0x6,%esi
    89ff:	bf 05 00 00 00       	mov    $0x5,%edi
    8a04:	e8 63 a9 ff ff       	callq  336c <safe_rshift_func_int8_t_s_u>
    8a09:	0f b7 05 48 86 00 00 	movzwl 0x8648(%rip),%eax        # 11058 <g_71>
    8a10:	0f be d8             	movsbl %al,%ebx
    8a13:	0f b7 05 3c 86 00 00 	movzwl 0x863c(%rip),%eax        # 11056 <g_69>
    8a1a:	4c 0f bf e0          	movswq %ax,%r12
    8a1e:	48 8b 85 10 ec ff ff 	mov    -0x13f0(%rbp),%rax
    8a25:	0f b6 10             	movzbl (%rax),%edx
    8a28:	0f b7 05 29 86 00 00 	movzwl 0x8629(%rip),%eax        # 11058 <g_71>
    8a2f:	89 c1                	mov    %eax,%ecx
    8a31:	48 8b 85 10 ec ff ff 	mov    -0x13f0(%rbp),%rax
    8a38:	09 ca                	or     %ecx,%edx
    8a3a:	88 10                	mov    %dl,(%rax)
    8a3c:	0f b6 00             	movzbl (%rax),%eax
    8a3f:	0f be c0             	movsbl %al,%eax
    8a42:	89 85 98 ee ff ff    	mov    %eax,-0x1168(%rbp)
    8a48:	44 8b b5 98 ee ff ff 	mov    -0x1168(%rbp),%r14d
    8a4f:	8b 85 40 f2 ff ff    	mov    -0xdc0(%rbp),%eax
    8a55:	44 0f bf e8          	movswl %ax,%r13d
    8a59:	8b 85 94 f2 ff ff    	mov    -0xd6c(%rbp),%eax
    8a5f:	0f b6 d0             	movzbl %al,%edx
    8a62:	48 8b 05 d7 90 00 00 	mov    0x90d7(%rip),%rax        # 11b40 <g_205>
    8a69:	48 8b 00             	mov    (%rax),%rax
    8a6c:	48 8b 85 48 ec ff ff 	mov    -0x13b8(%rbp),%rax
    8a73:	0f b6 c0             	movzbl %al,%eax
    8a76:	89 d6                	mov    %edx,%esi
    8a78:	89 c7                	mov    %eax,%edi
    8a7a:	e8 f9 b0 ff ff       	callq  3b78 <safe_sub_func_uint8_t_u_u>
    8a7f:	48 8b 85 28 ec ff ff 	mov    -0x13d8(%rbp),%rax
    8a86:	48 89 85 98 ed ff ff 	mov    %rax,-0x1268(%rbp)
    8a8d:	48 8b 85 a0 ed ff ff 	mov    -0x1260(%rbp),%rax
    8a94:	48 8b 95 98 ed ff ff 	mov    -0x1268(%rbp),%rdx
    8a9b:	48 89 10             	mov    %rdx,(%rax)
    8a9e:	48 8b 85 a0 ed ff ff 	mov    -0x1260(%rbp),%rax
    8aa5:	48 8b 00             	mov    (%rax),%rax
    8aa8:	48 8d 15 89 90 00 00 	lea    0x9089(%rip),%rdx        # 11b38 <g_56>
    8aaf:	48 39 d0             	cmp    %rdx,%rax
    8ab2:	0f 95 c2             	setne  %dl
    8ab5:	48 8b 85 58 ec ff ff 	mov    -0x13a8(%rbp),%rax
    8abc:	0f b6 d2             	movzbl %dl,%edx
    8abf:	66 89 10             	mov    %dx,(%rax)
    8ac2:	be fa ff ff ff       	mov    $0xfffffffa,%esi
    8ac7:	bf 01 00 00 00       	mov    $0x1,%edi
    8acc:	e8 41 a7 ff ff       	callq  3212 <safe_mul_func_int8_t_s_s>
    8ad1:	66 83 bd 24 eb ff ff 	cmpw   $0x1,-0x14dc(%rbp)
    8ad8:	01 
    8ad9:	0f 97 c0             	seta   %al
    8adc:	0f b6 c0             	movzbl %al,%eax
    8adf:	44 89 ee             	mov    %r13d,%esi
    8ae2:	89 c7                	mov    %eax,%edi
    8ae4:	e8 ca a8 ff ff       	callq  33b3 <safe_add_func_int16_t_s_s>
    8ae9:	98                   	cwtl   
    8aea:	41 39 c6             	cmp    %eax,%r14d
    8aed:	0f 9c c0             	setl   %al
    8af0:	0f b6 d0             	movzbl %al,%edx
    8af3:	48 8b 05 d6 85 00 00 	mov    0x85d6(%rip),%rax        # 110d0 <g_260>
    8afa:	48 39 c2             	cmp    %rax,%rdx
    8afd:	4c 89 e6             	mov    %r12,%rsi
    8b00:	bf 01 00 00 00       	mov    $0x1,%edi
    8b05:	e8 a5 b5 ff ff       	callq  40af <safe_div_func_uint64_t_u_u>
    8b0a:	48 ba cf f4 20 3f 9a 	movabs $0x4dcb419a3f20f4cf,%rdx
    8b11:	41 cb 4d 
    8b14:	48 39 d0             	cmp    %rdx,%rax
    8b17:	0f 96 c0             	setbe  %al
    8b1a:	0f b6 c0             	movzbl %al,%eax
    8b1d:	be 03 00 00 00       	mov    $0x3,%esi
    8b22:	89 c7                	mov    %eax,%edi
    8b24:	e8 3a aa ff ff       	callq  3563 <safe_rshift_func_int16_t_s_u>
    8b29:	89 de                	mov    %ebx,%esi
    8b2b:	bf 01 00 00 00       	mov    $0x1,%edi
    8b30:	e8 dd a6 ff ff       	callq  3212 <safe_mul_func_int8_t_s_s>
    8b35:	0f b7 85 24 eb ff ff 	movzwl -0x14dc(%rbp),%eax
    8b3c:	83 e0 01             	and    $0x1,%eax
    8b3f:	44 89 fe             	mov    %r15d,%esi
    8b42:	89 c7                	mov    %eax,%edi
    8b44:	e8 dc b3 ff ff       	callq  3f25 <safe_div_func_uint32_t_u_u>
    8b49:	85 c0                	test   %eax,%eax
    8b4b:	75 10                	jne    8b5d <func_44+0x2970>
    8b4d:	48 8b 05 7c 85 00 00 	mov    0x857c(%rip),%rax        # 110d0 <g_260>
    8b54:	48 85 c0             	test   %rax,%rax
    8b57:	0f 84 b4 00 00 00    	je     8c11 <func_44+0x2a24>
    8b5d:	48 8d 85 58 ec ff ff 	lea    -0x13a8(%rbp),%rax
    8b64:	48 89 85 b0 ee ff ff 	mov    %rax,-0x1150(%rbp)
    8b6b:	48 8d 85 58 ec ff ff 	lea    -0x13a8(%rbp),%rax
    8b72:	48 89 85 b8 ee ff ff 	mov    %rax,-0x1148(%rbp)
    8b79:	48 8d 85 58 ec ff ff 	lea    -0x13a8(%rbp),%rax
    8b80:	48 89 85 c0 ee ff ff 	mov    %rax,-0x1140(%rbp)
    8b87:	48 8d 85 58 ec ff ff 	lea    -0x13a8(%rbp),%rax
    8b8e:	48 89 85 c8 ee ff ff 	mov    %rax,-0x1138(%rbp)
    8b95:	48 8d 85 58 ec ff ff 	lea    -0x13a8(%rbp),%rax
    8b9c:	48 89 85 d0 ee ff ff 	mov    %rax,-0x1130(%rbp)
    8ba3:	48 8d 85 58 ec ff ff 	lea    -0x13a8(%rbp),%rax
    8baa:	48 89 85 d8 ee ff ff 	mov    %rax,-0x1128(%rbp)
    8bb1:	48 8d 85 58 ec ff ff 	lea    -0x13a8(%rbp),%rax
    8bb8:	48 89 85 e0 ee ff ff 	mov    %rax,-0x1120(%rbp)
    8bbf:	48 8d 85 48 eb ff ff 	lea    -0x14b8(%rbp),%rax
    8bc6:	48 89 85 c8 ed ff ff 	mov    %rax,-0x1238(%rbp)
    8bcd:	c7 85 d8 eb ff ff 8e 	movl   $0xb4935a8e,-0x1428(%rbp)
    8bd4:	5a 93 b4 
    8bd7:	48 8d 05 7e 84 00 00 	lea    0x847e(%rip),%rax        # 1105c <g_157>
    8bde:	48 89 85 d0 ed ff ff 	mov    %rax,-0x1230(%rbp)
    8be5:	c7 85 50 ec ff ff 09 	movl   $0x9,-0x13b0(%rbp)
    8bec:	00 00 00 
    8bef:	c7 85 dc eb ff ff 06 	movl   $0x6,-0x1424(%rbp)
    8bf6:	00 00 00 
    8bf9:	c7 85 e0 eb ff ff 06 	movl   $0x6,-0x1420(%rbp)
    8c00:	00 00 00 
    8c03:	66 c7 85 3e eb ff ff 	movw   $0x75e4,-0x14c2(%rbp)
    8c0a:	e4 75 
    8c0c:	e9 a2 02 00 00       	jmpq   8eb3 <func_44+0x2cc6>
    8c11:	48 c7 85 c0 ed ff ff 	movq   $0x8,-0x1240(%rbp)
    8c18:	08 00 00 00 
    8c1c:	c7 85 cc eb ff ff 00 	movl   $0x0,-0x1434(%rbp)
    8c23:	00 00 00 
    8c26:	83 bd cc eb ff ff f2 	cmpl   $0xfffffff2,-0x1434(%rbp)
    8c2d:	0f 8d ff 00 00 00    	jge    8d32 <func_44+0x2b45>
    8c33:	c7 85 d4 eb ff ff f7 	movl   $0xfffffff7,-0x142c(%rbp)
    8c3a:	ff ff ff 
    8c3d:	66 83 bd 24 eb ff ff 	cmpw   $0x0,-0x14dc(%rbp)
    8c44:	00 
    8c45:	0f 85 b2 00 00 00    	jne    8cfd <func_44+0x2b10>
    8c4b:	8b 85 d4 eb ff ff    	mov    -0x142c(%rbp),%eax
    8c51:	48 63 d8             	movslq %eax,%rbx
    8c54:	48 8b 05 35 8f 00 00 	mov    0x8f35(%rip),%rax        # 11b90 <g_208>
    8c5b:	48 8b 00             	mov    (%rax),%rax
    8c5e:	48 8b 00             	mov    (%rax),%rax
    8c61:	0f b7 00             	movzwl (%rax),%eax
    8c64:	98                   	cwtl   
    8c65:	be 01 00 00 00       	mov    $0x1,%esi
    8c6a:	89 c7                	mov    %eax,%edi
    8c6c:	e8 21 a8 ff ff       	callq  3492 <safe_lshift_func_int16_t_s_s>
    8c71:	48 8b 85 28 eb ff ff 	mov    -0x14d8(%rbp),%rax
    8c78:	48 39 85 a8 ed ff ff 	cmp    %rax,-0x1258(%rbp)
    8c7f:	0f 95 c0             	setne  %al
    8c82:	44 0f b6 e0          	movzbl %al,%r12d
    8c86:	b8 01 00 00 00       	mov    $0x1,%eax
    8c8b:	0f b7 c0             	movzwl %ax,%eax
    8c8e:	be 00 00 00 00       	mov    $0x0,%esi
    8c93:	89 c7                	mov    %eax,%edi
    8c95:	e8 a3 b0 ff ff       	callq  3d3d <safe_mul_func_uint16_t_u_u>
    8c9a:	0f b7 d0             	movzwl %ax,%edx
    8c9d:	48 8b 85 a8 ed ff ff 	mov    -0x1258(%rbp),%rax
    8ca4:	89 10                	mov    %edx,(%rax)
    8ca6:	48 8b 85 a8 ed ff ff 	mov    -0x1258(%rbp),%rax
    8cad:	8b 00                	mov    (%rax),%eax
    8caf:	41 39 c4             	cmp    %eax,%r12d
    8cb2:	0f 92 c0             	setb   %al
    8cb5:	0f b6 c0             	movzbl %al,%eax
    8cb8:	89 c6                	mov    %eax,%esi
    8cba:	bf 01 00 00 00       	mov    $0x1,%edi
    8cbf:	e8 10 a5 ff ff       	callq  31d4 <safe_add_func_int8_t_s_s>
    8cc4:	0f b6 c0             	movzbl %al,%eax
    8cc7:	be 20 00 00 00       	mov    $0x20,%esi
    8ccc:	89 c7                	mov    %eax,%edi
    8cce:	e8 db ae ff ff       	callq  3bae <safe_mod_func_uint8_t_u_u>
    8cd3:	48 8b 05 f6 83 00 00 	mov    0x83f6(%rip),%rax        # 110d0 <g_260>
    8cda:	48 85 c0             	test   %rax,%rax
    8cdd:	74 07                	je     8ce6 <func_44+0x2af9>
    8cdf:	b8 01 00 00 00       	mov    $0x1,%eax
    8ce4:	eb 05                	jmp    8ceb <func_44+0x2afe>
    8ce6:	b8 00 00 00 00       	mov    $0x0,%eax
    8ceb:	48 98                	cltq   
    8ced:	48 89 de             	mov    %rbx,%rsi
    8cf0:	48 89 c7             	mov    %rax,%rdi
    8cf3:	e8 53 b3 ff ff       	callq  404b <safe_sub_func_uint64_t_u_u>
    8cf8:	48 85 c0             	test   %rax,%rax
    8cfb:	74 07                	je     8d04 <func_44+0x2b17>
    8cfd:	ba 01 00 00 00       	mov    $0x1,%edx
    8d02:	eb 05                	jmp    8d09 <func_44+0x2b1c>
    8d04:	ba 00 00 00 00       	mov    $0x0,%edx
    8d09:	48 8b 85 48 ed ff ff 	mov    -0x12b8(%rbp),%rax
    8d10:	8b 00                	mov    (%rax),%eax
    8d12:	21 c2                	and    %eax,%edx
    8d14:	48 8b 85 48 ed ff ff 	mov    -0x12b8(%rbp),%rax
    8d1b:	89 10                	mov    %edx,(%rax)
    8d1d:	48 8b 05 6c 8e 00 00 	mov    0x8e6c(%rip),%rax        # 11b90 <g_208>
    8d24:	48 8b 00             	mov    (%rax),%rax
    8d27:	48 8b 00             	mov    (%rax),%rax
    8d2a:	0f b7 00             	movzwl (%rax),%eax
    8d2d:	e9 7a 20 00 00       	jmpq   adac <func_44+0x4bbf>
    8d32:	0f b7 85 1c eb ff ff 	movzwl -0x14e4(%rbp),%eax
    8d39:	0f bf d8             	movswl %ax,%ebx
    8d3c:	0f b6 45 bf          	movzbl -0x41(%rbp),%eax
    8d40:	0f b6 d0             	movzbl %al,%edx
    8d43:	48 8b 05 f6 8d 00 00 	mov    0x8df6(%rip),%rax        # 11b40 <g_205>
    8d4a:	48 8b 08             	mov    (%rax),%rcx
    8d4d:	48 8b 85 30 f7 ff ff 	mov    -0x8d0(%rbp),%rax
    8d54:	48 39 c1             	cmp    %rax,%rcx
    8d57:	0f 97 c0             	seta   %al
    8d5a:	0f b6 c0             	movzbl %al,%eax
    8d5d:	89 d6                	mov    %edx,%esi
    8d5f:	89 c7                	mov    %eax,%edi
    8d61:	e8 ef a6 ff ff       	callq  3455 <safe_div_func_int16_t_s_s>
    8d66:	0f b7 85 1c eb ff ff 	movzwl -0x14e4(%rbp),%eax
    8d6d:	44 0f bf e0          	movswl %ax,%r12d
    8d71:	8b 05 bd 82 00 00    	mov    0x82bd(%rip),%eax        # 11034 <g_3+0x4>
    8d77:	0d b7 6d 00 00       	or     $0x6db7,%eax
    8d7c:	48 63 d0             	movslq %eax,%rdx
    8d7f:	0f b7 05 4c 84 00 00 	movzwl 0x844c(%rip),%eax        # 111d2 <g_323+0xf2>
    8d86:	0f b7 c0             	movzwl %ax,%eax
    8d89:	48 39 c2             	cmp    %rax,%rdx
    8d8c:	0f 95 c0             	setne  %al
    8d8f:	0f b6 c0             	movzbl %al,%eax
    8d92:	8b 15 c4 82 00 00    	mov    0x82c4(%rip),%edx        # 1105c <g_157>
    8d98:	85 d2                	test   %edx,%edx
    8d9a:	75 07                	jne    8da3 <func_44+0x2bb6>
    8d9c:	ba 7d 9b 00 00       	mov    $0x9b7d,%edx
    8da1:	eb 05                	jmp    8da8 <func_44+0x2bbb>
    8da3:	ba 7c 9b 00 00       	mov    $0x9b7c,%edx
    8da8:	89 c6                	mov    %eax,%esi
    8daa:	89 d7                	mov    %edx,%edi
    8dac:	e8 8c af ff ff       	callq  3d3d <safe_mul_func_uint16_t_u_u>
    8db1:	0f b6 05 a2 82 00 00 	movzbl 0x82a2(%rip),%eax        # 1105a <g_103>
    8db8:	0f be d0             	movsbl %al,%edx
    8dbb:	0f b7 85 1c eb ff ff 	movzwl -0x14e4(%rbp),%eax
    8dc2:	0f bf c8             	movswl %ax,%ecx
    8dc5:	0f b7 85 20 eb ff ff 	movzwl -0x14e0(%rbp),%eax
    8dcc:	39 c1                	cmp    %eax,%ecx
    8dce:	0f 9e c0             	setle  %al
    8dd1:	0f b6 c0             	movzbl %al,%eax
    8dd4:	89 d6                	mov    %edx,%esi
    8dd6:	89 c7                	mov    %eax,%edi
    8dd8:	e8 54 a4 ff ff       	callq  3231 <safe_mod_func_int8_t_s_s>
    8ddd:	0f be c0             	movsbl %al,%eax
    8de0:	44 89 e6             	mov    %r12d,%esi
    8de3:	89 c7                	mov    %eax,%edi
    8de5:	e8 cc a7 ff ff       	callq  35b6 <safe_add_func_int32_t_s_s>
    8dea:	48 8b 95 50 ed ff ff 	mov    -0x12b0(%rbp),%rdx
    8df1:	8b 12                	mov    (%rdx),%edx
    8df3:	21 d0                	and    %edx,%eax
    8df5:	85 c0                	test   %eax,%eax
    8df7:	75 0a                	jne    8e03 <func_44+0x2c16>
    8df9:	8b 05 41 82 00 00    	mov    0x8241(%rip),%eax        # 11040 <g_19>
    8dff:	85 c0                	test   %eax,%eax
    8e01:	74 07                	je     8e0a <func_44+0x2c1d>
    8e03:	ba 01 00 00 00       	mov    $0x1,%edx
    8e08:	eb 05                	jmp    8e0f <func_44+0x2c22>
    8e0a:	ba 00 00 00 00       	mov    $0x0,%edx
    8e0f:	0f b7 85 24 eb ff ff 	movzwl -0x14dc(%rbp),%eax
    8e16:	39 c2                	cmp    %eax,%edx
    8e18:	0f 9f c0             	setg   %al
    8e1b:	0f b6 c0             	movzbl %al,%eax
    8e1e:	be a7 00 00 00       	mov    $0xa7,%esi
    8e23:	89 c7                	mov    %eax,%edi
    8e25:	e8 69 ad ff ff       	callq  3b93 <safe_mul_func_uint8_t_u_u>
    8e2a:	bf 01 00 00 00       	mov    $0x1,%edi
    8e2f:	e8 11 ad ff ff       	callq  3b45 <safe_unary_minus_func_uint8_t_u>
    8e34:	0f b6 d0             	movzbl %al,%edx
    8e37:	48 8b 05 7a 82 00 00 	mov    0x827a(%rip),%rax        # 110b8 <g_206>
    8e3e:	f7 d0                	not    %eax
    8e40:	0f b7 c0             	movzwl %ax,%eax
    8e43:	89 d6                	mov    %edx,%esi
    8e45:	89 c7                	mov    %eax,%edi
    8e47:	e8 f1 ae ff ff       	callq  3d3d <safe_mul_func_uint16_t_u_u>
    8e4c:	0f b7 c0             	movzwl %ax,%eax
    8e4f:	89 c7                	mov    %eax,%edi
    8e51:	e8 40 a7 ff ff       	callq  3596 <safe_unary_minus_func_int32_t_s>
    8e56:	85 c0                	test   %eax,%eax
    8e58:	74 14                	je     8e6e <func_44+0x2c81>
    8e5a:	48 8b 85 58 ed ff ff 	mov    -0x12a8(%rbp),%rax
    8e61:	8b 00                	mov    (%rax),%eax
    8e63:	85 c0                	test   %eax,%eax
    8e65:	74 07                	je     8e6e <func_44+0x2c81>
    8e67:	b8 01 00 00 00       	mov    $0x1,%eax
    8e6c:	eb 05                	jmp    8e73 <func_44+0x2c86>
    8e6e:	b8 00 00 00 00       	mov    $0x0,%eax
    8e73:	89 c2                	mov    %eax,%edx
    8e75:	48 8b 85 a8 ed ff ff 	mov    -0x1258(%rbp),%rax
    8e7c:	89 10                	mov    %edx,(%rax)
    8e7e:	48 8b 85 a8 ed ff ff 	mov    -0x1258(%rbp),%rax
    8e85:	8b 00                	mov    (%rax),%eax
    8e87:	be 01 00 00 00       	mov    $0x1,%esi
    8e8c:	89 c7                	mov    %eax,%edi
    8e8e:	e8 25 b0 ff ff       	callq  3eb8 <safe_add_func_uint32_t_u_u>
    8e93:	83 f8 61             	cmp    $0x61,%eax
    8e96:	0f 97 c0             	seta   %al
    8e99:	0f b6 c0             	movzbl %al,%eax
    8e9c:	89 de                	mov    %ebx,%esi
    8e9e:	89 c7                	mov    %eax,%edi
    8ea0:	e8 2e a5 ff ff       	callq  33d3 <safe_sub_func_int16_t_s_s>
    8ea5:	98                   	cwtl   
    8ea6:	f7 d0                	not    %eax
    8ea8:	89 c2                	mov    %eax,%edx
    8eaa:	48 8b 05 7f 8c 00 00 	mov    0x8c7f(%rip),%rax        # 11b30 <g_57>
    8eb1:	89 10                	mov    %edx,(%rax)
    8eb3:	48 8b 05 b6 8f 00 00 	mov    0x8fb6(%rip),%rax        # 11e70 <g_213>
    8eba:	48 8b 00             	mov    (%rax),%rax
    8ebd:	48 8b 00             	mov    (%rax),%rax
    8ec0:	48 8b 00             	mov    (%rax),%rax
    8ec3:	48 85 c0             	test   %rax,%rax
    8ec6:	0f 95 c0             	setne  %al
    8ec9:	0f b6 c0             	movzbl %al,%eax
    8ecc:	be 0e 00 00 00       	mov    $0xe,%esi
    8ed1:	89 c7                	mov    %eax,%edi
    8ed3:	e8 e6 ae ff ff       	callq  3dbe <safe_lshift_func_uint16_t_u_s>
    8ed8:	48 8b 05 e9 81 00 00 	mov    0x81e9(%rip),%rax        # 110c8 <g_230>
    8edf:	0f b6 d8             	movzbl %al,%ebx
    8ee2:	44 0f b7 a5 20 eb ff 	movzwl -0x14e0(%rbp),%r12d
    8ee9:	ff 
    8eea:	be 03 00 00 00       	mov    $0x3,%esi
    8eef:	bf 01 00 00 00       	mov    $0x1,%edi
    8ef4:	e8 f9 a2 ff ff       	callq  31f2 <safe_sub_func_int8_t_s_s>
    8ef9:	0f b6 05 e0 82 00 00 	movzbl 0x82e0(%rip),%eax        # 111e0 <g_328>
    8f00:	48 0f be d0          	movsbq %al,%rdx
    8f04:	48 8b 05 cd 81 00 00 	mov    0x81cd(%rip),%rax        # 110d8 <g_281>
    8f0b:	48 39 c2             	cmp    %rax,%rdx
    8f0e:	0f 9c c0             	setl   %al
    8f11:	0f b6 c0             	movzbl %al,%eax
    8f14:	44 89 e6             	mov    %r12d,%esi
    8f17:	89 c7                	mov    %eax,%edi
    8f19:	e8 70 ae ff ff       	callq  3d8e <safe_div_func_uint16_t_u_u>
    8f1e:	0f b6 c0             	movzbl %al,%eax
    8f21:	89 de                	mov    %ebx,%esi
    8f23:	89 c7                	mov    %eax,%edi
    8f25:	e8 84 ac ff ff       	callq  3bae <safe_mod_func_uint8_t_u_u>
    8f2a:	0f b6 c0             	movzbl %al,%eax
    8f2d:	89 c6                	mov    %eax,%esi
    8f2f:	bf 01 00 00 00       	mov    $0x1,%edi
    8f34:	e8 04 ae ff ff       	callq  3d3d <safe_mul_func_uint16_t_u_u>
    8f39:	ba e4 33 a7 71       	mov    $0x71a733e4,%edx
    8f3e:	48 8b 85 50 ed ff ff 	mov    -0x12b0(%rbp),%rax
    8f45:	8b 00                	mov    (%rax),%eax
    8f47:	21 c2                	and    %eax,%edx
    8f49:	48 8b 85 50 ed ff ff 	mov    -0x12b0(%rbp),%rax
    8f50:	89 10                	mov    %edx,(%rax)
    8f52:	0f b7 05 07 81 00 00 	movzwl 0x8107(%rip),%eax        # 11060 <g_184>
    8f59:	44 0f b7 e8          	movzwl %ax,%r13d
    8f5d:	48 8b 05 e4 80 00 00 	mov    0x80e4(%rip),%rax        # 11048 <g_52>
    8f64:	0f be d8             	movsbl %al,%ebx
    8f67:	44 8b a5 a4 eb ff ff 	mov    -0x145c(%rbp),%r12d
    8f6e:	48 8b 85 10 ed ff ff 	mov    -0x12f0(%rbp),%rax
    8f75:	66 c7 00 01 00       	movw   $0x1,(%rax)
    8f7a:	48 8b 85 48 ec ff ff 	mov    -0x13b8(%rbp),%rax
    8f81:	89 c2                	mov    %eax,%edx
    8f83:	0f b7 85 2e ee ff ff 	movzwl -0x11d2(%rbp),%eax
    8f8a:	66 85 c0             	test   %ax,%ax
    8f8d:	0f 95 c0             	setne  %al
    8f90:	0f b6 c0             	movzbl %al,%eax
    8f93:	89 d6                	mov    %edx,%esi
    8f95:	89 c7                	mov    %eax,%edi
    8f97:	e8 30 a7 ff ff       	callq  36cc <safe_mod_func_int32_t_s_s>
    8f9c:	4c 89 e6             	mov    %r12,%rsi
    8f9f:	48 bf ec 33 e9 1a aa 	movabs $0x998fb7aa1ae933ec,%rdi
    8fa6:	b7 8f 99 
    8fa9:	e8 01 b1 ff ff       	callq  40af <safe_div_func_uint64_t_u_u>
    8fae:	0f be c0             	movsbl %al,%eax
    8fb1:	89 de                	mov    %ebx,%esi
    8fb3:	89 c7                	mov    %eax,%edi
    8fb5:	e8 77 a2 ff ff       	callq  3231 <safe_mod_func_int8_t_s_s>
    8fba:	0f b6 c0             	movzbl %al,%eax
    8fbd:	be 03 00 00 00       	mov    $0x3,%esi
    8fc2:	89 c7                	mov    %eax,%edi
    8fc4:	e8 f5 ac ff ff       	callq  3cbe <safe_rshift_func_uint8_t_u_u>
    8fc9:	0f b6 c0             	movzbl %al,%eax
    8fcc:	66 39 85 24 eb ff ff 	cmp    %ax,-0x14dc(%rbp)
    8fd3:	48 8b 05 ae 8b 00 00 	mov    0x8bae(%rip),%rax        # 11b88 <g_209>
    8fda:	48 8b 00             	mov    (%rax),%rax
    8fdd:	0f b7 00             	movzwl (%rax),%eax
    8fe0:	48 8b 85 a0 ed ff ff 	mov    -0x1260(%rbp),%rax
    8fe7:	48 8b 00             	mov    (%rax),%rax
    8fea:	48 89 85 28 ec ff ff 	mov    %rax,-0x13d8(%rbp)
    8ff1:	48 8b 8d 28 ec ff ff 	mov    -0x13d8(%rbp),%rcx
    8ff8:	48 8b 95 10 ee ff ff 	mov    -0x11f0(%rbp),%rdx
    8fff:	48 8b 85 b8 ed ff ff 	mov    -0x1248(%rbp),%rax
    9006:	48 89 10             	mov    %rdx,(%rax)
    9009:	48 8b 85 b8 ed ff ff 	mov    -0x1248(%rbp),%rax
    9010:	48 8b 00             	mov    (%rax),%rax
    9013:	48 39 c1             	cmp    %rax,%rcx
    9016:	8b 95 d0 eb ff ff    	mov    -0x1430(%rbp),%edx
    901c:	8b 05 3a 80 00 00    	mov    0x803a(%rip),%eax        # 1105c <g_157>
    9022:	39 c2                	cmp    %eax,%edx
    9024:	48 8b 85 58 ed ff ff 	mov    -0x12a8(%rbp),%rax
    902b:	c7 00 01 00 00 00    	movl   $0x1,(%rax)
    9031:	48 8b 85 58 ed ff ff 	mov    -0x12a8(%rbp),%rax
    9038:	8b 00                	mov    (%rax),%eax
    903a:	48 98                	cltq   
    903c:	48 89 c6             	mov    %rax,%rsi
    903f:	48 c7 c7 f9 ff ff ff 	mov    $0xfffffffffffffff9,%rdi
    9046:	e8 e3 af ff ff       	callq  402e <safe_add_func_uint64_t_u_u>
    904b:	49 39 c5             	cmp    %rax,%r13
    904e:	0f 96 c2             	setbe  %dl
    9051:	48 8b 05 d8 8a 00 00 	mov    0x8ad8(%rip),%rax        # 11b30 <g_57>
    9058:	0f b6 d2             	movzbl %dl,%edx
    905b:	89 10                	mov    %edx,(%rax)
    905d:	e9 9c 06 00 00       	jmpq   96fe <func_44+0x3511>
    9062:	48 8d 45 be          	lea    -0x42(%rbp),%rax
    9066:	48 83 c0 01          	add    $0x1,%rax
    906a:	48 89 85 b0 ee ff ff 	mov    %rax,-0x1150(%rbp)
    9071:	48 8d 45 be          	lea    -0x42(%rbp),%rax
    9075:	48 83 c0 01          	add    $0x1,%rax
    9079:	48 89 85 b8 ee ff ff 	mov    %rax,-0x1148(%rbp)
    9080:	48 8d 45 be          	lea    -0x42(%rbp),%rax
    9084:	48 83 c0 01          	add    $0x1,%rax
    9088:	48 89 85 c0 ee ff ff 	mov    %rax,-0x1140(%rbp)
    908f:	48 8d 45 be          	lea    -0x42(%rbp),%rax
    9093:	48 83 c0 01          	add    $0x1,%rax
    9097:	48 89 85 c8 ee ff ff 	mov    %rax,-0x1138(%rbp)
    909e:	48 8d 45 be          	lea    -0x42(%rbp),%rax
    90a2:	48 83 c0 01          	add    $0x1,%rax
    90a6:	48 89 85 d0 ee ff ff 	mov    %rax,-0x1130(%rbp)
    90ad:	48 8d 45 be          	lea    -0x42(%rbp),%rax
    90b1:	48 83 c0 01          	add    $0x1,%rax
    90b5:	48 89 85 d8 ee ff ff 	mov    %rax,-0x1128(%rbp)
    90bc:	48 8d 45 be          	lea    -0x42(%rbp),%rax
    90c0:	48 83 c0 01          	add    $0x1,%rax
    90c4:	48 89 85 e0 ee ff ff 	mov    %rax,-0x1120(%rbp)
    90cb:	48 8d 45 be          	lea    -0x42(%rbp),%rax
    90cf:	48 83 c0 01          	add    $0x1,%rax
    90d3:	48 89 85 e8 ee ff ff 	mov    %rax,-0x1118(%rbp)
    90da:	48 8d 45 be          	lea    -0x42(%rbp),%rax
    90de:	48 83 c0 01          	add    $0x1,%rax
    90e2:	48 89 85 f0 ee ff ff 	mov    %rax,-0x1110(%rbp)
    90e9:	48 8d 45 be          	lea    -0x42(%rbp),%rax
    90ed:	48 83 c0 01          	add    $0x1,%rax
    90f1:	48 89 85 f8 ee ff ff 	mov    %rax,-0x1108(%rbp)
    90f8:	c7 85 b0 eb ff ff 00 	movl   $0x0,-0x1450(%rbp)
    90ff:	00 00 00 
    9102:	48 8d 85 30 f8 ff ff 	lea    -0x7d0(%rbp),%rax
    9109:	48 8d 15 90 46 00 00 	lea    0x4690(%rip),%rdx        # d7a0 <_IO_stdin_used+0x17a0>
    9110:	b9 3c 00 00 00       	mov    $0x3c,%ecx
    9115:	48 89 c7             	mov    %rax,%rdi
    9118:	48 89 d6             	mov    %rdx,%rsi
    911b:	f3 48 a5             	rep movsq %ds:(%rsi),%es:(%rdi)
    911e:	c7 85 b4 eb ff ff ff 	movl   $0xffffffff,-0x144c(%rbp)
    9125:	ff ff ff 
    9128:	66 c7 85 3a eb ff ff 	movw   $0x2c51,-0x14c6(%rbp)
    912f:	51 2c 
    9131:	48 8b 05 98 7f 00 00 	mov    0x7f98(%rip),%rax        # 110d0 <g_260>
    9138:	48 85 c0             	test   %rax,%rax
    913b:	74 05                	je     9142 <func_44+0x2f55>
    913d:	e9 3e e8 ff ff       	jmpq   7980 <func_44+0x1793>
    9142:	48 8b 85 28 eb ff ff 	mov    -0x14d8(%rbp),%rax
    9149:	48 89 85 28 eb ff ff 	mov    %rax,-0x14d8(%rbp)
    9150:	0f b7 05 ff 7e 00 00 	movzwl 0x7eff(%rip),%eax        # 11056 <g_69>
    9157:	0f be d8             	movsbl %al,%ebx
    915a:	48 8b 85 28 eb ff ff 	mov    -0x14d8(%rbp),%rax
    9161:	8b 00                	mov    (%rax),%eax
    9163:	41 89 c5             	mov    %eax,%r13d
    9166:	be 03 00 00 00       	mov    $0x3,%esi
    916b:	bf 00 00 00 00       	mov    $0x0,%edi
    9170:	e8 49 ab ff ff       	callq  3cbe <safe_rshift_func_uint8_t_u_u>
    9175:	84 c0                	test   %al,%al
    9177:	75 1e                	jne    9197 <func_44+0x2faa>
    9179:	8b 05 dd 7e 00 00    	mov    0x7edd(%rip),%eax        # 1105c <g_157>
    917f:	89 c2                	mov    %eax,%edx
    9181:	0f b7 05 d0 7e 00 00 	movzwl 0x7ed0(%rip),%eax        # 11058 <g_71>
    9188:	48 0f bf c0          	movswq %ax,%rax
    918c:	48 89 d6             	mov    %rdx,%rsi
    918f:	48 89 c7             	mov    %rax,%rdi
    9192:	e8 18 af ff ff       	callq  40af <safe_div_func_uint64_t_u_u>
    9197:	b8 01 00 00 00       	mov    $0x1,%eax
    919c:	48 63 d0             	movslq %eax,%rdx
    919f:	0f b7 85 20 eb ff ff 	movzwl -0x14e0(%rbp),%eax
    91a6:	48 89 d6             	mov    %rdx,%rsi
    91a9:	48 89 c7             	mov    %rax,%rdi
    91ac:	e8 f7 a6 ff ff       	callq  38a8 <safe_sub_func_int64_t_s_s>
    91b1:	89 c6                	mov    %eax,%esi
    91b3:	bf 3d 45 00 00       	mov    $0x453d,%edi
    91b8:	e8 49 ac ff ff       	callq  3e06 <safe_lshift_func_uint16_t_u_u>
    91bd:	44 0f be e0          	movsbl %al,%r12d
    91c1:	48 8b 05 a8 8c 00 00 	mov    0x8ca8(%rip),%rax        # 11e70 <g_213>
    91c8:	48 8b 00             	mov    (%rax),%rax
    91cb:	48 8b 00             	mov    (%rax),%rax
    91ce:	48 85 c0             	test   %rax,%rax
    91d1:	0f 95 c0             	setne  %al
    91d4:	88 05 7a 7e 00 00    	mov    %al,0x7e7a(%rip)        # 11054 <g_64>
    91da:	0f b6 05 73 7e 00 00 	movzbl 0x7e73(%rip),%eax        # 11054 <g_64>
    91e1:	0f b6 c0             	movzbl %al,%eax
    91e4:	89 c7                	mov    %eax,%edi
    91e6:	e8 5a a9 ff ff       	callq  3b45 <safe_unary_minus_func_uint8_t_u>
    91eb:	0f b6 c0             	movzbl %al,%eax
    91ee:	66 39 85 24 eb ff ff 	cmp    %ax,-0x14dc(%rbp)
    91f5:	0f 93 c0             	setae  %al
    91f8:	0f b6 c0             	movzbl %al,%eax
    91fb:	44 89 e6             	mov    %r12d,%esi
    91fe:	89 c7                	mov    %eax,%edi
    9200:	e8 0d a0 ff ff       	callq  3212 <safe_mul_func_int8_t_s_s>
    9205:	0f be c0             	movsbl %al,%eax
    9208:	23 85 b0 eb ff ff    	and    -0x1450(%rbp),%eax
    920e:	85 c0                	test   %eax,%eax
    9210:	75 0c                	jne    921e <func_44+0x3031>
    9212:	0f b7 05 3f 7e 00 00 	movzwl 0x7e3f(%rip),%eax        # 11058 <g_71>
    9219:	66 85 c0             	test   %ax,%ax
    921c:	74 07                	je     9225 <func_44+0x3038>
    921e:	b8 01 00 00 00       	mov    $0x1,%eax
    9223:	eb 05                	jmp    922a <func_44+0x303d>
    9225:	b8 00 00 00 00       	mov    $0x0,%eax
    922a:	44 89 ee             	mov    %r13d,%esi
    922d:	89 c7                	mov    %eax,%edi
    922f:	e8 c9 ac ff ff       	callq  3efd <safe_mod_func_uint32_t_u_u>
    9234:	0f be c0             	movsbl %al,%eax
    9237:	89 de                	mov    %ebx,%esi
    9239:	89 c7                	mov    %eax,%edi
    923b:	e8 94 9f ff ff       	callq  31d4 <safe_add_func_int8_t_s_s>
    9240:	0f be c0             	movsbl %al,%eax
    9243:	89 c6                	mov    %eax,%esi
    9245:	bf 03 00 00 00       	mov    $0x3,%edi
    924a:	e8 81 ac ff ff       	callq  3ed0 <safe_sub_func_uint32_t_u_u>
    924f:	8b 95 44 eb ff ff    	mov    -0x14bc(%rbp),%edx
    9255:	39 d0                	cmp    %edx,%eax
    9257:	0f 95 c0             	setne  %al
    925a:	0f b6 c0             	movzbl %al,%eax
    925d:	48 89 c6             	mov    %rax,%rsi
    9260:	48 bf ee 83 0d 58 fe 	movabs $0x8d911fe580d83ee,%rdi
    9267:	11 d9 08 
    926a:	e8 dc ad ff ff       	callq  404b <safe_sub_func_uint64_t_u_u>
    926f:	48 83 f8 ff          	cmp    $0xffffffffffffffff,%rax
    9273:	0f 84 09 03 00 00    	je     9582 <func_44+0x3395>
    9279:	c7 85 b8 eb ff ff 30 	movl   $0x14c85030,-0x1448(%rbp)
    9280:	50 c8 14 
    9283:	48 c7 85 78 ed ff ff 	movq   $0x0,-0x1288(%rbp)
    928a:	00 00 00 00 
    928e:	48 8d 05 c7 7d 00 00 	lea    0x7dc7(%rip),%rax        # 1105c <g_157>
    9295:	48 89 85 80 ed ff ff 	mov    %rax,-0x1280(%rbp)
    929c:	48 8d 85 b0 f3 ff ff 	lea    -0xc50(%rbp),%rax
    92a3:	48 05 88 03 00 00    	add    $0x388,%rax
    92a9:	48 89 85 88 ed ff ff 	mov    %rax,-0x1278(%rbp)
    92b0:	48 8d 85 08 ec ff ff 	lea    -0x13f8(%rbp),%rax
    92b7:	48 89 85 90 ed ff ff 	mov    %rax,-0x1270(%rbp)
    92be:	c7 85 bc eb ff ff 09 	movl   $0x9,-0x1444(%rbp)
    92c5:	00 00 00 
    92c8:	c7 85 c0 eb ff ff ff 	movl   $0xffffffff,-0x1440(%rbp)
    92cf:	ff ff ff 
    92d2:	c7 85 74 eb ff ff 00 	movl   $0x0,-0x148c(%rbp)
    92d9:	00 00 00 
    92dc:	eb 1a                	jmp    92f8 <func_44+0x310b>
    92de:	8b 85 74 eb ff ff    	mov    -0x148c(%rbp),%eax
    92e4:	48 98                	cltq   
    92e6:	c7 84 85 30 ee ff ff 	movl   $0xffffffff,-0x11d0(%rbp,%rax,4)
    92ed:	ff ff ff ff 
    92f1:	83 85 74 eb ff ff 01 	addl   $0x1,-0x148c(%rbp)
    92f8:	83 bd 74 eb ff ff 00 	cmpl   $0x0,-0x148c(%rbp)
    92ff:	7e dd                	jle    92de <func_44+0x30f1>
    9301:	48 8b 95 28 eb ff ff 	mov    -0x14d8(%rbp),%rdx
    9308:	48 8b 05 21 88 00 00 	mov    0x8821(%rip),%rax        # 11b30 <g_57>
    930f:	8b 12                	mov    (%rdx),%edx
    9311:	89 10                	mov    %edx,(%rax)
    9313:	48 8b 85 80 ed ff ff 	mov    -0x1280(%rbp),%rax
    931a:	8b 10                	mov    (%rax),%edx
    931c:	8b 85 b8 eb ff ff    	mov    -0x1448(%rbp),%eax
    9322:	21 c2                	and    %eax,%edx
    9324:	48 8b 85 80 ed ff ff 	mov    -0x1280(%rbp),%rax
    932b:	89 10                	mov    %edx,(%rax)
    932d:	0f b7 85 be f9 ff ff 	movzwl -0x642(%rbp),%eax
    9334:	66 85 c0             	test   %ax,%ax
    9337:	75 15                	jne    934e <func_44+0x3161>
    9339:	48 8b 05 f0 87 00 00 	mov    0x87f0(%rip),%rax        # 11b30 <g_57>
    9340:	8b 00                	mov    (%rax),%eax
    9342:	85 c0                	test   %eax,%eax
    9344:	75 08                	jne    934e <func_44+0x3161>
    9346:	66 83 bd 20 eb ff ff 	cmpw   $0x0,-0x14e0(%rbp)
    934d:	00 
    934e:	90                   	nop
    934f:	be 07 00 00 00       	mov    $0x7,%esi
    9354:	bf 00 00 00 00       	mov    $0x0,%edi
    9359:	e8 60 a9 ff ff       	callq  3cbe <safe_rshift_func_uint8_t_u_u>
    935e:	0f b6 c0             	movzbl %al,%eax
    9361:	39 85 b0 eb ff ff    	cmp    %eax,-0x1450(%rbp)
    9367:	7e 07                	jle    9370 <func_44+0x3183>
    9369:	bb 7b 15 9e 7c       	mov    $0x7c9e157b,%ebx
    936e:	eb 05                	jmp    9375 <func_44+0x3188>
    9370:	bb 7a 15 9e 7c       	mov    $0x7c9e157a,%ebx
    9375:	0f b7 85 1c eb ff ff 	movzwl -0x14e4(%rbp),%eax
    937c:	0f b6 d0             	movzbl %al,%edx
    937f:	0f b7 85 20 eb ff ff 	movzwl -0x14e0(%rbp),%eax
    9386:	0f b6 c0             	movzbl %al,%eax
    9389:	89 d6                	mov    %edx,%esi
    938b:	89 c7                	mov    %eax,%edi
    938d:	e8 01 a8 ff ff       	callq  3b93 <safe_mul_func_uint8_t_u_u>
    9392:	0f be c0             	movsbl %al,%eax
    9395:	89 de                	mov    %ebx,%esi
    9397:	89 c7                	mov    %eax,%edi
    9399:	e8 ce 9f ff ff       	callq  336c <safe_rshift_func_int8_t_s_u>
    939e:	48 0f be d0          	movsbq %al,%rdx
    93a2:	0f b7 85 20 eb ff ff 	movzwl -0x14e0(%rbp),%eax
    93a9:	48 89 d6             	mov    %rdx,%rsi
    93ac:	48 89 c7             	mov    %rax,%rdi
    93af:	e8 f4 a4 ff ff       	callq  38a8 <safe_sub_func_int64_t_s_s>
    93b4:	48 33 85 88 ec ff ff 	xor    -0x1378(%rbp),%rax
    93bb:	48 89 c2             	mov    %rax,%rdx
    93be:	48 0f be 85 34 eb ff 	movsbq -0x14cc(%rbp),%rax
    93c5:	ff 
    93c6:	48 31 c2             	xor    %rax,%rdx
    93c9:	0f b6 05 13 7e 00 00 	movzbl 0x7e13(%rip),%eax        # 111e3 <g_328+0x3>
    93d0:	48 0f be c0          	movsbq %al,%rax
    93d4:	48 39 c2             	cmp    %rax,%rdx
    93d7:	0f 96 c2             	setbe  %dl
    93da:	48 8b 85 f8 eb ff ff 	mov    -0x1408(%rbp),%rax
    93e1:	0f b6 d2             	movzbl %dl,%edx
    93e4:	66 89 10             	mov    %dx,(%rax)
    93e7:	0f b7 00             	movzwl (%rax),%eax
    93ea:	66 85 c0             	test   %ax,%ax
    93ed:	0f 94 c0             	sete   %al
    93f0:	0f b6 d0             	movzbl %al,%edx
    93f3:	0f b7 85 1c eb ff ff 	movzwl -0x14e4(%rbp),%eax
    93fa:	98                   	cwtl   
    93fb:	31 c2                	xor    %eax,%edx
    93fd:	48 8b 85 50 ed ff ff 	mov    -0x12b0(%rbp),%rax
    9404:	8b 00                	mov    (%rax),%eax
    9406:	09 c2                	or     %eax,%edx
    9408:	48 8b 85 50 ed ff ff 	mov    -0x12b0(%rbp),%rax
    940f:	89 10                	mov    %edx,(%rax)
    9411:	48 8b 85 90 ed ff ff 	mov    -0x1270(%rbp),%rax
    9418:	48 8b 95 78 ec ff ff 	mov    -0x1388(%rbp),%rdx
    941f:	48 89 10             	mov    %rdx,(%rax)
    9422:	48 8b 85 90 ed ff ff 	mov    -0x1270(%rbp),%rax
    9429:	48 8b 00             	mov    (%rax),%rax
    942c:	48 39 85 88 ed ff ff 	cmp    %rax,-0x1278(%rbp)
    9433:	0f 94 c0             	sete   %al
    9436:	0f b6 c0             	movzbl %al,%eax
    9439:	be 07 00 00 00       	mov    $0x7,%esi
    943e:	89 c7                	mov    %eax,%edi
    9440:	e8 f0 9e ff ff       	callq  3335 <safe_rshift_func_int8_t_s_s>
    9445:	0f be c0             	movsbl %al,%eax
    9448:	39 85 5c eb ff ff    	cmp    %eax,-0x14a4(%rbp)
    944e:	0f 95 c0             	setne  %al
    9451:	44 0f b6 e8          	movzbl %al,%r13d
    9455:	0f b7 85 20 eb ff ff 	movzwl -0x14e0(%rbp),%eax
    945c:	0f bf d8             	movswl %ax,%ebx
    945f:	8b 85 b8 eb ff ff    	mov    -0x1448(%rbp),%eax
    9465:	44 0f b6 e0          	movzbl %al,%r12d
    9469:	8b 05 1d 7c 00 00    	mov    0x7c1d(%rip),%eax        # 1108c <g_195+0xc>
    946f:	0f b6 c0             	movzbl %al,%eax
    9472:	be fc 00 00 00       	mov    $0xfc,%esi
    9477:	89 c7                	mov    %eax,%edi
    9479:	e8 15 a7 ff ff       	callq  3b93 <safe_mul_func_uint8_t_u_u>
    947e:	0f b6 d0             	movzbl %al,%edx
    9481:	0f b7 85 20 eb ff ff 	movzwl -0x14e0(%rbp),%eax
    9488:	48 89 d6             	mov    %rdx,%rsi
    948b:	48 89 c7             	mov    %rax,%rdi
    948e:	e8 ae a3 ff ff       	callq  3841 <safe_add_func_int64_t_s_s>
    9493:	89 c2                	mov    %eax,%edx
    9495:	0f b6 05 49 7d 00 00 	movzbl 0x7d49(%rip),%eax        # 111e5 <g_328+0x5>
    949c:	0f be c0             	movsbl %al,%eax
    949f:	09 d0                	or     %edx,%eax
    94a1:	be 02 00 00 00       	mov    $0x2,%esi
    94a6:	89 c7                	mov    %eax,%edi
    94a8:	e8 78 aa ff ff       	callq  3f25 <safe_div_func_uint32_t_u_u>
    94ad:	8b 95 b8 eb ff ff    	mov    -0x1448(%rbp),%edx
    94b3:	39 d0                	cmp    %edx,%eax
    94b5:	0f 93 c0             	setae  %al
    94b8:	0f b6 c0             	movzbl %al,%eax
    94bb:	39 85 b8 eb ff ff    	cmp    %eax,-0x1448(%rbp)
    94c1:	0f 9e c0             	setle  %al
    94c4:	0f b6 d0             	movzbl %al,%edx
    94c7:	8b 85 b8 eb ff ff    	mov    -0x1448(%rbp),%eax
    94cd:	48 98                	cltq   
    94cf:	48 39 c2             	cmp    %rax,%rdx
    94d2:	0f 9c c0             	setl   %al
    94d5:	0f b6 c0             	movzbl %al,%eax
    94d8:	44 89 e6             	mov    %r12d,%esi
    94db:	89 c7                	mov    %eax,%edi
    94dd:	e8 cc a6 ff ff       	callq  3bae <safe_mod_func_uint8_t_u_u>
    94e2:	0f b7 95 be f9 ff ff 	movzwl -0x642(%rbp),%edx
    94e9:	0f b7 05 aa 7c 00 00 	movzwl 0x7caa(%rip),%eax        # 1119a <g_323+0xba>
    94f0:	66 39 c2             	cmp    %ax,%dx
    94f3:	0f 95 c0             	setne  %al
    94f6:	0f b6 c0             	movzbl %al,%eax
    94f9:	be f6 ff ff ff       	mov    $0xfffffff6,%esi
    94fe:	89 c7                	mov    %eax,%edi
    9500:	e8 f0 9e ff ff       	callq  33f5 <safe_mul_func_int16_t_s_s>
    9505:	98                   	cwtl   
    9506:	89 de                	mov    %ebx,%esi
    9508:	89 c7                	mov    %eax,%edi
    950a:	e8 e6 9e ff ff       	callq  33f5 <safe_mul_func_int16_t_s_s>
    950f:	0f bf d0             	movswl %ax,%edx
    9512:	48 8b 85 28 eb ff ff 	mov    -0x14d8(%rbp),%rax
    9519:	8b 00                	mov    (%rax),%eax
    951b:	39 c2                	cmp    %eax,%edx
    951d:	0f b7 05 96 7c 00 00 	movzwl 0x7c96(%rip),%eax        # 111ba <g_323+0xda>
    9524:	0f b7 d0             	movzwl %ax,%edx
    9527:	48 8b 05 8a 7b 00 00 	mov    0x7b8a(%rip),%rax        # 110b8 <g_206>
    952e:	48 39 c2             	cmp    %rax,%rdx
    9531:	0f 93 c2             	setae  %dl
    9534:	48 8b 85 58 ec ff ff 	mov    -0x13a8(%rbp),%rax
    953b:	0f b6 d2             	movzbl %dl,%edx
    953e:	66 89 10             	mov    %dx,(%rax)
    9541:	0f b7 00             	movzwl (%rax),%eax
    9544:	0f b7 d0             	movzwl %ax,%edx
    9547:	0f b6 05 93 7c 00 00 	movzbl 0x7c93(%rip),%eax        # 111e1 <g_328+0x1>
    954e:	48 0f be c0          	movsbq %al,%rax
    9552:	48 09 d0             	or     %rdx,%rax
    9555:	49 39 c5             	cmp    %rax,%r13
    9558:	0f 95 c0             	setne  %al
    955b:	0f b6 c0             	movzbl %al,%eax
    955e:	be 01 00 00 00       	mov    $0x1,%esi
    9563:	89 c7                	mov    %eax,%edi
    9565:	e8 8b 9e ff ff       	callq  33f5 <safe_mul_func_int16_t_s_s>
    956a:	48 8b 05 ff 88 00 00 	mov    0x88ff(%rip),%rax        # 11e70 <g_213>
    9571:	48 8b 00             	mov    (%rax),%rax
    9574:	48 8b 00             	mov    (%rax),%rax
    9577:	48 8b 00             	mov    (%rax),%rax
    957a:	0f b7 00             	movzwl (%rax),%eax
    957d:	e9 2a 18 00 00       	jmpq   adac <func_44+0x4bbf>
    9582:	48 8d 85 20 ec ff ff 	lea    -0x13e0(%rbp),%rax
    9589:	48 89 85 70 ed ff ff 	mov    %rax,-0x1290(%rbp)
    9590:	48 c7 05 3d 7b 00 00 	movq   $0x1,0x7b3d(%rip)        # 110d8 <g_281>
    9597:	01 00 00 00 
    959b:	90                   	nop
    959c:	48 8b 05 35 7b 00 00 	mov    0x7b35(%rip),%rax        # 110d8 <g_281>
    95a3:	48 83 f8 f9          	cmp    $0xfffffffffffffff9,%rax
    95a7:	74 15                	je     95be <func_44+0x33d1>
    95a9:	66 c7 85 3c eb ff ff 	movw   $0xacbe,-0x14c4(%rbp)
    95b0:	be ac 
    95b2:	0f b7 85 3c eb ff ff 	movzwl -0x14c4(%rbp),%eax
    95b9:	e9 ee 17 00 00       	jmpq   adac <func_44+0x4bbf>
    95be:	66 83 bd 24 eb ff ff 	cmpw   $0x0,-0x14dc(%rbp)
    95c5:	00 
    95c6:	0f 95 c0             	setne  %al
    95c9:	44 0f b6 e8          	movzbl %al,%r13d
    95cd:	0f b7 85 1c eb ff ff 	movzwl -0x14e4(%rbp),%eax
    95d4:	48 0f bf d8          	movswq %ax,%rbx
    95d8:	8b 05 62 7a 00 00    	mov    0x7a62(%rip),%eax        # 11040 <g_19>
    95de:	89 c2                	mov    %eax,%edx
    95e0:	66 83 bd 24 eb ff ff 	cmpw   $0x0,-0x14dc(%rbp)
    95e7:	00 
    95e8:	0f 95 c0             	setne  %al
    95eb:	0f b6 c0             	movzbl %al,%eax
    95ee:	89 d6                	mov    %edx,%esi
    95f0:	89 c7                	mov    %eax,%edi
    95f2:	e8 ea 9e ff ff       	callq  34e1 <safe_lshift_func_int16_t_s_u>
    95f7:	44 0f b7 a5 20 eb ff 	movzwl -0x14e0(%rbp),%r12d
    95fe:	ff 
    95ff:	48 8b 85 10 ec ff ff 	mov    -0x13f0(%rbp),%rax
    9606:	48 8d 15 47 7a 00 00 	lea    0x7a47(%rip),%rdx        # 11054 <g_64>
    960d:	48 39 d0             	cmp    %rdx,%rax
    9610:	0f 95 c0             	setne  %al
    9613:	0f b6 d0             	movzbl %al,%edx
    9616:	0f b7 05 39 7a 00 00 	movzwl 0x7a39(%rip),%eax        # 11056 <g_69>
    961d:	0f b6 c0             	movzbl %al,%eax
    9620:	89 d6                	mov    %edx,%esi
    9622:	89 c7                	mov    %eax,%edi
    9624:	e8 4f a5 ff ff       	callq  3b78 <safe_sub_func_uint8_t_u_u>
    9629:	0f be c0             	movsbl %al,%eax
    962c:	44 89 e6             	mov    %r12d,%esi
    962f:	89 c7                	mov    %eax,%edi
    9631:	e8 6b 9c ff ff       	callq  32a1 <safe_lshift_func_int8_t_s_s>
    9636:	48 0f be c0          	movsbq %al,%rax
    963a:	0f b7 95 24 eb ff ff 	movzwl -0x14dc(%rbp),%edx
    9641:	48 83 f2 f9          	xor    $0xfffffffffffffff9,%rdx
    9645:	48 39 d0             	cmp    %rdx,%rax
    9648:	0f 97 c0             	seta   %al
    964b:	0f b6 c0             	movzbl %al,%eax
    964e:	48 89 de             	mov    %rbx,%rsi
    9651:	48 89 c7             	mov    %rax,%rdi
    9654:	e8 9e a3 ff ff       	callq  39f7 <safe_div_func_int64_t_s_s>
    9659:	44 31 e8             	xor    %r13d,%eax
    965c:	98                   	cwtl   
    965d:	be 00 00 00 00       	mov    $0x0,%esi
    9662:	89 c7                	mov    %eax,%edi
    9664:	e8 8c 9d ff ff       	callq  33f5 <safe_mul_func_int16_t_s_s>
    9669:	0f be c0             	movsbl %al,%eax
    966c:	be 03 00 00 00       	mov    $0x3,%esi
    9671:	89 c7                	mov    %eax,%edi
    9673:	e8 f4 9c ff ff       	callq  336c <safe_rshift_func_int8_t_s_u>
    9678:	84 c0                	test   %al,%al
    967a:	74 13                	je     968f <func_44+0x34a2>
    967c:	0f b7 85 1c eb ff ff 	movzwl -0x14e4(%rbp),%eax
    9683:	66 85 c0             	test   %ax,%ax
    9686:	74 07                	je     968f <func_44+0x34a2>
    9688:	b8 01 00 00 00       	mov    $0x1,%eax
    968d:	eb 05                	jmp    9694 <func_44+0x34a7>
    968f:	b8 00 00 00 00       	mov    $0x0,%eax
    9694:	0f be c0             	movsbl %al,%eax
    9697:	be 06 00 00 00       	mov    $0x6,%esi
    969c:	89 c7                	mov    %eax,%edi
    969e:	e8 c9 9c ff ff       	callq  336c <safe_rshift_func_int8_t_s_u>
    96a3:	84 c0                	test   %al,%al
    96a5:	0f 95 c0             	setne  %al
    96a8:	0f b6 c0             	movzbl %al,%eax
    96ab:	be 01 00 00 00       	mov    $0x1,%esi
    96b0:	89 c7                	mov    %eax,%edi
    96b2:	e8 c3 a7 ff ff       	callq  3e7a <safe_rshift_func_uint16_t_u_u>
    96b7:	0f b7 d0             	movzwl %ax,%edx
    96ba:	48 8b 85 08 ec ff ff 	mov    -0x13f8(%rbp),%rax
    96c1:	8b 8d b4 eb ff ff    	mov    -0x144c(%rbp),%ecx
    96c7:	48 63 c9             	movslq %ecx,%rcx
    96ca:	48 89 08             	mov    %rcx,(%rax)
    96cd:	48 8b 08             	mov    (%rax),%rcx
    96d0:	48 8b 85 70 ed ff ff 	mov    -0x1290(%rbp),%rax
    96d7:	48 89 08             	mov    %rcx,(%rax)
    96da:	48 8b 85 70 ed ff ff 	mov    -0x1290(%rbp),%rax
    96e1:	48 8b 00             	mov    (%rax),%rax
    96e4:	48 89 d6             	mov    %rdx,%rsi
    96e7:	48 89 c7             	mov    %rax,%rdi
    96ea:	e8 5c a9 ff ff       	callq  404b <safe_sub_func_uint64_t_u_u>
    96ef:	48 89 c2             	mov    %rax,%rdx
    96f2:	48 8b 05 3f 84 00 00 	mov    0x843f(%rip),%rax        # 11b38 <g_56>
    96f9:	48 8b 00             	mov    (%rax),%rax
    96fc:	89 10                	mov    %edx,(%rax)
    96fe:	0f be 9d 35 eb ff ff 	movsbl -0x14cb(%rbp),%ebx
    9705:	66 83 bd 24 eb ff ff 	cmpw   $0x0,-0x14dc(%rbp)
    970c:	00 
    970d:	0f 84 8e 00 00 00    	je     97a1 <func_44+0x35b4>
    9713:	44 0f b7 a5 20 eb ff 	movzwl -0x14e0(%rbp),%r12d
    971a:	ff 
    971b:	48 8b 85 28 ed ff ff 	mov    -0x12d8(%rbp),%rax
    9722:	0f b7 00             	movzwl (%rax),%eax
    9725:	8d 50 ff             	lea    -0x1(%rax),%edx
    9728:	48 8b 85 28 ed ff ff 	mov    -0x12d8(%rbp),%rax
    972f:	66 89 10             	mov    %dx,(%rax)
    9732:	48 8b 95 28 ec ff ff 	mov    -0x13d8(%rbp),%rdx
    9739:	48 8b 85 30 ed ff ff 	mov    -0x12d0(%rbp),%rax
    9740:	48 89 10             	mov    %rdx,(%rax)
    9743:	be 0d 00 00 00       	mov    $0xd,%esi
    9748:	bf 01 00 00 00       	mov    $0x1,%edi
    974d:	e8 40 9d ff ff       	callq  3492 <safe_lshift_func_int16_t_s_s>
    9752:	66 85 c0             	test   %ax,%ax
    9755:	be b3 fb 85 1c       	mov    $0x1c85fbb3,%esi
    975a:	bf 00 00 00 00       	mov    $0x0,%edi
    975f:	e8 52 9e ff ff       	callq  35b6 <safe_add_func_int32_t_s_s>
    9764:	41 39 c4             	cmp    %eax,%r12d
    9767:	0f 9e c0             	setle  %al
    976a:	0f b6 d0             	movzbl %al,%edx
    976d:	48 8b 85 38 ed ff ff 	mov    -0x12c8(%rbp),%rax
    9774:	89 10                	mov    %edx,(%rax)
    9776:	48 8b 85 38 ed ff ff 	mov    -0x12c8(%rbp),%rax
    977d:	8b 10                	mov    (%rax),%edx
    977f:	0f b7 85 20 eb ff ff 	movzwl -0x14e0(%rbp),%eax
    9786:	39 c2                	cmp    %eax,%edx
    9788:	0f 95 c0             	setne  %al
    978b:	0f b6 d0             	movzbl %al,%edx
    978e:	8b 05 bc 78 00 00    	mov    0x78bc(%rip),%eax        # 11050 <g_58>
    9794:	21 d0                	and    %edx,%eax
    9796:	85 c0                	test   %eax,%eax
    9798:	74 07                	je     97a1 <func_44+0x35b4>
    979a:	b8 01 00 00 00       	mov    $0x1,%eax
    979f:	eb 05                	jmp    97a6 <func_44+0x35b9>
    97a1:	b8 00 00 00 00       	mov    $0x0,%eax
    97a6:	98                   	cwtl   
    97a7:	be 04 00 00 00       	mov    $0x4,%esi
    97ac:	89 c7                	mov    %eax,%edi
    97ae:	e8 b0 9d ff ff       	callq  3563 <safe_rshift_func_int16_t_s_u>
    97b3:	98                   	cwtl   
    97b4:	89 de                	mov    %ebx,%esi
    97b6:	89 c7                	mov    %eax,%edi
    97b8:	e8 f9 9d ff ff       	callq  35b6 <safe_add_func_int32_t_s_s>
    97bd:	0f b7 95 1c eb ff ff 	movzwl -0x14e4(%rbp),%edx
    97c4:	0f bf d2             	movswl %dx,%edx
    97c7:	21 d0                	and    %edx,%eax
    97c9:	f7 d0                	not    %eax
    97cb:	23 85 a8 eb ff ff    	and    -0x1458(%rbp),%eax
    97d1:	89 c2                	mov    %eax,%edx
    97d3:	48 8b 05 5e 83 00 00 	mov    0x835e(%rip),%rax        # 11b38 <g_56>
    97da:	48 8b 00             	mov    (%rax),%rax
    97dd:	89 10                	mov    %edx,(%rax)
    97df:	48 8b 05 92 86 00 00 	mov    0x8692(%rip),%rax        # 11e78 <g_309>
    97e6:	48 8b 95 28 eb ff ff 	mov    -0x14d8(%rbp),%rdx
    97ed:	48 89 10             	mov    %rdx,(%rax)
    97f0:	48 8b 05 89 86 00 00 	mov    0x8689(%rip),%rax        # 11e80 <g_533>
    97f7:	48 8b 95 40 ed ff ff 	mov    -0x12c0(%rbp),%rdx
    97fe:	48 89 10             	mov    %rdx,(%rax)
    9801:	e9 89 15 00 00       	jmpq   ad8f <func_44+0x4ba2>
    9806:	48 c7 85 68 ec ff ff 	movq   $0x8,-0x1398(%rbp)
    980d:	08 00 00 00 
    9811:	48 8d 05 b0 78 00 00 	lea    0x78b0(%rip),%rax        # 110c8 <g_230>
    9818:	48 89 85 70 ec ff ff 	mov    %rax,-0x1390(%rbp)
    981f:	c7 85 48 eb ff ff ec 	movl   $0xcc41eaec,-0x14b8(%rbp)
    9826:	ea 41 cc 
    9829:	c7 85 50 eb ff ff 00 	movl   $0x0,-0x14b0(%rbp)
    9830:	00 00 00 
    9833:	c7 85 4c eb ff ff fa 	movl   $0xfffffffa,-0x14b4(%rbp)
    983a:	ff ff ff 
    983d:	c7 85 b0 ee ff ff 03 	movl   $0x3,-0x1150(%rbp)
    9844:	00 00 00 
    9847:	c7 85 b4 ee ff ff 25 	movl   $0x4adfc325,-0x114c(%rbp)
    984e:	c3 df 4a 
    9851:	c7 85 b8 ee ff ff 25 	movl   $0x4adfc325,-0x1148(%rbp)
    9858:	c3 df 4a 
    985b:	c7 85 bc ee ff ff 03 	movl   $0x3,-0x1144(%rbp)
    9862:	00 00 00 
    9865:	c7 85 c0 ee ff ff 01 	movl   $0x1,-0x1140(%rbp)
    986c:	00 00 00 
    986f:	c7 85 c4 ee ff ff 03 	movl   $0x3,-0x113c(%rbp)
    9876:	00 00 00 
    9879:	c7 85 c8 ee ff ff 25 	movl   $0x4adfc325,-0x1138(%rbp)
    9880:	c3 df 4a 
    9883:	c7 85 cc ee ff ff 25 	movl   $0x4adfc325,-0x1134(%rbp)
    988a:	c3 df 4a 
    988d:	c7 85 d0 ee ff ff 03 	movl   $0x3,-0x1130(%rbp)
    9894:	00 00 00 
    9897:	c7 85 d4 ee ff ff 01 	movl   $0x1,-0x112c(%rbp)
    989e:	00 00 00 
    98a1:	c7 85 d8 ee ff ff 03 	movl   $0x3,-0x1128(%rbp)
    98a8:	00 00 00 
    98ab:	c7 85 dc ee ff ff 25 	movl   $0x4adfc325,-0x1124(%rbp)
    98b2:	c3 df 4a 
    98b5:	c7 85 e0 ee ff ff 25 	movl   $0x4adfc325,-0x1120(%rbp)
    98bc:	c3 df 4a 
    98bf:	c7 85 e4 ee ff ff 03 	movl   $0x3,-0x111c(%rbp)
    98c6:	00 00 00 
    98c9:	c7 85 e8 ee ff ff 01 	movl   $0x1,-0x1118(%rbp)
    98d0:	00 00 00 
    98d3:	c7 85 ec ee ff ff 03 	movl   $0x3,-0x1114(%rbp)
    98da:	00 00 00 
    98dd:	c7 85 f0 ee ff ff 25 	movl   $0x4adfc325,-0x1110(%rbp)
    98e4:	c3 df 4a 
    98e7:	c7 85 f4 ee ff ff 25 	movl   $0x4adfc325,-0x110c(%rbp)
    98ee:	c3 df 4a 
    98f1:	48 8d 05 62 77 00 00 	lea    0x7762(%rip),%rax        # 1105a <g_103>
    98f8:	48 89 85 48 ec ff ff 	mov    %rax,-0x13b8(%rbp)
    98ff:	48 c7 85 60 ec ff ff 	movq   $0x0,-0x13a0(%rbp)
    9906:	00 00 00 00 
    990a:	c6 85 33 eb ff ff 01 	movb   $0x1,-0x14cd(%rbp)
    9911:	48 8b 85 10 ec ff ff 	mov    -0x13f0(%rbp),%rax
    9918:	48 85 c0             	test   %rax,%rax
    991b:	0f 95 c0             	setne  %al
    991e:	0f b6 d0             	movzbl %al,%edx
    9921:	0f b7 05 2e 77 00 00 	movzwl 0x772e(%rip),%eax        # 11056 <g_69>
    9928:	0f b7 c0             	movzwl %ax,%eax
    992b:	89 d6                	mov    %edx,%esi
    992d:	89 c7                	mov    %eax,%edi
    992f:	e8 eb a3 ff ff       	callq  3d1f <safe_sub_func_uint16_t_u_u>
    9934:	0f b6 c0             	movzbl %al,%eax
    9937:	be 01 00 00 00       	mov    $0x1,%esi
    993c:	89 c7                	mov    %eax,%edi
    993e:	e8 4a a3 ff ff       	callq  3c8d <safe_rshift_func_uint8_t_u_s>
    9943:	84 c0                	test   %al,%al
    9945:	75 7d                	jne    99c4 <func_44+0x37d7>
    9947:	48 83 bd 68 ec ff ff 	cmpq   $0x1,-0x1398(%rbp)
    994e:	01 
    994f:	0f 95 c0             	setne  %al
    9952:	0f b6 d0             	movzbl %al,%edx
    9955:	0f b7 85 24 eb ff ff 	movzwl -0x14dc(%rbp),%eax
    995c:	89 d6                	mov    %edx,%esi
    995e:	89 c7                	mov    %eax,%edi
    9960:	e8 d8 a3 ff ff       	callq  3d3d <safe_mul_func_uint16_t_u_u>
    9965:	0f b7 d0             	movzwl %ax,%edx
    9968:	48 8b 85 70 ec ff ff 	mov    -0x1390(%rbp),%rax
    996f:	48 89 10             	mov    %rdx,(%rax)
    9972:	0f b7 85 24 eb ff ff 	movzwl -0x14dc(%rbp),%eax
    9979:	0f be d8             	movsbl %al,%ebx
    997c:	44 0f b7 a5 24 eb ff 	movzwl -0x14dc(%rbp),%r12d
    9983:	ff 
    9984:	0f b7 85 24 eb ff ff 	movzwl -0x14dc(%rbp),%eax
    998b:	41 89 c5             	mov    %eax,%r13d
    998e:	0f b7 85 24 eb ff ff 	movzwl -0x14dc(%rbp),%eax
    9995:	98                   	cwtl   
    9996:	be 04 00 00 00       	mov    $0x4,%esi
    999b:	89 c7                	mov    %eax,%edi
    999d:	e8 88 9b ff ff       	callq  352a <safe_rshift_func_int16_t_s_s>
    99a2:	44 31 e8             	xor    %r13d,%eax
    99a5:	0f be c0             	movsbl %al,%eax
    99a8:	44 89 e6             	mov    %r12d,%esi
    99ab:	89 c7                	mov    %eax,%edi
    99ad:	e8 3c 99 ff ff       	callq  32ee <safe_lshift_func_int8_t_s_u>
    99b2:	0f be c0             	movsbl %al,%eax
    99b5:	89 de                	mov    %ebx,%esi
    99b7:	89 c7                	mov    %eax,%edi
    99b9:	e8 16 98 ff ff       	callq  31d4 <safe_add_func_int8_t_s_s>
    99be:	8b 05 d8 76 00 00    	mov    0x76d8(%rip),%eax        # 1109c <g_195+0x1c>
    99c4:	b8 01 00 00 00       	mov    $0x1,%eax
    99c9:	48 98                	cltq   
    99cb:	48 39 85 68 ec ff ff 	cmp    %rax,-0x1398(%rbp)
    99d2:	0f 82 a4 0d 00 00    	jb     a77c <func_44+0x458f>
    99d8:	48 8d 05 21 85 00 00 	lea    0x8521(%rip),%rax        # 11f00 <g_553>
    99df:	48 89 85 c8 ec ff ff 	mov    %rax,-0x1338(%rbp)
    99e6:	c7 85 58 ec ff ff 00 	movl   $0x0,-0x13a8(%rbp)
    99ed:	00 00 00 
    99f0:	c7 85 8c eb ff ff 7f 	movl   $0x8957d17f,-0x1474(%rbp)
    99f7:	d1 57 89 
    99fa:	c7 85 90 eb ff ff 00 	movl   $0x0,-0x1470(%rbp)
    9a01:	00 00 00 
    9a04:	66 c7 85 38 eb ff ff 	movw   $0xfff8,-0x14c8(%rbp)
    9a0b:	f8 ff 
    9a0d:	c7 85 94 eb ff ff f7 	movl   $0xfffffff7,-0x146c(%rbp)
    9a14:	ff ff ff 
    9a17:	c7 85 98 eb ff ff 02 	movl   $0x2,-0x1468(%rbp)
    9a1e:	00 00 00 
    9a21:	c7 85 9c eb ff ff 9c 	movl   $0xe984719c,-0x1464(%rbp)
    9a28:	71 84 e9 
    9a2b:	c7 85 a0 eb ff ff 84 	movl   $0x7411f484,-0x1460(%rbp)
    9a32:	f4 11 74 
    9a35:	c7 85 f0 ef ff ff 06 	movl   $0x6,-0x1010(%rbp)
    9a3c:	00 00 00 
    9a3f:	c7 85 f4 ef ff ff 1b 	movl   $0xa6b6611b,-0x100c(%rbp)
    9a46:	61 b6 a6 
    9a49:	c7 85 f8 ef ff ff 06 	movl   $0x6,-0x1008(%rbp)
    9a50:	00 00 00 
    9a53:	c7 85 fc ef ff ff 06 	movl   $0x6,-0x1004(%rbp)
    9a5a:	00 00 00 
    9a5d:	c7 85 00 f0 ff ff 1b 	movl   $0xa6b6611b,-0x1000(%rbp)
    9a64:	61 b6 a6 
    9a67:	c7 85 04 f0 ff ff 06 	movl   $0x6,-0xffc(%rbp)
    9a6e:	00 00 00 
    9a71:	c7 85 08 f0 ff ff 06 	movl   $0x6,-0xff8(%rbp)
    9a78:	00 00 00 
    9a7b:	c7 85 0c f0 ff ff 1b 	movl   $0xa6b6611b,-0xff4(%rbp)
    9a82:	61 b6 a6 
    9a85:	c7 85 10 f0 ff ff 06 	movl   $0x6,-0xff0(%rbp)
    9a8c:	00 00 00 
    9a8f:	c7 85 14 f0 ff ff 06 	movl   $0x6,-0xfec(%rbp)
    9a96:	00 00 00 
    9a99:	c7 85 18 f0 ff ff 1b 	movl   $0xa6b6611b,-0xfe8(%rbp)
    9aa0:	61 b6 a6 
    9aa3:	c7 85 1c f0 ff ff 06 	movl   $0x6,-0xfe4(%rbp)
    9aaa:	00 00 00 
    9aad:	c7 85 20 f0 ff ff 06 	movl   $0x6,-0xfe0(%rbp)
    9ab4:	00 00 00 
    9ab7:	c7 85 24 f0 ff ff 1b 	movl   $0xa6b6611b,-0xfdc(%rbp)
    9abe:	61 b6 a6 
    9ac1:	c7 85 28 f0 ff ff 06 	movl   $0x6,-0xfd8(%rbp)
    9ac8:	00 00 00 
    9acb:	c7 85 2c f0 ff ff 06 	movl   $0x6,-0xfd4(%rbp)
    9ad2:	00 00 00 
    9ad5:	c7 85 30 f0 ff ff 1b 	movl   $0xa6b6611b,-0xfd0(%rbp)
    9adc:	61 b6 a6 
    9adf:	c7 85 34 f0 ff ff 06 	movl   $0x6,-0xfcc(%rbp)
    9ae6:	00 00 00 
    9ae9:	c7 85 38 f0 ff ff 06 	movl   $0x6,-0xfc8(%rbp)
    9af0:	00 00 00 
    9af3:	c7 85 3c f0 ff ff 1b 	movl   $0xa6b6611b,-0xfc4(%rbp)
    9afa:	61 b6 a6 
    9afd:	c7 85 40 f0 ff ff 06 	movl   $0x6,-0xfc0(%rbp)
    9b04:	00 00 00 
    9b07:	c7 85 44 f0 ff ff 06 	movl   $0x6,-0xfbc(%rbp)
    9b0e:	00 00 00 
    9b11:	c7 85 48 f0 ff ff 1b 	movl   $0xa6b6611b,-0xfb8(%rbp)
    9b18:	61 b6 a6 
    9b1b:	c7 85 4c f0 ff ff 06 	movl   $0x6,-0xfb4(%rbp)
    9b22:	00 00 00 
    9b25:	c7 85 50 f0 ff ff 06 	movl   $0x6,-0xfb0(%rbp)
    9b2c:	00 00 00 
    9b2f:	c7 85 54 f0 ff ff 1b 	movl   $0xa6b6611b,-0xfac(%rbp)
    9b36:	61 b6 a6 
    9b39:	c7 85 58 f0 ff ff 06 	movl   $0x6,-0xfa8(%rbp)
    9b40:	00 00 00 
    9b43:	c7 85 5c f0 ff ff 06 	movl   $0x6,-0xfa4(%rbp)
    9b4a:	00 00 00 
    9b4d:	c7 85 60 f0 ff ff 1b 	movl   $0xa6b6611b,-0xfa0(%rbp)
    9b54:	61 b6 a6 
    9b57:	c7 85 64 f0 ff ff 06 	movl   $0x6,-0xf9c(%rbp)
    9b5e:	00 00 00 
    9b61:	c7 85 68 f0 ff ff 06 	movl   $0x6,-0xf98(%rbp)
    9b68:	00 00 00 
    9b6b:	c7 85 6c f0 ff ff 1b 	movl   $0xa6b6611b,-0xf94(%rbp)
    9b72:	61 b6 a6 
    9b75:	c7 85 70 f0 ff ff 06 	movl   $0x6,-0xf90(%rbp)
    9b7c:	00 00 00 
    9b7f:	c7 85 74 f0 ff ff 06 	movl   $0x6,-0xf8c(%rbp)
    9b86:	00 00 00 
    9b89:	c7 85 78 f0 ff ff 1b 	movl   $0xa6b6611b,-0xf88(%rbp)
    9b90:	61 b6 a6 
    9b93:	c7 85 7c f0 ff ff 06 	movl   $0x6,-0xf84(%rbp)
    9b9a:	00 00 00 
    9b9d:	c7 85 80 f0 ff ff 06 	movl   $0x6,-0xf80(%rbp)
    9ba4:	00 00 00 
    9ba7:	c7 85 84 f0 ff ff 1b 	movl   $0xa6b6611b,-0xf7c(%rbp)
    9bae:	61 b6 a6 
    9bb1:	c7 85 88 f0 ff ff 06 	movl   $0x6,-0xf78(%rbp)
    9bb8:	00 00 00 
    9bbb:	c7 85 8c f0 ff ff 06 	movl   $0x6,-0xf74(%rbp)
    9bc2:	00 00 00 
    9bc5:	c7 85 90 f0 ff ff 1b 	movl   $0xa6b6611b,-0xf70(%rbp)
    9bcc:	61 b6 a6 
    9bcf:	c7 85 94 f0 ff ff 06 	movl   $0x6,-0xf6c(%rbp)
    9bd6:	00 00 00 
    9bd9:	48 8d 85 b0 f3 ff ff 	lea    -0xc50(%rbp),%rax
    9be0:	48 8d 15 d9 7a 00 00 	lea    0x7ad9(%rip),%rdx        # 116c0 <g_1078+0x460>
    9be7:	b9 8c 00 00 00       	mov    $0x8c,%ecx
    9bec:	48 89 c7             	mov    %rax,%rdi
    9bef:	48 89 d6             	mov    %rdx,%rsi
    9bf2:	f3 48 a5             	rep movsq %ds:(%rsi),%es:(%rdi)
    9bf5:	c7 85 78 eb ff ff 00 	movl   $0x0,-0x1488(%rbp)
    9bfc:	00 00 00 
    9bff:	eb 50                	jmp    9c51 <func_44+0x3a64>
    9c01:	c7 85 7c eb ff ff 00 	movl   $0x0,-0x1484(%rbp)
    9c08:	00 00 00 
    9c0b:	eb 34                	jmp    9c41 <func_44+0x3a54>
    9c0d:	8b 85 7c eb ff ff    	mov    -0x1484(%rbp),%eax
    9c13:	48 63 c8             	movslq %eax,%rcx
    9c16:	8b 85 78 eb ff ff    	mov    -0x1488(%rbp),%eax
    9c1c:	48 63 d0             	movslq %eax,%rdx
    9c1f:	48 89 d0             	mov    %rdx,%rax
    9c22:	48 01 c0             	add    %rax,%rax
    9c25:	48 01 d0             	add    %rdx,%rax
    9c28:	48 01 c8             	add    %rcx,%rax
    9c2b:	48 8d 15 30 75 00 00 	lea    0x7530(%rip),%rdx        # 11162 <g_323+0x82>
    9c32:	48 89 94 c5 00 ef ff 	mov    %rdx,-0x1100(%rbp,%rax,8)
    9c39:	ff 
    9c3a:	83 85 7c eb ff ff 01 	addl   $0x1,-0x1484(%rbp)
    9c41:	83 bd 7c eb ff ff 02 	cmpl   $0x2,-0x1484(%rbp)
    9c48:	7e c3                	jle    9c0d <func_44+0x3a20>
    9c4a:	83 85 78 eb ff ff 01 	addl   $0x1,-0x1488(%rbp)
    9c51:	83 bd 78 eb ff ff 04 	cmpl   $0x4,-0x1488(%rbp)
    9c58:	7e a7                	jle    9c01 <func_44+0x3a14>
    9c5a:	48 8b 95 40 ec ff ff 	mov    -0x13c0(%rbp),%rdx
    9c61:	48 8b 85 c8 ec ff ff 	mov    -0x1338(%rbp),%rax
    9c68:	48 89 10             	mov    %rdx,(%rax)
    9c6b:	0f b7 85 1c eb ff ff 	movzwl -0x14e4(%rbp),%eax
    9c72:	66 85 c0             	test   %ax,%ax
    9c75:	0f 95 c0             	setne  %al
    9c78:	0f b6 c0             	movzbl %al,%eax
    9c7b:	be 91 9c 2d 32       	mov    $0x322d9c91,%esi
    9c80:	89 c7                	mov    %eax,%edi
    9c82:	e8 5a 98 ff ff       	callq  34e1 <safe_lshift_func_int16_t_s_u>
    9c87:	48 0f bf d0          	movswq %ax,%rdx
    9c8b:	48 8b 85 70 ec ff ff 	mov    -0x1390(%rbp),%rax
    9c92:	48 89 10             	mov    %rdx,(%rax)
    9c95:	48 8b 85 70 ec ff ff 	mov    -0x1390(%rbp),%rax
    9c9c:	48 8b 00             	mov    (%rax),%rax
    9c9f:	48 83 f8 ff          	cmp    $0xffffffffffffffff,%rax
    9ca3:	7c 1c                	jl     9cc1 <func_44+0x3ad4>
    9ca5:	48 8b 85 10 ec ff ff 	mov    -0x13f0(%rbp),%rax
    9cac:	c6 00 01             	movb   $0x1,(%rax)
    9caf:	48 8b 05 7a 7e 00 00 	mov    0x7e7a(%rip),%rax        # 11b30 <g_57>
    9cb6:	c7 00 fe ff ff ff    	movl   $0xfffffffe,(%rax)
    9cbc:	e9 aa 09 00 00       	jmpq   a66b <func_44+0x447e>
    9cc1:	48 8d 85 48 eb ff ff 	lea    -0x14b8(%rbp),%rax
    9cc8:	48 89 85 d0 ec ff ff 	mov    %rax,-0x1330(%rbp)
    9ccf:	48 8d 05 6a 73 00 00 	lea    0x736a(%rip),%rax        # 11040 <g_19>
    9cd6:	48 89 85 d8 ec ff ff 	mov    %rax,-0x1328(%rbp)
    9cdd:	48 8d 85 40 eb ff ff 	lea    -0x14c0(%rbp),%rax
    9ce4:	48 89 85 e0 ec ff ff 	mov    %rax,-0x1320(%rbp)
    9ceb:	48 c7 85 e8 ec ff ff 	movq   $0x0,-0x1318(%rbp)
    9cf2:	00 00 00 00 
    9cf6:	48 8d 85 44 eb ff ff 	lea    -0x14bc(%rbp),%rax
    9cfd:	48 89 85 f0 ec ff ff 	mov    %rax,-0x1310(%rbp)
    9d04:	48 8d 85 44 eb ff ff 	lea    -0x14bc(%rbp),%rax
    9d0b:	48 89 85 f8 ec ff ff 	mov    %rax,-0x1308(%rbp)
    9d12:	48 8d 85 80 ee ff ff 	lea    -0x1180(%rbp),%rax
    9d19:	48 83 c0 1c          	add    $0x1c,%rax
    9d1d:	48 89 85 30 f8 ff ff 	mov    %rax,-0x7d0(%rbp)
    9d24:	48 8d 85 40 eb ff ff 	lea    -0x14c0(%rbp),%rax
    9d2b:	48 89 85 38 f8 ff ff 	mov    %rax,-0x7c8(%rbp)
    9d32:	48 8d 85 58 ec ff ff 	lea    -0x13a8(%rbp),%rax
    9d39:	48 89 85 40 f8 ff ff 	mov    %rax,-0x7c0(%rbp)
    9d40:	48 8d 85 40 eb ff ff 	lea    -0x14c0(%rbp),%rax
    9d47:	48 89 85 48 f8 ff ff 	mov    %rax,-0x7b8(%rbp)
    9d4e:	48 8d 85 80 ee ff ff 	lea    -0x1180(%rbp),%rax
    9d55:	48 83 c0 1c          	add    $0x1c,%rax
    9d59:	48 89 85 50 f8 ff ff 	mov    %rax,-0x7b0(%rbp)
    9d60:	48 8d 85 80 ee ff ff 	lea    -0x1180(%rbp),%rax
    9d67:	48 83 c0 1c          	add    $0x1c,%rax
    9d6b:	48 89 85 58 f8 ff ff 	mov    %rax,-0x7a8(%rbp)
    9d72:	48 8d 85 40 eb ff ff 	lea    -0x14c0(%rbp),%rax
    9d79:	48 89 85 60 f8 ff ff 	mov    %rax,-0x7a0(%rbp)
    9d80:	48 8d 85 58 ec ff ff 	lea    -0x13a8(%rbp),%rax
    9d87:	48 89 85 68 f8 ff ff 	mov    %rax,-0x798(%rbp)
    9d8e:	48 8d 85 40 eb ff ff 	lea    -0x14c0(%rbp),%rax
    9d95:	48 89 85 70 f8 ff ff 	mov    %rax,-0x790(%rbp)
    9d9c:	48 8d 85 40 eb ff ff 	lea    -0x14c0(%rbp),%rax
    9da3:	48 89 85 78 f8 ff ff 	mov    %rax,-0x788(%rbp)
    9daa:	48 8d 85 48 eb ff ff 	lea    -0x14b8(%rbp),%rax
    9db1:	48 89 85 80 f8 ff ff 	mov    %rax,-0x780(%rbp)
    9db8:	48 8d 85 58 ec ff ff 	lea    -0x13a8(%rbp),%rax
    9dbf:	48 89 85 88 f8 ff ff 	mov    %rax,-0x778(%rbp)
    9dc6:	48 8d 85 58 ec ff ff 	lea    -0x13a8(%rbp),%rax
    9dcd:	48 89 85 90 f8 ff ff 	mov    %rax,-0x770(%rbp)
    9dd4:	48 8d 85 48 eb ff ff 	lea    -0x14b8(%rbp),%rax
    9ddb:	48 89 85 98 f8 ff ff 	mov    %rax,-0x768(%rbp)
    9de2:	48 8d 85 40 eb ff ff 	lea    -0x14c0(%rbp),%rax
    9de9:	48 89 85 a0 f8 ff ff 	mov    %rax,-0x760(%rbp)
    9df0:	48 8d 85 48 eb ff ff 	lea    -0x14b8(%rbp),%rax
    9df7:	48 89 85 a8 f8 ff ff 	mov    %rax,-0x758(%rbp)
    9dfe:	48 8d 85 58 ec ff ff 	lea    -0x13a8(%rbp),%rax
    9e05:	48 89 85 b0 f8 ff ff 	mov    %rax,-0x750(%rbp)
    9e0c:	48 8d 85 58 ec ff ff 	lea    -0x13a8(%rbp),%rax
    9e13:	48 89 85 b8 f8 ff ff 	mov    %rax,-0x748(%rbp)
    9e1a:	48 8d 85 80 ee ff ff 	lea    -0x1180(%rbp),%rax
    9e21:	48 83 c0 1c          	add    $0x1c,%rax
    9e25:	48 89 85 c0 f8 ff ff 	mov    %rax,-0x740(%rbp)
    9e2c:	48 8d 85 80 ee ff ff 	lea    -0x1180(%rbp),%rax
    9e33:	48 83 c0 1c          	add    $0x1c,%rax
    9e37:	48 89 85 c8 f8 ff ff 	mov    %rax,-0x738(%rbp)
    9e3e:	48 8d 85 40 eb ff ff 	lea    -0x14c0(%rbp),%rax
    9e45:	48 89 85 d0 f8 ff ff 	mov    %rax,-0x730(%rbp)
    9e4c:	48 8d 85 58 ec ff ff 	lea    -0x13a8(%rbp),%rax
    9e53:	48 89 85 d8 f8 ff ff 	mov    %rax,-0x728(%rbp)
    9e5a:	48 8d 85 40 eb ff ff 	lea    -0x14c0(%rbp),%rax
    9e61:	48 89 85 e0 f8 ff ff 	mov    %rax,-0x720(%rbp)
    9e68:	48 8d 85 80 ee ff ff 	lea    -0x1180(%rbp),%rax
    9e6f:	48 83 c0 1c          	add    $0x1c,%rax
    9e73:	48 89 85 e8 f8 ff ff 	mov    %rax,-0x718(%rbp)
    9e7a:	48 8d 85 80 ee ff ff 	lea    -0x1180(%rbp),%rax
    9e81:	48 83 c0 1c          	add    $0x1c,%rax
    9e85:	48 89 85 f0 f8 ff ff 	mov    %rax,-0x710(%rbp)
    9e8c:	48 8d 85 40 eb ff ff 	lea    -0x14c0(%rbp),%rax
    9e93:	48 89 85 f8 f8 ff ff 	mov    %rax,-0x708(%rbp)
    9e9a:	48 8d 85 58 ec ff ff 	lea    -0x13a8(%rbp),%rax
    9ea1:	48 89 85 00 f9 ff ff 	mov    %rax,-0x700(%rbp)
    9ea8:	48 8d 05 91 71 00 00 	lea    0x7191(%rip),%rax        # 11040 <g_19>
    9eaf:	48 89 85 08 f9 ff ff 	mov    %rax,-0x6f8(%rbp)
    9eb6:	48 8d 85 48 eb ff ff 	lea    -0x14b8(%rbp),%rax
    9ebd:	48 89 85 10 f9 ff ff 	mov    %rax,-0x6f0(%rbp)
    9ec4:	48 8d 05 75 71 00 00 	lea    0x7175(%rip),%rax        # 11040 <g_19>
    9ecb:	48 89 85 18 f9 ff ff 	mov    %rax,-0x6e8(%rbp)
    9ed2:	48 8d 85 40 eb ff ff 	lea    -0x14c0(%rbp),%rax
    9ed9:	48 89 85 20 f9 ff ff 	mov    %rax,-0x6e0(%rbp)
    9ee0:	48 8d 85 40 eb ff ff 	lea    -0x14c0(%rbp),%rax
    9ee7:	48 89 85 28 f9 ff ff 	mov    %rax,-0x6d8(%rbp)
    9eee:	48 8d 05 4b 71 00 00 	lea    0x714b(%rip),%rax        # 11040 <g_19>
    9ef5:	48 89 85 30 f9 ff ff 	mov    %rax,-0x6d0(%rbp)
    9efc:	48 8d 85 48 eb ff ff 	lea    -0x14b8(%rbp),%rax
    9f03:	48 89 85 38 f9 ff ff 	mov    %rax,-0x6c8(%rbp)
    9f0a:	48 8d 05 2f 71 00 00 	lea    0x712f(%rip),%rax        # 11040 <g_19>
    9f11:	48 89 85 40 f9 ff ff 	mov    %rax,-0x6c0(%rbp)
    9f18:	48 8d 85 40 eb ff ff 	lea    -0x14c0(%rbp),%rax
    9f1f:	48 89 85 48 f9 ff ff 	mov    %rax,-0x6b8(%rbp)
    9f26:	48 8d 05 13 71 00 00 	lea    0x7113(%rip),%rax        # 11040 <g_19>
    9f2d:	48 89 85 50 f9 ff ff 	mov    %rax,-0x6b0(%rbp)
    9f34:	48 8d 85 40 eb ff ff 	lea    -0x14c0(%rbp),%rax
    9f3b:	48 89 85 58 f9 ff ff 	mov    %rax,-0x6a8(%rbp)
    9f42:	48 8d 85 40 eb ff ff 	lea    -0x14c0(%rbp),%rax
    9f49:	48 89 85 60 f9 ff ff 	mov    %rax,-0x6a0(%rbp)
    9f50:	48 8d 05 e9 70 00 00 	lea    0x70e9(%rip),%rax        # 11040 <g_19>
    9f57:	48 89 85 68 f9 ff ff 	mov    %rax,-0x698(%rbp)
    9f5e:	48 8d 85 48 eb ff ff 	lea    -0x14b8(%rbp),%rax
    9f65:	48 89 85 70 f9 ff ff 	mov    %rax,-0x690(%rbp)
    9f6c:	48 8d 05 cd 70 00 00 	lea    0x70cd(%rip),%rax        # 11040 <g_19>
    9f73:	48 89 85 78 f9 ff ff 	mov    %rax,-0x688(%rbp)
    9f7a:	48 8d 85 40 eb ff ff 	lea    -0x14c0(%rbp),%rax
    9f81:	48 89 85 80 f9 ff ff 	mov    %rax,-0x680(%rbp)
    9f88:	48 8d 85 40 eb ff ff 	lea    -0x14c0(%rbp),%rax
    9f8f:	48 89 85 88 f9 ff ff 	mov    %rax,-0x678(%rbp)
    9f96:	48 8d 05 a3 70 00 00 	lea    0x70a3(%rip),%rax        # 11040 <g_19>
    9f9d:	48 89 85 90 f9 ff ff 	mov    %rax,-0x670(%rbp)
    9fa4:	48 8d 85 80 ee ff ff 	lea    -0x1180(%rbp),%rax
    9fab:	48 83 c0 1c          	add    $0x1c,%rax
    9faf:	48 89 85 98 f9 ff ff 	mov    %rax,-0x668(%rbp)
    9fb6:	48 8d 85 40 eb ff ff 	lea    -0x14c0(%rbp),%rax
    9fbd:	48 89 85 a0 f9 ff ff 	mov    %rax,-0x660(%rbp)
    9fc4:	48 8d 85 58 ec ff ff 	lea    -0x13a8(%rbp),%rax
    9fcb:	48 89 85 a8 f9 ff ff 	mov    %rax,-0x658(%rbp)
    9fd2:	48 8d 85 40 eb ff ff 	lea    -0x14c0(%rbp),%rax
    9fd9:	48 89 85 b0 f9 ff ff 	mov    %rax,-0x650(%rbp)
    9fe0:	48 8d 85 80 ee ff ff 	lea    -0x1180(%rbp),%rax
    9fe7:	48 83 c0 1c          	add    $0x1c,%rax
    9feb:	48 89 85 b8 f9 ff ff 	mov    %rax,-0x648(%rbp)
    9ff2:	48 8d 85 80 ee ff ff 	lea    -0x1180(%rbp),%rax
    9ff9:	48 83 c0 1c          	add    $0x1c,%rax
    9ffd:	48 89 85 c0 f9 ff ff 	mov    %rax,-0x640(%rbp)
    a004:	48 8d 85 40 eb ff ff 	lea    -0x14c0(%rbp),%rax
    a00b:	48 89 85 c8 f9 ff ff 	mov    %rax,-0x638(%rbp)
    a012:	48 8d 85 58 ec ff ff 	lea    -0x13a8(%rbp),%rax
    a019:	48 89 85 d0 f9 ff ff 	mov    %rax,-0x630(%rbp)
    a020:	48 8d 85 40 eb ff ff 	lea    -0x14c0(%rbp),%rax
    a027:	48 89 85 d8 f9 ff ff 	mov    %rax,-0x628(%rbp)
    a02e:	48 8d 85 40 eb ff ff 	lea    -0x14c0(%rbp),%rax
    a035:	48 89 85 e0 f9 ff ff 	mov    %rax,-0x620(%rbp)
    a03c:	48 8d 85 48 eb ff ff 	lea    -0x14b8(%rbp),%rax
    a043:	48 89 85 e8 f9 ff ff 	mov    %rax,-0x618(%rbp)
    a04a:	48 8d 85 58 ec ff ff 	lea    -0x13a8(%rbp),%rax
    a051:	48 89 85 f0 f9 ff ff 	mov    %rax,-0x610(%rbp)
    a058:	48 8d 85 58 ec ff ff 	lea    -0x13a8(%rbp),%rax
    a05f:	48 89 85 f8 f9 ff ff 	mov    %rax,-0x608(%rbp)
    a066:	48 8d 85 48 eb ff ff 	lea    -0x14b8(%rbp),%rax
    a06d:	48 89 85 00 fa ff ff 	mov    %rax,-0x600(%rbp)
    a074:	48 8d 85 40 eb ff ff 	lea    -0x14c0(%rbp),%rax
    a07b:	48 89 85 08 fa ff ff 	mov    %rax,-0x5f8(%rbp)
    a082:	48 8d 85 48 eb ff ff 	lea    -0x14b8(%rbp),%rax
    a089:	48 89 85 10 fa ff ff 	mov    %rax,-0x5f0(%rbp)
    a090:	48 8d 85 58 ec ff ff 	lea    -0x13a8(%rbp),%rax
    a097:	48 89 85 18 fa ff ff 	mov    %rax,-0x5e8(%rbp)
    a09e:	48 8d 85 58 ec ff ff 	lea    -0x13a8(%rbp),%rax
    a0a5:	48 89 85 20 fa ff ff 	mov    %rax,-0x5e0(%rbp)
    a0ac:	48 8d 85 80 ee ff ff 	lea    -0x1180(%rbp),%rax
    a0b3:	48 83 c0 1c          	add    $0x1c,%rax
    a0b7:	48 89 85 28 fa ff ff 	mov    %rax,-0x5d8(%rbp)
    a0be:	48 8d 85 80 ee ff ff 	lea    -0x1180(%rbp),%rax
    a0c5:	48 83 c0 1c          	add    $0x1c,%rax
    a0c9:	48 89 85 30 fa ff ff 	mov    %rax,-0x5d0(%rbp)
    a0d0:	48 8d 85 40 eb ff ff 	lea    -0x14c0(%rbp),%rax
    a0d7:	48 89 85 38 fa ff ff 	mov    %rax,-0x5c8(%rbp)
    a0de:	48 8d 85 58 ec ff ff 	lea    -0x13a8(%rbp),%rax
    a0e5:	48 89 85 40 fa ff ff 	mov    %rax,-0x5c0(%rbp)
    a0ec:	48 8d 85 40 eb ff ff 	lea    -0x14c0(%rbp),%rax
    a0f3:	48 89 85 48 fa ff ff 	mov    %rax,-0x5b8(%rbp)
    a0fa:	48 8d 85 80 ee ff ff 	lea    -0x1180(%rbp),%rax
    a101:	48 83 c0 1c          	add    $0x1c,%rax
    a105:	48 89 85 50 fa ff ff 	mov    %rax,-0x5b0(%rbp)
    a10c:	48 8d 85 80 ee ff ff 	lea    -0x1180(%rbp),%rax
    a113:	48 83 c0 1c          	add    $0x1c,%rax
    a117:	48 89 85 58 fa ff ff 	mov    %rax,-0x5a8(%rbp)
    a11e:	48 8d 85 40 eb ff ff 	lea    -0x14c0(%rbp),%rax
    a125:	48 89 85 60 fa ff ff 	mov    %rax,-0x5a0(%rbp)
    a12c:	48 8d 85 58 ec ff ff 	lea    -0x13a8(%rbp),%rax
    a133:	48 89 85 68 fa ff ff 	mov    %rax,-0x598(%rbp)
    a13a:	48 8d 05 ff 6e 00 00 	lea    0x6eff(%rip),%rax        # 11040 <g_19>
    a141:	48 89 85 70 fa ff ff 	mov    %rax,-0x590(%rbp)
    a148:	48 8d 85 48 eb ff ff 	lea    -0x14b8(%rbp),%rax
    a14f:	48 89 85 78 fa ff ff 	mov    %rax,-0x588(%rbp)
    a156:	48 8d 05 e3 6e 00 00 	lea    0x6ee3(%rip),%rax        # 11040 <g_19>
    a15d:	48 89 85 80 fa ff ff 	mov    %rax,-0x580(%rbp)
    a164:	48 8d 85 40 eb ff ff 	lea    -0x14c0(%rbp),%rax
    a16b:	48 89 85 88 fa ff ff 	mov    %rax,-0x578(%rbp)
    a172:	48 8d 85 40 eb ff ff 	lea    -0x14c0(%rbp),%rax
    a179:	48 89 85 90 fa ff ff 	mov    %rax,-0x570(%rbp)
    a180:	48 8d 05 b9 6e 00 00 	lea    0x6eb9(%rip),%rax        # 11040 <g_19>
    a187:	48 89 85 98 fa ff ff 	mov    %rax,-0x568(%rbp)
    a18e:	48 8d 85 48 eb ff ff 	lea    -0x14b8(%rbp),%rax
    a195:	48 89 85 a0 fa ff ff 	mov    %rax,-0x560(%rbp)
    a19c:	48 8d 05 9d 6e 00 00 	lea    0x6e9d(%rip),%rax        # 11040 <g_19>
    a1a3:	48 89 85 a8 fa ff ff 	mov    %rax,-0x558(%rbp)
    a1aa:	48 8d 85 40 eb ff ff 	lea    -0x14c0(%rbp),%rax
    a1b1:	48 89 85 b0 fa ff ff 	mov    %rax,-0x550(%rbp)
    a1b8:	48 8d 05 81 6e 00 00 	lea    0x6e81(%rip),%rax        # 11040 <g_19>
    a1bf:	48 89 85 b8 fa ff ff 	mov    %rax,-0x548(%rbp)
    a1c6:	48 8d 85 40 eb ff ff 	lea    -0x14c0(%rbp),%rax
    a1cd:	48 89 85 c0 fa ff ff 	mov    %rax,-0x540(%rbp)
    a1d4:	48 8d 85 40 eb ff ff 	lea    -0x14c0(%rbp),%rax
    a1db:	48 89 85 c8 fa ff ff 	mov    %rax,-0x538(%rbp)
    a1e2:	48 8d 05 57 6e 00 00 	lea    0x6e57(%rip),%rax        # 11040 <g_19>
    a1e9:	48 89 85 d0 fa ff ff 	mov    %rax,-0x530(%rbp)
    a1f0:	48 8d 85 48 eb ff ff 	lea    -0x14b8(%rbp),%rax
    a1f7:	48 89 85 d8 fa ff ff 	mov    %rax,-0x528(%rbp)
    a1fe:	48 8d 05 3b 6e 00 00 	lea    0x6e3b(%rip),%rax        # 11040 <g_19>
    a205:	48 89 85 e0 fa ff ff 	mov    %rax,-0x520(%rbp)
    a20c:	48 8d 85 40 eb ff ff 	lea    -0x14c0(%rbp),%rax
    a213:	48 89 85 e8 fa ff ff 	mov    %rax,-0x518(%rbp)
    a21a:	48 8d 85 40 eb ff ff 	lea    -0x14c0(%rbp),%rax
    a221:	48 89 85 f0 fa ff ff 	mov    %rax,-0x510(%rbp)
    a228:	48 8d 05 11 6e 00 00 	lea    0x6e11(%rip),%rax        # 11040 <g_19>
    a22f:	48 89 85 f8 fa ff ff 	mov    %rax,-0x508(%rbp)
    a236:	48 8d 85 80 ee ff ff 	lea    -0x1180(%rbp),%rax
    a23d:	48 83 c0 1c          	add    $0x1c,%rax
    a241:	48 89 85 00 fb ff ff 	mov    %rax,-0x500(%rbp)
    a248:	48 8d 85 40 eb ff ff 	lea    -0x14c0(%rbp),%rax
    a24f:	48 89 85 08 fb ff ff 	mov    %rax,-0x4f8(%rbp)
    a256:	48 8d 85 58 ec ff ff 	lea    -0x13a8(%rbp),%rax
    a25d:	48 89 85 10 fb ff ff 	mov    %rax,-0x4f0(%rbp)
    a264:	48 8d 85 40 eb ff ff 	lea    -0x14c0(%rbp),%rax
    a26b:	48 89 85 18 fb ff ff 	mov    %rax,-0x4e8(%rbp)
    a272:	48 8d 85 80 ee ff ff 	lea    -0x1180(%rbp),%rax
    a279:	48 83 c0 1c          	add    $0x1c,%rax
    a27d:	48 89 85 20 fb ff ff 	mov    %rax,-0x4e0(%rbp)
    a284:	48 8d 85 80 ee ff ff 	lea    -0x1180(%rbp),%rax
    a28b:	48 83 c0 1c          	add    $0x1c,%rax
    a28f:	48 89 85 28 fb ff ff 	mov    %rax,-0x4d8(%rbp)
    a296:	48 8d 85 40 eb ff ff 	lea    -0x14c0(%rbp),%rax
    a29d:	48 89 85 30 fb ff ff 	mov    %rax,-0x4d0(%rbp)
    a2a4:	48 8d 85 58 ec ff ff 	lea    -0x13a8(%rbp),%rax
    a2ab:	48 89 85 38 fb ff ff 	mov    %rax,-0x4c8(%rbp)
    a2b2:	48 8d 85 40 eb ff ff 	lea    -0x14c0(%rbp),%rax
    a2b9:	48 89 85 40 fb ff ff 	mov    %rax,-0x4c0(%rbp)
    a2c0:	48 8d 85 40 eb ff ff 	lea    -0x14c0(%rbp),%rax
    a2c7:	48 89 85 48 fb ff ff 	mov    %rax,-0x4b8(%rbp)
    a2ce:	48 8d 85 48 eb ff ff 	lea    -0x14b8(%rbp),%rax
    a2d5:	48 89 85 50 fb ff ff 	mov    %rax,-0x4b0(%rbp)
    a2dc:	48 8d 85 58 ec ff ff 	lea    -0x13a8(%rbp),%rax
    a2e3:	48 89 85 58 fb ff ff 	mov    %rax,-0x4a8(%rbp)
    a2ea:	48 8d 85 58 ec ff ff 	lea    -0x13a8(%rbp),%rax
    a2f1:	48 89 85 60 fb ff ff 	mov    %rax,-0x4a0(%rbp)
    a2f8:	48 8d 85 48 eb ff ff 	lea    -0x14b8(%rbp),%rax
    a2ff:	48 89 85 68 fb ff ff 	mov    %rax,-0x498(%rbp)
    a306:	48 8d 85 40 eb ff ff 	lea    -0x14c0(%rbp),%rax
    a30d:	48 89 85 70 fb ff ff 	mov    %rax,-0x490(%rbp)
    a314:	48 8d 85 48 eb ff ff 	lea    -0x14b8(%rbp),%rax
    a31b:	48 89 85 78 fb ff ff 	mov    %rax,-0x488(%rbp)
    a322:	48 8d 85 58 ec ff ff 	lea    -0x13a8(%rbp),%rax
    a329:	48 89 85 80 fb ff ff 	mov    %rax,-0x480(%rbp)
    a330:	48 8d 85 58 ec ff ff 	lea    -0x13a8(%rbp),%rax
    a337:	48 89 85 88 fb ff ff 	mov    %rax,-0x478(%rbp)
    a33e:	48 8d 85 80 ee ff ff 	lea    -0x1180(%rbp),%rax
    a345:	48 83 c0 1c          	add    $0x1c,%rax
    a349:	48 89 85 90 fb ff ff 	mov    %rax,-0x470(%rbp)
    a350:	48 8d 85 80 ee ff ff 	lea    -0x1180(%rbp),%rax
    a357:	48 83 c0 1c          	add    $0x1c,%rax
    a35b:	48 89 85 98 fb ff ff 	mov    %rax,-0x468(%rbp)
    a362:	48 8d 85 40 eb ff ff 	lea    -0x14c0(%rbp),%rax
    a369:	48 89 85 a0 fb ff ff 	mov    %rax,-0x460(%rbp)
    a370:	48 8d 85 58 ec ff ff 	lea    -0x13a8(%rbp),%rax
    a377:	48 89 85 a8 fb ff ff 	mov    %rax,-0x458(%rbp)
    a37e:	48 8d 85 40 eb ff ff 	lea    -0x14c0(%rbp),%rax
    a385:	48 89 85 b0 fb ff ff 	mov    %rax,-0x450(%rbp)
    a38c:	48 8d 85 80 ee ff ff 	lea    -0x1180(%rbp),%rax
    a393:	48 83 c0 1c          	add    $0x1c,%rax
    a397:	48 89 85 b8 fb ff ff 	mov    %rax,-0x448(%rbp)
    a39e:	48 8d 85 80 ee ff ff 	lea    -0x1180(%rbp),%rax
    a3a5:	48 83 c0 1c          	add    $0x1c,%rax
    a3a9:	48 89 85 c0 fb ff ff 	mov    %rax,-0x440(%rbp)
    a3b0:	48 8d 85 40 eb ff ff 	lea    -0x14c0(%rbp),%rax
    a3b7:	48 89 85 c8 fb ff ff 	mov    %rax,-0x438(%rbp)
    a3be:	48 8d 85 58 ec ff ff 	lea    -0x13a8(%rbp),%rax
    a3c5:	48 89 85 d0 fb ff ff 	mov    %rax,-0x430(%rbp)
    a3cc:	48 8d 05 6d 6c 00 00 	lea    0x6c6d(%rip),%rax        # 11040 <g_19>
    a3d3:	48 89 85 d8 fb ff ff 	mov    %rax,-0x428(%rbp)
    a3da:	48 8d 85 48 eb ff ff 	lea    -0x14b8(%rbp),%rax
    a3e1:	48 89 85 e0 fb ff ff 	mov    %rax,-0x420(%rbp)
    a3e8:	48 8d 05 51 6c 00 00 	lea    0x6c51(%rip),%rax        # 11040 <g_19>
    a3ef:	48 89 85 e8 fb ff ff 	mov    %rax,-0x418(%rbp)
    a3f6:	48 8d 85 40 eb ff ff 	lea    -0x14c0(%rbp),%rax
    a3fd:	48 89 85 f0 fb ff ff 	mov    %rax,-0x410(%rbp)
    a404:	48 8d 85 40 eb ff ff 	lea    -0x14c0(%rbp),%rax
    a40b:	48 89 85 f8 fb ff ff 	mov    %rax,-0x408(%rbp)
    a412:	48 8d 05 27 6c 00 00 	lea    0x6c27(%rip),%rax        # 11040 <g_19>
    a419:	48 89 85 00 fc ff ff 	mov    %rax,-0x400(%rbp)
    a420:	48 8d 85 48 eb ff ff 	lea    -0x14b8(%rbp),%rax
    a427:	48 89 85 08 fc ff ff 	mov    %rax,-0x3f8(%rbp)
    a42e:	48 8d 05 0b 6c 00 00 	lea    0x6c0b(%rip),%rax        # 11040 <g_19>
    a435:	48 89 85 10 fc ff ff 	mov    %rax,-0x3f0(%rbp)
    a43c:	48 8d 85 40 eb ff ff 	lea    -0x14c0(%rbp),%rax
    a443:	48 89 85 18 fc ff ff 	mov    %rax,-0x3e8(%rbp)
    a44a:	48 8d 05 ef 6b 00 00 	lea    0x6bef(%rip),%rax        # 11040 <g_19>
    a451:	48 89 85 20 fc ff ff 	mov    %rax,-0x3e0(%rbp)
    a458:	48 8d 85 40 eb ff ff 	lea    -0x14c0(%rbp),%rax
    a45f:	48 89 85 28 fc ff ff 	mov    %rax,-0x3d8(%rbp)
    a466:	48 8d 85 40 eb ff ff 	lea    -0x14c0(%rbp),%rax
    a46d:	48 89 85 30 fc ff ff 	mov    %rax,-0x3d0(%rbp)
    a474:	48 8d 05 c5 6b 00 00 	lea    0x6bc5(%rip),%rax        # 11040 <g_19>
    a47b:	48 89 85 38 fc ff ff 	mov    %rax,-0x3c8(%rbp)
    a482:	48 8d 85 48 eb ff ff 	lea    -0x14b8(%rbp),%rax
    a489:	48 89 85 40 fc ff ff 	mov    %rax,-0x3c0(%rbp)
    a490:	48 8d 05 a9 6b 00 00 	lea    0x6ba9(%rip),%rax        # 11040 <g_19>
    a497:	48 89 85 48 fc ff ff 	mov    %rax,-0x3b8(%rbp)
    a49e:	48 8d 85 40 eb ff ff 	lea    -0x14c0(%rbp),%rax
    a4a5:	48 89 85 50 fc ff ff 	mov    %rax,-0x3b0(%rbp)
    a4ac:	48 8d 85 40 eb ff ff 	lea    -0x14c0(%rbp),%rax
    a4b3:	48 89 85 58 fc ff ff 	mov    %rax,-0x3a8(%rbp)
    a4ba:	48 8d 05 7f 6b 00 00 	lea    0x6b7f(%rip),%rax        # 11040 <g_19>
    a4c1:	48 89 85 60 fc ff ff 	mov    %rax,-0x3a0(%rbp)
    a4c8:	48 8d 85 80 ee ff ff 	lea    -0x1180(%rbp),%rax
    a4cf:	48 83 c0 1c          	add    $0x1c,%rax
    a4d3:	48 89 85 68 fc ff ff 	mov    %rax,-0x398(%rbp)
    a4da:	48 8d 85 40 eb ff ff 	lea    -0x14c0(%rbp),%rax
    a4e1:	48 89 85 70 fc ff ff 	mov    %rax,-0x390(%rbp)
    a4e8:	48 8d 85 48 eb ff ff 	lea    -0x14b8(%rbp),%rax
    a4ef:	48 89 85 78 fc ff ff 	mov    %rax,-0x388(%rbp)
    a4f6:	48 8d 05 43 6b 00 00 	lea    0x6b43(%rip),%rax        # 11040 <g_19>
    a4fd:	48 89 85 80 fc ff ff 	mov    %rax,-0x380(%rbp)
    a504:	48 8d 85 40 eb ff ff 	lea    -0x14c0(%rbp),%rax
    a50b:	48 89 85 88 fc ff ff 	mov    %rax,-0x378(%rbp)
    a512:	48 8d 85 40 eb ff ff 	lea    -0x14c0(%rbp),%rax
    a519:	48 89 85 90 fc ff ff 	mov    %rax,-0x370(%rbp)
    a520:	48 8d 05 19 6b 00 00 	lea    0x6b19(%rip),%rax        # 11040 <g_19>
    a527:	48 89 85 98 fc ff ff 	mov    %rax,-0x368(%rbp)
    a52e:	48 8d 85 48 eb ff ff 	lea    -0x14b8(%rbp),%rax
    a535:	48 89 85 a0 fc ff ff 	mov    %rax,-0x360(%rbp)
    a53c:	48 8d 05 fd 6a 00 00 	lea    0x6afd(%rip),%rax        # 11040 <g_19>
    a543:	48 89 85 a8 fc ff ff 	mov    %rax,-0x358(%rbp)
    a54a:	48 c7 85 00 ed ff ff 	movq   $0x0,-0x1300(%rbp)
    a551:	00 00 00 00 
    a555:	48 8d 85 b0 f3 ff ff 	lea    -0xc50(%rbp),%rax
    a55c:	48 05 98 02 00 00    	add    $0x298,%rax
    a562:	48 89 85 08 ed ff ff 	mov    %rax,-0x12f8(%rbp)
    a569:	48 83 ad 80 ec ff ff 	subq   $0x1,-0x1380(%rbp)
    a570:	01 
    a571:	0f b7 9d 20 eb ff ff 	movzwl -0x14e0(%rbp),%ebx
    a578:	48 8b 85 28 ec ff ff 	mov    -0x13d8(%rbp),%rax
    a57f:	48 8d 15 ca 7f 00 00 	lea    0x7fca(%rip),%rdx        # 12550 <g_308>
    a586:	48 39 d0             	cmp    %rdx,%rax
    a589:	0f 95 c0             	setne  %al
    a58c:	44 0f b6 e0          	movzbl %al,%r12d
    a590:	48 8b 95 48 f6 ff ff 	mov    -0x9b8(%rbp),%rdx
    a597:	48 8b 85 08 ed ff ff 	mov    -0x12f8(%rbp),%rax
    a59e:	48 89 10             	mov    %rdx,(%rax)
    a5a1:	48 8b 85 08 ed ff ff 	mov    -0x12f8(%rbp),%rax
    a5a8:	48 8b 10             	mov    (%rax),%rdx
    a5ab:	48 8b 85 48 ec ff ff 	mov    -0x13b8(%rbp),%rax
    a5b2:	48 39 c2             	cmp    %rax,%rdx
    a5b5:	0f 95 c0             	setne  %al
    a5b8:	44 0f b6 e8          	movzbl %al,%r13d
    a5bc:	0f b7 85 1c eb ff ff 	movzwl -0x14e4(%rbp),%eax
    a5c3:	0f b7 d0             	movzwl %ax,%edx
    a5c6:	8b 05 90 6a 00 00    	mov    0x6a90(%rip),%eax        # 1105c <g_157>
    a5cc:	0f b7 c0             	movzwl %ax,%eax
    a5cf:	89 d6                	mov    %edx,%esi
    a5d1:	89 c7                	mov    %eax,%edi
    a5d3:	e8 65 97 ff ff       	callq  3d3d <safe_mul_func_uint16_t_u_u>
    a5d8:	0f b7 c0             	movzwl %ax,%eax
    a5db:	41 39 c5             	cmp    %eax,%r13d
    a5de:	0f 9d c0             	setge  %al
    a5e1:	0f b6 d0             	movzbl %al,%edx
    a5e4:	48 8b 85 28 eb ff ff 	mov    -0x14d8(%rbp),%rax
    a5eb:	8b 00                	mov    (%rax),%eax
    a5ed:	31 d0                	xor    %edx,%eax
    a5ef:	0f b7 c0             	movzwl %ax,%eax
    a5f2:	be 02 00 00 00       	mov    $0x2,%esi
    a5f7:	89 c7                	mov    %eax,%edi
    a5f9:	e8 4a 98 ff ff       	callq  3e48 <safe_rshift_func_uint16_t_u_s>
    a5fe:	0f b7 c0             	movzwl %ax,%eax
    a601:	41 39 c4             	cmp    %eax,%r12d
    a604:	0f 95 c0             	setne  %al
    a607:	0f b6 c0             	movzbl %al,%eax
    a60a:	39 c3                	cmp    %eax,%ebx
    a60c:	0f 9e c0             	setle  %al
    a60f:	0f b6 d0             	movzbl %al,%edx
    a612:	48 8b 05 17 75 00 00 	mov    0x7517(%rip),%rax        # 11b30 <g_57>
    a619:	8b 00                	mov    (%rax),%eax
    a61b:	39 c2                	cmp    %eax,%edx
    a61d:	0f 9c c0             	setl   %al
    a620:	0f b6 c0             	movzbl %al,%eax
    a623:	39 85 98 eb ff ff    	cmp    %eax,-0x1468(%rbp)
    a629:	0f 9e c0             	setle  %al
    a62c:	0f b6 d0             	movzbl %al,%edx
    a62f:	48 8b 85 d8 ec ff ff 	mov    -0x1328(%rbp),%rax
    a636:	8b 00                	mov    (%rax),%eax
    a638:	09 c2                	or     %eax,%edx
    a63a:	48 8b 85 d8 ec ff ff 	mov    -0x1328(%rbp),%rax
    a641:	89 10                	mov    %edx,(%rax)
    a643:	48 8d 05 b6 78 00 00 	lea    0x78b6(%rip),%rax        # 11f00 <g_553>
    a64a:	48 89 85 60 ec ff ff 	mov    %rax,-0x13a0(%rbp)
    a651:	48 8d 85 40 ec ff ff 	lea    -0x13c0(%rbp),%rax
    a658:	48 39 85 60 ec ff ff 	cmp    %rax,-0x13a0(%rbp)
    a65f:	0f 95 c0             	setne  %al
    a662:	0f b6 c0             	movzbl %al,%eax
    a665:	89 85 c0 ee ff ff    	mov    %eax,-0x1140(%rbp)
    a66b:	48 8b 05 ce 74 00 00 	mov    0x74ce(%rip),%rax        # 11b40 <g_205>
    a672:	48 8b 10             	mov    (%rax),%rdx
    a675:	48 8b 85 78 ec ff ff 	mov    -0x1388(%rbp),%rax
    a67c:	48 89 10             	mov    %rdx,(%rax)
    a67f:	48 8b 85 78 ec ff ff 	mov    -0x1388(%rbp),%rax
    a686:	48 8b 00             	mov    (%rax),%rax
    a689:	48 85 c0             	test   %rax,%rax
    a68c:	0f 84 c4 00 00 00    	je     a756 <func_44+0x4569>
    a692:	8b 85 c0 ee ff ff    	mov    -0x1140(%rbp),%eax
    a698:	0f be d8             	movsbl %al,%ebx
    a69b:	8b 05 af 69 00 00    	mov    0x69af(%rip),%eax        # 11050 <g_58>
    a6a1:	48 8b 05 20 6a 00 00 	mov    0x6a20(%rip),%rax        # 110c8 <g_230>
    a6a8:	44 0f b6 e0          	movzbl %al,%r12d
    a6ac:	8b 85 48 eb ff ff    	mov    -0x14b8(%rbp),%eax
    a6b2:	48 98                	cltq   
    a6b4:	48 89 c6             	mov    %rax,%rsi
    a6b7:	bf 01 00 00 00       	mov    $0x1,%edi
    a6bc:	e8 6d 99 ff ff       	callq  402e <safe_add_func_uint64_t_u_u>
    a6c1:	89 c2                	mov    %eax,%edx
    a6c3:	0f b7 85 1c eb ff ff 	movzwl -0x14e4(%rbp),%eax
    a6ca:	98                   	cwtl   
    a6cb:	89 d6                	mov    %edx,%esi
    a6cd:	89 c7                	mov    %eax,%edi
    a6cf:	e8 e4 97 ff ff       	callq  3eb8 <safe_add_func_uint32_t_u_u>
    a6d4:	0f b6 c0             	movzbl %al,%eax
    a6d7:	44 89 e6             	mov    %r12d,%esi
    a6da:	89 c7                	mov    %eax,%edi
    a6dc:	e8 cd 94 ff ff       	callq  3bae <safe_mod_func_uint8_t_u_u>
    a6e1:	0f b6 c0             	movzbl %al,%eax
    a6e4:	89 c6                	mov    %eax,%esi
    a6e6:	bf 00 00 00 00       	mov    $0x0,%edi
    a6eb:	e8 ce 96 ff ff       	callq  3dbe <safe_lshift_func_uint16_t_u_s>
    a6f0:	0f b7 d0             	movzwl %ax,%edx
    a6f3:	8b 85 a0 eb ff ff    	mov    -0x1460(%rbp),%eax
    a6f9:	0f b7 c0             	movzwl %ax,%eax
    a6fc:	89 d6                	mov    %edx,%esi
    a6fe:	89 c7                	mov    %eax,%edi
    a700:	e8 fa 95 ff ff       	callq  3cff <safe_add_func_uint16_t_u_u>
    a705:	66 83 f8 01          	cmp    $0x1,%ax
    a709:	0f 96 c0             	setbe  %al
    a70c:	0f b6 c0             	movzbl %al,%eax
    a70f:	89 de                	mov    %ebx,%esi
    a711:	89 c7                	mov    %eax,%edi
    a713:	e8 fa 8a ff ff       	callq  3212 <safe_mul_func_int8_t_s_s>
    a718:	0f b6 c0             	movzbl %al,%eax
    a71b:	be 03 00 00 00       	mov    $0x3,%esi
    a720:	89 c7                	mov    %eax,%edi
    a722:	e8 25 95 ff ff       	callq  3c4c <safe_lshift_func_uint8_t_u_u>
    a727:	84 c0                	test   %al,%al
    a729:	75 0d                	jne    a738 <func_44+0x454b>
    a72b:	48 8b 85 28 eb ff ff 	mov    -0x14d8(%rbp),%rax
    a732:	8b 00                	mov    (%rax),%eax
    a734:	85 c0                	test   %eax,%eax
    a736:	74 07                	je     a73f <func_44+0x4552>
    a738:	b8 01 00 00 00       	mov    $0x1,%eax
    a73d:	eb 05                	jmp    a744 <func_44+0x4557>
    a73f:	b8 00 00 00 00       	mov    $0x0,%eax
    a744:	89 c2                	mov    %eax,%edx
    a746:	0f b7 85 24 eb ff ff 	movzwl -0x14dc(%rbp),%eax
    a74d:	09 d0                	or     %edx,%eax
    a74f:	66 89 85 24 eb ff ff 	mov    %ax,-0x14dc(%rbp)
    a756:	b8 00 00 00 00       	mov    $0x0,%eax
    a75b:	85 c0                	test   %eax,%eax
    a75d:	74 08                	je     a767 <func_44+0x457a>
    a75f:	8b 85 44 f0 ff ff    	mov    -0xfbc(%rbp),%eax
    a765:	85 c0                	test   %eax,%eax
    a767:	48 8b 05 ca 73 00 00 	mov    0x73ca(%rip),%rax        # 11b38 <g_56>
    a76e:	48 8b 00             	mov    (%rax),%rax
    a771:	c7 00 00 00 00 00    	movl   $0x0,(%rax)
    a777:	e9 13 06 00 00       	jmpq   ad8f <func_44+0x4ba2>
    a77c:	48 8d 85 10 ec ff ff 	lea    -0x13f0(%rbp),%rax
    a783:	48 89 85 30 f8 ff ff 	mov    %rax,-0x7d0(%rbp)
    a78a:	48 c7 85 38 f8 ff ff 	movq   $0x0,-0x7c8(%rbp)
    a791:	00 00 00 00 
    a795:	48 8d 85 48 ec ff ff 	lea    -0x13b8(%rbp),%rax
    a79c:	48 89 85 40 f8 ff ff 	mov    %rax,-0x7c0(%rbp)
    a7a3:	48 8d 85 48 ec ff ff 	lea    -0x13b8(%rbp),%rax
    a7aa:	48 89 85 48 f8 ff ff 	mov    %rax,-0x7b8(%rbp)
    a7b1:	48 c7 85 50 f8 ff ff 	movq   $0x0,-0x7b0(%rbp)
    a7b8:	00 00 00 00 
    a7bc:	48 8d 85 10 ec ff ff 	lea    -0x13f0(%rbp),%rax
    a7c3:	48 89 85 58 f8 ff ff 	mov    %rax,-0x7a8(%rbp)
    a7ca:	48 8d 85 48 ec ff ff 	lea    -0x13b8(%rbp),%rax
    a7d1:	48 89 85 60 f8 ff ff 	mov    %rax,-0x7a0(%rbp)
    a7d8:	48 8d 85 10 ec ff ff 	lea    -0x13f0(%rbp),%rax
    a7df:	48 89 85 68 f8 ff ff 	mov    %rax,-0x798(%rbp)
    a7e6:	48 c7 85 70 f8 ff ff 	movq   $0x0,-0x790(%rbp)
    a7ed:	00 00 00 00 
    a7f1:	48 8d 85 48 ec ff ff 	lea    -0x13b8(%rbp),%rax
    a7f8:	48 89 85 78 f8 ff ff 	mov    %rax,-0x788(%rbp)
    a7ff:	48 8d 85 48 ec ff ff 	lea    -0x13b8(%rbp),%rax
    a806:	48 89 85 80 f8 ff ff 	mov    %rax,-0x780(%rbp)
    a80d:	48 c7 85 88 f8 ff ff 	movq   $0x0,-0x778(%rbp)
    a814:	00 00 00 00 
    a818:	48 8d 85 10 ec ff ff 	lea    -0x13f0(%rbp),%rax
    a81f:	48 89 85 90 f8 ff ff 	mov    %rax,-0x770(%rbp)
    a826:	48 8d 85 48 ec ff ff 	lea    -0x13b8(%rbp),%rax
    a82d:	48 89 85 98 f8 ff ff 	mov    %rax,-0x768(%rbp)
    a834:	48 8d 85 10 ec ff ff 	lea    -0x13f0(%rbp),%rax
    a83b:	48 89 85 a0 f8 ff ff 	mov    %rax,-0x760(%rbp)
    a842:	48 c7 85 a8 f8 ff ff 	movq   $0x0,-0x758(%rbp)
    a849:	00 00 00 00 
    a84d:	48 8d 85 48 ec ff ff 	lea    -0x13b8(%rbp),%rax
    a854:	48 89 85 b0 f8 ff ff 	mov    %rax,-0x750(%rbp)
    a85b:	48 8d 85 48 ec ff ff 	lea    -0x13b8(%rbp),%rax
    a862:	48 89 85 b8 f8 ff ff 	mov    %rax,-0x748(%rbp)
    a869:	48 c7 85 c0 f8 ff ff 	movq   $0x0,-0x740(%rbp)
    a870:	00 00 00 00 
    a874:	48 8d 85 10 ec ff ff 	lea    -0x13f0(%rbp),%rax
    a87b:	48 89 85 c8 f8 ff ff 	mov    %rax,-0x738(%rbp)
    a882:	48 8d 85 48 ec ff ff 	lea    -0x13b8(%rbp),%rax
    a889:	48 89 85 d0 f8 ff ff 	mov    %rax,-0x730(%rbp)
    a890:	48 8d 85 10 ec ff ff 	lea    -0x13f0(%rbp),%rax
    a897:	48 89 85 d8 f8 ff ff 	mov    %rax,-0x728(%rbp)
    a89e:	48 c7 85 e0 f8 ff ff 	movq   $0x0,-0x720(%rbp)
    a8a5:	00 00 00 00 
    a8a9:	48 8d 85 48 ec ff ff 	lea    -0x13b8(%rbp),%rax
    a8b0:	48 89 85 e8 f8 ff ff 	mov    %rax,-0x718(%rbp)
    a8b7:	48 8d 85 48 ec ff ff 	lea    -0x13b8(%rbp),%rax
    a8be:	48 89 85 f0 f8 ff ff 	mov    %rax,-0x710(%rbp)
    a8c5:	48 c7 85 f8 f8 ff ff 	movq   $0x0,-0x708(%rbp)
    a8cc:	00 00 00 00 
    a8d0:	48 8d 85 10 ec ff ff 	lea    -0x13f0(%rbp),%rax
    a8d7:	48 89 85 00 f9 ff ff 	mov    %rax,-0x700(%rbp)
    a8de:	48 8d 85 48 ec ff ff 	lea    -0x13b8(%rbp),%rax
    a8e5:	48 89 85 08 f9 ff ff 	mov    %rax,-0x6f8(%rbp)
    a8ec:	c7 85 f0 ef ff ff 00 	movl   $0x0,-0x1010(%rbp)
    a8f3:	00 00 00 
    a8f6:	c7 85 f4 ef ff ff 00 	movl   $0x0,-0x100c(%rbp)
    a8fd:	00 00 00 
    a900:	c7 85 f8 ef ff ff 00 	movl   $0x0,-0x1008(%rbp)
    a907:	00 00 00 
    a90a:	c7 85 fc ef ff ff 00 	movl   $0x0,-0x1004(%rbp)
    a911:	00 00 00 
    a914:	c7 85 00 f0 ff ff 00 	movl   $0x0,-0x1000(%rbp)
    a91b:	00 00 00 
    a91e:	c7 85 04 f0 ff ff 00 	movl   $0x0,-0xffc(%rbp)
    a925:	00 00 00 
    a928:	48 8d 05 29 7c 00 00 	lea    0x7c29(%rip),%rax        # 12558 <g_310>
    a92f:	48 89 85 98 ec ff ff 	mov    %rax,-0x1368(%rbp)
    a936:	c7 85 80 eb ff ff 00 	movl   $0x0,-0x1480(%rbp)
    a93d:	00 00 00 
    a940:	eb 1a                	jmp    a95c <func_44+0x476f>
    a942:	8b 85 80 eb ff ff    	mov    -0x1480(%rbp),%eax
    a948:	48 98                	cltq   
    a94a:	c7 84 85 60 ee ff ff 	movl   $0xffffffff,-0x11a0(%rbp,%rax,4)
    a951:	ff ff ff ff 
    a955:	83 85 80 eb ff ff 01 	addl   $0x1,-0x1480(%rbp)
    a95c:	83 bd 80 eb ff ff 03 	cmpl   $0x3,-0x1480(%rbp)
    a963:	7e dd                	jle    a942 <func_44+0x4755>
    a965:	c7 05 d1 66 00 00 18 	movl   $0x18,0x66d1(%rip)        # 11040 <g_19>
    a96c:	00 00 00 
    a96f:	e9 f5 03 00 00       	jmpq   ad69 <func_44+0x4b7c>
    a974:	66 c7 85 36 eb ff ff 	movw   $0x23f3,-0x14ca(%rbp)
    a97b:	f3 23 
    a97d:	48 8d 85 b0 ee ff ff 	lea    -0x1150(%rbp),%rax
    a984:	48 83 c0 10          	add    $0x10,%rax
    a988:	48 89 85 a0 ec ff ff 	mov    %rax,-0x1360(%rbp)
    a98f:	48 8d 05 c0 66 00 00 	lea    0x66c0(%rip),%rax        # 11056 <g_69>
    a996:	48 89 85 50 ec ff ff 	mov    %rax,-0x13b0(%rbp)
    a99d:	48 8d 85 50 ec ff ff 	lea    -0x13b0(%rbp),%rax
    a9a4:	48 89 85 58 ec ff ff 	mov    %rax,-0x13a8(%rbp)
    a9ab:	48 8d 85 58 ec ff ff 	lea    -0x13a8(%rbp),%rax
    a9b2:	48 89 85 a8 ec ff ff 	mov    %rax,-0x1358(%rbp)
    a9b9:	48 8b 85 28 eb ff ff 	mov    -0x14d8(%rbp),%rax
    a9c0:	8b 00                	mov    (%rax),%eax
    a9c2:	85 c0                	test   %eax,%eax
    a9c4:	0f 84 45 01 00 00    	je     ab0f <func_44+0x4922>
    a9ca:	48 b8 a8 61 6e 19 da 	movabs $0x28d634da196e61a8,%rax
    a9d1:	34 d6 28 
    a9d4:	48 89 85 b0 f3 ff ff 	mov    %rax,-0xc50(%rbp)
    a9db:	48 89 85 b8 f3 ff ff 	mov    %rax,-0xc48(%rbp)
    a9e2:	48 89 85 c0 f3 ff ff 	mov    %rax,-0xc40(%rbp)
    a9e9:	48 89 85 c8 f3 ff ff 	mov    %rax,-0xc38(%rbp)
    a9f0:	48 89 85 d0 f3 ff ff 	mov    %rax,-0xc30(%rbp)
    a9f7:	48 bb 3c 04 17 ba 6e 	movabs $0x6783806eba17043c,%rbx
    a9fe:	80 83 67 
    aa01:	48 89 9d d8 f3 ff ff 	mov    %rbx,-0xc28(%rbp)
    aa08:	48 89 9d e0 f3 ff ff 	mov    %rbx,-0xc20(%rbp)
    aa0f:	48 89 9d e8 f3 ff ff 	mov    %rbx,-0xc18(%rbp)
    aa16:	48 89 9d f0 f3 ff ff 	mov    %rbx,-0xc10(%rbp)
    aa1d:	48 89 9d f8 f3 ff ff 	mov    %rbx,-0xc08(%rbp)
    aa24:	48 89 85 00 f4 ff ff 	mov    %rax,-0xc00(%rbp)
    aa2b:	48 89 85 08 f4 ff ff 	mov    %rax,-0xbf8(%rbp)
    aa32:	48 89 85 10 f4 ff ff 	mov    %rax,-0xbf0(%rbp)
    aa39:	48 89 85 18 f4 ff ff 	mov    %rax,-0xbe8(%rbp)
    aa40:	48 89 85 20 f4 ff ff 	mov    %rax,-0xbe0(%rbp)
    aa47:	48 89 9d 28 f4 ff ff 	mov    %rbx,-0xbd8(%rbp)
    aa4e:	48 89 9d 30 f4 ff ff 	mov    %rbx,-0xbd0(%rbp)
    aa55:	48 89 9d 38 f4 ff ff 	mov    %rbx,-0xbc8(%rbp)
    aa5c:	48 89 9d 40 f4 ff ff 	mov    %rbx,-0xbc0(%rbp)
    aa63:	48 89 9d 48 f4 ff ff 	mov    %rbx,-0xbb8(%rbp)
    aa6a:	c7 85 54 eb ff ff 00 	movl   $0x0,-0x14ac(%rbp)
    aa71:	00 00 00 
    aa74:	eb 63                	jmp    aad9 <func_44+0x48ec>
    aa76:	48 8d 05 db 7a 00 00 	lea    0x7adb(%rip),%rax        # 12558 <g_310>
    aa7d:	48 89 85 c0 ec ff ff 	mov    %rax,-0x1340(%rbp)
    aa84:	48 8b 95 28 eb ff ff 	mov    -0x14d8(%rbp),%rdx
    aa8b:	48 8b 85 c0 ec ff ff 	mov    -0x1340(%rbp),%rax
    aa92:	48 89 10             	mov    %rdx,(%rax)
    aa95:	48 8b 85 28 eb ff ff 	mov    -0x14d8(%rbp),%rax
    aa9c:	8b 00                	mov    (%rax),%eax
    aa9e:	85 c0                	test   %eax,%eax
    aaa0:	75 1b                	jne    aabd <func_44+0x48d0>
    aaa2:	83 bd 54 eb ff ff 00 	cmpl   $0x0,-0x14ac(%rbp)
    aaa9:	75 15                	jne    aac0 <func_44+0x48d3>
    aaab:	48 8b 05 86 70 00 00 	mov    0x7086(%rip),%rax        # 11b38 <g_56>
    aab2:	48 8b 00             	mov    (%rax),%rax
    aab5:	c7 00 00 00 00 00    	movl   $0x0,(%rax)
    aabb:	eb 04                	jmp    aac1 <func_44+0x48d4>
    aabd:	90                   	nop
    aabe:	eb 01                	jmp    aac1 <func_44+0x48d4>
    aac0:	90                   	nop
    aac1:	8b 85 54 eb ff ff    	mov    -0x14ac(%rbp),%eax
    aac7:	be 09 00 00 00       	mov    $0x9,%esi
    aacc:	89 c7                	mov    %eax,%edi
    aace:	e8 e3 8a ff ff       	callq  35b6 <safe_add_func_int32_t_s_s>
    aad3:	89 85 54 eb ff ff    	mov    %eax,-0x14ac(%rbp)
    aad9:	83 bd 54 eb ff ff 03 	cmpl   $0x3,-0x14ac(%rbp)
    aae0:	7f 94                	jg     aa76 <func_44+0x4889>
    aae2:	48 8b 85 28 eb ff ff 	mov    -0x14d8(%rbp),%rax
    aae9:	8b 00                	mov    (%rax),%eax
    aaeb:	85 c0                	test   %eax,%eax
    aaed:	0f 85 87 02 00 00    	jne    ad7a <func_44+0x4b8d>
    aaf3:	66 83 bd 24 eb ff ff 	cmpw   $0x0,-0x14dc(%rbp)
    aafa:	00 
    aafb:	0f 95 c2             	setne  %dl
    aafe:	48 8b 05 2b 70 00 00 	mov    0x702b(%rip),%rax        # 11b30 <g_57>
    ab05:	0f b6 d2             	movzbl %dl,%edx
    ab08:	89 10                	mov    %edx,(%rax)
    ab0a:	e9 3c 02 00 00       	jmpq   ad4b <func_44+0x4b5e>
    ab0f:	c7 85 88 eb ff ff 92 	movl   $0xed299192,-0x1478(%rbp)
    ab16:	91 29 ed 
    ab19:	c7 85 84 eb ff ff 00 	movl   $0x0,-0x147c(%rbp)
    ab20:	00 00 00 
    ab23:	eb 25                	jmp    ab4a <func_44+0x495d>
    ab25:	8b 85 84 eb ff ff    	mov    -0x147c(%rbp),%eax
    ab2b:	48 98                	cltq   
    ab2d:	48 8d 95 30 f8 ff ff 	lea    -0x7d0(%rbp),%rdx
    ab34:	48 81 c2 c0 00 00 00 	add    $0xc0,%rdx
    ab3b:	48 89 94 c5 00 ef ff 	mov    %rdx,-0x1100(%rbp,%rax,8)
    ab42:	ff 
    ab43:	83 85 84 eb ff ff 01 	addl   $0x1,-0x147c(%rbp)
    ab4a:	83 bd 84 eb ff ff 01 	cmpl   $0x1,-0x147c(%rbp)
    ab51:	7e d2                	jle    ab25 <func_44+0x4938>
    ab53:	c7 85 84 eb ff ff 00 	movl   $0x0,-0x147c(%rbp)
    ab5a:	00 00 00 
    ab5d:	eb 1e                	jmp    ab7d <func_44+0x4990>
    ab5f:	8b 85 84 eb ff ff    	mov    -0x147c(%rbp),%eax
    ab65:	48 98                	cltq   
    ab67:	48 8d 15 f2 64 00 00 	lea    0x64f2(%rip),%rdx        # 11060 <g_184>
    ab6e:	48 89 94 c5 b0 f3 ff 	mov    %rdx,-0xc50(%rbp,%rax,8)
    ab75:	ff 
    ab76:	83 85 84 eb ff ff 01 	addl   $0x1,-0x147c(%rbp)
    ab7d:	83 bd 84 eb ff ff 02 	cmpl   $0x2,-0x147c(%rbp)
    ab84:	7e d9                	jle    ab5f <func_44+0x4972>
    ab86:	48 8b 85 f0 f8 ff ff 	mov    -0x710(%rbp),%rax
    ab8d:	48 89 85 68 f8 ff ff 	mov    %rax,-0x798(%rbp)
    ab94:	48 8b 85 68 f8 ff ff 	mov    -0x798(%rbp),%rax
    ab9b:	48 89 05 86 74 00 00 	mov    %rax,0x7486(%rip)        # 12028 <g_631>
    aba2:	48 c7 85 80 ec ff ff 	movq   $0x1d,-0x1380(%rbp)
    aba9:	1d 00 00 00 
    abad:	eb 24                	jmp    abd3 <func_44+0x49e6>
    abaf:	48 c7 85 b8 ec ff ff 	movq   $0x0,-0x1348(%rbp)
    abb6:	00 00 00 00 
    abba:	48 8b 05 6f 74 00 00 	mov    0x746f(%rip),%rax        # 12030 <g_637>
    abc1:	48 8d 15 78 6f 00 00 	lea    0x6f78(%rip),%rdx        # 11b40 <g_205>
    abc8:	48 89 10             	mov    %rdx,(%rax)
    abcb:	48 83 ad 80 ec ff ff 	subq   $0x1,-0x1380(%rbp)
    abd2:	01 
    abd3:	48 83 bd 80 ec ff ff 	cmpq   $0x10,-0x1380(%rbp)
    abda:	10 
    abdb:	75 d2                	jne    abaf <func_44+0x49c2>
    abdd:	0f b6 85 33 eb ff ff 	movzbl -0x14cd(%rbp),%eax
    abe4:	0f b7 15 3b 65 00 00 	movzwl 0x653b(%rip),%edx        # 11126 <g_323+0x46>
    abeb:	66 89 95 20 eb ff ff 	mov    %dx,-0x14e0(%rbp)
    abf2:	66 39 85 20 eb ff ff 	cmp    %ax,-0x14e0(%rbp)
    abf9:	72 0c                	jb     ac07 <func_44+0x4a1a>
    abfb:	0f b7 85 1c eb ff ff 	movzwl -0x14e4(%rbp),%eax
    ac02:	e9 a5 01 00 00       	jmpq   adac <func_44+0x4bbf>
    ac07:	48 8d 05 3a 74 00 00 	lea    0x743a(%rip),%rax        # 12048 <g_654>
    ac0e:	48 89 85 b0 ec ff ff 	mov    %rax,-0x1350(%rbp)
    ac15:	48 8b 05 1c 74 00 00 	mov    0x741c(%rip),%rax        # 12038 <g_642>
    ac1c:	48 8b 95 a0 ec ff ff 	mov    -0x1360(%rbp),%rdx
    ac23:	48 89 10             	mov    %rdx,(%rax)
    ac26:	0f b7 85 2a ee ff ff 	movzwl -0x11d6(%rbp),%eax
    ac2d:	66 85 c0             	test   %ax,%ax
    ac30:	0f 85 47 01 00 00    	jne    ad7d <func_44+0x4b90>
    ac36:	0f b7 9d 20 eb ff ff 	movzwl -0x14e0(%rbp),%ebx
    ac3d:	44 0f b7 a5 20 eb ff 	movzwl -0x14e0(%rbp),%r12d
    ac44:	ff 
    ac45:	8b 85 c8 ee ff ff    	mov    -0x1138(%rbp),%eax
    ac4b:	89 c2                	mov    %eax,%edx
    ac4d:	0f b7 85 20 eb ff ff 	movzwl -0x14e0(%rbp),%eax
    ac54:	09 d0                	or     %edx,%eax
    ac56:	0f b6 d0             	movzbl %al,%edx
    ac59:	48 8b 0d c0 73 00 00 	mov    0x73c0(%rip),%rcx        # 12020 <g_632>
    ac60:	48 8b 85 48 ec ff ff 	mov    -0x13b8(%rbp),%rax
    ac67:	0f b6 09             	movzbl (%rcx),%ecx
    ac6a:	88 08                	mov    %cl,(%rax)
    ac6c:	0f b6 00             	movzbl (%rax),%eax
    ac6f:	0f be c0             	movsbl %al,%eax
    ac72:	89 85 fc ef ff ff    	mov    %eax,-0x1004(%rbp)
    ac78:	48 8b 0d c9 73 00 00 	mov    0x73c9(%rip),%rcx        # 12048 <g_654>
    ac7f:	48 8b 85 b0 ec ff ff 	mov    -0x1350(%rbp),%rax
    ac86:	48 89 08             	mov    %rcx,(%rax)
    ac89:	48 8b 85 b0 ec ff ff 	mov    -0x1350(%rbp),%rax
    ac90:	48 8b 00             	mov    (%rax),%rax
    ac93:	48 8d 8d b0 f3 ff ff 	lea    -0xc50(%rbp),%rcx
    ac9a:	48 83 c1 10          	add    $0x10,%rcx
    ac9e:	48 39 c8             	cmp    %rcx,%rax
    aca1:	0f 95 c0             	setne  %al
    aca4:	0f b6 c0             	movzbl %al,%eax
    aca7:	89 d6                	mov    %edx,%esi
    aca9:	89 c7                	mov    %eax,%edi
    acab:	e8 c8 8e ff ff       	callq  3b78 <safe_sub_func_uint8_t_u_u>
    acb0:	84 c0                	test   %al,%al
    acb2:	75 0a                	jne    acbe <func_44+0x4ad1>
    acb4:	66 83 bd 24 eb ff ff 	cmpw   $0x0,-0x14dc(%rbp)
    acbb:	00 
    acbc:	74 07                	je     acc5 <func_44+0x4ad8>
    acbe:	ba 01 00 00 00       	mov    $0x1,%edx
    acc3:	eb 05                	jmp    acca <func_44+0x4add>
    acc5:	ba 00 00 00 00       	mov    $0x0,%edx
    acca:	0f b7 85 24 eb ff ff 	movzwl -0x14dc(%rbp),%eax
    acd1:	39 c2                	cmp    %eax,%edx
    acd3:	0f 9e c0             	setle  %al
    acd6:	0f b6 c0             	movzbl %al,%eax
    acd9:	be f9 ff ff ff       	mov    $0xfffffff9,%esi
    acde:	89 c7                	mov    %eax,%edi
    ace0:	e8 2d 85 ff ff       	callq  3212 <safe_mul_func_int8_t_s_s>
    ace5:	0f be c0             	movsbl %al,%eax
    ace8:	41 39 c4             	cmp    %eax,%r12d
    aceb:	0f 9c c0             	setl   %al
    acee:	0f b6 d0             	movzbl %al,%edx
    acf1:	0f b6 05 06 65 00 00 	movzbl 0x6506(%rip),%eax        # 111fe <g_658>
    acf8:	0f b6 c0             	movzbl %al,%eax
    acfb:	31 d0                	xor    %edx,%eax
    acfd:	0f bf d0             	movswl %ax,%edx
    ad00:	8b 85 88 eb ff ff    	mov    -0x1478(%rbp),%eax
    ad06:	98                   	cwtl   
    ad07:	89 d6                	mov    %edx,%esi
    ad09:	89 c7                	mov    %eax,%edi
    ad0b:	e8 a3 86 ff ff       	callq  33b3 <safe_add_func_int16_t_s_s>
    ad10:	66 85 c0             	test   %ax,%ax
    ad13:	75 0f                	jne    ad24 <func_44+0x4b37>
    ad15:	48 8b 05 24 73 00 00 	mov    0x7324(%rip),%rax        # 12040 <g_655>
    ad1c:	0f b7 00             	movzwl (%rax),%eax
    ad1f:	66 85 c0             	test   %ax,%ax
    ad22:	74 07                	je     ad2b <func_44+0x4b3e>
    ad24:	b8 01 00 00 00       	mov    $0x1,%eax
    ad29:	eb 05                	jmp    ad30 <func_44+0x4b43>
    ad2b:	b8 00 00 00 00       	mov    $0x0,%eax
    ad30:	39 d8                	cmp    %ebx,%eax
    ad32:	0f 9f c0             	setg   %al
    ad35:	0f b6 c0             	movzbl %al,%eax
    ad38:	48 89 c7             	mov    %rax,%rdi
    ad3b:	e8 d9 92 ff ff       	callq  4019 <safe_unary_minus_func_uint64_t_u>
    ad40:	89 c2                	mov    %eax,%edx
    ad42:	48 8b 85 a0 ec ff ff 	mov    -0x1360(%rbp),%rax
    ad49:	89 10                	mov    %edx,(%rax)
    ad4b:	8b 05 ef 62 00 00    	mov    0x62ef(%rip),%eax        # 11040 <g_19>
    ad51:	0f b7 c0             	movzwl %ax,%eax
    ad54:	be 07 00 00 00       	mov    $0x7,%esi
    ad59:	89 c7                	mov    %eax,%edi
    ad5b:	e8 bf 8f ff ff       	callq  3d1f <safe_sub_func_uint16_t_u_u>
    ad60:	0f b7 c0             	movzwl %ax,%eax
    ad63:	89 05 d7 62 00 00    	mov    %eax,0x62d7(%rip)        # 11040 <g_19>
    ad69:	8b 05 d1 62 00 00    	mov    0x62d1(%rip),%eax        # 11040 <g_19>
    ad6f:	83 f8 f5             	cmp    $0xfffffff5,%eax
    ad72:	0f 85 fc fb ff ff    	jne    a974 <func_44+0x4787>
    ad78:	eb 04                	jmp    ad7e <func_44+0x4b91>
    ad7a:	90                   	nop
    ad7b:	eb 01                	jmp    ad7e <func_44+0x4b91>
    ad7d:	90                   	nop
    ad7e:	48 8b 85 98 ec ff ff 	mov    -0x1368(%rbp),%rax
    ad85:	48 8d 95 4c eb ff ff 	lea    -0x14b4(%rbp),%rdx
    ad8c:	48 89 10             	mov    %rdx,(%rax)
    ad8f:	48 8b 05 82 72 00 00 	mov    0x7282(%rip),%rax        # 12018 <g_627>
    ad96:	48 8b 00             	mov    (%rax),%rax
    ad99:	48 8b 00             	mov    (%rax),%rax
    ad9c:	48 8b 00             	mov    (%rax),%rax
    ad9f:	c7 00 01 00 00 00    	movl   $0x1,(%rax)
    ada5:	0f b7 85 24 eb ff ff 	movzwl -0x14dc(%rbp),%eax
    adac:	48 8b 4d c8          	mov    -0x38(%rbp),%rcx
    adb0:	64 48 33 0c 25 28 00 	xor    %fs:0x28,%rcx
    adb7:	00 00 
    adb9:	74 05                	je     adc0 <func_44+0x4bd3>
    adbb:	e8 b0 82 ff ff       	callq  3070 <__stack_chk_fail@plt>
    adc0:	48 81 c4 d8 14 00 00 	add    $0x14d8,%rsp
    adc7:	5b                   	pop    %rbx
    adc8:	41 5c                	pop    %r12
    adca:	41 5d                	pop    %r13
    adcc:	41 5e                	pop    %r14
    adce:	41 5f                	pop    %r15
    add0:	5d                   	pop    %rbp
    add1:	c3                   	retq   

000000000000add2 <main>:
    add2:	f3 0f 1e fa          	endbr64 
    add6:	55                   	push   %rbp
    add7:	48 89 e5             	mov    %rsp,%rbp
    adda:	48 83 ec 20          	sub    $0x20,%rsp
    adde:	89 7d ec             	mov    %edi,-0x14(%rbp)
    ade1:	48 89 75 e0          	mov    %rsi,-0x20(%rbp)
    ade5:	c7 45 fc 00 00 00 00 	movl   $0x0,-0x4(%rbp)
    adec:	83 7d ec 02          	cmpl   $0x2,-0x14(%rbp)
    adf0:	74 25                	je     ae17 <main+0x45>
    adf2:	48 8b 45 e0          	mov    -0x20(%rbp),%rax
    adf6:	48 83 c0 08          	add    $0x8,%rax
    adfa:	48 8b 00             	mov    (%rax),%rax
    adfd:	48 8d 35 7c 2b 00 00 	lea    0x2b7c(%rip),%rsi        # d980 <_IO_stdin_used+0x1980>
    ae04:	48 89 c7             	mov    %rax,%rdi
    ae07:	e8 84 82 ff ff       	callq  3090 <strcmp@plt>
    ae0c:	85 c0                	test   %eax,%eax
    ae0e:	74 07                	je     ae17 <main+0x45>
    ae10:	c7 45 fc 01 00 00 00 	movl   $0x1,-0x4(%rbp)
    ae17:	e8 6d 83 ff ff       	callq  3189 <platform_main_begin>
    ae1c:	e8 77 97 ff ff       	callq  4598 <crc32_gentab>
    ae21:	e8 8f 99 ff ff       	callq  47b5 <func_1>
    ae26:	c7 45 f0 00 00 00 00 	movl   $0x0,-0x10(%rbp)
    ae2d:	eb 4b                	jmp    ae7a <main+0xa8>
    ae2f:	8b 45 f0             	mov    -0x10(%rbp),%eax
    ae32:	48 98                	cltq   
    ae34:	48 8d 14 85 00 00 00 	lea    0x0(,%rax,4),%rdx
    ae3b:	00 
    ae3c:	48 8d 05 ed 61 00 00 	lea    0x61ed(%rip),%rax        # 11030 <g_3>
    ae43:	8b 04 02             	mov    (%rdx,%rax,1),%eax
    ae46:	48 98                	cltq   
    ae48:	8b 55 fc             	mov    -0x4(%rbp),%edx
    ae4b:	48 8d 35 30 2b 00 00 	lea    0x2b30(%rip),%rsi        # d982 <_IO_stdin_used+0x1982>
    ae52:	48 89 c7             	mov    %rax,%rdi
    ae55:	e8 99 98 ff ff       	callq  46f3 <transparent_crc>
    ae5a:	83 7d fc 00          	cmpl   $0x0,-0x4(%rbp)
    ae5e:	74 16                	je     ae76 <main+0xa4>
    ae60:	8b 45 f0             	mov    -0x10(%rbp),%eax
    ae63:	89 c6                	mov    %eax,%esi
    ae65:	48 8d 3d 1d 2b 00 00 	lea    0x2b1d(%rip),%rdi        # d989 <_IO_stdin_used+0x1989>
    ae6c:	b8 00 00 00 00       	mov    $0x0,%eax
    ae71:	e8 0a 82 ff ff       	callq  3080 <printf@plt>
    ae76:	83 45 f0 01          	addl   $0x1,-0x10(%rbp)
    ae7a:	83 7d f0 03          	cmpl   $0x3,-0x10(%rbp)
    ae7e:	7e af                	jle    ae2f <main+0x5d>
    ae80:	8b 05 ba 61 00 00    	mov    0x61ba(%rip),%eax        # 11040 <g_19>
    ae86:	48 98                	cltq   
    ae88:	8b 55 fc             	mov    -0x4(%rbp),%edx
    ae8b:	48 8d 35 05 2b 00 00 	lea    0x2b05(%rip),%rsi        # d997 <_IO_stdin_used+0x1997>
    ae92:	48 89 c7             	mov    %rax,%rdi
    ae95:	e8 59 98 ff ff       	callq  46f3 <transparent_crc>
    ae9a:	48 8b 05 a7 61 00 00 	mov    0x61a7(%rip),%rax        # 11048 <g_52>
    aea1:	8b 55 fc             	mov    -0x4(%rbp),%edx
    aea4:	48 8d 35 f1 2a 00 00 	lea    0x2af1(%rip),%rsi        # d99c <_IO_stdin_used+0x199c>
    aeab:	48 89 c7             	mov    %rax,%rdi
    aeae:	e8 40 98 ff ff       	callq  46f3 <transparent_crc>
    aeb3:	8b 05 97 61 00 00    	mov    0x6197(%rip),%eax        # 11050 <g_58>
    aeb9:	48 98                	cltq   
    aebb:	8b 55 fc             	mov    -0x4(%rbp),%edx
    aebe:	48 8d 35 dc 2a 00 00 	lea    0x2adc(%rip),%rsi        # d9a1 <_IO_stdin_used+0x19a1>
    aec5:	48 89 c7             	mov    %rax,%rdi
    aec8:	e8 26 98 ff ff       	callq  46f3 <transparent_crc>
    aecd:	0f b6 05 80 61 00 00 	movzbl 0x6180(%rip),%eax        # 11054 <g_64>
    aed4:	0f b6 c0             	movzbl %al,%eax
    aed7:	8b 55 fc             	mov    -0x4(%rbp),%edx
    aeda:	48 8d 35 c5 2a 00 00 	lea    0x2ac5(%rip),%rsi        # d9a6 <_IO_stdin_used+0x19a6>
    aee1:	48 89 c7             	mov    %rax,%rdi
    aee4:	e8 0a 98 ff ff       	callq  46f3 <transparent_crc>
    aee9:	0f b7 05 66 61 00 00 	movzwl 0x6166(%rip),%eax        # 11056 <g_69>
    aef0:	48 0f bf c0          	movswq %ax,%rax
    aef4:	8b 55 fc             	mov    -0x4(%rbp),%edx
    aef7:	48 8d 35 ad 2a 00 00 	lea    0x2aad(%rip),%rsi        # d9ab <_IO_stdin_used+0x19ab>
    aefe:	48 89 c7             	mov    %rax,%rdi
    af01:	e8 ed 97 ff ff       	callq  46f3 <transparent_crc>
    af06:	0f b7 05 4b 61 00 00 	movzwl 0x614b(%rip),%eax        # 11058 <g_71>
    af0d:	48 0f bf c0          	movswq %ax,%rax
    af11:	8b 55 fc             	mov    -0x4(%rbp),%edx
    af14:	48 8d 35 95 2a 00 00 	lea    0x2a95(%rip),%rsi        # d9b0 <_IO_stdin_used+0x19b0>
    af1b:	48 89 c7             	mov    %rax,%rdi
    af1e:	e8 d0 97 ff ff       	callq  46f3 <transparent_crc>
    af23:	0f b6 05 30 61 00 00 	movzbl 0x6130(%rip),%eax        # 1105a <g_103>
    af2a:	48 0f be c0          	movsbq %al,%rax
    af2e:	8b 55 fc             	mov    -0x4(%rbp),%edx
    af31:	48 8d 35 7d 2a 00 00 	lea    0x2a7d(%rip),%rsi        # d9b5 <_IO_stdin_used+0x19b5>
    af38:	48 89 c7             	mov    %rax,%rdi
    af3b:	e8 b3 97 ff ff       	callq  46f3 <transparent_crc>
    af40:	8b 05 16 61 00 00    	mov    0x6116(%rip),%eax        # 1105c <g_157>
    af46:	89 c1                	mov    %eax,%ecx
    af48:	8b 45 fc             	mov    -0x4(%rbp),%eax
    af4b:	89 c2                	mov    %eax,%edx
    af4d:	48 8d 35 67 2a 00 00 	lea    0x2a67(%rip),%rsi        # d9bb <_IO_stdin_used+0x19bb>
    af54:	48 89 cf             	mov    %rcx,%rdi
    af57:	e8 97 97 ff ff       	callq  46f3 <transparent_crc>
    af5c:	0f b7 05 fd 60 00 00 	movzwl 0x60fd(%rip),%eax        # 11060 <g_184>
    af63:	0f b7 c0             	movzwl %ax,%eax
    af66:	8b 55 fc             	mov    -0x4(%rbp),%edx
    af69:	48 8d 35 51 2a 00 00 	lea    0x2a51(%rip),%rsi        # d9c1 <_IO_stdin_used+0x19c1>
    af70:	48 89 c7             	mov    %rax,%rdi
    af73:	e8 7b 97 ff ff       	callq  46f3 <transparent_crc>
    af78:	c7 45 f0 00 00 00 00 	movl   $0x0,-0x10(%rbp)
    af7f:	eb 75                	jmp    aff6 <main+0x224>
    af81:	c7 45 f4 00 00 00 00 	movl   $0x0,-0xc(%rbp)
    af88:	eb 62                	jmp    afec <main+0x21a>
    af8a:	8b 45 f4             	mov    -0xc(%rbp),%eax
    af8d:	48 63 c8             	movslq %eax,%rcx
    af90:	8b 45 f0             	mov    -0x10(%rbp),%eax
    af93:	48 63 d0             	movslq %eax,%rdx
    af96:	48 89 d0             	mov    %rdx,%rax
    af99:	48 c1 e0 03          	shl    $0x3,%rax
    af9d:	48 29 d0             	sub    %rdx,%rax
    afa0:	48 01 c8             	add    %rcx,%rax
    afa3:	48 8d 14 85 00 00 00 	lea    0x0(,%rax,4),%rdx
    afaa:	00 
    afab:	48 8d 05 ce 60 00 00 	lea    0x60ce(%rip),%rax        # 11080 <g_195>
    afb2:	8b 04 02             	mov    (%rdx,%rax,1),%eax
    afb5:	48 98                	cltq   
    afb7:	8b 55 fc             	mov    -0x4(%rbp),%edx
    afba:	48 8d 35 06 2a 00 00 	lea    0x2a06(%rip),%rsi        # d9c7 <_IO_stdin_used+0x19c7>
    afc1:	48 89 c7             	mov    %rax,%rdi
    afc4:	e8 2a 97 ff ff       	callq  46f3 <transparent_crc>
    afc9:	83 7d fc 00          	cmpl   $0x0,-0x4(%rbp)
    afcd:	74 19                	je     afe8 <main+0x216>
    afcf:	8b 55 f4             	mov    -0xc(%rbp),%edx
    afd2:	8b 45 f0             	mov    -0x10(%rbp),%eax
    afd5:	89 c6                	mov    %eax,%esi
    afd7:	48 8d 3d f5 29 00 00 	lea    0x29f5(%rip),%rdi        # d9d3 <_IO_stdin_used+0x19d3>
    afde:	b8 00 00 00 00       	mov    $0x0,%eax
    afe3:	e8 98 80 ff ff       	callq  3080 <printf@plt>
    afe8:	83 45 f4 01          	addl   $0x1,-0xc(%rbp)
    afec:	83 7d f4 06          	cmpl   $0x6,-0xc(%rbp)
    aff0:	7e 98                	jle    af8a <main+0x1b8>
    aff2:	83 45 f0 01          	addl   $0x1,-0x10(%rbp)
    aff6:	83 7d f0 01          	cmpl   $0x1,-0x10(%rbp)
    affa:	7e 85                	jle    af81 <main+0x1af>
    affc:	48 8b 05 b5 60 00 00 	mov    0x60b5(%rip),%rax        # 110b8 <g_206>
    b003:	8b 55 fc             	mov    -0x4(%rbp),%edx
    b006:	48 8d 35 d8 29 00 00 	lea    0x29d8(%rip),%rsi        # d9e5 <_IO_stdin_used+0x19e5>
    b00d:	48 89 c7             	mov    %rax,%rdi
    b010:	e8 de 96 ff ff       	callq  46f3 <transparent_crc>
    b015:	0f b7 05 a4 60 00 00 	movzwl 0x60a4(%rip),%eax        # 110c0 <g_211>
    b01c:	48 0f bf c0          	movswq %ax,%rax
    b020:	8b 55 fc             	mov    -0x4(%rbp),%edx
    b023:	48 8d 35 c1 29 00 00 	lea    0x29c1(%rip),%rsi        # d9eb <_IO_stdin_used+0x19eb>
    b02a:	48 89 c7             	mov    %rax,%rdi
    b02d:	e8 c1 96 ff ff       	callq  46f3 <transparent_crc>
    b032:	48 8b 05 8f 60 00 00 	mov    0x608f(%rip),%rax        # 110c8 <g_230>
    b039:	48 89 c1             	mov    %rax,%rcx
    b03c:	8b 45 fc             	mov    -0x4(%rbp),%eax
    b03f:	89 c2                	mov    %eax,%edx
    b041:	48 8d 35 a9 29 00 00 	lea    0x29a9(%rip),%rsi        # d9f1 <_IO_stdin_used+0x19f1>
    b048:	48 89 cf             	mov    %rcx,%rdi
    b04b:	e8 a3 96 ff ff       	callq  46f3 <transparent_crc>
    b050:	48 8b 05 79 60 00 00 	mov    0x6079(%rip),%rax        # 110d0 <g_260>
    b057:	48 89 c1             	mov    %rax,%rcx
    b05a:	8b 45 fc             	mov    -0x4(%rbp),%eax
    b05d:	89 c2                	mov    %eax,%edx
    b05f:	48 8d 35 91 29 00 00 	lea    0x2991(%rip),%rsi        # d9f7 <_IO_stdin_used+0x19f7>
    b066:	48 89 cf             	mov    %rcx,%rdi
    b069:	e8 85 96 ff ff       	callq  46f3 <transparent_crc>
    b06e:	48 8b 05 63 60 00 00 	mov    0x6063(%rip),%rax        # 110d8 <g_281>
    b075:	48 89 c1             	mov    %rax,%rcx
    b078:	8b 45 fc             	mov    -0x4(%rbp),%eax
    b07b:	89 c2                	mov    %eax,%edx
    b07d:	48 8d 35 79 29 00 00 	lea    0x2979(%rip),%rsi        # d9fd <_IO_stdin_used+0x19fd>
    b084:	48 89 cf             	mov    %rcx,%rdi
    b087:	e8 67 96 ff ff       	callq  46f3 <transparent_crc>
    b08c:	c7 45 f0 00 00 00 00 	movl   $0x0,-0x10(%rbp)
    b093:	e9 93 00 00 00       	jmpq   b12b <main+0x359>
    b098:	c7 45 f4 00 00 00 00 	movl   $0x0,-0xc(%rbp)
    b09f:	eb 7c                	jmp    b11d <main+0x34b>
    b0a1:	c7 45 f8 00 00 00 00 	movl   $0x0,-0x8(%rbp)
    b0a8:	eb 69                	jmp    b113 <main+0x341>
    b0aa:	8b 45 f8             	mov    -0x8(%rbp),%eax
    b0ad:	48 98                	cltq   
    b0af:	8b 55 f0             	mov    -0x10(%rbp),%edx
    b0b2:	48 63 ca             	movslq %edx,%rcx
    b0b5:	8b 55 f4             	mov    -0xc(%rbp),%edx
    b0b8:	48 63 d2             	movslq %edx,%rdx
    b0bb:	48 c1 e1 02          	shl    $0x2,%rcx
    b0bf:	48 01 ca             	add    %rcx,%rdx
    b0c2:	48 c1 e2 02          	shl    $0x2,%rdx
    b0c6:	48 01 d0             	add    %rdx,%rax
    b0c9:	48 8d 14 00          	lea    (%rax,%rax,1),%rdx
    b0cd:	48 8d 05 0c 60 00 00 	lea    0x600c(%rip),%rax        # 110e0 <g_323>
    b0d4:	0f b7 04 02          	movzwl (%rdx,%rax,1),%eax
    b0d8:	0f b7 c0             	movzwl %ax,%eax
    b0db:	8b 55 fc             	mov    -0x4(%rbp),%edx
    b0de:	48 8d 35 1e 29 00 00 	lea    0x291e(%rip),%rsi        # da03 <_IO_stdin_used+0x1a03>
    b0e5:	48 89 c7             	mov    %rax,%rdi
    b0e8:	e8 06 96 ff ff       	callq  46f3 <transparent_crc>
    b0ed:	83 7d fc 00          	cmpl   $0x0,-0x4(%rbp)
    b0f1:	74 1c                	je     b10f <main+0x33d>
    b0f3:	8b 4d f8             	mov    -0x8(%rbp),%ecx
    b0f6:	8b 55 f4             	mov    -0xc(%rbp),%edx
    b0f9:	8b 45 f0             	mov    -0x10(%rbp),%eax
    b0fc:	89 c6                	mov    %eax,%esi
    b0fe:	48 8d 3d 0d 29 00 00 	lea    0x290d(%rip),%rdi        # da12 <_IO_stdin_used+0x1a12>
    b105:	b8 00 00 00 00       	mov    $0x0,%eax
    b10a:	e8 71 7f ff ff       	callq  3080 <printf@plt>
    b10f:	83 45 f8 01          	addl   $0x1,-0x8(%rbp)
    b113:	83 7d f8 03          	cmpl   $0x3,-0x8(%rbp)
    b117:	7e 91                	jle    b0aa <main+0x2d8>
    b119:	83 45 f4 01          	addl   $0x1,-0xc(%rbp)
    b11d:	83 7d f4 03          	cmpl   $0x3,-0xc(%rbp)
    b121:	0f 8e 7a ff ff ff    	jle    b0a1 <main+0x2cf>
    b127:	83 45 f0 01          	addl   $0x1,-0x10(%rbp)
    b12b:	83 7d f0 07          	cmpl   $0x7,-0x10(%rbp)
    b12f:	0f 8e 63 ff ff ff    	jle    b098 <main+0x2c6>
    b135:	c7 45 f0 00 00 00 00 	movl   $0x0,-0x10(%rbp)
    b13c:	eb 76                	jmp    b1b4 <main+0x3e2>
    b13e:	c7 45 f4 00 00 00 00 	movl   $0x0,-0xc(%rbp)
    b145:	eb 63                	jmp    b1aa <main+0x3d8>
    b147:	8b 45 f4             	mov    -0xc(%rbp),%eax
    b14a:	48 63 c8             	movslq %eax,%rcx
    b14d:	8b 45 f0             	mov    -0x10(%rbp),%eax
    b150:	48 63 d0             	movslq %eax,%rdx
    b153:	48 89 d0             	mov    %rdx,%rax
    b156:	48 c1 e0 02          	shl    $0x2,%rax
    b15a:	48 01 d0             	add    %rdx,%rax
    b15d:	48 01 c0             	add    %rax,%rax
    b160:	48 8d 14 08          	lea    (%rax,%rcx,1),%rdx
    b164:	48 8d 05 75 60 00 00 	lea    0x6075(%rip),%rax        # 111e0 <g_328>
    b16b:	48 01 d0             	add    %rdx,%rax
    b16e:	0f b6 00             	movzbl (%rax),%eax
    b171:	48 0f be c0          	movsbq %al,%rax
    b175:	8b 55 fc             	mov    -0x4(%rbp),%edx
    b178:	48 8d 35 a9 28 00 00 	lea    0x28a9(%rip),%rsi        # da28 <_IO_stdin_used+0x1a28>
    b17f:	48 89 c7             	mov    %rax,%rdi
    b182:	e8 6c 95 ff ff       	callq  46f3 <transparent_crc>
    b187:	83 7d fc 00          	cmpl   $0x0,-0x4(%rbp)
    b18b:	74 19                	je     b1a6 <main+0x3d4>
    b18d:	8b 55 f4             	mov    -0xc(%rbp),%edx
    b190:	8b 45 f0             	mov    -0x10(%rbp),%eax
    b193:	89 c6                	mov    %eax,%esi
    b195:	48 8d 3d 37 28 00 00 	lea    0x2837(%rip),%rdi        # d9d3 <_IO_stdin_used+0x19d3>
    b19c:	b8 00 00 00 00       	mov    $0x0,%eax
    b1a1:	e8 da 7e ff ff       	callq  3080 <printf@plt>
    b1a6:	83 45 f4 01          	addl   $0x1,-0xc(%rbp)
    b1aa:	83 7d f4 09          	cmpl   $0x9,-0xc(%rbp)
    b1ae:	7e 97                	jle    b147 <main+0x375>
    b1b0:	83 45 f0 01          	addl   $0x1,-0x10(%rbp)
    b1b4:	83 7d f0 02          	cmpl   $0x2,-0x10(%rbp)
    b1b8:	7e 84                	jle    b13e <main+0x36c>
    b1ba:	0f b6 05 3d 60 00 00 	movzbl 0x603d(%rip),%eax        # 111fe <g_658>
    b1c1:	0f b6 c0             	movzbl %al,%eax
    b1c4:	8b 55 fc             	mov    -0x4(%rbp),%edx
    b1c7:	48 8d 35 66 28 00 00 	lea    0x2866(%rip),%rsi        # da34 <_IO_stdin_used+0x1a34>
    b1ce:	48 89 c7             	mov    %rax,%rdi
    b1d1:	e8 1d 95 ff ff       	callq  46f3 <transparent_crc>
    b1d6:	0f b7 05 23 60 00 00 	movzwl 0x6023(%rip),%eax        # 11200 <g_661>
    b1dd:	48 0f bf c0          	movswq %ax,%rax
    b1e1:	8b 55 fc             	mov    -0x4(%rbp),%edx
    b1e4:	48 8d 35 4f 28 00 00 	lea    0x284f(%rip),%rsi        # da3a <_IO_stdin_used+0x1a3a>
    b1eb:	48 89 c7             	mov    %rax,%rdi
    b1ee:	e8 00 95 ff ff       	callq  46f3 <transparent_crc>
    b1f3:	0f b6 05 8e 73 00 00 	movzbl 0x738e(%rip),%eax        # 12588 <g_809>
    b1fa:	0f b6 c0             	movzbl %al,%eax
    b1fd:	8b 55 fc             	mov    -0x4(%rbp),%edx
    b200:	48 8d 35 39 28 00 00 	lea    0x2839(%rip),%rsi        # da40 <_IO_stdin_used+0x1a40>
    b207:	48 89 c7             	mov    %rax,%rdi
    b20a:	e8 e4 94 ff ff       	callq  46f3 <transparent_crc>
    b20f:	0f b6 05 ec 5f 00 00 	movzbl 0x5fec(%rip),%eax        # 11202 <g_890>
    b216:	48 0f be c0          	movsbq %al,%rax
    b21a:	8b 55 fc             	mov    -0x4(%rbp),%edx
    b21d:	48 8d 35 22 28 00 00 	lea    0x2822(%rip),%rsi        # da46 <_IO_stdin_used+0x1a46>
    b224:	48 89 c7             	mov    %rax,%rdi
    b227:	e8 c7 94 ff ff       	callq  46f3 <transparent_crc>
    b22c:	c7 45 f0 00 00 00 00 	movl   $0x0,-0x10(%rbp)
    b233:	eb 4b                	jmp    b280 <main+0x4ae>
    b235:	8b 45 f0             	mov    -0x10(%rbp),%eax
    b238:	48 98                	cltq   
    b23a:	48 8d 14 85 00 00 00 	lea    0x0(,%rax,4),%rdx
    b241:	00 
    b242:	48 8d 05 d7 5f 00 00 	lea    0x5fd7(%rip),%rax        # 11220 <g_906>
    b249:	8b 04 02             	mov    (%rdx,%rax,1),%eax
    b24c:	48 98                	cltq   
    b24e:	8b 55 fc             	mov    -0x4(%rbp),%edx
    b251:	48 8d 35 f4 27 00 00 	lea    0x27f4(%rip),%rsi        # da4c <_IO_stdin_used+0x1a4c>
    b258:	48 89 c7             	mov    %rax,%rdi
    b25b:	e8 93 94 ff ff       	callq  46f3 <transparent_crc>
    b260:	83 7d fc 00          	cmpl   $0x0,-0x4(%rbp)
    b264:	74 16                	je     b27c <main+0x4aa>
    b266:	8b 45 f0             	mov    -0x10(%rbp),%eax
    b269:	89 c6                	mov    %eax,%esi
    b26b:	48 8d 3d 17 27 00 00 	lea    0x2717(%rip),%rdi        # d989 <_IO_stdin_used+0x1989>
    b272:	b8 00 00 00 00       	mov    $0x0,%eax
    b277:	e8 04 7e ff ff       	callq  3080 <printf@plt>
    b27c:	83 45 f0 01          	addl   $0x1,-0x10(%rbp)
    b280:	83 7d f0 07          	cmpl   $0x7,-0x10(%rbp)
    b284:	7e af                	jle    b235 <main+0x463>
    b286:	48 8b 05 b3 5f 00 00 	mov    0x5fb3(%rip),%rax        # 11240 <g_1070>
    b28d:	8b 55 fc             	mov    -0x4(%rbp),%edx
    b290:	48 8d 35 be 27 00 00 	lea    0x27be(%rip),%rsi        # da55 <_IO_stdin_used+0x1a55>
    b297:	48 89 c7             	mov    %rax,%rdi
    b29a:	e8 54 94 ff ff       	callq  46f3 <transparent_crc>
    b29f:	c7 45 f0 00 00 00 00 	movl   $0x0,-0x10(%rbp)
    b2a6:	eb 75                	jmp    b31d <main+0x54b>
    b2a8:	c7 45 f4 00 00 00 00 	movl   $0x0,-0xc(%rbp)
    b2af:	eb 62                	jmp    b313 <main+0x541>
    b2b1:	8b 45 f4             	mov    -0xc(%rbp),%eax
    b2b4:	48 63 c8             	movslq %eax,%rcx
    b2b7:	8b 45 f0             	mov    -0x10(%rbp),%eax
    b2ba:	48 63 d0             	movslq %eax,%rdx
    b2bd:	48 89 d0             	mov    %rdx,%rax
    b2c0:	48 c1 e0 02          	shl    $0x2,%rax
    b2c4:	48 01 d0             	add    %rdx,%rax
    b2c7:	48 01 c8             	add    %rcx,%rax
    b2ca:	48 8d 14 85 00 00 00 	lea    0x0(,%rax,4),%rdx
    b2d1:	00 
    b2d2:	48 8d 05 87 5f 00 00 	lea    0x5f87(%rip),%rax        # 11260 <g_1078>
    b2d9:	8b 04 02             	mov    (%rdx,%rax,1),%eax
    b2dc:	48 98                	cltq   
    b2de:	8b 55 fc             	mov    -0x4(%rbp),%edx
    b2e1:	48 8d 35 74 27 00 00 	lea    0x2774(%rip),%rsi        # da5c <_IO_stdin_used+0x1a5c>
    b2e8:	48 89 c7             	mov    %rax,%rdi
    b2eb:	e8 03 94 ff ff       	callq  46f3 <transparent_crc>
    b2f0:	83 7d fc 00          	cmpl   $0x0,-0x4(%rbp)
    b2f4:	74 19                	je     b30f <main+0x53d>
    b2f6:	8b 55 f4             	mov    -0xc(%rbp),%edx
    b2f9:	8b 45 f0             	mov    -0x10(%rbp),%eax
    b2fc:	89 c6                	mov    %eax,%esi
    b2fe:	48 8d 3d ce 26 00 00 	lea    0x26ce(%rip),%rdi        # d9d3 <_IO_stdin_used+0x19d3>
    b305:	b8 00 00 00 00       	mov    $0x0,%eax
    b30a:	e8 71 7d ff ff       	callq  3080 <printf@plt>
    b30f:	83 45 f4 01          	addl   $0x1,-0xc(%rbp)
    b313:	83 7d f4 04          	cmpl   $0x4,-0xc(%rbp)
    b317:	7e 98                	jle    b2b1 <main+0x4df>
    b319:	83 45 f0 01          	addl   $0x1,-0x10(%rbp)
    b31d:	83 7d f0 01          	cmpl   $0x1,-0x10(%rbp)
    b321:	7e 85                	jle    b2a8 <main+0x4d6>
    b323:	8b 05 77 72 00 00    	mov    0x7277(%rip),%eax        # 125a0 <g_1090>
    b329:	48 98                	cltq   
    b32b:	8b 55 fc             	mov    -0x4(%rbp),%edx
    b32e:	48 8d 35 34 27 00 00 	lea    0x2734(%rip),%rsi        # da69 <_IO_stdin_used+0x1a69>
    b335:	48 89 c7             	mov    %rax,%rdi
    b338:	e8 b6 93 ff ff       	callq  46f3 <transparent_crc>
    b33d:	8b 05 dd 5c 00 00    	mov    0x5cdd(%rip),%eax        # 11020 <crc32_context>
    b343:	f7 d0                	not    %eax
    b345:	89 c2                	mov    %eax,%edx
    b347:	8b 45 fc             	mov    -0x4(%rbp),%eax
    b34a:	89 c6                	mov    %eax,%esi
    b34c:	89 d7                	mov    %edx,%edi
    b34e:	e8 41 7e ff ff       	callq  3194 <platform_main_end>
    b353:	b8 00 00 00 00       	mov    $0x0,%eax
    b358:	c9                   	leaveq 
    b359:	c3                   	retq   
    b35a:	66 0f 1f 44 00 00    	nopw   0x0(%rax,%rax,1)

000000000000b360 <__libc_csu_init>:
    b360:	f3 0f 1e fa          	endbr64 
    b364:	41 57                	push   %r15
    b366:	4c 8d 3d c3 59 00 00 	lea    0x59c3(%rip),%r15        # 10d30 <__frame_dummy_init_array_entry>
    b36d:	41 56                	push   %r14
    b36f:	49 89 d6             	mov    %rdx,%r14
    b372:	41 55                	push   %r13
    b374:	49 89 f5             	mov    %rsi,%r13
    b377:	41 54                	push   %r12
    b379:	41 89 fc             	mov    %edi,%r12d
    b37c:	55                   	push   %rbp
    b37d:	48 8d 2d b4 59 00 00 	lea    0x59b4(%rip),%rbp        # 10d38 <__do_global_dtors_aux_fini_array_entry>
    b384:	53                   	push   %rbx
    b385:	4c 29 fd             	sub    %r15,%rbp
    b388:	48 83 ec 08          	sub    $0x8,%rsp
    b38c:	e8 6f 7c ff ff       	callq  3000 <_init>
    b391:	48 c1 fd 03          	sar    $0x3,%rbp
    b395:	74 1f                	je     b3b6 <__libc_csu_init+0x56>
    b397:	31 db                	xor    %ebx,%ebx
    b399:	0f 1f 80 00 00 00 00 	nopl   0x0(%rax)
    b3a0:	4c 89 f2             	mov    %r14,%rdx
    b3a3:	4c 89 ee             	mov    %r13,%rsi
    b3a6:	44 89 e7             	mov    %r12d,%edi
    b3a9:	41 ff 14 df          	callq  *(%r15,%rbx,8)
    b3ad:	48 83 c3 01          	add    $0x1,%rbx
    b3b1:	48 39 dd             	cmp    %rbx,%rbp
    b3b4:	75 ea                	jne    b3a0 <__libc_csu_init+0x40>
    b3b6:	48 83 c4 08          	add    $0x8,%rsp
    b3ba:	5b                   	pop    %rbx
    b3bb:	5d                   	pop    %rbp
    b3bc:	41 5c                	pop    %r12
    b3be:	41 5d                	pop    %r13
    b3c0:	41 5e                	pop    %r14
    b3c2:	41 5f                	pop    %r15
    b3c4:	c3                   	retq   
    b3c5:	66 66 2e 0f 1f 84 00 	data16 nopw %cs:0x0(%rax,%rax,1)
    b3cc:	00 00 00 00 

000000000000b3d0 <__libc_csu_fini>:
    b3d0:	f3 0f 1e fa          	endbr64 
    b3d4:	c3                   	retq   
