


Disassembly of section .text:

00000000000070a0 <_start>:
    70a0:	f3 0f 1e fa          	endbr64 
    70a4:	31 ed                	xor    %ebp,%ebp
    70a6:	49 89 d1             	mov    %rdx,%r9
    70a9:	5e                   	pop    %rsi
    70aa:	48 89 e2             	mov    %rsp,%rdx
    70ad:	48 83 e4 f0          	and    $0xfffffffffffffff0,%rsp
    70b1:	50                   	push   %rax
    70b2:	54                   	push   %rsp
    70b3:	4c 8d 05 b6 68 00 00 	lea    0x68b6(%rip),%r8        # d970 <__libc_csu_fini>
    70ba:	48 8d 0d 3f 68 00 00 	lea    0x683f(%rip),%rcx        # d900 <__libc_csu_init>
    70c1:	48 8d 3d 70 61 00 00 	lea    0x6170(%rip),%rdi        # d238 <main>
    70c8:	ff 15 02 9f 00 00    	callq  *0x9f02(%rip)        # 10fd0 <__libc_start_main@GLIBC_2.2.5>
    70ce:	f4                   	hlt    
    70cf:	90                   	nop

00000000000070d0 <deregister_tm_clones>:
    70d0:	48 8d 3d 59 c9 00 00 	lea    0xc959(%rip),%rdi        # 13a30 <__TMC_END__>
    70d7:	48 8d 05 52 c9 00 00 	lea    0xc952(%rip),%rax        # 13a30 <__TMC_END__>
    70de:	48 39 f8             	cmp    %rdi,%rax
    70e1:	74 15                	je     70f8 <deregister_tm_clones+0x28>
    70e3:	48 8b 05 de 9e 00 00 	mov    0x9ede(%rip),%rax        # 10fc8 <_ITM_deregisterTMCloneTable>
    70ea:	48 85 c0             	test   %rax,%rax
    70ed:	74 09                	je     70f8 <deregister_tm_clones+0x28>
    70ef:	ff e0                	jmpq   *%rax
    70f1:	0f 1f 80 00 00 00 00 	nopl   0x0(%rax)
    70f8:	c3                   	retq   
    70f9:	0f 1f 80 00 00 00 00 	nopl   0x0(%rax)

0000000000007100 <register_tm_clones>:
    7100:	48 8d 3d 29 c9 00 00 	lea    0xc929(%rip),%rdi        # 13a30 <__TMC_END__>
    7107:	48 8d 35 22 c9 00 00 	lea    0xc922(%rip),%rsi        # 13a30 <__TMC_END__>
    710e:	48 29 fe             	sub    %rdi,%rsi
    7111:	48 89 f0             	mov    %rsi,%rax
    7114:	48 c1 ee 3f          	shr    $0x3f,%rsi
    7118:	48 c1 f8 03          	sar    $0x3,%rax
    711c:	48 01 c6             	add    %rax,%rsi
    711f:	48 d1 fe             	sar    %rsi
    7122:	74 14                	je     7138 <register_tm_clones+0x38>
    7124:	48 8b 05 b5 9e 00 00 	mov    0x9eb5(%rip),%rax        # 10fe0 <_ITM_registerTMCloneTable>
    712b:	48 85 c0             	test   %rax,%rax
    712e:	74 08                	je     7138 <register_tm_clones+0x38>
    7130:	ff e0                	jmpq   *%rax
    7132:	66 0f 1f 44 00 00    	nopw   0x0(%rax,%rax,1)
    7138:	c3                   	retq   
    7139:	0f 1f 80 00 00 00 00 	nopl   0x0(%rax)

0000000000007140 <__do_global_dtors_aux>:
    7140:	f3 0f 1e fa          	endbr64 
    7144:	80 3d f5 c8 00 00 00 	cmpb   $0x0,0xc8f5(%rip)        # 13a40 <completed.8061>
    714b:	75 2b                	jne    7178 <__do_global_dtors_aux+0x38>
    714d:	55                   	push   %rbp
    714e:	48 83 3d 92 9e 00 00 	cmpq   $0x0,0x9e92(%rip)        # 10fe8 <__cxa_finalize@GLIBC_2.2.5>
    7155:	00 
    7156:	48 89 e5             	mov    %rsp,%rbp
    7159:	74 0c                	je     7167 <__do_global_dtors_aux+0x27>
    715b:	48 8b 3d a6 9e 00 00 	mov    0x9ea6(%rip),%rdi        # 11008 <__dso_handle>
    7162:	e8 f9 fe ff ff       	callq  7060 <__cxa_finalize@plt>
    7167:	e8 64 ff ff ff       	callq  70d0 <deregister_tm_clones>
    716c:	c6 05 cd c8 00 00 01 	movb   $0x1,0xc8cd(%rip)        # 13a40 <completed.8061>
    7173:	5d                   	pop    %rbp
    7174:	c3                   	retq   
    7175:	0f 1f 00             	nopl   (%rax)
    7178:	c3                   	retq   
    7179:	0f 1f 80 00 00 00 00 	nopl   0x0(%rax)

0000000000007180 <frame_dummy>:
    7180:	f3 0f 1e fa          	endbr64 
    7184:	e9 77 ff ff ff       	jmpq   7100 <register_tm_clones>

0000000000007189 <platform_main_begin>:
    7189:	f3 0f 1e fa          	endbr64 
    718d:	55                   	push   %rbp
    718e:	48 89 e5             	mov    %rsp,%rbp
    7191:	90                   	nop
    7192:	5d                   	pop    %rbp
    7193:	c3                   	retq   

0000000000007194 <platform_main_end>:
    7194:	f3 0f 1e fa          	endbr64 
    7198:	55                   	push   %rbp
    7199:	48 89 e5             	mov    %rsp,%rbp
    719c:	48 83 ec 10          	sub    $0x10,%rsp
    71a0:	89 7d fc             	mov    %edi,-0x4(%rbp)
    71a3:	89 75 f8             	mov    %esi,-0x8(%rbp)
    71a6:	8b 45 fc             	mov    -0x4(%rbp),%eax
    71a9:	89 c6                	mov    %eax,%esi
    71ab:	48 8d 3d 6e 6e 00 00 	lea    0x6e6e(%rip),%rdi        # e020 <_IO_stdin_used+0x20>
    71b2:	b8 00 00 00 00       	mov    $0x0,%eax
    71b7:	e8 c4 fe ff ff       	callq  7080 <printf@plt>
    71bc:	90                   	nop
    71bd:	c9                   	leaveq 
    71be:	c3                   	retq   

00000000000071bf <safe_unary_minus_func_int8_t_s>:
    71bf:	f3 0f 1e fa          	endbr64 
    71c3:	55                   	push   %rbp
    71c4:	48 89 e5             	mov    %rsp,%rbp
    71c7:	89 f8                	mov    %edi,%eax
    71c9:	88 45 fc             	mov    %al,-0x4(%rbp)
    71cc:	0f b6 45 fc          	movzbl -0x4(%rbp),%eax
    71d0:	f7 d8                	neg    %eax
    71d2:	5d                   	pop    %rbp
    71d3:	c3                   	retq   

00000000000071d4 <safe_add_func_int8_t_s_s>:
    71d4:	f3 0f 1e fa          	endbr64 
    71d8:	55                   	push   %rbp
    71d9:	48 89 e5             	mov    %rsp,%rbp
    71dc:	89 fa                	mov    %edi,%edx
    71de:	89 f0                	mov    %esi,%eax
    71e0:	88 55 fc             	mov    %dl,-0x4(%rbp)
    71e3:	88 45 f8             	mov    %al,-0x8(%rbp)
    71e6:	0f b6 55 fc          	movzbl -0x4(%rbp),%edx
    71ea:	0f b6 45 f8          	movzbl -0x8(%rbp),%eax
    71ee:	01 d0                	add    %edx,%eax
    71f0:	5d                   	pop    %rbp
    71f1:	c3                   	retq   

00000000000071f2 <safe_sub_func_int8_t_s_s>:
    71f2:	f3 0f 1e fa          	endbr64 
    71f6:	55                   	push   %rbp
    71f7:	48 89 e5             	mov    %rsp,%rbp
    71fa:	89 fa                	mov    %edi,%edx
    71fc:	89 f0                	mov    %esi,%eax
    71fe:	88 55 fc             	mov    %dl,-0x4(%rbp)
    7201:	88 45 f8             	mov    %al,-0x8(%rbp)
    7204:	0f b6 55 fc          	movzbl -0x4(%rbp),%edx
    7208:	0f b6 45 f8          	movzbl -0x8(%rbp),%eax
    720c:	29 c2                	sub    %eax,%edx
    720e:	89 d0                	mov    %edx,%eax
    7210:	5d                   	pop    %rbp
    7211:	c3                   	retq   

0000000000007212 <safe_mul_func_int8_t_s_s>:
    7212:	f3 0f 1e fa          	endbr64 
    7216:	55                   	push   %rbp
    7217:	48 89 e5             	mov    %rsp,%rbp
    721a:	89 fa                	mov    %edi,%edx
    721c:	89 f0                	mov    %esi,%eax
    721e:	88 55 fc             	mov    %dl,-0x4(%rbp)
    7221:	88 45 f8             	mov    %al,-0x8(%rbp)
    7224:	0f b6 45 fc          	movzbl -0x4(%rbp),%eax
    7228:	0f b6 55 f8          	movzbl -0x8(%rbp),%edx
    722c:	0f af c2             	imul   %edx,%eax
    722f:	5d                   	pop    %rbp
    7230:	c3                   	retq   

0000000000007231 <safe_mod_func_int8_t_s_s>:
    7231:	f3 0f 1e fa          	endbr64 
    7235:	55                   	push   %rbp
    7236:	48 89 e5             	mov    %rsp,%rbp
    7239:	89 fa                	mov    %edi,%edx
    723b:	89 f0                	mov    %esi,%eax
    723d:	88 55 fc             	mov    %dl,-0x4(%rbp)
    7240:	88 45 f8             	mov    %al,-0x8(%rbp)
    7243:	80 7d f8 00          	cmpb   $0x0,-0x8(%rbp)
    7247:	74 1b                	je     7264 <safe_mod_func_int8_t_s_s+0x33>
    7249:	80 7d fc 80          	cmpb   $0x80,-0x4(%rbp)
    724d:	75 06                	jne    7255 <safe_mod_func_int8_t_s_s+0x24>
    724f:	80 7d f8 ff          	cmpb   $0xff,-0x8(%rbp)
    7253:	74 0f                	je     7264 <safe_mod_func_int8_t_s_s+0x33>
    7255:	0f be 45 fc          	movsbl -0x4(%rbp),%eax
    7259:	0f be 4d f8          	movsbl -0x8(%rbp),%ecx
    725d:	99                   	cltd   
    725e:	f7 f9                	idiv   %ecx
    7260:	89 d0                	mov    %edx,%eax
    7262:	eb 04                	jmp    7268 <safe_mod_func_int8_t_s_s+0x37>
    7264:	0f b6 45 fc          	movzbl -0x4(%rbp),%eax
    7268:	5d                   	pop    %rbp
    7269:	c3                   	retq   

000000000000726a <safe_div_func_int8_t_s_s>:
    726a:	f3 0f 1e fa          	endbr64 
    726e:	55                   	push   %rbp
    726f:	48 89 e5             	mov    %rsp,%rbp
    7272:	89 fa                	mov    %edi,%edx
    7274:	89 f0                	mov    %esi,%eax
    7276:	88 55 fc             	mov    %dl,-0x4(%rbp)
    7279:	88 45 f8             	mov    %al,-0x8(%rbp)
    727c:	80 7d f8 00          	cmpb   $0x0,-0x8(%rbp)
    7280:	74 19                	je     729b <safe_div_func_int8_t_s_s+0x31>
    7282:	80 7d fc 80          	cmpb   $0x80,-0x4(%rbp)
    7286:	75 06                	jne    728e <safe_div_func_int8_t_s_s+0x24>
    7288:	80 7d f8 ff          	cmpb   $0xff,-0x8(%rbp)
    728c:	74 0d                	je     729b <safe_div_func_int8_t_s_s+0x31>
    728e:	0f be 45 fc          	movsbl -0x4(%rbp),%eax
    7292:	0f be 4d f8          	movsbl -0x8(%rbp),%ecx
    7296:	99                   	cltd   
    7297:	f7 f9                	idiv   %ecx
    7299:	eb 04                	jmp    729f <safe_div_func_int8_t_s_s+0x35>
    729b:	0f b6 45 fc          	movzbl -0x4(%rbp),%eax
    729f:	5d                   	pop    %rbp
    72a0:	c3                   	retq   

00000000000072a1 <safe_lshift_func_int8_t_s_s>:
    72a1:	f3 0f 1e fa          	endbr64 
    72a5:	55                   	push   %rbp
    72a6:	48 89 e5             	mov    %rsp,%rbp
    72a9:	89 f8                	mov    %edi,%eax
    72ab:	89 75 f8             	mov    %esi,-0x8(%rbp)
    72ae:	88 45 fc             	mov    %al,-0x4(%rbp)
    72b1:	80 7d fc 00          	cmpb   $0x0,-0x4(%rbp)
    72b5:	78 31                	js     72e8 <safe_lshift_func_int8_t_s_s+0x47>
    72b7:	83 7d f8 00          	cmpl   $0x0,-0x8(%rbp)
    72bb:	78 2b                	js     72e8 <safe_lshift_func_int8_t_s_s+0x47>
    72bd:	83 7d f8 1f          	cmpl   $0x1f,-0x8(%rbp)
    72c1:	7f 25                	jg     72e8 <safe_lshift_func_int8_t_s_s+0x47>
    72c3:	0f be 55 fc          	movsbl -0x4(%rbp),%edx
    72c7:	8b 45 f8             	mov    -0x8(%rbp),%eax
    72ca:	be 7f 00 00 00       	mov    $0x7f,%esi
    72cf:	89 c1                	mov    %eax,%ecx
    72d1:	d3 fe                	sar    %cl,%esi
    72d3:	89 f0                	mov    %esi,%eax
    72d5:	39 c2                	cmp    %eax,%edx
    72d7:	7f 0f                	jg     72e8 <safe_lshift_func_int8_t_s_s+0x47>
    72d9:	0f be 55 fc          	movsbl -0x4(%rbp),%edx
    72dd:	8b 45 f8             	mov    -0x8(%rbp),%eax
    72e0:	89 c1                	mov    %eax,%ecx
    72e2:	d3 e2                	shl    %cl,%edx
    72e4:	89 d0                	mov    %edx,%eax
    72e6:	eb 04                	jmp    72ec <safe_lshift_func_int8_t_s_s+0x4b>
    72e8:	0f b6 45 fc          	movzbl -0x4(%rbp),%eax
    72ec:	5d                   	pop    %rbp
    72ed:	c3                   	retq   

00000000000072ee <safe_lshift_func_int8_t_s_u>:
    72ee:	f3 0f 1e fa          	endbr64 
    72f2:	55                   	push   %rbp
    72f3:	48 89 e5             	mov    %rsp,%rbp
    72f6:	89 f8                	mov    %edi,%eax
    72f8:	89 75 f8             	mov    %esi,-0x8(%rbp)
    72fb:	88 45 fc             	mov    %al,-0x4(%rbp)
    72fe:	80 7d fc 00          	cmpb   $0x0,-0x4(%rbp)
    7302:	78 2b                	js     732f <safe_lshift_func_int8_t_s_u+0x41>
    7304:	83 7d f8 1f          	cmpl   $0x1f,-0x8(%rbp)
    7308:	77 25                	ja     732f <safe_lshift_func_int8_t_s_u+0x41>
    730a:	0f be 55 fc          	movsbl -0x4(%rbp),%edx
    730e:	8b 45 f8             	mov    -0x8(%rbp),%eax
    7311:	be 7f 00 00 00       	mov    $0x7f,%esi
    7316:	89 c1                	mov    %eax,%ecx
    7318:	d3 fe                	sar    %cl,%esi
    731a:	89 f0                	mov    %esi,%eax
    731c:	39 c2                	cmp    %eax,%edx
    731e:	7f 0f                	jg     732f <safe_lshift_func_int8_t_s_u+0x41>
    7320:	0f be 55 fc          	movsbl -0x4(%rbp),%edx
    7324:	8b 45 f8             	mov    -0x8(%rbp),%eax
    7327:	89 c1                	mov    %eax,%ecx
    7329:	d3 e2                	shl    %cl,%edx
    732b:	89 d0                	mov    %edx,%eax
    732d:	eb 04                	jmp    7333 <safe_lshift_func_int8_t_s_u+0x45>
    732f:	0f b6 45 fc          	movzbl -0x4(%rbp),%eax
    7333:	5d                   	pop    %rbp
    7334:	c3                   	retq   

0000000000007335 <safe_rshift_func_int8_t_s_s>:
    7335:	f3 0f 1e fa          	endbr64 
    7339:	55                   	push   %rbp
    733a:	48 89 e5             	mov    %rsp,%rbp
    733d:	89 f8                	mov    %edi,%eax
    733f:	89 75 f8             	mov    %esi,-0x8(%rbp)
    7342:	88 45 fc             	mov    %al,-0x4(%rbp)
    7345:	80 7d fc 00          	cmpb   $0x0,-0x4(%rbp)
    7349:	78 1b                	js     7366 <safe_rshift_func_int8_t_s_s+0x31>
    734b:	83 7d f8 00          	cmpl   $0x0,-0x8(%rbp)
    734f:	78 15                	js     7366 <safe_rshift_func_int8_t_s_s+0x31>
    7351:	83 7d f8 1f          	cmpl   $0x1f,-0x8(%rbp)
    7355:	7f 0f                	jg     7366 <safe_rshift_func_int8_t_s_s+0x31>
    7357:	0f be 55 fc          	movsbl -0x4(%rbp),%edx
    735b:	8b 45 f8             	mov    -0x8(%rbp),%eax
    735e:	89 c1                	mov    %eax,%ecx
    7360:	d3 fa                	sar    %cl,%edx
    7362:	89 d0                	mov    %edx,%eax
    7364:	eb 04                	jmp    736a <safe_rshift_func_int8_t_s_s+0x35>
    7366:	0f b6 45 fc          	movzbl -0x4(%rbp),%eax
    736a:	5d                   	pop    %rbp
    736b:	c3                   	retq   

000000000000736c <safe_rshift_func_int8_t_s_u>:
    736c:	f3 0f 1e fa          	endbr64 
    7370:	55                   	push   %rbp
    7371:	48 89 e5             	mov    %rsp,%rbp
    7374:	89 f8                	mov    %edi,%eax
    7376:	89 75 f8             	mov    %esi,-0x8(%rbp)
    7379:	88 45 fc             	mov    %al,-0x4(%rbp)
    737c:	80 7d fc 00          	cmpb   $0x0,-0x4(%rbp)
    7380:	78 15                	js     7397 <safe_rshift_func_int8_t_s_u+0x2b>
    7382:	83 7d f8 1f          	cmpl   $0x1f,-0x8(%rbp)
    7386:	77 0f                	ja     7397 <safe_rshift_func_int8_t_s_u+0x2b>
    7388:	0f be 55 fc          	movsbl -0x4(%rbp),%edx
    738c:	8b 45 f8             	mov    -0x8(%rbp),%eax
    738f:	89 c1                	mov    %eax,%ecx
    7391:	d3 fa                	sar    %cl,%edx
    7393:	89 d0                	mov    %edx,%eax
    7395:	eb 04                	jmp    739b <safe_rshift_func_int8_t_s_u+0x2f>
    7397:	0f b6 45 fc          	movzbl -0x4(%rbp),%eax
    739b:	5d                   	pop    %rbp
    739c:	c3                   	retq   

000000000000739d <safe_unary_minus_func_int16_t_s>:
    739d:	f3 0f 1e fa          	endbr64 
    73a1:	55                   	push   %rbp
    73a2:	48 89 e5             	mov    %rsp,%rbp
    73a5:	89 f8                	mov    %edi,%eax
    73a7:	66 89 45 fc          	mov    %ax,-0x4(%rbp)
    73ab:	0f b7 45 fc          	movzwl -0x4(%rbp),%eax
    73af:	f7 d8                	neg    %eax
    73b1:	5d                   	pop    %rbp
    73b2:	c3                   	retq   

00000000000073b3 <safe_add_func_int16_t_s_s>:
    73b3:	f3 0f 1e fa          	endbr64 
    73b7:	55                   	push   %rbp
    73b8:	48 89 e5             	mov    %rsp,%rbp
    73bb:	89 fa                	mov    %edi,%edx
    73bd:	89 f0                	mov    %esi,%eax
    73bf:	66 89 55 fc          	mov    %dx,-0x4(%rbp)
    73c3:	66 89 45 f8          	mov    %ax,-0x8(%rbp)
    73c7:	0f b7 55 fc          	movzwl -0x4(%rbp),%edx
    73cb:	0f b7 45 f8          	movzwl -0x8(%rbp),%eax
    73cf:	01 d0                	add    %edx,%eax
    73d1:	5d                   	pop    %rbp
    73d2:	c3                   	retq   

00000000000073d3 <safe_sub_func_int16_t_s_s>:
    73d3:	f3 0f 1e fa          	endbr64 
    73d7:	55                   	push   %rbp
    73d8:	48 89 e5             	mov    %rsp,%rbp
    73db:	89 fa                	mov    %edi,%edx
    73dd:	89 f0                	mov    %esi,%eax
    73df:	66 89 55 fc          	mov    %dx,-0x4(%rbp)
    73e3:	66 89 45 f8          	mov    %ax,-0x8(%rbp)
    73e7:	0f b7 55 fc          	movzwl -0x4(%rbp),%edx
    73eb:	0f b7 45 f8          	movzwl -0x8(%rbp),%eax
    73ef:	29 c2                	sub    %eax,%edx
    73f1:	89 d0                	mov    %edx,%eax
    73f3:	5d                   	pop    %rbp
    73f4:	c3                   	retq   

00000000000073f5 <safe_mul_func_int16_t_s_s>:
    73f5:	f3 0f 1e fa          	endbr64 
    73f9:	55                   	push   %rbp
    73fa:	48 89 e5             	mov    %rsp,%rbp
    73fd:	89 fa                	mov    %edi,%edx
    73ff:	89 f0                	mov    %esi,%eax
    7401:	66 89 55 fc          	mov    %dx,-0x4(%rbp)
    7405:	66 89 45 f8          	mov    %ax,-0x8(%rbp)
    7409:	0f b7 55 fc          	movzwl -0x4(%rbp),%edx
    740d:	0f b7 45 f8          	movzwl -0x8(%rbp),%eax
    7411:	0f af c2             	imul   %edx,%eax
    7414:	5d                   	pop    %rbp
    7415:	c3                   	retq   

0000000000007416 <safe_mod_func_int16_t_s_s>:
    7416:	f3 0f 1e fa          	endbr64 
    741a:	55                   	push   %rbp
    741b:	48 89 e5             	mov    %rsp,%rbp
    741e:	89 fa                	mov    %edi,%edx
    7420:	89 f0                	mov    %esi,%eax
    7422:	66 89 55 fc          	mov    %dx,-0x4(%rbp)
    7426:	66 89 45 f8          	mov    %ax,-0x8(%rbp)
    742a:	66 83 7d f8 00       	cmpw   $0x0,-0x8(%rbp)
    742f:	74 1e                	je     744f <safe_mod_func_int16_t_s_s+0x39>
    7431:	66 81 7d fc 00 80    	cmpw   $0x8000,-0x4(%rbp)
    7437:	75 07                	jne    7440 <safe_mod_func_int16_t_s_s+0x2a>
    7439:	66 83 7d f8 ff       	cmpw   $0xffff,-0x8(%rbp)
    743e:	74 0f                	je     744f <safe_mod_func_int16_t_s_s+0x39>
    7440:	0f bf 45 fc          	movswl -0x4(%rbp),%eax
    7444:	0f bf 4d f8          	movswl -0x8(%rbp),%ecx
    7448:	99                   	cltd   
    7449:	f7 f9                	idiv   %ecx
    744b:	89 d0                	mov    %edx,%eax
    744d:	eb 04                	jmp    7453 <safe_mod_func_int16_t_s_s+0x3d>
    744f:	0f b7 45 fc          	movzwl -0x4(%rbp),%eax
    7453:	5d                   	pop    %rbp
    7454:	c3                   	retq   

0000000000007455 <safe_div_func_int16_t_s_s>:
    7455:	f3 0f 1e fa          	endbr64 
    7459:	55                   	push   %rbp
    745a:	48 89 e5             	mov    %rsp,%rbp
    745d:	89 fa                	mov    %edi,%edx
    745f:	89 f0                	mov    %esi,%eax
    7461:	66 89 55 fc          	mov    %dx,-0x4(%rbp)
    7465:	66 89 45 f8          	mov    %ax,-0x8(%rbp)
    7469:	66 83 7d f8 00       	cmpw   $0x0,-0x8(%rbp)
    746e:	74 1c                	je     748c <safe_div_func_int16_t_s_s+0x37>
    7470:	66 81 7d fc 00 80    	cmpw   $0x8000,-0x4(%rbp)
    7476:	75 07                	jne    747f <safe_div_func_int16_t_s_s+0x2a>
    7478:	66 83 7d f8 ff       	cmpw   $0xffff,-0x8(%rbp)
    747d:	74 0d                	je     748c <safe_div_func_int16_t_s_s+0x37>
    747f:	0f bf 45 fc          	movswl -0x4(%rbp),%eax
    7483:	0f bf 4d f8          	movswl -0x8(%rbp),%ecx
    7487:	99                   	cltd   
    7488:	f7 f9                	idiv   %ecx
    748a:	eb 04                	jmp    7490 <safe_div_func_int16_t_s_s+0x3b>
    748c:	0f b7 45 fc          	movzwl -0x4(%rbp),%eax
    7490:	5d                   	pop    %rbp
    7491:	c3                   	retq   

0000000000007492 <safe_lshift_func_int16_t_s_s>:
    7492:	f3 0f 1e fa          	endbr64 
    7496:	55                   	push   %rbp
    7497:	48 89 e5             	mov    %rsp,%rbp
    749a:	89 f8                	mov    %edi,%eax
    749c:	89 75 f8             	mov    %esi,-0x8(%rbp)
    749f:	66 89 45 fc          	mov    %ax,-0x4(%rbp)
    74a3:	66 83 7d fc 00       	cmpw   $0x0,-0x4(%rbp)
    74a8:	78 31                	js     74db <safe_lshift_func_int16_t_s_s+0x49>
    74aa:	83 7d f8 00          	cmpl   $0x0,-0x8(%rbp)
    74ae:	78 2b                	js     74db <safe_lshift_func_int16_t_s_s+0x49>
    74b0:	83 7d f8 1f          	cmpl   $0x1f,-0x8(%rbp)
    74b4:	7f 25                	jg     74db <safe_lshift_func_int16_t_s_s+0x49>
    74b6:	0f bf 55 fc          	movswl -0x4(%rbp),%edx
    74ba:	8b 45 f8             	mov    -0x8(%rbp),%eax
    74bd:	be ff 7f 00 00       	mov    $0x7fff,%esi
    74c2:	89 c1                	mov    %eax,%ecx
    74c4:	d3 fe                	sar    %cl,%esi
    74c6:	89 f0                	mov    %esi,%eax
    74c8:	39 c2                	cmp    %eax,%edx
    74ca:	7f 0f                	jg     74db <safe_lshift_func_int16_t_s_s+0x49>
    74cc:	0f bf 55 fc          	movswl -0x4(%rbp),%edx
    74d0:	8b 45 f8             	mov    -0x8(%rbp),%eax
    74d3:	89 c1                	mov    %eax,%ecx
    74d5:	d3 e2                	shl    %cl,%edx
    74d7:	89 d0                	mov    %edx,%eax
    74d9:	eb 04                	jmp    74df <safe_lshift_func_int16_t_s_s+0x4d>
    74db:	0f b7 45 fc          	movzwl -0x4(%rbp),%eax
    74df:	5d                   	pop    %rbp
    74e0:	c3                   	retq   

00000000000074e1 <safe_lshift_func_int16_t_s_u>:
    74e1:	f3 0f 1e fa          	endbr64 
    74e5:	55                   	push   %rbp
    74e6:	48 89 e5             	mov    %rsp,%rbp
    74e9:	89 f8                	mov    %edi,%eax
    74eb:	89 75 f8             	mov    %esi,-0x8(%rbp)
    74ee:	66 89 45 fc          	mov    %ax,-0x4(%rbp)
    74f2:	66 83 7d fc 00       	cmpw   $0x0,-0x4(%rbp)
    74f7:	78 2b                	js     7524 <safe_lshift_func_int16_t_s_u+0x43>
    74f9:	83 7d f8 1f          	cmpl   $0x1f,-0x8(%rbp)
    74fd:	77 25                	ja     7524 <safe_lshift_func_int16_t_s_u+0x43>
    74ff:	0f bf 55 fc          	movswl -0x4(%rbp),%edx
    7503:	8b 45 f8             	mov    -0x8(%rbp),%eax
    7506:	be ff 7f 00 00       	mov    $0x7fff,%esi
    750b:	89 c1                	mov    %eax,%ecx
    750d:	d3 fe                	sar    %cl,%esi
    750f:	89 f0                	mov    %esi,%eax
    7511:	39 c2                	cmp    %eax,%edx
    7513:	7f 0f                	jg     7524 <safe_lshift_func_int16_t_s_u+0x43>
    7515:	0f bf 55 fc          	movswl -0x4(%rbp),%edx
    7519:	8b 45 f8             	mov    -0x8(%rbp),%eax
    751c:	89 c1                	mov    %eax,%ecx
    751e:	d3 e2                	shl    %cl,%edx
    7520:	89 d0                	mov    %edx,%eax
    7522:	eb 04                	jmp    7528 <safe_lshift_func_int16_t_s_u+0x47>
    7524:	0f b7 45 fc          	movzwl -0x4(%rbp),%eax
    7528:	5d                   	pop    %rbp
    7529:	c3                   	retq   

000000000000752a <safe_rshift_func_int16_t_s_s>:
    752a:	f3 0f 1e fa          	endbr64 
    752e:	55                   	push   %rbp
    752f:	48 89 e5             	mov    %rsp,%rbp
    7532:	89 f8                	mov    %edi,%eax
    7534:	89 75 f8             	mov    %esi,-0x8(%rbp)
    7537:	66 89 45 fc          	mov    %ax,-0x4(%rbp)
    753b:	66 83 7d fc 00       	cmpw   $0x0,-0x4(%rbp)
    7540:	78 1b                	js     755d <safe_rshift_func_int16_t_s_s+0x33>
    7542:	83 7d f8 00          	cmpl   $0x0,-0x8(%rbp)
    7546:	78 15                	js     755d <safe_rshift_func_int16_t_s_s+0x33>
    7548:	83 7d f8 1f          	cmpl   $0x1f,-0x8(%rbp)
    754c:	7f 0f                	jg     755d <safe_rshift_func_int16_t_s_s+0x33>
    754e:	0f bf 55 fc          	movswl -0x4(%rbp),%edx
    7552:	8b 45 f8             	mov    -0x8(%rbp),%eax
    7555:	89 c1                	mov    %eax,%ecx
    7557:	d3 fa                	sar    %cl,%edx
    7559:	89 d0                	mov    %edx,%eax
    755b:	eb 04                	jmp    7561 <safe_rshift_func_int16_t_s_s+0x37>
    755d:	0f b7 45 fc          	movzwl -0x4(%rbp),%eax
    7561:	5d                   	pop    %rbp
    7562:	c3                   	retq   

0000000000007563 <safe_rshift_func_int16_t_s_u>:
    7563:	f3 0f 1e fa          	endbr64 
    7567:	55                   	push   %rbp
    7568:	48 89 e5             	mov    %rsp,%rbp
    756b:	89 f8                	mov    %edi,%eax
    756d:	89 75 f8             	mov    %esi,-0x8(%rbp)
    7570:	66 89 45 fc          	mov    %ax,-0x4(%rbp)
    7574:	66 83 7d fc 00       	cmpw   $0x0,-0x4(%rbp)
    7579:	78 15                	js     7590 <safe_rshift_func_int16_t_s_u+0x2d>
    757b:	83 7d f8 1f          	cmpl   $0x1f,-0x8(%rbp)
    757f:	77 0f                	ja     7590 <safe_rshift_func_int16_t_s_u+0x2d>
    7581:	0f bf 55 fc          	movswl -0x4(%rbp),%edx
    7585:	8b 45 f8             	mov    -0x8(%rbp),%eax
    7588:	89 c1                	mov    %eax,%ecx
    758a:	d3 fa                	sar    %cl,%edx
    758c:	89 d0                	mov    %edx,%eax
    758e:	eb 04                	jmp    7594 <safe_rshift_func_int16_t_s_u+0x31>
    7590:	0f b7 45 fc          	movzwl -0x4(%rbp),%eax
    7594:	5d                   	pop    %rbp
    7595:	c3                   	retq   

0000000000007596 <safe_unary_minus_func_int32_t_s>:
    7596:	f3 0f 1e fa          	endbr64 
    759a:	55                   	push   %rbp
    759b:	48 89 e5             	mov    %rsp,%rbp
    759e:	89 7d fc             	mov    %edi,-0x4(%rbp)
    75a1:	81 7d fc 00 00 00 80 	cmpl   $0x80000000,-0x4(%rbp)
    75a8:	74 07                	je     75b1 <safe_unary_minus_func_int32_t_s+0x1b>
    75aa:	8b 45 fc             	mov    -0x4(%rbp),%eax
    75ad:	f7 d8                	neg    %eax
    75af:	eb 03                	jmp    75b4 <safe_unary_minus_func_int32_t_s+0x1e>
    75b1:	8b 45 fc             	mov    -0x4(%rbp),%eax
    75b4:	5d                   	pop    %rbp
    75b5:	c3                   	retq   

00000000000075b6 <safe_add_func_int32_t_s_s>:
    75b6:	f3 0f 1e fa          	endbr64 
    75ba:	55                   	push   %rbp
    75bb:	48 89 e5             	mov    %rsp,%rbp
    75be:	89 7d fc             	mov    %edi,-0x4(%rbp)
    75c1:	89 75 f8             	mov    %esi,-0x8(%rbp)
    75c4:	83 7d fc 00          	cmpl   $0x0,-0x4(%rbp)
    75c8:	7e 13                	jle    75dd <safe_add_func_int32_t_s_s+0x27>
    75ca:	83 7d f8 00          	cmpl   $0x0,-0x8(%rbp)
    75ce:	7e 0d                	jle    75dd <safe_add_func_int32_t_s_s+0x27>
    75d0:	b8 ff ff ff 7f       	mov    $0x7fffffff,%eax
    75d5:	2b 45 f8             	sub    -0x8(%rbp),%eax
    75d8:	39 45 fc             	cmp    %eax,-0x4(%rbp)
    75db:	7f 23                	jg     7600 <safe_add_func_int32_t_s_s+0x4a>
    75dd:	83 7d fc 00          	cmpl   $0x0,-0x4(%rbp)
    75e1:	79 13                	jns    75f6 <safe_add_func_int32_t_s_s+0x40>
    75e3:	83 7d f8 00          	cmpl   $0x0,-0x8(%rbp)
    75e7:	79 0d                	jns    75f6 <safe_add_func_int32_t_s_s+0x40>
    75e9:	b8 00 00 00 80       	mov    $0x80000000,%eax
    75ee:	2b 45 f8             	sub    -0x8(%rbp),%eax
    75f1:	39 45 fc             	cmp    %eax,-0x4(%rbp)
    75f4:	7c 0a                	jl     7600 <safe_add_func_int32_t_s_s+0x4a>
    75f6:	8b 55 fc             	mov    -0x4(%rbp),%edx
    75f9:	8b 45 f8             	mov    -0x8(%rbp),%eax
    75fc:	01 d0                	add    %edx,%eax
    75fe:	eb 03                	jmp    7603 <safe_add_func_int32_t_s_s+0x4d>
    7600:	8b 45 fc             	mov    -0x4(%rbp),%eax
    7603:	5d                   	pop    %rbp
    7604:	c3                   	retq   

0000000000007605 <safe_sub_func_int32_t_s_s>:
    7605:	f3 0f 1e fa          	endbr64 
    7609:	55                   	push   %rbp
    760a:	48 89 e5             	mov    %rsp,%rbp
    760d:	89 7d fc             	mov    %edi,-0x4(%rbp)
    7610:	89 75 f8             	mov    %esi,-0x8(%rbp)
    7613:	8b 45 fc             	mov    -0x4(%rbp),%eax
    7616:	33 45 f8             	xor    -0x8(%rbp),%eax
    7619:	89 c2                	mov    %eax,%edx
    761b:	8b 45 fc             	mov    -0x4(%rbp),%eax
    761e:	33 45 f8             	xor    -0x8(%rbp),%eax
    7621:	25 00 00 00 80       	and    $0x80000000,%eax
    7626:	33 45 fc             	xor    -0x4(%rbp),%eax
    7629:	2b 45 f8             	sub    -0x8(%rbp),%eax
    762c:	33 45 f8             	xor    -0x8(%rbp),%eax
    762f:	21 d0                	and    %edx,%eax
    7631:	85 c0                	test   %eax,%eax
    7633:	78 08                	js     763d <safe_sub_func_int32_t_s_s+0x38>
    7635:	8b 45 fc             	mov    -0x4(%rbp),%eax
    7638:	2b 45 f8             	sub    -0x8(%rbp),%eax
    763b:	eb 03                	jmp    7640 <safe_sub_func_int32_t_s_s+0x3b>
    763d:	8b 45 fc             	mov    -0x4(%rbp),%eax
    7640:	5d                   	pop    %rbp
    7641:	c3                   	retq   

0000000000007642 <safe_mul_func_int32_t_s_s>:
    7642:	f3 0f 1e fa          	endbr64 
    7646:	55                   	push   %rbp
    7647:	48 89 e5             	mov    %rsp,%rbp
    764a:	89 7d fc             	mov    %edi,-0x4(%rbp)
    764d:	89 75 f8             	mov    %esi,-0x8(%rbp)
    7650:	83 7d fc 00          	cmpl   $0x0,-0x4(%rbp)
    7654:	7e 14                	jle    766a <safe_mul_func_int32_t_s_s+0x28>
    7656:	83 7d f8 00          	cmpl   $0x0,-0x8(%rbp)
    765a:	7e 0e                	jle    766a <safe_mul_func_int32_t_s_s+0x28>
    765c:	b8 ff ff ff 7f       	mov    $0x7fffffff,%eax
    7661:	99                   	cltd   
    7662:	f7 7d f8             	idivl  -0x8(%rbp)
    7665:	39 45 fc             	cmp    %eax,-0x4(%rbp)
    7668:	7f 5d                	jg     76c7 <safe_mul_func_int32_t_s_s+0x85>
    766a:	83 7d fc 00          	cmpl   $0x0,-0x4(%rbp)
    766e:	7e 14                	jle    7684 <safe_mul_func_int32_t_s_s+0x42>
    7670:	83 7d f8 00          	cmpl   $0x0,-0x8(%rbp)
    7674:	7f 0e                	jg     7684 <safe_mul_func_int32_t_s_s+0x42>
    7676:	b8 00 00 00 80       	mov    $0x80000000,%eax
    767b:	99                   	cltd   
    767c:	f7 7d fc             	idivl  -0x4(%rbp)
    767f:	39 45 f8             	cmp    %eax,-0x8(%rbp)
    7682:	7c 43                	jl     76c7 <safe_mul_func_int32_t_s_s+0x85>
    7684:	83 7d fc 00          	cmpl   $0x0,-0x4(%rbp)
    7688:	7f 14                	jg     769e <safe_mul_func_int32_t_s_s+0x5c>
    768a:	83 7d f8 00          	cmpl   $0x0,-0x8(%rbp)
    768e:	7e 0e                	jle    769e <safe_mul_func_int32_t_s_s+0x5c>
    7690:	b8 00 00 00 80       	mov    $0x80000000,%eax
    7695:	99                   	cltd   
    7696:	f7 7d f8             	idivl  -0x8(%rbp)
    7699:	39 45 fc             	cmp    %eax,-0x4(%rbp)
    769c:	7c 29                	jl     76c7 <safe_mul_func_int32_t_s_s+0x85>
    769e:	83 7d fc 00          	cmpl   $0x0,-0x4(%rbp)
    76a2:	7f 1a                	jg     76be <safe_mul_func_int32_t_s_s+0x7c>
    76a4:	83 7d f8 00          	cmpl   $0x0,-0x8(%rbp)
    76a8:	7f 14                	jg     76be <safe_mul_func_int32_t_s_s+0x7c>
    76aa:	83 7d fc 00          	cmpl   $0x0,-0x4(%rbp)
    76ae:	74 0e                	je     76be <safe_mul_func_int32_t_s_s+0x7c>
    76b0:	b8 ff ff ff 7f       	mov    $0x7fffffff,%eax
    76b5:	99                   	cltd   
    76b6:	f7 7d fc             	idivl  -0x4(%rbp)
    76b9:	39 45 f8             	cmp    %eax,-0x8(%rbp)
    76bc:	7c 09                	jl     76c7 <safe_mul_func_int32_t_s_s+0x85>
    76be:	8b 45 fc             	mov    -0x4(%rbp),%eax
    76c1:	0f af 45 f8          	imul   -0x8(%rbp),%eax
    76c5:	eb 03                	jmp    76ca <safe_mul_func_int32_t_s_s+0x88>
    76c7:	8b 45 fc             	mov    -0x4(%rbp),%eax
    76ca:	5d                   	pop    %rbp
    76cb:	c3                   	retq   

00000000000076cc <safe_mod_func_int32_t_s_s>:
    76cc:	f3 0f 1e fa          	endbr64 
    76d0:	55                   	push   %rbp
    76d1:	48 89 e5             	mov    %rsp,%rbp
    76d4:	89 7d fc             	mov    %edi,-0x4(%rbp)
    76d7:	89 75 f8             	mov    %esi,-0x8(%rbp)
    76da:	83 7d f8 00          	cmpl   $0x0,-0x8(%rbp)
    76de:	74 1a                	je     76fa <safe_mod_func_int32_t_s_s+0x2e>
    76e0:	81 7d fc 00 00 00 80 	cmpl   $0x80000000,-0x4(%rbp)
    76e7:	75 06                	jne    76ef <safe_mod_func_int32_t_s_s+0x23>
    76e9:	83 7d f8 ff          	cmpl   $0xffffffff,-0x8(%rbp)
    76ed:	74 0b                	je     76fa <safe_mod_func_int32_t_s_s+0x2e>
    76ef:	8b 45 fc             	mov    -0x4(%rbp),%eax
    76f2:	99                   	cltd   
    76f3:	f7 7d f8             	idivl  -0x8(%rbp)
    76f6:	89 d0                	mov    %edx,%eax
    76f8:	eb 03                	jmp    76fd <safe_mod_func_int32_t_s_s+0x31>
    76fa:	8b 45 fc             	mov    -0x4(%rbp),%eax
    76fd:	5d                   	pop    %rbp
    76fe:	c3                   	retq   

00000000000076ff <safe_div_func_int32_t_s_s>:
    76ff:	f3 0f 1e fa          	endbr64 
    7703:	55                   	push   %rbp
    7704:	48 89 e5             	mov    %rsp,%rbp
    7707:	89 7d fc             	mov    %edi,-0x4(%rbp)
    770a:	89 75 f8             	mov    %esi,-0x8(%rbp)
    770d:	83 7d f8 00          	cmpl   $0x0,-0x8(%rbp)
    7711:	74 18                	je     772b <safe_div_func_int32_t_s_s+0x2c>
    7713:	81 7d fc 00 00 00 80 	cmpl   $0x80000000,-0x4(%rbp)
    771a:	75 06                	jne    7722 <safe_div_func_int32_t_s_s+0x23>
    771c:	83 7d f8 ff          	cmpl   $0xffffffff,-0x8(%rbp)
    7720:	74 09                	je     772b <safe_div_func_int32_t_s_s+0x2c>
    7722:	8b 45 fc             	mov    -0x4(%rbp),%eax
    7725:	99                   	cltd   
    7726:	f7 7d f8             	idivl  -0x8(%rbp)
    7729:	eb 03                	jmp    772e <safe_div_func_int32_t_s_s+0x2f>
    772b:	8b 45 fc             	mov    -0x4(%rbp),%eax
    772e:	5d                   	pop    %rbp
    772f:	c3                   	retq   

0000000000007730 <safe_lshift_func_int32_t_s_s>:
    7730:	f3 0f 1e fa          	endbr64 
    7734:	55                   	push   %rbp
    7735:	48 89 e5             	mov    %rsp,%rbp
    7738:	89 7d fc             	mov    %edi,-0x4(%rbp)
    773b:	89 75 f8             	mov    %esi,-0x8(%rbp)
    773e:	83 7d fc 00          	cmpl   $0x0,-0x4(%rbp)
    7742:	78 2d                	js     7771 <safe_lshift_func_int32_t_s_s+0x41>
    7744:	83 7d f8 00          	cmpl   $0x0,-0x8(%rbp)
    7748:	78 27                	js     7771 <safe_lshift_func_int32_t_s_s+0x41>
    774a:	83 7d f8 1f          	cmpl   $0x1f,-0x8(%rbp)
    774e:	7f 21                	jg     7771 <safe_lshift_func_int32_t_s_s+0x41>
    7750:	8b 45 f8             	mov    -0x8(%rbp),%eax
    7753:	ba ff ff ff 7f       	mov    $0x7fffffff,%edx
    7758:	89 c1                	mov    %eax,%ecx
    775a:	d3 fa                	sar    %cl,%edx
    775c:	89 d0                	mov    %edx,%eax
    775e:	39 45 fc             	cmp    %eax,-0x4(%rbp)
    7761:	7f 0e                	jg     7771 <safe_lshift_func_int32_t_s_s+0x41>
    7763:	8b 45 f8             	mov    -0x8(%rbp),%eax
    7766:	8b 55 fc             	mov    -0x4(%rbp),%edx
    7769:	89 c1                	mov    %eax,%ecx
    776b:	d3 e2                	shl    %cl,%edx
    776d:	89 d0                	mov    %edx,%eax
    776f:	eb 03                	jmp    7774 <safe_lshift_func_int32_t_s_s+0x44>
    7771:	8b 45 fc             	mov    -0x4(%rbp),%eax
    7774:	5d                   	pop    %rbp
    7775:	c3                   	retq   

0000000000007776 <safe_lshift_func_int32_t_s_u>:
    7776:	f3 0f 1e fa          	endbr64 
    777a:	55                   	push   %rbp
    777b:	48 89 e5             	mov    %rsp,%rbp
    777e:	89 7d fc             	mov    %edi,-0x4(%rbp)
    7781:	89 75 f8             	mov    %esi,-0x8(%rbp)
    7784:	83 7d fc 00          	cmpl   $0x0,-0x4(%rbp)
    7788:	78 27                	js     77b1 <safe_lshift_func_int32_t_s_u+0x3b>
    778a:	83 7d f8 1f          	cmpl   $0x1f,-0x8(%rbp)
    778e:	77 21                	ja     77b1 <safe_lshift_func_int32_t_s_u+0x3b>
    7790:	8b 45 f8             	mov    -0x8(%rbp),%eax
    7793:	ba ff ff ff 7f       	mov    $0x7fffffff,%edx
    7798:	89 c1                	mov    %eax,%ecx
    779a:	d3 fa                	sar    %cl,%edx
    779c:	89 d0                	mov    %edx,%eax
    779e:	39 45 fc             	cmp    %eax,-0x4(%rbp)
    77a1:	7f 0e                	jg     77b1 <safe_lshift_func_int32_t_s_u+0x3b>
    77a3:	8b 45 f8             	mov    -0x8(%rbp),%eax
    77a6:	8b 55 fc             	mov    -0x4(%rbp),%edx
    77a9:	89 c1                	mov    %eax,%ecx
    77ab:	d3 e2                	shl    %cl,%edx
    77ad:	89 d0                	mov    %edx,%eax
    77af:	eb 03                	jmp    77b4 <safe_lshift_func_int32_t_s_u+0x3e>
    77b1:	8b 45 fc             	mov    -0x4(%rbp),%eax
    77b4:	5d                   	pop    %rbp
    77b5:	c3                   	retq   

00000000000077b6 <safe_rshift_func_int32_t_s_s>:
    77b6:	f3 0f 1e fa          	endbr64 
    77ba:	55                   	push   %rbp
    77bb:	48 89 e5             	mov    %rsp,%rbp
    77be:	89 7d fc             	mov    %edi,-0x4(%rbp)
    77c1:	89 75 f8             	mov    %esi,-0x8(%rbp)
    77c4:	83 7d fc 00          	cmpl   $0x0,-0x4(%rbp)
    77c8:	78 1a                	js     77e4 <safe_rshift_func_int32_t_s_s+0x2e>
    77ca:	83 7d f8 00          	cmpl   $0x0,-0x8(%rbp)
    77ce:	78 14                	js     77e4 <safe_rshift_func_int32_t_s_s+0x2e>
    77d0:	83 7d f8 1f          	cmpl   $0x1f,-0x8(%rbp)
    77d4:	7f 0e                	jg     77e4 <safe_rshift_func_int32_t_s_s+0x2e>
    77d6:	8b 45 f8             	mov    -0x8(%rbp),%eax
    77d9:	8b 55 fc             	mov    -0x4(%rbp),%edx
    77dc:	89 c1                	mov    %eax,%ecx
    77de:	d3 fa                	sar    %cl,%edx
    77e0:	89 d0                	mov    %edx,%eax
    77e2:	eb 03                	jmp    77e7 <safe_rshift_func_int32_t_s_s+0x31>
    77e4:	8b 45 fc             	mov    -0x4(%rbp),%eax
    77e7:	5d                   	pop    %rbp
    77e8:	c3                   	retq   

00000000000077e9 <safe_rshift_func_int32_t_s_u>:
    77e9:	f3 0f 1e fa          	endbr64 
    77ed:	55                   	push   %rbp
    77ee:	48 89 e5             	mov    %rsp,%rbp
    77f1:	89 7d fc             	mov    %edi,-0x4(%rbp)
    77f4:	89 75 f8             	mov    %esi,-0x8(%rbp)
    77f7:	83 7d fc 00          	cmpl   $0x0,-0x4(%rbp)
    77fb:	78 14                	js     7811 <safe_rshift_func_int32_t_s_u+0x28>
    77fd:	83 7d f8 1f          	cmpl   $0x1f,-0x8(%rbp)
    7801:	77 0e                	ja     7811 <safe_rshift_func_int32_t_s_u+0x28>
    7803:	8b 45 f8             	mov    -0x8(%rbp),%eax
    7806:	8b 55 fc             	mov    -0x4(%rbp),%edx
    7809:	89 c1                	mov    %eax,%ecx
    780b:	d3 fa                	sar    %cl,%edx
    780d:	89 d0                	mov    %edx,%eax
    780f:	eb 03                	jmp    7814 <safe_rshift_func_int32_t_s_u+0x2b>
    7811:	8b 45 fc             	mov    -0x4(%rbp),%eax
    7814:	5d                   	pop    %rbp
    7815:	c3                   	retq   

0000000000007816 <safe_unary_minus_func_int64_t_s>:
    7816:	f3 0f 1e fa          	endbr64 
    781a:	55                   	push   %rbp
    781b:	48 89 e5             	mov    %rsp,%rbp
    781e:	48 89 7d f8          	mov    %rdi,-0x8(%rbp)
    7822:	48 b8 00 00 00 00 00 	movabs $0x8000000000000000,%rax
    7829:	00 00 80 
    782c:	48 39 45 f8          	cmp    %rax,-0x8(%rbp)
    7830:	74 09                	je     783b <safe_unary_minus_func_int64_t_s+0x25>
    7832:	48 8b 45 f8          	mov    -0x8(%rbp),%rax
    7836:	48 f7 d8             	neg    %rax
    7839:	eb 04                	jmp    783f <safe_unary_minus_func_int64_t_s+0x29>
    783b:	48 8b 45 f8          	mov    -0x8(%rbp),%rax
    783f:	5d                   	pop    %rbp
    7840:	c3                   	retq   

0000000000007841 <safe_add_func_int64_t_s_s>:
    7841:	f3 0f 1e fa          	endbr64 
    7845:	55                   	push   %rbp
    7846:	48 89 e5             	mov    %rsp,%rbp
    7849:	48 89 7d f8          	mov    %rdi,-0x8(%rbp)
    784d:	48 89 75 f0          	mov    %rsi,-0x10(%rbp)
    7851:	48 83 7d f8 00       	cmpq   $0x0,-0x8(%rbp)
    7856:	7e 1b                	jle    7873 <safe_add_func_int64_t_s_s+0x32>
    7858:	48 83 7d f0 00       	cmpq   $0x0,-0x10(%rbp)
    785d:	7e 14                	jle    7873 <safe_add_func_int64_t_s_s+0x32>
    785f:	48 b8 ff ff ff ff ff 	movabs $0x7fffffffffffffff,%rax
    7866:	ff ff 7f 
    7869:	48 2b 45 f0          	sub    -0x10(%rbp),%rax
    786d:	48 39 45 f8          	cmp    %rax,-0x8(%rbp)
    7871:	7f 2f                	jg     78a2 <safe_add_func_int64_t_s_s+0x61>
    7873:	48 83 7d f8 00       	cmpq   $0x0,-0x8(%rbp)
    7878:	79 1b                	jns    7895 <safe_add_func_int64_t_s_s+0x54>
    787a:	48 83 7d f0 00       	cmpq   $0x0,-0x10(%rbp)
    787f:	79 14                	jns    7895 <safe_add_func_int64_t_s_s+0x54>
    7881:	48 b8 00 00 00 00 00 	movabs $0x8000000000000000,%rax
    7888:	00 00 80 
    788b:	48 2b 45 f0          	sub    -0x10(%rbp),%rax
    788f:	48 39 45 f8          	cmp    %rax,-0x8(%rbp)
    7893:	7c 0d                	jl     78a2 <safe_add_func_int64_t_s_s+0x61>
    7895:	48 8b 55 f8          	mov    -0x8(%rbp),%rdx
    7899:	48 8b 45 f0          	mov    -0x10(%rbp),%rax
    789d:	48 01 d0             	add    %rdx,%rax
    78a0:	eb 04                	jmp    78a6 <safe_add_func_int64_t_s_s+0x65>
    78a2:	48 8b 45 f8          	mov    -0x8(%rbp),%rax
    78a6:	5d                   	pop    %rbp
    78a7:	c3                   	retq   

00000000000078a8 <safe_sub_func_int64_t_s_s>:
    78a8:	f3 0f 1e fa          	endbr64 
    78ac:	55                   	push   %rbp
    78ad:	48 89 e5             	mov    %rsp,%rbp
    78b0:	48 89 7d f8          	mov    %rdi,-0x8(%rbp)
    78b4:	48 89 75 f0          	mov    %rsi,-0x10(%rbp)
    78b8:	48 8b 45 f8          	mov    -0x8(%rbp),%rax
    78bc:	48 33 45 f0          	xor    -0x10(%rbp),%rax
    78c0:	48 89 c2             	mov    %rax,%rdx
    78c3:	48 8b 45 f8          	mov    -0x8(%rbp),%rax
    78c7:	48 33 45 f0          	xor    -0x10(%rbp),%rax
    78cb:	48 b9 00 00 00 00 00 	movabs $0x8000000000000000,%rcx
    78d2:	00 00 80 
    78d5:	48 21 c8             	and    %rcx,%rax
    78d8:	48 33 45 f8          	xor    -0x8(%rbp),%rax
    78dc:	48 2b 45 f0          	sub    -0x10(%rbp),%rax
    78e0:	48 33 45 f0          	xor    -0x10(%rbp),%rax
    78e4:	48 21 d0             	and    %rdx,%rax
    78e7:	48 85 c0             	test   %rax,%rax
    78ea:	78 0a                	js     78f6 <safe_sub_func_int64_t_s_s+0x4e>
    78ec:	48 8b 45 f8          	mov    -0x8(%rbp),%rax
    78f0:	48 2b 45 f0          	sub    -0x10(%rbp),%rax
    78f4:	eb 04                	jmp    78fa <safe_sub_func_int64_t_s_s+0x52>
    78f6:	48 8b 45 f8          	mov    -0x8(%rbp),%rax
    78fa:	5d                   	pop    %rbp
    78fb:	c3                   	retq   

00000000000078fc <safe_mul_func_int64_t_s_s>:
    78fc:	f3 0f 1e fa          	endbr64 
    7900:	55                   	push   %rbp
    7901:	48 89 e5             	mov    %rsp,%rbp
    7904:	48 89 7d f8          	mov    %rdi,-0x8(%rbp)
    7908:	48 89 75 f0          	mov    %rsi,-0x10(%rbp)
    790c:	48 83 7d f8 00       	cmpq   $0x0,-0x8(%rbp)
    7911:	7e 1d                	jle    7930 <safe_mul_func_int64_t_s_s+0x34>
    7913:	48 83 7d f0 00       	cmpq   $0x0,-0x10(%rbp)
    7918:	7e 16                	jle    7930 <safe_mul_func_int64_t_s_s+0x34>
    791a:	48 b8 ff ff ff ff ff 	movabs $0x7fffffffffffffff,%rax
    7921:	ff ff 7f 
    7924:	48 99                	cqto   
    7926:	48 f7 7d f0          	idivq  -0x10(%rbp)
    792a:	48 39 45 f8          	cmp    %rax,-0x8(%rbp)
    792e:	7f 7e                	jg     79ae <safe_mul_func_int64_t_s_s+0xb2>
    7930:	48 83 7d f8 00       	cmpq   $0x0,-0x8(%rbp)
    7935:	7e 1d                	jle    7954 <safe_mul_func_int64_t_s_s+0x58>
    7937:	48 83 7d f0 00       	cmpq   $0x0,-0x10(%rbp)
    793c:	7f 16                	jg     7954 <safe_mul_func_int64_t_s_s+0x58>
    793e:	48 b8 00 00 00 00 00 	movabs $0x8000000000000000,%rax
    7945:	00 00 80 
    7948:	48 99                	cqto   
    794a:	48 f7 7d f8          	idivq  -0x8(%rbp)
    794e:	48 39 45 f0          	cmp    %rax,-0x10(%rbp)
    7952:	7c 5a                	jl     79ae <safe_mul_func_int64_t_s_s+0xb2>
    7954:	48 83 7d f8 00       	cmpq   $0x0,-0x8(%rbp)
    7959:	7f 1d                	jg     7978 <safe_mul_func_int64_t_s_s+0x7c>
    795b:	48 83 7d f0 00       	cmpq   $0x0,-0x10(%rbp)
    7960:	7e 16                	jle    7978 <safe_mul_func_int64_t_s_s+0x7c>
    7962:	48 b8 00 00 00 00 00 	movabs $0x8000000000000000,%rax
    7969:	00 00 80 
    796c:	48 99                	cqto   
    796e:	48 f7 7d f0          	idivq  -0x10(%rbp)
    7972:	48 39 45 f8          	cmp    %rax,-0x8(%rbp)
    7976:	7c 36                	jl     79ae <safe_mul_func_int64_t_s_s+0xb2>
    7978:	48 83 7d f8 00       	cmpq   $0x0,-0x8(%rbp)
    797d:	7f 24                	jg     79a3 <safe_mul_func_int64_t_s_s+0xa7>
    797f:	48 83 7d f0 00       	cmpq   $0x0,-0x10(%rbp)
    7984:	7f 1d                	jg     79a3 <safe_mul_func_int64_t_s_s+0xa7>
    7986:	48 83 7d f8 00       	cmpq   $0x0,-0x8(%rbp)
    798b:	74 16                	je     79a3 <safe_mul_func_int64_t_s_s+0xa7>
    798d:	48 b8 ff ff ff ff ff 	movabs $0x7fffffffffffffff,%rax
    7994:	ff ff 7f 
    7997:	48 99                	cqto   
    7999:	48 f7 7d f8          	idivq  -0x8(%rbp)
    799d:	48 39 45 f0          	cmp    %rax,-0x10(%rbp)
    79a1:	7c 0b                	jl     79ae <safe_mul_func_int64_t_s_s+0xb2>
    79a3:	48 8b 45 f8          	mov    -0x8(%rbp),%rax
    79a7:	48 0f af 45 f0       	imul   -0x10(%rbp),%rax
    79ac:	eb 04                	jmp    79b2 <safe_mul_func_int64_t_s_s+0xb6>
    79ae:	48 8b 45 f8          	mov    -0x8(%rbp),%rax
    79b2:	5d                   	pop    %rbp
    79b3:	c3                   	retq   

00000000000079b4 <safe_mod_func_int64_t_s_s>:
    79b4:	f3 0f 1e fa          	endbr64 
    79b8:	55                   	push   %rbp
    79b9:	48 89 e5             	mov    %rsp,%rbp
    79bc:	48 89 7d f8          	mov    %rdi,-0x8(%rbp)
    79c0:	48 89 75 f0          	mov    %rsi,-0x10(%rbp)
    79c4:	48 83 7d f0 00       	cmpq   $0x0,-0x10(%rbp)
    79c9:	74 26                	je     79f1 <safe_mod_func_int64_t_s_s+0x3d>
    79cb:	48 b8 00 00 00 00 00 	movabs $0x8000000000000000,%rax
    79d2:	00 00 80 
    79d5:	48 39 45 f8          	cmp    %rax,-0x8(%rbp)
    79d9:	75 07                	jne    79e2 <safe_mod_func_int64_t_s_s+0x2e>
    79db:	48 83 7d f0 ff       	cmpq   $0xffffffffffffffff,-0x10(%rbp)
    79e0:	74 0f                	je     79f1 <safe_mod_func_int64_t_s_s+0x3d>
    79e2:	48 8b 45 f8          	mov    -0x8(%rbp),%rax
    79e6:	48 99                	cqto   
    79e8:	48 f7 7d f0          	idivq  -0x10(%rbp)
    79ec:	48 89 d0             	mov    %rdx,%rax
    79ef:	eb 04                	jmp    79f5 <safe_mod_func_int64_t_s_s+0x41>
    79f1:	48 8b 45 f8          	mov    -0x8(%rbp),%rax
    79f5:	5d                   	pop    %rbp
    79f6:	c3                   	retq   

00000000000079f7 <safe_div_func_int64_t_s_s>:
    79f7:	f3 0f 1e fa          	endbr64 
    79fb:	55                   	push   %rbp
    79fc:	48 89 e5             	mov    %rsp,%rbp
    79ff:	48 89 7d f8          	mov    %rdi,-0x8(%rbp)
    7a03:	48 89 75 f0          	mov    %rsi,-0x10(%rbp)
    7a07:	48 83 7d f0 00       	cmpq   $0x0,-0x10(%rbp)
    7a0c:	74 23                	je     7a31 <safe_div_func_int64_t_s_s+0x3a>
    7a0e:	48 b8 00 00 00 00 00 	movabs $0x8000000000000000,%rax
    7a15:	00 00 80 
    7a18:	48 39 45 f8          	cmp    %rax,-0x8(%rbp)
    7a1c:	75 07                	jne    7a25 <safe_div_func_int64_t_s_s+0x2e>
    7a1e:	48 83 7d f0 ff       	cmpq   $0xffffffffffffffff,-0x10(%rbp)
    7a23:	74 0c                	je     7a31 <safe_div_func_int64_t_s_s+0x3a>
    7a25:	48 8b 45 f8          	mov    -0x8(%rbp),%rax
    7a29:	48 99                	cqto   
    7a2b:	48 f7 7d f0          	idivq  -0x10(%rbp)
    7a2f:	eb 04                	jmp    7a35 <safe_div_func_int64_t_s_s+0x3e>
    7a31:	48 8b 45 f8          	mov    -0x8(%rbp),%rax
    7a35:	5d                   	pop    %rbp
    7a36:	c3                   	retq   

0000000000007a37 <safe_lshift_func_int64_t_s_s>:
    7a37:	f3 0f 1e fa          	endbr64 
    7a3b:	55                   	push   %rbp
    7a3c:	48 89 e5             	mov    %rsp,%rbp
    7a3f:	48 89 7d f8          	mov    %rdi,-0x8(%rbp)
    7a43:	89 75 f4             	mov    %esi,-0xc(%rbp)
    7a46:	48 83 7d f8 00       	cmpq   $0x0,-0x8(%rbp)
    7a4b:	78 38                	js     7a85 <safe_lshift_func_int64_t_s_s+0x4e>
    7a4d:	83 7d f4 00          	cmpl   $0x0,-0xc(%rbp)
    7a51:	78 32                	js     7a85 <safe_lshift_func_int64_t_s_s+0x4e>
    7a53:	83 7d f4 1f          	cmpl   $0x1f,-0xc(%rbp)
    7a57:	7f 2c                	jg     7a85 <safe_lshift_func_int64_t_s_s+0x4e>
    7a59:	8b 45 f4             	mov    -0xc(%rbp),%eax
    7a5c:	48 ba ff ff ff ff ff 	movabs $0x7fffffffffffffff,%rdx
    7a63:	ff ff 7f 
    7a66:	89 c1                	mov    %eax,%ecx
    7a68:	48 d3 fa             	sar    %cl,%rdx
    7a6b:	48 89 d0             	mov    %rdx,%rax
    7a6e:	48 39 45 f8          	cmp    %rax,-0x8(%rbp)
    7a72:	7f 11                	jg     7a85 <safe_lshift_func_int64_t_s_s+0x4e>
    7a74:	8b 45 f4             	mov    -0xc(%rbp),%eax
    7a77:	48 8b 55 f8          	mov    -0x8(%rbp),%rdx
    7a7b:	89 c1                	mov    %eax,%ecx
    7a7d:	48 d3 e2             	shl    %cl,%rdx
    7a80:	48 89 d0             	mov    %rdx,%rax
    7a83:	eb 04                	jmp    7a89 <safe_lshift_func_int64_t_s_s+0x52>
    7a85:	48 8b 45 f8          	mov    -0x8(%rbp),%rax
    7a89:	5d                   	pop    %rbp
    7a8a:	c3                   	retq   

0000000000007a8b <safe_lshift_func_int64_t_s_u>:
    7a8b:	f3 0f 1e fa          	endbr64 
    7a8f:	55                   	push   %rbp
    7a90:	48 89 e5             	mov    %rsp,%rbp
    7a93:	48 89 7d f8          	mov    %rdi,-0x8(%rbp)
    7a97:	89 75 f4             	mov    %esi,-0xc(%rbp)
    7a9a:	48 83 7d f8 00       	cmpq   $0x0,-0x8(%rbp)
    7a9f:	78 32                	js     7ad3 <safe_lshift_func_int64_t_s_u+0x48>
    7aa1:	83 7d f4 1f          	cmpl   $0x1f,-0xc(%rbp)
    7aa5:	77 2c                	ja     7ad3 <safe_lshift_func_int64_t_s_u+0x48>
    7aa7:	8b 45 f4             	mov    -0xc(%rbp),%eax
    7aaa:	48 ba ff ff ff ff ff 	movabs $0x7fffffffffffffff,%rdx
    7ab1:	ff ff 7f 
    7ab4:	89 c1                	mov    %eax,%ecx
    7ab6:	48 d3 fa             	sar    %cl,%rdx
    7ab9:	48 89 d0             	mov    %rdx,%rax
    7abc:	48 39 45 f8          	cmp    %rax,-0x8(%rbp)
    7ac0:	7f 11                	jg     7ad3 <safe_lshift_func_int64_t_s_u+0x48>
    7ac2:	8b 45 f4             	mov    -0xc(%rbp),%eax
    7ac5:	48 8b 55 f8          	mov    -0x8(%rbp),%rdx
    7ac9:	89 c1                	mov    %eax,%ecx
    7acb:	48 d3 e2             	shl    %cl,%rdx
    7ace:	48 89 d0             	mov    %rdx,%rax
    7ad1:	eb 04                	jmp    7ad7 <safe_lshift_func_int64_t_s_u+0x4c>
    7ad3:	48 8b 45 f8          	mov    -0x8(%rbp),%rax
    7ad7:	5d                   	pop    %rbp
    7ad8:	c3                   	retq   

0000000000007ad9 <safe_rshift_func_int64_t_s_s>:
    7ad9:	f3 0f 1e fa          	endbr64 
    7add:	55                   	push   %rbp
    7ade:	48 89 e5             	mov    %rsp,%rbp
    7ae1:	48 89 7d f8          	mov    %rdi,-0x8(%rbp)
    7ae5:	89 75 f4             	mov    %esi,-0xc(%rbp)
    7ae8:	48 83 7d f8 00       	cmpq   $0x0,-0x8(%rbp)
    7aed:	78 1d                	js     7b0c <safe_rshift_func_int64_t_s_s+0x33>
    7aef:	83 7d f4 00          	cmpl   $0x0,-0xc(%rbp)
    7af3:	78 17                	js     7b0c <safe_rshift_func_int64_t_s_s+0x33>
    7af5:	83 7d f4 1f          	cmpl   $0x1f,-0xc(%rbp)
    7af9:	7f 11                	jg     7b0c <safe_rshift_func_int64_t_s_s+0x33>
    7afb:	8b 45 f4             	mov    -0xc(%rbp),%eax
    7afe:	48 8b 55 f8          	mov    -0x8(%rbp),%rdx
    7b02:	89 c1                	mov    %eax,%ecx
    7b04:	48 d3 fa             	sar    %cl,%rdx
    7b07:	48 89 d0             	mov    %rdx,%rax
    7b0a:	eb 04                	jmp    7b10 <safe_rshift_func_int64_t_s_s+0x37>
    7b0c:	48 8b 45 f8          	mov    -0x8(%rbp),%rax
    7b10:	5d                   	pop    %rbp
    7b11:	c3                   	retq   

0000000000007b12 <safe_rshift_func_int64_t_s_u>:
    7b12:	f3 0f 1e fa          	endbr64 
    7b16:	55                   	push   %rbp
    7b17:	48 89 e5             	mov    %rsp,%rbp
    7b1a:	48 89 7d f8          	mov    %rdi,-0x8(%rbp)
    7b1e:	89 75 f4             	mov    %esi,-0xc(%rbp)
    7b21:	48 83 7d f8 00       	cmpq   $0x0,-0x8(%rbp)
    7b26:	78 17                	js     7b3f <safe_rshift_func_int64_t_s_u+0x2d>
    7b28:	83 7d f4 1f          	cmpl   $0x1f,-0xc(%rbp)
    7b2c:	77 11                	ja     7b3f <safe_rshift_func_int64_t_s_u+0x2d>
    7b2e:	8b 45 f4             	mov    -0xc(%rbp),%eax
    7b31:	48 8b 55 f8          	mov    -0x8(%rbp),%rdx
    7b35:	89 c1                	mov    %eax,%ecx
    7b37:	48 d3 fa             	sar    %cl,%rdx
    7b3a:	48 89 d0             	mov    %rdx,%rax
    7b3d:	eb 04                	jmp    7b43 <safe_rshift_func_int64_t_s_u+0x31>
    7b3f:	48 8b 45 f8          	mov    -0x8(%rbp),%rax
    7b43:	5d                   	pop    %rbp
    7b44:	c3                   	retq   

0000000000007b45 <safe_unary_minus_func_uint8_t_u>:
    7b45:	f3 0f 1e fa          	endbr64 
    7b49:	55                   	push   %rbp
    7b4a:	48 89 e5             	mov    %rsp,%rbp
    7b4d:	89 f8                	mov    %edi,%eax
    7b4f:	88 45 fc             	mov    %al,-0x4(%rbp)
    7b52:	0f b6 45 fc          	movzbl -0x4(%rbp),%eax
    7b56:	f7 d8                	neg    %eax
    7b58:	5d                   	pop    %rbp
    7b59:	c3                   	retq   

0000000000007b5a <safe_add_func_uint8_t_u_u>:
    7b5a:	f3 0f 1e fa          	endbr64 
    7b5e:	55                   	push   %rbp
    7b5f:	48 89 e5             	mov    %rsp,%rbp
    7b62:	89 fa                	mov    %edi,%edx
    7b64:	89 f0                	mov    %esi,%eax
    7b66:	88 55 fc             	mov    %dl,-0x4(%rbp)
    7b69:	88 45 f8             	mov    %al,-0x8(%rbp)
    7b6c:	0f b6 55 fc          	movzbl -0x4(%rbp),%edx
    7b70:	0f b6 45 f8          	movzbl -0x8(%rbp),%eax
    7b74:	01 d0                	add    %edx,%eax
    7b76:	5d                   	pop    %rbp
    7b77:	c3                   	retq   

0000000000007b78 <safe_sub_func_uint8_t_u_u>:
    7b78:	f3 0f 1e fa          	endbr64 
    7b7c:	55                   	push   %rbp
    7b7d:	48 89 e5             	mov    %rsp,%rbp
    7b80:	89 fa                	mov    %edi,%edx
    7b82:	89 f0                	mov    %esi,%eax
    7b84:	88 55 fc             	mov    %dl,-0x4(%rbp)
    7b87:	88 45 f8             	mov    %al,-0x8(%rbp)
    7b8a:	0f b6 45 fc          	movzbl -0x4(%rbp),%eax
    7b8e:	2a 45 f8             	sub    -0x8(%rbp),%al
    7b91:	5d                   	pop    %rbp
    7b92:	c3                   	retq   

0000000000007b93 <safe_mul_func_uint8_t_u_u>:
    7b93:	f3 0f 1e fa          	endbr64 
    7b97:	55                   	push   %rbp
    7b98:	48 89 e5             	mov    %rsp,%rbp
    7b9b:	89 fa                	mov    %edi,%edx
    7b9d:	89 f0                	mov    %esi,%eax
    7b9f:	88 55 fc             	mov    %dl,-0x4(%rbp)
    7ba2:	88 45 f8             	mov    %al,-0x8(%rbp)
    7ba5:	0f b6 45 fc          	movzbl -0x4(%rbp),%eax
    7ba9:	f6 65 f8             	mulb   -0x8(%rbp)
    7bac:	5d                   	pop    %rbp
    7bad:	c3                   	retq   

0000000000007bae <safe_mod_func_uint8_t_u_u>:
    7bae:	f3 0f 1e fa          	endbr64 
    7bb2:	55                   	push   %rbp
    7bb3:	48 89 e5             	mov    %rsp,%rbp
    7bb6:	89 fa                	mov    %edi,%edx
    7bb8:	89 f0                	mov    %esi,%eax
    7bba:	88 55 fc             	mov    %dl,-0x4(%rbp)
    7bbd:	88 45 f8             	mov    %al,-0x8(%rbp)
    7bc0:	80 7d f8 00          	cmpb   $0x0,-0x8(%rbp)
    7bc4:	74 0f                	je     7bd5 <safe_mod_func_uint8_t_u_u+0x27>
    7bc6:	0f b6 45 fc          	movzbl -0x4(%rbp),%eax
    7bca:	0f b6 c0             	movzbl %al,%eax
    7bcd:	f6 75 f8             	divb   -0x8(%rbp)
    7bd0:	0f b6 c4             	movzbl %ah,%eax
    7bd3:	eb 04                	jmp    7bd9 <safe_mod_func_uint8_t_u_u+0x2b>
    7bd5:	0f b6 45 fc          	movzbl -0x4(%rbp),%eax
    7bd9:	5d                   	pop    %rbp
    7bda:	c3                   	retq   

0000000000007bdb <safe_div_func_uint8_t_u_u>:
    7bdb:	f3 0f 1e fa          	endbr64 
    7bdf:	55                   	push   %rbp
    7be0:	48 89 e5             	mov    %rsp,%rbp
    7be3:	89 fa                	mov    %edi,%edx
    7be5:	89 f0                	mov    %esi,%eax
    7be7:	88 55 fc             	mov    %dl,-0x4(%rbp)
    7bea:	88 45 f8             	mov    %al,-0x8(%rbp)
    7bed:	80 7d f8 00          	cmpb   $0x0,-0x8(%rbp)
    7bf1:	74 0c                	je     7bff <safe_div_func_uint8_t_u_u+0x24>
    7bf3:	0f b6 45 fc          	movzbl -0x4(%rbp),%eax
    7bf7:	0f b6 c0             	movzbl %al,%eax
    7bfa:	f6 75 f8             	divb   -0x8(%rbp)
    7bfd:	eb 04                	jmp    7c03 <safe_div_func_uint8_t_u_u+0x28>
    7bff:	0f b6 45 fc          	movzbl -0x4(%rbp),%eax
    7c03:	5d                   	pop    %rbp
    7c04:	c3                   	retq   

0000000000007c05 <safe_lshift_func_uint8_t_u_s>:
    7c05:	f3 0f 1e fa          	endbr64 
    7c09:	55                   	push   %rbp
    7c0a:	48 89 e5             	mov    %rsp,%rbp
    7c0d:	89 f8                	mov    %edi,%eax
    7c0f:	89 75 f8             	mov    %esi,-0x8(%rbp)
    7c12:	88 45 fc             	mov    %al,-0x4(%rbp)
    7c15:	83 7d f8 00          	cmpl   $0x0,-0x8(%rbp)
    7c19:	78 2b                	js     7c46 <safe_lshift_func_uint8_t_u_s+0x41>
    7c1b:	83 7d f8 1f          	cmpl   $0x1f,-0x8(%rbp)
    7c1f:	7f 25                	jg     7c46 <safe_lshift_func_uint8_t_u_s+0x41>
    7c21:	0f b6 55 fc          	movzbl -0x4(%rbp),%edx
    7c25:	8b 45 f8             	mov    -0x8(%rbp),%eax
    7c28:	be ff 00 00 00       	mov    $0xff,%esi
    7c2d:	89 c1                	mov    %eax,%ecx
    7c2f:	d3 fe                	sar    %cl,%esi
    7c31:	89 f0                	mov    %esi,%eax
    7c33:	39 c2                	cmp    %eax,%edx
    7c35:	7f 0f                	jg     7c46 <safe_lshift_func_uint8_t_u_s+0x41>
    7c37:	0f b6 55 fc          	movzbl -0x4(%rbp),%edx
    7c3b:	8b 45 f8             	mov    -0x8(%rbp),%eax
    7c3e:	89 c1                	mov    %eax,%ecx
    7c40:	d3 e2                	shl    %cl,%edx
    7c42:	89 d0                	mov    %edx,%eax
    7c44:	eb 04                	jmp    7c4a <safe_lshift_func_uint8_t_u_s+0x45>
    7c46:	0f b6 45 fc          	movzbl -0x4(%rbp),%eax
    7c4a:	5d                   	pop    %rbp
    7c4b:	c3                   	retq   

0000000000007c4c <safe_lshift_func_uint8_t_u_u>:
    7c4c:	f3 0f 1e fa          	endbr64 
    7c50:	55                   	push   %rbp
    7c51:	48 89 e5             	mov    %rsp,%rbp
    7c54:	89 f8                	mov    %edi,%eax
    7c56:	89 75 f8             	mov    %esi,-0x8(%rbp)
    7c59:	88 45 fc             	mov    %al,-0x4(%rbp)
    7c5c:	83 7d f8 1f          	cmpl   $0x1f,-0x8(%rbp)
    7c60:	77 25                	ja     7c87 <safe_lshift_func_uint8_t_u_u+0x3b>
    7c62:	0f b6 55 fc          	movzbl -0x4(%rbp),%edx
    7c66:	8b 45 f8             	mov    -0x8(%rbp),%eax
    7c69:	be ff 00 00 00       	mov    $0xff,%esi
    7c6e:	89 c1                	mov    %eax,%ecx
    7c70:	d3 fe                	sar    %cl,%esi
    7c72:	89 f0                	mov    %esi,%eax
    7c74:	39 c2                	cmp    %eax,%edx
    7c76:	7f 0f                	jg     7c87 <safe_lshift_func_uint8_t_u_u+0x3b>
    7c78:	0f b6 55 fc          	movzbl -0x4(%rbp),%edx
    7c7c:	8b 45 f8             	mov    -0x8(%rbp),%eax
    7c7f:	89 c1                	mov    %eax,%ecx
    7c81:	d3 e2                	shl    %cl,%edx
    7c83:	89 d0                	mov    %edx,%eax
    7c85:	eb 04                	jmp    7c8b <safe_lshift_func_uint8_t_u_u+0x3f>
    7c87:	0f b6 45 fc          	movzbl -0x4(%rbp),%eax
    7c8b:	5d                   	pop    %rbp
    7c8c:	c3                   	retq   

0000000000007c8d <safe_rshift_func_uint8_t_u_s>:
    7c8d:	f3 0f 1e fa          	endbr64 
    7c91:	55                   	push   %rbp
    7c92:	48 89 e5             	mov    %rsp,%rbp
    7c95:	89 f8                	mov    %edi,%eax
    7c97:	89 75 f8             	mov    %esi,-0x8(%rbp)
    7c9a:	88 45 fc             	mov    %al,-0x4(%rbp)
    7c9d:	83 7d f8 00          	cmpl   $0x0,-0x8(%rbp)
    7ca1:	78 15                	js     7cb8 <safe_rshift_func_uint8_t_u_s+0x2b>
    7ca3:	83 7d f8 1f          	cmpl   $0x1f,-0x8(%rbp)
    7ca7:	7f 0f                	jg     7cb8 <safe_rshift_func_uint8_t_u_s+0x2b>
    7ca9:	0f b6 55 fc          	movzbl -0x4(%rbp),%edx
    7cad:	8b 45 f8             	mov    -0x8(%rbp),%eax
    7cb0:	89 c1                	mov    %eax,%ecx
    7cb2:	d3 fa                	sar    %cl,%edx
    7cb4:	89 d0                	mov    %edx,%eax
    7cb6:	eb 04                	jmp    7cbc <safe_rshift_func_uint8_t_u_s+0x2f>
    7cb8:	0f b6 45 fc          	movzbl -0x4(%rbp),%eax
    7cbc:	5d                   	pop    %rbp
    7cbd:	c3                   	retq   

0000000000007cbe <safe_rshift_func_uint8_t_u_u>:
    7cbe:	f3 0f 1e fa          	endbr64 
    7cc2:	55                   	push   %rbp
    7cc3:	48 89 e5             	mov    %rsp,%rbp
    7cc6:	89 f8                	mov    %edi,%eax
    7cc8:	89 75 f8             	mov    %esi,-0x8(%rbp)
    7ccb:	88 45 fc             	mov    %al,-0x4(%rbp)
    7cce:	83 7d f8 1f          	cmpl   $0x1f,-0x8(%rbp)
    7cd2:	77 0f                	ja     7ce3 <safe_rshift_func_uint8_t_u_u+0x25>
    7cd4:	0f b6 55 fc          	movzbl -0x4(%rbp),%edx
    7cd8:	8b 45 f8             	mov    -0x8(%rbp),%eax
    7cdb:	89 c1                	mov    %eax,%ecx
    7cdd:	d3 fa                	sar    %cl,%edx
    7cdf:	89 d0                	mov    %edx,%eax
    7ce1:	eb 04                	jmp    7ce7 <safe_rshift_func_uint8_t_u_u+0x29>
    7ce3:	0f b6 45 fc          	movzbl -0x4(%rbp),%eax
    7ce7:	5d                   	pop    %rbp
    7ce8:	c3                   	retq   

0000000000007ce9 <safe_unary_minus_func_uint16_t_u>:
    7ce9:	f3 0f 1e fa          	endbr64 
    7ced:	55                   	push   %rbp
    7cee:	48 89 e5             	mov    %rsp,%rbp
    7cf1:	89 f8                	mov    %edi,%eax
    7cf3:	66 89 45 fc          	mov    %ax,-0x4(%rbp)
    7cf7:	0f b7 45 fc          	movzwl -0x4(%rbp),%eax
    7cfb:	f7 d8                	neg    %eax
    7cfd:	5d                   	pop    %rbp
    7cfe:	c3                   	retq   

0000000000007cff <safe_add_func_uint16_t_u_u>:
    7cff:	f3 0f 1e fa          	endbr64 
    7d03:	55                   	push   %rbp
    7d04:	48 89 e5             	mov    %rsp,%rbp
    7d07:	89 fa                	mov    %edi,%edx
    7d09:	89 f0                	mov    %esi,%eax
    7d0b:	66 89 55 fc          	mov    %dx,-0x4(%rbp)
    7d0f:	66 89 45 f8          	mov    %ax,-0x8(%rbp)
    7d13:	0f b7 55 fc          	movzwl -0x4(%rbp),%edx
    7d17:	0f b7 45 f8          	movzwl -0x8(%rbp),%eax
    7d1b:	01 d0                	add    %edx,%eax
    7d1d:	5d                   	pop    %rbp
    7d1e:	c3                   	retq   

0000000000007d1f <safe_sub_func_uint16_t_u_u>:
    7d1f:	f3 0f 1e fa          	endbr64 
    7d23:	55                   	push   %rbp
    7d24:	48 89 e5             	mov    %rsp,%rbp
    7d27:	89 fa                	mov    %edi,%edx
    7d29:	89 f0                	mov    %esi,%eax
    7d2b:	66 89 55 fc          	mov    %dx,-0x4(%rbp)
    7d2f:	66 89 45 f8          	mov    %ax,-0x8(%rbp)
    7d33:	0f b7 45 fc          	movzwl -0x4(%rbp),%eax
    7d37:	66 2b 45 f8          	sub    -0x8(%rbp),%ax
    7d3b:	5d                   	pop    %rbp
    7d3c:	c3                   	retq   

0000000000007d3d <safe_mul_func_uint16_t_u_u>:
    7d3d:	f3 0f 1e fa          	endbr64 
    7d41:	55                   	push   %rbp
    7d42:	48 89 e5             	mov    %rsp,%rbp
    7d45:	89 fa                	mov    %edi,%edx
    7d47:	89 f0                	mov    %esi,%eax
    7d49:	66 89 55 fc          	mov    %dx,-0x4(%rbp)
    7d4d:	66 89 45 f8          	mov    %ax,-0x8(%rbp)
    7d51:	0f b7 45 fc          	movzwl -0x4(%rbp),%eax
    7d55:	66 0f af 45 f8       	imul   -0x8(%rbp),%ax
    7d5a:	5d                   	pop    %rbp
    7d5b:	c3                   	retq   

0000000000007d5c <safe_mod_func_uint16_t_u_u>:
    7d5c:	f3 0f 1e fa          	endbr64 
    7d60:	55                   	push   %rbp
    7d61:	48 89 e5             	mov    %rsp,%rbp
    7d64:	89 fa                	mov    %edi,%edx
    7d66:	89 f0                	mov    %esi,%eax
    7d68:	66 89 55 fc          	mov    %dx,-0x4(%rbp)
    7d6c:	66 89 45 f8          	mov    %ax,-0x8(%rbp)
    7d70:	66 83 7d f8 00       	cmpw   $0x0,-0x8(%rbp)
    7d75:	74 11                	je     7d88 <safe_mod_func_uint16_t_u_u+0x2c>
    7d77:	0f b7 45 fc          	movzwl -0x4(%rbp),%eax
    7d7b:	ba 00 00 00 00       	mov    $0x0,%edx
    7d80:	66 f7 75 f8          	divw   -0x8(%rbp)
    7d84:	89 d0                	mov    %edx,%eax
    7d86:	eb 04                	jmp    7d8c <safe_mod_func_uint16_t_u_u+0x30>
    7d88:	0f b7 45 fc          	movzwl -0x4(%rbp),%eax
    7d8c:	5d                   	pop    %rbp
    7d8d:	c3                   	retq   

0000000000007d8e <safe_div_func_uint16_t_u_u>:
    7d8e:	f3 0f 1e fa          	endbr64 
    7d92:	55                   	push   %rbp
    7d93:	48 89 e5             	mov    %rsp,%rbp
    7d96:	89 fa                	mov    %edi,%edx
    7d98:	89 f0                	mov    %esi,%eax
    7d9a:	66 89 55 fc          	mov    %dx,-0x4(%rbp)
    7d9e:	66 89 45 f8          	mov    %ax,-0x8(%rbp)
    7da2:	66 83 7d f8 00       	cmpw   $0x0,-0x8(%rbp)
    7da7:	74 0f                	je     7db8 <safe_div_func_uint16_t_u_u+0x2a>
    7da9:	0f b7 45 fc          	movzwl -0x4(%rbp),%eax
    7dad:	ba 00 00 00 00       	mov    $0x0,%edx
    7db2:	66 f7 75 f8          	divw   -0x8(%rbp)
    7db6:	eb 04                	jmp    7dbc <safe_div_func_uint16_t_u_u+0x2e>
    7db8:	0f b7 45 fc          	movzwl -0x4(%rbp),%eax
    7dbc:	5d                   	pop    %rbp
    7dbd:	c3                   	retq   

0000000000007dbe <safe_lshift_func_uint16_t_u_s>:
    7dbe:	f3 0f 1e fa          	endbr64 
    7dc2:	55                   	push   %rbp
    7dc3:	48 89 e5             	mov    %rsp,%rbp
    7dc6:	89 f8                	mov    %edi,%eax
    7dc8:	89 75 f8             	mov    %esi,-0x8(%rbp)
    7dcb:	66 89 45 fc          	mov    %ax,-0x4(%rbp)
    7dcf:	83 7d f8 00          	cmpl   $0x0,-0x8(%rbp)
    7dd3:	78 2b                	js     7e00 <safe_lshift_func_uint16_t_u_s+0x42>
    7dd5:	83 7d f8 1f          	cmpl   $0x1f,-0x8(%rbp)
    7dd9:	7f 25                	jg     7e00 <safe_lshift_func_uint16_t_u_s+0x42>
    7ddb:	0f b7 55 fc          	movzwl -0x4(%rbp),%edx
    7ddf:	8b 45 f8             	mov    -0x8(%rbp),%eax
    7de2:	be ff ff 00 00       	mov    $0xffff,%esi
    7de7:	89 c1                	mov    %eax,%ecx
    7de9:	d3 fe                	sar    %cl,%esi
    7deb:	89 f0                	mov    %esi,%eax
    7ded:	39 c2                	cmp    %eax,%edx
    7def:	7f 0f                	jg     7e00 <safe_lshift_func_uint16_t_u_s+0x42>
    7df1:	0f b7 55 fc          	movzwl -0x4(%rbp),%edx
    7df5:	8b 45 f8             	mov    -0x8(%rbp),%eax
    7df8:	89 c1                	mov    %eax,%ecx
    7dfa:	d3 e2                	shl    %cl,%edx
    7dfc:	89 d0                	mov    %edx,%eax
    7dfe:	eb 04                	jmp    7e04 <safe_lshift_func_uint16_t_u_s+0x46>
    7e00:	0f b7 45 fc          	movzwl -0x4(%rbp),%eax
    7e04:	5d                   	pop    %rbp
    7e05:	c3                   	retq   

0000000000007e06 <safe_lshift_func_uint16_t_u_u>:
    7e06:	f3 0f 1e fa          	endbr64 
    7e0a:	55                   	push   %rbp
    7e0b:	48 89 e5             	mov    %rsp,%rbp
    7e0e:	89 f8                	mov    %edi,%eax
    7e10:	89 75 f8             	mov    %esi,-0x8(%rbp)
    7e13:	66 89 45 fc          	mov    %ax,-0x4(%rbp)
    7e17:	83 7d f8 1f          	cmpl   $0x1f,-0x8(%rbp)
    7e1b:	77 25                	ja     7e42 <safe_lshift_func_uint16_t_u_u+0x3c>
    7e1d:	0f b7 55 fc          	movzwl -0x4(%rbp),%edx
    7e21:	8b 45 f8             	mov    -0x8(%rbp),%eax
    7e24:	be ff ff 00 00       	mov    $0xffff,%esi
    7e29:	89 c1                	mov    %eax,%ecx
    7e2b:	d3 fe                	sar    %cl,%esi
    7e2d:	89 f0                	mov    %esi,%eax
    7e2f:	39 c2                	cmp    %eax,%edx
    7e31:	7f 0f                	jg     7e42 <safe_lshift_func_uint16_t_u_u+0x3c>
    7e33:	0f b7 55 fc          	movzwl -0x4(%rbp),%edx
    7e37:	8b 45 f8             	mov    -0x8(%rbp),%eax
    7e3a:	89 c1                	mov    %eax,%ecx
    7e3c:	d3 e2                	shl    %cl,%edx
    7e3e:	89 d0                	mov    %edx,%eax
    7e40:	eb 04                	jmp    7e46 <safe_lshift_func_uint16_t_u_u+0x40>
    7e42:	0f b7 45 fc          	movzwl -0x4(%rbp),%eax
    7e46:	5d                   	pop    %rbp
    7e47:	c3                   	retq   

0000000000007e48 <safe_rshift_func_uint16_t_u_s>:
    7e48:	f3 0f 1e fa          	endbr64 
    7e4c:	55                   	push   %rbp
    7e4d:	48 89 e5             	mov    %rsp,%rbp
    7e50:	89 f8                	mov    %edi,%eax
    7e52:	89 75 f8             	mov    %esi,-0x8(%rbp)
    7e55:	66 89 45 fc          	mov    %ax,-0x4(%rbp)
    7e59:	83 7d f8 00          	cmpl   $0x0,-0x8(%rbp)
    7e5d:	78 15                	js     7e74 <safe_rshift_func_uint16_t_u_s+0x2c>
    7e5f:	83 7d f8 1f          	cmpl   $0x1f,-0x8(%rbp)
    7e63:	7f 0f                	jg     7e74 <safe_rshift_func_uint16_t_u_s+0x2c>
    7e65:	0f b7 55 fc          	movzwl -0x4(%rbp),%edx
    7e69:	8b 45 f8             	mov    -0x8(%rbp),%eax
    7e6c:	89 c1                	mov    %eax,%ecx
    7e6e:	d3 fa                	sar    %cl,%edx
    7e70:	89 d0                	mov    %edx,%eax
    7e72:	eb 04                	jmp    7e78 <safe_rshift_func_uint16_t_u_s+0x30>
    7e74:	0f b7 45 fc          	movzwl -0x4(%rbp),%eax
    7e78:	5d                   	pop    %rbp
    7e79:	c3                   	retq   

0000000000007e7a <safe_rshift_func_uint16_t_u_u>:
    7e7a:	f3 0f 1e fa          	endbr64 
    7e7e:	55                   	push   %rbp
    7e7f:	48 89 e5             	mov    %rsp,%rbp
    7e82:	89 f8                	mov    %edi,%eax
    7e84:	89 75 f8             	mov    %esi,-0x8(%rbp)
    7e87:	66 89 45 fc          	mov    %ax,-0x4(%rbp)
    7e8b:	83 7d f8 1f          	cmpl   $0x1f,-0x8(%rbp)
    7e8f:	77 0f                	ja     7ea0 <safe_rshift_func_uint16_t_u_u+0x26>
    7e91:	0f b7 55 fc          	movzwl -0x4(%rbp),%edx
    7e95:	8b 45 f8             	mov    -0x8(%rbp),%eax
    7e98:	89 c1                	mov    %eax,%ecx
    7e9a:	d3 fa                	sar    %cl,%edx
    7e9c:	89 d0                	mov    %edx,%eax
    7e9e:	eb 04                	jmp    7ea4 <safe_rshift_func_uint16_t_u_u+0x2a>
    7ea0:	0f b7 45 fc          	movzwl -0x4(%rbp),%eax
    7ea4:	5d                   	pop    %rbp
    7ea5:	c3                   	retq   

0000000000007ea6 <safe_unary_minus_func_uint32_t_u>:
    7ea6:	f3 0f 1e fa          	endbr64 
    7eaa:	55                   	push   %rbp
    7eab:	48 89 e5             	mov    %rsp,%rbp
    7eae:	89 7d fc             	mov    %edi,-0x4(%rbp)
    7eb1:	8b 45 fc             	mov    -0x4(%rbp),%eax
    7eb4:	f7 d8                	neg    %eax
    7eb6:	5d                   	pop    %rbp
    7eb7:	c3                   	retq   

0000000000007eb8 <safe_add_func_uint32_t_u_u>:
    7eb8:	f3 0f 1e fa          	endbr64 
    7ebc:	55                   	push   %rbp
    7ebd:	48 89 e5             	mov    %rsp,%rbp
    7ec0:	89 7d fc             	mov    %edi,-0x4(%rbp)
    7ec3:	89 75 f8             	mov    %esi,-0x8(%rbp)
    7ec6:	8b 55 fc             	mov    -0x4(%rbp),%edx
    7ec9:	8b 45 f8             	mov    -0x8(%rbp),%eax
    7ecc:	01 d0                	add    %edx,%eax
    7ece:	5d                   	pop    %rbp
    7ecf:	c3                   	retq   

0000000000007ed0 <safe_sub_func_uint32_t_u_u>:
    7ed0:	f3 0f 1e fa          	endbr64 
    7ed4:	55                   	push   %rbp
    7ed5:	48 89 e5             	mov    %rsp,%rbp
    7ed8:	89 7d fc             	mov    %edi,-0x4(%rbp)
    7edb:	89 75 f8             	mov    %esi,-0x8(%rbp)
    7ede:	8b 45 fc             	mov    -0x4(%rbp),%eax
    7ee1:	2b 45 f8             	sub    -0x8(%rbp),%eax
    7ee4:	5d                   	pop    %rbp
    7ee5:	c3                   	retq   

0000000000007ee6 <safe_mul_func_uint32_t_u_u>:
    7ee6:	f3 0f 1e fa          	endbr64 
    7eea:	55                   	push   %rbp
    7eeb:	48 89 e5             	mov    %rsp,%rbp
    7eee:	89 7d fc             	mov    %edi,-0x4(%rbp)
    7ef1:	89 75 f8             	mov    %esi,-0x8(%rbp)
    7ef4:	8b 45 fc             	mov    -0x4(%rbp),%eax
    7ef7:	0f af 45 f8          	imul   -0x8(%rbp),%eax
    7efb:	5d                   	pop    %rbp
    7efc:	c3                   	retq   

0000000000007efd <safe_mod_func_uint32_t_u_u>:
    7efd:	f3 0f 1e fa          	endbr64 
    7f01:	55                   	push   %rbp
    7f02:	48 89 e5             	mov    %rsp,%rbp
    7f05:	89 7d fc             	mov    %edi,-0x4(%rbp)
    7f08:	89 75 f8             	mov    %esi,-0x8(%rbp)
    7f0b:	83 7d f8 00          	cmpl   $0x0,-0x8(%rbp)
    7f0f:	74 0f                	je     7f20 <safe_mod_func_uint32_t_u_u+0x23>
    7f11:	8b 45 fc             	mov    -0x4(%rbp),%eax
    7f14:	ba 00 00 00 00       	mov    $0x0,%edx
    7f19:	f7 75 f8             	divl   -0x8(%rbp)
    7f1c:	89 d0                	mov    %edx,%eax
    7f1e:	eb 03                	jmp    7f23 <safe_mod_func_uint32_t_u_u+0x26>
    7f20:	8b 45 fc             	mov    -0x4(%rbp),%eax
    7f23:	5d                   	pop    %rbp
    7f24:	c3                   	retq   

0000000000007f25 <safe_div_func_uint32_t_u_u>:
    7f25:	f3 0f 1e fa          	endbr64 
    7f29:	55                   	push   %rbp
    7f2a:	48 89 e5             	mov    %rsp,%rbp
    7f2d:	89 7d fc             	mov    %edi,-0x4(%rbp)
    7f30:	89 75 f8             	mov    %esi,-0x8(%rbp)
    7f33:	83 7d f8 00          	cmpl   $0x0,-0x8(%rbp)
    7f37:	74 0d                	je     7f46 <safe_div_func_uint32_t_u_u+0x21>
    7f39:	8b 45 fc             	mov    -0x4(%rbp),%eax
    7f3c:	ba 00 00 00 00       	mov    $0x0,%edx
    7f41:	f7 75 f8             	divl   -0x8(%rbp)
    7f44:	eb 03                	jmp    7f49 <safe_div_func_uint32_t_u_u+0x24>
    7f46:	8b 45 fc             	mov    -0x4(%rbp),%eax
    7f49:	5d                   	pop    %rbp
    7f4a:	c3                   	retq   

0000000000007f4b <safe_lshift_func_uint32_t_u_s>:
    7f4b:	f3 0f 1e fa          	endbr64 
    7f4f:	55                   	push   %rbp
    7f50:	48 89 e5             	mov    %rsp,%rbp
    7f53:	89 7d fc             	mov    %edi,-0x4(%rbp)
    7f56:	89 75 f8             	mov    %esi,-0x8(%rbp)
    7f59:	83 7d f8 00          	cmpl   $0x0,-0x8(%rbp)
    7f5d:	78 27                	js     7f86 <safe_lshift_func_uint32_t_u_s+0x3b>
    7f5f:	83 7d f8 1f          	cmpl   $0x1f,-0x8(%rbp)
    7f63:	7f 21                	jg     7f86 <safe_lshift_func_uint32_t_u_s+0x3b>
    7f65:	8b 45 f8             	mov    -0x8(%rbp),%eax
    7f68:	ba ff ff ff ff       	mov    $0xffffffff,%edx
    7f6d:	89 c1                	mov    %eax,%ecx
    7f6f:	d3 ea                	shr    %cl,%edx
    7f71:	89 d0                	mov    %edx,%eax
    7f73:	39 45 fc             	cmp    %eax,-0x4(%rbp)
    7f76:	77 0e                	ja     7f86 <safe_lshift_func_uint32_t_u_s+0x3b>
    7f78:	8b 45 f8             	mov    -0x8(%rbp),%eax
    7f7b:	8b 55 fc             	mov    -0x4(%rbp),%edx
    7f7e:	89 c1                	mov    %eax,%ecx
    7f80:	d3 e2                	shl    %cl,%edx
    7f82:	89 d0                	mov    %edx,%eax
    7f84:	eb 03                	jmp    7f89 <safe_lshift_func_uint32_t_u_s+0x3e>
    7f86:	8b 45 fc             	mov    -0x4(%rbp),%eax
    7f89:	5d                   	pop    %rbp
    7f8a:	c3                   	retq   

0000000000007f8b <safe_lshift_func_uint32_t_u_u>:
    7f8b:	f3 0f 1e fa          	endbr64 
    7f8f:	55                   	push   %rbp
    7f90:	48 89 e5             	mov    %rsp,%rbp
    7f93:	89 7d fc             	mov    %edi,-0x4(%rbp)
    7f96:	89 75 f8             	mov    %esi,-0x8(%rbp)
    7f99:	83 7d f8 1f          	cmpl   $0x1f,-0x8(%rbp)
    7f9d:	77 21                	ja     7fc0 <safe_lshift_func_uint32_t_u_u+0x35>
    7f9f:	8b 45 f8             	mov    -0x8(%rbp),%eax
    7fa2:	ba ff ff ff ff       	mov    $0xffffffff,%edx
    7fa7:	89 c1                	mov    %eax,%ecx
    7fa9:	d3 ea                	shr    %cl,%edx
    7fab:	89 d0                	mov    %edx,%eax
    7fad:	39 45 fc             	cmp    %eax,-0x4(%rbp)
    7fb0:	77 0e                	ja     7fc0 <safe_lshift_func_uint32_t_u_u+0x35>
    7fb2:	8b 45 f8             	mov    -0x8(%rbp),%eax
    7fb5:	8b 55 fc             	mov    -0x4(%rbp),%edx
    7fb8:	89 c1                	mov    %eax,%ecx
    7fba:	d3 e2                	shl    %cl,%edx
    7fbc:	89 d0                	mov    %edx,%eax
    7fbe:	eb 03                	jmp    7fc3 <safe_lshift_func_uint32_t_u_u+0x38>
    7fc0:	8b 45 fc             	mov    -0x4(%rbp),%eax
    7fc3:	5d                   	pop    %rbp
    7fc4:	c3                   	retq   

0000000000007fc5 <safe_rshift_func_uint32_t_u_s>:
    7fc5:	f3 0f 1e fa          	endbr64 
    7fc9:	55                   	push   %rbp
    7fca:	48 89 e5             	mov    %rsp,%rbp
    7fcd:	89 7d fc             	mov    %edi,-0x4(%rbp)
    7fd0:	89 75 f8             	mov    %esi,-0x8(%rbp)
    7fd3:	83 7d f8 00          	cmpl   $0x0,-0x8(%rbp)
    7fd7:	78 14                	js     7fed <safe_rshift_func_uint32_t_u_s+0x28>
    7fd9:	83 7d f8 1f          	cmpl   $0x1f,-0x8(%rbp)
    7fdd:	7f 0e                	jg     7fed <safe_rshift_func_uint32_t_u_s+0x28>
    7fdf:	8b 45 f8             	mov    -0x8(%rbp),%eax
    7fe2:	8b 55 fc             	mov    -0x4(%rbp),%edx
    7fe5:	89 c1                	mov    %eax,%ecx
    7fe7:	d3 ea                	shr    %cl,%edx
    7fe9:	89 d0                	mov    %edx,%eax
    7feb:	eb 03                	jmp    7ff0 <safe_rshift_func_uint32_t_u_s+0x2b>
    7fed:	8b 45 fc             	mov    -0x4(%rbp),%eax
    7ff0:	5d                   	pop    %rbp
    7ff1:	c3                   	retq   

0000000000007ff2 <safe_rshift_func_uint32_t_u_u>:
    7ff2:	f3 0f 1e fa          	endbr64 
    7ff6:	55                   	push   %rbp
    7ff7:	48 89 e5             	mov    %rsp,%rbp
    7ffa:	89 7d fc             	mov    %edi,-0x4(%rbp)
    7ffd:	89 75 f8             	mov    %esi,-0x8(%rbp)
    8000:	83 7d f8 1f          	cmpl   $0x1f,-0x8(%rbp)
    8004:	77 0e                	ja     8014 <safe_rshift_func_uint32_t_u_u+0x22>
    8006:	8b 45 f8             	mov    -0x8(%rbp),%eax
    8009:	8b 55 fc             	mov    -0x4(%rbp),%edx
    800c:	89 c1                	mov    %eax,%ecx
    800e:	d3 ea                	shr    %cl,%edx
    8010:	89 d0                	mov    %edx,%eax
    8012:	eb 03                	jmp    8017 <safe_rshift_func_uint32_t_u_u+0x25>
    8014:	8b 45 fc             	mov    -0x4(%rbp),%eax
    8017:	5d                   	pop    %rbp
    8018:	c3                   	retq   

0000000000008019 <safe_unary_minus_func_uint64_t_u>:
    8019:	f3 0f 1e fa          	endbr64 
    801d:	55                   	push   %rbp
    801e:	48 89 e5             	mov    %rsp,%rbp
    8021:	48 89 7d f8          	mov    %rdi,-0x8(%rbp)
    8025:	48 8b 45 f8          	mov    -0x8(%rbp),%rax
    8029:	48 f7 d8             	neg    %rax
    802c:	5d                   	pop    %rbp
    802d:	c3                   	retq   

000000000000802e <safe_add_func_uint64_t_u_u>:
    802e:	f3 0f 1e fa          	endbr64 
    8032:	55                   	push   %rbp
    8033:	48 89 e5             	mov    %rsp,%rbp
    8036:	48 89 7d f8          	mov    %rdi,-0x8(%rbp)
    803a:	48 89 75 f0          	mov    %rsi,-0x10(%rbp)
    803e:	48 8b 55 f8          	mov    -0x8(%rbp),%rdx
    8042:	48 8b 45 f0          	mov    -0x10(%rbp),%rax
    8046:	48 01 d0             	add    %rdx,%rax
    8049:	5d                   	pop    %rbp
    804a:	c3                   	retq   

000000000000804b <safe_sub_func_uint64_t_u_u>:
    804b:	f3 0f 1e fa          	endbr64 
    804f:	55                   	push   %rbp
    8050:	48 89 e5             	mov    %rsp,%rbp
    8053:	48 89 7d f8          	mov    %rdi,-0x8(%rbp)
    8057:	48 89 75 f0          	mov    %rsi,-0x10(%rbp)
    805b:	48 8b 45 f8          	mov    -0x8(%rbp),%rax
    805f:	48 2b 45 f0          	sub    -0x10(%rbp),%rax
    8063:	5d                   	pop    %rbp
    8064:	c3                   	retq   

0000000000008065 <safe_mul_func_uint64_t_u_u>:
    8065:	f3 0f 1e fa          	endbr64 
    8069:	55                   	push   %rbp
    806a:	48 89 e5             	mov    %rsp,%rbp
    806d:	48 89 7d f8          	mov    %rdi,-0x8(%rbp)
    8071:	48 89 75 f0          	mov    %rsi,-0x10(%rbp)
    8075:	48 8b 45 f8          	mov    -0x8(%rbp),%rax
    8079:	48 0f af 45 f0       	imul   -0x10(%rbp),%rax
    807e:	5d                   	pop    %rbp
    807f:	c3                   	retq   

0000000000008080 <safe_mod_func_uint64_t_u_u>:
    8080:	f3 0f 1e fa          	endbr64 
    8084:	55                   	push   %rbp
    8085:	48 89 e5             	mov    %rsp,%rbp
    8088:	48 89 7d f8          	mov    %rdi,-0x8(%rbp)
    808c:	48 89 75 f0          	mov    %rsi,-0x10(%rbp)
    8090:	48 83 7d f0 00       	cmpq   $0x0,-0x10(%rbp)
    8095:	74 12                	je     80a9 <safe_mod_func_uint64_t_u_u+0x29>
    8097:	48 8b 45 f8          	mov    -0x8(%rbp),%rax
    809b:	ba 00 00 00 00       	mov    $0x0,%edx
    80a0:	48 f7 75 f0          	divq   -0x10(%rbp)
    80a4:	48 89 d0             	mov    %rdx,%rax
    80a7:	eb 04                	jmp    80ad <safe_mod_func_uint64_t_u_u+0x2d>
    80a9:	48 8b 45 f8          	mov    -0x8(%rbp),%rax
    80ad:	5d                   	pop    %rbp
    80ae:	c3                   	retq   

00000000000080af <safe_div_func_uint64_t_u_u>:
    80af:	f3 0f 1e fa          	endbr64 
    80b3:	55                   	push   %rbp
    80b4:	48 89 e5             	mov    %rsp,%rbp
    80b7:	48 89 7d f8          	mov    %rdi,-0x8(%rbp)
    80bb:	48 89 75 f0          	mov    %rsi,-0x10(%rbp)
    80bf:	48 83 7d f0 00       	cmpq   $0x0,-0x10(%rbp)
    80c4:	74 0f                	je     80d5 <safe_div_func_uint64_t_u_u+0x26>
    80c6:	48 8b 45 f8          	mov    -0x8(%rbp),%rax
    80ca:	ba 00 00 00 00       	mov    $0x0,%edx
    80cf:	48 f7 75 f0          	divq   -0x10(%rbp)
    80d3:	eb 04                	jmp    80d9 <safe_div_func_uint64_t_u_u+0x2a>
    80d5:	48 8b 45 f8          	mov    -0x8(%rbp),%rax
    80d9:	5d                   	pop    %rbp
    80da:	c3                   	retq   

00000000000080db <safe_lshift_func_uint64_t_u_s>:
    80db:	f3 0f 1e fa          	endbr64 
    80df:	55                   	push   %rbp
    80e0:	48 89 e5             	mov    %rsp,%rbp
    80e3:	48 89 7d f8          	mov    %rdi,-0x8(%rbp)
    80e7:	89 75 f4             	mov    %esi,-0xc(%rbp)
    80ea:	83 7d f4 00          	cmpl   $0x0,-0xc(%rbp)
    80ee:	78 2f                	js     811f <safe_lshift_func_uint64_t_u_s+0x44>
    80f0:	83 7d f4 1f          	cmpl   $0x1f,-0xc(%rbp)
    80f4:	7f 29                	jg     811f <safe_lshift_func_uint64_t_u_s+0x44>
    80f6:	8b 45 f4             	mov    -0xc(%rbp),%eax
    80f9:	48 c7 c2 ff ff ff ff 	mov    $0xffffffffffffffff,%rdx
    8100:	89 c1                	mov    %eax,%ecx
    8102:	48 d3 ea             	shr    %cl,%rdx
    8105:	48 89 d0             	mov    %rdx,%rax
    8108:	48 39 45 f8          	cmp    %rax,-0x8(%rbp)
    810c:	77 11                	ja     811f <safe_lshift_func_uint64_t_u_s+0x44>
    810e:	8b 45 f4             	mov    -0xc(%rbp),%eax
    8111:	48 8b 55 f8          	mov    -0x8(%rbp),%rdx
    8115:	89 c1                	mov    %eax,%ecx
    8117:	48 d3 e2             	shl    %cl,%rdx
    811a:	48 89 d0             	mov    %rdx,%rax
    811d:	eb 04                	jmp    8123 <safe_lshift_func_uint64_t_u_s+0x48>
    811f:	48 8b 45 f8          	mov    -0x8(%rbp),%rax
    8123:	5d                   	pop    %rbp
    8124:	c3                   	retq   

0000000000008125 <safe_lshift_func_uint64_t_u_u>:
    8125:	f3 0f 1e fa          	endbr64 
    8129:	55                   	push   %rbp
    812a:	48 89 e5             	mov    %rsp,%rbp
    812d:	48 89 7d f8          	mov    %rdi,-0x8(%rbp)
    8131:	89 75 f4             	mov    %esi,-0xc(%rbp)
    8134:	83 7d f4 1f          	cmpl   $0x1f,-0xc(%rbp)
    8138:	77 29                	ja     8163 <safe_lshift_func_uint64_t_u_u+0x3e>
    813a:	8b 45 f4             	mov    -0xc(%rbp),%eax
    813d:	48 c7 c2 ff ff ff ff 	mov    $0xffffffffffffffff,%rdx
    8144:	89 c1                	mov    %eax,%ecx
    8146:	48 d3 ea             	shr    %cl,%rdx
    8149:	48 89 d0             	mov    %rdx,%rax
    814c:	48 39 45 f8          	cmp    %rax,-0x8(%rbp)
    8150:	77 11                	ja     8163 <safe_lshift_func_uint64_t_u_u+0x3e>
    8152:	8b 45 f4             	mov    -0xc(%rbp),%eax
    8155:	48 8b 55 f8          	mov    -0x8(%rbp),%rdx
    8159:	89 c1                	mov    %eax,%ecx
    815b:	48 d3 e2             	shl    %cl,%rdx
    815e:	48 89 d0             	mov    %rdx,%rax
    8161:	eb 04                	jmp    8167 <safe_lshift_func_uint64_t_u_u+0x42>
    8163:	48 8b 45 f8          	mov    -0x8(%rbp),%rax
    8167:	5d                   	pop    %rbp
    8168:	c3                   	retq   

0000000000008169 <safe_rshift_func_uint64_t_u_s>:
    8169:	f3 0f 1e fa          	endbr64 
    816d:	55                   	push   %rbp
    816e:	48 89 e5             	mov    %rsp,%rbp
    8171:	48 89 7d f8          	mov    %rdi,-0x8(%rbp)
    8175:	89 75 f4             	mov    %esi,-0xc(%rbp)
    8178:	83 7d f4 00          	cmpl   $0x0,-0xc(%rbp)
    817c:	78 17                	js     8195 <safe_rshift_func_uint64_t_u_s+0x2c>
    817e:	83 7d f4 1f          	cmpl   $0x1f,-0xc(%rbp)
    8182:	7f 11                	jg     8195 <safe_rshift_func_uint64_t_u_s+0x2c>
    8184:	8b 45 f4             	mov    -0xc(%rbp),%eax
    8187:	48 8b 55 f8          	mov    -0x8(%rbp),%rdx
    818b:	89 c1                	mov    %eax,%ecx
    818d:	48 d3 ea             	shr    %cl,%rdx
    8190:	48 89 d0             	mov    %rdx,%rax
    8193:	eb 04                	jmp    8199 <safe_rshift_func_uint64_t_u_s+0x30>
    8195:	48 8b 45 f8          	mov    -0x8(%rbp),%rax
    8199:	5d                   	pop    %rbp
    819a:	c3                   	retq   

000000000000819b <safe_rshift_func_uint64_t_u_u>:
    819b:	f3 0f 1e fa          	endbr64 
    819f:	55                   	push   %rbp
    81a0:	48 89 e5             	mov    %rsp,%rbp
    81a3:	48 89 7d f8          	mov    %rdi,-0x8(%rbp)
    81a7:	89 75 f4             	mov    %esi,-0xc(%rbp)
    81aa:	83 7d f4 1f          	cmpl   $0x1f,-0xc(%rbp)
    81ae:	77 11                	ja     81c1 <safe_rshift_func_uint64_t_u_u+0x26>
    81b0:	8b 45 f4             	mov    -0xc(%rbp),%eax
    81b3:	48 8b 55 f8          	mov    -0x8(%rbp),%rdx
    81b7:	89 c1                	mov    %eax,%ecx
    81b9:	48 d3 ea             	shr    %cl,%rdx
    81bc:	48 89 d0             	mov    %rdx,%rax
    81bf:	eb 04                	jmp    81c5 <safe_rshift_func_uint64_t_u_u+0x2a>
    81c1:	48 8b 45 f8          	mov    -0x8(%rbp),%rax
    81c5:	5d                   	pop    %rbp
    81c6:	c3                   	retq   

00000000000081c7 <safe_add_func_float_f_f>:
    81c7:	f3 0f 1e fa          	endbr64 
    81cb:	55                   	push   %rbp
    81cc:	48 89 e5             	mov    %rsp,%rbp
    81cf:	f3 0f 11 45 fc       	movss  %xmm0,-0x4(%rbp)
    81d4:	f3 0f 11 4d f8       	movss  %xmm1,-0x8(%rbp)
    81d9:	f3 0f 10 4d fc       	movss  -0x4(%rbp),%xmm1
    81de:	f3 0f 10 05 c2 64 00 	movss  0x64c2(%rip),%xmm0        # e6a8 <g_279+0x654>
    81e5:	00 
    81e6:	f3 0f 59 c8          	mulss  %xmm0,%xmm1
    81ea:	f3 0f 10 55 f8       	movss  -0x8(%rbp),%xmm2
    81ef:	f3 0f 10 05 b1 64 00 	movss  0x64b1(%rip),%xmm0        # e6a8 <g_279+0x654>
    81f6:	00 
    81f7:	f3 0f 59 c2          	mulss  %xmm2,%xmm0
    81fb:	f3 0f 58 c1          	addss  %xmm1,%xmm0
    81ff:	f3 0f 10 0d a9 64 00 	movss  0x64a9(%rip),%xmm1        # e6b0 <g_279+0x65c>
    8206:	00 
    8207:	0f 54 c1             	andps  %xmm1,%xmm0
    820a:	0f 2f 05 af 64 00 00 	comiss 0x64af(%rip),%xmm0        # e6c0 <g_279+0x66c>
    8211:	76 07                	jbe    821a <safe_add_func_float_f_f+0x53>
    8213:	f3 0f 10 45 fc       	movss  -0x4(%rbp),%xmm0
    8218:	eb 0a                	jmp    8224 <safe_add_func_float_f_f+0x5d>
    821a:	f3 0f 10 45 fc       	movss  -0x4(%rbp),%xmm0
    821f:	f3 0f 58 45 f8       	addss  -0x8(%rbp),%xmm0
    8224:	5d                   	pop    %rbp
    8225:	c3                   	retq   

0000000000008226 <safe_sub_func_float_f_f>:
    8226:	f3 0f 1e fa          	endbr64 
    822a:	55                   	push   %rbp
    822b:	48 89 e5             	mov    %rsp,%rbp
    822e:	f3 0f 11 45 fc       	movss  %xmm0,-0x4(%rbp)
    8233:	f3 0f 11 4d f8       	movss  %xmm1,-0x8(%rbp)
    8238:	f3 0f 10 4d fc       	movss  -0x4(%rbp),%xmm1
    823d:	f3 0f 10 05 63 64 00 	movss  0x6463(%rip),%xmm0        # e6a8 <g_279+0x654>
    8244:	00 
    8245:	f3 0f 59 c1          	mulss  %xmm1,%xmm0
    8249:	f3 0f 10 55 f8       	movss  -0x8(%rbp),%xmm2
    824e:	f3 0f 10 0d 52 64 00 	movss  0x6452(%rip),%xmm1        # e6a8 <g_279+0x654>
    8255:	00 
    8256:	f3 0f 59 ca          	mulss  %xmm2,%xmm1
    825a:	f3 0f 5c c1          	subss  %xmm1,%xmm0
    825e:	f3 0f 10 0d 4a 64 00 	movss  0x644a(%rip),%xmm1        # e6b0 <g_279+0x65c>
    8265:	00 
    8266:	0f 54 c1             	andps  %xmm1,%xmm0
    8269:	0f 2f 05 50 64 00 00 	comiss 0x6450(%rip),%xmm0        # e6c0 <g_279+0x66c>
    8270:	76 07                	jbe    8279 <safe_sub_func_float_f_f+0x53>
    8272:	f3 0f 10 45 fc       	movss  -0x4(%rbp),%xmm0
    8277:	eb 0a                	jmp    8283 <safe_sub_func_float_f_f+0x5d>
    8279:	f3 0f 10 45 fc       	movss  -0x4(%rbp),%xmm0
    827e:	f3 0f 5c 45 f8       	subss  -0x8(%rbp),%xmm0
    8283:	5d                   	pop    %rbp
    8284:	c3                   	retq   

0000000000008285 <safe_mul_func_float_f_f>:
    8285:	f3 0f 1e fa          	endbr64 
    8289:	55                   	push   %rbp
    828a:	48 89 e5             	mov    %rsp,%rbp
    828d:	f3 0f 11 45 fc       	movss  %xmm0,-0x4(%rbp)
    8292:	f3 0f 11 4d f8       	movss  %xmm1,-0x8(%rbp)
    8297:	f3 0f 10 4d fc       	movss  -0x4(%rbp),%xmm1
    829c:	f3 0f 10 05 20 64 00 	movss  0x6420(%rip),%xmm0        # e6c4 <g_279+0x670>
    82a3:	00 
    82a4:	f3 0f 59 c8          	mulss  %xmm0,%xmm1
    82a8:	f3 0f 10 55 f8       	movss  -0x8(%rbp),%xmm2
    82ad:	f3 0f 10 05 13 64 00 	movss  0x6413(%rip),%xmm0        # e6c8 <g_279+0x674>
    82b4:	00 
    82b5:	f3 0f 59 c2          	mulss  %xmm2,%xmm0
    82b9:	f3 0f 59 c1          	mulss  %xmm1,%xmm0
    82bd:	f3 0f 10 0d eb 63 00 	movss  0x63eb(%rip),%xmm1        # e6b0 <g_279+0x65c>
    82c4:	00 
    82c5:	0f 54 c1             	andps  %xmm1,%xmm0
    82c8:	0f 2f 05 fd 63 00 00 	comiss 0x63fd(%rip),%xmm0        # e6cc <g_279+0x678>
    82cf:	76 07                	jbe    82d8 <safe_mul_func_float_f_f+0x53>
    82d1:	f3 0f 10 45 fc       	movss  -0x4(%rbp),%xmm0
    82d6:	eb 0a                	jmp    82e2 <safe_mul_func_float_f_f+0x5d>
    82d8:	f3 0f 10 45 fc       	movss  -0x4(%rbp),%xmm0
    82dd:	f3 0f 59 45 f8       	mulss  -0x8(%rbp),%xmm0
    82e2:	5d                   	pop    %rbp
    82e3:	c3                   	retq   

00000000000082e4 <safe_div_func_float_f_f>:
    82e4:	f3 0f 1e fa          	endbr64 
    82e8:	55                   	push   %rbp
    82e9:	48 89 e5             	mov    %rsp,%rbp
    82ec:	f3 0f 11 45 fc       	movss  %xmm0,-0x4(%rbp)
    82f1:	f3 0f 11 4d f8       	movss  %xmm1,-0x8(%rbp)
    82f6:	f3 0f 10 45 f8       	movss  -0x8(%rbp),%xmm0
    82fb:	f3 0f 10 0d ad 63 00 	movss  0x63ad(%rip),%xmm1        # e6b0 <g_279+0x65c>
    8302:	00 
    8303:	0f 54 c8             	andps  %xmm0,%xmm1
    8306:	f3 0f 10 05 c2 63 00 	movss  0x63c2(%rip),%xmm0        # e6d0 <g_279+0x67c>
    830d:	00 
    830e:	0f 2f c1             	comiss %xmm1,%xmm0
    8311:	0f 97 c0             	seta   %al
    8314:	83 f0 01             	xor    $0x1,%eax
    8317:	84 c0                	test   %al,%al
    8319:	75 56                	jne    8371 <safe_div_func_float_f_f+0x8d>
    831b:	66 0f ef c0          	pxor   %xmm0,%xmm0
    831f:	0f 2e 45 f8          	ucomiss -0x8(%rbp),%xmm0
    8323:	7a 0a                	jp     832f <safe_div_func_float_f_f+0x4b>
    8325:	66 0f ef c0          	pxor   %xmm0,%xmm0
    8329:	0f 2e 45 f8          	ucomiss -0x8(%rbp),%xmm0
    832d:	74 4e                	je     837d <safe_div_func_float_f_f+0x99>
    832f:	f3 0f 10 4d fc       	movss  -0x4(%rbp),%xmm1
    8334:	f3 0f 10 05 98 63 00 	movss  0x6398(%rip),%xmm0        # e6d4 <g_279+0x680>
    833b:	00 
    833c:	f3 0f 59 c1          	mulss  %xmm1,%xmm0
    8340:	f3 0f 10 55 f8       	movss  -0x8(%rbp),%xmm2
    8345:	f3 0f 10 0d 8b 63 00 	movss  0x638b(%rip),%xmm1        # e6d8 <g_279+0x684>
    834c:	00 
    834d:	f3 0f 59 ca          	mulss  %xmm2,%xmm1
    8351:	f3 0f 5e c1          	divss  %xmm1,%xmm0
    8355:	f3 0f 10 0d 53 63 00 	movss  0x6353(%rip),%xmm1        # e6b0 <g_279+0x65c>
    835c:	00 
    835d:	0f 54 c1             	andps  %xmm1,%xmm0
    8360:	0f 2f 05 75 63 00 00 	comiss 0x6375(%rip),%xmm0        # e6dc <g_279+0x688>
    8367:	0f 97 c0             	seta   %al
    836a:	83 f0 01             	xor    $0x1,%eax
    836d:	84 c0                	test   %al,%al
    836f:	74 0c                	je     837d <safe_div_func_float_f_f+0x99>
    8371:	f3 0f 10 45 fc       	movss  -0x4(%rbp),%xmm0
    8376:	f3 0f 5e 45 f8       	divss  -0x8(%rbp),%xmm0
    837b:	eb 05                	jmp    8382 <safe_div_func_float_f_f+0x9e>
    837d:	f3 0f 10 45 fc       	movss  -0x4(%rbp),%xmm0
    8382:	5d                   	pop    %rbp
    8383:	c3                   	retq   

0000000000008384 <safe_add_func_double_f_f>:
    8384:	f3 0f 1e fa          	endbr64 
    8388:	55                   	push   %rbp
    8389:	48 89 e5             	mov    %rsp,%rbp
    838c:	f2 0f 11 45 f8       	movsd  %xmm0,-0x8(%rbp)
    8391:	f2 0f 11 4d f0       	movsd  %xmm1,-0x10(%rbp)
    8396:	f2 0f 10 4d f8       	movsd  -0x8(%rbp),%xmm1
    839b:	f2 0f 10 05 3d 63 00 	movsd  0x633d(%rip),%xmm0        # e6e0 <g_279+0x68c>
    83a2:	00 
    83a3:	f2 0f 59 c8          	mulsd  %xmm0,%xmm1
    83a7:	f2 0f 10 55 f0       	movsd  -0x10(%rbp),%xmm2
    83ac:	f2 0f 10 05 2c 63 00 	movsd  0x632c(%rip),%xmm0        # e6e0 <g_279+0x68c>
    83b3:	00 
    83b4:	f2 0f 59 c2          	mulsd  %xmm2,%xmm0
    83b8:	f2 0f 58 c1          	addsd  %xmm1,%xmm0
    83bc:	f3 0f 7e 0d 2c 63 00 	movq   0x632c(%rip),%xmm1        # e6f0 <g_279+0x69c>
    83c3:	00 
    83c4:	66 0f 54 c1          	andpd  %xmm1,%xmm0
    83c8:	66 0f 2f 05 30 63 00 	comisd 0x6330(%rip),%xmm0        # e700 <g_279+0x6ac>
    83cf:	00 
    83d0:	76 07                	jbe    83d9 <safe_add_func_double_f_f+0x55>
    83d2:	f2 0f 10 45 f8       	movsd  -0x8(%rbp),%xmm0
    83d7:	eb 0a                	jmp    83e3 <safe_add_func_double_f_f+0x5f>
    83d9:	f2 0f 10 45 f8       	movsd  -0x8(%rbp),%xmm0
    83de:	f2 0f 58 45 f0       	addsd  -0x10(%rbp),%xmm0
    83e3:	5d                   	pop    %rbp
    83e4:	c3                   	retq   

00000000000083e5 <safe_sub_func_double_f_f>:
    83e5:	f3 0f 1e fa          	endbr64 
    83e9:	55                   	push   %rbp
    83ea:	48 89 e5             	mov    %rsp,%rbp
    83ed:	f2 0f 11 45 f8       	movsd  %xmm0,-0x8(%rbp)
    83f2:	f2 0f 11 4d f0       	movsd  %xmm1,-0x10(%rbp)
    83f7:	f2 0f 10 4d f8       	movsd  -0x8(%rbp),%xmm1
    83fc:	f2 0f 10 05 dc 62 00 	movsd  0x62dc(%rip),%xmm0        # e6e0 <g_279+0x68c>
    8403:	00 
    8404:	f2 0f 59 c1          	mulsd  %xmm1,%xmm0
    8408:	f2 0f 10 55 f0       	movsd  -0x10(%rbp),%xmm2
    840d:	f2 0f 10 0d cb 62 00 	movsd  0x62cb(%rip),%xmm1        # e6e0 <g_279+0x68c>
    8414:	00 
    8415:	f2 0f 59 ca          	mulsd  %xmm2,%xmm1
    8419:	f2 0f 5c c1          	subsd  %xmm1,%xmm0
    841d:	f3 0f 7e 0d cb 62 00 	movq   0x62cb(%rip),%xmm1        # e6f0 <g_279+0x69c>
    8424:	00 
    8425:	66 0f 54 c1          	andpd  %xmm1,%xmm0
    8429:	66 0f 2f 05 cf 62 00 	comisd 0x62cf(%rip),%xmm0        # e700 <g_279+0x6ac>
    8430:	00 
    8431:	76 07                	jbe    843a <safe_sub_func_double_f_f+0x55>
    8433:	f2 0f 10 45 f8       	movsd  -0x8(%rbp),%xmm0
    8438:	eb 0a                	jmp    8444 <safe_sub_func_double_f_f+0x5f>
    843a:	f2 0f 10 45 f8       	movsd  -0x8(%rbp),%xmm0
    843f:	f2 0f 5c 45 f0       	subsd  -0x10(%rbp),%xmm0
    8444:	5d                   	pop    %rbp
    8445:	c3                   	retq   

0000000000008446 <safe_mul_func_double_f_f>:
    8446:	f3 0f 1e fa          	endbr64 
    844a:	55                   	push   %rbp
    844b:	48 89 e5             	mov    %rsp,%rbp
    844e:	f2 0f 11 45 f8       	movsd  %xmm0,-0x8(%rbp)
    8453:	f2 0f 11 4d f0       	movsd  %xmm1,-0x10(%rbp)
    8458:	f2 0f 10 4d f8       	movsd  -0x8(%rbp),%xmm1
    845d:	f2 0f 10 05 a3 62 00 	movsd  0x62a3(%rip),%xmm0        # e708 <g_279+0x6b4>
    8464:	00 
    8465:	f2 0f 59 c8          	mulsd  %xmm0,%xmm1
    8469:	f2 0f 10 55 f0       	movsd  -0x10(%rbp),%xmm2
    846e:	f2 0f 10 05 9a 62 00 	movsd  0x629a(%rip),%xmm0        # e710 <g_279+0x6bc>
    8475:	00 
    8476:	f2 0f 59 c2          	mulsd  %xmm2,%xmm0
    847a:	f2 0f 59 c1          	mulsd  %xmm1,%xmm0
    847e:	f3 0f 7e 0d 6a 62 00 	movq   0x626a(%rip),%xmm1        # e6f0 <g_279+0x69c>
    8485:	00 
    8486:	66 0f 54 c1          	andpd  %xmm1,%xmm0
    848a:	66 0f 2f 05 86 62 00 	comisd 0x6286(%rip),%xmm0        # e718 <g_279+0x6c4>
    8491:	00 
    8492:	76 07                	jbe    849b <safe_mul_func_double_f_f+0x55>
    8494:	f2 0f 10 45 f8       	movsd  -0x8(%rbp),%xmm0
    8499:	eb 0a                	jmp    84a5 <safe_mul_func_double_f_f+0x5f>
    849b:	f2 0f 10 45 f8       	movsd  -0x8(%rbp),%xmm0
    84a0:	f2 0f 59 45 f0       	mulsd  -0x10(%rbp),%xmm0
    84a5:	5d                   	pop    %rbp
    84a6:	c3                   	retq   

00000000000084a7 <safe_div_func_double_f_f>:
    84a7:	f3 0f 1e fa          	endbr64 
    84ab:	55                   	push   %rbp
    84ac:	48 89 e5             	mov    %rsp,%rbp
    84af:	f2 0f 11 45 f8       	movsd  %xmm0,-0x8(%rbp)
    84b4:	f2 0f 11 4d f0       	movsd  %xmm1,-0x10(%rbp)
    84b9:	f2 0f 10 45 f0       	movsd  -0x10(%rbp),%xmm0
    84be:	f3 0f 7e 0d 2a 62 00 	movq   0x622a(%rip),%xmm1        # e6f0 <g_279+0x69c>
    84c5:	00 
    84c6:	66 0f 54 c8          	andpd  %xmm0,%xmm1
    84ca:	f2 0f 10 05 4e 62 00 	movsd  0x624e(%rip),%xmm0        # e720 <g_279+0x6cc>
    84d1:	00 
    84d2:	66 0f 2f c1          	comisd %xmm1,%xmm0
    84d6:	0f 97 c0             	seta   %al
    84d9:	83 f0 01             	xor    $0x1,%eax
    84dc:	84 c0                	test   %al,%al
    84de:	75 5a                	jne    853a <safe_div_func_double_f_f+0x93>
    84e0:	66 0f ef c0          	pxor   %xmm0,%xmm0
    84e4:	66 0f 2e 45 f0       	ucomisd -0x10(%rbp),%xmm0
    84e9:	7a 0b                	jp     84f6 <safe_div_func_double_f_f+0x4f>
    84eb:	66 0f ef c0          	pxor   %xmm0,%xmm0
    84ef:	66 0f 2e 45 f0       	ucomisd -0x10(%rbp),%xmm0
    84f4:	74 50                	je     8546 <safe_div_func_double_f_f+0x9f>
    84f6:	f2 0f 10 4d f8       	movsd  -0x8(%rbp),%xmm1
    84fb:	f2 0f 10 05 25 62 00 	movsd  0x6225(%rip),%xmm0        # e728 <g_279+0x6d4>
    8502:	00 
    8503:	f2 0f 59 c1          	mulsd  %xmm1,%xmm0
    8507:	f2 0f 10 55 f0       	movsd  -0x10(%rbp),%xmm2
    850c:	f2 0f 10 0d 1c 62 00 	movsd  0x621c(%rip),%xmm1        # e730 <g_279+0x6dc>
    8513:	00 
    8514:	f2 0f 59 ca          	mulsd  %xmm2,%xmm1
    8518:	f2 0f 5e c1          	divsd  %xmm1,%xmm0
    851c:	f3 0f 7e 0d cc 61 00 	movq   0x61cc(%rip),%xmm1        # e6f0 <g_279+0x69c>
    8523:	00 
    8524:	66 0f 54 c1          	andpd  %xmm1,%xmm0
    8528:	66 0f 2f 05 08 62 00 	comisd 0x6208(%rip),%xmm0        # e738 <g_279+0x6e4>
    852f:	00 
    8530:	0f 97 c0             	seta   %al
    8533:	83 f0 01             	xor    $0x1,%eax
    8536:	84 c0                	test   %al,%al
    8538:	74 0c                	je     8546 <safe_div_func_double_f_f+0x9f>
    853a:	f2 0f 10 45 f8       	movsd  -0x8(%rbp),%xmm0
    853f:	f2 0f 5e 45 f0       	divsd  -0x10(%rbp),%xmm0
    8544:	eb 05                	jmp    854b <safe_div_func_double_f_f+0xa4>
    8546:	f2 0f 10 45 f8       	movsd  -0x8(%rbp),%xmm0
    854b:	5d                   	pop    %rbp
    854c:	c3                   	retq   

000000000000854d <safe_convert_func_float_to_int32_t>:
    854d:	f3 0f 1e fa          	endbr64 
    8551:	55                   	push   %rbp
    8552:	48 89 e5             	mov    %rsp,%rbp
    8555:	f3 0f 11 45 fc       	movss  %xmm0,-0x4(%rbp)
    855a:	f3 0f 10 05 de 61 00 	movss  0x61de(%rip),%xmm0        # e740 <g_279+0x6ec>
    8561:	00 
    8562:	0f 2f 45 fc          	comiss -0x4(%rbp),%xmm0
    8566:	0f 93 c0             	setae  %al
    8569:	83 f0 01             	xor    $0x1,%eax
    856c:	84 c0                	test   %al,%al
    856e:	74 21                	je     8591 <safe_convert_func_float_to_int32_t+0x44>
    8570:	f3 0f 10 45 fc       	movss  -0x4(%rbp),%xmm0
    8575:	0f 2f 05 c8 61 00 00 	comiss 0x61c8(%rip),%xmm0        # e744 <g_279+0x6f0>
    857c:	0f 93 c0             	setae  %al
    857f:	83 f0 01             	xor    $0x1,%eax
    8582:	84 c0                	test   %al,%al
    8584:	74 0b                	je     8591 <safe_convert_func_float_to_int32_t+0x44>
    8586:	f3 0f 10 45 fc       	movss  -0x4(%rbp),%xmm0
    858b:	f3 0f 2c c0          	cvttss2si %xmm0,%eax
    858f:	eb 05                	jmp    8596 <safe_convert_func_float_to_int32_t+0x49>
    8591:	b8 ff ff ff 7f       	mov    $0x7fffffff,%eax
    8596:	5d                   	pop    %rbp
    8597:	c3                   	retq   

0000000000008598 <crc32_gentab>:
    8598:	f3 0f 1e fa          	endbr64 
    859c:	55                   	push   %rbp
    859d:	48 89 e5             	mov    %rsp,%rbp
    85a0:	c7 45 fc 20 83 b8 ed 	movl   $0xedb88320,-0x4(%rbp)
    85a7:	c7 45 f4 00 00 00 00 	movl   $0x0,-0xc(%rbp)
    85ae:	eb 51                	jmp    8601 <crc32_gentab+0x69>
    85b0:	8b 45 f4             	mov    -0xc(%rbp),%eax
    85b3:	89 45 f0             	mov    %eax,-0x10(%rbp)
    85b6:	c7 45 f8 08 00 00 00 	movl   $0x8,-0x8(%rbp)
    85bd:	eb 1e                	jmp    85dd <crc32_gentab+0x45>
    85bf:	8b 45 f0             	mov    -0x10(%rbp),%eax
    85c2:	83 e0 01             	and    $0x1,%eax
    85c5:	85 c0                	test   %eax,%eax
    85c7:	74 0d                	je     85d6 <crc32_gentab+0x3e>
    85c9:	8b 45 f0             	mov    -0x10(%rbp),%eax
    85cc:	d1 e8                	shr    %eax
    85ce:	33 45 fc             	xor    -0x4(%rbp),%eax
    85d1:	89 45 f0             	mov    %eax,-0x10(%rbp)
    85d4:	eb 03                	jmp    85d9 <crc32_gentab+0x41>
    85d6:	d1 6d f0             	shrl   -0x10(%rbp)
    85d9:	83 6d f8 01          	subl   $0x1,-0x8(%rbp)
    85dd:	83 7d f8 00          	cmpl   $0x0,-0x8(%rbp)
    85e1:	7f dc                	jg     85bf <crc32_gentab+0x27>
    85e3:	8b 45 f4             	mov    -0xc(%rbp),%eax
    85e6:	48 98                	cltq   
    85e8:	48 8d 0c 85 00 00 00 	lea    0x0(,%rax,4),%rcx
    85ef:	00 
    85f0:	48 8d 15 69 b4 00 00 	lea    0xb469(%rip),%rdx        # 13a60 <crc32_tab>
    85f7:	8b 45 f0             	mov    -0x10(%rbp),%eax
    85fa:	89 04 11             	mov    %eax,(%rcx,%rdx,1)
    85fd:	83 45 f4 01          	addl   $0x1,-0xc(%rbp)
    8601:	81 7d f4 ff 00 00 00 	cmpl   $0xff,-0xc(%rbp)
    8608:	7e a6                	jle    85b0 <crc32_gentab+0x18>
    860a:	90                   	nop
    860b:	90                   	nop
    860c:	5d                   	pop    %rbp
    860d:	c3                   	retq   

000000000000860e <crc32_byte>:
    860e:	f3 0f 1e fa          	endbr64 
    8612:	55                   	push   %rbp
    8613:	48 89 e5             	mov    %rsp,%rbp
    8616:	89 f8                	mov    %edi,%eax
    8618:	88 45 fc             	mov    %al,-0x4(%rbp)
    861b:	8b 05 ff 89 00 00    	mov    0x89ff(%rip),%eax        # 11020 <crc32_context>
    8621:	c1 e8 08             	shr    $0x8,%eax
    8624:	89 c1                	mov    %eax,%ecx
    8626:	0f b6 55 fc          	movzbl -0x4(%rbp),%edx
    862a:	8b 05 f0 89 00 00    	mov    0x89f0(%rip),%eax        # 11020 <crc32_context>
    8630:	31 d0                	xor    %edx,%eax
    8632:	0f b6 c0             	movzbl %al,%eax
    8635:	89 c0                	mov    %eax,%eax
    8637:	48 8d 14 85 00 00 00 	lea    0x0(,%rax,4),%rdx
    863e:	00 
    863f:	48 8d 05 1a b4 00 00 	lea    0xb41a(%rip),%rax        # 13a60 <crc32_tab>
    8646:	8b 04 02             	mov    (%rdx,%rax,1),%eax
    8649:	31 c8                	xor    %ecx,%eax
    864b:	89 05 cf 89 00 00    	mov    %eax,0x89cf(%rip)        # 11020 <crc32_context>
    8651:	90                   	nop
    8652:	5d                   	pop    %rbp
    8653:	c3                   	retq   

0000000000008654 <crc32_8bytes>:
    8654:	f3 0f 1e fa          	endbr64 
    8658:	55                   	push   %rbp
    8659:	48 89 e5             	mov    %rsp,%rbp
    865c:	48 83 ec 08          	sub    $0x8,%rsp
    8660:	48 89 7d f8          	mov    %rdi,-0x8(%rbp)
    8664:	48 8b 45 f8          	mov    -0x8(%rbp),%rax
    8668:	0f b6 c0             	movzbl %al,%eax
    866b:	89 c7                	mov    %eax,%edi
    866d:	e8 9c ff ff ff       	callq  860e <crc32_byte>
    8672:	48 8b 45 f8          	mov    -0x8(%rbp),%rax
    8676:	48 c1 e8 08          	shr    $0x8,%rax
    867a:	0f b6 c0             	movzbl %al,%eax
    867d:	89 c7                	mov    %eax,%edi
    867f:	e8 8a ff ff ff       	callq  860e <crc32_byte>
    8684:	48 8b 45 f8          	mov    -0x8(%rbp),%rax
    8688:	48 c1 e8 10          	shr    $0x10,%rax
    868c:	0f b6 c0             	movzbl %al,%eax
    868f:	89 c7                	mov    %eax,%edi
    8691:	e8 78 ff ff ff       	callq  860e <crc32_byte>
    8696:	48 8b 45 f8          	mov    -0x8(%rbp),%rax
    869a:	48 c1 e8 18          	shr    $0x18,%rax
    869e:	0f b6 c0             	movzbl %al,%eax
    86a1:	89 c7                	mov    %eax,%edi
    86a3:	e8 66 ff ff ff       	callq  860e <crc32_byte>
    86a8:	48 8b 45 f8          	mov    -0x8(%rbp),%rax
    86ac:	48 c1 e8 20          	shr    $0x20,%rax
    86b0:	0f b6 c0             	movzbl %al,%eax
    86b3:	89 c7                	mov    %eax,%edi
    86b5:	e8 54 ff ff ff       	callq  860e <crc32_byte>
    86ba:	48 8b 45 f8          	mov    -0x8(%rbp),%rax
    86be:	48 c1 e8 28          	shr    $0x28,%rax
    86c2:	0f b6 c0             	movzbl %al,%eax
    86c5:	89 c7                	mov    %eax,%edi
    86c7:	e8 42 ff ff ff       	callq  860e <crc32_byte>
    86cc:	48 8b 45 f8          	mov    -0x8(%rbp),%rax
    86d0:	48 c1 e8 30          	shr    $0x30,%rax
    86d4:	0f b6 c0             	movzbl %al,%eax
    86d7:	89 c7                	mov    %eax,%edi
    86d9:	e8 30 ff ff ff       	callq  860e <crc32_byte>
    86de:	48 8b 45 f8          	mov    -0x8(%rbp),%rax
    86e2:	48 c1 e8 38          	shr    $0x38,%rax
    86e6:	0f b6 c0             	movzbl %al,%eax
    86e9:	89 c7                	mov    %eax,%edi
    86eb:	e8 1e ff ff ff       	callq  860e <crc32_byte>
    86f0:	90                   	nop
    86f1:	c9                   	leaveq 
    86f2:	c3                   	retq   

00000000000086f3 <transparent_crc>:
    86f3:	f3 0f 1e fa          	endbr64 
    86f7:	55                   	push   %rbp
    86f8:	48 89 e5             	mov    %rsp,%rbp
    86fb:	48 83 ec 20          	sub    $0x20,%rsp
    86ff:	48 89 7d f8          	mov    %rdi,-0x8(%rbp)
    8703:	48 89 75 f0          	mov    %rsi,-0x10(%rbp)
    8707:	89 55 ec             	mov    %edx,-0x14(%rbp)
    870a:	48 8b 45 f8          	mov    -0x8(%rbp),%rax
    870e:	48 89 c7             	mov    %rax,%rdi
    8711:	e8 3e ff ff ff       	callq  8654 <crc32_8bytes>
    8716:	83 7d ec 00          	cmpl   $0x0,-0x14(%rbp)
    871a:	74 22                	je     873e <transparent_crc+0x4b>
    871c:	8b 05 fe 88 00 00    	mov    0x88fe(%rip),%eax        # 11020 <crc32_context>
    8722:	f7 d0                	not    %eax
    8724:	89 c2                	mov    %eax,%edx
    8726:	48 8b 45 f0          	mov    -0x10(%rbp),%rax
    872a:	48 89 c6             	mov    %rax,%rsi
    872d:	48 8d 3d fc 58 00 00 	lea    0x58fc(%rip),%rdi        # e030 <_IO_stdin_used+0x30>
    8734:	b8 00 00 00 00       	mov    $0x0,%eax
    8739:	e8 42 e9 ff ff       	callq  7080 <printf@plt>
    873e:	90                   	nop
    873f:	c9                   	leaveq 
    8740:	c3                   	retq   

0000000000008741 <transparent_crc_bytes>:
    8741:	f3 0f 1e fa          	endbr64 
    8745:	55                   	push   %rbp
    8746:	48 89 e5             	mov    %rsp,%rbp
    8749:	48 83 ec 30          	sub    $0x30,%rsp
    874d:	48 89 7d e8          	mov    %rdi,-0x18(%rbp)
    8751:	89 75 e4             	mov    %esi,-0x1c(%rbp)
    8754:	48 89 55 d8          	mov    %rdx,-0x28(%rbp)
    8758:	89 4d e0             	mov    %ecx,-0x20(%rbp)
    875b:	c7 45 fc 00 00 00 00 	movl   $0x0,-0x4(%rbp)
    8762:	eb 1e                	jmp    8782 <transparent_crc_bytes+0x41>
    8764:	8b 45 fc             	mov    -0x4(%rbp),%eax
    8767:	48 63 d0             	movslq %eax,%rdx
    876a:	48 8b 45 e8          	mov    -0x18(%rbp),%rax
    876e:	48 01 d0             	add    %rdx,%rax
    8771:	0f b6 00             	movzbl (%rax),%eax
    8774:	0f b6 c0             	movzbl %al,%eax
    8777:	89 c7                	mov    %eax,%edi
    8779:	e8 90 fe ff ff       	callq  860e <crc32_byte>
    877e:	83 45 fc 01          	addl   $0x1,-0x4(%rbp)
    8782:	8b 45 fc             	mov    -0x4(%rbp),%eax
    8785:	3b 45 e4             	cmp    -0x1c(%rbp),%eax
    8788:	7c da                	jl     8764 <transparent_crc_bytes+0x23>
    878a:	83 7d e0 00          	cmpl   $0x0,-0x20(%rbp)
    878e:	74 22                	je     87b2 <transparent_crc_bytes+0x71>
    8790:	8b 05 8a 88 00 00    	mov    0x888a(%rip),%eax        # 11020 <crc32_context>
    8796:	f7 d0                	not    %eax
    8798:	89 c2                	mov    %eax,%edx
    879a:	48 8b 45 d8          	mov    -0x28(%rbp),%rax
    879e:	48 89 c6             	mov    %rax,%rsi
    87a1:	48 8d 3d 88 58 00 00 	lea    0x5888(%rip),%rdi        # e030 <_IO_stdin_used+0x30>
    87a8:	b8 00 00 00 00       	mov    $0x0,%eax
    87ad:	e8 ce e8 ff ff       	callq  7080 <printf@plt>
    87b2:	90                   	nop
    87b3:	c9                   	leaveq 
    87b4:	c3                   	retq   

00000000000087b5 <func_1>:
    87b5:	f3 0f 1e fa          	endbr64 
    87b9:	55                   	push   %rbp
    87ba:	48 89 e5             	mov    %rsp,%rbp
    87bd:	41 57                	push   %r15
    87bf:	41 56                	push   %r14
    87c1:	41 55                	push   %r13
    87c3:	41 54                	push   %r12
    87c5:	53                   	push   %rbx
    87c6:	48 81 ec 68 02 00 00 	sub    $0x268,%rsp
    87cd:	64 48 8b 04 25 28 00 	mov    %fs:0x28,%rax
    87d4:	00 00 
    87d6:	48 89 45 c8          	mov    %rax,-0x38(%rbp)
    87da:	31 c0                	xor    %eax,%eax
    87dc:	48 8d 05 41 88 00 00 	lea    0x8841(%rip),%rax        # 11024 <g_14>
    87e3:	48 89 85 a0 fd ff ff 	mov    %rax,-0x260(%rbp)
    87ea:	48 8d 05 33 88 00 00 	lea    0x8833(%rip),%rax        # 11024 <g_14>
    87f1:	48 89 85 a8 fd ff ff 	mov    %rax,-0x258(%rbp)
    87f8:	48 8d 05 25 88 00 00 	lea    0x8825(%rip),%rax        # 11024 <g_14>
    87ff:	48 89 85 b0 fd ff ff 	mov    %rax,-0x250(%rbp)
    8806:	48 8d 05 17 88 00 00 	lea    0x8817(%rip),%rax        # 11024 <g_14>
    880d:	48 89 85 b8 fd ff ff 	mov    %rax,-0x248(%rbp)
    8814:	48 8d 05 09 88 00 00 	lea    0x8809(%rip),%rax        # 11024 <g_14>
    881b:	48 89 85 c0 fd ff ff 	mov    %rax,-0x240(%rbp)
    8822:	48 8d 05 fb 87 00 00 	lea    0x87fb(%rip),%rax        # 11024 <g_14>
    8829:	48 89 85 c8 fd ff ff 	mov    %rax,-0x238(%rbp)
    8830:	48 8d 05 ed 87 00 00 	lea    0x87ed(%rip),%rax        # 11024 <g_14>
    8837:	48 89 85 d0 fd ff ff 	mov    %rax,-0x230(%rbp)
    883e:	48 b8 1d b0 13 1f 4f 	movabs $0x96141e4f1f13b01d,%rax
    8845:	1e 14 96 
    8848:	48 89 85 80 fd ff ff 	mov    %rax,-0x280(%rbp)
    884f:	48 8d 05 12 b6 00 00 	lea    0xb612(%rip),%rax        # 13e68 <g_38>
    8856:	48 89 85 88 fd ff ff 	mov    %rax,-0x278(%rbp)
    885d:	48 c7 85 90 fd ff ff 	movq   $0x1,-0x270(%rbp)
    8864:	01 00 00 00 
    8868:	c7 85 e0 fd ff ff ff 	movl   $0xffffffff,-0x220(%rbp)
    886f:	ff ff ff 
    8872:	c7 85 e4 fd ff ff 07 	movl   $0x7,-0x21c(%rbp)
    8879:	00 00 00 
    887c:	c7 85 e8 fd ff ff 1c 	movl   $0x2c86241c,-0x218(%rbp)
    8883:	24 86 2c 
    8886:	c7 85 ec fd ff ff f8 	movl   $0xfffffff8,-0x214(%rbp)
    888d:	ff ff ff 
    8890:	c7 85 f0 fd ff ff 01 	movl   $0x1,-0x210(%rbp)
    8897:	00 00 00 
    889a:	c7 85 f4 fd ff ff c8 	movl   $0x13c531c8,-0x20c(%rbp)
    88a1:	31 c5 13 
    88a4:	c7 85 f8 fd ff ff 60 	movl   $0x5d0fbc60,-0x208(%rbp)
    88ab:	bc 0f 5d 
    88ae:	c7 85 fc fd ff ff 07 	movl   $0x7,-0x204(%rbp)
    88b5:	00 00 00 
    88b8:	c7 85 00 fe ff ff 07 	movl   $0x7,-0x200(%rbp)
    88bf:	00 00 00 
    88c2:	c7 85 04 fe ff ff 60 	movl   $0x5d0fbc60,-0x1fc(%rbp)
    88c9:	bc 0f 5d 
    88cc:	c7 85 08 fe ff ff f7 	movl   $0x14d629f7,-0x1f8(%rbp)
    88d3:	29 d6 14 
    88d6:	c7 85 0c fe ff ff f8 	movl   $0xfffffff8,-0x1f4(%rbp)
    88dd:	ff ff ff 
    88e0:	c7 85 10 fe ff ff ff 	movl   $0xffffffff,-0x1f0(%rbp)
    88e7:	ff ff ff 
    88ea:	c7 85 14 fe ff ff ff 	movl   $0xffffffff,-0x1ec(%rbp)
    88f1:	ff ff ff 
    88f4:	c7 85 18 fe ff ff f8 	movl   $0xfffffff8,-0x1e8(%rbp)
    88fb:	ff ff ff 
    88fe:	c7 85 1c fe ff ff f7 	movl   $0x14d629f7,-0x1e4(%rbp)
    8905:	29 d6 14 
    8908:	c7 85 20 fe ff ff 1c 	movl   $0x2c86241c,-0x1e0(%rbp)
    890f:	24 86 2c 
    8912:	c7 85 24 fe ff ff ff 	movl   $0xffffffff,-0x1dc(%rbp)
    8919:	ff ff ff 
    891c:	c7 85 28 fe ff ff c8 	movl   $0x13c531c8,-0x1d8(%rbp)
    8923:	31 c5 13 
    8926:	c7 85 2c fe ff ff ff 	movl   $0xffffffff,-0x1d4(%rbp)
    892d:	ff ff ff 
    8930:	c7 85 30 fe ff ff 05 	movl   $0x5,-0x1d0(%rbp)
    8937:	00 00 00 
    893a:	c7 85 34 fe ff ff ff 	movl   $0xffffffff,-0x1cc(%rbp)
    8941:	ff ff ff 
    8944:	c7 85 38 fe ff ff fa 	movl   $0xfffffffa,-0x1c8(%rbp)
    894b:	ff ff ff 
    894e:	c7 85 3c fe ff ff ff 	movl   $0xffffffff,-0x1c4(%rbp)
    8955:	ff ff ff 
    8958:	c7 85 40 fe ff ff 60 	movl   $0x5d0fbc60,-0x1c0(%rbp)
    895f:	bc 0f 5d 
    8962:	c7 85 44 fe ff ff 00 	movl   $0x0,-0x1bc(%rbp)
    8969:	00 00 00 
    896c:	c7 85 48 fe ff ff ff 	movl   $0xffffffff,-0x1b8(%rbp)
    8973:	ff ff ff 
    8976:	c7 85 4c fe ff ff 05 	movl   $0x5,-0x1b4(%rbp)
    897d:	00 00 00 
    8980:	c7 85 50 fe ff ff 5e 	movl   $0x1a6c845e,-0x1b0(%rbp)
    8987:	84 6c 1a 
    898a:	c7 85 54 fe ff ff 05 	movl   $0x5,-0x1ac(%rbp)
    8991:	00 00 00 
    8994:	c7 85 58 fe ff ff 05 	movl   $0x5,-0x1a8(%rbp)
    899b:	00 00 00 
    899e:	c7 85 5c fe ff ff f7 	movl   $0x14d629f7,-0x1a4(%rbp)
    89a5:	29 d6 14 
    89a8:	c7 85 60 fe ff ff 07 	movl   $0x7,-0x1a0(%rbp)
    89af:	00 00 00 
    89b2:	c7 85 64 fe ff ff f8 	movl   $0xfffffff8,-0x19c(%rbp)
    89b9:	ff ff ff 
    89bc:	c7 85 68 fe ff ff 07 	movl   $0x7,-0x198(%rbp)
    89c3:	00 00 00 
    89c6:	c7 85 6c fe ff ff f7 	movl   $0x14d629f7,-0x194(%rbp)
    89cd:	29 d6 14 
    89d0:	c7 85 70 fe ff ff 05 	movl   $0x5,-0x190(%rbp)
    89d7:	00 00 00 
    89da:	c7 85 74 fe ff ff fb 	movl   $0xfffffffb,-0x18c(%rbp)
    89e1:	ff ff ff 
    89e4:	c7 85 78 fe ff ff f7 	movl   $0x14d629f7,-0x188(%rbp)
    89eb:	29 d6 14 
    89ee:	c7 85 7c fe ff ff ff 	movl   $0xffffffff,-0x184(%rbp)
    89f5:	ff ff ff 
    89f8:	c7 85 80 fe ff ff f7 	movl   $0x14d629f7,-0x180(%rbp)
    89ff:	29 d6 14 
    8a02:	c7 85 84 fe ff ff 05 	movl   $0x5,-0x17c(%rbp)
    8a09:	00 00 00 
    8a0c:	c7 85 88 fe ff ff fb 	movl   $0xfffffffb,-0x178(%rbp)
    8a13:	ff ff ff 
    8a16:	c7 85 8c fe ff ff f7 	movl   $0x14d629f7,-0x174(%rbp)
    8a1d:	29 d6 14 
    8a20:	c7 85 90 fe ff ff ff 	movl   $0xffffffff,-0x170(%rbp)
    8a27:	ff ff ff 
    8a2a:	c7 85 94 fe ff ff c8 	movl   $0x13c531c8,-0x16c(%rbp)
    8a31:	31 c5 13 
    8a34:	c7 85 98 fe ff ff 07 	movl   $0x7,-0x168(%rbp)
    8a3b:	00 00 00 
    8a3e:	c7 85 9c fe ff ff ff 	movl   $0xffffffff,-0x164(%rbp)
    8a45:	ff ff ff 
    8a48:	c7 85 a0 fe ff ff fb 	movl   $0xfffffffb,-0x160(%rbp)
    8a4f:	ff ff ff 
    8a52:	c7 85 a4 fe ff ff fb 	movl   $0xfffffffb,-0x15c(%rbp)
    8a59:	ff ff ff 
    8a5c:	c7 85 a8 fe ff ff ff 	movl   $0xffffffff,-0x158(%rbp)
    8a63:	ff ff ff 
    8a66:	c7 85 ac fe ff ff 05 	movl   $0x5,-0x154(%rbp)
    8a6d:	00 00 00 
    8a70:	c7 85 b0 fe ff ff 02 	movl   $0x2,-0x150(%rbp)
    8a77:	00 00 00 
    8a7a:	c7 85 b4 fe ff ff 60 	movl   $0x5d0fbc60,-0x14c(%rbp)
    8a81:	bc 0f 5d 
    8a84:	c7 85 b8 fe ff ff 60 	movl   $0x5d0fbc60,-0x148(%rbp)
    8a8b:	bc 0f 5d 
    8a8e:	c7 85 bc fe ff ff 02 	movl   $0x2,-0x144(%rbp)
    8a95:	00 00 00 
    8a98:	c7 85 c0 fe ff ff 05 	movl   $0x5,-0x140(%rbp)
    8a9f:	00 00 00 
    8aa2:	c7 85 c4 fe ff ff ff 	movl   $0xffffffff,-0x13c(%rbp)
    8aa9:	ff ff ff 
    8aac:	c7 85 c8 fe ff ff fa 	movl   $0xfffffffa,-0x138(%rbp)
    8ab3:	ff ff ff 
    8ab6:	c7 85 cc fe ff ff ff 	movl   $0xffffffff,-0x134(%rbp)
    8abd:	ff ff ff 
    8ac0:	48 8d 05 b9 86 00 00 	lea    0x86b9(%rip),%rax        # 11180 <g_479>
    8ac7:	48 89 85 98 fd ff ff 	mov    %rax,-0x268(%rbp)
    8ace:	c7 85 d0 fe ff ff f5 	movl   $0xa23fa9f5,-0x130(%rbp)
    8ad5:	a9 3f a2 
    8ad8:	c7 85 d4 fe ff ff b1 	movl   $0x251702b1,-0x12c(%rbp)
    8adf:	02 17 25 
    8ae2:	c7 85 d8 fe ff ff 21 	movl   $0x31caf321,-0x128(%rbp)
    8ae9:	f3 ca 31 
    8aec:	c7 85 dc fe ff ff ff 	movl   $0xffffffff,-0x124(%rbp)
    8af3:	ff ff ff 
    8af6:	c7 85 e0 fe ff ff 56 	movl   $0x5b4a1556,-0x120(%rbp)
    8afd:	15 4a 5b 
    8b00:	c7 85 e4 fe ff ff 00 	movl   $0x0,-0x11c(%rbp)
    8b07:	00 00 00 
    8b0a:	c7 85 e8 fe ff ff f9 	movl   $0xfffffff9,-0x118(%rbp)
    8b11:	ff ff ff 
    8b14:	c7 85 ec fe ff ff 56 	movl   $0x5b4a1556,-0x114(%rbp)
    8b1b:	15 4a 5b 
    8b1e:	c7 85 f0 fe ff ff b1 	movl   $0x251702b1,-0x110(%rbp)
    8b25:	02 17 25 
    8b28:	c7 85 f4 fe ff ff ff 	movl   $0xffffffff,-0x10c(%rbp)
    8b2f:	ff ff ff 
    8b32:	c7 85 f8 fe ff ff 08 	movl   $0x8,-0x108(%rbp)
    8b39:	00 00 00 
    8b3c:	c7 85 fc fe ff ff 6c 	movl   $0xe6c2866c,-0x104(%rbp)
    8b43:	86 c2 e6 
    8b46:	c7 85 00 ff ff ff 21 	movl   $0x31caf321,-0x100(%rbp)
    8b4d:	f3 ca 31 
    8b50:	c7 85 04 ff ff ff 56 	movl   $0x5b4a1556,-0xfc(%rbp)
    8b57:	15 4a 5b 
    8b5a:	c7 85 08 ff ff ff 01 	movl   $0x1,-0xf8(%rbp)
    8b61:	00 00 00 
    8b64:	c7 85 0c ff ff ff 56 	movl   $0x5b4a1556,-0xf4(%rbp)
    8b6b:	15 4a 5b 
    8b6e:	c7 85 10 ff ff ff 21 	movl   $0x31caf321,-0xf0(%rbp)
    8b75:	f3 ca 31 
    8b78:	c7 85 14 ff ff ff 6c 	movl   $0xe6c2866c,-0xec(%rbp)
    8b7f:	86 c2 e6 
    8b82:	c7 85 18 ff ff ff 08 	movl   $0x8,-0xe8(%rbp)
    8b89:	00 00 00 
    8b8c:	c7 85 1c ff ff ff 21 	movl   $0x31caf321,-0xe4(%rbp)
    8b93:	f3 ca 31 
    8b96:	c7 85 20 ff ff ff ff 	movl   $0xffffffff,-0xe0(%rbp)
    8b9d:	ff ff ff 
    8ba0:	c7 85 24 ff ff ff f5 	movl   $0xa23fa9f5,-0xdc(%rbp)
    8ba7:	a9 3f a2 
    8baa:	c7 85 28 ff ff ff 77 	movl   $0xfe887f77,-0xd8(%rbp)
    8bb1:	7f 88 fe 
    8bb4:	c7 85 2c ff ff ff f9 	movl   $0xfffffff9,-0xd4(%rbp)
    8bbb:	ff ff ff 
    8bbe:	c7 85 30 ff ff ff f5 	movl   $0xa23fa9f5,-0xd0(%rbp)
    8bc5:	a9 3f a2 
    8bc8:	c7 85 34 ff ff ff f9 	movl   $0xfffffff9,-0xcc(%rbp)
    8bcf:	ff ff ff 
    8bd2:	c7 85 38 ff ff ff ff 	movl   $0xffffffff,-0xc8(%rbp)
    8bd9:	ff ff ff 
    8bdc:	c7 85 3c ff ff ff ff 	movl   $0xffffffff,-0xc4(%rbp)
    8be3:	ff ff ff 
    8be6:	c7 85 40 ff ff ff 63 	movl   $0x5ef2b63,-0xc0(%rbp)
    8bed:	2b ef 05 
    8bf0:	c7 85 44 ff ff ff f9 	movl   $0xfffffff9,-0xbc(%rbp)
    8bf7:	ff ff ff 
    8bfa:	c7 85 48 ff ff ff 9c 	movl   $0x22f75d9c,-0xb8(%rbp)
    8c01:	5d f7 22 
    8c04:	c7 85 4c ff ff ff 08 	movl   $0x8,-0xb4(%rbp)
    8c0b:	00 00 00 
    8c0e:	c7 85 50 ff ff ff 2a 	movl   $0x86f3b52a,-0xb0(%rbp)
    8c15:	b5 f3 86 
    8c18:	c7 85 54 ff ff ff f9 	movl   $0xfffffff9,-0xac(%rbp)
    8c1f:	ff ff ff 
    8c22:	c7 85 58 ff ff ff 21 	movl   $0x31caf321,-0xa8(%rbp)
    8c29:	f3 ca 31 
    8c2c:	c7 85 5c ff ff ff 21 	movl   $0x31caf321,-0xa4(%rbp)
    8c33:	f3 ca 31 
    8c36:	c7 85 60 ff ff ff f9 	movl   $0xfffffff9,-0xa0(%rbp)
    8c3d:	ff ff ff 
    8c40:	c7 85 64 ff ff ff 2a 	movl   $0x86f3b52a,-0x9c(%rbp)
    8c47:	b5 f3 86 
    8c4a:	c7 85 68 ff ff ff 08 	movl   $0x8,-0x98(%rbp)
    8c51:	00 00 00 
    8c54:	c7 85 6c ff ff ff 9c 	movl   $0x22f75d9c,-0x94(%rbp)
    8c5b:	5d f7 22 
    8c5e:	c7 85 70 ff ff ff 2a 	movl   $0x86f3b52a,-0x90(%rbp)
    8c65:	b5 f3 86 
    8c68:	c7 85 74 ff ff ff ff 	movl   $0xffffffff,-0x8c(%rbp)
    8c6f:	ff ff ff 
    8c72:	c7 85 78 ff ff ff 08 	movl   $0x8,-0x88(%rbp)
    8c79:	00 00 00 
    8c7c:	c7 85 7c ff ff ff 56 	movl   $0x5b4a1556,-0x84(%rbp)
    8c83:	15 4a 5b 
    8c86:	c7 45 80 6c 86 c2 e6 	movl   $0xe6c2866c,-0x80(%rbp)
    8c8d:	c7 45 84 b1 02 17 25 	movl   $0x251702b1,-0x7c(%rbp)
    8c94:	c7 45 88 2a b5 f3 86 	movl   $0x86f3b52a,-0x78(%rbp)
    8c9b:	c7 45 8c 9c 5d f7 22 	movl   $0x22f75d9c,-0x74(%rbp)
    8ca2:	c7 45 90 b1 02 17 25 	movl   $0x251702b1,-0x70(%rbp)
    8ca9:	c7 45 94 08 00 00 00 	movl   $0x8,-0x6c(%rbp)
    8cb0:	c7 45 98 ff ff ff ff 	movl   $0xffffffff,-0x68(%rbp)
    8cb7:	c7 45 9c 9c 5d f7 22 	movl   $0x22f75d9c,-0x64(%rbp)
    8cbe:	c7 45 a0 f5 a9 3f a2 	movl   $0xa23fa9f5,-0x60(%rbp)
    8cc5:	c7 45 a4 2a b5 f3 86 	movl   $0x86f3b52a,-0x5c(%rbp)
    8ccc:	c7 45 a8 44 b3 e7 0d 	movl   $0xde7b344,-0x58(%rbp)
    8cd3:	c7 45 ac f9 ff ff ff 	movl   $0xfffffff9,-0x54(%rbp)
    8cda:	c7 45 b0 44 b3 e7 0d 	movl   $0xde7b344,-0x50(%rbp)
    8ce1:	c7 45 b4 2a b5 f3 86 	movl   $0x86f3b52a,-0x4c(%rbp)
    8ce8:	c7 45 b8 f5 a9 3f a2 	movl   $0xa23fa9f5,-0x48(%rbp)
    8cef:	c7 45 bc 56 15 4a 5b 	movl   $0x5b4a1556,-0x44(%rbp)
    8cf6:	44 8b 25 67 83 00 00 	mov    0x8367(%rip),%r12d        # 11064 <g_178+0x4>
    8cfd:	48 8b 9d b0 fd ff ff 	mov    -0x250(%rbp),%rbx
    8d04:	8b 05 1a 83 00 00    	mov    0x831a(%rip),%eax        # 11024 <g_14>
    8d0a:	0f be c0             	movsbl %al,%eax
    8d0d:	89 85 7c fd ff ff    	mov    %eax,-0x284(%rbp)
    8d13:	b8 ff ff ff ff       	mov    $0xffffffff,%eax
    8d18:	44 0f b6 e8          	movzbl %al,%r13d
    8d1c:	0f b6 05 2d 83 00 00 	movzbl 0x832d(%rip),%eax        # 11050 <g_156>
    8d23:	44 0f b6 f0          	movzbl %al,%r14d
    8d27:	4c 8b bd c8 fd ff ff 	mov    -0x238(%rbp),%r15
    8d2e:	48 8b 85 88 fd ff ff 	mov    -0x278(%rbp),%rax
    8d35:	0f b7 10             	movzwl (%rax),%edx
    8d38:	48 8b 85 88 fd ff ff 	mov    -0x278(%rbp),%rax
    8d3f:	66 89 10             	mov    %dx,(%rax)
    8d42:	48 8b 85 88 fd ff ff 	mov    -0x278(%rbp),%rax
    8d49:	0f b7 00             	movzwl (%rax),%eax
    8d4c:	0f b7 c0             	movzwl %ax,%eax
    8d4f:	be b0 5b 00 00       	mov    $0x5bb0,%esi
    8d54:	89 c7                	mov    %eax,%edi
    8d56:	e8 e2 ef ff ff       	callq  7d3d <safe_mul_func_uint16_t_u_u>
    8d5b:	0f b7 c0             	movzwl %ax,%eax
    8d5e:	4c 89 fe             	mov    %r15,%rsi
    8d61:	89 c7                	mov    %eax,%edi
    8d63:	e8 26 35 00 00       	callq  c28e <func_32>
    8d68:	0f b6 15 e1 82 00 00 	movzbl 0x82e1(%rip),%edx        # 11050 <g_156>
    8d6f:	0f b6 d2             	movzbl %dl,%edx
    8d72:	66 39 d0             	cmp    %dx,%ax
    8d75:	75 0b                	jne    8d82 <func_1+0x5cd>
    8d77:	0f b6 05 d2 82 00 00 	movzbl 0x82d2(%rip),%eax        # 11050 <g_156>
    8d7e:	84 c0                	test   %al,%al
    8d80:	74 07                	je     8d89 <func_1+0x5d4>
    8d82:	b8 01 00 00 00       	mov    $0x1,%eax
    8d87:	eb 05                	jmp    8d8e <func_1+0x5d9>
    8d89:	b8 00 00 00 00       	mov    $0x0,%eax
    8d8e:	89 c7                	mov    %eax,%edi
    8d90:	e8 d7 34 00 00       	callq  c26c <func_30>
    8d95:	0f be c0             	movsbl %al,%eax
    8d98:	be 03 00 00 00       	mov    $0x3,%esi
    8d9d:	89 c7                	mov    %eax,%edi
    8d9f:	e8 fd e4 ff ff       	callq  72a1 <safe_lshift_func_int8_t_s_s>
    8da4:	8b 85 80 fe ff ff    	mov    -0x180(%rbp),%eax
    8daa:	89 c2                	mov    %eax,%edx
    8dac:	48 8b 85 90 fd ff ff 	mov    -0x270(%rbp),%rax
    8db3:	21 d0                	and    %edx,%eax
    8db5:	83 f0 01             	xor    $0x1,%eax
    8db8:	98                   	cwtl   
    8db9:	44 89 f6             	mov    %r14d,%esi
    8dbc:	89 c7                	mov    %eax,%edi
    8dbe:	e8 5b 33 00 00       	callq  c11e <func_25>
    8dc3:	0f b6 c0             	movzbl %al,%eax
    8dc6:	44 89 ee             	mov    %r13d,%esi
    8dc9:	89 c7                	mov    %eax,%edi
    8dcb:	e8 0b ee ff ff       	callq  7bdb <safe_div_func_uint8_t_u_u>
    8dd0:	0f b6 c0             	movzbl %al,%eax
    8dd3:	48 89 c7             	mov    %rax,%rdi
    8dd6:	e8 36 2d 00 00       	callq  bb11 <func_21>
    8ddb:	48 8b 95 98 fd ff ff 	mov    -0x268(%rbp),%rdx
    8de2:	8b 12                	mov    (%rdx),%edx
    8de4:	31 c2                	xor    %eax,%edx
    8de6:	48 8b 85 98 fd ff ff 	mov    -0x268(%rbp),%rax
    8ded:	89 10                	mov    %edx,(%rax)
    8def:	48 8b 85 98 fd ff ff 	mov    -0x268(%rbp),%rax
    8df6:	8b 08                	mov    (%rax),%ecx
    8df8:	48 8b 95 a8 fd ff ff 	mov    -0x258(%rbp),%rdx
    8dff:	8b 05 1f 82 00 00    	mov    0x821f(%rip),%eax        # 11024 <g_14>
    8e05:	98                   	cwtl   
    8e06:	48 8b b5 80 fd ff ff 	mov    -0x280(%rbp),%rsi
    8e0d:	89 f7                	mov    %esi,%edi
    8e0f:	89 c6                	mov    %eax,%esi
    8e11:	e8 93 1b 00 00       	callq  a9a9 <func_15>
    8e16:	48 89 c7             	mov    %rax,%rdi
    8e19:	8b 35 05 82 00 00    	mov    0x8205(%rip),%esi        # 11024 <g_14>
    8e1f:	48 8b 85 c8 fd ff ff 	mov    -0x238(%rbp),%rax
    8e26:	48 8b 95 98 fd ff ff 	mov    -0x268(%rbp),%rdx
    8e2d:	44 8b 85 7c fd ff ff 	mov    -0x284(%rbp),%r8d
    8e34:	48 89 d1             	mov    %rdx,%rcx
    8e37:	48 89 fa             	mov    %rdi,%rdx
    8e3a:	48 89 c7             	mov    %rax,%rdi
    8e3d:	e8 f4 1a 00 00       	callq  a936 <func_7>
    8e42:	48 89 c7             	mov    %rax,%rdi
    8e45:	4c 8b 2d a4 a4 00 00 	mov    0xa4a4(%rip),%r13        # 132f0 <g_92>
    8e4c:	48 8b 85 98 fd ff ff 	mov    -0x268(%rbp),%rax
    8e53:	44 89 e1             	mov    %r12d,%ecx
    8e56:	48 89 c2             	mov    %rax,%rdx
    8e59:	48 89 de             	mov    %rbx,%rsi
    8e5c:	e8 30 00 00 00       	callq  8e91 <func_2>
    8e61:	49 89 45 00          	mov    %rax,0x0(%r13)
    8e65:	8b 85 58 ff ff ff    	mov    -0xa8(%rbp),%eax
    8e6b:	48 8b 5d c8          	mov    -0x38(%rbp),%rbx
    8e6f:	64 48 33 1c 25 28 00 	xor    %fs:0x28,%rbx
    8e76:	00 00 
    8e78:	74 05                	je     8e7f <func_1+0x6ca>
    8e7a:	e8 f1 e1 ff ff       	callq  7070 <__stack_chk_fail@plt>
    8e7f:	48 81 c4 68 02 00 00 	add    $0x268,%rsp
    8e86:	5b                   	pop    %rbx
    8e87:	41 5c                	pop    %r12
    8e89:	41 5d                	pop    %r13
    8e8b:	41 5e                	pop    %r14
    8e8d:	41 5f                	pop    %r15
    8e8f:	5d                   	pop    %rbp
    8e90:	c3                   	retq   

0000000000008e91 <func_2>:
    8e91:	f3 0f 1e fa          	endbr64 
    8e95:	55                   	push   %rbp
    8e96:	48 89 e5             	mov    %rsp,%rbp
    8e99:	41 57                	push   %r15
    8e9b:	41 56                	push   %r14
    8e9d:	41 55                	push   %r13
    8e9f:	41 54                	push   %r12
    8ea1:	53                   	push   %rbx
    8ea2:	48 81 ec 00 10 00 00 	sub    $0x1000,%rsp
    8ea9:	48 83 0c 24 00       	orq    $0x0,(%rsp)
    8eae:	48 81 ec 48 0f 00 00 	sub    $0xf48,%rsp
    8eb5:	48 89 bd b8 e0 ff ff 	mov    %rdi,-0x1f48(%rbp)
    8ebc:	48 89 b5 b0 e0 ff ff 	mov    %rsi,-0x1f50(%rbp)
    8ec3:	48 89 95 a8 e0 ff ff 	mov    %rdx,-0x1f58(%rbp)
    8eca:	89 8d a4 e0 ff ff    	mov    %ecx,-0x1f5c(%rbp)
    8ed0:	64 48 8b 04 25 28 00 	mov    %fs:0x28,%rax
    8ed7:	00 00 
    8ed9:	48 89 45 c8          	mov    %rax,-0x38(%rbp)
    8edd:	31 c0                	xor    %eax,%eax
    8edf:	48 8d 05 b2 a4 00 00 	lea    0xa4b2(%rip),%rax        # 13398 <g_275>
    8ee6:	48 89 85 88 e1 ff ff 	mov    %rax,-0x1e78(%rbp)
    8eed:	48 8d 85 88 e1 ff ff 	lea    -0x1e78(%rbp),%rax
    8ef4:	48 89 85 c8 e1 ff ff 	mov    %rax,-0x1e38(%rbp)
    8efb:	c7 85 f8 e0 ff ff f8 	movl   $0xfffffff8,-0x1f08(%rbp)
    8f02:	ff ff ff 
    8f05:	48 c7 85 90 e1 ff ff 	movq   $0x0,-0x1e70(%rbp)
    8f0c:	00 00 00 00 
    8f10:	48 c7 85 d0 e1 ff ff 	movq   $0x0,-0x1e30(%rbp)
    8f17:	00 00 00 00 
    8f1b:	48 8d 85 c0 f7 ff ff 	lea    -0x840(%rbp),%rax
    8f22:	48 8d 15 d7 82 00 00 	lea    0x82d7(%rip),%rdx        # 11200 <g_1071+0x18>
    8f29:	b9 00 01 00 00       	mov    $0x100,%ecx
    8f2e:	48 89 c7             	mov    %rax,%rdi
    8f31:	48 89 d6             	mov    %rdx,%rsi
    8f34:	f3 48 a5             	rep movsq %ds:(%rsi),%es:(%rdi)
    8f37:	48 8d 05 12 81 00 00 	lea    0x8112(%rip),%rax        # 11050 <g_156>
    8f3e:	48 89 85 98 e1 ff ff 	mov    %rax,-0x1e68(%rbp)
    8f45:	48 8d 85 50 e6 ff ff 	lea    -0x19b0(%rbp),%rax
    8f4c:	48 8d 15 ad 8a 00 00 	lea    0x8aad(%rip),%rdx        # 11a00 <g_1071+0x818>
    8f53:	b9 46 00 00 00       	mov    $0x46,%ecx
    8f58:	48 89 c7             	mov    %rax,%rdi
    8f5b:	48 89 d6             	mov    %rdx,%rsi
    8f5e:	f3 48 a5             	rep movsq %ds:(%rsi),%es:(%rdi)
    8f61:	66 c7 85 d0 e0 ff ff 	movw   $0xf1d2,-0x1f30(%rbp)
    8f68:	d2 f1 
    8f6a:	c7 85 e4 e0 ff ff 09 	movl   $0x9,-0x1f1c(%rbp)
    8f71:	00 00 00 
    8f74:	48 c7 85 c0 e3 ff ff 	movq   $0x0,-0x1c40(%rbp)
    8f7b:	00 00 00 00 
    8f7f:	48 c7 85 c8 e3 ff ff 	movq   $0x0,-0x1c38(%rbp)
    8f86:	00 00 00 00 
    8f8a:	48 c7 85 d0 e3 ff ff 	movq   $0x0,-0x1c30(%rbp)
    8f91:	00 00 00 00 
    8f95:	48 c7 85 d8 e3 ff ff 	movq   $0x0,-0x1c28(%rbp)
    8f9c:	00 00 00 00 
    8fa0:	48 c7 85 e0 e3 ff ff 	movq   $0x0,-0x1c20(%rbp)
    8fa7:	00 00 00 00 
    8fab:	48 8d 05 3e a3 00 00 	lea    0xa33e(%rip),%rax        # 132f0 <g_92>
    8fb2:	48 89 85 a0 e1 ff ff 	mov    %rax,-0x1e60(%rbp)
    8fb9:	48 b8 28 b2 0e d6 45 	movabs $0x411cf945d60eb228,%rax
    8fc0:	f9 1c 41 
    8fc3:	48 89 85 b0 e4 ff ff 	mov    %rax,-0x1b50(%rbp)
    8fca:	48 89 85 b8 e4 ff ff 	mov    %rax,-0x1b48(%rbp)
    8fd1:	48 89 85 c0 e4 ff ff 	mov    %rax,-0x1b40(%rbp)
    8fd8:	48 89 85 c8 e4 ff ff 	mov    %rax,-0x1b38(%rbp)
    8fdf:	48 89 85 d0 e4 ff ff 	mov    %rax,-0x1b30(%rbp)
    8fe6:	48 89 85 d8 e4 ff ff 	mov    %rax,-0x1b28(%rbp)
    8fed:	48 89 85 e0 e4 ff ff 	mov    %rax,-0x1b20(%rbp)
    8ff4:	48 89 85 e8 e4 ff ff 	mov    %rax,-0x1b18(%rbp)
    8ffb:	48 89 85 f0 e4 ff ff 	mov    %rax,-0x1b10(%rbp)
    9002:	48 89 85 f8 e4 ff ff 	mov    %rax,-0x1b08(%rbp)
    9009:	48 89 85 00 e5 ff ff 	mov    %rax,-0x1b00(%rbp)
    9010:	48 89 85 08 e5 ff ff 	mov    %rax,-0x1af8(%rbp)
    9017:	48 89 85 10 e5 ff ff 	mov    %rax,-0x1af0(%rbp)
    901e:	48 89 85 18 e5 ff ff 	mov    %rax,-0x1ae8(%rbp)
    9025:	48 89 85 20 e5 ff ff 	mov    %rax,-0x1ae0(%rbp)
    902c:	48 89 85 28 e5 ff ff 	mov    %rax,-0x1ad8(%rbp)
    9033:	48 8d 05 4a 81 00 00 	lea    0x814a(%rip),%rax        # 11184 <g_594>
    903a:	48 89 85 d8 e1 ff ff 	mov    %rax,-0x1e28(%rbp)
    9041:	48 8d 85 a0 e1 ff ff 	lea    -0x1e60(%rbp),%rax
    9048:	48 89 85 e0 e1 ff ff 	mov    %rax,-0x1e20(%rbp)
    904f:	48 c7 85 e8 e1 ff ff 	movq   $0x0,-0x1e18(%rbp)
    9056:	00 00 00 00 
    905a:	c7 85 fc e0 ff ff 01 	movl   $0x1,-0x1f04(%rbp)
    9061:	00 00 00 
    9064:	48 8d 85 30 e5 ff ff 	lea    -0x1ad0(%rbp),%rax
    906b:	48 8d 15 ce 8b 00 00 	lea    0x8bce(%rip),%rdx        # 11c40 <g_1071+0xa58>
    9072:	b9 23 00 00 00       	mov    $0x23,%ecx
    9077:	48 89 c7             	mov    %rax,%rdi
    907a:	48 89 d6             	mov    %rdx,%rsi
    907d:	f3 48 a5             	rep movsq %ds:(%rsi),%es:(%rdi)
    9080:	48 8d 85 30 e5 ff ff 	lea    -0x1ad0(%rbp),%rax
    9087:	48 05 b0 00 00 00    	add    $0xb0,%rax
    908d:	48 89 85 f0 e1 ff ff 	mov    %rax,-0x1e10(%rbp)
    9094:	48 8d 05 2d a3 00 00 	lea    0xa32d(%rip),%rax        # 133c8 <g_544>
    909b:	48 89 85 f8 e1 ff ff 	mov    %rax,-0x1e08(%rbp)
    90a2:	48 8d 85 e0 eb ff ff 	lea    -0x1420(%rbp),%rax
    90a9:	48 8d 15 b0 8c 00 00 	lea    0x8cb0(%rip),%rdx        # 11d60 <g_1071+0xb78>
    90b0:	b9 8c 00 00 00       	mov    $0x8c,%ecx
    90b5:	48 89 c7             	mov    %rax,%rdi
    90b8:	48 89 d6             	mov    %rdx,%rsi
    90bb:	f3 48 a5             	rep movsq %ds:(%rsi),%es:(%rdi)
    90be:	c7 85 e0 e0 ff ff 00 	movl   $0x0,-0x1f20(%rbp)
    90c5:	00 00 00 
    90c8:	eb 1e                	jmp    90e8 <func_2+0x257>
    90ca:	8b 85 e0 e0 ff ff    	mov    -0x1f20(%rbp),%eax
    90d0:	48 98                	cltq   
    90d2:	48 8d 15 67 7f 00 00 	lea    0x7f67(%rip),%rdx        # 11040 <g_116>
    90d9:	48 89 94 c5 20 e4 ff 	mov    %rdx,-0x1be0(%rbp,%rax,8)
    90e0:	ff 
    90e1:	83 85 e0 e0 ff ff 01 	addl   $0x1,-0x1f20(%rbp)
    90e8:	83 bd e0 e0 ff ff 07 	cmpl   $0x7,-0x1f20(%rbp)
    90ef:	7e d9                	jle    90ca <func_2+0x239>
    90f1:	c7 85 e0 e0 ff ff 00 	movl   $0x0,-0x1f20(%rbp)
    90f8:	00 00 00 
    90fb:	eb 1a                	jmp    9117 <func_2+0x286>
    90fd:	8b 85 e0 e0 ff ff    	mov    -0x1f20(%rbp),%eax
    9103:	48 98                	cltq   
    9105:	c7 84 85 f0 e3 ff ff 	movl   $0x9852fd10,-0x1c10(%rbp,%rax,4)
    910c:	10 fd 52 98 
    9110:	83 85 e0 e0 ff ff 01 	addl   $0x1,-0x1f20(%rbp)
    9117:	83 bd e0 e0 ff ff 09 	cmpl   $0x9,-0x1f20(%rbp)
    911e:	7e dd                	jle    90fd <func_2+0x26c>
    9120:	48 8b 05 e9 a1 00 00 	mov    0xa1e9(%rip),%rax        # 13310 <g_132>
    9127:	48 c7 85 c8 e1 ff ff 	movq   $0x0,-0x1e38(%rbp)
    912e:	00 00 00 00 
    9132:	8b 85 f8 e0 ff ff    	mov    -0x1f08(%rbp),%eax
    9138:	0f b7 c0             	movzwl %ax,%eax
    913b:	be 00 00 00 00       	mov    $0x0,%esi
    9140:	89 c7                	mov    %eax,%edi
    9142:	e8 01 ed ff ff       	callq  7e48 <safe_rshift_func_uint16_t_u_s>
    9147:	44 0f b7 e0          	movzwl %ax,%r12d
    914b:	48 8b 85 90 e1 ff ff 	mov    -0x1e70(%rbp),%rax
    9152:	48 85 c0             	test   %rax,%rax
    9155:	0f 95 c0             	setne  %al
    9158:	44 0f b6 e8          	movzbl %al,%r13d
    915c:	8b 05 d2 7e 00 00    	mov    0x7ed2(%rip),%eax        # 11034 <g_77+0x4>
    9162:	0f b7 d8             	movzwl %ax,%ebx
    9165:	48 c7 85 d0 e1 ff ff 	movq   $0x0,-0x1e30(%rbp)
    916c:	00 00 00 00 
    9170:	48 8b 85 d0 e1 ff ff 	mov    -0x1e30(%rbp),%rax
    9177:	48 89 05 5a a4 00 00 	mov    %rax,0xa45a(%rip)        # 135d8 <g_643>
    917e:	48 8b 15 53 a4 00 00 	mov    0xa453(%rip),%rdx        # 135d8 <g_643>
    9185:	48 8b 85 98 e1 ff ff 	mov    -0x1e68(%rbp),%rax
    918c:	48 39 c2             	cmp    %rax,%rdx
    918f:	0f 94 c0             	sete   %al
    9192:	89 c2                	mov    %eax,%edx
    9194:	8b 85 f8 e0 ff ff    	mov    -0x1f08(%rbp),%eax
    919a:	31 d0                	xor    %edx,%eax
    919c:	0f b6 c0             	movzbl %al,%eax
    919f:	be 04 00 00 00       	mov    $0x4,%esi
    91a4:	89 c7                	mov    %eax,%edi
    91a6:	e8 e2 ea ff ff       	callq  7c8d <safe_rshift_func_uint8_t_u_s>
    91ab:	48 8b 95 b0 e0 ff ff 	mov    -0x1f50(%rbp),%rdx
    91b2:	8b 12                	mov    (%rdx),%edx
    91b4:	0f b6 c0             	movzbl %al,%eax
    91b7:	21 c2                	and    %eax,%edx
    91b9:	48 8b 85 b0 e0 ff ff 	mov    -0x1f50(%rbp),%rax
    91c0:	89 10                	mov    %edx,(%rax)
    91c2:	0f b7 05 41 7f 00 00 	movzwl 0x7f41(%rip),%eax        # 1110a <g_215+0x8a>
    91c9:	0f b7 c0             	movzwl %ax,%eax
    91cc:	89 de                	mov    %ebx,%esi
    91ce:	89 c7                	mov    %eax,%edi
    91d0:	e8 68 eb ff ff       	callq  7d3d <safe_mul_func_uint16_t_u_u>
    91d5:	0f b7 c0             	movzwl %ax,%eax
    91d8:	8b 95 f8 e0 ff ff    	mov    -0x1f08(%rbp),%edx
    91de:	89 d6                	mov    %edx,%esi
    91e0:	89 c7                	mov    %eax,%edi
    91e2:	e8 1e e4 ff ff       	callq  7605 <safe_sub_func_int32_t_s_s>
    91e7:	44 09 e8             	or     %r13d,%eax
    91ea:	41 39 c4             	cmp    %eax,%r12d
    91ed:	0f 95 c0             	setne  %al
    91f0:	0f b6 d0             	movzbl %al,%edx
    91f3:	0f b6 05 5a 7f 00 00 	movzbl 0x7f5a(%rip),%eax        # 11154 <g_257+0x4>
    91fa:	0f be c0             	movsbl %al,%eax
    91fd:	39 c2                	cmp    %eax,%edx
    91ff:	0f 9e c0             	setle  %al
    9202:	0f b6 c0             	movzbl %al,%eax
    9205:	8b 95 f8 e0 ff ff    	mov    -0x1f08(%rbp),%edx
    920b:	21 d0                	and    %edx,%eax
    920d:	66 89 05 62 7f 00 00 	mov    %ax,0x7f62(%rip)        # 11176 <g_405+0x6>
    9214:	0f b7 05 5b 7f 00 00 	movzwl 0x7f5b(%rip),%eax        # 11176 <g_405+0x6>
    921b:	66 89 05 46 ac 00 00 	mov    %ax,0xac46(%rip)        # 13e68 <g_38>
    9222:	48 8b 05 97 a1 00 00 	mov    0xa197(%rip),%rax        # 133c0 <g_545>
    9229:	48 c7 00 00 00 00 00 	movq   $0x0,(%rax)
    9230:	48 8b 10             	mov    (%rax),%rdx
    9233:	48 8b 05 6e a1 00 00 	mov    0xa16e(%rip),%rax        # 133a8 <g_525>
    923a:	48 8b 00             	mov    (%rax),%rax
    923d:	48 8b 00             	mov    (%rax),%rax
    9240:	48 39 c2             	cmp    %rax,%rdx
    9243:	77 09                	ja     924e <func_2+0x3bd>
    9245:	83 bd f8 e0 ff ff 00 	cmpl   $0x0,-0x1f08(%rbp)
    924c:	74 07                	je     9255 <func_2+0x3c4>
    924e:	b8 01 00 00 00       	mov    $0x1,%eax
    9253:	eb 05                	jmp    925a <func_2+0x3c9>
    9255:	b8 00 00 00 00       	mov    $0x0,%eax
    925a:	0f be d0             	movsbl %al,%edx
    925d:	8b 85 f8 e0 ff ff    	mov    -0x1f08(%rbp),%eax
    9263:	0f be c0             	movsbl %al,%eax
    9266:	89 d6                	mov    %edx,%esi
    9268:	89 c7                	mov    %eax,%edi
    926a:	e8 83 df ff ff       	callq  71f2 <safe_sub_func_int8_t_s_s>
    926f:	0f be c0             	movsbl %al,%eax
    9272:	be 5e 24 fc b5       	mov    $0xb5fc245e,%esi
    9277:	89 c7                	mov    %eax,%edi
    9279:	e8 81 e4 ff ff       	callq  76ff <safe_div_func_int32_t_s_s>
    927e:	0f b7 d0             	movzwl %ax,%edx
    9281:	0f b7 05 24 7f 00 00 	movzwl 0x7f24(%rip),%eax        # 111ac <g_651>
    9288:	0f b7 c0             	movzwl %ax,%eax
    928b:	89 d6                	mov    %edx,%esi
    928d:	89 c7                	mov    %eax,%edi
    928f:	e8 a9 ea ff ff       	callq  7d3d <safe_mul_func_uint16_t_u_u>
    9294:	0f b7 c0             	movzwl %ax,%eax
    9297:	39 85 f8 e0 ff ff    	cmp    %eax,-0x1f08(%rbp)
    929d:	74 0c                	je     92ab <func_2+0x41a>
    929f:	48 8b 85 b8 e0 ff ff 	mov    -0x1f48(%rbp),%rax
    92a6:	48 85 c0             	test   %rax,%rax
    92a9:	74 07                	je     92b2 <func_2+0x421>
    92ab:	b8 01 00 00 00       	mov    $0x1,%eax
    92b0:	eb 05                	jmp    92b7 <func_2+0x426>
    92b2:	b8 00 00 00 00       	mov    $0x0,%eax
    92b7:	3b 85 f8 e0 ff ff    	cmp    -0x1f08(%rbp),%eax
    92bd:	0f b7 85 d0 e0 ff ff 	movzwl -0x1f30(%rbp),%eax
    92c4:	66 85 c0             	test   %ax,%ax
    92c7:	0f 84 ed 0f 00 00    	je     a2ba <func_2+0x1429>
    92cd:	c7 85 2c e1 ff ff 62 	movl   $0xda3cb162,-0x1ed4(%rbp)
    92d4:	b1 3c da 
    92d7:	c7 85 b0 e1 ff ff 07 	movl   $0x7,-0x1e50(%rbp)
    92de:	00 00 00 
    92e1:	c7 85 30 e1 ff ff 85 	movl   $0x7a1cee85,-0x1ed0(%rbp)
    92e8:	ee 1c 7a 
    92eb:	c7 85 34 e1 ff ff 41 	movl   $0x9ced3241,-0x1ecc(%rbp)
    92f2:	32 ed 9c 
    92f5:	c7 85 38 e1 ff ff 00 	movl   $0x0,-0x1ec8(%rbp)
    92fc:	00 00 00 
    92ff:	48 c7 85 50 e2 ff ff 	movq   $0x0,-0x1db0(%rbp)
    9306:	00 00 00 00 
    930a:	48 c7 85 58 e2 ff ff 	movq   $0xfffffffffffffffa,-0x1da8(%rbp)
    9311:	fa ff ff ff 
    9315:	c6 85 a8 e1 ff ff 00 	movb   $0x0,-0x1e58(%rbp)
    931c:	48 c7 85 60 e2 ff ff 	movq   $0xffffffffffffffff,-0x1da0(%rbp)
    9323:	ff ff ff ff 
    9327:	c7 85 3c e1 ff ff e3 	movl   $0x16bb19e3,-0x1ec4(%rbp)
    932e:	19 bb 16 
    9331:	48 8d 05 10 7d 00 00 	lea    0x7d10(%rip),%rax        # 11048 <g_117>
    9338:	48 89 85 68 e2 ff ff 	mov    %rax,-0x1d98(%rbp)
    933f:	66 c7 85 72 e3 ff ff 	movw   $0x6,-0x1c8e(%rbp)
    9346:	06 00 
    9348:	66 c7 85 74 e3 ff ff 	movw   $0x6,-0x1c8c(%rbp)
    934f:	06 00 
    9351:	66 c7 85 76 e3 ff ff 	movw   $0x6,-0x1c8a(%rbp)
    9358:	06 00 
    935a:	66 c7 85 78 e3 ff ff 	movw   $0x6,-0x1c88(%rbp)
    9361:	06 00 
    9363:	66 c7 85 7a e3 ff ff 	movw   $0x6,-0x1c86(%rbp)
    936a:	06 00 
    936c:	66 c7 85 7c e3 ff ff 	movw   $0x6,-0x1c84(%rbp)
    9373:	06 00 
    9375:	66 c7 85 7e e3 ff ff 	movw   $0x6,-0x1c82(%rbp)
    937c:	06 00 
    937e:	48 8d 85 88 e1 ff ff 	lea    -0x1e78(%rbp),%rax
    9385:	48 89 85 70 e2 ff ff 	mov    %rax,-0x1d90(%rbp)
    938c:	48 8d 85 98 e1 ff ff 	lea    -0x1e68(%rbp),%rax
    9393:	48 89 85 78 e2 ff ff 	mov    %rax,-0x1d88(%rbp)
    939a:	c7 85 d8 e0 ff ff 00 	movl   $0x0,-0x1f28(%rbp)
    93a1:	00 00 00 
    93a4:	eb 1a                	jmp    93c0 <func_2+0x52f>
    93a6:	8b 85 d8 e0 ff ff    	mov    -0x1f28(%rbp),%eax
    93ac:	48 98                	cltq   
    93ae:	c7 84 85 80 e3 ff ff 	movl   $0x0,-0x1c80(%rbp,%rax,4)
    93b5:	00 00 00 00 
    93b9:	83 85 d8 e0 ff ff 01 	addl   $0x1,-0x1f28(%rbp)
    93c0:	83 bd d8 e0 ff ff 04 	cmpl   $0x4,-0x1f28(%rbp)
    93c7:	7e dd                	jle    93a6 <func_2+0x515>
    93c9:	c7 85 d8 e0 ff ff 00 	movl   $0x0,-0x1f28(%rbp)
    93d0:	00 00 00 
    93d3:	eb 1e                	jmp    93f3 <func_2+0x562>
    93d5:	8b 85 d8 e0 ff ff    	mov    -0x1f28(%rbp),%eax
    93db:	48 98                	cltq   
    93dd:	48 8d 15 ba 7d 00 00 	lea    0x7dba(%rip),%rdx        # 1119e <g_596+0xe>
    93e4:	48 89 94 c5 68 e3 ff 	mov    %rdx,-0x1c98(%rbp,%rax,8)
    93eb:	ff 
    93ec:	83 85 d8 e0 ff ff 01 	addl   $0x1,-0x1f28(%rbp)
    93f3:	83 bd d8 e0 ff ff 00 	cmpl   $0x0,-0x1f28(%rbp)
    93fa:	7e d9                	jle    93d5 <func_2+0x544>
    93fc:	83 bd a4 e0 ff ff 3f 	cmpl   $0x3f,-0x1f5c(%rbp)
    9403:	76 28                	jbe    942d <func_2+0x59c>
    9405:	48 8d 05 34 7c 00 00 	lea    0x7c34(%rip),%rax        # 11040 <g_116>
    940c:	48 89 85 10 e3 ff ff 	mov    %rax,-0x1cf0(%rbp)
    9413:	48 8d 05 1a 7c 00 00 	lea    0x7c1a(%rip),%rax        # 11034 <g_77+0x4>
    941a:	48 89 85 18 e3 ff ff 	mov    %rax,-0x1ce8(%rbp)
    9421:	83 85 2c e1 ff ff 01 	addl   $0x1,-0x1ed4(%rbp)
    9428:	e9 4e 0c 00 00       	jmpq   a07b <func_2+0x11ea>
    942d:	c7 85 40 e1 ff ff 4d 	movl   $0x3ed00e4d,-0x1ec0(%rbp)
    9434:	0e d0 3e 
    9437:	48 c7 85 80 e2 ff ff 	movq   $0x0,-0x1d80(%rbp)
    943e:	00 00 00 00 
    9442:	48 8d 05 22 aa 00 00 	lea    0xaa22(%rip),%rax        # 13e6b <g_78>
    9449:	48 89 85 88 e2 ff ff 	mov    %rax,-0x1d78(%rbp)
    9450:	48 c7 85 80 e8 ff ff 	movq   $0xffffffffffffffff,-0x1780(%rbp)
    9457:	ff ff ff ff 
    945b:	48 b8 68 90 58 9a 43 	movabs $0xcb3b0e439a589068,%rax
    9462:	0e 3b cb 
    9465:	48 89 85 88 e8 ff ff 	mov    %rax,-0x1778(%rbp)
    946c:	48 c7 85 90 e8 ff ff 	movq   $0x0,-0x1770(%rbp)
    9473:	00 00 00 00 
    9477:	48 c7 85 98 e8 ff ff 	movq   $0x0,-0x1768(%rbp)
    947e:	00 00 00 00 
    9482:	48 89 85 a0 e8 ff ff 	mov    %rax,-0x1760(%rbp)
    9489:	48 c7 85 a8 e8 ff ff 	movq   $0xffffffffffffffff,-0x1758(%rbp)
    9490:	ff ff ff ff 
    9494:	48 89 85 b0 e8 ff ff 	mov    %rax,-0x1750(%rbp)
    949b:	48 c7 85 b8 e8 ff ff 	movq   $0x0,-0x1748(%rbp)
    94a2:	00 00 00 00 
    94a6:	48 c7 85 c0 e8 ff ff 	movq   $0x0,-0x1740(%rbp)
    94ad:	00 00 00 00 
    94b1:	48 89 85 c8 e8 ff ff 	mov    %rax,-0x1738(%rbp)
    94b8:	48 c7 85 d0 e8 ff ff 	movq   $0xffffffffffffffff,-0x1730(%rbp)
    94bf:	ff ff ff ff 
    94c3:	48 89 85 d8 e8 ff ff 	mov    %rax,-0x1728(%rbp)
    94ca:	48 c7 85 e0 e8 ff ff 	movq   $0x0,-0x1720(%rbp)
    94d1:	00 00 00 00 
    94d5:	48 c7 85 e8 e8 ff ff 	movq   $0x0,-0x1718(%rbp)
    94dc:	00 00 00 00 
    94e0:	48 89 85 f0 e8 ff ff 	mov    %rax,-0x1710(%rbp)
    94e7:	48 c7 85 f8 e8 ff ff 	movq   $0xffffffffffffffff,-0x1708(%rbp)
    94ee:	ff ff ff ff 
    94f2:	48 89 85 00 e9 ff ff 	mov    %rax,-0x1700(%rbp)
    94f9:	48 c7 85 08 e9 ff ff 	movq   $0x0,-0x16f8(%rbp)
    9500:	00 00 00 00 
    9504:	48 c7 85 10 e9 ff ff 	movq   $0x0,-0x16f0(%rbp)
    950b:	00 00 00 00 
    950f:	48 89 85 18 e9 ff ff 	mov    %rax,-0x16e8(%rbp)
    9516:	48 8d 05 53 7c 00 00 	lea    0x7c53(%rip),%rax        # 11170 <g_405>
    951d:	48 89 85 90 e2 ff ff 	mov    %rax,-0x1d70(%rbp)
    9524:	c7 85 dc e0 ff ff 90 	movl   $0x4b34cf90,-0x1f24(%rbp)
    952b:	cf 34 4b 
    952e:	66 c7 85 d4 e0 ff ff 	movw   $0x5509,-0x1f2c(%rbp)
    9535:	09 55 
    9537:	48 c7 85 98 e2 ff ff 	movq   $0x1,-0x1d68(%rbp)
    953e:	01 00 00 00 
    9542:	c7 85 e8 e0 ff ff 00 	movl   $0x0,-0x1f18(%rbp)
    9549:	00 00 00 
    954c:	eb 1a                	jmp    9568 <func_2+0x6d7>
    954e:	8b 85 e8 e0 ff ff    	mov    -0x1f18(%rbp),%eax
    9554:	48 98                	cltq   
    9556:	c7 84 85 a0 e3 ff ff 	movl   $0x36597445,-0x1c60(%rbp,%rax,4)
    955d:	45 74 59 36 
    9561:	83 85 e8 e0 ff ff 01 	addl   $0x1,-0x1f18(%rbp)
    9568:	83 bd e8 e0 ff ff 05 	cmpl   $0x5,-0x1f18(%rbp)
    956f:	7e dd                	jle    954e <func_2+0x6bd>
    9571:	48 8b 05 18 9e 00 00 	mov    0x9e18(%rip),%rax        # 13390 <g_268>
    9578:	c7 00 ff ff ff ff    	movl   $0xffffffff,(%rax)
    957e:	83 bd a4 e0 ff ff 69 	cmpl   $0x69,-0x1f5c(%rbp)
    9585:	0f 97 c0             	seta   %al
    9588:	0f b6 c0             	movzbl %al,%eax
    958b:	89 c6                	mov    %eax,%esi
    958d:	bf 01 00 00 00       	mov    $0x1,%edi
    9592:	e8 6e e6 ff ff       	callq  7c05 <safe_lshift_func_uint8_t_u_s>
    9597:	0f b6 d8             	movzbl %al,%ebx
    959a:	48 8b 85 b8 e0 ff ff 	mov    -0x1f48(%rbp),%rax
    95a1:	0f b6 c0             	movzbl %al,%eax
    95a4:	89 c6                	mov    %eax,%esi
    95a6:	bf 01 00 00 00       	mov    $0x1,%edi
    95ab:	e8 2b e6 ff ff       	callq  7bdb <safe_div_func_uint8_t_u_u>
    95b0:	8b 05 82 7b 00 00    	mov    0x7b82(%rip),%eax        # 11138 <g_254+0x8>
    95b6:	3d a4 00 00 00       	cmp    $0xa4,%eax
    95bb:	0f 96 c0             	setbe  %al
    95be:	0f b6 c0             	movzbl %al,%eax
    95c1:	be 05 00 00 00       	mov    $0x5,%esi
    95c6:	89 c7                	mov    %eax,%edi
    95c8:	e8 c0 e6 ff ff       	callq  7c8d <safe_rshift_func_uint8_t_u_s>
    95cd:	0f b6 c0             	movzbl %al,%eax
    95d0:	25 c5 00 00 00       	and    $0xc5,%eax
    95d5:	48 89 c2             	mov    %rax,%rdx
    95d8:	48 8b 05 39 7b 00 00 	mov    0x7b39(%rip),%rax        # 11118 <g_222>
    95df:	48 39 c2             	cmp    %rax,%rdx
    95e2:	0f 93 c0             	setae  %al
    95e5:	0f b6 d0             	movzbl %al,%edx
    95e8:	48 8b 05 a1 9d 00 00 	mov    0x9da1(%rip),%rax        # 13390 <g_268>
    95ef:	8b 00                	mov    (%rax),%eax
    95f1:	39 c2                	cmp    %eax,%edx
    95f3:	0f 9e c0             	setle  %al
    95f6:	0f b6 c0             	movzbl %al,%eax
    95f9:	21 d8                	and    %ebx,%eax
    95fb:	85 c0                	test   %eax,%eax
    95fd:	0f 84 a2 07 00 00    	je     9da5 <func_2+0xf14>
    9603:	48 c7 85 c0 e2 ff ff 	movq   $0x0,-0x1d40(%rbp)
    960a:	00 00 00 00 
    960e:	48 8d 05 5b 7b 00 00 	lea    0x7b5b(%rip),%rax        # 11170 <g_405>
    9615:	48 89 85 40 f0 ff ff 	mov    %rax,-0xfc0(%rbp)
    961c:	48 8d 05 4d 7b 00 00 	lea    0x7b4d(%rip),%rax        # 11170 <g_405>
    9623:	48 89 85 48 f0 ff ff 	mov    %rax,-0xfb8(%rbp)
    962a:	48 c7 85 50 f0 ff ff 	movq   $0x0,-0xfb0(%rbp)
    9631:	00 00 00 00 
    9635:	48 8d 05 34 7b 00 00 	lea    0x7b34(%rip),%rax        # 11170 <g_405>
    963c:	48 89 85 58 f0 ff ff 	mov    %rax,-0xfa8(%rbp)
    9643:	48 8d 05 26 7b 00 00 	lea    0x7b26(%rip),%rax        # 11170 <g_405>
    964a:	48 89 85 60 f0 ff ff 	mov    %rax,-0xfa0(%rbp)
    9651:	48 c7 85 68 f0 ff ff 	movq   $0x0,-0xf98(%rbp)
    9658:	00 00 00 00 
    965c:	48 8d 05 0d 7b 00 00 	lea    0x7b0d(%rip),%rax        # 11170 <g_405>
    9663:	48 89 85 70 f0 ff ff 	mov    %rax,-0xf90(%rbp)
    966a:	48 8d 05 ff 7a 00 00 	lea    0x7aff(%rip),%rax        # 11170 <g_405>
    9671:	48 89 85 78 f0 ff ff 	mov    %rax,-0xf88(%rbp)
    9678:	48 c7 85 80 f0 ff ff 	movq   $0x0,-0xf80(%rbp)
    967f:	00 00 00 00 
    9683:	48 8d 05 e6 7a 00 00 	lea    0x7ae6(%rip),%rax        # 11170 <g_405>
    968a:	48 89 85 88 f0 ff ff 	mov    %rax,-0xf78(%rbp)
    9691:	48 c7 85 90 f0 ff ff 	movq   $0x0,-0xf70(%rbp)
    9698:	00 00 00 00 
    969c:	48 8d 05 c5 a7 00 00 	lea    0xa7c5(%rip),%rax        # 13e68 <g_38>
    96a3:	48 89 85 98 f0 ff ff 	mov    %rax,-0xf68(%rbp)
    96aa:	48 c7 85 a0 f0 ff ff 	movq   $0x0,-0xf60(%rbp)
    96b1:	00 00 00 00 
    96b5:	48 c7 85 a8 f0 ff ff 	movq   $0x0,-0xf58(%rbp)
    96bc:	00 00 00 00 
    96c0:	48 8d 05 a1 a7 00 00 	lea    0xa7a1(%rip),%rax        # 13e68 <g_38>
    96c7:	48 89 85 b0 f0 ff ff 	mov    %rax,-0xf50(%rbp)
    96ce:	48 c7 85 b8 f0 ff ff 	movq   $0x0,-0xf48(%rbp)
    96d5:	00 00 00 00 
    96d9:	48 c7 85 c0 f0 ff ff 	movq   $0x0,-0xf40(%rbp)
    96e0:	00 00 00 00 
    96e4:	48 8d 05 7d a7 00 00 	lea    0xa77d(%rip),%rax        # 13e68 <g_38>
    96eb:	48 89 85 c8 f0 ff ff 	mov    %rax,-0xf38(%rbp)
    96f2:	c7 85 50 e1 ff ff fd 	movl   $0xfffffffd,-0x1eb0(%rbp)
    96f9:	ff ff ff 
    96fc:	c7 85 54 e1 ff ff 07 	movl   $0x7,-0x1eac(%rbp)
    9703:	00 00 00 
    9706:	c7 85 58 e1 ff ff f6 	movl   $0xfffffff6,-0x1ea8(%rbp)
    970d:	ff ff ff 
    9710:	c7 85 5c e1 ff ff b3 	movl   $0xe30862b3,-0x1ea4(%rbp)
    9717:	62 08 e3 
    971a:	c7 85 60 e1 ff ff 00 	movl   $0x0,-0x1ea0(%rbp)
    9721:	00 00 00 
    9724:	c6 85 cf e0 ff ff 00 	movb   $0x0,-0x1f31(%rbp)
    972b:	c7 85 64 e1 ff ff 00 	movl   $0x0,-0x1e9c(%rbp)
    9732:	00 00 00 
    9735:	c7 85 68 e1 ff ff c0 	movl   $0xfe4116c0,-0x1e98(%rbp)
    973c:	16 41 fe 
    973f:	c7 85 6c e1 ff ff 1c 	movl   $0xc6d09e1c,-0x1e94(%rbp)
    9746:	9e d0 c6 
    9749:	48 8d 05 1a a7 00 00 	lea    0xa71a(%rip),%rax        # 13e6a <g_70>
    9750:	48 89 85 c8 e2 ff ff 	mov    %rax,-0x1d38(%rbp)
    9757:	48 8d 05 92 79 00 00 	lea    0x7992(%rip),%rax        # 110f0 <g_215+0x70>
    975e:	48 89 85 d0 e2 ff ff 	mov    %rax,-0x1d30(%rbp)
    9765:	44 8b a5 2c e1 ff ff 	mov    -0x1ed4(%rbp),%r12d
    976c:	0f b7 05 f7 79 00 00 	movzwl 0x79f7(%rip),%eax        # 1116a <g_404>
    9773:	0f bf d8             	movswl %ax,%ebx
    9776:	0f b6 05 d3 78 00 00 	movzbl 0x78d3(%rip),%eax        # 11050 <g_156>
    977d:	44 0f b6 e8          	movzbl %al,%r13d
    9781:	8b 95 a0 e3 ff ff    	mov    -0x1c60(%rbp),%edx
    9787:	48 8b 8d c0 f0 ff ff 	mov    -0xf40(%rbp),%rcx
    978e:	48 8b 85 68 e8 ff ff 	mov    -0x1798(%rbp),%rax
    9795:	48 39 c1             	cmp    %rax,%rcx
    9798:	0f 94 c0             	sete   %al
    979b:	0f b6 c0             	movzbl %al,%eax
    979e:	31 d0                	xor    %edx,%eax
    97a0:	89 85 a0 e3 ff ff    	mov    %eax,-0x1c60(%rbp)
    97a6:	44 8b b5 f8 e0 ff ff 	mov    -0x1f08(%rbp),%r14d
    97ad:	be 0a 00 00 00       	mov    $0xa,%esi
    97b2:	bf 6e c3 ff ff       	mov    $0xffffc36e,%edi
    97b7:	e8 d6 dc ff ff       	callq  7492 <safe_lshift_func_int16_t_s_s>
    97bc:	48 0f bf d0          	movswq %ax,%rdx
    97c0:	48 8b 8d e8 e8 ff ff 	mov    -0x1718(%rbp),%rcx
    97c7:	49 63 c6             	movslq %r14d,%rax
    97ca:	48 31 c8             	xor    %rcx,%rax
    97cd:	48 89 85 e8 e8 ff ff 	mov    %rax,-0x1718(%rbp)
    97d4:	48 8b 8d e8 e8 ff ff 	mov    -0x1718(%rbp),%rcx
    97db:	48 8b 05 3e 9b 00 00 	mov    0x9b3e(%rip),%rax        # 13320 <g_264>
    97e2:	48 8b 00             	mov    (%rax),%rax
    97e5:	48 39 c1             	cmp    %rax,%rcx
    97e8:	0f 94 c0             	sete   %al
    97eb:	0f b6 c0             	movzbl %al,%eax
    97ee:	48 39 c2             	cmp    %rax,%rdx
    97f1:	0f 9d c0             	setge  %al
    97f4:	0f b6 c0             	movzbl %al,%eax
    97f7:	44 89 ee             	mov    %r13d,%esi
    97fa:	89 c7                	mov    %eax,%edi
    97fc:	e8 79 e6 ff ff       	callq  7e7a <safe_rshift_func_uint16_t_u_u>
    9801:	48 8d 85 b8 e0 ff ff 	lea    -0x1f48(%rbp),%rax
    9808:	48 39 85 c0 e2 ff ff 	cmp    %rax,-0x1d40(%rbp)
    980f:	0f 95 c0             	setne  %al
    9812:	0f b6 c0             	movzbl %al,%eax
    9815:	48 8b 95 b8 e0 ff ff 	mov    -0x1f48(%rbp),%rdx
    981c:	09 d0                	or     %edx,%eax
    981e:	98                   	cwtl   
    981f:	83 e0 01             	and    $0x1,%eax
    9822:	be 0d 00 00 00       	mov    $0xd,%esi
    9827:	89 c7                	mov    %eax,%edi
    9829:	e8 35 dd ff ff       	callq  7563 <safe_rshift_func_int16_t_s_u>
    982e:	0f b7 15 33 a6 00 00 	movzwl 0xa633(%rip),%edx        # 13e68 <g_38>
    9835:	09 d0                	or     %edx,%eax
    9837:	66 89 05 2a a6 00 00 	mov    %ax,0xa62a(%rip)        # 13e68 <g_38>
    983e:	8b 85 e4 e0 ff ff    	mov    -0x1f1c(%rbp),%eax
    9844:	be fc ff ff ff       	mov    $0xfffffffc,%esi
    9849:	89 c7                	mov    %eax,%edi
    984b:	e8 7c de ff ff       	callq  76cc <safe_mod_func_int32_t_s_s>
    9850:	0f b7 c0             	movzwl %ax,%eax
    9853:	4c 8b 2d 96 9a 00 00 	mov    0x9a96(%rip),%r13        # 132f0 <g_92>
    985a:	48 8b b5 90 e2 ff ff 	mov    -0x1d70(%rbp),%rsi
    9861:	44 89 e1             	mov    %r12d,%ecx
    9864:	89 da                	mov    %ebx,%edx
    9866:	89 c7                	mov    %eax,%edi
    9868:	e8 9c 35 00 00       	callq  ce09 <func_47>
    986d:	49 89 45 00          	mov    %rax,0x0(%r13)
    9871:	48 c7 05 cc 77 00 00 	movq   $0x0,0x77cc(%rip)        # 11048 <g_117>
    9878:	00 00 00 00 
    987c:	e9 c0 03 00 00       	jmpq   9c41 <func_2+0xdb0>
    9881:	48 c7 85 d8 e2 ff ff 	movq   $0x0,-0x1d28(%rbp)
    9888:	00 00 00 00 
    988c:	48 8d 05 ad 77 00 00 	lea    0x77ad(%rip),%rax        # 11040 <g_116>
    9893:	48 89 85 e0 e2 ff ff 	mov    %rax,-0x1d20(%rbp)
    989a:	48 c7 85 e8 e2 ff ff 	movq   $0x0,-0x1d18(%rbp)
    98a1:	00 00 00 00 
    98a5:	48 8d 85 a0 e3 ff ff 	lea    -0x1c60(%rbp),%rax
    98ac:	48 83 c0 08          	add    $0x8,%rax
    98b0:	48 89 85 f0 e2 ff ff 	mov    %rax,-0x1d10(%rbp)
    98b7:	48 8d 05 76 77 00 00 	lea    0x7776(%rip),%rax        # 11034 <g_77+0x4>
    98be:	48 89 85 60 e4 ff ff 	mov    %rax,-0x1ba0(%rbp)
    98c5:	48 8d 05 68 77 00 00 	lea    0x7768(%rip),%rax        # 11034 <g_77+0x4>
    98cc:	48 89 85 68 e4 ff ff 	mov    %rax,-0x1b98(%rbp)
    98d3:	48 8d 05 5a 77 00 00 	lea    0x775a(%rip),%rax        # 11034 <g_77+0x4>
    98da:	48 89 85 70 e4 ff ff 	mov    %rax,-0x1b90(%rbp)
    98e1:	48 8d 05 4c 77 00 00 	lea    0x774c(%rip),%rax        # 11034 <g_77+0x4>
    98e8:	48 89 85 78 e4 ff ff 	mov    %rax,-0x1b88(%rbp)
    98ef:	48 8d 05 3e 77 00 00 	lea    0x773e(%rip),%rax        # 11034 <g_77+0x4>
    98f6:	48 89 85 80 e4 ff ff 	mov    %rax,-0x1b80(%rbp)
    98fd:	48 8d 05 30 77 00 00 	lea    0x7730(%rip),%rax        # 11034 <g_77+0x4>
    9904:	48 89 85 88 e4 ff ff 	mov    %rax,-0x1b78(%rbp)
    990b:	48 8d 05 22 77 00 00 	lea    0x7722(%rip),%rax        # 11034 <g_77+0x4>
    9912:	48 89 85 90 e4 ff ff 	mov    %rax,-0x1b70(%rbp)
    9919:	48 8d 05 14 77 00 00 	lea    0x7714(%rip),%rax        # 11034 <g_77+0x4>
    9920:	48 89 85 98 e4 ff ff 	mov    %rax,-0x1b68(%rbp)
    9927:	48 8d 05 06 77 00 00 	lea    0x7706(%rip),%rax        # 11034 <g_77+0x4>
    992e:	48 89 85 a0 e4 ff ff 	mov    %rax,-0x1b60(%rbp)
    9935:	48 8d 05 f8 76 00 00 	lea    0x76f8(%rip),%rax        # 11034 <g_77+0x4>
    993c:	48 89 85 a8 e4 ff ff 	mov    %rax,-0x1b58(%rbp)
    9943:	c7 85 70 e1 ff ff c6 	movl   $0xa7fcc8c6,-0x1e90(%rbp)
    994a:	c8 fc a7 
    994d:	48 8d 05 84 9a 00 00 	lea    0x9a84(%rip),%rax        # 133d8 <g_604>
    9954:	48 89 85 f8 e2 ff ff 	mov    %rax,-0x1d08(%rbp)
    995b:	48 c7 05 aa 77 00 00 	movq   $0x0,0x77aa(%rip)        # 11110 <g_218>
    9962:	00 00 00 00 
    9966:	eb 7f                	jmp    99e7 <func_2+0xb56>
    9968:	48 8b 05 a1 77 00 00 	mov    0x77a1(%rip),%rax        # 11110 <g_218>
    996f:	48 8d 50 02          	lea    0x2(%rax),%rdx
    9973:	48 8b 05 96 77 00 00 	mov    0x7796(%rip),%rax        # 11110 <g_218>
    997a:	48 c1 e2 02          	shl    $0x2,%rdx
    997e:	48 01 c2             	add    %rax,%rdx
    9981:	48 8d 05 08 78 00 00 	lea    0x7808(%rip),%rax        # 11190 <g_596>
    9988:	48 01 d0             	add    %rdx,%rax
    998b:	0f b6 00             	movzbl (%rax),%eax
    998e:	0f be d0             	movsbl %al,%edx
    9991:	48 8b 05 b0 76 00 00 	mov    0x76b0(%rip),%rax        # 11048 <g_117>
    9998:	48 8d 48 06          	lea    0x6(%rax),%rcx
    999c:	48 8b 05 a5 76 00 00 	mov    0x76a5(%rip),%rax        # 11048 <g_117>
    99a3:	48 01 c8             	add    %rcx,%rax
    99a6:	48 8d 0c 85 00 00 00 	lea    0x0(,%rax,4),%rcx
    99ad:	00 
    99ae:	48 8d 05 ab 76 00 00 	lea    0x76ab(%rip),%rax        # 11060 <g_178>
    99b5:	8b 04 01             	mov    (%rcx,%rax,1),%eax
    99b8:	31 c2                	xor    %eax,%edx
    99ba:	48 8b 05 4f 77 00 00 	mov    0x774f(%rip),%rax        # 11110 <g_218>
    99c1:	89 d1                	mov    %edx,%ecx
    99c3:	48 8d 14 85 00 00 00 	lea    0x0(,%rax,4),%rdx
    99ca:	00 
    99cb:	48 8d 05 5e 76 00 00 	lea    0x765e(%rip),%rax        # 11030 <g_77>
    99d2:	89 0c 02             	mov    %ecx,(%rdx,%rax,1)
    99d5:	48 8b 05 34 77 00 00 	mov    0x7734(%rip),%rax        # 11110 <g_218>
    99dc:	48 83 c0 01          	add    $0x1,%rax
    99e0:	48 89 05 29 77 00 00 	mov    %rax,0x7729(%rip)        # 11110 <g_218>
    99e7:	48 8b 05 22 77 00 00 	mov    0x7722(%rip),%rax        # 11110 <g_218>
    99ee:	48 83 f8 03          	cmp    $0x3,%rax
    99f2:	0f 86 70 ff ff ff    	jbe    9968 <func_2+0xad7>
    99f8:	c7 05 3e 76 00 00 05 	movl   $0x5,0x763e(%rip)        # 11040 <g_116>
    99ff:	00 00 00 
    9a02:	90                   	nop
    9a03:	8b 05 37 76 00 00    	mov    0x7637(%rip),%eax        # 11040 <g_116>
    9a09:	85 c0                	test   %eax,%eax
    9a0b:	7e 1d                	jle    9a2a <func_2+0xb99>
    9a0d:	48 8b 05 b4 9d 00 00 	mov    0x9db4(%rip),%rax        # 137c8 <g_711>
    9a14:	48 8b 95 a8 e0 ff ff 	mov    -0x1f58(%rbp),%rdx
    9a1b:	48 89 10             	mov    %rdx,(%rax)
    9a1e:	48 8b 85 b0 e0 ff ff 	mov    -0x1f50(%rbp),%rax
    9a25:	e9 e6 0e 00 00       	jmpq   a910 <func_2+0x1a7f>
    9a2a:	83 ad dc e0 ff ff 01 	subl   $0x1,-0x1f24(%rbp)
    9a31:	c7 85 a4 e0 ff ff 00 	movl   $0x0,-0x1f5c(%rbp)
    9a38:	00 00 00 
    9a3b:	e9 e2 01 00 00       	jmpq   9c22 <func_2+0xd91>
    9a40:	48 8d 05 65 77 00 00 	lea    0x7765(%rip),%rax        # 111ac <g_651>
    9a47:	48 89 85 00 e3 ff ff 	mov    %rax,-0x1d00(%rbp)
    9a4e:	48 8d 05 6b 99 00 00 	lea    0x996b(%rip),%rax        # 133c0 <g_545>
    9a55:	48 89 85 08 e3 ff ff 	mov    %rax,-0x1cf8(%rbp)
    9a5c:	8b 05 1a 76 00 00    	mov    0x761a(%rip),%eax        # 1107c <g_178+0x1c>
    9a62:	89 85 98 e0 ff ff    	mov    %eax,-0x1f68(%rbp)
    9a68:	8b 9d 80 e3 ff ff    	mov    -0x1c80(%rbp),%ebx
    9a6e:	48 8b 85 58 e2 ff ff 	mov    -0x1da8(%rbp),%rax
    9a75:	44 0f b7 e0          	movzwl %ax,%r12d
    9a79:	8b 85 b0 e1 ff ff    	mov    -0x1e50(%rbp),%eax
    9a7f:	44 0f bf e8          	movswl %ax,%r13d
    9a83:	8b 85 a4 e0 ff ff    	mov    -0x1f5c(%rbp),%eax
    9a89:	8d 50 01             	lea    0x1(%rax),%edx
    9a8c:	48 8b 05 b5 75 00 00 	mov    0x75b5(%rip),%rax        # 11048 <g_117>
    9a93:	48 83 c0 03          	add    $0x3,%rax
    9a97:	89 d2                	mov    %edx,%edx
    9a99:	48 c1 e2 02          	shl    $0x2,%rdx
    9a9d:	48 01 c2             	add    %rax,%rdx
    9aa0:	48 8d 05 e9 76 00 00 	lea    0x76e9(%rip),%rax        # 11190 <g_596>
    9aa7:	48 01 d0             	add    %rdx,%rax
    9aaa:	0f b6 00             	movzbl (%rax),%eax
    9aad:	66 0f be d0          	movsbw %al,%dx
    9ab1:	48 8b 85 00 e3 ff ff 	mov    -0x1d00(%rbp),%rax
    9ab8:	66 89 10             	mov    %dx,(%rax)
    9abb:	48 8b 85 00 e3 ff ff 	mov    -0x1d00(%rbp),%rax
    9ac2:	0f b7 00             	movzwl (%rax),%eax
    9ac5:	66 83 f8 01          	cmp    $0x1,%ax
    9ac9:	0f 8e b1 00 00 00    	jle    9b80 <func_2+0xcef>
    9acf:	48 8b 85 90 e2 ff ff 	mov    -0x1d70(%rbp),%rax
    9ad6:	0f b7 00             	movzwl (%rax),%eax
    9ad9:	8d 48 ff             	lea    -0x1(%rax),%ecx
    9adc:	48 8b 95 90 e2 ff ff 	mov    -0x1d70(%rbp),%rdx
    9ae3:	66 89 0a             	mov    %cx,(%rdx)
    9ae6:	44 0f b7 f0          	movzwl %ax,%r14d
    9aea:	48 8b 85 f8 e2 ff ff 	mov    -0x1d08(%rbp),%rax
    9af1:	48 3b 85 50 e2 ff ff 	cmp    -0x1db0(%rbp),%rax
    9af8:	0f 95 c0             	setne  %al
    9afb:	44 0f b6 f8          	movzbl %al,%r15d
    9aff:	48 8d 05 ba 98 00 00 	lea    0x98ba(%rip),%rax        # 133c0 <g_545>
    9b06:	48 39 85 08 e3 ff ff 	cmp    %rax,-0x1cf8(%rbp)
    9b0d:	0f 95 c0             	setne  %al
    9b10:	0f b6 c0             	movzbl %al,%eax
    9b13:	be 01 00 00 00       	mov    $0x1,%esi
    9b18:	89 c7                	mov    %eax,%edi
    9b1a:	e8 0b da ff ff       	callq  752a <safe_rshift_func_int16_t_s_s>
    9b1f:	98                   	cwtl   
    9b20:	be 4a de ff ff       	mov    $0xffffde4a,%esi
    9b25:	89 c7                	mov    %eax,%edi
    9b27:	e8 87 d8 ff ff       	callq  73b3 <safe_add_func_int16_t_s_s>
    9b2c:	98                   	cwtl   
    9b2d:	be f9 ff ff ff       	mov    $0xfffffff9,%esi
    9b32:	89 c7                	mov    %eax,%edi
    9b34:	e8 ec e3 ff ff       	callq  7f25 <safe_div_func_uint32_t_u_u>
    9b39:	44 21 f8             	and    %r15d,%eax
    9b3c:	be 91 18 fa 15       	mov    $0x15fa1891,%esi
    9b41:	89 c7                	mov    %eax,%edi
    9b43:	e8 dd e3 ff ff       	callq  7f25 <safe_div_func_uint32_t_u_u>
    9b48:	89 c2                	mov    %eax,%edx
    9b4a:	48 8b 85 00 e3 ff ff 	mov    -0x1d00(%rbp),%rax
    9b51:	66 89 10             	mov    %dx,(%rax)
    9b54:	48 8b 85 00 e3 ff ff 	mov    -0x1d00(%rbp),%rax
    9b5b:	0f b7 00             	movzwl (%rax),%eax
    9b5e:	98                   	cwtl   
    9b5f:	41 39 c6             	cmp    %eax,%r14d
    9b62:	48 8b 05 27 98 00 00 	mov    0x9827(%rip),%rax        # 13390 <g_268>
    9b69:	c7 00 1c de 71 2b    	movl   $0x2b71de1c,(%rax)
    9b6f:	8b 00                	mov    (%rax),%eax
    9b71:	48 63 d0             	movslq %eax,%rdx
    9b74:	48 8b 85 b8 e0 ff ff 	mov    -0x1f48(%rbp),%rax
    9b7b:	48 39 c2             	cmp    %rax,%rdx
    9b7e:	75 07                	jne    9b87 <func_2+0xcf6>
    9b80:	b8 01 00 00 00       	mov    $0x1,%eax
    9b85:	eb 05                	jmp    9b8c <func_2+0xcfb>
    9b87:	b8 00 00 00 00       	mov    $0x0,%eax
    9b8c:	89 c2                	mov    %eax,%edx
    9b8e:	8b 85 a4 e0 ff ff    	mov    -0x1f5c(%rbp),%eax
    9b94:	09 d0                	or     %edx,%eax
    9b96:	98                   	cwtl   
    9b97:	44 89 ee             	mov    %r13d,%esi
    9b9a:	89 c7                	mov    %eax,%edi
    9b9c:	e8 32 d8 ff ff       	callq  73d3 <safe_sub_func_int16_t_s_s>
    9ba1:	98                   	cwtl   
    9ba2:	89 85 54 e1 ff ff    	mov    %eax,-0x1eac(%rbp)
    9ba8:	83 bd 54 e1 ff ff fd 	cmpl   $0xfffffffd,-0x1eac(%rbp)
    9baf:	0f 9d c0             	setge  %al
    9bb2:	0f b6 c0             	movzbl %al,%eax
    9bb5:	44 89 e6             	mov    %r12d,%esi
    9bb8:	89 c7                	mov    %eax,%edi
    9bba:	e8 9d e1 ff ff       	callq  7d5c <safe_mod_func_uint16_t_u_u>
    9bbf:	0f be c0             	movsbl %al,%eax
    9bc2:	89 de                	mov    %ebx,%esi
    9bc4:	89 c7                	mov    %eax,%edi
    9bc6:	e8 d6 d6 ff ff       	callq  72a1 <safe_lshift_func_int8_t_s_s>
    9bcb:	8b b5 98 e0 ff ff    	mov    -0x1f68(%rbp),%esi
    9bd1:	bf ff 00 00 00       	mov    $0xff,%edi
    9bd6:	e8 2a e0 ff ff       	callq  7c05 <safe_lshift_func_uint8_t_u_s>
    9bdb:	0f b6 d0             	movzbl %al,%edx
    9bde:	0f b7 05 83 a2 00 00 	movzwl 0xa283(%rip),%eax        # 13e68 <g_38>
    9be5:	21 d0                	and    %edx,%eax
    9be7:	66 89 05 7a a2 00 00 	mov    %ax,0xa27a(%rip)        # 13e68 <g_38>
    9bee:	0f b7 05 73 a2 00 00 	movzwl 0xa273(%rip),%eax        # 13e68 <g_38>
    9bf5:	0f b7 c0             	movzwl %ax,%eax
    9bf8:	be 00 00 00 00       	mov    $0x0,%esi
    9bfd:	89 c7                	mov    %eax,%edi
    9bff:	e8 ba e1 ff ff       	callq  7dbe <safe_lshift_func_uint16_t_u_s>
    9c04:	48 8b 95 f0 e2 ff ff 	mov    -0x1d10(%rbp),%rdx
    9c0b:	8b 12                	mov    (%rdx),%edx
    9c0d:	0f b7 c0             	movzwl %ax,%eax
    9c10:	21 c2                	and    %eax,%edx
    9c12:	48 8b 85 f0 e2 ff ff 	mov    -0x1d10(%rbp),%rax
    9c19:	89 10                	mov    %edx,(%rax)
    9c1b:	83 85 a4 e0 ff ff 01 	addl   $0x1,-0x1f5c(%rbp)
    9c22:	83 bd a4 e0 ff ff 00 	cmpl   $0x0,-0x1f5c(%rbp)
    9c29:	0f 84 11 fe ff ff    	je     9a40 <func_2+0xbaf>
    9c2f:	48 8b 05 12 74 00 00 	mov    0x7412(%rip),%rax        # 11048 <g_117>
    9c36:	48 83 e8 01          	sub    $0x1,%rax
    9c3a:	48 89 05 07 74 00 00 	mov    %rax,0x7407(%rip)        # 11048 <g_117>
    9c41:	48 8b 05 00 74 00 00 	mov    0x7400(%rip),%rax        # 11048 <g_117>
    9c48:	48 85 c0             	test   %rax,%rax
    9c4b:	0f 89 30 fc ff ff    	jns    9881 <func_2+0x9f0>
    9c51:	48 8b 05 68 97 00 00 	mov    0x9768(%rip),%rax        # 133c0 <g_545>
    9c58:	48 8b 00             	mov    (%rax),%rax
    9c5b:	49 89 c4             	mov    %rax,%r12
    9c5e:	0f b6 05 06 a2 00 00 	movzbl 0xa206(%rip),%eax        # 13e6b <g_78>
    9c65:	0f be d8             	movsbl %al,%ebx
    9c68:	8b 05 ca 74 00 00    	mov    0x74ca(%rip),%eax        # 11138 <g_254+0x8>
    9c6e:	89 c2                	mov    %eax,%edx
    9c70:	48 8b 85 b8 e0 ff ff 	mov    -0x1f48(%rbp),%rax
    9c77:	48 39 c2             	cmp    %rax,%rdx
    9c7a:	0f 93 c0             	setae  %al
    9c7d:	0f b6 c0             	movzbl %al,%eax
    9c80:	48 be 3e 46 d5 0d 67 	movabs $0xaef114670dd5463e,%rsi
    9c87:	14 f1 ae 
    9c8a:	48 89 c7             	mov    %rax,%rdi
    9c8d:	e8 16 dc ff ff       	callq  78a8 <safe_sub_func_int64_t_s_s>
    9c92:	41 89 c5             	mov    %eax,%r13d
    9c95:	48 8b 85 88 e2 ff ff 	mov    -0x1d78(%rbp),%rax
    9c9c:	48 89 85 c8 e2 ff ff 	mov    %rax,-0x1d38(%rbp)
    9ca3:	48 8b 85 c8 e2 ff ff 	mov    -0x1d38(%rbp),%rax
    9caa:	48 3b 85 80 e2 ff ff 	cmp    -0x1d80(%rbp),%rax
    9cb1:	41 0f 94 c6          	sete   %r14b
    9cb5:	0f b6 05 f7 74 00 00 	movzbl 0x74f7(%rip),%eax        # 111b3 <g_692+0x3>
    9cbc:	84 c0                	test   %al,%al
    9cbe:	75 49                	jne    9d09 <func_2+0xe78>
    9cc0:	8b 95 a4 e0 ff ff    	mov    -0x1f5c(%rbp),%edx
    9cc6:	0f b6 85 a8 e1 ff ff 	movzbl -0x1e58(%rbp),%eax
    9ccd:	0f b6 c0             	movzbl %al,%eax
    9cd0:	48 89 d6             	mov    %rdx,%rsi
    9cd3:	48 89 c7             	mov    %rax,%rdi
    9cd6:	e8 66 db ff ff       	callq  7841 <safe_add_func_int64_t_s_s>
    9cdb:	48 c7 c6 f6 ff ff ff 	mov    $0xfffffffffffffff6,%rsi
    9ce2:	48 89 c7             	mov    %rax,%rdi
    9ce5:	e8 0d dd ff ff       	callq  79f7 <safe_div_func_int64_t_s_s>
    9cea:	48 83 bd c0 e2 ff ff 	cmpq   $0x0,-0x1d40(%rbp)
    9cf1:	00 
    9cf2:	0f 94 c0             	sete   %al
    9cf5:	0f b6 d0             	movzbl %al,%edx
    9cf8:	0f b6 85 a8 e1 ff ff 	movzbl -0x1e58(%rbp),%eax
    9cff:	0f b6 c0             	movzbl %al,%eax
    9d02:	21 d0                	and    %edx,%eax
    9d04:	83 f8 01             	cmp    $0x1,%eax
    9d07:	76 07                	jbe    9d10 <func_2+0xe7f>
    9d09:	b8 01 00 00 00       	mov    $0x1,%eax
    9d0e:	eb 05                	jmp    9d15 <func_2+0xe84>
    9d10:	b8 00 00 00 00       	mov    $0x0,%eax
    9d15:	83 e0 01             	and    $0x1,%eax
    9d18:	44 31 f0             	xor    %r14d,%eax
    9d1b:	84 c0                	test   %al,%al
    9d1d:	74 07                	je     9d26 <func_2+0xe95>
    9d1f:	b8 01 00 00 00       	mov    $0x1,%eax
    9d24:	eb 05                	jmp    9d2b <func_2+0xe9a>
    9d26:	b8 00 00 00 00       	mov    $0x0,%eax
    9d2b:	44 21 e8             	and    %r13d,%eax
    9d2e:	98                   	cwtl   
    9d2f:	89 de                	mov    %ebx,%esi
    9d31:	89 c7                	mov    %eax,%edi
    9d33:	e8 f2 d7 ff ff       	callq  752a <safe_rshift_func_int16_t_s_s>
    9d38:	66 85 c0             	test   %ax,%ax
    9d3b:	74 11                	je     9d4e <func_2+0xebd>
    9d3d:	8b 05 31 73 00 00    	mov    0x7331(%rip),%eax        # 11074 <g_178+0x14>
    9d43:	85 c0                	test   %eax,%eax
    9d45:	74 07                	je     9d4e <func_2+0xebd>
    9d47:	b8 01 00 00 00       	mov    $0x1,%eax
    9d4c:	eb 05                	jmp    9d53 <func_2+0xec2>
    9d4e:	b8 00 00 00 00       	mov    $0x0,%eax
    9d53:	85 c0                	test   %eax,%eax
    9d55:	0f 9e c0             	setle  %al
    9d58:	0f b6 d0             	movzbl %al,%edx
    9d5b:	48 8b 85 d0 e2 ff ff 	mov    -0x1d30(%rbp),%rax
    9d62:	66 89 10             	mov    %dx,(%rax)
    9d65:	48 8b 85 d0 e2 ff ff 	mov    -0x1d30(%rbp),%rax
    9d6c:	0f b7 00             	movzwl (%rax),%eax
    9d6f:	98                   	cwtl   
    9d70:	be 07 00 00 00       	mov    $0x7,%esi
    9d75:	89 c7                	mov    %eax,%edi
    9d77:	e8 16 d7 ff ff       	callq  7492 <safe_lshift_func_int16_t_s_s>
    9d7c:	48 0f bf c0          	movswq %ax,%rax
    9d80:	4c 89 e6             	mov    %r12,%rsi
    9d83:	48 89 c7             	mov    %rax,%rdi
    9d86:	e8 b6 da ff ff       	callq  7841 <safe_add_func_int64_t_s_s>
    9d8b:	89 c2                	mov    %eax,%edx
    9d8d:	48 8b 85 b0 e0 ff ff 	mov    -0x1f50(%rbp),%rax
    9d94:	89 10                	mov    %edx,(%rax)
    9d96:	48 8b 05 53 95 00 00 	mov    0x9553(%rip),%rax        # 132f0 <g_92>
    9d9d:	48 8b 00             	mov    (%rax),%rax
    9da0:	e9 6b 0b 00 00       	jmpq   a910 <func_2+0x1a7f>
    9da5:	48 b8 a1 16 24 29 64 	movabs $0xd6ab9364292416a1,%rax
    9dac:	93 ab d6 
    9daf:	48 89 85 c0 e1 ff ff 	mov    %rax,-0x1e40(%rbp)
    9db6:	c7 85 44 e1 ff ff 01 	movl   $0x1,-0x1ebc(%rbp)
    9dbd:	00 00 00 
    9dc0:	c7 85 48 e1 ff ff fb 	movl   $0xfffffffb,-0x1eb8(%rbp)
    9dc7:	ff ff ff 
    9dca:	48 8d 05 9b a0 00 00 	lea    0xa09b(%rip),%rax        # 13e6c <g_119>
    9dd1:	48 89 85 a0 e2 ff ff 	mov    %rax,-0x1d60(%rbp)
    9dd8:	48 8d 05 cd 73 00 00 	lea    0x73cd(%rip),%rax        # 111ac <g_651>
    9ddf:	48 89 85 a8 e2 ff ff 	mov    %rax,-0x1d58(%rbp)
    9de6:	48 c7 85 b0 e2 ff ff 	movq   $0x0,-0x1d50(%rbp)
    9ded:	00 00 00 00 
    9df1:	c7 85 4c e1 ff ff 9d 	movl   $0x3d473d9d,-0x1eb4(%rbp)
    9df8:	3d 47 3d 
    9dfb:	c7 85 2c e1 ff ff 00 	movl   $0x0,-0x1ed4(%rbp)
    9e02:	00 00 00 
    9e05:	83 bd 2c e1 ff ff 0e 	cmpl   $0xe,-0x1ed4(%rbp)
    9e0c:	0f 84 83 01 00 00    	je     9f95 <func_2+0x1104>
    9e12:	48 8d 85 40 f0 ff ff 	lea    -0xfc0(%rbp),%rax
    9e19:	48 8d 15 a0 83 00 00 	lea    0x83a0(%rip),%rdx        # 121c0 <g_1071+0xfd8>
    9e20:	b9 f0 00 00 00       	mov    $0xf0,%ecx
    9e25:	48 89 c7             	mov    %rax,%rdi
    9e28:	48 89 d6             	mov    %rdx,%rsi
    9e2b:	f3 48 a5             	rep movsq %ds:(%rsi),%es:(%rdi)
    9e2e:	8b 85 b0 e1 ff ff    	mov    -0x1e50(%rbp),%eax
    9e34:	85 c0                	test   %eax,%eax
    9e36:	0f 84 32 01 00 00    	je     9f6e <func_2+0x10dd>
    9e3c:	48 c7 85 b8 e2 ff ff 	movq   $0x0,-0x1d48(%rbp)
    9e43:	00 00 00 00 
    9e47:	48 8b 05 2a a0 00 00 	mov    0xa02a(%rip),%rax        # 13e78 <g_318>
    9e4e:	89 85 98 e0 ff ff    	mov    %eax,-0x1f68(%rbp)
    9e54:	8b 1d 06 72 00 00    	mov    0x7206(%rip),%ebx        # 11060 <g_178>
    9e5a:	8b 05 20 73 00 00    	mov    0x7320(%rip),%eax        # 11180 <g_479>
    9e60:	44 0f bf e0          	movswl %ax,%r12d
    9e64:	48 8b 85 c0 e1 ff ff 	mov    -0x1e40(%rbp),%rax
    9e6b:	44 0f bf e8          	movswl %ax,%r13d
    9e6f:	8b 85 a4 e0 ff ff    	mov    -0x1f5c(%rbp),%eax
    9e75:	44 0f bf f0          	movswl %ax,%r14d
    9e79:	48 8b 85 b0 e0 ff ff 	mov    -0x1f50(%rbp),%rax
    9e80:	44 8b 38             	mov    (%rax),%r15d
    9e83:	48 8b 95 70 f1 ff ff 	mov    -0xe90(%rbp),%rdx
    9e8a:	48 8b 85 a0 e1 ff ff 	mov    -0x1e60(%rbp),%rax
    9e91:	48 39 c2             	cmp    %rax,%rdx
    9e94:	0f 95 c0             	setne  %al
    9e97:	0f b6 c0             	movzbl %al,%eax
    9e9a:	89 85 a0 e0 ff ff    	mov    %eax,-0x1f60(%rbp)
    9ea0:	48 8b 85 c0 e1 ff ff 	mov    -0x1e40(%rbp),%rax
    9ea7:	0f b7 f8             	movzwl %ax,%edi
    9eaa:	89 bd 94 e0 ff ff    	mov    %edi,-0x1f6c(%rbp)
    9eb0:	be 01 00 00 00       	mov    $0x1,%esi
    9eb5:	bf d7 00 00 00       	mov    $0xd7,%edi
    9eba:	e8 46 dd ff ff       	callq  7c05 <safe_lshift_func_uint8_t_u_s>
    9ebf:	0f b6 d0             	movzbl %al,%edx
    9ec2:	48 83 bd b8 e2 ff ff 	cmpq   $0x0,-0x1d48(%rbp)
    9ec9:	00 
    9eca:	0f 95 c0             	setne  %al
    9ecd:	0f b6 c0             	movzbl %al,%eax
    9ed0:	09 d0                	or     %edx,%eax
    9ed2:	0f b7 c0             	movzwl %ax,%eax
    9ed5:	8b b5 94 e0 ff ff    	mov    -0x1f6c(%rbp),%esi
    9edb:	89 c7                	mov    %eax,%edi
    9edd:	e8 7a de ff ff       	callq  7d5c <safe_mod_func_uint16_t_u_u>
    9ee2:	83 c8 01             	or     $0x1,%eax
    9ee5:	0f be c0             	movsbl %al,%eax
    9ee8:	89 c6                	mov    %eax,%esi
    9eea:	bf 20 00 00 00       	mov    $0x20,%edi
    9eef:	e8 fe d2 ff ff       	callq  71f2 <safe_sub_func_int8_t_s_s>
    9ef4:	0f be c0             	movsbl %al,%eax
    9ef7:	23 85 a0 e0 ff ff    	and    -0x1f60(%rbp),%eax
    9efd:	44 89 fe             	mov    %r15d,%esi
    9f00:	89 c7                	mov    %eax,%edi
    9f02:	e8 f8 d7 ff ff       	callq  76ff <safe_div_func_int32_t_s_s>
    9f07:	98                   	cwtl   
    9f08:	44 89 f6             	mov    %r14d,%esi
    9f0b:	89 c7                	mov    %eax,%edi
    9f0d:	e8 c1 d4 ff ff       	callq  73d3 <safe_sub_func_int16_t_s_s>
    9f12:	98                   	cwtl   
    9f13:	44 89 ee             	mov    %r13d,%esi
    9f16:	89 c7                	mov    %eax,%edi
    9f18:	e8 f9 d4 ff ff       	callq  7416 <safe_mod_func_int16_t_s_s>
    9f1d:	98                   	cwtl   
    9f1e:	44 89 e6             	mov    %r12d,%esi
    9f21:	89 c7                	mov    %eax,%edi
    9f23:	e8 8b d4 ff ff       	callq  73b3 <safe_add_func_int16_t_s_s>
    9f28:	8b 85 dc e0 ff ff    	mov    -0x1f24(%rbp),%eax
    9f2e:	48 8b 95 c0 e1 ff ff 	mov    -0x1e40(%rbp),%rdx
    9f35:	89 d6                	mov    %edx,%esi
    9f37:	48 8b 95 b8 e0 ff ff 	mov    -0x1f48(%rbp),%rdx
    9f3e:	89 d7                	mov    %edx,%edi
    9f40:	48 8b 95 a0 e1 ff ff 	mov    -0x1e60(%rbp),%rdx
    9f47:	4c 8b 22             	mov    (%rdx),%r12
    9f4a:	44 8b 85 98 e0 ff ff 	mov    -0x1f68(%rbp),%r8d
    9f51:	89 d9                	mov    %ebx,%ecx
    9f53:	48 89 c2             	mov    %rax,%rdx
    9f56:	e8 65 26 00 00       	callq  c5c0 <func_39>
    9f5b:	49 89 04 24          	mov    %rax,(%r12)
    9f5f:	48 8b 85 b0 e0 ff ff 	mov    -0x1f50(%rbp),%rax
    9f66:	8b 00                	mov    (%rax),%eax
    9f68:	85 c0                	test   %eax,%eax
    9f6a:	74 13                	je     9f7f <func_2+0x10ee>
    9f6c:	eb 27                	jmp    9f95 <func_2+0x1104>
    9f6e:	48 8b 85 a0 e1 ff ff 	mov    -0x1e60(%rbp),%rax
    9f75:	48 8b 00             	mov    (%rax),%rax
    9f78:	48 c7 00 00 00 00 00 	movq   $0x0,(%rax)
    9f7f:	83 85 48 e1 ff ff 01 	addl   $0x1,-0x1eb8(%rbp)
    9f86:	48 8b 05 63 93 00 00 	mov    0x9363(%rip),%rax        # 132f0 <g_92>
    9f8d:	48 8b 00             	mov    (%rax),%rax
    9f90:	e9 7b 09 00 00       	jmpq   a910 <func_2+0x1a7f>
    9f95:	48 8b 85 a0 e1 ff ff 	mov    -0x1e60(%rbp),%rax
    9f9c:	48 8b 10             	mov    (%rax),%rdx
    9f9f:	48 8b 85 a0 e1 ff ff 	mov    -0x1e60(%rbp),%rax
    9fa6:	48 8b 00             	mov    (%rax),%rax
    9fa9:	48 8b 12             	mov    (%rdx),%rdx
    9fac:	48 89 10             	mov    %rdx,(%rax)
    9faf:	0f b7 05 20 71 00 00 	movzwl 0x7120(%rip),%eax        # 110d6 <g_215+0x56>
    9fb6:	0f bf c8             	movswl %ax,%ecx
    9fb9:	8b 85 40 e1 ff ff    	mov    -0x1ec0(%rbp),%eax
    9fbf:	0f bf f0             	movswl %ax,%esi
    9fc2:	8b 85 44 e1 ff ff    	mov    -0x1ebc(%rbp),%eax
    9fc8:	48 8b 95 a0 e1 ff ff 	mov    -0x1e60(%rbp),%rdx
    9fcf:	48 8b 1a             	mov    (%rdx),%rbx
    9fd2:	48 8b 95 b0 e0 ff ff 	mov    -0x1f50(%rbp),%rdx
    9fd9:	89 c7                	mov    %eax,%edi
    9fdb:	e8 c9 09 00 00       	callq  a9a9 <func_15>
    9fe0:	48 89 03             	mov    %rax,(%rbx)
    9fe3:	48 8b 85 d0 e4 ff ff 	mov    -0x1b30(%rbp),%rax
    9fea:	48 83 e8 01          	sub    $0x1,%rax
    9fee:	48 89 85 d0 e4 ff ff 	mov    %rax,-0x1b30(%rbp)
    9ff5:	48 8b 85 98 e2 ff ff 	mov    -0x1d68(%rbp),%rax
    9ffc:	0f bf d8             	movswl %ax,%ebx
    9fff:	48 8b 05 f2 92 00 00 	mov    0x92f2(%rip),%rax        # 132f8 <g_131>
    a006:	8b 00                	mov    (%rax),%eax
    a008:	89 c2                	mov    %eax,%edx
    a00a:	8b 85 a4 e0 ff ff    	mov    -0x1f5c(%rbp),%eax
    a010:	83 f0 01             	xor    $0x1,%eax
    a013:	0d 92 ba 98 2f       	or     $0x2f98ba92,%eax
    a018:	89 d6                	mov    %edx,%esi
    a01a:	89 c7                	mov    %eax,%edi
    a01c:	e8 97 de ff ff       	callq  7eb8 <safe_add_func_uint32_t_u_u>
    a021:	48 8b 05 d8 97 00 00 	mov    0x97d8(%rip),%rax        # 13800 <g_833>
    a028:	8b 85 3c e1 ff ff    	mov    -0x1ec4(%rbp),%eax
    a02e:	89 c6                	mov    %eax,%esi
    a030:	bf 00 00 00 00       	mov    $0x0,%edi
    a035:	e8 eb de ff ff       	callq  7f25 <safe_div_func_uint32_t_u_u>
    a03a:	89 c2                	mov    %eax,%edx
    a03c:	8b 85 a4 e0 ff ff    	mov    -0x1f5c(%rbp),%eax
    a042:	0f be c0             	movsbl %al,%eax
    a045:	89 d6                	mov    %edx,%esi
    a047:	89 c7                	mov    %eax,%edi
    a049:	e8 1e d3 ff ff       	callq  736c <safe_rshift_func_int8_t_s_u>
    a04e:	66 98                	cbtw   
    a050:	66 39 85 d4 e0 ff ff 	cmp    %ax,-0x1f2c(%rbp)
    a057:	0f 9c c0             	setl   %al
    a05a:	0f b6 c0             	movzbl %al,%eax
    a05d:	89 de                	mov    %ebx,%esi
    a05f:	89 c7                	mov    %eax,%edi
    a061:	e8 4d d3 ff ff       	callq  73b3 <safe_add_func_int16_t_s_s>
    a066:	48 8b 95 a8 e0 ff ff 	mov    -0x1f58(%rbp),%rdx
    a06d:	8b 12                	mov    (%rdx),%edx
    a06f:	98                   	cwtl   
    a070:	21 c2                	and    %eax,%edx
    a072:	48 8b 85 a8 e0 ff ff 	mov    -0x1f58(%rbp),%rax
    a079:	89 10                	mov    %edx,(%rax)
    a07b:	c6 05 e9 9d 00 00 00 	movb   $0x0,0x9de9(%rip)        # 13e6b <g_78>
    a082:	e9 c2 00 00 00       	jmpq   a149 <func_2+0x12b8>
    a087:	48 8d 85 b0 e1 ff ff 	lea    -0x1e50(%rbp),%rax
    a08e:	48 89 85 20 e3 ff ff 	mov    %rax,-0x1ce0(%rbp)
    a095:	c7 85 74 e1 ff ff 01 	movl   $0x1,-0x1e8c(%rbp)
    a09c:	00 00 00 
    a09f:	c7 85 78 e1 ff ff 04 	movl   $0xb224ef04,-0x1e88(%rbp)
    a0a6:	ef 24 b2 
    a0a9:	c7 85 7c e1 ff ff f8 	movl   $0xfffffff8,-0x1e84(%rbp)
    a0b0:	ff ff ff 
    a0b3:	66 c7 85 d6 e0 ff ff 	movw   $0xfdbe,-0x1f2a(%rbp)
    a0ba:	be fd 
    a0bc:	48 8d 05 fd 92 00 00 	lea    0x92fd(%rip),%rax        # 133c0 <g_545>
    a0c3:	48 89 85 b8 e1 ff ff 	mov    %rax,-0x1e48(%rbp)
    a0ca:	48 8d 85 b8 e1 ff ff 	lea    -0x1e48(%rbp),%rax
    a0d1:	48 89 85 c0 e1 ff ff 	mov    %rax,-0x1e40(%rbp)
    a0d8:	48 8d 85 c0 e1 ff ff 	lea    -0x1e40(%rbp),%rax
    a0df:	48 89 85 28 e3 ff ff 	mov    %rax,-0x1cd8(%rbp)
    a0e6:	48 b8 ed 9a a4 f3 bd 	movabs $0x5217abbdf3a49aed,%rax
    a0ed:	ab 17 52 
    a0f0:	48 89 85 30 e3 ff ff 	mov    %rax,-0x1cd0(%rbp)
    a0f7:	c7 85 ec e0 ff ff 00 	movl   $0x0,-0x1f14(%rbp)
    a0fe:	00 00 00 
    a101:	eb 21                	jmp    a124 <func_2+0x1293>
    a103:	8b 85 ec e0 ff ff    	mov    -0x1f14(%rbp),%eax
    a109:	48 98                	cltq   
    a10b:	48 bb 23 ea 03 46 ca 	movabs $0xcb1964ca4603ea23,%rbx
    a112:	64 19 cb 
    a115:	48 89 9c c5 40 f0 ff 	mov    %rbx,-0xfc0(%rbp,%rax,8)
    a11c:	ff 
    a11d:	83 85 ec e0 ff ff 01 	addl   $0x1,-0x1f14(%rbp)
    a124:	83 bd ec e0 ff ff 01 	cmpl   $0x1,-0x1f14(%rbp)
    a12b:	7e d6                	jle    a103 <func_2+0x1272>
    a12d:	0f b6 05 37 9d 00 00 	movzbl 0x9d37(%rip),%eax        # 13e6b <g_78>
    a134:	0f be c0             	movsbl %al,%eax
    a137:	be 01 00 00 00       	mov    $0x1,%esi
    a13c:	89 c7                	mov    %eax,%edi
    a13e:	e8 c2 d4 ff ff       	callq  7605 <safe_sub_func_int32_t_s_s>
    a143:	88 05 22 9d 00 00    	mov    %al,0x9d22(%rip)        # 13e6b <g_78>
    a149:	0f b6 05 1b 9d 00 00 	movzbl 0x9d1b(%rip),%eax        # 13e6b <g_78>
    a150:	3c e3                	cmp    $0xe3,%al
    a152:	0f 8c 2f ff ff ff    	jl     a087 <func_2+0x11f6>
    a158:	8b 05 d6 6e 00 00    	mov    0x6ed6(%rip),%eax        # 11034 <g_77+0x4>
    a15e:	3d 6b a9 00 00       	cmp    $0xa96b,%eax
    a163:	0f 94 c0             	sete   %al
    a166:	44 0f b6 e0          	movzbl %al,%r12d
    a16a:	48 8b 85 a8 e0 ff ff 	mov    -0x1f58(%rbp),%rax
    a171:	44 8b 28             	mov    (%rax),%r13d
    a174:	48 8b 85 b8 e0 ff ff 	mov    -0x1f48(%rbp),%rax
    a17b:	0f b6 d8             	movzbl %al,%ebx
    a17e:	48 8b 05 33 92 00 00 	mov    0x9233(%rip),%rax        # 133b8 <g_522>
    a185:	48 8b 00             	mov    (%rax),%rax
    a188:	48 85 c0             	test   %rax,%rax
    a18b:	0f 95 c0             	setne  %al
    a18e:	89 c2                	mov    %eax,%edx
    a190:	8b 85 a4 e0 ff ff    	mov    -0x1f5c(%rbp),%eax
    a196:	21 d0                	and    %edx,%eax
    a198:	83 f0 fa             	xor    $0xfffffffa,%eax
    a19b:	0f be c0             	movsbl %al,%eax
    a19e:	be 01 00 00 00       	mov    $0x1,%esi
    a1a3:	89 c7                	mov    %eax,%edi
    a1a5:	e8 c0 d0 ff ff       	callq  726a <safe_div_func_int8_t_s_s>
    a1aa:	0f be c0             	movsbl %al,%eax
    a1ad:	be ff ff ff ff       	mov    $0xffffffff,%esi
    a1b2:	89 c7                	mov    %eax,%edi
    a1b4:	e8 3c d2 ff ff       	callq  73f5 <safe_mul_func_int16_t_s_s>
    a1b9:	0f b7 15 4a 6f 00 00 	movzwl 0x6f4a(%rip),%edx        # 1110a <g_215+0x8a>
    a1c0:	66 39 d0             	cmp    %dx,%ax
    a1c3:	89 de                	mov    %ebx,%esi
    a1c5:	bf 01 00 00 00       	mov    $0x1,%edi
    a1ca:	e8 c4 d9 ff ff       	callq  7b93 <safe_mul_func_uint8_t_u_u>
    a1cf:	0f b6 d0             	movzbl %al,%edx
    a1d2:	48 8b 85 b8 e0 ff ff 	mov    -0x1f48(%rbp),%rax
    a1d9:	48 39 c2             	cmp    %rax,%rdx
    a1dc:	0f 92 c0             	setb   %al
    a1df:	0f b6 c0             	movzbl %al,%eax
    a1e2:	44 21 e8             	and    %r13d,%eax
    a1e5:	85 c0                	test   %eax,%eax
    a1e7:	48 8b 85 70 e2 ff ff 	mov    -0x1d90(%rbp),%rax
    a1ee:	48 8b 00             	mov    (%rax),%rax
    a1f1:	48 8b 10             	mov    (%rax),%rdx
    a1f4:	48 8b 05 bd 91 00 00 	mov    0x91bd(%rip),%rax        # 133b8 <g_522>
    a1fb:	48 8b 00             	mov    (%rax),%rax
    a1fe:	48 39 c2             	cmp    %rax,%rdx
    a201:	0f 95 c0             	setne  %al
    a204:	0f b6 d0             	movzbl %al,%edx
    a207:	48 8b 85 78 e2 ff ff 	mov    -0x1d88(%rbp),%rax
    a20e:	48 8d 8d a8 e1 ff ff 	lea    -0x1e58(%rbp),%rcx
    a215:	48 89 08             	mov    %rcx,(%rax)
    a218:	48 8b 85 78 e2 ff ff 	mov    -0x1d88(%rbp),%rax
    a21f:	48 8b 08             	mov    (%rax),%rcx
    a222:	48 8d 85 a8 e1 ff ff 	lea    -0x1e58(%rbp),%rax
    a229:	48 39 c1             	cmp    %rax,%rcx
    a22c:	0f 95 c0             	setne  %al
    a22f:	0f b6 c0             	movzbl %al,%eax
    a232:	89 d6                	mov    %edx,%esi
    a234:	89 c7                	mov    %eax,%edi
    a236:	e8 cb db ff ff       	callq  7e06 <safe_lshift_func_uint16_t_u_u>
    a23b:	0f b7 c0             	movzwl %ax,%eax
    a23e:	41 39 c4             	cmp    %eax,%r12d
    a241:	0f 9f c0             	setg   %al
    a244:	0f b6 c0             	movzbl %al,%eax
    a247:	8b 95 a4 e0 ff ff    	mov    -0x1f5c(%rbp),%edx
    a24d:	89 d6                	mov    %edx,%esi
    a24f:	89 c7                	mov    %eax,%edi
    a251:	e8 16 d1 ff ff       	callq  736c <safe_rshift_func_int8_t_s_u>
    a256:	0f be c0             	movsbl %al,%eax
    a259:	33 85 38 e1 ff ff    	xor    -0x1ec8(%rbp),%eax
    a25f:	3d 93 b5 00 00       	cmp    $0xb593,%eax
    a264:	0f 9e c0             	setle  %al
    a267:	0f b6 c0             	movzbl %al,%eax
    a26a:	23 85 a4 e0 ff ff    	and    -0x1f5c(%rbp),%eax
    a270:	89 c2                	mov    %eax,%edx
    a272:	48 8b 85 b8 e0 ff ff 	mov    -0x1f48(%rbp),%rax
    a279:	0f b6 c0             	movzbl %al,%eax
    a27c:	89 d6                	mov    %edx,%esi
    a27e:	89 c7                	mov    %eax,%edi
    a280:	e8 08 da ff ff       	callq  7c8d <safe_rshift_func_uint8_t_u_s>
    a285:	0f b6 d0             	movzbl %al,%edx
    a288:	0f b7 05 1d 6f 00 00 	movzwl 0x6f1d(%rip),%eax        # 111ac <g_651>
    a28f:	31 d0                	xor    %edx,%eax
    a291:	66 89 05 14 6f 00 00 	mov    %ax,0x6f14(%rip)        # 111ac <g_651>
    a298:	0f b7 05 0d 6f 00 00 	movzwl 0x6f0d(%rip),%eax        # 111ac <g_651>
    a29f:	98                   	cwtl   
    a2a0:	39 85 a4 e0 ff ff    	cmp    %eax,-0x1f5c(%rbp)
    a2a6:	0f 93 c0             	setae  %al
    a2a9:	0f b6 d0             	movzbl %al,%edx
    a2ac:	48 8b 85 a8 e0 ff ff 	mov    -0x1f58(%rbp),%rax
    a2b3:	89 10                	mov    %edx,(%rax)
    a2b5:	e9 fe 02 00 00       	jmpq   a5b8 <func_2+0x1727>
    a2ba:	66 c7 85 d2 e0 ff ff 	movw   $0xf376,-0x1f2e(%rbp)
    a2c1:	76 f3 
    a2c3:	48 8d 05 76 6d 00 00 	lea    0x6d76(%rip),%rax        # 11040 <g_116>
    a2ca:	48 89 85 00 e2 ff ff 	mov    %rax,-0x1e00(%rbp)
    a2d1:	48 8d 85 80 e8 ff ff 	lea    -0x1780(%rbp),%rax
    a2d8:	48 8d 15 81 3d 00 00 	lea    0x3d81(%rip),%rdx        # e060 <g_279+0xc>
    a2df:	b9 6c 00 00 00       	mov    $0x6c,%ecx
    a2e4:	48 89 c7             	mov    %rax,%rdi
    a2e7:	48 89 d6             	mov    %rdx,%rsi
    a2ea:	f3 48 a5             	rep movsq %ds:(%rsi),%es:(%rdi)
    a2ed:	c6 85 cd e0 ff ff 08 	movb   $0x8,-0x1f33(%rbp)
    a2f4:	c6 85 ce e0 ff ff ff 	movb   $0xff,-0x1f32(%rbp)
    a2fb:	c7 85 00 e1 ff ff d2 	movl   $0x4e1f6ad2,-0x1f00(%rbp)
    a302:	6a 1f 4e 
    a305:	48 8b 05 ec 8f 00 00 	mov    0x8fec(%rip),%rax        # 132f8 <g_131>
    a30c:	8b 00                	mov    (%rax),%eax
    a30e:	85 c0                	test   %eax,%eax
    a310:	0f 84 8a 02 00 00    	je     a5a0 <func_2+0x170f>
    a316:	c6 85 72 e3 ff ff fd 	movb   $0xfd,-0x1c8e(%rbp)
    a31d:	c6 85 73 e3 ff ff a0 	movb   $0xa0,-0x1c8d(%rbp)
    a324:	c6 85 74 e3 ff ff fd 	movb   $0xfd,-0x1c8c(%rbp)
    a32b:	c6 85 75 e3 ff ff fd 	movb   $0xfd,-0x1c8b(%rbp)
    a332:	c6 85 76 e3 ff ff a0 	movb   $0xa0,-0x1c8a(%rbp)
    a339:	c6 85 77 e3 ff ff fd 	movb   $0xfd,-0x1c89(%rbp)
    a340:	c6 85 78 e3 ff ff fd 	movb   $0xfd,-0x1c88(%rbp)
    a347:	c7 85 04 e1 ff ff 46 	movl   $0x9e2b8246,-0x1efc(%rbp)
    a34e:	82 2b 9e 
    a351:	c7 85 08 e1 ff ff a0 	movl   $0xc77bdfa0,-0x1ef8(%rbp)
    a358:	df 7b c7 
    a35b:	c7 85 0c e1 ff ff ff 	movl   $0xffffffff,-0x1ef4(%rbp)
    a362:	ff ff ff 
    a365:	c7 85 10 e1 ff ff ff 	movl   $0xffffffff,-0x1ef0(%rbp)
    a36c:	ff ff ff 
    a36f:	c7 85 14 e1 ff ff 08 	movl   $0xe09dd08,-0x1eec(%rbp)
    a376:	dd 09 0e 
    a379:	c7 85 18 e1 ff ff 04 	movl   $0xe15a1104,-0x1ee8(%rbp)
    a380:	11 5a e1 
    a383:	48 c7 85 08 e2 ff ff 	movq   $0x0,-0x1df8(%rbp)
    a38a:	00 00 00 00 
    a38e:	48 8d 85 40 f0 ff ff 	lea    -0xfc0(%rbp),%rax
    a395:	48 8d 15 a4 85 00 00 	lea    0x85a4(%rip),%rdx        # 12940 <g_1071+0x1758>
    a39c:	b9 f0 00 00 00       	mov    $0xf0,%ecx
    a3a1:	48 89 c7             	mov    %rax,%rdi
    a3a4:	48 89 d6             	mov    %rdx,%rsi
    a3a7:	f3 48 a5             	rep movsq %ds:(%rsi),%es:(%rdi)
    a3aa:	c7 85 f0 e0 ff ff 00 	movl   $0x0,-0x1f10(%rbp)
    a3b1:	00 00 00 
    a3b4:	eb 1a                	jmp    a3d0 <func_2+0x153f>
    a3b6:	8b 85 f0 e0 ff ff    	mov    -0x1f10(%rbp),%eax
    a3bc:	48 98                	cltq   
    a3be:	c7 84 85 64 e3 ff ff 	movl   $0xfffffff9,-0x1c9c(%rbp,%rax,4)
    a3c5:	f9 ff ff ff 
    a3c9:	83 85 f0 e0 ff ff 01 	addl   $0x1,-0x1f10(%rbp)
    a3d0:	83 bd f0 e0 ff ff 00 	cmpl   $0x0,-0x1f10(%rbp)
    a3d7:	7e dd                	jle    a3b6 <func_2+0x1525>
    a3d9:	48 c7 85 b8 e0 ff ff 	movq   $0x17,-0x1f48(%rbp)
    a3e0:	17 00 00 00 
    a3e4:	e9 a4 01 00 00       	jmpq   a58d <func_2+0x16fc>
    a3e9:	48 8d 05 d0 6c 00 00 	lea    0x6cd0(%rip),%rax        # 110c0 <g_215+0x40>
    a3f0:	48 89 85 10 e2 ff ff 	mov    %rax,-0x1df0(%rbp)
    a3f7:	48 c7 85 18 e2 ff ff 	movq   $0x0,-0x1de8(%rbp)
    a3fe:	00 00 00 00 
    a402:	48 c7 85 20 e2 ff ff 	movq   $0x0,-0x1de0(%rbp)
    a409:	00 00 00 00 
    a40d:	48 8d 85 d0 e0 ff ff 	lea    -0x1f30(%rbp),%rax
    a414:	48 89 85 28 e2 ff ff 	mov    %rax,-0x1dd8(%rbp)
    a41b:	c7 85 1c e1 ff ff 06 	movl   $0x6,-0x1ee4(%rbp)
    a422:	00 00 00 
    a425:	48 c7 85 30 e2 ff ff 	movq   $0x0,-0x1dd0(%rbp)
    a42c:	00 00 00 00 
    a430:	48 8d 05 a9 6d 00 00 	lea    0x6da9(%rip),%rax        # 111e0 <g_951+0x10>
    a437:	48 89 85 38 e2 ff ff 	mov    %rax,-0x1dc8(%rbp)
    a43e:	c7 85 20 e1 ff ff 00 	movl   $0x0,-0x1ee0(%rbp)
    a445:	00 00 00 
    a448:	c7 85 24 e1 ff ff 13 	movl   $0x2d8f613,-0x1edc(%rbp)
    a44f:	f6 d8 02 
    a452:	c7 85 28 e1 ff ff d2 	movl   $0x358c10d2,-0x1ed8(%rbp)
    a459:	10 8c 35 
    a45c:	c7 85 60 e4 ff ff 01 	movl   $0x1,-0x1ba0(%rbp)
    a463:	00 00 00 
    a466:	c7 85 64 e4 ff ff 01 	movl   $0x1,-0x1b9c(%rbp)
    a46d:	00 00 00 
    a470:	c7 85 68 e4 ff ff 01 	movl   $0x1,-0x1b98(%rbp)
    a477:	00 00 00 
    a47a:	c7 85 6c e4 ff ff 01 	movl   $0x1,-0x1b94(%rbp)
    a481:	00 00 00 
    a484:	c7 85 70 e4 ff ff 01 	movl   $0x1,-0x1b90(%rbp)
    a48b:	00 00 00 
    a48e:	c7 85 74 e4 ff ff 01 	movl   $0x1,-0x1b8c(%rbp)
    a495:	00 00 00 
    a498:	c7 85 78 e4 ff ff 01 	movl   $0x1,-0x1b88(%rbp)
    a49f:	00 00 00 
    a4a2:	c7 85 7c e4 ff ff 01 	movl   $0x1,-0x1b84(%rbp)
    a4a9:	00 00 00 
    a4ac:	c7 85 80 e4 ff ff 01 	movl   $0x1,-0x1b80(%rbp)
    a4b3:	00 00 00 
    a4b6:	c7 85 84 e4 ff ff 01 	movl   $0x1,-0x1b7c(%rbp)
    a4bd:	00 00 00 
    a4c0:	48 c7 85 a0 e3 ff ff 	movq   $0xfffffffffffffffd,-0x1c60(%rbp)
    a4c7:	fd ff ff ff 
    a4cb:	48 c7 85 a8 e3 ff ff 	movq   $0xfffffffffffffffd,-0x1c58(%rbp)
    a4d2:	fd ff ff ff 
    a4d6:	48 c7 85 b0 e3 ff ff 	movq   $0xfffffffffffffffd,-0x1c50(%rbp)
    a4dd:	fd ff ff ff 
    a4e1:	48 c7 85 b8 e3 ff ff 	movq   $0xfffffffffffffffd,-0x1c48(%rbp)
    a4e8:	fd ff ff ff 
    a4ec:	48 c7 85 c0 e1 ff ff 	movq   $0x0,-0x1e40(%rbp)
    a4f3:	00 00 00 00 
    a4f7:	48 8d 85 c0 e1 ff ff 	lea    -0x1e40(%rbp),%rax
    a4fe:	48 89 85 40 e2 ff ff 	mov    %rax,-0x1dc0(%rbp)
    a505:	48 c7 85 48 e2 ff ff 	movq   $0x0,-0x1db8(%rbp)
    a50c:	00 00 00 00 
    a510:	c7 85 f4 e0 ff ff 00 	movl   $0x0,-0x1f0c(%rbp)
    a517:	00 00 00 
    a51a:	eb 19                	jmp    a535 <func_2+0x16a4>
    a51c:	8b 85 f4 e0 ff ff    	mov    -0x1f0c(%rbp),%eax
    a522:	48 98                	cltq   
    a524:	66 c7 84 45 68 e3 ff 	movw   $0xfffd,-0x1c98(%rbp,%rax,2)
    a52b:	ff fd ff 
    a52e:	83 85 f4 e0 ff ff 01 	addl   $0x1,-0x1f0c(%rbp)
    a535:	83 bd f4 e0 ff ff 01 	cmpl   $0x1,-0x1f0c(%rbp)
    a53c:	7e de                	jle    a51c <func_2+0x168b>
    a53e:	c7 85 f4 e0 ff ff 00 	movl   $0x0,-0x1f0c(%rbp)
    a545:	00 00 00 
    a548:	eb 1a                	jmp    a564 <func_2+0x16d3>
    a54a:	8b 85 f4 e0 ff ff    	mov    -0x1f0c(%rbp),%eax
    a550:	48 98                	cltq   
    a552:	c7 84 85 80 e3 ff ff 	movl   $0x0,-0x1c80(%rbp,%rax,4)
    a559:	00 00 00 00 
    a55d:	83 85 f4 e0 ff ff 01 	addl   $0x1,-0x1f0c(%rbp)
    a564:	83 bd f4 e0 ff ff 01 	cmpl   $0x1,-0x1f0c(%rbp)
    a56b:	7e dd                	jle    a54a <func_2+0x16b9>
    a56d:	48 8b 85 b8 e0 ff ff 	mov    -0x1f48(%rbp),%rax
    a574:	0f b7 c0             	movzwl %ax,%eax
    a577:	be 09 00 00 00       	mov    $0x9,%esi
    a57c:	89 c7                	mov    %eax,%edi
    a57e:	e8 7c d7 ff ff       	callq  7cff <safe_add_func_uint16_t_u_u>
    a583:	0f b7 c0             	movzwl %ax,%eax
    a586:	48 89 85 b8 e0 ff ff 	mov    %rax,-0x1f48(%rbp)
    a58d:	48 8b 85 b8 e0 ff ff 	mov    -0x1f48(%rbp),%rax
    a594:	48 83 f8 30          	cmp    $0x30,%rax
    a598:	0f 86 4b fe ff ff    	jbe    a3e9 <func_2+0x1558>
    a59e:	eb 18                	jmp    a5b8 <func_2+0x1727>
    a5a0:	0f b6 05 c4 98 00 00 	movzbl 0x98c4(%rip),%eax        # 13e6b <g_78>
    a5a7:	84 c0                	test   %al,%al
    a5a9:	0f 94 c2             	sete   %dl
    a5ac:	48 8b 05 45 8d 00 00 	mov    0x8d45(%rip),%rax        # 132f8 <g_131>
    a5b3:	0f b6 d2             	movzbl %dl,%edx
    a5b6:	89 10                	mov    %edx,(%rax)
    a5b8:	48 8b 05 01 8e 00 00 	mov    0x8e01(%rip),%rax        # 133c0 <g_545>
    a5bf:	48 8b 00             	mov    (%rax),%rax
    a5c2:	48 89 85 98 e0 ff ff 	mov    %rax,-0x1f68(%rbp)
    a5c9:	48 8b 85 b8 e0 ff ff 	mov    -0x1f48(%rbp),%rax
    a5d0:	89 85 a0 e0 ff ff    	mov    %eax,-0x1f60(%rbp)
    a5d6:	48 c7 05 f7 8d 00 00 	movq   $0x0,0x8df7(%rip)        # 133d8 <g_604>
    a5dd:	00 00 00 00 
    a5e1:	4c 8b 3d f0 8d 00 00 	mov    0x8df0(%rip),%r15        # 133d8 <g_604>
    a5e8:	0f b7 05 bd 6b 00 00 	movzwl 0x6bbd(%rip),%eax        # 111ac <g_651>
    a5ef:	0f bf d8             	movswl %ax,%ebx
    a5f2:	44 8b a5 a4 e0 ff ff 	mov    -0x1f5c(%rbp),%r12d
    a5f9:	0f b6 05 9e 6b 00 00 	movzbl 0x6b9e(%rip),%eax        # 1119e <g_596+0xe>
    a600:	44 0f be e8          	movsbl %al,%r13d
    a604:	8b 05 32 6a 00 00    	mov    0x6a32(%rip),%eax        # 1103c <g_77+0xc>
    a60a:	44 0f bf f0          	movswl %ax,%r14d
    a60e:	8b 85 fc e0 ff ff    	mov    -0x1f04(%rbp),%eax
    a614:	88 85 94 e0 ff ff    	mov    %al,-0x1f6c(%rbp)
    a61a:	48 8b 05 f7 6a 00 00 	mov    0x6af7(%rip),%rax        # 11118 <g_222>
    a621:	0f be c0             	movsbl %al,%eax
    a624:	89 c6                	mov    %eax,%esi
    a626:	bf 08 00 00 00       	mov    $0x8,%edi
    a62b:	e8 e2 cb ff ff       	callq  7212 <safe_mul_func_int8_t_s_s>
    a630:	0f be c0             	movsbl %al,%eax
    a633:	be 03 00 00 00       	mov    $0x3,%esi
    a638:	89 c7                	mov    %eax,%edi
    a63a:	e8 d3 cb ff ff       	callq  7212 <safe_mul_func_int8_t_s_s>
    a63f:	83 c8 aa             	or     $0xffffffaa,%eax
    a642:	0a 85 94 e0 ff ff    	or     -0x1f6c(%rbp),%al
    a648:	0f b6 c0             	movzbl %al,%eax
    a64b:	89 c7                	mov    %eax,%edi
    a64d:	e8 f3 d4 ff ff       	callq  7b45 <safe_unary_minus_func_uint8_t_u>
    a652:	0f b6 c0             	movzbl %al,%eax
    a655:	0b 85 a4 e0 ff ff    	or     -0x1f5c(%rbp),%eax
    a65b:	89 c2                	mov    %eax,%edx
    a65d:	48 8b 85 b8 e0 ff ff 	mov    -0x1f48(%rbp),%rax
    a664:	48 09 d0             	or     %rdx,%rax
    a667:	48 83 f8 2c          	cmp    $0x2c,%rax
    a66b:	0f 94 c0             	sete   %al
    a66e:	0f b6 c0             	movzbl %al,%eax
    a671:	44 89 f6             	mov    %r14d,%esi
    a674:	89 c7                	mov    %eax,%edi
    a676:	e8 38 cd ff ff       	callq  73b3 <safe_add_func_int16_t_s_s>
    a67b:	0f be c0             	movsbl %al,%eax
    a67e:	44 89 ee             	mov    %r13d,%esi
    a681:	89 c7                	mov    %eax,%edi
    a683:	e8 19 cc ff ff       	callq  72a1 <safe_lshift_func_int8_t_s_s>
    a688:	48 0f be c0          	movsbq %al,%rax
    a68c:	4c 89 e6             	mov    %r12,%rsi
    a68f:	48 89 c7             	mov    %rax,%rdi
    a692:	e8 b4 d9 ff ff       	callq  804b <safe_sub_func_uint64_t_u_u>
    a697:	98                   	cwtl   
    a698:	89 de                	mov    %ebx,%esi
    a69a:	89 c7                	mov    %eax,%edi
    a69c:	e8 12 cd ff ff       	callq  73b3 <safe_add_func_int16_t_s_s>
    a6a1:	48 8b 85 b0 e0 ff ff 	mov    -0x1f50(%rbp),%rax
    a6a8:	48 3b 85 e8 e1 ff ff 	cmp    -0x1e18(%rbp),%rax
    a6af:	48 8b 85 f0 e1 ff ff 	mov    -0x1e10(%rbp),%rax
    a6b6:	48 c7 00 00 00 00 00 	movq   $0x0,(%rax)
    a6bd:	48 8b 85 f0 e1 ff ff 	mov    -0x1e10(%rbp),%rax
    a6c4:	48 8b 00             	mov    (%rax),%rax
    a6c7:	48 89 85 f8 e1 ff ff 	mov    %rax,-0x1e08(%rbp)
    a6ce:	4c 39 bd f8 e1 ff ff 	cmp    %r15,-0x1e08(%rbp)
    a6d5:	0f 95 c0             	setne  %al
    a6d8:	0f b6 d0             	movzbl %al,%edx
    a6db:	48 8b 05 ee 91 00 00 	mov    0x91ee(%rip),%rax        # 138d0 <g_1107>
    a6e2:	0f b7 00             	movzwl (%rax),%eax
    a6e5:	98                   	cwtl   
    a6e6:	31 d0                	xor    %edx,%eax
    a6e8:	48 98                	cltq   
    a6ea:	be 00 00 00 00       	mov    $0x0,%esi
    a6ef:	48 89 c7             	mov    %rax,%rdi
    a6f2:	e8 37 d9 ff ff       	callq  802e <safe_add_func_uint64_t_u_u>
    a6f7:	0f b7 c0             	movzwl %ax,%eax
    a6fa:	8b b5 a0 e0 ff ff    	mov    -0x1f60(%rbp),%esi
    a700:	89 c7                	mov    %eax,%edi
    a702:	e8 73 d7 ff ff       	callq  7e7a <safe_rshift_func_uint16_t_u_u>
    a707:	98                   	cwtl   
    a708:	be 0d 00 00 00       	mov    $0xd,%esi
    a70d:	89 c7                	mov    %eax,%edi
    a70f:	e8 16 ce ff ff       	callq  752a <safe_rshift_func_int16_t_s_s>
    a714:	48 0f bf c0          	movswq %ax,%rax
    a718:	48 39 85 98 e0 ff ff 	cmp    %rax,-0x1f68(%rbp)
    a71f:	0f 95 c0             	setne  %al
    a722:	0f b6 c0             	movzbl %al,%eax
    a725:	48 c7 c6 fc ff ff ff 	mov    $0xfffffffffffffffc,%rsi
    a72c:	48 89 c7             	mov    %rax,%rdi
    a72f:	e8 7b d9 ff ff       	callq  80af <safe_div_func_uint64_t_u_u>
    a734:	48 85 c0             	test   %rax,%rax
    a737:	0f 84 93 01 00 00    	je     a8d0 <func_2+0x1a3f>
    a73d:	48 c7 85 a8 e1 ff ff 	movq   $0x9,-0x1e58(%rbp)
    a744:	09 00 00 00 
    a748:	48 c7 85 38 e3 ff ff 	movq   $0x0,-0x1cc8(%rbp)
    a74f:	00 00 00 00 
    a753:	c7 85 80 e1 ff ff 01 	movl   $0x1,-0x1e80(%rbp)
    a75a:	00 00 00 
    a75d:	48 c7 85 b0 e1 ff ff 	movq   $0x0,-0x1e50(%rbp)
    a764:	00 00 00 00 
    a768:	48 8d 85 b0 e1 ff ff 	lea    -0x1e50(%rbp),%rax
    a76f:	48 89 85 40 e3 ff ff 	mov    %rax,-0x1cc0(%rbp)
    a776:	c7 85 e4 e0 ff ff 00 	movl   $0x0,-0x1f1c(%rbp)
    a77d:	00 00 00 
    a780:	eb 3b                	jmp    a7bd <func_2+0x192c>
    a782:	8b 85 a4 e0 ff ff    	mov    -0x1f5c(%rbp),%eax
    a788:	0f b7 c0             	movzwl %ax,%eax
    a78b:	89 c7                	mov    %eax,%edi
    a78d:	e8 57 d5 ff ff       	callq  7ce9 <safe_unary_minus_func_uint16_t_u>
    a792:	0f b7 d0             	movzwl %ax,%edx
    a795:	48 8b 85 a8 e1 ff ff 	mov    -0x1e58(%rbp),%rax
    a79c:	48 89 d1             	mov    %rdx,%rcx
    a79f:	48 21 c1             	and    %rax,%rcx
    a7a2:	48 8b 05 e7 8b 00 00 	mov    0x8be7(%rip),%rax        # 13390 <g_268>
    a7a9:	8b 10                	mov    (%rax),%edx
    a7ab:	48 8b 05 de 8b 00 00 	mov    0x8bde(%rip),%rax        # 13390 <g_268>
    a7b2:	31 ca                	xor    %ecx,%edx
    a7b4:	89 10                	mov    %edx,(%rax)
    a7b6:	83 85 e4 e0 ff ff 01 	addl   $0x1,-0x1f1c(%rbp)
    a7bd:	83 bd e4 e0 ff ff 06 	cmpl   $0x6,-0x1f1c(%rbp)
    a7c4:	74 bc                	je     a782 <func_2+0x18f1>
    a7c6:	66 c7 05 9b 69 00 00 	movw   $0x0,0x699b(%rip)        # 1116a <g_404>
    a7cd:	00 00 
    a7cf:	e9 b9 00 00 00       	jmpq   a88d <func_2+0x19fc>
    a7d4:	c7 85 84 e1 ff ff a2 	movl   $0x851de2a2,-0x1e7c(%rbp)
    a7db:	e2 1d 85 
    a7de:	48 8d 05 3b 8b 00 00 	lea    0x8b3b(%rip),%rax        # 13320 <g_264>
    a7e5:	48 89 85 48 e3 ff ff 	mov    %rax,-0x1cb8(%rbp)
    a7ec:	48 c7 85 50 e3 ff ff 	movq   $0x0,-0x1cb0(%rbp)
    a7f3:	00 00 00 00 
    a7f7:	48 c7 85 b8 e1 ff ff 	movq   $0x0,-0x1e48(%rbp)
    a7fe:	00 00 00 00 
    a802:	48 8d 85 b8 e1 ff ff 	lea    -0x1e48(%rbp),%rax
    a809:	48 89 85 c0 e1 ff ff 	mov    %rax,-0x1e40(%rbp)
    a810:	48 8d 85 c0 e1 ff ff 	lea    -0x1e40(%rbp),%rax
    a817:	48 89 85 58 e3 ff ff 	mov    %rax,-0x1ca8(%rbp)
    a81e:	be 0f 00 00 00       	mov    $0xf,%esi
    a823:	bf f6 ff 00 00       	mov    $0xfff6,%edi
    a828:	e8 91 d5 ff ff       	callq  7dbe <safe_lshift_func_uint16_t_u_s>
    a82d:	48 8b 85 58 e3 ff ff 	mov    -0x1ca8(%rbp),%rax
    a834:	48 8b 95 48 e3 ff ff 	mov    -0x1cb8(%rbp),%rdx
    a83b:	48 89 10             	mov    %rdx,(%rax)
    a83e:	48 8b 85 b8 e0 ff ff 	mov    -0x1f48(%rbp),%rax
    a845:	89 85 84 e1 ff ff    	mov    %eax,-0x1e7c(%rbp)
    a84b:	48 8b 85 b8 e0 ff ff 	mov    -0x1f48(%rbp),%rax
    a852:	48 83 f8 01          	cmp    $0x1,%rax
    a856:	0f 94 c0             	sete   %al
    a859:	0f b6 c0             	movzbl %al,%eax
    a85c:	be 04 00 00 00       	mov    $0x4,%esi
    a861:	89 c7                	mov    %eax,%edi
    a863:	e8 04 cb ff ff       	callq  736c <safe_rshift_func_int8_t_s_u>
    a868:	c7 85 80 e1 ff ff 00 	movl   $0x0,-0x1e80(%rbp)
    a86f:	00 00 00 
    a872:	0f b7 05 f1 68 00 00 	movzwl 0x68f1(%rip),%eax        # 1116a <g_404>
    a879:	98                   	cwtl   
    a87a:	be 01 00 00 00       	mov    $0x1,%esi
    a87f:	89 c7                	mov    %eax,%edi
    a881:	e8 7f cd ff ff       	callq  7605 <safe_sub_func_int32_t_s_s>
    a886:	66 89 05 dd 68 00 00 	mov    %ax,0x68dd(%rip)        # 1116a <g_404>
    a88d:	0f b7 05 d6 68 00 00 	movzwl 0x68d6(%rip),%eax        # 1116a <g_404>
    a894:	66 83 f8 ee          	cmp    $0xffee,%ax
    a898:	0f 8c 36 ff ff ff    	jl     a7d4 <func_2+0x1943>
    a89e:	48 8b 05 83 91 00 00 	mov    0x9183(%rip),%rax        # 13a28 <g_1180>
    a8a5:	48 89 85 e0 ee ff ff 	mov    %rax,-0x1120(%rbp)
    a8ac:	48 8b 05 45 8a 00 00 	mov    0x8a45(%rip),%rax        # 132f8 <g_131>
    a8b3:	8b 08                	mov    (%rax),%ecx
    a8b5:	48 83 bd 40 e3 ff ff 	cmpq   $0x0,-0x1cc0(%rbp)
    a8bc:	00 
    a8bd:	0f 95 c0             	setne  %al
    a8c0:	0f b6 d0             	movzbl %al,%edx
    a8c3:	48 8b 05 2e 8a 00 00 	mov    0x8a2e(%rip),%rax        # 132f8 <g_131>
    a8ca:	09 ca                	or     %ecx,%edx
    a8cc:	89 10                	mov    %edx,(%rax)
    a8ce:	eb 39                	jmp    a909 <func_2+0x1a78>
    a8d0:	66 c7 85 d0 e0 ff ff 	movw   $0x0,-0x1f30(%rbp)
    a8d7:	00 00 
    a8d9:	90                   	nop
    a8da:	0f b7 85 d0 e0 ff ff 	movzwl -0x1f30(%rbp),%eax
    a8e1:	66 83 f8 e8          	cmp    $0xffe8,%ax
    a8e5:	74 09                	je     a8f0 <func_2+0x1a5f>
    a8e7:	48 8b 85 b0 e0 ff ff 	mov    -0x1f50(%rbp),%rax
    a8ee:	eb 20                	jmp    a910 <func_2+0x1a7f>
    a8f0:	48 8b 85 b0 e0 ff ff 	mov    -0x1f50(%rbp),%rax
    a8f7:	8b 00                	mov    (%rax),%eax
    a8f9:	25 3d db 5b ed       	and    $0xed5bdb3d,%eax
    a8fe:	89 c2                	mov    %eax,%edx
    a900:	48 8b 85 b0 e0 ff ff 	mov    -0x1f50(%rbp),%rax
    a907:	89 10                	mov    %edx,(%rax)
    a909:	48 8b 85 b0 e0 ff ff 	mov    -0x1f50(%rbp),%rax
    a910:	48 8b 5d c8          	mov    -0x38(%rbp),%rbx
    a914:	64 48 33 1c 25 28 00 	xor    %fs:0x28,%rbx
    a91b:	00 00 
    a91d:	74 05                	je     a924 <func_2+0x1a93>
    a91f:	e8 4c c7 ff ff       	callq  7070 <__stack_chk_fail@plt>
    a924:	48 81 c4 48 1f 00 00 	add    $0x1f48,%rsp
    a92b:	5b                   	pop    %rbx
    a92c:	41 5c                	pop    %r12
    a92e:	41 5d                	pop    %r13
    a930:	41 5e                	pop    %r14
    a932:	41 5f                	pop    %r15
    a934:	5d                   	pop    %rbp
    a935:	c3                   	retq   

000000000000a936 <func_7>:
    a936:	f3 0f 1e fa          	endbr64 
    a93a:	55                   	push   %rbp
    a93b:	48 89 e5             	mov    %rsp,%rbp
    a93e:	48 83 ec 30          	sub    $0x30,%rsp
    a942:	48 89 7d e8          	mov    %rdi,-0x18(%rbp)
    a946:	89 75 e4             	mov    %esi,-0x1c(%rbp)
    a949:	48 89 55 d8          	mov    %rdx,-0x28(%rbp)
    a94d:	48 89 4d d0          	mov    %rcx,-0x30(%rbp)
    a951:	44 89 c0             	mov    %r8d,%eax
    a954:	88 45 e0             	mov    %al,-0x20(%rbp)
    a957:	c7 45 f0 05 00 00 00 	movl   $0x5,-0x10(%rbp)
    a95e:	8b 45 f0             	mov    -0x10(%rbp),%eax
    a961:	0f b7 c0             	movzwl %ax,%eax
    a964:	be 06 00 00 00       	mov    $0x6,%esi
    a969:	89 c7                	mov    %eax,%edi
    a96b:	e8 d8 d4 ff ff       	callq  7e48 <safe_rshift_func_uint16_t_u_s>
    a970:	0f b7 d0             	movzwl %ax,%edx
    a973:	48 8b 05 06 8d 00 00 	mov    0x8d06(%rip),%rax        # 13680 <g_642+0xa0>
    a97a:	48 85 c0             	test   %rax,%rax
    a97d:	0f 95 c0             	setne  %al
    a980:	0f b6 c0             	movzbl %al,%eax
    a983:	39 c2                	cmp    %eax,%edx
    a985:	7f 14                	jg     a99b <func_7+0x65>
    a987:	48 b8 9a 0b b3 4a ce 	movabs $0x1d78aece4ab30b9a,%rax
    a98e:	ae 78 1d 
    a991:	48 89 45 f8          	mov    %rax,-0x8(%rbp)
    a995:	48 8b 45 f8          	mov    -0x8(%rbp),%rax
    a999:	eb 0c                	jmp    a9a7 <func_7+0x71>
    a99b:	c7 45 f4 06 00 00 00 	movl   $0x6,-0xc(%rbp)
    a9a2:	8b 45 f4             	mov    -0xc(%rbp),%eax
    a9a5:	48 98                	cltq   
    a9a7:	c9                   	leaveq 
    a9a8:	c3                   	retq   

000000000000a9a9 <func_15>:
    a9a9:	f3 0f 1e fa          	endbr64 
    a9ad:	55                   	push   %rbp
    a9ae:	48 89 e5             	mov    %rsp,%rbp
    a9b1:	41 55                	push   %r13
    a9b3:	41 54                	push   %r12
    a9b5:	53                   	push   %rbx
    a9b6:	48 81 ec 28 04 00 00 	sub    $0x428,%rsp
    a9bd:	89 bd dc fb ff ff    	mov    %edi,-0x424(%rbp)
    a9c3:	89 f0                	mov    %esi,%eax
    a9c5:	48 89 95 d0 fb ff ff 	mov    %rdx,-0x430(%rbp)
    a9cc:	89 8d cc fb ff ff    	mov    %ecx,-0x434(%rbp)
    a9d2:	66 89 85 d8 fb ff ff 	mov    %ax,-0x428(%rbp)
    a9d9:	64 48 8b 04 25 28 00 	mov    %fs:0x28,%rax
    a9e0:	00 00 
    a9e2:	48 89 45 d8          	mov    %rax,-0x28(%rbp)
    a9e6:	31 c0                	xor    %eax,%eax
    a9e8:	48 c7 85 40 fc ff ff 	movq   $0xffffffffffffffff,-0x3c0(%rbp)
    a9ef:	ff ff ff ff 
    a9f3:	48 8d 05 3a 66 00 00 	lea    0x663a(%rip),%rax        # 11034 <g_77+0x4>
    a9fa:	48 89 85 00 fc ff ff 	mov    %rax,-0x400(%rbp)
    aa01:	48 8d 85 00 fc ff ff 	lea    -0x400(%rbp),%rax
    aa08:	48 89 85 08 fc ff ff 	mov    %rax,-0x3f8(%rbp)
    aa0f:	48 8d 85 08 fc ff ff 	lea    -0x3f8(%rbp),%rax
    aa16:	48 89 85 48 fc ff ff 	mov    %rax,-0x3b8(%rbp)
    aa1d:	c7 85 90 fd ff ff 07 	movl   $0x7,-0x270(%rbp)
    aa24:	00 00 00 
    aa27:	c7 85 94 fd ff ff ff 	movl   $0xffffffff,-0x26c(%rbp)
    aa2e:	ff ff ff 
    aa31:	c7 85 98 fd ff ff 05 	movl   $0x5,-0x268(%rbp)
    aa38:	00 00 00 
    aa3b:	c7 85 9c fd ff ff 07 	movl   $0x7,-0x264(%rbp)
    aa42:	00 00 00 
    aa45:	c7 85 a0 fd ff ff ff 	movl   $0xffffffff,-0x260(%rbp)
    aa4c:	ff ff ff 
    aa4f:	c7 85 a4 fd ff ff ff 	movl   $0xffffffff,-0x25c(%rbp)
    aa56:	ff ff ff 
    aa59:	c7 85 a8 fd ff ff ff 	movl   $0xffffffff,-0x258(%rbp)
    aa60:	ff ff ff 
    aa63:	c7 85 ac fd ff ff 07 	movl   $0x7,-0x254(%rbp)
    aa6a:	00 00 00 
    aa6d:	c7 85 b0 fd ff ff 05 	movl   $0x5,-0x250(%rbp)
    aa74:	00 00 00 
    aa77:	c7 85 b4 fd ff ff ff 	movl   $0xffffffff,-0x24c(%rbp)
    aa7e:	ff ff ff 
    aa81:	c7 85 b8 fd ff ff 07 	movl   $0x7,-0x248(%rbp)
    aa88:	00 00 00 
    aa8b:	c7 85 bc fd ff ff ff 	movl   $0xffffffff,-0x244(%rbp)
    aa92:	ff ff ff 
    aa95:	c7 85 c0 fd ff ff 05 	movl   $0x5,-0x240(%rbp)
    aa9c:	00 00 00 
    aa9f:	c7 85 c4 fd ff ff 07 	movl   $0x7,-0x23c(%rbp)
    aaa6:	00 00 00 
    aaa9:	c7 85 c8 fd ff ff ff 	movl   $0xffffffff,-0x238(%rbp)
    aab0:	ff ff ff 
    aab3:	c7 85 cc fd ff ff ff 	movl   $0xffffffff,-0x234(%rbp)
    aaba:	ff ff ff 
    aabd:	c7 85 d0 fd ff ff ff 	movl   $0xffffffff,-0x230(%rbp)
    aac4:	ff ff ff 
    aac7:	c7 85 d4 fd ff ff 07 	movl   $0x7,-0x22c(%rbp)
    aace:	00 00 00 
    aad1:	c7 85 d8 fd ff ff 05 	movl   $0x5,-0x228(%rbp)
    aad8:	00 00 00 
    aadb:	c7 85 dc fd ff ff ff 	movl   $0xffffffff,-0x224(%rbp)
    aae2:	ff ff ff 
    aae5:	c7 85 e0 fd ff ff 07 	movl   $0x7,-0x220(%rbp)
    aaec:	00 00 00 
    aaef:	c7 85 e4 fd ff ff ff 	movl   $0xffffffff,-0x21c(%rbp)
    aaf6:	ff ff ff 
    aaf9:	c7 85 e8 fd ff ff 05 	movl   $0x5,-0x218(%rbp)
    ab00:	00 00 00 
    ab03:	c7 85 ec fd ff ff 07 	movl   $0x7,-0x214(%rbp)
    ab0a:	00 00 00 
    ab0d:	c7 85 f0 fd ff ff ff 	movl   $0xffffffff,-0x210(%rbp)
    ab14:	ff ff ff 
    ab17:	c7 85 f4 fd ff ff ff 	movl   $0xffffffff,-0x20c(%rbp)
    ab1e:	ff ff ff 
    ab21:	c7 85 f8 fd ff ff ff 	movl   $0xffffffff,-0x208(%rbp)
    ab28:	ff ff ff 
    ab2b:	c7 85 fc fd ff ff 07 	movl   $0x7,-0x204(%rbp)
    ab32:	00 00 00 
    ab35:	c7 85 00 fe ff ff 6b 	movl   $0x6daa9e6b,-0x200(%rbp)
    ab3c:	9e aa 6d 
    ab3f:	c7 85 04 fe ff ff ff 	movl   $0xffffffff,-0x1fc(%rbp)
    ab46:	ff ff ff 
    ab49:	c7 85 08 fe ff ff 05 	movl   $0x5,-0x1f8(%rbp)
    ab50:	00 00 00 
    ab53:	c7 85 0c fe ff ff ff 	movl   $0xffffffff,-0x1f4(%rbp)
    ab5a:	ff ff ff 
    ab5d:	c7 85 10 fe ff ff 6b 	movl   $0x6daa9e6b,-0x1f0(%rbp)
    ab64:	9e aa 6d 
    ab67:	c7 85 14 fe ff ff 05 	movl   $0x5,-0x1ec(%rbp)
    ab6e:	00 00 00 
    ab71:	c7 85 18 fe ff ff 07 	movl   $0x7,-0x1e8(%rbp)
    ab78:	00 00 00 
    ab7b:	c7 85 1c fe ff ff 07 	movl   $0x7,-0x1e4(%rbp)
    ab82:	00 00 00 
    ab85:	c7 85 20 fe ff ff 07 	movl   $0x7,-0x1e0(%rbp)
    ab8c:	00 00 00 
    ab8f:	c7 85 24 fe ff ff 05 	movl   $0x5,-0x1dc(%rbp)
    ab96:	00 00 00 
    ab99:	c7 85 28 fe ff ff 6b 	movl   $0x6daa9e6b,-0x1d8(%rbp)
    aba0:	9e aa 6d 
    aba3:	c7 85 2c fe ff ff ff 	movl   $0xffffffff,-0x1d4(%rbp)
    abaa:	ff ff ff 
    abad:	c7 85 30 fe ff ff 05 	movl   $0x5,-0x1d0(%rbp)
    abb4:	00 00 00 
    abb7:	c7 85 34 fe ff ff ff 	movl   $0xffffffff,-0x1cc(%rbp)
    abbe:	ff ff ff 
    abc1:	48 c7 85 50 fc ff ff 	movq   $0x0,-0x3b0(%rbp)
    abc8:	00 00 00 00 
    abcc:	c7 85 f8 fb ff ff fd 	movl   $0xfffffffd,-0x408(%rbp)
    abd3:	ff ff ff 
    abd6:	48 8d 05 c1 65 00 00 	lea    0x65c1(%rip),%rax        # 1119e <g_596+0xe>
    abdd:	48 89 85 58 fc ff ff 	mov    %rax,-0x3a8(%rbp)
    abe4:	48 c7 85 60 fc ff ff 	movq   $0x0,-0x3a0(%rbp)
    abeb:	00 00 00 00 
    abef:	66 c7 85 e2 fb ff ff 	movw   $0x90fa,-0x41e(%rbp)
    abf6:	fa 90 
    abf8:	c7 85 f0 fb ff ff 00 	movl   $0x0,-0x410(%rbp)
    abff:	00 00 00 
    ac02:	eb 1b                	jmp    ac1f <func_15+0x276>
    ac04:	8b 85 f0 fb ff ff    	mov    -0x410(%rbp),%eax
    ac0a:	48 98                	cltq   
    ac0c:	48 c7 84 c5 00 fd ff 	movq   $0x0,-0x300(%rbp,%rax,8)
    ac13:	ff 00 00 00 00 
    ac18:	83 85 f0 fb ff ff 01 	addl   $0x1,-0x410(%rbp)
    ac1f:	83 bd f0 fb ff ff 06 	cmpl   $0x6,-0x410(%rbp)
    ac26:	7e dc                	jle    ac04 <func_15+0x25b>
    ac28:	48 c7 05 3d 92 00 00 	movq   $0xffffffffffffffe2,0x923d(%rip)        # 13e70 <g_224>
    ac2f:	e2 ff ff ff 
    ac33:	e9 7e 0d 00 00       	jmpq   b9b6 <func_15+0x100d>
    ac38:	48 c7 85 10 fc ff ff 	movq   $0x0,-0x3f0(%rbp)
    ac3f:	00 00 00 00 
    ac43:	48 8d 05 46 87 00 00 	lea    0x8746(%rip),%rax        # 13390 <g_268>
    ac4a:	48 89 85 68 fc ff ff 	mov    %rax,-0x398(%rbp)
    ac51:	48 8d 05 12 92 00 00 	lea    0x9212(%rip),%rax        # 13e6a <g_70>
    ac58:	48 89 85 70 fc ff ff 	mov    %rax,-0x390(%rbp)
    ac5f:	48 8d 05 06 92 00 00 	lea    0x9206(%rip),%rax        # 13e6c <g_119>
    ac66:	48 89 85 18 fc ff ff 	mov    %rax,-0x3e8(%rbp)
    ac6d:	48 c7 85 78 fc ff ff 	movq   $0x0,-0x388(%rbp)
    ac74:	00 00 00 00 
    ac78:	48 8d 85 18 fc ff ff 	lea    -0x3e8(%rbp),%rax
    ac7f:	48 89 85 80 fc ff ff 	mov    %rax,-0x380(%rbp)
    ac86:	48 8d 05 dd 91 00 00 	lea    0x91dd(%rip),%rax        # 13e6a <g_70>
    ac8d:	48 89 85 20 fc ff ff 	mov    %rax,-0x3e0(%rbp)
    ac94:	48 8d 85 20 fc ff ff 	lea    -0x3e0(%rbp),%rax
    ac9b:	48 89 85 88 fc ff ff 	mov    %rax,-0x378(%rbp)
    aca2:	48 c7 85 28 fc ff ff 	movq   $0x0,-0x3d8(%rbp)
    aca9:	00 00 00 00 
    acad:	48 8d 85 28 fc ff ff 	lea    -0x3d8(%rbp),%rax
    acb4:	48 89 85 40 fe ff ff 	mov    %rax,-0x1c0(%rbp)
    acbb:	48 8d 85 28 fc ff ff 	lea    -0x3d8(%rbp),%rax
    acc2:	48 89 85 48 fe ff ff 	mov    %rax,-0x1b8(%rbp)
    acc9:	48 8d 85 28 fc ff ff 	lea    -0x3d8(%rbp),%rax
    acd0:	48 89 85 50 fe ff ff 	mov    %rax,-0x1b0(%rbp)
    acd7:	48 8d 85 28 fc ff ff 	lea    -0x3d8(%rbp),%rax
    acde:	48 89 85 58 fe ff ff 	mov    %rax,-0x1a8(%rbp)
    ace5:	48 8d 85 28 fc ff ff 	lea    -0x3d8(%rbp),%rax
    acec:	48 89 85 60 fe ff ff 	mov    %rax,-0x1a0(%rbp)
    acf3:	48 8d 85 28 fc ff ff 	lea    -0x3d8(%rbp),%rax
    acfa:	48 89 85 68 fe ff ff 	mov    %rax,-0x198(%rbp)
    ad01:	48 8d 85 28 fc ff ff 	lea    -0x3d8(%rbp),%rax
    ad08:	48 89 85 70 fe ff ff 	mov    %rax,-0x190(%rbp)
    ad0f:	48 8d 85 28 fc ff ff 	lea    -0x3d8(%rbp),%rax
    ad16:	48 89 85 78 fe ff ff 	mov    %rax,-0x188(%rbp)
    ad1d:	48 8d 85 28 fc ff ff 	lea    -0x3d8(%rbp),%rax
    ad24:	48 89 85 80 fe ff ff 	mov    %rax,-0x180(%rbp)
    ad2b:	48 8d 85 28 fc ff ff 	lea    -0x3d8(%rbp),%rax
    ad32:	48 89 85 88 fe ff ff 	mov    %rax,-0x178(%rbp)
    ad39:	48 8d 85 28 fc ff ff 	lea    -0x3d8(%rbp),%rax
    ad40:	48 89 85 90 fe ff ff 	mov    %rax,-0x170(%rbp)
    ad47:	48 8d 85 28 fc ff ff 	lea    -0x3d8(%rbp),%rax
    ad4e:	48 89 85 98 fe ff ff 	mov    %rax,-0x168(%rbp)
    ad55:	48 8d 85 28 fc ff ff 	lea    -0x3d8(%rbp),%rax
    ad5c:	48 89 85 a0 fe ff ff 	mov    %rax,-0x160(%rbp)
    ad63:	48 8d 85 28 fc ff ff 	lea    -0x3d8(%rbp),%rax
    ad6a:	48 89 85 a8 fe ff ff 	mov    %rax,-0x158(%rbp)
    ad71:	48 8d 85 28 fc ff ff 	lea    -0x3d8(%rbp),%rax
    ad78:	48 89 85 b0 fe ff ff 	mov    %rax,-0x150(%rbp)
    ad7f:	48 8d 85 28 fc ff ff 	lea    -0x3d8(%rbp),%rax
    ad86:	48 89 85 b8 fe ff ff 	mov    %rax,-0x148(%rbp)
    ad8d:	48 8d 85 28 fc ff ff 	lea    -0x3d8(%rbp),%rax
    ad94:	48 89 85 c0 fe ff ff 	mov    %rax,-0x140(%rbp)
    ad9b:	48 8d 85 28 fc ff ff 	lea    -0x3d8(%rbp),%rax
    ada2:	48 89 85 c8 fe ff ff 	mov    %rax,-0x138(%rbp)
    ada9:	48 8d 85 28 fc ff ff 	lea    -0x3d8(%rbp),%rax
    adb0:	48 89 85 d0 fe ff ff 	mov    %rax,-0x130(%rbp)
    adb7:	48 8d 85 28 fc ff ff 	lea    -0x3d8(%rbp),%rax
    adbe:	48 89 85 d8 fe ff ff 	mov    %rax,-0x128(%rbp)
    adc5:	48 8d 85 28 fc ff ff 	lea    -0x3d8(%rbp),%rax
    adcc:	48 89 85 e0 fe ff ff 	mov    %rax,-0x120(%rbp)
    add3:	48 8d 05 91 90 00 00 	lea    0x9091(%rip),%rax        # 13e6b <g_78>
    adda:	48 89 85 90 fc ff ff 	mov    %rax,-0x370(%rbp)
    ade1:	c7 85 f4 fb ff ff 00 	movl   $0x0,-0x40c(%rbp)
    ade8:	00 00 00 
    adeb:	eb 1b                	jmp    ae08 <func_15+0x45f>
    aded:	8b 85 f4 fb ff ff    	mov    -0x40c(%rbp),%eax
    adf3:	48 98                	cltq   
    adf5:	48 c7 84 c5 40 fd ff 	movq   $0x0,-0x2c0(%rbp,%rax,8)
    adfc:	ff 00 00 00 00 
    ae01:	83 85 f4 fb ff ff 01 	addl   $0x1,-0x40c(%rbp)
    ae08:	83 bd f4 fb ff ff 09 	cmpl   $0x9,-0x40c(%rbp)
    ae0f:	7e dc                	jle    aded <func_15+0x444>
    ae11:	48 8b 05 d8 84 00 00 	mov    0x84d8(%rip),%rax        # 132f0 <g_92>
    ae18:	48 8b 95 d0 fb ff ff 	mov    -0x430(%rbp),%rdx
    ae1f:	48 89 10             	mov    %rdx,(%rax)
    ae22:	48 8b 10             	mov    (%rax),%rdx
    ae25:	48 8b 85 68 fc ff ff 	mov    -0x398(%rbp),%rax
    ae2c:	48 89 10             	mov    %rdx,(%rax)
    ae2f:	48 8b 85 d0 fb ff ff 	mov    -0x430(%rbp),%rax
    ae36:	8b 00                	mov    (%rax),%eax
    ae38:	41 89 c4             	mov    %eax,%r12d
    ae3b:	48 8b 85 40 fc ff ff 	mov    -0x3c0(%rbp),%rax
    ae42:	41 89 c5             	mov    %eax,%r13d
    ae45:	48 8b 85 40 fc ff ff 	mov    -0x3c0(%rbp),%rax
    ae4c:	0f b6 d8             	movzbl %al,%ebx
    ae4f:	0f b6 05 ca 62 00 00 	movzbl 0x62ca(%rip),%eax        # 11120 <g_249>
    ae56:	0f be d0             	movsbl %al,%edx
    ae59:	48 8b 05 98 84 00 00 	mov    0x8498(%rip),%rax        # 132f8 <g_131>
    ae60:	8b 08                	mov    (%rax),%ecx
    ae62:	48 8b 05 8f 84 00 00 	mov    0x848f(%rip),%rax        # 132f8 <g_131>
    ae69:	83 f1 06             	xor    $0x6,%ecx
    ae6c:	89 08                	mov    %ecx,(%rax)
    ae6e:	8b 00                	mov    (%rax),%eax
    ae70:	89 d6                	mov    %edx,%esi
    ae72:	89 c7                	mov    %eax,%edi
    ae74:	e8 86 c8 ff ff       	callq  76ff <safe_div_func_int32_t_s_s>
    ae79:	85 c0                	test   %eax,%eax
    ae7b:	75 25                	jne    aea2 <func_15+0x4f9>
    ae7d:	48 8b 8d 60 fd ff ff 	mov    -0x2a0(%rbp),%rcx
    ae84:	48 8b 95 18 fc ff ff 	mov    -0x3e8(%rbp),%rdx
    ae8b:	48 8b 85 80 fc ff ff 	mov    -0x380(%rbp),%rax
    ae92:	48 89 10             	mov    %rdx,(%rax)
    ae95:	48 8b 85 80 fc ff ff 	mov    -0x380(%rbp),%rax
    ae9c:	48 8b 00             	mov    (%rax),%rax
    ae9f:	48 39 c1             	cmp    %rax,%rcx
    aea2:	0f b7 05 bf 8f 00 00 	movzwl 0x8fbf(%rip),%eax        # 13e68 <g_38>
    aea9:	0f b6 c0             	movzbl %al,%eax
    aeac:	be 00 00 00 00       	mov    $0x0,%esi
    aeb1:	89 c7                	mov    %eax,%edi
    aeb3:	e8 94 cd ff ff       	callq  7c4c <safe_lshift_func_uint8_t_u_u>
    aeb8:	0f b6 c0             	movzbl %al,%eax
    aebb:	48 89 c7             	mov    %rax,%rdi
    aebe:	e8 56 d1 ff ff       	callq  8019 <safe_unary_minus_func_uint64_t_u>
    aec3:	0f be c0             	movsbl %al,%eax
    aec6:	89 c6                	mov    %eax,%esi
    aec8:	bf e5 ff ff ff       	mov    $0xffffffe5,%edi
    aecd:	e8 5f c3 ff ff       	callq  7231 <safe_mod_func_int8_t_s_s>
    aed2:	48 8b 85 88 fc ff ff 	mov    -0x378(%rbp),%rax
    aed9:	48 8d 15 70 61 00 00 	lea    0x6170(%rip),%rdx        # 11050 <g_156>
    aee0:	48 89 10             	mov    %rdx,(%rax)
    aee3:	48 8b 85 88 fc ff ff 	mov    -0x378(%rbp),%rax
    aeea:	48 8b 00             	mov    (%rax),%rax
    aeed:	48 39 85 70 fc ff ff 	cmp    %rax,-0x390(%rbp)
    aef4:	75 08                	jne    aefe <func_15+0x555>
    aef6:	66 83 bd d8 fb ff ff 	cmpw   $0x0,-0x428(%rbp)
    aefd:	00 
    aefe:	89 de                	mov    %ebx,%esi
    af00:	bf 01 00 00 00       	mov    $0x1,%edi
    af05:	e8 89 cc ff ff       	callq  7b93 <safe_mul_func_uint8_t_u_u>
    af0a:	84 c0                	test   %al,%al
    af0c:	75 07                	jne    af15 <func_15+0x56c>
    af0e:	83 bd cc fb ff ff 00 	cmpl   $0x0,-0x434(%rbp)
    af15:	be 00 00 00 00       	mov    $0x0,%esi
    af1a:	bf e0 00 00 00       	mov    $0xe0,%edi
    af1f:	e8 28 cd ff ff       	callq  7c4c <safe_lshift_func_uint8_t_u_u>
    af24:	0f be c0             	movsbl %al,%eax
    af27:	44 89 ee             	mov    %r13d,%esi
    af2a:	89 c7                	mov    %eax,%edi
    af2c:	e8 70 c3 ff ff       	callq  72a1 <safe_lshift_func_int8_t_s_s>
    af31:	8b 05 49 62 00 00    	mov    0x6249(%rip),%eax        # 11180 <g_479>
    af37:	83 c8 01             	or     $0x1,%eax
    af3a:	44 89 e6             	mov    %r12d,%esi
    af3d:	89 c7                	mov    %eax,%edi
    af3f:	e8 74 cf ff ff       	callq  7eb8 <safe_add_func_uint32_t_u_u>
    af44:	85 c0                	test   %eax,%eax
    af46:	0f 84 4e 0a 00 00    	je     b99a <func_15+0xff1>
    af4c:	48 8d 85 10 fc ff ff 	lea    -0x3f0(%rbp),%rax
    af53:	48 89 85 98 fc ff ff 	mov    %rax,-0x368(%rbp)
    af5a:	48 8d 05 15 62 00 00 	lea    0x6215(%rip),%rax        # 11176 <g_405+0x6>
    af61:	48 89 85 a0 fc ff ff 	mov    %rax,-0x360(%rbp)
    af68:	c6 85 e0 fb ff ff f6 	movb   $0xf6,-0x420(%rbp)
    af6f:	48 8d 05 aa 83 00 00 	lea    0x83aa(%rip),%rax        # 13320 <g_264>
    af76:	48 89 85 a8 fc ff ff 	mov    %rax,-0x358(%rbp)
    af7d:	c7 85 e8 fb ff ff 06 	movl   $0x75954106,-0x418(%rbp)
    af84:	41 95 75 
    af87:	66 c7 85 e4 fb ff ff 	movw   $0xa11c,-0x41c(%rbp)
    af8e:	1c a1 
    af90:	48 8b 85 98 fc ff ff 	mov    -0x368(%rbp),%rax
    af97:	48 3b 85 48 fc ff ff 	cmp    -0x3b8(%rbp),%rax
    af9e:	0f 84 1e 01 00 00    	je     b0c2 <func_15+0x719>
    afa4:	48 8b 85 68 fc ff ff 	mov    -0x398(%rbp),%rax
    afab:	48 8b 00             	mov    (%rax),%rax
    afae:	8b 00                	mov    (%rax),%eax
    afb0:	48 63 d8             	movslq %eax,%rbx
    afb3:	44 8b a5 dc fb ff ff 	mov    -0x424(%rbp),%r12d
    afba:	be 03 00 00 00       	mov    $0x3,%esi
    afbf:	bf f7 ff ff ff       	mov    $0xfffffff7,%edi
    afc4:	e8 d8 c2 ff ff       	callq  72a1 <safe_lshift_func_int8_t_s_s>
    afc9:	66 0f be d0          	movsbw %al,%dx
    afcd:	48 8b 85 a0 fc ff ff 	mov    -0x360(%rbp),%rax
    afd4:	66 89 10             	mov    %dx,(%rax)
    afd7:	48 8b 85 a0 fc ff ff 	mov    -0x360(%rbp),%rax
    afde:	0f b7 00             	movzwl (%rax),%eax
    afe1:	0f b7 c0             	movzwl %ax,%eax
    afe4:	be 3c 32 00 00       	mov    $0x323c,%esi
    afe9:	89 c7                	mov    %eax,%edi
    afeb:	e8 0f cd ff ff       	callq  7cff <safe_add_func_uint16_t_u_u>
    aff0:	4c 89 e6             	mov    %r12,%rsi
    aff3:	48 c7 c7 fe ff ff ff 	mov    $0xfffffffffffffffe,%rdi
    affa:	e8 42 c8 ff ff       	callq  7841 <safe_add_func_int64_t_s_s>
    afff:	48 89 c1             	mov    %rax,%rcx
    b002:	48 8d 05 8f 83 00 00 	lea    0x838f(%rip),%rax        # 13398 <g_275>
    b009:	48 89 05 a8 83 00 00 	mov    %rax,0x83a8(%rip)        # 133b8 <g_522>
    b010:	48 8b 85 90 fe ff ff 	mov    -0x170(%rbp),%rax
    b017:	48 8d 15 7a 83 00 00 	lea    0x837a(%rip),%rdx        # 13398 <g_275>
    b01e:	48 39 d0             	cmp    %rdx,%rax
    b021:	0f 94 c0             	sete   %al
    b024:	0f b6 c0             	movzbl %al,%eax
    b027:	48 89 ce             	mov    %rcx,%rsi
    b02a:	48 89 c7             	mov    %rax,%rdi
    b02d:	e8 7d d0 ff ff       	callq  80af <safe_div_func_uint64_t_u_u>
    b032:	98                   	cwtl   
    b033:	be 01 00 00 00       	mov    $0x1,%esi
    b038:	89 c7                	mov    %eax,%edi
    b03a:	e8 24 c5 ff ff       	callq  7563 <safe_rshift_func_int16_t_s_u>
    b03f:	89 c2                	mov    %eax,%edx
    b041:	48 8b 05 60 83 00 00 	mov    0x8360(%rip),%rax        # 133a8 <g_525>
    b048:	48 8b 00             	mov    (%rax),%rax
    b04b:	48 0f bf d2          	movswq %dx,%rdx
    b04f:	48 89 10             	mov    %rdx,(%rax)
    b052:	48 8b 10             	mov    (%rax),%rdx
    b055:	8b 85 cc fb ff ff    	mov    -0x434(%rbp),%eax
    b05b:	48 98                	cltq   
    b05d:	48 31 d0             	xor    %rdx,%rax
    b060:	48 83 f8 59          	cmp    $0x59,%rax
    b064:	0f 9f c0             	setg   %al
    b067:	0f b6 d0             	movzbl %al,%edx
    b06a:	8b 85 dc fb ff ff    	mov    -0x424(%rbp),%eax
    b070:	0f b6 c0             	movzbl %al,%eax
    b073:	89 d6                	mov    %edx,%esi
    b075:	89 c7                	mov    %eax,%edi
    b077:	e8 fc ca ff ff       	callq  7b78 <safe_sub_func_uint8_t_u_u>
    b07c:	0f b6 d0             	movzbl %al,%edx
    b07f:	8b 05 e7 8d 00 00    	mov    0x8de7(%rip),%eax        # 13e6c <g_119>
    b085:	39 c2                	cmp    %eax,%edx
    b087:	0f 9e c0             	setle  %al
    b08a:	0f b6 d0             	movzbl %al,%edx
    b08d:	8b 85 94 fd ff ff    	mov    -0x26c(%rbp),%eax
    b093:	39 c2                	cmp    %eax,%edx
    b095:	0f 97 c0             	seta   %al
    b098:	0f b6 c0             	movzbl %al,%eax
    b09b:	be 06 00 00 00       	mov    $0x6,%esi
    b0a0:	89 c7                	mov    %eax,%edi
    b0a2:	e8 c5 c2 ff ff       	callq  736c <safe_rshift_func_int8_t_s_u>
    b0a7:	48 89 de             	mov    %rbx,%rsi
    b0aa:	48 c7 c7 ff ff ff ff 	mov    $0xffffffffffffffff,%rdi
    b0b1:	e8 ca cf ff ff       	callq  8080 <safe_mod_func_uint64_t_u_u>
    b0b6:	48 85 c0             	test   %rax,%rax
    b0b9:	74 07                	je     b0c2 <func_15+0x719>
    b0bb:	ba 01 00 00 00       	mov    $0x1,%edx
    b0c0:	eb 05                	jmp    b0c7 <func_15+0x71e>
    b0c2:	ba 00 00 00 00       	mov    $0x0,%edx
    b0c7:	48 8b 05 2a 82 00 00 	mov    0x822a(%rip),%rax        # 132f8 <g_131>
    b0ce:	89 10                	mov    %edx,(%rax)
    b0d0:	48 8b 15 39 82 00 00 	mov    0x8239(%rip),%rdx        # 13310 <g_132>
    b0d7:	48 8b 85 08 fc ff ff 	mov    -0x3f8(%rbp),%rax
    b0de:	48 8b 12             	mov    (%rdx),%rdx
    b0e1:	48 89 10             	mov    %rdx,(%rax)
    b0e4:	66 c7 05 7b 8d 00 00 	movw   $0x0,0x8d7b(%rip)        # 13e68 <g_38>
    b0eb:	00 00 
    b0ed:	e9 80 08 00 00       	jmpq   b972 <func_15+0xfc9>
    b0f2:	48 8d 05 2f 60 00 00 	lea    0x602f(%rip),%rax        # 11128 <g_253>
    b0f9:	48 89 85 30 fc ff ff 	mov    %rax,-0x3d0(%rbp)
    b100:	48 8d 85 30 fc ff ff 	lea    -0x3d0(%rbp),%rax
    b107:	48 89 85 b0 fc ff ff 	mov    %rax,-0x350(%rbp)
    b10e:	66 c7 85 e6 fb ff ff 	movw   $0x1,-0x41a(%rbp)
    b115:	01 00 
    b117:	48 c7 85 b8 fc ff ff 	movq   $0x0,-0x348(%rbp)
    b11e:	00 00 00 00 
    b122:	48 8b 05 a7 82 00 00 	mov    0x82a7(%rip),%rax        # 133d0 <g_543>
    b129:	48 8b 95 b0 fc ff ff 	mov    -0x350(%rbp),%rdx
    b130:	48 89 10             	mov    %rdx,(%rax)
    b133:	66 c7 05 2e 60 00 00 	movw   $0x0,0x602e(%rip)        # 1116a <g_404>
    b13a:	00 00 
    b13c:	e9 72 01 00 00       	jmpq   b2b3 <func_15+0x90a>
    b141:	c6 85 e1 fb ff ff 18 	movb   $0x18,-0x41f(%rbp)
    b148:	c7 85 ec fb ff ff 01 	movl   $0x1,-0x414(%rbp)
    b14f:	00 00 00 
    b152:	c6 05 c7 5f 00 00 05 	movb   $0x5,0x5fc7(%rip)        # 11120 <g_249>
    b159:	e9 32 01 00 00       	jmpq   b290 <func_15+0x8e7>
    b15e:	0f b6 05 bb 5f 00 00 	movzbl 0x5fbb(%rip),%eax        # 11120 <g_249>
    b165:	0f be c0             	movsbl %al,%eax
    b168:	48 98                	cltq   
    b16a:	48 8d 14 85 00 00 00 	lea    0x0(,%rax,4),%rdx
    b171:	00 
    b172:	48 8d 05 b7 5f 00 00 	lea    0x5fb7(%rip),%rax        # 11130 <g_254>
    b179:	44 8b 2c 02          	mov    (%rdx,%rax,1),%r13d
    b17d:	0f b6 9d e1 fb ff ff 	movzbl -0x41f(%rbp),%ebx
    b184:	48 8b 85 00 fc ff ff 	mov    -0x400(%rbp),%rax
    b18b:	44 8b 20             	mov    (%rax),%r12d
    b18e:	0f b6 05 d5 8c 00 00 	movzbl 0x8cd5(%rip),%eax        # 13e6a <g_70>
    b195:	0f b6 c0             	movzbl %al,%eax
    b198:	39 85 dc fb ff ff    	cmp    %eax,-0x424(%rbp)
    b19e:	0f 93 c0             	setae  %al
    b1a1:	0f b6 c0             	movzbl %al,%eax
    b1a4:	be 00 00 00 00       	mov    $0x0,%esi
    b1a9:	89 c7                	mov    %eax,%edi
    b1ab:	e8 55 ca ff ff       	callq  7c05 <safe_lshift_func_uint8_t_u_s>
    b1b0:	0f b6 d0             	movzbl %al,%edx
    b1b3:	48 8b 8d 10 fd ff ff 	mov    -0x2f0(%rbp),%rcx
    b1ba:	48 8d 85 18 fc ff ff 	lea    -0x3e8(%rbp),%rax
    b1c1:	48 39 c1             	cmp    %rax,%rcx
    b1c4:	0f 95 c0             	setne  %al
    b1c7:	0f b6 c0             	movzbl %al,%eax
    b1ca:	89 d6                	mov    %edx,%esi
    b1cc:	89 c7                	mov    %eax,%edi
    b1ce:	e8 ba ca ff ff       	callq  7c8d <safe_rshift_func_uint8_t_u_s>
    b1d3:	0f b6 d0             	movzbl %al,%edx
    b1d6:	0f b6 05 8e 8c 00 00 	movzbl 0x8c8e(%rip),%eax        # 13e6b <g_78>
    b1dd:	0f be c0             	movsbl %al,%eax
    b1e0:	39 c2                	cmp    %eax,%edx
    b1e2:	0f 9f c0             	setg   %al
    b1e5:	0f b6 c0             	movzbl %al,%eax
    b1e8:	0f b6 8d e1 fb ff ff 	movzbl -0x41f(%rbp),%ecx
    b1ef:	0f bf 95 e6 fb ff ff 	movswl -0x41a(%rbp),%edx
    b1f6:	31 ca                	xor    %ecx,%edx
    b1f8:	39 d0                	cmp    %edx,%eax
    b1fa:	7f 10                	jg     b20c <func_15+0x863>
    b1fc:	83 bd cc fb ff ff 00 	cmpl   $0x0,-0x434(%rbp)
    b203:	74 07                	je     b20c <func_15+0x863>
    b205:	b8 01 00 00 00       	mov    $0x1,%eax
    b20a:	eb 05                	jmp    b211 <func_15+0x868>
    b20c:	b8 00 00 00 00       	mov    $0x0,%eax
    b211:	98                   	cwtl   
    b212:	be 0c 00 00 00       	mov    $0xc,%esi
    b217:	89 c7                	mov    %eax,%edi
    b219:	e8 74 c2 ff ff       	callq  7492 <safe_lshift_func_int16_t_s_s>
    b21e:	0f bf d0             	movswl %ax,%edx
    b221:	0f b7 05 48 5f 00 00 	movzwl 0x5f48(%rip),%eax        # 11170 <g_405>
    b228:	0f b7 c0             	movzwl %ax,%eax
    b22b:	39 c2                	cmp    %eax,%edx
    b22d:	0f 9f c0             	setg   %al
    b230:	0f b6 c0             	movzbl %al,%eax
    b233:	44 89 e6             	mov    %r12d,%esi
    b236:	89 c7                	mov    %eax,%edi
    b238:	e8 64 c0 ff ff       	callq  72a1 <safe_lshift_func_int8_t_s_s>
    b23d:	0f be c0             	movsbl %al,%eax
    b240:	89 de                	mov    %ebx,%esi
    b242:	89 c7                	mov    %eax,%edi
    b244:	e8 0c c2 ff ff       	callq  7455 <safe_div_func_int16_t_s_s>
    b249:	ba 00 00 00 00       	mov    $0x0,%edx
    b24e:	0f bf 85 d8 fb ff ff 	movswl -0x428(%rbp),%eax
    b255:	39 c2                	cmp    %eax,%edx
    b257:	0f 95 c0             	setne  %al
    b25a:	0f b6 c0             	movzbl %al,%eax
    b25d:	44 89 ea             	mov    %r13d,%edx
    b260:	21 c2                	and    %eax,%edx
    b262:	8b 85 ec fb ff ff    	mov    -0x414(%rbp),%eax
    b268:	09 d0                	or     %edx,%eax
    b26a:	89 85 ec fb ff ff    	mov    %eax,-0x414(%rbp)
    b270:	48 8b 05 99 80 00 00 	mov    0x8099(%rip),%rax        # 13310 <g_132>
    b277:	48 8b 00             	mov    (%rax),%rax
    b27a:	8b 00                	mov    (%rax),%eax
    b27c:	85 c0                	test   %eax,%eax
    b27e:	75 21                	jne    b2a1 <func_15+0x8f8>
    b280:	0f b6 05 99 5e 00 00 	movzbl 0x5e99(%rip),%eax        # 11120 <g_249>
    b287:	83 e8 01             	sub    $0x1,%eax
    b28a:	88 05 90 5e 00 00    	mov    %al,0x5e90(%rip)        # 11120 <g_249>
    b290:	0f b6 05 89 5e 00 00 	movzbl 0x5e89(%rip),%eax        # 11120 <g_249>
    b297:	84 c0                	test   %al,%al
    b299:	0f 8f bf fe ff ff    	jg     b15e <func_15+0x7b5>
    b29f:	eb 01                	jmp    b2a2 <func_15+0x8f9>
    b2a1:	90                   	nop
    b2a2:	0f b7 05 c1 5e 00 00 	movzwl 0x5ec1(%rip),%eax        # 1116a <g_404>
    b2a9:	83 e8 01             	sub    $0x1,%eax
    b2ac:	66 89 05 b7 5e 00 00 	mov    %ax,0x5eb7(%rip)        # 1116a <g_404>
    b2b3:	0f b7 05 b0 5e 00 00 	movzwl 0x5eb0(%rip),%eax        # 1116a <g_404>
    b2ba:	66 83 f8 ee          	cmp    $0xffee,%ax
    b2be:	0f 8d 7d fe ff ff    	jge    b141 <func_15+0x798>
    b2c4:	66 c7 85 e6 fb ff ff 	movw   $0x9,-0x41a(%rbp)
    b2cb:	09 00 
    b2cd:	66 83 bd e6 fb ff ff 	cmpw   $0x0,-0x41a(%rbp)
    b2d4:	00 
    b2d5:	0f 88 6b 06 00 00    	js     b946 <func_15+0xf9d>
    b2db:	c7 85 e0 fc ff ff ff 	movl   $0xffffffff,-0x320(%rbp)
    b2e2:	ff ff ff 
    b2e5:	c7 85 e4 fc ff ff 00 	movl   $0x0,-0x31c(%rbp)
    b2ec:	00 00 00 
    b2ef:	c7 85 e8 fc ff ff 00 	movl   $0x0,-0x318(%rbp)
    b2f6:	00 00 00 
    b2f9:	c7 85 ec fc ff ff ff 	movl   $0xffffffff,-0x314(%rbp)
    b300:	ff ff ff 
    b303:	c7 85 f0 fc ff ff 00 	movl   $0x0,-0x310(%rbp)
    b30a:	00 00 00 
    b30d:	c7 85 f4 fc ff ff 00 	movl   $0x0,-0x30c(%rbp)
    b314:	00 00 00 
    b317:	48 8d 05 f2 5d 00 00 	lea    0x5df2(%rip),%rax        # 11110 <g_218>
    b31e:	48 89 85 c0 fc ff ff 	mov    %rax,-0x340(%rbp)
    b325:	c7 05 51 5e 00 00 01 	movl   $0x1,0x5e51(%rip)        # 11180 <g_479>
    b32c:	00 00 00 
    b32f:	eb 34                	jmp    b365 <func_15+0x9bc>
    b331:	c7 85 fc fb ff ff 9a 	movl   $0xa8c9bf9a,-0x404(%rbp)
    b338:	bf c9 a8 
    b33b:	83 bd fc fb ff ff 00 	cmpl   $0x0,-0x404(%rbp)
    b342:	75 2d                	jne    b371 <func_15+0x9c8>
    b344:	48 8b 15 cd 7f 00 00 	mov    0x7fcd(%rip),%rdx        # 13318 <g_180>
    b34b:	48 8b 05 a6 7f 00 00 	mov    0x7fa6(%rip),%rax        # 132f8 <g_131>
    b352:	8b 12                	mov    (%rdx),%edx
    b354:	89 10                	mov    %edx,(%rax)
    b356:	8b 05 24 5e 00 00    	mov    0x5e24(%rip),%eax        # 11180 <g_479>
    b35c:	83 e8 01             	sub    $0x1,%eax
    b35f:	89 05 1b 5e 00 00    	mov    %eax,0x5e1b(%rip)        # 11180 <g_479>
    b365:	8b 05 15 5e 00 00    	mov    0x5e15(%rip),%eax        # 11180 <g_479>
    b36b:	85 c0                	test   %eax,%eax
    b36d:	79 c2                	jns    b331 <func_15+0x988>
    b36f:	eb 01                	jmp    b372 <func_15+0x9c9>
    b371:	90                   	nop
    b372:	8b 05 e8 5c 00 00    	mov    0x5ce8(%rip),%eax        # 11060 <g_178>
    b378:	0f bf d8             	movswl %ax,%ebx
    b37b:	0f b6 05 e8 8a 00 00 	movzbl 0x8ae8(%rip),%eax        # 13e6a <g_70>
    b382:	84 c0                	test   %al,%al
    b384:	0f 85 f9 00 00 00    	jne    b483 <func_15+0xada>
    b38a:	0f b7 85 d8 fb ff ff 	movzwl -0x428(%rbp),%eax
    b391:	44 0f b6 e0          	movzbl %al,%r12d
    b395:	48 8b 85 48 fc ff ff 	mov    -0x3b8(%rbp),%rax
    b39c:	48 8b 00             	mov    (%rax),%rax
    b39f:	48 8b 00             	mov    (%rax),%rax
    b3a2:	8b 00                	mov    (%rax),%eax
    b3a4:	48 98                	cltq   
    b3a6:	48 89 c6             	mov    %rax,%rsi
    b3a9:	48 bf 80 20 4b 5a 4d 	movabs $0x481c3b4d5a4b2080,%rdi
    b3b0:	3b 1c 48 
    b3b3:	e8 f7 cc ff ff       	callq  80af <safe_div_func_uint64_t_u_u>
    b3b8:	49 89 c5             	mov    %rax,%r13
    b3bb:	48 83 bd 90 fc ff ff 	cmpq   $0x0,-0x370(%rbp)
    b3c2:	00 
    b3c3:	0f 95 c0             	setne  %al
    b3c6:	0f b6 c0             	movzbl %al,%eax
    b3c9:	f7 d0                	not    %eax
    b3cb:	89 c2                	mov    %eax,%edx
    b3cd:	48 8b 85 08 fc ff ff 	mov    -0x3f8(%rbp),%rax
    b3d4:	48 8b 00             	mov    (%rax),%rax
    b3d7:	8b 00                	mov    (%rax),%eax
    b3d9:	39 c2                	cmp    %eax,%edx
    b3db:	0f 9e c0             	setle  %al
    b3de:	0f b6 c0             	movzbl %al,%eax
    b3e1:	8b 95 cc fb ff ff    	mov    -0x434(%rbp),%edx
    b3e7:	89 d6                	mov    %edx,%esi
    b3e9:	89 c7                	mov    %eax,%edi
    b3eb:	e8 a2 c0 ff ff       	callq  7492 <safe_lshift_func_int16_t_s_s>
    b3f0:	66 85 c0             	test   %ax,%ax
    b3f3:	75 0a                	jne    b3ff <func_15+0xa56>
    b3f5:	8b 85 f4 fc ff ff    	mov    -0x30c(%rbp),%eax
    b3fb:	85 c0                	test   %eax,%eax
    b3fd:	74 07                	je     b406 <func_15+0xa5d>
    b3ff:	b8 01 00 00 00       	mov    $0x1,%eax
    b404:	eb 05                	jmp    b40b <func_15+0xa62>
    b406:	b8 00 00 00 00       	mov    $0x0,%eax
    b40b:	48 98                	cltq   
    b40d:	4c 31 e8             	xor    %r13,%rax
    b410:	48 be 28 af 1b 65 69 	movabs $0x6cccde69651baf28,%rsi
    b417:	de cc 6c 
    b41a:	48 89 c7             	mov    %rax,%rdi
    b41d:	e8 1f c4 ff ff       	callq  7841 <safe_add_func_int64_t_s_s>
    b422:	48 89 c2             	mov    %rax,%rdx
    b425:	48 8b 05 94 7f 00 00 	mov    0x7f94(%rip),%rax        # 133c0 <g_545>
    b42c:	48 89 10             	mov    %rdx,(%rax)
    b42f:	48 8b 10             	mov    (%rax),%rdx
    b432:	8b 85 dc fb ff ff    	mov    -0x424(%rbp),%eax
    b438:	48 31 c2             	xor    %rax,%rdx
    b43b:	48 8b 85 c0 fc ff ff 	mov    -0x340(%rbp),%rax
    b442:	48 89 10             	mov    %rdx,(%rax)
    b445:	48 8b 85 c0 fc ff ff 	mov    -0x340(%rbp),%rax
    b44c:	48 8b 10             	mov    (%rax),%rdx
    b44f:	48 0f bf 85 d8 fb ff 	movswq -0x428(%rbp),%rax
    b456:	ff 
    b457:	48 39 c2             	cmp    %rax,%rdx
    b45a:	75 0a                	jne    b466 <func_15+0xabd>
    b45c:	66 83 bd d8 fb ff ff 	cmpw   $0x0,-0x428(%rbp)
    b463:	00 
    b464:	74 07                	je     b46d <func_15+0xac4>
    b466:	b8 01 00 00 00       	mov    $0x1,%eax
    b46b:	eb 05                	jmp    b472 <func_15+0xac9>
    b46d:	b8 00 00 00 00       	mov    $0x0,%eax
    b472:	0f b6 c0             	movzbl %al,%eax
    b475:	44 89 e6             	mov    %r12d,%esi
    b478:	89 c7                	mov    %eax,%edi
    b47a:	e8 14 c7 ff ff       	callq  7b93 <safe_mul_func_uint8_t_u_u>
    b47f:	84 c0                	test   %al,%al
    b481:	74 07                	je     b48a <func_15+0xae1>
    b483:	b8 01 00 00 00       	mov    $0x1,%eax
    b488:	eb 05                	jmp    b48f <func_15+0xae6>
    b48a:	b8 00 00 00 00       	mov    $0x0,%eax
    b48f:	98                   	cwtl   
    b490:	89 de                	mov    %ebx,%esi
    b492:	89 c7                	mov    %eax,%edi
    b494:	e8 bc bf ff ff       	callq  7455 <safe_div_func_int16_t_s_s>
    b499:	b8 01 00 00 00       	mov    $0x1,%eax
    b49e:	66 89 05 65 5c 00 00 	mov    %ax,0x5c65(%rip)        # 1110a <g_215+0x8a>
    b4a5:	48 8b 05 1c 7f 00 00 	mov    0x7f1c(%rip),%rax        # 133c8 <g_544>
    b4ac:	48 8b 00             	mov    (%rax),%rax
    b4af:	48 8b 00             	mov    (%rax),%rax
    b4b2:	be 01 00 00 00       	mov    $0x1,%esi
    b4b7:	48 89 c7             	mov    %rax,%rdi
    b4ba:	e8 8c cb ff ff       	callq  804b <safe_sub_func_uint64_t_u_u>
    b4bf:	89 c6                	mov    %eax,%esi
    b4c1:	bf 01 00 00 00       	mov    $0x1,%edi
    b4c6:	e8 f3 c8 ff ff       	callq  7dbe <safe_lshift_func_uint16_t_u_s>
    b4cb:	66 85 c0             	test   %ax,%ax
    b4ce:	74 0f                	je     b4df <func_15+0xb36>
    b4d0:	48 8b 05 39 7e 00 00 	mov    0x7e39(%rip),%rax        # 13310 <g_132>
    b4d7:	48 8b 00             	mov    (%rax),%rax
    b4da:	e9 10 06 00 00       	jmpq   baef <func_15+0x1146>
    b4df:	48 8d 05 84 5c 00 00 	lea    0x5c84(%rip),%rax        # 1116a <g_404>
    b4e6:	48 89 85 c8 fc ff ff 	mov    %rax,-0x338(%rbp)
    b4ed:	48 8d 05 aa 5c 00 00 	lea    0x5caa(%rip),%rax        # 1119e <g_596+0xe>
    b4f4:	48 89 85 d0 fc ff ff 	mov    %rax,-0x330(%rbp)
    b4fb:	48 c7 85 38 fc ff ff 	movq   $0x0,-0x3c8(%rbp)
    b502:	00 00 00 00 
    b506:	48 8d 85 38 fc ff ff 	lea    -0x3c8(%rbp),%rax
    b50d:	48 89 85 f0 fe ff ff 	mov    %rax,-0x110(%rbp)
    b514:	48 8d 85 38 fc ff ff 	lea    -0x3c8(%rbp),%rax
    b51b:	48 89 85 f8 fe ff ff 	mov    %rax,-0x108(%rbp)
    b522:	48 8d 85 38 fc ff ff 	lea    -0x3c8(%rbp),%rax
    b529:	48 89 85 00 ff ff ff 	mov    %rax,-0x100(%rbp)
    b530:	48 8d 85 38 fc ff ff 	lea    -0x3c8(%rbp),%rax
    b537:	48 89 85 08 ff ff ff 	mov    %rax,-0xf8(%rbp)
    b53e:	48 8d 85 38 fc ff ff 	lea    -0x3c8(%rbp),%rax
    b545:	48 89 85 10 ff ff ff 	mov    %rax,-0xf0(%rbp)
    b54c:	48 8d 85 38 fc ff ff 	lea    -0x3c8(%rbp),%rax
    b553:	48 89 85 18 ff ff ff 	mov    %rax,-0xe8(%rbp)
    b55a:	48 8d 85 38 fc ff ff 	lea    -0x3c8(%rbp),%rax
    b561:	48 89 85 20 ff ff ff 	mov    %rax,-0xe0(%rbp)
    b568:	48 8d 85 38 fc ff ff 	lea    -0x3c8(%rbp),%rax
    b56f:	48 89 85 28 ff ff ff 	mov    %rax,-0xd8(%rbp)
    b576:	48 8d 85 38 fc ff ff 	lea    -0x3c8(%rbp),%rax
    b57d:	48 89 85 30 ff ff ff 	mov    %rax,-0xd0(%rbp)
    b584:	48 8d 85 38 fc ff ff 	lea    -0x3c8(%rbp),%rax
    b58b:	48 89 85 38 ff ff ff 	mov    %rax,-0xc8(%rbp)
    b592:	48 8d 85 38 fc ff ff 	lea    -0x3c8(%rbp),%rax
    b599:	48 89 85 40 ff ff ff 	mov    %rax,-0xc0(%rbp)
    b5a0:	48 8d 85 38 fc ff ff 	lea    -0x3c8(%rbp),%rax
    b5a7:	48 89 85 48 ff ff ff 	mov    %rax,-0xb8(%rbp)
    b5ae:	48 8d 85 38 fc ff ff 	lea    -0x3c8(%rbp),%rax
    b5b5:	48 89 85 50 ff ff ff 	mov    %rax,-0xb0(%rbp)
    b5bc:	48 8d 85 38 fc ff ff 	lea    -0x3c8(%rbp),%rax
    b5c3:	48 89 85 58 ff ff ff 	mov    %rax,-0xa8(%rbp)
    b5ca:	48 8d 85 38 fc ff ff 	lea    -0x3c8(%rbp),%rax
    b5d1:	48 89 85 60 ff ff ff 	mov    %rax,-0xa0(%rbp)
    b5d8:	48 8d 85 38 fc ff ff 	lea    -0x3c8(%rbp),%rax
    b5df:	48 89 85 68 ff ff ff 	mov    %rax,-0x98(%rbp)
    b5e6:	48 8d 85 38 fc ff ff 	lea    -0x3c8(%rbp),%rax
    b5ed:	48 89 85 70 ff ff ff 	mov    %rax,-0x90(%rbp)
    b5f4:	48 8d 85 38 fc ff ff 	lea    -0x3c8(%rbp),%rax
    b5fb:	48 89 85 78 ff ff ff 	mov    %rax,-0x88(%rbp)
    b602:	48 8d 85 38 fc ff ff 	lea    -0x3c8(%rbp),%rax
    b609:	48 89 45 80          	mov    %rax,-0x80(%rbp)
    b60d:	48 8d 85 38 fc ff ff 	lea    -0x3c8(%rbp),%rax
    b614:	48 89 45 88          	mov    %rax,-0x78(%rbp)
    b618:	48 8d 85 38 fc ff ff 	lea    -0x3c8(%rbp),%rax
    b61f:	48 89 45 90          	mov    %rax,-0x70(%rbp)
    b623:	48 8d 85 38 fc ff ff 	lea    -0x3c8(%rbp),%rax
    b62a:	48 89 45 98          	mov    %rax,-0x68(%rbp)
    b62e:	48 8d 85 38 fc ff ff 	lea    -0x3c8(%rbp),%rax
    b635:	48 89 45 a0          	mov    %rax,-0x60(%rbp)
    b639:	48 8d 85 38 fc ff ff 	lea    -0x3c8(%rbp),%rax
    b640:	48 89 45 a8          	mov    %rax,-0x58(%rbp)
    b644:	48 8d 85 38 fc ff ff 	lea    -0x3c8(%rbp),%rax
    b64b:	48 89 45 b0          	mov    %rax,-0x50(%rbp)
    b64f:	48 8d 85 38 fc ff ff 	lea    -0x3c8(%rbp),%rax
    b656:	48 89 45 b8          	mov    %rax,-0x48(%rbp)
    b65a:	48 8d 85 38 fc ff ff 	lea    -0x3c8(%rbp),%rax
    b661:	48 89 45 c0          	mov    %rax,-0x40(%rbp)
    b665:	48 8d 85 38 fc ff ff 	lea    -0x3c8(%rbp),%rax
    b66c:	48 89 45 c8          	mov    %rax,-0x38(%rbp)
    b670:	48 8d 85 e8 fb ff ff 	lea    -0x418(%rbp),%rax
    b677:	48 89 85 d8 fc ff ff 	mov    %rax,-0x328(%rbp)
    b67e:	0f b7 05 7b 5a 00 00 	movzwl 0x5a7b(%rip),%eax        # 11100 <g_215+0x80>
    b685:	0f bf d8             	movswl %ax,%ebx
    b688:	0f b7 85 d8 fb ff ff 	movzwl -0x428(%rbp),%eax
    b68f:	0f b6 d0             	movzbl %al,%edx
    b692:	48 8b 85 38 fc ff ff 	mov    -0x3c8(%rbp),%rax
    b699:	48 89 05 38 7d 00 00 	mov    %rax,0x7d38(%rip)        # 133d8 <g_604>
    b6a0:	0f b6 05 79 5a 00 00 	movzbl 0x5a79(%rip),%eax        # 11120 <g_249>
    b6a7:	0f b6 c0             	movzbl %al,%eax
    b6aa:	89 d6                	mov    %edx,%esi
    b6ac:	89 c7                	mov    %eax,%edi
    b6ae:	e8 c5 c4 ff ff       	callq  7b78 <safe_sub_func_uint8_t_u_u>
    b6b3:	48 8b 85 00 fc ff ff 	mov    -0x400(%rbp),%rax
    b6ba:	8b 00                	mov    (%rax),%eax
    b6bc:	98                   	cwtl   
    b6bd:	89 de                	mov    %ebx,%esi
    b6bf:	89 c7                	mov    %eax,%edi
    b6c1:	e8 ed bc ff ff       	callq  73b3 <safe_add_func_int16_t_s_s>
    b6c6:	0f bf d0             	movswl %ax,%edx
    b6c9:	8b 85 e8 fb ff ff    	mov    -0x418(%rbp),%eax
    b6cf:	31 d0                	xor    %edx,%eax
    b6d1:	89 85 e8 fb ff ff    	mov    %eax,-0x418(%rbp)
    b6d7:	8b 95 e8 fb ff ff    	mov    -0x418(%rbp),%edx
    b6dd:	48 8b 85 50 fc ff ff 	mov    -0x3b0(%rbp),%rax
    b6e4:	89 05 9a 5a 00 00    	mov    %eax,0x5a9a(%rip)        # 11184 <g_594>
    b6ea:	8b 0d 94 5a 00 00    	mov    0x5a94(%rip),%ecx        # 11184 <g_594>
    b6f0:	48 8b 85 d0 fc ff ff 	mov    -0x330(%rbp),%rax
    b6f7:	0f b6 00             	movzbl (%rax),%eax
    b6fa:	89 c6                	mov    %eax,%esi
    b6fc:	89 c8                	mov    %ecx,%eax
    b6fe:	09 f0                	or     %esi,%eax
    b700:	89 c1                	mov    %eax,%ecx
    b702:	48 8b 85 d0 fc ff ff 	mov    -0x330(%rbp),%rax
    b709:	88 08                	mov    %cl,(%rax)
    b70b:	48 8b 85 d0 fc ff ff 	mov    -0x330(%rbp),%rax
    b712:	0f b6 08             	movzbl (%rax),%ecx
    b715:	0f b6 05 04 5a 00 00 	movzbl 0x5a04(%rip),%eax        # 11120 <g_249>
    b71c:	38 c1                	cmp    %al,%cl
    b71e:	0f 95 c0             	setne  %al
    b721:	0f b6 c8             	movzbl %al,%ecx
    b724:	8b 05 0a 59 00 00    	mov    0x590a(%rip),%eax        # 11034 <g_77+0x4>
    b72a:	39 c1                	cmp    %eax,%ecx
    b72c:	7d 0b                	jge    b739 <func_15+0xd90>
    b72e:	0f b6 05 eb 59 00 00 	movzbl 0x59eb(%rip),%eax        # 11120 <g_249>
    b735:	84 c0                	test   %al,%al
    b737:	74 07                	je     b740 <func_15+0xd97>
    b739:	b8 01 00 00 00       	mov    $0x1,%eax
    b73e:	eb 05                	jmp    b745 <func_15+0xd9c>
    b740:	b8 00 00 00 00       	mov    $0x0,%eax
    b745:	31 85 f8 fb ff ff    	xor    %eax,-0x408(%rbp)
    b74b:	8b 85 f8 fb ff ff    	mov    -0x408(%rbp),%eax
    b751:	89 d6                	mov    %edx,%esi
    b753:	89 c7                	mov    %eax,%edi
    b755:	e8 5c be ff ff       	callq  75b6 <safe_add_func_int32_t_s_s>
    b75a:	0f be d8             	movsbl %al,%ebx
    b75d:	be 00 00 00 00       	mov    $0x0,%esi
    b762:	bf 33 00 00 00       	mov    $0x33,%edi
    b767:	e8 21 c5 ff ff       	callq  7c8d <safe_rshift_func_uint8_t_u_s>
    b76c:	0f b6 c0             	movzbl %al,%eax
    b76f:	be 0f 00 00 00       	mov    $0xf,%esi
    b774:	89 c7                	mov    %eax,%edi
    b776:	e8 43 c6 ff ff       	callq  7dbe <safe_lshift_func_uint16_t_u_s>
    b77b:	89 c2                	mov    %eax,%edx
    b77d:	48 8b 85 c8 fc ff ff 	mov    -0x338(%rbp),%rax
    b784:	66 89 10             	mov    %dx,(%rax)
    b787:	48 8b 85 90 fc ff ff 	mov    -0x370(%rbp),%rax
    b78e:	0f b6 95 e0 fb ff ff 	movzbl -0x420(%rbp),%edx
    b795:	88 10                	mov    %dl,(%rax)
    b797:	48 8b 85 90 fc ff ff 	mov    -0x370(%rbp),%rax
    b79e:	0f b6 00             	movzbl (%rax),%eax
    b7a1:	0f be c0             	movsbl %al,%eax
    b7a4:	89 de                	mov    %ebx,%esi
    b7a6:	89 c7                	mov    %eax,%edi
    b7a8:	e8 84 ba ff ff       	callq  7231 <safe_mod_func_int8_t_s_s>
    b7ad:	89 c2                	mov    %eax,%edx
    b7af:	48 8b 05 42 7b 00 00 	mov    0x7b42(%rip),%rax        # 132f8 <g_131>
    b7b6:	0f be d2             	movsbl %dl,%edx
    b7b9:	89 10                	mov    %edx,(%rax)
    b7bb:	48 8b 05 36 7b 00 00 	mov    0x7b36(%rip),%rax        # 132f8 <g_131>
    b7c2:	8b 08                	mov    (%rax),%ecx
    b7c4:	0f bf 95 e6 fb ff ff 	movswl -0x41a(%rbp),%edx
    b7cb:	48 8b 05 26 7b 00 00 	mov    0x7b26(%rip),%rax        # 132f8 <g_131>
    b7d2:	31 ca                	xor    %ecx,%edx
    b7d4:	89 10                	mov    %edx,(%rax)
    b7d6:	8b 00                	mov    (%rax),%eax
    b7d8:	89 85 f8 fb ff ff    	mov    %eax,-0x408(%rbp)
    b7de:	48 8b 85 d8 fc ff ff 	mov    -0x328(%rbp),%rax
    b7e5:	8b 95 f8 fb ff ff    	mov    -0x408(%rbp),%edx
    b7eb:	89 10                	mov    %edx,(%rax)
    b7ed:	48 8b 85 00 fc ff ff 	mov    -0x400(%rbp),%rax
    b7f4:	8b 00                	mov    (%rax),%eax
    b7f6:	0f b6 d8             	movzbl %al,%ebx
    b7f9:	0f bf 95 e6 fb ff ff 	movswl -0x41a(%rbp),%edx
    b800:	48 8b 05 11 59 00 00 	mov    0x5911(%rip),%rax        # 11118 <g_222>
    b807:	89 c1                	mov    %eax,%ecx
    b809:	48 8b 85 90 fc ff ff 	mov    -0x370(%rbp),%rax
    b810:	88 08                	mov    %cl,(%rax)
    b812:	48 8b 85 90 fc ff ff 	mov    -0x370(%rbp),%rax
    b819:	0f b6 00             	movzbl (%rax),%eax
    b81c:	66 98                	cbtw   
    b81e:	66 39 85 d8 fb ff ff 	cmp    %ax,-0x428(%rbp)
    b825:	0f 94 c0             	sete   %al
    b828:	0f b6 c0             	movzbl %al,%eax
    b82b:	39 c2                	cmp    %eax,%edx
    b82d:	0f 9e c0             	setle  %al
    b830:	0f b6 d0             	movzbl %al,%edx
    b833:	48 8b 85 d8 fc ff ff 	mov    -0x328(%rbp),%rax
    b83a:	8b 00                	mov    (%rax),%eax
    b83c:	39 c2                	cmp    %eax,%edx
    b83e:	74 7b                	je     b8bb <func_15+0xf12>
    b840:	8b 85 cc fb ff ff    	mov    -0x434(%rbp),%eax
    b846:	44 0f b6 e0          	movzbl %al,%r12d
    b84a:	48 8b 05 1f 86 00 00 	mov    0x861f(%rip),%rax        # 13e70 <g_224>
    b851:	44 0f b7 e8          	movzwl %ax,%r13d
    b855:	8b 85 cc fb ff ff    	mov    -0x434(%rbp),%eax
    b85b:	48 63 d0             	movslq %eax,%rdx
    b85e:	48 8b 05 b3 58 00 00 	mov    0x58b3(%rip),%rax        # 11118 <g_222>
    b865:	48 31 c2             	xor    %rax,%rdx
    b868:	0f b6 05 f1 58 00 00 	movzbl 0x58f1(%rip),%eax        # 11160 <g_257+0x10>
    b86f:	48 0f be c0          	movsbq %al,%rax
    b873:	48 39 c2             	cmp    %rax,%rdx
    b876:	0f 95 c0             	setne  %al
    b879:	0f b6 c0             	movzbl %al,%eax
    b87c:	be 06 00 00 00       	mov    $0x6,%esi
    b881:	89 c7                	mov    %eax,%edi
    b883:	e8 8e bb ff ff       	callq  7416 <safe_mod_func_int16_t_s_s>
    b888:	8b 05 96 57 00 00    	mov    0x5796(%rip),%eax        # 11024 <g_14>
    b88e:	0f b7 c0             	movzwl %ax,%eax
    b891:	44 89 ee             	mov    %r13d,%esi
    b894:	89 c7                	mov    %eax,%edi
    b896:	e8 c1 c4 ff ff       	callq  7d5c <safe_mod_func_uint16_t_u_u>
    b89b:	44 89 e6             	mov    %r12d,%esi
    b89e:	bf d3 00 00 00       	mov    $0xd3,%edi
    b8a3:	e8 33 c3 ff ff       	callq  7bdb <safe_div_func_uint8_t_u_u>
    b8a8:	84 c0                	test   %al,%al
    b8aa:	74 08                	je     b8b4 <func_15+0xf0b>
    b8ac:	66 83 bd e4 fb ff ff 	cmpw   $0x0,-0x41c(%rbp)
    b8b3:	00 
    b8b4:	b8 00 00 00 00       	mov    $0x0,%eax
    b8b9:	eb 05                	jmp    b8c0 <func_15+0xf17>
    b8bb:	b8 01 00 00 00       	mov    $0x1,%eax
    b8c0:	0f b6 d0             	movzbl %al,%edx
    b8c3:	0f bf 85 d8 fb ff ff 	movswl -0x428(%rbp),%eax
    b8ca:	39 85 dc fb ff ff    	cmp    %eax,-0x424(%rbp)
    b8d0:	0f 93 c0             	setae  %al
    b8d3:	0f b6 c0             	movzbl %al,%eax
    b8d6:	89 d6                	mov    %edx,%esi
    b8d8:	89 c7                	mov    %eax,%edi
    b8da:	e8 b4 c2 ff ff       	callq  7b93 <safe_mul_func_uint8_t_u_u>
    b8df:	83 c8 05             	or     $0x5,%eax
    b8e2:	0f b6 c0             	movzbl %al,%eax
    b8e5:	89 de                	mov    %ebx,%esi
    b8e7:	89 c7                	mov    %eax,%edi
    b8e9:	e8 c0 c2 ff ff       	callq  7bae <safe_mod_func_uint8_t_u_u>
    b8ee:	0f b6 d0             	movzbl %al,%edx
    b8f1:	0f bf 85 e6 fb ff ff 	movswl -0x41a(%rbp),%eax
    b8f8:	39 c2                	cmp    %eax,%edx
    b8fa:	0f 9f c0             	setg   %al
    b8fd:	0f b6 d0             	movzbl %al,%edx
    b900:	48 8b 85 68 fc ff ff 	mov    -0x398(%rbp),%rax
    b907:	48 8b 00             	mov    (%rax),%rax
    b90a:	8b 00                	mov    (%rax),%eax
    b90c:	39 c2                	cmp    %eax,%edx
    b90e:	0f 9f c0             	setg   %al
    b911:	89 c2                	mov    %eax,%edx
    b913:	48 8b 85 d0 fc ff ff 	mov    -0x330(%rbp),%rax
    b91a:	88 10                	mov    %dl,(%rax)
    b91c:	48 8b 85 68 fc ff ff 	mov    -0x398(%rbp),%rax
    b923:	48 8b 00             	mov    (%rax),%rax
    b926:	8b 08                	mov    (%rax),%ecx
    b928:	0f bf 95 e6 fb ff ff 	movswl -0x41a(%rbp),%edx
    b92f:	48 8b 05 c2 79 00 00 	mov    0x79c2(%rip),%rax        # 132f8 <g_131>
    b936:	21 ca                	and    %ecx,%edx
    b938:	89 10                	mov    %edx,(%rax)
    b93a:	48 8b 85 d0 fb ff ff 	mov    -0x430(%rbp),%rax
    b941:	e9 a9 01 00 00       	jmpq   baef <func_15+0x1146>
    b946:	48 8b 85 d0 fb ff ff 	mov    -0x430(%rbp),%rax
    b94d:	8b 00                	mov    (%rax),%eax
    b94f:	85 c0                	test   %eax,%eax
    b951:	75 32                	jne    b985 <func_15+0xfdc>
    b953:	0f b7 05 0e 85 00 00 	movzwl 0x850e(%rip),%eax        # 13e68 <g_38>
    b95a:	0f be c0             	movsbl %al,%eax
    b95d:	be 02 00 00 00       	mov    $0x2,%esi
    b962:	89 c7                	mov    %eax,%edi
    b964:	e8 6b b8 ff ff       	callq  71d4 <safe_add_func_int8_t_s_s>
    b969:	66 98                	cbtw   
    b96b:	66 89 05 f6 84 00 00 	mov    %ax,0x84f6(%rip)        # 13e68 <g_38>
    b972:	0f b7 05 ef 84 00 00 	movzwl 0x84ef(%rip),%eax        # 13e68 <g_38>
    b979:	66 83 f8 3c          	cmp    $0x3c,%ax
    b97d:	0f 84 6f f7 ff ff    	je     b0f2 <func_15+0x749>
    b983:	eb 01                	jmp    b986 <func_15+0xfdd>
    b985:	90                   	nop
    b986:	48 8b 05 e3 84 00 00 	mov    0x84e3(%rip),%rax        # 13e70 <g_224>
    b98d:	48 83 c0 01          	add    $0x1,%rax
    b991:	48 89 05 d8 84 00 00 	mov    %rax,0x84d8(%rip)        # 13e70 <g_224>
    b998:	eb 1c                	jmp    b9b6 <func_15+0x100d>
    b99a:	48 8b 85 d0 fb ff ff 	mov    -0x430(%rbp),%rax
    b9a1:	8b 00                	mov    (%rax),%eax
    b9a3:	85 c0                	test   %eax,%eax
    b9a5:	75 22                	jne    b9c9 <func_15+0x1020>
    b9a7:	48 8b 85 68 fc ff ff 	mov    -0x398(%rbp),%rax
    b9ae:	48 8b 00             	mov    (%rax),%rax
    b9b1:	e9 39 01 00 00       	jmpq   baef <func_15+0x1146>
    b9b6:	48 8b 05 b3 84 00 00 	mov    0x84b3(%rip),%rax        # 13e70 <g_224>
    b9bd:	48 83 f8 17          	cmp    $0x17,%rax
    b9c1:	0f 86 71 f2 ff ff    	jbe    ac38 <func_15+0x28f>
    b9c7:	eb 01                	jmp    b9ca <func_15+0x1021>
    b9c9:	90                   	nop
    b9ca:	48 8b 85 00 fc ff ff 	mov    -0x400(%rbp),%rax
    b9d1:	8b 00                	mov    (%rax),%eax
    b9d3:	89 c3                	mov    %eax,%ebx
    b9d5:	be 09 00 00 00       	mov    $0x9,%esi
    b9da:	bf f8 ff 00 00       	mov    $0xfff8,%edi
    b9df:	e8 96 c4 ff ff       	callq  7e7a <safe_rshift_func_uint16_t_u_u>
    b9e4:	66 85 c0             	test   %ax,%ax
    b9e7:	75 50                	jne    ba39 <func_15+0x1090>
    b9e9:	48 8b 85 00 fc ff ff 	mov    -0x400(%rbp),%rax
    b9f0:	8b 00                	mov    (%rax),%eax
    b9f2:	0f be d0             	movsbl %al,%edx
    b9f5:	48 c7 05 d8 79 00 00 	movq   $0x0,0x79d8(%rip)        # 133d8 <g_604>
    b9fc:	00 00 00 00 
    ba00:	48 8b 05 d1 79 00 00 	mov    0x79d1(%rip),%rax        # 133d8 <g_604>
    ba07:	48 8d 0d ba 79 00 00 	lea    0x79ba(%rip),%rcx        # 133c8 <g_544>
    ba0e:	48 39 c8             	cmp    %rcx,%rax
    ba11:	0f 95 c0             	setne  %al
    ba14:	0f b6 c0             	movzbl %al,%eax
    ba17:	89 d6                	mov    %edx,%esi
    ba19:	89 c7                	mov    %eax,%edi
    ba1b:	e8 d2 b7 ff ff       	callq  71f2 <safe_sub_func_int8_t_s_s>
    ba20:	0f be d0             	movsbl %al,%edx
    ba23:	8b 85 dc fb ff ff    	mov    -0x424(%rbp),%eax
    ba29:	0f be c0             	movsbl %al,%eax
    ba2c:	89 d6                	mov    %edx,%esi
    ba2e:	89 c7                	mov    %eax,%edi
    ba30:	e8 bd b7 ff ff       	callq  71f2 <safe_sub_func_int8_t_s_s>
    ba35:	84 c0                	test   %al,%al
    ba37:	74 07                	je     ba40 <func_15+0x1097>
    ba39:	b8 01 00 00 00       	mov    $0x1,%eax
    ba3e:	eb 05                	jmp    ba45 <func_15+0x109c>
    ba40:	b8 00 00 00 00       	mov    $0x0,%eax
    ba45:	89 85 f8 fb ff ff    	mov    %eax,-0x408(%rbp)
    ba4b:	89 de                	mov    %ebx,%esi
    ba4d:	bf 01 00 00 00       	mov    $0x1,%edi
    ba52:	e8 61 c4 ff ff       	callq  7eb8 <safe_add_func_uint32_t_u_u>
    ba57:	0f b6 15 40 57 00 00 	movzbl 0x5740(%rip),%edx        # 1119e <g_596+0xe>
    ba5e:	0f be d2             	movsbl %dl,%edx
    ba61:	39 d0                	cmp    %edx,%eax
    ba63:	0f 97 c0             	seta   %al
    ba66:	0f b6 d0             	movzbl %al,%edx
    ba69:	48 8b 85 d0 fb ff ff 	mov    -0x430(%rbp),%rax
    ba70:	8b 00                	mov    (%rax),%eax
    ba72:	21 c2                	and    %eax,%edx
    ba74:	8b 05 aa 55 00 00    	mov    0x55aa(%rip),%eax        # 11024 <g_14>
    ba7a:	39 c2                	cmp    %eax,%edx
    ba7c:	8b 05 02 57 00 00    	mov    0x5702(%rip),%eax        # 11184 <g_594>
    ba82:	98                   	cwtl   
    ba83:	8b 95 cc fb ff ff    	mov    -0x434(%rbp),%edx
    ba89:	89 d6                	mov    %edx,%esi
    ba8b:	89 c7                	mov    %eax,%edi
    ba8d:	e8 98 ba ff ff       	callq  752a <safe_rshift_func_int16_t_s_s>
    ba92:	98                   	cwtl   
    ba93:	be 1e 3f 00 00       	mov    $0x3f1e,%esi
    ba98:	89 c7                	mov    %eax,%edi
    ba9a:	e8 77 b9 ff ff       	callq  7416 <safe_mod_func_int16_t_s_s>
    ba9f:	0f b7 d0             	movzwl %ax,%edx
    baa2:	48 8d 05 77 56 00 00 	lea    0x5677(%rip),%rax        # 11120 <g_249>
    baa9:	48 89 85 58 fc ff ff 	mov    %rax,-0x3a8(%rbp)
    bab0:	48 8d 05 69 56 00 00 	lea    0x5669(%rip),%rax        # 11120 <g_249>
    bab7:	48 39 85 58 fc ff ff 	cmp    %rax,-0x3a8(%rbp)
    babe:	0f 95 c0             	setne  %al
    bac1:	0f b6 c0             	movzbl %al,%eax
    bac4:	89 d6                	mov    %edx,%esi
    bac6:	89 c7                	mov    %eax,%edi
    bac8:	e8 70 c2 ff ff       	callq  7d3d <safe_mul_func_uint16_t_u_u>
    bacd:	0f b7 c0             	movzwl %ax,%eax
    bad0:	23 85 cc fb ff ff    	and    -0x434(%rbp),%eax
    bad6:	89 c2                	mov    %eax,%edx
    bad8:	0f b7 85 e2 fb ff ff 	movzwl -0x41e(%rbp),%eax
    badf:	21 d0                	and    %edx,%eax
    bae1:	66 89 85 e2 fb ff ff 	mov    %ax,-0x41e(%rbp)
    bae8:	48 8b 85 d0 fb ff ff 	mov    -0x430(%rbp),%rax
    baef:	48 8b 5d d8          	mov    -0x28(%rbp),%rbx
    baf3:	64 48 33 1c 25 28 00 	xor    %fs:0x28,%rbx
    bafa:	00 00 
    bafc:	74 05                	je     bb03 <func_15+0x115a>
    bafe:	e8 6d b5 ff ff       	callq  7070 <__stack_chk_fail@plt>
    bb03:	48 81 c4 28 04 00 00 	add    $0x428,%rsp
    bb0a:	5b                   	pop    %rbx
    bb0b:	41 5c                	pop    %r12
    bb0d:	41 5d                	pop    %r13
    bb0f:	5d                   	pop    %rbp
    bb10:	c3                   	retq   

000000000000bb11 <func_21>:
    bb11:	f3 0f 1e fa          	endbr64 
    bb15:	55                   	push   %rbp
    bb16:	48 89 e5             	mov    %rsp,%rbp
    bb19:	53                   	push   %rbx
    bb1a:	48 81 ec 78 03 00 00 	sub    $0x378,%rsp
    bb21:	48 89 bd 88 fc ff ff 	mov    %rdi,-0x378(%rbp)
    bb28:	64 48 8b 04 25 28 00 	mov    %fs:0x28,%rax
    bb2f:	00 00 
    bb31:	48 89 45 e8          	mov    %rax,-0x18(%rbp)
    bb35:	31 c0                	xor    %eax,%eax
    bb37:	48 c7 85 a8 fc ff ff 	movq   $0x1,-0x358(%rbp)
    bb3e:	01 00 00 00 
    bb42:	48 8d 05 1f 83 00 00 	lea    0x831f(%rip),%rax        # 13e68 <g_38>
    bb49:	48 89 85 b0 fc ff ff 	mov    %rax,-0x350(%rbp)
    bb50:	48 8d 05 15 83 00 00 	lea    0x8315(%rip),%rax        # 13e6c <g_119>
    bb57:	48 89 85 b8 fc ff ff 	mov    %rax,-0x348(%rbp)
    bb5e:	c7 85 30 fd ff ff 23 	movl   $0xb4015623,-0x2d0(%rbp)
    bb65:	56 01 b4 
    bb68:	c7 85 34 fd ff ff 64 	movl   $0xdb002964,-0x2cc(%rbp)
    bb6f:	29 00 db 
    bb72:	c7 85 38 fd ff ff 05 	movl   $0x5,-0x2c8(%rbp)
    bb79:	00 00 00 
    bb7c:	c7 85 3c fd ff ff f9 	movl   $0xfffffff9,-0x2c4(%rbp)
    bb83:	ff ff ff 
    bb86:	c7 85 40 fd ff ff b1 	movl   $0xb74f28b1,-0x2c0(%rbp)
    bb8d:	28 4f b7 
    bb90:	c7 85 44 fd ff ff f9 	movl   $0xfffffff9,-0x2bc(%rbp)
    bb97:	ff ff ff 
    bb9a:	c7 85 48 fd ff ff 05 	movl   $0x5,-0x2b8(%rbp)
    bba1:	00 00 00 
    bba4:	c7 85 4c fd ff ff 64 	movl   $0xdb002964,-0x2b4(%rbp)
    bbab:	29 00 db 
    bbae:	c7 85 50 fd ff ff 23 	movl   $0xb4015623,-0x2b0(%rbp)
    bbb5:	56 01 b4 
    bbb8:	c7 85 54 fd ff ff fe 	movl   $0xfffffffe,-0x2ac(%rbp)
    bbbf:	ff ff ff 
    bbc2:	c7 85 58 fd ff ff 01 	movl   $0x1,-0x2a8(%rbp)
    bbc9:	00 00 00 
    bbcc:	c7 85 5c fd ff ff 2b 	movl   $0xa442242b,-0x2a4(%rbp)
    bbd3:	24 42 a4 
    bbd6:	c7 85 60 fd ff ff 05 	movl   $0x5,-0x2a0(%rbp)
    bbdd:	00 00 00 
    bbe0:	c7 85 64 fd ff ff b1 	movl   $0xb74f28b1,-0x29c(%rbp)
    bbe7:	28 4f b7 
    bbea:	c7 85 68 fd ff ff 64 	movl   $0xdb002964,-0x298(%rbp)
    bbf1:	29 00 db 
    bbf4:	c7 85 6c fd ff ff 64 	movl   $0xdb002964,-0x294(%rbp)
    bbfb:	29 00 db 
    bbfe:	c7 85 70 fd ff ff b1 	movl   $0xb74f28b1,-0x290(%rbp)
    bc05:	28 4f b7 
    bc08:	c7 85 74 fd ff ff 05 	movl   $0x5,-0x28c(%rbp)
    bc0f:	00 00 00 
    bc12:	c7 85 78 fd ff ff 2b 	movl   $0xa442242b,-0x288(%rbp)
    bc19:	24 42 a4 
    bc1c:	c7 85 7c fd ff ff 01 	movl   $0x1,-0x284(%rbp)
    bc23:	00 00 00 
    bc26:	c7 85 80 fd ff ff 2b 	movl   $0xa442242b,-0x280(%rbp)
    bc2d:	24 42 a4 
    bc30:	c7 85 84 fd ff ff f9 	movl   $0xfffffff9,-0x27c(%rbp)
    bc37:	ff ff ff 
    bc3a:	c7 85 88 fd ff ff 23 	movl   $0xb4015623,-0x278(%rbp)
    bc41:	56 01 b4 
    bc44:	c7 85 8c fd ff ff b1 	movl   $0xb74f28b1,-0x274(%rbp)
    bc4b:	28 4f b7 
    bc4e:	c7 85 90 fd ff ff 5c 	movl   $0x2ac52c5c,-0x270(%rbp)
    bc55:	2c c5 2a 
    bc58:	c7 85 94 fd ff ff 01 	movl   $0x1,-0x26c(%rbp)
    bc5f:	00 00 00 
    bc62:	c7 85 98 fd ff ff 5c 	movl   $0x2ac52c5c,-0x268(%rbp)
    bc69:	2c c5 2a 
    bc6c:	c7 85 9c fd ff ff b1 	movl   $0xb74f28b1,-0x264(%rbp)
    bc73:	28 4f b7 
    bc76:	c7 85 a0 fd ff ff 23 	movl   $0xb4015623,-0x260(%rbp)
    bc7d:	56 01 b4 
    bc80:	c7 85 a4 fd ff ff f9 	movl   $0xfffffff9,-0x25c(%rbp)
    bc87:	ff ff ff 
    bc8a:	c7 85 a8 fd ff ff fe 	movl   $0xfffffffe,-0x258(%rbp)
    bc91:	ff ff ff 
    bc94:	c7 85 ac fd ff ff 05 	movl   $0x5,-0x254(%rbp)
    bc9b:	00 00 00 
    bc9e:	c7 85 b0 fd ff ff 01 	movl   $0x1,-0x250(%rbp)
    bca5:	00 00 00 
    bca8:	c7 85 b4 fd ff ff f9 	movl   $0xfffffff9,-0x24c(%rbp)
    bcaf:	ff ff ff 
    bcb2:	c7 85 b8 fd ff ff 5c 	movl   $0x2ac52c5c,-0x248(%rbp)
    bcb9:	2c c5 2a 
    bcbc:	c7 85 bc fd ff ff 01 	movl   $0x1,-0x244(%rbp)
    bcc3:	00 00 00 
    bcc6:	c7 85 c0 fd ff ff 01 	movl   $0x1,-0x240(%rbp)
    bccd:	00 00 00 
    bcd0:	c7 85 c4 fd ff ff 5c 	movl   $0x2ac52c5c,-0x23c(%rbp)
    bcd7:	2c c5 2a 
    bcda:	c7 85 c8 fd ff ff f9 	movl   $0xfffffff9,-0x238(%rbp)
    bce1:	ff ff ff 
    bce4:	c7 85 cc fd ff ff 01 	movl   $0x1,-0x234(%rbp)
    bceb:	00 00 00 
    bcee:	c7 85 d0 fd ff ff 5c 	movl   $0x2ac52c5c,-0x230(%rbp)
    bcf5:	2c c5 2a 
    bcf8:	c7 85 d4 fd ff ff 5c 	movl   $0x2ac52c5c,-0x22c(%rbp)
    bcff:	2c c5 2a 
    bd02:	c7 85 d8 fd ff ff 2b 	movl   $0xa442242b,-0x228(%rbp)
    bd09:	24 42 a4 
    bd0c:	c7 85 dc fd ff ff fe 	movl   $0xfffffffe,-0x224(%rbp)
    bd13:	ff ff ff 
    bd16:	c7 85 e0 fd ff ff 64 	movl   $0xdb002964,-0x220(%rbp)
    bd1d:	29 00 db 
    bd20:	c7 85 e4 fd ff ff 01 	movl   $0x1,-0x21c(%rbp)
    bd27:	00 00 00 
    bd2a:	c7 85 e8 fd ff ff 23 	movl   $0xb4015623,-0x218(%rbp)
    bd31:	56 01 b4 
    bd34:	c7 85 ec fd ff ff 01 	movl   $0x1,-0x214(%rbp)
    bd3b:	00 00 00 
    bd3e:	c7 85 f0 fd ff ff 64 	movl   $0xdb002964,-0x210(%rbp)
    bd45:	29 00 db 
    bd48:	c7 85 f4 fd ff ff fe 	movl   $0xfffffffe,-0x20c(%rbp)
    bd4f:	ff ff ff 
    bd52:	48 8d 05 db 52 00 00 	lea    0x52db(%rip),%rax        # 11034 <g_77+0x4>
    bd59:	48 89 85 a0 fc ff ff 	mov    %rax,-0x360(%rbp)
    bd60:	48 8d 05 b9 53 00 00 	lea    0x53b9(%rip),%rax        # 11120 <g_249>
    bd67:	48 89 85 c0 fc ff ff 	mov    %rax,-0x340(%rbp)
    bd6e:	c7 85 94 fc ff ff 34 	movl   $0x9bbbb134,-0x36c(%rbp)
    bd75:	b1 bb 9b 
    bd78:	b8 ff ff ff ff       	mov    $0xffffffff,%eax
    bd7d:	66 85 c0             	test   %ax,%ax
    bd80:	0f 94 c0             	sete   %al
    bd83:	0f b6 d0             	movzbl %al,%edx
    bd86:	8b 05 98 52 00 00    	mov    0x5298(%rip),%eax        # 11024 <g_14>
    bd8c:	98                   	cwtl   
    bd8d:	89 d6                	mov    %edx,%esi
    bd8f:	89 c7                	mov    %eax,%edi
    bd91:	e8 5f b6 ff ff       	callq  73f5 <safe_mul_func_int16_t_s_s>
    bd96:	0f bf d8             	movswl %ax,%ebx
    bd99:	48 8b 05 70 53 00 00 	mov    0x5370(%rip),%rax        # 11110 <g_218>
    bda0:	89 c2                	mov    %eax,%edx
    bda2:	48 8b 85 88 fc ff ff 	mov    -0x378(%rbp),%rax
    bda9:	48 c1 e8 3f          	shr    $0x3f,%rax
    bdad:	0f b6 c0             	movzbl %al,%eax
    bdb0:	89 d6                	mov    %edx,%esi
    bdb2:	89 c7                	mov    %eax,%edi
    bdb4:	e8 05 bf ff ff       	callq  7cbe <safe_rshift_func_uint8_t_u_u>
    bdb9:	0f b6 c0             	movzbl %al,%eax
    bdbc:	48 39 85 a8 fc ff ff 	cmp    %rax,-0x358(%rbp)
    bdc3:	75 07                	jne    bdcc <func_21+0x2bb>
    bdc5:	b8 06 00 00 00       	mov    $0x6,%eax
    bdca:	eb 05                	jmp    bdd1 <func_21+0x2c0>
    bdcc:	b8 07 00 00 00       	mov    $0x7,%eax
    bdd1:	be 02 00 00 00       	mov    $0x2,%esi
    bdd6:	89 c7                	mov    %eax,%edi
    bdd8:	e8 6f be ff ff       	callq  7c4c <safe_lshift_func_uint8_t_u_u>
    bddd:	3c 03                	cmp    $0x3,%al
    bddf:	0f 97 c0             	seta   %al
    bde2:	0f b6 c0             	movzbl %al,%eax
    bde5:	21 c3                	and    %eax,%ebx
    bde7:	89 d9                	mov    %ebx,%ecx
    bde9:	48 8b 85 88 fc ff ff 	mov    -0x378(%rbp),%rax
    bdf0:	89 c2                	mov    %eax,%edx
    bdf2:	48 8b 85 b8 fc ff ff 	mov    -0x348(%rbp),%rax
    bdf9:	89 10                	mov    %edx,(%rax)
    bdfb:	48 8b 85 b8 fc ff ff 	mov    -0x348(%rbp),%rax
    be02:	8b 10                	mov    (%rax),%edx
    be04:	48 8b 85 a8 fc ff ff 	mov    -0x358(%rbp),%rax
    be0b:	0f b7 c0             	movzwl %ax,%eax
    be0e:	48 8b b5 b0 fc ff ff 	mov    -0x350(%rbp),%rsi
    be15:	89 c7                	mov    %eax,%edi
    be17:	e8 ed 0f 00 00       	callq  ce09 <func_47>
    be1c:	48 39 85 b8 fc ff ff 	cmp    %rax,-0x348(%rbp)
    be23:	0f 95 c0             	setne  %al
    be26:	0f b6 d0             	movzbl %al,%edx
    be29:	8b 85 44 fd ff ff    	mov    -0x2bc(%rbp),%eax
    be2f:	09 d0                	or     %edx,%eax
    be31:	89 85 44 fd ff ff    	mov    %eax,-0x2bc(%rbp)
    be37:	c6 05 12 52 00 00 04 	movb   $0x4,0x5212(%rip)        # 11050 <g_156>
    be3e:	e9 a8 02 00 00       	jmpq   c0eb <func_21+0x5da>
    be43:	c7 85 98 fc ff ff fb 	movl   $0xfffffffb,-0x368(%rbp)
    be4a:	ff ff ff 
    be4d:	48 8d 05 18 80 00 00 	lea    0x8018(%rip),%rax        # 13e6c <g_119>
    be54:	48 89 85 c8 fc ff ff 	mov    %rax,-0x338(%rbp)
    be5b:	48 8d 05 be 74 00 00 	lea    0x74be(%rip),%rax        # 13320 <g_264>
    be62:	48 89 85 d0 fc ff ff 	mov    %rax,-0x330(%rbp)
    be69:	48 c7 85 d8 fc ff ff 	movq   $0x0,-0x328(%rbp)
    be70:	00 00 00 00 
    be74:	48 8d 05 9d 52 00 00 	lea    0x529d(%rip),%rax        # 11118 <g_222>
    be7b:	48 89 85 e0 fc ff ff 	mov    %rax,-0x320(%rbp)
    be82:	48 8d 05 87 52 00 00 	lea    0x5287(%rip),%rax        # 11110 <g_218>
    be89:	48 89 85 e8 fc ff ff 	mov    %rax,-0x318(%rbp)
    be90:	48 c7 85 88 fc ff ff 	movq   $0x0,-0x378(%rbp)
    be97:	00 00 00 00 
    be9b:	eb 1a                	jmp    beb7 <func_21+0x3a6>
    be9d:	48 8d 85 30 fd ff ff 	lea    -0x2d0(%rbp),%rax
    bea4:	48 83 c0 14          	add    $0x14,%rax
    bea8:	48 89 85 a0 fc ff ff 	mov    %rax,-0x360(%rbp)
    beaf:	48 83 ad 88 fc ff ff 	subq   $0x1,-0x378(%rbp)
    beb6:	01 
    beb7:	48 83 bd 88 fc ff ff 	cmpq   $0xfffffffffffffff7,-0x378(%rbp)
    bebe:	f7 
    bebf:	7d dc                	jge    be9d <func_21+0x38c>
    bec1:	48 c7 05 4c 52 00 00 	movq   $0xd,0x524c(%rip)        # 11118 <g_222>
    bec8:	0d 00 00 00 
    becc:	e9 ca 00 00 00       	jmpq   bf9b <func_21+0x48a>
    bed1:	66 c7 85 10 fd ff ff 	movw   $0x4b26,-0x2f0(%rbp)
    bed8:	26 4b 
    beda:	66 c7 85 12 fd ff ff 	movw   $0x94f9,-0x2ee(%rbp)
    bee1:	f9 94 
    bee3:	66 c7 85 14 fd ff ff 	movw   $0x94f9,-0x2ec(%rbp)
    beea:	f9 94 
    beec:	66 c7 85 16 fd ff ff 	movw   $0x4b26,-0x2ea(%rbp)
    bef3:	26 4b 
    bef5:	66 c7 85 18 fd ff ff 	movw   $0x4431,-0x2e8(%rbp)
    befc:	31 44 
    befe:	66 c7 85 1a fd ff ff 	movw   $0x4b26,-0x2e6(%rbp)
    bf05:	26 4b 
    bf07:	66 c7 85 1c fd ff ff 	movw   $0x94f9,-0x2e4(%rbp)
    bf0e:	f9 94 
    bf10:	66 c7 85 1e fd ff ff 	movw   $0x94f9,-0x2e2(%rbp)
    bf17:	f9 94 
    bf19:	66 c7 85 20 fd ff ff 	movw   $0x4b26,-0x2e0(%rbp)
    bf20:	26 4b 
    bf22:	66 c7 85 22 fd ff ff 	movw   $0x4431,-0x2de(%rbp)
    bf29:	31 44 
    bf2b:	48 8d 05 02 51 00 00 	lea    0x5102(%rip),%rax        # 11034 <g_77+0x4>
    bf32:	48 89 85 f0 fc ff ff 	mov    %rax,-0x310(%rbp)
    bf39:	48 8d 85 00 fe ff ff 	lea    -0x200(%rbp),%rax
    bf40:	48 8d 15 79 24 00 00 	lea    0x2479(%rip),%rdx        # e3c0 <g_279+0x36c>
    bf47:	b9 3c 00 00 00       	mov    $0x3c,%ecx
    bf4c:	48 89 c7             	mov    %rax,%rdi
    bf4f:	48 89 d6             	mov    %rdx,%rsi
    bf52:	f3 48 a5             	rep movsq %ds:(%rsi),%es:(%rdi)
    bf55:	48 8d 05 ec 50 00 00 	lea    0x50ec(%rip),%rax        # 11048 <g_117>
    bf5c:	48 89 85 f8 fc ff ff 	mov    %rax,-0x308(%rbp)
    bf63:	c7 85 9c fc ff ff b5 	movl   $0xa380a2b5,-0x364(%rbp)
    bf6a:	a2 80 a3 
    bf6d:	48 8d 05 24 74 00 00 	lea    0x7424(%rip),%rax        # 13398 <g_275>
    bf74:	48 89 85 00 fd ff ff 	mov    %rax,-0x300(%rbp)
    bf7b:	48 8d 05 e9 7e 00 00 	lea    0x7ee9(%rip),%rax        # 13e6b <g_78>
    bf82:	48 89 85 08 fd ff ff 	mov    %rax,-0x2f8(%rbp)
    bf89:	48 8b 05 88 51 00 00 	mov    0x5188(%rip),%rax        # 11118 <g_222>
    bf90:	48 83 c0 01          	add    $0x1,%rax
    bf94:	48 89 05 7d 51 00 00 	mov    %rax,0x517d(%rip)        # 11118 <g_222>
    bf9b:	48 8b 05 76 51 00 00 	mov    0x5176(%rip),%rax        # 11118 <g_222>
    bfa2:	48 83 f8 20          	cmp    $0x20,%rax
    bfa6:	0f 85 25 ff ff ff    	jne    bed1 <func_21+0x3c0>
    bfac:	48 8b 85 88 fc ff ff 	mov    -0x378(%rbp),%rax
    bfb3:	89 c3                	mov    %eax,%ebx
    bfb5:	48 83 bd 88 fc ff ff 	cmpq   $0x0,-0x378(%rbp)
    bfbc:	00 
    bfbd:	74 2c                	je     bfeb <func_21+0x4da>
    bfbf:	48 8b 85 a0 fc ff ff 	mov    -0x360(%rbp),%rax
    bfc6:	8b 00                	mov    (%rax),%eax
    bfc8:	0f b6 d0             	movzbl %al,%edx
    bfcb:	48 8b 85 a0 fc ff ff 	mov    -0x360(%rbp),%rax
    bfd2:	8b 00                	mov    (%rax),%eax
    bfd4:	0f b6 c0             	movzbl %al,%eax
    bfd7:	89 d6                	mov    %edx,%esi
    bfd9:	89 c7                	mov    %eax,%edi
    bfdb:	e8 98 bb ff ff       	callq  7b78 <safe_sub_func_uint8_t_u_u>
    bfe0:	84 c0                	test   %al,%al
    bfe2:	74 07                	je     bfeb <func_21+0x4da>
    bfe4:	b8 01 00 00 00       	mov    $0x1,%eax
    bfe9:	eb 05                	jmp    bff0 <func_21+0x4df>
    bfeb:	b8 00 00 00 00       	mov    $0x0,%eax
    bff0:	0f b7 d0             	movzwl %ax,%edx
    bff3:	48 8b 85 b0 fc ff ff 	mov    -0x350(%rbp),%rax
    bffa:	0f b7 00             	movzwl (%rax),%eax
    bffd:	8d 48 01             	lea    0x1(%rax),%ecx
    c000:	48 8b 85 b0 fc ff ff 	mov    -0x350(%rbp),%rax
    c007:	66 89 08             	mov    %cx,(%rax)
    c00a:	48 8b 85 b0 fc ff ff 	mov    -0x350(%rbp),%rax
    c011:	0f b7 00             	movzwl (%rax),%eax
    c014:	0f b7 c0             	movzwl %ax,%eax
    c017:	89 d6                	mov    %edx,%esi
    c019:	89 c7                	mov    %eax,%edi
    c01b:	e8 ff bc ff ff       	callq  7d1f <safe_sub_func_uint16_t_u_u>
    c020:	48 8b 85 e0 fc ff ff 	mov    -0x320(%rbp),%rax
    c027:	48 8b 00             	mov    (%rax),%rax
    c02a:	48 8d 50 01          	lea    0x1(%rax),%rdx
    c02e:	48 8b 85 e0 fc ff ff 	mov    -0x320(%rbp),%rax
    c035:	48 89 10             	mov    %rdx,(%rax)
    c038:	8b 05 02 50 00 00    	mov    0x5002(%rip),%eax        # 11040 <g_116>
    c03e:	35 d6 94 00 00       	xor    $0x94d6,%eax
    c043:	89 c2                	mov    %eax,%edx
    c045:	0f b7 05 4a 50 00 00 	movzwl 0x504a(%rip),%eax        # 11096 <g_215+0x16>
    c04c:	98                   	cwtl   
    c04d:	39 c2                	cmp    %eax,%edx
    c04f:	0f 9d c0             	setge  %al
    c052:	0f b6 d0             	movzbl %al,%edx
    c055:	48 8b 85 e8 fc ff ff 	mov    -0x318(%rbp),%rax
    c05c:	48 89 10             	mov    %rdx,(%rax)
    c05f:	48 8b 85 e8 fc ff ff 	mov    -0x318(%rbp),%rax
    c066:	48 8b 00             	mov    (%rax),%rax
    c069:	48 83 f8 01          	cmp    $0x1,%rax
    c06d:	0f 97 c0             	seta   %al
    c070:	0f b6 c0             	movzbl %al,%eax
    c073:	be 0a 00 00 00       	mov    $0xa,%esi
    c078:	89 c7                	mov    %eax,%edi
    c07a:	e8 ab b4 ff ff       	callq  752a <safe_rshift_func_int16_t_s_s>
    c07f:	0f bf d0             	movswl %ax,%edx
    c082:	48 8b 85 a0 fc ff ff 	mov    -0x360(%rbp),%rax
    c089:	8b 00                	mov    (%rax),%eax
    c08b:	39 c2                	cmp    %eax,%edx
    c08d:	0f 9c c0             	setl   %al
    c090:	0f b6 c0             	movzbl %al,%eax
    c093:	89 de                	mov    %ebx,%esi
    c095:	89 c7                	mov    %eax,%edi
    c097:	e8 f1 bb ff ff       	callq  7c8d <safe_rshift_func_uint8_t_u_s>
    c09c:	84 c0                	test   %al,%al
    c09e:	0f 95 c0             	setne  %al
    c0a1:	0f b6 c0             	movzbl %al,%eax
    c0a4:	be 9a 3a 00 00       	mov    $0x3a9a,%esi
    c0a9:	89 c7                	mov    %eax,%edi
    c0ab:	e8 45 b3 ff ff       	callq  73f5 <safe_mul_func_int16_t_s_s>
    c0b0:	0f bf d0             	movswl %ax,%edx
    c0b3:	48 8b 85 a0 fc ff ff 	mov    -0x360(%rbp),%rax
    c0ba:	89 10                	mov    %edx,(%rax)
    c0bc:	66 c7 05 a5 50 00 00 	movw   $0x12,0x50a5(%rip)        # 1116a <g_404>
    c0c3:	12 00 
    c0c5:	90                   	nop
    c0c6:	0f b7 05 9d 50 00 00 	movzwl 0x509d(%rip),%eax        # 1116a <g_404>
    c0cd:	66 83 f8 08          	cmp    $0x8,%ax
    c0d1:	75 08                	jne    c0db <func_21+0x5ca>
    c0d3:	b8 ff ff ff ff       	mov    $0xffffffff,%eax
    c0d8:	98                   	cwtl   
    c0d9:	eb 25                	jmp    c100 <func_21+0x5ef>
    c0db:	0f b6 05 6e 4f 00 00 	movzbl 0x4f6e(%rip),%eax        # 11050 <g_156>
    c0e2:	83 c0 01             	add    $0x1,%eax
    c0e5:	88 05 65 4f 00 00    	mov    %al,0x4f65(%rip)        # 11050 <g_156>
    c0eb:	0f b6 05 5e 4f 00 00 	movzbl 0x4f5e(%rip),%eax        # 11050 <g_156>
    c0f2:	3c 24                	cmp    $0x24,%al
    c0f4:	0f 87 49 fd ff ff    	ja     be43 <func_21+0x332>
    c0fa:	8b 85 94 fc ff ff    	mov    -0x36c(%rbp),%eax
    c100:	48 8b 4d e8          	mov    -0x18(%rbp),%rcx
    c104:	64 48 33 0c 25 28 00 	xor    %fs:0x28,%rcx
    c10b:	00 00 
    c10d:	74 05                	je     c114 <func_21+0x603>
    c10f:	e8 5c af ff ff       	callq  7070 <__stack_chk_fail@plt>
    c114:	48 81 c4 78 03 00 00 	add    $0x378,%rsp
    c11b:	5b                   	pop    %rbx
    c11c:	5d                   	pop    %rbp
    c11d:	c3                   	retq   

000000000000c11e <func_25>:
    c11e:	f3 0f 1e fa          	endbr64 
    c122:	55                   	push   %rbp
    c123:	48 89 e5             	mov    %rsp,%rbp
    c126:	48 83 c4 80          	add    $0xffffffffffffff80,%rsp
    c12a:	89 fa                	mov    %edi,%edx
    c12c:	89 f0                	mov    %esi,%eax
    c12e:	66 89 55 8c          	mov    %dx,-0x74(%rbp)
    c132:	66 89 45 88          	mov    %ax,-0x78(%rbp)
    c136:	64 48 8b 04 25 28 00 	mov    %fs:0x28,%rax
    c13d:	00 00 
    c13f:	48 89 45 f8          	mov    %rax,-0x8(%rbp)
    c143:	31 c0                	xor    %eax,%eax
    c145:	48 8d 05 dc 71 00 00 	lea    0x71dc(%rip),%rax        # 13328 <g_263>
    c14c:	48 89 45 a0          	mov    %rax,-0x60(%rbp)
    c150:	48 8d 05 d1 71 00 00 	lea    0x71d1(%rip),%rax        # 13328 <g_263>
    c157:	48 89 45 a8          	mov    %rax,-0x58(%rbp)
    c15b:	48 8d 05 c6 71 00 00 	lea    0x71c6(%rip),%rax        # 13328 <g_263>
    c162:	48 89 45 b0          	mov    %rax,-0x50(%rbp)
    c166:	48 8d 05 bb 71 00 00 	lea    0x71bb(%rip),%rax        # 13328 <g_263>
    c16d:	48 89 45 b8          	mov    %rax,-0x48(%rbp)
    c171:	48 8d 05 b0 71 00 00 	lea    0x71b0(%rip),%rax        # 13328 <g_263>
    c178:	48 89 45 c0          	mov    %rax,-0x40(%rbp)
    c17c:	48 8d 05 a5 71 00 00 	lea    0x71a5(%rip),%rax        # 13328 <g_263>
    c183:	48 89 45 c8          	mov    %rax,-0x38(%rbp)
    c187:	48 8d 05 9a 71 00 00 	lea    0x719a(%rip),%rax        # 13328 <g_263>
    c18e:	48 89 45 d0          	mov    %rax,-0x30(%rbp)
    c192:	48 8d 05 8f 71 00 00 	lea    0x718f(%rip),%rax        # 13328 <g_263>
    c199:	48 89 45 d8          	mov    %rax,-0x28(%rbp)
    c19d:	48 8d 05 84 71 00 00 	lea    0x7184(%rip),%rax        # 13328 <g_263>
    c1a4:	48 89 45 e0          	mov    %rax,-0x20(%rbp)
    c1a8:	48 8d 05 79 71 00 00 	lea    0x7179(%rip),%rax        # 13328 <g_263>
    c1af:	48 89 45 e8          	mov    %rax,-0x18(%rbp)
    c1b3:	c7 05 af 7c 00 00 00 	movl   $0x0,0x7caf(%rip)        # 13e6c <g_119>
    c1ba:	00 00 00 
    c1bd:	eb 7e                	jmp    c23d <func_25+0x11f>
    c1bf:	66 83 7d 88 00       	cmpw   $0x0,-0x78(%rbp)
    c1c4:	0f 85 84 00 00 00    	jne    c24e <func_25+0x130>
    c1ca:	48 8b 05 cf 71 00 00 	mov    0x71cf(%rip),%rax        # 133a0 <g_274>
    c1d1:	48 8b 55 d8          	mov    -0x28(%rbp),%rdx
    c1d5:	48 89 10             	mov    %rdx,(%rax)
    c1d8:	48 8b 05 b1 71 00 00 	mov    0x71b1(%rip),%rax        # 13390 <g_268>
    c1df:	c7 00 08 00 00 00    	movl   $0x8,(%rax)
    c1e5:	c6 05 7e 7c 00 00 00 	movb   $0x0,0x7c7e(%rip)        # 13e6a <g_70>
    c1ec:	eb 35                	jmp    c223 <func_25+0x105>
    c1ee:	48 8d 05 2f 4e 00 00 	lea    0x4e2f(%rip),%rax        # 11024 <g_14>
    c1f5:	48 89 45 98          	mov    %rax,-0x68(%rbp)
    c1f9:	48 8b 05 f0 70 00 00 	mov    0x70f0(%rip),%rax        # 132f0 <g_92>
    c200:	48 8b 55 98          	mov    -0x68(%rbp),%rdx
    c204:	48 89 10             	mov    %rdx,(%rax)
    c207:	0f b6 05 5c 7c 00 00 	movzbl 0x7c5c(%rip),%eax        # 13e6a <g_70>
    c20e:	0f b6 c0             	movzbl %al,%eax
    c211:	be 01 00 00 00       	mov    $0x1,%esi
    c216:	89 c7                	mov    %eax,%edi
    c218:	e8 e2 ba ff ff       	callq  7cff <safe_add_func_uint16_t_u_u>
    c21d:	88 05 47 7c 00 00    	mov    %al,0x7c47(%rip)        # 13e6a <g_70>
    c223:	0f b6 05 40 7c 00 00 	movzbl 0x7c40(%rip),%eax        # 13e6a <g_70>
    c22a:	3c 28                	cmp    $0x28,%al
    c22c:	77 c0                	ja     c1ee <func_25+0xd0>
    c22e:	8b 05 38 7c 00 00    	mov    0x7c38(%rip),%eax        # 13e6c <g_119>
    c234:	83 e8 01             	sub    $0x1,%eax
    c237:	89 05 2f 7c 00 00    	mov    %eax,0x7c2f(%rip)        # 13e6c <g_119>
    c23d:	8b 05 29 7c 00 00    	mov    0x7c29(%rip),%eax        # 13e6c <g_119>
    c243:	83 f8 e4             	cmp    $0xffffffe4,%eax
    c246:	0f 8d 73 ff ff ff    	jge    c1bf <func_25+0xa1>
    c24c:	eb 01                	jmp    c24f <func_25+0x131>
    c24e:	90                   	nop
    c24f:	0f b7 05 32 4e 00 00 	movzwl 0x4e32(%rip),%eax        # 11088 <g_215+0x8>
    c256:	48 8b 4d f8          	mov    -0x8(%rbp),%rcx
    c25a:	64 48 33 0c 25 28 00 	xor    %fs:0x28,%rcx
    c261:	00 00 
    c263:	74 05                	je     c26a <func_25+0x14c>
    c265:	e8 06 ae ff ff       	callq  7070 <__stack_chk_fail@plt>
    c26a:	c9                   	leaveq 
    c26b:	c3                   	retq   

000000000000c26c <func_30>:
    c26c:	f3 0f 1e fa          	endbr64 
    c270:	55                   	push   %rbp
    c271:	48 89 e5             	mov    %rsp,%rbp
    c274:	89 7d fc             	mov    %edi,-0x4(%rbp)
    c277:	48 8b 15 12 71 00 00 	mov    0x7112(%rip),%rdx        # 13390 <g_268>
    c27e:	48 8b 05 0b 71 00 00 	mov    0x710b(%rip),%rax        # 13390 <g_268>
    c285:	8b 12                	mov    (%rdx),%edx
    c287:	89 10                	mov    %edx,(%rax)
    c289:	8b 45 fc             	mov    -0x4(%rbp),%eax
    c28c:	5d                   	pop    %rbp
    c28d:	c3                   	retq   

000000000000c28e <func_32>:
    c28e:	f3 0f 1e fa          	endbr64 
    c292:	55                   	push   %rbp
    c293:	48 89 e5             	mov    %rsp,%rbp
    c296:	41 57                	push   %r15
    c298:	41 56                	push   %r14
    c29a:	41 55                	push   %r13
    c29c:	41 54                	push   %r12
    c29e:	53                   	push   %rbx
    c29f:	48 81 ec 98 00 00 00 	sub    $0x98,%rsp
    c2a6:	89 bd 6c ff ff ff    	mov    %edi,-0x94(%rbp)
    c2ac:	48 89 b5 60 ff ff ff 	mov    %rsi,-0xa0(%rbp)
    c2b3:	64 48 8b 04 25 28 00 	mov    %fs:0x28,%rax
    c2ba:	00 00 
    c2bc:	48 89 45 c8          	mov    %rax,-0x38(%rbp)
    c2c0:	31 c0                	xor    %eax,%eax
    c2c2:	48 8d 05 a1 7b 00 00 	lea    0x7ba1(%rip),%rax        # 13e6a <g_70>
    c2c9:	48 89 85 78 ff ff ff 	mov    %rax,-0x88(%rbp)
    c2d0:	c7 45 a0 4e e3 a2 37 	movl   $0x37a2e34e,-0x60(%rbp)
    c2d7:	c7 45 a4 4e e3 a2 37 	movl   $0x37a2e34e,-0x5c(%rbp)
    c2de:	c7 45 a8 4e e3 a2 37 	movl   $0x37a2e34e,-0x58(%rbp)
    c2e5:	c7 45 ac 4e e3 a2 37 	movl   $0x37a2e34e,-0x54(%rbp)
    c2ec:	c7 45 b0 4e e3 a2 37 	movl   $0x37a2e34e,-0x50(%rbp)
    c2f3:	c7 45 b4 4e e3 a2 37 	movl   $0x37a2e34e,-0x4c(%rbp)
    c2fa:	c7 45 b8 4e e3 a2 37 	movl   $0x37a2e34e,-0x48(%rbp)
    c301:	c7 45 bc 4e e3 a2 37 	movl   $0x37a2e34e,-0x44(%rbp)
    c308:	c7 45 c0 4e e3 a2 37 	movl   $0x37a2e34e,-0x40(%rbp)
    c30f:	c7 45 c4 4e e3 a2 37 	movl   $0x37a2e34e,-0x3c(%rbp)
    c316:	48 8d 05 17 4d 00 00 	lea    0x4d17(%rip),%rax        # 11034 <g_77+0x4>
    c31d:	48 89 45 80          	mov    %rax,-0x80(%rbp)
    c321:	48 8d 05 44 7b 00 00 	lea    0x7b44(%rip),%rax        # 13e6c <g_119>
    c328:	48 89 45 88          	mov    %rax,-0x78(%rbp)
    c32c:	c7 85 74 ff ff ff e7 	movl   $0xc3860fe7,-0x8c(%rbp)
    c333:	0f 86 c3 
    c336:	c7 85 70 ff ff ff 00 	movl   $0x0,-0x90(%rbp)
    c33d:	00 00 00 
    c340:	eb 16                	jmp    c358 <func_32+0xca>
    c342:	8b 85 70 ff ff ff    	mov    -0x90(%rbp),%eax
    c348:	48 98                	cltq   
    c34a:	66 c7 44 45 96 00 00 	movw   $0x0,-0x6a(%rbp,%rax,2)
    c351:	83 85 70 ff ff ff 01 	addl   $0x1,-0x90(%rbp)
    c358:	83 bd 70 ff ff ff 04 	cmpl   $0x4,-0x90(%rbp)
    c35f:	7e e1                	jle    c342 <func_32+0xb4>
    c361:	8b 05 bd 4c 00 00    	mov    0x4cbd(%rip),%eax        # 11024 <g_14>
    c367:	89 85 68 ff ff ff    	mov    %eax,-0x98(%rbp)
    c36d:	44 8b ad 74 ff ff ff 	mov    -0x8c(%rbp),%r13d
    c374:	44 8b 25 a9 4c 00 00 	mov    0x4ca9(%rip),%r12d        # 11024 <g_14>
    c37b:	0f b7 45 9a          	movzwl -0x66(%rbp),%eax
    c37f:	44 0f b7 f8          	movzwl %ax,%r15d
    c383:	44 8b 35 9a 4c 00 00 	mov    0x4c9a(%rip),%r14d        # 11024 <g_14>
    c38a:	0f b7 45 9e          	movzwl -0x62(%rbp),%eax
    c38e:	0f b7 d8             	movzwl %ax,%ebx
    c391:	0f b7 05 d0 7a 00 00 	movzwl 0x7ad0(%rip),%eax        # 13e68 <g_38>
    c398:	0f b7 c0             	movzwl %ax,%eax
    c39b:	48 89 85 58 ff ff ff 	mov    %rax,-0xa8(%rbp)
    c3a2:	0f b7 45 96          	movzwl -0x6a(%rbp),%eax
    c3a6:	0f be c0             	movsbl %al,%eax
    c3a9:	89 85 54 ff ff ff    	mov    %eax,-0xac(%rbp)
    c3af:	0f b7 45 9a          	movzwl -0x66(%rbp),%eax
    c3b3:	0f b6 c0             	movzbl %al,%eax
    c3b6:	89 85 50 ff ff ff    	mov    %eax,-0xb0(%rbp)
    c3bc:	48 8b 85 78 ff ff ff 	mov    -0x88(%rbp),%rax
    c3c3:	0f b6 00             	movzbl (%rax),%eax
    c3c6:	8d 48 ff             	lea    -0x1(%rax),%ecx
    c3c9:	48 8b 95 78 ff ff ff 	mov    -0x88(%rbp),%rdx
    c3d0:	88 0a                	mov    %cl,(%rdx)
    c3d2:	83 c8 2b             	or     $0x2b,%eax
    c3d5:	0f b6 c0             	movzbl %al,%eax
    c3d8:	48 89 85 48 ff ff ff 	mov    %rax,-0xb8(%rbp)
    c3df:	8b 85 6c ff ff ff    	mov    -0x94(%rbp),%eax
    c3e5:	48 ba 39 12 7b 5c 0b 	movabs $0x9447610b5c7b1239,%rdx
    c3ec:	61 47 94 
    c3ef:	48 21 c2             	and    %rax,%rdx
    c3f2:	b8 ff ff ff ff       	mov    $0xffffffff,%eax
    c3f7:	48 39 c2             	cmp    %rax,%rdx
    c3fa:	0f 96 c0             	setbe  %al
    c3fd:	0f b6 c0             	movzbl %al,%eax
    c400:	89 c7                	mov    %eax,%edi
    c402:	e8 9f ba ff ff       	callq  7ea6 <safe_unary_minus_func_uint32_t_u>
    c407:	bf 01 00 00 00       	mov    $0x1,%edi
    c40c:	e8 85 b1 ff ff       	callq  7596 <safe_unary_minus_func_int32_t_s>
    c411:	48 98                	cltq   
    c413:	48 39 85 48 ff ff ff 	cmp    %rax,-0xb8(%rbp)
    c41a:	75 07                	jne    c423 <func_32+0x195>
    c41c:	0f b7 45 96          	movzwl -0x6a(%rbp),%eax
    c420:	66 85 c0             	test   %ax,%ax
    c423:	8b b5 50 ff ff ff    	mov    -0xb0(%rbp),%esi
    c429:	bf f2 00 00 00       	mov    $0xf2,%edi
    c42e:	e8 45 b7 ff ff       	callq  7b78 <safe_sub_func_uint8_t_u_u>
    c433:	c7 45 c0 01 00 00 00 	movl   $0x1,-0x40(%rbp)
    c43a:	8b 45 c0             	mov    -0x40(%rbp),%eax
    c43d:	89 c1                	mov    %eax,%ecx
    c43f:	0f b7 55 9a          	movzwl -0x66(%rbp),%edx
    c443:	0f b7 45 9c          	movzwl -0x64(%rbp),%eax
    c447:	66 39 c2             	cmp    %ax,%dx
    c44a:	0f 92 c0             	setb   %al
    c44d:	0f b6 c0             	movzbl %al,%eax
    c450:	89 ce                	mov    %ecx,%esi
    c452:	89 c7                	mov    %eax,%edi
    c454:	e8 21 ba ff ff       	callq  7e7a <safe_rshift_func_uint16_t_u_u>
    c459:	0f b7 d0             	movzwl %ax,%edx
    c45c:	0f b7 45 9a          	movzwl -0x66(%rbp),%eax
    c460:	0f b7 c0             	movzwl %ax,%eax
    c463:	48 89 d6             	mov    %rdx,%rsi
    c466:	48 89 c7             	mov    %rax,%rdi
    c469:	e8 dd bb ff ff       	callq  804b <safe_sub_func_uint64_t_u_u>
    c46e:	98                   	cwtl   
    c46f:	be 0e 00 00 00       	mov    $0xe,%esi
    c474:	89 c7                	mov    %eax,%edi
    c476:	e8 e8 b0 ff ff       	callq  7563 <safe_rshift_func_int16_t_s_u>
    c47b:	0f be c0             	movsbl %al,%eax
    c47e:	8b b5 54 ff ff ff    	mov    -0xac(%rbp),%esi
    c484:	89 c7                	mov    %eax,%edi
    c486:	e8 87 ad ff ff       	callq  7212 <safe_mul_func_int8_t_s_s>
    c48b:	3c fb                	cmp    $0xfb,%al
    c48d:	0f 95 c0             	setne  %al
    c490:	0f b6 c0             	movzbl %al,%eax
    c493:	48 8b b5 58 ff ff ff 	mov    -0xa8(%rbp),%rsi
    c49a:	48 89 c7             	mov    %rax,%rdi
    c49d:	e8 8c bb ff ff       	callq  802e <safe_add_func_uint64_t_u_u>
    c4a2:	0c cb                	or     $0xcb,%al
    c4a4:	89 c2                	mov    %eax,%edx
    c4a6:	48 8b 45 80          	mov    -0x80(%rbp),%rax
    c4aa:	89 10                	mov    %edx,(%rax)
    c4ac:	0f b7 05 b5 79 00 00 	movzwl 0x79b5(%rip),%eax        # 13e68 <g_38>
    c4b3:	0f b7 c0             	movzwl %ax,%eax
    c4b6:	39 85 6c ff ff ff    	cmp    %eax,-0x94(%rbp)
    c4bc:	74 0a                	je     c4c8 <func_32+0x23a>
    c4be:	48 8b 45 80          	mov    -0x80(%rbp),%rax
    c4c2:	8b 00                	mov    (%rax),%eax
    c4c4:	85 c0                	test   %eax,%eax
    c4c6:	74 07                	je     c4cf <func_32+0x241>
    c4c8:	b8 01 00 00 00       	mov    $0x1,%eax
    c4cd:	eb 05                	jmp    c4d4 <func_32+0x246>
    c4cf:	b8 00 00 00 00       	mov    $0x0,%eax
    c4d4:	89 de                	mov    %ebx,%esi
    c4d6:	89 c7                	mov    %eax,%edi
    c4d8:	e8 ef b1 ff ff       	callq  76cc <safe_mod_func_int32_t_s_s>
    c4dd:	88 05 88 79 00 00    	mov    %al,0x7988(%rip)        # 13e6b <g_78>
    c4e3:	0f b6 05 81 79 00 00 	movzbl 0x7981(%rip),%eax        # 13e6b <g_78>
    c4ea:	84 c0                	test   %al,%al
    c4ec:	75 09                	jne    c4f7 <func_32+0x269>
    c4ee:	83 bd 6c ff ff ff 00 	cmpl   $0x0,-0x94(%rbp)
    c4f5:	74 07                	je     c4fe <func_32+0x270>
    c4f7:	b8 01 00 00 00       	mov    $0x1,%eax
    c4fc:	eb 05                	jmp    c503 <func_32+0x275>
    c4fe:	b8 00 00 00 00       	mov    $0x0,%eax
    c503:	0f be d0             	movsbl %al,%edx
    c506:	0f b7 05 5b 79 00 00 	movzwl 0x795b(%rip),%eax        # 13e68 <g_38>
    c50d:	0f be c0             	movsbl %al,%eax
    c510:	89 d6                	mov    %edx,%esi
    c512:	89 c7                	mov    %eax,%edi
    c514:	e8 51 ad ff ff       	callq  726a <safe_div_func_int8_t_s_s>
    c519:	66 98                	cbtw   
    c51b:	0f b7 c0             	movzwl %ax,%eax
    c51e:	48 8b 1d cb 6d 00 00 	mov    0x6dcb(%rip),%rbx        # 132f0 <g_92>
    c525:	48 8d 55 96          	lea    -0x6a(%rbp),%rdx
    c529:	48 8d 72 04          	lea    0x4(%rdx),%rsi
    c52d:	44 89 f9             	mov    %r15d,%ecx
    c530:	44 89 f2             	mov    %r14d,%edx
    c533:	89 c7                	mov    %eax,%edi
    c535:	e8 cf 08 00 00       	callq  ce09 <func_47>
    c53a:	48 89 03             	mov    %rax,(%rbx)
    c53d:	48 8b 03             	mov    (%rbx),%rax
    c540:	48 39 85 60 ff ff ff 	cmp    %rax,-0xa0(%rbp)
    c547:	0f 95 c0             	setne  %al
    c54a:	0f b6 c0             	movzbl %al,%eax
    c54d:	be 07 00 00 00       	mov    $0x7,%esi
    c552:	89 c7                	mov    %eax,%edi
    c554:	e8 88 af ff ff       	callq  74e1 <safe_lshift_func_int16_t_s_u>
    c559:	48 8b 55 88          	mov    -0x78(%rbp),%rdx
    c55d:	8b 12                	mov    (%rdx),%edx
    c55f:	98                   	cwtl   
    c560:	21 c2                	and    %eax,%edx
    c562:	48 8b 45 88          	mov    -0x78(%rbp),%rax
    c566:	89 10                	mov    %edx,(%rax)
    c568:	48 8b 45 88          	mov    -0x78(%rbp),%rax
    c56c:	8b 00                	mov    (%rax),%eax
    c56e:	48 8b 1d 7b 6d 00 00 	mov    0x6d7b(%rip),%rbx        # 132f0 <g_92>
    c575:	8b 95 6c ff ff ff    	mov    -0x94(%rbp),%edx
    c57b:	41 89 d0             	mov    %edx,%r8d
    c57e:	8b 8d 68 ff ff ff    	mov    -0x98(%rbp),%ecx
    c584:	4c 89 ea             	mov    %r13,%rdx
    c587:	44 89 e6             	mov    %r12d,%esi
    c58a:	89 c7                	mov    %eax,%edi
    c58c:	e8 2f 00 00 00       	callq  c5c0 <func_39>
    c591:	48 89 03             	mov    %rax,(%rbx)
    c594:	8b 85 6c ff ff ff    	mov    -0x94(%rbp),%eax
    c59a:	48 8b 5d c8          	mov    -0x38(%rbp),%rbx
    c59e:	64 48 33 1c 25 28 00 	xor    %fs:0x28,%rbx
    c5a5:	00 00 
    c5a7:	74 05                	je     c5ae <func_32+0x320>
    c5a9:	e8 c2 aa ff ff       	callq  7070 <__stack_chk_fail@plt>
    c5ae:	48 81 c4 98 00 00 00 	add    $0x98,%rsp
    c5b5:	5b                   	pop    %rbx
    c5b6:	41 5c                	pop    %r12
    c5b8:	41 5d                	pop    %r13
    c5ba:	41 5e                	pop    %r14
    c5bc:	41 5f                	pop    %r15
    c5be:	5d                   	pop    %rbp
    c5bf:	c3                   	retq   

000000000000c5c0 <func_39>:
    c5c0:	f3 0f 1e fa          	endbr64 
    c5c4:	55                   	push   %rbp
    c5c5:	48 89 e5             	mov    %rsp,%rbp
    c5c8:	41 57                	push   %r15
    c5ca:	41 56                	push   %r14
    c5cc:	41 55                	push   %r13
    c5ce:	41 54                	push   %r12
    c5d0:	53                   	push   %rbx
    c5d1:	48 81 ec 98 02 00 00 	sub    $0x298,%rsp
    c5d8:	89 bd 5c fd ff ff    	mov    %edi,-0x2a4(%rbp)
    c5de:	89 b5 58 fd ff ff    	mov    %esi,-0x2a8(%rbp)
    c5e4:	48 89 95 50 fd ff ff 	mov    %rdx,-0x2b0(%rbp)
    c5eb:	89 8d 4c fd ff ff    	mov    %ecx,-0x2b4(%rbp)
    c5f1:	44 89 85 48 fd ff ff 	mov    %r8d,-0x2b8(%rbp)
    c5f8:	64 48 8b 04 25 28 00 	mov    %fs:0x28,%rax
    c5ff:	00 00 
    c601:	48 89 45 c8          	mov    %rax,-0x38(%rbp)
    c605:	31 c0                	xor    %eax,%eax
    c607:	c7 85 78 fd ff ff fc 	movl   $0xfffffffc,-0x288(%rbp)
    c60e:	ff ff ff 
    c611:	c7 85 6c fd ff ff 3d 	movl   $0x9459313d,-0x294(%rbp)
    c618:	31 59 94 
    c61b:	66 c7 85 66 fd ff ff 	movw   $0x0,-0x29a(%rbp)
    c622:	00 00 
    c624:	c6 85 65 fd ff ff f7 	movb   $0xf7,-0x29b(%rbp)
    c62b:	c7 85 7c fd ff ff 07 	movl   $0x7,-0x284(%rbp)
    c632:	00 00 00 
    c635:	48 c7 85 80 fd ff ff 	movq   $0x2,-0x280(%rbp)
    c63c:	02 00 00 00 
    c640:	48 c7 85 c0 fe ff ff 	movq   $0x0,-0x140(%rbp)
    c647:	00 00 00 00 
    c64b:	48 c7 85 c8 fe ff ff 	movq   $0x0,-0x138(%rbp)
    c652:	00 00 00 00 
    c656:	48 8d 85 65 fd ff ff 	lea    -0x29b(%rbp),%rax
    c65d:	48 89 85 d0 fe ff ff 	mov    %rax,-0x130(%rbp)
    c664:	48 8d 85 65 fd ff ff 	lea    -0x29b(%rbp),%rax
    c66b:	48 89 85 d8 fe ff ff 	mov    %rax,-0x128(%rbp)
    c672:	48 c7 85 e0 fe ff ff 	movq   $0x0,-0x120(%rbp)
    c679:	00 00 00 00 
    c67d:	48 c7 85 e8 fe ff ff 	movq   $0x0,-0x118(%rbp)
    c684:	00 00 00 00 
    c688:	48 8d 85 65 fd ff ff 	lea    -0x29b(%rbp),%rax
    c68f:	48 89 85 f0 fe ff ff 	mov    %rax,-0x110(%rbp)
    c696:	48 8d 85 65 fd ff ff 	lea    -0x29b(%rbp),%rax
    c69d:	48 89 85 f8 fe ff ff 	mov    %rax,-0x108(%rbp)
    c6a4:	48 c7 85 00 ff ff ff 	movq   $0x0,-0x100(%rbp)
    c6ab:	00 00 00 00 
    c6af:	48 c7 85 08 ff ff ff 	movq   $0x0,-0xf8(%rbp)
    c6b6:	00 00 00 00 
    c6ba:	48 8d 85 65 fd ff ff 	lea    -0x29b(%rbp),%rax
    c6c1:	48 89 85 10 ff ff ff 	mov    %rax,-0xf0(%rbp)
    c6c8:	48 8d 85 65 fd ff ff 	lea    -0x29b(%rbp),%rax
    c6cf:	48 89 85 18 ff ff ff 	mov    %rax,-0xe8(%rbp)
    c6d6:	48 c7 85 20 ff ff ff 	movq   $0x0,-0xe0(%rbp)
    c6dd:	00 00 00 00 
    c6e1:	48 c7 85 28 ff ff ff 	movq   $0x0,-0xd8(%rbp)
    c6e8:	00 00 00 00 
    c6ec:	48 8d 85 65 fd ff ff 	lea    -0x29b(%rbp),%rax
    c6f3:	48 89 85 30 ff ff ff 	mov    %rax,-0xd0(%rbp)
    c6fa:	48 8d 85 65 fd ff ff 	lea    -0x29b(%rbp),%rax
    c701:	48 89 85 38 ff ff ff 	mov    %rax,-0xc8(%rbp)
    c708:	48 c7 85 40 ff ff ff 	movq   $0x0,-0xc0(%rbp)
    c70f:	00 00 00 00 
    c713:	48 c7 85 48 ff ff ff 	movq   $0x0,-0xb8(%rbp)
    c71a:	00 00 00 00 
    c71e:	48 8d 85 65 fd ff ff 	lea    -0x29b(%rbp),%rax
    c725:	48 89 85 50 ff ff ff 	mov    %rax,-0xb0(%rbp)
    c72c:	48 8d 85 65 fd ff ff 	lea    -0x29b(%rbp),%rax
    c733:	48 89 85 58 ff ff ff 	mov    %rax,-0xa8(%rbp)
    c73a:	48 c7 85 60 ff ff ff 	movq   $0x0,-0xa0(%rbp)
    c741:	00 00 00 00 
    c745:	48 c7 85 68 ff ff ff 	movq   $0x0,-0x98(%rbp)
    c74c:	00 00 00 00 
    c750:	48 8d 85 65 fd ff ff 	lea    -0x29b(%rbp),%rax
    c757:	48 89 85 70 ff ff ff 	mov    %rax,-0x90(%rbp)
    c75e:	48 8d 85 65 fd ff ff 	lea    -0x29b(%rbp),%rax
    c765:	48 89 85 78 ff ff ff 	mov    %rax,-0x88(%rbp)
    c76c:	48 c7 45 80 00 00 00 	movq   $0x0,-0x80(%rbp)
    c773:	00 
    c774:	48 c7 45 88 00 00 00 	movq   $0x0,-0x78(%rbp)
    c77b:	00 
    c77c:	48 8d 85 65 fd ff ff 	lea    -0x29b(%rbp),%rax
    c783:	48 89 45 90          	mov    %rax,-0x70(%rbp)
    c787:	48 8d 85 65 fd ff ff 	lea    -0x29b(%rbp),%rax
    c78e:	48 89 45 98          	mov    %rax,-0x68(%rbp)
    c792:	48 c7 45 a0 00 00 00 	movq   $0x0,-0x60(%rbp)
    c799:	00 
    c79a:	48 c7 45 a8 00 00 00 	movq   $0x0,-0x58(%rbp)
    c7a1:	00 
    c7a2:	48 8d 85 65 fd ff ff 	lea    -0x29b(%rbp),%rax
    c7a9:	48 89 45 b0          	mov    %rax,-0x50(%rbp)
    c7ad:	48 8d 85 65 fd ff ff 	lea    -0x29b(%rbp),%rax
    c7b4:	48 89 45 b8          	mov    %rax,-0x48(%rbp)
    c7b8:	48 8d 05 4b 49 00 00 	lea    0x494b(%rip),%rax        # 1110a <g_215+0x8a>
    c7bf:	48 89 85 88 fd ff ff 	mov    %rax,-0x278(%rbp)
    c7c6:	48 8d 05 43 49 00 00 	lea    0x4943(%rip),%rax        # 11110 <g_218>
    c7cd:	48 89 85 90 fd ff ff 	mov    %rax,-0x270(%rbp)
    c7d4:	48 8d 05 3d 49 00 00 	lea    0x493d(%rip),%rax        # 11118 <g_222>
    c7db:	48 89 85 98 fd ff ff 	mov    %rax,-0x268(%rbp)
    c7e2:	48 8d 05 87 76 00 00 	lea    0x7687(%rip),%rax        # 13e70 <g_224>
    c7e9:	48 89 85 a0 fd ff ff 	mov    %rax,-0x260(%rbp)
    c7f0:	48 8d 05 74 76 00 00 	lea    0x7674(%rip),%rax        # 13e6b <g_78>
    c7f7:	48 89 85 a8 fd ff ff 	mov    %rax,-0x258(%rbp)
    c7fe:	48 c7 85 b0 fd ff ff 	movq   $0x0,-0x250(%rbp)
    c805:	00 00 00 00 
    c809:	48 8d 05 10 49 00 00 	lea    0x4910(%rip),%rax        # 11120 <g_249>
    c810:	48 89 85 b8 fd ff ff 	mov    %rax,-0x248(%rbp)
    c817:	48 8d 05 2a 48 00 00 	lea    0x482a(%rip),%rax        # 11048 <g_117>
    c81e:	48 89 85 d0 fd ff ff 	mov    %rax,-0x230(%rbp)
    c825:	48 8d 05 1c 48 00 00 	lea    0x481c(%rip),%rax        # 11048 <g_117>
    c82c:	48 89 85 d8 fd ff ff 	mov    %rax,-0x228(%rbp)
    c833:	48 8d 05 0e 48 00 00 	lea    0x480e(%rip),%rax        # 11048 <g_117>
    c83a:	48 89 85 e0 fd ff ff 	mov    %rax,-0x220(%rbp)
    c841:	48 8d 05 00 48 00 00 	lea    0x4800(%rip),%rax        # 11048 <g_117>
    c848:	48 89 85 e8 fd ff ff 	mov    %rax,-0x218(%rbp)
    c84f:	48 8d 05 f2 47 00 00 	lea    0x47f2(%rip),%rax        # 11048 <g_117>
    c856:	48 89 85 f0 fd ff ff 	mov    %rax,-0x210(%rbp)
    c85d:	c7 85 70 fd ff ff 00 	movl   $0x0,-0x290(%rbp)
    c864:	00 00 00 
    c867:	66 c7 85 68 fd ff ff 	movw   $0xecab,-0x298(%rbp)
    c86e:	ab ec 
    c870:	c7 85 74 fd ff ff 00 	movl   $0x0,-0x28c(%rbp)
    c877:	00 00 00 
    c87a:	eb 1e                	jmp    c89a <func_39+0x2da>
    c87c:	8b 85 74 fd ff ff    	mov    -0x28c(%rbp),%eax
    c882:	48 98                	cltq   
    c884:	48 8d 15 65 6a 00 00 	lea    0x6a65(%rip),%rdx        # 132f0 <g_92>
    c88b:	48 89 94 c5 00 fe ff 	mov    %rdx,-0x200(%rbp,%rax,8)
    c892:	ff 
    c893:	83 85 74 fd ff ff 01 	addl   $0x1,-0x28c(%rbp)
    c89a:	83 bd 74 fd ff ff 05 	cmpl   $0x5,-0x28c(%rbp)
    c8a1:	7e d9                	jle    c87c <func_39+0x2bc>
    c8a3:	c6 05 c1 75 00 00 03 	movb   $0x3,0x75c1(%rip)        # 13e6b <g_78>
    c8aa:	e9 81 00 00 00       	jmpq   c930 <func_39+0x370>
    c8af:	66 c7 85 6a fd ff ff 	movw   $0xa7d7,-0x296(%rbp)
    c8b6:	d7 a7 
    c8b8:	48 8d 05 39 6a 00 00 	lea    0x6a39(%rip),%rax        # 132f8 <g_131>
    c8bf:	48 89 85 c8 fd ff ff 	mov    %rax,-0x238(%rbp)
    c8c6:	c7 85 30 fe ff ff ff 	movl   $0xffffffff,-0x1d0(%rbp)
    c8cd:	ff ff ff 
    c8d0:	c7 85 34 fe ff ff ff 	movl   $0xffffffff,-0x1cc(%rbp)
    c8d7:	ff ff ff 
    c8da:	c7 85 38 fe ff ff ff 	movl   $0xffffffff,-0x1c8(%rbp)
    c8e1:	ff ff ff 
    c8e4:	c7 85 3c fe ff ff ff 	movl   $0xffffffff,-0x1c4(%rbp)
    c8eb:	ff ff ff 
    c8ee:	c7 85 40 fe ff ff ff 	movl   $0xffffffff,-0x1c0(%rbp)
    c8f5:	ff ff ff 
    c8f8:	c7 85 44 fe ff ff ff 	movl   $0xffffffff,-0x1bc(%rbp)
    c8ff:	ff ff ff 
    c902:	c7 85 48 fe ff ff ff 	movl   $0xffffffff,-0x1b8(%rbp)
    c909:	ff ff ff 
    c90c:	c7 85 4c fe ff ff ff 	movl   $0xffffffff,-0x1b4(%rbp)
    c913:	ff ff ff 
    c916:	c7 85 50 fe ff ff ff 	movl   $0xffffffff,-0x1b0(%rbp)
    c91d:	ff ff ff 
    c920:	0f b6 05 44 75 00 00 	movzbl 0x7544(%rip),%eax        # 13e6b <g_78>
    c927:	83 e8 01             	sub    $0x1,%eax
    c92a:	88 05 3b 75 00 00    	mov    %al,0x753b(%rip)        # 13e6b <g_78>
    c930:	0f b6 05 34 75 00 00 	movzbl 0x7534(%rip),%eax        # 13e6b <g_78>
    c937:	84 c0                	test   %al,%al
    c939:	0f 89 70 ff ff ff    	jns    c8af <func_39+0x2ef>
    c93f:	90                   	nop
    c940:	0f b6 05 24 75 00 00 	movzbl 0x7524(%rip),%eax        # 13e6b <g_78>
    c947:	84 c0                	test   %al,%al
    c949:	90                   	nop
    c94a:	f3 0f 1e fa          	endbr64 
    c94e:	c6 05 16 75 00 00 d7 	movb   $0xd7,0x7516(%rip)        # 13e6b <g_78>
    c955:	0f b6 05 0e 75 00 00 	movzbl 0x750e(%rip),%eax        # 13e6a <g_70>
    c95c:	83 e8 01             	sub    $0x1,%eax
    c95f:	88 05 05 75 00 00    	mov    %al,0x7505(%rip)        # 13e6a <g_70>
    c965:	0f b6 05 fe 74 00 00 	movzbl 0x74fe(%rip),%eax        # 13e6a <g_70>
    c96c:	0f b6 c0             	movzbl %al,%eax
    c96f:	89 85 7c fd ff ff    	mov    %eax,-0x284(%rbp)
    c975:	8b 85 7c fd ff ff    	mov    -0x284(%rbp),%eax
    c97b:	0f b6 c0             	movzbl %al,%eax
    c97e:	be 03 00 00 00       	mov    $0x3,%esi
    c983:	89 c7                	mov    %eax,%edi
    c985:	e8 c2 b2 ff ff       	callq  7c4c <safe_lshift_func_uint8_t_u_u>
    c98a:	0f be c0             	movsbl %al,%eax
    c98d:	be 00 00 00 00       	mov    $0x0,%esi
    c992:	89 c7                	mov    %eax,%edi
    c994:	e8 55 a9 ff ff       	callq  72ee <safe_lshift_func_int8_t_s_u>
    c999:	48 8b 85 88 fd ff ff 	mov    -0x278(%rbp),%rax
    c9a0:	0f b7 00             	movzwl (%rax),%eax
    c9a3:	48 8b 95 80 fd ff ff 	mov    -0x280(%rbp),%rdx
    c9aa:	21 c2                	and    %eax,%edx
    c9ac:	48 8b 85 88 fd ff ff 	mov    -0x278(%rbp),%rax
    c9b3:	66 89 10             	mov    %dx,(%rax)
    c9b6:	48 8b 85 88 fd ff ff 	mov    -0x278(%rbp),%rax
    c9bd:	0f b7 00             	movzwl (%rax),%eax
    c9c0:	98                   	cwtl   
    c9c1:	be 03 00 00 00       	mov    $0x3,%esi
    c9c6:	89 c7                	mov    %eax,%edi
    c9c8:	e8 c5 aa ff ff       	callq  7492 <safe_lshift_func_int16_t_s_s>
    c9cd:	98                   	cwtl   
    c9ce:	31 85 58 fd ff ff    	xor    %eax,-0x2a8(%rbp)
    c9d4:	48 8b 05 1d 69 00 00 	mov    0x691d(%rip),%rax        # 132f8 <g_131>
    c9db:	8b 95 58 fd ff ff    	mov    -0x2a8(%rbp),%edx
    c9e1:	89 10                	mov    %edx,(%rax)
    c9e3:	48 8b 85 90 fd ff ff 	mov    -0x270(%rbp),%rax
    c9ea:	48 8b 18             	mov    (%rax),%rbx
    c9ed:	48 8d 53 01          	lea    0x1(%rbx),%rdx
    c9f1:	48 8b 85 90 fd ff ff 	mov    -0x270(%rbp),%rax
    c9f8:	48 89 10             	mov    %rdx,(%rax)
    c9fb:	8b 85 78 fd ff ff    	mov    -0x288(%rbp),%eax
    ca01:	0f b6 c0             	movzbl %al,%eax
    ca04:	8b 95 4c fd ff ff    	mov    -0x2b4(%rbp),%edx
    ca0a:	89 d6                	mov    %edx,%esi
    ca0c:	89 c7                	mov    %eax,%edi
    ca0e:	e8 39 b2 ff ff       	callq  7c4c <safe_lshift_func_uint8_t_u_u>
    ca13:	44 0f b6 f8          	movzbl %al,%r15d
    ca17:	0f b7 05 ec 46 00 00 	movzwl 0x46ec(%rip),%eax        # 1110a <g_215+0x8a>
    ca1e:	98                   	cwtl   
    ca1f:	89 85 44 fd ff ff    	mov    %eax,-0x2bc(%rbp)
    ca25:	0f b7 85 66 fd ff ff 	movzwl -0x29a(%rbp),%eax
    ca2c:	8b 95 7c fd ff ff    	mov    -0x284(%rbp),%edx
    ca32:	89 d6                	mov    %edx,%esi
    ca34:	89 c7                	mov    %eax,%edi
    ca36:	e8 7b ab ff ff       	callq  75b6 <safe_add_func_int32_t_s_s>
    ca3b:	48 8b 85 50 fd ff ff 	mov    -0x2b0(%rbp),%rax
    ca42:	44 0f bf e0          	movswl %ax,%r12d
    ca46:	44 8b ad 48 fd ff ff 	mov    -0x2b8(%rbp),%r13d
    ca4d:	8b 05 21 46 00 00    	mov    0x4621(%rip),%eax        # 11074 <g_178+0x14>
    ca53:	0f bf d0             	movswl %ax,%edx
    ca56:	8b 05 e4 45 00 00    	mov    0x45e4(%rip),%eax        # 11040 <g_116>
    ca5c:	98                   	cwtl   
    ca5d:	89 d6                	mov    %edx,%esi
    ca5f:	89 c7                	mov    %eax,%edi
    ca61:	e8 4d a9 ff ff       	callq  73b3 <safe_add_func_int16_t_s_s>
    ca66:	44 0f bf f0          	movswl %ax,%r14d
    ca6a:	8b 85 7c fd ff ff    	mov    -0x284(%rbp),%eax
    ca70:	0f b6 c0             	movzbl %al,%eax
    ca73:	be 02 00 00 00       	mov    $0x2,%esi
    ca78:	89 c7                	mov    %eax,%edi
    ca7a:	e8 cd b1 ff ff       	callq  7c4c <safe_lshift_func_uint8_t_u_u>
    ca7f:	0f b6 c0             	movzbl %al,%eax
    ca82:	44 89 f6             	mov    %r14d,%esi
    ca85:	89 c7                	mov    %eax,%edi
    ca87:	e8 44 b4 ff ff       	callq  7ed0 <safe_sub_func_uint32_t_u_u>
    ca8c:	98                   	cwtl   
    ca8d:	44 89 ee             	mov    %r13d,%esi
    ca90:	89 c7                	mov    %eax,%edi
    ca92:	e8 fb a9 ff ff       	callq  7492 <safe_lshift_func_int16_t_s_s>
    ca97:	44 89 e6             	mov    %r12d,%esi
    ca9a:	bf 00 00 00 00       	mov    $0x0,%edi
    ca9f:	e8 51 a9 ff ff       	callq  73f5 <safe_mul_func_int16_t_s_s>
    caa4:	98                   	cwtl   
    caa5:	be 03 00 00 00       	mov    $0x3,%esi
    caaa:	89 c7                	mov    %eax,%edi
    caac:	e8 44 a9 ff ff       	callq  73f5 <safe_mul_func_int16_t_s_s>
    cab1:	89 c2                	mov    %eax,%edx
    cab3:	48 8b 85 a8 fd ff ff 	mov    -0x258(%rbp),%rax
    caba:	88 10                	mov    %dl,(%rax)
    cabc:	48 8b 85 a8 fd ff ff 	mov    -0x258(%rbp),%rax
    cac3:	0f b6 00             	movzbl (%rax),%eax
    cac6:	84 c0                	test   %al,%al
    cac8:	74 07                	je     cad1 <func_39+0x511>
    caca:	b8 01 00 00 00       	mov    $0x1,%eax
    cacf:	eb 05                	jmp    cad6 <func_39+0x516>
    cad1:	b8 00 00 00 00       	mov    $0x0,%eax
    cad6:	3b 85 44 fd ff ff    	cmp    -0x2bc(%rbp),%eax
    cadc:	0f 9e c0             	setle  %al
    cadf:	0f b6 c0             	movzbl %al,%eax
    cae2:	be 35 71 00 00       	mov    $0x7135,%esi
    cae7:	89 c7                	mov    %eax,%edi
    cae9:	e8 28 a9 ff ff       	callq  7416 <safe_mod_func_int16_t_s_s>
    caee:	66 85 c0             	test   %ax,%ax
    caf1:	0f 94 c0             	sete   %al
    caf4:	89 c2                	mov    %eax,%edx
    caf6:	48 8b 85 b8 fd ff ff 	mov    -0x248(%rbp),%rax
    cafd:	88 10                	mov    %dl,(%rax)
    caff:	48 8b 85 b8 fd ff ff 	mov    -0x248(%rbp),%rax
    cb06:	0f b6 00             	movzbl (%rax),%eax
    cb09:	0f be c0             	movsbl %al,%eax
    cb0c:	be 00 00 00 00       	mov    $0x0,%esi
    cb11:	89 c7                	mov    %eax,%edi
    cb13:	e8 da a6 ff ff       	callq  71f2 <safe_sub_func_int8_t_s_s>
    cb18:	0f be c0             	movsbl %al,%eax
    cb1b:	41 39 c7             	cmp    %eax,%r15d
    cb1e:	0f 9f c0             	setg   %al
    cb21:	0f b6 c0             	movzbl %al,%eax
    cb24:	21 85 6c fd ff ff    	and    %eax,-0x294(%rbp)
    cb2a:	8b 85 6c fd ff ff    	mov    -0x294(%rbp),%eax
    cb30:	09 85 70 fd ff ff    	or     %eax,-0x290(%rbp)
    cb36:	48 8b 85 08 fe ff ff 	mov    -0x1f8(%rbp),%rax
    cb3d:	48 85 c0             	test   %rax,%rax
    cb40:	0f 94 c0             	sete   %al
    cb43:	0f b6 d0             	movzbl %al,%edx
    cb46:	48 8b 85 a0 fd ff ff 	mov    -0x260(%rbp),%rax
    cb4d:	48 8b 00             	mov    (%rax),%rax
    cb50:	48 83 e0 fe          	and    $0xfffffffffffffffe,%rax
    cb54:	48 89 c1             	mov    %rax,%rcx
    cb57:	48 8b 85 a0 fd ff ff 	mov    -0x260(%rbp),%rax
    cb5e:	48 89 08             	mov    %rcx,(%rax)
    cb61:	48 8b 85 a0 fd ff ff 	mov    -0x260(%rbp),%rax
    cb68:	48 8b 00             	mov    (%rax),%rax
    cb6b:	48 63 ca             	movslq %edx,%rcx
    cb6e:	48 8b 15 d3 44 00 00 	mov    0x44d3(%rip),%rdx        # 11048 <g_117>
    cb75:	48 21 ca             	and    %rcx,%rdx
    cb78:	48 89 15 c9 44 00 00 	mov    %rdx,0x44c9(%rip)        # 11048 <g_117>
    cb7f:	48 8b 0d c2 44 00 00 	mov    0x44c2(%rip),%rcx        # 11048 <g_117>
    cb86:	0f b7 15 db 72 00 00 	movzwl 0x72db(%rip),%edx        # 13e68 <g_38>
    cb8d:	0f b7 d2             	movzwl %dx,%edx
    cb90:	48 09 ca             	or     %rcx,%rdx
    cb93:	48 39 d0             	cmp    %rdx,%rax
    cb96:	0f 93 c0             	setae  %al
    cb99:	0f b6 c0             	movzbl %al,%eax
    cb9c:	39 85 58 fd ff ff    	cmp    %eax,-0x2a8(%rbp)
    cba2:	0f 94 c0             	sete   %al
    cba5:	0f b6 c0             	movzbl %al,%eax
    cba8:	48 89 05 79 45 00 00 	mov    %rax,0x4579(%rip)        # 11128 <g_253>
    cbaf:	48 8b 0d 72 45 00 00 	mov    0x4572(%rip),%rcx        # 11128 <g_253>
    cbb6:	48 8b 85 98 fd ff ff 	mov    -0x268(%rbp),%rax
    cbbd:	48 8b 00             	mov    (%rax),%rax
    cbc0:	48 09 c3             	or     %rax,%rbx
    cbc3:	48 89 da             	mov    %rbx,%rdx
    cbc6:	48 8b 85 98 fd ff ff 	mov    -0x268(%rbp),%rax
    cbcd:	48 89 10             	mov    %rdx,(%rax)
    cbd0:	48 8b 85 98 fd ff ff 	mov    -0x268(%rbp),%rax
    cbd7:	48 8b 00             	mov    (%rax),%rax
    cbda:	8b 15 58 45 00 00    	mov    0x4558(%rip),%edx        # 11138 <g_254+0x8>
    cbe0:	21 ca                	and    %ecx,%edx
    cbe2:	89 15 50 45 00 00    	mov    %edx,0x4550(%rip)        # 11138 <g_254+0x8>
    cbe8:	8b 15 4a 45 00 00    	mov    0x454a(%rip),%edx        # 11138 <g_254+0x8>
    cbee:	89 d2                	mov    %edx,%edx
    cbf0:	48 39 d0             	cmp    %rdx,%rax
    cbf3:	0f 93 c0             	setae  %al
    cbf6:	0f b6 c0             	movzbl %al,%eax
    cbf9:	39 85 4c fd ff ff    	cmp    %eax,-0x2b4(%rbp)
    cbff:	0f 97 c0             	seta   %al
    cc02:	0f b6 c0             	movzbl %al,%eax
    cc05:	39 85 4c fd ff ff    	cmp    %eax,-0x2b4(%rbp)
    cc0b:	0f 82 89 01 00 00    	jb     cd9a <func_39+0x7da>
    cc11:	c7 85 30 fe ff ff 7b 	movl   $0xbb74c77b,-0x1d0(%rbp)
    cc18:	c7 74 bb 
    cc1b:	c7 85 34 fe ff ff 80 	movl   $0xcd3abc80,-0x1cc(%rbp)
    cc22:	bc 3a cd 
    cc25:	c7 85 38 fe ff ff 7b 	movl   $0xbb74c77b,-0x1c8(%rbp)
    cc2c:	c7 74 bb 
    cc2f:	c7 85 3c fe ff ff f6 	movl   $0xfffffff6,-0x1c4(%rbp)
    cc36:	ff ff ff 
    cc39:	c7 85 40 fe ff ff 29 	movl   $0xf24d8d29,-0x1c0(%rbp)
    cc40:	8d 4d f2 
    cc43:	c7 85 44 fe ff ff 29 	movl   $0xf24d8d29,-0x1bc(%rbp)
    cc4a:	8d 4d f2 
    cc4d:	c7 85 48 fe ff ff 00 	movl   $0x0,-0x1b8(%rbp)
    cc54:	00 00 00 
    cc57:	c7 85 4c fe ff ff 7b 	movl   $0xbb74c77b,-0x1b4(%rbp)
    cc5e:	c7 74 bb 
    cc61:	c7 85 50 fe ff ff 7b 	movl   $0xbb74c77b,-0x1b0(%rbp)
    cc68:	c7 74 bb 
    cc6b:	c7 85 54 fe ff ff 00 	movl   $0x0,-0x1ac(%rbp)
    cc72:	00 00 00 
    cc75:	c7 85 58 fe ff ff 80 	movl   $0xcd3abc80,-0x1a8(%rbp)
    cc7c:	bc 3a cd 
    cc7f:	c7 85 5c fe ff ff 6f 	movl   $0x9be0246f,-0x1a4(%rbp)
    cc86:	24 e0 9b 
    cc89:	c7 85 60 fe ff ff 6f 	movl   $0x9be0246f,-0x1a0(%rbp)
    cc90:	24 e0 9b 
    cc93:	c7 85 64 fe ff ff 00 	movl   $0x0,-0x19c(%rbp)
    cc9a:	00 00 00 
    cc9d:	c7 85 68 fe ff ff 29 	movl   $0xf24d8d29,-0x198(%rbp)
    cca4:	8d 4d f2 
    cca7:	c7 85 6c fe ff ff 00 	movl   $0x0,-0x194(%rbp)
    ccae:	00 00 00 
    ccb1:	c7 85 70 fe ff ff 6f 	movl   $0x9be0246f,-0x190(%rbp)
    ccb8:	24 e0 9b 
    ccbb:	c7 85 74 fe ff ff f6 	movl   $0xfffffff6,-0x18c(%rbp)
    ccc2:	ff ff ff 
    ccc5:	c7 85 78 fe ff ff 00 	movl   $0x0,-0x188(%rbp)
    cccc:	00 00 00 
    cccf:	c7 85 7c fe ff ff 6f 	movl   $0x9be0246f,-0x184(%rbp)
    ccd6:	24 e0 9b 
    ccd9:	c7 85 80 fe ff ff f6 	movl   $0xfffffff6,-0x180(%rbp)
    cce0:	ff ff ff 
    cce3:	c7 85 84 fe ff ff f6 	movl   $0xfffffff6,-0x17c(%rbp)
    ccea:	ff ff ff 
    cced:	c7 85 88 fe ff ff 6f 	movl   $0x9be0246f,-0x178(%rbp)
    ccf4:	24 e0 9b 
    ccf7:	c7 85 8c fe ff ff 00 	movl   $0x0,-0x174(%rbp)
    ccfe:	00 00 00 
    cd01:	c7 85 90 fe ff ff 7b 	movl   $0xbb74c77b,-0x170(%rbp)
    cd08:	c7 74 bb 
    cd0b:	c7 85 94 fe ff ff 00 	movl   $0x0,-0x16c(%rbp)
    cd12:	00 00 00 
    cd15:	c7 85 98 fe ff ff 80 	movl   $0xcd3abc80,-0x168(%rbp)
    cd1c:	bc 3a cd 
    cd1f:	c7 85 9c fe ff ff 6f 	movl   $0x9be0246f,-0x164(%rbp)
    cd26:	24 e0 9b 
    cd29:	c7 85 a0 fe ff ff 80 	movl   $0xcd3abc80,-0x160(%rbp)
    cd30:	bc 3a cd 
    cd33:	c7 85 a4 fe ff ff 00 	movl   $0x0,-0x15c(%rbp)
    cd3a:	00 00 00 
    cd3d:	c7 85 a8 fe ff ff 80 	movl   $0xcd3abc80,-0x158(%rbp)
    cd44:	bc 3a cd 
    cd47:	c7 85 ac fe ff ff 7b 	movl   $0xbb74c77b,-0x154(%rbp)
    cd4e:	c7 74 bb 
    cd51:	c7 85 b0 fe ff ff f6 	movl   $0xfffffff6,-0x150(%rbp)
    cd58:	ff ff ff 
    cd5b:	c7 85 b4 fe ff ff 29 	movl   $0xf24d8d29,-0x14c(%rbp)
    cd62:	8d 4d f2 
    cd65:	c7 85 b8 fe ff ff 29 	movl   $0xf24d8d29,-0x148(%rbp)
    cd6c:	8d 4d f2 
    cd6f:	c7 85 bc fe ff ff f6 	movl   $0xfffffff6,-0x144(%rbp)
    cd76:	ff ff ff 
    cd79:	83 bd 7c fd ff ff 00 	cmpl   $0x0,-0x284(%rbp)
    cd80:	74 05                	je     cd87 <func_39+0x7c7>
    cd82:	e9 b9 fb ff ff       	jmpq   c940 <func_39+0x380>
    cd87:	0f b7 85 68 fd ff ff 	movzwl -0x298(%rbp),%eax
    cd8e:	83 e8 01             	sub    $0x1,%eax
    cd91:	66 89 85 68 fd ff ff 	mov    %ax,-0x298(%rbp)
    cd98:	eb 23                	jmp    cdbd <func_39+0x7fd>
    cd9a:	48 8d 85 d0 fd ff ff 	lea    -0x230(%rbp),%rax
    cda1:	48 83 c0 10          	add    $0x10,%rax
    cda5:	48 89 85 c0 fd ff ff 	mov    %rax,-0x240(%rbp)
    cdac:	48 8b 05 d5 65 00 00 	mov    0x65d5(%rip),%rax        # 13388 <g_265>
    cdb3:	48 8b 95 c0 fd ff ff 	mov    -0x240(%rbp),%rdx
    cdba:	48 89 10             	mov    %rdx,(%rax)
    cdbd:	c7 85 7c fd ff ff 0d 	movl   $0xd,-0x284(%rbp)
    cdc4:	00 00 00 
    cdc7:	83 bd 7c fd ff ff 16 	cmpl   $0x16,-0x284(%rbp)
    cdce:	75 09                	jne    cdd9 <func_39+0x819>
    cdd0:	48 8b 05 b9 65 00 00 	mov    0x65b9(%rip),%rax        # 13390 <g_268>
    cdd7:	eb 0a                	jmp    cde3 <func_39+0x823>
    cdd9:	48 8b 05 30 65 00 00 	mov    0x6530(%rip),%rax        # 13310 <g_132>
    cde0:	48 8b 00             	mov    (%rax),%rax
    cde3:	48 8b 5d c8          	mov    -0x38(%rbp),%rbx
    cde7:	64 48 33 1c 25 28 00 	xor    %fs:0x28,%rbx
    cdee:	00 00 
    cdf0:	74 05                	je     cdf7 <func_39+0x837>
    cdf2:	e8 79 a2 ff ff       	callq  7070 <__stack_chk_fail@plt>
    cdf7:	48 81 c4 98 02 00 00 	add    $0x298,%rsp
    cdfe:	5b                   	pop    %rbx
    cdff:	41 5c                	pop    %r12
    ce01:	41 5d                	pop    %r13
    ce03:	41 5e                	pop    %r14
    ce05:	41 5f                	pop    %r15
    ce07:	5d                   	pop    %rbp
    ce08:	c3                   	retq   

000000000000ce09 <func_47>:
    ce09:	f3 0f 1e fa          	endbr64 
    ce0d:	55                   	push   %rbp
    ce0e:	48 89 e5             	mov    %rsp,%rbp
    ce11:	41 55                	push   %r13
    ce13:	41 54                	push   %r12
    ce15:	53                   	push   %rbx
    ce16:	48 81 ec e8 00 00 00 	sub    $0xe8,%rsp
    ce1d:	89 f8                	mov    %edi,%eax
    ce1f:	48 89 b5 10 ff ff ff 	mov    %rsi,-0xf0(%rbp)
    ce26:	89 95 18 ff ff ff    	mov    %edx,-0xe8(%rbp)
    ce2c:	89 8d 0c ff ff ff    	mov    %ecx,-0xf4(%rbp)
    ce32:	66 89 85 1c ff ff ff 	mov    %ax,-0xe4(%rbp)
    ce39:	64 48 8b 04 25 28 00 	mov    %fs:0x28,%rax
    ce40:	00 00 
    ce42:	48 89 45 d8          	mov    %rax,-0x28(%rbp)
    ce46:	31 c0                	xor    %eax,%eax
    ce48:	48 8d 05 e5 41 00 00 	lea    0x41e5(%rip),%rax        # 11034 <g_77+0x4>
    ce4f:	48 89 85 28 ff ff ff 	mov    %rax,-0xd8(%rbp)
    ce56:	48 c7 85 30 ff ff ff 	movq   $0x0,-0xd0(%rbp)
    ce5d:	00 00 00 00 
    ce61:	48 8d 85 30 ff ff ff 	lea    -0xd0(%rbp),%rax
    ce68:	48 89 85 40 ff ff ff 	mov    %rax,-0xc0(%rbp)
    ce6f:	48 8d 05 be 41 00 00 	lea    0x41be(%rip),%rax        # 11034 <g_77+0x4>
    ce76:	48 89 85 38 ff ff ff 	mov    %rax,-0xc8(%rbp)
    ce7d:	48 8d 85 38 ff ff ff 	lea    -0xc8(%rbp),%rax
    ce84:	48 89 85 48 ff ff ff 	mov    %rax,-0xb8(%rbp)
    ce8b:	c6 85 23 ff ff ff fb 	movb   $0xfb,-0xdd(%rbp)
    ce92:	48 8d 05 d1 6f 00 00 	lea    0x6fd1(%rip),%rax        # 13e6a <g_70>
    ce99:	48 89 85 50 ff ff ff 	mov    %rax,-0xb0(%rbp)
    cea0:	c7 85 70 ff ff ff ff 	movl   $0xffffffff,-0x90(%rbp)
    cea7:	ff ff ff 
    ceaa:	c7 85 74 ff ff ff 81 	movl   $0x20033c81,-0x8c(%rbp)
    ceb1:	3c 03 20 
    ceb4:	c7 85 78 ff ff ff ff 	movl   $0xffffffff,-0x88(%rbp)
    cebb:	ff ff ff 
    cebe:	c7 85 7c ff ff ff 81 	movl   $0x20033c81,-0x84(%rbp)
    cec5:	3c 03 20 
    cec8:	c7 45 80 ff ff ff ff 	movl   $0xffffffff,-0x80(%rbp)
    cecf:	c7 45 84 81 3c 03 20 	movl   $0x20033c81,-0x7c(%rbp)
    ced6:	c7 45 88 ff ff ff ff 	movl   $0xffffffff,-0x78(%rbp)
    cedd:	c7 45 8c 81 3c 03 20 	movl   $0x20033c81,-0x74(%rbp)
    cee4:	c7 45 90 ff ff ff ff 	movl   $0xffffffff,-0x70(%rbp)
    ceeb:	c7 45 94 81 3c 03 20 	movl   $0x20033c81,-0x6c(%rbp)
    cef2:	c7 45 98 ff ff ff ff 	movl   $0xffffffff,-0x68(%rbp)
    cef9:	c7 45 9c 81 3c 03 20 	movl   $0x20033c81,-0x64(%rbp)
    cf00:	c7 45 a0 ff ff ff ff 	movl   $0xffffffff,-0x60(%rbp)
    cf07:	c7 45 a4 81 3c 03 20 	movl   $0x20033c81,-0x5c(%rbp)
    cf0e:	c7 45 a8 ff ff ff ff 	movl   $0xffffffff,-0x58(%rbp)
    cf15:	c7 45 ac 81 3c 03 20 	movl   $0x20033c81,-0x54(%rbp)
    cf1c:	c7 45 b0 ff ff ff ff 	movl   $0xffffffff,-0x50(%rbp)
    cf23:	c7 45 b4 81 3c 03 20 	movl   $0x20033c81,-0x4c(%rbp)
    cf2a:	c7 45 b8 ff ff ff ff 	movl   $0xffffffff,-0x48(%rbp)
    cf31:	c7 45 bc 81 3c 03 20 	movl   $0x20033c81,-0x44(%rbp)
    cf38:	c7 45 c0 ff ff ff ff 	movl   $0xffffffff,-0x40(%rbp)
    cf3f:	c7 45 c4 81 3c 03 20 	movl   $0x20033c81,-0x3c(%rbp)
    cf46:	c7 45 c8 ff ff ff ff 	movl   $0xffffffff,-0x38(%rbp)
    cf4d:	c7 45 cc 81 3c 03 20 	movl   $0x20033c81,-0x34(%rbp)
    cf54:	48 8d 05 10 6f 00 00 	lea    0x6f10(%rip),%rax        # 13e6b <g_78>
    cf5b:	48 89 85 58 ff ff ff 	mov    %rax,-0xa8(%rbp)
    cf62:	48 8d 05 d7 40 00 00 	lea    0x40d7(%rip),%rax        # 11040 <g_116>
    cf69:	48 89 85 60 ff ff ff 	mov    %rax,-0xa0(%rbp)
    cf70:	c7 85 24 ff ff ff 00 	movl   $0x0,-0xdc(%rbp)
    cf77:	00 00 00 
    cf7a:	eb 19                	jmp    cf95 <func_47+0x18c>
    cf7c:	8b 85 24 ff ff ff    	mov    -0xdc(%rbp),%eax
    cf82:	48 98                	cltq   
    cf84:	66 c7 84 45 6e ff ff 	movw   $0x812e,-0x92(%rbp,%rax,2)
    cf8b:	ff 2e 81 
    cf8e:	83 85 24 ff ff ff 01 	addl   $0x1,-0xdc(%rbp)
    cf95:	83 bd 24 ff ff ff 00 	cmpl   $0x0,-0xdc(%rbp)
    cf9c:	7e de                	jle    cf7c <func_47+0x173>
    cf9e:	48 8b 95 30 ff ff ff 	mov    -0xd0(%rbp),%rdx
    cfa5:	48 8b 85 40 ff ff ff 	mov    -0xc0(%rbp),%rax
    cfac:	48 89 10             	mov    %rdx,(%rax)
    cfaf:	48 8b 85 40 ff ff ff 	mov    -0xc0(%rbp),%rax
    cfb6:	48 8b 10             	mov    (%rax),%rdx
    cfb9:	48 8b 85 28 ff ff ff 	mov    -0xd8(%rbp),%rax
    cfc0:	48 39 c2             	cmp    %rax,%rdx
    cfc3:	0f 95 c0             	setne  %al
    cfc6:	0f b6 c0             	movzbl %al,%eax
    cfc9:	89 c7                	mov    %eax,%edi
    cfcb:	e8 cd a3 ff ff       	callq  739d <safe_unary_minus_func_int16_t_s>
    cfd0:	0f b6 15 94 6e 00 00 	movzbl 0x6e94(%rip),%edx        # 13e6b <g_78>
    cfd7:	66 0f be d2          	movsbw %dl,%dx
    cfdb:	66 39 d0             	cmp    %dx,%ax
    cfde:	0f 95 c0             	setne  %al
    cfe1:	44 0f b6 e8          	movzbl %al,%r13d
    cfe5:	8b 05 39 40 00 00    	mov    0x4039(%rip),%eax        # 11024 <g_14>
    cfeb:	0f b7 d8             	movzwl %ax,%ebx
    cfee:	44 0f b6 a5 23 ff ff 	movzbl -0xdd(%rbp),%r12d
    cff5:	ff 
    cff6:	48 8b 85 28 ff ff ff 	mov    -0xd8(%rbp),%rax
    cffd:	8b 00                	mov    (%rax),%eax
    cfff:	89 c7                	mov    %eax,%edi
    d001:	8b 0d 2d 40 00 00    	mov    0x402d(%rip),%ecx        # 11034 <g_77+0x4>
    d007:	48 8b 05 e2 62 00 00 	mov    0x62e2(%rip),%rax        # 132f0 <g_92>
    d00e:	48 8b 30             	mov    (%rax),%rsi
    d011:	48 8b 95 38 ff ff ff 	mov    -0xc8(%rbp),%rdx
    d018:	48 8b 85 48 ff ff ff 	mov    -0xb8(%rbp),%rax
    d01f:	48 89 10             	mov    %rdx,(%rax)
    d022:	48 8b 85 48 ff ff ff 	mov    -0xb8(%rbp),%rax
    d029:	48 8b 00             	mov    (%rax),%rax
    d02c:	48 39 c6             	cmp    %rax,%rsi
    d02f:	0f 94 c0             	sete   %al
    d032:	0f b6 c0             	movzbl %al,%eax
    d035:	39 c1                	cmp    %eax,%ecx
    d037:	74 12                	je     d04b <func_47+0x242>
    d039:	0f b6 05 2b 6e 00 00 	movzbl 0x6e2b(%rip),%eax        # 13e6b <g_78>
    d040:	84 c0                	test   %al,%al
    d042:	74 07                	je     d04b <func_47+0x242>
    d044:	b8 01 00 00 00       	mov    $0x1,%eax
    d049:	eb 05                	jmp    d050 <func_47+0x247>
    d04b:	b8 00 00 00 00       	mov    $0x0,%eax
    d050:	0f b6 c0             	movzbl %al,%eax
    d053:	89 fe                	mov    %edi,%esi
    d055:	89 c7                	mov    %eax,%edi
    d057:	e8 62 ac ff ff       	callq  7cbe <safe_rshift_func_uint8_t_u_u>
    d05c:	0f b6 c0             	movzbl %al,%eax
    d05f:	44 89 e6             	mov    %r12d,%esi
    d062:	89 c7                	mov    %eax,%edi
    d064:	e8 72 ab ff ff       	callq  7bdb <safe_div_func_uint8_t_u_u>
    d069:	0f b6 c0             	movzbl %al,%eax
    d06c:	89 de                	mov    %ebx,%esi
    d06e:	89 c7                	mov    %eax,%edi
    d070:	e8 19 ad ff ff       	callq  7d8e <safe_div_func_uint16_t_u_u>
    d075:	0f b6 05 ef 6d 00 00 	movzbl 0x6def(%rip),%eax        # 13e6b <g_78>
    d07c:	84 c0                	test   %al,%al
    d07e:	0f 9e c0             	setle  %al
    d081:	0f b6 c0             	movzbl %al,%eax
    d084:	be 00 00 00 00       	mov    $0x0,%esi
    d089:	89 c7                	mov    %eax,%edi
    d08b:	e8 bc ab ff ff       	callq  7c4c <safe_lshift_func_uint8_t_u_u>
    d090:	48 8b 95 50 ff ff ff 	mov    -0xb0(%rbp),%rdx
    d097:	88 02                	mov    %al,(%rdx)
    d099:	48 8b 85 50 ff ff ff 	mov    -0xb0(%rbp),%rax
    d0a0:	0f b6 00             	movzbl (%rax),%eax
    d0a3:	0f b6 d0             	movzbl %al,%edx
    d0a6:	48 8b 85 28 ff ff ff 	mov    -0xd8(%rbp),%rax
    d0ad:	44 09 ea             	or     %r13d,%edx
    d0b0:	89 10                	mov    %edx,(%rax)
    d0b2:	48 8b 85 38 ff ff ff 	mov    -0xc8(%rbp),%rax
    d0b9:	44 8b 28             	mov    (%rax),%r13d
    d0bc:	8b 05 72 3f 00 00    	mov    0x3f72(%rip),%eax        # 11034 <g_77+0x4>
    d0c2:	0f b6 d8             	movzbl %al,%ebx
    d0c5:	be 05 00 00 00       	mov    $0x5,%esi
    d0ca:	bf 01 00 00 00       	mov    $0x1,%edi
    d0cf:	e8 0d a4 ff ff       	callq  74e1 <safe_lshift_func_int16_t_s_u>
    d0d4:	48 8b 85 58 ff ff ff 	mov    -0xa8(%rbp),%rax
    d0db:	0f b6 00             	movzbl (%rax),%eax
    d0de:	0f b7 15 83 6d 00 00 	movzwl 0x6d83(%rip),%edx        # 13e68 <g_38>
    d0e5:	21 c2                	and    %eax,%edx
    d0e7:	48 8b 85 58 ff ff ff 	mov    -0xa8(%rbp),%rax
    d0ee:	88 10                	mov    %dl,(%rax)
    d0f0:	48 8b 85 58 ff ff ff 	mov    -0xa8(%rbp),%rax
    d0f7:	0f b6 00             	movzbl (%rax),%eax
    d0fa:	44 0f be e0          	movsbl %al,%r12d
    d0fe:	8b 45 84             	mov    -0x7c(%rbp),%eax
    d101:	98                   	cwtl   
    d102:	be 00 00 00 00       	mov    $0x0,%esi
    d107:	89 c7                	mov    %eax,%edi
    d109:	e8 84 a3 ff ff       	callq  7492 <safe_lshift_func_int16_t_s_s>
    d10e:	66 85 c0             	test   %ax,%ax
    d111:	74 07                	je     d11a <func_47+0x311>
    d113:	ba 01 00 00 00       	mov    $0x1,%edx
    d118:	eb 05                	jmp    d11f <func_47+0x316>
    d11a:	ba 00 00 00 00       	mov    $0x0,%edx
    d11f:	48 8b 85 50 ff ff ff 	mov    -0xb0(%rbp),%rax
    d126:	0f b6 00             	movzbl (%rax),%eax
    d129:	89 c1                	mov    %eax,%ecx
    d12b:	89 d0                	mov    %edx,%eax
    d12d:	31 c8                	xor    %ecx,%eax
    d12f:	89 c2                	mov    %eax,%edx
    d131:	48 8b 85 50 ff ff ff 	mov    -0xb0(%rbp),%rax
    d138:	88 10                	mov    %dl,(%rax)
    d13a:	48 8b 85 50 ff ff ff 	mov    -0xb0(%rbp),%rax
    d141:	0f b6 00             	movzbl (%rax),%eax
    d144:	0f b6 c0             	movzbl %al,%eax
    d147:	39 85 18 ff ff ff    	cmp    %eax,-0xe8(%rbp)
    d14d:	0f 9e c0             	setle  %al
    d150:	0f b6 c0             	movzbl %al,%eax
    d153:	44 89 e6             	mov    %r12d,%esi
    d156:	89 c7                	mov    %eax,%edi
    d158:	e8 30 ab ff ff       	callq  7c8d <safe_rshift_func_uint8_t_u_s>
    d15d:	0f b6 d0             	movzbl %al,%edx
    d160:	0f b7 85 1c ff ff ff 	movzwl -0xe4(%rbp),%eax
    d167:	66 39 c2             	cmp    %ax,%dx
    d16a:	0f 93 c0             	setae  %al
    d16d:	0f b6 c0             	movzbl %al,%eax
    d170:	89 de                	mov    %ebx,%esi
    d172:	89 c7                	mov    %eax,%edi
    d174:	e8 ff a9 ff ff       	callq  7b78 <safe_sub_func_uint8_t_u_u>
    d179:	84 c0                	test   %al,%al
    d17b:	75 08                	jne    d185 <func_47+0x37c>
    d17d:	8b 05 b9 3e 00 00    	mov    0x3eb9(%rip),%eax        # 1103c <g_77+0xc>
    d183:	85 c0                	test   %eax,%eax
    d185:	48 8b 85 10 ff ff ff 	mov    -0xf0(%rbp),%rax
    d18c:	0f b7 00             	movzwl (%rax),%eax
    d18f:	0f b7 c0             	movzwl %ax,%eax
    d192:	be dd 5f 00 00       	mov    $0x5fdd,%esi
    d197:	89 c7                	mov    %eax,%edi
    d199:	e8 f0 ab ff ff       	callq  7d8e <safe_div_func_uint16_t_u_u>
    d19e:	66 85 c0             	test   %ax,%ax
    d1a1:	0f 94 c0             	sete   %al
    d1a4:	0f b6 d0             	movzbl %al,%edx
    d1a7:	48 8b 85 60 ff ff ff 	mov    -0xa0(%rbp),%rax
    d1ae:	89 10                	mov    %edx,(%rax)
    d1b0:	48 8b 85 60 ff ff ff 	mov    -0xa0(%rbp),%rax
    d1b7:	8b 00                	mov    (%rax),%eax
    d1b9:	85 c0                	test   %eax,%eax
    d1bb:	74 07                	je     d1c4 <func_47+0x3bb>
    d1bd:	b8 01 00 00 00       	mov    $0x1,%eax
    d1c2:	eb 05                	jmp    d1c9 <func_47+0x3c0>
    d1c4:	b8 00 00 00 00       	mov    $0x0,%eax
    d1c9:	44 39 e8             	cmp    %r13d,%eax
    d1cc:	0f 94 c0             	sete   %al
    d1cf:	0f b6 c0             	movzbl %al,%eax
    d1d2:	48 63 d0             	movslq %eax,%rdx
    d1d5:	48 8b 05 6c 3e 00 00 	mov    0x3e6c(%rip),%rax        # 11048 <g_117>
    d1dc:	48 31 d0             	xor    %rdx,%rax
    d1df:	48 89 05 62 3e 00 00 	mov    %rax,0x3e62(%rip)        # 11048 <g_117>
    d1e6:	48 8b 05 5b 3e 00 00 	mov    0x3e5b(%rip),%rax        # 11048 <g_117>
    d1ed:	0f be c0             	movsbl %al,%eax
    d1f0:	be 16 00 00 00       	mov    $0x16,%esi
    d1f5:	89 c7                	mov    %eax,%edi
    d1f7:	e8 d8 9f ff ff       	callq  71d4 <safe_add_func_int8_t_s_s>
    d1fc:	48 8b 85 48 ff ff ff 	mov    -0xb8(%rbp),%rax
    d203:	48 8b 00             	mov    (%rax),%rax
    d206:	c7 00 00 00 00 00    	movl   $0x0,(%rax)
    d20c:	48 8b 05 dd 60 00 00 	mov    0x60dd(%rip),%rax        # 132f0 <g_92>
    d213:	48 8b 00             	mov    (%rax),%rax
    d216:	48 8b 5d d8          	mov    -0x28(%rbp),%rbx
    d21a:	64 48 33 1c 25 28 00 	xor    %fs:0x28,%rbx
    d221:	00 00 
    d223:	74 05                	je     d22a <func_47+0x421>
    d225:	e8 46 9e ff ff       	callq  7070 <__stack_chk_fail@plt>
    d22a:	48 81 c4 e8 00 00 00 	add    $0xe8,%rsp
    d231:	5b                   	pop    %rbx
    d232:	41 5c                	pop    %r12
    d234:	41 5d                	pop    %r13
    d236:	5d                   	pop    %rbp
    d237:	c3                   	retq   

000000000000d238 <main>:
    d238:	f3 0f 1e fa          	endbr64 
    d23c:	55                   	push   %rbp
    d23d:	48 89 e5             	mov    %rsp,%rbp
    d240:	48 83 ec 20          	sub    $0x20,%rsp
    d244:	89 7d ec             	mov    %edi,-0x14(%rbp)
    d247:	48 89 75 e0          	mov    %rsi,-0x20(%rbp)
    d24b:	c7 45 fc 00 00 00 00 	movl   $0x0,-0x4(%rbp)
    d252:	83 7d ec 02          	cmpl   $0x2,-0x14(%rbp)
    d256:	75 25                	jne    d27d <main+0x45>
    d258:	48 8b 45 e0          	mov    -0x20(%rbp),%rax
    d25c:	48 83 c0 08          	add    $0x8,%rax
    d260:	48 8b 00             	mov    (%rax),%rax
    d263:	48 8d 35 36 13 00 00 	lea    0x1336(%rip),%rsi        # e5a0 <g_279+0x54c>
    d26a:	48 89 c7             	mov    %rax,%rdi
    d26d:	e8 1e 9e ff ff       	callq  7090 <strcmp@plt>
    d272:	85 c0                	test   %eax,%eax
    d274:	75 07                	jne    d27d <main+0x45>
    d276:	c7 45 fc 01 00 00 00 	movl   $0x1,-0x4(%rbp)
    d27d:	e8 07 9f ff ff       	callq  7189 <platform_main_begin>
    d282:	e8 11 b3 ff ff       	callq  8598 <crc32_gentab>
    d287:	e8 29 b5 ff ff       	callq  87b5 <func_1>
    d28c:	8b 05 92 3d 00 00    	mov    0x3d92(%rip),%eax        # 11024 <g_14>
    d292:	48 98                	cltq   
    d294:	8b 55 fc             	mov    -0x4(%rbp),%edx
    d297:	48 8d 35 04 13 00 00 	lea    0x1304(%rip),%rsi        # e5a2 <g_279+0x54e>
    d29e:	48 89 c7             	mov    %rax,%rdi
    d2a1:	e8 4d b4 ff ff       	callq  86f3 <transparent_crc>
    d2a6:	0f b7 05 bb 6b 00 00 	movzwl 0x6bbb(%rip),%eax        # 13e68 <g_38>
    d2ad:	0f b7 c0             	movzwl %ax,%eax
    d2b0:	8b 55 fc             	mov    -0x4(%rbp),%edx
    d2b3:	48 8d 35 ed 12 00 00 	lea    0x12ed(%rip),%rsi        # e5a7 <g_279+0x553>
    d2ba:	48 89 c7             	mov    %rax,%rdi
    d2bd:	e8 31 b4 ff ff       	callq  86f3 <transparent_crc>
    d2c2:	0f b6 05 a1 6b 00 00 	movzbl 0x6ba1(%rip),%eax        # 13e6a <g_70>
    d2c9:	0f b6 c0             	movzbl %al,%eax
    d2cc:	8b 55 fc             	mov    -0x4(%rbp),%edx
    d2cf:	48 8d 35 d6 12 00 00 	lea    0x12d6(%rip),%rsi        # e5ac <g_279+0x558>
    d2d6:	48 89 c7             	mov    %rax,%rdi
    d2d9:	e8 15 b4 ff ff       	callq  86f3 <transparent_crc>
    d2de:	c7 45 f4 00 00 00 00 	movl   $0x0,-0xc(%rbp)
    d2e5:	eb 4b                	jmp    d332 <main+0xfa>
    d2e7:	8b 45 f4             	mov    -0xc(%rbp),%eax
    d2ea:	48 98                	cltq   
    d2ec:	48 8d 14 85 00 00 00 	lea    0x0(,%rax,4),%rdx
    d2f3:	00 
    d2f4:	48 8d 05 35 3d 00 00 	lea    0x3d35(%rip),%rax        # 11030 <g_77>
    d2fb:	8b 04 02             	mov    (%rdx,%rax,1),%eax
    d2fe:	48 98                	cltq   
    d300:	8b 55 fc             	mov    -0x4(%rbp),%edx
    d303:	48 8d 35 a7 12 00 00 	lea    0x12a7(%rip),%rsi        # e5b1 <g_279+0x55d>
    d30a:	48 89 c7             	mov    %rax,%rdi
    d30d:	e8 e1 b3 ff ff       	callq  86f3 <transparent_crc>
    d312:	83 7d fc 00          	cmpl   $0x0,-0x4(%rbp)
    d316:	74 16                	je     d32e <main+0xf6>
    d318:	8b 45 f4             	mov    -0xc(%rbp),%eax
    d31b:	89 c6                	mov    %eax,%esi
    d31d:	48 8d 3d 95 12 00 00 	lea    0x1295(%rip),%rdi        # e5b9 <g_279+0x565>
    d324:	b8 00 00 00 00       	mov    $0x0,%eax
    d329:	e8 52 9d ff ff       	callq  7080 <printf@plt>
    d32e:	83 45 f4 01          	addl   $0x1,-0xc(%rbp)
    d332:	83 7d f4 03          	cmpl   $0x3,-0xc(%rbp)
    d336:	7e af                	jle    d2e7 <main+0xaf>
    d338:	0f b6 05 2c 6b 00 00 	movzbl 0x6b2c(%rip),%eax        # 13e6b <g_78>
    d33f:	48 0f be c0          	movsbq %al,%rax
    d343:	8b 55 fc             	mov    -0x4(%rbp),%edx
    d346:	48 8d 35 7a 12 00 00 	lea    0x127a(%rip),%rsi        # e5c7 <g_279+0x573>
    d34d:	48 89 c7             	mov    %rax,%rdi
    d350:	e8 9e b3 ff ff       	callq  86f3 <transparent_crc>
    d355:	8b 05 e5 3c 00 00    	mov    0x3ce5(%rip),%eax        # 11040 <g_116>
    d35b:	48 98                	cltq   
    d35d:	8b 55 fc             	mov    -0x4(%rbp),%edx
    d360:	48 8d 35 65 12 00 00 	lea    0x1265(%rip),%rsi        # e5cc <g_279+0x578>
    d367:	48 89 c7             	mov    %rax,%rdi
    d36a:	e8 84 b3 ff ff       	callq  86f3 <transparent_crc>
    d36f:	48 8b 05 d2 3c 00 00 	mov    0x3cd2(%rip),%rax        # 11048 <g_117>
    d376:	48 89 c1             	mov    %rax,%rcx
    d379:	8b 45 fc             	mov    -0x4(%rbp),%eax
    d37c:	89 c2                	mov    %eax,%edx
    d37e:	48 8d 35 4d 12 00 00 	lea    0x124d(%rip),%rsi        # e5d2 <g_279+0x57e>
    d385:	48 89 cf             	mov    %rcx,%rdi
    d388:	e8 66 b3 ff ff       	callq  86f3 <transparent_crc>
    d38d:	8b 05 d9 6a 00 00    	mov    0x6ad9(%rip),%eax        # 13e6c <g_119>
    d393:	48 98                	cltq   
    d395:	8b 55 fc             	mov    -0x4(%rbp),%edx
    d398:	48 8d 35 39 12 00 00 	lea    0x1239(%rip),%rsi        # e5d8 <g_279+0x584>
    d39f:	48 89 c7             	mov    %rax,%rdi
    d3a2:	e8 4c b3 ff ff       	callq  86f3 <transparent_crc>
    d3a7:	0f b6 05 a2 3c 00 00 	movzbl 0x3ca2(%rip),%eax        # 11050 <g_156>
    d3ae:	0f b6 c0             	movzbl %al,%eax
    d3b1:	8b 55 fc             	mov    -0x4(%rbp),%edx
    d3b4:	48 8d 35 23 12 00 00 	lea    0x1223(%rip),%rsi        # e5de <g_279+0x58a>
    d3bb:	48 89 c7             	mov    %rax,%rdi
    d3be:	e8 30 b3 ff ff       	callq  86f3 <transparent_crc>
    d3c3:	c7 45 f4 00 00 00 00 	movl   $0x0,-0xc(%rbp)
    d3ca:	eb 6c                	jmp    d438 <main+0x200>
    d3cc:	c7 45 f8 00 00 00 00 	movl   $0x0,-0x8(%rbp)
    d3d3:	eb 59                	jmp    d42e <main+0x1f6>
    d3d5:	8b 45 f8             	mov    -0x8(%rbp),%eax
    d3d8:	48 63 d0             	movslq %eax,%rdx
    d3db:	8b 45 f4             	mov    -0xc(%rbp),%eax
    d3de:	48 98                	cltq   
    d3e0:	48 01 d0             	add    %rdx,%rax
    d3e3:	48 8d 14 85 00 00 00 	lea    0x0(,%rax,4),%rdx
    d3ea:	00 
    d3eb:	48 8d 05 6e 3c 00 00 	lea    0x3c6e(%rip),%rax        # 11060 <g_178>
    d3f2:	8b 04 02             	mov    (%rdx,%rax,1),%eax
    d3f5:	89 c1                	mov    %eax,%ecx
    d3f7:	8b 45 fc             	mov    -0x4(%rbp),%eax
    d3fa:	89 c2                	mov    %eax,%edx
    d3fc:	48 8d 35 e1 11 00 00 	lea    0x11e1(%rip),%rsi        # e5e4 <g_279+0x590>
    d403:	48 89 cf             	mov    %rcx,%rdi
    d406:	e8 e8 b2 ff ff       	callq  86f3 <transparent_crc>
    d40b:	83 7d fc 00          	cmpl   $0x0,-0x4(%rbp)
    d40f:	74 19                	je     d42a <main+0x1f2>
    d411:	8b 55 f8             	mov    -0x8(%rbp),%edx
    d414:	8b 45 f4             	mov    -0xc(%rbp),%eax
    d417:	89 c6                	mov    %eax,%esi
    d419:	48 8d 3d d0 11 00 00 	lea    0x11d0(%rip),%rdi        # e5f0 <g_279+0x59c>
    d420:	b8 00 00 00 00       	mov    $0x0,%eax
    d425:	e8 56 9c ff ff       	callq  7080 <printf@plt>
    d42a:	83 45 f8 01          	addl   $0x1,-0x8(%rbp)
    d42e:	83 7d f8 00          	cmpl   $0x0,-0x8(%rbp)
    d432:	7e a1                	jle    d3d5 <main+0x19d>
    d434:	83 45 f4 01          	addl   $0x1,-0xc(%rbp)
    d438:	83 7d f4 07          	cmpl   $0x7,-0xc(%rbp)
    d43c:	7e 8e                	jle    d3cc <main+0x194>
    d43e:	c7 45 f4 00 00 00 00 	movl   $0x0,-0xc(%rbp)
    d445:	eb 74                	jmp    d4bb <main+0x283>
    d447:	c7 45 f8 00 00 00 00 	movl   $0x0,-0x8(%rbp)
    d44e:	eb 61                	jmp    d4b1 <main+0x279>
    d450:	8b 45 f8             	mov    -0x8(%rbp),%eax
    d453:	48 63 c8             	movslq %eax,%rcx
    d456:	8b 45 f4             	mov    -0xc(%rbp),%eax
    d459:	48 63 d0             	movslq %eax,%rdx
    d45c:	48 89 d0             	mov    %rdx,%rax
    d45f:	48 c1 e0 03          	shl    $0x3,%rax
    d463:	48 29 d0             	sub    %rdx,%rax
    d466:	48 01 c8             	add    %rcx,%rax
    d469:	48 8d 14 00          	lea    (%rax,%rax,1),%rdx
    d46d:	48 8d 05 0c 3c 00 00 	lea    0x3c0c(%rip),%rax        # 11080 <g_215>
    d474:	0f b7 04 02          	movzwl (%rdx,%rax,1),%eax
    d478:	48 0f bf c0          	movswq %ax,%rax
    d47c:	8b 55 fc             	mov    -0x4(%rbp),%edx
    d47f:	48 8d 35 7c 11 00 00 	lea    0x117c(%rip),%rsi        # e602 <g_279+0x5ae>
    d486:	48 89 c7             	mov    %rax,%rdi
    d489:	e8 65 b2 ff ff       	callq  86f3 <transparent_crc>
    d48e:	83 7d fc 00          	cmpl   $0x0,-0x4(%rbp)
    d492:	74 19                	je     d4ad <main+0x275>
    d494:	8b 55 f8             	mov    -0x8(%rbp),%edx
    d497:	8b 45 f4             	mov    -0xc(%rbp),%eax
    d49a:	89 c6                	mov    %eax,%esi
    d49c:	48 8d 3d 4d 11 00 00 	lea    0x114d(%rip),%rdi        # e5f0 <g_279+0x59c>
    d4a3:	b8 00 00 00 00       	mov    $0x0,%eax
    d4a8:	e8 d3 9b ff ff       	callq  7080 <printf@plt>
    d4ad:	83 45 f8 01          	addl   $0x1,-0x8(%rbp)
    d4b1:	83 7d f8 06          	cmpl   $0x6,-0x8(%rbp)
    d4b5:	7e 99                	jle    d450 <main+0x218>
    d4b7:	83 45 f4 01          	addl   $0x1,-0xc(%rbp)
    d4bb:	83 7d f4 09          	cmpl   $0x9,-0xc(%rbp)
    d4bf:	7e 86                	jle    d447 <main+0x20f>
    d4c1:	48 8b 05 48 3c 00 00 	mov    0x3c48(%rip),%rax        # 11110 <g_218>
    d4c8:	8b 55 fc             	mov    -0x4(%rbp),%edx
    d4cb:	48 8d 35 3c 11 00 00 	lea    0x113c(%rip),%rsi        # e60e <g_279+0x5ba>
    d4d2:	48 89 c7             	mov    %rax,%rdi
    d4d5:	e8 19 b2 ff ff       	callq  86f3 <transparent_crc>
    d4da:	48 8b 05 37 3c 00 00 	mov    0x3c37(%rip),%rax        # 11118 <g_222>
    d4e1:	8b 55 fc             	mov    -0x4(%rbp),%edx
    d4e4:	48 8d 35 29 11 00 00 	lea    0x1129(%rip),%rsi        # e614 <g_279+0x5c0>
    d4eb:	48 89 c7             	mov    %rax,%rdi
    d4ee:	e8 00 b2 ff ff       	callq  86f3 <transparent_crc>
    d4f3:	48 8b 05 76 69 00 00 	mov    0x6976(%rip),%rax        # 13e70 <g_224>
    d4fa:	8b 55 fc             	mov    -0x4(%rbp),%edx
    d4fd:	48 8d 35 16 11 00 00 	lea    0x1116(%rip),%rsi        # e61a <g_279+0x5c6>
    d504:	48 89 c7             	mov    %rax,%rdi
    d507:	e8 e7 b1 ff ff       	callq  86f3 <transparent_crc>
    d50c:	0f b6 05 0d 3c 00 00 	movzbl 0x3c0d(%rip),%eax        # 11120 <g_249>
    d513:	48 0f be c0          	movsbq %al,%rax
    d517:	8b 55 fc             	mov    -0x4(%rbp),%edx
    d51a:	48 8d 35 ff 10 00 00 	lea    0x10ff(%rip),%rsi        # e620 <g_279+0x5cc>
    d521:	48 89 c7             	mov    %rax,%rdi
    d524:	e8 ca b1 ff ff       	callq  86f3 <transparent_crc>
    d529:	48 8b 05 f8 3b 00 00 	mov    0x3bf8(%rip),%rax        # 11128 <g_253>
    d530:	8b 55 fc             	mov    -0x4(%rbp),%edx
    d533:	48 8d 35 ec 10 00 00 	lea    0x10ec(%rip),%rsi        # e626 <g_279+0x5d2>
    d53a:	48 89 c7             	mov    %rax,%rdi
    d53d:	e8 b1 b1 ff ff       	callq  86f3 <transparent_crc>
    d542:	c7 45 f4 00 00 00 00 	movl   $0x0,-0xc(%rbp)
    d549:	eb 4d                	jmp    d598 <main+0x360>
    d54b:	8b 45 f4             	mov    -0xc(%rbp),%eax
    d54e:	48 98                	cltq   
    d550:	48 8d 14 85 00 00 00 	lea    0x0(,%rax,4),%rdx
    d557:	00 
    d558:	48 8d 05 d1 3b 00 00 	lea    0x3bd1(%rip),%rax        # 11130 <g_254>
    d55f:	8b 04 02             	mov    (%rdx,%rax,1),%eax
    d562:	89 c1                	mov    %eax,%ecx
    d564:	8b 45 fc             	mov    -0x4(%rbp),%eax
    d567:	89 c2                	mov    %eax,%edx
    d569:	48 8d 35 bc 10 00 00 	lea    0x10bc(%rip),%rsi        # e62c <g_279+0x5d8>
    d570:	48 89 cf             	mov    %rcx,%rdi
    d573:	e8 7b b1 ff ff       	callq  86f3 <transparent_crc>
    d578:	83 7d fc 00          	cmpl   $0x0,-0x4(%rbp)
    d57c:	74 16                	je     d594 <main+0x35c>
    d57e:	8b 45 f4             	mov    -0xc(%rbp),%eax
    d581:	89 c6                	mov    %eax,%esi
    d583:	48 8d 3d 2f 10 00 00 	lea    0x102f(%rip),%rdi        # e5b9 <g_279+0x565>
    d58a:	b8 00 00 00 00       	mov    $0x0,%eax
    d58f:	e8 ec 9a ff ff       	callq  7080 <printf@plt>
    d594:	83 45 f4 01          	addl   $0x1,-0xc(%rbp)
    d598:	83 7d f4 06          	cmpl   $0x6,-0xc(%rbp)
    d59c:	7e ad                	jle    d54b <main+0x313>
    d59e:	c7 45 f4 00 00 00 00 	movl   $0x0,-0xc(%rbp)
    d5a5:	eb 73                	jmp    d61a <main+0x3e2>
    d5a7:	c7 45 f8 00 00 00 00 	movl   $0x0,-0x8(%rbp)
    d5ae:	eb 60                	jmp    d610 <main+0x3d8>
    d5b0:	8b 45 f8             	mov    -0x8(%rbp),%eax
    d5b3:	48 63 c8             	movslq %eax,%rcx
    d5b6:	8b 45 f4             	mov    -0xc(%rbp),%eax
    d5b9:	48 63 d0             	movslq %eax,%rdx
    d5bc:	48 89 d0             	mov    %rdx,%rax
    d5bf:	48 c1 e0 02          	shl    $0x2,%rax
    d5c3:	48 01 d0             	add    %rdx,%rax
    d5c6:	48 8d 14 08          	lea    (%rax,%rcx,1),%rdx
    d5ca:	48 8d 05 7f 3b 00 00 	lea    0x3b7f(%rip),%rax        # 11150 <g_257>
    d5d1:	48 01 d0             	add    %rdx,%rax
    d5d4:	0f b6 00             	movzbl (%rax),%eax
    d5d7:	48 0f be c0          	movsbq %al,%rax
    d5db:	8b 55 fc             	mov    -0x4(%rbp),%edx
    d5de:	48 8d 35 50 10 00 00 	lea    0x1050(%rip),%rsi        # e635 <g_279+0x5e1>
    d5e5:	48 89 c7             	mov    %rax,%rdi
    d5e8:	e8 06 b1 ff ff       	callq  86f3 <transparent_crc>
    d5ed:	83 7d fc 00          	cmpl   $0x0,-0x4(%rbp)
    d5f1:	74 19                	je     d60c <main+0x3d4>
    d5f3:	8b 55 f8             	mov    -0x8(%rbp),%edx
    d5f6:	8b 45 f4             	mov    -0xc(%rbp),%eax
    d5f9:	89 c6                	mov    %eax,%esi
    d5fb:	48 8d 3d ee 0f 00 00 	lea    0xfee(%rip),%rdi        # e5f0 <g_279+0x59c>
    d602:	b8 00 00 00 00       	mov    $0x0,%eax
    d607:	e8 74 9a ff ff       	callq  7080 <printf@plt>
    d60c:	83 45 f8 01          	addl   $0x1,-0x8(%rbp)
    d610:	83 7d f8 04          	cmpl   $0x4,-0x8(%rbp)
    d614:	7e 9a                	jle    d5b0 <main+0x378>
    d616:	83 45 f4 01          	addl   $0x1,-0xc(%rbp)
    d61a:	83 7d f4 04          	cmpl   $0x4,-0xc(%rbp)
    d61e:	7e 87                	jle    d5a7 <main+0x36f>
    d620:	b8 ff ff ff ff       	mov    $0xffffffff,%eax
    d625:	48 0f bf c0          	movswq %ax,%rax
    d629:	8b 55 fc             	mov    -0x4(%rbp),%edx
    d62c:	48 8d 35 0e 10 00 00 	lea    0x100e(%rip),%rsi        # e641 <g_279+0x5ed>
    d633:	48 89 c7             	mov    %rax,%rdi
    d636:	e8 b8 b0 ff ff       	callq  86f3 <transparent_crc>
    d63b:	48 8b 05 36 68 00 00 	mov    0x6836(%rip),%rax        # 13e78 <g_318>
    d642:	8b 55 fc             	mov    -0x4(%rbp),%edx
    d645:	48 8d 35 fb 0f 00 00 	lea    0xffb(%rip),%rsi        # e647 <g_279+0x5f3>
    d64c:	48 89 c7             	mov    %rax,%rdi
    d64f:	e8 9f b0 ff ff       	callq  86f3 <transparent_crc>
    d654:	0f b7 05 0f 3b 00 00 	movzwl 0x3b0f(%rip),%eax        # 1116a <g_404>
    d65b:	48 0f bf c0          	movswq %ax,%rax
    d65f:	8b 55 fc             	mov    -0x4(%rbp),%edx
    d662:	48 8d 35 e4 0f 00 00 	lea    0xfe4(%rip),%rsi        # e64d <g_279+0x5f9>
    d669:	48 89 c7             	mov    %rax,%rdi
    d66c:	e8 82 b0 ff ff       	callq  86f3 <transparent_crc>
    d671:	c7 45 f4 00 00 00 00 	movl   $0x0,-0xc(%rbp)
    d678:	eb 6c                	jmp    d6e6 <main+0x4ae>
    d67a:	c7 45 f8 00 00 00 00 	movl   $0x0,-0x8(%rbp)
    d681:	eb 59                	jmp    d6dc <main+0x4a4>
    d683:	8b 45 f8             	mov    -0x8(%rbp),%eax
    d686:	48 98                	cltq   
    d688:	8b 55 f4             	mov    -0xc(%rbp),%edx
    d68b:	48 63 d2             	movslq %edx,%rdx
    d68e:	48 c1 e2 03          	shl    $0x3,%rdx
    d692:	48 01 d0             	add    %rdx,%rax
    d695:	48 8d 14 00          	lea    (%rax,%rax,1),%rdx
    d699:	48 8d 05 d0 3a 00 00 	lea    0x3ad0(%rip),%rax        # 11170 <g_405>
    d6a0:	0f b7 04 02          	movzwl (%rdx,%rax,1),%eax
    d6a4:	0f b7 c0             	movzwl %ax,%eax
    d6a7:	8b 55 fc             	mov    -0x4(%rbp),%edx
    d6aa:	48 8d 35 a2 0f 00 00 	lea    0xfa2(%rip),%rsi        # e653 <g_279+0x5ff>
    d6b1:	48 89 c7             	mov    %rax,%rdi
    d6b4:	e8 3a b0 ff ff       	callq  86f3 <transparent_crc>
    d6b9:	83 7d fc 00          	cmpl   $0x0,-0x4(%rbp)
    d6bd:	74 19                	je     d6d8 <main+0x4a0>
    d6bf:	8b 55 f8             	mov    -0x8(%rbp),%edx
    d6c2:	8b 45 f4             	mov    -0xc(%rbp),%eax
    d6c5:	89 c6                	mov    %eax,%esi
    d6c7:	48 8d 3d 22 0f 00 00 	lea    0xf22(%rip),%rdi        # e5f0 <g_279+0x59c>
    d6ce:	b8 00 00 00 00       	mov    $0x0,%eax
    d6d3:	e8 a8 99 ff ff       	callq  7080 <printf@plt>
    d6d8:	83 45 f8 01          	addl   $0x1,-0x8(%rbp)
    d6dc:	83 7d f8 07          	cmpl   $0x7,-0x8(%rbp)
    d6e0:	7e a1                	jle    d683 <main+0x44b>
    d6e2:	83 45 f4 01          	addl   $0x1,-0xc(%rbp)
    d6e6:	83 7d f4 00          	cmpl   $0x0,-0xc(%rbp)
    d6ea:	7e 8e                	jle    d67a <main+0x442>
    d6ec:	8b 05 8e 3a 00 00    	mov    0x3a8e(%rip),%eax        # 11180 <g_479>
    d6f2:	48 98                	cltq   
    d6f4:	8b 55 fc             	mov    -0x4(%rbp),%edx
    d6f7:	48 8d 35 61 0f 00 00 	lea    0xf61(%rip),%rsi        # e65f <g_279+0x60b>
    d6fe:	48 89 c7             	mov    %rax,%rdi
    d701:	e8 ed af ff ff       	callq  86f3 <transparent_crc>
    d706:	8b 05 78 3a 00 00    	mov    0x3a78(%rip),%eax        # 11184 <g_594>
    d70c:	89 c1                	mov    %eax,%ecx
    d70e:	8b 45 fc             	mov    -0x4(%rbp),%eax
    d711:	89 c2                	mov    %eax,%edx
    d713:	48 8d 35 4b 0f 00 00 	lea    0xf4b(%rip),%rsi        # e665 <g_279+0x611>
    d71a:	48 89 cf             	mov    %rcx,%rdi
    d71d:	e8 d1 af ff ff       	callq  86f3 <transparent_crc>
    d722:	c7 45 f4 00 00 00 00 	movl   $0x0,-0xc(%rbp)
    d729:	eb 6b                	jmp    d796 <main+0x55e>
    d72b:	c7 45 f8 00 00 00 00 	movl   $0x0,-0x8(%rbp)
    d732:	eb 58                	jmp    d78c <main+0x554>
    d734:	8b 45 f8             	mov    -0x8(%rbp),%eax
    d737:	48 98                	cltq   
    d739:	8b 55 f4             	mov    -0xc(%rbp),%edx
    d73c:	48 63 d2             	movslq %edx,%rdx
    d73f:	48 c1 e2 02          	shl    $0x2,%rdx
    d743:	48 01 c2             	add    %rax,%rdx
    d746:	48 8d 05 43 3a 00 00 	lea    0x3a43(%rip),%rax        # 11190 <g_596>
    d74d:	48 01 d0             	add    %rdx,%rax
    d750:	0f b6 00             	movzbl (%rax),%eax
    d753:	48 0f be c0          	movsbq %al,%rax
    d757:	8b 55 fc             	mov    -0x4(%rbp),%edx
    d75a:	48 8d 35 0a 0f 00 00 	lea    0xf0a(%rip),%rsi        # e66b <g_279+0x617>
    d761:	48 89 c7             	mov    %rax,%rdi
    d764:	e8 8a af ff ff       	callq  86f3 <transparent_crc>
    d769:	83 7d fc 00          	cmpl   $0x0,-0x4(%rbp)
    d76d:	74 19                	je     d788 <main+0x550>
    d76f:	8b 55 f8             	mov    -0x8(%rbp),%edx
    d772:	8b 45 f4             	mov    -0xc(%rbp),%eax
    d775:	89 c6                	mov    %eax,%esi
    d777:	48 8d 3d 72 0e 00 00 	lea    0xe72(%rip),%rdi        # e5f0 <g_279+0x59c>
    d77e:	b8 00 00 00 00       	mov    $0x0,%eax
    d783:	e8 f8 98 ff ff       	callq  7080 <printf@plt>
    d788:	83 45 f8 01          	addl   $0x1,-0x8(%rbp)
    d78c:	83 7d f8 03          	cmpl   $0x3,-0x8(%rbp)
    d790:	7e a2                	jle    d734 <main+0x4fc>
    d792:	83 45 f4 01          	addl   $0x1,-0xc(%rbp)
    d796:	83 7d f4 06          	cmpl   $0x6,-0xc(%rbp)
    d79a:	7e 8f                	jle    d72b <main+0x4f3>
    d79c:	0f b7 05 09 3a 00 00 	movzwl 0x3a09(%rip),%eax        # 111ac <g_651>
    d7a3:	48 0f bf c0          	movswq %ax,%rax
    d7a7:	8b 55 fc             	mov    -0x4(%rbp),%edx
    d7aa:	48 8d 35 c6 0e 00 00 	lea    0xec6(%rip),%rsi        # e677 <g_279+0x623>
    d7b1:	48 89 c7             	mov    %rax,%rdi
    d7b4:	e8 3a af ff ff       	callq  86f3 <transparent_crc>
    d7b9:	c7 45 f4 00 00 00 00 	movl   $0x0,-0xc(%rbp)
    d7c0:	eb 46                	jmp    d808 <main+0x5d0>
    d7c2:	8b 45 f4             	mov    -0xc(%rbp),%eax
    d7c5:	48 98                	cltq   
    d7c7:	48 8d 15 e2 39 00 00 	lea    0x39e2(%rip),%rdx        # 111b0 <g_692>
    d7ce:	0f b6 04 10          	movzbl (%rax,%rdx,1),%eax
    d7d2:	48 0f be c0          	movsbq %al,%rax
    d7d6:	8b 55 fc             	mov    -0x4(%rbp),%edx
    d7d9:	48 8d 35 9d 0e 00 00 	lea    0xe9d(%rip),%rsi        # e67d <g_279+0x629>
    d7e0:	48 89 c7             	mov    %rax,%rdi
    d7e3:	e8 0b af ff ff       	callq  86f3 <transparent_crc>
    d7e8:	83 7d fc 00          	cmpl   $0x0,-0x4(%rbp)
    d7ec:	74 16                	je     d804 <main+0x5cc>
    d7ee:	8b 45 f4             	mov    -0xc(%rbp),%eax
    d7f1:	89 c6                	mov    %eax,%esi
    d7f3:	48 8d 3d bf 0d 00 00 	lea    0xdbf(%rip),%rdi        # e5b9 <g_279+0x565>
    d7fa:	b8 00 00 00 00       	mov    $0x0,%eax
    d7ff:	e8 7c 98 ff ff       	callq  7080 <printf@plt>
    d804:	83 45 f4 01          	addl   $0x1,-0xc(%rbp)
    d808:	83 7d f4 08          	cmpl   $0x8,-0xc(%rbp)
    d80c:	7e b4                	jle    d7c2 <main+0x58a>
    d80e:	8b 05 a8 39 00 00    	mov    0x39a8(%rip),%eax        # 111bc <g_835>
    d814:	48 98                	cltq   
    d816:	8b 55 fc             	mov    -0x4(%rbp),%edx
    d819:	48 8d 35 66 0e 00 00 	lea    0xe66(%rip),%rsi        # e686 <g_279+0x632>
    d820:	48 89 c7             	mov    %rax,%rdi
    d823:	e8 cb ae ff ff       	callq  86f3 <transparent_crc>
    d828:	0f b6 05 91 39 00 00 	movzbl 0x3991(%rip),%eax        # 111c0 <g_887>
    d82f:	0f b6 c0             	movzbl %al,%eax
    d832:	8b 55 fc             	mov    -0x4(%rbp),%edx
    d835:	48 8d 35 50 0e 00 00 	lea    0xe50(%rip),%rsi        # e68c <g_279+0x638>
    d83c:	48 89 c7             	mov    %rax,%rdi
    d83f:	e8 af ae ff ff       	callq  86f3 <transparent_crc>
    d844:	c7 45 f4 00 00 00 00 	movl   $0x0,-0xc(%rbp)
    d84b:	eb 6c                	jmp    d8b9 <main+0x681>
    d84d:	c7 45 f8 00 00 00 00 	movl   $0x0,-0x8(%rbp)
    d854:	eb 59                	jmp    d8af <main+0x677>
    d856:	8b 45 f8             	mov    -0x8(%rbp),%eax
    d859:	48 98                	cltq   
    d85b:	8b 55 f4             	mov    -0xc(%rbp),%edx
    d85e:	48 63 d2             	movslq %edx,%rdx
    d861:	48 01 d2             	add    %rdx,%rdx
    d864:	48 01 d0             	add    %rdx,%rax
    d867:	48 8d 14 00          	lea    (%rax,%rax,1),%rdx
    d86b:	48 8d 05 5e 39 00 00 	lea    0x395e(%rip),%rax        # 111d0 <g_951>
    d872:	0f b7 04 02          	movzwl (%rdx,%rax,1),%eax
    d876:	48 0f bf c0          	movswq %ax,%rax
    d87a:	8b 55 fc             	mov    -0x4(%rbp),%edx
    d87d:	48 8d 35 0e 0e 00 00 	lea    0xe0e(%rip),%rsi        # e692 <g_279+0x63e>
    d884:	48 89 c7             	mov    %rax,%rdi
    d887:	e8 67 ae ff ff       	callq  86f3 <transparent_crc>
    d88c:	83 7d fc 00          	cmpl   $0x0,-0x4(%rbp)
    d890:	74 19                	je     d8ab <main+0x673>
    d892:	8b 55 f8             	mov    -0x8(%rbp),%edx
    d895:	8b 45 f4             	mov    -0xc(%rbp),%eax
    d898:	89 c6                	mov    %eax,%esi
    d89a:	48 8d 3d 4f 0d 00 00 	lea    0xd4f(%rip),%rdi        # e5f0 <g_279+0x59c>
    d8a1:	b8 00 00 00 00       	mov    $0x0,%eax
    d8a6:	e8 d5 97 ff ff       	callq  7080 <printf@plt>
    d8ab:	83 45 f8 01          	addl   $0x1,-0x8(%rbp)
    d8af:	83 7d f8 01          	cmpl   $0x1,-0x8(%rbp)
    d8b3:	7e a1                	jle    d856 <main+0x61e>
    d8b5:	83 45 f4 01          	addl   $0x1,-0xc(%rbp)
    d8b9:	83 7d f4 05          	cmpl   $0x5,-0xc(%rbp)
    d8bd:	7e 8e                	jle    d84d <main+0x615>
    d8bf:	8b 05 23 39 00 00    	mov    0x3923(%rip),%eax        # 111e8 <g_1071>
    d8c5:	89 c1                	mov    %eax,%ecx
    d8c7:	8b 45 fc             	mov    -0x4(%rbp),%eax
    d8ca:	89 c2                	mov    %eax,%edx
    d8cc:	48 8d 35 cb 0d 00 00 	lea    0xdcb(%rip),%rsi        # e69e <g_279+0x64a>
    d8d3:	48 89 cf             	mov    %rcx,%rdi
    d8d6:	e8 18 ae ff ff       	callq  86f3 <transparent_crc>
    d8db:	8b 05 3f 37 00 00    	mov    0x373f(%rip),%eax        # 11020 <crc32_context>
    d8e1:	f7 d0                	not    %eax
    d8e3:	89 c2                	mov    %eax,%edx
    d8e5:	8b 45 fc             	mov    -0x4(%rbp),%eax
    d8e8:	89 c6                	mov    %eax,%esi
    d8ea:	89 d7                	mov    %edx,%edi
    d8ec:	e8 a3 98 ff ff       	callq  7194 <platform_main_end>
    d8f1:	b8 00 00 00 00       	mov    $0x0,%eax
    d8f6:	c9                   	leaveq 
    d8f7:	c3                   	retq   
    d8f8:	0f 1f 84 00 00 00 00 	nopl   0x0(%rax,%rax,1)
    d8ff:	00 

000000000000d900 <__libc_csu_init>:
    d900:	f3 0f 1e fa          	endbr64 
    d904:	41 57                	push   %r15
    d906:	4c 8d 3d c3 32 00 00 	lea    0x32c3(%rip),%r15        # 10bd0 <__frame_dummy_init_array_entry>
    d90d:	41 56                	push   %r14
    d90f:	49 89 d6             	mov    %rdx,%r14
    d912:	41 55                	push   %r13
    d914:	49 89 f5             	mov    %rsi,%r13
    d917:	41 54                	push   %r12
    d919:	41 89 fc             	mov    %edi,%r12d
    d91c:	55                   	push   %rbp
    d91d:	48 8d 2d b4 32 00 00 	lea    0x32b4(%rip),%rbp        # 10bd8 <__do_global_dtors_aux_fini_array_entry>
    d924:	53                   	push   %rbx
    d925:	4c 29 fd             	sub    %r15,%rbp
    d928:	48 83 ec 08          	sub    $0x8,%rsp
    d92c:	e8 cf 96 ff ff       	callq  7000 <_init>
    d931:	48 c1 fd 03          	sar    $0x3,%rbp
    d935:	74 1f                	je     d956 <__libc_csu_init+0x56>
    d937:	31 db                	xor    %ebx,%ebx
    d939:	0f 1f 80 00 00 00 00 	nopl   0x0(%rax)
    d940:	4c 89 f2             	mov    %r14,%rdx
    d943:	4c 89 ee             	mov    %r13,%rsi
    d946:	44 89 e7             	mov    %r12d,%edi
    d949:	41 ff 14 df          	callq  *(%r15,%rbx,8)
    d94d:	48 83 c3 01          	add    $0x1,%rbx
    d951:	48 39 dd             	cmp    %rbx,%rbp
    d954:	75 ea                	jne    d940 <__libc_csu_init+0x40>
    d956:	48 83 c4 08          	add    $0x8,%rsp
    d95a:	5b                   	pop    %rbx
    d95b:	5d                   	pop    %rbp
    d95c:	41 5c                	pop    %r12
    d95e:	41 5d                	pop    %r13
    d960:	41 5e                	pop    %r14
    d962:	41 5f                	pop    %r15
    d964:	c3                   	retq   
    d965:	66 66 2e 0f 1f 84 00 	data16 nopw %cs:0x0(%rax,%rax,1)
    d96c:	00 00 00 00 

000000000000d970 <__libc_csu_fini>:
    d970:	f3 0f 1e fa          	endbr64 
    d974:	c3                   	retq   
