


Disassembly of section .text:

00000000000060a0 <_start>:
    60a0:	f3 0f 1e fa          	endbr64 
    60a4:	31 ed                	xor    %ebp,%ebp
    60a6:	49 89 d1             	mov    %rdx,%r9
    60a9:	5e                   	pop    %rsi
    60aa:	48 89 e2             	mov    %rsp,%rdx
    60ad:	48 83 e4 f0          	and    $0xfffffffffffffff0,%rsp
    60b1:	50                   	push   %rax
    60b2:	54                   	push   %rsp
    60b3:	4c 8d 05 56 3c 01 00 	lea    0x13c56(%rip),%r8        # 19d10 <__libc_csu_fini>
    60ba:	48 8d 0d df 3b 01 00 	lea    0x13bdf(%rip),%rcx        # 19ca0 <__libc_csu_init>
    60c1:	48 8d 3d b2 27 01 00 	lea    0x127b2(%rip),%rdi        # 1887a <main>
    60c8:	ff 15 12 9f 01 00    	callq  *0x19f12(%rip)        # 1ffe0 <__libc_start_main@GLIBC_2.2.5>
    60ce:	f4                   	hlt    
    60cf:	90                   	nop

00000000000060d0 <deregister_tm_clones>:
    60d0:	48 8d 3d 89 c3 01 00 	lea    0x1c389(%rip),%rdi        # 22460 <__TMC_END__>
    60d7:	48 8d 05 82 c3 01 00 	lea    0x1c382(%rip),%rax        # 22460 <__TMC_END__>
    60de:	48 39 f8             	cmp    %rdi,%rax
    60e1:	74 15                	je     60f8 <deregister_tm_clones+0x28>
    60e3:	48 8b 05 ee 9e 01 00 	mov    0x19eee(%rip),%rax        # 1ffd8 <_ITM_deregisterTMCloneTable>
    60ea:	48 85 c0             	test   %rax,%rax
    60ed:	74 09                	je     60f8 <deregister_tm_clones+0x28>
    60ef:	ff e0                	jmpq   *%rax
    60f1:	0f 1f 80 00 00 00 00 	nopl   0x0(%rax)
    60f8:	c3                   	retq   
    60f9:	0f 1f 80 00 00 00 00 	nopl   0x0(%rax)

0000000000006100 <register_tm_clones>:
    6100:	48 8d 3d 59 c3 01 00 	lea    0x1c359(%rip),%rdi        # 22460 <__TMC_END__>
    6107:	48 8d 35 52 c3 01 00 	lea    0x1c352(%rip),%rsi        # 22460 <__TMC_END__>
    610e:	48 29 fe             	sub    %rdi,%rsi
    6111:	48 89 f0             	mov    %rsi,%rax
    6114:	48 c1 ee 3f          	shr    $0x3f,%rsi
    6118:	48 c1 f8 03          	sar    $0x3,%rax
    611c:	48 01 c6             	add    %rax,%rsi
    611f:	48 d1 fe             	sar    %rsi
    6122:	74 14                	je     6138 <register_tm_clones+0x38>
    6124:	48 8b 05 c5 9e 01 00 	mov    0x19ec5(%rip),%rax        # 1fff0 <_ITM_registerTMCloneTable>
    612b:	48 85 c0             	test   %rax,%rax
    612e:	74 08                	je     6138 <register_tm_clones+0x38>
    6130:	ff e0                	jmpq   *%rax
    6132:	66 0f 1f 44 00 00    	nopw   0x0(%rax,%rax,1)
    6138:	c3                   	retq   
    6139:	0f 1f 80 00 00 00 00 	nopl   0x0(%rax)

0000000000006140 <__do_global_dtors_aux>:
    6140:	f3 0f 1e fa          	endbr64 
    6144:	80 3d 15 c3 01 00 00 	cmpb   $0x0,0x1c315(%rip)        # 22460 <__TMC_END__>
    614b:	75 2b                	jne    6178 <__do_global_dtors_aux+0x38>
    614d:	55                   	push   %rbp
    614e:	48 83 3d a2 9e 01 00 	cmpq   $0x0,0x19ea2(%rip)        # 1fff8 <__cxa_finalize@GLIBC_2.2.5>
    6155:	00 
    6156:	48 89 e5             	mov    %rsp,%rbp
    6159:	74 0c                	je     6167 <__do_global_dtors_aux+0x27>
    615b:	48 8b 3d a6 9e 01 00 	mov    0x19ea6(%rip),%rdi        # 20008 <__dso_handle>
    6162:	e8 f9 fe ff ff       	callq  6060 <__cxa_finalize@plt>
    6167:	e8 64 ff ff ff       	callq  60d0 <deregister_tm_clones>
    616c:	c6 05 ed c2 01 00 01 	movb   $0x1,0x1c2ed(%rip)        # 22460 <__TMC_END__>
    6173:	5d                   	pop    %rbp
    6174:	c3                   	retq   
    6175:	0f 1f 00             	nopl   (%rax)
    6178:	c3                   	retq   
    6179:	0f 1f 80 00 00 00 00 	nopl   0x0(%rax)

0000000000006180 <frame_dummy>:
    6180:	f3 0f 1e fa          	endbr64 
    6184:	e9 77 ff ff ff       	jmpq   6100 <register_tm_clones>

0000000000006189 <platform_main_begin>:
    6189:	f3 0f 1e fa          	endbr64 
    618d:	55                   	push   %rbp
    618e:	48 89 e5             	mov    %rsp,%rbp
    6191:	90                   	nop
    6192:	5d                   	pop    %rbp
    6193:	c3                   	retq   

0000000000006194 <platform_main_end>:
    6194:	f3 0f 1e fa          	endbr64 
    6198:	55                   	push   %rbp
    6199:	48 89 e5             	mov    %rsp,%rbp
    619c:	48 83 ec 10          	sub    $0x10,%rsp
    61a0:	89 7d fc             	mov    %edi,-0x4(%rbp)
    61a3:	89 75 f8             	mov    %esi,-0x8(%rbp)
    61a6:	8b 45 fc             	mov    -0x4(%rbp),%eax
    61a9:	89 c6                	mov    %eax,%esi
    61ab:	48 8d 3d 6e 3e 01 00 	lea    0x13e6e(%rip),%rdi        # 1a020 <_IO_stdin_used+0x20>
    61b2:	b8 00 00 00 00       	mov    $0x0,%eax
    61b7:	e8 c4 fe ff ff       	callq  6080 <printf@plt>
    61bc:	90                   	nop
    61bd:	c9                   	leaveq 
    61be:	c3                   	retq   

00000000000061bf <safe_unary_minus_func_int8_t_s>:
    61bf:	f3 0f 1e fa          	endbr64 
    61c3:	55                   	push   %rbp
    61c4:	48 89 e5             	mov    %rsp,%rbp
    61c7:	89 f8                	mov    %edi,%eax
    61c9:	88 45 fc             	mov    %al,-0x4(%rbp)
    61cc:	0f b6 45 fc          	movzbl -0x4(%rbp),%eax
    61d0:	f7 d8                	neg    %eax
    61d2:	5d                   	pop    %rbp
    61d3:	c3                   	retq   

00000000000061d4 <safe_add_func_int8_t_s_s>:
    61d4:	f3 0f 1e fa          	endbr64 
    61d8:	55                   	push   %rbp
    61d9:	48 89 e5             	mov    %rsp,%rbp
    61dc:	89 fa                	mov    %edi,%edx
    61de:	89 f0                	mov    %esi,%eax
    61e0:	88 55 fc             	mov    %dl,-0x4(%rbp)
    61e3:	88 45 f8             	mov    %al,-0x8(%rbp)
    61e6:	0f b6 55 fc          	movzbl -0x4(%rbp),%edx
    61ea:	0f b6 45 f8          	movzbl -0x8(%rbp),%eax
    61ee:	01 d0                	add    %edx,%eax
    61f0:	5d                   	pop    %rbp
    61f1:	c3                   	retq   

00000000000061f2 <safe_sub_func_int8_t_s_s>:
    61f2:	f3 0f 1e fa          	endbr64 
    61f6:	55                   	push   %rbp
    61f7:	48 89 e5             	mov    %rsp,%rbp
    61fa:	89 fa                	mov    %edi,%edx
    61fc:	89 f0                	mov    %esi,%eax
    61fe:	88 55 fc             	mov    %dl,-0x4(%rbp)
    6201:	88 45 f8             	mov    %al,-0x8(%rbp)
    6204:	0f b6 55 fc          	movzbl -0x4(%rbp),%edx
    6208:	0f b6 45 f8          	movzbl -0x8(%rbp),%eax
    620c:	29 c2                	sub    %eax,%edx
    620e:	89 d0                	mov    %edx,%eax
    6210:	5d                   	pop    %rbp
    6211:	c3                   	retq   

0000000000006212 <safe_mul_func_int8_t_s_s>:
    6212:	f3 0f 1e fa          	endbr64 
    6216:	55                   	push   %rbp
    6217:	48 89 e5             	mov    %rsp,%rbp
    621a:	89 fa                	mov    %edi,%edx
    621c:	89 f0                	mov    %esi,%eax
    621e:	88 55 fc             	mov    %dl,-0x4(%rbp)
    6221:	88 45 f8             	mov    %al,-0x8(%rbp)
    6224:	0f b6 45 fc          	movzbl -0x4(%rbp),%eax
    6228:	0f b6 55 f8          	movzbl -0x8(%rbp),%edx
    622c:	0f af c2             	imul   %edx,%eax
    622f:	5d                   	pop    %rbp
    6230:	c3                   	retq   

0000000000006231 <safe_mod_func_int8_t_s_s>:
    6231:	f3 0f 1e fa          	endbr64 
    6235:	55                   	push   %rbp
    6236:	48 89 e5             	mov    %rsp,%rbp
    6239:	89 fa                	mov    %edi,%edx
    623b:	89 f0                	mov    %esi,%eax
    623d:	88 55 fc             	mov    %dl,-0x4(%rbp)
    6240:	88 45 f8             	mov    %al,-0x8(%rbp)
    6243:	80 7d f8 00          	cmpb   $0x0,-0x8(%rbp)
    6247:	74 1b                	je     6264 <safe_mod_func_int8_t_s_s+0x33>
    6249:	80 7d fc 80          	cmpb   $0x80,-0x4(%rbp)
    624d:	75 06                	jne    6255 <safe_mod_func_int8_t_s_s+0x24>
    624f:	80 7d f8 ff          	cmpb   $0xff,-0x8(%rbp)
    6253:	74 0f                	je     6264 <safe_mod_func_int8_t_s_s+0x33>
    6255:	0f be 45 fc          	movsbl -0x4(%rbp),%eax
    6259:	0f be 4d f8          	movsbl -0x8(%rbp),%ecx
    625d:	99                   	cltd   
    625e:	f7 f9                	idiv   %ecx
    6260:	89 d0                	mov    %edx,%eax
    6262:	eb 04                	jmp    6268 <safe_mod_func_int8_t_s_s+0x37>
    6264:	0f b6 45 fc          	movzbl -0x4(%rbp),%eax
    6268:	5d                   	pop    %rbp
    6269:	c3                   	retq   

000000000000626a <safe_div_func_int8_t_s_s>:
    626a:	f3 0f 1e fa          	endbr64 
    626e:	55                   	push   %rbp
    626f:	48 89 e5             	mov    %rsp,%rbp
    6272:	89 fa                	mov    %edi,%edx
    6274:	89 f0                	mov    %esi,%eax
    6276:	88 55 fc             	mov    %dl,-0x4(%rbp)
    6279:	88 45 f8             	mov    %al,-0x8(%rbp)
    627c:	80 7d f8 00          	cmpb   $0x0,-0x8(%rbp)
    6280:	74 19                	je     629b <safe_div_func_int8_t_s_s+0x31>
    6282:	80 7d fc 80          	cmpb   $0x80,-0x4(%rbp)
    6286:	75 06                	jne    628e <safe_div_func_int8_t_s_s+0x24>
    6288:	80 7d f8 ff          	cmpb   $0xff,-0x8(%rbp)
    628c:	74 0d                	je     629b <safe_div_func_int8_t_s_s+0x31>
    628e:	0f be 45 fc          	movsbl -0x4(%rbp),%eax
    6292:	0f be 4d f8          	movsbl -0x8(%rbp),%ecx
    6296:	99                   	cltd   
    6297:	f7 f9                	idiv   %ecx
    6299:	eb 04                	jmp    629f <safe_div_func_int8_t_s_s+0x35>
    629b:	0f b6 45 fc          	movzbl -0x4(%rbp),%eax
    629f:	5d                   	pop    %rbp
    62a0:	c3                   	retq   

00000000000062a1 <safe_lshift_func_int8_t_s_s>:
    62a1:	f3 0f 1e fa          	endbr64 
    62a5:	55                   	push   %rbp
    62a6:	48 89 e5             	mov    %rsp,%rbp
    62a9:	89 f8                	mov    %edi,%eax
    62ab:	89 75 f8             	mov    %esi,-0x8(%rbp)
    62ae:	88 45 fc             	mov    %al,-0x4(%rbp)
    62b1:	80 7d fc 00          	cmpb   $0x0,-0x4(%rbp)
    62b5:	78 31                	js     62e8 <safe_lshift_func_int8_t_s_s+0x47>
    62b7:	83 7d f8 00          	cmpl   $0x0,-0x8(%rbp)
    62bb:	78 2b                	js     62e8 <safe_lshift_func_int8_t_s_s+0x47>
    62bd:	83 7d f8 1f          	cmpl   $0x1f,-0x8(%rbp)
    62c1:	7f 25                	jg     62e8 <safe_lshift_func_int8_t_s_s+0x47>
    62c3:	0f be 55 fc          	movsbl -0x4(%rbp),%edx
    62c7:	8b 45 f8             	mov    -0x8(%rbp),%eax
    62ca:	be 7f 00 00 00       	mov    $0x7f,%esi
    62cf:	89 c1                	mov    %eax,%ecx
    62d1:	d3 fe                	sar    %cl,%esi
    62d3:	89 f0                	mov    %esi,%eax
    62d5:	39 c2                	cmp    %eax,%edx
    62d7:	7f 0f                	jg     62e8 <safe_lshift_func_int8_t_s_s+0x47>
    62d9:	0f be 55 fc          	movsbl -0x4(%rbp),%edx
    62dd:	8b 45 f8             	mov    -0x8(%rbp),%eax
    62e0:	89 c1                	mov    %eax,%ecx
    62e2:	d3 e2                	shl    %cl,%edx
    62e4:	89 d0                	mov    %edx,%eax
    62e6:	eb 04                	jmp    62ec <safe_lshift_func_int8_t_s_s+0x4b>
    62e8:	0f b6 45 fc          	movzbl -0x4(%rbp),%eax
    62ec:	5d                   	pop    %rbp
    62ed:	c3                   	retq   

00000000000062ee <safe_lshift_func_int8_t_s_u>:
    62ee:	f3 0f 1e fa          	endbr64 
    62f2:	55                   	push   %rbp
    62f3:	48 89 e5             	mov    %rsp,%rbp
    62f6:	89 f8                	mov    %edi,%eax
    62f8:	89 75 f8             	mov    %esi,-0x8(%rbp)
    62fb:	88 45 fc             	mov    %al,-0x4(%rbp)
    62fe:	80 7d fc 00          	cmpb   $0x0,-0x4(%rbp)
    6302:	78 2b                	js     632f <safe_lshift_func_int8_t_s_u+0x41>
    6304:	83 7d f8 1f          	cmpl   $0x1f,-0x8(%rbp)
    6308:	77 25                	ja     632f <safe_lshift_func_int8_t_s_u+0x41>
    630a:	0f be 55 fc          	movsbl -0x4(%rbp),%edx
    630e:	8b 45 f8             	mov    -0x8(%rbp),%eax
    6311:	be 7f 00 00 00       	mov    $0x7f,%esi
    6316:	89 c1                	mov    %eax,%ecx
    6318:	d3 fe                	sar    %cl,%esi
    631a:	89 f0                	mov    %esi,%eax
    631c:	39 c2                	cmp    %eax,%edx
    631e:	7f 0f                	jg     632f <safe_lshift_func_int8_t_s_u+0x41>
    6320:	0f be 55 fc          	movsbl -0x4(%rbp),%edx
    6324:	8b 45 f8             	mov    -0x8(%rbp),%eax
    6327:	89 c1                	mov    %eax,%ecx
    6329:	d3 e2                	shl    %cl,%edx
    632b:	89 d0                	mov    %edx,%eax
    632d:	eb 04                	jmp    6333 <safe_lshift_func_int8_t_s_u+0x45>
    632f:	0f b6 45 fc          	movzbl -0x4(%rbp),%eax
    6333:	5d                   	pop    %rbp
    6334:	c3                   	retq   

0000000000006335 <safe_rshift_func_int8_t_s_s>:
    6335:	f3 0f 1e fa          	endbr64 
    6339:	55                   	push   %rbp
    633a:	48 89 e5             	mov    %rsp,%rbp
    633d:	89 f8                	mov    %edi,%eax
    633f:	89 75 f8             	mov    %esi,-0x8(%rbp)
    6342:	88 45 fc             	mov    %al,-0x4(%rbp)
    6345:	80 7d fc 00          	cmpb   $0x0,-0x4(%rbp)
    6349:	78 1b                	js     6366 <safe_rshift_func_int8_t_s_s+0x31>
    634b:	83 7d f8 00          	cmpl   $0x0,-0x8(%rbp)
    634f:	78 15                	js     6366 <safe_rshift_func_int8_t_s_s+0x31>
    6351:	83 7d f8 1f          	cmpl   $0x1f,-0x8(%rbp)
    6355:	7f 0f                	jg     6366 <safe_rshift_func_int8_t_s_s+0x31>
    6357:	0f be 55 fc          	movsbl -0x4(%rbp),%edx
    635b:	8b 45 f8             	mov    -0x8(%rbp),%eax
    635e:	89 c1                	mov    %eax,%ecx
    6360:	d3 fa                	sar    %cl,%edx
    6362:	89 d0                	mov    %edx,%eax
    6364:	eb 04                	jmp    636a <safe_rshift_func_int8_t_s_s+0x35>
    6366:	0f b6 45 fc          	movzbl -0x4(%rbp),%eax
    636a:	5d                   	pop    %rbp
    636b:	c3                   	retq   

000000000000636c <safe_rshift_func_int8_t_s_u>:
    636c:	f3 0f 1e fa          	endbr64 
    6370:	55                   	push   %rbp
    6371:	48 89 e5             	mov    %rsp,%rbp
    6374:	89 f8                	mov    %edi,%eax
    6376:	89 75 f8             	mov    %esi,-0x8(%rbp)
    6379:	88 45 fc             	mov    %al,-0x4(%rbp)
    637c:	80 7d fc 00          	cmpb   $0x0,-0x4(%rbp)
    6380:	78 15                	js     6397 <safe_rshift_func_int8_t_s_u+0x2b>
    6382:	83 7d f8 1f          	cmpl   $0x1f,-0x8(%rbp)
    6386:	77 0f                	ja     6397 <safe_rshift_func_int8_t_s_u+0x2b>
    6388:	0f be 55 fc          	movsbl -0x4(%rbp),%edx
    638c:	8b 45 f8             	mov    -0x8(%rbp),%eax
    638f:	89 c1                	mov    %eax,%ecx
    6391:	d3 fa                	sar    %cl,%edx
    6393:	89 d0                	mov    %edx,%eax
    6395:	eb 04                	jmp    639b <safe_rshift_func_int8_t_s_u+0x2f>
    6397:	0f b6 45 fc          	movzbl -0x4(%rbp),%eax
    639b:	5d                   	pop    %rbp
    639c:	c3                   	retq   

000000000000639d <safe_unary_minus_func_int16_t_s>:
    639d:	f3 0f 1e fa          	endbr64 
    63a1:	55                   	push   %rbp
    63a2:	48 89 e5             	mov    %rsp,%rbp
    63a5:	89 f8                	mov    %edi,%eax
    63a7:	66 89 45 fc          	mov    %ax,-0x4(%rbp)
    63ab:	0f b7 45 fc          	movzwl -0x4(%rbp),%eax
    63af:	f7 d8                	neg    %eax
    63b1:	5d                   	pop    %rbp
    63b2:	c3                   	retq   

00000000000063b3 <safe_add_func_int16_t_s_s>:
    63b3:	f3 0f 1e fa          	endbr64 
    63b7:	55                   	push   %rbp
    63b8:	48 89 e5             	mov    %rsp,%rbp
    63bb:	89 fa                	mov    %edi,%edx
    63bd:	89 f0                	mov    %esi,%eax
    63bf:	66 89 55 fc          	mov    %dx,-0x4(%rbp)
    63c3:	66 89 45 f8          	mov    %ax,-0x8(%rbp)
    63c7:	0f b7 55 fc          	movzwl -0x4(%rbp),%edx
    63cb:	0f b7 45 f8          	movzwl -0x8(%rbp),%eax
    63cf:	01 d0                	add    %edx,%eax
    63d1:	5d                   	pop    %rbp
    63d2:	c3                   	retq   

00000000000063d3 <safe_sub_func_int16_t_s_s>:
    63d3:	f3 0f 1e fa          	endbr64 
    63d7:	55                   	push   %rbp
    63d8:	48 89 e5             	mov    %rsp,%rbp
    63db:	89 fa                	mov    %edi,%edx
    63dd:	89 f0                	mov    %esi,%eax
    63df:	66 89 55 fc          	mov    %dx,-0x4(%rbp)
    63e3:	66 89 45 f8          	mov    %ax,-0x8(%rbp)
    63e7:	0f b7 55 fc          	movzwl -0x4(%rbp),%edx
    63eb:	0f b7 45 f8          	movzwl -0x8(%rbp),%eax
    63ef:	29 c2                	sub    %eax,%edx
    63f1:	89 d0                	mov    %edx,%eax
    63f3:	5d                   	pop    %rbp
    63f4:	c3                   	retq   

00000000000063f5 <safe_mul_func_int16_t_s_s>:
    63f5:	f3 0f 1e fa          	endbr64 
    63f9:	55                   	push   %rbp
    63fa:	48 89 e5             	mov    %rsp,%rbp
    63fd:	89 fa                	mov    %edi,%edx
    63ff:	89 f0                	mov    %esi,%eax
    6401:	66 89 55 fc          	mov    %dx,-0x4(%rbp)
    6405:	66 89 45 f8          	mov    %ax,-0x8(%rbp)
    6409:	0f b7 55 fc          	movzwl -0x4(%rbp),%edx
    640d:	0f b7 45 f8          	movzwl -0x8(%rbp),%eax
    6411:	0f af c2             	imul   %edx,%eax
    6414:	5d                   	pop    %rbp
    6415:	c3                   	retq   

0000000000006416 <safe_mod_func_int16_t_s_s>:
    6416:	f3 0f 1e fa          	endbr64 
    641a:	55                   	push   %rbp
    641b:	48 89 e5             	mov    %rsp,%rbp
    641e:	89 fa                	mov    %edi,%edx
    6420:	89 f0                	mov    %esi,%eax
    6422:	66 89 55 fc          	mov    %dx,-0x4(%rbp)
    6426:	66 89 45 f8          	mov    %ax,-0x8(%rbp)
    642a:	66 83 7d f8 00       	cmpw   $0x0,-0x8(%rbp)
    642f:	74 1e                	je     644f <safe_mod_func_int16_t_s_s+0x39>
    6431:	66 81 7d fc 00 80    	cmpw   $0x8000,-0x4(%rbp)
    6437:	75 07                	jne    6440 <safe_mod_func_int16_t_s_s+0x2a>
    6439:	66 83 7d f8 ff       	cmpw   $0xffff,-0x8(%rbp)
    643e:	74 0f                	je     644f <safe_mod_func_int16_t_s_s+0x39>
    6440:	0f bf 45 fc          	movswl -0x4(%rbp),%eax
    6444:	0f bf 4d f8          	movswl -0x8(%rbp),%ecx
    6448:	99                   	cltd   
    6449:	f7 f9                	idiv   %ecx
    644b:	89 d0                	mov    %edx,%eax
    644d:	eb 04                	jmp    6453 <safe_mod_func_int16_t_s_s+0x3d>
    644f:	0f b7 45 fc          	movzwl -0x4(%rbp),%eax
    6453:	5d                   	pop    %rbp
    6454:	c3                   	retq   

0000000000006455 <safe_div_func_int16_t_s_s>:
    6455:	f3 0f 1e fa          	endbr64 
    6459:	55                   	push   %rbp
    645a:	48 89 e5             	mov    %rsp,%rbp
    645d:	89 fa                	mov    %edi,%edx
    645f:	89 f0                	mov    %esi,%eax
    6461:	66 89 55 fc          	mov    %dx,-0x4(%rbp)
    6465:	66 89 45 f8          	mov    %ax,-0x8(%rbp)
    6469:	66 83 7d f8 00       	cmpw   $0x0,-0x8(%rbp)
    646e:	74 1c                	je     648c <safe_div_func_int16_t_s_s+0x37>
    6470:	66 81 7d fc 00 80    	cmpw   $0x8000,-0x4(%rbp)
    6476:	75 07                	jne    647f <safe_div_func_int16_t_s_s+0x2a>
    6478:	66 83 7d f8 ff       	cmpw   $0xffff,-0x8(%rbp)
    647d:	74 0d                	je     648c <safe_div_func_int16_t_s_s+0x37>
    647f:	0f bf 45 fc          	movswl -0x4(%rbp),%eax
    6483:	0f bf 4d f8          	movswl -0x8(%rbp),%ecx
    6487:	99                   	cltd   
    6488:	f7 f9                	idiv   %ecx
    648a:	eb 04                	jmp    6490 <safe_div_func_int16_t_s_s+0x3b>
    648c:	0f b7 45 fc          	movzwl -0x4(%rbp),%eax
    6490:	5d                   	pop    %rbp
    6491:	c3                   	retq   

0000000000006492 <safe_lshift_func_int16_t_s_s>:
    6492:	f3 0f 1e fa          	endbr64 
    6496:	55                   	push   %rbp
    6497:	48 89 e5             	mov    %rsp,%rbp
    649a:	89 f8                	mov    %edi,%eax
    649c:	89 75 f8             	mov    %esi,-0x8(%rbp)
    649f:	66 89 45 fc          	mov    %ax,-0x4(%rbp)
    64a3:	66 83 7d fc 00       	cmpw   $0x0,-0x4(%rbp)
    64a8:	78 31                	js     64db <safe_lshift_func_int16_t_s_s+0x49>
    64aa:	83 7d f8 00          	cmpl   $0x0,-0x8(%rbp)
    64ae:	78 2b                	js     64db <safe_lshift_func_int16_t_s_s+0x49>
    64b0:	83 7d f8 1f          	cmpl   $0x1f,-0x8(%rbp)
    64b4:	7f 25                	jg     64db <safe_lshift_func_int16_t_s_s+0x49>
    64b6:	0f bf 55 fc          	movswl -0x4(%rbp),%edx
    64ba:	8b 45 f8             	mov    -0x8(%rbp),%eax
    64bd:	be ff 7f 00 00       	mov    $0x7fff,%esi
    64c2:	89 c1                	mov    %eax,%ecx
    64c4:	d3 fe                	sar    %cl,%esi
    64c6:	89 f0                	mov    %esi,%eax
    64c8:	39 c2                	cmp    %eax,%edx
    64ca:	7f 0f                	jg     64db <safe_lshift_func_int16_t_s_s+0x49>
    64cc:	0f bf 55 fc          	movswl -0x4(%rbp),%edx
    64d0:	8b 45 f8             	mov    -0x8(%rbp),%eax
    64d3:	89 c1                	mov    %eax,%ecx
    64d5:	d3 e2                	shl    %cl,%edx
    64d7:	89 d0                	mov    %edx,%eax
    64d9:	eb 04                	jmp    64df <safe_lshift_func_int16_t_s_s+0x4d>
    64db:	0f b7 45 fc          	movzwl -0x4(%rbp),%eax
    64df:	5d                   	pop    %rbp
    64e0:	c3                   	retq   

00000000000064e1 <safe_lshift_func_int16_t_s_u>:
    64e1:	f3 0f 1e fa          	endbr64 
    64e5:	55                   	push   %rbp
    64e6:	48 89 e5             	mov    %rsp,%rbp
    64e9:	89 f8                	mov    %edi,%eax
    64eb:	89 75 f8             	mov    %esi,-0x8(%rbp)
    64ee:	66 89 45 fc          	mov    %ax,-0x4(%rbp)
    64f2:	66 83 7d fc 00       	cmpw   $0x0,-0x4(%rbp)
    64f7:	78 2b                	js     6524 <safe_lshift_func_int16_t_s_u+0x43>
    64f9:	83 7d f8 1f          	cmpl   $0x1f,-0x8(%rbp)
    64fd:	77 25                	ja     6524 <safe_lshift_func_int16_t_s_u+0x43>
    64ff:	0f bf 55 fc          	movswl -0x4(%rbp),%edx
    6503:	8b 45 f8             	mov    -0x8(%rbp),%eax
    6506:	be ff 7f 00 00       	mov    $0x7fff,%esi
    650b:	89 c1                	mov    %eax,%ecx
    650d:	d3 fe                	sar    %cl,%esi
    650f:	89 f0                	mov    %esi,%eax
    6511:	39 c2                	cmp    %eax,%edx
    6513:	7f 0f                	jg     6524 <safe_lshift_func_int16_t_s_u+0x43>
    6515:	0f bf 55 fc          	movswl -0x4(%rbp),%edx
    6519:	8b 45 f8             	mov    -0x8(%rbp),%eax
    651c:	89 c1                	mov    %eax,%ecx
    651e:	d3 e2                	shl    %cl,%edx
    6520:	89 d0                	mov    %edx,%eax
    6522:	eb 04                	jmp    6528 <safe_lshift_func_int16_t_s_u+0x47>
    6524:	0f b7 45 fc          	movzwl -0x4(%rbp),%eax
    6528:	5d                   	pop    %rbp
    6529:	c3                   	retq   

000000000000652a <safe_rshift_func_int16_t_s_s>:
    652a:	f3 0f 1e fa          	endbr64 
    652e:	55                   	push   %rbp
    652f:	48 89 e5             	mov    %rsp,%rbp
    6532:	89 f8                	mov    %edi,%eax
    6534:	89 75 f8             	mov    %esi,-0x8(%rbp)
    6537:	66 89 45 fc          	mov    %ax,-0x4(%rbp)
    653b:	66 83 7d fc 00       	cmpw   $0x0,-0x4(%rbp)
    6540:	78 1b                	js     655d <safe_rshift_func_int16_t_s_s+0x33>
    6542:	83 7d f8 00          	cmpl   $0x0,-0x8(%rbp)
    6546:	78 15                	js     655d <safe_rshift_func_int16_t_s_s+0x33>
    6548:	83 7d f8 1f          	cmpl   $0x1f,-0x8(%rbp)
    654c:	7f 0f                	jg     655d <safe_rshift_func_int16_t_s_s+0x33>
    654e:	0f bf 55 fc          	movswl -0x4(%rbp),%edx
    6552:	8b 45 f8             	mov    -0x8(%rbp),%eax
    6555:	89 c1                	mov    %eax,%ecx
    6557:	d3 fa                	sar    %cl,%edx
    6559:	89 d0                	mov    %edx,%eax
    655b:	eb 04                	jmp    6561 <safe_rshift_func_int16_t_s_s+0x37>
    655d:	0f b7 45 fc          	movzwl -0x4(%rbp),%eax
    6561:	5d                   	pop    %rbp
    6562:	c3                   	retq   

0000000000006563 <safe_rshift_func_int16_t_s_u>:
    6563:	f3 0f 1e fa          	endbr64 
    6567:	55                   	push   %rbp
    6568:	48 89 e5             	mov    %rsp,%rbp
    656b:	89 f8                	mov    %edi,%eax
    656d:	89 75 f8             	mov    %esi,-0x8(%rbp)
    6570:	66 89 45 fc          	mov    %ax,-0x4(%rbp)
    6574:	66 83 7d fc 00       	cmpw   $0x0,-0x4(%rbp)
    6579:	78 15                	js     6590 <safe_rshift_func_int16_t_s_u+0x2d>
    657b:	83 7d f8 1f          	cmpl   $0x1f,-0x8(%rbp)
    657f:	77 0f                	ja     6590 <safe_rshift_func_int16_t_s_u+0x2d>
    6581:	0f bf 55 fc          	movswl -0x4(%rbp),%edx
    6585:	8b 45 f8             	mov    -0x8(%rbp),%eax
    6588:	89 c1                	mov    %eax,%ecx
    658a:	d3 fa                	sar    %cl,%edx
    658c:	89 d0                	mov    %edx,%eax
    658e:	eb 04                	jmp    6594 <safe_rshift_func_int16_t_s_u+0x31>
    6590:	0f b7 45 fc          	movzwl -0x4(%rbp),%eax
    6594:	5d                   	pop    %rbp
    6595:	c3                   	retq   

0000000000006596 <safe_unary_minus_func_int32_t_s>:
    6596:	f3 0f 1e fa          	endbr64 
    659a:	55                   	push   %rbp
    659b:	48 89 e5             	mov    %rsp,%rbp
    659e:	89 7d fc             	mov    %edi,-0x4(%rbp)
    65a1:	81 7d fc 00 00 00 80 	cmpl   $0x80000000,-0x4(%rbp)
    65a8:	74 07                	je     65b1 <safe_unary_minus_func_int32_t_s+0x1b>
    65aa:	8b 45 fc             	mov    -0x4(%rbp),%eax
    65ad:	f7 d8                	neg    %eax
    65af:	eb 03                	jmp    65b4 <safe_unary_minus_func_int32_t_s+0x1e>
    65b1:	8b 45 fc             	mov    -0x4(%rbp),%eax
    65b4:	5d                   	pop    %rbp
    65b5:	c3                   	retq   

00000000000065b6 <safe_add_func_int32_t_s_s>:
    65b6:	f3 0f 1e fa          	endbr64 
    65ba:	55                   	push   %rbp
    65bb:	48 89 e5             	mov    %rsp,%rbp
    65be:	89 7d fc             	mov    %edi,-0x4(%rbp)
    65c1:	89 75 f8             	mov    %esi,-0x8(%rbp)
    65c4:	83 7d fc 00          	cmpl   $0x0,-0x4(%rbp)
    65c8:	7e 13                	jle    65dd <safe_add_func_int32_t_s_s+0x27>
    65ca:	83 7d f8 00          	cmpl   $0x0,-0x8(%rbp)
    65ce:	7e 0d                	jle    65dd <safe_add_func_int32_t_s_s+0x27>
    65d0:	b8 ff ff ff 7f       	mov    $0x7fffffff,%eax
    65d5:	2b 45 f8             	sub    -0x8(%rbp),%eax
    65d8:	39 45 fc             	cmp    %eax,-0x4(%rbp)
    65db:	7f 23                	jg     6600 <safe_add_func_int32_t_s_s+0x4a>
    65dd:	83 7d fc 00          	cmpl   $0x0,-0x4(%rbp)
    65e1:	79 13                	jns    65f6 <safe_add_func_int32_t_s_s+0x40>
    65e3:	83 7d f8 00          	cmpl   $0x0,-0x8(%rbp)
    65e7:	79 0d                	jns    65f6 <safe_add_func_int32_t_s_s+0x40>
    65e9:	b8 00 00 00 80       	mov    $0x80000000,%eax
    65ee:	2b 45 f8             	sub    -0x8(%rbp),%eax
    65f1:	39 45 fc             	cmp    %eax,-0x4(%rbp)
    65f4:	7c 0a                	jl     6600 <safe_add_func_int32_t_s_s+0x4a>
    65f6:	8b 55 fc             	mov    -0x4(%rbp),%edx
    65f9:	8b 45 f8             	mov    -0x8(%rbp),%eax
    65fc:	01 d0                	add    %edx,%eax
    65fe:	eb 03                	jmp    6603 <safe_add_func_int32_t_s_s+0x4d>
    6600:	8b 45 fc             	mov    -0x4(%rbp),%eax
    6603:	5d                   	pop    %rbp
    6604:	c3                   	retq   

0000000000006605 <safe_sub_func_int32_t_s_s>:
    6605:	f3 0f 1e fa          	endbr64 
    6609:	55                   	push   %rbp
    660a:	48 89 e5             	mov    %rsp,%rbp
    660d:	89 7d fc             	mov    %edi,-0x4(%rbp)
    6610:	89 75 f8             	mov    %esi,-0x8(%rbp)
    6613:	8b 45 fc             	mov    -0x4(%rbp),%eax
    6616:	33 45 f8             	xor    -0x8(%rbp),%eax
    6619:	89 c2                	mov    %eax,%edx
    661b:	8b 45 fc             	mov    -0x4(%rbp),%eax
    661e:	33 45 f8             	xor    -0x8(%rbp),%eax
    6621:	25 00 00 00 80       	and    $0x80000000,%eax
    6626:	33 45 fc             	xor    -0x4(%rbp),%eax
    6629:	2b 45 f8             	sub    -0x8(%rbp),%eax
    662c:	33 45 f8             	xor    -0x8(%rbp),%eax
    662f:	21 d0                	and    %edx,%eax
    6631:	85 c0                	test   %eax,%eax
    6633:	78 08                	js     663d <safe_sub_func_int32_t_s_s+0x38>
    6635:	8b 45 fc             	mov    -0x4(%rbp),%eax
    6638:	2b 45 f8             	sub    -0x8(%rbp),%eax
    663b:	eb 03                	jmp    6640 <safe_sub_func_int32_t_s_s+0x3b>
    663d:	8b 45 fc             	mov    -0x4(%rbp),%eax
    6640:	5d                   	pop    %rbp
    6641:	c3                   	retq   

0000000000006642 <safe_mul_func_int32_t_s_s>:
    6642:	f3 0f 1e fa          	endbr64 
    6646:	55                   	push   %rbp
    6647:	48 89 e5             	mov    %rsp,%rbp
    664a:	89 7d fc             	mov    %edi,-0x4(%rbp)
    664d:	89 75 f8             	mov    %esi,-0x8(%rbp)
    6650:	83 7d fc 00          	cmpl   $0x0,-0x4(%rbp)
    6654:	7e 14                	jle    666a <safe_mul_func_int32_t_s_s+0x28>
    6656:	83 7d f8 00          	cmpl   $0x0,-0x8(%rbp)
    665a:	7e 0e                	jle    666a <safe_mul_func_int32_t_s_s+0x28>
    665c:	b8 ff ff ff 7f       	mov    $0x7fffffff,%eax
    6661:	99                   	cltd   
    6662:	f7 7d f8             	idivl  -0x8(%rbp)
    6665:	39 45 fc             	cmp    %eax,-0x4(%rbp)
    6668:	7f 5d                	jg     66c7 <safe_mul_func_int32_t_s_s+0x85>
    666a:	83 7d fc 00          	cmpl   $0x0,-0x4(%rbp)
    666e:	7e 14                	jle    6684 <safe_mul_func_int32_t_s_s+0x42>
    6670:	83 7d f8 00          	cmpl   $0x0,-0x8(%rbp)
    6674:	7f 0e                	jg     6684 <safe_mul_func_int32_t_s_s+0x42>
    6676:	b8 00 00 00 80       	mov    $0x80000000,%eax
    667b:	99                   	cltd   
    667c:	f7 7d fc             	idivl  -0x4(%rbp)
    667f:	39 45 f8             	cmp    %eax,-0x8(%rbp)
    6682:	7c 43                	jl     66c7 <safe_mul_func_int32_t_s_s+0x85>
    6684:	83 7d fc 00          	cmpl   $0x0,-0x4(%rbp)
    6688:	7f 14                	jg     669e <safe_mul_func_int32_t_s_s+0x5c>
    668a:	83 7d f8 00          	cmpl   $0x0,-0x8(%rbp)
    668e:	7e 0e                	jle    669e <safe_mul_func_int32_t_s_s+0x5c>
    6690:	b8 00 00 00 80       	mov    $0x80000000,%eax
    6695:	99                   	cltd   
    6696:	f7 7d f8             	idivl  -0x8(%rbp)
    6699:	39 45 fc             	cmp    %eax,-0x4(%rbp)
    669c:	7c 29                	jl     66c7 <safe_mul_func_int32_t_s_s+0x85>
    669e:	83 7d fc 00          	cmpl   $0x0,-0x4(%rbp)
    66a2:	7f 1a                	jg     66be <safe_mul_func_int32_t_s_s+0x7c>
    66a4:	83 7d f8 00          	cmpl   $0x0,-0x8(%rbp)
    66a8:	7f 14                	jg     66be <safe_mul_func_int32_t_s_s+0x7c>
    66aa:	83 7d fc 00          	cmpl   $0x0,-0x4(%rbp)
    66ae:	74 0e                	je     66be <safe_mul_func_int32_t_s_s+0x7c>
    66b0:	b8 ff ff ff 7f       	mov    $0x7fffffff,%eax
    66b5:	99                   	cltd   
    66b6:	f7 7d fc             	idivl  -0x4(%rbp)
    66b9:	39 45 f8             	cmp    %eax,-0x8(%rbp)
    66bc:	7c 09                	jl     66c7 <safe_mul_func_int32_t_s_s+0x85>
    66be:	8b 45 fc             	mov    -0x4(%rbp),%eax
    66c1:	0f af 45 f8          	imul   -0x8(%rbp),%eax
    66c5:	eb 03                	jmp    66ca <safe_mul_func_int32_t_s_s+0x88>
    66c7:	8b 45 fc             	mov    -0x4(%rbp),%eax
    66ca:	5d                   	pop    %rbp
    66cb:	c3                   	retq   

00000000000066cc <safe_mod_func_int32_t_s_s>:
    66cc:	f3 0f 1e fa          	endbr64 
    66d0:	55                   	push   %rbp
    66d1:	48 89 e5             	mov    %rsp,%rbp
    66d4:	89 7d fc             	mov    %edi,-0x4(%rbp)
    66d7:	89 75 f8             	mov    %esi,-0x8(%rbp)
    66da:	83 7d f8 00          	cmpl   $0x0,-0x8(%rbp)
    66de:	74 1a                	je     66fa <safe_mod_func_int32_t_s_s+0x2e>
    66e0:	81 7d fc 00 00 00 80 	cmpl   $0x80000000,-0x4(%rbp)
    66e7:	75 06                	jne    66ef <safe_mod_func_int32_t_s_s+0x23>
    66e9:	83 7d f8 ff          	cmpl   $0xffffffff,-0x8(%rbp)
    66ed:	74 0b                	je     66fa <safe_mod_func_int32_t_s_s+0x2e>
    66ef:	8b 45 fc             	mov    -0x4(%rbp),%eax
    66f2:	99                   	cltd   
    66f3:	f7 7d f8             	idivl  -0x8(%rbp)
    66f6:	89 d0                	mov    %edx,%eax
    66f8:	eb 03                	jmp    66fd <safe_mod_func_int32_t_s_s+0x31>
    66fa:	8b 45 fc             	mov    -0x4(%rbp),%eax
    66fd:	5d                   	pop    %rbp
    66fe:	c3                   	retq   

00000000000066ff <safe_div_func_int32_t_s_s>:
    66ff:	f3 0f 1e fa          	endbr64 
    6703:	55                   	push   %rbp
    6704:	48 89 e5             	mov    %rsp,%rbp
    6707:	89 7d fc             	mov    %edi,-0x4(%rbp)
    670a:	89 75 f8             	mov    %esi,-0x8(%rbp)
    670d:	83 7d f8 00          	cmpl   $0x0,-0x8(%rbp)
    6711:	74 18                	je     672b <safe_div_func_int32_t_s_s+0x2c>
    6713:	81 7d fc 00 00 00 80 	cmpl   $0x80000000,-0x4(%rbp)
    671a:	75 06                	jne    6722 <safe_div_func_int32_t_s_s+0x23>
    671c:	83 7d f8 ff          	cmpl   $0xffffffff,-0x8(%rbp)
    6720:	74 09                	je     672b <safe_div_func_int32_t_s_s+0x2c>
    6722:	8b 45 fc             	mov    -0x4(%rbp),%eax
    6725:	99                   	cltd   
    6726:	f7 7d f8             	idivl  -0x8(%rbp)
    6729:	eb 03                	jmp    672e <safe_div_func_int32_t_s_s+0x2f>
    672b:	8b 45 fc             	mov    -0x4(%rbp),%eax
    672e:	5d                   	pop    %rbp
    672f:	c3                   	retq   

0000000000006730 <safe_lshift_func_int32_t_s_s>:
    6730:	f3 0f 1e fa          	endbr64 
    6734:	55                   	push   %rbp
    6735:	48 89 e5             	mov    %rsp,%rbp
    6738:	89 7d fc             	mov    %edi,-0x4(%rbp)
    673b:	89 75 f8             	mov    %esi,-0x8(%rbp)
    673e:	83 7d fc 00          	cmpl   $0x0,-0x4(%rbp)
    6742:	78 2d                	js     6771 <safe_lshift_func_int32_t_s_s+0x41>
    6744:	83 7d f8 00          	cmpl   $0x0,-0x8(%rbp)
    6748:	78 27                	js     6771 <safe_lshift_func_int32_t_s_s+0x41>
    674a:	83 7d f8 1f          	cmpl   $0x1f,-0x8(%rbp)
    674e:	7f 21                	jg     6771 <safe_lshift_func_int32_t_s_s+0x41>
    6750:	8b 45 f8             	mov    -0x8(%rbp),%eax
    6753:	ba ff ff ff 7f       	mov    $0x7fffffff,%edx
    6758:	89 c1                	mov    %eax,%ecx
    675a:	d3 fa                	sar    %cl,%edx
    675c:	89 d0                	mov    %edx,%eax
    675e:	39 45 fc             	cmp    %eax,-0x4(%rbp)
    6761:	7f 0e                	jg     6771 <safe_lshift_func_int32_t_s_s+0x41>
    6763:	8b 45 f8             	mov    -0x8(%rbp),%eax
    6766:	8b 55 fc             	mov    -0x4(%rbp),%edx
    6769:	89 c1                	mov    %eax,%ecx
    676b:	d3 e2                	shl    %cl,%edx
    676d:	89 d0                	mov    %edx,%eax
    676f:	eb 03                	jmp    6774 <safe_lshift_func_int32_t_s_s+0x44>
    6771:	8b 45 fc             	mov    -0x4(%rbp),%eax
    6774:	5d                   	pop    %rbp
    6775:	c3                   	retq   

0000000000006776 <safe_lshift_func_int32_t_s_u>:
    6776:	f3 0f 1e fa          	endbr64 
    677a:	55                   	push   %rbp
    677b:	48 89 e5             	mov    %rsp,%rbp
    677e:	89 7d fc             	mov    %edi,-0x4(%rbp)
    6781:	89 75 f8             	mov    %esi,-0x8(%rbp)
    6784:	83 7d fc 00          	cmpl   $0x0,-0x4(%rbp)
    6788:	78 27                	js     67b1 <safe_lshift_func_int32_t_s_u+0x3b>
    678a:	83 7d f8 1f          	cmpl   $0x1f,-0x8(%rbp)
    678e:	77 21                	ja     67b1 <safe_lshift_func_int32_t_s_u+0x3b>
    6790:	8b 45 f8             	mov    -0x8(%rbp),%eax
    6793:	ba ff ff ff 7f       	mov    $0x7fffffff,%edx
    6798:	89 c1                	mov    %eax,%ecx
    679a:	d3 fa                	sar    %cl,%edx
    679c:	89 d0                	mov    %edx,%eax
    679e:	39 45 fc             	cmp    %eax,-0x4(%rbp)
    67a1:	7f 0e                	jg     67b1 <safe_lshift_func_int32_t_s_u+0x3b>
    67a3:	8b 45 f8             	mov    -0x8(%rbp),%eax
    67a6:	8b 55 fc             	mov    -0x4(%rbp),%edx
    67a9:	89 c1                	mov    %eax,%ecx
    67ab:	d3 e2                	shl    %cl,%edx
    67ad:	89 d0                	mov    %edx,%eax
    67af:	eb 03                	jmp    67b4 <safe_lshift_func_int32_t_s_u+0x3e>
    67b1:	8b 45 fc             	mov    -0x4(%rbp),%eax
    67b4:	5d                   	pop    %rbp
    67b5:	c3                   	retq   

00000000000067b6 <safe_rshift_func_int32_t_s_s>:
    67b6:	f3 0f 1e fa          	endbr64 
    67ba:	55                   	push   %rbp
    67bb:	48 89 e5             	mov    %rsp,%rbp
    67be:	89 7d fc             	mov    %edi,-0x4(%rbp)
    67c1:	89 75 f8             	mov    %esi,-0x8(%rbp)
    67c4:	83 7d fc 00          	cmpl   $0x0,-0x4(%rbp)
    67c8:	78 1a                	js     67e4 <safe_rshift_func_int32_t_s_s+0x2e>
    67ca:	83 7d f8 00          	cmpl   $0x0,-0x8(%rbp)
    67ce:	78 14                	js     67e4 <safe_rshift_func_int32_t_s_s+0x2e>
    67d0:	83 7d f8 1f          	cmpl   $0x1f,-0x8(%rbp)
    67d4:	7f 0e                	jg     67e4 <safe_rshift_func_int32_t_s_s+0x2e>
    67d6:	8b 45 f8             	mov    -0x8(%rbp),%eax
    67d9:	8b 55 fc             	mov    -0x4(%rbp),%edx
    67dc:	89 c1                	mov    %eax,%ecx
    67de:	d3 fa                	sar    %cl,%edx
    67e0:	89 d0                	mov    %edx,%eax
    67e2:	eb 03                	jmp    67e7 <safe_rshift_func_int32_t_s_s+0x31>
    67e4:	8b 45 fc             	mov    -0x4(%rbp),%eax
    67e7:	5d                   	pop    %rbp
    67e8:	c3                   	retq   

00000000000067e9 <safe_rshift_func_int32_t_s_u>:
    67e9:	f3 0f 1e fa          	endbr64 
    67ed:	55                   	push   %rbp
    67ee:	48 89 e5             	mov    %rsp,%rbp
    67f1:	89 7d fc             	mov    %edi,-0x4(%rbp)
    67f4:	89 75 f8             	mov    %esi,-0x8(%rbp)
    67f7:	83 7d fc 00          	cmpl   $0x0,-0x4(%rbp)
    67fb:	78 14                	js     6811 <safe_rshift_func_int32_t_s_u+0x28>
    67fd:	83 7d f8 1f          	cmpl   $0x1f,-0x8(%rbp)
    6801:	77 0e                	ja     6811 <safe_rshift_func_int32_t_s_u+0x28>
    6803:	8b 45 f8             	mov    -0x8(%rbp),%eax
    6806:	8b 55 fc             	mov    -0x4(%rbp),%edx
    6809:	89 c1                	mov    %eax,%ecx
    680b:	d3 fa                	sar    %cl,%edx
    680d:	89 d0                	mov    %edx,%eax
    680f:	eb 03                	jmp    6814 <safe_rshift_func_int32_t_s_u+0x2b>
    6811:	8b 45 fc             	mov    -0x4(%rbp),%eax
    6814:	5d                   	pop    %rbp
    6815:	c3                   	retq   

0000000000006816 <safe_unary_minus_func_int64_t_s>:
    6816:	f3 0f 1e fa          	endbr64 
    681a:	55                   	push   %rbp
    681b:	48 89 e5             	mov    %rsp,%rbp
    681e:	48 89 7d f8          	mov    %rdi,-0x8(%rbp)
    6822:	48 b8 00 00 00 00 00 	movabs $0x8000000000000000,%rax
    6829:	00 00 80 
    682c:	48 39 45 f8          	cmp    %rax,-0x8(%rbp)
    6830:	74 09                	je     683b <safe_unary_minus_func_int64_t_s+0x25>
    6832:	48 8b 45 f8          	mov    -0x8(%rbp),%rax
    6836:	48 f7 d8             	neg    %rax
    6839:	eb 04                	jmp    683f <safe_unary_minus_func_int64_t_s+0x29>
    683b:	48 8b 45 f8          	mov    -0x8(%rbp),%rax
    683f:	5d                   	pop    %rbp
    6840:	c3                   	retq   

0000000000006841 <safe_add_func_int64_t_s_s>:
    6841:	f3 0f 1e fa          	endbr64 
    6845:	55                   	push   %rbp
    6846:	48 89 e5             	mov    %rsp,%rbp
    6849:	48 89 7d f8          	mov    %rdi,-0x8(%rbp)
    684d:	48 89 75 f0          	mov    %rsi,-0x10(%rbp)
    6851:	48 83 7d f8 00       	cmpq   $0x0,-0x8(%rbp)
    6856:	7e 1b                	jle    6873 <safe_add_func_int64_t_s_s+0x32>
    6858:	48 83 7d f0 00       	cmpq   $0x0,-0x10(%rbp)
    685d:	7e 14                	jle    6873 <safe_add_func_int64_t_s_s+0x32>
    685f:	48 b8 ff ff ff ff ff 	movabs $0x7fffffffffffffff,%rax
    6866:	ff ff 7f 
    6869:	48 2b 45 f0          	sub    -0x10(%rbp),%rax
    686d:	48 39 45 f8          	cmp    %rax,-0x8(%rbp)
    6871:	7f 2f                	jg     68a2 <safe_add_func_int64_t_s_s+0x61>
    6873:	48 83 7d f8 00       	cmpq   $0x0,-0x8(%rbp)
    6878:	79 1b                	jns    6895 <safe_add_func_int64_t_s_s+0x54>
    687a:	48 83 7d f0 00       	cmpq   $0x0,-0x10(%rbp)
    687f:	79 14                	jns    6895 <safe_add_func_int64_t_s_s+0x54>
    6881:	48 b8 00 00 00 00 00 	movabs $0x8000000000000000,%rax
    6888:	00 00 80 
    688b:	48 2b 45 f0          	sub    -0x10(%rbp),%rax
    688f:	48 39 45 f8          	cmp    %rax,-0x8(%rbp)
    6893:	7c 0d                	jl     68a2 <safe_add_func_int64_t_s_s+0x61>
    6895:	48 8b 55 f8          	mov    -0x8(%rbp),%rdx
    6899:	48 8b 45 f0          	mov    -0x10(%rbp),%rax
    689d:	48 01 d0             	add    %rdx,%rax
    68a0:	eb 04                	jmp    68a6 <safe_add_func_int64_t_s_s+0x65>
    68a2:	48 8b 45 f8          	mov    -0x8(%rbp),%rax
    68a6:	5d                   	pop    %rbp
    68a7:	c3                   	retq   

00000000000068a8 <safe_sub_func_int64_t_s_s>:
    68a8:	f3 0f 1e fa          	endbr64 
    68ac:	55                   	push   %rbp
    68ad:	48 89 e5             	mov    %rsp,%rbp
    68b0:	48 89 7d f8          	mov    %rdi,-0x8(%rbp)
    68b4:	48 89 75 f0          	mov    %rsi,-0x10(%rbp)
    68b8:	48 8b 45 f8          	mov    -0x8(%rbp),%rax
    68bc:	48 33 45 f0          	xor    -0x10(%rbp),%rax
    68c0:	48 89 c2             	mov    %rax,%rdx
    68c3:	48 8b 45 f8          	mov    -0x8(%rbp),%rax
    68c7:	48 33 45 f0          	xor    -0x10(%rbp),%rax
    68cb:	48 b9 00 00 00 00 00 	movabs $0x8000000000000000,%rcx
    68d2:	00 00 80 
    68d5:	48 21 c8             	and    %rcx,%rax
    68d8:	48 33 45 f8          	xor    -0x8(%rbp),%rax
    68dc:	48 2b 45 f0          	sub    -0x10(%rbp),%rax
    68e0:	48 33 45 f0          	xor    -0x10(%rbp),%rax
    68e4:	48 21 d0             	and    %rdx,%rax
    68e7:	48 85 c0             	test   %rax,%rax
    68ea:	78 0a                	js     68f6 <safe_sub_func_int64_t_s_s+0x4e>
    68ec:	48 8b 45 f8          	mov    -0x8(%rbp),%rax
    68f0:	48 2b 45 f0          	sub    -0x10(%rbp),%rax
    68f4:	eb 04                	jmp    68fa <safe_sub_func_int64_t_s_s+0x52>
    68f6:	48 8b 45 f8          	mov    -0x8(%rbp),%rax
    68fa:	5d                   	pop    %rbp
    68fb:	c3                   	retq   

00000000000068fc <safe_mul_func_int64_t_s_s>:
    68fc:	f3 0f 1e fa          	endbr64 
    6900:	55                   	push   %rbp
    6901:	48 89 e5             	mov    %rsp,%rbp
    6904:	48 89 7d f8          	mov    %rdi,-0x8(%rbp)
    6908:	48 89 75 f0          	mov    %rsi,-0x10(%rbp)
    690c:	48 83 7d f8 00       	cmpq   $0x0,-0x8(%rbp)
    6911:	7e 1d                	jle    6930 <safe_mul_func_int64_t_s_s+0x34>
    6913:	48 83 7d f0 00       	cmpq   $0x0,-0x10(%rbp)
    6918:	7e 16                	jle    6930 <safe_mul_func_int64_t_s_s+0x34>
    691a:	48 b8 ff ff ff ff ff 	movabs $0x7fffffffffffffff,%rax
    6921:	ff ff 7f 
    6924:	48 99                	cqto   
    6926:	48 f7 7d f0          	idivq  -0x10(%rbp)
    692a:	48 39 45 f8          	cmp    %rax,-0x8(%rbp)
    692e:	7f 7e                	jg     69ae <safe_mul_func_int64_t_s_s+0xb2>
    6930:	48 83 7d f8 00       	cmpq   $0x0,-0x8(%rbp)
    6935:	7e 1d                	jle    6954 <safe_mul_func_int64_t_s_s+0x58>
    6937:	48 83 7d f0 00       	cmpq   $0x0,-0x10(%rbp)
    693c:	7f 16                	jg     6954 <safe_mul_func_int64_t_s_s+0x58>
    693e:	48 b8 00 00 00 00 00 	movabs $0x8000000000000000,%rax
    6945:	00 00 80 
    6948:	48 99                	cqto   
    694a:	48 f7 7d f8          	idivq  -0x8(%rbp)
    694e:	48 39 45 f0          	cmp    %rax,-0x10(%rbp)
    6952:	7c 5a                	jl     69ae <safe_mul_func_int64_t_s_s+0xb2>
    6954:	48 83 7d f8 00       	cmpq   $0x0,-0x8(%rbp)
    6959:	7f 1d                	jg     6978 <safe_mul_func_int64_t_s_s+0x7c>
    695b:	48 83 7d f0 00       	cmpq   $0x0,-0x10(%rbp)
    6960:	7e 16                	jle    6978 <safe_mul_func_int64_t_s_s+0x7c>
    6962:	48 b8 00 00 00 00 00 	movabs $0x8000000000000000,%rax
    6969:	00 00 80 
    696c:	48 99                	cqto   
    696e:	48 f7 7d f0          	idivq  -0x10(%rbp)
    6972:	48 39 45 f8          	cmp    %rax,-0x8(%rbp)
    6976:	7c 36                	jl     69ae <safe_mul_func_int64_t_s_s+0xb2>
    6978:	48 83 7d f8 00       	cmpq   $0x0,-0x8(%rbp)
    697d:	7f 24                	jg     69a3 <safe_mul_func_int64_t_s_s+0xa7>
    697f:	48 83 7d f0 00       	cmpq   $0x0,-0x10(%rbp)
    6984:	7f 1d                	jg     69a3 <safe_mul_func_int64_t_s_s+0xa7>
    6986:	48 83 7d f8 00       	cmpq   $0x0,-0x8(%rbp)
    698b:	74 16                	je     69a3 <safe_mul_func_int64_t_s_s+0xa7>
    698d:	48 b8 ff ff ff ff ff 	movabs $0x7fffffffffffffff,%rax
    6994:	ff ff 7f 
    6997:	48 99                	cqto   
    6999:	48 f7 7d f8          	idivq  -0x8(%rbp)
    699d:	48 39 45 f0          	cmp    %rax,-0x10(%rbp)
    69a1:	7c 0b                	jl     69ae <safe_mul_func_int64_t_s_s+0xb2>
    69a3:	48 8b 45 f8          	mov    -0x8(%rbp),%rax
    69a7:	48 0f af 45 f0       	imul   -0x10(%rbp),%rax
    69ac:	eb 04                	jmp    69b2 <safe_mul_func_int64_t_s_s+0xb6>
    69ae:	48 8b 45 f8          	mov    -0x8(%rbp),%rax
    69b2:	5d                   	pop    %rbp
    69b3:	c3                   	retq   

00000000000069b4 <safe_mod_func_int64_t_s_s>:
    69b4:	f3 0f 1e fa          	endbr64 
    69b8:	55                   	push   %rbp
    69b9:	48 89 e5             	mov    %rsp,%rbp
    69bc:	48 89 7d f8          	mov    %rdi,-0x8(%rbp)
    69c0:	48 89 75 f0          	mov    %rsi,-0x10(%rbp)
    69c4:	48 83 7d f0 00       	cmpq   $0x0,-0x10(%rbp)
    69c9:	74 26                	je     69f1 <safe_mod_func_int64_t_s_s+0x3d>
    69cb:	48 b8 00 00 00 00 00 	movabs $0x8000000000000000,%rax
    69d2:	00 00 80 
    69d5:	48 39 45 f8          	cmp    %rax,-0x8(%rbp)
    69d9:	75 07                	jne    69e2 <safe_mod_func_int64_t_s_s+0x2e>
    69db:	48 83 7d f0 ff       	cmpq   $0xffffffffffffffff,-0x10(%rbp)
    69e0:	74 0f                	je     69f1 <safe_mod_func_int64_t_s_s+0x3d>
    69e2:	48 8b 45 f8          	mov    -0x8(%rbp),%rax
    69e6:	48 99                	cqto   
    69e8:	48 f7 7d f0          	idivq  -0x10(%rbp)
    69ec:	48 89 d0             	mov    %rdx,%rax
    69ef:	eb 04                	jmp    69f5 <safe_mod_func_int64_t_s_s+0x41>
    69f1:	48 8b 45 f8          	mov    -0x8(%rbp),%rax
    69f5:	5d                   	pop    %rbp
    69f6:	c3                   	retq   

00000000000069f7 <safe_div_func_int64_t_s_s>:
    69f7:	f3 0f 1e fa          	endbr64 
    69fb:	55                   	push   %rbp
    69fc:	48 89 e5             	mov    %rsp,%rbp
    69ff:	48 89 7d f8          	mov    %rdi,-0x8(%rbp)
    6a03:	48 89 75 f0          	mov    %rsi,-0x10(%rbp)
    6a07:	48 83 7d f0 00       	cmpq   $0x0,-0x10(%rbp)
    6a0c:	74 23                	je     6a31 <safe_div_func_int64_t_s_s+0x3a>
    6a0e:	48 b8 00 00 00 00 00 	movabs $0x8000000000000000,%rax
    6a15:	00 00 80 
    6a18:	48 39 45 f8          	cmp    %rax,-0x8(%rbp)
    6a1c:	75 07                	jne    6a25 <safe_div_func_int64_t_s_s+0x2e>
    6a1e:	48 83 7d f0 ff       	cmpq   $0xffffffffffffffff,-0x10(%rbp)
    6a23:	74 0c                	je     6a31 <safe_div_func_int64_t_s_s+0x3a>
    6a25:	48 8b 45 f8          	mov    -0x8(%rbp),%rax
    6a29:	48 99                	cqto   
    6a2b:	48 f7 7d f0          	idivq  -0x10(%rbp)
    6a2f:	eb 04                	jmp    6a35 <safe_div_func_int64_t_s_s+0x3e>
    6a31:	48 8b 45 f8          	mov    -0x8(%rbp),%rax
    6a35:	5d                   	pop    %rbp
    6a36:	c3                   	retq   

0000000000006a37 <safe_lshift_func_int64_t_s_s>:
    6a37:	f3 0f 1e fa          	endbr64 
    6a3b:	55                   	push   %rbp
    6a3c:	48 89 e5             	mov    %rsp,%rbp
    6a3f:	48 89 7d f8          	mov    %rdi,-0x8(%rbp)
    6a43:	89 75 f4             	mov    %esi,-0xc(%rbp)
    6a46:	48 83 7d f8 00       	cmpq   $0x0,-0x8(%rbp)
    6a4b:	78 38                	js     6a85 <safe_lshift_func_int64_t_s_s+0x4e>
    6a4d:	83 7d f4 00          	cmpl   $0x0,-0xc(%rbp)
    6a51:	78 32                	js     6a85 <safe_lshift_func_int64_t_s_s+0x4e>
    6a53:	83 7d f4 1f          	cmpl   $0x1f,-0xc(%rbp)
    6a57:	7f 2c                	jg     6a85 <safe_lshift_func_int64_t_s_s+0x4e>
    6a59:	8b 45 f4             	mov    -0xc(%rbp),%eax
    6a5c:	48 ba ff ff ff ff ff 	movabs $0x7fffffffffffffff,%rdx
    6a63:	ff ff 7f 
    6a66:	89 c1                	mov    %eax,%ecx
    6a68:	48 d3 fa             	sar    %cl,%rdx
    6a6b:	48 89 d0             	mov    %rdx,%rax
    6a6e:	48 39 45 f8          	cmp    %rax,-0x8(%rbp)
    6a72:	7f 11                	jg     6a85 <safe_lshift_func_int64_t_s_s+0x4e>
    6a74:	8b 45 f4             	mov    -0xc(%rbp),%eax
    6a77:	48 8b 55 f8          	mov    -0x8(%rbp),%rdx
    6a7b:	89 c1                	mov    %eax,%ecx
    6a7d:	48 d3 e2             	shl    %cl,%rdx
    6a80:	48 89 d0             	mov    %rdx,%rax
    6a83:	eb 04                	jmp    6a89 <safe_lshift_func_int64_t_s_s+0x52>
    6a85:	48 8b 45 f8          	mov    -0x8(%rbp),%rax
    6a89:	5d                   	pop    %rbp
    6a8a:	c3                   	retq   

0000000000006a8b <safe_lshift_func_int64_t_s_u>:
    6a8b:	f3 0f 1e fa          	endbr64 
    6a8f:	55                   	push   %rbp
    6a90:	48 89 e5             	mov    %rsp,%rbp
    6a93:	48 89 7d f8          	mov    %rdi,-0x8(%rbp)
    6a97:	89 75 f4             	mov    %esi,-0xc(%rbp)
    6a9a:	48 83 7d f8 00       	cmpq   $0x0,-0x8(%rbp)
    6a9f:	78 32                	js     6ad3 <safe_lshift_func_int64_t_s_u+0x48>
    6aa1:	83 7d f4 1f          	cmpl   $0x1f,-0xc(%rbp)
    6aa5:	77 2c                	ja     6ad3 <safe_lshift_func_int64_t_s_u+0x48>
    6aa7:	8b 45 f4             	mov    -0xc(%rbp),%eax
    6aaa:	48 ba ff ff ff ff ff 	movabs $0x7fffffffffffffff,%rdx
    6ab1:	ff ff 7f 
    6ab4:	89 c1                	mov    %eax,%ecx
    6ab6:	48 d3 fa             	sar    %cl,%rdx
    6ab9:	48 89 d0             	mov    %rdx,%rax
    6abc:	48 39 45 f8          	cmp    %rax,-0x8(%rbp)
    6ac0:	7f 11                	jg     6ad3 <safe_lshift_func_int64_t_s_u+0x48>
    6ac2:	8b 45 f4             	mov    -0xc(%rbp),%eax
    6ac5:	48 8b 55 f8          	mov    -0x8(%rbp),%rdx
    6ac9:	89 c1                	mov    %eax,%ecx
    6acb:	48 d3 e2             	shl    %cl,%rdx
    6ace:	48 89 d0             	mov    %rdx,%rax
    6ad1:	eb 04                	jmp    6ad7 <safe_lshift_func_int64_t_s_u+0x4c>
    6ad3:	48 8b 45 f8          	mov    -0x8(%rbp),%rax
    6ad7:	5d                   	pop    %rbp
    6ad8:	c3                   	retq   

0000000000006ad9 <safe_rshift_func_int64_t_s_s>:
    6ad9:	f3 0f 1e fa          	endbr64 
    6add:	55                   	push   %rbp
    6ade:	48 89 e5             	mov    %rsp,%rbp
    6ae1:	48 89 7d f8          	mov    %rdi,-0x8(%rbp)
    6ae5:	89 75 f4             	mov    %esi,-0xc(%rbp)
    6ae8:	48 83 7d f8 00       	cmpq   $0x0,-0x8(%rbp)
    6aed:	78 1d                	js     6b0c <safe_rshift_func_int64_t_s_s+0x33>
    6aef:	83 7d f4 00          	cmpl   $0x0,-0xc(%rbp)
    6af3:	78 17                	js     6b0c <safe_rshift_func_int64_t_s_s+0x33>
    6af5:	83 7d f4 1f          	cmpl   $0x1f,-0xc(%rbp)
    6af9:	7f 11                	jg     6b0c <safe_rshift_func_int64_t_s_s+0x33>
    6afb:	8b 45 f4             	mov    -0xc(%rbp),%eax
    6afe:	48 8b 55 f8          	mov    -0x8(%rbp),%rdx
    6b02:	89 c1                	mov    %eax,%ecx
    6b04:	48 d3 fa             	sar    %cl,%rdx
    6b07:	48 89 d0             	mov    %rdx,%rax
    6b0a:	eb 04                	jmp    6b10 <safe_rshift_func_int64_t_s_s+0x37>
    6b0c:	48 8b 45 f8          	mov    -0x8(%rbp),%rax
    6b10:	5d                   	pop    %rbp
    6b11:	c3                   	retq   

0000000000006b12 <safe_rshift_func_int64_t_s_u>:
    6b12:	f3 0f 1e fa          	endbr64 
    6b16:	55                   	push   %rbp
    6b17:	48 89 e5             	mov    %rsp,%rbp
    6b1a:	48 89 7d f8          	mov    %rdi,-0x8(%rbp)
    6b1e:	89 75 f4             	mov    %esi,-0xc(%rbp)
    6b21:	48 83 7d f8 00       	cmpq   $0x0,-0x8(%rbp)
    6b26:	78 17                	js     6b3f <safe_rshift_func_int64_t_s_u+0x2d>
    6b28:	83 7d f4 1f          	cmpl   $0x1f,-0xc(%rbp)
    6b2c:	77 11                	ja     6b3f <safe_rshift_func_int64_t_s_u+0x2d>
    6b2e:	8b 45 f4             	mov    -0xc(%rbp),%eax
    6b31:	48 8b 55 f8          	mov    -0x8(%rbp),%rdx
    6b35:	89 c1                	mov    %eax,%ecx
    6b37:	48 d3 fa             	sar    %cl,%rdx
    6b3a:	48 89 d0             	mov    %rdx,%rax
    6b3d:	eb 04                	jmp    6b43 <safe_rshift_func_int64_t_s_u+0x31>
    6b3f:	48 8b 45 f8          	mov    -0x8(%rbp),%rax
    6b43:	5d                   	pop    %rbp
    6b44:	c3                   	retq   

0000000000006b45 <safe_unary_minus_func_uint8_t_u>:
    6b45:	f3 0f 1e fa          	endbr64 
    6b49:	55                   	push   %rbp
    6b4a:	48 89 e5             	mov    %rsp,%rbp
    6b4d:	89 f8                	mov    %edi,%eax
    6b4f:	88 45 fc             	mov    %al,-0x4(%rbp)
    6b52:	0f b6 45 fc          	movzbl -0x4(%rbp),%eax
    6b56:	f7 d8                	neg    %eax
    6b58:	5d                   	pop    %rbp
    6b59:	c3                   	retq   

0000000000006b5a <safe_add_func_uint8_t_u_u>:
    6b5a:	f3 0f 1e fa          	endbr64 
    6b5e:	55                   	push   %rbp
    6b5f:	48 89 e5             	mov    %rsp,%rbp
    6b62:	89 fa                	mov    %edi,%edx
    6b64:	89 f0                	mov    %esi,%eax
    6b66:	88 55 fc             	mov    %dl,-0x4(%rbp)
    6b69:	88 45 f8             	mov    %al,-0x8(%rbp)
    6b6c:	0f b6 55 fc          	movzbl -0x4(%rbp),%edx
    6b70:	0f b6 45 f8          	movzbl -0x8(%rbp),%eax
    6b74:	01 d0                	add    %edx,%eax
    6b76:	5d                   	pop    %rbp
    6b77:	c3                   	retq   

0000000000006b78 <safe_sub_func_uint8_t_u_u>:
    6b78:	f3 0f 1e fa          	endbr64 
    6b7c:	55                   	push   %rbp
    6b7d:	48 89 e5             	mov    %rsp,%rbp
    6b80:	89 fa                	mov    %edi,%edx
    6b82:	89 f0                	mov    %esi,%eax
    6b84:	88 55 fc             	mov    %dl,-0x4(%rbp)
    6b87:	88 45 f8             	mov    %al,-0x8(%rbp)
    6b8a:	0f b6 45 fc          	movzbl -0x4(%rbp),%eax
    6b8e:	2a 45 f8             	sub    -0x8(%rbp),%al
    6b91:	5d                   	pop    %rbp
    6b92:	c3                   	retq   

0000000000006b93 <safe_mul_func_uint8_t_u_u>:
    6b93:	f3 0f 1e fa          	endbr64 
    6b97:	55                   	push   %rbp
    6b98:	48 89 e5             	mov    %rsp,%rbp
    6b9b:	89 fa                	mov    %edi,%edx
    6b9d:	89 f0                	mov    %esi,%eax
    6b9f:	88 55 fc             	mov    %dl,-0x4(%rbp)
    6ba2:	88 45 f8             	mov    %al,-0x8(%rbp)
    6ba5:	0f b6 45 fc          	movzbl -0x4(%rbp),%eax
    6ba9:	f6 65 f8             	mulb   -0x8(%rbp)
    6bac:	5d                   	pop    %rbp
    6bad:	c3                   	retq   

0000000000006bae <safe_mod_func_uint8_t_u_u>:
    6bae:	f3 0f 1e fa          	endbr64 
    6bb2:	55                   	push   %rbp
    6bb3:	48 89 e5             	mov    %rsp,%rbp
    6bb6:	89 fa                	mov    %edi,%edx
    6bb8:	89 f0                	mov    %esi,%eax
    6bba:	88 55 fc             	mov    %dl,-0x4(%rbp)
    6bbd:	88 45 f8             	mov    %al,-0x8(%rbp)
    6bc0:	80 7d f8 00          	cmpb   $0x0,-0x8(%rbp)
    6bc4:	74 0f                	je     6bd5 <safe_mod_func_uint8_t_u_u+0x27>
    6bc6:	0f b6 45 fc          	movzbl -0x4(%rbp),%eax
    6bca:	0f b6 c0             	movzbl %al,%eax
    6bcd:	f6 75 f8             	divb   -0x8(%rbp)
    6bd0:	0f b6 c4             	movzbl %ah,%eax
    6bd3:	eb 04                	jmp    6bd9 <safe_mod_func_uint8_t_u_u+0x2b>
    6bd5:	0f b6 45 fc          	movzbl -0x4(%rbp),%eax
    6bd9:	5d                   	pop    %rbp
    6bda:	c3                   	retq   

0000000000006bdb <safe_div_func_uint8_t_u_u>:
    6bdb:	f3 0f 1e fa          	endbr64 
    6bdf:	55                   	push   %rbp
    6be0:	48 89 e5             	mov    %rsp,%rbp
    6be3:	89 fa                	mov    %edi,%edx
    6be5:	89 f0                	mov    %esi,%eax
    6be7:	88 55 fc             	mov    %dl,-0x4(%rbp)
    6bea:	88 45 f8             	mov    %al,-0x8(%rbp)
    6bed:	80 7d f8 00          	cmpb   $0x0,-0x8(%rbp)
    6bf1:	74 0c                	je     6bff <safe_div_func_uint8_t_u_u+0x24>
    6bf3:	0f b6 45 fc          	movzbl -0x4(%rbp),%eax
    6bf7:	0f b6 c0             	movzbl %al,%eax
    6bfa:	f6 75 f8             	divb   -0x8(%rbp)
    6bfd:	eb 04                	jmp    6c03 <safe_div_func_uint8_t_u_u+0x28>
    6bff:	0f b6 45 fc          	movzbl -0x4(%rbp),%eax
    6c03:	5d                   	pop    %rbp
    6c04:	c3                   	retq   

0000000000006c05 <safe_lshift_func_uint8_t_u_s>:
    6c05:	f3 0f 1e fa          	endbr64 
    6c09:	55                   	push   %rbp
    6c0a:	48 89 e5             	mov    %rsp,%rbp
    6c0d:	89 f8                	mov    %edi,%eax
    6c0f:	89 75 f8             	mov    %esi,-0x8(%rbp)
    6c12:	88 45 fc             	mov    %al,-0x4(%rbp)
    6c15:	83 7d f8 00          	cmpl   $0x0,-0x8(%rbp)
    6c19:	78 2b                	js     6c46 <safe_lshift_func_uint8_t_u_s+0x41>
    6c1b:	83 7d f8 1f          	cmpl   $0x1f,-0x8(%rbp)
    6c1f:	7f 25                	jg     6c46 <safe_lshift_func_uint8_t_u_s+0x41>
    6c21:	0f b6 55 fc          	movzbl -0x4(%rbp),%edx
    6c25:	8b 45 f8             	mov    -0x8(%rbp),%eax
    6c28:	be ff 00 00 00       	mov    $0xff,%esi
    6c2d:	89 c1                	mov    %eax,%ecx
    6c2f:	d3 fe                	sar    %cl,%esi
    6c31:	89 f0                	mov    %esi,%eax
    6c33:	39 c2                	cmp    %eax,%edx
    6c35:	7f 0f                	jg     6c46 <safe_lshift_func_uint8_t_u_s+0x41>
    6c37:	0f b6 55 fc          	movzbl -0x4(%rbp),%edx
    6c3b:	8b 45 f8             	mov    -0x8(%rbp),%eax
    6c3e:	89 c1                	mov    %eax,%ecx
    6c40:	d3 e2                	shl    %cl,%edx
    6c42:	89 d0                	mov    %edx,%eax
    6c44:	eb 04                	jmp    6c4a <safe_lshift_func_uint8_t_u_s+0x45>
    6c46:	0f b6 45 fc          	movzbl -0x4(%rbp),%eax
    6c4a:	5d                   	pop    %rbp
    6c4b:	c3                   	retq   

0000000000006c4c <safe_lshift_func_uint8_t_u_u>:
    6c4c:	f3 0f 1e fa          	endbr64 
    6c50:	55                   	push   %rbp
    6c51:	48 89 e5             	mov    %rsp,%rbp
    6c54:	89 f8                	mov    %edi,%eax
    6c56:	89 75 f8             	mov    %esi,-0x8(%rbp)
    6c59:	88 45 fc             	mov    %al,-0x4(%rbp)
    6c5c:	83 7d f8 1f          	cmpl   $0x1f,-0x8(%rbp)
    6c60:	77 25                	ja     6c87 <safe_lshift_func_uint8_t_u_u+0x3b>
    6c62:	0f b6 55 fc          	movzbl -0x4(%rbp),%edx
    6c66:	8b 45 f8             	mov    -0x8(%rbp),%eax
    6c69:	be ff 00 00 00       	mov    $0xff,%esi
    6c6e:	89 c1                	mov    %eax,%ecx
    6c70:	d3 fe                	sar    %cl,%esi
    6c72:	89 f0                	mov    %esi,%eax
    6c74:	39 c2                	cmp    %eax,%edx
    6c76:	7f 0f                	jg     6c87 <safe_lshift_func_uint8_t_u_u+0x3b>
    6c78:	0f b6 55 fc          	movzbl -0x4(%rbp),%edx
    6c7c:	8b 45 f8             	mov    -0x8(%rbp),%eax
    6c7f:	89 c1                	mov    %eax,%ecx
    6c81:	d3 e2                	shl    %cl,%edx
    6c83:	89 d0                	mov    %edx,%eax
    6c85:	eb 04                	jmp    6c8b <safe_lshift_func_uint8_t_u_u+0x3f>
    6c87:	0f b6 45 fc          	movzbl -0x4(%rbp),%eax
    6c8b:	5d                   	pop    %rbp
    6c8c:	c3                   	retq   

0000000000006c8d <safe_rshift_func_uint8_t_u_s>:
    6c8d:	f3 0f 1e fa          	endbr64 
    6c91:	55                   	push   %rbp
    6c92:	48 89 e5             	mov    %rsp,%rbp
    6c95:	89 f8                	mov    %edi,%eax
    6c97:	89 75 f8             	mov    %esi,-0x8(%rbp)
    6c9a:	88 45 fc             	mov    %al,-0x4(%rbp)
    6c9d:	83 7d f8 00          	cmpl   $0x0,-0x8(%rbp)
    6ca1:	78 15                	js     6cb8 <safe_rshift_func_uint8_t_u_s+0x2b>
    6ca3:	83 7d f8 1f          	cmpl   $0x1f,-0x8(%rbp)
    6ca7:	7f 0f                	jg     6cb8 <safe_rshift_func_uint8_t_u_s+0x2b>
    6ca9:	0f b6 55 fc          	movzbl -0x4(%rbp),%edx
    6cad:	8b 45 f8             	mov    -0x8(%rbp),%eax
    6cb0:	89 c1                	mov    %eax,%ecx
    6cb2:	d3 fa                	sar    %cl,%edx
    6cb4:	89 d0                	mov    %edx,%eax
    6cb6:	eb 04                	jmp    6cbc <safe_rshift_func_uint8_t_u_s+0x2f>
    6cb8:	0f b6 45 fc          	movzbl -0x4(%rbp),%eax
    6cbc:	5d                   	pop    %rbp
    6cbd:	c3                   	retq   

0000000000006cbe <safe_rshift_func_uint8_t_u_u>:
    6cbe:	f3 0f 1e fa          	endbr64 
    6cc2:	55                   	push   %rbp
    6cc3:	48 89 e5             	mov    %rsp,%rbp
    6cc6:	89 f8                	mov    %edi,%eax
    6cc8:	89 75 f8             	mov    %esi,-0x8(%rbp)
    6ccb:	88 45 fc             	mov    %al,-0x4(%rbp)
    6cce:	83 7d f8 1f          	cmpl   $0x1f,-0x8(%rbp)
    6cd2:	77 0f                	ja     6ce3 <safe_rshift_func_uint8_t_u_u+0x25>
    6cd4:	0f b6 55 fc          	movzbl -0x4(%rbp),%edx
    6cd8:	8b 45 f8             	mov    -0x8(%rbp),%eax
    6cdb:	89 c1                	mov    %eax,%ecx
    6cdd:	d3 fa                	sar    %cl,%edx
    6cdf:	89 d0                	mov    %edx,%eax
    6ce1:	eb 04                	jmp    6ce7 <safe_rshift_func_uint8_t_u_u+0x29>
    6ce3:	0f b6 45 fc          	movzbl -0x4(%rbp),%eax
    6ce7:	5d                   	pop    %rbp
    6ce8:	c3                   	retq   

0000000000006ce9 <safe_unary_minus_func_uint16_t_u>:
    6ce9:	f3 0f 1e fa          	endbr64 
    6ced:	55                   	push   %rbp
    6cee:	48 89 e5             	mov    %rsp,%rbp
    6cf1:	89 f8                	mov    %edi,%eax
    6cf3:	66 89 45 fc          	mov    %ax,-0x4(%rbp)
    6cf7:	0f b7 45 fc          	movzwl -0x4(%rbp),%eax
    6cfb:	f7 d8                	neg    %eax
    6cfd:	5d                   	pop    %rbp
    6cfe:	c3                   	retq   

0000000000006cff <safe_add_func_uint16_t_u_u>:
    6cff:	f3 0f 1e fa          	endbr64 
    6d03:	55                   	push   %rbp
    6d04:	48 89 e5             	mov    %rsp,%rbp
    6d07:	89 fa                	mov    %edi,%edx
    6d09:	89 f0                	mov    %esi,%eax
    6d0b:	66 89 55 fc          	mov    %dx,-0x4(%rbp)
    6d0f:	66 89 45 f8          	mov    %ax,-0x8(%rbp)
    6d13:	0f b7 55 fc          	movzwl -0x4(%rbp),%edx
    6d17:	0f b7 45 f8          	movzwl -0x8(%rbp),%eax
    6d1b:	01 d0                	add    %edx,%eax
    6d1d:	5d                   	pop    %rbp
    6d1e:	c3                   	retq   

0000000000006d1f <safe_sub_func_uint16_t_u_u>:
    6d1f:	f3 0f 1e fa          	endbr64 
    6d23:	55                   	push   %rbp
    6d24:	48 89 e5             	mov    %rsp,%rbp
    6d27:	89 fa                	mov    %edi,%edx
    6d29:	89 f0                	mov    %esi,%eax
    6d2b:	66 89 55 fc          	mov    %dx,-0x4(%rbp)
    6d2f:	66 89 45 f8          	mov    %ax,-0x8(%rbp)
    6d33:	0f b7 45 fc          	movzwl -0x4(%rbp),%eax
    6d37:	66 2b 45 f8          	sub    -0x8(%rbp),%ax
    6d3b:	5d                   	pop    %rbp
    6d3c:	c3                   	retq   

0000000000006d3d <safe_mul_func_uint16_t_u_u>:
    6d3d:	f3 0f 1e fa          	endbr64 
    6d41:	55                   	push   %rbp
    6d42:	48 89 e5             	mov    %rsp,%rbp
    6d45:	89 fa                	mov    %edi,%edx
    6d47:	89 f0                	mov    %esi,%eax
    6d49:	66 89 55 fc          	mov    %dx,-0x4(%rbp)
    6d4d:	66 89 45 f8          	mov    %ax,-0x8(%rbp)
    6d51:	0f b7 45 fc          	movzwl -0x4(%rbp),%eax
    6d55:	66 0f af 45 f8       	imul   -0x8(%rbp),%ax
    6d5a:	5d                   	pop    %rbp
    6d5b:	c3                   	retq   

0000000000006d5c <safe_mod_func_uint16_t_u_u>:
    6d5c:	f3 0f 1e fa          	endbr64 
    6d60:	55                   	push   %rbp
    6d61:	48 89 e5             	mov    %rsp,%rbp
    6d64:	89 fa                	mov    %edi,%edx
    6d66:	89 f0                	mov    %esi,%eax
    6d68:	66 89 55 fc          	mov    %dx,-0x4(%rbp)
    6d6c:	66 89 45 f8          	mov    %ax,-0x8(%rbp)
    6d70:	66 83 7d f8 00       	cmpw   $0x0,-0x8(%rbp)
    6d75:	74 11                	je     6d88 <safe_mod_func_uint16_t_u_u+0x2c>
    6d77:	0f b7 45 fc          	movzwl -0x4(%rbp),%eax
    6d7b:	ba 00 00 00 00       	mov    $0x0,%edx
    6d80:	66 f7 75 f8          	divw   -0x8(%rbp)
    6d84:	89 d0                	mov    %edx,%eax
    6d86:	eb 04                	jmp    6d8c <safe_mod_func_uint16_t_u_u+0x30>
    6d88:	0f b7 45 fc          	movzwl -0x4(%rbp),%eax
    6d8c:	5d                   	pop    %rbp
    6d8d:	c3                   	retq   

0000000000006d8e <safe_div_func_uint16_t_u_u>:
    6d8e:	f3 0f 1e fa          	endbr64 
    6d92:	55                   	push   %rbp
    6d93:	48 89 e5             	mov    %rsp,%rbp
    6d96:	89 fa                	mov    %edi,%edx
    6d98:	89 f0                	mov    %esi,%eax
    6d9a:	66 89 55 fc          	mov    %dx,-0x4(%rbp)
    6d9e:	66 89 45 f8          	mov    %ax,-0x8(%rbp)
    6da2:	66 83 7d f8 00       	cmpw   $0x0,-0x8(%rbp)
    6da7:	74 0f                	je     6db8 <safe_div_func_uint16_t_u_u+0x2a>
    6da9:	0f b7 45 fc          	movzwl -0x4(%rbp),%eax
    6dad:	ba 00 00 00 00       	mov    $0x0,%edx
    6db2:	66 f7 75 f8          	divw   -0x8(%rbp)
    6db6:	eb 04                	jmp    6dbc <safe_div_func_uint16_t_u_u+0x2e>
    6db8:	0f b7 45 fc          	movzwl -0x4(%rbp),%eax
    6dbc:	5d                   	pop    %rbp
    6dbd:	c3                   	retq   

0000000000006dbe <safe_lshift_func_uint16_t_u_s>:
    6dbe:	f3 0f 1e fa          	endbr64 
    6dc2:	55                   	push   %rbp
    6dc3:	48 89 e5             	mov    %rsp,%rbp
    6dc6:	89 f8                	mov    %edi,%eax
    6dc8:	89 75 f8             	mov    %esi,-0x8(%rbp)
    6dcb:	66 89 45 fc          	mov    %ax,-0x4(%rbp)
    6dcf:	83 7d f8 00          	cmpl   $0x0,-0x8(%rbp)
    6dd3:	78 2b                	js     6e00 <safe_lshift_func_uint16_t_u_s+0x42>
    6dd5:	83 7d f8 1f          	cmpl   $0x1f,-0x8(%rbp)
    6dd9:	7f 25                	jg     6e00 <safe_lshift_func_uint16_t_u_s+0x42>
    6ddb:	0f b7 55 fc          	movzwl -0x4(%rbp),%edx
    6ddf:	8b 45 f8             	mov    -0x8(%rbp),%eax
    6de2:	be ff ff 00 00       	mov    $0xffff,%esi
    6de7:	89 c1                	mov    %eax,%ecx
    6de9:	d3 fe                	sar    %cl,%esi
    6deb:	89 f0                	mov    %esi,%eax
    6ded:	39 c2                	cmp    %eax,%edx
    6def:	7f 0f                	jg     6e00 <safe_lshift_func_uint16_t_u_s+0x42>
    6df1:	0f b7 55 fc          	movzwl -0x4(%rbp),%edx
    6df5:	8b 45 f8             	mov    -0x8(%rbp),%eax
    6df8:	89 c1                	mov    %eax,%ecx
    6dfa:	d3 e2                	shl    %cl,%edx
    6dfc:	89 d0                	mov    %edx,%eax
    6dfe:	eb 04                	jmp    6e04 <safe_lshift_func_uint16_t_u_s+0x46>
    6e00:	0f b7 45 fc          	movzwl -0x4(%rbp),%eax
    6e04:	5d                   	pop    %rbp
    6e05:	c3                   	retq   

0000000000006e06 <safe_lshift_func_uint16_t_u_u>:
    6e06:	f3 0f 1e fa          	endbr64 
    6e0a:	55                   	push   %rbp
    6e0b:	48 89 e5             	mov    %rsp,%rbp
    6e0e:	89 f8                	mov    %edi,%eax
    6e10:	89 75 f8             	mov    %esi,-0x8(%rbp)
    6e13:	66 89 45 fc          	mov    %ax,-0x4(%rbp)
    6e17:	83 7d f8 1f          	cmpl   $0x1f,-0x8(%rbp)
    6e1b:	77 25                	ja     6e42 <safe_lshift_func_uint16_t_u_u+0x3c>
    6e1d:	0f b7 55 fc          	movzwl -0x4(%rbp),%edx
    6e21:	8b 45 f8             	mov    -0x8(%rbp),%eax
    6e24:	be ff ff 00 00       	mov    $0xffff,%esi
    6e29:	89 c1                	mov    %eax,%ecx
    6e2b:	d3 fe                	sar    %cl,%esi
    6e2d:	89 f0                	mov    %esi,%eax
    6e2f:	39 c2                	cmp    %eax,%edx
    6e31:	7f 0f                	jg     6e42 <safe_lshift_func_uint16_t_u_u+0x3c>
    6e33:	0f b7 55 fc          	movzwl -0x4(%rbp),%edx
    6e37:	8b 45 f8             	mov    -0x8(%rbp),%eax
    6e3a:	89 c1                	mov    %eax,%ecx
    6e3c:	d3 e2                	shl    %cl,%edx
    6e3e:	89 d0                	mov    %edx,%eax
    6e40:	eb 04                	jmp    6e46 <safe_lshift_func_uint16_t_u_u+0x40>
    6e42:	0f b7 45 fc          	movzwl -0x4(%rbp),%eax
    6e46:	5d                   	pop    %rbp
    6e47:	c3                   	retq   

0000000000006e48 <safe_rshift_func_uint16_t_u_s>:
    6e48:	f3 0f 1e fa          	endbr64 
    6e4c:	55                   	push   %rbp
    6e4d:	48 89 e5             	mov    %rsp,%rbp
    6e50:	89 f8                	mov    %edi,%eax
    6e52:	89 75 f8             	mov    %esi,-0x8(%rbp)
    6e55:	66 89 45 fc          	mov    %ax,-0x4(%rbp)
    6e59:	83 7d f8 00          	cmpl   $0x0,-0x8(%rbp)
    6e5d:	78 15                	js     6e74 <safe_rshift_func_uint16_t_u_s+0x2c>
    6e5f:	83 7d f8 1f          	cmpl   $0x1f,-0x8(%rbp)
    6e63:	7f 0f                	jg     6e74 <safe_rshift_func_uint16_t_u_s+0x2c>
    6e65:	0f b7 55 fc          	movzwl -0x4(%rbp),%edx
    6e69:	8b 45 f8             	mov    -0x8(%rbp),%eax
    6e6c:	89 c1                	mov    %eax,%ecx
    6e6e:	d3 fa                	sar    %cl,%edx
    6e70:	89 d0                	mov    %edx,%eax
    6e72:	eb 04                	jmp    6e78 <safe_rshift_func_uint16_t_u_s+0x30>
    6e74:	0f b7 45 fc          	movzwl -0x4(%rbp),%eax
    6e78:	5d                   	pop    %rbp
    6e79:	c3                   	retq   

0000000000006e7a <safe_rshift_func_uint16_t_u_u>:
    6e7a:	f3 0f 1e fa          	endbr64 
    6e7e:	55                   	push   %rbp
    6e7f:	48 89 e5             	mov    %rsp,%rbp
    6e82:	89 f8                	mov    %edi,%eax
    6e84:	89 75 f8             	mov    %esi,-0x8(%rbp)
    6e87:	66 89 45 fc          	mov    %ax,-0x4(%rbp)
    6e8b:	83 7d f8 1f          	cmpl   $0x1f,-0x8(%rbp)
    6e8f:	77 0f                	ja     6ea0 <safe_rshift_func_uint16_t_u_u+0x26>
    6e91:	0f b7 55 fc          	movzwl -0x4(%rbp),%edx
    6e95:	8b 45 f8             	mov    -0x8(%rbp),%eax
    6e98:	89 c1                	mov    %eax,%ecx
    6e9a:	d3 fa                	sar    %cl,%edx
    6e9c:	89 d0                	mov    %edx,%eax
    6e9e:	eb 04                	jmp    6ea4 <safe_rshift_func_uint16_t_u_u+0x2a>
    6ea0:	0f b7 45 fc          	movzwl -0x4(%rbp),%eax
    6ea4:	5d                   	pop    %rbp
    6ea5:	c3                   	retq   

0000000000006ea6 <safe_unary_minus_func_uint32_t_u>:
    6ea6:	f3 0f 1e fa          	endbr64 
    6eaa:	55                   	push   %rbp
    6eab:	48 89 e5             	mov    %rsp,%rbp
    6eae:	89 7d fc             	mov    %edi,-0x4(%rbp)
    6eb1:	8b 45 fc             	mov    -0x4(%rbp),%eax
    6eb4:	f7 d8                	neg    %eax
    6eb6:	5d                   	pop    %rbp
    6eb7:	c3                   	retq   

0000000000006eb8 <safe_add_func_uint32_t_u_u>:
    6eb8:	f3 0f 1e fa          	endbr64 
    6ebc:	55                   	push   %rbp
    6ebd:	48 89 e5             	mov    %rsp,%rbp
    6ec0:	89 7d fc             	mov    %edi,-0x4(%rbp)
    6ec3:	89 75 f8             	mov    %esi,-0x8(%rbp)
    6ec6:	8b 55 fc             	mov    -0x4(%rbp),%edx
    6ec9:	8b 45 f8             	mov    -0x8(%rbp),%eax
    6ecc:	01 d0                	add    %edx,%eax
    6ece:	5d                   	pop    %rbp
    6ecf:	c3                   	retq   

0000000000006ed0 <safe_sub_func_uint32_t_u_u>:
    6ed0:	f3 0f 1e fa          	endbr64 
    6ed4:	55                   	push   %rbp
    6ed5:	48 89 e5             	mov    %rsp,%rbp
    6ed8:	89 7d fc             	mov    %edi,-0x4(%rbp)
    6edb:	89 75 f8             	mov    %esi,-0x8(%rbp)
    6ede:	8b 45 fc             	mov    -0x4(%rbp),%eax
    6ee1:	2b 45 f8             	sub    -0x8(%rbp),%eax
    6ee4:	5d                   	pop    %rbp
    6ee5:	c3                   	retq   

0000000000006ee6 <safe_mul_func_uint32_t_u_u>:
    6ee6:	f3 0f 1e fa          	endbr64 
    6eea:	55                   	push   %rbp
    6eeb:	48 89 e5             	mov    %rsp,%rbp
    6eee:	89 7d fc             	mov    %edi,-0x4(%rbp)
    6ef1:	89 75 f8             	mov    %esi,-0x8(%rbp)
    6ef4:	8b 45 fc             	mov    -0x4(%rbp),%eax
    6ef7:	0f af 45 f8          	imul   -0x8(%rbp),%eax
    6efb:	5d                   	pop    %rbp
    6efc:	c3                   	retq   

0000000000006efd <safe_mod_func_uint32_t_u_u>:
    6efd:	f3 0f 1e fa          	endbr64 
    6f01:	55                   	push   %rbp
    6f02:	48 89 e5             	mov    %rsp,%rbp
    6f05:	89 7d fc             	mov    %edi,-0x4(%rbp)
    6f08:	89 75 f8             	mov    %esi,-0x8(%rbp)
    6f0b:	83 7d f8 00          	cmpl   $0x0,-0x8(%rbp)
    6f0f:	74 0f                	je     6f20 <safe_mod_func_uint32_t_u_u+0x23>
    6f11:	8b 45 fc             	mov    -0x4(%rbp),%eax
    6f14:	ba 00 00 00 00       	mov    $0x0,%edx
    6f19:	f7 75 f8             	divl   -0x8(%rbp)
    6f1c:	89 d0                	mov    %edx,%eax
    6f1e:	eb 03                	jmp    6f23 <safe_mod_func_uint32_t_u_u+0x26>
    6f20:	8b 45 fc             	mov    -0x4(%rbp),%eax
    6f23:	5d                   	pop    %rbp
    6f24:	c3                   	retq   

0000000000006f25 <safe_div_func_uint32_t_u_u>:
    6f25:	f3 0f 1e fa          	endbr64 
    6f29:	55                   	push   %rbp
    6f2a:	48 89 e5             	mov    %rsp,%rbp
    6f2d:	89 7d fc             	mov    %edi,-0x4(%rbp)
    6f30:	89 75 f8             	mov    %esi,-0x8(%rbp)
    6f33:	83 7d f8 00          	cmpl   $0x0,-0x8(%rbp)
    6f37:	74 0d                	je     6f46 <safe_div_func_uint32_t_u_u+0x21>
    6f39:	8b 45 fc             	mov    -0x4(%rbp),%eax
    6f3c:	ba 00 00 00 00       	mov    $0x0,%edx
    6f41:	f7 75 f8             	divl   -0x8(%rbp)
    6f44:	eb 03                	jmp    6f49 <safe_div_func_uint32_t_u_u+0x24>
    6f46:	8b 45 fc             	mov    -0x4(%rbp),%eax
    6f49:	5d                   	pop    %rbp
    6f4a:	c3                   	retq   

0000000000006f4b <safe_lshift_func_uint32_t_u_s>:
    6f4b:	f3 0f 1e fa          	endbr64 
    6f4f:	55                   	push   %rbp
    6f50:	48 89 e5             	mov    %rsp,%rbp
    6f53:	89 7d fc             	mov    %edi,-0x4(%rbp)
    6f56:	89 75 f8             	mov    %esi,-0x8(%rbp)
    6f59:	83 7d f8 00          	cmpl   $0x0,-0x8(%rbp)
    6f5d:	78 27                	js     6f86 <safe_lshift_func_uint32_t_u_s+0x3b>
    6f5f:	83 7d f8 1f          	cmpl   $0x1f,-0x8(%rbp)
    6f63:	7f 21                	jg     6f86 <safe_lshift_func_uint32_t_u_s+0x3b>
    6f65:	8b 45 f8             	mov    -0x8(%rbp),%eax
    6f68:	ba ff ff ff ff       	mov    $0xffffffff,%edx
    6f6d:	89 c1                	mov    %eax,%ecx
    6f6f:	d3 ea                	shr    %cl,%edx
    6f71:	89 d0                	mov    %edx,%eax
    6f73:	39 45 fc             	cmp    %eax,-0x4(%rbp)
    6f76:	77 0e                	ja     6f86 <safe_lshift_func_uint32_t_u_s+0x3b>
    6f78:	8b 45 f8             	mov    -0x8(%rbp),%eax
    6f7b:	8b 55 fc             	mov    -0x4(%rbp),%edx
    6f7e:	89 c1                	mov    %eax,%ecx
    6f80:	d3 e2                	shl    %cl,%edx
    6f82:	89 d0                	mov    %edx,%eax
    6f84:	eb 03                	jmp    6f89 <safe_lshift_func_uint32_t_u_s+0x3e>
    6f86:	8b 45 fc             	mov    -0x4(%rbp),%eax
    6f89:	5d                   	pop    %rbp
    6f8a:	c3                   	retq   

0000000000006f8b <safe_lshift_func_uint32_t_u_u>:
    6f8b:	f3 0f 1e fa          	endbr64 
    6f8f:	55                   	push   %rbp
    6f90:	48 89 e5             	mov    %rsp,%rbp
    6f93:	89 7d fc             	mov    %edi,-0x4(%rbp)
    6f96:	89 75 f8             	mov    %esi,-0x8(%rbp)
    6f99:	83 7d f8 1f          	cmpl   $0x1f,-0x8(%rbp)
    6f9d:	77 21                	ja     6fc0 <safe_lshift_func_uint32_t_u_u+0x35>
    6f9f:	8b 45 f8             	mov    -0x8(%rbp),%eax
    6fa2:	ba ff ff ff ff       	mov    $0xffffffff,%edx
    6fa7:	89 c1                	mov    %eax,%ecx
    6fa9:	d3 ea                	shr    %cl,%edx
    6fab:	89 d0                	mov    %edx,%eax
    6fad:	39 45 fc             	cmp    %eax,-0x4(%rbp)
    6fb0:	77 0e                	ja     6fc0 <safe_lshift_func_uint32_t_u_u+0x35>
    6fb2:	8b 45 f8             	mov    -0x8(%rbp),%eax
    6fb5:	8b 55 fc             	mov    -0x4(%rbp),%edx
    6fb8:	89 c1                	mov    %eax,%ecx
    6fba:	d3 e2                	shl    %cl,%edx
    6fbc:	89 d0                	mov    %edx,%eax
    6fbe:	eb 03                	jmp    6fc3 <safe_lshift_func_uint32_t_u_u+0x38>
    6fc0:	8b 45 fc             	mov    -0x4(%rbp),%eax
    6fc3:	5d                   	pop    %rbp
    6fc4:	c3                   	retq   

0000000000006fc5 <safe_rshift_func_uint32_t_u_s>:
    6fc5:	f3 0f 1e fa          	endbr64 
    6fc9:	55                   	push   %rbp
    6fca:	48 89 e5             	mov    %rsp,%rbp
    6fcd:	89 7d fc             	mov    %edi,-0x4(%rbp)
    6fd0:	89 75 f8             	mov    %esi,-0x8(%rbp)
    6fd3:	83 7d f8 00          	cmpl   $0x0,-0x8(%rbp)
    6fd7:	78 14                	js     6fed <safe_rshift_func_uint32_t_u_s+0x28>
    6fd9:	83 7d f8 1f          	cmpl   $0x1f,-0x8(%rbp)
    6fdd:	7f 0e                	jg     6fed <safe_rshift_func_uint32_t_u_s+0x28>
    6fdf:	8b 45 f8             	mov    -0x8(%rbp),%eax
    6fe2:	8b 55 fc             	mov    -0x4(%rbp),%edx
    6fe5:	89 c1                	mov    %eax,%ecx
    6fe7:	d3 ea                	shr    %cl,%edx
    6fe9:	89 d0                	mov    %edx,%eax
    6feb:	eb 03                	jmp    6ff0 <safe_rshift_func_uint32_t_u_s+0x2b>
    6fed:	8b 45 fc             	mov    -0x4(%rbp),%eax
    6ff0:	5d                   	pop    %rbp
    6ff1:	c3                   	retq   

0000000000006ff2 <safe_rshift_func_uint32_t_u_u>:
    6ff2:	f3 0f 1e fa          	endbr64 
    6ff6:	55                   	push   %rbp
    6ff7:	48 89 e5             	mov    %rsp,%rbp
    6ffa:	89 7d fc             	mov    %edi,-0x4(%rbp)
    6ffd:	89 75 f8             	mov    %esi,-0x8(%rbp)
    7000:	83 7d f8 1f          	cmpl   $0x1f,-0x8(%rbp)
    7004:	77 0e                	ja     7014 <safe_rshift_func_uint32_t_u_u+0x22>
    7006:	8b 45 f8             	mov    -0x8(%rbp),%eax
    7009:	8b 55 fc             	mov    -0x4(%rbp),%edx
    700c:	89 c1                	mov    %eax,%ecx
    700e:	d3 ea                	shr    %cl,%edx
    7010:	89 d0                	mov    %edx,%eax
    7012:	eb 03                	jmp    7017 <safe_rshift_func_uint32_t_u_u+0x25>
    7014:	8b 45 fc             	mov    -0x4(%rbp),%eax
    7017:	5d                   	pop    %rbp
    7018:	c3                   	retq   

0000000000007019 <safe_unary_minus_func_uint64_t_u>:
    7019:	f3 0f 1e fa          	endbr64 
    701d:	55                   	push   %rbp
    701e:	48 89 e5             	mov    %rsp,%rbp
    7021:	48 89 7d f8          	mov    %rdi,-0x8(%rbp)
    7025:	48 8b 45 f8          	mov    -0x8(%rbp),%rax
    7029:	48 f7 d8             	neg    %rax
    702c:	5d                   	pop    %rbp
    702d:	c3                   	retq   

000000000000702e <safe_add_func_uint64_t_u_u>:
    702e:	f3 0f 1e fa          	endbr64 
    7032:	55                   	push   %rbp
    7033:	48 89 e5             	mov    %rsp,%rbp
    7036:	48 89 7d f8          	mov    %rdi,-0x8(%rbp)
    703a:	48 89 75 f0          	mov    %rsi,-0x10(%rbp)
    703e:	48 8b 55 f8          	mov    -0x8(%rbp),%rdx
    7042:	48 8b 45 f0          	mov    -0x10(%rbp),%rax
    7046:	48 01 d0             	add    %rdx,%rax
    7049:	5d                   	pop    %rbp
    704a:	c3                   	retq   

000000000000704b <safe_sub_func_uint64_t_u_u>:
    704b:	f3 0f 1e fa          	endbr64 
    704f:	55                   	push   %rbp
    7050:	48 89 e5             	mov    %rsp,%rbp
    7053:	48 89 7d f8          	mov    %rdi,-0x8(%rbp)
    7057:	48 89 75 f0          	mov    %rsi,-0x10(%rbp)
    705b:	48 8b 45 f8          	mov    -0x8(%rbp),%rax
    705f:	48 2b 45 f0          	sub    -0x10(%rbp),%rax
    7063:	5d                   	pop    %rbp
    7064:	c3                   	retq   

0000000000007065 <safe_mul_func_uint64_t_u_u>:
    7065:	f3 0f 1e fa          	endbr64 
    7069:	55                   	push   %rbp
    706a:	48 89 e5             	mov    %rsp,%rbp
    706d:	48 89 7d f8          	mov    %rdi,-0x8(%rbp)
    7071:	48 89 75 f0          	mov    %rsi,-0x10(%rbp)
    7075:	48 8b 45 f8          	mov    -0x8(%rbp),%rax
    7079:	48 0f af 45 f0       	imul   -0x10(%rbp),%rax
    707e:	5d                   	pop    %rbp
    707f:	c3                   	retq   

0000000000007080 <safe_mod_func_uint64_t_u_u>:
    7080:	f3 0f 1e fa          	endbr64 
    7084:	55                   	push   %rbp
    7085:	48 89 e5             	mov    %rsp,%rbp
    7088:	48 89 7d f8          	mov    %rdi,-0x8(%rbp)
    708c:	48 89 75 f0          	mov    %rsi,-0x10(%rbp)
    7090:	48 83 7d f0 00       	cmpq   $0x0,-0x10(%rbp)
    7095:	74 12                	je     70a9 <safe_mod_func_uint64_t_u_u+0x29>
    7097:	48 8b 45 f8          	mov    -0x8(%rbp),%rax
    709b:	ba 00 00 00 00       	mov    $0x0,%edx
    70a0:	48 f7 75 f0          	divq   -0x10(%rbp)
    70a4:	48 89 d0             	mov    %rdx,%rax
    70a7:	eb 04                	jmp    70ad <safe_mod_func_uint64_t_u_u+0x2d>
    70a9:	48 8b 45 f8          	mov    -0x8(%rbp),%rax
    70ad:	5d                   	pop    %rbp
    70ae:	c3                   	retq   

00000000000070af <safe_div_func_uint64_t_u_u>:
    70af:	f3 0f 1e fa          	endbr64 
    70b3:	55                   	push   %rbp
    70b4:	48 89 e5             	mov    %rsp,%rbp
    70b7:	48 89 7d f8          	mov    %rdi,-0x8(%rbp)
    70bb:	48 89 75 f0          	mov    %rsi,-0x10(%rbp)
    70bf:	48 83 7d f0 00       	cmpq   $0x0,-0x10(%rbp)
    70c4:	74 0f                	je     70d5 <safe_div_func_uint64_t_u_u+0x26>
    70c6:	48 8b 45 f8          	mov    -0x8(%rbp),%rax
    70ca:	ba 00 00 00 00       	mov    $0x0,%edx
    70cf:	48 f7 75 f0          	divq   -0x10(%rbp)
    70d3:	eb 04                	jmp    70d9 <safe_div_func_uint64_t_u_u+0x2a>
    70d5:	48 8b 45 f8          	mov    -0x8(%rbp),%rax
    70d9:	5d                   	pop    %rbp
    70da:	c3                   	retq   

00000000000070db <safe_lshift_func_uint64_t_u_s>:
    70db:	f3 0f 1e fa          	endbr64 
    70df:	55                   	push   %rbp
    70e0:	48 89 e5             	mov    %rsp,%rbp
    70e3:	48 89 7d f8          	mov    %rdi,-0x8(%rbp)
    70e7:	89 75 f4             	mov    %esi,-0xc(%rbp)
    70ea:	83 7d f4 00          	cmpl   $0x0,-0xc(%rbp)
    70ee:	78 2f                	js     711f <safe_lshift_func_uint64_t_u_s+0x44>
    70f0:	83 7d f4 1f          	cmpl   $0x1f,-0xc(%rbp)
    70f4:	7f 29                	jg     711f <safe_lshift_func_uint64_t_u_s+0x44>
    70f6:	8b 45 f4             	mov    -0xc(%rbp),%eax
    70f9:	48 c7 c2 ff ff ff ff 	mov    $0xffffffffffffffff,%rdx
    7100:	89 c1                	mov    %eax,%ecx
    7102:	48 d3 ea             	shr    %cl,%rdx
    7105:	48 89 d0             	mov    %rdx,%rax
    7108:	48 39 45 f8          	cmp    %rax,-0x8(%rbp)
    710c:	77 11                	ja     711f <safe_lshift_func_uint64_t_u_s+0x44>
    710e:	8b 45 f4             	mov    -0xc(%rbp),%eax
    7111:	48 8b 55 f8          	mov    -0x8(%rbp),%rdx
    7115:	89 c1                	mov    %eax,%ecx
    7117:	48 d3 e2             	shl    %cl,%rdx
    711a:	48 89 d0             	mov    %rdx,%rax
    711d:	eb 04                	jmp    7123 <safe_lshift_func_uint64_t_u_s+0x48>
    711f:	48 8b 45 f8          	mov    -0x8(%rbp),%rax
    7123:	5d                   	pop    %rbp
    7124:	c3                   	retq   

0000000000007125 <safe_lshift_func_uint64_t_u_u>:
    7125:	f3 0f 1e fa          	endbr64 
    7129:	55                   	push   %rbp
    712a:	48 89 e5             	mov    %rsp,%rbp
    712d:	48 89 7d f8          	mov    %rdi,-0x8(%rbp)
    7131:	89 75 f4             	mov    %esi,-0xc(%rbp)
    7134:	83 7d f4 1f          	cmpl   $0x1f,-0xc(%rbp)
    7138:	77 29                	ja     7163 <safe_lshift_func_uint64_t_u_u+0x3e>
    713a:	8b 45 f4             	mov    -0xc(%rbp),%eax
    713d:	48 c7 c2 ff ff ff ff 	mov    $0xffffffffffffffff,%rdx
    7144:	89 c1                	mov    %eax,%ecx
    7146:	48 d3 ea             	shr    %cl,%rdx
    7149:	48 89 d0             	mov    %rdx,%rax
    714c:	48 39 45 f8          	cmp    %rax,-0x8(%rbp)
    7150:	77 11                	ja     7163 <safe_lshift_func_uint64_t_u_u+0x3e>
    7152:	8b 45 f4             	mov    -0xc(%rbp),%eax
    7155:	48 8b 55 f8          	mov    -0x8(%rbp),%rdx
    7159:	89 c1                	mov    %eax,%ecx
    715b:	48 d3 e2             	shl    %cl,%rdx
    715e:	48 89 d0             	mov    %rdx,%rax
    7161:	eb 04                	jmp    7167 <safe_lshift_func_uint64_t_u_u+0x42>
    7163:	48 8b 45 f8          	mov    -0x8(%rbp),%rax
    7167:	5d                   	pop    %rbp
    7168:	c3                   	retq   

0000000000007169 <safe_rshift_func_uint64_t_u_s>:
    7169:	f3 0f 1e fa          	endbr64 
    716d:	55                   	push   %rbp
    716e:	48 89 e5             	mov    %rsp,%rbp
    7171:	48 89 7d f8          	mov    %rdi,-0x8(%rbp)
    7175:	89 75 f4             	mov    %esi,-0xc(%rbp)
    7178:	83 7d f4 00          	cmpl   $0x0,-0xc(%rbp)
    717c:	78 17                	js     7195 <safe_rshift_func_uint64_t_u_s+0x2c>
    717e:	83 7d f4 1f          	cmpl   $0x1f,-0xc(%rbp)
    7182:	7f 11                	jg     7195 <safe_rshift_func_uint64_t_u_s+0x2c>
    7184:	8b 45 f4             	mov    -0xc(%rbp),%eax
    7187:	48 8b 55 f8          	mov    -0x8(%rbp),%rdx
    718b:	89 c1                	mov    %eax,%ecx
    718d:	48 d3 ea             	shr    %cl,%rdx
    7190:	48 89 d0             	mov    %rdx,%rax
    7193:	eb 04                	jmp    7199 <safe_rshift_func_uint64_t_u_s+0x30>
    7195:	48 8b 45 f8          	mov    -0x8(%rbp),%rax
    7199:	5d                   	pop    %rbp
    719a:	c3                   	retq   

000000000000719b <safe_rshift_func_uint64_t_u_u>:
    719b:	f3 0f 1e fa          	endbr64 
    719f:	55                   	push   %rbp
    71a0:	48 89 e5             	mov    %rsp,%rbp
    71a3:	48 89 7d f8          	mov    %rdi,-0x8(%rbp)
    71a7:	89 75 f4             	mov    %esi,-0xc(%rbp)
    71aa:	83 7d f4 1f          	cmpl   $0x1f,-0xc(%rbp)
    71ae:	77 11                	ja     71c1 <safe_rshift_func_uint64_t_u_u+0x26>
    71b0:	8b 45 f4             	mov    -0xc(%rbp),%eax
    71b3:	48 8b 55 f8          	mov    -0x8(%rbp),%rdx
    71b7:	89 c1                	mov    %eax,%ecx
    71b9:	48 d3 ea             	shr    %cl,%rdx
    71bc:	48 89 d0             	mov    %rdx,%rax
    71bf:	eb 04                	jmp    71c5 <safe_rshift_func_uint64_t_u_u+0x2a>
    71c1:	48 8b 45 f8          	mov    -0x8(%rbp),%rax
    71c5:	5d                   	pop    %rbp
    71c6:	c3                   	retq   

00000000000071c7 <safe_add_func_float_f_f>:
    71c7:	f3 0f 1e fa          	endbr64 
    71cb:	55                   	push   %rbp
    71cc:	48 89 e5             	mov    %rsp,%rbp
    71cf:	f3 0f 11 45 fc       	movss  %xmm0,-0x4(%rbp)
    71d4:	f3 0f 11 4d f8       	movss  %xmm1,-0x8(%rbp)
    71d9:	f3 0f 10 4d fc       	movss  -0x4(%rbp),%xmm1
    71de:	f3 0f 10 05 d6 61 01 	movss  0x161d6(%rip),%xmm0        # 1d3bc <l_113.5089+0x4>
    71e5:	00 
    71e6:	f3 0f 59 c8          	mulss  %xmm0,%xmm1
    71ea:	f3 0f 10 55 f8       	movss  -0x8(%rbp),%xmm2
    71ef:	f3 0f 10 05 c5 61 01 	movss  0x161c5(%rip),%xmm0        # 1d3bc <l_113.5089+0x4>
    71f6:	00 
    71f7:	f3 0f 59 c2          	mulss  %xmm2,%xmm0
    71fb:	f3 0f 58 c1          	addss  %xmm1,%xmm0
    71ff:	f3 0f 10 0d b9 61 01 	movss  0x161b9(%rip),%xmm1        # 1d3c0 <l_113.5089+0x8>
    7206:	00 
    7207:	0f 54 c1             	andps  %xmm1,%xmm0
    720a:	0f 2f 05 bf 61 01 00 	comiss 0x161bf(%rip),%xmm0        # 1d3d0 <l_113.5089+0x18>
    7211:	76 07                	jbe    721a <safe_add_func_float_f_f+0x53>
    7213:	f3 0f 10 45 fc       	movss  -0x4(%rbp),%xmm0
    7218:	eb 0a                	jmp    7224 <safe_add_func_float_f_f+0x5d>
    721a:	f3 0f 10 45 fc       	movss  -0x4(%rbp),%xmm0
    721f:	f3 0f 58 45 f8       	addss  -0x8(%rbp),%xmm0
    7224:	5d                   	pop    %rbp
    7225:	c3                   	retq   

0000000000007226 <safe_sub_func_float_f_f>:
    7226:	f3 0f 1e fa          	endbr64 
    722a:	55                   	push   %rbp
    722b:	48 89 e5             	mov    %rsp,%rbp
    722e:	f3 0f 11 45 fc       	movss  %xmm0,-0x4(%rbp)
    7233:	f3 0f 11 4d f8       	movss  %xmm1,-0x8(%rbp)
    7238:	f3 0f 10 4d fc       	movss  -0x4(%rbp),%xmm1
    723d:	f3 0f 10 05 77 61 01 	movss  0x16177(%rip),%xmm0        # 1d3bc <l_113.5089+0x4>
    7244:	00 
    7245:	f3 0f 59 c1          	mulss  %xmm1,%xmm0
    7249:	f3 0f 10 55 f8       	movss  -0x8(%rbp),%xmm2
    724e:	f3 0f 10 0d 66 61 01 	movss  0x16166(%rip),%xmm1        # 1d3bc <l_113.5089+0x4>
    7255:	00 
    7256:	f3 0f 59 ca          	mulss  %xmm2,%xmm1
    725a:	f3 0f 5c c1          	subss  %xmm1,%xmm0
    725e:	f3 0f 10 0d 5a 61 01 	movss  0x1615a(%rip),%xmm1        # 1d3c0 <l_113.5089+0x8>
    7265:	00 
    7266:	0f 54 c1             	andps  %xmm1,%xmm0
    7269:	0f 2f 05 60 61 01 00 	comiss 0x16160(%rip),%xmm0        # 1d3d0 <l_113.5089+0x18>
    7270:	76 07                	jbe    7279 <safe_sub_func_float_f_f+0x53>
    7272:	f3 0f 10 45 fc       	movss  -0x4(%rbp),%xmm0
    7277:	eb 0a                	jmp    7283 <safe_sub_func_float_f_f+0x5d>
    7279:	f3 0f 10 45 fc       	movss  -0x4(%rbp),%xmm0
    727e:	f3 0f 5c 45 f8       	subss  -0x8(%rbp),%xmm0
    7283:	5d                   	pop    %rbp
    7284:	c3                   	retq   

0000000000007285 <safe_mul_func_float_f_f>:
    7285:	f3 0f 1e fa          	endbr64 
    7289:	55                   	push   %rbp
    728a:	48 89 e5             	mov    %rsp,%rbp
    728d:	f3 0f 11 45 fc       	movss  %xmm0,-0x4(%rbp)
    7292:	f3 0f 11 4d f8       	movss  %xmm1,-0x8(%rbp)
    7297:	f3 0f 10 4d fc       	movss  -0x4(%rbp),%xmm1
    729c:	f3 0f 10 05 30 61 01 	movss  0x16130(%rip),%xmm0        # 1d3d4 <l_113.5089+0x1c>
    72a3:	00 
    72a4:	f3 0f 59 c8          	mulss  %xmm0,%xmm1
    72a8:	f3 0f 10 55 f8       	movss  -0x8(%rbp),%xmm2
    72ad:	f3 0f 10 05 23 61 01 	movss  0x16123(%rip),%xmm0        # 1d3d8 <l_113.5089+0x20>
    72b4:	00 
    72b5:	f3 0f 59 c2          	mulss  %xmm2,%xmm0
    72b9:	f3 0f 59 c1          	mulss  %xmm1,%xmm0
    72bd:	f3 0f 10 0d fb 60 01 	movss  0x160fb(%rip),%xmm1        # 1d3c0 <l_113.5089+0x8>
    72c4:	00 
    72c5:	0f 54 c1             	andps  %xmm1,%xmm0
    72c8:	0f 2f 05 0d 61 01 00 	comiss 0x1610d(%rip),%xmm0        # 1d3dc <l_113.5089+0x24>
    72cf:	76 07                	jbe    72d8 <safe_mul_func_float_f_f+0x53>
    72d1:	f3 0f 10 45 fc       	movss  -0x4(%rbp),%xmm0
    72d6:	eb 0a                	jmp    72e2 <safe_mul_func_float_f_f+0x5d>
    72d8:	f3 0f 10 45 fc       	movss  -0x4(%rbp),%xmm0
    72dd:	f3 0f 59 45 f8       	mulss  -0x8(%rbp),%xmm0
    72e2:	5d                   	pop    %rbp
    72e3:	c3                   	retq   

00000000000072e4 <safe_div_func_float_f_f>:
    72e4:	f3 0f 1e fa          	endbr64 
    72e8:	55                   	push   %rbp
    72e9:	48 89 e5             	mov    %rsp,%rbp
    72ec:	f3 0f 11 45 fc       	movss  %xmm0,-0x4(%rbp)
    72f1:	f3 0f 11 4d f8       	movss  %xmm1,-0x8(%rbp)
    72f6:	f3 0f 10 45 f8       	movss  -0x8(%rbp),%xmm0
    72fb:	f3 0f 10 0d bd 60 01 	movss  0x160bd(%rip),%xmm1        # 1d3c0 <l_113.5089+0x8>
    7302:	00 
    7303:	0f 54 c8             	andps  %xmm0,%xmm1
    7306:	f3 0f 10 05 d2 60 01 	movss  0x160d2(%rip),%xmm0        # 1d3e0 <l_113.5089+0x28>
    730d:	00 
    730e:	0f 2f c1             	comiss %xmm1,%xmm0
    7311:	0f 97 c0             	seta   %al
    7314:	83 f0 01             	xor    $0x1,%eax
    7317:	84 c0                	test   %al,%al
    7319:	75 56                	jne    7371 <safe_div_func_float_f_f+0x8d>
    731b:	66 0f ef c0          	pxor   %xmm0,%xmm0
    731f:	0f 2e 45 f8          	ucomiss -0x8(%rbp),%xmm0
    7323:	7a 0a                	jp     732f <safe_div_func_float_f_f+0x4b>
    7325:	66 0f ef c0          	pxor   %xmm0,%xmm0
    7329:	0f 2e 45 f8          	ucomiss -0x8(%rbp),%xmm0
    732d:	74 4e                	je     737d <safe_div_func_float_f_f+0x99>
    732f:	f3 0f 10 4d fc       	movss  -0x4(%rbp),%xmm1
    7334:	f3 0f 10 05 a8 60 01 	movss  0x160a8(%rip),%xmm0        # 1d3e4 <l_113.5089+0x2c>
    733b:	00 
    733c:	f3 0f 59 c1          	mulss  %xmm1,%xmm0
    7340:	f3 0f 10 55 f8       	movss  -0x8(%rbp),%xmm2
    7345:	f3 0f 10 0d 9b 60 01 	movss  0x1609b(%rip),%xmm1        # 1d3e8 <l_113.5089+0x30>
    734c:	00 
    734d:	f3 0f 59 ca          	mulss  %xmm2,%xmm1
    7351:	f3 0f 5e c1          	divss  %xmm1,%xmm0
    7355:	f3 0f 10 0d 63 60 01 	movss  0x16063(%rip),%xmm1        # 1d3c0 <l_113.5089+0x8>
    735c:	00 
    735d:	0f 54 c1             	andps  %xmm1,%xmm0
    7360:	0f 2f 05 85 60 01 00 	comiss 0x16085(%rip),%xmm0        # 1d3ec <l_113.5089+0x34>
    7367:	0f 97 c0             	seta   %al
    736a:	83 f0 01             	xor    $0x1,%eax
    736d:	84 c0                	test   %al,%al
    736f:	74 0c                	je     737d <safe_div_func_float_f_f+0x99>
    7371:	f3 0f 10 45 fc       	movss  -0x4(%rbp),%xmm0
    7376:	f3 0f 5e 45 f8       	divss  -0x8(%rbp),%xmm0
    737b:	eb 05                	jmp    7382 <safe_div_func_float_f_f+0x9e>
    737d:	f3 0f 10 45 fc       	movss  -0x4(%rbp),%xmm0
    7382:	5d                   	pop    %rbp
    7383:	c3                   	retq   

0000000000007384 <safe_add_func_double_f_f>:
    7384:	f3 0f 1e fa          	endbr64 
    7388:	55                   	push   %rbp
    7389:	48 89 e5             	mov    %rsp,%rbp
    738c:	f2 0f 11 45 f8       	movsd  %xmm0,-0x8(%rbp)
    7391:	f2 0f 11 4d f0       	movsd  %xmm1,-0x10(%rbp)
    7396:	f2 0f 10 4d f8       	movsd  -0x8(%rbp),%xmm1
    739b:	f2 0f 10 05 4d 60 01 	movsd  0x1604d(%rip),%xmm0        # 1d3f0 <l_113.5089+0x38>
    73a2:	00 
    73a3:	f2 0f 59 c8          	mulsd  %xmm0,%xmm1
    73a7:	f2 0f 10 55 f0       	movsd  -0x10(%rbp),%xmm2
    73ac:	f2 0f 10 05 3c 60 01 	movsd  0x1603c(%rip),%xmm0        # 1d3f0 <l_113.5089+0x38>
    73b3:	00 
    73b4:	f2 0f 59 c2          	mulsd  %xmm2,%xmm0
    73b8:	f2 0f 58 c1          	addsd  %xmm1,%xmm0
    73bc:	f3 0f 7e 0d 3c 60 01 	movq   0x1603c(%rip),%xmm1        # 1d400 <l_113.5089+0x48>
    73c3:	00 
    73c4:	66 0f 54 c1          	andpd  %xmm1,%xmm0
    73c8:	66 0f 2f 05 40 60 01 	comisd 0x16040(%rip),%xmm0        # 1d410 <l_113.5089+0x58>
    73cf:	00 
    73d0:	76 07                	jbe    73d9 <safe_add_func_double_f_f+0x55>
    73d2:	f2 0f 10 45 f8       	movsd  -0x8(%rbp),%xmm0
    73d7:	eb 0a                	jmp    73e3 <safe_add_func_double_f_f+0x5f>
    73d9:	f2 0f 10 45 f8       	movsd  -0x8(%rbp),%xmm0
    73de:	f2 0f 58 45 f0       	addsd  -0x10(%rbp),%xmm0
    73e3:	5d                   	pop    %rbp
    73e4:	c3                   	retq   

00000000000073e5 <safe_sub_func_double_f_f>:
    73e5:	f3 0f 1e fa          	endbr64 
    73e9:	55                   	push   %rbp
    73ea:	48 89 e5             	mov    %rsp,%rbp
    73ed:	f2 0f 11 45 f8       	movsd  %xmm0,-0x8(%rbp)
    73f2:	f2 0f 11 4d f0       	movsd  %xmm1,-0x10(%rbp)
    73f7:	f2 0f 10 4d f8       	movsd  -0x8(%rbp),%xmm1
    73fc:	f2 0f 10 05 ec 5f 01 	movsd  0x15fec(%rip),%xmm0        # 1d3f0 <l_113.5089+0x38>
    7403:	00 
    7404:	f2 0f 59 c1          	mulsd  %xmm1,%xmm0
    7408:	f2 0f 10 55 f0       	movsd  -0x10(%rbp),%xmm2
    740d:	f2 0f 10 0d db 5f 01 	movsd  0x15fdb(%rip),%xmm1        # 1d3f0 <l_113.5089+0x38>
    7414:	00 
    7415:	f2 0f 59 ca          	mulsd  %xmm2,%xmm1
    7419:	f2 0f 5c c1          	subsd  %xmm1,%xmm0
    741d:	f3 0f 7e 0d db 5f 01 	movq   0x15fdb(%rip),%xmm1        # 1d400 <l_113.5089+0x48>
    7424:	00 
    7425:	66 0f 54 c1          	andpd  %xmm1,%xmm0
    7429:	66 0f 2f 05 df 5f 01 	comisd 0x15fdf(%rip),%xmm0        # 1d410 <l_113.5089+0x58>
    7430:	00 
    7431:	76 07                	jbe    743a <safe_sub_func_double_f_f+0x55>
    7433:	f2 0f 10 45 f8       	movsd  -0x8(%rbp),%xmm0
    7438:	eb 0a                	jmp    7444 <safe_sub_func_double_f_f+0x5f>
    743a:	f2 0f 10 45 f8       	movsd  -0x8(%rbp),%xmm0
    743f:	f2 0f 5c 45 f0       	subsd  -0x10(%rbp),%xmm0
    7444:	5d                   	pop    %rbp
    7445:	c3                   	retq   

0000000000007446 <safe_mul_func_double_f_f>:
    7446:	f3 0f 1e fa          	endbr64 
    744a:	55                   	push   %rbp
    744b:	48 89 e5             	mov    %rsp,%rbp
    744e:	f2 0f 11 45 f8       	movsd  %xmm0,-0x8(%rbp)
    7453:	f2 0f 11 4d f0       	movsd  %xmm1,-0x10(%rbp)
    7458:	f2 0f 10 4d f8       	movsd  -0x8(%rbp),%xmm1
    745d:	f2 0f 10 05 b3 5f 01 	movsd  0x15fb3(%rip),%xmm0        # 1d418 <l_113.5089+0x60>
    7464:	00 
    7465:	f2 0f 59 c8          	mulsd  %xmm0,%xmm1
    7469:	f2 0f 10 55 f0       	movsd  -0x10(%rbp),%xmm2
    746e:	f2 0f 10 05 aa 5f 01 	movsd  0x15faa(%rip),%xmm0        # 1d420 <l_113.5089+0x68>
    7475:	00 
    7476:	f2 0f 59 c2          	mulsd  %xmm2,%xmm0
    747a:	f2 0f 59 c1          	mulsd  %xmm1,%xmm0
    747e:	f3 0f 7e 0d 7a 5f 01 	movq   0x15f7a(%rip),%xmm1        # 1d400 <l_113.5089+0x48>
    7485:	00 
    7486:	66 0f 54 c1          	andpd  %xmm1,%xmm0
    748a:	66 0f 2f 05 96 5f 01 	comisd 0x15f96(%rip),%xmm0        # 1d428 <l_113.5089+0x70>
    7491:	00 
    7492:	76 07                	jbe    749b <safe_mul_func_double_f_f+0x55>
    7494:	f2 0f 10 45 f8       	movsd  -0x8(%rbp),%xmm0
    7499:	eb 0a                	jmp    74a5 <safe_mul_func_double_f_f+0x5f>
    749b:	f2 0f 10 45 f8       	movsd  -0x8(%rbp),%xmm0
    74a0:	f2 0f 59 45 f0       	mulsd  -0x10(%rbp),%xmm0
    74a5:	5d                   	pop    %rbp
    74a6:	c3                   	retq   

00000000000074a7 <safe_div_func_double_f_f>:
    74a7:	f3 0f 1e fa          	endbr64 
    74ab:	55                   	push   %rbp
    74ac:	48 89 e5             	mov    %rsp,%rbp
    74af:	f2 0f 11 45 f8       	movsd  %xmm0,-0x8(%rbp)
    74b4:	f2 0f 11 4d f0       	movsd  %xmm1,-0x10(%rbp)
    74b9:	f2 0f 10 45 f0       	movsd  -0x10(%rbp),%xmm0
    74be:	f3 0f 7e 0d 3a 5f 01 	movq   0x15f3a(%rip),%xmm1        # 1d400 <l_113.5089+0x48>
    74c5:	00 
    74c6:	66 0f 54 c8          	andpd  %xmm0,%xmm1
    74ca:	f2 0f 10 05 5e 5f 01 	movsd  0x15f5e(%rip),%xmm0        # 1d430 <l_113.5089+0x78>
    74d1:	00 
    74d2:	66 0f 2f c1          	comisd %xmm1,%xmm0
    74d6:	0f 97 c0             	seta   %al
    74d9:	83 f0 01             	xor    $0x1,%eax
    74dc:	84 c0                	test   %al,%al
    74de:	75 5a                	jne    753a <safe_div_func_double_f_f+0x93>
    74e0:	66 0f ef c0          	pxor   %xmm0,%xmm0
    74e4:	66 0f 2e 45 f0       	ucomisd -0x10(%rbp),%xmm0
    74e9:	7a 0b                	jp     74f6 <safe_div_func_double_f_f+0x4f>
    74eb:	66 0f ef c0          	pxor   %xmm0,%xmm0
    74ef:	66 0f 2e 45 f0       	ucomisd -0x10(%rbp),%xmm0
    74f4:	74 50                	je     7546 <safe_div_func_double_f_f+0x9f>
    74f6:	f2 0f 10 4d f8       	movsd  -0x8(%rbp),%xmm1
    74fb:	f2 0f 10 05 35 5f 01 	movsd  0x15f35(%rip),%xmm0        # 1d438 <l_113.5089+0x80>
    7502:	00 
    7503:	f2 0f 59 c1          	mulsd  %xmm1,%xmm0
    7507:	f2 0f 10 55 f0       	movsd  -0x10(%rbp),%xmm2
    750c:	f2 0f 10 0d 2c 5f 01 	movsd  0x15f2c(%rip),%xmm1        # 1d440 <l_113.5089+0x88>
    7513:	00 
    7514:	f2 0f 59 ca          	mulsd  %xmm2,%xmm1
    7518:	f2 0f 5e c1          	divsd  %xmm1,%xmm0
    751c:	f3 0f 7e 0d dc 5e 01 	movq   0x15edc(%rip),%xmm1        # 1d400 <l_113.5089+0x48>
    7523:	00 
    7524:	66 0f 54 c1          	andpd  %xmm1,%xmm0
    7528:	66 0f 2f 05 18 5f 01 	comisd 0x15f18(%rip),%xmm0        # 1d448 <l_113.5089+0x90>
    752f:	00 
    7530:	0f 97 c0             	seta   %al
    7533:	83 f0 01             	xor    $0x1,%eax
    7536:	84 c0                	test   %al,%al
    7538:	74 0c                	je     7546 <safe_div_func_double_f_f+0x9f>
    753a:	f2 0f 10 45 f8       	movsd  -0x8(%rbp),%xmm0
    753f:	f2 0f 5e 45 f0       	divsd  -0x10(%rbp),%xmm0
    7544:	eb 05                	jmp    754b <safe_div_func_double_f_f+0xa4>
    7546:	f2 0f 10 45 f8       	movsd  -0x8(%rbp),%xmm0
    754b:	5d                   	pop    %rbp
    754c:	c3                   	retq   

000000000000754d <safe_convert_func_float_to_int32_t>:
    754d:	f3 0f 1e fa          	endbr64 
    7551:	55                   	push   %rbp
    7552:	48 89 e5             	mov    %rsp,%rbp
    7555:	f3 0f 11 45 fc       	movss  %xmm0,-0x4(%rbp)
    755a:	f3 0f 10 05 ee 5e 01 	movss  0x15eee(%rip),%xmm0        # 1d450 <l_113.5089+0x98>
    7561:	00 
    7562:	0f 2f 45 fc          	comiss -0x4(%rbp),%xmm0
    7566:	0f 93 c0             	setae  %al
    7569:	83 f0 01             	xor    $0x1,%eax
    756c:	84 c0                	test   %al,%al
    756e:	74 21                	je     7591 <safe_convert_func_float_to_int32_t+0x44>
    7570:	f3 0f 10 45 fc       	movss  -0x4(%rbp),%xmm0
    7575:	0f 2f 05 d8 5e 01 00 	comiss 0x15ed8(%rip),%xmm0        # 1d454 <l_113.5089+0x9c>
    757c:	0f 93 c0             	setae  %al
    757f:	83 f0 01             	xor    $0x1,%eax
    7582:	84 c0                	test   %al,%al
    7584:	74 0b                	je     7591 <safe_convert_func_float_to_int32_t+0x44>
    7586:	f3 0f 10 45 fc       	movss  -0x4(%rbp),%xmm0
    758b:	f3 0f 2c c0          	cvttss2si %xmm0,%eax
    758f:	eb 05                	jmp    7596 <safe_convert_func_float_to_int32_t+0x49>
    7591:	b8 ff ff ff 7f       	mov    $0x7fffffff,%eax
    7596:	5d                   	pop    %rbp
    7597:	c3                   	retq   

0000000000007598 <crc32_gentab>:
    7598:	f3 0f 1e fa          	endbr64 
    759c:	55                   	push   %rbp
    759d:	48 89 e5             	mov    %rsp,%rbp
    75a0:	c7 45 fc 20 83 b8 ed 	movl   $0xedb88320,-0x4(%rbp)
    75a7:	c7 45 f4 00 00 00 00 	movl   $0x0,-0xc(%rbp)
    75ae:	eb 51                	jmp    7601 <crc32_gentab+0x69>
    75b0:	8b 45 f4             	mov    -0xc(%rbp),%eax
    75b3:	89 45 f0             	mov    %eax,-0x10(%rbp)
    75b6:	c7 45 f8 08 00 00 00 	movl   $0x8,-0x8(%rbp)
    75bd:	eb 1e                	jmp    75dd <crc32_gentab+0x45>
    75bf:	8b 45 f0             	mov    -0x10(%rbp),%eax
    75c2:	83 e0 01             	and    $0x1,%eax
    75c5:	85 c0                	test   %eax,%eax
    75c7:	74 0d                	je     75d6 <crc32_gentab+0x3e>
    75c9:	8b 45 f0             	mov    -0x10(%rbp),%eax
    75cc:	d1 e8                	shr    %eax
    75ce:	33 45 fc             	xor    -0x4(%rbp),%eax
    75d1:	89 45 f0             	mov    %eax,-0x10(%rbp)
    75d4:	eb 03                	jmp    75d9 <crc32_gentab+0x41>
    75d6:	d1 6d f0             	shrl   -0x10(%rbp)
    75d9:	83 6d f8 01          	subl   $0x1,-0x8(%rbp)
    75dd:	83 7d f8 00          	cmpl   $0x0,-0x8(%rbp)
    75e1:	7f dc                	jg     75bf <crc32_gentab+0x27>
    75e3:	8b 45 f4             	mov    -0xc(%rbp),%eax
    75e6:	48 98                	cltq   
    75e8:	48 8d 0c 85 00 00 00 	lea    0x0(,%rax,4),%rcx
    75ef:	00 
    75f0:	48 8d 15 89 ae 01 00 	lea    0x1ae89(%rip),%rdx        # 22480 <crc32_tab>
    75f7:	8b 45 f0             	mov    -0x10(%rbp),%eax
    75fa:	89 04 11             	mov    %eax,(%rcx,%rdx,1)
    75fd:	83 45 f4 01          	addl   $0x1,-0xc(%rbp)
    7601:	81 7d f4 ff 00 00 00 	cmpl   $0xff,-0xc(%rbp)
    7608:	7e a6                	jle    75b0 <crc32_gentab+0x18>
    760a:	90                   	nop
    760b:	90                   	nop
    760c:	5d                   	pop    %rbp
    760d:	c3                   	retq   

000000000000760e <crc32_byte>:
    760e:	f3 0f 1e fa          	endbr64 
    7612:	55                   	push   %rbp
    7613:	48 89 e5             	mov    %rsp,%rbp
    7616:	89 f8                	mov    %edi,%eax
    7618:	88 45 fc             	mov    %al,-0x4(%rbp)
    761b:	8b 05 ff 89 01 00    	mov    0x189ff(%rip),%eax        # 20020 <crc32_context>
    7621:	c1 e8 08             	shr    $0x8,%eax
    7624:	89 c1                	mov    %eax,%ecx
    7626:	0f b6 55 fc          	movzbl -0x4(%rbp),%edx
    762a:	8b 05 f0 89 01 00    	mov    0x189f0(%rip),%eax        # 20020 <crc32_context>
    7630:	31 d0                	xor    %edx,%eax
    7632:	0f b6 c0             	movzbl %al,%eax
    7635:	89 c0                	mov    %eax,%eax
    7637:	48 8d 14 85 00 00 00 	lea    0x0(,%rax,4),%rdx
    763e:	00 
    763f:	48 8d 05 3a ae 01 00 	lea    0x1ae3a(%rip),%rax        # 22480 <crc32_tab>
    7646:	8b 04 02             	mov    (%rdx,%rax,1),%eax
    7649:	31 c8                	xor    %ecx,%eax
    764b:	89 05 cf 89 01 00    	mov    %eax,0x189cf(%rip)        # 20020 <crc32_context>
    7651:	90                   	nop
    7652:	5d                   	pop    %rbp
    7653:	c3                   	retq   

0000000000007654 <crc32_8bytes>:
    7654:	f3 0f 1e fa          	endbr64 
    7658:	55                   	push   %rbp
    7659:	48 89 e5             	mov    %rsp,%rbp
    765c:	48 83 ec 08          	sub    $0x8,%rsp
    7660:	48 89 7d f8          	mov    %rdi,-0x8(%rbp)
    7664:	48 8b 45 f8          	mov    -0x8(%rbp),%rax
    7668:	0f b6 c0             	movzbl %al,%eax
    766b:	89 c7                	mov    %eax,%edi
    766d:	e8 9c ff ff ff       	callq  760e <crc32_byte>
    7672:	48 8b 45 f8          	mov    -0x8(%rbp),%rax
    7676:	48 c1 e8 08          	shr    $0x8,%rax
    767a:	0f b6 c0             	movzbl %al,%eax
    767d:	89 c7                	mov    %eax,%edi
    767f:	e8 8a ff ff ff       	callq  760e <crc32_byte>
    7684:	48 8b 45 f8          	mov    -0x8(%rbp),%rax
    7688:	48 c1 e8 10          	shr    $0x10,%rax
    768c:	0f b6 c0             	movzbl %al,%eax
    768f:	89 c7                	mov    %eax,%edi
    7691:	e8 78 ff ff ff       	callq  760e <crc32_byte>
    7696:	48 8b 45 f8          	mov    -0x8(%rbp),%rax
    769a:	48 c1 e8 18          	shr    $0x18,%rax
    769e:	0f b6 c0             	movzbl %al,%eax
    76a1:	89 c7                	mov    %eax,%edi
    76a3:	e8 66 ff ff ff       	callq  760e <crc32_byte>
    76a8:	48 8b 45 f8          	mov    -0x8(%rbp),%rax
    76ac:	48 c1 e8 20          	shr    $0x20,%rax
    76b0:	0f b6 c0             	movzbl %al,%eax
    76b3:	89 c7                	mov    %eax,%edi
    76b5:	e8 54 ff ff ff       	callq  760e <crc32_byte>
    76ba:	48 8b 45 f8          	mov    -0x8(%rbp),%rax
    76be:	48 c1 e8 28          	shr    $0x28,%rax
    76c2:	0f b6 c0             	movzbl %al,%eax
    76c5:	89 c7                	mov    %eax,%edi
    76c7:	e8 42 ff ff ff       	callq  760e <crc32_byte>
    76cc:	48 8b 45 f8          	mov    -0x8(%rbp),%rax
    76d0:	48 c1 e8 30          	shr    $0x30,%rax
    76d4:	0f b6 c0             	movzbl %al,%eax
    76d7:	89 c7                	mov    %eax,%edi
    76d9:	e8 30 ff ff ff       	callq  760e <crc32_byte>
    76de:	48 8b 45 f8          	mov    -0x8(%rbp),%rax
    76e2:	48 c1 e8 38          	shr    $0x38,%rax
    76e6:	0f b6 c0             	movzbl %al,%eax
    76e9:	89 c7                	mov    %eax,%edi
    76eb:	e8 1e ff ff ff       	callq  760e <crc32_byte>
    76f0:	90                   	nop
    76f1:	c9                   	leaveq 
    76f2:	c3                   	retq   

00000000000076f3 <transparent_crc>:
    76f3:	f3 0f 1e fa          	endbr64 
    76f7:	55                   	push   %rbp
    76f8:	48 89 e5             	mov    %rsp,%rbp
    76fb:	48 83 ec 20          	sub    $0x20,%rsp
    76ff:	48 89 7d f8          	mov    %rdi,-0x8(%rbp)
    7703:	48 89 75 f0          	mov    %rsi,-0x10(%rbp)
    7707:	89 55 ec             	mov    %edx,-0x14(%rbp)
    770a:	48 8b 45 f8          	mov    -0x8(%rbp),%rax
    770e:	48 89 c7             	mov    %rax,%rdi
    7711:	e8 3e ff ff ff       	callq  7654 <crc32_8bytes>
    7716:	83 7d ec 00          	cmpl   $0x0,-0x14(%rbp)
    771a:	74 22                	je     773e <transparent_crc+0x4b>
    771c:	8b 05 fe 88 01 00    	mov    0x188fe(%rip),%eax        # 20020 <crc32_context>
    7722:	f7 d0                	not    %eax
    7724:	89 c2                	mov    %eax,%edx
    7726:	48 8b 45 f0          	mov    -0x10(%rbp),%rax
    772a:	48 89 c6             	mov    %rax,%rsi
    772d:	48 8d 3d fc 28 01 00 	lea    0x128fc(%rip),%rdi        # 1a030 <_IO_stdin_used+0x30>
    7734:	b8 00 00 00 00       	mov    $0x0,%eax
    7739:	e8 42 e9 ff ff       	callq  6080 <printf@plt>
    773e:	90                   	nop
    773f:	c9                   	leaveq 
    7740:	c3                   	retq   

0000000000007741 <transparent_crc_bytes>:
    7741:	f3 0f 1e fa          	endbr64 
    7745:	55                   	push   %rbp
    7746:	48 89 e5             	mov    %rsp,%rbp
    7749:	48 83 ec 30          	sub    $0x30,%rsp
    774d:	48 89 7d e8          	mov    %rdi,-0x18(%rbp)
    7751:	89 75 e4             	mov    %esi,-0x1c(%rbp)
    7754:	48 89 55 d8          	mov    %rdx,-0x28(%rbp)
    7758:	89 4d e0             	mov    %ecx,-0x20(%rbp)
    775b:	c7 45 fc 00 00 00 00 	movl   $0x0,-0x4(%rbp)
    7762:	eb 1e                	jmp    7782 <transparent_crc_bytes+0x41>
    7764:	8b 45 fc             	mov    -0x4(%rbp),%eax
    7767:	48 63 d0             	movslq %eax,%rdx
    776a:	48 8b 45 e8          	mov    -0x18(%rbp),%rax
    776e:	48 01 d0             	add    %rdx,%rax
    7771:	0f b6 00             	movzbl (%rax),%eax
    7774:	0f b6 c0             	movzbl %al,%eax
    7777:	89 c7                	mov    %eax,%edi
    7779:	e8 90 fe ff ff       	callq  760e <crc32_byte>
    777e:	83 45 fc 01          	addl   $0x1,-0x4(%rbp)
    7782:	8b 45 fc             	mov    -0x4(%rbp),%eax
    7785:	3b 45 e4             	cmp    -0x1c(%rbp),%eax
    7788:	7c da                	jl     7764 <transparent_crc_bytes+0x23>
    778a:	83 7d e0 00          	cmpl   $0x0,-0x20(%rbp)
    778e:	74 22                	je     77b2 <transparent_crc_bytes+0x71>
    7790:	8b 05 8a 88 01 00    	mov    0x1888a(%rip),%eax        # 20020 <crc32_context>
    7796:	f7 d0                	not    %eax
    7798:	89 c2                	mov    %eax,%edx
    779a:	48 8b 45 d8          	mov    -0x28(%rbp),%rax
    779e:	48 89 c6             	mov    %rax,%rsi
    77a1:	48 8d 3d 88 28 01 00 	lea    0x12888(%rip),%rdi        # 1a030 <_IO_stdin_used+0x30>
    77a8:	b8 00 00 00 00       	mov    $0x0,%eax
    77ad:	e8 ce e8 ff ff       	callq  6080 <printf@plt>
    77b2:	90                   	nop
    77b3:	c9                   	leaveq 
    77b4:	c3                   	retq   

00000000000077b5 <func_1>:
    77b5:	f3 0f 1e fa          	endbr64 
    77b9:	55                   	push   %rbp
    77ba:	48 89 e5             	mov    %rsp,%rbp
    77bd:	53                   	push   %rbx
    77be:	48 81 ec 28 07 00 00 	sub    $0x728,%rsp
    77c5:	64 48 8b 04 25 28 00 	mov    %fs:0x28,%rax
    77cc:	00 00 
    77ce:	48 89 45 e8          	mov    %rax,-0x18(%rbp)
    77d2:	31 c0                	xor    %eax,%eax
    77d4:	48 8d 05 89 89 01 00 	lea    0x18989(%rip),%rax        # 20164 <g_7>
    77db:	48 89 85 f8 f8 ff ff 	mov    %rax,-0x708(%rbp)
    77e2:	48 8d 85 f8 f8 ff ff 	lea    -0x708(%rbp),%rax
    77e9:	48 89 85 08 f9 ff ff 	mov    %rax,-0x6f8(%rbp)
    77f0:	c6 85 d8 f8 ff ff 97 	movb   $0x97,-0x728(%rbp)
    77f7:	0f b6 85 d9 f8 ff ff 	movzbl -0x727(%rbp),%eax
    77fe:	83 e0 c0             	and    $0xffffffc0,%eax
    7801:	83 c8 06             	or     $0x6,%eax
    7804:	88 85 d9 f8 ff ff    	mov    %al,-0x727(%rbp)
    780a:	c7 85 e4 f8 ff ff 01 	movl   $0x1,-0x71c(%rbp)
    7811:	00 00 00 
    7814:	c6 85 d7 f8 ff ff 05 	movb   $0x5,-0x729(%rbp)
    781b:	c7 85 e8 f8 ff ff 34 	movl   $0xd663f734,-0x718(%rbp)
    7822:	f7 63 d6 
    7825:	48 8d 85 40 f9 ff ff 	lea    -0x6c0(%rbp),%rax
    782c:	48 83 c0 08          	add    $0x8,%rax
    7830:	48 89 85 10 f9 ff ff 	mov    %rax,-0x6f0(%rbp)
    7837:	48 8d 05 92 89 01 00 	lea    0x18992(%rip),%rax        # 201d0 <g_50>
    783e:	48 89 85 a0 f9 ff ff 	mov    %rax,-0x660(%rbp)
    7845:	48 8d 05 58 8c 01 00 	lea    0x18c58(%rip),%rax        # 204a4 <g_988>
    784c:	48 89 85 a8 f9 ff ff 	mov    %rax,-0x658(%rbp)
    7853:	48 8d 05 4a 8c 01 00 	lea    0x18c4a(%rip),%rax        # 204a4 <g_988>
    785a:	48 89 85 b0 f9 ff ff 	mov    %rax,-0x650(%rbp)
    7861:	48 8d 05 34 8c 01 00 	lea    0x18c34(%rip),%rax        # 2049c <g_984+0xc>
    7868:	48 89 85 b8 f9 ff ff 	mov    %rax,-0x648(%rbp)
    786f:	48 8d 05 2e 8c 01 00 	lea    0x18c2e(%rip),%rax        # 204a4 <g_988>
    7876:	48 89 85 c0 f9 ff ff 	mov    %rax,-0x640(%rbp)
    787d:	48 8d 85 40 f9 ff ff 	lea    -0x6c0(%rbp),%rax
    7884:	48 83 c0 04          	add    $0x4,%rax
    7888:	48 89 85 c8 f9 ff ff 	mov    %rax,-0x638(%rbp)
    788f:	48 8d 05 0e 8c 01 00 	lea    0x18c0e(%rip),%rax        # 204a4 <g_988>
    7896:	48 89 85 d0 f9 ff ff 	mov    %rax,-0x630(%rbp)
    789d:	48 8d 05 00 8c 01 00 	lea    0x18c00(%rip),%rax        # 204a4 <g_988>
    78a4:	48 89 85 d8 f9 ff ff 	mov    %rax,-0x628(%rbp)
    78ab:	48 8d 85 40 f9 ff ff 	lea    -0x6c0(%rbp),%rax
    78b2:	48 83 c0 04          	add    $0x4,%rax
    78b6:	48 89 85 e0 f9 ff ff 	mov    %rax,-0x620(%rbp)
    78bd:	48 8d 05 d8 8b 01 00 	lea    0x18bd8(%rip),%rax        # 2049c <g_984+0xc>
    78c4:	48 89 85 e8 f9 ff ff 	mov    %rax,-0x618(%rbp)
    78cb:	48 8d 05 76 89 01 00 	lea    0x18976(%rip),%rax        # 20248 <g_77+0x68>
    78d2:	48 89 85 f0 f9 ff ff 	mov    %rax,-0x610(%rbp)
    78d9:	48 8d 85 40 f9 ff ff 	lea    -0x6c0(%rbp),%rax
    78e0:	48 83 c0 04          	add    $0x4,%rax
    78e4:	48 89 85 f8 f9 ff ff 	mov    %rax,-0x608(%rbp)
    78eb:	48 8d 05 72 88 01 00 	lea    0x18872(%rip),%rax        # 20164 <g_7>
    78f2:	48 89 85 00 fa ff ff 	mov    %rax,-0x600(%rbp)
    78f9:	48 8d 05 a4 8b 01 00 	lea    0x18ba4(%rip),%rax        # 204a4 <g_988>
    7900:	48 89 85 08 fa ff ff 	mov    %rax,-0x5f8(%rbp)
    7907:	48 8d 05 96 8b 01 00 	lea    0x18b96(%rip),%rax        # 204a4 <g_988>
    790e:	48 89 85 10 fa ff ff 	mov    %rax,-0x5f0(%rbp)
    7915:	48 8d 05 b4 88 01 00 	lea    0x188b4(%rip),%rax        # 201d0 <g_50>
    791c:	48 89 85 18 fa ff ff 	mov    %rax,-0x5e8(%rbp)
    7923:	48 8d 85 40 f9 ff ff 	lea    -0x6c0(%rbp),%rax
    792a:	48 83 c0 04          	add    $0x4,%rax
    792e:	48 89 85 20 fa ff ff 	mov    %rax,-0x5e0(%rbp)
    7935:	48 8d 05 94 88 01 00 	lea    0x18894(%rip),%rax        # 201d0 <g_50>
    793c:	48 89 85 28 fa ff ff 	mov    %rax,-0x5d8(%rbp)
    7943:	48 8d 05 52 8b 01 00 	lea    0x18b52(%rip),%rax        # 2049c <g_984+0xc>
    794a:	48 89 85 30 fa ff ff 	mov    %rax,-0x5d0(%rbp)
    7951:	48 8d 85 40 f9 ff ff 	lea    -0x6c0(%rbp),%rax
    7958:	48 83 c0 04          	add    $0x4,%rax
    795c:	48 89 85 38 fa ff ff 	mov    %rax,-0x5c8(%rbp)
    7963:	48 8d 05 3a 8b 01 00 	lea    0x18b3a(%rip),%rax        # 204a4 <g_988>
    796a:	48 89 85 40 fa ff ff 	mov    %rax,-0x5c0(%rbp)
    7971:	48 8d 05 2c 8b 01 00 	lea    0x18b2c(%rip),%rax        # 204a4 <g_988>
    7978:	48 89 85 48 fa ff ff 	mov    %rax,-0x5b8(%rbp)
    797f:	48 8d 05 16 8b 01 00 	lea    0x18b16(%rip),%rax        # 2049c <g_984+0xc>
    7986:	48 89 85 50 fa ff ff 	mov    %rax,-0x5b0(%rbp)
    798d:	48 8d 05 10 8b 01 00 	lea    0x18b10(%rip),%rax        # 204a4 <g_988>
    7994:	48 89 85 58 fa ff ff 	mov    %rax,-0x5a8(%rbp)
    799b:	48 8d 05 fa 8a 01 00 	lea    0x18afa(%rip),%rax        # 2049c <g_984+0xc>
    79a2:	48 89 85 60 fa ff ff 	mov    %rax,-0x5a0(%rbp)
    79a9:	48 8d 05 f4 8a 01 00 	lea    0x18af4(%rip),%rax        # 204a4 <g_988>
    79b0:	48 89 85 68 fa ff ff 	mov    %rax,-0x598(%rbp)
    79b7:	48 8d 05 e6 8a 01 00 	lea    0x18ae6(%rip),%rax        # 204a4 <g_988>
    79be:	48 89 85 70 fa ff ff 	mov    %rax,-0x590(%rbp)
    79c5:	48 8d 05 98 87 01 00 	lea    0x18798(%rip),%rax        # 20164 <g_7>
    79cc:	48 89 85 78 fa ff ff 	mov    %rax,-0x588(%rbp)
    79d3:	48 8d 85 40 f9 ff ff 	lea    -0x6c0(%rbp),%rax
    79da:	48 83 c0 04          	add    $0x4,%rax
    79de:	48 89 85 80 fa ff ff 	mov    %rax,-0x580(%rbp)
    79e5:	48 8d 05 5c 88 01 00 	lea    0x1885c(%rip),%rax        # 20248 <g_77+0x68>
    79ec:	48 89 85 88 fa ff ff 	mov    %rax,-0x578(%rbp)
    79f3:	48 8d 05 d6 87 01 00 	lea    0x187d6(%rip),%rax        # 201d0 <g_50>
    79fa:	48 89 85 90 fa ff ff 	mov    %rax,-0x570(%rbp)
    7a01:	48 8d 05 40 88 01 00 	lea    0x18840(%rip),%rax        # 20248 <g_77+0x68>
    7a08:	48 89 85 98 fa ff ff 	mov    %rax,-0x568(%rbp)
    7a0f:	48 8d 05 86 8a 01 00 	lea    0x18a86(%rip),%rax        # 2049c <g_984+0xc>
    7a16:	48 89 85 a0 fa ff ff 	mov    %rax,-0x560(%rbp)
    7a1d:	48 8d 05 78 8a 01 00 	lea    0x18a78(%rip),%rax        # 2049c <g_984+0xc>
    7a24:	48 89 85 a8 fa ff ff 	mov    %rax,-0x558(%rbp)
    7a2b:	48 8d 05 16 88 01 00 	lea    0x18816(%rip),%rax        # 20248 <g_77+0x68>
    7a32:	48 89 85 b0 fa ff ff 	mov    %rax,-0x550(%rbp)
    7a39:	48 8d 05 08 88 01 00 	lea    0x18808(%rip),%rax        # 20248 <g_77+0x68>
    7a40:	48 89 85 b8 fa ff ff 	mov    %rax,-0x548(%rbp)
    7a47:	48 8d 05 56 8a 01 00 	lea    0x18a56(%rip),%rax        # 204a4 <g_988>
    7a4e:	48 89 85 c0 fa ff ff 	mov    %rax,-0x540(%rbp)
    7a55:	48 8d 05 74 87 01 00 	lea    0x18774(%rip),%rax        # 201d0 <g_50>
    7a5c:	48 89 85 c8 fa ff ff 	mov    %rax,-0x538(%rbp)
    7a63:	48 8d 05 de 87 01 00 	lea    0x187de(%rip),%rax        # 20248 <g_77+0x68>
    7a6a:	48 89 85 d0 fa ff ff 	mov    %rax,-0x530(%rbp)
    7a71:	48 8d 05 24 8a 01 00 	lea    0x18a24(%rip),%rax        # 2049c <g_984+0xc>
    7a78:	48 89 85 d8 fa ff ff 	mov    %rax,-0x528(%rbp)
    7a7f:	c7 85 ec f8 ff ff ff 	movl   $0xffffffff,-0x714(%rbp)
    7a86:	ff ff ff 
    7a89:	48 c7 85 60 f9 ff ff 	movq   $0xffffffffffffffff,-0x6a0(%rbp)
    7a90:	ff ff ff ff 
    7a94:	48 c7 85 68 f9 ff ff 	movq   $0xffffffffffffffff,-0x698(%rbp)
    7a9b:	ff ff ff ff 
    7a9f:	48 b8 80 91 a2 49 14 	movabs $0xde95be1449a29180,%rax
    7aa6:	be 95 de 
    7aa9:	48 89 85 70 f9 ff ff 	mov    %rax,-0x690(%rbp)
    7ab0:	48 c7 85 78 f9 ff ff 	movq   $0xffffffffffffffff,-0x688(%rbp)
    7ab7:	ff ff ff ff 
    7abb:	48 c7 85 80 f9 ff ff 	movq   $0xffffffffffffffff,-0x680(%rbp)
    7ac2:	ff ff ff ff 
    7ac6:	48 89 85 88 f9 ff ff 	mov    %rax,-0x678(%rbp)
    7acd:	48 c7 85 90 f9 ff ff 	movq   $0xffffffffffffffff,-0x670(%rbp)
    7ad4:	ff ff ff ff 
    7ad8:	c7 85 f0 f8 ff ff 01 	movl   $0x1,-0x710(%rbp)
    7adf:	00 00 00 
    7ae2:	48 8d 85 e0 fa ff ff 	lea    -0x520(%rbp),%rax
    7ae9:	48 8d 15 b0 25 01 00 	lea    0x125b0(%rip),%rdx        # 1a0a0 <g_2872+0x20>
    7af0:	b9 a0 00 00 00       	mov    $0xa0,%ecx
    7af5:	48 89 c7             	mov    %rax,%rdi
    7af8:	48 89 d6             	mov    %rdx,%rsi
    7afb:	f3 48 a5             	rep movsq %ds:(%rsi),%es:(%rdi)
    7afe:	48 b8 fa 27 35 02 d1 	movabs $0x45fc0ad1023527fa,%rax
    7b05:	0a fc 45 
    7b08:	48 89 85 18 f9 ff ff 	mov    %rax,-0x6e8(%rbp)
    7b0f:	c7 85 e0 f8 ff ff 00 	movl   $0x0,-0x720(%rbp)
    7b16:	00 00 00 
    7b19:	eb 1a                	jmp    7b35 <func_1+0x380>
    7b1b:	8b 85 e0 f8 ff ff    	mov    -0x720(%rbp),%eax
    7b21:	48 98                	cltq   
    7b23:	c7 84 85 40 f9 ff ff 	movl   $0x1,-0x6c0(%rbp,%rax,4)
    7b2a:	01 00 00 00 
    7b2e:	83 85 e0 f8 ff ff 01 	addl   $0x1,-0x720(%rbp)
    7b35:	83 bd e0 f8 ff ff 04 	cmpl   $0x4,-0x720(%rbp)
    7b3c:	7e dd                	jle    7b1b <func_1+0x366>
    7b3e:	c7 05 1c 86 01 00 08 	movl   $0x8,0x1861c(%rip)        # 20164 <g_7>
    7b45:	00 00 00 
    7b48:	e9 87 00 00 00       	jmpq   7bd4 <func_1+0x41f>
    7b4d:	48 8d 85 f8 f8 ff ff 	lea    -0x708(%rbp),%rax
    7b54:	48 89 85 20 f9 ff ff 	mov    %rax,-0x6e0(%rbp)
    7b5b:	48 8d 05 12 8c 01 00 	lea    0x18c12(%rip),%rax        # 20774 <g_3409>
    7b62:	48 89 85 28 f9 ff ff 	mov    %rax,-0x6d8(%rbp)
    7b69:	c6 85 dc f8 ff ff b3 	movb   $0xb3,-0x724(%rbp)
    7b70:	0f b6 85 dd f8 ff ff 	movzbl -0x723(%rbp),%eax
    7b77:	83 e0 c0             	and    $0xffffffc0,%eax
    7b7a:	88 85 dd f8 ff ff    	mov    %al,-0x723(%rbp)
    7b80:	48 8d 05 c1 96 01 00 	lea    0x196c1(%rip),%rax        # 21248 <g_1578>
    7b87:	48 89 85 00 f9 ff ff 	mov    %rax,-0x700(%rbp)
    7b8e:	48 8d 85 00 f9 ff ff 	lea    -0x700(%rbp),%rax
    7b95:	48 89 85 30 f9 ff ff 	mov    %rax,-0x6d0(%rbp)
    7b9c:	48 8d 05 75 a4 01 00 	lea    0x1a475(%rip),%rax        # 22018 <g_2677>
    7ba3:	48 89 85 38 f9 ff ff 	mov    %rax,-0x6c8(%rbp)
    7baa:	c7 85 f4 f8 ff ff 23 	movl   $0x79da5123,-0x70c(%rbp)
    7bb1:	51 da 79 
    7bb4:	48 8b 95 f8 f8 ff ff 	mov    -0x708(%rbp),%rdx
    7bbb:	48 8b 85 20 f9 ff ff 	mov    -0x6e0(%rbp),%rax
    7bc2:	48 89 10             	mov    %rdx,(%rax)
    7bc5:	8b 05 99 85 01 00    	mov    0x18599(%rip),%eax        # 20164 <g_7>
    7bcb:	83 e8 01             	sub    $0x1,%eax
    7bce:	89 05 90 85 01 00    	mov    %eax,0x18590(%rip)        # 20164 <g_7>
    7bd4:	8b 05 8a 85 01 00    	mov    0x1858a(%rip),%eax        # 20164 <g_7>
    7bda:	83 f8 ff             	cmp    $0xffffffff,%eax
    7bdd:	0f 85 6a ff ff ff    	jne    7b4d <func_1+0x398>
    7be3:	48 83 ad 18 f9 ff ff 	subq   $0x1,-0x6e8(%rbp)
    7bea:	01 
    7beb:	48 8b 05 66 92 01 00 	mov    0x19266(%rip),%rax        # 20e58 <g_580>
    7bf2:	8b 18                	mov    (%rax),%ebx
    7bf4:	48 8b 05 0d a6 01 00 	mov    0x1a60d(%rip),%rax        # 22208 <g_3134>
    7bfb:	48 8b 00             	mov    (%rax),%rax
    7bfe:	48 8b 00             	mov    (%rax),%rax
    7c01:	66 c7 00 fc ff       	movw   $0xfffc,(%rax)
    7c06:	48 8b 05 23 96 01 00 	mov    0x19623(%rip),%rax        # 21230 <g_1565>
    7c0d:	48 8b 00             	mov    (%rax),%rax
    7c10:	0f b6 00             	movzbl (%rax),%eax
    7c13:	89 c2                	mov    %eax,%edx
    7c15:	48 8b 85 10 f9 ff ff 	mov    -0x6f0(%rbp),%rax
    7c1c:	8b 00                	mov    (%rax),%eax
    7c1e:	09 d0                	or     %edx,%eax
    7c20:	0f be d0             	movsbl %al,%edx
    7c23:	48 8b 05 1e a8 01 00 	mov    0x1a81e(%rip),%rax        # 22448 <g_3653>
    7c2a:	0f b6 00             	movzbl (%rax),%eax
    7c2d:	0f be c0             	movsbl %al,%eax
    7c30:	89 d6                	mov    %edx,%esi
    7c32:	89 c7                	mov    %eax,%edi
    7c34:	e8 f8 e5 ff ff       	callq  6231 <safe_mod_func_int8_t_s_s>
    7c39:	48 8b 85 08 f9 ff ff 	mov    -0x6f8(%rbp),%rax
    7c40:	48 8b 00             	mov    (%rax),%rax
    7c43:	8b 00                	mov    (%rax),%eax
    7c45:	0f be d0             	movsbl %al,%edx
    7c48:	48 8b 05 11 92 01 00 	mov    0x19211(%rip),%rax        # 20e60 <g_579>
    7c4f:	48 8b 00             	mov    (%rax),%rax
    7c52:	8b 08                	mov    (%rax),%ecx
    7c54:	48 8b 05 cd 95 01 00 	mov    0x195cd(%rip),%rax        # 21228 <g_1566>
    7c5b:	0f b6 00             	movzbl (%rax),%eax
    7c5e:	3c 7a                	cmp    $0x7a,%al
    7c60:	0f 95 c0             	setne  %al
    7c63:	0f b6 c0             	movzbl %al,%eax
    7c66:	39 c1                	cmp    %eax,%ecx
    7c68:	0f 96 c0             	setbe  %al
    7c6b:	0f b6 c0             	movzbl %al,%eax
    7c6e:	89 d6                	mov    %edx,%esi
    7c70:	89 c7                	mov    %eax,%edi
    7c72:	e8 f3 e5 ff ff       	callq  626a <safe_div_func_int8_t_s_s>
    7c77:	0f be d0             	movsbl %al,%edx
    7c7a:	48 8b 85 10 f9 ff ff 	mov    -0x6f0(%rbp),%rax
    7c81:	8b 00                	mov    (%rax),%eax
    7c83:	39 c2                	cmp    %eax,%edx
    7c85:	0f 94 c0             	sete   %al
    7c88:	0f b6 c0             	movzbl %al,%eax
    7c8b:	be ff ff ff ff       	mov    $0xffffffff,%esi
    7c90:	89 c7                	mov    %eax,%edi
    7c92:	e8 1f e9 ff ff       	callq  65b6 <safe_add_func_int32_t_s_s>
    7c97:	48 98                	cltq   
    7c99:	48 be 7c 30 29 44 2e 	movabs $0xed71f32e4429307c,%rsi
    7ca0:	f3 71 ed 
    7ca3:	48 89 c7             	mov    %rax,%rdi
    7ca6:	e8 09 ed ff ff       	callq  69b4 <safe_mod_func_int64_t_s_s>
    7cab:	48 8b 05 4e 96 01 00 	mov    0x1964e(%rip),%rax        # 21300 <g_1782>
    7cb2:	0f b7 00             	movzwl (%rax),%eax
    7cb5:	66 85 c0             	test   %ax,%ax
    7cb8:	0f 94 c0             	sete   %al
    7cbb:	0f b6 c0             	movzbl %al,%eax
    7cbe:	89 de                	mov    %ebx,%esi
    7cc0:	89 c7                	mov    %eax,%edi
    7cc2:	e8 f1 f1 ff ff       	callq  6eb8 <safe_add_func_uint32_t_u_u>
    7cc7:	48 8b 15 12 a3 01 00 	mov    0x1a312(%rip),%rdx        # 21fe0 <g_2529>
    7cce:	8b 12                	mov    (%rdx),%edx
    7cd0:	21 c2                	and    %eax,%edx
    7cd2:	48 8b 05 07 a3 01 00 	mov    0x1a307(%rip),%rax        # 21fe0 <g_2529>
    7cd9:	89 10                	mov    %edx,(%rax)
    7cdb:	48 8b 05 26 8b 01 00 	mov    0x18b26(%rip),%rax        # 20808 <g_3772>
    7ce2:	48 8b 5d e8          	mov    -0x18(%rbp),%rbx
    7ce6:	64 48 33 1c 25 28 00 	xor    %fs:0x28,%rbx
    7ced:	00 00 
    7cef:	74 05                	je     7cf6 <func_1+0x541>
    7cf1:	e8 7a e3 ff ff       	callq  6070 <__stack_chk_fail@plt>
    7cf6:	48 81 c4 28 07 00 00 	add    $0x728,%rsp
    7cfd:	5b                   	pop    %rbx
    7cfe:	5d                   	pop    %rbp
    7cff:	c3                   	retq   

0000000000007d00 <func_19>:
    7d00:	f3 0f 1e fa          	endbr64 
    7d04:	55                   	push   %rbp
    7d05:	48 89 e5             	mov    %rsp,%rbp
    7d08:	48 81 ec 80 07 00 00 	sub    $0x780,%rsp
    7d0f:	89 bd 9c f8 ff ff    	mov    %edi,-0x764(%rbp)
    7d15:	48 89 b5 90 f8 ff ff 	mov    %rsi,-0x770(%rbp)
    7d1c:	48 89 95 88 f8 ff ff 	mov    %rdx,-0x778(%rbp)
    7d23:	64 48 8b 04 25 28 00 	mov    %fs:0x28,%rax
    7d2a:	00 00 
    7d2c:	48 89 45 f8          	mov    %rax,-0x8(%rbp)
    7d30:	31 c0                	xor    %eax,%eax
    7d32:	48 8d 05 ff 85 01 00 	lea    0x185ff(%rip),%rax        # 20338 <g_159>
    7d39:	48 89 85 18 f9 ff ff 	mov    %rax,-0x6e8(%rbp)
    7d40:	48 8d 05 e3 85 01 00 	lea    0x185e3(%rip),%rax        # 2032a <g_145>
    7d47:	48 89 85 20 f9 ff ff 	mov    %rax,-0x6e0(%rbp)
    7d4e:	c7 85 bc f8 ff ff fa 	movl   $0xfffffffa,-0x744(%rbp)
    7d55:	ff ff ff 
    7d58:	c7 85 c0 f8 ff ff ad 	movl   $0xe254ddad,-0x740(%rbp)
    7d5f:	dd 54 e2 
    7d62:	c7 85 c4 f8 ff ff ff 	movl   $0xffffffff,-0x73c(%rbp)
    7d69:	ff ff ff 
    7d6c:	c7 85 c8 f8 ff ff f9 	movl   $0xfffffff9,-0x738(%rbp)
    7d73:	ff ff ff 
    7d76:	c7 85 cc f8 ff ff 12 	movl   $0x64ff8c12,-0x734(%rbp)
    7d7d:	8c ff 64 
    7d80:	48 8d 05 b1 97 01 00 	lea    0x197b1(%rip),%rax        # 21538 <g_1825+0x118>
    7d87:	48 89 85 f8 f8 ff ff 	mov    %rax,-0x708(%rbp)
    7d8e:	48 8d 85 f8 f8 ff ff 	lea    -0x708(%rbp),%rax
    7d95:	48 89 85 28 f9 ff ff 	mov    %rax,-0x6d8(%rbp)
    7d9c:	48 c7 85 30 f9 ff ff 	movq   $0x0,-0x6d0(%rbp)
    7da3:	00 00 00 00 
    7da7:	48 8d 05 32 a2 01 00 	lea    0x1a232(%rip),%rax        # 21fe0 <g_2529>
    7dae:	48 89 85 38 f9 ff ff 	mov    %rax,-0x6c8(%rbp)
    7db5:	48 8d 05 28 87 01 00 	lea    0x18728(%rip),%rax        # 204e4 <g_2058>
    7dbc:	48 89 85 40 f9 ff ff 	mov    %rax,-0x6c0(%rbp)
    7dc3:	c6 85 a9 f8 ff ff 11 	movb   $0x11,-0x757(%rbp)
    7dca:	48 c7 85 48 f9 ff ff 	movq   $0x0,-0x6b8(%rbp)
    7dd1:	00 00 00 00 
    7dd5:	48 8d 85 90 fa ff ff 	lea    -0x570(%rbp),%rax
    7ddc:	48 83 c0 28          	add    $0x28,%rax
    7de0:	48 89 85 50 f9 ff ff 	mov    %rax,-0x6b0(%rbp)
    7de7:	48 8d 05 4a 94 01 00 	lea    0x1944a(%rip),%rax        # 21238 <g_1564>
    7dee:	48 89 85 58 f9 ff ff 	mov    %rax,-0x6a8(%rbp)
    7df5:	48 8d 85 90 fc ff ff 	lea    -0x370(%rbp),%rax
    7dfc:	48 8d 15 1d 8a 01 00 	lea    0x18a1d(%rip),%rdx        # 20820 <g_3772+0x18>
    7e03:	b9 6c 00 00 00       	mov    $0x6c,%ecx
    7e08:	48 89 c7             	mov    %rax,%rdi
    7e0b:	48 89 d6             	mov    %rdx,%rsi
    7e0e:	f3 48 a5             	rep movsq %ds:(%rsi),%es:(%rdi)
    7e11:	48 8d 85 90 fc ff ff 	lea    -0x370(%rbp),%rax
    7e18:	48 83 c0 40          	add    $0x40,%rax
    7e1c:	48 89 85 60 f9 ff ff 	mov    %rax,-0x6a0(%rbp)
    7e23:	c7 85 d0 f8 ff ff ff 	movl   $0xffffffff,-0x730(%rbp)
    7e2a:	ff ff ff 
    7e2d:	48 8d 05 fc aa 01 00 	lea    0x1aafc(%rip),%rax        # 22930 <g_1585>
    7e34:	48 89 85 00 f9 ff ff 	mov    %rax,-0x700(%rbp)
    7e3b:	48 8d 85 00 f9 ff ff 	lea    -0x700(%rbp),%rax
    7e42:	48 89 85 08 f9 ff ff 	mov    %rax,-0x6f8(%rbp)
    7e49:	48 8d 85 08 f9 ff ff 	lea    -0x6f8(%rbp),%rax
    7e50:	48 89 85 68 f9 ff ff 	mov    %rax,-0x698(%rbp)
    7e57:	66 c7 85 ac f8 ff ff 	movw   $0xfffa,-0x754(%rbp)
    7e5e:	fa ff 
    7e60:	66 c7 85 ae f8 ff ff 	movw   $0x37fd,-0x752(%rbp)
    7e67:	fd 37 
    7e69:	48 c7 85 70 f9 ff ff 	movq   $0x0,-0x690(%rbp)
    7e70:	00 00 00 00 
    7e74:	c7 85 d4 f8 ff ff f7 	movl   $0xfffffff7,-0x72c(%rbp)
    7e7b:	ff ff ff 
    7e7e:	48 8d 05 eb 8f 01 00 	lea    0x18feb(%rip),%rax        # 20e70 <g_695>
    7e85:	48 89 85 78 f9 ff ff 	mov    %rax,-0x688(%rbp)
    7e8c:	c7 85 b0 f8 ff ff 00 	movl   $0x0,-0x750(%rbp)
    7e93:	00 00 00 
    7e96:	eb 1b                	jmp    7eb3 <func_19+0x1b3>
    7e98:	8b 85 b0 f8 ff ff    	mov    -0x750(%rbp),%eax
    7e9e:	48 98                	cltq   
    7ea0:	48 c7 84 c5 90 fa ff 	movq   $0x0,-0x570(%rbp,%rax,8)
    7ea7:	ff 00 00 00 00 
    7eac:	83 85 b0 f8 ff ff 01 	addl   $0x1,-0x750(%rbp)
    7eb3:	83 bd b0 f8 ff ff 08 	cmpl   $0x8,-0x750(%rbp)
    7eba:	7e dc                	jle    7e98 <func_19+0x198>
    7ebc:	c7 85 b0 f8 ff ff 00 	movl   $0x0,-0x750(%rbp)
    7ec3:	00 00 00 
    7ec6:	eb 1a                	jmp    7ee2 <func_19+0x1e2>
    7ec8:	8b 85 b0 f8 ff ff    	mov    -0x750(%rbp),%eax
    7ece:	48 98                	cltq   
    7ed0:	c7 84 85 10 fa ff ff 	movl   $0x0,-0x5f0(%rbp,%rax,4)
    7ed7:	00 00 00 00 
    7edb:	83 85 b0 f8 ff ff 01 	addl   $0x1,-0x750(%rbp)
    7ee2:	83 bd b0 f8 ff ff 05 	cmpl   $0x5,-0x750(%rbp)
    7ee9:	7e dd                	jle    7ec8 <func_19+0x1c8>
    7eeb:	c7 85 b0 f8 ff ff 00 	movl   $0x0,-0x750(%rbp)
    7ef2:	00 00 00 
    7ef5:	eb 1a                	jmp    7f11 <func_19+0x211>
    7ef7:	8b 85 b0 f8 ff ff    	mov    -0x750(%rbp),%eax
    7efd:	48 98                	cltq   
    7eff:	c7 84 85 e4 f9 ff ff 	movl   $0x780c1472,-0x61c(%rbp,%rax,4)
    7f06:	72 14 0c 78 
    7f0a:	83 85 b0 f8 ff ff 01 	addl   $0x1,-0x750(%rbp)
    7f11:	83 bd b0 f8 ff ff 02 	cmpl   $0x2,-0x750(%rbp)
    7f18:	7e dd                	jle    7ef7 <func_19+0x1f7>
    7f1a:	0f b6 05 a4 85 01 00 	movzbl 0x185a4(%rip),%eax        # 204c5 <g_1403>
    7f21:	0f be d0             	movsbl %al,%edx
    7f24:	8b 05 3a 82 01 00    	mov    0x1823a(%rip),%eax        # 20164 <g_7>
    7f2a:	83 f8 01             	cmp    $0x1,%eax
    7f2d:	0f 94 c0             	sete   %al
    7f30:	0f b6 c0             	movzbl %al,%eax
    7f33:	89 d6                	mov    %edx,%esi
    7f35:	89 c7                	mov    %eax,%edi
    7f37:	e8 98 e2 ff ff       	callq  61d4 <safe_add_func_int8_t_s_s>
    7f3c:	84 c0                	test   %al,%al
    7f3e:	74 17                	je     7f57 <func_19+0x257>
    7f40:	48 8b 85 a8 fa ff ff 	mov    -0x558(%rbp),%rax
    7f47:	48 83 e8 01          	sub    $0x1,%rax
    7f4b:	48 89 85 a8 fa ff ff 	mov    %rax,-0x558(%rbp)
    7f52:	e9 10 02 00 00       	jmpq   8167 <func_19+0x467>
    7f57:	48 b8 e7 ff e7 ff e7 	movabs $0xffe7ffe7ffe7ffe7,%rax
    7f5e:	ff e7 ff 
    7f61:	48 89 45 f0          	mov    %rax,-0x10(%rbp)
    7f65:	48 8d 05 dc 92 01 00 	lea    0x192dc(%rip),%rax        # 21248 <g_1578>
    7f6c:	48 89 85 80 f9 ff ff 	mov    %rax,-0x680(%rbp)
    7f73:	48 b8 a8 98 5d f0 de 	movabs $0x6db945def05d98a8,%rax
    7f7a:	45 b9 6d 
    7f7d:	48 89 85 88 f9 ff ff 	mov    %rax,-0x678(%rbp)
    7f84:	48 c7 85 90 f9 ff ff 	movq   $0x0,-0x670(%rbp)
    7f8b:	00 00 00 00 
    7f8f:	48 8d 05 36 82 01 00 	lea    0x18236(%rip),%rax        # 201cc <g_43>
    7f96:	48 89 85 98 f9 ff ff 	mov    %rax,-0x668(%rbp)
    7f9d:	c7 85 d8 f8 ff ff 79 	movl   $0xc48b779,-0x728(%rbp)
    7fa4:	b7 48 0c 
    7fa7:	c7 85 dc f8 ff ff 46 	movl   $0xcd7a4b46,-0x724(%rbp)
    7fae:	4b 7a cd 
    7fb1:	c6 85 aa f8 ff ff 00 	movb   $0x0,-0x756(%rbp)
    7fb8:	c7 85 e0 f8 ff ff 00 	movl   $0x0,-0x720(%rbp)
    7fbf:	00 00 00 
    7fc2:	c7 85 e4 f8 ff ff ff 	movl   $0xffffffff,-0x71c(%rbp)
    7fc9:	ff ff ff 
    7fcc:	48 8d 05 65 92 01 00 	lea    0x19265(%rip),%rax        # 21238 <g_1564>
    7fd3:	48 89 85 a0 f9 ff ff 	mov    %rax,-0x660(%rbp)
    7fda:	48 c7 85 a8 f9 ff ff 	movq   $0x0,-0x658(%rbp)
    7fe1:	00 00 00 00 
    7fe5:	48 8d 05 14 a4 01 00 	lea    0x1a414(%rip),%rax        # 22400 <g_3295>
    7fec:	48 89 85 b0 f9 ff ff 	mov    %rax,-0x650(%rbp)
    7ff3:	48 b8 42 07 f5 6c 13 	movabs $0x92146e136cf50742,%rax
    7ffa:	6e 14 92 
    7ffd:	48 89 85 b8 f9 ff ff 	mov    %rax,-0x648(%rbp)
    8004:	48 c7 85 c0 f9 ff ff 	movq   $0x1,-0x640(%rbp)
    800b:	01 00 00 00 
    800f:	48 8d 05 1a a9 01 00 	lea    0x1a91a(%rip),%rax        # 22930 <g_1585>
    8016:	48 89 85 c8 f9 ff ff 	mov    %rax,-0x638(%rbp)
    801d:	48 c7 85 d0 f9 ff ff 	movq   $0x0,-0x630(%rbp)
    8024:	00 00 00 00 
    8028:	48 8d 05 01 87 01 00 	lea    0x18701(%rip),%rax        # 20730 <g_2594+0x10>
    802f:	48 89 85 30 fa ff ff 	mov    %rax,-0x5d0(%rbp)
    8036:	48 8d 05 f3 86 01 00 	lea    0x186f3(%rip),%rax        # 20730 <g_2594+0x10>
    803d:	48 89 85 38 fa ff ff 	mov    %rax,-0x5c8(%rbp)
    8044:	48 8d 05 e5 86 01 00 	lea    0x186e5(%rip),%rax        # 20730 <g_2594+0x10>
    804b:	48 89 85 40 fa ff ff 	mov    %rax,-0x5c0(%rbp)
    8052:	48 8d 05 d7 86 01 00 	lea    0x186d7(%rip),%rax        # 20730 <g_2594+0x10>
    8059:	48 89 85 48 fa ff ff 	mov    %rax,-0x5b8(%rbp)
    8060:	48 8d 05 c9 86 01 00 	lea    0x186c9(%rip),%rax        # 20730 <g_2594+0x10>
    8067:	48 89 85 50 fa ff ff 	mov    %rax,-0x5b0(%rbp)
    806e:	c6 85 ab f8 ff ff 01 	movb   $0x1,-0x755(%rbp)
    8075:	c7 85 e8 f8 ff ff e8 	movl   $0x990d79e8,-0x718(%rbp)
    807c:	79 0d 99 
    807f:	c7 85 ec f8 ff ff 49 	movl   $0xcdcfed49,-0x714(%rbp)
    8086:	ed cf cd 
    8089:	48 8d 85 e0 fa ff ff 	lea    -0x520(%rbp),%rax
    8090:	48 8d 15 09 25 01 00 	lea    0x12509(%rip),%rdx        # 1a5a0 <g_2872+0x520>
    8097:	b9 36 00 00 00       	mov    $0x36,%ecx
    809c:	48 89 c7             	mov    %rax,%rdi
    809f:	48 89 d6             	mov    %rdx,%rsi
    80a2:	f3 48 a5             	rep movsq %ds:(%rsi),%es:(%rdi)
    80a5:	48 8d 05 5c 91 01 00 	lea    0x1915c(%rip),%rax        # 21208 <g_1165>
    80ac:	48 89 85 10 f9 ff ff 	mov    %rax,-0x6f0(%rbp)
    80b3:	c7 85 f0 f8 ff ff 51 	movl   $0xad195251,-0x710(%rbp)
    80ba:	52 19 ad 
    80bd:	48 c7 85 d8 f9 ff ff 	movq   $0x0,-0x628(%rbp)
    80c4:	00 00 00 00 
    80c8:	c7 85 f4 f8 ff ff 22 	movl   $0x11016422,-0x70c(%rbp)
    80cf:	64 01 11 
    80d2:	c7 85 b4 f8 ff ff 00 	movl   $0x0,-0x74c(%rbp)
    80d9:	00 00 00 
    80dc:	eb 1a                	jmp    80f8 <func_19+0x3f8>
    80de:	8b 85 b4 f8 ff ff    	mov    -0x74c(%rbp),%eax
    80e4:	48 98                	cltq   
    80e6:	c7 84 85 f0 f9 ff ff 	movl   $0xfffffffe,-0x610(%rbp,%rax,4)
    80ed:	fe ff ff ff 
    80f1:	83 85 b4 f8 ff ff 01 	addl   $0x1,-0x74c(%rbp)
    80f8:	83 bd b4 f8 ff ff 04 	cmpl   $0x4,-0x74c(%rbp)
    80ff:	7e dd                	jle    80de <func_19+0x3de>
    8101:	c7 85 b4 f8 ff ff 00 	movl   $0x0,-0x74c(%rbp)
    8108:	00 00 00 
    810b:	eb 51                	jmp    815e <func_19+0x45e>
    810d:	c7 85 b8 f8 ff ff 00 	movl   $0x0,-0x748(%rbp)
    8114:	00 00 00 
    8117:	eb 35                	jmp    814e <func_19+0x44e>
    8119:	8b 85 b8 f8 ff ff    	mov    -0x748(%rbp),%eax
    811f:	48 63 c8             	movslq %eax,%rcx
    8122:	8b 85 b4 f8 ff ff    	mov    -0x74c(%rbp),%eax
    8128:	48 63 d0             	movslq %eax,%rdx
    812b:	48 89 d0             	mov    %rdx,%rax
    812e:	48 01 c0             	add    %rax,%rax
    8131:	48 01 d0             	add    %rdx,%rax
    8134:	48 8d 14 08          	lea    (%rax,%rcx,1),%rdx
    8138:	48 8d 85 10 f9 ff ff 	lea    -0x6f0(%rbp),%rax
    813f:	48 89 84 d5 60 fa ff 	mov    %rax,-0x5a0(%rbp,%rdx,8)
    8146:	ff 
    8147:	83 85 b8 f8 ff ff 01 	addl   $0x1,-0x748(%rbp)
    814e:	83 bd b8 f8 ff ff 02 	cmpl   $0x2,-0x748(%rbp)
    8155:	7e c2                	jle    8119 <func_19+0x419>
    8157:	83 85 b4 f8 ff ff 01 	addl   $0x1,-0x74c(%rbp)
    815e:	83 bd b4 f8 ff ff 01 	cmpl   $0x1,-0x74c(%rbp)
    8165:	7e a6                	jle    810d <func_19+0x40d>
    8167:	48 8b 85 90 f8 ff ff 	mov    -0x770(%rbp),%rax
    816e:	48 8b 4d f8          	mov    -0x8(%rbp),%rcx
    8172:	64 48 33 0c 25 28 00 	xor    %fs:0x28,%rcx
    8179:	00 00 
    817b:	74 05                	je     8182 <func_19+0x482>
    817d:	e8 ee de ff ff       	callq  6070 <__stack_chk_fail@plt>
    8182:	c9                   	leaveq 
    8183:	c3                   	retq   

0000000000008184 <func_23>:
    8184:	f3 0f 1e fa          	endbr64 
    8188:	55                   	push   %rbp
    8189:	48 89 e5             	mov    %rsp,%rbp
    818c:	48 81 ec 00 10 00 00 	sub    $0x1000,%rsp
    8193:	48 83 0c 24 00       	orq    $0x0,(%rsp)
    8198:	48 81 ec d0 0d 00 00 	sub    $0xdd0,%rsp
    819f:	48 89 bd 38 e2 ff ff 	mov    %rdi,-0x1dc8(%rbp)
    81a6:	48 89 b5 30 e2 ff ff 	mov    %rsi,-0x1dd0(%rbp)
    81ad:	64 48 8b 04 25 28 00 	mov    %fs:0x28,%rax
    81b4:	00 00 
    81b6:	48 89 45 f8          	mov    %rax,-0x8(%rbp)
    81ba:	31 c0                	xor    %eax,%eax
    81bc:	48 c7 85 d8 e2 ff ff 	movq   $0xfffffffffffffff6,-0x1d28(%rbp)
    81c3:	f6 ff ff ff 
    81c7:	c6 85 58 e2 ff ff 00 	movb   $0x0,-0x1da8(%rbp)
    81ce:	0f b6 85 59 e2 ff ff 	movzbl -0x1da7(%rbp),%eax
    81d5:	83 e0 c0             	and    $0xffffffc0,%eax
    81d8:	88 85 59 e2 ff ff    	mov    %al,-0x1da7(%rbp)
    81de:	c7 85 70 e2 ff ff 06 	movl   $0x6,-0x1d90(%rbp)
    81e5:	00 00 00 
    81e8:	c7 85 f0 e4 ff ff a9 	movl   $0xa2372a9,-0x1b10(%rbp)
    81ef:	72 23 0a 
    81f2:	c7 85 f4 e4 ff ff a9 	movl   $0xa2372a9,-0x1b0c(%rbp)
    81f9:	72 23 0a 
    81fc:	c7 85 f8 e4 ff ff e2 	movl   $0x881e2ae2,-0x1b08(%rbp)
    8203:	2a 1e 88 
    8206:	c7 85 fc e4 ff ff a9 	movl   $0xa2372a9,-0x1b04(%rbp)
    820d:	72 23 0a 
    8210:	c7 85 00 e5 ff ff a9 	movl   $0xa2372a9,-0x1b00(%rbp)
    8217:	72 23 0a 
    821a:	c7 85 04 e5 ff ff e2 	movl   $0x881e2ae2,-0x1afc(%rbp)
    8221:	2a 1e 88 
    8224:	c7 85 08 e5 ff ff a9 	movl   $0xa2372a9,-0x1af8(%rbp)
    822b:	72 23 0a 
    822e:	48 c7 85 60 e3 ff ff 	movq   $0x0,-0x1ca0(%rbp)
    8235:	00 00 00 00 
    8239:	48 c7 85 e0 e2 ff ff 	movq   $0x0,-0x1d20(%rbp)
    8240:	00 00 00 00 
    8244:	48 8d 85 e0 e2 ff ff 	lea    -0x1d20(%rbp),%rax
    824b:	48 89 85 e8 e2 ff ff 	mov    %rax,-0x1d18(%rbp)
    8252:	48 8d 85 e8 e2 ff ff 	lea    -0x1d18(%rbp),%rax
    8259:	48 89 85 f0 e2 ff ff 	mov    %rax,-0x1d10(%rbp)
    8260:	48 8d 85 f0 e2 ff ff 	lea    -0x1d10(%rbp),%rax
    8267:	48 89 85 f8 e2 ff ff 	mov    %rax,-0x1d08(%rbp)
    826e:	48 8d 85 f8 e2 ff ff 	lea    -0x1d08(%rbp),%rax
    8275:	48 89 85 68 e3 ff ff 	mov    %rax,-0x1c98(%rbp)
    827c:	48 c7 85 70 e3 ff ff 	movq   $0xffffffffffffffff,-0x1c90(%rbp)
    8283:	ff ff ff ff 
    8287:	48 8d 05 ba 8f 01 00 	lea    0x18fba(%rip),%rax        # 21248 <g_1578>
    828e:	48 89 85 00 e3 ff ff 	mov    %rax,-0x1d00(%rbp)
    8295:	66 c7 85 48 e2 ff ff 	movw   $0xcf94,-0x1db8(%rbp)
    829c:	94 cf 
    829e:	c6 85 42 e2 ff ff ab 	movb   $0xab,-0x1dbe(%rbp)
    82a5:	c6 85 43 e2 ff ff 00 	movb   $0x0,-0x1dbd(%rbp)
    82ac:	48 8d 85 20 ea ff ff 	lea    -0x15e0(%rbp),%rax
    82b3:	48 8d 15 a6 24 01 00 	lea    0x124a6(%rip),%rdx        # 1a760 <g_2872+0x6e0>
    82ba:	b9 31 00 00 00       	mov    $0x31,%ecx
    82bf:	48 89 c7             	mov    %rax,%rdi
    82c2:	48 89 d6             	mov    %rdx,%rsi
    82c5:	f3 48 a5             	rep movsq %ds:(%rsi),%es:(%rdi)
    82c8:	48 8d 05 99 8b 01 00 	lea    0x18b99(%rip),%rax        # 20e68 <g_696>
    82cf:	48 89 85 78 e3 ff ff 	mov    %rax,-0x1c88(%rbp)
    82d6:	48 8d 05 93 8b 01 00 	lea    0x18b93(%rip),%rax        # 20e70 <g_695>
    82dd:	48 89 85 08 e3 ff ff 	mov    %rax,-0x1cf8(%rbp)
    82e4:	48 8d 85 08 e3 ff ff 	lea    -0x1cf8(%rbp),%rax
    82eb:	48 89 85 80 e3 ff ff 	mov    %rax,-0x1c80(%rbp)
    82f2:	c7 85 74 e2 ff ff 07 	movl   $0x7,-0x1d8c(%rbp)
    82f9:	00 00 00 
    82fc:	48 c7 85 10 e3 ff ff 	movq   $0x0,-0x1cf0(%rbp)
    8303:	00 00 00 00 
    8307:	48 8d 85 10 e3 ff ff 	lea    -0x1cf0(%rbp),%rax
    830e:	48 89 85 88 e3 ff ff 	mov    %rax,-0x1c78(%rbp)
    8315:	48 8d 05 80 81 01 00 	lea    0x18180(%rip),%rax        # 2049c <g_984+0xc>
    831c:	48 89 85 b0 eb ff ff 	mov    %rax,-0x1450(%rbp)
    8323:	48 8d 05 6e 81 01 00 	lea    0x1816e(%rip),%rax        # 20498 <g_984+0x8>
    832a:	48 89 85 b8 eb ff ff 	mov    %rax,-0x1448(%rbp)
    8331:	48 8d 05 70 7f 01 00 	lea    0x17f70(%rip),%rax        # 202a8 <g_77+0xc8>
    8338:	48 89 85 c0 eb ff ff 	mov    %rax,-0x1440(%rbp)
    833f:	48 8d 05 56 81 01 00 	lea    0x18156(%rip),%rax        # 2049c <g_984+0xc>
    8346:	48 89 85 c8 eb ff ff 	mov    %rax,-0x1438(%rbp)
    834d:	48 8d 05 10 7e 01 00 	lea    0x17e10(%rip),%rax        # 20164 <g_7>
    8354:	48 89 85 d0 eb ff ff 	mov    %rax,-0x1430(%rbp)
    835b:	48 8d 05 3a 81 01 00 	lea    0x1813a(%rip),%rax        # 2049c <g_984+0xc>
    8362:	48 89 85 d8 eb ff ff 	mov    %rax,-0x1428(%rbp)
    8369:	48 8d 05 f4 7d 01 00 	lea    0x17df4(%rip),%rax        # 20164 <g_7>
    8370:	48 89 85 e0 eb ff ff 	mov    %rax,-0x1420(%rbp)
    8377:	48 c7 85 e8 eb ff ff 	movq   $0x0,-0x1418(%rbp)
    837e:	00 00 00 00 
    8382:	48 8d 05 db 7d 01 00 	lea    0x17ddb(%rip),%rax        # 20164 <g_7>
    8389:	48 89 85 f0 eb ff ff 	mov    %rax,-0x1410(%rbp)
    8390:	48 8d 05 f9 80 01 00 	lea    0x180f9(%rip),%rax        # 20490 <g_984>
    8397:	48 89 85 f8 eb ff ff 	mov    %rax,-0x1408(%rbp)
    839e:	48 8d 05 03 7f 01 00 	lea    0x17f03(%rip),%rax        # 202a8 <g_77+0xc8>
    83a5:	48 89 85 00 ec ff ff 	mov    %rax,-0x1400(%rbp)
    83ac:	48 8d 05 f1 80 01 00 	lea    0x180f1(%rip),%rax        # 204a4 <g_988>
    83b3:	48 89 85 08 ec ff ff 	mov    %rax,-0x13f8(%rbp)
    83ba:	48 8d 05 db 80 01 00 	lea    0x180db(%rip),%rax        # 2049c <g_984+0xc>
    83c1:	48 89 85 10 ec ff ff 	mov    %rax,-0x13f0(%rbp)
    83c8:	48 c7 85 18 ec ff ff 	movq   $0x0,-0x13e8(%rbp)
    83cf:	00 00 00 00 
    83d3:	48 8d 05 b6 80 01 00 	lea    0x180b6(%rip),%rax        # 20490 <g_984>
    83da:	48 89 85 20 ec ff ff 	mov    %rax,-0x13e0(%rbp)
    83e1:	48 8d 85 f0 e4 ff ff 	lea    -0x1b10(%rbp),%rax
    83e8:	48 83 c0 0c          	add    $0xc,%rax
    83ec:	48 89 85 28 ec ff ff 	mov    %rax,-0x13d8(%rbp)
    83f3:	48 8d 05 a2 80 01 00 	lea    0x180a2(%rip),%rax        # 2049c <g_984+0xc>
    83fa:	48 89 85 30 ec ff ff 	mov    %rax,-0x13d0(%rbp)
    8401:	48 c7 85 38 ec ff ff 	movq   $0x0,-0x13c8(%rbp)
    8408:	00 00 00 00 
    840c:	48 c7 85 40 ec ff ff 	movq   $0x0,-0x13c0(%rbp)
    8413:	00 00 00 00 
    8417:	48 8d 05 46 7d 01 00 	lea    0x17d46(%rip),%rax        # 20164 <g_7>
    841e:	48 89 85 48 ec ff ff 	mov    %rax,-0x13b8(%rbp)
    8425:	48 8d 05 9c 7d 01 00 	lea    0x17d9c(%rip),%rax        # 201c8 <g_14>
    842c:	48 89 85 50 ec ff ff 	mov    %rax,-0x13b0(%rbp)
    8433:	48 8d 05 06 7e 01 00 	lea    0x17e06(%rip),%rax        # 20240 <g_77+0x60>
    843a:	48 89 85 58 ec ff ff 	mov    %rax,-0x13a8(%rbp)
    8441:	48 8d 05 e8 7d 01 00 	lea    0x17de8(%rip),%rax        # 20230 <g_77+0x50>
    8448:	48 89 85 60 ec ff ff 	mov    %rax,-0x13a0(%rbp)
    844f:	48 8d 05 42 80 01 00 	lea    0x18042(%rip),%rax        # 20498 <g_984+0x8>
    8456:	48 89 85 68 ec ff ff 	mov    %rax,-0x1398(%rbp)
    845d:	48 8d 05 dc 7d 01 00 	lea    0x17ddc(%rip),%rax        # 20240 <g_77+0x60>
    8464:	48 89 85 70 ec ff ff 	mov    %rax,-0x1390(%rbp)
    846b:	48 c7 85 78 ec ff ff 	movq   $0x0,-0x1388(%rbp)
    8472:	00 00 00 00 
    8476:	48 8d 05 53 7d 01 00 	lea    0x17d53(%rip),%rax        # 201d0 <g_50>
    847d:	48 89 85 80 ec ff ff 	mov    %rax,-0x1380(%rbp)
    8484:	48 8d 05 09 80 01 00 	lea    0x18009(%rip),%rax        # 20494 <g_984+0x4>
    848b:	48 89 85 88 ec ff ff 	mov    %rax,-0x1378(%rbp)
    8492:	48 8d 05 0b 80 01 00 	lea    0x1800b(%rip),%rax        # 204a4 <g_988>
    8499:	48 89 85 90 ec ff ff 	mov    %rax,-0x1370(%rbp)
    84a0:	48 8d 05 bd 7c 01 00 	lea    0x17cbd(%rip),%rax        # 20164 <g_7>
    84a7:	48 89 85 98 ec ff ff 	mov    %rax,-0x1368(%rbp)
    84ae:	48 8d 05 f3 7d 01 00 	lea    0x17df3(%rip),%rax        # 202a8 <g_77+0xc8>
    84b5:	48 89 85 a0 ec ff ff 	mov    %rax,-0x1360(%rbp)
    84bc:	48 c7 85 a8 ec ff ff 	movq   $0x0,-0x1358(%rbp)
    84c3:	00 00 00 00 
    84c7:	48 8d 05 76 7d 01 00 	lea    0x17d76(%rip),%rax        # 20244 <g_77+0x64>
    84ce:	48 89 85 b0 ec ff ff 	mov    %rax,-0x1350(%rbp)
    84d5:	48 8d 05 ec 7c 01 00 	lea    0x17cec(%rip),%rax        # 201c8 <g_14>
    84dc:	48 89 85 b8 ec ff ff 	mov    %rax,-0x1348(%rbp)
    84e3:	48 8d 05 de 7c 01 00 	lea    0x17cde(%rip),%rax        # 201c8 <g_14>
    84ea:	48 89 85 c0 ec ff ff 	mov    %rax,-0x1340(%rbp)
    84f1:	48 8d 05 4c 7d 01 00 	lea    0x17d4c(%rip),%rax        # 20244 <g_77+0x64>
    84f8:	48 89 85 c8 ec ff ff 	mov    %rax,-0x1338(%rbp)
    84ff:	48 8d 05 8e 7f 01 00 	lea    0x17f8e(%rip),%rax        # 20494 <g_984+0x4>
    8506:	48 89 85 d0 ec ff ff 	mov    %rax,-0x1330(%rbp)
    850d:	48 8d 05 84 7f 01 00 	lea    0x17f84(%rip),%rax        # 20498 <g_984+0x8>
    8514:	48 89 85 d8 ec ff ff 	mov    %rax,-0x1328(%rbp)
    851b:	48 8d 05 ae 7c 01 00 	lea    0x17cae(%rip),%rax        # 201d0 <g_50>
    8522:	48 89 85 e0 ec ff ff 	mov    %rax,-0x1320(%rbp)
    8529:	48 8d 05 00 7d 01 00 	lea    0x17d00(%rip),%rax        # 20230 <g_77+0x50>
    8530:	48 89 85 e8 ec ff ff 	mov    %rax,-0x1318(%rbp)
    8537:	48 c7 85 f0 ec ff ff 	movq   $0x0,-0x1310(%rbp)
    853e:	00 00 00 00 
    8542:	48 c7 85 f8 ec ff ff 	movq   $0x0,-0x1308(%rbp)
    8549:	00 00 00 00 
    854d:	48 8d 05 48 7f 01 00 	lea    0x17f48(%rip),%rax        # 2049c <g_984+0xc>
    8554:	48 89 85 00 ed ff ff 	mov    %rax,-0x1300(%rbp)
    855b:	48 8d 05 3a 7f 01 00 	lea    0x17f3a(%rip),%rax        # 2049c <g_984+0xc>
    8562:	48 89 85 08 ed ff ff 	mov    %rax,-0x12f8(%rbp)
    8569:	48 8d 05 58 7c 01 00 	lea    0x17c58(%rip),%rax        # 201c8 <g_14>
    8570:	48 89 85 10 ed ff ff 	mov    %rax,-0x12f0(%rbp)
    8577:	48 8d 05 2a 7d 01 00 	lea    0x17d2a(%rip),%rax        # 202a8 <g_77+0xc8>
    857e:	48 89 85 18 ed ff ff 	mov    %rax,-0x12e8(%rbp)
    8585:	48 8d 05 d8 7b 01 00 	lea    0x17bd8(%rip),%rax        # 20164 <g_7>
    858c:	48 89 85 20 ed ff ff 	mov    %rax,-0x12e0(%rbp)
    8593:	48 8d 05 02 7f 01 00 	lea    0x17f02(%rip),%rax        # 2049c <g_984+0xc>
    859a:	48 89 85 28 ed ff ff 	mov    %rax,-0x12d8(%rbp)
    85a1:	48 8d 05 20 7c 01 00 	lea    0x17c20(%rip),%rax        # 201c8 <g_14>
    85a8:	48 89 85 30 ed ff ff 	mov    %rax,-0x12d0(%rbp)
    85af:	48 8d 05 1a 7c 01 00 	lea    0x17c1a(%rip),%rax        # 201d0 <g_50>
    85b6:	48 89 85 38 ed ff ff 	mov    %rax,-0x12c8(%rbp)
    85bd:	48 8d 05 44 7d 01 00 	lea    0x17d44(%rip),%rax        # 20308 <g_77+0x128>
    85c4:	48 89 85 40 ed ff ff 	mov    %rax,-0x12c0(%rbp)
    85cb:	48 8d 05 92 7b 01 00 	lea    0x17b92(%rip),%rax        # 20164 <g_7>
    85d2:	48 89 85 48 ed ff ff 	mov    %rax,-0x12b8(%rbp)
    85d9:	48 8d 05 50 7c 01 00 	lea    0x17c50(%rip),%rax        # 20230 <g_77+0x50>
    85e0:	48 89 85 50 ed ff ff 	mov    %rax,-0x12b0(%rbp)
    85e7:	48 c7 85 58 ed ff ff 	movq   $0x0,-0x12a8(%rbp)
    85ee:	00 00 00 00 
    85f2:	48 c7 85 60 ed ff ff 	movq   $0x0,-0x12a0(%rbp)
    85f9:	00 00 00 00 
    85fd:	48 8d 05 8c 7e 01 00 	lea    0x17e8c(%rip),%rax        # 20490 <g_984>
    8604:	48 89 85 68 ed ff ff 	mov    %rax,-0x1298(%rbp)
    860b:	48 8d 05 96 7c 01 00 	lea    0x17c96(%rip),%rax        # 202a8 <g_77+0xc8>
    8612:	48 89 85 70 ed ff ff 	mov    %rax,-0x1290(%rbp)
    8619:	48 c7 85 78 ed ff ff 	movq   $0x0,-0x1288(%rbp)
    8620:	00 00 00 00 
    8624:	48 8d 05 7d 7c 01 00 	lea    0x17c7d(%rip),%rax        # 202a8 <g_77+0xc8>
    862b:	48 89 85 80 ed ff ff 	mov    %rax,-0x1280(%rbp)
    8632:	48 8d 05 8f 7b 01 00 	lea    0x17b8f(%rip),%rax        # 201c8 <g_14>
    8639:	48 89 85 88 ed ff ff 	mov    %rax,-0x1278(%rbp)
    8640:	48 8d 05 c1 7c 01 00 	lea    0x17cc1(%rip),%rax        # 20308 <g_77+0x128>
    8647:	48 89 85 90 ed ff ff 	mov    %rax,-0x1270(%rbp)
    864e:	48 8d 05 53 7c 01 00 	lea    0x17c53(%rip),%rax        # 202a8 <g_77+0xc8>
    8655:	48 89 85 98 ed ff ff 	mov    %rax,-0x1268(%rbp)
    865c:	48 c7 85 a0 ed ff ff 	movq   $0x0,-0x1260(%rbp)
    8663:	00 00 00 00 
    8667:	48 c7 85 a8 ed ff ff 	movq   $0x0,-0x1258(%rbp)
    866e:	00 00 00 00 
    8672:	48 8d 05 b7 7b 01 00 	lea    0x17bb7(%rip),%rax        # 20230 <g_77+0x50>
    8679:	48 89 85 b0 ed ff ff 	mov    %rax,-0x1250(%rbp)
    8680:	48 8d 05 41 7b 01 00 	lea    0x17b41(%rip),%rax        # 201c8 <g_14>
    8687:	48 89 85 b8 ed ff ff 	mov    %rax,-0x1248(%rbp)
    868e:	48 8d 05 07 7e 01 00 	lea    0x17e07(%rip),%rax        # 2049c <g_984+0xc>
    8695:	48 89 85 c0 ed ff ff 	mov    %rax,-0x1240(%rbp)
    869c:	48 c7 85 c8 ed ff ff 	movq   $0x0,-0x1238(%rbp)
    86a3:	00 00 00 00 
    86a7:	48 8d 05 ee 7d 01 00 	lea    0x17dee(%rip),%rax        # 2049c <g_984+0xc>
    86ae:	48 89 85 d0 ed ff ff 	mov    %rax,-0x1230(%rbp)
    86b5:	48 8d 05 0c 7b 01 00 	lea    0x17b0c(%rip),%rax        # 201c8 <g_14>
    86bc:	48 89 85 d8 ed ff ff 	mov    %rax,-0x1228(%rbp)
    86c3:	48 8d 85 f0 e4 ff ff 	lea    -0x1b10(%rbp),%rax
    86ca:	48 89 85 e0 ed ff ff 	mov    %rax,-0x1220(%rbp)
    86d1:	48 8d 05 d0 7b 01 00 	lea    0x17bd0(%rip),%rax        # 202a8 <g_77+0xc8>
    86d8:	48 89 85 e8 ed ff ff 	mov    %rax,-0x1218(%rbp)
    86df:	48 8d 05 7e 7a 01 00 	lea    0x17a7e(%rip),%rax        # 20164 <g_7>
    86e6:	48 89 85 f0 ed ff ff 	mov    %rax,-0x1210(%rbp)
    86ed:	48 8d 05 a0 7d 01 00 	lea    0x17da0(%rip),%rax        # 20494 <g_984+0x4>
    86f4:	48 89 85 f8 ed ff ff 	mov    %rax,-0x1208(%rbp)
    86fb:	48 8d 05 62 7a 01 00 	lea    0x17a62(%rip),%rax        # 20164 <g_7>
    8702:	48 89 85 00 ee ff ff 	mov    %rax,-0x1200(%rbp)
    8709:	48 8d 85 f0 e4 ff ff 	lea    -0x1b10(%rbp),%rax
    8710:	48 83 c0 14          	add    $0x14,%rax
    8714:	48 89 85 08 ee ff ff 	mov    %rax,-0x11f8(%rbp)
    871b:	48 8d 05 72 7d 01 00 	lea    0x17d72(%rip),%rax        # 20494 <g_984+0x4>
    8722:	48 89 85 10 ee ff ff 	mov    %rax,-0x11f0(%rbp)
    8729:	48 8d 05 98 7a 01 00 	lea    0x17a98(%rip),%rax        # 201c8 <g_14>
    8730:	48 89 85 18 ee ff ff 	mov    %rax,-0x11e8(%rbp)
    8737:	48 8d 05 8a 7a 01 00 	lea    0x17a8a(%rip),%rax        # 201c8 <g_14>
    873e:	48 89 85 20 ee ff ff 	mov    %rax,-0x11e0(%rbp)
    8745:	48 8d 85 f0 e4 ff ff 	lea    -0x1b10(%rbp),%rax
    874c:	48 83 c0 0c          	add    $0xc,%rax
    8750:	48 89 85 28 ee ff ff 	mov    %rax,-0x11d8(%rbp)
    8757:	48 8d 85 f0 e4 ff ff 	lea    -0x1b10(%rbp),%rax
    875e:	48 83 c0 0c          	add    $0xc,%rax
    8762:	48 89 85 30 ee ff ff 	mov    %rax,-0x11d0(%rbp)
    8769:	48 8d 05 98 7b 01 00 	lea    0x17b98(%rip),%rax        # 20308 <g_77+0x128>
    8770:	48 89 85 38 ee ff ff 	mov    %rax,-0x11c8(%rbp)
    8777:	48 c7 85 40 ee ff ff 	movq   $0x0,-0x11c0(%rbp)
    877e:	00 00 00 00 
    8782:	48 8d 05 3f 7a 01 00 	lea    0x17a3f(%rip),%rax        # 201c8 <g_14>
    8789:	48 89 85 48 ee ff ff 	mov    %rax,-0x11b8(%rbp)
    8790:	48 8d 85 f0 e4 ff ff 	lea    -0x1b10(%rbp),%rax
    8797:	48 83 c0 08          	add    $0x8,%rax
    879b:	48 89 85 50 ee ff ff 	mov    %rax,-0x11b0(%rbp)
    87a2:	48 8d 05 f3 7c 01 00 	lea    0x17cf3(%rip),%rax        # 2049c <g_984+0xc>
    87a9:	48 89 85 58 ee ff ff 	mov    %rax,-0x11a8(%rbp)
    87b0:	48 c7 85 60 ee ff ff 	movq   $0x0,-0x11a0(%rbp)
    87b7:	00 00 00 00 
    87bb:	48 8d 85 f0 e4 ff ff 	lea    -0x1b10(%rbp),%rax
    87c2:	48 83 c0 08          	add    $0x8,%rax
    87c6:	48 89 85 68 ee ff ff 	mov    %rax,-0x1198(%rbp)
    87cd:	48 8d 85 f0 e4 ff ff 	lea    -0x1b10(%rbp),%rax
    87d4:	48 83 c0 0c          	add    $0xc,%rax
    87d8:	48 89 85 70 ee ff ff 	mov    %rax,-0x1190(%rbp)
    87df:	48 c7 85 78 ee ff ff 	movq   $0x0,-0x1188(%rbp)
    87e6:	00 00 00 00 
    87ea:	48 8d 05 d7 79 01 00 	lea    0x179d7(%rip),%rax        # 201c8 <g_14>
    87f1:	48 89 85 80 ee ff ff 	mov    %rax,-0x1180(%rbp)
    87f8:	48 8d 05 a9 7a 01 00 	lea    0x17aa9(%rip),%rax        # 202a8 <g_77+0xc8>
    87ff:	48 89 85 88 ee ff ff 	mov    %rax,-0x1178(%rbp)
    8806:	48 8d 05 87 7c 01 00 	lea    0x17c87(%rip),%rax        # 20494 <g_984+0x4>
    880d:	48 89 85 90 ee ff ff 	mov    %rax,-0x1170(%rbp)
    8814:	48 8d 05 e1 79 01 00 	lea    0x179e1(%rip),%rax        # 201fc <g_77+0x1c>
    881b:	48 89 85 98 ee ff ff 	mov    %rax,-0x1168(%rbp)
    8822:	48 8d 05 3b 79 01 00 	lea    0x1793b(%rip),%rax        # 20164 <g_7>
    8829:	48 89 85 a0 ee ff ff 	mov    %rax,-0x1160(%rbp)
    8830:	48 8d 05 09 7a 01 00 	lea    0x17a09(%rip),%rax        # 20240 <g_77+0x60>
    8837:	48 89 85 a8 ee ff ff 	mov    %rax,-0x1158(%rbp)
    883e:	48 8d 05 1f 79 01 00 	lea    0x1791f(%rip),%rax        # 20164 <g_7>
    8845:	48 89 85 b0 ee ff ff 	mov    %rax,-0x1150(%rbp)
    884c:	48 8d 05 ed 79 01 00 	lea    0x179ed(%rip),%rax        # 20240 <g_77+0x60>
    8853:	48 89 85 b8 ee ff ff 	mov    %rax,-0x1148(%rbp)
    885a:	48 8d 85 f0 e4 ff ff 	lea    -0x1b10(%rbp),%rax
    8861:	48 89 85 c0 ee ff ff 	mov    %rax,-0x1140(%rbp)
    8868:	48 c7 85 c8 ee ff ff 	movq   $0x0,-0x1138(%rbp)
    886f:	00 00 00 00 
    8873:	48 8d 05 22 7c 01 00 	lea    0x17c22(%rip),%rax        # 2049c <g_984+0xc>
    887a:	48 89 85 d0 ee ff ff 	mov    %rax,-0x1130(%rbp)
    8881:	48 8d 05 48 79 01 00 	lea    0x17948(%rip),%rax        # 201d0 <g_50>
    8888:	48 89 85 d8 ee ff ff 	mov    %rax,-0x1128(%rbp)
    888f:	48 8d 05 06 7c 01 00 	lea    0x17c06(%rip),%rax        # 2049c <g_984+0xc>
    8896:	48 89 85 e0 ee ff ff 	mov    %rax,-0x1120(%rbp)
    889d:	48 8d 05 04 7a 01 00 	lea    0x17a04(%rip),%rax        # 202a8 <g_77+0xc8>
    88a4:	48 89 85 e8 ee ff ff 	mov    %rax,-0x1118(%rbp)
    88ab:	48 8d 05 7e 79 01 00 	lea    0x1797e(%rip),%rax        # 20230 <g_77+0x50>
    88b2:	48 89 85 f0 ee ff ff 	mov    %rax,-0x1110(%rbp)
    88b9:	48 8d 85 f0 e4 ff ff 	lea    -0x1b10(%rbp),%rax
    88c0:	48 83 c0 14          	add    $0x14,%rax
    88c4:	48 89 85 f8 ee ff ff 	mov    %rax,-0x1108(%rbp)
    88cb:	48 c7 85 00 ef ff ff 	movq   $0x0,-0x1100(%rbp)
    88d2:	00 00 00 00 
    88d6:	48 8d 05 b3 7b 01 00 	lea    0x17bb3(%rip),%rax        # 20490 <g_984>
    88dd:	48 89 85 08 ef ff ff 	mov    %rax,-0x10f8(%rbp)
    88e4:	48 8d 05 1d 7a 01 00 	lea    0x17a1d(%rip),%rax        # 20308 <g_77+0x128>
    88eb:	48 89 85 10 ef ff ff 	mov    %rax,-0x10f0(%rbp)
    88f2:	48 8d 05 a3 7b 01 00 	lea    0x17ba3(%rip),%rax        # 2049c <g_984+0xc>
    88f9:	48 89 85 18 ef ff ff 	mov    %rax,-0x10e8(%rbp)
    8900:	48 8d 05 a1 79 01 00 	lea    0x179a1(%rip),%rax        # 202a8 <g_77+0xc8>
    8907:	48 89 85 20 ef ff ff 	mov    %rax,-0x10e0(%rbp)
    890e:	48 8d 05 93 79 01 00 	lea    0x17993(%rip),%rax        # 202a8 <g_77+0xc8>
    8915:	48 89 85 28 ef ff ff 	mov    %rax,-0x10d8(%rbp)
    891c:	48 8d 05 85 79 01 00 	lea    0x17985(%rip),%rax        # 202a8 <g_77+0xc8>
    8923:	48 89 85 30 ef ff ff 	mov    %rax,-0x10d0(%rbp)
    892a:	48 8d 05 77 79 01 00 	lea    0x17977(%rip),%rax        # 202a8 <g_77+0xc8>
    8931:	48 89 85 38 ef ff ff 	mov    %rax,-0x10c8(%rbp)
    8938:	48 c7 85 40 ef ff ff 	movq   $0x0,-0x10c0(%rbp)
    893f:	00 00 00 00 
    8943:	48 8d 85 f0 e4 ff ff 	lea    -0x1b10(%rbp),%rax
    894a:	48 83 c0 0c          	add    $0xc,%rax
    894e:	48 89 85 48 ef ff ff 	mov    %rax,-0x10b8(%rbp)
    8955:	48 8d 05 d4 78 01 00 	lea    0x178d4(%rip),%rax        # 20230 <g_77+0x50>
    895c:	48 89 85 50 ef ff ff 	mov    %rax,-0x10b0(%rbp)
    8963:	48 8d 05 3e 79 01 00 	lea    0x1793e(%rip),%rax        # 202a8 <g_77+0xc8>
    896a:	48 89 85 58 ef ff ff 	mov    %rax,-0x10a8(%rbp)
    8971:	48 8d 05 90 79 01 00 	lea    0x17990(%rip),%rax        # 20308 <g_77+0x128>
    8978:	48 89 85 60 ef ff ff 	mov    %rax,-0x10a0(%rbp)
    897f:	48 c7 85 68 ef ff ff 	movq   $0x0,-0x1098(%rbp)
    8986:	00 00 00 00 
    898a:	48 c7 85 70 ef ff ff 	movq   $0x0,-0x1090(%rbp)
    8991:	00 00 00 00 
    8995:	48 8d 05 f8 7a 01 00 	lea    0x17af8(%rip),%rax        # 20494 <g_984+0x4>
    899c:	48 89 85 78 ef ff ff 	mov    %rax,-0x1088(%rbp)
    89a3:	48 8d 85 f0 e4 ff ff 	lea    -0x1b10(%rbp),%rax
    89aa:	48 89 85 80 ef ff ff 	mov    %rax,-0x1080(%rbp)
    89b1:	48 8d 05 50 79 01 00 	lea    0x17950(%rip),%rax        # 20308 <g_77+0x128>
    89b8:	48 89 85 88 ef ff ff 	mov    %rax,-0x1078(%rbp)
    89bf:	48 8d 05 e2 78 01 00 	lea    0x178e2(%rip),%rax        # 202a8 <g_77+0xc8>
    89c6:	48 89 85 90 ef ff ff 	mov    %rax,-0x1070(%rbp)
    89cd:	48 8d 05 c0 7a 01 00 	lea    0x17ac0(%rip),%rax        # 20494 <g_984+0x4>
    89d4:	48 89 85 98 ef ff ff 	mov    %rax,-0x1068(%rbp)
    89db:	48 c7 85 a0 ef ff ff 	movq   $0x0,-0x1060(%rbp)
    89e2:	00 00 00 00 
    89e6:	48 c7 85 a8 ef ff ff 	movq   $0x0,-0x1058(%rbp)
    89ed:	00 00 00 00 
    89f1:	48 8d 05 9c 7a 01 00 	lea    0x17a9c(%rip),%rax        # 20494 <g_984+0x4>
    89f8:	48 89 85 b0 ef ff ff 	mov    %rax,-0x1050(%rbp)
    89ff:	48 8d 05 a2 78 01 00 	lea    0x178a2(%rip),%rax        # 202a8 <g_77+0xc8>
    8a06:	48 89 85 b8 ef ff ff 	mov    %rax,-0x1048(%rbp)
    8a0d:	48 c7 85 c0 ef ff ff 	movq   $0x0,-0x1040(%rbp)
    8a14:	00 00 00 00 
    8a18:	48 8d 85 f0 e4 ff ff 	lea    -0x1b10(%rbp),%rax
    8a1f:	48 83 c0 0c          	add    $0xc,%rax
    8a23:	48 89 85 c8 ef ff ff 	mov    %rax,-0x1038(%rbp)
    8a2a:	48 c7 85 d0 ef ff ff 	movq   $0x0,-0x1030(%rbp)
    8a31:	00 00 00 00 
    8a35:	48 8d 05 6c 78 01 00 	lea    0x1786c(%rip),%rax        # 202a8 <g_77+0xc8>
    8a3c:	48 89 85 d8 ef ff ff 	mov    %rax,-0x1028(%rbp)
    8a43:	48 c7 85 e0 ef ff ff 	movq   $0x0,-0x1020(%rbp)
    8a4a:	00 00 00 00 
    8a4e:	48 8d 05 53 78 01 00 	lea    0x17853(%rip),%rax        # 202a8 <g_77+0xc8>
    8a55:	48 89 85 e8 ef ff ff 	mov    %rax,-0x1018(%rbp)
    8a5c:	48 8d 05 2d 7a 01 00 	lea    0x17a2d(%rip),%rax        # 20490 <g_984>
    8a63:	48 89 85 f0 ef ff ff 	mov    %rax,-0x1010(%rbp)
    8a6a:	48 8d 05 2b 7a 01 00 	lea    0x17a2b(%rip),%rax        # 2049c <g_984+0xc>
    8a71:	48 89 85 f8 ef ff ff 	mov    %rax,-0x1008(%rbp)
    8a78:	48 8d 05 c5 77 01 00 	lea    0x177c5(%rip),%rax        # 20244 <g_77+0x64>
    8a7f:	48 89 85 00 f0 ff ff 	mov    %rax,-0x1000(%rbp)
    8a86:	48 8d 05 03 7a 01 00 	lea    0x17a03(%rip),%rax        # 20490 <g_984>
    8a8d:	48 89 85 08 f0 ff ff 	mov    %rax,-0xff8(%rbp)
    8a94:	48 8d 85 f0 e4 ff ff 	lea    -0x1b10(%rbp),%rax
    8a9b:	48 83 c0 0c          	add    $0xc,%rax
    8a9f:	48 89 85 10 f0 ff ff 	mov    %rax,-0xff0(%rbp)
    8aa6:	48 8d 85 f0 e4 ff ff 	lea    -0x1b10(%rbp),%rax
    8aad:	48 83 c0 14          	add    $0x14,%rax
    8ab1:	48 89 85 18 f0 ff ff 	mov    %rax,-0xfe8(%rbp)
    8ab8:	48 c7 85 20 f0 ff ff 	movq   $0x0,-0xfe0(%rbp)
    8abf:	00 00 00 00 
    8ac3:	48 8d 05 de 77 01 00 	lea    0x177de(%rip),%rax        # 202a8 <g_77+0xc8>
    8aca:	48 89 85 28 f0 ff ff 	mov    %rax,-0xfd8(%rbp)
    8ad1:	48 8d 05 f0 76 01 00 	lea    0x176f0(%rip),%rax        # 201c8 <g_14>
    8ad8:	48 89 85 30 f0 ff ff 	mov    %rax,-0xfd0(%rbp)
    8adf:	48 8d 05 ea 76 01 00 	lea    0x176ea(%rip),%rax        # 201d0 <g_50>
    8ae6:	48 89 85 38 f0 ff ff 	mov    %rax,-0xfc8(%rbp)
    8aed:	48 8d 05 70 76 01 00 	lea    0x17670(%rip),%rax        # 20164 <g_7>
    8af4:	48 89 85 40 f0 ff ff 	mov    %rax,-0xfc0(%rbp)
    8afb:	48 c7 85 48 f0 ff ff 	movq   $0x0,-0xfb8(%rbp)
    8b02:	00 00 00 00 
    8b06:	48 8d 05 9b 77 01 00 	lea    0x1779b(%rip),%rax        # 202a8 <g_77+0xc8>
    8b0d:	48 89 85 50 f0 ff ff 	mov    %rax,-0xfb0(%rbp)
    8b14:	48 8d 05 25 77 01 00 	lea    0x17725(%rip),%rax        # 20240 <g_77+0x60>
    8b1b:	48 89 85 58 f0 ff ff 	mov    %rax,-0xfa8(%rbp)
    8b22:	48 c7 85 60 f0 ff ff 	movq   $0x0,-0xfa0(%rbp)
    8b29:	00 00 00 00 
    8b2d:	48 8d 05 0c 77 01 00 	lea    0x1770c(%rip),%rax        # 20240 <g_77+0x60>
    8b34:	48 89 85 68 f0 ff ff 	mov    %rax,-0xf98(%rbp)
    8b3b:	48 8d 05 5a 79 01 00 	lea    0x1795a(%rip),%rax        # 2049c <g_984+0xc>
    8b42:	48 89 85 70 f0 ff ff 	mov    %rax,-0xf90(%rbp)
    8b49:	48 8d 05 ac 76 01 00 	lea    0x176ac(%rip),%rax        # 201fc <g_77+0x1c>
    8b50:	48 89 85 78 f0 ff ff 	mov    %rax,-0xf88(%rbp)
    8b57:	48 8d 05 aa 77 01 00 	lea    0x177aa(%rip),%rax        # 20308 <g_77+0x128>
    8b5e:	48 89 85 80 f0 ff ff 	mov    %rax,-0xf80(%rbp)
    8b65:	48 8d 05 3c 77 01 00 	lea    0x1773c(%rip),%rax        # 202a8 <g_77+0xc8>
    8b6c:	48 89 85 88 f0 ff ff 	mov    %rax,-0xf78(%rbp)
    8b73:	48 8d 05 22 79 01 00 	lea    0x17922(%rip),%rax        # 2049c <g_984+0xc>
    8b7a:	48 89 85 90 f0 ff ff 	mov    %rax,-0xf70(%rbp)
    8b81:	48 c7 85 98 f0 ff ff 	movq   $0x0,-0xf68(%rbp)
    8b88:	00 00 00 00 
    8b8c:	48 c7 85 a0 f0 ff ff 	movq   $0x0,-0xf60(%rbp)
    8b93:	00 00 00 00 
    8b97:	48 8d 85 f0 e4 ff ff 	lea    -0x1b10(%rbp),%rax
    8b9e:	48 83 c0 08          	add    $0x8,%rax
    8ba2:	48 89 85 a8 f0 ff ff 	mov    %rax,-0xf58(%rbp)
    8ba9:	48 8d 05 f8 76 01 00 	lea    0x176f8(%rip),%rax        # 202a8 <g_77+0xc8>
    8bb0:	48 89 85 b0 f0 ff ff 	mov    %rax,-0xf50(%rbp)
    8bb7:	48 8d 05 de 78 01 00 	lea    0x178de(%rip),%rax        # 2049c <g_984+0xc>
    8bbe:	48 89 85 b8 f0 ff ff 	mov    %rax,-0xf48(%rbp)
    8bc5:	48 8d 05 d0 78 01 00 	lea    0x178d0(%rip),%rax        # 2049c <g_984+0xc>
    8bcc:	48 89 85 c0 f0 ff ff 	mov    %rax,-0xf40(%rbp)
    8bd3:	48 8d 05 ee 75 01 00 	lea    0x175ee(%rip),%rax        # 201c8 <g_14>
    8bda:	48 89 85 c8 f0 ff ff 	mov    %rax,-0xf38(%rbp)
    8be1:	48 8d 05 c0 76 01 00 	lea    0x176c0(%rip),%rax        # 202a8 <g_77+0xc8>
    8be8:	48 89 85 d0 f0 ff ff 	mov    %rax,-0xf30(%rbp)
    8bef:	48 8d 05 12 77 01 00 	lea    0x17712(%rip),%rax        # 20308 <g_77+0x128>
    8bf6:	48 89 85 d8 f0 ff ff 	mov    %rax,-0xf28(%rbp)
    8bfd:	48 c7 85 e0 f0 ff ff 	movq   $0x0,-0xf20(%rbp)
    8c04:	00 00 00 00 
    8c08:	48 8d 85 f0 e4 ff ff 	lea    -0x1b10(%rbp),%rax
    8c0f:	48 83 c0 0c          	add    $0xc,%rax
    8c13:	48 89 85 e8 f0 ff ff 	mov    %rax,-0xf18(%rbp)
    8c1a:	48 8d 05 8b 78 01 00 	lea    0x1788b(%rip),%rax        # 204ac <g_1139>
    8c21:	48 89 85 90 e3 ff ff 	mov    %rax,-0x1c70(%rbp)
    8c28:	c6 85 44 e2 ff ff e3 	movb   $0xe3,-0x1dbc(%rbp)
    8c2f:	c7 85 78 e2 ff ff 03 	movl   $0xc2ea03,-0x1d88(%rbp)
    8c36:	ea c2 00 
    8c39:	48 8d 85 f0 f0 ff ff 	lea    -0xf10(%rbp),%rax
    8c40:	48 8d 15 b9 1c 01 00 	lea    0x11cb9(%rip),%rdx        # 1a900 <g_2872+0x880>
    8c47:	b9 f0 00 00 00       	mov    $0xf0,%ecx
    8c4c:	48 89 c7             	mov    %rax,%rdi
    8c4f:	48 89 d6             	mov    %rdx,%rsi
    8c52:	f3 48 a5             	rep movsq %ds:(%rsi),%es:(%rdi)
    8c55:	48 8d 85 f0 e2 ff ff 	lea    -0x1d10(%rbp),%rax
    8c5c:	48 89 85 18 e3 ff ff 	mov    %rax,-0x1ce8(%rbp)
    8c63:	48 8d 85 18 e3 ff ff 	lea    -0x1ce8(%rbp),%rax
    8c6a:	48 89 85 98 e3 ff ff 	mov    %rax,-0x1c68(%rbp)
    8c71:	48 8d 05 e0 81 01 00 	lea    0x181e0(%rip),%rax        # 20e58 <g_580>
    8c78:	48 89 85 d0 e4 ff ff 	mov    %rax,-0x1b30(%rbp)
    8c7f:	48 8d 05 d2 81 01 00 	lea    0x181d2(%rip),%rax        # 20e58 <g_580>
    8c86:	48 89 85 d8 e4 ff ff 	mov    %rax,-0x1b28(%rbp)
    8c8d:	48 8d 05 c4 81 01 00 	lea    0x181c4(%rip),%rax        # 20e58 <g_580>
    8c94:	48 89 85 e0 e4 ff ff 	mov    %rax,-0x1b20(%rbp)
    8c9b:	48 8d 85 d0 e4 ff ff 	lea    -0x1b30(%rbp),%rax
    8ca2:	48 83 c0 08          	add    $0x8,%rax
    8ca6:	48 89 85 a0 e3 ff ff 	mov    %rax,-0x1c60(%rbp)
    8cad:	66 c7 85 4a e2 ff ff 	movw   $0x309c,-0x1db6(%rbp)
    8cb4:	9c 30 
    8cb6:	48 8d 05 9b 85 01 00 	lea    0x1859b(%rip),%rax        # 21258 <g_1584>
    8cbd:	48 89 85 e0 e5 ff ff 	mov    %rax,-0x1a20(%rbp)
    8cc4:	48 c7 85 e8 e5 ff ff 	movq   $0x0,-0x1a18(%rbp)
    8ccb:	00 00 00 00 
    8ccf:	48 8d 05 82 85 01 00 	lea    0x18582(%rip),%rax        # 21258 <g_1584>
    8cd6:	48 89 85 f0 e5 ff ff 	mov    %rax,-0x1a10(%rbp)
    8cdd:	48 8d 05 74 85 01 00 	lea    0x18574(%rip),%rax        # 21258 <g_1584>
    8ce4:	48 89 85 f8 e5 ff ff 	mov    %rax,-0x1a08(%rbp)
    8ceb:	48 c7 85 00 e6 ff ff 	movq   $0x0,-0x1a00(%rbp)
    8cf2:	00 00 00 00 
    8cf6:	48 8d 05 5b 85 01 00 	lea    0x1855b(%rip),%rax        # 21258 <g_1584>
    8cfd:	48 89 85 08 e6 ff ff 	mov    %rax,-0x19f8(%rbp)
    8d04:	48 8d 05 4d 85 01 00 	lea    0x1854d(%rip),%rax        # 21258 <g_1584>
    8d0b:	48 89 85 10 e6 ff ff 	mov    %rax,-0x19f0(%rbp)
    8d12:	48 c7 85 18 e6 ff ff 	movq   $0x0,-0x19e8(%rbp)
    8d19:	00 00 00 00 
    8d1d:	48 8d 05 34 85 01 00 	lea    0x18534(%rip),%rax        # 21258 <g_1584>
    8d24:	48 89 85 20 e6 ff ff 	mov    %rax,-0x19e0(%rbp)
    8d2b:	66 c7 85 d0 e6 ff ff 	movw   $0xd6ff,-0x1930(%rbp)
    8d32:	ff d6 
    8d34:	66 c7 85 d2 e6 ff ff 	movw   $0xff3e,-0x192e(%rbp)
    8d3b:	3e ff 
    8d3d:	66 c7 85 d4 e6 ff ff 	movw   $0x20,-0x192c(%rbp)
    8d44:	20 00 
    8d46:	66 c7 85 d6 e6 ff ff 	movw   $0xffba,-0x192a(%rbp)
    8d4d:	ba ff 
    8d4f:	66 c7 85 d8 e6 ff ff 	movw   $0xc1fd,-0x1928(%rbp)
    8d56:	fd c1 
    8d58:	66 c7 85 da e6 ff ff 	movw   $0x3ea9,-0x1926(%rbp)
    8d5f:	a9 3e 
    8d61:	66 c7 85 dc e6 ff ff 	movw   $0x9883,-0x1924(%rbp)
    8d68:	83 98 
    8d6a:	66 c7 85 de e6 ff ff 	movw   $0xe920,-0x1922(%rbp)
    8d71:	20 e9 
    8d73:	66 c7 85 e0 e6 ff ff 	movw   $0x9c,-0x1920(%rbp)
    8d7a:	9c 00 
    8d7c:	66 c7 85 e2 e6 ff ff 	movw   $0x9c04,-0x191e(%rbp)
    8d83:	04 9c 
    8d85:	66 c7 85 e4 e6 ff ff 	movw   $0xfdd7,-0x191c(%rbp)
    8d8c:	d7 fd 
    8d8e:	66 c7 85 e6 e6 ff ff 	movw   $0x9cd7,-0x191a(%rbp)
    8d95:	d7 9c 
    8d97:	66 c7 85 e8 e6 ff ff 	movw   $0x4,-0x1918(%rbp)
    8d9e:	04 00 
    8da0:	66 c7 85 ea e6 ff ff 	movw   $0xe99c,-0x1916(%rbp)
    8da7:	9c e9 
    8da9:	66 c7 85 ec e6 ff ff 	movw   $0x9820,-0x1914(%rbp)
    8db0:	20 98 
    8db2:	66 c7 85 ee e6 ff ff 	movw   $0x3e83,-0x1912(%rbp)
    8db9:	83 3e 
    8dbb:	66 c7 85 f0 e6 ff ff 	movw   $0xff3e,-0x1910(%rbp)
    8dc2:	3e ff 
    8dc4:	66 c7 85 f2 e6 ff ff 	movw   $0xc61e,-0x190e(%rbp)
    8dcb:	1e c6 
    8dcd:	66 c7 85 f4 e6 ff ff 	movw   $0x3b00,-0x190c(%rbp)
    8dd4:	00 3b 
    8dd6:	66 c7 85 f6 e6 ff ff 	movw   $0xe8ea,-0x190a(%rbp)
    8ddd:	ea e8 
    8ddf:	66 c7 85 f8 e6 ff ff 	movw   $0x5ba,-0x1908(%rbp)
    8de6:	ba 05 
    8de8:	66 c7 85 fa e6 ff ff 	movw   $0x49db,-0x1906(%rbp)
    8def:	db 49 
    8df1:	66 c7 85 fc e6 ff ff 	movw   $0x1f1,-0x1904(%rbp)
    8df8:	f1 01 
    8dfa:	66 c7 85 fe e6 ff ff 	movw   $0xa8a0,-0x1902(%rbp)
    8e01:	a0 a8 
    8e03:	66 c7 85 00 e7 ff ff 	movw   $0x1ff,-0x1900(%rbp)
    8e0a:	ff 01 
    8e0c:	66 c7 85 02 e7 ff ff 	movw   $0x1e3b,-0x18fe(%rbp)
    8e13:	3b 1e 
    8e15:	66 c7 85 04 e7 ff ff 	movw   $0xfffd,-0x18fc(%rbp)
    8e1c:	fd ff 
    8e1e:	66 c7 85 06 e7 ff ff 	movw   $0x2000,-0x18fa(%rbp)
    8e25:	00 20 
    8e27:	66 c7 85 08 e7 ff ff 	movw   $0xd749,-0x18f8(%rbp)
    8e2e:	49 d7 
    8e30:	66 c7 85 0a e7 ff ff 	movw   $0x1,-0x18f6(%rbp)
    8e37:	01 00 
    8e39:	66 c7 85 0c e7 ff ff 	movw   $0xfdce,-0x18f4(%rbp)
    8e40:	ce fd 
    8e42:	66 c7 85 0e e7 ff ff 	movw   $0x801,-0x18f2(%rbp)
    8e49:	01 08 
    8e4b:	66 c7 85 10 e7 ff ff 	movw   $0x1ce8,-0x18f0(%rbp)
    8e52:	e8 1c 
    8e54:	66 c7 85 12 e7 ff ff 	movw   $0xa9ff,-0x18ee(%rbp)
    8e5b:	ff a9 
    8e5d:	66 c7 85 14 e7 ff ff 	movw   $0xa901,-0x18ec(%rbp)
    8e64:	01 a9 
    8e66:	66 c7 85 16 e7 ff ff 	movw   $0x1cff,-0x18ea(%rbp)
    8e6d:	ff 1c 
    8e6f:	66 c7 85 18 e7 ff ff 	movw   $0x8e8,-0x18e8(%rbp)
    8e76:	e8 08 
    8e78:	66 c7 85 1a e7 ff ff 	movw   $0xfd01,-0x18e6(%rbp)
    8e7f:	01 fd 
    8e81:	66 c7 85 1c e7 ff ff 	movw   $0xce,-0x18e4(%rbp)
    8e88:	ce 00 
    8e8a:	66 c7 85 1e e7 ff ff 	movw   $0xd701,-0x18e2(%rbp)
    8e91:	01 d7 
    8e93:	66 c7 85 20 e7 ff ff 	movw   $0x2049,-0x18e0(%rbp)
    8e9a:	49 20 
    8e9c:	66 c7 85 22 e7 ff ff 	movw   $0xff00,-0x18de(%rbp)
    8ea3:	00 ff 
    8ea5:	66 c7 85 24 e7 ff ff 	movw   $0x1efd,-0x18dc(%rbp)
    8eac:	fd 1e 
    8eae:	66 c7 85 26 e7 ff ff 	movw   $0x13b,-0x18da(%rbp)
    8eb5:	3b 01 
    8eb7:	66 c7 85 28 e7 ff ff 	movw   $0xa8ff,-0x18d8(%rbp)
    8ebe:	ff a8 
    8ec0:	66 c7 85 2a e7 ff ff 	movw   $0x1a0,-0x18d6(%rbp)
    8ec7:	a0 01 
    8ec9:	66 c7 85 2c e7 ff ff 	movw   $0x49f1,-0x18d4(%rbp)
    8ed0:	f1 49 
    8ed2:	66 c7 85 2e e7 ff ff 	movw   $0x5db,-0x18d2(%rbp)
    8ed9:	db 05 
    8edb:	66 c7 85 30 e7 ff ff 	movw   $0xe8ba,-0x18d0(%rbp)
    8ee2:	ba e8 
    8ee4:	66 c7 85 32 e7 ff ff 	movw   $0x3bea,-0x18ce(%rbp)
    8eeb:	ea 3b 
    8eed:	66 c7 85 34 e7 ff ff 	movw   $0xc600,-0x18cc(%rbp)
    8ef4:	00 c6 
    8ef6:	66 c7 85 36 e7 ff ff 	movw   $0xff1e,-0x18ca(%rbp)
    8efd:	1e ff 
    8eff:	66 c7 85 38 e7 ff ff 	movw   $0x3e3e,-0x18c8(%rbp)
    8f06:	3e 3e 
    8f08:	66 c7 85 3a e7 ff ff 	movw   $0x9883,-0x18c6(%rbp)
    8f0f:	83 98 
    8f11:	48 c7 85 20 e3 ff ff 	movq   $0x0,-0x1ce0(%rbp)
    8f18:	00 00 00 00 
    8f1c:	48 8d 85 20 e3 ff ff 	lea    -0x1ce0(%rbp),%rax
    8f23:	48 89 85 28 e3 ff ff 	mov    %rax,-0x1cd8(%rbp)
    8f2a:	48 8d 85 28 e3 ff ff 	lea    -0x1cd8(%rbp),%rax
    8f31:	48 89 85 30 e3 ff ff 	mov    %rax,-0x1cd0(%rbp)
    8f38:	48 8d 85 30 e3 ff ff 	lea    -0x1cd0(%rbp),%rax
    8f3f:	48 89 85 a8 e3 ff ff 	mov    %rax,-0x1c58(%rbp)
    8f46:	48 8d 05 df 72 01 00 	lea    0x172df(%rip),%rax        # 2022c <g_77+0x4c>
    8f4d:	48 89 85 b0 e3 ff ff 	mov    %rax,-0x1c50(%rbp)
    8f54:	c7 85 7c e2 ff ff 01 	movl   $0x1,-0x1d84(%rbp)
    8f5b:	00 00 00 
    8f5e:	48 8d 05 83 82 01 00 	lea    0x18283(%rip),%rax        # 211e8 <g_940>
    8f65:	48 89 85 b8 e3 ff ff 	mov    %rax,-0x1c48(%rbp)
    8f6c:	48 8d 85 e0 e8 ff ff 	lea    -0x1720(%rbp),%rax
    8f73:	48 8d 15 06 21 01 00 	lea    0x12106(%rip),%rdx        # 1b080 <g_2872+0x1000>
    8f7a:	b9 28 00 00 00       	mov    $0x28,%ecx
    8f7f:	48 89 c7             	mov    %rax,%rdi
    8f82:	48 89 d6             	mov    %rdx,%rsi
    8f85:	f3 48 a5             	rep movsq %ds:(%rsi),%es:(%rdi)
    8f88:	48 c7 85 c0 e3 ff ff 	movq   $0x0,-0x1c40(%rbp)
    8f8f:	00 00 00 00 
    8f93:	c7 85 80 e2 ff ff 01 	movl   $0xbf915001,-0x1d80(%rbp)
    8f9a:	50 91 bf 
    8f9d:	48 8d 85 00 e3 ff ff 	lea    -0x1d00(%rbp),%rax
    8fa4:	48 89 85 a0 e5 ff ff 	mov    %rax,-0x1a60(%rbp)
    8fab:	48 8d 85 00 e3 ff ff 	lea    -0x1d00(%rbp),%rax
    8fb2:	48 89 85 a8 e5 ff ff 	mov    %rax,-0x1a58(%rbp)
    8fb9:	48 8d 85 00 e3 ff ff 	lea    -0x1d00(%rbp),%rax
    8fc0:	48 89 85 b0 e5 ff ff 	mov    %rax,-0x1a50(%rbp)
    8fc7:	48 8d 85 00 e3 ff ff 	lea    -0x1d00(%rbp),%rax
    8fce:	48 89 85 b8 e5 ff ff 	mov    %rax,-0x1a48(%rbp)
    8fd5:	48 8d 85 00 e3 ff ff 	lea    -0x1d00(%rbp),%rax
    8fdc:	48 89 85 c0 e5 ff ff 	mov    %rax,-0x1a40(%rbp)
    8fe3:	48 8d 85 00 e3 ff ff 	lea    -0x1d00(%rbp),%rax
    8fea:	48 89 85 c8 e5 ff ff 	mov    %rax,-0x1a38(%rbp)
    8ff1:	48 8d 85 00 e3 ff ff 	lea    -0x1d00(%rbp),%rax
    8ff8:	48 89 85 d0 e5 ff ff 	mov    %rax,-0x1a30(%rbp)
    8fff:	48 8d 85 00 e3 ff ff 	lea    -0x1d00(%rbp),%rax
    9006:	48 89 85 d8 e5 ff ff 	mov    %rax,-0x1a28(%rbp)
    900d:	48 8d 85 a0 e5 ff ff 	lea    -0x1a60(%rbp),%rax
    9014:	48 83 c0 10          	add    $0x10,%rax
    9018:	48 89 85 c8 e3 ff ff 	mov    %rax,-0x1c38(%rbp)
    901f:	48 8d 85 c0 e7 ff ff 	lea    -0x1840(%rbp),%rax
    9026:	48 8d 15 93 21 01 00 	lea    0x12193(%rip),%rdx        # 1b1c0 <g_2872+0x1140>
    902d:	b9 24 00 00 00       	mov    $0x24,%ecx
    9032:	48 89 c7             	mov    %rax,%rdi
    9035:	48 89 d6             	mov    %rdx,%rsi
    9038:	f3 48 a5             	rep movsq %ds:(%rsi),%es:(%rdi)
    903b:	c7 85 60 e2 ff ff 00 	movl   $0x0,-0x1da0(%rbp)
    9042:	00 00 00 
    9045:	eb 22                	jmp    9069 <func_23+0xee5>
    9047:	8b 85 60 e2 ff ff    	mov    -0x1da0(%rbp),%eax
    904d:	48 98                	cltq   
    904f:	48 8d 95 f0 e4 ff ff 	lea    -0x1b10(%rbp),%rdx
    9056:	48 83 c2 14          	add    $0x14,%rdx
    905a:	48 89 94 c5 30 e5 ff 	mov    %rdx,-0x1ad0(%rbp,%rax,8)
    9061:	ff 
    9062:	83 85 60 e2 ff ff 01 	addl   $0x1,-0x1da0(%rbp)
    9069:	83 bd 60 e2 ff ff 05 	cmpl   $0x5,-0x1da0(%rbp)
    9070:	7e d5                	jle    9047 <func_23+0xec3>
    9072:	c6 05 bf 72 01 00 12 	movb   $0x12,0x172bf(%rip)        # 20338 <g_159>
    9079:	e9 41 0d 00 00       	jmpq   9dbf <func_23+0x1c3b>
    907e:	48 c7 85 18 e4 ff ff 	movq   $0x0,-0x1be8(%rbp)
    9085:	00 00 00 00 
    9089:	48 8d 05 10 74 01 00 	lea    0x17410(%rip),%rax        # 204a0 <g_984+0x10>
    9090:	48 89 85 20 e4 ff ff 	mov    %rax,-0x1be0(%rbp)
    9097:	48 8d 05 62 71 01 00 	lea    0x17162(%rip),%rax        # 20200 <g_77+0x20>
    909e:	48 89 85 60 e5 ff ff 	mov    %rax,-0x1aa0(%rbp)
    90a5:	48 8d 05 e8 73 01 00 	lea    0x173e8(%rip),%rax        # 20494 <g_984+0x4>
    90ac:	48 89 85 68 e5 ff ff 	mov    %rax,-0x1a98(%rbp)
    90b3:	48 8d 05 46 71 01 00 	lea    0x17146(%rip),%rax        # 20200 <g_77+0x20>
    90ba:	48 89 85 70 e5 ff ff 	mov    %rax,-0x1a90(%rbp)
    90c1:	48 8d 05 cc 73 01 00 	lea    0x173cc(%rip),%rax        # 20494 <g_984+0x4>
    90c8:	48 89 85 78 e5 ff ff 	mov    %rax,-0x1a88(%rbp)
    90cf:	48 8d 05 2a 71 01 00 	lea    0x1712a(%rip),%rax        # 20200 <g_77+0x20>
    90d6:	48 89 85 80 e5 ff ff 	mov    %rax,-0x1a80(%rbp)
    90dd:	48 8d 05 b0 73 01 00 	lea    0x173b0(%rip),%rax        # 20494 <g_984+0x4>
    90e4:	48 89 85 88 e5 ff ff 	mov    %rax,-0x1a78(%rbp)
    90eb:	48 8d 05 0e 71 01 00 	lea    0x1710e(%rip),%rax        # 20200 <g_77+0x20>
    90f2:	48 89 85 90 e5 ff ff 	mov    %rax,-0x1a70(%rbp)
    90f9:	48 8d 05 30 81 01 00 	lea    0x18130(%rip),%rax        # 21230 <g_1565>
    9100:	48 89 85 28 e4 ff ff 	mov    %rax,-0x1bd8(%rbp)
    9107:	c7 85 94 e2 ff ff 00 	movl   $0x0,-0x1d6c(%rbp)
    910e:	00 00 00 
    9111:	48 c7 85 58 e3 ff ff 	movq   $0x9,-0x1ca8(%rbp)
    9118:	09 00 00 00 
    911c:	48 8d 05 fd 80 01 00 	lea    0x180fd(%rip),%rax        # 21220 <g_1338>
    9123:	48 89 85 38 e3 ff ff 	mov    %rax,-0x1cc8(%rbp)
    912a:	48 8d 85 38 e3 ff ff 	lea    -0x1cc8(%rbp),%rax
    9131:	48 89 85 40 e3 ff ff 	mov    %rax,-0x1cc0(%rbp)
    9138:	48 8d 85 40 e3 ff ff 	lea    -0x1cc0(%rbp),%rax
    913f:	48 89 85 30 e4 ff ff 	mov    %rax,-0x1bd0(%rbp)
    9146:	66 c7 85 54 e2 ff ff 	movw   $0x794e,-0x1dac(%rbp)
    914d:	4e 79 
    914f:	48 c7 85 38 e4 ff ff 	movq   $0x0,-0x1bc8(%rbp)
    9156:	00 00 00 00 
    915a:	48 8d 05 e7 80 01 00 	lea    0x180e7(%rip),%rax        # 21248 <g_1578>
    9161:	48 89 85 40 e4 ff ff 	mov    %rax,-0x1bc0(%rbp)
    9168:	c7 85 98 e2 ff ff 25 	movl   $0x6bbe6d25,-0x1d68(%rbp)
    916f:	6d be 6b 
    9172:	c7 85 9c e2 ff ff a7 	movl   $0x8d62eea7,-0x1d64(%rbp)
    9179:	ee 62 8d 
    917c:	c7 85 a0 e2 ff ff 54 	movl   $0xaa40cd54,-0x1d60(%rbp)
    9183:	cd 40 aa 
    9186:	48 c7 85 48 e4 ff ff 	movq   $0x0,-0x1bb8(%rbp)
    918d:	00 00 00 00 
    9191:	c7 85 a4 e2 ff ff a5 	movl   $0x4f3718a5,-0x1d5c(%rbp)
    9198:	18 37 4f 
    919b:	48 8b 85 d8 e2 ff ff 	mov    -0x1d28(%rbp),%rax
    91a2:	48 83 e8 01          	sub    $0x1,%rax
    91a6:	48 89 85 d8 e2 ff ff 	mov    %rax,-0x1d28(%rbp)
    91ad:	c7 05 01 97 01 00 fa 	movl   $0xfffffffa,0x19701(%rip)        # 228b8 <g_165>
    91b4:	ff ff ff 
    91b7:	e9 81 08 00 00       	jmpq   9a3d <func_23+0x18b9>
    91bc:	c7 85 b0 e2 ff ff 02 	movl   $0x2,-0x1d50(%rbp)
    91c3:	00 00 00 
    91c6:	c7 85 b4 e2 ff ff 01 	movl   $0x1,-0x1d4c(%rbp)
    91cd:	00 00 00 
    91d0:	c7 85 b8 e2 ff ff aa 	movl   $0xe5825baa,-0x1d48(%rbp)
    91d7:	5b 82 e5 
    91da:	c7 85 bc e2 ff ff 0a 	movl   $0xdfcff20a,-0x1d44(%rbp)
    91e1:	f2 cf df 
    91e4:	c7 85 c0 e2 ff ff 01 	movl   $0x1,-0x1d40(%rbp)
    91eb:	00 00 00 
    91ee:	c7 85 c4 e2 ff ff fc 	movl   $0xfffffffc,-0x1d3c(%rbp)
    91f5:	ff ff ff 
    91f8:	c7 85 64 e2 ff ff 01 	movl   $0x1,-0x1d9c(%rbp)
    91ff:	00 00 00 
    9202:	c7 85 c8 e2 ff ff f8 	movl   $0xfffffff8,-0x1d38(%rbp)
    9209:	ff ff ff 
    920c:	48 8d 05 f5 7f 01 00 	lea    0x17ff5(%rip),%rax        # 21208 <g_1165>
    9213:	48 89 85 40 e7 ff ff 	mov    %rax,-0x18c0(%rbp)
    921a:	48 8d 05 e7 7f 01 00 	lea    0x17fe7(%rip),%rax        # 21208 <g_1165>
    9221:	48 89 85 48 e7 ff ff 	mov    %rax,-0x18b8(%rbp)
    9228:	48 8d 05 d9 7f 01 00 	lea    0x17fd9(%rip),%rax        # 21208 <g_1165>
    922f:	48 89 85 50 e7 ff ff 	mov    %rax,-0x18b0(%rbp)
    9236:	48 8d 05 cb 7f 01 00 	lea    0x17fcb(%rip),%rax        # 21208 <g_1165>
    923d:	48 89 85 58 e7 ff ff 	mov    %rax,-0x18a8(%rbp)
    9244:	48 8d 05 bd 7f 01 00 	lea    0x17fbd(%rip),%rax        # 21208 <g_1165>
    924b:	48 89 85 60 e7 ff ff 	mov    %rax,-0x18a0(%rbp)
    9252:	48 8d 85 40 e7 ff ff 	lea    -0x18c0(%rbp),%rax
    9259:	48 83 c0 10          	add    $0x10,%rax
    925d:	48 89 85 80 e4 ff ff 	mov    %rax,-0x1b80(%rbp)
    9264:	48 8d 05 c5 7f 01 00 	lea    0x17fc5(%rip),%rax        # 21230 <g_1565>
    926b:	48 89 85 88 e4 ff ff 	mov    %rax,-0x1b78(%rbp)
    9272:	66 c7 05 ad 70 01 00 	movw   $0x0,0x170ad(%rip)        # 20328 <g_138>
    9279:	00 00 
    927b:	e9 8c 07 00 00       	jmpq   9a0c <func_23+0x1888>
    9280:	66 c7 85 56 e2 ff ff 	movw   $0x292f,-0x1daa(%rbp)
    9287:	2f 29 
    9289:	c6 85 5c e2 ff ff 01 	movb   $0x1,-0x1da4(%rbp)
    9290:	0f b6 85 5d e2 ff ff 	movzbl -0x1da3(%rbp),%eax
    9297:	83 e0 c0             	and    $0xffffffc0,%eax
    929a:	83 c8 39             	or     $0x39,%eax
    929d:	88 85 5d e2 ff ff    	mov    %al,-0x1da3(%rbp)
    92a3:	c7 85 cc e2 ff ff f4 	movl   $0xa87c02f4,-0x1d34(%rbp)
    92aa:	02 7c a8 
    92ad:	c7 85 30 e6 ff ff b1 	movl   $0x61ce4ab1,-0x19d0(%rbp)
    92b4:	4a ce 61 
    92b7:	c7 85 34 e6 ff ff b1 	movl   $0x61ce4ab1,-0x19cc(%rbp)
    92be:	4a ce 61 
    92c1:	c7 85 38 e6 ff ff b1 	movl   $0x61ce4ab1,-0x19c8(%rbp)
    92c8:	4a ce 61 
    92cb:	c7 85 3c e6 ff ff b1 	movl   $0x61ce4ab1,-0x19c4(%rbp)
    92d2:	4a ce 61 
    92d5:	c7 85 40 e6 ff ff b1 	movl   $0x61ce4ab1,-0x19c0(%rbp)
    92dc:	4a ce 61 
    92df:	c7 05 bf 71 01 00 00 	movl   $0x0,0x171bf(%rip)        # 204a8 <g_1068>
    92e6:	00 00 00 
    92e9:	e9 c2 00 00 00       	jmpq   93b0 <func_23+0x122c>
    92ee:	48 8d 05 43 7f 01 00 	lea    0x17f43(%rip),%rax        # 21238 <g_1564>
    92f5:	48 89 85 90 e4 ff ff 	mov    %rax,-0x1b70(%rbp)
    92fc:	48 8d 05 05 7f 01 00 	lea    0x17f05(%rip),%rax        # 21208 <g_1165>
    9303:	48 89 85 98 e4 ff ff 	mov    %rax,-0x1b68(%rbp)
    930a:	c7 85 d0 e2 ff ff 02 	movl   $0x2,-0x1d30(%rbp)
    9311:	00 00 00 
    9314:	48 8b 85 38 e2 ff ff 	mov    -0x1dc8(%rbp),%rax
    931b:	48 8b 00             	mov    (%rax),%rax
    931e:	8b 00                	mov    (%rax),%eax
    9320:	85 c0                	test   %eax,%eax
    9322:	0f 85 99 00 00 00    	jne    93c1 <func_23+0x123d>
    9328:	66 c7 05 13 96 01 00 	movw   $0xffe5,0x19613(%rip)        # 22944 <g_1929>
    932f:	e5 ff 
    9331:	90                   	nop
    9332:	0f b7 05 0b 96 01 00 	movzwl 0x1960b(%rip),%eax        # 22944 <g_1929>
    9339:	66 83 f8 f8          	cmp    $0xfff8,%ax
    933d:	7c 3c                	jl     937b <func_23+0x11f7>
    933f:	48 8b 85 30 e2 ff ff 	mov    -0x1dd0(%rbp),%rax
    9346:	8b 00                	mov    (%rax),%eax
    9348:	85 c0                	test   %eax,%eax
    934a:	75 2e                	jne    937a <func_23+0x11f6>
    934c:	bf 68 00 00 00       	mov    $0x68,%edi
    9351:	e8 93 d9 ff ff       	callq  6ce9 <safe_unary_minus_func_uint16_t_u>
    9356:	48 8b 95 20 e4 ff ff 	mov    -0x1be0(%rbp),%rdx
    935d:	8b 12                	mov    (%rdx),%edx
    935f:	0f b7 c0             	movzwl %ax,%eax
    9362:	31 c2                	xor    %eax,%edx
    9364:	48 8b 85 20 e4 ff ff 	mov    -0x1be0(%rbp),%rax
    936b:	89 10                	mov    %edx,(%rax)
    936d:	8b 85 d0 e2 ff ff    	mov    -0x1d30(%rbp),%eax
    9373:	48 98                	cltq   
    9375:	e9 66 19 00 00       	jmpq   ace0 <func_23+0x2b5c>
    937a:	90                   	nop
    937b:	48 8b 85 20 e4 ff ff 	mov    -0x1be0(%rbp),%rax
    9382:	8b 00                	mov    (%rax),%eax
    9384:	23 85 70 e2 ff ff    	and    -0x1d90(%rbp),%eax
    938a:	89 c2                	mov    %eax,%edx
    938c:	48 8b 85 20 e4 ff ff 	mov    -0x1be0(%rbp),%rax
    9393:	89 10                	mov    %edx,(%rax)
    9395:	8b 05 0d 71 01 00    	mov    0x1710d(%rip),%eax        # 204a8 <g_1068>
    939b:	89 c0                	mov    %eax,%eax
    939d:	be 07 00 00 00       	mov    $0x7,%esi
    93a2:	48 89 c7             	mov    %rax,%rdi
    93a5:	e8 97 d4 ff ff       	callq  6841 <safe_add_func_int64_t_s_s>
    93aa:	89 05 f8 70 01 00    	mov    %eax,0x170f8(%rip)        # 204a8 <g_1068>
    93b0:	8b 05 f2 70 01 00    	mov    0x170f2(%rip),%eax        # 204a8 <g_1068>
    93b6:	83 f8 02             	cmp    $0x2,%eax
    93b9:	0f 84 2f ff ff ff    	je     92ee <func_23+0x116a>
    93bf:	eb 01                	jmp    93c2 <func_23+0x123e>
    93c1:	90                   	nop
    93c2:	48 c7 05 eb 70 01 00 	movq   $0x0,0x170eb(%rip)        # 204b8 <g_1246>
    93c9:	00 00 00 00 
    93cd:	e9 08 06 00 00       	jmpq   99da <func_23+0x1856>
    93d2:	48 c7 85 a0 e4 ff ff 	movq   $0xffffffffffffffff,-0x1b60(%rbp)
    93d9:	ff ff ff ff 
    93dd:	c7 85 80 e6 ff ff 10 	movl   $0x91bda10,-0x1980(%rbp)
    93e4:	da 1b 09 
    93e7:	c7 85 84 e6 ff ff e4 	movl   $0x81b129e4,-0x197c(%rbp)
    93ee:	29 b1 81 
    93f1:	c7 85 88 e6 ff ff e4 	movl   $0x81b129e4,-0x1978(%rbp)
    93f8:	29 b1 81 
    93fb:	c7 85 8c e6 ff ff 10 	movl   $0x91bda10,-0x1974(%rbp)
    9402:	da 1b 09 
    9405:	c7 85 90 e6 ff ff e4 	movl   $0x81b129e4,-0x1970(%rbp)
    940c:	29 b1 81 
    940f:	c7 85 94 e6 ff ff e4 	movl   $0x81b129e4,-0x196c(%rbp)
    9416:	29 b1 81 
    9419:	48 c7 85 a8 e4 ff ff 	movq   $0x0,-0x1b58(%rbp)
    9420:	00 00 00 00 
    9424:	48 8b 05 35 7a 01 00 	mov    0x17a35(%rip),%rax        # 20e60 <g_579>
    942b:	48 8b 10             	mov    (%rax),%rdx
    942e:	48 8b 05 23 7a 01 00 	mov    0x17a23(%rip),%rax        # 20e58 <g_580>
    9435:	8b 12                	mov    (%rdx),%edx
    9437:	89 10                	mov    %edx,(%rax)
    9439:	8b 00                	mov    (%rax),%eax
    943b:	3d 94 a5 07 a5       	cmp    $0xa507a594,%eax
    9440:	0f 86 ab 01 00 00    	jbe    95f1 <func_23+0x146d>
    9446:	c6 85 47 e2 ff ff ee 	movb   $0xee,-0x1db9(%rbp)
    944d:	c7 85 d4 e2 ff ff 01 	movl   $0x1,-0x1d2c(%rbp)
    9454:	00 00 00 
    9457:	c7 85 70 f8 ff ff ff 	movl   $0xffffffff,-0x790(%rbp)
    945e:	ff ff ff 
    9461:	c7 85 74 f8 ff ff b0 	movl   $0xa28392b0,-0x78c(%rbp)
    9468:	92 83 a2 
    946b:	c7 85 78 f8 ff ff ff 	movl   $0xffffffff,-0x788(%rbp)
    9472:	ff ff ff 
    9475:	c7 85 7c f8 ff ff fd 	movl   $0xfffffffd,-0x784(%rbp)
    947c:	ff ff ff 
    947f:	c7 85 80 f8 ff ff fd 	movl   $0xfffffffd,-0x780(%rbp)
    9486:	ff ff ff 
    9489:	c7 85 84 f8 ff ff ff 	movl   $0xffffffff,-0x77c(%rbp)
    9490:	ff ff ff 
    9493:	c7 85 88 f8 ff ff b0 	movl   $0xa28392b0,-0x778(%rbp)
    949a:	92 83 a2 
    949d:	c7 85 8c f8 ff ff ff 	movl   $0xffffffff,-0x774(%rbp)
    94a4:	ff ff ff 
    94a7:	c7 85 90 f8 ff ff ff 	movl   $0xffffffff,-0x770(%rbp)
    94ae:	ff ff ff 
    94b1:	c7 85 94 f8 ff ff fd 	movl   $0xfffffffd,-0x76c(%rbp)
    94b8:	ff ff ff 
    94bb:	c7 85 98 f8 ff ff e6 	movl   $0xef9375e6,-0x768(%rbp)
    94c2:	75 93 ef 
    94c5:	c7 85 9c f8 ff ff fd 	movl   $0xfffffffd,-0x764(%rbp)
    94cc:	ff ff ff 
    94cf:	c7 85 a0 f8 ff ff ff 	movl   $0xffffffff,-0x760(%rbp)
    94d6:	ff ff ff 
    94d9:	c7 85 a4 f8 ff ff ff 	movl   $0xffffffff,-0x75c(%rbp)
    94e0:	ff ff ff 
    94e3:	c7 85 a8 f8 ff ff fd 	movl   $0xfffffffd,-0x758(%rbp)
    94ea:	ff ff ff 
    94ed:	c7 85 ac f8 ff ff e6 	movl   $0xef9375e6,-0x754(%rbp)
    94f4:	75 93 ef 
    94f7:	c7 85 b0 f8 ff ff ff 	movl   $0xffffffff,-0x750(%rbp)
    94fe:	ff ff ff 
    9501:	c7 85 b4 f8 ff ff ff 	movl   $0xffffffff,-0x74c(%rbp)
    9508:	ff ff ff 
    950b:	c7 85 b8 f8 ff ff fd 	movl   $0xfffffffd,-0x748(%rbp)
    9512:	ff ff ff 
    9515:	c7 85 bc f8 ff ff e6 	movl   $0xef9375e6,-0x744(%rbp)
    951c:	75 93 ef 
    951f:	c7 85 c0 f8 ff ff fd 	movl   $0xfffffffd,-0x740(%rbp)
    9526:	ff ff ff 
    9529:	c7 85 c4 f8 ff ff ff 	movl   $0xffffffff,-0x73c(%rbp)
    9530:	ff ff ff 
    9533:	c7 85 c8 f8 ff ff ff 	movl   $0xffffffff,-0x738(%rbp)
    953a:	ff ff ff 
    953d:	c7 85 cc f8 ff ff fd 	movl   $0xfffffffd,-0x734(%rbp)
    9544:	ff ff ff 
    9547:	c7 85 d0 f8 ff ff ff 	movl   $0xffffffff,-0x730(%rbp)
    954e:	ff ff ff 
    9551:	c7 85 d4 f8 ff ff fd 	movl   $0xfffffffd,-0x72c(%rbp)
    9558:	ff ff ff 
    955b:	c7 85 d8 f8 ff ff fd 	movl   $0xfffffffd,-0x728(%rbp)
    9562:	ff ff ff 
    9565:	c7 85 dc f8 ff ff ff 	movl   $0xffffffff,-0x724(%rbp)
    956c:	ff ff ff 
    956f:	c7 85 e0 f8 ff ff b0 	movl   $0xa28392b0,-0x720(%rbp)
    9576:	92 83 a2 
    9579:	c7 85 e4 f8 ff ff ff 	movl   $0xffffffff,-0x71c(%rbp)
    9580:	ff ff ff 
    9583:	c7 85 e8 f8 ff ff fd 	movl   $0xfffffffd,-0x718(%rbp)
    958a:	ff ff ff 
    958d:	c7 85 ec f8 ff ff fd 	movl   $0xfffffffd,-0x714(%rbp)
    9594:	ff ff ff 
    9597:	c7 85 f0 f8 ff ff fd 	movl   $0xfffffffd,-0x710(%rbp)
    959e:	ff ff ff 
    95a1:	c7 85 f4 f8 ff ff b0 	movl   $0xa28392b0,-0x70c(%rbp)
    95a8:	92 83 a2 
    95ab:	c7 85 f8 f8 ff ff e6 	movl   $0xef9375e6,-0x708(%rbp)
    95b2:	75 93 ef 
    95b5:	c7 85 fc f8 ff ff e6 	movl   $0xef9375e6,-0x704(%rbp)
    95bc:	75 93 ef 
    95bf:	c7 85 00 f9 ff ff b0 	movl   $0xa28392b0,-0x700(%rbp)
    95c6:	92 83 a2 
    95c9:	c7 85 04 f9 ff ff fd 	movl   $0xfffffffd,-0x6fc(%rbp)
    95d0:	ff ff ff 
    95d3:	c7 85 08 f9 ff ff b0 	movl   $0xa28392b0,-0x6f8(%rbp)
    95da:	92 83 a2 
    95dd:	c7 85 0c f9 ff ff e6 	movl   $0xef9375e6,-0x6f4(%rbp)
    95e4:	75 93 ef 
    95e7:	48 83 85 60 e3 ff ff 	addq   $0x1,-0x1ca0(%rbp)
    95ee:	01 
    95ef:	eb 11                	jmp    9602 <func_23+0x147e>
    95f1:	48 8b 85 30 e2 ff ff 	mov    -0x1dd0(%rbp),%rax
    95f8:	8b 00                	mov    (%rax),%eax
    95fa:	85 c0                	test   %eax,%eax
    95fc:	0f 85 eb 03 00 00    	jne    99ed <func_23+0x1869>
    9602:	c7 85 64 e2 ff ff 00 	movl   $0x0,-0x1d9c(%rbp)
    9609:	00 00 00 
    960c:	e9 aa 03 00 00       	jmpq   99bb <func_23+0x1837>
    9611:	48 c7 85 48 e3 ff ff 	movq   $0x0,-0x1cb8(%rbp)
    9618:	00 00 00 00 
    961c:	48 8d 85 48 e3 ff ff 	lea    -0x1cb8(%rbp),%rax
    9623:	48 89 85 70 f8 ff ff 	mov    %rax,-0x790(%rbp)
    962a:	48 8d 85 48 e3 ff ff 	lea    -0x1cb8(%rbp),%rax
    9631:	48 89 85 78 f8 ff ff 	mov    %rax,-0x788(%rbp)
    9638:	48 8d 85 48 e3 ff ff 	lea    -0x1cb8(%rbp),%rax
    963f:	48 89 85 80 f8 ff ff 	mov    %rax,-0x780(%rbp)
    9646:	48 8d 85 48 e3 ff ff 	lea    -0x1cb8(%rbp),%rax
    964d:	48 89 85 88 f8 ff ff 	mov    %rax,-0x778(%rbp)
    9654:	48 8d 85 48 e3 ff ff 	lea    -0x1cb8(%rbp),%rax
    965b:	48 89 85 90 f8 ff ff 	mov    %rax,-0x770(%rbp)
    9662:	48 8d 85 48 e3 ff ff 	lea    -0x1cb8(%rbp),%rax
    9669:	48 89 85 98 f8 ff ff 	mov    %rax,-0x768(%rbp)
    9670:	48 8d 85 48 e3 ff ff 	lea    -0x1cb8(%rbp),%rax
    9677:	48 89 85 a0 f8 ff ff 	mov    %rax,-0x760(%rbp)
    967e:	48 8d 85 48 e3 ff ff 	lea    -0x1cb8(%rbp),%rax
    9685:	48 89 85 a8 f8 ff ff 	mov    %rax,-0x758(%rbp)
    968c:	48 c7 85 b0 f8 ff ff 	movq   $0x0,-0x750(%rbp)
    9693:	00 00 00 00 
    9697:	48 8d 85 48 e3 ff ff 	lea    -0x1cb8(%rbp),%rax
    969e:	48 89 85 b8 f8 ff ff 	mov    %rax,-0x748(%rbp)
    96a5:	48 c7 85 c0 f8 ff ff 	movq   $0x0,-0x740(%rbp)
    96ac:	00 00 00 00 
    96b0:	48 8d 85 48 e3 ff ff 	lea    -0x1cb8(%rbp),%rax
    96b7:	48 89 85 c8 f8 ff ff 	mov    %rax,-0x738(%rbp)
    96be:	48 8d 85 48 e3 ff ff 	lea    -0x1cb8(%rbp),%rax
    96c5:	48 89 85 d0 f8 ff ff 	mov    %rax,-0x730(%rbp)
    96cc:	48 8d 85 48 e3 ff ff 	lea    -0x1cb8(%rbp),%rax
    96d3:	48 89 85 d8 f8 ff ff 	mov    %rax,-0x728(%rbp)
    96da:	48 8d 85 48 e3 ff ff 	lea    -0x1cb8(%rbp),%rax
    96e1:	48 89 85 e0 f8 ff ff 	mov    %rax,-0x720(%rbp)
    96e8:	48 8d 85 48 e3 ff ff 	lea    -0x1cb8(%rbp),%rax
    96ef:	48 89 85 e8 f8 ff ff 	mov    %rax,-0x718(%rbp)
    96f6:	48 8d 85 48 e3 ff ff 	lea    -0x1cb8(%rbp),%rax
    96fd:	48 89 85 f0 f8 ff ff 	mov    %rax,-0x710(%rbp)
    9704:	48 8d 85 48 e3 ff ff 	lea    -0x1cb8(%rbp),%rax
    970b:	48 89 85 f8 f8 ff ff 	mov    %rax,-0x708(%rbp)
    9712:	48 8d 85 48 e3 ff ff 	lea    -0x1cb8(%rbp),%rax
    9719:	48 89 85 00 f9 ff ff 	mov    %rax,-0x700(%rbp)
    9720:	48 8d 85 48 e3 ff ff 	lea    -0x1cb8(%rbp),%rax
    9727:	48 89 85 08 f9 ff ff 	mov    %rax,-0x6f8(%rbp)
    972e:	48 8d 85 48 e3 ff ff 	lea    -0x1cb8(%rbp),%rax
    9735:	48 89 85 10 f9 ff ff 	mov    %rax,-0x6f0(%rbp)
    973c:	48 8d 85 48 e3 ff ff 	lea    -0x1cb8(%rbp),%rax
    9743:	48 89 85 18 f9 ff ff 	mov    %rax,-0x6e8(%rbp)
    974a:	48 c7 85 20 f9 ff ff 	movq   $0x0,-0x6e0(%rbp)
    9751:	00 00 00 00 
    9755:	48 8d 85 48 e3 ff ff 	lea    -0x1cb8(%rbp),%rax
    975c:	48 89 85 28 f9 ff ff 	mov    %rax,-0x6d8(%rbp)
    9763:	48 8d 85 48 e3 ff ff 	lea    -0x1cb8(%rbp),%rax
    976a:	48 89 85 30 f9 ff ff 	mov    %rax,-0x6d0(%rbp)
    9771:	48 8d 85 48 e3 ff ff 	lea    -0x1cb8(%rbp),%rax
    9778:	48 89 85 38 f9 ff ff 	mov    %rax,-0x6c8(%rbp)
    977f:	48 8d 85 48 e3 ff ff 	lea    -0x1cb8(%rbp),%rax
    9786:	48 89 85 40 f9 ff ff 	mov    %rax,-0x6c0(%rbp)
    978d:	48 8d 85 48 e3 ff ff 	lea    -0x1cb8(%rbp),%rax
    9794:	48 89 85 48 f9 ff ff 	mov    %rax,-0x6b8(%rbp)
    979b:	48 8d 85 48 e3 ff ff 	lea    -0x1cb8(%rbp),%rax
    97a2:	48 89 85 50 f9 ff ff 	mov    %rax,-0x6b0(%rbp)
    97a9:	48 8d 85 48 e3 ff ff 	lea    -0x1cb8(%rbp),%rax
    97b0:	48 89 85 58 f9 ff ff 	mov    %rax,-0x6a8(%rbp)
    97b7:	48 8d 85 48 e3 ff ff 	lea    -0x1cb8(%rbp),%rax
    97be:	48 89 85 60 f9 ff ff 	mov    %rax,-0x6a0(%rbp)
    97c5:	48 8d 85 48 e3 ff ff 	lea    -0x1cb8(%rbp),%rax
    97cc:	48 89 85 68 f9 ff ff 	mov    %rax,-0x698(%rbp)
    97d3:	48 8d 85 48 e3 ff ff 	lea    -0x1cb8(%rbp),%rax
    97da:	48 89 85 70 f9 ff ff 	mov    %rax,-0x690(%rbp)
    97e1:	48 8d 85 48 e3 ff ff 	lea    -0x1cb8(%rbp),%rax
    97e8:	48 89 85 78 f9 ff ff 	mov    %rax,-0x688(%rbp)
    97ef:	48 8d 85 48 e3 ff ff 	lea    -0x1cb8(%rbp),%rax
    97f6:	48 89 85 80 f9 ff ff 	mov    %rax,-0x680(%rbp)
    97fd:	48 8d 85 48 e3 ff ff 	lea    -0x1cb8(%rbp),%rax
    9804:	48 89 85 88 f9 ff ff 	mov    %rax,-0x678(%rbp)
    980b:	48 8d 85 48 e3 ff ff 	lea    -0x1cb8(%rbp),%rax
    9812:	48 89 85 90 f9 ff ff 	mov    %rax,-0x670(%rbp)
    9819:	48 8d 85 48 e3 ff ff 	lea    -0x1cb8(%rbp),%rax
    9820:	48 89 85 98 f9 ff ff 	mov    %rax,-0x668(%rbp)
    9827:	48 c7 85 a0 f9 ff ff 	movq   $0x0,-0x660(%rbp)
    982e:	00 00 00 00 
    9832:	48 8d 85 48 e3 ff ff 	lea    -0x1cb8(%rbp),%rax
    9839:	48 89 85 a8 f9 ff ff 	mov    %rax,-0x658(%rbp)
    9840:	48 8d 85 48 e3 ff ff 	lea    -0x1cb8(%rbp),%rax
    9847:	48 89 85 b0 f9 ff ff 	mov    %rax,-0x650(%rbp)
    984e:	48 8d 85 48 e3 ff ff 	lea    -0x1cb8(%rbp),%rax
    9855:	48 89 85 b8 f9 ff ff 	mov    %rax,-0x648(%rbp)
    985c:	48 8d 85 48 e3 ff ff 	lea    -0x1cb8(%rbp),%rax
    9863:	48 89 85 c0 f9 ff ff 	mov    %rax,-0x640(%rbp)
    986a:	48 8d 85 48 e3 ff ff 	lea    -0x1cb8(%rbp),%rax
    9871:	48 89 85 c8 f9 ff ff 	mov    %rax,-0x638(%rbp)
    9878:	48 8d 85 48 e3 ff ff 	lea    -0x1cb8(%rbp),%rax
    987f:	48 89 85 d0 f9 ff ff 	mov    %rax,-0x630(%rbp)
    9886:	48 8d 85 48 e3 ff ff 	lea    -0x1cb8(%rbp),%rax
    988d:	48 89 85 d8 f9 ff ff 	mov    %rax,-0x628(%rbp)
    9894:	48 8d 85 48 e3 ff ff 	lea    -0x1cb8(%rbp),%rax
    989b:	48 89 85 e0 f9 ff ff 	mov    %rax,-0x620(%rbp)
    98a2:	48 8d 85 48 e3 ff ff 	lea    -0x1cb8(%rbp),%rax
    98a9:	48 89 85 e8 f9 ff ff 	mov    %rax,-0x618(%rbp)
    98b0:	48 8d 85 48 e3 ff ff 	lea    -0x1cb8(%rbp),%rax
    98b7:	48 89 85 f0 f9 ff ff 	mov    %rax,-0x610(%rbp)
    98be:	48 8d 05 5b 6a 01 00 	lea    0x16a5b(%rip),%rax        # 20320 <g_119>
    98c5:	48 89 85 b0 e4 ff ff 	mov    %rax,-0x1b50(%rbp)
    98cc:	48 8d 85 d8 e2 ff ff 	lea    -0x1d28(%rbp),%rax
    98d3:	48 89 85 b8 e4 ff ff 	mov    %rax,-0x1b48(%rbp)
    98da:	48 c7 85 50 e3 ff ff 	movq   $0x0,-0x1cb0(%rbp)
    98e1:	00 00 00 00 
    98e5:	48 8d 85 50 e3 ff ff 	lea    -0x1cb0(%rbp),%rax
    98ec:	48 89 85 c0 e4 ff ff 	mov    %rax,-0x1b40(%rbp)
    98f3:	83 bd bc e2 ff ff 00 	cmpl   $0x0,-0x1d44(%rbp)
    98fa:	75 3f                	jne    993b <func_23+0x17b7>
    98fc:	48 8b 85 e0 f9 ff ff 	mov    -0x620(%rbp),%rax
    9903:	48 39 85 80 e4 ff ff 	cmp    %rax,-0x1b80(%rbp)
    990a:	0f 95 c0             	setne  %al
    990d:	88 05 2d 6a 01 00    	mov    %al,0x16a2d(%rip)        # 20340 <g_257>
    9913:	0f b6 15 26 6a 01 00 	movzbl 0x16a26(%rip),%edx        # 20340 <g_257>
    991a:	48 8b 85 b0 e4 ff ff 	mov    -0x1b50(%rbp),%rax
    9921:	88 10                	mov    %dl,(%rax)
    9923:	8b 85 bc e2 ff ff    	mov    -0x1d44(%rbp),%eax
    9929:	48 98                	cltq   
    992b:	48 89 c6             	mov    %rax,%rsi
    992e:	bf 00 00 00 00       	mov    $0x0,%edi
    9933:	e8 48 d7 ff ff       	callq  7080 <safe_mod_func_uint64_t_u_u>
    9938:	48 85 c0             	test   %rax,%rax
    993b:	48 8b 85 b8 e4 ff ff 	mov    -0x1b48(%rbp),%rax
    9942:	48 8b 00             	mov    (%rax),%rax
    9945:	48 8d 50 ff          	lea    -0x1(%rax),%rdx
    9949:	48 8b 85 b8 e4 ff ff 	mov    -0x1b48(%rbp),%rax
    9950:	48 89 10             	mov    %rdx,(%rax)
    9953:	48 8b 85 88 e4 ff ff 	mov    -0x1b78(%rbp),%rax
    995a:	48 89 85 a8 e4 ff ff 	mov    %rax,-0x1b58(%rbp)
    9961:	48 8b 85 a8 e4 ff ff 	mov    -0x1b58(%rbp),%rax
    9968:	48 3b 85 28 e4 ff ff 	cmp    -0x1bd8(%rbp),%rax
    996f:	75 10                	jne    9981 <func_23+0x17fd>
    9971:	83 bd b8 e2 ff ff 00 	cmpl   $0x0,-0x1d48(%rbp)
    9978:	74 07                	je     9981 <func_23+0x17fd>
    997a:	b8 01 00 00 00       	mov    $0x1,%eax
    997f:	eb 05                	jmp    9986 <func_23+0x1802>
    9981:	b8 00 00 00 00       	mov    $0x0,%eax
    9986:	0f be c0             	movsbl %al,%eax
    9989:	be 04 00 00 00       	mov    $0x4,%esi
    998e:	89 c7                	mov    %eax,%edi
    9990:	e8 59 c9 ff ff       	callq  62ee <safe_lshift_func_int8_t_s_u>
    9995:	48 8b 85 c0 e4 ff ff 	mov    -0x1b40(%rbp),%rax
    999c:	48 c7 00 00 00 00 00 	movq   $0x0,(%rax)
    99a3:	8b 85 64 e2 ff ff    	mov    -0x1d9c(%rbp),%eax
    99a9:	be 01 00 00 00       	mov    $0x1,%esi
    99ae:	89 c7                	mov    %eax,%edi
    99b0:	e8 03 d5 ff ff       	callq  6eb8 <safe_add_func_uint32_t_u_u>
    99b5:	89 85 64 e2 ff ff    	mov    %eax,-0x1d9c(%rbp)
    99bb:	83 bd 64 e2 ff ff 0e 	cmpl   $0xe,-0x1d9c(%rbp)
    99c2:	0f 84 49 fc ff ff    	je     9611 <func_23+0x148d>
    99c8:	48 8b 05 e9 6a 01 00 	mov    0x16ae9(%rip),%rax        # 204b8 <g_1246>
    99cf:	48 83 c0 01          	add    $0x1,%rax
    99d3:	48 89 05 de 6a 01 00 	mov    %rax,0x16ade(%rip)        # 204b8 <g_1246>
    99da:	48 8b 05 d7 6a 01 00 	mov    0x16ad7(%rip),%rax        # 204b8 <g_1246>
    99e1:	48 83 f8 16          	cmp    $0x16,%rax
    99e5:	0f 84 e7 f9 ff ff    	je     93d2 <func_23+0x124e>
    99eb:	eb 01                	jmp    99ee <func_23+0x186a>
    99ed:	90                   	nop
    99ee:	0f b7 05 33 69 01 00 	movzwl 0x16933(%rip),%eax        # 20328 <g_138>
    99f5:	0f b7 c0             	movzwl %ax,%eax
    99f8:	be 07 00 00 00       	mov    $0x7,%esi
    99fd:	48 89 c7             	mov    %rax,%rdi
    9a00:	e8 3c ce ff ff       	callq  6841 <safe_add_func_int64_t_s_s>
    9a05:	66 89 05 1c 69 01 00 	mov    %ax,0x1691c(%rip)        # 20328 <g_138>
    9a0c:	0f b7 05 15 69 01 00 	movzwl 0x16915(%rip),%eax        # 20328 <g_138>
    9a13:	66 83 f8 14          	cmp    $0x14,%ax
    9a17:	0f 84 63 f8 ff ff    	je     9280 <func_23+0x10fc>
    9a1d:	48 83 ad 58 e3 ff ff 	subq   $0x1,-0x1ca8(%rbp)
    9a24:	01 
    9a25:	8b 05 8d 8e 01 00    	mov    0x18e8d(%rip),%eax        # 228b8 <g_165>
    9a2b:	be 04 00 00 00       	mov    $0x4,%esi
    9a30:	89 c7                	mov    %eax,%edi
    9a32:	e8 7f cb ff ff       	callq  65b6 <safe_add_func_int32_t_s_s>
    9a37:	89 05 7b 8e 01 00    	mov    %eax,0x18e7b(%rip)        # 228b8 <g_165>
    9a3d:	8b 05 75 8e 01 00    	mov    0x18e75(%rip),%eax        # 228b8 <g_165>
    9a43:	83 f8 26             	cmp    $0x26,%eax
    9a46:	0f 87 70 f7 ff ff    	ja     91bc <func_23+0x1038>
    9a4c:	66 c7 05 1b 69 01 00 	movw   $0x1,0x1691b(%rip)        # 20370 <g_597>
    9a53:	01 00 
    9a55:	e9 38 03 00 00       	jmpq   9d92 <func_23+0x1c0e>
    9a5a:	c7 85 a8 e2 ff ff c5 	movl   $0x27682c5,-0x1d58(%rbp)
    9a61:	82 76 02 
    9a64:	48 c7 85 50 e4 ff ff 	movq   $0x0,-0x1bb0(%rbp)
    9a6b:	00 00 00 00 
    9a6f:	c7 85 ac e2 ff ff ff 	movl   $0xffffffff,-0x1d54(%rbp)
    9a76:	ff ff ff 
    9a79:	48 8d 05 00 6a 01 00 	lea    0x16a00(%rip),%rax        # 20480 <g_958+0x10>
    9a80:	48 89 85 58 e4 ff ff 	mov    %rax,-0x1ba8(%rbp)
    9a87:	48 8d 05 7a 77 01 00 	lea    0x1777a(%rip),%rax        # 21208 <g_1165>
    9a8e:	48 89 85 60 e4 ff ff 	mov    %rax,-0x1ba0(%rbp)
    9a95:	48 8d 85 40 e3 ff ff 	lea    -0x1cc0(%rbp),%rax
    9a9c:	48 89 85 68 e4 ff ff 	mov    %rax,-0x1b98(%rbp)
    9aa3:	c6 85 50 e3 ff ff 57 	movb   $0x57,-0x1cb0(%rbp)
    9aaa:	0f b6 85 51 e3 ff ff 	movzbl -0x1caf(%rbp),%eax
    9ab1:	83 e0 c0             	and    $0xffffffc0,%eax
    9ab4:	83 c8 03             	or     $0x3,%eax
    9ab7:	88 85 51 e3 ff ff    	mov    %al,-0x1caf(%rbp)
    9abd:	48 c7 85 70 e4 ff ff 	movq   $0xffffffffffffffff,-0x1b90(%rbp)
    9ac4:	ff ff ff ff 
    9ac8:	c7 85 10 e5 ff ff 3f 	movl   $0x17c0c13f,-0x1af0(%rbp)
    9acf:	c1 c0 17 
    9ad2:	c7 85 14 e5 ff ff 3f 	movl   $0x17c0c13f,-0x1aec(%rbp)
    9ad9:	c1 c0 17 
    9adc:	c7 85 18 e5 ff ff 3f 	movl   $0x17c0c13f,-0x1ae8(%rbp)
    9ae3:	c1 c0 17 
    9ae6:	c7 85 1c e5 ff ff 3f 	movl   $0x17c0c13f,-0x1ae4(%rbp)
    9aed:	c1 c0 17 
    9af0:	c7 85 20 e5 ff ff 3f 	movl   $0x17c0c13f,-0x1ae0(%rbp)
    9af7:	c1 c0 17 
    9afa:	c7 85 24 e5 ff ff 3f 	movl   $0x17c0c13f,-0x1adc(%rbp)
    9b01:	c1 c0 17 
    9b04:	c7 85 28 e5 ff ff 3f 	movl   $0x17c0c13f,-0x1ad8(%rbp)
    9b0b:	c1 c0 17 
    9b0e:	c7 85 2c e5 ff ff 3f 	movl   $0x17c0c13f,-0x1ad4(%rbp)
    9b15:	c1 c0 17 
    9b18:	48 c7 85 30 e6 ff ff 	movq   $0x0,-0x19d0(%rbp)
    9b1f:	00 00 00 00 
    9b23:	48 c7 85 38 e6 ff ff 	movq   $0x0,-0x19c8(%rbp)
    9b2a:	00 00 00 00 
    9b2e:	48 c7 85 40 e6 ff ff 	movq   $0x0,-0x19c0(%rbp)
    9b35:	00 00 00 00 
    9b39:	48 c7 85 48 e6 ff ff 	movq   $0x0,-0x19b8(%rbp)
    9b40:	00 00 00 00 
    9b44:	48 c7 85 50 e6 ff ff 	movq   $0x0,-0x19b0(%rbp)
    9b4b:	00 00 00 00 
    9b4f:	48 c7 85 58 e6 ff ff 	movq   $0x0,-0x19a8(%rbp)
    9b56:	00 00 00 00 
    9b5a:	48 c7 85 60 e6 ff ff 	movq   $0x0,-0x19a0(%rbp)
    9b61:	00 00 00 00 
    9b65:	48 c7 85 68 e6 ff ff 	movq   $0x0,-0x1998(%rbp)
    9b6c:	00 00 00 00 
    9b70:	48 c7 85 70 e6 ff ff 	movq   $0x0,-0x1990(%rbp)
    9b77:	00 00 00 00 
    9b7b:	48 c7 85 70 f8 ff ff 	movq   $0x0,-0x790(%rbp)
    9b82:	00 00 00 00 
    9b86:	48 c7 85 78 f8 ff ff 	movq   $0x0,-0x788(%rbp)
    9b8d:	00 00 00 00 
    9b91:	48 c7 85 80 f8 ff ff 	movq   $0x0,-0x780(%rbp)
    9b98:	00 00 00 00 
    9b9c:	48 c7 85 88 f8 ff ff 	movq   $0x0,-0x778(%rbp)
    9ba3:	00 00 00 00 
    9ba7:	48 c7 85 90 f8 ff ff 	movq   $0x0,-0x770(%rbp)
    9bae:	00 00 00 00 
    9bb2:	48 c7 85 98 f8 ff ff 	movq   $0x0,-0x768(%rbp)
    9bb9:	00 00 00 00 
    9bbd:	48 c7 85 a0 f8 ff ff 	movq   $0x0,-0x760(%rbp)
    9bc4:	00 00 00 00 
    9bc8:	48 c7 85 a8 f8 ff ff 	movq   $0x0,-0x758(%rbp)
    9bcf:	00 00 00 00 
    9bd3:	48 c7 85 b0 f8 ff ff 	movq   $0x0,-0x750(%rbp)
    9bda:	00 00 00 00 
    9bde:	48 8d 85 30 e6 ff ff 	lea    -0x19d0(%rbp),%rax
    9be5:	48 83 c0 28          	add    $0x28,%rax
    9be9:	48 89 85 b8 f8 ff ff 	mov    %rax,-0x748(%rbp)
    9bf0:	48 8d 85 30 e6 ff ff 	lea    -0x19d0(%rbp),%rax
    9bf7:	48 83 c0 28          	add    $0x28,%rax
    9bfb:	48 89 85 c0 f8 ff ff 	mov    %rax,-0x740(%rbp)
    9c02:	48 8d 85 30 e6 ff ff 	lea    -0x19d0(%rbp),%rax
    9c09:	48 83 c0 28          	add    $0x28,%rax
    9c0d:	48 89 85 c8 f8 ff ff 	mov    %rax,-0x738(%rbp)
    9c14:	48 8d 85 30 e6 ff ff 	lea    -0x19d0(%rbp),%rax
    9c1b:	48 83 c0 28          	add    $0x28,%rax
    9c1f:	48 89 85 d0 f8 ff ff 	mov    %rax,-0x730(%rbp)
    9c26:	48 8d 85 30 e6 ff ff 	lea    -0x19d0(%rbp),%rax
    9c2d:	48 83 c0 28          	add    $0x28,%rax
    9c31:	48 89 85 d8 f8 ff ff 	mov    %rax,-0x728(%rbp)
    9c38:	48 8d 85 30 e6 ff ff 	lea    -0x19d0(%rbp),%rax
    9c3f:	48 83 c0 28          	add    $0x28,%rax
    9c43:	48 89 85 e0 f8 ff ff 	mov    %rax,-0x720(%rbp)
    9c4a:	48 8d 85 30 e6 ff ff 	lea    -0x19d0(%rbp),%rax
    9c51:	48 83 c0 28          	add    $0x28,%rax
    9c55:	48 89 85 e8 f8 ff ff 	mov    %rax,-0x718(%rbp)
    9c5c:	48 8d 85 30 e6 ff ff 	lea    -0x19d0(%rbp),%rax
    9c63:	48 83 c0 28          	add    $0x28,%rax
    9c67:	48 89 85 f0 f8 ff ff 	mov    %rax,-0x710(%rbp)
    9c6e:	48 8d 85 30 e6 ff ff 	lea    -0x19d0(%rbp),%rax
    9c75:	48 83 c0 28          	add    $0x28,%rax
    9c79:	48 89 85 f8 f8 ff ff 	mov    %rax,-0x708(%rbp)
    9c80:	48 8d 05 21 8d 01 00 	lea    0x18d21(%rip),%rax        # 229a8 <g_2340+0x28>
    9c87:	48 89 85 78 e4 ff ff 	mov    %rax,-0x1b88(%rbp)
    9c8e:	c7 85 68 e2 ff ff 00 	movl   $0x0,-0x1d98(%rbp)
    9c95:	00 00 00 
    9c98:	eb 1e                	jmp    9cb8 <func_23+0x1b34>
    9c9a:	8b 85 68 e2 ff ff    	mov    -0x1d98(%rbp),%eax
    9ca0:	48 98                	cltq   
    9ca2:	48 8d 15 97 66 01 00 	lea    0x16697(%rip),%rdx        # 20340 <g_257>
    9ca9:	48 89 94 c5 40 e7 ff 	mov    %rdx,-0x18c0(%rbp,%rax,8)
    9cb0:	ff 
    9cb1:	83 85 68 e2 ff ff 01 	addl   $0x1,-0x1d98(%rbp)
    9cb8:	83 bd 68 e2 ff ff 09 	cmpl   $0x9,-0x1d98(%rbp)
    9cbf:	7e d9                	jle    9c9a <func_23+0x1b16>
    9cc1:	c7 85 68 e2 ff ff 00 	movl   $0x0,-0x1d98(%rbp)
    9cc8:	00 00 00 
    9ccb:	eb 1b                	jmp    9ce8 <func_23+0x1b64>
    9ccd:	8b 85 68 e2 ff ff    	mov    -0x1d98(%rbp),%eax
    9cd3:	48 98                	cltq   
    9cd5:	48 c7 84 c5 80 e6 ff 	movq   $0x0,-0x1980(%rbp,%rax,8)
    9cdc:	ff 00 00 00 00 
    9ce1:	83 85 68 e2 ff ff 01 	addl   $0x1,-0x1d98(%rbp)
    9ce8:	83 bd 68 e2 ff ff 08 	cmpl   $0x8,-0x1d98(%rbp)
    9cef:	7e dc                	jle    9ccd <func_23+0x1b49>
    9cf1:	c7 85 68 e2 ff ff 00 	movl   $0x0,-0x1d98(%rbp)
    9cf8:	00 00 00 
    9cfb:	eb 19                	jmp    9d16 <func_23+0x1b92>
    9cfd:	8b 85 68 e2 ff ff    	mov    -0x1d98(%rbp),%eax
    9d03:	48 98                	cltq   
    9d05:	66 c7 84 45 cc e4 ff 	movw   $0xfffa,-0x1b34(%rbp,%rax,2)
    9d0c:	ff fa ff 
    9d0f:	83 85 68 e2 ff ff 01 	addl   $0x1,-0x1d98(%rbp)
    9d16:	83 bd 68 e2 ff ff 01 	cmpl   $0x1,-0x1d98(%rbp)
    9d1d:	7e de                	jle    9cfd <func_23+0x1b79>
    9d1f:	c7 85 68 e2 ff ff 00 	movl   $0x0,-0x1d98(%rbp)
    9d26:	00 00 00 
    9d29:	eb 14                	jmp    9d3f <func_23+0x1bbb>
    9d2b:	8b 85 68 e2 ff ff    	mov    -0x1d98(%rbp),%eax
    9d31:	48 98                	cltq   
    9d33:	c6 44 05 f1 cd       	movb   $0xcd,-0xf(%rbp,%rax,1)
    9d38:	83 85 68 e2 ff ff 01 	addl   $0x1,-0x1d98(%rbp)
    9d3f:	83 bd 68 e2 ff ff 06 	cmpl   $0x6,-0x1d98(%rbp)
    9d46:	7e e3                	jle    9d2b <func_23+0x1ba7>
    9d48:	48 8b 85 60 e3 ff ff 	mov    -0x1ca0(%rbp),%rax
    9d4f:	88 05 cb 65 01 00    	mov    %al,0x165cb(%rip)        # 20320 <g_119>
    9d55:	8b 85 a8 e2 ff ff    	mov    -0x1d58(%rbp),%eax
    9d5b:	0f b7 c0             	movzwl %ax,%eax
    9d5e:	be 01 00 00 00       	mov    $0x1,%esi
    9d63:	89 c7                	mov    %eax,%edi
    9d65:	e8 95 cf ff ff       	callq  6cff <safe_add_func_uint16_t_u_u>
    9d6a:	48 8b 95 20 e4 ff ff 	mov    -0x1be0(%rbp),%rdx
    9d71:	8b 12                	mov    (%rdx),%edx
    9d73:	0f b7 c0             	movzwl %ax,%eax
    9d76:	21 c2                	and    %eax,%edx
    9d78:	48 8b 85 20 e4 ff ff 	mov    -0x1be0(%rbp),%rax
    9d7f:	89 10                	mov    %edx,(%rax)
    9d81:	0f b7 05 e8 65 01 00 	movzwl 0x165e8(%rip),%eax        # 20370 <g_597>
    9d88:	83 c0 01             	add    $0x1,%eax
    9d8b:	66 89 05 de 65 01 00 	mov    %ax,0x165de(%rip)        # 20370 <g_597>
    9d92:	0f b7 05 d7 65 01 00 	movzwl 0x165d7(%rip),%eax        # 20370 <g_597>
    9d99:	66 83 f8 0d          	cmp    $0xd,%ax
    9d9d:	0f 85 b7 fc ff ff    	jne    9a5a <func_23+0x18d6>
    9da3:	0f b6 05 8e 65 01 00 	movzbl 0x1658e(%rip),%eax        # 20338 <g_159>
    9daa:	0f b6 c0             	movzbl %al,%eax
    9dad:	be 01 00 00 00       	mov    $0x1,%esi
    9db2:	89 c7                	mov    %eax,%edi
    9db4:	e8 fd c7 ff ff       	callq  65b6 <safe_add_func_int32_t_s_s>
    9db9:	88 05 79 65 01 00    	mov    %al,0x16579(%rip)        # 20338 <g_159>
    9dbf:	0f b6 05 72 65 01 00 	movzbl 0x16572(%rip),%eax        # 20338 <g_159>
    9dc6:	3c 2e                	cmp    $0x2e,%al
    9dc8:	0f 84 b0 f2 ff ff    	je     907e <func_23+0xefa>
    9dce:	c7 05 64 65 01 00 00 	movl   $0x0,0x16564(%rip)        # 2033c <g_163>
    9dd5:	00 00 00 
    9dd8:	e9 da 0e 00 00       	jmpq   acb7 <func_23+0x2b33>
    9ddd:	48 b8 2b 39 6c c5 74 	movabs $0xebe81074c56c392b,%rax
    9de4:	10 e8 eb 
    9de7:	48 89 85 d0 e3 ff ff 	mov    %rax,-0x1c30(%rbp)
    9dee:	c7 85 84 e2 ff ff 9e 	movl   $0x15ba079e,-0x1d7c(%rbp)
    9df5:	07 ba 15 
    9df8:	48 8d 05 39 65 01 00 	lea    0x16539(%rip),%rax        # 20338 <g_159>
    9dff:	48 89 85 d8 e3 ff ff 	mov    %rax,-0x1c28(%rbp)
    9e06:	48 8d 85 f0 e2 ff ff 	lea    -0x1d10(%rbp),%rax
    9e0d:	48 89 85 50 e3 ff ff 	mov    %rax,-0x1cb0(%rbp)
    9e14:	48 8d 85 50 e3 ff ff 	lea    -0x1cb0(%rbp),%rax
    9e1b:	48 89 85 70 f8 ff ff 	mov    %rax,-0x790(%rbp)
    9e22:	48 8d 85 50 e3 ff ff 	lea    -0x1cb0(%rbp),%rax
    9e29:	48 89 85 78 f8 ff ff 	mov    %rax,-0x788(%rbp)
    9e30:	48 8d 85 50 e3 ff ff 	lea    -0x1cb0(%rbp),%rax
    9e37:	48 89 85 80 f8 ff ff 	mov    %rax,-0x780(%rbp)
    9e3e:	48 8d 85 50 e3 ff ff 	lea    -0x1cb0(%rbp),%rax
    9e45:	48 89 85 88 f8 ff ff 	mov    %rax,-0x778(%rbp)
    9e4c:	48 8d 85 50 e3 ff ff 	lea    -0x1cb0(%rbp),%rax
    9e53:	48 89 85 90 f8 ff ff 	mov    %rax,-0x770(%rbp)
    9e5a:	48 c7 85 98 f8 ff ff 	movq   $0x0,-0x768(%rbp)
    9e61:	00 00 00 00 
    9e65:	48 8d 85 50 e3 ff ff 	lea    -0x1cb0(%rbp),%rax
    9e6c:	48 89 85 a0 f8 ff ff 	mov    %rax,-0x760(%rbp)
    9e73:	48 8d 85 50 e3 ff ff 	lea    -0x1cb0(%rbp),%rax
    9e7a:	48 89 85 a8 f8 ff ff 	mov    %rax,-0x758(%rbp)
    9e81:	48 8d 85 50 e3 ff ff 	lea    -0x1cb0(%rbp),%rax
    9e88:	48 89 85 b0 f8 ff ff 	mov    %rax,-0x750(%rbp)
    9e8f:	48 c7 85 b8 f8 ff ff 	movq   $0x0,-0x748(%rbp)
    9e96:	00 00 00 00 
    9e9a:	48 8d 85 50 e3 ff ff 	lea    -0x1cb0(%rbp),%rax
    9ea1:	48 89 85 c0 f8 ff ff 	mov    %rax,-0x740(%rbp)
    9ea8:	48 c7 85 c8 f8 ff ff 	movq   $0x0,-0x738(%rbp)
    9eaf:	00 00 00 00 
    9eb3:	48 8d 85 50 e3 ff ff 	lea    -0x1cb0(%rbp),%rax
    9eba:	48 89 85 d0 f8 ff ff 	mov    %rax,-0x730(%rbp)
    9ec1:	48 8d 85 50 e3 ff ff 	lea    -0x1cb0(%rbp),%rax
    9ec8:	48 89 85 d8 f8 ff ff 	mov    %rax,-0x728(%rbp)
    9ecf:	48 8d 85 50 e3 ff ff 	lea    -0x1cb0(%rbp),%rax
    9ed6:	48 89 85 e0 f8 ff ff 	mov    %rax,-0x720(%rbp)
    9edd:	48 8d 85 50 e3 ff ff 	lea    -0x1cb0(%rbp),%rax
    9ee4:	48 89 85 e8 f8 ff ff 	mov    %rax,-0x718(%rbp)
    9eeb:	48 8d 85 50 e3 ff ff 	lea    -0x1cb0(%rbp),%rax
    9ef2:	48 89 85 f0 f8 ff ff 	mov    %rax,-0x710(%rbp)
    9ef9:	48 8d 85 50 e3 ff ff 	lea    -0x1cb0(%rbp),%rax
    9f00:	48 89 85 f8 f8 ff ff 	mov    %rax,-0x708(%rbp)
    9f07:	48 c7 85 00 f9 ff ff 	movq   $0x0,-0x700(%rbp)
    9f0e:	00 00 00 00 
    9f12:	48 c7 85 08 f9 ff ff 	movq   $0x0,-0x6f8(%rbp)
    9f19:	00 00 00 00 
    9f1d:	48 8d 85 50 e3 ff ff 	lea    -0x1cb0(%rbp),%rax
    9f24:	48 89 85 10 f9 ff ff 	mov    %rax,-0x6f0(%rbp)
    9f2b:	48 8d 85 50 e3 ff ff 	lea    -0x1cb0(%rbp),%rax
    9f32:	48 89 85 18 f9 ff ff 	mov    %rax,-0x6e8(%rbp)
    9f39:	48 8d 85 50 e3 ff ff 	lea    -0x1cb0(%rbp),%rax
    9f40:	48 89 85 20 f9 ff ff 	mov    %rax,-0x6e0(%rbp)
    9f47:	48 8d 85 50 e3 ff ff 	lea    -0x1cb0(%rbp),%rax
    9f4e:	48 89 85 28 f9 ff ff 	mov    %rax,-0x6d8(%rbp)
    9f55:	48 8d 85 50 e3 ff ff 	lea    -0x1cb0(%rbp),%rax
    9f5c:	48 89 85 30 f9 ff ff 	mov    %rax,-0x6d0(%rbp)
    9f63:	48 8d 85 50 e3 ff ff 	lea    -0x1cb0(%rbp),%rax
    9f6a:	48 89 85 38 f9 ff ff 	mov    %rax,-0x6c8(%rbp)
    9f71:	48 8d 85 50 e3 ff ff 	lea    -0x1cb0(%rbp),%rax
    9f78:	48 89 85 40 f9 ff ff 	mov    %rax,-0x6c0(%rbp)
    9f7f:	48 8d 85 50 e3 ff ff 	lea    -0x1cb0(%rbp),%rax
    9f86:	48 89 85 48 f9 ff ff 	mov    %rax,-0x6b8(%rbp)
    9f8d:	48 8d 85 50 e3 ff ff 	lea    -0x1cb0(%rbp),%rax
    9f94:	48 89 85 50 f9 ff ff 	mov    %rax,-0x6b0(%rbp)
    9f9b:	48 8d 85 50 e3 ff ff 	lea    -0x1cb0(%rbp),%rax
    9fa2:	48 89 85 58 f9 ff ff 	mov    %rax,-0x6a8(%rbp)
    9fa9:	48 8d 85 50 e3 ff ff 	lea    -0x1cb0(%rbp),%rax
    9fb0:	48 89 85 60 f9 ff ff 	mov    %rax,-0x6a0(%rbp)
    9fb7:	48 8d 85 50 e3 ff ff 	lea    -0x1cb0(%rbp),%rax
    9fbe:	48 89 85 68 f9 ff ff 	mov    %rax,-0x698(%rbp)
    9fc5:	48 8d 85 50 e3 ff ff 	lea    -0x1cb0(%rbp),%rax
    9fcc:	48 89 85 70 f9 ff ff 	mov    %rax,-0x690(%rbp)
    9fd3:	48 8d 85 50 e3 ff ff 	lea    -0x1cb0(%rbp),%rax
    9fda:	48 89 85 78 f9 ff ff 	mov    %rax,-0x688(%rbp)
    9fe1:	48 8d 85 50 e3 ff ff 	lea    -0x1cb0(%rbp),%rax
    9fe8:	48 89 85 80 f9 ff ff 	mov    %rax,-0x680(%rbp)
    9fef:	48 8d 85 50 e3 ff ff 	lea    -0x1cb0(%rbp),%rax
    9ff6:	48 89 85 88 f9 ff ff 	mov    %rax,-0x678(%rbp)
    9ffd:	48 8d 85 50 e3 ff ff 	lea    -0x1cb0(%rbp),%rax
    a004:	48 89 85 90 f9 ff ff 	mov    %rax,-0x670(%rbp)
    a00b:	48 8d 85 50 e3 ff ff 	lea    -0x1cb0(%rbp),%rax
    a012:	48 89 85 98 f9 ff ff 	mov    %rax,-0x668(%rbp)
    a019:	48 8d 85 50 e3 ff ff 	lea    -0x1cb0(%rbp),%rax
    a020:	48 89 85 a0 f9 ff ff 	mov    %rax,-0x660(%rbp)
    a027:	48 8d 85 50 e3 ff ff 	lea    -0x1cb0(%rbp),%rax
    a02e:	48 89 85 a8 f9 ff ff 	mov    %rax,-0x658(%rbp)
    a035:	48 c7 85 b0 f9 ff ff 	movq   $0x0,-0x650(%rbp)
    a03c:	00 00 00 00 
    a040:	48 8d 85 50 e3 ff ff 	lea    -0x1cb0(%rbp),%rax
    a047:	48 89 85 b8 f9 ff ff 	mov    %rax,-0x648(%rbp)
    a04e:	48 c7 85 c0 f9 ff ff 	movq   $0x0,-0x640(%rbp)
    a055:	00 00 00 00 
    a059:	48 8d 85 50 e3 ff ff 	lea    -0x1cb0(%rbp),%rax
    a060:	48 89 85 c8 f9 ff ff 	mov    %rax,-0x638(%rbp)
    a067:	48 8d 85 50 e3 ff ff 	lea    -0x1cb0(%rbp),%rax
    a06e:	48 89 85 d0 f9 ff ff 	mov    %rax,-0x630(%rbp)
    a075:	48 8d 85 50 e3 ff ff 	lea    -0x1cb0(%rbp),%rax
    a07c:	48 89 85 d8 f9 ff ff 	mov    %rax,-0x628(%rbp)
    a083:	48 8d 85 50 e3 ff ff 	lea    -0x1cb0(%rbp),%rax
    a08a:	48 89 85 e0 f9 ff ff 	mov    %rax,-0x620(%rbp)
    a091:	48 8d 85 50 e3 ff ff 	lea    -0x1cb0(%rbp),%rax
    a098:	48 89 85 e8 f9 ff ff 	mov    %rax,-0x618(%rbp)
    a09f:	48 8d 85 50 e3 ff ff 	lea    -0x1cb0(%rbp),%rax
    a0a6:	48 89 85 f0 f9 ff ff 	mov    %rax,-0x610(%rbp)
    a0ad:	48 8d 85 50 e3 ff ff 	lea    -0x1cb0(%rbp),%rax
    a0b4:	48 89 85 f8 f9 ff ff 	mov    %rax,-0x608(%rbp)
    a0bb:	48 c7 85 00 fa ff ff 	movq   $0x0,-0x600(%rbp)
    a0c2:	00 00 00 00 
    a0c6:	48 8d 85 50 e3 ff ff 	lea    -0x1cb0(%rbp),%rax
    a0cd:	48 89 85 08 fa ff ff 	mov    %rax,-0x5f8(%rbp)
    a0d4:	48 8d 85 50 e3 ff ff 	lea    -0x1cb0(%rbp),%rax
    a0db:	48 89 85 10 fa ff ff 	mov    %rax,-0x5f0(%rbp)
    a0e2:	48 8d 85 50 e3 ff ff 	lea    -0x1cb0(%rbp),%rax
    a0e9:	48 89 85 18 fa ff ff 	mov    %rax,-0x5e8(%rbp)
    a0f0:	48 8d 85 50 e3 ff ff 	lea    -0x1cb0(%rbp),%rax
    a0f7:	48 89 85 20 fa ff ff 	mov    %rax,-0x5e0(%rbp)
    a0fe:	48 8d 85 50 e3 ff ff 	lea    -0x1cb0(%rbp),%rax
    a105:	48 89 85 28 fa ff ff 	mov    %rax,-0x5d8(%rbp)
    a10c:	48 8d 85 50 e3 ff ff 	lea    -0x1cb0(%rbp),%rax
    a113:	48 89 85 30 fa ff ff 	mov    %rax,-0x5d0(%rbp)
    a11a:	48 8d 85 50 e3 ff ff 	lea    -0x1cb0(%rbp),%rax
    a121:	48 89 85 38 fa ff ff 	mov    %rax,-0x5c8(%rbp)
    a128:	48 8d 85 50 e3 ff ff 	lea    -0x1cb0(%rbp),%rax
    a12f:	48 89 85 40 fa ff ff 	mov    %rax,-0x5c0(%rbp)
    a136:	48 8d 85 50 e3 ff ff 	lea    -0x1cb0(%rbp),%rax
    a13d:	48 89 85 48 fa ff ff 	mov    %rax,-0x5b8(%rbp)
    a144:	48 c7 85 50 fa ff ff 	movq   $0x0,-0x5b0(%rbp)
    a14b:	00 00 00 00 
    a14f:	48 c7 85 58 fa ff ff 	movq   $0x0,-0x5a8(%rbp)
    a156:	00 00 00 00 
    a15a:	48 8d 85 50 e3 ff ff 	lea    -0x1cb0(%rbp),%rax
    a161:	48 89 85 60 fa ff ff 	mov    %rax,-0x5a0(%rbp)
    a168:	48 8d 85 50 e3 ff ff 	lea    -0x1cb0(%rbp),%rax
    a16f:	48 89 85 68 fa ff ff 	mov    %rax,-0x598(%rbp)
    a176:	48 8d 85 50 e3 ff ff 	lea    -0x1cb0(%rbp),%rax
    a17d:	48 89 85 70 fa ff ff 	mov    %rax,-0x590(%rbp)
    a184:	48 8d 85 50 e3 ff ff 	lea    -0x1cb0(%rbp),%rax
    a18b:	48 89 85 78 fa ff ff 	mov    %rax,-0x588(%rbp)
    a192:	48 8d 85 50 e3 ff ff 	lea    -0x1cb0(%rbp),%rax
    a199:	48 89 85 80 fa ff ff 	mov    %rax,-0x580(%rbp)
    a1a0:	48 8d 85 50 e3 ff ff 	lea    -0x1cb0(%rbp),%rax
    a1a7:	48 89 85 88 fa ff ff 	mov    %rax,-0x578(%rbp)
    a1ae:	48 8d 85 50 e3 ff ff 	lea    -0x1cb0(%rbp),%rax
    a1b5:	48 89 85 90 fa ff ff 	mov    %rax,-0x570(%rbp)
    a1bc:	48 8d 85 50 e3 ff ff 	lea    -0x1cb0(%rbp),%rax
    a1c3:	48 89 85 98 fa ff ff 	mov    %rax,-0x568(%rbp)
    a1ca:	48 8d 85 50 e3 ff ff 	lea    -0x1cb0(%rbp),%rax
    a1d1:	48 89 85 a0 fa ff ff 	mov    %rax,-0x560(%rbp)
    a1d8:	48 8d 85 50 e3 ff ff 	lea    -0x1cb0(%rbp),%rax
    a1df:	48 89 85 a8 fa ff ff 	mov    %rax,-0x558(%rbp)
    a1e6:	48 c7 85 b0 fa ff ff 	movq   $0x0,-0x550(%rbp)
    a1ed:	00 00 00 00 
    a1f1:	48 8d 85 50 e3 ff ff 	lea    -0x1cb0(%rbp),%rax
    a1f8:	48 89 85 b8 fa ff ff 	mov    %rax,-0x548(%rbp)
    a1ff:	48 8d 85 50 e3 ff ff 	lea    -0x1cb0(%rbp),%rax
    a206:	48 89 85 c0 fa ff ff 	mov    %rax,-0x540(%rbp)
    a20d:	48 8d 85 50 e3 ff ff 	lea    -0x1cb0(%rbp),%rax
    a214:	48 89 85 c8 fa ff ff 	mov    %rax,-0x538(%rbp)
    a21b:	48 8d 85 50 e3 ff ff 	lea    -0x1cb0(%rbp),%rax
    a222:	48 89 85 d0 fa ff ff 	mov    %rax,-0x530(%rbp)
    a229:	48 c7 85 d8 fa ff ff 	movq   $0x0,-0x528(%rbp)
    a230:	00 00 00 00 
    a234:	48 c7 85 e0 fa ff ff 	movq   $0x0,-0x520(%rbp)
    a23b:	00 00 00 00 
    a23f:	48 8d 85 50 e3 ff ff 	lea    -0x1cb0(%rbp),%rax
    a246:	48 89 85 e8 fa ff ff 	mov    %rax,-0x518(%rbp)
    a24d:	48 c7 85 f0 fa ff ff 	movq   $0x0,-0x510(%rbp)
    a254:	00 00 00 00 
    a258:	48 8d 85 50 e3 ff ff 	lea    -0x1cb0(%rbp),%rax
    a25f:	48 89 85 f8 fa ff ff 	mov    %rax,-0x508(%rbp)
    a266:	48 8d 85 50 e3 ff ff 	lea    -0x1cb0(%rbp),%rax
    a26d:	48 89 85 00 fb ff ff 	mov    %rax,-0x500(%rbp)
    a274:	48 8d 85 50 e3 ff ff 	lea    -0x1cb0(%rbp),%rax
    a27b:	48 89 85 08 fb ff ff 	mov    %rax,-0x4f8(%rbp)
    a282:	48 8d 85 50 e3 ff ff 	lea    -0x1cb0(%rbp),%rax
    a289:	48 89 85 10 fb ff ff 	mov    %rax,-0x4f0(%rbp)
    a290:	48 8d 85 50 e3 ff ff 	lea    -0x1cb0(%rbp),%rax
    a297:	48 89 85 18 fb ff ff 	mov    %rax,-0x4e8(%rbp)
    a29e:	48 8d 85 50 e3 ff ff 	lea    -0x1cb0(%rbp),%rax
    a2a5:	48 89 85 20 fb ff ff 	mov    %rax,-0x4e0(%rbp)
    a2ac:	48 8d 85 50 e3 ff ff 	lea    -0x1cb0(%rbp),%rax
    a2b3:	48 89 85 28 fb ff ff 	mov    %rax,-0x4d8(%rbp)
    a2ba:	48 8d 85 50 e3 ff ff 	lea    -0x1cb0(%rbp),%rax
    a2c1:	48 89 85 30 fb ff ff 	mov    %rax,-0x4d0(%rbp)
    a2c8:	48 c7 85 38 fb ff ff 	movq   $0x0,-0x4c8(%rbp)
    a2cf:	00 00 00 00 
    a2d3:	48 8d 85 50 e3 ff ff 	lea    -0x1cb0(%rbp),%rax
    a2da:	48 89 85 40 fb ff ff 	mov    %rax,-0x4c0(%rbp)
    a2e1:	48 8d 85 50 e3 ff ff 	lea    -0x1cb0(%rbp),%rax
    a2e8:	48 89 85 48 fb ff ff 	mov    %rax,-0x4b8(%rbp)
    a2ef:	48 8d 85 50 e3 ff ff 	lea    -0x1cb0(%rbp),%rax
    a2f6:	48 89 85 50 fb ff ff 	mov    %rax,-0x4b0(%rbp)
    a2fd:	48 8d 85 50 e3 ff ff 	lea    -0x1cb0(%rbp),%rax
    a304:	48 89 85 58 fb ff ff 	mov    %rax,-0x4a8(%rbp)
    a30b:	48 8d 85 50 e3 ff ff 	lea    -0x1cb0(%rbp),%rax
    a312:	48 89 85 60 fb ff ff 	mov    %rax,-0x4a0(%rbp)
    a319:	48 c7 85 68 fb ff ff 	movq   $0x0,-0x498(%rbp)
    a320:	00 00 00 00 
    a324:	48 c7 85 70 fb ff ff 	movq   $0x0,-0x490(%rbp)
    a32b:	00 00 00 00 
    a32f:	48 8d 85 50 e3 ff ff 	lea    -0x1cb0(%rbp),%rax
    a336:	48 89 85 78 fb ff ff 	mov    %rax,-0x488(%rbp)
    a33d:	48 8d 85 50 e3 ff ff 	lea    -0x1cb0(%rbp),%rax
    a344:	48 89 85 80 fb ff ff 	mov    %rax,-0x480(%rbp)
    a34b:	48 8d 85 50 e3 ff ff 	lea    -0x1cb0(%rbp),%rax
    a352:	48 89 85 88 fb ff ff 	mov    %rax,-0x478(%rbp)
    a359:	48 8d 85 50 e3 ff ff 	lea    -0x1cb0(%rbp),%rax
    a360:	48 89 85 90 fb ff ff 	mov    %rax,-0x470(%rbp)
    a367:	48 8d 85 50 e3 ff ff 	lea    -0x1cb0(%rbp),%rax
    a36e:	48 89 85 98 fb ff ff 	mov    %rax,-0x468(%rbp)
    a375:	48 8d 85 50 e3 ff ff 	lea    -0x1cb0(%rbp),%rax
    a37c:	48 89 85 a0 fb ff ff 	mov    %rax,-0x460(%rbp)
    a383:	48 8d 85 50 e3 ff ff 	lea    -0x1cb0(%rbp),%rax
    a38a:	48 89 85 a8 fb ff ff 	mov    %rax,-0x458(%rbp)
    a391:	48 8d 85 50 e3 ff ff 	lea    -0x1cb0(%rbp),%rax
    a398:	48 89 85 b0 fb ff ff 	mov    %rax,-0x450(%rbp)
    a39f:	48 8d 85 50 e3 ff ff 	lea    -0x1cb0(%rbp),%rax
    a3a6:	48 89 85 b8 fb ff ff 	mov    %rax,-0x448(%rbp)
    a3ad:	48 8d 85 50 e3 ff ff 	lea    -0x1cb0(%rbp),%rax
    a3b4:	48 89 85 c0 fb ff ff 	mov    %rax,-0x440(%rbp)
    a3bb:	48 8d 85 50 e3 ff ff 	lea    -0x1cb0(%rbp),%rax
    a3c2:	48 89 85 c8 fb ff ff 	mov    %rax,-0x438(%rbp)
    a3c9:	48 8d 85 50 e3 ff ff 	lea    -0x1cb0(%rbp),%rax
    a3d0:	48 89 85 d0 fb ff ff 	mov    %rax,-0x430(%rbp)
    a3d7:	48 8d 85 50 e3 ff ff 	lea    -0x1cb0(%rbp),%rax
    a3de:	48 89 85 d8 fb ff ff 	mov    %rax,-0x428(%rbp)
    a3e5:	48 8d 85 50 e3 ff ff 	lea    -0x1cb0(%rbp),%rax
    a3ec:	48 89 85 e0 fb ff ff 	mov    %rax,-0x420(%rbp)
    a3f3:	48 8d 85 50 e3 ff ff 	lea    -0x1cb0(%rbp),%rax
    a3fa:	48 89 85 e8 fb ff ff 	mov    %rax,-0x418(%rbp)
    a401:	48 c7 85 f0 fb ff ff 	movq   $0x0,-0x410(%rbp)
    a408:	00 00 00 00 
    a40c:	48 8d 85 50 e3 ff ff 	lea    -0x1cb0(%rbp),%rax
    a413:	48 89 85 f8 fb ff ff 	mov    %rax,-0x408(%rbp)
    a41a:	48 c7 85 00 fc ff ff 	movq   $0x0,-0x400(%rbp)
    a421:	00 00 00 00 
    a425:	48 8d 85 50 e3 ff ff 	lea    -0x1cb0(%rbp),%rax
    a42c:	48 89 85 08 fc ff ff 	mov    %rax,-0x3f8(%rbp)
    a433:	48 8d 85 50 e3 ff ff 	lea    -0x1cb0(%rbp),%rax
    a43a:	48 89 85 10 fc ff ff 	mov    %rax,-0x3f0(%rbp)
    a441:	48 8d 85 50 e3 ff ff 	lea    -0x1cb0(%rbp),%rax
    a448:	48 89 85 18 fc ff ff 	mov    %rax,-0x3e8(%rbp)
    a44f:	48 8d 85 50 e3 ff ff 	lea    -0x1cb0(%rbp),%rax
    a456:	48 89 85 20 fc ff ff 	mov    %rax,-0x3e0(%rbp)
    a45d:	48 8d 85 50 e3 ff ff 	lea    -0x1cb0(%rbp),%rax
    a464:	48 89 85 28 fc ff ff 	mov    %rax,-0x3d8(%rbp)
    a46b:	48 c7 85 30 fc ff ff 	movq   $0x0,-0x3d0(%rbp)
    a472:	00 00 00 00 
    a476:	48 8d 85 50 e3 ff ff 	lea    -0x1cb0(%rbp),%rax
    a47d:	48 89 85 38 fc ff ff 	mov    %rax,-0x3c8(%rbp)
    a484:	48 8d 85 50 e3 ff ff 	lea    -0x1cb0(%rbp),%rax
    a48b:	48 89 85 40 fc ff ff 	mov    %rax,-0x3c0(%rbp)
    a492:	48 8d 85 50 e3 ff ff 	lea    -0x1cb0(%rbp),%rax
    a499:	48 89 85 48 fc ff ff 	mov    %rax,-0x3b8(%rbp)
    a4a0:	48 8d 85 50 e3 ff ff 	lea    -0x1cb0(%rbp),%rax
    a4a7:	48 89 85 50 fc ff ff 	mov    %rax,-0x3b0(%rbp)
    a4ae:	48 c7 85 58 fc ff ff 	movq   $0x0,-0x3a8(%rbp)
    a4b5:	00 00 00 00 
    a4b9:	48 8d 85 50 e3 ff ff 	lea    -0x1cb0(%rbp),%rax
    a4c0:	48 89 85 60 fc ff ff 	mov    %rax,-0x3a0(%rbp)
    a4c7:	48 8d 85 50 e3 ff ff 	lea    -0x1cb0(%rbp),%rax
    a4ce:	48 89 85 68 fc ff ff 	mov    %rax,-0x398(%rbp)
    a4d5:	48 8d 85 50 e3 ff ff 	lea    -0x1cb0(%rbp),%rax
    a4dc:	48 89 85 70 fc ff ff 	mov    %rax,-0x390(%rbp)
    a4e3:	48 8d 85 50 e3 ff ff 	lea    -0x1cb0(%rbp),%rax
    a4ea:	48 89 85 78 fc ff ff 	mov    %rax,-0x388(%rbp)
    a4f1:	48 8d 85 50 e3 ff ff 	lea    -0x1cb0(%rbp),%rax
    a4f8:	48 89 85 80 fc ff ff 	mov    %rax,-0x380(%rbp)
    a4ff:	48 8d 85 50 e3 ff ff 	lea    -0x1cb0(%rbp),%rax
    a506:	48 89 85 88 fc ff ff 	mov    %rax,-0x378(%rbp)
    a50d:	48 c7 85 90 fc ff ff 	movq   $0x0,-0x370(%rbp)
    a514:	00 00 00 00 
    a518:	48 8d 85 50 e3 ff ff 	lea    -0x1cb0(%rbp),%rax
    a51f:	48 89 85 98 fc ff ff 	mov    %rax,-0x368(%rbp)
    a526:	48 8d 85 50 e3 ff ff 	lea    -0x1cb0(%rbp),%rax
    a52d:	48 89 85 a0 fc ff ff 	mov    %rax,-0x360(%rbp)
    a534:	48 8d 85 50 e3 ff ff 	lea    -0x1cb0(%rbp),%rax
    a53b:	48 89 85 a8 fc ff ff 	mov    %rax,-0x358(%rbp)
    a542:	48 8d 85 50 e3 ff ff 	lea    -0x1cb0(%rbp),%rax
    a549:	48 89 85 b0 fc ff ff 	mov    %rax,-0x350(%rbp)
    a550:	48 8d 85 50 e3 ff ff 	lea    -0x1cb0(%rbp),%rax
    a557:	48 89 85 b8 fc ff ff 	mov    %rax,-0x348(%rbp)
    a55e:	48 8d 85 50 e3 ff ff 	lea    -0x1cb0(%rbp),%rax
    a565:	48 89 85 c0 fc ff ff 	mov    %rax,-0x340(%rbp)
    a56c:	48 c7 85 c8 fc ff ff 	movq   $0x0,-0x338(%rbp)
    a573:	00 00 00 00 
    a577:	48 8d 85 50 e3 ff ff 	lea    -0x1cb0(%rbp),%rax
    a57e:	48 89 85 d0 fc ff ff 	mov    %rax,-0x330(%rbp)
    a585:	48 8d 85 50 e3 ff ff 	lea    -0x1cb0(%rbp),%rax
    a58c:	48 89 85 d8 fc ff ff 	mov    %rax,-0x328(%rbp)
    a593:	48 c7 85 e0 fc ff ff 	movq   $0x0,-0x320(%rbp)
    a59a:	00 00 00 00 
    a59e:	48 8d 85 50 e3 ff ff 	lea    -0x1cb0(%rbp),%rax
    a5a5:	48 89 85 e8 fc ff ff 	mov    %rax,-0x318(%rbp)
    a5ac:	48 8d 85 50 e3 ff ff 	lea    -0x1cb0(%rbp),%rax
    a5b3:	48 89 85 f0 fc ff ff 	mov    %rax,-0x310(%rbp)
    a5ba:	48 8d 85 50 e3 ff ff 	lea    -0x1cb0(%rbp),%rax
    a5c1:	48 89 85 f8 fc ff ff 	mov    %rax,-0x308(%rbp)
    a5c8:	48 8d 85 50 e3 ff ff 	lea    -0x1cb0(%rbp),%rax
    a5cf:	48 89 85 00 fd ff ff 	mov    %rax,-0x300(%rbp)
    a5d6:	48 8d 85 50 e3 ff ff 	lea    -0x1cb0(%rbp),%rax
    a5dd:	48 89 85 08 fd ff ff 	mov    %rax,-0x2f8(%rbp)
    a5e4:	48 8d 85 50 e3 ff ff 	lea    -0x1cb0(%rbp),%rax
    a5eb:	48 89 85 10 fd ff ff 	mov    %rax,-0x2f0(%rbp)
    a5f2:	48 c7 85 18 fd ff ff 	movq   $0x0,-0x2e8(%rbp)
    a5f9:	00 00 00 00 
    a5fd:	48 c7 85 20 fd ff ff 	movq   $0x0,-0x2e0(%rbp)
    a604:	00 00 00 00 
    a608:	48 c7 85 28 fd ff ff 	movq   $0x0,-0x2d8(%rbp)
    a60f:	00 00 00 00 
    a613:	48 8d 85 50 e3 ff ff 	lea    -0x1cb0(%rbp),%rax
    a61a:	48 89 85 30 fd ff ff 	mov    %rax,-0x2d0(%rbp)
    a621:	48 8d 85 50 e3 ff ff 	lea    -0x1cb0(%rbp),%rax
    a628:	48 89 85 38 fd ff ff 	mov    %rax,-0x2c8(%rbp)
    a62f:	48 8d 85 50 e3 ff ff 	lea    -0x1cb0(%rbp),%rax
    a636:	48 89 85 40 fd ff ff 	mov    %rax,-0x2c0(%rbp)
    a63d:	48 c7 85 48 fd ff ff 	movq   $0x0,-0x2b8(%rbp)
    a644:	00 00 00 00 
    a648:	48 8d 85 50 e3 ff ff 	lea    -0x1cb0(%rbp),%rax
    a64f:	48 89 85 50 fd ff ff 	mov    %rax,-0x2b0(%rbp)
    a656:	48 8d 85 50 e3 ff ff 	lea    -0x1cb0(%rbp),%rax
    a65d:	48 89 85 58 fd ff ff 	mov    %rax,-0x2a8(%rbp)
    a664:	48 8d 85 50 e3 ff ff 	lea    -0x1cb0(%rbp),%rax
    a66b:	48 89 85 60 fd ff ff 	mov    %rax,-0x2a0(%rbp)
    a672:	48 8d 85 50 e3 ff ff 	lea    -0x1cb0(%rbp),%rax
    a679:	48 89 85 68 fd ff ff 	mov    %rax,-0x298(%rbp)
    a680:	48 c7 85 70 fd ff ff 	movq   $0x0,-0x290(%rbp)
    a687:	00 00 00 00 
    a68b:	48 8d 85 50 e3 ff ff 	lea    -0x1cb0(%rbp),%rax
    a692:	48 89 85 78 fd ff ff 	mov    %rax,-0x288(%rbp)
    a699:	48 c7 85 80 fd ff ff 	movq   $0x0,-0x280(%rbp)
    a6a0:	00 00 00 00 
    a6a4:	48 8d 85 50 e3 ff ff 	lea    -0x1cb0(%rbp),%rax
    a6ab:	48 89 85 88 fd ff ff 	mov    %rax,-0x278(%rbp)
    a6b2:	48 c7 85 90 fd ff ff 	movq   $0x0,-0x270(%rbp)
    a6b9:	00 00 00 00 
    a6bd:	48 8d 85 50 e3 ff ff 	lea    -0x1cb0(%rbp),%rax
    a6c4:	48 89 85 98 fd ff ff 	mov    %rax,-0x268(%rbp)
    a6cb:	48 c7 85 a0 fd ff ff 	movq   $0x0,-0x260(%rbp)
    a6d2:	00 00 00 00 
    a6d6:	48 8d 85 50 e3 ff ff 	lea    -0x1cb0(%rbp),%rax
    a6dd:	48 89 85 a8 fd ff ff 	mov    %rax,-0x258(%rbp)
    a6e4:	48 8d 85 50 e3 ff ff 	lea    -0x1cb0(%rbp),%rax
    a6eb:	48 89 85 b0 fd ff ff 	mov    %rax,-0x250(%rbp)
    a6f2:	48 8d 85 50 e3 ff ff 	lea    -0x1cb0(%rbp),%rax
    a6f9:	48 89 85 b8 fd ff ff 	mov    %rax,-0x248(%rbp)
    a700:	48 8d 85 50 e3 ff ff 	lea    -0x1cb0(%rbp),%rax
    a707:	48 89 85 c0 fd ff ff 	mov    %rax,-0x240(%rbp)
    a70e:	48 8d 85 50 e3 ff ff 	lea    -0x1cb0(%rbp),%rax
    a715:	48 89 85 c8 fd ff ff 	mov    %rax,-0x238(%rbp)
    a71c:	48 8d 85 50 e3 ff ff 	lea    -0x1cb0(%rbp),%rax
    a723:	48 89 85 d0 fd ff ff 	mov    %rax,-0x230(%rbp)
    a72a:	48 8d 85 50 e3 ff ff 	lea    -0x1cb0(%rbp),%rax
    a731:	48 89 85 d8 fd ff ff 	mov    %rax,-0x228(%rbp)
    a738:	48 c7 85 e0 fd ff ff 	movq   $0x0,-0x220(%rbp)
    a73f:	00 00 00 00 
    a743:	48 8d 85 50 e3 ff ff 	lea    -0x1cb0(%rbp),%rax
    a74a:	48 89 85 e8 fd ff ff 	mov    %rax,-0x218(%rbp)
    a751:	48 8d 85 50 e3 ff ff 	lea    -0x1cb0(%rbp),%rax
    a758:	48 89 85 f0 fd ff ff 	mov    %rax,-0x210(%rbp)
    a75f:	48 8d 85 50 e3 ff ff 	lea    -0x1cb0(%rbp),%rax
    a766:	48 89 85 f8 fd ff ff 	mov    %rax,-0x208(%rbp)
    a76d:	48 8d 85 50 e3 ff ff 	lea    -0x1cb0(%rbp),%rax
    a774:	48 89 85 00 fe ff ff 	mov    %rax,-0x200(%rbp)
    a77b:	48 8d 85 50 e3 ff ff 	lea    -0x1cb0(%rbp),%rax
    a782:	48 89 85 08 fe ff ff 	mov    %rax,-0x1f8(%rbp)
    a789:	48 8d 85 50 e3 ff ff 	lea    -0x1cb0(%rbp),%rax
    a790:	48 89 85 10 fe ff ff 	mov    %rax,-0x1f0(%rbp)
    a797:	48 8d 85 50 e3 ff ff 	lea    -0x1cb0(%rbp),%rax
    a79e:	48 89 85 18 fe ff ff 	mov    %rax,-0x1e8(%rbp)
    a7a5:	48 8d 85 50 e3 ff ff 	lea    -0x1cb0(%rbp),%rax
    a7ac:	48 89 85 20 fe ff ff 	mov    %rax,-0x1e0(%rbp)
    a7b3:	48 8d 85 50 e3 ff ff 	lea    -0x1cb0(%rbp),%rax
    a7ba:	48 89 85 28 fe ff ff 	mov    %rax,-0x1d8(%rbp)
    a7c1:	48 8d 85 50 e3 ff ff 	lea    -0x1cb0(%rbp),%rax
    a7c8:	48 89 85 30 fe ff ff 	mov    %rax,-0x1d0(%rbp)
    a7cf:	48 8d 85 50 e3 ff ff 	lea    -0x1cb0(%rbp),%rax
    a7d6:	48 89 85 38 fe ff ff 	mov    %rax,-0x1c8(%rbp)
    a7dd:	48 8d 85 50 e3 ff ff 	lea    -0x1cb0(%rbp),%rax
    a7e4:	48 89 85 40 fe ff ff 	mov    %rax,-0x1c0(%rbp)
    a7eb:	48 8d 85 50 e3 ff ff 	lea    -0x1cb0(%rbp),%rax
    a7f2:	48 89 85 48 fe ff ff 	mov    %rax,-0x1b8(%rbp)
    a7f9:	48 8d 85 50 e3 ff ff 	lea    -0x1cb0(%rbp),%rax
    a800:	48 89 85 50 fe ff ff 	mov    %rax,-0x1b0(%rbp)
    a807:	48 8d 85 50 e3 ff ff 	lea    -0x1cb0(%rbp),%rax
    a80e:	48 89 85 58 fe ff ff 	mov    %rax,-0x1a8(%rbp)
    a815:	48 8d 85 50 e3 ff ff 	lea    -0x1cb0(%rbp),%rax
    a81c:	48 89 85 60 fe ff ff 	mov    %rax,-0x1a0(%rbp)
    a823:	48 c7 85 68 fe ff ff 	movq   $0x0,-0x198(%rbp)
    a82a:	00 00 00 00 
    a82e:	48 c7 85 70 fe ff ff 	movq   $0x0,-0x190(%rbp)
    a835:	00 00 00 00 
    a839:	48 c7 85 78 fe ff ff 	movq   $0x0,-0x188(%rbp)
    a840:	00 00 00 00 
    a844:	48 8d 85 50 e3 ff ff 	lea    -0x1cb0(%rbp),%rax
    a84b:	48 89 85 80 fe ff ff 	mov    %rax,-0x180(%rbp)
    a852:	48 8d 85 50 e3 ff ff 	lea    -0x1cb0(%rbp),%rax
    a859:	48 89 85 88 fe ff ff 	mov    %rax,-0x178(%rbp)
    a860:	48 8d 85 50 e3 ff ff 	lea    -0x1cb0(%rbp),%rax
    a867:	48 89 85 90 fe ff ff 	mov    %rax,-0x170(%rbp)
    a86e:	48 c7 85 98 fe ff ff 	movq   $0x0,-0x168(%rbp)
    a875:	00 00 00 00 
    a879:	48 8d 85 50 e3 ff ff 	lea    -0x1cb0(%rbp),%rax
    a880:	48 89 85 a0 fe ff ff 	mov    %rax,-0x160(%rbp)
    a887:	48 c7 85 a8 fe ff ff 	movq   $0x0,-0x158(%rbp)
    a88e:	00 00 00 00 
    a892:	48 c7 85 b0 fe ff ff 	movq   $0x0,-0x150(%rbp)
    a899:	00 00 00 00 
    a89d:	48 8d 85 50 e3 ff ff 	lea    -0x1cb0(%rbp),%rax
    a8a4:	48 89 85 b8 fe ff ff 	mov    %rax,-0x148(%rbp)
    a8ab:	48 c7 85 c0 fe ff ff 	movq   $0x0,-0x140(%rbp)
    a8b2:	00 00 00 00 
    a8b6:	48 8d 85 50 e3 ff ff 	lea    -0x1cb0(%rbp),%rax
    a8bd:	48 89 85 c8 fe ff ff 	mov    %rax,-0x138(%rbp)
    a8c4:	48 c7 85 d0 fe ff ff 	movq   $0x0,-0x130(%rbp)
    a8cb:	00 00 00 00 
    a8cf:	48 8d 85 50 e3 ff ff 	lea    -0x1cb0(%rbp),%rax
    a8d6:	48 89 85 d8 fe ff ff 	mov    %rax,-0x128(%rbp)
    a8dd:	48 8d 85 50 e3 ff ff 	lea    -0x1cb0(%rbp),%rax
    a8e4:	48 89 85 e0 fe ff ff 	mov    %rax,-0x120(%rbp)
    a8eb:	48 8d 85 50 e3 ff ff 	lea    -0x1cb0(%rbp),%rax
    a8f2:	48 89 85 e8 fe ff ff 	mov    %rax,-0x118(%rbp)
    a8f9:	48 c7 85 f0 fe ff ff 	movq   $0x0,-0x110(%rbp)
    a900:	00 00 00 00 
    a904:	48 8d 85 50 e3 ff ff 	lea    -0x1cb0(%rbp),%rax
    a90b:	48 89 85 f8 fe ff ff 	mov    %rax,-0x108(%rbp)
    a912:	48 c7 85 00 ff ff ff 	movq   $0x0,-0x100(%rbp)
    a919:	00 00 00 00 
    a91d:	48 8d 85 50 e3 ff ff 	lea    -0x1cb0(%rbp),%rax
    a924:	48 89 85 08 ff ff ff 	mov    %rax,-0xf8(%rbp)
    a92b:	48 8d 85 50 e3 ff ff 	lea    -0x1cb0(%rbp),%rax
    a932:	48 89 85 10 ff ff ff 	mov    %rax,-0xf0(%rbp)
    a939:	48 8d 85 50 e3 ff ff 	lea    -0x1cb0(%rbp),%rax
    a940:	48 89 85 18 ff ff ff 	mov    %rax,-0xe8(%rbp)
    a947:	48 c7 85 20 ff ff ff 	movq   $0x0,-0xe0(%rbp)
    a94e:	00 00 00 00 
    a952:	48 8d 85 50 e3 ff ff 	lea    -0x1cb0(%rbp),%rax
    a959:	48 89 85 28 ff ff ff 	mov    %rax,-0xd8(%rbp)
    a960:	48 8d 85 50 e3 ff ff 	lea    -0x1cb0(%rbp),%rax
    a967:	48 89 85 30 ff ff ff 	mov    %rax,-0xd0(%rbp)
    a96e:	48 8d 85 50 e3 ff ff 	lea    -0x1cb0(%rbp),%rax
    a975:	48 89 85 38 ff ff ff 	mov    %rax,-0xc8(%rbp)
    a97c:	48 8d 85 50 e3 ff ff 	lea    -0x1cb0(%rbp),%rax
    a983:	48 89 85 40 ff ff ff 	mov    %rax,-0xc0(%rbp)
    a98a:	48 8d 85 50 e3 ff ff 	lea    -0x1cb0(%rbp),%rax
    a991:	48 89 85 48 ff ff ff 	mov    %rax,-0xb8(%rbp)
    a998:	48 8d 85 50 e3 ff ff 	lea    -0x1cb0(%rbp),%rax
    a99f:	48 89 85 50 ff ff ff 	mov    %rax,-0xb0(%rbp)
    a9a6:	48 8d 85 50 e3 ff ff 	lea    -0x1cb0(%rbp),%rax
    a9ad:	48 89 85 58 ff ff ff 	mov    %rax,-0xa8(%rbp)
    a9b4:	48 8d 85 50 e3 ff ff 	lea    -0x1cb0(%rbp),%rax
    a9bb:	48 89 85 60 ff ff ff 	mov    %rax,-0xa0(%rbp)
    a9c2:	48 8d 85 50 e3 ff ff 	lea    -0x1cb0(%rbp),%rax
    a9c9:	48 89 85 68 ff ff ff 	mov    %rax,-0x98(%rbp)
    a9d0:	48 8d 85 50 e3 ff ff 	lea    -0x1cb0(%rbp),%rax
    a9d7:	48 89 85 70 ff ff ff 	mov    %rax,-0x90(%rbp)
    a9de:	48 8d 85 50 e3 ff ff 	lea    -0x1cb0(%rbp),%rax
    a9e5:	48 89 85 78 ff ff ff 	mov    %rax,-0x88(%rbp)
    a9ec:	48 8d 85 50 e3 ff ff 	lea    -0x1cb0(%rbp),%rax
    a9f3:	48 89 45 80          	mov    %rax,-0x80(%rbp)
    a9f7:	48 8d 85 50 e3 ff ff 	lea    -0x1cb0(%rbp),%rax
    a9fe:	48 89 45 88          	mov    %rax,-0x78(%rbp)
    aa02:	48 c7 45 90 00 00 00 	movq   $0x0,-0x70(%rbp)
    aa09:	00 
    aa0a:	48 8d 85 50 e3 ff ff 	lea    -0x1cb0(%rbp),%rax
    aa11:	48 89 45 98          	mov    %rax,-0x68(%rbp)
    aa15:	48 c7 45 a0 00 00 00 	movq   $0x0,-0x60(%rbp)
    aa1c:	00 
    aa1d:	48 8d 85 50 e3 ff ff 	lea    -0x1cb0(%rbp),%rax
    aa24:	48 89 45 a8          	mov    %rax,-0x58(%rbp)
    aa28:	48 8d 85 50 e3 ff ff 	lea    -0x1cb0(%rbp),%rax
    aa2f:	48 89 45 b0          	mov    %rax,-0x50(%rbp)
    aa33:	48 8d 85 50 e3 ff ff 	lea    -0x1cb0(%rbp),%rax
    aa3a:	48 89 45 b8          	mov    %rax,-0x48(%rbp)
    aa3e:	48 8d 85 50 e3 ff ff 	lea    -0x1cb0(%rbp),%rax
    aa45:	48 89 45 c0          	mov    %rax,-0x40(%rbp)
    aa49:	48 c7 45 c8 00 00 00 	movq   $0x0,-0x38(%rbp)
    aa50:	00 
    aa51:	48 8d 85 50 e3 ff ff 	lea    -0x1cb0(%rbp),%rax
    aa58:	48 89 45 d0          	mov    %rax,-0x30(%rbp)
    aa5c:	48 8d 85 50 e3 ff ff 	lea    -0x1cb0(%rbp),%rax
    aa63:	48 89 45 d8          	mov    %rax,-0x28(%rbp)
    aa67:	48 8d 85 50 e3 ff ff 	lea    -0x1cb0(%rbp),%rax
    aa6e:	48 89 45 e0          	mov    %rax,-0x20(%rbp)
    aa72:	48 c7 45 e8 00 00 00 	movq   $0x0,-0x18(%rbp)
    aa79:	00 
    aa7a:	48 c7 85 e0 e3 ff ff 	movq   $0x0,-0x1c20(%rbp)
    aa81:	00 00 00 00 
    aa85:	48 c7 85 40 e7 ff ff 	movq   $0x0,-0x18c0(%rbp)
    aa8c:	00 00 00 00 
    aa90:	48 8d 05 49 67 01 00 	lea    0x16749(%rip),%rax        # 211e0 <g_941>
    aa97:	48 89 85 48 e7 ff ff 	mov    %rax,-0x18b8(%rbp)
    aa9e:	48 c7 85 50 e7 ff ff 	movq   $0x0,-0x18b0(%rbp)
    aaa5:	00 00 00 00 
    aaa9:	48 8d 05 30 67 01 00 	lea    0x16730(%rip),%rax        # 211e0 <g_941>
    aab0:	48 89 85 58 e7 ff ff 	mov    %rax,-0x18a8(%rbp)
    aab7:	48 c7 85 60 e7 ff ff 	movq   $0x0,-0x18a0(%rbp)
    aabe:	00 00 00 00 
    aac2:	48 8d 05 17 67 01 00 	lea    0x16717(%rip),%rax        # 211e0 <g_941>
    aac9:	48 89 85 68 e7 ff ff 	mov    %rax,-0x1898(%rbp)
    aad0:	48 c7 85 70 e7 ff ff 	movq   $0x0,-0x1890(%rbp)
    aad7:	00 00 00 00 
    aadb:	48 8d 05 fe 66 01 00 	lea    0x166fe(%rip),%rax        # 211e0 <g_941>
    aae2:	48 89 85 78 e7 ff ff 	mov    %rax,-0x1888(%rbp)
    aae9:	48 c7 85 80 e7 ff ff 	movq   $0x0,-0x1880(%rbp)
    aaf0:	00 00 00 00 
    aaf4:	48 c7 85 88 e7 ff ff 	movq   $0x0,-0x1878(%rbp)
    aafb:	00 00 00 00 
    aaff:	48 c7 85 90 e7 ff ff 	movq   $0x0,-0x1870(%rbp)
    ab06:	00 00 00 00 
    ab0a:	48 8d 05 cf 66 01 00 	lea    0x166cf(%rip),%rax        # 211e0 <g_941>
    ab11:	48 89 85 98 e7 ff ff 	mov    %rax,-0x1868(%rbp)
    ab18:	48 c7 85 a0 e7 ff ff 	movq   $0x0,-0x1860(%rbp)
    ab1f:	00 00 00 00 
    ab23:	48 8d 05 b6 66 01 00 	lea    0x166b6(%rip),%rax        # 211e0 <g_941>
    ab2a:	48 89 85 a8 e7 ff ff 	mov    %rax,-0x1858(%rbp)
    ab31:	48 c7 85 b0 e7 ff ff 	movq   $0x0,-0x1850(%rbp)
    ab38:	00 00 00 00 
    ab3c:	48 c7 85 b8 e7 ff ff 	movq   $0x0,-0x1848(%rbp)
    ab43:	00 00 00 00 
    ab47:	48 8d 85 40 e7 ff ff 	lea    -0x18c0(%rbp),%rax
    ab4e:	48 83 c0 10          	add    $0x10,%rax
    ab52:	48 89 85 e8 e3 ff ff 	mov    %rax,-0x1c18(%rbp)
    ab59:	48 c7 85 f0 e3 ff ff 	movq   $0x0,-0x1c10(%rbp)
    ab60:	00 00 00 00 
    ab64:	66 c7 85 4c e2 ff ff 	movw   $0x4cfc,-0x1db4(%rbp)
    ab6b:	fc 4c 
    ab6d:	66 c7 85 4e e2 ff ff 	movw   $0x86f8,-0x1db2(%rbp)
    ab74:	f8 86 
    ab76:	66 c7 85 50 e2 ff ff 	movw   $0x6,-0x1db0(%rbp)
    ab7d:	06 00 
    ab7f:	66 c7 85 52 e2 ff ff 	movw   $0x0,-0x1dae(%rbp)
    ab86:	00 00 
    ab88:	48 8d 05 f9 6f 01 00 	lea    0x16ff9(%rip),%rax        # 21b88 <g_1825+0x768>
    ab8f:	48 89 85 f8 e3 ff ff 	mov    %rax,-0x1c08(%rbp)
    ab96:	c7 85 80 e6 ff ff 14 	movl   $0xfb525f14,-0x1980(%rbp)
    ab9d:	5f 52 fb 
    aba0:	c7 85 84 e6 ff ff 14 	movl   $0xfb525f14,-0x197c(%rbp)
    aba7:	5f 52 fb 
    abaa:	c7 85 88 e6 ff ff 14 	movl   $0xfb525f14,-0x1978(%rbp)
    abb1:	5f 52 fb 
    abb4:	c7 85 8c e6 ff ff 14 	movl   $0xfb525f14,-0x1974(%rbp)
    abbb:	5f 52 fb 
    abbe:	c7 85 90 e6 ff ff 14 	movl   $0xfb525f14,-0x1970(%rbp)
    abc5:	5f 52 fb 
    abc8:	c7 85 94 e6 ff ff 14 	movl   $0xfb525f14,-0x196c(%rbp)
    abcf:	5f 52 fb 
    abd2:	c7 85 98 e6 ff ff 14 	movl   $0xfb525f14,-0x1968(%rbp)
    abd9:	5f 52 fb 
    abdc:	48 c7 85 00 e4 ff ff 	movq   $0x0,-0x1c00(%rbp)
    abe3:	00 00 00 00 
    abe7:	c6 85 45 e2 ff ff 09 	movb   $0x9,-0x1dbb(%rbp)
    abee:	c7 85 88 e2 ff ff 1e 	movl   $0x2ad3801e,-0x1d78(%rbp)
    abf5:	80 d3 2a 
    abf8:	c6 85 46 e2 ff ff 76 	movb   $0x76,-0x1dba(%rbp)
    abff:	48 8d 05 02 66 01 00 	lea    0x16602(%rip),%rax        # 21208 <g_1165>
    ac06:	48 89 85 08 e4 ff ff 	mov    %rax,-0x1bf8(%rbp)
    ac0d:	c7 85 8c e2 ff ff fa 	movl   $0xfffffffa,-0x1d74(%rbp)
    ac14:	ff ff ff 
    ac17:	48 c7 85 10 e4 ff ff 	movq   $0x0,-0x1bf0(%rbp)
    ac1e:	00 00 00 00 
    ac22:	c7 85 90 e2 ff ff 01 	movl   $0x1,-0x1d70(%rbp)
    ac29:	00 00 00 
    ac2c:	c7 85 6c e2 ff ff 00 	movl   $0x0,-0x1d94(%rbp)
    ac33:	00 00 00 
    ac36:	eb 1e                	jmp    ac56 <func_23+0x2ad2>
    ac38:	8b 85 6c e2 ff ff    	mov    -0x1d94(%rbp),%eax
    ac3e:	48 98                	cltq   
    ac40:	48 8d 15 01 62 01 00 	lea    0x16201(%rip),%rdx        # 20e48 <g_324>
    ac47:	48 89 94 c5 60 e5 ff 	mov    %rdx,-0x1aa0(%rbp,%rax,8)
    ac4e:	ff 
    ac4f:	83 85 6c e2 ff ff 01 	addl   $0x1,-0x1d94(%rbp)
    ac56:	83 bd 6c e2 ff ff 00 	cmpl   $0x0,-0x1d94(%rbp)
    ac5d:	7e d9                	jle    ac38 <func_23+0x2ab4>
    ac5f:	c7 85 6c e2 ff ff 00 	movl   $0x0,-0x1d94(%rbp)
    ac66:	00 00 00 
    ac69:	eb 1e                	jmp    ac89 <func_23+0x2b05>
    ac6b:	8b 85 6c e2 ff ff    	mov    -0x1d94(%rbp),%eax
    ac71:	48 98                	cltq   
    ac73:	48 8d 15 06 f4 00 00 	lea    0xf406(%rip),%rdx        # 1a080 <g_2872>
    ac7a:	48 89 94 c5 30 e6 ff 	mov    %rdx,-0x19d0(%rbp,%rax,8)
    ac81:	ff 
    ac82:	83 85 6c e2 ff ff 01 	addl   $0x1,-0x1d94(%rbp)
    ac89:	83 bd 6c e2 ff ff 02 	cmpl   $0x2,-0x1d94(%rbp)
    ac90:	7e d9                	jle    ac6b <func_23+0x2ae7>
    ac92:	48 83 bd d0 e3 ff ff 	cmpq   $0x0,-0x1c30(%rbp)
    ac99:	00 
    ac9a:	75 2c                	jne    acc8 <func_23+0x2b44>
    ac9c:	8b 05 9a 56 01 00    	mov    0x1569a(%rip),%eax        # 2033c <g_163>
    aca2:	89 c0                	mov    %eax,%eax
    aca4:	be 02 00 00 00       	mov    $0x2,%esi
    aca9:	48 89 c7             	mov    %rax,%rdi
    acac:	e8 7d c3 ff ff       	callq  702e <safe_add_func_uint64_t_u_u>
    acb1:	89 05 85 56 01 00    	mov    %eax,0x15685(%rip)        # 2033c <g_163>
    acb7:	8b 05 7f 56 01 00    	mov    0x1567f(%rip),%eax        # 2033c <g_163>
    acbd:	83 f8 22             	cmp    $0x22,%eax
    acc0:	0f 86 17 f1 ff ff    	jbe    9ddd <func_23+0x1c59>
    acc6:	eb 01                	jmp    acc9 <func_23+0x2b45>
    acc8:	90                   	nop
    acc9:	48 8b 85 b8 e3 ff ff 	mov    -0x1c48(%rbp),%rax
    acd0:	48 8b 00             	mov    (%rax),%rax
    acd3:	48 8b 00             	mov    (%rax),%rax
    acd6:	48 8b 00             	mov    (%rax),%rax
    acd9:	48 8b 00             	mov    (%rax),%rax
    acdc:	8b 00                	mov    (%rax),%eax
    acde:	48 98                	cltq   
    ace0:	48 8b 4d f8          	mov    -0x8(%rbp),%rcx
    ace4:	64 48 33 0c 25 28 00 	xor    %fs:0x28,%rcx
    aceb:	00 00 
    aced:	74 05                	je     acf4 <func_23+0x2b70>
    acef:	e8 7c b3 ff ff       	callq  6070 <__stack_chk_fail@plt>
    acf4:	c9                   	leaveq 
    acf5:	c3                   	retq   

000000000000acf6 <func_26>:
    acf6:	f3 0f 1e fa          	endbr64 
    acfa:	55                   	push   %rbp
    acfb:	48 89 e5             	mov    %rsp,%rbp
    acfe:	48 81 ec 10 03 00 00 	sub    $0x310,%rsp
    ad05:	89 bd fc fc ff ff    	mov    %edi,-0x304(%rbp)
    ad0b:	48 89 b5 f0 fc ff ff 	mov    %rsi,-0x310(%rbp)
    ad12:	89 d0                	mov    %edx,%eax
    ad14:	66 89 85 f8 fc ff ff 	mov    %ax,-0x308(%rbp)
    ad1b:	64 48 8b 04 25 28 00 	mov    %fs:0x28,%rax
    ad22:	00 00 
    ad24:	48 89 45 f8          	mov    %rax,-0x8(%rbp)
    ad28:	31 c0                	xor    %eax,%eax
    ad2a:	c7 85 20 fe ff ff 8a 	movl   $0x93506f8a,-0x1e0(%rbp)
    ad31:	6f 50 93 
    ad34:	c7 85 24 fe ff ff 09 	movl   $0x9,-0x1dc(%rbp)
    ad3b:	00 00 00 
    ad3e:	c7 85 28 fe ff ff 8a 	movl   $0x93506f8a,-0x1d8(%rbp)
    ad45:	6f 50 93 
    ad48:	c7 85 2c fe ff ff 8a 	movl   $0x93506f8a,-0x1d4(%rbp)
    ad4f:	6f 50 93 
    ad52:	c7 85 30 fe ff ff 09 	movl   $0x9,-0x1d0(%rbp)
    ad59:	00 00 00 
    ad5c:	c7 85 34 fe ff ff 8a 	movl   $0x93506f8a,-0x1cc(%rbp)
    ad63:	6f 50 93 
    ad66:	c7 85 38 fe ff ff 8a 	movl   $0x93506f8a,-0x1c8(%rbp)
    ad6d:	6f 50 93 
    ad70:	c7 85 3c fe ff ff 09 	movl   $0x9,-0x1c4(%rbp)
    ad77:	00 00 00 
    ad7a:	c7 85 40 fe ff ff 8a 	movl   $0x93506f8a,-0x1c0(%rbp)
    ad81:	6f 50 93 
    ad84:	c7 85 44 fe ff ff 8a 	movl   $0x93506f8a,-0x1bc(%rbp)
    ad8b:	6f 50 93 
    ad8e:	c7 85 48 fe ff ff 09 	movl   $0x9,-0x1b8(%rbp)
    ad95:	00 00 00 
    ad98:	c7 85 4c fe ff ff 8a 	movl   $0x93506f8a,-0x1b4(%rbp)
    ad9f:	6f 50 93 
    ada2:	c7 85 50 fe ff ff 8a 	movl   $0x93506f8a,-0x1b0(%rbp)
    ada9:	6f 50 93 
    adac:	c7 85 54 fe ff ff 09 	movl   $0x9,-0x1ac(%rbp)
    adb3:	00 00 00 
    adb6:	c7 85 58 fe ff ff 8a 	movl   $0x93506f8a,-0x1a8(%rbp)
    adbd:	6f 50 93 
    adc0:	c7 85 5c fe ff ff 8a 	movl   $0x93506f8a,-0x1a4(%rbp)
    adc7:	6f 50 93 
    adca:	c6 85 05 fd ff ff a4 	movb   $0xa4,-0x2fb(%rbp)
    add1:	66 c7 85 08 fd ff ff 	movw   $0xbbc0,-0x2f8(%rbp)
    add8:	c0 bb 
    adda:	c7 85 1c fd ff ff ff 	movl   $0xffffffff,-0x2e4(%rbp)
    ade1:	ff ff ff 
    ade4:	48 8d 85 20 fe ff ff 	lea    -0x1e0(%rbp),%rax
    adeb:	48 83 c0 10          	add    $0x10,%rax
    adef:	48 89 85 28 fd ff ff 	mov    %rax,-0x2d8(%rbp)
    adf6:	48 8d 85 28 fd ff ff 	lea    -0x2d8(%rbp),%rax
    adfd:	48 89 85 38 fd ff ff 	mov    %rax,-0x2c8(%rbp)
    ae04:	48 8d 05 81 55 01 00 	lea    0x15581(%rip),%rax        # 2038c <g_824+0xc>
    ae0b:	48 89 85 40 fd ff ff 	mov    %rax,-0x2c0(%rbp)
    ae12:	48 8d 85 20 fe ff ff 	lea    -0x1e0(%rbp),%rax
    ae19:	48 83 c0 28          	add    $0x28,%rax
    ae1d:	48 89 85 48 fd ff ff 	mov    %rax,-0x2b8(%rbp)
    ae24:	48 8d 85 d0 fe ff ff 	lea    -0x130(%rbp),%rax
    ae2b:	48 8d 15 ae 04 01 00 	lea    0x104ae(%rip),%rdx        # 1b2e0 <g_2872+0x1260>
    ae32:	b9 23 00 00 00       	mov    $0x23,%ecx
    ae37:	48 89 c7             	mov    %rax,%rdi
    ae3a:	48 89 d6             	mov    %rdx,%rsi
    ae3d:	f3 48 a5             	rep movsq %ds:(%rsi),%es:(%rdi)
    ae40:	48 c7 85 50 fd ff ff 	movq   $0x0,-0x2b0(%rbp)
    ae47:	00 00 00 00 
    ae4b:	48 8d 85 20 fe ff ff 	lea    -0x1e0(%rbp),%rax
    ae52:	48 83 c0 28          	add    $0x28,%rax
    ae56:	48 89 85 58 fd ff ff 	mov    %rax,-0x2a8(%rbp)
    ae5d:	48 c7 85 30 fd ff ff 	movq   $0x0,-0x2d0(%rbp)
    ae64:	00 00 00 00 
    ae68:	48 8d 85 30 fd ff ff 	lea    -0x2d0(%rbp),%rax
    ae6f:	48 89 85 60 fd ff ff 	mov    %rax,-0x2a0(%rbp)
    ae76:	c6 85 0c fd ff ff 08 	movb   $0x8,-0x2f4(%rbp)
    ae7d:	0f b6 85 0d fd ff ff 	movzbl -0x2f3(%rbp),%eax
    ae84:	83 e0 c0             	and    $0xffffffc0,%eax
    ae87:	83 c8 06             	or     $0x6,%eax
    ae8a:	88 85 0d fd ff ff    	mov    %al,-0x2f3(%rbp)
    ae90:	48 c7 85 68 fd ff ff 	movq   $0x0,-0x298(%rbp)
    ae97:	00 00 00 00 
    ae9b:	c7 45 f2 fb fb 4d fb 	movl   $0xfb4dfbfb,-0xe(%rbp)
    aea2:	66 c7 45 f6 fb 4d    	movw   $0x4dfb,-0xa(%rbp)
    aea8:	c7 85 20 fd ff ff cd 	movl   $0x3f11f7cd,-0x2e0(%rbp)
    aeaf:	f7 11 3f 
    aeb2:	c7 85 24 fd ff ff 00 	movl   $0x0,-0x2dc(%rbp)
    aeb9:	00 00 00 
    aebc:	c7 85 14 fd ff ff 00 	movl   $0x0,-0x2ec(%rbp)
    aec3:	00 00 00 
    aec6:	eb 14                	jmp    aedc <func_26+0x1e6>
    aec8:	8b 85 14 fd ff ff    	mov    -0x2ec(%rbp),%eax
    aece:	48 98                	cltq   
    aed0:	c6 44 05 ed 01       	movb   $0x1,-0x13(%rbp,%rax,1)
    aed5:	83 85 14 fd ff ff 01 	addl   $0x1,-0x2ec(%rbp)
    aedc:	83 bd 14 fd ff ff 04 	cmpl   $0x4,-0x2ec(%rbp)
    aee3:	7e e3                	jle    aec8 <func_26+0x1d2>
    aee5:	c7 85 14 fd ff ff 00 	movl   $0x0,-0x2ec(%rbp)
    aeec:	00 00 00 
    aeef:	eb 1b                	jmp    af0c <func_26+0x216>
    aef1:	8b 85 14 fd ff ff    	mov    -0x2ec(%rbp),%eax
    aef7:	48 98                	cltq   
    aef9:	48 c7 84 c5 a0 fd ff 	movq   $0x0,-0x260(%rbp,%rax,8)
    af00:	ff 00 00 00 00 
    af05:	83 85 14 fd ff ff 01 	addl   $0x1,-0x2ec(%rbp)
    af0c:	83 bd 14 fd ff ff 06 	cmpl   $0x6,-0x2ec(%rbp)
    af13:	7e dc                	jle    aef1 <func_26+0x1fb>
    af15:	66 c7 85 f8 fc ff ff 	movw   $0x0,-0x308(%rbp)
    af1c:	00 00 
    af1e:	e9 b9 02 00 00       	jmpq   b1dc <func_26+0x4e6>
    af23:	48 8d 05 a6 52 01 00 	lea    0x152a6(%rip),%rax        # 201d0 <g_50>
    af2a:	48 89 85 70 fd ff ff 	mov    %rax,-0x290(%rbp)
    af31:	48 c7 85 78 fd ff ff 	movq   $0x0,-0x288(%rbp)
    af38:	00 00 00 00 
    af3c:	66 c7 85 60 fe ff ff 	movw   $0xfff6,-0x1a0(%rbp)
    af43:	f6 ff 
    af45:	66 c7 85 62 fe ff ff 	movw   $0xffff,-0x19e(%rbp)
    af4c:	ff ff 
    af4e:	66 c7 85 64 fe ff ff 	movw   $0xcafd,-0x19c(%rbp)
    af55:	fd ca 
    af57:	66 c7 85 66 fe ff ff 	movw   $0xaba8,-0x19a(%rbp)
    af5e:	a8 ab 
    af60:	66 c7 85 68 fe ff ff 	movw   $0x7c74,-0x198(%rbp)
    af67:	74 7c 
    af69:	66 c7 85 6a fe ff ff 	movw   $0x4c3,-0x196(%rbp)
    af70:	c3 04 
    af72:	66 c7 85 6c fe ff ff 	movw   $0xaba8,-0x194(%rbp)
    af79:	a8 ab 
    af7b:	66 c7 85 6e fe ff ff 	movw   $0xaba8,-0x192(%rbp)
    af82:	a8 ab 
    af84:	66 c7 85 70 fe ff ff 	movw   $0x36c,-0x190(%rbp)
    af8b:	6c 03 
    af8d:	66 c7 85 72 fe ff ff 	movw   $0xfff6,-0x18e(%rbp)
    af94:	f6 ff 
    af96:	66 c7 85 74 fe ff ff 	movw   $0x99e6,-0x18c(%rbp)
    af9d:	e6 99 
    af9f:	66 c7 85 76 fe ff ff 	movw   $0x1adf,-0x18a(%rbp)
    afa6:	df 1a 
    afa8:	66 c7 85 78 fe ff ff 	movw   $0x36c,-0x188(%rbp)
    afaf:	6c 03 
    afb1:	66 c7 85 7a fe ff ff 	movw   $0x5537,-0x186(%rbp)
    afb8:	37 55 
    afba:	66 c7 85 7c fe ff ff 	movw   $0x3,-0x184(%rbp)
    afc1:	03 00 
    afc3:	66 c7 85 7e fe ff ff 	movw   $0x1,-0x182(%rbp)
    afca:	01 00 
    afcc:	66 c7 85 80 fe ff ff 	movw   $0xdcf8,-0x180(%rbp)
    afd3:	f8 dc 
    afd5:	66 c7 85 82 fe ff ff 	movw   $0xcafd,-0x17e(%rbp)
    afdc:	fd ca 
    afde:	66 c7 85 84 fe ff ff 	movw   $0x10f1,-0x17c(%rbp)
    afe5:	f1 10 
    afe7:	66 c7 85 86 fe ff ff 	movw   $0x36c,-0x17a(%rbp)
    afee:	6c 03 
    aff0:	66 c7 85 88 fe ff ff 	movw   $0x3,-0x178(%rbp)
    aff7:	03 00 
    aff9:	66 c7 85 8a fe ff ff 	movw   $0x0,-0x176(%rbp)
    b000:	00 00 
    b002:	66 c7 85 8c fe ff ff 	movw   $0xaba8,-0x174(%rbp)
    b009:	a8 ab 
    b00b:	66 c7 85 8e fe ff ff 	movw   $0x1adf,-0x172(%rbp)
    b012:	df 1a 
    b014:	66 c7 85 90 fe ff ff 	movw   $0x5,-0x170(%rbp)
    b01b:	05 00 
    b01d:	66 c7 85 92 fe ff ff 	movw   $0xc0d3,-0x16e(%rbp)
    b024:	d3 c0 
    b026:	66 c7 85 94 fe ff ff 	movw   $0x36c,-0x16c(%rbp)
    b02d:	6c 03 
    b02f:	66 c7 85 96 fe ff ff 	movw   $0x36c,-0x16a(%rbp)
    b036:	6c 03 
    b038:	66 c7 85 98 fe ff ff 	movw   $0xdb07,-0x168(%rbp)
    b03f:	07 db 
    b041:	66 c7 85 9a fe ff ff 	movw   $0x4c3,-0x166(%rbp)
    b048:	c3 04 
    b04a:	66 c7 85 9c fe ff ff 	movw   $0xcafd,-0x164(%rbp)
    b051:	fd ca 
    b053:	66 c7 85 9e fe ff ff 	movw   $0xdb07,-0x162(%rbp)
    b05a:	07 db 
    b05c:	66 c7 85 a0 fe ff ff 	movw   $0xcafd,-0x160(%rbp)
    b063:	fd ca 
    b065:	66 c7 85 a2 fe ff ff 	movw   $0x1,-0x15e(%rbp)
    b06c:	01 00 
    b06e:	66 c7 85 a4 fe ff ff 	movw   $0xc0d3,-0x15c(%rbp)
    b075:	d3 c0 
    b077:	66 c7 85 a6 fe ff ff 	movw   $0xdda4,-0x15a(%rbp)
    b07e:	a4 dd 
    b080:	66 c7 85 a8 fe ff ff 	movw   $0xfff6,-0x158(%rbp)
    b087:	f6 ff 
    b089:	66 c7 85 aa fe ff ff 	movw   $0xaba8,-0x156(%rbp)
    b090:	a8 ab 
    b092:	66 c7 85 ac fe ff ff 	movw   $0xc0d3,-0x154(%rbp)
    b099:	d3 c0 
    b09b:	66 c7 85 ae fe ff ff 	movw   $0x61f6,-0x152(%rbp)
    b0a2:	f6 61 
    b0a4:	66 c7 85 b0 fe ff ff 	movw   $0x36c,-0x150(%rbp)
    b0ab:	6c 03 
    b0ad:	66 c7 85 b2 fe ff ff 	movw   $0x99e6,-0x14e(%rbp)
    b0b4:	e6 99 
    b0b6:	66 c7 85 b4 fe ff ff 	movw   $0x36c,-0x14c(%rbp)
    b0bd:	6c 03 
    b0bf:	66 c7 85 b6 fe ff ff 	movw   $0xdcf8,-0x14a(%rbp)
    b0c6:	f8 dc 
    b0c8:	66 c7 85 b8 fe ff ff 	movw   $0x115c,-0x148(%rbp)
    b0cf:	5c 11 
    b0d1:	66 c7 85 ba fe ff ff 	movw   $0x61f6,-0x146(%rbp)
    b0d8:	f6 61 
    b0da:	66 c7 85 bc fe ff ff 	movw   $0x5537,-0x144(%rbp)
    b0e1:	37 55 
    b0e3:	66 c7 85 be fe ff ff 	movw   $0xcafd,-0x142(%rbp)
    b0ea:	fd ca 
    b0ec:	66 c7 85 c0 fe ff ff 	movw   $0xfff6,-0x140(%rbp)
    b0f3:	f6 ff 
    b0f5:	66 c7 85 c2 fe ff ff 	movw   $0x99e6,-0x13e(%rbp)
    b0fc:	e6 99 
    b0fe:	66 c7 85 c4 fe ff ff 	movw   $0xe00c,-0x13c(%rbp)
    b105:	0c e0 
    b107:	66 c7 85 c6 fe ff ff 	movw   $0x1,-0x13a(%rbp)
    b10e:	01 00 
    b110:	66 c7 85 c8 fe ff ff 	movw   $0xaba8,-0x138(%rbp)
    b117:	a8 ab 
    b119:	66 c7 85 ca fe ff ff 	movw   $0x7c74,-0x136(%rbp)
    b120:	74 7c 
    b122:	48 8d 05 a7 50 01 00 	lea    0x150a7(%rip),%rax        # 201d0 <g_50>
    b129:	48 89 85 80 fd ff ff 	mov    %rax,-0x280(%rbp)
    b130:	48 c7 85 88 fd ff ff 	movq   $0x0,-0x278(%rbp)
    b137:	00 00 00 00 
    b13b:	c6 85 06 fd ff ff 98 	movb   $0x98,-0x2fa(%rbp)
    b142:	c6 85 10 fd ff ff 07 	movb   $0x7,-0x2f0(%rbp)
    b149:	0f b6 85 11 fd ff ff 	movzbl -0x2ef(%rbp),%eax
    b150:	83 e0 c0             	and    $0xffffffc0,%eax
    b153:	83 c8 3a             	or     $0x3a,%eax
    b156:	88 85 11 fd ff ff    	mov    %al,-0x2ef(%rbp)
    b15c:	48 8d 45 ed          	lea    -0x13(%rbp),%rax
    b160:	48 83 c0 03          	add    $0x3,%rax
    b164:	48 89 85 90 fd ff ff 	mov    %rax,-0x270(%rbp)
    b16b:	c6 85 07 fd ff ff fd 	movb   $0xfd,-0x2f9(%rbp)
    b172:	48 8d 05 f7 60 01 00 	lea    0x160f7(%rip),%rax        # 21270 <g_1616>
    b179:	48 89 85 98 fd ff ff 	mov    %rax,-0x268(%rbp)
    b180:	66 c7 85 0a fd ff ff 	movw   $0xfffe,-0x2f6(%rbp)
    b187:	fe ff 
    b189:	c7 85 18 fd ff ff 00 	movl   $0x0,-0x2e8(%rbp)
    b190:	00 00 00 
    b193:	eb 1e                	jmp    b1b3 <func_26+0x4bd>
    b195:	8b 85 18 fd ff ff    	mov    -0x2e8(%rbp),%eax
    b19b:	48 98                	cltq   
    b19d:	48 8d 15 2c 50 01 00 	lea    0x1502c(%rip),%rdx        # 201d0 <g_50>
    b1a4:	48 89 94 c5 e0 fd ff 	mov    %rdx,-0x220(%rbp,%rax,8)
    b1ab:	ff 
    b1ac:	83 85 18 fd ff ff 01 	addl   $0x1,-0x2e8(%rbp)
    b1b3:	83 bd 18 fd ff ff 06 	cmpl   $0x6,-0x2e8(%rbp)
    b1ba:	7e d9                	jle    b195 <func_26+0x49f>
    b1bc:	0f b7 85 a2 fe ff ff 	movzwl -0x15e(%rbp),%eax
    b1c3:	83 c0 01             	add    $0x1,%eax
    b1c6:	66 89 85 a2 fe ff ff 	mov    %ax,-0x15e(%rbp)
    b1cd:	80 ad 06 fd ff ff 01 	subb   $0x1,-0x2fa(%rbp)
    b1d4:	66 83 85 f8 fc ff ff 	addw   $0x1,-0x308(%rbp)
    b1db:	01 
    b1dc:	66 83 bd f8 fc ff ff 	cmpw   $0x6,-0x308(%rbp)
    b1e3:	06 
    b1e4:	0f 86 39 fd ff ff    	jbe    af23 <func_26+0x22d>
    b1ea:	0f b7 85 f8 fc ff ff 	movzwl -0x308(%rbp),%eax
    b1f1:	0f bf d0             	movswl %ax,%edx
    b1f4:	0f b6 05 26 51 01 00 	movzbl 0x15126(%rip),%eax        # 20321 <g_121>
    b1fb:	0f be c0             	movsbl %al,%eax
    b1fe:	89 d6                	mov    %edx,%esi
    b200:	89 c7                	mov    %eax,%edi
    b202:	e8 ac b1 ff ff       	callq  63b3 <safe_add_func_int16_t_s_s>
    b207:	48 8b 95 48 fd ff ff 	mov    -0x2b8(%rbp),%rdx
    b20e:	8b 12                	mov    (%rdx),%edx
    b210:	98                   	cwtl   
    b211:	21 c2                	and    %eax,%edx
    b213:	48 8b 85 48 fd ff ff 	mov    -0x2b8(%rbp),%rax
    b21a:	89 10                	mov    %edx,(%rax)
    b21c:	8b 45 8c             	mov    -0x74(%rbp),%eax
    b21f:	48 8b 4d f8          	mov    -0x8(%rbp),%rcx
    b223:	64 48 33 0c 25 28 00 	xor    %fs:0x28,%rcx
    b22a:	00 00 
    b22c:	74 05                	je     b233 <func_26+0x53d>
    b22e:	e8 3d ae ff ff       	callq  6070 <__stack_chk_fail@plt>
    b233:	c9                   	leaveq 
    b234:	c3                   	retq   

000000000000b235 <func_34>:
    b235:	f3 0f 1e fa          	endbr64 
    b239:	55                   	push   %rbp
    b23a:	48 89 e5             	mov    %rsp,%rbp
    b23d:	48 89 7d e8          	mov    %rdi,-0x18(%rbp)
    b241:	89 c8                	mov    %ecx,%eax
    b243:	89 f1                	mov    %esi,%ecx
    b245:	88 4d e4             	mov    %cl,-0x1c(%rbp)
    b248:	66 89 55 e0          	mov    %dx,-0x20(%rbp)
    b24c:	66 89 45 dc          	mov    %ax,-0x24(%rbp)
    b250:	48 c7 45 f0 00 00 00 	movq   $0x0,-0x10(%rbp)
    b257:	00 
    b258:	48 8d 05 71 4f 01 00 	lea    0x14f71(%rip),%rax        # 201d0 <g_50>
    b25f:	48 89 45 f8          	mov    %rax,-0x8(%rbp)
    b263:	48 8b 45 f8          	mov    -0x8(%rbp),%rax
    b267:	c7 00 04 00 00 00    	movl   $0x4,(%rax)
    b26d:	48 8b 45 e8          	mov    -0x18(%rbp),%rax
    b271:	5d                   	pop    %rbp
    b272:	c3                   	retq   

000000000000b273 <func_66>:
    b273:	f3 0f 1e fa          	endbr64 
    b277:	55                   	push   %rbp
    b278:	48 89 e5             	mov    %rsp,%rbp
    b27b:	41 57                	push   %r15
    b27d:	41 56                	push   %r14
    b27f:	41 55                	push   %r13
    b281:	41 54                	push   %r12
    b283:	53                   	push   %rbx
    b284:	48 81 ec 00 10 00 00 	sub    $0x1000,%rsp
    b28b:	48 83 0c 24 00       	orq    $0x0,(%rsp)
    b290:	48 83 ec 18          	sub    $0x18,%rsp
    b294:	48 89 bd e8 ef ff ff 	mov    %rdi,-0x1018(%rbp)
    b29b:	89 b5 e4 ef ff ff    	mov    %esi,-0x101c(%rbp)
    b2a1:	48 89 95 d8 ef ff ff 	mov    %rdx,-0x1028(%rbp)
    b2a8:	48 89 8d d0 ef ff ff 	mov    %rcx,-0x1030(%rbp)
    b2af:	44 89 c0             	mov    %r8d,%eax
    b2b2:	66 89 85 e0 ef ff ff 	mov    %ax,-0x1020(%rbp)
    b2b9:	64 48 8b 04 25 28 00 	mov    %fs:0x28,%rax
    b2c0:	00 00 
    b2c2:	48 89 45 c8          	mov    %rax,-0x38(%rbp)
    b2c6:	31 c0                	xor    %eax,%eax
    b2c8:	c7 85 d0 f1 ff ff f6 	movl   $0xfffffff6,-0xe30(%rbp)
    b2cf:	ff ff ff 
    b2d2:	c7 85 d4 f1 ff ff f6 	movl   $0xfffffff6,-0xe2c(%rbp)
    b2d9:	ff ff ff 
    b2dc:	c7 85 d8 f1 ff ff f6 	movl   $0xfffffff6,-0xe28(%rbp)
    b2e3:	ff ff ff 
    b2e6:	c7 85 dc f1 ff ff f6 	movl   $0xfffffff6,-0xe24(%rbp)
    b2ed:	ff ff ff 
    b2f0:	c7 85 10 f0 ff ff 00 	movl   $0x0,-0xff0(%rbp)
    b2f7:	00 00 00 
    b2fa:	c7 85 4c f0 ff ff 01 	movl   $0x1,-0xfb4(%rbp)
    b301:	00 00 00 
    b304:	c7 85 14 f0 ff ff b8 	movl   $0x7d84cdb8,-0xfec(%rbp)
    b30b:	cd 84 7d 
    b30e:	c7 85 18 f0 ff ff 06 	movl   $0x6,-0xfe8(%rbp)
    b315:	00 00 00 
    b318:	c7 85 1c f0 ff ff c5 	movl   $0x727968c5,-0xfe4(%rbp)
    b31f:	68 79 72 
    b322:	c7 85 20 f0 ff ff 5e 	movl   $0x1a522c5e,-0xfe0(%rbp)
    b329:	2c 52 1a 
    b32c:	48 8d 05 2d ed 00 00 	lea    0xed2d(%rip),%rax        # 1a060 <g_336>
    b333:	48 89 85 c8 f0 ff ff 	mov    %rax,-0xf38(%rbp)
    b33a:	c6 85 d0 f2 ff ff f9 	movb   $0xf9,-0xd30(%rbp)
    b341:	0f b6 85 d1 f2 ff ff 	movzbl -0xd2f(%rbp),%eax
    b348:	83 e0 c0             	and    $0xffffffc0,%eax
    b34b:	83 c8 3c             	or     $0x3c,%eax
    b34e:	88 85 d1 f2 ff ff    	mov    %al,-0xd2f(%rbp)
    b354:	c6 85 d4 f2 ff ff b6 	movb   $0xb6,-0xd2c(%rbp)
    b35b:	0f b6 85 d5 f2 ff ff 	movzbl -0xd2b(%rbp),%eax
    b362:	83 e0 c0             	and    $0xffffffc0,%eax
    b365:	83 c8 02             	or     $0x2,%eax
    b368:	88 85 d5 f2 ff ff    	mov    %al,-0xd2b(%rbp)
    b36e:	c6 85 d8 f2 ff ff ff 	movb   $0xff,-0xd28(%rbp)
    b375:	0f b6 85 d9 f2 ff ff 	movzbl -0xd27(%rbp),%eax
    b37c:	83 e0 c0             	and    $0xffffffc0,%eax
    b37f:	83 c8 02             	or     $0x2,%eax
    b382:	88 85 d9 f2 ff ff    	mov    %al,-0xd27(%rbp)
    b388:	c6 85 dc f2 ff ff b6 	movb   $0xb6,-0xd24(%rbp)
    b38f:	0f b6 85 dd f2 ff ff 	movzbl -0xd23(%rbp),%eax
    b396:	83 e0 c0             	and    $0xffffffc0,%eax
    b399:	83 c8 02             	or     $0x2,%eax
    b39c:	88 85 dd f2 ff ff    	mov    %al,-0xd23(%rbp)
    b3a2:	c6 85 e0 f2 ff ff f9 	movb   $0xf9,-0xd20(%rbp)
    b3a9:	0f b6 85 e1 f2 ff ff 	movzbl -0xd1f(%rbp),%eax
    b3b0:	83 e0 c0             	and    $0xffffffc0,%eax
    b3b3:	83 c8 3c             	or     $0x3c,%eax
    b3b6:	88 85 e1 f2 ff ff    	mov    %al,-0xd1f(%rbp)
    b3bc:	c6 85 e4 f2 ff ff f9 	movb   $0xf9,-0xd1c(%rbp)
    b3c3:	0f b6 85 e5 f2 ff ff 	movzbl -0xd1b(%rbp),%eax
    b3ca:	83 e0 c0             	and    $0xffffffc0,%eax
    b3cd:	83 c8 3c             	or     $0x3c,%eax
    b3d0:	88 85 e5 f2 ff ff    	mov    %al,-0xd1b(%rbp)
    b3d6:	c6 85 e8 f2 ff ff b6 	movb   $0xb6,-0xd18(%rbp)
    b3dd:	0f b6 85 e9 f2 ff ff 	movzbl -0xd17(%rbp),%eax
    b3e4:	83 e0 c0             	and    $0xffffffc0,%eax
    b3e7:	83 c8 02             	or     $0x2,%eax
    b3ea:	88 85 e9 f2 ff ff    	mov    %al,-0xd17(%rbp)
    b3f0:	c6 85 ec f2 ff ff ff 	movb   $0xff,-0xd14(%rbp)
    b3f7:	0f b6 85 ed f2 ff ff 	movzbl -0xd13(%rbp),%eax
    b3fe:	83 e0 c0             	and    $0xffffffc0,%eax
    b401:	83 c8 02             	or     $0x2,%eax
    b404:	88 85 ed f2 ff ff    	mov    %al,-0xd13(%rbp)
    b40a:	c6 85 f0 f2 ff ff b6 	movb   $0xb6,-0xd10(%rbp)
    b411:	0f b6 85 f1 f2 ff ff 	movzbl -0xd0f(%rbp),%eax
    b418:	83 e0 c0             	and    $0xffffffc0,%eax
    b41b:	83 c8 02             	or     $0x2,%eax
    b41e:	88 85 f1 f2 ff ff    	mov    %al,-0xd0f(%rbp)
    b424:	c6 85 f4 f2 ff ff f9 	movb   $0xf9,-0xd0c(%rbp)
    b42b:	0f b6 85 f5 f2 ff ff 	movzbl -0xd0b(%rbp),%eax
    b432:	83 e0 c0             	and    $0xffffffc0,%eax
    b435:	83 c8 3c             	or     $0x3c,%eax
    b438:	88 85 f5 f2 ff ff    	mov    %al,-0xd0b(%rbp)
    b43e:	c6 85 f8 f2 ff ff f9 	movb   $0xf9,-0xd08(%rbp)
    b445:	0f b6 85 f9 f2 ff ff 	movzbl -0xd07(%rbp),%eax
    b44c:	83 e0 c0             	and    $0xffffffc0,%eax
    b44f:	83 c8 3c             	or     $0x3c,%eax
    b452:	88 85 f9 f2 ff ff    	mov    %al,-0xd07(%rbp)
    b458:	c6 85 fc f2 ff ff b6 	movb   $0xb6,-0xd04(%rbp)
    b45f:	0f b6 85 fd f2 ff ff 	movzbl -0xd03(%rbp),%eax
    b466:	83 e0 c0             	and    $0xffffffc0,%eax
    b469:	83 c8 02             	or     $0x2,%eax
    b46c:	88 85 fd f2 ff ff    	mov    %al,-0xd03(%rbp)
    b472:	c6 85 00 f3 ff ff ff 	movb   $0xff,-0xd00(%rbp)
    b479:	0f b6 85 01 f3 ff ff 	movzbl -0xcff(%rbp),%eax
    b480:	83 e0 c0             	and    $0xffffffc0,%eax
    b483:	83 c8 02             	or     $0x2,%eax
    b486:	88 85 01 f3 ff ff    	mov    %al,-0xcff(%rbp)
    b48c:	c6 85 04 f3 ff ff b6 	movb   $0xb6,-0xcfc(%rbp)
    b493:	0f b6 85 05 f3 ff ff 	movzbl -0xcfb(%rbp),%eax
    b49a:	83 e0 c0             	and    $0xffffffc0,%eax
    b49d:	83 c8 02             	or     $0x2,%eax
    b4a0:	88 85 05 f3 ff ff    	mov    %al,-0xcfb(%rbp)
    b4a6:	c6 85 08 f3 ff ff f9 	movb   $0xf9,-0xcf8(%rbp)
    b4ad:	0f b6 85 09 f3 ff ff 	movzbl -0xcf7(%rbp),%eax
    b4b4:	83 e0 c0             	and    $0xffffffc0,%eax
    b4b7:	83 c8 3c             	or     $0x3c,%eax
    b4ba:	88 85 09 f3 ff ff    	mov    %al,-0xcf7(%rbp)
    b4c0:	c6 85 0c f3 ff ff f9 	movb   $0xf9,-0xcf4(%rbp)
    b4c7:	0f b6 85 0d f3 ff ff 	movzbl -0xcf3(%rbp),%eax
    b4ce:	83 e0 c0             	and    $0xffffffc0,%eax
    b4d1:	83 c8 3c             	or     $0x3c,%eax
    b4d4:	88 85 0d f3 ff ff    	mov    %al,-0xcf3(%rbp)
    b4da:	c6 85 10 f3 ff ff f9 	movb   $0xf9,-0xcf0(%rbp)
    b4e1:	0f b6 85 11 f3 ff ff 	movzbl -0xcef(%rbp),%eax
    b4e8:	83 e0 c0             	and    $0xffffffc0,%eax
    b4eb:	88 85 11 f3 ff ff    	mov    %al,-0xcef(%rbp)
    b4f1:	c6 85 14 f3 ff ff 00 	movb   $0x0,-0xcec(%rbp)
    b4f8:	0f b6 85 15 f3 ff ff 	movzbl -0xceb(%rbp),%eax
    b4ff:	83 e0 c0             	and    $0xffffffc0,%eax
    b502:	83 c8 06             	or     $0x6,%eax
    b505:	88 85 15 f3 ff ff    	mov    %al,-0xceb(%rbp)
    b50b:	c6 85 18 f3 ff ff f9 	movb   $0xf9,-0xce8(%rbp)
    b512:	0f b6 85 19 f3 ff ff 	movzbl -0xce7(%rbp),%eax
    b519:	83 e0 c0             	and    $0xffffffc0,%eax
    b51c:	88 85 19 f3 ff ff    	mov    %al,-0xce7(%rbp)
    b522:	c6 85 1c f3 ff ff b6 	movb   $0xb6,-0xce4(%rbp)
    b529:	0f b6 85 1d f3 ff ff 	movzbl -0xce3(%rbp),%eax
    b530:	83 e0 c0             	and    $0xffffffc0,%eax
    b533:	83 c8 02             	or     $0x2,%eax
    b536:	88 85 1d f3 ff ff    	mov    %al,-0xce3(%rbp)
    b53c:	c6 85 20 f3 ff ff b6 	movb   $0xb6,-0xce0(%rbp)
    b543:	0f b6 85 21 f3 ff ff 	movzbl -0xcdf(%rbp),%eax
    b54a:	83 e0 c0             	and    $0xffffffc0,%eax
    b54d:	83 c8 02             	or     $0x2,%eax
    b550:	88 85 21 f3 ff ff    	mov    %al,-0xcdf(%rbp)
    b556:	c6 85 24 f3 ff ff f9 	movb   $0xf9,-0xcdc(%rbp)
    b55d:	0f b6 85 25 f3 ff ff 	movzbl -0xcdb(%rbp),%eax
    b564:	83 e0 c0             	and    $0xffffffc0,%eax
    b567:	88 85 25 f3 ff ff    	mov    %al,-0xcdb(%rbp)
    b56d:	c6 85 28 f3 ff ff 00 	movb   $0x0,-0xcd8(%rbp)
    b574:	0f b6 85 29 f3 ff ff 	movzbl -0xcd7(%rbp),%eax
    b57b:	83 e0 c0             	and    $0xffffffc0,%eax
    b57e:	83 c8 06             	or     $0x6,%eax
    b581:	88 85 29 f3 ff ff    	mov    %al,-0xcd7(%rbp)
    b587:	c6 85 2c f3 ff ff f9 	movb   $0xf9,-0xcd4(%rbp)
    b58e:	0f b6 85 2d f3 ff ff 	movzbl -0xcd3(%rbp),%eax
    b595:	83 e0 c0             	and    $0xffffffc0,%eax
    b598:	88 85 2d f3 ff ff    	mov    %al,-0xcd3(%rbp)
    b59e:	c6 85 30 f3 ff ff b6 	movb   $0xb6,-0xcd0(%rbp)
    b5a5:	0f b6 85 31 f3 ff ff 	movzbl -0xccf(%rbp),%eax
    b5ac:	83 e0 c0             	and    $0xffffffc0,%eax
    b5af:	83 c8 02             	or     $0x2,%eax
    b5b2:	88 85 31 f3 ff ff    	mov    %al,-0xccf(%rbp)
    b5b8:	c6 85 34 f3 ff ff b6 	movb   $0xb6,-0xccc(%rbp)
    b5bf:	0f b6 85 35 f3 ff ff 	movzbl -0xccb(%rbp),%eax
    b5c6:	83 e0 c0             	and    $0xffffffc0,%eax
    b5c9:	83 c8 02             	or     $0x2,%eax
    b5cc:	88 85 35 f3 ff ff    	mov    %al,-0xccb(%rbp)
    b5d2:	c6 85 38 f3 ff ff f9 	movb   $0xf9,-0xcc8(%rbp)
    b5d9:	0f b6 85 39 f3 ff ff 	movzbl -0xcc7(%rbp),%eax
    b5e0:	83 e0 c0             	and    $0xffffffc0,%eax
    b5e3:	88 85 39 f3 ff ff    	mov    %al,-0xcc7(%rbp)
    b5e9:	c6 85 3c f3 ff ff 00 	movb   $0x0,-0xcc4(%rbp)
    b5f0:	0f b6 85 3d f3 ff ff 	movzbl -0xcc3(%rbp),%eax
    b5f7:	83 e0 c0             	and    $0xffffffc0,%eax
    b5fa:	83 c8 06             	or     $0x6,%eax
    b5fd:	88 85 3d f3 ff ff    	mov    %al,-0xcc3(%rbp)
    b603:	c6 85 40 f3 ff ff f9 	movb   $0xf9,-0xcc0(%rbp)
    b60a:	0f b6 85 41 f3 ff ff 	movzbl -0xcbf(%rbp),%eax
    b611:	83 e0 c0             	and    $0xffffffc0,%eax
    b614:	88 85 41 f3 ff ff    	mov    %al,-0xcbf(%rbp)
    b61a:	c6 85 44 f3 ff ff b6 	movb   $0xb6,-0xcbc(%rbp)
    b621:	0f b6 85 45 f3 ff ff 	movzbl -0xcbb(%rbp),%eax
    b628:	83 e0 c0             	and    $0xffffffc0,%eax
    b62b:	83 c8 02             	or     $0x2,%eax
    b62e:	88 85 45 f3 ff ff    	mov    %al,-0xcbb(%rbp)
    b634:	c6 85 48 f3 ff ff b6 	movb   $0xb6,-0xcb8(%rbp)
    b63b:	0f b6 85 49 f3 ff ff 	movzbl -0xcb7(%rbp),%eax
    b642:	83 e0 c0             	and    $0xffffffc0,%eax
    b645:	83 c8 02             	or     $0x2,%eax
    b648:	88 85 49 f3 ff ff    	mov    %al,-0xcb7(%rbp)
    b64e:	c6 85 4c f3 ff ff f9 	movb   $0xf9,-0xcb4(%rbp)
    b655:	0f b6 85 4d f3 ff ff 	movzbl -0xcb3(%rbp),%eax
    b65c:	83 e0 c0             	and    $0xffffffc0,%eax
    b65f:	88 85 4d f3 ff ff    	mov    %al,-0xcb3(%rbp)
    b665:	c6 85 50 f3 ff ff 00 	movb   $0x0,-0xcb0(%rbp)
    b66c:	0f b6 85 51 f3 ff ff 	movzbl -0xcaf(%rbp),%eax
    b673:	83 e0 c0             	and    $0xffffffc0,%eax
    b676:	83 c8 06             	or     $0x6,%eax
    b679:	88 85 51 f3 ff ff    	mov    %al,-0xcaf(%rbp)
    b67f:	c6 85 54 f3 ff ff f9 	movb   $0xf9,-0xcac(%rbp)
    b686:	0f b6 85 55 f3 ff ff 	movzbl -0xcab(%rbp),%eax
    b68d:	83 e0 c0             	and    $0xffffffc0,%eax
    b690:	88 85 55 f3 ff ff    	mov    %al,-0xcab(%rbp)
    b696:	c6 85 58 f3 ff ff b6 	movb   $0xb6,-0xca8(%rbp)
    b69d:	0f b6 85 59 f3 ff ff 	movzbl -0xca7(%rbp),%eax
    b6a4:	83 e0 c0             	and    $0xffffffc0,%eax
    b6a7:	83 c8 02             	or     $0x2,%eax
    b6aa:	88 85 59 f3 ff ff    	mov    %al,-0xca7(%rbp)
    b6b0:	c6 85 5c f3 ff ff b6 	movb   $0xb6,-0xca4(%rbp)
    b6b7:	0f b6 85 5d f3 ff ff 	movzbl -0xca3(%rbp),%eax
    b6be:	83 e0 c0             	and    $0xffffffc0,%eax
    b6c1:	83 c8 02             	or     $0x2,%eax
    b6c4:	88 85 5d f3 ff ff    	mov    %al,-0xca3(%rbp)
    b6ca:	c6 85 60 f3 ff ff f9 	movb   $0xf9,-0xca0(%rbp)
    b6d1:	0f b6 85 61 f3 ff ff 	movzbl -0xc9f(%rbp),%eax
    b6d8:	83 e0 c0             	and    $0xffffffc0,%eax
    b6db:	88 85 61 f3 ff ff    	mov    %al,-0xc9f(%rbp)
    b6e1:	c6 85 64 f3 ff ff 00 	movb   $0x0,-0xc9c(%rbp)
    b6e8:	0f b6 85 65 f3 ff ff 	movzbl -0xc9b(%rbp),%eax
    b6ef:	83 e0 c0             	and    $0xffffffc0,%eax
    b6f2:	83 c8 06             	or     $0x6,%eax
    b6f5:	88 85 65 f3 ff ff    	mov    %al,-0xc9b(%rbp)
    b6fb:	c6 85 68 f3 ff ff f9 	movb   $0xf9,-0xc98(%rbp)
    b702:	0f b6 85 69 f3 ff ff 	movzbl -0xc97(%rbp),%eax
    b709:	83 e0 c0             	and    $0xffffffc0,%eax
    b70c:	88 85 69 f3 ff ff    	mov    %al,-0xc97(%rbp)
    b712:	c6 85 6c f3 ff ff b6 	movb   $0xb6,-0xc94(%rbp)
    b719:	0f b6 85 6d f3 ff ff 	movzbl -0xc93(%rbp),%eax
    b720:	83 e0 c0             	and    $0xffffffc0,%eax
    b723:	83 c8 02             	or     $0x2,%eax
    b726:	88 85 6d f3 ff ff    	mov    %al,-0xc93(%rbp)
    b72c:	c6 85 70 f3 ff ff b6 	movb   $0xb6,-0xc90(%rbp)
    b733:	0f b6 85 71 f3 ff ff 	movzbl -0xc8f(%rbp),%eax
    b73a:	83 e0 c0             	and    $0xffffffc0,%eax
    b73d:	83 c8 02             	or     $0x2,%eax
    b740:	88 85 71 f3 ff ff    	mov    %al,-0xc8f(%rbp)
    b746:	c6 85 74 f3 ff ff f9 	movb   $0xf9,-0xc8c(%rbp)
    b74d:	0f b6 85 75 f3 ff ff 	movzbl -0xc8b(%rbp),%eax
    b754:	83 e0 c0             	and    $0xffffffc0,%eax
    b757:	88 85 75 f3 ff ff    	mov    %al,-0xc8b(%rbp)
    b75d:	c6 85 78 f3 ff ff 00 	movb   $0x0,-0xc88(%rbp)
    b764:	0f b6 85 79 f3 ff ff 	movzbl -0xc87(%rbp),%eax
    b76b:	83 e0 c0             	and    $0xffffffc0,%eax
    b76e:	83 c8 06             	or     $0x6,%eax
    b771:	88 85 79 f3 ff ff    	mov    %al,-0xc87(%rbp)
    b777:	c6 85 7c f3 ff ff f9 	movb   $0xf9,-0xc84(%rbp)
    b77e:	0f b6 85 7d f3 ff ff 	movzbl -0xc83(%rbp),%eax
    b785:	83 e0 c0             	and    $0xffffffc0,%eax
    b788:	88 85 7d f3 ff ff    	mov    %al,-0xc83(%rbp)
    b78e:	c6 85 80 f3 ff ff b6 	movb   $0xb6,-0xc80(%rbp)
    b795:	0f b6 85 81 f3 ff ff 	movzbl -0xc7f(%rbp),%eax
    b79c:	83 e0 c0             	and    $0xffffffc0,%eax
    b79f:	83 c8 02             	or     $0x2,%eax
    b7a2:	88 85 81 f3 ff ff    	mov    %al,-0xc7f(%rbp)
    b7a8:	c6 85 84 f3 ff ff b6 	movb   $0xb6,-0xc7c(%rbp)
    b7af:	0f b6 85 85 f3 ff ff 	movzbl -0xc7b(%rbp),%eax
    b7b6:	83 e0 c0             	and    $0xffffffc0,%eax
    b7b9:	83 c8 02             	or     $0x2,%eax
    b7bc:	88 85 85 f3 ff ff    	mov    %al,-0xc7b(%rbp)
    b7c2:	c6 85 88 f3 ff ff f9 	movb   $0xf9,-0xc78(%rbp)
    b7c9:	0f b6 85 89 f3 ff ff 	movzbl -0xc77(%rbp),%eax
    b7d0:	83 e0 c0             	and    $0xffffffc0,%eax
    b7d3:	88 85 89 f3 ff ff    	mov    %al,-0xc77(%rbp)
    b7d9:	c6 85 8c f3 ff ff 00 	movb   $0x0,-0xc74(%rbp)
    b7e0:	0f b6 85 8d f3 ff ff 	movzbl -0xc73(%rbp),%eax
    b7e7:	83 e0 c0             	and    $0xffffffc0,%eax
    b7ea:	83 c8 06             	or     $0x6,%eax
    b7ed:	88 85 8d f3 ff ff    	mov    %al,-0xc73(%rbp)
    b7f3:	c6 85 90 f3 ff ff f9 	movb   $0xf9,-0xc70(%rbp)
    b7fa:	0f b6 85 91 f3 ff ff 	movzbl -0xc6f(%rbp),%eax
    b801:	83 e0 c0             	and    $0xffffffc0,%eax
    b804:	88 85 91 f3 ff ff    	mov    %al,-0xc6f(%rbp)
    b80a:	c6 85 94 f3 ff ff b6 	movb   $0xb6,-0xc6c(%rbp)
    b811:	0f b6 85 95 f3 ff ff 	movzbl -0xc6b(%rbp),%eax
    b818:	83 e0 c0             	and    $0xffffffc0,%eax
    b81b:	83 c8 02             	or     $0x2,%eax
    b81e:	88 85 95 f3 ff ff    	mov    %al,-0xc6b(%rbp)
    b824:	c7 85 24 f0 ff ff 8a 	movl   $0x9efbc98a,-0xfdc(%rbp)
    b82b:	c9 fb 9e 
    b82e:	c7 85 28 f0 ff ff 01 	movl   $0x1,-0xfd8(%rbp)
    b835:	00 00 00 
    b838:	c7 85 2c f0 ff ff 92 	movl   $0x871cef92,-0xfd4(%rbp)
    b83f:	ef 1c 87 
    b842:	c7 85 30 f0 ff ff 08 	movl   $0x8,-0xfd0(%rbp)
    b849:	00 00 00 
    b84c:	c7 85 50 f0 ff ff ab 	movl   $0x2f085dab,-0xfb0(%rbp)
    b853:	5d 08 2f 
    b856:	48 8d 05 cb 4a 01 00 	lea    0x14acb(%rip),%rax        # 20328 <g_138>
    b85d:	48 89 85 d0 f0 ff ff 	mov    %rax,-0xf30(%rbp)
    b864:	66 c7 85 02 f0 ff ff 	movw   $0x1,-0xffe(%rbp)
    b86b:	01 00 
    b86d:	c6 85 fe ef ff ff 01 	movb   $0x1,-0x1002(%rbp)
    b874:	66 c7 85 06 f0 ff ff 	movw   $0x5bfd,-0xffa(%rbp)
    b87b:	fd 5b 
    b87d:	8b 05 3d 4c 01 00    	mov    0x14c3d(%rip),%eax        # 204c0 <g_1250>
    b883:	85 c0                	test   %eax,%eax
    b885:	0f 84 c2 39 00 00    	je     f24d <func_66+0x3fda>
    b88b:	48 c7 85 e0 f0 ff ff 	movq   $0x0,-0xf20(%rbp)
    b892:	00 00 00 00 
    b896:	c7 85 34 f0 ff ff 90 	movl   $0xc441f790,-0xfcc(%rbp)
    b89d:	f7 41 c4 
    b8a0:	c7 85 84 f0 ff ff 78 	movl   $0xeabc1178,-0xf7c(%rbp)
    b8a7:	11 bc ea 
    b8aa:	c7 85 38 f0 ff ff ff 	movl   $0xffffffff,-0xfc8(%rbp)
    b8b1:	ff ff ff 
    b8b4:	c7 85 3c f0 ff ff 8d 	movl   $0x7659b28d,-0xfc4(%rbp)
    b8bb:	b2 59 76 
    b8be:	c7 85 40 f0 ff ff fb 	movl   $0xfffffffb,-0xfc0(%rbp)
    b8c5:	ff ff ff 
    b8c8:	48 8d 05 9c 4a 01 00 	lea    0x14a9c(%rip),%rax        # 2036b <g_517+0xb>
    b8cf:	48 89 85 e8 f0 ff ff 	mov    %rax,-0xf18(%rbp)
    b8d6:	48 8d 05 95 4a 01 00 	lea    0x14a95(%rip),%rax        # 20372 <g_653>
    b8dd:	48 89 85 b0 f0 ff ff 	mov    %rax,-0xf50(%rbp)
    b8e4:	48 b8 1c 4f 13 9c 6e 	movabs $0xb9aa786e9c134f1c,%rax
    b8eb:	78 aa b9 
    b8ee:	48 89 85 f0 f0 ff ff 	mov    %rax,-0xf10(%rbp)
    b8f5:	c7 85 00 f2 ff ff 94 	movl   $0xfb5d8c94,-0xe00(%rbp)
    b8fc:	8c 5d fb 
    b8ff:	c7 85 04 f2 ff ff 94 	movl   $0xfb5d8c94,-0xdfc(%rbp)
    b906:	8c 5d fb 
    b909:	c7 85 08 f2 ff ff 54 	movl   $0xcd1bc754,-0xdf8(%rbp)
    b910:	c7 1b cd 
    b913:	c7 85 0c f2 ff ff 94 	movl   $0xfb5d8c94,-0xdf4(%rbp)
    b91a:	8c 5d fb 
    b91d:	c7 85 10 f2 ff ff 94 	movl   $0xfb5d8c94,-0xdf0(%rbp)
    b924:	8c 5d fb 
    b927:	c7 85 14 f2 ff ff 54 	movl   $0xcd1bc754,-0xdec(%rbp)
    b92e:	c7 1b cd 
    b931:	c6 85 44 f0 ff ff d4 	movb   $0xd4,-0xfbc(%rbp)
    b938:	0f b6 85 45 f0 ff ff 	movzbl -0xfbb(%rbp),%eax
    b93f:	83 e0 c0             	and    $0xffffffc0,%eax
    b942:	83 c8 39             	or     $0x39,%eax
    b945:	88 85 45 f0 ff ff    	mov    %al,-0xfbb(%rbp)
    b94b:	c7 85 54 f0 ff ff 00 	movl   $0x0,-0xfac(%rbp)
    b952:	00 00 00 
    b955:	eb 1a                	jmp    b971 <func_66+0x6fe>
    b957:	8b 85 54 f0 ff ff    	mov    -0xfac(%rbp),%eax
    b95d:	48 98                	cltq   
    b95f:	c7 84 85 e0 f1 ff ff 	movl   $0x59ef2948,-0xe20(%rbp,%rax,4)
    b966:	48 29 ef 59 
    b96a:	83 85 54 f0 ff ff 01 	addl   $0x1,-0xfac(%rbp)
    b971:	83 bd 54 f0 ff ff 05 	cmpl   $0x5,-0xfac(%rbp)
    b978:	7e dd                	jle    b957 <func_66+0x6e4>
    b97a:	90                   	nop
    b97b:	48 83 bd e0 f0 ff ff 	cmpq   $0x0,-0xf20(%rbp)
    b982:	00 
    b983:	0f 85 41 15 00 00    	jne    ceca <func_66+0x1c57>
    b989:	48 8d 05 14 4b 01 00 	lea    0x14b14(%rip),%rax        # 204a4 <g_988>
    b990:	48 89 85 20 f1 ff ff 	mov    %rax,-0xee0(%rbp)
    b997:	48 8d 05 fe 4a 01 00 	lea    0x14afe(%rip),%rax        # 2049c <g_984+0xc>
    b99e:	48 89 85 28 f1 ff ff 	mov    %rax,-0xed8(%rbp)
    b9a5:	48 c7 85 80 f2 ff ff 	movq   $0x0,-0xd80(%rbp)
    b9ac:	00 00 00 00 
    b9b0:	48 c7 85 88 f2 ff ff 	movq   $0x0,-0xd78(%rbp)
    b9b7:	00 00 00 00 
    b9bb:	48 8d 05 0e 48 01 00 	lea    0x1480e(%rip),%rax        # 201d0 <g_50>
    b9c2:	48 89 85 90 f2 ff ff 	mov    %rax,-0xd70(%rbp)
    b9c9:	48 c7 85 98 f2 ff ff 	movq   $0x0,-0xd68(%rbp)
    b9d0:	00 00 00 00 
    b9d4:	48 c7 85 a0 f2 ff ff 	movq   $0x0,-0xd60(%rbp)
    b9db:	00 00 00 00 
    b9df:	48 8d 05 ea 47 01 00 	lea    0x147ea(%rip),%rax        # 201d0 <g_50>
    b9e6:	48 89 85 a8 f2 ff ff 	mov    %rax,-0xd58(%rbp)
    b9ed:	48 c7 85 b0 f2 ff ff 	movq   $0x0,-0xd50(%rbp)
    b9f4:	00 00 00 00 
    b9f8:	48 c7 85 b8 f2 ff ff 	movq   $0x0,-0xd48(%rbp)
    b9ff:	00 00 00 00 
    ba03:	48 8d 05 c6 47 01 00 	lea    0x147c6(%rip),%rax        # 201d0 <g_50>
    ba0a:	48 89 85 c0 f2 ff ff 	mov    %rax,-0xd40(%rbp)
    ba11:	48 8d 85 a0 f3 ff ff 	lea    -0xc60(%rbp),%rax
    ba18:	48 8d 15 e1 f9 00 00 	lea    0xf9e1(%rip),%rdx        # 1b400 <g_2872+0x1380>
    ba1f:	b9 1f 00 00 00       	mov    $0x1f,%ecx
    ba24:	48 89 c7             	mov    %rax,%rdi
    ba27:	48 89 d6             	mov    %rdx,%rsi
    ba2a:	f3 48 a5             	rep movsq %ds:(%rsi),%es:(%rdi)
    ba2d:	48 89 f2             	mov    %rsi,%rdx
    ba30:	48 89 f8             	mov    %rdi,%rax
    ba33:	8b 0a                	mov    (%rdx),%ecx
    ba35:	89 08                	mov    %ecx,(%rax)
    ba37:	48 8d 40 04          	lea    0x4(%rax),%rax
    ba3b:	48 8d 52 04          	lea    0x4(%rdx),%rdx
    ba3f:	c6 85 40 f2 ff ff 03 	movb   $0x3,-0xdc0(%rbp)
    ba46:	0f b6 85 41 f2 ff ff 	movzbl -0xdbf(%rbp),%eax
    ba4d:	83 e0 c0             	and    $0xffffffc0,%eax
    ba50:	83 c8 04             	or     $0x4,%eax
    ba53:	88 85 41 f2 ff ff    	mov    %al,-0xdbf(%rbp)
    ba59:	c6 85 44 f2 ff ff 53 	movb   $0x53,-0xdbc(%rbp)
    ba60:	0f b6 85 45 f2 ff ff 	movzbl -0xdbb(%rbp),%eax
    ba67:	83 e0 c0             	and    $0xffffffc0,%eax
    ba6a:	88 85 45 f2 ff ff    	mov    %al,-0xdbb(%rbp)
    ba70:	c6 85 48 f2 ff ff 01 	movb   $0x1,-0xdb8(%rbp)
    ba77:	0f b6 85 49 f2 ff ff 	movzbl -0xdb7(%rbp),%eax
    ba7e:	83 e0 c0             	and    $0xffffffc0,%eax
    ba81:	83 c8 07             	or     $0x7,%eax
    ba84:	88 85 49 f2 ff ff    	mov    %al,-0xdb7(%rbp)
    ba8a:	c6 85 4c f2 ff ff 01 	movb   $0x1,-0xdb4(%rbp)
    ba91:	0f b6 85 4d f2 ff ff 	movzbl -0xdb3(%rbp),%eax
    ba98:	83 e0 c0             	and    $0xffffffc0,%eax
    ba9b:	83 c8 07             	or     $0x7,%eax
    ba9e:	88 85 4d f2 ff ff    	mov    %al,-0xdb3(%rbp)
    baa4:	c6 85 50 f2 ff ff 01 	movb   $0x1,-0xdb0(%rbp)
    baab:	0f b6 85 51 f2 ff ff 	movzbl -0xdaf(%rbp),%eax
    bab2:	83 e0 c0             	and    $0xffffffc0,%eax
    bab5:	83 c8 07             	or     $0x7,%eax
    bab8:	88 85 51 f2 ff ff    	mov    %al,-0xdaf(%rbp)
    babe:	c6 85 54 f2 ff ff 53 	movb   $0x53,-0xdac(%rbp)
    bac5:	0f b6 85 55 f2 ff ff 	movzbl -0xdab(%rbp),%eax
    bacc:	83 e0 c0             	and    $0xffffffc0,%eax
    bacf:	88 85 55 f2 ff ff    	mov    %al,-0xdab(%rbp)
    bad5:	c6 85 58 f2 ff ff 03 	movb   $0x3,-0xda8(%rbp)
    badc:	0f b6 85 59 f2 ff ff 	movzbl -0xda7(%rbp),%eax
    bae3:	83 e0 c0             	and    $0xffffffc0,%eax
    bae6:	83 c8 04             	or     $0x4,%eax
    bae9:	88 85 59 f2 ff ff    	mov    %al,-0xda7(%rbp)
    baef:	c6 85 5c f2 ff ff 02 	movb   $0x2,-0xda4(%rbp)
    baf6:	0f b6 85 5d f2 ff ff 	movzbl -0xda3(%rbp),%eax
    bafd:	83 e0 c0             	and    $0xffffffc0,%eax
    bb00:	83 c8 3a             	or     $0x3a,%eax
    bb03:	88 85 5d f2 ff ff    	mov    %al,-0xda3(%rbp)
    bb09:	c6 85 60 f2 ff ff 53 	movb   $0x53,-0xda0(%rbp)
    bb10:	0f b6 85 61 f2 ff ff 	movzbl -0xd9f(%rbp),%eax
    bb17:	83 e0 c0             	and    $0xffffffc0,%eax
    bb1a:	88 85 61 f2 ff ff    	mov    %al,-0xd9f(%rbp)
    bb20:	c6 85 64 f2 ff ff 02 	movb   $0x2,-0xd9c(%rbp)
    bb27:	0f b6 85 65 f2 ff ff 	movzbl -0xd9b(%rbp),%eax
    bb2e:	83 e0 c0             	and    $0xffffffc0,%eax
    bb31:	83 c8 3a             	or     $0x3a,%eax
    bb34:	88 85 65 f2 ff ff    	mov    %al,-0xd9b(%rbp)
    bb3a:	c6 85 68 f2 ff ff 03 	movb   $0x3,-0xd98(%rbp)
    bb41:	0f b6 85 69 f2 ff ff 	movzbl -0xd97(%rbp),%eax
    bb48:	83 e0 c0             	and    $0xffffffc0,%eax
    bb4b:	83 c8 04             	or     $0x4,%eax
    bb4e:	88 85 69 f2 ff ff    	mov    %al,-0xd97(%rbp)
    bb54:	c6 85 6c f2 ff ff 53 	movb   $0x53,-0xd94(%rbp)
    bb5b:	0f b6 85 6d f2 ff ff 	movzbl -0xd93(%rbp),%eax
    bb62:	83 e0 c0             	and    $0xffffffc0,%eax
    bb65:	88 85 6d f2 ff ff    	mov    %al,-0xd93(%rbp)
    bb6b:	c6 85 70 f2 ff ff 01 	movb   $0x1,-0xd90(%rbp)
    bb72:	0f b6 85 71 f2 ff ff 	movzbl -0xd8f(%rbp),%eax
    bb79:	83 e0 c0             	and    $0xffffffc0,%eax
    bb7c:	83 c8 07             	or     $0x7,%eax
    bb7f:	88 85 71 f2 ff ff    	mov    %al,-0xd8f(%rbp)
    bb85:	c6 85 74 f2 ff ff 01 	movb   $0x1,-0xd8c(%rbp)
    bb8c:	0f b6 85 75 f2 ff ff 	movzbl -0xd8b(%rbp),%eax
    bb93:	83 e0 c0             	and    $0xffffffc0,%eax
    bb96:	83 c8 07             	or     $0x7,%eax
    bb99:	88 85 75 f2 ff ff    	mov    %al,-0xd8b(%rbp)
    bb9f:	c6 85 78 f2 ff ff 01 	movb   $0x1,-0xd88(%rbp)
    bba6:	0f b6 85 79 f2 ff ff 	movzbl -0xd87(%rbp),%eax
    bbad:	83 e0 c0             	and    $0xffffffc0,%eax
    bbb0:	83 c8 07             	or     $0x7,%eax
    bbb3:	88 85 79 f2 ff ff    	mov    %al,-0xd87(%rbp)
    bbb9:	c6 85 7c f2 ff ff 03 	movb   $0x3,-0xd84(%rbp)
    bbc0:	0f b6 85 7d f2 ff ff 	movzbl -0xd83(%rbp),%eax
    bbc7:	83 e0 c0             	and    $0xffffffc0,%eax
    bbca:	83 c8 04             	or     $0x4,%eax
    bbcd:	88 85 7d f2 ff ff    	mov    %al,-0xd83(%rbp)
    bbd3:	48 8d 05 4e 6d 01 00 	lea    0x16d4e(%rip),%rax        # 22928 <g_1322>
    bbda:	48 89 85 30 f1 ff ff 	mov    %rax,-0xed0(%rbp)
    bbe1:	48 8d 85 40 f2 ff ff 	lea    -0xdc0(%rbp),%rax
    bbe8:	48 83 c0 20          	add    $0x20,%rax
    bbec:	48 89 85 38 f1 ff ff 	mov    %rax,-0xec8(%rbp)
    bbf3:	0f b7 85 0e f4 ff ff 	movzwl -0xbf2(%rbp),%eax
    bbfa:	83 c0 01             	add    $0x1,%eax
    bbfd:	66 89 85 0e f4 ff ff 	mov    %ax,-0xbf2(%rbp)
    bc04:	c6 05 2d 47 01 00 fe 	movb   $0xfe,0x1472d(%rip)        # 20338 <g_159>
    bc0b:	e9 a6 12 00 00       	jmpq   ceb6 <func_66+0x1c43>
    bc10:	c7 85 8c f0 ff ff ff 	movl   $0xffffffff,-0xf74(%rbp)
    bc17:	ff ff ff 
    bc1a:	48 8d 85 a0 f4 ff ff 	lea    -0xb60(%rbp),%rax
    bc21:	48 8d 15 d8 f8 00 00 	lea    0xf8d8(%rip),%rdx        # 1b500 <g_2872+0x1480>
    bc28:	b9 24 00 00 00       	mov    $0x24,%ecx
    bc2d:	48 89 c7             	mov    %rax,%rdi
    bc30:	48 89 d6             	mov    %rdx,%rsi
    bc33:	f3 48 a5             	rep movsq %ds:(%rsi),%es:(%rdi)
    bc36:	48 8d 05 eb 6c 01 00 	lea    0x16ceb(%rip),%rax        # 22928 <g_1322>
    bc3d:	48 89 85 b8 f0 ff ff 	mov    %rax,-0xf48(%rbp)
    bc44:	c7 85 90 f0 ff ff ff 	movl   $0xffffffff,-0xf70(%rbp)
    bc4b:	ff ff ff 
    bc4e:	c7 85 18 f0 ff ff e6 	movl   $0xffffffe6,-0xfe8(%rbp)
    bc55:	ff ff ff 
    bc58:	e9 b1 01 00 00       	jmpq   be0e <func_66+0xb9b>
    bc5d:	48 8d 85 40 f2 ff ff 	lea    -0xdc0(%rbp),%rax
    bc64:	48 83 c0 08          	add    $0x8,%rax
    bc68:	48 89 85 c0 f0 ff ff 	mov    %rax,-0xf40(%rbp)
    bc6f:	c7 85 58 f0 ff ff 00 	movl   $0x0,-0xfa8(%rbp)
    bc76:	00 00 00 
    bc79:	eb 1e                	jmp    bc99 <func_66+0xa26>
    bc7b:	8b 85 58 f0 ff ff    	mov    -0xfa8(%rbp),%eax
    bc81:	48 98                	cltq   
    bc83:	48 8d 95 c0 f0 ff ff 	lea    -0xf40(%rbp),%rdx
    bc8a:	48 89 94 c5 20 f8 ff 	mov    %rdx,-0x7e0(%rbp,%rax,8)
    bc91:	ff 
    bc92:	83 85 58 f0 ff ff 01 	addl   $0x1,-0xfa8(%rbp)
    bc99:	83 bd 58 f0 ff ff 03 	cmpl   $0x3,-0xfa8(%rbp)
    bca0:	7e d9                	jle    bc7b <func_66+0xa08>
    bca2:	66 c7 85 e0 ef ff ff 	movw   $0x0,-0x1020(%rbp)
    bca9:	00 00 
    bcab:	e9 36 01 00 00       	jmpq   bde6 <func_66+0xb73>
    bcb0:	0f b7 85 e0 ef ff ff 	movzwl -0x1020(%rbp),%eax
    bcb7:	48 98                	cltq   
    bcb9:	48 8d 14 85 00 00 00 	lea    0x0(,%rax,4),%rdx
    bcc0:	00 
    bcc1:	48 8d 05 c8 47 01 00 	lea    0x147c8(%rip),%rax        # 20490 <g_984>
    bcc8:	8b 0c 02             	mov    (%rdx,%rax,1),%ecx
    bccb:	48 8b 85 d0 ef ff ff 	mov    -0x1030(%rbp),%rax
    bcd2:	8b 10                	mov    (%rax),%edx
    bcd4:	0f b7 85 e0 ef ff ff 	movzwl -0x1020(%rbp),%eax
    bcdb:	31 d1                	xor    %edx,%ecx
    bcdd:	48 98                	cltq   
    bcdf:	48 8d 14 85 00 00 00 	lea    0x0(,%rax,4),%rdx
    bce6:	00 
    bce7:	48 8d 05 a2 47 01 00 	lea    0x147a2(%rip),%rax        # 20490 <g_984>
    bcee:	89 0c 02             	mov    %ecx,(%rdx,%rax,1)
    bcf1:	8b 85 d4 f1 ff ff    	mov    -0xe2c(%rbp),%eax
    bcf7:	0f b7 d8             	movzwl %ax,%ebx
    bcfa:	48 83 bd e8 ef ff ff 	cmpq   $0xffffffffffffffff,-0x1018(%rbp)
    bd01:	ff 
    bd02:	0f 95 c0             	setne  %al
    bd05:	0f b6 c0             	movzbl %al,%eax
    bd08:	be 02 00 00 00       	mov    $0x2,%esi
    bd0d:	89 c7                	mov    %eax,%edi
    bd0f:	e8 38 af ff ff       	callq  6c4c <safe_lshift_func_uint8_t_u_u>
    bd14:	44 0f b6 e0          	movzbl %al,%r12d
    bd18:	8b 85 e0 f1 ff ff    	mov    -0xe20(%rbp),%eax
    bd1e:	48 63 d0             	movslq %eax,%rdx
    bd21:	48 8b 85 e8 ef ff ff 	mov    -0x1018(%rbp),%rax
    bd28:	48 89 d6             	mov    %rdx,%rsi
    bd2b:	48 89 c7             	mov    %rax,%rdi
    bd2e:	e8 7c b3 ff ff       	callq  70af <safe_div_func_uint64_t_u_u>
    bd33:	48 89 c2             	mov    %rax,%rdx
    bd36:	0f b6 05 fb 45 01 00 	movzbl 0x145fb(%rip),%eax        # 20338 <g_159>
    bd3d:	0f b6 c0             	movzbl %al,%eax
    bd40:	48 39 85 e8 ef ff ff 	cmp    %rax,-0x1018(%rbp)
    bd47:	0f 95 c1             	setne  %cl
    bd4a:	48 8b 05 07 51 01 00 	mov    0x15107(%rip),%rax        # 20e58 <g_580>
    bd51:	0f b6 c9             	movzbl %cl,%ecx
    bd54:	89 08                	mov    %ecx,(%rax)
    bd56:	8b 00                	mov    (%rax),%eax
    bd58:	89 c0                	mov    %eax,%eax
    bd5a:	48 09 d0             	or     %rdx,%rax
    bd5d:	49 39 c4             	cmp    %rax,%r12
    bd60:	0f 95 c0             	setne  %al
    bd63:	0f b6 c0             	movzbl %al,%eax
    bd66:	89 85 8c f0 ff ff    	mov    %eax,-0xf74(%rbp)
    bd6c:	0f b7 05 a5 46 01 00 	movzwl 0x146a5(%rip),%eax        # 20418 <g_883+0x78>
    bd73:	66 85 c0             	test   %ax,%ax
    bd76:	0f 9f c0             	setg   %al
    bd79:	0f b6 d0             	movzbl %al,%edx
    bd7c:	8b 85 e4 ef ff ff    	mov    -0x101c(%rbp),%eax
    bd82:	0f be c0             	movsbl %al,%eax
    bd85:	89 d6                	mov    %edx,%esi
    bd87:	89 c7                	mov    %eax,%edi
    bd89:	e8 64 a4 ff ff       	callq  61f2 <safe_sub_func_int8_t_s_s>
    bd8e:	66 98                	cbtw   
    bd90:	0f b7 c0             	movzwl %ax,%eax
    bd93:	89 de                	mov    %ebx,%esi
    bd95:	89 c7                	mov    %eax,%edi
    bd97:	e8 c0 af ff ff       	callq  6d5c <safe_mod_func_uint16_t_u_u>
    bd9c:	48 8b 95 20 f1 ff ff 	mov    -0xee0(%rbp),%rdx
    bda3:	8b 12                	mov    (%rdx),%edx
    bda5:	0f b7 c0             	movzwl %ax,%eax
    bda8:	09 c2                	or     %eax,%edx
    bdaa:	48 8b 85 20 f1 ff ff 	mov    -0xee0(%rbp),%rax
    bdb1:	89 10                	mov    %edx,(%rax)
    bdb3:	48 8b 85 20 f1 ff ff 	mov    -0xee0(%rbp),%rax
    bdba:	8b 10                	mov    (%rax),%edx
    bdbc:	48 8b 85 d0 ef ff ff 	mov    -0x1030(%rbp),%rax
    bdc3:	8b 00                	mov    (%rax),%eax
    bdc5:	09 c2                	or     %eax,%edx
    bdc7:	48 8b 85 d0 ef ff ff 	mov    -0x1030(%rbp),%rax
    bdce:	89 10                	mov    %edx,(%rax)
    bdd0:	48 8b 85 c8 f0 ff ff 	mov    -0xf38(%rbp),%rax
    bdd7:	48 89 85 30 f8 ff ff 	mov    %rax,-0x7d0(%rbp)
    bdde:	66 83 85 e0 ef ff ff 	addw   $0x1,-0x1020(%rbp)
    bde5:	01 
    bde6:	66 83 bd e0 ef ff ff 	cmpw   $0x4,-0x1020(%rbp)
    bded:	04 
    bdee:	0f 86 bc fe ff ff    	jbe    bcb0 <func_66+0xa3d>
    bdf4:	8b 85 18 f0 ff ff    	mov    -0xfe8(%rbp),%eax
    bdfa:	98                   	cwtl   
    bdfb:	be 03 00 00 00       	mov    $0x3,%esi
    be00:	89 c7                	mov    %eax,%edi
    be02:	e8 ac a5 ff ff       	callq  63b3 <safe_add_func_int16_t_s_s>
    be07:	98                   	cwtl   
    be08:	89 85 18 f0 ff ff    	mov    %eax,-0xfe8(%rbp)
    be0e:	8b 85 18 f0 ff ff    	mov    -0xfe8(%rbp),%eax
    be14:	83 f8 eb             	cmp    $0xffffffeb,%eax
    be17:	0f 8c 40 fe ff ff    	jl     bc5d <func_66+0x9ea>
    be1d:	c7 05 99 46 01 00 00 	movl   $0x0,0x14699(%rip)        # 204c0 <g_1250>
    be24:	00 00 00 
    be27:	90                   	nop
    be28:	8b 05 92 46 01 00    	mov    0x14692(%rip),%eax        # 204c0 <g_1250>
    be2e:	83 f8 18             	cmp    $0x18,%eax
    be31:	74 0b                	je     be3e <func_66+0xbcb>
    be33:	8b 85 48 f3 ff ff    	mov    -0xcb8(%rbp),%eax
    be39:	e9 94 45 00 00       	jmpq   103d2 <func_66+0x515f>
    be3e:	0f b6 05 7f 46 01 00 	movzbl 0x1467f(%rip),%eax        # 204c4 <g_1299>
    be45:	83 e8 01             	sub    $0x1,%eax
    be48:	88 05 76 46 01 00    	mov    %al,0x14676(%rip)        # 204c4 <g_1299>
    be4e:	c7 85 24 f0 ff ff 14 	movl   $0x14,-0xfdc(%rbp)
    be55:	00 00 00 
    be58:	e9 3a 10 00 00       	jmpq   ce97 <func_66+0x1c24>
    be5d:	c7 85 94 f0 ff ff 01 	movl   $0x1,-0xf6c(%rbp)
    be64:	00 00 00 
    be67:	48 8d 05 3a 45 01 00 	lea    0x1453a(%rip),%rax        # 203a8 <g_883+0x8>
    be6e:	48 89 85 20 f2 ff ff 	mov    %rax,-0xde0(%rbp)
    be75:	48 8d 05 2c 45 01 00 	lea    0x1452c(%rip),%rax        # 203a8 <g_883+0x8>
    be7c:	48 89 85 28 f2 ff ff 	mov    %rax,-0xdd8(%rbp)
    be83:	48 8d 05 1e 45 01 00 	lea    0x1451e(%rip),%rax        # 203a8 <g_883+0x8>
    be8a:	48 89 85 30 f2 ff ff 	mov    %rax,-0xdd0(%rbp)
    be91:	48 8d 05 10 45 01 00 	lea    0x14510(%rip),%rax        # 203a8 <g_883+0x8>
    be98:	48 89 85 38 f2 ff ff 	mov    %rax,-0xdc8(%rbp)
    be9f:	c7 85 98 f0 ff ff 58 	movl   $0x9762e558,-0xf68(%rbp)
    bea6:	e5 62 97 
    bea9:	48 c7 85 40 f1 ff ff 	movq   $0x0,-0xec0(%rbp)
    beb0:	00 00 00 00 
    beb4:	48 8d 05 f1 45 01 00 	lea    0x145f1(%rip),%rax        # 204ac <g_1139>
    bebb:	48 89 85 20 f8 ff ff 	mov    %rax,-0x7e0(%rbp)
    bec2:	48 8d 85 40 f2 ff ff 	lea    -0xdc0(%rbp),%rax
    bec9:	48 83 c0 08          	add    $0x8,%rax
    becd:	48 89 85 28 f8 ff ff 	mov    %rax,-0x7d8(%rbp)
    bed4:	48 8d 05 d1 45 01 00 	lea    0x145d1(%rip),%rax        # 204ac <g_1139>
    bedb:	48 89 85 30 f8 ff ff 	mov    %rax,-0x7d0(%rbp)
    bee2:	48 8d 05 c3 45 01 00 	lea    0x145c3(%rip),%rax        # 204ac <g_1139>
    bee9:	48 89 85 38 f8 ff ff 	mov    %rax,-0x7c8(%rbp)
    bef0:	48 8d 85 40 f2 ff ff 	lea    -0xdc0(%rbp),%rax
    bef7:	48 83 c0 08          	add    $0x8,%rax
    befb:	48 89 85 40 f8 ff ff 	mov    %rax,-0x7c0(%rbp)
    bf02:	48 8d 05 a3 45 01 00 	lea    0x145a3(%rip),%rax        # 204ac <g_1139>
    bf09:	48 89 85 48 f8 ff ff 	mov    %rax,-0x7b8(%rbp)
    bf10:	48 8d 05 95 45 01 00 	lea    0x14595(%rip),%rax        # 204ac <g_1139>
    bf17:	48 89 85 50 f8 ff ff 	mov    %rax,-0x7b0(%rbp)
    bf1e:	48 c7 85 58 f8 ff ff 	movq   $0x0,-0x7a8(%rbp)
    bf25:	00 00 00 00 
    bf29:	48 8d 85 40 f2 ff ff 	lea    -0xdc0(%rbp),%rax
    bf30:	48 83 c0 08          	add    $0x8,%rax
    bf34:	48 89 85 60 f8 ff ff 	mov    %rax,-0x7a0(%rbp)
    bf3b:	48 8d 85 d0 f2 ff ff 	lea    -0xd30(%rbp),%rax
    bf42:	48 83 c0 78          	add    $0x78,%rax
    bf46:	48 89 85 68 f8 ff ff 	mov    %rax,-0x798(%rbp)
    bf4d:	48 8d 05 58 45 01 00 	lea    0x14558(%rip),%rax        # 204ac <g_1139>
    bf54:	48 89 85 70 f8 ff ff 	mov    %rax,-0x790(%rbp)
    bf5b:	48 8d 85 d0 f2 ff ff 	lea    -0xd30(%rbp),%rax
    bf62:	48 83 c0 78          	add    $0x78,%rax
    bf66:	48 89 85 78 f8 ff ff 	mov    %rax,-0x788(%rbp)
    bf6d:	48 8d 05 38 45 01 00 	lea    0x14538(%rip),%rax        # 204ac <g_1139>
    bf74:	48 89 85 80 f8 ff ff 	mov    %rax,-0x780(%rbp)
    bf7b:	48 8d 05 2a 45 01 00 	lea    0x1452a(%rip),%rax        # 204ac <g_1139>
    bf82:	48 89 85 88 f8 ff ff 	mov    %rax,-0x778(%rbp)
    bf89:	48 8d 05 1c 45 01 00 	lea    0x1451c(%rip),%rax        # 204ac <g_1139>
    bf90:	48 89 85 90 f8 ff ff 	mov    %rax,-0x770(%rbp)
    bf97:	48 8d 05 0e 45 01 00 	lea    0x1450e(%rip),%rax        # 204ac <g_1139>
    bf9e:	48 89 85 98 f8 ff ff 	mov    %rax,-0x768(%rbp)
    bfa5:	48 8d 85 40 f2 ff ff 	lea    -0xdc0(%rbp),%rax
    bfac:	48 83 c0 08          	add    $0x8,%rax
    bfb0:	48 89 85 a0 f8 ff ff 	mov    %rax,-0x760(%rbp)
    bfb7:	48 8d 05 ee 44 01 00 	lea    0x144ee(%rip),%rax        # 204ac <g_1139>
    bfbe:	48 89 85 a8 f8 ff ff 	mov    %rax,-0x758(%rbp)
    bfc5:	48 8d 05 6c 43 01 00 	lea    0x1436c(%rip),%rax        # 20338 <g_159>
    bfcc:	48 89 85 b0 f8 ff ff 	mov    %rax,-0x750(%rbp)
    bfd3:	48 c7 85 b8 f8 ff ff 	movq   $0x0,-0x748(%rbp)
    bfda:	00 00 00 00 
    bfde:	48 8d 85 d0 f2 ff ff 	lea    -0xd30(%rbp),%rax
    bfe5:	48 83 c0 78          	add    $0x78,%rax
    bfe9:	48 89 85 c0 f8 ff ff 	mov    %rax,-0x740(%rbp)
    bff0:	48 c7 85 c8 f8 ff ff 	movq   $0x0,-0x738(%rbp)
    bff7:	00 00 00 00 
    bffb:	48 8d 85 d0 f2 ff ff 	lea    -0xd30(%rbp),%rax
    c002:	48 83 c0 78          	add    $0x78,%rax
    c006:	48 89 85 d0 f8 ff ff 	mov    %rax,-0x730(%rbp)
    c00d:	48 8d 85 40 f2 ff ff 	lea    -0xdc0(%rbp),%rax
    c014:	48 83 c0 08          	add    $0x8,%rax
    c018:	48 89 85 d8 f8 ff ff 	mov    %rax,-0x728(%rbp)
    c01f:	48 8d 85 d0 f2 ff ff 	lea    -0xd30(%rbp),%rax
    c026:	48 83 c0 78          	add    $0x78,%rax
    c02a:	48 89 85 e0 f8 ff ff 	mov    %rax,-0x720(%rbp)
    c031:	48 8d 85 d0 f2 ff ff 	lea    -0xd30(%rbp),%rax
    c038:	48 83 c0 78          	add    $0x78,%rax
    c03c:	48 89 85 e8 f8 ff ff 	mov    %rax,-0x718(%rbp)
    c043:	48 8d 85 d0 f2 ff ff 	lea    -0xd30(%rbp),%rax
    c04a:	48 83 c0 78          	add    $0x78,%rax
    c04e:	48 89 85 f0 f8 ff ff 	mov    %rax,-0x710(%rbp)
    c055:	48 8d 85 40 f2 ff ff 	lea    -0xdc0(%rbp),%rax
    c05c:	48 83 c0 08          	add    $0x8,%rax
    c060:	48 89 85 f8 f8 ff ff 	mov    %rax,-0x708(%rbp)
    c067:	48 8d 85 40 f2 ff ff 	lea    -0xdc0(%rbp),%rax
    c06e:	48 83 c0 08          	add    $0x8,%rax
    c072:	48 89 85 00 f9 ff ff 	mov    %rax,-0x700(%rbp)
    c079:	48 c7 85 08 f9 ff ff 	movq   $0x0,-0x6f8(%rbp)
    c080:	00 00 00 00 
    c084:	48 8d 85 40 f2 ff ff 	lea    -0xdc0(%rbp),%rax
    c08b:	48 83 c0 08          	add    $0x8,%rax
    c08f:	48 89 85 10 f9 ff ff 	mov    %rax,-0x6f0(%rbp)
    c096:	48 8d 05 9b 42 01 00 	lea    0x1429b(%rip),%rax        # 20338 <g_159>
    c09d:	48 89 85 18 f9 ff ff 	mov    %rax,-0x6e8(%rbp)
    c0a4:	48 8d 05 01 44 01 00 	lea    0x14401(%rip),%rax        # 204ac <g_1139>
    c0ab:	48 89 85 20 f9 ff ff 	mov    %rax,-0x6e0(%rbp)
    c0b2:	48 8d 05 f3 43 01 00 	lea    0x143f3(%rip),%rax        # 204ac <g_1139>
    c0b9:	48 89 85 28 f9 ff ff 	mov    %rax,-0x6d8(%rbp)
    c0c0:	48 8d 85 d0 f2 ff ff 	lea    -0xd30(%rbp),%rax
    c0c7:	48 83 c0 78          	add    $0x78,%rax
    c0cb:	48 89 85 30 f9 ff ff 	mov    %rax,-0x6d0(%rbp)
    c0d2:	48 8d 85 d0 f2 ff ff 	lea    -0xd30(%rbp),%rax
    c0d9:	48 83 c0 78          	add    $0x78,%rax
    c0dd:	48 89 85 38 f9 ff ff 	mov    %rax,-0x6c8(%rbp)
    c0e4:	48 8d 05 4d 42 01 00 	lea    0x1424d(%rip),%rax        # 20338 <g_159>
    c0eb:	48 89 85 40 f9 ff ff 	mov    %rax,-0x6c0(%rbp)
    c0f2:	48 8d 05 b3 43 01 00 	lea    0x143b3(%rip),%rax        # 204ac <g_1139>
    c0f9:	48 89 85 48 f9 ff ff 	mov    %rax,-0x6b8(%rbp)
    c100:	48 8d 85 40 f2 ff ff 	lea    -0xdc0(%rbp),%rax
    c107:	48 83 c0 08          	add    $0x8,%rax
    c10b:	48 89 85 50 f9 ff ff 	mov    %rax,-0x6b0(%rbp)
    c112:	48 c7 85 58 f9 ff ff 	movq   $0x0,-0x6a8(%rbp)
    c119:	00 00 00 00 
    c11d:	48 8d 05 88 43 01 00 	lea    0x14388(%rip),%rax        # 204ac <g_1139>
    c124:	48 89 85 60 f9 ff ff 	mov    %rax,-0x6a0(%rbp)
    c12b:	48 8d 85 d0 f2 ff ff 	lea    -0xd30(%rbp),%rax
    c132:	48 83 c0 78          	add    $0x78,%rax
    c136:	48 89 85 68 f9 ff ff 	mov    %rax,-0x698(%rbp)
    c13d:	48 8d 85 d0 f2 ff ff 	lea    -0xd30(%rbp),%rax
    c144:	48 83 c0 78          	add    $0x78,%rax
    c148:	48 89 85 70 f9 ff ff 	mov    %rax,-0x690(%rbp)
    c14f:	48 8d 05 e2 41 01 00 	lea    0x141e2(%rip),%rax        # 20338 <g_159>
    c156:	48 89 85 78 f9 ff ff 	mov    %rax,-0x688(%rbp)
    c15d:	48 c7 85 80 f9 ff ff 	movq   $0x0,-0x680(%rbp)
    c164:	00 00 00 00 
    c168:	48 8d 85 d0 f2 ff ff 	lea    -0xd30(%rbp),%rax
    c16f:	48 83 c0 78          	add    $0x78,%rax
    c173:	48 89 85 88 f9 ff ff 	mov    %rax,-0x678(%rbp)
    c17a:	48 8d 85 40 f2 ff ff 	lea    -0xdc0(%rbp),%rax
    c181:	48 83 c0 08          	add    $0x8,%rax
    c185:	48 89 85 90 f9 ff ff 	mov    %rax,-0x670(%rbp)
    c18c:	48 8d 05 a5 41 01 00 	lea    0x141a5(%rip),%rax        # 20338 <g_159>
    c193:	48 89 85 98 f9 ff ff 	mov    %rax,-0x668(%rbp)
    c19a:	48 8d 85 40 f2 ff ff 	lea    -0xdc0(%rbp),%rax
    c1a1:	48 83 c0 08          	add    $0x8,%rax
    c1a5:	48 89 85 a0 f9 ff ff 	mov    %rax,-0x660(%rbp)
    c1ac:	48 8d 85 40 f2 ff ff 	lea    -0xdc0(%rbp),%rax
    c1b3:	48 83 c0 08          	add    $0x8,%rax
    c1b7:	48 89 85 a8 f9 ff ff 	mov    %rax,-0x658(%rbp)
    c1be:	48 8d 05 73 41 01 00 	lea    0x14173(%rip),%rax        # 20338 <g_159>
    c1c5:	48 89 85 b0 f9 ff ff 	mov    %rax,-0x650(%rbp)
    c1cc:	48 8d 85 40 f2 ff ff 	lea    -0xdc0(%rbp),%rax
    c1d3:	48 83 c0 08          	add    $0x8,%rax
    c1d7:	48 89 85 b8 f9 ff ff 	mov    %rax,-0x648(%rbp)
    c1de:	48 8d 85 d0 f2 ff ff 	lea    -0xd30(%rbp),%rax
    c1e5:	48 83 c0 78          	add    $0x78,%rax
    c1e9:	48 89 85 c0 f9 ff ff 	mov    %rax,-0x640(%rbp)
    c1f0:	48 c7 85 c8 f9 ff ff 	movq   $0x0,-0x638(%rbp)
    c1f7:	00 00 00 00 
    c1fb:	48 8d 05 aa 42 01 00 	lea    0x142aa(%rip),%rax        # 204ac <g_1139>
    c202:	48 89 85 d0 f9 ff ff 	mov    %rax,-0x630(%rbp)
    c209:	48 8d 05 9c 42 01 00 	lea    0x1429c(%rip),%rax        # 204ac <g_1139>
    c210:	48 89 85 d8 f9 ff ff 	mov    %rax,-0x628(%rbp)
    c217:	48 c7 85 e0 f9 ff ff 	movq   $0x0,-0x620(%rbp)
    c21e:	00 00 00 00 
    c222:	48 8d 05 0f 41 01 00 	lea    0x1410f(%rip),%rax        # 20338 <g_159>
    c229:	48 89 85 e8 f9 ff ff 	mov    %rax,-0x618(%rbp)
    c230:	48 c7 85 f0 f9 ff ff 	movq   $0x0,-0x610(%rbp)
    c237:	00 00 00 00 
    c23b:	48 8d 05 f6 40 01 00 	lea    0x140f6(%rip),%rax        # 20338 <g_159>
    c242:	48 89 85 f8 f9 ff ff 	mov    %rax,-0x608(%rbp)
    c249:	48 c7 85 00 fa ff ff 	movq   $0x0,-0x600(%rbp)
    c250:	00 00 00 00 
    c254:	48 8d 85 d0 f2 ff ff 	lea    -0xd30(%rbp),%rax
    c25b:	48 83 c0 78          	add    $0x78,%rax
    c25f:	48 89 85 08 fa ff ff 	mov    %rax,-0x5f8(%rbp)
    c266:	48 c7 85 10 fa ff ff 	movq   $0x0,-0x5f0(%rbp)
    c26d:	00 00 00 00 
    c271:	48 8d 85 d0 f2 ff ff 	lea    -0xd30(%rbp),%rax
    c278:	48 83 c0 78          	add    $0x78,%rax
    c27c:	48 89 85 18 fa ff ff 	mov    %rax,-0x5e8(%rbp)
    c283:	48 c7 85 20 fa ff ff 	movq   $0x0,-0x5e0(%rbp)
    c28a:	00 00 00 00 
    c28e:	48 8d 05 17 42 01 00 	lea    0x14217(%rip),%rax        # 204ac <g_1139>
    c295:	48 89 85 28 fa ff ff 	mov    %rax,-0x5d8(%rbp)
    c29c:	48 c7 85 30 fa ff ff 	movq   $0x0,-0x5d0(%rbp)
    c2a3:	00 00 00 00 
    c2a7:	48 8d 05 8a 40 01 00 	lea    0x1408a(%rip),%rax        # 20338 <g_159>
    c2ae:	48 89 85 38 fa ff ff 	mov    %rax,-0x5c8(%rbp)
    c2b5:	48 8d 85 d0 f2 ff ff 	lea    -0xd30(%rbp),%rax
    c2bc:	48 83 c0 78          	add    $0x78,%rax
    c2c0:	48 89 85 40 fa ff ff 	mov    %rax,-0x5c0(%rbp)
    c2c7:	48 8d 05 de 41 01 00 	lea    0x141de(%rip),%rax        # 204ac <g_1139>
    c2ce:	48 89 85 48 fa ff ff 	mov    %rax,-0x5b8(%rbp)
    c2d5:	48 8d 85 40 f2 ff ff 	lea    -0xdc0(%rbp),%rax
    c2dc:	48 83 c0 08          	add    $0x8,%rax
    c2e0:	48 89 85 50 fa ff ff 	mov    %rax,-0x5b0(%rbp)
    c2e7:	48 8d 85 d0 f2 ff ff 	lea    -0xd30(%rbp),%rax
    c2ee:	48 83 c0 78          	add    $0x78,%rax
    c2f2:	48 89 85 58 fa ff ff 	mov    %rax,-0x5a8(%rbp)
    c2f9:	48 8d 85 40 f2 ff ff 	lea    -0xdc0(%rbp),%rax
    c300:	48 83 c0 08          	add    $0x8,%rax
    c304:	48 89 85 60 fa ff ff 	mov    %rax,-0x5a0(%rbp)
    c30b:	48 8d 05 26 40 01 00 	lea    0x14026(%rip),%rax        # 20338 <g_159>
    c312:	48 89 85 68 fa ff ff 	mov    %rax,-0x598(%rbp)
    c319:	48 8d 85 40 f2 ff ff 	lea    -0xdc0(%rbp),%rax
    c320:	48 83 c0 08          	add    $0x8,%rax
    c324:	48 89 85 70 fa ff ff 	mov    %rax,-0x590(%rbp)
    c32b:	48 8d 85 d0 f2 ff ff 	lea    -0xd30(%rbp),%rax
    c332:	48 83 c0 78          	add    $0x78,%rax
    c336:	48 89 85 78 fa ff ff 	mov    %rax,-0x588(%rbp)
    c33d:	48 8d 85 40 f2 ff ff 	lea    -0xdc0(%rbp),%rax
    c344:	48 83 c0 08          	add    $0x8,%rax
    c348:	48 89 85 80 fa ff ff 	mov    %rax,-0x580(%rbp)
    c34f:	48 8d 05 e2 3f 01 00 	lea    0x13fe2(%rip),%rax        # 20338 <g_159>
    c356:	48 89 85 88 fa ff ff 	mov    %rax,-0x578(%rbp)
    c35d:	48 8d 05 48 41 01 00 	lea    0x14148(%rip),%rax        # 204ac <g_1139>
    c364:	48 89 85 90 fa ff ff 	mov    %rax,-0x570(%rbp)
    c36b:	48 c7 85 98 fa ff ff 	movq   $0x0,-0x568(%rbp)
    c372:	00 00 00 00 
    c376:	48 8d 85 40 f2 ff ff 	lea    -0xdc0(%rbp),%rax
    c37d:	48 83 c0 08          	add    $0x8,%rax
    c381:	48 89 85 a0 fa ff ff 	mov    %rax,-0x560(%rbp)
    c388:	48 8d 85 d0 f2 ff ff 	lea    -0xd30(%rbp),%rax
    c38f:	48 83 c0 78          	add    $0x78,%rax
    c393:	48 89 85 a8 fa ff ff 	mov    %rax,-0x558(%rbp)
    c39a:	48 8d 05 97 3f 01 00 	lea    0x13f97(%rip),%rax        # 20338 <g_159>
    c3a1:	48 89 85 b0 fa ff ff 	mov    %rax,-0x550(%rbp)
    c3a8:	48 8d 85 d0 f2 ff ff 	lea    -0xd30(%rbp),%rax
    c3af:	48 83 c0 78          	add    $0x78,%rax
    c3b3:	48 89 85 b8 fa ff ff 	mov    %rax,-0x548(%rbp)
    c3ba:	48 8d 05 77 3f 01 00 	lea    0x13f77(%rip),%rax        # 20338 <g_159>
    c3c1:	48 89 85 c0 fa ff ff 	mov    %rax,-0x540(%rbp)
    c3c8:	48 8d 85 40 f2 ff ff 	lea    -0xdc0(%rbp),%rax
    c3cf:	48 83 c0 08          	add    $0x8,%rax
    c3d3:	48 89 85 c8 fa ff ff 	mov    %rax,-0x538(%rbp)
    c3da:	48 8d 05 cb 40 01 00 	lea    0x140cb(%rip),%rax        # 204ac <g_1139>
    c3e1:	48 89 85 d0 fa ff ff 	mov    %rax,-0x530(%rbp)
    c3e8:	48 c7 85 d8 fa ff ff 	movq   $0x0,-0x528(%rbp)
    c3ef:	00 00 00 00 
    c3f3:	48 c7 85 e0 fa ff ff 	movq   $0x0,-0x520(%rbp)
    c3fa:	00 00 00 00 
    c3fe:	48 8d 85 d0 f2 ff ff 	lea    -0xd30(%rbp),%rax
    c405:	48 83 c0 78          	add    $0x78,%rax
    c409:	48 89 85 e8 fa ff ff 	mov    %rax,-0x518(%rbp)
    c410:	48 c7 85 f0 fa ff ff 	movq   $0x0,-0x510(%rbp)
    c417:	00 00 00 00 
    c41b:	48 8d 85 d0 f2 ff ff 	lea    -0xd30(%rbp),%rax
    c422:	48 83 c0 78          	add    $0x78,%rax
    c426:	48 89 85 f8 fa ff ff 	mov    %rax,-0x508(%rbp)
    c42d:	48 8d 85 40 f2 ff ff 	lea    -0xdc0(%rbp),%rax
    c434:	48 83 c0 08          	add    $0x8,%rax
    c438:	48 89 85 00 fb ff ff 	mov    %rax,-0x500(%rbp)
    c43f:	48 c7 85 08 fb ff ff 	movq   $0x0,-0x4f8(%rbp)
    c446:	00 00 00 00 
    c44a:	48 8d 85 d0 f2 ff ff 	lea    -0xd30(%rbp),%rax
    c451:	48 83 c0 78          	add    $0x78,%rax
    c455:	48 89 85 10 fb ff ff 	mov    %rax,-0x4f0(%rbp)
    c45c:	48 8d 85 40 f2 ff ff 	lea    -0xdc0(%rbp),%rax
    c463:	48 83 c0 08          	add    $0x8,%rax
    c467:	48 89 85 18 fb ff ff 	mov    %rax,-0x4e8(%rbp)
    c46e:	48 c7 85 20 fb ff ff 	movq   $0x0,-0x4e0(%rbp)
    c475:	00 00 00 00 
    c479:	48 8d 85 d0 f2 ff ff 	lea    -0xd30(%rbp),%rax
    c480:	48 83 c0 78          	add    $0x78,%rax
    c484:	48 89 85 28 fb ff ff 	mov    %rax,-0x4d8(%rbp)
    c48b:	48 c7 85 30 fb ff ff 	movq   $0x0,-0x4d0(%rbp)
    c492:	00 00 00 00 
    c496:	48 c7 85 38 fb ff ff 	movq   $0x0,-0x4c8(%rbp)
    c49d:	00 00 00 00 
    c4a1:	48 8d 85 40 f2 ff ff 	lea    -0xdc0(%rbp),%rax
    c4a8:	48 83 c0 08          	add    $0x8,%rax
    c4ac:	48 89 85 40 fb ff ff 	mov    %rax,-0x4c0(%rbp)
    c4b3:	48 8d 85 40 f2 ff ff 	lea    -0xdc0(%rbp),%rax
    c4ba:	48 83 c0 08          	add    $0x8,%rax
    c4be:	48 89 85 48 fb ff ff 	mov    %rax,-0x4b8(%rbp)
    c4c5:	48 8d 05 e0 3f 01 00 	lea    0x13fe0(%rip),%rax        # 204ac <g_1139>
    c4cc:	48 89 85 50 fb ff ff 	mov    %rax,-0x4b0(%rbp)
    c4d3:	48 8d 85 40 f2 ff ff 	lea    -0xdc0(%rbp),%rax
    c4da:	48 83 c0 08          	add    $0x8,%rax
    c4de:	48 89 85 58 fb ff ff 	mov    %rax,-0x4a8(%rbp)
    c4e5:	48 8d 05 c0 3f 01 00 	lea    0x13fc0(%rip),%rax        # 204ac <g_1139>
    c4ec:	48 89 85 60 fb ff ff 	mov    %rax,-0x4a0(%rbp)
    c4f3:	48 8d 85 40 f2 ff ff 	lea    -0xdc0(%rbp),%rax
    c4fa:	48 83 c0 08          	add    $0x8,%rax
    c4fe:	48 89 85 68 fb ff ff 	mov    %rax,-0x498(%rbp)
    c505:	48 8d 85 40 f2 ff ff 	lea    -0xdc0(%rbp),%rax
    c50c:	48 83 c0 08          	add    $0x8,%rax
    c510:	48 89 85 70 fb ff ff 	mov    %rax,-0x490(%rbp)
    c517:	48 8d 05 8e 3f 01 00 	lea    0x13f8e(%rip),%rax        # 204ac <g_1139>
    c51e:	48 89 85 78 fb ff ff 	mov    %rax,-0x488(%rbp)
    c525:	48 c7 85 80 fb ff ff 	movq   $0x0,-0x480(%rbp)
    c52c:	00 00 00 00 
    c530:	48 8d 05 01 3e 01 00 	lea    0x13e01(%rip),%rax        # 20338 <g_159>
    c537:	48 89 85 88 fb ff ff 	mov    %rax,-0x478(%rbp)
    c53e:	48 8d 05 67 3f 01 00 	lea    0x13f67(%rip),%rax        # 204ac <g_1139>
    c545:	48 89 85 90 fb ff ff 	mov    %rax,-0x470(%rbp)
    c54c:	48 c7 85 98 fb ff ff 	movq   $0x0,-0x468(%rbp)
    c553:	00 00 00 00 
    c557:	48 8d 05 4e 3f 01 00 	lea    0x13f4e(%rip),%rax        # 204ac <g_1139>
    c55e:	48 89 85 a0 fb ff ff 	mov    %rax,-0x460(%rbp)
    c565:	48 8d 85 d0 f2 ff ff 	lea    -0xd30(%rbp),%rax
    c56c:	48 83 c0 78          	add    $0x78,%rax
    c570:	48 89 85 a8 fb ff ff 	mov    %rax,-0x458(%rbp)
    c577:	48 c7 85 b0 fb ff ff 	movq   $0x0,-0x450(%rbp)
    c57e:	00 00 00 00 
    c582:	48 c7 85 b8 fb ff ff 	movq   $0x0,-0x448(%rbp)
    c589:	00 00 00 00 
    c58d:	48 8d 05 18 3f 01 00 	lea    0x13f18(%rip),%rax        # 204ac <g_1139>
    c594:	48 89 85 c0 fb ff ff 	mov    %rax,-0x440(%rbp)
    c59b:	48 8d 85 d0 f2 ff ff 	lea    -0xd30(%rbp),%rax
    c5a2:	48 83 c0 78          	add    $0x78,%rax
    c5a6:	48 89 85 c8 fb ff ff 	mov    %rax,-0x438(%rbp)
    c5ad:	48 8d 05 f8 3e 01 00 	lea    0x13ef8(%rip),%rax        # 204ac <g_1139>
    c5b4:	48 89 85 d0 fb ff ff 	mov    %rax,-0x430(%rbp)
    c5bb:	48 8d 85 d0 f2 ff ff 	lea    -0xd30(%rbp),%rax
    c5c2:	48 83 c0 78          	add    $0x78,%rax
    c5c6:	48 89 85 d8 fb ff ff 	mov    %rax,-0x428(%rbp)
    c5cd:	48 c7 85 e0 fb ff ff 	movq   $0x0,-0x420(%rbp)
    c5d4:	00 00 00 00 
    c5d8:	48 8d 05 cd 3e 01 00 	lea    0x13ecd(%rip),%rax        # 204ac <g_1139>
    c5df:	48 89 85 e8 fb ff ff 	mov    %rax,-0x418(%rbp)
    c5e6:	48 8d 05 4b 3d 01 00 	lea    0x13d4b(%rip),%rax        # 20338 <g_159>
    c5ed:	48 89 85 f0 fb ff ff 	mov    %rax,-0x410(%rbp)
    c5f4:	48 8d 05 3d 3d 01 00 	lea    0x13d3d(%rip),%rax        # 20338 <g_159>
    c5fb:	48 89 85 f8 fb ff ff 	mov    %rax,-0x408(%rbp)
    c602:	48 8d 85 d0 f2 ff ff 	lea    -0xd30(%rbp),%rax
    c609:	48 83 c0 78          	add    $0x78,%rax
    c60d:	48 89 85 00 fc ff ff 	mov    %rax,-0x400(%rbp)
    c614:	48 8d 05 91 3e 01 00 	lea    0x13e91(%rip),%rax        # 204ac <g_1139>
    c61b:	48 89 85 08 fc ff ff 	mov    %rax,-0x3f8(%rbp)
    c622:	48 8d 05 83 3e 01 00 	lea    0x13e83(%rip),%rax        # 204ac <g_1139>
    c629:	48 89 85 10 fc ff ff 	mov    %rax,-0x3f0(%rbp)
    c630:	48 8d 05 01 3d 01 00 	lea    0x13d01(%rip),%rax        # 20338 <g_159>
    c637:	48 89 85 18 fc ff ff 	mov    %rax,-0x3e8(%rbp)
    c63e:	48 8d 85 40 f2 ff ff 	lea    -0xdc0(%rbp),%rax
    c645:	48 83 c0 08          	add    $0x8,%rax
    c649:	48 89 85 20 fc ff ff 	mov    %rax,-0x3e0(%rbp)
    c650:	48 8d 05 e1 3c 01 00 	lea    0x13ce1(%rip),%rax        # 20338 <g_159>
    c657:	48 89 85 28 fc ff ff 	mov    %rax,-0x3d8(%rbp)
    c65e:	48 8d 85 d0 f2 ff ff 	lea    -0xd30(%rbp),%rax
    c665:	48 83 c0 78          	add    $0x78,%rax
    c669:	48 89 85 30 fc ff ff 	mov    %rax,-0x3d0(%rbp)
    c670:	48 8d 85 40 f2 ff ff 	lea    -0xdc0(%rbp),%rax
    c677:	48 83 c0 08          	add    $0x8,%rax
    c67b:	48 89 85 38 fc ff ff 	mov    %rax,-0x3c8(%rbp)
    c682:	48 8d 05 23 3e 01 00 	lea    0x13e23(%rip),%rax        # 204ac <g_1139>
    c689:	48 89 85 40 fc ff ff 	mov    %rax,-0x3c0(%rbp)
    c690:	48 8d 85 40 f2 ff ff 	lea    -0xdc0(%rbp),%rax
    c697:	48 83 c0 08          	add    $0x8,%rax
    c69b:	48 89 85 48 fc ff ff 	mov    %rax,-0x3b8(%rbp)
    c6a2:	48 8d 85 40 f2 ff ff 	lea    -0xdc0(%rbp),%rax
    c6a9:	48 83 c0 08          	add    $0x8,%rax
    c6ad:	48 89 85 50 fc ff ff 	mov    %rax,-0x3b0(%rbp)
    c6b4:	48 8d 85 d0 f2 ff ff 	lea    -0xd30(%rbp),%rax
    c6bb:	48 83 c0 78          	add    $0x78,%rax
    c6bf:	48 89 85 58 fc ff ff 	mov    %rax,-0x3a8(%rbp)
    c6c6:	48 c7 85 60 fc ff ff 	movq   $0x0,-0x3a0(%rbp)
    c6cd:	00 00 00 00 
    c6d1:	48 8d 85 d0 f2 ff ff 	lea    -0xd30(%rbp),%rax
    c6d8:	48 83 c0 78          	add    $0x78,%rax
    c6dc:	48 89 85 68 fc ff ff 	mov    %rax,-0x398(%rbp)
    c6e3:	48 c7 85 70 fc ff ff 	movq   $0x0,-0x390(%rbp)
    c6ea:	00 00 00 00 
    c6ee:	48 8d 05 b7 3d 01 00 	lea    0x13db7(%rip),%rax        # 204ac <g_1139>
    c6f5:	48 89 85 78 fc ff ff 	mov    %rax,-0x388(%rbp)
    c6fc:	48 8d 85 40 f2 ff ff 	lea    -0xdc0(%rbp),%rax
    c703:	48 83 c0 08          	add    $0x8,%rax
    c707:	48 89 85 80 fc ff ff 	mov    %rax,-0x380(%rbp)
    c70e:	48 8d 85 d0 f2 ff ff 	lea    -0xd30(%rbp),%rax
    c715:	48 83 c0 78          	add    $0x78,%rax
    c719:	48 89 85 88 fc ff ff 	mov    %rax,-0x378(%rbp)
    c720:	48 8d 05 85 3d 01 00 	lea    0x13d85(%rip),%rax        # 204ac <g_1139>
    c727:	48 89 85 90 fc ff ff 	mov    %rax,-0x370(%rbp)
    c72e:	48 8d 05 77 3d 01 00 	lea    0x13d77(%rip),%rax        # 204ac <g_1139>
    c735:	48 89 85 98 fc ff ff 	mov    %rax,-0x368(%rbp)
    c73c:	48 8d 05 f5 3b 01 00 	lea    0x13bf5(%rip),%rax        # 20338 <g_159>
    c743:	48 89 85 a0 fc ff ff 	mov    %rax,-0x360(%rbp)
    c74a:	48 8d 05 e7 3b 01 00 	lea    0x13be7(%rip),%rax        # 20338 <g_159>
    c751:	48 89 85 a8 fc ff ff 	mov    %rax,-0x358(%rbp)
    c758:	48 8d 05 d9 3b 01 00 	lea    0x13bd9(%rip),%rax        # 20338 <g_159>
    c75f:	48 89 85 b0 fc ff ff 	mov    %rax,-0x350(%rbp)
    c766:	48 8d 85 40 f2 ff ff 	lea    -0xdc0(%rbp),%rax
    c76d:	48 83 c0 08          	add    $0x8,%rax
    c771:	48 89 85 b8 fc ff ff 	mov    %rax,-0x348(%rbp)
    c778:	48 8d 85 40 f2 ff ff 	lea    -0xdc0(%rbp),%rax
    c77f:	48 83 c0 08          	add    $0x8,%rax
    c783:	48 89 85 c0 fc ff ff 	mov    %rax,-0x340(%rbp)
    c78a:	48 8d 05 a7 3b 01 00 	lea    0x13ba7(%rip),%rax        # 20338 <g_159>
    c791:	48 89 85 c8 fc ff ff 	mov    %rax,-0x338(%rbp)
    c798:	48 8d 85 d0 f2 ff ff 	lea    -0xd30(%rbp),%rax
    c79f:	48 83 c0 78          	add    $0x78,%rax
    c7a3:	48 89 85 d0 fc ff ff 	mov    %rax,-0x330(%rbp)
    c7aa:	48 8d 85 40 f2 ff ff 	lea    -0xdc0(%rbp),%rax
    c7b1:	48 83 c0 08          	add    $0x8,%rax
    c7b5:	48 89 85 d8 fc ff ff 	mov    %rax,-0x328(%rbp)
    c7bc:	48 8d 85 d0 f2 ff ff 	lea    -0xd30(%rbp),%rax
    c7c3:	48 83 c0 78          	add    $0x78,%rax
    c7c7:	48 89 85 e0 fc ff ff 	mov    %rax,-0x320(%rbp)
    c7ce:	48 8d 05 63 3b 01 00 	lea    0x13b63(%rip),%rax        # 20338 <g_159>
    c7d5:	48 89 85 e8 fc ff ff 	mov    %rax,-0x318(%rbp)
    c7dc:	48 8d 05 c9 3c 01 00 	lea    0x13cc9(%rip),%rax        # 204ac <g_1139>
    c7e3:	48 89 85 f0 fc ff ff 	mov    %rax,-0x310(%rbp)
    c7ea:	48 8d 05 bb 3c 01 00 	lea    0x13cbb(%rip),%rax        # 204ac <g_1139>
    c7f1:	48 89 85 f8 fc ff ff 	mov    %rax,-0x308(%rbp)
    c7f8:	48 8d 05 ad 3c 01 00 	lea    0x13cad(%rip),%rax        # 204ac <g_1139>
    c7ff:	48 89 85 00 fd ff ff 	mov    %rax,-0x300(%rbp)
    c806:	48 8d 05 2b 3b 01 00 	lea    0x13b2b(%rip),%rax        # 20338 <g_159>
    c80d:	48 89 85 08 fd ff ff 	mov    %rax,-0x2f8(%rbp)
    c814:	48 8d 85 d0 f2 ff ff 	lea    -0xd30(%rbp),%rax
    c81b:	48 83 c0 78          	add    $0x78,%rax
    c81f:	48 89 85 10 fd ff ff 	mov    %rax,-0x2f0(%rbp)
    c826:	48 c7 85 18 fd ff ff 	movq   $0x0,-0x2e8(%rbp)
    c82d:	00 00 00 00 
    c831:	48 8d 05 00 3b 01 00 	lea    0x13b00(%rip),%rax        # 20338 <g_159>
    c838:	48 89 85 20 fd ff ff 	mov    %rax,-0x2e0(%rbp)
    c83f:	48 8d 85 40 f2 ff ff 	lea    -0xdc0(%rbp),%rax
    c846:	48 83 c0 08          	add    $0x8,%rax
    c84a:	48 89 85 28 fd ff ff 	mov    %rax,-0x2d8(%rbp)
    c851:	48 8d 05 e0 3a 01 00 	lea    0x13ae0(%rip),%rax        # 20338 <g_159>
    c858:	48 89 85 30 fd ff ff 	mov    %rax,-0x2d0(%rbp)
    c85f:	48 8d 05 46 3c 01 00 	lea    0x13c46(%rip),%rax        # 204ac <g_1139>
    c866:	48 89 85 38 fd ff ff 	mov    %rax,-0x2c8(%rbp)
    c86d:	48 8d 85 40 f2 ff ff 	lea    -0xdc0(%rbp),%rax
    c874:	48 83 c0 08          	add    $0x8,%rax
    c878:	48 89 85 40 fd ff ff 	mov    %rax,-0x2c0(%rbp)
    c87f:	48 8d 85 40 f2 ff ff 	lea    -0xdc0(%rbp),%rax
    c886:	48 83 c0 08          	add    $0x8,%rax
    c88a:	48 89 85 48 fd ff ff 	mov    %rax,-0x2b8(%rbp)
    c891:	48 c7 85 50 fd ff ff 	movq   $0x0,-0x2b0(%rbp)
    c898:	00 00 00 00 
    c89c:	48 c7 85 58 fd ff ff 	movq   $0x0,-0x2a8(%rbp)
    c8a3:	00 00 00 00 
    c8a7:	48 c7 85 60 fd ff ff 	movq   $0x0,-0x2a0(%rbp)
    c8ae:	00 00 00 00 
    c8b2:	48 8d 05 7f 3a 01 00 	lea    0x13a7f(%rip),%rax        # 20338 <g_159>
    c8b9:	48 89 85 68 fd ff ff 	mov    %rax,-0x298(%rbp)
    c8c0:	48 8d 85 40 f2 ff ff 	lea    -0xdc0(%rbp),%rax
    c8c7:	48 83 c0 08          	add    $0x8,%rax
    c8cb:	48 89 85 70 fd ff ff 	mov    %rax,-0x290(%rbp)
    c8d2:	48 8d 85 d0 f2 ff ff 	lea    -0xd30(%rbp),%rax
    c8d9:	48 83 c0 78          	add    $0x78,%rax
    c8dd:	48 89 85 78 fd ff ff 	mov    %rax,-0x288(%rbp)
    c8e4:	48 8d 85 d0 f2 ff ff 	lea    -0xd30(%rbp),%rax
    c8eb:	48 83 c0 78          	add    $0x78,%rax
    c8ef:	48 89 85 80 fd ff ff 	mov    %rax,-0x280(%rbp)
    c8f6:	48 8d 05 3b 3a 01 00 	lea    0x13a3b(%rip),%rax        # 20338 <g_159>
    c8fd:	48 89 85 88 fd ff ff 	mov    %rax,-0x278(%rbp)
    c904:	48 8d 05 a1 3b 01 00 	lea    0x13ba1(%rip),%rax        # 204ac <g_1139>
    c90b:	48 89 85 90 fd ff ff 	mov    %rax,-0x270(%rbp)
    c912:	48 8d 05 93 3b 01 00 	lea    0x13b93(%rip),%rax        # 204ac <g_1139>
    c919:	48 89 85 98 fd ff ff 	mov    %rax,-0x268(%rbp)
    c920:	48 8d 05 11 3a 01 00 	lea    0x13a11(%rip),%rax        # 20338 <g_159>
    c927:	48 89 85 a0 fd ff ff 	mov    %rax,-0x260(%rbp)
    c92e:	48 8d 05 03 3a 01 00 	lea    0x13a03(%rip),%rax        # 20338 <g_159>
    c935:	48 89 85 a8 fd ff ff 	mov    %rax,-0x258(%rbp)
    c93c:	48 8d 85 d0 f2 ff ff 	lea    -0xd30(%rbp),%rax
    c943:	48 83 c0 78          	add    $0x78,%rax
    c947:	48 89 85 b0 fd ff ff 	mov    %rax,-0x250(%rbp)
    c94e:	48 8d 85 40 f2 ff ff 	lea    -0xdc0(%rbp),%rax
    c955:	48 83 c0 08          	add    $0x8,%rax
    c959:	48 89 85 b8 fd ff ff 	mov    %rax,-0x248(%rbp)
    c960:	48 8d 85 40 f2 ff ff 	lea    -0xdc0(%rbp),%rax
    c967:	48 83 c0 08          	add    $0x8,%rax
    c96b:	48 89 85 c0 fd ff ff 	mov    %rax,-0x240(%rbp)
    c972:	48 8d 85 40 f2 ff ff 	lea    -0xdc0(%rbp),%rax
    c979:	48 83 c0 08          	add    $0x8,%rax
    c97d:	48 89 85 c8 fd ff ff 	mov    %rax,-0x238(%rbp)
    c984:	48 8d 05 ad 39 01 00 	lea    0x139ad(%rip),%rax        # 20338 <g_159>
    c98b:	48 89 85 d0 fd ff ff 	mov    %rax,-0x230(%rbp)
    c992:	48 8d 05 9f 39 01 00 	lea    0x1399f(%rip),%rax        # 20338 <g_159>
    c999:	48 89 85 d8 fd ff ff 	mov    %rax,-0x228(%rbp)
    c9a0:	48 8d 85 d0 f2 ff ff 	lea    -0xd30(%rbp),%rax
    c9a7:	48 83 c0 78          	add    $0x78,%rax
    c9ab:	48 89 85 e0 fd ff ff 	mov    %rax,-0x220(%rbp)
    c9b2:	48 8d 05 f3 3a 01 00 	lea    0x13af3(%rip),%rax        # 204ac <g_1139>
    c9b9:	48 89 85 e8 fd ff ff 	mov    %rax,-0x218(%rbp)
    c9c0:	48 8d 05 71 39 01 00 	lea    0x13971(%rip),%rax        # 20338 <g_159>
    c9c7:	48 89 85 f0 fd ff ff 	mov    %rax,-0x210(%rbp)
    c9ce:	48 8d 05 d7 3a 01 00 	lea    0x13ad7(%rip),%rax        # 204ac <g_1139>
    c9d5:	48 89 85 f8 fd ff ff 	mov    %rax,-0x208(%rbp)
    c9dc:	48 8d 85 40 f2 ff ff 	lea    -0xdc0(%rbp),%rax
    c9e3:	48 83 c0 08          	add    $0x8,%rax
    c9e7:	48 89 85 00 fe ff ff 	mov    %rax,-0x200(%rbp)
    c9ee:	48 8d 05 43 39 01 00 	lea    0x13943(%rip),%rax        # 20338 <g_159>
    c9f5:	48 89 85 08 fe ff ff 	mov    %rax,-0x1f8(%rbp)
    c9fc:	48 8d 05 a9 3a 01 00 	lea    0x13aa9(%rip),%rax        # 204ac <g_1139>
    ca03:	48 89 85 10 fe ff ff 	mov    %rax,-0x1f0(%rbp)
    ca0a:	48 c7 85 18 fe ff ff 	movq   $0x0,-0x1e8(%rbp)
    ca11:	00 00 00 00 
    ca15:	48 8d 85 40 f2 ff ff 	lea    -0xdc0(%rbp),%rax
    ca1c:	48 83 c0 08          	add    $0x8,%rax
    ca20:	48 89 85 20 fe ff ff 	mov    %rax,-0x1e0(%rbp)
    ca27:	48 8d 85 d0 f2 ff ff 	lea    -0xd30(%rbp),%rax
    ca2e:	48 83 c0 78          	add    $0x78,%rax
    ca32:	48 89 85 28 fe ff ff 	mov    %rax,-0x1d8(%rbp)
    ca39:	48 8d 05 6c 3a 01 00 	lea    0x13a6c(%rip),%rax        # 204ac <g_1139>
    ca40:	48 89 85 30 fe ff ff 	mov    %rax,-0x1d0(%rbp)
    ca47:	48 8d 05 ea 38 01 00 	lea    0x138ea(%rip),%rax        # 20338 <g_159>
    ca4e:	48 89 85 38 fe ff ff 	mov    %rax,-0x1c8(%rbp)
    ca55:	48 8d 85 d0 f2 ff ff 	lea    -0xd30(%rbp),%rax
    ca5c:	48 83 c0 78          	add    $0x78,%rax
    ca60:	48 89 85 40 fe ff ff 	mov    %rax,-0x1c0(%rbp)
    ca67:	48 8d 05 3e 3a 01 00 	lea    0x13a3e(%rip),%rax        # 204ac <g_1139>
    ca6e:	48 89 85 48 fe ff ff 	mov    %rax,-0x1b8(%rbp)
    ca75:	48 8d 05 bc 38 01 00 	lea    0x138bc(%rip),%rax        # 20338 <g_159>
    ca7c:	48 89 85 50 fe ff ff 	mov    %rax,-0x1b0(%rbp)
    ca83:	48 8d 05 22 3a 01 00 	lea    0x13a22(%rip),%rax        # 204ac <g_1139>
    ca8a:	48 89 85 58 fe ff ff 	mov    %rax,-0x1a8(%rbp)
    ca91:	48 8d 85 d0 f2 ff ff 	lea    -0xd30(%rbp),%rax
    ca98:	48 83 c0 78          	add    $0x78,%rax
    ca9c:	48 89 85 60 fe ff ff 	mov    %rax,-0x1a0(%rbp)
    caa3:	48 8d 05 8e 38 01 00 	lea    0x1388e(%rip),%rax        # 20338 <g_159>
    caaa:	48 89 85 68 fe ff ff 	mov    %rax,-0x198(%rbp)
    cab1:	48 8d 05 80 38 01 00 	lea    0x13880(%rip),%rax        # 20338 <g_159>
    cab8:	48 89 85 70 fe ff ff 	mov    %rax,-0x190(%rbp)
    cabf:	48 8d 05 72 38 01 00 	lea    0x13872(%rip),%rax        # 20338 <g_159>
    cac6:	48 89 85 78 fe ff ff 	mov    %rax,-0x188(%rbp)
    cacd:	48 c7 85 80 fe ff ff 	movq   $0x0,-0x180(%rbp)
    cad4:	00 00 00 00 
    cad8:	48 c7 85 88 fe ff ff 	movq   $0x0,-0x178(%rbp)
    cadf:	00 00 00 00 
    cae3:	48 8d 85 40 f2 ff ff 	lea    -0xdc0(%rbp),%rax
    caea:	48 83 c0 08          	add    $0x8,%rax
    caee:	48 89 85 90 fe ff ff 	mov    %rax,-0x170(%rbp)
    caf5:	48 8d 05 3c 38 01 00 	lea    0x1383c(%rip),%rax        # 20338 <g_159>
    cafc:	48 89 85 98 fe ff ff 	mov    %rax,-0x168(%rbp)
    cb03:	48 8d 05 2e 38 01 00 	lea    0x1382e(%rip),%rax        # 20338 <g_159>
    cb0a:	48 89 85 a0 fe ff ff 	mov    %rax,-0x160(%rbp)
    cb11:	48 c7 85 a8 fe ff ff 	movq   $0x0,-0x158(%rbp)
    cb18:	00 00 00 00 
    cb1c:	48 c7 85 b0 fe ff ff 	movq   $0x0,-0x150(%rbp)
    cb23:	00 00 00 00 
    cb27:	48 8d 85 d0 f2 ff ff 	lea    -0xd30(%rbp),%rax
    cb2e:	48 83 c0 78          	add    $0x78,%rax
    cb32:	48 89 85 b8 fe ff ff 	mov    %rax,-0x148(%rbp)
    cb39:	48 c7 85 c0 fe ff ff 	movq   $0x0,-0x140(%rbp)
    cb40:	00 00 00 00 
    cb44:	48 c7 85 c8 fe ff ff 	movq   $0x0,-0x138(%rbp)
    cb4b:	00 00 00 00 
    cb4f:	48 8d 05 56 39 01 00 	lea    0x13956(%rip),%rax        # 204ac <g_1139>
    cb56:	48 89 85 d0 fe ff ff 	mov    %rax,-0x130(%rbp)
    cb5d:	48 8d 05 48 39 01 00 	lea    0x13948(%rip),%rax        # 204ac <g_1139>
    cb64:	48 89 85 d8 fe ff ff 	mov    %rax,-0x128(%rbp)
    cb6b:	48 c7 85 e0 fe ff ff 	movq   $0x0,-0x120(%rbp)
    cb72:	00 00 00 00 
    cb76:	48 8d 05 2f 39 01 00 	lea    0x1392f(%rip),%rax        # 204ac <g_1139>
    cb7d:	48 89 85 e8 fe ff ff 	mov    %rax,-0x118(%rbp)
    cb84:	48 c7 85 f0 fe ff ff 	movq   $0x0,-0x110(%rbp)
    cb8b:	00 00 00 00 
    cb8f:	48 8d 05 a2 37 01 00 	lea    0x137a2(%rip),%rax        # 20338 <g_159>
    cb96:	48 89 85 f8 fe ff ff 	mov    %rax,-0x108(%rbp)
    cb9d:	48 8d 85 d0 f2 ff ff 	lea    -0xd30(%rbp),%rax
    cba4:	48 83 c0 78          	add    $0x78,%rax
    cba8:	48 89 85 00 ff ff ff 	mov    %rax,-0x100(%rbp)
    cbaf:	48 8d 85 40 f2 ff ff 	lea    -0xdc0(%rbp),%rax
    cbb6:	48 83 c0 08          	add    $0x8,%rax
    cbba:	48 89 85 08 ff ff ff 	mov    %rax,-0xf8(%rbp)
    cbc1:	48 8d 05 e4 38 01 00 	lea    0x138e4(%rip),%rax        # 204ac <g_1139>
    cbc8:	48 89 85 10 ff ff ff 	mov    %rax,-0xf0(%rbp)
    cbcf:	48 8d 85 d0 f2 ff ff 	lea    -0xd30(%rbp),%rax
    cbd6:	48 83 c0 78          	add    $0x78,%rax
    cbda:	48 89 85 18 ff ff ff 	mov    %rax,-0xe8(%rbp)
    cbe1:	48 8d 05 c4 38 01 00 	lea    0x138c4(%rip),%rax        # 204ac <g_1139>
    cbe8:	48 89 85 20 ff ff ff 	mov    %rax,-0xe0(%rbp)
    cbef:	48 8d 85 d0 f2 ff ff 	lea    -0xd30(%rbp),%rax
    cbf6:	48 83 c0 78          	add    $0x78,%rax
    cbfa:	48 89 85 28 ff ff ff 	mov    %rax,-0xd8(%rbp)
    cc01:	48 8d 05 30 37 01 00 	lea    0x13730(%rip),%rax        # 20338 <g_159>
    cc08:	48 89 85 30 ff ff ff 	mov    %rax,-0xd0(%rbp)
    cc0f:	48 8d 05 96 38 01 00 	lea    0x13896(%rip),%rax        # 204ac <g_1139>
    cc16:	48 89 85 38 ff ff ff 	mov    %rax,-0xc8(%rbp)
    cc1d:	48 c7 85 40 ff ff ff 	movq   $0x0,-0xc0(%rbp)
    cc24:	00 00 00 00 
    cc28:	48 8d 85 40 f2 ff ff 	lea    -0xdc0(%rbp),%rax
    cc2f:	48 83 c0 08          	add    $0x8,%rax
    cc33:	48 89 85 48 ff ff ff 	mov    %rax,-0xb8(%rbp)
    cc3a:	48 c7 85 50 ff ff ff 	movq   $0x0,-0xb0(%rbp)
    cc41:	00 00 00 00 
    cc45:	48 8d 85 d0 f2 ff ff 	lea    -0xd30(%rbp),%rax
    cc4c:	48 83 c0 78          	add    $0x78,%rax
    cc50:	48 89 85 58 ff ff ff 	mov    %rax,-0xa8(%rbp)
    cc57:	48 8d 05 4e 38 01 00 	lea    0x1384e(%rip),%rax        # 204ac <g_1139>
    cc5e:	48 89 85 60 ff ff ff 	mov    %rax,-0xa0(%rbp)
    cc65:	48 8d 05 40 38 01 00 	lea    0x13840(%rip),%rax        # 204ac <g_1139>
    cc6c:	48 89 85 68 ff ff ff 	mov    %rax,-0x98(%rbp)
    cc73:	48 8d 85 d0 f2 ff ff 	lea    -0xd30(%rbp),%rax
    cc7a:	48 83 c0 78          	add    $0x78,%rax
    cc7e:	48 89 85 70 ff ff ff 	mov    %rax,-0x90(%rbp)
    cc85:	48 8d 85 d0 f2 ff ff 	lea    -0xd30(%rbp),%rax
    cc8c:	48 83 c0 78          	add    $0x78,%rax
    cc90:	48 89 85 78 ff ff ff 	mov    %rax,-0x88(%rbp)
    cc97:	48 8d 05 9a 36 01 00 	lea    0x1369a(%rip),%rax        # 20338 <g_159>
    cc9e:	48 89 45 80          	mov    %rax,-0x80(%rbp)
    cca2:	48 c7 45 88 00 00 00 	movq   $0x0,-0x78(%rbp)
    cca9:	00 
    ccaa:	48 c7 45 90 00 00 00 	movq   $0x0,-0x70(%rbp)
    ccb1:	00 
    ccb2:	48 8d 05 f3 37 01 00 	lea    0x137f3(%rip),%rax        # 204ac <g_1139>
    ccb9:	48 89 45 98          	mov    %rax,-0x68(%rbp)
    ccbd:	48 8d 05 e8 37 01 00 	lea    0x137e8(%rip),%rax        # 204ac <g_1139>
    ccc4:	48 89 45 a0          	mov    %rax,-0x60(%rbp)
    ccc8:	48 8d 05 69 36 01 00 	lea    0x13669(%rip),%rax        # 20338 <g_159>
    cccf:	48 89 45 a8          	mov    %rax,-0x58(%rbp)
    ccd3:	48 8d 05 d2 37 01 00 	lea    0x137d2(%rip),%rax        # 204ac <g_1139>
    ccda:	48 89 45 b0          	mov    %rax,-0x50(%rbp)
    ccde:	48 c7 45 b8 00 00 00 	movq   $0x0,-0x48(%rbp)
    cce5:	00 
    cce6:	48 c7 45 c0 00 00 00 	movq   $0x0,-0x40(%rbp)
    cced:	00 
    ccee:	48 8b 85 e8 ef ff ff 	mov    -0x1018(%rbp),%rax
    ccf5:	0f b7 d8             	movzwl %ax,%ebx
    ccf8:	48 8b 85 e8 ef ff ff 	mov    -0x1018(%rbp),%rax
    ccff:	89 85 cc ef ff ff    	mov    %eax,-0x1034(%rbp)
    cd05:	8b 05 9d 37 01 00    	mov    0x1379d(%rip),%eax        # 204a8 <g_1068>
    cd0b:	44 0f b7 e0          	movzwl %ax,%r12d
    cd0f:	44 0f b7 ad e0 ef ff 	movzwl -0x1020(%rbp),%r13d
    cd16:	ff 
    cd17:	44 8b b5 84 f0 ff ff 	mov    -0xf7c(%rbp),%r14d
    cd1e:	0f b7 05 4d 36 01 00 	movzwl 0x1364d(%rip),%eax        # 20372 <g_653>
    cd25:	44 0f b7 f8          	movzwl %ax,%r15d
    cd29:	48 83 bd e8 f0 ff ff 	cmpq   $0x0,-0xf18(%rbp)
    cd30:	00 
    cd31:	0f 95 c0             	setne  %al
    cd34:	0f b6 c0             	movzbl %al,%eax
    cd37:	be 03 00 00 00       	mov    $0x3,%esi
    cd3c:	89 c7                	mov    %eax,%edi
    cd3e:	e8 5e 95 ff ff       	callq  62a1 <safe_lshift_func_int8_t_s_s>
    cd43:	8b 85 e4 ef ff ff    	mov    -0x101c(%rbp),%eax
    cd49:	f7 d0                	not    %eax
    cd4b:	0f b7 c0             	movzwl %ax,%eax
    cd4e:	44 89 fe             	mov    %r15d,%esi
    cd51:	89 c7                	mov    %eax,%edi
    cd53:	e8 e5 9f ff ff       	callq  6d3d <safe_mul_func_uint16_t_u_u>
    cd58:	0f be d0             	movsbl %al,%edx
    cd5b:	81 b5 98 f0 ff ff 3c 	xorl   $0xf93c,-0xf68(%rbp)
    cd62:	f9 00 00 
    cd65:	48 83 bd 30 f1 ff ff 	cmpq   $0x0,-0xed0(%rbp)
    cd6c:	00 
    cd6d:	0f 95 c0             	setne  %al
    cd70:	0f b6 c0             	movzbl %al,%eax
    cd73:	89 d6                	mov    %edx,%esi
    cd75:	89 c7                	mov    %eax,%edi
    cd77:	e8 76 94 ff ff       	callq  61f2 <safe_sub_func_int8_t_s_s>
    cd7c:	0f be c0             	movsbl %al,%eax
    cd7f:	44 89 f6             	mov    %r14d,%esi
    cd82:	89 c7                	mov    %eax,%edi
    cd84:	e8 2f a1 ff ff       	callq  6eb8 <safe_add_func_uint32_t_u_u>
    cd89:	8b 85 20 f0 ff ff    	mov    -0xfe0(%rbp),%eax
    cd8f:	0f b7 c0             	movzwl %ax,%eax
    cd92:	44 89 ee             	mov    %r13d,%esi
    cd95:	89 c7                	mov    %eax,%edi
    cd97:	e8 de a0 ff ff       	callq  6e7a <safe_rshift_func_uint16_t_u_u>
    cd9c:	0f b7 c0             	movzwl %ax,%eax
    cd9f:	39 85 e4 ef ff ff    	cmp    %eax,-0x101c(%rbp)
    cda5:	74 07                	je     cdae <func_66+0x1b3b>
    cda7:	b8 01 00 00 00       	mov    $0x1,%eax
    cdac:	eb 05                	jmp    cdb3 <func_66+0x1b40>
    cdae:	b8 00 00 00 00       	mov    $0x0,%eax
    cdb3:	0f bf d0             	movswl %ax,%edx
    cdb6:	0f b6 05 07 37 01 00 	movzbl 0x13707(%rip),%eax        # 204c4 <g_1299>
    cdbd:	0f b6 c0             	movzbl %al,%eax
    cdc0:	89 d6                	mov    %edx,%esi
    cdc2:	89 c7                	mov    %eax,%edi
    cdc4:	e8 0a 96 ff ff       	callq  63d3 <safe_sub_func_int16_t_s_s>
    cdc9:	48 0f bf c0          	movswq %ax,%rax
    cdcd:	48 39 85 e8 ef ff ff 	cmp    %rax,-0x1018(%rbp)
    cdd4:	0f 93 c0             	setae  %al
    cdd7:	0f b6 d0             	movzbl %al,%edx
    cdda:	0f b6 85 48 f3 ff ff 	movzbl -0xcb8(%rbp),%eax
    cde1:	0f b6 c0             	movzbl %al,%eax
    cde4:	39 c2                	cmp    %eax,%edx
    cde6:	0f 94 c0             	sete   %al
    cde9:	0f b6 c0             	movzbl %al,%eax
    cdec:	44 89 e6             	mov    %r12d,%esi
    cdef:	89 c7                	mov    %eax,%edi
    cdf1:	e8 98 9f ff ff       	callq  6d8e <safe_div_func_uint16_t_u_u>
    cdf6:	0f b6 c0             	movzbl %al,%eax
    cdf9:	8b b5 cc ef ff ff    	mov    -0x1034(%rbp),%esi
    cdff:	89 c7                	mov    %eax,%edi
    ce01:	e8 87 9e ff ff       	callq  6c8d <safe_rshift_func_uint8_t_u_s>
    ce06:	0f b6 d0             	movzbl %al,%edx
    ce09:	48 8b 85 d0 ef ff ff 	mov    -0x1030(%rbp),%rax
    ce10:	8b 00                	mov    (%rax),%eax
    ce12:	39 c2                	cmp    %eax,%edx
    ce14:	0f 9c c0             	setl   %al
    ce17:	0f b6 c0             	movzbl %al,%eax
    ce1a:	89 de                	mov    %ebx,%esi
    ce1c:	89 c7                	mov    %eax,%edi
    ce1e:	e8 1a 9f ff ff       	callq  6d3d <safe_mul_func_uint16_t_u_u>
    ce23:	0f b7 c0             	movzwl %ax,%eax
    ce26:	39 85 94 f0 ff ff    	cmp    %eax,-0xf6c(%rbp)
    ce2c:	0f 93 c0             	setae  %al
    ce2f:	0f b6 d0             	movzbl %al,%edx
    ce32:	48 8b 05 27 40 01 00 	mov    0x14027(%rip),%rax        # 20e60 <g_579>
    ce39:	48 8b 00             	mov    (%rax),%rax
    ce3c:	8b 00                	mov    (%rax),%eax
    ce3e:	39 c2                	cmp    %eax,%edx
    ce40:	72 4a                	jb     ce8c <func_66+0x1c19>
    ce42:	c6 85 00 f0 ff ff 6a 	movb   $0x6a,-0x1000(%rbp)
    ce49:	48 8d 85 b8 f0 ff ff 	lea    -0xf48(%rbp),%rax
    ce50:	48 89 85 48 f1 ff ff 	mov    %rax,-0xeb8(%rbp)
    ce57:	80 ad 00 f0 ff ff 01 	subb   $0x1,-0x1000(%rbp)
    ce5e:	48 8b 95 b8 f0 ff ff 	mov    -0xf48(%rbp),%rdx
    ce65:	48 8b 85 48 f1 ff ff 	mov    -0xeb8(%rbp),%rax
    ce6c:	48 89 10             	mov    %rdx,(%rax)
    ce6f:	8b 85 24 f0 ff ff    	mov    -0xfdc(%rbp),%eax
    ce75:	48 98                	cltq   
    ce77:	be 01 00 00 00       	mov    $0x1,%esi
    ce7c:	48 89 c7             	mov    %rax,%rdi
    ce7f:	e8 c7 a1 ff ff       	callq  704b <safe_sub_func_uint64_t_u_u>
    ce84:	89 85 24 f0 ff ff    	mov    %eax,-0xfdc(%rbp)
    ce8a:	eb 0b                	jmp    ce97 <func_66+0x1c24>
    ce8c:	8b 05 a6 34 01 00    	mov    0x134a6(%rip),%eax        # 20338 <g_159>
    ce92:	e9 3b 35 00 00       	jmpq   103d2 <func_66+0x515f>
    ce97:	8b 85 24 f0 ff ff    	mov    -0xfdc(%rbp),%eax
    ce9d:	83 f8 ee             	cmp    $0xffffffee,%eax
    cea0:	0f 8d b7 ef ff ff    	jge    be5d <func_66+0xbea>
    cea6:	0f b6 05 8b 34 01 00 	movzbl 0x1348b(%rip),%eax        # 20338 <g_159>
    cead:	83 c0 01             	add    $0x1,%eax
    ceb0:	88 05 82 34 01 00    	mov    %al,0x13482(%rip)        # 20338 <g_159>
    ceb6:	0f b6 05 7b 34 01 00 	movzbl 0x1347b(%rip),%eax        # 20338 <g_159>
    cebd:	3c 0a                	cmp    $0xa,%al
    cebf:	0f 86 4b ed ff ff    	jbe    bc10 <func_66+0x99d>
    cec5:	e9 eb 0e 00 00       	jmpq   ddb5 <func_66+0x2b42>
    ceca:	48 c7 85 b8 f0 ff ff 	movq   $0x0,-0xf48(%rbp)
    ced1:	00 00 00 00 
    ced5:	48 8d 85 b8 f0 ff ff 	lea    -0xf48(%rbp),%rax
    cedc:	48 89 85 20 f8 ff ff 	mov    %rax,-0x7e0(%rbp)
    cee3:	48 c7 85 28 f8 ff ff 	movq   $0x0,-0x7d8(%rbp)
    ceea:	00 00 00 00 
    ceee:	48 8d 85 b8 f0 ff ff 	lea    -0xf48(%rbp),%rax
    cef5:	48 89 85 30 f8 ff ff 	mov    %rax,-0x7d0(%rbp)
    cefc:	48 c7 85 38 f8 ff ff 	movq   $0x0,-0x7c8(%rbp)
    cf03:	00 00 00 00 
    cf07:	48 c7 85 40 f8 ff ff 	movq   $0x0,-0x7c0(%rbp)
    cf0e:	00 00 00 00 
    cf12:	48 c7 85 48 f8 ff ff 	movq   $0x0,-0x7b8(%rbp)
    cf19:	00 00 00 00 
    cf1d:	48 8d 85 b8 f0 ff ff 	lea    -0xf48(%rbp),%rax
    cf24:	48 89 85 50 f8 ff ff 	mov    %rax,-0x7b0(%rbp)
    cf2b:	48 8d 85 b8 f0 ff ff 	lea    -0xf48(%rbp),%rax
    cf32:	48 89 85 58 f8 ff ff 	mov    %rax,-0x7a8(%rbp)
    cf39:	48 8d 85 b8 f0 ff ff 	lea    -0xf48(%rbp),%rax
    cf40:	48 89 85 60 f8 ff ff 	mov    %rax,-0x7a0(%rbp)
    cf47:	48 8d 85 b8 f0 ff ff 	lea    -0xf48(%rbp),%rax
    cf4e:	48 89 85 68 f8 ff ff 	mov    %rax,-0x798(%rbp)
    cf55:	48 8d 85 b8 f0 ff ff 	lea    -0xf48(%rbp),%rax
    cf5c:	48 89 85 70 f8 ff ff 	mov    %rax,-0x790(%rbp)
    cf63:	48 8d 85 b8 f0 ff ff 	lea    -0xf48(%rbp),%rax
    cf6a:	48 89 85 78 f8 ff ff 	mov    %rax,-0x788(%rbp)
    cf71:	48 8d 85 b8 f0 ff ff 	lea    -0xf48(%rbp),%rax
    cf78:	48 89 85 80 f8 ff ff 	mov    %rax,-0x780(%rbp)
    cf7f:	48 c7 85 88 f8 ff ff 	movq   $0x0,-0x778(%rbp)
    cf86:	00 00 00 00 
    cf8a:	48 c7 85 90 f8 ff ff 	movq   $0x0,-0x770(%rbp)
    cf91:	00 00 00 00 
    cf95:	48 8d 85 b8 f0 ff ff 	lea    -0xf48(%rbp),%rax
    cf9c:	48 89 85 98 f8 ff ff 	mov    %rax,-0x768(%rbp)
    cfa3:	48 8d 85 b8 f0 ff ff 	lea    -0xf48(%rbp),%rax
    cfaa:	48 89 85 a0 f8 ff ff 	mov    %rax,-0x760(%rbp)
    cfb1:	48 8d 85 b8 f0 ff ff 	lea    -0xf48(%rbp),%rax
    cfb8:	48 89 85 a8 f8 ff ff 	mov    %rax,-0x758(%rbp)
    cfbf:	48 8d 85 b8 f0 ff ff 	lea    -0xf48(%rbp),%rax
    cfc6:	48 89 85 b0 f8 ff ff 	mov    %rax,-0x750(%rbp)
    cfcd:	48 8d 85 b8 f0 ff ff 	lea    -0xf48(%rbp),%rax
    cfd4:	48 89 85 b8 f8 ff ff 	mov    %rax,-0x748(%rbp)
    cfdb:	48 8d 85 b8 f0 ff ff 	lea    -0xf48(%rbp),%rax
    cfe2:	48 89 85 c0 f8 ff ff 	mov    %rax,-0x740(%rbp)
    cfe9:	48 8d 85 b8 f0 ff ff 	lea    -0xf48(%rbp),%rax
    cff0:	48 89 85 c8 f8 ff ff 	mov    %rax,-0x738(%rbp)
    cff7:	48 8d 85 b8 f0 ff ff 	lea    -0xf48(%rbp),%rax
    cffe:	48 89 85 d0 f8 ff ff 	mov    %rax,-0x730(%rbp)
    d005:	48 8d 85 b8 f0 ff ff 	lea    -0xf48(%rbp),%rax
    d00c:	48 89 85 d8 f8 ff ff 	mov    %rax,-0x728(%rbp)
    d013:	48 8d 85 b8 f0 ff ff 	lea    -0xf48(%rbp),%rax
    d01a:	48 89 85 e0 f8 ff ff 	mov    %rax,-0x720(%rbp)
    d021:	48 8d 85 b8 f0 ff ff 	lea    -0xf48(%rbp),%rax
    d028:	48 89 85 e8 f8 ff ff 	mov    %rax,-0x718(%rbp)
    d02f:	48 8d 85 b8 f0 ff ff 	lea    -0xf48(%rbp),%rax
    d036:	48 89 85 f0 f8 ff ff 	mov    %rax,-0x710(%rbp)
    d03d:	48 c7 85 f8 f8 ff ff 	movq   $0x0,-0x708(%rbp)
    d044:	00 00 00 00 
    d048:	48 8d 85 b8 f0 ff ff 	lea    -0xf48(%rbp),%rax
    d04f:	48 89 85 00 f9 ff ff 	mov    %rax,-0x700(%rbp)
    d056:	48 8d 85 b8 f0 ff ff 	lea    -0xf48(%rbp),%rax
    d05d:	48 89 85 08 f9 ff ff 	mov    %rax,-0x6f8(%rbp)
    d064:	48 8d 85 b8 f0 ff ff 	lea    -0xf48(%rbp),%rax
    d06b:	48 89 85 10 f9 ff ff 	mov    %rax,-0x6f0(%rbp)
    d072:	48 8d 85 b8 f0 ff ff 	lea    -0xf48(%rbp),%rax
    d079:	48 89 85 18 f9 ff ff 	mov    %rax,-0x6e8(%rbp)
    d080:	48 8d 85 b8 f0 ff ff 	lea    -0xf48(%rbp),%rax
    d087:	48 89 85 20 f9 ff ff 	mov    %rax,-0x6e0(%rbp)
    d08e:	48 8d 85 b8 f0 ff ff 	lea    -0xf48(%rbp),%rax
    d095:	48 89 85 28 f9 ff ff 	mov    %rax,-0x6d8(%rbp)
    d09c:	48 c7 85 30 f9 ff ff 	movq   $0x0,-0x6d0(%rbp)
    d0a3:	00 00 00 00 
    d0a7:	48 8d 85 b8 f0 ff ff 	lea    -0xf48(%rbp),%rax
    d0ae:	48 89 85 38 f9 ff ff 	mov    %rax,-0x6c8(%rbp)
    d0b5:	48 8d 85 b8 f0 ff ff 	lea    -0xf48(%rbp),%rax
    d0bc:	48 89 85 40 f9 ff ff 	mov    %rax,-0x6c0(%rbp)
    d0c3:	48 8d 85 b8 f0 ff ff 	lea    -0xf48(%rbp),%rax
    d0ca:	48 89 85 48 f9 ff ff 	mov    %rax,-0x6b8(%rbp)
    d0d1:	48 8d 85 b8 f0 ff ff 	lea    -0xf48(%rbp),%rax
    d0d8:	48 89 85 50 f9 ff ff 	mov    %rax,-0x6b0(%rbp)
    d0df:	48 8d 85 b8 f0 ff ff 	lea    -0xf48(%rbp),%rax
    d0e6:	48 89 85 58 f9 ff ff 	mov    %rax,-0x6a8(%rbp)
    d0ed:	48 8d 85 b8 f0 ff ff 	lea    -0xf48(%rbp),%rax
    d0f4:	48 89 85 60 f9 ff ff 	mov    %rax,-0x6a0(%rbp)
    d0fb:	48 8d 85 b8 f0 ff ff 	lea    -0xf48(%rbp),%rax
    d102:	48 89 85 68 f9 ff ff 	mov    %rax,-0x698(%rbp)
    d109:	48 8d 85 b8 f0 ff ff 	lea    -0xf48(%rbp),%rax
    d110:	48 89 85 70 f9 ff ff 	mov    %rax,-0x690(%rbp)
    d117:	48 8d 85 b8 f0 ff ff 	lea    -0xf48(%rbp),%rax
    d11e:	48 89 85 78 f9 ff ff 	mov    %rax,-0x688(%rbp)
    d125:	48 8d 85 b8 f0 ff ff 	lea    -0xf48(%rbp),%rax
    d12c:	48 89 85 80 f9 ff ff 	mov    %rax,-0x680(%rbp)
    d133:	48 c7 85 88 f9 ff ff 	movq   $0x0,-0x678(%rbp)
    d13a:	00 00 00 00 
    d13e:	48 8d 85 b8 f0 ff ff 	lea    -0xf48(%rbp),%rax
    d145:	48 89 85 90 f9 ff ff 	mov    %rax,-0x670(%rbp)
    d14c:	48 8d 85 b8 f0 ff ff 	lea    -0xf48(%rbp),%rax
    d153:	48 89 85 98 f9 ff ff 	mov    %rax,-0x668(%rbp)
    d15a:	48 8d 85 b8 f0 ff ff 	lea    -0xf48(%rbp),%rax
    d161:	48 89 85 a0 f9 ff ff 	mov    %rax,-0x660(%rbp)
    d168:	48 8d 85 b8 f0 ff ff 	lea    -0xf48(%rbp),%rax
    d16f:	48 89 85 a8 f9 ff ff 	mov    %rax,-0x658(%rbp)
    d176:	48 8d 85 b8 f0 ff ff 	lea    -0xf48(%rbp),%rax
    d17d:	48 89 85 b0 f9 ff ff 	mov    %rax,-0x650(%rbp)
    d184:	48 c7 85 b8 f9 ff ff 	movq   $0x0,-0x648(%rbp)
    d18b:	00 00 00 00 
    d18f:	48 8d 85 b8 f0 ff ff 	lea    -0xf48(%rbp),%rax
    d196:	48 89 85 c0 f9 ff ff 	mov    %rax,-0x640(%rbp)
    d19d:	48 8d 85 b8 f0 ff ff 	lea    -0xf48(%rbp),%rax
    d1a4:	48 89 85 c8 f9 ff ff 	mov    %rax,-0x638(%rbp)
    d1ab:	48 8d 85 b8 f0 ff ff 	lea    -0xf48(%rbp),%rax
    d1b2:	48 89 85 d0 f9 ff ff 	mov    %rax,-0x630(%rbp)
    d1b9:	48 8d 85 b8 f0 ff ff 	lea    -0xf48(%rbp),%rax
    d1c0:	48 89 85 d8 f9 ff ff 	mov    %rax,-0x628(%rbp)
    d1c7:	48 8d 85 b8 f0 ff ff 	lea    -0xf48(%rbp),%rax
    d1ce:	48 89 85 e0 f9 ff ff 	mov    %rax,-0x620(%rbp)
    d1d5:	48 8d 85 b8 f0 ff ff 	lea    -0xf48(%rbp),%rax
    d1dc:	48 89 85 e8 f9 ff ff 	mov    %rax,-0x618(%rbp)
    d1e3:	48 c7 85 f0 f9 ff ff 	movq   $0x0,-0x610(%rbp)
    d1ea:	00 00 00 00 
    d1ee:	48 8d 85 b8 f0 ff ff 	lea    -0xf48(%rbp),%rax
    d1f5:	48 89 85 f8 f9 ff ff 	mov    %rax,-0x608(%rbp)
    d1fc:	48 8d 85 b8 f0 ff ff 	lea    -0xf48(%rbp),%rax
    d203:	48 89 85 00 fa ff ff 	mov    %rax,-0x600(%rbp)
    d20a:	48 c7 85 08 fa ff ff 	movq   $0x0,-0x5f8(%rbp)
    d211:	00 00 00 00 
    d215:	48 8d 85 b8 f0 ff ff 	lea    -0xf48(%rbp),%rax
    d21c:	48 89 85 10 fa ff ff 	mov    %rax,-0x5f0(%rbp)
    d223:	48 8d 85 b8 f0 ff ff 	lea    -0xf48(%rbp),%rax
    d22a:	48 89 85 18 fa ff ff 	mov    %rax,-0x5e8(%rbp)
    d231:	48 8d 85 b8 f0 ff ff 	lea    -0xf48(%rbp),%rax
    d238:	48 89 85 20 fa ff ff 	mov    %rax,-0x5e0(%rbp)
    d23f:	48 8d 85 b8 f0 ff ff 	lea    -0xf48(%rbp),%rax
    d246:	48 89 85 28 fa ff ff 	mov    %rax,-0x5d8(%rbp)
    d24d:	48 c7 85 30 fa ff ff 	movq   $0x0,-0x5d0(%rbp)
    d254:	00 00 00 00 
    d258:	48 8d 85 b8 f0 ff ff 	lea    -0xf48(%rbp),%rax
    d25f:	48 89 85 38 fa ff ff 	mov    %rax,-0x5c8(%rbp)
    d266:	48 8d 85 b8 f0 ff ff 	lea    -0xf48(%rbp),%rax
    d26d:	48 89 85 40 fa ff ff 	mov    %rax,-0x5c0(%rbp)
    d274:	48 8d 85 b8 f0 ff ff 	lea    -0xf48(%rbp),%rax
    d27b:	48 89 85 48 fa ff ff 	mov    %rax,-0x5b8(%rbp)
    d282:	48 8d 85 b8 f0 ff ff 	lea    -0xf48(%rbp),%rax
    d289:	48 89 85 50 fa ff ff 	mov    %rax,-0x5b0(%rbp)
    d290:	48 8d 85 b8 f0 ff ff 	lea    -0xf48(%rbp),%rax
    d297:	48 89 85 58 fa ff ff 	mov    %rax,-0x5a8(%rbp)
    d29e:	48 c7 85 60 fa ff ff 	movq   $0x0,-0x5a0(%rbp)
    d2a5:	00 00 00 00 
    d2a9:	48 8d 85 b8 f0 ff ff 	lea    -0xf48(%rbp),%rax
    d2b0:	48 89 85 68 fa ff ff 	mov    %rax,-0x598(%rbp)
    d2b7:	48 8d 85 b8 f0 ff ff 	lea    -0xf48(%rbp),%rax
    d2be:	48 89 85 70 fa ff ff 	mov    %rax,-0x590(%rbp)
    d2c5:	48 8d 85 b8 f0 ff ff 	lea    -0xf48(%rbp),%rax
    d2cc:	48 89 85 78 fa ff ff 	mov    %rax,-0x588(%rbp)
    d2d3:	48 8d 85 b8 f0 ff ff 	lea    -0xf48(%rbp),%rax
    d2da:	48 89 85 80 fa ff ff 	mov    %rax,-0x580(%rbp)
    d2e1:	48 8d 85 b8 f0 ff ff 	lea    -0xf48(%rbp),%rax
    d2e8:	48 89 85 88 fa ff ff 	mov    %rax,-0x578(%rbp)
    d2ef:	48 c7 85 90 fa ff ff 	movq   $0x0,-0x570(%rbp)
    d2f6:	00 00 00 00 
    d2fa:	48 8d 85 b8 f0 ff ff 	lea    -0xf48(%rbp),%rax
    d301:	48 89 85 98 fa ff ff 	mov    %rax,-0x568(%rbp)
    d308:	48 8d 85 b8 f0 ff ff 	lea    -0xf48(%rbp),%rax
    d30f:	48 89 85 a0 fa ff ff 	mov    %rax,-0x560(%rbp)
    d316:	48 8d 85 b8 f0 ff ff 	lea    -0xf48(%rbp),%rax
    d31d:	48 89 85 a8 fa ff ff 	mov    %rax,-0x558(%rbp)
    d324:	48 c7 85 b0 fa ff ff 	movq   $0x0,-0x550(%rbp)
    d32b:	00 00 00 00 
    d32f:	48 c7 85 b8 fa ff ff 	movq   $0x0,-0x548(%rbp)
    d336:	00 00 00 00 
    d33a:	48 8d 85 b8 f0 ff ff 	lea    -0xf48(%rbp),%rax
    d341:	48 89 85 c0 fa ff ff 	mov    %rax,-0x540(%rbp)
    d348:	48 8d 85 b8 f0 ff ff 	lea    -0xf48(%rbp),%rax
    d34f:	48 89 85 c8 fa ff ff 	mov    %rax,-0x538(%rbp)
    d356:	48 8d 85 b8 f0 ff ff 	lea    -0xf48(%rbp),%rax
    d35d:	48 89 85 d0 fa ff ff 	mov    %rax,-0x530(%rbp)
    d364:	48 8d 85 b8 f0 ff ff 	lea    -0xf48(%rbp),%rax
    d36b:	48 89 85 d8 fa ff ff 	mov    %rax,-0x528(%rbp)
    d372:	48 8d 85 b8 f0 ff ff 	lea    -0xf48(%rbp),%rax
    d379:	48 89 85 e0 fa ff ff 	mov    %rax,-0x520(%rbp)
    d380:	48 8d 85 b8 f0 ff ff 	lea    -0xf48(%rbp),%rax
    d387:	48 89 85 e8 fa ff ff 	mov    %rax,-0x518(%rbp)
    d38e:	48 8d 85 b8 f0 ff ff 	lea    -0xf48(%rbp),%rax
    d395:	48 89 85 f0 fa ff ff 	mov    %rax,-0x510(%rbp)
    d39c:	48 8d 85 b8 f0 ff ff 	lea    -0xf48(%rbp),%rax
    d3a3:	48 89 85 f8 fa ff ff 	mov    %rax,-0x508(%rbp)
    d3aa:	48 c7 85 00 fb ff ff 	movq   $0x0,-0x500(%rbp)
    d3b1:	00 00 00 00 
    d3b5:	48 8d 85 b8 f0 ff ff 	lea    -0xf48(%rbp),%rax
    d3bc:	48 89 85 08 fb ff ff 	mov    %rax,-0x4f8(%rbp)
    d3c3:	48 8d 85 b8 f0 ff ff 	lea    -0xf48(%rbp),%rax
    d3ca:	48 89 85 10 fb ff ff 	mov    %rax,-0x4f0(%rbp)
    d3d1:	48 8d 85 b8 f0 ff ff 	lea    -0xf48(%rbp),%rax
    d3d8:	48 89 85 18 fb ff ff 	mov    %rax,-0x4e8(%rbp)
    d3df:	48 c7 85 20 fb ff ff 	movq   $0x0,-0x4e0(%rbp)
    d3e6:	00 00 00 00 
    d3ea:	48 8d 85 b8 f0 ff ff 	lea    -0xf48(%rbp),%rax
    d3f1:	48 89 85 28 fb ff ff 	mov    %rax,-0x4d8(%rbp)
    d3f8:	48 8d 85 b8 f0 ff ff 	lea    -0xf48(%rbp),%rax
    d3ff:	48 89 85 30 fb ff ff 	mov    %rax,-0x4d0(%rbp)
    d406:	48 8d 85 b8 f0 ff ff 	lea    -0xf48(%rbp),%rax
    d40d:	48 89 85 38 fb ff ff 	mov    %rax,-0x4c8(%rbp)
    d414:	48 8d 85 b8 f0 ff ff 	lea    -0xf48(%rbp),%rax
    d41b:	48 89 85 40 fb ff ff 	mov    %rax,-0x4c0(%rbp)
    d422:	48 8d 85 b8 f0 ff ff 	lea    -0xf48(%rbp),%rax
    d429:	48 89 85 48 fb ff ff 	mov    %rax,-0x4b8(%rbp)
    d430:	48 c7 85 50 fb ff ff 	movq   $0x0,-0x4b0(%rbp)
    d437:	00 00 00 00 
    d43b:	48 c7 85 58 fb ff ff 	movq   $0x0,-0x4a8(%rbp)
    d442:	00 00 00 00 
    d446:	48 c7 85 60 fb ff ff 	movq   $0x0,-0x4a0(%rbp)
    d44d:	00 00 00 00 
    d451:	48 8d 85 b8 f0 ff ff 	lea    -0xf48(%rbp),%rax
    d458:	48 89 85 68 fb ff ff 	mov    %rax,-0x498(%rbp)
    d45f:	48 c7 85 70 fb ff ff 	movq   $0x0,-0x490(%rbp)
    d466:	00 00 00 00 
    d46a:	48 8d 85 b8 f0 ff ff 	lea    -0xf48(%rbp),%rax
    d471:	48 89 85 78 fb ff ff 	mov    %rax,-0x488(%rbp)
    d478:	48 c7 85 80 fb ff ff 	movq   $0x0,-0x480(%rbp)
    d47f:	00 00 00 00 
    d483:	48 8d 85 b8 f0 ff ff 	lea    -0xf48(%rbp),%rax
    d48a:	48 89 85 88 fb ff ff 	mov    %rax,-0x478(%rbp)
    d491:	48 8d 85 b8 f0 ff ff 	lea    -0xf48(%rbp),%rax
    d498:	48 89 85 90 fb ff ff 	mov    %rax,-0x470(%rbp)
    d49f:	48 8d 85 b8 f0 ff ff 	lea    -0xf48(%rbp),%rax
    d4a6:	48 89 85 98 fb ff ff 	mov    %rax,-0x468(%rbp)
    d4ad:	48 8d 85 b8 f0 ff ff 	lea    -0xf48(%rbp),%rax
    d4b4:	48 89 85 a0 fb ff ff 	mov    %rax,-0x460(%rbp)
    d4bb:	48 8d 85 b8 f0 ff ff 	lea    -0xf48(%rbp),%rax
    d4c2:	48 89 85 a8 fb ff ff 	mov    %rax,-0x458(%rbp)
    d4c9:	48 c7 85 b0 fb ff ff 	movq   $0x0,-0x450(%rbp)
    d4d0:	00 00 00 00 
    d4d4:	48 8d 85 b8 f0 ff ff 	lea    -0xf48(%rbp),%rax
    d4db:	48 89 85 b8 fb ff ff 	mov    %rax,-0x448(%rbp)
    d4e2:	48 8d 85 b8 f0 ff ff 	lea    -0xf48(%rbp),%rax
    d4e9:	48 89 85 c0 fb ff ff 	mov    %rax,-0x440(%rbp)
    d4f0:	48 8d 85 b8 f0 ff ff 	lea    -0xf48(%rbp),%rax
    d4f7:	48 89 85 c8 fb ff ff 	mov    %rax,-0x438(%rbp)
    d4fe:	48 c7 85 d0 fb ff ff 	movq   $0x0,-0x430(%rbp)
    d505:	00 00 00 00 
    d509:	48 c7 85 d8 fb ff ff 	movq   $0x0,-0x428(%rbp)
    d510:	00 00 00 00 
    d514:	48 8d 85 b8 f0 ff ff 	lea    -0xf48(%rbp),%rax
    d51b:	48 89 85 e0 fb ff ff 	mov    %rax,-0x420(%rbp)
    d522:	48 8d 85 b8 f0 ff ff 	lea    -0xf48(%rbp),%rax
    d529:	48 89 85 e8 fb ff ff 	mov    %rax,-0x418(%rbp)
    d530:	48 8d 85 b8 f0 ff ff 	lea    -0xf48(%rbp),%rax
    d537:	48 89 85 f0 fb ff ff 	mov    %rax,-0x410(%rbp)
    d53e:	48 c7 85 f8 fb ff ff 	movq   $0x0,-0x408(%rbp)
    d545:	00 00 00 00 
    d549:	48 c7 85 00 fc ff ff 	movq   $0x0,-0x400(%rbp)
    d550:	00 00 00 00 
    d554:	48 8d 85 b8 f0 ff ff 	lea    -0xf48(%rbp),%rax
    d55b:	48 89 85 08 fc ff ff 	mov    %rax,-0x3f8(%rbp)
    d562:	48 8d 85 b8 f0 ff ff 	lea    -0xf48(%rbp),%rax
    d569:	48 89 85 10 fc ff ff 	mov    %rax,-0x3f0(%rbp)
    d570:	48 8d 85 b8 f0 ff ff 	lea    -0xf48(%rbp),%rax
    d577:	48 89 85 18 fc ff ff 	mov    %rax,-0x3e8(%rbp)
    d57e:	48 c7 85 20 fc ff ff 	movq   $0x0,-0x3e0(%rbp)
    d585:	00 00 00 00 
    d589:	48 8d 85 b8 f0 ff ff 	lea    -0xf48(%rbp),%rax
    d590:	48 89 85 28 fc ff ff 	mov    %rax,-0x3d8(%rbp)
    d597:	48 8d 85 b8 f0 ff ff 	lea    -0xf48(%rbp),%rax
    d59e:	48 89 85 30 fc ff ff 	mov    %rax,-0x3d0(%rbp)
    d5a5:	48 8d 85 b8 f0 ff ff 	lea    -0xf48(%rbp),%rax
    d5ac:	48 89 85 38 fc ff ff 	mov    %rax,-0x3c8(%rbp)
    d5b3:	48 8d 85 b8 f0 ff ff 	lea    -0xf48(%rbp),%rax
    d5ba:	48 89 85 40 fc ff ff 	mov    %rax,-0x3c0(%rbp)
    d5c1:	48 8d 85 b8 f0 ff ff 	lea    -0xf48(%rbp),%rax
    d5c8:	48 89 85 48 fc ff ff 	mov    %rax,-0x3b8(%rbp)
    d5cf:	48 8d 85 b8 f0 ff ff 	lea    -0xf48(%rbp),%rax
    d5d6:	48 89 85 50 fc ff ff 	mov    %rax,-0x3b0(%rbp)
    d5dd:	48 8d 85 b8 f0 ff ff 	lea    -0xf48(%rbp),%rax
    d5e4:	48 89 85 58 fc ff ff 	mov    %rax,-0x3a8(%rbp)
    d5eb:	48 8d 85 b8 f0 ff ff 	lea    -0xf48(%rbp),%rax
    d5f2:	48 89 85 60 fc ff ff 	mov    %rax,-0x3a0(%rbp)
    d5f9:	48 8d 85 b8 f0 ff ff 	lea    -0xf48(%rbp),%rax
    d600:	48 89 85 68 fc ff ff 	mov    %rax,-0x398(%rbp)
    d607:	48 8d 85 b8 f0 ff ff 	lea    -0xf48(%rbp),%rax
    d60e:	48 89 85 70 fc ff ff 	mov    %rax,-0x390(%rbp)
    d615:	48 c7 85 78 fc ff ff 	movq   $0x0,-0x388(%rbp)
    d61c:	00 00 00 00 
    d620:	48 c7 85 80 fc ff ff 	movq   $0x0,-0x380(%rbp)
    d627:	00 00 00 00 
    d62b:	48 8d 85 b8 f0 ff ff 	lea    -0xf48(%rbp),%rax
    d632:	48 89 85 88 fc ff ff 	mov    %rax,-0x378(%rbp)
    d639:	48 8d 85 b8 f0 ff ff 	lea    -0xf48(%rbp),%rax
    d640:	48 89 85 90 fc ff ff 	mov    %rax,-0x370(%rbp)
    d647:	48 c7 85 98 fc ff ff 	movq   $0x0,-0x368(%rbp)
    d64e:	00 00 00 00 
    d652:	48 8d 85 b8 f0 ff ff 	lea    -0xf48(%rbp),%rax
    d659:	48 89 85 a0 fc ff ff 	mov    %rax,-0x360(%rbp)
    d660:	48 8d 85 b8 f0 ff ff 	lea    -0xf48(%rbp),%rax
    d667:	48 89 85 a8 fc ff ff 	mov    %rax,-0x358(%rbp)
    d66e:	48 8d 85 b8 f0 ff ff 	lea    -0xf48(%rbp),%rax
    d675:	48 89 85 b0 fc ff ff 	mov    %rax,-0x350(%rbp)
    d67c:	48 8d 85 b8 f0 ff ff 	lea    -0xf48(%rbp),%rax
    d683:	48 89 85 b8 fc ff ff 	mov    %rax,-0x348(%rbp)
    d68a:	48 8d 85 b8 f0 ff ff 	lea    -0xf48(%rbp),%rax
    d691:	48 89 85 c0 fc ff ff 	mov    %rax,-0x340(%rbp)
    d698:	48 8d 85 b8 f0 ff ff 	lea    -0xf48(%rbp),%rax
    d69f:	48 89 85 c8 fc ff ff 	mov    %rax,-0x338(%rbp)
    d6a6:	48 c7 85 d0 fc ff ff 	movq   $0x0,-0x330(%rbp)
    d6ad:	00 00 00 00 
    d6b1:	48 8d 85 b8 f0 ff ff 	lea    -0xf48(%rbp),%rax
    d6b8:	48 89 85 d8 fc ff ff 	mov    %rax,-0x328(%rbp)
    d6bf:	48 8d 85 b8 f0 ff ff 	lea    -0xf48(%rbp),%rax
    d6c6:	48 89 85 e0 fc ff ff 	mov    %rax,-0x320(%rbp)
    d6cd:	48 8d 85 b8 f0 ff ff 	lea    -0xf48(%rbp),%rax
    d6d4:	48 89 85 e8 fc ff ff 	mov    %rax,-0x318(%rbp)
    d6db:	48 8d 85 b8 f0 ff ff 	lea    -0xf48(%rbp),%rax
    d6e2:	48 89 85 f0 fc ff ff 	mov    %rax,-0x310(%rbp)
    d6e9:	48 8d 85 b8 f0 ff ff 	lea    -0xf48(%rbp),%rax
    d6f0:	48 89 85 f8 fc ff ff 	mov    %rax,-0x308(%rbp)
    d6f7:	48 8d 85 b8 f0 ff ff 	lea    -0xf48(%rbp),%rax
    d6fe:	48 89 85 00 fd ff ff 	mov    %rax,-0x300(%rbp)
    d705:	48 8d 85 b8 f0 ff ff 	lea    -0xf48(%rbp),%rax
    d70c:	48 89 85 08 fd ff ff 	mov    %rax,-0x2f8(%rbp)
    d713:	48 8d 85 b8 f0 ff ff 	lea    -0xf48(%rbp),%rax
    d71a:	48 89 85 10 fd ff ff 	mov    %rax,-0x2f0(%rbp)
    d721:	48 c7 85 18 fd ff ff 	movq   $0x0,-0x2e8(%rbp)
    d728:	00 00 00 00 
    d72c:	48 c7 85 20 fd ff ff 	movq   $0x0,-0x2e0(%rbp)
    d733:	00 00 00 00 
    d737:	48 8d 85 b8 f0 ff ff 	lea    -0xf48(%rbp),%rax
    d73e:	48 89 85 28 fd ff ff 	mov    %rax,-0x2d8(%rbp)
    d745:	48 8d 85 b8 f0 ff ff 	lea    -0xf48(%rbp),%rax
    d74c:	48 89 85 30 fd ff ff 	mov    %rax,-0x2d0(%rbp)
    d753:	48 8d 85 b8 f0 ff ff 	lea    -0xf48(%rbp),%rax
    d75a:	48 89 85 38 fd ff ff 	mov    %rax,-0x2c8(%rbp)
    d761:	48 8d 85 b8 f0 ff ff 	lea    -0xf48(%rbp),%rax
    d768:	48 89 85 40 fd ff ff 	mov    %rax,-0x2c0(%rbp)
    d76f:	48 8d 85 b8 f0 ff ff 	lea    -0xf48(%rbp),%rax
    d776:	48 89 85 48 fd ff ff 	mov    %rax,-0x2b8(%rbp)
    d77d:	48 8d 85 b8 f0 ff ff 	lea    -0xf48(%rbp),%rax
    d784:	48 89 85 50 fd ff ff 	mov    %rax,-0x2b0(%rbp)
    d78b:	48 8d 85 b8 f0 ff ff 	lea    -0xf48(%rbp),%rax
    d792:	48 89 85 58 fd ff ff 	mov    %rax,-0x2a8(%rbp)
    d799:	48 c7 85 60 fd ff ff 	movq   $0x0,-0x2a0(%rbp)
    d7a0:	00 00 00 00 
    d7a4:	48 8d 85 b8 f0 ff ff 	lea    -0xf48(%rbp),%rax
    d7ab:	48 89 85 68 fd ff ff 	mov    %rax,-0x298(%rbp)
    d7b2:	48 c7 85 70 fd ff ff 	movq   $0x0,-0x290(%rbp)
    d7b9:	00 00 00 00 
    d7bd:	48 8d 85 b8 f0 ff ff 	lea    -0xf48(%rbp),%rax
    d7c4:	48 89 85 78 fd ff ff 	mov    %rax,-0x288(%rbp)
    d7cb:	48 8d 85 b8 f0 ff ff 	lea    -0xf48(%rbp),%rax
    d7d2:	48 89 85 80 fd ff ff 	mov    %rax,-0x280(%rbp)
    d7d9:	48 8d 85 b8 f0 ff ff 	lea    -0xf48(%rbp),%rax
    d7e0:	48 89 85 88 fd ff ff 	mov    %rax,-0x278(%rbp)
    d7e7:	48 c7 85 90 fd ff ff 	movq   $0x0,-0x270(%rbp)
    d7ee:	00 00 00 00 
    d7f2:	48 8d 85 b8 f0 ff ff 	lea    -0xf48(%rbp),%rax
    d7f9:	48 89 85 98 fd ff ff 	mov    %rax,-0x268(%rbp)
    d800:	48 8d 85 b8 f0 ff ff 	lea    -0xf48(%rbp),%rax
    d807:	48 89 85 a0 fd ff ff 	mov    %rax,-0x260(%rbp)
    d80e:	48 8d 85 b8 f0 ff ff 	lea    -0xf48(%rbp),%rax
    d815:	48 89 85 a8 fd ff ff 	mov    %rax,-0x258(%rbp)
    d81c:	48 c7 85 b0 fd ff ff 	movq   $0x0,-0x250(%rbp)
    d823:	00 00 00 00 
    d827:	48 c7 85 b8 fd ff ff 	movq   $0x0,-0x248(%rbp)
    d82e:	00 00 00 00 
    d832:	48 8d 85 b8 f0 ff ff 	lea    -0xf48(%rbp),%rax
    d839:	48 89 85 c0 fd ff ff 	mov    %rax,-0x240(%rbp)
    d840:	48 8d 85 b8 f0 ff ff 	lea    -0xf48(%rbp),%rax
    d847:	48 89 85 c8 fd ff ff 	mov    %rax,-0x238(%rbp)
    d84e:	48 c7 85 d0 fd ff ff 	movq   $0x0,-0x230(%rbp)
    d855:	00 00 00 00 
    d859:	48 8d 85 b8 f0 ff ff 	lea    -0xf48(%rbp),%rax
    d860:	48 89 85 d8 fd ff ff 	mov    %rax,-0x228(%rbp)
    d867:	48 8d 85 b8 f0 ff ff 	lea    -0xf48(%rbp),%rax
    d86e:	48 89 85 e0 fd ff ff 	mov    %rax,-0x220(%rbp)
    d875:	48 8d 85 b8 f0 ff ff 	lea    -0xf48(%rbp),%rax
    d87c:	48 89 85 e8 fd ff ff 	mov    %rax,-0x218(%rbp)
    d883:	48 c7 85 f0 fd ff ff 	movq   $0x0,-0x210(%rbp)
    d88a:	00 00 00 00 
    d88e:	48 8d 85 b8 f0 ff ff 	lea    -0xf48(%rbp),%rax
    d895:	48 89 85 f8 fd ff ff 	mov    %rax,-0x208(%rbp)
    d89c:	48 c7 85 00 fe ff ff 	movq   $0x0,-0x200(%rbp)
    d8a3:	00 00 00 00 
    d8a7:	48 8d 85 b8 f0 ff ff 	lea    -0xf48(%rbp),%rax
    d8ae:	48 89 85 08 fe ff ff 	mov    %rax,-0x1f8(%rbp)
    d8b5:	48 8d 85 b8 f0 ff ff 	lea    -0xf48(%rbp),%rax
    d8bc:	48 89 85 10 fe ff ff 	mov    %rax,-0x1f0(%rbp)
    d8c3:	48 8d 85 b8 f0 ff ff 	lea    -0xf48(%rbp),%rax
    d8ca:	48 89 85 18 fe ff ff 	mov    %rax,-0x1e8(%rbp)
    d8d1:	48 8d 85 b8 f0 ff ff 	lea    -0xf48(%rbp),%rax
    d8d8:	48 89 85 20 fe ff ff 	mov    %rax,-0x1e0(%rbp)
    d8df:	48 8d 85 b8 f0 ff ff 	lea    -0xf48(%rbp),%rax
    d8e6:	48 89 85 28 fe ff ff 	mov    %rax,-0x1d8(%rbp)
    d8ed:	48 8d 85 b8 f0 ff ff 	lea    -0xf48(%rbp),%rax
    d8f4:	48 89 85 30 fe ff ff 	mov    %rax,-0x1d0(%rbp)
    d8fb:	48 8d 85 b8 f0 ff ff 	lea    -0xf48(%rbp),%rax
    d902:	48 89 85 38 fe ff ff 	mov    %rax,-0x1c8(%rbp)
    d909:	48 8d 85 b8 f0 ff ff 	lea    -0xf48(%rbp),%rax
    d910:	48 89 85 40 fe ff ff 	mov    %rax,-0x1c0(%rbp)
    d917:	48 8d 85 b8 f0 ff ff 	lea    -0xf48(%rbp),%rax
    d91e:	48 89 85 48 fe ff ff 	mov    %rax,-0x1b8(%rbp)
    d925:	48 8d 85 b8 f0 ff ff 	lea    -0xf48(%rbp),%rax
    d92c:	48 89 85 50 fe ff ff 	mov    %rax,-0x1b0(%rbp)
    d933:	48 8d 85 b8 f0 ff ff 	lea    -0xf48(%rbp),%rax
    d93a:	48 89 85 58 fe ff ff 	mov    %rax,-0x1a8(%rbp)
    d941:	48 8d 85 b8 f0 ff ff 	lea    -0xf48(%rbp),%rax
    d948:	48 89 85 60 fe ff ff 	mov    %rax,-0x1a0(%rbp)
    d94f:	48 c7 85 68 fe ff ff 	movq   $0x0,-0x198(%rbp)
    d956:	00 00 00 00 
    d95a:	48 8d 85 b8 f0 ff ff 	lea    -0xf48(%rbp),%rax
    d961:	48 89 85 70 fe ff ff 	mov    %rax,-0x190(%rbp)
    d968:	48 8d 85 b8 f0 ff ff 	lea    -0xf48(%rbp),%rax
    d96f:	48 89 85 78 fe ff ff 	mov    %rax,-0x188(%rbp)
    d976:	48 8d 85 b8 f0 ff ff 	lea    -0xf48(%rbp),%rax
    d97d:	48 89 85 80 fe ff ff 	mov    %rax,-0x180(%rbp)
    d984:	48 8d 85 b8 f0 ff ff 	lea    -0xf48(%rbp),%rax
    d98b:	48 89 85 88 fe ff ff 	mov    %rax,-0x178(%rbp)
    d992:	48 8d 85 b8 f0 ff ff 	lea    -0xf48(%rbp),%rax
    d999:	48 89 85 90 fe ff ff 	mov    %rax,-0x170(%rbp)
    d9a0:	48 c7 85 98 fe ff ff 	movq   $0x0,-0x168(%rbp)
    d9a7:	00 00 00 00 
    d9ab:	48 8d 85 b8 f0 ff ff 	lea    -0xf48(%rbp),%rax
    d9b2:	48 89 85 a0 fe ff ff 	mov    %rax,-0x160(%rbp)
    d9b9:	48 8d 85 b8 f0 ff ff 	lea    -0xf48(%rbp),%rax
    d9c0:	48 89 85 a8 fe ff ff 	mov    %rax,-0x158(%rbp)
    d9c7:	48 8d 85 b8 f0 ff ff 	lea    -0xf48(%rbp),%rax
    d9ce:	48 89 85 b0 fe ff ff 	mov    %rax,-0x150(%rbp)
    d9d5:	48 c7 85 b8 fe ff ff 	movq   $0x0,-0x148(%rbp)
    d9dc:	00 00 00 00 
    d9e0:	48 8d 85 b8 f0 ff ff 	lea    -0xf48(%rbp),%rax
    d9e7:	48 89 85 c0 fe ff ff 	mov    %rax,-0x140(%rbp)
    d9ee:	48 8d 85 b8 f0 ff ff 	lea    -0xf48(%rbp),%rax
    d9f5:	48 89 85 c8 fe ff ff 	mov    %rax,-0x138(%rbp)
    d9fc:	48 c7 85 d0 fe ff ff 	movq   $0x0,-0x130(%rbp)
    da03:	00 00 00 00 
    da07:	48 8d 85 b8 f0 ff ff 	lea    -0xf48(%rbp),%rax
    da0e:	48 89 85 d8 fe ff ff 	mov    %rax,-0x128(%rbp)
    da15:	48 8d 85 20 f8 ff ff 	lea    -0x7e0(%rbp),%rax
    da1c:	48 05 90 01 00 00    	add    $0x190,%rax
    da22:	48 89 85 f8 f0 ff ff 	mov    %rax,-0xf08(%rbp)
    da29:	c7 85 80 f2 ff ff 72 	movl   $0x5d37ce72,-0xd80(%rbp)
    da30:	ce 37 5d 
    da33:	c7 85 84 f2 ff ff 72 	movl   $0x5d37ce72,-0xd7c(%rbp)
    da3a:	ce 37 5d 
    da3d:	c7 85 88 f2 ff ff 72 	movl   $0x5d37ce72,-0xd78(%rbp)
    da44:	ce 37 5d 
    da47:	c7 85 8c f2 ff ff 72 	movl   $0x5d37ce72,-0xd74(%rbp)
    da4e:	ce 37 5d 
    da51:	c7 85 90 f2 ff ff 72 	movl   $0x5d37ce72,-0xd70(%rbp)
    da58:	ce 37 5d 
    da5b:	c7 85 94 f2 ff ff 72 	movl   $0x5d37ce72,-0xd6c(%rbp)
    da62:	ce 37 5d 
    da65:	c7 85 98 f2 ff ff 72 	movl   $0x5d37ce72,-0xd68(%rbp)
    da6c:	ce 37 5d 
    da6f:	c7 85 5c f0 ff ff 00 	movl   $0x0,-0xfa4(%rbp)
    da76:	00 00 00 
    da79:	c7 85 88 f0 ff ff 05 	movl   $0x5,-0xf78(%rbp)
    da80:	00 00 00 
    da83:	c6 85 20 f2 ff ff 57 	movb   $0x57,-0xde0(%rbp)
    da8a:	c6 85 21 f2 ff ff f7 	movb   $0xf7,-0xddf(%rbp)
    da91:	c6 85 22 f2 ff ff 57 	movb   $0x57,-0xdde(%rbp)
    da98:	c6 85 23 f2 ff ff f7 	movb   $0xf7,-0xddd(%rbp)
    da9f:	48 8d 85 b0 f0 ff ff 	lea    -0xf50(%rbp),%rax
    daa6:	48 89 85 00 f1 ff ff 	mov    %rax,-0xf00(%rbp)
    daad:	48 8d 05 be 28 01 00 	lea    0x128be(%rip),%rax        # 20372 <g_653>
    dab4:	48 89 85 a0 f3 ff ff 	mov    %rax,-0xc60(%rbp)
    dabb:	48 8d 05 b0 28 01 00 	lea    0x128b0(%rip),%rax        # 20372 <g_653>
    dac2:	48 89 85 a8 f3 ff ff 	mov    %rax,-0xc58(%rbp)
    dac9:	48 8d 05 a2 28 01 00 	lea    0x128a2(%rip),%rax        # 20372 <g_653>
    dad0:	48 89 85 b0 f3 ff ff 	mov    %rax,-0xc50(%rbp)
    dad7:	48 8d 05 94 28 01 00 	lea    0x12894(%rip),%rax        # 20372 <g_653>
    dade:	48 89 85 b8 f3 ff ff 	mov    %rax,-0xc48(%rbp)
    dae5:	48 8d 05 86 28 01 00 	lea    0x12886(%rip),%rax        # 20372 <g_653>
    daec:	48 89 85 c0 f3 ff ff 	mov    %rax,-0xc40(%rbp)
    daf3:	48 8d 05 76 29 01 00 	lea    0x12976(%rip),%rax        # 20470 <g_958>
    dafa:	48 89 85 08 f1 ff ff 	mov    %rax,-0xef8(%rbp)
    db01:	c7 85 38 f0 ff ff 00 	movl   $0x0,-0xfc8(%rbp)
    db08:	00 00 00 
    db0b:	e9 0f 01 00 00       	jmpq   dc1f <func_66+0x29ac>
    db10:	48 8d 85 20 f8 ff ff 	lea    -0x7e0(%rbp),%rax
    db17:	48 05 90 01 00 00    	add    $0x190,%rax
    db1d:	48 89 85 c0 f0 ff ff 	mov    %rax,-0xf40(%rbp)
    db24:	48 8d 85 c0 f0 ff ff 	lea    -0xf40(%rbp),%rax
    db2b:	48 89 85 10 f1 ff ff 	mov    %rax,-0xef0(%rbp)
    db32:	48 8d 85 14 f0 ff ff 	lea    -0xfec(%rbp),%rax
    db39:	48 89 85 18 f1 ff ff 	mov    %rax,-0xee8(%rbp)
    db40:	c7 85 60 f0 ff ff 00 	movl   $0x0,-0xfa0(%rbp)
    db47:	00 00 00 
    db4a:	eb 1e                	jmp    db6a <func_66+0x28f7>
    db4c:	8b 85 60 f0 ff ff    	mov    -0xfa0(%rbp),%eax
    db52:	48 98                	cltq   
    db54:	48 8d 95 40 f0 ff ff 	lea    -0xfc0(%rbp),%rdx
    db5b:	48 89 94 c5 a0 f4 ff 	mov    %rdx,-0xb60(%rbp,%rax,8)
    db62:	ff 
    db63:	83 85 60 f0 ff ff 01 	addl   $0x1,-0xfa0(%rbp)
    db6a:	83 bd 60 f0 ff ff 09 	cmpl   $0x9,-0xfa0(%rbp)
    db71:	7e d9                	jle    db4c <func_66+0x28d9>
    db73:	c7 85 60 f0 ff ff 00 	movl   $0x0,-0xfa0(%rbp)
    db7a:	00 00 00 
    db7d:	eb 1e                	jmp    db9d <func_66+0x292a>
    db7f:	8b 85 60 f0 ff ff    	mov    -0xfa0(%rbp),%eax
    db85:	48 98                	cltq   
    db87:	48 8d 15 1a 28 01 00 	lea    0x1281a(%rip),%rdx        # 203a8 <g_883+0x8>
    db8e:	48 89 94 c5 40 f2 ff 	mov    %rdx,-0xdc0(%rbp,%rax,8)
    db95:	ff 
    db96:	83 85 60 f0 ff ff 01 	addl   $0x1,-0xfa0(%rbp)
    db9d:	83 bd 60 f0 ff ff 01 	cmpl   $0x1,-0xfa0(%rbp)
    dba4:	7e d9                	jle    db7f <func_66+0x290c>
    dba6:	48 8b 85 10 f1 ff ff 	mov    -0xef0(%rbp),%rax
    dbad:	48 8b 95 f8 f0 ff ff 	mov    -0xf08(%rbp),%rdx
    dbb4:	48 89 10             	mov    %rdx,(%rax)
    dbb7:	48 8b 05 22 36 01 00 	mov    0x13622(%rip),%rax        # 211e0 <g_941>
    dbbe:	48 8b 00             	mov    (%rax),%rax
    dbc1:	48 c7 00 00 00 00 00 	movq   $0x0,(%rax)
    dbc8:	83 85 5c f0 ff ff 01 	addl   $0x1,-0xfa4(%rbp)
    dbcf:	8b 85 94 f2 ff ff    	mov    -0xd6c(%rbp),%eax
    dbd5:	89 85 94 f2 ff ff    	mov    %eax,-0xd6c(%rbp)
    dbdb:	8b 85 94 f2 ff ff    	mov    -0xd6c(%rbp),%eax
    dbe1:	98                   	cwtl   
    dbe2:	be 03 00 00 00       	mov    $0x3,%esi
    dbe7:	89 c7                	mov    %eax,%edi
    dbe9:	e8 75 89 ff ff       	callq  6563 <safe_rshift_func_int16_t_s_u>
    dbee:	48 8b 15 4b 32 01 00 	mov    0x1324b(%rip),%rdx        # 20e40 <g_76>
    dbf5:	8b 0a                	mov    (%rdx),%ecx
    dbf7:	0f bf d0             	movswl %ax,%edx
    dbfa:	48 8b 05 3f 32 01 00 	mov    0x1323f(%rip),%rax        # 20e40 <g_76>
    dc01:	21 ca                	and    %ecx,%edx
    dc03:	89 10                	mov    %edx,(%rax)
    dc05:	8b 85 38 f0 ff ff    	mov    -0xfc8(%rbp),%eax
    dc0b:	98                   	cwtl   
    dc0c:	be 09 00 00 00       	mov    $0x9,%esi
    dc11:	89 c7                	mov    %eax,%edi
    dc13:	e8 9b 87 ff ff       	callq  63b3 <safe_add_func_int16_t_s_s>
    dc18:	98                   	cwtl   
    dc19:	89 85 38 f0 ff ff    	mov    %eax,-0xfc8(%rbp)
    dc1f:	8b 85 38 f0 ff ff    	mov    -0xfc8(%rbp),%eax
    dc25:	83 f8 09             	cmp    $0x9,%eax
    dc28:	0f 84 e2 fe ff ff    	je     db10 <func_66+0x289d>
    dc2e:	48 8b 85 d0 ef ff ff 	mov    -0x1030(%rbp),%rax
    dc35:	8b 95 88 f0 ff ff    	mov    -0xf78(%rbp),%edx
    dc3b:	89 10                	mov    %edx,(%rax)
    dc3d:	8b 85 e4 ef ff ff    	mov    -0x101c(%rbp),%eax
    dc43:	0f b7 d8             	movzwl %ax,%ebx
    dc46:	8b 85 f0 f1 ff ff    	mov    -0xe10(%rbp),%eax
    dc4c:	48 63 d0             	movslq %eax,%rdx
    dc4f:	0f b6 85 20 f2 ff ff 	movzbl -0xde0(%rbp),%eax
    dc56:	84 c0                	test   %al,%al
    dc58:	74 11                	je     dc6b <func_66+0x29f8>
    dc5a:	48 8b 8d b0 f0 ff ff 	mov    -0xf50(%rbp),%rcx
    dc61:	48 8b 85 00 f1 ff ff 	mov    -0xf00(%rbp),%rax
    dc68:	48 89 08             	mov    %rcx,(%rax)
    dc6b:	b8 00 00 00 00       	mov    $0x0,%eax
    dc70:	48 98                	cltq   
    dc72:	48 89 d6             	mov    %rdx,%rsi
    dc75:	48 89 c7             	mov    %rax,%rdi
    dc78:	e8 32 94 ff ff       	callq  70af <safe_div_func_uint64_t_u_u>
    dc7d:	c1 e0 02             	shl    $0x2,%eax
    dc80:	c0 f8 02             	sar    $0x2,%al
    dc83:	83 e0 3f             	and    $0x3f,%eax
    dc86:	89 c2                	mov    %eax,%edx
    dc88:	0f b6 85 49 f3 ff ff 	movzbl -0xcb7(%rbp),%eax
    dc8f:	83 e0 c0             	and    $0xffffffc0,%eax
    dc92:	09 d0                	or     %edx,%eax
    dc94:	88 85 49 f3 ff ff    	mov    %al,-0xcb7(%rbp)
    dc9a:	0f b6 85 49 f3 ff ff 	movzbl -0xcb7(%rbp),%eax
    dca1:	c1 e0 02             	shl    $0x2,%eax
    dca4:	c0 f8 02             	sar    $0x2,%al
    dca7:	84 c0                	test   %al,%al
    dca9:	74 1c                	je     dcc7 <func_66+0x2a54>
    dcab:	48 83 bd d8 ef ff ff 	cmpq   $0x0,-0x1028(%rbp)
    dcb2:	00 
    dcb3:	74 12                	je     dcc7 <func_66+0x2a54>
    dcb5:	0f b6 05 09 28 01 00 	movzbl 0x12809(%rip),%eax        # 204c5 <g_1403>
    dcbc:	84 c0                	test   %al,%al
    dcbe:	74 07                	je     dcc7 <func_66+0x2a54>
    dcc0:	b8 01 00 00 00       	mov    $0x1,%eax
    dcc5:	eb 05                	jmp    dccc <func_66+0x2a59>
    dcc7:	b8 00 00 00 00       	mov    $0x0,%eax
    dccc:	48 98                	cltq   
    dcce:	48 39 85 d8 ef ff ff 	cmp    %rax,-0x1028(%rbp)
    dcd5:	0f 94 c0             	sete   %al
    dcd8:	0f b6 c0             	movzbl %al,%eax
    dcdb:	0b 85 e4 ef ff ff    	or     -0x101c(%rbp),%eax
    dce1:	89 c2                	mov    %eax,%edx
    dce3:	8b 85 84 f0 ff ff    	mov    -0xf7c(%rbp),%eax
    dce9:	89 c6                	mov    %eax,%esi
    dceb:	89 d7                	mov    %edx,%edi
    dced:	e8 0d 8a ff ff       	callq  66ff <safe_div_func_int32_t_s_s>
    dcf2:	48 98                	cltq   
    dcf4:	48 33 85 d8 ef ff ff 	xor    -0x1028(%rbp),%rax
    dcfb:	48 89 c2             	mov    %rax,%rdx
    dcfe:	48 8b 85 08 f1 ff ff 	mov    -0xef8(%rbp),%rax
    dd05:	48 89 10             	mov    %rdx,(%rax)
    dd08:	48 8b 85 08 f1 ff ff 	mov    -0xef8(%rbp),%rax
    dd0f:	48 8b 10             	mov    (%rax),%rdx
    dd12:	8b 85 f0 f1 ff ff    	mov    -0xe10(%rbp),%eax
    dd18:	48 98                	cltq   
    dd1a:	48 39 c2             	cmp    %rax,%rdx
    dd1d:	0f 95 c0             	setne  %al
    dd20:	0f b6 d0             	movzbl %al,%edx
    dd23:	8b 85 28 f0 ff ff    	mov    -0xfd8(%rbp),%eax
    dd29:	09 d0                	or     %edx,%eax
    dd2b:	89 85 28 f0 ff ff    	mov    %eax,-0xfd8(%rbp)
    dd31:	8b 85 28 f0 ff ff    	mov    -0xfd8(%rbp),%eax
    dd37:	85 c0                	test   %eax,%eax
    dd39:	78 0a                	js     dd45 <func_66+0x2ad2>
    dd3b:	8b 85 38 f0 ff ff    	mov    -0xfc8(%rbp),%eax
    dd41:	85 c0                	test   %eax,%eax
    dd43:	74 07                	je     dd4c <func_66+0x2ad9>
    dd45:	b8 01 00 00 00       	mov    $0x1,%eax
    dd4a:	eb 05                	jmp    dd51 <func_66+0x2ade>
    dd4c:	b8 00 00 00 00       	mov    $0x0,%eax
    dd51:	89 c2                	mov    %eax,%edx
    dd53:	48 8b 05 fe 30 01 00 	mov    0x130fe(%rip),%rax        # 20e58 <g_580>
    dd5a:	8b 00                	mov    (%rax),%eax
    dd5c:	31 d0                	xor    %edx,%eax
    dd5e:	3d 73 e5 00 00       	cmp    $0xe573,%eax
    dd63:	0f 94 c0             	sete   %al
    dd66:	0f b6 c0             	movzbl %al,%eax
    dd69:	89 de                	mov    %ebx,%esi
    dd6b:	89 c7                	mov    %eax,%edi
    dd6d:	e8 cb 8f ff ff       	callq  6d3d <safe_mul_func_uint16_t_u_u>
    dd72:	66 83 f8 01          	cmp    $0x1,%ax
    dd76:	0f 96 c0             	setbe  %al
    dd79:	0f b6 c0             	movzbl %al,%eax
    dd7c:	48 8b 95 e8 ef ff ff 	mov    -0x1018(%rbp),%rdx
    dd83:	31 d0                	xor    %edx,%eax
    dd85:	83 f0 09             	xor    $0x9,%eax
    dd88:	89 c2                	mov    %eax,%edx
    dd8a:	48 8b 05 af 30 01 00 	mov    0x130af(%rip),%rax        # 20e40 <g_76>
    dd91:	89 10                	mov    %edx,(%rax)
    dd93:	8b 10                	mov    (%rax),%edx
    dd95:	48 8b 85 d0 ef ff ff 	mov    -0x1030(%rbp),%rax
    dd9c:	89 10                	mov    %edx,(%rax)
    dd9e:	48 8b 85 d0 ef ff ff 	mov    -0x1030(%rbp),%rax
    dda5:	8b 10                	mov    (%rax),%edx
    dda7:	8b 85 3c f0 ff ff    	mov    -0xfc4(%rbp),%eax
    ddad:	09 d0                	or     %edx,%eax
    ddaf:	89 85 3c f0 ff ff    	mov    %eax,-0xfc4(%rbp)
    ddb5:	c7 05 e9 26 01 00 00 	movl   $0x0,0x126e9(%rip)        # 204a8 <g_1068>
    ddbc:	00 00 00 
    ddbf:	e9 69 14 00 00       	jmpq   f22d <func_66+0x3fba>
    ddc4:	48 c7 85 50 f1 ff ff 	movq   $0xfffffffffffffff6,-0xeb0(%rbp)
    ddcb:	f6 ff ff ff 
    ddcf:	c6 85 01 f0 ff ff 01 	movb   $0x1,-0xfff(%rbp)
    ddd6:	c6 85 48 f0 ff ff 09 	movb   $0x9,-0xfb8(%rbp)
    dddd:	0f b6 85 49 f0 ff ff 	movzbl -0xfb7(%rbp),%eax
    dde4:	83 e0 c0             	and    $0xffffffc0,%eax
    dde7:	83 c8 06             	or     $0x6,%eax
    ddea:	88 85 49 f0 ff ff    	mov    %al,-0xfb7(%rbp)
    ddf0:	c7 85 64 f0 ff ff 00 	movl   $0x0,-0xf9c(%rbp)
    ddf7:	00 00 00 
    ddfa:	eb 50                	jmp    de4c <func_66+0x2bd9>
    ddfc:	c7 85 68 f0 ff ff 00 	movl   $0x0,-0xf98(%rbp)
    de03:	00 00 00 
    de06:	eb 34                	jmp    de3c <func_66+0x2bc9>
    de08:	8b 85 68 f0 ff ff    	mov    -0xf98(%rbp),%eax
    de0e:	48 63 c8             	movslq %eax,%rcx
    de11:	8b 85 64 f0 ff ff    	mov    -0xf9c(%rbp),%eax
    de17:	48 63 d0             	movslq %eax,%rdx
    de1a:	48 89 d0             	mov    %rdx,%rax
    de1d:	48 c1 e0 02          	shl    $0x2,%rax
    de21:	48 01 d0             	add    %rdx,%rax
    de24:	48 01 c0             	add    %rax,%rax
    de27:	48 01 c8             	add    %rcx,%rax
    de2a:	c7 84 85 a0 f3 ff ff 	movl   $0x66001f95,-0xc60(%rbp,%rax,4)
    de31:	95 1f 00 66 
    de35:	83 85 68 f0 ff ff 01 	addl   $0x1,-0xf98(%rbp)
    de3c:	83 bd 68 f0 ff ff 09 	cmpl   $0x9,-0xf98(%rbp)
    de43:	7e c3                	jle    de08 <func_66+0x2b95>
    de45:	83 85 64 f0 ff ff 01 	addl   $0x1,-0xf9c(%rbp)
    de4c:	83 bd 64 f0 ff ff 00 	cmpl   $0x0,-0xf9c(%rbp)
    de53:	7e a7                	jle    ddfc <func_66+0x2b89>
    de55:	8b 05 4d 26 01 00    	mov    0x1264d(%rip),%eax        # 204a8 <g_1068>
    de5b:	89 c0                	mov    %eax,%eax
    de5d:	8b 94 85 e0 f1 ff ff 	mov    -0xe20(%rbp,%rax,4),%edx
    de64:	0f b6 85 48 f3 ff ff 	movzbl -0xcb8(%rbp),%eax
    de6b:	0f b6 c0             	movzbl %al,%eax
    de6e:	8b 0d 34 26 01 00    	mov    0x12634(%rip),%ecx        # 204a8 <g_1068>
    de74:	21 d0                	and    %edx,%eax
    de76:	89 ca                	mov    %ecx,%edx
    de78:	89 84 95 e0 f1 ff ff 	mov    %eax,-0xe20(%rbp,%rdx,4)
    de7f:	66 c7 05 e8 24 01 00 	movw   $0x0,0x124e8(%rip)        # 20370 <g_597>
    de86:	00 00 
    de88:	90                   	nop
    de89:	0f b7 05 e0 24 01 00 	movzwl 0x124e0(%rip),%eax        # 20370 <g_597>
    de90:	66 83 f8 03          	cmp    $0x3,%ax
    de94:	0f 8f 84 12 00 00    	jg     f11e <func_66+0x3eab>
    de9a:	48 b8 20 e5 59 b0 b4 	movabs $0x4ced0eb4b059e520,%rax
    dea1:	0e ed 4c 
    dea4:	48 89 85 58 f1 ff ff 	mov    %rax,-0xea8(%rbp)
    deab:	48 8d 05 96 24 01 00 	lea    0x12496(%rip),%rax        # 20348 <g_355>
    deb2:	48 89 85 60 f1 ff ff 	mov    %rax,-0xea0(%rbp)
    deb9:	c7 85 40 f2 ff ff 94 	movl   $0x1afe4994,-0xdc0(%rbp)
    dec0:	49 fe 1a 
    dec3:	c7 85 44 f2 ff ff 94 	movl   $0x1afe4994,-0xdbc(%rbp)
    deca:	49 fe 1a 
    decd:	c7 85 48 f2 ff ff 94 	movl   $0x1afe4994,-0xdb8(%rbp)
    ded4:	49 fe 1a 
    ded7:	c7 85 4c f2 ff ff 94 	movl   $0x1afe4994,-0xdb4(%rbp)
    dede:	49 fe 1a 
    dee1:	c7 85 50 f2 ff ff 94 	movl   $0x1afe4994,-0xdb0(%rbp)
    dee8:	49 fe 1a 
    deeb:	48 8d 05 3e 24 01 00 	lea    0x1243e(%rip),%rax        # 20330 <g_154>
    def2:	48 89 85 68 f1 ff ff 	mov    %rax,-0xe98(%rbp)
    def9:	c7 85 80 f2 ff ff ed 	movl   $0x28cfceed,-0xd80(%rbp)
    df00:	ce cf 28 
    df03:	c7 85 84 f2 ff ff ed 	movl   $0x28cfceed,-0xd7c(%rbp)
    df0a:	ce cf 28 
    df0d:	c7 85 88 f2 ff ff ed 	movl   $0x28cfceed,-0xd78(%rbp)
    df14:	ce cf 28 
    df17:	c7 85 8c f2 ff ff ed 	movl   $0x28cfceed,-0xd74(%rbp)
    df1e:	ce cf 28 
    df21:	c7 85 90 f2 ff ff ed 	movl   $0x28cfceed,-0xd70(%rbp)
    df28:	ce cf 28 
    df2b:	c7 85 94 f2 ff ff ed 	movl   $0x28cfceed,-0xd6c(%rbp)
    df32:	ce cf 28 
    df35:	c7 85 98 f2 ff ff ed 	movl   $0x28cfceed,-0xd68(%rbp)
    df3c:	ce cf 28 
    df3f:	c7 85 9c f2 ff ff ed 	movl   $0x28cfceed,-0xd64(%rbp)
    df46:	ce cf 28 
    df49:	c7 85 a0 f2 ff ff ed 	movl   $0x28cfceed,-0xd60(%rbp)
    df50:	ce cf 28 
    df53:	c7 85 6c f0 ff ff f7 	movl   $0xfffffff7,-0xf94(%rbp)
    df5a:	ff ff ff 
    df5d:	c7 85 70 f0 ff ff 00 	movl   $0x0,-0xf90(%rbp)
    df64:	00 00 00 
    df67:	eb 1e                	jmp    df87 <func_66+0x2d14>
    df69:	8b 85 70 f0 ff ff    	mov    -0xf90(%rbp),%eax
    df6f:	48 98                	cltq   
    df71:	48 8d 15 54 22 01 00 	lea    0x12254(%rip),%rdx        # 201cc <g_43>
    df78:	48 89 94 c5 a0 f4 ff 	mov    %rdx,-0xb60(%rbp,%rax,8)
    df7f:	ff 
    df80:	83 85 70 f0 ff ff 01 	addl   $0x1,-0xf90(%rbp)
    df87:	83 bd 70 f0 ff ff 06 	cmpl   $0x6,-0xf90(%rbp)
    df8e:	7e d9                	jle    df69 <func_66+0x2cf6>
    df90:	8b 85 d4 f1 ff ff    	mov    -0xe2c(%rbp),%eax
    df96:	48 63 d0             	movslq %eax,%rdx
    df99:	48 8b 85 d8 ef ff ff 	mov    -0x1028(%rbp),%rax
    dfa0:	48 89 d6             	mov    %rdx,%rsi
    dfa3:	48 89 c7             	mov    %rax,%rdi
    dfa6:	e8 d5 90 ff ff       	callq  7080 <safe_mod_func_uint64_t_u_u>
    dfab:	0f be c0             	movsbl %al,%eax
    dfae:	be 02 00 00 00       	mov    $0x2,%esi
    dfb3:	89 c7                	mov    %eax,%edi
    dfb5:	e8 b2 83 ff ff       	callq  636c <safe_rshift_func_int8_t_s_u>
    dfba:	48 0f be d8          	movsbq %al,%rbx
    dfbe:	48 83 bd 58 f1 ff ff 	cmpq   $0x1,-0xea8(%rbp)
    dfc5:	01 
    dfc6:	0f 95 c0             	setne  %al
    dfc9:	0f b6 c0             	movzbl %al,%eax
    dfcc:	be 0d 00 00 00       	mov    $0xd,%esi
    dfd1:	89 c7                	mov    %eax,%edi
    dfd3:	e8 70 8e ff ff       	callq  6e48 <safe_rshift_func_uint16_t_u_s>
    dfd8:	0f b7 d0             	movzwl %ax,%edx
    dfdb:	48 8b 85 60 f1 ff ff 	mov    -0xea0(%rbp),%rax
    dfe2:	48 89 10             	mov    %rdx,(%rax)
    dfe5:	48 8b 85 60 f1 ff ff 	mov    -0xea0(%rbp),%rax
    dfec:	48 8b 00             	mov    (%rax),%rax
    dfef:	48 21 d8             	and    %rbx,%rax
    dff2:	48 89 c7             	mov    %rax,%rdi
    dff5:	e8 1c 88 ff ff       	callq  6816 <safe_unary_minus_func_int64_t_s>
    dffa:	8b 05 b0 24 01 00    	mov    0x124b0(%rip),%eax        # 204b0 <g_1166>
    e000:	0f b7 d8             	movzwl %ax,%ebx
    e003:	8b 85 48 f2 ff ff    	mov    -0xdb8(%rbp),%eax
    e009:	44 0f b7 e0          	movzwl %ax,%r12d
    e00d:	8b 05 95 24 01 00    	mov    0x12495(%rip),%eax        # 204a8 <g_1068>
    e013:	89 c0                	mov    %eax,%eax
    e015:	8b 84 85 e0 f1 ff ff 	mov    -0xe20(%rbp,%rax,4),%eax
    e01c:	0f b6 c0             	movzbl %al,%eax
    e01f:	be 01 00 00 00       	mov    $0x1,%esi
    e024:	89 c7                	mov    %eax,%edi
    e026:	e8 68 8b ff ff       	callq  6b93 <safe_mul_func_uint8_t_u_u>
    e02b:	8b 85 e4 ef ff ff    	mov    -0x101c(%rbp),%eax
    e031:	89 c2                	mov    %eax,%edx
    e033:	48 8b 85 e8 f0 ff ff 	mov    -0xf18(%rbp),%rax
    e03a:	88 10                	mov    %dl,(%rax)
    e03c:	48 8b 85 e8 f0 ff ff 	mov    -0xf18(%rbp),%rax
    e043:	0f b6 00             	movzbl (%rax),%eax
    e046:	0f be c0             	movsbl %al,%eax
    e049:	39 85 84 f0 ff ff    	cmp    %eax,-0xf7c(%rbp)
    e04f:	0f 94 c0             	sete   %al
    e052:	0f b6 c0             	movzbl %al,%eax
    e055:	48 8b 95 58 f1 ff ff 	mov    -0xea8(%rbp),%rdx
    e05c:	48 89 d6             	mov    %rdx,%rsi
    e05f:	48 89 c7             	mov    %rax,%rdi
    e062:	e8 90 89 ff ff       	callq  69f7 <safe_div_func_int64_t_s_s>
    e067:	8b 95 e4 ef ff ff    	mov    -0x101c(%rbp),%edx
    e06d:	48 21 d0             	and    %rdx,%rax
    e070:	48 85 c0             	test   %rax,%rax
    e073:	74 11                	je     e086 <func_66+0x2e13>
    e075:	8b 85 34 f0 ff ff    	mov    -0xfcc(%rbp),%eax
    e07b:	85 c0                	test   %eax,%eax
    e07d:	74 07                	je     e086 <func_66+0x2e13>
    e07f:	b8 01 00 00 00       	mov    $0x1,%eax
    e084:	eb 05                	jmp    e08b <func_66+0x2e18>
    e086:	b8 00 00 00 00       	mov    $0x0,%eax
    e08b:	0f b7 c0             	movzwl %ax,%eax
    e08e:	44 89 e6             	mov    %r12d,%esi
    e091:	89 c7                	mov    %eax,%edi
    e093:	e8 67 8c ff ff       	callq  6cff <safe_add_func_uint16_t_u_u>
    e098:	bf e6 7b 27 94       	mov    $0x94277be6,%edi
    e09d:	e8 f4 84 ff ff       	callq  6596 <safe_unary_minus_func_int32_t_s>
    e0a2:	89 de                	mov    %ebx,%esi
    e0a4:	bf 00 00 00 00       	mov    $0x0,%edi
    e0a9:	e8 e0 8c ff ff       	callq  6d8e <safe_div_func_uint16_t_u_u>
    e0ae:	66 85 c0             	test   %ax,%ax
    e0b1:	74 11                	je     e0c4 <func_66+0x2e51>
    e0b3:	8b 85 e0 f1 ff ff    	mov    -0xe20(%rbp),%eax
    e0b9:	85 c0                	test   %eax,%eax
    e0bb:	74 07                	je     e0c4 <func_66+0x2e51>
    e0bd:	b8 01 00 00 00       	mov    $0x1,%eax
    e0c2:	eb 05                	jmp    e0c9 <func_66+0x2e56>
    e0c4:	b8 00 00 00 00       	mov    $0x0,%eax
    e0c9:	39 85 e4 ef ff ff    	cmp    %eax,-0x101c(%rbp)
    e0cf:	0f 97 c0             	seta   %al
    e0d2:	0f b6 c0             	movzbl %al,%eax
    e0d5:	f7 d0                	not    %eax
    e0d7:	89 c2                	mov    %eax,%edx
    e0d9:	8b 05 c9 23 01 00    	mov    0x123c9(%rip),%eax        # 204a8 <g_1068>
    e0df:	89 c0                	mov    %eax,%eax
    e0e1:	8b 8c 85 e0 f1 ff ff 	mov    -0xe20(%rbp,%rax,4),%ecx
    e0e8:	8b 85 20 f0 ff ff    	mov    -0xfe0(%rbp),%eax
    e0ee:	39 c1                	cmp    %eax,%ecx
    e0f0:	0f 9f c0             	setg   %al
    e0f3:	0f b6 c0             	movzbl %al,%eax
    e0f6:	89 d6                	mov    %edx,%esi
    e0f8:	89 c7                	mov    %eax,%edi
    e0fa:	e8 00 86 ff ff       	callq  66ff <safe_div_func_int32_t_s_s>
    e0ff:	48 8b 95 68 f1 ff ff 	mov    -0xe98(%rbp),%rdx
    e106:	48 8b 12             	mov    (%rdx),%rdx
    e109:	48 98                	cltq   
    e10b:	48 31 c2             	xor    %rax,%rdx
    e10e:	48 8b 85 68 f1 ff ff 	mov    -0xe98(%rbp),%rax
    e115:	48 89 10             	mov    %rdx,(%rax)
    e118:	48 8b 85 68 f1 ff ff 	mov    -0xe98(%rbp),%rax
    e11f:	48 8b 00             	mov    (%rax),%rax
    e122:	48 ba 27 68 da 69 d1 	movabs $0x881d5fd169da6827,%rdx
    e129:	5f 1d 88 
    e12c:	48 39 d0             	cmp    %rdx,%rax
    e12f:	0f 95 c0             	setne  %al
    e132:	0f b6 d0             	movzbl %al,%edx
    e135:	0f b7 85 e0 ef ff ff 	movzwl -0x1020(%rbp),%eax
    e13c:	39 c2                	cmp    %eax,%edx
    e13e:	0f 9c c2             	setl   %dl
    e141:	48 8b 05 f8 2c 01 00 	mov    0x12cf8(%rip),%rax        # 20e40 <g_76>
    e148:	0f b6 d2             	movzbl %dl,%edx
    e14b:	89 10                	mov    %edx,(%rax)
    e14d:	66 c7 85 e0 ef ff ff 	movw   $0x0,-0x1020(%rbp)
    e154:	00 00 
    e156:	e9 71 0f 00 00       	jmpq   f0cc <func_66+0x3e59>
    e15b:	48 8d 05 0e 2d 01 00 	lea    0x12d0e(%rip),%rax        # 20e70 <g_695>
    e162:	48 89 85 c0 f0 ff ff 	mov    %rax,-0xf40(%rbp)
    e169:	48 8d 85 c0 f0 ff ff 	lea    -0xf40(%rbp),%rax
    e170:	48 89 85 70 f1 ff ff 	mov    %rax,-0xe90(%rbp)
    e177:	c7 85 9c f0 ff ff d9 	movl   $0x219de6d9,-0xf64(%rbp)
    e17e:	e6 9d 21 
    e181:	c7 85 b8 f0 ff ff 09 	movl   $0x9,-0xf48(%rbp)
    e188:	00 00 00 
    e18b:	c7 85 a0 f0 ff ff 01 	movl   $0x1,-0xf60(%rbp)
    e192:	00 00 00 
    e195:	c7 85 a4 f0 ff ff 0f 	movl   $0xd375d30f,-0xf5c(%rbp)
    e19c:	d3 75 d3 
    e19f:	66 c7 85 c4 f1 ff ff 	movw   $0x101,-0xe3c(%rbp)
    e1a6:	01 01 
    e1a8:	66 c7 85 c6 f1 ff ff 	movw   $0x101,-0xe3a(%rbp)
    e1af:	01 01 
    e1b1:	66 c7 85 c8 f1 ff ff 	movw   $0x101,-0xe38(%rbp)
    e1b8:	01 01 
    e1ba:	66 c7 85 ca f1 ff ff 	movw   $0x101,-0xe36(%rbp)
    e1c1:	01 01 
    e1c3:	66 c7 85 cc f1 ff ff 	movw   $0x101,-0xe34(%rbp)
    e1ca:	01 01 
    e1cc:	66 c7 85 ce f1 ff ff 	movw   $0x101,-0xe32(%rbp)
    e1d3:	01 01 
    e1d5:	48 8d 05 6c 21 01 00 	lea    0x1216c(%rip),%rax        # 20348 <g_355>
    e1dc:	48 89 85 78 f1 ff ff 	mov    %rax,-0xe88(%rbp)
    e1e3:	c7 85 a8 f0 ff ff 05 	movl   $0x5,-0xf58(%rbp)
    e1ea:	00 00 00 
    e1ed:	c7 85 ac f0 ff ff 40 	movl   $0xa07cf540,-0xf54(%rbp)
    e1f4:	f5 7c a0 
    e1f7:	c7 85 74 f0 ff ff 00 	movl   $0x0,-0xf8c(%rbp)
    e1fe:	00 00 00 
    e201:	eb 1e                	jmp    e221 <func_66+0x2fae>
    e203:	8b 85 74 f0 ff ff    	mov    -0xf8c(%rbp),%eax
    e209:	48 98                	cltq   
    e20b:	48 8d 95 b8 f0 ff ff 	lea    -0xf48(%rbp),%rdx
    e212:	48 89 94 c5 20 f2 ff 	mov    %rdx,-0xde0(%rbp,%rax,8)
    e219:	ff 
    e21a:	83 85 74 f0 ff ff 01 	addl   $0x1,-0xf8c(%rbp)
    e221:	83 bd 74 f0 ff ff 01 	cmpl   $0x1,-0xf8c(%rbp)
    e228:	7e d9                	jle    e203 <func_66+0x2f90>
    e22a:	c7 85 4c f0 ff ff 00 	movl   $0x0,-0xfb4(%rbp)
    e231:	00 00 00 
    e234:	eb 50                	jmp    e286 <func_66+0x3013>
    e236:	8b 85 34 f0 ff ff    	mov    -0xfcc(%rbp),%eax
    e23c:	85 c0                	test   %eax,%eax
    e23e:	74 05                	je     e245 <func_66+0x2fd2>
    e240:	e9 36 d7 ff ff       	jmpq   b97b <func_66+0x708>
    e245:	8b 85 48 f2 ff ff    	mov    -0xdb8(%rbp),%eax
    e24b:	89 c0                	mov    %eax,%eax
    e24d:	48 39 85 e8 ef ff ff 	cmp    %rax,-0x1018(%rbp)
    e254:	0f 93 c0             	setae  %al
    e257:	0f b6 c0             	movzbl %al,%eax
    e25a:	89 c7                	mov    %eax,%edi
    e25c:	e8 e4 88 ff ff       	callq  6b45 <safe_unary_minus_func_uint8_t_u>
    e261:	0f b6 d0             	movzbl %al,%edx
    e264:	0f b6 05 5b 22 01 00 	movzbl 0x1225b(%rip),%eax        # 204c6 <g_1433>
    e26b:	0f be c0             	movsbl %al,%eax
    e26e:	39 c2                	cmp    %eax,%edx
    e270:	0f 9d c2             	setge  %dl
    e273:	48 8b 05 c6 2b 01 00 	mov    0x12bc6(%rip),%rax        # 20e40 <g_76>
    e27a:	0f b6 d2             	movzbl %dl,%edx
    e27d:	89 10                	mov    %edx,(%rax)
    e27f:	83 85 4c f0 ff ff 01 	addl   $0x1,-0xfb4(%rbp)
    e286:	83 bd 4c f0 ff ff 03 	cmpl   $0x3,-0xfb4(%rbp)
    e28d:	7e a7                	jle    e236 <func_66+0x2fc3>
    e28f:	0f b7 9d e0 ef ff ff 	movzwl -0x1020(%rbp),%ebx
    e296:	44 8b a5 10 f2 ff ff 	mov    -0xdf0(%rbp),%r12d
    e29d:	8b 05 05 22 01 00    	mov    0x12205(%rip),%eax        # 204a8 <g_1068>
    e2a3:	89 c0                	mov    %eax,%eax
    e2a5:	8b 84 85 e0 f1 ff ff 	mov    -0xe20(%rbp,%rax,4),%eax
    e2ac:	0f b7 d0             	movzwl %ax,%edx
    e2af:	48 8b 8d c0 f0 ff ff 	mov    -0xf40(%rbp),%rcx
    e2b6:	48 8b 85 70 f1 ff ff 	mov    -0xe90(%rbp),%rax
    e2bd:	48 89 08             	mov    %rcx,(%rax)
    e2c0:	48 8b 85 70 f1 ff ff 	mov    -0xe90(%rbp),%rax
    e2c7:	48 8b 00             	mov    (%rax),%rax
    e2ca:	48 39 85 e0 f0 ff ff 	cmp    %rax,-0xf20(%rbp)
    e2d1:	0f 94 c0             	sete   %al
    e2d4:	0f b6 c0             	movzbl %al,%eax
    e2d7:	89 d6                	mov    %edx,%esi
    e2d9:	89 c7                	mov    %eax,%edi
    e2db:	e8 7c 8a ff ff       	callq  6d5c <safe_mod_func_uint16_t_u_u>
    e2e0:	0f be d0             	movsbl %al,%edx
    e2e3:	8b 05 bb 21 01 00    	mov    0x121bb(%rip),%eax        # 204a4 <g_988>
    e2e9:	89 c1                	mov    %eax,%ecx
    e2eb:	48 8b 85 e8 f0 ff ff 	mov    -0xf18(%rbp),%rax
    e2f2:	88 08                	mov    %cl,(%rax)
    e2f4:	48 8b 85 e8 f0 ff ff 	mov    -0xf18(%rbp),%rax
    e2fb:	0f b6 00             	movzbl (%rax),%eax
    e2fe:	0f be c0             	movsbl %al,%eax
    e301:	89 d6                	mov    %edx,%esi
    e303:	89 c7                	mov    %eax,%edi
    e305:	e8 e8 7e ff ff       	callq  61f2 <safe_sub_func_int8_t_s_s>
    e30a:	44 89 e6             	mov    %r12d,%esi
    e30d:	bf 01 00 00 00       	mov    $0x1,%edi
    e312:	e8 ee 88 ff ff       	callq  6c05 <safe_lshift_func_uint8_t_u_s>
    e317:	0f b6 c0             	movzbl %al,%eax
    e31a:	39 85 e4 ef ff ff    	cmp    %eax,-0x101c(%rbp)
    e320:	75 11                	jne    e333 <func_66+0x30c0>
    e322:	48 83 bd 58 f1 ff ff 	cmpq   $0x0,-0xea8(%rbp)
    e329:	00 
    e32a:	74 07                	je     e333 <func_66+0x30c0>
    e32c:	b8 01 00 00 00       	mov    $0x1,%eax
    e331:	eb 05                	jmp    e338 <func_66+0x30c5>
    e333:	b8 00 00 00 00       	mov    $0x0,%eax
    e338:	83 f8 04             	cmp    $0x4,%eax
    e33b:	48 8b 85 f0 f0 ff ff 	mov    -0xf10(%rbp),%rax
    e342:	98                   	cwtl   
    e343:	be 02 00 00 00       	mov    $0x2,%esi
    e348:	89 c7                	mov    %eax,%edi
    e34a:	e8 84 80 ff ff       	callq  63d3 <safe_sub_func_int16_t_s_s>
    e34f:	0f bf d0             	movswl %ax,%edx
    e352:	8b 85 2c f0 ff ff    	mov    -0xfd4(%rbp),%eax
    e358:	39 c2                	cmp    %eax,%edx
    e35a:	0f 9e c0             	setle  %al
    e35d:	0f b6 c0             	movzbl %al,%eax
    e360:	48 39 85 d8 ef ff ff 	cmp    %rax,-0x1028(%rbp)
    e367:	0f 96 c0             	setbe  %al
    e36a:	0f b6 d0             	movzbl %al,%edx
    e36d:	48 8b 85 d0 ef ff ff 	mov    -0x1030(%rbp),%rax
    e374:	89 10                	mov    %edx,(%rax)
    e376:	8b 15 38 21 01 00    	mov    0x12138(%rip),%edx        # 204b4 <g_1226>
    e37c:	b8 de e5 ff ff       	mov    $0xffffe5de,%eax
    e381:	98                   	cwtl   
    e382:	39 c2                	cmp    %eax,%edx
    e384:	0f 93 c0             	setae  %al
    e387:	0f b6 c0             	movzbl %al,%eax
    e38a:	89 c6                	mov    %eax,%esi
    e38c:	bf 00 00 00 00       	mov    $0x0,%edi
    e391:	e8 89 89 ff ff       	callq  6d1f <safe_sub_func_uint16_t_u_u>
    e396:	0f b7 c0             	movzwl %ax,%eax
    e399:	89 de                	mov    %ebx,%esi
    e39b:	89 c7                	mov    %eax,%edi
    e39d:	e8 d8 8a ff ff       	callq  6e7a <safe_rshift_func_uint16_t_u_u>
    e3a2:	66 85 c0             	test   %ax,%ax
    e3a5:	74 1c                	je     e3c3 <func_66+0x3150>
    e3a7:	8b 05 fb 20 01 00    	mov    0x120fb(%rip),%eax        # 204a8 <g_1068>
    e3ad:	89 c0                	mov    %eax,%eax
    e3af:	8b 84 85 e0 f1 ff ff 	mov    -0xe20(%rbp,%rax,4),%eax
    e3b6:	85 c0                	test   %eax,%eax
    e3b8:	0f 84 1b 01 00 00    	je     e4d9 <func_66+0x3266>
    e3be:	e9 17 0d 00 00       	jmpq   f0da <func_66+0x3e67>
    e3c3:	66 c7 85 0c f0 ff ff 	movw   $0xffff,-0xff4(%rbp)
    e3ca:	ff ff 
    e3cc:	48 8d 05 d9 20 01 00 	lea    0x120d9(%rip),%rax        # 204ac <g_1139>
    e3d3:	48 89 85 80 f1 ff ff 	mov    %rax,-0xe80(%rbp)
    e3da:	48 c7 85 88 f1 ff ff 	movq   $0x0,-0xe78(%rbp)
    e3e1:	00 00 00 00 
    e3e5:	48 8d 85 10 f0 ff ff 	lea    -0xff0(%rbp),%rax
    e3ec:	48 89 85 20 f8 ff ff 	mov    %rax,-0x7e0(%rbp)
    e3f3:	48 8d 85 10 f0 ff ff 	lea    -0xff0(%rbp),%rax
    e3fa:	48 89 85 28 f8 ff ff 	mov    %rax,-0x7d8(%rbp)
    e401:	48 8d 85 10 f0 ff ff 	lea    -0xff0(%rbp),%rax
    e408:	48 89 85 30 f8 ff ff 	mov    %rax,-0x7d0(%rbp)
    e40f:	48 8d 85 10 f0 ff ff 	lea    -0xff0(%rbp),%rax
    e416:	48 89 85 38 f8 ff ff 	mov    %rax,-0x7c8(%rbp)
    e41d:	48 8d 85 10 f0 ff ff 	lea    -0xff0(%rbp),%rax
    e424:	48 89 85 40 f8 ff ff 	mov    %rax,-0x7c0(%rbp)
    e42b:	8b 85 e4 ef ff ff    	mov    -0x101c(%rbp),%eax
    e431:	0f b6 d0             	movzbl %al,%edx
    e434:	8b 85 9c f0 ff ff    	mov    -0xf64(%rbp),%eax
    e43a:	0f b6 c0             	movzbl %al,%eax
    e43d:	89 d6                	mov    %edx,%esi
    e43f:	89 c7                	mov    %eax,%edi
    e441:	e8 14 87 ff ff       	callq  6b5a <safe_add_func_uint8_t_u_u>
    e446:	0f b6 d0             	movzbl %al,%edx
    e449:	48 8b 85 b8 f4 ff ff 	mov    -0xb48(%rbp),%rax
    e450:	48 39 85 d0 f0 ff ff 	cmp    %rax,-0xf30(%rbp)
    e457:	0f 94 c0             	sete   %al
    e45a:	0f b6 c0             	movzbl %al,%eax
    e45d:	89 d6                	mov    %edx,%esi
    e45f:	89 c7                	mov    %eax,%edi
    e461:	e8 58 89 ff ff       	callq  6dbe <safe_lshift_func_uint16_t_u_s>
    e466:	48 8b 95 d0 ef ff ff 	mov    -0x1030(%rbp),%rdx
    e46d:	8b 12                	mov    (%rdx),%edx
    e46f:	0f b7 c0             	movzwl %ax,%eax
    e472:	31 c2                	xor    %eax,%edx
    e474:	48 8b 85 d0 ef ff ff 	mov    -0x1030(%rbp),%rax
    e47b:	89 10                	mov    %edx,(%rax)
    e47d:	48 8b 9d e8 ef ff ff 	mov    -0x1018(%rbp),%rbx
    e484:	66 83 bd 0c f0 ff ff 	cmpw   $0x0,-0xff4(%rbp)
    e48b:	00 
    e48c:	0f 95 c0             	setne  %al
    e48f:	0f b6 c0             	movzbl %al,%eax
    e492:	48 89 c6             	mov    %rax,%rsi
    e495:	bf 01 00 00 00       	mov    $0x1,%edi
    e49a:	e8 ac 8b ff ff       	callq  704b <safe_sub_func_uint64_t_u_u>
    e49f:	48 89 de             	mov    %rbx,%rsi
    e4a2:	48 c7 c7 ff ff ff ff 	mov    $0xffffffffffffffff,%rdi
    e4a9:	e8 49 85 ff ff       	callq  69f7 <safe_div_func_int64_t_s_s>
    e4ae:	be 08 00 00 00       	mov    $0x8,%esi
    e4b3:	89 c7                	mov    %eax,%edi
    e4b5:	e8 45 82 ff ff       	callq  66ff <safe_div_func_int32_t_s_s>
    e4ba:	48 8b 95 d0 ef ff ff 	mov    -0x1030(%rbp),%rdx
    e4c1:	89 02                	mov    %eax,(%rdx)
    e4c3:	66 83 bd 0c f0 ff ff 	cmpw   $0x0,-0xff4(%rbp)
    e4ca:	00 
    e4cb:	0f 85 f3 0b 00 00    	jne    f0c4 <func_66+0x3e51>
    e4d1:	66 83 85 02 f0 ff ff 	addw   $0x1,-0xffe(%rbp)
    e4d8:	01 
    e4d9:	8b 85 1c f0 ff ff    	mov    -0xfe4(%rbp),%eax
    e4df:	85 c0                	test   %eax,%eax
    e4e1:	0f 84 50 0b 00 00    	je     f037 <func_66+0x3dc4>
    e4e7:	48 8d 85 40 f0 ff ff 	lea    -0xfc0(%rbp),%rax
    e4ee:	48 89 85 a0 f1 ff ff 	mov    %rax,-0xe60(%rbp)
    e4f5:	48 c7 85 a8 f1 ff ff 	movq   $0x0,-0xe58(%rbp)
    e4fc:	00 00 00 00 
    e500:	48 c7 85 b0 f1 ff ff 	movq   $0x0,-0xe50(%rbp)
    e507:	00 00 00 00 
    e50b:	48 8d 85 18 f0 ff ff 	lea    -0xfe8(%rbp),%rax
    e512:	48 89 85 20 f8 ff ff 	mov    %rax,-0x7e0(%rbp)
    e519:	48 8d 85 10 f0 ff ff 	lea    -0xff0(%rbp),%rax
    e520:	48 89 85 28 f8 ff ff 	mov    %rax,-0x7d8(%rbp)
    e527:	48 8d 85 80 f2 ff ff 	lea    -0xd80(%rbp),%rax
    e52e:	48 83 c0 08          	add    $0x8,%rax
    e532:	48 89 85 30 f8 ff ff 	mov    %rax,-0x7d0(%rbp)
    e539:	48 c7 85 38 f8 ff ff 	movq   $0x0,-0x7c8(%rbp)
    e540:	00 00 00 00 
    e544:	48 8d 85 14 f0 ff ff 	lea    -0xfec(%rbp),%rax
    e54b:	48 89 85 40 f8 ff ff 	mov    %rax,-0x7c0(%rbp)
    e552:	48 8d 85 e0 f1 ff ff 	lea    -0xe20(%rbp),%rax
    e559:	48 89 85 48 f8 ff ff 	mov    %rax,-0x7b8(%rbp)
    e560:	48 8d 85 14 f0 ff ff 	lea    -0xfec(%rbp),%rax
    e567:	48 89 85 50 f8 ff ff 	mov    %rax,-0x7b0(%rbp)
    e56e:	48 c7 85 58 f8 ff ff 	movq   $0x0,-0x7a8(%rbp)
    e575:	00 00 00 00 
    e579:	48 8d 85 30 f0 ff ff 	lea    -0xfd0(%rbp),%rax
    e580:	48 89 85 60 f8 ff ff 	mov    %rax,-0x7a0(%rbp)
    e587:	48 8d 85 30 f0 ff ff 	lea    -0xfd0(%rbp),%rax
    e58e:	48 89 85 68 f8 ff ff 	mov    %rax,-0x798(%rbp)
    e595:	48 c7 85 70 f8 ff ff 	movq   $0x0,-0x790(%rbp)
    e59c:	00 00 00 00 
    e5a0:	8b 15 02 1f 01 00    	mov    0x11f02(%rip),%edx        # 204a8 <g_1068>
    e5a6:	48 8d 85 e0 f1 ff ff 	lea    -0xe20(%rbp),%rax
    e5ad:	89 d2                	mov    %edx,%edx
    e5af:	48 c1 e2 02          	shl    $0x2,%rdx
    e5b3:	48 01 d0             	add    %rdx,%rax
    e5b6:	48 89 85 78 f8 ff ff 	mov    %rax,-0x788(%rbp)
    e5bd:	48 8d 85 38 f0 ff ff 	lea    -0xfc8(%rbp),%rax
    e5c4:	48 89 85 80 f8 ff ff 	mov    %rax,-0x780(%rbp)
    e5cb:	48 8d 85 40 f0 ff ff 	lea    -0xfc0(%rbp),%rax
    e5d2:	48 89 85 88 f8 ff ff 	mov    %rax,-0x778(%rbp)
    e5d9:	48 8d 05 bc 1e 01 00 	lea    0x11ebc(%rip),%rax        # 2049c <g_984+0xc>
    e5e0:	48 89 85 90 f8 ff ff 	mov    %rax,-0x770(%rbp)
    e5e7:	48 8d 05 e2 1b 01 00 	lea    0x11be2(%rip),%rax        # 201d0 <g_50>
    e5ee:	48 89 85 98 f8 ff ff 	mov    %rax,-0x768(%rbp)
    e5f5:	48 8d 85 24 f0 ff ff 	lea    -0xfdc(%rbp),%rax
    e5fc:	48 89 85 a0 f8 ff ff 	mov    %rax,-0x760(%rbp)
    e603:	48 8d 85 a0 f3 ff ff 	lea    -0xc60(%rbp),%rax
    e60a:	48 83 c0 14          	add    $0x14,%rax
    e60e:	48 89 85 a8 f8 ff ff 	mov    %rax,-0x758(%rbp)
    e615:	48 8d 05 b4 1b 01 00 	lea    0x11bb4(%rip),%rax        # 201d0 <g_50>
    e61c:	48 89 85 b0 f8 ff ff 	mov    %rax,-0x750(%rbp)
    e623:	48 8d 85 24 f0 ff ff 	lea    -0xfdc(%rbp),%rax
    e62a:	48 89 85 b8 f8 ff ff 	mov    %rax,-0x748(%rbp)
    e631:	8b 15 71 1e 01 00    	mov    0x11e71(%rip),%edx        # 204a8 <g_1068>
    e637:	48 8d 85 e0 f1 ff ff 	lea    -0xe20(%rbp),%rax
    e63e:	89 d2                	mov    %edx,%edx
    e640:	48 c1 e2 02          	shl    $0x2,%rdx
    e644:	48 01 d0             	add    %rdx,%rax
    e647:	48 89 85 c0 f8 ff ff 	mov    %rax,-0x740(%rbp)
    e64e:	48 8d 05 73 1b 01 00 	lea    0x11b73(%rip),%rax        # 201c8 <g_14>
    e655:	48 89 85 c8 f8 ff ff 	mov    %rax,-0x738(%rbp)
    e65c:	48 8d 85 40 f0 ff ff 	lea    -0xfc0(%rbp),%rax
    e663:	48 89 85 d0 f8 ff ff 	mov    %rax,-0x730(%rbp)
    e66a:	48 c7 85 d8 f8 ff ff 	movq   $0x0,-0x728(%rbp)
    e671:	00 00 00 00 
    e675:	48 8d 85 3c f0 ff ff 	lea    -0xfc4(%rbp),%rax
    e67c:	48 89 85 e0 f8 ff ff 	mov    %rax,-0x720(%rbp)
    e683:	48 8d 85 80 f2 ff ff 	lea    -0xd80(%rbp),%rax
    e68a:	48 83 c0 04          	add    $0x4,%rax
    e68e:	48 89 85 e8 f8 ff ff 	mov    %rax,-0x718(%rbp)
    e695:	48 c7 85 f0 f8 ff ff 	movq   $0x0,-0x710(%rbp)
    e69c:	00 00 00 00 
    e6a0:	48 8d 85 40 f0 ff ff 	lea    -0xfc0(%rbp),%rax
    e6a7:	48 89 85 f8 f8 ff ff 	mov    %rax,-0x708(%rbp)
    e6ae:	48 8d 85 10 f0 ff ff 	lea    -0xff0(%rbp),%rax
    e6b5:	48 89 85 00 f9 ff ff 	mov    %rax,-0x700(%rbp)
    e6bc:	8b 15 e6 1d 01 00    	mov    0x11de6(%rip),%edx        # 204a8 <g_1068>
    e6c2:	48 8d 85 e0 f1 ff ff 	lea    -0xe20(%rbp),%rax
    e6c9:	89 d2                	mov    %edx,%edx
    e6cb:	48 c1 e2 02          	shl    $0x2,%rdx
    e6cf:	48 01 d0             	add    %rdx,%rax
    e6d2:	48 89 85 08 f9 ff ff 	mov    %rax,-0x6f8(%rbp)
    e6d9:	48 8d 05 bc 1d 01 00 	lea    0x11dbc(%rip),%rax        # 2049c <g_984+0xc>
    e6e0:	48 89 85 10 f9 ff ff 	mov    %rax,-0x6f0(%rbp)
    e6e7:	48 8d 85 14 f0 ff ff 	lea    -0xfec(%rbp),%rax
    e6ee:	48 89 85 18 f9 ff ff 	mov    %rax,-0x6e8(%rbp)
    e6f5:	48 8d 85 a0 f3 ff ff 	lea    -0xc60(%rbp),%rax
    e6fc:	48 83 c0 14          	add    $0x14,%rax
    e700:	48 89 85 20 f9 ff ff 	mov    %rax,-0x6e0(%rbp)
    e707:	48 8d 85 a0 f3 ff ff 	lea    -0xc60(%rbp),%rax
    e70e:	48 83 c0 14          	add    $0x14,%rax
    e712:	48 89 85 28 f9 ff ff 	mov    %rax,-0x6d8(%rbp)
    e719:	48 8d 85 14 f0 ff ff 	lea    -0xfec(%rbp),%rax
    e720:	48 89 85 30 f9 ff ff 	mov    %rax,-0x6d0(%rbp)
    e727:	48 8d 85 28 f0 ff ff 	lea    -0xfd8(%rbp),%rax
    e72e:	48 89 85 38 f9 ff ff 	mov    %rax,-0x6c8(%rbp)
    e735:	48 c7 85 40 f9 ff ff 	movq   $0x0,-0x6c0(%rbp)
    e73c:	00 00 00 00 
    e740:	48 8d 85 28 f0 ff ff 	lea    -0xfd8(%rbp),%rax
    e747:	48 89 85 48 f9 ff ff 	mov    %rax,-0x6b8(%rbp)
    e74e:	8b 15 54 1d 01 00    	mov    0x11d54(%rip),%edx        # 204a8 <g_1068>
    e754:	48 8d 85 e0 f1 ff ff 	lea    -0xe20(%rbp),%rax
    e75b:	89 d2                	mov    %edx,%edx
    e75d:	48 c1 e2 02          	shl    $0x2,%rdx
    e761:	48 01 d0             	add    %rdx,%rax
    e764:	48 89 85 50 f9 ff ff 	mov    %rax,-0x6b0(%rbp)
    e76b:	48 8d 85 40 f0 ff ff 	lea    -0xfc0(%rbp),%rax
    e772:	48 89 85 58 f9 ff ff 	mov    %rax,-0x6a8(%rbp)
    e779:	48 8d 85 2c f0 ff ff 	lea    -0xfd4(%rbp),%rax
    e780:	48 89 85 60 f9 ff ff 	mov    %rax,-0x6a0(%rbp)
    e787:	48 8d 85 30 f0 ff ff 	lea    -0xfd0(%rbp),%rax
    e78e:	48 89 85 68 f9 ff ff 	mov    %rax,-0x698(%rbp)
    e795:	48 8d 85 14 f0 ff ff 	lea    -0xfec(%rbp),%rax
    e79c:	48 89 85 70 f9 ff ff 	mov    %rax,-0x690(%rbp)
    e7a3:	48 8d 85 10 f0 ff ff 	lea    -0xff0(%rbp),%rax
    e7aa:	48 89 85 78 f9 ff ff 	mov    %rax,-0x688(%rbp)
    e7b1:	48 8d 85 e0 f1 ff ff 	lea    -0xe20(%rbp),%rax
    e7b8:	48 89 85 80 f9 ff ff 	mov    %rax,-0x680(%rbp)
    e7bf:	48 8d 05 0a 1a 01 00 	lea    0x11a0a(%rip),%rax        # 201d0 <g_50>
    e7c6:	48 89 85 88 f9 ff ff 	mov    %rax,-0x678(%rbp)
    e7cd:	48 c7 85 90 f9 ff ff 	movq   $0x0,-0x670(%rbp)
    e7d4:	00 00 00 00 
    e7d8:	48 8d 85 80 f2 ff ff 	lea    -0xd80(%rbp),%rax
    e7df:	48 83 c0 08          	add    $0x8,%rax
    e7e3:	48 89 85 98 f9 ff ff 	mov    %rax,-0x668(%rbp)
    e7ea:	48 8d 85 18 f0 ff ff 	lea    -0xfe8(%rbp),%rax
    e7f1:	48 89 85 a0 f9 ff ff 	mov    %rax,-0x660(%rbp)
    e7f8:	48 8d 85 3c f0 ff ff 	lea    -0xfc4(%rbp),%rax
    e7ff:	48 89 85 a8 f9 ff ff 	mov    %rax,-0x658(%rbp)
    e806:	48 8d 85 30 f0 ff ff 	lea    -0xfd0(%rbp),%rax
    e80d:	48 89 85 b0 f9 ff ff 	mov    %rax,-0x650(%rbp)
    e814:	48 c7 85 b8 f9 ff ff 	movq   $0x0,-0x648(%rbp)
    e81b:	00 00 00 00 
    e81f:	48 8d 85 80 f2 ff ff 	lea    -0xd80(%rbp),%rax
    e826:	48 83 c0 04          	add    $0x4,%rax
    e82a:	48 89 85 c0 f9 ff ff 	mov    %rax,-0x640(%rbp)
    e831:	48 8d 85 1c f0 ff ff 	lea    -0xfe4(%rbp),%rax
    e838:	48 89 85 c8 f9 ff ff 	mov    %rax,-0x638(%rbp)
    e83f:	48 8d 85 2c f0 ff ff 	lea    -0xfd4(%rbp),%rax
    e846:	48 89 85 d0 f9 ff ff 	mov    %rax,-0x630(%rbp)
    e84d:	48 8d 85 3c f0 ff ff 	lea    -0xfc4(%rbp),%rax
    e854:	48 89 85 d8 f9 ff ff 	mov    %rax,-0x628(%rbp)
    e85b:	48 8d 85 10 f0 ff ff 	lea    -0xff0(%rbp),%rax
    e862:	48 89 85 e0 f9 ff ff 	mov    %rax,-0x620(%rbp)
    e869:	48 8d 85 38 f0 ff ff 	lea    -0xfc8(%rbp),%rax
    e870:	48 89 85 e8 f9 ff ff 	mov    %rax,-0x618(%rbp)
    e877:	48 8d 05 52 19 01 00 	lea    0x11952(%rip),%rax        # 201d0 <g_50>
    e87e:	48 89 85 f0 f9 ff ff 	mov    %rax,-0x610(%rbp)
    e885:	48 8d 85 a0 f3 ff ff 	lea    -0xc60(%rbp),%rax
    e88c:	48 83 c0 14          	add    $0x14,%rax
    e890:	48 89 85 f8 f9 ff ff 	mov    %rax,-0x608(%rbp)
    e897:	48 8d 85 18 f0 ff ff 	lea    -0xfe8(%rbp),%rax
    e89e:	48 89 85 00 fa ff ff 	mov    %rax,-0x600(%rbp)
    e8a5:	48 8d 85 a0 f3 ff ff 	lea    -0xc60(%rbp),%rax
    e8ac:	48 83 c0 14          	add    $0x14,%rax
    e8b0:	48 89 85 08 fa ff ff 	mov    %rax,-0x5f8(%rbp)
    e8b7:	48 8d 05 12 19 01 00 	lea    0x11912(%rip),%rax        # 201d0 <g_50>
    e8be:	48 89 85 10 fa ff ff 	mov    %rax,-0x5f0(%rbp)
    e8c5:	48 8d 85 80 f2 ff ff 	lea    -0xd80(%rbp),%rax
    e8cc:	48 83 c0 04          	add    $0x4,%rax
    e8d0:	48 89 85 18 fa ff ff 	mov    %rax,-0x5e8(%rbp)
    e8d7:	48 8d 85 80 f2 ff ff 	lea    -0xd80(%rbp),%rax
    e8de:	48 83 c0 04          	add    $0x4,%rax
    e8e2:	48 89 85 20 fa ff ff 	mov    %rax,-0x5e0(%rbp)
    e8e9:	48 8d 05 28 19 01 00 	lea    0x11928(%rip),%rax        # 20218 <g_77+0x38>
    e8f0:	48 89 85 28 fa ff ff 	mov    %rax,-0x5d8(%rbp)
    e8f7:	48 8d 85 40 f0 ff ff 	lea    -0xfc0(%rbp),%rax
    e8fe:	48 89 85 30 fa ff ff 	mov    %rax,-0x5d0(%rbp)
    e905:	48 c7 85 38 fa ff ff 	movq   $0x0,-0x5c8(%rbp)
    e90c:	00 00 00 00 
    e910:	48 c7 85 40 fa ff ff 	movq   $0x0,-0x5c0(%rbp)
    e917:	00 00 00 00 
    e91b:	48 c7 85 48 fa ff ff 	movq   $0x0,-0x5b8(%rbp)
    e922:	00 00 00 00 
    e926:	48 c7 85 50 fa ff ff 	movq   $0x0,-0x5b0(%rbp)
    e92d:	00 00 00 00 
    e931:	48 8d 05 98 18 01 00 	lea    0x11898(%rip),%rax        # 201d0 <g_50>
    e938:	48 89 85 58 fa ff ff 	mov    %rax,-0x5a8(%rbp)
    e93f:	8b 15 63 1b 01 00    	mov    0x11b63(%rip),%edx        # 204a8 <g_1068>
    e945:	48 8d 85 e0 f1 ff ff 	lea    -0xe20(%rbp),%rax
    e94c:	89 d2                	mov    %edx,%edx
    e94e:	48 c1 e2 02          	shl    $0x2,%rdx
    e952:	48 01 d0             	add    %rdx,%rax
    e955:	48 89 85 60 fa ff ff 	mov    %rax,-0x5a0(%rbp)
    e95c:	48 c7 85 68 fa ff ff 	movq   $0x0,-0x598(%rbp)
    e963:	00 00 00 00 
    e967:	48 8d 85 40 f0 ff ff 	lea    -0xfc0(%rbp),%rax
    e96e:	48 89 85 70 fa ff ff 	mov    %rax,-0x590(%rbp)
    e975:	48 8d 85 24 f0 ff ff 	lea    -0xfdc(%rbp),%rax
    e97c:	48 89 85 78 fa ff ff 	mov    %rax,-0x588(%rbp)
    e983:	48 8d 85 14 f0 ff ff 	lea    -0xfec(%rbp),%rax
    e98a:	48 89 85 80 fa ff ff 	mov    %rax,-0x580(%rbp)
    e991:	48 8d 85 28 f0 ff ff 	lea    -0xfd8(%rbp),%rax
    e998:	48 89 85 88 fa ff ff 	mov    %rax,-0x578(%rbp)
    e99f:	48 c7 85 90 fa ff ff 	movq   $0x0,-0x570(%rbp)
    e9a6:	00 00 00 00 
    e9aa:	8b 15 f8 1a 01 00    	mov    0x11af8(%rip),%edx        # 204a8 <g_1068>
    e9b0:	48 8d 85 e0 f1 ff ff 	lea    -0xe20(%rbp),%rax
    e9b7:	89 d2                	mov    %edx,%edx
    e9b9:	48 c1 e2 02          	shl    $0x2,%rdx
    e9bd:	48 01 d0             	add    %rdx,%rax
    e9c0:	48 89 85 98 fa ff ff 	mov    %rax,-0x568(%rbp)
    e9c7:	48 8d 85 1c f0 ff ff 	lea    -0xfe4(%rbp),%rax
    e9ce:	48 89 85 a0 fa ff ff 	mov    %rax,-0x560(%rbp)
    e9d5:	48 c7 85 a8 fa ff ff 	movq   $0x0,-0x558(%rbp)
    e9dc:	00 00 00 00 
    e9e0:	48 8d 85 38 f0 ff ff 	lea    -0xfc8(%rbp),%rax
    e9e7:	48 89 85 b0 fa ff ff 	mov    %rax,-0x550(%rbp)
    e9ee:	48 8d 85 34 f0 ff ff 	lea    -0xfcc(%rbp),%rax
    e9f5:	48 89 85 b8 fa ff ff 	mov    %rax,-0x548(%rbp)
    e9fc:	48 8d 05 cd 17 01 00 	lea    0x117cd(%rip),%rax        # 201d0 <g_50>
    ea03:	48 89 85 c0 fa ff ff 	mov    %rax,-0x540(%rbp)
    ea0a:	48 c7 85 c8 fa ff ff 	movq   $0x0,-0x538(%rbp)
    ea11:	00 00 00 00 
    ea15:	48 8d 85 e0 f1 ff ff 	lea    -0xe20(%rbp),%rax
    ea1c:	48 89 85 d0 fa ff ff 	mov    %rax,-0x530(%rbp)
    ea23:	48 8d 85 18 f0 ff ff 	lea    -0xfe8(%rbp),%rax
    ea2a:	48 89 85 d8 fa ff ff 	mov    %rax,-0x528(%rbp)
    ea31:	48 8d 85 18 f0 ff ff 	lea    -0xfe8(%rbp),%rax
    ea38:	48 89 85 e0 fa ff ff 	mov    %rax,-0x520(%rbp)
    ea3f:	48 8d 85 e0 f1 ff ff 	lea    -0xe20(%rbp),%rax
    ea46:	48 89 85 e8 fa ff ff 	mov    %rax,-0x518(%rbp)
    ea4d:	48 c7 85 f0 fa ff ff 	movq   $0x0,-0x510(%rbp)
    ea54:	00 00 00 00 
    ea58:	48 c7 85 f8 fa ff ff 	movq   $0x0,-0x508(%rbp)
    ea5f:	00 00 00 00 
    ea63:	48 8d 85 34 f0 ff ff 	lea    -0xfcc(%rbp),%rax
    ea6a:	48 89 85 00 fb ff ff 	mov    %rax,-0x500(%rbp)
    ea71:	48 8d 85 38 f0 ff ff 	lea    -0xfc8(%rbp),%rax
    ea78:	48 89 85 08 fb ff ff 	mov    %rax,-0x4f8(%rbp)
    ea7f:	48 c7 85 10 fb ff ff 	movq   $0x0,-0x4f0(%rbp)
    ea86:	00 00 00 00 
    ea8a:	48 8d 85 1c f0 ff ff 	lea    -0xfe4(%rbp),%rax
    ea91:	48 89 85 18 fb ff ff 	mov    %rax,-0x4e8(%rbp)
    ea98:	8b 15 0a 1a 01 00    	mov    0x11a0a(%rip),%edx        # 204a8 <g_1068>
    ea9e:	48 8d 85 e0 f1 ff ff 	lea    -0xe20(%rbp),%rax
    eaa5:	89 d2                	mov    %edx,%edx
    eaa7:	48 c1 e2 02          	shl    $0x2,%rdx
    eaab:	48 01 d0             	add    %rdx,%rax
    eaae:	48 89 85 20 fb ff ff 	mov    %rax,-0x4e0(%rbp)
    eab5:	48 c7 85 28 fb ff ff 	movq   $0x0,-0x4d8(%rbp)
    eabc:	00 00 00 00 
    eac0:	48 8d 05 d5 19 01 00 	lea    0x119d5(%rip),%rax        # 2049c <g_984+0xc>
    eac7:	48 89 85 30 fb ff ff 	mov    %rax,-0x4d0(%rbp)
    eace:	48 8d 85 14 f0 ff ff 	lea    -0xfec(%rbp),%rax
    ead5:	48 89 85 38 fb ff ff 	mov    %rax,-0x4c8(%rbp)
    eadc:	48 8d 85 24 f0 ff ff 	lea    -0xfdc(%rbp),%rax
    eae3:	48 89 85 40 fb ff ff 	mov    %rax,-0x4c0(%rbp)
    eaea:	48 8d 85 40 f0 ff ff 	lea    -0xfc0(%rbp),%rax
    eaf1:	48 89 85 48 fb ff ff 	mov    %rax,-0x4b8(%rbp)
    eaf8:	48 c7 85 50 fb ff ff 	movq   $0x0,-0x4b0(%rbp)
    eaff:	00 00 00 00 
    eb03:	8b 15 9f 19 01 00    	mov    0x1199f(%rip),%edx        # 204a8 <g_1068>
    eb09:	48 8d 85 e0 f1 ff ff 	lea    -0xe20(%rbp),%rax
    eb10:	89 d2                	mov    %edx,%edx
    eb12:	48 c1 e2 02          	shl    $0x2,%rdx
    eb16:	48 01 d0             	add    %rdx,%rax
    eb19:	48 89 85 58 fb ff ff 	mov    %rax,-0x4a8(%rbp)
    eb20:	48 8d 05 a9 16 01 00 	lea    0x116a9(%rip),%rax        # 201d0 <g_50>
    eb27:	48 89 85 60 fb ff ff 	mov    %rax,-0x4a0(%rbp)
    eb2e:	48 8d 85 40 f0 ff ff 	lea    -0xfc0(%rbp),%rax
    eb35:	48 89 85 68 fb ff ff 	mov    %rax,-0x498(%rbp)
    eb3c:	48 c7 85 70 fb ff ff 	movq   $0x0,-0x490(%rbp)
    eb43:	00 00 00 00 
    eb47:	48 c7 85 78 fb ff ff 	movq   $0x0,-0x488(%rbp)
    eb4e:	00 00 00 00 
    eb52:	48 c7 85 80 fb ff ff 	movq   $0x0,-0x480(%rbp)
    eb59:	00 00 00 00 
    eb5d:	48 8d 85 40 f0 ff ff 	lea    -0xfc0(%rbp),%rax
    eb64:	48 89 85 88 fb ff ff 	mov    %rax,-0x478(%rbp)
    eb6b:	48 8d 05 a6 16 01 00 	lea    0x116a6(%rip),%rax        # 20218 <g_77+0x38>
    eb72:	48 89 85 90 fb ff ff 	mov    %rax,-0x470(%rbp)
    eb79:	48 8d 85 80 f2 ff ff 	lea    -0xd80(%rbp),%rax
    eb80:	48 83 c0 04          	add    $0x4,%rax
    eb84:	48 89 85 98 fb ff ff 	mov    %rax,-0x468(%rbp)
    eb8b:	48 8d 85 38 f0 ff ff 	lea    -0xfc8(%rbp),%rax
    eb92:	48 89 85 a0 fb ff ff 	mov    %rax,-0x460(%rbp)
    eb99:	48 8d 05 30 16 01 00 	lea    0x11630(%rip),%rax        # 201d0 <g_50>
    eba0:	48 89 85 a8 fb ff ff 	mov    %rax,-0x458(%rbp)
    eba7:	48 8d 85 a0 f3 ff ff 	lea    -0xc60(%rbp),%rax
    ebae:	48 83 c0 14          	add    $0x14,%rax
    ebb2:	48 89 85 b0 fb ff ff 	mov    %rax,-0x450(%rbp)
    ebb9:	48 8d 85 18 f0 ff ff 	lea    -0xfe8(%rbp),%rax
    ebc0:	48 89 85 b8 fb ff ff 	mov    %rax,-0x448(%rbp)
    ebc7:	48 8d 85 a0 f3 ff ff 	lea    -0xc60(%rbp),%rax
    ebce:	48 83 c0 14          	add    $0x14,%rax
    ebd2:	48 89 85 c0 fb ff ff 	mov    %rax,-0x440(%rbp)
    ebd9:	48 8d 05 f0 15 01 00 	lea    0x115f0(%rip),%rax        # 201d0 <g_50>
    ebe0:	48 89 85 c8 fb ff ff 	mov    %rax,-0x438(%rbp)
    ebe7:	48 8d 85 38 f0 ff ff 	lea    -0xfc8(%rbp),%rax
    ebee:	48 89 85 d0 fb ff ff 	mov    %rax,-0x430(%rbp)
    ebf5:	48 8d 85 38 f0 ff ff 	lea    -0xfc8(%rbp),%rax
    ebfc:	48 89 85 d8 fb ff ff 	mov    %rax,-0x428(%rbp)
    ec03:	48 8d 85 3c f0 ff ff 	lea    -0xfc4(%rbp),%rax
    ec0a:	48 89 85 e0 fb ff ff 	mov    %rax,-0x420(%rbp)
    ec11:	48 8d 85 2c f0 ff ff 	lea    -0xfd4(%rbp),%rax
    ec18:	48 89 85 e8 fb ff ff 	mov    %rax,-0x418(%rbp)
    ec1f:	48 8d 85 1c f0 ff ff 	lea    -0xfe4(%rbp),%rax
    ec26:	48 89 85 f0 fb ff ff 	mov    %rax,-0x410(%rbp)
    ec2d:	48 8d 85 80 f2 ff ff 	lea    -0xd80(%rbp),%rax
    ec34:	48 83 c0 04          	add    $0x4,%rax
    ec38:	48 89 85 f8 fb ff ff 	mov    %rax,-0x408(%rbp)
    ec3f:	48 c7 85 00 fc ff ff 	movq   $0x0,-0x400(%rbp)
    ec46:	00 00 00 00 
    ec4a:	48 8d 85 30 f0 ff ff 	lea    -0xfd0(%rbp),%rax
    ec51:	48 89 85 08 fc ff ff 	mov    %rax,-0x3f8(%rbp)
    ec58:	48 8d 85 10 f0 ff ff 	lea    -0xff0(%rbp),%rax
    ec5f:	48 89 85 10 fc ff ff 	mov    %rax,-0x3f0(%rbp)
    ec66:	48 8d 85 18 f0 ff ff 	lea    -0xfe8(%rbp),%rax
    ec6d:	48 89 85 18 fc ff ff 	mov    %rax,-0x3e8(%rbp)
    ec74:	48 8d 85 80 f2 ff ff 	lea    -0xd80(%rbp),%rax
    ec7b:	48 83 c0 08          	add    $0x8,%rax
    ec7f:	48 89 85 20 fc ff ff 	mov    %rax,-0x3e0(%rbp)
    ec86:	48 c7 85 28 fc ff ff 	movq   $0x0,-0x3d8(%rbp)
    ec8d:	00 00 00 00 
    ec91:	48 8d 05 38 15 01 00 	lea    0x11538(%rip),%rax        # 201d0 <g_50>
    ec98:	48 89 85 30 fc ff ff 	mov    %rax,-0x3d0(%rbp)
    ec9f:	48 8d 85 e0 f1 ff ff 	lea    -0xe20(%rbp),%rax
    eca6:	48 89 85 38 fc ff ff 	mov    %rax,-0x3c8(%rbp)
    ecad:	48 8d 85 10 f0 ff ff 	lea    -0xff0(%rbp),%rax
    ecb4:	48 89 85 40 fc ff ff 	mov    %rax,-0x3c0(%rbp)
    ecbb:	48 8d 85 40 f0 ff ff 	lea    -0xfc0(%rbp),%rax
    ecc2:	48 89 85 48 fc ff ff 	mov    %rax,-0x3b8(%rbp)
    ecc9:	48 8d 85 30 f0 ff ff 	lea    -0xfd0(%rbp),%rax
    ecd0:	48 89 85 50 fc ff ff 	mov    %rax,-0x3b0(%rbp)
    ecd7:	48 8d 85 2c f0 ff ff 	lea    -0xfd4(%rbp),%rax
    ecde:	48 89 85 58 fc ff ff 	mov    %rax,-0x3a8(%rbp)
    ece5:	48 8d 85 40 f0 ff ff 	lea    -0xfc0(%rbp),%rax
    ecec:	48 89 85 60 fc ff ff 	mov    %rax,-0x3a0(%rbp)
    ecf3:	8b 15 af 17 01 00    	mov    0x117af(%rip),%edx        # 204a8 <g_1068>
    ecf9:	48 8d 85 e0 f1 ff ff 	lea    -0xe20(%rbp),%rax
    ed00:	89 d2                	mov    %edx,%edx
    ed02:	48 c1 e2 02          	shl    $0x2,%rdx
    ed06:	48 01 d0             	add    %rdx,%rax
    ed09:	48 89 85 68 fc ff ff 	mov    %rax,-0x398(%rbp)
    ed10:	48 8d 85 28 f0 ff ff 	lea    -0xfd8(%rbp),%rax
    ed17:	48 89 85 70 fc ff ff 	mov    %rax,-0x390(%rbp)
    ed1e:	48 c7 85 78 fc ff ff 	movq   $0x0,-0x388(%rbp)
    ed25:	00 00 00 00 
    ed29:	48 8d 05 6c 17 01 00 	lea    0x1176c(%rip),%rax        # 2049c <g_984+0xc>
    ed30:	48 89 85 80 fc ff ff 	mov    %rax,-0x380(%rbp)
    ed37:	48 8d 85 14 f0 ff ff 	lea    -0xfec(%rbp),%rax
    ed3e:	48 89 85 88 fc ff ff 	mov    %rax,-0x378(%rbp)
    ed45:	48 8d 85 a0 f3 ff ff 	lea    -0xc60(%rbp),%rax
    ed4c:	48 83 c0 14          	add    $0x14,%rax
    ed50:	48 89 85 90 fc ff ff 	mov    %rax,-0x370(%rbp)
    ed57:	48 8d 85 a0 f3 ff ff 	lea    -0xc60(%rbp),%rax
    ed5e:	48 83 c0 14          	add    $0x14,%rax
    ed62:	48 89 85 98 fc ff ff 	mov    %rax,-0x368(%rbp)
    ed69:	48 8d 85 14 f0 ff ff 	lea    -0xfec(%rbp),%rax
    ed70:	48 89 85 a0 fc ff ff 	mov    %rax,-0x360(%rbp)
    ed77:	48 8d 05 1e 17 01 00 	lea    0x1171e(%rip),%rax        # 2049c <g_984+0xc>
    ed7e:	48 89 85 a8 fc ff ff 	mov    %rax,-0x358(%rbp)
    ed85:	8b 15 1d 17 01 00    	mov    0x1171d(%rip),%edx        # 204a8 <g_1068>
    ed8b:	48 8d 85 e0 f1 ff ff 	lea    -0xe20(%rbp),%rax
    ed92:	89 d2                	mov    %edx,%edx
    ed94:	48 c1 e2 02          	shl    $0x2,%rdx
    ed98:	48 01 d0             	add    %rdx,%rax
    ed9b:	48 89 85 b0 fc ff ff 	mov    %rax,-0x350(%rbp)
    eda2:	48 c7 85 b8 fc ff ff 	movq   $0x0,-0x348(%rbp)
    eda9:	00 00 00 00 
    edad:	48 8d 85 40 f0 ff ff 	lea    -0xfc0(%rbp),%rax
    edb4:	48 89 85 c0 fc ff ff 	mov    %rax,-0x340(%rbp)
    edbb:	48 c7 85 c8 fc ff ff 	movq   $0x0,-0x338(%rbp)
    edc2:	00 00 00 00 
    edc6:	48 8d 85 80 f2 ff ff 	lea    -0xd80(%rbp),%rax
    edcd:	48 83 c0 04          	add    $0x4,%rax
    edd1:	48 89 85 d0 fc ff ff 	mov    %rax,-0x330(%rbp)
    edd8:	48 8d 85 3c f0 ff ff 	lea    -0xfc4(%rbp),%rax
    eddf:	48 89 85 d8 fc ff ff 	mov    %rax,-0x328(%rbp)
    ede6:	48 c7 85 e0 fc ff ff 	movq   $0x0,-0x320(%rbp)
    eded:	00 00 00 00 
    edf1:	48 8d 85 40 f0 ff ff 	lea    -0xfc0(%rbp),%rax
    edf8:	48 89 85 e8 fc ff ff 	mov    %rax,-0x318(%rbp)
    edff:	48 8d 85 14 f0 ff ff 	lea    -0xfec(%rbp),%rax
    ee06:	48 89 85 f0 fc ff ff 	mov    %rax,-0x310(%rbp)
    ee0d:	8b 15 95 16 01 00    	mov    0x11695(%rip),%edx        # 204a8 <g_1068>
    ee13:	48 8d 85 e0 f1 ff ff 	lea    -0xe20(%rbp),%rax
    ee1a:	89 d2                	mov    %edx,%edx
    ee1c:	48 c1 e2 02          	shl    $0x2,%rdx
    ee20:	48 01 d0             	add    %rdx,%rax
    ee23:	48 89 85 f8 fc ff ff 	mov    %rax,-0x308(%rbp)
    ee2a:	48 8d 85 24 f0 ff ff 	lea    -0xfdc(%rbp),%rax
    ee31:	48 89 85 00 fd ff ff 	mov    %rax,-0x300(%rbp)
    ee38:	48 8d 05 91 13 01 00 	lea    0x11391(%rip),%rax        # 201d0 <g_50>
    ee3f:	48 89 85 08 fd ff ff 	mov    %rax,-0x2f8(%rbp)
    ee46:	48 8d 85 a0 f3 ff ff 	lea    -0xc60(%rbp),%rax
    ee4d:	48 83 c0 14          	add    $0x14,%rax
    ee51:	48 89 85 10 fd ff ff 	mov    %rax,-0x2f0(%rbp)
    ee58:	48 8d 85 24 f0 ff ff 	lea    -0xfdc(%rbp),%rax
    ee5f:	48 89 85 18 fd ff ff 	mov    %rax,-0x2e8(%rbp)
    ee66:	48 8d 05 63 13 01 00 	lea    0x11363(%rip),%rax        # 201d0 <g_50>
    ee6d:	48 89 85 20 fd ff ff 	mov    %rax,-0x2e0(%rbp)
    ee74:	48 8d 85 28 f0 ff ff 	lea    -0xfd8(%rbp),%rax
    ee7b:	48 89 85 28 fd ff ff 	mov    %rax,-0x2d8(%rbp)
    ee82:	48 8d 85 40 f0 ff ff 	lea    -0xfc0(%rbp),%rax
    ee89:	48 89 85 30 fd ff ff 	mov    %rax,-0x2d0(%rbp)
    ee90:	48 8d 85 38 f0 ff ff 	lea    -0xfc8(%rbp),%rax
    ee97:	48 89 85 38 fd ff ff 	mov    %rax,-0x2c8(%rbp)
    ee9e:	8b 15 04 16 01 00    	mov    0x11604(%rip),%edx        # 204a8 <g_1068>
    eea4:	48 8d 85 e0 f1 ff ff 	lea    -0xe20(%rbp),%rax
    eeab:	89 d2                	mov    %edx,%edx
    eead:	48 c1 e2 02          	shl    $0x2,%rdx
    eeb1:	48 01 d0             	add    %rdx,%rax
    eeb4:	48 89 85 40 fd ff ff 	mov    %rax,-0x2c0(%rbp)
    eebb:	48 c7 85 48 fd ff ff 	movq   $0x0,-0x2b8(%rbp)
    eec2:	00 00 00 00 
    eec6:	48 8d 85 30 f0 ff ff 	lea    -0xfd0(%rbp),%rax
    eecd:	48 89 85 50 fd ff ff 	mov    %rax,-0x2b0(%rbp)
    eed4:	48 8d 85 30 f0 ff ff 	lea    -0xfd0(%rbp),%rax
    eedb:	48 89 85 58 fd ff ff 	mov    %rax,-0x2a8(%rbp)
    eee2:	48 c7 85 60 fd ff ff 	movq   $0x0,-0x2a0(%rbp)
    eee9:	00 00 00 00 
    eeed:	48 8d 85 14 f0 ff ff 	lea    -0xfec(%rbp),%rax
    eef4:	48 89 85 68 fd ff ff 	mov    %rax,-0x298(%rbp)
    eefb:	48 8d 85 e0 f1 ff ff 	lea    -0xe20(%rbp),%rax
    ef02:	48 89 85 70 fd ff ff 	mov    %rax,-0x290(%rbp)
    ef09:	48 8d 85 14 f0 ff ff 	lea    -0xfec(%rbp),%rax
    ef10:	48 89 85 78 fd ff ff 	mov    %rax,-0x288(%rbp)
    ef17:	48 c7 85 80 fd ff ff 	movq   $0x0,-0x280(%rbp)
    ef1e:	00 00 00 00 
    ef22:	48 8d 85 80 f2 ff ff 	lea    -0xd80(%rbp),%rax
    ef29:	48 83 c0 08          	add    $0x8,%rax
    ef2d:	48 89 85 88 fd ff ff 	mov    %rax,-0x278(%rbp)
    ef34:	48 8d 85 10 f0 ff ff 	lea    -0xff0(%rbp),%rax
    ef3b:	48 89 85 90 fd ff ff 	mov    %rax,-0x270(%rbp)
    ef42:	48 c7 85 98 fd ff ff 	movq   $0x0,-0x268(%rbp)
    ef49:	00 00 00 00 
    ef4d:	48 8d 85 30 f0 ff ff 	lea    -0xfd0(%rbp),%rax
    ef54:	48 89 85 a0 fd ff ff 	mov    %rax,-0x260(%rbp)
    ef5b:	8b 15 47 15 01 00    	mov    0x11547(%rip),%edx        # 204a8 <g_1068>
    ef61:	48 8d 85 e0 f1 ff ff 	lea    -0xe20(%rbp),%rax
    ef68:	89 d2                	mov    %edx,%edx
    ef6a:	48 c1 e2 02          	shl    $0x2,%rdx
    ef6e:	48 01 d0             	add    %rdx,%rax
    ef71:	48 89 85 a8 fd ff ff 	mov    %rax,-0x258(%rbp)
    ef78:	48 8d 85 28 f0 ff ff 	lea    -0xfd8(%rbp),%rax
    ef7f:	48 89 85 b0 fd ff ff 	mov    %rax,-0x250(%rbp)
    ef86:	48 c7 85 b8 fd ff ff 	movq   $0x0,-0x248(%rbp)
    ef8d:	00 00 00 00 
    ef91:	48 c7 85 c0 fd ff ff 	movq   $0x0,-0x240(%rbp)
    ef98:	00 00 00 00 
    ef9c:	48 8d 85 38 f0 ff ff 	lea    -0xfc8(%rbp),%rax
    efa3:	48 89 85 c8 fd ff ff 	mov    %rax,-0x238(%rbp)
    efaa:	48 8d 85 80 f2 ff ff 	lea    -0xd80(%rbp),%rax
    efb1:	48 83 c0 18          	add    $0x18,%rax
    efb5:	48 89 85 d0 fd ff ff 	mov    %rax,-0x230(%rbp)
    efbc:	48 8d 85 10 f0 ff ff 	lea    -0xff0(%rbp),%rax
    efc3:	48 89 85 d8 fd ff ff 	mov    %rax,-0x228(%rbp)
    efca:	48 8d 85 e0 f1 ff ff 	lea    -0xe20(%rbp),%rax
    efd1:	48 89 85 e0 fd ff ff 	mov    %rax,-0x220(%rbp)
    efd8:	48 c7 85 e8 fd ff ff 	movq   $0x0,-0x218(%rbp)
    efdf:	00 00 00 00 
    efe3:	48 8d 05 b2 14 01 00 	lea    0x114b2(%rip),%rax        # 2049c <g_984+0xc>
    efea:	48 89 85 f0 fd ff ff 	mov    %rax,-0x210(%rbp)
    eff1:	48 8d 85 a0 f3 ff ff 	lea    -0xc60(%rbp),%rax
    eff8:	48 83 c0 04          	add    $0x4,%rax
    effc:	48 89 85 f8 fd ff ff 	mov    %rax,-0x208(%rbp)
    f003:	48 8d 85 30 f0 ff ff 	lea    -0xfd0(%rbp),%rax
    f00a:	48 89 85 00 fe ff ff 	mov    %rax,-0x200(%rbp)
    f011:	48 8b 15 d8 21 01 00 	mov    0x121d8(%rip),%rdx        # 211f0 <g_939>
    f018:	48 8b 05 d1 21 01 00 	mov    0x121d1(%rip),%rax        # 211f0 <g_939>
    f01f:	48 8b 12             	mov    (%rdx),%rdx
    f022:	48 89 10             	mov    %rdx,(%rax)
    f025:	80 85 01 f0 ff ff 01 	addb   $0x1,-0xfff(%rbp)
    f02c:	8b 85 44 f0 ff ff    	mov    -0xfbc(%rbp),%eax
    f032:	e9 9b 13 00 00       	jmpq   103d2 <func_66+0x515f>
    f037:	66 c7 85 0e f0 ff ff 	movw   $0x3ee7,-0xff2(%rbp)
    f03e:	e7 3e 
    f040:	48 8d 05 fd 11 01 00 	lea    0x111fd(%rip),%rax        # 20244 <g_77+0x64>
    f047:	48 89 85 90 f1 ff ff 	mov    %rax,-0xe70(%rbp)
    f04e:	48 8d 05 0f 12 01 00 	lea    0x1120f(%rip),%rax        # 20264 <g_77+0x84>
    f055:	48 89 85 98 f1 ff ff 	mov    %rax,-0xe68(%rbp)
    f05c:	c7 85 78 f0 ff ff 00 	movl   $0x0,-0xf88(%rbp)
    f063:	00 00 00 
    f066:	eb 1e                	jmp    f086 <func_66+0x3e13>
    f068:	8b 85 78 f0 ff ff    	mov    -0xf88(%rbp),%eax
    f06e:	48 98                	cltq   
    f070:	48 8d 95 38 f0 ff ff 	lea    -0xfc8(%rbp),%rdx
    f077:	48 89 94 c5 20 f8 ff 	mov    %rdx,-0x7e0(%rbp,%rax,8)
    f07e:	ff 
    f07f:	83 85 78 f0 ff ff 01 	addl   $0x1,-0xf88(%rbp)
    f086:	83 bd 78 f0 ff ff 02 	cmpl   $0x2,-0xf88(%rbp)
    f08d:	7e d9                	jle    f068 <func_66+0x3df5>
    f08f:	0f b7 85 0e f0 ff ff 	movzwl -0xff2(%rbp),%eax
    f096:	83 e8 01             	sub    $0x1,%eax
    f099:	66 89 85 0e f0 ff ff 	mov    %ax,-0xff2(%rbp)
    f0a0:	0f b6 85 ca f1 ff ff 	movzbl -0xe36(%rbp),%eax
    f0a7:	83 c0 01             	add    $0x1,%eax
    f0aa:	88 85 ca f1 ff ff    	mov    %al,-0xe36(%rbp)
    f0b0:	48 8b 05 89 1d 01 00 	mov    0x11d89(%rip),%rax        # 20e40 <g_76>
    f0b7:	c7 00 00 00 00 00    	movl   $0x0,(%rax)
    f0bd:	83 ad 6c f0 ff ff 01 	subl   $0x1,-0xf94(%rbp)
    f0c4:	66 83 85 e0 ef ff ff 	addw   $0x1,-0x1020(%rbp)
    f0cb:	01 
    f0cc:	66 83 bd e0 ef ff ff 	cmpw   $0x3,-0x1020(%rbp)
    f0d3:	03 
    f0d4:	0f 86 81 f0 ff ff    	jbe    e15b <func_66+0x2ee8>
    f0da:	c7 85 50 f0 ff ff 03 	movl   $0x3,-0xfb0(%rbp)
    f0e1:	00 00 00 
    f0e4:	eb 24                	jmp    f10a <func_66+0x3e97>
    f0e6:	48 8d 05 4b 12 01 00 	lea    0x1124b(%rip),%rax        # 20338 <g_159>
    f0ed:	48 89 85 b8 f1 ff ff 	mov    %rax,-0xe48(%rbp)
    f0f4:	48 8b 85 b8 f1 ff ff 	mov    -0xe48(%rbp),%rax
    f0fb:	8b 95 48 f0 ff ff    	mov    -0xfb8(%rbp),%edx
    f101:	89 10                	mov    %edx,(%rax)
    f103:	83 ad 50 f0 ff ff 01 	subl   $0x1,-0xfb0(%rbp)
    f10a:	83 bd 50 f0 ff ff 00 	cmpl   $0x0,-0xfb0(%rbp)
    f111:	79 d3                	jns    f0e6 <func_66+0x3e73>
    f113:	8b 05 1f 12 01 00    	mov    0x1121f(%rip),%eax        # 20338 <g_159>
    f119:	e9 b4 12 00 00       	jmpq   103d2 <func_66+0x515f>
    f11e:	66 c7 05 03 12 01 00 	movw   $0x0,0x11203(%rip)        # 2032a <g_145>
    f125:	00 00 
    f127:	e9 e1 00 00 00       	jmpq   f20d <func_66+0x3f9a>
    f12c:	c6 85 c0 f0 ff ff 61 	movb   $0x61,-0xf40(%rbp)
    f133:	0f b6 85 c1 f0 ff ff 	movzbl -0xf3f(%rbp),%eax
    f13a:	83 e0 c0             	and    $0xffffffc0,%eax
    f13d:	88 85 c1 f0 ff ff    	mov    %al,-0xf3f(%rbp)
    f143:	8b 85 c0 f0 ff ff    	mov    -0xf40(%rbp),%eax
    f149:	89 85 44 f0 ff ff    	mov    %eax,-0xfbc(%rbp)
    f14f:	c7 85 10 f0 ff ff 05 	movl   $0x5,-0xff0(%rbp)
    f156:	00 00 00 
    f159:	90                   	nop
    f15a:	8b 85 10 f0 ff ff    	mov    -0xff0(%rbp),%eax
    f160:	85 c0                	test   %eax,%eax
    f162:	78 37                	js     f19b <func_66+0x3f28>
    f164:	8b 85 34 f0 ff ff    	mov    -0xfcc(%rbp),%eax
    f16a:	85 c0                	test   %eax,%eax
    f16c:	74 0b                	je     f179 <func_66+0x3f06>
    f16e:	8b 05 c4 11 01 00    	mov    0x111c4(%rip),%eax        # 20338 <g_159>
    f174:	e9 59 12 00 00       	jmpq   103d2 <func_66+0x515f>
    f179:	0f b7 05 aa 11 01 00 	movzwl 0x111aa(%rip),%eax        # 2032a <g_145>
    f180:	0f b7 c0             	movzwl %ax,%eax
    f183:	48 98                	cltq   
    f185:	c7 84 85 e0 f1 ff ff 	movl   $0x3926ee58,-0xe20(%rbp,%rax,4)
    f18c:	58 ee 26 39 
    f190:	8b 05 a2 11 01 00    	mov    0x111a2(%rip),%eax        # 20338 <g_159>
    f196:	e9 37 12 00 00       	jmpq   103d2 <func_66+0x515f>
    f19b:	c7 85 18 f0 ff ff 01 	movl   $0x1,-0xfe8(%rbp)
    f1a2:	00 00 00 
    f1a5:	eb 4b                	jmp    f1f2 <func_66+0x3f7f>
    f1a7:	48 8b 05 92 1c 01 00 	mov    0x11c92(%rip),%rax        # 20e40 <g_76>
    f1ae:	48 8b 95 d0 ef ff ff 	mov    -0x1030(%rbp),%rdx
    f1b5:	8b 12                	mov    (%rdx),%edx
    f1b7:	89 10                	mov    %edx,(%rax)
    f1b9:	48 8b 85 d0 ef ff ff 	mov    -0x1030(%rbp),%rax
    f1c0:	8b 10                	mov    (%rax),%edx
    f1c2:	48 8b 05 27 20 01 00 	mov    0x12027(%rip),%rax        # 211f0 <g_939>
    f1c9:	48 8b 00             	mov    (%rax),%rax
    f1cc:	48 8b 00             	mov    (%rax),%rax
    f1cf:	48 85 c0             	test   %rax,%rax
    f1d2:	0f 94 c0             	sete   %al
    f1d5:	0f b6 c0             	movzbl %al,%eax
    f1d8:	09 c2                	or     %eax,%edx
    f1da:	48 8b 85 d0 ef ff ff 	mov    -0x1030(%rbp),%rax
    f1e1:	89 10                	mov    %edx,(%rax)
    f1e3:	8b 85 18 f0 ff ff    	mov    -0xfe8(%rbp),%eax
    f1e9:	83 e8 01             	sub    $0x1,%eax
    f1ec:	89 85 18 f0 ff ff    	mov    %eax,-0xfe8(%rbp)
    f1f2:	8b 85 18 f0 ff ff    	mov    -0xfe8(%rbp),%eax
    f1f8:	85 c0                	test   %eax,%eax
    f1fa:	79 ab                	jns    f1a7 <func_66+0x3f34>
    f1fc:	0f b7 05 27 11 01 00 	movzwl 0x11127(%rip),%eax        # 2032a <g_145>
    f203:	83 c0 01             	add    $0x1,%eax
    f206:	66 89 05 1d 11 01 00 	mov    %ax,0x1111d(%rip)        # 2032a <g_145>
    f20d:	0f b7 05 16 11 01 00 	movzwl 0x11116(%rip),%eax        # 2032a <g_145>
    f214:	66 83 f8 03          	cmp    $0x3,%ax
    f218:	0f 86 0e ff ff ff    	jbe    f12c <func_66+0x3eb9>
    f21e:	8b 05 84 12 01 00    	mov    0x11284(%rip),%eax        # 204a8 <g_1068>
    f224:	83 c0 01             	add    $0x1,%eax
    f227:	89 05 7b 12 01 00    	mov    %eax,0x1127b(%rip)        # 204a8 <g_1068>
    f22d:	8b 05 75 12 01 00    	mov    0x11275(%rip),%eax        # 204a8 <g_1068>
    f233:	83 f8 03             	cmp    $0x3,%eax
    f236:	0f 86 88 eb ff ff    	jbe    ddc4 <func_66+0x2b51>
    f23c:	8b 05 6a 12 01 00    	mov    0x1126a(%rip),%eax        # 204ac <g_1139>
    f242:	89 85 44 f0 ff ff    	mov    %eax,-0xfbc(%rbp)
    f248:	e9 6d 11 00 00       	jmpq   103ba <func_66+0x5147>
    f24d:	c7 85 7c f0 ff ff 55 	movl   $0x41131855,-0xf84(%rbp)
    f254:	18 13 41 
    f257:	c7 85 80 f0 ff ff 01 	movl   $0x1,-0xf80(%rbp)
    f25e:	00 00 00 
    f261:	48 c7 05 c4 10 01 00 	movq   $0x0,0x110c4(%rip)        # 20330 <g_154>
    f268:	00 00 00 00 
    f26c:	e9 35 11 00 00       	jmpq   103a6 <func_66+0x5133>
    f271:	48 b8 f2 fd 43 b5 ba 	movabs $0xa0f178bab543fdf2,%rax
    f278:	78 f1 a0 
    f27b:	48 89 85 80 f2 ff ff 	mov    %rax,-0xd80(%rbp)
    f282:	48 89 85 88 f2 ff ff 	mov    %rax,-0xd78(%rbp)
    f289:	48 89 85 90 f2 ff ff 	mov    %rax,-0xd70(%rbp)
    f290:	48 89 85 98 f2 ff ff 	mov    %rax,-0xd68(%rbp)
    f297:	48 89 85 a0 f2 ff ff 	mov    %rax,-0xd60(%rbp)
    f29e:	48 89 85 a8 f2 ff ff 	mov    %rax,-0xd58(%rbp)
    f2a5:	48 8d 85 fe ef ff ff 	lea    -0x1002(%rbp),%rax
    f2ac:	48 89 85 20 f8 ff ff 	mov    %rax,-0x7e0(%rbp)
    f2b3:	48 8d 85 fe ef ff ff 	lea    -0x1002(%rbp),%rax
    f2ba:	48 89 85 28 f8 ff ff 	mov    %rax,-0x7d8(%rbp)
    f2c1:	48 8d 05 58 10 01 00 	lea    0x11058(%rip),%rax        # 20320 <g_119>
    f2c8:	48 89 85 30 f8 ff ff 	mov    %rax,-0x7d0(%rbp)
    f2cf:	48 8d 05 4d 10 01 00 	lea    0x1104d(%rip),%rax        # 20323 <g_121+0x2>
    f2d6:	48 89 85 38 f8 ff ff 	mov    %rax,-0x7c8(%rbp)
    f2dd:	48 c7 85 40 f8 ff ff 	movq   $0x0,-0x7c0(%rbp)
    f2e4:	00 00 00 00 
    f2e8:	48 8d 85 fe ef ff ff 	lea    -0x1002(%rbp),%rax
    f2ef:	48 89 85 48 f8 ff ff 	mov    %rax,-0x7b8(%rbp)
    f2f6:	48 c7 85 50 f8 ff ff 	movq   $0x0,-0x7b0(%rbp)
    f2fd:	00 00 00 00 
    f301:	48 8d 05 38 10 01 00 	lea    0x11038(%rip),%rax        # 20340 <g_257>
    f308:	48 89 85 58 f8 ff ff 	mov    %rax,-0x7a8(%rbp)
    f30f:	48 8d 05 0c 10 01 00 	lea    0x1100c(%rip),%rax        # 20322 <g_121+0x1>
    f316:	48 89 85 60 f8 ff ff 	mov    %rax,-0x7a0(%rbp)
    f31d:	48 8d 05 ff 0f 01 00 	lea    0x10fff(%rip),%rax        # 20323 <g_121+0x2>
    f324:	48 89 85 68 f8 ff ff 	mov    %rax,-0x798(%rbp)
    f32b:	48 8d 05 f1 0f 01 00 	lea    0x10ff1(%rip),%rax        # 20323 <g_121+0x2>
    f332:	48 89 85 70 f8 ff ff 	mov    %rax,-0x790(%rbp)
    f339:	48 8d 05 e0 0f 01 00 	lea    0x10fe0(%rip),%rax        # 20320 <g_119>
    f340:	48 89 85 78 f8 ff ff 	mov    %rax,-0x788(%rbp)
    f347:	48 8d 05 d4 0f 01 00 	lea    0x10fd4(%rip),%rax        # 20322 <g_121+0x1>
    f34e:	48 89 85 80 f8 ff ff 	mov    %rax,-0x780(%rbp)
    f355:	48 8d 05 e4 0f 01 00 	lea    0x10fe4(%rip),%rax        # 20340 <g_257>
    f35c:	48 89 85 88 f8 ff ff 	mov    %rax,-0x778(%rbp)
    f363:	48 8d 05 b8 0f 01 00 	lea    0x10fb8(%rip),%rax        # 20322 <g_121+0x1>
    f36a:	48 89 85 90 f8 ff ff 	mov    %rax,-0x770(%rbp)
    f371:	48 8d 05 a8 0f 01 00 	lea    0x10fa8(%rip),%rax        # 20320 <g_119>
    f378:	48 89 85 98 f8 ff ff 	mov    %rax,-0x768(%rbp)
    f37f:	48 c7 85 a0 f8 ff ff 	movq   $0x0,-0x760(%rbp)
    f386:	00 00 00 00 
    f38a:	48 8d 05 af 0f 01 00 	lea    0x10faf(%rip),%rax        # 20340 <g_257>
    f391:	48 89 85 a8 f8 ff ff 	mov    %rax,-0x758(%rbp)
    f398:	48 8d 05 83 0f 01 00 	lea    0x10f83(%rip),%rax        # 20322 <g_121+0x1>
    f39f:	48 89 85 b0 f8 ff ff 	mov    %rax,-0x750(%rbp)
    f3a6:	48 8d 05 73 0f 01 00 	lea    0x10f73(%rip),%rax        # 20320 <g_119>
    f3ad:	48 89 85 b8 f8 ff ff 	mov    %rax,-0x748(%rbp)
    f3b4:	48 c7 85 c0 f8 ff ff 	movq   $0x0,-0x740(%rbp)
    f3bb:	00 00 00 00 
    f3bf:	48 8d 85 fe ef ff ff 	lea    -0x1002(%rbp),%rax
    f3c6:	48 89 85 c8 f8 ff ff 	mov    %rax,-0x738(%rbp)
    f3cd:	48 8d 85 fe ef ff ff 	lea    -0x1002(%rbp),%rax
    f3d4:	48 89 85 d0 f8 ff ff 	mov    %rax,-0x730(%rbp)
    f3db:	48 c7 85 d8 f8 ff ff 	movq   $0x0,-0x728(%rbp)
    f3e2:	00 00 00 00 
    f3e6:	48 8d 05 36 0f 01 00 	lea    0x10f36(%rip),%rax        # 20323 <g_121+0x2>
    f3ed:	48 89 85 e0 f8 ff ff 	mov    %rax,-0x720(%rbp)
    f3f4:	48 8d 05 cb 10 01 00 	lea    0x110cb(%rip),%rax        # 204c6 <g_1433>
    f3fb:	48 89 85 e8 f8 ff ff 	mov    %rax,-0x718(%rbp)
    f402:	48 c7 85 f0 f8 ff ff 	movq   $0x0,-0x710(%rbp)
    f409:	00 00 00 00 
    f40d:	48 8d 85 fe ef ff ff 	lea    -0x1002(%rbp),%rax
    f414:	48 89 85 f8 f8 ff ff 	mov    %rax,-0x708(%rbp)
    f41b:	48 8d 05 fe 0e 01 00 	lea    0x10efe(%rip),%rax        # 20320 <g_119>
    f422:	48 89 85 00 f9 ff ff 	mov    %rax,-0x700(%rbp)
    f429:	48 8d 05 96 10 01 00 	lea    0x11096(%rip),%rax        # 204c6 <g_1433>
    f430:	48 89 85 08 f9 ff ff 	mov    %rax,-0x6f8(%rbp)
    f437:	48 8d 05 88 10 01 00 	lea    0x11088(%rip),%rax        # 204c6 <g_1433>
    f43e:	48 89 85 10 f9 ff ff 	mov    %rax,-0x6f0(%rbp)
    f445:	48 8d 85 fe ef ff ff 	lea    -0x1002(%rbp),%rax
    f44c:	48 89 85 18 f9 ff ff 	mov    %rax,-0x6e8(%rbp)
    f453:	48 8d 05 ca 0e 01 00 	lea    0x10eca(%rip),%rax        # 20324 <g_121+0x3>
    f45a:	48 89 85 20 f9 ff ff 	mov    %rax,-0x6e0(%rbp)
    f461:	48 8d 85 fe ef ff ff 	lea    -0x1002(%rbp),%rax
    f468:	48 89 85 28 f9 ff ff 	mov    %rax,-0x6d8(%rbp)
    f46f:	48 8d 05 50 10 01 00 	lea    0x11050(%rip),%rax        # 204c6 <g_1433>
    f476:	48 89 85 30 f9 ff ff 	mov    %rax,-0x6d0(%rbp)
    f47d:	48 c7 85 38 f9 ff ff 	movq   $0x0,-0x6c8(%rbp)
    f484:	00 00 00 00 
    f488:	48 8d 05 93 0e 01 00 	lea    0x10e93(%rip),%rax        # 20322 <g_121+0x1>
    f48f:	48 89 85 40 f9 ff ff 	mov    %rax,-0x6c0(%rbp)
    f496:	48 8d 05 a3 0e 01 00 	lea    0x10ea3(%rip),%rax        # 20340 <g_257>
    f49d:	48 89 85 48 f9 ff ff 	mov    %rax,-0x6b8(%rbp)
    f4a4:	48 8d 05 77 0e 01 00 	lea    0x10e77(%rip),%rax        # 20322 <g_121+0x1>
    f4ab:	48 89 85 50 f9 ff ff 	mov    %rax,-0x6b0(%rbp)
    f4b2:	48 8d 85 fe ef ff ff 	lea    -0x1002(%rbp),%rax
    f4b9:	48 89 85 58 f9 ff ff 	mov    %rax,-0x6a8(%rbp)
    f4c0:	48 8d 05 59 0e 01 00 	lea    0x10e59(%rip),%rax        # 20320 <g_119>
    f4c7:	48 89 85 60 f9 ff ff 	mov    %rax,-0x6a0(%rbp)
    f4ce:	48 8d 05 f1 0f 01 00 	lea    0x10ff1(%rip),%rax        # 204c6 <g_1433>
    f4d5:	48 89 85 68 f9 ff ff 	mov    %rax,-0x698(%rbp)
    f4dc:	48 c7 85 70 f9 ff ff 	movq   $0x0,-0x690(%rbp)
    f4e3:	00 00 00 00 
    f4e7:	48 8d 05 35 0e 01 00 	lea    0x10e35(%rip),%rax        # 20323 <g_121+0x2>
    f4ee:	48 89 85 78 f9 ff ff 	mov    %rax,-0x688(%rbp)
    f4f5:	48 8d 05 ca 0f 01 00 	lea    0x10fca(%rip),%rax        # 204c6 <g_1433>
    f4fc:	48 89 85 80 f9 ff ff 	mov    %rax,-0x680(%rbp)
    f503:	48 8d 05 19 0e 01 00 	lea    0x10e19(%rip),%rax        # 20323 <g_121+0x2>
    f50a:	48 89 85 88 f9 ff ff 	mov    %rax,-0x678(%rbp)
    f511:	48 8d 85 fe ef ff ff 	lea    -0x1002(%rbp),%rax
    f518:	48 89 85 90 f9 ff ff 	mov    %rax,-0x670(%rbp)
    f51f:	48 8d 85 fe ef ff ff 	lea    -0x1002(%rbp),%rax
    f526:	48 89 85 98 f9 ff ff 	mov    %rax,-0x668(%rbp)
    f52d:	48 8d 05 ee 0d 01 00 	lea    0x10dee(%rip),%rax        # 20322 <g_121+0x1>
    f534:	48 89 85 a0 f9 ff ff 	mov    %rax,-0x660(%rbp)
    f53b:	48 8d 85 fe ef ff ff 	lea    -0x1002(%rbp),%rax
    f542:	48 89 85 a8 f9 ff ff 	mov    %rax,-0x658(%rbp)
    f549:	48 8d 85 fe ef ff ff 	lea    -0x1002(%rbp),%rax
    f550:	48 89 85 b0 f9 ff ff 	mov    %rax,-0x650(%rbp)
    f557:	48 8d 05 c5 0d 01 00 	lea    0x10dc5(%rip),%rax        # 20323 <g_121+0x2>
    f55e:	48 89 85 b8 f9 ff ff 	mov    %rax,-0x648(%rbp)
    f565:	48 8d 05 bb 0d 01 00 	lea    0x10dbb(%rip),%rax        # 20327 <g_121+0x6>
    f56c:	48 89 85 c0 f9 ff ff 	mov    %rax,-0x640(%rbp)
    f573:	48 c7 85 c8 f9 ff ff 	movq   $0x0,-0x638(%rbp)
    f57a:	00 00 00 00 
    f57e:	48 8d 05 41 0f 01 00 	lea    0x10f41(%rip),%rax        # 204c6 <g_1433>
    f585:	48 89 85 d0 f9 ff ff 	mov    %rax,-0x630(%rbp)
    f58c:	48 8d 85 fe ef ff ff 	lea    -0x1002(%rbp),%rax
    f593:	48 89 85 d8 f9 ff ff 	mov    %rax,-0x628(%rbp)
    f59a:	48 8d 85 fe ef ff ff 	lea    -0x1002(%rbp),%rax
    f5a1:	48 89 85 e0 f9 ff ff 	mov    %rax,-0x620(%rbp)
    f5a8:	48 c7 85 e8 f9 ff ff 	movq   $0x0,-0x618(%rbp)
    f5af:	00 00 00 00 
    f5b3:	48 8d 05 69 0d 01 00 	lea    0x10d69(%rip),%rax        # 20323 <g_121+0x2>
    f5ba:	48 89 85 f0 f9 ff ff 	mov    %rax,-0x610(%rbp)
    f5c1:	48 8d 05 fe 0e 01 00 	lea    0x10efe(%rip),%rax        # 204c6 <g_1433>
    f5c8:	48 89 85 f8 f9 ff ff 	mov    %rax,-0x608(%rbp)
    f5cf:	48 8d 85 fe ef ff ff 	lea    -0x1002(%rbp),%rax
    f5d6:	48 89 85 00 fa ff ff 	mov    %rax,-0x600(%rbp)
    f5dd:	48 c7 85 08 fa ff ff 	movq   $0x0,-0x5f8(%rbp)
    f5e4:	00 00 00 00 
    f5e8:	48 8d 05 31 0d 01 00 	lea    0x10d31(%rip),%rax        # 20320 <g_119>
    f5ef:	48 89 85 10 fa ff ff 	mov    %rax,-0x5f0(%rbp)
    f5f6:	48 8d 05 26 0d 01 00 	lea    0x10d26(%rip),%rax        # 20323 <g_121+0x2>
    f5fd:	48 89 85 18 fa ff ff 	mov    %rax,-0x5e8(%rbp)
    f604:	48 8d 05 18 0d 01 00 	lea    0x10d18(%rip),%rax        # 20323 <g_121+0x2>
    f60b:	48 89 85 20 fa ff ff 	mov    %rax,-0x5e0(%rbp)
    f612:	48 8d 05 09 0d 01 00 	lea    0x10d09(%rip),%rax        # 20322 <g_121+0x1>
    f619:	48 89 85 28 fa ff ff 	mov    %rax,-0x5d8(%rbp)
    f620:	48 8d 05 f9 0c 01 00 	lea    0x10cf9(%rip),%rax        # 20320 <g_119>
    f627:	48 89 85 30 fa ff ff 	mov    %rax,-0x5d0(%rbp)
    f62e:	48 8d 05 ed 0c 01 00 	lea    0x10ced(%rip),%rax        # 20322 <g_121+0x1>
    f635:	48 89 85 38 fa ff ff 	mov    %rax,-0x5c8(%rbp)
    f63c:	48 c7 85 40 fa ff ff 	movq   $0x0,-0x5c0(%rbp)
    f643:	00 00 00 00 
    f647:	48 8d 05 d2 0c 01 00 	lea    0x10cd2(%rip),%rax        # 20320 <g_119>
    f64e:	48 89 85 48 fa ff ff 	mov    %rax,-0x5b8(%rbp)
    f655:	48 8d 05 c4 0c 01 00 	lea    0x10cc4(%rip),%rax        # 20320 <g_119>
    f65c:	48 89 85 50 fa ff ff 	mov    %rax,-0x5b0(%rbp)
    f663:	48 8d 05 5c 0e 01 00 	lea    0x10e5c(%rip),%rax        # 204c6 <g_1433>
    f66a:	48 89 85 58 fa ff ff 	mov    %rax,-0x5a8(%rbp)
    f671:	48 8d 85 fe ef ff ff 	lea    -0x1002(%rbp),%rax
    f678:	48 89 85 60 fa ff ff 	mov    %rax,-0x5a0(%rbp)
    f67f:	48 8d 05 9c 0c 01 00 	lea    0x10c9c(%rip),%rax        # 20322 <g_121+0x1>
    f686:	48 89 85 68 fa ff ff 	mov    %rax,-0x598(%rbp)
    f68d:	48 8d 05 8e 0c 01 00 	lea    0x10c8e(%rip),%rax        # 20322 <g_121+0x1>
    f694:	48 89 85 70 fa ff ff 	mov    %rax,-0x590(%rbp)
    f69b:	48 8d 05 81 0c 01 00 	lea    0x10c81(%rip),%rax        # 20323 <g_121+0x2>
    f6a2:	48 89 85 78 fa ff ff 	mov    %rax,-0x588(%rbp)
    f6a9:	48 8d 85 fe ef ff ff 	lea    -0x1002(%rbp),%rax
    f6b0:	48 89 85 80 fa ff ff 	mov    %rax,-0x580(%rbp)
    f6b7:	48 8d 05 64 0c 01 00 	lea    0x10c64(%rip),%rax        # 20322 <g_121+0x1>
    f6be:	48 89 85 88 fa ff ff 	mov    %rax,-0x578(%rbp)
    f6c5:	48 8d 05 57 0c 01 00 	lea    0x10c57(%rip),%rax        # 20323 <g_121+0x2>
    f6cc:	48 89 85 90 fa ff ff 	mov    %rax,-0x570(%rbp)
    f6d3:	48 8d 05 49 0c 01 00 	lea    0x10c49(%rip),%rax        # 20323 <g_121+0x2>
    f6da:	48 89 85 98 fa ff ff 	mov    %rax,-0x568(%rbp)
    f6e1:	48 8d 05 3f 0c 01 00 	lea    0x10c3f(%rip),%rax        # 20327 <g_121+0x6>
    f6e8:	48 89 85 a0 fa ff ff 	mov    %rax,-0x560(%rbp)
    f6ef:	48 8d 05 2d 0c 01 00 	lea    0x10c2d(%rip),%rax        # 20323 <g_121+0x2>
    f6f6:	48 89 85 a8 fa ff ff 	mov    %rax,-0x558(%rbp)
    f6fd:	48 8d 85 fe ef ff ff 	lea    -0x1002(%rbp),%rax
    f704:	48 89 85 b0 fa ff ff 	mov    %rax,-0x550(%rbp)
    f70b:	48 8d 05 10 0c 01 00 	lea    0x10c10(%rip),%rax        # 20322 <g_121+0x1>
    f712:	48 89 85 b8 fa ff ff 	mov    %rax,-0x548(%rbp)
    f719:	48 c7 85 c0 fa ff ff 	movq   $0x0,-0x540(%rbp)
    f720:	00 00 00 00 
    f724:	48 8d 05 9b 0d 01 00 	lea    0x10d9b(%rip),%rax        # 204c6 <g_1433>
    f72b:	48 89 85 c8 fa ff ff 	mov    %rax,-0x538(%rbp)
    f732:	48 8d 85 fe ef ff ff 	lea    -0x1002(%rbp),%rax
    f739:	48 89 85 d0 fa ff ff 	mov    %rax,-0x530(%rbp)
    f740:	48 8d 05 db 0b 01 00 	lea    0x10bdb(%rip),%rax        # 20322 <g_121+0x1>
    f747:	48 89 85 d8 fa ff ff 	mov    %rax,-0x528(%rbp)
    f74e:	48 8d 85 fe ef ff ff 	lea    -0x1002(%rbp),%rax
    f755:	48 89 85 e0 fa ff ff 	mov    %rax,-0x520(%rbp)
    f75c:	48 8d 05 c4 0b 01 00 	lea    0x10bc4(%rip),%rax        # 20327 <g_121+0x6>
    f763:	48 89 85 e8 fa ff ff 	mov    %rax,-0x518(%rbp)
    f76a:	48 8d 05 b2 0b 01 00 	lea    0x10bb2(%rip),%rax        # 20323 <g_121+0x2>
    f771:	48 89 85 f0 fa ff ff 	mov    %rax,-0x510(%rbp)
    f778:	48 8d 05 a3 0b 01 00 	lea    0x10ba3(%rip),%rax        # 20322 <g_121+0x1>
    f77f:	48 89 85 f8 fa ff ff 	mov    %rax,-0x508(%rbp)
    f786:	48 8d 05 93 0b 01 00 	lea    0x10b93(%rip),%rax        # 20320 <g_119>
    f78d:	48 89 85 00 fb ff ff 	mov    %rax,-0x500(%rbp)
    f794:	48 8d 05 85 0b 01 00 	lea    0x10b85(%rip),%rax        # 20320 <g_119>
    f79b:	48 89 85 08 fb ff ff 	mov    %rax,-0x4f8(%rbp)
    f7a2:	48 8d 85 fe ef ff ff 	lea    -0x1002(%rbp),%rax
    f7a9:	48 89 85 10 fb ff ff 	mov    %rax,-0x4f0(%rbp)
    f7b0:	48 8d 05 89 0b 01 00 	lea    0x10b89(%rip),%rax        # 20340 <g_257>
    f7b7:	48 89 85 18 fb ff ff 	mov    %rax,-0x4e8(%rbp)
    f7be:	48 8d 05 5d 0b 01 00 	lea    0x10b5d(%rip),%rax        # 20322 <g_121+0x1>
    f7c5:	48 89 85 20 fb ff ff 	mov    %rax,-0x4e0(%rbp)
    f7cc:	48 c7 85 28 fb ff ff 	movq   $0x0,-0x4d8(%rbp)
    f7d3:	00 00 00 00 
    f7d7:	48 c7 85 30 fb ff ff 	movq   $0x0,-0x4d0(%rbp)
    f7de:	00 00 00 00 
    f7e2:	48 8d 05 39 0b 01 00 	lea    0x10b39(%rip),%rax        # 20322 <g_121+0x1>
    f7e9:	48 89 85 38 fb ff ff 	mov    %rax,-0x4c8(%rbp)
    f7f0:	48 8d 05 2c 0b 01 00 	lea    0x10b2c(%rip),%rax        # 20323 <g_121+0x2>
    f7f7:	48 89 85 40 fb ff ff 	mov    %rax,-0x4c0(%rbp)
    f7fe:	48 8d 85 fe ef ff ff 	lea    -0x1002(%rbp),%rax
    f805:	48 89 85 48 fb ff ff 	mov    %rax,-0x4b8(%rbp)
    f80c:	48 8d 05 14 0b 01 00 	lea    0x10b14(%rip),%rax        # 20327 <g_121+0x6>
    f813:	48 89 85 50 fb ff ff 	mov    %rax,-0x4b0(%rbp)
    f81a:	48 8d 05 01 0b 01 00 	lea    0x10b01(%rip),%rax        # 20322 <g_121+0x1>
    f821:	48 89 85 58 fb ff ff 	mov    %rax,-0x4a8(%rbp)
    f828:	48 8d 85 fe ef ff ff 	lea    -0x1002(%rbp),%rax
    f82f:	48 89 85 60 fb ff ff 	mov    %rax,-0x4a0(%rbp)
    f836:	48 8d 85 fe ef ff ff 	lea    -0x1002(%rbp),%rax
    f83d:	48 89 85 68 fb ff ff 	mov    %rax,-0x498(%rbp)
    f844:	48 8d 05 d8 0a 01 00 	lea    0x10ad8(%rip),%rax        # 20323 <g_121+0x2>
    f84b:	48 89 85 70 fb ff ff 	mov    %rax,-0x490(%rbp)
    f852:	48 8d 85 fe ef ff ff 	lea    -0x1002(%rbp),%rax
    f859:	48 89 85 78 fb ff ff 	mov    %rax,-0x488(%rbp)
    f860:	48 8d 05 d9 0a 01 00 	lea    0x10ad9(%rip),%rax        # 20340 <g_257>
    f867:	48 89 85 80 fb ff ff 	mov    %rax,-0x480(%rbp)
    f86e:	48 8d 05 51 0c 01 00 	lea    0x10c51(%rip),%rax        # 204c6 <g_1433>
    f875:	48 89 85 88 fb ff ff 	mov    %rax,-0x478(%rbp)
    f87c:	48 8d 85 fe ef ff ff 	lea    -0x1002(%rbp),%rax
    f883:	48 89 85 90 fb ff ff 	mov    %rax,-0x470(%rbp)
    f88a:	48 8d 85 fe ef ff ff 	lea    -0x1002(%rbp),%rax
    f891:	48 89 85 98 fb ff ff 	mov    %rax,-0x468(%rbp)
    f898:	48 c7 85 a0 fb ff ff 	movq   $0x0,-0x460(%rbp)
    f89f:	00 00 00 00 
    f8a3:	48 8d 05 78 0a 01 00 	lea    0x10a78(%rip),%rax        # 20322 <g_121+0x1>
    f8aa:	48 89 85 a8 fb ff ff 	mov    %rax,-0x458(%rbp)
    f8b1:	48 c7 85 b0 fb ff ff 	movq   $0x0,-0x450(%rbp)
    f8b8:	00 00 00 00 
    f8bc:	48 8d 85 fe ef ff ff 	lea    -0x1002(%rbp),%rax
    f8c3:	48 89 85 b8 fb ff ff 	mov    %rax,-0x448(%rbp)
    f8ca:	48 8d 05 f5 0b 01 00 	lea    0x10bf5(%rip),%rax        # 204c6 <g_1433>
    f8d1:	48 89 85 c0 fb ff ff 	mov    %rax,-0x440(%rbp)
    f8d8:	48 8d 05 61 0a 01 00 	lea    0x10a61(%rip),%rax        # 20340 <g_257>
    f8df:	48 89 85 c8 fb ff ff 	mov    %rax,-0x438(%rbp)
    f8e6:	48 8d 05 36 0a 01 00 	lea    0x10a36(%rip),%rax        # 20323 <g_121+0x2>
    f8ed:	48 89 85 d0 fb ff ff 	mov    %rax,-0x430(%rbp)
    f8f4:	48 8d 05 27 0a 01 00 	lea    0x10a27(%rip),%rax        # 20322 <g_121+0x1>
    f8fb:	48 89 85 d8 fb ff ff 	mov    %rax,-0x428(%rbp)
    f902:	48 8d 05 1a 0a 01 00 	lea    0x10a1a(%rip),%rax        # 20323 <g_121+0x2>
    f909:	48 89 85 e0 fb ff ff 	mov    %rax,-0x420(%rbp)
    f910:	48 8d 05 09 0a 01 00 	lea    0x10a09(%rip),%rax        # 20320 <g_119>
    f917:	48 89 85 e8 fb ff ff 	mov    %rax,-0x418(%rbp)
    f91e:	48 8d 05 ff 09 01 00 	lea    0x109ff(%rip),%rax        # 20324 <g_121+0x3>
    f925:	48 89 85 f0 fb ff ff 	mov    %rax,-0x410(%rbp)
    f92c:	48 8d 05 0d 0a 01 00 	lea    0x10a0d(%rip),%rax        # 20340 <g_257>
    f933:	48 89 85 f8 fb ff ff 	mov    %rax,-0x408(%rbp)
    f93a:	48 8d 05 df 09 01 00 	lea    0x109df(%rip),%rax        # 20320 <g_119>
    f941:	48 89 85 00 fc ff ff 	mov    %rax,-0x400(%rbp)
    f948:	48 8d 05 f1 09 01 00 	lea    0x109f1(%rip),%rax        # 20340 <g_257>
    f94f:	48 89 85 08 fc ff ff 	mov    %rax,-0x3f8(%rbp)
    f956:	48 c7 85 10 fc ff ff 	movq   $0x0,-0x3f0(%rbp)
    f95d:	00 00 00 00 
    f961:	48 8d 85 fe ef ff ff 	lea    -0x1002(%rbp),%rax
    f968:	48 89 85 18 fc ff ff 	mov    %rax,-0x3e8(%rbp)
    f96f:	48 8d 05 50 0b 01 00 	lea    0x10b50(%rip),%rax        # 204c6 <g_1433>
    f976:	48 89 85 20 fc ff ff 	mov    %rax,-0x3e0(%rbp)
    f97d:	48 8d 05 9c 09 01 00 	lea    0x1099c(%rip),%rax        # 20320 <g_119>
    f984:	48 89 85 28 fc ff ff 	mov    %rax,-0x3d8(%rbp)
    f98b:	48 8d 05 91 09 01 00 	lea    0x10991(%rip),%rax        # 20323 <g_121+0x2>
    f992:	48 89 85 30 fc ff ff 	mov    %rax,-0x3d0(%rbp)
    f999:	48 8d 85 fe ef ff ff 	lea    -0x1002(%rbp),%rax
    f9a0:	48 89 85 38 fc ff ff 	mov    %rax,-0x3c8(%rbp)
    f9a7:	48 8d 85 fe ef ff ff 	lea    -0x1002(%rbp),%rax
    f9ae:	48 89 85 40 fc ff ff 	mov    %rax,-0x3c0(%rbp)
    f9b5:	48 8d 05 67 09 01 00 	lea    0x10967(%rip),%rax        # 20323 <g_121+0x2>
    f9bc:	48 89 85 48 fc ff ff 	mov    %rax,-0x3b8(%rbp)
    f9c3:	48 8d 05 58 09 01 00 	lea    0x10958(%rip),%rax        # 20322 <g_121+0x1>
    f9ca:	48 89 85 50 fc ff ff 	mov    %rax,-0x3b0(%rbp)
    f9d1:	48 8d 05 ee 0a 01 00 	lea    0x10aee(%rip),%rax        # 204c6 <g_1433>
    f9d8:	48 89 85 58 fc ff ff 	mov    %rax,-0x3a8(%rbp)
    f9df:	48 8d 05 3d 09 01 00 	lea    0x1093d(%rip),%rax        # 20323 <g_121+0x2>
    f9e6:	48 89 85 60 fc ff ff 	mov    %rax,-0x3a0(%rbp)
    f9ed:	48 8d 05 4c 09 01 00 	lea    0x1094c(%rip),%rax        # 20340 <g_257>
    f9f4:	48 89 85 68 fc ff ff 	mov    %rax,-0x398(%rbp)
    f9fb:	48 8d 05 1e 09 01 00 	lea    0x1091e(%rip),%rax        # 20320 <g_119>
    fa02:	48 89 85 70 fc ff ff 	mov    %rax,-0x390(%rbp)
    fa09:	48 c7 85 78 fc ff ff 	movq   $0x0,-0x388(%rbp)
    fa10:	00 00 00 00 
    fa14:	48 8d 05 0c 09 01 00 	lea    0x1090c(%rip),%rax        # 20327 <g_121+0x6>
    fa1b:	48 89 85 80 fc ff ff 	mov    %rax,-0x380(%rbp)
    fa22:	48 8d 85 fe ef ff ff 	lea    -0x1002(%rbp),%rax
    fa29:	48 89 85 88 fc ff ff 	mov    %rax,-0x378(%rbp)
    fa30:	48 8d 05 eb 08 01 00 	lea    0x108eb(%rip),%rax        # 20322 <g_121+0x1>
    fa37:	48 89 85 90 fc ff ff 	mov    %rax,-0x370(%rbp)
    fa3e:	48 8d 85 fe ef ff ff 	lea    -0x1002(%rbp),%rax
    fa45:	48 89 85 98 fc ff ff 	mov    %rax,-0x368(%rbp)
    fa4c:	48 8d 05 73 0a 01 00 	lea    0x10a73(%rip),%rax        # 204c6 <g_1433>
    fa53:	48 89 85 a0 fc ff ff 	mov    %rax,-0x360(%rbp)
    fa5a:	48 8d 05 c2 08 01 00 	lea    0x108c2(%rip),%rax        # 20323 <g_121+0x2>
    fa61:	48 89 85 a8 fc ff ff 	mov    %rax,-0x358(%rbp)
    fa68:	48 8d 05 57 0a 01 00 	lea    0x10a57(%rip),%rax        # 204c6 <g_1433>
    fa6f:	48 89 85 b0 fc ff ff 	mov    %rax,-0x350(%rbp)
    fa76:	48 8d 05 c3 08 01 00 	lea    0x108c3(%rip),%rax        # 20340 <g_257>
    fa7d:	48 89 85 b8 fc ff ff 	mov    %rax,-0x348(%rbp)
    fa84:	48 8d 05 95 08 01 00 	lea    0x10895(%rip),%rax        # 20320 <g_119>
    fa8b:	48 89 85 c0 fc ff ff 	mov    %rax,-0x340(%rbp)
    fa92:	48 8d 85 fe ef ff ff 	lea    -0x1002(%rbp),%rax
    fa99:	48 89 85 c8 fc ff ff 	mov    %rax,-0x338(%rbp)
    faa0:	48 8d 05 79 08 01 00 	lea    0x10879(%rip),%rax        # 20320 <g_119>
    faa7:	48 89 85 d0 fc ff ff 	mov    %rax,-0x330(%rbp)
    faae:	48 8d 05 6d 08 01 00 	lea    0x1086d(%rip),%rax        # 20322 <g_121+0x1>
    fab5:	48 89 85 d8 fc ff ff 	mov    %rax,-0x328(%rbp)
    fabc:	48 8d 05 5d 08 01 00 	lea    0x1085d(%rip),%rax        # 20320 <g_119>
    fac3:	48 89 85 e0 fc ff ff 	mov    %rax,-0x320(%rbp)
    faca:	48 8d 05 52 08 01 00 	lea    0x10852(%rip),%rax        # 20323 <g_121+0x2>
    fad1:	48 89 85 e8 fc ff ff 	mov    %rax,-0x318(%rbp)
    fad8:	48 8d 05 43 08 01 00 	lea    0x10843(%rip),%rax        # 20322 <g_121+0x1>
    fadf:	48 89 85 f0 fc ff ff 	mov    %rax,-0x310(%rbp)
    fae6:	48 8d 05 35 08 01 00 	lea    0x10835(%rip),%rax        # 20322 <g_121+0x1>
    faed:	48 89 85 f8 fc ff ff 	mov    %rax,-0x308(%rbp)
    faf4:	48 8d 85 fe ef ff ff 	lea    -0x1002(%rbp),%rax
    fafb:	48 89 85 00 fd ff ff 	mov    %rax,-0x300(%rbp)
    fb02:	48 8d 05 1e 08 01 00 	lea    0x1081e(%rip),%rax        # 20327 <g_121+0x6>
    fb09:	48 89 85 08 fd ff ff 	mov    %rax,-0x2f8(%rbp)
    fb10:	48 8d 05 af 09 01 00 	lea    0x109af(%rip),%rax        # 204c6 <g_1433>
    fb17:	48 89 85 10 fd ff ff 	mov    %rax,-0x2f0(%rbp)
    fb1e:	48 8d 85 fe ef ff ff 	lea    -0x1002(%rbp),%rax
    fb25:	48 89 85 18 fd ff ff 	mov    %rax,-0x2e8(%rbp)
    fb2c:	48 8d 85 fe ef ff ff 	lea    -0x1002(%rbp),%rax
    fb33:	48 89 85 20 fd ff ff 	mov    %rax,-0x2e0(%rbp)
    fb3a:	48 c7 85 28 fd ff ff 	movq   $0x0,-0x2d8(%rbp)
    fb41:	00 00 00 00 
    fb45:	48 8d 05 db 07 01 00 	lea    0x107db(%rip),%rax        # 20327 <g_121+0x6>
    fb4c:	48 89 85 30 fd ff ff 	mov    %rax,-0x2d0(%rbp)
    fb53:	48 8d 05 e6 07 01 00 	lea    0x107e6(%rip),%rax        # 20340 <g_257>
    fb5a:	48 89 85 38 fd ff ff 	mov    %rax,-0x2c8(%rbp)
    fb61:	48 8d 05 bf 07 01 00 	lea    0x107bf(%rip),%rax        # 20327 <g_121+0x6>
    fb68:	48 89 85 40 fd ff ff 	mov    %rax,-0x2c0(%rbp)
    fb6f:	48 8d 85 fe ef ff ff 	lea    -0x1002(%rbp),%rax
    fb76:	48 89 85 48 fd ff ff 	mov    %rax,-0x2b8(%rbp)
    fb7d:	48 8d 85 fe ef ff ff 	lea    -0x1002(%rbp),%rax
    fb84:	48 89 85 50 fd ff ff 	mov    %rax,-0x2b0(%rbp)
    fb8b:	48 8d 05 8e 07 01 00 	lea    0x1078e(%rip),%rax        # 20320 <g_119>
    fb92:	48 89 85 58 fd ff ff 	mov    %rax,-0x2a8(%rbp)
    fb99:	48 8d 05 83 07 01 00 	lea    0x10783(%rip),%rax        # 20323 <g_121+0x2>
    fba0:	48 89 85 60 fd ff ff 	mov    %rax,-0x2a0(%rbp)
    fba7:	48 c7 85 68 fd ff ff 	movq   $0x0,-0x298(%rbp)
    fbae:	00 00 00 00 
    fbb2:	48 8d 85 fe ef ff ff 	lea    -0x1002(%rbp),%rax
    fbb9:	48 89 85 70 fd ff ff 	mov    %rax,-0x290(%rbp)
    fbc0:	48 c7 85 78 fd ff ff 	movq   $0x0,-0x288(%rbp)
    fbc7:	00 00 00 00 
    fbcb:	48 8d 05 6e 07 01 00 	lea    0x1076e(%rip),%rax        # 20340 <g_257>
    fbd2:	48 89 85 80 fd ff ff 	mov    %rax,-0x280(%rbp)
    fbd9:	48 8d 05 42 07 01 00 	lea    0x10742(%rip),%rax        # 20322 <g_121+0x1>
    fbe0:	48 89 85 88 fd ff ff 	mov    %rax,-0x278(%rbp)
    fbe7:	48 8d 05 d8 08 01 00 	lea    0x108d8(%rip),%rax        # 204c6 <g_1433>
    fbee:	48 89 85 90 fd ff ff 	mov    %rax,-0x270(%rbp)
    fbf5:	48 8d 05 ca 08 01 00 	lea    0x108ca(%rip),%rax        # 204c6 <g_1433>
    fbfc:	48 89 85 98 fd ff ff 	mov    %rax,-0x268(%rbp)
    fc03:	48 8d 05 16 07 01 00 	lea    0x10716(%rip),%rax        # 20320 <g_119>
    fc0a:	48 89 85 a0 fd ff ff 	mov    %rax,-0x260(%rbp)
    fc11:	48 8d 05 08 07 01 00 	lea    0x10708(%rip),%rax        # 20320 <g_119>
    fc18:	48 89 85 a8 fd ff ff 	mov    %rax,-0x258(%rbp)
    fc1f:	48 8d 85 fe ef ff ff 	lea    -0x1002(%rbp),%rax
    fc26:	48 89 85 b0 fd ff ff 	mov    %rax,-0x250(%rbp)
    fc2d:	48 8d 85 fe ef ff ff 	lea    -0x1002(%rbp),%rax
    fc34:	48 89 85 b8 fd ff ff 	mov    %rax,-0x248(%rbp)
    fc3b:	48 8d 05 e0 06 01 00 	lea    0x106e0(%rip),%rax        # 20322 <g_121+0x1>
    fc42:	48 89 85 c0 fd ff ff 	mov    %rax,-0x240(%rbp)
    fc49:	48 8d 05 d7 06 01 00 	lea    0x106d7(%rip),%rax        # 20327 <g_121+0x6>
    fc50:	48 89 85 c8 fd ff ff 	mov    %rax,-0x238(%rbp)
    fc57:	48 8d 05 c2 06 01 00 	lea    0x106c2(%rip),%rax        # 20320 <g_119>
    fc5e:	48 89 85 d0 fd ff ff 	mov    %rax,-0x230(%rbp)
    fc65:	48 c7 85 d8 fd ff ff 	movq   $0x0,-0x228(%rbp)
    fc6c:	00 00 00 00 
    fc70:	48 8d 05 4f 08 01 00 	lea    0x1084f(%rip),%rax        # 204c6 <g_1433>
    fc77:	48 89 85 e0 fd ff ff 	mov    %rax,-0x220(%rbp)
    fc7e:	48 8d 05 9d 06 01 00 	lea    0x1069d(%rip),%rax        # 20322 <g_121+0x1>
    fc85:	48 89 85 e8 fd ff ff 	mov    %rax,-0x218(%rbp)
    fc8c:	48 c7 85 f0 fd ff ff 	movq   $0x0,-0x210(%rbp)
    fc93:	00 00 00 00 
    fc97:	48 8d 05 a2 06 01 00 	lea    0x106a2(%rip),%rax        # 20340 <g_257>
    fc9e:	48 89 85 f8 fd ff ff 	mov    %rax,-0x208(%rbp)
    fca5:	48 8d 05 76 06 01 00 	lea    0x10676(%rip),%rax        # 20322 <g_121+0x1>
    fcac:	48 89 85 00 fe ff ff 	mov    %rax,-0x200(%rbp)
    fcb3:	48 8d 05 0c 08 01 00 	lea    0x1080c(%rip),%rax        # 204c6 <g_1433>
    fcba:	48 89 85 08 fe ff ff 	mov    %rax,-0x1f8(%rbp)
    fcc1:	48 8d 05 78 06 01 00 	lea    0x10678(%rip),%rax        # 20340 <g_257>
    fcc8:	48 89 85 10 fe ff ff 	mov    %rax,-0x1f0(%rbp)
    fccf:	48 8d 05 4c 06 01 00 	lea    0x1064c(%rip),%rax        # 20322 <g_121+0x1>
    fcd6:	48 89 85 18 fe ff ff 	mov    %rax,-0x1e8(%rbp)
    fcdd:	48 8d 05 e2 07 01 00 	lea    0x107e2(%rip),%rax        # 204c6 <g_1433>
    fce4:	48 89 85 20 fe ff ff 	mov    %rax,-0x1e0(%rbp)
    fceb:	48 8d 05 d4 07 01 00 	lea    0x107d4(%rip),%rax        # 204c6 <g_1433>
    fcf2:	48 89 85 28 fe ff ff 	mov    %rax,-0x1d8(%rbp)
    fcf9:	48 8d 85 fe ef ff ff 	lea    -0x1002(%rbp),%rax
    fd00:	48 89 85 30 fe ff ff 	mov    %rax,-0x1d0(%rbp)
    fd07:	48 8d 05 32 06 01 00 	lea    0x10632(%rip),%rax        # 20340 <g_257>
    fd0e:	48 89 85 38 fe ff ff 	mov    %rax,-0x1c8(%rbp)
    fd15:	48 8d 05 04 06 01 00 	lea    0x10604(%rip),%rax        # 20320 <g_119>
    fd1c:	48 89 85 40 fe ff ff 	mov    %rax,-0x1c0(%rbp)
    fd23:	48 8d 05 f8 05 01 00 	lea    0x105f8(%rip),%rax        # 20322 <g_121+0x1>
    fd2a:	48 89 85 48 fe ff ff 	mov    %rax,-0x1b8(%rbp)
    fd31:	48 8d 05 e8 05 01 00 	lea    0x105e8(%rip),%rax        # 20320 <g_119>
    fd38:	48 89 85 50 fe ff ff 	mov    %rax,-0x1b0(%rbp)
    fd3f:	48 8d 05 fa 05 01 00 	lea    0x105fa(%rip),%rax        # 20340 <g_257>
    fd46:	48 89 85 58 fe ff ff 	mov    %rax,-0x1a8(%rbp)
    fd4d:	48 8d 05 ce 05 01 00 	lea    0x105ce(%rip),%rax        # 20322 <g_121+0x1>
    fd54:	48 89 85 60 fe ff ff 	mov    %rax,-0x1a0(%rbp)
    fd5b:	48 c7 85 68 fe ff ff 	movq   $0x0,-0x198(%rbp)
    fd62:	00 00 00 00 
    fd66:	48 8d 05 b7 05 01 00 	lea    0x105b7(%rip),%rax        # 20324 <g_121+0x3>
    fd6d:	48 89 85 70 fe ff ff 	mov    %rax,-0x190(%rbp)
    fd74:	48 8d 85 fe ef ff ff 	lea    -0x1002(%rbp),%rax
    fd7b:	48 89 85 78 fe ff ff 	mov    %rax,-0x188(%rbp)
    fd82:	48 c7 85 80 fe ff ff 	movq   $0x0,-0x180(%rbp)
    fd89:	00 00 00 00 
    fd8d:	48 8d 05 8e 05 01 00 	lea    0x1058e(%rip),%rax        # 20322 <g_121+0x1>
    fd94:	48 89 85 88 fe ff ff 	mov    %rax,-0x178(%rbp)
    fd9b:	48 8d 05 7e 05 01 00 	lea    0x1057e(%rip),%rax        # 20320 <g_119>
    fda2:	48 89 85 90 fe ff ff 	mov    %rax,-0x170(%rbp)
    fda9:	48 8d 05 72 05 01 00 	lea    0x10572(%rip),%rax        # 20322 <g_121+0x1>
    fdb0:	48 89 85 98 fe ff ff 	mov    %rax,-0x168(%rbp)
    fdb7:	48 8d 85 fe ef ff ff 	lea    -0x1002(%rbp),%rax
    fdbe:	48 89 85 a0 fe ff ff 	mov    %rax,-0x160(%rbp)
    fdc5:	48 8d 05 54 05 01 00 	lea    0x10554(%rip),%rax        # 20320 <g_119>
    fdcc:	48 89 85 a8 fe ff ff 	mov    %rax,-0x158(%rbp)
    fdd3:	48 8d 05 ec 06 01 00 	lea    0x106ec(%rip),%rax        # 204c6 <g_1433>
    fdda:	48 89 85 b0 fe ff ff 	mov    %rax,-0x150(%rbp)
    fde1:	48 8d 05 38 05 01 00 	lea    0x10538(%rip),%rax        # 20320 <g_119>
    fde8:	48 89 85 b8 fe ff ff 	mov    %rax,-0x148(%rbp)
    fdef:	48 8d 05 2a 05 01 00 	lea    0x1052a(%rip),%rax        # 20320 <g_119>
    fdf6:	48 89 85 c0 fe ff ff 	mov    %rax,-0x140(%rbp)
    fdfd:	48 c7 85 c8 fe ff ff 	movq   $0x0,-0x138(%rbp)
    fe04:	00 00 00 00 
    fe08:	48 c7 85 d0 fe ff ff 	movq   $0x0,-0x130(%rbp)
    fe0f:	00 00 00 00 
    fe13:	48 8d 05 ac 06 01 00 	lea    0x106ac(%rip),%rax        # 204c6 <g_1433>
    fe1a:	48 89 85 d8 fe ff ff 	mov    %rax,-0x128(%rbp)
    fe21:	48 8d 85 fe ef ff ff 	lea    -0x1002(%rbp),%rax
    fe28:	48 89 85 e0 fe ff ff 	mov    %rax,-0x120(%rbp)
    fe2f:	48 8d 05 ea 04 01 00 	lea    0x104ea(%rip),%rax        # 20320 <g_119>
    fe36:	48 89 85 e8 fe ff ff 	mov    %rax,-0x118(%rbp)
    fe3d:	48 8d 05 fc 04 01 00 	lea    0x104fc(%rip),%rax        # 20340 <g_257>
    fe44:	48 89 85 f0 fe ff ff 	mov    %rax,-0x110(%rbp)
    fe4b:	48 8d 05 ee 04 01 00 	lea    0x104ee(%rip),%rax        # 20340 <g_257>
    fe52:	48 89 85 f8 fe ff ff 	mov    %rax,-0x108(%rbp)
    fe59:	48 c7 85 00 ff ff ff 	movq   $0x0,-0x100(%rbp)
    fe60:	00 00 00 00 
    fe64:	48 8d 05 d5 04 01 00 	lea    0x104d5(%rip),%rax        # 20340 <g_257>
    fe6b:	48 89 85 08 ff ff ff 	mov    %rax,-0xf8(%rbp)
    fe72:	48 8d 05 a9 04 01 00 	lea    0x104a9(%rip),%rax        # 20322 <g_121+0x1>
    fe79:	48 89 85 10 ff ff ff 	mov    %rax,-0xf0(%rbp)
    fe80:	48 8d 05 3f 06 01 00 	lea    0x1063f(%rip),%rax        # 204c6 <g_1433>
    fe87:	48 89 85 18 ff ff ff 	mov    %rax,-0xe8(%rbp)
    fe8e:	48 8d 85 fe ef ff ff 	lea    -0x1002(%rbp),%rax
    fe95:	48 89 85 20 ff ff ff 	mov    %rax,-0xe0(%rbp)
    fe9c:	48 8d 05 7d 04 01 00 	lea    0x1047d(%rip),%rax        # 20320 <g_119>
    fea3:	48 89 85 28 ff ff ff 	mov    %rax,-0xd8(%rbp)
    feaa:	48 8d 05 76 04 01 00 	lea    0x10476(%rip),%rax        # 20327 <g_121+0x6>
    feb1:	48 89 85 30 ff ff ff 	mov    %rax,-0xd0(%rbp)
    feb8:	48 8d 05 64 04 01 00 	lea    0x10464(%rip),%rax        # 20323 <g_121+0x2>
    febf:	48 89 85 38 ff ff ff 	mov    %rax,-0xc8(%rbp)
    fec6:	48 8d 05 f9 05 01 00 	lea    0x105f9(%rip),%rax        # 204c6 <g_1433>
    fecd:	48 89 85 40 ff ff ff 	mov    %rax,-0xc0(%rbp)
    fed4:	48 8d 05 eb 05 01 00 	lea    0x105eb(%rip),%rax        # 204c6 <g_1433>
    fedb:	48 89 85 48 ff ff ff 	mov    %rax,-0xb8(%rbp)
    fee2:	48 8d 05 37 04 01 00 	lea    0x10437(%rip),%rax        # 20320 <g_119>
    fee9:	48 89 85 50 ff ff ff 	mov    %rax,-0xb0(%rbp)
    fef0:	48 8d 05 2b 04 01 00 	lea    0x1042b(%rip),%rax        # 20322 <g_121+0x1>
    fef7:	48 89 85 58 ff ff ff 	mov    %rax,-0xa8(%rbp)
    fefe:	48 8d 05 1b 04 01 00 	lea    0x1041b(%rip),%rax        # 20320 <g_119>
    ff05:	48 89 85 60 ff ff ff 	mov    %rax,-0xa0(%rbp)
    ff0c:	48 8d 05 2d 04 01 00 	lea    0x1042d(%rip),%rax        # 20340 <g_257>
    ff13:	48 89 85 68 ff ff ff 	mov    %rax,-0x98(%rbp)
    ff1a:	48 8d 05 a5 05 01 00 	lea    0x105a5(%rip),%rax        # 204c6 <g_1433>
    ff21:	48 89 85 70 ff ff ff 	mov    %rax,-0x90(%rbp)
    ff28:	48 8d 05 f3 03 01 00 	lea    0x103f3(%rip),%rax        # 20322 <g_121+0x1>
    ff2f:	48 89 85 78 ff ff ff 	mov    %rax,-0x88(%rbp)
    ff36:	48 8d 85 fe ef ff ff 	lea    -0x1002(%rbp),%rax
    ff3d:	48 89 45 80          	mov    %rax,-0x80(%rbp)
    ff41:	48 8d 05 7e 05 01 00 	lea    0x1057e(%rip),%rax        # 204c6 <g_1433>
    ff48:	48 89 45 88          	mov    %rax,-0x78(%rbp)
    ff4c:	48 c7 45 90 00 00 00 	movq   $0x0,-0x70(%rbp)
    ff53:	00 
    ff54:	48 8d 85 fe ef ff ff 	lea    -0x1002(%rbp),%rax
    ff5b:	48 89 45 98          	mov    %rax,-0x68(%rbp)
    ff5f:	48 8d 85 fe ef ff ff 	lea    -0x1002(%rbp),%rax
    ff66:	48 89 45 a0          	mov    %rax,-0x60(%rbp)
    ff6a:	48 c7 45 a8 00 00 00 	movq   $0x0,-0x58(%rbp)
    ff71:	00 
    ff72:	48 8d 05 c7 03 01 00 	lea    0x103c7(%rip),%rax        # 20340 <g_257>
    ff79:	48 89 45 b0          	mov    %rax,-0x50(%rbp)
    ff7d:	48 8d 85 fe ef ff ff 	lea    -0x1002(%rbp),%rax
    ff84:	48 89 45 b8          	mov    %rax,-0x48(%rbp)
    ff88:	48 8d 05 37 05 01 00 	lea    0x10537(%rip),%rax        # 204c6 <g_1433>
    ff8f:	48 89 45 c0          	mov    %rax,-0x40(%rbp)
    ff93:	c6 85 ff ef ff ff 80 	movb   $0x80,-0x1001(%rbp)
    ff9a:	66 c7 85 08 f0 ff ff 	movw   $0x453,-0xff8(%rbp)
    ffa1:	53 04 
    ffa3:	48 8d 85 a0 f4 ff ff 	lea    -0xb60(%rbp),%rax
    ffaa:	48 8d 15 6f b6 00 00 	lea    0xb66f(%rip),%rdx        # 1b620 <g_2872+0x15a0>
    ffb1:	b9 70 00 00 00       	mov    $0x70,%ecx
    ffb6:	48 89 c7             	mov    %rax,%rdi
    ffb9:	48 89 d6             	mov    %rdx,%rsi
    ffbc:	f3 48 a5             	rep movsq %ds:(%rsi),%es:(%rdi)
    ffbf:	0f b7 9d 08 f0 ff ff 	movzwl -0xff8(%rbp),%ebx
    ffc6:	48 8b 85 88 f2 ff ff 	mov    -0xd78(%rbp),%rax
    ffcd:	41 89 c6             	mov    %eax,%r14d
    ffd0:	8b 85 4c f0 ff ff    	mov    -0xfb4(%rbp),%eax
    ffd6:	44 0f b7 e0          	movzwl %ax,%r12d
    ffda:	48 8b 85 80 f2 ff ff 	mov    -0xd80(%rbp),%rax
    ffe1:	41 89 c7             	mov    %eax,%r15d
    ffe4:	be 01 00 00 00       	mov    $0x1,%esi
    ffe9:	bf 00 00 00 00       	mov    $0x0,%edi
    ffee:	e8 a0 6b ff ff       	callq  6b93 <safe_mul_func_uint8_t_u_u>
    fff3:	44 0f b6 e8          	movzbl %al,%r13d
    fff7:	8b 85 7c f0 ff ff    	mov    -0xf84(%rbp),%eax
    fffd:	0f be c0             	movsbl %al,%eax
   10000:	be 05 00 00 00       	mov    $0x5,%esi
   10005:	89 c7                	mov    %eax,%edi
   10007:	e8 95 62 ff ff       	callq  62a1 <safe_lshift_func_int8_t_s_s>
   1000c:	0f be c0             	movsbl %al,%eax
   1000f:	44 09 e8             	or     %r13d,%eax
   10012:	39 85 7c f0 ff ff    	cmp    %eax,-0xf84(%rbp)
   10018:	0f 94 c0             	sete   %al
   1001b:	44 31 f8             	xor    %r15d,%eax
   1001e:	88 05 3e 03 01 00    	mov    %al,0x1033e(%rip)        # 20362 <g_517+0x2>
   10024:	8b 05 a2 04 01 00    	mov    0x104a2(%rip),%eax        # 204cc <g_1551>
   1002a:	83 bd 7c f0 ff ff 00 	cmpl   $0x0,-0xf84(%rbp)
   10031:	74 07                	je     1003a <func_66+0x4dc7>
   10033:	ba 01 00 00 00       	mov    $0x1,%edx
   10038:	eb 05                	jmp    1003f <func_66+0x4dcc>
   1003a:	ba 00 00 00 00       	mov    $0x0,%edx
   1003f:	8b 85 7c f0 ff ff    	mov    -0xf84(%rbp),%eax
   10045:	89 c6                	mov    %eax,%esi
   10047:	89 d7                	mov    %edx,%edi
   10049:	e8 7e 66 ff ff       	callq  66cc <safe_mod_func_int32_t_s_s>
   1004e:	48 98                	cltq   
   10050:	48 be a4 0d 4a 8f 60 	movabs $0xcc20b608f4a0da4,%rsi
   10057:	0b c2 0c 
   1005a:	48 89 c7             	mov    %rax,%rdi
   1005d:	e8 4d 70 ff ff       	callq  70af <safe_div_func_uint64_t_u_u>
   10062:	66 83 bd e0 ef ff ff 	cmpw   $0x0,-0x1020(%rbp)
   10069:	00 
   1006a:	75 09                	jne    10075 <func_66+0x4e02>
   1006c:	83 bd 7c f0 ff ff 00 	cmpl   $0x0,-0xf84(%rbp)
   10073:	74 07                	je     1007c <func_66+0x4e09>
   10075:	b8 01 00 00 00       	mov    $0x1,%eax
   1007a:	eb 05                	jmp    10081 <func_66+0x4e0e>
   1007c:	b8 00 00 00 00       	mov    $0x0,%eax
   10081:	ba 01 00 00 00       	mov    $0x1,%edx
   10086:	09 d0                	or     %edx,%eax
   10088:	39 85 e4 ef ff ff    	cmp    %eax,-0x101c(%rbp)
   1008e:	0f 95 c0             	setne  %al
   10091:	0f b6 d0             	movzbl %al,%edx
   10094:	0f b6 05 86 02 01 00 	movzbl 0x10286(%rip),%eax        # 20321 <g_121>
   1009b:	31 d0                	xor    %edx,%eax
   1009d:	88 05 7e 02 01 00    	mov    %al,0x1027e(%rip)        # 20321 <g_121>
   100a3:	0f b6 05 77 02 01 00 	movzbl 0x10277(%rip),%eax        # 20321 <g_121>
   100aa:	0f be c0             	movsbl %al,%eax
   100ad:	be 02 00 00 00       	mov    $0x2,%esi
   100b2:	89 c7                	mov    %eax,%edi
   100b4:	e8 35 62 ff ff       	callq  62ee <safe_lshift_func_int8_t_s_u>
   100b9:	0f be d0             	movsbl %al,%edx
   100bc:	8b 85 24 f0 ff ff    	mov    -0xfdc(%rbp),%eax
   100c2:	39 c2                	cmp    %eax,%edx
   100c4:	0f 9d c0             	setge  %al
   100c7:	0f b6 c0             	movzbl %al,%eax
   100ca:	8b 95 7c f0 ff ff    	mov    -0xf84(%rbp),%edx
   100d0:	09 d0                	or     %edx,%eax
   100d2:	0f b7 c0             	movzwl %ax,%eax
   100d5:	be 03 00 00 00       	mov    $0x3,%esi
   100da:	89 c7                	mov    %eax,%edi
   100dc:	e8 99 6d ff ff       	callq  6e7a <safe_rshift_func_uint16_t_u_u>
   100e1:	0f b7 d0             	movzwl %ax,%edx
   100e4:	48 8b 85 80 f2 ff ff 	mov    -0xd80(%rbp),%rax
   100eb:	48 39 c2             	cmp    %rax,%rdx
   100ee:	0f 93 c0             	setae  %al
   100f1:	0f b6 d0             	movzbl %al,%edx
   100f4:	48 8b 85 a0 f2 ff ff 	mov    -0xd60(%rbp),%rax
   100fb:	48 39 c2             	cmp    %rax,%rdx
   100fe:	0f 96 c0             	setbe  %al
   10101:	0f b6 c0             	movzbl %al,%eax
   10104:	48 39 85 e8 ef ff ff 	cmp    %rax,-0x1018(%rbp)
   1010b:	77 13                	ja     10120 <func_66+0x4ead>
   1010d:	48 8b 85 80 f2 ff ff 	mov    -0xd80(%rbp),%rax
   10114:	48 85 c0             	test   %rax,%rax
   10117:	74 07                	je     10120 <func_66+0x4ead>
   10119:	b8 01 00 00 00       	mov    $0x1,%eax
   1011e:	eb 05                	jmp    10125 <func_66+0x4eb2>
   10120:	b8 00 00 00 00       	mov    $0x0,%eax
   10125:	0f be c0             	movsbl %al,%eax
   10128:	be ff ff ff ff       	mov    $0xffffffff,%esi
   1012d:	89 c7                	mov    %eax,%edi
   1012f:	e8 be 60 ff ff       	callq  61f2 <safe_sub_func_int8_t_s_s>
   10134:	66 98                	cbtw   
   10136:	0f b7 c0             	movzwl %ax,%eax
   10139:	44 89 e6             	mov    %r12d,%esi
   1013c:	89 c7                	mov    %eax,%edi
   1013e:	e8 fa 6b ff ff       	callq  6d3d <safe_mul_func_uint16_t_u_u>
   10143:	0f b7 c0             	movzwl %ax,%eax
   10146:	39 85 7c f0 ff ff    	cmp    %eax,-0xf84(%rbp)
   1014c:	0f 95 c0             	setne  %al
   1014f:	0f b6 d0             	movzbl %al,%edx
   10152:	0f be 85 ff ef ff ff 	movsbl -0x1001(%rbp),%eax
   10159:	39 c2                	cmp    %eax,%edx
   1015b:	0f 9e c0             	setle  %al
   1015e:	0f b6 c0             	movzbl %al,%eax
   10161:	44 89 f6             	mov    %r14d,%esi
   10164:	89 c7                	mov    %eax,%edi
   10166:	e8 61 65 ff ff       	callq  66cc <safe_mod_func_int32_t_s_s>
   1016b:	89 c2                	mov    %eax,%edx
   1016d:	48 8b 05 44 03 01 00 	mov    0x10344(%rip),%rax        # 204b8 <g_1246>
   10174:	31 d0                	xor    %edx,%eax
   10176:	0f bf d0             	movswl %ax,%edx
   10179:	0f bf 85 06 f0 ff ff 	movswl -0xffa(%rbp),%eax
   10180:	89 d6                	mov    %edx,%esi
   10182:	89 c7                	mov    %eax,%edi
   10184:	e8 8d 62 ff ff       	callq  6416 <safe_mod_func_int16_t_s_s>
   10189:	48 0f bf d0          	movswq %ax,%rdx
   1018d:	8b 85 4c f0 ff ff    	mov    -0xfb4(%rbp),%eax
   10193:	48 98                	cltq   
   10195:	48 89 d6             	mov    %rdx,%rsi
   10198:	48 89 c7             	mov    %rax,%rdi
   1019b:	e8 a1 66 ff ff       	callq  6841 <safe_add_func_int64_t_s_s>
   101a0:	8b 05 02 01 01 00    	mov    0x10102(%rip),%eax        # 202a8 <g_77+0xc8>
   101a6:	39 85 4c f0 ff ff    	cmp    %eax,-0xfb4(%rbp)
   101ac:	0f 9e c0             	setle  %al
   101af:	0f b6 c0             	movzbl %al,%eax
   101b2:	89 de                	mov    %ebx,%esi
   101b4:	89 c7                	mov    %eax,%edi
   101b6:	e8 d3 6b ff ff       	callq  6d8e <safe_div_func_uint16_t_u_u>
   101bb:	81 bd 7c f0 ff ff 9d 	cmpl   $0x9d,-0xf84(%rbp)
   101c2:	00 00 00 
   101c5:	0f 9f c0             	setg   %al
   101c8:	0f b6 d0             	movzbl %al,%edx
   101cb:	0f be 85 ff ef ff ff 	movsbl -0x1001(%rbp),%eax
   101d2:	39 c2                	cmp    %eax,%edx
   101d4:	0f 9f c0             	setg   %al
   101d7:	0f b6 d0             	movzbl %al,%edx
   101da:	48 8b 85 d0 ef ff ff 	mov    -0x1030(%rbp),%rax
   101e1:	89 10                	mov    %edx,(%rax)
   101e3:	48 8b 85 d0 ef ff ff 	mov    -0x1030(%rbp),%rax
   101ea:	8b 00                	mov    (%rax),%eax
   101ec:	85 c0                	test   %eax,%eax
   101ee:	0f 84 93 01 00 00    	je     10387 <func_66+0x5114>
   101f4:	48 c7 85 d8 f0 ff ff 	movq   $0x0,-0xf28(%rbp)
   101fb:	00 00 00 00 
   101ff:	66 c7 85 04 f0 ff ff 	movw   $0x217d,-0xffc(%rbp)
   10206:	7d 21 
   10208:	c7 85 14 f0 ff ff 02 	movl   $0x2,-0xfec(%rbp)
   1020f:	00 00 00 
   10212:	e9 5f 01 00 00       	jmpq   10376 <func_66+0x5103>
   10217:	48 8d 85 18 f0 ff ff 	lea    -0xfe8(%rbp),%rax
   1021e:	48 89 85 a0 f3 ff ff 	mov    %rax,-0xc60(%rbp)
   10225:	48 8d 85 20 f0 ff ff 	lea    -0xfe0(%rbp),%rax
   1022c:	48 89 85 a8 f3 ff ff 	mov    %rax,-0xc58(%rbp)
   10233:	48 8d 85 18 f0 ff ff 	lea    -0xfe8(%rbp),%rax
   1023a:	48 89 85 b0 f3 ff ff 	mov    %rax,-0xc50(%rbp)
   10241:	48 8d 85 18 f0 ff ff 	lea    -0xfe8(%rbp),%rax
   10248:	48 89 85 b8 f3 ff ff 	mov    %rax,-0xc48(%rbp)
   1024f:	48 8d 85 20 f0 ff ff 	lea    -0xfe0(%rbp),%rax
   10256:	48 89 85 c0 f3 ff ff 	mov    %rax,-0xc40(%rbp)
   1025d:	48 8d 85 18 f0 ff ff 	lea    -0xfe8(%rbp),%rax
   10264:	48 89 85 c8 f3 ff ff 	mov    %rax,-0xc38(%rbp)
   1026b:	48 8d 85 18 f0 ff ff 	lea    -0xfe8(%rbp),%rax
   10272:	48 89 85 d0 f3 ff ff 	mov    %rax,-0xc30(%rbp)
   10279:	48 8d 85 20 f0 ff ff 	lea    -0xfe0(%rbp),%rax
   10280:	48 89 85 d8 f3 ff ff 	mov    %rax,-0xc28(%rbp)
   10287:	48 8d 85 18 f0 ff ff 	lea    -0xfe8(%rbp),%rax
   1028e:	48 89 85 e0 f3 ff ff 	mov    %rax,-0xc20(%rbp)
   10295:	48 8d 85 18 f0 ff ff 	lea    -0xfe8(%rbp),%rax
   1029c:	48 89 85 e8 f3 ff ff 	mov    %rax,-0xc18(%rbp)
   102a3:	48 8d 85 20 f0 ff ff 	lea    -0xfe0(%rbp),%rax
   102aa:	48 89 85 f0 f3 ff ff 	mov    %rax,-0xc10(%rbp)
   102b1:	48 8d 85 18 f0 ff ff 	lea    -0xfe8(%rbp),%rax
   102b8:	48 89 85 f8 f3 ff ff 	mov    %rax,-0xc08(%rbp)
   102bf:	48 8d 85 18 f0 ff ff 	lea    -0xfe8(%rbp),%rax
   102c6:	48 89 85 00 f4 ff ff 	mov    %rax,-0xc00(%rbp)
   102cd:	48 8d 85 20 f0 ff ff 	lea    -0xfe0(%rbp),%rax
   102d4:	48 89 85 08 f4 ff ff 	mov    %rax,-0xbf8(%rbp)
   102db:	48 8d 85 18 f0 ff ff 	lea    -0xfe8(%rbp),%rax
   102e2:	48 89 85 10 f4 ff ff 	mov    %rax,-0xbf0(%rbp)
   102e9:	48 8d 85 18 f0 ff ff 	lea    -0xfe8(%rbp),%rax
   102f0:	48 89 85 18 f4 ff ff 	mov    %rax,-0xbe8(%rbp)
   102f7:	c7 85 18 f0 ff ff 08 	movl   $0x8,-0xfe8(%rbp)
   102fe:	00 00 00 
   10301:	eb 2b                	jmp    1032e <func_66+0x50bb>
   10303:	66 c7 85 0a f0 ff ff 	movw   $0x0,-0xff6(%rbp)
   1030a:	00 00 
   1030c:	66 83 85 0a f0 ff ff 	addw   $0x1,-0xff6(%rbp)
   10313:	01 
   10314:	8b 85 18 f0 ff ff    	mov    -0xfe8(%rbp),%eax
   1031a:	98                   	cwtl   
   1031b:	be 01 00 00 00       	mov    $0x1,%esi
   10320:	89 c7                	mov    %eax,%edi
   10322:	e8 ac 60 ff ff       	callq  63d3 <safe_sub_func_int16_t_s_s>
   10327:	98                   	cwtl   
   10328:	89 85 18 f0 ff ff    	mov    %eax,-0xfe8(%rbp)
   1032e:	8b 85 18 f0 ff ff    	mov    -0xfe8(%rbp),%eax
   10334:	83 f8 01             	cmp    $0x1,%eax
   10337:	75 ca                	jne    10303 <func_66+0x5090>
   10339:	48 8b 05 00 0f 01 00 	mov    0x10f00(%rip),%rax        # 21240 <g_1563>
   10340:	48 8b 95 d8 f0 ff ff 	mov    -0xf28(%rbp),%rdx
   10347:	48 89 10             	mov    %rdx,(%rax)
   1034a:	0f b7 85 04 f0 ff ff 	movzwl -0xffc(%rbp),%eax
   10351:	83 c0 01             	add    $0x1,%eax
   10354:	66 89 85 04 f0 ff ff 	mov    %ax,-0xffc(%rbp)
   1035b:	8b 85 14 f0 ff ff    	mov    -0xfec(%rbp),%eax
   10361:	48 98                	cltq   
   10363:	be 01 00 00 00       	mov    $0x1,%esi
   10368:	48 89 c7             	mov    %rax,%rdi
   1036b:	e8 d1 64 ff ff       	callq  6841 <safe_add_func_int64_t_s_s>
   10370:	89 85 14 f0 ff ff    	mov    %eax,-0xfec(%rbp)
   10376:	8b 85 14 f0 ff ff    	mov    -0xfec(%rbp),%eax
   1037c:	83 f8 0e             	cmp    $0xe,%eax
   1037f:	0f 8f 92 fe ff ff    	jg     10217 <func_66+0x4fa4>
   10385:	eb 0d                	jmp    10394 <func_66+0x5121>
   10387:	48 8b 85 d0 ef ff ff 	mov    -0x1030(%rbp),%rax
   1038e:	8b 00                	mov    (%rax),%eax
   10390:	85 c0                	test   %eax,%eax
   10392:	75 25                	jne    103b9 <func_66+0x5146>
   10394:	48 8b 05 95 ff 00 00 	mov    0xff95(%rip),%rax        # 20330 <g_154>
   1039b:	48 83 c0 01          	add    $0x1,%rax
   1039f:	48 89 05 8a ff 00 00 	mov    %rax,0xff8a(%rip)        # 20330 <g_154>
   103a6:	48 8b 05 83 ff 00 00 	mov    0xff83(%rip),%rax        # 20330 <g_154>
   103ad:	48 83 f8 13          	cmp    $0x13,%rax
   103b1:	0f 87 ba ee ff ff    	ja     f271 <func_66+0x3ffe>
   103b7:	eb 01                	jmp    103ba <func_66+0x5147>
   103b9:	90                   	nop
   103ba:	48 8b 85 e8 ef ff ff 	mov    -0x1018(%rbp),%rax
   103c1:	89 c2                	mov    %eax,%edx
   103c3:	48 8b 85 d0 ef ff ff 	mov    -0x1030(%rbp),%rax
   103ca:	89 10                	mov    %edx,(%rax)
   103cc:	8b 85 48 f3 ff ff    	mov    -0xcb8(%rbp),%eax
   103d2:	48 8b 5d c8          	mov    -0x38(%rbp),%rbx
   103d6:	64 48 33 1c 25 28 00 	xor    %fs:0x28,%rbx
   103dd:	00 00 
   103df:	74 05                	je     103e6 <func_66+0x5173>
   103e1:	e8 8a 5c ff ff       	callq  6070 <__stack_chk_fail@plt>
   103e6:	48 81 c4 18 10 00 00 	add    $0x1018,%rsp
   103ed:	5b                   	pop    %rbx
   103ee:	41 5c                	pop    %r12
   103f0:	41 5d                	pop    %r13
   103f2:	41 5e                	pop    %r14
   103f4:	41 5f                	pop    %r15
   103f6:	5d                   	pop    %rbp
   103f7:	c3                   	retq   

00000000000103f8 <func_72>:
   103f8:	f3 0f 1e fa          	endbr64 
   103fc:	55                   	push   %rbp
   103fd:	48 89 e5             	mov    %rsp,%rbp
   10400:	48 89 7d e8          	mov    %rdi,-0x18(%rbp)
   10404:	48 89 75 e0          	mov    %rsi,-0x20(%rbp)
   10408:	89 55 dc             	mov    %edx,-0x24(%rbp)
   1040b:	48 8d 05 96 fe 00 00 	lea    0xfe96(%rip),%rax        # 202a8 <g_77+0xc8>
   10412:	48 89 45 f8          	mov    %rax,-0x8(%rbp)
   10416:	48 8b 45 f8          	mov    -0x8(%rbp),%rax
   1041a:	5d                   	pop    %rbp
   1041b:	c3                   	retq   

000000000001041c <func_78>:
   1041c:	f3 0f 1e fa          	endbr64 
   10420:	55                   	push   %rbp
   10421:	48 89 e5             	mov    %rsp,%rbp
   10424:	41 57                	push   %r15
   10426:	41 56                	push   %r14
   10428:	41 55                	push   %r13
   1042a:	41 54                	push   %r12
   1042c:	53                   	push   %rbx
   1042d:	48 81 ec 88 0d 00 00 	sub    $0xd88,%rsp
   10434:	48 89 bd 78 f2 ff ff 	mov    %rdi,-0xd88(%rbp)
   1043b:	48 89 b5 70 f2 ff ff 	mov    %rsi,-0xd90(%rbp)
   10442:	48 89 95 68 f2 ff ff 	mov    %rdx,-0xd98(%rbp)
   10449:	48 89 8d 60 f2 ff ff 	mov    %rcx,-0xda0(%rbp)
   10450:	64 48 8b 04 25 28 00 	mov    %fs:0x28,%rax
   10457:	00 00 
   10459:	48 89 45 c8          	mov    %rax,-0x38(%rbp)
   1045d:	31 c0                	xor    %eax,%eax
   1045f:	c7 85 a0 f5 ff ff b8 	movl   $0x9494f7b8,-0xa60(%rbp)
   10466:	f7 94 94 
   10469:	66 c7 85 a4 f5 ff ff 	movw   $0xb8f7,-0xa5c(%rbp)
   10470:	f7 b8 
   10472:	c7 85 a6 f5 ff ff b8 	movl   $0x943d52b8,-0xa5a(%rbp)
   10479:	52 3d 94 
   1047c:	66 c7 85 aa f5 ff ff 	movw   $0x9452,-0xa56(%rbp)
   10483:	52 94 
   10485:	c7 85 ac f5 ff ff b8 	movl   $0x94b8f9b8,-0xa54(%rbp)
   1048c:	f9 b8 94 
   1048f:	66 c7 85 b0 f5 ff ff 	movw   $0x3df9,-0xa50(%rbp)
   10496:	f9 3d 
   10498:	c7 85 b2 f5 ff ff b8 	movl   $0x9494f7b8,-0xa4e(%rbp)
   1049f:	f7 94 94 
   104a2:	66 c7 85 b6 f5 ff ff 	movw   $0xb8f7,-0xa4a(%rbp)
   104a9:	f7 b8 
   104ab:	c7 85 b8 f5 ff ff b8 	movl   $0x943d52b8,-0xa48(%rbp)
   104b2:	52 3d 94 
   104b5:	66 c7 85 bc f5 ff ff 	movw   $0x9452,-0xa44(%rbp)
   104bc:	52 94 
   104be:	c7 85 be f5 ff ff b8 	movl   $0x94b8f9b8,-0xa42(%rbp)
   104c5:	f9 b8 94 
   104c8:	66 c7 85 c2 f5 ff ff 	movw   $0x3df9,-0xa3e(%rbp)
   104cf:	f9 3d 
   104d1:	c7 85 c4 f5 ff ff b8 	movl   $0x9494f7b8,-0xa3c(%rbp)
   104d8:	f7 94 94 
   104db:	66 c7 85 c8 f5 ff ff 	movw   $0xb8f7,-0xa38(%rbp)
   104e2:	f7 b8 
   104e4:	c7 85 ca f5 ff ff b8 	movl   $0x943d52b8,-0xa36(%rbp)
   104eb:	52 3d 94 
   104ee:	66 c7 85 ce f5 ff ff 	movw   $0x9452,-0xa32(%rbp)
   104f5:	52 94 
   104f7:	c7 85 98 f2 ff ff 03 	movl   $0x3,-0xd68(%rbp)
   104fe:	00 00 00 
   10501:	c7 85 9c f2 ff ff e7 	movl   $0x61b8e6e7,-0xd64(%rbp)
   10508:	e6 b8 61 
   1050b:	c6 85 8a f2 ff ff fa 	movb   $0xfa,-0xd76(%rbp)
   10512:	66 c7 85 8c f2 ff ff 	movw   $0xfff9,-0xd74(%rbp)
   10519:	f9 ff 
   1051b:	48 8d 05 0e fe 00 00 	lea    0xfe0e(%rip),%rax        # 20330 <g_154>
   10522:	48 89 85 00 f3 ff ff 	mov    %rax,-0xd00(%rbp)
   10529:	48 8d 85 00 f3 ff ff 	lea    -0xd00(%rbp),%rax
   10530:	48 89 85 08 f3 ff ff 	mov    %rax,-0xcf8(%rbp)
   10537:	66 c7 85 8e f2 ff ff 	movw   $0x1,-0xd72(%rbp)
   1053e:	01 00 
   10540:	48 8d 05 f1 fd 00 00 	lea    0xfdf1(%rip),%rax        # 20338 <g_159>
   10547:	48 89 85 28 f3 ff ff 	mov    %rax,-0xcd8(%rbp)
   1054e:	c7 85 d8 f2 ff ff e5 	movl   $0xad4eece5,-0xd28(%rbp)
   10555:	ec 4e ad 
   10558:	48 8d 85 08 f3 ff ff 	lea    -0xcf8(%rbp),%rax
   1055f:	48 89 85 00 f7 ff ff 	mov    %rax,-0x900(%rbp)
   10566:	48 8d 85 08 f3 ff ff 	lea    -0xcf8(%rbp),%rax
   1056d:	48 89 85 08 f7 ff ff 	mov    %rax,-0x8f8(%rbp)
   10574:	48 8d 85 08 f3 ff ff 	lea    -0xcf8(%rbp),%rax
   1057b:	48 89 85 10 f7 ff ff 	mov    %rax,-0x8f0(%rbp)
   10582:	48 8d 85 08 f3 ff ff 	lea    -0xcf8(%rbp),%rax
   10589:	48 89 85 18 f7 ff ff 	mov    %rax,-0x8e8(%rbp)
   10590:	48 8d 85 08 f3 ff ff 	lea    -0xcf8(%rbp),%rax
   10597:	48 89 85 20 f7 ff ff 	mov    %rax,-0x8e0(%rbp)
   1059e:	48 8d 85 08 f3 ff ff 	lea    -0xcf8(%rbp),%rax
   105a5:	48 89 85 28 f7 ff ff 	mov    %rax,-0x8d8(%rbp)
   105ac:	48 8d 85 08 f3 ff ff 	lea    -0xcf8(%rbp),%rax
   105b3:	48 89 85 30 f7 ff ff 	mov    %rax,-0x8d0(%rbp)
   105ba:	48 8d 85 08 f3 ff ff 	lea    -0xcf8(%rbp),%rax
   105c1:	48 89 85 38 f7 ff ff 	mov    %rax,-0x8c8(%rbp)
   105c8:	48 8d 85 08 f3 ff ff 	lea    -0xcf8(%rbp),%rax
   105cf:	48 89 85 40 f7 ff ff 	mov    %rax,-0x8c0(%rbp)
   105d6:	48 8d 85 08 f3 ff ff 	lea    -0xcf8(%rbp),%rax
   105dd:	48 89 85 48 f7 ff ff 	mov    %rax,-0x8b8(%rbp)
   105e4:	48 8d 85 08 f3 ff ff 	lea    -0xcf8(%rbp),%rax
   105eb:	48 89 85 50 f7 ff ff 	mov    %rax,-0x8b0(%rbp)
   105f2:	48 8d 85 08 f3 ff ff 	lea    -0xcf8(%rbp),%rax
   105f9:	48 89 85 58 f7 ff ff 	mov    %rax,-0x8a8(%rbp)
   10600:	48 8d 85 08 f3 ff ff 	lea    -0xcf8(%rbp),%rax
   10607:	48 89 85 60 f7 ff ff 	mov    %rax,-0x8a0(%rbp)
   1060e:	48 8d 85 08 f3 ff ff 	lea    -0xcf8(%rbp),%rax
   10615:	48 89 85 68 f7 ff ff 	mov    %rax,-0x898(%rbp)
   1061c:	48 8d 85 08 f3 ff ff 	lea    -0xcf8(%rbp),%rax
   10623:	48 89 85 70 f7 ff ff 	mov    %rax,-0x890(%rbp)
   1062a:	48 8d 85 08 f3 ff ff 	lea    -0xcf8(%rbp),%rax
   10631:	48 89 85 78 f7 ff ff 	mov    %rax,-0x888(%rbp)
   10638:	48 8d 85 08 f3 ff ff 	lea    -0xcf8(%rbp),%rax
   1063f:	48 89 85 80 f7 ff ff 	mov    %rax,-0x880(%rbp)
   10646:	48 8d 85 08 f3 ff ff 	lea    -0xcf8(%rbp),%rax
   1064d:	48 89 85 88 f7 ff ff 	mov    %rax,-0x878(%rbp)
   10654:	48 8d 85 08 f3 ff ff 	lea    -0xcf8(%rbp),%rax
   1065b:	48 89 85 90 f7 ff ff 	mov    %rax,-0x870(%rbp)
   10662:	48 8d 85 08 f3 ff ff 	lea    -0xcf8(%rbp),%rax
   10669:	48 89 85 98 f7 ff ff 	mov    %rax,-0x868(%rbp)
   10670:	48 8d 85 08 f3 ff ff 	lea    -0xcf8(%rbp),%rax
   10677:	48 89 85 a0 f7 ff ff 	mov    %rax,-0x860(%rbp)
   1067e:	48 8d 85 08 f3 ff ff 	lea    -0xcf8(%rbp),%rax
   10685:	48 89 85 a8 f7 ff ff 	mov    %rax,-0x858(%rbp)
   1068c:	48 8d 85 08 f3 ff ff 	lea    -0xcf8(%rbp),%rax
   10693:	48 89 85 b0 f7 ff ff 	mov    %rax,-0x850(%rbp)
   1069a:	48 8d 85 08 f3 ff ff 	lea    -0xcf8(%rbp),%rax
   106a1:	48 89 85 b8 f7 ff ff 	mov    %rax,-0x848(%rbp)
   106a8:	48 8d 85 08 f3 ff ff 	lea    -0xcf8(%rbp),%rax
   106af:	48 89 85 c0 f7 ff ff 	mov    %rax,-0x840(%rbp)
   106b6:	48 8d 85 08 f3 ff ff 	lea    -0xcf8(%rbp),%rax
   106bd:	48 89 85 c8 f7 ff ff 	mov    %rax,-0x838(%rbp)
   106c4:	48 8d 85 08 f3 ff ff 	lea    -0xcf8(%rbp),%rax
   106cb:	48 89 85 d0 f7 ff ff 	mov    %rax,-0x830(%rbp)
   106d2:	48 8d 85 08 f3 ff ff 	lea    -0xcf8(%rbp),%rax
   106d9:	48 89 85 d8 f7 ff ff 	mov    %rax,-0x828(%rbp)
   106e0:	48 8d 85 08 f3 ff ff 	lea    -0xcf8(%rbp),%rax
   106e7:	48 89 85 e0 f7 ff ff 	mov    %rax,-0x820(%rbp)
   106ee:	48 8d 85 08 f3 ff ff 	lea    -0xcf8(%rbp),%rax
   106f5:	48 89 85 e8 f7 ff ff 	mov    %rax,-0x818(%rbp)
   106fc:	48 8d 85 08 f3 ff ff 	lea    -0xcf8(%rbp),%rax
   10703:	48 89 85 f0 f7 ff ff 	mov    %rax,-0x810(%rbp)
   1070a:	48 8d 85 08 f3 ff ff 	lea    -0xcf8(%rbp),%rax
   10711:	48 89 85 f8 f7 ff ff 	mov    %rax,-0x808(%rbp)
   10718:	48 8d 85 08 f3 ff ff 	lea    -0xcf8(%rbp),%rax
   1071f:	48 89 85 00 f8 ff ff 	mov    %rax,-0x800(%rbp)
   10726:	48 8d 85 08 f3 ff ff 	lea    -0xcf8(%rbp),%rax
   1072d:	48 89 85 08 f8 ff ff 	mov    %rax,-0x7f8(%rbp)
   10734:	48 8d 85 08 f3 ff ff 	lea    -0xcf8(%rbp),%rax
   1073b:	48 89 85 10 f8 ff ff 	mov    %rax,-0x7f0(%rbp)
   10742:	48 8d 85 08 f3 ff ff 	lea    -0xcf8(%rbp),%rax
   10749:	48 89 85 18 f8 ff ff 	mov    %rax,-0x7e8(%rbp)
   10750:	48 8d 85 00 f7 ff ff 	lea    -0x900(%rbp),%rax
   10757:	48 05 e0 00 00 00    	add    $0xe0,%rax
   1075d:	48 89 85 40 f3 ff ff 	mov    %rax,-0xcc0(%rbp)
   10764:	48 8d 05 fd fc 00 00 	lea    0xfcfd(%rip),%rax        # 20468 <g_954>
   1076b:	48 89 85 48 f3 ff ff 	mov    %rax,-0xcb8(%rbp)
   10772:	48 c7 85 50 f3 ff ff 	movq   $0x0,-0xcb0(%rbp)
   10779:	00 00 00 00 
   1077d:	48 8d 85 98 f2 ff ff 	lea    -0xd68(%rbp),%rax
   10784:	48 89 85 58 f3 ff ff 	mov    %rax,-0xca8(%rbp)
   1078b:	48 8d 05 06 fd 00 00 	lea    0xfd06(%rip),%rax        # 20498 <g_984+0x8>
   10792:	48 89 85 60 f3 ff ff 	mov    %rax,-0xca0(%rbp)
   10799:	48 8d 05 08 fb 00 00 	lea    0xfb08(%rip),%rax        # 202a8 <g_77+0xc8>
   107a0:	48 89 85 68 f3 ff ff 	mov    %rax,-0xc98(%rbp)
   107a7:	c7 85 30 f5 ff ff 3c 	movl   $0xc341b3c,-0xad0(%rbp)
   107ae:	1b 34 0c 
   107b1:	c7 85 34 f5 ff ff 3c 	movl   $0xc341b3c,-0xacc(%rbp)
   107b8:	1b 34 0c 
   107bb:	c7 85 38 f5 ff ff 3c 	movl   $0xc341b3c,-0xac8(%rbp)
   107c2:	1b 34 0c 
   107c5:	c7 85 3c f5 ff ff fc 	movl   $0xfffffffc,-0xac4(%rbp)
   107cc:	ff ff ff 
   107cf:	c7 85 40 f5 ff ff fc 	movl   $0xfffffffc,-0xac0(%rbp)
   107d6:	ff ff ff 
   107d9:	c7 85 44 f5 ff ff fc 	movl   $0xfffffffc,-0xabc(%rbp)
   107e0:	ff ff ff 
   107e3:	48 8d 05 ba fc 00 00 	lea    0xfcba(%rip),%rax        # 204a4 <g_988>
   107ea:	48 89 85 70 f3 ff ff 	mov    %rax,-0xc90(%rbp)
   107f1:	48 8d 05 80 fa 00 00 	lea    0xfa80(%rip),%rax        # 20278 <g_77+0x98>
   107f8:	48 89 85 78 f3 ff ff 	mov    %rax,-0xc88(%rbp)
   107ff:	48 8d 05 96 fc 00 00 	lea    0xfc96(%rip),%rax        # 2049c <g_984+0xc>
   10806:	48 89 85 80 f3 ff ff 	mov    %rax,-0xc80(%rbp)
   1080d:	48 8d 85 30 f5 ff ff 	lea    -0xad0(%rbp),%rax
   10814:	48 83 c0 08          	add    $0x8,%rax
   10818:	48 89 85 88 f3 ff ff 	mov    %rax,-0xc78(%rbp)
   1081f:	48 8d 85 30 f5 ff ff 	lea    -0xad0(%rbp),%rax
   10826:	48 83 c0 08          	add    $0x8,%rax
   1082a:	48 89 85 90 f3 ff ff 	mov    %rax,-0xc70(%rbp)
   10831:	48 8d 85 30 f5 ff ff 	lea    -0xad0(%rbp),%rax
   10838:	48 83 c0 08          	add    $0x8,%rax
   1083c:	48 89 85 98 f3 ff ff 	mov    %rax,-0xc68(%rbp)
   10843:	48 8d 05 52 fc 00 00 	lea    0xfc52(%rip),%rax        # 2049c <g_984+0xc>
   1084a:	48 89 85 a0 f3 ff ff 	mov    %rax,-0xc60(%rbp)
   10851:	48 8d 05 44 fc 00 00 	lea    0xfc44(%rip),%rax        # 2049c <g_984+0xc>
   10858:	48 89 85 a8 f3 ff ff 	mov    %rax,-0xc58(%rbp)
   1085f:	48 8d 85 9c f2 ff ff 	lea    -0xd64(%rbp),%rax
   10866:	48 89 85 b0 f3 ff ff 	mov    %rax,-0xc50(%rbp)
   1086d:	48 c7 85 b8 f3 ff ff 	movq   $0x0,-0xc48(%rbp)
   10874:	00 00 00 00 
   10878:	48 8d 85 30 f5 ff ff 	lea    -0xad0(%rbp),%rax
   1087f:	48 83 c0 08          	add    $0x8,%rax
   10883:	48 89 85 c0 f3 ff ff 	mov    %rax,-0xc40(%rbp)
   1088a:	48 8d 05 0b fa 00 00 	lea    0xfa0b(%rip),%rax        # 2029c <g_77+0xbc>
   10891:	48 89 85 00 f6 ff ff 	mov    %rax,-0xa00(%rbp)
   10898:	48 8d 85 30 f5 ff ff 	lea    -0xad0(%rbp),%rax
   1089f:	48 83 c0 08          	add    $0x8,%rax
   108a3:	48 89 85 08 f6 ff ff 	mov    %rax,-0x9f8(%rbp)
   108aa:	48 8d 05 eb f9 00 00 	lea    0xf9eb(%rip),%rax        # 2029c <g_77+0xbc>
   108b1:	48 89 85 10 f6 ff ff 	mov    %rax,-0x9f0(%rbp)
   108b8:	48 8d 05 dd f9 00 00 	lea    0xf9dd(%rip),%rax        # 2029c <g_77+0xbc>
   108bf:	48 89 85 18 f6 ff ff 	mov    %rax,-0x9e8(%rbp)
   108c6:	48 8d 85 30 f5 ff ff 	lea    -0xad0(%rbp),%rax
   108cd:	48 83 c0 08          	add    $0x8,%rax
   108d1:	48 89 85 20 f6 ff ff 	mov    %rax,-0x9e0(%rbp)
   108d8:	48 8d 05 bd f9 00 00 	lea    0xf9bd(%rip),%rax        # 2029c <g_77+0xbc>
   108df:	48 89 85 28 f6 ff ff 	mov    %rax,-0x9d8(%rbp)
   108e6:	48 8d 05 af f9 00 00 	lea    0xf9af(%rip),%rax        # 2029c <g_77+0xbc>
   108ed:	48 89 85 30 f6 ff ff 	mov    %rax,-0x9d0(%rbp)
   108f4:	48 8d 85 30 f5 ff ff 	lea    -0xad0(%rbp),%rax
   108fb:	48 83 c0 08          	add    $0x8,%rax
   108ff:	48 89 85 38 f6 ff ff 	mov    %rax,-0x9c8(%rbp)
   10906:	66 c7 05 1b fa 00 00 	movw   $0x0,0xfa1b(%rip)        # 2032a <g_145>
   1090d:	00 00 
   1090f:	e9 6f 1e 00 00       	jmpq   12783 <func_78+0x2367>
   10914:	48 8d 05 3d 05 01 00 	lea    0x1053d(%rip),%rax        # 20e58 <g_580>
   1091b:	48 89 85 c8 f3 ff ff 	mov    %rax,-0xc38(%rbp)
   10922:	c7 85 a0 f2 ff ff fb 	movl   $0xfffffffb,-0xd60(%rbp)
   10929:	ff ff ff 
   1092c:	c7 85 a4 f2 ff ff 40 	movl   $0xf34df940,-0xd5c(%rbp)
   10933:	f9 4d f3 
   10936:	48 8d 05 fb f9 00 00 	lea    0xf9fb(%rip),%rax        # 20338 <g_159>
   1093d:	48 89 85 10 f3 ff ff 	mov    %rax,-0xcf0(%rbp)
   10944:	48 8d 85 10 f3 ff ff 	lea    -0xcf0(%rbp),%rax
   1094b:	48 89 85 d0 f5 ff ff 	mov    %rax,-0xa30(%rbp)
   10952:	48 8d 85 10 f3 ff ff 	lea    -0xcf0(%rbp),%rax
   10959:	48 89 85 d8 f5 ff ff 	mov    %rax,-0xa28(%rbp)
   10960:	48 8d 85 10 f3 ff ff 	lea    -0xcf0(%rbp),%rax
   10967:	48 89 85 e0 f5 ff ff 	mov    %rax,-0xa20(%rbp)
   1096e:	48 8d 85 10 f3 ff ff 	lea    -0xcf0(%rbp),%rax
   10975:	48 89 85 e8 f5 ff ff 	mov    %rax,-0xa18(%rbp)
   1097c:	48 8d 85 10 f3 ff ff 	lea    -0xcf0(%rbp),%rax
   10983:	48 89 85 f0 f5 ff ff 	mov    %rax,-0xa10(%rbp)
   1098a:	48 8d 85 10 f3 ff ff 	lea    -0xcf0(%rbp),%rax
   10991:	48 89 85 f8 f5 ff ff 	mov    %rax,-0xa08(%rbp)
   10998:	48 8d 85 10 f3 ff ff 	lea    -0xcf0(%rbp),%rax
   1099f:	48 89 85 30 f3 ff ff 	mov    %rax,-0xcd0(%rbp)
   109a6:	48 c7 85 38 f3 ff ff 	movq   $0x0,-0xcc8(%rbp)
   109ad:	00 00 00 00 
   109b1:	c7 85 b8 f2 ff ff d3 	movl   $0x1ba1b2d3,-0xd48(%rbp)
   109b8:	b2 a1 1b 
   109bb:	c7 85 dc f2 ff ff 6e 	movl   $0x8257776e,-0xd24(%rbp)
   109c2:	77 57 82 
   109c5:	48 c7 85 d0 f3 ff ff 	movq   $0x0,-0xc30(%rbp)
   109cc:	00 00 00 00 
   109d0:	c7 85 bc f2 ff ff 00 	movl   $0x0,-0xd44(%rbp)
   109d7:	00 00 00 
   109da:	eb 1e                	jmp    109fa <func_78+0x5de>
   109dc:	8b 85 bc f2 ff ff    	mov    -0xd44(%rbp),%eax
   109e2:	48 98                	cltq   
   109e4:	48 8d 15 7d 04 01 00 	lea    0x1047d(%rip),%rdx        # 20e68 <g_696>
   109eb:	48 89 94 c5 20 f5 ff 	mov    %rdx,-0xae0(%rbp,%rax,8)
   109f2:	ff 
   109f3:	83 85 bc f2 ff ff 01 	addl   $0x1,-0xd44(%rbp)
   109fa:	83 bd bc f2 ff ff 01 	cmpl   $0x1,-0xd44(%rbp)
   10a01:	7e d9                	jle    109dc <func_78+0x5c0>
   10a03:	0f b7 05 20 f9 00 00 	movzwl 0xf920(%rip),%eax        # 2032a <g_145>
   10a0a:	0f b7 c0             	movzwl %ax,%eax
   10a0d:	48 98                	cltq   
   10a0f:	48 8d 15 0b f9 00 00 	lea    0xf90b(%rip),%rdx        # 20321 <g_121>
   10a16:	0f b6 04 10          	movzbl (%rax,%rdx,1),%eax
   10a1a:	84 c0                	test   %al,%al
   10a1c:	0f 84 43 12 00 00    	je     11c65 <func_78+0x1849>
   10a22:	48 c7 85 d8 f3 ff ff 	movq   $0xfffffffffffffffb,-0xc28(%rbp)
   10a29:	fb ff ff ff 
   10a2d:	48 8d 05 fc f8 00 00 	lea    0xf8fc(%rip),%rax        # 20330 <g_154>
   10a34:	48 89 85 e0 f3 ff ff 	mov    %rax,-0xc20(%rbp)
   10a3b:	48 8d 05 66 f8 00 00 	lea    0xf866(%rip),%rax        # 202a8 <g_77+0xc8>
   10a42:	48 89 85 e8 f3 ff ff 	mov    %rax,-0xc18(%rbp)
   10a49:	48 8d 05 4c fa 00 00 	lea    0xfa4c(%rip),%rax        # 2049c <g_984+0xc>
   10a50:	48 89 85 f0 f3 ff ff 	mov    %rax,-0xc10(%rbp)
   10a57:	48 8d 05 6e f7 00 00 	lea    0xf76e(%rip),%rax        # 201cc <g_43>
   10a5e:	48 89 85 20 f3 ff ff 	mov    %rax,-0xce0(%rbp)
   10a65:	48 8d 05 38 fa 00 00 	lea    0xfa38(%rip),%rax        # 204a4 <g_988>
   10a6c:	48 89 85 f8 f3 ff ff 	mov    %rax,-0xc08(%rbp)
   10a73:	48 c7 85 00 f4 ff ff 	movq   $0x0,-0xc00(%rbp)
   10a7a:	00 00 00 00 
   10a7e:	c7 85 a8 f2 ff ff f9 	movl   $0xa65b11f9,-0xd58(%rbp)
   10a85:	11 5b a6 
   10a88:	c6 85 ac f2 ff ff 09 	movb   $0x9,-0xd54(%rbp)
   10a8f:	0f b6 85 ad f2 ff ff 	movzbl -0xd53(%rbp),%eax
   10a96:	83 e0 c0             	and    $0xffffffc0,%eax
   10a99:	83 c8 07             	or     $0x7,%eax
   10a9c:	88 85 ad f2 ff ff    	mov    %al,-0xd53(%rbp)
   10aa2:	c7 85 e0 f2 ff ff ea 	movl   $0xf3029bea,-0xd20(%rbp)
   10aa9:	9b 02 f3 
   10aac:	48 8d 05 ed f9 00 00 	lea    0xf9ed(%rip),%rax        # 204a0 <g_984+0x10>
   10ab3:	48 89 85 08 f4 ff ff 	mov    %rax,-0xbf8(%rbp)
   10aba:	48 8d 05 7b f7 00 00 	lea    0xf77b(%rip),%rax        # 2023c <g_77+0x5c>
   10ac1:	48 89 85 10 f4 ff ff 	mov    %rax,-0xbf0(%rbp)
   10ac8:	48 8d 05 d9 f7 00 00 	lea    0xf7d9(%rip),%rax        # 202a8 <g_77+0xc8>
   10acf:	48 89 85 18 f4 ff ff 	mov    %rax,-0xbe8(%rbp)
   10ad6:	48 8d 85 a0 f2 ff ff 	lea    -0xd60(%rbp),%rax
   10add:	48 89 85 20 f4 ff ff 	mov    %rax,-0xbe0(%rbp)
   10ae4:	48 8d 85 a0 f2 ff ff 	lea    -0xd60(%rbp),%rax
   10aeb:	48 89 85 28 f4 ff ff 	mov    %rax,-0xbd8(%rbp)
   10af2:	c7 85 c0 f2 ff ff 00 	movl   $0x0,-0xd40(%rbp)
   10af9:	00 00 00 
   10afc:	eb 1e                	jmp    10b1c <func_78+0x700>
   10afe:	8b 85 c0 f2 ff ff    	mov    -0xd40(%rbp),%eax
   10b04:	48 98                	cltq   
   10b06:	48 8d 15 3b f8 00 00 	lea    0xf83b(%rip),%rdx        # 20348 <g_355>
   10b0d:	48 89 94 c5 50 f5 ff 	mov    %rdx,-0xab0(%rbp,%rax,8)
   10b14:	ff 
   10b15:	83 85 c0 f2 ff ff 01 	addl   $0x1,-0xd40(%rbp)
   10b1c:	83 bd c0 f2 ff ff 02 	cmpl   $0x2,-0xd40(%rbp)
   10b23:	7e d9                	jle    10afe <func_78+0x6e2>
   10b25:	c7 85 c0 f2 ff ff 00 	movl   $0x0,-0xd40(%rbp)
   10b2c:	00 00 00 
   10b2f:	eb 1b                	jmp    10b4c <func_78+0x730>
   10b31:	8b 85 c0 f2 ff ff    	mov    -0xd40(%rbp),%eax
   10b37:	48 98                	cltq   
   10b39:	48 c7 84 c5 40 f6 ff 	movq   $0x0,-0x9c0(%rbp,%rax,8)
   10b40:	ff 00 00 00 00 
   10b45:	83 85 c0 f2 ff ff 01 	addl   $0x1,-0xd40(%rbp)
   10b4c:	83 bd c0 f2 ff ff 07 	cmpl   $0x7,-0xd40(%rbp)
   10b53:	7e dc                	jle    10b31 <func_78+0x715>
   10b55:	0f b6 85 b2 f5 ff ff 	movzbl -0xa4e(%rbp),%eax
   10b5c:	48 0f be d8          	movsbq %al,%rbx
   10b60:	48 8b 05 71 06 01 00 	mov    0x10671(%rip),%rax        # 211d8 <g_792>
   10b67:	48 8b 00             	mov    (%rax),%rax
   10b6a:	48 85 c0             	test   %rax,%rax
   10b6d:	0f 95 c0             	setne  %al
   10b70:	0f b6 d0             	movzbl %al,%edx
   10b73:	8b 85 a0 f2 ff ff    	mov    -0xd60(%rbp),%eax
   10b79:	21 d0                	and    %edx,%eax
   10b7b:	89 85 a0 f2 ff ff    	mov    %eax,-0xd60(%rbp)
   10b81:	44 8b ad a0 f2 ff ff 	mov    -0xd60(%rbp),%r13d
   10b88:	48 8b 05 e1 02 01 00 	mov    0x102e1(%rip),%rax        # 20e70 <g_695>
   10b8f:	48 8b 00             	mov    (%rax),%rax
   10b92:	0f b7 00             	movzwl (%rax),%eax
   10b95:	44 0f b7 e0          	movzwl %ax,%r12d
   10b99:	8b 05 19 1d 01 00    	mov    0x11d19(%rip),%eax        # 228b8 <g_165>
   10b9f:	41 89 c6             	mov    %eax,%r14d
   10ba2:	be 00 00 00 00       	mov    $0x0,%esi
   10ba7:	bf 43 a4 00 00       	mov    $0xa443,%edi
   10bac:	e8 8c 61 ff ff       	callq  6d3d <safe_mul_func_uint16_t_u_u>
   10bb1:	0f b7 c0             	movzwl %ax,%eax
   10bb4:	4c 89 f6             	mov    %r14,%rsi
   10bb7:	48 89 c7             	mov    %rax,%rdi
   10bba:	e8 8c 64 ff ff       	callq  704b <safe_sub_func_uint64_t_u_u>
   10bbf:	48 8b 95 e0 f3 ff ff 	mov    -0xc20(%rbp),%rdx
   10bc6:	48 8b 12             	mov    (%rdx),%rdx
   10bc9:	48 31 c2             	xor    %rax,%rdx
   10bcc:	48 8b 85 e0 f3 ff ff 	mov    -0xc20(%rbp),%rax
   10bd3:	48 89 10             	mov    %rdx,(%rax)
   10bd6:	48 8b 85 e0 f3 ff ff 	mov    -0xc20(%rbp),%rax
   10bdd:	48 8b 00             	mov    (%rax),%rax
   10be0:	48 ba 60 06 a2 bf 8f 	movabs $0x1719638fbfa20660,%rdx
   10be7:	63 19 17 
   10bea:	48 39 d0             	cmp    %rdx,%rax
   10bed:	74 12                	je     10c01 <func_78+0x7e5>
   10bef:	48 8b 05 7a 02 01 00 	mov    0x1027a(%rip),%rax        # 20e70 <g_695>
   10bf6:	48 8b 00             	mov    (%rax),%rax
   10bf9:	0f b7 00             	movzwl (%rax),%eax
   10bfc:	66 85 c0             	test   %ax,%ax
   10bff:	74 07                	je     10c08 <func_78+0x7ec>
   10c01:	b9 01 00 00 00       	mov    $0x1,%ecx
   10c06:	eb 05                	jmp    10c0d <func_78+0x7f1>
   10c08:	b9 00 00 00 00       	mov    $0x0,%ecx
   10c0d:	0f b7 05 16 f7 00 00 	movzwl 0xf716(%rip),%eax        # 2032a <g_145>
   10c14:	0f b7 c0             	movzwl %ax,%eax
   10c17:	48 98                	cltq   
   10c19:	48 8d 15 01 f7 00 00 	lea    0xf701(%rip),%rdx        # 20321 <g_121>
   10c20:	0f b6 04 10          	movzbl (%rax,%rdx,1),%eax
   10c24:	0f be c0             	movsbl %al,%eax
   10c27:	39 c1                	cmp    %eax,%ecx
   10c29:	0f 9d c0             	setge  %al
   10c2c:	0f b6 c0             	movzbl %al,%eax
   10c2f:	89 c6                	mov    %eax,%esi
   10c31:	bf cf 00 00 00       	mov    $0xcf,%edi
   10c36:	e8 58 5f ff ff       	callq  6b93 <safe_mul_func_uint8_t_u_u>
   10c3b:	0f b6 d0             	movzbl %al,%edx
   10c3e:	48 8b 85 e8 f3 ff ff 	mov    -0xc18(%rbp),%rax
   10c45:	89 10                	mov    %edx,(%rax)
   10c47:	48 8b 85 e8 f3 ff ff 	mov    -0xc18(%rbp),%rax
   10c4e:	8b 08                	mov    (%rax),%ecx
   10c50:	48 8b 85 70 f2 ff ff 	mov    -0xd90(%rbp),%rax
   10c57:	8b 00                	mov    (%rax),%eax
   10c59:	89 85 a4 f2 ff ff    	mov    %eax,-0xd5c(%rbp)
   10c5f:	8b 95 a4 f2 ff ff    	mov    -0xd5c(%rbp),%edx
   10c65:	48 8b 85 f0 f3 ff ff 	mov    -0xc10(%rbp),%rax
   10c6c:	8b 00                	mov    (%rax),%eax
   10c6e:	21 c1                	and    %eax,%ecx
   10c70:	48 8b 85 f0 f3 ff ff 	mov    -0xc10(%rbp),%rax
   10c77:	89 08                	mov    %ecx,(%rax)
   10c79:	48 8b 85 f0 f3 ff ff 	mov    -0xc10(%rbp),%rax
   10c80:	8b 00                	mov    (%rax),%eax
   10c82:	39 c2                	cmp    %eax,%edx
   10c84:	0f 9f c0             	setg   %al
   10c87:	0f b6 d0             	movzbl %al,%edx
   10c8a:	48 8b 85 20 f3 ff ff 	mov    -0xce0(%rbp),%rax
   10c91:	0f b7 00             	movzwl (%rax),%eax
   10c94:	89 c1                	mov    %eax,%ecx
   10c96:	89 d0                	mov    %edx,%eax
   10c98:	21 c1                	and    %eax,%ecx
   10c9a:	89 ca                	mov    %ecx,%edx
   10c9c:	48 8b 85 20 f3 ff ff 	mov    -0xce0(%rbp),%rax
   10ca3:	66 89 10             	mov    %dx,(%rax)
   10ca6:	0f b7 00             	movzwl (%rax),%eax
   10ca9:	0f b7 c0             	movzwl %ax,%eax
   10cac:	44 89 e6             	mov    %r12d,%esi
   10caf:	89 c7                	mov    %eax,%edi
   10cb1:	e8 87 60 ff ff       	callq  6d3d <safe_mul_func_uint16_t_u_u>
   10cb6:	0f b7 c0             	movzwl %ax,%eax
   10cb9:	41 39 c5             	cmp    %eax,%r13d
   10cbc:	0f 94 c0             	sete   %al
   10cbf:	0f b6 c0             	movzbl %al,%eax
   10cc2:	48 89 de             	mov    %rbx,%rsi
   10cc5:	48 89 c7             	mov    %rax,%rdi
   10cc8:	e8 b3 63 ff ff       	callq  7080 <safe_mod_func_uint64_t_u_u>
   10ccd:	0f b6 95 b2 f5 ff ff 	movzbl -0xa4e(%rbp),%edx
   10cd4:	0f b6 85 aa f5 ff ff 	movzbl -0xa56(%rbp),%eax
   10cdb:	38 c2                	cmp    %al,%dl
   10cdd:	0f 95 c0             	setne  %al
   10ce0:	0f b6 d0             	movzbl %al,%edx
   10ce3:	48 8b 85 f8 f3 ff ff 	mov    -0xc08(%rbp),%rax
   10cea:	89 10                	mov    %edx,(%rax)
   10cec:	66 c7 05 7b f6 00 00 	movw   $0x0,0xf67b(%rip)        # 20370 <g_597>
   10cf3:	00 00 
   10cf5:	e9 96 04 00 00       	jmpq   11190 <func_78+0xd74>
   10cfa:	48 c7 85 e0 f4 ff ff 	movq   $0x0,-0xb20(%rbp)
   10d01:	00 00 00 00 
   10d05:	c7 85 c4 f2 ff ff 00 	movl   $0x0,-0xd3c(%rbp)
   10d0c:	00 00 00 
   10d0f:	48 8d 05 ba f4 00 00 	lea    0xf4ba(%rip),%rax        # 201d0 <g_50>
   10d16:	48 89 85 20 f8 ff ff 	mov    %rax,-0x7e0(%rbp)
   10d1d:	48 8d 05 a4 f4 00 00 	lea    0xf4a4(%rip),%rax        # 201c8 <g_14>
   10d24:	48 89 85 28 f8 ff ff 	mov    %rax,-0x7d8(%rbp)
   10d2b:	48 8d 05 62 f7 00 00 	lea    0xf762(%rip),%rax        # 20494 <g_984+0x4>
   10d32:	48 89 85 30 f8 ff ff 	mov    %rax,-0x7d0(%rbp)
   10d39:	48 8d 05 88 f4 00 00 	lea    0xf488(%rip),%rax        # 201c8 <g_14>
   10d40:	48 89 85 38 f8 ff ff 	mov    %rax,-0x7c8(%rbp)
   10d47:	48 8d 05 82 f4 00 00 	lea    0xf482(%rip),%rax        # 201d0 <g_50>
   10d4e:	48 89 85 40 f8 ff ff 	mov    %rax,-0x7c0(%rbp)
   10d55:	48 8d 05 74 f4 00 00 	lea    0xf474(%rip),%rax        # 201d0 <g_50>
   10d5c:	48 89 85 48 f8 ff ff 	mov    %rax,-0x7b8(%rbp)
   10d63:	48 8d 05 5e f4 00 00 	lea    0xf45e(%rip),%rax        # 201c8 <g_14>
   10d6a:	48 89 85 50 f8 ff ff 	mov    %rax,-0x7b0(%rbp)
   10d71:	48 8d 05 0c f5 00 00 	lea    0xf50c(%rip),%rax        # 20284 <g_77+0xa4>
   10d78:	48 89 85 58 f8 ff ff 	mov    %rax,-0x7a8(%rbp)
   10d7f:	48 8d 05 4a f4 00 00 	lea    0xf44a(%rip),%rax        # 201d0 <g_50>
   10d86:	48 89 85 60 f8 ff ff 	mov    %rax,-0x7a0(%rbp)
   10d8d:	48 8d 05 f0 f4 00 00 	lea    0xf4f0(%rip),%rax        # 20284 <g_77+0xa4>
   10d94:	48 89 85 68 f8 ff ff 	mov    %rax,-0x798(%rbp)
   10d9b:	48 8d 05 26 f4 00 00 	lea    0xf426(%rip),%rax        # 201c8 <g_14>
   10da2:	48 89 85 70 f8 ff ff 	mov    %rax,-0x790(%rbp)
   10da9:	48 8d 05 18 f4 00 00 	lea    0xf418(%rip),%rax        # 201c8 <g_14>
   10db0:	48 89 85 78 f8 ff ff 	mov    %rax,-0x788(%rbp)
   10db7:	48 8d 05 c6 f4 00 00 	lea    0xf4c6(%rip),%rax        # 20284 <g_77+0xa4>
   10dbe:	48 89 85 80 f8 ff ff 	mov    %rax,-0x780(%rbp)
   10dc5:	48 8d 05 04 f4 00 00 	lea    0xf404(%rip),%rax        # 201d0 <g_50>
   10dcc:	48 89 85 88 f8 ff ff 	mov    %rax,-0x778(%rbp)
   10dd3:	48 8d 05 ee f3 00 00 	lea    0xf3ee(%rip),%rax        # 201c8 <g_14>
   10dda:	48 89 85 90 f8 ff ff 	mov    %rax,-0x770(%rbp)
   10de1:	48 8d 05 e8 f3 00 00 	lea    0xf3e8(%rip),%rax        # 201d0 <g_50>
   10de8:	48 89 85 98 f8 ff ff 	mov    %rax,-0x768(%rbp)
   10def:	48 8d 05 9e f6 00 00 	lea    0xf69e(%rip),%rax        # 20494 <g_984+0x4>
   10df6:	48 89 85 a0 f8 ff ff 	mov    %rax,-0x760(%rbp)
   10dfd:	48 8d 05 90 f6 00 00 	lea    0xf690(%rip),%rax        # 20494 <g_984+0x4>
   10e04:	48 89 85 a8 f8 ff ff 	mov    %rax,-0x758(%rbp)
   10e0b:	48 8d 05 be f3 00 00 	lea    0xf3be(%rip),%rax        # 201d0 <g_50>
   10e12:	48 89 85 b0 f8 ff ff 	mov    %rax,-0x750(%rbp)
   10e19:	48 8d 05 a8 f3 00 00 	lea    0xf3a8(%rip),%rax        # 201c8 <g_14>
   10e20:	48 89 85 b8 f8 ff ff 	mov    %rax,-0x748(%rbp)
   10e27:	48 8d 05 a2 f3 00 00 	lea    0xf3a2(%rip),%rax        # 201d0 <g_50>
   10e2e:	48 89 85 c0 f8 ff ff 	mov    %rax,-0x740(%rbp)
   10e35:	48 c7 85 80 f6 ff ff 	movq   $0x0,-0x980(%rbp)
   10e3c:	00 00 00 00 
   10e40:	48 c7 85 88 f6 ff ff 	movq   $0x0,-0x978(%rbp)
   10e47:	00 00 00 00 
   10e4b:	48 c7 85 90 f6 ff ff 	movq   $0x0,-0x970(%rbp)
   10e52:	00 00 00 00 
   10e56:	48 c7 85 98 f6 ff ff 	movq   $0x0,-0x968(%rbp)
   10e5d:	00 00 00 00 
   10e61:	48 c7 85 a0 f6 ff ff 	movq   $0x0,-0x960(%rbp)
   10e68:	00 00 00 00 
   10e6c:	48 c7 85 a8 f6 ff ff 	movq   $0x0,-0x958(%rbp)
   10e73:	00 00 00 00 
   10e77:	48 c7 85 b0 f6 ff ff 	movq   $0x0,-0x950(%rbp)
   10e7e:	00 00 00 00 
   10e82:	48 c7 85 b8 f6 ff ff 	movq   $0x0,-0x948(%rbp)
   10e89:	00 00 00 00 
   10e8d:	c7 05 a5 f4 00 00 02 	movl   $0x2,0xf4a5(%rip)        # 2033c <g_163>
   10e94:	00 00 00 
   10e97:	e9 5a 02 00 00       	jmpq   110f6 <func_78+0xcda>
   10e9c:	48 c7 85 e8 f4 ff ff 	movq   $0x0,-0xb18(%rbp)
   10ea3:	00 00 00 00 
   10ea7:	48 8d 05 8a f4 00 00 	lea    0xf48a(%rip),%rax        # 20338 <g_159>
   10eae:	48 89 85 f0 f4 ff ff 	mov    %rax,-0xb10(%rbp)
   10eb5:	48 8b 85 f0 f4 ff ff 	mov    -0xb10(%rbp),%rax
   10ebc:	8b 15 76 f4 00 00    	mov    0xf476(%rip),%edx        # 20338 <g_159>
   10ec2:	89 10                	mov    %edx,(%rax)
   10ec4:	0f b7 05 dd f4 00 00 	movzwl 0xf4dd(%rip),%eax        # 203a8 <g_883+0x8>
   10ecb:	98                   	cwtl   
   10ecc:	35 f9 29 e2 1f       	xor    $0x1fe229f9,%eax
   10ed1:	89 c3                	mov    %eax,%ebx
   10ed3:	48 8b 85 e8 f5 ff ff 	mov    -0xa18(%rbp),%rax
   10eda:	48 89 85 30 f3 ff ff 	mov    %rax,-0xcd0(%rbp)
   10ee1:	48 83 bd 30 f3 ff ff 	cmpq   $0x0,-0xcd0(%rbp)
   10ee8:	00 
   10ee9:	0f 95 c0             	setne  %al
   10eec:	0f b6 c0             	movzbl %al,%eax
   10eef:	be 0c 00 00 00       	mov    $0xc,%esi
   10ef4:	89 c7                	mov    %eax,%edi
   10ef6:	e8 4d 5f ff ff       	callq  6e48 <safe_rshift_func_uint16_t_u_s>
   10efb:	0f b7 c0             	movzwl %ax,%eax
   10efe:	89 de                	mov    %ebx,%esi
   10f00:	89 c7                	mov    %eax,%edi
   10f02:	e8 b1 5f ff ff       	callq  6eb8 <safe_add_func_uint32_t_u_u>
   10f07:	89 c2                	mov    %eax,%edx
   10f09:	48 8b 85 78 f2 ff ff 	mov    -0xd88(%rbp),%rax
   10f10:	48 39 c2             	cmp    %rax,%rdx
   10f13:	0f 9e c0             	setle  %al
   10f16:	0f b6 c0             	movzbl %al,%eax
   10f19:	be 0b 00 00 00       	mov    $0xb,%esi
   10f1e:	89 c7                	mov    %eax,%edi
   10f20:	e8 05 56 ff ff       	callq  652a <safe_rshift_func_int16_t_s_s>
   10f25:	8b 85 a4 f2 ff ff    	mov    -0xd5c(%rbp),%eax
   10f2b:	3d 0d ee 00 00       	cmp    $0xee0d,%eax
   10f30:	0f 9f c0             	setg   %al
   10f33:	0f b6 c0             	movzbl %al,%eax
   10f36:	21 85 c4 f2 ff ff    	and    %eax,-0xd3c(%rbp)
   10f3c:	83 bd c4 f2 ff ff f7 	cmpl   $0xfffffff7,-0xd3c(%rbp)
   10f43:	0f 9c c0             	setl   %al
   10f46:	0f b6 d0             	movzbl %al,%edx
   10f49:	48 8b 05 18 ff 00 00 	mov    0xff18(%rip),%rax        # 20e68 <g_696>
   10f50:	0f b7 00             	movzwl (%rax),%eax
   10f53:	0f b7 c0             	movzwl %ax,%eax
   10f56:	89 d6                	mov    %edx,%esi
   10f58:	89 c7                	mov    %eax,%edi
   10f5a:	e8 c0 5d ff ff       	callq  6d1f <safe_sub_func_uint16_t_u_u>
   10f5f:	66 85 c0             	test   %ax,%ax
   10f62:	74 4d                	je     10fb1 <func_78+0xb95>
   10f64:	48 8b 05 15 f5 00 00 	mov    0xf515(%rip),%rax        # 20480 <g_958+0x10>
   10f6b:	48 85 c0             	test   %rax,%rax
   10f6e:	74 41                	je     10fb1 <func_78+0xb95>
   10f70:	0f b7 05 f9 f3 00 00 	movzwl 0xf3f9(%rip),%eax        # 20370 <g_597>
   10f77:	0f bf d0             	movswl %ax,%edx
   10f7a:	0f b7 05 ef f3 00 00 	movzwl 0xf3ef(%rip),%eax        # 20370 <g_597>
   10f81:	98                   	cwtl   
   10f82:	8d 70 02             	lea    0x2(%rax),%esi
   10f85:	0f b7 05 e4 f3 00 00 	movzwl 0xf3e4(%rip),%eax        # 20370 <g_597>
   10f8c:	98                   	cwtl   
   10f8d:	48 98                	cltq   
   10f8f:	48 63 ca             	movslq %edx,%rcx
   10f92:	48 63 d6             	movslq %esi,%rdx
   10f95:	48 c1 e1 02          	shl    $0x2,%rcx
   10f99:	48 01 ca             	add    %rcx,%rdx
   10f9c:	48 01 d2             	add    %rdx,%rdx
   10f9f:	48 01 c2             	add    %rax,%rdx
   10fa2:	48 8d 05 b7 f3 00 00 	lea    0xf3b7(%rip),%rax        # 20360 <g_517>
   10fa9:	48 01 d0             	add    %rdx,%rax
   10fac:	0f b6 00             	movzbl (%rax),%eax
   10faf:	84 c0                	test   %al,%al
   10fb1:	48 8b 85 00 f4 ff ff 	mov    -0xc00(%rbp),%rax
   10fb8:	48 3b 85 e0 f4 ff ff 	cmp    -0xb20(%rbp),%rax
   10fbf:	74 0d                	je     10fce <func_78+0xbb2>
   10fc1:	48 8b 85 60 f2 ff ff 	mov    -0xda0(%rbp),%rax
   10fc8:	0f b7 00             	movzwl (%rax),%eax
   10fcb:	66 85 c0             	test   %ax,%ax
   10fce:	0f b7 05 9b f3 00 00 	movzwl 0xf39b(%rip),%eax        # 20370 <g_597>
   10fd5:	0f bf d0             	movswl %ax,%edx
   10fd8:	0f b7 05 91 f3 00 00 	movzwl 0xf391(%rip),%eax        # 20370 <g_597>
   10fdf:	98                   	cwtl   
   10fe0:	8d 70 02             	lea    0x2(%rax),%esi
   10fe3:	0f b7 05 86 f3 00 00 	movzwl 0xf386(%rip),%eax        # 20370 <g_597>
   10fea:	98                   	cwtl   
   10feb:	48 98                	cltq   
   10fed:	48 63 ca             	movslq %edx,%rcx
   10ff0:	48 63 d6             	movslq %esi,%rdx
   10ff3:	48 c1 e1 02          	shl    $0x2,%rcx
   10ff7:	48 01 ca             	add    %rcx,%rdx
   10ffa:	48 01 d2             	add    %rdx,%rdx
   10ffd:	48 01 c2             	add    %rax,%rdx
   11000:	48 8d 05 59 f3 00 00 	lea    0xf359(%rip),%rax        # 20360 <g_517>
   11007:	48 01 d0             	add    %rdx,%rax
   1100a:	0f b6 00             	movzbl (%rax),%eax
   1100d:	48 0f be c0          	movsbq %al,%rax
   11011:	48 39 85 68 f2 ff ff 	cmp    %rax,-0xd98(%rbp)
   11018:	0f 92 c0             	setb   %al
   1101b:	0f b6 d0             	movzbl %al,%edx
   1101e:	0f b7 05 4b f3 00 00 	movzwl 0xf34b(%rip),%eax        # 20370 <g_597>
   11025:	0f bf c8             	movswl %ax,%ecx
   11028:	0f b7 05 41 f3 00 00 	movzwl 0xf341(%rip),%eax        # 20370 <g_597>
   1102f:	98                   	cwtl   
   11030:	8d 78 02             	lea    0x2(%rax),%edi
   11033:	0f b7 05 36 f3 00 00 	movzwl 0xf336(%rip),%eax        # 20370 <g_597>
   1103a:	98                   	cwtl   
   1103b:	48 98                	cltq   
   1103d:	48 63 f1             	movslq %ecx,%rsi
   11040:	48 63 cf             	movslq %edi,%rcx
   11043:	48 c1 e6 02          	shl    $0x2,%rsi
   11047:	48 01 f1             	add    %rsi,%rcx
   1104a:	48 01 c9             	add    %rcx,%rcx
   1104d:	48 01 c1             	add    %rax,%rcx
   11050:	48 8d 05 09 f3 00 00 	lea    0xf309(%rip),%rax        # 20360 <g_517>
   11057:	48 01 c8             	add    %rcx,%rax
   1105a:	0f b6 00             	movzbl (%rax),%eax
   1105d:	0f be c0             	movsbl %al,%eax
   11060:	31 c2                	xor    %eax,%edx
   11062:	48 8b 85 e8 f3 ff ff 	mov    -0xc18(%rbp),%rax
   11069:	8b 00                	mov    (%rax),%eax
   1106b:	09 c2                	or     %eax,%edx
   1106d:	48 8b 85 e8 f3 ff ff 	mov    -0xc18(%rbp),%rax
   11074:	89 10                	mov    %edx,(%rax)
   11076:	0f b7 05 f3 f2 00 00 	movzwl 0xf2f3(%rip),%eax        # 20370 <g_597>
   1107d:	0f bf d0             	movswl %ax,%edx
   11080:	0f b7 05 e9 f2 00 00 	movzwl 0xf2e9(%rip),%eax        # 20370 <g_597>
   11087:	98                   	cwtl   
   11088:	8d 70 02             	lea    0x2(%rax),%esi
   1108b:	0f b7 05 de f2 00 00 	movzwl 0xf2de(%rip),%eax        # 20370 <g_597>
   11092:	98                   	cwtl   
   11093:	48 98                	cltq   
   11095:	48 63 ca             	movslq %edx,%rcx
   11098:	48 63 d6             	movslq %esi,%rdx
   1109b:	48 c1 e1 02          	shl    $0x2,%rcx
   1109f:	48 01 ca             	add    %rcx,%rdx
   110a2:	48 01 d2             	add    %rdx,%rdx
   110a5:	48 01 c2             	add    %rax,%rdx
   110a8:	48 8d 05 b1 f2 00 00 	lea    0xf2b1(%rip),%rax        # 20360 <g_517>
   110af:	48 01 d0             	add    %rdx,%rax
   110b2:	0f b6 00             	movzbl (%rax),%eax
   110b5:	0f be d0             	movsbl %al,%edx
   110b8:	48 8b 85 f8 f3 ff ff 	mov    -0xc08(%rbp),%rax
   110bf:	89 10                	mov    %edx,(%rax)
   110c1:	0f b7 05 62 f2 00 00 	movzwl 0xf262(%rip),%eax        # 2032a <g_145>
   110c8:	0f b7 c0             	movzwl %ax,%eax
   110cb:	48 98                	cltq   
   110cd:	48 8d 0c c5 00 00 00 	lea    0x0(,%rax,8),%rcx
   110d4:	00 
   110d5:	48 8d 15 04 18 01 00 	lea    0x11804(%rip),%rdx        # 228e0 <g_795>
   110dc:	48 8d 85 a4 f2 ff ff 	lea    -0xd5c(%rbp),%rax
   110e3:	48 89 04 11          	mov    %rax,(%rcx,%rdx,1)
   110e7:	8b 05 4f f2 00 00    	mov    0xf24f(%rip),%eax        # 2033c <g_163>
   110ed:	83 c0 01             	add    $0x1,%eax
   110f0:	89 05 46 f2 00 00    	mov    %eax,0xf246(%rip)        # 2033c <g_163>
   110f6:	8b 05 40 f2 00 00    	mov    0xf240(%rip),%eax        # 2033c <g_163>
   110fc:	83 f8 06             	cmp    $0x6,%eax
   110ff:	0f 86 97 fd ff ff    	jbe    10e9c <func_78+0xa80>
   11105:	0f b6 85 8a f2 ff ff 	movzbl -0xd76(%rbp),%eax
   1110c:	83 e8 01             	sub    $0x1,%eax
   1110f:	88 85 8a f2 ff ff    	mov    %al,-0xd76(%rbp)
   11115:	48 8b 85 70 f2 ff ff 	mov    -0xd90(%rbp),%rax
   1111c:	8b 00                	mov    (%rax),%eax
   1111e:	85 c0                	test   %eax,%eax
   11120:	75 5c                	jne    1117e <func_78+0xd62>
   11122:	48 8b 85 30 f3 ff ff 	mov    -0xcd0(%rbp),%rax
   11129:	48 8b 00             	mov    (%rax),%rax
   1112c:	8b 15 06 f2 00 00    	mov    0xf206(%rip),%edx        # 20338 <g_159>
   11132:	89 10                	mov    %edx,(%rax)
   11134:	c7 85 a8 f2 ff ff 04 	movl   $0x4,-0xd58(%rbp)
   1113b:	00 00 00 
   1113e:	eb 32                	jmp    11172 <func_78+0xd56>
   11140:	8b 95 a8 f2 ff ff    	mov    -0xd58(%rbp),%edx
   11146:	48 8b 85 a8 f6 ff ff 	mov    -0x958(%rbp),%rax
   1114d:	48 63 d2             	movslq %edx,%rdx
   11150:	48 8d 0c d5 00 00 00 	lea    0x0(,%rdx,8),%rcx
   11157:	00 
   11158:	48 8d 15 81 17 01 00 	lea    0x11781(%rip),%rdx        # 228e0 <g_795>
   1115f:	48 89 04 11          	mov    %rax,(%rcx,%rdx,1)
   11163:	8b 85 a8 f2 ff ff    	mov    -0xd58(%rbp),%eax
   11169:	83 e8 01             	sub    $0x1,%eax
   1116c:	89 85 a8 f2 ff ff    	mov    %eax,-0xd58(%rbp)
   11172:	8b 85 a8 f2 ff ff    	mov    -0xd58(%rbp),%eax
   11178:	85 c0                	test   %eax,%eax
   1117a:	79 c4                	jns    11140 <func_78+0xd24>
   1117c:	eb 01                	jmp    1117f <func_78+0xd63>
   1117e:	90                   	nop
   1117f:	0f b7 05 ea f1 00 00 	movzwl 0xf1ea(%rip),%eax        # 20370 <g_597>
   11186:	83 c0 01             	add    $0x1,%eax
   11189:	66 89 05 e0 f1 00 00 	mov    %ax,0xf1e0(%rip)        # 20370 <g_597>
   11190:	0f b7 05 d9 f1 00 00 	movzwl 0xf1d9(%rip),%eax        # 20370 <g_597>
   11197:	66 83 f8 01          	cmp    $0x1,%ax
   1119b:	0f 8e 59 fb ff ff    	jle    10cfa <func_78+0x8de>
   111a1:	c7 05 0d 17 01 00 00 	movl   $0x0,0x1170d(%rip)        # 228b8 <g_165>
   111a8:	00 00 00 
   111ab:	90                   	nop
   111ac:	8b 05 06 17 01 00    	mov    0x11706(%rip),%eax        # 228b8 <g_165>
   111b2:	83 f8 06             	cmp    $0x6,%eax
   111b5:	0f 87 97 0a 00 00    	ja     11c52 <func_78+0x1836>
   111bb:	66 c7 85 80 f6 ff ff 	movw   $0xfb00,-0x980(%rbp)
   111c2:	00 fb 
   111c4:	66 c7 85 82 f6 ff ff 	movw   $0xfbea,-0x97e(%rbp)
   111cb:	ea fb 
   111cd:	66 c7 85 84 f6 ff ff 	movw   $0x4f00,-0x97c(%rbp)
   111d4:	00 4f 
   111d6:	66 c7 85 86 f6 ff ff 	movw   $0xfb00,-0x97a(%rbp)
   111dd:	00 fb 
   111df:	66 c7 85 88 f6 ff ff 	movw   $0xfbea,-0x978(%rbp)
   111e6:	ea fb 
   111e8:	66 c7 85 8a f6 ff ff 	movw   $0x4f00,-0x976(%rbp)
   111ef:	00 4f 
   111f1:	66 c7 85 8c f6 ff ff 	movw   $0xfb00,-0x974(%rbp)
   111f8:	00 fb 
   111fa:	66 c7 85 8e f6 ff ff 	movw   $0xfbea,-0x972(%rbp)
   11201:	ea fb 
   11203:	66 c7 85 90 f6 ff ff 	movw   $0x4f00,-0x970(%rbp)
   1120a:	00 4f 
   1120c:	66 c7 85 92 f6 ff ff 	movw   $0xfb00,-0x96e(%rbp)
   11213:	00 fb 
   11215:	66 c7 85 94 f6 ff ff 	movw   $0xfbea,-0x96c(%rbp)
   1121c:	ea fb 
   1121e:	66 c7 85 96 f6 ff ff 	movw   $0x4f00,-0x96a(%rbp)
   11225:	00 4f 
   11227:	66 c7 85 98 f6 ff ff 	movw   $0xfb00,-0x968(%rbp)
   1122e:	00 fb 
   11230:	66 c7 85 9a f6 ff ff 	movw   $0xfbea,-0x966(%rbp)
   11237:	ea fb 
   11239:	66 c7 85 9c f6 ff ff 	movw   $0x4f00,-0x964(%rbp)
   11240:	00 4f 
   11242:	66 c7 85 9e f6 ff ff 	movw   $0xfb00,-0x962(%rbp)
   11249:	00 fb 
   1124b:	66 c7 85 a0 f6 ff ff 	movw   $0xfbea,-0x960(%rbp)
   11252:	ea fb 
   11254:	66 c7 85 a2 f6 ff ff 	movw   $0x4f00,-0x95e(%rbp)
   1125b:	00 4f 
   1125d:	66 c7 85 a4 f6 ff ff 	movw   $0xfb00,-0x95c(%rbp)
   11264:	00 fb 
   11266:	66 c7 85 a6 f6 ff ff 	movw   $0xfbea,-0x95a(%rbp)
   1126d:	ea fb 
   1126f:	66 c7 85 a8 f6 ff ff 	movw   $0x4f00,-0x958(%rbp)
   11276:	00 4f 
   11278:	48 8d 85 9c f2 ff ff 	lea    -0xd64(%rbp),%rax
   1127f:	48 89 85 30 f4 ff ff 	mov    %rax,-0xbd0(%rbp)
   11286:	48 8d 85 8a f2 ff ff 	lea    -0xd76(%rbp),%rax
   1128d:	48 89 85 38 f4 ff ff 	mov    %rax,-0xbc8(%rbp)
   11294:	48 8d 05 0d f2 00 00 	lea    0xf20d(%rip),%rax        # 204a8 <g_1068>
   1129b:	48 89 85 40 f4 ff ff 	mov    %rax,-0xbc0(%rbp)
   112a2:	c7 85 b0 f2 ff ff 00 	movl   $0x0,-0xd50(%rbp)
   112a9:	00 00 00 
   112ac:	c7 85 e4 f2 ff ff 08 	movl   $0x8,-0xd1c(%rbp)
   112b3:	00 00 00 
   112b6:	be 9e ff ff ff       	mov    $0xffffff9e,%esi
   112bb:	bf 01 00 00 00       	mov    $0x1,%edi
   112c0:	e8 6c 4f ff ff       	callq  6231 <safe_mod_func_int8_t_s_s>
   112c5:	84 c0                	test   %al,%al
   112c7:	0f 84 7a 04 00 00    	je     11747 <func_78+0x132b>
   112cd:	c6 85 b4 f2 ff ff d0 	movb   $0xd0,-0xd4c(%rbp)
   112d4:	0f b6 85 b5 f2 ff ff 	movzbl -0xd4b(%rbp),%eax
   112db:	83 e0 c0             	and    $0xffffffc0,%eax
   112de:	83 c8 06             	or     $0x6,%eax
   112e1:	88 85 b5 f2 ff ff    	mov    %al,-0xd4b(%rbp)
   112e7:	48 8d 05 7a fb 00 00 	lea    0xfb7a(%rip),%rax        # 20e68 <g_696>
   112ee:	48 89 85 50 f4 ff ff 	mov    %rax,-0xbb0(%rbp)
   112f5:	c7 85 18 f3 ff ff ff 	movl   $0xffffffff,-0xce8(%rbp)
   112fc:	ff ff ff 
   112ff:	48 c7 85 20 f8 ff ff 	movq   $0x0,-0x7e0(%rbp)
   11306:	00 00 00 00 
   1130a:	48 8d 05 53 ee 00 00 	lea    0xee53(%rip),%rax        # 20164 <g_7>
   11311:	48 89 85 28 f8 ff ff 	mov    %rax,-0x7d8(%rbp)
   11318:	48 c7 85 30 f8 ff ff 	movq   $0x0,-0x7d0(%rbp)
   1131f:	00 00 00 00 
   11323:	48 8d 85 9c f2 ff ff 	lea    -0xd64(%rbp),%rax
   1132a:	48 89 85 38 f8 ff ff 	mov    %rax,-0x7c8(%rbp)
   11331:	48 c7 85 40 f8 ff ff 	movq   $0x0,-0x7c0(%rbp)
   11338:	00 00 00 00 
   1133c:	48 8d 05 21 ee 00 00 	lea    0xee21(%rip),%rax        # 20164 <g_7>
   11343:	48 89 85 48 f8 ff ff 	mov    %rax,-0x7b8(%rbp)
   1134a:	48 c7 85 50 f8 ff ff 	movq   $0x0,-0x7b0(%rbp)
   11351:	00 00 00 00 
   11355:	48 8d 85 18 f3 ff ff 	lea    -0xce8(%rbp),%rax
   1135c:	48 89 85 58 f8 ff ff 	mov    %rax,-0x7a8(%rbp)
   11363:	48 c7 85 60 f8 ff ff 	movq   $0x0,-0x7a0(%rbp)
   1136a:	00 00 00 00 
   1136e:	48 8d 85 9c f2 ff ff 	lea    -0xd64(%rbp),%rax
   11375:	48 89 85 68 f8 ff ff 	mov    %rax,-0x798(%rbp)
   1137c:	48 c7 85 70 f8 ff ff 	movq   $0x0,-0x790(%rbp)
   11383:	00 00 00 00 
   11387:	48 8d 85 9c f2 ff ff 	lea    -0xd64(%rbp),%rax
   1138e:	48 89 85 78 f8 ff ff 	mov    %rax,-0x788(%rbp)
   11395:	48 8d 05 34 ee 00 00 	lea    0xee34(%rip),%rax        # 201d0 <g_50>
   1139c:	48 89 85 80 f8 ff ff 	mov    %rax,-0x780(%rbp)
   113a3:	48 c7 85 88 f8 ff ff 	movq   $0x0,-0x778(%rbp)
   113aa:	00 00 00 00 
   113ae:	48 8d 85 9c f2 ff ff 	lea    -0xd64(%rbp),%rax
   113b5:	48 89 85 90 f8 ff ff 	mov    %rax,-0x770(%rbp)
   113bc:	48 c7 85 98 f8 ff ff 	movq   $0x0,-0x768(%rbp)
   113c3:	00 00 00 00 
   113c7:	48 8d 05 02 ee 00 00 	lea    0xee02(%rip),%rax        # 201d0 <g_50>
   113ce:	48 89 85 a0 f8 ff ff 	mov    %rax,-0x760(%rbp)
   113d5:	48 8d 05 f4 ed 00 00 	lea    0xedf4(%rip),%rax        # 201d0 <g_50>
   113dc:	48 89 85 a8 f8 ff ff 	mov    %rax,-0x758(%rbp)
   113e3:	48 c7 85 b0 f8 ff ff 	movq   $0x0,-0x750(%rbp)
   113ea:	00 00 00 00 
   113ee:	48 8d 85 9c f2 ff ff 	lea    -0xd64(%rbp),%rax
   113f5:	48 89 85 b8 f8 ff ff 	mov    %rax,-0x748(%rbp)
   113fc:	48 8d 85 18 f3 ff ff 	lea    -0xce8(%rbp),%rax
   11403:	48 89 85 c0 f8 ff ff 	mov    %rax,-0x740(%rbp)
   1140a:	48 8d 05 53 ed 00 00 	lea    0xed53(%rip),%rax        # 20164 <g_7>
   11411:	48 89 85 c8 f8 ff ff 	mov    %rax,-0x738(%rbp)
   11418:	48 8d 05 b1 ed 00 00 	lea    0xedb1(%rip),%rax        # 201d0 <g_50>
   1141f:	48 89 85 d0 f8 ff ff 	mov    %rax,-0x730(%rbp)
   11426:	48 8d 85 9c f2 ff ff 	lea    -0xd64(%rbp),%rax
   1142d:	48 89 85 d8 f8 ff ff 	mov    %rax,-0x728(%rbp)
   11434:	48 8d 85 18 f3 ff ff 	lea    -0xce8(%rbp),%rax
   1143b:	48 89 85 e0 f8 ff ff 	mov    %rax,-0x720(%rbp)
   11442:	48 8d 85 98 f2 ff ff 	lea    -0xd68(%rbp),%rax
   11449:	48 89 85 e8 f8 ff ff 	mov    %rax,-0x718(%rbp)
   11450:	48 8d 85 9c f2 ff ff 	lea    -0xd64(%rbp),%rax
   11457:	48 89 85 f0 f8 ff ff 	mov    %rax,-0x710(%rbp)
   1145e:	48 8d 85 9c f2 ff ff 	lea    -0xd64(%rbp),%rax
   11465:	48 89 85 f8 f8 ff ff 	mov    %rax,-0x708(%rbp)
   1146c:	48 c7 85 00 f9 ff ff 	movq   $0x0,-0x700(%rbp)
   11473:	00 00 00 00 
   11477:	48 8d 85 98 f2 ff ff 	lea    -0xd68(%rbp),%rax
   1147e:	48 89 85 08 f9 ff ff 	mov    %rax,-0x6f8(%rbp)
   11485:	48 c7 85 10 f9 ff ff 	movq   $0x0,-0x6f0(%rbp)
   1148c:	00 00 00 00 
   11490:	48 8d 85 98 f2 ff ff 	lea    -0xd68(%rbp),%rax
   11497:	48 89 85 18 f9 ff ff 	mov    %rax,-0x6e8(%rbp)
   1149e:	48 c7 85 20 f9 ff ff 	movq   $0x0,-0x6e0(%rbp)
   114a5:	00 00 00 00 
   114a9:	48 8d 05 20 ed 00 00 	lea    0xed20(%rip),%rax        # 201d0 <g_50>
   114b0:	48 89 85 28 f9 ff ff 	mov    %rax,-0x6d8(%rbp)
   114b7:	48 8d 05 a6 ec 00 00 	lea    0xeca6(%rip),%rax        # 20164 <g_7>
   114be:	48 89 85 30 f9 ff ff 	mov    %rax,-0x6d0(%rbp)
   114c5:	48 8d 85 a8 f2 ff ff 	lea    -0xd58(%rbp),%rax
   114cc:	48 89 85 38 f9 ff ff 	mov    %rax,-0x6c8(%rbp)
   114d3:	48 8d 05 f6 ec 00 00 	lea    0xecf6(%rip),%rax        # 201d0 <g_50>
   114da:	48 89 85 40 f9 ff ff 	mov    %rax,-0x6c0(%rbp)
   114e1:	48 8d 85 9c f2 ff ff 	lea    -0xd64(%rbp),%rax
   114e8:	48 89 85 48 f9 ff ff 	mov    %rax,-0x6b8(%rbp)
   114ef:	48 c7 85 50 f9 ff ff 	movq   $0x0,-0x6b0(%rbp)
   114f6:	00 00 00 00 
   114fa:	48 c7 85 58 f9 ff ff 	movq   $0x0,-0x6a8(%rbp)
   11501:	00 00 00 00 
   11505:	48 8d 05 58 ec 00 00 	lea    0xec58(%rip),%rax        # 20164 <g_7>
   1150c:	48 89 85 60 f9 ff ff 	mov    %rax,-0x6a0(%rbp)
   11513:	48 c7 85 68 f9 ff ff 	movq   $0x0,-0x698(%rbp)
   1151a:	00 00 00 00 
   1151e:	c7 85 a8 f2 ff ff 00 	movl   $0x0,-0xd58(%rbp)
   11525:	00 00 00 
   11528:	eb 2b                	jmp    11555 <func_78+0x1139>
   1152a:	48 8b 85 10 f3 ff ff 	mov    -0xcf0(%rbp),%rax
   11531:	8b 15 01 ee 00 00    	mov    0xee01(%rip),%edx        # 20338 <g_159>
   11537:	89 10                	mov    %edx,(%rax)
   11539:	48 8b 85 70 f2 ff ff 	mov    -0xd90(%rbp),%rax
   11540:	8b 00                	mov    (%rax),%eax
   11542:	85 c0                	test   %eax,%eax
   11544:	75 1c                	jne    11562 <func_78+0x1146>
   11546:	8b 85 a8 f2 ff ff    	mov    -0xd58(%rbp),%eax
   1154c:	83 c0 01             	add    $0x1,%eax
   1154f:	89 85 a8 f2 ff ff    	mov    %eax,-0xd58(%rbp)
   11555:	8b 85 a8 f2 ff ff    	mov    -0xd58(%rbp),%eax
   1155b:	83 f8 06             	cmp    $0x6,%eax
   1155e:	7e ca                	jle    1152a <func_78+0x110e>
   11560:	eb 01                	jmp    11563 <func_78+0x1147>
   11562:	90                   	nop
   11563:	48 8b 85 10 f3 ff ff 	mov    -0xcf0(%rbp),%rax
   1156a:	8b 95 b4 f2 ff ff    	mov    -0xd4c(%rbp),%edx
   11570:	89 10                	mov    %edx,(%rax)
   11572:	0f b7 05 b1 ed 00 00 	movzwl 0xedb1(%rip),%eax        # 2032a <g_145>
   11579:	0f b7 c0             	movzwl %ax,%eax
   1157c:	48 98                	cltq   
   1157e:	48 8d 15 9c ed 00 00 	lea    0xed9c(%rip),%rdx        # 20321 <g_121>
   11585:	0f b6 04 10          	movzbl (%rax,%rdx,1),%eax
   11589:	48 0f be c0          	movsbq %al,%rax
   1158d:	48 89 85 38 f3 ff ff 	mov    %rax,-0xcc8(%rbp)
   11594:	48 8b 85 38 f3 ff ff 	mov    -0xcc8(%rbp),%rax
   1159b:	0f b7 d8             	movzwl %ax,%ebx
   1159e:	48 8b 85 60 f2 ff ff 	mov    -0xda0(%rbp),%rax
   115a5:	0f b7 00             	movzwl (%rax),%eax
   115a8:	0f b7 c0             	movzwl %ax,%eax
   115ab:	be 01 00 00 00       	mov    $0x1,%esi
   115b0:	89 c7                	mov    %eax,%edi
   115b2:	e8 d7 57 ff ff       	callq  6d8e <safe_div_func_uint16_t_u_u>
   115b7:	0f b7 d0             	movzwl %ax,%edx
   115ba:	48 83 bd 50 f4 ff ff 	cmpq   $0x0,-0xbb0(%rbp)
   115c1:	00 
   115c2:	0f 94 c0             	sete   %al
   115c5:	0f b6 c0             	movzbl %al,%eax
   115c8:	39 c2                	cmp    %eax,%edx
   115ca:	0f 95 c0             	setne  %al
   115cd:	0f b6 c0             	movzbl %al,%eax
   115d0:	89 de                	mov    %ebx,%esi
   115d2:	89 c7                	mov    %eax,%edi
   115d4:	e8 46 57 ff ff       	callq  6d1f <safe_sub_func_uint16_t_u_u>
   115d9:	0f b7 d0             	movzwl %ax,%edx
   115dc:	8b 85 18 f3 ff ff    	mov    -0xce8(%rbp),%eax
   115e2:	09 d0                	or     %edx,%eax
   115e4:	89 85 18 f3 ff ff    	mov    %eax,-0xce8(%rbp)
   115ea:	48 be 23 34 b4 da b4 	movabs $0x2adbd7b4dab43423,%rsi
   115f1:	d7 db 2a 
   115f4:	48 c7 c7 f9 ff ff ff 	mov    $0xfffffffffffffff9,%rdi
   115fb:	e8 a8 52 ff ff       	callq  68a8 <safe_sub_func_int64_t_s_s>
   11600:	48 8b 05 79 ee 00 00 	mov    0xee79(%rip),%rax        # 20480 <g_958+0x10>
   11607:	48 3d 9e 00 00 00    	cmp    $0x9e,%rax
   1160d:	7f 13                	jg     11622 <func_78+0x1206>
   1160f:	48 8b 05 3a f8 00 00 	mov    0xf83a(%rip),%rax        # 20e50 <g_323>
   11616:	48 8d 95 a4 f2 ff ff 	lea    -0xd5c(%rbp),%rdx
   1161d:	48 89 10             	mov    %rdx,(%rax)
   11620:	eb 3d                	jmp    1165f <func_78+0x1243>
   11622:	0f b6 85 b5 f2 ff ff 	movzbl -0xd4b(%rbp),%eax
   11629:	c1 e0 02             	shl    $0x2,%eax
   1162c:	c0 f8 02             	sar    $0x2,%al
   1162f:	0f be d0             	movsbl %al,%edx
   11632:	48 8b 85 e8 f3 ff ff 	mov    -0xc18(%rbp),%rax
   11639:	89 10                	mov    %edx,(%rax)
   1163b:	48 8b 85 f0 f3 ff ff 	mov    -0xc10(%rbp),%rax
   11642:	8b 10                	mov    (%rax),%edx
   11644:	48 8b 85 f0 f3 ff ff 	mov    -0xc10(%rbp),%rax
   1164b:	89 10                	mov    %edx,(%rax)
   1164d:	48 8b 85 70 f2 ff ff 	mov    -0xd90(%rbp),%rax
   11654:	8b 10                	mov    (%rax),%edx
   11656:	48 8b 85 f0 f3 ff ff 	mov    -0xc10(%rbp),%rax
   1165d:	89 10                	mov    %edx,(%rax)
   1165f:	c7 85 9c f2 ff ff 00 	movl   $0x0,-0xd64(%rbp)
   11666:	00 00 00 
   11669:	e9 c8 00 00 00       	jmpq   11736 <func_78+0x131a>
   1166e:	48 8d 05 73 ec 00 00 	lea    0xec73(%rip),%rax        # 202e8 <g_77+0x108>
   11675:	48 89 85 58 f4 ff ff 	mov    %rax,-0xba8(%rbp)
   1167c:	48 8d 05 21 ee 00 00 	lea    0xee21(%rip),%rax        # 204a4 <g_988>
   11683:	48 89 85 60 f4 ff ff 	mov    %rax,-0xba0(%rbp)
   1168a:	48 8d 85 a0 f2 ff ff 	lea    -0xd60(%rbp),%rax
   11691:	48 89 85 68 f4 ff ff 	mov    %rax,-0xb98(%rbp)
   11698:	48 8d 05 f5 ed 00 00 	lea    0xedf5(%rip),%rax        # 20494 <g_984+0x4>
   1169f:	48 89 85 70 f4 ff ff 	mov    %rax,-0xb90(%rbp)
   116a6:	48 8d 05 f7 ed 00 00 	lea    0xedf7(%rip),%rax        # 204a4 <g_988>
   116ad:	48 89 85 78 f4 ff ff 	mov    %rax,-0xb88(%rbp)
   116b4:	c7 85 c8 f2 ff ff 00 	movl   $0x0,-0xd38(%rbp)
   116bb:	00 00 00 
   116be:	eb 1e                	jmp    116de <func_78+0x12c2>
   116c0:	8b 85 c8 f2 ff ff    	mov    -0xd38(%rbp),%eax
   116c6:	48 98                	cltq   
   116c8:	48 8d 15 d5 ed 00 00 	lea    0xedd5(%rip),%rdx        # 204a4 <g_988>
   116cf:	48 89 94 c5 70 f5 ff 	mov    %rdx,-0xa90(%rbp,%rax,8)
   116d6:	ff 
   116d7:	83 85 c8 f2 ff ff 01 	addl   $0x1,-0xd38(%rbp)
   116de:	83 bd c8 f2 ff ff 04 	cmpl   $0x4,-0xd38(%rbp)
   116e5:	7e d9                	jle    116c0 <func_78+0x12a4>
   116e7:	48 8b 85 30 f3 ff ff 	mov    -0xcd0(%rbp),%rax
   116ee:	48 8b 00             	mov    (%rax),%rax
   116f1:	8b 95 ac f2 ff ff    	mov    -0xd54(%rbp),%edx
   116f7:	89 10                	mov    %edx,(%rax)
   116f9:	0f b6 85 9c f6 ff ff 	movzbl -0x964(%rbp),%eax
   11700:	83 e8 01             	sub    $0x1,%eax
   11703:	88 85 9c f6 ff ff    	mov    %al,-0x964(%rbp)
   11709:	48 8b 05 d0 fa 00 00 	mov    0xfad0(%rip),%rax        # 211e0 <g_941>
   11710:	48 8b 00             	mov    (%rax),%rax
   11713:	48 8d 95 98 f2 ff ff 	lea    -0xd68(%rbp),%rdx
   1171a:	48 89 10             	mov    %rdx,(%rax)
   1171d:	48 8b 00             	mov    (%rax),%rax
   11720:	48 89 85 98 f8 ff ff 	mov    %rax,-0x768(%rbp)
   11727:	8b 85 9c f2 ff ff    	mov    -0xd64(%rbp),%eax
   1172d:	83 c0 01             	add    $0x1,%eax
   11730:	89 85 9c f2 ff ff    	mov    %eax,-0xd64(%rbp)
   11736:	8b 85 9c f2 ff ff    	mov    -0xd64(%rbp),%eax
   1173c:	83 f8 06             	cmp    $0x6,%eax
   1173f:	0f 8e 29 ff ff ff    	jle    1166e <func_78+0x1252>
   11745:	eb 39                	jmp    11780 <func_78+0x1364>
   11747:	48 8d 85 a8 f2 ff ff 	lea    -0xd58(%rbp),%rax
   1174e:	48 89 85 48 f4 ff ff 	mov    %rax,-0xbb8(%rbp)
   11755:	48 8b 85 f0 f3 ff ff 	mov    -0xc10(%rbp),%rax
   1175c:	8b 10                	mov    (%rax),%edx
   1175e:	48 8b 85 70 f2 ff ff 	mov    -0xd90(%rbp),%rax
   11765:	8b 00                	mov    (%rax),%eax
   11767:	31 c2                	xor    %eax,%edx
   11769:	48 8b 85 f0 f3 ff ff 	mov    -0xc10(%rbp),%rax
   11770:	89 10                	mov    %edx,(%rax)
   11772:	48 8b 85 30 f4 ff ff 	mov    -0xbd0(%rbp),%rax
   11779:	48 89 85 48 f4 ff ff 	mov    %rax,-0xbb8(%rbp)
   11780:	48 8b 85 f0 f3 ff ff 	mov    -0xc10(%rbp),%rax
   11787:	8b 18                	mov    (%rax),%ebx
   11789:	0f b6 85 8a f2 ff ff 	movzbl -0xd76(%rbp),%eax
   11790:	0f b6 d0             	movzbl %al,%edx
   11793:	48 8b 8d 20 f5 ff ff 	mov    -0xae0(%rbp),%rcx
   1179a:	48 8d 85 20 f3 ff ff 	lea    -0xce0(%rbp),%rax
   117a1:	48 39 c1             	cmp    %rax,%rcx
   117a4:	0f 94 c0             	sete   %al
   117a7:	0f b6 c0             	movzbl %al,%eax
   117aa:	48 39 85 38 f3 ff ff 	cmp    %rax,-0xcc8(%rbp)
   117b1:	0f 95 c0             	setne  %al
   117b4:	0f b6 c0             	movzbl %al,%eax
   117b7:	48 89 d6             	mov    %rdx,%rsi
   117ba:	48 89 c7             	mov    %rax,%rdi
   117bd:	e8 ed 58 ff ff       	callq  70af <safe_div_func_uint64_t_u_u>
   117c2:	48 8b 85 70 f2 ff ff 	mov    -0xd90(%rbp),%rax
   117c9:	8b 00                	mov    (%rax),%eax
   117cb:	41 89 c4             	mov    %eax,%r12d
   117ce:	48 83 bd 68 f2 ff ff 	cmpq   $0x3,-0xd98(%rbp)
   117d5:	03 
   117d6:	0f 96 c0             	setbe  %al
   117d9:	0f b6 c0             	movzbl %al,%eax
   117dc:	be ff ff 00 00       	mov    $0xffff,%esi
   117e1:	89 c7                	mov    %eax,%edi
   117e3:	e8 55 55 ff ff       	callq  6d3d <safe_mul_func_uint16_t_u_u>
   117e8:	0f b7 c0             	movzwl %ax,%eax
   117eb:	83 e0 07             	and    $0x7,%eax
   117ee:	44 89 e6             	mov    %r12d,%esi
   117f1:	89 c7                	mov    %eax,%edi
   117f3:	e8 d8 56 ff ff       	callq  6ed0 <safe_sub_func_uint32_t_u_u>
   117f8:	48 8b 15 e1 f9 00 00 	mov    0xf9e1(%rip),%rdx        # 211e0 <g_941>
   117ff:	48 8b 05 e2 f9 00 00 	mov    0xf9e2(%rip),%rax        # 211e8 <g_940>
   11806:	48 8b 00             	mov    (%rax),%rax
   11809:	48 8b 12             	mov    (%rdx),%rdx
   1180c:	48 89 10             	mov    %rdx,(%rax)
   1180f:	48 8b 10             	mov    (%rax),%rdx
   11812:	48 8d 85 70 f2 ff ff 	lea    -0xd90(%rbp),%rax
   11819:	48 39 c2             	cmp    %rax,%rdx
   1181c:	0f 94 c0             	sete   %al
   1181f:	0f b6 d0             	movzbl %al,%edx
   11822:	48 8b 85 78 f2 ff ff 	mov    -0xd88(%rbp),%rax
   11829:	48 39 c2             	cmp    %rax,%rdx
   1182c:	0f 9c c0             	setl   %al
   1182f:	0f b6 c0             	movzbl %al,%eax
   11832:	48 be 22 eb 16 46 43 	movabs $0xff0803434616eb22,%rsi
   11839:	03 08 ff 
   1183c:	48 89 c7             	mov    %rax,%rdi
   1183f:	e8 3c 58 ff ff       	callq  7080 <safe_mod_func_uint64_t_u_u>
   11844:	89 c2                	mov    %eax,%edx
   11846:	48 8b 85 f8 f3 ff ff 	mov    -0xc08(%rbp),%rax
   1184d:	89 10                	mov    %edx,(%rax)
   1184f:	48 8b 85 f8 f3 ff ff 	mov    -0xc08(%rbp),%rax
   11856:	8b 00                	mov    (%rax),%eax
   11858:	89 de                	mov    %ebx,%esi
   1185a:	89 c7                	mov    %eax,%edi
   1185c:	e8 6b 4e ff ff       	callq  66cc <safe_mod_func_int32_t_s_s>
   11861:	48 98                	cltq   
   11863:	48 39 85 68 f2 ff ff 	cmp    %rax,-0xd98(%rbp)
   1186a:	48 8b 95 10 f3 ff ff 	mov    -0xcf0(%rbp),%rdx
   11871:	48 8b 85 30 f3 ff ff 	mov    -0xcd0(%rbp),%rax
   11878:	48 8b 00             	mov    (%rax),%rax
   1187b:	8b 12                	mov    (%rdx),%edx
   1187d:	89 10                	mov    %edx,(%rax)
   1187f:	48 8b 85 e8 f3 ff ff 	mov    -0xc18(%rbp),%rax
   11886:	48 3b 85 30 f4 ff ff 	cmp    -0xbd0(%rbp),%rax
   1188d:	48 8b 05 dc f5 00 00 	mov    0xf5dc(%rip),%rax        # 20e70 <g_695>
   11894:	48 8d 95 8c f2 ff ff 	lea    -0xd74(%rbp),%rdx
   1189b:	48 89 10             	mov    %rdx,(%rax)
   1189e:	48 8b 00             	mov    (%rax),%rax
   118a1:	48 39 85 60 f2 ff ff 	cmp    %rax,-0xda0(%rbp)
   118a8:	0f b6 05 71 ea 00 00 	movzbl 0xea71(%rip),%eax        # 20320 <g_119>
   118af:	66 98                	cbtw   
   118b1:	0f b7 d8             	movzwl %ax,%ebx
   118b4:	48 8b 85 68 f2 ff ff 	mov    -0xd98(%rbp),%rax
   118bb:	41 89 c4             	mov    %eax,%r12d
   118be:	8b 85 9c f2 ff ff    	mov    -0xd64(%rbp),%eax
   118c4:	89 c2                	mov    %eax,%edx
   118c6:	8b 05 ec 0f 01 00    	mov    0x10fec(%rip),%eax        # 228b8 <g_165>
   118cc:	09 d0                	or     %edx,%eax
   118ce:	41 89 c5             	mov    %eax,%r13d
   118d1:	48 8b 05 a8 eb 00 00 	mov    0xeba8(%rip),%rax        # 20480 <g_958+0x10>
   118d8:	0f be d0             	movsbl %al,%edx
   118db:	48 8b 85 38 f4 ff ff 	mov    -0xbc8(%rbp),%rax
   118e2:	0f b6 30             	movzbl (%rax),%esi
   118e5:	48 8b 05 74 f5 00 00 	mov    0xf574(%rip),%rax        # 20e60 <g_579>
   118ec:	48 8b 00             	mov    (%rax),%rax
   118ef:	8b 00                	mov    (%rax),%eax
   118f1:	89 c7                	mov    %eax,%edi
   118f3:	48 8b 85 70 f2 ff ff 	mov    -0xd90(%rbp),%rax
   118fa:	8b 00                	mov    (%rax),%eax
   118fc:	48 63 c8             	movslq %eax,%rcx
   118ff:	48 8b 85 78 f2 ff ff 	mov    -0xd88(%rbp),%rax
   11906:	48 09 c1             	or     %rax,%rcx
   11909:	48 8b 85 e8 f3 ff ff 	mov    -0xc18(%rbp),%rax
   11910:	8b 00                	mov    (%rax),%eax
   11912:	48 98                	cltq   
   11914:	48 39 c1             	cmp    %rax,%rcx
   11917:	7c 0c                	jl     11925 <func_78+0x1509>
   11919:	48 8b 85 78 f2 ff ff 	mov    -0xd88(%rbp),%rax
   11920:	48 85 c0             	test   %rax,%rax
   11923:	74 07                	je     1192c <func_78+0x1510>
   11925:	b8 01 00 00 00       	mov    $0x1,%eax
   1192a:	eb 05                	jmp    11931 <func_78+0x1515>
   1192c:	b8 00 00 00 00       	mov    $0x0,%eax
   11931:	21 f8                	and    %edi,%eax
   11933:	89 f1                	mov    %esi,%ecx
   11935:	31 c1                	xor    %eax,%ecx
   11937:	48 8b 85 38 f4 ff ff 	mov    -0xbc8(%rbp),%rax
   1193e:	88 08                	mov    %cl,(%rax)
   11940:	48 8b 85 38 f4 ff ff 	mov    -0xbc8(%rbp),%rax
   11947:	0f b6 00             	movzbl (%rax),%eax
   1194a:	89 c6                	mov    %eax,%esi
   1194c:	48 8b 85 78 f2 ff ff 	mov    -0xd88(%rbp),%rax
   11953:	89 c1                	mov    %eax,%ecx
   11955:	0f b7 05 ce e9 00 00 	movzwl 0xe9ce(%rip),%eax        # 2032a <g_145>
   1195c:	0f b7 c0             	movzwl %ax,%eax
   1195f:	89 f7                	mov    %esi,%edi
   11961:	21 cf                	and    %ecx,%edi
   11963:	48 63 c8             	movslq %eax,%rcx
   11966:	48 8d 35 b4 e9 00 00 	lea    0xe9b4(%rip),%rsi        # 20321 <g_121>
   1196d:	40 88 3c 31          	mov    %dil,(%rcx,%rsi,1)
   11971:	48 98                	cltq   
   11973:	48 8d 0d a7 e9 00 00 	lea    0xe9a7(%rip),%rcx        # 20321 <g_121>
   1197a:	0f b6 04 08          	movzbl (%rax,%rcx,1),%eax
   1197e:	0f be c0             	movsbl %al,%eax
   11981:	89 d6                	mov    %edx,%esi
   11983:	89 c7                	mov    %eax,%edi
   11985:	e8 88 48 ff ff       	callq  6212 <safe_mul_func_int8_t_s_s>
   1198a:	48 0f be c0          	movsbq %al,%rax
   1198e:	48 89 85 78 f2 ff ff 	mov    %rax,-0xd88(%rbp)
   11995:	48 8b 85 78 f2 ff ff 	mov    -0xd88(%rbp),%rax
   1199c:	48 c7 c6 fd ff ff ff 	mov    $0xfffffffffffffffd,%rsi
   119a3:	48 89 c7             	mov    %rax,%rdi
   119a6:	e8 96 4e ff ff       	callq  6841 <safe_add_func_int64_t_s_s>
   119ab:	4c 21 e8             	and    %r13,%rax
   119ae:	48 85 c0             	test   %rax,%rax
   119b1:	75 0a                	jne    119bd <func_78+0x15a1>
   119b3:	48 83 bd 68 f2 ff ff 	cmpq   $0x0,-0xd98(%rbp)
   119ba:	00 
   119bb:	74 07                	je     119c4 <func_78+0x15a8>
   119bd:	b8 01 00 00 00       	mov    $0x1,%eax
   119c2:	eb 05                	jmp    119c9 <func_78+0x15ad>
   119c4:	b8 00 00 00 00       	mov    $0x0,%eax
   119c9:	0f b6 c0             	movzbl %al,%eax
   119cc:	44 89 e6             	mov    %r12d,%esi
   119cf:	89 c7                	mov    %eax,%edi
   119d1:	e8 76 52 ff ff       	callq  6c4c <safe_lshift_func_uint8_t_u_u>
   119d6:	0f b6 c0             	movzbl %al,%eax
   119d9:	66 0d 76 14          	or     $0x1476,%ax
   119dd:	0f b7 c0             	movzwl %ax,%eax
   119e0:	89 de                	mov    %ebx,%esi
   119e2:	89 c7                	mov    %eax,%edi
   119e4:	e8 36 53 ff ff       	callq  6d1f <safe_sub_func_uint16_t_u_u>
   119e9:	0f b7 c0             	movzwl %ax,%eax
   119ec:	48 8b 95 68 f2 ff ff 	mov    -0xd98(%rbp),%rdx
   119f3:	48 89 d6             	mov    %rdx,%rsi
   119f6:	48 89 c7             	mov    %rax,%rdi
   119f9:	e8 30 56 ff ff       	callq  702e <safe_add_func_uint64_t_u_u>
   119fe:	be 00 00 00 00       	mov    $0x0,%esi
   11a03:	48 89 c7             	mov    %rax,%rdi
   11a06:	e8 9d 4e ff ff       	callq  68a8 <safe_sub_func_int64_t_s_s>
   11a0b:	48 8b 95 40 f4 ff ff 	mov    -0xbc0(%rbp),%rdx
   11a12:	8b 12                	mov    (%rdx),%edx
   11a14:	21 d0                	and    %edx,%eax
   11a16:	89 c2                	mov    %eax,%edx
   11a18:	48 8b 85 40 f4 ff ff 	mov    -0xbc0(%rbp),%rax
   11a1f:	89 10                	mov    %edx,(%rax)
   11a21:	48 8b 85 70 f2 ff ff 	mov    -0xd90(%rbp),%rax
   11a28:	8b 00                	mov    (%rax),%eax
   11a2a:	85 c0                	test   %eax,%eax
   11a2c:	74 60                	je     11a8e <func_78+0x1672>
   11a2e:	48 8d 05 f3 e8 00 00 	lea    0xe8f3(%rip),%rax        # 20328 <g_138>
   11a35:	48 89 85 20 f8 ff ff 	mov    %rax,-0x7e0(%rbp)
   11a3c:	48 8d 05 e5 e8 00 00 	lea    0xe8e5(%rip),%rax        # 20328 <g_138>
   11a43:	48 89 85 28 f8 ff ff 	mov    %rax,-0x7d8(%rbp)
   11a4a:	48 8d 05 7b e7 00 00 	lea    0xe77b(%rip),%rax        # 201cc <g_43>
   11a51:	48 89 85 30 f8 ff ff 	mov    %rax,-0x7d0(%rbp)
   11a58:	48 8d 05 c9 e8 00 00 	lea    0xe8c9(%rip),%rax        # 20328 <g_138>
   11a5f:	48 89 85 38 f8 ff ff 	mov    %rax,-0x7c8(%rbp)
   11a66:	48 8d 05 bb e8 00 00 	lea    0xe8bb(%rip),%rax        # 20328 <g_138>
   11a6d:	48 89 85 40 f8 ff ff 	mov    %rax,-0x7c0(%rbp)
   11a74:	48 8d 05 51 e7 00 00 	lea    0xe751(%rip),%rax        # 201cc <g_43>
   11a7b:	48 89 85 48 f8 ff ff 	mov    %rax,-0x7b8(%rbp)
   11a82:	48 8b 85 60 f2 ff ff 	mov    -0xda0(%rbp),%rax
   11a89:	e9 22 0d 00 00       	jmpq   127b0 <func_78+0x2394>
   11a8e:	66 c7 85 90 f2 ff ff 	movw   $0x5b20,-0xd70(%rbp)
   11a95:	20 5b 
   11a97:	48 8d 85 9c f2 ff ff 	lea    -0xd64(%rbp),%rax
   11a9e:	48 89 85 80 f4 ff ff 	mov    %rax,-0xb80(%rbp)
   11aa5:	48 c7 85 88 f4 ff ff 	movq   $0x0,-0xb78(%rbp)
   11aac:	00 00 00 00 
   11ab0:	48 c7 85 90 f4 ff ff 	movq   $0x0,-0xb70(%rbp)
   11ab7:	00 00 00 00 
   11abb:	48 8d 85 b0 f2 ff ff 	lea    -0xd50(%rbp),%rax
   11ac2:	48 89 85 98 f4 ff ff 	mov    %rax,-0xb68(%rbp)
   11ac9:	48 8d 05 98 e7 00 00 	lea    0xe798(%rip),%rax        # 20268 <g_77+0x88>
   11ad0:	48 89 85 a0 f4 ff ff 	mov    %rax,-0xb60(%rbp)
   11ad7:	48 8d 85 b0 f2 ff ff 	lea    -0xd50(%rbp),%rax
   11ade:	48 89 85 a8 f4 ff ff 	mov    %rax,-0xb58(%rbp)
   11ae5:	48 8d 85 b0 f2 ff ff 	lea    -0xd50(%rbp),%rax
   11aec:	48 89 85 b0 f4 ff ff 	mov    %rax,-0xb50(%rbp)
   11af3:	48 c7 85 b8 f4 ff ff 	movq   $0x0,-0xb48(%rbp)
   11afa:	00 00 00 00 
   11afe:	48 8d 85 a8 f2 ff ff 	lea    -0xd58(%rbp),%rax
   11b05:	48 89 85 c0 f4 ff ff 	mov    %rax,-0xb40(%rbp)
   11b0c:	48 8d 85 9c f2 ff ff 	lea    -0xd64(%rbp),%rax
   11b13:	48 89 85 c8 f4 ff ff 	mov    %rax,-0xb38(%rbp)
   11b1a:	48 8d 85 08 f3 ff ff 	lea    -0xcf8(%rbp),%rax
   11b21:	48 89 85 d0 f4 ff ff 	mov    %rax,-0xb30(%rbp)
   11b28:	48 8d 05 43 e8 00 00 	lea    0xe843(%rip),%rax        # 20372 <g_653>
   11b2f:	48 89 85 d8 f4 ff ff 	mov    %rax,-0xb28(%rbp)
   11b36:	83 85 e0 f2 ff ff 01 	addl   $0x1,-0xd20(%rbp)
   11b3d:	48 8b 85 78 f2 ff ff 	mov    -0xd88(%rbp),%rax
   11b44:	48 89 85 78 f2 ff ff 	mov    %rax,-0xd88(%rbp)
   11b4b:	48 8b 85 78 f2 ff ff 	mov    -0xd88(%rbp),%rax
   11b52:	41 89 c4             	mov    %eax,%r12d
   11b55:	48 8b 85 a0 f4 ff ff 	mov    -0xb60(%rbp),%rax
   11b5c:	8b 10                	mov    (%rax),%edx
   11b5e:	48 8b 85 d8 f4 ff ff 	mov    -0xb28(%rbp),%rax
   11b65:	0f b7 00             	movzwl (%rax),%eax
   11b68:	66 0d d2 59          	or     $0x59d2,%ax
   11b6c:	89 c1                	mov    %eax,%ecx
   11b6e:	48 8b 85 d8 f4 ff ff 	mov    -0xb28(%rbp),%rax
   11b75:	66 89 08             	mov    %cx,(%rax)
   11b78:	48 8b 85 d8 f4 ff ff 	mov    -0xb28(%rbp),%rax
   11b7f:	0f b7 00             	movzwl (%rax),%eax
   11b82:	98                   	cwtl   
   11b83:	89 d6                	mov    %edx,%esi
   11b85:	89 c7                	mov    %eax,%edi
   11b87:	e8 06 49 ff ff       	callq  6492 <safe_lshift_func_int16_t_s_s>
   11b8c:	0f bf d0             	movswl %ax,%edx
   11b8f:	48 8b 8d 08 f3 ff ff 	mov    -0xcf8(%rbp),%rcx
   11b96:	48 8b 85 d0 f4 ff ff 	mov    -0xb30(%rbp),%rax
   11b9d:	48 89 08             	mov    %rcx,(%rax)
   11ba0:	48 8b 85 d0 f4 ff ff 	mov    -0xb30(%rbp),%rax
   11ba7:	48 8b 00             	mov    (%rax),%rax
   11baa:	48 85 c0             	test   %rax,%rax
   11bad:	0f 95 c0             	setne  %al
   11bb0:	0f b6 c0             	movzbl %al,%eax
   11bb3:	89 d6                	mov    %edx,%esi
   11bb5:	89 c7                	mov    %eax,%edi
   11bb7:	e8 17 48 ff ff       	callq  63d3 <safe_sub_func_int16_t_s_s>
   11bbc:	0f b6 d8             	movzbl %al,%ebx
   11bbf:	b8 de e5 ff ff       	mov    $0xffffe5de,%eax
   11bc4:	48 0f bf d0          	movswq %ax,%rdx
   11bc8:	48 8b 85 a0 f4 ff ff 	mov    -0xb60(%rbp),%rax
   11bcf:	8b 00                	mov    (%rax),%eax
   11bd1:	48 98                	cltq   
   11bd3:	48 89 d6             	mov    %rdx,%rsi
   11bd6:	48 89 c7             	mov    %rax,%rdi
   11bd9:	e8 d1 54 ff ff       	callq  70af <safe_div_func_uint64_t_u_u>
   11bde:	0f b6 c0             	movzbl %al,%eax
   11be1:	89 de                	mov    %ebx,%esi
   11be3:	89 c7                	mov    %eax,%edi
   11be5:	e8 a9 4f ff ff       	callq  6b93 <safe_mul_func_uint8_t_u_u>
   11bea:	be 57 b5 ff ff       	mov    $0xffffb557,%esi
   11bef:	bf 00 00 00 00       	mov    $0x0,%edi
   11bf4:	e8 da 47 ff ff       	callq  63d3 <safe_sub_func_int16_t_s_s>
   11bf9:	48 0f bf c0          	movswq %ax,%rax
   11bfd:	48 89 c7             	mov    %rax,%rdi
   11c00:	e8 11 4c ff ff       	callq  6816 <safe_unary_minus_func_int64_t_s>
   11c05:	0f b6 c0             	movzbl %al,%eax
   11c08:	be 02 00 00 00       	mov    $0x2,%esi
   11c0d:	89 c7                	mov    %eax,%edi
   11c0f:	e8 38 50 ff ff       	callq  6c4c <safe_lshift_func_uint8_t_u_u>
   11c14:	0f be c0             	movsbl %al,%eax
   11c17:	be 04 00 00 00       	mov    $0x4,%esi
   11c1c:	89 c7                	mov    %eax,%edi
   11c1e:	e8 12 47 ff ff       	callq  6335 <safe_rshift_func_int8_t_s_s>
   11c23:	0f be d0             	movsbl %al,%edx
   11c26:	48 8b 85 f8 f3 ff ff 	mov    -0xc08(%rbp),%rax
   11c2d:	89 10                	mov    %edx,(%rax)
   11c2f:	48 8b 85 f8 f3 ff ff 	mov    -0xc08(%rbp),%rax
   11c36:	8b 00                	mov    (%rax),%eax
   11c38:	44 89 e2             	mov    %r12d,%edx
   11c3b:	21 c2                	and    %eax,%edx
   11c3d:	48 8b 85 b0 f4 ff ff 	mov    -0xb50(%rbp),%rax
   11c44:	89 10                	mov    %edx,(%rax)
   11c46:	48 8b 85 60 f2 ff ff 	mov    -0xda0(%rbp),%rax
   11c4d:	e9 5e 0b 00 00       	jmpq   127b0 <func_78+0x2394>
   11c52:	0f b7 85 8e f2 ff ff 	movzwl -0xd72(%rbp),%eax
   11c59:	83 c0 01             	add    $0x1,%eax
   11c5c:	66 89 85 8e f2 ff ff 	mov    %ax,-0xd72(%rbp)
   11c63:	eb 0e                	jmp    11c73 <func_78+0x1857>
   11c65:	48 8d 05 cc e6 00 00 	lea    0xe6cc(%rip),%rax        # 20338 <g_159>
   11c6c:	48 89 85 28 f3 ff ff 	mov    %rax,-0xcd8(%rbp)
   11c73:	c7 85 98 f2 ff ff 00 	movl   $0x0,-0xd68(%rbp)
   11c7a:	00 00 00 
   11c7d:	e9 de 0a 00 00       	jmpq   12760 <func_78+0x2344>
   11c82:	48 8d 05 0f e8 00 00 	lea    0xe80f(%rip),%rax        # 20498 <g_984+0x8>
   11c89:	48 89 85 f8 f4 ff ff 	mov    %rax,-0xb08(%rbp)
   11c90:	66 c7 85 92 f2 ff ff 	movw   $0x1,-0xd6e(%rbp)
   11c97:	01 00 
   11c99:	c6 85 b0 f2 ff ff 4b 	movb   $0x4b,-0xd50(%rbp)
   11ca0:	0f b6 85 b1 f2 ff ff 	movzbl -0xd4f(%rbp),%eax
   11ca7:	83 e0 c0             	and    $0xffffffc0,%eax
   11caa:	83 c8 03             	or     $0x3,%eax
   11cad:	88 85 b1 f2 ff ff    	mov    %al,-0xd4f(%rbp)
   11cb3:	66 c7 85 94 f2 ff ff 	movw   $0x0,-0xd6c(%rbp)
   11cba:	00 00 
   11cbc:	48 c7 85 18 f3 ff ff 	movq   $0x0,-0xce8(%rbp)
   11cc3:	00 00 00 00 
   11cc7:	66 c7 05 a0 e6 00 00 	movw   $0x14,0xe6a0(%rip)        # 20370 <g_597>
   11cce:	14 00 
   11cd0:	e9 c3 00 00 00       	jmpq   11d98 <func_78+0x197c>
   11cd5:	66 c7 85 96 f2 ff ff 	movw   $0xfffe,-0xd6a(%rbp)
   11cdc:	fe ff 
   11cde:	8b 85 98 f2 ff ff    	mov    -0xd68(%rbp),%eax
   11ce4:	85 c0                	test   %eax,%eax
   11ce6:	74 19                	je     11d01 <func_78+0x18e5>
   11ce8:	c7 85 b8 f2 ff ff 01 	movl   $0x1,-0xd48(%rbp)
   11cef:	00 00 00 
   11cf2:	66 83 bd 96 f2 ff ff 	cmpw   $0x0,-0xd6a(%rbp)
   11cf9:	00 
   11cfa:	74 59                	je     11d55 <func_78+0x1939>
   11cfc:	e9 a8 00 00 00       	jmpq   11da9 <func_78+0x198d>
   11d01:	c6 85 20 f3 ff ff 2a 	movb   $0x2a,-0xce0(%rbp)
   11d08:	0f b6 85 21 f3 ff ff 	movzbl -0xcdf(%rbp),%eax
   11d0f:	83 e0 c0             	and    $0xffffffc0,%eax
   11d12:	88 85 21 f3 ff ff    	mov    %al,-0xcdf(%rbp)
   11d18:	66 c7 85 8e f2 ff ff 	movw   $0x0,-0xd72(%rbp)
   11d1f:	00 00 
   11d21:	66 83 bd 8e f2 ff ff 	cmpw   $0x13,-0xd72(%rbp)
   11d28:	13 
   11d29:	76 2a                	jbe    11d55 <func_78+0x1939>
   11d2b:	48 8b 85 28 f3 ff ff 	mov    -0xcd8(%rbp),%rax
   11d32:	8b 15 00 e6 00 00    	mov    0xe600(%rip),%edx        # 20338 <g_159>
   11d38:	89 10                	mov    %edx,(%rax)
   11d3a:	48 8b 85 28 f3 ff ff 	mov    -0xcd8(%rbp),%rax
   11d41:	8b 00                	mov    (%rax),%eax
   11d43:	89 85 20 f3 ff ff    	mov    %eax,-0xce0(%rbp)
   11d49:	48 8b 85 60 f2 ff ff 	mov    -0xda0(%rbp),%rax
   11d50:	e9 5b 0a 00 00       	jmpq   127b0 <func_78+0x2394>
   11d55:	48 8b 05 8c f4 00 00 	mov    0xf48c(%rip),%rax        # 211e8 <g_940>
   11d5c:	48 8b 00             	mov    (%rax),%rax
   11d5f:	48 8b 00             	mov    (%rax),%rax
   11d62:	48 8b 95 f8 f4 ff ff 	mov    -0xb08(%rbp),%rdx
   11d69:	48 89 10             	mov    %rdx,(%rax)
   11d6c:	48 8b 95 70 f2 ff ff 	mov    -0xd90(%rbp),%rdx
   11d73:	48 8b 05 6e f4 00 00 	mov    0xf46e(%rip),%rax        # 211e8 <g_940>
   11d7a:	48 8b 00             	mov    (%rax),%rax
   11d7d:	48 8b 00             	mov    (%rax),%rax
   11d80:	48 8b 00             	mov    (%rax),%rax
   11d83:	8b 12                	mov    (%rdx),%edx
   11d85:	89 10                	mov    %edx,(%rax)
   11d87:	0f b7 05 e2 e5 00 00 	movzwl 0xe5e2(%rip),%eax        # 20370 <g_597>
   11d8e:	83 e8 01             	sub    $0x1,%eax
   11d91:	66 89 05 d8 e5 00 00 	mov    %ax,0xe5d8(%rip)        # 20370 <g_597>
   11d98:	0f b7 05 d1 e5 00 00 	movzwl 0xe5d1(%rip),%eax        # 20370 <g_597>
   11d9f:	66 83 f8 03          	cmp    $0x3,%ax
   11da3:	0f 84 2c ff ff ff    	je     11cd5 <func_78+0x18b9>
   11da9:	48 8b 85 70 f2 ff ff 	mov    -0xd90(%rbp),%rax
   11db0:	8b 10                	mov    (%rax),%edx
   11db2:	48 8b 85 f8 f4 ff ff 	mov    -0xb08(%rbp),%rax
   11db9:	89 10                	mov    %edx,(%rax)
   11dbb:	0f b6 85 8a f2 ff ff 	movzbl -0xd76(%rbp),%eax
   11dc2:	84 c0                	test   %al,%al
   11dc4:	74 45                	je     11e0b <func_78+0x19ef>
   11dc6:	c7 85 20 f8 ff ff 00 	movl   $0x0,-0x7e0(%rbp)
   11dcd:	00 00 00 
   11dd0:	c7 85 24 f8 ff ff 00 	movl   $0x0,-0x7dc(%rbp)
   11dd7:	00 00 00 
   11dda:	c7 85 28 f8 ff ff 00 	movl   $0x0,-0x7d8(%rbp)
   11de1:	00 00 00 
   11de4:	c7 85 2c f8 ff ff 00 	movl   $0x0,-0x7d4(%rbp)
   11deb:	00 00 00 
   11dee:	c7 85 30 f8 ff ff 00 	movl   $0x0,-0x7d0(%rbp)
   11df5:	00 00 00 
   11df8:	8b 85 20 f8 ff ff    	mov    -0x7e0(%rbp),%eax
   11dfe:	85 c0                	test   %eax,%eax
   11e00:	0f 84 4b 09 00 00    	je     12751 <func_78+0x2335>
   11e06:	e9 67 09 00 00       	jmpq   12772 <func_78+0x2356>
   11e0b:	c7 85 e8 f2 ff ff 7e 	movl   $0x8e2e97e,-0xd18(%rbp)
   11e12:	e9 e2 08 
   11e15:	c7 85 b4 f2 ff ff 01 	movl   $0x1,-0xd4c(%rbp)
   11e1c:	00 00 00 
   11e1f:	0f b7 85 8e f2 ff ff 	movzwl -0xd72(%rbp),%eax
   11e26:	66 89 85 92 f2 ff ff 	mov    %ax,-0xd6e(%rbp)
   11e2d:	0f b7 85 92 f2 ff ff 	movzwl -0xd6e(%rbp),%eax
   11e34:	0f bf d0             	movswl %ax,%edx
   11e37:	8b 85 b8 f2 ff ff    	mov    -0xd48(%rbp),%eax
   11e3d:	98                   	cwtl   
   11e3e:	89 d6                	mov    %edx,%esi
   11e40:	89 c7                	mov    %eax,%edi
   11e42:	e8 cf 45 ff ff       	callq  6416 <safe_mod_func_int16_t_s_s>
   11e47:	0f bf d0             	movswl %ax,%edx
   11e4a:	8b 85 9c f2 ff ff    	mov    -0xd64(%rbp),%eax
   11e50:	39 c2                	cmp    %eax,%edx
   11e52:	0f 85 fe 04 00 00    	jne    12356 <func_78+0x1f3a>
   11e58:	c7 85 f8 f2 ff ff 4a 	movl   $0x721c9c4a,-0xd08(%rbp)
   11e5f:	9c 1c 72 
   11e62:	48 8d 85 18 f3 ff ff 	lea    -0xce8(%rbp),%rax
   11e69:	48 89 85 08 f5 ff ff 	mov    %rax,-0xaf8(%rbp)
   11e70:	48 8d 05 d1 e4 00 00 	lea    0xe4d1(%rip),%rax        # 20348 <g_355>
   11e77:	48 89 85 10 f5 ff ff 	mov    %rax,-0xaf0(%rbp)
   11e7e:	c7 85 fc f2 ff ff 99 	movl   $0x12936d99,-0xd04(%rbp)
   11e85:	6d 93 12 
   11e88:	8b 85 a4 f2 ff ff    	mov    -0xd5c(%rbp),%eax
   11e8e:	85 c0                	test   %eax,%eax
   11e90:	74 0f                	je     11ea1 <func_78+0x1a85>
   11e92:	48 8b 05 d7 ef 00 00 	mov    0xefd7(%rip),%rax        # 20e70 <g_695>
   11e99:	48 8b 00             	mov    (%rax),%rax
   11e9c:	e9 0f 09 00 00       	jmpq   127b0 <func_78+0x2394>
   11ea1:	48 8d 05 20 e3 00 00 	lea    0xe320(%rip),%rax        # 201c8 <g_14>
   11ea8:	48 89 85 80 f6 ff ff 	mov    %rax,-0x980(%rbp)
   11eaf:	48 c7 85 88 f6 ff ff 	movq   $0x0,-0x978(%rbp)
   11eb6:	00 00 00 00 
   11eba:	48 8d 05 e3 e5 00 00 	lea    0xe5e3(%rip),%rax        # 204a4 <g_988>
   11ec1:	48 89 85 90 f6 ff ff 	mov    %rax,-0x970(%rbp)
   11ec8:	48 8d 05 d5 e5 00 00 	lea    0xe5d5(%rip),%rax        # 204a4 <g_988>
   11ecf:	48 89 85 98 f6 ff ff 	mov    %rax,-0x968(%rbp)
   11ed6:	48 c7 85 a0 f6 ff ff 	movq   $0x0,-0x960(%rbp)
   11edd:	00 00 00 00 
   11ee1:	48 8d 85 a4 f2 ff ff 	lea    -0xd5c(%rbp),%rax
   11ee8:	48 89 85 a8 f6 ff ff 	mov    %rax,-0x958(%rbp)
   11eef:	48 8d 85 a0 f2 ff ff 	lea    -0xd60(%rbp),%rax
   11ef6:	48 89 85 b0 f6 ff ff 	mov    %rax,-0x950(%rbp)
   11efd:	48 8d 05 a0 e5 00 00 	lea    0xe5a0(%rip),%rax        # 204a4 <g_988>
   11f04:	48 89 85 b8 f6 ff ff 	mov    %rax,-0x948(%rbp)
   11f0b:	48 8d 05 8a e5 00 00 	lea    0xe58a(%rip),%rax        # 2049c <g_984+0xc>
   11f12:	48 89 85 c0 f6 ff ff 	mov    %rax,-0x940(%rbp)
   11f19:	48 8d 05 7c e5 00 00 	lea    0xe57c(%rip),%rax        # 2049c <g_984+0xc>
   11f20:	48 89 85 c8 f6 ff ff 	mov    %rax,-0x938(%rbp)
   11f27:	48 8d 85 a0 f2 ff ff 	lea    -0xd60(%rbp),%rax
   11f2e:	48 89 85 d0 f6 ff ff 	mov    %rax,-0x930(%rbp)
   11f35:	48 8d 85 a4 f2 ff ff 	lea    -0xd5c(%rbp),%rax
   11f3c:	48 89 85 d8 f6 ff ff 	mov    %rax,-0x928(%rbp)
   11f43:	48 8d 85 a0 f2 ff ff 	lea    -0xd60(%rbp),%rax
   11f4a:	48 89 85 e0 f6 ff ff 	mov    %rax,-0x920(%rbp)
   11f51:	48 8d 05 4c e5 00 00 	lea    0xe54c(%rip),%rax        # 204a4 <g_988>
   11f58:	48 89 85 e8 f6 ff ff 	mov    %rax,-0x918(%rbp)
   11f5f:	48 8d 05 36 e5 00 00 	lea    0xe536(%rip),%rax        # 2049c <g_984+0xc>
   11f66:	48 89 85 f0 f6 ff ff 	mov    %rax,-0x910(%rbp)
   11f6d:	48 8d 85 20 f8 ff ff 	lea    -0x7e0(%rbp),%rax
   11f74:	48 8d 15 25 9a 00 00 	lea    0x9a25(%rip),%rdx        # 1b9a0 <g_2872+0x1920>
   11f7b:	b9 f5 00 00 00       	mov    $0xf5,%ecx
   11f80:	48 89 c7             	mov    %rax,%rdi
   11f83:	48 89 d6             	mov    %rdx,%rsi
   11f86:	f3 48 a5             	rep movsq %ds:(%rsi),%es:(%rdi)
   11f89:	48 8d 05 1c e5 00 00 	lea    0xe51c(%rip),%rax        # 204ac <g_1139>
   11f90:	48 89 85 18 f5 ff ff 	mov    %rax,-0xae8(%rbp)
   11f97:	c7 85 cc f2 ff ff 00 	movl   $0x0,-0xd34(%rbp)
   11f9e:	00 00 00 
   11fa1:	eb 4d                	jmp    11ff0 <func_78+0x1bd4>
   11fa3:	c7 85 d0 f2 ff ff 00 	movl   $0x0,-0xd30(%rbp)
   11faa:	00 00 00 
   11fad:	eb 31                	jmp    11fe0 <func_78+0x1bc4>
   11faf:	8b 85 d0 f2 ff ff    	mov    -0xd30(%rbp),%eax
   11fb5:	48 63 c8             	movslq %eax,%rcx
   11fb8:	8b 85 cc f2 ff ff    	mov    -0xd34(%rbp),%eax
   11fbe:	48 63 d0             	movslq %eax,%rdx
   11fc1:	48 89 d0             	mov    %rdx,%rax
   11fc4:	48 01 c0             	add    %rax,%rax
   11fc7:	48 01 d0             	add    %rdx,%rax
   11fca:	48 01 c8             	add    %rcx,%rax
   11fcd:	48 c7 84 c5 40 f6 ff 	movq   $0x0,-0x9c0(%rbp,%rax,8)
   11fd4:	ff 00 00 00 00 
   11fd9:	83 85 d0 f2 ff ff 01 	addl   $0x1,-0xd30(%rbp)
   11fe0:	83 bd d0 f2 ff ff 02 	cmpl   $0x2,-0xd30(%rbp)
   11fe7:	7e c6                	jle    11faf <func_78+0x1b93>
   11fe9:	83 85 cc f2 ff ff 01 	addl   $0x1,-0xd34(%rbp)
   11ff0:	83 bd cc f2 ff ff 00 	cmpl   $0x0,-0xd34(%rbp)
   11ff7:	7e aa                	jle    11fa3 <func_78+0x1b87>
   11ff9:	48 8b 85 e0 f8 ff ff 	mov    -0x720(%rbp),%rax
   12000:	48 83 c0 01          	add    $0x1,%rax
   12004:	48 89 85 e0 f8 ff ff 	mov    %rax,-0x720(%rbp)
   1200b:	48 8b 85 28 f3 ff ff 	mov    -0xcd8(%rbp),%rax
   12012:	8b 15 94 e4 00 00    	mov    0xe494(%rip),%edx        # 204ac <g_1139>
   12018:	89 10                	mov    %edx,(%rax)
   1201a:	48 8b 05 bf f1 00 00 	mov    0xf1bf(%rip),%rax        # 211e0 <g_941>
   12021:	48 8b 00             	mov    (%rax),%rax
   12024:	48 8d 95 b4 f2 ff ff 	lea    -0xd4c(%rbp),%rdx
   1202b:	48 89 10             	mov    %rdx,(%rax)
   1202e:	48 8b 05 fb e2 00 00 	mov    0xe2fb(%rip),%rax        # 20330 <g_154>
   12035:	48 85 c0             	test   %rax,%rax
   12038:	0f 85 35 01 00 00    	jne    12173 <func_78+0x1d57>
   1203e:	48 8b 05 bb f1 00 00 	mov    0xf1bb(%rip),%rax        # 21200 <g_1141>
   12045:	48 85 c0             	test   %rax,%rax
   12048:	44 0f bf a5 94 f2 ff 	movswl -0xd6c(%rbp),%r12d
   1204f:	ff 
   12050:	48 8b 85 38 f3 ff ff 	mov    -0xcc8(%rbp),%rax
   12057:	0f b7 d8             	movzwl %ax,%ebx
   1205a:	48 8b 05 f7 ed 00 00 	mov    0xedf7(%rip),%rax        # 20e58 <g_580>
   12061:	8b 00                	mov    (%rax),%eax
   12063:	41 89 c5             	mov    %eax,%r13d
   12066:	48 8b 85 60 f2 ff ff 	mov    -0xda0(%rbp),%rax
   1206d:	0f b7 00             	movzwl (%rax),%eax
   12070:	8d 50 01             	lea    0x1(%rax),%edx
   12073:	48 8b 85 60 f2 ff ff 	mov    -0xda0(%rbp),%rax
   1207a:	66 89 10             	mov    %dx,(%rax)
   1207d:	48 8b 85 60 f2 ff ff 	mov    -0xda0(%rbp),%rax
   12084:	0f b7 00             	movzwl (%rax),%eax
   12087:	66 85 c0             	test   %ax,%ax
   1208a:	0f 94 c0             	sete   %al
   1208d:	0f b6 d0             	movzbl %al,%edx
   12090:	48 8d 05 69 f1 00 00 	lea    0xf169(%rip),%rax        # 21200 <g_1141>
   12097:	48 39 85 40 f3 ff ff 	cmp    %rax,-0xcc0(%rbp)
   1209e:	0f 95 c0             	setne  %al
   120a1:	0f b6 c8             	movzbl %al,%ecx
   120a4:	48 8b 85 f8 f4 ff ff 	mov    -0xb08(%rbp),%rax
   120ab:	8b 00                	mov    (%rax),%eax
   120ad:	39 c1                	cmp    %eax,%ecx
   120af:	0f 94 c0             	sete   %al
   120b2:	0f b6 c0             	movzbl %al,%eax
   120b5:	48 33 85 68 f2 ff ff 	xor    -0xd98(%rbp),%rax
   120bc:	48 3d 49 e2 00 00    	cmp    $0xe249,%rax
   120c2:	0f 94 c0             	sete   %al
   120c5:	0f b6 c0             	movzbl %al,%eax
   120c8:	48 23 85 68 f2 ff ff 	and    -0xd98(%rbp),%rax
   120cf:	48 39 c2             	cmp    %rax,%rdx
   120d2:	0f 95 c0             	setne  %al
   120d5:	0f b6 d0             	movzbl %al,%edx
   120d8:	0f b6 05 59 e2 00 00 	movzbl 0xe259(%rip),%eax        # 20338 <g_159>
   120df:	0f b6 c0             	movzbl %al,%eax
   120e2:	39 c2                	cmp    %eax,%edx
   120e4:	0f 94 c0             	sete   %al
   120e7:	89 c2                	mov    %eax,%edx
   120e9:	48 8b 85 18 f5 ff ff 	mov    -0xae8(%rbp),%rax
   120f0:	88 10                	mov    %dl,(%rax)
   120f2:	48 8b 85 18 f5 ff ff 	mov    -0xae8(%rbp),%rax
   120f9:	0f b6 00             	movzbl (%rax),%eax
   120fc:	0f b6 c0             	movzbl %al,%eax
   120ff:	be 03 00 00 00       	mov    $0x3,%esi
   12104:	89 c7                	mov    %eax,%edi
   12106:	e8 82 4b ff ff       	callq  6c8d <safe_rshift_func_uint8_t_u_s>
   1210b:	0f b6 c0             	movzbl %al,%eax
   1210e:	44 09 e8             	or     %r13d,%eax
   12111:	66 89 05 90 e2 00 00 	mov    %ax,0xe290(%rip)        # 203a8 <g_883+0x8>
   12118:	0f b7 05 89 e2 00 00 	movzwl 0xe289(%rip),%eax        # 203a8 <g_883+0x8>
   1211f:	98                   	cwtl   
   12120:	be 01 00 00 00       	mov    $0x1,%esi
   12125:	89 c7                	mov    %eax,%edi
   12127:	e8 66 43 ff ff       	callq  6492 <safe_lshift_func_int16_t_s_s>
   1212c:	66 83 f8 06          	cmp    $0x6,%ax
   12130:	76 09                	jbe    1213b <func_78+0x1d1f>
   12132:	83 bd b8 f2 ff ff 00 	cmpl   $0x0,-0xd48(%rbp)
   12139:	74 07                	je     12142 <func_78+0x1d26>
   1213b:	b8 01 00 00 00       	mov    $0x1,%eax
   12140:	eb 05                	jmp    12147 <func_78+0x1d2b>
   12142:	b8 00 00 00 00       	mov    $0x0,%eax
   12147:	48 98                	cltq   
   12149:	48 39 85 68 f2 ff ff 	cmp    %rax,-0xd98(%rbp)
   12150:	0f 97 c0             	seta   %al
   12153:	0f b6 c0             	movzbl %al,%eax
   12156:	89 de                	mov    %ebx,%esi
   12158:	89 c7                	mov    %eax,%edi
   1215a:	e8 fd 4b ff ff       	callq  6d5c <safe_mod_func_uint16_t_u_u>
   1215f:	66 83 f8 0e          	cmp    $0xe,%ax
   12163:	0f 97 c0             	seta   %al
   12166:	0f b6 c0             	movzbl %al,%eax
   12169:	41 39 c4             	cmp    %eax,%r12d
   1216c:	b9 00 00 00 00       	mov    $0x0,%ecx
   12171:	eb 05                	jmp    12178 <func_78+0x1d5c>
   12173:	b9 01 00 00 00       	mov    $0x1,%ecx
   12178:	48 8b 05 71 f0 00 00 	mov    0xf071(%rip),%rax        # 211f0 <g_939>
   1217f:	48 8b 00             	mov    (%rax),%rax
   12182:	48 8b 00             	mov    (%rax),%rax
   12185:	48 8b 00             	mov    (%rax),%rax
   12188:	48 8b 00             	mov    (%rax),%rax
   1218b:	8b 10                	mov    (%rax),%edx
   1218d:	48 8b 05 5c f0 00 00 	mov    0xf05c(%rip),%rax        # 211f0 <g_939>
   12194:	48 8b 00             	mov    (%rax),%rax
   12197:	48 8b 00             	mov    (%rax),%rax
   1219a:	48 8b 00             	mov    (%rax),%rax
   1219d:	48 8b 00             	mov    (%rax),%rax
   121a0:	31 ca                	xor    %ecx,%edx
   121a2:	89 10                	mov    %edx,(%rax)
   121a4:	0f b7 05 7f e1 00 00 	movzwl 0xe17f(%rip),%eax        # 2032a <g_145>
   121ab:	0f b7 c0             	movzwl %ax,%eax
   121ae:	48 98                	cltq   
   121b0:	48 8d 15 6a e1 00 00 	lea    0xe16a(%rip),%rdx        # 20321 <g_121>
   121b7:	0f b6 04 10          	movzbl (%rax,%rdx,1),%eax
   121bb:	48 0f be d8          	movsbq %al,%rbx
   121bf:	48 8b 95 18 f3 ff ff 	mov    -0xce8(%rbp),%rdx
   121c6:	48 8b 85 08 f5 ff ff 	mov    -0xaf8(%rbp),%rax
   121cd:	48 89 10             	mov    %rdx,(%rax)
   121d0:	48 8b 85 08 f5 ff ff 	mov    -0xaf8(%rbp),%rax
   121d7:	48 8b 10             	mov    (%rax),%rdx
   121da:	48 8b 05 27 f0 00 00 	mov    0xf027(%rip),%rax        # 21208 <g_1165>
   121e1:	48 39 c2             	cmp    %rax,%rdx
   121e4:	0f 94 c0             	sete   %al
   121e7:	0f b6 c0             	movzbl %al,%eax
   121ea:	89 85 f8 f2 ff ff    	mov    %eax,-0xd08(%rbp)
   121f0:	0f b7 05 d5 df 00 00 	movzwl 0xdfd5(%rip),%eax        # 201cc <g_43>
   121f7:	0f b7 c0             	movzwl %ax,%eax
   121fa:	39 85 f8 f2 ff ff    	cmp    %eax,-0xd08(%rbp)
   12200:	0f 8c ca 00 00 00    	jl     122d0 <func_78+0x1eb4>
   12206:	8b 85 a0 f2 ff ff    	mov    -0xd60(%rbp),%eax
   1220c:	44 0f bf e0          	movswl %ax,%r12d
   12210:	8b 85 b8 f2 ff ff    	mov    -0xd48(%rbp),%eax
   12216:	48 be eb 7b 2e 13 67 	movabs $0xbdd99267132e7beb,%rsi
   1221d:	92 d9 bd 
   12220:	48 89 c7             	mov    %rax,%rdi
   12223:	e8 19 46 ff ff       	callq  6841 <safe_add_func_int64_t_s_s>
   12228:	48 89 c2             	mov    %rax,%rdx
   1222b:	48 8b 85 40 f3 ff ff 	mov    -0xcc0(%rbp),%rax
   12232:	48 8b 00             	mov    (%rax),%rax
   12235:	48 8b 00             	mov    (%rax),%rax
   12238:	48 8b 00             	mov    (%rax),%rax
   1223b:	48 89 10             	mov    %rdx,(%rax)
   1223e:	48 8b 00             	mov    (%rax),%rax
   12241:	48 83 f8 f7          	cmp    $0xfffffffffffffff7,%rax
   12245:	0f 95 c0             	setne  %al
   12248:	0f b6 c0             	movzbl %al,%eax
   1224b:	44 89 e6             	mov    %r12d,%esi
   1224e:	89 c7                	mov    %eax,%edi
   12250:	e8 a0 41 ff ff       	callq  63f5 <safe_mul_func_int16_t_s_s>
   12255:	66 85 c0             	test   %ax,%ax
   12258:	75 10                	jne    1226a <func_78+0x1e4e>
   1225a:	48 8b 05 ff eb 00 00 	mov    0xebff(%rip),%rax        # 20e60 <g_579>
   12261:	48 8b 00             	mov    (%rax),%rax
   12264:	8b 00                	mov    (%rax),%eax
   12266:	85 c0                	test   %eax,%eax
   12268:	74 07                	je     12271 <func_78+0x1e55>
   1226a:	ba 01 00 00 00       	mov    $0x1,%edx
   1226f:	eb 05                	jmp    12276 <func_78+0x1e5a>
   12271:	ba 00 00 00 00       	mov    $0x0,%edx
   12276:	8b 05 74 df 00 00    	mov    0xdf74(%rip),%eax        # 201f0 <g_77+0x10>
   1227c:	39 c2                	cmp    %eax,%edx
   1227e:	7e 07                	jle    12287 <func_78+0x1e6b>
   12280:	b8 01 00 00 00       	mov    $0x1,%eax
   12285:	eb 05                	jmp    1228c <func_78+0x1e70>
   12287:	b8 00 00 00 00       	mov    $0x0,%eax
   1228c:	48 3b 85 38 f3 ff ff 	cmp    -0xcc8(%rbp),%rax
   12293:	0f 92 c0             	setb   %al
   12296:	0f b6 d0             	movzbl %al,%edx
   12299:	48 8b 85 78 f2 ff ff 	mov    -0xd88(%rbp),%rax
   122a0:	48 39 c2             	cmp    %rax,%rdx
   122a3:	0f 9d c0             	setge  %al
   122a6:	0f b6 d0             	movzbl %al,%edx
   122a9:	48 8b 85 70 f2 ff ff 	mov    -0xd90(%rbp),%rax
   122b0:	8b 00                	mov    (%rax),%eax
   122b2:	89 d1                	mov    %edx,%ecx
   122b4:	31 c1                	xor    %eax,%ecx
   122b6:	48 8b 85 10 f5 ff ff 	mov    -0xaf0(%rbp),%rax
   122bd:	48 8b 10             	mov    (%rax),%rdx
   122c0:	48 63 c1             	movslq %ecx,%rax
   122c3:	48 09 c2             	or     %rax,%rdx
   122c6:	48 8b 85 10 f5 ff ff 	mov    -0xaf0(%rbp),%rax
   122cd:	48 89 10             	mov    %rdx,(%rax)
   122d0:	b8 01 00 00 00       	mov    $0x1,%eax
   122d5:	48 98                	cltq   
   122d7:	48 89 de             	mov    %rbx,%rsi
   122da:	48 89 c7             	mov    %rax,%rdi
   122dd:	e8 4c 4d ff ff       	callq  702e <safe_add_func_uint64_t_u_u>
   122e2:	48 89 c2             	mov    %rax,%rdx
   122e5:	48 8b 05 84 eb 00 00 	mov    0xeb84(%rip),%rax        # 20e70 <g_695>
   122ec:	48 8b 00             	mov    (%rax),%rax
   122ef:	66 89 10             	mov    %dx,(%rax)
   122f2:	0f b7 00             	movzwl (%rax),%eax
   122f5:	0f b6 c0             	movzbl %al,%eax
   122f8:	25 d8 00 00 00       	and    $0xd8,%eax
   122fd:	be 63 00 00 00       	mov    $0x63,%esi
   12302:	89 c7                	mov    %eax,%edi
   12304:	e8 d2 48 ff ff       	callq  6bdb <safe_div_func_uint8_t_u_u>
   12309:	0f b6 c0             	movzbl %al,%eax
   1230c:	89 c6                	mov    %eax,%esi
   1230e:	bf 06 00 00 00       	mov    $0x6,%edi
   12313:	e8 76 4a ff ff       	callq  6d8e <safe_div_func_uint16_t_u_u>
   12318:	48 b8 29 c2 ea ad 3a 	movabs $0x3231613aadeac229,%rax
   1231f:	61 31 32 
   12322:	48 0b 85 68 f2 ff ff 	or     -0xd98(%rbp),%rax
   12329:	48 89 c2             	mov    %rax,%rdx
   1232c:	8b 85 fc f2 ff ff    	mov    -0xd04(%rbp),%eax
   12332:	48 98                	cltq   
   12334:	48 39 c2             	cmp    %rax,%rdx
   12337:	0f 93 c0             	setae  %al
   1233a:	0f b6 c8             	movzbl %al,%ecx
   1233d:	48 8b 05 04 eb 00 00 	mov    0xeb04(%rip),%rax        # 20e48 <g_324>
   12344:	8b 10                	mov    (%rax),%edx
   12346:	48 8b 05 fb ea 00 00 	mov    0xeafb(%rip),%rax        # 20e48 <g_324>
   1234d:	09 ca                	or     %ecx,%edx
   1234f:	89 10                	mov    %edx,(%rax)
   12351:	e9 fb 03 00 00       	jmpq   12751 <func_78+0x2335>
   12356:	c7 85 ec f2 ff ff 38 	movl   $0xea15f938,-0xd14(%rbp)
   1235d:	f9 15 ea 
   12360:	48 8b 85 f8 f4 ff ff 	mov    -0xb08(%rbp),%rax
   12367:	8b 10                	mov    (%rax),%edx
   12369:	48 8b 05 08 e1 00 00 	mov    0xe108(%rip),%rax        # 20478 <g_958+0x8>
   12370:	48 39 85 68 f2 ff ff 	cmp    %rax,-0xd98(%rbp)
   12377:	0f 92 c0             	setb   %al
   1237a:	0f b6 c0             	movzbl %al,%eax
   1237d:	31 c2                	xor    %eax,%edx
   1237f:	48 8b 85 f8 f4 ff ff 	mov    -0xb08(%rbp),%rax
   12386:	89 10                	mov    %edx,(%rax)
   12388:	48 8b 85 f8 f4 ff ff 	mov    -0xb08(%rbp),%rax
   1238f:	8b 00                	mov    (%rax),%eax
   12391:	85 c0                	test   %eax,%eax
   12393:	74 39                	je     123ce <func_78+0x1fb2>
   12395:	c6 85 20 f3 ff ff 72 	movb   $0x72,-0xce0(%rbp)
   1239c:	0f b6 85 21 f3 ff ff 	movzbl -0xcdf(%rbp),%eax
   123a3:	83 e0 c0             	and    $0xffffffc0,%eax
   123a6:	83 c8 03             	or     $0x3,%eax
   123a9:	88 85 21 f3 ff ff    	mov    %al,-0xcdf(%rbp)
   123af:	48 8b 85 30 f3 ff ff 	mov    -0xcd0(%rbp),%rax
   123b6:	48 8b 00             	mov    (%rax),%rax
   123b9:	8b 95 20 f3 ff ff    	mov    -0xce0(%rbp),%edx
   123bf:	89 10                	mov    %edx,(%rax)
   123c1:	8b 00                	mov    (%rax),%eax
   123c3:	89 05 e3 e0 00 00    	mov    %eax,0xe0e3(%rip)        # 204ac <g_1139>
   123c9:	e9 ba 00 00 00       	jmpq   12488 <func_78+0x206c>
   123ce:	c6 85 8b f2 ff ff da 	movb   $0xda,-0xd75(%rbp)
   123d5:	48 8b 85 70 f2 ff ff 	mov    -0xd90(%rbp),%rax
   123dc:	8b 00                	mov    (%rax),%eax
   123de:	85 c0                	test   %eax,%eax
   123e0:	0f 85 8b 03 00 00    	jne    12771 <func_78+0x2355>
   123e6:	48 8b 05 73 ea 00 00 	mov    0xea73(%rip),%rax        # 20e60 <g_579>
   123ed:	48 8b 00             	mov    (%rax),%rax
   123f0:	8b 00                	mov    (%rax),%eax
   123f2:	41 89 c4             	mov    %eax,%r12d
   123f5:	c7 85 a4 f2 ff ff 34 	movl   $0x5f34,-0xd5c(%rbp)
   123fc:	5f 00 00 
   123ff:	8b 9d a4 f2 ff ff    	mov    -0xd5c(%rbp),%ebx
   12405:	48 8b 85 68 f2 ff ff 	mov    -0xd98(%rbp),%rax
   1240c:	0f bf d0             	movswl %ax,%edx
   1240f:	8b 85 ec f2 ff ff    	mov    -0xd14(%rbp),%eax
   12415:	98                   	cwtl   
   12416:	89 d6                	mov    %edx,%esi
   12418:	89 c7                	mov    %eax,%edi
   1241a:	e8 d6 3f ff ff       	callq  63f5 <safe_mul_func_int16_t_s_s>
   1241f:	0f b7 05 e4 df 00 00 	movzwl 0xdfe4(%rip),%eax        # 2040a <g_883+0x6a>
   12426:	89 da                	mov    %ebx,%edx
   12428:	09 d0                	or     %edx,%eax
   1242a:	66 89 05 d9 df 00 00 	mov    %ax,0xdfd9(%rip)        # 2040a <g_883+0x6a>
   12431:	be 07 00 00 00       	mov    $0x7,%esi
   12436:	bf f8 ff ff ff       	mov    $0xfffffff8,%edi
   1243b:	e8 b5 3f ff ff       	callq  63f5 <safe_mul_func_int16_t_s_s>
   12440:	0f b6 c0             	movzbl %al,%eax
   12443:	be f2 00 00 00       	mov    $0xf2,%esi
   12448:	89 c7                	mov    %eax,%edi
   1244a:	e8 44 47 ff ff       	callq  6b93 <safe_mul_func_uint8_t_u_u>
   1244f:	0f b6 c0             	movzbl %al,%eax
   12452:	44 89 e6             	mov    %r12d,%esi
   12455:	89 c7                	mov    %eax,%edi
   12457:	e8 a3 42 ff ff       	callq  66ff <safe_div_func_int32_t_s_s>
   1245c:	89 c7                	mov    %eax,%edi
   1245e:	e8 43 4a ff ff       	callq  6ea6 <safe_unary_minus_func_uint32_t_u>
   12463:	89 c2                	mov    %eax,%edx
   12465:	48 8b 85 f8 f4 ff ff 	mov    -0xb08(%rbp),%rax
   1246c:	89 10                	mov    %edx,(%rax)
   1246e:	48 8b 05 7b ed 00 00 	mov    0xed7b(%rip),%rax        # 211f0 <g_939>
   12475:	48 8b 00             	mov    (%rax),%rax
   12478:	48 8b 00             	mov    (%rax),%rax
   1247b:	48 8b 00             	mov    (%rax),%rax
   1247e:	48 8b 95 70 f2 ff ff 	mov    -0xd90(%rbp),%rdx
   12485:	48 89 10             	mov    %rdx,(%rax)
   12488:	66 c7 85 8c f2 ff ff 	movw   $0x0,-0xd74(%rbp)
   1248f:	00 00 
   12491:	e9 aa 02 00 00       	jmpq   12740 <func_78+0x2324>
   12496:	c7 85 f0 f2 ff ff d5 	movl   $0xc03239d5,-0xd10(%rbp)
   1249d:	39 32 c0 
   124a0:	48 8d 05 4f df 00 00 	lea    0xdf4f(%rip),%rax        # 203f6 <g_883+0x56>
   124a7:	48 89 85 00 f5 ff ff 	mov    %rax,-0xb00(%rbp)
   124ae:	c7 85 f4 f2 ff ff 95 	movl   $0x49410695,-0xd0c(%rbp)
   124b5:	06 41 49 
   124b8:	48 8d 05 f5 df 00 00 	lea    0xdff5(%rip),%rax        # 204b4 <g_1226>
   124bf:	48 89 85 20 f3 ff ff 	mov    %rax,-0xce0(%rbp)
   124c6:	c7 85 d4 f2 ff ff 00 	movl   $0x0,-0xd2c(%rbp)
   124cd:	00 00 00 
   124d0:	eb 1e                	jmp    124f0 <func_78+0x20d4>
   124d2:	8b 85 d4 f2 ff ff    	mov    -0xd2c(%rbp),%eax
   124d8:	48 98                	cltq   
   124da:	48 8d 95 20 f3 ff ff 	lea    -0xce0(%rbp),%rdx
   124e1:	48 89 94 c5 20 f8 ff 	mov    %rdx,-0x7e0(%rbp,%rax,8)
   124e8:	ff 
   124e9:	83 85 d4 f2 ff ff 01 	addl   $0x1,-0xd2c(%rbp)
   124f0:	83 bd d4 f2 ff ff 00 	cmpl   $0x0,-0xd2c(%rbp)
   124f7:	7e d9                	jle    124d2 <func_78+0x20b6>
   124f9:	83 ad f0 f2 ff ff 01 	subl   $0x1,-0xd10(%rbp)
   12500:	48 8b 85 70 f2 ff ff 	mov    -0xd90(%rbp),%rax
   12507:	44 8b 38             	mov    (%rax),%r15d
   1250a:	48 8b 05 57 e9 00 00 	mov    0xe957(%rip),%rax        # 20e68 <g_696>
   12511:	0f b7 00             	movzwl (%rax),%eax
   12514:	66 89 85 5e f2 ff ff 	mov    %ax,-0xda2(%rbp)
   1251b:	48 8b 85 68 f2 ff ff 	mov    -0xd98(%rbp),%rax
   12522:	0f b6 d8             	movzbl %al,%ebx
   12525:	44 8b a5 ec f2 ff ff 	mov    -0xd14(%rbp),%r12d
   1252c:	48 8b 05 35 e9 00 00 	mov    0xe935(%rip),%rax        # 20e68 <g_696>
   12533:	0f b7 00             	movzwl (%rax),%eax
   12536:	44 0f b7 e8          	movzwl %ax,%r13d
   1253a:	8b 85 ec f2 ff ff    	mov    -0xd14(%rbp),%eax
   12540:	44 0f be f0          	movsbl %al,%r14d
   12544:	8b 85 ec f2 ff ff    	mov    -0xd14(%rbp),%eax
   1254a:	98                   	cwtl   
   1254b:	be 09 00 00 00       	mov    $0x9,%esi
   12550:	89 c7                	mov    %eax,%edi
   12552:	e8 8a 3f ff ff       	callq  64e1 <safe_lshift_func_int16_t_s_u>
   12557:	48 0f bf c0          	movswq %ax,%rax
   1255b:	48 89 85 50 f2 ff ff 	mov    %rax,-0xdb0(%rbp)
   12562:	48 8b 15 17 df 00 00 	mov    0xdf17(%rip),%rdx        # 20480 <g_958+0x10>
   12569:	48 8b 85 68 f2 ff ff 	mov    -0xd98(%rbp),%rax
   12570:	48 39 c2             	cmp    %rax,%rdx
   12573:	0f 94 c0             	sete   %al
   12576:	0f b6 d0             	movzbl %al,%edx
   12579:	8b 85 b4 f2 ff ff    	mov    -0xd4c(%rbp),%eax
   1257f:	31 d0                	xor    %edx,%eax
   12581:	89 85 b4 f2 ff ff    	mov    %eax,-0xd4c(%rbp)
   12587:	0f b7 05 9a dd 00 00 	movzwl 0xdd9a(%rip),%eax        # 20328 <g_138>
   1258e:	66 3d 91 88          	cmp    $0x8891,%ax
   12592:	0f 97 c0             	seta   %al
   12595:	0f b6 c0             	movzbl %al,%eax
   12598:	48 89 c6             	mov    %rax,%rsi
   1259b:	48 c7 c7 ff ff ff ff 	mov    $0xffffffffffffffff,%rdi
   125a2:	e8 9a 42 ff ff       	callq  6841 <safe_add_func_int64_t_s_s>
   125a7:	48 39 85 50 f2 ff ff 	cmp    %rax,-0xdb0(%rbp)
   125ae:	0f 9c c0             	setl   %al
   125b1:	0f b6 c0             	movzbl %al,%eax
   125b4:	89 c6                	mov    %eax,%esi
   125b6:	bf 06 00 00 00       	mov    $0x6,%edi
   125bb:	e8 88 48 ff ff       	callq  6e48 <safe_rshift_func_uint16_t_u_s>
   125c0:	66 85 c0             	test   %ax,%ax
   125c3:	74 11                	je     125d6 <func_78+0x21ba>
   125c5:	8b 85 a4 f2 ff ff    	mov    -0xd5c(%rbp),%eax
   125cb:	85 c0                	test   %eax,%eax
   125cd:	74 07                	je     125d6 <func_78+0x21ba>
   125cf:	b8 01 00 00 00       	mov    $0x1,%eax
   125d4:	eb 05                	jmp    125db <func_78+0x21bf>
   125d6:	b8 00 00 00 00       	mov    $0x0,%eax
   125db:	0f b6 c0             	movzbl %al,%eax
   125de:	be 05 00 00 00       	mov    $0x5,%esi
   125e3:	89 c7                	mov    %eax,%edi
   125e5:	e8 1b 46 ff ff       	callq  6c05 <safe_lshift_func_uint8_t_u_s>
   125ea:	0f be c0             	movsbl %al,%eax
   125ed:	44 89 f6             	mov    %r14d,%esi
   125f0:	89 c7                	mov    %eax,%edi
   125f2:	e8 73 3c ff ff       	callq  626a <safe_div_func_int8_t_s_s>
   125f7:	48 8b 85 00 f5 ff ff 	mov    -0xb00(%rbp),%rax
   125fe:	66 c7 00 00 00       	movw   $0x0,(%rax)
   12603:	48 8b 85 00 f5 ff ff 	mov    -0xb00(%rbp),%rax
   1260a:	0f b7 00             	movzwl (%rax),%eax
   1260d:	f7 d0                	not    %eax
   1260f:	0f b7 c0             	movzwl %ax,%eax
   12612:	44 89 ee             	mov    %r13d,%esi
   12615:	89 c7                	mov    %eax,%edi
   12617:	e8 03 47 ff ff       	callq  6d1f <safe_sub_func_uint16_t_u_u>
   1261c:	4c 89 e6             	mov    %r12,%rsi
   1261f:	48 bf 48 20 47 92 9f 	movabs $0xed64ad9f92472048,%rdi
   12626:	ad 64 ed 
   12629:	e8 00 4a ff ff       	callq  702e <safe_add_func_uint64_t_u_u>
   1262e:	8b 95 f4 f2 ff ff    	mov    -0xd0c(%rbp),%edx
   12634:	48 39 d0             	cmp    %rdx,%rax
   12637:	0f 93 c2             	setae  %dl
   1263a:	48 8b 85 40 f3 ff ff 	mov    -0xcc0(%rbp),%rax
   12641:	48 8b 00             	mov    (%rax),%rax
   12644:	48 8b 00             	mov    (%rax),%rax
   12647:	48 8b 00             	mov    (%rax),%rax
   1264a:	0f b6 d2             	movzbl %dl,%edx
   1264d:	48 89 10             	mov    %rdx,(%rax)
   12650:	48 8b 10             	mov    (%rax),%rdx
   12653:	8b 85 dc f2 ff ff    	mov    -0xd24(%rbp),%eax
   12659:	48 98                	cltq   
   1265b:	48 31 d0             	xor    %rdx,%rax
   1265e:	48 3d 68 15 00 00    	cmp    $0x1568,%rax
   12664:	0f 96 c0             	setbe  %al
   12667:	0f b6 d0             	movzbl %al,%edx
   1266a:	8b 85 a0 f2 ff ff    	mov    -0xd60(%rbp),%eax
   12670:	21 d0                	and    %edx,%eax
   12672:	89 85 a0 f2 ff ff    	mov    %eax,-0xd60(%rbp)
   12678:	8b 85 a0 f2 ff ff    	mov    -0xd60(%rbp),%eax
   1267e:	0f b7 c0             	movzwl %ax,%eax
   12681:	be 0f 00 00 00       	mov    $0xf,%esi
   12686:	89 c7                	mov    %eax,%edi
   12688:	e8 bb 47 ff ff       	callq  6e48 <safe_rshift_func_uint16_t_u_s>
   1268d:	0f b6 c0             	movzbl %al,%eax
   12690:	89 de                	mov    %ebx,%esi
   12692:	89 c7                	mov    %eax,%edi
   12694:	e8 c1 44 ff ff       	callq  6b5a <safe_add_func_uint8_t_u_u>
   12699:	0f b6 c0             	movzbl %al,%eax
   1269c:	66 39 85 5e f2 ff ff 	cmp    %ax,-0xda2(%rbp)
   126a3:	76 07                	jbe    126ac <func_78+0x2290>
   126a5:	b8 01 00 00 00       	mov    $0x1,%eax
   126aa:	eb 05                	jmp    126b1 <func_78+0x2295>
   126ac:	b8 00 00 00 00       	mov    $0x0,%eax
   126b1:	0f b6 c0             	movzbl %al,%eax
   126b4:	89 c6                	mov    %eax,%esi
   126b6:	bf ff 00 00 00       	mov    $0xff,%edi
   126bb:	e8 9a 44 ff ff       	callq  6b5a <safe_add_func_uint8_t_u_u>
   126c0:	0f b6 d0             	movzbl %al,%edx
   126c3:	8b 85 9c f2 ff ff    	mov    -0xd64(%rbp),%eax
   126c9:	21 d0                	and    %edx,%eax
   126cb:	89 85 9c f2 ff ff    	mov    %eax,-0xd64(%rbp)
   126d1:	8b 85 9c f2 ff ff    	mov    -0xd64(%rbp),%eax
   126d7:	39 85 ec f2 ff ff    	cmp    %eax,-0xd14(%rbp)
   126dd:	0f 95 c0             	setne  %al
   126e0:	0f b6 c0             	movzbl %al,%eax
   126e3:	be 00 00 00 00       	mov    $0x0,%esi
   126e8:	89 c7                	mov    %eax,%edi
   126ea:	e8 c7 3e ff ff       	callq  65b6 <safe_add_func_int32_t_s_s>
   126ef:	44 89 fa             	mov    %r15d,%edx
   126f2:	31 c2                	xor    %eax,%edx
   126f4:	0f b6 85 c6 f5 ff ff 	movzbl -0xa3a(%rbp),%eax
   126fb:	0f be c0             	movsbl %al,%eax
   126fe:	39 c2                	cmp    %eax,%edx
   12700:	0f 94 c0             	sete   %al
   12703:	0f b6 c0             	movzbl %al,%eax
   12706:	be 70 12 00 00       	mov    $0x1270,%esi
   1270b:	89 c7                	mov    %eax,%edi
   1270d:	e8 2b 46 ff ff       	callq  6d3d <safe_mul_func_uint16_t_u_u>
   12712:	66 85 c0             	test   %ax,%ax
   12715:	48 8b 85 20 f3 ff ff 	mov    -0xce0(%rbp),%rax
   1271c:	48 89 85 d0 f3 ff ff 	mov    %rax,-0xc30(%rbp)
   12723:	0f b7 85 8c f2 ff ff 	movzwl -0xd74(%rbp),%eax
   1272a:	0f b7 c0             	movzwl %ax,%eax
   1272d:	be 04 00 00 00       	mov    $0x4,%esi
   12732:	89 c7                	mov    %eax,%edi
   12734:	e8 7f 47 ff ff       	callq  6eb8 <safe_add_func_uint32_t_u_u>
   12739:	66 89 85 8c f2 ff ff 	mov    %ax,-0xd74(%rbp)
   12740:	0f b7 85 8c f2 ff ff 	movzwl -0xd74(%rbp),%eax
   12747:	66 83 f8 36          	cmp    $0x36,%ax
   1274b:	0f 86 45 fd ff ff    	jbe    12496 <func_78+0x207a>
   12751:	8b 85 98 f2 ff ff    	mov    -0xd68(%rbp),%eax
   12757:	83 c0 01             	add    $0x1,%eax
   1275a:	89 85 98 f2 ff ff    	mov    %eax,-0xd68(%rbp)
   12760:	8b 85 98 f2 ff ff    	mov    -0xd68(%rbp),%eax
   12766:	83 f8 1b             	cmp    $0x1b,%eax
   12769:	0f 85 13 f5 ff ff    	jne    11c82 <func_78+0x1866>
   1276f:	eb 01                	jmp    12772 <func_78+0x2356>
   12771:	90                   	nop
   12772:	0f b7 05 b1 db 00 00 	movzwl 0xdbb1(%rip),%eax        # 2032a <g_145>
   12779:	83 c0 01             	add    $0x1,%eax
   1277c:	66 89 05 a7 db 00 00 	mov    %ax,0xdba7(%rip)        # 2032a <g_145>
   12783:	0f b7 05 a0 db 00 00 	movzwl 0xdba0(%rip),%eax        # 2032a <g_145>
   1278a:	66 83 f8 06          	cmp    $0x6,%ax
   1278e:	0f 86 80 e1 ff ff    	jbe    10914 <func_78+0x4f8>
   12794:	48 8b 05 1d dd 00 00 	mov    0xdd1d(%rip),%rax        # 204b8 <g_1246>
   1279b:	48 83 e8 01          	sub    $0x1,%rax
   1279f:	48 89 05 12 dd 00 00 	mov    %rax,0xdd12(%rip)        # 204b8 <g_1246>
   127a6:	48 8b 05 c3 e6 00 00 	mov    0xe6c3(%rip),%rax        # 20e70 <g_695>
   127ad:	48 8b 00             	mov    (%rax),%rax
   127b0:	48 8b 5d c8          	mov    -0x38(%rbp),%rbx
   127b4:	64 48 33 1c 25 28 00 	xor    %fs:0x28,%rbx
   127bb:	00 00 
   127bd:	74 05                	je     127c4 <func_78+0x23a8>
   127bf:	e8 ac 38 ff ff       	callq  6070 <__stack_chk_fail@plt>
   127c4:	48 81 c4 88 0d 00 00 	add    $0xd88,%rsp
   127cb:	5b                   	pop    %rbx
   127cc:	41 5c                	pop    %r12
   127ce:	41 5d                	pop    %r13
   127d0:	41 5e                	pop    %r14
   127d2:	41 5f                	pop    %r15
   127d4:	5d                   	pop    %rbp
   127d5:	c3                   	retq   

00000000000127d6 <func_84>:
   127d6:	f3 0f 1e fa          	endbr64 
   127da:	55                   	push   %rbp
   127db:	48 89 e5             	mov    %rsp,%rbp
   127de:	41 57                	push   %r15
   127e0:	41 56                	push   %r14
   127e2:	41 55                	push   %r13
   127e4:	41 54                	push   %r12
   127e6:	53                   	push   %rbx
   127e7:	48 81 ec b8 0d 00 00 	sub    $0xdb8,%rsp
   127ee:	89 f8                	mov    %edi,%eax
   127f0:	48 89 b5 30 f2 ff ff 	mov    %rsi,-0xdd0(%rbp)
   127f7:	89 95 38 f2 ff ff    	mov    %edx,-0xdc8(%rbp)
   127fd:	48 89 8d 28 f2 ff ff 	mov    %rcx,-0xdd8(%rbp)
   12804:	66 89 85 3c f2 ff ff 	mov    %ax,-0xdc4(%rbp)
   1280b:	64 48 8b 04 25 28 00 	mov    %fs:0x28,%rax
   12812:	00 00 
   12814:	48 89 45 c8          	mov    %rax,-0x38(%rbp)
   12818:	31 c0                	xor    %eax,%eax
   1281a:	48 8d 05 87 da 00 00 	lea    0xda87(%rip),%rax        # 202a8 <g_77+0xc8>
   12821:	48 89 85 70 f3 ff ff 	mov    %rax,-0xc90(%rbp)
   12828:	48 8d 05 51 da 00 00 	lea    0xda51(%rip),%rax        # 20280 <g_77+0xa0>
   1282f:	48 89 85 78 f3 ff ff 	mov    %rax,-0xc88(%rbp)
   12836:	48 c7 85 80 f3 ff ff 	movq   $0x0,-0xc80(%rbp)
   1283d:	00 00 00 00 
   12841:	48 8d 05 60 da 00 00 	lea    0xda60(%rip),%rax        # 202a8 <g_77+0xc8>
   12848:	48 89 85 88 f3 ff ff 	mov    %rax,-0xc78(%rbp)
   1284f:	48 8d 05 52 da 00 00 	lea    0xda52(%rip),%rax        # 202a8 <g_77+0xc8>
   12856:	48 89 85 90 f3 ff ff 	mov    %rax,-0xc70(%rbp)
   1285d:	48 8d 05 44 da 00 00 	lea    0xda44(%rip),%rax        # 202a8 <g_77+0xc8>
   12864:	48 89 85 98 f3 ff ff 	mov    %rax,-0xc68(%rbp)
   1286b:	c7 85 8c f2 ff ff 90 	movl   $0xa8e06690,-0xd74(%rbp)
   12872:	66 e0 a8 
   12875:	48 b8 8d 1d 50 28 93 	movabs $0xe1f69f9328501d8d,%rax
   1287c:	9f f6 e1 
   1287f:	48 89 85 a0 f3 ff ff 	mov    %rax,-0xc60(%rbp)
   12886:	48 c7 85 08 f3 ff ff 	movq   $0x0,-0xcf8(%rbp)
   1288d:	00 00 00 00 
   12891:	48 8d 05 88 da 00 00 	lea    0xda88(%rip),%rax        # 20320 <g_119>
   12898:	48 89 85 a8 f3 ff ff 	mov    %rax,-0xc58(%rbp)
   1289f:	48 8d 05 7c da 00 00 	lea    0xda7c(%rip),%rax        # 20322 <g_121+0x1>
   128a6:	48 89 85 b0 f3 ff ff 	mov    %rax,-0xc50(%rbp)
   128ad:	c6 85 46 f2 ff ff 09 	movb   $0x9,-0xdba(%rbp)
   128b4:	48 8d 85 90 f7 ff ff 	lea    -0x870(%rbp),%rax
   128bb:	48 8d 15 9e 98 00 00 	lea    0x989e(%rip),%rdx        # 1c160 <g_2872+0x20e0>
   128c2:	b9 46 00 00 00       	mov    $0x46,%ecx
   128c7:	48 89 c7             	mov    %rax,%rdi
   128ca:	48 89 d6             	mov    %rdx,%rsi
   128cd:	f3 48 a5             	rep movsq %ds:(%rsi),%es:(%rdi)
   128d0:	c7 85 5c f2 ff ff ff 	movl   $0xffffffff,-0xda4(%rbp)
   128d7:	ff ff ff 
   128da:	c6 85 45 f2 ff ff ff 	movb   $0xff,-0xdbb(%rbp)
   128e1:	48 8d 05 c8 d9 00 00 	lea    0xd9c8(%rip),%rax        # 202b0 <g_77+0xd0>
   128e8:	48 89 85 10 f3 ff ff 	mov    %rax,-0xcf0(%rbp)
   128ef:	66 c7 85 4c f2 ff ff 	movw   $0x186a,-0xdb4(%rbp)
   128f6:	6a 18 
   128f8:	c6 85 50 f5 ff ff b2 	movb   $0xb2,-0xab0(%rbp)
   128ff:	0f b6 85 51 f5 ff ff 	movzbl -0xaaf(%rbp),%eax
   12906:	83 e0 c0             	and    $0xffffffc0,%eax
   12909:	83 c8 06             	or     $0x6,%eax
   1290c:	88 85 51 f5 ff ff    	mov    %al,-0xaaf(%rbp)
   12912:	c6 85 54 f5 ff ff b2 	movb   $0xb2,-0xaac(%rbp)
   12919:	0f b6 85 55 f5 ff ff 	movzbl -0xaab(%rbp),%eax
   12920:	83 e0 c0             	and    $0xffffffc0,%eax
   12923:	83 c8 06             	or     $0x6,%eax
   12926:	88 85 55 f5 ff ff    	mov    %al,-0xaab(%rbp)
   1292c:	c6 85 58 f5 ff ff b2 	movb   $0xb2,-0xaa8(%rbp)
   12933:	0f b6 85 59 f5 ff ff 	movzbl -0xaa7(%rbp),%eax
   1293a:	83 e0 c0             	and    $0xffffffc0,%eax
   1293d:	83 c8 06             	or     $0x6,%eax
   12940:	88 85 59 f5 ff ff    	mov    %al,-0xaa7(%rbp)
   12946:	c6 85 5c f5 ff ff b2 	movb   $0xb2,-0xaa4(%rbp)
   1294d:	0f b6 85 5d f5 ff ff 	movzbl -0xaa3(%rbp),%eax
   12954:	83 e0 c0             	and    $0xffffffc0,%eax
   12957:	83 c8 06             	or     $0x6,%eax
   1295a:	88 85 5d f5 ff ff    	mov    %al,-0xaa3(%rbp)
   12960:	c6 85 60 f5 ff ff b2 	movb   $0xb2,-0xaa0(%rbp)
   12967:	0f b6 85 61 f5 ff ff 	movzbl -0xa9f(%rbp),%eax
   1296e:	83 e0 c0             	and    $0xffffffc0,%eax
   12971:	83 c8 06             	or     $0x6,%eax
   12974:	88 85 61 f5 ff ff    	mov    %al,-0xa9f(%rbp)
   1297a:	c6 85 64 f5 ff ff b2 	movb   $0xb2,-0xa9c(%rbp)
   12981:	0f b6 85 65 f5 ff ff 	movzbl -0xa9b(%rbp),%eax
   12988:	83 e0 c0             	and    $0xffffffc0,%eax
   1298b:	83 c8 06             	or     $0x6,%eax
   1298e:	88 85 65 f5 ff ff    	mov    %al,-0xa9b(%rbp)
   12994:	c6 85 68 f5 ff ff b2 	movb   $0xb2,-0xa98(%rbp)
   1299b:	0f b6 85 69 f5 ff ff 	movzbl -0xa97(%rbp),%eax
   129a2:	83 e0 c0             	and    $0xffffffc0,%eax
   129a5:	83 c8 06             	or     $0x6,%eax
   129a8:	88 85 69 f5 ff ff    	mov    %al,-0xa97(%rbp)
   129ae:	48 8d 05 b3 e4 00 00 	lea    0xe4b3(%rip),%rax        # 20e68 <g_696>
   129b5:	48 89 85 b8 f3 ff ff 	mov    %rax,-0xc48(%rbp)
   129bc:	48 8d 85 08 f3 ff ff 	lea    -0xcf8(%rbp),%rax
   129c3:	48 89 85 18 f3 ff ff 	mov    %rax,-0xce8(%rbp)
   129ca:	48 8d 85 50 f5 ff ff 	lea    -0xab0(%rbp),%rax
   129d1:	48 83 c0 04          	add    $0x4,%rax
   129d5:	48 89 85 20 f3 ff ff 	mov    %rax,-0xce0(%rbp)
   129dc:	48 8d 05 75 e4 00 00 	lea    0xe475(%rip),%rax        # 20e58 <g_580>
   129e3:	48 89 85 c0 f3 ff ff 	mov    %rax,-0xc40(%rbp)
   129ea:	48 8d 05 81 d9 00 00 	lea    0xd981(%rip),%rax        # 20372 <g_653>
   129f1:	48 89 85 28 f3 ff ff 	mov    %rax,-0xcd8(%rbp)
   129f8:	48 c7 85 c8 f3 ff ff 	movq   $0x1,-0xc38(%rbp)
   129ff:	01 00 00 00 
   12a03:	48 8d 85 28 f3 ff ff 	lea    -0xcd8(%rbp),%rax
   12a0a:	48 89 85 50 f3 ff ff 	mov    %rax,-0xcb0(%rbp)
   12a11:	48 8d 85 18 f3 ff ff 	lea    -0xce8(%rbp),%rax
   12a18:	48 89 85 10 f7 ff ff 	mov    %rax,-0x8f0(%rbp)
   12a1f:	48 8d 85 18 f3 ff ff 	lea    -0xce8(%rbp),%rax
   12a26:	48 89 85 18 f7 ff ff 	mov    %rax,-0x8e8(%rbp)
   12a2d:	48 8d 85 18 f3 ff ff 	lea    -0xce8(%rbp),%rax
   12a34:	48 89 85 20 f7 ff ff 	mov    %rax,-0x8e0(%rbp)
   12a3b:	48 8d 85 18 f3 ff ff 	lea    -0xce8(%rbp),%rax
   12a42:	48 89 85 28 f7 ff ff 	mov    %rax,-0x8d8(%rbp)
   12a49:	48 8d 85 18 f3 ff ff 	lea    -0xce8(%rbp),%rax
   12a50:	48 89 85 30 f7 ff ff 	mov    %rax,-0x8d0(%rbp)
   12a57:	48 8d 85 18 f3 ff ff 	lea    -0xce8(%rbp),%rax
   12a5e:	48 89 85 38 f7 ff ff 	mov    %rax,-0x8c8(%rbp)
   12a65:	48 8d 85 18 f3 ff ff 	lea    -0xce8(%rbp),%rax
   12a6c:	48 89 85 40 f7 ff ff 	mov    %rax,-0x8c0(%rbp)
   12a73:	48 8d 85 18 f3 ff ff 	lea    -0xce8(%rbp),%rax
   12a7a:	48 89 85 48 f7 ff ff 	mov    %rax,-0x8b8(%rbp)
   12a81:	48 8d 85 18 f3 ff ff 	lea    -0xce8(%rbp),%rax
   12a88:	48 89 85 50 f7 ff ff 	mov    %rax,-0x8b0(%rbp)
   12a8f:	48 8d 85 18 f3 ff ff 	lea    -0xce8(%rbp),%rax
   12a96:	48 89 85 58 f7 ff ff 	mov    %rax,-0x8a8(%rbp)
   12a9d:	48 8d 85 18 f3 ff ff 	lea    -0xce8(%rbp),%rax
   12aa4:	48 89 85 60 f7 ff ff 	mov    %rax,-0x8a0(%rbp)
   12aab:	48 8d 85 18 f3 ff ff 	lea    -0xce8(%rbp),%rax
   12ab2:	48 89 85 68 f7 ff ff 	mov    %rax,-0x898(%rbp)
   12ab9:	48 8d 85 18 f3 ff ff 	lea    -0xce8(%rbp),%rax
   12ac0:	48 89 85 70 f7 ff ff 	mov    %rax,-0x890(%rbp)
   12ac7:	48 8d 85 18 f3 ff ff 	lea    -0xce8(%rbp),%rax
   12ace:	48 89 85 78 f7 ff ff 	mov    %rax,-0x888(%rbp)
   12ad5:	48 8d 85 18 f3 ff ff 	lea    -0xce8(%rbp),%rax
   12adc:	48 89 85 80 f7 ff ff 	mov    %rax,-0x880(%rbp)
   12ae3:	c7 85 60 f2 ff ff 00 	movl   $0x0,-0xda0(%rbp)
   12aea:	00 00 00 
   12aed:	48 8d 05 5c e3 00 00 	lea    0xe35c(%rip),%rax        # 20e50 <g_323>
   12af4:	48 89 85 30 f3 ff ff 	mov    %rax,-0xcd0(%rbp)
   12afb:	c6 85 47 f2 ff ff f1 	movb   $0xf1,-0xdb9(%rbp)
   12b02:	48 8d 05 df e6 00 00 	lea    0xe6df(%rip),%rax        # 211e8 <g_940>
   12b09:	48 89 85 d0 f3 ff ff 	mov    %rax,-0xc30(%rbp)
   12b10:	66 c7 85 50 f2 ff ff 	movw   $0xcc83,-0xdb0(%rbp)
   12b17:	83 cc 
   12b19:	48 8d 05 44 d6 00 00 	lea    0xd644(%rip),%rax        # 20164 <g_7>
   12b20:	48 89 85 40 f6 ff ff 	mov    %rax,-0x9c0(%rbp)
   12b27:	48 8d 05 36 d6 00 00 	lea    0xd636(%rip),%rax        # 20164 <g_7>
   12b2e:	48 89 85 48 f6 ff ff 	mov    %rax,-0x9b8(%rbp)
   12b35:	48 8d 05 8c d6 00 00 	lea    0xd68c(%rip),%rax        # 201c8 <g_14>
   12b3c:	48 89 85 50 f6 ff ff 	mov    %rax,-0x9b0(%rbp)
   12b43:	48 8d 05 1a d6 00 00 	lea    0xd61a(%rip),%rax        # 20164 <g_7>
   12b4a:	48 89 85 58 f6 ff ff 	mov    %rax,-0x9a8(%rbp)
   12b51:	48 8d 05 0c d6 00 00 	lea    0xd60c(%rip),%rax        # 20164 <g_7>
   12b58:	48 89 85 60 f6 ff ff 	mov    %rax,-0x9a0(%rbp)
   12b5f:	48 8d 05 62 d6 00 00 	lea    0xd662(%rip),%rax        # 201c8 <g_14>
   12b66:	48 89 85 68 f6 ff ff 	mov    %rax,-0x998(%rbp)
   12b6d:	c6 85 48 f2 ff ff 01 	movb   $0x1,-0xdb8(%rbp)
   12b74:	c7 85 6c f2 ff ff 00 	movl   $0x0,-0xd94(%rbp)
   12b7b:	00 00 00 
   12b7e:	eb 71                	jmp    12bf1 <func_84+0x41b>
   12b80:	c7 85 70 f2 ff ff 00 	movl   $0x0,-0xd90(%rbp)
   12b87:	00 00 00 
   12b8a:	eb 55                	jmp    12be1 <func_84+0x40b>
   12b8c:	c7 85 74 f2 ff ff 00 	movl   $0x0,-0xd8c(%rbp)
   12b93:	00 00 00 
   12b96:	eb 39                	jmp    12bd1 <func_84+0x3fb>
   12b98:	8b 85 74 f2 ff ff    	mov    -0xd8c(%rbp),%eax
   12b9e:	48 63 d0             	movslq %eax,%rdx
   12ba1:	8b 85 70 f2 ff ff    	mov    -0xd90(%rbp),%eax
   12ba7:	48 98                	cltq   
   12ba9:	8b 8d 6c f2 ff ff    	mov    -0xd94(%rbp),%ecx
   12baf:	48 63 c9             	movslq %ecx,%rcx
   12bb2:	48 01 c9             	add    %rcx,%rcx
   12bb5:	48 01 ca             	add    %rcx,%rdx
   12bb8:	48 01 d0             	add    %rdx,%rax
   12bbb:	48 8d 15 92 d6 00 00 	lea    0xd692(%rip),%rdx        # 20254 <g_77+0x74>
   12bc2:	48 89 94 c5 00 f5 ff 	mov    %rdx,-0xb00(%rbp,%rax,8)
   12bc9:	ff 
   12bca:	83 85 74 f2 ff ff 01 	addl   $0x1,-0xd8c(%rbp)
   12bd1:	83 bd 74 f2 ff ff 00 	cmpl   $0x0,-0xd8c(%rbp)
   12bd8:	7e be                	jle    12b98 <func_84+0x3c2>
   12bda:	83 85 70 f2 ff ff 01 	addl   $0x1,-0xd90(%rbp)
   12be1:	83 bd 70 f2 ff ff 01 	cmpl   $0x1,-0xd90(%rbp)
   12be8:	7e a2                	jle    12b8c <func_84+0x3b6>
   12bea:	83 85 6c f2 ff ff 01 	addl   $0x1,-0xd94(%rbp)
   12bf1:	83 bd 6c f2 ff ff 00 	cmpl   $0x0,-0xd94(%rbp)
   12bf8:	7e 86                	jle    12b80 <func_84+0x3aa>
   12bfa:	c7 85 6c f2 ff ff 00 	movl   $0x0,-0xd94(%rbp)
   12c01:	00 00 00 
   12c04:	eb 21                	jmp    12c27 <func_84+0x451>
   12c06:	8b 85 6c f2 ff ff    	mov    -0xd94(%rbp),%eax
   12c0c:	48 98                	cltq   
   12c0e:	48 bb be 86 e8 e2 4f 	movabs $0x36eb9b4fe2e886be,%rbx
   12c15:	9b eb 36 
   12c18:	48 89 9c c5 10 f5 ff 	mov    %rbx,-0xaf0(%rbp,%rax,8)
   12c1f:	ff 
   12c20:	83 85 6c f2 ff ff 01 	addl   $0x1,-0xd94(%rbp)
   12c27:	83 bd 6c f2 ff ff 01 	cmpl   $0x1,-0xd94(%rbp)
   12c2e:	7e d6                	jle    12c06 <func_84+0x430>
   12c30:	c7 85 6c f2 ff ff 00 	movl   $0x0,-0xd94(%rbp)
   12c37:	00 00 00 
   12c3a:	eb 21                	jmp    12c5d <func_84+0x487>
   12c3c:	8b 85 6c f2 ff ff    	mov    -0xd94(%rbp),%eax
   12c42:	48 98                	cltq   
   12c44:	48 bb e1 8b c8 c9 c8 	movabs $0x827ea9c8c9c88be1,%rbx
   12c4b:	a9 7e 82 
   12c4e:	48 89 9c c5 f8 f4 ff 	mov    %rbx,-0xb08(%rbp,%rax,8)
   12c55:	ff 
   12c56:	83 85 6c f2 ff ff 01 	addl   $0x1,-0xd94(%rbp)
   12c5d:	83 bd 6c f2 ff ff 00 	cmpl   $0x0,-0xd94(%rbp)
   12c64:	7e d6                	jle    12c3c <func_84+0x466>
   12c66:	c7 85 6c f2 ff ff 00 	movl   $0x0,-0xd94(%rbp)
   12c6d:	00 00 00 
   12c70:	eb 52                	jmp    12cc4 <func_84+0x4ee>
   12c72:	c7 85 70 f2 ff ff 00 	movl   $0x0,-0xd90(%rbp)
   12c79:	00 00 00 
   12c7c:	eb 36                	jmp    12cb4 <func_84+0x4de>
   12c7e:	8b 85 70 f2 ff ff    	mov    -0xd90(%rbp),%eax
   12c84:	48 63 c8             	movslq %eax,%rcx
   12c87:	8b 85 6c f2 ff ff    	mov    -0xd94(%rbp),%eax
   12c8d:	48 63 d0             	movslq %eax,%rdx
   12c90:	48 89 d0             	mov    %rdx,%rax
   12c93:	48 c1 e0 02          	shl    $0x2,%rax
   12c97:	48 01 d0             	add    %rdx,%rax
   12c9a:	48 8d 14 08          	lea    (%rax,%rcx,1),%rdx
   12c9e:	48 8d 85 45 f2 ff ff 	lea    -0xdbb(%rbp),%rax
   12ca5:	48 89 84 d5 b0 f5 ff 	mov    %rax,-0xa50(%rbp,%rdx,8)
   12cac:	ff 
   12cad:	83 85 70 f2 ff ff 01 	addl   $0x1,-0xd90(%rbp)
   12cb4:	83 bd 70 f2 ff ff 04 	cmpl   $0x4,-0xd90(%rbp)
   12cbb:	7e c1                	jle    12c7e <func_84+0x4a8>
   12cbd:	83 85 6c f2 ff ff 01 	addl   $0x1,-0xd94(%rbp)
   12cc4:	83 bd 6c f2 ff ff 00 	cmpl   $0x0,-0xd94(%rbp)
   12ccb:	7e a5                	jle    12c72 <func_84+0x49c>
   12ccd:	c7 85 6c f2 ff ff 00 	movl   $0x0,-0xd94(%rbp)
   12cd4:	00 00 00 
   12cd7:	eb 1e                	jmp    12cf7 <func_84+0x521>
   12cd9:	8b 85 6c f2 ff ff    	mov    -0xd94(%rbp),%eax
   12cdf:	48 98                	cltq   
   12ce1:	48 8d 95 10 f7 ff ff 	lea    -0x8f0(%rbp),%rdx
   12ce8:	48 89 94 c5 30 f5 ff 	mov    %rdx,-0xad0(%rbp,%rax,8)
   12cef:	ff 
   12cf0:	83 85 6c f2 ff ff 01 	addl   $0x1,-0xd94(%rbp)
   12cf7:	83 bd 6c f2 ff ff 02 	cmpl   $0x2,-0xd94(%rbp)
   12cfe:	7e d9                	jle    12cd9 <func_84+0x503>
   12d00:	c7 85 6c f2 ff ff 00 	movl   $0x0,-0xd94(%rbp)
   12d07:	00 00 00 
   12d0a:	eb 1e                	jmp    12d2a <func_84+0x554>
   12d0c:	8b 85 6c f2 ff ff    	mov    -0xd94(%rbp),%eax
   12d12:	48 98                	cltq   
   12d14:	48 8d 95 30 f3 ff ff 	lea    -0xcd0(%rbp),%rdx
   12d1b:	48 89 94 c5 10 f6 ff 	mov    %rdx,-0x9f0(%rbp,%rax,8)
   12d22:	ff 
   12d23:	83 85 6c f2 ff ff 01 	addl   $0x1,-0xd94(%rbp)
   12d2a:	83 bd 6c f2 ff ff 05 	cmpl   $0x5,-0xd94(%rbp)
   12d31:	7e d9                	jle    12d0c <func_84+0x536>
   12d33:	48 8b 85 08 f3 ff ff 	mov    -0xcf8(%rbp),%rax
   12d3a:	48 83 c0 01          	add    $0x1,%rax
   12d3e:	48 89 85 08 f3 ff ff 	mov    %rax,-0xcf8(%rbp)
   12d45:	8b 85 38 f2 ff ff    	mov    -0xdc8(%rbp),%eax
   12d4b:	0f b6 d0             	movzbl %al,%edx
   12d4e:	48 8b 85 30 f2 ff ff 	mov    -0xdd0(%rbp),%rax
   12d55:	0f b6 c0             	movzbl %al,%eax
   12d58:	89 d6                	mov    %edx,%esi
   12d5a:	89 c7                	mov    %eax,%edi
   12d5c:	e8 17 3e ff ff       	callq  6b78 <safe_sub_func_uint8_t_u_u>
   12d61:	0f b6 c0             	movzbl %al,%eax
   12d64:	be 00 00 00 00       	mov    $0x0,%esi
   12d69:	89 c7                	mov    %eax,%edi
   12d6b:	e8 dc 3e ff ff       	callq  6c4c <safe_lshift_func_uint8_t_u_u>
   12d70:	0f b6 d8             	movzbl %al,%ebx
   12d73:	0f b7 05 52 d4 00 00 	movzwl 0xd452(%rip),%eax        # 201cc <g_43>
   12d7a:	44 0f b7 e0          	movzwl %ax,%r12d
   12d7e:	48 8b 85 78 f3 ff ff 	mov    -0xc88(%rbp),%rax
   12d85:	8b 00                	mov    (%rax),%eax
   12d87:	48 98                	cltq   
   12d89:	48 89 c6             	mov    %rax,%rsi
   12d8c:	bf 01 00 00 00       	mov    $0x1,%edi
   12d91:	e8 19 43 ff ff       	callq  70af <safe_div_func_uint64_t_u_u>
   12d96:	49 39 c4             	cmp    %rax,%r12
   12d99:	0f 97 c0             	seta   %al
   12d9c:	0f b6 c0             	movzbl %al,%eax
   12d9f:	be 0e 00 00 00       	mov    $0xe,%esi
   12da4:	89 c7                	mov    %eax,%edi
   12da6:	e8 b8 37 ff ff       	callq  6563 <safe_rshift_func_int16_t_s_u>
   12dab:	8b 85 38 f2 ff ff    	mov    -0xdc8(%rbp),%eax
   12db1:	0f b7 d0             	movzwl %ax,%edx
   12db4:	0f b7 05 11 d4 00 00 	movzwl 0xd411(%rip),%eax        # 201cc <g_43>
   12dbb:	66 85 c0             	test   %ax,%ax
   12dbe:	74 35                	je     12df5 <func_84+0x61f>
   12dc0:	48 8b 8d 28 f2 ff ff 	mov    -0xdd8(%rbp),%rcx
   12dc7:	48 8b 05 e2 fa 00 00 	mov    0xfae2(%rip),%rax        # 228b0 <g_124>
   12dce:	48 39 c1             	cmp    %rax,%rcx
   12dd1:	75 0a                	jne    12ddd <func_84+0x607>
   12dd3:	48 83 bd 30 f2 ff ff 	cmpq   $0x0,-0xdd0(%rbp)
   12dda:	00 
   12ddb:	74 07                	je     12de4 <func_84+0x60e>
   12ddd:	b8 01 00 00 00       	mov    $0x1,%eax
   12de2:	eb 05                	jmp    12de9 <func_84+0x613>
   12de4:	b8 00 00 00 00       	mov    $0x0,%eax
   12de9:	83 f8 06             	cmp    $0x6,%eax
   12dec:	75 07                	jne    12df5 <func_84+0x61f>
   12dee:	b8 01 00 00 00       	mov    $0x1,%eax
   12df3:	eb 05                	jmp    12dfa <func_84+0x624>
   12df5:	b8 00 00 00 00       	mov    $0x0,%eax
   12dfa:	0f b7 c0             	movzwl %ax,%eax
   12dfd:	89 d6                	mov    %edx,%esi
   12dff:	89 c7                	mov    %eax,%edi
   12e01:	e8 37 3f ff ff       	callq  6d3d <safe_mul_func_uint16_t_u_u>
   12e06:	bf 00 00 00 00       	mov    $0x0,%edi
   12e0b:	e8 15 20 00 00       	callq  14e25 <func_111>
   12e10:	48 39 c3             	cmp    %rax,%rbx
   12e13:	0f 92 c0             	setb   %al
   12e16:	0f b6 d0             	movzbl %al,%edx
   12e19:	48 8b 85 88 f3 ff ff 	mov    -0xc78(%rbp),%rax
   12e20:	89 10                	mov    %edx,(%rax)
   12e22:	48 8b 85 88 f3 ff ff 	mov    -0xc78(%rbp),%rax
   12e29:	8b 00                	mov    (%rax),%eax
   12e2b:	0f b6 c0             	movzbl %al,%eax
   12e2e:	be 03 00 00 00       	mov    $0x3,%esi
   12e33:	89 c7                	mov    %eax,%edi
   12e35:	e8 53 3e ff ff       	callq  6c8d <safe_rshift_func_uint8_t_u_s>
   12e3a:	84 c0                	test   %al,%al
   12e3c:	0f 84 80 0d 00 00    	je     13bc2 <func_84+0x13ec>
   12e42:	c7 85 94 f2 ff ff 3d 	movl   $0x641ab43d,-0xd6c(%rbp)
   12e49:	b4 1a 64 
   12e4c:	c7 85 98 f2 ff ff f6 	movl   $0xfffffff6,-0xd68(%rbp)
   12e53:	ff ff ff 
   12e56:	c7 85 9c f2 ff ff 00 	movl   $0x0,-0xd64(%rbp)
   12e5d:	00 00 00 
   12e60:	c7 85 a0 f2 ff ff 00 	movl   $0x0,-0xd60(%rbp)
   12e67:	00 00 00 
   12e6a:	c7 85 78 f2 ff ff 03 	movl   $0x3,-0xd88(%rbp)
   12e71:	00 00 00 
   12e74:	c7 85 a4 f2 ff ff 00 	movl   $0x0,-0xd5c(%rbp)
   12e7b:	00 00 00 
   12e7e:	c7 85 a8 f2 ff ff 99 	movl   $0xff0a8c99,-0xd58(%rbp)
   12e85:	8c 0a ff 
   12e88:	c7 85 ac f2 ff ff 85 	movl   $0x8c1f6d85,-0xd54(%rbp)
   12e8f:	6d 1f 8c 
   12e92:	c7 85 b0 f2 ff ff 00 	movl   $0x0,-0xd50(%rbp)
   12e99:	00 00 00 
   12e9c:	c7 85 b4 f2 ff ff ad 	movl   $0x4262f2ad,-0xd4c(%rbp)
   12ea3:	f2 62 42 
   12ea6:	c7 85 b8 f2 ff ff ff 	movl   $0xffffffff,-0xd48(%rbp)
   12ead:	ff ff ff 
   12eb0:	c7 85 bc f2 ff ff fe 	movl   $0xfffffffe,-0xd44(%rbp)
   12eb7:	ff ff ff 
   12eba:	c7 85 c0 f2 ff ff f6 	movl   $0xfffffff6,-0xd40(%rbp)
   12ec1:	ff ff ff 
   12ec4:	c7 85 c4 f2 ff ff f8 	movl   $0xfffffff8,-0xd3c(%rbp)
   12ecb:	ff ff ff 
   12ece:	c7 85 c8 f2 ff ff cc 	movl   $0x4c2cacc,-0xd38(%rbp)
   12ed5:	ca c2 04 
   12ed8:	c7 85 cc f2 ff ff 00 	movl   $0x0,-0xd34(%rbp)
   12edf:	00 00 00 
   12ee2:	c7 85 d0 f2 ff ff bb 	movl   $0xfe4945bb,-0xd30(%rbp)
   12ee9:	45 49 fe 
   12eec:	c7 85 d4 f2 ff ff 00 	movl   $0x0,-0xd2c(%rbp)
   12ef3:	00 00 00 
   12ef6:	c7 85 d8 f2 ff ff ff 	movl   $0xffffffff,-0xd28(%rbp)
   12efd:	ff ff ff 
   12f00:	48 8d 85 10 f3 ff ff 	lea    -0xcf0(%rbp),%rax
   12f07:	48 89 85 40 f3 ff ff 	mov    %rax,-0xcc0(%rbp)
   12f0e:	48 8d 85 40 f3 ff ff 	lea    -0xcc0(%rbp),%rax
   12f15:	48 89 85 20 f4 ff ff 	mov    %rax,-0xbe0(%rbp)
   12f1c:	48 8d 85 45 f2 ff ff 	lea    -0xdbb(%rbp),%rax
   12f23:	48 89 85 28 f4 ff ff 	mov    %rax,-0xbd8(%rbp)
   12f2a:	48 c7 85 c0 f6 ff ff 	movq   $0x0,-0x940(%rbp)
   12f31:	00 00 00 00 
   12f35:	48 c7 85 c8 f6 ff ff 	movq   $0x0,-0x938(%rbp)
   12f3c:	00 00 00 00 
   12f40:	48 8d 85 50 f5 ff ff 	lea    -0xab0(%rbp),%rax
   12f47:	48 83 c0 18          	add    $0x18,%rax
   12f4b:	48 89 85 d0 f6 ff ff 	mov    %rax,-0x930(%rbp)
   12f52:	48 c7 85 d8 f6 ff ff 	movq   $0x0,-0x928(%rbp)
   12f59:	00 00 00 00 
   12f5d:	48 c7 85 e0 f6 ff ff 	movq   $0x0,-0x920(%rbp)
   12f64:	00 00 00 00 
   12f68:	48 8d 85 50 f5 ff ff 	lea    -0xab0(%rbp),%rax
   12f6f:	48 83 c0 18          	add    $0x18,%rax
   12f73:	48 89 85 e8 f6 ff ff 	mov    %rax,-0x918(%rbp)
   12f7a:	48 c7 85 f0 f6 ff ff 	movq   $0x0,-0x910(%rbp)
   12f81:	00 00 00 00 
   12f85:	48 c7 85 f8 f6 ff ff 	movq   $0x0,-0x908(%rbp)
   12f8c:	00 00 00 00 
   12f90:	48 8d 85 c0 f6 ff ff 	lea    -0x940(%rbp),%rax
   12f97:	48 83 c0 18          	add    $0x18,%rax
   12f9b:	48 89 85 c0 f9 ff ff 	mov    %rax,-0x640(%rbp)
   12fa2:	48 8d 85 c0 f6 ff ff 	lea    -0x940(%rbp),%rax
   12fa9:	48 83 c0 18          	add    $0x18,%rax
   12fad:	48 89 85 c8 f9 ff ff 	mov    %rax,-0x638(%rbp)
   12fb4:	48 8d 85 c0 f6 ff ff 	lea    -0x940(%rbp),%rax
   12fbb:	48 83 c0 18          	add    $0x18,%rax
   12fbf:	48 89 85 d0 f9 ff ff 	mov    %rax,-0x630(%rbp)
   12fc6:	48 8d 85 c0 f6 ff ff 	lea    -0x940(%rbp),%rax
   12fcd:	48 83 c0 18          	add    $0x18,%rax
   12fd1:	48 89 85 d8 f9 ff ff 	mov    %rax,-0x628(%rbp)
   12fd8:	48 8d 85 c0 f6 ff ff 	lea    -0x940(%rbp),%rax
   12fdf:	48 83 c0 08          	add    $0x8,%rax
   12fe3:	48 89 85 e0 f9 ff ff 	mov    %rax,-0x620(%rbp)
   12fea:	48 8d 85 c0 f6 ff ff 	lea    -0x940(%rbp),%rax
   12ff1:	48 83 c0 18          	add    $0x18,%rax
   12ff5:	48 89 85 e8 f9 ff ff 	mov    %rax,-0x618(%rbp)
   12ffc:	48 c7 85 f0 f9 ff ff 	movq   $0x0,-0x610(%rbp)
   13003:	00 00 00 00 
   13007:	48 c7 85 f8 f9 ff ff 	movq   $0x0,-0x608(%rbp)
   1300e:	00 00 00 00 
   13012:	48 8d 85 c0 f6 ff ff 	lea    -0x940(%rbp),%rax
   13019:	48 83 c0 18          	add    $0x18,%rax
   1301d:	48 89 85 00 fa ff ff 	mov    %rax,-0x600(%rbp)
   13024:	48 8d 85 c0 f6 ff ff 	lea    -0x940(%rbp),%rax
   1302b:	48 83 c0 08          	add    $0x8,%rax
   1302f:	48 89 85 08 fa ff ff 	mov    %rax,-0x5f8(%rbp)
   13036:	48 8d 85 c0 f6 ff ff 	lea    -0x940(%rbp),%rax
   1303d:	48 83 c0 18          	add    $0x18,%rax
   13041:	48 89 85 10 fa ff ff 	mov    %rax,-0x5f0(%rbp)
   13048:	48 8d 85 c0 f6 ff ff 	lea    -0x940(%rbp),%rax
   1304f:	48 83 c0 08          	add    $0x8,%rax
   13053:	48 89 85 18 fa ff ff 	mov    %rax,-0x5e8(%rbp)
   1305a:	48 8d 85 c0 f6 ff ff 	lea    -0x940(%rbp),%rax
   13061:	48 83 c0 18          	add    $0x18,%rax
   13065:	48 89 85 20 fa ff ff 	mov    %rax,-0x5e0(%rbp)
   1306c:	48 c7 85 28 fa ff ff 	movq   $0x0,-0x5d8(%rbp)
   13073:	00 00 00 00 
   13077:	48 c7 85 30 fa ff ff 	movq   $0x0,-0x5d0(%rbp)
   1307e:	00 00 00 00 
   13082:	48 8d 85 c0 f6 ff ff 	lea    -0x940(%rbp),%rax
   13089:	48 83 c0 18          	add    $0x18,%rax
   1308d:	48 89 85 38 fa ff ff 	mov    %rax,-0x5c8(%rbp)
   13094:	48 8d 85 c0 f6 ff ff 	lea    -0x940(%rbp),%rax
   1309b:	48 83 c0 08          	add    $0x8,%rax
   1309f:	48 89 85 40 fa ff ff 	mov    %rax,-0x5c0(%rbp)
   130a6:	48 8d 85 c0 f6 ff ff 	lea    -0x940(%rbp),%rax
   130ad:	48 83 c0 18          	add    $0x18,%rax
   130b1:	48 89 85 48 fa ff ff 	mov    %rax,-0x5b8(%rbp)
   130b8:	48 8d 85 c0 f6 ff ff 	lea    -0x940(%rbp),%rax
   130bf:	48 83 c0 18          	add    $0x18,%rax
   130c3:	48 89 85 50 fa ff ff 	mov    %rax,-0x5b0(%rbp)
   130ca:	48 8d 85 c0 f6 ff ff 	lea    -0x940(%rbp),%rax
   130d1:	48 83 c0 18          	add    $0x18,%rax
   130d5:	48 89 85 58 fa ff ff 	mov    %rax,-0x5a8(%rbp)
   130dc:	48 8d 85 c0 f6 ff ff 	lea    -0x940(%rbp),%rax
   130e3:	48 83 c0 18          	add    $0x18,%rax
   130e7:	48 89 85 60 fa ff ff 	mov    %rax,-0x5a0(%rbp)
   130ee:	48 8d 85 c0 f6 ff ff 	lea    -0x940(%rbp),%rax
   130f5:	48 83 c0 18          	add    $0x18,%rax
   130f9:	48 89 85 68 fa ff ff 	mov    %rax,-0x598(%rbp)
   13100:	48 8d 85 c0 f6 ff ff 	lea    -0x940(%rbp),%rax
   13107:	48 83 c0 18          	add    $0x18,%rax
   1310b:	48 89 85 70 fa ff ff 	mov    %rax,-0x590(%rbp)
   13112:	48 8d 85 c0 f6 ff ff 	lea    -0x940(%rbp),%rax
   13119:	48 89 85 78 fa ff ff 	mov    %rax,-0x588(%rbp)
   13120:	48 8d 85 c0 f6 ff ff 	lea    -0x940(%rbp),%rax
   13127:	48 83 c0 18          	add    $0x18,%rax
   1312b:	48 89 85 80 fa ff ff 	mov    %rax,-0x580(%rbp)
   13132:	48 8d 85 c0 f6 ff ff 	lea    -0x940(%rbp),%rax
   13139:	48 83 c0 18          	add    $0x18,%rax
   1313d:	48 89 85 88 fa ff ff 	mov    %rax,-0x578(%rbp)
   13144:	48 8d 85 c0 f6 ff ff 	lea    -0x940(%rbp),%rax
   1314b:	48 83 c0 18          	add    $0x18,%rax
   1314f:	48 89 85 90 fa ff ff 	mov    %rax,-0x570(%rbp)
   13156:	48 8d 85 c0 f6 ff ff 	lea    -0x940(%rbp),%rax
   1315d:	48 83 c0 18          	add    $0x18,%rax
   13161:	48 89 85 98 fa ff ff 	mov    %rax,-0x568(%rbp)
   13168:	48 8d 85 c0 f6 ff ff 	lea    -0x940(%rbp),%rax
   1316f:	48 89 85 a0 fa ff ff 	mov    %rax,-0x560(%rbp)
   13176:	48 8d 85 c0 f6 ff ff 	lea    -0x940(%rbp),%rax
   1317d:	48 83 c0 38          	add    $0x38,%rax
   13181:	48 89 85 a8 fa ff ff 	mov    %rax,-0x558(%rbp)
   13188:	48 8d 85 c0 f6 ff ff 	lea    -0x940(%rbp),%rax
   1318f:	48 83 c0 18          	add    $0x18,%rax
   13193:	48 89 85 b0 fa ff ff 	mov    %rax,-0x550(%rbp)
   1319a:	48 8d 85 c0 f6 ff ff 	lea    -0x940(%rbp),%rax
   131a1:	48 83 c0 18          	add    $0x18,%rax
   131a5:	48 89 85 b8 fa ff ff 	mov    %rax,-0x548(%rbp)
   131ac:	48 8d 85 c0 f6 ff ff 	lea    -0x940(%rbp),%rax
   131b3:	48 83 c0 18          	add    $0x18,%rax
   131b7:	48 89 85 c0 fa ff ff 	mov    %rax,-0x540(%rbp)
   131be:	48 8d 85 c0 f6 ff ff 	lea    -0x940(%rbp),%rax
   131c5:	48 83 c0 08          	add    $0x8,%rax
   131c9:	48 89 85 c8 fa ff ff 	mov    %rax,-0x538(%rbp)
   131d0:	48 8d 85 c0 f6 ff ff 	lea    -0x940(%rbp),%rax
   131d7:	48 83 c0 18          	add    $0x18,%rax
   131db:	48 89 85 d0 fa ff ff 	mov    %rax,-0x530(%rbp)
   131e2:	48 8d 85 c0 f6 ff ff 	lea    -0x940(%rbp),%rax
   131e9:	48 83 c0 38          	add    $0x38,%rax
   131ed:	48 89 85 d8 fa ff ff 	mov    %rax,-0x528(%rbp)
   131f4:	48 c7 85 e0 fa ff ff 	movq   $0x0,-0x520(%rbp)
   131fb:	00 00 00 00 
   131ff:	48 c7 85 e8 fa ff ff 	movq   $0x0,-0x518(%rbp)
   13206:	00 00 00 00 
   1320a:	48 8d 85 c0 f6 ff ff 	lea    -0x940(%rbp),%rax
   13211:	48 83 c0 18          	add    $0x18,%rax
   13215:	48 89 85 f0 fa ff ff 	mov    %rax,-0x510(%rbp)
   1321c:	48 8d 85 c0 f6 ff ff 	lea    -0x940(%rbp),%rax
   13223:	48 83 c0 18          	add    $0x18,%rax
   13227:	48 89 85 f8 fa ff ff 	mov    %rax,-0x508(%rbp)
   1322e:	48 c7 85 00 fb ff ff 	movq   $0x0,-0x500(%rbp)
   13235:	00 00 00 00 
   13239:	48 8d 85 c0 f6 ff ff 	lea    -0x940(%rbp),%rax
   13240:	48 89 85 08 fb ff ff 	mov    %rax,-0x4f8(%rbp)
   13247:	48 8d 85 c0 f6 ff ff 	lea    -0x940(%rbp),%rax
   1324e:	48 83 c0 18          	add    $0x18,%rax
   13252:	48 89 85 10 fb ff ff 	mov    %rax,-0x4f0(%rbp)
   13259:	48 8d 85 c0 f6 ff ff 	lea    -0x940(%rbp),%rax
   13260:	48 89 85 18 fb ff ff 	mov    %rax,-0x4e8(%rbp)
   13267:	48 8d 85 c0 f6 ff ff 	lea    -0x940(%rbp),%rax
   1326e:	48 83 c0 18          	add    $0x18,%rax
   13272:	48 89 85 20 fb ff ff 	mov    %rax,-0x4e0(%rbp)
   13279:	48 8d 85 c0 f6 ff ff 	lea    -0x940(%rbp),%rax
   13280:	48 89 85 28 fb ff ff 	mov    %rax,-0x4d8(%rbp)
   13287:	48 c7 85 30 fb ff ff 	movq   $0x0,-0x4d0(%rbp)
   1328e:	00 00 00 00 
   13292:	48 8d 85 c0 f6 ff ff 	lea    -0x940(%rbp),%rax
   13299:	48 83 c0 18          	add    $0x18,%rax
   1329d:	48 89 85 38 fb ff ff 	mov    %rax,-0x4c8(%rbp)
   132a4:	48 8d 85 c0 f6 ff ff 	lea    -0x940(%rbp),%rax
   132ab:	48 89 85 40 fb ff ff 	mov    %rax,-0x4c0(%rbp)
   132b2:	48 8d 85 c0 f6 ff ff 	lea    -0x940(%rbp),%rax
   132b9:	48 83 c0 18          	add    $0x18,%rax
   132bd:	48 89 85 48 fb ff ff 	mov    %rax,-0x4b8(%rbp)
   132c4:	48 8d 85 c0 f6 ff ff 	lea    -0x940(%rbp),%rax
   132cb:	48 83 c0 18          	add    $0x18,%rax
   132cf:	48 89 85 50 fb ff ff 	mov    %rax,-0x4b0(%rbp)
   132d6:	48 8d 85 c0 f6 ff ff 	lea    -0x940(%rbp),%rax
   132dd:	48 83 c0 18          	add    $0x18,%rax
   132e1:	48 89 85 58 fb ff ff 	mov    %rax,-0x4a8(%rbp)
   132e8:	48 8d 85 c0 f6 ff ff 	lea    -0x940(%rbp),%rax
   132ef:	48 83 c0 18          	add    $0x18,%rax
   132f3:	48 89 85 60 fb ff ff 	mov    %rax,-0x4a0(%rbp)
   132fa:	48 c7 85 68 fb ff ff 	movq   $0x0,-0x498(%rbp)
   13301:	00 00 00 00 
   13305:	48 8d 85 c0 f6 ff ff 	lea    -0x940(%rbp),%rax
   1330c:	48 83 c0 18          	add    $0x18,%rax
   13310:	48 89 85 70 fb ff ff 	mov    %rax,-0x490(%rbp)
   13317:	48 8d 85 c0 f6 ff ff 	lea    -0x940(%rbp),%rax
   1331e:	48 83 c0 18          	add    $0x18,%rax
   13322:	48 89 85 78 fb ff ff 	mov    %rax,-0x488(%rbp)
   13329:	48 8d 85 c0 f6 ff ff 	lea    -0x940(%rbp),%rax
   13330:	48 83 c0 18          	add    $0x18,%rax
   13334:	48 89 85 80 fb ff ff 	mov    %rax,-0x480(%rbp)
   1333b:	48 8d 85 c0 f6 ff ff 	lea    -0x940(%rbp),%rax
   13342:	48 83 c0 18          	add    $0x18,%rax
   13346:	48 89 85 88 fb ff ff 	mov    %rax,-0x478(%rbp)
   1334d:	48 8d 85 c0 f6 ff ff 	lea    -0x940(%rbp),%rax
   13354:	48 83 c0 18          	add    $0x18,%rax
   13358:	48 89 85 90 fb ff ff 	mov    %rax,-0x470(%rbp)
   1335f:	48 8d 85 c0 f6 ff ff 	lea    -0x940(%rbp),%rax
   13366:	48 83 c0 18          	add    $0x18,%rax
   1336a:	48 89 85 98 fb ff ff 	mov    %rax,-0x468(%rbp)
   13371:	48 8d 85 c0 f6 ff ff 	lea    -0x940(%rbp),%rax
   13378:	48 89 85 a0 fb ff ff 	mov    %rax,-0x460(%rbp)
   1337f:	48 8d 85 c0 f6 ff ff 	lea    -0x940(%rbp),%rax
   13386:	48 83 c0 18          	add    $0x18,%rax
   1338a:	48 89 85 a8 fb ff ff 	mov    %rax,-0x458(%rbp)
   13391:	48 c7 85 b0 fb ff ff 	movq   $0x0,-0x450(%rbp)
   13398:	00 00 00 00 
   1339c:	48 8d 85 c0 f6 ff ff 	lea    -0x940(%rbp),%rax
   133a3:	48 83 c0 18          	add    $0x18,%rax
   133a7:	48 89 85 b8 fb ff ff 	mov    %rax,-0x448(%rbp)
   133ae:	48 8d 85 c0 f6 ff ff 	lea    -0x940(%rbp),%rax
   133b5:	48 83 c0 18          	add    $0x18,%rax
   133b9:	48 89 85 c0 fb ff ff 	mov    %rax,-0x440(%rbp)
   133c0:	48 8d 85 c0 f6 ff ff 	lea    -0x940(%rbp),%rax
   133c7:	48 83 c0 18          	add    $0x18,%rax
   133cb:	48 89 85 c8 fb ff ff 	mov    %rax,-0x438(%rbp)
   133d2:	48 c7 85 d0 fb ff ff 	movq   $0x0,-0x430(%rbp)
   133d9:	00 00 00 00 
   133dd:	48 8d 85 c0 f6 ff ff 	lea    -0x940(%rbp),%rax
   133e4:	48 89 85 d8 fb ff ff 	mov    %rax,-0x428(%rbp)
   133eb:	48 c7 85 e0 fb ff ff 	movq   $0x0,-0x420(%rbp)
   133f2:	00 00 00 00 
   133f6:	48 8d 85 c0 f6 ff ff 	lea    -0x940(%rbp),%rax
   133fd:	48 83 c0 08          	add    $0x8,%rax
   13401:	48 89 85 e8 fb ff ff 	mov    %rax,-0x418(%rbp)
   13408:	48 8d 85 c0 f6 ff ff 	lea    -0x940(%rbp),%rax
   1340f:	48 83 c0 38          	add    $0x38,%rax
   13413:	48 89 85 f0 fb ff ff 	mov    %rax,-0x410(%rbp)
   1341a:	48 8d 85 c0 f6 ff ff 	lea    -0x940(%rbp),%rax
   13421:	48 83 c0 18          	add    $0x18,%rax
   13425:	48 89 85 f8 fb ff ff 	mov    %rax,-0x408(%rbp)
   1342c:	48 8d 05 05 cf 00 00 	lea    0xcf05(%rip),%rax        # 20338 <g_159>
   13433:	48 89 85 30 f4 ff ff 	mov    %rax,-0xbd0(%rbp)
   1343a:	48 8d 05 2f cf 00 00 	lea    0xcf2f(%rip),%rax        # 20370 <g_597>
   13441:	48 89 85 38 f4 ff ff 	mov    %rax,-0xbc8(%rbp)
   13448:	48 8d 85 10 f5 ff ff 	lea    -0xaf0(%rbp),%rax
   1344f:	48 89 85 40 f4 ff ff 	mov    %rax,-0xbc0(%rbp)
   13456:	48 8d 85 5c f2 ff ff 	lea    -0xda4(%rbp),%rax
   1345d:	48 89 85 48 f4 ff ff 	mov    %rax,-0xbb8(%rbp)
   13464:	c6 85 49 f2 ff ff 3d 	movb   $0x3d,-0xdb7(%rbp)
   1346b:	c7 85 7c f2 ff ff 00 	movl   $0x0,-0xd84(%rbp)
   13472:	00 00 00 
   13475:	eb 1a                	jmp    13491 <func_84+0xcbb>
   13477:	8b 85 7c f2 ff ff    	mov    -0xd84(%rbp),%eax
   1347d:	48 98                	cltq   
   1347f:	c7 84 85 70 f5 ff ff 	movl   $0x9,-0xa90(%rbp,%rax,4)
   13486:	09 00 00 00 
   1348a:	83 85 7c f2 ff ff 01 	addl   $0x1,-0xd84(%rbp)
   13491:	83 bd 7c f2 ff ff 00 	cmpl   $0x0,-0xd84(%rbp)
   13498:	7e dd                	jle    13477 <func_84+0xca1>
   1349a:	0f b6 85 45 f2 ff ff 	movzbl -0xdbb(%rbp),%eax
   134a1:	83 e8 01             	sub    $0x1,%eax
   134a4:	88 85 45 f2 ff ff    	mov    %al,-0xdbb(%rbp)
   134aa:	c7 85 78 f2 ff ff 01 	movl   $0x1,-0xd88(%rbp)
   134b1:	00 00 00 
   134b4:	e9 f1 05 00 00       	jmpq   13aaa <func_84+0x12d4>
   134b9:	c7 85 dc f2 ff ff f7 	movl   $0xfffffff7,-0xd24(%rbp)
   134c0:	ff ff ff 
   134c3:	48 8d 85 4c f2 ff ff 	lea    -0xdb4(%rbp),%rax
   134ca:	48 89 85 50 f4 ff ff 	mov    %rax,-0xbb0(%rbp)
   134d1:	48 8d 05 50 ce 00 00 	lea    0xce50(%rip),%rax        # 20328 <g_138>
   134d8:	48 89 85 00 fc ff ff 	mov    %rax,-0x400(%rbp)
   134df:	48 8d 05 e6 cc 00 00 	lea    0xcce6(%rip),%rax        # 201cc <g_43>
   134e6:	48 89 85 08 fc ff ff 	mov    %rax,-0x3f8(%rbp)
   134ed:	48 c7 85 10 fc ff ff 	movq   $0x0,-0x3f0(%rbp)
   134f4:	00 00 00 00 
   134f8:	48 8d 05 cd cc 00 00 	lea    0xcccd(%rip),%rax        # 201cc <g_43>
   134ff:	48 89 85 18 fc ff ff 	mov    %rax,-0x3e8(%rbp)
   13506:	48 c7 85 20 fc ff ff 	movq   $0x0,-0x3e0(%rbp)
   1350d:	00 00 00 00 
   13511:	48 8d 05 b4 cc 00 00 	lea    0xccb4(%rip),%rax        # 201cc <g_43>
   13518:	48 89 85 28 fc ff ff 	mov    %rax,-0x3d8(%rbp)
   1351f:	48 c7 85 30 fc ff ff 	movq   $0x0,-0x3d0(%rbp)
   13526:	00 00 00 00 
   1352a:	48 8d 05 9b cc 00 00 	lea    0xcc9b(%rip),%rax        # 201cc <g_43>
   13531:	48 89 85 38 fc ff ff 	mov    %rax,-0x3c8(%rbp)
   13538:	48 8d 05 e9 cd 00 00 	lea    0xcde9(%rip),%rax        # 20328 <g_138>
   1353f:	48 89 85 40 fc ff ff 	mov    %rax,-0x3c0(%rbp)
   13546:	48 c7 85 48 fc ff ff 	movq   $0x0,-0x3b8(%rbp)
   1354d:	00 00 00 00 
   13551:	48 8d 05 d0 cd 00 00 	lea    0xcdd0(%rip),%rax        # 20328 <g_138>
   13558:	48 89 85 50 fc ff ff 	mov    %rax,-0x3b0(%rbp)
   1355f:	48 c7 85 58 fc ff ff 	movq   $0x0,-0x3a8(%rbp)
   13566:	00 00 00 00 
   1356a:	48 8d 05 b7 cd 00 00 	lea    0xcdb7(%rip),%rax        # 20328 <g_138>
   13571:	48 89 85 60 fc ff ff 	mov    %rax,-0x3a0(%rbp)
   13578:	48 8d 05 ab cd 00 00 	lea    0xcdab(%rip),%rax        # 2032a <g_145>
   1357f:	48 89 85 68 fc ff ff 	mov    %rax,-0x398(%rbp)
   13586:	48 c7 85 70 fc ff ff 	movq   $0x0,-0x390(%rbp)
   1358d:	00 00 00 00 
   13591:	48 8d 05 92 cd 00 00 	lea    0xcd92(%rip),%rax        # 2032a <g_145>
   13598:	48 89 85 78 fc ff ff 	mov    %rax,-0x388(%rbp)
   1359f:	48 8d 05 82 cd 00 00 	lea    0xcd82(%rip),%rax        # 20328 <g_138>
   135a6:	48 89 85 80 fc ff ff 	mov    %rax,-0x380(%rbp)
   135ad:	48 8d 05 74 cd 00 00 	lea    0xcd74(%rip),%rax        # 20328 <g_138>
   135b4:	48 89 85 88 fc ff ff 	mov    %rax,-0x378(%rbp)
   135bb:	48 8d 05 68 cd 00 00 	lea    0xcd68(%rip),%rax        # 2032a <g_145>
   135c2:	48 89 85 90 fc ff ff 	mov    %rax,-0x370(%rbp)
   135c9:	48 8d 05 5a cd 00 00 	lea    0xcd5a(%rip),%rax        # 2032a <g_145>
   135d0:	48 89 85 98 fc ff ff 	mov    %rax,-0x368(%rbp)
   135d7:	48 8d 85 4c f2 ff ff 	lea    -0xdb4(%rbp),%rax
   135de:	48 89 85 a0 fc ff ff 	mov    %rax,-0x360(%rbp)
   135e5:	48 8d 05 3c cd 00 00 	lea    0xcd3c(%rip),%rax        # 20328 <g_138>
   135ec:	48 89 85 a8 fc ff ff 	mov    %rax,-0x358(%rbp)
   135f3:	48 8d 05 30 cd 00 00 	lea    0xcd30(%rip),%rax        # 2032a <g_145>
   135fa:	48 89 85 b0 fc ff ff 	mov    %rax,-0x350(%rbp)
   13601:	48 8d 05 22 cd 00 00 	lea    0xcd22(%rip),%rax        # 2032a <g_145>
   13608:	48 89 85 b8 fc ff ff 	mov    %rax,-0x348(%rbp)
   1360f:	48 c7 85 c0 fc ff ff 	movq   $0x0,-0x340(%rbp)
   13616:	00 00 00 00 
   1361a:	48 c7 85 c8 fc ff ff 	movq   $0x0,-0x338(%rbp)
   13621:	00 00 00 00 
   13625:	48 8d 05 fe cc 00 00 	lea    0xccfe(%rip),%rax        # 2032a <g_145>
   1362c:	48 89 85 d0 fc ff ff 	mov    %rax,-0x330(%rbp)
   13633:	48 8d 05 f0 cc 00 00 	lea    0xccf0(%rip),%rax        # 2032a <g_145>
   1363a:	48 89 85 d8 fc ff ff 	mov    %rax,-0x328(%rbp)
   13641:	48 8d 05 e0 cc 00 00 	lea    0xcce0(%rip),%rax        # 20328 <g_138>
   13648:	48 89 85 e0 fc ff ff 	mov    %rax,-0x320(%rbp)
   1364f:	48 8d 85 4c f2 ff ff 	lea    -0xdb4(%rbp),%rax
   13656:	48 89 85 e8 fc ff ff 	mov    %rax,-0x318(%rbp)
   1365d:	48 8d 05 c6 cc 00 00 	lea    0xccc6(%rip),%rax        # 2032a <g_145>
   13664:	48 89 85 f0 fc ff ff 	mov    %rax,-0x310(%rbp)
   1366b:	48 8d 05 b6 cc 00 00 	lea    0xccb6(%rip),%rax        # 20328 <g_138>
   13672:	48 89 85 f8 fc ff ff 	mov    %rax,-0x308(%rbp)
   13679:	48 8d 05 a8 cc 00 00 	lea    0xcca8(%rip),%rax        # 20328 <g_138>
   13680:	48 89 85 00 fd ff ff 	mov    %rax,-0x300(%rbp)
   13687:	48 8d 05 3e cb 00 00 	lea    0xcb3e(%rip),%rax        # 201cc <g_43>
   1368e:	48 89 85 08 fd ff ff 	mov    %rax,-0x2f8(%rbp)
   13695:	48 8d 05 30 cb 00 00 	lea    0xcb30(%rip),%rax        # 201cc <g_43>
   1369c:	48 89 85 10 fd ff ff 	mov    %rax,-0x2f0(%rbp)
   136a3:	48 c7 85 18 fd ff ff 	movq   $0x0,-0x2e8(%rbp)
   136aa:	00 00 00 00 
   136ae:	48 8d 05 75 cc 00 00 	lea    0xcc75(%rip),%rax        # 2032a <g_145>
   136b5:	48 89 85 20 fd ff ff 	mov    %rax,-0x2e0(%rbp)
   136bc:	48 8d 85 4c f2 ff ff 	lea    -0xdb4(%rbp),%rax
   136c3:	48 89 85 28 fd ff ff 	mov    %rax,-0x2d8(%rbp)
   136ca:	48 c7 85 30 fd ff ff 	movq   $0x0,-0x2d0(%rbp)
   136d1:	00 00 00 00 
   136d5:	48 8d 05 4c cc 00 00 	lea    0xcc4c(%rip),%rax        # 20328 <g_138>
   136dc:	48 89 85 38 fd ff ff 	mov    %rax,-0x2c8(%rbp)
   136e3:	48 8d 05 3e cc 00 00 	lea    0xcc3e(%rip),%rax        # 20328 <g_138>
   136ea:	48 89 85 40 fd ff ff 	mov    %rax,-0x2c0(%rbp)
   136f1:	48 8d 85 4c f2 ff ff 	lea    -0xdb4(%rbp),%rax
   136f8:	48 89 85 48 fd ff ff 	mov    %rax,-0x2b8(%rbp)
   136ff:	48 c7 85 50 fd ff ff 	movq   $0x0,-0x2b0(%rbp)
   13706:	00 00 00 00 
   1370a:	48 8d 05 17 cc 00 00 	lea    0xcc17(%rip),%rax        # 20328 <g_138>
   13711:	48 89 85 58 fd ff ff 	mov    %rax,-0x2a8(%rbp)
   13718:	48 8d 05 ad ca 00 00 	lea    0xcaad(%rip),%rax        # 201cc <g_43>
   1371f:	48 89 85 60 fd ff ff 	mov    %rax,-0x2a0(%rbp)
   13726:	48 8d 05 fd cb 00 00 	lea    0xcbfd(%rip),%rax        # 2032a <g_145>
   1372d:	48 89 85 68 fd ff ff 	mov    %rax,-0x298(%rbp)
   13734:	48 8d 05 91 ca 00 00 	lea    0xca91(%rip),%rax        # 201cc <g_43>
   1373b:	48 89 85 70 fd ff ff 	mov    %rax,-0x290(%rbp)
   13742:	48 8d 05 df cb 00 00 	lea    0xcbdf(%rip),%rax        # 20328 <g_138>
   13749:	48 89 85 78 fd ff ff 	mov    %rax,-0x288(%rbp)
   13750:	48 c7 85 80 fd ff ff 	movq   $0x0,-0x280(%rbp)
   13757:	00 00 00 00 
   1375b:	48 8d 85 4c f2 ff ff 	lea    -0xdb4(%rbp),%rax
   13762:	48 89 85 88 fd ff ff 	mov    %rax,-0x278(%rbp)
   13769:	48 8d 05 5c ca 00 00 	lea    0xca5c(%rip),%rax        # 201cc <g_43>
   13770:	48 89 85 90 fd ff ff 	mov    %rax,-0x270(%rbp)
   13777:	48 8d 05 ac cb 00 00 	lea    0xcbac(%rip),%rax        # 2032a <g_145>
   1377e:	48 89 85 98 fd ff ff 	mov    %rax,-0x268(%rbp)
   13785:	48 8d 05 9e cb 00 00 	lea    0xcb9e(%rip),%rax        # 2032a <g_145>
   1378c:	48 89 85 a0 fd ff ff 	mov    %rax,-0x260(%rbp)
   13793:	48 8d 05 8e cb 00 00 	lea    0xcb8e(%rip),%rax        # 20328 <g_138>
   1379a:	48 89 85 a8 fd ff ff 	mov    %rax,-0x258(%rbp)
   137a1:	48 c7 85 b0 fd ff ff 	movq   $0x0,-0x250(%rbp)
   137a8:	00 00 00 00 
   137ac:	48 8d 05 77 cb 00 00 	lea    0xcb77(%rip),%rax        # 2032a <g_145>
   137b3:	48 89 85 b8 fd ff ff 	mov    %rax,-0x248(%rbp)
   137ba:	48 8d 85 4c f2 ff ff 	lea    -0xdb4(%rbp),%rax
   137c1:	48 89 85 c0 fd ff ff 	mov    %rax,-0x240(%rbp)
   137c8:	48 8d 05 59 cb 00 00 	lea    0xcb59(%rip),%rax        # 20328 <g_138>
   137cf:	48 89 85 c8 fd ff ff 	mov    %rax,-0x238(%rbp)
   137d6:	48 8d 05 4d cb 00 00 	lea    0xcb4d(%rip),%rax        # 2032a <g_145>
   137dd:	48 89 85 d0 fd ff ff 	mov    %rax,-0x230(%rbp)
   137e4:	48 8d 05 3f cb 00 00 	lea    0xcb3f(%rip),%rax        # 2032a <g_145>
   137eb:	48 89 85 d8 fd ff ff 	mov    %rax,-0x228(%rbp)
   137f2:	48 8d 05 d3 c9 00 00 	lea    0xc9d3(%rip),%rax        # 201cc <g_43>
   137f9:	48 89 85 e0 fd ff ff 	mov    %rax,-0x220(%rbp)
   13800:	48 8d 05 21 cb 00 00 	lea    0xcb21(%rip),%rax        # 20328 <g_138>
   13807:	48 89 85 e8 fd ff ff 	mov    %rax,-0x218(%rbp)
   1380e:	48 c7 85 f0 fd ff ff 	movq   $0x0,-0x210(%rbp)
   13815:	00 00 00 00 
   13819:	48 c7 85 f8 fd ff ff 	movq   $0x0,-0x208(%rbp)
   13820:	00 00 00 00 
   13824:	48 c7 85 00 fe ff ff 	movq   $0x0,-0x200(%rbp)
   1382b:	00 00 00 00 
   1382f:	48 8d 05 f4 ca 00 00 	lea    0xcaf4(%rip),%rax        # 2032a <g_145>
   13836:	48 89 85 08 fe ff ff 	mov    %rax,-0x1f8(%rbp)
   1383d:	48 8d 05 e6 ca 00 00 	lea    0xcae6(%rip),%rax        # 2032a <g_145>
   13844:	48 89 85 10 fe ff ff 	mov    %rax,-0x1f0(%rbp)
   1384b:	48 c7 85 18 fe ff ff 	movq   $0x0,-0x1e8(%rbp)
   13852:	00 00 00 00 
   13856:	48 c7 85 20 fe ff ff 	movq   $0x0,-0x1e0(%rbp)
   1385d:	00 00 00 00 
   13861:	48 c7 85 28 fe ff ff 	movq   $0x0,-0x1d8(%rbp)
   13868:	00 00 00 00 
   1386c:	48 8d 05 59 c9 00 00 	lea    0xc959(%rip),%rax        # 201cc <g_43>
   13873:	48 89 85 30 fe ff ff 	mov    %rax,-0x1d0(%rbp)
   1387a:	48 8d 05 4b c9 00 00 	lea    0xc94b(%rip),%rax        # 201cc <g_43>
   13881:	48 89 85 38 fe ff ff 	mov    %rax,-0x1c8(%rbp)
   13888:	48 8d 05 9b ca 00 00 	lea    0xca9b(%rip),%rax        # 2032a <g_145>
   1388f:	48 89 85 40 fe ff ff 	mov    %rax,-0x1c0(%rbp)
   13896:	48 c7 85 48 fe ff ff 	movq   $0x0,-0x1b8(%rbp)
   1389d:	00 00 00 00 
   138a1:	48 c7 85 50 fe ff ff 	movq   $0x0,-0x1b0(%rbp)
   138a8:	00 00 00 00 
   138ac:	48 8d 05 77 ca 00 00 	lea    0xca77(%rip),%rax        # 2032a <g_145>
   138b3:	48 89 85 58 fe ff ff 	mov    %rax,-0x1a8(%rbp)
   138ba:	48 8d 05 67 ca 00 00 	lea    0xca67(%rip),%rax        # 20328 <g_138>
   138c1:	48 89 85 60 fe ff ff 	mov    %rax,-0x1a0(%rbp)
   138c8:	48 8d 05 fd c8 00 00 	lea    0xc8fd(%rip),%rax        # 201cc <g_43>
   138cf:	48 89 85 68 fe ff ff 	mov    %rax,-0x198(%rbp)
   138d6:	48 c7 85 70 fe ff ff 	movq   $0x0,-0x190(%rbp)
   138dd:	00 00 00 00 
   138e1:	48 8d 05 40 ca 00 00 	lea    0xca40(%rip),%rax        # 20328 <g_138>
   138e8:	48 89 85 78 fe ff ff 	mov    %rax,-0x188(%rbp)
   138ef:	48 8d 05 32 ca 00 00 	lea    0xca32(%rip),%rax        # 20328 <g_138>
   138f6:	48 89 85 80 fe ff ff 	mov    %rax,-0x180(%rbp)
   138fd:	48 8d 05 c8 c8 00 00 	lea    0xc8c8(%rip),%rax        # 201cc <g_43>
   13904:	48 89 85 88 fe ff ff 	mov    %rax,-0x178(%rbp)
   1390b:	48 8d 05 18 ca 00 00 	lea    0xca18(%rip),%rax        # 2032a <g_145>
   13912:	48 89 85 90 fe ff ff 	mov    %rax,-0x170(%rbp)
   13919:	48 8d 05 0a ca 00 00 	lea    0xca0a(%rip),%rax        # 2032a <g_145>
   13920:	48 89 85 98 fe ff ff 	mov    %rax,-0x168(%rbp)
   13927:	48 8d 05 9e c8 00 00 	lea    0xc89e(%rip),%rax        # 201cc <g_43>
   1392e:	48 89 85 a0 fe ff ff 	mov    %rax,-0x160(%rbp)
   13935:	48 c7 85 a8 fe ff ff 	movq   $0x0,-0x158(%rbp)
   1393c:	00 00 00 00 
   13940:	48 8d 05 e1 c9 00 00 	lea    0xc9e1(%rip),%rax        # 20328 <g_138>
   13947:	48 89 85 b0 fe ff ff 	mov    %rax,-0x150(%rbp)
   1394e:	48 c7 85 b8 fe ff ff 	movq   $0x0,-0x148(%rbp)
   13955:	00 00 00 00 
   13959:	48 8d 05 6c c8 00 00 	lea    0xc86c(%rip),%rax        # 201cc <g_43>
   13960:	48 89 85 c0 fe ff ff 	mov    %rax,-0x140(%rbp)
   13967:	48 8d 05 bc c9 00 00 	lea    0xc9bc(%rip),%rax        # 2032a <g_145>
   1396e:	48 89 85 c8 fe ff ff 	mov    %rax,-0x138(%rbp)
   13975:	48 8d 05 50 c8 00 00 	lea    0xc850(%rip),%rax        # 201cc <g_43>
   1397c:	48 89 85 58 f4 ff ff 	mov    %rax,-0xba8(%rbp)
   13983:	48 c7 85 70 f6 ff ff 	movq   $0x0,-0x990(%rbp)
   1398a:	00 00 00 00 
   1398e:	48 c7 85 78 f6 ff ff 	movq   $0x0,-0x988(%rbp)
   13995:	00 00 00 00 
   13999:	48 c7 85 80 f6 ff ff 	movq   $0x0,-0x980(%rbp)
   139a0:	00 00 00 00 
   139a4:	48 c7 85 88 f6 ff ff 	movq   $0x0,-0x978(%rbp)
   139ab:	00 00 00 00 
   139af:	48 c7 85 90 f6 ff ff 	movq   $0x0,-0x970(%rbp)
   139b6:	00 00 00 00 
   139ba:	48 c7 85 98 f6 ff ff 	movq   $0x0,-0x968(%rbp)
   139c1:	00 00 00 00 
   139c5:	48 c7 85 a0 f6 ff ff 	movq   $0x0,-0x960(%rbp)
   139cc:	00 00 00 00 
   139d0:	48 8d 05 99 c9 00 00 	lea    0xc999(%rip),%rax        # 20370 <g_597>
   139d7:	48 89 85 60 f4 ff ff 	mov    %rax,-0xba0(%rbp)
   139de:	48 8d 05 8d c9 00 00 	lea    0xc98d(%rip),%rax        # 20372 <g_653>
   139e5:	48 89 85 68 f4 ff ff 	mov    %rax,-0xb98(%rbp)
   139ec:	48 8d 05 5d d4 00 00 	lea    0xd45d(%rip),%rax        # 20e50 <g_323>
   139f3:	48 89 85 48 f3 ff ff 	mov    %rax,-0xcb8(%rbp)
   139fa:	48 8d 85 48 f3 ff ff 	lea    -0xcb8(%rbp),%rax
   13a01:	48 89 85 70 f4 ff ff 	mov    %rax,-0xb90(%rbp)
   13a08:	48 8d 85 08 f3 ff ff 	lea    -0xcf8(%rbp),%rax
   13a0f:	48 89 85 78 f4 ff ff 	mov    %rax,-0xb88(%rbp)
   13a16:	c7 85 90 f5 ff ff fc 	movl   $0xfffffffc,-0xa70(%rbp)
   13a1d:	ff ff ff 
   13a20:	c7 85 94 f5 ff ff fc 	movl   $0xfffffffc,-0xa6c(%rbp)
   13a27:	ff ff ff 
   13a2a:	c7 85 98 f5 ff ff fc 	movl   $0xfffffffc,-0xa68(%rbp)
   13a31:	ff ff ff 
   13a34:	c7 85 9c f5 ff ff fc 	movl   $0xfffffffc,-0xa64(%rbp)
   13a3b:	ff ff ff 
   13a3e:	c7 85 a0 f5 ff ff fc 	movl   $0xfffffffc,-0xa60(%rbp)
   13a45:	ff ff ff 
   13a48:	c7 85 a4 f5 ff ff fc 	movl   $0xfffffffc,-0xa5c(%rbp)
   13a4f:	ff ff ff 
   13a52:	48 b8 68 08 26 73 61 	movabs $0xa8006d6173260868,%rax
   13a59:	6d 00 a8 
   13a5c:	48 89 85 80 f4 ff ff 	mov    %rax,-0xb80(%rbp)
   13a63:	48 b8 d0 cd b2 75 71 	movabs $0xcbe74d7175b2cdd0,%rax
   13a6a:	4d e7 cb 
   13a6d:	48 89 85 88 f4 ff ff 	mov    %rax,-0xb78(%rbp)
   13a74:	c7 85 80 f2 ff ff 00 	movl   $0x0,-0xd80(%rbp)
   13a7b:	00 00 00 
   13a7e:	eb 1a                	jmp    13a9a <func_84+0x12c4>
   13a80:	8b 85 80 f2 ff ff    	mov    -0xd80(%rbp),%eax
   13a86:	48 98                	cltq   
   13a88:	c7 84 85 e0 f5 ff ff 	movl   $0x0,-0xa20(%rbp,%rax,4)
   13a8f:	00 00 00 00 
   13a93:	83 85 80 f2 ff ff 01 	addl   $0x1,-0xd80(%rbp)
   13a9a:	83 bd 80 f2 ff ff 08 	cmpl   $0x8,-0xd80(%rbp)
   13aa1:	7e dd                	jle    13a80 <func_84+0x12aa>
   13aa3:	83 ad 78 f2 ff ff 01 	subl   $0x1,-0xd88(%rbp)
   13aaa:	83 bd 78 f2 ff ff 00 	cmpl   $0x0,-0xd88(%rbp)
   13ab1:	0f 89 02 fa ff ff    	jns    134b9 <func_84+0xce3>
   13ab7:	48 8b 85 38 f4 ff ff 	mov    -0xbc8(%rbp),%rax
   13abe:	66 c7 00 05 00       	movw   $0x5,(%rax)
   13ac3:	48 8b 05 66 d5 00 00 	mov    0xd566(%rip),%rax        # 21030 <g_744>
   13aca:	48 85 c0             	test   %rax,%rax
   13acd:	0f 94 c0             	sete   %al
   13ad0:	0f b6 d8             	movzbl %al,%ebx
   13ad3:	48 8b 85 28 f2 ff ff 	mov    -0xdd8(%rbp),%rax
   13ada:	48 8b 00             	mov    (%rax),%rax
   13add:	8b 00                	mov    (%rax),%eax
   13adf:	89 c6                	mov    %eax,%esi
   13ae1:	bf 51 86 c1 b1       	mov    $0xb1c18651,%edi
   13ae6:	e8 14 2c ff ff       	callq  66ff <safe_div_func_int32_t_s_s>
   13aeb:	83 f8 fe             	cmp    $0xfffffffe,%eax
   13aee:	0f 9c c2             	setl   %dl
   13af1:	48 8b 85 10 f3 ff ff 	mov    -0xcf0(%rbp),%rax
   13af8:	0f b6 d2             	movzbl %dl,%edx
   13afb:	89 10                	mov    %edx,(%rax)
   13afd:	8b 00                	mov    (%rax),%eax
   13aff:	39 c3                	cmp    %eax,%ebx
   13b01:	0f 9e c0             	setle  %al
   13b04:	0f b6 c0             	movzbl %al,%eax
   13b07:	be 05 00 00 00       	mov    $0x5,%esi
   13b0c:	89 c7                	mov    %eax,%edi
   13b0e:	e8 42 29 ff ff       	callq  6455 <safe_div_func_int16_t_s_s>
   13b13:	48 0f bf d0          	movswq %ax,%rdx
   13b17:	48 8b 85 40 f4 ff ff 	mov    -0xbc0(%rbp),%rax
   13b1e:	48 89 10             	mov    %rdx,(%rax)
   13b21:	48 8b 85 40 f4 ff ff 	mov    -0xbc0(%rbp),%rax
   13b28:	48 8b 00             	mov    (%rax),%rax
   13b2b:	41 89 c4             	mov    %eax,%r12d
   13b2e:	8b 05 30 c6 00 00    	mov    0xc630(%rip),%eax        # 20164 <g_7>
   13b34:	0f be d8             	movsbl %al,%ebx
   13b37:	48 8b 85 28 f2 ff ff 	mov    -0xdd8(%rbp),%rax
   13b3e:	48 8b 00             	mov    (%rax),%rax
   13b41:	8b 00                	mov    (%rax),%eax
   13b43:	89 c1                	mov    %eax,%ecx
   13b45:	48 8d 05 ec c7 00 00 	lea    0xc7ec(%rip),%rax        # 20338 <g_159>
   13b4c:	48 89 85 20 f3 ff ff 	mov    %rax,-0xce0(%rbp)
   13b53:	48 8b 85 20 f3 ff ff 	mov    -0xce0(%rbp),%rax
   13b5a:	48 8d 15 d7 c7 00 00 	lea    0xc7d7(%rip),%rdx        # 20338 <g_159>
   13b61:	48 39 d0             	cmp    %rdx,%rax
   13b64:	0f 94 c0             	sete   %al
   13b67:	0f b6 d0             	movzbl %al,%edx
   13b6a:	48 8b 85 48 f4 ff ff 	mov    -0xbb8(%rbp),%rax
   13b71:	89 10                	mov    %edx,(%rax)
   13b73:	48 8d 85 08 f3 ff ff 	lea    -0xcf8(%rbp),%rax
   13b7a:	48 39 85 40 f4 ff ff 	cmp    %rax,-0xbc0(%rbp)
   13b81:	0f 95 c0             	setne  %al
   13b84:	0f b6 c0             	movzbl %al,%eax
   13b87:	89 ce                	mov    %ecx,%esi
   13b89:	89 c7                	mov    %eax,%edi
   13b8b:	e8 95 33 ff ff       	callq  6f25 <safe_div_func_uint32_t_u_u>
   13b90:	0f b6 c0             	movzbl %al,%eax
   13b93:	be ff 00 00 00       	mov    $0xff,%esi
   13b98:	89 c7                	mov    %eax,%edi
   13b9a:	e8 d9 2f ff ff       	callq  6b78 <safe_sub_func_uint8_t_u_u>
   13b9f:	0f be c0             	movsbl %al,%eax
   13ba2:	89 de                	mov    %ebx,%esi
   13ba4:	89 c7                	mov    %eax,%edi
   13ba6:	e8 bf 26 ff ff       	callq  626a <safe_div_func_int8_t_s_s>
   13bab:	0f b7 95 3c f2 ff ff 	movzwl -0xdc4(%rbp),%edx
   13bb2:	31 d0                	xor    %edx,%eax
   13bb4:	44 31 e0             	xor    %r12d,%eax
   13bb7:	88 85 49 f2 ff ff    	mov    %al,-0xdb7(%rbp)
   13bbd:	e9 fc 02 00 00       	jmpq   13ebe <func_84+0x16e8>
   13bc2:	c7 85 00 fc ff ff 01 	movl   $0x1,-0x400(%rbp)
   13bc9:	00 00 00 
   13bcc:	c7 85 04 fc ff ff 01 	movl   $0x1,-0x3fc(%rbp)
   13bd3:	00 00 00 
   13bd6:	c7 85 08 fc ff ff 01 	movl   $0x1,-0x3f8(%rbp)
   13bdd:	00 00 00 
   13be0:	c7 85 0c fc ff ff 01 	movl   $0x1,-0x3f4(%rbp)
   13be7:	00 00 00 
   13bea:	48 8d 85 20 f3 ff ff 	lea    -0xce0(%rbp),%rax
   13bf1:	48 89 85 d8 f3 ff ff 	mov    %rax,-0xc28(%rbp)
   13bf8:	48 8d 05 73 c7 00 00 	lea    0xc773(%rip),%rax        # 20372 <g_653>
   13bff:	48 89 85 e0 f3 ff ff 	mov    %rax,-0xc20(%rbp)
   13c06:	c7 85 90 f2 ff ff fd 	movl   $0xfffffffd,-0xd70(%rbp)
   13c0d:	ff ff ff 
   13c10:	48 c7 85 e8 f3 ff ff 	movq   $0x0,-0xc18(%rbp)
   13c17:	00 00 00 00 
   13c1b:	48 8d 05 4e c7 00 00 	lea    0xc74e(%rip),%rax        # 20370 <g_597>
   13c22:	48 89 85 f0 f3 ff ff 	mov    %rax,-0xc10(%rbp)
   13c29:	48 b8 54 ee 30 e1 5f 	movabs $0x9ac5c65fe130ee54,%rax
   13c30:	c6 c5 9a 
   13c33:	48 89 85 58 f3 ff ff 	mov    %rax,-0xca8(%rbp)
   13c3a:	66 c7 85 52 f2 ff ff 	movw   $0xde02,-0xdae(%rbp)
   13c41:	02 de 
   13c43:	48 c7 85 f8 f3 ff ff 	movq   $0x0,-0xc08(%rbp)
   13c4a:	00 00 00 00 
   13c4e:	48 8d 05 83 d5 00 00 	lea    0xd583(%rip),%rax        # 211d8 <g_792>
   13c55:	48 89 85 00 f4 ff ff 	mov    %rax,-0xc00(%rbp)
   13c5c:	48 c7 85 08 f4 ff ff 	movq   $0x0,-0xbf8(%rbp)
   13c63:	00 00 00 00 
   13c67:	48 8b 85 30 f2 ff ff 	mov    -0xdd0(%rbp),%rax
   13c6e:	41 89 c6             	mov    %eax,%r14d
   13c71:	8b 85 00 fc ff ff    	mov    -0x400(%rbp),%eax
   13c77:	85 c0                	test   %eax,%eax
   13c79:	0f 84 07 01 00 00    	je     13d86 <func_84+0x15b0>
   13c7f:	48 8b 85 30 f2 ff ff 	mov    -0xdd0(%rbp),%rax
   13c86:	0f bf d8             	movswl %ax,%ebx
   13c89:	8b 85 0c fc ff ff    	mov    -0x3f4(%rbp),%eax
   13c8f:	44 0f bf e0          	movswl %ax,%r12d
   13c93:	48 8b 05 d6 d1 00 00 	mov    0xd1d6(%rip),%rax        # 20e70 <g_695>
   13c9a:	48 8b 00             	mov    (%rax),%rax
   13c9d:	0f b7 10             	movzwl (%rax),%edx
   13ca0:	8d 4a 01             	lea    0x1(%rdx),%ecx
   13ca3:	66 89 08             	mov    %cx,(%rax)
   13ca6:	44 0f b7 ea          	movzwl %dx,%r13d
   13caa:	0f b7 95 3c f2 ff ff 	movzwl -0xdc4(%rbp),%edx
   13cb1:	48 8b 85 e0 f3 ff ff 	mov    -0xc20(%rbp),%rax
   13cb8:	66 89 10             	mov    %dx,(%rax)
   13cbb:	48 8b 85 e0 f3 ff ff 	mov    -0xc20(%rbp),%rax
   13cc2:	0f b7 00             	movzwl (%rax),%eax
   13cc5:	98                   	cwtl   
   13cc6:	89 c6                	mov    %eax,%esi
   13cc8:	bf c7 c0 00 00       	mov    $0xc0c7,%edi
   13ccd:	e8 76 31 ff ff       	callq  6e48 <safe_rshift_func_uint16_t_u_s>
   13cd2:	0f b7 c0             	movzwl %ax,%eax
   13cd5:	44 89 ee             	mov    %r13d,%esi
   13cd8:	89 c7                	mov    %eax,%edi
   13cda:	e8 5e 30 ff ff       	callq  6d3d <safe_mul_func_uint16_t_u_u>
   13cdf:	0f b7 c0             	movzwl %ax,%eax
   13ce2:	48 8b 95 30 f2 ff ff 	mov    -0xdd0(%rbp),%rdx
   13ce9:	89 95 90 f2 ff ff    	mov    %edx,-0xd70(%rbp)
   13cef:	39 85 90 f2 ff ff    	cmp    %eax,-0xd70(%rbp)
   13cf5:	0f 94 c0             	sete   %al
   13cf8:	0f b6 c0             	movzbl %al,%eax
   13cfb:	f7 d0                	not    %eax
   13cfd:	98                   	cwtl   
   13cfe:	44 89 e6             	mov    %r12d,%esi
   13d01:	89 c7                	mov    %eax,%edi
   13d03:	e8 4d 27 ff ff       	callq  6455 <safe_div_func_int16_t_s_s>
   13d08:	48 0f bf c0          	movswq %ax,%rax
   13d0c:	48 39 85 e8 f3 ff ff 	cmp    %rax,-0xc18(%rbp)
   13d13:	0f 95 c0             	setne  %al
   13d16:	0f b6 c0             	movzbl %al,%eax
   13d19:	39 85 38 f2 ff ff    	cmp    %eax,-0xdc8(%rbp)
   13d1f:	0f 96 c0             	setbe  %al
   13d22:	0f b6 d0             	movzbl %al,%edx
   13d25:	48 8b 85 f0 f3 ff ff 	mov    -0xc10(%rbp),%rax
   13d2c:	66 89 10             	mov    %dx,(%rax)
   13d2f:	48 8b 85 f0 f3 ff ff 	mov    -0xc10(%rbp),%rax
   13d36:	0f b7 00             	movzwl (%rax),%eax
   13d39:	98                   	cwtl   
   13d3a:	89 de                	mov    %ebx,%esi
   13d3c:	89 c7                	mov    %eax,%edi
   13d3e:	e8 b2 26 ff ff       	callq  63f5 <safe_mul_func_int16_t_s_s>
   13d43:	0f b7 c0             	movzwl %ax,%eax
   13d46:	89 c6                	mov    %eax,%esi
   13d48:	bf 00 00 00 00       	mov    $0x0,%edi
   13d4d:	e8 0a 30 ff ff       	callq  6d5c <safe_mod_func_uint16_t_u_u>
   13d52:	b8 00 00 00 00       	mov    $0x0,%eax
   13d57:	48 98                	cltq   
   13d59:	48 09 85 58 f3 ff ff 	or     %rax,-0xca8(%rbp)
   13d60:	b9 01 00 00 00       	mov    $0x1,%ecx
   13d65:	48 8b 85 10 f3 ff ff 	mov    -0xcf0(%rbp),%rax
   13d6c:	8b 10                	mov    (%rax),%edx
   13d6e:	48 8b 85 10 f3 ff ff 	mov    -0xcf0(%rbp),%rax
   13d75:	21 ca                	and    %ecx,%edx
   13d77:	89 10                	mov    %edx,(%rax)
   13d79:	8b 00                	mov    (%rax),%eax
   13d7b:	85 c0                	test   %eax,%eax
   13d7d:	74 07                	je     13d86 <func_84+0x15b0>
   13d7f:	b8 01 00 00 00       	mov    $0x1,%eax
   13d84:	eb 05                	jmp    13d8b <func_84+0x15b5>
   13d86:	b8 00 00 00 00       	mov    $0x0,%eax
   13d8b:	44 89 f6             	mov    %r14d,%esi
   13d8e:	89 c7                	mov    %eax,%edi
   13d90:	e8 23 31 ff ff       	callq  6eb8 <safe_add_func_uint32_t_u_u>
   13d95:	48 8b 05 bc d0 00 00 	mov    0xd0bc(%rip),%rax        # 20e58 <g_580>
   13d9c:	8b 00                	mov    (%rax),%eax
   13d9e:	89 c2                	mov    %eax,%edx
   13da0:	0f b7 85 3c f2 ff ff 	movzwl -0xdc4(%rbp),%eax
   13da7:	31 d0                	xor    %edx,%eax
   13da9:	0f b6 d0             	movzbl %al,%edx
   13dac:	0f b7 85 3c f2 ff ff 	movzwl -0xdc4(%rbp),%eax
   13db3:	0f b6 c0             	movzbl %al,%eax
   13db6:	89 d6                	mov    %edx,%esi
   13db8:	89 c7                	mov    %eax,%edi
   13dba:	e8 d4 2d ff ff       	callq  6b93 <safe_mul_func_uint8_t_u_u>
   13dbf:	0f b6 c0             	movzbl %al,%eax
   13dc2:	66 89 85 52 f2 ff ff 	mov    %ax,-0xdae(%rbp)
   13dc9:	48 8b 85 30 f2 ff ff 	mov    -0xdd0(%rbp),%rax
   13dd0:	89 c3                	mov    %eax,%ebx
   13dd2:	be 05 00 00 00       	mov    $0x5,%esi
   13dd7:	bf ff ff ff ff       	mov    $0xffffffff,%edi
   13ddc:	e8 8b 25 ff ff       	callq  636c <safe_rshift_func_int8_t_s_u>
   13de1:	48 8b 85 28 f3 ff ff 	mov    -0xcd8(%rbp),%rax
   13de8:	48 85 c0             	test   %rax,%rax
   13deb:	48 83 bd c0 f3 ff ff 	cmpq   $0x0,-0xc40(%rbp)
   13df2:	00 
   13df3:	0f 95 c0             	setne  %al
   13df6:	0f b6 d0             	movzbl %al,%edx
   13df9:	48 8b 0d d8 d3 00 00 	mov    0xd3d8(%rip),%rcx        # 211d8 <g_792>
   13e00:	48 8b 85 00 f4 ff ff 	mov    -0xc00(%rbp),%rax
   13e07:	48 89 08             	mov    %rcx,(%rax)
   13e0a:	48 8b 85 00 f4 ff ff 	mov    -0xc00(%rbp),%rax
   13e11:	48 8b 00             	mov    (%rax),%rax
   13e14:	48 39 85 f8 f3 ff ff 	cmp    %rax,-0xc08(%rbp)
   13e1b:	0f 95 c0             	setne  %al
   13e1e:	0f b6 c0             	movzbl %al,%eax
   13e21:	89 d6                	mov    %edx,%esi
   13e23:	89 c7                	mov    %eax,%edi
   13e25:	e8 94 2f ff ff       	callq  6dbe <safe_lshift_func_uint16_t_u_s>
   13e2a:	48 83 bd 08 f4 ff ff 	cmpq   $0x0,-0xbf8(%rbp)
   13e31:	00 
   13e32:	48 8b 85 c8 f3 ff ff 	mov    -0xc38(%rbp),%rax
   13e39:	48 be 5d 4a af 39 5b 	movabs $0x539f75b39af4a5d,%rsi
   13e40:	f7 39 05 
   13e43:	48 89 c7             	mov    %rax,%rdi
   13e46:	e8 f6 29 ff ff       	callq  6841 <safe_add_func_int64_t_s_s>
   13e4b:	48 85 c0             	test   %rax,%rax
   13e4e:	75 0b                	jne    13e5b <func_84+0x1685>
   13e50:	0f b6 05 cb c4 00 00 	movzbl 0xc4cb(%rip),%eax        # 20322 <g_121+0x1>
   13e57:	84 c0                	test   %al,%al
   13e59:	74 07                	je     13e62 <func_84+0x168c>
   13e5b:	b8 01 00 00 00       	mov    $0x1,%eax
   13e60:	eb 05                	jmp    13e67 <func_84+0x1691>
   13e62:	b8 00 00 00 00       	mov    $0x0,%eax
   13e67:	0f b6 c0             	movzbl %al,%eax
   13e6a:	89 de                	mov    %ebx,%esi
   13e6c:	89 c7                	mov    %eax,%edi
   13e6e:	e8 d9 2d ff ff       	callq  6c4c <safe_lshift_func_uint8_t_u_u>
   13e73:	84 c0                	test   %al,%al
   13e75:	74 1e                	je     13e95 <func_84+0x16bf>
   13e77:	48 8d 85 28 f3 ff ff 	lea    -0xcd8(%rbp),%rax
   13e7e:	48 89 85 18 f4 ff ff 	mov    %rax,-0xbe8(%rbp)
   13e85:	48 8b 85 18 f4 ff ff 	mov    -0xbe8(%rbp),%rax
   13e8c:	48 89 85 50 f3 ff ff 	mov    %rax,-0xcb0(%rbp)
   13e93:	eb 29                	jmp    13ebe <func_84+0x16e8>
   13e95:	48 8d 05 8c c4 00 00 	lea    0xc48c(%rip),%rax        # 20328 <g_138>
   13e9c:	48 89 85 10 f4 ff ff 	mov    %rax,-0xbf0(%rbp)
   13ea3:	8b 05 27 c3 00 00    	mov    0xc327(%rip),%eax        # 201d0 <g_50>
   13ea9:	85 c0                	test   %eax,%eax
   13eab:	74 05                	je     13eb2 <func_84+0x16dc>
   13ead:	e9 b5 fd ff ff       	jmpq   13c67 <func_84+0x1491>
   13eb2:	48 8b 85 10 f4 ff ff 	mov    -0xbf0(%rbp),%rax
   13eb9:	e9 41 0f 00 00       	jmpq   14dff <func_84+0x2629>
   13ebe:	48 8b 85 90 f3 ff ff 	mov    -0xc70(%rbp),%rax
   13ec5:	44 8b 20             	mov    (%rax),%r12d
   13ec8:	48 8b 05 99 cf 00 00 	mov    0xcf99(%rip),%rax        # 20e68 <g_696>
   13ecf:	0f b7 00             	movzwl (%rax),%eax
   13ed2:	0f b7 d8             	movzwl %ax,%ebx
   13ed5:	48 8b 85 30 f5 ff ff 	mov    -0xad0(%rbp),%rax
   13edc:	48 85 c0             	test   %rax,%rax
   13edf:	0f 94 c0             	sete   %al
   13ee2:	0f b6 c0             	movzbl %al,%eax
   13ee5:	be aa 00 00 00       	mov    $0xaa,%esi
   13eea:	89 c7                	mov    %eax,%edi
   13eec:	e8 87 2c ff ff       	callq  6b78 <safe_sub_func_uint8_t_u_u>
   13ef1:	48 8b 05 70 cf 00 00 	mov    0xcf70(%rip),%rax        # 20e68 <g_696>
   13ef8:	0f b7 00             	movzwl (%rax),%eax
   13efb:	0f b7 c0             	movzwl %ax,%eax
   13efe:	89 de                	mov    %ebx,%esi
   13f00:	89 c7                	mov    %eax,%edi
   13f02:	e8 55 2e ff ff       	callq  6d5c <safe_mod_func_uint16_t_u_u>
   13f07:	0f be d0             	movsbl %al,%edx
   13f0a:	8b 85 38 f2 ff ff    	mov    -0xdc8(%rbp),%eax
   13f10:	0f be c0             	movsbl %al,%eax
   13f13:	89 d6                	mov    %edx,%esi
   13f15:	89 c7                	mov    %eax,%edi
   13f17:	e8 f6 22 ff ff       	callq  6212 <safe_mul_func_int8_t_s_s>
   13f1c:	48 8b 85 18 f6 ff ff 	mov    -0x9e8(%rbp),%rax
   13f23:	48 8d 15 c6 cf 00 00 	lea    0xcfc6(%rip),%rdx        # 20ef0 <g_745+0x70>
   13f2a:	48 39 d0             	cmp    %rdx,%rax
   13f2d:	0f 95 c0             	setne  %al
   13f30:	0f b6 d0             	movzbl %al,%edx
   13f33:	48 8b 05 2e cf 00 00 	mov    0xcf2e(%rip),%rax        # 20e68 <g_696>
   13f3a:	0f b7 00             	movzwl (%rax),%eax
   13f3d:	0f b7 c0             	movzwl %ax,%eax
   13f40:	21 d0                	and    %edx,%eax
   13f42:	85 c0                	test   %eax,%eax
   13f44:	75 0b                	jne    13f51 <func_84+0x177b>
   13f46:	48 8b 85 88 f3 ff ff 	mov    -0xc78(%rbp),%rax
   13f4d:	8b 00                	mov    (%rax),%eax
   13f4f:	85 c0                	test   %eax,%eax
   13f51:	be 02 00 00 00       	mov    $0x2,%esi
   13f56:	48 c7 c7 ff ff ff ff 	mov    $0xffffffffffffffff,%rdi
   13f5d:	e8 52 2a ff ff       	callq  69b4 <safe_mod_func_int64_t_s_s>
   13f62:	48 85 c0             	test   %rax,%rax
   13f65:	0f 9f c0             	setg   %al
   13f68:	0f b6 c0             	movzbl %al,%eax
   13f6b:	41 39 c4             	cmp    %eax,%r12d
   13f6e:	7d 17                	jge    13f87 <func_84+0x17b1>
   13f70:	48 8b 85 28 f2 ff ff 	mov    -0xdd8(%rbp),%rax
   13f77:	48 8b 00             	mov    (%rax),%rax
   13f7a:	8b 00                	mov    (%rax),%eax
   13f7c:	85 c0                	test   %eax,%eax
   13f7e:	74 07                	je     13f87 <func_84+0x17b1>
   13f80:	b8 01 00 00 00       	mov    $0x1,%eax
   13f85:	eb 05                	jmp    13f8c <func_84+0x17b6>
   13f87:	b8 00 00 00 00       	mov    $0x0,%eax
   13f8c:	85 c0                	test   %eax,%eax
   13f8e:	0f 9e c0             	setle  %al
   13f91:	0f b6 d0             	movzbl %al,%edx
   13f94:	48 8b 85 88 f3 ff ff 	mov    -0xc78(%rbp),%rax
   13f9b:	89 10                	mov    %edx,(%rax)
   13f9d:	48 c7 85 30 f2 ff ff 	movq   $0x1,-0xdd0(%rbp)
   13fa4:	01 00 00 00 
   13fa8:	e9 3a 0e 00 00       	jmpq   14de7 <func_84+0x2611>
   13fad:	48 8d 05 d8 c3 00 00 	lea    0xc3d8(%rip),%rax        # 2038c <g_824+0xc>
   13fb4:	48 89 85 38 f3 ff ff 	mov    %rax,-0xcc8(%rbp)
   13fbb:	66 c7 85 54 f2 ff ff 	movw   $0x0,-0xdac(%rbp)
   13fc2:	00 00 
   13fc4:	c7 85 64 f2 ff ff 06 	movl   $0x6,-0xd9c(%rbp)
   13fcb:	00 00 00 
   13fce:	48 8d 85 30 f5 ff ff 	lea    -0xad0(%rbp),%rax
   13fd5:	48 89 85 90 f4 ff ff 	mov    %rax,-0xb70(%rbp)
   13fdc:	c7 85 e0 f2 ff ff 0b 	movl   $0x93ae8d0b,-0xd20(%rbp)
   13fe3:	8d ae 93 
   13fe6:	c7 85 68 f2 ff ff ff 	movl   $0xffffffff,-0xd98(%rbp)
   13fed:	ff ff ff 
   13ff0:	c7 85 e4 f2 ff ff 01 	movl   $0x1,-0xd1c(%rbp)
   13ff7:	00 00 00 
   13ffa:	c7 85 e8 f2 ff ff ff 	movl   $0xffffffff,-0xd18(%rbp)
   14001:	ff ff ff 
   14004:	c7 85 ec f2 ff ff 01 	movl   $0x1,-0xd14(%rbp)
   1400b:	00 00 00 
   1400e:	66 c7 85 4e f2 ff ff 	movw   $0xfffe,-0xdb2(%rbp)
   14015:	fe ff 
   14017:	48 8d 85 10 f6 ff ff 	lea    -0x9f0(%rbp),%rax
   1401e:	48 83 c0 10          	add    $0x10,%rax
   14022:	48 89 85 98 f4 ff ff 	mov    %rax,-0xb68(%rbp)
   14029:	48 8d 85 68 f2 ff ff 	lea    -0xd98(%rbp),%rax
   14030:	48 89 85 60 f3 ff ff 	mov    %rax,-0xca0(%rbp)
   14037:	48 c7 85 c0 f6 ff ff 	movq   $0x0,-0x940(%rbp)
   1403e:	00 00 00 00 
   14042:	48 c7 85 c8 f6 ff ff 	movq   $0x0,-0x938(%rbp)
   14049:	00 00 00 00 
   1404d:	48 c7 85 d0 f6 ff ff 	movq   $0x0,-0x930(%rbp)
   14054:	00 00 00 00 
   14058:	48 c7 85 d8 f6 ff ff 	movq   $0x0,-0x928(%rbp)
   1405f:	00 00 00 00 
   14063:	48 c7 85 e0 f6 ff ff 	movq   $0x0,-0x920(%rbp)
   1406a:	00 00 00 00 
   1406e:	48 c7 85 e8 f6 ff ff 	movq   $0x0,-0x918(%rbp)
   14075:	00 00 00 00 
   14079:	48 c7 85 f0 f6 ff ff 	movq   $0x0,-0x910(%rbp)
   14080:	00 00 00 00 
   14084:	48 c7 85 f8 f6 ff ff 	movq   $0x0,-0x908(%rbp)
   1408b:	00 00 00 00 
   1408f:	48 c7 85 00 f7 ff ff 	movq   $0x0,-0x900(%rbp)
   14096:	00 00 00 00 
   1409a:	48 c7 85 08 f7 ff ff 	movq   $0x0,-0x8f8(%rbp)
   140a1:	00 00 00 00 
   140a5:	48 b8 97 05 69 c5 d8 	movabs $0x2d3d2ed8c5690597,%rax
   140ac:	2e 3d 2d 
   140af:	48 89 85 a0 f4 ff ff 	mov    %rax,-0xb60(%rbp)
   140b6:	c7 85 f0 f2 ff ff a5 	movl   $0x3e909a5,-0xd10(%rbp)
   140bd:	09 e9 03 
   140c0:	c7 85 f4 f2 ff ff a7 	movl   $0xc248a0a7,-0xd0c(%rbp)
   140c7:	a0 48 c2 
   140ca:	c7 85 84 f2 ff ff 00 	movl   $0x0,-0xd7c(%rbp)
   140d1:	00 00 00 
   140d4:	eb 19                	jmp    140ef <func_84+0x1919>
   140d6:	8b 85 84 f2 ff ff    	mov    -0xd7c(%rbp),%eax
   140dc:	48 98                	cltq   
   140de:	66 c7 84 45 f2 f4 ff 	movw   $0x61d4,-0xb0e(%rbp,%rax,2)
   140e5:	ff d4 61 
   140e8:	83 85 84 f2 ff ff 01 	addl   $0x1,-0xd7c(%rbp)
   140ef:	83 bd 84 f2 ff ff 00 	cmpl   $0x0,-0xd7c(%rbp)
   140f6:	7e de                	jle    140d6 <func_84+0x1900>
   140f8:	66 c7 05 6f c2 00 00 	movw   $0x0,0xc26f(%rip)        # 20370 <g_597>
   140ff:	00 00 
   14101:	e9 ef 06 00 00       	jmpq   147f5 <func_84+0x201f>
   14106:	48 8d 85 38 f3 ff ff 	lea    -0xcc8(%rbp),%rax
   1410d:	48 89 85 d0 f4 ff ff 	mov    %rax,-0xb30(%rbp)
   14114:	c7 85 fc f2 ff ff a4 	movl   $0x47fafda4,-0xd04(%rbp)
   1411b:	fd fa 47 
   1411e:	48 8d 85 00 fc ff ff 	lea    -0x400(%rbp),%rax
   14125:	48 8d 15 74 82 00 00 	lea    0x8274(%rip),%rdx        # 1c3a0 <g_2872+0x2320>
   1412c:	b9 78 00 00 00       	mov    $0x78,%ecx
   14131:	48 89 c7             	mov    %rax,%rdi
   14134:	48 89 d6             	mov    %rdx,%rsi
   14137:	f3 48 a5             	rep movsq %ds:(%rsi),%es:(%rdi)
   1413a:	48 8d 85 50 f5 ff ff 	lea    -0xab0(%rbp),%rax
   14141:	48 83 c0 04          	add    $0x4,%rax
   14145:	48 89 85 70 f5 ff ff 	mov    %rax,-0xa90(%rbp)
   1414c:	48 8d 85 50 f5 ff ff 	lea    -0xab0(%rbp),%rax
   14153:	48 83 c0 04          	add    $0x4,%rax
   14157:	48 89 85 78 f5 ff ff 	mov    %rax,-0xa88(%rbp)
   1415e:	48 8d 85 50 f5 ff ff 	lea    -0xab0(%rbp),%rax
   14165:	48 83 c0 04          	add    $0x4,%rax
   14169:	48 89 85 80 f5 ff ff 	mov    %rax,-0xa80(%rbp)
   14170:	48 8d 85 50 f5 ff ff 	lea    -0xab0(%rbp),%rax
   14177:	48 83 c0 04          	add    $0x4,%rax
   1417b:	48 89 85 88 f5 ff ff 	mov    %rax,-0xa78(%rbp)
   14182:	48 8b 95 38 f3 ff ff 	mov    -0xcc8(%rbp),%rdx
   14189:	48 8b 85 d0 f4 ff ff 	mov    -0xb30(%rbp),%rax
   14190:	48 89 10             	mov    %rdx,(%rax)
   14193:	48 8b 85 28 f2 ff ff 	mov    -0xdd8(%rbp),%rax
   1419a:	48 8b 00             	mov    (%rax),%rax
   1419d:	8b 10                	mov    (%rax),%edx
   1419f:	48 8b 85 70 f3 ff ff 	mov    -0xc90(%rbp),%rax
   141a6:	89 10                	mov    %edx,(%rax)
   141a8:	66 c7 05 1b c0 00 00 	movw   $0x0,0xc01b(%rip)        # 201cc <g_43>
   141af:	00 00 
   141b1:	e9 1d 06 00 00       	jmpq   147d3 <func_84+0x1ffd>
   141b6:	48 8d 05 d7 c1 00 00 	lea    0xc1d7(%rip),%rax        # 20394 <g_833>
   141bd:	48 89 85 d8 f4 ff ff 	mov    %rax,-0xb28(%rbp)
   141c4:	c7 85 00 f3 ff ff 01 	movl   $0x1,-0xd00(%rbp)
   141cb:	00 00 00 
   141ce:	48 8d 85 20 f3 ff ff 	lea    -0xce0(%rbp),%rax
   141d5:	48 89 85 e0 f4 ff ff 	mov    %rax,-0xb20(%rbp)
   141dc:	c7 85 88 f2 ff ff 00 	movl   $0x0,-0xd78(%rbp)
   141e3:	00 00 00 
   141e6:	eb 1e                	jmp    14206 <func_84+0x1a30>
   141e8:	8b 85 88 f2 ff ff    	mov    -0xd78(%rbp),%eax
   141ee:	48 98                	cltq   
   141f0:	48 8d 95 20 f3 ff ff 	lea    -0xce0(%rbp),%rdx
   141f7:	48 89 94 c5 20 f5 ff 	mov    %rdx,-0xae0(%rbp,%rax,8)
   141fe:	ff 
   141ff:	83 85 88 f2 ff ff 01 	addl   $0x1,-0xd78(%rbp)
   14206:	83 bd 88 f2 ff ff 01 	cmpl   $0x1,-0xd78(%rbp)
   1420d:	7e d9                	jle    141e8 <func_84+0x1a12>
   1420f:	c7 85 88 f2 ff ff 00 	movl   $0x0,-0xd78(%rbp)
   14216:	00 00 00 
   14219:	eb 1a                	jmp    14235 <func_84+0x1a5f>
   1421b:	8b 85 88 f2 ff ff    	mov    -0xd78(%rbp),%eax
   14221:	48 98                	cltq   
   14223:	c7 84 85 f4 f4 ff ff 	movl   $0x36eccf24,-0xb0c(%rbp,%rax,4)
   1422a:	24 cf ec 36 
   1422e:	83 85 88 f2 ff ff 01 	addl   $0x1,-0xd78(%rbp)
   14235:	83 bd 88 f2 ff ff 00 	cmpl   $0x0,-0xd78(%rbp)
   1423c:	7e dd                	jle    1421b <func_84+0x1a45>
   1423e:	48 8d 05 f3 c0 00 00 	lea    0xc0f3(%rip),%rax        # 20338 <g_159>
   14245:	48 89 85 20 f3 ff ff 	mov    %rax,-0xce0(%rbp)
   1424c:	66 c7 05 d5 c0 00 00 	movw   $0x0,0xc0d5(%rip)        # 2032a <g_145>
   14253:	00 00 
   14255:	e9 25 05 00 00       	jmpq   1477f <func_84+0x1fa9>
   1425a:	48 8d 85 c0 f9 ff ff 	lea    -0x640(%rbp),%rax
   14261:	48 8d 15 18 c9 00 00 	lea    0xc918(%rip),%rdx        # 20b80 <g_3772+0x378>
   14268:	b9 28 00 00 00       	mov    $0x28,%ecx
   1426d:	48 89 c7             	mov    %rax,%rdi
   14270:	48 89 d6             	mov    %rdx,%rsi
   14273:	f3 48 a5             	rep movsq %ds:(%rsi),%es:(%rdi)
   14276:	48 8d 05 bf c0 00 00 	lea    0xc0bf(%rip),%rax        # 2033c <g_163>
   1427d:	48 89 85 70 f6 ff ff 	mov    %rax,-0x990(%rbp)
   14284:	48 8d 05 b1 c0 00 00 	lea    0xc0b1(%rip),%rax        # 2033c <g_163>
   1428b:	48 89 85 78 f6 ff ff 	mov    %rax,-0x988(%rbp)
   14292:	48 8d 05 a3 c0 00 00 	lea    0xc0a3(%rip),%rax        # 2033c <g_163>
   14299:	48 89 85 80 f6 ff ff 	mov    %rax,-0x980(%rbp)
   142a0:	48 8d 05 95 c0 00 00 	lea    0xc095(%rip),%rax        # 2033c <g_163>
   142a7:	48 89 85 88 f6 ff ff 	mov    %rax,-0x978(%rbp)
   142ae:	48 8d 05 87 c0 00 00 	lea    0xc087(%rip),%rax        # 2033c <g_163>
   142b5:	48 89 85 90 f6 ff ff 	mov    %rax,-0x970(%rbp)
   142bc:	48 8d 05 79 c0 00 00 	lea    0xc079(%rip),%rax        # 2033c <g_163>
   142c3:	48 89 85 98 f6 ff ff 	mov    %rax,-0x968(%rbp)
   142ca:	48 8d 05 6b c0 00 00 	lea    0xc06b(%rip),%rax        # 2033c <g_163>
   142d1:	48 89 85 a0 f6 ff ff 	mov    %rax,-0x960(%rbp)
   142d8:	48 8d 05 5d c0 00 00 	lea    0xc05d(%rip),%rax        # 2033c <g_163>
   142df:	48 89 85 a8 f6 ff ff 	mov    %rax,-0x958(%rbp)
   142e6:	48 8d 05 4f c0 00 00 	lea    0xc04f(%rip),%rax        # 2033c <g_163>
   142ed:	48 89 85 b0 f6 ff ff 	mov    %rax,-0x950(%rbp)
   142f4:	48 c7 85 e8 f4 ff ff 	movq   $0x0,-0xb18(%rbp)
   142fb:	00 00 00 00 
   142ff:	48 8d 85 10 f5 ff ff 	lea    -0xaf0(%rbp),%rax
   14306:	48 89 85 90 f5 ff ff 	mov    %rax,-0xa70(%rbp)
   1430d:	48 8d 85 10 f5 ff ff 	lea    -0xaf0(%rbp),%rax
   14314:	48 89 85 98 f5 ff ff 	mov    %rax,-0xa68(%rbp)
   1431b:	48 8d 85 10 f5 ff ff 	lea    -0xaf0(%rbp),%rax
   14322:	48 89 85 a0 f5 ff ff 	mov    %rax,-0xa60(%rbp)
   14329:	48 8d 85 10 f5 ff ff 	lea    -0xaf0(%rbp),%rax
   14330:	48 89 85 a8 f5 ff ff 	mov    %rax,-0xa58(%rbp)
   14337:	c6 85 4b f2 ff ff 8f 	movb   $0x8f,-0xdb5(%rbp)
   1433e:	48 8d 05 63 c0 00 00 	lea    0xc063(%rip),%rax        # 203a8 <g_883+0x8>
   14345:	48 89 85 e0 f5 ff ff 	mov    %rax,-0xa20(%rbp)
   1434c:	48 8d 05 55 c0 00 00 	lea    0xc055(%rip),%rax        # 203a8 <g_883+0x8>
   14353:	48 89 85 e8 f5 ff ff 	mov    %rax,-0xa18(%rbp)
   1435a:	48 8d 05 47 c0 00 00 	lea    0xc047(%rip),%rax        # 203a8 <g_883+0x8>
   14361:	48 89 85 f0 f5 ff ff 	mov    %rax,-0xa10(%rbp)
   14368:	48 8d 05 39 c0 00 00 	lea    0xc039(%rip),%rax        # 203a8 <g_883+0x8>
   1436f:	48 89 85 f8 f5 ff ff 	mov    %rax,-0xa08(%rbp)
   14376:	48 8d 05 2b c0 00 00 	lea    0xc02b(%rip),%rax        # 203a8 <g_883+0x8>
   1437d:	48 89 85 00 f6 ff ff 	mov    %rax,-0xa00(%rbp)
   14384:	c7 85 04 f3 ff ff dc 	movl   $0x76ad65dc,-0xcfc(%rbp)
   1438b:	65 ad 76 
   1438e:	8b 9d 38 f2 ff ff    	mov    -0xdc8(%rbp),%ebx
   14394:	44 0f b7 a5 3c f2 ff 	movzwl -0xdc4(%rbp),%r12d
   1439b:	ff 
   1439c:	0f b7 95 54 f2 ff ff 	movzwl -0xdac(%rbp),%edx
   143a3:	48 8b 8d 90 f6 ff ff 	mov    -0x970(%rbp),%rcx
   143aa:	48 8b 85 c0 f3 ff ff 	mov    -0xc40(%rbp),%rax
   143b1:	48 8b 00             	mov    (%rax),%rax
   143b4:	48 39 c1             	cmp    %rax,%rcx
   143b7:	0f 94 c0             	sete   %al
   143ba:	89 c1                	mov    %eax,%ecx
   143bc:	0f b7 05 65 bf 00 00 	movzwl 0xbf65(%rip),%eax        # 20328 <g_138>
   143c3:	21 c8                	and    %ecx,%eax
   143c5:	0f b6 c0             	movzbl %al,%eax
   143c8:	89 d6                	mov    %edx,%esi
   143ca:	89 c7                	mov    %eax,%edi
   143cc:	e8 bc 28 ff ff       	callq  6c8d <safe_rshift_func_uint8_t_u_s>
   143d1:	0f b6 d0             	movzbl %al,%edx
   143d4:	48 8b 05 85 ca 00 00 	mov    0xca85(%rip),%rax        # 20e60 <g_579>
   143db:	48 8b 00             	mov    (%rax),%rax
   143de:	8b 00                	mov    (%rax),%eax
   143e0:	39 c2                	cmp    %eax,%edx
   143e2:	0f 94 c0             	sete   %al
   143e5:	0f b6 c0             	movzbl %al,%eax
   143e8:	be e4 6c 00 00       	mov    $0x6ce4,%esi
   143ed:	89 c7                	mov    %eax,%edi
   143ef:	e8 01 20 ff ff       	callq  63f5 <safe_mul_func_int16_t_s_s>
   143f4:	0f bf d0             	movswl %ax,%edx
   143f7:	48 8b 05 72 ca 00 00 	mov    0xca72(%rip),%rax        # 20e70 <g_695>
   143fe:	48 8b 00             	mov    (%rax),%rax
   14401:	48 85 c0             	test   %rax,%rax
   14404:	0f 95 c0             	setne  %al
   14407:	0f b6 c0             	movzbl %al,%eax
   1440a:	89 d6                	mov    %edx,%esi
   1440c:	89 c7                	mov    %eax,%edi
   1440e:	e8 8e 1e ff ff       	callq  62a1 <safe_lshift_func_int8_t_s_s>
   14413:	48 83 bd d8 f4 ff ff 	cmpq   $0x0,-0xb28(%rbp)
   1441a:	00 
   1441b:	75 09                	jne    14426 <func_84+0x1c50>
   1441d:	83 bd 38 f2 ff ff 00 	cmpl   $0x0,-0xdc8(%rbp)
   14424:	74 07                	je     1442d <func_84+0x1c57>
   14426:	b8 01 00 00 00       	mov    $0x1,%eax
   1442b:	eb 05                	jmp    14432 <func_84+0x1c5c>
   1442d:	b8 00 00 00 00       	mov    $0x0,%eax
   14432:	0f b7 c0             	movzwl %ax,%eax
   14435:	44 89 e6             	mov    %r12d,%esi
   14438:	89 c7                	mov    %eax,%edi
   1443a:	e8 1d 29 ff ff       	callq  6d5c <safe_mod_func_uint16_t_u_u>
   1443f:	0f b7 05 e4 be 00 00 	movzwl 0xbee4(%rip),%eax        # 2032a <g_145>
   14446:	0f b7 c0             	movzwl %ax,%eax
   14449:	0f b7 15 20 bf 00 00 	movzwl 0xbf20(%rip),%edx        # 20370 <g_597>
   14450:	0f bf d2             	movswl %dx,%edx
   14453:	83 c2 01             	add    $0x1,%edx
   14456:	48 63 ca             	movslq %edx,%rcx
   14459:	48 63 d0             	movslq %eax,%rdx
   1445c:	48 89 c8             	mov    %rcx,%rax
   1445f:	48 c1 e0 02          	shl    $0x2,%rax
   14463:	48 01 c8             	add    %rcx,%rax
   14466:	48 01 c0             	add    %rax,%rax
   14469:	48 89 d0             	mov    %rdx,%rax
   1446c:	48 c1 e0 02          	shl    $0x2,%rax
   14470:	48 01 d0             	add    %rdx,%rax
   14473:	48 c1 e0 03          	shl    $0x3,%rax
   14477:	48 8b 95 d0 fa ff ff 	mov    -0x530(%rbp),%rdx
   1447e:	48 8b 05 53 cd 00 00 	mov    0xcd53(%rip),%rax        # 211d8 <g_792>
   14485:	48 8b 00             	mov    (%rax),%rax
   14488:	48 39 c2             	cmp    %rax,%rdx
   1448b:	0f 94 c0             	sete   %al
   1448e:	0f b6 d0             	movzbl %al,%edx
   14491:	0f b7 85 3c f2 ff ff 	movzwl -0xdc4(%rbp),%eax
   14498:	48 39 85 30 f2 ff ff 	cmp    %rax,-0xdd0(%rbp)
   1449f:	0f 94 c0             	sete   %al
   144a2:	0f b6 c0             	movzbl %al,%eax
   144a5:	31 c2                	xor    %eax,%edx
   144a7:	48 8b 05 ba c9 00 00 	mov    0xc9ba(%rip),%rax        # 20e68 <g_696>
   144ae:	66 89 10             	mov    %dx,(%rax)
   144b1:	48 8b 85 28 f2 ff ff 	mov    -0xdd8(%rbp),%rax
   144b8:	48 8b 00             	mov    (%rax),%rax
   144bb:	8b 10                	mov    (%rax),%edx
   144bd:	0f b6 85 47 f2 ff ff 	movzbl -0xdb9(%rbp),%eax
   144c4:	39 c2                	cmp    %eax,%edx
   144c6:	0f 9e c0             	setle  %al
   144c9:	0f b6 c0             	movzbl %al,%eax
   144cc:	89 de                	mov    %ebx,%esi
   144ce:	89 c7                	mov    %eax,%edi
   144d0:	e8 bd 1f ff ff       	callq  6492 <safe_lshift_func_int16_t_s_s>
   144d5:	98                   	cwtl   
   144d6:	39 85 38 f2 ff ff    	cmp    %eax,-0xdc8(%rbp)
   144dc:	0f 92 c0             	setb   %al
   144df:	0f b6 d0             	movzbl %al,%edx
   144e2:	8b 85 64 f2 ff ff    	mov    -0xd9c(%rbp),%eax
   144e8:	09 d0                	or     %edx,%eax
   144ea:	89 85 64 f2 ff ff    	mov    %eax,-0xd9c(%rbp)
   144f0:	0f b7 9d 3c f2 ff ff 	movzwl -0xdc4(%rbp),%ebx
   144f7:	48 8b 85 30 f2 ff ff 	mov    -0xdd0(%rbp),%rax
   144fe:	44 0f b6 e0          	movzbl %al,%r12d
   14502:	0f b7 85 54 f2 ff ff 	movzwl -0xdac(%rbp),%eax
   14509:	0f bf d0             	movswl %ax,%edx
   1450c:	0f b7 05 5d be 00 00 	movzwl 0xbe5d(%rip),%eax        # 20370 <g_597>
   14513:	89 c1                	mov    %eax,%ecx
   14515:	48 8b 85 b0 f3 ff ff 	mov    -0xc50(%rbp),%rax
   1451c:	88 08                	mov    %cl,(%rax)
   1451e:	48 8b 85 b0 f3 ff ff 	mov    -0xc50(%rbp),%rax
   14525:	0f b6 00             	movzbl (%rax),%eax
   14528:	3c 46                	cmp    $0x46,%al
   1452a:	0f 94 c0             	sete   %al
   1452d:	0f b6 c0             	movzbl %al,%eax
   14530:	89 d6                	mov    %edx,%esi
   14532:	89 c7                	mov    %eax,%edi
   14534:	e8 9a 1e ff ff       	callq  63d3 <safe_sub_func_int16_t_s_s>
   14539:	0f b6 05 f8 bd 00 00 	movzbl 0xbdf8(%rip),%eax        # 20338 <g_159>
   14540:	3c 01                	cmp    $0x1,%al
   14542:	0f 96 c0             	setbe  %al
   14545:	0f b6 c0             	movzbl %al,%eax
   14548:	be f3 7c 00 00       	mov    $0x7cf3,%esi
   1454d:	89 c7                	mov    %eax,%edi
   1454f:	e8 08 28 ff ff       	callq  6d5c <safe_mod_func_uint16_t_u_u>
   14554:	0f b7 c0             	movzwl %ax,%eax
   14557:	0b 85 38 f2 ff ff    	or     -0xdc8(%rbp),%eax
   1455d:	89 c2                	mov    %eax,%edx
   1455f:	48 8b 85 30 f2 ff ff 	mov    -0xdd0(%rbp),%rax
   14566:	48 89 c6             	mov    %rax,%rsi
   14569:	48 89 d7             	mov    %rdx,%rdi
   1456c:	e8 da 2a ff ff       	callq  704b <safe_sub_func_uint64_t_u_u>
   14571:	0f b6 05 aa bd 00 00 	movzbl 0xbdaa(%rip),%eax        # 20322 <g_121+0x1>
   14578:	83 c8 1b             	or     $0x1b,%eax
   1457b:	0f b6 c0             	movzbl %al,%eax
   1457e:	44 89 e6             	mov    %r12d,%esi
   14581:	89 c7                	mov    %eax,%edi
   14583:	e8 53 26 ff ff       	callq  6bdb <safe_div_func_uint8_t_u_u>
   14588:	8b 05 ae bc 00 00    	mov    0xbcae(%rip),%eax        # 2023c <g_77+0x5c>
   1458e:	83 c8 01             	or     $0x1,%eax
   14591:	3d 6b 22 ce 6e       	cmp    $0x6ece226b,%eax
   14596:	48 8b 85 28 f3 ff ff 	mov    -0xcd8(%rbp),%rax
   1459d:	0f b7 15 cc bd 00 00 	movzwl 0xbdcc(%rip),%edx        # 20370 <g_597>
   145a4:	66 89 10             	mov    %dx,(%rax)
   145a7:	0f b7 00             	movzwl (%rax),%eax
   145aa:	66 85 c0             	test   %ax,%ax
   145ad:	74 09                	je     145b8 <func_84+0x1de2>
   145af:	0f b6 05 82 bd 00 00 	movzbl 0xbd82(%rip),%eax        # 20338 <g_159>
   145b6:	84 c0                	test   %al,%al
   145b8:	48 83 bd 90 f4 ff ff 	cmpq   $0x0,-0xb70(%rbp)
   145bf:	00 
   145c0:	0f 95 c0             	setne  %al
   145c3:	0f b6 c0             	movzbl %al,%eax
   145c6:	48 89 05 83 bd 00 00 	mov    %rax,0xbd83(%rip)        # 20350 <g_373>
   145cd:	48 8b 05 7c bd 00 00 	mov    0xbd7c(%rip),%rax        # 20350 <g_373>
   145d4:	89 85 64 f2 ff ff    	mov    %eax,-0xd9c(%rbp)
   145da:	8b 95 64 f2 ff ff    	mov    -0xd9c(%rbp),%edx
   145e0:	83 bd 38 f2 ff ff 7c 	cmpl   $0x7c,-0xdc8(%rbp)
   145e7:	0f 94 c0             	sete   %al
   145ea:	0f b6 c0             	movzbl %al,%eax
   145ed:	39 c2                	cmp    %eax,%edx
   145ef:	0f 9d c0             	setge  %al
   145f2:	0f b6 c0             	movzbl %al,%eax
   145f5:	89 de                	mov    %ebx,%esi
   145f7:	89 c7                	mov    %eax,%edi
   145f9:	e8 90 27 ff ff       	callq  6d8e <safe_div_func_uint16_t_u_u>
   145fe:	0f b7 d0             	movzwl %ax,%edx
   14601:	8b 05 5d bb 00 00    	mov    0xbb5d(%rip),%eax        # 20164 <g_7>
   14607:	39 c2                	cmp    %eax,%edx
   14609:	0f 95 c0             	setne  %al
   1460c:	0f b6 c0             	movzbl %al,%eax
   1460f:	39 85 38 f2 ff ff    	cmp    %eax,-0xdc8(%rbp)
   14615:	0f 96 c0             	setbe  %al
   14618:	0f b6 d0             	movzbl %al,%edx
   1461b:	0f b7 85 3c f2 ff ff 	movzwl -0xdc4(%rbp),%eax
   14622:	89 d6                	mov    %edx,%esi
   14624:	89 c7                	mov    %eax,%edi
   14626:	e8 1d 28 ff ff       	callq  6e48 <safe_rshift_func_uint16_t_u_s>
   1462b:	66 85 c0             	test   %ax,%ax
   1462e:	48 8b 85 28 f2 ff ff 	mov    -0xdd8(%rbp),%rax
   14635:	48 8b 10             	mov    (%rax),%rdx
   14638:	48 8b 85 10 f3 ff ff 	mov    -0xcf0(%rbp),%rax
   1463f:	8b 12                	mov    (%rdx),%edx
   14641:	89 10                	mov    %edx,(%rax)
   14643:	0f b7 85 4e f2 ff ff 	movzwl -0xdb2(%rbp),%eax
   1464a:	83 e8 01             	sub    $0x1,%eax
   1464d:	66 89 85 4e f2 ff ff 	mov    %ax,-0xdb2(%rbp)
   14654:	8b 85 00 f3 ff ff    	mov    -0xd00(%rbp),%eax
   1465a:	0f be c0             	movsbl %al,%eax
   1465d:	be 03 00 00 00       	mov    $0x3,%esi
   14662:	89 c7                	mov    %eax,%edi
   14664:	e8 38 1c ff ff       	callq  62a1 <safe_lshift_func_int8_t_s_s>
   14669:	48 8b 95 b0 f3 ff ff 	mov    -0xc50(%rbp),%rdx
   14670:	0f b6 12             	movzbl (%rdx),%edx
   14673:	21 c2                	and    %eax,%edx
   14675:	48 8b 85 b0 f3 ff ff 	mov    -0xc50(%rbp),%rax
   1467c:	88 10                	mov    %dl,(%rax)
   1467e:	48 8b 85 b0 f3 ff ff 	mov    -0xc50(%rbp),%rax
   14685:	0f b6 00             	movzbl (%rax),%eax
   14688:	8b 95 f4 f4 ff ff    	mov    -0xb0c(%rbp),%edx
   1468e:	0f be c0             	movsbl %al,%eax
   14691:	09 d0                	or     %edx,%eax
   14693:	89 85 f4 f4 ff ff    	mov    %eax,-0xb0c(%rbp)
   14699:	8b 85 f4 f4 ff ff    	mov    -0xb0c(%rbp),%eax
   1469f:	0f b6 d8             	movzbl %al,%ebx
   146a2:	8b 05 20 bb 00 00    	mov    0xbb20(%rip),%eax        # 201c8 <g_14>
   146a8:	0f b6 d0             	movzbl %al,%edx
   146ab:	48 8b 85 50 f3 ff ff 	mov    -0xcb0(%rbp),%rax
   146b2:	48 8b 00             	mov    (%rax),%rax
   146b5:	0f b7 30             	movzwl (%rax),%esi
   146b8:	0f b6 05 a7 bc 00 00 	movzbl 0xbca7(%rip),%eax        # 20366 <g_517+0x6>
   146bf:	66 0f be c8          	movsbw %al,%cx
   146c3:	48 8b 85 50 f3 ff ff 	mov    -0xcb0(%rbp),%rax
   146ca:	48 8b 00             	mov    (%rax),%rax
   146cd:	31 f1                	xor    %esi,%ecx
   146cf:	66 89 08             	mov    %cx,(%rax)
   146d2:	0f b7 00             	movzwl (%rax),%eax
   146d5:	0f bf c8             	movswl %ax,%ecx
   146d8:	8b 85 68 f2 ff ff    	mov    -0xd98(%rbp),%eax
   146de:	39 c1                	cmp    %eax,%ecx
   146e0:	0f 95 c0             	setne  %al
   146e3:	0f b6 c0             	movzbl %al,%eax
   146e6:	89 d6                	mov    %edx,%esi
   146e8:	89 c7                	mov    %eax,%edi
   146ea:	e8 89 24 ff ff       	callq  6b78 <safe_sub_func_uint8_t_u_u>
   146ef:	0f b6 d0             	movzbl %al,%edx
   146f2:	48 8b 85 90 f4 ff ff 	mov    -0xb70(%rbp),%rax
   146f9:	48 8b 00             	mov    (%rax),%rax
   146fc:	48 8b 00             	mov    (%rax),%rax
   146ff:	48 85 c0             	test   %rax,%rax
   14702:	0f 95 c0             	setne  %al
   14705:	0f b6 c0             	movzbl %al,%eax
   14708:	89 d6                	mov    %edx,%esi
   1470a:	89 c7                	mov    %eax,%edi
   1470c:	e8 67 24 ff ff       	callq  6b78 <safe_sub_func_uint8_t_u_u>
   14711:	0f b6 c0             	movzbl %al,%eax
   14714:	89 de                	mov    %ebx,%esi
   14716:	89 c7                	mov    %eax,%edi
   14718:	e8 76 24 ff ff       	callq  6b93 <safe_mul_func_uint8_t_u_u>
   1471d:	81 bd 38 f2 ff ff f7 	cmpl   $0xf7,-0xdc8(%rbp)
   14724:	00 00 00 
   14727:	0f 96 c0             	setbe  %al
   1472a:	0f b6 d0             	movzbl %al,%edx
   1472d:	0f b7 05 8c bc 00 00 	movzwl 0xbc8c(%rip),%eax        # 203c0 <g_883+0x20>
   14734:	09 d0                	or     %edx,%eax
   14736:	66 89 05 83 bc 00 00 	mov    %ax,0xbc83(%rip)        # 203c0 <g_883+0x20>
   1473d:	0f b7 05 7c bc 00 00 	movzwl 0xbc7c(%rip),%eax        # 203c0 <g_883+0x20>
   14744:	98                   	cwtl   
   14745:	0b 85 04 f3 ff ff    	or     -0xcfc(%rbp),%eax
   1474b:	89 c0                	mov    %eax,%eax
   1474d:	48 39 85 30 f2 ff ff 	cmp    %rax,-0xdd0(%rbp)
   14754:	0f 95 c0             	setne  %al
   14757:	0f b6 d0             	movzbl %al,%edx
   1475a:	48 8b 85 98 f3 ff ff 	mov    -0xc68(%rbp),%rax
   14761:	8b 00                	mov    (%rax),%eax
   14763:	09 c2                	or     %eax,%edx
   14765:	48 8b 85 98 f3 ff ff 	mov    -0xc68(%rbp),%rax
   1476c:	89 10                	mov    %edx,(%rax)
   1476e:	0f b7 05 b5 bb 00 00 	movzwl 0xbbb5(%rip),%eax        # 2032a <g_145>
   14775:	83 c0 01             	add    $0x1,%eax
   14778:	66 89 05 ab bb 00 00 	mov    %ax,0xbbab(%rip)        # 2032a <g_145>
   1477f:	0f b7 05 a4 bb 00 00 	movzwl 0xbba4(%rip),%eax        # 2032a <g_145>
   14786:	66 83 f8 01          	cmp    $0x1,%ax
   1478a:	0f 86 ca fa ff ff    	jbe    1425a <func_84+0x1a84>
   14790:	48 8b 95 78 f5 ff ff 	mov    -0xa88(%rbp),%rdx
   14797:	48 8b 85 e0 f4 ff ff 	mov    -0xb20(%rbp),%rax
   1479e:	48 89 10             	mov    %rdx,(%rax)
   147a1:	48 8b 85 28 f2 ff ff 	mov    -0xdd8(%rbp),%rax
   147a8:	48 8b 00             	mov    (%rax),%rax
   147ab:	8b 00                	mov    (%rax),%eax
   147ad:	89 85 64 f2 ff ff    	mov    %eax,-0xd9c(%rbp)
   147b3:	8b 95 64 f2 ff ff    	mov    -0xd9c(%rbp),%edx
   147b9:	48 8b 85 70 f3 ff ff 	mov    -0xc90(%rbp),%rax
   147c0:	89 10                	mov    %edx,(%rax)
   147c2:	0f b7 05 03 ba 00 00 	movzwl 0xba03(%rip),%eax        # 201cc <g_43>
   147c9:	83 c0 01             	add    $0x1,%eax
   147cc:	66 89 05 f9 b9 00 00 	mov    %ax,0xb9f9(%rip)        # 201cc <g_43>
   147d3:	0f b7 05 f2 b9 00 00 	movzwl 0xb9f2(%rip),%eax        # 201cc <g_43>
   147da:	66 83 f8 05          	cmp    $0x5,%ax
   147de:	0f 86 d2 f9 ff ff    	jbe    141b6 <func_84+0x19e0>
   147e4:	0f b7 05 85 bb 00 00 	movzwl 0xbb85(%rip),%eax        # 20370 <g_597>
   147eb:	83 c0 01             	add    $0x1,%eax
   147ee:	66 89 05 7b bb 00 00 	mov    %ax,0xbb7b(%rip)        # 20370 <g_597>
   147f5:	0f b7 05 74 bb 00 00 	movzwl 0xbb74(%rip),%eax        # 20370 <g_597>
   147fc:	66 83 f8 01          	cmp    $0x1,%ax
   14800:	0f 8e 00 f9 ff ff    	jle    14106 <func_84+0x1930>
   14806:	c7 85 e0 f2 ff ff 05 	movl   $0x5,-0xd20(%rbp)
   1480d:	00 00 00 
   14810:	83 bd e0 f2 ff ff 00 	cmpl   $0x0,-0xd20(%rbp)
   14817:	0f 88 96 05 00 00    	js     14db3 <func_84+0x25dd>
   1481d:	66 c7 85 56 f2 ff ff 	movw   $0xfffc,-0xdaa(%rbp)
   14824:	fc ff 
   14826:	48 8d 85 10 f6 ff ff 	lea    -0x9f0(%rbp),%rax
   1482d:	48 89 85 a8 f4 ff ff 	mov    %rax,-0xb58(%rbp)
   14834:	66 c7 85 58 f2 ff ff 	movw   $0x1,-0xda8(%rbp)
   1483b:	01 00 
   1483d:	48 8d 85 64 f2 ff ff 	lea    -0xd9c(%rbp),%rax
   14844:	48 89 85 b0 f4 ff ff 	mov    %rax,-0xb50(%rbp)
   1484b:	48 8b 05 0e c6 00 00 	mov    0xc60e(%rip),%rax        # 20e60 <g_579>
   14852:	48 8b 00             	mov    (%rax),%rax
   14855:	8b 00                	mov    (%rax),%eax
   14857:	83 f8 04             	cmp    $0x4,%eax
   1485a:	0f 95 c0             	setne  %al
   1485d:	0f b6 c0             	movzbl %al,%eax
   14860:	f7 d0                	not    %eax
   14862:	0f b7 c0             	movzwl %ax,%eax
   14865:	be 07 00 00 00       	mov    $0x7,%esi
   1486a:	89 c7                	mov    %eax,%edi
   1486c:	e8 d7 25 ff ff       	callq  6e48 <safe_rshift_func_uint16_t_u_s>
   14871:	44 0f b7 f0          	movzwl %ax,%r14d
   14875:	48 8b 85 28 f2 ff ff 	mov    -0xdd8(%rbp),%rax
   1487c:	48 8b 00             	mov    (%rax),%rax
   1487f:	8b 00                	mov    (%rax),%eax
   14881:	89 85 24 f2 ff ff    	mov    %eax,-0xddc(%rbp)
   14887:	48 8b 85 98 f3 ff ff 	mov    -0xc68(%rbp),%rax
   1488e:	8b 00                	mov    (%rax),%eax
   14890:	0f b6 d8             	movzbl %al,%ebx
   14893:	44 8b a5 38 f2 ff ff 	mov    -0xdc8(%rbp),%r12d
   1489a:	48 8b 05 cf c5 00 00 	mov    0xc5cf(%rip),%rax        # 20e70 <g_695>
   148a1:	48 8b 00             	mov    (%rax),%rax
   148a4:	0f b7 00             	movzwl (%rax),%eax
   148a7:	0f b7 c0             	movzwl %ax,%eax
   148aa:	f7 d0                	not    %eax
   148ac:	4c 63 f8             	movslq %eax,%r15
   148af:	0f b7 05 80 bb 00 00 	movzwl 0xbb80(%rip),%eax        # 20436 <g_883+0x96>
   148b6:	44 0f b6 e8          	movzbl %al,%r13d
   148ba:	0f b7 95 4e f2 ff ff 	movzwl -0xdb2(%rbp),%edx
   148c1:	48 8b 85 98 f3 ff ff 	mov    -0xc68(%rbp),%rax
   148c8:	8b 08                	mov    (%rax),%ecx
   148ca:	8b 85 64 f2 ff ff    	mov    -0xd9c(%rbp),%eax
   148d0:	39 c1                	cmp    %eax,%ecx
   148d2:	0f 9f c0             	setg   %al
   148d5:	0f b6 c0             	movzbl %al,%eax
   148d8:	89 d6                	mov    %edx,%esi
   148da:	89 c7                	mov    %eax,%edi
   148dc:	e8 99 25 ff ff       	callq  6e7a <safe_rshift_func_uint16_t_u_u>
   148e1:	0f be c0             	movsbl %al,%eax
   148e4:	be 00 00 00 00       	mov    $0x0,%esi
   148e9:	89 c7                	mov    %eax,%edi
   148eb:	e8 7c 1a ff ff       	callq  636c <safe_rshift_func_int8_t_s_u>
   148f0:	48 0f be c0          	movsbq %al,%rax
   148f4:	48 39 85 30 f2 ff ff 	cmp    %rax,-0xdd0(%rbp)
   148fb:	0f 96 c0             	setbe  %al
   148fe:	0f b6 c0             	movzbl %al,%eax
   14901:	89 c6                	mov    %eax,%esi
   14903:	bf 3d 5e 00 00       	mov    $0x5e3d,%edi
   14908:	e8 12 24 ff ff       	callq  6d1f <safe_sub_func_uint16_t_u_u>
   1490d:	0f b6 c0             	movzbl %al,%eax
   14910:	44 89 ee             	mov    %r13d,%esi
   14913:	89 c7                	mov    %eax,%edi
   14915:	e8 c1 22 ff ff       	callq  6bdb <safe_div_func_uint8_t_u_u>
   1491a:	83 f0 4b             	xor    $0x4b,%eax
   1491d:	0f b6 c0             	movzbl %al,%eax
   14920:	4c 09 f8             	or     %r15,%rax
   14923:	48 89 c2             	mov    %rax,%rdx
   14926:	48 b8 6f bd c9 62 78 	movabs $0xe529e07862c9bd6f,%rax
   1492d:	e0 29 e5 
   14930:	48 39 c2             	cmp    %rax,%rdx
   14933:	0f 97 c0             	seta   %al
   14936:	0f b6 c0             	movzbl %al,%eax
   14939:	44 89 e6             	mov    %r12d,%esi
   1493c:	89 c7                	mov    %eax,%edi
   1493e:	e8 e7 1b ff ff       	callq  652a <safe_rshift_func_int16_t_s_s>
   14943:	0f b6 c0             	movzbl %al,%eax
   14946:	89 de                	mov    %ebx,%esi
   14948:	89 c7                	mov    %eax,%edi
   1494a:	e8 0b 22 ff ff       	callq  6b5a <safe_add_func_uint8_t_u_u>
   1494f:	48 8b 05 02 c5 00 00 	mov    0xc502(%rip),%rax        # 20e58 <g_580>
   14956:	8b 00                	mov    (%rax),%eax
   14958:	3d 30 4c 7b 84       	cmp    $0x847b4c30,%eax
   1495d:	0f 96 c0             	setbe  %al
   14960:	0f b6 c0             	movzbl %al,%eax
   14963:	8b b5 24 f2 ff ff    	mov    -0xddc(%rbp),%esi
   14969:	89 c7                	mov    %eax,%edi
   1496b:	e8 48 25 ff ff       	callq  6eb8 <safe_add_func_uint32_t_u_u>
   14970:	0f be c0             	movsbl %al,%eax
   14973:	be 05 00 00 00       	mov    $0x5,%esi
   14978:	89 c7                	mov    %eax,%edi
   1497a:	e8 22 19 ff ff       	callq  62a1 <safe_lshift_func_int8_t_s_s>
   1497f:	0f be c0             	movsbl %al,%eax
   14982:	89 85 ec f2 ff ff    	mov    %eax,-0xd14(%rbp)
   14988:	ba 01 00 00 00       	mov    $0x1,%edx
   1498d:	0f b7 85 56 f2 ff ff 	movzwl -0xdaa(%rbp),%eax
   14994:	0f be c0             	movsbl %al,%eax
   14997:	89 d6                	mov    %edx,%esi
   14999:	89 c7                	mov    %eax,%edi
   1499b:	e8 01 19 ff ff       	callq  62a1 <safe_lshift_func_int8_t_s_s>
   149a0:	0f be c0             	movsbl %al,%eax
   149a3:	41 39 c6             	cmp    %eax,%r14d
   149a6:	74 0d                	je     149b5 <func_84+0x21df>
   149a8:	48 8b 05 b9 c4 00 00 	mov    0xc4b9(%rip),%rax        # 20e68 <g_696>
   149af:	0f b7 00             	movzwl (%rax),%eax
   149b2:	66 85 c0             	test   %ax,%ax
   149b5:	b8 04 00 00 00       	mov    $0x4,%eax
   149ba:	31 85 e8 f2 ff ff    	xor    %eax,-0xd18(%rbp)
   149c0:	83 bd e8 f2 ff ff 00 	cmpl   $0x0,-0xd18(%rbp)
   149c7:	0f 84 f5 00 00 00    	je     14ac2 <func_84+0x22ec>
   149cd:	c6 85 4a f2 ff ff f9 	movb   $0xf9,-0xdb6(%rbp)
   149d4:	c7 85 f8 f2 ff ff d8 	movl   $0x80bb43d8,-0xd08(%rbp)
   149db:	43 bb 80 
   149de:	48 8b 85 30 f2 ff ff 	mov    -0xdd0(%rbp),%rax
   149e5:	0f b7 d8             	movzwl %ax,%ebx
   149e8:	8b 85 64 f2 ff ff    	mov    -0xd9c(%rbp),%eax
   149ee:	41 89 c4             	mov    %eax,%r12d
   149f1:	8b 85 64 f2 ff ff    	mov    -0xd9c(%rbp),%eax
   149f7:	85 c0                	test   %eax,%eax
   149f9:	74 5d                	je     14a58 <func_84+0x2282>
   149fb:	48 8b 85 98 f4 ff ff 	mov    -0xb68(%rbp),%rax
   14a02:	48 89 85 a8 f4 ff ff 	mov    %rax,-0xb58(%rbp)
   14a09:	48 8d 05 c8 c7 00 00 	lea    0xc7c8(%rip),%rax        # 211d8 <g_792>
   14a10:	48 39 85 a8 f4 ff ff 	cmp    %rax,-0xb58(%rbp)
   14a17:	be 02 00 00 00       	mov    $0x2,%esi
   14a1c:	bf 01 00 00 00       	mov    $0x1,%edi
   14a21:	e8 d1 1f ff ff       	callq  69f7 <safe_div_func_int64_t_s_s>
   14a26:	be b3 a6 70 1a       	mov    $0x1a70a6b3,%esi
   14a2b:	bf 01 00 00 00       	mov    $0x1,%edi
   14a30:	e8 d0 1b ff ff       	callq  6605 <safe_sub_func_int32_t_s_s>
   14a35:	39 85 38 f2 ff ff    	cmp    %eax,-0xdc8(%rbp)
   14a3b:	0f 97 c0             	seta   %al
   14a3e:	0f b6 d0             	movzbl %al,%edx
   14a41:	48 8b 85 28 f2 ff ff 	mov    -0xdd8(%rbp),%rax
   14a48:	48 8b 00             	mov    (%rax),%rax
   14a4b:	8b 00                	mov    (%rax),%eax
   14a4d:	39 c2                	cmp    %eax,%edx
   14a4f:	74 07                	je     14a58 <func_84+0x2282>
   14a51:	b8 01 00 00 00       	mov    $0x1,%eax
   14a56:	eb 05                	jmp    14a5d <func_84+0x2287>
   14a58:	b8 00 00 00 00       	mov    $0x0,%eax
   14a5d:	0f b7 d0             	movzwl %ax,%edx
   14a60:	80 bd 4a f2 ff ff 00 	cmpb   $0x0,-0xdb6(%rbp)
   14a67:	0f 9f c0             	setg   %al
   14a6a:	0f b6 c0             	movzbl %al,%eax
   14a6d:	89 d6                	mov    %edx,%esi
   14a6f:	89 c7                	mov    %eax,%edi
   14a71:	e8 c7 22 ff ff       	callq  6d3d <safe_mul_func_uint16_t_u_u>
   14a76:	0f b7 c0             	movzwl %ax,%eax
   14a79:	be 07 00 00 00       	mov    $0x7,%esi
   14a7e:	89 c7                	mov    %eax,%edi
   14a80:	e8 81 23 ff ff       	callq  6e06 <safe_lshift_func_uint16_t_u_u>
   14a85:	0f be c0             	movsbl %al,%eax
   14a88:	be a0 ff ff ff       	mov    $0xffffffa0,%esi
   14a8d:	89 c7                	mov    %eax,%edi
   14a8f:	e8 40 17 ff ff       	callq  61d4 <safe_add_func_int8_t_s_s>
   14a94:	0f be c0             	movsbl %al,%eax
   14a97:	44 89 e6             	mov    %r12d,%esi
   14a9a:	89 c7                	mov    %eax,%edi
   14a9c:	e8 c2 1a ff ff       	callq  6563 <safe_rshift_func_int16_t_s_u>
   14aa1:	0f b7 c0             	movzwl %ax,%eax
   14aa4:	89 de                	mov    %ebx,%esi
   14aa6:	89 c7                	mov    %eax,%edi
   14aa8:	e8 52 22 ff ff       	callq  6cff <safe_add_func_uint16_t_u_u>
   14aad:	0f b7 c0             	movzwl %ax,%eax
   14ab0:	09 85 f8 f2 ff ff    	or     %eax,-0xd08(%rbp)
   14ab6:	c6 85 46 f2 ff ff 01 	movb   $0x1,-0xdba(%rbp)
   14abd:	e9 dc 02 00 00       	jmpq   14d9e <func_84+0x25c8>
   14ac2:	48 8d 05 87 c3 00 00 	lea    0xc387(%rip),%rax        # 20e50 <g_323>
   14ac9:	48 89 85 40 f3 ff ff 	mov    %rax,-0xcc0(%rbp)
   14ad0:	48 8d 85 40 f3 ff ff 	lea    -0xcc0(%rbp),%rax
   14ad7:	48 89 85 48 f3 ff ff 	mov    %rax,-0xcb8(%rbp)
   14ade:	48 8d 85 48 f3 ff ff 	lea    -0xcb8(%rbp),%rax
   14ae5:	48 89 85 68 f3 ff ff 	mov    %rax,-0xc98(%rbp)
   14aec:	48 c7 85 b8 f4 ff ff 	movq   $0x0,-0xb48(%rbp)
   14af3:	00 00 00 00 
   14af7:	c7 05 b7 dd 00 00 00 	movl   $0x0,0xddb7(%rip)        # 228b8 <g_165>
   14afe:	00 00 00 
   14b01:	e9 30 02 00 00       	jmpq   14d36 <func_84+0x2560>
   14b06:	66 c7 85 5a f2 ff ff 	movw   $0x797e,-0xda6(%rbp)
   14b0d:	7e 79 
   14b0f:	48 8d 85 60 f2 ff ff 	lea    -0xda0(%rbp),%rax
   14b16:	48 89 85 c0 f4 ff ff 	mov    %rax,-0xb40(%rbp)
   14b1d:	48 8d 05 c4 dd 00 00 	lea    0xddc4(%rip),%rax        # 228e8 <g_795+0x8>
   14b24:	48 89 85 c8 f4 ff ff 	mov    %rax,-0xb38(%rbp)
   14b2b:	c7 85 5c f2 ff ff 01 	movl   $0x1,-0xda4(%rbp)
   14b32:	00 00 00 
   14b35:	eb 3d                	jmp    14b74 <func_84+0x239e>
   14b37:	48 8b 85 28 f2 ff ff 	mov    -0xdd8(%rbp),%rax
   14b3e:	48 8b 00             	mov    (%rax),%rax
   14b41:	48 89 85 60 f3 ff ff 	mov    %rax,-0xca0(%rbp)
   14b48:	48 8b 85 20 f3 ff ff 	mov    -0xce0(%rbp),%rax
   14b4f:	8b 15 e3 b7 00 00    	mov    0xb7e3(%rip),%edx        # 20338 <g_159>
   14b55:	89 10                	mov    %edx,(%rax)
   14b57:	48 8b 85 28 f2 ff ff 	mov    -0xdd8(%rbp),%rax
   14b5e:	48 8b 00             	mov    (%rax),%rax
   14b61:	8b 00                	mov    (%rax),%eax
   14b63:	85 c0                	test   %eax,%eax
   14b65:	8b 85 5c f2 ff ff    	mov    -0xda4(%rbp),%eax
   14b6b:	83 c0 01             	add    $0x1,%eax
   14b6e:	89 85 5c f2 ff ff    	mov    %eax,-0xda4(%rbp)
   14b74:	8b 85 5c f2 ff ff    	mov    -0xda4(%rbp),%eax
   14b7a:	83 f8 05             	cmp    $0x5,%eax
   14b7d:	7e b8                	jle    14b37 <func_84+0x2361>
   14b7f:	44 0f bf a5 5a f2 ff 	movswl -0xda6(%rbp),%r12d
   14b86:	ff 
   14b87:	0f b7 05 e4 b7 00 00 	movzwl 0xb7e4(%rip),%eax        # 20372 <g_653>
   14b8e:	0f bf d0             	movswl %ax,%edx
   14b91:	48 8b 85 b0 f3 ff ff 	mov    -0xc50(%rbp),%rax
   14b98:	0f b6 00             	movzbl (%rax),%eax
   14b9b:	83 e0 f8             	and    $0xfffffff8,%eax
   14b9e:	89 c1                	mov    %eax,%ecx
   14ba0:	48 8b 85 b0 f3 ff ff 	mov    -0xc50(%rbp),%rax
   14ba7:	88 08                	mov    %cl,(%rax)
   14ba9:	48 8b 85 b0 f3 ff ff 	mov    -0xc50(%rbp),%rax
   14bb0:	0f b6 00             	movzbl (%rax),%eax
   14bb3:	0f be c0             	movsbl %al,%eax
   14bb6:	89 d6                	mov    %edx,%esi
   14bb8:	89 c7                	mov    %eax,%edi
   14bba:	e8 76 17 ff ff       	callq  6335 <safe_rshift_func_int8_t_s_s>
   14bbf:	44 0f be e8          	movsbl %al,%r13d
   14bc3:	0f b7 85 50 f2 ff ff 	movzwl -0xdb0(%rbp),%eax
   14bca:	0f b6 d8             	movzbl %al,%ebx
   14bcd:	0f b7 05 56 b7 00 00 	movzwl 0xb756(%rip),%eax        # 2032a <g_145>
   14bd4:	0f b7 d0             	movzwl %ax,%edx
   14bd7:	66 83 bd 58 f2 ff ff 	cmpw   $0x1,-0xda8(%rbp)
   14bde:	01 
   14bdf:	0f 97 c0             	seta   %al
   14be2:	0f b6 c0             	movzbl %al,%eax
   14be5:	48 89 d6             	mov    %rdx,%rsi
   14be8:	48 89 c7             	mov    %rax,%rdi
   14beb:	e8 3e 24 ff ff       	callq  702e <safe_add_func_uint64_t_u_u>
   14bf0:	0f b6 d0             	movzbl %al,%edx
   14bf3:	48 8b 05 f6 c5 00 00 	mov    0xc5f6(%rip),%rax        # 211f0 <g_939>
   14bfa:	48 89 85 d0 f3 ff ff 	mov    %rax,-0xc30(%rbp)
   14c01:	48 8b 85 d0 f3 ff ff 	mov    -0xc30(%rbp),%rax
   14c08:	48 3b 85 68 f3 ff ff 	cmp    -0xc98(%rbp),%rax
   14c0f:	0f 94 c0             	sete   %al
   14c12:	0f b6 c0             	movzbl %al,%eax
   14c15:	0b 85 38 f2 ff ff    	or     -0xdc8(%rbp),%eax
   14c1b:	89 c1                	mov    %eax,%ecx
   14c1d:	48 8b 85 60 f3 ff ff 	mov    -0xca0(%rbp),%rax
   14c24:	8b 00                	mov    (%rax),%eax
   14c26:	39 c1                	cmp    %eax,%ecx
   14c28:	0f 94 c0             	sete   %al
   14c2b:	88 05 07 b7 00 00    	mov    %al,0xb707(%rip)        # 20338 <g_159>
   14c31:	0f b6 05 00 b7 00 00 	movzbl 0xb700(%rip),%eax        # 20338 <g_159>
   14c38:	0f b6 c0             	movzbl %al,%eax
   14c3b:	89 d6                	mov    %edx,%esi
   14c3d:	89 c7                	mov    %eax,%edi
   14c3f:	e8 4f 1f ff ff       	callq  6b93 <safe_mul_func_uint8_t_u_u>
   14c44:	84 c0                	test   %al,%al
   14c46:	74 07                	je     14c4f <func_84+0x2479>
   14c48:	b8 01 00 00 00       	mov    $0x1,%eax
   14c4d:	eb 05                	jmp    14c54 <func_84+0x247e>
   14c4f:	b8 00 00 00 00       	mov    $0x0,%eax
   14c54:	0f b6 c0             	movzbl %al,%eax
   14c57:	89 de                	mov    %ebx,%esi
   14c59:	89 c7                	mov    %eax,%edi
   14c5b:	e8 33 1f ff ff       	callq  6b93 <safe_mul_func_uint8_t_u_u>
   14c60:	ba 00 00 00 00       	mov    $0x0,%edx
   14c65:	48 8b 85 c0 f4 ff ff 	mov    -0xb40(%rbp),%rax
   14c6c:	8b 00                	mov    (%rax),%eax
   14c6e:	09 c2                	or     %eax,%edx
   14c70:	48 8b 85 c0 f4 ff ff 	mov    -0xb40(%rbp),%rax
   14c77:	89 10                	mov    %edx,(%rax)
   14c79:	48 8b 05 68 c5 00 00 	mov    0xc568(%rip),%rax        # 211e8 <g_940>
   14c80:	48 8b 10             	mov    (%rax),%rdx
   14c83:	48 8d 85 28 f2 ff ff 	lea    -0xdd8(%rbp),%rax
   14c8a:	48 39 c2             	cmp    %rax,%rdx
   14c8d:	0f 95 c0             	setne  %al
   14c90:	0f b6 c0             	movzbl %al,%eax
   14c93:	48 89 85 a0 f4 ff ff 	mov    %rax,-0xb60(%rbp)
   14c9a:	48 8b 85 a0 f4 ff ff 	mov    -0xb60(%rbp),%rax
   14ca1:	89 05 c1 b7 00 00    	mov    %eax,0xb7c1(%rip)        # 20468 <g_954>
   14ca7:	8b 05 bb b7 00 00    	mov    0xb7bb(%rip),%eax        # 20468 <g_954>
   14cad:	0f b6 c0             	movzbl %al,%eax
   14cb0:	be fc 00 00 00       	mov    $0xfc,%esi
   14cb5:	89 c7                	mov    %eax,%edi
   14cb7:	e8 bc 1e ff ff       	callq  6b78 <safe_sub_func_uint8_t_u_u>
   14cbc:	89 c2                	mov    %eax,%edx
   14cbe:	48 8b 05 a3 c1 00 00 	mov    0xc1a3(%rip),%rax        # 20e68 <g_696>
   14cc5:	0f b6 d2             	movzbl %dl,%edx
   14cc8:	66 89 10             	mov    %dx,(%rax)
   14ccb:	0f b7 00             	movzwl (%rax),%eax
   14cce:	0f b7 c0             	movzwl %ax,%eax
   14cd1:	44 21 e8             	and    %r13d,%eax
   14cd4:	41 39 c4             	cmp    %eax,%r12d
   14cd7:	0f 94 c0             	sete   %al
   14cda:	0f b6 d0             	movzbl %al,%edx
   14cdd:	48 8b 85 98 f3 ff ff 	mov    -0xc68(%rbp),%rax
   14ce4:	8b 00                	mov    (%rax),%eax
   14ce6:	31 c2                	xor    %eax,%edx
   14ce8:	48 8b 85 98 f3 ff ff 	mov    -0xc68(%rbp),%rax
   14cef:	89 10                	mov    %edx,(%rax)
   14cf1:	c6 85 45 f2 ff ff 00 	movb   $0x0,-0xdbb(%rbp)
   14cf8:	90                   	nop
   14cf9:	0f b6 85 45 f2 ff ff 	movzbl -0xdbb(%rbp),%eax
   14d00:	3c 05                	cmp    $0x5,%al
   14d02:	77 0f                	ja     14d13 <func_84+0x253d>
   14d04:	48 8b 05 65 c1 00 00 	mov    0xc165(%rip),%rax        # 20e70 <g_695>
   14d0b:	48 8b 00             	mov    (%rax),%rax
   14d0e:	e9 ec 00 00 00       	jmpq   14dff <func_84+0x2629>
   14d13:	48 8b 85 28 f2 ff ff 	mov    -0xdd8(%rbp),%rax
   14d1a:	48 8b 10             	mov    (%rax),%rdx
   14d1d:	48 8b 85 c8 f4 ff ff 	mov    -0xb38(%rbp),%rax
   14d24:	48 89 10             	mov    %rdx,(%rax)
   14d27:	8b 05 8b db 00 00    	mov    0xdb8b(%rip),%eax        # 228b8 <g_165>
   14d2d:	83 c0 01             	add    $0x1,%eax
   14d30:	89 05 82 db 00 00    	mov    %eax,0xdb82(%rip)        # 228b8 <g_165>
   14d36:	8b 05 7c db 00 00    	mov    0xdb7c(%rip),%eax        # 228b8 <g_165>
   14d3c:	83 f8 05             	cmp    $0x5,%eax
   14d3f:	0f 86 c1 fd ff ff    	jbe    14b06 <func_84+0x2330>
   14d45:	48 8b 05 24 c1 00 00 	mov    0xc124(%rip),%rax        # 20e70 <g_695>
   14d4c:	48 8b 00             	mov    (%rax),%rax
   14d4f:	e9 ab 00 00 00       	jmpq   14dff <func_84+0x2629>
   14d54:	48 8b 85 88 f3 ff ff 	mov    -0xc78(%rbp),%rax
   14d5b:	8b 10                	mov    (%rax),%edx
   14d5d:	48 8b 85 28 f2 ff ff 	mov    -0xdd8(%rbp),%rax
   14d64:	48 8b 00             	mov    (%rax),%rax
   14d67:	8b 00                	mov    (%rax),%eax
   14d69:	31 c2                	xor    %eax,%edx
   14d6b:	48 8b 85 88 f3 ff ff 	mov    -0xc78(%rbp),%rax
   14d72:	89 10                	mov    %edx,(%rax)
   14d74:	48 8b 05 75 c4 00 00 	mov    0xc475(%rip),%rax        # 211f0 <g_939>
   14d7b:	48 8b 00             	mov    (%rax),%rax
   14d7e:	48 8b 00             	mov    (%rax),%rax
   14d81:	48 8b 00             	mov    (%rax),%rax
   14d84:	48 8b 95 b0 f4 ff ff 	mov    -0xb50(%rbp),%rdx
   14d8b:	48 89 10             	mov    %rdx,(%rax)
   14d8e:	0f b6 85 46 f2 ff ff 	movzbl -0xdba(%rbp),%eax
   14d95:	83 c0 01             	add    $0x1,%eax
   14d98:	88 85 46 f2 ff ff    	mov    %al,-0xdba(%rbp)
   14d9e:	80 bd 46 f2 ff ff 05 	cmpb   $0x5,-0xdba(%rbp)
   14da5:	7e ad                	jle    14d54 <func_84+0x257e>
   14da7:	48 8b 05 c2 c0 00 00 	mov    0xc0c2(%rip),%rax        # 20e70 <g_695>
   14dae:	48 8b 00             	mov    (%rax),%rax
   14db1:	eb 4c                	jmp    14dff <func_84+0x2629>
   14db3:	48 8b 05 96 c0 00 00 	mov    0xc096(%rip),%rax        # 20e50 <g_323>
   14dba:	48 8b 95 50 f6 ff ff 	mov    -0x9b0(%rbp),%rdx
   14dc1:	48 89 10             	mov    %rdx,(%rax)
   14dc4:	48 8b 00             	mov    (%rax),%rax
   14dc7:	48 89 85 60 f3 ff ff 	mov    %rax,-0xca0(%rbp)
   14dce:	0f b7 85 f2 f4 ff ff 	movzwl -0xb0e(%rbp),%eax
   14dd5:	83 e8 01             	sub    $0x1,%eax
   14dd8:	66 89 85 f2 f4 ff ff 	mov    %ax,-0xb0e(%rbp)
   14ddf:	48 83 85 30 f2 ff ff 	addq   $0x1,-0xdd0(%rbp)
   14de6:	01 
   14de7:	48 83 bd 30 f2 ff ff 	cmpq   $0x5,-0xdd0(%rbp)
   14dee:	05 
   14def:	0f 86 b8 f1 ff ff    	jbe    13fad <func_84+0x17d7>
   14df5:	48 8b 05 74 c0 00 00 	mov    0xc074(%rip),%rax        # 20e70 <g_695>
   14dfc:	48 8b 00             	mov    (%rax),%rax
   14dff:	48 8b 5d c8          	mov    -0x38(%rbp),%rbx
   14e03:	64 48 33 1c 25 28 00 	xor    %fs:0x28,%rbx
   14e0a:	00 00 
   14e0c:	74 05                	je     14e13 <func_84+0x263d>
   14e0e:	e8 5d 12 ff ff       	callq  6070 <__stack_chk_fail@plt>
   14e13:	48 81 c4 b8 0d 00 00 	add    $0xdb8,%rsp
   14e1a:	5b                   	pop    %rbx
   14e1b:	41 5c                	pop    %r12
   14e1d:	41 5d                	pop    %r13
   14e1f:	41 5e                	pop    %r14
   14e21:	41 5f                	pop    %r15
   14e23:	5d                   	pop    %rbp
   14e24:	c3                   	retq   

0000000000014e25 <func_111>:
   14e25:	f3 0f 1e fa          	endbr64 
   14e29:	55                   	push   %rbp
   14e2a:	48 89 e5             	mov    %rsp,%rbp
   14e2d:	41 57                	push   %r15
   14e2f:	41 56                	push   %r14
   14e31:	41 55                	push   %r13
   14e33:	41 54                	push   %r12
   14e35:	53                   	push   %rbx
   14e36:	48 81 ec 00 10 00 00 	sub    $0x1000,%rsp
   14e3d:	48 83 0c 24 00       	orq    $0x0,(%rsp)
   14e42:	48 81 ec 38 04 00 00 	sub    $0x438,%rsp
   14e49:	89 f8                	mov    %edi,%eax
   14e4b:	66 89 85 cc eb ff ff 	mov    %ax,-0x1434(%rbp)
   14e52:	64 48 8b 04 25 28 00 	mov    %fs:0x28,%rax
   14e59:	00 00 
   14e5b:	48 89 45 c8          	mov    %rax,-0x38(%rbp)
   14e5f:	31 c0                	xor    %eax,%eax
   14e61:	66 c7 85 e0 eb ff ff 	movw   $0x0,-0x1420(%rbp)
   14e68:	00 00 
   14e6a:	48 8d 05 b1 b4 00 00 	lea    0xb4b1(%rip),%rax        # 20322 <g_121+0x1>
   14e71:	48 89 85 30 ed ff ff 	mov    %rax,-0x12d0(%rbp)
   14e78:	c7 85 f4 eb ff ff 01 	movl   $0x1,-0x140c(%rbp)
   14e7f:	00 00 00 
   14e82:	c7 85 f8 eb ff ff 76 	movl   $0xd30e9876,-0x1408(%rbp)
   14e89:	98 0e d3 
   14e8c:	c7 85 fc eb ff ff 5b 	movl   $0x611ede5b,-0x1404(%rbp)
   14e93:	de 1e 61 
   14e96:	c7 85 00 ec ff ff 3a 	movl   $0xc4e4f83a,-0x1400(%rbp)
   14e9d:	f8 e4 c4 
   14ea0:	c7 85 20 ec ff ff ff 	movl   $0xffffffff,-0x13e0(%rbp)
   14ea7:	ff ff ff 
   14eaa:	c7 85 1c ec ff ff 00 	movl   $0x0,-0x13e4(%rbp)
   14eb1:	00 00 00 
   14eb4:	c7 85 58 ec ff ff 07 	movl   $0x7,-0x13a8(%rbp)
   14ebb:	00 00 00 
   14ebe:	c7 85 04 ec ff ff 01 	movl   $0x1,-0x13fc(%rbp)
   14ec5:	00 00 00 
   14ec8:	48 8d 85 b0 f5 ff ff 	lea    -0xa50(%rbp),%rax
   14ecf:	48 8d 15 8a 78 00 00 	lea    0x788a(%rip),%rdx        # 1c760 <g_2872+0x26e0>
   14ed6:	b9 69 00 00 00       	mov    $0x69,%ecx
   14edb:	48 89 c7             	mov    %rax,%rdi
   14ede:	48 89 d6             	mov    %rdx,%rsi
   14ee1:	f3 48 a5             	rep movsq %ds:(%rsi),%es:(%rdi)
   14ee4:	c7 85 c0 f0 ff ff ff 	movl   $0xffffffff,-0xf40(%rbp)
   14eeb:	ff ff ff 
   14eee:	c7 85 c4 f0 ff ff ff 	movl   $0xffffffff,-0xf3c(%rbp)
   14ef5:	ff ff ff 
   14ef8:	c7 85 c8 f0 ff ff 1c 	movl   $0xd675ef1c,-0xf38(%rbp)
   14eff:	ef 75 d6 
   14f02:	c7 85 cc f0 ff ff 33 	movl   $0xbcbdc333,-0xf34(%rbp)
   14f09:	c3 bd bc 
   14f0c:	c7 85 d0 f0 ff ff bb 	movl   $0xbab814bb,-0xf30(%rbp)
   14f13:	14 b8 ba 
   14f16:	c7 85 d4 f0 ff ff 01 	movl   $0x1,-0xf2c(%rbp)
   14f1d:	00 00 00 
   14f20:	c7 85 d8 f0 ff ff d6 	movl   $0x1ad7ad6,-0xf28(%rbp)
   14f27:	7a ad 01 
   14f2a:	c7 85 dc f0 ff ff c3 	movl   $0x605e10c3,-0xf24(%rbp)
   14f31:	10 5e 60 
   14f34:	c7 85 e0 f0 ff ff 02 	movl   $0x2,-0xf20(%rbp)
   14f3b:	00 00 00 
   14f3e:	c7 85 e4 f0 ff ff fe 	movl   $0xfffffffe,-0xf1c(%rbp)
   14f45:	ff ff ff 
   14f48:	c7 85 e8 f0 ff ff 5c 	movl   $0x8edcd65c,-0xf18(%rbp)
   14f4f:	d6 dc 8e 
   14f52:	c7 85 ec f0 ff ff 02 	movl   $0x2,-0xf14(%rbp)
   14f59:	00 00 00 
   14f5c:	c7 85 f0 f0 ff ff ff 	movl   $0xffffffff,-0xf10(%rbp)
   14f63:	ff ff ff 
   14f66:	c7 85 f4 f0 ff ff fc 	movl   $0xfffffffc,-0xf0c(%rbp)
   14f6d:	ff ff ff 
   14f70:	c7 85 f8 f0 ff ff fd 	movl   $0xfffffffd,-0xf08(%rbp)
   14f77:	ff ff ff 
   14f7a:	c7 85 fc f0 ff ff fc 	movl   $0xfffffffc,-0xf04(%rbp)
   14f81:	ff ff ff 
   14f84:	c7 85 00 f1 ff ff d6 	movl   $0x1ad7ad6,-0xf00(%rbp)
   14f8b:	7a ad 01 
   14f8e:	c7 85 04 f1 ff ff 76 	movl   $0x99331476,-0xefc(%rbp)
   14f95:	14 33 99 
   14f98:	c7 85 08 f1 ff ff 76 	movl   $0x99331476,-0xef8(%rbp)
   14f9f:	14 33 99 
   14fa2:	c7 85 0c f1 ff ff d6 	movl   $0x1ad7ad6,-0xef4(%rbp)
   14fa9:	7a ad 01 
   14fac:	c7 85 10 f1 ff ff fe 	movl   $0xfffffffe,-0xef0(%rbp)
   14fb3:	ff ff ff 
   14fb6:	c7 85 14 f1 ff ff ff 	movl   $0xffffffff,-0xeec(%rbp)
   14fbd:	ff ff ff 
   14fc0:	c7 85 18 f1 ff ff da 	movl   $0x1c8072da,-0xee8(%rbp)
   14fc7:	72 80 1c 
   14fca:	c7 85 1c f1 ff ff 76 	movl   $0x99331476,-0xee4(%rbp)
   14fd1:	14 33 99 
   14fd4:	c7 85 20 f1 ff ff fc 	movl   $0xfffffffc,-0xee0(%rbp)
   14fdb:	ff ff ff 
   14fde:	c7 85 24 f1 ff ff ff 	movl   $0xffffffff,-0xedc(%rbp)
   14fe5:	ff ff ff 
   14fe8:	c7 85 28 f1 ff ff fc 	movl   $0xfffffffc,-0xed8(%rbp)
   14fef:	ff ff ff 
   14ff2:	c7 85 2c f1 ff ff b9 	movl   $0x59301db9,-0xed4(%rbp)
   14ff9:	1d 30 59 
   14ffc:	c7 85 30 f1 ff ff fc 	movl   $0xfffffffc,-0xed0(%rbp)
   15003:	ff ff ff 
   15006:	c7 85 34 f1 ff ff 02 	movl   $0x2,-0xecc(%rbp)
   1500d:	00 00 00 
   15010:	c7 85 38 f1 ff ff 33 	movl   $0xbcbdc333,-0xec8(%rbp)
   15017:	c3 bd bc 
   1501a:	c7 85 3c f1 ff ff c3 	movl   $0x605e10c3,-0xec4(%rbp)
   15021:	10 5e 60 
   15024:	c7 85 40 f1 ff ff fd 	movl   $0xfffffffd,-0xec0(%rbp)
   1502b:	ff ff ff 
   1502e:	c7 85 44 f1 ff ff 02 	movl   $0x2,-0xebc(%rbp)
   15035:	00 00 00 
   15038:	c7 85 48 f1 ff ff 01 	movl   $0x1,-0xeb8(%rbp)
   1503f:	00 00 00 
   15042:	c7 85 4c f1 ff ff ff 	movl   $0xffffffff,-0xeb4(%rbp)
   15049:	ff ff ff 
   1504c:	c7 85 50 f1 ff ff 33 	movl   $0xbcbdc333,-0xeb0(%rbp)
   15053:	c3 bd bc 
   15056:	c7 85 54 f1 ff ff 01 	movl   $0x1,-0xeac(%rbp)
   1505d:	00 00 00 
   15060:	c7 85 58 f1 ff ff 33 	movl   $0xbcbdc333,-0xea8(%rbp)
   15067:	c3 bd bc 
   1506a:	c7 85 5c f1 ff ff ff 	movl   $0xffffffff,-0xea4(%rbp)
   15071:	ff ff ff 
   15074:	c7 85 60 f1 ff ff fe 	movl   $0xfffffffe,-0xea0(%rbp)
   1507b:	ff ff ff 
   1507e:	c7 85 64 f1 ff ff fe 	movl   $0xfffffffe,-0xe9c(%rbp)
   15085:	ff ff ff 
   15088:	c7 85 68 f1 ff ff 01 	movl   $0x1,-0xe98(%rbp)
   1508f:	00 00 00 
   15092:	c7 85 6c f1 ff ff fd 	movl   $0xfffffffd,-0xe94(%rbp)
   15099:	ff ff ff 
   1509c:	c7 85 70 f1 ff ff ff 	movl   $0xffffffff,-0xe90(%rbp)
   150a3:	ff ff ff 
   150a6:	c7 85 74 f1 ff ff fc 	movl   $0xfffffffc,-0xe8c(%rbp)
   150ad:	ff ff ff 
   150b0:	c7 85 78 f1 ff ff 1c 	movl   $0xd675ef1c,-0xe88(%rbp)
   150b7:	ef 75 d6 
   150ba:	c7 85 7c f1 ff ff fd 	movl   $0xfffffffd,-0xe84(%rbp)
   150c1:	ff ff ff 
   150c4:	c7 85 80 f1 ff ff da 	movl   $0x1c8072da,-0xe80(%rbp)
   150cb:	72 80 1c 
   150ce:	c7 85 84 f1 ff ff 5c 	movl   $0x8edcd65c,-0xe7c(%rbp)
   150d5:	d6 dc 8e 
   150d8:	c7 85 24 ec ff ff f6 	movl   $0xfffffff6,-0x13dc(%rbp)
   150df:	ff ff ff 
   150e2:	66 c7 85 e2 eb ff ff 	movw   $0x7a1c,-0x141e(%rbp)
   150e9:	1c 7a 
   150eb:	c6 85 dc eb ff ff 98 	movb   $0x98,-0x1424(%rbp)
   150f2:	c6 85 de eb ff ff 2e 	movb   $0x2e,-0x1422(%rbp)
   150f9:	48 c7 85 c0 ec ff ff 	movq   $0x0,-0x1340(%rbp)
   15100:	00 00 00 00 
   15104:	48 8d 85 c0 ec ff ff 	lea    -0x1340(%rbp),%rax
   1510b:	48 89 85 e0 ef ff ff 	mov    %rax,-0x1020(%rbp)
   15112:	48 8d 85 c0 ec ff ff 	lea    -0x1340(%rbp),%rax
   15119:	48 89 85 e8 ef ff ff 	mov    %rax,-0x1018(%rbp)
   15120:	48 8d 85 c0 ec ff ff 	lea    -0x1340(%rbp),%rax
   15127:	48 89 85 f0 ef ff ff 	mov    %rax,-0x1010(%rbp)
   1512e:	48 8d 85 c0 ec ff ff 	lea    -0x1340(%rbp),%rax
   15135:	48 89 85 f8 ef ff ff 	mov    %rax,-0x1008(%rbp)
   1513c:	48 8d 85 c0 ec ff ff 	lea    -0x1340(%rbp),%rax
   15143:	48 89 85 00 f0 ff ff 	mov    %rax,-0x1000(%rbp)
   1514a:	48 8d 85 c0 ec ff ff 	lea    -0x1340(%rbp),%rax
   15151:	48 89 85 08 f0 ff ff 	mov    %rax,-0xff8(%rbp)
   15158:	48 8d 85 c0 ec ff ff 	lea    -0x1340(%rbp),%rax
   1515f:	48 89 85 10 f0 ff ff 	mov    %rax,-0xff0(%rbp)
   15166:	48 8d 85 c0 ec ff ff 	lea    -0x1340(%rbp),%rax
   1516d:	48 89 85 18 f0 ff ff 	mov    %rax,-0xfe8(%rbp)
   15174:	c6 85 df eb ff ff 30 	movb   $0x30,-0x1421(%rbp)
   1517b:	c7 85 5c ec ff ff 76 	movl   $0x256af576,-0x13a4(%rbp)
   15182:	f5 6a 25 
   15185:	66 c7 85 ea eb ff ff 	movw   $0x3,-0x1416(%rbp)
   1518c:	03 00 
   1518e:	c7 85 f4 eb ff ff 01 	movl   $0x1,-0x140c(%rbp)
   15195:	00 00 00 
   15198:	66 c7 85 cc eb ff ff 	movw   $0xffe2,-0x1434(%rbp)
   1519f:	e2 ff 
   151a1:	e9 93 36 00 00       	jmpq   18839 <func_111+0x3a14>
   151a6:	c7 85 60 ec ff ff 05 	movl   $0xed5b9905,-0x13a0(%rbp)
   151ad:	99 5b ed 
   151b0:	66 c7 85 ec eb ff ff 	movw   $0xdcfb,-0x1414(%rbp)
   151b7:	fb dc 
   151b9:	66 c7 85 ee eb ff ff 	movw   $0x0,-0x1412(%rbp)
   151c0:	00 00 
   151c2:	48 b8 fb 5f c2 5f fb 	movabs $0x5fc25ffb5fc25ffb,%rax
   151c9:	5f c2 5f 
   151cc:	48 89 85 20 f0 ff ff 	mov    %rax,-0xfe0(%rbp)
   151d3:	c6 85 28 f0 ff ff fb 	movb   $0xfb,-0xfd8(%rbp)
   151da:	48 b8 01 88 88 01 3e 	movabs $0x3effff3e01888801,%rax
   151e1:	ff ff 3e 
   151e4:	48 89 85 29 f0 ff ff 	mov    %rax,-0xfd7(%rbp)
   151eb:	c6 85 31 f0 ff ff 01 	movb   $0x1,-0xfcf(%rbp)
   151f2:	48 b8 ff 5f ff c6 ff 	movabs $0xc6ff5fffc6ff5fff,%rax
   151f9:	5f ff c6 
   151fc:	48 89 85 32 f0 ff ff 	mov    %rax,-0xfce(%rbp)
   15203:	c6 85 3a f0 ff ff ff 	movb   $0xff,-0xfc6(%rbp)
   1520a:	48 b8 01 01 ff 88 3e 	movabs $0xff883e3e88ff0101,%rax
   15211:	3e 88 ff 
   15214:	48 89 85 3b f0 ff ff 	mov    %rax,-0xfc5(%rbp)
   1521b:	c6 85 43 f0 ff ff 01 	movb   $0x1,-0xfbd(%rbp)
   15222:	48 b8 fb c6 c2 c6 fb 	movabs $0xc6c2c6fbc6c2c6fb,%rax
   15229:	c6 c2 c6 
   1522c:	48 89 85 44 f0 ff ff 	mov    %rax,-0xfbc(%rbp)
   15233:	c6 85 4c f0 ff ff fb 	movb   $0xfb,-0xfb4(%rbp)
   1523a:	48 b8 3e 88 ff 01 01 	movabs $0x3e88ff0101ff883e,%rax
   15241:	ff 88 3e 
   15244:	48 89 85 4d f0 ff ff 	mov    %rax,-0xfb3(%rbp)
   1524b:	c6 85 55 f0 ff ff 3e 	movb   $0x3e,-0xfab(%rbp)
   15252:	48 b8 ff c6 ff 5f ff 	movabs $0x5fffc6ff5fffc6ff,%rax
   15259:	c6 ff 5f 
   1525c:	48 89 85 56 f0 ff ff 	mov    %rax,-0xfaa(%rbp)
   15263:	c6 85 5e f0 ff ff ff 	movb   $0xff,-0xfa2(%rbp)
   1526a:	48 b8 3e 01 88 88 01 	movabs $0xffff3e018888013e,%rax
   15271:	3e ff ff 
   15274:	48 89 85 5f f0 ff ff 	mov    %rax,-0xfa1(%rbp)
   1527b:	c6 85 67 f0 ff ff 3e 	movb   $0x3e,-0xf99(%rbp)
   15282:	c7 85 08 ec ff ff 01 	movl   $0x1,-0x13f8(%rbp)
   15289:	00 00 00 
   1528c:	66 c7 85 e8 eb ff ff 	movw   $0xb9,-0x1418(%rbp)
   15293:	b9 00 
   15295:	48 8d 85 90 f2 ff ff 	lea    -0xd70(%rbp),%rax
   1529c:	48 8d 15 1d ba 00 00 	lea    0xba1d(%rip),%rdx        # 20cc0 <g_3772+0x4b8>
   152a3:	b9 2d 00 00 00       	mov    $0x2d,%ecx
   152a8:	48 89 c7             	mov    %rax,%rdi
   152ab:	48 89 d6             	mov    %rdx,%rsi
   152ae:	f3 48 a5             	rep movsq %ds:(%rsi),%es:(%rdi)
   152b1:	48 8d 05 98 bb 00 00 	lea    0xbb98(%rip),%rax        # 20e50 <g_323>
   152b8:	48 89 85 c8 ec ff ff 	mov    %rax,-0x1338(%rbp)
   152bf:	48 8d 85 c8 ec ff ff 	lea    -0x1338(%rbp),%rax
   152c6:	48 89 85 38 ed ff ff 	mov    %rax,-0x12c8(%rbp)
   152cd:	c6 85 0c ec ff ff 93 	movb   $0x93,-0x13f4(%rbp)
   152d4:	0f b6 85 0d ec ff ff 	movzbl -0x13f3(%rbp),%eax
   152db:	83 e0 c0             	and    $0xffffffc0,%eax
   152de:	83 c8 3c             	or     $0x3c,%eax
   152e1:	88 85 0d ec ff ff    	mov    %al,-0x13f3(%rbp)
   152e7:	48 8d 85 c0 ec ff ff 	lea    -0x1340(%rbp),%rax
   152ee:	48 89 85 40 ed ff ff 	mov    %rax,-0x12c0(%rbp)
   152f5:	c6 85 dd eb ff ff f6 	movb   $0xf6,-0x1423(%rbp)
   152fc:	66 c7 85 40 ef ff ff 	movw   $0x648,-0x10c0(%rbp)
   15303:	48 06 
   15305:	66 c7 85 42 ef ff ff 	movw   $0x648,-0x10be(%rbp)
   1530c:	48 06 
   1530e:	66 c7 85 44 ef ff ff 	movw   $0x648,-0x10bc(%rbp)
   15315:	48 06 
   15317:	66 c7 85 46 ef ff ff 	movw   $0x648,-0x10ba(%rbp)
   1531e:	48 06 
   15320:	66 c7 85 48 ef ff ff 	movw   $0x648,-0x10b8(%rbp)
   15327:	48 06 
   15329:	66 c7 85 4a ef ff ff 	movw   $0x648,-0x10b6(%rbp)
   15330:	48 06 
   15332:	66 c7 85 4c ef ff ff 	movw   $0x648,-0x10b4(%rbp)
   15339:	48 06 
   1533b:	66 c7 85 4e ef ff ff 	movw   $0x648,-0x10b2(%rbp)
   15342:	48 06 
   15344:	66 c7 85 50 ef ff ff 	movw   $0x648,-0x10b0(%rbp)
   1534b:	48 06 
   1534d:	66 c7 85 52 ef ff ff 	movw   $0x648,-0x10ae(%rbp)
   15354:	48 06 
   15356:	66 c7 85 54 ef ff ff 	movw   $0x648,-0x10ac(%rbp)
   1535d:	48 06 
   1535f:	66 c7 85 56 ef ff ff 	movw   $0x648,-0x10aa(%rbp)
   15366:	48 06 
   15368:	66 c7 85 58 ef ff ff 	movw   $0x648,-0x10a8(%rbp)
   1536f:	48 06 
   15371:	66 c7 85 5a ef ff ff 	movw   $0x648,-0x10a6(%rbp)
   15378:	48 06 
   1537a:	66 c7 85 5c ef ff ff 	movw   $0x648,-0x10a4(%rbp)
   15381:	48 06 
   15383:	66 c7 85 5e ef ff ff 	movw   $0x648,-0x10a2(%rbp)
   1538a:	48 06 
   1538c:	66 c7 85 60 ef ff ff 	movw   $0x648,-0x10a0(%rbp)
   15393:	48 06 
   15395:	66 c7 85 62 ef ff ff 	movw   $0x648,-0x109e(%rbp)
   1539c:	48 06 
   1539e:	c7 85 28 ec ff ff 00 	movl   $0x0,-0x13d8(%rbp)
   153a5:	00 00 00 
   153a8:	eb 1a                	jmp    153c4 <func_111+0x59f>
   153aa:	8b 85 28 ec ff ff    	mov    -0x13d8(%rbp),%eax
   153b0:	48 98                	cltq   
   153b2:	c7 84 85 f4 ee ff ff 	movl   $0x3a4488a8,-0x110c(%rbp,%rax,4)
   153b9:	a8 88 44 3a 
   153bd:	83 85 28 ec ff ff 01 	addl   $0x1,-0x13d8(%rbp)
   153c4:	83 bd 28 ec ff ff 02 	cmpl   $0x2,-0x13d8(%rbp)
   153cb:	7e dd                	jle    153aa <func_111+0x585>
   153cd:	c7 85 28 ec ff ff 00 	movl   $0x0,-0x13d8(%rbp)
   153d4:	00 00 00 
   153d7:	eb 1e                	jmp    153f7 <func_111+0x5d2>
   153d9:	8b 85 28 ec ff ff    	mov    -0x13d8(%rbp),%eax
   153df:	48 98                	cltq   
   153e1:	48 8d 15 50 af 00 00 	lea    0xaf50(%rip),%rdx        # 20338 <g_159>
   153e8:	48 89 94 c5 20 ef ff 	mov    %rdx,-0x10e0(%rbp,%rax,8)
   153ef:	ff 
   153f0:	83 85 28 ec ff ff 01 	addl   $0x1,-0x13d8(%rbp)
   153f7:	83 bd 28 ec ff ff 03 	cmpl   $0x3,-0x13d8(%rbp)
   153fe:	7e d9                	jle    153d9 <func_111+0x5b4>
   15400:	c7 85 f4 eb ff ff 06 	movl   $0x6,-0x140c(%rbp)
   15407:	00 00 00 
   1540a:	e9 1f 28 00 00       	jmpq   17c2e <func_111+0x2e09>
   1540f:	66 c7 85 e4 eb ff ff 	movw   $0xa22,-0x141c(%rbp)
   15416:	22 0a 
   15418:	c7 85 78 ec ff ff 06 	movl   $0x478db606,-0x1388(%rbp)
   1541f:	b6 8d 47 
   15422:	66 c7 85 e6 eb ff ff 	movw   $0xc116,-0x141a(%rbp)
   15429:	16 c1 
   1542b:	c7 85 7c ec ff ff 01 	movl   $0x1,-0x1384(%rbp)
   15432:	00 00 00 
   15435:	48 c7 85 d0 ec ff ff 	movq   $0x1,-0x1330(%rbp)
   1543c:	01 00 00 00 
   15440:	48 c7 85 d8 ec ff ff 	movq   $0x0,-0x1328(%rbp)
   15447:	00 00 00 00 
   1544b:	c7 85 80 ec ff ff ee 	movl   $0xa2d97dee,-0x1380(%rbp)
   15452:	7d d9 a2 
   15455:	48 c7 85 e0 ec ff ff 	movq   $0x0,-0x1320(%rbp)
   1545c:	00 00 00 00 
   15460:	48 8d 85 e0 ec ff ff 	lea    -0x1320(%rbp),%rax
   15467:	48 89 85 d8 ed ff ff 	mov    %rax,-0x1228(%rbp)
   1546e:	48 8d 85 70 ef ff ff 	lea    -0x1090(%rbp),%rax
   15475:	48 83 c0 20          	add    $0x20,%rax
   15479:	48 89 85 e8 ec ff ff 	mov    %rax,-0x1318(%rbp)
   15480:	c6 85 10 ec ff ff 00 	movb   $0x0,-0x13f0(%rbp)
   15487:	0f b6 85 11 ec ff ff 	movzbl -0x13ef(%rbp),%eax
   1548e:	83 e0 c0             	and    $0xffffffc0,%eax
   15491:	83 c8 06             	or     $0x6,%eax
   15494:	88 85 11 ec ff ff    	mov    %al,-0x13ef(%rbp)
   1549a:	48 8d 05 8f ae 00 00 	lea    0xae8f(%rip),%rax        # 20330 <g_154>
   154a1:	48 89 85 f0 ec ff ff 	mov    %rax,-0x1310(%rbp)
   154a8:	48 8d 85 e8 ec ff ff 	lea    -0x1318(%rbp),%rax
   154af:	48 89 85 f8 ec ff ff 	mov    %rax,-0x1308(%rbp)
   154b6:	48 8d 85 f8 ec ff ff 	lea    -0x1308(%rbp),%rax
   154bd:	48 89 85 e0 ed ff ff 	mov    %rax,-0x1220(%rbp)
   154c4:	c7 85 2c ec ff ff 00 	movl   $0x0,-0x13d4(%rbp)
   154cb:	00 00 00 
   154ce:	eb 1a                	jmp    154ea <func_111+0x6c5>
   154d0:	8b 85 2c ec ff ff    	mov    -0x13d4(%rbp),%eax
   154d6:	48 98                	cltq   
   154d8:	c7 84 85 00 ef ff ff 	movl   $0xfffffff7,-0x1100(%rbp,%rax,4)
   154df:	f7 ff ff ff 
   154e3:	83 85 2c ec ff ff 01 	addl   $0x1,-0x13d4(%rbp)
   154ea:	83 bd 2c ec ff ff 05 	cmpl   $0x5,-0x13d4(%rbp)
   154f1:	7e dd                	jle    154d0 <func_111+0x6ab>
   154f3:	c7 85 2c ec ff ff 00 	movl   $0x0,-0x13d4(%rbp)
   154fa:	00 00 00 
   154fd:	eb 1b                	jmp    1551a <func_111+0x6f5>
   154ff:	8b 85 2c ec ff ff    	mov    -0x13d4(%rbp),%eax
   15505:	48 98                	cltq   
   15507:	48 c7 84 c5 70 ef ff 	movq   $0x0,-0x1090(%rbp,%rax,8)
   1550e:	ff 00 00 00 00 
   15513:	83 85 2c ec ff ff 01 	addl   $0x1,-0x13d4(%rbp)
   1551a:	83 bd 2c ec ff ff 04 	cmpl   $0x4,-0x13d4(%rbp)
   15521:	7e dc                	jle    154ff <func_111+0x6da>
   15523:	8b 85 f4 eb ff ff    	mov    -0x140c(%rbp),%eax
   15529:	48 98                	cltq   
   1552b:	48 8d 15 ef ad 00 00 	lea    0xadef(%rip),%rdx        # 20321 <g_121>
   15532:	0f b6 04 10          	movzbl (%rax,%rdx,1),%eax
   15536:	84 c0                	test   %al,%al
   15538:	0f 84 a5 00 00 00    	je     155e3 <func_111+0x7be>
   1553e:	c6 85 28 ed ff ff d7 	movb   $0xd7,-0x12d8(%rbp)
   15545:	0f b6 85 29 ed ff ff 	movzbl -0x12d7(%rbp),%eax
   1554c:	83 e0 c0             	and    $0xffffffc0,%eax
   1554f:	88 85 29 ed ff ff    	mov    %al,-0x12d7(%rbp)
   15555:	48 8d 85 28 ed ff ff 	lea    -0x12d8(%rbp),%rax
   1555c:	48 89 85 78 ee ff ff 	mov    %rax,-0x1188(%rbp)
   15563:	c7 85 30 ec ff ff 00 	movl   $0x0,-0x13d0(%rbp)
   1556a:	00 00 00 
   1556d:	eb 46                	jmp    155b5 <func_111+0x790>
   1556f:	c7 85 34 ec ff ff 00 	movl   $0x0,-0x13cc(%rbp)
   15576:	00 00 00 
   15579:	eb 2a                	jmp    155a5 <func_111+0x780>
   1557b:	8b 85 34 ec ff ff    	mov    -0x13cc(%rbp),%eax
   15581:	48 63 d0             	movslq %eax,%rdx
   15584:	8b 85 30 ec ff ff    	mov    -0x13d0(%rbp),%eax
   1558a:	48 98                	cltq   
   1558c:	48 01 d0             	add    %rdx,%rax
   1558f:	48 8d 15 b2 ac 00 00 	lea    0xacb2(%rip),%rdx        # 20248 <g_77+0x68>
   15596:	48 89 94 c5 00 f9 ff 	mov    %rdx,-0x700(%rbp,%rax,8)
   1559d:	ff 
   1559e:	83 85 34 ec ff ff 01 	addl   $0x1,-0x13cc(%rbp)
   155a5:	83 bd 34 ec ff ff 00 	cmpl   $0x0,-0x13cc(%rbp)
   155ac:	7e cd                	jle    1557b <func_111+0x756>
   155ae:	83 85 30 ec ff ff 01 	addl   $0x1,-0x13d0(%rbp)
   155b5:	83 bd 30 ec ff ff 04 	cmpl   $0x4,-0x13d0(%rbp)
   155bc:	7e b1                	jle    1556f <func_111+0x74a>
   155be:	0f b7 05 63 ad 00 00 	movzwl 0xad63(%rip),%eax        # 20328 <g_138>
   155c5:	83 c0 01             	add    $0x1,%eax
   155c8:	66 89 05 59 ad 00 00 	mov    %ax,0xad59(%rip)        # 20328 <g_138>
   155cf:	48 8b 85 78 ee ff ff 	mov    -0x1188(%rbp),%rax
   155d6:	8b 95 28 ed ff ff    	mov    -0x12d8(%rbp),%edx
   155dc:	89 10                	mov    %edx,(%rax)
   155de:	e9 9a 0f 00 00       	jmpq   1657d <func_111+0x1758>
   155e3:	48 8d 85 00 f4 ff ff 	lea    -0xc00(%rbp),%rax
   155ea:	48 8d 15 cf 74 00 00 	lea    0x74cf(%rip),%rdx        # 1cac0 <g_2872+0x2a40>
   155f1:	b9 34 00 00 00       	mov    $0x34,%ecx
   155f6:	48 89 c7             	mov    %rax,%rdi
   155f9:	48 89 d6             	mov    %rdx,%rsi
   155fc:	f3 48 a5             	rep movsq %ds:(%rsi),%es:(%rdi)
   155ff:	48 89 f2             	mov    %rsi,%rdx
   15602:	48 89 f8             	mov    %rdi,%rax
   15605:	8b 0a                	mov    (%rdx),%ecx
   15607:	89 08                	mov    %ecx,(%rax)
   15609:	c7 85 14 ec ff ff 01 	movl   $0x1,-0x13ec(%rbp)
   15610:	00 00 00 
   15613:	c7 85 18 ec ff ff 40 	movl   $0xbc39e940,-0x13e8(%rbp)
   1561a:	e9 39 bc 
   1561d:	48 8d 85 00 f9 ff ff 	lea    -0x700(%rbp),%rax
   15624:	48 8d 15 55 76 00 00 	lea    0x7655(%rip),%rdx        # 1cc80 <g_2872+0x2c00>
   1562b:	b9 36 00 00 00       	mov    $0x36,%ecx
   15630:	48 89 c7             	mov    %rax,%rdi
   15633:	48 89 d6             	mov    %rdx,%rsi
   15636:	f3 48 a5             	rep movsq %ds:(%rsi),%es:(%rdi)
   15639:	c7 85 84 ec ff ff f9 	movl   $0x6bf4def9,-0x137c(%rbp)
   15640:	de f4 6b 
   15643:	c7 85 38 ec ff ff e6 	movl   $0x942e4ce6,-0x13c8(%rbp)
   1564a:	4c 2e 94 
   1564d:	c7 85 a0 ef ff ff 94 	movl   $0xa70d4b94,-0x1060(%rbp)
   15654:	4b 0d a7 
   15657:	c7 85 a4 ef ff ff f6 	movl   $0xfffffff6,-0x105c(%rbp)
   1565e:	ff ff ff 
   15661:	c7 85 a8 ef ff ff 94 	movl   $0xa70d4b94,-0x1058(%rbp)
   15668:	4b 0d a7 
   1566b:	c7 85 ac ef ff ff 94 	movl   $0xa70d4b94,-0x1054(%rbp)
   15672:	4b 0d a7 
   15675:	c7 85 b0 ef ff ff f6 	movl   $0xfffffff6,-0x1050(%rbp)
   1567c:	ff ff ff 
   1567f:	c7 85 b4 ef ff ff f6 	movl   $0xfffffff6,-0x104c(%rbp)
   15686:	ff ff ff 
   15689:	c7 85 b8 ef ff ff 94 	movl   $0xa70d4b94,-0x1048(%rbp)
   15690:	4b 0d a7 
   15693:	c7 85 bc ef ff ff 94 	movl   $0xa70d4b94,-0x1044(%rbp)
   1569a:	4b 0d a7 
   1569d:	c7 85 c0 ef ff ff f6 	movl   $0xfffffff6,-0x1040(%rbp)
   156a4:	ff ff ff 
   156a7:	c7 85 c4 ef ff ff 94 	movl   $0xa70d4b94,-0x103c(%rbp)
   156ae:	4b 0d a7 
   156b1:	48 8d 85 00 ef ff ff 	lea    -0x1100(%rbp),%rax
   156b8:	48 83 c0 10          	add    $0x10,%rax
   156bc:	48 89 85 e8 ed ff ff 	mov    %rax,-0x1218(%rbp)
   156c3:	48 8d 85 d8 ec ff ff 	lea    -0x1328(%rbp),%rax
   156ca:	48 89 85 f0 ed ff ff 	mov    %rax,-0x1210(%rbp)
   156d1:	66 c7 85 e0 eb ff ff 	movw   $0x0,-0x1420(%rbp)
   156d8:	00 00 
   156da:	e9 ed 0b 00 00       	jmpq   162cc <func_111+0x14a7>
   156df:	48 8d 05 d2 d1 00 00 	lea    0xd1d2(%rip),%rax        # 228b8 <g_165>
   156e6:	48 89 85 f8 ed ff ff 	mov    %rax,-0x1208(%rbp)
   156ed:	c7 85 90 ec ff ff ff 	movl   $0xffffffff,-0x1370(%rbp)
   156f4:	ff ff ff 
   156f7:	c7 85 94 ec ff ff fe 	movl   $0xfffffffe,-0x136c(%rbp)
   156fe:	ff ff ff 
   15701:	48 8d 85 90 f1 ff ff 	lea    -0xe70(%rbp),%rax
   15708:	48 8d 15 31 77 00 00 	lea    0x7731(%rip),%rdx        # 1ce40 <g_2872+0x2dc0>
   1570f:	b9 1f 00 00 00       	mov    $0x1f,%ecx
   15714:	48 89 c7             	mov    %rax,%rdi
   15717:	48 89 d6             	mov    %rdx,%rsi
   1571a:	f3 48 a5             	rep movsq %ds:(%rsi),%es:(%rdi)
   1571d:	48 89 f2             	mov    %rsi,%rdx
   15720:	48 89 f8             	mov    %rdi,%rax
   15723:	8b 0a                	mov    (%rdx),%ecx
   15725:	89 08                	mov    %ecx,(%rax)
   15727:	c7 85 98 ec ff ff 01 	movl   $0x1,-0x1368(%rbp)
   1572e:	00 00 00 
   15731:	48 8d 85 00 ef ff ff 	lea    -0x1100(%rbp),%rax
   15738:	48 83 c0 0c          	add    $0xc,%rax
   1573c:	48 89 85 00 ee ff ff 	mov    %rax,-0x1200(%rbp)
   15743:	48 8d 85 00 ec ff ff 	lea    -0x1400(%rbp),%rax
   1574a:	48 89 85 00 ed ff ff 	mov    %rax,-0x1300(%rbp)
   15751:	48 c7 85 08 ed ff ff 	movq   $0x0,-0x12f8(%rbp)
   15758:	00 00 00 00 
   1575c:	48 8d 85 08 ed ff ff 	lea    -0x12f8(%rbp),%rax
   15763:	48 89 85 08 ee ff ff 	mov    %rax,-0x11f8(%rbp)
   1576a:	48 8d 85 00 f4 ff ff 	lea    -0xc00(%rbp),%rax
   15771:	48 83 c0 4e          	add    $0x4e,%rax
   15775:	48 89 85 10 ed ff ff 	mov    %rax,-0x12f0(%rbp)
   1577c:	48 8d 85 10 ed ff ff 	lea    -0x12f0(%rbp),%rax
   15783:	48 89 85 10 ee ff ff 	mov    %rax,-0x11f0(%rbp)
   1578a:	48 8d 05 a7 ab 00 00 	lea    0xaba7(%rip),%rax        # 20338 <g_159>
   15791:	48 89 85 18 ee ff ff 	mov    %rax,-0x11e8(%rbp)
   15798:	c7 85 3c ec ff ff 00 	movl   $0x0,-0x13c4(%rbp)
   1579f:	00 00 00 
   157a2:	eb 1e                	jmp    157c2 <func_111+0x99d>
   157a4:	8b 85 3c ec ff ff    	mov    -0x13c4(%rbp),%eax
   157aa:	48 98                	cltq   
   157ac:	48 8d 95 14 ec ff ff 	lea    -0x13ec(%rbp),%rdx
   157b3:	48 89 94 c5 e0 ee ff 	mov    %rdx,-0x1120(%rbp,%rax,8)
   157ba:	ff 
   157bb:	83 85 3c ec ff ff 01 	addl   $0x1,-0x13c4(%rbp)
   157c2:	83 bd 3c ec ff ff 00 	cmpl   $0x0,-0x13c4(%rbp)
   157c9:	7e d9                	jle    157a4 <func_111+0x97f>
   157cb:	0f b7 85 e0 eb ff ff 	movzwl -0x1420(%rbp),%eax
   157d2:	0f b7 c0             	movzwl %ax,%eax
   157d5:	0f b7 95 e0 eb ff ff 	movzwl -0x1420(%rbp),%edx
   157dc:	0f b7 d2             	movzwl %dx,%edx
   157df:	8d 4a 02             	lea    0x2(%rdx),%ecx
   157e2:	8b 95 f4 eb ff ff    	mov    -0x140c(%rbp),%edx
   157e8:	83 c2 02             	add    $0x2,%edx
   157eb:	48 63 f2             	movslq %edx,%rsi
   157ee:	48 98                	cltq   
   157f0:	48 63 c9             	movslq %ecx,%rcx
   157f3:	48 89 c2             	mov    %rax,%rdx
   157f6:	48 c1 e2 02          	shl    $0x2,%rdx
   157fa:	48 01 c2             	add    %rax,%rdx
   157fd:	48 8d 04 d5 00 00 00 	lea    0x0(,%rdx,8),%rax
   15804:	00 
   15805:	48 89 c2             	mov    %rax,%rdx
   15808:	48 89 c8             	mov    %rcx,%rax
   1580b:	48 c1 e0 02          	shl    $0x2,%rax
   1580f:	48 01 c8             	add    %rcx,%rax
   15812:	48 01 c0             	add    %rax,%rax
   15815:	48 01 d0             	add    %rdx,%rax
   15818:	48 01 f0             	add    %rsi,%rax
   1581b:	48 8d 14 85 00 00 00 	lea    0x0(,%rax,4),%rdx
   15822:	00 
   15823:	48 8d 05 b6 a9 00 00 	lea    0xa9b6(%rip),%rax        # 201e0 <g_77>
   1582a:	8b 04 02             	mov    (%rdx,%rax,1),%eax
   1582d:	85 c0                	test   %eax,%eax
   1582f:	0f 84 d2 06 00 00    	je     15f07 <func_111+0x10e2>
   15835:	48 8d 05 f4 aa 00 00 	lea    0xaaf4(%rip),%rax        # 20330 <g_154>
   1583c:	48 89 85 30 ee ff ff 	mov    %rax,-0x11d0(%rbp)
   15843:	48 8d 05 7e a9 00 00 	lea    0xa97e(%rip),%rax        # 201c8 <g_14>
   1584a:	48 89 85 18 ed ff ff 	mov    %rax,-0x12e8(%rbp)
   15851:	48 8d 85 18 ed ff ff 	lea    -0x12e8(%rbp),%rax
   15858:	48 89 85 38 ee ff ff 	mov    %rax,-0x11c8(%rbp)
   1585f:	48 8d 05 d6 aa 00 00 	lea    0xaad6(%rip),%rax        # 2033c <g_163>
   15866:	48 89 85 20 ed ff ff 	mov    %rax,-0x12e0(%rbp)
   1586d:	48 8d 05 44 d0 00 00 	lea    0xd044(%rip),%rax        # 228b8 <g_165>
   15874:	48 89 85 40 ee ff ff 	mov    %rax,-0x11c0(%rbp)
   1587b:	48 8d 05 32 aa 00 00 	lea    0xaa32(%rip),%rax        # 202b4 <g_77+0xd4>
   15882:	48 89 85 48 ee ff ff 	mov    %rax,-0x11b8(%rbp)
   15889:	48 8d 05 ac aa 00 00 	lea    0xaaac(%rip),%rax        # 2033c <g_163>
   15890:	48 89 85 28 ed ff ff 	mov    %rax,-0x12d8(%rbp)
   15897:	48 8d 85 20 ed ff ff 	lea    -0x12e0(%rbp),%rax
   1589e:	48 89 85 50 ee ff ff 	mov    %rax,-0x11b0(%rbp)
   158a5:	48 8d 05 fc a9 00 00 	lea    0xa9fc(%rip),%rax        # 202a8 <g_77+0xc8>
   158ac:	48 89 85 58 ee ff ff 	mov    %rax,-0x11a8(%rbp)
   158b3:	48 8d 85 00 ef ff ff 	lea    -0x1100(%rbp),%rax
   158ba:	48 83 c0 10          	add    $0x10,%rax
   158be:	48 89 85 60 ee ff ff 	mov    %rax,-0x11a0(%rbp)
   158c5:	48 8d 05 44 a9 00 00 	lea    0xa944(%rip),%rax        # 20210 <g_77+0x30>
   158cc:	48 89 85 70 f0 ff ff 	mov    %rax,-0xf90(%rbp)
   158d3:	48 8d 05 36 a9 00 00 	lea    0xa936(%rip),%rax        # 20210 <g_77+0x30>
   158da:	48 89 85 78 f0 ff ff 	mov    %rax,-0xf88(%rbp)
   158e1:	48 8d 85 f8 eb ff ff 	lea    -0x1408(%rbp),%rax
   158e8:	48 89 85 80 f0 ff ff 	mov    %rax,-0xf80(%rbp)
   158ef:	48 8d 05 1a a9 00 00 	lea    0xa91a(%rip),%rax        # 20210 <g_77+0x30>
   158f6:	48 89 85 88 f0 ff ff 	mov    %rax,-0xf78(%rbp)
   158fd:	48 8d 05 0c a9 00 00 	lea    0xa90c(%rip),%rax        # 20210 <g_77+0x30>
   15904:	48 89 85 90 f0 ff ff 	mov    %rax,-0xf70(%rbp)
   1590b:	48 8d 85 f8 eb ff ff 	lea    -0x1408(%rbp),%rax
   15912:	48 89 85 98 f0 ff ff 	mov    %rax,-0xf68(%rbp)
   15919:	48 8d 05 f0 a8 00 00 	lea    0xa8f0(%rip),%rax        # 20210 <g_77+0x30>
   15920:	48 89 85 a0 f0 ff ff 	mov    %rax,-0xf60(%rbp)
   15927:	c7 85 40 ec ff ff 00 	movl   $0x0,-0x13c0(%rbp)
   1592e:	00 00 00 
   15931:	eb 1b                	jmp    1594e <func_111+0xb29>
   15933:	8b 85 40 ec ff ff    	mov    -0x13c0(%rbp),%eax
   15939:	48 98                	cltq   
   1593b:	48 c7 84 c5 e8 ee ff 	movq   $0x0,-0x1118(%rbp,%rax,8)
   15942:	ff 00 00 00 00 
   15947:	83 85 40 ec ff ff 01 	addl   $0x1,-0x13c0(%rbp)
   1594e:	83 bd 40 ec ff ff 00 	cmpl   $0x0,-0x13c0(%rbp)
   15955:	7e dc                	jle    15933 <func_111+0xb0e>
   15957:	0f b7 05 cc a9 00 00 	movzwl 0xa9cc(%rip),%eax        # 2032a <g_145>
   1595e:	89 c2                	mov    %eax,%edx
   15960:	0f b7 85 cc eb ff ff 	movzwl -0x1434(%rbp),%eax
   15967:	21 d0                	and    %edx,%eax
   15969:	66 89 05 ba a9 00 00 	mov    %ax,0xa9ba(%rip)        # 2032a <g_145>
   15970:	0f b7 05 b3 a9 00 00 	movzwl 0xa9b3(%rip),%eax        # 2032a <g_145>
   15977:	66 85 c0             	test   %ax,%ax
   1597a:	0f 85 3e 01 00 00    	jne    15abe <func_111+0xc99>
   15980:	0f b7 85 cc eb ff ff 	movzwl -0x1434(%rbp),%eax
   15987:	0f bf d8             	movswl %ax,%ebx
   1598a:	48 8b 85 30 ee ff ff 	mov    -0x11d0(%rbp),%rax
   15991:	48 8b 10             	mov    (%rax),%rdx
   15994:	0f b7 85 cc eb ff ff 	movzwl -0x1434(%rbp),%eax
   1599b:	48 0f bf c0          	movswq %ax,%rax
   1599f:	48 09 c2             	or     %rax,%rdx
   159a2:	48 8b 85 30 ee ff ff 	mov    -0x11d0(%rbp),%rax
   159a9:	48 89 10             	mov    %rdx,(%rax)
   159ac:	0f b7 85 cc eb ff ff 	movzwl -0x1434(%rbp),%eax
   159b3:	0f b7 c0             	movzwl %ax,%eax
   159b6:	25 fa ff 00 00       	and    $0xfffa,%eax
   159bb:	be 0a 00 00 00       	mov    $0xa,%esi
   159c0:	89 c7                	mov    %eax,%edi
   159c2:	e8 3f 14 ff ff       	callq  6e06 <safe_lshift_func_uint16_t_u_u>
   159c7:	89 c2                	mov    %eax,%edx
   159c9:	8b 05 01 a8 00 00    	mov    0xa801(%rip),%eax        # 201d0 <g_50>
   159cf:	21 d0                	and    %edx,%eax
   159d1:	66 89 85 4e f4 ff ff 	mov    %ax,-0xbb2(%rbp)
   159d8:	b9 01 00 00 00       	mov    $0x1,%ecx
   159dd:	48 8b 85 20 ed ff ff 	mov    -0x12e0(%rbp),%rax
   159e4:	8b 10                	mov    (%rax),%edx
   159e6:	48 8b 85 20 ed ff ff 	mov    -0x12e0(%rbp),%rax
   159ed:	21 ca                	and    %ecx,%edx
   159ef:	89 10                	mov    %edx,(%rax)
   159f1:	8b 85 f4 eb ff ff    	mov    -0x140c(%rbp),%eax
   159f7:	48 98                	cltq   
   159f9:	48 8d 15 21 a9 00 00 	lea    0xa921(%rip),%rdx        # 20321 <g_121>
   15a00:	0f b6 04 10          	movzbl (%rax,%rdx,1),%eax
   15a04:	83 c8 01             	or     $0x1,%eax
   15a07:	0f be c0             	movsbl %al,%eax
   15a0a:	89 de                	mov    %ebx,%esi
   15a0c:	89 c7                	mov    %eax,%edi
   15a0e:	e8 ea 14 ff ff       	callq  6efd <safe_mod_func_uint32_t_u_u>
   15a13:	89 c0                	mov    %eax,%eax
   15a15:	48 89 c7             	mov    %rax,%rdi
   15a18:	e8 f9 0d ff ff       	callq  6816 <safe_unary_minus_func_int64_t_s>
   15a1d:	48 8b 95 40 ee ff ff 	mov    -0x11c0(%rbp),%rdx
   15a24:	8b 12                	mov    (%rdx),%edx
   15a26:	21 d0                	and    %edx,%eax
   15a28:	89 c2                	mov    %eax,%edx
   15a2a:	48 8b 85 40 ee ff ff 	mov    -0x11c0(%rbp),%rax
   15a31:	89 10                	mov    %edx,(%rax)
   15a33:	48 8b 85 40 ee ff ff 	mov    -0x11c0(%rbp),%rax
   15a3a:	8b 00                	mov    (%rax),%eax
   15a3c:	85 c0                	test   %eax,%eax
   15a3e:	74 13                	je     15a53 <func_111+0xc2e>
   15a40:	0f b7 85 e2 f4 ff ff 	movzwl -0xb1e(%rbp),%eax
   15a47:	66 85 c0             	test   %ax,%ax
   15a4a:	74 07                	je     15a53 <func_111+0xc2e>
   15a4c:	b8 01 00 00 00       	mov    $0x1,%eax
   15a51:	eb 05                	jmp    15a58 <func_111+0xc33>
   15a53:	b8 00 00 00 00       	mov    $0x0,%eax
   15a58:	0f bf d0             	movswl %ax,%edx
   15a5b:	b8 de e5 ff ff       	mov    $0xffffe5de,%eax
   15a60:	98                   	cwtl   
   15a61:	89 d6                	mov    %edx,%esi
   15a63:	89 c7                	mov    %eax,%edi
   15a65:	e8 8b 09 ff ff       	callq  63f5 <safe_mul_func_int16_t_s_s>
   15a6a:	0f b7 95 cc eb ff ff 	movzwl -0x1434(%rbp),%edx
   15a71:	66 39 d0             	cmp    %dx,%ax
   15a74:	0f 9e c0             	setle  %al
   15a77:	0f b6 c0             	movzbl %al,%eax
   15a7a:	be 4b 4b 00 00       	mov    $0x4b4b,%esi
   15a7f:	89 c7                	mov    %eax,%edi
   15a81:	e8 90 09 ff ff       	callq  6416 <safe_mod_func_int16_t_s_s>
   15a86:	0f b7 85 e0 eb ff ff 	movzwl -0x1420(%rbp),%eax
   15a8d:	0f b7 c0             	movzwl %ax,%eax
   15a90:	0f b7 95 e0 eb ff ff 	movzwl -0x1420(%rbp),%edx
   15a97:	0f b7 d2             	movzwl %dx,%edx
   15a9a:	8d 4a 02             	lea    0x2(%rdx),%ecx
   15a9d:	48 63 d0             	movslq %eax,%rdx
   15aa0:	48 89 d0             	mov    %rdx,%rax
   15aa3:	48 c1 e0 02          	shl    $0x2,%rax
   15aa7:	48 01 d0             	add    %rdx,%rax
   15aaa:	48 c1 e0 03          	shl    $0x3,%rax
   15aae:	48 63 d1             	movslq %ecx,%rdx
   15ab1:	48 89 d0             	mov    %rdx,%rax
   15ab4:	48 c1 e0 02          	shl    $0x2,%rax
   15ab8:	48 01 d0             	add    %rdx,%rax
   15abb:	48 01 c0             	add    %rax,%rax
   15abe:	b8 de e5 ff ff       	mov    $0xffffe5de,%eax
   15ac3:	0f b7 c0             	movzwl %ax,%eax
   15ac6:	89 c6                	mov    %eax,%esi
   15ac8:	bf 79 37 00 00       	mov    $0x3779,%edi
   15acd:	e8 2d 12 ff ff       	callq  6cff <safe_add_func_uint16_t_u_u>
   15ad2:	ba 00 00 00 00       	mov    $0x0,%edx
   15ad7:	48 8b 85 48 ee ff ff 	mov    -0x11b8(%rbp),%rax
   15ade:	8b 00                	mov    (%rax),%eax
   15ae0:	21 c2                	and    %eax,%edx
   15ae2:	48 8b 85 48 ee ff ff 	mov    -0x11b8(%rbp),%rax
   15ae9:	89 10                	mov    %edx,(%rax)
   15aeb:	0f b6 05 2e a8 00 00 	movzbl 0xa82e(%rip),%eax        # 20320 <g_119>
   15af2:	0f be d8             	movsbl %al,%ebx
   15af5:	48 8b 95 28 ed ff ff 	mov    -0x12d8(%rbp),%rdx
   15afc:	48 8b 85 50 ee ff ff 	mov    -0x11b0(%rbp),%rax
   15b03:	48 89 10             	mov    %rdx,(%rax)
   15b06:	48 8b 85 50 ee ff ff 	mov    -0x11b0(%rbp),%rax
   15b0d:	48 8b 00             	mov    (%rax),%rax
   15b10:	48 39 85 f8 ed ff ff 	cmp    %rax,-0x1208(%rbp)
   15b17:	0f 94 c0             	sete   %al
   15b1a:	0f b6 c0             	movzbl %al,%eax
   15b1d:	89 85 c0 eb ff ff    	mov    %eax,-0x1440(%rbp)
   15b23:	48 8b 85 30 ee ff ff 	mov    -0x11d0(%rbp),%rax
   15b2a:	48 8b 00             	mov    (%rax),%rax
   15b2d:	48 8d 50 01          	lea    0x1(%rax),%rdx
   15b31:	48 8b 85 30 ee ff ff 	mov    -0x11d0(%rbp),%rax
   15b38:	48 89 10             	mov    %rdx,(%rax)
   15b3b:	48 8b 85 30 ee ff ff 	mov    -0x11d0(%rbp),%rax
   15b42:	48 8b 30             	mov    (%rax),%rsi
   15b45:	48 89 b5 b8 eb ff ff 	mov    %rsi,-0x1448(%rbp)
   15b4c:	0f b7 85 cc eb ff ff 	movzwl -0x1434(%rbp),%eax
   15b53:	4c 0f bf e0          	movswq %ax,%r12
   15b57:	0f b7 85 cc eb ff ff 	movzwl -0x1434(%rbp),%eax
   15b5e:	44 0f bf e8          	movswl %ax,%r13d
   15b62:	0f b7 85 cc eb ff ff 	movzwl -0x1434(%rbp),%eax
   15b69:	66 85 c0             	test   %ax,%ax
   15b6c:	0f 94 c0             	sete   %al
   15b6f:	0f b6 f8             	movzbl %al,%edi
   15b72:	89 bd c8 eb ff ff    	mov    %edi,-0x1438(%rbp)
   15b78:	0f b7 85 e4 eb ff ff 	movzwl -0x141c(%rbp),%eax
   15b7f:	44 0f bf f0          	movswl %ax,%r14d
   15b83:	8b 15 b3 a7 00 00    	mov    0xa7b3(%rip),%edx        # 2033c <g_163>
   15b89:	48 8b 85 f8 ed ff ff 	mov    -0x1208(%rbp),%rax
   15b90:	89 10                	mov    %edx,(%rax)
   15b92:	48 8b 85 f8 ed ff ff 	mov    -0x1208(%rbp),%rax
   15b99:	8b 10                	mov    (%rax),%edx
   15b9b:	89 95 b4 eb ff ff    	mov    %edx,-0x144c(%rbp)
   15ba1:	0f b7 85 cc eb ff ff 	movzwl -0x1434(%rbp),%eax
   15ba8:	44 0f bf f8          	movswl %ax,%r15d
   15bac:	8b 05 f6 a6 00 00    	mov    0xa6f6(%rip),%eax        # 202a8 <g_77+0xc8>
   15bb2:	44 0f bf c0          	movswl %ax,%r8d
   15bb6:	44 89 85 b0 eb ff ff 	mov    %r8d,-0x1450(%rbp)
   15bbd:	8b 85 60 ec ff ff    	mov    -0x13a0(%rbp),%eax
   15bc3:	4c 63 c8             	movslq %eax,%r9
   15bc6:	4c 89 8d a8 eb ff ff 	mov    %r9,-0x1458(%rbp)
   15bcd:	0f b7 85 e0 eb ff ff 	movzwl -0x1420(%rbp),%eax
   15bd4:	0f b7 c0             	movzwl %ax,%eax
   15bd7:	0f b7 95 e0 eb ff ff 	movzwl -0x1420(%rbp),%edx
   15bde:	0f b7 d2             	movzwl %dx,%edx
   15be1:	8d 4a 02             	lea    0x2(%rdx),%ecx
   15be4:	8b 95 f4 eb ff ff    	mov    -0x140c(%rbp),%edx
   15bea:	83 c2 02             	add    $0x2,%edx
   15bed:	48 63 f2             	movslq %edx,%rsi
   15bf0:	48 98                	cltq   
   15bf2:	48 63 c9             	movslq %ecx,%rcx
   15bf5:	48 89 c2             	mov    %rax,%rdx
   15bf8:	48 c1 e2 02          	shl    $0x2,%rdx
   15bfc:	48 01 c2             	add    %rax,%rdx
   15bff:	48 8d 04 d5 00 00 00 	lea    0x0(,%rdx,8),%rax
   15c06:	00 
   15c07:	48 89 c2             	mov    %rax,%rdx
   15c0a:	48 89 c8             	mov    %rcx,%rax
   15c0d:	48 c1 e0 02          	shl    $0x2,%rax
   15c11:	48 01 c8             	add    %rcx,%rax
   15c14:	48 01 c0             	add    %rax,%rax
   15c17:	48 01 d0             	add    %rdx,%rax
   15c1a:	48 01 f0             	add    %rsi,%rax
   15c1d:	48 8d 14 85 00 00 00 	lea    0x0(,%rax,4),%rdx
   15c24:	00 
   15c25:	48 8d 05 b4 a5 00 00 	lea    0xa5b4(%rip),%rax        # 201e0 <g_77>
   15c2c:	8b 04 02             	mov    (%rdx,%rax,1),%eax
   15c2f:	0f b6 f0             	movzbl %al,%esi
   15c32:	0f b7 85 e0 eb ff ff 	movzwl -0x1420(%rbp),%eax
   15c39:	0f b7 d0             	movzwl %ax,%edx
   15c3c:	0f b7 85 e0 eb ff ff 	movzwl -0x1420(%rbp),%eax
   15c43:	0f b7 c0             	movzwl %ax,%eax
   15c46:	8d 48 02             	lea    0x2(%rax),%ecx
   15c49:	8b 85 f4 eb ff ff    	mov    -0x140c(%rbp),%eax
   15c4f:	83 c0 02             	add    $0x2,%eax
   15c52:	48 63 f8             	movslq %eax,%rdi
   15c55:	48 63 c2             	movslq %edx,%rax
   15c58:	48 63 c9             	movslq %ecx,%rcx
   15c5b:	48 89 c2             	mov    %rax,%rdx
   15c5e:	48 c1 e2 02          	shl    $0x2,%rdx
   15c62:	48 01 c2             	add    %rax,%rdx
   15c65:	48 8d 04 d5 00 00 00 	lea    0x0(,%rdx,8),%rax
   15c6c:	00 
   15c6d:	48 89 c2             	mov    %rax,%rdx
   15c70:	48 89 c8             	mov    %rcx,%rax
   15c73:	48 c1 e0 02          	shl    $0x2,%rax
   15c77:	48 01 c8             	add    %rcx,%rax
   15c7a:	48 01 c0             	add    %rax,%rax
   15c7d:	48 01 d0             	add    %rdx,%rax
   15c80:	48 01 f8             	add    %rdi,%rax
   15c83:	48 8d 14 85 00 00 00 	lea    0x0(,%rax,4),%rdx
   15c8a:	00 
   15c8b:	48 8d 05 4e a5 00 00 	lea    0xa54e(%rip),%rax        # 201e0 <g_77>
   15c92:	8b 04 02             	mov    (%rdx,%rax,1),%eax
   15c95:	0f b6 c0             	movzbl %al,%eax
   15c98:	89 c7                	mov    %eax,%edi
   15c9a:	e8 f4 0e ff ff       	callq  6b93 <safe_mul_func_uint8_t_u_u>
   15c9f:	0f b6 d0             	movzbl %al,%edx
   15ca2:	0f b7 85 cc eb ff ff 	movzwl -0x1434(%rbp),%eax
   15ca9:	98                   	cwtl   
   15caa:	39 c2                	cmp    %eax,%edx
   15cac:	0f 9e c0             	setle  %al
   15caf:	0f b6 c0             	movzbl %al,%eax
   15cb2:	48 8b b5 a8 eb ff ff 	mov    -0x1458(%rbp),%rsi
   15cb9:	48 89 c7             	mov    %rax,%rdi
   15cbc:	e8 f3 0c ff ff       	callq  69b4 <safe_mod_func_int64_t_s_s>
   15cc1:	0f be c0             	movsbl %al,%eax
   15cc4:	89 c7                	mov    %eax,%edi
   15cc6:	e8 f4 04 ff ff       	callq  61bf <safe_unary_minus_func_int8_t_s>
   15ccb:	0f be c0             	movsbl %al,%eax
   15cce:	8b b5 b0 eb ff ff    	mov    -0x1450(%rbp),%esi
   15cd4:	89 c7                	mov    %eax,%edi
   15cd6:	e8 3b 07 ff ff       	callq  6416 <safe_mod_func_int16_t_s_s>
   15cdb:	0f b6 05 56 a6 00 00 	movzbl 0xa656(%rip),%eax        # 20338 <g_159>
   15ce2:	84 c0                	test   %al,%al
   15ce4:	0f 94 c0             	sete   %al
   15ce7:	0f b6 c0             	movzbl %al,%eax
   15cea:	48 89 c7             	mov    %rax,%rdi
   15ced:	e8 27 13 ff ff       	callq  7019 <safe_unary_minus_func_uint64_t_u>
   15cf2:	83 e0 09             	and    $0x9,%eax
   15cf5:	44 89 fe             	mov    %r15d,%esi
   15cf8:	89 c7                	mov    %eax,%edi
   15cfa:	e8 cd 09 ff ff       	callq  66cc <safe_mod_func_int32_t_s_s>
   15cff:	3d 4a 04 00 00       	cmp    $0x44a,%eax
   15d04:	0f 9f c0             	setg   %al
   15d07:	0f b6 c0             	movzbl %al,%eax
   15d0a:	be fa ff ff ff       	mov    $0xfffffffa,%esi
   15d0f:	89 c7                	mov    %eax,%edi
   15d11:	e8 54 05 ff ff       	callq  626a <safe_div_func_int8_t_s_s>
   15d16:	0f be c0             	movsbl %al,%eax
   15d19:	39 85 b4 eb ff ff    	cmp    %eax,-0x144c(%rbp)
   15d1f:	0f 95 c0             	setne  %al
   15d22:	0f b6 c0             	movzbl %al,%eax
   15d25:	44 89 f6             	mov    %r14d,%esi
   15d28:	89 c7                	mov    %eax,%edi
   15d2a:	e8 87 08 ff ff       	callq  65b6 <safe_add_func_int32_t_s_s>
   15d2f:	0f b7 05 96 a4 00 00 	movzwl 0xa496(%rip),%eax        # 201cc <g_43>
   15d36:	0f b7 d0             	movzwl %ax,%edx
   15d39:	48 8b 85 48 ee ff ff 	mov    -0x11b8(%rbp),%rax
   15d40:	8b 00                	mov    (%rax),%eax
   15d42:	89 d6                	mov    %edx,%esi
   15d44:	89 c7                	mov    %eax,%edi
   15d46:	e8 b4 09 ff ff       	callq  66ff <safe_div_func_int32_t_s_s>
   15d4b:	39 85 c8 eb ff ff    	cmp    %eax,-0x1438(%rbp)
   15d51:	0f 9d c0             	setge  %al
   15d54:	0f b6 c0             	movzbl %al,%eax
   15d57:	44 89 ee             	mov    %r13d,%esi
   15d5a:	89 c7                	mov    %eax,%edi
   15d5c:	e8 19 11 ff ff       	callq  6e7a <safe_rshift_func_uint16_t_u_u>
   15d61:	0f b7 c0             	movzwl %ax,%eax
   15d64:	4c 89 e6             	mov    %r12,%rsi
   15d67:	48 89 c7             	mov    %rax,%rdi
   15d6a:	e8 40 13 ff ff       	callq  70af <safe_div_func_uint64_t_u_u>
   15d6f:	be f7 ff 00 00       	mov    $0xfff7,%esi
   15d74:	bf 01 00 00 00       	mov    $0x1,%edi
   15d79:	e8 a1 0f ff ff       	callq  6d1f <safe_sub_func_uint16_t_u_u>
   15d7e:	0f b7 c0             	movzwl %ax,%eax
   15d81:	48 39 85 b8 eb ff ff 	cmp    %rax,-0x1448(%rbp)
   15d88:	0f 92 c0             	setb   %al
   15d8b:	0f b6 c0             	movzbl %al,%eax
   15d8e:	39 85 c0 eb ff ff    	cmp    %eax,-0x1440(%rbp)
   15d94:	7c 0a                	jl     15da0 <func_111+0xf7b>
   15d96:	0f b7 85 e0 eb ff ff 	movzwl -0x1420(%rbp),%eax
   15d9d:	66 85 c0             	test   %ax,%ax
   15da0:	48 be f2 af fc 7f b4 	movabs $0xf3555bb47ffcaff2,%rsi
   15da7:	5b 55 f3 
   15daa:	48 c7 c7 f8 ff ff ff 	mov    $0xfffffffffffffff8,%rdi
   15db1:	e8 f2 0a ff ff       	callq  68a8 <safe_sub_func_int64_t_s_s>
   15db6:	83 bd 60 ec ff ff 00 	cmpl   $0x0,-0x13a0(%rbp)
   15dbd:	75 0c                	jne    15dcb <func_111+0xfa6>
   15dbf:	0f b7 85 cc eb ff ff 	movzwl -0x1434(%rbp),%eax
   15dc6:	66 85 c0             	test   %ax,%ax
   15dc9:	74 07                	je     15dd2 <func_111+0xfad>
   15dcb:	b8 01 00 00 00       	mov    $0x1,%eax
   15dd0:	eb 05                	jmp    15dd7 <func_111+0xfb2>
   15dd2:	b8 00 00 00 00       	mov    $0x0,%eax
   15dd7:	98                   	cwtl   
   15dd8:	89 de                	mov    %ebx,%esi
   15dda:	89 c7                	mov    %eax,%edi
   15ddc:	e8 74 06 ff ff       	callq  6455 <safe_div_func_int16_t_s_s>
   15de1:	98                   	cwtl   
   15de2:	be f9 ff ff ff       	mov    $0xfffffff9,%esi
   15de7:	89 c7                	mov    %eax,%edi
   15de9:	e8 c5 05 ff ff       	callq  63b3 <safe_add_func_int16_t_s_s>
   15dee:	0f bf d0             	movswl %ax,%edx
   15df1:	8b 85 f8 eb ff ff    	mov    -0x1408(%rbp),%eax
   15df7:	09 d0                	or     %edx,%eax
   15df9:	89 85 f8 eb ff ff    	mov    %eax,-0x1408(%rbp)
   15dff:	83 ad 1c ec ff ff 01 	subl   $0x1,-0x13e4(%rbp)
   15e06:	8b 85 90 ec ff ff    	mov    -0x1370(%rbp),%eax
   15e0c:	48 63 d8             	movslq %eax,%rbx
   15e0f:	8b 05 eb a3 00 00    	mov    0xa3eb(%rip),%eax        # 20200 <g_77+0x20>
   15e15:	4c 63 e0             	movslq %eax,%r12
   15e18:	0f b7 85 e6 eb ff ff 	movzwl -0x141a(%rbp),%eax
   15e1f:	66 85 c0             	test   %ax,%ax
   15e22:	74 37                	je     15e5b <func_111+0x1036>
   15e24:	0f b7 85 cc eb ff ff 	movzwl -0x1434(%rbp),%eax
   15e2b:	44 0f be e8          	movsbl %al,%r13d
   15e2f:	be 0d 00 00 00       	mov    $0xd,%esi
   15e34:	bf 00 00 00 00       	mov    $0x0,%edi
   15e39:	e8 54 06 ff ff       	callq  6492 <safe_lshift_func_int16_t_s_s>
   15e3e:	44 89 ee             	mov    %r13d,%esi
   15e41:	bf 00 00 00 00       	mov    $0x0,%edi
   15e46:	e8 89 03 ff ff       	callq  61d4 <safe_add_func_int8_t_s_s>
   15e4b:	0f b6 c0             	movzbl %al,%eax
   15e4e:	be 02 00 00 00       	mov    $0x2,%esi
   15e53:	89 c7                	mov    %eax,%edi
   15e55:	e8 64 0e ff ff       	callq  6cbe <safe_rshift_func_uint8_t_u_u>
   15e5a:	90                   	nop
   15e5b:	0f b7 85 cc eb ff ff 	movzwl -0x1434(%rbp),%eax
   15e62:	98                   	cwtl   
   15e63:	be 01 00 00 00       	mov    $0x1,%esi
   15e68:	89 c7                	mov    %eax,%edi
   15e6a:	e8 86 05 ff ff       	callq  63f5 <safe_mul_func_int16_t_s_s>
   15e6f:	66 85 c0             	test   %ax,%ax
   15e72:	75 0a                	jne    15e7e <func_111+0x1059>
   15e74:	0f b7 85 cc eb ff ff 	movzwl -0x1434(%rbp),%eax
   15e7b:	66 85 c0             	test   %ax,%ax
   15e7e:	0f b7 85 cc eb ff ff 	movzwl -0x1434(%rbp),%eax
   15e85:	0f bf d0             	movswl %ax,%edx
   15e88:	48 8b 85 58 ee ff ff 	mov    -0x11a8(%rbp),%rax
   15e8f:	8b 00                	mov    (%rax),%eax
   15e91:	48 98                	cltq   
   15e93:	48 b9 31 05 fd 8a 19 	movabs $0xbde149198afd0531,%rcx
   15e9a:	49 e1 bd 
   15e9d:	48 09 c1             	or     %rax,%rcx
   15ea0:	8b 85 14 ec ff ff    	mov    -0x13ec(%rbp),%eax
   15ea6:	85 c0                	test   %eax,%eax
   15ea8:	0f 94 c0             	sete   %al
   15eab:	0f b6 c0             	movzbl %al,%eax
   15eae:	48 39 c1             	cmp    %rax,%rcx
   15eb1:	0f 97 c0             	seta   %al
   15eb4:	0f b6 c0             	movzbl %al,%eax
   15eb7:	39 c2                	cmp    %eax,%edx
   15eb9:	7d 07                	jge    15ec2 <func_111+0x109d>
   15ebb:	ba 01 00 00 00       	mov    $0x1,%edx
   15ec0:	eb 05                	jmp    15ec7 <func_111+0x10a2>
   15ec2:	ba 00 00 00 00       	mov    $0x0,%edx
   15ec7:	8b 85 90 ec ff ff    	mov    -0x1370(%rbp),%eax
   15ecd:	89 c6                	mov    %eax,%esi
   15ecf:	89 d7                	mov    %edx,%edi
   15ed1:	e8 72 0f ff ff       	callq  6e48 <safe_rshift_func_uint16_t_u_s>
   15ed6:	0f b7 c0             	movzwl %ax,%eax
   15ed9:	4c 89 e6             	mov    %r12,%rsi
   15edc:	48 89 c7             	mov    %rax,%rdi
   15edf:	e8 4a 11 ff ff       	callq  702e <safe_add_func_uint64_t_u_u>
   15ee4:	48 89 de             	mov    %rbx,%rsi
   15ee7:	48 89 c7             	mov    %rax,%rdi
   15eea:	e8 3f 11 ff ff       	callq  702e <safe_add_func_uint64_t_u_u>
   15eef:	0f b7 85 cc eb ff ff 	movzwl -0x1434(%rbp),%eax
   15ef6:	0f bf d0             	movswl %ax,%edx
   15ef9:	48 8b 85 58 ee ff ff 	mov    -0x11a8(%rbp),%rax
   15f00:	89 10                	mov    %edx,(%rax)
   15f02:	e9 99 00 00 00       	jmpq   15fa0 <func_111+0x117b>
   15f07:	48 8d 85 18 ec ff ff 	lea    -0x13e8(%rbp),%rax
   15f0e:	48 89 85 20 ee ff ff 	mov    %rax,-0x11e0(%rbp)
   15f15:	48 8d 85 fc eb ff ff 	lea    -0x1404(%rbp),%rax
   15f1c:	48 89 85 28 ee ff ff 	mov    %rax,-0x11d8(%rbp)
   15f23:	48 8d 85 f8 eb ff ff 	lea    -0x1408(%rbp),%rax
   15f2a:	48 89 85 70 f0 ff ff 	mov    %rax,-0xf90(%rbp)
   15f31:	48 c7 85 78 f0 ff ff 	movq   $0x0,-0xf88(%rbp)
   15f38:	00 00 00 00 
   15f3c:	48 c7 85 80 f0 ff ff 	movq   $0x0,-0xf80(%rbp)
   15f43:	00 00 00 00 
   15f47:	48 8d 85 f8 eb ff ff 	lea    -0x1408(%rbp),%rax
   15f4e:	48 89 85 88 f0 ff ff 	mov    %rax,-0xf78(%rbp)
   15f55:	48 c7 85 90 f0 ff ff 	movq   $0x0,-0xf70(%rbp)
   15f5c:	00 00 00 00 
   15f60:	48 c7 85 98 f0 ff ff 	movq   $0x0,-0xf68(%rbp)
   15f67:	00 00 00 00 
   15f6b:	48 8d 85 f8 eb ff ff 	lea    -0x1408(%rbp),%rax
   15f72:	48 89 85 a0 f0 ff ff 	mov    %rax,-0xf60(%rbp)
   15f79:	48 c7 85 a8 f0 ff ff 	movq   $0x0,-0xf58(%rbp)
   15f80:	00 00 00 00 
   15f84:	48 c7 85 b0 f0 ff ff 	movq   $0x0,-0xf50(%rbp)
   15f8b:	00 00 00 00 
   15f8f:	c7 85 9c ec ff ff cf 	movl   $0xdbffb3cf,-0x1364(%rbp)
   15f96:	b3 ff db 
   15f99:	83 ad 98 ec ff ff 01 	subl   $0x1,-0x1368(%rbp)
   15fa0:	8b 85 24 f1 ff ff    	mov    -0xedc(%rbp),%eax
   15fa6:	83 c0 01             	add    $0x1,%eax
   15fa9:	89 85 24 f1 ff ff    	mov    %eax,-0xedc(%rbp)
   15faf:	66 c7 05 70 a3 00 00 	movw   $0x0,0xa370(%rip)        # 20328 <g_138>
   15fb6:	00 00 
   15fb8:	e9 a9 00 00 00       	jmpq   16066 <func_111+0x1241>
   15fbd:	c7 85 38 ec ff ff 00 	movl   $0x0,-0x13c8(%rbp)
   15fc4:	00 00 00 
   15fc7:	eb 7f                	jmp    16048 <func_111+0x1223>
   15fc9:	c7 85 20 ec ff ff 00 	movl   $0x0,-0x13e0(%rbp)
   15fd0:	00 00 00 
   15fd3:	eb 63                	jmp    16038 <func_111+0x1213>
   15fd5:	0f b7 05 4c a3 00 00 	movzwl 0xa34c(%rip),%eax        # 20328 <g_138>
   15fdc:	0f b7 c0             	movzwl %ax,%eax
   15fdf:	8b 95 20 ec ff ff    	mov    -0x13e0(%rbp),%edx
   15fe5:	48 63 f2             	movslq %edx,%rsi
   15fe8:	48 98                	cltq   
   15fea:	8b 95 38 ec ff ff    	mov    -0x13c8(%rbp),%edx
   15ff0:	48 63 ca             	movslq %edx,%rcx
   15ff3:	48 89 c2             	mov    %rax,%rdx
   15ff6:	48 c1 e2 02          	shl    $0x2,%rdx
   15ffa:	48 01 c2             	add    %rax,%rdx
   15ffd:	48 8d 04 d5 00 00 00 	lea    0x0(,%rdx,8),%rax
   16004:	00 
   16005:	48 89 c2             	mov    %rax,%rdx
   16008:	48 89 c8             	mov    %rcx,%rax
   1600b:	48 c1 e0 02          	shl    $0x2,%rax
   1600f:	48 01 c8             	add    %rcx,%rax
   16012:	48 01 c0             	add    %rax,%rax
   16015:	48 01 d0             	add    %rdx,%rax
   16018:	48 01 f0             	add    %rsi,%rax
   1601b:	48 8d 14 85 00 00 00 	lea    0x0(,%rax,4),%rdx
   16022:	00 
   16023:	48 8d 05 b6 a1 00 00 	lea    0xa1b6(%rip),%rax        # 201e0 <g_77>
   1602a:	c7 04 02 73 de 11 c8 	movl   $0xc811de73,(%rdx,%rax,1)
   16031:	83 85 20 ec ff ff 01 	addl   $0x1,-0x13e0(%rbp)
   16038:	83 bd 20 ec ff ff 09 	cmpl   $0x9,-0x13e0(%rbp)
   1603f:	7e 94                	jle    15fd5 <func_111+0x11b0>
   16041:	83 85 38 ec ff ff 01 	addl   $0x1,-0x13c8(%rbp)
   16048:	83 bd 38 ec ff ff 03 	cmpl   $0x3,-0x13c8(%rbp)
   1604f:	0f 8e 74 ff ff ff    	jle    15fc9 <func_111+0x11a4>
   16055:	0f b7 05 cc a2 00 00 	movzwl 0xa2cc(%rip),%eax        # 20328 <g_138>
   1605c:	83 c0 01             	add    $0x1,%eax
   1605f:	66 89 05 c2 a2 00 00 	mov    %ax,0xa2c2(%rip)        # 20328 <g_138>
   16066:	0f b7 05 bb a2 00 00 	movzwl 0xa2bb(%rip),%eax        # 20328 <g_138>
   1606d:	66 83 f8 01          	cmp    $0x1,%ax
   16071:	0f 86 46 ff ff ff    	jbe    15fbd <func_111+0x1198>
   16077:	48 8b 85 08 ee ff ff 	mov    -0x11f8(%rbp),%rax
   1607e:	48 8d 15 b3 a2 00 00 	lea    0xa2b3(%rip),%rdx        # 20338 <g_159>
   16085:	48 89 10             	mov    %rdx,(%rax)
   16088:	48 8b 85 08 ee ff ff 	mov    -0x11f8(%rbp),%rax
   1608f:	48 8b 00             	mov    (%rax),%rax
   16092:	48 8d 15 9f a2 00 00 	lea    0xa29f(%rip),%rdx        # 20338 <g_159>
   16099:	48 39 d0             	cmp    %rdx,%rax
   1609c:	74 14                	je     160b2 <func_111+0x128d>
   1609e:	0f b7 05 85 a2 00 00 	movzwl 0xa285(%rip),%eax        # 2032a <g_145>
   160a5:	0f b7 c0             	movzwl %ax,%eax
   160a8:	89 c7                	mov    %eax,%edi
   160aa:	e8 3a 0c ff ff       	callq  6ce9 <safe_unary_minus_func_uint16_t_u>
   160af:	66 85 c0             	test   %ax,%ax
   160b2:	8b 85 10 ef ff ff    	mov    -0x10f0(%rbp),%eax
   160b8:	0f b7 c0             	movzwl %ax,%eax
   160bb:	89 c6                	mov    %eax,%esi
   160bd:	bf 54 3b 00 00       	mov    $0x3b54,%edi
   160c2:	e8 c7 0c ff ff       	callq  6d8e <safe_div_func_uint16_t_u_u>
   160c7:	89 c1                	mov    %eax,%ecx
   160c9:	48 8b 85 10 ee ff ff 	mov    -0x11f0(%rbp),%rax
   160d0:	48 8d 95 cc eb ff ff 	lea    -0x1434(%rbp),%rdx
   160d7:	48 89 10             	mov    %rdx,(%rax)
   160da:	48 8b 85 10 ee ff ff 	mov    -0x11f0(%rbp),%rax
   160e1:	48 8b 00             	mov    (%rax),%rax
   160e4:	48 8d 15 6d 3f 00 00 	lea    0x3f6d(%rip),%rdx        # 1a058 <g_40>
   160eb:	48 39 d0             	cmp    %rdx,%rax
   160ee:	0f 94 c0             	sete   %al
   160f1:	09 c8                	or     %ecx,%eax
   160f3:	89 c2                	mov    %eax,%edx
   160f5:	48 8b 85 18 ee ff ff 	mov    -0x11e8(%rbp),%rax
   160fc:	88 10                	mov    %dl,(%rax)
   160fe:	48 8b 85 18 ee ff ff 	mov    -0x11e8(%rbp),%rax
   16105:	0f b6 00             	movzbl (%rax),%eax
   16108:	0f b6 d0             	movzbl %al,%edx
   1610b:	8b 85 f8 eb ff ff    	mov    -0x1408(%rbp),%eax
   16111:	31 d0                	xor    %edx,%eax
   16113:	89 85 f8 eb ff ff    	mov    %eax,-0x1408(%rbp)
   16119:	0f b7 85 cc eb ff ff 	movzwl -0x1434(%rbp),%eax
   16120:	98                   	cwtl   
   16121:	89 85 f8 ee ff ff    	mov    %eax,-0x1108(%rbp)
   16127:	8b 85 f8 ee ff ff    	mov    -0x1108(%rbp),%eax
   1612d:	85 c0                	test   %eax,%eax
   1612f:	0f 84 3b 01 00 00    	je     16270 <func_111+0x144b>
   16135:	c7 85 a4 ec ff ff 00 	movl   $0x0,-0x135c(%rbp)
   1613c:	00 00 00 
   1613f:	c7 85 a8 ec ff ff 00 	movl   $0x0,-0x1358(%rbp)
   16146:	00 00 00 
   16149:	c7 85 ac ec ff ff a5 	movl   $0x1e3811a5,-0x1354(%rbp)
   16150:	11 38 1e 
   16153:	c7 85 b0 ec ff ff b0 	movl   $0xb0cbccb0,-0x1350(%rbp)
   1615a:	cc cb b0 
   1615d:	c7 85 70 f0 ff ff 05 	movl   $0x5,-0xf90(%rbp)
   16164:	00 00 00 
   16167:	c7 85 74 f0 ff ff 05 	movl   $0x5,-0xf8c(%rbp)
   1616e:	00 00 00 
   16171:	c7 85 78 f0 ff ff 05 	movl   $0x5,-0xf88(%rbp)
   16178:	00 00 00 
   1617b:	c7 85 7c f0 ff ff 05 	movl   $0x5,-0xf84(%rbp)
   16182:	00 00 00 
   16185:	c7 85 80 f0 ff ff 05 	movl   $0x5,-0xf80(%rbp)
   1618c:	00 00 00 
   1618f:	c7 85 84 f0 ff ff 05 	movl   $0x5,-0xf7c(%rbp)
   16196:	00 00 00 
   16199:	c7 85 88 f0 ff ff 05 	movl   $0x5,-0xf78(%rbp)
   161a0:	00 00 00 
   161a3:	66 c7 85 f2 eb ff ff 	movw   $0x9,-0x140e(%rbp)
   161aa:	09 00 
   161ac:	66 83 85 f2 eb ff ff 	addw   $0x1,-0x140e(%rbp)
   161b3:	01 
   161b4:	0f b7 85 cc eb ff ff 	movzwl -0x1434(%rbp),%eax
   161bb:	0f bf d8             	movswl %ax,%ebx
   161be:	83 bd 24 ec ff ff 00 	cmpl   $0x0,-0x13dc(%rbp)
   161c5:	75 0c                	jne    161d3 <func_111+0x13ae>
   161c7:	48 8b 85 28 ef ff ff 	mov    -0x10d8(%rbp),%rax
   161ce:	48 85 c0             	test   %rax,%rax
   161d1:	74 08                	je     161db <func_111+0x13b6>
   161d3:	41 bc 01 00 00 00    	mov    $0x1,%r12d
   161d9:	eb 06                	jmp    161e1 <func_111+0x13bc>
   161db:	41 bc 00 00 00 00    	mov    $0x0,%r12d
   161e1:	0f b7 85 cc eb ff ff 	movzwl -0x1434(%rbp),%eax
   161e8:	0f bf d0             	movswl %ax,%edx
   161eb:	0f b7 85 cc eb ff ff 	movzwl -0x1434(%rbp),%eax
   161f2:	98                   	cwtl   
   161f3:	89 d6                	mov    %edx,%esi
   161f5:	89 c7                	mov    %eax,%edi
   161f7:	e8 f9 01 ff ff       	callq  63f5 <safe_mul_func_int16_t_s_s>
   161fc:	98                   	cwtl   
   161fd:	41 39 c4             	cmp    %eax,%r12d
   16200:	0f 9f c0             	setg   %al
   16203:	0f b6 c0             	movzbl %al,%eax
   16206:	f7 d0                	not    %eax
   16208:	89 c2                	mov    %eax,%edx
   1620a:	8b 85 b0 ec ff ff    	mov    -0x1350(%rbp),%eax
   16210:	0f b6 c0             	movzbl %al,%eax
   16213:	89 d6                	mov    %edx,%esi
   16215:	89 c7                	mov    %eax,%edi
   16217:	e8 e9 09 ff ff       	callq  6c05 <safe_lshift_func_uint8_t_u_s>
   1621c:	0f b6 d0             	movzbl %al,%edx
   1621f:	0f b7 85 cc eb ff ff 	movzwl -0x1434(%rbp),%eax
   16226:	0f bf c8             	movswl %ax,%ecx
   16229:	48 8b 85 30 ed ff ff 	mov    -0x12d0(%rbp),%rax
   16230:	c6 00 01             	movb   $0x1,(%rax)
   16233:	0f b6 85 b9 f9 ff ff 	movzbl -0x647(%rbp),%eax
   1623a:	83 e0 3f             	and    $0x3f,%eax
   1623d:	84 c0                	test   %al,%al
   1623f:	74 07                	je     16248 <func_111+0x1423>
   16241:	b8 01 00 00 00       	mov    $0x1,%eax
   16246:	eb 05                	jmp    1624d <func_111+0x1428>
   16248:	b8 00 00 00 00       	mov    $0x0,%eax
   1624d:	39 c8                	cmp    %ecx,%eax
   1624f:	0f 95 c0             	setne  %al
   16252:	0f b6 c0             	movzbl %al,%eax
   16255:	39 c2                	cmp    %eax,%edx
   16257:	0f 9c c0             	setl   %al
   1625a:	0f b6 c0             	movzbl %al,%eax
   1625d:	39 c3                	cmp    %eax,%ebx
   1625f:	0f 9d c0             	setge  %al
   16262:	0f b6 d0             	movzbl %al,%edx
   16265:	48 8b 85 00 ee ff ff 	mov    -0x1200(%rbp),%rax
   1626c:	89 10                	mov    %edx,(%rax)
   1626e:	eb 4b                	jmp    162bb <func_111+0x1496>
   16270:	48 b8 18 14 8b b4 be 	movabs $0x4e5c12beb48b1418,%rax
   16277:	12 5c 4e 
   1627a:	48 89 85 68 ee ff ff 	mov    %rax,-0x1198(%rbp)
   16281:	c7 85 a0 ec ff ff 9d 	movl   $0xdc625f9d,-0x1360(%rbp)
   16288:	5f 62 dc 
   1628b:	48 8d 85 00 ed ff ff 	lea    -0x1300(%rbp),%rax
   16292:	48 89 85 70 ee ff ff 	mov    %rax,-0x1190(%rbp)
   16299:	0f b7 85 e2 eb ff ff 	movzwl -0x141e(%rbp),%eax
   162a0:	83 c0 01             	add    $0x1,%eax
   162a3:	66 89 85 e2 eb ff ff 	mov    %ax,-0x141e(%rbp)
   162aa:	48 8b 85 70 ee ff ff 	mov    -0x1190(%rbp),%rax
   162b1:	48 8d 15 18 9f 00 00 	lea    0x9f18(%rip),%rdx        # 201d0 <g_50>
   162b8:	48 89 10             	mov    %rdx,(%rax)
   162bb:	0f b7 85 e0 eb ff ff 	movzwl -0x1420(%rbp),%eax
   162c2:	83 c0 01             	add    $0x1,%eax
   162c5:	66 89 85 e0 eb ff ff 	mov    %ax,-0x1420(%rbp)
   162cc:	0f b7 85 e0 eb ff ff 	movzwl -0x1420(%rbp),%eax
   162d3:	66 83 f8 01          	cmp    $0x1,%ax
   162d7:	0f 86 02 f4 ff ff    	jbe    156df <func_111+0x8ba>
   162dd:	c7 85 24 ec ff ff 18 	movl   $0x18,-0x13dc(%rbp)
   162e4:	00 00 00 
   162e7:	e9 65 02 00 00       	jmpq   16551 <func_111+0x172c>
   162ec:	c7 85 88 ec ff ff 05 	movl   $0x848e8005,-0x1378(%rbp)
   162f3:	80 8e 84 
   162f6:	48 8d 05 33 a0 00 00 	lea    0xa033(%rip),%rax        # 20330 <g_154>
   162fd:	48 89 85 90 f1 ff ff 	mov    %rax,-0xe70(%rbp)
   16304:	48 8d 05 25 a0 00 00 	lea    0xa025(%rip),%rax        # 20330 <g_154>
   1630b:	48 89 85 98 f1 ff ff 	mov    %rax,-0xe68(%rbp)
   16312:	48 8d 05 17 a0 00 00 	lea    0xa017(%rip),%rax        # 20330 <g_154>
   16319:	48 89 85 a0 f1 ff ff 	mov    %rax,-0xe60(%rbp)
   16320:	48 8d 05 09 a0 00 00 	lea    0xa009(%rip),%rax        # 20330 <g_154>
   16327:	48 89 85 a8 f1 ff ff 	mov    %rax,-0xe58(%rbp)
   1632e:	48 8d 05 fb 9f 00 00 	lea    0x9ffb(%rip),%rax        # 20330 <g_154>
   16335:	48 89 85 b0 f1 ff ff 	mov    %rax,-0xe50(%rbp)
   1633c:	48 8d 05 ed 9f 00 00 	lea    0x9fed(%rip),%rax        # 20330 <g_154>
   16343:	48 89 85 b8 f1 ff ff 	mov    %rax,-0xe48(%rbp)
   1634a:	48 8d 05 df 9f 00 00 	lea    0x9fdf(%rip),%rax        # 20330 <g_154>
   16351:	48 89 85 c0 f1 ff ff 	mov    %rax,-0xe40(%rbp)
   16358:	48 8d 05 d1 9f 00 00 	lea    0x9fd1(%rip),%rax        # 20330 <g_154>
   1635f:	48 89 85 c8 f1 ff ff 	mov    %rax,-0xe38(%rbp)
   16366:	48 8d 05 c3 9f 00 00 	lea    0x9fc3(%rip),%rax        # 20330 <g_154>
   1636d:	48 89 85 d0 f1 ff ff 	mov    %rax,-0xe30(%rbp)
   16374:	c7 85 8c ec ff ff 01 	movl   $0x1,-0x1374(%rbp)
   1637b:	00 00 00 
   1637e:	c7 85 44 ec ff ff 00 	movl   $0x0,-0x13bc(%rbp)
   16385:	00 00 00 
   16388:	eb 1b                	jmp    163a5 <func_111+0x1580>
   1638a:	8b 85 44 ec ff ff    	mov    -0x13bc(%rbp),%eax
   16390:	48 98                	cltq   
   16392:	48 c7 84 c5 70 f0 ff 	movq   $0x0,-0xf90(%rbp,%rax,8)
   16399:	ff 00 00 00 00 
   1639e:	83 85 44 ec ff ff 01 	addl   $0x1,-0x13bc(%rbp)
   163a5:	83 bd 44 ec ff ff 04 	cmpl   $0x4,-0x13bc(%rbp)
   163ac:	7e dc                	jle    1638a <func_111+0x1565>
   163ae:	48 8d 85 f4 ee ff ff 	lea    -0x110c(%rbp),%rax
   163b5:	48 83 c0 08          	add    $0x8,%rax
   163b9:	48 89 85 d8 ec ff ff 	mov    %rax,-0x1328(%rbp)
   163c0:	c6 05 71 9f 00 00 00 	movb   $0x0,0x9f71(%rip)        # 20338 <g_159>
   163c7:	90                   	nop
   163c8:	0f b6 05 69 9f 00 00 	movzbl 0x9f69(%rip),%eax        # 20338 <g_159>
   163cf:	3c 02                	cmp    $0x2,%al
   163d1:	77 1a                	ja     163ed <func_111+0x15c8>
   163d3:	0f b6 05 5e 9f 00 00 	movzbl 0x9f5e(%rip),%eax        # 20338 <g_159>
   163da:	0f b6 c0             	movzbl %al,%eax
   163dd:	48 98                	cltq   
   163df:	8b 84 85 f4 ee ff ff 	mov    -0x110c(%rbp,%rax,4),%eax
   163e6:	48 98                	cltq   
   163e8:	e9 67 24 00 00       	jmpq   18854 <func_111+0x3a2f>
   163ed:	8b 85 f8 ee ff ff    	mov    -0x1108(%rbp),%eax
   163f3:	85 c0                	test   %eax,%eax
   163f5:	0f 85 3a 01 00 00    	jne    16535 <func_111+0x1710>
   163fb:	0f b7 85 cc eb ff ff 	movzwl -0x1434(%rbp),%eax
   16402:	44 0f bf f0          	movswl %ax,%r14d
   16406:	0f b6 05 15 9f 00 00 	movzbl 0x9f15(%rip),%eax        # 20322 <g_121+0x1>
   1640d:	44 0f be f8          	movsbl %al,%r15d
   16411:	8b 9d a8 ef ff ff    	mov    -0x1058(%rbp),%ebx
   16417:	8b 05 1f 9f 00 00    	mov    0x9f1f(%rip),%eax        # 2033c <g_163>
   1641d:	44 0f be e0          	movsbl %al,%r12d
   16421:	0f b6 05 11 9f 00 00 	movzbl 0x9f11(%rip),%eax        # 20339 <g_159+0x1>
   16428:	c1 e0 02             	shl    $0x2,%eax
   1642b:	c0 f8 02             	sar    $0x2,%al
   1642e:	44 0f b6 e8          	movzbl %al,%r13d
   16432:	8b 05 70 9e 00 00    	mov    0x9e70(%rip),%eax        # 202a8 <g_77+0xc8>
   16438:	48 63 d0             	movslq %eax,%rdx
   1643b:	8b 85 14 ec ff ff    	mov    -0x13ec(%rbp),%eax
   16441:	88 05 f1 9e 00 00    	mov    %al,0x9ef1(%rip)        # 20338 <g_159>
   16447:	0f b6 05 ea 9e 00 00 	movzbl 0x9eea(%rip),%eax        # 20338 <g_159>
   1644e:	83 c8 fa             	or     $0xfffffffa,%eax
   16451:	0f b6 c0             	movzbl %al,%eax
   16454:	48 31 c2             	xor    %rax,%rdx
   16457:	8b 05 73 9d 00 00    	mov    0x9d73(%rip),%eax        # 201d0 <g_50>
   1645d:	48 98                	cltq   
   1645f:	48 09 d0             	or     %rdx,%rax
   16462:	48 85 c0             	test   %rax,%rax
   16465:	75 09                	jne    16470 <func_111+0x164b>
   16467:	83 bd 88 ec ff ff 00 	cmpl   $0x0,-0x1378(%rbp)
   1646e:	74 07                	je     16477 <func_111+0x1652>
   16470:	b8 01 00 00 00       	mov    $0x1,%eax
   16475:	eb 05                	jmp    1647c <func_111+0x1657>
   16477:	b8 00 00 00 00       	mov    $0x0,%eax
   1647c:	0f be c0             	movsbl %al,%eax
   1647f:	be 00 00 00 00       	mov    $0x0,%esi
   16484:	89 c7                	mov    %eax,%edi
   16486:	e8 e1 fe fe ff       	callq  636c <safe_rshift_func_int8_t_s_u>
   1648b:	48 0f be c0          	movsbq %al,%rax
   1648f:	48 89 c7             	mov    %rax,%rdi
   16492:	e8 7f 03 ff ff       	callq  6816 <safe_unary_minus_func_int64_t_s>
   16497:	0f b6 c0             	movzbl %al,%eax
   1649a:	44 89 ee             	mov    %r13d,%esi
   1649d:	89 c7                	mov    %eax,%edi
   1649f:	e8 ef 06 ff ff       	callq  6b93 <safe_mul_func_uint8_t_u_u>
   164a4:	0f be d0             	movsbl %al,%edx
   164a7:	0f b7 85 cc eb ff ff 	movzwl -0x1434(%rbp),%eax
   164ae:	0f be c0             	movsbl %al,%eax
   164b1:	89 d6                	mov    %edx,%esi
   164b3:	89 c7                	mov    %eax,%edi
   164b5:	e8 77 fd fe ff       	callq  6231 <safe_mod_func_int8_t_s_s>
   164ba:	3c 51                	cmp    $0x51,%al
   164bc:	0f 95 c0             	setne  %al
   164bf:	0f b6 c0             	movzbl %al,%eax
   164c2:	44 89 e6             	mov    %r12d,%esi
   164c5:	89 c7                	mov    %eax,%edi
   164c7:	e8 46 fd fe ff       	callq  6212 <safe_mul_func_int8_t_s_s>
   164cc:	0f b6 c0             	movzbl %al,%eax
   164cf:	89 de                	mov    %ebx,%esi
   164d1:	89 c7                	mov    %eax,%edi
   164d3:	e8 b5 07 ff ff       	callq  6c8d <safe_rshift_func_uint8_t_u_s>
   164d8:	0f b6 c0             	movzbl %al,%eax
   164db:	89 85 88 ec ff ff    	mov    %eax,-0x1378(%rbp)
   164e1:	0f b6 05 38 9e 00 00 	movzbl 0x9e38(%rip),%eax        # 20320 <g_119>
   164e8:	0f be c0             	movsbl %al,%eax
   164eb:	39 85 88 ec ff ff    	cmp    %eax,-0x1378(%rbp)
   164f1:	0f 94 c0             	sete   %al
   164f4:	0f b6 c0             	movzbl %al,%eax
   164f7:	41 39 c7             	cmp    %eax,%r15d
   164fa:	0f 94 c0             	sete   %al
   164fd:	0f b6 d0             	movzbl %al,%edx
   16500:	48 8b 05 29 9e 00 00 	mov    0x9e29(%rip),%rax        # 20330 <g_154>
   16507:	48 39 c2             	cmp    %rax,%rdx
   1650a:	0f 94 c0             	sete   %al
   1650d:	0f b6 c0             	movzbl %al,%eax
   16510:	41 39 c6             	cmp    %eax,%r14d
   16513:	81 bd 8c ec ff ff e5 	cmpl   $0x6e37bde5,-0x1374(%rbp)
   1651a:	bd 37 6e 
   1651d:	0f 9e c0             	setle  %al
   16520:	0f b6 d0             	movzbl %al,%edx
   16523:	b9 01 00 00 00       	mov    $0x1,%ecx
   16528:	48 8b 85 d8 ec ff ff 	mov    -0x1328(%rbp),%rax
   1652f:	09 ca                	or     %ecx,%edx
   16531:	89 10                	mov    %edx,(%rax)
   16533:	eb 01                	jmp    16536 <func_111+0x1711>
   16535:	90                   	nop
   16536:	8b 85 24 ec ff ff    	mov    -0x13dc(%rbp),%eax
   1653c:	48 98                	cltq   
   1653e:	be 03 00 00 00       	mov    $0x3,%esi
   16543:	48 89 c7             	mov    %rax,%rdi
   16546:	e8 00 0b ff ff       	callq  704b <safe_sub_func_uint64_t_u_u>
   1654b:	89 85 24 ec ff ff    	mov    %eax,-0x13dc(%rbp)
   16551:	83 bd 24 ec ff ff f2 	cmpl   $0xfffffff2,-0x13dc(%rbp)
   16558:	0f 8d 8e fd ff ff    	jge    162ec <func_111+0x14c7>
   1655e:	48 8d 05 8b 9c 00 00 	lea    0x9c8b(%rip),%rax        # 201f0 <g_77+0x10>
   16565:	48 89 85 e8 ed ff ff 	mov    %rax,-0x1218(%rbp)
   1656c:	48 8b 85 f0 ed ff ff 	mov    -0x1210(%rbp),%rax
   16573:	48 8b 95 e8 ed ff ff 	mov    -0x1218(%rbp),%rdx
   1657a:	48 89 10             	mov    %rdx,(%rax)
   1657d:	0f b6 85 60 f0 ff ff 	movzbl -0xfa0(%rbp),%eax
   16584:	83 e8 01             	sub    $0x1,%eax
   16587:	88 85 60 f0 ff ff    	mov    %al,-0xfa0(%rbp)
   1658d:	0f b7 85 cc eb ff ff 	movzwl -0x1434(%rbp),%eax
   16594:	0f bf d0             	movswl %ax,%edx
   16597:	0f b6 85 60 f0 ff ff 	movzbl -0xfa0(%rbp),%eax
   1659e:	0f b6 c0             	movzbl %al,%eax
   165a1:	39 c2                	cmp    %eax,%edx
   165a3:	0f 85 78 16 00 00    	jne    17c21 <func_111+0x2dfc>
   165a9:	48 8d 85 e4 eb ff ff 	lea    -0x141c(%rbp),%rax
   165b0:	48 89 85 80 ee ff ff 	mov    %rax,-0x1180(%rbp)
   165b7:	48 8d 85 e6 eb ff ff 	lea    -0x141a(%rbp),%rax
   165be:	48 89 85 88 ee ff ff 	mov    %rax,-0x1178(%rbp)
   165c5:	48 c7 85 28 ed ff ff 	movq   $0x0,-0x12d8(%rbp)
   165cc:	00 00 00 00 
   165d0:	48 8d 85 28 ed ff ff 	lea    -0x12d8(%rbp),%rax
   165d7:	48 89 85 90 ee ff ff 	mov    %rax,-0x1170(%rbp)
   165de:	48 c7 85 98 ee ff ff 	movq   $0x0,-0x1168(%rbp)
   165e5:	00 00 00 00 
   165e9:	c7 85 48 ec ff ff 00 	movl   $0x0,-0x13b8(%rbp)
   165f0:	00 00 00 
   165f3:	eb 1e                	jmp    16613 <func_111+0x17ee>
   165f5:	8b 85 48 ec ff ff    	mov    -0x13b8(%rbp),%eax
   165fb:	48 98                	cltq   
   165fd:	48 8d 15 4c a8 00 00 	lea    0xa84c(%rip),%rdx        # 20e50 <g_323>
   16604:	48 89 94 c5 90 f1 ff 	mov    %rdx,-0xe70(%rbp,%rax,8)
   1660b:	ff 
   1660c:	83 85 48 ec ff ff 01 	addl   $0x1,-0x13b8(%rbp)
   16613:	83 bd 48 ec ff ff 03 	cmpl   $0x3,-0x13b8(%rbp)
   1661a:	7e d9                	jle    165f5 <func_111+0x17d0>
   1661c:	48 8b 05 2d a8 00 00 	mov    0xa82d(%rip),%rax        # 20e50 <g_323>
   16623:	48 89 85 e8 ec ff ff 	mov    %rax,-0x1318(%rbp)
   1662a:	48 8b 85 e8 ec ff ff 	mov    -0x1318(%rbp),%rax
   16631:	48 8d 95 70 ef ff ff 	lea    -0x1090(%rbp),%rdx
   16638:	48 83 c2 20          	add    $0x20,%rdx
   1663c:	48 39 d0             	cmp    %rdx,%rax
   1663f:	0f 94 c0             	sete   %al
   16642:	44 0f b6 e0          	movzbl %al,%r12d
   16646:	48 8b 85 80 ee ff ff 	mov    -0x1180(%rbp),%rax
   1664d:	66 c7 00 00 00       	movw   $0x0,(%rax)
   16652:	66 c7 05 71 9b 00 00 	movw   $0x0,0x9b71(%rip)        # 201cc <g_43>
   16659:	00 00 
   1665b:	b8 de e5 ff ff       	mov    $0xffffe5de,%eax
   16660:	0f b7 d8             	movzwl %ax,%ebx
   16663:	0f b6 05 d6 9c 00 00 	movzbl 0x9cd6(%rip),%eax        # 20340 <g_257>
   1666a:	0f be c0             	movsbl %al,%eax
   1666d:	89 c6                	mov    %eax,%esi
   1666f:	bf fb ff ff ff       	mov    $0xfffffffb,%edi
   16674:	e8 3a fd fe ff       	callq  63b3 <safe_add_func_int16_t_s_s>
   16679:	98                   	cwtl   
   1667a:	39 85 24 ec ff ff    	cmp    %eax,-0x13dc(%rbp)
   16680:	0f 9f c0             	setg   %al
   16683:	0f b6 c0             	movzbl %al,%eax
   16686:	89 de                	mov    %ebx,%esi
   16688:	89 c7                	mov    %eax,%edi
   1668a:	e8 ff 06 ff ff       	callq  6d8e <safe_div_func_uint16_t_u_u>
   1668f:	0f b7 c0             	movzwl %ax,%eax
   16692:	89 c6                	mov    %eax,%esi
   16694:	bf ff 00 00 00       	mov    $0xff,%edi
   16699:	e8 ef 05 ff ff       	callq  6c8d <safe_rshift_func_uint8_t_u_s>
   1669e:	8b 85 0c f6 ff ff    	mov    -0x9f4(%rbp),%eax
   166a4:	83 f8 fc             	cmp    $0xfffffffc,%eax
   166a7:	0f 9c c0             	setl   %al
   166aa:	0f b6 d0             	movzbl %al,%edx
   166ad:	48 8b 85 88 ee ff ff 	mov    -0x1178(%rbp),%rax
   166b4:	0f b7 00             	movzwl (%rax),%eax
   166b7:	89 c1                	mov    %eax,%ecx
   166b9:	89 d0                	mov    %edx,%eax
   166bb:	09 c8                	or     %ecx,%eax
   166bd:	89 c2                	mov    %eax,%edx
   166bf:	48 8b 85 88 ee ff ff 	mov    -0x1178(%rbp),%rax
   166c6:	66 89 10             	mov    %dx,(%rax)
   166c9:	48 8b 85 88 ee ff ff 	mov    -0x1178(%rbp),%rax
   166d0:	0f b7 00             	movzwl (%rax),%eax
   166d3:	66 85 c0             	test   %ax,%ax
   166d6:	0f 95 c0             	setne  %al
   166d9:	0f b6 c0             	movzbl %al,%eax
   166dc:	be 6f 55 b4 01       	mov    $0x1b4556f,%esi
   166e1:	89 c7                	mov    %eax,%edi
   166e3:	e8 e4 ff fe ff       	callq  66cc <safe_mod_func_int32_t_s_s>
   166e8:	41 39 c4             	cmp    %eax,%r12d
   166eb:	0f 9d c0             	setge  %al
   166ee:	89 c2                	mov    %eax,%edx
   166f0:	48 8b 85 30 ed ff ff 	mov    -0x12d0(%rbp),%rax
   166f7:	88 10                	mov    %dl,(%rax)
   166f9:	48 8b 85 30 ed ff ff 	mov    -0x12d0(%rbp),%rax
   16700:	0f b6 00             	movzbl (%rax),%eax
   16703:	66 0f be d0          	movsbw %al,%dx
   16707:	0f b7 85 cc eb ff ff 	movzwl -0x1434(%rbp),%eax
   1670e:	66 39 c2             	cmp    %ax,%dx
   16711:	0f 9f c0             	setg   %al
   16714:	0f b6 d0             	movzbl %al,%edx
   16717:	0f b7 85 cc eb ff ff 	movzwl -0x1434(%rbp),%eax
   1671e:	98                   	cwtl   
   1671f:	39 c2                	cmp    %eax,%edx
   16721:	0f 8e 74 0f 00 00    	jle    1769b <func_111+0x2876>
   16727:	0f b7 85 cc eb ff ff 	movzwl -0x1434(%rbp),%eax
   1672e:	66 85 c0             	test   %ax,%ax
   16731:	0f 84 64 0f 00 00    	je     1769b <func_111+0x2876>
   16737:	48 c7 85 a0 ee ff ff 	movq   $0x0,-0x1160(%rbp)
   1673e:	00 00 00 00 
   16742:	48 8d 05 e7 9b 00 00 	lea    0x9be7(%rip),%rax        # 20330 <g_154>
   16749:	48 89 85 a8 ee ff ff 	mov    %rax,-0x1158(%rbp)
   16750:	c7 85 b4 ec ff ff 07 	movl   $0x7,-0x134c(%rbp)
   16757:	00 00 00 
   1675a:	48 8d 85 d0 ec ff ff 	lea    -0x1330(%rbp),%rax
   16761:	48 89 85 b0 ee ff ff 	mov    %rax,-0x1150(%rbp)
   16768:	48 8d 05 e1 9b 00 00 	lea    0x9be1(%rip),%rax        # 20350 <g_373>
   1676f:	48 89 85 b8 ee ff ff 	mov    %rax,-0x1148(%rbp)
   16776:	48 8d 85 e0 eb ff ff 	lea    -0x1420(%rbp),%rax
   1677d:	48 89 85 00 f9 ff ff 	mov    %rax,-0x700(%rbp)
   16784:	48 8d 05 9f 9b 00 00 	lea    0x9b9f(%rip),%rax        # 2032a <g_145>
   1678b:	48 89 85 08 f9 ff ff 	mov    %rax,-0x6f8(%rbp)
   16792:	48 8d 05 33 9a 00 00 	lea    0x9a33(%rip),%rax        # 201cc <g_43>
   16799:	48 89 85 10 f9 ff ff 	mov    %rax,-0x6f0(%rbp)
   167a0:	48 8d 05 83 9b 00 00 	lea    0x9b83(%rip),%rax        # 2032a <g_145>
   167a7:	48 89 85 18 f9 ff ff 	mov    %rax,-0x6e8(%rbp)
   167ae:	48 8d 05 75 9b 00 00 	lea    0x9b75(%rip),%rax        # 2032a <g_145>
   167b5:	48 89 85 20 f9 ff ff 	mov    %rax,-0x6e0(%rbp)
   167bc:	48 8d 05 65 9b 00 00 	lea    0x9b65(%rip),%rax        # 20328 <g_138>
   167c3:	48 89 85 28 f9 ff ff 	mov    %rax,-0x6d8(%rbp)
   167ca:	48 8d 05 fb 99 00 00 	lea    0x99fb(%rip),%rax        # 201cc <g_43>
   167d1:	48 89 85 30 f9 ff ff 	mov    %rax,-0x6d0(%rbp)
   167d8:	48 8d 05 4b 9b 00 00 	lea    0x9b4b(%rip),%rax        # 2032a <g_145>
   167df:	48 89 85 38 f9 ff ff 	mov    %rax,-0x6c8(%rbp)
   167e6:	48 8d 05 df 99 00 00 	lea    0x99df(%rip),%rax        # 201cc <g_43>
   167ed:	48 89 85 40 f9 ff ff 	mov    %rax,-0x6c0(%rbp)
   167f4:	48 8d 85 e0 eb ff ff 	lea    -0x1420(%rbp),%rax
   167fb:	48 89 85 48 f9 ff ff 	mov    %rax,-0x6b8(%rbp)
   16802:	48 8d 85 e2 eb ff ff 	lea    -0x141e(%rbp),%rax
   16809:	48 89 85 50 f9 ff ff 	mov    %rax,-0x6b0(%rbp)
   16810:	48 8d 05 13 9b 00 00 	lea    0x9b13(%rip),%rax        # 2032a <g_145>
   16817:	48 89 85 58 f9 ff ff 	mov    %rax,-0x6a8(%rbp)
   1681e:	48 8d 05 a7 99 00 00 	lea    0x99a7(%rip),%rax        # 201cc <g_43>
   16825:	48 89 85 60 f9 ff ff 	mov    %rax,-0x6a0(%rbp)
   1682c:	48 8d 05 f5 9a 00 00 	lea    0x9af5(%rip),%rax        # 20328 <g_138>
   16833:	48 89 85 68 f9 ff ff 	mov    %rax,-0x698(%rbp)
   1683a:	48 8d 05 8b 99 00 00 	lea    0x998b(%rip),%rax        # 201cc <g_43>
   16841:	48 89 85 70 f9 ff ff 	mov    %rax,-0x690(%rbp)
   16848:	48 8d 05 db 9a 00 00 	lea    0x9adb(%rip),%rax        # 2032a <g_145>
   1684f:	48 89 85 78 f9 ff ff 	mov    %rax,-0x688(%rbp)
   16856:	48 8d 05 cd 9a 00 00 	lea    0x9acd(%rip),%rax        # 2032a <g_145>
   1685d:	48 89 85 80 f9 ff ff 	mov    %rax,-0x680(%rbp)
   16864:	48 8d 05 bf 9a 00 00 	lea    0x9abf(%rip),%rax        # 2032a <g_145>
   1686b:	48 89 85 88 f9 ff ff 	mov    %rax,-0x678(%rbp)
   16872:	48 8d 05 b1 9a 00 00 	lea    0x9ab1(%rip),%rax        # 2032a <g_145>
   16879:	48 89 85 90 f9 ff ff 	mov    %rax,-0x670(%rbp)
   16880:	48 8d 85 e2 eb ff ff 	lea    -0x141e(%rbp),%rax
   16887:	48 89 85 98 f9 ff ff 	mov    %rax,-0x668(%rbp)
   1688e:	48 8d 85 e0 eb ff ff 	lea    -0x1420(%rbp),%rax
   16895:	48 89 85 a0 f9 ff ff 	mov    %rax,-0x660(%rbp)
   1689c:	48 8d 05 29 99 00 00 	lea    0x9929(%rip),%rax        # 201cc <g_43>
   168a3:	48 89 85 a8 f9 ff ff 	mov    %rax,-0x658(%rbp)
   168aa:	48 8d 05 77 9a 00 00 	lea    0x9a77(%rip),%rax        # 20328 <g_138>
   168b1:	48 89 85 b0 f9 ff ff 	mov    %rax,-0x650(%rbp)
   168b8:	48 8d 85 e0 eb ff ff 	lea    -0x1420(%rbp),%rax
   168bf:	48 89 85 b8 f9 ff ff 	mov    %rax,-0x648(%rbp)
   168c6:	48 8d 05 ff 98 00 00 	lea    0x98ff(%rip),%rax        # 201cc <g_43>
   168cd:	48 89 85 c0 f9 ff ff 	mov    %rax,-0x640(%rbp)
   168d4:	48 8d 85 e0 eb ff ff 	lea    -0x1420(%rbp),%rax
   168db:	48 89 85 c8 f9 ff ff 	mov    %rax,-0x638(%rbp)
   168e2:	48 8d 85 e0 eb ff ff 	lea    -0x1420(%rbp),%rax
   168e9:	48 89 85 d0 f9 ff ff 	mov    %rax,-0x630(%rbp)
   168f0:	48 8d 85 e0 eb ff ff 	lea    -0x1420(%rbp),%rax
   168f7:	48 89 85 d8 f9 ff ff 	mov    %rax,-0x628(%rbp)
   168fe:	48 8d 05 25 9a 00 00 	lea    0x9a25(%rip),%rax        # 2032a <g_145>
   16905:	48 89 85 e0 f9 ff ff 	mov    %rax,-0x620(%rbp)
   1690c:	48 8d 85 e0 eb ff ff 	lea    -0x1420(%rbp),%rax
   16913:	48 89 85 e8 f9 ff ff 	mov    %rax,-0x618(%rbp)
   1691a:	48 8d 05 07 9a 00 00 	lea    0x9a07(%rip),%rax        # 20328 <g_138>
   16921:	48 89 85 f0 f9 ff ff 	mov    %rax,-0x610(%rbp)
   16928:	48 8d 05 fb 99 00 00 	lea    0x99fb(%rip),%rax        # 2032a <g_145>
   1692f:	48 89 85 f8 f9 ff ff 	mov    %rax,-0x608(%rbp)
   16936:	48 8d 05 eb 99 00 00 	lea    0x99eb(%rip),%rax        # 20328 <g_138>
   1693d:	48 89 85 00 fa ff ff 	mov    %rax,-0x600(%rbp)
   16944:	48 c7 85 08 fa ff ff 	movq   $0x0,-0x5f8(%rbp)
   1694b:	00 00 00 00 
   1694f:	48 8d 85 e2 eb ff ff 	lea    -0x141e(%rbp),%rax
   16956:	48 89 85 10 fa ff ff 	mov    %rax,-0x5f0(%rbp)
   1695d:	48 8d 85 e0 eb ff ff 	lea    -0x1420(%rbp),%rax
   16964:	48 89 85 18 fa ff ff 	mov    %rax,-0x5e8(%rbp)
   1696b:	48 8d 05 b8 99 00 00 	lea    0x99b8(%rip),%rax        # 2032a <g_145>
   16972:	48 89 85 20 fa ff ff 	mov    %rax,-0x5e0(%rbp)
   16979:	48 8d 05 aa 99 00 00 	lea    0x99aa(%rip),%rax        # 2032a <g_145>
   16980:	48 89 85 28 fa ff ff 	mov    %rax,-0x5d8(%rbp)
   16987:	48 8d 05 9c 99 00 00 	lea    0x999c(%rip),%rax        # 2032a <g_145>
   1698e:	48 89 85 30 fa ff ff 	mov    %rax,-0x5d0(%rbp)
   16995:	48 8d 85 e2 eb ff ff 	lea    -0x141e(%rbp),%rax
   1699c:	48 89 85 38 fa ff ff 	mov    %rax,-0x5c8(%rbp)
   169a3:	48 8d 05 80 99 00 00 	lea    0x9980(%rip),%rax        # 2032a <g_145>
   169aa:	48 89 85 40 fa ff ff 	mov    %rax,-0x5c0(%rbp)
   169b1:	48 8d 85 e0 eb ff ff 	lea    -0x1420(%rbp),%rax
   169b8:	48 89 85 48 fa ff ff 	mov    %rax,-0x5b8(%rbp)
   169bf:	48 8d 05 64 99 00 00 	lea    0x9964(%rip),%rax        # 2032a <g_145>
   169c6:	48 89 85 50 fa ff ff 	mov    %rax,-0x5b0(%rbp)
   169cd:	48 8d 05 56 99 00 00 	lea    0x9956(%rip),%rax        # 2032a <g_145>
   169d4:	48 89 85 58 fa ff ff 	mov    %rax,-0x5a8(%rbp)
   169db:	48 8d 05 48 99 00 00 	lea    0x9948(%rip),%rax        # 2032a <g_145>
   169e2:	48 89 85 60 fa ff ff 	mov    %rax,-0x5a0(%rbp)
   169e9:	48 8d 05 dc 97 00 00 	lea    0x97dc(%rip),%rax        # 201cc <g_43>
   169f0:	48 89 85 68 fa ff ff 	mov    %rax,-0x598(%rbp)
   169f7:	48 8d 05 ce 97 00 00 	lea    0x97ce(%rip),%rax        # 201cc <g_43>
   169fe:	48 89 85 70 fa ff ff 	mov    %rax,-0x590(%rbp)
   16a05:	48 8d 85 e0 eb ff ff 	lea    -0x1420(%rbp),%rax
   16a0c:	48 89 85 78 fa ff ff 	mov    %rax,-0x588(%rbp)
   16a13:	48 8d 05 0e 99 00 00 	lea    0x990e(%rip),%rax        # 20328 <g_138>
   16a1a:	48 89 85 80 fa ff ff 	mov    %rax,-0x580(%rbp)
   16a21:	48 8d 05 00 99 00 00 	lea    0x9900(%rip),%rax        # 20328 <g_138>
   16a28:	48 89 85 88 fa ff ff 	mov    %rax,-0x578(%rbp)
   16a2f:	48 8d 05 96 97 00 00 	lea    0x9796(%rip),%rax        # 201cc <g_43>
   16a36:	48 89 85 90 fa ff ff 	mov    %rax,-0x570(%rbp)
   16a3d:	48 8d 05 e4 98 00 00 	lea    0x98e4(%rip),%rax        # 20328 <g_138>
   16a44:	48 89 85 98 fa ff ff 	mov    %rax,-0x568(%rbp)
   16a4b:	48 8d 05 d8 98 00 00 	lea    0x98d8(%rip),%rax        # 2032a <g_145>
   16a52:	48 89 85 a0 fa ff ff 	mov    %rax,-0x560(%rbp)
   16a59:	48 8d 05 ca 98 00 00 	lea    0x98ca(%rip),%rax        # 2032a <g_145>
   16a60:	48 89 85 a8 fa ff ff 	mov    %rax,-0x558(%rbp)
   16a67:	48 8d 05 bc 98 00 00 	lea    0x98bc(%rip),%rax        # 2032a <g_145>
   16a6e:	48 89 85 b0 fa ff ff 	mov    %rax,-0x550(%rbp)
   16a75:	48 8d 05 50 97 00 00 	lea    0x9750(%rip),%rax        # 201cc <g_43>
   16a7c:	48 89 85 b8 fa ff ff 	mov    %rax,-0x548(%rbp)
   16a83:	48 8d 05 a0 98 00 00 	lea    0x98a0(%rip),%rax        # 2032a <g_145>
   16a8a:	48 89 85 c0 fa ff ff 	mov    %rax,-0x540(%rbp)
   16a91:	48 8d 85 e2 eb ff ff 	lea    -0x141e(%rbp),%rax
   16a98:	48 89 85 c8 fa ff ff 	mov    %rax,-0x538(%rbp)
   16a9f:	48 8d 05 84 98 00 00 	lea    0x9884(%rip),%rax        # 2032a <g_145>
   16aa6:	48 89 85 d0 fa ff ff 	mov    %rax,-0x530(%rbp)
   16aad:	48 8d 05 76 98 00 00 	lea    0x9876(%rip),%rax        # 2032a <g_145>
   16ab4:	48 89 85 d8 fa ff ff 	mov    %rax,-0x528(%rbp)
   16abb:	48 8d 05 68 98 00 00 	lea    0x9868(%rip),%rax        # 2032a <g_145>
   16ac2:	48 89 85 e0 fa ff ff 	mov    %rax,-0x520(%rbp)
   16ac9:	48 8d 05 5a 98 00 00 	lea    0x985a(%rip),%rax        # 2032a <g_145>
   16ad0:	48 89 85 e8 fa ff ff 	mov    %rax,-0x518(%rbp)
   16ad7:	48 8d 85 e2 eb ff ff 	lea    -0x141e(%rbp),%rax
   16ade:	48 89 85 f0 fa ff ff 	mov    %rax,-0x510(%rbp)
   16ae5:	48 8d 85 e0 eb ff ff 	lea    -0x1420(%rbp),%rax
   16aec:	48 89 85 f8 fa ff ff 	mov    %rax,-0x508(%rbp)
   16af3:	48 8d 05 2e 98 00 00 	lea    0x982e(%rip),%rax        # 20328 <g_138>
   16afa:	48 89 85 00 fb ff ff 	mov    %rax,-0x500(%rbp)
   16b01:	48 8d 05 c4 96 00 00 	lea    0x96c4(%rip),%rax        # 201cc <g_43>
   16b08:	48 89 85 08 fb ff ff 	mov    %rax,-0x4f8(%rbp)
   16b0f:	48 8d 05 14 98 00 00 	lea    0x9814(%rip),%rax        # 2032a <g_145>
   16b16:	48 89 85 10 fb ff ff 	mov    %rax,-0x4f0(%rbp)
   16b1d:	48 8d 05 04 98 00 00 	lea    0x9804(%rip),%rax        # 20328 <g_138>
   16b24:	48 89 85 18 fb ff ff 	mov    %rax,-0x4e8(%rbp)
   16b2b:	48 8d 05 f8 97 00 00 	lea    0x97f8(%rip),%rax        # 2032a <g_145>
   16b32:	48 89 85 20 fb ff ff 	mov    %rax,-0x4e0(%rbp)
   16b39:	48 c7 85 28 fb ff ff 	movq   $0x0,-0x4d8(%rbp)
   16b40:	00 00 00 00 
   16b44:	48 8d 05 dd 97 00 00 	lea    0x97dd(%rip),%rax        # 20328 <g_138>
   16b4b:	48 89 85 30 fb ff ff 	mov    %rax,-0x4d0(%rbp)
   16b52:	48 8d 05 73 96 00 00 	lea    0x9673(%rip),%rax        # 201cc <g_43>
   16b59:	48 89 85 38 fb ff ff 	mov    %rax,-0x4c8(%rbp)
   16b60:	48 8d 05 c3 97 00 00 	lea    0x97c3(%rip),%rax        # 2032a <g_145>
   16b67:	48 89 85 40 fb ff ff 	mov    %rax,-0x4c0(%rbp)
   16b6e:	48 8d 05 b3 97 00 00 	lea    0x97b3(%rip),%rax        # 20328 <g_138>
   16b75:	48 89 85 48 fb ff ff 	mov    %rax,-0x4b8(%rbp)
   16b7c:	48 8d 85 e2 eb ff ff 	lea    -0x141e(%rbp),%rax
   16b83:	48 89 85 50 fb ff ff 	mov    %rax,-0x4b0(%rbp)
   16b8a:	48 8d 85 e2 eb ff ff 	lea    -0x141e(%rbp),%rax
   16b91:	48 89 85 58 fb ff ff 	mov    %rax,-0x4a8(%rbp)
   16b98:	48 8d 85 e0 eb ff ff 	lea    -0x1420(%rbp),%rax
   16b9f:	48 89 85 60 fb ff ff 	mov    %rax,-0x4a0(%rbp)
   16ba6:	48 8d 85 e0 eb ff ff 	lea    -0x1420(%rbp),%rax
   16bad:	48 89 85 68 fb ff ff 	mov    %rax,-0x498(%rbp)
   16bb4:	48 8d 05 6f 97 00 00 	lea    0x976f(%rip),%rax        # 2032a <g_145>
   16bbb:	48 89 85 70 fb ff ff 	mov    %rax,-0x490(%rbp)
   16bc2:	48 8d 85 e2 eb ff ff 	lea    -0x141e(%rbp),%rax
   16bc9:	48 89 85 78 fb ff ff 	mov    %rax,-0x488(%rbp)
   16bd0:	48 8d 05 53 97 00 00 	lea    0x9753(%rip),%rax        # 2032a <g_145>
   16bd7:	48 89 85 80 fb ff ff 	mov    %rax,-0x480(%rbp)
   16bde:	48 8d 85 e2 eb ff ff 	lea    -0x141e(%rbp),%rax
   16be5:	48 89 85 88 fb ff ff 	mov    %rax,-0x478(%rbp)
   16bec:	48 8d 05 37 97 00 00 	lea    0x9737(%rip),%rax        # 2032a <g_145>
   16bf3:	48 89 85 90 fb ff ff 	mov    %rax,-0x470(%rbp)
   16bfa:	48 8d 85 e2 eb ff ff 	lea    -0x141e(%rbp),%rax
   16c01:	48 89 85 98 fb ff ff 	mov    %rax,-0x468(%rbp)
   16c08:	48 8d 05 bd 95 00 00 	lea    0x95bd(%rip),%rax        # 201cc <g_43>
   16c0f:	48 89 85 a0 fb ff ff 	mov    %rax,-0x460(%rbp)
   16c16:	48 8d 85 e0 eb ff ff 	lea    -0x1420(%rbp),%rax
   16c1d:	48 89 85 a8 fb ff ff 	mov    %rax,-0x458(%rbp)
   16c24:	48 8d 85 e0 eb ff ff 	lea    -0x1420(%rbp),%rax
   16c2b:	48 89 85 b0 fb ff ff 	mov    %rax,-0x450(%rbp)
   16c32:	48 8d 05 f1 96 00 00 	lea    0x96f1(%rip),%rax        # 2032a <g_145>
   16c39:	48 89 85 b8 fb ff ff 	mov    %rax,-0x448(%rbp)
   16c40:	48 8d 05 e1 96 00 00 	lea    0x96e1(%rip),%rax        # 20328 <g_138>
   16c47:	48 89 85 c0 fb ff ff 	mov    %rax,-0x440(%rbp)
   16c4e:	48 8d 85 e0 eb ff ff 	lea    -0x1420(%rbp),%rax
   16c55:	48 89 85 c8 fb ff ff 	mov    %rax,-0x438(%rbp)
   16c5c:	48 8d 85 e0 eb ff ff 	lea    -0x1420(%rbp),%rax
   16c63:	48 89 85 d0 fb ff ff 	mov    %rax,-0x430(%rbp)
   16c6a:	48 8d 85 e2 eb ff ff 	lea    -0x141e(%rbp),%rax
   16c71:	48 89 85 d8 fb ff ff 	mov    %rax,-0x428(%rbp)
   16c78:	48 8d 85 e0 eb ff ff 	lea    -0x1420(%rbp),%rax
   16c7f:	48 89 85 e0 fb ff ff 	mov    %rax,-0x420(%rbp)
   16c86:	48 8d 85 e2 eb ff ff 	lea    -0x141e(%rbp),%rax
   16c8d:	48 89 85 e8 fb ff ff 	mov    %rax,-0x418(%rbp)
   16c94:	48 8d 05 8d 96 00 00 	lea    0x968d(%rip),%rax        # 20328 <g_138>
   16c9b:	48 89 85 f0 fb ff ff 	mov    %rax,-0x410(%rbp)
   16ca2:	48 8d 85 e2 eb ff ff 	lea    -0x141e(%rbp),%rax
   16ca9:	48 89 85 f8 fb ff ff 	mov    %rax,-0x408(%rbp)
   16cb0:	48 8d 85 e0 eb ff ff 	lea    -0x1420(%rbp),%rax
   16cb7:	48 89 85 00 fc ff ff 	mov    %rax,-0x400(%rbp)
   16cbe:	48 8d 85 e0 eb ff ff 	lea    -0x1420(%rbp),%rax
   16cc5:	48 89 85 08 fc ff ff 	mov    %rax,-0x3f8(%rbp)
   16ccc:	48 8d 05 f9 94 00 00 	lea    0x94f9(%rip),%rax        # 201cc <g_43>
   16cd3:	48 89 85 10 fc ff ff 	mov    %rax,-0x3f0(%rbp)
   16cda:	48 8d 85 e2 eb ff ff 	lea    -0x141e(%rbp),%rax
   16ce1:	48 89 85 18 fc ff ff 	mov    %rax,-0x3e8(%rbp)
   16ce8:	48 8d 05 dd 94 00 00 	lea    0x94dd(%rip),%rax        # 201cc <g_43>
   16cef:	48 89 85 20 fc ff ff 	mov    %rax,-0x3e0(%rbp)
   16cf6:	48 8d 05 2b 96 00 00 	lea    0x962b(%rip),%rax        # 20328 <g_138>
   16cfd:	48 89 85 28 fc ff ff 	mov    %rax,-0x3d8(%rbp)
   16d04:	48 8d 85 e2 eb ff ff 	lea    -0x141e(%rbp),%rax
   16d0b:	48 89 85 30 fc ff ff 	mov    %rax,-0x3d0(%rbp)
   16d12:	48 8d 05 b3 94 00 00 	lea    0x94b3(%rip),%rax        # 201cc <g_43>
   16d19:	48 89 85 38 fc ff ff 	mov    %rax,-0x3c8(%rbp)
   16d20:	48 8d 85 e2 eb ff ff 	lea    -0x141e(%rbp),%rax
   16d27:	48 89 85 40 fc ff ff 	mov    %rax,-0x3c0(%rbp)
   16d2e:	48 c7 85 48 fc ff ff 	movq   $0x0,-0x3b8(%rbp)
   16d35:	00 00 00 00 
   16d39:	48 8d 05 e8 95 00 00 	lea    0x95e8(%rip),%rax        # 20328 <g_138>
   16d40:	48 89 85 50 fc ff ff 	mov    %rax,-0x3b0(%rbp)
   16d47:	48 8d 05 da 95 00 00 	lea    0x95da(%rip),%rax        # 20328 <g_138>
   16d4e:	48 89 85 58 fc ff ff 	mov    %rax,-0x3a8(%rbp)
   16d55:	48 8d 05 ce 95 00 00 	lea    0x95ce(%rip),%rax        # 2032a <g_145>
   16d5c:	48 89 85 60 fc ff ff 	mov    %rax,-0x3a0(%rbp)
   16d63:	48 8d 05 62 94 00 00 	lea    0x9462(%rip),%rax        # 201cc <g_43>
   16d6a:	48 89 85 68 fc ff ff 	mov    %rax,-0x398(%rbp)
   16d71:	48 8d 85 e0 eb ff ff 	lea    -0x1420(%rbp),%rax
   16d78:	48 89 85 70 fc ff ff 	mov    %rax,-0x390(%rbp)
   16d7f:	48 8d 05 a2 95 00 00 	lea    0x95a2(%rip),%rax        # 20328 <g_138>
   16d86:	48 89 85 78 fc ff ff 	mov    %rax,-0x388(%rbp)
   16d8d:	48 8d 05 94 95 00 00 	lea    0x9594(%rip),%rax        # 20328 <g_138>
   16d94:	48 89 85 80 fc ff ff 	mov    %rax,-0x380(%rbp)
   16d9b:	48 c7 85 88 fc ff ff 	movq   $0x0,-0x378(%rbp)
   16da2:	00 00 00 00 
   16da6:	48 8d 05 7d 95 00 00 	lea    0x957d(%rip),%rax        # 2032a <g_145>
   16dad:	48 89 85 90 fc ff ff 	mov    %rax,-0x370(%rbp)
   16db4:	48 c7 85 98 fc ff ff 	movq   $0x0,-0x368(%rbp)
   16dbb:	00 00 00 00 
   16dbf:	48 8d 05 62 95 00 00 	lea    0x9562(%rip),%rax        # 20328 <g_138>
   16dc6:	48 89 85 a0 fc ff ff 	mov    %rax,-0x360(%rbp)
   16dcd:	48 8d 05 56 95 00 00 	lea    0x9556(%rip),%rax        # 2032a <g_145>
   16dd4:	48 89 85 a8 fc ff ff 	mov    %rax,-0x358(%rbp)
   16ddb:	48 8d 05 48 95 00 00 	lea    0x9548(%rip),%rax        # 2032a <g_145>
   16de2:	48 89 85 b0 fc ff ff 	mov    %rax,-0x350(%rbp)
   16de9:	48 8d 05 38 95 00 00 	lea    0x9538(%rip),%rax        # 20328 <g_138>
   16df0:	48 89 85 b8 fc ff ff 	mov    %rax,-0x348(%rbp)
   16df7:	48 8d 05 ce 93 00 00 	lea    0x93ce(%rip),%rax        # 201cc <g_43>
   16dfe:	48 89 85 c0 fc ff ff 	mov    %rax,-0x340(%rbp)
   16e05:	48 8d 85 e2 eb ff ff 	lea    -0x141e(%rbp),%rax
   16e0c:	48 89 85 c8 fc ff ff 	mov    %rax,-0x338(%rbp)
   16e13:	48 8d 05 0e 95 00 00 	lea    0x950e(%rip),%rax        # 20328 <g_138>
   16e1a:	48 89 85 d0 fc ff ff 	mov    %rax,-0x330(%rbp)
   16e21:	48 8d 05 00 95 00 00 	lea    0x9500(%rip),%rax        # 20328 <g_138>
   16e28:	48 89 85 d8 fc ff ff 	mov    %rax,-0x328(%rbp)
   16e2f:	48 8d 85 e0 eb ff ff 	lea    -0x1420(%rbp),%rax
   16e36:	48 89 85 e0 fc ff ff 	mov    %rax,-0x320(%rbp)
   16e3d:	48 8d 05 e4 94 00 00 	lea    0x94e4(%rip),%rax        # 20328 <g_138>
   16e44:	48 89 85 e8 fc ff ff 	mov    %rax,-0x318(%rbp)
   16e4b:	48 8d 05 d6 94 00 00 	lea    0x94d6(%rip),%rax        # 20328 <g_138>
   16e52:	48 89 85 f0 fc ff ff 	mov    %rax,-0x310(%rbp)
   16e59:	48 8d 05 6c 93 00 00 	lea    0x936c(%rip),%rax        # 201cc <g_43>
   16e60:	48 89 85 f8 fc ff ff 	mov    %rax,-0x308(%rbp)
   16e67:	48 8d 85 e0 eb ff ff 	lea    -0x1420(%rbp),%rax
   16e6e:	48 89 85 00 fd ff ff 	mov    %rax,-0x300(%rbp)
   16e75:	48 8d 05 ae 94 00 00 	lea    0x94ae(%rip),%rax        # 2032a <g_145>
   16e7c:	48 89 85 08 fd ff ff 	mov    %rax,-0x2f8(%rbp)
   16e83:	48 8d 05 9e 94 00 00 	lea    0x949e(%rip),%rax        # 20328 <g_138>
   16e8a:	48 89 85 10 fd ff ff 	mov    %rax,-0x2f0(%rbp)
   16e91:	48 8d 85 e2 eb ff ff 	lea    -0x141e(%rbp),%rax
   16e98:	48 89 85 18 fd ff ff 	mov    %rax,-0x2e8(%rbp)
   16e9f:	48 8d 05 26 93 00 00 	lea    0x9326(%rip),%rax        # 201cc <g_43>
   16ea6:	48 89 85 20 fd ff ff 	mov    %rax,-0x2e0(%rbp)
   16ead:	48 8d 05 18 93 00 00 	lea    0x9318(%rip),%rax        # 201cc <g_43>
   16eb4:	48 89 85 28 fd ff ff 	mov    %rax,-0x2d8(%rbp)
   16ebb:	48 8d 05 68 94 00 00 	lea    0x9468(%rip),%rax        # 2032a <g_145>
   16ec2:	48 89 85 30 fd ff ff 	mov    %rax,-0x2d0(%rbp)
   16ec9:	48 c7 85 38 fd ff ff 	movq   $0x0,-0x2c8(%rbp)
   16ed0:	00 00 00 00 
   16ed4:	48 8d 05 4d 94 00 00 	lea    0x944d(%rip),%rax        # 20328 <g_138>
   16edb:	48 89 85 40 fd ff ff 	mov    %rax,-0x2c0(%rbp)
   16ee2:	48 8d 85 e0 eb ff ff 	lea    -0x1420(%rbp),%rax
   16ee9:	48 89 85 48 fd ff ff 	mov    %rax,-0x2b8(%rbp)
   16ef0:	48 8d 05 33 94 00 00 	lea    0x9433(%rip),%rax        # 2032a <g_145>
   16ef7:	48 89 85 50 fd ff ff 	mov    %rax,-0x2b0(%rbp)
   16efe:	48 8d 85 e0 eb ff ff 	lea    -0x1420(%rbp),%rax
   16f05:	48 89 85 58 fd ff ff 	mov    %rax,-0x2a8(%rbp)
   16f0c:	48 8d 05 15 94 00 00 	lea    0x9415(%rip),%rax        # 20328 <g_138>
   16f13:	48 89 85 60 fd ff ff 	mov    %rax,-0x2a0(%rbp)
   16f1a:	48 8d 05 09 94 00 00 	lea    0x9409(%rip),%rax        # 2032a <g_145>
   16f21:	48 89 85 68 fd ff ff 	mov    %rax,-0x298(%rbp)
   16f28:	48 8d 85 e0 eb ff ff 	lea    -0x1420(%rbp),%rax
   16f2f:	48 89 85 70 fd ff ff 	mov    %rax,-0x290(%rbp)
   16f36:	48 8d 85 e2 eb ff ff 	lea    -0x141e(%rbp),%rax
   16f3d:	48 89 85 78 fd ff ff 	mov    %rax,-0x288(%rbp)
   16f44:	48 8d 05 df 93 00 00 	lea    0x93df(%rip),%rax        # 2032a <g_145>
   16f4b:	48 89 85 80 fd ff ff 	mov    %rax,-0x280(%rbp)
   16f52:	48 8d 05 73 92 00 00 	lea    0x9273(%rip),%rax        # 201cc <g_43>
   16f59:	48 89 85 88 fd ff ff 	mov    %rax,-0x278(%rbp)
   16f60:	48 8d 05 c1 93 00 00 	lea    0x93c1(%rip),%rax        # 20328 <g_138>
   16f67:	48 89 85 90 fd ff ff 	mov    %rax,-0x270(%rbp)
   16f6e:	48 8d 85 e0 eb ff ff 	lea    -0x1420(%rbp),%rax
   16f75:	48 89 85 98 fd ff ff 	mov    %rax,-0x268(%rbp)
   16f7c:	48 8d 85 e2 eb ff ff 	lea    -0x141e(%rbp),%rax
   16f83:	48 89 85 a0 fd ff ff 	mov    %rax,-0x260(%rbp)
   16f8a:	48 8d 85 e0 eb ff ff 	lea    -0x1420(%rbp),%rax
   16f91:	48 89 85 a8 fd ff ff 	mov    %rax,-0x258(%rbp)
   16f98:	48 8d 85 e2 eb ff ff 	lea    -0x141e(%rbp),%rax
   16f9f:	48 89 85 b0 fd ff ff 	mov    %rax,-0x250(%rbp)
   16fa6:	48 8d 05 1f 92 00 00 	lea    0x921f(%rip),%rax        # 201cc <g_43>
   16fad:	48 89 85 b8 fd ff ff 	mov    %rax,-0x248(%rbp)
   16fb4:	48 8d 05 11 92 00 00 	lea    0x9211(%rip),%rax        # 201cc <g_43>
   16fbb:	48 89 85 c0 fd ff ff 	mov    %rax,-0x240(%rbp)
   16fc2:	48 8d 05 03 92 00 00 	lea    0x9203(%rip),%rax        # 201cc <g_43>
   16fc9:	48 89 85 c8 fd ff ff 	mov    %rax,-0x238(%rbp)
   16fd0:	48 8d 05 f5 91 00 00 	lea    0x91f5(%rip),%rax        # 201cc <g_43>
   16fd7:	48 89 85 d0 fd ff ff 	mov    %rax,-0x230(%rbp)
   16fde:	48 8d 05 e7 91 00 00 	lea    0x91e7(%rip),%rax        # 201cc <g_43>
   16fe5:	48 89 85 d8 fd ff ff 	mov    %rax,-0x228(%rbp)
   16fec:	48 8d 85 e0 eb ff ff 	lea    -0x1420(%rbp),%rax
   16ff3:	48 89 85 e0 fd ff ff 	mov    %rax,-0x220(%rbp)
   16ffa:	48 8d 85 e2 eb ff ff 	lea    -0x141e(%rbp),%rax
   17001:	48 89 85 e8 fd ff ff 	mov    %rax,-0x218(%rbp)
   17008:	48 8d 05 19 93 00 00 	lea    0x9319(%rip),%rax        # 20328 <g_138>
   1700f:	48 89 85 f0 fd ff ff 	mov    %rax,-0x210(%rbp)
   17016:	48 8d 85 e0 eb ff ff 	lea    -0x1420(%rbp),%rax
   1701d:	48 89 85 f8 fd ff ff 	mov    %rax,-0x208(%rbp)
   17024:	48 8d 85 e0 eb ff ff 	lea    -0x1420(%rbp),%rax
   1702b:	48 89 85 00 fe ff ff 	mov    %rax,-0x200(%rbp)
   17032:	48 8d 05 93 91 00 00 	lea    0x9193(%rip),%rax        # 201cc <g_43>
   17039:	48 89 85 08 fe ff ff 	mov    %rax,-0x1f8(%rbp)
   17040:	48 8d 85 e0 eb ff ff 	lea    -0x1420(%rbp),%rax
   17047:	48 89 85 10 fe ff ff 	mov    %rax,-0x1f0(%rbp)
   1704e:	48 c7 85 18 fe ff ff 	movq   $0x0,-0x1e8(%rbp)
   17055:	00 00 00 00 
   17059:	48 8d 05 c8 92 00 00 	lea    0x92c8(%rip),%rax        # 20328 <g_138>
   17060:	48 89 85 20 fe ff ff 	mov    %rax,-0x1e0(%rbp)
   17067:	48 8d 05 ba 92 00 00 	lea    0x92ba(%rip),%rax        # 20328 <g_138>
   1706e:	48 89 85 28 fe ff ff 	mov    %rax,-0x1d8(%rbp)
   17075:	48 8d 85 e0 eb ff ff 	lea    -0x1420(%rbp),%rax
   1707c:	48 89 85 30 fe ff ff 	mov    %rax,-0x1d0(%rbp)
   17083:	48 c7 85 38 fe ff ff 	movq   $0x0,-0x1c8(%rbp)
   1708a:	00 00 00 00 
   1708e:	48 8d 05 37 91 00 00 	lea    0x9137(%rip),%rax        # 201cc <g_43>
   17095:	48 89 85 40 fe ff ff 	mov    %rax,-0x1c0(%rbp)
   1709c:	48 8d 05 29 91 00 00 	lea    0x9129(%rip),%rax        # 201cc <g_43>
   170a3:	48 89 85 48 fe ff ff 	mov    %rax,-0x1b8(%rbp)
   170aa:	48 8d 05 79 92 00 00 	lea    0x9279(%rip),%rax        # 2032a <g_145>
   170b1:	48 89 85 50 fe ff ff 	mov    %rax,-0x1b0(%rbp)
   170b8:	48 8d 85 e0 eb ff ff 	lea    -0x1420(%rbp),%rax
   170bf:	48 89 85 58 fe ff ff 	mov    %rax,-0x1a8(%rbp)
   170c6:	48 8d 05 5d 92 00 00 	lea    0x925d(%rip),%rax        # 2032a <g_145>
   170cd:	48 89 85 60 fe ff ff 	mov    %rax,-0x1a0(%rbp)
   170d4:	48 8d 85 e2 eb ff ff 	lea    -0x141e(%rbp),%rax
   170db:	48 89 85 68 fe ff ff 	mov    %rax,-0x198(%rbp)
   170e2:	48 8d 05 41 92 00 00 	lea    0x9241(%rip),%rax        # 2032a <g_145>
   170e9:	48 89 85 70 fe ff ff 	mov    %rax,-0x190(%rbp)
   170f0:	48 8d 05 d5 90 00 00 	lea    0x90d5(%rip),%rax        # 201cc <g_43>
   170f7:	48 89 85 78 fe ff ff 	mov    %rax,-0x188(%rbp)
   170fe:	48 8d 85 e0 eb ff ff 	lea    -0x1420(%rbp),%rax
   17105:	48 89 85 80 fe ff ff 	mov    %rax,-0x180(%rbp)
   1710c:	48 8d 05 b9 90 00 00 	lea    0x90b9(%rip),%rax        # 201cc <g_43>
   17113:	48 89 85 88 fe ff ff 	mov    %rax,-0x178(%rbp)
   1711a:	48 8d 85 e2 eb ff ff 	lea    -0x141e(%rbp),%rax
   17121:	48 89 85 90 fe ff ff 	mov    %rax,-0x170(%rbp)
   17128:	48 8d 05 9d 90 00 00 	lea    0x909d(%rip),%rax        # 201cc <g_43>
   1712f:	48 89 85 98 fe ff ff 	mov    %rax,-0x168(%rbp)
   17136:	48 8d 05 ed 91 00 00 	lea    0x91ed(%rip),%rax        # 2032a <g_145>
   1713d:	48 89 85 a0 fe ff ff 	mov    %rax,-0x160(%rbp)
   17144:	48 8d 85 e0 eb ff ff 	lea    -0x1420(%rbp),%rax
   1714b:	48 89 85 a8 fe ff ff 	mov    %rax,-0x158(%rbp)
   17152:	48 8d 05 cf 91 00 00 	lea    0x91cf(%rip),%rax        # 20328 <g_138>
   17159:	48 89 85 b0 fe ff ff 	mov    %rax,-0x150(%rbp)
   17160:	48 8d 85 e0 eb ff ff 	lea    -0x1420(%rbp),%rax
   17167:	48 89 85 b8 fe ff ff 	mov    %rax,-0x148(%rbp)
   1716e:	48 8d 05 b5 91 00 00 	lea    0x91b5(%rip),%rax        # 2032a <g_145>
   17175:	48 89 85 c0 fe ff ff 	mov    %rax,-0x140(%rbp)
   1717c:	48 8d 05 49 90 00 00 	lea    0x9049(%rip),%rax        # 201cc <g_43>
   17183:	48 89 85 c8 fe ff ff 	mov    %rax,-0x138(%rbp)
   1718a:	48 8d 05 99 91 00 00 	lea    0x9199(%rip),%rax        # 2032a <g_145>
   17191:	48 89 85 d0 fe ff ff 	mov    %rax,-0x130(%rbp)
   17198:	48 8d 85 e2 eb ff ff 	lea    -0x141e(%rbp),%rax
   1719f:	48 89 85 d8 fe ff ff 	mov    %rax,-0x128(%rbp)
   171a6:	48 8d 05 7b 91 00 00 	lea    0x917b(%rip),%rax        # 20328 <g_138>
   171ad:	48 89 85 e0 fe ff ff 	mov    %rax,-0x120(%rbp)
   171b4:	48 8d 05 6f 91 00 00 	lea    0x916f(%rip),%rax        # 2032a <g_145>
   171bb:	48 89 85 e8 fe ff ff 	mov    %rax,-0x118(%rbp)
   171c2:	48 8d 85 e0 eb ff ff 	lea    -0x1420(%rbp),%rax
   171c9:	48 89 85 f0 fe ff ff 	mov    %rax,-0x110(%rbp)
   171d0:	48 8d 85 e0 eb ff ff 	lea    -0x1420(%rbp),%rax
   171d7:	48 89 85 f8 fe ff ff 	mov    %rax,-0x108(%rbp)
   171de:	48 8d 85 e0 eb ff ff 	lea    -0x1420(%rbp),%rax
   171e5:	48 89 85 00 ff ff ff 	mov    %rax,-0x100(%rbp)
   171ec:	48 8d 85 e0 eb ff ff 	lea    -0x1420(%rbp),%rax
   171f3:	48 89 85 08 ff ff ff 	mov    %rax,-0xf8(%rbp)
   171fa:	48 8d 85 e0 eb ff ff 	lea    -0x1420(%rbp),%rax
   17201:	48 89 85 10 ff ff ff 	mov    %rax,-0xf0(%rbp)
   17208:	48 c7 85 18 ff ff ff 	movq   $0x0,-0xe8(%rbp)
   1720f:	00 00 00 00 
   17213:	48 8d 85 e0 eb ff ff 	lea    -0x1420(%rbp),%rax
   1721a:	48 89 85 20 ff ff ff 	mov    %rax,-0xe0(%rbp)
   17221:	48 8d 05 a4 8f 00 00 	lea    0x8fa4(%rip),%rax        # 201cc <g_43>
   17228:	48 89 85 28 ff ff ff 	mov    %rax,-0xd8(%rbp)
   1722f:	48 8d 05 f4 90 00 00 	lea    0x90f4(%rip),%rax        # 2032a <g_145>
   17236:	48 89 85 30 ff ff ff 	mov    %rax,-0xd0(%rbp)
   1723d:	48 8d 85 e2 eb ff ff 	lea    -0x141e(%rbp),%rax
   17244:	48 89 85 38 ff ff ff 	mov    %rax,-0xc8(%rbp)
   1724b:	48 8d 85 e2 eb ff ff 	lea    -0x141e(%rbp),%rax
   17252:	48 89 85 40 ff ff ff 	mov    %rax,-0xc0(%rbp)
   17259:	48 8d 05 ca 90 00 00 	lea    0x90ca(%rip),%rax        # 2032a <g_145>
   17260:	48 89 85 48 ff ff ff 	mov    %rax,-0xb8(%rbp)
   17267:	48 8d 05 5e 8f 00 00 	lea    0x8f5e(%rip),%rax        # 201cc <g_43>
   1726e:	48 89 85 50 ff ff ff 	mov    %rax,-0xb0(%rbp)
   17275:	48 8d 05 50 8f 00 00 	lea    0x8f50(%rip),%rax        # 201cc <g_43>
   1727c:	48 89 85 58 ff ff ff 	mov    %rax,-0xa8(%rbp)
   17283:	48 8d 05 9e 90 00 00 	lea    0x909e(%rip),%rax        # 20328 <g_138>
   1728a:	48 89 85 60 ff ff ff 	mov    %rax,-0xa0(%rbp)
   17291:	48 8d 05 90 90 00 00 	lea    0x9090(%rip),%rax        # 20328 <g_138>
   17298:	48 89 85 68 ff ff ff 	mov    %rax,-0x98(%rbp)
   1729f:	48 8d 05 26 8f 00 00 	lea    0x8f26(%rip),%rax        # 201cc <g_43>
   172a6:	48 89 85 70 ff ff ff 	mov    %rax,-0x90(%rbp)
   172ad:	48 8d 05 74 90 00 00 	lea    0x9074(%rip),%rax        # 20328 <g_138>
   172b4:	48 89 85 78 ff ff ff 	mov    %rax,-0x88(%rbp)
   172bb:	48 8d 85 e2 eb ff ff 	lea    -0x141e(%rbp),%rax
   172c2:	48 89 45 80          	mov    %rax,-0x80(%rbp)
   172c6:	48 8d 85 e2 eb ff ff 	lea    -0x141e(%rbp),%rax
   172cd:	48 89 45 88          	mov    %rax,-0x78(%rbp)
   172d1:	48 8d 05 52 90 00 00 	lea    0x9052(%rip),%rax        # 2032a <g_145>
   172d8:	48 89 45 90          	mov    %rax,-0x70(%rbp)
   172dc:	48 8d 05 45 90 00 00 	lea    0x9045(%rip),%rax        # 20328 <g_138>
   172e3:	48 89 45 98          	mov    %rax,-0x68(%rbp)
   172e7:	48 8d 85 e0 eb ff ff 	lea    -0x1420(%rbp),%rax
   172ee:	48 89 45 a0          	mov    %rax,-0x60(%rbp)
   172f2:	48 8d 05 31 90 00 00 	lea    0x9031(%rip),%rax        # 2032a <g_145>
   172f9:	48 89 45 a8          	mov    %rax,-0x58(%rbp)
   172fd:	48 8d 85 e0 eb ff ff 	lea    -0x1420(%rbp),%rax
   17304:	48 89 45 b0          	mov    %rax,-0x50(%rbp)
   17308:	48 c7 45 b8 00 00 00 	movq   $0x0,-0x48(%rbp)
   1730f:	00 
   17310:	0f b7 85 cc eb ff ff 	movzwl -0x1434(%rbp),%eax
   17317:	0f b6 c0             	movzbl %al,%eax
   1731a:	be 04 00 00 00       	mov    $0x4,%esi
   1731f:	89 c7                	mov    %eax,%edi
   17321:	e8 98 f9 fe ff       	callq  6cbe <safe_rshift_func_uint8_t_u_u>
   17326:	0f b6 c0             	movzbl %al,%eax
   17329:	48 89 05 18 90 00 00 	mov    %rax,0x9018(%rip)        # 20348 <g_355>
   17330:	4c 8b 3d 11 90 00 00 	mov    0x9011(%rip),%r15        # 20348 <g_355>
   17337:	0f b7 05 ea 8f 00 00 	movzwl 0x8fea(%rip),%eax        # 20328 <g_138>
   1733e:	0f b7 d8             	movzwl %ax,%ebx
   17341:	0f b7 85 cc eb ff ff 	movzwl -0x1434(%rbp),%eax
   17348:	44 0f be e0          	movsbl %al,%r12d
   1734c:	0f b6 05 ed 8f 00 00 	movzbl 0x8fed(%rip),%eax        # 20340 <g_257>
   17353:	4c 0f be e8          	movsbq %al,%r13
   17357:	8b 05 5b b5 00 00    	mov    0xb55b(%rip),%eax        # 228b8 <g_165>
   1735d:	89 c0                	mov    %eax,%eax
   1735f:	48 89 85 c0 eb ff ff 	mov    %rax,-0x1440(%rbp)
   17366:	8b 05 3c 8f 00 00    	mov    0x8f3c(%rip),%eax        # 202a8 <g_77+0xc8>
   1736c:	4c 63 f0             	movslq %eax,%r14
   1736f:	8b 05 53 8e 00 00    	mov    0x8e53(%rip),%eax        # 201c8 <g_14>
   17375:	89 c6                	mov    %eax,%esi
   17377:	bf c1 7b 00 00       	mov    $0x7bc1,%edi
   1737c:	e8 f9 fa fe ff       	callq  6e7a <safe_rshift_func_uint16_t_u_u>
   17381:	0f b7 c0             	movzwl %ax,%eax
   17384:	0b 85 b4 ec ff ff    	or     -0x134c(%rbp),%eax
   1738a:	48 98                	cltq   
   1738c:	4c 89 f6             	mov    %r14,%rsi
   1738f:	48 89 c7             	mov    %rax,%rdi
   17392:	e8 97 fc fe ff       	callq  702e <safe_add_func_uint64_t_u_u>
   17397:	48 8b b5 c0 eb ff ff 	mov    -0x1440(%rbp),%rsi
   1739e:	48 89 c7             	mov    %rax,%rdi
   173a1:	e8 9b f4 fe ff       	callq  6841 <safe_add_func_int64_t_s_s>
   173a6:	4c 89 ee             	mov    %r13,%rsi
   173a9:	48 bf 5f f1 45 c5 bb 	movabs $0xebf90abbc545f15f,%rdi
   173b0:	0a f9 eb 
   173b3:	e8 3f f6 fe ff       	callq  69f7 <safe_div_func_int64_t_s_s>
   173b8:	0f be c0             	movsbl %al,%eax
   173bb:	44 89 e6             	mov    %r12d,%esi
   173be:	89 c7                	mov    %eax,%edi
   173c0:	e8 4d ee fe ff       	callq  6212 <safe_mul_func_int8_t_s_s>
   173c5:	0f b7 85 cc eb ff ff 	movzwl -0x1434(%rbp),%eax
   173cc:	98                   	cwtl   
   173cd:	89 c6                	mov    %eax,%esi
   173cf:	bf fd ff ff ff       	mov    $0xfffffffd,%edi
   173d4:	e8 3d f0 fe ff       	callq  6416 <safe_mod_func_int16_t_s_s>
   173d9:	48 0f bf d0          	movswq %ax,%rdx
   173dd:	48 8b 85 b0 ee ff ff 	mov    -0x1150(%rbp),%rax
   173e4:	48 89 10             	mov    %rdx,(%rax)
   173e7:	48 8b 85 b0 ee ff ff 	mov    -0x1150(%rbp),%rax
   173ee:	48 8b 00             	mov    (%rax),%rax
   173f1:	48 89 de             	mov    %rbx,%rsi
   173f4:	48 89 c7             	mov    %rax,%rdi
   173f7:	e8 b8 f5 fe ff       	callq  69b4 <safe_mod_func_int64_t_s_s>
   173fc:	0f b6 15 1d 8f 00 00 	movzbl 0x8f1d(%rip),%edx        # 20320 <g_119>
   17403:	48 0f be ca          	movsbq %dl,%rcx
   17407:	48 8b 95 b8 ee ff ff 	mov    -0x1148(%rbp),%rdx
   1740e:	48 8b 12             	mov    (%rdx),%rdx
   17411:	48 31 c2             	xor    %rax,%rdx
   17414:	48 8b 85 b8 ee ff ff 	mov    -0x1148(%rbp),%rax
   1741b:	48 89 10             	mov    %rdx,(%rax)
   1741e:	48 8b 85 b8 ee ff ff 	mov    -0x1148(%rbp),%rax
   17425:	48 8b 00             	mov    (%rax),%rax
   17428:	48 39 c1             	cmp    %rax,%rcx
   1742b:	7e 07                	jle    17434 <func_111+0x260f>
   1742d:	b8 01 00 00 00       	mov    $0x1,%eax
   17432:	eb 05                	jmp    17439 <func_111+0x2614>
   17434:	b8 00 00 00 00       	mov    $0x0,%eax
   17439:	89 85 b4 ec ff ff    	mov    %eax,-0x134c(%rbp)
   1743f:	8b 85 b4 ec ff ff    	mov    -0x134c(%rbp),%eax
   17445:	48 98                	cltq   
   17447:	49 39 c7             	cmp    %rax,%r15
   1744a:	0f 9c c0             	setl   %al
   1744d:	0f b6 d0             	movzbl %al,%edx
   17450:	8b 85 08 ec ff ff    	mov    -0x13f8(%rbp),%eax
   17456:	09 d0                	or     %edx,%eax
   17458:	89 85 08 ec ff ff    	mov    %eax,-0x13f8(%rbp)
   1745e:	8b 85 08 ec ff ff    	mov    -0x13f8(%rbp),%eax
   17464:	c1 e8 1f             	shr    $0x1f,%eax
   17467:	0f b6 d0             	movzbl %al,%edx
   1746a:	0f b6 85 60 f0 ff ff 	movzbl -0xfa0(%rbp),%eax
   17471:	0f b6 c0             	movzbl %al,%eax
   17474:	39 c2                	cmp    %eax,%edx
   17476:	ba de e5 ff ff       	mov    $0xffffe5de,%edx
   1747b:	48 8b 85 80 ee ff ff 	mov    -0x1180(%rbp),%rax
   17482:	66 89 10             	mov    %dx,(%rax)
   17485:	48 8b 85 80 ee ff ff 	mov    -0x1180(%rbp),%rax
   1748c:	0f b7 00             	movzwl (%rax),%eax
   1748f:	98                   	cwtl   
   17490:	be 02 00 00 00       	mov    $0x2,%esi
   17495:	89 c7                	mov    %eax,%edi
   17497:	e8 45 f0 fe ff       	callq  64e1 <safe_lshift_func_int16_t_s_u>
   1749c:	0f b6 d0             	movzbl %al,%edx
   1749f:	0f b7 85 cc eb ff ff 	movzwl -0x1434(%rbp),%eax
   174a6:	66 85 c0             	test   %ax,%ax
   174a9:	75 21                	jne    174cc <func_111+0x26a7>
   174ab:	8b 85 f8 ee ff ff    	mov    -0x1108(%rbp),%eax
   174b1:	89 c1                	mov    %eax,%ecx
   174b3:	48 8b 85 88 ee ff ff 	mov    -0x1178(%rbp),%rax
   174ba:	66 89 08             	mov    %cx,(%rax)
   174bd:	48 8b 85 88 ee ff ff 	mov    -0x1178(%rbp),%rax
   174c4:	0f b7 00             	movzwl (%rax),%eax
   174c7:	66 85 c0             	test   %ax,%ax
   174ca:	74 07                	je     174d3 <func_111+0x26ae>
   174cc:	b8 01 00 00 00       	mov    $0x1,%eax
   174d1:	eb 05                	jmp    174d8 <func_111+0x26b3>
   174d3:	b8 00 00 00 00       	mov    $0x0,%eax
   174d8:	0f b6 c0             	movzbl %al,%eax
   174db:	89 d6                	mov    %edx,%esi
   174dd:	89 c7                	mov    %eax,%edi
   174df:	e8 94 f6 fe ff       	callq  6b78 <safe_sub_func_uint8_t_u_u>
   174e4:	0f b6 d0             	movzbl %al,%edx
   174e7:	0f b6 05 4a 8e 00 00 	movzbl 0x8e4a(%rip),%eax        # 20338 <g_159>
   174ee:	83 c0 01             	add    $0x1,%eax
   174f1:	88 05 41 8e 00 00    	mov    %al,0x8e41(%rip)        # 20338 <g_159>
   174f7:	48 8b 85 a8 ee ff ff 	mov    -0x1158(%rbp),%rax
   174fe:	48 8b 00             	mov    (%rax),%rax
   17501:	48 8d 48 01          	lea    0x1(%rax),%rcx
   17505:	48 8b 85 a8 ee ff ff 	mov    -0x1158(%rbp),%rax
   1750c:	48 89 08             	mov    %rcx,(%rax)
   1750f:	48 8b 85 a8 ee ff ff 	mov    -0x1158(%rbp),%rax
   17516:	48 8b 00             	mov    (%rax),%rax
   17519:	48 89 d6             	mov    %rdx,%rsi
   1751c:	48 89 c7             	mov    %rax,%rdi
   1751f:	e8 27 fb fe ff       	callq  704b <safe_sub_func_uint64_t_u_u>
   17524:	48 8b 85 e8 ec ff ff 	mov    -0x1318(%rbp),%rax
   1752b:	48 8b 00             	mov    (%rax),%rax
   1752e:	8b 00                	mov    (%rax),%eax
   17530:	83 c8 01             	or     $0x1,%eax
   17533:	89 c2                	mov    %eax,%edx
   17535:	0f b7 85 cc eb ff ff 	movzwl -0x1434(%rbp),%eax
   1753c:	09 d0                	or     %edx,%eax
   1753e:	0f be c0             	movsbl %al,%eax
   17541:	be 99 ff ff ff       	mov    $0xffffff99,%esi
   17546:	89 c7                	mov    %eax,%edi
   17548:	e8 c5 ec fe ff       	callq  6212 <safe_mul_func_int8_t_s_s>
   1754d:	48 8b 05 fc 98 00 00 	mov    0x98fc(%rip),%rax        # 20e50 <g_323>
   17554:	48 8b 00             	mov    (%rax),%rax
   17557:	8b 00                	mov    (%rax),%eax
   17559:	89 85 04 ec ff ff    	mov    %eax,-0x13fc(%rbp)
   1755f:	0f b7 85 cc eb ff ff 	movzwl -0x1434(%rbp),%eax
   17566:	0f b6 d8             	movzbl %al,%ebx
   17569:	8b 05 49 b3 00 00    	mov    0xb349(%rip),%eax        # 228b8 <g_165>
   1756f:	41 89 c6             	mov    %eax,%r14d
   17572:	8b 85 b4 ec ff ff    	mov    -0x134c(%rbp),%eax
   17578:	44 0f bf e0          	movswl %ax,%r12d
   1757c:	0f b6 05 9d 8d 00 00 	movzbl 0x8d9d(%rip),%eax        # 20320 <g_119>
   17583:	44 0f be e8          	movsbl %al,%r13d
   17587:	0f b7 85 cc eb ff ff 	movzwl -0x1434(%rbp),%eax
   1758e:	0f bf d0             	movswl %ax,%edx
   17591:	48 8b 05 b0 98 00 00 	mov    0x98b0(%rip),%rax        # 20e48 <g_324>
   17598:	8b 00                	mov    (%rax),%eax
   1759a:	89 d6                	mov    %edx,%esi
   1759c:	89 c7                	mov    %eax,%edi
   1759e:	e8 62 f0 fe ff       	callq  6605 <safe_sub_func_int32_t_s_s>
   175a3:	89 c2                	mov    %eax,%edx
   175a5:	48 8b 85 80 ee ff ff 	mov    -0x1180(%rbp),%rax
   175ac:	66 89 10             	mov    %dx,(%rax)
   175af:	48 8b 85 80 ee ff ff 	mov    -0x1180(%rbp),%rax
   175b6:	0f b7 00             	movzwl (%rax),%eax
   175b9:	98                   	cwtl   
   175ba:	44 89 ee             	mov    %r13d,%esi
   175bd:	89 c7                	mov    %eax,%edi
   175bf:	e8 0f ee fe ff       	callq  63d3 <safe_sub_func_int16_t_s_s>
   175c4:	ba 01 00 00 00       	mov    $0x1,%edx
   175c9:	48 8b 85 30 ed ff ff 	mov    -0x12d0(%rbp),%rax
   175d0:	0f b6 00             	movzbl (%rax),%eax
   175d3:	21 c2                	and    %eax,%edx
   175d5:	48 8b 85 30 ed ff ff 	mov    -0x12d0(%rbp),%rax
   175dc:	88 10                	mov    %dl,(%rax)
   175de:	48 8b 85 30 ed ff ff 	mov    -0x12d0(%rbp),%rax
   175e5:	0f b6 00             	movzbl (%rax),%eax
   175e8:	84 c0                	test   %al,%al
   175ea:	75 0b                	jne    175f7 <func_111+0x27d2>
   175ec:	0f b6 05 2f 8d 00 00 	movzbl 0x8d2f(%rip),%eax        # 20322 <g_121+0x1>
   175f3:	84 c0                	test   %al,%al
   175f5:	74 07                	je     175fe <func_111+0x27d9>
   175f7:	b8 01 00 00 00       	mov    $0x1,%eax
   175fc:	eb 05                	jmp    17603 <func_111+0x27de>
   175fe:	b8 00 00 00 00       	mov    $0x0,%eax
   17603:	98                   	cwtl   
   17604:	44 89 e6             	mov    %r12d,%esi
   17607:	89 c7                	mov    %eax,%edi
   17609:	e8 c5 ed fe ff       	callq  63d3 <safe_sub_func_int16_t_s_s>
   1760e:	98                   	cwtl   
   1760f:	89 85 0c f6 ff ff    	mov    %eax,-0x9f4(%rbp)
   17615:	8b 85 0c f6 ff ff    	mov    -0x9f4(%rbp),%eax
   1761b:	48 98                	cltq   
   1761d:	4c 89 f6             	mov    %r14,%rsi
   17620:	48 89 c7             	mov    %rax,%rdi
   17623:	e8 19 f2 fe ff       	callq  6841 <safe_add_func_int64_t_s_s>
   17628:	89 de                	mov    %ebx,%esi
   1762a:	bf e0 00 00 00       	mov    $0xe0,%edi
   1762f:	e8 7a f5 fe ff       	callq  6bae <safe_mod_func_uint8_t_u_u>
   17634:	0f b6 05 fd 8c 00 00 	movzbl 0x8cfd(%rip),%eax        # 20338 <g_159>
   1763b:	0f b6 d0             	movzbl %al,%edx
   1763e:	8b 85 b4 ec ff ff    	mov    -0x134c(%rbp),%eax
   17644:	89 d6                	mov    %edx,%esi
   17646:	89 c7                	mov    %eax,%edi
   17648:	e8 b0 f8 fe ff       	callq  6efd <safe_mod_func_uint32_t_u_u>
   1764d:	0f b7 95 e8 eb ff ff 	movzwl -0x1418(%rbp),%edx
   17654:	09 c2                	or     %eax,%edx
   17656:	0f b6 05 c3 8c 00 00 	movzbl 0x8cc3(%rip),%eax        # 20320 <g_119>
   1765d:	3c 05                	cmp    $0x5,%al
   1765f:	77 10                	ja     17671 <func_111+0x284c>
   17661:	83 bd b4 ec ff ff 00 	cmpl   $0x0,-0x134c(%rbp)
   17668:	74 07                	je     17671 <func_111+0x284c>
   1766a:	b8 01 00 00 00       	mov    $0x1,%eax
   1766f:	eb 05                	jmp    17676 <func_111+0x2851>
   17671:	b8 00 00 00 00       	mov    $0x0,%eax
   17676:	0f b6 c0             	movzbl %al,%eax
   17679:	89 d6                	mov    %edx,%esi
   1767b:	89 c7                	mov    %eax,%edi
   1767d:	e8 ca f5 fe ff       	callq  6c4c <safe_lshift_func_uint8_t_u_u>
   17682:	48 8b 15 c7 97 00 00 	mov    0x97c7(%rip),%rdx        # 20e50 <g_323>
   17689:	48 8b 85 e8 ec ff ff 	mov    -0x1318(%rbp),%rax
   17690:	48 8b 12             	mov    (%rdx),%rdx
   17693:	48 89 10             	mov    %rdx,(%rax)
   17696:	e9 57 04 00 00       	jmpq   17af2 <func_111+0x2ccd>
   1769b:	48 8d 05 ae 8c 00 00 	lea    0x8cae(%rip),%rax        # 20350 <g_373>
   176a2:	48 89 85 c0 ee ff ff 	mov    %rax,-0x1140(%rbp)
   176a9:	48 8d 05 80 8c 00 00 	lea    0x8c80(%rip),%rax        # 20330 <g_154>
   176b0:	48 89 85 c8 ee ff ff 	mov    %rax,-0x1138(%rbp)
   176b7:	48 8d 05 82 8c 00 00 	lea    0x8c82(%rip),%rax        # 20340 <g_257>
   176be:	48 89 85 d0 ee ff ff 	mov    %rax,-0x1130(%rbp)
   176c5:	48 8d 85 f0 ec ff ff 	lea    -0x1310(%rbp),%rax
   176cc:	48 89 85 d8 ee ff ff 	mov    %rax,-0x1128(%rbp)
   176d3:	c7 85 b8 ec ff ff 41 	movl   $0xe6e5e341,-0x1348(%rbp)
   176da:	e3 e5 e6 
   176dd:	c7 85 00 f4 ff ff ff 	movl   $0xffffffff,-0xc00(%rbp)
   176e4:	ff ff ff 
   176e7:	c7 85 04 f4 ff ff 9a 	movl   $0xe643ca9a,-0xbfc(%rbp)
   176ee:	ca 43 e6 
   176f1:	c7 85 08 f4 ff ff 9a 	movl   $0xe643ca9a,-0xbf8(%rbp)
   176f8:	ca 43 e6 
   176fb:	c7 85 0c f4 ff ff a1 	movl   $0xe7559ba1,-0xbf4(%rbp)
   17702:	9b 55 e7 
   17705:	c7 85 10 f4 ff ff 9a 	movl   $0xe643ca9a,-0xbf0(%rbp)
   1770c:	ca 43 e6 
   1770f:	c7 85 14 f4 ff ff 8e 	movl   $0x152ea28e,-0xbec(%rbp)
   17716:	a2 2e 15 
   17719:	c7 85 18 f4 ff ff 24 	movl   $0xc4ca0e24,-0xbe8(%rbp)
   17720:	0e ca c4 
   17723:	c7 85 1c f4 ff ff ff 	movl   $0xffffffff,-0xbe4(%rbp)
   1772a:	ff ff ff 
   1772d:	c7 85 20 f4 ff ff 00 	movl   $0x0,-0xbe0(%rbp)
   17734:	00 00 00 
   17737:	c7 85 24 f4 ff ff a1 	movl   $0xe7559ba1,-0xbdc(%rbp)
   1773e:	9b 55 e7 
   17741:	c7 85 28 f4 ff ff a1 	movl   $0xe7559ba1,-0xbd8(%rbp)
   17748:	9b 55 e7 
   1774b:	c7 85 2c f4 ff ff 00 	movl   $0x0,-0xbd4(%rbp)
   17752:	00 00 00 
   17755:	c7 85 30 f4 ff ff ff 	movl   $0xffffffff,-0xbd0(%rbp)
   1775c:	ff ff ff 
   1775f:	c7 85 34 f4 ff ff 24 	movl   $0xc4ca0e24,-0xbcc(%rbp)
   17766:	0e ca c4 
   17769:	c7 85 38 f4 ff ff 8e 	movl   $0x152ea28e,-0xbc8(%rbp)
   17770:	a2 2e 15 
   17773:	c7 85 3c f4 ff ff 9a 	movl   $0xe643ca9a,-0xbc4(%rbp)
   1777a:	ca 43 e6 
   1777d:	c7 85 40 f4 ff ff a1 	movl   $0xe7559ba1,-0xbc0(%rbp)
   17784:	9b 55 e7 
   17787:	c7 85 44 f4 ff ff 9a 	movl   $0xe643ca9a,-0xbbc(%rbp)
   1778e:	ca 43 e6 
   17791:	c7 85 48 f4 ff ff 9a 	movl   $0xe643ca9a,-0xbb8(%rbp)
   17798:	ca 43 e6 
   1779b:	c7 85 4c f4 ff ff ff 	movl   $0xffffffff,-0xbb4(%rbp)
   177a2:	ff ff ff 
   177a5:	c7 85 50 f4 ff ff a1 	movl   $0xe7559ba1,-0xbb0(%rbp)
   177ac:	9b 55 e7 
   177af:	c7 85 54 f4 ff ff ff 	movl   $0xffffffff,-0xbac(%rbp)
   177b6:	ff ff ff 
   177b9:	c7 85 58 f4 ff ff 9a 	movl   $0xe643ca9a,-0xba8(%rbp)
   177c0:	ca 43 e6 
   177c3:	c7 85 5c f4 ff ff 9a 	movl   $0xe643ca9a,-0xba4(%rbp)
   177ca:	ca 43 e6 
   177cd:	c7 85 60 f4 ff ff a1 	movl   $0xe7559ba1,-0xba0(%rbp)
   177d4:	9b 55 e7 
   177d7:	c7 85 64 f4 ff ff 9a 	movl   $0xe643ca9a,-0xb9c(%rbp)
   177de:	ca 43 e6 
   177e1:	c7 85 68 f4 ff ff 8e 	movl   $0x152ea28e,-0xb98(%rbp)
   177e8:	a2 2e 15 
   177eb:	c7 85 6c f4 ff ff 24 	movl   $0xc4ca0e24,-0xb94(%rbp)
   177f2:	0e ca c4 
   177f5:	c7 85 70 f4 ff ff ff 	movl   $0xffffffff,-0xb90(%rbp)
   177fc:	ff ff ff 
   177ff:	c7 85 74 f4 ff ff 00 	movl   $0x0,-0xb8c(%rbp)
   17806:	00 00 00 
   17809:	66 c7 85 e2 eb ff ff 	movw   $0xffea,-0x141e(%rbp)
   17810:	ea ff 
   17812:	e9 e6 01 00 00       	jmpq   179fd <func_111+0x2bd8>
   17817:	48 c7 85 00 f9 ff ff 	movq   $0x0,-0x700(%rbp)
   1781e:	00 00 00 00 
   17822:	48 c7 85 08 f9 ff ff 	movq   $0x0,-0x6f8(%rbp)
   17829:	00 00 00 00 
   1782d:	48 c7 85 10 f9 ff ff 	movq   $0x0,-0x6f0(%rbp)
   17834:	00 00 00 00 
   17838:	48 8d 85 10 ec ff ff 	lea    -0x13f0(%rbp),%rax
   1783f:	48 89 85 18 f9 ff ff 	mov    %rax,-0x6e8(%rbp)
   17846:	48 8d 85 10 ec ff ff 	lea    -0x13f0(%rbp),%rax
   1784d:	48 89 85 20 f9 ff ff 	mov    %rax,-0x6e0(%rbp)
   17854:	48 8d 85 10 ec ff ff 	lea    -0x13f0(%rbp),%rax
   1785b:	48 89 85 28 f9 ff ff 	mov    %rax,-0x6d8(%rbp)
   17862:	48 c7 85 30 f9 ff ff 	movq   $0x0,-0x6d0(%rbp)
   17869:	00 00 00 00 
   1786d:	48 c7 85 38 f9 ff ff 	movq   $0x0,-0x6c8(%rbp)
   17874:	00 00 00 00 
   17878:	48 c7 85 40 f9 ff ff 	movq   $0x0,-0x6c0(%rbp)
   1787f:	00 00 00 00 
   17883:	48 8d 85 10 ec ff ff 	lea    -0x13f0(%rbp),%rax
   1788a:	48 89 85 48 f9 ff ff 	mov    %rax,-0x6b8(%rbp)
   17891:	48 8d 85 10 ec ff ff 	lea    -0x13f0(%rbp),%rax
   17898:	48 89 85 50 f9 ff ff 	mov    %rax,-0x6b0(%rbp)
   1789f:	48 8d 85 10 ec ff ff 	lea    -0x13f0(%rbp),%rax
   178a6:	48 89 85 58 f9 ff ff 	mov    %rax,-0x6a8(%rbp)
   178ad:	48 c7 85 60 f9 ff ff 	movq   $0x0,-0x6a0(%rbp)
   178b4:	00 00 00 00 
   178b8:	48 c7 85 68 f9 ff ff 	movq   $0x0,-0x698(%rbp)
   178bf:	00 00 00 00 
   178c3:	48 c7 85 70 f9 ff ff 	movq   $0x0,-0x690(%rbp)
   178ca:	00 00 00 00 
   178ce:	48 8d 85 10 ec ff ff 	lea    -0x13f0(%rbp),%rax
   178d5:	48 89 85 78 f9 ff ff 	mov    %rax,-0x688(%rbp)
   178dc:	48 8d 85 10 ec ff ff 	lea    -0x13f0(%rbp),%rax
   178e3:	48 89 85 80 f9 ff ff 	mov    %rax,-0x680(%rbp)
   178ea:	48 8d 85 10 ec ff ff 	lea    -0x13f0(%rbp),%rax
   178f1:	48 89 85 88 f9 ff ff 	mov    %rax,-0x678(%rbp)
   178f8:	48 c7 85 90 f9 ff ff 	movq   $0x0,-0x670(%rbp)
   178ff:	00 00 00 00 
   17903:	48 c7 85 98 f9 ff ff 	movq   $0x0,-0x668(%rbp)
   1790a:	00 00 00 00 
   1790e:	48 c7 85 a0 f9 ff ff 	movq   $0x0,-0x660(%rbp)
   17915:	00 00 00 00 
   17919:	48 8d 85 10 ec ff ff 	lea    -0x13f0(%rbp),%rax
   17920:	48 89 85 a8 f9 ff ff 	mov    %rax,-0x658(%rbp)
   17927:	48 8d 85 10 ec ff ff 	lea    -0x13f0(%rbp),%rax
   1792e:	48 89 85 b0 f9 ff ff 	mov    %rax,-0x650(%rbp)
   17935:	48 8d 85 10 ec ff ff 	lea    -0x13f0(%rbp),%rax
   1793c:	48 89 85 b8 f9 ff ff 	mov    %rax,-0x648(%rbp)
   17943:	48 c7 85 c0 f9 ff ff 	movq   $0x0,-0x640(%rbp)
   1794a:	00 00 00 00 
   1794e:	48 c7 85 c8 f9 ff ff 	movq   $0x0,-0x638(%rbp)
   17955:	00 00 00 00 
   17959:	48 c7 85 d0 f9 ff ff 	movq   $0x0,-0x630(%rbp)
   17960:	00 00 00 00 
   17964:	48 8d 85 10 ec ff ff 	lea    -0x13f0(%rbp),%rax
   1796b:	48 89 85 d8 f9 ff ff 	mov    %rax,-0x628(%rbp)
   17972:	48 8d 85 10 ec ff ff 	lea    -0x13f0(%rbp),%rax
   17979:	48 89 85 e0 f9 ff ff 	mov    %rax,-0x620(%rbp)
   17980:	48 8d 85 10 ec ff ff 	lea    -0x13f0(%rbp),%rax
   17987:	48 89 85 e8 f9 ff ff 	mov    %rax,-0x618(%rbp)
   1798e:	48 8d 05 bb 89 00 00 	lea    0x89bb(%rip),%rax        # 20350 <g_373>
   17995:	48 39 85 c0 ee ff ff 	cmp    %rax,-0x1140(%rbp)
   1799c:	0f 94 c0             	sete   %al
   1799f:	0f b6 d0             	movzbl %al,%edx
   179a2:	0f b6 05 7e 89 00 00 	movzbl 0x897e(%rip),%eax        # 20327 <g_121+0x6>
   179a9:	0f be c0             	movsbl %al,%eax
   179ac:	89 d6                	mov    %edx,%esi
   179ae:	89 c7                	mov    %eax,%edi
   179b0:	e8 80 e9 fe ff       	callq  6335 <safe_rshift_func_int8_t_s_s>
   179b5:	0f be c0             	movsbl %al,%eax
   179b8:	89 05 ea 88 00 00    	mov    %eax,0x88ea(%rip)        # 202a8 <g_77+0xc8>
   179be:	8b 85 00 ec ff ff    	mov    -0x1400(%rbp),%eax
   179c4:	25 e4 d4 1a 23       	and    $0x231ad4e4,%eax
   179c9:	89 85 00 ec ff ff    	mov    %eax,-0x1400(%rbp)
   179cf:	48 8b 85 e8 ec ff ff 	mov    -0x1318(%rbp),%rax
   179d6:	48 8d 95 04 ec ff ff 	lea    -0x13fc(%rbp),%rdx
   179dd:	48 89 10             	mov    %rdx,(%rax)
   179e0:	8b 05 52 89 00 00    	mov    0x8952(%rip),%eax        # 20338 <g_159>
   179e6:	89 85 10 ec ff ff    	mov    %eax,-0x13f0(%rbp)
   179ec:	0f b7 85 e2 eb ff ff 	movzwl -0x141e(%rbp),%eax
   179f3:	83 c0 01             	add    $0x1,%eax
   179f6:	66 89 85 e2 eb ff ff 	mov    %ax,-0x141e(%rbp)
   179fd:	0f b7 85 e2 eb ff ff 	movzwl -0x141e(%rbp),%eax
   17a04:	66 83 f8 16          	cmp    $0x16,%ax
   17a08:	0f 84 09 fe ff ff    	je     17817 <func_111+0x29f2>
   17a0e:	0f b7 85 cc eb ff ff 	movzwl -0x1434(%rbp),%eax
   17a15:	0f be d8             	movsbl %al,%ebx
   17a18:	8b 85 24 f1 ff ff    	mov    -0xedc(%rbp),%eax
   17a1e:	85 c0                	test   %eax,%eax
   17a20:	75 47                	jne    17a69 <func_111+0x2c44>
   17a22:	0f b7 85 cc eb ff ff 	movzwl -0x1434(%rbp),%eax
   17a29:	0f b7 d0             	movzwl %ax,%edx
   17a2c:	48 8b 05 1d 89 00 00 	mov    0x891d(%rip),%rax        # 20350 <g_373>
   17a33:	48 85 c0             	test   %rax,%rax
   17a36:	74 1b                	je     17a53 <func_111+0x2c2e>
   17a38:	48 8b 85 c8 ee ff ff 	mov    -0x1138(%rbp),%rax
   17a3f:	48 b9 18 a0 df 39 15 	movabs $0xbe37ee1539dfa018,%rcx
   17a46:	ee 37 be 
   17a49:	48 89 08             	mov    %rcx,(%rax)
   17a4c:	b8 01 00 00 00       	mov    $0x1,%eax
   17a51:	eb 05                	jmp    17a58 <func_111+0x2c33>
   17a53:	b8 00 00 00 00       	mov    $0x0,%eax
   17a58:	0f b7 c0             	movzwl %ax,%eax
   17a5b:	89 d6                	mov    %edx,%esi
   17a5d:	89 c7                	mov    %eax,%edi
   17a5f:	e8 d9 f2 fe ff       	callq  6d3d <safe_mul_func_uint16_t_u_u>
   17a64:	66 85 c0             	test   %ax,%ax
   17a67:	74 07                	je     17a70 <func_111+0x2c4b>
   17a69:	b8 01 00 00 00       	mov    $0x1,%eax
   17a6e:	eb 05                	jmp    17a75 <func_111+0x2c50>
   17a70:	b8 00 00 00 00       	mov    $0x0,%eax
   17a75:	88 05 a7 88 00 00    	mov    %al,0x88a7(%rip)        # 20322 <g_121+0x1>
   17a7b:	0f b6 15 a0 88 00 00 	movzbl 0x88a0(%rip),%edx        # 20322 <g_121+0x1>
   17a82:	48 8b 85 d0 ee ff ff 	mov    -0x1130(%rbp),%rax
   17a89:	88 10                	mov    %dl,(%rax)
   17a8b:	48 8b 95 f0 ec ff ff 	mov    -0x1310(%rbp),%rdx
   17a92:	48 8b 85 d8 ee ff ff 	mov    -0x1128(%rbp),%rax
   17a99:	48 89 10             	mov    %rdx,(%rax)
   17a9c:	c7 85 08 ec ff ff 00 	movl   $0x0,-0x13f8(%rbp)
   17aa3:	00 00 00 
   17aa6:	be ff 00 00 00       	mov    $0xff,%esi
   17aab:	bf 01 00 00 00       	mov    $0x1,%edi
   17ab0:	e8 26 f1 fe ff       	callq  6bdb <safe_div_func_uint8_t_u_u>
   17ab5:	48 8b 05 74 88 00 00 	mov    0x8874(%rip),%rax        # 20330 <g_154>
   17abc:	0f be c0             	movsbl %al,%eax
   17abf:	89 de                	mov    %ebx,%esi
   17ac1:	89 c7                	mov    %eax,%edi
   17ac3:	e8 a2 e7 fe ff       	callq  626a <safe_div_func_int8_t_s_s>
   17ac8:	66 98                	cbtw   
   17aca:	8b 15 6c 88 00 00    	mov    0x886c(%rip),%edx        # 2033c <g_163>
   17ad0:	09 d0                	or     %edx,%eax
   17ad2:	0f b7 c0             	movzwl %ax,%eax
   17ad5:	be 09 00 00 00       	mov    $0x9,%esi
   17ada:	89 c7                	mov    %eax,%edi
   17adc:	e8 99 f3 fe ff       	callq  6e7a <safe_rshift_func_uint16_t_u_u>
   17ae1:	8b 95 00 f4 ff ff    	mov    -0xc00(%rbp),%edx
   17ae7:	0f b7 c0             	movzwl %ax,%eax
   17aea:	31 d0                	xor    %edx,%eax
   17aec:	89 85 00 f4 ff ff    	mov    %eax,-0xc00(%rbp)
   17af2:	48 8b 85 90 ee ff ff 	mov    -0x1170(%rbp),%rax
   17af9:	48 8d 15 b0 ad 00 00 	lea    0xadb0(%rip),%rdx        # 228b0 <g_124>
   17b00:	48 89 10             	mov    %rdx,(%rax)
   17b03:	0f b7 85 cc eb ff ff 	movzwl -0x1434(%rbp),%eax
   17b0a:	66 85 c0             	test   %ax,%ax
   17b0d:	74 76                	je     17b85 <func_111+0x2d60>
   17b0f:	0f b7 05 b6 86 00 00 	movzwl 0x86b6(%rip),%eax        # 201cc <g_43>
   17b16:	0f b7 d0             	movzwl %ax,%edx
   17b19:	0f b7 85 cc eb ff ff 	movzwl -0x1434(%rbp),%eax
   17b20:	66 85 c0             	test   %ax,%ax
   17b23:	74 1e                	je     17b43 <func_111+0x2d1e>
   17b25:	0f b6 8d de eb ff ff 	movzbl -0x1422(%rbp),%ecx
   17b2c:	0f b6 05 ef 87 00 00 	movzbl 0x87ef(%rip),%eax        # 20322 <g_121+0x1>
   17b33:	0f be c0             	movsbl %al,%eax
   17b36:	09 c8                	or     %ecx,%eax
   17b38:	85 c0                	test   %eax,%eax
   17b3a:	74 07                	je     17b43 <func_111+0x2d1e>
   17b3c:	b8 01 00 00 00       	mov    $0x1,%eax
   17b41:	eb 05                	jmp    17b48 <func_111+0x2d23>
   17b43:	b8 00 00 00 00       	mov    $0x0,%eax
   17b48:	0f b7 c0             	movzwl %ax,%eax
   17b4b:	89 d6                	mov    %edx,%esi
   17b4d:	89 c7                	mov    %eax,%edi
   17b4f:	e8 e9 f1 fe ff       	callq  6d3d <safe_mul_func_uint16_t_u_u>
   17b54:	0f b7 05 cf 87 00 00 	movzwl 0x87cf(%rip),%eax        # 2032a <g_145>
   17b5b:	0f be d0             	movsbl %al,%edx
   17b5e:	0f b7 85 cc eb ff ff 	movzwl -0x1434(%rbp),%eax
   17b65:	66 85 c0             	test   %ax,%ax
   17b68:	0f 94 c0             	sete   %al
   17b6b:	0f b6 c0             	movzbl %al,%eax
   17b6e:	89 d6                	mov    %edx,%esi
   17b70:	89 c7                	mov    %eax,%edi
   17b72:	e8 7b e6 fe ff       	callq  61f2 <safe_sub_func_int8_t_s_s>
   17b77:	48 8b 85 38 ed ff ff 	mov    -0x12c8(%rbp),%rax
   17b7e:	48 3b 85 e0 ed ff ff 	cmp    -0x1220(%rbp),%rax
   17b85:	48 83 bd 98 ee ff ff 	cmpq   $0x0,-0x1168(%rbp)
   17b8c:	00 
   17b8d:	0f 95 c0             	setne  %al
   17b90:	0f b6 c0             	movzbl %al,%eax
   17b93:	89 85 f8 eb ff ff    	mov    %eax,-0x1408(%rbp)
   17b99:	8b 85 f8 eb ff ff    	mov    -0x1408(%rbp),%eax
   17b9f:	89 85 58 ec ff ff    	mov    %eax,-0x13a8(%rbp)
   17ba5:	66 c7 85 e8 eb ff ff 	movw   $0x0,-0x1418(%rbp)
   17bac:	00 00 
   17bae:	eb 56                	jmp    17c06 <func_111+0x2de1>
   17bb0:	c7 85 bc ec ff ff 97 	movl   $0x20d5ba97,-0x1344(%rbp)
   17bb7:	ba d5 20 
   17bba:	48 8b 15 8f 92 00 00 	mov    0x928f(%rip),%rdx        # 20e50 <g_323>
   17bc1:	48 8b 05 88 92 00 00 	mov    0x9288(%rip),%rax        # 20e50 <g_323>
   17bc8:	48 8b 12             	mov    (%rdx),%rdx
   17bcb:	48 89 10             	mov    %rdx,(%rax)
   17bce:	83 ad bc ec ff ff 01 	subl   $0x1,-0x1344(%rbp)
   17bd5:	48 8b 05 74 92 00 00 	mov    0x9274(%rip),%rax        # 20e50 <g_323>
   17bdc:	48 8b 00             	mov    (%rax),%rax
   17bdf:	8b 00                	mov    (%rax),%eax
   17be1:	c1 e0 02             	shl    $0x2,%eax
   17be4:	c0 f8 02             	sar    $0x2,%al
   17be7:	83 e0 3f             	and    $0x3f,%eax
   17bea:	89 c2                	mov    %eax,%edx
   17bec:	0f b6 05 46 87 00 00 	movzbl 0x8746(%rip),%eax        # 20339 <g_159+0x1>
   17bf3:	83 e0 c0             	and    $0xffffffc0,%eax
   17bf6:	09 d0                	or     %edx,%eax
   17bf8:	88 05 3b 87 00 00    	mov    %al,0x873b(%rip)        # 20339 <g_159+0x1>
   17bfe:	66 83 85 e8 eb ff ff 	addw   $0x1,-0x1418(%rbp)
   17c05:	01 
   17c06:	66 83 bd e8 eb ff ff 	cmpw   $0x3,-0x1418(%rbp)
   17c0d:	03 
   17c0e:	76 a0                	jbe    17bb0 <func_111+0x2d8b>
   17c10:	8b 85 f4 eb ff ff    	mov    -0x140c(%rbp),%eax
   17c16:	83 e8 01             	sub    $0x1,%eax
   17c19:	89 85 f4 eb ff ff    	mov    %eax,-0x140c(%rbp)
   17c1f:	eb 0d                	jmp    17c2e <func_111+0x2e09>
   17c21:	8b 05 a9 85 00 00    	mov    0x85a9(%rip),%eax        # 201d0 <g_50>
   17c27:	48 98                	cltq   
   17c29:	e9 26 0c 00 00       	jmpq   18854 <func_111+0x3a2f>
   17c2e:	8b 85 f4 eb ff ff    	mov    -0x140c(%rbp),%eax
   17c34:	85 c0                	test   %eax,%eax
   17c36:	0f 89 d3 d7 ff ff    	jns    1540f <func_111+0x5ea>
   17c3c:	8b 15 66 86 00 00    	mov    0x8666(%rip),%edx        # 202a8 <g_77+0xc8>
   17c42:	0f b6 05 f7 86 00 00 	movzbl 0x86f7(%rip),%eax        # 20340 <g_257>
   17c49:	0f be c8             	movsbl %al,%ecx
   17c4c:	48 8b 85 c8 ec ff ff 	mov    -0x1338(%rbp),%rax
   17c53:	48 8b 00             	mov    (%rax),%rax
   17c56:	48 8b 00             	mov    (%rax),%rax
   17c59:	8b 00                	mov    (%rax),%eax
   17c5b:	39 c1                	cmp    %eax,%ecx
   17c5d:	0f 9d c0             	setge  %al
   17c60:	0f b6 c0             	movzbl %al,%eax
   17c63:	31 d0                	xor    %edx,%eax
   17c65:	89 05 3d 86 00 00    	mov    %eax,0x863d(%rip)        # 202a8 <g_77+0xc8>
   17c6b:	c6 05 ae 86 00 00 e8 	movb   $0xe8,0x86ae(%rip)        # 20320 <g_119>
   17c72:	e9 93 0b 00 00       	jmpq   1880a <func_111+0x39e5>
   17c77:	66 c7 85 f0 eb ff ff 	movw   $0xe816,-0x1410(%rbp)
   17c7e:	16 e8 
   17c80:	48 8d 85 0c ec ff ff 	lea    -0x13f4(%rbp),%rax
   17c87:	48 89 85 00 f4 ff ff 	mov    %rax,-0xc00(%rbp)
   17c8e:	48 8d 85 0c ec ff ff 	lea    -0x13f4(%rbp),%rax
   17c95:	48 89 85 08 f4 ff ff 	mov    %rax,-0xbf8(%rbp)
   17c9c:	48 8d 85 0c ec ff ff 	lea    -0x13f4(%rbp),%rax
   17ca3:	48 89 85 10 f4 ff ff 	mov    %rax,-0xbf0(%rbp)
   17caa:	48 8d 85 0c ec ff ff 	lea    -0x13f4(%rbp),%rax
   17cb1:	48 89 85 18 f4 ff ff 	mov    %rax,-0xbe8(%rbp)
   17cb8:	48 8d 85 0c ec ff ff 	lea    -0x13f4(%rbp),%rax
   17cbf:	48 89 85 20 f4 ff ff 	mov    %rax,-0xbe0(%rbp)
   17cc6:	48 8d 85 0c ec ff ff 	lea    -0x13f4(%rbp),%rax
   17ccd:	48 89 85 28 f4 ff ff 	mov    %rax,-0xbd8(%rbp)
   17cd4:	48 8d 85 0c ec ff ff 	lea    -0x13f4(%rbp),%rax
   17cdb:	48 89 85 30 f4 ff ff 	mov    %rax,-0xbd0(%rbp)
   17ce2:	48 8d 85 0c ec ff ff 	lea    -0x13f4(%rbp),%rax
   17ce9:	48 89 85 38 f4 ff ff 	mov    %rax,-0xbc8(%rbp)
   17cf0:	48 8d 85 0c ec ff ff 	lea    -0x13f4(%rbp),%rax
   17cf7:	48 89 85 40 f4 ff ff 	mov    %rax,-0xbc0(%rbp)
   17cfe:	48 c7 85 48 f4 ff ff 	movq   $0x0,-0xbb8(%rbp)
   17d05:	00 00 00 00 
   17d09:	48 8d 85 0c ec ff ff 	lea    -0x13f4(%rbp),%rax
   17d10:	48 89 85 50 f4 ff ff 	mov    %rax,-0xbb0(%rbp)
   17d17:	48 c7 85 58 f4 ff ff 	movq   $0x0,-0xba8(%rbp)
   17d1e:	00 00 00 00 
   17d22:	48 c7 85 60 f4 ff ff 	movq   $0x0,-0xba0(%rbp)
   17d29:	00 00 00 00 
   17d2d:	48 8d 85 0c ec ff ff 	lea    -0x13f4(%rbp),%rax
   17d34:	48 89 85 68 f4 ff ff 	mov    %rax,-0xb98(%rbp)
   17d3b:	48 c7 85 70 f4 ff ff 	movq   $0x0,-0xb90(%rbp)
   17d42:	00 00 00 00 
   17d46:	48 c7 85 78 f4 ff ff 	movq   $0x0,-0xb88(%rbp)
   17d4d:	00 00 00 00 
   17d51:	48 8d 85 0c ec ff ff 	lea    -0x13f4(%rbp),%rax
   17d58:	48 89 85 80 f4 ff ff 	mov    %rax,-0xb80(%rbp)
   17d5f:	48 c7 85 88 f4 ff ff 	movq   $0x0,-0xb78(%rbp)
   17d66:	00 00 00 00 
   17d6a:	48 8d 85 0c ec ff ff 	lea    -0x13f4(%rbp),%rax
   17d71:	48 89 85 90 f4 ff ff 	mov    %rax,-0xb70(%rbp)
   17d78:	48 8d 85 0c ec ff ff 	lea    -0x13f4(%rbp),%rax
   17d7f:	48 89 85 98 f4 ff ff 	mov    %rax,-0xb68(%rbp)
   17d86:	48 8d 85 0c ec ff ff 	lea    -0x13f4(%rbp),%rax
   17d8d:	48 89 85 a0 f4 ff ff 	mov    %rax,-0xb60(%rbp)
   17d94:	48 8d 85 0c ec ff ff 	lea    -0x13f4(%rbp),%rax
   17d9b:	48 89 85 a8 f4 ff ff 	mov    %rax,-0xb58(%rbp)
   17da2:	48 8d 85 0c ec ff ff 	lea    -0x13f4(%rbp),%rax
   17da9:	48 89 85 b0 f4 ff ff 	mov    %rax,-0xb50(%rbp)
   17db0:	48 8d 85 0c ec ff ff 	lea    -0x13f4(%rbp),%rax
   17db7:	48 89 85 b8 f4 ff ff 	mov    %rax,-0xb48(%rbp)
   17dbe:	48 8d 85 0c ec ff ff 	lea    -0x13f4(%rbp),%rax
   17dc5:	48 89 85 c0 f4 ff ff 	mov    %rax,-0xb40(%rbp)
   17dcc:	48 8d 85 0c ec ff ff 	lea    -0x13f4(%rbp),%rax
   17dd3:	48 89 85 c8 f4 ff ff 	mov    %rax,-0xb38(%rbp)
   17dda:	48 8d 85 0c ec ff ff 	lea    -0x13f4(%rbp),%rax
   17de1:	48 89 85 d0 f4 ff ff 	mov    %rax,-0xb30(%rbp)
   17de8:	48 c7 85 d8 f4 ff ff 	movq   $0x0,-0xb28(%rbp)
   17def:	00 00 00 00 
   17df3:	48 8d 85 0c ec ff ff 	lea    -0x13f4(%rbp),%rax
   17dfa:	48 89 85 e0 f4 ff ff 	mov    %rax,-0xb20(%rbp)
   17e01:	48 c7 85 e8 f4 ff ff 	movq   $0x0,-0xb18(%rbp)
   17e08:	00 00 00 00 
   17e0c:	48 c7 85 f0 f4 ff ff 	movq   $0x0,-0xb10(%rbp)
   17e13:	00 00 00 00 
   17e17:	48 8d 85 0c ec ff ff 	lea    -0x13f4(%rbp),%rax
   17e1e:	48 89 85 f8 f4 ff ff 	mov    %rax,-0xb08(%rbp)
   17e25:	48 c7 85 00 f5 ff ff 	movq   $0x0,-0xb00(%rbp)
   17e2c:	00 00 00 00 
   17e30:	48 c7 85 08 f5 ff ff 	movq   $0x0,-0xaf8(%rbp)
   17e37:	00 00 00 00 
   17e3b:	48 8d 85 0c ec ff ff 	lea    -0x13f4(%rbp),%rax
   17e42:	48 89 85 10 f5 ff ff 	mov    %rax,-0xaf0(%rbp)
   17e49:	48 c7 85 18 f5 ff ff 	movq   $0x0,-0xae8(%rbp)
   17e50:	00 00 00 00 
   17e54:	48 b8 55 06 55 00 55 	movabs $0x55065500550655,%rax
   17e5b:	06 55 00 
   17e5e:	48 89 85 70 f0 ff ff 	mov    %rax,-0xf90(%rbp)
   17e65:	66 c7 85 78 f0 ff ff 	movw   $0x655,-0xf88(%rbp)
   17e6c:	55 06 
   17e6e:	48 bb fd 00 01 00 fd 	movabs $0x100fd000100fd,%rbx
   17e75:	00 01 00 
   17e78:	48 89 9d 7a f0 ff ff 	mov    %rbx,-0xf86(%rbp)
   17e7f:	66 c7 85 82 f0 ff ff 	movw   $0xfd,-0xf7e(%rbp)
   17e86:	fd 00 
   17e88:	48 b9 55 00 55 06 55 	movabs $0x655005506550055,%rcx
   17e8f:	00 55 06 
   17e92:	48 89 8d 84 f0 ff ff 	mov    %rcx,-0xf7c(%rbp)
   17e99:	66 c7 85 8c f0 ff ff 	movw   $0x55,-0xf74(%rbp)
   17ea0:	55 00 
   17ea2:	48 be fd 06 01 06 fd 	movabs $0x60106fd060106fd,%rsi
   17ea9:	06 01 06 
   17eac:	48 89 b5 8e f0 ff ff 	mov    %rsi,-0xf72(%rbp)
   17eb3:	66 c7 85 96 f0 ff ff 	movw   $0x6fd,-0xf6a(%rbp)
   17eba:	fd 06 
   17ebc:	48 89 85 98 f0 ff ff 	mov    %rax,-0xf68(%rbp)
   17ec3:	66 c7 85 a0 f0 ff ff 	movw   $0x655,-0xf60(%rbp)
   17eca:	55 06 
   17ecc:	48 89 9d a2 f0 ff ff 	mov    %rbx,-0xf5e(%rbp)
   17ed3:	66 c7 85 aa f0 ff ff 	movw   $0xfd,-0xf56(%rbp)
   17eda:	fd 00 
   17edc:	48 89 8d ac f0 ff ff 	mov    %rcx,-0xf54(%rbp)
   17ee3:	66 c7 85 b4 f0 ff ff 	movw   $0x55,-0xf4c(%rbp)
   17eea:	55 00 
   17eec:	c7 85 64 ec ff ff 04 	movl   $0x4,-0x139c(%rbp)
   17ef3:	00 00 00 
   17ef6:	c7 85 68 ec ff ff a9 	movl   $0xd2f89ba9,-0x1398(%rbp)
   17efd:	9b f8 d2 
   17f00:	c7 85 18 ed ff ff 09 	movl   $0x9,-0x12e8(%rbp)
   17f07:	00 00 00 
   17f0a:	c7 85 20 ed ff ff d3 	movl   $0x80616fd3,-0x12e0(%rbp)
   17f11:	6f 61 80 
   17f14:	c7 85 6c ec ff ff a4 	movl   $0xec8287a4,-0x1394(%rbp)
   17f1b:	87 82 ec 
   17f1e:	c7 85 4c ec ff ff ff 	movl   $0xffffffff,-0x13b4(%rbp)
   17f25:	ff ff ff 
   17f28:	c7 85 50 ec ff ff fe 	movl   $0xfffffffe,-0x13b0(%rbp)
   17f2f:	ff ff ff 
   17f32:	48 c7 85 48 ed ff ff 	movq   $0x0,-0x12b8(%rbp)
   17f39:	00 00 00 00 
   17f3d:	48 8d 85 00 ec ff ff 	lea    -0x1400(%rbp),%rax
   17f44:	48 89 85 50 ed ff ff 	mov    %rax,-0x12b0(%rbp)
   17f4b:	c7 85 54 ec ff ff 00 	movl   $0x0,-0x13ac(%rbp)
   17f52:	00 00 00 
   17f55:	eb 1a                	jmp    17f71 <func_111+0x314c>
   17f57:	8b 85 54 ec ff ff    	mov    -0x13ac(%rbp),%eax
   17f5d:	48 98                	cltq   
   17f5f:	c7 84 85 e8 ee ff ff 	movl   $0x0,-0x1118(%rbp,%rax,4)
   17f66:	00 00 00 00 
   17f6a:	83 85 54 ec ff ff 01 	addl   $0x1,-0x13ac(%rbp)
   17f71:	83 bd 54 ec ff ff 00 	cmpl   $0x0,-0x13ac(%rbp)
   17f78:	7e dd                	jle    17f57 <func_111+0x3132>
   17f7a:	48 c7 05 cb 83 00 00 	movq   $0x6,0x83cb(%rip)        # 20350 <g_373>
   17f81:	06 00 00 00 
   17f85:	e9 1a 08 00 00       	jmpq   187a4 <func_111+0x397f>
   17f8a:	c6 85 28 ed ff ff 08 	movb   $0x8,-0x12d8(%rbp)
   17f91:	0f b6 85 29 ed ff ff 	movzbl -0x12d7(%rbp),%eax
   17f98:	83 e0 c0             	and    $0xffffffc0,%eax
   17f9b:	88 85 29 ed ff ff    	mov    %al,-0x12d7(%rbp)
   17fa1:	c7 85 70 ec ff ff 01 	movl   $0x1,-0x1390(%rbp)
   17fa8:	00 00 00 
   17fab:	c7 85 74 ec ff ff 00 	movl   $0x0,-0x138c(%rbp)
   17fb2:	00 00 00 
   17fb5:	c7 85 90 f1 ff ff 01 	movl   $0x1,-0xe70(%rbp)
   17fbc:	00 00 00 
   17fbf:	c7 85 94 f1 ff ff 03 	movl   $0x3,-0xe6c(%rbp)
   17fc6:	00 00 00 
   17fc9:	c7 85 98 f1 ff ff fb 	movl   $0xfffffffb,-0xe68(%rbp)
   17fd0:	ff ff ff 
   17fd3:	c7 85 9c f1 ff ff 01 	movl   $0x1,-0xe64(%rbp)
   17fda:	00 00 00 
   17fdd:	c7 85 a0 f1 ff ff 01 	movl   $0x1,-0xe60(%rbp)
   17fe4:	00 00 00 
   17fe7:	c7 85 a4 f1 ff ff b8 	movl   $0xd6d677b8,-0xe5c(%rbp)
   17fee:	77 d6 d6 
   17ff1:	c7 85 a8 f1 ff ff 01 	movl   $0x1,-0xe58(%rbp)
   17ff8:	00 00 00 
   17ffb:	c7 85 ac f1 ff ff 01 	movl   $0x1,-0xe54(%rbp)
   18002:	00 00 00 
   18005:	c7 85 b0 f1 ff ff fb 	movl   $0xfffffffb,-0xe50(%rbp)
   1800c:	ff ff ff 
   1800f:	c7 85 b4 f1 ff ff 03 	movl   $0x3,-0xe4c(%rbp)
   18016:	00 00 00 
   18019:	c7 85 b8 f1 ff ff 01 	movl   $0x1,-0xe48(%rbp)
   18020:	00 00 00 
   18023:	c7 85 bc f1 ff ff f3 	movl   $0xb3dfd3f3,-0xe44(%rbp)
   1802a:	d3 df b3 
   1802d:	c7 85 c0 f1 ff ff ff 	movl   $0xffffffff,-0xe40(%rbp)
   18034:	ff ff ff 
   18037:	c7 85 c4 f1 ff ff 01 	movl   $0x1,-0xe3c(%rbp)
   1803e:	00 00 00 
   18041:	c7 85 c8 f1 ff ff b8 	movl   $0xd6d677b8,-0xe38(%rbp)
   18048:	77 d6 d6 
   1804b:	c7 85 cc f1 ff ff 01 	movl   $0x1,-0xe34(%rbp)
   18052:	00 00 00 
   18055:	c7 85 d0 f1 ff ff 01 	movl   $0x1,-0xe30(%rbp)
   1805c:	00 00 00 
   1805f:	c7 85 d4 f1 ff ff 60 	movl   $0x71eadb60,-0xe2c(%rbp)
   18066:	db ea 71 
   18069:	c7 85 d8 f1 ff ff ff 	movl   $0xffffffff,-0xe28(%rbp)
   18070:	ff ff ff 
   18073:	c7 85 dc f1 ff ff 03 	movl   $0x3,-0xe24(%rbp)
   1807a:	00 00 00 
   1807d:	c7 85 e0 f1 ff ff 60 	movl   $0x71eadb60,-0xe20(%rbp)
   18084:	db ea 71 
   18087:	c7 85 e4 f1 ff ff 03 	movl   $0x3,-0xe1c(%rbp)
   1808e:	00 00 00 
   18091:	c7 85 e8 f1 ff ff ff 	movl   $0xffffffff,-0xe18(%rbp)
   18098:	ff ff ff 
   1809b:	c7 85 ec f1 ff ff 60 	movl   $0x71eadb60,-0xe14(%rbp)
   180a2:	db ea 71 
   180a5:	c7 85 f0 f1 ff ff 01 	movl   $0x1,-0xe10(%rbp)
   180ac:	00 00 00 
   180af:	c7 85 f4 f1 ff ff 01 	movl   $0x1,-0xe0c(%rbp)
   180b6:	00 00 00 
   180b9:	c7 85 f8 f1 ff ff b8 	movl   $0xd6d677b8,-0xe08(%rbp)
   180c0:	77 d6 d6 
   180c3:	c7 85 fc f1 ff ff 01 	movl   $0x1,-0xe04(%rbp)
   180ca:	00 00 00 
   180cd:	c7 85 00 f2 ff ff ff 	movl   $0xffffffff,-0xe00(%rbp)
   180d4:	ff ff ff 
   180d7:	c7 85 04 f2 ff ff f3 	movl   $0xb3dfd3f3,-0xdfc(%rbp)
   180de:	d3 df b3 
   180e1:	48 8d 85 b0 f5 ff ff 	lea    -0xa50(%rbp),%rax
   180e8:	48 05 30 03 00 00    	add    $0x330,%rax
   180ee:	48 89 85 58 ed ff ff 	mov    %rax,-0x12a8(%rbp)
   180f5:	48 8d 85 90 f1 ff ff 	lea    -0xe70(%rbp),%rax
   180fc:	48 83 c0 0c          	add    $0xc,%rax
   18100:	48 89 85 60 ed ff ff 	mov    %rax,-0x12a0(%rbp)
   18107:	48 8d 85 f4 ee ff ff 	lea    -0x110c(%rbp),%rax
   1810e:	48 89 85 68 ed ff ff 	mov    %rax,-0x1298(%rbp)
   18115:	48 8d 85 20 ed ff ff 	lea    -0x12e0(%rbp),%rax
   1811c:	48 89 85 70 ed ff ff 	mov    %rax,-0x1290(%rbp)
   18123:	48 8d 85 18 ed ff ff 	lea    -0x12e8(%rbp),%rax
   1812a:	48 89 85 78 ed ff ff 	mov    %rax,-0x1288(%rbp)
   18131:	48 8d 85 e8 ee ff ff 	lea    -0x1118(%rbp),%rax
   18138:	48 89 85 80 ed ff ff 	mov    %rax,-0x1280(%rbp)
   1813f:	48 8d 85 f4 eb ff ff 	lea    -0x140c(%rbp),%rax
   18146:	48 89 85 70 ef ff ff 	mov    %rax,-0x1090(%rbp)
   1814d:	48 8d 85 f4 eb ff ff 	lea    -0x140c(%rbp),%rax
   18154:	48 89 85 78 ef ff ff 	mov    %rax,-0x1088(%rbp)
   1815b:	48 8d 85 f4 eb ff ff 	lea    -0x140c(%rbp),%rax
   18162:	48 89 85 80 ef ff ff 	mov    %rax,-0x1080(%rbp)
   18169:	48 8d 85 f4 eb ff ff 	lea    -0x140c(%rbp),%rax
   18170:	48 89 85 88 ef ff ff 	mov    %rax,-0x1078(%rbp)
   18177:	48 8d 85 f4 eb ff ff 	lea    -0x140c(%rbp),%rax
   1817e:	48 89 85 90 ef ff ff 	mov    %rax,-0x1070(%rbp)
   18185:	0f b7 85 f0 eb ff ff 	movzwl -0x1410(%rbp),%eax
   1818c:	0f b6 c0             	movzbl %al,%eax
   1818f:	89 c6                	mov    %eax,%esi
   18191:	bf 01 00 00 00       	mov    $0x1,%edi
   18196:	e8 40 ea fe ff       	callq  6bdb <safe_div_func_uint8_t_u_u>
   1819b:	0f b6 d0             	movzbl %al,%edx
   1819e:	0f b7 85 cc eb ff ff 	movzwl -0x1434(%rbp),%eax
   181a5:	98                   	cwtl   
   181a6:	39 c2                	cmp    %eax,%edx
   181a8:	be 01 00 00 00       	mov    $0x1,%esi
   181ad:	bf 29 01 00 00       	mov    $0x129,%edi
   181b2:	e8 1c e2 fe ff       	callq  63d3 <safe_sub_func_int16_t_s_s>
   181b7:	0f be c0             	movsbl %al,%eax
   181ba:	be 22 00 00 00       	mov    $0x22,%esi
   181bf:	89 c7                	mov    %eax,%edi
   181c1:	e8 4c e0 fe ff       	callq  6212 <safe_mul_func_int8_t_s_s>
   181c6:	0f be d8             	movsbl %al,%ebx
   181c9:	0f b6 05 68 81 00 00 	movzbl 0x8168(%rip),%eax        # 20338 <g_159>
   181d0:	8d 50 01             	lea    0x1(%rax),%edx
   181d3:	88 15 5f 81 00 00    	mov    %dl,0x815f(%rip)        # 20338 <g_159>
   181d9:	44 0f b6 e0          	movzbl %al,%r12d
   181dd:	be 05 00 00 00       	mov    $0x5,%esi
   181e2:	bf 07 00 00 00       	mov    $0x7,%edi
   181e7:	e8 5c ec fe ff       	callq  6e48 <safe_rshift_func_uint16_t_u_s>
   181ec:	66 85 c0             	test   %ax,%ax
   181ef:	74 11                	je     18202 <func_111+0x33dd>
   181f1:	66 83 bd f0 eb ff ff 	cmpw   $0x0,-0x1410(%rbp)
   181f8:	00 
   181f9:	74 07                	je     18202 <func_111+0x33dd>
   181fb:	b8 01 00 00 00       	mov    $0x1,%eax
   18200:	eb 05                	jmp    18207 <func_111+0x33e2>
   18202:	b8 00 00 00 00       	mov    $0x0,%eax
   18207:	44 39 e0             	cmp    %r12d,%eax
   1820a:	0f 9c c0             	setl   %al
   1820d:	0f b6 c0             	movzbl %al,%eax
   18210:	89 de                	mov    %ebx,%esi
   18212:	89 c7                	mov    %eax,%edi
   18214:	e8 e6 e4 fe ff       	callq  66ff <safe_div_func_int32_t_s_s>
   18219:	8b 95 04 ec ff ff    	mov    -0x13fc(%rbp),%edx
   1821f:	31 d0                	xor    %edx,%eax
   18221:	89 85 04 ec ff ff    	mov    %eax,-0x13fc(%rbp)
   18227:	0f b6 85 98 f0 ff ff 	movzbl -0xf68(%rbp),%eax
   1822e:	0f be d8             	movsbl %al,%ebx
   18231:	0f b7 85 cc eb ff ff 	movzwl -0x1434(%rbp),%eax
   18238:	0f be c0             	movsbl %al,%eax
   1823b:	89 c6                	mov    %eax,%esi
   1823d:	bf 00 00 00 00       	mov    $0x0,%edi
   18242:	e8 ab df fe ff       	callq  61f2 <safe_sub_func_int8_t_s_s>
   18247:	41 89 c4             	mov    %eax,%r12d
   1824a:	48 8b 05 ff 80 00 00 	mov    0x80ff(%rip),%rax        # 20350 <g_373>
   18251:	48 8d 15 c9 80 00 00 	lea    0x80c9(%rip),%rdx        # 20321 <g_121>
   18258:	0f b6 04 10          	movzbl (%rax,%rdx,1),%eax
   1825c:	48 0f be d0          	movsbq %al,%rdx
   18260:	0f b7 85 cc eb ff ff 	movzwl -0x1434(%rbp),%eax
   18267:	66 85 c0             	test   %ax,%ax
   1826a:	0f 9e c0             	setle  %al
   1826d:	0f b6 c8             	movzbl %al,%ecx
   18270:	0f b7 05 55 7f 00 00 	movzwl 0x7f55(%rip),%eax        # 201cc <g_43>
   18277:	0f b7 c0             	movzwl %ax,%eax
   1827a:	31 c8                	xor    %ecx,%eax
   1827c:	48 98                	cltq   
   1827e:	48 89 d6             	mov    %rdx,%rsi
   18281:	48 89 c7             	mov    %rax,%rdi
   18284:	e8 2b e7 fe ff       	callq  69b4 <safe_mod_func_int64_t_s_s>
   18289:	44 09 e0             	or     %r12d,%eax
   1828c:	0f be c0             	movsbl %al,%eax
   1828f:	89 de                	mov    %ebx,%esi
   18291:	89 c7                	mov    %eax,%edi
   18293:	e8 56 e0 fe ff       	callq  62ee <safe_lshift_func_int8_t_s_u>
   18298:	66 98                	cbtw   
   1829a:	0f b7 c0             	movzwl %ax,%eax
   1829d:	be 01 00 00 00       	mov    $0x1,%esi
   182a2:	89 c7                	mov    %eax,%edi
   182a4:	e8 94 ea fe ff       	callq  6d3d <safe_mul_func_uint16_t_u_u>
   182a9:	8b 05 8d 80 00 00    	mov    0x808d(%rip),%eax        # 2033c <g_163>
   182af:	0f be c0             	movsbl %al,%eax
   182b2:	be 04 00 00 00       	mov    $0x4,%esi
   182b7:	89 c7                	mov    %eax,%edi
   182b9:	e8 ae e0 fe ff       	callq  636c <safe_rshift_func_int8_t_s_u>
   182be:	be 04 00 00 00       	mov    $0x4,%esi
   182c3:	bf 01 00 00 00       	mov    $0x1,%edi
   182c8:	e8 49 e1 fe ff       	callq  6416 <safe_mod_func_int16_t_s_s>
   182cd:	98                   	cwtl   
   182ce:	89 c6                	mov    %eax,%esi
   182d0:	bf f6 ff ff ff       	mov    $0xfffffff6,%edi
   182d5:	e8 50 e2 fe ff       	callq  652a <safe_rshift_func_int16_t_s_s>
   182da:	0f b6 d0             	movzbl %al,%edx
   182dd:	48 8b 85 c8 ec ff ff 	mov    -0x1338(%rbp),%rax
   182e4:	48 8b 00             	mov    (%rax),%rax
   182e7:	48 8b 00             	mov    (%rax),%rax
   182ea:	8b 00                	mov    (%rax),%eax
   182ec:	0f b6 c0             	movzbl %al,%eax
   182ef:	89 d6                	mov    %edx,%esi
   182f1:	89 c7                	mov    %eax,%edi
   182f3:	e8 80 e8 fe ff       	callq  6b78 <safe_sub_func_uint8_t_u_u>
   182f8:	0f b6 d0             	movzbl %al,%edx
   182fb:	48 8b 85 f8 f4 ff ff 	mov    -0xb08(%rbp),%rax
   18302:	48 85 c0             	test   %rax,%rax
   18305:	0f 94 c0             	sete   %al
   18308:	0f b6 c0             	movzbl %al,%eax
   1830b:	89 d6                	mov    %edx,%esi
   1830d:	89 c7                	mov    %eax,%edi
   1830f:	e8 9f e0 fe ff       	callq  63b3 <safe_add_func_int16_t_s_s>
   18314:	66 85 c0             	test   %ax,%ax
   18317:	74 11                	je     1832a <func_111+0x3505>
   18319:	b8 de e5 ff ff       	mov    $0xffffe5de,%eax
   1831e:	66 85 c0             	test   %ax,%ax
   18321:	74 07                	je     1832a <func_111+0x3505>
   18323:	b8 01 00 00 00       	mov    $0x1,%eax
   18328:	eb 05                	jmp    1832f <func_111+0x350a>
   1832a:	b8 00 00 00 00       	mov    $0x0,%eax
   1832f:	0f b6 c0             	movzbl %al,%eax
   18332:	be 31 00 00 00       	mov    $0x31,%esi
   18337:	89 c7                	mov    %eax,%edi
   18339:	e8 55 e8 fe ff       	callq  6b93 <safe_mul_func_uint8_t_u_u>
   1833e:	66 81 bd f0 eb ff ff 	cmpw   $0xf8,-0x1410(%rbp)
   18345:	f8 00 
   18347:	0f 94 c0             	sete   %al
   1834a:	0f b6 d0             	movzbl %al,%edx
   1834d:	0f b7 85 cc eb ff ff 	movzwl -0x1434(%rbp),%eax
   18354:	98                   	cwtl   
   18355:	39 c2                	cmp    %eax,%edx
   18357:	0f 95 c0             	setne  %al
   1835a:	0f b6 d0             	movzbl %al,%edx
   1835d:	0f b7 85 cc eb ff ff 	movzwl -0x1434(%rbp),%eax
   18364:	98                   	cwtl   
   18365:	39 c2                	cmp    %eax,%edx
   18367:	0f 95 c0             	setne  %al
   1836a:	0f b6 c0             	movzbl %al,%eax
   1836d:	be 00 00 00 00       	mov    $0x0,%esi
   18372:	89 c7                	mov    %eax,%edi
   18374:	e8 57 eb fe ff       	callq  6ed0 <safe_sub_func_uint32_t_u_u>
   18379:	89 85 64 ec ff ff    	mov    %eax,-0x139c(%rbp)
   1837f:	8b 95 64 ec ff ff    	mov    -0x139c(%rbp),%edx
   18385:	8b 85 fc ee ff ff    	mov    -0x1104(%rbp),%eax
   1838b:	31 d0                	xor    %edx,%eax
   1838d:	89 85 fc ee ff ff    	mov    %eax,-0x1104(%rbp)
   18393:	c7 05 9f 7f 00 00 00 	movl   $0x0,0x7f9f(%rip)        # 2033c <g_163>
   1839a:	00 00 00 
   1839d:	e9 da 03 00 00       	jmpq   1877c <func_111+0x3957>
   183a2:	66 c7 85 00 ef ff ff 	movw   $0xf308,-0x1100(%rbp)
   183a9:	08 f3 
   183ab:	66 c7 85 02 ef ff ff 	movw   $0xf308,-0x10fe(%rbp)
   183b2:	08 f3 
   183b4:	66 c7 85 04 ef ff ff 	movw   $0xf308,-0x10fc(%rbp)
   183bb:	08 f3 
   183bd:	66 c7 85 06 ef ff ff 	movw   $0xf308,-0x10fa(%rbp)
   183c4:	08 f3 
   183c6:	48 8d 85 f8 eb ff ff 	lea    -0x1408(%rbp),%rax
   183cd:	48 89 85 88 ed ff ff 	mov    %rax,-0x1278(%rbp)
   183d4:	48 c7 85 90 ed ff ff 	movq   $0x0,-0x1270(%rbp)
   183db:	00 00 00 00 
   183df:	48 8d 85 f4 ee ff ff 	lea    -0x110c(%rbp),%rax
   183e6:	48 83 c0 04          	add    $0x4,%rax
   183ea:	48 89 85 98 ed ff ff 	mov    %rax,-0x1268(%rbp)
   183f1:	48 8d 85 f4 ee ff ff 	lea    -0x110c(%rbp),%rax
   183f8:	48 83 c0 04          	add    $0x4,%rax
   183fc:	48 89 85 a0 ed ff ff 	mov    %rax,-0x1260(%rbp)
   18403:	48 8d 85 08 ec ff ff 	lea    -0x13f8(%rbp),%rax
   1840a:	48 89 85 00 f9 ff ff 	mov    %rax,-0x700(%rbp)
   18411:	48 8d 85 08 ec ff ff 	lea    -0x13f8(%rbp),%rax
   18418:	48 89 85 08 f9 ff ff 	mov    %rax,-0x6f8(%rbp)
   1841f:	48 8d 85 08 ec ff ff 	lea    -0x13f8(%rbp),%rax
   18426:	48 89 85 10 f9 ff ff 	mov    %rax,-0x6f0(%rbp)
   1842d:	48 8d 85 08 ec ff ff 	lea    -0x13f8(%rbp),%rax
   18434:	48 89 85 18 f9 ff ff 	mov    %rax,-0x6e8(%rbp)
   1843b:	48 8d 85 08 ec ff ff 	lea    -0x13f8(%rbp),%rax
   18442:	48 89 85 20 f9 ff ff 	mov    %rax,-0x6e0(%rbp)
   18449:	48 8d 85 08 ec ff ff 	lea    -0x13f8(%rbp),%rax
   18450:	48 89 85 28 f9 ff ff 	mov    %rax,-0x6d8(%rbp)
   18457:	48 8d 85 08 ec ff ff 	lea    -0x13f8(%rbp),%rax
   1845e:	48 89 85 30 f9 ff ff 	mov    %rax,-0x6d0(%rbp)
   18465:	48 8d 85 08 ec ff ff 	lea    -0x13f8(%rbp),%rax
   1846c:	48 89 85 38 f9 ff ff 	mov    %rax,-0x6c8(%rbp)
   18473:	48 8d 85 08 ec ff ff 	lea    -0x13f8(%rbp),%rax
   1847a:	48 89 85 40 f9 ff ff 	mov    %rax,-0x6c0(%rbp)
   18481:	48 8d 85 08 ec ff ff 	lea    -0x13f8(%rbp),%rax
   18488:	48 89 85 48 f9 ff ff 	mov    %rax,-0x6b8(%rbp)
   1848f:	48 8d 85 08 ec ff ff 	lea    -0x13f8(%rbp),%rax
   18496:	48 89 85 50 f9 ff ff 	mov    %rax,-0x6b0(%rbp)
   1849d:	48 8d 85 08 ec ff ff 	lea    -0x13f8(%rbp),%rax
   184a4:	48 89 85 58 f9 ff ff 	mov    %rax,-0x6a8(%rbp)
   184ab:	48 8d 85 08 ec ff ff 	lea    -0x13f8(%rbp),%rax
   184b2:	48 89 85 60 f9 ff ff 	mov    %rax,-0x6a0(%rbp)
   184b9:	48 8d 85 08 ec ff ff 	lea    -0x13f8(%rbp),%rax
   184c0:	48 89 85 68 f9 ff ff 	mov    %rax,-0x698(%rbp)
   184c7:	48 8d 85 08 ec ff ff 	lea    -0x13f8(%rbp),%rax
   184ce:	48 89 85 70 f9 ff ff 	mov    %rax,-0x690(%rbp)
   184d5:	48 8d 85 08 ec ff ff 	lea    -0x13f8(%rbp),%rax
   184dc:	48 89 85 78 f9 ff ff 	mov    %rax,-0x688(%rbp)
   184e3:	48 8d 85 08 ec ff ff 	lea    -0x13f8(%rbp),%rax
   184ea:	48 89 85 80 f9 ff ff 	mov    %rax,-0x680(%rbp)
   184f1:	48 8d 85 08 ec ff ff 	lea    -0x13f8(%rbp),%rax
   184f8:	48 89 85 88 f9 ff ff 	mov    %rax,-0x678(%rbp)
   184ff:	48 8d 85 08 ec ff ff 	lea    -0x13f8(%rbp),%rax
   18506:	48 89 85 90 f9 ff ff 	mov    %rax,-0x670(%rbp)
   1850d:	48 8d 85 08 ec ff ff 	lea    -0x13f8(%rbp),%rax
   18514:	48 89 85 98 f9 ff ff 	mov    %rax,-0x668(%rbp)
   1851b:	48 8d 85 08 ec ff ff 	lea    -0x13f8(%rbp),%rax
   18522:	48 89 85 a0 f9 ff ff 	mov    %rax,-0x660(%rbp)
   18529:	48 8d 85 08 ec ff ff 	lea    -0x13f8(%rbp),%rax
   18530:	48 89 85 a8 f9 ff ff 	mov    %rax,-0x658(%rbp)
   18537:	48 8d 85 08 ec ff ff 	lea    -0x13f8(%rbp),%rax
   1853e:	48 89 85 b0 f9 ff ff 	mov    %rax,-0x650(%rbp)
   18545:	48 8d 85 08 ec ff ff 	lea    -0x13f8(%rbp),%rax
   1854c:	48 89 85 b8 f9 ff ff 	mov    %rax,-0x648(%rbp)
   18553:	48 8d 85 08 ec ff ff 	lea    -0x13f8(%rbp),%rax
   1855a:	48 89 85 c0 f9 ff ff 	mov    %rax,-0x640(%rbp)
   18561:	48 8d 85 08 ec ff ff 	lea    -0x13f8(%rbp),%rax
   18568:	48 89 85 c8 f9 ff ff 	mov    %rax,-0x638(%rbp)
   1856f:	48 8d 85 08 ec ff ff 	lea    -0x13f8(%rbp),%rax
   18576:	48 89 85 d0 f9 ff ff 	mov    %rax,-0x630(%rbp)
   1857d:	48 8d 85 08 ec ff ff 	lea    -0x13f8(%rbp),%rax
   18584:	48 89 85 d8 f9 ff ff 	mov    %rax,-0x628(%rbp)
   1858b:	48 8d 85 08 ec ff ff 	lea    -0x13f8(%rbp),%rax
   18592:	48 89 85 e0 f9 ff ff 	mov    %rax,-0x620(%rbp)
   18599:	48 8d 85 08 ec ff ff 	lea    -0x13f8(%rbp),%rax
   185a0:	48 89 85 e8 f9 ff ff 	mov    %rax,-0x618(%rbp)
   185a7:	48 8d 85 08 ec ff ff 	lea    -0x13f8(%rbp),%rax
   185ae:	48 89 85 f0 f9 ff ff 	mov    %rax,-0x610(%rbp)
   185b5:	48 8d 85 08 ec ff ff 	lea    -0x13f8(%rbp),%rax
   185bc:	48 89 85 f8 f9 ff ff 	mov    %rax,-0x608(%rbp)
   185c3:	48 8d 85 08 ec ff ff 	lea    -0x13f8(%rbp),%rax
   185ca:	48 89 85 00 fa ff ff 	mov    %rax,-0x600(%rbp)
   185d1:	48 8d 85 08 ec ff ff 	lea    -0x13f8(%rbp),%rax
   185d8:	48 89 85 08 fa ff ff 	mov    %rax,-0x5f8(%rbp)
   185df:	48 8d 85 08 ec ff ff 	lea    -0x13f8(%rbp),%rax
   185e6:	48 89 85 10 fa ff ff 	mov    %rax,-0x5f0(%rbp)
   185ed:	48 8d 85 08 ec ff ff 	lea    -0x13f8(%rbp),%rax
   185f4:	48 89 85 18 fa ff ff 	mov    %rax,-0x5e8(%rbp)
   185fb:	48 8d 85 08 ec ff ff 	lea    -0x13f8(%rbp),%rax
   18602:	48 89 85 20 fa ff ff 	mov    %rax,-0x5e0(%rbp)
   18609:	48 8d 85 08 ec ff ff 	lea    -0x13f8(%rbp),%rax
   18610:	48 89 85 28 fa ff ff 	mov    %rax,-0x5d8(%rbp)
   18617:	48 8d 85 08 ec ff ff 	lea    -0x13f8(%rbp),%rax
   1861e:	48 89 85 30 fa ff ff 	mov    %rax,-0x5d0(%rbp)
   18625:	48 8d 85 08 ec ff ff 	lea    -0x13f8(%rbp),%rax
   1862c:	48 89 85 38 fa ff ff 	mov    %rax,-0x5c8(%rbp)
   18633:	48 c7 85 a8 ed ff ff 	movq   $0x7,-0x1258(%rbp)
   1863a:	07 00 00 00 
   1863e:	48 c7 05 ff 7c 00 00 	movq   $0x5,0x7cff(%rip)        # 20348 <g_355>
   18645:	05 00 00 00 
   18649:	e9 d3 00 00 00       	jmpq   18721 <func_111+0x38fc>
   1864e:	48 c7 85 b0 ed ff ff 	movq   $0x0,-0x1250(%rbp)
   18655:	00 00 00 00 
   18659:	48 8d 85 b0 f5 ff ff 	lea    -0xa50(%rbp),%rax
   18660:	48 83 c0 5c          	add    $0x5c,%rax
   18664:	48 89 85 b8 ed ff ff 	mov    %rax,-0x1248(%rbp)
   1866b:	48 8d 85 f4 ee ff ff 	lea    -0x110c(%rbp),%rax
   18672:	48 83 c0 04          	add    $0x4,%rax
   18676:	48 89 85 c0 ed ff ff 	mov    %rax,-0x1240(%rbp)
   1867d:	48 8d 85 f4 eb ff ff 	lea    -0x140c(%rbp),%rax
   18684:	48 89 85 c8 ed ff ff 	mov    %rax,-0x1238(%rbp)
   1868b:	48 8d 85 04 ec ff ff 	lea    -0x13fc(%rbp),%rax
   18692:	48 89 85 d0 ed ff ff 	mov    %rax,-0x1230(%rbp)
   18699:	48 8d 85 f8 eb ff ff 	lea    -0x1408(%rbp),%rax
   186a0:	48 89 85 a0 ef ff ff 	mov    %rax,-0x1060(%rbp)
   186a7:	48 8d 85 f8 eb ff ff 	lea    -0x1408(%rbp),%rax
   186ae:	48 89 85 a8 ef ff ff 	mov    %rax,-0x1058(%rbp)
   186b5:	48 8d 85 f8 eb ff ff 	lea    -0x1408(%rbp),%rax
   186bc:	48 89 85 b0 ef ff ff 	mov    %rax,-0x1050(%rbp)
   186c3:	48 8d 85 f8 eb ff ff 	lea    -0x1408(%rbp),%rax
   186ca:	48 89 85 b8 ef ff ff 	mov    %rax,-0x1048(%rbp)
   186d1:	48 8d 85 f8 eb ff ff 	lea    -0x1408(%rbp),%rax
   186d8:	48 89 85 c0 ef ff ff 	mov    %rax,-0x1040(%rbp)
   186df:	48 8d 85 f8 eb ff ff 	lea    -0x1408(%rbp),%rax
   186e6:	48 89 85 c8 ef ff ff 	mov    %rax,-0x1038(%rbp)
   186ed:	48 8d 85 f8 eb ff ff 	lea    -0x1408(%rbp),%rax
   186f4:	48 89 85 d0 ef ff ff 	mov    %rax,-0x1030(%rbp)
   186fb:	80 85 dd eb ff ff 01 	addb   $0x1,-0x1423(%rbp)
   18702:	48 8b 85 c8 ed ff ff 	mov    -0x1238(%rbp),%rax
   18709:	c7 00 35 69 22 fa    	movl   $0xfa226935,(%rax)
   1870f:	48 8b 05 32 7c 00 00 	mov    0x7c32(%rip),%rax        # 20348 <g_355>
   18716:	48 83 e8 01          	sub    $0x1,%rax
   1871a:	48 89 05 27 7c 00 00 	mov    %rax,0x7c27(%rip)        # 20348 <g_355>
   18721:	48 8b 05 20 7c 00 00 	mov    0x7c20(%rip),%rax        # 20348 <g_355>
   18728:	48 85 c0             	test   %rax,%rax
   1872b:	0f 8f 1d ff ff ff    	jg     1864e <func_111+0x3829>
   18731:	66 c7 85 e2 eb ff ff 	movw   $0x1,-0x141e(%rbp)
   18738:	01 00 
   1873a:	90                   	nop
   1873b:	0f b7 85 e2 eb ff ff 	movzwl -0x141e(%rbp),%eax
   18742:	66 83 f8 06          	cmp    $0x6,%ax
   18746:	77 1e                	ja     18766 <func_111+0x3941>
   18748:	0f b7 85 02 ef ff ff 	movzwl -0x10fe(%rbp),%eax
   1874f:	83 e8 01             	sub    $0x1,%eax
   18752:	66 89 85 02 ef ff ff 	mov    %ax,-0x10fe(%rbp)
   18759:	8b 05 dd 7b 00 00    	mov    0x7bdd(%rip),%eax        # 2033c <g_163>
   1875f:	89 c0                	mov    %eax,%eax
   18761:	e9 ee 00 00 00       	jmpq   18854 <func_111+0x3a2f>
   18766:	83 85 4c ec ff ff 01 	addl   $0x1,-0x13b4(%rbp)
   1876d:	8b 05 c9 7b 00 00    	mov    0x7bc9(%rip),%eax        # 2033c <g_163>
   18773:	83 c0 01             	add    $0x1,%eax
   18776:	89 05 c0 7b 00 00    	mov    %eax,0x7bc0(%rip)        # 2033c <g_163>
   1877c:	8b 05 ba 7b 00 00    	mov    0x7bba(%rip),%eax        # 2033c <g_163>
   18782:	83 f8 06             	cmp    $0x6,%eax
   18785:	0f 86 17 fc ff ff    	jbe    183a2 <func_111+0x357d>
   1878b:	83 ad 50 ec ff ff 01 	subl   $0x1,-0x13b0(%rbp)
   18792:	48 8b 05 b7 7b 00 00 	mov    0x7bb7(%rip),%rax        # 20350 <g_373>
   18799:	48 83 e8 01          	sub    $0x1,%rax
   1879d:	48 89 05 ac 7b 00 00 	mov    %rax,0x7bac(%rip)        # 20350 <g_373>
   187a4:	48 8b 05 a5 7b 00 00 	mov    0x7ba5(%rip),%rax        # 20350 <g_373>
   187ab:	48 85 c0             	test   %rax,%rax
   187ae:	0f 89 d6 f7 ff ff    	jns    17f8a <func_111+0x3165>
   187b4:	0f b7 85 cc eb ff ff 	movzwl -0x1434(%rbp),%eax
   187bb:	0f be c0             	movsbl %al,%eax
   187be:	be 03 00 00 00       	mov    $0x3,%esi
   187c3:	89 c7                	mov    %eax,%edi
   187c5:	e8 24 db fe ff       	callq  62ee <safe_lshift_func_int8_t_s_u>
   187ca:	0f be d0             	movsbl %al,%edx
   187cd:	48 8b 85 c8 ec ff ff 	mov    -0x1338(%rbp),%rax
   187d4:	48 8b 00             	mov    (%rax),%rax
   187d7:	48 8b 00             	mov    (%rax),%rax
   187da:	8b 00                	mov    (%rax),%eax
   187dc:	85 c0                	test   %eax,%eax
   187de:	0f 95 c0             	setne  %al
   187e1:	0f b6 c0             	movzbl %al,%eax
   187e4:	31 c2                	xor    %eax,%edx
   187e6:	48 8b 85 50 ed ff ff 	mov    -0x12b0(%rbp),%rax
   187ed:	8b 00                	mov    (%rax),%eax
   187ef:	09 c2                	or     %eax,%edx
   187f1:	48 8b 85 50 ed ff ff 	mov    -0x12b0(%rbp),%rax
   187f8:	89 10                	mov    %edx,(%rax)
   187fa:	0f b6 05 1f 7b 00 00 	movzbl 0x7b1f(%rip),%eax        # 20320 <g_119>
   18801:	83 c0 01             	add    $0x1,%eax
   18804:	88 05 16 7b 00 00    	mov    %al,0x7b16(%rip)        # 20320 <g_119>
   1880a:	0f b6 05 0f 7b 00 00 	movzbl 0x7b0f(%rip),%eax        # 20320 <g_119>
   18811:	3c e9                	cmp    $0xe9,%al
   18813:	0f 8c 5e f4 ff ff    	jl     17c77 <func_111+0x2e52>
   18819:	0f b7 85 cc eb ff ff 	movzwl -0x1434(%rbp),%eax
   18820:	0f b6 c0             	movzbl %al,%eax
   18823:	be 01 00 00 00       	mov    $0x1,%esi
   18828:	89 c7                	mov    %eax,%edi
   1882a:	e8 2b e3 fe ff       	callq  6b5a <safe_add_func_uint8_t_u_u>
   1882f:	0f b6 c0             	movzbl %al,%eax
   18832:	66 89 85 cc eb ff ff 	mov    %ax,-0x1434(%rbp)
   18839:	0f b7 85 cc eb ff ff 	movzwl -0x1434(%rbp),%eax
   18840:	66 83 f8 17          	cmp    $0x17,%ax
   18844:	0f 8e 5c c9 ff ff    	jle    151a6 <func_111+0x381>
   1884a:	0f b7 05 d7 7a 00 00 	movzwl 0x7ad7(%rip),%eax        # 20328 <g_138>
   18851:	0f b7 c0             	movzwl %ax,%eax
   18854:	48 8b 5d c8          	mov    -0x38(%rbp),%rbx
   18858:	64 48 33 1c 25 28 00 	xor    %fs:0x28,%rbx
   1885f:	00 00 
   18861:	74 05                	je     18868 <func_111+0x3a43>
   18863:	e8 08 d8 fe ff       	callq  6070 <__stack_chk_fail@plt>
   18868:	48 81 c4 38 14 00 00 	add    $0x1438,%rsp
   1886f:	5b                   	pop    %rbx
   18870:	41 5c                	pop    %r12
   18872:	41 5d                	pop    %r13
   18874:	41 5e                	pop    %r14
   18876:	41 5f                	pop    %r15
   18878:	5d                   	pop    %rbp
   18879:	c3                   	retq   

000000000001887a <main>:
   1887a:	f3 0f 1e fa          	endbr64 
   1887e:	55                   	push   %rbp
   1887f:	48 89 e5             	mov    %rsp,%rbp
   18882:	48 83 ec 20          	sub    $0x20,%rsp
   18886:	89 7d ec             	mov    %edi,-0x14(%rbp)
   18889:	48 89 75 e0          	mov    %rsi,-0x20(%rbp)
   1888d:	c7 45 fc 00 00 00 00 	movl   $0x0,-0x4(%rbp)
   18894:	83 7d ec 02          	cmpl   $0x2,-0x14(%rbp)
   18898:	75 25                	jne    188bf <main+0x45>
   1889a:	48 8b 45 e0          	mov    -0x20(%rbp),%rax
   1889e:	48 83 c0 08          	add    $0x8,%rax
   188a2:	48 8b 00             	mov    (%rax),%rax
   188a5:	48 8d 35 90 46 00 00 	lea    0x4690(%rip),%rsi        # 1cf3c <g_2872+0x2ebc>
   188ac:	48 89 c7             	mov    %rax,%rdi
   188af:	e8 dc d7 fe ff       	callq  6090 <strcmp@plt>
   188b4:	85 c0                	test   %eax,%eax
   188b6:	75 07                	jne    188bf <main+0x45>
   188b8:	c7 45 fc 01 00 00 00 	movl   $0x1,-0x4(%rbp)
   188bf:	e8 c5 d8 fe ff       	callq  6189 <platform_main_begin>
   188c4:	e8 cf ec fe ff       	callq  7598 <crc32_gentab>
   188c9:	e8 e7 ee fe ff       	callq  77b5 <func_1>
   188ce:	8b 05 50 77 00 00    	mov    0x7750(%rip),%eax        # 20024 <g_2>
   188d4:	48 98                	cltq   
   188d6:	8b 55 fc             	mov    -0x4(%rbp),%edx
   188d9:	48 8d 35 5e 46 00 00 	lea    0x465e(%rip),%rsi        # 1cf3e <g_2872+0x2ebe>
   188e0:	48 89 c7             	mov    %rax,%rdi
   188e3:	e8 0b ee fe ff       	callq  76f3 <transparent_crc>
   188e8:	c7 45 f0 00 00 00 00 	movl   $0x0,-0x10(%rbp)
   188ef:	eb 4b                	jmp    1893c <main+0xc2>
   188f1:	8b 45 f0             	mov    -0x10(%rbp),%eax
   188f4:	48 98                	cltq   
   188f6:	48 8d 14 85 00 00 00 	lea    0x0(,%rax,4),%rdx
   188fd:	00 
   188fe:	48 8d 05 8b 9f 00 00 	lea    0x9f8b(%rip),%rax        # 22890 <g_3>
   18905:	8b 04 02             	mov    (%rdx,%rax,1),%eax
   18908:	48 98                	cltq   
   1890a:	8b 55 fc             	mov    -0x4(%rbp),%edx
   1890d:	48 8d 35 2e 46 00 00 	lea    0x462e(%rip),%rsi        # 1cf42 <g_2872+0x2ec2>
   18914:	48 89 c7             	mov    %rax,%rdi
   18917:	e8 d7 ed fe ff       	callq  76f3 <transparent_crc>
   1891c:	83 7d fc 00          	cmpl   $0x0,-0x4(%rbp)
   18920:	74 16                	je     18938 <main+0xbe>
   18922:	8b 45 f0             	mov    -0x10(%rbp),%eax
   18925:	89 c6                	mov    %eax,%esi
   18927:	48 8d 3d 1b 46 00 00 	lea    0x461b(%rip),%rdi        # 1cf49 <g_2872+0x2ec9>
   1892e:	b8 00 00 00 00       	mov    $0x0,%eax
   18933:	e8 48 d7 fe ff       	callq  6080 <printf@plt>
   18938:	83 45 f0 01          	addl   $0x1,-0x10(%rbp)
   1893c:	83 7d f0 06          	cmpl   $0x6,-0x10(%rbp)
   18940:	7e af                	jle    188f1 <main+0x77>
   18942:	8b 05 e0 76 00 00    	mov    0x76e0(%rip),%eax        # 20028 <g_4>
   18948:	48 98                	cltq   
   1894a:	8b 55 fc             	mov    -0x4(%rbp),%edx
   1894d:	48 8d 35 03 46 00 00 	lea    0x4603(%rip),%rsi        # 1cf57 <g_2872+0x2ed7>
   18954:	48 89 c7             	mov    %rax,%rdi
   18957:	e8 97 ed fe ff       	callq  76f3 <transparent_crc>
   1895c:	c7 45 f0 00 00 00 00 	movl   $0x0,-0x10(%rbp)
   18963:	eb 6e                	jmp    189d3 <main+0x159>
   18965:	c7 45 f4 00 00 00 00 	movl   $0x0,-0xc(%rbp)
   1896c:	eb 5b                	jmp    189c9 <main+0x14f>
   1896e:	8b 45 f4             	mov    -0xc(%rbp),%eax
   18971:	48 98                	cltq   
   18973:	8b 55 f0             	mov    -0x10(%rbp),%edx
   18976:	48 63 d2             	movslq %edx,%rdx
   18979:	48 c1 e2 03          	shl    $0x3,%rdx
   1897d:	48 01 d0             	add    %rdx,%rax
   18980:	48 8d 14 85 00 00 00 	lea    0x0(,%rax,4),%rdx
   18987:	00 
   18988:	48 8d 05 b1 76 00 00 	lea    0x76b1(%rip),%rax        # 20040 <g_5>
   1898f:	8b 04 02             	mov    (%rdx,%rax,1),%eax
   18992:	48 98                	cltq   
   18994:	8b 55 fc             	mov    -0x4(%rbp),%edx
   18997:	48 8d 35 bd 45 00 00 	lea    0x45bd(%rip),%rsi        # 1cf5b <g_2872+0x2edb>
   1899e:	48 89 c7             	mov    %rax,%rdi
   189a1:	e8 4d ed fe ff       	callq  76f3 <transparent_crc>
   189a6:	83 7d fc 00          	cmpl   $0x0,-0x4(%rbp)
   189aa:	74 19                	je     189c5 <main+0x14b>
   189ac:	8b 55 f4             	mov    -0xc(%rbp),%edx
   189af:	8b 45 f0             	mov    -0x10(%rbp),%eax
   189b2:	89 c6                	mov    %eax,%esi
   189b4:	48 8d 3d aa 45 00 00 	lea    0x45aa(%rip),%rdi        # 1cf65 <g_2872+0x2ee5>
   189bb:	b8 00 00 00 00       	mov    $0x0,%eax
   189c0:	e8 bb d6 fe ff       	callq  6080 <printf@plt>
   189c5:	83 45 f4 01          	addl   $0x1,-0xc(%rbp)
   189c9:	83 7d f4 07          	cmpl   $0x7,-0xc(%rbp)
   189cd:	7e 9f                	jle    1896e <main+0xf4>
   189cf:	83 45 f0 01          	addl   $0x1,-0x10(%rbp)
   189d3:	83 7d f0 08          	cmpl   $0x8,-0x10(%rbp)
   189d7:	7e 8c                	jle    18965 <main+0xeb>
   189d9:	8b 05 81 77 00 00    	mov    0x7781(%rip),%eax        # 20160 <g_6>
   189df:	48 98                	cltq   
   189e1:	8b 55 fc             	mov    -0x4(%rbp),%edx
   189e4:	48 8d 35 8c 45 00 00 	lea    0x458c(%rip),%rsi        # 1cf77 <g_2872+0x2ef7>
   189eb:	48 89 c7             	mov    %rax,%rdi
   189ee:	e8 00 ed fe ff       	callq  76f3 <transparent_crc>
   189f3:	8b 05 6b 77 00 00    	mov    0x776b(%rip),%eax        # 20164 <g_7>
   189f9:	48 98                	cltq   
   189fb:	8b 55 fc             	mov    -0x4(%rbp),%edx
   189fe:	48 8d 35 76 45 00 00 	lea    0x4576(%rip),%rsi        # 1cf7b <g_2872+0x2efb>
   18a05:	48 89 c7             	mov    %rax,%rdi
   18a08:	e8 e6 ec fe ff       	callq  76f3 <transparent_crc>
   18a0d:	8b 05 55 77 00 00    	mov    0x7755(%rip),%eax        # 20168 <g_12>
   18a13:	48 98                	cltq   
   18a15:	8b 55 fc             	mov    -0x4(%rbp),%edx
   18a18:	48 8d 35 60 45 00 00 	lea    0x4560(%rip),%rsi        # 1cf7f <g_2872+0x2eff>
   18a1f:	48 89 c7             	mov    %rax,%rdi
   18a22:	e8 cc ec fe ff       	callq  76f3 <transparent_crc>
   18a27:	c7 45 f0 00 00 00 00 	movl   $0x0,-0x10(%rbp)
   18a2e:	e9 9a 00 00 00       	jmpq   18acd <main+0x253>
   18a33:	c7 45 f4 00 00 00 00 	movl   $0x0,-0xc(%rbp)
   18a3a:	e9 80 00 00 00       	jmpq   18abf <main+0x245>
   18a3f:	c7 45 f8 00 00 00 00 	movl   $0x0,-0x8(%rbp)
   18a46:	eb 6d                	jmp    18ab5 <main+0x23b>
   18a48:	8b 45 f8             	mov    -0x8(%rbp),%eax
   18a4b:	48 63 f0             	movslq %eax,%rsi
   18a4e:	8b 45 f4             	mov    -0xc(%rbp),%eax
   18a51:	48 63 c8             	movslq %eax,%rcx
   18a54:	8b 45 f0             	mov    -0x10(%rbp),%eax
   18a57:	48 63 d0             	movslq %eax,%rdx
   18a5a:	48 89 d0             	mov    %rdx,%rax
   18a5d:	48 01 c0             	add    %rax,%rax
   18a60:	48 01 d0             	add    %rdx,%rax
   18a63:	48 01 f0             	add    %rsi,%rax
   18a66:	48 01 c8             	add    %rcx,%rax
   18a69:	48 8d 14 85 00 00 00 	lea    0x0(,%rax,4),%rdx
   18a70:	00 
   18a71:	48 8d 05 08 77 00 00 	lea    0x7708(%rip),%rax        # 20180 <g_13>
   18a78:	8b 04 02             	mov    (%rdx,%rax,1),%eax
   18a7b:	48 98                	cltq   
   18a7d:	8b 55 fc             	mov    -0x4(%rbp),%edx
   18a80:	48 8d 35 fd 44 00 00 	lea    0x44fd(%rip),%rsi        # 1cf84 <g_2872+0x2f04>
   18a87:	48 89 c7             	mov    %rax,%rdi
   18a8a:	e8 64 ec fe ff       	callq  76f3 <transparent_crc>
   18a8f:	83 7d fc 00          	cmpl   $0x0,-0x4(%rbp)
   18a93:	74 1c                	je     18ab1 <main+0x237>
   18a95:	8b 4d f8             	mov    -0x8(%rbp),%ecx
   18a98:	8b 55 f4             	mov    -0xc(%rbp),%edx
   18a9b:	8b 45 f0             	mov    -0x10(%rbp),%eax
   18a9e:	89 c6                	mov    %eax,%esi
   18aa0:	48 8d 3d eb 44 00 00 	lea    0x44eb(%rip),%rdi        # 1cf92 <g_2872+0x2f12>
   18aa7:	b8 00 00 00 00       	mov    $0x0,%eax
   18aac:	e8 cf d5 fe ff       	callq  6080 <printf@plt>
   18ab1:	83 45 f8 01          	addl   $0x1,-0x8(%rbp)
   18ab5:	83 7d f8 00          	cmpl   $0x0,-0x8(%rbp)
   18ab9:	7e 8d                	jle    18a48 <main+0x1ce>
   18abb:	83 45 f4 01          	addl   $0x1,-0xc(%rbp)
   18abf:	83 7d f4 02          	cmpl   $0x2,-0xc(%rbp)
   18ac3:	0f 8e 76 ff ff ff    	jle    18a3f <main+0x1c5>
   18ac9:	83 45 f0 01          	addl   $0x1,-0x10(%rbp)
   18acd:	83 7d f0 05          	cmpl   $0x5,-0x10(%rbp)
   18ad1:	0f 8e 5c ff ff ff    	jle    18a33 <main+0x1b9>
   18ad7:	8b 05 eb 76 00 00    	mov    0x76eb(%rip),%eax        # 201c8 <g_14>
   18add:	48 98                	cltq   
   18adf:	8b 55 fc             	mov    -0x4(%rbp),%edx
   18ae2:	48 8d 35 bf 44 00 00 	lea    0x44bf(%rip),%rsi        # 1cfa8 <g_2872+0x2f28>
   18ae9:	48 89 c7             	mov    %rax,%rdi
   18aec:	e8 02 ec fe ff       	callq  76f3 <transparent_crc>
   18af1:	b8 01 00 00 00       	mov    $0x1,%eax
   18af6:	48 98                	cltq   
   18af8:	8b 55 fc             	mov    -0x4(%rbp),%edx
   18afb:	48 8d 35 ab 44 00 00 	lea    0x44ab(%rip),%rsi        # 1cfad <g_2872+0x2f2d>
   18b02:	48 89 c7             	mov    %rax,%rdi
   18b05:	e8 e9 eb fe ff       	callq  76f3 <transparent_crc>
   18b0a:	b8 de e5 ff ff       	mov    $0xffffe5de,%eax
   18b0f:	48 0f bf c0          	movswq %ax,%rax
   18b13:	8b 55 fc             	mov    -0x4(%rbp),%edx
   18b16:	48 8d 35 95 44 00 00 	lea    0x4495(%rip),%rsi        # 1cfb2 <g_2872+0x2f32>
   18b1d:	48 89 c7             	mov    %rax,%rdi
   18b20:	e8 ce eb fe ff       	callq  76f3 <transparent_crc>
   18b25:	0f b7 05 a0 76 00 00 	movzwl 0x76a0(%rip),%eax        # 201cc <g_43>
   18b2c:	0f b7 c0             	movzwl %ax,%eax
   18b2f:	8b 55 fc             	mov    -0x4(%rbp),%edx
   18b32:	48 8d 35 7e 44 00 00 	lea    0x447e(%rip),%rsi        # 1cfb7 <g_2872+0x2f37>
   18b39:	48 89 c7             	mov    %rax,%rdi
   18b3c:	e8 b2 eb fe ff       	callq  76f3 <transparent_crc>
   18b41:	8b 05 89 76 00 00    	mov    0x7689(%rip),%eax        # 201d0 <g_50>
   18b47:	48 98                	cltq   
   18b49:	8b 55 fc             	mov    -0x4(%rbp),%edx
   18b4c:	48 8d 35 69 44 00 00 	lea    0x4469(%rip),%rsi        # 1cfbc <g_2872+0x2f3c>
   18b53:	48 89 c7             	mov    %rax,%rdi
   18b56:	e8 98 eb fe ff       	callq  76f3 <transparent_crc>
   18b5b:	c7 45 f0 00 00 00 00 	movl   $0x0,-0x10(%rbp)
   18b62:	e9 b9 00 00 00       	jmpq   18c20 <main+0x3a6>
   18b67:	c7 45 f4 00 00 00 00 	movl   $0x0,-0xc(%rbp)
   18b6e:	e9 9f 00 00 00       	jmpq   18c12 <main+0x398>
   18b73:	c7 45 f8 00 00 00 00 	movl   $0x0,-0x8(%rbp)
   18b7a:	e9 85 00 00 00       	jmpq   18c04 <main+0x38a>
   18b7f:	8b 45 f8             	mov    -0x8(%rbp),%eax
   18b82:	48 63 f0             	movslq %eax,%rsi
   18b85:	8b 45 f0             	mov    -0x10(%rbp),%eax
   18b88:	48 98                	cltq   
   18b8a:	8b 55 f4             	mov    -0xc(%rbp),%edx
   18b8d:	48 63 ca             	movslq %edx,%rcx
   18b90:	48 89 c2             	mov    %rax,%rdx
   18b93:	48 c1 e2 02          	shl    $0x2,%rdx
   18b97:	48 01 c2             	add    %rax,%rdx
   18b9a:	48 8d 04 d5 00 00 00 	lea    0x0(,%rdx,8),%rax
   18ba1:	00 
   18ba2:	48 89 c2             	mov    %rax,%rdx
   18ba5:	48 89 c8             	mov    %rcx,%rax
   18ba8:	48 c1 e0 02          	shl    $0x2,%rax
   18bac:	48 01 c8             	add    %rcx,%rax
   18baf:	48 01 c0             	add    %rax,%rax
   18bb2:	48 01 d0             	add    %rdx,%rax
   18bb5:	48 01 f0             	add    %rsi,%rax
   18bb8:	48 8d 14 85 00 00 00 	lea    0x0(,%rax,4),%rdx
   18bbf:	00 
   18bc0:	48 8d 05 19 76 00 00 	lea    0x7619(%rip),%rax        # 201e0 <g_77>
   18bc7:	8b 04 02             	mov    (%rdx,%rax,1),%eax
   18bca:	48 98                	cltq   
   18bcc:	8b 55 fc             	mov    -0x4(%rbp),%edx
   18bcf:	48 8d 35 eb 43 00 00 	lea    0x43eb(%rip),%rsi        # 1cfc1 <g_2872+0x2f41>
   18bd6:	48 89 c7             	mov    %rax,%rdi
   18bd9:	e8 15 eb fe ff       	callq  76f3 <transparent_crc>
   18bde:	83 7d fc 00          	cmpl   $0x0,-0x4(%rbp)
   18be2:	74 1c                	je     18c00 <main+0x386>
   18be4:	8b 4d f8             	mov    -0x8(%rbp),%ecx
   18be7:	8b 55 f4             	mov    -0xc(%rbp),%edx
   18bea:	8b 45 f0             	mov    -0x10(%rbp),%eax
   18bed:	89 c6                	mov    %eax,%esi
   18bef:	48 8d 3d 9c 43 00 00 	lea    0x439c(%rip),%rdi        # 1cf92 <g_2872+0x2f12>
   18bf6:	b8 00 00 00 00       	mov    $0x0,%eax
   18bfb:	e8 80 d4 fe ff       	callq  6080 <printf@plt>
   18c00:	83 45 f8 01          	addl   $0x1,-0x8(%rbp)
   18c04:	83 7d f8 09          	cmpl   $0x9,-0x8(%rbp)
   18c08:	0f 8e 71 ff ff ff    	jle    18b7f <main+0x305>
   18c0e:	83 45 f4 01          	addl   $0x1,-0xc(%rbp)
   18c12:	83 7d f4 03          	cmpl   $0x3,-0xc(%rbp)
   18c16:	0f 8e 57 ff ff ff    	jle    18b73 <main+0x2f9>
   18c1c:	83 45 f0 01          	addl   $0x1,-0x10(%rbp)
   18c20:	83 7d f0 01          	cmpl   $0x1,-0x10(%rbp)
   18c24:	0f 8e 3d ff ff ff    	jle    18b67 <main+0x2ed>
   18c2a:	0f b6 05 ef 76 00 00 	movzbl 0x76ef(%rip),%eax        # 20320 <g_119>
   18c31:	48 0f be c0          	movsbq %al,%rax
   18c35:	8b 55 fc             	mov    -0x4(%rbp),%edx
   18c38:	48 8d 35 90 43 00 00 	lea    0x4390(%rip),%rsi        # 1cfcf <g_2872+0x2f4f>
   18c3f:	48 89 c7             	mov    %rax,%rdi
   18c42:	e8 ac ea fe ff       	callq  76f3 <transparent_crc>
   18c47:	c7 45 f0 00 00 00 00 	movl   $0x0,-0x10(%rbp)
   18c4e:	eb 46                	jmp    18c96 <main+0x41c>
   18c50:	8b 45 f0             	mov    -0x10(%rbp),%eax
   18c53:	48 98                	cltq   
   18c55:	48 8d 15 c5 76 00 00 	lea    0x76c5(%rip),%rdx        # 20321 <g_121>
   18c5c:	0f b6 04 10          	movzbl (%rax,%rdx,1),%eax
   18c60:	48 0f be c0          	movsbq %al,%rax
   18c64:	8b 55 fc             	mov    -0x4(%rbp),%edx
   18c67:	48 8d 35 67 43 00 00 	lea    0x4367(%rip),%rsi        # 1cfd5 <g_2872+0x2f55>
   18c6e:	48 89 c7             	mov    %rax,%rdi
   18c71:	e8 7d ea fe ff       	callq  76f3 <transparent_crc>
   18c76:	83 7d fc 00          	cmpl   $0x0,-0x4(%rbp)
   18c7a:	74 16                	je     18c92 <main+0x418>
   18c7c:	8b 45 f0             	mov    -0x10(%rbp),%eax
   18c7f:	89 c6                	mov    %eax,%esi
   18c81:	48 8d 3d c1 42 00 00 	lea    0x42c1(%rip),%rdi        # 1cf49 <g_2872+0x2ec9>
   18c88:	b8 00 00 00 00       	mov    $0x0,%eax
   18c8d:	e8 ee d3 fe ff       	callq  6080 <printf@plt>
   18c92:	83 45 f0 01          	addl   $0x1,-0x10(%rbp)
   18c96:	83 7d f0 06          	cmpl   $0x6,-0x10(%rbp)
   18c9a:	7e b4                	jle    18c50 <main+0x3d6>
   18c9c:	0f b7 05 85 76 00 00 	movzwl 0x7685(%rip),%eax        # 20328 <g_138>
   18ca3:	0f b7 c0             	movzwl %ax,%eax
   18ca6:	8b 55 fc             	mov    -0x4(%rbp),%edx
   18ca9:	48 8d 35 2e 43 00 00 	lea    0x432e(%rip),%rsi        # 1cfde <g_2872+0x2f5e>
   18cb0:	48 89 c7             	mov    %rax,%rdi
   18cb3:	e8 3b ea fe ff       	callq  76f3 <transparent_crc>
   18cb8:	0f b7 05 6b 76 00 00 	movzwl 0x766b(%rip),%eax        # 2032a <g_145>
   18cbf:	0f b7 c0             	movzwl %ax,%eax
   18cc2:	8b 55 fc             	mov    -0x4(%rbp),%edx
   18cc5:	48 8d 35 18 43 00 00 	lea    0x4318(%rip),%rsi        # 1cfe4 <g_2872+0x2f64>
   18ccc:	48 89 c7             	mov    %rax,%rdi
   18ccf:	e8 1f ea fe ff       	callq  76f3 <transparent_crc>
   18cd4:	48 8b 05 55 76 00 00 	mov    0x7655(%rip),%rax        # 20330 <g_154>
   18cdb:	8b 55 fc             	mov    -0x4(%rbp),%edx
   18cde:	48 8d 35 05 43 00 00 	lea    0x4305(%rip),%rsi        # 1cfea <g_2872+0x2f6a>
   18ce5:	48 89 c7             	mov    %rax,%rdi
   18ce8:	e8 06 ea fe ff       	callq  76f3 <transparent_crc>
   18ced:	0f b6 05 44 76 00 00 	movzbl 0x7644(%rip),%eax        # 20338 <g_159>
   18cf4:	0f b6 c0             	movzbl %al,%eax
   18cf7:	8b 55 fc             	mov    -0x4(%rbp),%edx
   18cfa:	48 8d 35 ef 42 00 00 	lea    0x42ef(%rip),%rsi        # 1cff0 <g_2872+0x2f70>
   18d01:	48 89 c7             	mov    %rax,%rdi
   18d04:	e8 ea e9 fe ff       	callq  76f3 <transparent_crc>
   18d09:	0f b6 05 29 76 00 00 	movzbl 0x7629(%rip),%eax        # 20339 <g_159+0x1>
   18d10:	c1 e0 02             	shl    $0x2,%eax
   18d13:	c0 f8 02             	sar    $0x2,%al
   18d16:	48 0f be c0          	movsbq %al,%rax
   18d1a:	8b 55 fc             	mov    -0x4(%rbp),%edx
   18d1d:	48 8d 35 d5 42 00 00 	lea    0x42d5(%rip),%rsi        # 1cff9 <g_2872+0x2f79>
   18d24:	48 89 c7             	mov    %rax,%rdi
   18d27:	e8 c7 e9 fe ff       	callq  76f3 <transparent_crc>
   18d2c:	8b 05 0a 76 00 00    	mov    0x760a(%rip),%eax        # 2033c <g_163>
   18d32:	89 c1                	mov    %eax,%ecx
   18d34:	8b 45 fc             	mov    -0x4(%rbp),%eax
   18d37:	89 c2                	mov    %eax,%edx
   18d39:	48 8d 35 c2 42 00 00 	lea    0x42c2(%rip),%rsi        # 1d002 <g_2872+0x2f82>
   18d40:	48 89 cf             	mov    %rcx,%rdi
   18d43:	e8 ab e9 fe ff       	callq  76f3 <transparent_crc>
   18d48:	8b 05 6a 9b 00 00    	mov    0x9b6a(%rip),%eax        # 228b8 <g_165>
   18d4e:	89 c1                	mov    %eax,%ecx
   18d50:	8b 45 fc             	mov    -0x4(%rbp),%eax
   18d53:	89 c2                	mov    %eax,%edx
   18d55:	48 8d 35 ac 42 00 00 	lea    0x42ac(%rip),%rsi        # 1d008 <g_2872+0x2f88>
   18d5c:	48 89 cf             	mov    %rcx,%rdi
   18d5f:	e8 8f e9 fe ff       	callq  76f3 <transparent_crc>
   18d64:	0f b6 05 d5 75 00 00 	movzbl 0x75d5(%rip),%eax        # 20340 <g_257>
   18d6b:	48 0f be c0          	movsbq %al,%rax
   18d6f:	8b 55 fc             	mov    -0x4(%rbp),%edx
   18d72:	48 8d 35 95 42 00 00 	lea    0x4295(%rip),%rsi        # 1d00e <g_2872+0x2f8e>
   18d79:	48 89 c7             	mov    %rax,%rdi
   18d7c:	e8 72 e9 fe ff       	callq  76f3 <transparent_crc>
   18d81:	48 8b 05 c0 75 00 00 	mov    0x75c0(%rip),%rax        # 20348 <g_355>
   18d88:	48 89 c1             	mov    %rax,%rcx
   18d8b:	8b 45 fc             	mov    -0x4(%rbp),%eax
   18d8e:	89 c2                	mov    %eax,%edx
   18d90:	48 8d 35 7d 42 00 00 	lea    0x427d(%rip),%rsi        # 1d014 <g_2872+0x2f94>
   18d97:	48 89 cf             	mov    %rcx,%rdi
   18d9a:	e8 54 e9 fe ff       	callq  76f3 <transparent_crc>
   18d9f:	48 8b 05 aa 75 00 00 	mov    0x75aa(%rip),%rax        # 20350 <g_373>
   18da6:	48 89 c1             	mov    %rax,%rcx
   18da9:	8b 45 fc             	mov    -0x4(%rbp),%eax
   18dac:	89 c2                	mov    %eax,%edx
   18dae:	48 8d 35 65 42 00 00 	lea    0x4265(%rip),%rsi        # 1d01a <g_2872+0x2f9a>
   18db5:	48 89 cf             	mov    %rcx,%rdi
   18db8:	e8 36 e9 fe ff       	callq  76f3 <transparent_crc>
   18dbd:	c7 45 f0 00 00 00 00 	movl   $0x0,-0x10(%rbp)
   18dc4:	e9 8d 00 00 00       	jmpq   18e56 <main+0x5dc>
   18dc9:	c7 45 f4 00 00 00 00 	movl   $0x0,-0xc(%rbp)
   18dd0:	eb 7a                	jmp    18e4c <main+0x5d2>
   18dd2:	c7 45 f8 00 00 00 00 	movl   $0x0,-0x8(%rbp)
   18dd9:	eb 67                	jmp    18e42 <main+0x5c8>
   18ddb:	8b 45 f8             	mov    -0x8(%rbp),%eax
   18dde:	48 98                	cltq   
   18de0:	8b 55 f0             	mov    -0x10(%rbp),%edx
   18de3:	48 63 ca             	movslq %edx,%rcx
   18de6:	8b 55 f4             	mov    -0xc(%rbp),%edx
   18de9:	48 63 d2             	movslq %edx,%rdx
   18dec:	48 c1 e1 02          	shl    $0x2,%rcx
   18df0:	48 01 ca             	add    %rcx,%rdx
   18df3:	48 01 d2             	add    %rdx,%rdx
   18df6:	48 01 c2             	add    %rax,%rdx
   18df9:	48 8d 05 60 75 00 00 	lea    0x7560(%rip),%rax        # 20360 <g_517>
   18e00:	48 01 d0             	add    %rdx,%rax
   18e03:	0f b6 00             	movzbl (%rax),%eax
   18e06:	48 0f be c0          	movsbq %al,%rax
   18e0a:	8b 55 fc             	mov    -0x4(%rbp),%edx
   18e0d:	48 8d 35 0c 42 00 00 	lea    0x420c(%rip),%rsi        # 1d020 <g_2872+0x2fa0>
   18e14:	48 89 c7             	mov    %rax,%rdi
   18e17:	e8 d7 e8 fe ff       	callq  76f3 <transparent_crc>
   18e1c:	83 7d fc 00          	cmpl   $0x0,-0x4(%rbp)
   18e20:	74 1c                	je     18e3e <main+0x5c4>
   18e22:	8b 4d f8             	mov    -0x8(%rbp),%ecx
   18e25:	8b 55 f4             	mov    -0xc(%rbp),%edx
   18e28:	8b 45 f0             	mov    -0x10(%rbp),%eax
   18e2b:	89 c6                	mov    %eax,%esi
   18e2d:	48 8d 3d 5e 41 00 00 	lea    0x415e(%rip),%rdi        # 1cf92 <g_2872+0x2f12>
   18e34:	b8 00 00 00 00       	mov    $0x0,%eax
   18e39:	e8 42 d2 fe ff       	callq  6080 <printf@plt>
   18e3e:	83 45 f8 01          	addl   $0x1,-0x8(%rbp)
   18e42:	83 7d f8 01          	cmpl   $0x1,-0x8(%rbp)
   18e46:	7e 93                	jle    18ddb <main+0x561>
   18e48:	83 45 f4 01          	addl   $0x1,-0xc(%rbp)
   18e4c:	83 7d f4 03          	cmpl   $0x3,-0xc(%rbp)
   18e50:	7e 80                	jle    18dd2 <main+0x558>
   18e52:	83 45 f0 01          	addl   $0x1,-0x10(%rbp)
   18e56:	83 7d f0 01          	cmpl   $0x1,-0x10(%rbp)
   18e5a:	0f 8e 69 ff ff ff    	jle    18dc9 <main+0x54f>
   18e60:	0f b7 05 09 75 00 00 	movzwl 0x7509(%rip),%eax        # 20370 <g_597>
   18e67:	48 0f bf c0          	movswq %ax,%rax
   18e6b:	8b 55 fc             	mov    -0x4(%rbp),%edx
   18e6e:	48 8d 35 ba 41 00 00 	lea    0x41ba(%rip),%rsi        # 1d02f <g_2872+0x2faf>
   18e75:	48 89 c7             	mov    %rax,%rdi
   18e78:	e8 76 e8 fe ff       	callq  76f3 <transparent_crc>
   18e7d:	0f b7 05 ee 74 00 00 	movzwl 0x74ee(%rip),%eax        # 20372 <g_653>
   18e84:	48 0f bf c0          	movswq %ax,%rax
   18e88:	8b 55 fc             	mov    -0x4(%rbp),%edx
   18e8b:	48 8d 35 a3 41 00 00 	lea    0x41a3(%rip),%rsi        # 1d035 <g_2872+0x2fb5>
   18e92:	48 89 c7             	mov    %rax,%rdi
   18e95:	e8 59 e8 fe ff       	callq  76f3 <transparent_crc>
   18e9a:	c7 45 f0 00 00 00 00 	movl   $0x0,-0x10(%rbp)
   18ea1:	eb 7a                	jmp    18f1d <main+0x6a3>
   18ea3:	8b 45 f0             	mov    -0x10(%rbp),%eax
   18ea6:	48 98                	cltq   
   18ea8:	48 8d 14 85 00 00 00 	lea    0x0(,%rax,4),%rdx
   18eaf:	00 
   18eb0:	48 8d 05 c9 74 00 00 	lea    0x74c9(%rip),%rax        # 20380 <g_824>
   18eb7:	8b 04 02             	mov    (%rdx,%rax,1),%eax
   18eba:	89 c1                	mov    %eax,%ecx
   18ebc:	8b 45 fc             	mov    -0x4(%rbp),%eax
   18ebf:	89 c2                	mov    %eax,%edx
   18ec1:	48 8d 35 73 41 00 00 	lea    0x4173(%rip),%rsi        # 1d03b <g_2872+0x2fbb>
   18ec8:	48 89 cf             	mov    %rcx,%rdi
   18ecb:	e8 23 e8 fe ff       	callq  76f3 <transparent_crc>
   18ed0:	8b 45 f0             	mov    -0x10(%rbp),%eax
   18ed3:	48 98                	cltq   
   18ed5:	48 8d 14 85 00 00 00 	lea    0x0(,%rax,4),%rdx
   18edc:	00 
   18edd:	48 8d 05 9c 74 00 00 	lea    0x749c(%rip),%rax        # 20380 <g_824>
   18ee4:	8b 04 02             	mov    (%rdx,%rax,1),%eax
   18ee7:	89 c1                	mov    %eax,%ecx
   18ee9:	8b 45 fc             	mov    -0x4(%rbp),%eax
   18eec:	89 c2                	mov    %eax,%edx
   18eee:	48 8d 35 52 41 00 00 	lea    0x4152(%rip),%rsi        # 1d047 <g_2872+0x2fc7>
   18ef5:	48 89 cf             	mov    %rcx,%rdi
   18ef8:	e8 f6 e7 fe ff       	callq  76f3 <transparent_crc>
   18efd:	83 7d fc 00          	cmpl   $0x0,-0x4(%rbp)
   18f01:	74 16                	je     18f19 <main+0x69f>
   18f03:	8b 45 f0             	mov    -0x10(%rbp),%eax
   18f06:	89 c6                	mov    %eax,%esi
   18f08:	48 8d 3d 3a 40 00 00 	lea    0x403a(%rip),%rdi        # 1cf49 <g_2872+0x2ec9>
   18f0f:	b8 00 00 00 00       	mov    $0x0,%eax
   18f14:	e8 67 d1 fe ff       	callq  6080 <printf@plt>
   18f19:	83 45 f0 01          	addl   $0x1,-0x10(%rbp)
   18f1d:	83 7d f0 04          	cmpl   $0x4,-0x10(%rbp)
   18f21:	7e 80                	jle    18ea3 <main+0x629>
   18f23:	8b 05 6b 74 00 00    	mov    0x746b(%rip),%eax        # 20394 <g_833>
   18f29:	89 c1                	mov    %eax,%ecx
   18f2b:	8b 45 fc             	mov    -0x4(%rbp),%eax
   18f2e:	89 c2                	mov    %eax,%edx
   18f30:	48 8d 35 1c 41 00 00 	lea    0x411c(%rip),%rsi        # 1d053 <g_2872+0x2fd3>
   18f37:	48 89 cf             	mov    %rcx,%rdi
   18f3a:	e8 b4 e7 fe ff       	callq  76f3 <transparent_crc>
   18f3f:	8b 05 4f 74 00 00    	mov    0x744f(%rip),%eax        # 20394 <g_833>
   18f45:	89 c1                	mov    %eax,%ecx
   18f47:	8b 45 fc             	mov    -0x4(%rbp),%eax
   18f4a:	89 c2                	mov    %eax,%edx
   18f4c:	48 8d 35 09 41 00 00 	lea    0x4109(%rip),%rsi        # 1d05c <g_2872+0x2fdc>
   18f53:	48 89 cf             	mov    %rcx,%rdi
   18f56:	e8 98 e7 fe ff       	callq  76f3 <transparent_crc>
   18f5b:	48 8b 05 36 74 00 00 	mov    0x7436(%rip),%rax        # 20398 <g_864>
   18f62:	48 89 c1             	mov    %rax,%rcx
   18f65:	8b 45 fc             	mov    -0x4(%rbp),%eax
   18f68:	89 c2                	mov    %eax,%edx
   18f6a:	48 8d 35 f4 40 00 00 	lea    0x40f4(%rip),%rsi        # 1d065 <g_2872+0x2fe5>
   18f71:	48 89 cf             	mov    %rcx,%rdi
   18f74:	e8 7a e7 fe ff       	callq  76f3 <transparent_crc>
   18f79:	c7 45 f0 00 00 00 00 	movl   $0x0,-0x10(%rbp)
   18f80:	e9 9d 00 00 00       	jmpq   19022 <main+0x7a8>
   18f85:	c7 45 f4 00 00 00 00 	movl   $0x0,-0xc(%rbp)
   18f8c:	e9 83 00 00 00       	jmpq   19014 <main+0x79a>
   18f91:	c7 45 f8 00 00 00 00 	movl   $0x0,-0x8(%rbp)
   18f98:	eb 70                	jmp    1900a <main+0x790>
   18f9a:	8b 45 f8             	mov    -0x8(%rbp),%eax
   18f9d:	48 63 c8             	movslq %eax,%rcx
   18fa0:	8b 45 f0             	mov    -0x10(%rbp),%eax
   18fa3:	48 63 d0             	movslq %eax,%rdx
   18fa6:	8b 45 f4             	mov    -0xc(%rbp),%eax
   18fa9:	48 63 f0             	movslq %eax,%rsi
   18fac:	48 89 d0             	mov    %rdx,%rax
   18faf:	48 c1 e0 02          	shl    $0x2,%rax
   18fb3:	48 01 d0             	add    %rdx,%rax
   18fb6:	48 01 f0             	add    %rsi,%rax
   18fb9:	48 01 c0             	add    %rax,%rax
   18fbc:	48 01 c8             	add    %rcx,%rax
   18fbf:	48 8d 14 00          	lea    (%rax,%rax,1),%rdx
   18fc3:	48 8d 05 d6 73 00 00 	lea    0x73d6(%rip),%rax        # 203a0 <g_883>
   18fca:	0f b7 04 02          	movzwl (%rdx,%rax,1),%eax
   18fce:	48 0f bf c0          	movswq %ax,%rax
   18fd2:	8b 55 fc             	mov    -0x4(%rbp),%edx
   18fd5:	48 8d 35 8f 40 00 00 	lea    0x408f(%rip),%rsi        # 1d06b <g_2872+0x2feb>
   18fdc:	48 89 c7             	mov    %rax,%rdi
   18fdf:	e8 0f e7 fe ff       	callq  76f3 <transparent_crc>
   18fe4:	83 7d fc 00          	cmpl   $0x0,-0x4(%rbp)
   18fe8:	74 1c                	je     19006 <main+0x78c>
   18fea:	8b 4d f8             	mov    -0x8(%rbp),%ecx
   18fed:	8b 55 f4             	mov    -0xc(%rbp),%edx
   18ff0:	8b 45 f0             	mov    -0x10(%rbp),%eax
   18ff3:	89 c6                	mov    %eax,%esi
   18ff5:	48 8d 3d 96 3f 00 00 	lea    0x3f96(%rip),%rdi        # 1cf92 <g_2872+0x2f12>
   18ffc:	b8 00 00 00 00       	mov    $0x0,%eax
   19001:	e8 7a d0 fe ff       	callq  6080 <printf@plt>
   19006:	83 45 f8 01          	addl   $0x1,-0x8(%rbp)
   1900a:	83 7d f8 01          	cmpl   $0x1,-0x8(%rbp)
   1900e:	7e 8a                	jle    18f9a <main+0x720>
   19010:	83 45 f4 01          	addl   $0x1,-0xc(%rbp)
   19014:	83 7d f4 04          	cmpl   $0x4,-0xc(%rbp)
   19018:	0f 8e 73 ff ff ff    	jle    18f91 <main+0x717>
   1901e:	83 45 f0 01          	addl   $0x1,-0x10(%rbp)
   19022:	83 7d f0 09          	cmpl   $0x9,-0x10(%rbp)
   19026:	0f 8e 59 ff ff ff    	jle    18f85 <main+0x70b>
   1902c:	8b 05 36 74 00 00    	mov    0x7436(%rip),%eax        # 20468 <g_954>
   19032:	48 98                	cltq   
   19034:	8b 55 fc             	mov    -0x4(%rbp),%edx
   19037:	48 8d 35 3c 40 00 00 	lea    0x403c(%rip),%rsi        # 1d07a <g_2872+0x2ffa>
   1903e:	48 89 c7             	mov    %rax,%rdi
   19041:	e8 ad e6 fe ff       	callq  76f3 <transparent_crc>
   19046:	c7 45 f0 00 00 00 00 	movl   $0x0,-0x10(%rbp)
   1904d:	eb 4f                	jmp    1909e <main+0x824>
   1904f:	8b 45 f0             	mov    -0x10(%rbp),%eax
   19052:	48 98                	cltq   
   19054:	48 8d 14 c5 00 00 00 	lea    0x0(,%rax,8),%rdx
   1905b:	00 
   1905c:	48 8d 05 0d 74 00 00 	lea    0x740d(%rip),%rax        # 20470 <g_958>
   19063:	48 8b 04 02          	mov    (%rdx,%rax,1),%rax
   19067:	48 89 c1             	mov    %rax,%rcx
   1906a:	8b 45 fc             	mov    -0x4(%rbp),%eax
   1906d:	89 c2                	mov    %eax,%edx
   1906f:	48 8d 35 0a 40 00 00 	lea    0x400a(%rip),%rsi        # 1d080 <g_2872+0x3000>
   19076:	48 89 cf             	mov    %rcx,%rdi
   19079:	e8 75 e6 fe ff       	callq  76f3 <transparent_crc>
   1907e:	83 7d fc 00          	cmpl   $0x0,-0x4(%rbp)
   19082:	74 16                	je     1909a <main+0x820>
   19084:	8b 45 f0             	mov    -0x10(%rbp),%eax
   19087:	89 c6                	mov    %eax,%esi
   19089:	48 8d 3d b9 3e 00 00 	lea    0x3eb9(%rip),%rdi        # 1cf49 <g_2872+0x2ec9>
   19090:	b8 00 00 00 00       	mov    $0x0,%eax
   19095:	e8 e6 cf fe ff       	callq  6080 <printf@plt>
   1909a:	83 45 f0 01          	addl   $0x1,-0x10(%rbp)
   1909e:	83 7d f0 02          	cmpl   $0x2,-0x10(%rbp)
   190a2:	7e ab                	jle    1904f <main+0x7d5>
   190a4:	c7 45 f0 00 00 00 00 	movl   $0x0,-0x10(%rbp)
   190ab:	eb 4b                	jmp    190f8 <main+0x87e>
   190ad:	8b 45 f0             	mov    -0x10(%rbp),%eax
   190b0:	48 98                	cltq   
   190b2:	48 8d 14 85 00 00 00 	lea    0x0(,%rax,4),%rdx
   190b9:	00 
   190ba:	48 8d 05 cf 73 00 00 	lea    0x73cf(%rip),%rax        # 20490 <g_984>
   190c1:	8b 04 02             	mov    (%rdx,%rax,1),%eax
   190c4:	48 98                	cltq   
   190c6:	8b 55 fc             	mov    -0x4(%rbp),%edx
   190c9:	48 8d 35 b9 3f 00 00 	lea    0x3fb9(%rip),%rsi        # 1d089 <g_2872+0x3009>
   190d0:	48 89 c7             	mov    %rax,%rdi
   190d3:	e8 1b e6 fe ff       	callq  76f3 <transparent_crc>
   190d8:	83 7d fc 00          	cmpl   $0x0,-0x4(%rbp)
   190dc:	74 16                	je     190f4 <main+0x87a>
   190de:	8b 45 f0             	mov    -0x10(%rbp),%eax
   190e1:	89 c6                	mov    %eax,%esi
   190e3:	48 8d 3d 5f 3e 00 00 	lea    0x3e5f(%rip),%rdi        # 1cf49 <g_2872+0x2ec9>
   190ea:	b8 00 00 00 00       	mov    $0x0,%eax
   190ef:	e8 8c cf fe ff       	callq  6080 <printf@plt>
   190f4:	83 45 f0 01          	addl   $0x1,-0x10(%rbp)
   190f8:	83 7d f0 04          	cmpl   $0x4,-0x10(%rbp)
   190fc:	7e af                	jle    190ad <main+0x833>
   190fe:	8b 05 a0 73 00 00    	mov    0x73a0(%rip),%eax        # 204a4 <g_988>
   19104:	48 98                	cltq   
   19106:	8b 55 fc             	mov    -0x4(%rbp),%edx
   19109:	48 8d 35 82 3f 00 00 	lea    0x3f82(%rip),%rsi        # 1d092 <g_2872+0x3012>
   19110:	48 89 c7             	mov    %rax,%rdi
   19113:	e8 db e5 fe ff       	callq  76f3 <transparent_crc>
   19118:	8b 05 8a 73 00 00    	mov    0x738a(%rip),%eax        # 204a8 <g_1068>
   1911e:	89 c1                	mov    %eax,%ecx
   19120:	8b 45 fc             	mov    -0x4(%rbp),%eax
   19123:	89 c2                	mov    %eax,%edx
   19125:	48 8d 35 6c 3f 00 00 	lea    0x3f6c(%rip),%rsi        # 1d098 <g_2872+0x3018>
   1912c:	48 89 cf             	mov    %rcx,%rdi
   1912f:	e8 bf e5 fe ff       	callq  76f3 <transparent_crc>
   19134:	0f b6 05 71 73 00 00 	movzbl 0x7371(%rip),%eax        # 204ac <g_1139>
   1913b:	0f b6 c0             	movzbl %al,%eax
   1913e:	8b 55 fc             	mov    -0x4(%rbp),%edx
   19141:	48 8d 35 57 3f 00 00 	lea    0x3f57(%rip),%rsi        # 1d09f <g_2872+0x301f>
   19148:	48 89 c7             	mov    %rax,%rdi
   1914b:	e8 a3 e5 fe ff       	callq  76f3 <transparent_crc>
   19150:	0f b6 05 56 73 00 00 	movzbl 0x7356(%rip),%eax        # 204ad <g_1139+0x1>
   19157:	c1 e0 02             	shl    $0x2,%eax
   1915a:	c0 f8 02             	sar    $0x2,%al
   1915d:	48 0f be c0          	movsbq %al,%rax
   19161:	8b 55 fc             	mov    -0x4(%rbp),%edx
   19164:	48 8d 35 3e 3f 00 00 	lea    0x3f3e(%rip),%rsi        # 1d0a9 <g_2872+0x3029>
   1916b:	48 89 c7             	mov    %rax,%rdi
   1916e:	e8 80 e5 fe ff       	callq  76f3 <transparent_crc>
   19173:	8b 05 37 73 00 00    	mov    0x7337(%rip),%eax        # 204b0 <g_1166>
   19179:	89 c1                	mov    %eax,%ecx
   1917b:	8b 45 fc             	mov    -0x4(%rbp),%eax
   1917e:	89 c2                	mov    %eax,%edx
   19180:	48 8d 35 2c 3f 00 00 	lea    0x3f2c(%rip),%rsi        # 1d0b3 <g_2872+0x3033>
   19187:	48 89 cf             	mov    %rcx,%rdi
   1918a:	e8 64 e5 fe ff       	callq  76f3 <transparent_crc>
   1918f:	8b 05 1b 73 00 00    	mov    0x731b(%rip),%eax        # 204b0 <g_1166>
   19195:	89 c1                	mov    %eax,%ecx
   19197:	8b 45 fc             	mov    -0x4(%rbp),%eax
   1919a:	89 c2                	mov    %eax,%edx
   1919c:	48 8d 35 1a 3f 00 00 	lea    0x3f1a(%rip),%rsi        # 1d0bd <g_2872+0x303d>
   191a3:	48 89 cf             	mov    %rcx,%rdi
   191a6:	e8 48 e5 fe ff       	callq  76f3 <transparent_crc>
   191ab:	8b 05 03 73 00 00    	mov    0x7303(%rip),%eax        # 204b4 <g_1226>
   191b1:	89 c1                	mov    %eax,%ecx
   191b3:	8b 45 fc             	mov    -0x4(%rbp),%eax
   191b6:	89 c2                	mov    %eax,%edx
   191b8:	48 8d 35 08 3f 00 00 	lea    0x3f08(%rip),%rsi        # 1d0c7 <g_2872+0x3047>
   191bf:	48 89 cf             	mov    %rcx,%rdi
   191c2:	e8 2c e5 fe ff       	callq  76f3 <transparent_crc>
   191c7:	8b 05 e7 72 00 00    	mov    0x72e7(%rip),%eax        # 204b4 <g_1226>
   191cd:	89 c1                	mov    %eax,%ecx
   191cf:	8b 45 fc             	mov    -0x4(%rbp),%eax
   191d2:	89 c2                	mov    %eax,%edx
   191d4:	48 8d 35 f6 3e 00 00 	lea    0x3ef6(%rip),%rsi        # 1d0d1 <g_2872+0x3051>
   191db:	48 89 cf             	mov    %rcx,%rdi
   191de:	e8 10 e5 fe ff       	callq  76f3 <transparent_crc>
   191e3:	48 8b 05 ce 72 00 00 	mov    0x72ce(%rip),%rax        # 204b8 <g_1246>
   191ea:	8b 55 fc             	mov    -0x4(%rbp),%edx
   191ed:	48 8d 35 e7 3e 00 00 	lea    0x3ee7(%rip),%rsi        # 1d0db <g_2872+0x305b>
   191f4:	48 89 c7             	mov    %rax,%rdi
   191f7:	e8 f7 e4 fe ff       	callq  76f3 <transparent_crc>
   191fc:	8b 05 be 72 00 00    	mov    0x72be(%rip),%eax        # 204c0 <g_1250>
   19202:	89 c1                	mov    %eax,%ecx
   19204:	8b 45 fc             	mov    -0x4(%rbp),%eax
   19207:	89 c2                	mov    %eax,%edx
   19209:	48 8d 35 d2 3e 00 00 	lea    0x3ed2(%rip),%rsi        # 1d0e2 <g_2872+0x3062>
   19210:	48 89 cf             	mov    %rcx,%rdi
   19213:	e8 db e4 fe ff       	callq  76f3 <transparent_crc>
   19218:	0f b6 05 a5 72 00 00 	movzbl 0x72a5(%rip),%eax        # 204c4 <g_1299>
   1921f:	0f b6 c0             	movzbl %al,%eax
   19222:	8b 55 fc             	mov    -0x4(%rbp),%edx
   19225:	48 8d 35 bd 3e 00 00 	lea    0x3ebd(%rip),%rsi        # 1d0e9 <g_2872+0x3069>
   1922c:	48 89 c7             	mov    %rax,%rdi
   1922f:	e8 bf e4 fe ff       	callq  76f3 <transparent_crc>
   19234:	8b 05 ee 96 00 00    	mov    0x96ee(%rip),%eax        # 22928 <g_1322>
   1923a:	89 c1                	mov    %eax,%ecx
   1923c:	8b 45 fc             	mov    -0x4(%rbp),%eax
   1923f:	89 c2                	mov    %eax,%edx
   19241:	48 8d 35 a8 3e 00 00 	lea    0x3ea8(%rip),%rsi        # 1d0f0 <g_2872+0x3070>
   19248:	48 89 cf             	mov    %rcx,%rdi
   1924b:	e8 a3 e4 fe ff       	callq  76f3 <transparent_crc>
   19250:	8b 05 d2 96 00 00    	mov    0x96d2(%rip),%eax        # 22928 <g_1322>
   19256:	89 c1                	mov    %eax,%ecx
   19258:	8b 45 fc             	mov    -0x4(%rbp),%eax
   1925b:	89 c2                	mov    %eax,%edx
   1925d:	48 8d 35 96 3e 00 00 	lea    0x3e96(%rip),%rsi        # 1d0fa <g_2872+0x307a>
   19264:	48 89 cf             	mov    %rcx,%rdi
   19267:	e8 87 e4 fe ff       	callq  76f3 <transparent_crc>
   1926c:	b8 18 2d 6e 81       	mov    $0x816e2d18,%eax
   19271:	48 98                	cltq   
   19273:	8b 55 fc             	mov    -0x4(%rbp),%edx
   19276:	48 8d 35 87 3e 00 00 	lea    0x3e87(%rip),%rsi        # 1d104 <g_2872+0x3084>
   1927d:	48 89 c7             	mov    %rax,%rdi
   19280:	e8 6e e4 fe ff       	callq  76f3 <transparent_crc>
   19285:	0f b6 05 39 72 00 00 	movzbl 0x7239(%rip),%eax        # 204c5 <g_1403>
   1928c:	0f b6 c0             	movzbl %al,%eax
   1928f:	8b 55 fc             	mov    -0x4(%rbp),%edx
   19292:	48 8d 35 72 3e 00 00 	lea    0x3e72(%rip),%rsi        # 1d10b <g_2872+0x308b>
   19299:	48 89 c7             	mov    %rax,%rdi
   1929c:	e8 52 e4 fe ff       	callq  76f3 <transparent_crc>
   192a1:	0f b6 05 1e 72 00 00 	movzbl 0x721e(%rip),%eax        # 204c6 <g_1433>
   192a8:	48 0f be c0          	movsbq %al,%rax
   192ac:	8b 55 fc             	mov    -0x4(%rbp),%edx
   192af:	48 8d 35 5c 3e 00 00 	lea    0x3e5c(%rip),%rsi        # 1d112 <g_2872+0x3092>
   192b6:	48 89 c7             	mov    %rax,%rdi
   192b9:	e8 35 e4 fe ff       	callq  76f3 <transparent_crc>
   192be:	8b 05 68 96 00 00    	mov    0x9668(%rip),%eax        # 2292c <g_1512>
   192c4:	48 98                	cltq   
   192c6:	8b 55 fc             	mov    -0x4(%rbp),%edx
   192c9:	48 8d 35 49 3e 00 00 	lea    0x3e49(%rip),%rsi        # 1d119 <g_2872+0x3099>
   192d0:	48 89 c7             	mov    %rax,%rdi
   192d3:	e8 1b e4 fe ff       	callq  76f3 <transparent_crc>
   192d8:	8b 05 ea 71 00 00    	mov    0x71ea(%rip),%eax        # 204c8 <g_1541>
   192de:	89 c1                	mov    %eax,%ecx
   192e0:	8b 45 fc             	mov    -0x4(%rbp),%eax
   192e3:	89 c2                	mov    %eax,%edx
   192e5:	48 8d 35 34 3e 00 00 	lea    0x3e34(%rip),%rsi        # 1d120 <g_2872+0x30a0>
   192ec:	48 89 cf             	mov    %rcx,%rdi
   192ef:	e8 ff e3 fe ff       	callq  76f3 <transparent_crc>
   192f4:	8b 05 ce 71 00 00    	mov    0x71ce(%rip),%eax        # 204c8 <g_1541>
   192fa:	89 c1                	mov    %eax,%ecx
   192fc:	8b 45 fc             	mov    -0x4(%rbp),%eax
   192ff:	89 c2                	mov    %eax,%edx
   19301:	48 8d 35 22 3e 00 00 	lea    0x3e22(%rip),%rsi        # 1d12a <g_2872+0x30aa>
   19308:	48 89 cf             	mov    %rcx,%rdi
   1930b:	e8 e3 e3 fe ff       	callq  76f3 <transparent_crc>
   19310:	8b 05 b6 71 00 00    	mov    0x71b6(%rip),%eax        # 204cc <g_1551>
   19316:	89 c1                	mov    %eax,%ecx
   19318:	8b 45 fc             	mov    -0x4(%rbp),%eax
   1931b:	89 c2                	mov    %eax,%edx
   1931d:	48 8d 35 10 3e 00 00 	lea    0x3e10(%rip),%rsi        # 1d134 <g_2872+0x30b4>
   19324:	48 89 cf             	mov    %rcx,%rdi
   19327:	e8 c7 e3 fe ff       	callq  76f3 <transparent_crc>
   1932c:	8b 05 9a 71 00 00    	mov    0x719a(%rip),%eax        # 204cc <g_1551>
   19332:	89 c1                	mov    %eax,%ecx
   19334:	8b 45 fc             	mov    -0x4(%rbp),%eax
   19337:	89 c2                	mov    %eax,%edx
   19339:	48 8d 35 fe 3d 00 00 	lea    0x3dfe(%rip),%rsi        # 1d13e <g_2872+0x30be>
   19340:	48 89 cf             	mov    %rcx,%rdi
   19343:	e8 ab e3 fe ff       	callq  76f3 <transparent_crc>
   19348:	0f b6 05 f1 95 00 00 	movzbl 0x95f1(%rip),%eax        # 22940 <g_1649>
   1934f:	0f b6 c0             	movzbl %al,%eax
   19352:	8b 55 fc             	mov    -0x4(%rbp),%edx
   19355:	48 8d 35 ec 3d 00 00 	lea    0x3dec(%rip),%rsi        # 1d148 <g_2872+0x30c8>
   1935c:	48 89 c7             	mov    %rax,%rdi
   1935f:	e8 8f e3 fe ff       	callq  76f3 <transparent_crc>
   19364:	8b 05 d6 95 00 00    	mov    0x95d6(%rip),%eax        # 22940 <g_1649>
   1936a:	c1 e0 02             	shl    $0x2,%eax
   1936d:	66 c1 f8 0a          	sar    $0xa,%ax
   19371:	48 0f be c0          	movsbq %al,%rax
   19375:	8b 55 fc             	mov    -0x4(%rbp),%edx
   19378:	48 8d 35 d3 3d 00 00 	lea    0x3dd3(%rip),%rsi        # 1d152 <g_2872+0x30d2>
   1937f:	48 89 c7             	mov    %rax,%rdi
   19382:	e8 6c e3 fe ff       	callq  76f3 <transparent_crc>
   19387:	8b 05 43 71 00 00    	mov    0x7143(%rip),%eax        # 204d0 <g_1664>
   1938d:	89 c1                	mov    %eax,%ecx
   1938f:	8b 45 fc             	mov    -0x4(%rbp),%eax
   19392:	89 c2                	mov    %eax,%edx
   19394:	48 8d 35 c1 3d 00 00 	lea    0x3dc1(%rip),%rsi        # 1d15c <g_2872+0x30dc>
   1939b:	48 89 cf             	mov    %rcx,%rdi
   1939e:	e8 50 e3 fe ff       	callq  76f3 <transparent_crc>
   193a3:	8b 05 27 71 00 00    	mov    0x7127(%rip),%eax        # 204d0 <g_1664>
   193a9:	89 c1                	mov    %eax,%ecx
   193ab:	8b 45 fc             	mov    -0x4(%rbp),%eax
   193ae:	89 c2                	mov    %eax,%edx
   193b0:	48 8d 35 af 3d 00 00 	lea    0x3daf(%rip),%rsi        # 1d166 <g_2872+0x30e6>
   193b7:	48 89 cf             	mov    %rcx,%rdi
   193ba:	e8 34 e3 fe ff       	callq  76f3 <transparent_crc>
   193bf:	b8 47 d4 ff ff       	mov    $0xffffd447,%eax
   193c4:	0f b7 c0             	movzwl %ax,%eax
   193c7:	8b 55 fc             	mov    -0x4(%rbp),%edx
   193ca:	48 8d 35 9f 3d 00 00 	lea    0x3d9f(%rip),%rsi        # 1d170 <g_2872+0x30f0>
   193d1:	48 89 c7             	mov    %rax,%rdi
   193d4:	e8 1a e3 fe ff       	callq  76f3 <transparent_crc>
   193d9:	0f b7 05 64 95 00 00 	movzwl 0x9564(%rip),%eax        # 22944 <g_1929>
   193e0:	48 0f bf c0          	movswq %ax,%rax
   193e4:	8b 55 fc             	mov    -0x4(%rbp),%edx
   193e7:	48 8d 35 89 3d 00 00 	lea    0x3d89(%rip),%rsi        # 1d177 <g_2872+0x30f7>
   193ee:	48 89 c7             	mov    %rax,%rdi
   193f1:	e8 fd e2 fe ff       	callq  76f3 <transparent_crc>
   193f6:	8b 05 d8 70 00 00    	mov    0x70d8(%rip),%eax        # 204d4 <g_1942>
   193fc:	48 98                	cltq   
   193fe:	8b 55 fc             	mov    -0x4(%rbp),%edx
   19401:	48 8d 35 76 3d 00 00 	lea    0x3d76(%rip),%rsi        # 1d17e <g_2872+0x30fe>
   19408:	48 89 c7             	mov    %rax,%rdi
   1940b:	e8 e3 e2 fe ff       	callq  76f3 <transparent_crc>
   19410:	8b 05 c2 70 00 00    	mov    0x70c2(%rip),%eax        # 204d8 <g_2005>
   19416:	89 c1                	mov    %eax,%ecx
   19418:	8b 45 fc             	mov    -0x4(%rbp),%eax
   1941b:	89 c2                	mov    %eax,%edx
   1941d:	48 8d 35 61 3d 00 00 	lea    0x3d61(%rip),%rsi        # 1d185 <g_2872+0x3105>
   19424:	48 89 cf             	mov    %rcx,%rdi
   19427:	e8 c7 e2 fe ff       	callq  76f3 <transparent_crc>
   1942c:	8b 05 a6 70 00 00    	mov    0x70a6(%rip),%eax        # 204d8 <g_2005>
   19432:	89 c1                	mov    %eax,%ecx
   19434:	8b 45 fc             	mov    -0x4(%rbp),%eax
   19437:	89 c2                	mov    %eax,%edx
   19439:	48 8d 35 4f 3d 00 00 	lea    0x3d4f(%rip),%rsi        # 1d18f <g_2872+0x310f>
   19440:	48 89 cf             	mov    %rcx,%rdi
   19443:	e8 ab e2 fe ff       	callq  76f3 <transparent_crc>
   19448:	8b 05 8e 70 00 00    	mov    0x708e(%rip),%eax        # 204dc <g_2007>
   1944e:	89 c1                	mov    %eax,%ecx
   19450:	8b 45 fc             	mov    -0x4(%rbp),%eax
   19453:	89 c2                	mov    %eax,%edx
   19455:	48 8d 35 3d 3d 00 00 	lea    0x3d3d(%rip),%rsi        # 1d199 <g_2872+0x3119>
   1945c:	48 89 cf             	mov    %rcx,%rdi
   1945f:	e8 8f e2 fe ff       	callq  76f3 <transparent_crc>
   19464:	8b 05 76 70 00 00    	mov    0x7076(%rip),%eax        # 204e0 <g_2024>
   1946a:	89 c1                	mov    %eax,%ecx
   1946c:	8b 45 fc             	mov    -0x4(%rbp),%eax
   1946f:	89 c2                	mov    %eax,%edx
   19471:	48 8d 35 28 3d 00 00 	lea    0x3d28(%rip),%rsi        # 1d1a0 <g_2872+0x3120>
   19478:	48 89 cf             	mov    %rcx,%rdi
   1947b:	e8 73 e2 fe ff       	callq  76f3 <transparent_crc>
   19480:	8b 05 5a 70 00 00    	mov    0x705a(%rip),%eax        # 204e0 <g_2024>
   19486:	89 c1                	mov    %eax,%ecx
   19488:	8b 45 fc             	mov    -0x4(%rbp),%eax
   1948b:	89 c2                	mov    %eax,%edx
   1948d:	48 8d 35 16 3d 00 00 	lea    0x3d16(%rip),%rsi        # 1d1aa <g_2872+0x312a>
   19494:	48 89 cf             	mov    %rcx,%rdi
   19497:	e8 57 e2 fe ff       	callq  76f3 <transparent_crc>
   1949c:	0f b6 05 41 70 00 00 	movzbl 0x7041(%rip),%eax        # 204e4 <g_2058>
   194a3:	0f b6 c0             	movzbl %al,%eax
   194a6:	8b 55 fc             	mov    -0x4(%rbp),%edx
   194a9:	48 8d 35 04 3d 00 00 	lea    0x3d04(%rip),%rsi        # 1d1b4 <g_2872+0x3134>
   194b0:	48 89 c7             	mov    %rax,%rdi
   194b3:	e8 3b e2 fe ff       	callq  76f3 <transparent_crc>
   194b8:	c7 45 f0 00 00 00 00 	movl   $0x0,-0x10(%rbp)
   194bf:	eb 79                	jmp    1953a <main+0xcc0>
   194c1:	c7 45 f4 00 00 00 00 	movl   $0x0,-0xc(%rbp)
   194c8:	eb 66                	jmp    19530 <main+0xcb6>
   194ca:	8b 45 f4             	mov    -0xc(%rbp),%eax
   194cd:	48 63 c8             	movslq %eax,%rcx
   194d0:	8b 45 f0             	mov    -0x10(%rbp),%eax
   194d3:	48 63 d0             	movslq %eax,%rdx
   194d6:	48 89 d0             	mov    %rdx,%rax
   194d9:	48 01 c0             	add    %rax,%rax
   194dc:	48 01 d0             	add    %rdx,%rax
   194df:	48 01 c0             	add    %rax,%rax
   194e2:	48 01 c8             	add    %rcx,%rax
   194e5:	48 8d 14 85 00 00 00 	lea    0x0(,%rax,4),%rdx
   194ec:	00 
   194ed:	48 8d 05 0c 70 00 00 	lea    0x700c(%rip),%rax        # 20500 <g_2099>
   194f4:	8b 04 02             	mov    (%rdx,%rax,1),%eax
   194f7:	89 c1                	mov    %eax,%ecx
   194f9:	8b 45 fc             	mov    -0x4(%rbp),%eax
   194fc:	89 c2                	mov    %eax,%edx
   194fe:	48 8d 35 b6 3c 00 00 	lea    0x3cb6(%rip),%rsi        # 1d1bb <g_2872+0x313b>
   19505:	48 89 cf             	mov    %rcx,%rdi
   19508:	e8 e6 e1 fe ff       	callq  76f3 <transparent_crc>
   1950d:	83 7d fc 00          	cmpl   $0x0,-0x4(%rbp)
   19511:	74 19                	je     1952c <main+0xcb2>
   19513:	8b 55 f4             	mov    -0xc(%rbp),%edx
   19516:	8b 45 f0             	mov    -0x10(%rbp),%eax
   19519:	89 c6                	mov    %eax,%esi
   1951b:	48 8d 3d 43 3a 00 00 	lea    0x3a43(%rip),%rdi        # 1cf65 <g_2872+0x2ee5>
   19522:	b8 00 00 00 00       	mov    $0x0,%eax
   19527:	e8 54 cb fe ff       	callq  6080 <printf@plt>
   1952c:	83 45 f4 01          	addl   $0x1,-0xc(%rbp)
   19530:	83 7d f4 05          	cmpl   $0x5,-0xc(%rbp)
   19534:	7e 94                	jle    194ca <main+0xc50>
   19536:	83 45 f0 01          	addl   $0x1,-0x10(%rbp)
   1953a:	83 7d f0 03          	cmpl   $0x3,-0x10(%rbp)
   1953e:	7e 81                	jle    194c1 <main+0xc47>
   19540:	8b 05 1a 70 00 00    	mov    0x701a(%rip),%eax        # 20560 <g_2175>
   19546:	89 c1                	mov    %eax,%ecx
   19548:	8b 45 fc             	mov    -0x4(%rbp),%eax
   1954b:	89 c2                	mov    %eax,%edx
   1954d:	48 8d 35 74 3c 00 00 	lea    0x3c74(%rip),%rsi        # 1d1c8 <g_2872+0x3148>
   19554:	48 89 cf             	mov    %rcx,%rdi
   19557:	e8 97 e1 fe ff       	callq  76f3 <transparent_crc>
   1955c:	8b 05 fe 6f 00 00    	mov    0x6ffe(%rip),%eax        # 20560 <g_2175>
   19562:	89 c1                	mov    %eax,%ecx
   19564:	8b 45 fc             	mov    -0x4(%rbp),%eax
   19567:	89 c2                	mov    %eax,%edx
   19569:	48 8d 35 62 3c 00 00 	lea    0x3c62(%rip),%rsi        # 1d1d2 <g_2872+0x3152>
   19570:	48 89 cf             	mov    %rcx,%rdi
   19573:	e8 7b e1 fe ff       	callq  76f3 <transparent_crc>
   19578:	8b 05 e6 6f 00 00    	mov    0x6fe6(%rip),%eax        # 20564 <g_2184>
   1957e:	89 c1                	mov    %eax,%ecx
   19580:	8b 45 fc             	mov    -0x4(%rbp),%eax
   19583:	89 c2                	mov    %eax,%edx
   19585:	48 8d 35 50 3c 00 00 	lea    0x3c50(%rip),%rsi        # 1d1dc <g_2872+0x315c>
   1958c:	48 89 cf             	mov    %rcx,%rdi
   1958f:	e8 5f e1 fe ff       	callq  76f3 <transparent_crc>
   19594:	8b 05 ca 6f 00 00    	mov    0x6fca(%rip),%eax        # 20564 <g_2184>
   1959a:	89 c1                	mov    %eax,%ecx
   1959c:	8b 45 fc             	mov    -0x4(%rbp),%eax
   1959f:	89 c2                	mov    %eax,%edx
   195a1:	48 8d 35 3e 3c 00 00 	lea    0x3c3e(%rip),%rsi        # 1d1e6 <g_2872+0x3166>
   195a8:	48 89 cf             	mov    %rcx,%rdi
   195ab:	e8 43 e1 fe ff       	callq  76f3 <transparent_crc>
   195b0:	8b 05 b2 6f 00 00    	mov    0x6fb2(%rip),%eax        # 20568 <g_2243>
   195b6:	89 c1                	mov    %eax,%ecx
   195b8:	8b 45 fc             	mov    -0x4(%rbp),%eax
   195bb:	89 c2                	mov    %eax,%edx
   195bd:	48 8d 35 2c 3c 00 00 	lea    0x3c2c(%rip),%rsi        # 1d1f0 <g_2872+0x3170>
   195c4:	48 89 cf             	mov    %rcx,%rdi
   195c7:	e8 27 e1 fe ff       	callq  76f3 <transparent_crc>
   195cc:	c7 45 f0 00 00 00 00 	movl   $0x0,-0x10(%rbp)
   195d3:	e9 c5 00 00 00       	jmpq   1969d <main+0xe23>
   195d8:	c7 45 f4 00 00 00 00 	movl   $0x0,-0xc(%rbp)
   195df:	e9 ab 00 00 00       	jmpq   1968f <main+0xe15>
   195e4:	8b 45 f4             	mov    -0xc(%rbp),%eax
   195e7:	48 63 c8             	movslq %eax,%rcx
   195ea:	8b 45 f0             	mov    -0x10(%rbp),%eax
   195ed:	48 63 d0             	movslq %eax,%rdx
   195f0:	48 89 d0             	mov    %rdx,%rax
   195f3:	48 c1 e0 02          	shl    $0x2,%rax
   195f7:	48 01 d0             	add    %rdx,%rax
   195fa:	48 01 c0             	add    %rax,%rax
   195fd:	48 01 c8             	add    %rcx,%rax
   19600:	48 8d 14 85 00 00 00 	lea    0x0(,%rax,4),%rdx
   19607:	00 
   19608:	48 8d 05 71 6f 00 00 	lea    0x6f71(%rip),%rax        # 20580 <g_2402>
   1960f:	8b 04 02             	mov    (%rdx,%rax,1),%eax
   19612:	89 c1                	mov    %eax,%ecx
   19614:	8b 45 fc             	mov    -0x4(%rbp),%eax
   19617:	89 c2                	mov    %eax,%edx
   19619:	48 8d 35 d7 3b 00 00 	lea    0x3bd7(%rip),%rsi        # 1d1f7 <g_2872+0x3177>
   19620:	48 89 cf             	mov    %rcx,%rdi
   19623:	e8 cb e0 fe ff       	callq  76f3 <transparent_crc>
   19628:	8b 45 f4             	mov    -0xc(%rbp),%eax
   1962b:	48 63 c8             	movslq %eax,%rcx
   1962e:	8b 45 f0             	mov    -0x10(%rbp),%eax
   19631:	48 63 d0             	movslq %eax,%rdx
   19634:	48 89 d0             	mov    %rdx,%rax
   19637:	48 c1 e0 02          	shl    $0x2,%rax
   1963b:	48 01 d0             	add    %rdx,%rax
   1963e:	48 01 c0             	add    %rax,%rax
   19641:	48 01 c8             	add    %rcx,%rax
   19644:	48 8d 14 85 00 00 00 	lea    0x0(,%rax,4),%rdx
   1964b:	00 
   1964c:	48 8d 05 2d 6f 00 00 	lea    0x6f2d(%rip),%rax        # 20580 <g_2402>
   19653:	8b 04 02             	mov    (%rdx,%rax,1),%eax
   19656:	89 c1                	mov    %eax,%ecx
   19658:	8b 45 fc             	mov    -0x4(%rbp),%eax
   1965b:	89 c2                	mov    %eax,%edx
   1965d:	48 8d 35 a3 3b 00 00 	lea    0x3ba3(%rip),%rsi        # 1d207 <g_2872+0x3187>
   19664:	48 89 cf             	mov    %rcx,%rdi
   19667:	e8 87 e0 fe ff       	callq  76f3 <transparent_crc>
   1966c:	83 7d fc 00          	cmpl   $0x0,-0x4(%rbp)
   19670:	74 19                	je     1968b <main+0xe11>
   19672:	8b 55 f4             	mov    -0xc(%rbp),%edx
   19675:	8b 45 f0             	mov    -0x10(%rbp),%eax
   19678:	89 c6                	mov    %eax,%esi
   1967a:	48 8d 3d e4 38 00 00 	lea    0x38e4(%rip),%rdi        # 1cf65 <g_2872+0x2ee5>
   19681:	b8 00 00 00 00       	mov    $0x0,%eax
   19686:	e8 f5 c9 fe ff       	callq  6080 <printf@plt>
   1968b:	83 45 f4 01          	addl   $0x1,-0xc(%rbp)
   1968f:	83 7d f4 09          	cmpl   $0x9,-0xc(%rbp)
   19693:	0f 8e 4b ff ff ff    	jle    195e4 <main+0xd6a>
   19699:	83 45 f0 01          	addl   $0x1,-0x10(%rbp)
   1969d:	83 7d f0 09          	cmpl   $0x9,-0x10(%rbp)
   196a1:	0f 8e 31 ff ff ff    	jle    195d8 <main+0xd5e>
   196a7:	48 8b 05 62 70 00 00 	mov    0x7062(%rip),%rax        # 20710 <g_2584>
   196ae:	8b 55 fc             	mov    -0x4(%rbp),%edx
   196b1:	48 8d 35 5f 3b 00 00 	lea    0x3b5f(%rip),%rsi        # 1d217 <g_2872+0x3197>
   196b8:	48 89 c7             	mov    %rax,%rdi
   196bb:	e8 33 e0 fe ff       	callq  76f3 <transparent_crc>
   196c0:	c7 45 f0 00 00 00 00 	movl   $0x0,-0x10(%rbp)
   196c7:	eb 78                	jmp    19741 <main+0xec7>
   196c9:	c7 45 f4 00 00 00 00 	movl   $0x0,-0xc(%rbp)
   196d0:	eb 65                	jmp    19737 <main+0xebd>
   196d2:	8b 45 f4             	mov    -0xc(%rbp),%eax
   196d5:	48 63 c8             	movslq %eax,%rcx
   196d8:	8b 45 f0             	mov    -0x10(%rbp),%eax
   196db:	48 63 d0             	movslq %eax,%rdx
   196de:	48 89 d0             	mov    %rdx,%rax
   196e1:	48 01 c0             	add    %rax,%rax
   196e4:	48 01 d0             	add    %rdx,%rax
   196e7:	48 01 c8             	add    %rcx,%rax
   196ea:	48 8d 14 c5 00 00 00 	lea    0x0(,%rax,8),%rdx
   196f1:	00 
   196f2:	48 8d 05 27 70 00 00 	lea    0x7027(%rip),%rax        # 20720 <g_2594>
   196f9:	48 8b 04 02          	mov    (%rdx,%rax,1),%rax
   196fd:	48 89 c1             	mov    %rax,%rcx
   19700:	8b 45 fc             	mov    -0x4(%rbp),%eax
   19703:	89 c2                	mov    %eax,%edx
   19705:	48 8d 35 12 3b 00 00 	lea    0x3b12(%rip),%rsi        # 1d21e <g_2872+0x319e>
   1970c:	48 89 cf             	mov    %rcx,%rdi
   1970f:	e8 df df fe ff       	callq  76f3 <transparent_crc>
   19714:	83 7d fc 00          	cmpl   $0x0,-0x4(%rbp)
   19718:	74 19                	je     19733 <main+0xeb9>
   1971a:	8b 55 f4             	mov    -0xc(%rbp),%edx
   1971d:	8b 45 f0             	mov    -0x10(%rbp),%eax
   19720:	89 c6                	mov    %eax,%esi
   19722:	48 8d 3d 3c 38 00 00 	lea    0x383c(%rip),%rdi        # 1cf65 <g_2872+0x2ee5>
   19729:	b8 00 00 00 00       	mov    $0x0,%eax
   1972e:	e8 4d c9 fe ff       	callq  6080 <printf@plt>
   19733:	83 45 f4 01          	addl   $0x1,-0xc(%rbp)
   19737:	83 7d f4 02          	cmpl   $0x2,-0xc(%rbp)
   1973b:	7e 95                	jle    196d2 <main+0xe58>
   1973d:	83 45 f0 01          	addl   $0x1,-0x10(%rbp)
   19741:	83 7d f0 00          	cmpl   $0x0,-0x10(%rbp)
   19745:	7e 82                	jle    196c9 <main+0xe4f>
   19747:	8b 05 eb 6f 00 00    	mov    0x6feb(%rip),%eax        # 20738 <g_2624>
   1974d:	89 c1                	mov    %eax,%ecx
   1974f:	8b 45 fc             	mov    -0x4(%rbp),%eax
   19752:	89 c2                	mov    %eax,%edx
   19754:	48 8d 35 d0 3a 00 00 	lea    0x3ad0(%rip),%rsi        # 1d22b <g_2872+0x31ab>
   1975b:	48 89 cf             	mov    %rcx,%rdi
   1975e:	e8 90 df fe ff       	callq  76f3 <transparent_crc>
   19763:	8b 05 cf 6f 00 00    	mov    0x6fcf(%rip),%eax        # 20738 <g_2624>
   19769:	89 c1                	mov    %eax,%ecx
   1976b:	8b 45 fc             	mov    -0x4(%rbp),%eax
   1976e:	89 c2                	mov    %eax,%edx
   19770:	48 8d 35 be 3a 00 00 	lea    0x3abe(%rip),%rsi        # 1d235 <g_2872+0x31b5>
   19777:	48 89 cf             	mov    %rcx,%rdi
   1977a:	e8 74 df fe ff       	callq  76f3 <transparent_crc>
   1977f:	48 8b 05 ba 6f 00 00 	mov    0x6fba(%rip),%rax        # 20740 <g_2638>
   19786:	8b 55 fc             	mov    -0x4(%rbp),%edx
   19789:	48 8d 35 af 3a 00 00 	lea    0x3aaf(%rip),%rsi        # 1d23f <g_2872+0x31bf>
   19790:	48 89 c7             	mov    %rax,%rdi
   19793:	e8 5b df fe ff       	callq  76f3 <transparent_crc>
   19798:	8b 05 aa 6f 00 00    	mov    0x6faa(%rip),%eax        # 20748 <g_2758>
   1979e:	89 c1                	mov    %eax,%ecx
   197a0:	8b 45 fc             	mov    -0x4(%rbp),%eax
   197a3:	89 c2                	mov    %eax,%edx
   197a5:	48 8d 35 9a 3a 00 00 	lea    0x3a9a(%rip),%rsi        # 1d246 <g_2872+0x31c6>
   197ac:	48 89 cf             	mov    %rcx,%rdi
   197af:	e8 3f df fe ff       	callq  76f3 <transparent_crc>
   197b4:	8b 05 8e 6f 00 00    	mov    0x6f8e(%rip),%eax        # 20748 <g_2758>
   197ba:	89 c1                	mov    %eax,%ecx
   197bc:	8b 45 fc             	mov    -0x4(%rbp),%eax
   197bf:	89 c2                	mov    %eax,%edx
   197c1:	48 8d 35 88 3a 00 00 	lea    0x3a88(%rip),%rsi        # 1d250 <g_2872+0x31d0>
   197c8:	48 89 cf             	mov    %rcx,%rdi
   197cb:	e8 23 df fe ff       	callq  76f3 <transparent_crc>
   197d0:	8b 05 a6 08 00 00    	mov    0x8a6(%rip),%eax        # 1a07c <g_2807>
   197d6:	89 c1                	mov    %eax,%ecx
   197d8:	8b 45 fc             	mov    -0x4(%rbp),%eax
   197db:	89 c2                	mov    %eax,%edx
   197dd:	48 8d 35 76 3a 00 00 	lea    0x3a76(%rip),%rsi        # 1d25a <g_2872+0x31da>
   197e4:	48 89 cf             	mov    %rcx,%rdi
   197e7:	e8 07 df fe ff       	callq  76f3 <transparent_crc>
   197ec:	8b 05 8a 08 00 00    	mov    0x88a(%rip),%eax        # 1a07c <g_2807>
   197f2:	89 c1                	mov    %eax,%ecx
   197f4:	8b 45 fc             	mov    -0x4(%rbp),%eax
   197f7:	89 c2                	mov    %eax,%edx
   197f9:	48 8d 35 64 3a 00 00 	lea    0x3a64(%rip),%rsi        # 1d264 <g_2872+0x31e4>
   19800:	48 89 cf             	mov    %rcx,%rdi
   19803:	e8 eb de fe ff       	callq  76f3 <transparent_crc>
   19808:	8b 05 3e 6f 00 00    	mov    0x6f3e(%rip),%eax        # 2074c <g_2848>
   1980e:	89 c1                	mov    %eax,%ecx
   19810:	8b 45 fc             	mov    -0x4(%rbp),%eax
   19813:	89 c2                	mov    %eax,%edx
   19815:	48 8d 35 52 3a 00 00 	lea    0x3a52(%rip),%rsi        # 1d26e <g_2872+0x31ee>
   1981c:	48 89 cf             	mov    %rcx,%rdi
   1981f:	e8 cf de fe ff       	callq  76f3 <transparent_crc>
   19824:	8b 05 22 6f 00 00    	mov    0x6f22(%rip),%eax        # 2074c <g_2848>
   1982a:	89 c1                	mov    %eax,%ecx
   1982c:	8b 45 fc             	mov    -0x4(%rbp),%eax
   1982f:	89 c2                	mov    %eax,%edx
   19831:	48 8d 35 40 3a 00 00 	lea    0x3a40(%rip),%rsi        # 1d278 <g_2872+0x31f8>
   19838:	48 89 cf             	mov    %rcx,%rdi
   1983b:	e8 b3 de fe ff       	callq  76f3 <transparent_crc>
   19840:	b8 87 94 74 23       	mov    $0x23749487,%eax
   19845:	48 98                	cltq   
   19847:	8b 55 fc             	mov    -0x4(%rbp),%edx
   1984a:	48 8d 35 31 3a 00 00 	lea    0x3a31(%rip),%rsi        # 1d282 <g_2872+0x3202>
   19851:	48 89 c7             	mov    %rax,%rdi
   19854:	e8 9a de fe ff       	callq  76f3 <transparent_crc>
   19859:	8b 05 f1 6e 00 00    	mov    0x6ef1(%rip),%eax        # 20750 <g_2932>
   1985f:	48 98                	cltq   
   19861:	8b 55 fc             	mov    -0x4(%rbp),%edx
   19864:	48 8d 35 1e 3a 00 00 	lea    0x3a1e(%rip),%rsi        # 1d289 <g_2872+0x3209>
   1986b:	48 89 c7             	mov    %rax,%rdi
   1986e:	e8 80 de fe ff       	callq  76f3 <transparent_crc>
   19873:	8b 05 db 6e 00 00    	mov    0x6edb(%rip),%eax        # 20754 <g_2947>
   19879:	48 98                	cltq   
   1987b:	8b 55 fc             	mov    -0x4(%rbp),%edx
   1987e:	48 8d 35 0b 3a 00 00 	lea    0x3a0b(%rip),%rsi        # 1d290 <g_2872+0x3210>
   19885:	48 89 c7             	mov    %rax,%rdi
   19888:	e8 66 de fe ff       	callq  76f3 <transparent_crc>
   1988d:	8b 05 c5 6e 00 00    	mov    0x6ec5(%rip),%eax        # 20758 <g_3060>
   19893:	89 c1                	mov    %eax,%ecx
   19895:	8b 45 fc             	mov    -0x4(%rbp),%eax
   19898:	89 c2                	mov    %eax,%edx
   1989a:	48 8d 35 f6 39 00 00 	lea    0x39f6(%rip),%rsi        # 1d297 <g_2872+0x3217>
   198a1:	48 89 cf             	mov    %rcx,%rdi
   198a4:	e8 4a de fe ff       	callq  76f3 <transparent_crc>
   198a9:	8b 05 a9 6e 00 00    	mov    0x6ea9(%rip),%eax        # 20758 <g_3060>
   198af:	89 c1                	mov    %eax,%ecx
   198b1:	8b 45 fc             	mov    -0x4(%rbp),%eax
   198b4:	89 c2                	mov    %eax,%edx
   198b6:	48 8d 35 e4 39 00 00 	lea    0x39e4(%rip),%rsi        # 1d2a1 <g_2872+0x3221>
   198bd:	48 89 cf             	mov    %rcx,%rdi
   198c0:	e8 2e de fe ff       	callq  76f3 <transparent_crc>
   198c5:	48 8b 05 94 6e 00 00 	mov    0x6e94(%rip),%rax        # 20760 <g_3095>
   198cc:	48 89 c1             	mov    %rax,%rcx
   198cf:	8b 45 fc             	mov    -0x4(%rbp),%eax
   198d2:	89 c2                	mov    %eax,%edx
   198d4:	48 8d 35 d0 39 00 00 	lea    0x39d0(%rip),%rsi        # 1d2ab <g_2872+0x322b>
   198db:	48 89 cf             	mov    %rcx,%rdi
   198de:	e8 10 de fe ff       	callq  76f3 <transparent_crc>
   198e3:	0f b7 05 7e 6e 00 00 	movzwl 0x6e7e(%rip),%eax        # 20768 <g_3195>
   198ea:	0f b7 c0             	movzwl %ax,%eax
   198ed:	8b 55 fc             	mov    -0x4(%rbp),%edx
   198f0:	48 8d 35 bb 39 00 00 	lea    0x39bb(%rip),%rsi        # 1d2b2 <g_2872+0x3232>
   198f7:	48 89 c7             	mov    %rax,%rdi
   198fa:	e8 f4 dd fe ff       	callq  76f3 <transparent_crc>
   198ff:	8b 05 67 6e 00 00    	mov    0x6e67(%rip),%eax        # 2076c <g_3267>
   19905:	89 c1                	mov    %eax,%ecx
   19907:	8b 45 fc             	mov    -0x4(%rbp),%eax
   1990a:	89 c2                	mov    %eax,%edx
   1990c:	48 8d 35 a6 39 00 00 	lea    0x39a6(%rip),%rsi        # 1d2b9 <g_2872+0x3239>
   19913:	48 89 cf             	mov    %rcx,%rdi
   19916:	e8 d8 dd fe ff       	callq  76f3 <transparent_crc>
   1991b:	8b 05 4b 6e 00 00    	mov    0x6e4b(%rip),%eax        # 2076c <g_3267>
   19921:	89 c1                	mov    %eax,%ecx
   19923:	8b 45 fc             	mov    -0x4(%rbp),%eax
   19926:	89 c2                	mov    %eax,%edx
   19928:	48 8d 35 94 39 00 00 	lea    0x3994(%rip),%rsi        # 1d2c3 <g_2872+0x3243>
   1992f:	48 89 cf             	mov    %rcx,%rdi
   19932:	e8 bc dd fe ff       	callq  76f3 <transparent_crc>
   19937:	8b 05 33 6e 00 00    	mov    0x6e33(%rip),%eax        # 20770 <g_3368>
   1993d:	89 c1                	mov    %eax,%ecx
   1993f:	8b 45 fc             	mov    -0x4(%rbp),%eax
   19942:	89 c2                	mov    %eax,%edx
   19944:	48 8d 35 82 39 00 00 	lea    0x3982(%rip),%rsi        # 1d2cd <g_2872+0x324d>
   1994b:	48 89 cf             	mov    %rcx,%rdi
   1994e:	e8 a0 dd fe ff       	callq  76f3 <transparent_crc>
   19953:	8b 05 17 6e 00 00    	mov    0x6e17(%rip),%eax        # 20770 <g_3368>
   19959:	89 c1                	mov    %eax,%ecx
   1995b:	8b 45 fc             	mov    -0x4(%rbp),%eax
   1995e:	89 c2                	mov    %eax,%edx
   19960:	48 8d 35 70 39 00 00 	lea    0x3970(%rip),%rsi        # 1d2d7 <g_2872+0x3257>
   19967:	48 89 cf             	mov    %rcx,%rdi
   1996a:	e8 84 dd fe ff       	callq  76f3 <transparent_crc>
   1996f:	c7 45 f0 00 00 00 00 	movl   $0x0,-0x10(%rbp)
   19976:	eb 49                	jmp    199c1 <main+0x1147>
   19978:	8b 45 f0             	mov    -0x10(%rbp),%eax
   1997b:	48 98                	cltq   
   1997d:	48 8d 14 00          	lea    (%rax,%rax,1),%rdx
   19981:	48 8d 05 ec 6d 00 00 	lea    0x6dec(%rip),%rax        # 20774 <g_3409>
   19988:	0f b7 04 02          	movzwl (%rdx,%rax,1),%eax
   1998c:	0f b7 c0             	movzwl %ax,%eax
   1998f:	8b 55 fc             	mov    -0x4(%rbp),%edx
   19992:	48 8d 35 48 39 00 00 	lea    0x3948(%rip),%rsi        # 1d2e1 <g_2872+0x3261>
   19999:	48 89 c7             	mov    %rax,%rdi
   1999c:	e8 52 dd fe ff       	callq  76f3 <transparent_crc>
   199a1:	83 7d fc 00          	cmpl   $0x0,-0x4(%rbp)
   199a5:	74 16                	je     199bd <main+0x1143>
   199a7:	8b 45 f0             	mov    -0x10(%rbp),%eax
   199aa:	89 c6                	mov    %eax,%esi
   199ac:	48 8d 3d 96 35 00 00 	lea    0x3596(%rip),%rdi        # 1cf49 <g_2872+0x2ec9>
   199b3:	b8 00 00 00 00       	mov    $0x0,%eax
   199b8:	e8 c3 c6 fe ff       	callq  6080 <printf@plt>
   199bd:	83 45 f0 01          	addl   $0x1,-0x10(%rbp)
   199c1:	83 7d f0 00          	cmpl   $0x0,-0x10(%rbp)
   199c5:	7e b1                	jle    19978 <main+0x10fe>
   199c7:	48 8b 05 aa 6d 00 00 	mov    0x6daa(%rip),%rax        # 20778 <g_3483>
   199ce:	48 89 c1             	mov    %rax,%rcx
   199d1:	8b 45 fc             	mov    -0x4(%rbp),%eax
   199d4:	89 c2                	mov    %eax,%edx
   199d6:	48 8d 35 0e 39 00 00 	lea    0x390e(%rip),%rsi        # 1d2eb <g_2872+0x326b>
   199dd:	48 89 cf             	mov    %rcx,%rdi
   199e0:	e8 0e dd fe ff       	callq  76f3 <transparent_crc>
   199e5:	c7 45 f0 00 00 00 00 	movl   $0x0,-0x10(%rbp)
   199ec:	eb 73                	jmp    19a61 <main+0x11e7>
   199ee:	c7 45 f4 00 00 00 00 	movl   $0x0,-0xc(%rbp)
   199f5:	eb 60                	jmp    19a57 <main+0x11dd>
   199f7:	8b 45 f4             	mov    -0xc(%rbp),%eax
   199fa:	48 63 c8             	movslq %eax,%rcx
   199fd:	8b 45 f0             	mov    -0x10(%rbp),%eax
   19a00:	48 63 d0             	movslq %eax,%rdx
   19a03:	48 89 d0             	mov    %rdx,%rax
   19a06:	48 c1 e0 02          	shl    $0x2,%rax
   19a0a:	48 01 d0             	add    %rdx,%rax
   19a0d:	48 01 c8             	add    %rcx,%rax
   19a10:	48 8d 14 00          	lea    (%rax,%rax,1),%rdx
   19a14:	48 8d 05 65 6d 00 00 	lea    0x6d65(%rip),%rax        # 20780 <g_3514>
   19a1b:	0f b7 04 02          	movzwl (%rdx,%rax,1),%eax
   19a1f:	0f b7 c0             	movzwl %ax,%eax
   19a22:	8b 55 fc             	mov    -0x4(%rbp),%edx
   19a25:	48 8d 35 c6 38 00 00 	lea    0x38c6(%rip),%rsi        # 1d2f2 <g_2872+0x3272>
   19a2c:	48 89 c7             	mov    %rax,%rdi
   19a2f:	e8 bf dc fe ff       	callq  76f3 <transparent_crc>
   19a34:	83 7d fc 00          	cmpl   $0x0,-0x4(%rbp)
   19a38:	74 19                	je     19a53 <main+0x11d9>
   19a3a:	8b 55 f4             	mov    -0xc(%rbp),%edx
   19a3d:	8b 45 f0             	mov    -0x10(%rbp),%eax
   19a40:	89 c6                	mov    %eax,%esi
   19a42:	48 8d 3d 1c 35 00 00 	lea    0x351c(%rip),%rdi        # 1cf65 <g_2872+0x2ee5>
   19a49:	b8 00 00 00 00       	mov    $0x0,%eax
   19a4e:	e8 2d c6 fe ff       	callq  6080 <printf@plt>
   19a53:	83 45 f4 01          	addl   $0x1,-0xc(%rbp)
   19a57:	83 7d f4 04          	cmpl   $0x4,-0xc(%rbp)
   19a5b:	7e 9a                	jle    199f7 <main+0x117d>
   19a5d:	83 45 f0 01          	addl   $0x1,-0x10(%rbp)
   19a61:	83 7d f0 06          	cmpl   $0x6,-0x10(%rbp)
   19a65:	7e 87                	jle    199ee <main+0x1174>
   19a67:	c7 45 f0 00 00 00 00 	movl   $0x0,-0x10(%rbp)
   19a6e:	eb 7a                	jmp    19aea <main+0x1270>
   19a70:	8b 45 f0             	mov    -0x10(%rbp),%eax
   19a73:	48 98                	cltq   
   19a75:	48 8d 14 85 00 00 00 	lea    0x0(,%rax,4),%rdx
   19a7c:	00 
   19a7d:	48 8d 05 4c 6d 00 00 	lea    0x6d4c(%rip),%rax        # 207d0 <g_3549>
   19a84:	8b 04 02             	mov    (%rdx,%rax,1),%eax
   19a87:	89 c1                	mov    %eax,%ecx
   19a89:	8b 45 fc             	mov    -0x4(%rbp),%eax
   19a8c:	89 c2                	mov    %eax,%edx
   19a8e:	48 8d 35 6a 38 00 00 	lea    0x386a(%rip),%rsi        # 1d2ff <g_2872+0x327f>
   19a95:	48 89 cf             	mov    %rcx,%rdi
   19a98:	e8 56 dc fe ff       	callq  76f3 <transparent_crc>
   19a9d:	8b 45 f0             	mov    -0x10(%rbp),%eax
   19aa0:	48 98                	cltq   
   19aa2:	48 8d 14 85 00 00 00 	lea    0x0(,%rax,4),%rdx
   19aa9:	00 
   19aaa:	48 8d 05 1f 6d 00 00 	lea    0x6d1f(%rip),%rax        # 207d0 <g_3549>
   19ab1:	8b 04 02             	mov    (%rdx,%rax,1),%eax
   19ab4:	89 c1                	mov    %eax,%ecx
   19ab6:	8b 45 fc             	mov    -0x4(%rbp),%eax
   19ab9:	89 c2                	mov    %eax,%edx
   19abb:	48 8d 35 4a 38 00 00 	lea    0x384a(%rip),%rsi        # 1d30c <g_2872+0x328c>
   19ac2:	48 89 cf             	mov    %rcx,%rdi
   19ac5:	e8 29 dc fe ff       	callq  76f3 <transparent_crc>
   19aca:	83 7d fc 00          	cmpl   $0x0,-0x4(%rbp)
   19ace:	74 16                	je     19ae6 <main+0x126c>
   19ad0:	8b 45 f0             	mov    -0x10(%rbp),%eax
   19ad3:	89 c6                	mov    %eax,%esi
   19ad5:	48 8d 3d 6d 34 00 00 	lea    0x346d(%rip),%rdi        # 1cf49 <g_2872+0x2ec9>
   19adc:	b8 00 00 00 00       	mov    $0x0,%eax
   19ae1:	e8 9a c5 fe ff       	callq  6080 <printf@plt>
   19ae6:	83 45 f0 01          	addl   $0x1,-0x10(%rbp)
   19aea:	83 7d f0 06          	cmpl   $0x6,-0x10(%rbp)
   19aee:	7e 80                	jle    19a70 <main+0x11f6>
   19af0:	8b 05 f6 6c 00 00    	mov    0x6cf6(%rip),%eax        # 207ec <g_3556>
   19af6:	89 c1                	mov    %eax,%ecx
   19af8:	8b 45 fc             	mov    -0x4(%rbp),%eax
   19afb:	89 c2                	mov    %eax,%edx
   19afd:	48 8d 35 15 38 00 00 	lea    0x3815(%rip),%rsi        # 1d319 <g_2872+0x3299>
   19b04:	48 89 cf             	mov    %rcx,%rdi
   19b07:	e8 e7 db fe ff       	callq  76f3 <transparent_crc>
   19b0c:	8b 05 da 6c 00 00    	mov    0x6cda(%rip),%eax        # 207ec <g_3556>
   19b12:	89 c1                	mov    %eax,%ecx
   19b14:	8b 45 fc             	mov    -0x4(%rbp),%eax
   19b17:	89 c2                	mov    %eax,%edx
   19b19:	48 8d 35 03 38 00 00 	lea    0x3803(%rip),%rsi        # 1d323 <g_2872+0x32a3>
   19b20:	48 89 cf             	mov    %rcx,%rdi
   19b23:	e8 cb db fe ff       	callq  76f3 <transparent_crc>
   19b28:	8b 05 c2 6c 00 00    	mov    0x6cc2(%rip),%eax        # 207f0 <g_3576>
   19b2e:	89 c1                	mov    %eax,%ecx
   19b30:	8b 45 fc             	mov    -0x4(%rbp),%eax
   19b33:	89 c2                	mov    %eax,%edx
   19b35:	48 8d 35 f1 37 00 00 	lea    0x37f1(%rip),%rsi        # 1d32d <g_2872+0x32ad>
   19b3c:	48 89 cf             	mov    %rcx,%rdi
   19b3f:	e8 af db fe ff       	callq  76f3 <transparent_crc>
   19b44:	8b 05 a6 6c 00 00    	mov    0x6ca6(%rip),%eax        # 207f0 <g_3576>
   19b4a:	89 c1                	mov    %eax,%ecx
   19b4c:	8b 45 fc             	mov    -0x4(%rbp),%eax
   19b4f:	89 c2                	mov    %eax,%edx
   19b51:	48 8d 35 df 37 00 00 	lea    0x37df(%rip),%rsi        # 1d337 <g_2872+0x32b7>
   19b58:	48 89 cf             	mov    %rcx,%rdi
   19b5b:	e8 93 db fe ff       	callq  76f3 <transparent_crc>
   19b60:	8b 05 ba 8e 00 00    	mov    0x8eba(%rip),%eax        # 22a20 <g_3581>
   19b66:	89 c1                	mov    %eax,%ecx
   19b68:	8b 45 fc             	mov    -0x4(%rbp),%eax
   19b6b:	89 c2                	mov    %eax,%edx
   19b6d:	48 8d 35 cd 37 00 00 	lea    0x37cd(%rip),%rsi        # 1d341 <g_2872+0x32c1>
   19b74:	48 89 cf             	mov    %rcx,%rdi
   19b77:	e8 77 db fe ff       	callq  76f3 <transparent_crc>
   19b7c:	8b 05 72 6c 00 00    	mov    0x6c72(%rip),%eax        # 207f4 <g_3582>
   19b82:	89 c1                	mov    %eax,%ecx
   19b84:	8b 45 fc             	mov    -0x4(%rbp),%eax
   19b87:	89 c2                	mov    %eax,%edx
   19b89:	48 8d 35 b8 37 00 00 	lea    0x37b8(%rip),%rsi        # 1d348 <g_2872+0x32c8>
   19b90:	48 89 cf             	mov    %rcx,%rdi
   19b93:	e8 5b db fe ff       	callq  76f3 <transparent_crc>
   19b98:	8b 05 5a 6c 00 00    	mov    0x6c5a(%rip),%eax        # 207f8 <g_3599>
   19b9e:	89 c1                	mov    %eax,%ecx
   19ba0:	8b 45 fc             	mov    -0x4(%rbp),%eax
   19ba3:	89 c2                	mov    %eax,%edx
   19ba5:	48 8d 35 a3 37 00 00 	lea    0x37a3(%rip),%rsi        # 1d34f <g_2872+0x32cf>
   19bac:	48 89 cf             	mov    %rcx,%rdi
   19baf:	e8 3f db fe ff       	callq  76f3 <transparent_crc>
   19bb4:	8b 05 3e 6c 00 00    	mov    0x6c3e(%rip),%eax        # 207f8 <g_3599>
   19bba:	89 c1                	mov    %eax,%ecx
   19bbc:	8b 45 fc             	mov    -0x4(%rbp),%eax
   19bbf:	89 c2                	mov    %eax,%edx
   19bc1:	48 8d 35 91 37 00 00 	lea    0x3791(%rip),%rsi        # 1d359 <g_2872+0x32d9>
   19bc8:	48 89 cf             	mov    %rcx,%rdi
   19bcb:	e8 23 db fe ff       	callq  76f3 <transparent_crc>
   19bd0:	8b 05 26 6c 00 00    	mov    0x6c26(%rip),%eax        # 207fc <g_3621>
   19bd6:	89 c1                	mov    %eax,%ecx
   19bd8:	8b 45 fc             	mov    -0x4(%rbp),%eax
   19bdb:	89 c2                	mov    %eax,%edx
   19bdd:	48 8d 35 7f 37 00 00 	lea    0x377f(%rip),%rsi        # 1d363 <g_2872+0x32e3>
   19be4:	48 89 cf             	mov    %rcx,%rdi
   19be7:	e8 07 db fe ff       	callq  76f3 <transparent_crc>
   19bec:	8b 05 0a 6c 00 00    	mov    0x6c0a(%rip),%eax        # 207fc <g_3621>
   19bf2:	89 c1                	mov    %eax,%ecx
   19bf4:	8b 45 fc             	mov    -0x4(%rbp),%eax
   19bf7:	89 c2                	mov    %eax,%edx
   19bf9:	48 8d 35 6d 37 00 00 	lea    0x376d(%rip),%rsi        # 1d36d <g_2872+0x32ed>
   19c00:	48 89 cf             	mov    %rcx,%rdi
   19c03:	e8 eb da fe ff       	callq  76f3 <transparent_crc>
   19c08:	0f b6 05 f1 6b 00 00 	movzbl 0x6bf1(%rip),%eax        # 20800 <g_3654>
   19c0f:	48 0f be c0          	movsbq %al,%rax
   19c13:	8b 55 fc             	mov    -0x4(%rbp),%edx
   19c16:	48 8d 35 5a 37 00 00 	lea    0x375a(%rip),%rsi        # 1d377 <g_2872+0x32f7>
   19c1d:	48 89 c7             	mov    %rax,%rdi
   19c20:	e8 ce da fe ff       	callq  76f3 <transparent_crc>
   19c25:	8b 05 d9 6b 00 00    	mov    0x6bd9(%rip),%eax        # 20804 <g_3674>
   19c2b:	89 c1                	mov    %eax,%ecx
   19c2d:	8b 45 fc             	mov    -0x4(%rbp),%eax
   19c30:	89 c2                	mov    %eax,%edx
   19c32:	48 8d 35 45 37 00 00 	lea    0x3745(%rip),%rsi        # 1d37e <g_2872+0x32fe>
   19c39:	48 89 cf             	mov    %rcx,%rdi
   19c3c:	e8 b2 da fe ff       	callq  76f3 <transparent_crc>
   19c41:	8b 05 bd 6b 00 00    	mov    0x6bbd(%rip),%eax        # 20804 <g_3674>
   19c47:	89 c1                	mov    %eax,%ecx
   19c49:	8b 45 fc             	mov    -0x4(%rbp),%eax
   19c4c:	89 c2                	mov    %eax,%edx
   19c4e:	48 8d 35 33 37 00 00 	lea    0x3733(%rip),%rsi        # 1d388 <g_2872+0x3308>
   19c55:	48 89 cf             	mov    %rcx,%rdi
   19c58:	e8 96 da fe ff       	callq  76f3 <transparent_crc>
   19c5d:	48 8b 05 a4 6b 00 00 	mov    0x6ba4(%rip),%rax        # 20808 <g_3772>
   19c64:	8b 55 fc             	mov    -0x4(%rbp),%edx
   19c67:	48 8d 35 24 37 00 00 	lea    0x3724(%rip),%rsi        # 1d392 <g_2872+0x3312>
   19c6e:	48 89 c7             	mov    %rax,%rdi
   19c71:	e8 7d da fe ff       	callq  76f3 <transparent_crc>
   19c76:	8b 05 a4 63 00 00    	mov    0x63a4(%rip),%eax        # 20020 <crc32_context>
   19c7c:	f7 d0                	not    %eax
   19c7e:	89 c2                	mov    %eax,%edx
   19c80:	8b 45 fc             	mov    -0x4(%rbp),%eax
   19c83:	89 c6                	mov    %eax,%esi
   19c85:	89 d7                	mov    %edx,%edi
   19c87:	e8 08 c5 fe ff       	callq  6194 <platform_main_end>
   19c8c:	b8 00 00 00 00       	mov    $0x0,%eax
   19c91:	c9                   	leaveq 
   19c92:	c3                   	retq   
   19c93:	66 2e 0f 1f 84 00 00 	nopw   %cs:0x0(%rax,%rax,1)
   19c9a:	00 00 00 
   19c9d:	0f 1f 00             	nopl   (%rax)

0000000000019ca0 <__libc_csu_init>:
   19ca0:	f3 0f 1e fa          	endbr64 
   19ca4:	41 57                	push   %r15
   19ca6:	4c 8d 3d f3 60 00 00 	lea    0x60f3(%rip),%r15        # 1fda0 <__frame_dummy_init_array_entry>
   19cad:	41 56                	push   %r14
   19caf:	49 89 d6             	mov    %rdx,%r14
   19cb2:	41 55                	push   %r13
   19cb4:	49 89 f5             	mov    %rsi,%r13
   19cb7:	41 54                	push   %r12
   19cb9:	41 89 fc             	mov    %edi,%r12d
   19cbc:	55                   	push   %rbp
   19cbd:	48 8d 2d e4 60 00 00 	lea    0x60e4(%rip),%rbp        # 1fda8 <__do_global_dtors_aux_fini_array_entry>
   19cc4:	53                   	push   %rbx
   19cc5:	4c 29 fd             	sub    %r15,%rbp
   19cc8:	48 83 ec 08          	sub    $0x8,%rsp
   19ccc:	e8 2f c3 fe ff       	callq  6000 <_init>
   19cd1:	48 c1 fd 03          	sar    $0x3,%rbp
   19cd5:	74 1f                	je     19cf6 <__libc_csu_init+0x56>
   19cd7:	31 db                	xor    %ebx,%ebx
   19cd9:	0f 1f 80 00 00 00 00 	nopl   0x0(%rax)
   19ce0:	4c 89 f2             	mov    %r14,%rdx
   19ce3:	4c 89 ee             	mov    %r13,%rsi
   19ce6:	44 89 e7             	mov    %r12d,%edi
   19ce9:	41 ff 14 df          	callq  *(%r15,%rbx,8)
   19ced:	48 83 c3 01          	add    $0x1,%rbx
   19cf1:	48 39 dd             	cmp    %rbx,%rbp
   19cf4:	75 ea                	jne    19ce0 <__libc_csu_init+0x40>
   19cf6:	48 83 c4 08          	add    $0x8,%rsp
   19cfa:	5b                   	pop    %rbx
   19cfb:	5d                   	pop    %rbp
   19cfc:	41 5c                	pop    %r12
   19cfe:	41 5d                	pop    %r13
   19d00:	41 5e                	pop    %r14
   19d02:	41 5f                	pop    %r15
   19d04:	c3                   	retq   
   19d05:	66 66 2e 0f 1f 84 00 	data16 nopw %cs:0x0(%rax,%rax,1)
   19d0c:	00 00 00 00 

0000000000019d10 <__libc_csu_fini>:
   19d10:	f3 0f 1e fa          	endbr64 
   19d14:	c3                   	retq   
