


Disassembly of section .text:

00000000000060a0 <_start>:
    60a0:	f3 0f 1e fa          	endbr64 
    60a4:	31 ed                	xor    %ebp,%ebp
    60a6:	49 89 d1             	mov    %rdx,%r9
    60a9:	5e                   	pop    %rsi
    60aa:	48 89 e2             	mov    %rsp,%rdx
    60ad:	48 83 e4 f0          	and    $0xfffffffffffffff0,%rsp
    60b1:	50                   	push   %rax
    60b2:	54                   	push   %rsp
    60b3:	4c 8d 05 26 b0 00 00 	lea    0xb026(%rip),%r8        # 110e0 <__libc_csu_fini>
    60ba:	48 8d 0d af af 00 00 	lea    0xafaf(%rip),%rcx        # 11070 <__libc_csu_init>
    60c1:	48 8d 3d d6 a1 00 00 	lea    0xa1d6(%rip),%rdi        # 1029e <main>
    60c8:	ff 15 12 0f 01 00    	callq  *0x10f12(%rip)        # 16fe0 <__libc_start_main@GLIBC_2.2.5>
    60ce:	f4                   	hlt    
    60cf:	90                   	nop

00000000000060d0 <deregister_tm_clones>:
    60d0:	48 8d 3d c9 3a 01 00 	lea    0x13ac9(%rip),%rdi        # 19ba0 <__TMC_END__>
    60d7:	48 8d 05 c2 3a 01 00 	lea    0x13ac2(%rip),%rax        # 19ba0 <__TMC_END__>
    60de:	48 39 f8             	cmp    %rdi,%rax
    60e1:	74 15                	je     60f8 <deregister_tm_clones+0x28>
    60e3:	48 8b 05 ee 0e 01 00 	mov    0x10eee(%rip),%rax        # 16fd8 <_ITM_deregisterTMCloneTable>
    60ea:	48 85 c0             	test   %rax,%rax
    60ed:	74 09                	je     60f8 <deregister_tm_clones+0x28>
    60ef:	ff e0                	jmpq   *%rax
    60f1:	0f 1f 80 00 00 00 00 	nopl   0x0(%rax)
    60f8:	c3                   	retq   
    60f9:	0f 1f 80 00 00 00 00 	nopl   0x0(%rax)

0000000000006100 <register_tm_clones>:
    6100:	48 8d 3d 99 3a 01 00 	lea    0x13a99(%rip),%rdi        # 19ba0 <__TMC_END__>
    6107:	48 8d 35 92 3a 01 00 	lea    0x13a92(%rip),%rsi        # 19ba0 <__TMC_END__>
    610e:	48 29 fe             	sub    %rdi,%rsi
    6111:	48 89 f0             	mov    %rsi,%rax
    6114:	48 c1 ee 3f          	shr    $0x3f,%rsi
    6118:	48 c1 f8 03          	sar    $0x3,%rax
    611c:	48 01 c6             	add    %rax,%rsi
    611f:	48 d1 fe             	sar    %rsi
    6122:	74 14                	je     6138 <register_tm_clones+0x38>
    6124:	48 8b 05 c5 0e 01 00 	mov    0x10ec5(%rip),%rax        # 16ff0 <_ITM_registerTMCloneTable>
    612b:	48 85 c0             	test   %rax,%rax
    612e:	74 08                	je     6138 <register_tm_clones+0x38>
    6130:	ff e0                	jmpq   *%rax
    6132:	66 0f 1f 44 00 00    	nopw   0x0(%rax,%rax,1)
    6138:	c3                   	retq   
    6139:	0f 1f 80 00 00 00 00 	nopl   0x0(%rax)

0000000000006140 <__do_global_dtors_aux>:
    6140:	f3 0f 1e fa          	endbr64 
    6144:	80 3d 55 3a 01 00 00 	cmpb   $0x0,0x13a55(%rip)        # 19ba0 <__TMC_END__>
    614b:	75 2b                	jne    6178 <__do_global_dtors_aux+0x38>
    614d:	55                   	push   %rbp
    614e:	48 83 3d a2 0e 01 00 	cmpq   $0x0,0x10ea2(%rip)        # 16ff8 <__cxa_finalize@GLIBC_2.2.5>
    6155:	00 
    6156:	48 89 e5             	mov    %rsp,%rbp
    6159:	74 0c                	je     6167 <__do_global_dtors_aux+0x27>
    615b:	48 8b 3d a6 0e 01 00 	mov    0x10ea6(%rip),%rdi        # 17008 <__dso_handle>
    6162:	e8 f9 fe ff ff       	callq  6060 <__cxa_finalize@plt>
    6167:	e8 64 ff ff ff       	callq  60d0 <deregister_tm_clones>
    616c:	c6 05 2d 3a 01 00 01 	movb   $0x1,0x13a2d(%rip)        # 19ba0 <__TMC_END__>
    6173:	5d                   	pop    %rbp
    6174:	c3                   	retq   
    6175:	0f 1f 00             	nopl   (%rax)
    6178:	c3                   	retq   
    6179:	0f 1f 80 00 00 00 00 	nopl   0x0(%rax)

0000000000006180 <frame_dummy>:
    6180:	f3 0f 1e fa          	endbr64 
    6184:	e9 77 ff ff ff       	jmpq   6100 <register_tm_clones>

0000000000006189 <platform_main_begin>:
    6189:	f3 0f 1e fa          	endbr64 
    618d:	55                   	push   %rbp
    618e:	48 89 e5             	mov    %rsp,%rbp
    6191:	90                   	nop
    6192:	5d                   	pop    %rbp
    6193:	c3                   	retq   

0000000000006194 <platform_main_end>:
    6194:	f3 0f 1e fa          	endbr64 
    6198:	55                   	push   %rbp
    6199:	48 89 e5             	mov    %rsp,%rbp
    619c:	48 83 ec 10          	sub    $0x10,%rsp
    61a0:	89 7d fc             	mov    %edi,-0x4(%rbp)
    61a3:	89 75 f8             	mov    %esi,-0x8(%rbp)
    61a6:	8b 45 fc             	mov    -0x4(%rbp),%eax
    61a9:	89 c6                	mov    %eax,%esi
    61ab:	48 8d 3d 6e be 00 00 	lea    0xbe6e(%rip),%rdi        # 12020 <_IO_stdin_used+0x20>
    61b2:	b8 00 00 00 00       	mov    $0x0,%eax
    61b7:	e8 c4 fe ff ff       	callq  6080 <printf@plt>
    61bc:	90                   	nop
    61bd:	c9                   	leaveq 
    61be:	c3                   	retq   

00000000000061bf <safe_unary_minus_func_int8_t_s>:
    61bf:	f3 0f 1e fa          	endbr64 
    61c3:	55                   	push   %rbp
    61c4:	48 89 e5             	mov    %rsp,%rbp
    61c7:	89 f8                	mov    %edi,%eax
    61c9:	88 45 fc             	mov    %al,-0x4(%rbp)
    61cc:	0f b6 45 fc          	movzbl -0x4(%rbp),%eax
    61d0:	f7 d8                	neg    %eax
    61d2:	5d                   	pop    %rbp
    61d3:	c3                   	retq   

00000000000061d4 <safe_add_func_int8_t_s_s>:
    61d4:	f3 0f 1e fa          	endbr64 
    61d8:	55                   	push   %rbp
    61d9:	48 89 e5             	mov    %rsp,%rbp
    61dc:	89 fa                	mov    %edi,%edx
    61de:	89 f0                	mov    %esi,%eax
    61e0:	88 55 fc             	mov    %dl,-0x4(%rbp)
    61e3:	88 45 f8             	mov    %al,-0x8(%rbp)
    61e6:	0f b6 55 fc          	movzbl -0x4(%rbp),%edx
    61ea:	0f b6 45 f8          	movzbl -0x8(%rbp),%eax
    61ee:	01 d0                	add    %edx,%eax
    61f0:	5d                   	pop    %rbp
    61f1:	c3                   	retq   

00000000000061f2 <safe_sub_func_int8_t_s_s>:
    61f2:	f3 0f 1e fa          	endbr64 
    61f6:	55                   	push   %rbp
    61f7:	48 89 e5             	mov    %rsp,%rbp
    61fa:	89 fa                	mov    %edi,%edx
    61fc:	89 f0                	mov    %esi,%eax
    61fe:	88 55 fc             	mov    %dl,-0x4(%rbp)
    6201:	88 45 f8             	mov    %al,-0x8(%rbp)
    6204:	0f b6 55 fc          	movzbl -0x4(%rbp),%edx
    6208:	0f b6 45 f8          	movzbl -0x8(%rbp),%eax
    620c:	29 c2                	sub    %eax,%edx
    620e:	89 d0                	mov    %edx,%eax
    6210:	5d                   	pop    %rbp
    6211:	c3                   	retq   

0000000000006212 <safe_mul_func_int8_t_s_s>:
    6212:	f3 0f 1e fa          	endbr64 
    6216:	55                   	push   %rbp
    6217:	48 89 e5             	mov    %rsp,%rbp
    621a:	89 fa                	mov    %edi,%edx
    621c:	89 f0                	mov    %esi,%eax
    621e:	88 55 fc             	mov    %dl,-0x4(%rbp)
    6221:	88 45 f8             	mov    %al,-0x8(%rbp)
    6224:	0f b6 45 fc          	movzbl -0x4(%rbp),%eax
    6228:	0f b6 55 f8          	movzbl -0x8(%rbp),%edx
    622c:	0f af c2             	imul   %edx,%eax
    622f:	5d                   	pop    %rbp
    6230:	c3                   	retq   

0000000000006231 <safe_mod_func_int8_t_s_s>:
    6231:	f3 0f 1e fa          	endbr64 
    6235:	55                   	push   %rbp
    6236:	48 89 e5             	mov    %rsp,%rbp
    6239:	89 fa                	mov    %edi,%edx
    623b:	89 f0                	mov    %esi,%eax
    623d:	88 55 fc             	mov    %dl,-0x4(%rbp)
    6240:	88 45 f8             	mov    %al,-0x8(%rbp)
    6243:	80 7d f8 00          	cmpb   $0x0,-0x8(%rbp)
    6247:	74 1b                	je     6264 <safe_mod_func_int8_t_s_s+0x33>
    6249:	80 7d fc 80          	cmpb   $0x80,-0x4(%rbp)
    624d:	75 06                	jne    6255 <safe_mod_func_int8_t_s_s+0x24>
    624f:	80 7d f8 ff          	cmpb   $0xff,-0x8(%rbp)
    6253:	74 0f                	je     6264 <safe_mod_func_int8_t_s_s+0x33>
    6255:	0f be 45 fc          	movsbl -0x4(%rbp),%eax
    6259:	0f be 4d f8          	movsbl -0x8(%rbp),%ecx
    625d:	99                   	cltd   
    625e:	f7 f9                	idiv   %ecx
    6260:	89 d0                	mov    %edx,%eax
    6262:	eb 04                	jmp    6268 <safe_mod_func_int8_t_s_s+0x37>
    6264:	0f b6 45 fc          	movzbl -0x4(%rbp),%eax
    6268:	5d                   	pop    %rbp
    6269:	c3                   	retq   

000000000000626a <safe_div_func_int8_t_s_s>:
    626a:	f3 0f 1e fa          	endbr64 
    626e:	55                   	push   %rbp
    626f:	48 89 e5             	mov    %rsp,%rbp
    6272:	89 fa                	mov    %edi,%edx
    6274:	89 f0                	mov    %esi,%eax
    6276:	88 55 fc             	mov    %dl,-0x4(%rbp)
    6279:	88 45 f8             	mov    %al,-0x8(%rbp)
    627c:	80 7d f8 00          	cmpb   $0x0,-0x8(%rbp)
    6280:	74 19                	je     629b <safe_div_func_int8_t_s_s+0x31>
    6282:	80 7d fc 80          	cmpb   $0x80,-0x4(%rbp)
    6286:	75 06                	jne    628e <safe_div_func_int8_t_s_s+0x24>
    6288:	80 7d f8 ff          	cmpb   $0xff,-0x8(%rbp)
    628c:	74 0d                	je     629b <safe_div_func_int8_t_s_s+0x31>
    628e:	0f be 45 fc          	movsbl -0x4(%rbp),%eax
    6292:	0f be 4d f8          	movsbl -0x8(%rbp),%ecx
    6296:	99                   	cltd   
    6297:	f7 f9                	idiv   %ecx
    6299:	eb 04                	jmp    629f <safe_div_func_int8_t_s_s+0x35>
    629b:	0f b6 45 fc          	movzbl -0x4(%rbp),%eax
    629f:	5d                   	pop    %rbp
    62a0:	c3                   	retq   

00000000000062a1 <safe_lshift_func_int8_t_s_s>:
    62a1:	f3 0f 1e fa          	endbr64 
    62a5:	55                   	push   %rbp
    62a6:	48 89 e5             	mov    %rsp,%rbp
    62a9:	89 f8                	mov    %edi,%eax
    62ab:	89 75 f8             	mov    %esi,-0x8(%rbp)
    62ae:	88 45 fc             	mov    %al,-0x4(%rbp)
    62b1:	80 7d fc 00          	cmpb   $0x0,-0x4(%rbp)
    62b5:	78 31                	js     62e8 <safe_lshift_func_int8_t_s_s+0x47>
    62b7:	83 7d f8 00          	cmpl   $0x0,-0x8(%rbp)
    62bb:	78 2b                	js     62e8 <safe_lshift_func_int8_t_s_s+0x47>
    62bd:	83 7d f8 1f          	cmpl   $0x1f,-0x8(%rbp)
    62c1:	7f 25                	jg     62e8 <safe_lshift_func_int8_t_s_s+0x47>
    62c3:	0f be 55 fc          	movsbl -0x4(%rbp),%edx
    62c7:	8b 45 f8             	mov    -0x8(%rbp),%eax
    62ca:	be 7f 00 00 00       	mov    $0x7f,%esi
    62cf:	89 c1                	mov    %eax,%ecx
    62d1:	d3 fe                	sar    %cl,%esi
    62d3:	89 f0                	mov    %esi,%eax
    62d5:	39 c2                	cmp    %eax,%edx
    62d7:	7f 0f                	jg     62e8 <safe_lshift_func_int8_t_s_s+0x47>
    62d9:	0f be 55 fc          	movsbl -0x4(%rbp),%edx
    62dd:	8b 45 f8             	mov    -0x8(%rbp),%eax
    62e0:	89 c1                	mov    %eax,%ecx
    62e2:	d3 e2                	shl    %cl,%edx
    62e4:	89 d0                	mov    %edx,%eax
    62e6:	eb 04                	jmp    62ec <safe_lshift_func_int8_t_s_s+0x4b>
    62e8:	0f b6 45 fc          	movzbl -0x4(%rbp),%eax
    62ec:	5d                   	pop    %rbp
    62ed:	c3                   	retq   

00000000000062ee <safe_lshift_func_int8_t_s_u>:
    62ee:	f3 0f 1e fa          	endbr64 
    62f2:	55                   	push   %rbp
    62f3:	48 89 e5             	mov    %rsp,%rbp
    62f6:	89 f8                	mov    %edi,%eax
    62f8:	89 75 f8             	mov    %esi,-0x8(%rbp)
    62fb:	88 45 fc             	mov    %al,-0x4(%rbp)
    62fe:	80 7d fc 00          	cmpb   $0x0,-0x4(%rbp)
    6302:	78 2b                	js     632f <safe_lshift_func_int8_t_s_u+0x41>
    6304:	83 7d f8 1f          	cmpl   $0x1f,-0x8(%rbp)
    6308:	77 25                	ja     632f <safe_lshift_func_int8_t_s_u+0x41>
    630a:	0f be 55 fc          	movsbl -0x4(%rbp),%edx
    630e:	8b 45 f8             	mov    -0x8(%rbp),%eax
    6311:	be 7f 00 00 00       	mov    $0x7f,%esi
    6316:	89 c1                	mov    %eax,%ecx
    6318:	d3 fe                	sar    %cl,%esi
    631a:	89 f0                	mov    %esi,%eax
    631c:	39 c2                	cmp    %eax,%edx
    631e:	7f 0f                	jg     632f <safe_lshift_func_int8_t_s_u+0x41>
    6320:	0f be 55 fc          	movsbl -0x4(%rbp),%edx
    6324:	8b 45 f8             	mov    -0x8(%rbp),%eax
    6327:	89 c1                	mov    %eax,%ecx
    6329:	d3 e2                	shl    %cl,%edx
    632b:	89 d0                	mov    %edx,%eax
    632d:	eb 04                	jmp    6333 <safe_lshift_func_int8_t_s_u+0x45>
    632f:	0f b6 45 fc          	movzbl -0x4(%rbp),%eax
    6333:	5d                   	pop    %rbp
    6334:	c3                   	retq   

0000000000006335 <safe_rshift_func_int8_t_s_s>:
    6335:	f3 0f 1e fa          	endbr64 
    6339:	55                   	push   %rbp
    633a:	48 89 e5             	mov    %rsp,%rbp
    633d:	89 f8                	mov    %edi,%eax
    633f:	89 75 f8             	mov    %esi,-0x8(%rbp)
    6342:	88 45 fc             	mov    %al,-0x4(%rbp)
    6345:	80 7d fc 00          	cmpb   $0x0,-0x4(%rbp)
    6349:	78 1b                	js     6366 <safe_rshift_func_int8_t_s_s+0x31>
    634b:	83 7d f8 00          	cmpl   $0x0,-0x8(%rbp)
    634f:	78 15                	js     6366 <safe_rshift_func_int8_t_s_s+0x31>
    6351:	83 7d f8 1f          	cmpl   $0x1f,-0x8(%rbp)
    6355:	7f 0f                	jg     6366 <safe_rshift_func_int8_t_s_s+0x31>
    6357:	0f be 55 fc          	movsbl -0x4(%rbp),%edx
    635b:	8b 45 f8             	mov    -0x8(%rbp),%eax
    635e:	89 c1                	mov    %eax,%ecx
    6360:	d3 fa                	sar    %cl,%edx
    6362:	89 d0                	mov    %edx,%eax
    6364:	eb 04                	jmp    636a <safe_rshift_func_int8_t_s_s+0x35>
    6366:	0f b6 45 fc          	movzbl -0x4(%rbp),%eax
    636a:	5d                   	pop    %rbp
    636b:	c3                   	retq   

000000000000636c <safe_rshift_func_int8_t_s_u>:
    636c:	f3 0f 1e fa          	endbr64 
    6370:	55                   	push   %rbp
    6371:	48 89 e5             	mov    %rsp,%rbp
    6374:	89 f8                	mov    %edi,%eax
    6376:	89 75 f8             	mov    %esi,-0x8(%rbp)
    6379:	88 45 fc             	mov    %al,-0x4(%rbp)
    637c:	80 7d fc 00          	cmpb   $0x0,-0x4(%rbp)
    6380:	78 15                	js     6397 <safe_rshift_func_int8_t_s_u+0x2b>
    6382:	83 7d f8 1f          	cmpl   $0x1f,-0x8(%rbp)
    6386:	77 0f                	ja     6397 <safe_rshift_func_int8_t_s_u+0x2b>
    6388:	0f be 55 fc          	movsbl -0x4(%rbp),%edx
    638c:	8b 45 f8             	mov    -0x8(%rbp),%eax
    638f:	89 c1                	mov    %eax,%ecx
    6391:	d3 fa                	sar    %cl,%edx
    6393:	89 d0                	mov    %edx,%eax
    6395:	eb 04                	jmp    639b <safe_rshift_func_int8_t_s_u+0x2f>
    6397:	0f b6 45 fc          	movzbl -0x4(%rbp),%eax
    639b:	5d                   	pop    %rbp
    639c:	c3                   	retq   

000000000000639d <safe_unary_minus_func_int16_t_s>:
    639d:	f3 0f 1e fa          	endbr64 
    63a1:	55                   	push   %rbp
    63a2:	48 89 e5             	mov    %rsp,%rbp
    63a5:	89 f8                	mov    %edi,%eax
    63a7:	66 89 45 fc          	mov    %ax,-0x4(%rbp)
    63ab:	0f b7 45 fc          	movzwl -0x4(%rbp),%eax
    63af:	f7 d8                	neg    %eax
    63b1:	5d                   	pop    %rbp
    63b2:	c3                   	retq   

00000000000063b3 <safe_add_func_int16_t_s_s>:
    63b3:	f3 0f 1e fa          	endbr64 
    63b7:	55                   	push   %rbp
    63b8:	48 89 e5             	mov    %rsp,%rbp
    63bb:	89 fa                	mov    %edi,%edx
    63bd:	89 f0                	mov    %esi,%eax
    63bf:	66 89 55 fc          	mov    %dx,-0x4(%rbp)
    63c3:	66 89 45 f8          	mov    %ax,-0x8(%rbp)
    63c7:	0f b7 55 fc          	movzwl -0x4(%rbp),%edx
    63cb:	0f b7 45 f8          	movzwl -0x8(%rbp),%eax
    63cf:	01 d0                	add    %edx,%eax
    63d1:	5d                   	pop    %rbp
    63d2:	c3                   	retq   

00000000000063d3 <safe_sub_func_int16_t_s_s>:
    63d3:	f3 0f 1e fa          	endbr64 
    63d7:	55                   	push   %rbp
    63d8:	48 89 e5             	mov    %rsp,%rbp
    63db:	89 fa                	mov    %edi,%edx
    63dd:	89 f0                	mov    %esi,%eax
    63df:	66 89 55 fc          	mov    %dx,-0x4(%rbp)
    63e3:	66 89 45 f8          	mov    %ax,-0x8(%rbp)
    63e7:	0f b7 55 fc          	movzwl -0x4(%rbp),%edx
    63eb:	0f b7 45 f8          	movzwl -0x8(%rbp),%eax
    63ef:	29 c2                	sub    %eax,%edx
    63f1:	89 d0                	mov    %edx,%eax
    63f3:	5d                   	pop    %rbp
    63f4:	c3                   	retq   

00000000000063f5 <safe_mul_func_int16_t_s_s>:
    63f5:	f3 0f 1e fa          	endbr64 
    63f9:	55                   	push   %rbp
    63fa:	48 89 e5             	mov    %rsp,%rbp
    63fd:	89 fa                	mov    %edi,%edx
    63ff:	89 f0                	mov    %esi,%eax
    6401:	66 89 55 fc          	mov    %dx,-0x4(%rbp)
    6405:	66 89 45 f8          	mov    %ax,-0x8(%rbp)
    6409:	0f b7 55 fc          	movzwl -0x4(%rbp),%edx
    640d:	0f b7 45 f8          	movzwl -0x8(%rbp),%eax
    6411:	0f af c2             	imul   %edx,%eax
    6414:	5d                   	pop    %rbp
    6415:	c3                   	retq   

0000000000006416 <safe_mod_func_int16_t_s_s>:
    6416:	f3 0f 1e fa          	endbr64 
    641a:	55                   	push   %rbp
    641b:	48 89 e5             	mov    %rsp,%rbp
    641e:	89 fa                	mov    %edi,%edx
    6420:	89 f0                	mov    %esi,%eax
    6422:	66 89 55 fc          	mov    %dx,-0x4(%rbp)
    6426:	66 89 45 f8          	mov    %ax,-0x8(%rbp)
    642a:	66 83 7d f8 00       	cmpw   $0x0,-0x8(%rbp)
    642f:	74 1e                	je     644f <safe_mod_func_int16_t_s_s+0x39>
    6431:	66 81 7d fc 00 80    	cmpw   $0x8000,-0x4(%rbp)
    6437:	75 07                	jne    6440 <safe_mod_func_int16_t_s_s+0x2a>
    6439:	66 83 7d f8 ff       	cmpw   $0xffff,-0x8(%rbp)
    643e:	74 0f                	je     644f <safe_mod_func_int16_t_s_s+0x39>
    6440:	0f bf 45 fc          	movswl -0x4(%rbp),%eax
    6444:	0f bf 4d f8          	movswl -0x8(%rbp),%ecx
    6448:	99                   	cltd   
    6449:	f7 f9                	idiv   %ecx
    644b:	89 d0                	mov    %edx,%eax
    644d:	eb 04                	jmp    6453 <safe_mod_func_int16_t_s_s+0x3d>
    644f:	0f b7 45 fc          	movzwl -0x4(%rbp),%eax
    6453:	5d                   	pop    %rbp
    6454:	c3                   	retq   

0000000000006455 <safe_div_func_int16_t_s_s>:
    6455:	f3 0f 1e fa          	endbr64 
    6459:	55                   	push   %rbp
    645a:	48 89 e5             	mov    %rsp,%rbp
    645d:	89 fa                	mov    %edi,%edx
    645f:	89 f0                	mov    %esi,%eax
    6461:	66 89 55 fc          	mov    %dx,-0x4(%rbp)
    6465:	66 89 45 f8          	mov    %ax,-0x8(%rbp)
    6469:	66 83 7d f8 00       	cmpw   $0x0,-0x8(%rbp)
    646e:	74 1c                	je     648c <safe_div_func_int16_t_s_s+0x37>
    6470:	66 81 7d fc 00 80    	cmpw   $0x8000,-0x4(%rbp)
    6476:	75 07                	jne    647f <safe_div_func_int16_t_s_s+0x2a>
    6478:	66 83 7d f8 ff       	cmpw   $0xffff,-0x8(%rbp)
    647d:	74 0d                	je     648c <safe_div_func_int16_t_s_s+0x37>
    647f:	0f bf 45 fc          	movswl -0x4(%rbp),%eax
    6483:	0f bf 4d f8          	movswl -0x8(%rbp),%ecx
    6487:	99                   	cltd   
    6488:	f7 f9                	idiv   %ecx
    648a:	eb 04                	jmp    6490 <safe_div_func_int16_t_s_s+0x3b>
    648c:	0f b7 45 fc          	movzwl -0x4(%rbp),%eax
    6490:	5d                   	pop    %rbp
    6491:	c3                   	retq   

0000000000006492 <safe_lshift_func_int16_t_s_s>:
    6492:	f3 0f 1e fa          	endbr64 
    6496:	55                   	push   %rbp
    6497:	48 89 e5             	mov    %rsp,%rbp
    649a:	89 f8                	mov    %edi,%eax
    649c:	89 75 f8             	mov    %esi,-0x8(%rbp)
    649f:	66 89 45 fc          	mov    %ax,-0x4(%rbp)
    64a3:	66 83 7d fc 00       	cmpw   $0x0,-0x4(%rbp)
    64a8:	78 31                	js     64db <safe_lshift_func_int16_t_s_s+0x49>
    64aa:	83 7d f8 00          	cmpl   $0x0,-0x8(%rbp)
    64ae:	78 2b                	js     64db <safe_lshift_func_int16_t_s_s+0x49>
    64b0:	83 7d f8 1f          	cmpl   $0x1f,-0x8(%rbp)
    64b4:	7f 25                	jg     64db <safe_lshift_func_int16_t_s_s+0x49>
    64b6:	0f bf 55 fc          	movswl -0x4(%rbp),%edx
    64ba:	8b 45 f8             	mov    -0x8(%rbp),%eax
    64bd:	be ff 7f 00 00       	mov    $0x7fff,%esi
    64c2:	89 c1                	mov    %eax,%ecx
    64c4:	d3 fe                	sar    %cl,%esi
    64c6:	89 f0                	mov    %esi,%eax
    64c8:	39 c2                	cmp    %eax,%edx
    64ca:	7f 0f                	jg     64db <safe_lshift_func_int16_t_s_s+0x49>
    64cc:	0f bf 55 fc          	movswl -0x4(%rbp),%edx
    64d0:	8b 45 f8             	mov    -0x8(%rbp),%eax
    64d3:	89 c1                	mov    %eax,%ecx
    64d5:	d3 e2                	shl    %cl,%edx
    64d7:	89 d0                	mov    %edx,%eax
    64d9:	eb 04                	jmp    64df <safe_lshift_func_int16_t_s_s+0x4d>
    64db:	0f b7 45 fc          	movzwl -0x4(%rbp),%eax
    64df:	5d                   	pop    %rbp
    64e0:	c3                   	retq   

00000000000064e1 <safe_lshift_func_int16_t_s_u>:
    64e1:	f3 0f 1e fa          	endbr64 
    64e5:	55                   	push   %rbp
    64e6:	48 89 e5             	mov    %rsp,%rbp
    64e9:	89 f8                	mov    %edi,%eax
    64eb:	89 75 f8             	mov    %esi,-0x8(%rbp)
    64ee:	66 89 45 fc          	mov    %ax,-0x4(%rbp)
    64f2:	66 83 7d fc 00       	cmpw   $0x0,-0x4(%rbp)
    64f7:	78 2b                	js     6524 <safe_lshift_func_int16_t_s_u+0x43>
    64f9:	83 7d f8 1f          	cmpl   $0x1f,-0x8(%rbp)
    64fd:	77 25                	ja     6524 <safe_lshift_func_int16_t_s_u+0x43>
    64ff:	0f bf 55 fc          	movswl -0x4(%rbp),%edx
    6503:	8b 45 f8             	mov    -0x8(%rbp),%eax
    6506:	be ff 7f 00 00       	mov    $0x7fff,%esi
    650b:	89 c1                	mov    %eax,%ecx
    650d:	d3 fe                	sar    %cl,%esi
    650f:	89 f0                	mov    %esi,%eax
    6511:	39 c2                	cmp    %eax,%edx
    6513:	7f 0f                	jg     6524 <safe_lshift_func_int16_t_s_u+0x43>
    6515:	0f bf 55 fc          	movswl -0x4(%rbp),%edx
    6519:	8b 45 f8             	mov    -0x8(%rbp),%eax
    651c:	89 c1                	mov    %eax,%ecx
    651e:	d3 e2                	shl    %cl,%edx
    6520:	89 d0                	mov    %edx,%eax
    6522:	eb 04                	jmp    6528 <safe_lshift_func_int16_t_s_u+0x47>
    6524:	0f b7 45 fc          	movzwl -0x4(%rbp),%eax
    6528:	5d                   	pop    %rbp
    6529:	c3                   	retq   

000000000000652a <safe_rshift_func_int16_t_s_s>:
    652a:	f3 0f 1e fa          	endbr64 
    652e:	55                   	push   %rbp
    652f:	48 89 e5             	mov    %rsp,%rbp
    6532:	89 f8                	mov    %edi,%eax
    6534:	89 75 f8             	mov    %esi,-0x8(%rbp)
    6537:	66 89 45 fc          	mov    %ax,-0x4(%rbp)
    653b:	66 83 7d fc 00       	cmpw   $0x0,-0x4(%rbp)
    6540:	78 1b                	js     655d <safe_rshift_func_int16_t_s_s+0x33>
    6542:	83 7d f8 00          	cmpl   $0x0,-0x8(%rbp)
    6546:	78 15                	js     655d <safe_rshift_func_int16_t_s_s+0x33>
    6548:	83 7d f8 1f          	cmpl   $0x1f,-0x8(%rbp)
    654c:	7f 0f                	jg     655d <safe_rshift_func_int16_t_s_s+0x33>
    654e:	0f bf 55 fc          	movswl -0x4(%rbp),%edx
    6552:	8b 45 f8             	mov    -0x8(%rbp),%eax
    6555:	89 c1                	mov    %eax,%ecx
    6557:	d3 fa                	sar    %cl,%edx
    6559:	89 d0                	mov    %edx,%eax
    655b:	eb 04                	jmp    6561 <safe_rshift_func_int16_t_s_s+0x37>
    655d:	0f b7 45 fc          	movzwl -0x4(%rbp),%eax
    6561:	5d                   	pop    %rbp
    6562:	c3                   	retq   

0000000000006563 <safe_rshift_func_int16_t_s_u>:
    6563:	f3 0f 1e fa          	endbr64 
    6567:	55                   	push   %rbp
    6568:	48 89 e5             	mov    %rsp,%rbp
    656b:	89 f8                	mov    %edi,%eax
    656d:	89 75 f8             	mov    %esi,-0x8(%rbp)
    6570:	66 89 45 fc          	mov    %ax,-0x4(%rbp)
    6574:	66 83 7d fc 00       	cmpw   $0x0,-0x4(%rbp)
    6579:	78 15                	js     6590 <safe_rshift_func_int16_t_s_u+0x2d>
    657b:	83 7d f8 1f          	cmpl   $0x1f,-0x8(%rbp)
    657f:	77 0f                	ja     6590 <safe_rshift_func_int16_t_s_u+0x2d>
    6581:	0f bf 55 fc          	movswl -0x4(%rbp),%edx
    6585:	8b 45 f8             	mov    -0x8(%rbp),%eax
    6588:	89 c1                	mov    %eax,%ecx
    658a:	d3 fa                	sar    %cl,%edx
    658c:	89 d0                	mov    %edx,%eax
    658e:	eb 04                	jmp    6594 <safe_rshift_func_int16_t_s_u+0x31>
    6590:	0f b7 45 fc          	movzwl -0x4(%rbp),%eax
    6594:	5d                   	pop    %rbp
    6595:	c3                   	retq   

0000000000006596 <safe_unary_minus_func_int32_t_s>:
    6596:	f3 0f 1e fa          	endbr64 
    659a:	55                   	push   %rbp
    659b:	48 89 e5             	mov    %rsp,%rbp
    659e:	89 7d fc             	mov    %edi,-0x4(%rbp)
    65a1:	81 7d fc 00 00 00 80 	cmpl   $0x80000000,-0x4(%rbp)
    65a8:	74 07                	je     65b1 <safe_unary_minus_func_int32_t_s+0x1b>
    65aa:	8b 45 fc             	mov    -0x4(%rbp),%eax
    65ad:	f7 d8                	neg    %eax
    65af:	eb 03                	jmp    65b4 <safe_unary_minus_func_int32_t_s+0x1e>
    65b1:	8b 45 fc             	mov    -0x4(%rbp),%eax
    65b4:	5d                   	pop    %rbp
    65b5:	c3                   	retq   

00000000000065b6 <safe_add_func_int32_t_s_s>:
    65b6:	f3 0f 1e fa          	endbr64 
    65ba:	55                   	push   %rbp
    65bb:	48 89 e5             	mov    %rsp,%rbp
    65be:	89 7d fc             	mov    %edi,-0x4(%rbp)
    65c1:	89 75 f8             	mov    %esi,-0x8(%rbp)
    65c4:	83 7d fc 00          	cmpl   $0x0,-0x4(%rbp)
    65c8:	7e 13                	jle    65dd <safe_add_func_int32_t_s_s+0x27>
    65ca:	83 7d f8 00          	cmpl   $0x0,-0x8(%rbp)
    65ce:	7e 0d                	jle    65dd <safe_add_func_int32_t_s_s+0x27>
    65d0:	b8 ff ff ff 7f       	mov    $0x7fffffff,%eax
    65d5:	2b 45 f8             	sub    -0x8(%rbp),%eax
    65d8:	39 45 fc             	cmp    %eax,-0x4(%rbp)
    65db:	7f 23                	jg     6600 <safe_add_func_int32_t_s_s+0x4a>
    65dd:	83 7d fc 00          	cmpl   $0x0,-0x4(%rbp)
    65e1:	79 13                	jns    65f6 <safe_add_func_int32_t_s_s+0x40>
    65e3:	83 7d f8 00          	cmpl   $0x0,-0x8(%rbp)
    65e7:	79 0d                	jns    65f6 <safe_add_func_int32_t_s_s+0x40>
    65e9:	b8 00 00 00 80       	mov    $0x80000000,%eax
    65ee:	2b 45 f8             	sub    -0x8(%rbp),%eax
    65f1:	39 45 fc             	cmp    %eax,-0x4(%rbp)
    65f4:	7c 0a                	jl     6600 <safe_add_func_int32_t_s_s+0x4a>
    65f6:	8b 55 fc             	mov    -0x4(%rbp),%edx
    65f9:	8b 45 f8             	mov    -0x8(%rbp),%eax
    65fc:	01 d0                	add    %edx,%eax
    65fe:	eb 03                	jmp    6603 <safe_add_func_int32_t_s_s+0x4d>
    6600:	8b 45 fc             	mov    -0x4(%rbp),%eax
    6603:	5d                   	pop    %rbp
    6604:	c3                   	retq   

0000000000006605 <safe_sub_func_int32_t_s_s>:
    6605:	f3 0f 1e fa          	endbr64 
    6609:	55                   	push   %rbp
    660a:	48 89 e5             	mov    %rsp,%rbp
    660d:	89 7d fc             	mov    %edi,-0x4(%rbp)
    6610:	89 75 f8             	mov    %esi,-0x8(%rbp)
    6613:	8b 45 fc             	mov    -0x4(%rbp),%eax
    6616:	33 45 f8             	xor    -0x8(%rbp),%eax
    6619:	89 c2                	mov    %eax,%edx
    661b:	8b 45 fc             	mov    -0x4(%rbp),%eax
    661e:	33 45 f8             	xor    -0x8(%rbp),%eax
    6621:	25 00 00 00 80       	and    $0x80000000,%eax
    6626:	33 45 fc             	xor    -0x4(%rbp),%eax
    6629:	2b 45 f8             	sub    -0x8(%rbp),%eax
    662c:	33 45 f8             	xor    -0x8(%rbp),%eax
    662f:	21 d0                	and    %edx,%eax
    6631:	85 c0                	test   %eax,%eax
    6633:	78 08                	js     663d <safe_sub_func_int32_t_s_s+0x38>
    6635:	8b 45 fc             	mov    -0x4(%rbp),%eax
    6638:	2b 45 f8             	sub    -0x8(%rbp),%eax
    663b:	eb 03                	jmp    6640 <safe_sub_func_int32_t_s_s+0x3b>
    663d:	8b 45 fc             	mov    -0x4(%rbp),%eax
    6640:	5d                   	pop    %rbp
    6641:	c3                   	retq   

0000000000006642 <safe_mul_func_int32_t_s_s>:
    6642:	f3 0f 1e fa          	endbr64 
    6646:	55                   	push   %rbp
    6647:	48 89 e5             	mov    %rsp,%rbp
    664a:	89 7d fc             	mov    %edi,-0x4(%rbp)
    664d:	89 75 f8             	mov    %esi,-0x8(%rbp)
    6650:	83 7d fc 00          	cmpl   $0x0,-0x4(%rbp)
    6654:	7e 14                	jle    666a <safe_mul_func_int32_t_s_s+0x28>
    6656:	83 7d f8 00          	cmpl   $0x0,-0x8(%rbp)
    665a:	7e 0e                	jle    666a <safe_mul_func_int32_t_s_s+0x28>
    665c:	b8 ff ff ff 7f       	mov    $0x7fffffff,%eax
    6661:	99                   	cltd   
    6662:	f7 7d f8             	idivl  -0x8(%rbp)
    6665:	39 45 fc             	cmp    %eax,-0x4(%rbp)
    6668:	7f 5d                	jg     66c7 <safe_mul_func_int32_t_s_s+0x85>
    666a:	83 7d fc 00          	cmpl   $0x0,-0x4(%rbp)
    666e:	7e 14                	jle    6684 <safe_mul_func_int32_t_s_s+0x42>
    6670:	83 7d f8 00          	cmpl   $0x0,-0x8(%rbp)
    6674:	7f 0e                	jg     6684 <safe_mul_func_int32_t_s_s+0x42>
    6676:	b8 00 00 00 80       	mov    $0x80000000,%eax
    667b:	99                   	cltd   
    667c:	f7 7d fc             	idivl  -0x4(%rbp)
    667f:	39 45 f8             	cmp    %eax,-0x8(%rbp)
    6682:	7c 43                	jl     66c7 <safe_mul_func_int32_t_s_s+0x85>
    6684:	83 7d fc 00          	cmpl   $0x0,-0x4(%rbp)
    6688:	7f 14                	jg     669e <safe_mul_func_int32_t_s_s+0x5c>
    668a:	83 7d f8 00          	cmpl   $0x0,-0x8(%rbp)
    668e:	7e 0e                	jle    669e <safe_mul_func_int32_t_s_s+0x5c>
    6690:	b8 00 00 00 80       	mov    $0x80000000,%eax
    6695:	99                   	cltd   
    6696:	f7 7d f8             	idivl  -0x8(%rbp)
    6699:	39 45 fc             	cmp    %eax,-0x4(%rbp)
    669c:	7c 29                	jl     66c7 <safe_mul_func_int32_t_s_s+0x85>
    669e:	83 7d fc 00          	cmpl   $0x0,-0x4(%rbp)
    66a2:	7f 1a                	jg     66be <safe_mul_func_int32_t_s_s+0x7c>
    66a4:	83 7d f8 00          	cmpl   $0x0,-0x8(%rbp)
    66a8:	7f 14                	jg     66be <safe_mul_func_int32_t_s_s+0x7c>
    66aa:	83 7d fc 00          	cmpl   $0x0,-0x4(%rbp)
    66ae:	74 0e                	je     66be <safe_mul_func_int32_t_s_s+0x7c>
    66b0:	b8 ff ff ff 7f       	mov    $0x7fffffff,%eax
    66b5:	99                   	cltd   
    66b6:	f7 7d fc             	idivl  -0x4(%rbp)
    66b9:	39 45 f8             	cmp    %eax,-0x8(%rbp)
    66bc:	7c 09                	jl     66c7 <safe_mul_func_int32_t_s_s+0x85>
    66be:	8b 45 fc             	mov    -0x4(%rbp),%eax
    66c1:	0f af 45 f8          	imul   -0x8(%rbp),%eax
    66c5:	eb 03                	jmp    66ca <safe_mul_func_int32_t_s_s+0x88>
    66c7:	8b 45 fc             	mov    -0x4(%rbp),%eax
    66ca:	5d                   	pop    %rbp
    66cb:	c3                   	retq   

00000000000066cc <safe_mod_func_int32_t_s_s>:
    66cc:	f3 0f 1e fa          	endbr64 
    66d0:	55                   	push   %rbp
    66d1:	48 89 e5             	mov    %rsp,%rbp
    66d4:	89 7d fc             	mov    %edi,-0x4(%rbp)
    66d7:	89 75 f8             	mov    %esi,-0x8(%rbp)
    66da:	83 7d f8 00          	cmpl   $0x0,-0x8(%rbp)
    66de:	74 1a                	je     66fa <safe_mod_func_int32_t_s_s+0x2e>
    66e0:	81 7d fc 00 00 00 80 	cmpl   $0x80000000,-0x4(%rbp)
    66e7:	75 06                	jne    66ef <safe_mod_func_int32_t_s_s+0x23>
    66e9:	83 7d f8 ff          	cmpl   $0xffffffff,-0x8(%rbp)
    66ed:	74 0b                	je     66fa <safe_mod_func_int32_t_s_s+0x2e>
    66ef:	8b 45 fc             	mov    -0x4(%rbp),%eax
    66f2:	99                   	cltd   
    66f3:	f7 7d f8             	idivl  -0x8(%rbp)
    66f6:	89 d0                	mov    %edx,%eax
    66f8:	eb 03                	jmp    66fd <safe_mod_func_int32_t_s_s+0x31>
    66fa:	8b 45 fc             	mov    -0x4(%rbp),%eax
    66fd:	5d                   	pop    %rbp
    66fe:	c3                   	retq   

00000000000066ff <safe_div_func_int32_t_s_s>:
    66ff:	f3 0f 1e fa          	endbr64 
    6703:	55                   	push   %rbp
    6704:	48 89 e5             	mov    %rsp,%rbp
    6707:	89 7d fc             	mov    %edi,-0x4(%rbp)
    670a:	89 75 f8             	mov    %esi,-0x8(%rbp)
    670d:	83 7d f8 00          	cmpl   $0x0,-0x8(%rbp)
    6711:	74 18                	je     672b <safe_div_func_int32_t_s_s+0x2c>
    6713:	81 7d fc 00 00 00 80 	cmpl   $0x80000000,-0x4(%rbp)
    671a:	75 06                	jne    6722 <safe_div_func_int32_t_s_s+0x23>
    671c:	83 7d f8 ff          	cmpl   $0xffffffff,-0x8(%rbp)
    6720:	74 09                	je     672b <safe_div_func_int32_t_s_s+0x2c>
    6722:	8b 45 fc             	mov    -0x4(%rbp),%eax
    6725:	99                   	cltd   
    6726:	f7 7d f8             	idivl  -0x8(%rbp)
    6729:	eb 03                	jmp    672e <safe_div_func_int32_t_s_s+0x2f>
    672b:	8b 45 fc             	mov    -0x4(%rbp),%eax
    672e:	5d                   	pop    %rbp
    672f:	c3                   	retq   

0000000000006730 <safe_lshift_func_int32_t_s_s>:
    6730:	f3 0f 1e fa          	endbr64 
    6734:	55                   	push   %rbp
    6735:	48 89 e5             	mov    %rsp,%rbp
    6738:	89 7d fc             	mov    %edi,-0x4(%rbp)
    673b:	89 75 f8             	mov    %esi,-0x8(%rbp)
    673e:	83 7d fc 00          	cmpl   $0x0,-0x4(%rbp)
    6742:	78 2d                	js     6771 <safe_lshift_func_int32_t_s_s+0x41>
    6744:	83 7d f8 00          	cmpl   $0x0,-0x8(%rbp)
    6748:	78 27                	js     6771 <safe_lshift_func_int32_t_s_s+0x41>
    674a:	83 7d f8 1f          	cmpl   $0x1f,-0x8(%rbp)
    674e:	7f 21                	jg     6771 <safe_lshift_func_int32_t_s_s+0x41>
    6750:	8b 45 f8             	mov    -0x8(%rbp),%eax
    6753:	ba ff ff ff 7f       	mov    $0x7fffffff,%edx
    6758:	89 c1                	mov    %eax,%ecx
    675a:	d3 fa                	sar    %cl,%edx
    675c:	89 d0                	mov    %edx,%eax
    675e:	39 45 fc             	cmp    %eax,-0x4(%rbp)
    6761:	7f 0e                	jg     6771 <safe_lshift_func_int32_t_s_s+0x41>
    6763:	8b 45 f8             	mov    -0x8(%rbp),%eax
    6766:	8b 55 fc             	mov    -0x4(%rbp),%edx
    6769:	89 c1                	mov    %eax,%ecx
    676b:	d3 e2                	shl    %cl,%edx
    676d:	89 d0                	mov    %edx,%eax
    676f:	eb 03                	jmp    6774 <safe_lshift_func_int32_t_s_s+0x44>
    6771:	8b 45 fc             	mov    -0x4(%rbp),%eax
    6774:	5d                   	pop    %rbp
    6775:	c3                   	retq   

0000000000006776 <safe_lshift_func_int32_t_s_u>:
    6776:	f3 0f 1e fa          	endbr64 
    677a:	55                   	push   %rbp
    677b:	48 89 e5             	mov    %rsp,%rbp
    677e:	89 7d fc             	mov    %edi,-0x4(%rbp)
    6781:	89 75 f8             	mov    %esi,-0x8(%rbp)
    6784:	83 7d fc 00          	cmpl   $0x0,-0x4(%rbp)
    6788:	78 27                	js     67b1 <safe_lshift_func_int32_t_s_u+0x3b>
    678a:	83 7d f8 1f          	cmpl   $0x1f,-0x8(%rbp)
    678e:	77 21                	ja     67b1 <safe_lshift_func_int32_t_s_u+0x3b>
    6790:	8b 45 f8             	mov    -0x8(%rbp),%eax
    6793:	ba ff ff ff 7f       	mov    $0x7fffffff,%edx
    6798:	89 c1                	mov    %eax,%ecx
    679a:	d3 fa                	sar    %cl,%edx
    679c:	89 d0                	mov    %edx,%eax
    679e:	39 45 fc             	cmp    %eax,-0x4(%rbp)
    67a1:	7f 0e                	jg     67b1 <safe_lshift_func_int32_t_s_u+0x3b>
    67a3:	8b 45 f8             	mov    -0x8(%rbp),%eax
    67a6:	8b 55 fc             	mov    -0x4(%rbp),%edx
    67a9:	89 c1                	mov    %eax,%ecx
    67ab:	d3 e2                	shl    %cl,%edx
    67ad:	89 d0                	mov    %edx,%eax
    67af:	eb 03                	jmp    67b4 <safe_lshift_func_int32_t_s_u+0x3e>
    67b1:	8b 45 fc             	mov    -0x4(%rbp),%eax
    67b4:	5d                   	pop    %rbp
    67b5:	c3                   	retq   

00000000000067b6 <safe_rshift_func_int32_t_s_s>:
    67b6:	f3 0f 1e fa          	endbr64 
    67ba:	55                   	push   %rbp
    67bb:	48 89 e5             	mov    %rsp,%rbp
    67be:	89 7d fc             	mov    %edi,-0x4(%rbp)
    67c1:	89 75 f8             	mov    %esi,-0x8(%rbp)
    67c4:	83 7d fc 00          	cmpl   $0x0,-0x4(%rbp)
    67c8:	78 1a                	js     67e4 <safe_rshift_func_int32_t_s_s+0x2e>
    67ca:	83 7d f8 00          	cmpl   $0x0,-0x8(%rbp)
    67ce:	78 14                	js     67e4 <safe_rshift_func_int32_t_s_s+0x2e>
    67d0:	83 7d f8 1f          	cmpl   $0x1f,-0x8(%rbp)
    67d4:	7f 0e                	jg     67e4 <safe_rshift_func_int32_t_s_s+0x2e>
    67d6:	8b 45 f8             	mov    -0x8(%rbp),%eax
    67d9:	8b 55 fc             	mov    -0x4(%rbp),%edx
    67dc:	89 c1                	mov    %eax,%ecx
    67de:	d3 fa                	sar    %cl,%edx
    67e0:	89 d0                	mov    %edx,%eax
    67e2:	eb 03                	jmp    67e7 <safe_rshift_func_int32_t_s_s+0x31>
    67e4:	8b 45 fc             	mov    -0x4(%rbp),%eax
    67e7:	5d                   	pop    %rbp
    67e8:	c3                   	retq   

00000000000067e9 <safe_rshift_func_int32_t_s_u>:
    67e9:	f3 0f 1e fa          	endbr64 
    67ed:	55                   	push   %rbp
    67ee:	48 89 e5             	mov    %rsp,%rbp
    67f1:	89 7d fc             	mov    %edi,-0x4(%rbp)
    67f4:	89 75 f8             	mov    %esi,-0x8(%rbp)
    67f7:	83 7d fc 00          	cmpl   $0x0,-0x4(%rbp)
    67fb:	78 14                	js     6811 <safe_rshift_func_int32_t_s_u+0x28>
    67fd:	83 7d f8 1f          	cmpl   $0x1f,-0x8(%rbp)
    6801:	77 0e                	ja     6811 <safe_rshift_func_int32_t_s_u+0x28>
    6803:	8b 45 f8             	mov    -0x8(%rbp),%eax
    6806:	8b 55 fc             	mov    -0x4(%rbp),%edx
    6809:	89 c1                	mov    %eax,%ecx
    680b:	d3 fa                	sar    %cl,%edx
    680d:	89 d0                	mov    %edx,%eax
    680f:	eb 03                	jmp    6814 <safe_rshift_func_int32_t_s_u+0x2b>
    6811:	8b 45 fc             	mov    -0x4(%rbp),%eax
    6814:	5d                   	pop    %rbp
    6815:	c3                   	retq   

0000000000006816 <safe_unary_minus_func_int64_t_s>:
    6816:	f3 0f 1e fa          	endbr64 
    681a:	55                   	push   %rbp
    681b:	48 89 e5             	mov    %rsp,%rbp
    681e:	48 89 7d f8          	mov    %rdi,-0x8(%rbp)
    6822:	48 b8 00 00 00 00 00 	movabs $0x8000000000000000,%rax
    6829:	00 00 80 
    682c:	48 39 45 f8          	cmp    %rax,-0x8(%rbp)
    6830:	74 09                	je     683b <safe_unary_minus_func_int64_t_s+0x25>
    6832:	48 8b 45 f8          	mov    -0x8(%rbp),%rax
    6836:	48 f7 d8             	neg    %rax
    6839:	eb 04                	jmp    683f <safe_unary_minus_func_int64_t_s+0x29>
    683b:	48 8b 45 f8          	mov    -0x8(%rbp),%rax
    683f:	5d                   	pop    %rbp
    6840:	c3                   	retq   

0000000000006841 <safe_add_func_int64_t_s_s>:
    6841:	f3 0f 1e fa          	endbr64 
    6845:	55                   	push   %rbp
    6846:	48 89 e5             	mov    %rsp,%rbp
    6849:	48 89 7d f8          	mov    %rdi,-0x8(%rbp)
    684d:	48 89 75 f0          	mov    %rsi,-0x10(%rbp)
    6851:	48 83 7d f8 00       	cmpq   $0x0,-0x8(%rbp)
    6856:	7e 1b                	jle    6873 <safe_add_func_int64_t_s_s+0x32>
    6858:	48 83 7d f0 00       	cmpq   $0x0,-0x10(%rbp)
    685d:	7e 14                	jle    6873 <safe_add_func_int64_t_s_s+0x32>
    685f:	48 b8 ff ff ff ff ff 	movabs $0x7fffffffffffffff,%rax
    6866:	ff ff 7f 
    6869:	48 2b 45 f0          	sub    -0x10(%rbp),%rax
    686d:	48 39 45 f8          	cmp    %rax,-0x8(%rbp)
    6871:	7f 2f                	jg     68a2 <safe_add_func_int64_t_s_s+0x61>
    6873:	48 83 7d f8 00       	cmpq   $0x0,-0x8(%rbp)
    6878:	79 1b                	jns    6895 <safe_add_func_int64_t_s_s+0x54>
    687a:	48 83 7d f0 00       	cmpq   $0x0,-0x10(%rbp)
    687f:	79 14                	jns    6895 <safe_add_func_int64_t_s_s+0x54>
    6881:	48 b8 00 00 00 00 00 	movabs $0x8000000000000000,%rax
    6888:	00 00 80 
    688b:	48 2b 45 f0          	sub    -0x10(%rbp),%rax
    688f:	48 39 45 f8          	cmp    %rax,-0x8(%rbp)
    6893:	7c 0d                	jl     68a2 <safe_add_func_int64_t_s_s+0x61>
    6895:	48 8b 55 f8          	mov    -0x8(%rbp),%rdx
    6899:	48 8b 45 f0          	mov    -0x10(%rbp),%rax
    689d:	48 01 d0             	add    %rdx,%rax
    68a0:	eb 04                	jmp    68a6 <safe_add_func_int64_t_s_s+0x65>
    68a2:	48 8b 45 f8          	mov    -0x8(%rbp),%rax
    68a6:	5d                   	pop    %rbp
    68a7:	c3                   	retq   

00000000000068a8 <safe_sub_func_int64_t_s_s>:
    68a8:	f3 0f 1e fa          	endbr64 
    68ac:	55                   	push   %rbp
    68ad:	48 89 e5             	mov    %rsp,%rbp
    68b0:	48 89 7d f8          	mov    %rdi,-0x8(%rbp)
    68b4:	48 89 75 f0          	mov    %rsi,-0x10(%rbp)
    68b8:	48 8b 45 f8          	mov    -0x8(%rbp),%rax
    68bc:	48 33 45 f0          	xor    -0x10(%rbp),%rax
    68c0:	48 89 c2             	mov    %rax,%rdx
    68c3:	48 8b 45 f8          	mov    -0x8(%rbp),%rax
    68c7:	48 33 45 f0          	xor    -0x10(%rbp),%rax
    68cb:	48 b9 00 00 00 00 00 	movabs $0x8000000000000000,%rcx
    68d2:	00 00 80 
    68d5:	48 21 c8             	and    %rcx,%rax
    68d8:	48 33 45 f8          	xor    -0x8(%rbp),%rax
    68dc:	48 2b 45 f0          	sub    -0x10(%rbp),%rax
    68e0:	48 33 45 f0          	xor    -0x10(%rbp),%rax
    68e4:	48 21 d0             	and    %rdx,%rax
    68e7:	48 85 c0             	test   %rax,%rax
    68ea:	78 0a                	js     68f6 <safe_sub_func_int64_t_s_s+0x4e>
    68ec:	48 8b 45 f8          	mov    -0x8(%rbp),%rax
    68f0:	48 2b 45 f0          	sub    -0x10(%rbp),%rax
    68f4:	eb 04                	jmp    68fa <safe_sub_func_int64_t_s_s+0x52>
    68f6:	48 8b 45 f8          	mov    -0x8(%rbp),%rax
    68fa:	5d                   	pop    %rbp
    68fb:	c3                   	retq   

00000000000068fc <safe_mul_func_int64_t_s_s>:
    68fc:	f3 0f 1e fa          	endbr64 
    6900:	55                   	push   %rbp
    6901:	48 89 e5             	mov    %rsp,%rbp
    6904:	48 89 7d f8          	mov    %rdi,-0x8(%rbp)
    6908:	48 89 75 f0          	mov    %rsi,-0x10(%rbp)
    690c:	48 83 7d f8 00       	cmpq   $0x0,-0x8(%rbp)
    6911:	7e 1d                	jle    6930 <safe_mul_func_int64_t_s_s+0x34>
    6913:	48 83 7d f0 00       	cmpq   $0x0,-0x10(%rbp)
    6918:	7e 16                	jle    6930 <safe_mul_func_int64_t_s_s+0x34>
    691a:	48 b8 ff ff ff ff ff 	movabs $0x7fffffffffffffff,%rax
    6921:	ff ff 7f 
    6924:	48 99                	cqto   
    6926:	48 f7 7d f0          	idivq  -0x10(%rbp)
    692a:	48 39 45 f8          	cmp    %rax,-0x8(%rbp)
    692e:	7f 7e                	jg     69ae <safe_mul_func_int64_t_s_s+0xb2>
    6930:	48 83 7d f8 00       	cmpq   $0x0,-0x8(%rbp)
    6935:	7e 1d                	jle    6954 <safe_mul_func_int64_t_s_s+0x58>
    6937:	48 83 7d f0 00       	cmpq   $0x0,-0x10(%rbp)
    693c:	7f 16                	jg     6954 <safe_mul_func_int64_t_s_s+0x58>
    693e:	48 b8 00 00 00 00 00 	movabs $0x8000000000000000,%rax
    6945:	00 00 80 
    6948:	48 99                	cqto   
    694a:	48 f7 7d f8          	idivq  -0x8(%rbp)
    694e:	48 39 45 f0          	cmp    %rax,-0x10(%rbp)
    6952:	7c 5a                	jl     69ae <safe_mul_func_int64_t_s_s+0xb2>
    6954:	48 83 7d f8 00       	cmpq   $0x0,-0x8(%rbp)
    6959:	7f 1d                	jg     6978 <safe_mul_func_int64_t_s_s+0x7c>
    695b:	48 83 7d f0 00       	cmpq   $0x0,-0x10(%rbp)
    6960:	7e 16                	jle    6978 <safe_mul_func_int64_t_s_s+0x7c>
    6962:	48 b8 00 00 00 00 00 	movabs $0x8000000000000000,%rax
    6969:	00 00 80 
    696c:	48 99                	cqto   
    696e:	48 f7 7d f0          	idivq  -0x10(%rbp)
    6972:	48 39 45 f8          	cmp    %rax,-0x8(%rbp)
    6976:	7c 36                	jl     69ae <safe_mul_func_int64_t_s_s+0xb2>
    6978:	48 83 7d f8 00       	cmpq   $0x0,-0x8(%rbp)
    697d:	7f 24                	jg     69a3 <safe_mul_func_int64_t_s_s+0xa7>
    697f:	48 83 7d f0 00       	cmpq   $0x0,-0x10(%rbp)
    6984:	7f 1d                	jg     69a3 <safe_mul_func_int64_t_s_s+0xa7>
    6986:	48 83 7d f8 00       	cmpq   $0x0,-0x8(%rbp)
    698b:	74 16                	je     69a3 <safe_mul_func_int64_t_s_s+0xa7>
    698d:	48 b8 ff ff ff ff ff 	movabs $0x7fffffffffffffff,%rax
    6994:	ff ff 7f 
    6997:	48 99                	cqto   
    6999:	48 f7 7d f8          	idivq  -0x8(%rbp)
    699d:	48 39 45 f0          	cmp    %rax,-0x10(%rbp)
    69a1:	7c 0b                	jl     69ae <safe_mul_func_int64_t_s_s+0xb2>
    69a3:	48 8b 45 f8          	mov    -0x8(%rbp),%rax
    69a7:	48 0f af 45 f0       	imul   -0x10(%rbp),%rax
    69ac:	eb 04                	jmp    69b2 <safe_mul_func_int64_t_s_s+0xb6>
    69ae:	48 8b 45 f8          	mov    -0x8(%rbp),%rax
    69b2:	5d                   	pop    %rbp
    69b3:	c3                   	retq   

00000000000069b4 <safe_mod_func_int64_t_s_s>:
    69b4:	f3 0f 1e fa          	endbr64 
    69b8:	55                   	push   %rbp
    69b9:	48 89 e5             	mov    %rsp,%rbp
    69bc:	48 89 7d f8          	mov    %rdi,-0x8(%rbp)
    69c0:	48 89 75 f0          	mov    %rsi,-0x10(%rbp)
    69c4:	48 83 7d f0 00       	cmpq   $0x0,-0x10(%rbp)
    69c9:	74 26                	je     69f1 <safe_mod_func_int64_t_s_s+0x3d>
    69cb:	48 b8 00 00 00 00 00 	movabs $0x8000000000000000,%rax
    69d2:	00 00 80 
    69d5:	48 39 45 f8          	cmp    %rax,-0x8(%rbp)
    69d9:	75 07                	jne    69e2 <safe_mod_func_int64_t_s_s+0x2e>
    69db:	48 83 7d f0 ff       	cmpq   $0xffffffffffffffff,-0x10(%rbp)
    69e0:	74 0f                	je     69f1 <safe_mod_func_int64_t_s_s+0x3d>
    69e2:	48 8b 45 f8          	mov    -0x8(%rbp),%rax
    69e6:	48 99                	cqto   
    69e8:	48 f7 7d f0          	idivq  -0x10(%rbp)
    69ec:	48 89 d0             	mov    %rdx,%rax
    69ef:	eb 04                	jmp    69f5 <safe_mod_func_int64_t_s_s+0x41>
    69f1:	48 8b 45 f8          	mov    -0x8(%rbp),%rax
    69f5:	5d                   	pop    %rbp
    69f6:	c3                   	retq   

00000000000069f7 <safe_div_func_int64_t_s_s>:
    69f7:	f3 0f 1e fa          	endbr64 
    69fb:	55                   	push   %rbp
    69fc:	48 89 e5             	mov    %rsp,%rbp
    69ff:	48 89 7d f8          	mov    %rdi,-0x8(%rbp)
    6a03:	48 89 75 f0          	mov    %rsi,-0x10(%rbp)
    6a07:	48 83 7d f0 00       	cmpq   $0x0,-0x10(%rbp)
    6a0c:	74 23                	je     6a31 <safe_div_func_int64_t_s_s+0x3a>
    6a0e:	48 b8 00 00 00 00 00 	movabs $0x8000000000000000,%rax
    6a15:	00 00 80 
    6a18:	48 39 45 f8          	cmp    %rax,-0x8(%rbp)
    6a1c:	75 07                	jne    6a25 <safe_div_func_int64_t_s_s+0x2e>
    6a1e:	48 83 7d f0 ff       	cmpq   $0xffffffffffffffff,-0x10(%rbp)
    6a23:	74 0c                	je     6a31 <safe_div_func_int64_t_s_s+0x3a>
    6a25:	48 8b 45 f8          	mov    -0x8(%rbp),%rax
    6a29:	48 99                	cqto   
    6a2b:	48 f7 7d f0          	idivq  -0x10(%rbp)
    6a2f:	eb 04                	jmp    6a35 <safe_div_func_int64_t_s_s+0x3e>
    6a31:	48 8b 45 f8          	mov    -0x8(%rbp),%rax
    6a35:	5d                   	pop    %rbp
    6a36:	c3                   	retq   

0000000000006a37 <safe_lshift_func_int64_t_s_s>:
    6a37:	f3 0f 1e fa          	endbr64 
    6a3b:	55                   	push   %rbp
    6a3c:	48 89 e5             	mov    %rsp,%rbp
    6a3f:	48 89 7d f8          	mov    %rdi,-0x8(%rbp)
    6a43:	89 75 f4             	mov    %esi,-0xc(%rbp)
    6a46:	48 83 7d f8 00       	cmpq   $0x0,-0x8(%rbp)
    6a4b:	78 38                	js     6a85 <safe_lshift_func_int64_t_s_s+0x4e>
    6a4d:	83 7d f4 00          	cmpl   $0x0,-0xc(%rbp)
    6a51:	78 32                	js     6a85 <safe_lshift_func_int64_t_s_s+0x4e>
    6a53:	83 7d f4 1f          	cmpl   $0x1f,-0xc(%rbp)
    6a57:	7f 2c                	jg     6a85 <safe_lshift_func_int64_t_s_s+0x4e>
    6a59:	8b 45 f4             	mov    -0xc(%rbp),%eax
    6a5c:	48 ba ff ff ff ff ff 	movabs $0x7fffffffffffffff,%rdx
    6a63:	ff ff 7f 
    6a66:	89 c1                	mov    %eax,%ecx
    6a68:	48 d3 fa             	sar    %cl,%rdx
    6a6b:	48 89 d0             	mov    %rdx,%rax
    6a6e:	48 39 45 f8          	cmp    %rax,-0x8(%rbp)
    6a72:	7f 11                	jg     6a85 <safe_lshift_func_int64_t_s_s+0x4e>
    6a74:	8b 45 f4             	mov    -0xc(%rbp),%eax
    6a77:	48 8b 55 f8          	mov    -0x8(%rbp),%rdx
    6a7b:	89 c1                	mov    %eax,%ecx
    6a7d:	48 d3 e2             	shl    %cl,%rdx
    6a80:	48 89 d0             	mov    %rdx,%rax
    6a83:	eb 04                	jmp    6a89 <safe_lshift_func_int64_t_s_s+0x52>
    6a85:	48 8b 45 f8          	mov    -0x8(%rbp),%rax
    6a89:	5d                   	pop    %rbp
    6a8a:	c3                   	retq   

0000000000006a8b <safe_lshift_func_int64_t_s_u>:
    6a8b:	f3 0f 1e fa          	endbr64 
    6a8f:	55                   	push   %rbp
    6a90:	48 89 e5             	mov    %rsp,%rbp
    6a93:	48 89 7d f8          	mov    %rdi,-0x8(%rbp)
    6a97:	89 75 f4             	mov    %esi,-0xc(%rbp)
    6a9a:	48 83 7d f8 00       	cmpq   $0x0,-0x8(%rbp)
    6a9f:	78 32                	js     6ad3 <safe_lshift_func_int64_t_s_u+0x48>
    6aa1:	83 7d f4 1f          	cmpl   $0x1f,-0xc(%rbp)
    6aa5:	77 2c                	ja     6ad3 <safe_lshift_func_int64_t_s_u+0x48>
    6aa7:	8b 45 f4             	mov    -0xc(%rbp),%eax
    6aaa:	48 ba ff ff ff ff ff 	movabs $0x7fffffffffffffff,%rdx
    6ab1:	ff ff 7f 
    6ab4:	89 c1                	mov    %eax,%ecx
    6ab6:	48 d3 fa             	sar    %cl,%rdx
    6ab9:	48 89 d0             	mov    %rdx,%rax
    6abc:	48 39 45 f8          	cmp    %rax,-0x8(%rbp)
    6ac0:	7f 11                	jg     6ad3 <safe_lshift_func_int64_t_s_u+0x48>
    6ac2:	8b 45 f4             	mov    -0xc(%rbp),%eax
    6ac5:	48 8b 55 f8          	mov    -0x8(%rbp),%rdx
    6ac9:	89 c1                	mov    %eax,%ecx
    6acb:	48 d3 e2             	shl    %cl,%rdx
    6ace:	48 89 d0             	mov    %rdx,%rax
    6ad1:	eb 04                	jmp    6ad7 <safe_lshift_func_int64_t_s_u+0x4c>
    6ad3:	48 8b 45 f8          	mov    -0x8(%rbp),%rax
    6ad7:	5d                   	pop    %rbp
    6ad8:	c3                   	retq   

0000000000006ad9 <safe_rshift_func_int64_t_s_s>:
    6ad9:	f3 0f 1e fa          	endbr64 
    6add:	55                   	push   %rbp
    6ade:	48 89 e5             	mov    %rsp,%rbp
    6ae1:	48 89 7d f8          	mov    %rdi,-0x8(%rbp)
    6ae5:	89 75 f4             	mov    %esi,-0xc(%rbp)
    6ae8:	48 83 7d f8 00       	cmpq   $0x0,-0x8(%rbp)
    6aed:	78 1d                	js     6b0c <safe_rshift_func_int64_t_s_s+0x33>
    6aef:	83 7d f4 00          	cmpl   $0x0,-0xc(%rbp)
    6af3:	78 17                	js     6b0c <safe_rshift_func_int64_t_s_s+0x33>
    6af5:	83 7d f4 1f          	cmpl   $0x1f,-0xc(%rbp)
    6af9:	7f 11                	jg     6b0c <safe_rshift_func_int64_t_s_s+0x33>
    6afb:	8b 45 f4             	mov    -0xc(%rbp),%eax
    6afe:	48 8b 55 f8          	mov    -0x8(%rbp),%rdx
    6b02:	89 c1                	mov    %eax,%ecx
    6b04:	48 d3 fa             	sar    %cl,%rdx
    6b07:	48 89 d0             	mov    %rdx,%rax
    6b0a:	eb 04                	jmp    6b10 <safe_rshift_func_int64_t_s_s+0x37>
    6b0c:	48 8b 45 f8          	mov    -0x8(%rbp),%rax
    6b10:	5d                   	pop    %rbp
    6b11:	c3                   	retq   

0000000000006b12 <safe_rshift_func_int64_t_s_u>:
    6b12:	f3 0f 1e fa          	endbr64 
    6b16:	55                   	push   %rbp
    6b17:	48 89 e5             	mov    %rsp,%rbp
    6b1a:	48 89 7d f8          	mov    %rdi,-0x8(%rbp)
    6b1e:	89 75 f4             	mov    %esi,-0xc(%rbp)
    6b21:	48 83 7d f8 00       	cmpq   $0x0,-0x8(%rbp)
    6b26:	78 17                	js     6b3f <safe_rshift_func_int64_t_s_u+0x2d>
    6b28:	83 7d f4 1f          	cmpl   $0x1f,-0xc(%rbp)
    6b2c:	77 11                	ja     6b3f <safe_rshift_func_int64_t_s_u+0x2d>
    6b2e:	8b 45 f4             	mov    -0xc(%rbp),%eax
    6b31:	48 8b 55 f8          	mov    -0x8(%rbp),%rdx
    6b35:	89 c1                	mov    %eax,%ecx
    6b37:	48 d3 fa             	sar    %cl,%rdx
    6b3a:	48 89 d0             	mov    %rdx,%rax
    6b3d:	eb 04                	jmp    6b43 <safe_rshift_func_int64_t_s_u+0x31>
    6b3f:	48 8b 45 f8          	mov    -0x8(%rbp),%rax
    6b43:	5d                   	pop    %rbp
    6b44:	c3                   	retq   

0000000000006b45 <safe_unary_minus_func_uint8_t_u>:
    6b45:	f3 0f 1e fa          	endbr64 
    6b49:	55                   	push   %rbp
    6b4a:	48 89 e5             	mov    %rsp,%rbp
    6b4d:	89 f8                	mov    %edi,%eax
    6b4f:	88 45 fc             	mov    %al,-0x4(%rbp)
    6b52:	0f b6 45 fc          	movzbl -0x4(%rbp),%eax
    6b56:	f7 d8                	neg    %eax
    6b58:	5d                   	pop    %rbp
    6b59:	c3                   	retq   

0000000000006b5a <safe_add_func_uint8_t_u_u>:
    6b5a:	f3 0f 1e fa          	endbr64 
    6b5e:	55                   	push   %rbp
    6b5f:	48 89 e5             	mov    %rsp,%rbp
    6b62:	89 fa                	mov    %edi,%edx
    6b64:	89 f0                	mov    %esi,%eax
    6b66:	88 55 fc             	mov    %dl,-0x4(%rbp)
    6b69:	88 45 f8             	mov    %al,-0x8(%rbp)
    6b6c:	0f b6 55 fc          	movzbl -0x4(%rbp),%edx
    6b70:	0f b6 45 f8          	movzbl -0x8(%rbp),%eax
    6b74:	01 d0                	add    %edx,%eax
    6b76:	5d                   	pop    %rbp
    6b77:	c3                   	retq   

0000000000006b78 <safe_sub_func_uint8_t_u_u>:
    6b78:	f3 0f 1e fa          	endbr64 
    6b7c:	55                   	push   %rbp
    6b7d:	48 89 e5             	mov    %rsp,%rbp
    6b80:	89 fa                	mov    %edi,%edx
    6b82:	89 f0                	mov    %esi,%eax
    6b84:	88 55 fc             	mov    %dl,-0x4(%rbp)
    6b87:	88 45 f8             	mov    %al,-0x8(%rbp)
    6b8a:	0f b6 45 fc          	movzbl -0x4(%rbp),%eax
    6b8e:	2a 45 f8             	sub    -0x8(%rbp),%al
    6b91:	5d                   	pop    %rbp
    6b92:	c3                   	retq   

0000000000006b93 <safe_mul_func_uint8_t_u_u>:
    6b93:	f3 0f 1e fa          	endbr64 
    6b97:	55                   	push   %rbp
    6b98:	48 89 e5             	mov    %rsp,%rbp
    6b9b:	89 fa                	mov    %edi,%edx
    6b9d:	89 f0                	mov    %esi,%eax
    6b9f:	88 55 fc             	mov    %dl,-0x4(%rbp)
    6ba2:	88 45 f8             	mov    %al,-0x8(%rbp)
    6ba5:	0f b6 45 fc          	movzbl -0x4(%rbp),%eax
    6ba9:	f6 65 f8             	mulb   -0x8(%rbp)
    6bac:	5d                   	pop    %rbp
    6bad:	c3                   	retq   

0000000000006bae <safe_mod_func_uint8_t_u_u>:
    6bae:	f3 0f 1e fa          	endbr64 
    6bb2:	55                   	push   %rbp
    6bb3:	48 89 e5             	mov    %rsp,%rbp
    6bb6:	89 fa                	mov    %edi,%edx
    6bb8:	89 f0                	mov    %esi,%eax
    6bba:	88 55 fc             	mov    %dl,-0x4(%rbp)
    6bbd:	88 45 f8             	mov    %al,-0x8(%rbp)
    6bc0:	80 7d f8 00          	cmpb   $0x0,-0x8(%rbp)
    6bc4:	74 0f                	je     6bd5 <safe_mod_func_uint8_t_u_u+0x27>
    6bc6:	0f b6 45 fc          	movzbl -0x4(%rbp),%eax
    6bca:	0f b6 c0             	movzbl %al,%eax
    6bcd:	f6 75 f8             	divb   -0x8(%rbp)
    6bd0:	0f b6 c4             	movzbl %ah,%eax
    6bd3:	eb 04                	jmp    6bd9 <safe_mod_func_uint8_t_u_u+0x2b>
    6bd5:	0f b6 45 fc          	movzbl -0x4(%rbp),%eax
    6bd9:	5d                   	pop    %rbp
    6bda:	c3                   	retq   

0000000000006bdb <safe_div_func_uint8_t_u_u>:
    6bdb:	f3 0f 1e fa          	endbr64 
    6bdf:	55                   	push   %rbp
    6be0:	48 89 e5             	mov    %rsp,%rbp
    6be3:	89 fa                	mov    %edi,%edx
    6be5:	89 f0                	mov    %esi,%eax
    6be7:	88 55 fc             	mov    %dl,-0x4(%rbp)
    6bea:	88 45 f8             	mov    %al,-0x8(%rbp)
    6bed:	80 7d f8 00          	cmpb   $0x0,-0x8(%rbp)
    6bf1:	74 0c                	je     6bff <safe_div_func_uint8_t_u_u+0x24>
    6bf3:	0f b6 45 fc          	movzbl -0x4(%rbp),%eax
    6bf7:	0f b6 c0             	movzbl %al,%eax
    6bfa:	f6 75 f8             	divb   -0x8(%rbp)
    6bfd:	eb 04                	jmp    6c03 <safe_div_func_uint8_t_u_u+0x28>
    6bff:	0f b6 45 fc          	movzbl -0x4(%rbp),%eax
    6c03:	5d                   	pop    %rbp
    6c04:	c3                   	retq   

0000000000006c05 <safe_lshift_func_uint8_t_u_s>:
    6c05:	f3 0f 1e fa          	endbr64 
    6c09:	55                   	push   %rbp
    6c0a:	48 89 e5             	mov    %rsp,%rbp
    6c0d:	89 f8                	mov    %edi,%eax
    6c0f:	89 75 f8             	mov    %esi,-0x8(%rbp)
    6c12:	88 45 fc             	mov    %al,-0x4(%rbp)
    6c15:	83 7d f8 00          	cmpl   $0x0,-0x8(%rbp)
    6c19:	78 2b                	js     6c46 <safe_lshift_func_uint8_t_u_s+0x41>
    6c1b:	83 7d f8 1f          	cmpl   $0x1f,-0x8(%rbp)
    6c1f:	7f 25                	jg     6c46 <safe_lshift_func_uint8_t_u_s+0x41>
    6c21:	0f b6 55 fc          	movzbl -0x4(%rbp),%edx
    6c25:	8b 45 f8             	mov    -0x8(%rbp),%eax
    6c28:	be ff 00 00 00       	mov    $0xff,%esi
    6c2d:	89 c1                	mov    %eax,%ecx
    6c2f:	d3 fe                	sar    %cl,%esi
    6c31:	89 f0                	mov    %esi,%eax
    6c33:	39 c2                	cmp    %eax,%edx
    6c35:	7f 0f                	jg     6c46 <safe_lshift_func_uint8_t_u_s+0x41>
    6c37:	0f b6 55 fc          	movzbl -0x4(%rbp),%edx
    6c3b:	8b 45 f8             	mov    -0x8(%rbp),%eax
    6c3e:	89 c1                	mov    %eax,%ecx
    6c40:	d3 e2                	shl    %cl,%edx
    6c42:	89 d0                	mov    %edx,%eax
    6c44:	eb 04                	jmp    6c4a <safe_lshift_func_uint8_t_u_s+0x45>
    6c46:	0f b6 45 fc          	movzbl -0x4(%rbp),%eax
    6c4a:	5d                   	pop    %rbp
    6c4b:	c3                   	retq   

0000000000006c4c <safe_lshift_func_uint8_t_u_u>:
    6c4c:	f3 0f 1e fa          	endbr64 
    6c50:	55                   	push   %rbp
    6c51:	48 89 e5             	mov    %rsp,%rbp
    6c54:	89 f8                	mov    %edi,%eax
    6c56:	89 75 f8             	mov    %esi,-0x8(%rbp)
    6c59:	88 45 fc             	mov    %al,-0x4(%rbp)
    6c5c:	83 7d f8 1f          	cmpl   $0x1f,-0x8(%rbp)
    6c60:	77 25                	ja     6c87 <safe_lshift_func_uint8_t_u_u+0x3b>
    6c62:	0f b6 55 fc          	movzbl -0x4(%rbp),%edx
    6c66:	8b 45 f8             	mov    -0x8(%rbp),%eax
    6c69:	be ff 00 00 00       	mov    $0xff,%esi
    6c6e:	89 c1                	mov    %eax,%ecx
    6c70:	d3 fe                	sar    %cl,%esi
    6c72:	89 f0                	mov    %esi,%eax
    6c74:	39 c2                	cmp    %eax,%edx
    6c76:	7f 0f                	jg     6c87 <safe_lshift_func_uint8_t_u_u+0x3b>
    6c78:	0f b6 55 fc          	movzbl -0x4(%rbp),%edx
    6c7c:	8b 45 f8             	mov    -0x8(%rbp),%eax
    6c7f:	89 c1                	mov    %eax,%ecx
    6c81:	d3 e2                	shl    %cl,%edx
    6c83:	89 d0                	mov    %edx,%eax
    6c85:	eb 04                	jmp    6c8b <safe_lshift_func_uint8_t_u_u+0x3f>
    6c87:	0f b6 45 fc          	movzbl -0x4(%rbp),%eax
    6c8b:	5d                   	pop    %rbp
    6c8c:	c3                   	retq   

0000000000006c8d <safe_rshift_func_uint8_t_u_s>:
    6c8d:	f3 0f 1e fa          	endbr64 
    6c91:	55                   	push   %rbp
    6c92:	48 89 e5             	mov    %rsp,%rbp
    6c95:	89 f8                	mov    %edi,%eax
    6c97:	89 75 f8             	mov    %esi,-0x8(%rbp)
    6c9a:	88 45 fc             	mov    %al,-0x4(%rbp)
    6c9d:	83 7d f8 00          	cmpl   $0x0,-0x8(%rbp)
    6ca1:	78 15                	js     6cb8 <safe_rshift_func_uint8_t_u_s+0x2b>
    6ca3:	83 7d f8 1f          	cmpl   $0x1f,-0x8(%rbp)
    6ca7:	7f 0f                	jg     6cb8 <safe_rshift_func_uint8_t_u_s+0x2b>
    6ca9:	0f b6 55 fc          	movzbl -0x4(%rbp),%edx
    6cad:	8b 45 f8             	mov    -0x8(%rbp),%eax
    6cb0:	89 c1                	mov    %eax,%ecx
    6cb2:	d3 fa                	sar    %cl,%edx
    6cb4:	89 d0                	mov    %edx,%eax
    6cb6:	eb 04                	jmp    6cbc <safe_rshift_func_uint8_t_u_s+0x2f>
    6cb8:	0f b6 45 fc          	movzbl -0x4(%rbp),%eax
    6cbc:	5d                   	pop    %rbp
    6cbd:	c3                   	retq   

0000000000006cbe <safe_rshift_func_uint8_t_u_u>:
    6cbe:	f3 0f 1e fa          	endbr64 
    6cc2:	55                   	push   %rbp
    6cc3:	48 89 e5             	mov    %rsp,%rbp
    6cc6:	89 f8                	mov    %edi,%eax
    6cc8:	89 75 f8             	mov    %esi,-0x8(%rbp)
    6ccb:	88 45 fc             	mov    %al,-0x4(%rbp)
    6cce:	83 7d f8 1f          	cmpl   $0x1f,-0x8(%rbp)
    6cd2:	77 0f                	ja     6ce3 <safe_rshift_func_uint8_t_u_u+0x25>
    6cd4:	0f b6 55 fc          	movzbl -0x4(%rbp),%edx
    6cd8:	8b 45 f8             	mov    -0x8(%rbp),%eax
    6cdb:	89 c1                	mov    %eax,%ecx
    6cdd:	d3 fa                	sar    %cl,%edx
    6cdf:	89 d0                	mov    %edx,%eax
    6ce1:	eb 04                	jmp    6ce7 <safe_rshift_func_uint8_t_u_u+0x29>
    6ce3:	0f b6 45 fc          	movzbl -0x4(%rbp),%eax
    6ce7:	5d                   	pop    %rbp
    6ce8:	c3                   	retq   

0000000000006ce9 <safe_unary_minus_func_uint16_t_u>:
    6ce9:	f3 0f 1e fa          	endbr64 
    6ced:	55                   	push   %rbp
    6cee:	48 89 e5             	mov    %rsp,%rbp
    6cf1:	89 f8                	mov    %edi,%eax
    6cf3:	66 89 45 fc          	mov    %ax,-0x4(%rbp)
    6cf7:	0f b7 45 fc          	movzwl -0x4(%rbp),%eax
    6cfb:	f7 d8                	neg    %eax
    6cfd:	5d                   	pop    %rbp
    6cfe:	c3                   	retq   

0000000000006cff <safe_add_func_uint16_t_u_u>:
    6cff:	f3 0f 1e fa          	endbr64 
    6d03:	55                   	push   %rbp
    6d04:	48 89 e5             	mov    %rsp,%rbp
    6d07:	89 fa                	mov    %edi,%edx
    6d09:	89 f0                	mov    %esi,%eax
    6d0b:	66 89 55 fc          	mov    %dx,-0x4(%rbp)
    6d0f:	66 89 45 f8          	mov    %ax,-0x8(%rbp)
    6d13:	0f b7 55 fc          	movzwl -0x4(%rbp),%edx
    6d17:	0f b7 45 f8          	movzwl -0x8(%rbp),%eax
    6d1b:	01 d0                	add    %edx,%eax
    6d1d:	5d                   	pop    %rbp
    6d1e:	c3                   	retq   

0000000000006d1f <safe_sub_func_uint16_t_u_u>:
    6d1f:	f3 0f 1e fa          	endbr64 
    6d23:	55                   	push   %rbp
    6d24:	48 89 e5             	mov    %rsp,%rbp
    6d27:	89 fa                	mov    %edi,%edx
    6d29:	89 f0                	mov    %esi,%eax
    6d2b:	66 89 55 fc          	mov    %dx,-0x4(%rbp)
    6d2f:	66 89 45 f8          	mov    %ax,-0x8(%rbp)
    6d33:	0f b7 45 fc          	movzwl -0x4(%rbp),%eax
    6d37:	66 2b 45 f8          	sub    -0x8(%rbp),%ax
    6d3b:	5d                   	pop    %rbp
    6d3c:	c3                   	retq   

0000000000006d3d <safe_mul_func_uint16_t_u_u>:
    6d3d:	f3 0f 1e fa          	endbr64 
    6d41:	55                   	push   %rbp
    6d42:	48 89 e5             	mov    %rsp,%rbp
    6d45:	89 fa                	mov    %edi,%edx
    6d47:	89 f0                	mov    %esi,%eax
    6d49:	66 89 55 fc          	mov    %dx,-0x4(%rbp)
    6d4d:	66 89 45 f8          	mov    %ax,-0x8(%rbp)
    6d51:	0f b7 45 fc          	movzwl -0x4(%rbp),%eax
    6d55:	66 0f af 45 f8       	imul   -0x8(%rbp),%ax
    6d5a:	5d                   	pop    %rbp
    6d5b:	c3                   	retq   

0000000000006d5c <safe_mod_func_uint16_t_u_u>:
    6d5c:	f3 0f 1e fa          	endbr64 
    6d60:	55                   	push   %rbp
    6d61:	48 89 e5             	mov    %rsp,%rbp
    6d64:	89 fa                	mov    %edi,%edx
    6d66:	89 f0                	mov    %esi,%eax
    6d68:	66 89 55 fc          	mov    %dx,-0x4(%rbp)
    6d6c:	66 89 45 f8          	mov    %ax,-0x8(%rbp)
    6d70:	66 83 7d f8 00       	cmpw   $0x0,-0x8(%rbp)
    6d75:	74 11                	je     6d88 <safe_mod_func_uint16_t_u_u+0x2c>
    6d77:	0f b7 45 fc          	movzwl -0x4(%rbp),%eax
    6d7b:	ba 00 00 00 00       	mov    $0x0,%edx
    6d80:	66 f7 75 f8          	divw   -0x8(%rbp)
    6d84:	89 d0                	mov    %edx,%eax
    6d86:	eb 04                	jmp    6d8c <safe_mod_func_uint16_t_u_u+0x30>
    6d88:	0f b7 45 fc          	movzwl -0x4(%rbp),%eax
    6d8c:	5d                   	pop    %rbp
    6d8d:	c3                   	retq   

0000000000006d8e <safe_div_func_uint16_t_u_u>:
    6d8e:	f3 0f 1e fa          	endbr64 
    6d92:	55                   	push   %rbp
    6d93:	48 89 e5             	mov    %rsp,%rbp
    6d96:	89 fa                	mov    %edi,%edx
    6d98:	89 f0                	mov    %esi,%eax
    6d9a:	66 89 55 fc          	mov    %dx,-0x4(%rbp)
    6d9e:	66 89 45 f8          	mov    %ax,-0x8(%rbp)
    6da2:	66 83 7d f8 00       	cmpw   $0x0,-0x8(%rbp)
    6da7:	74 0f                	je     6db8 <safe_div_func_uint16_t_u_u+0x2a>
    6da9:	0f b7 45 fc          	movzwl -0x4(%rbp),%eax
    6dad:	ba 00 00 00 00       	mov    $0x0,%edx
    6db2:	66 f7 75 f8          	divw   -0x8(%rbp)
    6db6:	eb 04                	jmp    6dbc <safe_div_func_uint16_t_u_u+0x2e>
    6db8:	0f b7 45 fc          	movzwl -0x4(%rbp),%eax
    6dbc:	5d                   	pop    %rbp
    6dbd:	c3                   	retq   

0000000000006dbe <safe_lshift_func_uint16_t_u_s>:
    6dbe:	f3 0f 1e fa          	endbr64 
    6dc2:	55                   	push   %rbp
    6dc3:	48 89 e5             	mov    %rsp,%rbp
    6dc6:	89 f8                	mov    %edi,%eax
    6dc8:	89 75 f8             	mov    %esi,-0x8(%rbp)
    6dcb:	66 89 45 fc          	mov    %ax,-0x4(%rbp)
    6dcf:	83 7d f8 00          	cmpl   $0x0,-0x8(%rbp)
    6dd3:	78 2b                	js     6e00 <safe_lshift_func_uint16_t_u_s+0x42>
    6dd5:	83 7d f8 1f          	cmpl   $0x1f,-0x8(%rbp)
    6dd9:	7f 25                	jg     6e00 <safe_lshift_func_uint16_t_u_s+0x42>
    6ddb:	0f b7 55 fc          	movzwl -0x4(%rbp),%edx
    6ddf:	8b 45 f8             	mov    -0x8(%rbp),%eax
    6de2:	be ff ff 00 00       	mov    $0xffff,%esi
    6de7:	89 c1                	mov    %eax,%ecx
    6de9:	d3 fe                	sar    %cl,%esi
    6deb:	89 f0                	mov    %esi,%eax
    6ded:	39 c2                	cmp    %eax,%edx
    6def:	7f 0f                	jg     6e00 <safe_lshift_func_uint16_t_u_s+0x42>
    6df1:	0f b7 55 fc          	movzwl -0x4(%rbp),%edx
    6df5:	8b 45 f8             	mov    -0x8(%rbp),%eax
    6df8:	89 c1                	mov    %eax,%ecx
    6dfa:	d3 e2                	shl    %cl,%edx
    6dfc:	89 d0                	mov    %edx,%eax
    6dfe:	eb 04                	jmp    6e04 <safe_lshift_func_uint16_t_u_s+0x46>
    6e00:	0f b7 45 fc          	movzwl -0x4(%rbp),%eax
    6e04:	5d                   	pop    %rbp
    6e05:	c3                   	retq   

0000000000006e06 <safe_lshift_func_uint16_t_u_u>:
    6e06:	f3 0f 1e fa          	endbr64 
    6e0a:	55                   	push   %rbp
    6e0b:	48 89 e5             	mov    %rsp,%rbp
    6e0e:	89 f8                	mov    %edi,%eax
    6e10:	89 75 f8             	mov    %esi,-0x8(%rbp)
    6e13:	66 89 45 fc          	mov    %ax,-0x4(%rbp)
    6e17:	83 7d f8 1f          	cmpl   $0x1f,-0x8(%rbp)
    6e1b:	77 25                	ja     6e42 <safe_lshift_func_uint16_t_u_u+0x3c>
    6e1d:	0f b7 55 fc          	movzwl -0x4(%rbp),%edx
    6e21:	8b 45 f8             	mov    -0x8(%rbp),%eax
    6e24:	be ff ff 00 00       	mov    $0xffff,%esi
    6e29:	89 c1                	mov    %eax,%ecx
    6e2b:	d3 fe                	sar    %cl,%esi
    6e2d:	89 f0                	mov    %esi,%eax
    6e2f:	39 c2                	cmp    %eax,%edx
    6e31:	7f 0f                	jg     6e42 <safe_lshift_func_uint16_t_u_u+0x3c>
    6e33:	0f b7 55 fc          	movzwl -0x4(%rbp),%edx
    6e37:	8b 45 f8             	mov    -0x8(%rbp),%eax
    6e3a:	89 c1                	mov    %eax,%ecx
    6e3c:	d3 e2                	shl    %cl,%edx
    6e3e:	89 d0                	mov    %edx,%eax
    6e40:	eb 04                	jmp    6e46 <safe_lshift_func_uint16_t_u_u+0x40>
    6e42:	0f b7 45 fc          	movzwl -0x4(%rbp),%eax
    6e46:	5d                   	pop    %rbp
    6e47:	c3                   	retq   

0000000000006e48 <safe_rshift_func_uint16_t_u_s>:
    6e48:	f3 0f 1e fa          	endbr64 
    6e4c:	55                   	push   %rbp
    6e4d:	48 89 e5             	mov    %rsp,%rbp
    6e50:	89 f8                	mov    %edi,%eax
    6e52:	89 75 f8             	mov    %esi,-0x8(%rbp)
    6e55:	66 89 45 fc          	mov    %ax,-0x4(%rbp)
    6e59:	83 7d f8 00          	cmpl   $0x0,-0x8(%rbp)
    6e5d:	78 15                	js     6e74 <safe_rshift_func_uint16_t_u_s+0x2c>
    6e5f:	83 7d f8 1f          	cmpl   $0x1f,-0x8(%rbp)
    6e63:	7f 0f                	jg     6e74 <safe_rshift_func_uint16_t_u_s+0x2c>
    6e65:	0f b7 55 fc          	movzwl -0x4(%rbp),%edx
    6e69:	8b 45 f8             	mov    -0x8(%rbp),%eax
    6e6c:	89 c1                	mov    %eax,%ecx
    6e6e:	d3 fa                	sar    %cl,%edx
    6e70:	89 d0                	mov    %edx,%eax
    6e72:	eb 04                	jmp    6e78 <safe_rshift_func_uint16_t_u_s+0x30>
    6e74:	0f b7 45 fc          	movzwl -0x4(%rbp),%eax
    6e78:	5d                   	pop    %rbp
    6e79:	c3                   	retq   

0000000000006e7a <safe_rshift_func_uint16_t_u_u>:
    6e7a:	f3 0f 1e fa          	endbr64 
    6e7e:	55                   	push   %rbp
    6e7f:	48 89 e5             	mov    %rsp,%rbp
    6e82:	89 f8                	mov    %edi,%eax
    6e84:	89 75 f8             	mov    %esi,-0x8(%rbp)
    6e87:	66 89 45 fc          	mov    %ax,-0x4(%rbp)
    6e8b:	83 7d f8 1f          	cmpl   $0x1f,-0x8(%rbp)
    6e8f:	77 0f                	ja     6ea0 <safe_rshift_func_uint16_t_u_u+0x26>
    6e91:	0f b7 55 fc          	movzwl -0x4(%rbp),%edx
    6e95:	8b 45 f8             	mov    -0x8(%rbp),%eax
    6e98:	89 c1                	mov    %eax,%ecx
    6e9a:	d3 fa                	sar    %cl,%edx
    6e9c:	89 d0                	mov    %edx,%eax
    6e9e:	eb 04                	jmp    6ea4 <safe_rshift_func_uint16_t_u_u+0x2a>
    6ea0:	0f b7 45 fc          	movzwl -0x4(%rbp),%eax
    6ea4:	5d                   	pop    %rbp
    6ea5:	c3                   	retq   

0000000000006ea6 <safe_unary_minus_func_uint32_t_u>:
    6ea6:	f3 0f 1e fa          	endbr64 
    6eaa:	55                   	push   %rbp
    6eab:	48 89 e5             	mov    %rsp,%rbp
    6eae:	89 7d fc             	mov    %edi,-0x4(%rbp)
    6eb1:	8b 45 fc             	mov    -0x4(%rbp),%eax
    6eb4:	f7 d8                	neg    %eax
    6eb6:	5d                   	pop    %rbp
    6eb7:	c3                   	retq   

0000000000006eb8 <safe_add_func_uint32_t_u_u>:
    6eb8:	f3 0f 1e fa          	endbr64 
    6ebc:	55                   	push   %rbp
    6ebd:	48 89 e5             	mov    %rsp,%rbp
    6ec0:	89 7d fc             	mov    %edi,-0x4(%rbp)
    6ec3:	89 75 f8             	mov    %esi,-0x8(%rbp)
    6ec6:	8b 55 fc             	mov    -0x4(%rbp),%edx
    6ec9:	8b 45 f8             	mov    -0x8(%rbp),%eax
    6ecc:	01 d0                	add    %edx,%eax
    6ece:	5d                   	pop    %rbp
    6ecf:	c3                   	retq   

0000000000006ed0 <safe_sub_func_uint32_t_u_u>:
    6ed0:	f3 0f 1e fa          	endbr64 
    6ed4:	55                   	push   %rbp
    6ed5:	48 89 e5             	mov    %rsp,%rbp
    6ed8:	89 7d fc             	mov    %edi,-0x4(%rbp)
    6edb:	89 75 f8             	mov    %esi,-0x8(%rbp)
    6ede:	8b 45 fc             	mov    -0x4(%rbp),%eax
    6ee1:	2b 45 f8             	sub    -0x8(%rbp),%eax
    6ee4:	5d                   	pop    %rbp
    6ee5:	c3                   	retq   

0000000000006ee6 <safe_mul_func_uint32_t_u_u>:
    6ee6:	f3 0f 1e fa          	endbr64 
    6eea:	55                   	push   %rbp
    6eeb:	48 89 e5             	mov    %rsp,%rbp
    6eee:	89 7d fc             	mov    %edi,-0x4(%rbp)
    6ef1:	89 75 f8             	mov    %esi,-0x8(%rbp)
    6ef4:	8b 45 fc             	mov    -0x4(%rbp),%eax
    6ef7:	0f af 45 f8          	imul   -0x8(%rbp),%eax
    6efb:	5d                   	pop    %rbp
    6efc:	c3                   	retq   

0000000000006efd <safe_mod_func_uint32_t_u_u>:
    6efd:	f3 0f 1e fa          	endbr64 
    6f01:	55                   	push   %rbp
    6f02:	48 89 e5             	mov    %rsp,%rbp
    6f05:	89 7d fc             	mov    %edi,-0x4(%rbp)
    6f08:	89 75 f8             	mov    %esi,-0x8(%rbp)
    6f0b:	83 7d f8 00          	cmpl   $0x0,-0x8(%rbp)
    6f0f:	74 0f                	je     6f20 <safe_mod_func_uint32_t_u_u+0x23>
    6f11:	8b 45 fc             	mov    -0x4(%rbp),%eax
    6f14:	ba 00 00 00 00       	mov    $0x0,%edx
    6f19:	f7 75 f8             	divl   -0x8(%rbp)
    6f1c:	89 d0                	mov    %edx,%eax
    6f1e:	eb 03                	jmp    6f23 <safe_mod_func_uint32_t_u_u+0x26>
    6f20:	8b 45 fc             	mov    -0x4(%rbp),%eax
    6f23:	5d                   	pop    %rbp
    6f24:	c3                   	retq   

0000000000006f25 <safe_div_func_uint32_t_u_u>:
    6f25:	f3 0f 1e fa          	endbr64 
    6f29:	55                   	push   %rbp
    6f2a:	48 89 e5             	mov    %rsp,%rbp
    6f2d:	89 7d fc             	mov    %edi,-0x4(%rbp)
    6f30:	89 75 f8             	mov    %esi,-0x8(%rbp)
    6f33:	83 7d f8 00          	cmpl   $0x0,-0x8(%rbp)
    6f37:	74 0d                	je     6f46 <safe_div_func_uint32_t_u_u+0x21>
    6f39:	8b 45 fc             	mov    -0x4(%rbp),%eax
    6f3c:	ba 00 00 00 00       	mov    $0x0,%edx
    6f41:	f7 75 f8             	divl   -0x8(%rbp)
    6f44:	eb 03                	jmp    6f49 <safe_div_func_uint32_t_u_u+0x24>
    6f46:	8b 45 fc             	mov    -0x4(%rbp),%eax
    6f49:	5d                   	pop    %rbp
    6f4a:	c3                   	retq   

0000000000006f4b <safe_lshift_func_uint32_t_u_s>:
    6f4b:	f3 0f 1e fa          	endbr64 
    6f4f:	55                   	push   %rbp
    6f50:	48 89 e5             	mov    %rsp,%rbp
    6f53:	89 7d fc             	mov    %edi,-0x4(%rbp)
    6f56:	89 75 f8             	mov    %esi,-0x8(%rbp)
    6f59:	83 7d f8 00          	cmpl   $0x0,-0x8(%rbp)
    6f5d:	78 27                	js     6f86 <safe_lshift_func_uint32_t_u_s+0x3b>
    6f5f:	83 7d f8 1f          	cmpl   $0x1f,-0x8(%rbp)
    6f63:	7f 21                	jg     6f86 <safe_lshift_func_uint32_t_u_s+0x3b>
    6f65:	8b 45 f8             	mov    -0x8(%rbp),%eax
    6f68:	ba ff ff ff ff       	mov    $0xffffffff,%edx
    6f6d:	89 c1                	mov    %eax,%ecx
    6f6f:	d3 ea                	shr    %cl,%edx
    6f71:	89 d0                	mov    %edx,%eax
    6f73:	39 45 fc             	cmp    %eax,-0x4(%rbp)
    6f76:	77 0e                	ja     6f86 <safe_lshift_func_uint32_t_u_s+0x3b>
    6f78:	8b 45 f8             	mov    -0x8(%rbp),%eax
    6f7b:	8b 55 fc             	mov    -0x4(%rbp),%edx
    6f7e:	89 c1                	mov    %eax,%ecx
    6f80:	d3 e2                	shl    %cl,%edx
    6f82:	89 d0                	mov    %edx,%eax
    6f84:	eb 03                	jmp    6f89 <safe_lshift_func_uint32_t_u_s+0x3e>
    6f86:	8b 45 fc             	mov    -0x4(%rbp),%eax
    6f89:	5d                   	pop    %rbp
    6f8a:	c3                   	retq   

0000000000006f8b <safe_lshift_func_uint32_t_u_u>:
    6f8b:	f3 0f 1e fa          	endbr64 
    6f8f:	55                   	push   %rbp
    6f90:	48 89 e5             	mov    %rsp,%rbp
    6f93:	89 7d fc             	mov    %edi,-0x4(%rbp)
    6f96:	89 75 f8             	mov    %esi,-0x8(%rbp)
    6f99:	83 7d f8 1f          	cmpl   $0x1f,-0x8(%rbp)
    6f9d:	77 21                	ja     6fc0 <safe_lshift_func_uint32_t_u_u+0x35>
    6f9f:	8b 45 f8             	mov    -0x8(%rbp),%eax
    6fa2:	ba ff ff ff ff       	mov    $0xffffffff,%edx
    6fa7:	89 c1                	mov    %eax,%ecx
    6fa9:	d3 ea                	shr    %cl,%edx
    6fab:	89 d0                	mov    %edx,%eax
    6fad:	39 45 fc             	cmp    %eax,-0x4(%rbp)
    6fb0:	77 0e                	ja     6fc0 <safe_lshift_func_uint32_t_u_u+0x35>
    6fb2:	8b 45 f8             	mov    -0x8(%rbp),%eax
    6fb5:	8b 55 fc             	mov    -0x4(%rbp),%edx
    6fb8:	89 c1                	mov    %eax,%ecx
    6fba:	d3 e2                	shl    %cl,%edx
    6fbc:	89 d0                	mov    %edx,%eax
    6fbe:	eb 03                	jmp    6fc3 <safe_lshift_func_uint32_t_u_u+0x38>
    6fc0:	8b 45 fc             	mov    -0x4(%rbp),%eax
    6fc3:	5d                   	pop    %rbp
    6fc4:	c3                   	retq   

0000000000006fc5 <safe_rshift_func_uint32_t_u_s>:
    6fc5:	f3 0f 1e fa          	endbr64 
    6fc9:	55                   	push   %rbp
    6fca:	48 89 e5             	mov    %rsp,%rbp
    6fcd:	89 7d fc             	mov    %edi,-0x4(%rbp)
    6fd0:	89 75 f8             	mov    %esi,-0x8(%rbp)
    6fd3:	83 7d f8 00          	cmpl   $0x0,-0x8(%rbp)
    6fd7:	78 14                	js     6fed <safe_rshift_func_uint32_t_u_s+0x28>
    6fd9:	83 7d f8 1f          	cmpl   $0x1f,-0x8(%rbp)
    6fdd:	7f 0e                	jg     6fed <safe_rshift_func_uint32_t_u_s+0x28>
    6fdf:	8b 45 f8             	mov    -0x8(%rbp),%eax
    6fe2:	8b 55 fc             	mov    -0x4(%rbp),%edx
    6fe5:	89 c1                	mov    %eax,%ecx
    6fe7:	d3 ea                	shr    %cl,%edx
    6fe9:	89 d0                	mov    %edx,%eax
    6feb:	eb 03                	jmp    6ff0 <safe_rshift_func_uint32_t_u_s+0x2b>
    6fed:	8b 45 fc             	mov    -0x4(%rbp),%eax
    6ff0:	5d                   	pop    %rbp
    6ff1:	c3                   	retq   

0000000000006ff2 <safe_rshift_func_uint32_t_u_u>:
    6ff2:	f3 0f 1e fa          	endbr64 
    6ff6:	55                   	push   %rbp
    6ff7:	48 89 e5             	mov    %rsp,%rbp
    6ffa:	89 7d fc             	mov    %edi,-0x4(%rbp)
    6ffd:	89 75 f8             	mov    %esi,-0x8(%rbp)
    7000:	83 7d f8 1f          	cmpl   $0x1f,-0x8(%rbp)
    7004:	77 0e                	ja     7014 <safe_rshift_func_uint32_t_u_u+0x22>
    7006:	8b 45 f8             	mov    -0x8(%rbp),%eax
    7009:	8b 55 fc             	mov    -0x4(%rbp),%edx
    700c:	89 c1                	mov    %eax,%ecx
    700e:	d3 ea                	shr    %cl,%edx
    7010:	89 d0                	mov    %edx,%eax
    7012:	eb 03                	jmp    7017 <safe_rshift_func_uint32_t_u_u+0x25>
    7014:	8b 45 fc             	mov    -0x4(%rbp),%eax
    7017:	5d                   	pop    %rbp
    7018:	c3                   	retq   

0000000000007019 <safe_unary_minus_func_uint64_t_u>:
    7019:	f3 0f 1e fa          	endbr64 
    701d:	55                   	push   %rbp
    701e:	48 89 e5             	mov    %rsp,%rbp
    7021:	48 89 7d f8          	mov    %rdi,-0x8(%rbp)
    7025:	48 8b 45 f8          	mov    -0x8(%rbp),%rax
    7029:	48 f7 d8             	neg    %rax
    702c:	5d                   	pop    %rbp
    702d:	c3                   	retq   

000000000000702e <safe_add_func_uint64_t_u_u>:
    702e:	f3 0f 1e fa          	endbr64 
    7032:	55                   	push   %rbp
    7033:	48 89 e5             	mov    %rsp,%rbp
    7036:	48 89 7d f8          	mov    %rdi,-0x8(%rbp)
    703a:	48 89 75 f0          	mov    %rsi,-0x10(%rbp)
    703e:	48 8b 55 f8          	mov    -0x8(%rbp),%rdx
    7042:	48 8b 45 f0          	mov    -0x10(%rbp),%rax
    7046:	48 01 d0             	add    %rdx,%rax
    7049:	5d                   	pop    %rbp
    704a:	c3                   	retq   

000000000000704b <safe_sub_func_uint64_t_u_u>:
    704b:	f3 0f 1e fa          	endbr64 
    704f:	55                   	push   %rbp
    7050:	48 89 e5             	mov    %rsp,%rbp
    7053:	48 89 7d f8          	mov    %rdi,-0x8(%rbp)
    7057:	48 89 75 f0          	mov    %rsi,-0x10(%rbp)
    705b:	48 8b 45 f8          	mov    -0x8(%rbp),%rax
    705f:	48 2b 45 f0          	sub    -0x10(%rbp),%rax
    7063:	5d                   	pop    %rbp
    7064:	c3                   	retq   

0000000000007065 <safe_mul_func_uint64_t_u_u>:
    7065:	f3 0f 1e fa          	endbr64 
    7069:	55                   	push   %rbp
    706a:	48 89 e5             	mov    %rsp,%rbp
    706d:	48 89 7d f8          	mov    %rdi,-0x8(%rbp)
    7071:	48 89 75 f0          	mov    %rsi,-0x10(%rbp)
    7075:	48 8b 45 f8          	mov    -0x8(%rbp),%rax
    7079:	48 0f af 45 f0       	imul   -0x10(%rbp),%rax
    707e:	5d                   	pop    %rbp
    707f:	c3                   	retq   

0000000000007080 <safe_mod_func_uint64_t_u_u>:
    7080:	f3 0f 1e fa          	endbr64 
    7084:	55                   	push   %rbp
    7085:	48 89 e5             	mov    %rsp,%rbp
    7088:	48 89 7d f8          	mov    %rdi,-0x8(%rbp)
    708c:	48 89 75 f0          	mov    %rsi,-0x10(%rbp)
    7090:	48 83 7d f0 00       	cmpq   $0x0,-0x10(%rbp)
    7095:	74 12                	je     70a9 <safe_mod_func_uint64_t_u_u+0x29>
    7097:	48 8b 45 f8          	mov    -0x8(%rbp),%rax
    709b:	ba 00 00 00 00       	mov    $0x0,%edx
    70a0:	48 f7 75 f0          	divq   -0x10(%rbp)
    70a4:	48 89 d0             	mov    %rdx,%rax
    70a7:	eb 04                	jmp    70ad <safe_mod_func_uint64_t_u_u+0x2d>
    70a9:	48 8b 45 f8          	mov    -0x8(%rbp),%rax
    70ad:	5d                   	pop    %rbp
    70ae:	c3                   	retq   

00000000000070af <safe_div_func_uint64_t_u_u>:
    70af:	f3 0f 1e fa          	endbr64 
    70b3:	55                   	push   %rbp
    70b4:	48 89 e5             	mov    %rsp,%rbp
    70b7:	48 89 7d f8          	mov    %rdi,-0x8(%rbp)
    70bb:	48 89 75 f0          	mov    %rsi,-0x10(%rbp)
    70bf:	48 83 7d f0 00       	cmpq   $0x0,-0x10(%rbp)
    70c4:	74 0f                	je     70d5 <safe_div_func_uint64_t_u_u+0x26>
    70c6:	48 8b 45 f8          	mov    -0x8(%rbp),%rax
    70ca:	ba 00 00 00 00       	mov    $0x0,%edx
    70cf:	48 f7 75 f0          	divq   -0x10(%rbp)
    70d3:	eb 04                	jmp    70d9 <safe_div_func_uint64_t_u_u+0x2a>
    70d5:	48 8b 45 f8          	mov    -0x8(%rbp),%rax
    70d9:	5d                   	pop    %rbp
    70da:	c3                   	retq   

00000000000070db <safe_lshift_func_uint64_t_u_s>:
    70db:	f3 0f 1e fa          	endbr64 
    70df:	55                   	push   %rbp
    70e0:	48 89 e5             	mov    %rsp,%rbp
    70e3:	48 89 7d f8          	mov    %rdi,-0x8(%rbp)
    70e7:	89 75 f4             	mov    %esi,-0xc(%rbp)
    70ea:	83 7d f4 00          	cmpl   $0x0,-0xc(%rbp)
    70ee:	78 2f                	js     711f <safe_lshift_func_uint64_t_u_s+0x44>
    70f0:	83 7d f4 1f          	cmpl   $0x1f,-0xc(%rbp)
    70f4:	7f 29                	jg     711f <safe_lshift_func_uint64_t_u_s+0x44>
    70f6:	8b 45 f4             	mov    -0xc(%rbp),%eax
    70f9:	48 c7 c2 ff ff ff ff 	mov    $0xffffffffffffffff,%rdx
    7100:	89 c1                	mov    %eax,%ecx
    7102:	48 d3 ea             	shr    %cl,%rdx
    7105:	48 89 d0             	mov    %rdx,%rax
    7108:	48 39 45 f8          	cmp    %rax,-0x8(%rbp)
    710c:	77 11                	ja     711f <safe_lshift_func_uint64_t_u_s+0x44>
    710e:	8b 45 f4             	mov    -0xc(%rbp),%eax
    7111:	48 8b 55 f8          	mov    -0x8(%rbp),%rdx
    7115:	89 c1                	mov    %eax,%ecx
    7117:	48 d3 e2             	shl    %cl,%rdx
    711a:	48 89 d0             	mov    %rdx,%rax
    711d:	eb 04                	jmp    7123 <safe_lshift_func_uint64_t_u_s+0x48>
    711f:	48 8b 45 f8          	mov    -0x8(%rbp),%rax
    7123:	5d                   	pop    %rbp
    7124:	c3                   	retq   

0000000000007125 <safe_lshift_func_uint64_t_u_u>:
    7125:	f3 0f 1e fa          	endbr64 
    7129:	55                   	push   %rbp
    712a:	48 89 e5             	mov    %rsp,%rbp
    712d:	48 89 7d f8          	mov    %rdi,-0x8(%rbp)
    7131:	89 75 f4             	mov    %esi,-0xc(%rbp)
    7134:	83 7d f4 1f          	cmpl   $0x1f,-0xc(%rbp)
    7138:	77 29                	ja     7163 <safe_lshift_func_uint64_t_u_u+0x3e>
    713a:	8b 45 f4             	mov    -0xc(%rbp),%eax
    713d:	48 c7 c2 ff ff ff ff 	mov    $0xffffffffffffffff,%rdx
    7144:	89 c1                	mov    %eax,%ecx
    7146:	48 d3 ea             	shr    %cl,%rdx
    7149:	48 89 d0             	mov    %rdx,%rax
    714c:	48 39 45 f8          	cmp    %rax,-0x8(%rbp)
    7150:	77 11                	ja     7163 <safe_lshift_func_uint64_t_u_u+0x3e>
    7152:	8b 45 f4             	mov    -0xc(%rbp),%eax
    7155:	48 8b 55 f8          	mov    -0x8(%rbp),%rdx
    7159:	89 c1                	mov    %eax,%ecx
    715b:	48 d3 e2             	shl    %cl,%rdx
    715e:	48 89 d0             	mov    %rdx,%rax
    7161:	eb 04                	jmp    7167 <safe_lshift_func_uint64_t_u_u+0x42>
    7163:	48 8b 45 f8          	mov    -0x8(%rbp),%rax
    7167:	5d                   	pop    %rbp
    7168:	c3                   	retq   

0000000000007169 <safe_rshift_func_uint64_t_u_s>:
    7169:	f3 0f 1e fa          	endbr64 
    716d:	55                   	push   %rbp
    716e:	48 89 e5             	mov    %rsp,%rbp
    7171:	48 89 7d f8          	mov    %rdi,-0x8(%rbp)
    7175:	89 75 f4             	mov    %esi,-0xc(%rbp)
    7178:	83 7d f4 00          	cmpl   $0x0,-0xc(%rbp)
    717c:	78 17                	js     7195 <safe_rshift_func_uint64_t_u_s+0x2c>
    717e:	83 7d f4 1f          	cmpl   $0x1f,-0xc(%rbp)
    7182:	7f 11                	jg     7195 <safe_rshift_func_uint64_t_u_s+0x2c>
    7184:	8b 45 f4             	mov    -0xc(%rbp),%eax
    7187:	48 8b 55 f8          	mov    -0x8(%rbp),%rdx
    718b:	89 c1                	mov    %eax,%ecx
    718d:	48 d3 ea             	shr    %cl,%rdx
    7190:	48 89 d0             	mov    %rdx,%rax
    7193:	eb 04                	jmp    7199 <safe_rshift_func_uint64_t_u_s+0x30>
    7195:	48 8b 45 f8          	mov    -0x8(%rbp),%rax
    7199:	5d                   	pop    %rbp
    719a:	c3                   	retq   

000000000000719b <safe_rshift_func_uint64_t_u_u>:
    719b:	f3 0f 1e fa          	endbr64 
    719f:	55                   	push   %rbp
    71a0:	48 89 e5             	mov    %rsp,%rbp
    71a3:	48 89 7d f8          	mov    %rdi,-0x8(%rbp)
    71a7:	89 75 f4             	mov    %esi,-0xc(%rbp)
    71aa:	83 7d f4 1f          	cmpl   $0x1f,-0xc(%rbp)
    71ae:	77 11                	ja     71c1 <safe_rshift_func_uint64_t_u_u+0x26>
    71b0:	8b 45 f4             	mov    -0xc(%rbp),%eax
    71b3:	48 8b 55 f8          	mov    -0x8(%rbp),%rdx
    71b7:	89 c1                	mov    %eax,%ecx
    71b9:	48 d3 ea             	shr    %cl,%rdx
    71bc:	48 89 d0             	mov    %rdx,%rax
    71bf:	eb 04                	jmp    71c5 <safe_rshift_func_uint64_t_u_u+0x2a>
    71c1:	48 8b 45 f8          	mov    -0x8(%rbp),%rax
    71c5:	5d                   	pop    %rbp
    71c6:	c3                   	retq   

00000000000071c7 <safe_add_func_float_f_f>:
    71c7:	f3 0f 1e fa          	endbr64 
    71cb:	55                   	push   %rbp
    71cc:	48 89 e5             	mov    %rsp,%rbp
    71cf:	f3 0f 11 45 fc       	movss  %xmm0,-0x4(%rbp)
    71d4:	f3 0f 11 4d f8       	movss  %xmm1,-0x8(%rbp)
    71d9:	f3 0f 10 4d fc       	movss  -0x4(%rbp),%xmm1
    71de:	f3 0f 10 05 62 cf 00 	movss  0xcf62(%rip),%xmm0        # 14148 <l_1967.4846+0x18>
    71e5:	00 
    71e6:	f3 0f 59 c8          	mulss  %xmm0,%xmm1
    71ea:	f3 0f 10 55 f8       	movss  -0x8(%rbp),%xmm2
    71ef:	f3 0f 10 05 51 cf 00 	movss  0xcf51(%rip),%xmm0        # 14148 <l_1967.4846+0x18>
    71f6:	00 
    71f7:	f3 0f 59 c2          	mulss  %xmm2,%xmm0
    71fb:	f3 0f 58 c1          	addss  %xmm1,%xmm0
    71ff:	f3 0f 10 0d 49 cf 00 	movss  0xcf49(%rip),%xmm1        # 14150 <l_1967.4846+0x20>
    7206:	00 
    7207:	0f 54 c1             	andps  %xmm1,%xmm0
    720a:	0f 2f 05 4f cf 00 00 	comiss 0xcf4f(%rip),%xmm0        # 14160 <l_1967.4846+0x30>
    7211:	76 07                	jbe    721a <safe_add_func_float_f_f+0x53>
    7213:	f3 0f 10 45 fc       	movss  -0x4(%rbp),%xmm0
    7218:	eb 0a                	jmp    7224 <safe_add_func_float_f_f+0x5d>
    721a:	f3 0f 10 45 fc       	movss  -0x4(%rbp),%xmm0
    721f:	f3 0f 58 45 f8       	addss  -0x8(%rbp),%xmm0
    7224:	5d                   	pop    %rbp
    7225:	c3                   	retq   

0000000000007226 <safe_sub_func_float_f_f>:
    7226:	f3 0f 1e fa          	endbr64 
    722a:	55                   	push   %rbp
    722b:	48 89 e5             	mov    %rsp,%rbp
    722e:	f3 0f 11 45 fc       	movss  %xmm0,-0x4(%rbp)
    7233:	f3 0f 11 4d f8       	movss  %xmm1,-0x8(%rbp)
    7238:	f3 0f 10 4d fc       	movss  -0x4(%rbp),%xmm1
    723d:	f3 0f 10 05 03 cf 00 	movss  0xcf03(%rip),%xmm0        # 14148 <l_1967.4846+0x18>
    7244:	00 
    7245:	f3 0f 59 c1          	mulss  %xmm1,%xmm0
    7249:	f3 0f 10 55 f8       	movss  -0x8(%rbp),%xmm2
    724e:	f3 0f 10 0d f2 ce 00 	movss  0xcef2(%rip),%xmm1        # 14148 <l_1967.4846+0x18>
    7255:	00 
    7256:	f3 0f 59 ca          	mulss  %xmm2,%xmm1
    725a:	f3 0f 5c c1          	subss  %xmm1,%xmm0
    725e:	f3 0f 10 0d ea ce 00 	movss  0xceea(%rip),%xmm1        # 14150 <l_1967.4846+0x20>
    7265:	00 
    7266:	0f 54 c1             	andps  %xmm1,%xmm0
    7269:	0f 2f 05 f0 ce 00 00 	comiss 0xcef0(%rip),%xmm0        # 14160 <l_1967.4846+0x30>
    7270:	76 07                	jbe    7279 <safe_sub_func_float_f_f+0x53>
    7272:	f3 0f 10 45 fc       	movss  -0x4(%rbp),%xmm0
    7277:	eb 0a                	jmp    7283 <safe_sub_func_float_f_f+0x5d>
    7279:	f3 0f 10 45 fc       	movss  -0x4(%rbp),%xmm0
    727e:	f3 0f 5c 45 f8       	subss  -0x8(%rbp),%xmm0
    7283:	5d                   	pop    %rbp
    7284:	c3                   	retq   

0000000000007285 <safe_mul_func_float_f_f>:
    7285:	f3 0f 1e fa          	endbr64 
    7289:	55                   	push   %rbp
    728a:	48 89 e5             	mov    %rsp,%rbp
    728d:	f3 0f 11 45 fc       	movss  %xmm0,-0x4(%rbp)
    7292:	f3 0f 11 4d f8       	movss  %xmm1,-0x8(%rbp)
    7297:	f3 0f 10 4d fc       	movss  -0x4(%rbp),%xmm1
    729c:	f3 0f 10 05 c0 ce 00 	movss  0xcec0(%rip),%xmm0        # 14164 <l_1967.4846+0x34>
    72a3:	00 
    72a4:	f3 0f 59 c8          	mulss  %xmm0,%xmm1
    72a8:	f3 0f 10 55 f8       	movss  -0x8(%rbp),%xmm2
    72ad:	f3 0f 10 05 b3 ce 00 	movss  0xceb3(%rip),%xmm0        # 14168 <l_1967.4846+0x38>
    72b4:	00 
    72b5:	f3 0f 59 c2          	mulss  %xmm2,%xmm0
    72b9:	f3 0f 59 c1          	mulss  %xmm1,%xmm0
    72bd:	f3 0f 10 0d 8b ce 00 	movss  0xce8b(%rip),%xmm1        # 14150 <l_1967.4846+0x20>
    72c4:	00 
    72c5:	0f 54 c1             	andps  %xmm1,%xmm0
    72c8:	0f 2f 05 9d ce 00 00 	comiss 0xce9d(%rip),%xmm0        # 1416c <l_1967.4846+0x3c>
    72cf:	76 07                	jbe    72d8 <safe_mul_func_float_f_f+0x53>
    72d1:	f3 0f 10 45 fc       	movss  -0x4(%rbp),%xmm0
    72d6:	eb 0a                	jmp    72e2 <safe_mul_func_float_f_f+0x5d>
    72d8:	f3 0f 10 45 fc       	movss  -0x4(%rbp),%xmm0
    72dd:	f3 0f 59 45 f8       	mulss  -0x8(%rbp),%xmm0
    72e2:	5d                   	pop    %rbp
    72e3:	c3                   	retq   

00000000000072e4 <safe_div_func_float_f_f>:
    72e4:	f3 0f 1e fa          	endbr64 
    72e8:	55                   	push   %rbp
    72e9:	48 89 e5             	mov    %rsp,%rbp
    72ec:	f3 0f 11 45 fc       	movss  %xmm0,-0x4(%rbp)
    72f1:	f3 0f 11 4d f8       	movss  %xmm1,-0x8(%rbp)
    72f6:	f3 0f 10 45 f8       	movss  -0x8(%rbp),%xmm0
    72fb:	f3 0f 10 0d 4d ce 00 	movss  0xce4d(%rip),%xmm1        # 14150 <l_1967.4846+0x20>
    7302:	00 
    7303:	0f 54 c8             	andps  %xmm0,%xmm1
    7306:	f3 0f 10 05 62 ce 00 	movss  0xce62(%rip),%xmm0        # 14170 <l_1967.4846+0x40>
    730d:	00 
    730e:	0f 2f c1             	comiss %xmm1,%xmm0
    7311:	0f 97 c0             	seta   %al
    7314:	83 f0 01             	xor    $0x1,%eax
    7317:	84 c0                	test   %al,%al
    7319:	75 56                	jne    7371 <safe_div_func_float_f_f+0x8d>
    731b:	66 0f ef c0          	pxor   %xmm0,%xmm0
    731f:	0f 2e 45 f8          	ucomiss -0x8(%rbp),%xmm0
    7323:	7a 0a                	jp     732f <safe_div_func_float_f_f+0x4b>
    7325:	66 0f ef c0          	pxor   %xmm0,%xmm0
    7329:	0f 2e 45 f8          	ucomiss -0x8(%rbp),%xmm0
    732d:	74 4e                	je     737d <safe_div_func_float_f_f+0x99>
    732f:	f3 0f 10 4d fc       	movss  -0x4(%rbp),%xmm1
    7334:	f3 0f 10 05 38 ce 00 	movss  0xce38(%rip),%xmm0        # 14174 <l_1967.4846+0x44>
    733b:	00 
    733c:	f3 0f 59 c1          	mulss  %xmm1,%xmm0
    7340:	f3 0f 10 55 f8       	movss  -0x8(%rbp),%xmm2
    7345:	f3 0f 10 0d 2b ce 00 	movss  0xce2b(%rip),%xmm1        # 14178 <l_1967.4846+0x48>
    734c:	00 
    734d:	f3 0f 59 ca          	mulss  %xmm2,%xmm1
    7351:	f3 0f 5e c1          	divss  %xmm1,%xmm0
    7355:	f3 0f 10 0d f3 cd 00 	movss  0xcdf3(%rip),%xmm1        # 14150 <l_1967.4846+0x20>
    735c:	00 
    735d:	0f 54 c1             	andps  %xmm1,%xmm0
    7360:	0f 2f 05 15 ce 00 00 	comiss 0xce15(%rip),%xmm0        # 1417c <l_1967.4846+0x4c>
    7367:	0f 97 c0             	seta   %al
    736a:	83 f0 01             	xor    $0x1,%eax
    736d:	84 c0                	test   %al,%al
    736f:	74 0c                	je     737d <safe_div_func_float_f_f+0x99>
    7371:	f3 0f 10 45 fc       	movss  -0x4(%rbp),%xmm0
    7376:	f3 0f 5e 45 f8       	divss  -0x8(%rbp),%xmm0
    737b:	eb 05                	jmp    7382 <safe_div_func_float_f_f+0x9e>
    737d:	f3 0f 10 45 fc       	movss  -0x4(%rbp),%xmm0
    7382:	5d                   	pop    %rbp
    7383:	c3                   	retq   

0000000000007384 <safe_add_func_double_f_f>:
    7384:	f3 0f 1e fa          	endbr64 
    7388:	55                   	push   %rbp
    7389:	48 89 e5             	mov    %rsp,%rbp
    738c:	f2 0f 11 45 f8       	movsd  %xmm0,-0x8(%rbp)
    7391:	f2 0f 11 4d f0       	movsd  %xmm1,-0x10(%rbp)
    7396:	f2 0f 10 4d f8       	movsd  -0x8(%rbp),%xmm1
    739b:	f2 0f 10 05 dd cd 00 	movsd  0xcddd(%rip),%xmm0        # 14180 <l_1967.4846+0x50>
    73a2:	00 
    73a3:	f2 0f 59 c8          	mulsd  %xmm0,%xmm1
    73a7:	f2 0f 10 55 f0       	movsd  -0x10(%rbp),%xmm2
    73ac:	f2 0f 10 05 cc cd 00 	movsd  0xcdcc(%rip),%xmm0        # 14180 <l_1967.4846+0x50>
    73b3:	00 
    73b4:	f2 0f 59 c2          	mulsd  %xmm2,%xmm0
    73b8:	f2 0f 58 c1          	addsd  %xmm1,%xmm0
    73bc:	f3 0f 7e 0d cc cd 00 	movq   0xcdcc(%rip),%xmm1        # 14190 <l_1967.4846+0x60>
    73c3:	00 
    73c4:	66 0f 54 c1          	andpd  %xmm1,%xmm0
    73c8:	66 0f 2f 05 d0 cd 00 	comisd 0xcdd0(%rip),%xmm0        # 141a0 <l_1967.4846+0x70>
    73cf:	00 
    73d0:	76 07                	jbe    73d9 <safe_add_func_double_f_f+0x55>
    73d2:	f2 0f 10 45 f8       	movsd  -0x8(%rbp),%xmm0
    73d7:	eb 0a                	jmp    73e3 <safe_add_func_double_f_f+0x5f>
    73d9:	f2 0f 10 45 f8       	movsd  -0x8(%rbp),%xmm0
    73de:	f2 0f 58 45 f0       	addsd  -0x10(%rbp),%xmm0
    73e3:	5d                   	pop    %rbp
    73e4:	c3                   	retq   

00000000000073e5 <safe_sub_func_double_f_f>:
    73e5:	f3 0f 1e fa          	endbr64 
    73e9:	55                   	push   %rbp
    73ea:	48 89 e5             	mov    %rsp,%rbp
    73ed:	f2 0f 11 45 f8       	movsd  %xmm0,-0x8(%rbp)
    73f2:	f2 0f 11 4d f0       	movsd  %xmm1,-0x10(%rbp)
    73f7:	f2 0f 10 4d f8       	movsd  -0x8(%rbp),%xmm1
    73fc:	f2 0f 10 05 7c cd 00 	movsd  0xcd7c(%rip),%xmm0        # 14180 <l_1967.4846+0x50>
    7403:	00 
    7404:	f2 0f 59 c1          	mulsd  %xmm1,%xmm0
    7408:	f2 0f 10 55 f0       	movsd  -0x10(%rbp),%xmm2
    740d:	f2 0f 10 0d 6b cd 00 	movsd  0xcd6b(%rip),%xmm1        # 14180 <l_1967.4846+0x50>
    7414:	00 
    7415:	f2 0f 59 ca          	mulsd  %xmm2,%xmm1
    7419:	f2 0f 5c c1          	subsd  %xmm1,%xmm0
    741d:	f3 0f 7e 0d 6b cd 00 	movq   0xcd6b(%rip),%xmm1        # 14190 <l_1967.4846+0x60>
    7424:	00 
    7425:	66 0f 54 c1          	andpd  %xmm1,%xmm0
    7429:	66 0f 2f 05 6f cd 00 	comisd 0xcd6f(%rip),%xmm0        # 141a0 <l_1967.4846+0x70>
    7430:	00 
    7431:	76 07                	jbe    743a <safe_sub_func_double_f_f+0x55>
    7433:	f2 0f 10 45 f8       	movsd  -0x8(%rbp),%xmm0
    7438:	eb 0a                	jmp    7444 <safe_sub_func_double_f_f+0x5f>
    743a:	f2 0f 10 45 f8       	movsd  -0x8(%rbp),%xmm0
    743f:	f2 0f 5c 45 f0       	subsd  -0x10(%rbp),%xmm0
    7444:	5d                   	pop    %rbp
    7445:	c3                   	retq   

0000000000007446 <safe_mul_func_double_f_f>:
    7446:	f3 0f 1e fa          	endbr64 
    744a:	55                   	push   %rbp
    744b:	48 89 e5             	mov    %rsp,%rbp
    744e:	f2 0f 11 45 f8       	movsd  %xmm0,-0x8(%rbp)
    7453:	f2 0f 11 4d f0       	movsd  %xmm1,-0x10(%rbp)
    7458:	f2 0f 10 4d f8       	movsd  -0x8(%rbp),%xmm1
    745d:	f2 0f 10 05 43 cd 00 	movsd  0xcd43(%rip),%xmm0        # 141a8 <l_1967.4846+0x78>
    7464:	00 
    7465:	f2 0f 59 c8          	mulsd  %xmm0,%xmm1
    7469:	f2 0f 10 55 f0       	movsd  -0x10(%rbp),%xmm2
    746e:	f2 0f 10 05 3a cd 00 	movsd  0xcd3a(%rip),%xmm0        # 141b0 <l_1967.4846+0x80>
    7475:	00 
    7476:	f2 0f 59 c2          	mulsd  %xmm2,%xmm0
    747a:	f2 0f 59 c1          	mulsd  %xmm1,%xmm0
    747e:	f3 0f 7e 0d 0a cd 00 	movq   0xcd0a(%rip),%xmm1        # 14190 <l_1967.4846+0x60>
    7485:	00 
    7486:	66 0f 54 c1          	andpd  %xmm1,%xmm0
    748a:	66 0f 2f 05 26 cd 00 	comisd 0xcd26(%rip),%xmm0        # 141b8 <l_1967.4846+0x88>
    7491:	00 
    7492:	76 07                	jbe    749b <safe_mul_func_double_f_f+0x55>
    7494:	f2 0f 10 45 f8       	movsd  -0x8(%rbp),%xmm0
    7499:	eb 0a                	jmp    74a5 <safe_mul_func_double_f_f+0x5f>
    749b:	f2 0f 10 45 f8       	movsd  -0x8(%rbp),%xmm0
    74a0:	f2 0f 59 45 f0       	mulsd  -0x10(%rbp),%xmm0
    74a5:	5d                   	pop    %rbp
    74a6:	c3                   	retq   

00000000000074a7 <safe_div_func_double_f_f>:
    74a7:	f3 0f 1e fa          	endbr64 
    74ab:	55                   	push   %rbp
    74ac:	48 89 e5             	mov    %rsp,%rbp
    74af:	f2 0f 11 45 f8       	movsd  %xmm0,-0x8(%rbp)
    74b4:	f2 0f 11 4d f0       	movsd  %xmm1,-0x10(%rbp)
    74b9:	f2 0f 10 45 f0       	movsd  -0x10(%rbp),%xmm0
    74be:	f3 0f 7e 0d ca cc 00 	movq   0xccca(%rip),%xmm1        # 14190 <l_1967.4846+0x60>
    74c5:	00 
    74c6:	66 0f 54 c8          	andpd  %xmm0,%xmm1
    74ca:	f2 0f 10 05 ee cc 00 	movsd  0xccee(%rip),%xmm0        # 141c0 <l_1967.4846+0x90>
    74d1:	00 
    74d2:	66 0f 2f c1          	comisd %xmm1,%xmm0
    74d6:	0f 97 c0             	seta   %al
    74d9:	83 f0 01             	xor    $0x1,%eax
    74dc:	84 c0                	test   %al,%al
    74de:	75 5a                	jne    753a <safe_div_func_double_f_f+0x93>
    74e0:	66 0f ef c0          	pxor   %xmm0,%xmm0
    74e4:	66 0f 2e 45 f0       	ucomisd -0x10(%rbp),%xmm0
    74e9:	7a 0b                	jp     74f6 <safe_div_func_double_f_f+0x4f>
    74eb:	66 0f ef c0          	pxor   %xmm0,%xmm0
    74ef:	66 0f 2e 45 f0       	ucomisd -0x10(%rbp),%xmm0
    74f4:	74 50                	je     7546 <safe_div_func_double_f_f+0x9f>
    74f6:	f2 0f 10 4d f8       	movsd  -0x8(%rbp),%xmm1
    74fb:	f2 0f 10 05 c5 cc 00 	movsd  0xccc5(%rip),%xmm0        # 141c8 <l_1967.4846+0x98>
    7502:	00 
    7503:	f2 0f 59 c1          	mulsd  %xmm1,%xmm0
    7507:	f2 0f 10 55 f0       	movsd  -0x10(%rbp),%xmm2
    750c:	f2 0f 10 0d bc cc 00 	movsd  0xccbc(%rip),%xmm1        # 141d0 <l_1967.4846+0xa0>
    7513:	00 
    7514:	f2 0f 59 ca          	mulsd  %xmm2,%xmm1
    7518:	f2 0f 5e c1          	divsd  %xmm1,%xmm0
    751c:	f3 0f 7e 0d 6c cc 00 	movq   0xcc6c(%rip),%xmm1        # 14190 <l_1967.4846+0x60>
    7523:	00 
    7524:	66 0f 54 c1          	andpd  %xmm1,%xmm0
    7528:	66 0f 2f 05 a8 cc 00 	comisd 0xcca8(%rip),%xmm0        # 141d8 <l_1967.4846+0xa8>
    752f:	00 
    7530:	0f 97 c0             	seta   %al
    7533:	83 f0 01             	xor    $0x1,%eax
    7536:	84 c0                	test   %al,%al
    7538:	74 0c                	je     7546 <safe_div_func_double_f_f+0x9f>
    753a:	f2 0f 10 45 f8       	movsd  -0x8(%rbp),%xmm0
    753f:	f2 0f 5e 45 f0       	divsd  -0x10(%rbp),%xmm0
    7544:	eb 05                	jmp    754b <safe_div_func_double_f_f+0xa4>
    7546:	f2 0f 10 45 f8       	movsd  -0x8(%rbp),%xmm0
    754b:	5d                   	pop    %rbp
    754c:	c3                   	retq   

000000000000754d <safe_convert_func_float_to_int32_t>:
    754d:	f3 0f 1e fa          	endbr64 
    7551:	55                   	push   %rbp
    7552:	48 89 e5             	mov    %rsp,%rbp
    7555:	f3 0f 11 45 fc       	movss  %xmm0,-0x4(%rbp)
    755a:	f3 0f 10 05 7e cc 00 	movss  0xcc7e(%rip),%xmm0        # 141e0 <l_1967.4846+0xb0>
    7561:	00 
    7562:	0f 2f 45 fc          	comiss -0x4(%rbp),%xmm0
    7566:	0f 93 c0             	setae  %al
    7569:	83 f0 01             	xor    $0x1,%eax
    756c:	84 c0                	test   %al,%al
    756e:	74 21                	je     7591 <safe_convert_func_float_to_int32_t+0x44>
    7570:	f3 0f 10 45 fc       	movss  -0x4(%rbp),%xmm0
    7575:	0f 2f 05 68 cc 00 00 	comiss 0xcc68(%rip),%xmm0        # 141e4 <l_1967.4846+0xb4>
    757c:	0f 93 c0             	setae  %al
    757f:	83 f0 01             	xor    $0x1,%eax
    7582:	84 c0                	test   %al,%al
    7584:	74 0b                	je     7591 <safe_convert_func_float_to_int32_t+0x44>
    7586:	f3 0f 10 45 fc       	movss  -0x4(%rbp),%xmm0
    758b:	f3 0f 2c c0          	cvttss2si %xmm0,%eax
    758f:	eb 05                	jmp    7596 <safe_convert_func_float_to_int32_t+0x49>
    7591:	b8 ff ff ff 7f       	mov    $0x7fffffff,%eax
    7596:	5d                   	pop    %rbp
    7597:	c3                   	retq   

0000000000007598 <crc32_gentab>:
    7598:	f3 0f 1e fa          	endbr64 
    759c:	55                   	push   %rbp
    759d:	48 89 e5             	mov    %rsp,%rbp
    75a0:	c7 45 fc 20 83 b8 ed 	movl   $0xedb88320,-0x4(%rbp)
    75a7:	c7 45 f4 00 00 00 00 	movl   $0x0,-0xc(%rbp)
    75ae:	eb 51                	jmp    7601 <crc32_gentab+0x69>
    75b0:	8b 45 f4             	mov    -0xc(%rbp),%eax
    75b3:	89 45 f0             	mov    %eax,-0x10(%rbp)
    75b6:	c7 45 f8 08 00 00 00 	movl   $0x8,-0x8(%rbp)
    75bd:	eb 1e                	jmp    75dd <crc32_gentab+0x45>
    75bf:	8b 45 f0             	mov    -0x10(%rbp),%eax
    75c2:	83 e0 01             	and    $0x1,%eax
    75c5:	85 c0                	test   %eax,%eax
    75c7:	74 0d                	je     75d6 <crc32_gentab+0x3e>
    75c9:	8b 45 f0             	mov    -0x10(%rbp),%eax
    75cc:	d1 e8                	shr    %eax
    75ce:	33 45 fc             	xor    -0x4(%rbp),%eax
    75d1:	89 45 f0             	mov    %eax,-0x10(%rbp)
    75d4:	eb 03                	jmp    75d9 <crc32_gentab+0x41>
    75d6:	d1 6d f0             	shrl   -0x10(%rbp)
    75d9:	83 6d f8 01          	subl   $0x1,-0x8(%rbp)
    75dd:	83 7d f8 00          	cmpl   $0x0,-0x8(%rbp)
    75e1:	7f dc                	jg     75bf <crc32_gentab+0x27>
    75e3:	8b 45 f4             	mov    -0xc(%rbp),%eax
    75e6:	48 98                	cltq   
    75e8:	48 8d 0c 85 00 00 00 	lea    0x0(,%rax,4),%rcx
    75ef:	00 
    75f0:	48 8d 15 c9 25 01 00 	lea    0x125c9(%rip),%rdx        # 19bc0 <crc32_tab>
    75f7:	8b 45 f0             	mov    -0x10(%rbp),%eax
    75fa:	89 04 11             	mov    %eax,(%rcx,%rdx,1)
    75fd:	83 45 f4 01          	addl   $0x1,-0xc(%rbp)
    7601:	81 7d f4 ff 00 00 00 	cmpl   $0xff,-0xc(%rbp)
    7608:	7e a6                	jle    75b0 <crc32_gentab+0x18>
    760a:	90                   	nop
    760b:	90                   	nop
    760c:	5d                   	pop    %rbp
    760d:	c3                   	retq   

000000000000760e <crc32_byte>:
    760e:	f3 0f 1e fa          	endbr64 
    7612:	55                   	push   %rbp
    7613:	48 89 e5             	mov    %rsp,%rbp
    7616:	89 f8                	mov    %edi,%eax
    7618:	88 45 fc             	mov    %al,-0x4(%rbp)
    761b:	8b 05 ff f9 00 00    	mov    0xf9ff(%rip),%eax        # 17020 <crc32_context>
    7621:	c1 e8 08             	shr    $0x8,%eax
    7624:	89 c1                	mov    %eax,%ecx
    7626:	0f b6 55 fc          	movzbl -0x4(%rbp),%edx
    762a:	8b 05 f0 f9 00 00    	mov    0xf9f0(%rip),%eax        # 17020 <crc32_context>
    7630:	31 d0                	xor    %edx,%eax
    7632:	0f b6 c0             	movzbl %al,%eax
    7635:	89 c0                	mov    %eax,%eax
    7637:	48 8d 14 85 00 00 00 	lea    0x0(,%rax,4),%rdx
    763e:	00 
    763f:	48 8d 05 7a 25 01 00 	lea    0x1257a(%rip),%rax        # 19bc0 <crc32_tab>
    7646:	8b 04 02             	mov    (%rdx,%rax,1),%eax
    7649:	31 c8                	xor    %ecx,%eax
    764b:	89 05 cf f9 00 00    	mov    %eax,0xf9cf(%rip)        # 17020 <crc32_context>
    7651:	90                   	nop
    7652:	5d                   	pop    %rbp
    7653:	c3                   	retq   

0000000000007654 <crc32_8bytes>:
    7654:	f3 0f 1e fa          	endbr64 
    7658:	55                   	push   %rbp
    7659:	48 89 e5             	mov    %rsp,%rbp
    765c:	48 83 ec 08          	sub    $0x8,%rsp
    7660:	48 89 7d f8          	mov    %rdi,-0x8(%rbp)
    7664:	48 8b 45 f8          	mov    -0x8(%rbp),%rax
    7668:	0f b6 c0             	movzbl %al,%eax
    766b:	89 c7                	mov    %eax,%edi
    766d:	e8 9c ff ff ff       	callq  760e <crc32_byte>
    7672:	48 8b 45 f8          	mov    -0x8(%rbp),%rax
    7676:	48 c1 e8 08          	shr    $0x8,%rax
    767a:	0f b6 c0             	movzbl %al,%eax
    767d:	89 c7                	mov    %eax,%edi
    767f:	e8 8a ff ff ff       	callq  760e <crc32_byte>
    7684:	48 8b 45 f8          	mov    -0x8(%rbp),%rax
    7688:	48 c1 e8 10          	shr    $0x10,%rax
    768c:	0f b6 c0             	movzbl %al,%eax
    768f:	89 c7                	mov    %eax,%edi
    7691:	e8 78 ff ff ff       	callq  760e <crc32_byte>
    7696:	48 8b 45 f8          	mov    -0x8(%rbp),%rax
    769a:	48 c1 e8 18          	shr    $0x18,%rax
    769e:	0f b6 c0             	movzbl %al,%eax
    76a1:	89 c7                	mov    %eax,%edi
    76a3:	e8 66 ff ff ff       	callq  760e <crc32_byte>
    76a8:	48 8b 45 f8          	mov    -0x8(%rbp),%rax
    76ac:	48 c1 e8 20          	shr    $0x20,%rax
    76b0:	0f b6 c0             	movzbl %al,%eax
    76b3:	89 c7                	mov    %eax,%edi
    76b5:	e8 54 ff ff ff       	callq  760e <crc32_byte>
    76ba:	48 8b 45 f8          	mov    -0x8(%rbp),%rax
    76be:	48 c1 e8 28          	shr    $0x28,%rax
    76c2:	0f b6 c0             	movzbl %al,%eax
    76c5:	89 c7                	mov    %eax,%edi
    76c7:	e8 42 ff ff ff       	callq  760e <crc32_byte>
    76cc:	48 8b 45 f8          	mov    -0x8(%rbp),%rax
    76d0:	48 c1 e8 30          	shr    $0x30,%rax
    76d4:	0f b6 c0             	movzbl %al,%eax
    76d7:	89 c7                	mov    %eax,%edi
    76d9:	e8 30 ff ff ff       	callq  760e <crc32_byte>
    76de:	48 8b 45 f8          	mov    -0x8(%rbp),%rax
    76e2:	48 c1 e8 38          	shr    $0x38,%rax
    76e6:	0f b6 c0             	movzbl %al,%eax
    76e9:	89 c7                	mov    %eax,%edi
    76eb:	e8 1e ff ff ff       	callq  760e <crc32_byte>
    76f0:	90                   	nop
    76f1:	c9                   	leaveq 
    76f2:	c3                   	retq   

00000000000076f3 <transparent_crc>:
    76f3:	f3 0f 1e fa          	endbr64 
    76f7:	55                   	push   %rbp
    76f8:	48 89 e5             	mov    %rsp,%rbp
    76fb:	48 83 ec 20          	sub    $0x20,%rsp
    76ff:	48 89 7d f8          	mov    %rdi,-0x8(%rbp)
    7703:	48 89 75 f0          	mov    %rsi,-0x10(%rbp)
    7707:	89 55 ec             	mov    %edx,-0x14(%rbp)
    770a:	48 8b 45 f8          	mov    -0x8(%rbp),%rax
    770e:	48 89 c7             	mov    %rax,%rdi
    7711:	e8 3e ff ff ff       	callq  7654 <crc32_8bytes>
    7716:	83 7d ec 00          	cmpl   $0x0,-0x14(%rbp)
    771a:	74 22                	je     773e <transparent_crc+0x4b>
    771c:	8b 05 fe f8 00 00    	mov    0xf8fe(%rip),%eax        # 17020 <crc32_context>
    7722:	f7 d0                	not    %eax
    7724:	89 c2                	mov    %eax,%edx
    7726:	48 8b 45 f0          	mov    -0x10(%rbp),%rax
    772a:	48 89 c6             	mov    %rax,%rsi
    772d:	48 8d 3d fc a8 00 00 	lea    0xa8fc(%rip),%rdi        # 12030 <_IO_stdin_used+0x30>
    7734:	b8 00 00 00 00       	mov    $0x0,%eax
    7739:	e8 42 e9 ff ff       	callq  6080 <printf@plt>
    773e:	90                   	nop
    773f:	c9                   	leaveq 
    7740:	c3                   	retq   

0000000000007741 <transparent_crc_bytes>:
    7741:	f3 0f 1e fa          	endbr64 
    7745:	55                   	push   %rbp
    7746:	48 89 e5             	mov    %rsp,%rbp
    7749:	48 83 ec 30          	sub    $0x30,%rsp
    774d:	48 89 7d e8          	mov    %rdi,-0x18(%rbp)
    7751:	89 75 e4             	mov    %esi,-0x1c(%rbp)
    7754:	48 89 55 d8          	mov    %rdx,-0x28(%rbp)
    7758:	89 4d e0             	mov    %ecx,-0x20(%rbp)
    775b:	c7 45 fc 00 00 00 00 	movl   $0x0,-0x4(%rbp)
    7762:	eb 1e                	jmp    7782 <transparent_crc_bytes+0x41>
    7764:	8b 45 fc             	mov    -0x4(%rbp),%eax
    7767:	48 63 d0             	movslq %eax,%rdx
    776a:	48 8b 45 e8          	mov    -0x18(%rbp),%rax
    776e:	48 01 d0             	add    %rdx,%rax
    7771:	0f b6 00             	movzbl (%rax),%eax
    7774:	0f b6 c0             	movzbl %al,%eax
    7777:	89 c7                	mov    %eax,%edi
    7779:	e8 90 fe ff ff       	callq  760e <crc32_byte>
    777e:	83 45 fc 01          	addl   $0x1,-0x4(%rbp)
    7782:	8b 45 fc             	mov    -0x4(%rbp),%eax
    7785:	3b 45 e4             	cmp    -0x1c(%rbp),%eax
    7788:	7c da                	jl     7764 <transparent_crc_bytes+0x23>
    778a:	83 7d e0 00          	cmpl   $0x0,-0x20(%rbp)
    778e:	74 22                	je     77b2 <transparent_crc_bytes+0x71>
    7790:	8b 05 8a f8 00 00    	mov    0xf88a(%rip),%eax        # 17020 <crc32_context>
    7796:	f7 d0                	not    %eax
    7798:	89 c2                	mov    %eax,%edx
    779a:	48 8b 45 d8          	mov    -0x28(%rbp),%rax
    779e:	48 89 c6             	mov    %rax,%rsi
    77a1:	48 8d 3d 88 a8 00 00 	lea    0xa888(%rip),%rdi        # 12030 <_IO_stdin_used+0x30>
    77a8:	b8 00 00 00 00       	mov    $0x0,%eax
    77ad:	e8 ce e8 ff ff       	callq  6080 <printf@plt>
    77b2:	90                   	nop
    77b3:	c9                   	leaveq 
    77b4:	c3                   	retq   

00000000000077b5 <func_1>:
    77b5:	f3 0f 1e fa          	endbr64 
    77b9:	55                   	push   %rbp
    77ba:	48 89 e5             	mov    %rsp,%rbp
    77bd:	41 57                	push   %r15
    77bf:	41 56                	push   %r14
    77c1:	41 55                	push   %r13
    77c3:	41 54                	push   %r12
    77c5:	53                   	push   %rbx
    77c6:	48 81 ec e8 0e 00 00 	sub    $0xee8,%rsp
    77cd:	64 48 8b 04 25 28 00 	mov    %fs:0x28,%rax
    77d4:	00 00 
    77d6:	48 89 45 c8          	mov    %rax,-0x38(%rbp)
    77da:	31 c0                	xor    %eax,%eax
    77dc:	c6 85 14 f1 ff ff 05 	movb   $0x5,-0xeec(%rbp)
    77e3:	c7 85 5c f2 ff ff aa 	movl   $0x8c7fffaa,-0xda4(%rbp)
    77ea:	ff 7f 8c 
    77ed:	66 c7 85 36 f1 ff ff 	movw   $0xc5e6,-0xeca(%rbp)
    77f4:	e6 c5 
    77f6:	c7 85 90 f1 ff ff 06 	movl   $0x6,-0xe70(%rbp)
    77fd:	00 00 00 
    7800:	48 8d 05 71 0e 01 00 	lea    0x10e71(%rip),%rax        # 18678 <g_1070>
    7807:	48 89 85 40 f4 ff ff 	mov    %rax,-0xbc0(%rbp)
    780e:	48 c7 85 e0 f4 ff ff 	movq   $0x0,-0xb20(%rbp)
    7815:	00 00 00 00 
    7819:	48 c7 85 e8 f4 ff ff 	movq   $0x0,-0xb18(%rbp)
    7820:	00 00 00 00 
    7824:	48 c7 85 f0 f4 ff ff 	movq   $0x0,-0xb10(%rbp)
    782b:	00 00 00 00 
    782f:	48 c7 85 f8 f4 ff ff 	movq   $0x0,-0xb08(%rbp)
    7836:	00 00 00 00 
    783a:	48 c7 85 00 f5 ff ff 	movq   $0x0,-0xb00(%rbp)
    7841:	00 00 00 00 
    7845:	c7 85 58 f2 ff ff 34 	movl   $0xc6483d34,-0xda8(%rbp)
    784c:	3d 48 c6 
    784f:	48 8d 05 0e 00 01 00 	lea    0x1000e(%rip),%rax        # 17864 <g_2164>
    7856:	48 89 85 60 f2 ff ff 	mov    %rax,-0xda0(%rbp)
    785d:	c7 85 38 f1 ff ff 0c 	movl   $0x4f1f760c,-0xec8(%rbp)
    7864:	76 1f 4f 
    7867:	66 c7 85 34 f1 ff ff 	movw   $0x6772,-0xecc(%rbp)
    786e:	72 67 
    7870:	48 c7 85 00 f7 ff ff 	movq   $0x0,-0x900(%rbp)
    7877:	00 00 00 00 
    787b:	48 c7 85 08 f7 ff ff 	movq   $0x0,-0x8f8(%rbp)
    7882:	00 00 00 00 
    7886:	48 c7 85 10 f7 ff ff 	movq   $0x0,-0x8f0(%rbp)
    788d:	00 00 00 00 
    7891:	48 8d 05 c2 f7 00 00 	lea    0xf7c2(%rip),%rax        # 1705a <g_83+0xa>
    7898:	48 89 85 18 f7 ff ff 	mov    %rax,-0x8e8(%rbp)
    789f:	48 8d 05 67 ff 00 00 	lea    0xff67(%rip),%rax        # 1780d <g_963+0x3>
    78a6:	48 89 85 20 f7 ff ff 	mov    %rax,-0x8e0(%rbp)
    78ad:	48 8d 05 58 ff 00 00 	lea    0xff58(%rip),%rax        # 1780c <g_963+0x2>
    78b4:	48 89 85 28 f7 ff ff 	mov    %rax,-0x8d8(%rbp)
    78bb:	48 c7 85 30 f7 ff ff 	movq   $0x0,-0x8d0(%rbp)
    78c2:	00 00 00 00 
    78c6:	48 8d 05 40 ff 00 00 	lea    0xff40(%rip),%rax        # 1780d <g_963+0x3>
    78cd:	48 89 85 38 f7 ff ff 	mov    %rax,-0x8c8(%rbp)
    78d4:	48 8d 05 31 ff 00 00 	lea    0xff31(%rip),%rax        # 1780c <g_963+0x2>
    78db:	48 89 85 40 f7 ff ff 	mov    %rax,-0x8c0(%rbp)
    78e2:	48 c7 85 48 f7 ff ff 	movq   $0x0,-0x8b8(%rbp)
    78e9:	00 00 00 00 
    78ed:	48 c7 85 50 f7 ff ff 	movq   $0x0,-0x8b0(%rbp)
    78f4:	00 00 00 00 
    78f8:	48 c7 85 58 f7 ff ff 	movq   $0x0,-0x8a8(%rbp)
    78ff:	00 00 00 00 
    7903:	48 8d 05 6d fe 00 00 	lea    0xfe6d(%rip),%rax        # 17777 <g_831+0x37>
    790a:	48 89 85 60 f7 ff ff 	mov    %rax,-0x8a0(%rbp)
    7911:	48 8d 05 5f fe 00 00 	lea    0xfe5f(%rip),%rax        # 17777 <g_831+0x37>
    7918:	48 89 85 68 f7 ff ff 	mov    %rax,-0x898(%rbp)
    791f:	48 8d 05 34 f7 00 00 	lea    0xf734(%rip),%rax        # 1705a <g_83+0xa>
    7926:	48 89 85 70 f7 ff ff 	mov    %rax,-0x890(%rbp)
    792d:	48 c7 85 78 f7 ff ff 	movq   $0x0,-0x888(%rbp)
    7934:	00 00 00 00 
    7938:	48 8d 05 1b f7 00 00 	lea    0xf71b(%rip),%rax        # 1705a <g_83+0xa>
    793f:	48 89 85 80 f7 ff ff 	mov    %rax,-0x880(%rbp)
    7946:	48 c7 85 88 f7 ff ff 	movq   $0x0,-0x878(%rbp)
    794d:	00 00 00 00 
    7951:	48 c7 85 90 f7 ff ff 	movq   $0x0,-0x870(%rbp)
    7958:	00 00 00 00 
    795c:	48 8d 05 f7 f6 00 00 	lea    0xf6f7(%rip),%rax        # 1705a <g_83+0xa>
    7963:	48 89 85 98 f7 ff ff 	mov    %rax,-0x868(%rbp)
    796a:	48 c7 85 a0 f7 ff ff 	movq   $0x0,-0x860(%rbp)
    7971:	00 00 00 00 
    7975:	48 8d 05 de f6 00 00 	lea    0xf6de(%rip),%rax        # 1705a <g_83+0xa>
    797c:	48 89 85 a8 f7 ff ff 	mov    %rax,-0x858(%rbp)
    7983:	48 8d 05 ed fd 00 00 	lea    0xfded(%rip),%rax        # 17777 <g_831+0x37>
    798a:	48 89 85 b0 f7 ff ff 	mov    %rax,-0x850(%rbp)
    7991:	48 8d 05 df fd 00 00 	lea    0xfddf(%rip),%rax        # 17777 <g_831+0x37>
    7998:	48 89 85 b8 f7 ff ff 	mov    %rax,-0x848(%rbp)
    799f:	c7 85 38 f2 ff ff 00 	movl   $0x0,-0xdc8(%rbp)
    79a6:	00 00 00 
    79a9:	66 c7 85 32 f1 ff ff 	movw   $0x0,-0xece(%rbp)
    79b0:	00 00 
    79b2:	66 c7 85 70 f4 ff ff 	movw   $0x441,-0xb90(%rbp)
    79b9:	41 04 
    79bb:	c6 85 72 f4 ff ff 01 	movb   $0x1,-0xb8e(%rbp)
    79c2:	66 c7 85 73 f4 ff ff 	movw   $0x4ff,-0xb8d(%rbp)
    79c9:	ff 04 
    79cb:	c6 85 75 f4 ff ff ff 	movb   $0xff,-0xb8b(%rbp)
    79d2:	66 c7 85 76 f4 ff ff 	movw   $0x41ff,-0xb8a(%rbp)
    79d9:	ff 41 
    79db:	c6 85 78 f4 ff ff 01 	movb   $0x1,-0xb88(%rbp)
    79e2:	66 c7 85 79 f4 ff ff 	movw   $0xffff,-0xb87(%rbp)
    79e9:	ff ff 
    79eb:	c6 85 7b f4 ff ff 41 	movb   $0x41,-0xb85(%rbp)
    79f2:	66 c7 85 7c f4 ff ff 	movw   $0x41ff,-0xb84(%rbp)
    79f9:	ff 41 
    79fb:	c6 85 7e f4 ff ff 41 	movb   $0x41,-0xb82(%rbp)
    7a02:	66 c7 85 7f f4 ff ff 	movw   $0x441,-0xb81(%rbp)
    7a09:	41 04 
    7a0b:	c6 85 81 f4 ff ff 01 	movb   $0x1,-0xb7f(%rbp)
    7a12:	c7 85 54 f2 ff ff 32 	movl   $0x51876132,-0xdac(%rbp)
    7a19:	61 87 51 
    7a1c:	48 c7 85 38 f4 ff ff 	movq   $0x0,-0xbc8(%rbp)
    7a23:	00 00 00 00 
    7a27:	48 8d 05 12 f6 00 00 	lea    0xf612(%rip),%rax        # 17040 <g_76>
    7a2e:	48 89 85 68 f2 ff ff 	mov    %rax,-0xd98(%rbp)
    7a35:	48 8d 85 68 f2 ff ff 	lea    -0xd98(%rbp),%rax
    7a3c:	48 89 85 70 f2 ff ff 	mov    %rax,-0xd90(%rbp)
    7a43:	48 8d 85 70 f2 ff ff 	lea    -0xd90(%rbp),%rax
    7a4a:	48 89 85 78 f2 ff ff 	mov    %rax,-0xd88(%rbp)
    7a51:	c7 85 50 f2 ff ff 57 	movl   $0xd20f2c57,-0xdb0(%rbp)
    7a58:	2c 0f d2 
    7a5b:	48 8d 05 ae 0c 01 00 	lea    0x10cae(%rip),%rax        # 18710 <g_1205>
    7a62:	48 89 85 b0 f5 ff ff 	mov    %rax,-0xa50(%rbp)
    7a69:	48 8d 05 a0 0c 01 00 	lea    0x10ca0(%rip),%rax        # 18710 <g_1205>
    7a70:	48 89 85 b8 f5 ff ff 	mov    %rax,-0xa48(%rbp)
    7a77:	48 8d 05 92 0c 01 00 	lea    0x10c92(%rip),%rax        # 18710 <g_1205>
    7a7e:	48 89 85 c0 f5 ff ff 	mov    %rax,-0xa40(%rbp)
    7a85:	48 8d 05 84 0c 01 00 	lea    0x10c84(%rip),%rax        # 18710 <g_1205>
    7a8c:	48 89 85 c8 f5 ff ff 	mov    %rax,-0xa38(%rbp)
    7a93:	48 8d 05 76 0c 01 00 	lea    0x10c76(%rip),%rax        # 18710 <g_1205>
    7a9a:	48 89 85 d0 f5 ff ff 	mov    %rax,-0xa30(%rbp)
    7aa1:	48 8d 05 68 0c 01 00 	lea    0x10c68(%rip),%rax        # 18710 <g_1205>
    7aa8:	48 89 85 d8 f5 ff ff 	mov    %rax,-0xa28(%rbp)
    7aaf:	48 8d 05 5a 0c 01 00 	lea    0x10c5a(%rip),%rax        # 18710 <g_1205>
    7ab6:	48 89 85 e0 f5 ff ff 	mov    %rax,-0xa20(%rbp)
    7abd:	48 8d 05 4c 0c 01 00 	lea    0x10c4c(%rip),%rax        # 18710 <g_1205>
    7ac4:	48 89 85 e8 f5 ff ff 	mov    %rax,-0xa18(%rbp)
    7acb:	48 8d 05 3e 0c 01 00 	lea    0x10c3e(%rip),%rax        # 18710 <g_1205>
    7ad2:	48 89 85 f0 f5 ff ff 	mov    %rax,-0xa10(%rbp)
    7ad9:	c6 85 20 f1 ff ff f9 	movb   $0xf9,-0xee0(%rbp)
    7ae0:	c7 85 48 f2 ff ff ff 	movl   $0xffffffff,-0xdb8(%rbp)
    7ae7:	ff ff ff 
    7aea:	48 b8 1d f7 1a e9 16 	movabs $0xa9af1c16e91af71d,%rax
    7af1:	1c af a9 
    7af4:	48 89 85 20 f3 ff ff 	mov    %rax,-0xce0(%rbp)
    7afb:	48 8d 05 f6 fc 00 00 	lea    0xfcf6(%rip),%rax        # 177f8 <g_876>
    7b02:	48 89 85 80 f2 ff ff 	mov    %rax,-0xd80(%rbp)
    7b09:	48 8d 05 88 0c 01 00 	lea    0x10c88(%rip),%rax        # 18798 <g_1926>
    7b10:	48 89 85 10 f5 ff ff 	mov    %rax,-0xaf0(%rbp)
    7b17:	48 8d 05 7a 0c 01 00 	lea    0x10c7a(%rip),%rax        # 18798 <g_1926>
    7b1e:	48 89 85 18 f5 ff ff 	mov    %rax,-0xae8(%rbp)
    7b25:	48 8d 05 6c 0c 01 00 	lea    0x10c6c(%rip),%rax        # 18798 <g_1926>
    7b2c:	48 89 85 20 f5 ff ff 	mov    %rax,-0xae0(%rbp)
    7b33:	48 8d 05 5e 0c 01 00 	lea    0x10c5e(%rip),%rax        # 18798 <g_1926>
    7b3a:	48 89 85 28 f5 ff ff 	mov    %rax,-0xad8(%rbp)
    7b41:	48 8d 05 50 0c 01 00 	lea    0x10c50(%rip),%rax        # 18798 <g_1926>
    7b48:	48 89 85 30 f5 ff ff 	mov    %rax,-0xad0(%rbp)
    7b4f:	c6 85 21 f1 ff ff 22 	movb   $0x22,-0xedf(%rbp)
    7b56:	c7 85 4c f2 ff ff 01 	movl   $0x1,-0xdb4(%rbp)
    7b5d:	00 00 00 
    7b60:	48 c7 85 88 f2 ff ff 	movq   $0x0,-0xd78(%rbp)
    7b67:	00 00 00 00 
    7b6b:	c7 85 88 f2 ff ff b9 	movl   $0x382d94b9,-0xd78(%rbp)
    7b72:	94 2d 38 
    7b75:	48 c7 85 30 f4 ff ff 	movq   $0x0,-0xbd0(%rbp)
    7b7c:	00 00 00 00 
    7b80:	48 c7 85 90 f2 ff ff 	movq   $0x0,-0xd70(%rbp)
    7b87:	00 00 00 00 
    7b8b:	c7 85 68 f1 ff ff 2c 	movl   $0x9bfc3a2c,-0xe98(%rbp)
    7b92:	3a fc 9b 
    7b95:	66 c7 85 b0 f4 ff ff 	movw   $0x2ced,-0xb50(%rbp)
    7b9c:	ed 2c 
    7b9e:	66 c7 85 b2 f4 ff ff 	movw   $0x1,-0xb4e(%rbp)
    7ba5:	01 00 
    7ba7:	66 c7 85 b4 f4 ff ff 	movw   $0x2ced,-0xb4c(%rbp)
    7bae:	ed 2c 
    7bb0:	66 c7 85 b6 f4 ff ff 	movw   $0x2ced,-0xb4a(%rbp)
    7bb7:	ed 2c 
    7bb9:	66 c7 85 b8 f4 ff ff 	movw   $0x1,-0xb48(%rbp)
    7bc0:	01 00 
    7bc2:	66 c7 85 ba f4 ff ff 	movw   $0x2ced,-0xb46(%rbp)
    7bc9:	ed 2c 
    7bcb:	66 c7 85 bc f4 ff ff 	movw   $0x2ced,-0xb44(%rbp)
    7bd2:	ed 2c 
    7bd4:	66 c7 85 be f4 ff ff 	movw   $0x1,-0xb42(%rbp)
    7bdb:	01 00 
    7bdd:	66 c7 85 c0 f4 ff ff 	movw   $0x2ced,-0xb40(%rbp)
    7be4:	ed 2c 
    7be6:	66 c7 85 c2 f4 ff ff 	movw   $0x2ced,-0xb3e(%rbp)
    7bed:	ed 2c 
    7bef:	66 c7 85 c4 f4 ff ff 	movw   $0x1,-0xb3c(%rbp)
    7bf6:	01 00 
    7bf8:	66 c7 85 c6 f4 ff ff 	movw   $0x2ced,-0xb3a(%rbp)
    7bff:	ed 2c 
    7c01:	66 c7 85 c8 f4 ff ff 	movw   $0x2ced,-0xb38(%rbp)
    7c08:	ed 2c 
    7c0a:	66 c7 85 ca f4 ff ff 	movw   $0x1,-0xb36(%rbp)
    7c11:	01 00 
    7c13:	66 c7 85 cc f4 ff ff 	movw   $0x2ced,-0xb34(%rbp)
    7c1a:	ed 2c 
    7c1c:	66 c7 85 ce f4 ff ff 	movw   $0x2ced,-0xb32(%rbp)
    7c23:	ed 2c 
    7c25:	66 c7 85 d0 f4 ff ff 	movw   $0x1,-0xb30(%rbp)
    7c2c:	01 00 
    7c2e:	66 c7 85 d2 f4 ff ff 	movw   $0x2ced,-0xb2e(%rbp)
    7c35:	ed 2c 
    7c37:	48 c7 85 00 f4 ff ff 	movq   $0x0,-0xc00(%rbp)
    7c3e:	00 00 00 00 
    7c42:	48 8d 05 77 0b 01 00 	lea    0x10b77(%rip),%rax        # 187c0 <g_1944>
    7c49:	48 89 85 98 f2 ff ff 	mov    %rax,-0xd68(%rbp)
    7c50:	48 8d 85 98 f2 ff ff 	lea    -0xd68(%rbp),%rax
    7c57:	48 89 85 08 f4 ff ff 	mov    %rax,-0xbf8(%rbp)
    7c5e:	48 8d 05 53 16 01 00 	lea    0x11653(%rip),%rax        # 192b8 <g_3172+0x58>
    7c65:	48 89 85 10 f4 ff ff 	mov    %rax,-0xbf0(%rbp)
    7c6c:	c7 85 44 f2 ff ff 03 	movl   $0x3,-0xdbc(%rbp)
    7c73:	00 00 00 
    7c76:	66 c7 85 30 f1 ff ff 	movw   $0x8aaa,-0xed0(%rbp)
    7c7d:	aa 8a 
    7c7f:	48 8d 05 2e f6 00 00 	lea    0xf62e(%rip),%rax        # 172b4 <g_564+0x4>
    7c86:	48 89 85 40 f5 ff ff 	mov    %rax,-0xac0(%rbp)
    7c8d:	48 8d 05 20 f6 00 00 	lea    0xf620(%rip),%rax        # 172b4 <g_564+0x4>
    7c94:	48 89 85 48 f5 ff ff 	mov    %rax,-0xab8(%rbp)
    7c9b:	48 8d 05 12 f6 00 00 	lea    0xf612(%rip),%rax        # 172b4 <g_564+0x4>
    7ca2:	48 89 85 50 f5 ff ff 	mov    %rax,-0xab0(%rbp)
    7ca9:	48 8d 05 04 f6 00 00 	lea    0xf604(%rip),%rax        # 172b4 <g_564+0x4>
    7cb0:	48 89 85 58 f5 ff ff 	mov    %rax,-0xaa8(%rbp)
    7cb7:	48 8d 05 f6 f5 00 00 	lea    0xf5f6(%rip),%rax        # 172b4 <g_564+0x4>
    7cbe:	48 89 85 60 f5 ff ff 	mov    %rax,-0xaa0(%rbp)
    7cc5:	48 8d 05 e8 f5 00 00 	lea    0xf5e8(%rip),%rax        # 172b4 <g_564+0x4>
    7ccc:	48 89 85 68 f5 ff ff 	mov    %rax,-0xa98(%rbp)
    7cd3:	c6 85 1e f1 ff ff d9 	movb   $0xd9,-0xee2(%rbp)
    7cda:	48 8d 85 e0 f4 ff ff 	lea    -0xb20(%rbp),%rax
    7ce1:	48 83 c0 18          	add    $0x18,%rax
    7ce5:	48 89 85 18 f4 ff ff 	mov    %rax,-0xbe8(%rbp)
    7cec:	48 c7 85 20 f4 ff ff 	movq   $0x0,-0xbe0(%rbp)
    7cf3:	00 00 00 00 
    7cf7:	48 8d 85 c0 f7 ff ff 	lea    -0x840(%rbp),%rax
    7cfe:	48 8d 15 fb a3 00 00 	lea    0xa3fb(%rip),%rdx        # 12100 <g_2958+0x40>
    7d05:	b9 1f 00 00 00       	mov    $0x1f,%ecx
    7d0a:	48 89 c7             	mov    %rax,%rdi
    7d0d:	48 89 d6             	mov    %rdx,%rsi
    7d10:	f3 48 a5             	rep movsq %ds:(%rsi),%es:(%rdi)
    7d13:	48 89 f2             	mov    %rsi,%rdx
    7d16:	48 89 f8             	mov    %rdi,%rax
    7d19:	8b 0a                	mov    (%rdx),%ecx
    7d1b:	89 08                	mov    %ecx,(%rax)
    7d1d:	c6 85 1f f1 ff ff 05 	movb   $0x5,-0xee1(%rbp)
    7d24:	c7 85 58 f1 ff ff ff 	movl   $0xffffffff,-0xea8(%rbp)
    7d2b:	ff ff ff 
    7d2e:	c7 85 54 f1 ff ff 00 	movl   $0x0,-0xeac(%rbp)
    7d35:	00 00 00 
    7d38:	eb 14                	jmp    7d4e <func_1+0x599>
    7d3a:	8b 85 54 f1 ff ff    	mov    -0xeac(%rbp),%eax
    7d40:	48 98                	cltq   
    7d42:	c6 44 05 bf 21       	movb   $0x21,-0x41(%rbp,%rax,1)
    7d47:	83 85 54 f1 ff ff 01 	addl   $0x1,-0xeac(%rbp)
    7d4e:	83 bd 54 f1 ff ff 08 	cmpl   $0x8,-0xeac(%rbp)
    7d55:	7e e3                	jle    7d3a <func_1+0x585>
    7d57:	c7 85 54 f1 ff ff 00 	movl   $0x0,-0xeac(%rbp)
    7d5e:	00 00 00 
    7d61:	eb 1a                	jmp    7d7d <func_1+0x5c8>
    7d63:	8b 85 54 f1 ff ff    	mov    -0xeac(%rbp),%eax
    7d69:	48 98                	cltq   
    7d6b:	c7 84 85 50 f4 ff ff 	movl   $0x1,-0xbb0(%rbp,%rax,4)
    7d72:	01 00 00 00 
    7d76:	83 85 54 f1 ff ff 01 	addl   $0x1,-0xeac(%rbp)
    7d7d:	83 bd 54 f1 ff ff 03 	cmpl   $0x3,-0xeac(%rbp)
    7d84:	7e dd                	jle    7d63 <func_1+0x5ae>
    7d86:	c7 85 54 f1 ff ff 00 	movl   $0x0,-0xeac(%rbp)
    7d8d:	00 00 00 
    7d90:	eb 4d                	jmp    7ddf <func_1+0x62a>
    7d92:	c7 85 50 f1 ff ff 00 	movl   $0x0,-0xeb0(%rbp)
    7d99:	00 00 00 
    7d9c:	eb 31                	jmp    7dcf <func_1+0x61a>
    7d9e:	8b 85 50 f1 ff ff    	mov    -0xeb0(%rbp),%eax
    7da4:	48 63 c8             	movslq %eax,%rcx
    7da7:	8b 85 54 f1 ff ff    	mov    -0xeac(%rbp),%eax
    7dad:	48 63 d0             	movslq %eax,%rdx
    7db0:	48 89 d0             	mov    %rdx,%rax
    7db3:	48 01 c0             	add    %rax,%rax
    7db6:	48 01 d0             	add    %rdx,%rax
    7db9:	48 01 c8             	add    %rcx,%rax
    7dbc:	48 c7 84 c5 90 f4 ff 	movq   $0x0,-0xb70(%rbp,%rax,8)
    7dc3:	ff 00 00 00 00 
    7dc8:	83 85 50 f1 ff ff 01 	addl   $0x1,-0xeb0(%rbp)
    7dcf:	83 bd 50 f1 ff ff 02 	cmpl   $0x2,-0xeb0(%rbp)
    7dd6:	7e c6                	jle    7d9e <func_1+0x5e9>
    7dd8:	83 85 54 f1 ff ff 01 	addl   $0x1,-0xeac(%rbp)
    7ddf:	83 bd 54 f1 ff ff 00 	cmpl   $0x0,-0xeac(%rbp)
    7de6:	7e aa                	jle    7d92 <func_1+0x5dd>
    7de8:	0f b6 85 14 f1 ff ff 	movzbl -0xeec(%rbp),%eax
    7def:	84 c0                	test   %al,%al
    7df1:	0f 84 5c 0f 00 00    	je     8d53 <func_1+0x159e>
    7df7:	48 8d 85 14 f1 ff ff 	lea    -0xeec(%rbp),%rax
    7dfe:	48 89 85 a0 f2 ff ff 	mov    %rax,-0xd60(%rbp)
    7e05:	c7 85 3c f2 ff ff a9 	movl   $0x260389a9,-0xdc4(%rbp)
    7e0c:	89 03 26 
    7e0f:	c7 85 3c f1 ff ff 15 	movl   $0x160dd815,-0xec4(%rbp)
    7e16:	d8 0d 16 
    7e19:	c6 85 1d f1 ff ff 7d 	movb   $0x7d,-0xee3(%rbp)
    7e20:	66 c7 85 2e f1 ff ff 	movw   $0x467,-0xed2(%rbp)
    7e27:	67 04 
    7e29:	c6 85 1c f1 ff ff 19 	movb   $0x19,-0xee4(%rbp)
    7e30:	48 c7 85 a8 f2 ff ff 	movq   $0x0,-0xd58(%rbp)
    7e37:	00 00 00 00 
    7e3b:	c6 85 a8 f2 ff ff 06 	movb   $0x6,-0xd58(%rbp)
    7e42:	c7 85 20 f2 ff ff eb 	movl   $0x2c9e81eb,-0xde0(%rbp)
    7e49:	81 9e 2c 
    7e4c:	c7 85 24 f2 ff ff 00 	movl   $0x0,-0xddc(%rbp)
    7e53:	00 00 00 
    7e56:	c7 85 28 f2 ff ff 08 	movl   $0x8,-0xdd8(%rbp)
    7e5d:	00 00 00 
    7e60:	c7 85 40 f1 ff ff 11 	movl   $0x1e669e11,-0xec0(%rbp)
    7e67:	9e 66 1e 
    7e6a:	c7 85 2c f2 ff ff ff 	movl   $0xffffffff,-0xdd4(%rbp)
    7e71:	ff ff ff 
    7e74:	c6 85 19 f1 ff ff 09 	movb   $0x9,-0xee7(%rbp)
    7e7b:	c7 85 44 f1 ff ff 1a 	movl   $0x15aad51a,-0xebc(%rbp)
    7e82:	d5 aa 15 
    7e85:	48 8d 05 f4 f2 00 00 	lea    0xf2f4(%rip),%rax        # 17180 <g_190>
    7e8c:	48 89 85 f0 f3 ff ff 	mov    %rax,-0xc10(%rbp)
    7e93:	c7 85 48 f1 ff ff 4c 	movl   $0x5de5484c,-0xeb8(%rbp)
    7e9a:	48 e5 5d 
    7e9d:	48 8d 85 c0 f8 ff ff 	lea    -0x740(%rbp),%rax
    7ea4:	48 8d 15 d5 fa 00 00 	lea    0xfad5(%rip),%rdx        # 17980 <g_3177+0x20>
    7eab:	b9 60 00 00 00       	mov    $0x60,%ecx
    7eb0:	48 89 c7             	mov    %rax,%rdi
    7eb3:	48 89 d6             	mov    %rdx,%rsi
    7eb6:	f3 48 a5             	rep movsq %ds:(%rsi),%es:(%rdi)
    7eb9:	c6 85 1a f1 ff ff fc 	movb   $0xfc,-0xee6(%rbp)
    7ec0:	c6 85 1b f1 ff ff 00 	movb   $0x0,-0xee5(%rbp)
    7ec7:	48 c7 85 b0 f2 ff ff 	movq   $0x0,-0xd50(%rbp)
    7ece:	00 00 00 00 
    7ed2:	c7 85 b0 f2 ff ff 19 	movl   $0xda36f619,-0xd50(%rbp)
    7ed9:	f6 36 da 
    7edc:	48 c7 85 b8 f2 ff ff 	movq   $0x0,-0xd48(%rbp)
    7ee3:	00 00 00 00 
    7ee7:	48 c7 85 f8 f3 ff ff 	movq   $0x0,-0xc08(%rbp)
    7eee:	00 00 00 00 
    7ef2:	66 c7 85 22 f1 ff ff 	movw   $0x2,-0xede(%rbp)
    7ef9:	02 00 
    7efb:	c7 85 30 f2 ff ff 8f 	movl   $0xbbbd268f,-0xdd0(%rbp)
    7f02:	26 bd bb 
    7f05:	c7 85 4c f1 ff ff fa 	movl   $0x5acedefa,-0xeb4(%rbp)
    7f0c:	de ce 5a 
    7f0f:	c7 85 50 f6 ff ff 01 	movl   $0x1,-0x9b0(%rbp)
    7f16:	00 00 00 
    7f19:	c7 85 54 f6 ff ff 4b 	movl   $0x328e5f4b,-0x9ac(%rbp)
    7f20:	5f 8e 32 
    7f23:	c7 85 58 f6 ff ff 01 	movl   $0x1,-0x9a8(%rbp)
    7f2a:	00 00 00 
    7f2d:	c7 85 5c f6 ff ff 01 	movl   $0x1,-0x9a4(%rbp)
    7f34:	00 00 00 
    7f37:	c7 85 60 f6 ff ff 4b 	movl   $0x328e5f4b,-0x9a0(%rbp)
    7f3e:	5f 8e 32 
    7f41:	c7 85 64 f6 ff ff 01 	movl   $0x1,-0x99c(%rbp)
    7f48:	00 00 00 
    7f4b:	c7 85 68 f6 ff ff 79 	movl   $0xc2fa0c79,-0x998(%rbp)
    7f52:	0c fa c2 
    7f55:	c7 85 6c f6 ff ff 01 	movl   $0x1,-0x994(%rbp)
    7f5c:	00 00 00 
    7f5f:	c7 85 70 f6 ff ff 01 	movl   $0x1,-0x990(%rbp)
    7f66:	00 00 00 
    7f69:	c7 85 74 f6 ff ff 01 	movl   $0x1,-0x98c(%rbp)
    7f70:	00 00 00 
    7f73:	c7 85 78 f6 ff ff 79 	movl   $0xc2fa0c79,-0x988(%rbp)
    7f7a:	0c fa c2 
    7f7d:	c7 85 7c f6 ff ff 79 	movl   $0xc2fa0c79,-0x984(%rbp)
    7f84:	0c fa c2 
    7f87:	c7 85 80 f6 ff ff 39 	movl   $0x48020639,-0x980(%rbp)
    7f8e:	06 02 48 
    7f91:	c7 85 84 f6 ff ff 01 	movl   $0x1,-0x97c(%rbp)
    7f98:	00 00 00 
    7f9b:	c7 85 88 f6 ff ff 01 	movl   $0x1,-0x978(%rbp)
    7fa2:	00 00 00 
    7fa5:	c7 85 8c f6 ff ff 39 	movl   $0x48020639,-0x974(%rbp)
    7fac:	06 02 48 
    7faf:	c7 85 90 f6 ff ff 4b 	movl   $0x328e5f4b,-0x970(%rbp)
    7fb6:	5f 8e 32 
    7fb9:	c7 85 94 f6 ff ff 39 	movl   $0x48020639,-0x96c(%rbp)
    7fc0:	06 02 48 
    7fc3:	c7 85 98 f6 ff ff 39 	movl   $0x48020639,-0x968(%rbp)
    7fca:	06 02 48 
    7fcd:	c7 85 9c f6 ff ff 4b 	movl   $0x328e5f4b,-0x964(%rbp)
    7fd4:	5f 8e 32 
    7fd7:	c7 85 a0 f6 ff ff 39 	movl   $0x48020639,-0x960(%rbp)
    7fde:	06 02 48 
    7fe1:	c7 85 a4 f6 ff ff 01 	movl   $0x1,-0x95c(%rbp)
    7fe8:	00 00 00 
    7feb:	c7 85 a8 f6 ff ff 01 	movl   $0x1,-0x958(%rbp)
    7ff2:	00 00 00 
    7ff5:	c7 85 ac f6 ff ff 39 	movl   $0x48020639,-0x954(%rbp)
    7ffc:	06 02 48 
    7fff:	c7 85 b0 f6 ff ff 79 	movl   $0xc2fa0c79,-0x950(%rbp)
    8006:	0c fa c2 
    8009:	c7 85 b4 f6 ff ff 79 	movl   $0xc2fa0c79,-0x94c(%rbp)
    8010:	0c fa c2 
    8013:	c7 85 b8 f6 ff ff 01 	movl   $0x1,-0x948(%rbp)
    801a:	00 00 00 
    801d:	c7 85 bc f6 ff ff 01 	movl   $0x1,-0x944(%rbp)
    8024:	00 00 00 
    8027:	c7 85 c0 f6 ff ff 01 	movl   $0x1,-0x940(%rbp)
    802e:	00 00 00 
    8031:	c7 85 c4 f6 ff ff 79 	movl   $0xc2fa0c79,-0x93c(%rbp)
    8038:	0c fa c2 
    803b:	c7 85 c8 f6 ff ff 01 	movl   $0x1,-0x938(%rbp)
    8042:	00 00 00 
    8045:	c7 85 cc f6 ff ff 4b 	movl   $0x328e5f4b,-0x934(%rbp)
    804c:	5f 8e 32 
    804f:	c7 85 d0 f6 ff ff 01 	movl   $0x1,-0x930(%rbp)
    8056:	00 00 00 
    8059:	c7 85 d4 f6 ff ff 01 	movl   $0x1,-0x92c(%rbp)
    8060:	00 00 00 
    8063:	c7 85 d8 f6 ff ff 4b 	movl   $0x328e5f4b,-0x928(%rbp)
    806a:	5f 8e 32 
    806d:	c7 85 dc f6 ff ff 01 	movl   $0x1,-0x924(%rbp)
    8074:	00 00 00 
    8077:	c7 85 e0 f6 ff ff 79 	movl   $0xc2fa0c79,-0x920(%rbp)
    807e:	0c fa c2 
    8081:	c7 85 e4 f6 ff ff 01 	movl   $0x1,-0x91c(%rbp)
    8088:	00 00 00 
    808b:	c7 85 e8 f6 ff ff 01 	movl   $0x1,-0x918(%rbp)
    8092:	00 00 00 
    8095:	c7 85 ec f6 ff ff 01 	movl   $0x1,-0x914(%rbp)
    809c:	00 00 00 
    809f:	c7 85 f0 f6 ff ff 79 	movl   $0xc2fa0c79,-0x910(%rbp)
    80a6:	0c fa c2 
    80a9:	c7 85 f4 f6 ff ff 79 	movl   $0xc2fa0c79,-0x90c(%rbp)
    80b0:	0c fa c2 
    80b3:	48 8d 05 de 06 01 00 	lea    0x106de(%rip),%rax        # 18798 <g_1926>
    80ba:	48 89 85 a8 f3 ff ff 	mov    %rax,-0xc58(%rbp)
    80c1:	48 8d 05 e0 f7 00 00 	lea    0xf7e0(%rip),%rax        # 178a8 <g_2842>
    80c8:	48 89 85 e0 f3 ff ff 	mov    %rax,-0xc20(%rbp)
    80cf:	48 8d 85 78 f2 ff ff 	lea    -0xd88(%rbp),%rax
    80d6:	48 89 85 e8 f3 ff ff 	mov    %rax,-0xc18(%rbp)
    80dd:	c7 85 1c f2 ff ff f7 	movl   $0x58cb12f7,-0xde4(%rbp)
    80e4:	12 cb 58 
    80e7:	48 8d 85 b8 f2 ff ff 	lea    -0xd48(%rbp),%rax
    80ee:	48 89 85 c8 f3 ff ff 	mov    %rax,-0xc38(%rbp)
    80f5:	c7 85 14 f2 ff ff 2e 	movl   $0x1f05a42e,-0xdec(%rbp)
    80fc:	a4 05 1f 
    80ff:	c6 85 18 f1 ff ff 00 	movb   $0x0,-0xee8(%rbp)
    8106:	48 8d 05 5b 05 01 00 	lea    0x1055b(%rip),%rax        # 18668 <g_860>
    810d:	48 89 85 d0 f3 ff ff 	mov    %rax,-0xc30(%rbp)
    8114:	66 c7 85 2c f1 ff ff 	movw   $0x0,-0xed4(%rbp)
    811b:	00 00 
    811d:	48 8d 05 9c 06 01 00 	lea    0x1069c(%rip),%rax        # 187c0 <g_1944>
    8124:	48 89 85 d8 f3 ff ff 	mov    %rax,-0xc28(%rbp)
    812b:	c7 85 18 f2 ff ff 49 	movl   $0x3f23649,-0xde8(%rbp)
    8132:	36 f2 03 
    8135:	c7 85 74 f1 ff ff 00 	movl   $0x0,-0xe8c(%rbp)
    813c:	00 00 00 
    813f:	eb 49                	jmp    818a <func_1+0x9d5>
    8141:	c7 85 70 f1 ff ff 00 	movl   $0x0,-0xe90(%rbp)
    8148:	00 00 00 
    814b:	eb 2d                	jmp    817a <func_1+0x9c5>
    814d:	8b 85 70 f1 ff ff    	mov    -0xe90(%rbp),%eax
    8153:	48 98                	cltq   
    8155:	8b 95 74 f1 ff ff    	mov    -0xe8c(%rbp),%edx
    815b:	48 63 d2             	movslq %edx,%rdx
    815e:	48 01 d2             	add    %rdx,%rdx
    8161:	48 01 d0             	add    %rdx,%rax
    8164:	48 8d 15 35 06 01 00 	lea    0x10635(%rip),%rdx        # 187a0 <g_1925>
    816b:	48 89 94 c5 00 f6 ff 	mov    %rdx,-0xa00(%rbp,%rax,8)
    8172:	ff 
    8173:	83 85 70 f1 ff ff 01 	addl   $0x1,-0xe90(%rbp)
    817a:	83 bd 70 f1 ff ff 01 	cmpl   $0x1,-0xe90(%rbp)
    8181:	7e ca                	jle    814d <func_1+0x998>
    8183:	83 85 74 f1 ff ff 01 	addl   $0x1,-0xe8c(%rbp)
    818a:	83 bd 74 f1 ff ff 04 	cmpl   $0x4,-0xe8c(%rbp)
    8191:	7e ae                	jle    8141 <func_1+0x98c>
    8193:	48 8b 05 8e ee 00 00 	mov    0xee8e(%rip),%rax        # 17028 <g_4>
    819a:	48 8b 85 a0 f2 ff ff 	mov    -0xd60(%rbp),%rax
    81a1:	48 89 85 08 f1 ff ff 	mov    %rax,-0xef8(%rbp)
    81a8:	48 8b 05 b9 04 01 00 	mov    0x104b9(%rip),%rax        # 18668 <g_860>
    81af:	48 89 85 00 f1 ff ff 	mov    %rax,-0xf00(%rbp)
    81b6:	44 8b ad 5c f2 ff ff 	mov    -0xda4(%rbp),%r13d
    81bd:	4c 0f bf a5 36 f1 ff 	movswq -0xeca(%rbp),%r12
    81c4:	ff 
    81c5:	44 8b b5 5c f2 ff ff 	mov    -0xda4(%rbp),%r14d
    81cc:	8b 85 3c f1 ff ff    	mov    -0xec4(%rbp),%eax
    81d2:	44 0f b6 f8          	movzbl %al,%r15d
    81d6:	8b 85 3c f2 ff ff    	mov    -0xdc4(%rbp),%eax
    81dc:	98                   	cwtl   
    81dd:	89 85 fc f0 ff ff    	mov    %eax,-0xf04(%rbp)
    81e3:	48 8b 9d a0 f2 ff ff 	mov    -0xd60(%rbp),%rbx
    81ea:	48 89 9d f0 f0 ff ff 	mov    %rbx,-0xf10(%rbp)
    81f1:	0f b6 05 30 ee 00 00 	movzbl 0xee30(%rip),%eax        # 17028 <g_4>
    81f8:	66 98                	cbtw   
    81fa:	8b 95 5c f2 ff ff    	mov    -0xda4(%rbp),%edx
    8200:	31 d0                	xor    %edx,%eax
    8202:	98                   	cwtl   
    8203:	48 8b 1d 76 04 01 00 	mov    0x10476(%rip),%rbx        # 18680 <g_1074>
    820a:	48 8b 15 b7 1d 01 00 	mov    0x11db7(%rip),%rdx        # 19fc8 <g_32>
    8211:	48 89 d6             	mov    %rdx,%rsi
    8214:	89 c7                	mov    %eax,%edi
    8216:	e8 ac 54 00 00       	callq  d6c7 <func_28>
    821b:	48 89 03             	mov    %rax,(%rbx)
    821e:	48 8b 13             	mov    (%rbx),%rdx
    8221:	8b 85 3c f2 ff ff    	mov    -0xdc4(%rbp),%eax
    8227:	0f b7 c0             	movzwl %ax,%eax
    822a:	48 89 d6             	mov    %rdx,%rsi
    822d:	89 c7                	mov    %eax,%edi
    822f:	e8 78 54 00 00       	callq  d6ac <func_24>
    8234:	48 8b b5 a0 f2 ff ff 	mov    -0xd60(%rbp),%rsi
    823b:	48 8b 85 a0 f2 ff ff 	mov    -0xd60(%rbp),%rax
    8242:	48 8d 95 14 f1 ff ff 	lea    -0xeec(%rbp),%rdx
    8249:	44 8b 85 fc f0 ff ff 	mov    -0xf04(%rbp),%r8d
    8250:	48 89 d1             	mov    %rdx,%rcx
    8253:	48 8b 95 f0 f0 ff ff 	mov    -0xf10(%rbp),%rdx
    825a:	48 89 c7             	mov    %rax,%rdi
    825d:	e8 25 51 00 00       	callq  d387 <func_17>
    8262:	48 89 c1             	mov    %rax,%rcx
    8265:	48 8b 1d 14 04 01 00 	mov    0x10414(%rip),%rbx        # 18680 <g_1074>
    826c:	48 8b 05 c5 f5 00 00 	mov    0xf5c5(%rip),%rax        # 17838 <g_1539>
    8273:	44 89 fa             	mov    %r15d,%edx
    8276:	48 89 c6             	mov    %rax,%rsi
    8279:	48 89 cf             	mov    %rcx,%rdi
    827c:	e8 9c 14 00 00       	callq  971d <func_13>
    8281:	48 89 03             	mov    %rax,(%rbx)
    8284:	48 8b 03             	mov    (%rbx),%rax
    8287:	48 85 c0             	test   %rax,%rax
    828a:	75 12                	jne    829e <func_1+0xae9>
    828c:	0f b6 85 14 f1 ff ff 	movzbl -0xeec(%rbp),%eax
    8293:	84 c0                	test   %al,%al
    8295:	74 07                	je     829e <func_1+0xae9>
    8297:	b8 01 00 00 00       	mov    $0x1,%eax
    829c:	eb 05                	jmp    82a3 <func_1+0xaee>
    829e:	b8 00 00 00 00       	mov    $0x0,%eax
    82a3:	0f b6 c0             	movzbl %al,%eax
    82a6:	44 89 f6             	mov    %r14d,%esi
    82a9:	89 c7                	mov    %eax,%edi
    82ab:	e8 dd e9 ff ff       	callq  6c8d <safe_rshift_func_uint8_t_u_s>
    82b0:	3c 01                	cmp    $0x1,%al
    82b2:	0f 97 c0             	seta   %al
    82b5:	0f b6 c0             	movzbl %al,%eax
    82b8:	4c 8b 85 08 f1 ff ff 	mov    -0xef8(%rbp),%r8
    82bf:	48 8b 9d 00 f1 ff ff 	mov    -0xf00(%rbp),%rbx
    82c6:	48 8b 0b             	mov    (%rbx),%rcx
    82c9:	4c 89 ea             	mov    %r13,%rdx
    82cc:	4c 89 e6             	mov    %r12,%rsi
    82cf:	89 c7                	mov    %eax,%edi
    82d1:	e8 b5 10 00 00       	callq  938b <func_5>
    82d6:	bf 00 00 00 00       	mov    $0x0,%edi
    82db:	e8 c6 eb ff ff       	callq  6ea6 <safe_unary_minus_func_uint32_t_u>
    82e0:	48 c7 85 b0 f3 ff ff 	movq   $0x0,-0xc50(%rbp)
    82e7:	00 00 00 00 
    82eb:	48 8d 05 ae 04 01 00 	lea    0x104ae(%rip),%rax        # 187a0 <g_1925>
    82f2:	48 89 85 b8 f3 ff ff 	mov    %rax,-0xc48(%rbp)
    82f9:	c7 85 10 f2 ff ff ff 	movl   $0xffffffff,-0xdf0(%rbp)
    8300:	ff ff ff 
    8303:	48 8d 05 f6 1c 01 00 	lea    0x11cf6(%rip),%rax        # 1a000 <g_1466>
    830a:	48 89 85 c0 f3 ff ff 	mov    %rax,-0xc40(%rbp)
    8311:	48 8b 05 90 04 01 00 	mov    0x10490(%rip),%rax        # 187a8 <g_1924>
    8318:	48 8b 10             	mov    (%rax),%rdx
    831b:	48 8b 85 b8 f3 ff ff 	mov    -0xc48(%rbp),%rax
    8322:	48 89 10             	mov    %rdx,(%rax)
    8325:	c6 05 50 f5 00 00 f7 	movb   $0xf7,0xf550(%rip)        # 1787c <g_2422>
    832c:	e9 90 01 00 00       	jmpq   84c1 <func_1+0xd0c>
    8331:	48 c7 85 08 f3 ff ff 	movq   $0x0,-0xcf8(%rbp)
    8338:	00 00 00 00 
    833c:	48 8d 05 3d f5 00 00 	lea    0xf53d(%rip),%rax        # 17880 <g_2475>
    8343:	48 89 85 10 f3 ff ff 	mov    %rax,-0xcf0(%rbp)
    834a:	c7 85 84 f1 ff ff 00 	movl   $0x0,-0xe7c(%rbp)
    8351:	00 00 00 
    8354:	eb 45                	jmp    839b <func_1+0xbe6>
    8356:	c7 85 88 f1 ff ff 00 	movl   $0x0,-0xe78(%rbp)
    835d:	00 00 00 
    8360:	eb 29                	jmp    838b <func_1+0xbd6>
    8362:	8b 85 88 f1 ff ff    	mov    -0xe78(%rbp),%eax
    8368:	48 98                	cltq   
    836a:	8b 95 84 f1 ff ff    	mov    -0xe7c(%rbp),%edx
    8370:	48 63 d2             	movslq %edx,%rdx
    8373:	48 01 d2             	add    %rdx,%rdx
    8376:	48 01 d0             	add    %rdx,%rax
    8379:	c7 84 85 c0 fb ff ff 	movl   $0xffffffff,-0x440(%rbp,%rax,4)
    8380:	ff ff ff ff 
    8384:	83 85 88 f1 ff ff 01 	addl   $0x1,-0xe78(%rbp)
    838b:	83 bd 88 f1 ff ff 01 	cmpl   $0x1,-0xe78(%rbp)
    8392:	7e ce                	jle    8362 <func_1+0xbad>
    8394:	83 85 84 f1 ff ff 01 	addl   $0x1,-0xe7c(%rbp)
    839b:	83 bd 84 f1 ff ff 05 	cmpl   $0x5,-0xe7c(%rbp)
    83a2:	7e b2                	jle    8356 <func_1+0xba1>
    83a4:	83 bd 38 f2 ff ff 00 	cmpl   $0x0,-0xdc8(%rbp)
    83ab:	0f 85 d5 00 00 00    	jne    8486 <func_1+0xcd1>
    83b1:	8b 85 24 f2 ff ff    	mov    -0xddc(%rbp),%eax
    83b7:	48 63 d0             	movslq %eax,%rdx
    83ba:	48 8b 85 10 f3 ff ff 	mov    -0xcf0(%rbp),%rax
    83c1:	48 89 10             	mov    %rdx,(%rax)
    83c4:	48 8b 85 10 f3 ff ff 	mov    -0xcf0(%rbp),%rax
    83cb:	48 8b 00             	mov    (%rax),%rax
    83ce:	89 c2                	mov    %eax,%edx
    83d0:	8b 85 90 f1 ff ff    	mov    -0xe70(%rbp),%eax
    83d6:	09 d0                	or     %edx,%eax
    83d8:	0f b6 c0             	movzbl %al,%eax
    83db:	be 39 00 00 00       	mov    $0x39,%esi
    83e0:	89 c7                	mov    %eax,%edi
    83e2:	e8 ac e7 ff ff       	callq  6b93 <safe_mul_func_uint8_t_u_u>
    83e7:	0f be c0             	movsbl %al,%eax
    83ea:	8b 95 20 f2 ff ff    	mov    -0xde0(%rbp),%edx
    83f0:	89 d6                	mov    %edx,%esi
    83f2:	89 c7                	mov    %eax,%edi
    83f4:	e8 a8 de ff ff       	callq  62a1 <safe_lshift_func_int8_t_s_s>
    83f9:	32 85 19 f1 ff ff    	xor    -0xee7(%rbp),%al
    83ff:	0f be d0             	movsbl %al,%edx
    8402:	8b 85 40 f1 ff ff    	mov    -0xec0(%rbp),%eax
    8408:	39 c2                	cmp    %eax,%edx
    840a:	0f 9f c0             	setg   %al
    840d:	0f b6 c0             	movzbl %al,%eax
    8410:	89 85 e0 fb ff ff    	mov    %eax,-0x420(%rbp)
    8416:	8b 85 e0 fb ff ff    	mov    -0x420(%rbp),%eax
    841c:	0f be d0             	movsbl %al,%edx
    841f:	8b 85 10 f2 ff ff    	mov    -0xdf0(%rbp),%eax
    8425:	0f be c0             	movsbl %al,%eax
    8428:	89 d6                	mov    %edx,%esi
    842a:	89 c7                	mov    %eax,%edi
    842c:	e8 e1 dd ff ff       	callq  6212 <safe_mul_func_int8_t_s_s>
    8431:	48 0f be d0          	movsbq %al,%rdx
    8435:	48 8b 05 64 fe 00 00 	mov    0xfe64(%rip),%rax        # 182a0 <g_443>
    843c:	48 8b 00             	mov    (%rax),%rax
    843f:	48 85 c0             	test   %rax,%rax
    8442:	75 0f                	jne    8453 <func_1+0xc9e>
    8444:	48 8b 05 25 02 01 00 	mov    0x10225(%rip),%rax        # 18670 <g_874>
    844b:	48 8b 00             	mov    (%rax),%rax
    844e:	48 85 c0             	test   %rax,%rax
    8451:	74 07                	je     845a <func_1+0xca5>
    8453:	b8 01 00 00 00       	mov    $0x1,%eax
    8458:	eb 05                	jmp    845f <func_1+0xcaa>
    845a:	b8 00 00 00 00       	mov    $0x0,%eax
    845f:	48 98                	cltq   
    8461:	48 89 d6             	mov    %rdx,%rsi
    8464:	48 89 c7             	mov    %rax,%rdi
    8467:	e8 3c e4 ff ff       	callq  68a8 <safe_sub_func_int64_t_s_s>
    846c:	8b 95 40 f1 ff ff    	mov    -0xec0(%rbp),%edx
    8472:	48 63 d2             	movslq %edx,%rdx
    8475:	48 39 d0             	cmp    %rdx,%rax
    8478:	0f 9e c0             	setle  %al
    847b:	0f b6 c0             	movzbl %al,%eax
    847e:	39 85 38 f2 ff ff    	cmp    %eax,-0xdc8(%rbp)
    8484:	77 07                	ja     848d <func_1+0xcd8>
    8486:	b9 01 00 00 00       	mov    $0x1,%ecx
    848b:	eb 05                	jmp    8492 <func_1+0xcdd>
    848d:	b9 00 00 00 00       	mov    $0x0,%ecx
    8492:	48 8b 05 87 fd 00 00 	mov    0xfd87(%rip),%rax        # 18220 <g_281>
    8499:	8b 10                	mov    (%rax),%edx
    849b:	48 8b 05 7e fd 00 00 	mov    0xfd7e(%rip),%rax        # 18220 <g_281>
    84a2:	21 ca                	and    %ecx,%edx
    84a4:	89 10                	mov    %edx,(%rax)
    84a6:	48 8b 05 73 fd 00 00 	mov    0xfd73(%rip),%rax        # 18220 <g_281>
    84ad:	8b 00                	mov    (%rax),%eax
    84af:	85 c0                	test   %eax,%eax
    84b1:	0f b6 05 c4 f3 00 00 	movzbl 0xf3c4(%rip),%eax        # 1787c <g_2422>
    84b8:	83 c0 01             	add    $0x1,%eax
    84bb:	88 05 bb f3 00 00    	mov    %al,0xf3bb(%rip)        # 1787c <g_2422>
    84c1:	0f b6 05 b4 f3 00 00 	movzbl 0xf3b4(%rip),%eax        # 1787c <g_2422>
    84c8:	3c 1a                	cmp    $0x1a,%al
    84ca:	0f 8e 61 fe ff ff    	jle    8331 <func_1+0xb7c>
    84d0:	48 8b 05 71 02 01 00 	mov    0x10271(%rip),%rax        # 18748 <g_1467>
    84d7:	48 8b 10             	mov    (%rax),%rdx
    84da:	48 8b 85 c0 f3 ff ff 	mov    -0xc40(%rbp),%rax
    84e1:	48 89 10             	mov    %rdx,(%rax)
    84e4:	48 8b 95 60 f2 ff ff 	mov    -0xda0(%rbp),%rdx
    84eb:	48 8b 05 2e fd 00 00 	mov    0xfd2e(%rip),%rax        # 18220 <g_281>
    84f2:	8b 12                	mov    (%rdx),%edx
    84f4:	89 10                	mov    %edx,(%rax)
    84f6:	c6 85 14 f1 ff ff fc 	movb   $0xfc,-0xeec(%rbp)
    84fd:	e9 ee 06 00 00       	jmpq   8bf0 <func_1+0x143b>
    8502:	48 8d 85 60 f2 ff ff 	lea    -0xda0(%rbp),%rax
    8509:	48 89 85 70 f3 ff ff 	mov    %rax,-0xc90(%rbp)
    8510:	c7 85 e0 f1 ff ff 01 	movl   $0x1,-0xe20(%rbp)
    8517:	00 00 00 
    851a:	48 c7 85 c8 f2 ff ff 	movq   $0x0,-0xd38(%rbp)
    8521:	00 00 00 00 
    8525:	48 c7 85 d0 f2 ff ff 	movq   $0x0,-0xd30(%rbp)
    852c:	00 00 00 00 
    8530:	48 c7 85 d8 f2 ff ff 	movq   $0x0,-0xd28(%rbp)
    8537:	00 00 00 00 
    853b:	c6 85 d8 f2 ff ff 25 	movb   $0x25,-0xd28(%rbp)
    8542:	48 8d 05 0f f3 00 00 	lea    0xf30f(%rip),%rax        # 17858 <g_2049>
    8549:	48 89 85 78 f3 ff ff 	mov    %rax,-0xc88(%rbp)
    8550:	c7 85 e4 f1 ff ff ae 	movl   $0x7e6afcae,-0xe1c(%rbp)
    8557:	fc 6a 7e 
    855a:	c7 85 e8 f1 ff ff c8 	movl   $0xff21dcc8,-0xe18(%rbp)
    8561:	dc 21 ff 
    8564:	c7 85 ec f1 ff ff ff 	movl   $0xffffffff,-0xe14(%rbp)
    856b:	ff ff ff 
    856e:	c7 85 f0 f1 ff ff ff 	movl   $0xffffffff,-0xe10(%rbp)
    8575:	ff ff ff 
    8578:	c7 85 f4 f1 ff ff 01 	movl   $0x1,-0xe0c(%rbp)
    857f:	00 00 00 
    8582:	c7 85 f8 f1 ff ff e6 	movl   $0x521146e6,-0xe08(%rbp)
    8589:	46 11 52 
    858c:	c7 85 fc f1 ff ff ff 	movl   $0xffffffff,-0xe04(%rbp)
    8593:	ff ff ff 
    8596:	c7 85 00 f2 ff ff 5e 	movl   $0xda7e6f5e,-0xe00(%rbp)
    859d:	6f 7e da 
    85a0:	c7 85 04 f2 ff ff 03 	movl   $0x3,-0xdfc(%rbp)
    85a7:	00 00 00 
    85aa:	c7 85 08 f2 ff ff 76 	movl   $0x9f30e176,-0xdf8(%rbp)
    85b1:	e1 30 9f 
    85b4:	c7 85 80 f1 ff ff 00 	movl   $0x0,-0xe80(%rbp)
    85bb:	00 00 00 
    85be:	eb 1e                	jmp    85de <func_1+0xe29>
    85c0:	8b 85 80 f1 ff ff    	mov    -0xe80(%rbp),%eax
    85c6:	48 98                	cltq   
    85c8:	48 8d 15 41 01 01 00 	lea    0x10141(%rip),%rdx        # 18710 <g_1205>
    85cf:	48 89 94 c5 70 f5 ff 	mov    %rdx,-0xa90(%rbp,%rax,8)
    85d6:	ff 
    85d7:	83 85 80 f1 ff ff 01 	addl   $0x1,-0xe80(%rbp)
    85de:	83 bd 80 f1 ff ff 06 	cmpl   $0x6,-0xe80(%rbp)
    85e5:	7e d9                	jle    85c0 <func_1+0xe0b>
    85e7:	48 8b 05 c2 03 01 00 	mov    0x103c2(%rip),%rax        # 189b0 <g_2366>
    85ee:	48 8b 10             	mov    (%rax),%rdx
    85f1:	48 8b 85 70 f3 ff ff 	mov    -0xc90(%rbp),%rax
    85f8:	48 89 10             	mov    %rdx,(%rax)
    85fb:	48 c7 05 3a ea 00 00 	movq   $0x0,0xea3a(%rip)        # 17040 <g_76>
    8602:	00 00 00 00 
    8606:	e9 91 05 00 00       	jmpq   8b9c <func_1+0x13e7>
    860b:	c7 85 c0 f2 ff ff 05 	movl   $0x5,-0xd40(%rbp)
    8612:	00 00 00 
    8615:	48 b8 d5 bf 28 89 20 	movabs $0xe1c248208928bfd5,%rax
    861c:	48 c2 e1 
    861f:	48 89 85 68 f3 ff ff 	mov    %rax,-0xc98(%rbp)
    8626:	66 c7 85 28 f1 ff ff 	movw   $0x9569,-0xed8(%rbp)
    862d:	69 95 
    862f:	48 c7 85 58 f3 ff ff 	movq   $0x0,-0xca8(%rbp)
    8636:	00 00 00 00 
    863a:	48 c7 85 60 f3 ff ff 	movq   $0x0,-0xca0(%rbp)
    8641:	00 00 00 00 
    8645:	c7 85 9c f1 ff ff f8 	movl   $0xfffffff8,-0xe64(%rbp)
    864c:	ff ff ff 
    864f:	c7 85 a0 f1 ff ff 01 	movl   $0x1,-0xe60(%rbp)
    8656:	00 00 00 
    8659:	c7 85 a4 f1 ff ff f9 	movl   $0xfffffff9,-0xe5c(%rbp)
    8660:	ff ff ff 
    8663:	c7 85 a8 f1 ff ff 7b 	movl   $0x2831297b,-0xe58(%rbp)
    866a:	29 31 28 
    866d:	c7 85 ac f1 ff ff fe 	movl   $0xfffffffe,-0xe54(%rbp)
    8674:	ff ff ff 
    8677:	c7 85 b0 f1 ff ff 52 	movl   $0x59d98852,-0xe50(%rbp)
    867e:	88 d9 59 
    8681:	c7 85 b4 f1 ff ff 01 	movl   $0x1,-0xe4c(%rbp)
    8688:	00 00 00 
    868b:	c7 85 b8 f1 ff ff 04 	movl   $0x4,-0xe48(%rbp)
    8692:	00 00 00 
    8695:	c7 85 bc f1 ff ff 03 	movl   $0x3,-0xe44(%rbp)
    869c:	00 00 00 
    869f:	c7 85 c0 f1 ff ff 09 	movl   $0x9,-0xe40(%rbp)
    86a6:	00 00 00 
    86a9:	c7 85 c4 f1 ff ff ff 	movl   $0xa2eefaff,-0xe3c(%rbp)
    86b0:	fa ee a2 
    86b3:	c7 85 c8 f1 ff ff 1f 	movl   $0xf7a6c1f,-0xe38(%rbp)
    86ba:	6c 7a 0f 
    86bd:	c7 85 cc f1 ff ff f9 	movl   $0xfffffff9,-0xe34(%rbp)
    86c4:	ff ff ff 
    86c7:	c7 85 d0 f1 ff ff fd 	movl   $0xfffffffd,-0xe30(%rbp)
    86ce:	ff ff ff 
    86d1:	c7 85 d4 f1 ff ff 32 	movl   $0x7a60f732,-0xe2c(%rbp)
    86d8:	f7 60 7a 
    86db:	66 c7 85 26 f1 ff ff 	movw   $0x1,-0xeda(%rbp)
    86e2:	01 00 
    86e4:	c7 85 d8 f1 ff ff f8 	movl   $0xfffffff8,-0xe28(%rbp)
    86eb:	ff ff ff 
    86ee:	c7 85 98 f1 ff ff e2 	movl   $0x4a1fc9e2,-0xe68(%rbp)
    86f5:	c9 1f 4a 
    86f8:	c7 85 7c f1 ff ff 00 	movl   $0x0,-0xe84(%rbp)
    86ff:	00 00 00 
    8702:	eb 1a                	jmp    871e <func_1+0xf69>
    8704:	8b 85 7c f1 ff ff    	mov    -0xe84(%rbp),%eax
    870a:	48 98                	cltq   
    870c:	c7 84 85 4c f4 ff ff 	movl   $0x333c61fa,-0xbb4(%rbp,%rax,4)
    8713:	fa 61 3c 33 
    8717:	83 85 7c f1 ff ff 01 	addl   $0x1,-0xe84(%rbp)
    871e:	83 bd 7c f1 ff ff 00 	cmpl   $0x0,-0xe84(%rbp)
    8725:	7e dd                	jle    8704 <func_1+0xf4f>
    8727:	c7 85 90 f1 ff ff 00 	movl   $0x0,-0xe70(%rbp)
    872e:	00 00 00 
    8731:	eb 64                	jmp    8797 <func_1+0xfe2>
    8733:	48 8d 85 c0 fb ff ff 	lea    -0x440(%rbp),%rax
    873a:	48 8d 15 bf 9a 00 00 	lea    0x9abf(%rip),%rdx        # 12200 <g_2958+0x140>
    8741:	b9 78 00 00 00       	mov    $0x78,%ecx
    8746:	48 89 c7             	mov    %rax,%rdi
    8749:	48 89 d6             	mov    %rdx,%rsi
    874c:	f3 48 a5             	rep movsq %ds:(%rsi),%es:(%rdi)
    874f:	48 8d 05 e2 ff 00 00 	lea    0xffe2(%rip),%rax        # 18738 <g_1302>
    8756:	48 89 85 50 f3 ff ff 	mov    %rax,-0xcb0(%rbp)
    875d:	c7 85 78 f1 ff ff 00 	movl   $0x0,-0xe88(%rbp)
    8764:	00 00 00 
    8767:	eb 1e                	jmp    8787 <func_1+0xfd2>
    8769:	8b 85 78 f1 ff ff    	mov    -0xe88(%rbp),%eax
    876f:	48 98                	cltq   
    8771:	48 8d 15 58 ff 00 00 	lea    0xff58(%rip),%rdx        # 186d0 <g_1073+0x30>
    8778:	48 89 94 c5 60 f4 ff 	mov    %rdx,-0xba0(%rbp,%rax,8)
    877f:	ff 
    8780:	83 85 78 f1 ff ff 01 	addl   $0x1,-0xe88(%rbp)
    8787:	83 bd 78 f1 ff ff 01 	cmpl   $0x1,-0xe88(%rbp)
    878e:	7e d9                	jle    8769 <func_1+0xfb4>
    8790:	83 85 90 f1 ff ff 01 	addl   $0x1,-0xe70(%rbp)
    8797:	83 bd 90 f1 ff ff 0a 	cmpl   $0xa,-0xe70(%rbp)
    879e:	7e 93                	jle    8733 <func_1+0xf7e>
    87a0:	c7 85 38 f1 ff ff 08 	movl   $0x8,-0xec8(%rbp)
    87a7:	00 00 00 
    87aa:	48 8b 05 cf fe 00 00 	mov    0xfecf(%rip),%rax        # 18680 <g_1074>
    87b1:	48 8b 00             	mov    (%rax),%rax
    87b4:	0f b6 00             	movzbl (%rax),%eax
    87b7:	84 c0                	test   %al,%al
    87b9:	0f 85 b2 00 00 00    	jne    8871 <func_1+0x10bc>
    87bf:	48 8b 05 62 ff 00 00 	mov    0xff62(%rip),%rax        # 18728 <g_1279>
    87c6:	48 8b 00             	mov    (%rax),%rax
    87c9:	8b 00                	mov    (%rax),%eax
    87cb:	89 c3                	mov    %eax,%ebx
    87cd:	48 8b 05 4c fa 00 00 	mov    0xfa4c(%rip),%rax        # 18220 <g_281>
    87d4:	0f bf 95 28 f1 ff ff 	movswl -0xed8(%rbp),%edx
    87db:	89 10                	mov    %edx,(%rax)
    87dd:	8b 00                	mov    (%rax),%eax
    87df:	23 85 28 f2 ff ff    	and    -0xdd8(%rbp),%eax
    87e5:	33 85 e0 f1 ff ff    	xor    -0xe20(%rbp),%eax
    87eb:	89 c2                	mov    %eax,%edx
    87ed:	0f bf 85 28 f1 ff ff 	movswl -0xed8(%rbp),%eax
    87f4:	89 d6                	mov    %edx,%esi
    87f6:	89 c7                	mov    %eax,%edi
    87f8:	e8 02 df ff ff       	callq  66ff <safe_div_func_int32_t_s_s>
    87fd:	48 8b 95 78 f2 ff ff 	mov    -0xd88(%rbp),%rdx
    8804:	48 85 d2             	test   %rdx,%rdx
    8807:	0f 94 c2             	sete   %dl
    880a:	0f b6 d2             	movzbl %dl,%edx
    880d:	39 d0                	cmp    %edx,%eax
    880f:	0f 95 c0             	setne  %al
    8812:	0f b6 c0             	movzbl %al,%eax
    8815:	89 de                	mov    %ebx,%esi
    8817:	89 c7                	mov    %eax,%edi
    8819:	e8 ae de ff ff       	callq  66cc <safe_mod_func_int32_t_s_s>
    881e:	3d fd 00 00 00       	cmp    $0xfd,%eax
    8823:	76 10                	jbe    8835 <func_1+0x1080>
    8825:	83 bd 28 f2 ff ff 00 	cmpl   $0x0,-0xdd8(%rbp)
    882c:	74 07                	je     8835 <func_1+0x1080>
    882e:	b8 01 00 00 00       	mov    $0x1,%eax
    8833:	eb 05                	jmp    883a <func_1+0x1085>
    8835:	b8 00 00 00 00       	mov    $0x0,%eax
    883a:	3b 85 e0 f1 ff ff    	cmp    -0xe20(%rbp),%eax
    8840:	0f 9e c0             	setle  %al
    8843:	0f b6 d0             	movzbl %al,%edx
    8846:	0f b6 85 72 f4 ff ff 	movzbl -0xb8e(%rbp),%eax
    884d:	0f b6 c0             	movzbl %al,%eax
    8850:	21 d0                	and    %edx,%eax
    8852:	0f b7 d0             	movzwl %ax,%edx
    8855:	0f b6 85 1a f1 ff ff 	movzbl -0xee6(%rbp),%eax
    885c:	89 d6                	mov    %edx,%esi
    885e:	89 c7                	mov    %eax,%edi
    8860:	e8 d8 e4 ff ff       	callq  6d3d <safe_mul_func_uint16_t_u_u>
    8865:	66 85 c0             	test   %ax,%ax
    8868:	75 07                	jne    8871 <func_1+0x10bc>
    886a:	83 bd 9c f1 ff ff 00 	cmpl   $0x0,-0xe64(%rbp)
    8871:	90                   	nop
    8872:	48 8b 05 4f ff 00 00 	mov    0xff4f(%rip),%rax        # 187c8 <g_1947>
    8879:	48 8b 00             	mov    (%rax),%rax
    887c:	48 8b 00             	mov    (%rax),%rax
    887f:	8b 00                	mov    (%rax),%eax
    8881:	85 c0                	test   %eax,%eax
    8883:	0f 84 23 01 00 00    	je     89ac <func_1+0x11f7>
    8889:	c6 85 16 f1 ff ff 6e 	movb   $0x6e,-0xeea(%rbp)
    8890:	48 c7 85 40 f3 ff ff 	movq   $0x0,-0xcc0(%rbp)
    8897:	00 00 00 00 
    889b:	48 8d 85 3c f1 ff ff 	lea    -0xec4(%rbp),%rax
    88a2:	48 89 85 48 f3 ff ff 	mov    %rax,-0xcb8(%rbp)
    88a9:	48 8b 05 30 ff 00 00 	mov    0xff30(%rip),%rax        # 187e0 <g_2162>
    88b0:	8b 00                	mov    (%rax),%eax
    88b2:	85 c0                	test   %eax,%eax
    88b4:	0f 85 f5 02 00 00    	jne    8baf <func_1+0x13fa>
    88ba:	4c 0f bf ad 28 f1 ff 	movswq -0xed8(%rbp),%r13
    88c1:	ff 
    88c2:	48 8b 05 57 f9 00 00 	mov    0xf957(%rip),%rax        # 18220 <g_281>
    88c9:	8b 00                	mov    (%rax),%eax
    88cb:	23 85 50 f2 ff ff    	and    -0xdb0(%rbp),%eax
    88d1:	89 c2                	mov    %eax,%edx
    88d3:	48 8b 05 46 f9 00 00 	mov    0xf946(%rip),%rax        # 18220 <g_281>
    88da:	89 10                	mov    %edx,(%rax)
    88dc:	8b 00                	mov    (%rax),%eax
    88de:	4c 63 f0             	movslq %eax,%r14
    88e1:	48 8b 05 b8 f9 00 00 	mov    0xf9b8(%rip),%rax        # 182a0 <g_443>
    88e8:	48 8b 00             	mov    (%rax),%rax
    88eb:	48 89 c6             	mov    %rax,%rsi
    88ee:	bf 01 00 00 00       	mov    $0x1,%edi
    88f3:	e8 bc e0 ff ff       	callq  69b4 <safe_mod_func_int64_t_s_s>
    88f8:	49 89 c4             	mov    %rax,%r12
    88fb:	0f b6 85 a8 f2 ff ff 	movzbl -0xd58(%rbp),%eax
    8902:	0f b6 d8             	movzbl %al,%ebx
    8905:	48 8b 15 bc fe 00 00 	mov    0xfebc(%rip),%rdx        # 187c8 <g_1947>
    890c:	48 8b 05 b5 fe 00 00 	mov    0xfeb5(%rip),%rax        # 187c8 <g_1947>
    8913:	48 8b 12             	mov    (%rdx),%rdx
    8916:	48 89 10             	mov    %rdx,(%rax)
    8919:	48 8b 00             	mov    (%rax),%rax
    891c:	48 89 85 b8 f5 ff ff 	mov    %rax,-0xa48(%rbp)
    8923:	48 8b 95 b8 f5 ff ff 	mov    -0xa48(%rbp),%rdx
    892a:	48 8b 85 98 f5 ff ff 	mov    -0xa68(%rbp),%rax
    8931:	48 39 c2             	cmp    %rax,%rdx
    8934:	0f 95 c0             	setne  %al
    8937:	0f b6 c0             	movzbl %al,%eax
    893a:	39 85 e0 f1 ff ff    	cmp    %eax,-0xe20(%rbp)
    8940:	0f 9f c0             	setg   %al
    8943:	0f b6 c0             	movzbl %al,%eax
    8946:	be 06 00 00 00       	mov    $0x6,%esi
    894b:	89 c7                	mov    %eax,%edi
    894d:	e8 9c d9 ff ff       	callq  62ee <safe_lshift_func_int8_t_s_u>
    8952:	81 bd 24 f2 ff ff d1 	cmpl   $0xfffffed1,-0xddc(%rbp)
    8959:	fe ff ff 
    895c:	0f 9d c0             	setge  %al
    895f:	0f b6 c0             	movzbl %al,%eax
    8962:	33 85 e0 f1 ff ff    	xor    -0xe20(%rbp),%eax
    8968:	89 de                	mov    %ebx,%esi
    896a:	89 c7                	mov    %eax,%edi
    896c:	e8 5b dd ff ff       	callq  66cc <safe_mod_func_int32_t_s_s>
    8971:	48 98                	cltq   
    8973:	4c 89 e2             	mov    %r12,%rdx
    8976:	48 31 c2             	xor    %rax,%rdx
    8979:	48 8b 05 90 fd 00 00 	mov    0xfd90(%rip),%rax        # 18710 <g_1205>
    8980:	8b 00                	mov    (%rax),%eax
    8982:	89 c0                	mov    %eax,%eax
    8984:	48 31 d0             	xor    %rdx,%rax
    8987:	4c 09 f0             	or     %r14,%rax
    898a:	49 39 c5             	cmp    %rax,%r13
    898d:	0f 9d c0             	setge  %al
    8990:	0f b6 d0             	movzbl %al,%edx
    8993:	48 8b 85 48 f3 ff ff 	mov    -0xcb8(%rbp),%rax
    899a:	8b 00                	mov    (%rax),%eax
    899c:	09 c2                	or     %eax,%edx
    899e:	48 8b 85 48 f3 ff ff 	mov    -0xcb8(%rbp),%rax
    89a5:	89 10                	mov    %edx,(%rax)
    89a7:	e9 d4 01 00 00       	jmpq   8b80 <func_1+0x13cb>
    89ac:	c7 85 94 f1 ff ff f1 	movl   $0x882474f1,-0xe6c(%rbp)
    89b3:	74 24 88 
    89b6:	48 c7 85 18 f3 ff ff 	movq   $0x0,-0xce8(%rbp)
    89bd:	00 00 00 00 
    89c1:	48 8d 05 84 e6 00 00 	lea    0xe684(%rip),%rax        # 1704c <g_80>
    89c8:	48 89 85 c0 fb ff ff 	mov    %rax,-0x440(%rbp)
    89cf:	48 8d 85 38 f1 ff ff 	lea    -0xec8(%rbp),%rax
    89d6:	48 89 85 c8 fb ff ff 	mov    %rax,-0x438(%rbp)
    89dd:	48 8d 85 38 f1 ff ff 	lea    -0xec8(%rbp),%rax
    89e4:	48 89 85 d0 fb ff ff 	mov    %rax,-0x430(%rbp)
    89eb:	48 8d 05 5a e6 00 00 	lea    0xe65a(%rip),%rax        # 1704c <g_80>
    89f2:	48 89 85 d8 fb ff ff 	mov    %rax,-0x428(%rbp)
    89f9:	48 8d 85 38 f1 ff ff 	lea    -0xec8(%rbp),%rax
    8a00:	48 89 85 e0 fb ff ff 	mov    %rax,-0x420(%rbp)
    8a07:	48 8d 85 38 f1 ff ff 	lea    -0xec8(%rbp),%rax
    8a0e:	48 89 85 e8 fb ff ff 	mov    %rax,-0x418(%rbp)
    8a15:	66 c7 85 60 f4 ff ff 	movw   $0xffff,-0xba0(%rbp)
    8a1c:	ff ff 
    8a1e:	66 c7 85 62 f4 ff ff 	movw   $0xffff,-0xb9e(%rbp)
    8a25:	ff ff 
    8a27:	66 c7 85 64 f4 ff ff 	movw   $0xffff,-0xb9c(%rbp)
    8a2e:	ff ff 
    8a30:	66 c7 85 66 f4 ff ff 	movw   $0xffff,-0xb9a(%rbp)
    8a37:	ff ff 
    8a39:	66 c7 85 68 f4 ff ff 	movw   $0xffff,-0xb98(%rbp)
    8a40:	ff ff 
    8a42:	c7 05 34 e7 00 00 fd 	movl   $0xfffffffd,0xe734(%rip)        # 17180 <g_190>
    8a49:	ff ff ff 
    8a4c:	e9 18 01 00 00       	jmpq   8b69 <func_1+0x13b4>
    8a51:	c7 85 8c f1 ff ff f8 	movl   $0xfffffff8,-0xe74(%rbp)
    8a58:	ff ff ff 
    8a5b:	48 c7 85 28 f3 ff ff 	movq   $0x0,-0xcd8(%rbp)
    8a62:	00 00 00 00 
    8a66:	48 8d 85 b0 f2 ff ff 	lea    -0xd50(%rbp),%rax
    8a6d:	48 89 85 30 f3 ff ff 	mov    %rax,-0xcd0(%rbp)
    8a74:	48 8d 85 c0 f2 ff ff 	lea    -0xd40(%rbp),%rax
    8a7b:	48 89 85 38 f3 ff ff 	mov    %rax,-0xcc8(%rbp)
    8a82:	48 8b 05 bf fb 00 00 	mov    0xfbbf(%rip),%rax        # 18648 <g_506>
    8a89:	48 8b 00             	mov    (%rax),%rax
    8a8c:	48 85 c0             	test   %rax,%rax
    8a8f:	0f 94 c2             	sete   %dl
    8a92:	48 8b 05 87 f7 00 00 	mov    0xf787(%rip),%rax        # 18220 <g_281>
    8a99:	0f b6 d2             	movzbl %dl,%edx
    8a9c:	89 10                	mov    %edx,(%rax)
    8a9e:	83 bd 94 f1 ff ff 00 	cmpl   $0x0,-0xe6c(%rbp)
    8aa5:	0f 85 9a 00 00 00    	jne    8b45 <func_1+0x1390>
    8aab:	0f be 85 19 f1 ff ff 	movsbl -0xee7(%rbp),%eax
    8ab2:	35 df b5 d9 c7       	xor    $0xc7d9b5df,%eax
    8ab7:	41 89 c4             	mov    %eax,%r12d
    8aba:	8b 85 48 f1 ff ff    	mov    -0xeb8(%rbp),%eax
    8ac0:	0f bf d8             	movswl %ax,%ebx
    8ac3:	8b 95 8c f1 ff ff    	mov    -0xe74(%rbp),%edx
    8ac9:	48 8b 85 30 f3 ff ff 	mov    -0xcd0(%rbp),%rax
    8ad0:	48 89 10             	mov    %rdx,(%rax)
    8ad3:	48 8b 85 30 f3 ff ff 	mov    -0xcd0(%rbp),%rax
    8ada:	48 8b 00             	mov    (%rax),%rax
    8add:	48 83 f8 01          	cmp    $0x1,%rax
    8ae1:	0f 94 c0             	sete   %al
    8ae4:	0f b6 c0             	movzbl %al,%eax
    8ae7:	be 09 00 00 00       	mov    $0x9,%esi
    8aec:	89 c7                	mov    %eax,%edi
    8aee:	e8 2c e2 ff ff       	callq  6d1f <safe_sub_func_uint16_t_u_u>
    8af3:	98                   	cwtl   
    8af4:	89 de                	mov    %ebx,%esi
    8af6:	89 c7                	mov    %eax,%edi
    8af8:	e8 58 d9 ff ff       	callq  6455 <safe_div_func_int16_t_s_s>
    8afd:	0f b6 d0             	movzbl %al,%edx
    8b00:	0f b7 85 28 f1 ff ff 	movzwl -0xed8(%rbp),%eax
    8b07:	0f b6 c0             	movzbl %al,%eax
    8b0a:	89 d6                	mov    %edx,%esi
    8b0c:	89 c7                	mov    %eax,%edi
    8b0e:	e8 9b e0 ff ff       	callq  6bae <safe_mod_func_uint8_t_u_u>
    8b13:	48 8b 15 06 f7 00 00 	mov    0xf706(%rip),%rdx        # 18220 <g_281>
    8b1a:	8b 0a                	mov    (%rdx),%ecx
    8b1c:	0f b6 d0             	movzbl %al,%edx
    8b1f:	48 8b 05 fa f6 00 00 	mov    0xf6fa(%rip),%rax        # 18220 <g_281>
    8b26:	09 ca                	or     %ecx,%edx
    8b28:	89 10                	mov    %edx,(%rax)
    8b2a:	8b 00                	mov    (%rax),%eax
    8b2c:	44 89 e6             	mov    %r12d,%esi
    8b2f:	89 c7                	mov    %eax,%edi
    8b31:	e8 c9 db ff ff       	callq  66ff <safe_div_func_int32_t_s_s>
    8b36:	0f b7 c0             	movzwl %ax,%eax
    8b39:	89 c7                	mov    %eax,%edi
    8b3b:	e8 a9 e1 ff ff       	callq  6ce9 <safe_unary_minus_func_uint16_t_u>
    8b40:	66 85 c0             	test   %ax,%ax
    8b43:	74 07                	je     8b4c <func_1+0x1397>
    8b45:	ba 01 00 00 00       	mov    $0x1,%edx
    8b4a:	eb 05                	jmp    8b51 <func_1+0x139c>
    8b4c:	ba 00 00 00 00       	mov    $0x0,%edx
    8b51:	48 8b 85 38 f3 ff ff 	mov    -0xcc8(%rbp),%rax
    8b58:	89 10                	mov    %edx,(%rax)
    8b5a:	8b 05 20 e6 00 00    	mov    0xe620(%rip),%eax        # 17180 <g_190>
    8b60:	83 c0 01             	add    $0x1,%eax
    8b63:	89 05 17 e6 00 00    	mov    %eax,0xe617(%rip)        # 17180 <g_190>
    8b69:	8b 05 11 e6 00 00    	mov    0xe611(%rip),%eax        # 17180 <g_190>
    8b6f:	83 f8 1b             	cmp    $0x1b,%eax
    8b72:	0f 8f d9 fe ff ff    	jg     8a51 <func_1+0x129c>
    8b78:	48 83 85 20 f3 ff ff 	addq   $0x1,-0xce0(%rbp)
    8b7f:	01 
    8b80:	48 8b 05 b9 e4 00 00 	mov    0xe4b9(%rip),%rax        # 17040 <g_76>
    8b87:	be 07 00 00 00       	mov    $0x7,%esi
    8b8c:	89 c7                	mov    %eax,%edi
    8b8e:	e8 25 e3 ff ff       	callq  6eb8 <safe_add_func_uint32_t_u_u>
    8b93:	89 c0                	mov    %eax,%eax
    8b95:	48 89 05 a4 e4 00 00 	mov    %rax,0xe4a4(%rip)        # 17040 <g_76>
    8b9c:	48 8b 05 9d e4 00 00 	mov    0xe49d(%rip),%rax        # 17040 <g_76>
    8ba3:	48 83 f8 07          	cmp    $0x7,%rax
    8ba7:	0f 85 5e fa ff ff    	jne    860b <func_1+0xe56>
    8bad:	eb 01                	jmp    8bb0 <func_1+0x13fb>
    8baf:	90                   	nop
    8bb0:	48 8b 05 69 f6 00 00 	mov    0xf669(%rip),%rax        # 18220 <g_281>
    8bb7:	c7 00 ff ff ff ff    	movl   $0xffffffff,(%rax)
    8bbd:	48 8b 05 5c f6 00 00 	mov    0xf65c(%rip),%rax        # 18220 <g_281>
    8bc4:	8b 10                	mov    (%rax),%edx
    8bc6:	48 8b 05 53 f6 00 00 	mov    0xf653(%rip),%rax        # 18220 <g_281>
    8bcd:	81 f2 c7 e9 8c 29    	xor    $0x298ce9c7,%edx
    8bd3:	89 10                	mov    %edx,(%rax)
    8bd5:	48 8b 15 84 fe 00 00 	mov    0xfe84(%rip),%rdx        # 18a60 <g_2723>
    8bdc:	8b 00                	mov    (%rax),%eax
    8bde:	89 02                	mov    %eax,(%rdx)
    8be0:	0f b6 85 14 f1 ff ff 	movzbl -0xeec(%rbp),%eax
    8be7:	83 e8 01             	sub    $0x1,%eax
    8bea:	88 85 14 f1 ff ff    	mov    %al,-0xeec(%rbp)
    8bf0:	0f b6 85 14 f1 ff ff 	movzbl -0xeec(%rbp),%eax
    8bf7:	3c f1                	cmp    $0xf1,%al
    8bf9:	0f 85 03 f9 ff ff    	jne    8502 <func_1+0xd4d>
    8bff:	48 8d 85 50 f6 ff ff 	lea    -0x9b0(%rbp),%rax
    8c06:	48 83 c0 10          	add    $0x10,%rax
    8c0a:	48 89 85 80 f2 ff ff 	mov    %rax,-0xd80(%rbp)
    8c11:	48 8b 05 50 fe 00 00 	mov    0xfe50(%rip),%rax        # 18a68 <g_2725>
    8c18:	48 8b 95 80 f2 ff ff 	mov    -0xd80(%rbp),%rdx
    8c1f:	48 89 10             	mov    %rdx,(%rax)
    8c22:	48 8b 85 80 f2 ff ff 	mov    -0xd80(%rbp),%rax
    8c29:	8b 00                	mov    (%rax),%eax
    8c2b:	48 98                	cltq   
    8c2d:	48 89 c6             	mov    %rax,%rsi
    8c30:	48 c7 c7 ff ff ff ff 	mov    $0xffffffffffffffff,%rdi
    8c37:	e8 73 e4 ff ff       	callq  70af <safe_div_func_uint64_t_u_u>
    8c3c:	48 85 c0             	test   %rax,%rax
    8c3f:	75 28                	jne    8c69 <func_1+0x14b4>
    8c41:	48 8b 05 60 fb 00 00 	mov    0xfb60(%rip),%rax        # 187a8 <g_1924>
    8c48:	48 8b 00             	mov    (%rax),%rax
    8c4b:	48 89 85 20 f5 ff ff 	mov    %rax,-0xae0(%rbp)
    8c52:	48 c7 85 a8 f3 ff ff 	movq   $0x0,-0xc58(%rbp)
    8c59:	00 00 00 00 
    8c5d:	48 8b 05 ec f9 00 00 	mov    0xf9ec(%rip),%rax        # 18650 <g_580>
    8c64:	66 c7 00 01 00       	movw   $0x1,(%rax)
    8c69:	48 8d 85 c0 fb ff ff 	lea    -0x440(%rbp),%rax
    8c70:	48 8d 15 09 f0 00 00 	lea    0xf009(%rip),%rdx        # 17c80 <g_3177+0x320>
    8c77:	b9 60 00 00 00       	mov    $0x60,%ecx
    8c7c:	48 89 c7             	mov    %rax,%rdi
    8c7f:	48 89 d6             	mov    %rdx,%rsi
    8c82:	f3 48 a5             	rep movsq %ds:(%rsi),%es:(%rdi)
    8c85:	48 c7 85 c0 f2 ff ff 	movq   $0x0,-0xd40(%rbp)
    8c8c:	00 00 00 00 
    8c90:	48 8d 85 c0 f2 ff ff 	lea    -0xd40(%rbp),%rax
    8c97:	48 89 85 a0 f3 ff ff 	mov    %rax,-0xc60(%rbp)
    8c9e:	48 c7 85 c8 f2 ff ff 	movq   $0x0,-0xd38(%rbp)
    8ca5:	00 00 00 00 
    8ca9:	48 8d 85 a0 f2 ff ff 	lea    -0xd60(%rbp),%rax
    8cb0:	48 89 85 80 f3 ff ff 	mov    %rax,-0xc80(%rbp)
    8cb7:	c7 85 0c f2 ff ff 6c 	movl   $0x8c88bc6c,-0xdf4(%rbp)
    8cbe:	bc 88 8c 
    8cc1:	c6 85 17 f1 ff ff 56 	movb   $0x56,-0xee9(%rbp)
    8cc8:	48 8d 05 21 ec 00 00 	lea    0xec21(%rip),%rax        # 178f0 <g_2999>
    8ccf:	48 89 85 88 f3 ff ff 	mov    %rax,-0xc78(%rbp)
    8cd6:	66 c7 85 2a f1 ff ff 	movw   $0xffff,-0xed6(%rbp)
    8cdd:	ff ff 
    8cdf:	48 8d 85 b0 f2 ff ff 	lea    -0xd50(%rbp),%rax
    8ce6:	48 89 85 90 f3 ff ff 	mov    %rax,-0xc70(%rbp)
    8ced:	48 c7 85 d0 f2 ff ff 	movq   $0x0,-0xd30(%rbp)
    8cf4:	00 00 00 00 
    8cf8:	48 8d 85 d0 f2 ff ff 	lea    -0xd30(%rbp),%rax
    8cff:	48 89 85 d8 f2 ff ff 	mov    %rax,-0xd28(%rbp)
    8d06:	48 8d 85 d8 f2 ff ff 	lea    -0xd28(%rbp),%rax
    8d0d:	48 89 85 98 f3 ff ff 	mov    %rax,-0xc68(%rbp)
    8d14:	c7 85 dc f1 ff ff 00 	movl   $0x0,-0xe24(%rbp)
    8d1b:	00 00 00 
    8d1e:	eb 1a                	jmp    8d3a <func_1+0x1585>
    8d20:	8b 85 dc f1 ff ff    	mov    -0xe24(%rbp),%eax
    8d26:	48 98                	cltq   
    8d28:	c7 84 85 70 f5 ff ff 	movl   $0x1,-0xa90(%rbp,%rax,4)
    8d2f:	01 00 00 00 
    8d33:	83 85 dc f1 ff ff 01 	addl   $0x1,-0xe24(%rbp)
    8d3a:	83 bd dc f1 ff ff 05 	cmpl   $0x5,-0xe24(%rbp)
    8d41:	7e dd                	jle    8d20 <func_1+0x156b>
    8d43:	48 c7 85 60 f2 ff ff 	movq   $0x0,-0xda0(%rbp)
    8d4a:	00 00 00 00 
    8d4e:	e9 9d 00 00 00       	jmpq   8df0 <func_1+0x163b>
    8d53:	48 b8 bb ca 9d 47 1d 	movabs $0x62f6b81d479dcabb,%rax
    8d5a:	b8 f6 62 
    8d5d:	48 89 85 28 f4 ff ff 	mov    %rax,-0xbd8(%rbp)
    8d64:	48 8b 05 b5 f4 00 00 	mov    0xf4b5(%rip),%rax        # 18220 <g_281>
    8d6b:	48 8b 95 28 f4 ff ff 	mov    -0xbd8(%rbp),%rdx
    8d72:	89 10                	mov    %edx,(%rax)
    8d74:	8b 00                	mov    (%rax),%eax
    8d76:	85 c0                	test   %eax,%eax
    8d78:	74 4d                	je     8dc7 <func_1+0x1612>
    8d7a:	c7 85 38 f2 ff ff fa 	movl   $0xfffffffa,-0xdc8(%rbp)
    8d81:	ff ff ff 
    8d84:	eb 36                	jmp    8dbc <func_1+0x1607>
    8d86:	48 c7 85 d8 f2 ff ff 	movq   $0x0,-0xd28(%rbp)
    8d8d:	00 00 00 00 
    8d91:	c7 85 d8 f2 ff ff c9 	movl   $0x8ca872c9,-0xd28(%rbp)
    8d98:	72 a8 8c 
    8d9b:	c7 85 34 f2 ff ff 15 	movl   $0x695f3e15,-0xdcc(%rbp)
    8da2:	3e 5f 69 
    8da5:	48 8b 85 60 f2 ff ff 	mov    -0xda0(%rbp),%rax
    8dac:	48 8b 95 28 f4 ff ff 	mov    -0xbd8(%rbp),%rdx
    8db3:	89 10                	mov    %edx,(%rax)
    8db5:	83 85 38 f2 ff ff 01 	addl   $0x1,-0xdc8(%rbp)
    8dbc:	83 bd 38 f2 ff ff 36 	cmpl   $0x36,-0xdc8(%rbp)
    8dc3:	76 c1                	jbe    8d86 <func_1+0x15d1>
    8dc5:	eb 15                	jmp    8ddc <func_1+0x1627>
    8dc7:	c7 85 40 f2 ff ff 21 	movl   $0xea55d021,-0xdc0(%rbp)
    8dce:	d0 55 ea 
    8dd1:	8b 85 40 f2 ff ff    	mov    -0xdc0(%rbp),%eax
    8dd7:	e9 89 05 00 00       	jmpq   9365 <func_1+0x1bb0>
    8ddc:	48 8b 15 85 fc 00 00 	mov    0xfc85(%rip),%rdx        # 18a68 <g_2725>
    8de3:	48 8b 05 66 04 01 00 	mov    0x10466(%rip),%rax        # 19250 <g_3163>
    8dea:	48 8b 12             	mov    (%rdx),%rdx
    8ded:	48 89 10             	mov    %rdx,(%rax)
    8df0:	48 0f bf 9d 30 f1 ff 	movswq -0xed0(%rbp),%rbx
    8df7:	ff 
    8df8:	48 8b 05 81 f8 00 00 	mov    0xf881(%rip),%rax        # 18680 <g_1074>
    8dff:	48 8b 00             	mov    (%rax),%rax
    8e02:	48 85 c0             	test   %rax,%rax
    8e05:	0f 94 c0             	sete   %al
    8e08:	44 0f b6 e0          	movzbl %al,%r12d
    8e0c:	0f b7 85 cc f4 ff ff 	movzwl -0xb34(%rbp),%eax
    8e13:	98                   	cwtl   
    8e14:	f7 d0                	not    %eax
    8e16:	41 89 c5             	mov    %eax,%r13d
    8e19:	8b 95 44 f2 ff ff    	mov    -0xdbc(%rbp),%edx
    8e1f:	48 8b 05 7a f4 00 00 	mov    0xf47a(%rip),%rax        # 182a0 <g_443>
    8e26:	48 8b 00             	mov    (%rax),%rax
    8e29:	48 89 d6             	mov    %rdx,%rsi
    8e2c:	48 89 c7             	mov    %rax,%rdi
    8e2f:	e8 7b e2 ff ff       	callq  70af <safe_div_func_uint64_t_u_u>
    8e34:	48 85 c0             	test   %rax,%rax
    8e37:	75 08                	jne    8e41 <func_1+0x168c>
    8e39:	0f b6 45 c7          	movzbl -0x39(%rbp),%eax
    8e3d:	84 c0                	test   %al,%al
    8e3f:	74 07                	je     8e48 <func_1+0x1693>
    8e41:	ba 01 00 00 00       	mov    $0x1,%edx
    8e46:	eb 05                	jmp    8e4d <func_1+0x1698>
    8e48:	ba 00 00 00 00       	mov    $0x0,%edx
    8e4d:	8b 05 0d eb 00 00    	mov    0xeb0d(%rip),%eax        # 17960 <g_3177>
    8e53:	31 d0                	xor    %edx,%eax
    8e55:	41 39 c5             	cmp    %eax,%r13d
    8e58:	75 07                	jne    8e61 <func_1+0x16ac>
    8e5a:	ba 01 00 00 00       	mov    $0x1,%edx
    8e5f:	eb 05                	jmp    8e66 <func_1+0x16b1>
    8e61:	ba 00 00 00 00       	mov    $0x0,%edx
    8e66:	48 8b 05 d3 f8 00 00 	mov    0xf8d3(%rip),%rax        # 18740 <g_1418>
    8e6d:	8b 00                	mov    (%rax),%eax
    8e6f:	39 c2                	cmp    %eax,%edx
    8e71:	0f 94 c0             	sete   %al
    8e74:	0f b6 c0             	movzbl %al,%eax
    8e77:	39 85 4c f2 ff ff    	cmp    %eax,-0xdb4(%rbp)
    8e7d:	0f 9d c0             	setge  %al
    8e80:	0f b6 c0             	movzbl %al,%eax
    8e83:	41 39 c4             	cmp    %eax,%r12d
    8e86:	0f 9c c0             	setl   %al
    8e89:	0f b6 c0             	movzbl %al,%eax
    8e8c:	48 89 de             	mov    %rbx,%rsi
    8e8f:	48 89 c7             	mov    %rax,%rdi
    8e92:	e8 b4 e1 ff ff       	callq  704b <safe_sub_func_uint64_t_u_u>
    8e97:	48 85 c0             	test   %rax,%rax
    8e9a:	75 0a                	jne    8ea6 <func_1+0x16f1>
    8e9c:	8b 85 88 f2 ff ff    	mov    -0xd78(%rbp),%eax
    8ea2:	85 c0                	test   %eax,%eax
    8ea4:	74 07                	je     8ead <func_1+0x16f8>
    8ea6:	b8 01 00 00 00       	mov    $0x1,%eax
    8eab:	eb 05                	jmp    8eb2 <func_1+0x16fd>
    8ead:	b8 00 00 00 00       	mov    $0x0,%eax
    8eb2:	89 c2                	mov    %eax,%edx
    8eb4:	8b 85 54 f2 ff ff    	mov    -0xdac(%rbp),%eax
    8eba:	21 d0                	and    %edx,%eax
    8ebc:	98                   	cwtl   
    8ebd:	be f8 ff ff ff       	mov    $0xfffffff8,%esi
    8ec2:	89 c7                	mov    %eax,%edi
    8ec4:	e8 ea d4 ff ff       	callq  63b3 <safe_add_func_int16_t_s_s>
    8ec9:	66 85 c0             	test   %ax,%ax
    8ecc:	0f 84 ed 02 00 00    	je     91bf <func_1+0x1a0a>
    8ed2:	48 8d 85 e0 f4 ff ff 	lea    -0xb20(%rbp),%rax
    8ed9:	48 83 c0 10          	add    $0x10,%rax
    8edd:	48 89 85 e0 f2 ff ff 	mov    %rax,-0xd20(%rbp)
    8ee4:	48 8d 85 80 f2 ff ff 	lea    -0xd80(%rbp),%rax
    8eeb:	48 89 85 e8 f2 ff ff 	mov    %rax,-0xd18(%rbp)
    8ef2:	48 8d 05 53 e1 00 00 	lea    0xe153(%rip),%rax        # 1704c <g_80>
    8ef9:	48 89 85 f0 f2 ff ff 	mov    %rax,-0xd10(%rbp)
    8f00:	c7 85 60 f1 ff ff ff 	movl   $0xffffffff,-0xea0(%rbp)
    8f07:	ff ff ff 
    8f0a:	48 c7 85 d0 f2 ff ff 	movq   $0x0,-0xd30(%rbp)
    8f11:	00 00 00 00 
    8f15:	c7 85 d0 f2 ff ff 41 	movl   $0x2b40b141,-0xd30(%rbp)
    8f1c:	b1 40 2b 
    8f1f:	c7 85 64 f1 ff ff 6c 	movl   $0x72d78c6c,-0xe9c(%rbp)
    8f26:	8c d7 72 
    8f29:	48 c7 85 d8 f2 ff ff 	movq   $0x0,-0xd28(%rbp)
    8f30:	00 00 00 00 
    8f34:	c6 85 d8 f2 ff ff 05 	movb   $0x5,-0xd28(%rbp)
    8f3b:	48 c7 85 f8 f2 ff ff 	movq   $0x1,-0xd08(%rbp)
    8f42:	01 00 00 00 
    8f46:	c7 85 5c f1 ff ff 00 	movl   $0x0,-0xea4(%rbp)
    8f4d:	00 00 00 
    8f50:	eb 1a                	jmp    8f6c <func_1+0x17b7>
    8f52:	8b 85 5c f1 ff ff    	mov    -0xea4(%rbp),%eax
    8f58:	48 98                	cltq   
    8f5a:	c7 84 85 c0 f8 ff ff 	movl   $0xfffffff6,-0x740(%rbp,%rax,4)
    8f61:	f6 ff ff ff 
    8f65:	83 85 5c f1 ff ff 01 	addl   $0x1,-0xea4(%rbp)
    8f6c:	83 bd 5c f1 ff ff 08 	cmpl   $0x8,-0xea4(%rbp)
    8f73:	7e dd                	jle    8f52 <func_1+0x179d>
    8f75:	c7 85 5c f1 ff ff 00 	movl   $0x0,-0xea4(%rbp)
    8f7c:	00 00 00 
    8f7f:	eb 1b                	jmp    8f9c <func_1+0x17e7>
    8f81:	8b 85 5c f1 ff ff    	mov    -0xea4(%rbp),%eax
    8f87:	48 98                	cltq   
    8f89:	48 c7 84 c5 c0 fb ff 	movq   $0x0,-0x440(%rbp,%rax,8)
    8f90:	ff 00 00 00 00 
    8f95:	83 85 5c f1 ff ff 01 	addl   $0x1,-0xea4(%rbp)
    8f9c:	83 bd 5c f1 ff ff 08 	cmpl   $0x8,-0xea4(%rbp)
    8fa3:	7e dc                	jle    8f81 <func_1+0x17cc>
    8fa5:	8b 85 c0 f8 ff ff    	mov    -0x740(%rbp),%eax
    8fab:	0f be d8             	movsbl %al,%ebx
    8fae:	48 8b 05 9b f6 00 00 	mov    0xf69b(%rip),%rax        # 18650 <g_580>
    8fb5:	0f b7 00             	movzwl (%rax),%eax
    8fb8:	44 0f bf e0          	movswl %ax,%r12d
    8fbc:	8b 95 dc f8 ff ff    	mov    -0x724(%rbp),%edx
    8fc2:	48 8b 05 3f f2 00 00 	mov    0xf23f(%rip),%rax        # 18208 <g_104>
    8fc9:	88 10                	mov    %dl,(%rax)
    8fcb:	48 8b 85 70 f2 ff ff 	mov    -0xd90(%rbp),%rax
    8fd2:	48 8b 00             	mov    (%rax),%rax
    8fd5:	48 8b 10             	mov    (%rax),%rdx
    8fd8:	8b 85 cc f8 ff ff    	mov    -0x734(%rbp),%eax
    8fde:	89 c1                	mov    %eax,%ecx
    8fe0:	48 8b 85 70 f2 ff ff 	mov    -0xd90(%rbp),%rax
    8fe7:	48 8b 00             	mov    (%rax),%rax
    8fea:	48 31 ca             	xor    %rcx,%rdx
    8fed:	48 89 10             	mov    %rdx,(%rax)
    8ff0:	48 8b 00             	mov    (%rax),%rax
    8ff3:	48 83 f8 01          	cmp    $0x1,%rax
    8ff7:	8b 85 54 f4 ff ff    	mov    -0xbac(%rbp),%eax
    8ffd:	44 0f b7 e8          	movzwl %ax,%r13d
    9001:	8b 85 cc f8 ff ff    	mov    -0x734(%rbp),%eax
    9007:	89 c6                	mov    %eax,%esi
    9009:	bf 06 00 00 00       	mov    $0x6,%edi
    900e:	e8 f2 d5 ff ff       	callq  6605 <safe_sub_func_int32_t_s_s>
    9013:	0f b7 c0             	movzwl %ax,%eax
    9016:	44 89 ee             	mov    %r13d,%esi
    9019:	89 c7                	mov    %eax,%edi
    901b:	e8 1d dd ff ff       	callq  6d3d <safe_mul_func_uint16_t_u_u>
    9020:	be 0a 00 00 00       	mov    $0xa,%esi
    9025:	bf 01 00 00 00       	mov    $0x1,%edi
    902a:	e8 8f dd ff ff       	callq  6dbe <safe_lshift_func_uint16_t_u_s>
    902f:	66 85 c0             	test   %ax,%ax
    9032:	74 07                	je     903b <func_1+0x1886>
    9034:	b8 01 00 00 00       	mov    $0x1,%eax
    9039:	eb 05                	jmp    9040 <func_1+0x188b>
    903b:	b8 00 00 00 00       	mov    $0x0,%eax
    9040:	98                   	cwtl   
    9041:	44 89 e6             	mov    %r12d,%esi
    9044:	89 c7                	mov    %eax,%edi
    9046:	e8 cb d3 ff ff       	callq  6416 <safe_mod_func_int16_t_s_s>
    904b:	8b 85 cc f8 ff ff    	mov    -0x734(%rbp),%eax
    9051:	85 c0                	test   %eax,%eax
    9053:	74 22                	je     9077 <func_1+0x18c2>
    9055:	48 8b 05 6c f7 00 00 	mov    0xf76c(%rip),%rax        # 187c8 <g_1947>
    905c:	48 8b 00             	mov    (%rax),%rax
    905f:	48 8b 00             	mov    (%rax),%rax
    9062:	8b 00                	mov    (%rax),%eax
    9064:	85 c0                	test   %eax,%eax
    9066:	75 0f                	jne    9077 <func_1+0x18c2>
    9068:	48 8b 05 b9 f1 00 00 	mov    0xf1b9(%rip),%rax        # 18228 <g_346>
    906f:	48 8b 00             	mov    (%rax),%rax
    9072:	48 85 c0             	test   %rax,%rax
    9075:	74 07                	je     907e <func_1+0x18c9>
    9077:	b8 01 00 00 00       	mov    $0x1,%eax
    907c:	eb 05                	jmp    9083 <func_1+0x18ce>
    907e:	b8 00 00 00 00       	mov    $0x0,%eax
    9083:	0f be c0             	movsbl %al,%eax
    9086:	89 de                	mov    %ebx,%esi
    9088:	89 c7                	mov    %eax,%edi
    908a:	e8 45 d1 ff ff       	callq  61d4 <safe_add_func_int8_t_s_s>
    908f:	48 8b 05 f2 00 01 00 	mov    0x100f2(%rip),%rax        # 19188 <g_2876>
    9096:	48 8b 00             	mov    (%rax),%rax
    9099:	48 8b 00             	mov    (%rax),%rax
    909c:	48 c7 00 00 00 00 00 	movq   $0x0,(%rax)
    90a3:	48 8b 85 e8 f2 ff ff 	mov    -0xd18(%rbp),%rax
    90aa:	48 8b 95 e0 f2 ff ff 	mov    -0xd20(%rbp),%rdx
    90b1:	48 89 10             	mov    %rdx,(%rax)
    90b4:	83 ad 60 f1 ff ff 01 	subl   $0x1,-0xea0(%rbp)
    90bb:	48 8b 05 f6 f6 00 00 	mov    0xf6f6(%rip),%rax        # 187b8 <g_1927>
    90c2:	48 8b 08             	mov    (%rax),%rcx
    90c5:	48 8b 85 10 f4 ff ff 	mov    -0xbf0(%rbp),%rax
    90cc:	48 8b 10             	mov    (%rax),%rdx
    90cf:	48 8b 85 10 f4 ff ff 	mov    -0xbf0(%rbp),%rax
    90d6:	48 89 10             	mov    %rdx,(%rax)
    90d9:	48 8b 85 10 f4 ff ff 	mov    -0xbf0(%rbp),%rax
    90e0:	48 8b 00             	mov    (%rax),%rax
    90e3:	48 39 c1             	cmp    %rax,%rcx
    90e6:	48 8b 85 80 f2 ff ff 	mov    -0xd80(%rbp),%rax
    90ed:	8b 00                	mov    (%rax),%eax
    90ef:	89 c3                	mov    %eax,%ebx
    90f1:	48 8b 85 f0 f2 ff ff 	mov    -0xd10(%rbp),%rax
    90f8:	8b 00                	mov    (%rax),%eax
    90fa:	33 85 64 f1 ff ff    	xor    -0xe9c(%rbp),%eax
    9100:	89 c2                	mov    %eax,%edx
    9102:	48 8b 85 f0 f2 ff ff 	mov    -0xd10(%rbp),%rax
    9109:	89 10                	mov    %edx,(%rax)
    910b:	48 8b 85 f0 f2 ff ff 	mov    -0xd10(%rbp),%rax
    9112:	8b 10                	mov    (%rax),%edx
    9114:	48 8b 85 80 f2 ff ff 	mov    -0xd80(%rbp),%rax
    911b:	8b 00                	mov    (%rax),%eax
    911d:	39 c2                	cmp    %eax,%edx
    911f:	7e 0b                	jle    912c <func_1+0x1977>
    9121:	48 8b 85 80 f2 ff ff 	mov    -0xd80(%rbp),%rax
    9128:	8b 00                	mov    (%rax),%eax
    912a:	85 c0                	test   %eax,%eax
    912c:	48 8b 85 80 f2 ff ff 	mov    -0xd80(%rbp),%rax
    9133:	8b 00                	mov    (%rax),%eax
    9135:	98                   	cwtl   
    9136:	be 01 00 00 00       	mov    $0x1,%esi
    913b:	89 c7                	mov    %eax,%edi
    913d:	e8 d4 d2 ff ff       	callq  6416 <safe_mod_func_int16_t_s_s>
    9142:	31 d8                	xor    %ebx,%eax
    9144:	0f b6 d0             	movzbl %al,%edx
    9147:	48 8b 85 80 f2 ff ff 	mov    -0xd80(%rbp),%rax
    914e:	8b 00                	mov    (%rax),%eax
    9150:	0f b6 c0             	movzbl %al,%eax
    9153:	89 d6                	mov    %edx,%esi
    9155:	89 c7                	mov    %eax,%edi
    9157:	e8 52 da ff ff       	callq  6bae <safe_mod_func_uint8_t_u_u>
    915c:	0f b6 c0             	movzbl %al,%eax
    915f:	be 0b 00 00 00       	mov    $0xb,%esi
    9164:	89 c7                	mov    %eax,%edi
    9166:	e8 0f dd ff ff       	callq  6e7a <safe_rshift_func_uint16_t_u_u>
    916b:	48 8b 05 a6 f5 00 00 	mov    0xf5a6(%rip),%rax        # 18718 <g_1204>
    9172:	48 8b 00             	mov    (%rax),%rax
    9175:	8b 00                	mov    (%rax),%eax
    9177:	83 c8 02             	or     $0x2,%eax
    917a:	89 85 68 f1 ff ff    	mov    %eax,-0xe98(%rbp)
    9180:	48 8b 85 80 f2 ff ff 	mov    -0xd80(%rbp),%rax
    9187:	8b 00                	mov    (%rax),%eax
    9189:	0f b7 c0             	movzwl %ax,%eax
    918c:	be 01 00 00 00       	mov    $0x1,%esi
    9191:	89 c7                	mov    %eax,%edi
    9193:	e8 a5 db ff ff       	callq  6d3d <safe_mul_func_uint16_t_u_u>
    9198:	b8 00 00 00 00       	mov    $0x0,%eax
    919d:	48 98                	cltq   
    919f:	48 21 85 f8 f2 ff ff 	and    %rax,-0xd08(%rbp)
    91a6:	83 ad 58 f1 ff ff 01 	subl   $0x1,-0xea8(%rbp)
    91ad:	48 8b 05 f4 f0 00 00 	mov    0xf0f4(%rip),%rax        # 182a8 <g_442>
    91b4:	48 8b 00             	mov    (%rax),%rax
    91b7:	48 8b 00             	mov    (%rax),%rax
    91ba:	e9 a6 01 00 00       	jmpq   9365 <func_1+0x1bb0>
    91bf:	c6 85 15 f1 ff ff 04 	movb   $0x4,-0xeeb(%rbp)
    91c6:	c7 85 6c f1 ff ff 01 	movl   $0x1,-0xe94(%rbp)
    91cd:	00 00 00 
    91d0:	66 c7 85 24 f1 ff ff 	movw   $0x1,-0xedc(%rbp)
    91d7:	01 00 
    91d9:	48 8d 05 e0 f5 00 00 	lea    0xf5e0(%rip),%rax        # 187c0 <g_1944>
    91e0:	48 89 85 00 f3 ff ff 	mov    %rax,-0xd00(%rbp)
    91e7:	48 8d 85 c0 fb ff ff 	lea    -0x440(%rbp),%rax
    91ee:	48 8d 15 cb 93 00 00 	lea    0x93cb(%rip),%rdx        # 125c0 <g_2958+0x500>
    91f5:	b9 7e 00 00 00       	mov    $0x7e,%ecx
    91fa:	48 89 c7             	mov    %rax,%rdi
    91fd:	48 89 d6             	mov    %rdx,%rsi
    9200:	f3 48 a5             	rep movsq %ds:(%rsi),%es:(%rdi)
    9203:	48 8b 05 36 f0 00 00 	mov    0xf036(%rip),%rax        # 18240 <g_379>
    920a:	0f b7 00             	movzwl (%rax),%eax
    920d:	0f bf d8             	movswl %ax,%ebx
    9210:	44 0f b6 a5 15 f1 ff 	movzbl -0xeeb(%rbp),%r12d
    9217:	ff 
    9218:	8b 85 7c fe ff ff    	mov    -0x184(%rbp),%eax
    921e:	44 0f b6 e8          	movzbl %al,%r13d
    9222:	44 0f b6 b5 15 f1 ff 	movzbl -0xeeb(%rbp),%r14d
    9229:	ff 
    922a:	48 8b 05 df f4 00 00 	mov    0xf4df(%rip),%rax        # 18710 <g_1205>
    9231:	8b 00                	mov    (%rax),%eax
    9233:	3d 14 33 94 06       	cmp    $0x6943314,%eax
    9238:	0f 96 c0             	setbe  %al
    923b:	0f b6 d0             	movzbl %al,%edx
    923e:	0f b7 85 24 f1 ff ff 	movzwl -0xedc(%rbp),%eax
    9245:	0f be c0             	movsbl %al,%eax
    9248:	89 d6                	mov    %edx,%esi
    924a:	89 c7                	mov    %eax,%edi
    924c:	e8 c1 cf ff ff       	callq  6212 <safe_mul_func_int8_t_s_s>
    9251:	0f be c0             	movsbl %al,%eax
    9254:	41 39 c6             	cmp    %eax,%r14d
    9257:	0f 95 c0             	setne  %al
    925a:	44 0f b6 f0          	movzbl %al,%r14d
    925e:	0f b6 85 15 f1 ff ff 	movzbl -0xeeb(%rbp),%eax
    9265:	be 08 00 00 00       	mov    $0x8,%esi
    926a:	89 c7                	mov    %eax,%edi
    926c:	e8 21 d2 ff ff       	callq  6492 <safe_lshift_func_int16_t_s_s>
    9271:	98                   	cwtl   
    9272:	89 85 6c f1 ff ff    	mov    %eax,-0xe94(%rbp)
    9278:	8b 85 6c f1 ff ff    	mov    -0xe94(%rbp),%eax
    927e:	48 98                	cltq   
    9280:	4c 89 f6             	mov    %r14,%rsi
    9283:	48 89 c7             	mov    %rax,%rdi
    9286:	e8 c0 dd ff ff       	callq  704b <safe_sub_func_uint64_t_u_u>
    928b:	48 8b 85 08 f4 ff ff 	mov    -0xbf8(%rbp),%rax
    9292:	48 8b 95 00 f3 ff ff 	mov    -0xd00(%rbp),%rdx
    9299:	48 89 10             	mov    %rdx,(%rax)
    929c:	48 8b 85 08 f4 ff ff 	mov    -0xbf8(%rbp),%rax
    92a3:	48 8b 00             	mov    (%rax),%rax
    92a6:	48 85 c0             	test   %rax,%rax
    92a9:	0f 94 c0             	sete   %al
    92ac:	0f b6 c0             	movzbl %al,%eax
    92af:	48 be 4f 5b 2c cb af 	movabs $0xeaca2afcb2c5b4f,%rsi
    92b6:	a2 ac 0e 
    92b9:	48 89 c7             	mov    %rax,%rdi
    92bc:	e8 6d dd ff ff       	callq  702e <safe_add_func_uint64_t_u_u>
    92c1:	0f b6 95 15 f1 ff ff 	movzbl -0xeeb(%rbp),%edx
    92c8:	48 39 d0             	cmp    %rdx,%rax
    92cb:	0f 92 c0             	setb   %al
    92ce:	0f b6 c0             	movzbl %al,%eax
    92d1:	be dc 00 00 00       	mov    $0xdc,%esi
    92d6:	89 c7                	mov    %eax,%edi
    92d8:	e8 d1 d8 ff ff       	callq  6bae <safe_mod_func_uint8_t_u_u>
    92dd:	89 c2                	mov    %eax,%edx
    92df:	0f b7 85 24 f1 ff ff 	movzwl -0xedc(%rbp),%eax
    92e6:	09 d0                	or     %edx,%eax
    92e8:	0f b6 c0             	movzbl %al,%eax
    92eb:	44 89 ee             	mov    %r13d,%esi
    92ee:	89 c7                	mov    %eax,%edi
    92f0:	e8 83 d8 ff ff       	callq  6b78 <safe_sub_func_uint8_t_u_u>
    92f5:	0f b7 85 24 f1 ff ff 	movzwl -0xedc(%rbp),%eax
    92fc:	83 f0 01             	xor    $0x1,%eax
    92ff:	98                   	cwtl   
    9300:	89 c6                	mov    %eax,%esi
    9302:	bf 01 00 00 00       	mov    $0x1,%edi
    9307:	e8 49 d1 ff ff       	callq  6455 <safe_div_func_int16_t_s_s>
    930c:	0f b6 95 15 f1 ff ff 	movzbl -0xeeb(%rbp),%edx
    9313:	48 0f be 8d 1e f1 ff 	movsbq -0xee2(%rbp),%rcx
    931a:	ff 
    931b:	48 8b 05 86 ef 00 00 	mov    0xef86(%rip),%rax        # 182a8 <g_442>
    9322:	48 8b 00             	mov    (%rax),%rax
    9325:	48 8b 00             	mov    (%rax),%rax
    9328:	48 39 c1             	cmp    %rax,%rcx
    932b:	0f 96 c0             	setbe  %al
    932e:	0f b6 c0             	movzbl %al,%eax
    9331:	39 c2                	cmp    %eax,%edx
    9333:	0f 9e c0             	setle  %al
    9336:	0f b6 c0             	movzbl %al,%eax
    9339:	44 89 e6             	mov    %r12d,%esi
    933c:	89 c7                	mov    %eax,%edi
    933e:	e8 b2 d0 ff ff       	callq  63f5 <safe_mul_func_int16_t_s_s>
    9343:	98                   	cwtl   
    9344:	89 de                	mov    %ebx,%esi
    9346:	89 c7                	mov    %eax,%edi
    9348:	e8 a8 d0 ff ff       	callq  63f5 <safe_mul_func_int16_t_s_s>
    934d:	0f bf d0             	movswl %ax,%edx
    9350:	8b 85 38 f1 ff ff    	mov    -0xec8(%rbp),%eax
    9356:	31 d0                	xor    %edx,%eax
    9358:	89 85 38 f1 ff ff    	mov    %eax,-0xec8(%rbp)
    935e:	0f b6 85 15 f1 ff ff 	movzbl -0xeeb(%rbp),%eax
    9365:	48 8b 5d c8          	mov    -0x38(%rbp),%rbx
    9369:	64 48 33 1c 25 28 00 	xor    %fs:0x28,%rbx
    9370:	00 00 
    9372:	74 05                	je     9379 <func_1+0x1bc4>
    9374:	e8 f7 cc ff ff       	callq  6070 <__stack_chk_fail@plt>
    9379:	48 81 c4 e8 0e 00 00 	add    $0xee8,%rsp
    9380:	5b                   	pop    %rbx
    9381:	41 5c                	pop    %r12
    9383:	41 5d                	pop    %r13
    9385:	41 5e                	pop    %r14
    9387:	41 5f                	pop    %r15
    9389:	5d                   	pop    %rbp
    938a:	c3                   	retq   

000000000000938b <func_5>:
    938b:	f3 0f 1e fa          	endbr64 
    938f:	55                   	push   %rbp
    9390:	48 89 e5             	mov    %rsp,%rbp
    9393:	48 81 ec a0 01 00 00 	sub    $0x1a0,%rsp
    939a:	89 f8                	mov    %edi,%eax
    939c:	48 89 b5 80 fe ff ff 	mov    %rsi,-0x180(%rbp)
    93a3:	48 89 95 78 fe ff ff 	mov    %rdx,-0x188(%rbp)
    93aa:	48 89 8d 70 fe ff ff 	mov    %rcx,-0x190(%rbp)
    93b1:	4c 89 85 68 fe ff ff 	mov    %r8,-0x198(%rbp)
    93b8:	88 85 8c fe ff ff    	mov    %al,-0x174(%rbp)
    93be:	64 48 8b 04 25 28 00 	mov    %fs:0x28,%rax
    93c5:	00 00 
    93c7:	48 89 45 f8          	mov    %rax,-0x8(%rbp)
    93cb:	31 c0                	xor    %eax,%eax
    93cd:	48 8d 05 6c e4 00 00 	lea    0xe46c(%rip),%rax        # 17840 <g_1683>
    93d4:	48 89 85 f0 fe ff ff 	mov    %rax,-0x110(%rbp)
    93db:	48 8d 05 16 e4 00 00 	lea    0xe416(%rip),%rax        # 177f8 <g_876>
    93e2:	48 89 85 f8 fe ff ff 	mov    %rax,-0x108(%rbp)
    93e9:	48 8d 05 5c dc 00 00 	lea    0xdc5c(%rip),%rax        # 1704c <g_80>
    93f0:	48 89 85 00 ff ff ff 	mov    %rax,-0x100(%rbp)
    93f7:	48 8d 05 42 e4 00 00 	lea    0xe442(%rip),%rax        # 17840 <g_1683>
    93fe:	48 89 85 08 ff ff ff 	mov    %rax,-0xf8(%rbp)
    9405:	48 8d 05 34 e4 00 00 	lea    0xe434(%rip),%rax        # 17840 <g_1683>
    940c:	48 89 85 10 ff ff ff 	mov    %rax,-0xf0(%rbp)
    9413:	48 8d 05 32 dc 00 00 	lea    0xdc32(%rip),%rax        # 1704c <g_80>
    941a:	48 89 85 18 ff ff ff 	mov    %rax,-0xe8(%rbp)
    9421:	48 8d 05 d0 e3 00 00 	lea    0xe3d0(%rip),%rax        # 177f8 <g_876>
    9428:	48 89 85 20 ff ff ff 	mov    %rax,-0xe0(%rbp)
    942f:	48 8d 05 5a de 00 00 	lea    0xde5a(%rip),%rax        # 17290 <g_282>
    9436:	48 89 85 28 ff ff ff 	mov    %rax,-0xd8(%rbp)
    943d:	48 8d 05 b4 e3 00 00 	lea    0xe3b4(%rip),%rax        # 177f8 <g_876>
    9444:	48 89 85 30 ff ff ff 	mov    %rax,-0xd0(%rbp)
    944b:	48 8d 05 a6 e3 00 00 	lea    0xe3a6(%rip),%rax        # 177f8 <g_876>
    9452:	48 89 85 38 ff ff ff 	mov    %rax,-0xc8(%rbp)
    9459:	48 8d 05 30 de 00 00 	lea    0xde30(%rip),%rax        # 17290 <g_282>
    9460:	48 89 85 40 ff ff ff 	mov    %rax,-0xc0(%rbp)
    9467:	48 8d 05 8a e3 00 00 	lea    0xe38a(%rip),%rax        # 177f8 <g_876>
    946e:	48 89 85 48 ff ff ff 	mov    %rax,-0xb8(%rbp)
    9475:	48 8d 05 14 de 00 00 	lea    0xde14(%rip),%rax        # 17290 <g_282>
    947c:	48 89 85 50 ff ff ff 	mov    %rax,-0xb0(%rbp)
    9483:	48 8d 05 6e e3 00 00 	lea    0xe36e(%rip),%rax        # 177f8 <g_876>
    948a:	48 89 85 58 ff ff ff 	mov    %rax,-0xa8(%rbp)
    9491:	48 8d 05 60 e3 00 00 	lea    0xe360(%rip),%rax        # 177f8 <g_876>
    9498:	48 89 85 60 ff ff ff 	mov    %rax,-0xa0(%rbp)
    949f:	48 8d 05 52 e3 00 00 	lea    0xe352(%rip),%rax        # 177f8 <g_876>
    94a6:	48 89 85 68 ff ff ff 	mov    %rax,-0x98(%rbp)
    94ad:	48 8d 05 44 e3 00 00 	lea    0xe344(%rip),%rax        # 177f8 <g_876>
    94b4:	48 89 85 70 ff ff ff 	mov    %rax,-0x90(%rbp)
    94bb:	48 8d 05 36 e3 00 00 	lea    0xe336(%rip),%rax        # 177f8 <g_876>
    94c2:	48 89 85 78 ff ff ff 	mov    %rax,-0x88(%rbp)
    94c9:	48 8d 05 7c db 00 00 	lea    0xdb7c(%rip),%rax        # 1704c <g_80>
    94d0:	48 89 45 80          	mov    %rax,-0x80(%rbp)
    94d4:	48 8d 05 71 db 00 00 	lea    0xdb71(%rip),%rax        # 1704c <g_80>
    94db:	48 89 45 88          	mov    %rax,-0x78(%rbp)
    94df:	48 8d 05 12 e3 00 00 	lea    0xe312(%rip),%rax        # 177f8 <g_876>
    94e6:	48 89 45 90          	mov    %rax,-0x70(%rbp)
    94ea:	48 8d 05 07 e3 00 00 	lea    0xe307(%rip),%rax        # 177f8 <g_876>
    94f1:	48 89 45 98          	mov    %rax,-0x68(%rbp)
    94f5:	48 8d 05 44 e3 00 00 	lea    0xe344(%rip),%rax        # 17840 <g_1683>
    94fc:	48 89 45 a0          	mov    %rax,-0x60(%rbp)
    9500:	48 8d 05 f1 e2 00 00 	lea    0xe2f1(%rip),%rax        # 177f8 <g_876>
    9507:	48 89 45 a8          	mov    %rax,-0x58(%rbp)
    950b:	48 8d 05 e6 e2 00 00 	lea    0xe2e6(%rip),%rax        # 177f8 <g_876>
    9512:	48 89 45 b0          	mov    %rax,-0x50(%rbp)
    9516:	48 8d 05 db e2 00 00 	lea    0xe2db(%rip),%rax        # 177f8 <g_876>
    951d:	48 89 45 b8          	mov    %rax,-0x48(%rbp)
    9521:	48 8d 05 18 e3 00 00 	lea    0xe318(%rip),%rax        # 17840 <g_1683>
    9528:	48 89 45 c0          	mov    %rax,-0x40(%rbp)
    952c:	48 8d 05 c5 e2 00 00 	lea    0xe2c5(%rip),%rax        # 177f8 <g_876>
    9533:	48 89 45 c8          	mov    %rax,-0x38(%rbp)
    9537:	48 8d 05 ba e2 00 00 	lea    0xe2ba(%rip),%rax        # 177f8 <g_876>
    953e:	48 89 45 d0          	mov    %rax,-0x30(%rbp)
    9542:	48 8d 05 03 db 00 00 	lea    0xdb03(%rip),%rax        # 1704c <g_80>
    9549:	48 89 45 d8          	mov    %rax,-0x28(%rbp)
    954d:	48 8d 05 f8 da 00 00 	lea    0xdaf8(%rip),%rax        # 1704c <g_80>
    9554:	48 89 45 e0          	mov    %rax,-0x20(%rbp)
    9558:	48 8d 05 99 e2 00 00 	lea    0xe299(%rip),%rax        # 177f8 <g_876>
    955f:	48 89 45 e8          	mov    %rax,-0x18(%rbp)
    9563:	48 c7 85 b0 fe ff ff 	movq   $0x0,-0x150(%rbp)
    956a:	00 00 00 00 
    956e:	48 c7 85 b8 fe ff ff 	movq   $0x0,-0x148(%rbp)
    9575:	00 00 00 00 
    9579:	48 c7 85 c0 fe ff ff 	movq   $0x0,-0x140(%rbp)
    9580:	00 00 00 00 
    9584:	c7 85 b0 fe ff ff 96 	movl   $0xe384ba96,-0x150(%rbp)
    958b:	ba 84 e3 
    958e:	c7 85 b8 fe ff ff 96 	movl   $0xe384ba96,-0x148(%rbp)
    9595:	ba 84 e3 
    9598:	c7 85 c0 fe ff ff 96 	movl   $0xe384ba96,-0x140(%rbp)
    959f:	ba 84 e3 
    95a2:	c7 05 d4 db 00 00 00 	movl   $0x0,0xdbd4(%rip)        # 17180 <g_190>
    95a9:	00 00 00 
    95ac:	eb 5a                	jmp    9608 <func_5+0x27d>
    95ae:	48 c7 85 a8 fe ff ff 	movq   $0x0,-0x158(%rbp)
    95b5:	00 00 00 00 
    95b9:	48 8d 05 60 ec 00 00 	lea    0xec60(%rip),%rax        # 18220 <g_281>
    95c0:	48 89 85 d0 fe ff ff 	mov    %rax,-0x130(%rbp)
    95c7:	48 8d 05 52 ec 00 00 	lea    0xec52(%rip),%rax        # 18220 <g_281>
    95ce:	48 89 85 d8 fe ff ff 	mov    %rax,-0x128(%rbp)
    95d5:	48 8d 05 44 ec 00 00 	lea    0xec44(%rip),%rax        # 18220 <g_281>
    95dc:	48 89 85 e0 fe ff ff 	mov    %rax,-0x120(%rbp)
    95e3:	48 8d 05 36 ec 00 00 	lea    0xec36(%rip),%rax        # 18220 <g_281>
    95ea:	48 89 85 e8 fe ff ff 	mov    %rax,-0x118(%rbp)
    95f1:	48 8b 45 80          	mov    -0x80(%rbp),%rax
    95f5:	48 89 45 80          	mov    %rax,-0x80(%rbp)
    95f9:	8b 05 81 db 00 00    	mov    0xdb81(%rip),%eax        # 17180 <g_190>
    95ff:	83 e8 01             	sub    $0x1,%eax
    9602:	89 05 78 db 00 00    	mov    %eax,0xdb78(%rip)        # 17180 <g_190>
    9608:	8b 05 72 db 00 00    	mov    0xdb72(%rip),%eax        # 17180 <g_190>
    960e:	83 f8 fe             	cmp    $0xfffffffe,%eax
    9611:	7d 9b                	jge    95ae <func_5+0x223>
    9613:	48 8b 05 e6 eb 00 00 	mov    0xebe6(%rip),%rax        # 18200 <g_79>
    961a:	c7 00 91 dd 72 96    	movl   $0x9672dd91,(%rax)
    9620:	48 c7 05 55 db 00 00 	movq   $0x0,0xdb55(%rip)        # 17180 <g_190>
    9627:	00 00 00 00 
    962b:	e9 bf 00 00 00       	jmpq   96ef <func_5+0x364>
    9630:	66 c7 85 9e fe ff ff 	movw   $0xffff,-0x162(%rbp)
    9637:	ff ff 
    9639:	c7 85 a4 fe ff ff fc 	movl   $0xfffffffc,-0x15c(%rbp)
    9640:	ff ff ff 
    9643:	c7 85 a0 fe ff ff 00 	movl   $0x0,-0x160(%rbp)
    964a:	00 00 00 
    964d:	eb 1b                	jmp    966a <func_5+0x2df>
    964f:	8b 85 a0 fe ff ff    	mov    -0x160(%rbp),%eax
    9655:	48 98                	cltq   
    9657:	48 c7 84 c5 d0 fe ff 	movq   $0x1,-0x130(%rbp,%rax,8)
    965e:	ff 01 00 00 00 
    9663:	83 85 a0 fe ff ff 01 	addl   $0x1,-0x160(%rbp)
    966a:	83 bd a0 fe ff ff 01 	cmpl   $0x1,-0x160(%rbp)
    9671:	7e dc                	jle    964f <func_5+0x2c4>
    9673:	83 85 a4 fe ff ff 01 	addl   $0x1,-0x15c(%rbp)
    967a:	48 8b 85 d8 fe ff ff 	mov    -0x128(%rbp),%rax
    9681:	48 85 c0             	test   %rax,%rax
    9684:	75 56                	jne    96dc <func_5+0x351>
    9686:	0f b6 85 8c fe ff ff 	movzbl -0x174(%rbp),%eax
    968d:	0f be d0             	movsbl %al,%edx
    9690:	48 8b 85 68 fe ff ff 	mov    -0x198(%rbp),%rax
    9697:	0f b6 00             	movzbl (%rax),%eax
    969a:	0f be c0             	movsbl %al,%eax
    969d:	89 d6                	mov    %edx,%esi
    969f:	89 c7                	mov    %eax,%edi
    96a1:	e8 4c cb ff ff       	callq  61f2 <safe_sub_func_int8_t_s_s>
    96a6:	89 c2                	mov    %eax,%edx
    96a8:	48 8b 05 81 eb 00 00 	mov    0xeb81(%rip),%rax        # 18230 <g_345>
    96af:	48 8b 00             	mov    (%rax),%rax
    96b2:	48 0f be d2          	movsbq %dl,%rdx
    96b6:	48 89 10             	mov    %rdx,(%rax)
    96b9:	48 8b 00             	mov    (%rax),%rax
    96bc:	48 83 f8 ff          	cmp    $0xffffffffffffffff,%rax
    96c0:	0f 94 c0             	sete   %al
    96c3:	0f b6 c8             	movzbl %al,%ecx
    96c6:	48 8b 05 53 eb 00 00 	mov    0xeb53(%rip),%rax        # 18220 <g_281>
    96cd:	8b 10                	mov    (%rax),%edx
    96cf:	48 8b 05 4a eb 00 00 	mov    0xeb4a(%rip),%rax        # 18220 <g_281>
    96d6:	21 ca                	and    %ecx,%edx
    96d8:	89 10                	mov    %edx,(%rax)
    96da:	eb 01                	jmp    96dd <func_5+0x352>
    96dc:	90                   	nop
    96dd:	48 8b 05 9c da 00 00 	mov    0xda9c(%rip),%rax        # 17180 <g_190>
    96e4:	48 83 e8 01          	sub    $0x1,%rax
    96e8:	48 89 05 91 da 00 00 	mov    %rax,0xda91(%rip)        # 17180 <g_190>
    96ef:	48 8b 05 8a da 00 00 	mov    0xda8a(%rip),%rax        # 17180 <g_190>
    96f6:	48 83 f8 ff          	cmp    $0xffffffffffffffff,%rax
    96fa:	0f 85 30 ff ff ff    	jne    9630 <func_5+0x2a5>
    9700:	48 8b 85 b0 fe ff ff 	mov    -0x150(%rbp),%rax
    9707:	48 8b 75 f8          	mov    -0x8(%rbp),%rsi
    970b:	64 48 33 34 25 28 00 	xor    %fs:0x28,%rsi
    9712:	00 00 
    9714:	74 05                	je     971b <func_5+0x390>
    9716:	e8 55 c9 ff ff       	callq  6070 <__stack_chk_fail@plt>
    971b:	c9                   	leaveq 
    971c:	c3                   	retq   

000000000000971d <func_13>:
    971d:	f3 0f 1e fa          	endbr64 
    9721:	55                   	push   %rbp
    9722:	48 89 e5             	mov    %rsp,%rbp
    9725:	41 56                	push   %r14
    9727:	41 55                	push   %r13
    9729:	41 54                	push   %r12
    972b:	53                   	push   %rbx
    972c:	48 81 ec 00 10 00 00 	sub    $0x1000,%rsp
    9733:	48 83 0c 24 00       	orq    $0x0,(%rsp)
    9738:	48 81 ec 00 10 00 00 	sub    $0x1000,%rsp
    973f:	48 83 0c 24 00       	orq    $0x0,(%rsp)
    9744:	48 81 ec 80 02 00 00 	sub    $0x280,%rsp
    974b:	48 89 bd 78 dd ff ff 	mov    %rdi,-0x2288(%rbp)
    9752:	48 89 b5 70 dd ff ff 	mov    %rsi,-0x2290(%rbp)
    9759:	89 d0                	mov    %edx,%eax
    975b:	88 85 6c dd ff ff    	mov    %al,-0x2294(%rbp)
    9761:	64 48 8b 04 25 28 00 	mov    %fs:0x28,%rax
    9768:	00 00 
    976a:	48 89 45 d8          	mov    %rax,-0x28(%rbp)
    976e:	31 c0                	xor    %eax,%eax
    9770:	48 c7 85 18 de ff ff 	movq   $0x0,-0x21e8(%rbp)
    9777:	00 00 00 00 
    977b:	c6 85 18 de ff ff 4d 	movb   $0x4d,-0x21e8(%rbp)
    9782:	48 c7 85 68 de ff ff 	movq   $0x0,-0x2198(%rbp)
    9789:	00 00 00 00 
    978d:	48 b8 6c d1 c8 d8 b7 	movabs $0x9d0569b7d8c8d16c,%rax
    9794:	69 05 9d 
    9797:	48 89 85 70 de ff ff 	mov    %rax,-0x2190(%rbp)
    979e:	48 c7 85 78 de ff ff 	movq   $0x0,-0x2188(%rbp)
    97a5:	00 00 00 00 
    97a9:	48 8d 05 d0 d9 00 00 	lea    0xd9d0(%rip),%rax        # 17180 <g_190>
    97b0:	48 89 85 20 de ff ff 	mov    %rax,-0x21e0(%rbp)
    97b7:	48 c7 85 30 f1 ff ff 	movq   $0x0,-0xed0(%rbp)
    97be:	00 00 00 00 
    97c2:	48 c7 85 38 f1 ff ff 	movq   $0x0,-0xec8(%rbp)
    97c9:	00 00 00 00 
    97cd:	48 8d 85 20 de ff ff 	lea    -0x21e0(%rbp),%rax
    97d4:	48 89 85 40 f1 ff ff 	mov    %rax,-0xec0(%rbp)
    97db:	48 8d 85 20 de ff ff 	lea    -0x21e0(%rbp),%rax
    97e2:	48 89 85 48 f1 ff ff 	mov    %rax,-0xeb8(%rbp)
    97e9:	48 8d 85 20 de ff ff 	lea    -0x21e0(%rbp),%rax
    97f0:	48 89 85 50 f1 ff ff 	mov    %rax,-0xeb0(%rbp)
    97f7:	48 8d 85 20 de ff ff 	lea    -0x21e0(%rbp),%rax
    97fe:	48 89 85 58 f1 ff ff 	mov    %rax,-0xea8(%rbp)
    9805:	48 8d 85 20 de ff ff 	lea    -0x21e0(%rbp),%rax
    980c:	48 89 85 60 f1 ff ff 	mov    %rax,-0xea0(%rbp)
    9813:	48 8d 85 20 de ff ff 	lea    -0x21e0(%rbp),%rax
    981a:	48 89 85 68 f1 ff ff 	mov    %rax,-0xe98(%rbp)
    9821:	48 8d 85 20 de ff ff 	lea    -0x21e0(%rbp),%rax
    9828:	48 89 85 70 f1 ff ff 	mov    %rax,-0xe90(%rbp)
    982f:	48 c7 85 78 f1 ff ff 	movq   $0x0,-0xe88(%rbp)
    9836:	00 00 00 00 
    983a:	48 8d 85 20 de ff ff 	lea    -0x21e0(%rbp),%rax
    9841:	48 89 85 80 f1 ff ff 	mov    %rax,-0xe80(%rbp)
    9848:	48 8d 85 20 de ff ff 	lea    -0x21e0(%rbp),%rax
    984f:	48 89 85 88 f1 ff ff 	mov    %rax,-0xe78(%rbp)
    9856:	48 c7 85 90 f1 ff ff 	movq   $0x0,-0xe70(%rbp)
    985d:	00 00 00 00 
    9861:	48 8d 85 20 de ff ff 	lea    -0x21e0(%rbp),%rax
    9868:	48 89 85 98 f1 ff ff 	mov    %rax,-0xe68(%rbp)
    986f:	48 c7 85 a0 f1 ff ff 	movq   $0x0,-0xe60(%rbp)
    9876:	00 00 00 00 
    987a:	48 8d 85 20 de ff ff 	lea    -0x21e0(%rbp),%rax
    9881:	48 89 85 a8 f1 ff ff 	mov    %rax,-0xe58(%rbp)
    9888:	48 8d 85 20 de ff ff 	lea    -0x21e0(%rbp),%rax
    988f:	48 89 85 b0 f1 ff ff 	mov    %rax,-0xe50(%rbp)
    9896:	48 8d 85 20 de ff ff 	lea    -0x21e0(%rbp),%rax
    989d:	48 89 85 b8 f1 ff ff 	mov    %rax,-0xe48(%rbp)
    98a4:	48 c7 85 c0 f1 ff ff 	movq   $0x0,-0xe40(%rbp)
    98ab:	00 00 00 00 
    98af:	48 8d 85 20 de ff ff 	lea    -0x21e0(%rbp),%rax
    98b6:	48 89 85 c8 f1 ff ff 	mov    %rax,-0xe38(%rbp)
    98bd:	48 8d 85 20 de ff ff 	lea    -0x21e0(%rbp),%rax
    98c4:	48 89 85 d0 f1 ff ff 	mov    %rax,-0xe30(%rbp)
    98cb:	48 c7 85 d8 f1 ff ff 	movq   $0x0,-0xe28(%rbp)
    98d2:	00 00 00 00 
    98d6:	48 8d 85 20 de ff ff 	lea    -0x21e0(%rbp),%rax
    98dd:	48 89 85 e0 f1 ff ff 	mov    %rax,-0xe20(%rbp)
    98e4:	48 8d 85 20 de ff ff 	lea    -0x21e0(%rbp),%rax
    98eb:	48 89 85 e8 f1 ff ff 	mov    %rax,-0xe18(%rbp)
    98f2:	48 c7 85 f0 f1 ff ff 	movq   $0x0,-0xe10(%rbp)
    98f9:	00 00 00 00 
    98fd:	48 c7 85 f8 f1 ff ff 	movq   $0x0,-0xe08(%rbp)
    9904:	00 00 00 00 
    9908:	48 8d 85 20 de ff ff 	lea    -0x21e0(%rbp),%rax
    990f:	48 89 85 00 f2 ff ff 	mov    %rax,-0xe00(%rbp)
    9916:	48 c7 85 08 f2 ff ff 	movq   $0x0,-0xdf8(%rbp)
    991d:	00 00 00 00 
    9921:	48 8d 85 20 de ff ff 	lea    -0x21e0(%rbp),%rax
    9928:	48 89 85 10 f2 ff ff 	mov    %rax,-0xdf0(%rbp)
    992f:	48 c7 85 18 f2 ff ff 	movq   $0x0,-0xde8(%rbp)
    9936:	00 00 00 00 
    993a:	48 8d 85 20 de ff ff 	lea    -0x21e0(%rbp),%rax
    9941:	48 89 85 20 f2 ff ff 	mov    %rax,-0xde0(%rbp)
    9948:	48 c7 85 28 f2 ff ff 	movq   $0x0,-0xdd8(%rbp)
    994f:	00 00 00 00 
    9953:	48 c7 85 30 f2 ff ff 	movq   $0x0,-0xdd0(%rbp)
    995a:	00 00 00 00 
    995e:	48 8d 85 20 de ff ff 	lea    -0x21e0(%rbp),%rax
    9965:	48 89 85 38 f2 ff ff 	mov    %rax,-0xdc8(%rbp)
    996c:	48 c7 85 40 f2 ff ff 	movq   $0x0,-0xdc0(%rbp)
    9973:	00 00 00 00 
    9977:	48 8d 85 20 de ff ff 	lea    -0x21e0(%rbp),%rax
    997e:	48 89 85 48 f2 ff ff 	mov    %rax,-0xdb8(%rbp)
    9985:	48 8d 85 20 de ff ff 	lea    -0x21e0(%rbp),%rax
    998c:	48 89 85 50 f2 ff ff 	mov    %rax,-0xdb0(%rbp)
    9993:	48 c7 85 58 f2 ff ff 	movq   $0x0,-0xda8(%rbp)
    999a:	00 00 00 00 
    999e:	48 c7 85 60 f2 ff ff 	movq   $0x0,-0xda0(%rbp)
    99a5:	00 00 00 00 
    99a9:	48 8d 85 20 de ff ff 	lea    -0x21e0(%rbp),%rax
    99b0:	48 89 85 68 f2 ff ff 	mov    %rax,-0xd98(%rbp)
    99b7:	48 8d 85 20 de ff ff 	lea    -0x21e0(%rbp),%rax
    99be:	48 89 85 70 f2 ff ff 	mov    %rax,-0xd90(%rbp)
    99c5:	48 c7 85 78 f2 ff ff 	movq   $0x0,-0xd88(%rbp)
    99cc:	00 00 00 00 
    99d0:	48 8d 85 20 de ff ff 	lea    -0x21e0(%rbp),%rax
    99d7:	48 89 85 80 f2 ff ff 	mov    %rax,-0xd80(%rbp)
    99de:	48 8d 85 20 de ff ff 	lea    -0x21e0(%rbp),%rax
    99e5:	48 89 85 88 f2 ff ff 	mov    %rax,-0xd78(%rbp)
    99ec:	48 8d 85 20 de ff ff 	lea    -0x21e0(%rbp),%rax
    99f3:	48 89 85 90 f2 ff ff 	mov    %rax,-0xd70(%rbp)
    99fa:	48 c7 85 98 f2 ff ff 	movq   $0x0,-0xd68(%rbp)
    9a01:	00 00 00 00 
    9a05:	48 c7 85 a0 f2 ff ff 	movq   $0x0,-0xd60(%rbp)
    9a0c:	00 00 00 00 
    9a10:	48 8d 85 20 de ff ff 	lea    -0x21e0(%rbp),%rax
    9a17:	48 89 85 a8 f2 ff ff 	mov    %rax,-0xd58(%rbp)
    9a1e:	48 8d 85 20 de ff ff 	lea    -0x21e0(%rbp),%rax
    9a25:	48 89 85 b0 f2 ff ff 	mov    %rax,-0xd50(%rbp)
    9a2c:	48 8d 85 20 de ff ff 	lea    -0x21e0(%rbp),%rax
    9a33:	48 89 85 b8 f2 ff ff 	mov    %rax,-0xd48(%rbp)
    9a3a:	48 c7 85 c0 f2 ff ff 	movq   $0x0,-0xd40(%rbp)
    9a41:	00 00 00 00 
    9a45:	48 c7 85 c8 f2 ff ff 	movq   $0x0,-0xd38(%rbp)
    9a4c:	00 00 00 00 
    9a50:	48 c7 85 d0 f2 ff ff 	movq   $0x0,-0xd30(%rbp)
    9a57:	00 00 00 00 
    9a5b:	48 8d 85 20 de ff ff 	lea    -0x21e0(%rbp),%rax
    9a62:	48 89 85 d8 f2 ff ff 	mov    %rax,-0xd28(%rbp)
    9a69:	48 8d 85 20 de ff ff 	lea    -0x21e0(%rbp),%rax
    9a70:	48 89 85 e0 f2 ff ff 	mov    %rax,-0xd20(%rbp)
    9a77:	48 c7 85 e8 f2 ff ff 	movq   $0x0,-0xd18(%rbp)
    9a7e:	00 00 00 00 
    9a82:	48 8d 85 20 de ff ff 	lea    -0x21e0(%rbp),%rax
    9a89:	48 89 85 f0 f2 ff ff 	mov    %rax,-0xd10(%rbp)
    9a90:	48 8d 85 20 de ff ff 	lea    -0x21e0(%rbp),%rax
    9a97:	48 89 85 f8 f2 ff ff 	mov    %rax,-0xd08(%rbp)
    9a9e:	48 8d 85 20 de ff ff 	lea    -0x21e0(%rbp),%rax
    9aa5:	48 89 85 00 f3 ff ff 	mov    %rax,-0xd00(%rbp)
    9aac:	48 8d 85 20 de ff ff 	lea    -0x21e0(%rbp),%rax
    9ab3:	48 89 85 08 f3 ff ff 	mov    %rax,-0xcf8(%rbp)
    9aba:	48 c7 85 10 f3 ff ff 	movq   $0x0,-0xcf0(%rbp)
    9ac1:	00 00 00 00 
    9ac5:	48 8d 85 20 de ff ff 	lea    -0x21e0(%rbp),%rax
    9acc:	48 89 85 18 f3 ff ff 	mov    %rax,-0xce8(%rbp)
    9ad3:	48 8d 85 20 de ff ff 	lea    -0x21e0(%rbp),%rax
    9ada:	48 89 85 20 f3 ff ff 	mov    %rax,-0xce0(%rbp)
    9ae1:	48 8d 85 20 de ff ff 	lea    -0x21e0(%rbp),%rax
    9ae8:	48 89 85 28 f3 ff ff 	mov    %rax,-0xcd8(%rbp)
    9aef:	48 8d 85 20 de ff ff 	lea    -0x21e0(%rbp),%rax
    9af6:	48 89 85 30 f3 ff ff 	mov    %rax,-0xcd0(%rbp)
    9afd:	48 8d 85 20 de ff ff 	lea    -0x21e0(%rbp),%rax
    9b04:	48 89 85 38 f3 ff ff 	mov    %rax,-0xcc8(%rbp)
    9b0b:	48 c7 85 40 f3 ff ff 	movq   $0x0,-0xcc0(%rbp)
    9b12:	00 00 00 00 
    9b16:	48 8d 85 20 de ff ff 	lea    -0x21e0(%rbp),%rax
    9b1d:	48 89 85 48 f3 ff ff 	mov    %rax,-0xcb8(%rbp)
    9b24:	48 8d 85 20 de ff ff 	lea    -0x21e0(%rbp),%rax
    9b2b:	48 89 85 50 f3 ff ff 	mov    %rax,-0xcb0(%rbp)
    9b32:	48 8d 85 20 de ff ff 	lea    -0x21e0(%rbp),%rax
    9b39:	48 89 85 58 f3 ff ff 	mov    %rax,-0xca8(%rbp)
    9b40:	48 c7 85 60 f3 ff ff 	movq   $0x0,-0xca0(%rbp)
    9b47:	00 00 00 00 
    9b4b:	48 8d 85 20 de ff ff 	lea    -0x21e0(%rbp),%rax
    9b52:	48 89 85 68 f3 ff ff 	mov    %rax,-0xc98(%rbp)
    9b59:	48 c7 85 70 f3 ff ff 	movq   $0x0,-0xc90(%rbp)
    9b60:	00 00 00 00 
    9b64:	48 8d 85 20 de ff ff 	lea    -0x21e0(%rbp),%rax
    9b6b:	48 89 85 78 f3 ff ff 	mov    %rax,-0xc88(%rbp)
    9b72:	48 8d 85 20 de ff ff 	lea    -0x21e0(%rbp),%rax
    9b79:	48 89 85 80 f3 ff ff 	mov    %rax,-0xc80(%rbp)
    9b80:	48 8d 85 20 de ff ff 	lea    -0x21e0(%rbp),%rax
    9b87:	48 89 85 88 f3 ff ff 	mov    %rax,-0xc78(%rbp)
    9b8e:	48 8d 85 20 de ff ff 	lea    -0x21e0(%rbp),%rax
    9b95:	48 89 85 90 f3 ff ff 	mov    %rax,-0xc70(%rbp)
    9b9c:	48 8d 85 20 de ff ff 	lea    -0x21e0(%rbp),%rax
    9ba3:	48 89 85 98 f3 ff ff 	mov    %rax,-0xc68(%rbp)
    9baa:	48 8d 85 20 de ff ff 	lea    -0x21e0(%rbp),%rax
    9bb1:	48 89 85 a0 f3 ff ff 	mov    %rax,-0xc60(%rbp)
    9bb8:	48 c7 85 a8 f3 ff ff 	movq   $0x0,-0xc58(%rbp)
    9bbf:	00 00 00 00 
    9bc3:	48 8d 85 20 de ff ff 	lea    -0x21e0(%rbp),%rax
    9bca:	48 89 85 b0 f3 ff ff 	mov    %rax,-0xc50(%rbp)
    9bd1:	48 8d 85 20 de ff ff 	lea    -0x21e0(%rbp),%rax
    9bd8:	48 89 85 b8 f3 ff ff 	mov    %rax,-0xc48(%rbp)
    9bdf:	48 8d 85 20 de ff ff 	lea    -0x21e0(%rbp),%rax
    9be6:	48 89 85 c0 f3 ff ff 	mov    %rax,-0xc40(%rbp)
    9bed:	48 8d 85 20 de ff ff 	lea    -0x21e0(%rbp),%rax
    9bf4:	48 89 85 c8 f3 ff ff 	mov    %rax,-0xc38(%rbp)
    9bfb:	48 c7 85 d0 f3 ff ff 	movq   $0x0,-0xc30(%rbp)
    9c02:	00 00 00 00 
    9c06:	48 c7 85 d8 f3 ff ff 	movq   $0x0,-0xc28(%rbp)
    9c0d:	00 00 00 00 
    9c11:	48 8d 85 20 de ff ff 	lea    -0x21e0(%rbp),%rax
    9c18:	48 89 85 e0 f3 ff ff 	mov    %rax,-0xc20(%rbp)
    9c1f:	48 c7 85 e8 f3 ff ff 	movq   $0x0,-0xc18(%rbp)
    9c26:	00 00 00 00 
    9c2a:	48 8d 85 20 de ff ff 	lea    -0x21e0(%rbp),%rax
    9c31:	48 89 85 f0 f3 ff ff 	mov    %rax,-0xc10(%rbp)
    9c38:	48 8d 85 20 de ff ff 	lea    -0x21e0(%rbp),%rax
    9c3f:	48 89 85 f8 f3 ff ff 	mov    %rax,-0xc08(%rbp)
    9c46:	48 8d 85 20 de ff ff 	lea    -0x21e0(%rbp),%rax
    9c4d:	48 89 85 00 f4 ff ff 	mov    %rax,-0xc00(%rbp)
    9c54:	48 8d 85 20 de ff ff 	lea    -0x21e0(%rbp),%rax
    9c5b:	48 89 85 08 f4 ff ff 	mov    %rax,-0xbf8(%rbp)
    9c62:	48 c7 85 10 f4 ff ff 	movq   $0x0,-0xbf0(%rbp)
    9c69:	00 00 00 00 
    9c6d:	48 8d 85 20 de ff ff 	lea    -0x21e0(%rbp),%rax
    9c74:	48 89 85 18 f4 ff ff 	mov    %rax,-0xbe8(%rbp)
    9c7b:	48 8d 85 20 de ff ff 	lea    -0x21e0(%rbp),%rax
    9c82:	48 89 85 20 f4 ff ff 	mov    %rax,-0xbe0(%rbp)
    9c89:	48 c7 85 28 f4 ff ff 	movq   $0x0,-0xbd8(%rbp)
    9c90:	00 00 00 00 
    9c94:	48 8d 85 20 de ff ff 	lea    -0x21e0(%rbp),%rax
    9c9b:	48 89 85 30 f4 ff ff 	mov    %rax,-0xbd0(%rbp)
    9ca2:	48 8d 85 20 de ff ff 	lea    -0x21e0(%rbp),%rax
    9ca9:	48 89 85 38 f4 ff ff 	mov    %rax,-0xbc8(%rbp)
    9cb0:	48 c7 85 40 f4 ff ff 	movq   $0x0,-0xbc0(%rbp)
    9cb7:	00 00 00 00 
    9cbb:	48 8d 85 20 de ff ff 	lea    -0x21e0(%rbp),%rax
    9cc2:	48 89 85 48 f4 ff ff 	mov    %rax,-0xbb8(%rbp)
    9cc9:	48 c7 85 50 f4 ff ff 	movq   $0x0,-0xbb0(%rbp)
    9cd0:	00 00 00 00 
    9cd4:	48 c7 85 58 f4 ff ff 	movq   $0x0,-0xba8(%rbp)
    9cdb:	00 00 00 00 
    9cdf:	48 8d 85 20 de ff ff 	lea    -0x21e0(%rbp),%rax
    9ce6:	48 89 85 60 f4 ff ff 	mov    %rax,-0xba0(%rbp)
    9ced:	48 8d 85 20 de ff ff 	lea    -0x21e0(%rbp),%rax
    9cf4:	48 89 85 68 f4 ff ff 	mov    %rax,-0xb98(%rbp)
    9cfb:	48 8d 85 20 de ff ff 	lea    -0x21e0(%rbp),%rax
    9d02:	48 89 85 70 f4 ff ff 	mov    %rax,-0xb90(%rbp)
    9d09:	48 8d 85 20 de ff ff 	lea    -0x21e0(%rbp),%rax
    9d10:	48 89 85 78 f4 ff ff 	mov    %rax,-0xb88(%rbp)
    9d17:	48 8d 85 20 de ff ff 	lea    -0x21e0(%rbp),%rax
    9d1e:	48 89 85 80 f4 ff ff 	mov    %rax,-0xb80(%rbp)
    9d25:	48 c7 85 88 f4 ff ff 	movq   $0x0,-0xb78(%rbp)
    9d2c:	00 00 00 00 
    9d30:	48 c7 85 90 f4 ff ff 	movq   $0x0,-0xb70(%rbp)
    9d37:	00 00 00 00 
    9d3b:	48 8d 85 20 de ff ff 	lea    -0x21e0(%rbp),%rax
    9d42:	48 89 85 98 f4 ff ff 	mov    %rax,-0xb68(%rbp)
    9d49:	48 8d 85 20 de ff ff 	lea    -0x21e0(%rbp),%rax
    9d50:	48 89 85 a0 f4 ff ff 	mov    %rax,-0xb60(%rbp)
    9d57:	48 8d 85 20 de ff ff 	lea    -0x21e0(%rbp),%rax
    9d5e:	48 89 85 a8 f4 ff ff 	mov    %rax,-0xb58(%rbp)
    9d65:	48 c7 85 b0 f4 ff ff 	movq   $0x0,-0xb50(%rbp)
    9d6c:	00 00 00 00 
    9d70:	48 8d 85 20 de ff ff 	lea    -0x21e0(%rbp),%rax
    9d77:	48 89 85 b8 f4 ff ff 	mov    %rax,-0xb48(%rbp)
    9d7e:	48 8d 85 20 de ff ff 	lea    -0x21e0(%rbp),%rax
    9d85:	48 89 85 c0 f4 ff ff 	mov    %rax,-0xb40(%rbp)
    9d8c:	48 c7 85 c8 f4 ff ff 	movq   $0x0,-0xb38(%rbp)
    9d93:	00 00 00 00 
    9d97:	48 c7 85 d0 f4 ff ff 	movq   $0x0,-0xb30(%rbp)
    9d9e:	00 00 00 00 
    9da2:	48 c7 85 d8 f4 ff ff 	movq   $0x0,-0xb28(%rbp)
    9da9:	00 00 00 00 
    9dad:	48 8d 85 20 de ff ff 	lea    -0x21e0(%rbp),%rax
    9db4:	48 89 85 e0 f4 ff ff 	mov    %rax,-0xb20(%rbp)
    9dbb:	48 8d 85 20 de ff ff 	lea    -0x21e0(%rbp),%rax
    9dc2:	48 89 85 e8 f4 ff ff 	mov    %rax,-0xb18(%rbp)
    9dc9:	48 8d 85 20 de ff ff 	lea    -0x21e0(%rbp),%rax
    9dd0:	48 89 85 f0 f4 ff ff 	mov    %rax,-0xb10(%rbp)
    9dd7:	48 8d 85 20 de ff ff 	lea    -0x21e0(%rbp),%rax
    9dde:	48 89 85 f8 f4 ff ff 	mov    %rax,-0xb08(%rbp)
    9de5:	48 c7 85 00 f5 ff ff 	movq   $0x0,-0xb00(%rbp)
    9dec:	00 00 00 00 
    9df0:	48 c7 85 08 f5 ff ff 	movq   $0x0,-0xaf8(%rbp)
    9df7:	00 00 00 00 
    9dfb:	48 c7 85 10 f5 ff ff 	movq   $0x0,-0xaf0(%rbp)
    9e02:	00 00 00 00 
    9e06:	48 8d 85 20 de ff ff 	lea    -0x21e0(%rbp),%rax
    9e0d:	48 89 85 18 f5 ff ff 	mov    %rax,-0xae8(%rbp)
    9e14:	48 8d 85 20 de ff ff 	lea    -0x21e0(%rbp),%rax
    9e1b:	48 89 85 20 f5 ff ff 	mov    %rax,-0xae0(%rbp)
    9e22:	48 8d 85 20 de ff ff 	lea    -0x21e0(%rbp),%rax
    9e29:	48 89 85 28 f5 ff ff 	mov    %rax,-0xad8(%rbp)
    9e30:	48 c7 85 30 f5 ff ff 	movq   $0x0,-0xad0(%rbp)
    9e37:	00 00 00 00 
    9e3b:	48 8d 85 20 de ff ff 	lea    -0x21e0(%rbp),%rax
    9e42:	48 89 85 38 f5 ff ff 	mov    %rax,-0xac8(%rbp)
    9e49:	48 8d 85 20 de ff ff 	lea    -0x21e0(%rbp),%rax
    9e50:	48 89 85 40 f5 ff ff 	mov    %rax,-0xac0(%rbp)
    9e57:	48 8d 85 20 de ff ff 	lea    -0x21e0(%rbp),%rax
    9e5e:	48 89 85 48 f5 ff ff 	mov    %rax,-0xab8(%rbp)
    9e65:	48 8d 85 20 de ff ff 	lea    -0x21e0(%rbp),%rax
    9e6c:	48 89 85 50 f5 ff ff 	mov    %rax,-0xab0(%rbp)
    9e73:	48 8d 85 20 de ff ff 	lea    -0x21e0(%rbp),%rax
    9e7a:	48 89 85 58 f5 ff ff 	mov    %rax,-0xaa8(%rbp)
    9e81:	48 8d 85 20 de ff ff 	lea    -0x21e0(%rbp),%rax
    9e88:	48 89 85 60 f5 ff ff 	mov    %rax,-0xaa0(%rbp)
    9e8f:	48 8d 85 20 de ff ff 	lea    -0x21e0(%rbp),%rax
    9e96:	48 89 85 68 f5 ff ff 	mov    %rax,-0xa98(%rbp)
    9e9d:	48 8d 85 20 de ff ff 	lea    -0x21e0(%rbp),%rax
    9ea4:	48 89 85 70 f5 ff ff 	mov    %rax,-0xa90(%rbp)
    9eab:	48 8d 85 20 de ff ff 	lea    -0x21e0(%rbp),%rax
    9eb2:	48 89 85 78 f5 ff ff 	mov    %rax,-0xa88(%rbp)
    9eb9:	48 8d 85 20 de ff ff 	lea    -0x21e0(%rbp),%rax
    9ec0:	48 89 85 80 f5 ff ff 	mov    %rax,-0xa80(%rbp)
    9ec7:	48 8d 85 20 de ff ff 	lea    -0x21e0(%rbp),%rax
    9ece:	48 89 85 88 f5 ff ff 	mov    %rax,-0xa78(%rbp)
    9ed5:	48 c7 85 90 f5 ff ff 	movq   $0x0,-0xa70(%rbp)
    9edc:	00 00 00 00 
    9ee0:	48 8d 85 20 de ff ff 	lea    -0x21e0(%rbp),%rax
    9ee7:	48 89 85 98 f5 ff ff 	mov    %rax,-0xa68(%rbp)
    9eee:	48 8d 85 20 de ff ff 	lea    -0x21e0(%rbp),%rax
    9ef5:	48 89 85 a0 f5 ff ff 	mov    %rax,-0xa60(%rbp)
    9efc:	48 8d 85 20 de ff ff 	lea    -0x21e0(%rbp),%rax
    9f03:	48 89 85 a8 f5 ff ff 	mov    %rax,-0xa58(%rbp)
    9f0a:	48 8d 85 20 de ff ff 	lea    -0x21e0(%rbp),%rax
    9f11:	48 89 85 b0 f5 ff ff 	mov    %rax,-0xa50(%rbp)
    9f18:	48 8d 85 20 de ff ff 	lea    -0x21e0(%rbp),%rax
    9f1f:	48 89 85 b8 f5 ff ff 	mov    %rax,-0xa48(%rbp)
    9f26:	48 8d 85 20 de ff ff 	lea    -0x21e0(%rbp),%rax
    9f2d:	48 89 85 c0 f5 ff ff 	mov    %rax,-0xa40(%rbp)
    9f34:	48 c7 85 c8 f5 ff ff 	movq   $0x0,-0xa38(%rbp)
    9f3b:	00 00 00 00 
    9f3f:	48 8d 85 20 de ff ff 	lea    -0x21e0(%rbp),%rax
    9f46:	48 89 85 d0 f5 ff ff 	mov    %rax,-0xa30(%rbp)
    9f4d:	48 8d 85 20 de ff ff 	lea    -0x21e0(%rbp),%rax
    9f54:	48 89 85 d8 f5 ff ff 	mov    %rax,-0xa28(%rbp)
    9f5b:	48 8d 85 20 de ff ff 	lea    -0x21e0(%rbp),%rax
    9f62:	48 89 85 e0 f5 ff ff 	mov    %rax,-0xa20(%rbp)
    9f69:	48 c7 85 e8 f5 ff ff 	movq   $0x0,-0xa18(%rbp)
    9f70:	00 00 00 00 
    9f74:	48 8d 85 20 de ff ff 	lea    -0x21e0(%rbp),%rax
    9f7b:	48 89 85 f0 f5 ff ff 	mov    %rax,-0xa10(%rbp)
    9f82:	48 8d 85 20 de ff ff 	lea    -0x21e0(%rbp),%rax
    9f89:	48 89 85 f8 f5 ff ff 	mov    %rax,-0xa08(%rbp)
    9f90:	48 c7 85 00 f6 ff ff 	movq   $0x0,-0xa00(%rbp)
    9f97:	00 00 00 00 
    9f9b:	48 8d 85 20 de ff ff 	lea    -0x21e0(%rbp),%rax
    9fa2:	48 89 85 08 f6 ff ff 	mov    %rax,-0x9f8(%rbp)
    9fa9:	48 8d 85 20 de ff ff 	lea    -0x21e0(%rbp),%rax
    9fb0:	48 89 85 10 f6 ff ff 	mov    %rax,-0x9f0(%rbp)
    9fb7:	48 8d 85 20 de ff ff 	lea    -0x21e0(%rbp),%rax
    9fbe:	48 89 85 18 f6 ff ff 	mov    %rax,-0x9e8(%rbp)
    9fc5:	48 8d 85 20 de ff ff 	lea    -0x21e0(%rbp),%rax
    9fcc:	48 89 85 20 f6 ff ff 	mov    %rax,-0x9e0(%rbp)
    9fd3:	48 8d 85 20 de ff ff 	lea    -0x21e0(%rbp),%rax
    9fda:	48 89 85 28 f6 ff ff 	mov    %rax,-0x9d8(%rbp)
    9fe1:	48 8d 85 20 de ff ff 	lea    -0x21e0(%rbp),%rax
    9fe8:	48 89 85 30 f6 ff ff 	mov    %rax,-0x9d0(%rbp)
    9fef:	48 c7 85 38 f6 ff ff 	movq   $0x0,-0x9c8(%rbp)
    9ff6:	00 00 00 00 
    9ffa:	48 8d 85 20 de ff ff 	lea    -0x21e0(%rbp),%rax
    a001:	48 89 85 40 f6 ff ff 	mov    %rax,-0x9c0(%rbp)
    a008:	48 8d 85 20 de ff ff 	lea    -0x21e0(%rbp),%rax
    a00f:	48 89 85 48 f6 ff ff 	mov    %rax,-0x9b8(%rbp)
    a016:	48 8d 85 20 de ff ff 	lea    -0x21e0(%rbp),%rax
    a01d:	48 89 85 50 f6 ff ff 	mov    %rax,-0x9b0(%rbp)
    a024:	48 8d 85 20 de ff ff 	lea    -0x21e0(%rbp),%rax
    a02b:	48 89 85 58 f6 ff ff 	mov    %rax,-0x9a8(%rbp)
    a032:	48 c7 85 60 f6 ff ff 	movq   $0x0,-0x9a0(%rbp)
    a039:	00 00 00 00 
    a03d:	48 8d 85 20 de ff ff 	lea    -0x21e0(%rbp),%rax
    a044:	48 89 85 68 f6 ff ff 	mov    %rax,-0x998(%rbp)
    a04b:	48 c7 85 70 f6 ff ff 	movq   $0x0,-0x990(%rbp)
    a052:	00 00 00 00 
    a056:	48 8d 85 20 de ff ff 	lea    -0x21e0(%rbp),%rax
    a05d:	48 89 85 78 f6 ff ff 	mov    %rax,-0x988(%rbp)
    a064:	48 8d 85 20 de ff ff 	lea    -0x21e0(%rbp),%rax
    a06b:	48 89 85 80 f6 ff ff 	mov    %rax,-0x980(%rbp)
    a072:	48 c7 85 88 f6 ff ff 	movq   $0x0,-0x978(%rbp)
    a079:	00 00 00 00 
    a07d:	48 8d 85 20 de ff ff 	lea    -0x21e0(%rbp),%rax
    a084:	48 89 85 90 f6 ff ff 	mov    %rax,-0x970(%rbp)
    a08b:	48 c7 85 98 f6 ff ff 	movq   $0x0,-0x968(%rbp)
    a092:	00 00 00 00 
    a096:	48 8d 85 20 de ff ff 	lea    -0x21e0(%rbp),%rax
    a09d:	48 89 85 a0 f6 ff ff 	mov    %rax,-0x960(%rbp)
    a0a4:	48 8d 85 20 de ff ff 	lea    -0x21e0(%rbp),%rax
    a0ab:	48 89 85 a8 f6 ff ff 	mov    %rax,-0x958(%rbp)
    a0b2:	48 8d 85 20 de ff ff 	lea    -0x21e0(%rbp),%rax
    a0b9:	48 89 85 b0 f6 ff ff 	mov    %rax,-0x950(%rbp)
    a0c0:	48 8d 85 20 de ff ff 	lea    -0x21e0(%rbp),%rax
    a0c7:	48 89 85 b8 f6 ff ff 	mov    %rax,-0x948(%rbp)
    a0ce:	48 c7 85 c0 f6 ff ff 	movq   $0x0,-0x940(%rbp)
    a0d5:	00 00 00 00 
    a0d9:	48 8d 85 20 de ff ff 	lea    -0x21e0(%rbp),%rax
    a0e0:	48 89 85 c8 f6 ff ff 	mov    %rax,-0x938(%rbp)
    a0e7:	48 8d 85 20 de ff ff 	lea    -0x21e0(%rbp),%rax
    a0ee:	48 89 85 d0 f6 ff ff 	mov    %rax,-0x930(%rbp)
    a0f5:	48 c7 85 d8 f6 ff ff 	movq   $0x0,-0x928(%rbp)
    a0fc:	00 00 00 00 
    a100:	48 8d 85 20 de ff ff 	lea    -0x21e0(%rbp),%rax
    a107:	48 89 85 e0 f6 ff ff 	mov    %rax,-0x920(%rbp)
    a10e:	48 8d 85 20 de ff ff 	lea    -0x21e0(%rbp),%rax
    a115:	48 89 85 e8 f6 ff ff 	mov    %rax,-0x918(%rbp)
    a11c:	48 c7 85 f0 f6 ff ff 	movq   $0x0,-0x910(%rbp)
    a123:	00 00 00 00 
    a127:	48 8d 85 20 de ff ff 	lea    -0x21e0(%rbp),%rax
    a12e:	48 89 85 f8 f6 ff ff 	mov    %rax,-0x908(%rbp)
    a135:	48 8d 85 20 de ff ff 	lea    -0x21e0(%rbp),%rax
    a13c:	48 89 85 00 f7 ff ff 	mov    %rax,-0x900(%rbp)
    a143:	48 8d 85 20 de ff ff 	lea    -0x21e0(%rbp),%rax
    a14a:	48 89 85 08 f7 ff ff 	mov    %rax,-0x8f8(%rbp)
    a151:	48 8d 85 20 de ff ff 	lea    -0x21e0(%rbp),%rax
    a158:	48 89 85 10 f7 ff ff 	mov    %rax,-0x8f0(%rbp)
    a15f:	48 8d 85 20 de ff ff 	lea    -0x21e0(%rbp),%rax
    a166:	48 89 85 18 f7 ff ff 	mov    %rax,-0x8e8(%rbp)
    a16d:	48 8d 85 20 de ff ff 	lea    -0x21e0(%rbp),%rax
    a174:	48 89 85 20 f7 ff ff 	mov    %rax,-0x8e0(%rbp)
    a17b:	48 8d 85 20 de ff ff 	lea    -0x21e0(%rbp),%rax
    a182:	48 89 85 28 f7 ff ff 	mov    %rax,-0x8d8(%rbp)
    a189:	48 c7 85 30 f7 ff ff 	movq   $0x0,-0x8d0(%rbp)
    a190:	00 00 00 00 
    a194:	48 8d 85 20 de ff ff 	lea    -0x21e0(%rbp),%rax
    a19b:	48 89 85 38 f7 ff ff 	mov    %rax,-0x8c8(%rbp)
    a1a2:	48 8d 85 20 de ff ff 	lea    -0x21e0(%rbp),%rax
    a1a9:	48 89 85 40 f7 ff ff 	mov    %rax,-0x8c0(%rbp)
    a1b0:	48 8d 85 20 de ff ff 	lea    -0x21e0(%rbp),%rax
    a1b7:	48 89 85 48 f7 ff ff 	mov    %rax,-0x8b8(%rbp)
    a1be:	48 8d 85 20 de ff ff 	lea    -0x21e0(%rbp),%rax
    a1c5:	48 89 85 50 f7 ff ff 	mov    %rax,-0x8b0(%rbp)
    a1cc:	48 c7 85 58 f7 ff ff 	movq   $0x0,-0x8a8(%rbp)
    a1d3:	00 00 00 00 
    a1d7:	48 c7 85 60 f7 ff ff 	movq   $0x0,-0x8a0(%rbp)
    a1de:	00 00 00 00 
    a1e2:	48 8d 85 20 de ff ff 	lea    -0x21e0(%rbp),%rax
    a1e9:	48 89 85 68 f7 ff ff 	mov    %rax,-0x898(%rbp)
    a1f0:	48 c7 85 70 f7 ff ff 	movq   $0x0,-0x890(%rbp)
    a1f7:	00 00 00 00 
    a1fb:	48 c7 85 78 f7 ff ff 	movq   $0x0,-0x888(%rbp)
    a202:	00 00 00 00 
    a206:	48 c7 85 80 f7 ff ff 	movq   $0x0,-0x880(%rbp)
    a20d:	00 00 00 00 
    a211:	48 8d 85 20 de ff ff 	lea    -0x21e0(%rbp),%rax
    a218:	48 89 85 88 f7 ff ff 	mov    %rax,-0x878(%rbp)
    a21f:	48 8d 85 20 de ff ff 	lea    -0x21e0(%rbp),%rax
    a226:	48 89 85 90 f7 ff ff 	mov    %rax,-0x870(%rbp)
    a22d:	48 c7 85 98 f7 ff ff 	movq   $0x0,-0x868(%rbp)
    a234:	00 00 00 00 
    a238:	48 8d 85 20 de ff ff 	lea    -0x21e0(%rbp),%rax
    a23f:	48 89 85 a0 f7 ff ff 	mov    %rax,-0x860(%rbp)
    a246:	48 8d 85 20 de ff ff 	lea    -0x21e0(%rbp),%rax
    a24d:	48 89 85 a8 f7 ff ff 	mov    %rax,-0x858(%rbp)
    a254:	48 8d 85 20 de ff ff 	lea    -0x21e0(%rbp),%rax
    a25b:	48 89 85 b0 f7 ff ff 	mov    %rax,-0x850(%rbp)
    a262:	48 8d 85 20 de ff ff 	lea    -0x21e0(%rbp),%rax
    a269:	48 89 85 b8 f7 ff ff 	mov    %rax,-0x848(%rbp)
    a270:	48 c7 85 c0 f7 ff ff 	movq   $0x0,-0x840(%rbp)
    a277:	00 00 00 00 
    a27b:	48 8d 85 20 de ff ff 	lea    -0x21e0(%rbp),%rax
    a282:	48 89 85 c8 f7 ff ff 	mov    %rax,-0x838(%rbp)
    a289:	48 c7 85 d0 f7 ff ff 	movq   $0x0,-0x830(%rbp)
    a290:	00 00 00 00 
    a294:	48 8d 85 20 de ff ff 	lea    -0x21e0(%rbp),%rax
    a29b:	48 89 85 d8 f7 ff ff 	mov    %rax,-0x828(%rbp)
    a2a2:	48 c7 85 e0 f7 ff ff 	movq   $0x0,-0x820(%rbp)
    a2a9:	00 00 00 00 
    a2ad:	48 8d 85 20 de ff ff 	lea    -0x21e0(%rbp),%rax
    a2b4:	48 89 85 e8 f7 ff ff 	mov    %rax,-0x818(%rbp)
    a2bb:	c7 85 bc dd ff ff 23 	movl   $0x891ea323,-0x2244(%rbp)
    a2c2:	a3 1e 89 
    a2c5:	c7 85 c0 dd ff ff ee 	movl   $0x85ad61ee,-0x2240(%rbp)
    a2cc:	61 ad 85 
    a2cf:	c7 85 c4 dd ff ff 9a 	movl   $0x2157e49a,-0x223c(%rbp)
    a2d6:	e4 57 21 
    a2d9:	c7 85 c8 dd ff ff 01 	movl   $0x1,-0x2238(%rbp)
    a2e0:	00 00 00 
    a2e3:	c7 85 cc dd ff ff fd 	movl   $0xfffffffd,-0x2234(%rbp)
    a2ea:	ff ff ff 
    a2ed:	c7 85 9c dd ff ff 01 	movl   $0x1,-0x2264(%rbp)
    a2f4:	00 00 00 
    a2f7:	c7 85 00 e0 ff ff 67 	movl   $0xe53d0a67,-0x2000(%rbp)
    a2fe:	0a 3d e5 
    a301:	c7 85 04 e0 ff ff 67 	movl   $0xe53d0a67,-0x1ffc(%rbp)
    a308:	0a 3d e5 
    a30b:	c7 85 08 e0 ff ff 67 	movl   $0xe53d0a67,-0x1ff8(%rbp)
    a312:	0a 3d e5 
    a315:	c7 85 0c e0 ff ff 21 	movl   $0x812cb721,-0x1ff4(%rbp)
    a31c:	b7 2c 81 
    a31f:	c7 85 10 e0 ff ff 67 	movl   $0xe53d0a67,-0x1ff0(%rbp)
    a326:	0a 3d e5 
    a329:	c7 85 14 e0 ff ff 67 	movl   $0xe53d0a67,-0x1fec(%rbp)
    a330:	0a 3d e5 
    a333:	c7 85 18 e0 ff ff 67 	movl   $0xe53d0a67,-0x1fe8(%rbp)
    a33a:	0a 3d e5 
    a33d:	c7 85 1c e0 ff ff 21 	movl   $0x812cb721,-0x1fe4(%rbp)
    a344:	b7 2c 81 
    a347:	c7 85 20 e0 ff ff 67 	movl   $0xe53d0a67,-0x1fe0(%rbp)
    a34e:	0a 3d e5 
    a351:	c7 85 24 e0 ff ff 67 	movl   $0xe53d0a67,-0x1fdc(%rbp)
    a358:	0a 3d e5 
    a35b:	c7 85 28 e0 ff ff 67 	movl   $0xe53d0a67,-0x1fd8(%rbp)
    a362:	0a 3d e5 
    a365:	c7 85 2c e0 ff ff 21 	movl   $0x812cb721,-0x1fd4(%rbp)
    a36c:	b7 2c 81 
    a36f:	c7 85 30 e0 ff ff 67 	movl   $0xe53d0a67,-0x1fd0(%rbp)
    a376:	0a 3d e5 
    a379:	c7 85 34 e0 ff ff 67 	movl   $0xe53d0a67,-0x1fcc(%rbp)
    a380:	0a 3d e5 
    a383:	c7 85 38 e0 ff ff 67 	movl   $0xe53d0a67,-0x1fc8(%rbp)
    a38a:	0a 3d e5 
    a38d:	c7 85 3c e0 ff ff 21 	movl   $0x812cb721,-0x1fc4(%rbp)
    a394:	b7 2c 81 
    a397:	c7 85 40 e0 ff ff 67 	movl   $0xe53d0a67,-0x1fc0(%rbp)
    a39e:	0a 3d e5 
    a3a1:	c7 85 44 e0 ff ff 67 	movl   $0xe53d0a67,-0x1fbc(%rbp)
    a3a8:	0a 3d e5 
    a3ab:	48 8d 05 46 d4 00 00 	lea    0xd446(%rip),%rax        # 177f8 <g_876>
    a3b2:	48 89 85 80 de ff ff 	mov    %rax,-0x2180(%rbp)
    a3b9:	48 8d 85 10 e4 ff ff 	lea    -0x1bf0(%rbp),%rax
    a3c0:	48 8d 15 f9 85 00 00 	lea    0x85f9(%rip),%rdx        # 129c0 <g_2958+0x900>
    a3c7:	b9 5a 00 00 00       	mov    $0x5a,%ecx
    a3cc:	48 89 c7             	mov    %rax,%rdi
    a3cf:	48 89 d6             	mov    %rdx,%rsi
    a3d2:	f3 48 a5             	rep movsq %ds:(%rsi),%es:(%rdi)
    a3d5:	c7 85 d0 dd ff ff ff 	movl   $0xffffffff,-0x2230(%rbp)
    a3dc:	ff ff ff 
    a3df:	48 8d 85 e0 e6 ff ff 	lea    -0x1920(%rbp),%rax
    a3e6:	48 8d 15 b3 88 00 00 	lea    0x88b3(%rip),%rdx        # 12ca0 <g_2958+0xbe0>
    a3ed:	b9 96 00 00 00       	mov    $0x96,%ecx
    a3f2:	48 89 c7             	mov    %rax,%rdi
    a3f5:	48 89 d6             	mov    %rdx,%rsi
    a3f8:	f3 48 a5             	rep movsq %ds:(%rsi),%es:(%rdi)
    a3fb:	48 8d 05 9a cc 00 00 	lea    0xcc9a(%rip),%rax        # 1709c <g_103+0x1c>
    a402:	48 89 85 88 de ff ff 	mov    %rax,-0x2178(%rbp)
    a409:	66 c7 85 92 dd ff ff 	movw   $0x7,-0x226e(%rbp)
    a410:	07 00 
    a412:	48 b8 75 c3 dd 39 6c 	movabs $0xf9839a6c39ddc375,%rax
    a419:	9a 83 f9 
    a41c:	48 89 85 90 de ff ff 	mov    %rax,-0x2170(%rbp)
    a423:	c7 85 d4 dd ff ff 1d 	movl   $0x2fc10a1d,-0x222c(%rbp)
    a42a:	0a c1 2f 
    a42d:	48 8d 95 90 eb ff ff 	lea    -0x1470(%rbp),%rdx
    a434:	b8 00 00 00 00       	mov    $0x0,%eax
    a439:	b9 b4 00 00 00       	mov    $0xb4,%ecx
    a43e:	48 89 d7             	mov    %rdx,%rdi
    a441:	f3 48 ab             	rep stos %rax,%es:(%rdi)
    a444:	48 c7 85 28 de ff ff 	movq   $0x0,-0x21d8(%rbp)
    a44b:	00 00 00 00 
    a44f:	48 c7 85 98 de ff ff 	movq   $0x0,-0x2168(%rbp)
    a456:	00 00 00 00 
    a45a:	48 8d 05 b7 e2 00 00 	lea    0xe2b7(%rip),%rax        # 18718 <g_1204>
    a461:	48 89 85 a0 de ff ff 	mov    %rax,-0x2160(%rbp)
    a468:	c7 85 d8 dd ff ff 2d 	movl   $0x1ed14c2d,-0x2228(%rbp)
    a46f:	4c d1 1e 
    a472:	48 c7 85 a8 de ff ff 	movq   $0x0,-0x2158(%rbp)
    a479:	00 00 00 00 
    a47d:	66 c7 85 90 df ff ff 	movw   $0xffff,-0x2070(%rbp)
    a484:	ff ff 
    a486:	66 c7 85 92 df ff ff 	movw   $0xffff,-0x206e(%rbp)
    a48d:	ff ff 
    a48f:	66 c7 85 94 df ff ff 	movw   $0xffff,-0x206c(%rbp)
    a496:	ff ff 
    a498:	66 c7 85 96 df ff ff 	movw   $0xffff,-0x206a(%rbp)
    a49f:	ff ff 
    a4a1:	66 c7 85 98 df ff ff 	movw   $0xffff,-0x2068(%rbp)
    a4a8:	ff ff 
    a4aa:	66 c7 85 9a df ff ff 	movw   $0xffff,-0x2066(%rbp)
    a4b1:	ff ff 
    a4b3:	66 c7 85 9c df ff ff 	movw   $0xffff,-0x2064(%rbp)
    a4ba:	ff ff 
    a4bc:	66 c7 85 9e df ff ff 	movw   $0xffff,-0x2062(%rbp)
    a4c3:	ff ff 
    a4c5:	66 c7 85 a0 df ff ff 	movw   $0xffff,-0x2060(%rbp)
    a4cc:	ff ff 
    a4ce:	66 c7 85 a2 df ff ff 	movw   $0xffff,-0x205e(%rbp)
    a4d5:	ff ff 
    a4d7:	66 c7 85 94 dd ff ff 	movw   $0x1,-0x226c(%rbp)
    a4de:	01 00 
    a4e0:	66 c7 85 96 dd ff ff 	movw   $0x8,-0x226a(%rbp)
    a4e7:	08 00 
    a4e9:	48 8d 05 20 dd 00 00 	lea    0xdd20(%rip),%rax        # 18210 <g_205>
    a4f0:	48 89 85 b0 de ff ff 	mov    %rax,-0x2150(%rbp)
    a4f7:	48 8d 05 5a e2 00 00 	lea    0xe25a(%rip),%rax        # 18758 <g_1503>
    a4fe:	48 89 85 b8 de ff ff 	mov    %rax,-0x2148(%rbp)
    a505:	66 c7 85 98 dd ff ff 	movw   $0x1,-0x2268(%rbp)
    a50c:	01 00 
    a50e:	c7 85 b4 dd ff ff 00 	movl   $0x0,-0x224c(%rbp)
    a515:	00 00 00 
    a518:	eb 1b                	jmp    a535 <func_13+0xe18>
    a51a:	8b 85 b4 dd ff ff    	mov    -0x224c(%rbp),%eax
    a520:	48 98                	cltq   
    a522:	48 c7 84 c5 70 df ff 	movq   $0x3,-0x2090(%rbp,%rax,8)
    a529:	ff 03 00 00 00 
    a52e:	83 85 b4 dd ff ff 01 	addl   $0x1,-0x224c(%rbp)
    a535:	83 bd b4 dd ff ff 01 	cmpl   $0x1,-0x224c(%rbp)
    a53c:	7e dc                	jle    a51a <func_13+0xdfd>
    a53e:	c7 05 38 cc 00 00 f1 	movl   $0xfffffff1,0xcc38(%rip)        # 17180 <g_190>
    a545:	ff ff ff 
    a548:	e9 83 0b 00 00       	jmpq   b0d0 <func_13+0x19b3>
    a54d:	48 c7 85 50 de ff ff 	movq   $0x0,-0x21b0(%rbp)
    a554:	00 00 00 00 
    a558:	48 8d 85 d0 df ff ff 	lea    -0x2030(%rbp),%rax
    a55f:	48 83 c0 08          	add    $0x8,%rax
    a563:	48 89 85 58 de ff ff 	mov    %rax,-0x21a8(%rbp)
    a56a:	c7 85 40 de ff ff 00 	movl   $0x0,-0x21c0(%rbp)
    a571:	00 00 00 
    a574:	c7 85 48 de ff ff 84 	movl   $0xffaf9284,-0x21b8(%rbp)
    a57b:	92 af ff 
    a57e:	48 8d 05 c7 ca 00 00 	lea    0xcac7(%rip),%rax        # 1704c <g_80>
    a585:	48 89 85 38 df ff ff 	mov    %rax,-0x20c8(%rbp)
    a58c:	c7 85 04 de ff ff 02 	movl   $0x2,-0x21fc(%rbp)
    a593:	00 00 00 
    a596:	c7 85 08 de ff ff b9 	movl   $0x69840cb9,-0x21f8(%rbp)
    a59d:	0c 84 69 
    a5a0:	c7 85 0c de ff ff e9 	movl   $0xae68eae9,-0x21f4(%rbp)
    a5a7:	ea 68 ae 
    a5aa:	48 8d 85 30 e2 ff ff 	lea    -0x1dd0(%rbp),%rax
    a5b1:	48 8d 15 a8 8b 00 00 	lea    0x8ba8(%rip),%rdx        # 13160 <g_2958+0x10a0>
    a5b8:	b9 3c 00 00 00       	mov    $0x3c,%ecx
    a5bd:	48 89 c7             	mov    %rax,%rdi
    a5c0:	48 89 d6             	mov    %rdx,%rsi
    a5c3:	f3 48 a5             	rep movsq %ds:(%rsi),%es:(%rdi)
    a5c6:	c7 85 10 de ff ff e9 	movl   $0x75cfa4e9,-0x21f0(%rbp)
    a5cd:	a4 cf 75 
    a5d0:	c7 85 b8 dd ff ff 00 	movl   $0x0,-0x2248(%rbp)
    a5d7:	00 00 00 
    a5da:	eb 1e                	jmp    a5fa <func_13+0xedd>
    a5dc:	8b 85 b8 dd ff ff    	mov    -0x2248(%rbp),%eax
    a5e2:	48 98                	cltq   
    a5e4:	48 8d 15 4d d2 00 00 	lea    0xd24d(%rip),%rdx        # 17838 <g_1539>
    a5eb:	48 89 94 c5 d0 df ff 	mov    %rdx,-0x2030(%rbp,%rax,8)
    a5f2:	ff 
    a5f3:	83 85 b8 dd ff ff 01 	addl   $0x1,-0x2248(%rbp)
    a5fa:	83 bd b8 dd ff ff 04 	cmpl   $0x4,-0x2248(%rbp)
    a601:	7e d9                	jle    a5dc <func_13+0xebf>
    a603:	c7 05 87 cc 00 00 00 	movl   $0x0,0xcc87(%rip)        # 17294 <g_414>
    a60a:	00 00 00 
    a60d:	e9 fa 08 00 00       	jmpq   af0c <func_13+0x17ef>
    a612:	48 8d 85 f0 e0 ff ff 	lea    -0x1f10(%rbp),%rax
    a619:	48 8d 15 20 8d 00 00 	lea    0x8d20(%rip),%rdx        # 13340 <g_2958+0x1280>
    a620:	b9 28 00 00 00       	mov    $0x28,%ecx
    a625:	48 89 c7             	mov    %rax,%rdi
    a628:	48 89 d6             	mov    %rdx,%rsi
    a62b:	f3 48 a5             	rep movsq %ds:(%rsi),%es:(%rdi)
    a62e:	48 8d 05 3b cb 00 00 	lea    0xcb3b(%rip),%rax        # 17170 <g_119>
    a635:	48 89 85 48 df ff ff 	mov    %rax,-0x20b8(%rbp)
    a63c:	c6 85 91 dd ff ff 06 	movb   $0x6,-0x226f(%rbp)
    a643:	c7 05 fb c9 00 00 00 	movl   $0x0,0xc9fb(%rip)        # 17048 <g_78>
    a64a:	00 00 00 
    a64d:	90                   	nop
    a64e:	8b 05 f4 c9 00 00    	mov    0xc9f4(%rip),%eax        # 17048 <g_78>
    a654:	83 f8 02             	cmp    $0x2,%eax
    a657:	0f 87 05 01 00 00    	ja     a762 <func_13+0x1045>
    a65d:	48 c7 85 60 de ff ff 	movq   $0x0,-0x21a0(%rbp)
    a664:	00 00 00 00 
    a668:	c6 85 60 de ff ff 7a 	movb   $0x7a,-0x21a0(%rbp)
    a66f:	c7 85 14 de ff ff ef 	movl   $0xf958cfef,-0x21ec(%rbp)
    a676:	cf 58 f9 
    a679:	8b 85 14 de ff ff    	mov    -0x21ec(%rbp),%eax
    a67f:	83 c8 fe             	or     $0xfffffffe,%eax
    a682:	89 85 14 de ff ff    	mov    %eax,-0x21ec(%rbp)
    a688:	b8 01 00 00 00       	mov    $0x1,%eax
    a68d:	89 c2                	mov    %eax,%edx
    a68f:	8b 85 b4 e1 ff ff    	mov    -0x1e4c(%rbp),%eax
    a695:	83 c0 01             	add    $0x1,%eax
    a698:	89 85 b4 e1 ff ff    	mov    %eax,-0x1e4c(%rbp)
    a69e:	8b 85 b4 e1 ff ff    	mov    -0x1e4c(%rbp),%eax
    a6a4:	39 c2                	cmp    %eax,%edx
    a6a6:	0f 96 c0             	setbe  %al
    a6a9:	0f b6 c0             	movzbl %al,%eax
    a6ac:	be 01 00 00 00       	mov    $0x1,%esi
    a6b1:	89 c7                	mov    %eax,%edi
    a6b3:	e8 a2 c4 ff ff       	callq  6b5a <safe_add_func_uint8_t_u_u>
    a6b8:	be 09 00 00 00       	mov    $0x9,%esi
    a6bd:	bf 87 5f 00 00       	mov    $0x5f87,%edi
    a6c2:	e8 f7 c6 ff ff       	callq  6dbe <safe_lshift_func_uint16_t_u_s>
    a6c7:	0f b7 c8             	movzwl %ax,%ecx
    a6ca:	8b 05 c4 cb 00 00    	mov    0xcbc4(%rip),%eax        # 17294 <g_414>
    a6d0:	8d 50 01             	lea    0x1(%rax),%edx
    a6d3:	8b 05 bb cb 00 00    	mov    0xcbbb(%rip),%eax        # 17294 <g_414>
    a6d9:	8d 70 02             	lea    0x2(%rax),%esi
    a6dc:	8b 05 b2 cb 00 00    	mov    0xcbb2(%rip),%eax        # 17294 <g_414>
    a6e2:	89 c7                	mov    %eax,%edi
    a6e4:	89 d2                	mov    %edx,%edx
    a6e6:	89 f6                	mov    %esi,%esi
    a6e8:	48 89 d0             	mov    %rdx,%rax
    a6eb:	48 01 c0             	add    %rax,%rax
    a6ee:	48 01 d0             	add    %rdx,%rax
    a6f1:	48 c1 e0 03          	shl    $0x3,%rax
    a6f5:	48 89 f2             	mov    %rsi,%rdx
    a6f8:	48 01 d2             	add    %rdx,%rdx
    a6fb:	48 01 f2             	add    %rsi,%rdx
    a6fe:	48 01 d0             	add    %rdx,%rax
    a701:	48 8d 14 38          	lea    (%rax,%rdi,1),%rdx
    a705:	48 8d 05 74 c9 00 00 	lea    0xc974(%rip),%rax        # 17080 <g_103>
    a70c:	48 01 d0             	add    %rdx,%rax
    a70f:	0f b6 00             	movzbl (%rax),%eax
    a712:	0f be c0             	movsbl %al,%eax
    a715:	f7 d0                	not    %eax
    a717:	48 98                	cltq   
    a719:	48 89 85 78 df ff ff 	mov    %rax,-0x2088(%rbp)
    a720:	48 8b 85 78 df ff ff 	mov    -0x2088(%rbp),%rax
    a727:	48 83 f0 fe          	xor    $0xfffffffffffffffe,%rax
    a72b:	48 39 c1             	cmp    %rax,%rcx
    a72e:	0f 9f c0             	setg   %al
    a731:	0f b6 c8             	movzbl %al,%ecx
    a734:	48 8b 05 e5 da 00 00 	mov    0xdae5(%rip),%rax        # 18220 <g_281>
    a73b:	8b 10                	mov    (%rax),%edx
    a73d:	48 8b 05 dc da 00 00 	mov    0xdadc(%rip),%rax        # 18220 <g_281>
    a744:	09 ca                	or     %ecx,%edx
    a746:	89 10                	mov    %edx,(%rax)
    a748:	48 8b 85 48 df ff ff 	mov    -0x20b8(%rbp),%rax
    a74f:	48 89 05 b2 f8 00 00 	mov    %rax,0xf8b2(%rip)        # 1a008 <g_1558>
    a756:	48 8b 85 78 dd ff ff 	mov    -0x2288(%rbp),%rax
    a75d:	e9 01 2c 00 00       	jmpq   d363 <func_13+0x3c46>
    a762:	8b 85 70 dd ff ff    	mov    -0x2290(%rbp),%eax
    a768:	85 c0                	test   %eax,%eax
    a76a:	74 3e                	je     a7aa <func_13+0x108d>
    a76c:	8b 85 e0 e1 ff ff    	mov    -0x1e20(%rbp),%eax
    a772:	0f b6 c0             	movzbl %al,%eax
    a775:	be 05 00 00 00       	mov    $0x5,%esi
    a77a:	89 c7                	mov    %eax,%edi
    a77c:	e8 84 c4 ff ff       	callq  6c05 <safe_lshift_func_uint8_t_u_s>
    a781:	48 8d 85 70 dd ff ff 	lea    -0x2290(%rbp),%rax
    a788:	48 39 85 68 de ff ff 	cmp    %rax,-0x2198(%rbp)
    a78f:	0f 95 c2             	setne  %dl
    a792:	48 8b 05 87 da 00 00 	mov    0xda87(%rip),%rax        # 18220 <g_281>
    a799:	0f b6 d2             	movzbl %dl,%edx
    a79c:	89 10                	mov    %edx,(%rax)
    a79e:	48 8b 85 78 dd ff ff 	mov    -0x2288(%rbp),%rax
    a7a5:	e9 b9 2b 00 00       	jmpq   d363 <func_13+0x3c46>
    a7aa:	48 8b 15 af de 00 00 	mov    0xdeaf(%rip),%rdx        # 18660 <g_834>
    a7b1:	48 8b 05 b0 df 00 00 	mov    0xdfb0(%rip),%rax        # 18768 <g_1562>
    a7b8:	48 8b 12             	mov    (%rdx),%rdx
    a7bb:	48 89 10             	mov    %rdx,(%rax)
    a7be:	48 c7 05 57 d0 00 00 	movq   $0x19,0xd057(%rip)        # 17820 <g_1317>
    a7c5:	19 00 00 00 
    a7c9:	e9 1e 07 00 00       	jmpq   aeec <func_13+0x17cf>
    a7ce:	48 8d 85 58 de ff ff 	lea    -0x21a8(%rbp),%rax
    a7d5:	48 89 85 f0 f7 ff ff 	mov    %rax,-0x810(%rbp)
    a7dc:	48 c7 85 f8 f7 ff ff 	movq   $0x0,-0x808(%rbp)
    a7e3:	00 00 00 00 
    a7e7:	48 8d 85 58 de ff ff 	lea    -0x21a8(%rbp),%rax
    a7ee:	48 89 85 00 f8 ff ff 	mov    %rax,-0x800(%rbp)
    a7f5:	48 8d 85 58 de ff ff 	lea    -0x21a8(%rbp),%rax
    a7fc:	48 89 85 08 f8 ff ff 	mov    %rax,-0x7f8(%rbp)
    a803:	48 8d 85 58 de ff ff 	lea    -0x21a8(%rbp),%rax
    a80a:	48 89 85 10 f8 ff ff 	mov    %rax,-0x7f0(%rbp)
    a811:	48 8d 85 58 de ff ff 	lea    -0x21a8(%rbp),%rax
    a818:	48 89 85 18 f8 ff ff 	mov    %rax,-0x7e8(%rbp)
    a81f:	48 c7 85 20 f8 ff ff 	movq   $0x0,-0x7e0(%rbp)
    a826:	00 00 00 00 
    a82a:	48 c7 85 28 f8 ff ff 	movq   $0x0,-0x7d8(%rbp)
    a831:	00 00 00 00 
    a835:	48 8d 85 58 de ff ff 	lea    -0x21a8(%rbp),%rax
    a83c:	48 89 85 30 f8 ff ff 	mov    %rax,-0x7d0(%rbp)
    a843:	48 c7 85 38 f8 ff ff 	movq   $0x0,-0x7c8(%rbp)
    a84a:	00 00 00 00 
    a84e:	48 8d 85 58 de ff ff 	lea    -0x21a8(%rbp),%rax
    a855:	48 89 85 40 f8 ff ff 	mov    %rax,-0x7c0(%rbp)
    a85c:	48 8d 85 58 de ff ff 	lea    -0x21a8(%rbp),%rax
    a863:	48 89 85 48 f8 ff ff 	mov    %rax,-0x7b8(%rbp)
    a86a:	48 8d 85 58 de ff ff 	lea    -0x21a8(%rbp),%rax
    a871:	48 89 85 50 f8 ff ff 	mov    %rax,-0x7b0(%rbp)
    a878:	48 c7 85 58 f8 ff ff 	movq   $0x0,-0x7a8(%rbp)
    a87f:	00 00 00 00 
    a883:	48 8d 85 58 de ff ff 	lea    -0x21a8(%rbp),%rax
    a88a:	48 89 85 60 f8 ff ff 	mov    %rax,-0x7a0(%rbp)
    a891:	48 8d 85 58 de ff ff 	lea    -0x21a8(%rbp),%rax
    a898:	48 89 85 68 f8 ff ff 	mov    %rax,-0x798(%rbp)
    a89f:	48 c7 85 70 f8 ff ff 	movq   $0x0,-0x790(%rbp)
    a8a6:	00 00 00 00 
    a8aa:	48 c7 85 78 f8 ff ff 	movq   $0x0,-0x788(%rbp)
    a8b1:	00 00 00 00 
    a8b5:	48 c7 85 80 f8 ff ff 	movq   $0x0,-0x780(%rbp)
    a8bc:	00 00 00 00 
    a8c0:	48 8d 85 58 de ff ff 	lea    -0x21a8(%rbp),%rax
    a8c7:	48 89 85 88 f8 ff ff 	mov    %rax,-0x778(%rbp)
    a8ce:	48 c7 85 90 f8 ff ff 	movq   $0x0,-0x770(%rbp)
    a8d5:	00 00 00 00 
    a8d9:	48 c7 85 98 f8 ff ff 	movq   $0x0,-0x768(%rbp)
    a8e0:	00 00 00 00 
    a8e4:	48 c7 85 a0 f8 ff ff 	movq   $0x0,-0x760(%rbp)
    a8eb:	00 00 00 00 
    a8ef:	48 c7 85 a8 f8 ff ff 	movq   $0x0,-0x758(%rbp)
    a8f6:	00 00 00 00 
    a8fa:	48 8d 85 58 de ff ff 	lea    -0x21a8(%rbp),%rax
    a901:	48 89 85 b0 f8 ff ff 	mov    %rax,-0x750(%rbp)
    a908:	48 8d 85 58 de ff ff 	lea    -0x21a8(%rbp),%rax
    a90f:	48 89 85 b8 f8 ff ff 	mov    %rax,-0x748(%rbp)
    a916:	48 c7 85 c0 f8 ff ff 	movq   $0x0,-0x740(%rbp)
    a91d:	00 00 00 00 
    a921:	48 8d 85 58 de ff ff 	lea    -0x21a8(%rbp),%rax
    a928:	48 89 85 c8 f8 ff ff 	mov    %rax,-0x738(%rbp)
    a92f:	48 c7 85 d0 f8 ff ff 	movq   $0x0,-0x730(%rbp)
    a936:	00 00 00 00 
    a93a:	48 c7 85 d8 f8 ff ff 	movq   $0x0,-0x728(%rbp)
    a941:	00 00 00 00 
    a945:	48 c7 85 e0 f8 ff ff 	movq   $0x0,-0x720(%rbp)
    a94c:	00 00 00 00 
    a950:	48 c7 85 e8 f8 ff ff 	movq   $0x0,-0x718(%rbp)
    a957:	00 00 00 00 
    a95b:	48 c7 85 f0 f8 ff ff 	movq   $0x0,-0x710(%rbp)
    a962:	00 00 00 00 
    a966:	48 c7 85 f8 f8 ff ff 	movq   $0x0,-0x708(%rbp)
    a96d:	00 00 00 00 
    a971:	48 8d 85 58 de ff ff 	lea    -0x21a8(%rbp),%rax
    a978:	48 89 85 00 f9 ff ff 	mov    %rax,-0x700(%rbp)
    a97f:	48 c7 85 08 f9 ff ff 	movq   $0x0,-0x6f8(%rbp)
    a986:	00 00 00 00 
    a98a:	48 8d 85 58 de ff ff 	lea    -0x21a8(%rbp),%rax
    a991:	48 89 85 10 f9 ff ff 	mov    %rax,-0x6f0(%rbp)
    a998:	48 c7 85 18 f9 ff ff 	movq   $0x0,-0x6e8(%rbp)
    a99f:	00 00 00 00 
    a9a3:	48 8d 85 58 de ff ff 	lea    -0x21a8(%rbp),%rax
    a9aa:	48 89 85 20 f9 ff ff 	mov    %rax,-0x6e0(%rbp)
    a9b1:	48 8d 85 58 de ff ff 	lea    -0x21a8(%rbp),%rax
    a9b8:	48 89 85 28 f9 ff ff 	mov    %rax,-0x6d8(%rbp)
    a9bf:	48 8d 85 58 de ff ff 	lea    -0x21a8(%rbp),%rax
    a9c6:	48 89 85 30 f9 ff ff 	mov    %rax,-0x6d0(%rbp)
    a9cd:	48 8d 85 58 de ff ff 	lea    -0x21a8(%rbp),%rax
    a9d4:	48 89 85 38 f9 ff ff 	mov    %rax,-0x6c8(%rbp)
    a9db:	48 c7 85 40 f9 ff ff 	movq   $0x0,-0x6c0(%rbp)
    a9e2:	00 00 00 00 
    a9e6:	48 c7 85 48 f9 ff ff 	movq   $0x0,-0x6b8(%rbp)
    a9ed:	00 00 00 00 
    a9f1:	48 8d 85 58 de ff ff 	lea    -0x21a8(%rbp),%rax
    a9f8:	48 89 85 50 f9 ff ff 	mov    %rax,-0x6b0(%rbp)
    a9ff:	48 c7 85 58 f9 ff ff 	movq   $0x0,-0x6a8(%rbp)
    aa06:	00 00 00 00 
    aa0a:	48 8d 85 58 de ff ff 	lea    -0x21a8(%rbp),%rax
    aa11:	48 89 85 60 f9 ff ff 	mov    %rax,-0x6a0(%rbp)
    aa18:	48 8d 85 58 de ff ff 	lea    -0x21a8(%rbp),%rax
    aa1f:	48 89 85 68 f9 ff ff 	mov    %rax,-0x698(%rbp)
    aa26:	48 8d 85 58 de ff ff 	lea    -0x21a8(%rbp),%rax
    aa2d:	48 89 85 70 f9 ff ff 	mov    %rax,-0x690(%rbp)
    aa34:	48 c7 85 78 f9 ff ff 	movq   $0x0,-0x688(%rbp)
    aa3b:	00 00 00 00 
    aa3f:	48 8d 85 58 de ff ff 	lea    -0x21a8(%rbp),%rax
    aa46:	48 89 85 80 f9 ff ff 	mov    %rax,-0x680(%rbp)
    aa4d:	48 8d 85 58 de ff ff 	lea    -0x21a8(%rbp),%rax
    aa54:	48 89 85 88 f9 ff ff 	mov    %rax,-0x678(%rbp)
    aa5b:	48 c7 85 90 f9 ff ff 	movq   $0x0,-0x670(%rbp)
    aa62:	00 00 00 00 
    aa66:	48 c7 85 98 f9 ff ff 	movq   $0x0,-0x668(%rbp)
    aa6d:	00 00 00 00 
    aa71:	48 c7 85 a0 f9 ff ff 	movq   $0x0,-0x660(%rbp)
    aa78:	00 00 00 00 
    aa7c:	48 8d 85 58 de ff ff 	lea    -0x21a8(%rbp),%rax
    aa83:	48 89 85 a8 f9 ff ff 	mov    %rax,-0x658(%rbp)
    aa8a:	48 c7 85 b0 f9 ff ff 	movq   $0x0,-0x650(%rbp)
    aa91:	00 00 00 00 
    aa95:	48 c7 85 b8 f9 ff ff 	movq   $0x0,-0x648(%rbp)
    aa9c:	00 00 00 00 
    aaa0:	48 c7 85 c0 f9 ff ff 	movq   $0x0,-0x640(%rbp)
    aaa7:	00 00 00 00 
    aaab:	48 c7 85 c8 f9 ff ff 	movq   $0x0,-0x638(%rbp)
    aab2:	00 00 00 00 
    aab6:	48 8d 85 58 de ff ff 	lea    -0x21a8(%rbp),%rax
    aabd:	48 89 85 d0 f9 ff ff 	mov    %rax,-0x630(%rbp)
    aac4:	48 8d 85 58 de ff ff 	lea    -0x21a8(%rbp),%rax
    aacb:	48 89 85 d8 f9 ff ff 	mov    %rax,-0x628(%rbp)
    aad2:	48 c7 85 e0 f9 ff ff 	movq   $0x0,-0x620(%rbp)
    aad9:	00 00 00 00 
    aadd:	48 8d 85 58 de ff ff 	lea    -0x21a8(%rbp),%rax
    aae4:	48 89 85 e8 f9 ff ff 	mov    %rax,-0x618(%rbp)
    aaeb:	48 c7 85 f0 f9 ff ff 	movq   $0x0,-0x610(%rbp)
    aaf2:	00 00 00 00 
    aaf6:	48 c7 85 f8 f9 ff ff 	movq   $0x0,-0x608(%rbp)
    aafd:	00 00 00 00 
    ab01:	48 c7 85 00 fa ff ff 	movq   $0x0,-0x600(%rbp)
    ab08:	00 00 00 00 
    ab0c:	48 c7 85 08 fa ff ff 	movq   $0x0,-0x5f8(%rbp)
    ab13:	00 00 00 00 
    ab17:	48 c7 85 10 fa ff ff 	movq   $0x0,-0x5f0(%rbp)
    ab1e:	00 00 00 00 
    ab22:	48 c7 85 18 fa ff ff 	movq   $0x0,-0x5e8(%rbp)
    ab29:	00 00 00 00 
    ab2d:	48 8d 85 58 de ff ff 	lea    -0x21a8(%rbp),%rax
    ab34:	48 89 85 20 fa ff ff 	mov    %rax,-0x5e0(%rbp)
    ab3b:	48 c7 85 28 fa ff ff 	movq   $0x0,-0x5d8(%rbp)
    ab42:	00 00 00 00 
    ab46:	48 8d 85 58 de ff ff 	lea    -0x21a8(%rbp),%rax
    ab4d:	48 89 85 30 fa ff ff 	mov    %rax,-0x5d0(%rbp)
    ab54:	48 c7 85 38 fa ff ff 	movq   $0x0,-0x5c8(%rbp)
    ab5b:	00 00 00 00 
    ab5f:	48 8d 85 58 de ff ff 	lea    -0x21a8(%rbp),%rax
    ab66:	48 89 85 40 fa ff ff 	mov    %rax,-0x5c0(%rbp)
    ab6d:	48 8d 85 58 de ff ff 	lea    -0x21a8(%rbp),%rax
    ab74:	48 89 85 48 fa ff ff 	mov    %rax,-0x5b8(%rbp)
    ab7b:	48 8d 85 58 de ff ff 	lea    -0x21a8(%rbp),%rax
    ab82:	48 89 85 50 fa ff ff 	mov    %rax,-0x5b0(%rbp)
    ab89:	48 8d 85 58 de ff ff 	lea    -0x21a8(%rbp),%rax
    ab90:	48 89 85 58 fa ff ff 	mov    %rax,-0x5a8(%rbp)
    ab97:	48 c7 85 60 fa ff ff 	movq   $0x0,-0x5a0(%rbp)
    ab9e:	00 00 00 00 
    aba2:	48 c7 85 68 fa ff ff 	movq   $0x0,-0x598(%rbp)
    aba9:	00 00 00 00 
    abad:	48 8d 05 a6 c4 00 00 	lea    0xc4a6(%rip),%rax        # 1705a <g_83+0xa>
    abb4:	48 89 85 50 df ff ff 	mov    %rax,-0x20b0(%rbp)
    abbb:	48 8d 05 d6 d7 00 00 	lea    0xd7d6(%rip),%rax        # 18398 <g_509+0x78>
    abc2:	48 89 85 58 df ff ff 	mov    %rax,-0x20a8(%rbp)
    abc9:	c7 85 a4 dd ff ff 00 	movl   $0x0,-0x225c(%rbp)
    abd0:	00 00 00 
    abd3:	eb 1b                	jmp    abf0 <func_13+0x14d3>
    abd5:	8b 85 a4 dd ff ff    	mov    -0x225c(%rbp),%eax
    abdb:	48 98                	cltq   
    abdd:	48 c7 84 c5 b0 df ff 	movq   $0x0,-0x2050(%rbp,%rax,8)
    abe4:	ff 00 00 00 00 
    abe9:	83 85 a4 dd ff ff 01 	addl   $0x1,-0x225c(%rbp)
    abf0:	83 bd a4 dd ff ff 00 	cmpl   $0x0,-0x225c(%rbp)
    abf7:	7e dc                	jle    abd5 <func_13+0x14b8>
    abf9:	8b 85 48 de ff ff    	mov    -0x21b8(%rbp),%eax
    abff:	41 89 c6             	mov    %eax,%r14d
    ac02:	48 8b 95 a0 f1 ff ff 	mov    -0xe60(%rbp),%rdx
    ac09:	48 8b 85 58 de ff ff 	mov    -0x21a8(%rbp),%rax
    ac10:	48 89 85 58 de ff ff 	mov    %rax,-0x21a8(%rbp)
    ac17:	48 8b 85 58 de ff ff 	mov    -0x21a8(%rbp),%rax
    ac1e:	48 39 c2             	cmp    %rax,%rdx
    ac21:	48 8b 05 18 d6 00 00 	mov    0xd618(%rip),%rax        # 18240 <g_379>
    ac28:	0f b7 00             	movzwl (%rax),%eax
    ac2b:	0f b7 d8             	movzwl %ax,%ebx
    ac2e:	8b 85 70 dd ff ff    	mov    -0x2290(%rbp),%eax
    ac34:	4c 63 e0             	movslq %eax,%r12
    ac37:	44 0f b6 ad 6c dd ff 	movzbl -0x2294(%rbp),%r13d
    ac3e:	ff 
    ac3f:	48 8b 85 78 dd ff ff 	mov    -0x2288(%rbp),%rax
    ac46:	0f b6 00             	movzbl (%rax),%eax
    ac49:	0f be c0             	movsbl %al,%eax
    ac4c:	be 00 00 00 00       	mov    $0x0,%esi
    ac51:	89 c7                	mov    %eax,%edi
    ac53:	e8 7c b5 ff ff       	callq  61d4 <safe_add_func_int8_t_s_s>
    ac58:	0f be d0             	movsbl %al,%edx
    ac5b:	0f b6 85 91 dd ff ff 	movzbl -0x226f(%rbp),%eax
    ac62:	39 c2                	cmp    %eax,%edx
    ac64:	0f 94 c0             	sete   %al
    ac67:	0f b6 c0             	movzbl %al,%eax
    ac6a:	44 89 ee             	mov    %r13d,%esi
    ac6d:	89 c7                	mov    %eax,%edi
    ac6f:	e8 ef b8 ff ff       	callq  6563 <safe_rshift_func_int16_t_s_u>
    ac74:	48 0f bf c0          	movswq %ax,%rax
    ac78:	4c 89 e6             	mov    %r12,%rsi
    ac7b:	48 89 c7             	mov    %rax,%rdi
    ac7e:	e8 2c c4 ff ff       	callq  70af <safe_div_func_uint64_t_u_u>
    ac83:	0f b7 c0             	movzwl %ax,%eax
    ac86:	89 de                	mov    %ebx,%esi
    ac88:	89 c7                	mov    %eax,%edi
    ac8a:	e8 cd c0 ff ff       	callq  6d5c <safe_mod_func_uint16_t_u_u>
    ac8f:	98                   	cwtl   
    ac90:	be fd ff ff ff       	mov    $0xfffffffd,%esi
    ac95:	89 c7                	mov    %eax,%edi
    ac97:	e8 17 b7 ff ff       	callq  63b3 <safe_add_func_int16_t_s_s>
    ac9c:	98                   	cwtl   
    ac9d:	89 85 40 de ff ff    	mov    %eax,-0x21c0(%rbp)
    aca3:	48 8d 05 ee d5 00 00 	lea    0xd5ee(%rip),%rax        # 18298 <g_423>
    acaa:	48 39 85 78 de ff ff 	cmp    %rax,-0x2188(%rbp)
    acb1:	0f 94 c0             	sete   %al
    acb4:	0f b6 d0             	movzbl %al,%edx
    acb7:	48 8b 85 78 df ff ff 	mov    -0x2088(%rbp),%rax
    acbe:	48 39 c2             	cmp    %rax,%rdx
    acc1:	0f 95 c0             	setne  %al
    acc4:	0f b6 d0             	movzbl %al,%edx
    acc7:	48 8b 05 92 d9 00 00 	mov    0xd992(%rip),%rax        # 18660 <g_834>
    acce:	48 8b 08             	mov    (%rax),%rcx
    acd1:	48 8d 85 18 de ff ff 	lea    -0x21e8(%rbp),%rax
    acd8:	48 39 c1             	cmp    %rax,%rcx
    acdb:	0f 94 c0             	sete   %al
    acde:	0f b6 c0             	movzbl %al,%eax
    ace1:	31 c2                	xor    %eax,%edx
    ace3:	8b 85 48 de ff ff    	mov    -0x21b8(%rbp),%eax
    ace9:	39 c2                	cmp    %eax,%edx
    aceb:	0f 9d c0             	setge  %al
    acee:	0f b6 d0             	movzbl %al,%edx
    acf1:	48 8b 05 18 da 00 00 	mov    0xda18(%rip),%rax        # 18710 <g_1205>
    acf8:	8b 00                	mov    (%rax),%eax
    acfa:	39 c2                	cmp    %eax,%edx
    acfc:	0f 97 c0             	seta   %al
    acff:	0f b6 d0             	movzbl %al,%edx
    ad02:	48 8b 85 50 df ff ff 	mov    -0x20b0(%rbp),%rax
    ad09:	0f b6 00             	movzbl (%rax),%eax
    ad0c:	89 c1                	mov    %eax,%ecx
    ad0e:	89 d0                	mov    %edx,%eax
    ad10:	09 c8                	or     %ecx,%eax
    ad12:	89 c2                	mov    %eax,%edx
    ad14:	48 8b 85 50 df ff ff 	mov    -0x20b0(%rbp),%rax
    ad1b:	88 10                	mov    %dl,(%rax)
    ad1d:	48 83 bd 70 de ff ff 	cmpq   $0x60,-0x2190(%rbp)
    ad24:	60 
    ad25:	0f 97 c0             	seta   %al
    ad28:	0f b6 c0             	movzbl %al,%eax
    ad2b:	44 89 f6             	mov    %r14d,%esi
    ad2e:	89 c7                	mov    %eax,%edi
    ad30:	e8 f0 c1 ff ff       	callq  6f25 <safe_div_func_uint32_t_u_u>
    ad35:	85 c0                	test   %eax,%eax
    ad37:	74 16                	je     ad4f <func_13+0x1632>
    ad39:	48 8b 05 18 da 00 00 	mov    0xda18(%rip),%rax        # 18758 <g_1503>
    ad40:	48 8b 95 58 df ff ff 	mov    -0x20a8(%rbp),%rdx
    ad47:	48 89 10             	mov    %rdx,(%rax)
    ad4a:	e9 81 01 00 00       	jmpq   aed0 <func_13+0x17b3>
    ad4f:	48 c7 05 96 ca 00 00 	movq   $0x0,0xca96(%rip)        # 177f0 <g_875>
    ad56:	00 00 00 00 
    ad5a:	e9 5d 01 00 00       	jmpq   aebc <func_13+0x179f>
    ad5f:	48 8d 05 d6 c5 00 00 	lea    0xc5d6(%rip),%rax        # 1733c <g_663+0x7c>
    ad66:	48 89 85 50 e0 ff ff 	mov    %rax,-0x1fb0(%rbp)
    ad6d:	48 8d 05 d8 c2 00 00 	lea    0xc2d8(%rip),%rax        # 1704c <g_80>
    ad74:	48 89 85 58 e0 ff ff 	mov    %rax,-0x1fa8(%rbp)
    ad7b:	48 8d 05 92 c5 00 00 	lea    0xc592(%rip),%rax        # 17314 <g_663+0x54>
    ad82:	48 89 85 60 e0 ff ff 	mov    %rax,-0x1fa0(%rbp)
    ad89:	48 8d 05 ac c5 00 00 	lea    0xc5ac(%rip),%rax        # 1733c <g_663+0x7c>
    ad90:	48 89 85 68 e0 ff ff 	mov    %rax,-0x1f98(%rbp)
    ad97:	48 8d 05 76 c5 00 00 	lea    0xc576(%rip),%rax        # 17314 <g_663+0x54>
    ad9e:	48 89 85 70 e0 ff ff 	mov    %rax,-0x1f90(%rbp)
    ada5:	48 8d 05 90 c5 00 00 	lea    0xc590(%rip),%rax        # 1733c <g_663+0x7c>
    adac:	48 89 85 78 e0 ff ff 	mov    %rax,-0x1f88(%rbp)
    adb3:	48 8d 05 82 c5 00 00 	lea    0xc582(%rip),%rax        # 1733c <g_663+0x7c>
    adba:	48 89 85 80 e0 ff ff 	mov    %rax,-0x1f80(%rbp)
    adc1:	48 8d 85 48 de ff ff 	lea    -0x21b8(%rbp),%rax
    adc8:	48 89 85 88 e0 ff ff 	mov    %rax,-0x1f78(%rbp)
    adcf:	48 8d 85 48 de ff ff 	lea    -0x21b8(%rbp),%rax
    add6:	48 89 85 90 e0 ff ff 	mov    %rax,-0x1f70(%rbp)
    addd:	48 8d 85 40 de ff ff 	lea    -0x21c0(%rbp),%rax
    ade4:	48 89 85 98 e0 ff ff 	mov    %rax,-0x1f68(%rbp)
    adeb:	48 8d 85 40 de ff ff 	lea    -0x21c0(%rbp),%rax
    adf2:	48 89 85 a0 e0 ff ff 	mov    %rax,-0x1f60(%rbp)
    adf9:	48 8d 85 40 de ff ff 	lea    -0x21c0(%rbp),%rax
    ae00:	48 89 85 a8 e0 ff ff 	mov    %rax,-0x1f58(%rbp)
    ae07:	48 8d 05 06 c5 00 00 	lea    0xc506(%rip),%rax        # 17314 <g_663+0x54>
    ae0e:	48 89 85 b0 e0 ff ff 	mov    %rax,-0x1f50(%rbp)
    ae15:	48 8d 05 f8 c4 00 00 	lea    0xc4f8(%rip),%rax        # 17314 <g_663+0x54>
    ae1c:	48 89 85 b8 e0 ff ff 	mov    %rax,-0x1f48(%rbp)
    ae23:	48 8d 85 40 de ff ff 	lea    -0x21c0(%rbp),%rax
    ae2a:	48 89 85 c0 e0 ff ff 	mov    %rax,-0x1f40(%rbp)
    ae31:	48 8d 85 40 de ff ff 	lea    -0x21c0(%rbp),%rax
    ae38:	48 89 85 c8 e0 ff ff 	mov    %rax,-0x1f38(%rbp)
    ae3f:	48 8d 05 06 c2 00 00 	lea    0xc206(%rip),%rax        # 1704c <g_80>
    ae46:	48 89 85 d0 e0 ff ff 	mov    %rax,-0x1f30(%rbp)
    ae4d:	48 8d 85 40 de ff ff 	lea    -0x21c0(%rbp),%rax
    ae54:	48 89 85 d8 e0 ff ff 	mov    %rax,-0x1f28(%rbp)
    ae5b:	48 8d 85 40 de ff ff 	lea    -0x21c0(%rbp),%rax
    ae62:	48 89 85 e0 e0 ff ff 	mov    %rax,-0x1f20(%rbp)
    ae69:	48 8d 05 a4 c4 00 00 	lea    0xc4a4(%rip),%rax        # 17314 <g_663+0x54>
    ae70:	48 89 85 e8 e0 ff ff 	mov    %rax,-0x1f18(%rbp)
    ae77:	48 8b 85 60 e0 ff ff 	mov    -0x1fa0(%rbp),%rax
    ae7e:	48 89 85 38 df ff ff 	mov    %rax,-0x20c8(%rbp)
    ae85:	48 8b 85 b0 df ff ff 	mov    -0x2050(%rbp),%rax
    ae8c:	48 89 85 b0 df ff ff 	mov    %rax,-0x2050(%rbp)
    ae93:	8b 05 fb c3 00 00    	mov    0xc3fb(%rip),%eax        # 17294 <g_414>
    ae99:	89 c2                	mov    %eax,%edx
    ae9b:	48 8d 05 68 c9 00 00 	lea    0xc968(%rip),%rax        # 1780a <g_963>
    aea2:	0f b6 04 02          	movzbl (%rdx,%rax,1),%eax
    aea6:	84 c0                	test   %al,%al
    aea8:	75 25                	jne    aecf <func_13+0x17b2>
    aeaa:	48 8b 05 3f c9 00 00 	mov    0xc93f(%rip),%rax        # 177f0 <g_875>
    aeb1:	48 83 c0 01          	add    $0x1,%rax
    aeb5:	48 89 05 34 c9 00 00 	mov    %rax,0xc934(%rip)        # 177f0 <g_875>
    aebc:	48 8b 05 2d c9 00 00 	mov    0xc92d(%rip),%rax        # 177f0 <g_875>
    aec3:	48 83 f8 01          	cmp    $0x1,%rax
    aec7:	0f 86 92 fe ff ff    	jbe    ad5f <func_13+0x1642>
    aecd:	eb 01                	jmp    aed0 <func_13+0x17b3>
    aecf:	90                   	nop
    aed0:	48 8b 05 49 c9 00 00 	mov    0xc949(%rip),%rax        # 17820 <g_1317>
    aed7:	be 08 00 00 00       	mov    $0x8,%esi
    aedc:	89 c7                	mov    %eax,%edi
    aede:	e8 d5 bf ff ff       	callq  6eb8 <safe_add_func_uint32_t_u_u>
    aee3:	89 c0                	mov    %eax,%eax
    aee5:	48 89 05 34 c9 00 00 	mov    %rax,0xc934(%rip)        # 17820 <g_1317>
    aeec:	48 8b 05 2d c9 00 00 	mov    0xc92d(%rip),%rax        # 17820 <g_1317>
    aef3:	48 83 f8 19          	cmp    $0x19,%rax
    aef7:	0f 84 d1 f8 ff ff    	je     a7ce <func_13+0x10b1>
    aefd:	8b 05 91 c3 00 00    	mov    0xc391(%rip),%eax        # 17294 <g_414>
    af03:	83 c0 01             	add    $0x1,%eax
    af06:	89 05 88 c3 00 00    	mov    %eax,0xc388(%rip)        # 17294 <g_414>
    af0c:	8b 05 82 c3 00 00    	mov    0xc382(%rip),%eax        # 17294 <g_414>
    af12:	83 f8 02             	cmp    $0x2,%eax
    af15:	0f 86 f7 f6 ff ff    	jbe    a612 <func_13+0xef5>
    af1b:	66 c7 05 0c c1 00 00 	movw   $0x0,0xc10c(%rip)        # 17030 <g_52>
    af22:	00 00 
    af24:	e9 78 01 00 00       	jmpq   b0a1 <func_13+0x1984>
    af29:	48 8d 85 40 de ff ff 	lea    -0x21c0(%rbp),%rax
    af30:	48 89 85 f0 f7 ff ff 	mov    %rax,-0x810(%rbp)
    af37:	48 8d 85 40 de ff ff 	lea    -0x21c0(%rbp),%rax
    af3e:	48 89 85 f8 f7 ff ff 	mov    %rax,-0x808(%rbp)
    af45:	48 8d 85 40 de ff ff 	lea    -0x21c0(%rbp),%rax
    af4c:	48 89 85 00 f8 ff ff 	mov    %rax,-0x800(%rbp)
    af53:	48 8d 85 40 de ff ff 	lea    -0x21c0(%rbp),%rax
    af5a:	48 89 85 08 f8 ff ff 	mov    %rax,-0x7f8(%rbp)
    af61:	48 8d 85 40 de ff ff 	lea    -0x21c0(%rbp),%rax
    af68:	48 89 85 10 f8 ff ff 	mov    %rax,-0x7f0(%rbp)
    af6f:	48 8d 85 40 de ff ff 	lea    -0x21c0(%rbp),%rax
    af76:	48 89 85 18 f8 ff ff 	mov    %rax,-0x7e8(%rbp)
    af7d:	48 8d 85 40 de ff ff 	lea    -0x21c0(%rbp),%rax
    af84:	48 89 85 20 f8 ff ff 	mov    %rax,-0x7e0(%rbp)
    af8b:	48 8d 85 40 de ff ff 	lea    -0x21c0(%rbp),%rax
    af92:	48 89 85 28 f8 ff ff 	mov    %rax,-0x7d8(%rbp)
    af99:	c6 85 8f dd ff ff fa 	movb   $0xfa,-0x2271(%rbp)
    afa0:	c6 85 90 dd ff ff 98 	movb   $0x98,-0x2270(%rbp)
    afa7:	80 ad 90 dd ff ff 01 	subb   $0x1,-0x2270(%rbp)
    afae:	c7 05 90 c0 00 00 00 	movl   $0x0,0xc090(%rip)        # 17048 <g_78>
    afb5:	00 00 00 
    afb8:	e9 c4 00 00 00       	jmpq   b081 <func_13+0x1964>
    afbd:	48 8d 05 94 d6 00 00 	lea    0xd694(%rip),%rax        # 18658 <g_835>
    afc4:	48 89 85 40 df ff ff 	mov    %rax,-0x20c0(%rbp)
    afcb:	48 8b 85 f0 f7 ff ff 	mov    -0x810(%rbp),%rax
    afd2:	48 89 85 38 df ff ff 	mov    %rax,-0x20c8(%rbp)
    afd9:	48 8b 05 88 d7 00 00 	mov    0xd788(%rip),%rax        # 18768 <g_1562>
    afe0:	48 8b 10             	mov    (%rax),%rdx
    afe3:	48 8b 85 40 df ff ff 	mov    -0x20c0(%rbp),%rax
    afea:	48 89 10             	mov    %rdx,(%rax)
    afed:	8b 05 55 c0 00 00    	mov    0xc055(%rip),%eax        # 17048 <g_78>
    aff3:	8d 48 03             	lea    0x3(%rax),%ecx
    aff6:	8b 35 4c c0 00 00    	mov    0xc04c(%rip),%esi        # 17048 <g_78>
    affc:	0f b7 05 2d c0 00 00 	movzwl 0xc02d(%rip),%eax        # 17030 <g_52>
    b003:	0f b7 c0             	movzwl %ax,%eax
    b006:	48 63 d0             	movslq %eax,%rdx
    b009:	89 c9                	mov    %ecx,%ecx
    b00b:	89 f6                	mov    %esi,%esi
    b00d:	48 89 c8             	mov    %rcx,%rax
    b010:	48 c1 e0 02          	shl    $0x2,%rax
    b014:	48 01 c8             	add    %rcx,%rax
    b017:	48 01 c0             	add    %rax,%rax
    b01a:	48 01 f0             	add    %rsi,%rax
    b01d:	48 01 c0             	add    %rax,%rax
    b020:	48 01 d0             	add    %rdx,%rax
    b023:	48 8d 14 c5 00 00 00 	lea    0x0(,%rax,8),%rdx
    b02a:	00 
    b02b:	48 8d 05 4e c3 00 00 	lea    0xc34e(%rip),%rax        # 17380 <g_811>
    b032:	48 8b 04 02          	mov    (%rdx,%rax,1),%rax
    b036:	48 85 c0             	test   %rax,%rax
    b039:	75 36                	jne    b071 <func_13+0x1954>
    b03b:	c7 85 9c dd ff ff 00 	movl   $0x0,-0x2264(%rbp)
    b042:	00 00 00 
    b045:	eb 1d                	jmp    b064 <func_13+0x1947>
    b047:	48 8b 85 f0 f7 ff ff 	mov    -0x810(%rbp),%rax
    b04e:	48 89 85 80 de ff ff 	mov    %rax,-0x2180(%rbp)
    b055:	8b 85 9c dd ff ff    	mov    -0x2264(%rbp),%eax
    b05b:	83 c0 01             	add    $0x1,%eax
    b05e:	89 85 9c dd ff ff    	mov    %eax,-0x2264(%rbp)
    b064:	8b 85 9c dd ff ff    	mov    -0x2264(%rbp),%eax
    b06a:	83 f8 01             	cmp    $0x1,%eax
    b06d:	7e d8                	jle    b047 <func_13+0x192a>
    b06f:	eb 01                	jmp    b072 <func_13+0x1955>
    b071:	90                   	nop
    b072:	8b 05 d0 bf 00 00    	mov    0xbfd0(%rip),%eax        # 17048 <g_78>
    b078:	83 c0 01             	add    $0x1,%eax
    b07b:	89 05 c7 bf 00 00    	mov    %eax,0xbfc7(%rip)        # 17048 <g_78>
    b081:	8b 05 c1 bf 00 00    	mov    0xbfc1(%rip),%eax        # 17048 <g_78>
    b087:	83 f8 01             	cmp    $0x1,%eax
    b08a:	0f 86 2d ff ff ff    	jbe    afbd <func_13+0x18a0>
    b090:	0f b7 05 99 bf 00 00 	movzwl 0xbf99(%rip),%eax        # 17030 <g_52>
    b097:	83 c0 01             	add    $0x1,%eax
    b09a:	66 89 05 8f bf 00 00 	mov    %ax,0xbf8f(%rip)        # 17030 <g_52>
    b0a1:	0f b7 05 88 bf 00 00 	movzwl 0xbf88(%rip),%eax        # 17030 <g_52>
    b0a8:	66 83 f8 01          	cmp    $0x1,%ax
    b0ac:	0f 86 77 fe ff ff    	jbe    af29 <func_13+0x180c>
    b0b2:	8b 05 c8 c0 00 00    	mov    0xc0c8(%rip),%eax        # 17180 <g_190>
    b0b8:	0f b7 c0             	movzwl %ax,%eax
    b0bb:	be 04 00 00 00       	mov    $0x4,%esi
    b0c0:	89 c7                	mov    %eax,%edi
    b0c2:	e8 38 bc ff ff       	callq  6cff <safe_add_func_uint16_t_u_u>
    b0c7:	0f b7 c0             	movzwl %ax,%eax
    b0ca:	89 05 b0 c0 00 00    	mov    %eax,0xc0b0(%rip)        # 17180 <g_190>
    b0d0:	8b 05 aa c0 00 00    	mov    0xc0aa(%rip),%eax        # 17180 <g_190>
    b0d6:	83 f8 fc             	cmp    $0xfffffffc,%eax
    b0d9:	0f 8d 6e f4 ff ff    	jge    a54d <func_13+0xe30>
    b0df:	90                   	nop
    b0e0:	c7 85 70 dd ff ff f2 	movl   $0xfffffff2,-0x2290(%rbp)
    b0e7:	ff ff ff 
    b0ea:	e9 be 0d 00 00       	jmpq   bead <func_13+0x2790>
    b0ef:	c7 85 fc dd ff ff 06 	movl   $0x6,-0x2204(%rbp)
    b0f6:	00 00 00 
    b0f9:	c7 85 00 de ff ff e7 	movl   $0x36e910e7,-0x2200(%rbp)
    b100:	10 e9 36 
    b103:	c7 85 58 de ff ff 01 	movl   $0x1,-0x21a8(%rbp)
    b10a:	00 00 00 
    b10d:	48 c7 85 08 df ff ff 	movq   $0x9,-0x20f8(%rbp)
    b114:	09 00 00 00 
    b118:	48 8d 05 fb bf 00 00 	lea    0xbffb(%rip),%rax        # 1711a <g_103+0x9a>
    b11f:	48 89 85 10 df ff ff 	mov    %rax,-0x20f0(%rbp)
    b126:	48 8d 85 58 de ff ff 	lea    -0x21a8(%rbp),%rax
    b12d:	48 89 85 18 df ff ff 	mov    %rax,-0x20e8(%rbp)
    b134:	c6 85 8e dd ff ff 86 	movb   $0x86,-0x2272(%rbp)
    b13b:	48 8d 05 3e 6f 00 00 	lea    0x6f3e(%rip),%rax        # 12080 <g_1742>
    b142:	48 89 85 20 df ff ff 	mov    %rax,-0x20e0(%rbp)
    b149:	48 8d 85 28 de ff ff 	lea    -0x21d8(%rbp),%rax
    b150:	48 89 85 f0 f7 ff ff 	mov    %rax,-0x810(%rbp)
    b157:	48 8d 85 28 de ff ff 	lea    -0x21d8(%rbp),%rax
    b15e:	48 89 85 f8 f7 ff ff 	mov    %rax,-0x808(%rbp)
    b165:	48 c7 85 00 f8 ff ff 	movq   $0x0,-0x800(%rbp)
    b16c:	00 00 00 00 
    b170:	48 8d 85 28 de ff ff 	lea    -0x21d8(%rbp),%rax
    b177:	48 89 85 08 f8 ff ff 	mov    %rax,-0x7f8(%rbp)
    b17e:	48 8d 85 28 de ff ff 	lea    -0x21d8(%rbp),%rax
    b185:	48 89 85 10 f8 ff ff 	mov    %rax,-0x7f0(%rbp)
    b18c:	48 c7 85 18 f8 ff ff 	movq   $0x0,-0x7e8(%rbp)
    b193:	00 00 00 00 
    b197:	48 8d 05 32 d1 00 00 	lea    0xd132(%rip),%rax        # 182d0 <g_510+0x10>
    b19e:	48 89 85 20 f8 ff ff 	mov    %rax,-0x7e0(%rbp)
    b1a5:	48 8d 05 54 d1 00 00 	lea    0xd154(%rip),%rax        # 18300 <g_510+0x40>
    b1ac:	48 89 85 28 f8 ff ff 	mov    %rax,-0x7d8(%rbp)
    b1b3:	48 8d 05 16 d1 00 00 	lea    0xd116(%rip),%rax        # 182d0 <g_510+0x10>
    b1ba:	48 89 85 30 f8 ff ff 	mov    %rax,-0x7d0(%rbp)
    b1c1:	48 c7 85 38 f8 ff ff 	movq   $0x0,-0x7c8(%rbp)
    b1c8:	00 00 00 00 
    b1cc:	48 8d 85 28 de ff ff 	lea    -0x21d8(%rbp),%rax
    b1d3:	48 89 85 40 f8 ff ff 	mov    %rax,-0x7c0(%rbp)
    b1da:	48 8d 05 17 d1 00 00 	lea    0xd117(%rip),%rax        # 182f8 <g_510+0x38>
    b1e1:	48 89 85 48 f8 ff ff 	mov    %rax,-0x7b8(%rbp)
    b1e8:	48 8d 85 28 de ff ff 	lea    -0x21d8(%rbp),%rax
    b1ef:	48 89 85 50 f8 ff ff 	mov    %rax,-0x7b0(%rbp)
    b1f6:	48 8d 05 c3 d0 00 00 	lea    0xd0c3(%rip),%rax        # 182c0 <g_510>
    b1fd:	48 89 85 58 f8 ff ff 	mov    %rax,-0x7a8(%rbp)
    b204:	48 c7 85 60 f8 ff ff 	movq   $0x0,-0x7a0(%rbp)
    b20b:	00 00 00 00 
    b20f:	48 8d 05 aa d0 00 00 	lea    0xd0aa(%rip),%rax        # 182c0 <g_510>
    b216:	48 89 85 68 f8 ff ff 	mov    %rax,-0x798(%rbp)
    b21d:	48 8d 05 d4 d0 00 00 	lea    0xd0d4(%rip),%rax        # 182f8 <g_510+0x38>
    b224:	48 89 85 70 f8 ff ff 	mov    %rax,-0x790(%rbp)
    b22b:	48 8d 05 be d0 00 00 	lea    0xd0be(%rip),%rax        # 182f0 <g_510+0x30>
    b232:	48 89 85 78 f8 ff ff 	mov    %rax,-0x788(%rbp)
    b239:	48 8d 05 90 d0 00 00 	lea    0xd090(%rip),%rax        # 182d0 <g_510+0x10>
    b240:	48 89 85 80 f8 ff ff 	mov    %rax,-0x780(%rbp)
    b247:	48 c7 85 88 f8 ff ff 	movq   $0x0,-0x778(%rbp)
    b24e:	00 00 00 00 
    b252:	48 8d 05 77 d0 00 00 	lea    0xd077(%rip),%rax        # 182d0 <g_510+0x10>
    b259:	48 89 85 90 f8 ff ff 	mov    %rax,-0x770(%rbp)
    b260:	48 8d 05 59 d0 00 00 	lea    0xd059(%rip),%rax        # 182c0 <g_510>
    b267:	48 89 85 98 f8 ff ff 	mov    %rax,-0x768(%rbp)
    b26e:	48 8d 05 5b d0 00 00 	lea    0xd05b(%rip),%rax        # 182d0 <g_510+0x10>
    b275:	48 89 85 a0 f8 ff ff 	mov    %rax,-0x760(%rbp)
    b27c:	48 8d 05 6d d0 00 00 	lea    0xd06d(%rip),%rax        # 182f0 <g_510+0x30>
    b283:	48 89 85 a8 f8 ff ff 	mov    %rax,-0x758(%rbp)
    b28a:	48 8d 85 28 de ff ff 	lea    -0x21d8(%rbp),%rax
    b291:	48 89 85 b0 f8 ff ff 	mov    %rax,-0x750(%rbp)
    b298:	48 c7 85 b8 f8 ff ff 	movq   $0x0,-0x748(%rbp)
    b29f:	00 00 00 00 
    b2a3:	48 8d 05 26 d0 00 00 	lea    0xd026(%rip),%rax        # 182d0 <g_510+0x10>
    b2aa:	48 89 85 c0 f8 ff ff 	mov    %rax,-0x740(%rbp)
    b2b1:	48 c7 85 c8 f8 ff ff 	movq   $0x0,-0x738(%rbp)
    b2b8:	00 00 00 00 
    b2bc:	48 8d 05 0d d0 00 00 	lea    0xd00d(%rip),%rax        # 182d0 <g_510+0x10>
    b2c3:	48 89 85 d0 f8 ff ff 	mov    %rax,-0x730(%rbp)
    b2ca:	48 8d 85 28 de ff ff 	lea    -0x21d8(%rbp),%rax
    b2d1:	48 89 85 d8 f8 ff ff 	mov    %rax,-0x728(%rbp)
    b2d8:	48 8d 05 e1 cf 00 00 	lea    0xcfe1(%rip),%rax        # 182c0 <g_510>
    b2df:	48 89 85 e0 f8 ff ff 	mov    %rax,-0x720(%rbp)
    b2e6:	48 8d 05 e3 cf 00 00 	lea    0xcfe3(%rip),%rax        # 182d0 <g_510+0x10>
    b2ed:	48 89 85 e8 f8 ff ff 	mov    %rax,-0x718(%rbp)
    b2f4:	48 8d 85 28 de ff ff 	lea    -0x21d8(%rbp),%rax
    b2fb:	48 89 85 f0 f8 ff ff 	mov    %rax,-0x710(%rbp)
    b302:	48 8d 85 28 de ff ff 	lea    -0x21d8(%rbp),%rax
    b309:	48 89 85 f8 f8 ff ff 	mov    %rax,-0x708(%rbp)
    b310:	48 8d 05 b9 cf 00 00 	lea    0xcfb9(%rip),%rax        # 182d0 <g_510+0x10>
    b317:	48 89 85 00 f9 ff ff 	mov    %rax,-0x700(%rbp)
    b31e:	48 8d 05 ab cf 00 00 	lea    0xcfab(%rip),%rax        # 182d0 <g_510+0x10>
    b325:	48 89 85 08 f9 ff ff 	mov    %rax,-0x6f8(%rbp)
    b32c:	48 c7 85 10 f9 ff ff 	movq   $0x0,-0x6f0(%rbp)
    b333:	00 00 00 00 
    b337:	48 8d 05 b2 cf 00 00 	lea    0xcfb2(%rip),%rax        # 182f0 <g_510+0x30>
    b33e:	48 89 85 18 f9 ff ff 	mov    %rax,-0x6e8(%rbp)
    b345:	48 8d 05 ac cf 00 00 	lea    0xcfac(%rip),%rax        # 182f8 <g_510+0x38>
    b34c:	48 89 85 20 f9 ff ff 	mov    %rax,-0x6e0(%rbp)
    b353:	48 c7 85 28 f9 ff ff 	movq   $0x0,-0x6d8(%rbp)
    b35a:	00 00 00 00 
    b35e:	48 8d 05 6b cf 00 00 	lea    0xcf6b(%rip),%rax        # 182d0 <g_510+0x10>
    b365:	48 89 85 30 f9 ff ff 	mov    %rax,-0x6d0(%rbp)
    b36c:	48 8d 05 5d cf 00 00 	lea    0xcf5d(%rip),%rax        # 182d0 <g_510+0x10>
    b373:	48 89 85 38 f9 ff ff 	mov    %rax,-0x6c8(%rbp)
    b37a:	48 8d 05 3f cf 00 00 	lea    0xcf3f(%rip),%rax        # 182c0 <g_510>
    b381:	48 89 85 40 f9 ff ff 	mov    %rax,-0x6c0(%rbp)
    b388:	48 8d 05 41 cf 00 00 	lea    0xcf41(%rip),%rax        # 182d0 <g_510+0x10>
    b38f:	48 89 85 48 f9 ff ff 	mov    %rax,-0x6b8(%rbp)
    b396:	48 8d 85 28 de ff ff 	lea    -0x21d8(%rbp),%rax
    b39d:	48 89 85 50 f9 ff ff 	mov    %rax,-0x6b0(%rbp)
    b3a4:	48 c7 85 58 f9 ff ff 	movq   $0x0,-0x6a8(%rbp)
    b3ab:	00 00 00 00 
    b3af:	48 8d 05 1a cf 00 00 	lea    0xcf1a(%rip),%rax        # 182d0 <g_510+0x10>
    b3b6:	48 89 85 60 f9 ff ff 	mov    %rax,-0x6a0(%rbp)
    b3bd:	48 8d 05 14 cf 00 00 	lea    0xcf14(%rip),%rax        # 182d8 <g_510+0x18>
    b3c4:	48 89 85 68 f9 ff ff 	mov    %rax,-0x698(%rbp)
    b3cb:	48 8d 05 fe ce 00 00 	lea    0xcefe(%rip),%rax        # 182d0 <g_510+0x10>
    b3d2:	48 89 85 70 f9 ff ff 	mov    %rax,-0x690(%rbp)
    b3d9:	48 8d 05 10 cf 00 00 	lea    0xcf10(%rip),%rax        # 182f0 <g_510+0x30>
    b3e0:	48 89 85 78 f9 ff ff 	mov    %rax,-0x688(%rbp)
    b3e7:	48 8d 05 f2 ce 00 00 	lea    0xcef2(%rip),%rax        # 182e0 <g_510+0x20>
    b3ee:	48 89 85 80 f9 ff ff 	mov    %rax,-0x680(%rbp)
    b3f5:	48 8d 05 c4 ce 00 00 	lea    0xcec4(%rip),%rax        # 182c0 <g_510>
    b3fc:	48 89 85 88 f9 ff ff 	mov    %rax,-0x678(%rbp)
    b403:	48 8d 85 28 de ff ff 	lea    -0x21d8(%rbp),%rax
    b40a:	48 89 85 90 f9 ff ff 	mov    %rax,-0x670(%rbp)
    b411:	48 8d 05 b8 ce 00 00 	lea    0xceb8(%rip),%rax        # 182d0 <g_510+0x10>
    b418:	48 89 85 98 f9 ff ff 	mov    %rax,-0x668(%rbp)
    b41f:	48 8d 05 a2 ce 00 00 	lea    0xcea2(%rip),%rax        # 182c8 <g_510+0x8>
    b426:	48 89 85 a0 f9 ff ff 	mov    %rax,-0x660(%rbp)
    b42d:	48 8d 05 9c ce 00 00 	lea    0xce9c(%rip),%rax        # 182d0 <g_510+0x10>
    b434:	48 89 85 a8 f9 ff ff 	mov    %rax,-0x658(%rbp)
    b43b:	48 8d 05 8e ce 00 00 	lea    0xce8e(%rip),%rax        # 182d0 <g_510+0x10>
    b442:	48 89 85 b0 f9 ff ff 	mov    %rax,-0x650(%rbp)
    b449:	48 c7 85 b8 f9 ff ff 	movq   $0x0,-0x648(%rbp)
    b450:	00 00 00 00 
    b454:	48 8d 05 75 ce 00 00 	lea    0xce75(%rip),%rax        # 182d0 <g_510+0x10>
    b45b:	48 89 85 c0 f9 ff ff 	mov    %rax,-0x640(%rbp)
    b462:	48 c7 85 c8 f9 ff ff 	movq   $0x0,-0x638(%rbp)
    b469:	00 00 00 00 
    b46d:	48 8d 85 28 de ff ff 	lea    -0x21d8(%rbp),%rax
    b474:	48 89 85 d0 f9 ff ff 	mov    %rax,-0x630(%rbp)
    b47b:	48 8d 05 4e ce 00 00 	lea    0xce4e(%rip),%rax        # 182d0 <g_510+0x10>
    b482:	48 89 85 d8 f9 ff ff 	mov    %rax,-0x628(%rbp)
    b489:	48 8d 05 40 ce 00 00 	lea    0xce40(%rip),%rax        # 182d0 <g_510+0x10>
    b490:	48 89 85 e0 f9 ff ff 	mov    %rax,-0x620(%rbp)
    b497:	48 8d 85 28 de ff ff 	lea    -0x21d8(%rbp),%rax
    b49e:	48 89 85 e8 f9 ff ff 	mov    %rax,-0x618(%rbp)
    b4a5:	48 8d 05 24 ce 00 00 	lea    0xce24(%rip),%rax        # 182d0 <g_510+0x10>
    b4ac:	48 89 85 f0 f9 ff ff 	mov    %rax,-0x610(%rbp)
    b4b3:	48 8d 85 28 de ff ff 	lea    -0x21d8(%rbp),%rax
    b4ba:	48 89 85 f8 f9 ff ff 	mov    %rax,-0x608(%rbp)
    b4c1:	48 8d 85 28 de ff ff 	lea    -0x21d8(%rbp),%rax
    b4c8:	48 89 85 00 fa ff ff 	mov    %rax,-0x600(%rbp)
    b4cf:	48 c7 85 08 fa ff ff 	movq   $0x0,-0x5f8(%rbp)
    b4d6:	00 00 00 00 
    b4da:	48 8d 05 ef cd 00 00 	lea    0xcdef(%rip),%rax        # 182d0 <g_510+0x10>
    b4e1:	48 89 85 10 fa ff ff 	mov    %rax,-0x5f0(%rbp)
    b4e8:	48 8d 05 e1 cd 00 00 	lea    0xcde1(%rip),%rax        # 182d0 <g_510+0x10>
    b4ef:	48 89 85 18 fa ff ff 	mov    %rax,-0x5e8(%rbp)
    b4f6:	48 8d 05 d3 cd 00 00 	lea    0xcdd3(%rip),%rax        # 182d0 <g_510+0x10>
    b4fd:	48 89 85 20 fa ff ff 	mov    %rax,-0x5e0(%rbp)
    b504:	48 8d 05 c5 cd 00 00 	lea    0xcdc5(%rip),%rax        # 182d0 <g_510+0x10>
    b50b:	48 89 85 28 fa ff ff 	mov    %rax,-0x5d8(%rbp)
    b512:	48 8d 05 b7 cd 00 00 	lea    0xcdb7(%rip),%rax        # 182d0 <g_510+0x10>
    b519:	48 89 85 30 fa ff ff 	mov    %rax,-0x5d0(%rbp)
    b520:	48 c7 85 38 fa ff ff 	movq   $0x0,-0x5c8(%rbp)
    b527:	00 00 00 00 
    b52b:	48 c7 85 40 fa ff ff 	movq   $0x0,-0x5c0(%rbp)
    b532:	00 00 00 00 
    b536:	48 c7 85 48 fa ff ff 	movq   $0x0,-0x5b8(%rbp)
    b53d:	00 00 00 00 
    b541:	48 8d 05 88 cd 00 00 	lea    0xcd88(%rip),%rax        # 182d0 <g_510+0x10>
    b548:	48 89 85 50 fa ff ff 	mov    %rax,-0x5b0(%rbp)
    b54f:	48 8d 05 7a cd 00 00 	lea    0xcd7a(%rip),%rax        # 182d0 <g_510+0x10>
    b556:	48 89 85 58 fa ff ff 	mov    %rax,-0x5a8(%rbp)
    b55d:	48 8d 05 6c cd 00 00 	lea    0xcd6c(%rip),%rax        # 182d0 <g_510+0x10>
    b564:	48 89 85 60 fa ff ff 	mov    %rax,-0x5a0(%rbp)
    b56b:	48 c7 85 68 fa ff ff 	movq   $0x0,-0x598(%rbp)
    b572:	00 00 00 00 
    b576:	48 c7 85 70 fa ff ff 	movq   $0x0,-0x590(%rbp)
    b57d:	00 00 00 00 
    b581:	48 8d 05 48 cd 00 00 	lea    0xcd48(%rip),%rax        # 182d0 <g_510+0x10>
    b588:	48 89 85 78 fa ff ff 	mov    %rax,-0x588(%rbp)
    b58f:	48 8d 05 3a cd 00 00 	lea    0xcd3a(%rip),%rax        # 182d0 <g_510+0x10>
    b596:	48 89 85 80 fa ff ff 	mov    %rax,-0x580(%rbp)
    b59d:	48 8d 05 3c cd 00 00 	lea    0xcd3c(%rip),%rax        # 182e0 <g_510+0x20>
    b5a4:	48 89 85 88 fa ff ff 	mov    %rax,-0x578(%rbp)
    b5ab:	48 8d 05 1e cd 00 00 	lea    0xcd1e(%rip),%rax        # 182d0 <g_510+0x10>
    b5b2:	48 89 85 90 fa ff ff 	mov    %rax,-0x570(%rbp)
    b5b9:	48 8d 05 30 cd 00 00 	lea    0xcd30(%rip),%rax        # 182f0 <g_510+0x30>
    b5c0:	48 89 85 98 fa ff ff 	mov    %rax,-0x568(%rbp)
    b5c7:	48 8d 85 28 de ff ff 	lea    -0x21d8(%rbp),%rax
    b5ce:	48 89 85 a0 fa ff ff 	mov    %rax,-0x560(%rbp)
    b5d5:	48 8d 05 f4 cc 00 00 	lea    0xccf4(%rip),%rax        # 182d0 <g_510+0x10>
    b5dc:	48 89 85 a8 fa ff ff 	mov    %rax,-0x558(%rbp)
    b5e3:	48 8d 05 e6 cc 00 00 	lea    0xcce6(%rip),%rax        # 182d0 <g_510+0x10>
    b5ea:	48 89 85 b0 fa ff ff 	mov    %rax,-0x550(%rbp)
    b5f1:	48 8d 05 e0 cc 00 00 	lea    0xcce0(%rip),%rax        # 182d8 <g_510+0x18>
    b5f8:	48 89 85 b8 fa ff ff 	mov    %rax,-0x548(%rbp)
    b5ff:	48 8d 05 ca cc 00 00 	lea    0xccca(%rip),%rax        # 182d0 <g_510+0x10>
    b606:	48 89 85 c0 fa ff ff 	mov    %rax,-0x540(%rbp)
    b60d:	48 8d 05 bc cc 00 00 	lea    0xccbc(%rip),%rax        # 182d0 <g_510+0x10>
    b614:	48 89 85 c8 fa ff ff 	mov    %rax,-0x538(%rbp)
    b61b:	48 8d 85 28 de ff ff 	lea    -0x21d8(%rbp),%rax
    b622:	48 89 85 d0 fa ff ff 	mov    %rax,-0x530(%rbp)
    b629:	48 8d 05 c0 cc 00 00 	lea    0xccc0(%rip),%rax        # 182f0 <g_510+0x30>
    b630:	48 89 85 d8 fa ff ff 	mov    %rax,-0x528(%rbp)
    b637:	48 8d 05 b2 cc 00 00 	lea    0xccb2(%rip),%rax        # 182f0 <g_510+0x30>
    b63e:	48 89 85 e0 fa ff ff 	mov    %rax,-0x520(%rbp)
    b645:	48 c7 85 e8 fa ff ff 	movq   $0x0,-0x518(%rbp)
    b64c:	00 00 00 00 
    b650:	48 8d 05 79 cc 00 00 	lea    0xcc79(%rip),%rax        # 182d0 <g_510+0x10>
    b657:	48 89 85 f0 fa ff ff 	mov    %rax,-0x510(%rbp)
    b65e:	48 c7 85 f8 fa ff ff 	movq   $0x0,-0x508(%rbp)
    b665:	00 00 00 00 
    b669:	48 8d 05 80 cc 00 00 	lea    0xcc80(%rip),%rax        # 182f0 <g_510+0x30>
    b670:	48 89 85 00 fb ff ff 	mov    %rax,-0x500(%rbp)
    b677:	48 8d 05 42 cc 00 00 	lea    0xcc42(%rip),%rax        # 182c0 <g_510>
    b67e:	48 89 85 08 fb ff ff 	mov    %rax,-0x4f8(%rbp)
    b685:	48 8d 05 44 cc 00 00 	lea    0xcc44(%rip),%rax        # 182d0 <g_510+0x10>
    b68c:	48 89 85 10 fb ff ff 	mov    %rax,-0x4f0(%rbp)
    b693:	48 8d 05 26 cc 00 00 	lea    0xcc26(%rip),%rax        # 182c0 <g_510>
    b69a:	48 89 85 18 fb ff ff 	mov    %rax,-0x4e8(%rbp)
    b6a1:	48 c7 85 20 fb ff ff 	movq   $0x0,-0x4e0(%rbp)
    b6a8:	00 00 00 00 
    b6ac:	48 8d 05 1d cc 00 00 	lea    0xcc1d(%rip),%rax        # 182d0 <g_510+0x10>
    b6b3:	48 89 85 28 fb ff ff 	mov    %rax,-0x4d8(%rbp)
    b6ba:	48 8d 05 ff cb 00 00 	lea    0xcbff(%rip),%rax        # 182c0 <g_510>
    b6c1:	48 89 85 30 fb ff ff 	mov    %rax,-0x4d0(%rbp)
    b6c8:	48 8d 05 31 cc 00 00 	lea    0xcc31(%rip),%rax        # 18300 <g_510+0x40>
    b6cf:	48 89 85 38 fb ff ff 	mov    %rax,-0x4c8(%rbp)
    b6d6:	48 8d 05 f3 cb 00 00 	lea    0xcbf3(%rip),%rax        # 182d0 <g_510+0x10>
    b6dd:	48 89 85 40 fb ff ff 	mov    %rax,-0x4c0(%rbp)
    b6e4:	48 c7 85 48 fb ff ff 	movq   $0x0,-0x4b8(%rbp)
    b6eb:	00 00 00 00 
    b6ef:	48 8d 85 28 de ff ff 	lea    -0x21d8(%rbp),%rax
    b6f6:	48 89 85 50 fb ff ff 	mov    %rax,-0x4b0(%rbp)
    b6fd:	48 8d 05 cc cb 00 00 	lea    0xcbcc(%rip),%rax        # 182d0 <g_510+0x10>
    b704:	48 89 85 58 fb ff ff 	mov    %rax,-0x4a8(%rbp)
    b70b:	48 8d 05 be cb 00 00 	lea    0xcbbe(%rip),%rax        # 182d0 <g_510+0x10>
    b712:	48 89 85 60 fb ff ff 	mov    %rax,-0x4a0(%rbp)
    b719:	48 c7 85 68 fb ff ff 	movq   $0x0,-0x498(%rbp)
    b720:	00 00 00 00 
    b724:	48 c7 85 70 fb ff ff 	movq   $0x0,-0x490(%rbp)
    b72b:	00 00 00 00 
    b72f:	48 8d 05 8a cb 00 00 	lea    0xcb8a(%rip),%rax        # 182c0 <g_510>
    b736:	48 89 85 78 fb ff ff 	mov    %rax,-0x488(%rbp)
    b73d:	48 8d 85 28 de ff ff 	lea    -0x21d8(%rbp),%rax
    b744:	48 89 85 80 fb ff ff 	mov    %rax,-0x480(%rbp)
    b74b:	48 c7 85 88 fb ff ff 	movq   $0x0,-0x478(%rbp)
    b752:	00 00 00 00 
    b756:	48 8d 05 73 cb 00 00 	lea    0xcb73(%rip),%rax        # 182d0 <g_510+0x10>
    b75d:	48 89 85 90 fb ff ff 	mov    %rax,-0x470(%rbp)
    b764:	48 c7 85 98 fb ff ff 	movq   $0x0,-0x468(%rbp)
    b76b:	00 00 00 00 
    b76f:	48 8d 05 8a cb 00 00 	lea    0xcb8a(%rip),%rax        # 18300 <g_510+0x40>
    b776:	48 89 85 a0 fb ff ff 	mov    %rax,-0x460(%rbp)
    b77d:	48 c7 85 a8 fb ff ff 	movq   $0x0,-0x458(%rbp)
    b784:	00 00 00 00 
    b788:	48 8d 85 28 de ff ff 	lea    -0x21d8(%rbp),%rax
    b78f:	48 89 85 b0 fb ff ff 	mov    %rax,-0x450(%rbp)
    b796:	48 8d 85 28 de ff ff 	lea    -0x21d8(%rbp),%rax
    b79d:	48 89 85 b8 fb ff ff 	mov    %rax,-0x448(%rbp)
    b7a4:	48 8d 85 28 de ff ff 	lea    -0x21d8(%rbp),%rax
    b7ab:	48 89 85 c0 fb ff ff 	mov    %rax,-0x440(%rbp)
    b7b2:	48 8d 05 17 cb 00 00 	lea    0xcb17(%rip),%rax        # 182d0 <g_510+0x10>
    b7b9:	48 89 85 c8 fb ff ff 	mov    %rax,-0x438(%rbp)
    b7c0:	48 c7 85 d0 fb ff ff 	movq   $0x0,-0x430(%rbp)
    b7c7:	00 00 00 00 
    b7cb:	48 8d 05 fe ca 00 00 	lea    0xcafe(%rip),%rax        # 182d0 <g_510+0x10>
    b7d2:	48 89 85 d8 fb ff ff 	mov    %rax,-0x428(%rbp)
    b7d9:	48 8d 05 f0 ca 00 00 	lea    0xcaf0(%rip),%rax        # 182d0 <g_510+0x10>
    b7e0:	48 89 85 e0 fb ff ff 	mov    %rax,-0x420(%rbp)
    b7e7:	48 8d 05 e2 ca 00 00 	lea    0xcae2(%rip),%rax        # 182d0 <g_510+0x10>
    b7ee:	48 89 85 e8 fb ff ff 	mov    %rax,-0x418(%rbp)
    b7f5:	48 8d 05 d4 ca 00 00 	lea    0xcad4(%rip),%rax        # 182d0 <g_510+0x10>
    b7fc:	48 89 85 f0 fb ff ff 	mov    %rax,-0x410(%rbp)
    b803:	48 8d 05 c6 ca 00 00 	lea    0xcac6(%rip),%rax        # 182d0 <g_510+0x10>
    b80a:	48 89 85 f8 fb ff ff 	mov    %rax,-0x408(%rbp)
    b811:	48 8d 05 b8 ca 00 00 	lea    0xcab8(%rip),%rax        # 182d0 <g_510+0x10>
    b818:	48 89 85 00 fc ff ff 	mov    %rax,-0x400(%rbp)
    b81f:	48 8d 85 28 de ff ff 	lea    -0x21d8(%rbp),%rax
    b826:	48 89 85 08 fc ff ff 	mov    %rax,-0x3f8(%rbp)
    b82d:	48 8d 05 9c ca 00 00 	lea    0xca9c(%rip),%rax        # 182d0 <g_510+0x10>
    b834:	48 89 85 10 fc ff ff 	mov    %rax,-0x3f0(%rbp)
    b83b:	48 c7 85 18 fc ff ff 	movq   $0x0,-0x3e8(%rbp)
    b842:	00 00 00 00 
    b846:	48 8d 05 83 ca 00 00 	lea    0xca83(%rip),%rax        # 182d0 <g_510+0x10>
    b84d:	48 89 85 20 fc ff ff 	mov    %rax,-0x3e0(%rbp)
    b854:	48 8d 05 75 ca 00 00 	lea    0xca75(%rip),%rax        # 182d0 <g_510+0x10>
    b85b:	48 89 85 28 fc ff ff 	mov    %rax,-0x3d8(%rbp)
    b862:	48 8d 85 28 de ff ff 	lea    -0x21d8(%rbp),%rax
    b869:	48 89 85 30 fc ff ff 	mov    %rax,-0x3d0(%rbp)
    b870:	48 8d 05 59 ca 00 00 	lea    0xca59(%rip),%rax        # 182d0 <g_510+0x10>
    b877:	48 89 85 38 fc ff ff 	mov    %rax,-0x3c8(%rbp)
    b87e:	48 8d 05 4b ca 00 00 	lea    0xca4b(%rip),%rax        # 182d0 <g_510+0x10>
    b885:	48 89 85 40 fc ff ff 	mov    %rax,-0x3c0(%rbp)
    b88c:	48 8d 05 6d ca 00 00 	lea    0xca6d(%rip),%rax        # 18300 <g_510+0x40>
    b893:	48 89 85 48 fc ff ff 	mov    %rax,-0x3b8(%rbp)
    b89a:	48 8d 05 2f ca 00 00 	lea    0xca2f(%rip),%rax        # 182d0 <g_510+0x10>
    b8a1:	48 89 85 50 fc ff ff 	mov    %rax,-0x3b0(%rbp)
    b8a8:	48 8d 05 41 ca 00 00 	lea    0xca41(%rip),%rax        # 182f0 <g_510+0x30>
    b8af:	48 89 85 58 fc ff ff 	mov    %rax,-0x3a8(%rbp)
    b8b6:	48 8d 05 13 ca 00 00 	lea    0xca13(%rip),%rax        # 182d0 <g_510+0x10>
    b8bd:	48 89 85 60 fc ff ff 	mov    %rax,-0x3a0(%rbp)
    b8c4:	48 c7 85 68 fc ff ff 	movq   $0x0,-0x398(%rbp)
    b8cb:	00 00 00 00 
    b8cf:	48 8d 85 28 de ff ff 	lea    -0x21d8(%rbp),%rax
    b8d6:	48 89 85 70 fc ff ff 	mov    %rax,-0x390(%rbp)
    b8dd:	48 8d 05 ec c9 00 00 	lea    0xc9ec(%rip),%rax        # 182d0 <g_510+0x10>
    b8e4:	48 89 85 78 fc ff ff 	mov    %rax,-0x388(%rbp)
    b8eb:	48 c7 85 80 fc ff ff 	movq   $0x0,-0x380(%rbp)
    b8f2:	00 00 00 00 
    b8f6:	48 c7 85 88 fc ff ff 	movq   $0x0,-0x378(%rbp)
    b8fd:	00 00 00 00 
    b901:	48 8d 05 c8 c9 00 00 	lea    0xc9c8(%rip),%rax        # 182d0 <g_510+0x10>
    b908:	48 89 85 90 fc ff ff 	mov    %rax,-0x370(%rbp)
    b90f:	48 c7 85 98 fc ff ff 	movq   $0x0,-0x368(%rbp)
    b916:	00 00 00 00 
    b91a:	48 8d 85 28 de ff ff 	lea    -0x21d8(%rbp),%rax
    b921:	48 89 85 a0 fc ff ff 	mov    %rax,-0x360(%rbp)
    b928:	48 8d 05 a1 c9 00 00 	lea    0xc9a1(%rip),%rax        # 182d0 <g_510+0x10>
    b92f:	48 89 85 a8 fc ff ff 	mov    %rax,-0x358(%rbp)
    b936:	48 8d 05 93 c9 00 00 	lea    0xc993(%rip),%rax        # 182d0 <g_510+0x10>
    b93d:	48 89 85 b0 fc ff ff 	mov    %rax,-0x350(%rbp)
    b944:	48 8d 05 85 c9 00 00 	lea    0xc985(%rip),%rax        # 182d0 <g_510+0x10>
    b94b:	48 89 85 b8 fc ff ff 	mov    %rax,-0x348(%rbp)
    b952:	48 8d 05 77 c9 00 00 	lea    0xc977(%rip),%rax        # 182d0 <g_510+0x10>
    b959:	48 89 85 c0 fc ff ff 	mov    %rax,-0x340(%rbp)
    b960:	48 8d 05 69 c9 00 00 	lea    0xc969(%rip),%rax        # 182d0 <g_510+0x10>
    b967:	48 89 85 c8 fc ff ff 	mov    %rax,-0x338(%rbp)
    b96e:	48 8d 05 8b c9 00 00 	lea    0xc98b(%rip),%rax        # 18300 <g_510+0x40>
    b975:	48 89 85 d0 fc ff ff 	mov    %rax,-0x330(%rbp)
    b97c:	48 c7 85 d8 fc ff ff 	movq   $0x0,-0x328(%rbp)
    b983:	00 00 00 00 
    b987:	48 8d 05 72 c9 00 00 	lea    0xc972(%rip),%rax        # 18300 <g_510+0x40>
    b98e:	48 89 85 e0 fc ff ff 	mov    %rax,-0x320(%rbp)
    b995:	48 8d 05 34 c9 00 00 	lea    0xc934(%rip),%rax        # 182d0 <g_510+0x10>
    b99c:	48 89 85 e8 fc ff ff 	mov    %rax,-0x318(%rbp)
    b9a3:	48 8d 05 26 c9 00 00 	lea    0xc926(%rip),%rax        # 182d0 <g_510+0x10>
    b9aa:	48 89 85 f0 fc ff ff 	mov    %rax,-0x310(%rbp)
    b9b1:	48 8d 05 18 c9 00 00 	lea    0xc918(%rip),%rax        # 182d0 <g_510+0x10>
    b9b8:	48 89 85 f8 fc ff ff 	mov    %rax,-0x308(%rbp)
    b9bf:	48 8d 85 28 de ff ff 	lea    -0x21d8(%rbp),%rax
    b9c6:	48 89 85 00 fd ff ff 	mov    %rax,-0x300(%rbp)
    b9cd:	48 8d 05 ec c8 00 00 	lea    0xc8ec(%rip),%rax        # 182c0 <g_510>
    b9d4:	48 89 85 08 fd ff ff 	mov    %rax,-0x2f8(%rbp)
    b9db:	48 8d 85 28 de ff ff 	lea    -0x21d8(%rbp),%rax
    b9e2:	48 89 85 10 fd ff ff 	mov    %rax,-0x2f0(%rbp)
    b9e9:	48 8d 05 e0 c8 00 00 	lea    0xc8e0(%rip),%rax        # 182d0 <g_510+0x10>
    b9f0:	48 89 85 18 fd ff ff 	mov    %rax,-0x2e8(%rbp)
    b9f7:	48 8d 85 28 de ff ff 	lea    -0x21d8(%rbp),%rax
    b9fe:	48 89 85 20 fd ff ff 	mov    %rax,-0x2e0(%rbp)
    ba05:	48 8d 05 cc c8 00 00 	lea    0xc8cc(%rip),%rax        # 182d8 <g_510+0x18>
    ba0c:	48 89 85 28 fd ff ff 	mov    %rax,-0x2d8(%rbp)
    ba13:	48 8d 85 28 de ff ff 	lea    -0x21d8(%rbp),%rax
    ba1a:	48 89 85 30 fd ff ff 	mov    %rax,-0x2d0(%rbp)
    ba21:	48 8d 85 28 de ff ff 	lea    -0x21d8(%rbp),%rax
    ba28:	48 89 85 38 fd ff ff 	mov    %rax,-0x2c8(%rbp)
    ba2f:	48 c7 85 40 fd ff ff 	movq   $0x0,-0x2c0(%rbp)
    ba36:	00 00 00 00 
    ba3a:	48 8d 05 9f c8 00 00 	lea    0xc89f(%rip),%rax        # 182e0 <g_510+0x20>
    ba41:	48 89 85 48 fd ff ff 	mov    %rax,-0x2b8(%rbp)
    ba48:	48 8d 05 79 c8 00 00 	lea    0xc879(%rip),%rax        # 182c8 <g_510+0x8>
    ba4f:	48 89 85 50 fd ff ff 	mov    %rax,-0x2b0(%rbp)
    ba56:	48 8d 05 73 c8 00 00 	lea    0xc873(%rip),%rax        # 182d0 <g_510+0x10>
    ba5d:	48 89 85 58 fd ff ff 	mov    %rax,-0x2a8(%rbp)
    ba64:	48 8d 85 28 de ff ff 	lea    -0x21d8(%rbp),%rax
    ba6b:	48 89 85 60 fd ff ff 	mov    %rax,-0x2a0(%rbp)
    ba72:	48 8d 05 47 c8 00 00 	lea    0xc847(%rip),%rax        # 182c0 <g_510>
    ba79:	48 89 85 68 fd ff ff 	mov    %rax,-0x298(%rbp)
    ba80:	48 8d 85 28 de ff ff 	lea    -0x21d8(%rbp),%rax
    ba87:	48 89 85 70 fd ff ff 	mov    %rax,-0x290(%rbp)
    ba8e:	48 8d 85 28 de ff ff 	lea    -0x21d8(%rbp),%rax
    ba95:	48 89 85 78 fd ff ff 	mov    %rax,-0x288(%rbp)
    ba9c:	48 8d 05 4d c8 00 00 	lea    0xc84d(%rip),%rax        # 182f0 <g_510+0x30>
    baa3:	48 89 85 80 fd ff ff 	mov    %rax,-0x280(%rbp)
    baaa:	48 8d 05 1f c8 00 00 	lea    0xc81f(%rip),%rax        # 182d0 <g_510+0x10>
    bab1:	48 89 85 88 fd ff ff 	mov    %rax,-0x278(%rbp)
    bab8:	48 8d 85 28 de ff ff 	lea    -0x21d8(%rbp),%rax
    babf:	48 89 85 90 fd ff ff 	mov    %rax,-0x270(%rbp)
    bac6:	48 8d 05 03 c8 00 00 	lea    0xc803(%rip),%rax        # 182d0 <g_510+0x10>
    bacd:	48 89 85 98 fd ff ff 	mov    %rax,-0x268(%rbp)
    bad4:	48 8d 05 f5 c7 00 00 	lea    0xc7f5(%rip),%rax        # 182d0 <g_510+0x10>
    badb:	48 89 85 a0 fd ff ff 	mov    %rax,-0x260(%rbp)
    bae2:	48 8d 05 07 c8 00 00 	lea    0xc807(%rip),%rax        # 182f0 <g_510+0x30>
    bae9:	48 89 85 a8 fd ff ff 	mov    %rax,-0x258(%rbp)
    baf0:	48 8d 05 d9 c7 00 00 	lea    0xc7d9(%rip),%rax        # 182d0 <g_510+0x10>
    baf7:	48 89 85 b0 fd ff ff 	mov    %rax,-0x250(%rbp)
    bafe:	48 8d 85 28 de ff ff 	lea    -0x21d8(%rbp),%rax
    bb05:	48 89 85 b8 fd ff ff 	mov    %rax,-0x248(%rbp)
    bb0c:	48 c7 85 c0 fd ff ff 	movq   $0x0,-0x240(%rbp)
    bb13:	00 00 00 00 
    bb17:	48 8d 05 b2 c7 00 00 	lea    0xc7b2(%rip),%rax        # 182d0 <g_510+0x10>
    bb1e:	48 89 85 c8 fd ff ff 	mov    %rax,-0x238(%rbp)
    bb25:	48 8d 05 a4 c7 00 00 	lea    0xc7a4(%rip),%rax        # 182d0 <g_510+0x10>
    bb2c:	48 89 85 d0 fd ff ff 	mov    %rax,-0x230(%rbp)
    bb33:	48 c7 85 d8 fd ff ff 	movq   $0x0,-0x228(%rbp)
    bb3a:	00 00 00 00 
    bb3e:	48 c7 85 e0 fd ff ff 	movq   $0x0,-0x220(%rbp)
    bb45:	00 00 00 00 
    bb49:	48 8d 05 80 c7 00 00 	lea    0xc780(%rip),%rax        # 182d0 <g_510+0x10>
    bb50:	48 89 85 e8 fd ff ff 	mov    %rax,-0x218(%rbp)
    bb57:	48 8d 05 72 c7 00 00 	lea    0xc772(%rip),%rax        # 182d0 <g_510+0x10>
    bb5e:	48 89 85 f0 fd ff ff 	mov    %rax,-0x210(%rbp)
    bb65:	48 8d 05 74 c7 00 00 	lea    0xc774(%rip),%rax        # 182e0 <g_510+0x20>
    bb6c:	48 89 85 f8 fd ff ff 	mov    %rax,-0x208(%rbp)
    bb73:	48 8d 85 28 de ff ff 	lea    -0x21d8(%rbp),%rax
    bb7a:	48 89 85 00 fe ff ff 	mov    %rax,-0x200(%rbp)
    bb81:	48 8d 85 28 de ff ff 	lea    -0x21d8(%rbp),%rax
    bb88:	48 89 85 08 fe ff ff 	mov    %rax,-0x1f8(%rbp)
    bb8f:	48 c7 85 10 fe ff ff 	movq   $0x0,-0x1f0(%rbp)
    bb96:	00 00 00 00 
    bb9a:	48 8d 05 2f c7 00 00 	lea    0xc72f(%rip),%rax        # 182d0 <g_510+0x10>
    bba1:	48 89 85 18 fe ff ff 	mov    %rax,-0x1e8(%rbp)
    bba8:	48 8d 05 21 c7 00 00 	lea    0xc721(%rip),%rax        # 182d0 <g_510+0x10>
    bbaf:	48 89 85 20 fe ff ff 	mov    %rax,-0x1e0(%rbp)
    bbb6:	48 8d 05 43 c7 00 00 	lea    0xc743(%rip),%rax        # 18300 <g_510+0x40>
    bbbd:	48 89 85 28 fe ff ff 	mov    %rax,-0x1d8(%rbp)
    bbc4:	48 8d 85 28 de ff ff 	lea    -0x21d8(%rbp),%rax
    bbcb:	48 89 85 30 fe ff ff 	mov    %rax,-0x1d0(%rbp)
    bbd2:	48 8d 05 ef c6 00 00 	lea    0xc6ef(%rip),%rax        # 182c8 <g_510+0x8>
    bbd9:	48 89 85 38 fe ff ff 	mov    %rax,-0x1c8(%rbp)
    bbe0:	48 8d 05 09 c7 00 00 	lea    0xc709(%rip),%rax        # 182f0 <g_510+0x30>
    bbe7:	48 89 85 40 fe ff ff 	mov    %rax,-0x1c0(%rbp)
    bbee:	48 c7 85 48 fe ff ff 	movq   $0x0,-0x1b8(%rbp)
    bbf5:	00 00 00 00 
    bbf9:	48 8d 05 d0 c6 00 00 	lea    0xc6d0(%rip),%rax        # 182d0 <g_510+0x10>
    bc00:	48 89 85 50 fe ff ff 	mov    %rax,-0x1b0(%rbp)
    bc07:	48 8d 85 28 de ff ff 	lea    -0x21d8(%rbp),%rax
    bc0e:	48 89 85 58 fe ff ff 	mov    %rax,-0x1a8(%rbp)
    bc15:	48 8d 05 d4 c6 00 00 	lea    0xc6d4(%rip),%rax        # 182f0 <g_510+0x30>
    bc1c:	48 89 85 60 fe ff ff 	mov    %rax,-0x1a0(%rbp)
    bc23:	48 c7 85 68 fe ff ff 	movq   $0x0,-0x198(%rbp)
    bc2a:	00 00 00 00 
    bc2e:	48 8d 05 9b c6 00 00 	lea    0xc69b(%rip),%rax        # 182d0 <g_510+0x10>
    bc35:	48 89 85 70 fe ff ff 	mov    %rax,-0x190(%rbp)
    bc3c:	48 8d 05 8d c6 00 00 	lea    0xc68d(%rip),%rax        # 182d0 <g_510+0x10>
    bc43:	48 89 85 78 fe ff ff 	mov    %rax,-0x188(%rbp)
    bc4a:	48 c7 85 80 fe ff ff 	movq   $0x0,-0x180(%rbp)
    bc51:	00 00 00 00 
    bc55:	48 8d 05 74 c6 00 00 	lea    0xc674(%rip),%rax        # 182d0 <g_510+0x10>
    bc5c:	48 89 85 88 fe ff ff 	mov    %rax,-0x178(%rbp)
    bc63:	48 8d 05 66 c6 00 00 	lea    0xc666(%rip),%rax        # 182d0 <g_510+0x10>
    bc6a:	48 89 85 90 fe ff ff 	mov    %rax,-0x170(%rbp)
    bc71:	48 8d 85 28 de ff ff 	lea    -0x21d8(%rbp),%rax
    bc78:	48 89 85 98 fe ff ff 	mov    %rax,-0x168(%rbp)
    bc7f:	48 c7 85 a0 fe ff ff 	movq   $0x0,-0x160(%rbp)
    bc86:	00 00 00 00 
    bc8a:	48 8d 85 28 de ff ff 	lea    -0x21d8(%rbp),%rax
    bc91:	48 89 85 a8 fe ff ff 	mov    %rax,-0x158(%rbp)
    bc98:	48 8d 05 59 c6 00 00 	lea    0xc659(%rip),%rax        # 182f8 <g_510+0x38>
    bc9f:	48 89 85 b0 fe ff ff 	mov    %rax,-0x150(%rbp)
    bca6:	48 c7 85 b8 fe ff ff 	movq   $0x0,-0x148(%rbp)
    bcad:	00 00 00 00 
    bcb1:	48 8d 05 18 c6 00 00 	lea    0xc618(%rip),%rax        # 182d0 <g_510+0x10>
    bcb8:	48 89 85 c0 fe ff ff 	mov    %rax,-0x140(%rbp)
    bcbf:	48 c7 85 c8 fe ff ff 	movq   $0x0,-0x138(%rbp)
    bcc6:	00 00 00 00 
    bcca:	48 8d 85 28 de ff ff 	lea    -0x21d8(%rbp),%rax
    bcd1:	48 89 85 d0 fe ff ff 	mov    %rax,-0x130(%rbp)
    bcd8:	48 8d 85 28 de ff ff 	lea    -0x21d8(%rbp),%rax
    bcdf:	48 89 85 d8 fe ff ff 	mov    %rax,-0x128(%rbp)
    bce6:	48 c7 85 e0 fe ff ff 	movq   $0x0,-0x120(%rbp)
    bced:	00 00 00 00 
    bcf1:	48 8d 05 d8 c5 00 00 	lea    0xc5d8(%rip),%rax        # 182d0 <g_510+0x10>
    bcf8:	48 89 85 e8 fe ff ff 	mov    %rax,-0x118(%rbp)
    bcff:	48 8d 85 28 de ff ff 	lea    -0x21d8(%rbp),%rax
    bd06:	48 89 85 f0 fe ff ff 	mov    %rax,-0x110(%rbp)
    bd0d:	48 8d 05 ac c5 00 00 	lea    0xc5ac(%rip),%rax        # 182c0 <g_510>
    bd14:	48 89 85 f8 fe ff ff 	mov    %rax,-0x108(%rbp)
    bd1b:	48 8d 85 28 de ff ff 	lea    -0x21d8(%rbp),%rax
    bd22:	48 89 85 00 ff ff ff 	mov    %rax,-0x100(%rbp)
    bd29:	48 8d 05 c8 c5 00 00 	lea    0xc5c8(%rip),%rax        # 182f8 <g_510+0x38>
    bd30:	48 89 85 08 ff ff ff 	mov    %rax,-0xf8(%rbp)
    bd37:	48 8d 05 92 c5 00 00 	lea    0xc592(%rip),%rax        # 182d0 <g_510+0x10>
    bd3e:	48 89 85 10 ff ff ff 	mov    %rax,-0xf0(%rbp)
    bd45:	48 8d 05 84 c5 00 00 	lea    0xc584(%rip),%rax        # 182d0 <g_510+0x10>
    bd4c:	48 89 85 18 ff ff ff 	mov    %rax,-0xe8(%rbp)
    bd53:	48 c7 85 20 ff ff ff 	movq   $0x0,-0xe0(%rbp)
    bd5a:	00 00 00 00 
    bd5e:	48 8d 85 28 de ff ff 	lea    -0x21d8(%rbp),%rax
    bd65:	48 89 85 28 ff ff ff 	mov    %rax,-0xd8(%rbp)
    bd6c:	48 8d 85 28 de ff ff 	lea    -0x21d8(%rbp),%rax
    bd73:	48 89 85 30 ff ff ff 	mov    %rax,-0xd0(%rbp)
    bd7a:	48 8d 05 4f c5 00 00 	lea    0xc54f(%rip),%rax        # 182d0 <g_510+0x10>
    bd81:	48 89 85 38 ff ff ff 	mov    %rax,-0xc8(%rbp)
    bd88:	48 8d 05 31 c5 00 00 	lea    0xc531(%rip),%rax        # 182c0 <g_510>
    bd8f:	48 89 85 40 ff ff ff 	mov    %rax,-0xc0(%rbp)
    bd96:	48 8d 05 33 c5 00 00 	lea    0xc533(%rip),%rax        # 182d0 <g_510+0x10>
    bd9d:	48 89 85 48 ff ff ff 	mov    %rax,-0xb8(%rbp)
    bda4:	48 8d 05 25 c5 00 00 	lea    0xc525(%rip),%rax        # 182d0 <g_510+0x10>
    bdab:	48 89 85 50 ff ff ff 	mov    %rax,-0xb0(%rbp)
    bdb2:	48 8d 05 17 c5 00 00 	lea    0xc517(%rip),%rax        # 182d0 <g_510+0x10>
    bdb9:	48 89 85 58 ff ff ff 	mov    %rax,-0xa8(%rbp)
    bdc0:	48 8d 05 09 c5 00 00 	lea    0xc509(%rip),%rax        # 182d0 <g_510+0x10>
    bdc7:	48 89 85 60 ff ff ff 	mov    %rax,-0xa0(%rbp)
    bdce:	48 c7 85 68 ff ff ff 	movq   $0x0,-0x98(%rbp)
    bdd5:	00 00 00 00 
    bdd9:	48 8d 05 f0 c4 00 00 	lea    0xc4f0(%rip),%rax        # 182d0 <g_510+0x10>
    bde0:	48 89 85 70 ff ff ff 	mov    %rax,-0x90(%rbp)
    bde7:	48 8d 05 0a c5 00 00 	lea    0xc50a(%rip),%rax        # 182f8 <g_510+0x38>
    bdee:	48 89 85 78 ff ff ff 	mov    %rax,-0x88(%rbp)
    bdf5:	48 c7 45 80 00 00 00 	movq   $0x0,-0x80(%rbp)
    bdfc:	00 
    bdfd:	48 8d 05 cc c4 00 00 	lea    0xc4cc(%rip),%rax        # 182d0 <g_510+0x10>
    be04:	48 89 45 88          	mov    %rax,-0x78(%rbp)
    be08:	48 c7 45 90 00 00 00 	movq   $0x0,-0x70(%rbp)
    be0f:	00 
    be10:	48 8d 85 f0 f7 ff ff 	lea    -0x810(%rbp),%rax
    be17:	48 05 d8 04 00 00    	add    $0x4d8,%rax
    be1d:	48 89 85 60 de ff ff 	mov    %rax,-0x21a0(%rbp)
    be24:	48 8d 85 60 de ff ff 	lea    -0x21a0(%rbp),%rax
    be2b:	48 89 85 28 df ff ff 	mov    %rax,-0x20d8(%rbp)
    be32:	48 8d 05 bf e1 00 00 	lea    0xe1bf(%rip),%rax        # 19ff8 <g_1304>
    be39:	48 89 85 30 df ff ff 	mov    %rax,-0x20d0(%rbp)
    be40:	c7 85 a8 dd ff ff 00 	movl   $0x0,-0x2258(%rbp)
    be47:	00 00 00 
    be4a:	eb 1a                	jmp    be66 <func_13+0x2749>
    be4c:	8b 85 a8 dd ff ff    	mov    -0x2258(%rbp),%eax
    be52:	48 98                	cltq   
    be54:	c7 84 85 30 e2 ff ff 	movl   $0xd9febc41,-0x1dd0(%rbp,%rax,4)
    be5b:	41 bc fe d9 
    be5f:	83 85 a8 dd ff ff 01 	addl   $0x1,-0x2258(%rbp)
    be66:	83 bd a8 dd ff ff 02 	cmpl   $0x2,-0x2258(%rbp)
    be6d:	7e dd                	jle    be4c <func_13+0x272f>
    be6f:	c7 85 a8 dd ff ff 00 	movl   $0x0,-0x2258(%rbp)
    be76:	00 00 00 
    be79:	eb 1a                	jmp    be95 <func_13+0x2778>
    be7b:	8b 85 a8 dd ff ff    	mov    -0x2258(%rbp),%eax
    be81:	48 98                	cltq   
    be83:	c7 84 85 f0 e0 ff ff 	movl   $0x0,-0x1f10(%rbp,%rax,4)
    be8a:	00 00 00 00 
    be8e:	83 85 a8 dd ff ff 01 	addl   $0x1,-0x2258(%rbp)
    be95:	83 bd a8 dd ff ff 01 	cmpl   $0x1,-0x2258(%rbp)
    be9c:	7e dd                	jle    be7b <func_13+0x275e>
    be9e:	8b 85 70 dd ff ff    	mov    -0x2290(%rbp),%eax
    bea4:	83 c0 01             	add    $0x1,%eax
    bea7:	89 85 70 dd ff ff    	mov    %eax,-0x2290(%rbp)
    bead:	8b 85 70 dd ff ff    	mov    -0x2290(%rbp),%eax
    beb3:	83 f8 0a             	cmp    $0xa,%eax
    beb6:	0f 8e 33 f2 ff ff    	jle    b0ef <func_13+0x19d2>
    bebc:	8b 85 70 dd ff ff    	mov    -0x2290(%rbp),%eax
    bec2:	85 c0                	test   %eax,%eax
    bec4:	74 13                	je     bed9 <func_13+0x27bc>
    bec6:	8b 05 b4 b2 00 00    	mov    0xb2b4(%rip),%eax        # 17180 <g_190>
    becc:	85 c0                	test   %eax,%eax
    bece:	0f 84 85 14 00 00    	je     d359 <func_13+0x3c3c>
    bed4:	e9 07 f2 ff ff       	jmpq   b0e0 <func_13+0x19c3>
    bed9:	48 8d 05 38 c8 00 00 	lea    0xc838(%rip),%rax        # 18718 <g_1204>
    bee0:	48 89 85 c0 de ff ff 	mov    %rax,-0x2140(%rbp)
    bee7:	c7 85 dc dd ff ff 06 	movl   $0x6,-0x2224(%rbp)
    beee:	00 00 00 
    bef1:	48 c7 85 c8 de ff ff 	movq   $0x0,-0x2138(%rbp)
    bef8:	00 00 00 00 
    befc:	c7 85 e0 dd ff ff 01 	movl   $0x1,-0x2220(%rbp)
    bf03:	00 00 00 
    bf06:	c7 85 e4 dd ff ff 37 	movl   $0xce8ffb37,-0x221c(%rbp)
    bf0d:	fb 8f ce 
    bf10:	c7 85 e8 dd ff ff ff 	movl   $0xffffffff,-0x2218(%rbp)
    bf17:	ff ff ff 
    bf1a:	c7 85 ec dd ff ff 01 	movl   $0x1,-0x2214(%rbp)
    bf21:	00 00 00 
    bf24:	c7 85 f0 dd ff ff a5 	movl   $0x560f63a5,-0x2210(%rbp)
    bf2b:	63 0f 56 
    bf2e:	c7 85 f4 dd ff ff 07 	movl   $0x31092507,-0x220c(%rbp)
    bf35:	25 09 31 
    bf38:	48 8d 85 92 dd ff ff 	lea    -0x226e(%rbp),%rax
    bf3f:	48 89 85 d0 de ff ff 	mov    %rax,-0x2130(%rbp)
    bf46:	48 c7 85 30 de ff ff 	movq   $0x0,-0x21d0(%rbp)
    bf4d:	00 00 00 00 
    bf51:	c7 85 30 de ff ff ca 	movl   $0x4e5531ca,-0x21d0(%rbp)
    bf58:	31 55 4e 
    bf5b:	48 8d 05 96 c7 00 00 	lea    0xc796(%rip),%rax        # 186f8 <g_1073+0x58>
    bf62:	48 89 85 38 de ff ff 	mov    %rax,-0x21c8(%rbp)
    bf69:	48 8d 85 38 de ff ff 	lea    -0x21c8(%rbp),%rax
    bf70:	48 89 85 d8 de ff ff 	mov    %rax,-0x2128(%rbp)
    bf77:	48 8d 05 16 b3 00 00 	lea    0xb316(%rip),%rax        # 17294 <g_414>
    bf7e:	48 89 85 f0 e0 ff ff 	mov    %rax,-0x1f10(%rbp)
    bf85:	48 8d 05 08 b3 00 00 	lea    0xb308(%rip),%rax        # 17294 <g_414>
    bf8c:	48 89 85 f8 e0 ff ff 	mov    %rax,-0x1f08(%rbp)
    bf93:	48 8d 05 fa b2 00 00 	lea    0xb2fa(%rip),%rax        # 17294 <g_414>
    bf9a:	48 89 85 00 e1 ff ff 	mov    %rax,-0x1f00(%rbp)
    bfa1:	48 8d 05 ec b2 00 00 	lea    0xb2ec(%rip),%rax        # 17294 <g_414>
    bfa8:	48 89 85 08 e1 ff ff 	mov    %rax,-0x1ef8(%rbp)
    bfaf:	48 8d 05 de b2 00 00 	lea    0xb2de(%rip),%rax        # 17294 <g_414>
    bfb6:	48 89 85 10 e1 ff ff 	mov    %rax,-0x1ef0(%rbp)
    bfbd:	48 8d 05 d0 b2 00 00 	lea    0xb2d0(%rip),%rax        # 17294 <g_414>
    bfc4:	48 89 85 18 e1 ff ff 	mov    %rax,-0x1ee8(%rbp)
    bfcb:	48 8d 05 c2 b2 00 00 	lea    0xb2c2(%rip),%rax        # 17294 <g_414>
    bfd2:	48 89 85 20 e1 ff ff 	mov    %rax,-0x1ee0(%rbp)
    bfd9:	48 8d 05 b4 b2 00 00 	lea    0xb2b4(%rip),%rax        # 17294 <g_414>
    bfe0:	48 89 85 28 e1 ff ff 	mov    %rax,-0x1ed8(%rbp)
    bfe7:	48 8d 05 a6 b2 00 00 	lea    0xb2a6(%rip),%rax        # 17294 <g_414>
    bfee:	48 89 85 30 e1 ff ff 	mov    %rax,-0x1ed0(%rbp)
    bff5:	48 c7 85 40 de ff ff 	movq   $0x0,-0x21c0(%rbp)
    bffc:	00 00 00 00 
    c000:	48 8d 85 40 de ff ff 	lea    -0x21c0(%rbp),%rax
    c007:	48 89 85 48 de ff ff 	mov    %rax,-0x21b8(%rbp)
    c00e:	48 8d 85 48 de ff ff 	lea    -0x21b8(%rbp),%rax
    c015:	48 89 85 50 de ff ff 	mov    %rax,-0x21b0(%rbp)
    c01c:	48 8d 85 50 de ff ff 	lea    -0x21b0(%rbp),%rax
    c023:	48 89 85 58 de ff ff 	mov    %rax,-0x21a8(%rbp)
    c02a:	48 8d 85 58 de ff ff 	lea    -0x21a8(%rbp),%rax
    c031:	48 89 85 e0 de ff ff 	mov    %rax,-0x2120(%rbp)
    c038:	48 c7 85 30 e2 ff ff 	movq   $0x0,-0x1dd0(%rbp)
    c03f:	00 00 00 00 
    c043:	48 8d 05 56 b2 00 00 	lea    0xb256(%rip),%rax        # 172a0 <g_449>
    c04a:	48 89 85 38 e2 ff ff 	mov    %rax,-0x1dc8(%rbp)
    c051:	48 c7 85 40 e2 ff ff 	movq   $0x0,-0x1dc0(%rbp)
    c058:	00 00 00 00 
    c05c:	48 8d 05 f5 b7 00 00 	lea    0xb7f5(%rip),%rax        # 17858 <g_2049>
    c063:	48 89 85 48 e2 ff ff 	mov    %rax,-0x1db8(%rbp)
    c06a:	48 8d 05 e7 b7 00 00 	lea    0xb7e7(%rip),%rax        # 17858 <g_2049>
    c071:	48 89 85 50 e2 ff ff 	mov    %rax,-0x1db0(%rbp)
    c078:	48 c7 85 58 e2 ff ff 	movq   $0x0,-0x1da8(%rbp)
    c07f:	00 00 00 00 
    c083:	48 8d 05 a6 b7 00 00 	lea    0xb7a6(%rip),%rax        # 17830 <g_1443>
    c08a:	48 89 85 60 e2 ff ff 	mov    %rax,-0x1da0(%rbp)
    c091:	48 8d 05 98 b7 00 00 	lea    0xb798(%rip),%rax        # 17830 <g_1443>
    c098:	48 89 85 68 e2 ff ff 	mov    %rax,-0x1d98(%rbp)
    c09f:	48 8d 05 b2 b7 00 00 	lea    0xb7b2(%rip),%rax        # 17858 <g_2049>
    c0a6:	48 89 85 70 e2 ff ff 	mov    %rax,-0x1d90(%rbp)
    c0ad:	48 8d 05 7c b7 00 00 	lea    0xb77c(%rip),%rax        # 17830 <g_1443>
    c0b4:	48 89 85 78 e2 ff ff 	mov    %rax,-0x1d88(%rbp)
    c0bb:	48 8d 05 96 b7 00 00 	lea    0xb796(%rip),%rax        # 17858 <g_2049>
    c0c2:	48 89 85 80 e2 ff ff 	mov    %rax,-0x1d80(%rbp)
    c0c9:	48 8d 05 60 b7 00 00 	lea    0xb760(%rip),%rax        # 17830 <g_1443>
    c0d0:	48 89 85 88 e2 ff ff 	mov    %rax,-0x1d78(%rbp)
    c0d7:	48 8d 05 7a b7 00 00 	lea    0xb77a(%rip),%rax        # 17858 <g_2049>
    c0de:	48 89 85 90 e2 ff ff 	mov    %rax,-0x1d70(%rbp)
    c0e5:	48 8d 05 b4 b1 00 00 	lea    0xb1b4(%rip),%rax        # 172a0 <g_449>
    c0ec:	48 89 85 98 e2 ff ff 	mov    %rax,-0x1d68(%rbp)
    c0f3:	48 8d 05 36 b7 00 00 	lea    0xb736(%rip),%rax        # 17830 <g_1443>
    c0fa:	48 89 85 a0 e2 ff ff 	mov    %rax,-0x1d60(%rbp)
    c101:	48 8d 05 28 b7 00 00 	lea    0xb728(%rip),%rax        # 17830 <g_1443>
    c108:	48 89 85 a8 e2 ff ff 	mov    %rax,-0x1d58(%rbp)
    c10f:	48 8d 05 8a b1 00 00 	lea    0xb18a(%rip),%rax        # 172a0 <g_449>
    c116:	48 89 85 b0 e2 ff ff 	mov    %rax,-0x1d50(%rbp)
    c11d:	48 8d 05 34 b7 00 00 	lea    0xb734(%rip),%rax        # 17858 <g_2049>
    c124:	48 89 85 b8 e2 ff ff 	mov    %rax,-0x1d48(%rbp)
    c12b:	48 8d 05 fe b6 00 00 	lea    0xb6fe(%rip),%rax        # 17830 <g_1443>
    c132:	48 89 85 c0 e2 ff ff 	mov    %rax,-0x1d40(%rbp)
    c139:	48 8d 05 18 b7 00 00 	lea    0xb718(%rip),%rax        # 17858 <g_2049>
    c140:	48 89 85 c8 e2 ff ff 	mov    %rax,-0x1d38(%rbp)
    c147:	48 8d 05 e2 b6 00 00 	lea    0xb6e2(%rip),%rax        # 17830 <g_1443>
    c14e:	48 89 85 d0 e2 ff ff 	mov    %rax,-0x1d30(%rbp)
    c155:	48 8d 05 fc b6 00 00 	lea    0xb6fc(%rip),%rax        # 17858 <g_2049>
    c15c:	48 89 85 d8 e2 ff ff 	mov    %rax,-0x1d28(%rbp)
    c163:	48 8d 05 c6 b6 00 00 	lea    0xb6c6(%rip),%rax        # 17830 <g_1443>
    c16a:	48 89 85 e0 e2 ff ff 	mov    %rax,-0x1d20(%rbp)
    c171:	48 8d 05 b8 b6 00 00 	lea    0xb6b8(%rip),%rax        # 17830 <g_1443>
    c178:	48 89 85 e8 e2 ff ff 	mov    %rax,-0x1d18(%rbp)
    c17f:	48 c7 85 f0 e2 ff ff 	movq   $0x0,-0x1d10(%rbp)
    c186:	00 00 00 00 
    c18a:	48 8d 05 c7 b6 00 00 	lea    0xb6c7(%rip),%rax        # 17858 <g_2049>
    c191:	48 89 85 f8 e2 ff ff 	mov    %rax,-0x1d08(%rbp)
    c198:	48 8d 05 b9 b6 00 00 	lea    0xb6b9(%rip),%rax        # 17858 <g_2049>
    c19f:	48 89 85 00 e3 ff ff 	mov    %rax,-0x1d00(%rbp)
    c1a6:	48 c7 85 08 e3 ff ff 	movq   $0x0,-0x1cf8(%rbp)
    c1ad:	00 00 00 00 
    c1b1:	48 8d 05 e8 b0 00 00 	lea    0xb0e8(%rip),%rax        # 172a0 <g_449>
    c1b8:	48 89 85 10 e3 ff ff 	mov    %rax,-0x1cf0(%rbp)
    c1bf:	48 c7 85 18 e3 ff ff 	movq   $0x0,-0x1ce8(%rbp)
    c1c6:	00 00 00 00 
    c1ca:	c6 85 8d dd ff ff 00 	movb   $0x0,-0x2273(%rbp)
    c1d1:	48 c7 85 e8 de ff ff 	movq   $0x0,-0x2118(%rbp)
    c1d8:	00 00 00 00 
    c1dc:	c7 85 b0 df ff ff 94 	movl   $0x92dc8594,-0x2050(%rbp)
    c1e3:	85 dc 92 
    c1e6:	c7 85 b4 df ff ff 94 	movl   $0x92dc8594,-0x204c(%rbp)
    c1ed:	85 dc 92 
    c1f0:	c7 85 b8 df ff ff 94 	movl   $0x92dc8594,-0x2048(%rbp)
    c1f7:	85 dc 92 
    c1fa:	c7 85 bc df ff ff 94 	movl   $0x92dc8594,-0x2044(%rbp)
    c201:	85 dc 92 
    c204:	c7 85 c0 df ff ff 94 	movl   $0x92dc8594,-0x2040(%rbp)
    c20b:	85 dc 92 
    c20e:	c7 85 c4 df ff ff 94 	movl   $0x92dc8594,-0x203c(%rbp)
    c215:	85 dc 92 
    c218:	c7 85 c8 df ff ff 94 	movl   $0x92dc8594,-0x2038(%rbp)
    c21f:	85 dc 92 
    c222:	c7 85 cc df ff ff 94 	movl   $0x92dc8594,-0x2034(%rbp)
    c229:	85 dc 92 
    c22c:	66 c7 85 9a dd ff ff 	movw   $0x447b,-0x2266(%rbp)
    c233:	7b 44 
    c235:	c7 85 80 df ff ff c7 	movl   $0xddc5bec7,-0x2080(%rbp)
    c23c:	be c5 dd 
    c23f:	c7 85 84 df ff ff c7 	movl   $0xddc5bec7,-0x207c(%rbp)
    c246:	be c5 dd 
    c249:	c7 85 88 df ff ff c7 	movl   $0xddc5bec7,-0x2078(%rbp)
    c250:	be c5 dd 
    c253:	c7 85 8c df ff ff c7 	movl   $0xddc5bec7,-0x2074(%rbp)
    c25a:	be c5 dd 
    c25d:	c7 85 ac dd ff ff 00 	movl   $0x0,-0x2254(%rbp)
    c264:	00 00 00 
    c267:	eb 14                	jmp    c27d <func_13+0x2b60>
    c269:	8b 85 ac dd ff ff    	mov    -0x2254(%rbp),%eax
    c26f:	48 98                	cltq   
    c271:	c6 44 05 d4 05       	movb   $0x5,-0x2c(%rbp,%rax,1)
    c276:	83 85 ac dd ff ff 01 	addl   $0x1,-0x2254(%rbp)
    c27d:	83 bd ac dd ff ff 03 	cmpl   $0x3,-0x2254(%rbp)
    c284:	7e e3                	jle    c269 <func_13+0x2b4c>
    c286:	48 8b 05 fb c4 00 00 	mov    0xc4fb(%rip),%rax        # 18788 <g_1785>
    c28d:	48 8b 00             	mov    (%rax),%rax
    c290:	8b 00                	mov    (%rax),%eax
    c292:	85 c0                	test   %eax,%eax
    c294:	0f 84 ab 10 00 00    	je     d345 <func_13+0x3c28>
    c29a:	48 8d 05 77 c4 00 00 	lea    0xc477(%rip),%rax        # 18718 <g_1204>
    c2a1:	48 89 85 60 de ff ff 	mov    %rax,-0x21a0(%rbp)
    c2a8:	48 8d 85 60 de ff ff 	lea    -0x21a0(%rbp),%rax
    c2af:	48 89 85 f0 f7 ff ff 	mov    %rax,-0x810(%rbp)
    c2b6:	48 8d 85 60 de ff ff 	lea    -0x21a0(%rbp),%rax
    c2bd:	48 89 85 f8 f7 ff ff 	mov    %rax,-0x808(%rbp)
    c2c4:	48 8d 85 60 de ff ff 	lea    -0x21a0(%rbp),%rax
    c2cb:	48 89 85 00 f8 ff ff 	mov    %rax,-0x800(%rbp)
    c2d2:	48 8d 85 60 de ff ff 	lea    -0x21a0(%rbp),%rax
    c2d9:	48 89 85 08 f8 ff ff 	mov    %rax,-0x7f8(%rbp)
    c2e0:	48 8d 85 60 de ff ff 	lea    -0x21a0(%rbp),%rax
    c2e7:	48 89 85 10 f8 ff ff 	mov    %rax,-0x7f0(%rbp)
    c2ee:	48 8d 85 60 de ff ff 	lea    -0x21a0(%rbp),%rax
    c2f5:	48 89 85 18 f8 ff ff 	mov    %rax,-0x7e8(%rbp)
    c2fc:	48 8d 85 60 de ff ff 	lea    -0x21a0(%rbp),%rax
    c303:	48 89 85 20 f8 ff ff 	mov    %rax,-0x7e0(%rbp)
    c30a:	48 8d 85 60 de ff ff 	lea    -0x21a0(%rbp),%rax
    c311:	48 89 85 28 f8 ff ff 	mov    %rax,-0x7d8(%rbp)
    c318:	48 8d 85 60 de ff ff 	lea    -0x21a0(%rbp),%rax
    c31f:	48 89 85 30 f8 ff ff 	mov    %rax,-0x7d0(%rbp)
    c326:	48 8d 85 60 de ff ff 	lea    -0x21a0(%rbp),%rax
    c32d:	48 89 85 38 f8 ff ff 	mov    %rax,-0x7c8(%rbp)
    c334:	48 8d 85 60 de ff ff 	lea    -0x21a0(%rbp),%rax
    c33b:	48 89 85 40 f8 ff ff 	mov    %rax,-0x7c0(%rbp)
    c342:	48 8d 85 60 de ff ff 	lea    -0x21a0(%rbp),%rax
    c349:	48 89 85 48 f8 ff ff 	mov    %rax,-0x7b8(%rbp)
    c350:	48 c7 85 50 f8 ff ff 	movq   $0x0,-0x7b0(%rbp)
    c357:	00 00 00 00 
    c35b:	48 8d 85 60 de ff ff 	lea    -0x21a0(%rbp),%rax
    c362:	48 89 85 58 f8 ff ff 	mov    %rax,-0x7a8(%rbp)
    c369:	48 c7 85 60 f8 ff ff 	movq   $0x0,-0x7a0(%rbp)
    c370:	00 00 00 00 
    c374:	48 8d 85 60 de ff ff 	lea    -0x21a0(%rbp),%rax
    c37b:	48 89 85 68 f8 ff ff 	mov    %rax,-0x798(%rbp)
    c382:	48 8d 85 60 de ff ff 	lea    -0x21a0(%rbp),%rax
    c389:	48 89 85 70 f8 ff ff 	mov    %rax,-0x790(%rbp)
    c390:	48 8d 85 60 de ff ff 	lea    -0x21a0(%rbp),%rax
    c397:	48 89 85 78 f8 ff ff 	mov    %rax,-0x788(%rbp)
    c39e:	48 8d 85 60 de ff ff 	lea    -0x21a0(%rbp),%rax
    c3a5:	48 89 85 80 f8 ff ff 	mov    %rax,-0x780(%rbp)
    c3ac:	48 8d 85 60 de ff ff 	lea    -0x21a0(%rbp),%rax
    c3b3:	48 89 85 88 f8 ff ff 	mov    %rax,-0x778(%rbp)
    c3ba:	48 c7 85 90 f8 ff ff 	movq   $0x0,-0x770(%rbp)
    c3c1:	00 00 00 00 
    c3c5:	48 8d 85 60 de ff ff 	lea    -0x21a0(%rbp),%rax
    c3cc:	48 89 85 98 f8 ff ff 	mov    %rax,-0x768(%rbp)
    c3d3:	48 8d 85 60 de ff ff 	lea    -0x21a0(%rbp),%rax
    c3da:	48 89 85 a0 f8 ff ff 	mov    %rax,-0x760(%rbp)
    c3e1:	48 8d 85 60 de ff ff 	lea    -0x21a0(%rbp),%rax
    c3e8:	48 89 85 a8 f8 ff ff 	mov    %rax,-0x758(%rbp)
    c3ef:	48 8d 85 60 de ff ff 	lea    -0x21a0(%rbp),%rax
    c3f6:	48 89 85 b0 f8 ff ff 	mov    %rax,-0x750(%rbp)
    c3fd:	48 8d 85 60 de ff ff 	lea    -0x21a0(%rbp),%rax
    c404:	48 89 85 b8 f8 ff ff 	mov    %rax,-0x748(%rbp)
    c40b:	48 8d 85 60 de ff ff 	lea    -0x21a0(%rbp),%rax
    c412:	48 89 85 c0 f8 ff ff 	mov    %rax,-0x740(%rbp)
    c419:	48 8d 85 60 de ff ff 	lea    -0x21a0(%rbp),%rax
    c420:	48 89 85 c8 f8 ff ff 	mov    %rax,-0x738(%rbp)
    c427:	48 8d 85 60 de ff ff 	lea    -0x21a0(%rbp),%rax
    c42e:	48 89 85 d0 f8 ff ff 	mov    %rax,-0x730(%rbp)
    c435:	48 8d 85 60 de ff ff 	lea    -0x21a0(%rbp),%rax
    c43c:	48 89 85 d8 f8 ff ff 	mov    %rax,-0x728(%rbp)
    c443:	48 c7 85 e0 f8 ff ff 	movq   $0x0,-0x720(%rbp)
    c44a:	00 00 00 00 
    c44e:	48 8d 85 60 de ff ff 	lea    -0x21a0(%rbp),%rax
    c455:	48 89 85 e8 f8 ff ff 	mov    %rax,-0x718(%rbp)
    c45c:	48 c7 85 f0 f8 ff ff 	movq   $0x0,-0x710(%rbp)
    c463:	00 00 00 00 
    c467:	48 c7 85 f8 f8 ff ff 	movq   $0x0,-0x708(%rbp)
    c46e:	00 00 00 00 
    c472:	48 8d 85 60 de ff ff 	lea    -0x21a0(%rbp),%rax
    c479:	48 89 85 00 f9 ff ff 	mov    %rax,-0x700(%rbp)
    c480:	48 c7 85 08 f9 ff ff 	movq   $0x0,-0x6f8(%rbp)
    c487:	00 00 00 00 
    c48b:	48 8d 85 60 de ff ff 	lea    -0x21a0(%rbp),%rax
    c492:	48 89 85 10 f9 ff ff 	mov    %rax,-0x6f0(%rbp)
    c499:	48 c7 85 18 f9 ff ff 	movq   $0x0,-0x6e8(%rbp)
    c4a0:	00 00 00 00 
    c4a4:	48 8d 85 60 de ff ff 	lea    -0x21a0(%rbp),%rax
    c4ab:	48 89 85 20 f9 ff ff 	mov    %rax,-0x6e0(%rbp)
    c4b2:	48 8d 85 60 de ff ff 	lea    -0x21a0(%rbp),%rax
    c4b9:	48 89 85 28 f9 ff ff 	mov    %rax,-0x6d8(%rbp)
    c4c0:	48 c7 85 30 f9 ff ff 	movq   $0x0,-0x6d0(%rbp)
    c4c7:	00 00 00 00 
    c4cb:	48 8d 85 60 de ff ff 	lea    -0x21a0(%rbp),%rax
    c4d2:	48 89 85 38 f9 ff ff 	mov    %rax,-0x6c8(%rbp)
    c4d9:	48 8d 85 60 de ff ff 	lea    -0x21a0(%rbp),%rax
    c4e0:	48 89 85 40 f9 ff ff 	mov    %rax,-0x6c0(%rbp)
    c4e7:	48 8d 85 60 de ff ff 	lea    -0x21a0(%rbp),%rax
    c4ee:	48 89 85 48 f9 ff ff 	mov    %rax,-0x6b8(%rbp)
    c4f5:	48 8d 85 60 de ff ff 	lea    -0x21a0(%rbp),%rax
    c4fc:	48 89 85 50 f9 ff ff 	mov    %rax,-0x6b0(%rbp)
    c503:	48 8d 85 60 de ff ff 	lea    -0x21a0(%rbp),%rax
    c50a:	48 89 85 58 f9 ff ff 	mov    %rax,-0x6a8(%rbp)
    c511:	48 c7 85 60 f9 ff ff 	movq   $0x0,-0x6a0(%rbp)
    c518:	00 00 00 00 
    c51c:	48 8d 85 60 de ff ff 	lea    -0x21a0(%rbp),%rax
    c523:	48 89 85 68 f9 ff ff 	mov    %rax,-0x698(%rbp)
    c52a:	48 8d 85 60 de ff ff 	lea    -0x21a0(%rbp),%rax
    c531:	48 89 85 70 f9 ff ff 	mov    %rax,-0x690(%rbp)
    c538:	48 8d 85 60 de ff ff 	lea    -0x21a0(%rbp),%rax
    c53f:	48 89 85 78 f9 ff ff 	mov    %rax,-0x688(%rbp)
    c546:	48 c7 85 80 f9 ff ff 	movq   $0x0,-0x680(%rbp)
    c54d:	00 00 00 00 
    c551:	48 8d 85 60 de ff ff 	lea    -0x21a0(%rbp),%rax
    c558:	48 89 85 88 f9 ff ff 	mov    %rax,-0x678(%rbp)
    c55f:	48 8d 85 60 de ff ff 	lea    -0x21a0(%rbp),%rax
    c566:	48 89 85 90 f9 ff ff 	mov    %rax,-0x670(%rbp)
    c56d:	48 8d 85 60 de ff ff 	lea    -0x21a0(%rbp),%rax
    c574:	48 89 85 98 f9 ff ff 	mov    %rax,-0x668(%rbp)
    c57b:	48 8d 85 60 de ff ff 	lea    -0x21a0(%rbp),%rax
    c582:	48 89 85 a0 f9 ff ff 	mov    %rax,-0x660(%rbp)
    c589:	48 8d 85 60 de ff ff 	lea    -0x21a0(%rbp),%rax
    c590:	48 89 85 a8 f9 ff ff 	mov    %rax,-0x658(%rbp)
    c597:	48 8d 85 60 de ff ff 	lea    -0x21a0(%rbp),%rax
    c59e:	48 89 85 b0 f9 ff ff 	mov    %rax,-0x650(%rbp)
    c5a5:	48 8d 85 60 de ff ff 	lea    -0x21a0(%rbp),%rax
    c5ac:	48 89 85 b8 f9 ff ff 	mov    %rax,-0x648(%rbp)
    c5b3:	48 8d 85 60 de ff ff 	lea    -0x21a0(%rbp),%rax
    c5ba:	48 89 85 c0 f9 ff ff 	mov    %rax,-0x640(%rbp)
    c5c1:	48 8d 85 60 de ff ff 	lea    -0x21a0(%rbp),%rax
    c5c8:	48 89 85 c8 f9 ff ff 	mov    %rax,-0x638(%rbp)
    c5cf:	48 8d 85 60 de ff ff 	lea    -0x21a0(%rbp),%rax
    c5d6:	48 89 85 d0 f9 ff ff 	mov    %rax,-0x630(%rbp)
    c5dd:	48 8d 85 60 de ff ff 	lea    -0x21a0(%rbp),%rax
    c5e4:	48 89 85 d8 f9 ff ff 	mov    %rax,-0x628(%rbp)
    c5eb:	48 c7 85 e0 f9 ff ff 	movq   $0x0,-0x620(%rbp)
    c5f2:	00 00 00 00 
    c5f6:	48 8d 85 60 de ff ff 	lea    -0x21a0(%rbp),%rax
    c5fd:	48 89 85 e8 f9 ff ff 	mov    %rax,-0x618(%rbp)
    c604:	48 8d 85 60 de ff ff 	lea    -0x21a0(%rbp),%rax
    c60b:	48 89 85 f0 f9 ff ff 	mov    %rax,-0x610(%rbp)
    c612:	48 8d 85 60 de ff ff 	lea    -0x21a0(%rbp),%rax
    c619:	48 89 85 f8 f9 ff ff 	mov    %rax,-0x608(%rbp)
    c620:	48 c7 85 00 fa ff ff 	movq   $0x0,-0x600(%rbp)
    c627:	00 00 00 00 
    c62b:	48 8d 85 60 de ff ff 	lea    -0x21a0(%rbp),%rax
    c632:	48 89 85 08 fa ff ff 	mov    %rax,-0x5f8(%rbp)
    c639:	48 8d 85 60 de ff ff 	lea    -0x21a0(%rbp),%rax
    c640:	48 89 85 10 fa ff ff 	mov    %rax,-0x5f0(%rbp)
    c647:	48 8d 85 60 de ff ff 	lea    -0x21a0(%rbp),%rax
    c64e:	48 89 85 18 fa ff ff 	mov    %rax,-0x5e8(%rbp)
    c655:	48 8d 85 60 de ff ff 	lea    -0x21a0(%rbp),%rax
    c65c:	48 89 85 20 fa ff ff 	mov    %rax,-0x5e0(%rbp)
    c663:	48 8d 85 60 de ff ff 	lea    -0x21a0(%rbp),%rax
    c66a:	48 89 85 28 fa ff ff 	mov    %rax,-0x5d8(%rbp)
    c671:	48 c7 85 30 fa ff ff 	movq   $0x0,-0x5d0(%rbp)
    c678:	00 00 00 00 
    c67c:	48 c7 85 38 fa ff ff 	movq   $0x0,-0x5c8(%rbp)
    c683:	00 00 00 00 
    c687:	48 8d 85 60 de ff ff 	lea    -0x21a0(%rbp),%rax
    c68e:	48 89 85 40 fa ff ff 	mov    %rax,-0x5c0(%rbp)
    c695:	48 8d 85 60 de ff ff 	lea    -0x21a0(%rbp),%rax
    c69c:	48 89 85 48 fa ff ff 	mov    %rax,-0x5b8(%rbp)
    c6a3:	48 8d 85 60 de ff ff 	lea    -0x21a0(%rbp),%rax
    c6aa:	48 89 85 50 fa ff ff 	mov    %rax,-0x5b0(%rbp)
    c6b1:	48 c7 85 58 fa ff ff 	movq   $0x0,-0x5a8(%rbp)
    c6b8:	00 00 00 00 
    c6bc:	48 8d 85 60 de ff ff 	lea    -0x21a0(%rbp),%rax
    c6c3:	48 89 85 60 fa ff ff 	mov    %rax,-0x5a0(%rbp)
    c6ca:	48 8d 85 60 de ff ff 	lea    -0x21a0(%rbp),%rax
    c6d1:	48 89 85 68 fa ff ff 	mov    %rax,-0x598(%rbp)
    c6d8:	48 8d 85 60 de ff ff 	lea    -0x21a0(%rbp),%rax
    c6df:	48 89 85 70 fa ff ff 	mov    %rax,-0x590(%rbp)
    c6e6:	48 8d 85 60 de ff ff 	lea    -0x21a0(%rbp),%rax
    c6ed:	48 89 85 78 fa ff ff 	mov    %rax,-0x588(%rbp)
    c6f4:	48 8d 85 60 de ff ff 	lea    -0x21a0(%rbp),%rax
    c6fb:	48 89 85 80 fa ff ff 	mov    %rax,-0x580(%rbp)
    c702:	48 8d 85 60 de ff ff 	lea    -0x21a0(%rbp),%rax
    c709:	48 89 85 88 fa ff ff 	mov    %rax,-0x578(%rbp)
    c710:	48 8d 85 60 de ff ff 	lea    -0x21a0(%rbp),%rax
    c717:	48 89 85 90 fa ff ff 	mov    %rax,-0x570(%rbp)
    c71e:	48 8d 85 60 de ff ff 	lea    -0x21a0(%rbp),%rax
    c725:	48 89 85 98 fa ff ff 	mov    %rax,-0x568(%rbp)
    c72c:	48 8d 85 60 de ff ff 	lea    -0x21a0(%rbp),%rax
    c733:	48 89 85 a0 fa ff ff 	mov    %rax,-0x560(%rbp)
    c73a:	48 8d 85 60 de ff ff 	lea    -0x21a0(%rbp),%rax
    c741:	48 89 85 a8 fa ff ff 	mov    %rax,-0x558(%rbp)
    c748:	48 8d 85 60 de ff ff 	lea    -0x21a0(%rbp),%rax
    c74f:	48 89 85 b0 fa ff ff 	mov    %rax,-0x550(%rbp)
    c756:	48 8d 85 60 de ff ff 	lea    -0x21a0(%rbp),%rax
    c75d:	48 89 85 b8 fa ff ff 	mov    %rax,-0x548(%rbp)
    c764:	48 8d 85 60 de ff ff 	lea    -0x21a0(%rbp),%rax
    c76b:	48 89 85 c0 fa ff ff 	mov    %rax,-0x540(%rbp)
    c772:	48 8d 85 60 de ff ff 	lea    -0x21a0(%rbp),%rax
    c779:	48 89 85 c8 fa ff ff 	mov    %rax,-0x538(%rbp)
    c780:	48 c7 85 d0 fa ff ff 	movq   $0x0,-0x530(%rbp)
    c787:	00 00 00 00 
    c78b:	48 8d 85 60 de ff ff 	lea    -0x21a0(%rbp),%rax
    c792:	48 89 85 d8 fa ff ff 	mov    %rax,-0x528(%rbp)
    c799:	48 8d 85 60 de ff ff 	lea    -0x21a0(%rbp),%rax
    c7a0:	48 89 85 e0 fa ff ff 	mov    %rax,-0x520(%rbp)
    c7a7:	48 8d 85 60 de ff ff 	lea    -0x21a0(%rbp),%rax
    c7ae:	48 89 85 e8 fa ff ff 	mov    %rax,-0x518(%rbp)
    c7b5:	48 8d 85 60 de ff ff 	lea    -0x21a0(%rbp),%rax
    c7bc:	48 89 85 f0 fa ff ff 	mov    %rax,-0x510(%rbp)
    c7c3:	48 c7 85 f8 fa ff ff 	movq   $0x0,-0x508(%rbp)
    c7ca:	00 00 00 00 
    c7ce:	48 8d 85 60 de ff ff 	lea    -0x21a0(%rbp),%rax
    c7d5:	48 89 85 00 fb ff ff 	mov    %rax,-0x500(%rbp)
    c7dc:	48 8d 85 60 de ff ff 	lea    -0x21a0(%rbp),%rax
    c7e3:	48 89 85 08 fb ff ff 	mov    %rax,-0x4f8(%rbp)
    c7ea:	48 8d 85 60 de ff ff 	lea    -0x21a0(%rbp),%rax
    c7f1:	48 89 85 10 fb ff ff 	mov    %rax,-0x4f0(%rbp)
    c7f8:	48 8d 85 60 de ff ff 	lea    -0x21a0(%rbp),%rax
    c7ff:	48 89 85 18 fb ff ff 	mov    %rax,-0x4e8(%rbp)
    c806:	48 8d 85 60 de ff ff 	lea    -0x21a0(%rbp),%rax
    c80d:	48 89 85 20 fb ff ff 	mov    %rax,-0x4e0(%rbp)
    c814:	48 8d 85 60 de ff ff 	lea    -0x21a0(%rbp),%rax
    c81b:	48 89 85 28 fb ff ff 	mov    %rax,-0x4d8(%rbp)
    c822:	48 8d 85 60 de ff ff 	lea    -0x21a0(%rbp),%rax
    c829:	48 89 85 30 fb ff ff 	mov    %rax,-0x4d0(%rbp)
    c830:	48 8d 85 60 de ff ff 	lea    -0x21a0(%rbp),%rax
    c837:	48 89 85 38 fb ff ff 	mov    %rax,-0x4c8(%rbp)
    c83e:	48 8d 85 60 de ff ff 	lea    -0x21a0(%rbp),%rax
    c845:	48 89 85 40 fb ff ff 	mov    %rax,-0x4c0(%rbp)
    c84c:	48 8d 85 60 de ff ff 	lea    -0x21a0(%rbp),%rax
    c853:	48 89 85 48 fb ff ff 	mov    %rax,-0x4b8(%rbp)
    c85a:	48 c7 85 50 fb ff ff 	movq   $0x0,-0x4b0(%rbp)
    c861:	00 00 00 00 
    c865:	48 8d 85 60 de ff ff 	lea    -0x21a0(%rbp),%rax
    c86c:	48 89 85 58 fb ff ff 	mov    %rax,-0x4a8(%rbp)
    c873:	48 8d 85 60 de ff ff 	lea    -0x21a0(%rbp),%rax
    c87a:	48 89 85 60 fb ff ff 	mov    %rax,-0x4a0(%rbp)
    c881:	48 8d 85 60 de ff ff 	lea    -0x21a0(%rbp),%rax
    c888:	48 89 85 68 fb ff ff 	mov    %rax,-0x498(%rbp)
    c88f:	48 8d 85 60 de ff ff 	lea    -0x21a0(%rbp),%rax
    c896:	48 89 85 70 fb ff ff 	mov    %rax,-0x490(%rbp)
    c89d:	48 8d 85 60 de ff ff 	lea    -0x21a0(%rbp),%rax
    c8a4:	48 89 85 78 fb ff ff 	mov    %rax,-0x488(%rbp)
    c8ab:	48 8d 85 60 de ff ff 	lea    -0x21a0(%rbp),%rax
    c8b2:	48 89 85 80 fb ff ff 	mov    %rax,-0x480(%rbp)
    c8b9:	48 8d 85 60 de ff ff 	lea    -0x21a0(%rbp),%rax
    c8c0:	48 89 85 88 fb ff ff 	mov    %rax,-0x478(%rbp)
    c8c7:	48 8d 85 60 de ff ff 	lea    -0x21a0(%rbp),%rax
    c8ce:	48 89 85 90 fb ff ff 	mov    %rax,-0x470(%rbp)
    c8d5:	48 8d 85 60 de ff ff 	lea    -0x21a0(%rbp),%rax
    c8dc:	48 89 85 98 fb ff ff 	mov    %rax,-0x468(%rbp)
    c8e3:	48 8d 85 60 de ff ff 	lea    -0x21a0(%rbp),%rax
    c8ea:	48 89 85 a0 fb ff ff 	mov    %rax,-0x460(%rbp)
    c8f1:	48 8d 85 60 de ff ff 	lea    -0x21a0(%rbp),%rax
    c8f8:	48 89 85 a8 fb ff ff 	mov    %rax,-0x458(%rbp)
    c8ff:	48 8d 85 60 de ff ff 	lea    -0x21a0(%rbp),%rax
    c906:	48 89 85 b0 fb ff ff 	mov    %rax,-0x450(%rbp)
    c90d:	48 8d 85 60 de ff ff 	lea    -0x21a0(%rbp),%rax
    c914:	48 89 85 b8 fb ff ff 	mov    %rax,-0x448(%rbp)
    c91b:	48 8d 85 60 de ff ff 	lea    -0x21a0(%rbp),%rax
    c922:	48 89 85 c0 fb ff ff 	mov    %rax,-0x440(%rbp)
    c929:	48 8d 85 60 de ff ff 	lea    -0x21a0(%rbp),%rax
    c930:	48 89 85 c8 fb ff ff 	mov    %rax,-0x438(%rbp)
    c937:	48 8d 85 60 de ff ff 	lea    -0x21a0(%rbp),%rax
    c93e:	48 89 85 d0 fb ff ff 	mov    %rax,-0x430(%rbp)
    c945:	48 8d 85 60 de ff ff 	lea    -0x21a0(%rbp),%rax
    c94c:	48 89 85 d8 fb ff ff 	mov    %rax,-0x428(%rbp)
    c953:	48 8d 85 60 de ff ff 	lea    -0x21a0(%rbp),%rax
    c95a:	48 89 85 e0 fb ff ff 	mov    %rax,-0x420(%rbp)
    c961:	48 8d 85 60 de ff ff 	lea    -0x21a0(%rbp),%rax
    c968:	48 89 85 e8 fb ff ff 	mov    %rax,-0x418(%rbp)
    c96f:	48 c7 85 f0 fb ff ff 	movq   $0x0,-0x410(%rbp)
    c976:	00 00 00 00 
    c97a:	48 8d 85 60 de ff ff 	lea    -0x21a0(%rbp),%rax
    c981:	48 89 85 f8 fb ff ff 	mov    %rax,-0x408(%rbp)
    c988:	48 8d 85 60 de ff ff 	lea    -0x21a0(%rbp),%rax
    c98f:	48 89 85 00 fc ff ff 	mov    %rax,-0x400(%rbp)
    c996:	48 8d 85 60 de ff ff 	lea    -0x21a0(%rbp),%rax
    c99d:	48 89 85 08 fc ff ff 	mov    %rax,-0x3f8(%rbp)
    c9a4:	48 8d 85 60 de ff ff 	lea    -0x21a0(%rbp),%rax
    c9ab:	48 89 85 10 fc ff ff 	mov    %rax,-0x3f0(%rbp)
    c9b2:	48 c7 85 18 fc ff ff 	movq   $0x0,-0x3e8(%rbp)
    c9b9:	00 00 00 00 
    c9bd:	48 8d 85 60 de ff ff 	lea    -0x21a0(%rbp),%rax
    c9c4:	48 89 85 20 fc ff ff 	mov    %rax,-0x3e0(%rbp)
    c9cb:	48 8d 85 60 de ff ff 	lea    -0x21a0(%rbp),%rax
    c9d2:	48 89 85 28 fc ff ff 	mov    %rax,-0x3d8(%rbp)
    c9d9:	48 8d 85 60 de ff ff 	lea    -0x21a0(%rbp),%rax
    c9e0:	48 89 85 30 fc ff ff 	mov    %rax,-0x3d0(%rbp)
    c9e7:	48 8d 85 60 de ff ff 	lea    -0x21a0(%rbp),%rax
    c9ee:	48 89 85 38 fc ff ff 	mov    %rax,-0x3c8(%rbp)
    c9f5:	48 8d 85 60 de ff ff 	lea    -0x21a0(%rbp),%rax
    c9fc:	48 89 85 40 fc ff ff 	mov    %rax,-0x3c0(%rbp)
    ca03:	48 8d 85 60 de ff ff 	lea    -0x21a0(%rbp),%rax
    ca0a:	48 89 85 48 fc ff ff 	mov    %rax,-0x3b8(%rbp)
    ca11:	48 8d 85 60 de ff ff 	lea    -0x21a0(%rbp),%rax
    ca18:	48 89 85 50 fc ff ff 	mov    %rax,-0x3b0(%rbp)
    ca1f:	48 8d 85 60 de ff ff 	lea    -0x21a0(%rbp),%rax
    ca26:	48 89 85 58 fc ff ff 	mov    %rax,-0x3a8(%rbp)
    ca2d:	48 8d 85 60 de ff ff 	lea    -0x21a0(%rbp),%rax
    ca34:	48 89 85 60 fc ff ff 	mov    %rax,-0x3a0(%rbp)
    ca3b:	48 8d 85 60 de ff ff 	lea    -0x21a0(%rbp),%rax
    ca42:	48 89 85 68 fc ff ff 	mov    %rax,-0x398(%rbp)
    ca49:	48 8d 85 60 de ff ff 	lea    -0x21a0(%rbp),%rax
    ca50:	48 89 85 70 fc ff ff 	mov    %rax,-0x390(%rbp)
    ca57:	48 c7 85 78 fc ff ff 	movq   $0x0,-0x388(%rbp)
    ca5e:	00 00 00 00 
    ca62:	48 8d 85 60 de ff ff 	lea    -0x21a0(%rbp),%rax
    ca69:	48 89 85 80 fc ff ff 	mov    %rax,-0x380(%rbp)
    ca70:	48 8d 85 60 de ff ff 	lea    -0x21a0(%rbp),%rax
    ca77:	48 89 85 88 fc ff ff 	mov    %rax,-0x378(%rbp)
    ca7e:	48 8d 85 60 de ff ff 	lea    -0x21a0(%rbp),%rax
    ca85:	48 89 85 90 fc ff ff 	mov    %rax,-0x370(%rbp)
    ca8c:	48 c7 85 98 fc ff ff 	movq   $0x0,-0x368(%rbp)
    ca93:	00 00 00 00 
    ca97:	48 8d 85 60 de ff ff 	lea    -0x21a0(%rbp),%rax
    ca9e:	48 89 85 a0 fc ff ff 	mov    %rax,-0x360(%rbp)
    caa5:	48 c7 85 a8 fc ff ff 	movq   $0x0,-0x358(%rbp)
    caac:	00 00 00 00 
    cab0:	48 8d 85 60 de ff ff 	lea    -0x21a0(%rbp),%rax
    cab7:	48 89 85 b0 fc ff ff 	mov    %rax,-0x350(%rbp)
    cabe:	48 8d 85 60 de ff ff 	lea    -0x21a0(%rbp),%rax
    cac5:	48 89 85 b8 fc ff ff 	mov    %rax,-0x348(%rbp)
    cacc:	48 8d 85 60 de ff ff 	lea    -0x21a0(%rbp),%rax
    cad3:	48 89 85 c0 fc ff ff 	mov    %rax,-0x340(%rbp)
    cada:	48 8d 85 60 de ff ff 	lea    -0x21a0(%rbp),%rax
    cae1:	48 89 85 c8 fc ff ff 	mov    %rax,-0x338(%rbp)
    cae8:	48 8d 85 60 de ff ff 	lea    -0x21a0(%rbp),%rax
    caef:	48 89 85 d0 fc ff ff 	mov    %rax,-0x330(%rbp)
    caf6:	48 8d 85 60 de ff ff 	lea    -0x21a0(%rbp),%rax
    cafd:	48 89 85 d8 fc ff ff 	mov    %rax,-0x328(%rbp)
    cb04:	48 c7 85 e0 fc ff ff 	movq   $0x0,-0x320(%rbp)
    cb0b:	00 00 00 00 
    cb0f:	48 8d 85 60 de ff ff 	lea    -0x21a0(%rbp),%rax
    cb16:	48 89 85 e8 fc ff ff 	mov    %rax,-0x318(%rbp)
    cb1d:	48 8d 85 60 de ff ff 	lea    -0x21a0(%rbp),%rax
    cb24:	48 89 85 f0 fc ff ff 	mov    %rax,-0x310(%rbp)
    cb2b:	48 8d 85 60 de ff ff 	lea    -0x21a0(%rbp),%rax
    cb32:	48 89 85 f8 fc ff ff 	mov    %rax,-0x308(%rbp)
    cb39:	48 8d 85 60 de ff ff 	lea    -0x21a0(%rbp),%rax
    cb40:	48 89 85 00 fd ff ff 	mov    %rax,-0x300(%rbp)
    cb47:	48 8d 85 60 de ff ff 	lea    -0x21a0(%rbp),%rax
    cb4e:	48 89 85 08 fd ff ff 	mov    %rax,-0x2f8(%rbp)
    cb55:	48 8d 85 60 de ff ff 	lea    -0x21a0(%rbp),%rax
    cb5c:	48 89 85 10 fd ff ff 	mov    %rax,-0x2f0(%rbp)
    cb63:	48 c7 85 18 fd ff ff 	movq   $0x0,-0x2e8(%rbp)
    cb6a:	00 00 00 00 
    cb6e:	48 8d 85 60 de ff ff 	lea    -0x21a0(%rbp),%rax
    cb75:	48 89 85 20 fd ff ff 	mov    %rax,-0x2e0(%rbp)
    cb7c:	48 8d 85 60 de ff ff 	lea    -0x21a0(%rbp),%rax
    cb83:	48 89 85 28 fd ff ff 	mov    %rax,-0x2d8(%rbp)
    cb8a:	48 8d 85 60 de ff ff 	lea    -0x21a0(%rbp),%rax
    cb91:	48 89 85 30 fd ff ff 	mov    %rax,-0x2d0(%rbp)
    cb98:	48 8d 85 60 de ff ff 	lea    -0x21a0(%rbp),%rax
    cb9f:	48 89 85 38 fd ff ff 	mov    %rax,-0x2c8(%rbp)
    cba6:	48 8d 85 60 de ff ff 	lea    -0x21a0(%rbp),%rax
    cbad:	48 89 85 40 fd ff ff 	mov    %rax,-0x2c0(%rbp)
    cbb4:	48 8d 85 60 de ff ff 	lea    -0x21a0(%rbp),%rax
    cbbb:	48 89 85 48 fd ff ff 	mov    %rax,-0x2b8(%rbp)
    cbc2:	48 8d 85 60 de ff ff 	lea    -0x21a0(%rbp),%rax
    cbc9:	48 89 85 50 fd ff ff 	mov    %rax,-0x2b0(%rbp)
    cbd0:	48 8d 85 60 de ff ff 	lea    -0x21a0(%rbp),%rax
    cbd7:	48 89 85 58 fd ff ff 	mov    %rax,-0x2a8(%rbp)
    cbde:	48 c7 85 60 fd ff ff 	movq   $0x0,-0x2a0(%rbp)
    cbe5:	00 00 00 00 
    cbe9:	48 8d 85 60 de ff ff 	lea    -0x21a0(%rbp),%rax
    cbf0:	48 89 85 68 fd ff ff 	mov    %rax,-0x298(%rbp)
    cbf7:	48 8d 85 60 de ff ff 	lea    -0x21a0(%rbp),%rax
    cbfe:	48 89 85 70 fd ff ff 	mov    %rax,-0x290(%rbp)
    cc05:	48 8d 85 60 de ff ff 	lea    -0x21a0(%rbp),%rax
    cc0c:	48 89 85 78 fd ff ff 	mov    %rax,-0x288(%rbp)
    cc13:	48 8d 85 60 de ff ff 	lea    -0x21a0(%rbp),%rax
    cc1a:	48 89 85 80 fd ff ff 	mov    %rax,-0x280(%rbp)
    cc21:	48 c7 85 88 fd ff ff 	movq   $0x0,-0x278(%rbp)
    cc28:	00 00 00 00 
    cc2c:	48 8d 85 60 de ff ff 	lea    -0x21a0(%rbp),%rax
    cc33:	48 89 85 90 fd ff ff 	mov    %rax,-0x270(%rbp)
    cc3a:	48 c7 85 98 fd ff ff 	movq   $0x0,-0x268(%rbp)
    cc41:	00 00 00 00 
    cc45:	48 8d 85 60 de ff ff 	lea    -0x21a0(%rbp),%rax
    cc4c:	48 89 85 a0 fd ff ff 	mov    %rax,-0x260(%rbp)
    cc53:	48 8d 85 60 de ff ff 	lea    -0x21a0(%rbp),%rax
    cc5a:	48 89 85 a8 fd ff ff 	mov    %rax,-0x258(%rbp)
    cc61:	48 8d 85 60 de ff ff 	lea    -0x21a0(%rbp),%rax
    cc68:	48 89 85 b0 fd ff ff 	mov    %rax,-0x250(%rbp)
    cc6f:	48 c7 85 b8 fd ff ff 	movq   $0x0,-0x248(%rbp)
    cc76:	00 00 00 00 
    cc7a:	48 8d 85 60 de ff ff 	lea    -0x21a0(%rbp),%rax
    cc81:	48 89 85 c0 fd ff ff 	mov    %rax,-0x240(%rbp)
    cc88:	48 8d 85 60 de ff ff 	lea    -0x21a0(%rbp),%rax
    cc8f:	48 89 85 c8 fd ff ff 	mov    %rax,-0x238(%rbp)
    cc96:	48 8d 85 60 de ff ff 	lea    -0x21a0(%rbp),%rax
    cc9d:	48 89 85 d0 fd ff ff 	mov    %rax,-0x230(%rbp)
    cca4:	48 8d 85 60 de ff ff 	lea    -0x21a0(%rbp),%rax
    ccab:	48 89 85 d8 fd ff ff 	mov    %rax,-0x228(%rbp)
    ccb2:	48 8d 85 60 de ff ff 	lea    -0x21a0(%rbp),%rax
    ccb9:	48 89 85 e0 fd ff ff 	mov    %rax,-0x220(%rbp)
    ccc0:	48 8d 85 60 de ff ff 	lea    -0x21a0(%rbp),%rax
    ccc7:	48 89 85 e8 fd ff ff 	mov    %rax,-0x218(%rbp)
    ccce:	48 8d 85 60 de ff ff 	lea    -0x21a0(%rbp),%rax
    ccd5:	48 89 85 f0 fd ff ff 	mov    %rax,-0x210(%rbp)
    ccdc:	48 8d 85 60 de ff ff 	lea    -0x21a0(%rbp),%rax
    cce3:	48 89 85 f8 fd ff ff 	mov    %rax,-0x208(%rbp)
    ccea:	48 8d 85 60 de ff ff 	lea    -0x21a0(%rbp),%rax
    ccf1:	48 89 85 00 fe ff ff 	mov    %rax,-0x200(%rbp)
    ccf8:	48 8d 85 60 de ff ff 	lea    -0x21a0(%rbp),%rax
    ccff:	48 89 85 08 fe ff ff 	mov    %rax,-0x1f8(%rbp)
    cd06:	48 8d 85 60 de ff ff 	lea    -0x21a0(%rbp),%rax
    cd0d:	48 89 85 10 fe ff ff 	mov    %rax,-0x1f0(%rbp)
    cd14:	48 c7 85 18 fe ff ff 	movq   $0x0,-0x1e8(%rbp)
    cd1b:	00 00 00 00 
    cd1f:	48 c7 85 20 fe ff ff 	movq   $0x0,-0x1e0(%rbp)
    cd26:	00 00 00 00 
    cd2a:	48 8d 85 60 de ff ff 	lea    -0x21a0(%rbp),%rax
    cd31:	48 89 85 28 fe ff ff 	mov    %rax,-0x1d8(%rbp)
    cd38:	48 8d 85 60 de ff ff 	lea    -0x21a0(%rbp),%rax
    cd3f:	48 89 85 30 fe ff ff 	mov    %rax,-0x1d0(%rbp)
    cd46:	48 c7 85 38 fe ff ff 	movq   $0x0,-0x1c8(%rbp)
    cd4d:	00 00 00 00 
    cd51:	48 8d 85 60 de ff ff 	lea    -0x21a0(%rbp),%rax
    cd58:	48 89 85 40 fe ff ff 	mov    %rax,-0x1c0(%rbp)
    cd5f:	48 8d 85 60 de ff ff 	lea    -0x21a0(%rbp),%rax
    cd66:	48 89 85 48 fe ff ff 	mov    %rax,-0x1b8(%rbp)
    cd6d:	48 c7 85 50 fe ff ff 	movq   $0x0,-0x1b0(%rbp)
    cd74:	00 00 00 00 
    cd78:	48 8d 85 60 de ff ff 	lea    -0x21a0(%rbp),%rax
    cd7f:	48 89 85 58 fe ff ff 	mov    %rax,-0x1a8(%rbp)
    cd86:	48 8d 85 60 de ff ff 	lea    -0x21a0(%rbp),%rax
    cd8d:	48 89 85 60 fe ff ff 	mov    %rax,-0x1a0(%rbp)
    cd94:	48 8d 85 60 de ff ff 	lea    -0x21a0(%rbp),%rax
    cd9b:	48 89 85 68 fe ff ff 	mov    %rax,-0x198(%rbp)
    cda2:	48 8d 85 60 de ff ff 	lea    -0x21a0(%rbp),%rax
    cda9:	48 89 85 70 fe ff ff 	mov    %rax,-0x190(%rbp)
    cdb0:	48 8d 85 60 de ff ff 	lea    -0x21a0(%rbp),%rax
    cdb7:	48 89 85 78 fe ff ff 	mov    %rax,-0x188(%rbp)
    cdbe:	48 c7 85 80 fe ff ff 	movq   $0x0,-0x180(%rbp)
    cdc5:	00 00 00 00 
    cdc9:	48 8d 85 60 de ff ff 	lea    -0x21a0(%rbp),%rax
    cdd0:	48 89 85 88 fe ff ff 	mov    %rax,-0x178(%rbp)
    cdd7:	48 8d 85 60 de ff ff 	lea    -0x21a0(%rbp),%rax
    cdde:	48 89 85 90 fe ff ff 	mov    %rax,-0x170(%rbp)
    cde5:	48 8d 85 60 de ff ff 	lea    -0x21a0(%rbp),%rax
    cdec:	48 89 85 98 fe ff ff 	mov    %rax,-0x168(%rbp)
    cdf3:	48 8d 85 60 de ff ff 	lea    -0x21a0(%rbp),%rax
    cdfa:	48 89 85 a0 fe ff ff 	mov    %rax,-0x160(%rbp)
    ce01:	48 8d 85 60 de ff ff 	lea    -0x21a0(%rbp),%rax
    ce08:	48 89 85 a8 fe ff ff 	mov    %rax,-0x158(%rbp)
    ce0f:	48 8d 85 60 de ff ff 	lea    -0x21a0(%rbp),%rax
    ce16:	48 89 85 b0 fe ff ff 	mov    %rax,-0x150(%rbp)
    ce1d:	48 c7 85 b8 fe ff ff 	movq   $0x0,-0x148(%rbp)
    ce24:	00 00 00 00 
    ce28:	48 8d 85 60 de ff ff 	lea    -0x21a0(%rbp),%rax
    ce2f:	48 89 85 c0 fe ff ff 	mov    %rax,-0x140(%rbp)
    ce36:	48 c7 85 c8 fe ff ff 	movq   $0x0,-0x138(%rbp)
    ce3d:	00 00 00 00 
    ce41:	48 8d 85 60 de ff ff 	lea    -0x21a0(%rbp),%rax
    ce48:	48 89 85 d0 fe ff ff 	mov    %rax,-0x130(%rbp)
    ce4f:	48 8d 85 60 de ff ff 	lea    -0x21a0(%rbp),%rax
    ce56:	48 89 85 d8 fe ff ff 	mov    %rax,-0x128(%rbp)
    ce5d:	48 8d 85 60 de ff ff 	lea    -0x21a0(%rbp),%rax
    ce64:	48 89 85 e0 fe ff ff 	mov    %rax,-0x120(%rbp)
    ce6b:	48 8d 85 60 de ff ff 	lea    -0x21a0(%rbp),%rax
    ce72:	48 89 85 e8 fe ff ff 	mov    %rax,-0x118(%rbp)
    ce79:	48 8d 85 60 de ff ff 	lea    -0x21a0(%rbp),%rax
    ce80:	48 89 85 f0 fe ff ff 	mov    %rax,-0x110(%rbp)
    ce87:	48 8d 85 60 de ff ff 	lea    -0x21a0(%rbp),%rax
    ce8e:	48 89 85 f8 fe ff ff 	mov    %rax,-0x108(%rbp)
    ce95:	48 c7 85 00 ff ff ff 	movq   $0x0,-0x100(%rbp)
    ce9c:	00 00 00 00 
    cea0:	48 8d 85 60 de ff ff 	lea    -0x21a0(%rbp),%rax
    cea7:	48 89 85 08 ff ff ff 	mov    %rax,-0xf8(%rbp)
    ceae:	48 8d 85 60 de ff ff 	lea    -0x21a0(%rbp),%rax
    ceb5:	48 89 85 10 ff ff ff 	mov    %rax,-0xf0(%rbp)
    cebc:	48 8d 85 60 de ff ff 	lea    -0x21a0(%rbp),%rax
    cec3:	48 89 85 18 ff ff ff 	mov    %rax,-0xe8(%rbp)
    ceca:	48 8d 85 60 de ff ff 	lea    -0x21a0(%rbp),%rax
    ced1:	48 89 85 20 ff ff ff 	mov    %rax,-0xe0(%rbp)
    ced8:	48 c7 85 28 ff ff ff 	movq   $0x0,-0xd8(%rbp)
    cedf:	00 00 00 00 
    cee3:	48 8d 85 60 de ff ff 	lea    -0x21a0(%rbp),%rax
    ceea:	48 89 85 30 ff ff ff 	mov    %rax,-0xd0(%rbp)
    cef1:	48 8d 85 60 de ff ff 	lea    -0x21a0(%rbp),%rax
    cef8:	48 89 85 38 ff ff ff 	mov    %rax,-0xc8(%rbp)
    ceff:	48 c7 85 40 ff ff ff 	movq   $0x0,-0xc0(%rbp)
    cf06:	00 00 00 00 
    cf0a:	48 8d 85 60 de ff ff 	lea    -0x21a0(%rbp),%rax
    cf11:	48 89 85 48 ff ff ff 	mov    %rax,-0xb8(%rbp)
    cf18:	48 8d 85 60 de ff ff 	lea    -0x21a0(%rbp),%rax
    cf1f:	48 89 85 50 ff ff ff 	mov    %rax,-0xb0(%rbp)
    cf26:	48 c7 85 58 ff ff ff 	movq   $0x0,-0xa8(%rbp)
    cf2d:	00 00 00 00 
    cf31:	48 8d 85 60 de ff ff 	lea    -0x21a0(%rbp),%rax
    cf38:	48 89 85 60 ff ff ff 	mov    %rax,-0xa0(%rbp)
    cf3f:	48 8d 85 60 de ff ff 	lea    -0x21a0(%rbp),%rax
    cf46:	48 89 85 68 ff ff ff 	mov    %rax,-0x98(%rbp)
    cf4d:	48 8d 85 60 de ff ff 	lea    -0x21a0(%rbp),%rax
    cf54:	48 89 85 70 ff ff ff 	mov    %rax,-0x90(%rbp)
    cf5b:	48 8d 85 60 de ff ff 	lea    -0x21a0(%rbp),%rax
    cf62:	48 89 85 78 ff ff ff 	mov    %rax,-0x88(%rbp)
    cf69:	48 8d 85 60 de ff ff 	lea    -0x21a0(%rbp),%rax
    cf70:	48 89 45 80          	mov    %rax,-0x80(%rbp)
    cf74:	48 8d 85 60 de ff ff 	lea    -0x21a0(%rbp),%rax
    cf7b:	48 89 45 88          	mov    %rax,-0x78(%rbp)
    cf7f:	48 8d 85 60 de ff ff 	lea    -0x21a0(%rbp),%rax
    cf86:	48 89 45 90          	mov    %rax,-0x70(%rbp)
    cf8a:	48 8d 85 60 de ff ff 	lea    -0x21a0(%rbp),%rax
    cf91:	48 89 45 98          	mov    %rax,-0x68(%rbp)
    cf95:	48 8d 85 60 de ff ff 	lea    -0x21a0(%rbp),%rax
    cf9c:	48 89 45 a0          	mov    %rax,-0x60(%rbp)
    cfa0:	48 8d 85 60 de ff ff 	lea    -0x21a0(%rbp),%rax
    cfa7:	48 89 45 a8          	mov    %rax,-0x58(%rbp)
    cfab:	48 8d 85 60 de ff ff 	lea    -0x21a0(%rbp),%rax
    cfb2:	48 89 45 b0          	mov    %rax,-0x50(%rbp)
    cfb6:	48 8d 85 60 de ff ff 	lea    -0x21a0(%rbp),%rax
    cfbd:	48 89 45 b8          	mov    %rax,-0x48(%rbp)
    cfc1:	48 c7 45 c0 00 00 00 	movq   $0x0,-0x40(%rbp)
    cfc8:	00 
    cfc9:	48 8d 85 60 de ff ff 	lea    -0x21a0(%rbp),%rax
    cfd0:	48 89 45 c8          	mov    %rax,-0x38(%rbp)
    cfd4:	c7 85 f8 dd ff ff 01 	movl   $0x1,-0x2208(%rbp)
    cfdb:	00 00 00 
    cfde:	c7 85 50 e0 ff ff e3 	movl   $0xb827f0e3,-0x1fb0(%rbp)
    cfe5:	f0 27 b8 
    cfe8:	c7 85 54 e0 ff ff e3 	movl   $0xb827f0e3,-0x1fac(%rbp)
    cfef:	f0 27 b8 
    cff2:	c7 85 58 e0 ff ff e3 	movl   $0xb827f0e3,-0x1fa8(%rbp)
    cff9:	f0 27 b8 
    cffc:	c7 85 5c e0 ff ff e3 	movl   $0xb827f0e3,-0x1fa4(%rbp)
    d003:	f0 27 b8 
    d006:	c7 85 60 e0 ff ff e3 	movl   $0xb827f0e3,-0x1fa0(%rbp)
    d00d:	f0 27 b8 
    d010:	c7 85 64 e0 ff ff 36 	movl   $0x317e2436,-0x1f9c(%rbp)
    d017:	24 7e 31 
    d01a:	c7 85 68 e0 ff ff 7c 	movl   $0x9307a17c,-0x1f98(%rbp)
    d021:	a1 07 93 
    d024:	c7 85 6c e0 ff ff 36 	movl   $0x317e2436,-0x1f94(%rbp)
    d02b:	24 7e 31 
    d02e:	c7 85 70 e0 ff ff 7c 	movl   $0x9307a17c,-0x1f90(%rbp)
    d035:	a1 07 93 
    d038:	c7 85 74 e0 ff ff 36 	movl   $0x317e2436,-0x1f8c(%rbp)
    d03f:	24 7e 31 
    d042:	c7 85 a0 dd ff ff ed 	movl   $0x5dd546ed,-0x2260(%rbp)
    d049:	46 d5 5d 
    d04c:	48 8d 05 ed a7 00 00 	lea    0xa7ed(%rip),%rax        # 17840 <g_1683>
    d053:	48 89 85 f0 de ff ff 	mov    %rax,-0x2110(%rbp)
    d05a:	48 8d 85 9c dd ff ff 	lea    -0x2264(%rbp),%rax
    d061:	48 89 85 f8 de ff ff 	mov    %rax,-0x2108(%rbp)
    d068:	48 c7 85 00 df ff ff 	movq   $0x0,-0x2100(%rbp)
    d06f:	00 00 00 00 
    d073:	48 8d 85 a0 dd ff ff 	lea    -0x2260(%rbp),%rax
    d07a:	48 89 85 d0 df ff ff 	mov    %rax,-0x2030(%rbp)
    d081:	48 8d 85 a0 dd ff ff 	lea    -0x2260(%rbp),%rax
    d088:	48 89 85 d8 df ff ff 	mov    %rax,-0x2028(%rbp)
    d08f:	48 8d 85 a0 dd ff ff 	lea    -0x2260(%rbp),%rax
    d096:	48 89 85 e0 df ff ff 	mov    %rax,-0x2020(%rbp)
    d09d:	48 8d 85 a0 dd ff ff 	lea    -0x2260(%rbp),%rax
    d0a4:	48 89 85 e8 df ff ff 	mov    %rax,-0x2018(%rbp)
    d0ab:	48 8b 05 8e b6 00 00 	mov    0xb68e(%rip),%rax        # 18740 <g_1418>
    d0b2:	8b 18                	mov    (%rax),%ebx
    d0b4:	48 8b 85 78 dd ff ff 	mov    -0x2288(%rbp),%rax
    d0bb:	0f b6 00             	movzbl (%rax),%eax
    d0be:	84 c0                	test   %al,%al
    d0c0:	0f 84 89 00 00 00    	je     d14f <func_13+0x3a32>
    d0c6:	48 8b 05 4b b6 00 00 	mov    0xb64b(%rip),%rax        # 18718 <g_1204>
    d0cd:	48 8b 00             	mov    (%rax),%rax
    d0d0:	8b 10                	mov    (%rax),%edx
    d0d2:	83 c2 01             	add    $0x1,%edx
    d0d5:	89 10                	mov    %edx,(%rax)
    d0d7:	8b 00                	mov    (%rax),%eax
    d0d9:	3d 4b 82 01 9a       	cmp    $0x9a01824b,%eax
    d0de:	0f 96 c0             	setbe  %al
    d0e1:	0f b6 c8             	movzbl %al,%ecx
    d0e4:	48 8b 05 55 b1 00 00 	mov    0xb155(%rip),%rax        # 18240 <g_379>
    d0eb:	0f b7 10             	movzwl (%rax),%edx
    d0ee:	48 8b 05 4b b1 00 00 	mov    0xb14b(%rip),%rax        # 18240 <g_379>
    d0f5:	21 ca                	and    %ecx,%edx
    d0f7:	66 89 10             	mov    %dx,(%rax)
    d0fa:	0f b7 00             	movzwl (%rax),%eax
    d0fd:	0f bf d0             	movswl %ax,%edx
    d100:	8b 85 70 dd ff ff    	mov    -0x2290(%rbp),%eax
    d106:	98                   	cwtl   
    d107:	89 d6                	mov    %edx,%esi
    d109:	89 c7                	mov    %eax,%edi
    d10b:	e8 1a 94 ff ff       	callq  652a <safe_rshift_func_int16_t_s_s>
    d110:	0f bf d0             	movswl %ax,%edx
    d113:	48 8d 85 70 dd ff ff 	lea    -0x2290(%rbp),%rax
    d11a:	48 89 05 17 b1 00 00 	mov    %rax,0xb117(%rip)        # 18238 <g_354>
    d121:	48 8b 05 10 b1 00 00 	mov    0xb110(%rip),%rax        # 18238 <g_354>
    d128:	48 8d 0d 09 a7 00 00 	lea    0xa709(%rip),%rcx        # 17838 <g_1539>
    d12f:	48 39 c8             	cmp    %rcx,%rax
    d132:	0f 94 c0             	sete   %al
    d135:	0f b6 c0             	movzbl %al,%eax
    d138:	39 c2                	cmp    %eax,%edx
    d13a:	0f 95 c0             	setne  %al
    d13d:	0f b6 c0             	movzbl %al,%eax
    d140:	39 85 dc dd ff ff    	cmp    %eax,-0x2224(%rbp)
    d146:	7c 07                	jl     d14f <func_13+0x3a32>
    d148:	b9 01 00 00 00       	mov    $0x1,%ecx
    d14d:	eb 05                	jmp    d154 <func_13+0x3a37>
    d14f:	b9 00 00 00 00       	mov    $0x0,%ecx
    d154:	48 8b 05 ad b0 00 00 	mov    0xb0ad(%rip),%rax        # 18208 <g_104>
    d15b:	0f b6 10             	movzbl (%rax),%edx
    d15e:	48 8b 05 a3 b0 00 00 	mov    0xb0a3(%rip),%rax        # 18208 <g_104>
    d165:	09 ca                	or     %ecx,%edx
    d167:	88 10                	mov    %dl,(%rax)
    d169:	0f b6 00             	movzbl (%rax),%eax
    d16c:	0f be c0             	movsbl %al,%eax
    d16f:	be 73 00 00 00       	mov    $0x73,%esi
    d174:	89 c7                	mov    %eax,%edi
    d176:	e8 97 90 ff ff       	callq  6212 <safe_mul_func_int8_t_s_s>
    d17b:	8b 85 dc dd ff ff    	mov    -0x2224(%rbp),%eax
    d181:	89 de                	mov    %ebx,%esi
    d183:	89 c7                	mov    %eax,%edi
    d185:	e8 75 95 ff ff       	callq  66ff <safe_div_func_int32_t_s_s>
    d18a:	8b 95 28 e0 ff ff    	mov    -0x1fd8(%rbp),%edx
    d190:	21 d0                	and    %edx,%eax
    d192:	89 c3                	mov    %eax,%ebx
    d194:	48 8b 05 95 b0 00 00 	mov    0xb095(%rip),%rax        # 18230 <g_345>
    d19b:	48 8b 00             	mov    (%rax),%rax
    d19e:	48 bf 5e eb 7f 78 b9 	movabs $0x2a75a5b9787feb5e,%rdi
    d1a5:	a5 75 2a 
    d1a8:	48 89 38             	mov    %rdi,(%rax)
    d1ab:	8b 85 f8 dd ff ff    	mov    -0x2208(%rbp),%eax
    d1b1:	48 98                	cltq   
    d1b3:	48 be 5e eb 7f 78 b9 	movabs $0x2a75a5b9787feb5e,%rsi
    d1ba:	a5 75 2a 
    d1bd:	48 89 c7             	mov    %rax,%rdi
    d1c0:	e8 ea 9e ff ff       	callq  70af <safe_div_func_uint64_t_u_u>
    d1c5:	89 85 74 e0 ff ff    	mov    %eax,-0x1f8c(%rbp)
    d1cb:	8b 85 74 e0 ff ff    	mov    -0x1f8c(%rbp),%eax
    d1d1:	0f b7 d0             	movzwl %ax,%edx
    d1d4:	48 c7 05 e1 b5 00 00 	movq   $0x0,0xb5e1(%rip)        # 187c0 <g_1944>
    d1db:	00 00 00 00 
    d1df:	48 8b 05 da b5 00 00 	mov    0xb5da(%rip),%rax        # 187c0 <g_1944>
    d1e6:	48 89 85 c0 de ff ff 	mov    %rax,-0x2140(%rbp)
    d1ed:	48 8b 85 a0 de ff ff 	mov    -0x2160(%rbp),%rax
    d1f4:	48 89 05 cd b5 00 00 	mov    %rax,0xb5cd(%rip)        # 187c8 <g_1947>
    d1fb:	48 8b 05 c6 b5 00 00 	mov    0xb5c6(%rip),%rax        # 187c8 <g_1947>
    d202:	48 39 85 c0 de ff ff 	cmp    %rax,-0x2140(%rbp)
    d209:	0f 94 c0             	sete   %al
    d20c:	0f b6 c0             	movzbl %al,%eax
    d20f:	89 d6                	mov    %edx,%esi
    d211:	89 c7                	mov    %eax,%edi
    d213:	e8 44 9b ff ff       	callq  6d5c <safe_mod_func_uint16_t_u_u>
    d218:	0f b7 c0             	movzwl %ax,%eax
    d21b:	89 c6                	mov    %eax,%esi
    d21d:	bf b6 87 00 00       	mov    $0x87b6,%edi
    d222:	e8 35 9b ff ff       	callq  6d5c <safe_mod_func_uint16_t_u_u>
    d227:	98                   	cwtl   
    d228:	89 de                	mov    %ebx,%esi
    d22a:	89 c7                	mov    %eax,%edi
    d22c:	e8 61 92 ff ff       	callq  6492 <safe_lshift_func_int16_t_s_s>
    d231:	48 8b 85 78 dd ff ff 	mov    -0x2288(%rbp),%rax
    d238:	0f b6 00             	movzbl (%rax),%eax
    d23b:	0f be c0             	movsbl %al,%eax
    d23e:	be 03 00 00 00       	mov    $0x3,%esi
    d243:	89 c7                	mov    %eax,%edi
    d245:	e8 22 91 ff ff       	callq  636c <safe_rshift_func_int8_t_s_u>
    d24a:	48 0f be c0          	movsbq %al,%rax
    d24e:	48 be 74 06 42 79 86 	movabs $0x8264288679420674,%rsi
    d255:	28 64 82 
    d258:	48 89 c7             	mov    %rax,%rdi
    d25b:	e8 48 96 ff ff       	callq  68a8 <safe_sub_func_int64_t_s_s>
    d260:	89 c2                	mov    %eax,%edx
    d262:	48 8b 05 b7 af 00 00 	mov    0xafb7(%rip),%rax        # 18220 <g_281>
    d269:	83 e2 07             	and    $0x7,%edx
    d26c:	89 10                	mov    %edx,(%rax)
    d26e:	80 bd 6c dd ff ff 00 	cmpb   $0x0,-0x2294(%rbp)
    d275:	74 16                	je     d28d <func_13+0x3b70>
    d277:	48 8b 05 9a af 00 00 	mov    0xaf9a(%rip),%rax        # 18218 <g_204>
    d27e:	48 8b 95 c8 de ff ff 	mov    -0x2138(%rbp),%rdx
    d285:	48 89 10             	mov    %rdx,(%rax)
    d288:	e9 ac 00 00 00       	jmpq   d339 <func_13+0x3c1c>
    d28d:	c7 85 b0 dd ff ff 00 	movl   $0x0,-0x2250(%rbp)
    d294:	00 00 00 
    d297:	eb 19                	jmp    d2b2 <func_13+0x3b95>
    d299:	8b 85 b0 dd ff ff    	mov    -0x2250(%rbp),%eax
    d29f:	48 98                	cltq   
    d2a1:	66 c7 84 45 66 df ff 	movw   $0xfffc,-0x209a(%rbp,%rax,2)
    d2a8:	ff fc ff 
    d2ab:	83 85 b0 dd ff ff 01 	addl   $0x1,-0x2250(%rbp)
    d2b2:	83 bd b0 dd ff ff 04 	cmpl   $0x4,-0x2250(%rbp)
    d2b9:	7e de                	jle    d299 <func_13+0x3b7c>
    d2bb:	c7 05 83 9d 00 00 eb 	movl   $0xffffffeb,0x9d83(%rip)        # 17048 <g_78>
    d2c2:	ff ff ff 
    d2c5:	eb 67                	jmp    d32e <func_13+0x3c11>
    d2c7:	0f b7 85 66 df ff ff 	movzwl -0x209a(%rbp),%eax
    d2ce:	89 c2                	mov    %eax,%edx
    d2d0:	8b 05 5e 6e 00 00    	mov    0x6e5e(%rip),%eax        # 14134 <l_1967.4846+0x4>
    d2d6:	09 d0                	or     %edx,%eax
    d2d8:	66 89 85 66 df ff ff 	mov    %ax,-0x209a(%rbp)
    d2df:	c6 05 52 9d 00 00 00 	movb   $0x0,0x9d52(%rip)        # 17038 <g_57>
    d2e6:	eb 2c                	jmp    d314 <func_13+0x3bf7>
    d2e8:	48 8b 05 31 af 00 00 	mov    0xaf31(%rip),%rax        # 18220 <g_281>
    d2ef:	8b 95 a0 dd ff ff    	mov    -0x2260(%rbp),%edx
    d2f5:	89 10                	mov    %edx,(%rax)
    d2f7:	48 8b 05 22 af 00 00 	mov    0xaf22(%rip),%rax        # 18220 <g_281>
    d2fe:	c7 00 fc ff ff ff    	movl   $0xfffffffc,(%rax)
    d304:	0f b6 05 2d 9d 00 00 	movzbl 0x9d2d(%rip),%eax        # 17038 <g_57>
    d30b:	83 c0 01             	add    $0x1,%eax
    d30e:	88 05 24 9d 00 00    	mov    %al,0x9d24(%rip)        # 17038 <g_57>
    d314:	0f b6 05 1d 9d 00 00 	movzbl 0x9d1d(%rip),%eax        # 17038 <g_57>
    d31b:	3c 03                	cmp    $0x3,%al
    d31d:	76 c9                	jbe    d2e8 <func_13+0x3bcb>
    d31f:	8b 05 23 9d 00 00    	mov    0x9d23(%rip),%eax        # 17048 <g_78>
    d325:	83 c0 01             	add    $0x1,%eax
    d328:	89 05 1a 9d 00 00    	mov    %eax,0x9d1a(%rip)        # 17048 <g_78>
    d32e:	8b 05 14 9d 00 00    	mov    0x9d14(%rip),%eax        # 17048 <g_78>
    d334:	83 f8 36             	cmp    $0x36,%eax
    d337:	75 8e                	jne    d2c7 <func_13+0x3baa>
    d339:	0f b6 45 d4          	movzbl -0x2c(%rbp),%eax
    d33d:	83 e8 01             	sub    $0x1,%eax
    d340:	88 45 d4             	mov    %al,-0x2c(%rbp)
    d343:	eb 14                	jmp    d359 <func_13+0x3c3c>
    d345:	48 8b 15 14 b3 00 00 	mov    0xb314(%rip),%rdx        # 18660 <g_834>
    d34c:	48 8b 05 7d b4 00 00 	mov    0xb47d(%rip),%rax        # 187d0 <g_1983>
    d353:	48 8b 12             	mov    (%rdx),%rdx
    d356:	48 89 10             	mov    %rdx,(%rax)
    d359:	48 8b 05 20 b3 00 00 	mov    0xb320(%rip),%rax        # 18680 <g_1074>
    d360:	48 8b 00             	mov    (%rax),%rax
    d363:	48 8b 5d d8          	mov    -0x28(%rbp),%rbx
    d367:	64 48 33 1c 25 28 00 	xor    %fs:0x28,%rbx
    d36e:	00 00 
    d370:	74 05                	je     d377 <func_13+0x3c5a>
    d372:	e8 f9 8c ff ff       	callq  6070 <__stack_chk_fail@plt>
    d377:	48 81 c4 80 22 00 00 	add    $0x2280,%rsp
    d37e:	5b                   	pop    %rbx
    d37f:	41 5c                	pop    %r12
    d381:	41 5d                	pop    %r13
    d383:	41 5e                	pop    %r14
    d385:	5d                   	pop    %rbp
    d386:	c3                   	retq   

000000000000d387 <func_17>:
    d387:	f3 0f 1e fa          	endbr64 
    d38b:	55                   	push   %rbp
    d38c:	48 89 e5             	mov    %rsp,%rbp
    d38f:	53                   	push   %rbx
    d390:	48 81 ec 48 01 00 00 	sub    $0x148,%rsp
    d397:	48 89 bd d8 fe ff ff 	mov    %rdi,-0x128(%rbp)
    d39e:	48 89 b5 d0 fe ff ff 	mov    %rsi,-0x130(%rbp)
    d3a5:	48 89 95 c8 fe ff ff 	mov    %rdx,-0x138(%rbp)
    d3ac:	48 89 8d c0 fe ff ff 	mov    %rcx,-0x140(%rbp)
    d3b3:	44 89 c0             	mov    %r8d,%eax
    d3b6:	66 89 85 bc fe ff ff 	mov    %ax,-0x144(%rbp)
    d3bd:	64 48 8b 04 25 28 00 	mov    %fs:0x28,%rax
    d3c4:	00 00 
    d3c6:	48 89 45 e8          	mov    %rax,-0x18(%rbp)
    d3ca:	31 c0                	xor    %eax,%eax
    d3cc:	48 8d 05 61 9c 00 00 	lea    0x9c61(%rip),%rax        # 17034 <g_53>
    d3d3:	48 89 85 18 ff ff ff 	mov    %rax,-0xe8(%rbp)
    d3da:	c7 85 20 ff ff ff 8d 	movl   $0xf03ecc8d,-0xe0(%rbp)
    d3e1:	cc 3e f0 
    d3e4:	c7 85 24 ff ff ff 00 	movl   $0x0,-0xdc(%rbp)
    d3eb:	00 00 00 
    d3ee:	c7 85 28 ff ff ff 00 	movl   $0x0,-0xd8(%rbp)
    d3f5:	00 00 00 
    d3f8:	c7 85 2c ff ff ff 8d 	movl   $0xf03ecc8d,-0xd4(%rbp)
    d3ff:	cc 3e f0 
    d402:	c7 85 30 ff ff ff ff 	movl   $0xffffffff,-0xd0(%rbp)
    d409:	ff ff ff 
    d40c:	c7 85 34 ff ff ff 8d 	movl   $0xf03ecc8d,-0xcc(%rbp)
    d413:	cc 3e f0 
    d416:	c7 85 38 ff ff ff 00 	movl   $0x0,-0xc8(%rbp)
    d41d:	00 00 00 
    d420:	c7 85 3c ff ff ff 00 	movl   $0x0,-0xc4(%rbp)
    d427:	00 00 00 
    d42a:	c7 85 40 ff ff ff 8d 	movl   $0xf03ecc8d,-0xc0(%rbp)
    d431:	cc 3e f0 
    d434:	c7 85 44 ff ff ff ff 	movl   $0xffffffff,-0xbc(%rbp)
    d43b:	ff ff ff 
    d43e:	48 c7 85 f8 fe ff ff 	movq   $0x0,-0x108(%rbp)
    d445:	00 00 00 00 
    d449:	48 c7 85 00 ff ff ff 	movq   $0x0,-0x100(%rbp)
    d450:	00 00 00 00 
    d454:	48 8d 05 f5 b2 00 00 	lea    0xb2f5(%rip),%rax        # 18750 <g_1504>
    d45b:	48 89 85 08 ff ff ff 	mov    %rax,-0xf8(%rbp)
    d462:	48 c7 85 50 ff ff ff 	movq   $0x0,-0xb0(%rbp)
    d469:	00 00 00 00 
    d46d:	48 c7 85 58 ff ff ff 	movq   $0x0,-0xa8(%rbp)
    d474:	00 00 00 00 
    d478:	48 c7 85 60 ff ff ff 	movq   $0x0,-0xa0(%rbp)
    d47f:	00 00 00 00 
    d483:	48 c7 85 68 ff ff ff 	movq   $0x0,-0x98(%rbp)
    d48a:	00 00 00 00 
    d48e:	48 c7 85 70 ff ff ff 	movq   $0x0,-0x90(%rbp)
    d495:	00 00 00 00 
    d499:	48 c7 85 78 ff ff ff 	movq   $0x0,-0x88(%rbp)
    d4a0:	00 00 00 00 
    d4a4:	c6 85 50 ff ff ff ff 	movb   $0xff,-0xb0(%rbp)
    d4ab:	c6 85 58 ff ff ff ff 	movb   $0xff,-0xa8(%rbp)
    d4b2:	c6 85 60 ff ff ff ff 	movb   $0xff,-0xa0(%rbp)
    d4b9:	c6 85 68 ff ff ff ff 	movb   $0xff,-0x98(%rbp)
    d4c0:	c6 85 70 ff ff ff ff 	movb   $0xff,-0x90(%rbp)
    d4c7:	c6 85 78 ff ff ff ff 	movb   $0xff,-0x88(%rbp)
    d4ce:	48 8d 05 df 9d 00 00 	lea    0x9ddf(%rip),%rax        # 172b4 <g_564+0x4>
    d4d5:	48 89 85 10 ff ff ff 	mov    %rax,-0xf0(%rbp)
    d4dc:	c7 85 ec fe ff ff 00 	movl   $0x0,-0x114(%rbp)
    d4e3:	00 00 00 
    d4e6:	eb 14                	jmp    d4fc <func_17+0x175>
    d4e8:	8b 85 ec fe ff ff    	mov    -0x114(%rbp),%eax
    d4ee:	48 98                	cltq   
    d4f0:	c6 44 05 e7 fe       	movb   $0xfe,-0x19(%rbp,%rax,1)
    d4f5:	83 85 ec fe ff ff 01 	addl   $0x1,-0x114(%rbp)
    d4fc:	83 bd ec fe ff ff 00 	cmpl   $0x0,-0x114(%rbp)
    d503:	7e e3                	jle    d4e8 <func_17+0x161>
    d505:	8b 05 11 9d 00 00    	mov    0x9d11(%rip),%eax        # 1721c <g_260+0x7c>
    d50b:	48 8b 05 06 b2 00 00 	mov    0xb206(%rip),%rax        # 18718 <g_1204>
    d512:	48 8b 00             	mov    (%rax),%rax
    d515:	8b 10                	mov    (%rax),%edx
    d517:	83 ea 01             	sub    $0x1,%edx
    d51a:	89 10                	mov    %edx,(%rax)
    d51c:	8b 00                	mov    (%rax),%eax
    d51e:	89 c6                	mov    %eax,%esi
    d520:	bf 00 00 00 00       	mov    $0x0,%edi
    d525:	e8 d5 91 ff ff       	callq  66ff <safe_div_func_int32_t_s_s>
    d52a:	89 c2                	mov    %eax,%edx
    d52c:	48 8b 05 65 ad 00 00 	mov    0xad65(%rip),%rax        # 18298 <g_423>
    d533:	48 8b 00             	mov    (%rax),%rax
    d536:	48 8b 00             	mov    (%rax),%rax
    d539:	48 8b 08             	mov    (%rax),%rcx
    d53c:	48 63 d2             	movslq %edx,%rdx
    d53f:	48 31 ca             	xor    %rcx,%rdx
    d542:	48 89 10             	mov    %rdx,(%rax)
    d545:	48 0f bf 95 bc fe ff 	movswq -0x144(%rbp),%rdx
    d54c:	ff 
    d54d:	8b 85 34 ff ff ff    	mov    -0xcc(%rbp),%eax
    d553:	83 f0 01             	xor    $0x1,%eax
    d556:	48 98                	cltq   
    d558:	48 89 d6             	mov    %rdx,%rsi
    d55b:	48 89 c7             	mov    %rax,%rdi
    d55e:	e8 e8 9a ff ff       	callq  704b <safe_sub_func_uint64_t_u_u>
    d563:	0f be c8             	movsbl %al,%ecx
    d566:	48 8b 05 e3 b0 00 00 	mov    0xb0e3(%rip),%rax        # 18650 <g_580>
    d56d:	0f b7 10             	movzwl (%rax),%edx
    d570:	8d 72 01             	lea    0x1(%rdx),%esi
    d573:	66 89 30             	mov    %si,(%rax)
    d576:	66 83 fa 06          	cmp    $0x6,%dx
    d57a:	0f 96 c0             	setbe  %al
    d57d:	0f b6 c0             	movzbl %al,%eax
    d580:	89 ce                	mov    %ecx,%esi
    d582:	89 c7                	mov    %eax,%edi
    d584:	e8 e1 8c ff ff       	callq  626a <safe_div_func_int8_t_s_s>
    d589:	48 0f bf 85 bc fe ff 	movswq -0x144(%rbp),%rax
    d590:	ff 
    d591:	48 be 04 a4 07 06 57 	movabs $0x85b7c3570607a404,%rsi
    d598:	c3 b7 85 
    d59b:	48 89 c7             	mov    %rax,%rdi
    d59e:	e8 05 93 ff ff       	callq  68a8 <safe_sub_func_int64_t_s_s>
    d5a3:	48 85 c0             	test   %rax,%rax
    d5a6:	0f 95 c0             	setne  %al
    d5a9:	0f b6 d8             	movzbl %al,%ebx
    d5ac:	8b 85 2c ff ff ff    	mov    -0xd4(%rbp),%eax
    d5b2:	89 c2                	mov    %eax,%edx
    d5b4:	0f b7 85 bc fe ff ff 	movzwl -0x144(%rbp),%eax
    d5bb:	0f b7 c0             	movzwl %ax,%eax
    d5be:	89 d6                	mov    %edx,%esi
    d5c0:	89 c7                	mov    %eax,%edi
    d5c2:	e8 3f 98 ff ff       	callq  6e06 <safe_lshift_func_uint16_t_u_u>
    d5c7:	0f b7 c0             	movzwl %ax,%eax
    d5ca:	89 de                	mov    %ebx,%esi
    d5cc:	89 c7                	mov    %eax,%edi
    d5ce:	e8 52 99 ff ff       	callq  6f25 <safe_div_func_uint32_t_u_u>
    d5d3:	98                   	cwtl   
    d5d4:	be aa bb ff ff       	mov    $0xffffbbaa,%esi
    d5d9:	89 c7                	mov    %eax,%edi
    d5db:	e8 75 8e ff ff       	callq  6455 <safe_div_func_int16_t_s_s>
    d5e0:	0f b7 c0             	movzwl %ax,%eax
    d5e3:	89 c7                	mov    %eax,%edi
    d5e5:	e8 ff 96 ff ff       	callq  6ce9 <safe_unary_minus_func_uint16_t_u>
    d5ea:	48 8b 05 57 b1 00 00 	mov    0xb157(%rip),%rax        # 18748 <g_1467>
    d5f1:	48 8b 15 08 ca 00 00 	mov    0xca08(%rip),%rdx        # 1a000 <g_1466>
    d5f8:	48 89 10             	mov    %rdx,(%rax)
    d5fb:	48 8b 05 0e b1 00 00 	mov    0xb10e(%rip),%rax        # 18710 <g_1205>
    d602:	8b 00                	mov    (%rax),%eax
    d604:	85 c0                	test   %eax,%eax
    d606:	74 07                	je     d60f <func_17+0x288>
    d608:	bf 01 00 00 00       	mov    $0x1,%edi
    d60d:	eb 05                	jmp    d614 <func_17+0x28d>
    d60f:	bf 00 00 00 00       	mov    $0x0,%edi
    d614:	0f b6 45 e7          	movzbl -0x19(%rbp),%eax
    d618:	0f b6 f0             	movzbl %al,%esi
    d61b:	48 8b 05 4e b0 00 00 	mov    0xb04e(%rip),%rax        # 18670 <g_874>
    d622:	48 8b 10             	mov    (%rax),%rdx
    d625:	48 8d 4a ff          	lea    -0x1(%rdx),%rcx
    d629:	48 89 08             	mov    %rcx,(%rax)
    d62c:	48 39 d6             	cmp    %rdx,%rsi
    d62f:	0f 92 c0             	setb   %al
    d632:	0f b6 c0             	movzbl %al,%eax
    d635:	31 f8                	xor    %edi,%eax
    d637:	89 85 34 ff ff ff    	mov    %eax,-0xcc(%rbp)
    d63d:	0f bf 85 bc fe ff ff 	movswl -0x144(%rbp),%eax
    d644:	be 00 00 00 00       	mov    $0x0,%esi
    d649:	89 c7                	mov    %eax,%edi
    d64b:	e8 63 8d ff ff       	callq  63b3 <safe_add_func_int16_t_s_s>
    d650:	66 85 c0             	test   %ax,%ax
    d653:	0f 95 c0             	setne  %al
    d656:	0f b6 c0             	movzbl %al,%eax
    d659:	be c8 f5 3a 39       	mov    $0x393af5c8,%esi
    d65e:	89 c7                	mov    %eax,%edi
    d660:	e8 a0 8f ff ff       	callq  6605 <safe_sub_func_int32_t_s_s>
    d665:	be 00 00 00 00       	mov    $0x0,%esi
    d66a:	89 c7                	mov    %eax,%edi
    d66c:	e8 45 8f ff ff       	callq  65b6 <safe_add_func_int32_t_s_s>
    d671:	89 c2                	mov    %eax,%edx
    d673:	48 8b 05 a6 ab 00 00 	mov    0xaba6(%rip),%rax        # 18220 <g_281>
    d67a:	8b 08                	mov    (%rax),%ecx
    d67c:	48 8b 05 9d ab 00 00 	mov    0xab9d(%rip),%rax        # 18220 <g_281>
    d683:	21 ca                	and    %ecx,%edx
    d685:	89 10                	mov    %edx,(%rax)
    d687:	48 8b 85 10 ff ff ff 	mov    -0xf0(%rbp),%rax
    d68e:	48 8b 5d e8          	mov    -0x18(%rbp),%rbx
    d692:	64 48 33 1c 25 28 00 	xor    %fs:0x28,%rbx
    d699:	00 00 
    d69b:	74 05                	je     d6a2 <func_17+0x31b>
    d69d:	e8 ce 89 ff ff       	callq  6070 <__stack_chk_fail@plt>
    d6a2:	48 81 c4 48 01 00 00 	add    $0x148,%rsp
    d6a9:	5b                   	pop    %rbx
    d6aa:	5d                   	pop    %rbp
    d6ab:	c3                   	retq   

000000000000d6ac <func_24>:
    d6ac:	f3 0f 1e fa          	endbr64 
    d6b0:	55                   	push   %rbp
    d6b1:	48 89 e5             	mov    %rsp,%rbp
    d6b4:	89 f8                	mov    %edi,%eax
    d6b6:	48 89 75 f0          	mov    %rsi,-0x10(%rbp)
    d6ba:	66 89 45 fc          	mov    %ax,-0x4(%rbp)
    d6be:	48 8b 05 6b a1 00 00 	mov    0xa16b(%rip),%rax        # 17830 <g_1443>
    d6c5:	5d                   	pop    %rbp
    d6c6:	c3                   	retq   

000000000000d6c7 <func_28>:
    d6c7:	f3 0f 1e fa          	endbr64 
    d6cb:	55                   	push   %rbp
    d6cc:	48 89 e5             	mov    %rsp,%rbp
    d6cf:	41 57                	push   %r15
    d6d1:	41 56                	push   %r14
    d6d3:	41 55                	push   %r13
    d6d5:	41 54                	push   %r12
    d6d7:	53                   	push   %rbx
    d6d8:	48 81 ec 68 08 00 00 	sub    $0x868,%rsp
    d6df:	89 f8                	mov    %edi,%eax
    d6e1:	48 89 b5 70 f7 ff ff 	mov    %rsi,-0x890(%rbp)
    d6e8:	66 89 85 7c f7 ff ff 	mov    %ax,-0x884(%rbp)
    d6ef:	64 48 8b 04 25 28 00 	mov    %fs:0x28,%rax
    d6f6:	00 00 
    d6f8:	48 89 45 c8          	mov    %rax,-0x38(%rbp)
    d6fc:	31 c0                	xor    %eax,%eax
    d6fe:	48 c7 85 10 f8 ff ff 	movq   $0xfffffffffffffffc,-0x7f0(%rbp)
    d705:	fc ff ff ff 
    d709:	48 8d 05 20 99 00 00 	lea    0x9920(%rip),%rax        # 17030 <g_52>
    d710:	48 89 85 18 f8 ff ff 	mov    %rax,-0x7e8(%rbp)
    d717:	48 c7 85 20 f8 ff ff 	movq   $0x0,-0x7e0(%rbp)
    d71e:	00 00 00 00 
    d722:	48 8d 05 0f 99 00 00 	lea    0x990f(%rip),%rax        # 17038 <g_57>
    d729:	48 89 85 a0 f9 ff ff 	mov    %rax,-0x660(%rbp)
    d730:	48 8d 05 01 99 00 00 	lea    0x9901(%rip),%rax        # 17038 <g_57>
    d737:	48 89 85 a8 f9 ff ff 	mov    %rax,-0x658(%rbp)
    d73e:	48 8d 05 f3 98 00 00 	lea    0x98f3(%rip),%rax        # 17038 <g_57>
    d745:	48 89 85 b0 f9 ff ff 	mov    %rax,-0x650(%rbp)
    d74c:	48 8d 05 e5 98 00 00 	lea    0x98e5(%rip),%rax        # 17038 <g_57>
    d753:	48 89 85 b8 f9 ff ff 	mov    %rax,-0x648(%rbp)
    d75a:	48 8d 05 d7 98 00 00 	lea    0x98d7(%rip),%rax        # 17038 <g_57>
    d761:	48 89 85 c0 f9 ff ff 	mov    %rax,-0x640(%rbp)
    d768:	48 8d 05 c9 98 00 00 	lea    0x98c9(%rip),%rax        # 17038 <g_57>
    d76f:	48 89 85 c8 f9 ff ff 	mov    %rax,-0x638(%rbp)
    d776:	48 8d 05 bb 98 00 00 	lea    0x98bb(%rip),%rax        # 17038 <g_57>
    d77d:	48 89 85 d0 f9 ff ff 	mov    %rax,-0x630(%rbp)
    d784:	48 8d 05 ad 98 00 00 	lea    0x98ad(%rip),%rax        # 17038 <g_57>
    d78b:	48 89 85 d8 f9 ff ff 	mov    %rax,-0x628(%rbp)
    d792:	48 8d 05 9f 98 00 00 	lea    0x989f(%rip),%rax        # 17038 <g_57>
    d799:	48 89 85 e0 f9 ff ff 	mov    %rax,-0x620(%rbp)
    d7a0:	c7 85 b8 f7 ff ff 5c 	movl   $0x8361cd5c,-0x848(%rbp)
    d7a7:	cd 61 83 
    d7aa:	c7 85 bc f7 ff ff 89 	movl   $0x82ade89,-0x844(%rbp)
    d7b1:	de 2a 08 
    d7b4:	c7 85 a0 f7 ff ff cf 	movl   $0xaa473ecf,-0x860(%rbp)
    d7bb:	3e 47 aa 
    d7be:	c7 85 98 f7 ff ff 37 	movl   $0x7160c637,-0x868(%rbp)
    d7c5:	c6 60 71 
    d7c8:	c7 85 c0 f7 ff ff 01 	movl   $0x1,-0x840(%rbp)
    d7cf:	00 00 00 
    d7d2:	48 c7 85 28 f8 ff ff 	movq   $0x0,-0x7d8(%rbp)
    d7d9:	00 00 00 00 
    d7dd:	48 8d 05 5a 98 00 00 	lea    0x985a(%rip),%rax        # 1703e <g_74+0x4>
    d7e4:	48 89 85 f8 f7 ff ff 	mov    %rax,-0x808(%rbp)
    d7eb:	48 8d 05 4e 98 00 00 	lea    0x984e(%rip),%rax        # 17040 <g_76>
    d7f2:	48 89 85 60 f9 ff ff 	mov    %rax,-0x6a0(%rbp)
    d7f9:	48 8d 05 40 98 00 00 	lea    0x9840(%rip),%rax        # 17040 <g_76>
    d800:	48 89 85 68 f9 ff ff 	mov    %rax,-0x698(%rbp)
    d807:	48 8d 05 32 98 00 00 	lea    0x9832(%rip),%rax        # 17040 <g_76>
    d80e:	48 89 85 70 f9 ff ff 	mov    %rax,-0x690(%rbp)
    d815:	48 8d 05 24 98 00 00 	lea    0x9824(%rip),%rax        # 17040 <g_76>
    d81c:	48 89 85 78 f9 ff ff 	mov    %rax,-0x688(%rbp)
    d823:	48 8d 05 16 98 00 00 	lea    0x9816(%rip),%rax        # 17040 <g_76>
    d82a:	48 89 85 80 f9 ff ff 	mov    %rax,-0x680(%rbp)
    d831:	48 8d 05 08 98 00 00 	lea    0x9808(%rip),%rax        # 17040 <g_76>
    d838:	48 89 85 88 f9 ff ff 	mov    %rax,-0x678(%rbp)
    d83f:	48 8d 05 fa 97 00 00 	lea    0x97fa(%rip),%rax        # 17040 <g_76>
    d846:	48 89 85 90 f9 ff ff 	mov    %rax,-0x670(%rbp)
    d84d:	48 8d 05 ec 97 00 00 	lea    0x97ec(%rip),%rax        # 17040 <g_76>
    d854:	48 89 85 98 f9 ff ff 	mov    %rax,-0x668(%rbp)
    d85b:	c7 85 9c f7 ff ff 7d 	movl   $0xc520777d,-0x864(%rbp)
    d862:	77 20 c5 
    d865:	66 c7 85 90 f7 ff ff 	movw   $0xf96d,-0x870(%rbp)
    d86c:	6d f9 
    d86e:	66 c7 85 d0 f8 ff ff 	movw   $0x0,-0x730(%rbp)
    d875:	00 00 
    d877:	66 c7 85 d2 f8 ff ff 	movw   $0x0,-0x72e(%rbp)
    d87e:	00 00 
    d880:	66 c7 85 d4 f8 ff ff 	movw   $0xffff,-0x72c(%rbp)
    d887:	ff ff 
    d889:	66 c7 85 d6 f8 ff ff 	movw   $0x0,-0x72a(%rbp)
    d890:	00 00 
    d892:	66 c7 85 d8 f8 ff ff 	movw   $0x0,-0x728(%rbp)
    d899:	00 00 
    d89b:	66 c7 85 da f8 ff ff 	movw   $0xffff,-0x726(%rbp)
    d8a2:	ff ff 
    d8a4:	66 c7 85 dc f8 ff ff 	movw   $0x0,-0x724(%rbp)
    d8ab:	00 00 
    d8ad:	66 c7 85 de f8 ff ff 	movw   $0x0,-0x722(%rbp)
    d8b4:	00 00 
    d8b6:	66 c7 85 e0 f8 ff ff 	movw   $0xffff,-0x720(%rbp)
    d8bd:	ff ff 
    d8bf:	48 8d 85 d0 fb ff ff 	lea    -0x430(%rbp),%rax
    d8c6:	48 8d 15 b3 5b 00 00 	lea    0x5bb3(%rip),%rdx        # 13480 <g_2958+0x13c0>
    d8cd:	b9 3d 00 00 00       	mov    $0x3d,%ecx
    d8d2:	48 89 c7             	mov    %rax,%rdi
    d8d5:	48 89 d6             	mov    %rdx,%rsi
    d8d8:	f3 48 a5             	rep movsq %ds:(%rsi),%es:(%rdi)
    d8db:	48 89 f2             	mov    %rsi,%rdx
    d8de:	48 89 f8             	mov    %rdi,%rax
    d8e1:	0f b7 0a             	movzwl (%rdx),%ecx
    d8e4:	66 89 08             	mov    %cx,(%rax)
    d8e7:	48 8d 40 02          	lea    0x2(%rax),%rax
    d8eb:	48 8d 52 02          	lea    0x2(%rdx),%rdx
    d8ef:	48 8d 05 d2 c6 00 00 	lea    0xc6d2(%rip),%rax        # 19fc8 <g_32>
    d8f6:	48 89 85 30 f8 ff ff 	mov    %rax,-0x7d0(%rbp)
    d8fd:	48 c7 85 f0 f9 ff ff 	movq   $0x0,-0x610(%rbp)
    d904:	00 00 00 00 
    d908:	48 8d 85 f8 f7 ff ff 	lea    -0x808(%rbp),%rax
    d90f:	48 89 85 f8 f9 ff ff 	mov    %rax,-0x608(%rbp)
    d916:	48 8d 85 f8 f7 ff ff 	lea    -0x808(%rbp),%rax
    d91d:	48 89 85 00 fa ff ff 	mov    %rax,-0x600(%rbp)
    d924:	48 8d 85 f8 f7 ff ff 	lea    -0x808(%rbp),%rax
    d92b:	48 89 85 08 fa ff ff 	mov    %rax,-0x5f8(%rbp)
    d932:	48 8d 85 f8 f7 ff ff 	lea    -0x808(%rbp),%rax
    d939:	48 89 85 10 fa ff ff 	mov    %rax,-0x5f0(%rbp)
    d940:	48 c7 85 18 fa ff ff 	movq   $0x0,-0x5e8(%rbp)
    d947:	00 00 00 00 
    d94b:	48 8d 05 ee a8 00 00 	lea    0xa8ee(%rip),%rax        # 18240 <g_379>
    d952:	48 89 85 20 fa ff ff 	mov    %rax,-0x5e0(%rbp)
    d959:	48 8d 85 f8 f7 ff ff 	lea    -0x808(%rbp),%rax
    d960:	48 89 85 28 fa ff ff 	mov    %rax,-0x5d8(%rbp)
    d967:	48 8d 05 d2 a8 00 00 	lea    0xa8d2(%rip),%rax        # 18240 <g_379>
    d96e:	48 89 85 30 fa ff ff 	mov    %rax,-0x5d0(%rbp)
    d975:	48 c7 85 38 fa ff ff 	movq   $0x0,-0x5c8(%rbp)
    d97c:	00 00 00 00 
    d980:	48 8d 05 b9 a8 00 00 	lea    0xa8b9(%rip),%rax        # 18240 <g_379>
    d987:	48 89 85 40 fa ff ff 	mov    %rax,-0x5c0(%rbp)
    d98e:	48 8d 85 f8 f7 ff ff 	lea    -0x808(%rbp),%rax
    d995:	48 89 85 48 fa ff ff 	mov    %rax,-0x5b8(%rbp)
    d99c:	48 8d 05 9d a8 00 00 	lea    0xa89d(%rip),%rax        # 18240 <g_379>
    d9a3:	48 89 85 50 fa ff ff 	mov    %rax,-0x5b0(%rbp)
    d9aa:	48 8d 85 f8 f7 ff ff 	lea    -0x808(%rbp),%rax
    d9b1:	48 89 85 58 fa ff ff 	mov    %rax,-0x5a8(%rbp)
    d9b8:	48 8d 05 81 a8 00 00 	lea    0xa881(%rip),%rax        # 18240 <g_379>
    d9bf:	48 89 85 60 fa ff ff 	mov    %rax,-0x5a0(%rbp)
    d9c6:	48 8d 05 73 a8 00 00 	lea    0xa873(%rip),%rax        # 18240 <g_379>
    d9cd:	48 89 85 68 fa ff ff 	mov    %rax,-0x598(%rbp)
    d9d4:	48 c7 85 70 fa ff ff 	movq   $0x0,-0x590(%rbp)
    d9db:	00 00 00 00 
    d9df:	48 c7 85 78 fa ff ff 	movq   $0x0,-0x588(%rbp)
    d9e6:	00 00 00 00 
    d9ea:	48 8d 05 4f a8 00 00 	lea    0xa84f(%rip),%rax        # 18240 <g_379>
    d9f1:	48 89 85 80 fa ff ff 	mov    %rax,-0x580(%rbp)
    d9f8:	48 8d 05 41 a8 00 00 	lea    0xa841(%rip),%rax        # 18240 <g_379>
    d9ff:	48 89 85 88 fa ff ff 	mov    %rax,-0x578(%rbp)
    da06:	48 8d 05 33 a8 00 00 	lea    0xa833(%rip),%rax        # 18240 <g_379>
    da0d:	48 89 85 90 fa ff ff 	mov    %rax,-0x570(%rbp)
    da14:	48 8d 05 25 a8 00 00 	lea    0xa825(%rip),%rax        # 18240 <g_379>
    da1b:	48 89 85 98 fa ff ff 	mov    %rax,-0x568(%rbp)
    da22:	48 8d 05 17 a8 00 00 	lea    0xa817(%rip),%rax        # 18240 <g_379>
    da29:	48 89 85 a0 fa ff ff 	mov    %rax,-0x560(%rbp)
    da30:	48 8d 05 09 a8 00 00 	lea    0xa809(%rip),%rax        # 18240 <g_379>
    da37:	48 89 85 a8 fa ff ff 	mov    %rax,-0x558(%rbp)
    da3e:	48 8d 85 f8 f7 ff ff 	lea    -0x808(%rbp),%rax
    da45:	48 89 85 b0 fa ff ff 	mov    %rax,-0x550(%rbp)
    da4c:	48 c7 85 b8 fa ff ff 	movq   $0x0,-0x548(%rbp)
    da53:	00 00 00 00 
    da57:	48 8d 05 e2 a7 00 00 	lea    0xa7e2(%rip),%rax        # 18240 <g_379>
    da5e:	48 89 85 c0 fa ff ff 	mov    %rax,-0x540(%rbp)
    da65:	48 c7 85 c8 fa ff ff 	movq   $0x0,-0x538(%rbp)
    da6c:	00 00 00 00 
    da70:	48 8d 85 f8 f7 ff ff 	lea    -0x808(%rbp),%rax
    da77:	48 89 85 d0 fa ff ff 	mov    %rax,-0x530(%rbp)
    da7e:	48 8d 05 bb a7 00 00 	lea    0xa7bb(%rip),%rax        # 18240 <g_379>
    da85:	48 89 85 d8 fa ff ff 	mov    %rax,-0x528(%rbp)
    da8c:	48 c7 85 e0 fa ff ff 	movq   $0x0,-0x520(%rbp)
    da93:	00 00 00 00 
    da97:	48 8d 05 a2 a7 00 00 	lea    0xa7a2(%rip),%rax        # 18240 <g_379>
    da9e:	48 89 85 e8 fa ff ff 	mov    %rax,-0x518(%rbp)
    daa5:	48 c7 85 f0 fa ff ff 	movq   $0x0,-0x510(%rbp)
    daac:	00 00 00 00 
    dab0:	48 8d 85 f8 f7 ff ff 	lea    -0x808(%rbp),%rax
    dab7:	48 89 85 f8 fa ff ff 	mov    %rax,-0x508(%rbp)
    dabe:	48 8d 05 7b a7 00 00 	lea    0xa77b(%rip),%rax        # 18240 <g_379>
    dac5:	48 89 85 00 fb ff ff 	mov    %rax,-0x500(%rbp)
    dacc:	48 8d 05 6d a7 00 00 	lea    0xa76d(%rip),%rax        # 18240 <g_379>
    dad3:	48 89 85 08 fb ff ff 	mov    %rax,-0x4f8(%rbp)
    dada:	48 8d 05 5f a7 00 00 	lea    0xa75f(%rip),%rax        # 18240 <g_379>
    dae1:	48 89 85 10 fb ff ff 	mov    %rax,-0x4f0(%rbp)
    dae8:	48 8d 05 51 a7 00 00 	lea    0xa751(%rip),%rax        # 18240 <g_379>
    daef:	48 89 85 18 fb ff ff 	mov    %rax,-0x4e8(%rbp)
    daf6:	48 8d 85 f8 f7 ff ff 	lea    -0x808(%rbp),%rax
    dafd:	48 89 85 20 fb ff ff 	mov    %rax,-0x4e0(%rbp)
    db04:	48 c7 85 28 fb ff ff 	movq   $0x0,-0x4d8(%rbp)
    db0b:	00 00 00 00 
    db0f:	48 c7 85 30 fb ff ff 	movq   $0x0,-0x4d0(%rbp)
    db16:	00 00 00 00 
    db1a:	48 c7 85 38 fb ff ff 	movq   $0x0,-0x4c8(%rbp)
    db21:	00 00 00 00 
    db25:	48 8d 05 14 a7 00 00 	lea    0xa714(%rip),%rax        # 18240 <g_379>
    db2c:	48 89 85 40 fb ff ff 	mov    %rax,-0x4c0(%rbp)
    db33:	48 8d 05 06 a7 00 00 	lea    0xa706(%rip),%rax        # 18240 <g_379>
    db3a:	48 89 85 48 fb ff ff 	mov    %rax,-0x4b8(%rbp)
    db41:	48 8d 85 f8 f7 ff ff 	lea    -0x808(%rbp),%rax
    db48:	48 89 85 50 fb ff ff 	mov    %rax,-0x4b0(%rbp)
    db4f:	48 8d 05 ea a6 00 00 	lea    0xa6ea(%rip),%rax        # 18240 <g_379>
    db56:	48 89 85 58 fb ff ff 	mov    %rax,-0x4a8(%rbp)
    db5d:	48 8d 85 f8 f7 ff ff 	lea    -0x808(%rbp),%rax
    db64:	48 89 85 60 fb ff ff 	mov    %rax,-0x4a0(%rbp)
    db6b:	48 8d 05 ce a6 00 00 	lea    0xa6ce(%rip),%rax        # 18240 <g_379>
    db72:	48 89 85 68 fb ff ff 	mov    %rax,-0x498(%rbp)
    db79:	48 8d 05 c0 a6 00 00 	lea    0xa6c0(%rip),%rax        # 18240 <g_379>
    db80:	48 89 85 70 fb ff ff 	mov    %rax,-0x490(%rbp)
    db87:	48 c7 85 78 fb ff ff 	movq   $0x0,-0x488(%rbp)
    db8e:	00 00 00 00 
    db92:	48 8d 85 f8 f7 ff ff 	lea    -0x808(%rbp),%rax
    db99:	48 89 85 80 fb ff ff 	mov    %rax,-0x480(%rbp)
    dba0:	48 8d 05 99 a6 00 00 	lea    0xa699(%rip),%rax        # 18240 <g_379>
    dba7:	48 89 85 88 fb ff ff 	mov    %rax,-0x478(%rbp)
    dbae:	48 c7 85 90 fb ff ff 	movq   $0x0,-0x470(%rbp)
    dbb5:	00 00 00 00 
    dbb9:	48 8d 85 f8 f7 ff ff 	lea    -0x808(%rbp),%rax
    dbc0:	48 89 85 98 fb ff ff 	mov    %rax,-0x468(%rbp)
    dbc7:	48 8d 85 f8 f7 ff ff 	lea    -0x808(%rbp),%rax
    dbce:	48 89 85 a0 fb ff ff 	mov    %rax,-0x460(%rbp)
    dbd5:	48 8d 85 f8 f7 ff ff 	lea    -0x808(%rbp),%rax
    dbdc:	48 89 85 a8 fb ff ff 	mov    %rax,-0x458(%rbp)
    dbe3:	48 8d 85 f8 f7 ff ff 	lea    -0x808(%rbp),%rax
    dbea:	48 89 85 b0 fb ff ff 	mov    %rax,-0x450(%rbp)
    dbf1:	48 c7 85 b8 fb ff ff 	movq   $0x0,-0x448(%rbp)
    dbf8:	00 00 00 00 
    dbfc:	48 8d 05 3d a6 00 00 	lea    0xa63d(%rip),%rax        # 18240 <g_379>
    dc03:	48 89 85 c0 fb ff ff 	mov    %rax,-0x440(%rbp)
    dc0a:	48 8d 85 f8 f7 ff ff 	lea    -0x808(%rbp),%rax
    dc11:	48 89 85 c8 fb ff ff 	mov    %rax,-0x438(%rbp)
    dc18:	48 8d 05 61 95 00 00 	lea    0x9561(%rip),%rax        # 17180 <g_190>
    dc1f:	48 89 85 38 f8 ff ff 	mov    %rax,-0x7c8(%rbp)
    dc26:	48 8d 85 c0 fd ff ff 	lea    -0x240(%rbp),%rax
    dc2d:	48 8d 15 4c 5a 00 00 	lea    0x5a4c(%rip),%rdx        # 13680 <g_2958+0x15c0>
    dc34:	b9 40 00 00 00       	mov    $0x40,%ecx
    dc39:	48 89 c7             	mov    %rax,%rdi
    dc3c:	48 89 d6             	mov    %rdx,%rsi
    dc3f:	f3 48 a5             	rep movsq %ds:(%rsi),%es:(%rdi)
    dc42:	48 8d 05 e7 aa 00 00 	lea    0xaae7(%rip),%rax        # 18730 <g_1303>
    dc49:	48 89 85 40 f8 ff ff 	mov    %rax,-0x7c0(%rbp)
    dc50:	48 8d 05 91 9b 00 00 	lea    0x9b91(%rip),%rax        # 177e8 <g_861>
    dc57:	48 89 85 48 f8 ff ff 	mov    %rax,-0x7b8(%rbp)
    dc5e:	c7 85 c4 f7 ff ff 59 	movl   $0xa6fbac59,-0x83c(%rbp)
    dc65:	ac fb a6 
    dc68:	48 8d 05 79 9b 00 00 	lea    0x9b79(%rip),%rax        # 177e8 <g_861>
    dc6f:	48 89 85 50 f8 ff ff 	mov    %rax,-0x7b0(%rbp)
    dc76:	48 8d 05 93 aa 00 00 	lea    0xaa93(%rip),%rax        # 18710 <g_1205>
    dc7d:	48 89 85 58 f8 ff ff 	mov    %rax,-0x7a8(%rbp)
    dc84:	c6 85 8d f7 ff ff 24 	movb   $0x24,-0x873(%rbp)
    dc8b:	c7 85 c8 f7 ff ff ff 	movl   $0xffffffff,-0x838(%rbp)
    dc92:	ff ff ff 
    dc95:	c7 85 a4 f7 ff ff 00 	movl   $0x0,-0x85c(%rbp)
    dc9c:	00 00 00 
    dc9f:	eb 1b                	jmp    dcbc <func_28+0x5f5>
    dca1:	8b 85 a4 f7 ff ff    	mov    -0x85c(%rbp),%eax
    dca7:	48 98                	cltq   
    dca9:	48 c7 84 c5 10 f9 ff 	movq   $0x0,-0x6f0(%rbp,%rax,8)
    dcb0:	ff 00 00 00 00 
    dcb5:	83 85 a4 f7 ff ff 01 	addl   $0x1,-0x85c(%rbp)
    dcbc:	83 bd a4 f7 ff ff 02 	cmpl   $0x2,-0x85c(%rbp)
    dcc3:	7e dc                	jle    dca1 <func_28+0x5da>
    dcc5:	c7 85 a4 f7 ff ff 00 	movl   $0x0,-0x85c(%rbp)
    dccc:	00 00 00 
    dccf:	eb 1b                	jmp    dcec <func_28+0x625>
    dcd1:	8b 85 a4 f7 ff ff    	mov    -0x85c(%rbp),%eax
    dcd7:	48 98                	cltq   
    dcd9:	48 c7 84 c5 b0 f8 ff 	movq   $0x0,-0x750(%rbp,%rax,8)
    dce0:	ff 00 00 00 00 
    dce5:	83 85 a4 f7 ff ff 01 	addl   $0x1,-0x85c(%rbp)
    dcec:	83 bd a4 f7 ff ff 00 	cmpl   $0x0,-0x85c(%rbp)
    dcf3:	7e dc                	jle    dcd1 <func_28+0x60a>
    dcf5:	44 0f bf a5 7c f7 ff 	movswl -0x884(%rbp),%r12d
    dcfc:	ff 
    dcfd:	48 8b 9d 20 f9 ff ff 	mov    -0x6e0(%rbp),%rbx
    dd04:	0f b6 05 1d 93 00 00 	movzbl 0x931d(%rip),%eax        # 17028 <g_4>
    dd0b:	44 0f bf b5 7c f7 ff 	movswl -0x884(%rbp),%r14d
    dd12:	ff 
    dd13:	48 8b 85 10 f8 ff ff 	mov    -0x7f0(%rbp),%rax
    dd1a:	44 0f b7 e8          	movzwl %ax,%r13d
    dd1e:	8b 05 10 93 00 00    	mov    0x9310(%rip),%eax        # 17034 <g_53>
    dd24:	41 89 c7             	mov    %eax,%r15d
    dd27:	8b 85 98 f7 ff ff    	mov    -0x868(%rbp),%eax
    dd2d:	89 85 a0 f7 ff ff    	mov    %eax,-0x860(%rbp)
    dd33:	8b 85 a0 f7 ff ff    	mov    -0x860(%rbp),%eax
    dd39:	0f be c0             	movsbl %al,%eax
    dd3c:	be 00 00 00 00       	mov    $0x0,%esi
    dd41:	89 c7                	mov    %eax,%edi
    dd43:	e8 ca 84 ff ff       	callq  6212 <safe_mul_func_int8_t_s_s>
    dd48:	0f b6 c0             	movzbl %al,%eax
    dd4b:	44 89 fe             	mov    %r15d,%esi
    dd4e:	89 c7                	mov    %eax,%edi
    dd50:	e8 b0 8e ff ff       	callq  6c05 <safe_lshift_func_uint8_t_u_s>
    dd55:	0f b6 c0             	movzbl %al,%eax
    dd58:	44 89 ee             	mov    %r13d,%esi
    dd5b:	89 c7                	mov    %eax,%edi
    dd5d:	e8 9d 8f ff ff       	callq  6cff <safe_add_func_uint16_t_u_u>
    dd62:	0f b7 c0             	movzwl %ax,%eax
    dd65:	41 39 c6             	cmp    %eax,%r14d
    dd68:	0f 94 c0             	sete   %al
    dd6b:	0f b6 f0             	movzbl %al,%esi
    dd6e:	0f b6 05 c3 92 00 00 	movzbl 0x92c3(%rip),%eax        # 17038 <g_57>
    dd75:	83 e8 01             	sub    $0x1,%eax
    dd78:	88 05 ba 92 00 00    	mov    %al,0x92ba(%rip)        # 17038 <g_57>
    dd7e:	0f b6 05 b3 92 00 00 	movzbl 0x92b3(%rip),%eax        # 17038 <g_57>
    dd85:	0f b6 d0             	movzbl %al,%edx
    dd88:	48 8b 85 f8 f7 ff ff 	mov    -0x808(%rbp),%rax
    dd8f:	0f b7 08             	movzwl (%rax),%ecx
    dd92:	48 8b 85 f8 f7 ff ff 	mov    -0x808(%rbp),%rax
    dd99:	09 f1                	or     %esi,%ecx
    dd9b:	66 89 08             	mov    %cx,(%rax)
    dd9e:	0f b7 00             	movzwl (%rax),%eax
    dda1:	98                   	cwtl   
    dda2:	39 85 c0 f7 ff ff    	cmp    %eax,-0x840(%rbp)
    dda8:	0f 9f c0             	setg   %al
    ddab:	0f b6 c8             	movzbl %al,%ecx
    ddae:	8b 05 80 92 00 00    	mov    0x9280(%rip),%eax        # 17034 <g_53>
    ddb4:	39 c1                	cmp    %eax,%ecx
    ddb6:	0f 93 c0             	setae  %al
    ddb9:	0f b6 c0             	movzbl %al,%eax
    ddbc:	39 c2                	cmp    %eax,%edx
    ddbe:	0f 9c c0             	setl   %al
    ddc1:	0f b6 c0             	movzbl %al,%eax
    ddc4:	31 85 bc f7 ff ff    	xor    %eax,-0x844(%rbp)
    ddca:	8b 95 bc f7 ff ff    	mov    -0x844(%rbp),%edx
    ddd0:	8b 05 5e 92 00 00    	mov    0x925e(%rip),%eax        # 17034 <g_53>
    ddd6:	09 c2                	or     %eax,%edx
    ddd8:	0f bf 85 7c f7 ff ff 	movswl -0x884(%rbp),%eax
    dddf:	39 c2                	cmp    %eax,%edx
    dde1:	0f 92 c0             	setb   %al
    dde4:	0f b6 d0             	movzbl %al,%edx
    dde7:	0f bf 85 7c f7 ff ff 	movswl -0x884(%rbp),%eax
    ddee:	31 d0                	xor    %edx,%eax
    ddf0:	34 a0                	xor    $0xa0,%al
    ddf2:	48 98                	cltq   
    ddf4:	8b 15 3a 92 00 00    	mov    0x923a(%rip),%edx        # 17034 <g_53>
    ddfa:	89 d2                	mov    %edx,%edx
    ddfc:	48 39 d0             	cmp    %rdx,%rax
    ddff:	0f 9e c0             	setle  %al
    de02:	0f b6 d0             	movzbl %al,%edx
    de05:	8b 05 29 92 00 00    	mov    0x9229(%rip),%eax        # 17034 <g_53>
    de0b:	39 c2                	cmp    %eax,%edx
    de0d:	0f 97 c0             	seta   %al
    de10:	0f b6 d0             	movzbl %al,%edx
    de13:	48 8b 85 10 f8 ff ff 	mov    -0x7f0(%rbp),%rax
    de1a:	89 c1                	mov    %eax,%ecx
    de1c:	48 8b 85 18 f8 ff ff 	mov    -0x7e8(%rbp),%rax
    de23:	66 89 08             	mov    %cx,(%rax)
    de26:	48 8b 85 18 f8 ff ff 	mov    -0x7e8(%rbp),%rax
    de2d:	0f b7 00             	movzwl (%rax),%eax
    de30:	0f b7 c0             	movzwl %ax,%eax
    de33:	89 d6                	mov    %edx,%esi
    de35:	89 c7                	mov    %eax,%edi
    de37:	e8 82 8f ff ff       	callq  6dbe <safe_lshift_func_uint16_t_u_s>
    de3c:	0f b7 c0             	movzwl %ax,%eax
    de3f:	be 05 00 00 00       	mov    $0x5,%esi
    de44:	89 c7                	mov    %eax,%edi
    de46:	e8 2f 90 ff ff       	callq  6e7a <safe_rshift_func_uint16_t_u_u>
    de4b:	66 85 c0             	test   %ax,%ax
    de4e:	74 0a                	je     de5a <func_28+0x793>
    de50:	48 83 bd 10 f8 ff ff 	cmpq   $0x0,-0x7f0(%rbp)
    de57:	00 
    de58:	75 09                	jne    de63 <func_28+0x79c>
    de5a:	0f b6 05 d7 91 00 00 	movzbl 0x91d7(%rip),%eax        # 17038 <g_57>
    de61:	84 c0                	test   %al,%al
    de63:	90                   	nop
    de64:	c7 05 da 91 00 00 00 	movl   $0x0,0x91da(%rip)        # 17048 <g_78>
    de6b:	00 00 00 
    de6e:	8b 05 d4 91 00 00    	mov    0x91d4(%rip),%eax        # 17048 <g_78>
    de74:	89 c6                	mov    %eax,%esi
    de76:	bf fc ff ff ff       	mov    $0xfffffffc,%edi
    de7b:	e8 38 90 ff ff       	callq  6eb8 <safe_add_func_uint32_t_u_u>
    de80:	44 89 e2             	mov    %r12d,%edx
    de83:	48 89 de             	mov    %rbx,%rsi
    de86:	89 c7                	mov    %eax,%edi
    de88:	e8 6d 22 00 00       	callq  100fa <func_39>
    de8d:	48 89 c7             	mov    %rax,%rdi
    de90:	e8 36 22 00 00       	callq  100cb <func_37>
    de95:	48 89 c7             	mov    %rax,%rdi
    de98:	e8 a0 11 00 00       	callq  f03d <func_35>
    de9d:	48 89 85 18 f9 ff ff 	mov    %rax,-0x6e8(%rbp)
    dea4:	48 8b 85 18 f9 ff ff 	mov    -0x6e8(%rbp),%rax
    deab:	48 89 c7             	mov    %rax,%rdi
    deae:	e8 9f 04 00 00       	callq  e352 <func_33>
    deb3:	48 8b 05 46 a3 00 00 	mov    0xa346(%rip),%rax        # 18200 <g_79>
    deba:	8b 00                	mov    (%rax),%eax
    debc:	85 c0                	test   %eax,%eax
    debe:	0f 84 12 02 00 00    	je     e0d6 <func_28+0xa0f>
    dec4:	c7 85 ec f7 ff ff 06 	movl   $0x6,-0x814(%rbp)
    decb:	00 00 00 
    dece:	48 c7 85 70 f8 ff ff 	movq   $0x0,-0x790(%rbp)
    ded5:	00 00 00 00 
    ded9:	48 c7 85 78 f8 ff ff 	movq   $0x7,-0x788(%rbp)
    dee0:	07 00 00 00 
    dee4:	48 8d 85 98 f7 ff ff 	lea    -0x868(%rbp),%rax
    deeb:	48 89 85 80 f8 ff ff 	mov    %rax,-0x780(%rbp)
    def2:	66 c7 85 92 f7 ff ff 	movw   $0xfffb,-0x86e(%rbp)
    def9:	fb ff 
    defb:	c7 85 f0 f7 ff ff 36 	movl   $0x9ebce136,-0x810(%rbp)
    df02:	e1 bc 9e 
    df05:	66 c7 85 94 f7 ff ff 	movw   $0x0,-0x86c(%rbp)
    df0c:	00 00 
    df0e:	48 c7 85 88 f8 ff ff 	movq   $0x0,-0x778(%rbp)
    df15:	00 00 00 00 
    df19:	48 c7 85 00 f8 ff ff 	movq   $0x0,-0x800(%rbp)
    df20:	00 00 00 00 
    df24:	48 b8 db db db db db 	movabs $0xdbdbdbdbdbdbdbdb,%rax
    df2b:	db db db 
    df2e:	48 89 85 b8 f8 ff ff 	mov    %rax,-0x748(%rbp)
    df35:	66 c7 85 c0 f8 ff ff 	movw   $0xdbdb,-0x740(%rbp)
    df3c:	db db 
    df3e:	48 b8 fa 01 01 fa fa 	movabs $0xfa0101fafa0101fa,%rax
    df45:	01 01 fa 
    df48:	48 89 85 f0 f8 ff ff 	mov    %rax,-0x710(%rbp)
    df4f:	66 c7 85 f8 f8 ff ff 	movw   $0x1fa,-0x708(%rbp)
    df56:	fa 01 
    df58:	48 b8 fa fa 01 01 fa 	movabs $0x101fafa0101fafa,%rax
    df5f:	fa 01 01 
    df62:	48 89 85 fa f8 ff ff 	mov    %rax,-0x706(%rbp)
    df69:	66 c7 85 02 f9 ff ff 	movw   $0xfafa,-0x6fe(%rbp)
    df70:	fa fa 
    df72:	66 c7 85 96 f7 ff ff 	movw   $0x8,-0x86a(%rbp)
    df79:	08 00 
    df7b:	c7 85 f4 f7 ff ff 11 	movl   $0x55701811,-0x80c(%rbp)
    df82:	18 70 55 
    df85:	48 8d 05 c4 a6 00 00 	lea    0xa6c4(%rip),%rax        # 18650 <g_580>
    df8c:	48 89 85 90 f8 ff ff 	mov    %rax,-0x770(%rbp)
    df93:	48 c7 85 08 f8 ff ff 	movq   $0x0,-0x7f8(%rbp)
    df9a:	00 00 00 00 
    df9e:	c6 85 08 f8 ff ff ef 	movb   $0xef,-0x7f8(%rbp)
    dfa5:	48 8d 85 9c f7 ff ff 	lea    -0x864(%rbp),%rax
    dfac:	48 89 85 98 f8 ff ff 	mov    %rax,-0x768(%rbp)
    dfb3:	48 8d 05 76 a7 00 00 	lea    0xa776(%rip),%rax        # 18730 <g_1303>
    dfba:	48 89 85 a0 f8 ff ff 	mov    %rax,-0x760(%rbp)
    dfc1:	c6 85 8f f7 ff ff 08 	movb   $0x8,-0x871(%rbp)
    dfc8:	c7 85 a8 f7 ff ff 00 	movl   $0x0,-0x858(%rbp)
    dfcf:	00 00 00 
    dfd2:	eb 1a                	jmp    dfee <func_28+0x927>
    dfd4:	8b 85 a8 f7 ff ff    	mov    -0x858(%rbp),%eax
    dfda:	48 98                	cltq   
    dfdc:	c7 84 85 ac f8 ff ff 	movl   $0x7e85767c,-0x754(%rbp,%rax,4)
    dfe3:	7c 76 85 7e 
    dfe7:	83 85 a8 f7 ff ff 01 	addl   $0x1,-0x858(%rbp)
    dfee:	83 bd a8 f7 ff ff 00 	cmpl   $0x0,-0x858(%rbp)
    dff5:	7e dd                	jle    dfd4 <func_28+0x90d>
    dff7:	c7 85 a8 f7 ff ff 00 	movl   $0x0,-0x858(%rbp)
    dffe:	00 00 00 
    e001:	eb 19                	jmp    e01c <func_28+0x955>
    e003:	8b 85 a8 f7 ff ff    	mov    -0x858(%rbp),%eax
    e009:	48 98                	cltq   
    e00b:	66 c7 84 45 c2 f8 ff 	movw   $0xdcba,-0x73e(%rbp,%rax,2)
    e012:	ff ba dc 
    e015:	83 85 a8 f7 ff ff 01 	addl   $0x1,-0x858(%rbp)
    e01c:	83 bd a8 f7 ff ff 06 	cmpl   $0x6,-0x858(%rbp)
    e023:	7e de                	jle    e003 <func_28+0x93c>
    e025:	c7 85 a8 f7 ff ff 00 	movl   $0x0,-0x858(%rbp)
    e02c:	00 00 00 
    e02f:	eb 1b                	jmp    e04c <func_28+0x985>
    e031:	8b 85 a8 f7 ff ff    	mov    -0x858(%rbp),%eax
    e037:	48 98                	cltq   
    e039:	48 c7 84 c5 30 f9 ff 	movq   $0x0,-0x6d0(%rbp,%rax,8)
    e040:	ff 00 00 00 00 
    e045:	83 85 a8 f7 ff ff 01 	addl   $0x1,-0x858(%rbp)
    e04c:	83 bd a8 f7 ff ff 04 	cmpl   $0x4,-0x858(%rbp)
    e053:	7e dc                	jle    e031 <func_28+0x96a>
    e055:	c7 85 a0 f7 ff ff ef 	movl   $0xffffffef,-0x860(%rbp)
    e05c:	ff ff ff 
    e05f:	eb 67                	jmp    e0c8 <func_28+0xa01>
    e061:	48 8b 05 98 a1 00 00 	mov    0xa198(%rip),%rax        # 18200 <g_79>
    e068:	8b 95 ec f7 ff ff    	mov    -0x814(%rbp),%edx
    e06e:	89 10                	mov    %edx,(%rax)
    e070:	48 8b 15 d9 a5 00 00 	mov    0xa5d9(%rip),%rdx        # 18650 <g_580>
    e077:	0f b7 02             	movzwl (%rdx),%eax
    e07a:	8d 48 ff             	lea    -0x1(%rax),%ecx
    e07d:	66 89 0a             	mov    %cx,(%rdx)
    e080:	66 85 c0             	test   %ax,%ax
    e083:	74 11                	je     e096 <func_28+0x9cf>
    e085:	66 83 bd 7c f7 ff ff 	cmpw   $0x0,-0x884(%rbp)
    e08c:	00 
    e08d:	74 07                	je     e096 <func_28+0x9cf>
    e08f:	ba 01 00 00 00       	mov    $0x1,%edx
    e094:	eb 05                	jmp    e09b <func_28+0x9d4>
    e096:	ba 00 00 00 00       	mov    $0x0,%edx
    e09b:	48 8b 05 7e a1 00 00 	mov    0xa17e(%rip),%rax        # 18220 <g_281>
    e0a2:	81 ca c7 f1 00 00    	or     $0xf1c7,%edx
    e0a8:	89 10                	mov    %edx,(%rax)
    e0aa:	8b 85 a0 f7 ff ff    	mov    -0x860(%rbp),%eax
    e0b0:	0f b7 c0             	movzwl %ax,%eax
    e0b3:	be 02 00 00 00       	mov    $0x2,%esi
    e0b8:	89 c7                	mov    %eax,%edi
    e0ba:	e8 40 8c ff ff       	callq  6cff <safe_add_func_uint16_t_u_u>
    e0bf:	0f b7 c0             	movzwl %ax,%eax
    e0c2:	89 85 a0 f7 ff ff    	mov    %eax,-0x860(%rbp)
    e0c8:	83 bd a0 f7 ff ff fb 	cmpl   $0xfffffffb,-0x860(%rbp)
    e0cf:	7d 90                	jge    e061 <func_28+0x99a>
    e0d1:	e9 34 02 00 00       	jmpq   e30a <func_28+0xc43>
    e0d6:	48 8d 05 5b a1 00 00 	lea    0xa15b(%rip),%rax        # 18238 <g_354>
    e0dd:	48 89 85 60 f8 ff ff 	mov    %rax,-0x7a0(%rbp)
    e0e4:	48 8d 05 0d 97 00 00 	lea    0x970d(%rip),%rax        # 177f8 <g_876>
    e0eb:	48 89 85 08 f8 ff ff 	mov    %rax,-0x7f8(%rbp)
    e0f2:	48 8d 85 08 f8 ff ff 	lea    -0x7f8(%rbp),%rax
    e0f9:	48 89 85 30 f9 ff ff 	mov    %rax,-0x6d0(%rbp)
    e100:	48 8d 85 08 f8 ff ff 	lea    -0x7f8(%rbp),%rax
    e107:	48 89 85 38 f9 ff ff 	mov    %rax,-0x6c8(%rbp)
    e10e:	48 8d 85 08 f8 ff ff 	lea    -0x7f8(%rbp),%rax
    e115:	48 89 85 40 f9 ff ff 	mov    %rax,-0x6c0(%rbp)
    e11c:	48 8d 85 08 f8 ff ff 	lea    -0x7f8(%rbp),%rax
    e123:	48 89 85 48 f9 ff ff 	mov    %rax,-0x6b8(%rbp)
    e12a:	48 8d 85 08 f8 ff ff 	lea    -0x7f8(%rbp),%rax
    e131:	48 89 85 50 f9 ff ff 	mov    %rax,-0x6b0(%rbp)
    e138:	48 8d 85 08 f8 ff ff 	lea    -0x7f8(%rbp),%rax
    e13f:	48 89 85 58 f9 ff ff 	mov    %rax,-0x6a8(%rbp)
    e146:	c7 85 cc f7 ff ff 1a 	movl   $0xe7e34d1a,-0x834(%rbp)
    e14d:	4d e3 e7 
    e150:	c7 85 d0 f7 ff ff 13 	movl   $0xfc2c7113,-0x830(%rbp)
    e157:	71 2c fc 
    e15a:	c7 85 d4 f7 ff ff 84 	movl   $0xc2680f84,-0x82c(%rbp)
    e161:	0f 68 c2 
    e164:	c7 85 d8 f7 ff ff 00 	movl   $0x0,-0x828(%rbp)
    e16b:	00 00 00 
    e16e:	c7 85 dc f7 ff ff eb 	movl   $0xa2ed6beb,-0x824(%rbp)
    e175:	6b ed a2 
    e178:	c7 85 e0 f7 ff ff 04 	movl   $0x4,-0x820(%rbp)
    e17f:	00 00 00 
    e182:	c7 85 ac f7 ff ff 26 	movl   $0xfcc5ba26,-0x854(%rbp)
    e189:	ba c5 fc 
    e18c:	48 8b 85 60 f8 ff ff 	mov    -0x7a0(%rbp),%rax
    e193:	48 8d 15 e6 8f 00 00 	lea    0x8fe6(%rip),%rdx        # 17180 <g_190>
    e19a:	48 89 10             	mov    %rdx,(%rax)
    e19d:	48 8b 85 08 f8 ff ff 	mov    -0x7f8(%rbp),%rax
    e1a4:	48 89 05 95 a5 00 00 	mov    %rax,0xa595(%rip)        # 18740 <g_1418>
    e1ab:	c6 05 86 8e 00 00 00 	movb   $0x0,0x8e86(%rip)        # 17038 <g_57>
    e1b2:	e9 44 01 00 00       	jmpq   e2fb <func_28+0xc34>
    e1b7:	c6 85 8e f7 ff ff 3b 	movb   $0x3b,-0x872(%rbp)
    e1be:	c7 85 e4 f7 ff ff 06 	movl   $0x6,-0x81c(%rbp)
    e1c5:	00 00 00 
    e1c8:	c7 85 e8 f7 ff ff 21 	movl   $0x3a1b6221,-0x818(%rbp)
    e1cf:	62 1b 3a 
    e1d2:	48 c7 85 68 f8 ff ff 	movq   $0x0,-0x798(%rbp)
    e1d9:	00 00 00 00 
    e1dd:	c7 85 b0 f7 ff ff 00 	movl   $0x0,-0x850(%rbp)
    e1e4:	00 00 00 
    e1e7:	eb 42                	jmp    e22b <func_28+0xb64>
    e1e9:	c7 85 b4 f7 ff ff 00 	movl   $0x0,-0x84c(%rbp)
    e1f0:	00 00 00 
    e1f3:	eb 26                	jmp    e21b <func_28+0xb54>
    e1f5:	8b 85 b4 f7 ff ff    	mov    -0x84c(%rbp),%eax
    e1fb:	48 63 d0             	movslq %eax,%rdx
    e1fe:	8b 85 b0 f7 ff ff    	mov    -0x850(%rbp),%eax
    e204:	48 98                	cltq   
    e206:	48 01 d0             	add    %rdx,%rax
    e209:	c7 84 85 f0 f8 ff ff 	movl   $0x4bbdc520,-0x710(%rbp,%rax,4)
    e210:	20 c5 bd 4b 
    e214:	83 85 b4 f7 ff ff 01 	addl   $0x1,-0x84c(%rbp)
    e21b:	83 bd b4 f7 ff ff 00 	cmpl   $0x0,-0x84c(%rbp)
    e222:	7e d1                	jle    e1f5 <func_28+0xb2e>
    e224:	83 85 b0 f7 ff ff 01 	addl   $0x1,-0x850(%rbp)
    e22b:	83 bd b0 f7 ff ff 01 	cmpl   $0x1,-0x850(%rbp)
    e232:	7e b5                	jle    e1e9 <func_28+0xb22>
    e234:	48 8b 05 f5 9f 00 00 	mov    0x9ff5(%rip),%rax        # 18230 <g_345>
    e23b:	48 8b 00             	mov    (%rax),%rax
    e23e:	0f be 9d 8e f7 ff ff 	movsbl -0x872(%rbp),%ebx
    e245:	0f b7 85 7c f7 ff ff 	movzwl -0x884(%rbp),%eax
    e24c:	0f b6 c0             	movzbl %al,%eax
    e24f:	89 c6                	mov    %eax,%esi
    e251:	bf 03 00 00 00       	mov    $0x3,%edi
    e256:	e8 1d 89 ff ff       	callq  6b78 <safe_sub_func_uint8_t_u_u>
    e25b:	0f b6 c0             	movzbl %al,%eax
    e25e:	39 c3                	cmp    %eax,%ebx
    e260:	0f 9d c0             	setge  %al
    e263:	0f b6 d0             	movzbl %al,%edx
    e266:	0f bf 85 7c f7 ff ff 	movswl -0x884(%rbp),%eax
    e26d:	39 c2                	cmp    %eax,%edx
    e26f:	0f 9f c0             	setg   %al
    e272:	0f b6 c8             	movzbl %al,%ecx
    e275:	48 8b 05 a4 9f 00 00 	mov    0x9fa4(%rip),%rax        # 18220 <g_281>
    e27c:	8b 10                	mov    (%rax),%edx
    e27e:	48 8b 05 9b 9f 00 00 	mov    0x9f9b(%rip),%rax        # 18220 <g_281>
    e285:	09 ca                	or     %ecx,%edx
    e287:	89 10                	mov    %edx,(%rax)
    e289:	83 85 ac f7 ff ff 01 	addl   $0x1,-0x854(%rbp)
    e290:	48 8b 05 c9 a3 00 00 	mov    0xa3c9(%rip),%rax        # 18660 <g_834>
    e297:	48 8b 00             	mov    (%rax),%rax
    e29a:	48 8b 00             	mov    (%rax),%rax
    e29d:	48 83 bd 50 f8 ff ff 	cmpq   $0x0,-0x7b0(%rbp)
    e2a4:	00 
    e2a5:	40 0f 94 c6          	sete   %sil
    e2a9:	0f bf 95 7c f7 ff ff 	movswl -0x884(%rbp),%edx
    e2b0:	48 83 bd 40 f8 ff ff 	cmpq   $0x0,-0x7c0(%rbp)
    e2b7:	00 
    e2b8:	0f 95 c0             	setne  %al
    e2bb:	0f b6 c8             	movzbl %al,%ecx
    e2be:	0f bf 85 7c f7 ff ff 	movswl -0x884(%rbp),%eax
    e2c5:	39 c1                	cmp    %eax,%ecx
    e2c7:	0f 9d c0             	setge  %al
    e2ca:	0f b6 c0             	movzbl %al,%eax
    e2cd:	39 c2                	cmp    %eax,%edx
    e2cf:	0f 95 c0             	setne  %al
    e2d2:	31 f0                	xor    %esi,%eax
    e2d4:	0f b6 c8             	movzbl %al,%ecx
    e2d7:	48 8b 05 42 9f 00 00 	mov    0x9f42(%rip),%rax        # 18220 <g_281>
    e2de:	8b 10                	mov    (%rax),%edx
    e2e0:	48 8b 05 39 9f 00 00 	mov    0x9f39(%rip),%rax        # 18220 <g_281>
    e2e7:	09 ca                	or     %ecx,%edx
    e2e9:	89 10                	mov    %edx,(%rax)
    e2eb:	0f b6 05 46 8d 00 00 	movzbl 0x8d46(%rip),%eax        # 17038 <g_57>
    e2f2:	83 c0 01             	add    $0x1,%eax
    e2f5:	88 05 3d 8d 00 00    	mov    %al,0x8d3d(%rip)        # 17038 <g_57>
    e2fb:	0f b6 05 36 8d 00 00 	movzbl 0x8d36(%rip),%eax        # 17038 <g_57>
    e302:	3c 0b                	cmp    $0xb,%al
    e304:	0f 86 ad fe ff ff    	jbe    e1b7 <func_28+0xaf0>
    e30a:	48 8b 05 0f a4 00 00 	mov    0xa40f(%rip),%rax        # 18720 <g_1203>
    e311:	48 8b 95 58 f8 ff ff 	mov    -0x7a8(%rbp),%rdx
    e318:	48 89 10             	mov    %rdx,(%rax)
    e31b:	83 ad c8 f7 ff ff 01 	subl   $0x1,-0x838(%rbp)
    e322:	48 8b 05 57 a3 00 00 	mov    0xa357(%rip),%rax        # 18680 <g_1074>
    e329:	48 8b 00             	mov    (%rax),%rax
    e32c:	48 8b 5d c8          	mov    -0x38(%rbp),%rbx
    e330:	64 48 33 1c 25 28 00 	xor    %fs:0x28,%rbx
    e337:	00 00 
    e339:	74 05                	je     e340 <func_28+0xc79>
    e33b:	e8 30 7d ff ff       	callq  6070 <__stack_chk_fail@plt>
    e340:	48 81 c4 68 08 00 00 	add    $0x868,%rsp
    e347:	5b                   	pop    %rbx
    e348:	41 5c                	pop    %r12
    e34a:	41 5d                	pop    %r13
    e34c:	41 5e                	pop    %r14
    e34e:	41 5f                	pop    %r15
    e350:	5d                   	pop    %rbp
    e351:	c3                   	retq   

000000000000e352 <func_33>:
    e352:	f3 0f 1e fa          	endbr64 
    e356:	55                   	push   %rbp
    e357:	48 89 e5             	mov    %rsp,%rbp
    e35a:	41 57                	push   %r15
    e35c:	41 56                	push   %r14
    e35e:	41 55                	push   %r13
    e360:	41 54                	push   %r12
    e362:	53                   	push   %rbx
    e363:	48 81 ec d8 07 00 00 	sub    $0x7d8,%rsp
    e36a:	48 89 bd 08 f8 ff ff 	mov    %rdi,-0x7f8(%rbp)
    e371:	64 48 8b 04 25 28 00 	mov    %fs:0x28,%rax
    e378:	00 00 
    e37a:	48 89 45 c8          	mov    %rax,-0x38(%rbp)
    e37e:	31 c0                	xor    %eax,%eax
    e380:	48 b8 47 5c 31 79 53 	movabs $0x5b901c5379315c47,%rax
    e387:	1c 90 5b 
    e38a:	48 89 85 48 f8 ff ff 	mov    %rax,-0x7b8(%rbp)
    e391:	48 8d 05 b8 a2 00 00 	lea    0xa2b8(%rip),%rax        # 18650 <g_580>
    e398:	48 89 85 88 f8 ff ff 	mov    %rax,-0x778(%rbp)
    e39f:	48 c7 85 50 f8 ff ff 	movq   $0x0,-0x7b0(%rbp)
    e3a6:	00 00 00 00 
    e3aa:	c6 85 50 f8 ff ff db 	movb   $0xdb,-0x7b0(%rbp)
    e3b1:	48 8d 05 c8 8d 00 00 	lea    0x8dc8(%rip),%rax        # 17180 <g_190>
    e3b8:	48 89 85 90 f8 ff ff 	mov    %rax,-0x770(%rbp)
    e3bf:	48 8d 05 ba 8d 00 00 	lea    0x8dba(%rip),%rax        # 17180 <g_190>
    e3c6:	48 89 85 80 f8 ff ff 	mov    %rax,-0x780(%rbp)
    e3cd:	48 8d 05 8a 8c 00 00 	lea    0x8c8a(%rip),%rax        # 1705e <g_83+0xe>
    e3d4:	48 89 85 98 f8 ff ff 	mov    %rax,-0x768(%rbp)
    e3db:	48 8d 05 3e 9e 00 00 	lea    0x9e3e(%rip),%rax        # 18220 <g_281>
    e3e2:	48 89 85 a0 f8 ff ff 	mov    %rax,-0x760(%rbp)
    e3e9:	48 c7 85 58 f8 ff ff 	movq   $0x0,-0x7a8(%rbp)
    e3f0:	00 00 00 00 
    e3f4:	c7 85 1c f8 ff ff f9 	movl   $0xfffffff9,-0x7e4(%rbp)
    e3fb:	ff ff ff 
    e3fe:	48 8d 05 2b 8c 00 00 	lea    0x8c2b(%rip),%rax        # 17030 <g_52>
    e405:	48 89 85 a8 f8 ff ff 	mov    %rax,-0x758(%rbp)
    e40c:	48 c7 85 b0 f8 ff ff 	movq   $0xfffffffffffffff9,-0x750(%rbp)
    e413:	f9 ff ff ff 
    e417:	c7 85 20 f8 ff ff 8b 	movl   $0xa242e48b,-0x7e0(%rbp)
    e41e:	e4 42 a2 
    e421:	c7 85 24 f8 ff ff fb 	movl   $0xfffffffb,-0x7dc(%rbp)
    e428:	ff ff ff 
    e42b:	c7 85 28 f8 ff ff fc 	movl   $0xfffffffc,-0x7d8(%rbp)
    e432:	ff ff ff 
    e435:	48 8d 85 60 fc ff ff 	lea    -0x3a0(%rbp),%rax
    e43c:	48 8d 15 3d 54 00 00 	lea    0x543d(%rip),%rdx        # 13880 <g_2958+0x17c0>
    e443:	b9 6c 00 00 00       	mov    $0x6c,%ecx
    e448:	48 89 c7             	mov    %rax,%rdi
    e44b:	48 89 d6             	mov    %rdx,%rsi
    e44e:	f3 48 a5             	rep movsq %ds:(%rsi),%es:(%rdi)
    e451:	66 c7 85 16 f8 ff ff 	movw   $0x286f,-0x7ea(%rbp)
    e458:	6f 28 
    e45a:	48 b8 13 2f 8e ce 8d 	movabs $0x19ab558dce8e2f13,%rax
    e461:	55 ab 19 
    e464:	48 89 85 b8 f8 ff ff 	mov    %rax,-0x748(%rbp)
    e46b:	c7 85 2c f8 ff ff e8 	movl   $0x43aea9e8,-0x7d4(%rbp)
    e472:	a9 ae 43 
    e475:	c7 85 30 f8 ff ff ff 	movl   $0xffffffff,-0x7d0(%rbp)
    e47c:	ff ff ff 
    e47f:	c7 85 34 f8 ff ff ab 	movl   $0x7804b3ab,-0x7cc(%rbp)
    e486:	b3 04 78 
    e489:	c6 85 13 f8 ff ff 42 	movb   $0x42,-0x7ed(%rbp)
    e490:	0f b6 85 50 f8 ff ff 	movzbl -0x7b0(%rbp),%eax
    e497:	0f b6 d8             	movzbl %al,%ebx
    e49a:	48 83 bd 88 f8 ff ff 	cmpq   $0x0,-0x778(%rbp)
    e4a1:	00 
    e4a2:	41 0f 95 c7          	setne  %r15b
    e4a6:	0f b6 85 50 f8 ff ff 	movzbl -0x7b0(%rbp),%eax
    e4ad:	44 0f b6 e0          	movzbl %al,%r12d
    e4b1:	0f b6 85 50 f8 ff ff 	movzbl -0x7b0(%rbp),%eax
    e4b8:	44 0f b6 e8          	movzbl %al,%r13d
    e4bc:	0f b6 85 50 f8 ff ff 	movzbl -0x7b0(%rbp),%eax
    e4c3:	44 0f be f0          	movsbl %al,%r14d
    e4c7:	48 8b 05 5a 9d 00 00 	mov    0x9d5a(%rip),%rax        # 18228 <g_346>
    e4ce:	48 8b 00             	mov    (%rax),%rax
    e4d1:	48 85 c0             	test   %rax,%rax
    e4d4:	75 3d                	jne    e513 <func_33+0x1c1>
    e4d6:	0f b6 85 50 f8 ff ff 	movzbl -0x7b0(%rbp),%eax
    e4dd:	0f b6 c0             	movzbl %al,%eax
    e4e0:	48 8b 15 39 9d 00 00 	mov    0x9d39(%rip),%rdx        # 18220 <g_281>
    e4e7:	48 89 95 80 f8 ff ff 	mov    %rdx,-0x780(%rbp)
    e4ee:	48 8b 95 80 f8 ff ff 	mov    -0x780(%rbp),%rdx
    e4f5:	48 3b 95 90 f8 ff ff 	cmp    -0x770(%rbp),%rdx
    e4fc:	75 07                	jne    e505 <func_33+0x1b3>
    e4fe:	ba 4d bf b1 eb       	mov    $0xebb1bf4d,%edx
    e503:	eb 05                	jmp    e50a <func_33+0x1b8>
    e505:	ba 4c bf b1 eb       	mov    $0xebb1bf4c,%edx
    e50a:	89 c6                	mov    %eax,%esi
    e50c:	89 d7                	mov    %edx,%edi
    e50e:	e8 bd 89 ff ff       	callq  6ed0 <safe_sub_func_uint32_t_u_u>
    e513:	b8 01 00 00 00       	mov    $0x1,%eax
    e518:	44 39 f0             	cmp    %r14d,%eax
    e51b:	0f 94 c0             	sete   %al
    e51e:	89 c2                	mov    %eax,%edx
    e520:	48 8b 85 98 f8 ff ff 	mov    -0x768(%rbp),%rax
    e527:	88 10                	mov    %dl,(%rax)
    e529:	48 8b 85 98 f8 ff ff 	mov    -0x768(%rbp),%rax
    e530:	0f b6 00             	movzbl (%rax),%eax
    e533:	84 c0                	test   %al,%al
    e535:	74 07                	je     e53e <func_33+0x1ec>
    e537:	b8 01 00 00 00       	mov    $0x1,%eax
    e53c:	eb 05                	jmp    e543 <func_33+0x1f1>
    e53e:	b8 00 00 00 00       	mov    $0x0,%eax
    e543:	48 98                	cltq   
    e545:	4c 89 ee             	mov    %r13,%rsi
    e548:	48 89 c7             	mov    %rax,%rdi
    e54b:	e8 5f 8b ff ff       	callq  70af <safe_div_func_uint64_t_u_u>
    e550:	48 8b 05 a9 9c 00 00 	mov    0x9ca9(%rip),%rax        # 18200 <g_79>
    e557:	8b 10                	mov    (%rax),%edx
    e559:	0f b6 85 50 f8 ff ff 	movzbl -0x7b0(%rbp),%eax
    e560:	0f b6 c0             	movzbl %al,%eax
    e563:	39 c2                	cmp    %eax,%edx
    e565:	0f 94 c0             	sete   %al
    e568:	0f b6 d0             	movzbl %al,%edx
    e56b:	48 8b 85 48 f8 ff ff 	mov    -0x7b8(%rbp),%rax
    e572:	48 39 c2             	cmp    %rax,%rdx
    e575:	0f 95 c0             	setne  %al
    e578:	0f b6 c0             	movzbl %al,%eax
    e57b:	44 89 e6             	mov    %r12d,%esi
    e57e:	89 c7                	mov    %eax,%edi
    e580:	e8 0e 86 ff ff       	callq  6b93 <safe_mul_func_uint8_t_u_u>
    e585:	84 c0                	test   %al,%al
    e587:	74 07                	je     e590 <func_33+0x23e>
    e589:	b8 01 00 00 00       	mov    $0x1,%eax
    e58e:	eb 05                	jmp    e595 <func_33+0x243>
    e590:	b8 00 00 00 00       	mov    $0x0,%eax
    e595:	83 e0 01             	and    $0x1,%eax
    e598:	44 31 f8             	xor    %r15d,%eax
    e59b:	0f b6 c0             	movzbl %al,%eax
    e59e:	48 89 de             	mov    %rbx,%rsi
    e5a1:	48 89 c7             	mov    %rax,%rdi
    e5a4:	e8 85 8a ff ff       	callq  702e <safe_add_func_uint64_t_u_u>
    e5a9:	0f b7 05 d8 8b 00 00 	movzwl 0x8bd8(%rip),%eax        # 17188 <g_191>
    e5b0:	0f b7 c0             	movzwl %ax,%eax
    e5b3:	48 8b 95 48 f8 ff ff 	mov    -0x7b8(%rbp),%rdx
    e5ba:	89 c6                	mov    %eax,%esi
    e5bc:	89 d7                	mov    %edx,%edi
    e5be:	e8 62 89 ff ff       	callq  6f25 <safe_div_func_uint32_t_u_u>
    e5c3:	48 8b 15 56 9c 00 00 	mov    0x9c56(%rip),%rdx        # 18220 <g_281>
    e5ca:	8b 12                	mov    (%rdx),%edx
    e5cc:	21 c2                	and    %eax,%edx
    e5ce:	48 8b 05 4b 9c 00 00 	mov    0x9c4b(%rip),%rax        # 18220 <g_281>
    e5d5:	89 10                	mov    %edx,(%rax)
    e5d7:	48 8b 85 a0 f8 ff ff 	mov    -0x760(%rbp),%rax
    e5de:	48 8d 15 67 8a 00 00 	lea    0x8a67(%rip),%rdx        # 1704c <g_80>
    e5e5:	48 89 10             	mov    %rdx,(%rax)
    e5e8:	48 8b 85 58 f8 ff ff 	mov    -0x7a8(%rbp),%rax
    e5ef:	0f b6 d8             	movzbl %al,%ebx
    e5f2:	b8 ff ff ff ff       	mov    $0xffffffff,%eax
    e5f7:	44 0f b7 e0          	movzwl %ax,%r12d
    e5fb:	48 8b 05 06 9c 00 00 	mov    0x9c06(%rip),%rax        # 18208 <g_104>
    e602:	0f b6 00             	movzbl (%rax),%eax
    e605:	44 0f be e8          	movsbl %al,%r13d
    e609:	0f b6 85 50 f8 ff ff 	movzbl -0x7b0(%rbp),%eax
    e610:	44 0f b6 f0          	movzbl %al,%r14d
    e614:	48 8b 85 48 f8 ff ff 	mov    -0x7b8(%rbp),%rax
    e61b:	49 89 c7             	mov    %rax,%r15
    e61e:	48 8b 15 13 9c 00 00 	mov    0x9c13(%rip),%rdx        # 18238 <g_354>
    e625:	48 8b 05 0c 9c 00 00 	mov    0x9c0c(%rip),%rax        # 18238 <g_354>
    e62c:	48 8b 12             	mov    (%rdx),%rdx
    e62f:	48 89 10             	mov    %rdx,(%rax)
    e632:	0f b6 85 50 f8 ff ff 	movzbl -0x7b0(%rbp),%eax
    e639:	0f b6 d0             	movzbl %al,%edx
    e63c:	0f b6 85 50 f8 ff ff 	movzbl -0x7b0(%rbp),%eax
    e643:	0f b6 c0             	movzbl %al,%eax
    e646:	89 d6                	mov    %edx,%esi
    e648:	89 c7                	mov    %eax,%edi
    e64a:	e8 0b 85 ff ff       	callq  6b5a <safe_add_func_uint8_t_u_u>
    e64f:	0f b6 d0             	movzbl %al,%edx
    e652:	48 83 bd 80 f8 ff ff 	cmpq   $0x0,-0x780(%rbp)
    e659:	00 
    e65a:	0f 95 c0             	setne  %al
    e65d:	0f b6 c0             	movzbl %al,%eax
    e660:	39 c2                	cmp    %eax,%edx
    e662:	0f 9f c0             	setg   %al
    e665:	89 c2                	mov    %eax,%edx
    e667:	48 8b 85 48 f8 ff ff 	mov    -0x7b8(%rbp),%rax
    e66e:	09 d0                	or     %edx,%eax
    e670:	0f b6 d0             	movzbl %al,%edx
    e673:	0f b6 85 50 f8 ff ff 	movzbl -0x7b0(%rbp),%eax
    e67a:	0f b6 c0             	movzbl %al,%eax
    e67d:	89 d6                	mov    %edx,%esi
    e67f:	89 c7                	mov    %eax,%edi
    e681:	e8 f2 84 ff ff       	callq  6b78 <safe_sub_func_uint8_t_u_u>
    e686:	3c 01                	cmp    $0x1,%al
    e688:	48 8b 85 a0 f8 ff ff 	mov    -0x760(%rbp),%rax
    e68f:	48 8b 00             	mov    (%rax),%rax
    e692:	8b 10                	mov    (%rax),%edx
    e694:	48 8b 85 a0 f8 ff ff 	mov    -0x760(%rbp),%rax
    e69b:	48 8b 00             	mov    (%rax),%rax
    e69e:	8b 00                	mov    (%rax),%eax
    e6a0:	48 8b 8d 08 f8 ff ff 	mov    -0x7f8(%rbp),%rcx
    e6a7:	48 89 ce             	mov    %rcx,%rsi
    e6aa:	89 c7                	mov    %eax,%edi
    e6ac:	e8 49 1a 00 00       	callq  100fa <func_39>
    e6b1:	48 89 c7             	mov    %rax,%rdi
    e6b4:	e8 12 1a 00 00       	callq  100cb <func_37>
    e6b9:	48 89 85 08 f8 ff ff 	mov    %rax,-0x7f8(%rbp)
    e6c0:	48 83 bd 08 f8 ff ff 	cmpq   $0x0,-0x7f8(%rbp)
    e6c7:	00 
    e6c8:	48 8b 85 a0 f8 ff ff 	mov    -0x760(%rbp),%rax
    e6cf:	48 8b 00             	mov    (%rax),%rax
    e6d2:	8b 00                	mov    (%rax),%eax
    e6d4:	48 98                	cltq   
    e6d6:	4c 89 fe             	mov    %r15,%rsi
    e6d9:	48 89 c7             	mov    %rax,%rdi
    e6dc:	e8 60 81 ff ff       	callq  6841 <safe_add_func_int64_t_s_s>
    e6e1:	48 8b 15 20 9b 00 00 	mov    0x9b20(%rip),%rdx        # 18208 <g_104>
    e6e8:	0f b6 12             	movzbl (%rdx),%edx
    e6eb:	48 0f be d2          	movsbq %dl,%rdx
    e6ef:	48 39 d0             	cmp    %rdx,%rax
    e6f2:	0f 9e c0             	setle  %al
    e6f5:	0f b6 c0             	movzbl %al,%eax
    e6f8:	44 89 f6             	mov    %r14d,%esi
    e6fb:	89 c7                	mov    %eax,%edi
    e6fd:	e8 d9 84 ff ff       	callq  6bdb <safe_div_func_uint8_t_u_u>
    e702:	84 c0                	test   %al,%al
    e704:	44 89 ee             	mov    %r13d,%esi
    e707:	bf 05 00 00 00       	mov    $0x5,%edi
    e70c:	e8 20 7b ff ff       	callq  6231 <safe_mod_func_int8_t_s_s>
    e711:	0f be c0             	movsbl %al,%eax
    e714:	f7 d0                	not    %eax
    e716:	44 89 e6             	mov    %r12d,%esi
    e719:	89 c7                	mov    %eax,%edi
    e71b:	e8 e5 7e ff ff       	callq  6605 <safe_sub_func_int32_t_s_s>
    e720:	0f b6 c0             	movzbl %al,%eax
    e723:	89 de                	mov    %ebx,%esi
    e725:	89 c7                	mov    %eax,%edi
    e727:	e8 67 84 ff ff       	callq  6b93 <safe_mul_func_uint8_t_u_u>
    e72c:	0f b6 d0             	movzbl %al,%edx
    e72f:	48 8b 05 1a 9f 00 00 	mov    0x9f1a(%rip),%rax        # 18650 <g_580>
    e736:	0f b7 00             	movzwl (%rax),%eax
    e739:	66 39 c2             	cmp    %ax,%dx
    e73c:	0f 94 c0             	sete   %al
    e73f:	0f b6 c0             	movzbl %al,%eax
    e742:	be 01 00 00 00       	mov    $0x1,%esi
    e747:	89 c7                	mov    %eax,%edi
    e749:	e8 6a 87 ff ff       	callq  6eb8 <safe_add_func_uint32_t_u_u>
    e74e:	85 c0                	test   %eax,%eax
    e750:	0f 84 7e 01 00 00    	je     e8d4 <func_33+0x582>
    e756:	c6 85 14 f8 ff ff fb 	movb   $0xfb,-0x7ec(%rbp)
    e75d:	48 8d 05 30 8b 00 00 	lea    0x8b30(%rip),%rax        # 17294 <g_414>
    e764:	48 89 85 18 f9 ff ff 	mov    %rax,-0x6e8(%rbp)
    e76b:	48 8d 05 2e 8b 00 00 	lea    0x8b2e(%rip),%rax        # 172a0 <g_449>
    e772:	48 89 85 20 f9 ff ff 	mov    %rax,-0x6e0(%rbp)
    e779:	c7 85 40 f8 ff ff f6 	movl   $0xfffffff6,-0x7c0(%rbp)
    e780:	ff ff ff 
    e783:	8b 95 1c f8 ff ff    	mov    -0x7e4(%rbp),%edx
    e789:	8b 05 01 8b 00 00    	mov    0x8b01(%rip),%eax        # 17290 <g_282>
    e78f:	89 c1                	mov    %eax,%ecx
    e791:	48 8b 85 18 f9 ff ff 	mov    -0x6e8(%rbp),%rax
    e798:	89 08                	mov    %ecx,(%rax)
    e79a:	0f b6 85 14 f8 ff ff 	movzbl -0x7ec(%rbp),%eax
    e7a1:	48 8b 8d 98 f8 ff ff 	mov    -0x768(%rbp),%rcx
    e7a8:	48 89 ce             	mov    %rcx,%rsi
    e7ab:	89 c7                	mov    %eax,%edi
    e7ad:	e8 48 19 00 00       	callq  100fa <func_39>
    e7b2:	0f b6 05 7f 88 00 00 	movzbl 0x887f(%rip),%eax        # 17038 <g_57>
    e7b9:	0f b6 d8             	movzbl %al,%ebx
    e7bc:	48 8b 85 a0 f8 ff ff 	mov    -0x760(%rbp),%rax
    e7c3:	48 8b 00             	mov    (%rax),%rax
    e7c6:	8b 00                	mov    (%rax),%eax
    e7c8:	44 0f be e0          	movsbl %al,%r12d
    e7cc:	44 0f b6 ad 14 f8 ff 	movzbl -0x7ec(%rbp),%r13d
    e7d3:	ff 
    e7d4:	be 00 00 00 00       	mov    $0x0,%esi
    e7d9:	bf b8 a5 ff ff       	mov    $0xffffa5b8,%edi
    e7de:	e8 47 7d ff ff       	callq  652a <safe_rshift_func_int16_t_s_s>
    e7e3:	44 0f b7 f0          	movzwl %ax,%r14d
    e7e7:	0f b6 85 14 f8 ff ff 	movzbl -0x7ec(%rbp),%eax
    e7ee:	be 07 00 00 00       	mov    $0x7,%esi
    e7f3:	89 c7                	mov    %eax,%edi
    e7f5:	e8 0b 84 ff ff       	callq  6c05 <safe_lshift_func_uint8_t_u_s>
    e7fa:	0f b6 c0             	movzbl %al,%eax
    e7fd:	44 89 f6             	mov    %r14d,%esi
    e800:	89 c7                	mov    %eax,%edi
    e802:	e8 f8 84 ff ff       	callq  6cff <safe_add_func_uint16_t_u_u>
    e807:	66 85 c0             	test   %ax,%ax
    e80a:	75 3c                	jne    e848 <func_33+0x4f6>
    e80c:	48 8b 85 88 f8 ff ff 	mov    -0x778(%rbp),%rax
    e813:	48 8b 95 20 f9 ff ff 	mov    -0x6e0(%rbp),%rdx
    e81a:	48 89 10             	mov    %rdx,(%rax)
    e81d:	48 8b 85 88 f8 ff ff 	mov    -0x778(%rbp),%rax
    e824:	48 8b 00             	mov    (%rax),%rax
    e827:	48 89 85 a8 f8 ff ff 	mov    %rax,-0x758(%rbp)
    e82e:	48 83 bd a8 f8 ff ff 	cmpq   $0x0,-0x758(%rbp)
    e835:	00 
    e836:	74 10                	je     e848 <func_33+0x4f6>
    e838:	48 8b 85 a0 f8 ff ff 	mov    -0x760(%rbp),%rax
    e83f:	48 8b 00             	mov    (%rax),%rax
    e842:	8b 00                	mov    (%rax),%eax
    e844:	85 c0                	test   %eax,%eax
    e846:	74 07                	je     e84f <func_33+0x4fd>
    e848:	b8 01 00 00 00       	mov    $0x1,%eax
    e84d:	eb 05                	jmp    e854 <func_33+0x502>
    e84f:	b8 00 00 00 00       	mov    $0x0,%eax
    e854:	44 89 ee             	mov    %r13d,%esi
    e857:	89 c7                	mov    %eax,%edi
    e859:	e8 72 86 ff ff       	callq  6ed0 <safe_sub_func_uint32_t_u_u>
    e85e:	89 c2                	mov    %eax,%edx
    e860:	48 8b 85 a0 f8 ff ff 	mov    -0x760(%rbp),%rax
    e867:	48 8b 00             	mov    (%rax),%rax
    e86a:	8b 00                	mov    (%rax),%eax
    e86c:	0f b7 c0             	movzwl %ax,%eax
    e86f:	89 d6                	mov    %edx,%esi
    e871:	89 c7                	mov    %eax,%edi
    e873:	e8 02 86 ff ff       	callq  6e7a <safe_rshift_func_uint16_t_u_u>
    e878:	0f be c0             	movsbl %al,%eax
    e87b:	44 89 e6             	mov    %r12d,%esi
    e87e:	89 c7                	mov    %eax,%edi
    e880:	e8 6d 79 ff ff       	callq  61f2 <safe_sub_func_int8_t_s_s>
    e885:	0f be c0             	movsbl %al,%eax
    e888:	89 de                	mov    %ebx,%esi
    e88a:	89 c7                	mov    %eax,%edi
    e88c:	e8 d2 7c ff ff       	callq  6563 <safe_rshift_func_int16_t_s_u>
    e891:	f7 d0                	not    %eax
    e893:	66 c1 e8 0f          	shr    $0xf,%ax
    e897:	0f b6 d0             	movzbl %al,%edx
    e89a:	0f b6 85 14 f8 ff ff 	movzbl -0x7ec(%rbp),%eax
    e8a1:	39 c2                	cmp    %eax,%edx
    e8a3:	48 be d2 4c 68 dd c3 	movabs $0x2433ffc3dd684cd2,%rsi
    e8aa:	ff 33 24 
    e8ad:	bf 01 00 00 00       	mov    $0x1,%edi
    e8b2:	e8 fd 80 ff ff       	callq  69b4 <safe_mod_func_int64_t_s_s>
    e8b7:	0f be c0             	movsbl %al,%eax
    e8ba:	be 01 00 00 00       	mov    $0x1,%esi
    e8bf:	89 c7                	mov    %eax,%edi
    e8c1:	e8 28 7a ff ff       	callq  62ee <safe_lshift_func_int8_t_s_u>
    e8c6:	0f be c0             	movsbl %al,%eax
    e8c9:	31 85 40 f8 ff ff    	xor    %eax,-0x7c0(%rbp)
    e8cf:	e9 ed 02 00 00       	jmpq   ebc1 <func_33+0x86f>
    e8d4:	c7 85 70 f8 ff ff 6f 	movl   $0x4b96a36f,-0x790(%rbp)
    e8db:	a3 96 4b 
    e8de:	48 c7 85 c0 f8 ff ff 	movq   $0x0,-0x740(%rbp)
    e8e5:	00 00 00 00 
    e8e9:	48 8d 85 48 f8 ff ff 	lea    -0x7b8(%rbp),%rax
    e8f0:	48 89 85 c8 f8 ff ff 	mov    %rax,-0x738(%rbp)
    e8f7:	48 8d 85 58 f8 ff ff 	lea    -0x7a8(%rbp),%rax
    e8fe:	48 89 85 d0 f8 ff ff 	mov    %rax,-0x730(%rbp)
    e905:	48 8d 05 54 8a 00 00 	lea    0x8a54(%rip),%rax        # 17360 <g_666>
    e90c:	48 89 85 d8 f8 ff ff 	mov    %rax,-0x728(%rbp)
    e913:	c7 85 78 f8 ff ff d7 	movl   $0x5e8267d7,-0x788(%rbp)
    e91a:	67 82 5e 
    e91d:	c7 85 38 f8 ff ff 73 	movl   $0xf8eeab73,-0x7c8(%rbp)
    e924:	ab ee f8 
    e927:	48 8d 05 62 89 00 00 	lea    0x8962(%rip),%rax        # 17290 <g_282>
    e92e:	48 89 85 e0 f8 ff ff 	mov    %rax,-0x720(%rbp)
    e935:	48 8d 05 d8 89 00 00 	lea    0x89d8(%rip),%rax        # 17314 <g_663+0x54>
    e93c:	48 89 85 e8 f8 ff ff 	mov    %rax,-0x718(%rbp)
    e943:	48 8d 85 78 f8 ff ff 	lea    -0x788(%rbp),%rax
    e94a:	48 89 85 f0 f8 ff ff 	mov    %rax,-0x710(%rbp)
    e951:	48 8d 05 bc 89 00 00 	lea    0x89bc(%rip),%rax        # 17314 <g_663+0x54>
    e958:	48 89 85 f8 f8 ff ff 	mov    %rax,-0x708(%rbp)
    e95f:	48 8d 85 78 f8 ff ff 	lea    -0x788(%rbp),%rax
    e966:	48 89 85 00 f9 ff ff 	mov    %rax,-0x700(%rbp)
    e96d:	48 8d 85 70 f8 ff ff 	lea    -0x790(%rbp),%rax
    e974:	48 89 85 08 f9 ff ff 	mov    %rax,-0x6f8(%rbp)
    e97b:	48 c7 85 20 fb ff ff 	movq   $0x0,-0x4e0(%rbp)
    e982:	00 00 00 00 
    e986:	48 c7 85 28 fb ff ff 	movq   $0x0,-0x4d8(%rbp)
    e98d:	00 00 00 00 
    e991:	48 8d 85 78 f8 ff ff 	lea    -0x788(%rbp),%rax
    e998:	48 89 85 30 fb ff ff 	mov    %rax,-0x4d0(%rbp)
    e99f:	48 c7 85 38 fb ff ff 	movq   $0x0,-0x4c8(%rbp)
    e9a6:	00 00 00 00 
    e9aa:	48 c7 85 40 fb ff ff 	movq   $0x0,-0x4c0(%rbp)
    e9b1:	00 00 00 00 
    e9b5:	48 8d 85 78 f8 ff ff 	lea    -0x788(%rbp),%rax
    e9bc:	48 89 85 48 fb ff ff 	mov    %rax,-0x4b8(%rbp)
    e9c3:	48 c7 85 50 fb ff ff 	movq   $0x0,-0x4b0(%rbp)
    e9ca:	00 00 00 00 
    e9ce:	48 c7 85 58 fb ff ff 	movq   $0x0,-0x4a8(%rbp)
    e9d5:	00 00 00 00 
    e9d9:	48 8d 85 78 f8 ff ff 	lea    -0x788(%rbp),%rax
    e9e0:	48 89 85 60 fb ff ff 	mov    %rax,-0x4a0(%rbp)
    e9e7:	48 c7 85 68 fb ff ff 	movq   $0x0,-0x498(%rbp)
    e9ee:	00 00 00 00 
    e9f2:	c7 85 3c f8 ff ff 44 	movl   $0x5c307d44,-0x7c4(%rbp)
    e9f9:	7d 30 5c 
    e9fc:	48 c7 85 10 f9 ff ff 	movq   $0xffffffffffffffff,-0x6f0(%rbp)
    ea03:	ff ff ff ff 
    ea07:	48 c7 85 48 f8 ff ff 	movq   $0x0,-0x7b8(%rbp)
    ea0e:	00 00 00 00 
    ea12:	90                   	nop
    ea13:	48 8b 85 48 f8 ff ff 	mov    -0x7b8(%rbp),%rax
    ea1a:	48 83 f8 06          	cmp    $0x6,%rax
    ea1e:	77 0c                	ja     ea2c <func_33+0x6da>
    ea20:	48 8b 05 01 86 00 00 	mov    0x8601(%rip),%rax        # 17028 <g_4>
    ea27:	e9 eb 05 00 00       	jmpq   f017 <func_33+0xcc5>
    ea2c:	48 8b 05 0d 98 00 00 	mov    0x980d(%rip),%rax        # 18240 <g_379>
    ea33:	0f b7 00             	movzwl (%rax),%eax
    ea36:	98                   	cwtl   
    ea37:	89 85 70 f8 ff ff    	mov    %eax,-0x790(%rbp)
    ea3d:	8b 85 70 f8 ff ff    	mov    -0x790(%rbp),%eax
    ea43:	98                   	cwtl   
    ea44:	be d0 3c 00 00       	mov    $0x3cd0,%esi
    ea49:	89 c7                	mov    %eax,%edi
    ea4b:	e8 a5 79 ff ff       	callq  63f5 <safe_mul_func_int16_t_s_s>
    ea50:	66 85 c0             	test   %ax,%ax
    ea53:	0f 85 0d 01 00 00    	jne    eb66 <func_33+0x814>
    ea59:	48 8b 85 a0 f8 ff ff 	mov    -0x760(%rbp),%rax
    ea60:	48 8b 00             	mov    (%rax),%rax
    ea63:	8b 00                	mov    (%rax),%eax
    ea65:	85 c0                	test   %eax,%eax
    ea67:	0f 85 8f 00 00 00    	jne    eafc <func_33+0x7aa>
    ea6d:	8b 95 70 f8 ff ff    	mov    -0x790(%rbp),%edx
    ea73:	48 8b 05 c6 97 00 00 	mov    0x97c6(%rip),%rax        # 18240 <g_379>
    ea7a:	66 89 10             	mov    %dx,(%rax)
    ea7d:	48 8b 85 c8 f8 ff ff 	mov    -0x738(%rbp),%rax
    ea84:	48 8b 00             	mov    (%rax),%rax
    ea87:	48 8d 50 ff          	lea    -0x1(%rax),%rdx
    ea8b:	48 8b 85 c8 f8 ff ff 	mov    -0x738(%rbp),%rax
    ea92:	48 89 10             	mov    %rdx,(%rax)
    ea95:	be 08 00 00 00       	mov    $0x8,%esi
    ea9a:	bf ff ff ff ff       	mov    $0xffffffff,%edi
    ea9f:	e8 ee 79 ff ff       	callq  6492 <safe_lshift_func_int16_t_s_s>
    eaa4:	48 8b 85 a0 f8 ff ff 	mov    -0x760(%rbp),%rax
    eaab:	48 8b 00             	mov    (%rax),%rax
    eaae:	8b 00                	mov    (%rax),%eax
    eab0:	85 c0                	test   %eax,%eax
    eab2:	75 0a                	jne    eabe <func_33+0x76c>
    eab4:	8b 85 70 f8 ff ff    	mov    -0x790(%rbp),%eax
    eaba:	85 c0                	test   %eax,%eax
    eabc:	74 11                	je     eacf <func_33+0x77d>
    eabe:	8b 05 50 88 00 00    	mov    0x8850(%rip),%eax        # 17314 <g_663+0x54>
    eac4:	85 c0                	test   %eax,%eax
    eac6:	74 07                	je     eacf <func_33+0x77d>
    eac8:	ba 01 00 00 00       	mov    $0x1,%edx
    eacd:	eb 05                	jmp    ead4 <func_33+0x782>
    eacf:	ba 00 00 00 00       	mov    $0x0,%edx
    ead4:	8b 85 70 f8 ff ff    	mov    -0x790(%rbp),%eax
    eada:	39 c2                	cmp    %eax,%edx
    eadc:	0f 94 c0             	sete   %al
    eadf:	0f b6 c0             	movzbl %al,%eax
    eae2:	be 05 00 00 00       	mov    $0x5,%esi
    eae7:	89 c7                	mov    %eax,%edi
    eae9:	e8 b3 77 ff ff       	callq  62a1 <safe_lshift_func_int8_t_s_s>
    eaee:	48 0f be d0          	movsbq %al,%rdx
    eaf2:	48 8b 85 d0 f8 ff ff 	mov    -0x730(%rbp),%rax
    eaf9:	48 89 10             	mov    %rdx,(%rax)
    eafc:	48 8b 05 4d 9b 00 00 	mov    0x9b4d(%rip),%rax        # 18650 <g_580>
    eb03:	0f b7 00             	movzwl (%rax),%eax
    eb06:	0f b7 c0             	movzwl %ax,%eax
    eb09:	be 00 00 00 00       	mov    $0x0,%esi
    eb0e:	89 c7                	mov    %eax,%edi
    eb10:	e8 33 83 ff ff       	callq  6e48 <safe_rshift_func_uint16_t_u_s>
    eb15:	8b 85 70 f8 ff ff    	mov    -0x790(%rbp),%eax
    eb1b:	83 f8 01             	cmp    $0x1,%eax
    eb1e:	0f 94 c0             	sete   %al
    eb21:	0f b6 d0             	movzbl %al,%edx
    eb24:	48 8b 85 d8 f8 ff ff 	mov    -0x728(%rbp),%rax
    eb2b:	0f b7 00             	movzwl (%rax),%eax
    eb2e:	21 c2                	and    %eax,%edx
    eb30:	48 8b 85 d8 f8 ff ff 	mov    -0x728(%rbp),%rax
    eb37:	66 89 10             	mov    %dx,(%rax)
    eb3a:	48 8b 85 d8 f8 ff ff 	mov    -0x728(%rbp),%rax
    eb41:	0f b7 00             	movzwl (%rax),%eax
    eb44:	0f bf d0             	movswl %ax,%edx
    eb47:	8b 85 78 f8 ff ff    	mov    -0x788(%rbp),%eax
    eb4d:	21 d0                	and    %edx,%eax
    eb4f:	89 85 78 f8 ff ff    	mov    %eax,-0x788(%rbp)
    eb55:	48 8b 85 a0 f8 ff ff 	mov    -0x760(%rbp),%rax
    eb5c:	48 8b 00             	mov    (%rax),%rax
    eb5f:	8b 00                	mov    (%rax),%eax
    eb61:	83 f8 6d             	cmp    $0x6d,%eax
    eb64:	7e 07                	jle    eb6d <func_33+0x81b>
    eb66:	ba 01 00 00 00       	mov    $0x1,%edx
    eb6b:	eb 05                	jmp    eb72 <func_33+0x820>
    eb6d:	ba 00 00 00 00       	mov    $0x0,%edx
    eb72:	48 8b 85 98 f8 ff ff 	mov    -0x768(%rbp),%rax
    eb79:	0f b6 00             	movzbl (%rax),%eax
    eb7c:	89 c1                	mov    %eax,%ecx
    eb7e:	89 d0                	mov    %edx,%eax
    eb80:	09 c8                	or     %ecx,%eax
    eb82:	89 c2                	mov    %eax,%edx
    eb84:	48 8b 85 98 f8 ff ff 	mov    -0x768(%rbp),%rax
    eb8b:	88 10                	mov    %dl,(%rax)
    eb8d:	48 8b 85 98 f8 ff ff 	mov    -0x768(%rbp),%rax
    eb94:	0f b6 00             	movzbl (%rax),%eax
    eb97:	0f b6 c0             	movzbl %al,%eax
    eb9a:	39 85 38 f8 ff ff    	cmp    %eax,-0x7c8(%rbp)
    eba0:	0f 9c c2             	setl   %dl
    eba3:	48 8b 85 a0 f8 ff ff 	mov    -0x760(%rbp),%rax
    ebaa:	48 8b 00             	mov    (%rax),%rax
    ebad:	0f b6 d2             	movzbl %dl,%edx
    ebb0:	89 10                	mov    %edx,(%rax)
    ebb2:	83 85 3c f8 ff ff 01 	addl   $0x1,-0x7c4(%rbp)
    ebb9:	48 83 ad 10 f9 ff ff 	subq   $0x1,-0x6f0(%rbp)
    ebc0:	01 
    ebc1:	48 c7 85 58 f8 ff ff 	movq   $0x1a,-0x7a8(%rbp)
    ebc8:	1a 00 00 00 
    ebcc:	e9 2e 04 00 00       	jmpq   efff <func_33+0xcad>
    ebd1:	48 c7 85 60 f8 ff ff 	movq   $0x0,-0x7a0(%rbp)
    ebd8:	00 00 00 00 
    ebdc:	48 8d 05 e5 b3 00 00 	lea    0xb3e5(%rip),%rax        # 19fc8 <g_32>
    ebe3:	48 89 85 28 f9 ff ff 	mov    %rax,-0x6d8(%rbp)
    ebea:	48 c7 85 30 f9 ff ff 	movq   $0x0,-0x6d0(%rbp)
    ebf1:	00 00 00 00 
    ebf5:	48 c7 85 38 f9 ff ff 	movq   $0x0,-0x6c8(%rbp)
    ebfc:	00 00 00 00 
    ec00:	c7 85 44 f8 ff ff 28 	movl   $0x80e98d28,-0x7bc(%rbp)
    ec07:	8d e9 80 
    ec0a:	48 8d 85 60 fc ff ff 	lea    -0x3a0(%rbp),%rax
    ec11:	48 05 7c 02 00 00    	add    $0x27c,%rax
    ec17:	48 89 85 c0 f9 ff ff 	mov    %rax,-0x640(%rbp)
    ec1e:	48 8d 85 60 fc ff ff 	lea    -0x3a0(%rbp),%rax
    ec25:	48 05 7c 02 00 00    	add    $0x27c,%rax
    ec2b:	48 89 85 c8 f9 ff ff 	mov    %rax,-0x638(%rbp)
    ec32:	48 8d 85 60 fc ff ff 	lea    -0x3a0(%rbp),%rax
    ec39:	48 05 7c 02 00 00    	add    $0x27c,%rax
    ec3f:	48 89 85 d0 f9 ff ff 	mov    %rax,-0x630(%rbp)
    ec46:	48 8d 85 60 fc ff ff 	lea    -0x3a0(%rbp),%rax
    ec4d:	48 05 7c 02 00 00    	add    $0x27c,%rax
    ec53:	48 89 85 d8 f9 ff ff 	mov    %rax,-0x628(%rbp)
    ec5a:	48 8d 85 60 fc ff ff 	lea    -0x3a0(%rbp),%rax
    ec61:	48 05 7c 02 00 00    	add    $0x27c,%rax
    ec67:	48 89 85 e0 f9 ff ff 	mov    %rax,-0x620(%rbp)
    ec6e:	48 8d 85 60 fc ff ff 	lea    -0x3a0(%rbp),%rax
    ec75:	48 05 7c 02 00 00    	add    $0x27c,%rax
    ec7b:	48 89 85 e8 f9 ff ff 	mov    %rax,-0x618(%rbp)
    ec82:	48 8d 85 60 fc ff ff 	lea    -0x3a0(%rbp),%rax
    ec89:	48 05 7c 02 00 00    	add    $0x27c,%rax
    ec8f:	48 89 85 f0 f9 ff ff 	mov    %rax,-0x610(%rbp)
    ec96:	48 8d 85 60 fc ff ff 	lea    -0x3a0(%rbp),%rax
    ec9d:	48 05 7c 02 00 00    	add    $0x27c,%rax
    eca3:	48 89 85 f8 f9 ff ff 	mov    %rax,-0x608(%rbp)
    ecaa:	48 8d 85 58 f8 ff ff 	lea    -0x7a8(%rbp),%rax
    ecb1:	48 89 85 20 fb ff ff 	mov    %rax,-0x4e0(%rbp)
    ecb8:	48 8d 85 48 f8 ff ff 	lea    -0x7b8(%rbp),%rax
    ecbf:	48 89 85 28 fb ff ff 	mov    %rax,-0x4d8(%rbp)
    ecc6:	48 8d 85 48 f8 ff ff 	lea    -0x7b8(%rbp),%rax
    eccd:	48 89 85 30 fb ff ff 	mov    %rax,-0x4d0(%rbp)
    ecd4:	48 8d 85 58 f8 ff ff 	lea    -0x7a8(%rbp),%rax
    ecdb:	48 89 85 38 fb ff ff 	mov    %rax,-0x4c8(%rbp)
    ece2:	48 8d 85 58 f8 ff ff 	lea    -0x7a8(%rbp),%rax
    ece9:	48 89 85 40 fb ff ff 	mov    %rax,-0x4c0(%rbp)
    ecf0:	48 c7 85 48 fb ff ff 	movq   $0x0,-0x4b8(%rbp)
    ecf7:	00 00 00 00 
    ecfb:	48 8d 85 48 f8 ff ff 	lea    -0x7b8(%rbp),%rax
    ed02:	48 89 85 50 fb ff ff 	mov    %rax,-0x4b0(%rbp)
    ed09:	48 c7 85 58 fb ff ff 	movq   $0x0,-0x4a8(%rbp)
    ed10:	00 00 00 00 
    ed14:	48 8d 85 48 f8 ff ff 	lea    -0x7b8(%rbp),%rax
    ed1b:	48 89 85 60 fb ff ff 	mov    %rax,-0x4a0(%rbp)
    ed22:	48 c7 85 68 fb ff ff 	movq   $0x0,-0x498(%rbp)
    ed29:	00 00 00 00 
    ed2d:	48 8d 85 58 f8 ff ff 	lea    -0x7a8(%rbp),%rax
    ed34:	48 89 85 70 fb ff ff 	mov    %rax,-0x490(%rbp)
    ed3b:	48 8d 85 58 f8 ff ff 	lea    -0x7a8(%rbp),%rax
    ed42:	48 89 85 78 fb ff ff 	mov    %rax,-0x488(%rbp)
    ed49:	48 8d 85 58 f8 ff ff 	lea    -0x7a8(%rbp),%rax
    ed50:	48 89 85 80 fb ff ff 	mov    %rax,-0x480(%rbp)
    ed57:	48 8d 85 48 f8 ff ff 	lea    -0x7b8(%rbp),%rax
    ed5e:	48 89 85 88 fb ff ff 	mov    %rax,-0x478(%rbp)
    ed65:	48 8d 85 58 f8 ff ff 	lea    -0x7a8(%rbp),%rax
    ed6c:	48 89 85 90 fb ff ff 	mov    %rax,-0x470(%rbp)
    ed73:	48 8d 85 58 f8 ff ff 	lea    -0x7a8(%rbp),%rax
    ed7a:	48 89 85 98 fb ff ff 	mov    %rax,-0x468(%rbp)
    ed81:	48 8d 85 48 f8 ff ff 	lea    -0x7b8(%rbp),%rax
    ed88:	48 89 85 a0 fb ff ff 	mov    %rax,-0x460(%rbp)
    ed8f:	48 c7 85 a8 fb ff ff 	movq   $0x0,-0x458(%rbp)
    ed96:	00 00 00 00 
    ed9a:	48 8d 85 48 f8 ff ff 	lea    -0x7b8(%rbp),%rax
    eda1:	48 89 85 b0 fb ff ff 	mov    %rax,-0x450(%rbp)
    eda8:	48 8d 85 58 f8 ff ff 	lea    -0x7a8(%rbp),%rax
    edaf:	48 89 85 b8 fb ff ff 	mov    %rax,-0x448(%rbp)
    edb6:	48 8d 85 58 f8 ff ff 	lea    -0x7a8(%rbp),%rax
    edbd:	48 89 85 c0 fb ff ff 	mov    %rax,-0x440(%rbp)
    edc4:	48 8d 85 48 f8 ff ff 	lea    -0x7b8(%rbp),%rax
    edcb:	48 89 85 c8 fb ff ff 	mov    %rax,-0x438(%rbp)
    edd2:	48 8d 85 58 f8 ff ff 	lea    -0x7a8(%rbp),%rax
    edd9:	48 89 85 d0 fb ff ff 	mov    %rax,-0x430(%rbp)
    ede0:	48 8d 85 58 f8 ff ff 	lea    -0x7a8(%rbp),%rax
    ede7:	48 89 85 d8 fb ff ff 	mov    %rax,-0x428(%rbp)
    edee:	48 8d 85 58 f8 ff ff 	lea    -0x7a8(%rbp),%rax
    edf5:	48 89 85 e0 fb ff ff 	mov    %rax,-0x420(%rbp)
    edfc:	48 c7 85 e8 fb ff ff 	movq   $0x0,-0x418(%rbp)
    ee03:	00 00 00 00 
    ee07:	48 8d 85 48 f8 ff ff 	lea    -0x7b8(%rbp),%rax
    ee0e:	48 89 85 f0 fb ff ff 	mov    %rax,-0x410(%rbp)
    ee15:	48 c7 85 f8 fb ff ff 	movq   $0x0,-0x408(%rbp)
    ee1c:	00 00 00 00 
    ee20:	48 8d 85 48 f8 ff ff 	lea    -0x7b8(%rbp),%rax
    ee27:	48 89 85 00 fc ff ff 	mov    %rax,-0x400(%rbp)
    ee2e:	48 c7 85 08 fc ff ff 	movq   $0x0,-0x3f8(%rbp)
    ee35:	00 00 00 00 
    ee39:	48 8d 85 58 f8 ff ff 	lea    -0x7a8(%rbp),%rax
    ee40:	48 89 85 10 fc ff ff 	mov    %rax,-0x3f0(%rbp)
    ee47:	48 8d 85 58 f8 ff ff 	lea    -0x7a8(%rbp),%rax
    ee4e:	48 89 85 18 fc ff ff 	mov    %rax,-0x3e8(%rbp)
    ee55:	48 8d 85 48 f8 ff ff 	lea    -0x7b8(%rbp),%rax
    ee5c:	48 89 85 20 fc ff ff 	mov    %rax,-0x3e0(%rbp)
    ee63:	48 8d 85 48 f8 ff ff 	lea    -0x7b8(%rbp),%rax
    ee6a:	48 89 85 28 fc ff ff 	mov    %rax,-0x3d8(%rbp)
    ee71:	48 8d 85 58 f8 ff ff 	lea    -0x7a8(%rbp),%rax
    ee78:	48 89 85 30 fc ff ff 	mov    %rax,-0x3d0(%rbp)
    ee7f:	48 8d 85 58 f8 ff ff 	lea    -0x7a8(%rbp),%rax
    ee86:	48 89 85 38 fc ff ff 	mov    %rax,-0x3c8(%rbp)
    ee8d:	48 8d 85 48 f8 ff ff 	lea    -0x7b8(%rbp),%rax
    ee94:	48 89 85 40 fc ff ff 	mov    %rax,-0x3c0(%rbp)
    ee9b:	48 c7 85 48 fc ff ff 	movq   $0x0,-0x3b8(%rbp)
    eea2:	00 00 00 00 
    eea6:	48 8d 85 48 f8 ff ff 	lea    -0x7b8(%rbp),%rax
    eead:	48 89 85 50 fc ff ff 	mov    %rax,-0x3b0(%rbp)
    eeb4:	48 8d 85 58 f8 ff ff 	lea    -0x7a8(%rbp),%rax
    eebb:	48 89 85 58 fc ff ff 	mov    %rax,-0x3a8(%rbp)
    eec2:	48 8d 05 97 84 00 00 	lea    0x8497(%rip),%rax        # 17360 <g_666>
    eec9:	48 89 85 40 f9 ff ff 	mov    %rax,-0x6c0(%rbp)
    eed0:	48 c7 85 90 f9 ff ff 	movq   $0x0,-0x670(%rbp)
    eed7:	00 00 00 00 
    eedb:	48 c7 85 98 f9 ff ff 	movq   $0x0,-0x668(%rbp)
    eee2:	00 00 00 00 
    eee6:	48 c7 85 a0 f9 ff ff 	movq   $0x0,-0x660(%rbp)
    eeed:	00 00 00 00 
    eef1:	48 c7 85 a8 f9 ff ff 	movq   $0x0,-0x658(%rbp)
    eef8:	00 00 00 00 
    eefc:	48 c7 85 b0 f9 ff ff 	movq   $0x0,-0x650(%rbp)
    ef03:	00 00 00 00 
    ef07:	c6 85 15 f8 ff ff 35 	movb   $0x35,-0x7eb(%rbp)
    ef0e:	48 8d 05 23 96 00 00 	lea    0x9623(%rip),%rax        # 18538 <g_509+0x218>
    ef15:	48 89 85 48 f9 ff ff 	mov    %rax,-0x6b8(%rbp)
    ef1c:	48 c7 85 50 f9 ff ff 	movq   $0x0,-0x6b0(%rbp)
    ef23:	00 00 00 00 
    ef27:	48 c7 85 58 f9 ff ff 	movq   $0x0,-0x6a8(%rbp)
    ef2e:	00 00 00 00 
    ef32:	48 8d 85 48 f8 ff ff 	lea    -0x7b8(%rbp),%rax
    ef39:	48 89 85 60 f9 ff ff 	mov    %rax,-0x6a0(%rbp)
    ef40:	48 c7 85 68 f8 ff ff 	movq   $0x0,-0x798(%rbp)
    ef47:	00 00 00 00 
    ef4b:	c6 85 68 f8 ff ff 03 	movb   $0x3,-0x798(%rbp)
    ef52:	48 8d 05 77 b0 00 00 	lea    0xb077(%rip),%rax        # 19fd0 <g_917>
    ef59:	48 89 85 68 f9 ff ff 	mov    %rax,-0x698(%rbp)
    ef60:	48 c7 85 70 f9 ff ff 	movq   $0x0,-0x690(%rbp)
    ef67:	00 00 00 00 
    ef6b:	48 8d 05 96 88 00 00 	lea    0x8896(%rip),%rax        # 17808 <g_923>
    ef72:	48 89 85 70 f8 ff ff 	mov    %rax,-0x790(%rbp)
    ef79:	48 8d 85 70 f8 ff ff 	lea    -0x790(%rbp),%rax
    ef80:	48 89 85 78 f8 ff ff 	mov    %rax,-0x788(%rbp)
    ef87:	48 8d 85 78 f8 ff ff 	lea    -0x788(%rbp),%rax
    ef8e:	48 89 85 78 f9 ff ff 	mov    %rax,-0x688(%rbp)
    ef95:	48 8d 85 00 fa ff ff 	lea    -0x600(%rbp),%rax
    ef9c:	48 8d 15 3d 4c 00 00 	lea    0x4c3d(%rip),%rdx        # 13be0 <g_2958+0x1b20>
    efa3:	b9 24 00 00 00       	mov    $0x24,%ecx
    efa8:	48 89 c7             	mov    %rax,%rdi
    efab:	48 89 d6             	mov    %rdx,%rsi
    efae:	f3 48 a5             	rep movsq %ds:(%rsi),%es:(%rdi)
    efb1:	48 8d 05 80 92 00 00 	lea    0x9280(%rip),%rax        # 18238 <g_354>
    efb8:	48 89 85 80 f9 ff ff 	mov    %rax,-0x680(%rbp)
    efbf:	c7 85 18 f8 ff ff 00 	movl   $0x0,-0x7e8(%rbp)
    efc6:	00 00 00 
    efc9:	eb 19                	jmp    efe4 <func_33+0xc92>
    efcb:	8b 85 18 f8 ff ff    	mov    -0x7e8(%rbp),%eax
    efd1:	48 98                	cltq   
    efd3:	66 c7 84 45 8a f9 ff 	movw   $0xffff,-0x676(%rbp,%rax,2)
    efda:	ff ff ff 
    efdd:	83 85 18 f8 ff ff 01 	addl   $0x1,-0x7e8(%rbp)
    efe4:	83 bd 18 f8 ff ff 02 	cmpl   $0x2,-0x7e8(%rbp)
    efeb:	7e de                	jle    efcb <func_33+0xc79>
    efed:	48 8b 85 58 f8 ff ff 	mov    -0x7a8(%rbp),%rax
    eff4:	48 83 e8 01          	sub    $0x1,%rax
    eff8:	48 89 85 58 f8 ff ff 	mov    %rax,-0x7a8(%rbp)
    efff:	48 8b 85 58 f8 ff ff 	mov    -0x7a8(%rbp),%rax
    f006:	48 83 f8 05          	cmp    $0x5,%rax
    f00a:	0f 86 c1 fb ff ff    	jbe    ebd1 <func_33+0x87f>
    f010:	48 8b 85 50 f8 ff ff 	mov    -0x7b0(%rbp),%rax
    f017:	48 8b 5d c8          	mov    -0x38(%rbp),%rbx
    f01b:	64 48 33 1c 25 28 00 	xor    %fs:0x28,%rbx
    f022:	00 00 
    f024:	74 05                	je     f02b <func_33+0xcd9>
    f026:	e8 45 70 ff ff       	callq  6070 <__stack_chk_fail@plt>
    f02b:	48 81 c4 d8 07 00 00 	add    $0x7d8,%rsp
    f032:	5b                   	pop    %rbx
    f033:	41 5c                	pop    %r12
    f035:	41 5d                	pop    %r13
    f037:	41 5e                	pop    %r14
    f039:	41 5f                	pop    %r15
    f03b:	5d                   	pop    %rbp
    f03c:	c3                   	retq   

000000000000f03d <func_35>:
    f03d:	f3 0f 1e fa          	endbr64 
    f041:	55                   	push   %rbp
    f042:	48 89 e5             	mov    %rsp,%rbp
    f045:	48 81 ec 30 0d 00 00 	sub    $0xd30,%rsp
    f04c:	48 89 bd d8 f2 ff ff 	mov    %rdi,-0xd28(%rbp)
    f053:	64 48 8b 04 25 28 00 	mov    %fs:0x28,%rax
    f05a:	00 00 
    f05c:	48 89 45 f8          	mov    %rax,-0x8(%rbp)
    f060:	31 c0                	xor    %eax,%eax
    f062:	48 c7 85 30 f3 ff ff 	movq   $0x0,-0xcd0(%rbp)
    f069:	00 00 00 00 
    f06d:	48 8d 05 d8 7f 00 00 	lea    0x7fd8(%rip),%rax        # 1704c <g_80>
    f074:	48 89 85 38 f3 ff ff 	mov    %rax,-0xcc8(%rbp)
    f07b:	48 c7 85 40 f3 ff ff 	movq   $0x0,-0xcc0(%rbp)
    f082:	00 00 00 00 
    f086:	66 c7 85 e8 f2 ff ff 	movw   $0xa515,-0xd18(%rbp)
    f08d:	15 a5 
    f08f:	48 8d 05 aa 7f 00 00 	lea    0x7faa(%rip),%rax        # 17040 <g_76>
    f096:	48 89 85 00 f3 ff ff 	mov    %rax,-0xd00(%rbp)
    f09d:	48 8d 85 00 f3 ff ff 	lea    -0xd00(%rbp),%rax
    f0a4:	48 89 85 48 f3 ff ff 	mov    %rax,-0xcb8(%rbp)
    f0ab:	48 c7 85 08 f3 ff ff 	movq   $0x0,-0xcf8(%rbp)
    f0b2:	00 00 00 00 
    f0b6:	c6 85 08 f3 ff ff 5c 	movb   $0x5c,-0xcf8(%rbp)
    f0bd:	48 8d 05 88 7f 00 00 	lea    0x7f88(%rip),%rax        # 1704c <g_80>
    f0c4:	48 89 85 50 f3 ff ff 	mov    %rax,-0xcb0(%rbp)
    f0cb:	48 8d 05 8a 7f 00 00 	lea    0x7f8a(%rip),%rax        # 1705c <g_83+0xc>
    f0d2:	48 89 85 10 f3 ff ff 	mov    %rax,-0xcf0(%rbp)
    f0d9:	c7 85 ec f2 ff ff 71 	movl   $0x35ac3371,-0xd14(%rbp)
    f0e0:	33 ac 35 
    f0e3:	48 8d 85 d0 f4 ff ff 	lea    -0xb30(%rbp),%rax
    f0ea:	48 8d 15 0f 4c 00 00 	lea    0x4c0f(%rip),%rdx        # 13d00 <g_2958+0x1c40>
    f0f1:	b9 24 00 00 00       	mov    $0x24,%ecx
    f0f6:	48 89 c7             	mov    %rax,%rdi
    f0f9:	48 89 d6             	mov    %rdx,%rsi
    f0fc:	f3 48 a5             	rep movsq %ds:(%rsi),%es:(%rdi)
    f0ff:	48 c7 85 18 f3 ff ff 	movq   $0x0,-0xce8(%rbp)
    f106:	00 00 00 00 
    f10a:	48 8d 05 2f 7f 00 00 	lea    0x7f2f(%rip),%rax        # 17040 <g_76>
    f111:	48 89 85 58 f3 ff ff 	mov    %rax,-0xca8(%rbp)
    f118:	48 8d 85 ec f2 ff ff 	lea    -0xd14(%rbp),%rax
    f11f:	48 89 85 60 f3 ff ff 	mov    %rax,-0xca0(%rbp)
    f126:	48 8d 85 f0 f5 ff ff 	lea    -0xa10(%rbp),%rax
    f12d:	48 8d 15 4c 8e 00 00 	lea    0x8e4c(%rip),%rdx        # 17f80 <g_3177+0x620>
    f134:	b9 50 00 00 00       	mov    $0x50,%ecx
    f139:	48 89 c7             	mov    %rax,%rdi
    f13c:	48 89 d6             	mov    %rdx,%rsi
    f13f:	f3 48 a5             	rep movsq %ds:(%rsi),%es:(%rdi)
    f142:	48 8d 05 bf 90 00 00 	lea    0x90bf(%rip),%rax        # 18208 <g_104>
    f149:	48 89 85 68 f3 ff ff 	mov    %rax,-0xc98(%rbp)
    f150:	c7 85 b0 f3 ff ff fc 	movl   $0xd820d2fc,-0xc50(%rbp)
    f157:	d2 20 d8 
    f15a:	c7 85 b4 f3 ff ff fc 	movl   $0xd820d2fc,-0xc4c(%rbp)
    f161:	d2 20 d8 
    f164:	c7 85 b8 f3 ff ff fc 	movl   $0xd820d2fc,-0xc48(%rbp)
    f16b:	d2 20 d8 
    f16e:	c7 85 bc f3 ff ff fc 	movl   $0xd820d2fc,-0xc44(%rbp)
    f175:	d2 20 d8 
    f178:	c7 85 c0 f3 ff ff fc 	movl   $0xd820d2fc,-0xc40(%rbp)
    f17f:	d2 20 d8 
    f182:	c7 85 c4 f3 ff ff fc 	movl   $0xd820d2fc,-0xc3c(%rbp)
    f189:	d2 20 d8 
    f18c:	c7 85 c8 f3 ff ff fc 	movl   $0xd820d2fc,-0xc38(%rbp)
    f193:	d2 20 d8 
    f196:	c7 85 cc f3 ff ff fc 	movl   $0xd820d2fc,-0xc34(%rbp)
    f19d:	d2 20 d8 
    f1a0:	c7 85 d0 f3 ff ff fc 	movl   $0xd820d2fc,-0xc30(%rbp)
    f1a7:	d2 20 d8 
    f1aa:	48 8d 05 8d 7e 00 00 	lea    0x7e8d(%rip),%rax        # 1703e <g_74+0x4>
    f1b1:	48 89 85 70 f3 ff ff 	mov    %rax,-0xc90(%rbp)
    f1b8:	48 8b 85 38 f3 ff ff 	mov    -0xcc8(%rbp),%rax
    f1bf:	8b 00                	mov    (%rax),%eax
    f1c1:	83 c8 fb             	or     $0xfffffffb,%eax
    f1c4:	89 c2                	mov    %eax,%edx
    f1c6:	48 8b 85 38 f3 ff ff 	mov    -0xcc8(%rbp),%rax
    f1cd:	89 10                	mov    %edx,(%rax)
    f1cf:	48 c7 85 78 f3 ff ff 	movq   $0x1,-0xc88(%rbp)
    f1d6:	01 00 00 00 
    f1da:	48 8d 05 77 7f 00 00 	lea    0x7f77(%rip),%rax        # 17158 <g_103+0xd8>
    f1e1:	48 89 85 80 f3 ff ff 	mov    %rax,-0xc80(%rbp)
    f1e8:	48 8d 05 51 7e 00 00 	lea    0x7e51(%rip),%rax        # 17040 <g_76>
    f1ef:	48 89 85 88 f3 ff ff 	mov    %rax,-0xc78(%rbp)
    f1f6:	c7 85 f0 f2 ff ff 09 	movl   $0x9,-0xd10(%rbp)
    f1fd:	00 00 00 
    f200:	c7 85 f4 f2 ff ff f8 	movl   $0xfffffff8,-0xd0c(%rbp)
    f207:	ff ff ff 
    f20a:	48 c7 85 20 f3 ff ff 	movq   $0x0,-0xce0(%rbp)
    f211:	00 00 00 00 
    f215:	c6 85 20 f3 ff ff fd 	movb   $0xfd,-0xce0(%rbp)
    f21c:	48 c7 85 90 f3 ff ff 	movq   $0x0,-0xc70(%rbp)
    f223:	00 00 00 00 
    f227:	48 8d 85 10 f3 ff ff 	lea    -0xcf0(%rbp),%rax
    f22e:	48 89 85 28 f3 ff ff 	mov    %rax,-0xcd8(%rbp)
    f235:	48 8d 85 28 f3 ff ff 	lea    -0xcd8(%rbp),%rax
    f23c:	48 89 85 98 f3 ff ff 	mov    %rax,-0xc68(%rbp)
    f243:	48 8d 85 28 f3 ff ff 	lea    -0xcd8(%rbp),%rax
    f24a:	48 89 85 e0 f3 ff ff 	mov    %rax,-0xc20(%rbp)
    f251:	48 8d 85 28 f3 ff ff 	lea    -0xcd8(%rbp),%rax
    f258:	48 89 85 e8 f3 ff ff 	mov    %rax,-0xc18(%rbp)
    f25f:	48 8d 85 28 f3 ff ff 	lea    -0xcd8(%rbp),%rax
    f266:	48 89 85 f0 f3 ff ff 	mov    %rax,-0xc10(%rbp)
    f26d:	48 8d 85 28 f3 ff ff 	lea    -0xcd8(%rbp),%rax
    f274:	48 89 85 f8 f3 ff ff 	mov    %rax,-0xc08(%rbp)
    f27b:	48 8d 85 28 f3 ff ff 	lea    -0xcd8(%rbp),%rax
    f282:	48 89 85 00 f4 ff ff 	mov    %rax,-0xc00(%rbp)
    f289:	48 8d 85 28 f3 ff ff 	lea    -0xcd8(%rbp),%rax
    f290:	48 89 85 08 f4 ff ff 	mov    %rax,-0xbf8(%rbp)
    f297:	48 8d 85 28 f3 ff ff 	lea    -0xcd8(%rbp),%rax
    f29e:	48 89 85 10 f4 ff ff 	mov    %rax,-0xbf0(%rbp)
    f2a5:	48 8d 85 28 f3 ff ff 	lea    -0xcd8(%rbp),%rax
    f2ac:	48 89 85 18 f4 ff ff 	mov    %rax,-0xbe8(%rbp)
    f2b3:	48 8d 85 28 f3 ff ff 	lea    -0xcd8(%rbp),%rax
    f2ba:	48 89 85 20 f4 ff ff 	mov    %rax,-0xbe0(%rbp)
    f2c1:	48 c7 85 28 f4 ff ff 	movq   $0x0,-0xbd8(%rbp)
    f2c8:	00 00 00 00 
    f2cc:	48 8d 85 28 f3 ff ff 	lea    -0xcd8(%rbp),%rax
    f2d3:	48 89 85 30 f4 ff ff 	mov    %rax,-0xbd0(%rbp)
    f2da:	48 8d 85 28 f3 ff ff 	lea    -0xcd8(%rbp),%rax
    f2e1:	48 89 85 38 f4 ff ff 	mov    %rax,-0xbc8(%rbp)
    f2e8:	48 8d 85 28 f3 ff ff 	lea    -0xcd8(%rbp),%rax
    f2ef:	48 89 85 40 f4 ff ff 	mov    %rax,-0xbc0(%rbp)
    f2f6:	48 c7 85 48 f4 ff ff 	movq   $0x0,-0xbb8(%rbp)
    f2fd:	00 00 00 00 
    f301:	48 8d 85 28 f3 ff ff 	lea    -0xcd8(%rbp),%rax
    f308:	48 89 85 50 f4 ff ff 	mov    %rax,-0xbb0(%rbp)
    f30f:	48 8d 85 28 f3 ff ff 	lea    -0xcd8(%rbp),%rax
    f316:	48 89 85 58 f4 ff ff 	mov    %rax,-0xba8(%rbp)
    f31d:	48 8d 85 28 f3 ff ff 	lea    -0xcd8(%rbp),%rax
    f324:	48 89 85 60 f4 ff ff 	mov    %rax,-0xba0(%rbp)
    f32b:	48 8d 85 28 f3 ff ff 	lea    -0xcd8(%rbp),%rax
    f332:	48 89 85 68 f4 ff ff 	mov    %rax,-0xb98(%rbp)
    f339:	48 8d 85 28 f3 ff ff 	lea    -0xcd8(%rbp),%rax
    f340:	48 89 85 70 f4 ff ff 	mov    %rax,-0xb90(%rbp)
    f347:	48 8d 85 28 f3 ff ff 	lea    -0xcd8(%rbp),%rax
    f34e:	48 89 85 78 f4 ff ff 	mov    %rax,-0xb88(%rbp)
    f355:	48 8d 85 28 f3 ff ff 	lea    -0xcd8(%rbp),%rax
    f35c:	48 89 85 80 f4 ff ff 	mov    %rax,-0xb80(%rbp)
    f363:	48 c7 85 88 f4 ff ff 	movq   $0x0,-0xb78(%rbp)
    f36a:	00 00 00 00 
    f36e:	48 8d 85 28 f3 ff ff 	lea    -0xcd8(%rbp),%rax
    f375:	48 89 85 90 f4 ff ff 	mov    %rax,-0xb70(%rbp)
    f37c:	48 8d 85 28 f3 ff ff 	lea    -0xcd8(%rbp),%rax
    f383:	48 89 85 98 f4 ff ff 	mov    %rax,-0xb68(%rbp)
    f38a:	48 8d 85 28 f3 ff ff 	lea    -0xcd8(%rbp),%rax
    f391:	48 89 85 a0 f4 ff ff 	mov    %rax,-0xb60(%rbp)
    f398:	48 8d 85 28 f3 ff ff 	lea    -0xcd8(%rbp),%rax
    f39f:	48 89 85 a8 f4 ff ff 	mov    %rax,-0xb58(%rbp)
    f3a6:	48 8d 85 28 f3 ff ff 	lea    -0xcd8(%rbp),%rax
    f3ad:	48 89 85 b0 f4 ff ff 	mov    %rax,-0xb50(%rbp)
    f3b4:	48 c7 85 b8 f4 ff ff 	movq   $0x0,-0xb48(%rbp)
    f3bb:	00 00 00 00 
    f3bf:	48 8d 85 28 f3 ff ff 	lea    -0xcd8(%rbp),%rax
    f3c6:	48 89 85 c0 f4 ff ff 	mov    %rax,-0xb40(%rbp)
    f3cd:	48 8d 85 28 f3 ff ff 	lea    -0xcd8(%rbp),%rax
    f3d4:	48 89 85 c8 f4 ff ff 	mov    %rax,-0xb38(%rbp)
    f3db:	48 8d 85 18 f3 ff ff 	lea    -0xce8(%rbp),%rax
    f3e2:	48 89 85 a0 f3 ff ff 	mov    %rax,-0xc60(%rbp)
    f3e9:	48 8d 05 90 7d 00 00 	lea    0x7d90(%rip),%rax        # 17180 <g_190>
    f3f0:	48 89 85 a8 f3 ff ff 	mov    %rax,-0xc58(%rbp)
    f3f7:	c7 85 f8 f2 ff ff 3e 	movl   $0x6976f03e,-0xd08(%rbp)
    f3fe:	f0 76 69 
    f401:	c7 85 fc f2 ff ff ff 	movl   $0xffffffff,-0xd04(%rbp)
    f408:	ff ff ff 
    f40b:	66 c7 85 ea f2 ff ff 	movw   $0xd47b,-0xd16(%rbp)
    f412:	7b d4 
    f414:	48 8d 85 e8 f2 ff ff 	lea    -0xd18(%rbp),%rax
    f41b:	48 89 85 70 f8 ff ff 	mov    %rax,-0x790(%rbp)
    f422:	48 8d 05 15 7c 00 00 	lea    0x7c15(%rip),%rax        # 1703e <g_74+0x4>
    f429:	48 89 85 78 f8 ff ff 	mov    %rax,-0x788(%rbp)
    f430:	48 c7 85 80 f8 ff ff 	movq   $0x0,-0x780(%rbp)
    f437:	00 00 00 00 
    f43b:	48 8d 05 fc 7b 00 00 	lea    0x7bfc(%rip),%rax        # 1703e <g_74+0x4>
    f442:	48 89 85 88 f8 ff ff 	mov    %rax,-0x778(%rbp)
    f449:	48 8d 05 ee 7b 00 00 	lea    0x7bee(%rip),%rax        # 1703e <g_74+0x4>
    f450:	48 89 85 90 f8 ff ff 	mov    %rax,-0x770(%rbp)
    f457:	48 8d 85 e8 f2 ff ff 	lea    -0xd18(%rbp),%rax
    f45e:	48 89 85 98 f8 ff ff 	mov    %rax,-0x768(%rbp)
    f465:	48 8d 05 d2 7b 00 00 	lea    0x7bd2(%rip),%rax        # 1703e <g_74+0x4>
    f46c:	48 89 85 a0 f8 ff ff 	mov    %rax,-0x760(%rbp)
    f473:	48 c7 85 a8 f8 ff ff 	movq   $0x0,-0x758(%rbp)
    f47a:	00 00 00 00 
    f47e:	48 8d 85 e8 f2 ff ff 	lea    -0xd18(%rbp),%rax
    f485:	48 89 85 b0 f8 ff ff 	mov    %rax,-0x750(%rbp)
    f48c:	48 8d 85 e8 f2 ff ff 	lea    -0xd18(%rbp),%rax
    f493:	48 89 85 b8 f8 ff ff 	mov    %rax,-0x748(%rbp)
    f49a:	48 8d 05 9d 7b 00 00 	lea    0x7b9d(%rip),%rax        # 1703e <g_74+0x4>
    f4a1:	48 89 85 c0 f8 ff ff 	mov    %rax,-0x740(%rbp)
    f4a8:	48 8d 05 8f 7b 00 00 	lea    0x7b8f(%rip),%rax        # 1703e <g_74+0x4>
    f4af:	48 89 85 c8 f8 ff ff 	mov    %rax,-0x738(%rbp)
    f4b6:	48 c7 85 d0 f8 ff ff 	movq   $0x0,-0x730(%rbp)
    f4bd:	00 00 00 00 
    f4c1:	48 8d 85 e8 f2 ff ff 	lea    -0xd18(%rbp),%rax
    f4c8:	48 89 85 d8 f8 ff ff 	mov    %rax,-0x728(%rbp)
    f4cf:	48 8d 05 68 7b 00 00 	lea    0x7b68(%rip),%rax        # 1703e <g_74+0x4>
    f4d6:	48 89 85 e0 f8 ff ff 	mov    %rax,-0x720(%rbp)
    f4dd:	48 c7 85 e8 f8 ff ff 	movq   $0x0,-0x718(%rbp)
    f4e4:	00 00 00 00 
    f4e8:	48 8d 05 4f 7b 00 00 	lea    0x7b4f(%rip),%rax        # 1703e <g_74+0x4>
    f4ef:	48 89 85 f0 f8 ff ff 	mov    %rax,-0x710(%rbp)
    f4f6:	48 8d 85 e8 f2 ff ff 	lea    -0xd18(%rbp),%rax
    f4fd:	48 89 85 f8 f8 ff ff 	mov    %rax,-0x708(%rbp)
    f504:	48 8d 05 33 7b 00 00 	lea    0x7b33(%rip),%rax        # 1703e <g_74+0x4>
    f50b:	48 89 85 00 f9 ff ff 	mov    %rax,-0x700(%rbp)
    f512:	48 8d 85 e8 f2 ff ff 	lea    -0xd18(%rbp),%rax
    f519:	48 89 85 08 f9 ff ff 	mov    %rax,-0x6f8(%rbp)
    f520:	48 8d 85 e8 f2 ff ff 	lea    -0xd18(%rbp),%rax
    f527:	48 89 85 10 f9 ff ff 	mov    %rax,-0x6f0(%rbp)
    f52e:	48 8d 85 e8 f2 ff ff 	lea    -0xd18(%rbp),%rax
    f535:	48 89 85 18 f9 ff ff 	mov    %rax,-0x6e8(%rbp)
    f53c:	48 8d 85 e8 f2 ff ff 	lea    -0xd18(%rbp),%rax
    f543:	48 89 85 20 f9 ff ff 	mov    %rax,-0x6e0(%rbp)
    f54a:	48 8d 05 ed 7a 00 00 	lea    0x7aed(%rip),%rax        # 1703e <g_74+0x4>
    f551:	48 89 85 28 f9 ff ff 	mov    %rax,-0x6d8(%rbp)
    f558:	48 8d 85 e8 f2 ff ff 	lea    -0xd18(%rbp),%rax
    f55f:	48 89 85 30 f9 ff ff 	mov    %rax,-0x6d0(%rbp)
    f566:	48 8d 85 e8 f2 ff ff 	lea    -0xd18(%rbp),%rax
    f56d:	48 89 85 38 f9 ff ff 	mov    %rax,-0x6c8(%rbp)
    f574:	48 8d 05 c3 7a 00 00 	lea    0x7ac3(%rip),%rax        # 1703e <g_74+0x4>
    f57b:	48 89 85 40 f9 ff ff 	mov    %rax,-0x6c0(%rbp)
    f582:	48 8d 05 b5 7a 00 00 	lea    0x7ab5(%rip),%rax        # 1703e <g_74+0x4>
    f589:	48 89 85 48 f9 ff ff 	mov    %rax,-0x6b8(%rbp)
    f590:	48 8d 85 e8 f2 ff ff 	lea    -0xd18(%rbp),%rax
    f597:	48 89 85 50 f9 ff ff 	mov    %rax,-0x6b0(%rbp)
    f59e:	48 8d 85 e8 f2 ff ff 	lea    -0xd18(%rbp),%rax
    f5a5:	48 89 85 58 f9 ff ff 	mov    %rax,-0x6a8(%rbp)
    f5ac:	48 8d 05 8b 7a 00 00 	lea    0x7a8b(%rip),%rax        # 1703e <g_74+0x4>
    f5b3:	48 89 85 60 f9 ff ff 	mov    %rax,-0x6a0(%rbp)
    f5ba:	48 8d 85 e8 f2 ff ff 	lea    -0xd18(%rbp),%rax
    f5c1:	48 89 85 68 f9 ff ff 	mov    %rax,-0x698(%rbp)
    f5c8:	48 8d 05 6f 7a 00 00 	lea    0x7a6f(%rip),%rax        # 1703e <g_74+0x4>
    f5cf:	48 89 85 70 f9 ff ff 	mov    %rax,-0x690(%rbp)
    f5d6:	48 8d 05 5f 7a 00 00 	lea    0x7a5f(%rip),%rax        # 1703c <g_74+0x2>
    f5dd:	48 89 85 78 f9 ff ff 	mov    %rax,-0x688(%rbp)
    f5e4:	48 8d 05 53 7a 00 00 	lea    0x7a53(%rip),%rax        # 1703e <g_74+0x4>
    f5eb:	48 89 85 80 f9 ff ff 	mov    %rax,-0x680(%rbp)
    f5f2:	48 c7 85 88 f9 ff ff 	movq   $0x0,-0x678(%rbp)
    f5f9:	00 00 00 00 
    f5fd:	48 8d 85 e8 f2 ff ff 	lea    -0xd18(%rbp),%rax
    f604:	48 89 85 90 f9 ff ff 	mov    %rax,-0x670(%rbp)
    f60b:	48 8d 85 e8 f2 ff ff 	lea    -0xd18(%rbp),%rax
    f612:	48 89 85 98 f9 ff ff 	mov    %rax,-0x668(%rbp)
    f619:	48 8d 05 1e 7a 00 00 	lea    0x7a1e(%rip),%rax        # 1703e <g_74+0x4>
    f620:	48 89 85 a0 f9 ff ff 	mov    %rax,-0x660(%rbp)
    f627:	48 8d 05 0e 7a 00 00 	lea    0x7a0e(%rip),%rax        # 1703c <g_74+0x2>
    f62e:	48 89 85 a8 f9 ff ff 	mov    %rax,-0x658(%rbp)
    f635:	48 8d 85 e8 f2 ff ff 	lea    -0xd18(%rbp),%rax
    f63c:	48 89 85 b0 f9 ff ff 	mov    %rax,-0x650(%rbp)
    f643:	48 8d 05 f0 79 00 00 	lea    0x79f0(%rip),%rax        # 1703a <g_74>
    f64a:	48 89 85 b8 f9 ff ff 	mov    %rax,-0x648(%rbp)
    f651:	48 8d 85 e8 f2 ff ff 	lea    -0xd18(%rbp),%rax
    f658:	48 89 85 c0 f9 ff ff 	mov    %rax,-0x640(%rbp)
    f65f:	48 8d 05 d8 79 00 00 	lea    0x79d8(%rip),%rax        # 1703e <g_74+0x4>
    f666:	48 89 85 c8 f9 ff ff 	mov    %rax,-0x638(%rbp)
    f66d:	48 8d 85 e8 f2 ff ff 	lea    -0xd18(%rbp),%rax
    f674:	48 89 85 d0 f9 ff ff 	mov    %rax,-0x630(%rbp)
    f67b:	48 8d 05 bc 79 00 00 	lea    0x79bc(%rip),%rax        # 1703e <g_74+0x4>
    f682:	48 89 85 d8 f9 ff ff 	mov    %rax,-0x628(%rbp)
    f689:	48 8d 05 ae 79 00 00 	lea    0x79ae(%rip),%rax        # 1703e <g_74+0x4>
    f690:	48 89 85 e0 f9 ff ff 	mov    %rax,-0x620(%rbp)
    f697:	48 c7 85 e8 f9 ff ff 	movq   $0x0,-0x618(%rbp)
    f69e:	00 00 00 00 
    f6a2:	48 8d 05 95 79 00 00 	lea    0x7995(%rip),%rax        # 1703e <g_74+0x4>
    f6a9:	48 89 85 f0 f9 ff ff 	mov    %rax,-0x610(%rbp)
    f6b0:	48 8d 05 83 79 00 00 	lea    0x7983(%rip),%rax        # 1703a <g_74>
    f6b7:	48 89 85 f8 f9 ff ff 	mov    %rax,-0x608(%rbp)
    f6be:	48 8d 05 79 79 00 00 	lea    0x7979(%rip),%rax        # 1703e <g_74+0x4>
    f6c5:	48 89 85 00 fa ff ff 	mov    %rax,-0x600(%rbp)
    f6cc:	48 8d 85 e8 f2 ff ff 	lea    -0xd18(%rbp),%rax
    f6d3:	48 89 85 08 fa ff ff 	mov    %rax,-0x5f8(%rbp)
    f6da:	48 c7 85 10 fa ff ff 	movq   $0x0,-0x5f0(%rbp)
    f6e1:	00 00 00 00 
    f6e5:	48 8d 85 e8 f2 ff ff 	lea    -0xd18(%rbp),%rax
    f6ec:	48 89 85 18 fa ff ff 	mov    %rax,-0x5e8(%rbp)
    f6f3:	48 8d 05 44 79 00 00 	lea    0x7944(%rip),%rax        # 1703e <g_74+0x4>
    f6fa:	48 89 85 20 fa ff ff 	mov    %rax,-0x5e0(%rbp)
    f701:	48 8d 85 e8 f2 ff ff 	lea    -0xd18(%rbp),%rax
    f708:	48 89 85 28 fa ff ff 	mov    %rax,-0x5d8(%rbp)
    f70f:	48 8d 85 e8 f2 ff ff 	lea    -0xd18(%rbp),%rax
    f716:	48 89 85 30 fa ff ff 	mov    %rax,-0x5d0(%rbp)
    f71d:	48 8d 05 1a 79 00 00 	lea    0x791a(%rip),%rax        # 1703e <g_74+0x4>
    f724:	48 89 85 38 fa ff ff 	mov    %rax,-0x5c8(%rbp)
    f72b:	48 8d 05 0c 79 00 00 	lea    0x790c(%rip),%rax        # 1703e <g_74+0x4>
    f732:	48 89 85 40 fa ff ff 	mov    %rax,-0x5c0(%rbp)
    f739:	48 8d 05 fa 78 00 00 	lea    0x78fa(%rip),%rax        # 1703a <g_74>
    f740:	48 89 85 48 fa ff ff 	mov    %rax,-0x5b8(%rbp)
    f747:	48 8d 05 f0 78 00 00 	lea    0x78f0(%rip),%rax        # 1703e <g_74+0x4>
    f74e:	48 89 85 50 fa ff ff 	mov    %rax,-0x5b0(%rbp)
    f755:	48 c7 85 58 fa ff ff 	movq   $0x0,-0x5a8(%rbp)
    f75c:	00 00 00 00 
    f760:	48 c7 85 60 fa ff ff 	movq   $0x0,-0x5a0(%rbp)
    f767:	00 00 00 00 
    f76b:	48 8d 05 c8 78 00 00 	lea    0x78c8(%rip),%rax        # 1703a <g_74>
    f772:	48 89 85 68 fa ff ff 	mov    %rax,-0x598(%rbp)
    f779:	48 8d 85 e8 f2 ff ff 	lea    -0xd18(%rbp),%rax
    f780:	48 89 85 70 fa ff ff 	mov    %rax,-0x590(%rbp)
    f787:	48 8d 05 b0 78 00 00 	lea    0x78b0(%rip),%rax        # 1703e <g_74+0x4>
    f78e:	48 89 85 78 fa ff ff 	mov    %rax,-0x588(%rbp)
    f795:	48 8d 85 e8 f2 ff ff 	lea    -0xd18(%rbp),%rax
    f79c:	48 89 85 80 fa ff ff 	mov    %rax,-0x580(%rbp)
    f7a3:	48 8d 05 92 78 00 00 	lea    0x7892(%rip),%rax        # 1703c <g_74+0x2>
    f7aa:	48 89 85 88 fa ff ff 	mov    %rax,-0x578(%rbp)
    f7b1:	48 8d 85 e8 f2 ff ff 	lea    -0xd18(%rbp),%rax
    f7b8:	48 89 85 90 fa ff ff 	mov    %rax,-0x570(%rbp)
    f7bf:	48 8d 05 76 78 00 00 	lea    0x7876(%rip),%rax        # 1703c <g_74+0x2>
    f7c6:	48 89 85 98 fa ff ff 	mov    %rax,-0x568(%rbp)
    f7cd:	48 8d 85 e8 f2 ff ff 	lea    -0xd18(%rbp),%rax
    f7d4:	48 89 85 a0 fa ff ff 	mov    %rax,-0x560(%rbp)
    f7db:	48 8d 05 5c 78 00 00 	lea    0x785c(%rip),%rax        # 1703e <g_74+0x4>
    f7e2:	48 89 85 a8 fa ff ff 	mov    %rax,-0x558(%rbp)
    f7e9:	48 8d 05 4e 78 00 00 	lea    0x784e(%rip),%rax        # 1703e <g_74+0x4>
    f7f0:	48 89 85 b0 fa ff ff 	mov    %rax,-0x550(%rbp)
    f7f7:	48 8d 85 e8 f2 ff ff 	lea    -0xd18(%rbp),%rax
    f7fe:	48 89 85 b8 fa ff ff 	mov    %rax,-0x548(%rbp)
    f805:	48 8d 85 e8 f2 ff ff 	lea    -0xd18(%rbp),%rax
    f80c:	48 89 85 c0 fa ff ff 	mov    %rax,-0x540(%rbp)
    f813:	48 8d 05 24 78 00 00 	lea    0x7824(%rip),%rax        # 1703e <g_74+0x4>
    f81a:	48 89 85 c8 fa ff ff 	mov    %rax,-0x538(%rbp)
    f821:	48 8d 05 16 78 00 00 	lea    0x7816(%rip),%rax        # 1703e <g_74+0x4>
    f828:	48 89 85 d0 fa ff ff 	mov    %rax,-0x530(%rbp)
    f82f:	48 8d 05 08 78 00 00 	lea    0x7808(%rip),%rax        # 1703e <g_74+0x4>
    f836:	48 89 85 d8 fa ff ff 	mov    %rax,-0x528(%rbp)
    f83d:	48 c7 85 e0 fa ff ff 	movq   $0x0,-0x520(%rbp)
    f844:	00 00 00 00 
    f848:	48 c7 85 e8 fa ff ff 	movq   $0x0,-0x518(%rbp)
    f84f:	00 00 00 00 
    f853:	48 c7 85 f0 fa ff ff 	movq   $0x0,-0x510(%rbp)
    f85a:	00 00 00 00 
    f85e:	48 8d 05 d9 77 00 00 	lea    0x77d9(%rip),%rax        # 1703e <g_74+0x4>
    f865:	48 89 85 f8 fa ff ff 	mov    %rax,-0x508(%rbp)
    f86c:	48 8d 05 cb 77 00 00 	lea    0x77cb(%rip),%rax        # 1703e <g_74+0x4>
    f873:	48 89 85 00 fb ff ff 	mov    %rax,-0x500(%rbp)
    f87a:	48 8d 85 e8 f2 ff ff 	lea    -0xd18(%rbp),%rax
    f881:	48 89 85 08 fb ff ff 	mov    %rax,-0x4f8(%rbp)
    f888:	48 c7 85 10 fb ff ff 	movq   $0x0,-0x4f0(%rbp)
    f88f:	00 00 00 00 
    f893:	48 8d 05 a0 77 00 00 	lea    0x77a0(%rip),%rax        # 1703a <g_74>
    f89a:	48 89 85 18 fb ff ff 	mov    %rax,-0x4e8(%rbp)
    f8a1:	48 8d 05 92 77 00 00 	lea    0x7792(%rip),%rax        # 1703a <g_74>
    f8a8:	48 89 85 20 fb ff ff 	mov    %rax,-0x4e0(%rbp)
    f8af:	48 8d 85 e8 f2 ff ff 	lea    -0xd18(%rbp),%rax
    f8b6:	48 89 85 28 fb ff ff 	mov    %rax,-0x4d8(%rbp)
    f8bd:	48 8d 05 7a 77 00 00 	lea    0x777a(%rip),%rax        # 1703e <g_74+0x4>
    f8c4:	48 89 85 30 fb ff ff 	mov    %rax,-0x4d0(%rbp)
    f8cb:	48 8d 05 6c 77 00 00 	lea    0x776c(%rip),%rax        # 1703e <g_74+0x4>
    f8d2:	48 89 85 38 fb ff ff 	mov    %rax,-0x4c8(%rbp)
    f8d9:	48 8d 85 e8 f2 ff ff 	lea    -0xd18(%rbp),%rax
    f8e0:	48 89 85 40 fb ff ff 	mov    %rax,-0x4c0(%rbp)
    f8e7:	48 c7 85 48 fb ff ff 	movq   $0x0,-0x4b8(%rbp)
    f8ee:	00 00 00 00 
    f8f2:	48 8d 05 41 77 00 00 	lea    0x7741(%rip),%rax        # 1703a <g_74>
    f8f9:	48 89 85 50 fb ff ff 	mov    %rax,-0x4b0(%rbp)
    f900:	48 8d 05 37 77 00 00 	lea    0x7737(%rip),%rax        # 1703e <g_74+0x4>
    f907:	48 89 85 58 fb ff ff 	mov    %rax,-0x4a8(%rbp)
    f90e:	48 8d 05 27 77 00 00 	lea    0x7727(%rip),%rax        # 1703c <g_74+0x2>
    f915:	48 89 85 60 fb ff ff 	mov    %rax,-0x4a0(%rbp)
    f91c:	48 8d 05 1b 77 00 00 	lea    0x771b(%rip),%rax        # 1703e <g_74+0x4>
    f923:	48 89 85 68 fb ff ff 	mov    %rax,-0x498(%rbp)
    f92a:	48 8d 85 e8 f2 ff ff 	lea    -0xd18(%rbp),%rax
    f931:	48 89 85 70 fb ff ff 	mov    %rax,-0x490(%rbp)
    f938:	48 8d 85 e8 f2 ff ff 	lea    -0xd18(%rbp),%rax
    f93f:	48 89 85 78 fb ff ff 	mov    %rax,-0x488(%rbp)
    f946:	48 c7 85 80 fb ff ff 	movq   $0x0,-0x480(%rbp)
    f94d:	00 00 00 00 
    f951:	48 8d 05 e6 76 00 00 	lea    0x76e6(%rip),%rax        # 1703e <g_74+0x4>
    f958:	48 89 85 88 fb ff ff 	mov    %rax,-0x478(%rbp)
    f95f:	48 8d 85 e8 f2 ff ff 	lea    -0xd18(%rbp),%rax
    f966:	48 89 85 90 fb ff ff 	mov    %rax,-0x470(%rbp)
    f96d:	48 8d 05 c8 76 00 00 	lea    0x76c8(%rip),%rax        # 1703c <g_74+0x2>
    f974:	48 89 85 98 fb ff ff 	mov    %rax,-0x468(%rbp)
    f97b:	48 8d 85 e8 f2 ff ff 	lea    -0xd18(%rbp),%rax
    f982:	48 89 85 a0 fb ff ff 	mov    %rax,-0x460(%rbp)
    f989:	48 8d 05 ac 76 00 00 	lea    0x76ac(%rip),%rax        # 1703c <g_74+0x2>
    f990:	48 89 85 a8 fb ff ff 	mov    %rax,-0x458(%rbp)
    f997:	48 c7 85 b0 fb ff ff 	movq   $0x0,-0x450(%rbp)
    f99e:	00 00 00 00 
    f9a2:	48 8d 05 95 76 00 00 	lea    0x7695(%rip),%rax        # 1703e <g_74+0x4>
    f9a9:	48 89 85 b8 fb ff ff 	mov    %rax,-0x448(%rbp)
    f9b0:	48 8d 85 e8 f2 ff ff 	lea    -0xd18(%rbp),%rax
    f9b7:	48 89 85 c0 fb ff ff 	mov    %rax,-0x440(%rbp)
    f9be:	48 8d 05 75 76 00 00 	lea    0x7675(%rip),%rax        # 1703a <g_74>
    f9c5:	48 89 85 c8 fb ff ff 	mov    %rax,-0x438(%rbp)
    f9cc:	48 c7 85 d0 fb ff ff 	movq   $0x0,-0x430(%rbp)
    f9d3:	00 00 00 00 
    f9d7:	48 c7 85 d8 fb ff ff 	movq   $0x0,-0x428(%rbp)
    f9de:	00 00 00 00 
    f9e2:	48 8d 05 55 76 00 00 	lea    0x7655(%rip),%rax        # 1703e <g_74+0x4>
    f9e9:	48 89 85 e0 fb ff ff 	mov    %rax,-0x420(%rbp)
    f9f0:	48 8d 05 43 76 00 00 	lea    0x7643(%rip),%rax        # 1703a <g_74>
    f9f7:	48 89 85 e8 fb ff ff 	mov    %rax,-0x418(%rbp)
    f9fe:	48 c7 85 f0 fb ff ff 	movq   $0x0,-0x410(%rbp)
    fa05:	00 00 00 00 
    fa09:	48 8d 05 2e 76 00 00 	lea    0x762e(%rip),%rax        # 1703e <g_74+0x4>
    fa10:	48 89 85 f8 fb ff ff 	mov    %rax,-0x408(%rbp)
    fa17:	48 8d 05 20 76 00 00 	lea    0x7620(%rip),%rax        # 1703e <g_74+0x4>
    fa1e:	48 89 85 00 fc ff ff 	mov    %rax,-0x400(%rbp)
    fa25:	48 8d 85 e8 f2 ff ff 	lea    -0xd18(%rbp),%rax
    fa2c:	48 89 85 08 fc ff ff 	mov    %rax,-0x3f8(%rbp)
    fa33:	48 8d 05 00 76 00 00 	lea    0x7600(%rip),%rax        # 1703a <g_74>
    fa3a:	48 89 85 10 fc ff ff 	mov    %rax,-0x3f0(%rbp)
    fa41:	48 8d 85 e8 f2 ff ff 	lea    -0xd18(%rbp),%rax
    fa48:	48 89 85 18 fc ff ff 	mov    %rax,-0x3e8(%rbp)
    fa4f:	48 8d 85 e8 f2 ff ff 	lea    -0xd18(%rbp),%rax
    fa56:	48 89 85 20 fc ff ff 	mov    %rax,-0x3e0(%rbp)
    fa5d:	48 8d 85 e8 f2 ff ff 	lea    -0xd18(%rbp),%rax
    fa64:	48 89 85 28 fc ff ff 	mov    %rax,-0x3d8(%rbp)
    fa6b:	48 8d 85 e8 f2 ff ff 	lea    -0xd18(%rbp),%rax
    fa72:	48 89 85 30 fc ff ff 	mov    %rax,-0x3d0(%rbp)
    fa79:	48 8d 05 ba 75 00 00 	lea    0x75ba(%rip),%rax        # 1703a <g_74>
    fa80:	48 89 85 38 fc ff ff 	mov    %rax,-0x3c8(%rbp)
    fa87:	48 8d 85 e8 f2 ff ff 	lea    -0xd18(%rbp),%rax
    fa8e:	48 89 85 40 fc ff ff 	mov    %rax,-0x3c0(%rbp)
    fa95:	48 c7 85 48 fc ff ff 	movq   $0x0,-0x3b8(%rbp)
    fa9c:	00 00 00 00 
    faa0:	48 8d 05 97 75 00 00 	lea    0x7597(%rip),%rax        # 1703e <g_74+0x4>
    faa7:	48 89 85 50 fc ff ff 	mov    %rax,-0x3b0(%rbp)
    faae:	48 8d 05 89 75 00 00 	lea    0x7589(%rip),%rax        # 1703e <g_74+0x4>
    fab5:	48 89 85 58 fc ff ff 	mov    %rax,-0x3a8(%rbp)
    fabc:	48 c7 85 60 fc ff ff 	movq   $0x0,-0x3a0(%rbp)
    fac3:	00 00 00 00 
    fac7:	48 8d 05 70 75 00 00 	lea    0x7570(%rip),%rax        # 1703e <g_74+0x4>
    face:	48 89 85 68 fc ff ff 	mov    %rax,-0x398(%rbp)
    fad5:	48 8d 05 62 75 00 00 	lea    0x7562(%rip),%rax        # 1703e <g_74+0x4>
    fadc:	48 89 85 70 fc ff ff 	mov    %rax,-0x390(%rbp)
    fae3:	48 8d 05 50 75 00 00 	lea    0x7550(%rip),%rax        # 1703a <g_74>
    faea:	48 89 85 78 fc ff ff 	mov    %rax,-0x388(%rbp)
    faf1:	48 8d 05 46 75 00 00 	lea    0x7546(%rip),%rax        # 1703e <g_74+0x4>
    faf8:	48 89 85 80 fc ff ff 	mov    %rax,-0x380(%rbp)
    faff:	48 8d 05 36 75 00 00 	lea    0x7536(%rip),%rax        # 1703c <g_74+0x2>
    fb06:	48 89 85 88 fc ff ff 	mov    %rax,-0x378(%rbp)
    fb0d:	48 8d 85 e8 f2 ff ff 	lea    -0xd18(%rbp),%rax
    fb14:	48 89 85 90 fc ff ff 	mov    %rax,-0x370(%rbp)
    fb1b:	48 8d 85 e8 f2 ff ff 	lea    -0xd18(%rbp),%rax
    fb22:	48 89 85 98 fc ff ff 	mov    %rax,-0x368(%rbp)
    fb29:	48 8d 05 0a 75 00 00 	lea    0x750a(%rip),%rax        # 1703a <g_74>
    fb30:	48 89 85 a0 fc ff ff 	mov    %rax,-0x360(%rbp)
    fb37:	48 c7 85 a8 fc ff ff 	movq   $0x0,-0x358(%rbp)
    fb3e:	00 00 00 00 
    fb42:	48 8d 85 e8 f2 ff ff 	lea    -0xd18(%rbp),%rax
    fb49:	48 89 85 b0 fc ff ff 	mov    %rax,-0x350(%rbp)
    fb50:	48 8d 05 e5 74 00 00 	lea    0x74e5(%rip),%rax        # 1703c <g_74+0x2>
    fb57:	48 89 85 b8 fc ff ff 	mov    %rax,-0x348(%rbp)
    fb5e:	48 8d 05 d9 74 00 00 	lea    0x74d9(%rip),%rax        # 1703e <g_74+0x4>
    fb65:	48 89 85 c0 fc ff ff 	mov    %rax,-0x340(%rbp)
    fb6c:	48 8d 85 e8 f2 ff ff 	lea    -0xd18(%rbp),%rax
    fb73:	48 89 85 c8 fc ff ff 	mov    %rax,-0x338(%rbp)
    fb7a:	48 8d 85 e8 f2 ff ff 	lea    -0xd18(%rbp),%rax
    fb81:	48 89 85 d0 fc ff ff 	mov    %rax,-0x330(%rbp)
    fb88:	48 8d 85 e8 f2 ff ff 	lea    -0xd18(%rbp),%rax
    fb8f:	48 89 85 d8 fc ff ff 	mov    %rax,-0x328(%rbp)
    fb96:	48 8d 05 9d 74 00 00 	lea    0x749d(%rip),%rax        # 1703a <g_74>
    fb9d:	48 89 85 e0 fc ff ff 	mov    %rax,-0x320(%rbp)
    fba4:	48 8d 05 93 74 00 00 	lea    0x7493(%rip),%rax        # 1703e <g_74+0x4>
    fbab:	48 89 85 e8 fc ff ff 	mov    %rax,-0x318(%rbp)
    fbb2:	48 8d 85 e8 f2 ff ff 	lea    -0xd18(%rbp),%rax
    fbb9:	48 89 85 f0 fc ff ff 	mov    %rax,-0x310(%rbp)
    fbc0:	48 8d 85 e8 f2 ff ff 	lea    -0xd18(%rbp),%rax
    fbc7:	48 89 85 f8 fc ff ff 	mov    %rax,-0x308(%rbp)
    fbce:	48 8d 05 69 74 00 00 	lea    0x7469(%rip),%rax        # 1703e <g_74+0x4>
    fbd5:	48 89 85 00 fd ff ff 	mov    %rax,-0x300(%rbp)
    fbdc:	48 8d 05 5b 74 00 00 	lea    0x745b(%rip),%rax        # 1703e <g_74+0x4>
    fbe3:	48 89 85 08 fd ff ff 	mov    %rax,-0x2f8(%rbp)
    fbea:	48 8d 05 4d 74 00 00 	lea    0x744d(%rip),%rax        # 1703e <g_74+0x4>
    fbf1:	48 89 85 10 fd ff ff 	mov    %rax,-0x2f0(%rbp)
    fbf8:	48 8d 85 e8 f2 ff ff 	lea    -0xd18(%rbp),%rax
    fbff:	48 89 85 18 fd ff ff 	mov    %rax,-0x2e8(%rbp)
    fc06:	48 c7 85 20 fd ff ff 	movq   $0x0,-0x2e0(%rbp)
    fc0d:	00 00 00 00 
    fc11:	48 8d 85 e8 f2 ff ff 	lea    -0xd18(%rbp),%rax
    fc18:	48 89 85 28 fd ff ff 	mov    %rax,-0x2d8(%rbp)
    fc1f:	48 8d 05 18 74 00 00 	lea    0x7418(%rip),%rax        # 1703e <g_74+0x4>
    fc26:	48 89 85 30 fd ff ff 	mov    %rax,-0x2d0(%rbp)
    fc2d:	48 8d 85 e8 f2 ff ff 	lea    -0xd18(%rbp),%rax
    fc34:	48 89 85 38 fd ff ff 	mov    %rax,-0x2c8(%rbp)
    fc3b:	48 8d 85 e8 f2 ff ff 	lea    -0xd18(%rbp),%rax
    fc42:	48 89 85 40 fd ff ff 	mov    %rax,-0x2c0(%rbp)
    fc49:	48 c7 85 48 fd ff ff 	movq   $0x0,-0x2b8(%rbp)
    fc50:	00 00 00 00 
    fc54:	48 8d 85 e8 f2 ff ff 	lea    -0xd18(%rbp),%rax
    fc5b:	48 89 85 50 fd ff ff 	mov    %rax,-0x2b0(%rbp)
    fc62:	48 8d 85 e8 f2 ff ff 	lea    -0xd18(%rbp),%rax
    fc69:	48 89 85 58 fd ff ff 	mov    %rax,-0x2a8(%rbp)
    fc70:	48 8d 85 e8 f2 ff ff 	lea    -0xd18(%rbp),%rax
    fc77:	48 89 85 60 fd ff ff 	mov    %rax,-0x2a0(%rbp)
    fc7e:	48 8d 05 b9 73 00 00 	lea    0x73b9(%rip),%rax        # 1703e <g_74+0x4>
    fc85:	48 89 85 68 fd ff ff 	mov    %rax,-0x298(%rbp)
    fc8c:	48 8d 05 a7 73 00 00 	lea    0x73a7(%rip),%rax        # 1703a <g_74>
    fc93:	48 89 85 70 fd ff ff 	mov    %rax,-0x290(%rbp)
    fc9a:	48 8d 85 e8 f2 ff ff 	lea    -0xd18(%rbp),%rax
    fca1:	48 89 85 78 fd ff ff 	mov    %rax,-0x288(%rbp)
    fca8:	48 8d 05 8f 73 00 00 	lea    0x738f(%rip),%rax        # 1703e <g_74+0x4>
    fcaf:	48 89 85 80 fd ff ff 	mov    %rax,-0x280(%rbp)
    fcb6:	48 c7 85 88 fd ff ff 	movq   $0x0,-0x278(%rbp)
    fcbd:	00 00 00 00 
    fcc1:	48 c7 85 90 fd ff ff 	movq   $0x0,-0x270(%rbp)
    fcc8:	00 00 00 00 
    fccc:	48 8d 85 e8 f2 ff ff 	lea    -0xd18(%rbp),%rax
    fcd3:	48 89 85 98 fd ff ff 	mov    %rax,-0x268(%rbp)
    fcda:	48 8d 05 5d 73 00 00 	lea    0x735d(%rip),%rax        # 1703e <g_74+0x4>
    fce1:	48 89 85 a0 fd ff ff 	mov    %rax,-0x260(%rbp)
    fce8:	48 8d 05 4f 73 00 00 	lea    0x734f(%rip),%rax        # 1703e <g_74+0x4>
    fcef:	48 89 85 a8 fd ff ff 	mov    %rax,-0x258(%rbp)
    fcf6:	48 c7 85 b0 fd ff ff 	movq   $0x0,-0x250(%rbp)
    fcfd:	00 00 00 00 
    fd01:	48 8d 05 36 73 00 00 	lea    0x7336(%rip),%rax        # 1703e <g_74+0x4>
    fd08:	48 89 85 b8 fd ff ff 	mov    %rax,-0x248(%rbp)
    fd0f:	48 8d 85 e8 f2 ff ff 	lea    -0xd18(%rbp),%rax
    fd16:	48 89 85 c0 fd ff ff 	mov    %rax,-0x240(%rbp)
    fd1d:	48 8d 05 16 73 00 00 	lea    0x7316(%rip),%rax        # 1703a <g_74>
    fd24:	48 89 85 c8 fd ff ff 	mov    %rax,-0x238(%rbp)
    fd2b:	48 c7 85 d0 fd ff ff 	movq   $0x0,-0x230(%rbp)
    fd32:	00 00 00 00 
    fd36:	48 8d 85 e8 f2 ff ff 	lea    -0xd18(%rbp),%rax
    fd3d:	48 89 85 d8 fd ff ff 	mov    %rax,-0x228(%rbp)
    fd44:	48 8d 85 e8 f2 ff ff 	lea    -0xd18(%rbp),%rax
    fd4b:	48 89 85 e0 fd ff ff 	mov    %rax,-0x220(%rbp)
    fd52:	48 8d 85 e8 f2 ff ff 	lea    -0xd18(%rbp),%rax
    fd59:	48 89 85 e8 fd ff ff 	mov    %rax,-0x218(%rbp)
    fd60:	48 8d 85 e8 f2 ff ff 	lea    -0xd18(%rbp),%rax
    fd67:	48 89 85 f0 fd ff ff 	mov    %rax,-0x210(%rbp)
    fd6e:	48 8d 85 e8 f2 ff ff 	lea    -0xd18(%rbp),%rax
    fd75:	48 89 85 f8 fd ff ff 	mov    %rax,-0x208(%rbp)
    fd7c:	48 8d 05 b9 72 00 00 	lea    0x72b9(%rip),%rax        # 1703c <g_74+0x2>
    fd83:	48 89 85 00 fe ff ff 	mov    %rax,-0x200(%rbp)
    fd8a:	48 8d 05 ab 72 00 00 	lea    0x72ab(%rip),%rax        # 1703c <g_74+0x2>
    fd91:	48 89 85 08 fe ff ff 	mov    %rax,-0x1f8(%rbp)
    fd98:	48 8d 85 e8 f2 ff ff 	lea    -0xd18(%rbp),%rax
    fd9f:	48 89 85 10 fe ff ff 	mov    %rax,-0x1f0(%rbp)
    fda6:	48 8d 85 e8 f2 ff ff 	lea    -0xd18(%rbp),%rax
    fdad:	48 89 85 18 fe ff ff 	mov    %rax,-0x1e8(%rbp)
    fdb4:	48 8d 85 e8 f2 ff ff 	lea    -0xd18(%rbp),%rax
    fdbb:	48 89 85 20 fe ff ff 	mov    %rax,-0x1e0(%rbp)
    fdc2:	48 8d 85 e8 f2 ff ff 	lea    -0xd18(%rbp),%rax
    fdc9:	48 89 85 28 fe ff ff 	mov    %rax,-0x1d8(%rbp)
    fdd0:	48 8d 05 63 72 00 00 	lea    0x7263(%rip),%rax        # 1703a <g_74>
    fdd7:	48 89 85 30 fe ff ff 	mov    %rax,-0x1d0(%rbp)
    fdde:	48 8d 85 e8 f2 ff ff 	lea    -0xd18(%rbp),%rax
    fde5:	48 89 85 38 fe ff ff 	mov    %rax,-0x1c8(%rbp)
    fdec:	48 8d 05 4b 72 00 00 	lea    0x724b(%rip),%rax        # 1703e <g_74+0x4>
    fdf3:	48 89 85 40 fe ff ff 	mov    %rax,-0x1c0(%rbp)
    fdfa:	48 c7 85 48 fe ff ff 	movq   $0x0,-0x1b8(%rbp)
    fe01:	00 00 00 00 
    fe05:	48 8d 85 e8 f2 ff ff 	lea    -0xd18(%rbp),%rax
    fe0c:	48 89 85 50 fe ff ff 	mov    %rax,-0x1b0(%rbp)
    fe13:	48 8d 85 e8 f2 ff ff 	lea    -0xd18(%rbp),%rax
    fe1a:	48 89 85 58 fe ff ff 	mov    %rax,-0x1a8(%rbp)
    fe21:	48 8d 05 12 72 00 00 	lea    0x7212(%rip),%rax        # 1703a <g_74>
    fe28:	48 89 85 60 fe ff ff 	mov    %rax,-0x1a0(%rbp)
    fe2f:	48 8d 05 08 72 00 00 	lea    0x7208(%rip),%rax        # 1703e <g_74+0x4>
    fe36:	48 89 85 68 fe ff ff 	mov    %rax,-0x198(%rbp)
    fe3d:	48 8d 05 f8 71 00 00 	lea    0x71f8(%rip),%rax        # 1703c <g_74+0x2>
    fe44:	48 89 85 70 fe ff ff 	mov    %rax,-0x190(%rbp)
    fe4b:	48 8d 85 e8 f2 ff ff 	lea    -0xd18(%rbp),%rax
    fe52:	48 89 85 78 fe ff ff 	mov    %rax,-0x188(%rbp)
    fe59:	48 8d 85 e8 f2 ff ff 	lea    -0xd18(%rbp),%rax
    fe60:	48 89 85 80 fe ff ff 	mov    %rax,-0x180(%rbp)
    fe67:	48 c7 85 88 fe ff ff 	movq   $0x0,-0x178(%rbp)
    fe6e:	00 00 00 00 
    fe72:	48 8d 85 e8 f2 ff ff 	lea    -0xd18(%rbp),%rax
    fe79:	48 89 85 90 fe ff ff 	mov    %rax,-0x170(%rbp)
    fe80:	48 8d 85 e8 f2 ff ff 	lea    -0xd18(%rbp),%rax
    fe87:	48 89 85 98 fe ff ff 	mov    %rax,-0x168(%rbp)
    fe8e:	48 8d 05 a9 71 00 00 	lea    0x71a9(%rip),%rax        # 1703e <g_74+0x4>
    fe95:	48 89 85 a0 fe ff ff 	mov    %rax,-0x160(%rbp)
    fe9c:	48 8d 85 e8 f2 ff ff 	lea    -0xd18(%rbp),%rax
    fea3:	48 89 85 a8 fe ff ff 	mov    %rax,-0x158(%rbp)
    feaa:	48 8d 05 89 71 00 00 	lea    0x7189(%rip),%rax        # 1703a <g_74>
    feb1:	48 89 85 b0 fe ff ff 	mov    %rax,-0x150(%rbp)
    feb8:	48 8d 85 e8 f2 ff ff 	lea    -0xd18(%rbp),%rax
    febf:	48 89 85 b8 fe ff ff 	mov    %rax,-0x148(%rbp)
    fec6:	48 8d 85 e8 f2 ff ff 	lea    -0xd18(%rbp),%rax
    fecd:	48 89 85 c0 fe ff ff 	mov    %rax,-0x140(%rbp)
    fed4:	48 8d 05 61 71 00 00 	lea    0x7161(%rip),%rax        # 1703c <g_74+0x2>
    fedb:	48 89 85 c8 fe ff ff 	mov    %rax,-0x138(%rbp)
    fee2:	48 8d 05 51 71 00 00 	lea    0x7151(%rip),%rax        # 1703a <g_74>
    fee9:	48 89 85 d0 fe ff ff 	mov    %rax,-0x130(%rbp)
    fef0:	48 8d 85 e8 f2 ff ff 	lea    -0xd18(%rbp),%rax
    fef7:	48 89 85 d8 fe ff ff 	mov    %rax,-0x128(%rbp)
    fefe:	48 8d 85 e8 f2 ff ff 	lea    -0xd18(%rbp),%rax
    ff05:	48 89 85 e0 fe ff ff 	mov    %rax,-0x120(%rbp)
    ff0c:	48 8d 85 e8 f2 ff ff 	lea    -0xd18(%rbp),%rax
    ff13:	48 89 85 e8 fe ff ff 	mov    %rax,-0x118(%rbp)
    ff1a:	48 8d 85 e8 f2 ff ff 	lea    -0xd18(%rbp),%rax
    ff21:	48 89 85 f0 fe ff ff 	mov    %rax,-0x110(%rbp)
    ff28:	48 8d 85 e8 f2 ff ff 	lea    -0xd18(%rbp),%rax
    ff2f:	48 89 85 f8 fe ff ff 	mov    %rax,-0x108(%rbp)
    ff36:	48 8d 05 fd 70 00 00 	lea    0x70fd(%rip),%rax        # 1703a <g_74>
    ff3d:	48 89 85 00 ff ff ff 	mov    %rax,-0x100(%rbp)
    ff44:	48 8d 05 ef 70 00 00 	lea    0x70ef(%rip),%rax        # 1703a <g_74>
    ff4b:	48 89 85 08 ff ff ff 	mov    %rax,-0xf8(%rbp)
    ff52:	48 8d 05 e5 70 00 00 	lea    0x70e5(%rip),%rax        # 1703e <g_74+0x4>
    ff59:	48 89 85 10 ff ff ff 	mov    %rax,-0xf0(%rbp)
    ff60:	48 8d 05 d3 70 00 00 	lea    0x70d3(%rip),%rax        # 1703a <g_74>
    ff67:	48 89 85 18 ff ff ff 	mov    %rax,-0xe8(%rbp)
    ff6e:	48 c7 85 20 ff ff ff 	movq   $0x0,-0xe0(%rbp)
    ff75:	00 00 00 00 
    ff79:	48 8d 85 e8 f2 ff ff 	lea    -0xd18(%rbp),%rax
    ff80:	48 89 85 28 ff ff ff 	mov    %rax,-0xd8(%rbp)
    ff87:	48 8d 05 b0 70 00 00 	lea    0x70b0(%rip),%rax        # 1703e <g_74+0x4>
    ff8e:	48 89 85 30 ff ff ff 	mov    %rax,-0xd0(%rbp)
    ff95:	48 8d 05 a0 70 00 00 	lea    0x70a0(%rip),%rax        # 1703c <g_74+0x2>
    ff9c:	48 89 85 38 ff ff ff 	mov    %rax,-0xc8(%rbp)
    ffa3:	48 8d 05 94 70 00 00 	lea    0x7094(%rip),%rax        # 1703e <g_74+0x4>
    ffaa:	48 89 85 40 ff ff ff 	mov    %rax,-0xc0(%rbp)
    ffb1:	48 8d 85 e8 f2 ff ff 	lea    -0xd18(%rbp),%rax
    ffb8:	48 89 85 48 ff ff ff 	mov    %rax,-0xb8(%rbp)
    ffbf:	48 8d 85 e8 f2 ff ff 	lea    -0xd18(%rbp),%rax
    ffc6:	48 89 85 50 ff ff ff 	mov    %rax,-0xb0(%rbp)
    ffcd:	48 8d 05 6a 70 00 00 	lea    0x706a(%rip),%rax        # 1703e <g_74+0x4>
    ffd4:	48 89 85 58 ff ff ff 	mov    %rax,-0xa8(%rbp)
    ffdb:	48 8d 05 5c 70 00 00 	lea    0x705c(%rip),%rax        # 1703e <g_74+0x4>
    ffe2:	48 89 85 60 ff ff ff 	mov    %rax,-0xa0(%rbp)
    ffe9:	48 8d 05 4e 70 00 00 	lea    0x704e(%rip),%rax        # 1703e <g_74+0x4>
    fff0:	48 89 85 68 ff ff ff 	mov    %rax,-0x98(%rbp)
    fff7:	48 c7 85 70 ff ff ff 	movq   $0x0,-0x90(%rbp)
    fffe:	00 00 00 00 
   10002:	48 8d 05 33 70 00 00 	lea    0x7033(%rip),%rax        # 1703c <g_74+0x2>
   10009:	48 89 85 78 ff ff ff 	mov    %rax,-0x88(%rbp)
   10010:	48 8d 85 e8 f2 ff ff 	lea    -0xd18(%rbp),%rax
   10017:	48 89 45 80          	mov    %rax,-0x80(%rbp)
   1001b:	48 8d 05 1c 70 00 00 	lea    0x701c(%rip),%rax        # 1703e <g_74+0x4>
   10022:	48 89 45 88          	mov    %rax,-0x78(%rbp)
   10026:	48 8d 05 11 70 00 00 	lea    0x7011(%rip),%rax        # 1703e <g_74+0x4>
   1002d:	48 89 45 90          	mov    %rax,-0x70(%rbp)
   10031:	48 8d 05 02 70 00 00 	lea    0x7002(%rip),%rax        # 1703a <g_74>
   10038:	48 89 45 98          	mov    %rax,-0x68(%rbp)
   1003c:	48 8d 05 f7 6f 00 00 	lea    0x6ff7(%rip),%rax        # 1703a <g_74>
   10043:	48 89 45 a0          	mov    %rax,-0x60(%rbp)
   10047:	48 8d 05 f0 6f 00 00 	lea    0x6ff0(%rip),%rax        # 1703e <g_74+0x4>
   1004e:	48 89 45 a8          	mov    %rax,-0x58(%rbp)
   10052:	48 8d 05 e1 6f 00 00 	lea    0x6fe1(%rip),%rax        # 1703a <g_74>
   10059:	48 89 45 b0          	mov    %rax,-0x50(%rbp)
   1005d:	48 8d 05 da 6f 00 00 	lea    0x6fda(%rip),%rax        # 1703e <g_74+0x4>
   10064:	48 89 45 b8          	mov    %rax,-0x48(%rbp)
   10068:	48 8d 05 cb 6f 00 00 	lea    0x6fcb(%rip),%rax        # 1703a <g_74>
   1006f:	48 89 45 c0          	mov    %rax,-0x40(%rbp)
   10073:	48 8d 05 c4 6f 00 00 	lea    0x6fc4(%rip),%rax        # 1703e <g_74+0x4>
   1007a:	48 89 45 c8          	mov    %rax,-0x38(%rbp)
   1007e:	48 8d 05 b7 6f 00 00 	lea    0x6fb7(%rip),%rax        # 1703c <g_74+0x2>
   10085:	48 89 45 d0          	mov    %rax,-0x30(%rbp)
   10089:	48 8d 05 ae 6f 00 00 	lea    0x6fae(%rip),%rax        # 1703e <g_74+0x4>
   10090:	48 89 45 d8          	mov    %rax,-0x28(%rbp)
   10094:	48 8d 85 e8 f2 ff ff 	lea    -0xd18(%rbp),%rax
   1009b:	48 89 45 e0          	mov    %rax,-0x20(%rbp)
   1009f:	48 c7 45 e8 00 00 00 	movq   $0x0,-0x18(%rbp)
   100a6:	00 
   100a7:	c6 85 e7 f2 ff ff 2b 	movb   $0x2b,-0xd19(%rbp)
   100ae:	48 8b 85 d8 f2 ff ff 	mov    -0xd28(%rbp),%rax
   100b5:	48 8b 4d f8          	mov    -0x8(%rbp),%rcx
   100b9:	64 48 33 0c 25 28 00 	xor    %fs:0x28,%rcx
   100c0:	00 00 
   100c2:	74 05                	je     100c9 <func_35+0x108c>
   100c4:	e8 a7 5f ff ff       	callq  6070 <__stack_chk_fail@plt>
   100c9:	c9                   	leaveq 
   100ca:	c3                   	retq   

00000000000100cb <func_37>:
   100cb:	f3 0f 1e fa          	endbr64 
   100cf:	55                   	push   %rbp
   100d0:	48 89 e5             	mov    %rsp,%rbp
   100d3:	48 89 7d e8          	mov    %rdi,-0x18(%rbp)
   100d7:	48 8d 05 6e 6f 00 00 	lea    0x6f6e(%rip),%rax        # 1704c <g_80>
   100de:	48 89 45 f0          	mov    %rax,-0x10(%rbp)
   100e2:	48 c7 45 f8 00 00 00 	movq   $0x0,-0x8(%rbp)
   100e9:	00 
   100ea:	48 8b 45 f0          	mov    -0x10(%rbp),%rax
   100ee:	c7 00 d8 d3 e4 9f    	movl   $0x9fe4d3d8,(%rax)
   100f4:	48 8b 45 f8          	mov    -0x8(%rbp),%rax
   100f8:	5d                   	pop    %rbp
   100f9:	c3                   	retq   

00000000000100fa <func_39>:
   100fa:	f3 0f 1e fa          	endbr64 
   100fe:	55                   	push   %rbp
   100ff:	48 89 e5             	mov    %rsp,%rbp
   10102:	48 81 ec f0 00 00 00 	sub    $0xf0,%rsp
   10109:	89 bd 1c ff ff ff    	mov    %edi,-0xe4(%rbp)
   1010f:	48 89 b5 10 ff ff ff 	mov    %rsi,-0xf0(%rbp)
   10116:	89 95 18 ff ff ff    	mov    %edx,-0xe8(%rbp)
   1011c:	64 48 8b 04 25 28 00 	mov    %fs:0x28,%rax
   10123:	00 00 
   10125:	48 89 45 f8          	mov    %rax,-0x8(%rbp)
   10129:	31 c0                	xor    %eax,%eax
   1012b:	48 8d 05 1a 6f 00 00 	lea    0x6f1a(%rip),%rax        # 1704c <g_80>
   10132:	48 89 85 28 ff ff ff 	mov    %rax,-0xd8(%rbp)
   10139:	48 8d 05 0c 6f 00 00 	lea    0x6f0c(%rip),%rax        # 1704c <g_80>
   10140:	48 89 85 30 ff ff ff 	mov    %rax,-0xd0(%rbp)
   10147:	48 8d 05 fe 6e 00 00 	lea    0x6efe(%rip),%rax        # 1704c <g_80>
   1014e:	48 89 85 38 ff ff ff 	mov    %rax,-0xc8(%rbp)
   10155:	48 8d 05 f0 6e 00 00 	lea    0x6ef0(%rip),%rax        # 1704c <g_80>
   1015c:	48 89 85 40 ff ff ff 	mov    %rax,-0xc0(%rbp)
   10163:	48 8d 05 e2 6e 00 00 	lea    0x6ee2(%rip),%rax        # 1704c <g_80>
   1016a:	48 89 85 48 ff ff ff 	mov    %rax,-0xb8(%rbp)
   10171:	48 8d 05 d4 6e 00 00 	lea    0x6ed4(%rip),%rax        # 1704c <g_80>
   10178:	48 89 85 50 ff ff ff 	mov    %rax,-0xb0(%rbp)
   1017f:	48 8d 05 c6 6e 00 00 	lea    0x6ec6(%rip),%rax        # 1704c <g_80>
   10186:	48 89 85 58 ff ff ff 	mov    %rax,-0xa8(%rbp)
   1018d:	48 8d 05 b8 6e 00 00 	lea    0x6eb8(%rip),%rax        # 1704c <g_80>
   10194:	48 89 85 60 ff ff ff 	mov    %rax,-0xa0(%rbp)
   1019b:	48 8d 05 aa 6e 00 00 	lea    0x6eaa(%rip),%rax        # 1704c <g_80>
   101a2:	48 89 85 68 ff ff ff 	mov    %rax,-0x98(%rbp)
   101a9:	48 8d 05 9c 6e 00 00 	lea    0x6e9c(%rip),%rax        # 1704c <g_80>
   101b0:	48 89 85 70 ff ff ff 	mov    %rax,-0x90(%rbp)
   101b7:	48 c7 85 78 ff ff ff 	movq   $0x0,-0x88(%rbp)
   101be:	00 00 00 00 
   101c2:	48 8d 05 83 6e 00 00 	lea    0x6e83(%rip),%rax        # 1704c <g_80>
   101c9:	48 89 45 80          	mov    %rax,-0x80(%rbp)
   101cd:	48 8d 05 78 6e 00 00 	lea    0x6e78(%rip),%rax        # 1704c <g_80>
   101d4:	48 89 45 88          	mov    %rax,-0x78(%rbp)
   101d8:	48 8d 05 6d 6e 00 00 	lea    0x6e6d(%rip),%rax        # 1704c <g_80>
   101df:	48 89 45 90          	mov    %rax,-0x70(%rbp)
   101e3:	48 8d 05 62 6e 00 00 	lea    0x6e62(%rip),%rax        # 1704c <g_80>
   101ea:	48 89 45 98          	mov    %rax,-0x68(%rbp)
   101ee:	48 c7 45 a0 00 00 00 	movq   $0x0,-0x60(%rbp)
   101f5:	00 
   101f6:	48 c7 45 a8 00 00 00 	movq   $0x0,-0x58(%rbp)
   101fd:	00 
   101fe:	48 8d 05 47 6e 00 00 	lea    0x6e47(%rip),%rax        # 1704c <g_80>
   10205:	48 89 45 b0          	mov    %rax,-0x50(%rbp)
   10209:	48 8d 05 3c 6e 00 00 	lea    0x6e3c(%rip),%rax        # 1704c <g_80>
   10210:	48 89 45 b8          	mov    %rax,-0x48(%rbp)
   10214:	48 8d 05 31 6e 00 00 	lea    0x6e31(%rip),%rax        # 1704c <g_80>
   1021b:	48 89 45 c0          	mov    %rax,-0x40(%rbp)
   1021f:	48 8d 05 26 6e 00 00 	lea    0x6e26(%rip),%rax        # 1704c <g_80>
   10226:	48 89 45 c8          	mov    %rax,-0x38(%rbp)
   1022a:	48 c7 45 d0 00 00 00 	movq   $0x0,-0x30(%rbp)
   10231:	00 
   10232:	48 8d 05 13 6e 00 00 	lea    0x6e13(%rip),%rax        # 1704c <g_80>
   10239:	48 89 45 d8          	mov    %rax,-0x28(%rbp)
   1023d:	48 8d 05 08 6e 00 00 	lea    0x6e08(%rip),%rax        # 1704c <g_80>
   10244:	48 89 45 e0          	mov    %rax,-0x20(%rbp)
   10248:	48 8d 05 fd 6d 00 00 	lea    0x6dfd(%rip),%rax        # 1704c <g_80>
   1024f:	48 89 45 e8          	mov    %rax,-0x18(%rbp)
   10253:	48 c7 85 20 ff ff ff 	movq   $0x0,-0xe0(%rbp)
   1025a:	00 00 00 00 
   1025e:	0f b7 15 d5 6d 00 00 	movzwl 0x6dd5(%rip),%edx        # 1703a <g_74>
   10265:	48 8b 05 94 7f 00 00 	mov    0x7f94(%rip),%rax        # 18200 <g_79>
   1026c:	0f bf d2             	movswl %dx,%edx
   1026f:	89 10                	mov    %edx,(%rax)
   10271:	0f b6 05 e2 6d 00 00 	movzbl 0x6de2(%rip),%eax        # 1705a <g_83+0xa>
   10278:	83 e8 01             	sub    $0x1,%eax
   1027b:	88 05 d9 6d 00 00    	mov    %al,0x6dd9(%rip)        # 1705a <g_83+0xa>
   10281:	48 8b 85 20 ff ff ff 	mov    -0xe0(%rbp),%rax
   10288:	48 8b 4d f8          	mov    -0x8(%rbp),%rcx
   1028c:	64 48 33 0c 25 28 00 	xor    %fs:0x28,%rcx
   10293:	00 00 
   10295:	74 05                	je     1029c <func_39+0x1a2>
   10297:	e8 d4 5d ff ff       	callq  6070 <__stack_chk_fail@plt>
   1029c:	c9                   	leaveq 
   1029d:	c3                   	retq   

000000000001029e <main>:
   1029e:	f3 0f 1e fa          	endbr64 
   102a2:	55                   	push   %rbp
   102a3:	48 89 e5             	mov    %rsp,%rbp
   102a6:	48 83 ec 20          	sub    $0x20,%rsp
   102aa:	89 7d ec             	mov    %edi,-0x14(%rbp)
   102ad:	48 89 75 e0          	mov    %rsi,-0x20(%rbp)
   102b1:	c7 45 fc 00 00 00 00 	movl   $0x0,-0x4(%rbp)
   102b8:	83 7d ec 02          	cmpl   $0x2,-0x14(%rbp)
   102bc:	75 25                	jne    102e3 <main+0x45>
   102be:	48 8b 45 e0          	mov    -0x20(%rbp),%rax
   102c2:	48 83 c0 08          	add    $0x8,%rax
   102c6:	48 8b 00             	mov    (%rax),%rax
   102c9:	48 8d 35 50 3b 00 00 	lea    0x3b50(%rip),%rsi        # 13e20 <g_2958+0x1d60>
   102d0:	48 89 c7             	mov    %rax,%rdi
   102d3:	e8 b8 5d ff ff       	callq  6090 <strcmp@plt>
   102d8:	85 c0                	test   %eax,%eax
   102da:	75 07                	jne    102e3 <main+0x45>
   102dc:	c7 45 fc 01 00 00 00 	movl   $0x1,-0x4(%rbp)
   102e3:	e8 a1 5e ff ff       	callq  6189 <platform_main_begin>
   102e8:	e8 ab 72 ff ff       	callq  7598 <crc32_gentab>
   102ed:	e8 c3 74 ff ff       	callq  77b5 <func_1>
   102f2:	0f b6 05 2f 6d 00 00 	movzbl 0x6d2f(%rip),%eax        # 17028 <g_4>
   102f9:	48 0f be c0          	movsbq %al,%rax
   102fd:	8b 55 fc             	mov    -0x4(%rbp),%edx
   10300:	48 8d 35 1b 3b 00 00 	lea    0x3b1b(%rip),%rsi        # 13e22 <g_2958+0x1d62>
   10307:	48 89 c7             	mov    %rax,%rdi
   1030a:	e8 e4 73 ff ff       	callq  76f3 <transparent_crc>
   1030f:	0f b6 05 12 6d 00 00 	movzbl 0x6d12(%rip),%eax        # 17028 <g_4>
   10316:	0f b6 c0             	movzbl %al,%eax
   10319:	8b 55 fc             	mov    -0x4(%rbp),%edx
   1031c:	48 8d 35 06 3b 00 00 	lea    0x3b06(%rip),%rsi        # 13e29 <g_2958+0x1d69>
   10323:	48 89 c7             	mov    %rax,%rdi
   10326:	e8 c8 73 ff ff       	callq  76f3 <transparent_crc>
   1032b:	0f b7 05 fe 6c 00 00 	movzwl 0x6cfe(%rip),%eax        # 17030 <g_52>
   10332:	0f b7 c0             	movzwl %ax,%eax
   10335:	8b 55 fc             	mov    -0x4(%rbp),%edx
   10338:	48 8d 35 f1 3a 00 00 	lea    0x3af1(%rip),%rsi        # 13e30 <g_2958+0x1d70>
   1033f:	48 89 c7             	mov    %rax,%rdi
   10342:	e8 ac 73 ff ff       	callq  76f3 <transparent_crc>
   10347:	8b 05 e7 6c 00 00    	mov    0x6ce7(%rip),%eax        # 17034 <g_53>
   1034d:	89 c1                	mov    %eax,%ecx
   1034f:	8b 45 fc             	mov    -0x4(%rbp),%eax
   10352:	89 c2                	mov    %eax,%edx
   10354:	48 8d 35 da 3a 00 00 	lea    0x3ada(%rip),%rsi        # 13e35 <g_2958+0x1d75>
   1035b:	48 89 cf             	mov    %rcx,%rdi
   1035e:	e8 90 73 ff ff       	callq  76f3 <transparent_crc>
   10363:	0f b6 05 ce 6c 00 00 	movzbl 0x6cce(%rip),%eax        # 17038 <g_57>
   1036a:	0f b6 c0             	movzbl %al,%eax
   1036d:	8b 55 fc             	mov    -0x4(%rbp),%edx
   10370:	48 8d 35 c3 3a 00 00 	lea    0x3ac3(%rip),%rsi        # 13e3a <g_2958+0x1d7a>
   10377:	48 89 c7             	mov    %rax,%rdi
   1037a:	e8 74 73 ff ff       	callq  76f3 <transparent_crc>
   1037f:	c7 45 f0 00 00 00 00 	movl   $0x0,-0x10(%rbp)
   10386:	eb 4a                	jmp    103d2 <main+0x134>
   10388:	8b 45 f0             	mov    -0x10(%rbp),%eax
   1038b:	48 98                	cltq   
   1038d:	48 8d 14 00          	lea    (%rax,%rax,1),%rdx
   10391:	48 8d 05 a2 6c 00 00 	lea    0x6ca2(%rip),%rax        # 1703a <g_74>
   10398:	0f b7 04 02          	movzwl (%rdx,%rax,1),%eax
   1039c:	48 0f bf c0          	movswq %ax,%rax
   103a0:	8b 55 fc             	mov    -0x4(%rbp),%edx
   103a3:	48 8d 35 95 3a 00 00 	lea    0x3a95(%rip),%rsi        # 13e3f <g_2958+0x1d7f>
   103aa:	48 89 c7             	mov    %rax,%rdi
   103ad:	e8 41 73 ff ff       	callq  76f3 <transparent_crc>
   103b2:	83 7d fc 00          	cmpl   $0x0,-0x4(%rbp)
   103b6:	74 16                	je     103ce <main+0x130>
   103b8:	8b 45 f0             	mov    -0x10(%rbp),%eax
   103bb:	89 c6                	mov    %eax,%esi
   103bd:	48 8d 3d 83 3a 00 00 	lea    0x3a83(%rip),%rdi        # 13e47 <g_2958+0x1d87>
   103c4:	b8 00 00 00 00       	mov    $0x0,%eax
   103c9:	e8 b2 5c ff ff       	callq  6080 <printf@plt>
   103ce:	83 45 f0 01          	addl   $0x1,-0x10(%rbp)
   103d2:	83 7d f0 02          	cmpl   $0x2,-0x10(%rbp)
   103d6:	7e b0                	jle    10388 <main+0xea>
   103d8:	48 8b 05 61 6c 00 00 	mov    0x6c61(%rip),%rax        # 17040 <g_76>
   103df:	48 89 c1             	mov    %rax,%rcx
   103e2:	8b 45 fc             	mov    -0x4(%rbp),%eax
   103e5:	89 c2                	mov    %eax,%edx
   103e7:	48 8d 35 67 3a 00 00 	lea    0x3a67(%rip),%rsi        # 13e55 <g_2958+0x1d95>
   103ee:	48 89 cf             	mov    %rcx,%rdi
   103f1:	e8 fd 72 ff ff       	callq  76f3 <transparent_crc>
   103f6:	8b 05 4c 6c 00 00    	mov    0x6c4c(%rip),%eax        # 17048 <g_78>
   103fc:	89 c1                	mov    %eax,%ecx
   103fe:	8b 45 fc             	mov    -0x4(%rbp),%eax
   10401:	89 c2                	mov    %eax,%edx
   10403:	48 8d 35 50 3a 00 00 	lea    0x3a50(%rip),%rsi        # 13e5a <g_2958+0x1d9a>
   1040a:	48 89 cf             	mov    %rcx,%rdi
   1040d:	e8 e1 72 ff ff       	callq  76f3 <transparent_crc>
   10412:	8b 05 34 6c 00 00    	mov    0x6c34(%rip),%eax        # 1704c <g_80>
   10418:	48 98                	cltq   
   1041a:	8b 55 fc             	mov    -0x4(%rbp),%edx
   1041d:	48 8d 35 3b 3a 00 00 	lea    0x3a3b(%rip),%rsi        # 13e5f <g_2958+0x1d9f>
   10424:	48 89 c7             	mov    %rax,%rdi
   10427:	e8 c7 72 ff ff       	callq  76f3 <transparent_crc>
   1042c:	c7 45 f0 00 00 00 00 	movl   $0x0,-0x10(%rbp)
   10433:	eb 69                	jmp    1049e <main+0x200>
   10435:	c7 45 f4 00 00 00 00 	movl   $0x0,-0xc(%rbp)
   1043c:	eb 56                	jmp    10494 <main+0x1f6>
   1043e:	8b 45 f4             	mov    -0xc(%rbp),%eax
   10441:	48 98                	cltq   
   10443:	8b 55 f0             	mov    -0x10(%rbp),%edx
   10446:	48 63 d2             	movslq %edx,%rdx
   10449:	48 01 d2             	add    %rdx,%rdx
   1044c:	48 01 c2             	add    %rax,%rdx
   1044f:	48 8d 05 fa 6b 00 00 	lea    0x6bfa(%rip),%rax        # 17050 <g_83>
   10456:	48 01 d0             	add    %rdx,%rax
   10459:	0f b6 00             	movzbl (%rax),%eax
   1045c:	0f b6 c0             	movzbl %al,%eax
   1045f:	8b 55 fc             	mov    -0x4(%rbp),%edx
   10462:	48 8d 35 fb 39 00 00 	lea    0x39fb(%rip),%rsi        # 13e64 <g_2958+0x1da4>
   10469:	48 89 c7             	mov    %rax,%rdi
   1046c:	e8 82 72 ff ff       	callq  76f3 <transparent_crc>
   10471:	83 7d fc 00          	cmpl   $0x0,-0x4(%rbp)
   10475:	74 19                	je     10490 <main+0x1f2>
   10477:	8b 55 f4             	mov    -0xc(%rbp),%edx
   1047a:	8b 45 f0             	mov    -0x10(%rbp),%eax
   1047d:	89 c6                	mov    %eax,%esi
   1047f:	48 8d 3d e9 39 00 00 	lea    0x39e9(%rip),%rdi        # 13e6f <g_2958+0x1daf>
   10486:	b8 00 00 00 00       	mov    $0x0,%eax
   1048b:	e8 f0 5b ff ff       	callq  6080 <printf@plt>
   10490:	83 45 f4 01          	addl   $0x1,-0xc(%rbp)
   10494:	83 7d f4 01          	cmpl   $0x1,-0xc(%rbp)
   10498:	7e a4                	jle    1043e <main+0x1a0>
   1049a:	83 45 f0 01          	addl   $0x1,-0x10(%rbp)
   1049e:	83 7d f0 08          	cmpl   $0x8,-0x10(%rbp)
   104a2:	7e 91                	jle    10435 <main+0x197>
   104a4:	c7 45 f0 00 00 00 00 	movl   $0x0,-0x10(%rbp)
   104ab:	e9 a5 00 00 00       	jmpq   10555 <main+0x2b7>
   104b0:	c7 45 f4 00 00 00 00 	movl   $0x0,-0xc(%rbp)
   104b7:	e9 8b 00 00 00       	jmpq   10547 <main+0x2a9>
   104bc:	c7 45 f8 00 00 00 00 	movl   $0x0,-0x8(%rbp)
   104c3:	eb 78                	jmp    1053d <main+0x29f>
   104c5:	8b 45 f8             	mov    -0x8(%rbp),%eax
   104c8:	48 63 f0             	movslq %eax,%rsi
   104cb:	8b 45 f0             	mov    -0x10(%rbp),%eax
   104ce:	48 63 d0             	movslq %eax,%rdx
   104d1:	8b 45 f4             	mov    -0xc(%rbp),%eax
   104d4:	48 63 c8             	movslq %eax,%rcx
   104d7:	48 89 d0             	mov    %rdx,%rax
   104da:	48 01 c0             	add    %rax,%rax
   104dd:	48 01 d0             	add    %rdx,%rax
   104e0:	48 c1 e0 03          	shl    $0x3,%rax
   104e4:	48 89 ca             	mov    %rcx,%rdx
   104e7:	48 01 d2             	add    %rdx,%rdx
   104ea:	48 01 ca             	add    %rcx,%rdx
   104ed:	48 01 d0             	add    %rdx,%rax
   104f0:	48 8d 14 30          	lea    (%rax,%rsi,1),%rdx
   104f4:	48 8d 05 85 6b 00 00 	lea    0x6b85(%rip),%rax        # 17080 <g_103>
   104fb:	48 01 d0             	add    %rdx,%rax
   104fe:	0f b6 00             	movzbl (%rax),%eax
   10501:	48 0f be c0          	movsbq %al,%rax
   10505:	8b 55 fc             	mov    -0x4(%rbp),%edx
   10508:	48 8d 35 72 39 00 00 	lea    0x3972(%rip),%rsi        # 13e81 <g_2958+0x1dc1>
   1050f:	48 89 c7             	mov    %rax,%rdi
   10512:	e8 dc 71 ff ff       	callq  76f3 <transparent_crc>
   10517:	83 7d fc 00          	cmpl   $0x0,-0x4(%rbp)
   1051b:	74 1c                	je     10539 <main+0x29b>
   1051d:	8b 4d f8             	mov    -0x8(%rbp),%ecx
   10520:	8b 55 f4             	mov    -0xc(%rbp),%edx
   10523:	8b 45 f0             	mov    -0x10(%rbp),%eax
   10526:	89 c6                	mov    %eax,%esi
   10528:	48 8d 3d 61 39 00 00 	lea    0x3961(%rip),%rdi        # 13e90 <g_2958+0x1dd0>
   1052f:	b8 00 00 00 00       	mov    $0x0,%eax
   10534:	e8 47 5b ff ff       	callq  6080 <printf@plt>
   10539:	83 45 f8 01          	addl   $0x1,-0x8(%rbp)
   1053d:	83 7d f8 02          	cmpl   $0x2,-0x8(%rbp)
   10541:	7e 82                	jle    104c5 <main+0x227>
   10543:	83 45 f4 01          	addl   $0x1,-0xc(%rbp)
   10547:	83 7d f4 07          	cmpl   $0x7,-0xc(%rbp)
   1054b:	0f 8e 6b ff ff ff    	jle    104bc <main+0x21e>
   10551:	83 45 f0 01          	addl   $0x1,-0x10(%rbp)
   10555:	83 7d f0 09          	cmpl   $0x9,-0x10(%rbp)
   10559:	0f 8e 51 ff ff ff    	jle    104b0 <main+0x212>
   1055f:	0f b7 05 0a 6c 00 00 	movzwl 0x6c0a(%rip),%eax        # 17170 <g_119>
   10566:	0f b7 c0             	movzwl %ax,%eax
   10569:	8b 55 fc             	mov    -0x4(%rbp),%edx
   1056c:	48 8d 35 33 39 00 00 	lea    0x3933(%rip),%rsi        # 13ea6 <g_2958+0x1de6>
   10573:	48 89 c7             	mov    %rax,%rdi
   10576:	e8 78 71 ff ff       	callq  76f3 <transparent_crc>
   1057b:	0f b6 05 f6 6b 00 00 	movzbl 0x6bf6(%rip),%eax        # 17178 <g_176>
   10582:	0f b6 c0             	movzbl %al,%eax
   10585:	8b 55 fc             	mov    -0x4(%rbp),%edx
   10588:	48 8d 35 20 39 00 00 	lea    0x3920(%rip),%rsi        # 13eaf <g_2958+0x1def>
   1058f:	48 89 c7             	mov    %rax,%rdi
   10592:	e8 5c 71 ff ff       	callq  76f3 <transparent_crc>
   10597:	8b 05 e3 6b 00 00    	mov    0x6be3(%rip),%eax        # 17180 <g_190>
   1059d:	48 98                	cltq   
   1059f:	8b 55 fc             	mov    -0x4(%rbp),%edx
   105a2:	48 8d 35 0c 39 00 00 	lea    0x390c(%rip),%rsi        # 13eb5 <g_2958+0x1df5>
   105a9:	48 89 c7             	mov    %rax,%rdi
   105ac:	e8 42 71 ff ff       	callq  76f3 <transparent_crc>
   105b1:	0f b7 05 d0 6b 00 00 	movzwl 0x6bd0(%rip),%eax        # 17188 <g_191>
   105b8:	0f b7 c0             	movzwl %ax,%eax
   105bb:	8b 55 fc             	mov    -0x4(%rbp),%edx
   105be:	48 8d 35 f9 38 00 00 	lea    0x38f9(%rip),%rsi        # 13ebe <g_2958+0x1dfe>
   105c5:	48 89 c7             	mov    %rax,%rdi
   105c8:	e8 26 71 ff ff       	callq  76f3 <transparent_crc>
   105cd:	0f b6 05 bc 6b 00 00 	movzbl 0x6bbc(%rip),%eax        # 17190 <g_231>
   105d4:	48 0f be c0          	movsbq %al,%rax
   105d8:	8b 55 fc             	mov    -0x4(%rbp),%edx
   105db:	48 8d 35 e5 38 00 00 	lea    0x38e5(%rip),%rsi        # 13ec7 <g_2958+0x1e07>
   105e2:	48 89 c7             	mov    %rax,%rdi
   105e5:	e8 09 71 ff ff       	callq  76f3 <transparent_crc>
   105ea:	48 8b 05 a7 6b 00 00 	mov    0x6ba7(%rip),%rax        # 17198 <g_258>
   105f1:	48 89 c1             	mov    %rax,%rcx
   105f4:	8b 45 fc             	mov    -0x4(%rbp),%eax
   105f7:	89 c2                	mov    %eax,%edx
   105f9:	48 8d 35 cd 38 00 00 	lea    0x38cd(%rip),%rsi        # 13ecd <g_2958+0x1e0d>
   10600:	48 89 cf             	mov    %rcx,%rdi
   10603:	e8 eb 70 ff ff       	callq  76f3 <transparent_crc>
   10608:	c7 45 f0 00 00 00 00 	movl   $0x0,-0x10(%rbp)
   1060f:	e9 b6 00 00 00       	jmpq   106ca <main+0x42c>
   10614:	c7 45 f4 00 00 00 00 	movl   $0x0,-0xc(%rbp)
   1061b:	e9 9c 00 00 00       	jmpq   106bc <main+0x41e>
   10620:	c7 45 f8 00 00 00 00 	movl   $0x0,-0x8(%rbp)
   10627:	e9 82 00 00 00       	jmpq   106ae <main+0x410>
   1062c:	8b 45 f8             	mov    -0x8(%rbp),%eax
   1062f:	48 63 f0             	movslq %eax,%rsi
   10632:	8b 45 f0             	mov    -0x10(%rbp),%eax
   10635:	48 98                	cltq   
   10637:	8b 55 f4             	mov    -0xc(%rbp),%edx
   1063a:	48 63 ca             	movslq %edx,%rcx
   1063d:	48 89 c2             	mov    %rax,%rdx
   10640:	48 c1 e2 04          	shl    $0x4,%rdx
   10644:	48 29 c2             	sub    %rax,%rdx
   10647:	48 8d 04 12          	lea    (%rdx,%rdx,1),%rax
   1064b:	48 89 c2             	mov    %rax,%rdx
   1064e:	48 89 c8             	mov    %rcx,%rax
   10651:	48 01 c0             	add    %rax,%rax
   10654:	48 01 c8             	add    %rcx,%rax
   10657:	48 01 c0             	add    %rax,%rax
   1065a:	48 01 d0             	add    %rdx,%rax
   1065d:	48 01 f0             	add    %rsi,%rax
   10660:	48 8d 14 85 00 00 00 	lea    0x0(,%rax,4),%rdx
   10667:	00 
   10668:	48 8d 05 31 6b 00 00 	lea    0x6b31(%rip),%rax        # 171a0 <g_260>
   1066f:	8b 04 02             	mov    (%rdx,%rax,1),%eax
   10672:	89 c1                	mov    %eax,%ecx
   10674:	8b 45 fc             	mov    -0x4(%rbp),%eax
   10677:	89 c2                	mov    %eax,%edx
   10679:	48 8d 35 53 38 00 00 	lea    0x3853(%rip),%rsi        # 13ed3 <g_2958+0x1e13>
   10680:	48 89 cf             	mov    %rcx,%rdi
   10683:	e8 6b 70 ff ff       	callq  76f3 <transparent_crc>
   10688:	83 7d fc 00          	cmpl   $0x0,-0x4(%rbp)
   1068c:	74 1c                	je     106aa <main+0x40c>
   1068e:	8b 4d f8             	mov    -0x8(%rbp),%ecx
   10691:	8b 55 f4             	mov    -0xc(%rbp),%edx
   10694:	8b 45 f0             	mov    -0x10(%rbp),%eax
   10697:	89 c6                	mov    %eax,%esi
   10699:	48 8d 3d f0 37 00 00 	lea    0x37f0(%rip),%rdi        # 13e90 <g_2958+0x1dd0>
   106a0:	b8 00 00 00 00       	mov    $0x0,%eax
   106a5:	e8 d6 59 ff ff       	callq  6080 <printf@plt>
   106aa:	83 45 f8 01          	addl   $0x1,-0x8(%rbp)
   106ae:	83 7d f8 05          	cmpl   $0x5,-0x8(%rbp)
   106b2:	0f 8e 74 ff ff ff    	jle    1062c <main+0x38e>
   106b8:	83 45 f4 01          	addl   $0x1,-0xc(%rbp)
   106bc:	83 7d f4 04          	cmpl   $0x4,-0xc(%rbp)
   106c0:	0f 8e 5a ff ff ff    	jle    10620 <main+0x382>
   106c6:	83 45 f0 01          	addl   $0x1,-0x10(%rbp)
   106ca:	83 7d f0 01          	cmpl   $0x1,-0x10(%rbp)
   106ce:	0f 8e 40 ff ff ff    	jle    10614 <main+0x376>
   106d4:	8b 05 b6 6b 00 00    	mov    0x6bb6(%rip),%eax        # 17290 <g_282>
   106da:	48 98                	cltq   
   106dc:	8b 55 fc             	mov    -0x4(%rbp),%edx
   106df:	48 8d 35 fc 37 00 00 	lea    0x37fc(%rip),%rsi        # 13ee2 <g_2958+0x1e22>
   106e6:	48 89 c7             	mov    %rax,%rdi
   106e9:	e8 05 70 ff ff       	callq  76f3 <transparent_crc>
   106ee:	8b 05 a0 6b 00 00    	mov    0x6ba0(%rip),%eax        # 17294 <g_414>
   106f4:	89 c1                	mov    %eax,%ecx
   106f6:	8b 45 fc             	mov    -0x4(%rbp),%eax
   106f9:	89 c2                	mov    %eax,%edx
   106fb:	48 8d 35 e6 37 00 00 	lea    0x37e6(%rip),%rsi        # 13ee8 <g_2958+0x1e28>
   10702:	48 89 cf             	mov    %rcx,%rdi
   10705:	e8 e9 6f ff ff       	callq  76f3 <transparent_crc>
   1070a:	48 8b 05 87 6b 00 00 	mov    0x6b87(%rip),%rax        # 17298 <g_444>
   10711:	8b 55 fc             	mov    -0x4(%rbp),%edx
   10714:	48 8d 35 d3 37 00 00 	lea    0x37d3(%rip),%rsi        # 13eee <g_2958+0x1e2e>
   1071b:	48 89 c7             	mov    %rax,%rdi
   1071e:	e8 d0 6f ff ff       	callq  76f3 <transparent_crc>
   10723:	b8 ff ff ff ff       	mov    $0xffffffff,%eax
   10728:	0f b7 c0             	movzwl %ax,%eax
   1072b:	8b 55 fc             	mov    -0x4(%rbp),%edx
   1072e:	48 8d 35 bf 37 00 00 	lea    0x37bf(%rip),%rsi        # 13ef4 <g_2958+0x1e34>
   10735:	48 89 c7             	mov    %rax,%rdi
   10738:	e8 b6 6f ff ff       	callq  76f3 <transparent_crc>
   1073d:	0f b7 05 5c 6b 00 00 	movzwl 0x6b5c(%rip),%eax        # 172a0 <g_449>
   10744:	0f b7 c0             	movzwl %ax,%eax
   10747:	8b 55 fc             	mov    -0x4(%rbp),%edx
   1074a:	48 8d 35 ac 37 00 00 	lea    0x37ac(%rip),%rsi        # 13efd <g_2958+0x1e3d>
   10751:	48 89 c7             	mov    %rax,%rdi
   10754:	e8 9a 6f ff ff       	callq  76f3 <transparent_crc>
   10759:	0f b7 05 48 6b 00 00 	movzwl 0x6b48(%rip),%eax        # 172a8 <g_540>
   10760:	0f b7 c0             	movzwl %ax,%eax
   10763:	8b 55 fc             	mov    -0x4(%rbp),%edx
   10766:	48 8d 35 99 37 00 00 	lea    0x3799(%rip),%rsi        # 13f06 <g_2958+0x1e46>
   1076d:	48 89 c7             	mov    %rax,%rdi
   10770:	e8 7e 6f ff ff       	callq  76f3 <transparent_crc>
   10775:	c7 45 f0 00 00 00 00 	movl   $0x0,-0x10(%rbp)
   1077c:	eb 46                	jmp    107c4 <main+0x526>
   1077e:	8b 45 f0             	mov    -0x10(%rbp),%eax
   10781:	48 98                	cltq   
   10783:	48 8d 15 26 6b 00 00 	lea    0x6b26(%rip),%rdx        # 172b0 <g_564>
   1078a:	0f b6 04 10          	movzbl (%rax,%rdx,1),%eax
   1078e:	48 0f be c0          	movsbq %al,%rax
   10792:	8b 55 fc             	mov    -0x4(%rbp),%edx
   10795:	48 8d 35 73 37 00 00 	lea    0x3773(%rip),%rsi        # 13f0f <g_2958+0x1e4f>
   1079c:	48 89 c7             	mov    %rax,%rdi
   1079f:	e8 4f 6f ff ff       	callq  76f3 <transparent_crc>
   107a4:	83 7d fc 00          	cmpl   $0x0,-0x4(%rbp)
   107a8:	74 16                	je     107c0 <main+0x522>
   107aa:	8b 45 f0             	mov    -0x10(%rbp),%eax
   107ad:	89 c6                	mov    %eax,%esi
   107af:	48 8d 3d 91 36 00 00 	lea    0x3691(%rip),%rdi        # 13e47 <g_2958+0x1d87>
   107b6:	b8 00 00 00 00       	mov    $0x0,%eax
   107bb:	e8 c0 58 ff ff       	callq  6080 <printf@plt>
   107c0:	83 45 f0 01          	addl   $0x1,-0x10(%rbp)
   107c4:	83 7d f0 06          	cmpl   $0x6,-0x10(%rbp)
   107c8:	7e b4                	jle    1077e <main+0x4e0>
   107ca:	c7 45 f0 00 00 00 00 	movl   $0x0,-0x10(%rbp)
   107d1:	eb 6e                	jmp    10841 <main+0x5a3>
   107d3:	c7 45 f4 00 00 00 00 	movl   $0x0,-0xc(%rbp)
   107da:	eb 5b                	jmp    10837 <main+0x599>
   107dc:	8b 45 f4             	mov    -0xc(%rbp),%eax
   107df:	48 98                	cltq   
   107e1:	8b 55 f0             	mov    -0x10(%rbp),%edx
   107e4:	48 63 d2             	movslq %edx,%rdx
   107e7:	48 c1 e2 03          	shl    $0x3,%rdx
   107eb:	48 01 d0             	add    %rdx,%rax
   107ee:	48 8d 14 85 00 00 00 	lea    0x0(,%rax,4),%rdx
   107f5:	00 
   107f6:	48 8d 05 c3 6a 00 00 	lea    0x6ac3(%rip),%rax        # 172c0 <g_663>
   107fd:	8b 04 02             	mov    (%rdx,%rax,1),%eax
   10800:	48 98                	cltq   
   10802:	8b 55 fc             	mov    -0x4(%rbp),%edx
   10805:	48 8d 35 0c 37 00 00 	lea    0x370c(%rip),%rsi        # 13f18 <g_2958+0x1e58>
   1080c:	48 89 c7             	mov    %rax,%rdi
   1080f:	e8 df 6e ff ff       	callq  76f3 <transparent_crc>
   10814:	83 7d fc 00          	cmpl   $0x0,-0x4(%rbp)
   10818:	74 19                	je     10833 <main+0x595>
   1081a:	8b 55 f4             	mov    -0xc(%rbp),%edx
   1081d:	8b 45 f0             	mov    -0x10(%rbp),%eax
   10820:	89 c6                	mov    %eax,%esi
   10822:	48 8d 3d 46 36 00 00 	lea    0x3646(%rip),%rdi        # 13e6f <g_2958+0x1daf>
   10829:	b8 00 00 00 00       	mov    $0x0,%eax
   1082e:	e8 4d 58 ff ff       	callq  6080 <printf@plt>
   10833:	83 45 f4 01          	addl   $0x1,-0xc(%rbp)
   10837:	83 7d f4 07          	cmpl   $0x7,-0xc(%rbp)
   1083b:	7e 9f                	jle    107dc <main+0x53e>
   1083d:	83 45 f0 01          	addl   $0x1,-0x10(%rbp)
   10841:	83 7d f0 04          	cmpl   $0x4,-0x10(%rbp)
   10845:	7e 8c                	jle    107d3 <main+0x535>
   10847:	0f b7 05 12 6b 00 00 	movzwl 0x6b12(%rip),%eax        # 17360 <g_666>
   1084e:	48 0f bf c0          	movswq %ax,%rax
   10852:	8b 55 fc             	mov    -0x4(%rbp),%edx
   10855:	48 8d 35 c8 36 00 00 	lea    0x36c8(%rip),%rsi        # 13f24 <g_2958+0x1e64>
   1085c:	48 89 c7             	mov    %rax,%rdi
   1085f:	e8 8f 6e ff ff       	callq  76f3 <transparent_crc>
   10864:	c7 45 f0 00 00 00 00 	movl   $0x0,-0x10(%rbp)
   1086b:	e9 a5 00 00 00       	jmpq   10915 <main+0x677>
   10870:	c7 45 f4 00 00 00 00 	movl   $0x0,-0xc(%rbp)
   10877:	e9 8b 00 00 00       	jmpq   10907 <main+0x669>
   1087c:	c7 45 f8 00 00 00 00 	movl   $0x0,-0x8(%rbp)
   10883:	eb 78                	jmp    108fd <main+0x65f>
   10885:	8b 45 f8             	mov    -0x8(%rbp),%eax
   10888:	48 63 c8             	movslq %eax,%rcx
   1088b:	8b 45 f0             	mov    -0x10(%rbp),%eax
   1088e:	48 63 d0             	movslq %eax,%rdx
   10891:	8b 45 f4             	mov    -0xc(%rbp),%eax
   10894:	48 63 f0             	movslq %eax,%rsi
   10897:	48 89 d0             	mov    %rdx,%rax
   1089a:	48 c1 e0 02          	shl    $0x2,%rax
   1089e:	48 01 d0             	add    %rdx,%rax
   108a1:	48 01 c0             	add    %rax,%rax
   108a4:	48 01 f0             	add    %rsi,%rax
   108a7:	48 01 c0             	add    %rax,%rax
   108aa:	48 01 c8             	add    %rcx,%rax
   108ad:	48 8d 14 c5 00 00 00 	lea    0x0(,%rax,8),%rdx
   108b4:	00 
   108b5:	48 8d 05 c4 6a 00 00 	lea    0x6ac4(%rip),%rax        # 17380 <g_811>
   108bc:	48 8b 04 02          	mov    (%rdx,%rax,1),%rax
   108c0:	48 89 c1             	mov    %rax,%rcx
   108c3:	8b 45 fc             	mov    -0x4(%rbp),%eax
   108c6:	89 c2                	mov    %eax,%edx
   108c8:	48 8d 35 5b 36 00 00 	lea    0x365b(%rip),%rsi        # 13f2a <g_2958+0x1e6a>
   108cf:	48 89 cf             	mov    %rcx,%rdi
   108d2:	e8 1c 6e ff ff       	callq  76f3 <transparent_crc>
   108d7:	83 7d fc 00          	cmpl   $0x0,-0x4(%rbp)
   108db:	74 1c                	je     108f9 <main+0x65b>
   108dd:	8b 4d f8             	mov    -0x8(%rbp),%ecx
   108e0:	8b 55 f4             	mov    -0xc(%rbp),%edx
   108e3:	8b 45 f0             	mov    -0x10(%rbp),%eax
   108e6:	89 c6                	mov    %eax,%esi
   108e8:	48 8d 3d a1 35 00 00 	lea    0x35a1(%rip),%rdi        # 13e90 <g_2958+0x1dd0>
   108ef:	b8 00 00 00 00       	mov    $0x0,%eax
   108f4:	e8 87 57 ff ff       	callq  6080 <printf@plt>
   108f9:	83 45 f8 01          	addl   $0x1,-0x8(%rbp)
   108fd:	83 7d f8 01          	cmpl   $0x1,-0x8(%rbp)
   10901:	7e 82                	jle    10885 <main+0x5e7>
   10903:	83 45 f4 01          	addl   $0x1,-0xc(%rbp)
   10907:	83 7d f4 09          	cmpl   $0x9,-0xc(%rbp)
   1090b:	0f 8e 6b ff ff ff    	jle    1087c <main+0x5de>
   10911:	83 45 f0 01          	addl   $0x1,-0x10(%rbp)
   10915:	83 7d f0 05          	cmpl   $0x5,-0x10(%rbp)
   10919:	0f 8e 51 ff ff ff    	jle    10870 <main+0x5d2>
   1091f:	c7 45 f0 00 00 00 00 	movl   $0x0,-0x10(%rbp)
   10926:	e9 b4 00 00 00       	jmpq   109df <main+0x741>
   1092b:	c7 45 f4 00 00 00 00 	movl   $0x0,-0xc(%rbp)
   10932:	e9 9a 00 00 00       	jmpq   109d1 <main+0x733>
   10937:	c7 45 f8 00 00 00 00 	movl   $0x0,-0x8(%rbp)
   1093e:	e9 80 00 00 00       	jmpq   109c3 <main+0x725>
   10943:	8b 45 f8             	mov    -0x8(%rbp),%eax
   10946:	48 63 f0             	movslq %eax,%rsi
   10949:	8b 45 f0             	mov    -0x10(%rbp),%eax
   1094c:	48 63 d0             	movslq %eax,%rdx
   1094f:	8b 45 f4             	mov    -0xc(%rbp),%eax
   10952:	48 63 c8             	movslq %eax,%rcx
   10955:	48 89 d0             	mov    %rdx,%rax
   10958:	48 c1 e0 03          	shl    $0x3,%rax
   1095c:	48 01 d0             	add    %rdx,%rax
   1095f:	48 8d 14 c5 00 00 00 	lea    0x0(,%rax,8),%rdx
   10966:	00 
   10967:	48 01 d0             	add    %rdx,%rax
   1096a:	48 89 ca             	mov    %rcx,%rdx
   1096d:	48 c1 e2 03          	shl    $0x3,%rdx
   10971:	48 01 ca             	add    %rcx,%rdx
   10974:	48 01 d0             	add    %rdx,%rax
   10977:	48 8d 14 30          	lea    (%rax,%rsi,1),%rdx
   1097b:	48 8d 05 be 6d 00 00 	lea    0x6dbe(%rip),%rax        # 17740 <g_831>
   10982:	48 01 d0             	add    %rdx,%rax
   10985:	0f b6 00             	movzbl (%rax),%eax
   10988:	0f b6 c0             	movzbl %al,%eax
   1098b:	8b 55 fc             	mov    -0x4(%rbp),%edx
   1098e:	48 8d 35 a4 35 00 00 	lea    0x35a4(%rip),%rsi        # 13f39 <g_2958+0x1e79>
   10995:	48 89 c7             	mov    %rax,%rdi
   10998:	e8 56 6d ff ff       	callq  76f3 <transparent_crc>
   1099d:	83 7d fc 00          	cmpl   $0x0,-0x4(%rbp)
   109a1:	74 1c                	je     109bf <main+0x721>
   109a3:	8b 4d f8             	mov    -0x8(%rbp),%ecx
   109a6:	8b 55 f4             	mov    -0xc(%rbp),%edx
   109a9:	8b 45 f0             	mov    -0x10(%rbp),%eax
   109ac:	89 c6                	mov    %eax,%esi
   109ae:	48 8d 3d db 34 00 00 	lea    0x34db(%rip),%rdi        # 13e90 <g_2958+0x1dd0>
   109b5:	b8 00 00 00 00       	mov    $0x0,%eax
   109ba:	e8 c1 56 ff ff       	callq  6080 <printf@plt>
   109bf:	83 45 f8 01          	addl   $0x1,-0x8(%rbp)
   109c3:	83 7d f8 08          	cmpl   $0x8,-0x8(%rbp)
   109c7:	0f 8e 76 ff ff ff    	jle    10943 <main+0x6a5>
   109cd:	83 45 f4 01          	addl   $0x1,-0xc(%rbp)
   109d1:	83 7d f4 08          	cmpl   $0x8,-0xc(%rbp)
   109d5:	0f 8e 5c ff ff ff    	jle    10937 <main+0x699>
   109db:	83 45 f0 01          	addl   $0x1,-0x10(%rbp)
   109df:	83 7d f0 01          	cmpl   $0x1,-0x10(%rbp)
   109e3:	0f 8e 42 ff ff ff    	jle    1092b <main+0x68d>
   109e9:	0f b6 05 f8 6d 00 00 	movzbl 0x6df8(%rip),%eax        # 177e8 <g_861>
   109f0:	48 0f be c0          	movsbq %al,%rax
   109f4:	8b 55 fc             	mov    -0x4(%rbp),%edx
   109f7:	48 8d 35 4a 35 00 00 	lea    0x354a(%rip),%rsi        # 13f48 <g_2958+0x1e88>
   109fe:	48 89 c7             	mov    %rax,%rdi
   10a01:	e8 ed 6c ff ff       	callq  76f3 <transparent_crc>
   10a06:	0f b6 05 db 6d 00 00 	movzbl 0x6ddb(%rip),%eax        # 177e8 <g_861>
   10a0d:	0f b6 c0             	movzbl %al,%eax
   10a10:	8b 55 fc             	mov    -0x4(%rbp),%edx
   10a13:	48 8d 35 37 35 00 00 	lea    0x3537(%rip),%rsi        # 13f51 <g_2958+0x1e91>
   10a1a:	48 89 c7             	mov    %rax,%rdi
   10a1d:	e8 d1 6c ff ff       	callq  76f3 <transparent_crc>
   10a22:	48 8b 05 c7 6d 00 00 	mov    0x6dc7(%rip),%rax        # 177f0 <g_875>
   10a29:	8b 55 fc             	mov    -0x4(%rbp),%edx
   10a2c:	48 8d 35 27 35 00 00 	lea    0x3527(%rip),%rsi        # 13f5a <g_2958+0x1e9a>
   10a33:	48 89 c7             	mov    %rax,%rdi
   10a36:	e8 b8 6c ff ff       	callq  76f3 <transparent_crc>
   10a3b:	8b 05 b7 6d 00 00    	mov    0x6db7(%rip),%eax        # 177f8 <g_876>
   10a41:	48 98                	cltq   
   10a43:	8b 55 fc             	mov    -0x4(%rbp),%edx
   10a46:	48 8d 35 13 35 00 00 	lea    0x3513(%rip),%rsi        # 13f60 <g_2958+0x1ea0>
   10a4d:	48 89 c7             	mov    %rax,%rdi
   10a50:	e8 9e 6c ff ff       	callq  76f3 <transparent_crc>
   10a55:	0f b7 05 a4 6d 00 00 	movzwl 0x6da4(%rip),%eax        # 17800 <g_892>
   10a5c:	0f b7 c0             	movzwl %ax,%eax
   10a5f:	8b 55 fc             	mov    -0x4(%rbp),%edx
   10a62:	48 8d 35 fd 34 00 00 	lea    0x34fd(%rip),%rsi        # 13f66 <g_2958+0x1ea6>
   10a69:	48 89 c7             	mov    %rax,%rdi
   10a6c:	e8 82 6c ff ff       	callq  76f3 <transparent_crc>
   10a71:	0f b7 05 90 6d 00 00 	movzwl 0x6d90(%rip),%eax        # 17808 <g_923>
   10a78:	48 0f bf c0          	movswq %ax,%rax
   10a7c:	8b 55 fc             	mov    -0x4(%rbp),%edx
   10a7f:	48 8d 35 e9 34 00 00 	lea    0x34e9(%rip),%rsi        # 13f6f <g_2958+0x1eaf>
   10a86:	48 89 c7             	mov    %rax,%rdi
   10a89:	e8 65 6c ff ff       	callq  76f3 <transparent_crc>
   10a8e:	c7 45 f0 00 00 00 00 	movl   $0x0,-0x10(%rbp)
   10a95:	eb 45                	jmp    10adc <main+0x83e>
   10a97:	8b 45 f0             	mov    -0x10(%rbp),%eax
   10a9a:	48 98                	cltq   
   10a9c:	48 8d 15 67 6d 00 00 	lea    0x6d67(%rip),%rdx        # 1780a <g_963>
   10aa3:	0f b6 04 10          	movzbl (%rax,%rdx,1),%eax
   10aa7:	0f b6 c0             	movzbl %al,%eax
   10aaa:	8b 55 fc             	mov    -0x4(%rbp),%edx
   10aad:	48 8d 35 c1 34 00 00 	lea    0x34c1(%rip),%rsi        # 13f75 <g_2958+0x1eb5>
   10ab4:	48 89 c7             	mov    %rax,%rdi
   10ab7:	e8 37 6c ff ff       	callq  76f3 <transparent_crc>
   10abc:	83 7d fc 00          	cmpl   $0x0,-0x4(%rbp)
   10ac0:	74 16                	je     10ad8 <main+0x83a>
   10ac2:	8b 45 f0             	mov    -0x10(%rbp),%eax
   10ac5:	89 c6                	mov    %eax,%esi
   10ac7:	48 8d 3d 79 33 00 00 	lea    0x3379(%rip),%rdi        # 13e47 <g_2958+0x1d87>
   10ace:	b8 00 00 00 00       	mov    $0x0,%eax
   10ad3:	e8 a8 55 ff ff       	callq  6080 <printf@plt>
   10ad8:	83 45 f0 01          	addl   $0x1,-0x10(%rbp)
   10adc:	83 7d f0 03          	cmpl   $0x3,-0x10(%rbp)
   10ae0:	7e b5                	jle    10a97 <main+0x7f9>
   10ae2:	0f b7 05 27 6d 00 00 	movzwl 0x6d27(%rip),%eax        # 17810 <g_1188>
   10ae9:	0f b7 c0             	movzwl %ax,%eax
   10aec:	8b 55 fc             	mov    -0x4(%rbp),%edx
   10aef:	48 8d 35 88 34 00 00 	lea    0x3488(%rip),%rsi        # 13f7e <g_2958+0x1ebe>
   10af6:	48 89 c7             	mov    %rax,%rdi
   10af9:	e8 f5 6b ff ff       	callq  76f3 <transparent_crc>
   10afe:	48 8b 05 13 6d 00 00 	mov    0x6d13(%rip),%rax        # 17818 <g_1238>
   10b05:	8b 55 fc             	mov    -0x4(%rbp),%edx
   10b08:	48 8d 35 79 34 00 00 	lea    0x3479(%rip),%rsi        # 13f88 <g_2958+0x1ec8>
   10b0f:	48 89 c7             	mov    %rax,%rdi
   10b12:	e8 dc 6b ff ff       	callq  76f3 <transparent_crc>
   10b17:	48 8b 05 02 6d 00 00 	mov    0x6d02(%rip),%rax        # 17820 <g_1317>
   10b1e:	48 89 c1             	mov    %rax,%rcx
   10b21:	8b 45 fc             	mov    -0x4(%rbp),%eax
   10b24:	89 c2                	mov    %eax,%edx
   10b26:	48 8d 35 62 34 00 00 	lea    0x3462(%rip),%rsi        # 13f8f <g_2958+0x1ecf>
   10b2d:	48 89 cf             	mov    %rcx,%rdi
   10b30:	e8 be 6b ff ff       	callq  76f3 <transparent_crc>
   10b35:	0f b7 05 ec 6c 00 00 	movzwl 0x6cec(%rip),%eax        # 17828 <g_1384>
   10b3c:	0f b7 c0             	movzwl %ax,%eax
   10b3f:	8b 55 fc             	mov    -0x4(%rbp),%edx
   10b42:	48 8d 35 4d 34 00 00 	lea    0x344d(%rip),%rsi        # 13f96 <g_2958+0x1ed6>
   10b49:	48 89 c7             	mov    %rax,%rdi
   10b4c:	e8 a2 6b ff ff       	callq  76f3 <transparent_crc>
   10b51:	0f b7 05 d8 6c 00 00 	movzwl 0x6cd8(%rip),%eax        # 17830 <g_1443>
   10b58:	0f b7 c0             	movzwl %ax,%eax
   10b5b:	8b 55 fc             	mov    -0x4(%rbp),%edx
   10b5e:	48 8d 35 3b 34 00 00 	lea    0x343b(%rip),%rsi        # 13fa0 <g_2958+0x1ee0>
   10b65:	48 89 c7             	mov    %rax,%rdi
   10b68:	e8 86 6b ff ff       	callq  76f3 <transparent_crc>
   10b6d:	48 b8 75 0e c8 b4 77 	movabs $0xc4e7a877b4c80e75,%rax
   10b74:	a8 e7 c4 
   10b77:	48 89 c1             	mov    %rax,%rcx
   10b7a:	8b 45 fc             	mov    -0x4(%rbp),%eax
   10b7d:	89 c2                	mov    %eax,%edx
   10b7f:	48 8d 35 24 34 00 00 	lea    0x3424(%rip),%rsi        # 13faa <g_2958+0x1eea>
   10b86:	48 89 cf             	mov    %rcx,%rdi
   10b89:	e8 65 6b ff ff       	callq  76f3 <transparent_crc>
   10b8e:	8b 05 a4 6c 00 00    	mov    0x6ca4(%rip),%eax        # 17838 <g_1539>
   10b94:	48 98                	cltq   
   10b96:	8b 55 fc             	mov    -0x4(%rbp),%edx
   10b99:	48 8d 35 11 34 00 00 	lea    0x3411(%rip),%rsi        # 13fb1 <g_2958+0x1ef1>
   10ba0:	48 89 c7             	mov    %rax,%rdi
   10ba3:	e8 4b 6b ff ff       	callq  76f3 <transparent_crc>
   10ba8:	8b 05 92 6c 00 00    	mov    0x6c92(%rip),%eax        # 17840 <g_1683>
   10bae:	48 98                	cltq   
   10bb0:	8b 55 fc             	mov    -0x4(%rbp),%edx
   10bb3:	48 8d 35 01 34 00 00 	lea    0x3401(%rip),%rsi        # 13fbb <g_2958+0x1efb>
   10bba:	48 89 c7             	mov    %rax,%rdi
   10bbd:	e8 31 6b ff ff       	callq  76f3 <transparent_crc>
   10bc2:	c7 45 f0 00 00 00 00 	movl   $0x0,-0x10(%rbp)
   10bc9:	eb 3e                	jmp    10c09 <main+0x96b>
   10bcb:	48 b9 fd ba 66 e2 3d 	movabs $0x1255e63de266bafd,%rcx
   10bd2:	e6 55 12 
   10bd5:	8b 45 fc             	mov    -0x4(%rbp),%eax
   10bd8:	89 c2                	mov    %eax,%edx
   10bda:	48 8d 35 e1 33 00 00 	lea    0x33e1(%rip),%rsi        # 13fc2 <g_2958+0x1f02>
   10be1:	48 89 cf             	mov    %rcx,%rdi
   10be4:	e8 0a 6b ff ff       	callq  76f3 <transparent_crc>
   10be9:	83 7d fc 00          	cmpl   $0x0,-0x4(%rbp)
   10bed:	74 16                	je     10c05 <main+0x967>
   10bef:	8b 45 f0             	mov    -0x10(%rbp),%eax
   10bf2:	89 c6                	mov    %eax,%esi
   10bf4:	48 8d 3d 4c 32 00 00 	lea    0x324c(%rip),%rdi        # 13e47 <g_2958+0x1d87>
   10bfb:	b8 00 00 00 00       	mov    $0x0,%eax
   10c00:	e8 7b 54 ff ff       	callq  6080 <printf@plt>
   10c05:	83 45 f0 01          	addl   $0x1,-0x10(%rbp)
   10c09:	83 7d f0 00          	cmpl   $0x0,-0x10(%rbp)
   10c0d:	7e bc                	jle    10bcb <main+0x92d>
   10c0f:	c7 45 f0 00 00 00 00 	movl   $0x0,-0x10(%rbp)
   10c16:	eb 4a                	jmp    10c62 <main+0x9c4>
   10c18:	8b 45 f0             	mov    -0x10(%rbp),%eax
   10c1b:	48 98                	cltq   
   10c1d:	48 8d 14 c5 00 00 00 	lea    0x0(,%rax,8),%rdx
   10c24:	00 
   10c25:	48 8d 05 54 14 00 00 	lea    0x1454(%rip),%rax        # 12080 <g_1742>
   10c2c:	48 8b 04 02          	mov    (%rdx,%rax,1),%rax
   10c30:	8b 55 fc             	mov    -0x4(%rbp),%edx
   10c33:	48 8d 35 92 33 00 00 	lea    0x3392(%rip),%rsi        # 13fcc <g_2958+0x1f0c>
   10c3a:	48 89 c7             	mov    %rax,%rdi
   10c3d:	e8 b1 6a ff ff       	callq  76f3 <transparent_crc>
   10c42:	83 7d fc 00          	cmpl   $0x0,-0x4(%rbp)
   10c46:	74 16                	je     10c5e <main+0x9c0>
   10c48:	8b 45 f0             	mov    -0x10(%rbp),%eax
   10c4b:	89 c6                	mov    %eax,%esi
   10c4d:	48 8d 3d f3 31 00 00 	lea    0x31f3(%rip),%rdi        # 13e47 <g_2958+0x1d87>
   10c54:	b8 00 00 00 00       	mov    $0x0,%eax
   10c59:	e8 22 54 ff ff       	callq  6080 <printf@plt>
   10c5e:	83 45 f0 01          	addl   $0x1,-0x10(%rbp)
   10c62:	83 7d f0 05          	cmpl   $0x5,-0x10(%rbp)
   10c66:	7e b0                	jle    10c18 <main+0x97a>
   10c68:	0f b7 05 d9 6b 00 00 	movzwl 0x6bd9(%rip),%eax        # 17848 <g_1875>
   10c6f:	0f b7 c0             	movzwl %ax,%eax
   10c72:	8b 55 fc             	mov    -0x4(%rbp),%edx
   10c75:	48 8d 35 5a 33 00 00 	lea    0x335a(%rip),%rsi        # 13fd6 <g_2958+0x1f16>
   10c7c:	48 89 c7             	mov    %rax,%rdi
   10c7f:	e8 6f 6a ff ff       	callq  76f3 <transparent_crc>
   10c84:	0f b7 05 c5 6b 00 00 	movzwl 0x6bc5(%rip),%eax        # 17850 <g_1992>
   10c8b:	0f b7 c0             	movzwl %ax,%eax
   10c8e:	8b 55 fc             	mov    -0x4(%rbp),%edx
   10c91:	48 8d 35 48 33 00 00 	lea    0x3348(%rip),%rsi        # 13fe0 <g_2958+0x1f20>
   10c98:	48 89 c7             	mov    %rax,%rdi
   10c9b:	e8 53 6a ff ff       	callq  76f3 <transparent_crc>
   10ca0:	0f b7 05 b1 6b 00 00 	movzwl 0x6bb1(%rip),%eax        # 17858 <g_2049>
   10ca7:	0f b7 c0             	movzwl %ax,%eax
   10caa:	8b 55 fc             	mov    -0x4(%rbp),%edx
   10cad:	48 8d 35 36 33 00 00 	lea    0x3336(%rip),%rsi        # 13fea <g_2958+0x1f2a>
   10cb4:	48 89 c7             	mov    %rax,%rdi
   10cb7:	e8 37 6a ff ff       	callq  76f3 <transparent_crc>
   10cbc:	0f b7 05 9d 6b 00 00 	movzwl 0x6b9d(%rip),%eax        # 17860 <g_2110>
   10cc3:	48 0f bf c0          	movswq %ax,%rax
   10cc7:	8b 55 fc             	mov    -0x4(%rbp),%edx
   10cca:	48 8d 35 23 33 00 00 	lea    0x3323(%rip),%rsi        # 13ff4 <g_2958+0x1f34>
   10cd1:	48 89 c7             	mov    %rax,%rdi
   10cd4:	e8 1a 6a ff ff       	callq  76f3 <transparent_crc>
   10cd9:	8b 05 85 6b 00 00    	mov    0x6b85(%rip),%eax        # 17864 <g_2164>
   10cdf:	48 98                	cltq   
   10ce1:	8b 55 fc             	mov    -0x4(%rbp),%edx
   10ce4:	48 8d 35 10 33 00 00 	lea    0x3310(%rip),%rsi        # 13ffb <g_2958+0x1f3b>
   10ceb:	48 89 c7             	mov    %rax,%rdi
   10cee:	e8 00 6a ff ff       	callq  76f3 <transparent_crc>
   10cf3:	c7 45 f0 00 00 00 00 	movl   $0x0,-0x10(%rbp)
   10cfa:	eb 4a                	jmp    10d46 <main+0xaa8>
   10cfc:	8b 45 f0             	mov    -0x10(%rbp),%eax
   10cff:	48 98                	cltq   
   10d01:	48 8d 14 00          	lea    (%rax,%rax,1),%rdx
   10d05:	48 8d 05 5c 6b 00 00 	lea    0x6b5c(%rip),%rax        # 17868 <g_2242>
   10d0c:	0f b7 04 02          	movzwl (%rdx,%rax,1),%eax
   10d10:	48 0f bf c0          	movswq %ax,%rax
   10d14:	8b 55 fc             	mov    -0x4(%rbp),%edx
   10d17:	48 8d 35 e4 32 00 00 	lea    0x32e4(%rip),%rsi        # 14002 <g_2958+0x1f42>
   10d1e:	48 89 c7             	mov    %rax,%rdi
   10d21:	e8 cd 69 ff ff       	callq  76f3 <transparent_crc>
   10d26:	83 7d fc 00          	cmpl   $0x0,-0x4(%rbp)
   10d2a:	74 16                	je     10d42 <main+0xaa4>
   10d2c:	8b 45 f0             	mov    -0x10(%rbp),%eax
   10d2f:	89 c6                	mov    %eax,%esi
   10d31:	48 8d 3d 0f 31 00 00 	lea    0x310f(%rip),%rdi        # 13e47 <g_2958+0x1d87>
   10d38:	b8 00 00 00 00       	mov    $0x0,%eax
   10d3d:	e8 3e 53 ff ff       	callq  6080 <printf@plt>
   10d42:	83 45 f0 01          	addl   $0x1,-0x10(%rbp)
   10d46:	83 7d f0 00          	cmpl   $0x0,-0x10(%rbp)
   10d4a:	7e b0                	jle    10cfc <main+0xa5e>
   10d4c:	48 8b 05 1d 6b 00 00 	mov    0x6b1d(%rip),%rax        # 17870 <g_2397>
   10d53:	48 89 c1             	mov    %rax,%rcx
   10d56:	8b 45 fc             	mov    -0x4(%rbp),%eax
   10d59:	89 c2                	mov    %eax,%edx
   10d5b:	48 8d 35 aa 32 00 00 	lea    0x32aa(%rip),%rsi        # 1400c <g_2958+0x1f4c>
   10d62:	48 89 cf             	mov    %rcx,%rdi
   10d65:	e8 89 69 ff ff       	callq  76f3 <transparent_crc>
   10d6a:	8b 05 08 6b 00 00    	mov    0x6b08(%rip),%eax        # 17878 <g_2402>
   10d70:	89 c1                	mov    %eax,%ecx
   10d72:	8b 45 fc             	mov    -0x4(%rbp),%eax
   10d75:	89 c2                	mov    %eax,%edx
   10d77:	48 8d 35 95 32 00 00 	lea    0x3295(%rip),%rsi        # 14013 <g_2958+0x1f53>
   10d7e:	48 89 cf             	mov    %rcx,%rdi
   10d81:	e8 6d 69 ff ff       	callq  76f3 <transparent_crc>
   10d86:	0f b6 05 ef 6a 00 00 	movzbl 0x6aef(%rip),%eax        # 1787c <g_2422>
   10d8d:	48 0f be c0          	movsbq %al,%rax
   10d91:	8b 55 fc             	mov    -0x4(%rbp),%edx
   10d94:	48 8d 35 7f 32 00 00 	lea    0x327f(%rip),%rsi        # 1401a <g_2958+0x1f5a>
   10d9b:	48 89 c7             	mov    %rax,%rdi
   10d9e:	e8 50 69 ff ff       	callq  76f3 <transparent_crc>
   10da3:	48 8b 05 d6 6a 00 00 	mov    0x6ad6(%rip),%rax        # 17880 <g_2475>
   10daa:	8b 55 fc             	mov    -0x4(%rbp),%edx
   10dad:	48 8d 35 6d 32 00 00 	lea    0x326d(%rip),%rsi        # 14021 <g_2958+0x1f61>
   10db4:	48 89 c7             	mov    %rax,%rdi
   10db7:	e8 37 69 ff ff       	callq  76f3 <transparent_crc>
   10dbc:	0f b7 05 c5 6a 00 00 	movzwl 0x6ac5(%rip),%eax        # 17888 <g_2476>
   10dc3:	0f b7 c0             	movzwl %ax,%eax
   10dc6:	8b 55 fc             	mov    -0x4(%rbp),%edx
   10dc9:	48 8d 35 58 32 00 00 	lea    0x3258(%rip),%rsi        # 14028 <g_2958+0x1f68>
   10dd0:	48 89 c7             	mov    %rax,%rdi
   10dd3:	e8 1b 69 ff ff       	callq  76f3 <transparent_crc>
   10dd8:	8b 05 b2 6a 00 00    	mov    0x6ab2(%rip),%eax        # 17890 <g_2554>
   10dde:	89 c1                	mov    %eax,%ecx
   10de0:	8b 45 fc             	mov    -0x4(%rbp),%eax
   10de3:	89 c2                	mov    %eax,%edx
   10de5:	48 8d 35 46 32 00 00 	lea    0x3246(%rip),%rsi        # 14032 <g_2958+0x1f72>
   10dec:	48 89 cf             	mov    %rcx,%rdi
   10def:	e8 ff 68 ff ff       	callq  76f3 <transparent_crc>
   10df4:	8b 05 a6 6a 00 00    	mov    0x6aa6(%rip),%eax        # 178a0 <g_2749>
   10dfa:	48 98                	cltq   
   10dfc:	8b 55 fc             	mov    -0x4(%rbp),%edx
   10dff:	48 8d 35 33 32 00 00 	lea    0x3233(%rip),%rsi        # 14039 <g_2958+0x1f79>
   10e06:	48 89 c7             	mov    %rax,%rdi
   10e09:	e8 e5 68 ff ff       	callq  76f3 <transparent_crc>
   10e0e:	0f b7 05 93 6a 00 00 	movzwl 0x6a93(%rip),%eax        # 178a8 <g_2842>
   10e15:	0f b7 c0             	movzwl %ax,%eax
   10e18:	8b 55 fc             	mov    -0x4(%rbp),%edx
   10e1b:	48 8d 35 1e 32 00 00 	lea    0x321e(%rip),%rsi        # 14040 <g_2958+0x1f80>
   10e22:	48 89 c7             	mov    %rax,%rdi
   10e25:	e8 c9 68 ff ff       	callq  76f3 <transparent_crc>
   10e2a:	0f b7 05 7f 6a 00 00 	movzwl 0x6a7f(%rip),%eax        # 178b0 <g_2844>
   10e31:	0f b7 c0             	movzwl %ax,%eax
   10e34:	8b 55 fc             	mov    -0x4(%rbp),%edx
   10e37:	48 8d 35 0c 32 00 00 	lea    0x320c(%rip),%rsi        # 1404a <g_2958+0x1f8a>
   10e3e:	48 89 c7             	mov    %rax,%rdi
   10e41:	e8 ad 68 ff ff       	callq  76f3 <transparent_crc>
   10e46:	8b 05 6c 6a 00 00    	mov    0x6a6c(%rip),%eax        # 178b8 <g_2892>
   10e4c:	48 98                	cltq   
   10e4e:	8b 55 fc             	mov    -0x4(%rbp),%edx
   10e51:	48 8d 35 fc 31 00 00 	lea    0x31fc(%rip),%rsi        # 14054 <g_2958+0x1f94>
   10e58:	48 89 c7             	mov    %rax,%rdi
   10e5b:	e8 93 68 ff ff       	callq  76f3 <transparent_crc>
   10e60:	c7 45 f0 00 00 00 00 	movl   $0x0,-0x10(%rbp)
   10e67:	eb 4f                	jmp    10eb8 <main+0xc1a>
   10e69:	8b 45 f0             	mov    -0x10(%rbp),%eax
   10e6c:	48 98                	cltq   
   10e6e:	48 8d 14 c5 00 00 00 	lea    0x0(,%rax,8),%rdx
   10e75:	00 
   10e76:	48 8d 05 43 6a 00 00 	lea    0x6a43(%rip),%rax        # 178c0 <g_2902>
   10e7d:	48 8b 04 02          	mov    (%rdx,%rax,1),%rax
   10e81:	48 89 c1             	mov    %rax,%rcx
   10e84:	8b 45 fc             	mov    -0x4(%rbp),%eax
   10e87:	89 c2                	mov    %eax,%edx
   10e89:	48 8d 35 cb 31 00 00 	lea    0x31cb(%rip),%rsi        # 1405b <g_2958+0x1f9b>
   10e90:	48 89 cf             	mov    %rcx,%rdi
   10e93:	e8 5b 68 ff ff       	callq  76f3 <transparent_crc>
   10e98:	83 7d fc 00          	cmpl   $0x0,-0x4(%rbp)
   10e9c:	74 16                	je     10eb4 <main+0xc16>
   10e9e:	8b 45 f0             	mov    -0x10(%rbp),%eax
   10ea1:	89 c6                	mov    %eax,%esi
   10ea3:	48 8d 3d 9d 2f 00 00 	lea    0x2f9d(%rip),%rdi        # 13e47 <g_2958+0x1d87>
   10eaa:	b8 00 00 00 00       	mov    $0x0,%eax
   10eaf:	e8 cc 51 ff ff       	callq  6080 <printf@plt>
   10eb4:	83 45 f0 01          	addl   $0x1,-0x10(%rbp)
   10eb8:	83 7d f0 04          	cmpl   $0x4,-0x10(%rbp)
   10ebc:	7e ab                	jle    10e69 <main+0xbcb>
   10ebe:	c7 45 f0 00 00 00 00 	movl   $0x0,-0x10(%rbp)
   10ec5:	e9 93 00 00 00       	jmpq   10f5d <main+0xcbf>
   10eca:	c7 45 f4 00 00 00 00 	movl   $0x0,-0xc(%rbp)
   10ed1:	eb 7c                	jmp    10f4f <main+0xcb1>
   10ed3:	c7 45 f8 00 00 00 00 	movl   $0x0,-0x8(%rbp)
   10eda:	eb 69                	jmp    10f45 <main+0xca7>
   10edc:	8b 45 f8             	mov    -0x8(%rbp),%eax
   10edf:	48 98                	cltq   
   10ee1:	8b 55 f0             	mov    -0x10(%rbp),%edx
   10ee4:	48 63 ca             	movslq %edx,%rcx
   10ee7:	8b 55 f4             	mov    -0xc(%rbp),%edx
   10eea:	48 63 d2             	movslq %edx,%rdx
   10eed:	48 01 c9             	add    %rcx,%rcx
   10ef0:	48 01 ca             	add    %rcx,%rdx
   10ef3:	48 01 d2             	add    %rdx,%rdx
   10ef6:	48 01 d0             	add    %rdx,%rax
   10ef9:	48 8d 14 85 00 00 00 	lea    0x0(,%rax,4),%rdx
   10f00:	00 
   10f01:	48 8d 05 b8 11 00 00 	lea    0x11b8(%rip),%rax        # 120c0 <g_2958>
   10f08:	8b 04 02             	mov    (%rdx,%rax,1),%eax
   10f0b:	48 98                	cltq   
   10f0d:	8b 55 fc             	mov    -0x4(%rbp),%edx
   10f10:	48 8d 35 4e 31 00 00 	lea    0x314e(%rip),%rsi        # 14065 <g_2958+0x1fa5>
   10f17:	48 89 c7             	mov    %rax,%rdi
   10f1a:	e8 d4 67 ff ff       	callq  76f3 <transparent_crc>
   10f1f:	83 7d fc 00          	cmpl   $0x0,-0x4(%rbp)
   10f23:	74 1c                	je     10f41 <main+0xca3>
   10f25:	8b 4d f8             	mov    -0x8(%rbp),%ecx
   10f28:	8b 55 f4             	mov    -0xc(%rbp),%edx
   10f2b:	8b 45 f0             	mov    -0x10(%rbp),%eax
   10f2e:	89 c6                	mov    %eax,%esi
   10f30:	48 8d 3d 59 2f 00 00 	lea    0x2f59(%rip),%rdi        # 13e90 <g_2958+0x1dd0>
   10f37:	b8 00 00 00 00       	mov    $0x0,%eax
   10f3c:	e8 3f 51 ff ff       	callq  6080 <printf@plt>
   10f41:	83 45 f8 01          	addl   $0x1,-0x8(%rbp)
   10f45:	83 7d f8 01          	cmpl   $0x1,-0x8(%rbp)
   10f49:	7e 91                	jle    10edc <main+0xc3e>
   10f4b:	83 45 f4 01          	addl   $0x1,-0xc(%rbp)
   10f4f:	83 7d f4 01          	cmpl   $0x1,-0xc(%rbp)
   10f53:	0f 8e 7a ff ff ff    	jle    10ed3 <main+0xc35>
   10f59:	83 45 f0 01          	addl   $0x1,-0x10(%rbp)
   10f5d:	83 7d f0 02          	cmpl   $0x2,-0x10(%rbp)
   10f61:	0f 8e 63 ff ff ff    	jle    10eca <main+0xc2c>
   10f67:	0f b6 05 7a 69 00 00 	movzbl 0x697a(%rip),%eax        # 178e8 <g_2994>
   10f6e:	0f b6 c0             	movzbl %al,%eax
   10f71:	8b 55 fc             	mov    -0x4(%rbp),%edx
   10f74:	48 8d 35 fa 30 00 00 	lea    0x30fa(%rip),%rsi        # 14075 <g_2958+0x1fb5>
   10f7b:	48 89 c7             	mov    %rax,%rdi
   10f7e:	e8 70 67 ff ff       	callq  76f3 <transparent_crc>
   10f83:	0f b7 05 66 69 00 00 	movzwl 0x6966(%rip),%eax        # 178f0 <g_2999>
   10f8a:	0f b7 c0             	movzwl %ax,%eax
   10f8d:	8b 55 fc             	mov    -0x4(%rbp),%edx
   10f90:	48 8d 35 e5 30 00 00 	lea    0x30e5(%rip),%rsi        # 1407c <g_2958+0x1fbc>
   10f97:	48 89 c7             	mov    %rax,%rdi
   10f9a:	e8 54 67 ff ff       	callq  76f3 <transparent_crc>
   10f9f:	48 8b 05 52 69 00 00 	mov    0x6952(%rip),%rax        # 178f8 <g_3053>
   10fa6:	8b 55 fc             	mov    -0x4(%rbp),%edx
   10fa9:	48 8d 35 d6 30 00 00 	lea    0x30d6(%rip),%rsi        # 14086 <g_2958+0x1fc6>
   10fb0:	48 89 c7             	mov    %rax,%rdi
   10fb3:	e8 3b 67 ff ff       	callq  76f3 <transparent_crc>
   10fb8:	0f b6 05 41 69 00 00 	movzbl 0x6941(%rip),%eax        # 17900 <g_3100>
   10fbf:	48 0f be c0          	movsbq %al,%rax
   10fc3:	8b 55 fc             	mov    -0x4(%rbp),%edx
   10fc6:	48 8d 35 c0 30 00 00 	lea    0x30c0(%rip),%rsi        # 1408d <g_2958+0x1fcd>
   10fcd:	48 89 c7             	mov    %rax,%rdi
   10fd0:	e8 1e 67 ff ff       	callq  76f3 <transparent_crc>
   10fd5:	c7 45 f0 00 00 00 00 	movl   $0x0,-0x10(%rbp)
   10fdc:	eb 4d                	jmp    1102b <main+0xd8d>
   10fde:	8b 45 f0             	mov    -0x10(%rbp),%eax
   10fe1:	48 98                	cltq   
   10fe3:	48 8d 14 c5 00 00 00 	lea    0x0(,%rax,8),%rdx
   10fea:	00 
   10feb:	48 8d 05 2e 69 00 00 	lea    0x692e(%rip),%rax        # 17920 <g_3150>
   10ff2:	0f b7 04 02          	movzwl (%rdx,%rax,1),%eax
   10ff6:	0f b7 c0             	movzwl %ax,%eax
   10ff9:	8b 55 fc             	mov    -0x4(%rbp),%edx
   10ffc:	48 8d 35 91 30 00 00 	lea    0x3091(%rip),%rsi        # 14094 <g_2958+0x1fd4>
   11003:	48 89 c7             	mov    %rax,%rdi
   11006:	e8 e8 66 ff ff       	callq  76f3 <transparent_crc>
   1100b:	83 7d fc 00          	cmpl   $0x0,-0x4(%rbp)
   1100f:	74 16                	je     11027 <main+0xd89>
   11011:	8b 45 f0             	mov    -0x10(%rbp),%eax
   11014:	89 c6                	mov    %eax,%esi
   11016:	48 8d 3d 2a 2e 00 00 	lea    0x2e2a(%rip),%rdi        # 13e47 <g_2958+0x1d87>
   1101d:	b8 00 00 00 00       	mov    $0x0,%eax
   11022:	e8 59 50 ff ff       	callq  6080 <printf@plt>
   11027:	83 45 f0 01          	addl   $0x1,-0x10(%rbp)
   1102b:	83 7d f0 07          	cmpl   $0x7,-0x10(%rbp)
   1102f:	7e ad                	jle    10fde <main+0xd40>
   11031:	8b 05 29 69 00 00    	mov    0x6929(%rip),%eax        # 17960 <g_3177>
   11037:	48 98                	cltq   
   11039:	8b 55 fc             	mov    -0x4(%rbp),%edx
   1103c:	48 8d 35 5e 30 00 00 	lea    0x305e(%rip),%rsi        # 140a1 <g_2958+0x1fe1>
   11043:	48 89 c7             	mov    %rax,%rdi
   11046:	e8 a8 66 ff ff       	callq  76f3 <transparent_crc>
   1104b:	8b 05 cf 5f 00 00    	mov    0x5fcf(%rip),%eax        # 17020 <crc32_context>
   11051:	f7 d0                	not    %eax
   11053:	89 c2                	mov    %eax,%edx
   11055:	8b 45 fc             	mov    -0x4(%rbp),%eax
   11058:	89 c6                	mov    %eax,%esi
   1105a:	89 d7                	mov    %edx,%edi
   1105c:	e8 33 51 ff ff       	callq  6194 <platform_main_end>
   11061:	b8 00 00 00 00       	mov    $0x0,%eax
   11066:	c9                   	leaveq 
   11067:	c3                   	retq   
   11068:	0f 1f 84 00 00 00 00 	nopl   0x0(%rax,%rax,1)
   1106f:	00 

0000000000011070 <__libc_csu_init>:
   11070:	f3 0f 1e fa          	endbr64 
   11074:	41 57                	push   %r15
   11076:	4c 8d 3d 2b 5d 00 00 	lea    0x5d2b(%rip),%r15        # 16da8 <__frame_dummy_init_array_entry>
   1107d:	41 56                	push   %r14
   1107f:	49 89 d6             	mov    %rdx,%r14
   11082:	41 55                	push   %r13
   11084:	49 89 f5             	mov    %rsi,%r13
   11087:	41 54                	push   %r12
   11089:	41 89 fc             	mov    %edi,%r12d
   1108c:	55                   	push   %rbp
   1108d:	48 8d 2d 1c 5d 00 00 	lea    0x5d1c(%rip),%rbp        # 16db0 <__do_global_dtors_aux_fini_array_entry>
   11094:	53                   	push   %rbx
   11095:	4c 29 fd             	sub    %r15,%rbp
   11098:	48 83 ec 08          	sub    $0x8,%rsp
   1109c:	e8 5f 4f ff ff       	callq  6000 <_init>
   110a1:	48 c1 fd 03          	sar    $0x3,%rbp
   110a5:	74 1f                	je     110c6 <__libc_csu_init+0x56>
   110a7:	31 db                	xor    %ebx,%ebx
   110a9:	0f 1f 80 00 00 00 00 	nopl   0x0(%rax)
   110b0:	4c 89 f2             	mov    %r14,%rdx
   110b3:	4c 89 ee             	mov    %r13,%rsi
   110b6:	44 89 e7             	mov    %r12d,%edi
   110b9:	41 ff 14 df          	callq  *(%r15,%rbx,8)
   110bd:	48 83 c3 01          	add    $0x1,%rbx
   110c1:	48 39 dd             	cmp    %rbx,%rbp
   110c4:	75 ea                	jne    110b0 <__libc_csu_init+0x40>
   110c6:	48 83 c4 08          	add    $0x8,%rsp
   110ca:	5b                   	pop    %rbx
   110cb:	5d                   	pop    %rbp
   110cc:	41 5c                	pop    %r12
   110ce:	41 5d                	pop    %r13
   110d0:	41 5e                	pop    %r14
   110d2:	41 5f                	pop    %r15
   110d4:	c3                   	retq   
   110d5:	66 66 2e 0f 1f 84 00 	data16 nopw %cs:0x0(%rax,%rax,1)
   110dc:	00 00 00 00 

00000000000110e0 <__libc_csu_fini>:
   110e0:	f3 0f 1e fa          	endbr64 
   110e4:	c3                   	retq   
