


Disassembly of section .text:

00000000000060a0 <_start>:
    60a0:	f3 0f 1e fa          	endbr64 
    60a4:	31 ed                	xor    %ebp,%ebp
    60a6:	49 89 d1             	mov    %rdx,%r9
    60a9:	5e                   	pop    %rsi
    60aa:	48 89 e2             	mov    %rsp,%rdx
    60ad:	48 83 e4 f0          	and    $0xfffffffffffffff0,%rsp
    60b1:	50                   	push   %rax
    60b2:	54                   	push   %rsp
    60b3:	4c 8d 05 36 87 00 00 	lea    0x8736(%rip),%r8        # e7f0 <__libc_csu_fini>
    60ba:	48 8d 0d bf 86 00 00 	lea    0x86bf(%rip),%rcx        # e780 <__libc_csu_init>
    60c1:	48 8d 3d 52 82 00 00 	lea    0x8252(%rip),%rdi        # e31a <main>
    60c8:	ff 15 12 cf 00 00    	callq  *0xcf12(%rip)        # 12fe0 <__libc_start_main@GLIBC_2.2.5>
    60ce:	f4                   	hlt    
    60cf:	90                   	nop

00000000000060d0 <deregister_tm_clones>:
    60d0:	48 8d 3d a9 ef 00 00 	lea    0xefa9(%rip),%rdi        # 15080 <__TMC_END__>
    60d7:	48 8d 05 a2 ef 00 00 	lea    0xefa2(%rip),%rax        # 15080 <__TMC_END__>
    60de:	48 39 f8             	cmp    %rdi,%rax
    60e1:	74 15                	je     60f8 <deregister_tm_clones+0x28>
    60e3:	48 8b 05 ee ce 00 00 	mov    0xceee(%rip),%rax        # 12fd8 <_ITM_deregisterTMCloneTable>
    60ea:	48 85 c0             	test   %rax,%rax
    60ed:	74 09                	je     60f8 <deregister_tm_clones+0x28>
    60ef:	ff e0                	jmpq   *%rax
    60f1:	0f 1f 80 00 00 00 00 	nopl   0x0(%rax)
    60f8:	c3                   	retq   
    60f9:	0f 1f 80 00 00 00 00 	nopl   0x0(%rax)

0000000000006100 <register_tm_clones>:
    6100:	48 8d 3d 79 ef 00 00 	lea    0xef79(%rip),%rdi        # 15080 <__TMC_END__>
    6107:	48 8d 35 72 ef 00 00 	lea    0xef72(%rip),%rsi        # 15080 <__TMC_END__>
    610e:	48 29 fe             	sub    %rdi,%rsi
    6111:	48 89 f0             	mov    %rsi,%rax
    6114:	48 c1 ee 3f          	shr    $0x3f,%rsi
    6118:	48 c1 f8 03          	sar    $0x3,%rax
    611c:	48 01 c6             	add    %rax,%rsi
    611f:	48 d1 fe             	sar    %rsi
    6122:	74 14                	je     6138 <register_tm_clones+0x38>
    6124:	48 8b 05 c5 ce 00 00 	mov    0xcec5(%rip),%rax        # 12ff0 <_ITM_registerTMCloneTable>
    612b:	48 85 c0             	test   %rax,%rax
    612e:	74 08                	je     6138 <register_tm_clones+0x38>
    6130:	ff e0                	jmpq   *%rax
    6132:	66 0f 1f 44 00 00    	nopw   0x0(%rax,%rax,1)
    6138:	c3                   	retq   
    6139:	0f 1f 80 00 00 00 00 	nopl   0x0(%rax)

0000000000006140 <__do_global_dtors_aux>:
    6140:	f3 0f 1e fa          	endbr64 
    6144:	80 3d 35 ef 00 00 00 	cmpb   $0x0,0xef35(%rip)        # 15080 <__TMC_END__>
    614b:	75 2b                	jne    6178 <__do_global_dtors_aux+0x38>
    614d:	55                   	push   %rbp
    614e:	48 83 3d a2 ce 00 00 	cmpq   $0x0,0xcea2(%rip)        # 12ff8 <__cxa_finalize@GLIBC_2.2.5>
    6155:	00 
    6156:	48 89 e5             	mov    %rsp,%rbp
    6159:	74 0c                	je     6167 <__do_global_dtors_aux+0x27>
    615b:	48 8b 3d a6 ce 00 00 	mov    0xcea6(%rip),%rdi        # 13008 <__dso_handle>
    6162:	e8 f9 fe ff ff       	callq  6060 <__cxa_finalize@plt>
    6167:	e8 64 ff ff ff       	callq  60d0 <deregister_tm_clones>
    616c:	c6 05 0d ef 00 00 01 	movb   $0x1,0xef0d(%rip)        # 15080 <__TMC_END__>
    6173:	5d                   	pop    %rbp
    6174:	c3                   	retq   
    6175:	0f 1f 00             	nopl   (%rax)
    6178:	c3                   	retq   
    6179:	0f 1f 80 00 00 00 00 	nopl   0x0(%rax)

0000000000006180 <frame_dummy>:
    6180:	f3 0f 1e fa          	endbr64 
    6184:	e9 77 ff ff ff       	jmpq   6100 <register_tm_clones>

0000000000006189 <platform_main_begin>:
    6189:	f3 0f 1e fa          	endbr64 
    618d:	55                   	push   %rbp
    618e:	48 89 e5             	mov    %rsp,%rbp
    6191:	90                   	nop
    6192:	5d                   	pop    %rbp
    6193:	c3                   	retq   

0000000000006194 <platform_main_end>:
    6194:	f3 0f 1e fa          	endbr64 
    6198:	55                   	push   %rbp
    6199:	48 89 e5             	mov    %rsp,%rbp
    619c:	48 83 ec 10          	sub    $0x10,%rsp
    61a0:	89 7d fc             	mov    %edi,-0x4(%rbp)
    61a3:	89 75 f8             	mov    %esi,-0x8(%rbp)
    61a6:	8b 45 fc             	mov    -0x4(%rbp),%eax
    61a9:	89 c6                	mov    %eax,%esi
    61ab:	48 8d 3d 6e 8e 00 00 	lea    0x8e6e(%rip),%rdi        # f020 <_IO_stdin_used+0x20>
    61b2:	b8 00 00 00 00       	mov    $0x0,%eax
    61b7:	e8 c4 fe ff ff       	callq  6080 <printf@plt>
    61bc:	90                   	nop
    61bd:	c9                   	leaveq 
    61be:	c3                   	retq   

00000000000061bf <safe_unary_minus_func_int8_t_s>:
    61bf:	f3 0f 1e fa          	endbr64 
    61c3:	55                   	push   %rbp
    61c4:	48 89 e5             	mov    %rsp,%rbp
    61c7:	89 f8                	mov    %edi,%eax
    61c9:	88 45 fc             	mov    %al,-0x4(%rbp)
    61cc:	0f b6 45 fc          	movzbl -0x4(%rbp),%eax
    61d0:	f7 d8                	neg    %eax
    61d2:	5d                   	pop    %rbp
    61d3:	c3                   	retq   

00000000000061d4 <safe_add_func_int8_t_s_s>:
    61d4:	f3 0f 1e fa          	endbr64 
    61d8:	55                   	push   %rbp
    61d9:	48 89 e5             	mov    %rsp,%rbp
    61dc:	89 fa                	mov    %edi,%edx
    61de:	89 f0                	mov    %esi,%eax
    61e0:	88 55 fc             	mov    %dl,-0x4(%rbp)
    61e3:	88 45 f8             	mov    %al,-0x8(%rbp)
    61e6:	0f b6 55 fc          	movzbl -0x4(%rbp),%edx
    61ea:	0f b6 45 f8          	movzbl -0x8(%rbp),%eax
    61ee:	01 d0                	add    %edx,%eax
    61f0:	5d                   	pop    %rbp
    61f1:	c3                   	retq   

00000000000061f2 <safe_sub_func_int8_t_s_s>:
    61f2:	f3 0f 1e fa          	endbr64 
    61f6:	55                   	push   %rbp
    61f7:	48 89 e5             	mov    %rsp,%rbp
    61fa:	89 fa                	mov    %edi,%edx
    61fc:	89 f0                	mov    %esi,%eax
    61fe:	88 55 fc             	mov    %dl,-0x4(%rbp)
    6201:	88 45 f8             	mov    %al,-0x8(%rbp)
    6204:	0f b6 55 fc          	movzbl -0x4(%rbp),%edx
    6208:	0f b6 45 f8          	movzbl -0x8(%rbp),%eax
    620c:	29 c2                	sub    %eax,%edx
    620e:	89 d0                	mov    %edx,%eax
    6210:	5d                   	pop    %rbp
    6211:	c3                   	retq   

0000000000006212 <safe_mul_func_int8_t_s_s>:
    6212:	f3 0f 1e fa          	endbr64 
    6216:	55                   	push   %rbp
    6217:	48 89 e5             	mov    %rsp,%rbp
    621a:	89 fa                	mov    %edi,%edx
    621c:	89 f0                	mov    %esi,%eax
    621e:	88 55 fc             	mov    %dl,-0x4(%rbp)
    6221:	88 45 f8             	mov    %al,-0x8(%rbp)
    6224:	0f b6 45 fc          	movzbl -0x4(%rbp),%eax
    6228:	0f b6 55 f8          	movzbl -0x8(%rbp),%edx
    622c:	0f af c2             	imul   %edx,%eax
    622f:	5d                   	pop    %rbp
    6230:	c3                   	retq   

0000000000006231 <safe_mod_func_int8_t_s_s>:
    6231:	f3 0f 1e fa          	endbr64 
    6235:	55                   	push   %rbp
    6236:	48 89 e5             	mov    %rsp,%rbp
    6239:	89 fa                	mov    %edi,%edx
    623b:	89 f0                	mov    %esi,%eax
    623d:	88 55 fc             	mov    %dl,-0x4(%rbp)
    6240:	88 45 f8             	mov    %al,-0x8(%rbp)
    6243:	80 7d f8 00          	cmpb   $0x0,-0x8(%rbp)
    6247:	74 1b                	je     6264 <safe_mod_func_int8_t_s_s+0x33>
    6249:	80 7d fc 80          	cmpb   $0x80,-0x4(%rbp)
    624d:	75 06                	jne    6255 <safe_mod_func_int8_t_s_s+0x24>
    624f:	80 7d f8 ff          	cmpb   $0xff,-0x8(%rbp)
    6253:	74 0f                	je     6264 <safe_mod_func_int8_t_s_s+0x33>
    6255:	0f be 45 fc          	movsbl -0x4(%rbp),%eax
    6259:	0f be 4d f8          	movsbl -0x8(%rbp),%ecx
    625d:	99                   	cltd   
    625e:	f7 f9                	idiv   %ecx
    6260:	89 d0                	mov    %edx,%eax
    6262:	eb 04                	jmp    6268 <safe_mod_func_int8_t_s_s+0x37>
    6264:	0f b6 45 fc          	movzbl -0x4(%rbp),%eax
    6268:	5d                   	pop    %rbp
    6269:	c3                   	retq   

000000000000626a <safe_div_func_int8_t_s_s>:
    626a:	f3 0f 1e fa          	endbr64 
    626e:	55                   	push   %rbp
    626f:	48 89 e5             	mov    %rsp,%rbp
    6272:	89 fa                	mov    %edi,%edx
    6274:	89 f0                	mov    %esi,%eax
    6276:	88 55 fc             	mov    %dl,-0x4(%rbp)
    6279:	88 45 f8             	mov    %al,-0x8(%rbp)
    627c:	80 7d f8 00          	cmpb   $0x0,-0x8(%rbp)
    6280:	74 19                	je     629b <safe_div_func_int8_t_s_s+0x31>
    6282:	80 7d fc 80          	cmpb   $0x80,-0x4(%rbp)
    6286:	75 06                	jne    628e <safe_div_func_int8_t_s_s+0x24>
    6288:	80 7d f8 ff          	cmpb   $0xff,-0x8(%rbp)
    628c:	74 0d                	je     629b <safe_div_func_int8_t_s_s+0x31>
    628e:	0f be 45 fc          	movsbl -0x4(%rbp),%eax
    6292:	0f be 4d f8          	movsbl -0x8(%rbp),%ecx
    6296:	99                   	cltd   
    6297:	f7 f9                	idiv   %ecx
    6299:	eb 04                	jmp    629f <safe_div_func_int8_t_s_s+0x35>
    629b:	0f b6 45 fc          	movzbl -0x4(%rbp),%eax
    629f:	5d                   	pop    %rbp
    62a0:	c3                   	retq   

00000000000062a1 <safe_lshift_func_int8_t_s_s>:
    62a1:	f3 0f 1e fa          	endbr64 
    62a5:	55                   	push   %rbp
    62a6:	48 89 e5             	mov    %rsp,%rbp
    62a9:	89 f8                	mov    %edi,%eax
    62ab:	89 75 f8             	mov    %esi,-0x8(%rbp)
    62ae:	88 45 fc             	mov    %al,-0x4(%rbp)
    62b1:	80 7d fc 00          	cmpb   $0x0,-0x4(%rbp)
    62b5:	78 31                	js     62e8 <safe_lshift_func_int8_t_s_s+0x47>
    62b7:	83 7d f8 00          	cmpl   $0x0,-0x8(%rbp)
    62bb:	78 2b                	js     62e8 <safe_lshift_func_int8_t_s_s+0x47>
    62bd:	83 7d f8 1f          	cmpl   $0x1f,-0x8(%rbp)
    62c1:	7f 25                	jg     62e8 <safe_lshift_func_int8_t_s_s+0x47>
    62c3:	0f be 55 fc          	movsbl -0x4(%rbp),%edx
    62c7:	8b 45 f8             	mov    -0x8(%rbp),%eax
    62ca:	be 7f 00 00 00       	mov    $0x7f,%esi
    62cf:	89 c1                	mov    %eax,%ecx
    62d1:	d3 fe                	sar    %cl,%esi
    62d3:	89 f0                	mov    %esi,%eax
    62d5:	39 c2                	cmp    %eax,%edx
    62d7:	7f 0f                	jg     62e8 <safe_lshift_func_int8_t_s_s+0x47>
    62d9:	0f be 55 fc          	movsbl -0x4(%rbp),%edx
    62dd:	8b 45 f8             	mov    -0x8(%rbp),%eax
    62e0:	89 c1                	mov    %eax,%ecx
    62e2:	d3 e2                	shl    %cl,%edx
    62e4:	89 d0                	mov    %edx,%eax
    62e6:	eb 04                	jmp    62ec <safe_lshift_func_int8_t_s_s+0x4b>
    62e8:	0f b6 45 fc          	movzbl -0x4(%rbp),%eax
    62ec:	5d                   	pop    %rbp
    62ed:	c3                   	retq   

00000000000062ee <safe_lshift_func_int8_t_s_u>:
    62ee:	f3 0f 1e fa          	endbr64 
    62f2:	55                   	push   %rbp
    62f3:	48 89 e5             	mov    %rsp,%rbp
    62f6:	89 f8                	mov    %edi,%eax
    62f8:	89 75 f8             	mov    %esi,-0x8(%rbp)
    62fb:	88 45 fc             	mov    %al,-0x4(%rbp)
    62fe:	80 7d fc 00          	cmpb   $0x0,-0x4(%rbp)
    6302:	78 2b                	js     632f <safe_lshift_func_int8_t_s_u+0x41>
    6304:	83 7d f8 1f          	cmpl   $0x1f,-0x8(%rbp)
    6308:	77 25                	ja     632f <safe_lshift_func_int8_t_s_u+0x41>
    630a:	0f be 55 fc          	movsbl -0x4(%rbp),%edx
    630e:	8b 45 f8             	mov    -0x8(%rbp),%eax
    6311:	be 7f 00 00 00       	mov    $0x7f,%esi
    6316:	89 c1                	mov    %eax,%ecx
    6318:	d3 fe                	sar    %cl,%esi
    631a:	89 f0                	mov    %esi,%eax
    631c:	39 c2                	cmp    %eax,%edx
    631e:	7f 0f                	jg     632f <safe_lshift_func_int8_t_s_u+0x41>
    6320:	0f be 55 fc          	movsbl -0x4(%rbp),%edx
    6324:	8b 45 f8             	mov    -0x8(%rbp),%eax
    6327:	89 c1                	mov    %eax,%ecx
    6329:	d3 e2                	shl    %cl,%edx
    632b:	89 d0                	mov    %edx,%eax
    632d:	eb 04                	jmp    6333 <safe_lshift_func_int8_t_s_u+0x45>
    632f:	0f b6 45 fc          	movzbl -0x4(%rbp),%eax
    6333:	5d                   	pop    %rbp
    6334:	c3                   	retq   

0000000000006335 <safe_rshift_func_int8_t_s_s>:
    6335:	f3 0f 1e fa          	endbr64 
    6339:	55                   	push   %rbp
    633a:	48 89 e5             	mov    %rsp,%rbp
    633d:	89 f8                	mov    %edi,%eax
    633f:	89 75 f8             	mov    %esi,-0x8(%rbp)
    6342:	88 45 fc             	mov    %al,-0x4(%rbp)
    6345:	80 7d fc 00          	cmpb   $0x0,-0x4(%rbp)
    6349:	78 1b                	js     6366 <safe_rshift_func_int8_t_s_s+0x31>
    634b:	83 7d f8 00          	cmpl   $0x0,-0x8(%rbp)
    634f:	78 15                	js     6366 <safe_rshift_func_int8_t_s_s+0x31>
    6351:	83 7d f8 1f          	cmpl   $0x1f,-0x8(%rbp)
    6355:	7f 0f                	jg     6366 <safe_rshift_func_int8_t_s_s+0x31>
    6357:	0f be 55 fc          	movsbl -0x4(%rbp),%edx
    635b:	8b 45 f8             	mov    -0x8(%rbp),%eax
    635e:	89 c1                	mov    %eax,%ecx
    6360:	d3 fa                	sar    %cl,%edx
    6362:	89 d0                	mov    %edx,%eax
    6364:	eb 04                	jmp    636a <safe_rshift_func_int8_t_s_s+0x35>
    6366:	0f b6 45 fc          	movzbl -0x4(%rbp),%eax
    636a:	5d                   	pop    %rbp
    636b:	c3                   	retq   

000000000000636c <safe_rshift_func_int8_t_s_u>:
    636c:	f3 0f 1e fa          	endbr64 
    6370:	55                   	push   %rbp
    6371:	48 89 e5             	mov    %rsp,%rbp
    6374:	89 f8                	mov    %edi,%eax
    6376:	89 75 f8             	mov    %esi,-0x8(%rbp)
    6379:	88 45 fc             	mov    %al,-0x4(%rbp)
    637c:	80 7d fc 00          	cmpb   $0x0,-0x4(%rbp)
    6380:	78 15                	js     6397 <safe_rshift_func_int8_t_s_u+0x2b>
    6382:	83 7d f8 1f          	cmpl   $0x1f,-0x8(%rbp)
    6386:	77 0f                	ja     6397 <safe_rshift_func_int8_t_s_u+0x2b>
    6388:	0f be 55 fc          	movsbl -0x4(%rbp),%edx
    638c:	8b 45 f8             	mov    -0x8(%rbp),%eax
    638f:	89 c1                	mov    %eax,%ecx
    6391:	d3 fa                	sar    %cl,%edx
    6393:	89 d0                	mov    %edx,%eax
    6395:	eb 04                	jmp    639b <safe_rshift_func_int8_t_s_u+0x2f>
    6397:	0f b6 45 fc          	movzbl -0x4(%rbp),%eax
    639b:	5d                   	pop    %rbp
    639c:	c3                   	retq   

000000000000639d <safe_unary_minus_func_int16_t_s>:
    639d:	f3 0f 1e fa          	endbr64 
    63a1:	55                   	push   %rbp
    63a2:	48 89 e5             	mov    %rsp,%rbp
    63a5:	89 f8                	mov    %edi,%eax
    63a7:	66 89 45 fc          	mov    %ax,-0x4(%rbp)
    63ab:	0f b7 45 fc          	movzwl -0x4(%rbp),%eax
    63af:	f7 d8                	neg    %eax
    63b1:	5d                   	pop    %rbp
    63b2:	c3                   	retq   

00000000000063b3 <safe_add_func_int16_t_s_s>:
    63b3:	f3 0f 1e fa          	endbr64 
    63b7:	55                   	push   %rbp
    63b8:	48 89 e5             	mov    %rsp,%rbp
    63bb:	89 fa                	mov    %edi,%edx
    63bd:	89 f0                	mov    %esi,%eax
    63bf:	66 89 55 fc          	mov    %dx,-0x4(%rbp)
    63c3:	66 89 45 f8          	mov    %ax,-0x8(%rbp)
    63c7:	0f b7 55 fc          	movzwl -0x4(%rbp),%edx
    63cb:	0f b7 45 f8          	movzwl -0x8(%rbp),%eax
    63cf:	01 d0                	add    %edx,%eax
    63d1:	5d                   	pop    %rbp
    63d2:	c3                   	retq   

00000000000063d3 <safe_sub_func_int16_t_s_s>:
    63d3:	f3 0f 1e fa          	endbr64 
    63d7:	55                   	push   %rbp
    63d8:	48 89 e5             	mov    %rsp,%rbp
    63db:	89 fa                	mov    %edi,%edx
    63dd:	89 f0                	mov    %esi,%eax
    63df:	66 89 55 fc          	mov    %dx,-0x4(%rbp)
    63e3:	66 89 45 f8          	mov    %ax,-0x8(%rbp)
    63e7:	0f b7 55 fc          	movzwl -0x4(%rbp),%edx
    63eb:	0f b7 45 f8          	movzwl -0x8(%rbp),%eax
    63ef:	29 c2                	sub    %eax,%edx
    63f1:	89 d0                	mov    %edx,%eax
    63f3:	5d                   	pop    %rbp
    63f4:	c3                   	retq   

00000000000063f5 <safe_mul_func_int16_t_s_s>:
    63f5:	f3 0f 1e fa          	endbr64 
    63f9:	55                   	push   %rbp
    63fa:	48 89 e5             	mov    %rsp,%rbp
    63fd:	89 fa                	mov    %edi,%edx
    63ff:	89 f0                	mov    %esi,%eax
    6401:	66 89 55 fc          	mov    %dx,-0x4(%rbp)
    6405:	66 89 45 f8          	mov    %ax,-0x8(%rbp)
    6409:	0f b7 55 fc          	movzwl -0x4(%rbp),%edx
    640d:	0f b7 45 f8          	movzwl -0x8(%rbp),%eax
    6411:	0f af c2             	imul   %edx,%eax
    6414:	5d                   	pop    %rbp
    6415:	c3                   	retq   

0000000000006416 <safe_mod_func_int16_t_s_s>:
    6416:	f3 0f 1e fa          	endbr64 
    641a:	55                   	push   %rbp
    641b:	48 89 e5             	mov    %rsp,%rbp
    641e:	89 fa                	mov    %edi,%edx
    6420:	89 f0                	mov    %esi,%eax
    6422:	66 89 55 fc          	mov    %dx,-0x4(%rbp)
    6426:	66 89 45 f8          	mov    %ax,-0x8(%rbp)
    642a:	66 83 7d f8 00       	cmpw   $0x0,-0x8(%rbp)
    642f:	74 1e                	je     644f <safe_mod_func_int16_t_s_s+0x39>
    6431:	66 81 7d fc 00 80    	cmpw   $0x8000,-0x4(%rbp)
    6437:	75 07                	jne    6440 <safe_mod_func_int16_t_s_s+0x2a>
    6439:	66 83 7d f8 ff       	cmpw   $0xffff,-0x8(%rbp)
    643e:	74 0f                	je     644f <safe_mod_func_int16_t_s_s+0x39>
    6440:	0f bf 45 fc          	movswl -0x4(%rbp),%eax
    6444:	0f bf 4d f8          	movswl -0x8(%rbp),%ecx
    6448:	99                   	cltd   
    6449:	f7 f9                	idiv   %ecx
    644b:	89 d0                	mov    %edx,%eax
    644d:	eb 04                	jmp    6453 <safe_mod_func_int16_t_s_s+0x3d>
    644f:	0f b7 45 fc          	movzwl -0x4(%rbp),%eax
    6453:	5d                   	pop    %rbp
    6454:	c3                   	retq   

0000000000006455 <safe_div_func_int16_t_s_s>:
    6455:	f3 0f 1e fa          	endbr64 
    6459:	55                   	push   %rbp
    645a:	48 89 e5             	mov    %rsp,%rbp
    645d:	89 fa                	mov    %edi,%edx
    645f:	89 f0                	mov    %esi,%eax
    6461:	66 89 55 fc          	mov    %dx,-0x4(%rbp)
    6465:	66 89 45 f8          	mov    %ax,-0x8(%rbp)
    6469:	66 83 7d f8 00       	cmpw   $0x0,-0x8(%rbp)
    646e:	74 1c                	je     648c <safe_div_func_int16_t_s_s+0x37>
    6470:	66 81 7d fc 00 80    	cmpw   $0x8000,-0x4(%rbp)
    6476:	75 07                	jne    647f <safe_div_func_int16_t_s_s+0x2a>
    6478:	66 83 7d f8 ff       	cmpw   $0xffff,-0x8(%rbp)
    647d:	74 0d                	je     648c <safe_div_func_int16_t_s_s+0x37>
    647f:	0f bf 45 fc          	movswl -0x4(%rbp),%eax
    6483:	0f bf 4d f8          	movswl -0x8(%rbp),%ecx
    6487:	99                   	cltd   
    6488:	f7 f9                	idiv   %ecx
    648a:	eb 04                	jmp    6490 <safe_div_func_int16_t_s_s+0x3b>
    648c:	0f b7 45 fc          	movzwl -0x4(%rbp),%eax
    6490:	5d                   	pop    %rbp
    6491:	c3                   	retq   

0000000000006492 <safe_lshift_func_int16_t_s_s>:
    6492:	f3 0f 1e fa          	endbr64 
    6496:	55                   	push   %rbp
    6497:	48 89 e5             	mov    %rsp,%rbp
    649a:	89 f8                	mov    %edi,%eax
    649c:	89 75 f8             	mov    %esi,-0x8(%rbp)
    649f:	66 89 45 fc          	mov    %ax,-0x4(%rbp)
    64a3:	66 83 7d fc 00       	cmpw   $0x0,-0x4(%rbp)
    64a8:	78 31                	js     64db <safe_lshift_func_int16_t_s_s+0x49>
    64aa:	83 7d f8 00          	cmpl   $0x0,-0x8(%rbp)
    64ae:	78 2b                	js     64db <safe_lshift_func_int16_t_s_s+0x49>
    64b0:	83 7d f8 1f          	cmpl   $0x1f,-0x8(%rbp)
    64b4:	7f 25                	jg     64db <safe_lshift_func_int16_t_s_s+0x49>
    64b6:	0f bf 55 fc          	movswl -0x4(%rbp),%edx
    64ba:	8b 45 f8             	mov    -0x8(%rbp),%eax
    64bd:	be ff 7f 00 00       	mov    $0x7fff,%esi
    64c2:	89 c1                	mov    %eax,%ecx
    64c4:	d3 fe                	sar    %cl,%esi
    64c6:	89 f0                	mov    %esi,%eax
    64c8:	39 c2                	cmp    %eax,%edx
    64ca:	7f 0f                	jg     64db <safe_lshift_func_int16_t_s_s+0x49>
    64cc:	0f bf 55 fc          	movswl -0x4(%rbp),%edx
    64d0:	8b 45 f8             	mov    -0x8(%rbp),%eax
    64d3:	89 c1                	mov    %eax,%ecx
    64d5:	d3 e2                	shl    %cl,%edx
    64d7:	89 d0                	mov    %edx,%eax
    64d9:	eb 04                	jmp    64df <safe_lshift_func_int16_t_s_s+0x4d>
    64db:	0f b7 45 fc          	movzwl -0x4(%rbp),%eax
    64df:	5d                   	pop    %rbp
    64e0:	c3                   	retq   

00000000000064e1 <safe_lshift_func_int16_t_s_u>:
    64e1:	f3 0f 1e fa          	endbr64 
    64e5:	55                   	push   %rbp
    64e6:	48 89 e5             	mov    %rsp,%rbp
    64e9:	89 f8                	mov    %edi,%eax
    64eb:	89 75 f8             	mov    %esi,-0x8(%rbp)
    64ee:	66 89 45 fc          	mov    %ax,-0x4(%rbp)
    64f2:	66 83 7d fc 00       	cmpw   $0x0,-0x4(%rbp)
    64f7:	78 2b                	js     6524 <safe_lshift_func_int16_t_s_u+0x43>
    64f9:	83 7d f8 1f          	cmpl   $0x1f,-0x8(%rbp)
    64fd:	77 25                	ja     6524 <safe_lshift_func_int16_t_s_u+0x43>
    64ff:	0f bf 55 fc          	movswl -0x4(%rbp),%edx
    6503:	8b 45 f8             	mov    -0x8(%rbp),%eax
    6506:	be ff 7f 00 00       	mov    $0x7fff,%esi
    650b:	89 c1                	mov    %eax,%ecx
    650d:	d3 fe                	sar    %cl,%esi
    650f:	89 f0                	mov    %esi,%eax
    6511:	39 c2                	cmp    %eax,%edx
    6513:	7f 0f                	jg     6524 <safe_lshift_func_int16_t_s_u+0x43>
    6515:	0f bf 55 fc          	movswl -0x4(%rbp),%edx
    6519:	8b 45 f8             	mov    -0x8(%rbp),%eax
    651c:	89 c1                	mov    %eax,%ecx
    651e:	d3 e2                	shl    %cl,%edx
    6520:	89 d0                	mov    %edx,%eax
    6522:	eb 04                	jmp    6528 <safe_lshift_func_int16_t_s_u+0x47>
    6524:	0f b7 45 fc          	movzwl -0x4(%rbp),%eax
    6528:	5d                   	pop    %rbp
    6529:	c3                   	retq   

000000000000652a <safe_rshift_func_int16_t_s_s>:
    652a:	f3 0f 1e fa          	endbr64 
    652e:	55                   	push   %rbp
    652f:	48 89 e5             	mov    %rsp,%rbp
    6532:	89 f8                	mov    %edi,%eax
    6534:	89 75 f8             	mov    %esi,-0x8(%rbp)
    6537:	66 89 45 fc          	mov    %ax,-0x4(%rbp)
    653b:	66 83 7d fc 00       	cmpw   $0x0,-0x4(%rbp)
    6540:	78 1b                	js     655d <safe_rshift_func_int16_t_s_s+0x33>
    6542:	83 7d f8 00          	cmpl   $0x0,-0x8(%rbp)
    6546:	78 15                	js     655d <safe_rshift_func_int16_t_s_s+0x33>
    6548:	83 7d f8 1f          	cmpl   $0x1f,-0x8(%rbp)
    654c:	7f 0f                	jg     655d <safe_rshift_func_int16_t_s_s+0x33>
    654e:	0f bf 55 fc          	movswl -0x4(%rbp),%edx
    6552:	8b 45 f8             	mov    -0x8(%rbp),%eax
    6555:	89 c1                	mov    %eax,%ecx
    6557:	d3 fa                	sar    %cl,%edx
    6559:	89 d0                	mov    %edx,%eax
    655b:	eb 04                	jmp    6561 <safe_rshift_func_int16_t_s_s+0x37>
    655d:	0f b7 45 fc          	movzwl -0x4(%rbp),%eax
    6561:	5d                   	pop    %rbp
    6562:	c3                   	retq   

0000000000006563 <safe_rshift_func_int16_t_s_u>:
    6563:	f3 0f 1e fa          	endbr64 
    6567:	55                   	push   %rbp
    6568:	48 89 e5             	mov    %rsp,%rbp
    656b:	89 f8                	mov    %edi,%eax
    656d:	89 75 f8             	mov    %esi,-0x8(%rbp)
    6570:	66 89 45 fc          	mov    %ax,-0x4(%rbp)
    6574:	66 83 7d fc 00       	cmpw   $0x0,-0x4(%rbp)
    6579:	78 15                	js     6590 <safe_rshift_func_int16_t_s_u+0x2d>
    657b:	83 7d f8 1f          	cmpl   $0x1f,-0x8(%rbp)
    657f:	77 0f                	ja     6590 <safe_rshift_func_int16_t_s_u+0x2d>
    6581:	0f bf 55 fc          	movswl -0x4(%rbp),%edx
    6585:	8b 45 f8             	mov    -0x8(%rbp),%eax
    6588:	89 c1                	mov    %eax,%ecx
    658a:	d3 fa                	sar    %cl,%edx
    658c:	89 d0                	mov    %edx,%eax
    658e:	eb 04                	jmp    6594 <safe_rshift_func_int16_t_s_u+0x31>
    6590:	0f b7 45 fc          	movzwl -0x4(%rbp),%eax
    6594:	5d                   	pop    %rbp
    6595:	c3                   	retq   

0000000000006596 <safe_unary_minus_func_int32_t_s>:
    6596:	f3 0f 1e fa          	endbr64 
    659a:	55                   	push   %rbp
    659b:	48 89 e5             	mov    %rsp,%rbp
    659e:	89 7d fc             	mov    %edi,-0x4(%rbp)
    65a1:	81 7d fc 00 00 00 80 	cmpl   $0x80000000,-0x4(%rbp)
    65a8:	74 07                	je     65b1 <safe_unary_minus_func_int32_t_s+0x1b>
    65aa:	8b 45 fc             	mov    -0x4(%rbp),%eax
    65ad:	f7 d8                	neg    %eax
    65af:	eb 03                	jmp    65b4 <safe_unary_minus_func_int32_t_s+0x1e>
    65b1:	8b 45 fc             	mov    -0x4(%rbp),%eax
    65b4:	5d                   	pop    %rbp
    65b5:	c3                   	retq   

00000000000065b6 <safe_add_func_int32_t_s_s>:
    65b6:	f3 0f 1e fa          	endbr64 
    65ba:	55                   	push   %rbp
    65bb:	48 89 e5             	mov    %rsp,%rbp
    65be:	89 7d fc             	mov    %edi,-0x4(%rbp)
    65c1:	89 75 f8             	mov    %esi,-0x8(%rbp)
    65c4:	83 7d fc 00          	cmpl   $0x0,-0x4(%rbp)
    65c8:	7e 13                	jle    65dd <safe_add_func_int32_t_s_s+0x27>
    65ca:	83 7d f8 00          	cmpl   $0x0,-0x8(%rbp)
    65ce:	7e 0d                	jle    65dd <safe_add_func_int32_t_s_s+0x27>
    65d0:	b8 ff ff ff 7f       	mov    $0x7fffffff,%eax
    65d5:	2b 45 f8             	sub    -0x8(%rbp),%eax
    65d8:	39 45 fc             	cmp    %eax,-0x4(%rbp)
    65db:	7f 23                	jg     6600 <safe_add_func_int32_t_s_s+0x4a>
    65dd:	83 7d fc 00          	cmpl   $0x0,-0x4(%rbp)
    65e1:	79 13                	jns    65f6 <safe_add_func_int32_t_s_s+0x40>
    65e3:	83 7d f8 00          	cmpl   $0x0,-0x8(%rbp)
    65e7:	79 0d                	jns    65f6 <safe_add_func_int32_t_s_s+0x40>
    65e9:	b8 00 00 00 80       	mov    $0x80000000,%eax
    65ee:	2b 45 f8             	sub    -0x8(%rbp),%eax
    65f1:	39 45 fc             	cmp    %eax,-0x4(%rbp)
    65f4:	7c 0a                	jl     6600 <safe_add_func_int32_t_s_s+0x4a>
    65f6:	8b 55 fc             	mov    -0x4(%rbp),%edx
    65f9:	8b 45 f8             	mov    -0x8(%rbp),%eax
    65fc:	01 d0                	add    %edx,%eax
    65fe:	eb 03                	jmp    6603 <safe_add_func_int32_t_s_s+0x4d>
    6600:	8b 45 fc             	mov    -0x4(%rbp),%eax
    6603:	5d                   	pop    %rbp
    6604:	c3                   	retq   

0000000000006605 <safe_sub_func_int32_t_s_s>:
    6605:	f3 0f 1e fa          	endbr64 
    6609:	55                   	push   %rbp
    660a:	48 89 e5             	mov    %rsp,%rbp
    660d:	89 7d fc             	mov    %edi,-0x4(%rbp)
    6610:	89 75 f8             	mov    %esi,-0x8(%rbp)
    6613:	8b 45 fc             	mov    -0x4(%rbp),%eax
    6616:	33 45 f8             	xor    -0x8(%rbp),%eax
    6619:	89 c2                	mov    %eax,%edx
    661b:	8b 45 fc             	mov    -0x4(%rbp),%eax
    661e:	33 45 f8             	xor    -0x8(%rbp),%eax
    6621:	25 00 00 00 80       	and    $0x80000000,%eax
    6626:	33 45 fc             	xor    -0x4(%rbp),%eax
    6629:	2b 45 f8             	sub    -0x8(%rbp),%eax
    662c:	33 45 f8             	xor    -0x8(%rbp),%eax
    662f:	21 d0                	and    %edx,%eax
    6631:	85 c0                	test   %eax,%eax
    6633:	78 08                	js     663d <safe_sub_func_int32_t_s_s+0x38>
    6635:	8b 45 fc             	mov    -0x4(%rbp),%eax
    6638:	2b 45 f8             	sub    -0x8(%rbp),%eax
    663b:	eb 03                	jmp    6640 <safe_sub_func_int32_t_s_s+0x3b>
    663d:	8b 45 fc             	mov    -0x4(%rbp),%eax
    6640:	5d                   	pop    %rbp
    6641:	c3                   	retq   

0000000000006642 <safe_mul_func_int32_t_s_s>:
    6642:	f3 0f 1e fa          	endbr64 
    6646:	55                   	push   %rbp
    6647:	48 89 e5             	mov    %rsp,%rbp
    664a:	89 7d fc             	mov    %edi,-0x4(%rbp)
    664d:	89 75 f8             	mov    %esi,-0x8(%rbp)
    6650:	83 7d fc 00          	cmpl   $0x0,-0x4(%rbp)
    6654:	7e 14                	jle    666a <safe_mul_func_int32_t_s_s+0x28>
    6656:	83 7d f8 00          	cmpl   $0x0,-0x8(%rbp)
    665a:	7e 0e                	jle    666a <safe_mul_func_int32_t_s_s+0x28>
    665c:	b8 ff ff ff 7f       	mov    $0x7fffffff,%eax
    6661:	99                   	cltd   
    6662:	f7 7d f8             	idivl  -0x8(%rbp)
    6665:	39 45 fc             	cmp    %eax,-0x4(%rbp)
    6668:	7f 5d                	jg     66c7 <safe_mul_func_int32_t_s_s+0x85>
    666a:	83 7d fc 00          	cmpl   $0x0,-0x4(%rbp)
    666e:	7e 14                	jle    6684 <safe_mul_func_int32_t_s_s+0x42>
    6670:	83 7d f8 00          	cmpl   $0x0,-0x8(%rbp)
    6674:	7f 0e                	jg     6684 <safe_mul_func_int32_t_s_s+0x42>
    6676:	b8 00 00 00 80       	mov    $0x80000000,%eax
    667b:	99                   	cltd   
    667c:	f7 7d fc             	idivl  -0x4(%rbp)
    667f:	39 45 f8             	cmp    %eax,-0x8(%rbp)
    6682:	7c 43                	jl     66c7 <safe_mul_func_int32_t_s_s+0x85>
    6684:	83 7d fc 00          	cmpl   $0x0,-0x4(%rbp)
    6688:	7f 14                	jg     669e <safe_mul_func_int32_t_s_s+0x5c>
    668a:	83 7d f8 00          	cmpl   $0x0,-0x8(%rbp)
    668e:	7e 0e                	jle    669e <safe_mul_func_int32_t_s_s+0x5c>
    6690:	b8 00 00 00 80       	mov    $0x80000000,%eax
    6695:	99                   	cltd   
    6696:	f7 7d f8             	idivl  -0x8(%rbp)
    6699:	39 45 fc             	cmp    %eax,-0x4(%rbp)
    669c:	7c 29                	jl     66c7 <safe_mul_func_int32_t_s_s+0x85>
    669e:	83 7d fc 00          	cmpl   $0x0,-0x4(%rbp)
    66a2:	7f 1a                	jg     66be <safe_mul_func_int32_t_s_s+0x7c>
    66a4:	83 7d f8 00          	cmpl   $0x0,-0x8(%rbp)
    66a8:	7f 14                	jg     66be <safe_mul_func_int32_t_s_s+0x7c>
    66aa:	83 7d fc 00          	cmpl   $0x0,-0x4(%rbp)
    66ae:	74 0e                	je     66be <safe_mul_func_int32_t_s_s+0x7c>
    66b0:	b8 ff ff ff 7f       	mov    $0x7fffffff,%eax
    66b5:	99                   	cltd   
    66b6:	f7 7d fc             	idivl  -0x4(%rbp)
    66b9:	39 45 f8             	cmp    %eax,-0x8(%rbp)
    66bc:	7c 09                	jl     66c7 <safe_mul_func_int32_t_s_s+0x85>
    66be:	8b 45 fc             	mov    -0x4(%rbp),%eax
    66c1:	0f af 45 f8          	imul   -0x8(%rbp),%eax
    66c5:	eb 03                	jmp    66ca <safe_mul_func_int32_t_s_s+0x88>
    66c7:	8b 45 fc             	mov    -0x4(%rbp),%eax
    66ca:	5d                   	pop    %rbp
    66cb:	c3                   	retq   

00000000000066cc <safe_mod_func_int32_t_s_s>:
    66cc:	f3 0f 1e fa          	endbr64 
    66d0:	55                   	push   %rbp
    66d1:	48 89 e5             	mov    %rsp,%rbp
    66d4:	89 7d fc             	mov    %edi,-0x4(%rbp)
    66d7:	89 75 f8             	mov    %esi,-0x8(%rbp)
    66da:	83 7d f8 00          	cmpl   $0x0,-0x8(%rbp)
    66de:	74 1a                	je     66fa <safe_mod_func_int32_t_s_s+0x2e>
    66e0:	81 7d fc 00 00 00 80 	cmpl   $0x80000000,-0x4(%rbp)
    66e7:	75 06                	jne    66ef <safe_mod_func_int32_t_s_s+0x23>
    66e9:	83 7d f8 ff          	cmpl   $0xffffffff,-0x8(%rbp)
    66ed:	74 0b                	je     66fa <safe_mod_func_int32_t_s_s+0x2e>
    66ef:	8b 45 fc             	mov    -0x4(%rbp),%eax
    66f2:	99                   	cltd   
    66f3:	f7 7d f8             	idivl  -0x8(%rbp)
    66f6:	89 d0                	mov    %edx,%eax
    66f8:	eb 03                	jmp    66fd <safe_mod_func_int32_t_s_s+0x31>
    66fa:	8b 45 fc             	mov    -0x4(%rbp),%eax
    66fd:	5d                   	pop    %rbp
    66fe:	c3                   	retq   

00000000000066ff <safe_div_func_int32_t_s_s>:
    66ff:	f3 0f 1e fa          	endbr64 
    6703:	55                   	push   %rbp
    6704:	48 89 e5             	mov    %rsp,%rbp
    6707:	89 7d fc             	mov    %edi,-0x4(%rbp)
    670a:	89 75 f8             	mov    %esi,-0x8(%rbp)
    670d:	83 7d f8 00          	cmpl   $0x0,-0x8(%rbp)
    6711:	74 18                	je     672b <safe_div_func_int32_t_s_s+0x2c>
    6713:	81 7d fc 00 00 00 80 	cmpl   $0x80000000,-0x4(%rbp)
    671a:	75 06                	jne    6722 <safe_div_func_int32_t_s_s+0x23>
    671c:	83 7d f8 ff          	cmpl   $0xffffffff,-0x8(%rbp)
    6720:	74 09                	je     672b <safe_div_func_int32_t_s_s+0x2c>
    6722:	8b 45 fc             	mov    -0x4(%rbp),%eax
    6725:	99                   	cltd   
    6726:	f7 7d f8             	idivl  -0x8(%rbp)
    6729:	eb 03                	jmp    672e <safe_div_func_int32_t_s_s+0x2f>
    672b:	8b 45 fc             	mov    -0x4(%rbp),%eax
    672e:	5d                   	pop    %rbp
    672f:	c3                   	retq   

0000000000006730 <safe_lshift_func_int32_t_s_s>:
    6730:	f3 0f 1e fa          	endbr64 
    6734:	55                   	push   %rbp
    6735:	48 89 e5             	mov    %rsp,%rbp
    6738:	89 7d fc             	mov    %edi,-0x4(%rbp)
    673b:	89 75 f8             	mov    %esi,-0x8(%rbp)
    673e:	83 7d fc 00          	cmpl   $0x0,-0x4(%rbp)
    6742:	78 2d                	js     6771 <safe_lshift_func_int32_t_s_s+0x41>
    6744:	83 7d f8 00          	cmpl   $0x0,-0x8(%rbp)
    6748:	78 27                	js     6771 <safe_lshift_func_int32_t_s_s+0x41>
    674a:	83 7d f8 1f          	cmpl   $0x1f,-0x8(%rbp)
    674e:	7f 21                	jg     6771 <safe_lshift_func_int32_t_s_s+0x41>
    6750:	8b 45 f8             	mov    -0x8(%rbp),%eax
    6753:	ba ff ff ff 7f       	mov    $0x7fffffff,%edx
    6758:	89 c1                	mov    %eax,%ecx
    675a:	d3 fa                	sar    %cl,%edx
    675c:	89 d0                	mov    %edx,%eax
    675e:	39 45 fc             	cmp    %eax,-0x4(%rbp)
    6761:	7f 0e                	jg     6771 <safe_lshift_func_int32_t_s_s+0x41>
    6763:	8b 45 f8             	mov    -0x8(%rbp),%eax
    6766:	8b 55 fc             	mov    -0x4(%rbp),%edx
    6769:	89 c1                	mov    %eax,%ecx
    676b:	d3 e2                	shl    %cl,%edx
    676d:	89 d0                	mov    %edx,%eax
    676f:	eb 03                	jmp    6774 <safe_lshift_func_int32_t_s_s+0x44>
    6771:	8b 45 fc             	mov    -0x4(%rbp),%eax
    6774:	5d                   	pop    %rbp
    6775:	c3                   	retq   

0000000000006776 <safe_lshift_func_int32_t_s_u>:
    6776:	f3 0f 1e fa          	endbr64 
    677a:	55                   	push   %rbp
    677b:	48 89 e5             	mov    %rsp,%rbp
    677e:	89 7d fc             	mov    %edi,-0x4(%rbp)
    6781:	89 75 f8             	mov    %esi,-0x8(%rbp)
    6784:	83 7d fc 00          	cmpl   $0x0,-0x4(%rbp)
    6788:	78 27                	js     67b1 <safe_lshift_func_int32_t_s_u+0x3b>
    678a:	83 7d f8 1f          	cmpl   $0x1f,-0x8(%rbp)
    678e:	77 21                	ja     67b1 <safe_lshift_func_int32_t_s_u+0x3b>
    6790:	8b 45 f8             	mov    -0x8(%rbp),%eax
    6793:	ba ff ff ff 7f       	mov    $0x7fffffff,%edx
    6798:	89 c1                	mov    %eax,%ecx
    679a:	d3 fa                	sar    %cl,%edx
    679c:	89 d0                	mov    %edx,%eax
    679e:	39 45 fc             	cmp    %eax,-0x4(%rbp)
    67a1:	7f 0e                	jg     67b1 <safe_lshift_func_int32_t_s_u+0x3b>
    67a3:	8b 45 f8             	mov    -0x8(%rbp),%eax
    67a6:	8b 55 fc             	mov    -0x4(%rbp),%edx
    67a9:	89 c1                	mov    %eax,%ecx
    67ab:	d3 e2                	shl    %cl,%edx
    67ad:	89 d0                	mov    %edx,%eax
    67af:	eb 03                	jmp    67b4 <safe_lshift_func_int32_t_s_u+0x3e>
    67b1:	8b 45 fc             	mov    -0x4(%rbp),%eax
    67b4:	5d                   	pop    %rbp
    67b5:	c3                   	retq   

00000000000067b6 <safe_rshift_func_int32_t_s_s>:
    67b6:	f3 0f 1e fa          	endbr64 
    67ba:	55                   	push   %rbp
    67bb:	48 89 e5             	mov    %rsp,%rbp
    67be:	89 7d fc             	mov    %edi,-0x4(%rbp)
    67c1:	89 75 f8             	mov    %esi,-0x8(%rbp)
    67c4:	83 7d fc 00          	cmpl   $0x0,-0x4(%rbp)
    67c8:	78 1a                	js     67e4 <safe_rshift_func_int32_t_s_s+0x2e>
    67ca:	83 7d f8 00          	cmpl   $0x0,-0x8(%rbp)
    67ce:	78 14                	js     67e4 <safe_rshift_func_int32_t_s_s+0x2e>
    67d0:	83 7d f8 1f          	cmpl   $0x1f,-0x8(%rbp)
    67d4:	7f 0e                	jg     67e4 <safe_rshift_func_int32_t_s_s+0x2e>
    67d6:	8b 45 f8             	mov    -0x8(%rbp),%eax
    67d9:	8b 55 fc             	mov    -0x4(%rbp),%edx
    67dc:	89 c1                	mov    %eax,%ecx
    67de:	d3 fa                	sar    %cl,%edx
    67e0:	89 d0                	mov    %edx,%eax
    67e2:	eb 03                	jmp    67e7 <safe_rshift_func_int32_t_s_s+0x31>
    67e4:	8b 45 fc             	mov    -0x4(%rbp),%eax
    67e7:	5d                   	pop    %rbp
    67e8:	c3                   	retq   

00000000000067e9 <safe_rshift_func_int32_t_s_u>:
    67e9:	f3 0f 1e fa          	endbr64 
    67ed:	55                   	push   %rbp
    67ee:	48 89 e5             	mov    %rsp,%rbp
    67f1:	89 7d fc             	mov    %edi,-0x4(%rbp)
    67f4:	89 75 f8             	mov    %esi,-0x8(%rbp)
    67f7:	83 7d fc 00          	cmpl   $0x0,-0x4(%rbp)
    67fb:	78 14                	js     6811 <safe_rshift_func_int32_t_s_u+0x28>
    67fd:	83 7d f8 1f          	cmpl   $0x1f,-0x8(%rbp)
    6801:	77 0e                	ja     6811 <safe_rshift_func_int32_t_s_u+0x28>
    6803:	8b 45 f8             	mov    -0x8(%rbp),%eax
    6806:	8b 55 fc             	mov    -0x4(%rbp),%edx
    6809:	89 c1                	mov    %eax,%ecx
    680b:	d3 fa                	sar    %cl,%edx
    680d:	89 d0                	mov    %edx,%eax
    680f:	eb 03                	jmp    6814 <safe_rshift_func_int32_t_s_u+0x2b>
    6811:	8b 45 fc             	mov    -0x4(%rbp),%eax
    6814:	5d                   	pop    %rbp
    6815:	c3                   	retq   

0000000000006816 <safe_unary_minus_func_int64_t_s>:
    6816:	f3 0f 1e fa          	endbr64 
    681a:	55                   	push   %rbp
    681b:	48 89 e5             	mov    %rsp,%rbp
    681e:	48 89 7d f8          	mov    %rdi,-0x8(%rbp)
    6822:	48 b8 00 00 00 00 00 	movabs $0x8000000000000000,%rax
    6829:	00 00 80 
    682c:	48 39 45 f8          	cmp    %rax,-0x8(%rbp)
    6830:	74 09                	je     683b <safe_unary_minus_func_int64_t_s+0x25>
    6832:	48 8b 45 f8          	mov    -0x8(%rbp),%rax
    6836:	48 f7 d8             	neg    %rax
    6839:	eb 04                	jmp    683f <safe_unary_minus_func_int64_t_s+0x29>
    683b:	48 8b 45 f8          	mov    -0x8(%rbp),%rax
    683f:	5d                   	pop    %rbp
    6840:	c3                   	retq   

0000000000006841 <safe_add_func_int64_t_s_s>:
    6841:	f3 0f 1e fa          	endbr64 
    6845:	55                   	push   %rbp
    6846:	48 89 e5             	mov    %rsp,%rbp
    6849:	48 89 7d f8          	mov    %rdi,-0x8(%rbp)
    684d:	48 89 75 f0          	mov    %rsi,-0x10(%rbp)
    6851:	48 83 7d f8 00       	cmpq   $0x0,-0x8(%rbp)
    6856:	7e 1b                	jle    6873 <safe_add_func_int64_t_s_s+0x32>
    6858:	48 83 7d f0 00       	cmpq   $0x0,-0x10(%rbp)
    685d:	7e 14                	jle    6873 <safe_add_func_int64_t_s_s+0x32>
    685f:	48 b8 ff ff ff ff ff 	movabs $0x7fffffffffffffff,%rax
    6866:	ff ff 7f 
    6869:	48 2b 45 f0          	sub    -0x10(%rbp),%rax
    686d:	48 39 45 f8          	cmp    %rax,-0x8(%rbp)
    6871:	7f 2f                	jg     68a2 <safe_add_func_int64_t_s_s+0x61>
    6873:	48 83 7d f8 00       	cmpq   $0x0,-0x8(%rbp)
    6878:	79 1b                	jns    6895 <safe_add_func_int64_t_s_s+0x54>
    687a:	48 83 7d f0 00       	cmpq   $0x0,-0x10(%rbp)
    687f:	79 14                	jns    6895 <safe_add_func_int64_t_s_s+0x54>
    6881:	48 b8 00 00 00 00 00 	movabs $0x8000000000000000,%rax
    6888:	00 00 80 
    688b:	48 2b 45 f0          	sub    -0x10(%rbp),%rax
    688f:	48 39 45 f8          	cmp    %rax,-0x8(%rbp)
    6893:	7c 0d                	jl     68a2 <safe_add_func_int64_t_s_s+0x61>
    6895:	48 8b 55 f8          	mov    -0x8(%rbp),%rdx
    6899:	48 8b 45 f0          	mov    -0x10(%rbp),%rax
    689d:	48 01 d0             	add    %rdx,%rax
    68a0:	eb 04                	jmp    68a6 <safe_add_func_int64_t_s_s+0x65>
    68a2:	48 8b 45 f8          	mov    -0x8(%rbp),%rax
    68a6:	5d                   	pop    %rbp
    68a7:	c3                   	retq   

00000000000068a8 <safe_sub_func_int64_t_s_s>:
    68a8:	f3 0f 1e fa          	endbr64 
    68ac:	55                   	push   %rbp
    68ad:	48 89 e5             	mov    %rsp,%rbp
    68b0:	48 89 7d f8          	mov    %rdi,-0x8(%rbp)
    68b4:	48 89 75 f0          	mov    %rsi,-0x10(%rbp)
    68b8:	48 8b 45 f8          	mov    -0x8(%rbp),%rax
    68bc:	48 33 45 f0          	xor    -0x10(%rbp),%rax
    68c0:	48 89 c2             	mov    %rax,%rdx
    68c3:	48 8b 45 f8          	mov    -0x8(%rbp),%rax
    68c7:	48 33 45 f0          	xor    -0x10(%rbp),%rax
    68cb:	48 b9 00 00 00 00 00 	movabs $0x8000000000000000,%rcx
    68d2:	00 00 80 
    68d5:	48 21 c8             	and    %rcx,%rax
    68d8:	48 33 45 f8          	xor    -0x8(%rbp),%rax
    68dc:	48 2b 45 f0          	sub    -0x10(%rbp),%rax
    68e0:	48 33 45 f0          	xor    -0x10(%rbp),%rax
    68e4:	48 21 d0             	and    %rdx,%rax
    68e7:	48 85 c0             	test   %rax,%rax
    68ea:	78 0a                	js     68f6 <safe_sub_func_int64_t_s_s+0x4e>
    68ec:	48 8b 45 f8          	mov    -0x8(%rbp),%rax
    68f0:	48 2b 45 f0          	sub    -0x10(%rbp),%rax
    68f4:	eb 04                	jmp    68fa <safe_sub_func_int64_t_s_s+0x52>
    68f6:	48 8b 45 f8          	mov    -0x8(%rbp),%rax
    68fa:	5d                   	pop    %rbp
    68fb:	c3                   	retq   

00000000000068fc <safe_mul_func_int64_t_s_s>:
    68fc:	f3 0f 1e fa          	endbr64 
    6900:	55                   	push   %rbp
    6901:	48 89 e5             	mov    %rsp,%rbp
    6904:	48 89 7d f8          	mov    %rdi,-0x8(%rbp)
    6908:	48 89 75 f0          	mov    %rsi,-0x10(%rbp)
    690c:	48 83 7d f8 00       	cmpq   $0x0,-0x8(%rbp)
    6911:	7e 1d                	jle    6930 <safe_mul_func_int64_t_s_s+0x34>
    6913:	48 83 7d f0 00       	cmpq   $0x0,-0x10(%rbp)
    6918:	7e 16                	jle    6930 <safe_mul_func_int64_t_s_s+0x34>
    691a:	48 b8 ff ff ff ff ff 	movabs $0x7fffffffffffffff,%rax
    6921:	ff ff 7f 
    6924:	48 99                	cqto   
    6926:	48 f7 7d f0          	idivq  -0x10(%rbp)
    692a:	48 39 45 f8          	cmp    %rax,-0x8(%rbp)
    692e:	7f 7e                	jg     69ae <safe_mul_func_int64_t_s_s+0xb2>
    6930:	48 83 7d f8 00       	cmpq   $0x0,-0x8(%rbp)
    6935:	7e 1d                	jle    6954 <safe_mul_func_int64_t_s_s+0x58>
    6937:	48 83 7d f0 00       	cmpq   $0x0,-0x10(%rbp)
    693c:	7f 16                	jg     6954 <safe_mul_func_int64_t_s_s+0x58>
    693e:	48 b8 00 00 00 00 00 	movabs $0x8000000000000000,%rax
    6945:	00 00 80 
    6948:	48 99                	cqto   
    694a:	48 f7 7d f8          	idivq  -0x8(%rbp)
    694e:	48 39 45 f0          	cmp    %rax,-0x10(%rbp)
    6952:	7c 5a                	jl     69ae <safe_mul_func_int64_t_s_s+0xb2>
    6954:	48 83 7d f8 00       	cmpq   $0x0,-0x8(%rbp)
    6959:	7f 1d                	jg     6978 <safe_mul_func_int64_t_s_s+0x7c>
    695b:	48 83 7d f0 00       	cmpq   $0x0,-0x10(%rbp)
    6960:	7e 16                	jle    6978 <safe_mul_func_int64_t_s_s+0x7c>
    6962:	48 b8 00 00 00 00 00 	movabs $0x8000000000000000,%rax
    6969:	00 00 80 
    696c:	48 99                	cqto   
    696e:	48 f7 7d f0          	idivq  -0x10(%rbp)
    6972:	48 39 45 f8          	cmp    %rax,-0x8(%rbp)
    6976:	7c 36                	jl     69ae <safe_mul_func_int64_t_s_s+0xb2>
    6978:	48 83 7d f8 00       	cmpq   $0x0,-0x8(%rbp)
    697d:	7f 24                	jg     69a3 <safe_mul_func_int64_t_s_s+0xa7>
    697f:	48 83 7d f0 00       	cmpq   $0x0,-0x10(%rbp)
    6984:	7f 1d                	jg     69a3 <safe_mul_func_int64_t_s_s+0xa7>
    6986:	48 83 7d f8 00       	cmpq   $0x0,-0x8(%rbp)
    698b:	74 16                	je     69a3 <safe_mul_func_int64_t_s_s+0xa7>
    698d:	48 b8 ff ff ff ff ff 	movabs $0x7fffffffffffffff,%rax
    6994:	ff ff 7f 
    6997:	48 99                	cqto   
    6999:	48 f7 7d f8          	idivq  -0x8(%rbp)
    699d:	48 39 45 f0          	cmp    %rax,-0x10(%rbp)
    69a1:	7c 0b                	jl     69ae <safe_mul_func_int64_t_s_s+0xb2>
    69a3:	48 8b 45 f8          	mov    -0x8(%rbp),%rax
    69a7:	48 0f af 45 f0       	imul   -0x10(%rbp),%rax
    69ac:	eb 04                	jmp    69b2 <safe_mul_func_int64_t_s_s+0xb6>
    69ae:	48 8b 45 f8          	mov    -0x8(%rbp),%rax
    69b2:	5d                   	pop    %rbp
    69b3:	c3                   	retq   

00000000000069b4 <safe_mod_func_int64_t_s_s>:
    69b4:	f3 0f 1e fa          	endbr64 
    69b8:	55                   	push   %rbp
    69b9:	48 89 e5             	mov    %rsp,%rbp
    69bc:	48 89 7d f8          	mov    %rdi,-0x8(%rbp)
    69c0:	48 89 75 f0          	mov    %rsi,-0x10(%rbp)
    69c4:	48 83 7d f0 00       	cmpq   $0x0,-0x10(%rbp)
    69c9:	74 26                	je     69f1 <safe_mod_func_int64_t_s_s+0x3d>
    69cb:	48 b8 00 00 00 00 00 	movabs $0x8000000000000000,%rax
    69d2:	00 00 80 
    69d5:	48 39 45 f8          	cmp    %rax,-0x8(%rbp)
    69d9:	75 07                	jne    69e2 <safe_mod_func_int64_t_s_s+0x2e>
    69db:	48 83 7d f0 ff       	cmpq   $0xffffffffffffffff,-0x10(%rbp)
    69e0:	74 0f                	je     69f1 <safe_mod_func_int64_t_s_s+0x3d>
    69e2:	48 8b 45 f8          	mov    -0x8(%rbp),%rax
    69e6:	48 99                	cqto   
    69e8:	48 f7 7d f0          	idivq  -0x10(%rbp)
    69ec:	48 89 d0             	mov    %rdx,%rax
    69ef:	eb 04                	jmp    69f5 <safe_mod_func_int64_t_s_s+0x41>
    69f1:	48 8b 45 f8          	mov    -0x8(%rbp),%rax
    69f5:	5d                   	pop    %rbp
    69f6:	c3                   	retq   

00000000000069f7 <safe_div_func_int64_t_s_s>:
    69f7:	f3 0f 1e fa          	endbr64 
    69fb:	55                   	push   %rbp
    69fc:	48 89 e5             	mov    %rsp,%rbp
    69ff:	48 89 7d f8          	mov    %rdi,-0x8(%rbp)
    6a03:	48 89 75 f0          	mov    %rsi,-0x10(%rbp)
    6a07:	48 83 7d f0 00       	cmpq   $0x0,-0x10(%rbp)
    6a0c:	74 23                	je     6a31 <safe_div_func_int64_t_s_s+0x3a>
    6a0e:	48 b8 00 00 00 00 00 	movabs $0x8000000000000000,%rax
    6a15:	00 00 80 
    6a18:	48 39 45 f8          	cmp    %rax,-0x8(%rbp)
    6a1c:	75 07                	jne    6a25 <safe_div_func_int64_t_s_s+0x2e>
    6a1e:	48 83 7d f0 ff       	cmpq   $0xffffffffffffffff,-0x10(%rbp)
    6a23:	74 0c                	je     6a31 <safe_div_func_int64_t_s_s+0x3a>
    6a25:	48 8b 45 f8          	mov    -0x8(%rbp),%rax
    6a29:	48 99                	cqto   
    6a2b:	48 f7 7d f0          	idivq  -0x10(%rbp)
    6a2f:	eb 04                	jmp    6a35 <safe_div_func_int64_t_s_s+0x3e>
    6a31:	48 8b 45 f8          	mov    -0x8(%rbp),%rax
    6a35:	5d                   	pop    %rbp
    6a36:	c3                   	retq   

0000000000006a37 <safe_lshift_func_int64_t_s_s>:
    6a37:	f3 0f 1e fa          	endbr64 
    6a3b:	55                   	push   %rbp
    6a3c:	48 89 e5             	mov    %rsp,%rbp
    6a3f:	48 89 7d f8          	mov    %rdi,-0x8(%rbp)
    6a43:	89 75 f4             	mov    %esi,-0xc(%rbp)
    6a46:	48 83 7d f8 00       	cmpq   $0x0,-0x8(%rbp)
    6a4b:	78 38                	js     6a85 <safe_lshift_func_int64_t_s_s+0x4e>
    6a4d:	83 7d f4 00          	cmpl   $0x0,-0xc(%rbp)
    6a51:	78 32                	js     6a85 <safe_lshift_func_int64_t_s_s+0x4e>
    6a53:	83 7d f4 1f          	cmpl   $0x1f,-0xc(%rbp)
    6a57:	7f 2c                	jg     6a85 <safe_lshift_func_int64_t_s_s+0x4e>
    6a59:	8b 45 f4             	mov    -0xc(%rbp),%eax
    6a5c:	48 ba ff ff ff ff ff 	movabs $0x7fffffffffffffff,%rdx
    6a63:	ff ff 7f 
    6a66:	89 c1                	mov    %eax,%ecx
    6a68:	48 d3 fa             	sar    %cl,%rdx
    6a6b:	48 89 d0             	mov    %rdx,%rax
    6a6e:	48 39 45 f8          	cmp    %rax,-0x8(%rbp)
    6a72:	7f 11                	jg     6a85 <safe_lshift_func_int64_t_s_s+0x4e>
    6a74:	8b 45 f4             	mov    -0xc(%rbp),%eax
    6a77:	48 8b 55 f8          	mov    -0x8(%rbp),%rdx
    6a7b:	89 c1                	mov    %eax,%ecx
    6a7d:	48 d3 e2             	shl    %cl,%rdx
    6a80:	48 89 d0             	mov    %rdx,%rax
    6a83:	eb 04                	jmp    6a89 <safe_lshift_func_int64_t_s_s+0x52>
    6a85:	48 8b 45 f8          	mov    -0x8(%rbp),%rax
    6a89:	5d                   	pop    %rbp
    6a8a:	c3                   	retq   

0000000000006a8b <safe_lshift_func_int64_t_s_u>:
    6a8b:	f3 0f 1e fa          	endbr64 
    6a8f:	55                   	push   %rbp
    6a90:	48 89 e5             	mov    %rsp,%rbp
    6a93:	48 89 7d f8          	mov    %rdi,-0x8(%rbp)
    6a97:	89 75 f4             	mov    %esi,-0xc(%rbp)
    6a9a:	48 83 7d f8 00       	cmpq   $0x0,-0x8(%rbp)
    6a9f:	78 32                	js     6ad3 <safe_lshift_func_int64_t_s_u+0x48>
    6aa1:	83 7d f4 1f          	cmpl   $0x1f,-0xc(%rbp)
    6aa5:	77 2c                	ja     6ad3 <safe_lshift_func_int64_t_s_u+0x48>
    6aa7:	8b 45 f4             	mov    -0xc(%rbp),%eax
    6aaa:	48 ba ff ff ff ff ff 	movabs $0x7fffffffffffffff,%rdx
    6ab1:	ff ff 7f 
    6ab4:	89 c1                	mov    %eax,%ecx
    6ab6:	48 d3 fa             	sar    %cl,%rdx
    6ab9:	48 89 d0             	mov    %rdx,%rax
    6abc:	48 39 45 f8          	cmp    %rax,-0x8(%rbp)
    6ac0:	7f 11                	jg     6ad3 <safe_lshift_func_int64_t_s_u+0x48>
    6ac2:	8b 45 f4             	mov    -0xc(%rbp),%eax
    6ac5:	48 8b 55 f8          	mov    -0x8(%rbp),%rdx
    6ac9:	89 c1                	mov    %eax,%ecx
    6acb:	48 d3 e2             	shl    %cl,%rdx
    6ace:	48 89 d0             	mov    %rdx,%rax
    6ad1:	eb 04                	jmp    6ad7 <safe_lshift_func_int64_t_s_u+0x4c>
    6ad3:	48 8b 45 f8          	mov    -0x8(%rbp),%rax
    6ad7:	5d                   	pop    %rbp
    6ad8:	c3                   	retq   

0000000000006ad9 <safe_rshift_func_int64_t_s_s>:
    6ad9:	f3 0f 1e fa          	endbr64 
    6add:	55                   	push   %rbp
    6ade:	48 89 e5             	mov    %rsp,%rbp
    6ae1:	48 89 7d f8          	mov    %rdi,-0x8(%rbp)
    6ae5:	89 75 f4             	mov    %esi,-0xc(%rbp)
    6ae8:	48 83 7d f8 00       	cmpq   $0x0,-0x8(%rbp)
    6aed:	78 1d                	js     6b0c <safe_rshift_func_int64_t_s_s+0x33>
    6aef:	83 7d f4 00          	cmpl   $0x0,-0xc(%rbp)
    6af3:	78 17                	js     6b0c <safe_rshift_func_int64_t_s_s+0x33>
    6af5:	83 7d f4 1f          	cmpl   $0x1f,-0xc(%rbp)
    6af9:	7f 11                	jg     6b0c <safe_rshift_func_int64_t_s_s+0x33>
    6afb:	8b 45 f4             	mov    -0xc(%rbp),%eax
    6afe:	48 8b 55 f8          	mov    -0x8(%rbp),%rdx
    6b02:	89 c1                	mov    %eax,%ecx
    6b04:	48 d3 fa             	sar    %cl,%rdx
    6b07:	48 89 d0             	mov    %rdx,%rax
    6b0a:	eb 04                	jmp    6b10 <safe_rshift_func_int64_t_s_s+0x37>
    6b0c:	48 8b 45 f8          	mov    -0x8(%rbp),%rax
    6b10:	5d                   	pop    %rbp
    6b11:	c3                   	retq   

0000000000006b12 <safe_rshift_func_int64_t_s_u>:
    6b12:	f3 0f 1e fa          	endbr64 
    6b16:	55                   	push   %rbp
    6b17:	48 89 e5             	mov    %rsp,%rbp
    6b1a:	48 89 7d f8          	mov    %rdi,-0x8(%rbp)
    6b1e:	89 75 f4             	mov    %esi,-0xc(%rbp)
    6b21:	48 83 7d f8 00       	cmpq   $0x0,-0x8(%rbp)
    6b26:	78 17                	js     6b3f <safe_rshift_func_int64_t_s_u+0x2d>
    6b28:	83 7d f4 1f          	cmpl   $0x1f,-0xc(%rbp)
    6b2c:	77 11                	ja     6b3f <safe_rshift_func_int64_t_s_u+0x2d>
    6b2e:	8b 45 f4             	mov    -0xc(%rbp),%eax
    6b31:	48 8b 55 f8          	mov    -0x8(%rbp),%rdx
    6b35:	89 c1                	mov    %eax,%ecx
    6b37:	48 d3 fa             	sar    %cl,%rdx
    6b3a:	48 89 d0             	mov    %rdx,%rax
    6b3d:	eb 04                	jmp    6b43 <safe_rshift_func_int64_t_s_u+0x31>
    6b3f:	48 8b 45 f8          	mov    -0x8(%rbp),%rax
    6b43:	5d                   	pop    %rbp
    6b44:	c3                   	retq   

0000000000006b45 <safe_unary_minus_func_uint8_t_u>:
    6b45:	f3 0f 1e fa          	endbr64 
    6b49:	55                   	push   %rbp
    6b4a:	48 89 e5             	mov    %rsp,%rbp
    6b4d:	89 f8                	mov    %edi,%eax
    6b4f:	88 45 fc             	mov    %al,-0x4(%rbp)
    6b52:	0f b6 45 fc          	movzbl -0x4(%rbp),%eax
    6b56:	f7 d8                	neg    %eax
    6b58:	5d                   	pop    %rbp
    6b59:	c3                   	retq   

0000000000006b5a <safe_add_func_uint8_t_u_u>:
    6b5a:	f3 0f 1e fa          	endbr64 
    6b5e:	55                   	push   %rbp
    6b5f:	48 89 e5             	mov    %rsp,%rbp
    6b62:	89 fa                	mov    %edi,%edx
    6b64:	89 f0                	mov    %esi,%eax
    6b66:	88 55 fc             	mov    %dl,-0x4(%rbp)
    6b69:	88 45 f8             	mov    %al,-0x8(%rbp)
    6b6c:	0f b6 55 fc          	movzbl -0x4(%rbp),%edx
    6b70:	0f b6 45 f8          	movzbl -0x8(%rbp),%eax
    6b74:	01 d0                	add    %edx,%eax
    6b76:	5d                   	pop    %rbp
    6b77:	c3                   	retq   

0000000000006b78 <safe_sub_func_uint8_t_u_u>:
    6b78:	f3 0f 1e fa          	endbr64 
    6b7c:	55                   	push   %rbp
    6b7d:	48 89 e5             	mov    %rsp,%rbp
    6b80:	89 fa                	mov    %edi,%edx
    6b82:	89 f0                	mov    %esi,%eax
    6b84:	88 55 fc             	mov    %dl,-0x4(%rbp)
    6b87:	88 45 f8             	mov    %al,-0x8(%rbp)
    6b8a:	0f b6 45 fc          	movzbl -0x4(%rbp),%eax
    6b8e:	2a 45 f8             	sub    -0x8(%rbp),%al
    6b91:	5d                   	pop    %rbp
    6b92:	c3                   	retq   

0000000000006b93 <safe_mul_func_uint8_t_u_u>:
    6b93:	f3 0f 1e fa          	endbr64 
    6b97:	55                   	push   %rbp
    6b98:	48 89 e5             	mov    %rsp,%rbp
    6b9b:	89 fa                	mov    %edi,%edx
    6b9d:	89 f0                	mov    %esi,%eax
    6b9f:	88 55 fc             	mov    %dl,-0x4(%rbp)
    6ba2:	88 45 f8             	mov    %al,-0x8(%rbp)
    6ba5:	0f b6 45 fc          	movzbl -0x4(%rbp),%eax
    6ba9:	f6 65 f8             	mulb   -0x8(%rbp)
    6bac:	5d                   	pop    %rbp
    6bad:	c3                   	retq   

0000000000006bae <safe_mod_func_uint8_t_u_u>:
    6bae:	f3 0f 1e fa          	endbr64 
    6bb2:	55                   	push   %rbp
    6bb3:	48 89 e5             	mov    %rsp,%rbp
    6bb6:	89 fa                	mov    %edi,%edx
    6bb8:	89 f0                	mov    %esi,%eax
    6bba:	88 55 fc             	mov    %dl,-0x4(%rbp)
    6bbd:	88 45 f8             	mov    %al,-0x8(%rbp)
    6bc0:	80 7d f8 00          	cmpb   $0x0,-0x8(%rbp)
    6bc4:	74 0f                	je     6bd5 <safe_mod_func_uint8_t_u_u+0x27>
    6bc6:	0f b6 45 fc          	movzbl -0x4(%rbp),%eax
    6bca:	0f b6 c0             	movzbl %al,%eax
    6bcd:	f6 75 f8             	divb   -0x8(%rbp)
    6bd0:	0f b6 c4             	movzbl %ah,%eax
    6bd3:	eb 04                	jmp    6bd9 <safe_mod_func_uint8_t_u_u+0x2b>
    6bd5:	0f b6 45 fc          	movzbl -0x4(%rbp),%eax
    6bd9:	5d                   	pop    %rbp
    6bda:	c3                   	retq   

0000000000006bdb <safe_div_func_uint8_t_u_u>:
    6bdb:	f3 0f 1e fa          	endbr64 
    6bdf:	55                   	push   %rbp
    6be0:	48 89 e5             	mov    %rsp,%rbp
    6be3:	89 fa                	mov    %edi,%edx
    6be5:	89 f0                	mov    %esi,%eax
    6be7:	88 55 fc             	mov    %dl,-0x4(%rbp)
    6bea:	88 45 f8             	mov    %al,-0x8(%rbp)
    6bed:	80 7d f8 00          	cmpb   $0x0,-0x8(%rbp)
    6bf1:	74 0c                	je     6bff <safe_div_func_uint8_t_u_u+0x24>
    6bf3:	0f b6 45 fc          	movzbl -0x4(%rbp),%eax
    6bf7:	0f b6 c0             	movzbl %al,%eax
    6bfa:	f6 75 f8             	divb   -0x8(%rbp)
    6bfd:	eb 04                	jmp    6c03 <safe_div_func_uint8_t_u_u+0x28>
    6bff:	0f b6 45 fc          	movzbl -0x4(%rbp),%eax
    6c03:	5d                   	pop    %rbp
    6c04:	c3                   	retq   

0000000000006c05 <safe_lshift_func_uint8_t_u_s>:
    6c05:	f3 0f 1e fa          	endbr64 
    6c09:	55                   	push   %rbp
    6c0a:	48 89 e5             	mov    %rsp,%rbp
    6c0d:	89 f8                	mov    %edi,%eax
    6c0f:	89 75 f8             	mov    %esi,-0x8(%rbp)
    6c12:	88 45 fc             	mov    %al,-0x4(%rbp)
    6c15:	83 7d f8 00          	cmpl   $0x0,-0x8(%rbp)
    6c19:	78 2b                	js     6c46 <safe_lshift_func_uint8_t_u_s+0x41>
    6c1b:	83 7d f8 1f          	cmpl   $0x1f,-0x8(%rbp)
    6c1f:	7f 25                	jg     6c46 <safe_lshift_func_uint8_t_u_s+0x41>
    6c21:	0f b6 55 fc          	movzbl -0x4(%rbp),%edx
    6c25:	8b 45 f8             	mov    -0x8(%rbp),%eax
    6c28:	be ff 00 00 00       	mov    $0xff,%esi
    6c2d:	89 c1                	mov    %eax,%ecx
    6c2f:	d3 fe                	sar    %cl,%esi
    6c31:	89 f0                	mov    %esi,%eax
    6c33:	39 c2                	cmp    %eax,%edx
    6c35:	7f 0f                	jg     6c46 <safe_lshift_func_uint8_t_u_s+0x41>
    6c37:	0f b6 55 fc          	movzbl -0x4(%rbp),%edx
    6c3b:	8b 45 f8             	mov    -0x8(%rbp),%eax
    6c3e:	89 c1                	mov    %eax,%ecx
    6c40:	d3 e2                	shl    %cl,%edx
    6c42:	89 d0                	mov    %edx,%eax
    6c44:	eb 04                	jmp    6c4a <safe_lshift_func_uint8_t_u_s+0x45>
    6c46:	0f b6 45 fc          	movzbl -0x4(%rbp),%eax
    6c4a:	5d                   	pop    %rbp
    6c4b:	c3                   	retq   

0000000000006c4c <safe_lshift_func_uint8_t_u_u>:
    6c4c:	f3 0f 1e fa          	endbr64 
    6c50:	55                   	push   %rbp
    6c51:	48 89 e5             	mov    %rsp,%rbp
    6c54:	89 f8                	mov    %edi,%eax
    6c56:	89 75 f8             	mov    %esi,-0x8(%rbp)
    6c59:	88 45 fc             	mov    %al,-0x4(%rbp)
    6c5c:	83 7d f8 1f          	cmpl   $0x1f,-0x8(%rbp)
    6c60:	77 25                	ja     6c87 <safe_lshift_func_uint8_t_u_u+0x3b>
    6c62:	0f b6 55 fc          	movzbl -0x4(%rbp),%edx
    6c66:	8b 45 f8             	mov    -0x8(%rbp),%eax
    6c69:	be ff 00 00 00       	mov    $0xff,%esi
    6c6e:	89 c1                	mov    %eax,%ecx
    6c70:	d3 fe                	sar    %cl,%esi
    6c72:	89 f0                	mov    %esi,%eax
    6c74:	39 c2                	cmp    %eax,%edx
    6c76:	7f 0f                	jg     6c87 <safe_lshift_func_uint8_t_u_u+0x3b>
    6c78:	0f b6 55 fc          	movzbl -0x4(%rbp),%edx
    6c7c:	8b 45 f8             	mov    -0x8(%rbp),%eax
    6c7f:	89 c1                	mov    %eax,%ecx
    6c81:	d3 e2                	shl    %cl,%edx
    6c83:	89 d0                	mov    %edx,%eax
    6c85:	eb 04                	jmp    6c8b <safe_lshift_func_uint8_t_u_u+0x3f>
    6c87:	0f b6 45 fc          	movzbl -0x4(%rbp),%eax
    6c8b:	5d                   	pop    %rbp
    6c8c:	c3                   	retq   

0000000000006c8d <safe_rshift_func_uint8_t_u_s>:
    6c8d:	f3 0f 1e fa          	endbr64 
    6c91:	55                   	push   %rbp
    6c92:	48 89 e5             	mov    %rsp,%rbp
    6c95:	89 f8                	mov    %edi,%eax
    6c97:	89 75 f8             	mov    %esi,-0x8(%rbp)
    6c9a:	88 45 fc             	mov    %al,-0x4(%rbp)
    6c9d:	83 7d f8 00          	cmpl   $0x0,-0x8(%rbp)
    6ca1:	78 15                	js     6cb8 <safe_rshift_func_uint8_t_u_s+0x2b>
    6ca3:	83 7d f8 1f          	cmpl   $0x1f,-0x8(%rbp)
    6ca7:	7f 0f                	jg     6cb8 <safe_rshift_func_uint8_t_u_s+0x2b>
    6ca9:	0f b6 55 fc          	movzbl -0x4(%rbp),%edx
    6cad:	8b 45 f8             	mov    -0x8(%rbp),%eax
    6cb0:	89 c1                	mov    %eax,%ecx
    6cb2:	d3 fa                	sar    %cl,%edx
    6cb4:	89 d0                	mov    %edx,%eax
    6cb6:	eb 04                	jmp    6cbc <safe_rshift_func_uint8_t_u_s+0x2f>
    6cb8:	0f b6 45 fc          	movzbl -0x4(%rbp),%eax
    6cbc:	5d                   	pop    %rbp
    6cbd:	c3                   	retq   

0000000000006cbe <safe_rshift_func_uint8_t_u_u>:
    6cbe:	f3 0f 1e fa          	endbr64 
    6cc2:	55                   	push   %rbp
    6cc3:	48 89 e5             	mov    %rsp,%rbp
    6cc6:	89 f8                	mov    %edi,%eax
    6cc8:	89 75 f8             	mov    %esi,-0x8(%rbp)
    6ccb:	88 45 fc             	mov    %al,-0x4(%rbp)
    6cce:	83 7d f8 1f          	cmpl   $0x1f,-0x8(%rbp)
    6cd2:	77 0f                	ja     6ce3 <safe_rshift_func_uint8_t_u_u+0x25>
    6cd4:	0f b6 55 fc          	movzbl -0x4(%rbp),%edx
    6cd8:	8b 45 f8             	mov    -0x8(%rbp),%eax
    6cdb:	89 c1                	mov    %eax,%ecx
    6cdd:	d3 fa                	sar    %cl,%edx
    6cdf:	89 d0                	mov    %edx,%eax
    6ce1:	eb 04                	jmp    6ce7 <safe_rshift_func_uint8_t_u_u+0x29>
    6ce3:	0f b6 45 fc          	movzbl -0x4(%rbp),%eax
    6ce7:	5d                   	pop    %rbp
    6ce8:	c3                   	retq   

0000000000006ce9 <safe_unary_minus_func_uint16_t_u>:
    6ce9:	f3 0f 1e fa          	endbr64 
    6ced:	55                   	push   %rbp
    6cee:	48 89 e5             	mov    %rsp,%rbp
    6cf1:	89 f8                	mov    %edi,%eax
    6cf3:	66 89 45 fc          	mov    %ax,-0x4(%rbp)
    6cf7:	0f b7 45 fc          	movzwl -0x4(%rbp),%eax
    6cfb:	f7 d8                	neg    %eax
    6cfd:	5d                   	pop    %rbp
    6cfe:	c3                   	retq   

0000000000006cff <safe_add_func_uint16_t_u_u>:
    6cff:	f3 0f 1e fa          	endbr64 
    6d03:	55                   	push   %rbp
    6d04:	48 89 e5             	mov    %rsp,%rbp
    6d07:	89 fa                	mov    %edi,%edx
    6d09:	89 f0                	mov    %esi,%eax
    6d0b:	66 89 55 fc          	mov    %dx,-0x4(%rbp)
    6d0f:	66 89 45 f8          	mov    %ax,-0x8(%rbp)
    6d13:	0f b7 55 fc          	movzwl -0x4(%rbp),%edx
    6d17:	0f b7 45 f8          	movzwl -0x8(%rbp),%eax
    6d1b:	01 d0                	add    %edx,%eax
    6d1d:	5d                   	pop    %rbp
    6d1e:	c3                   	retq   

0000000000006d1f <safe_sub_func_uint16_t_u_u>:
    6d1f:	f3 0f 1e fa          	endbr64 
    6d23:	55                   	push   %rbp
    6d24:	48 89 e5             	mov    %rsp,%rbp
    6d27:	89 fa                	mov    %edi,%edx
    6d29:	89 f0                	mov    %esi,%eax
    6d2b:	66 89 55 fc          	mov    %dx,-0x4(%rbp)
    6d2f:	66 89 45 f8          	mov    %ax,-0x8(%rbp)
    6d33:	0f b7 45 fc          	movzwl -0x4(%rbp),%eax
    6d37:	66 2b 45 f8          	sub    -0x8(%rbp),%ax
    6d3b:	5d                   	pop    %rbp
    6d3c:	c3                   	retq   

0000000000006d3d <safe_mul_func_uint16_t_u_u>:
    6d3d:	f3 0f 1e fa          	endbr64 
    6d41:	55                   	push   %rbp
    6d42:	48 89 e5             	mov    %rsp,%rbp
    6d45:	89 fa                	mov    %edi,%edx
    6d47:	89 f0                	mov    %esi,%eax
    6d49:	66 89 55 fc          	mov    %dx,-0x4(%rbp)
    6d4d:	66 89 45 f8          	mov    %ax,-0x8(%rbp)
    6d51:	0f b7 45 fc          	movzwl -0x4(%rbp),%eax
    6d55:	66 0f af 45 f8       	imul   -0x8(%rbp),%ax
    6d5a:	5d                   	pop    %rbp
    6d5b:	c3                   	retq   

0000000000006d5c <safe_mod_func_uint16_t_u_u>:
    6d5c:	f3 0f 1e fa          	endbr64 
    6d60:	55                   	push   %rbp
    6d61:	48 89 e5             	mov    %rsp,%rbp
    6d64:	89 fa                	mov    %edi,%edx
    6d66:	89 f0                	mov    %esi,%eax
    6d68:	66 89 55 fc          	mov    %dx,-0x4(%rbp)
    6d6c:	66 89 45 f8          	mov    %ax,-0x8(%rbp)
    6d70:	66 83 7d f8 00       	cmpw   $0x0,-0x8(%rbp)
    6d75:	74 11                	je     6d88 <safe_mod_func_uint16_t_u_u+0x2c>
    6d77:	0f b7 45 fc          	movzwl -0x4(%rbp),%eax
    6d7b:	ba 00 00 00 00       	mov    $0x0,%edx
    6d80:	66 f7 75 f8          	divw   -0x8(%rbp)
    6d84:	89 d0                	mov    %edx,%eax
    6d86:	eb 04                	jmp    6d8c <safe_mod_func_uint16_t_u_u+0x30>
    6d88:	0f b7 45 fc          	movzwl -0x4(%rbp),%eax
    6d8c:	5d                   	pop    %rbp
    6d8d:	c3                   	retq   

0000000000006d8e <safe_div_func_uint16_t_u_u>:
    6d8e:	f3 0f 1e fa          	endbr64 
    6d92:	55                   	push   %rbp
    6d93:	48 89 e5             	mov    %rsp,%rbp
    6d96:	89 fa                	mov    %edi,%edx
    6d98:	89 f0                	mov    %esi,%eax
    6d9a:	66 89 55 fc          	mov    %dx,-0x4(%rbp)
    6d9e:	66 89 45 f8          	mov    %ax,-0x8(%rbp)
    6da2:	66 83 7d f8 00       	cmpw   $0x0,-0x8(%rbp)
    6da7:	74 0f                	je     6db8 <safe_div_func_uint16_t_u_u+0x2a>
    6da9:	0f b7 45 fc          	movzwl -0x4(%rbp),%eax
    6dad:	ba 00 00 00 00       	mov    $0x0,%edx
    6db2:	66 f7 75 f8          	divw   -0x8(%rbp)
    6db6:	eb 04                	jmp    6dbc <safe_div_func_uint16_t_u_u+0x2e>
    6db8:	0f b7 45 fc          	movzwl -0x4(%rbp),%eax
    6dbc:	5d                   	pop    %rbp
    6dbd:	c3                   	retq   

0000000000006dbe <safe_lshift_func_uint16_t_u_s>:
    6dbe:	f3 0f 1e fa          	endbr64 
    6dc2:	55                   	push   %rbp
    6dc3:	48 89 e5             	mov    %rsp,%rbp
    6dc6:	89 f8                	mov    %edi,%eax
    6dc8:	89 75 f8             	mov    %esi,-0x8(%rbp)
    6dcb:	66 89 45 fc          	mov    %ax,-0x4(%rbp)
    6dcf:	83 7d f8 00          	cmpl   $0x0,-0x8(%rbp)
    6dd3:	78 2b                	js     6e00 <safe_lshift_func_uint16_t_u_s+0x42>
    6dd5:	83 7d f8 1f          	cmpl   $0x1f,-0x8(%rbp)
    6dd9:	7f 25                	jg     6e00 <safe_lshift_func_uint16_t_u_s+0x42>
    6ddb:	0f b7 55 fc          	movzwl -0x4(%rbp),%edx
    6ddf:	8b 45 f8             	mov    -0x8(%rbp),%eax
    6de2:	be ff ff 00 00       	mov    $0xffff,%esi
    6de7:	89 c1                	mov    %eax,%ecx
    6de9:	d3 fe                	sar    %cl,%esi
    6deb:	89 f0                	mov    %esi,%eax
    6ded:	39 c2                	cmp    %eax,%edx
    6def:	7f 0f                	jg     6e00 <safe_lshift_func_uint16_t_u_s+0x42>
    6df1:	0f b7 55 fc          	movzwl -0x4(%rbp),%edx
    6df5:	8b 45 f8             	mov    -0x8(%rbp),%eax
    6df8:	89 c1                	mov    %eax,%ecx
    6dfa:	d3 e2                	shl    %cl,%edx
    6dfc:	89 d0                	mov    %edx,%eax
    6dfe:	eb 04                	jmp    6e04 <safe_lshift_func_uint16_t_u_s+0x46>
    6e00:	0f b7 45 fc          	movzwl -0x4(%rbp),%eax
    6e04:	5d                   	pop    %rbp
    6e05:	c3                   	retq   

0000000000006e06 <safe_lshift_func_uint16_t_u_u>:
    6e06:	f3 0f 1e fa          	endbr64 
    6e0a:	55                   	push   %rbp
    6e0b:	48 89 e5             	mov    %rsp,%rbp
    6e0e:	89 f8                	mov    %edi,%eax
    6e10:	89 75 f8             	mov    %esi,-0x8(%rbp)
    6e13:	66 89 45 fc          	mov    %ax,-0x4(%rbp)
    6e17:	83 7d f8 1f          	cmpl   $0x1f,-0x8(%rbp)
    6e1b:	77 25                	ja     6e42 <safe_lshift_func_uint16_t_u_u+0x3c>
    6e1d:	0f b7 55 fc          	movzwl -0x4(%rbp),%edx
    6e21:	8b 45 f8             	mov    -0x8(%rbp),%eax
    6e24:	be ff ff 00 00       	mov    $0xffff,%esi
    6e29:	89 c1                	mov    %eax,%ecx
    6e2b:	d3 fe                	sar    %cl,%esi
    6e2d:	89 f0                	mov    %esi,%eax
    6e2f:	39 c2                	cmp    %eax,%edx
    6e31:	7f 0f                	jg     6e42 <safe_lshift_func_uint16_t_u_u+0x3c>
    6e33:	0f b7 55 fc          	movzwl -0x4(%rbp),%edx
    6e37:	8b 45 f8             	mov    -0x8(%rbp),%eax
    6e3a:	89 c1                	mov    %eax,%ecx
    6e3c:	d3 e2                	shl    %cl,%edx
    6e3e:	89 d0                	mov    %edx,%eax
    6e40:	eb 04                	jmp    6e46 <safe_lshift_func_uint16_t_u_u+0x40>
    6e42:	0f b7 45 fc          	movzwl -0x4(%rbp),%eax
    6e46:	5d                   	pop    %rbp
    6e47:	c3                   	retq   

0000000000006e48 <safe_rshift_func_uint16_t_u_s>:
    6e48:	f3 0f 1e fa          	endbr64 
    6e4c:	55                   	push   %rbp
    6e4d:	48 89 e5             	mov    %rsp,%rbp
    6e50:	89 f8                	mov    %edi,%eax
    6e52:	89 75 f8             	mov    %esi,-0x8(%rbp)
    6e55:	66 89 45 fc          	mov    %ax,-0x4(%rbp)
    6e59:	83 7d f8 00          	cmpl   $0x0,-0x8(%rbp)
    6e5d:	78 15                	js     6e74 <safe_rshift_func_uint16_t_u_s+0x2c>
    6e5f:	83 7d f8 1f          	cmpl   $0x1f,-0x8(%rbp)
    6e63:	7f 0f                	jg     6e74 <safe_rshift_func_uint16_t_u_s+0x2c>
    6e65:	0f b7 55 fc          	movzwl -0x4(%rbp),%edx
    6e69:	8b 45 f8             	mov    -0x8(%rbp),%eax
    6e6c:	89 c1                	mov    %eax,%ecx
    6e6e:	d3 fa                	sar    %cl,%edx
    6e70:	89 d0                	mov    %edx,%eax
    6e72:	eb 04                	jmp    6e78 <safe_rshift_func_uint16_t_u_s+0x30>
    6e74:	0f b7 45 fc          	movzwl -0x4(%rbp),%eax
    6e78:	5d                   	pop    %rbp
    6e79:	c3                   	retq   

0000000000006e7a <safe_rshift_func_uint16_t_u_u>:
    6e7a:	f3 0f 1e fa          	endbr64 
    6e7e:	55                   	push   %rbp
    6e7f:	48 89 e5             	mov    %rsp,%rbp
    6e82:	89 f8                	mov    %edi,%eax
    6e84:	89 75 f8             	mov    %esi,-0x8(%rbp)
    6e87:	66 89 45 fc          	mov    %ax,-0x4(%rbp)
    6e8b:	83 7d f8 1f          	cmpl   $0x1f,-0x8(%rbp)
    6e8f:	77 0f                	ja     6ea0 <safe_rshift_func_uint16_t_u_u+0x26>
    6e91:	0f b7 55 fc          	movzwl -0x4(%rbp),%edx
    6e95:	8b 45 f8             	mov    -0x8(%rbp),%eax
    6e98:	89 c1                	mov    %eax,%ecx
    6e9a:	d3 fa                	sar    %cl,%edx
    6e9c:	89 d0                	mov    %edx,%eax
    6e9e:	eb 04                	jmp    6ea4 <safe_rshift_func_uint16_t_u_u+0x2a>
    6ea0:	0f b7 45 fc          	movzwl -0x4(%rbp),%eax
    6ea4:	5d                   	pop    %rbp
    6ea5:	c3                   	retq   

0000000000006ea6 <safe_unary_minus_func_uint32_t_u>:
    6ea6:	f3 0f 1e fa          	endbr64 
    6eaa:	55                   	push   %rbp
    6eab:	48 89 e5             	mov    %rsp,%rbp
    6eae:	89 7d fc             	mov    %edi,-0x4(%rbp)
    6eb1:	8b 45 fc             	mov    -0x4(%rbp),%eax
    6eb4:	f7 d8                	neg    %eax
    6eb6:	5d                   	pop    %rbp
    6eb7:	c3                   	retq   

0000000000006eb8 <safe_add_func_uint32_t_u_u>:
    6eb8:	f3 0f 1e fa          	endbr64 
    6ebc:	55                   	push   %rbp
    6ebd:	48 89 e5             	mov    %rsp,%rbp
    6ec0:	89 7d fc             	mov    %edi,-0x4(%rbp)
    6ec3:	89 75 f8             	mov    %esi,-0x8(%rbp)
    6ec6:	8b 55 fc             	mov    -0x4(%rbp),%edx
    6ec9:	8b 45 f8             	mov    -0x8(%rbp),%eax
    6ecc:	01 d0                	add    %edx,%eax
    6ece:	5d                   	pop    %rbp
    6ecf:	c3                   	retq   

0000000000006ed0 <safe_sub_func_uint32_t_u_u>:
    6ed0:	f3 0f 1e fa          	endbr64 
    6ed4:	55                   	push   %rbp
    6ed5:	48 89 e5             	mov    %rsp,%rbp
    6ed8:	89 7d fc             	mov    %edi,-0x4(%rbp)
    6edb:	89 75 f8             	mov    %esi,-0x8(%rbp)
    6ede:	8b 45 fc             	mov    -0x4(%rbp),%eax
    6ee1:	2b 45 f8             	sub    -0x8(%rbp),%eax
    6ee4:	5d                   	pop    %rbp
    6ee5:	c3                   	retq   

0000000000006ee6 <safe_mul_func_uint32_t_u_u>:
    6ee6:	f3 0f 1e fa          	endbr64 
    6eea:	55                   	push   %rbp
    6eeb:	48 89 e5             	mov    %rsp,%rbp
    6eee:	89 7d fc             	mov    %edi,-0x4(%rbp)
    6ef1:	89 75 f8             	mov    %esi,-0x8(%rbp)
    6ef4:	8b 45 fc             	mov    -0x4(%rbp),%eax
    6ef7:	0f af 45 f8          	imul   -0x8(%rbp),%eax
    6efb:	5d                   	pop    %rbp
    6efc:	c3                   	retq   

0000000000006efd <safe_mod_func_uint32_t_u_u>:
    6efd:	f3 0f 1e fa          	endbr64 
    6f01:	55                   	push   %rbp
    6f02:	48 89 e5             	mov    %rsp,%rbp
    6f05:	89 7d fc             	mov    %edi,-0x4(%rbp)
    6f08:	89 75 f8             	mov    %esi,-0x8(%rbp)
    6f0b:	83 7d f8 00          	cmpl   $0x0,-0x8(%rbp)
    6f0f:	74 0f                	je     6f20 <safe_mod_func_uint32_t_u_u+0x23>
    6f11:	8b 45 fc             	mov    -0x4(%rbp),%eax
    6f14:	ba 00 00 00 00       	mov    $0x0,%edx
    6f19:	f7 75 f8             	divl   -0x8(%rbp)
    6f1c:	89 d0                	mov    %edx,%eax
    6f1e:	eb 03                	jmp    6f23 <safe_mod_func_uint32_t_u_u+0x26>
    6f20:	8b 45 fc             	mov    -0x4(%rbp),%eax
    6f23:	5d                   	pop    %rbp
    6f24:	c3                   	retq   

0000000000006f25 <safe_div_func_uint32_t_u_u>:
    6f25:	f3 0f 1e fa          	endbr64 
    6f29:	55                   	push   %rbp
    6f2a:	48 89 e5             	mov    %rsp,%rbp
    6f2d:	89 7d fc             	mov    %edi,-0x4(%rbp)
    6f30:	89 75 f8             	mov    %esi,-0x8(%rbp)
    6f33:	83 7d f8 00          	cmpl   $0x0,-0x8(%rbp)
    6f37:	74 0d                	je     6f46 <safe_div_func_uint32_t_u_u+0x21>
    6f39:	8b 45 fc             	mov    -0x4(%rbp),%eax
    6f3c:	ba 00 00 00 00       	mov    $0x0,%edx
    6f41:	f7 75 f8             	divl   -0x8(%rbp)
    6f44:	eb 03                	jmp    6f49 <safe_div_func_uint32_t_u_u+0x24>
    6f46:	8b 45 fc             	mov    -0x4(%rbp),%eax
    6f49:	5d                   	pop    %rbp
    6f4a:	c3                   	retq   

0000000000006f4b <safe_lshift_func_uint32_t_u_s>:
    6f4b:	f3 0f 1e fa          	endbr64 
    6f4f:	55                   	push   %rbp
    6f50:	48 89 e5             	mov    %rsp,%rbp
    6f53:	89 7d fc             	mov    %edi,-0x4(%rbp)
    6f56:	89 75 f8             	mov    %esi,-0x8(%rbp)
    6f59:	83 7d f8 00          	cmpl   $0x0,-0x8(%rbp)
    6f5d:	78 27                	js     6f86 <safe_lshift_func_uint32_t_u_s+0x3b>
    6f5f:	83 7d f8 1f          	cmpl   $0x1f,-0x8(%rbp)
    6f63:	7f 21                	jg     6f86 <safe_lshift_func_uint32_t_u_s+0x3b>
    6f65:	8b 45 f8             	mov    -0x8(%rbp),%eax
    6f68:	ba ff ff ff ff       	mov    $0xffffffff,%edx
    6f6d:	89 c1                	mov    %eax,%ecx
    6f6f:	d3 ea                	shr    %cl,%edx
    6f71:	89 d0                	mov    %edx,%eax
    6f73:	39 45 fc             	cmp    %eax,-0x4(%rbp)
    6f76:	77 0e                	ja     6f86 <safe_lshift_func_uint32_t_u_s+0x3b>
    6f78:	8b 45 f8             	mov    -0x8(%rbp),%eax
    6f7b:	8b 55 fc             	mov    -0x4(%rbp),%edx
    6f7e:	89 c1                	mov    %eax,%ecx
    6f80:	d3 e2                	shl    %cl,%edx
    6f82:	89 d0                	mov    %edx,%eax
    6f84:	eb 03                	jmp    6f89 <safe_lshift_func_uint32_t_u_s+0x3e>
    6f86:	8b 45 fc             	mov    -0x4(%rbp),%eax
    6f89:	5d                   	pop    %rbp
    6f8a:	c3                   	retq   

0000000000006f8b <safe_lshift_func_uint32_t_u_u>:
    6f8b:	f3 0f 1e fa          	endbr64 
    6f8f:	55                   	push   %rbp
    6f90:	48 89 e5             	mov    %rsp,%rbp
    6f93:	89 7d fc             	mov    %edi,-0x4(%rbp)
    6f96:	89 75 f8             	mov    %esi,-0x8(%rbp)
    6f99:	83 7d f8 1f          	cmpl   $0x1f,-0x8(%rbp)
    6f9d:	77 21                	ja     6fc0 <safe_lshift_func_uint32_t_u_u+0x35>
    6f9f:	8b 45 f8             	mov    -0x8(%rbp),%eax
    6fa2:	ba ff ff ff ff       	mov    $0xffffffff,%edx
    6fa7:	89 c1                	mov    %eax,%ecx
    6fa9:	d3 ea                	shr    %cl,%edx
    6fab:	89 d0                	mov    %edx,%eax
    6fad:	39 45 fc             	cmp    %eax,-0x4(%rbp)
    6fb0:	77 0e                	ja     6fc0 <safe_lshift_func_uint32_t_u_u+0x35>
    6fb2:	8b 45 f8             	mov    -0x8(%rbp),%eax
    6fb5:	8b 55 fc             	mov    -0x4(%rbp),%edx
    6fb8:	89 c1                	mov    %eax,%ecx
    6fba:	d3 e2                	shl    %cl,%edx
    6fbc:	89 d0                	mov    %edx,%eax
    6fbe:	eb 03                	jmp    6fc3 <safe_lshift_func_uint32_t_u_u+0x38>
    6fc0:	8b 45 fc             	mov    -0x4(%rbp),%eax
    6fc3:	5d                   	pop    %rbp
    6fc4:	c3                   	retq   

0000000000006fc5 <safe_rshift_func_uint32_t_u_s>:
    6fc5:	f3 0f 1e fa          	endbr64 
    6fc9:	55                   	push   %rbp
    6fca:	48 89 e5             	mov    %rsp,%rbp
    6fcd:	89 7d fc             	mov    %edi,-0x4(%rbp)
    6fd0:	89 75 f8             	mov    %esi,-0x8(%rbp)
    6fd3:	83 7d f8 00          	cmpl   $0x0,-0x8(%rbp)
    6fd7:	78 14                	js     6fed <safe_rshift_func_uint32_t_u_s+0x28>
    6fd9:	83 7d f8 1f          	cmpl   $0x1f,-0x8(%rbp)
    6fdd:	7f 0e                	jg     6fed <safe_rshift_func_uint32_t_u_s+0x28>
    6fdf:	8b 45 f8             	mov    -0x8(%rbp),%eax
    6fe2:	8b 55 fc             	mov    -0x4(%rbp),%edx
    6fe5:	89 c1                	mov    %eax,%ecx
    6fe7:	d3 ea                	shr    %cl,%edx
    6fe9:	89 d0                	mov    %edx,%eax
    6feb:	eb 03                	jmp    6ff0 <safe_rshift_func_uint32_t_u_s+0x2b>
    6fed:	8b 45 fc             	mov    -0x4(%rbp),%eax
    6ff0:	5d                   	pop    %rbp
    6ff1:	c3                   	retq   

0000000000006ff2 <safe_rshift_func_uint32_t_u_u>:
    6ff2:	f3 0f 1e fa          	endbr64 
    6ff6:	55                   	push   %rbp
    6ff7:	48 89 e5             	mov    %rsp,%rbp
    6ffa:	89 7d fc             	mov    %edi,-0x4(%rbp)
    6ffd:	89 75 f8             	mov    %esi,-0x8(%rbp)
    7000:	83 7d f8 1f          	cmpl   $0x1f,-0x8(%rbp)
    7004:	77 0e                	ja     7014 <safe_rshift_func_uint32_t_u_u+0x22>
    7006:	8b 45 f8             	mov    -0x8(%rbp),%eax
    7009:	8b 55 fc             	mov    -0x4(%rbp),%edx
    700c:	89 c1                	mov    %eax,%ecx
    700e:	d3 ea                	shr    %cl,%edx
    7010:	89 d0                	mov    %edx,%eax
    7012:	eb 03                	jmp    7017 <safe_rshift_func_uint32_t_u_u+0x25>
    7014:	8b 45 fc             	mov    -0x4(%rbp),%eax
    7017:	5d                   	pop    %rbp
    7018:	c3                   	retq   

0000000000007019 <safe_unary_minus_func_uint64_t_u>:
    7019:	f3 0f 1e fa          	endbr64 
    701d:	55                   	push   %rbp
    701e:	48 89 e5             	mov    %rsp,%rbp
    7021:	48 89 7d f8          	mov    %rdi,-0x8(%rbp)
    7025:	48 8b 45 f8          	mov    -0x8(%rbp),%rax
    7029:	48 f7 d8             	neg    %rax
    702c:	5d                   	pop    %rbp
    702d:	c3                   	retq   

000000000000702e <safe_add_func_uint64_t_u_u>:
    702e:	f3 0f 1e fa          	endbr64 
    7032:	55                   	push   %rbp
    7033:	48 89 e5             	mov    %rsp,%rbp
    7036:	48 89 7d f8          	mov    %rdi,-0x8(%rbp)
    703a:	48 89 75 f0          	mov    %rsi,-0x10(%rbp)
    703e:	48 8b 55 f8          	mov    -0x8(%rbp),%rdx
    7042:	48 8b 45 f0          	mov    -0x10(%rbp),%rax
    7046:	48 01 d0             	add    %rdx,%rax
    7049:	5d                   	pop    %rbp
    704a:	c3                   	retq   

000000000000704b <safe_sub_func_uint64_t_u_u>:
    704b:	f3 0f 1e fa          	endbr64 
    704f:	55                   	push   %rbp
    7050:	48 89 e5             	mov    %rsp,%rbp
    7053:	48 89 7d f8          	mov    %rdi,-0x8(%rbp)
    7057:	48 89 75 f0          	mov    %rsi,-0x10(%rbp)
    705b:	48 8b 45 f8          	mov    -0x8(%rbp),%rax
    705f:	48 2b 45 f0          	sub    -0x10(%rbp),%rax
    7063:	5d                   	pop    %rbp
    7064:	c3                   	retq   

0000000000007065 <safe_mul_func_uint64_t_u_u>:
    7065:	f3 0f 1e fa          	endbr64 
    7069:	55                   	push   %rbp
    706a:	48 89 e5             	mov    %rsp,%rbp
    706d:	48 89 7d f8          	mov    %rdi,-0x8(%rbp)
    7071:	48 89 75 f0          	mov    %rsi,-0x10(%rbp)
    7075:	48 8b 45 f8          	mov    -0x8(%rbp),%rax
    7079:	48 0f af 45 f0       	imul   -0x10(%rbp),%rax
    707e:	5d                   	pop    %rbp
    707f:	c3                   	retq   

0000000000007080 <safe_mod_func_uint64_t_u_u>:
    7080:	f3 0f 1e fa          	endbr64 
    7084:	55                   	push   %rbp
    7085:	48 89 e5             	mov    %rsp,%rbp
    7088:	48 89 7d f8          	mov    %rdi,-0x8(%rbp)
    708c:	48 89 75 f0          	mov    %rsi,-0x10(%rbp)
    7090:	48 83 7d f0 00       	cmpq   $0x0,-0x10(%rbp)
    7095:	74 12                	je     70a9 <safe_mod_func_uint64_t_u_u+0x29>
    7097:	48 8b 45 f8          	mov    -0x8(%rbp),%rax
    709b:	ba 00 00 00 00       	mov    $0x0,%edx
    70a0:	48 f7 75 f0          	divq   -0x10(%rbp)
    70a4:	48 89 d0             	mov    %rdx,%rax
    70a7:	eb 04                	jmp    70ad <safe_mod_func_uint64_t_u_u+0x2d>
    70a9:	48 8b 45 f8          	mov    -0x8(%rbp),%rax
    70ad:	5d                   	pop    %rbp
    70ae:	c3                   	retq   

00000000000070af <safe_div_func_uint64_t_u_u>:
    70af:	f3 0f 1e fa          	endbr64 
    70b3:	55                   	push   %rbp
    70b4:	48 89 e5             	mov    %rsp,%rbp
    70b7:	48 89 7d f8          	mov    %rdi,-0x8(%rbp)
    70bb:	48 89 75 f0          	mov    %rsi,-0x10(%rbp)
    70bf:	48 83 7d f0 00       	cmpq   $0x0,-0x10(%rbp)
    70c4:	74 0f                	je     70d5 <safe_div_func_uint64_t_u_u+0x26>
    70c6:	48 8b 45 f8          	mov    -0x8(%rbp),%rax
    70ca:	ba 00 00 00 00       	mov    $0x0,%edx
    70cf:	48 f7 75 f0          	divq   -0x10(%rbp)
    70d3:	eb 04                	jmp    70d9 <safe_div_func_uint64_t_u_u+0x2a>
    70d5:	48 8b 45 f8          	mov    -0x8(%rbp),%rax
    70d9:	5d                   	pop    %rbp
    70da:	c3                   	retq   

00000000000070db <safe_lshift_func_uint64_t_u_s>:
    70db:	f3 0f 1e fa          	endbr64 
    70df:	55                   	push   %rbp
    70e0:	48 89 e5             	mov    %rsp,%rbp
    70e3:	48 89 7d f8          	mov    %rdi,-0x8(%rbp)
    70e7:	89 75 f4             	mov    %esi,-0xc(%rbp)
    70ea:	83 7d f4 00          	cmpl   $0x0,-0xc(%rbp)
    70ee:	78 2f                	js     711f <safe_lshift_func_uint64_t_u_s+0x44>
    70f0:	83 7d f4 1f          	cmpl   $0x1f,-0xc(%rbp)
    70f4:	7f 29                	jg     711f <safe_lshift_func_uint64_t_u_s+0x44>
    70f6:	8b 45 f4             	mov    -0xc(%rbp),%eax
    70f9:	48 c7 c2 ff ff ff ff 	mov    $0xffffffffffffffff,%rdx
    7100:	89 c1                	mov    %eax,%ecx
    7102:	48 d3 ea             	shr    %cl,%rdx
    7105:	48 89 d0             	mov    %rdx,%rax
    7108:	48 39 45 f8          	cmp    %rax,-0x8(%rbp)
    710c:	77 11                	ja     711f <safe_lshift_func_uint64_t_u_s+0x44>
    710e:	8b 45 f4             	mov    -0xc(%rbp),%eax
    7111:	48 8b 55 f8          	mov    -0x8(%rbp),%rdx
    7115:	89 c1                	mov    %eax,%ecx
    7117:	48 d3 e2             	shl    %cl,%rdx
    711a:	48 89 d0             	mov    %rdx,%rax
    711d:	eb 04                	jmp    7123 <safe_lshift_func_uint64_t_u_s+0x48>
    711f:	48 8b 45 f8          	mov    -0x8(%rbp),%rax
    7123:	5d                   	pop    %rbp
    7124:	c3                   	retq   

0000000000007125 <safe_lshift_func_uint64_t_u_u>:
    7125:	f3 0f 1e fa          	endbr64 
    7129:	55                   	push   %rbp
    712a:	48 89 e5             	mov    %rsp,%rbp
    712d:	48 89 7d f8          	mov    %rdi,-0x8(%rbp)
    7131:	89 75 f4             	mov    %esi,-0xc(%rbp)
    7134:	83 7d f4 1f          	cmpl   $0x1f,-0xc(%rbp)
    7138:	77 29                	ja     7163 <safe_lshift_func_uint64_t_u_u+0x3e>
    713a:	8b 45 f4             	mov    -0xc(%rbp),%eax
    713d:	48 c7 c2 ff ff ff ff 	mov    $0xffffffffffffffff,%rdx
    7144:	89 c1                	mov    %eax,%ecx
    7146:	48 d3 ea             	shr    %cl,%rdx
    7149:	48 89 d0             	mov    %rdx,%rax
    714c:	48 39 45 f8          	cmp    %rax,-0x8(%rbp)
    7150:	77 11                	ja     7163 <safe_lshift_func_uint64_t_u_u+0x3e>
    7152:	8b 45 f4             	mov    -0xc(%rbp),%eax
    7155:	48 8b 55 f8          	mov    -0x8(%rbp),%rdx
    7159:	89 c1                	mov    %eax,%ecx
    715b:	48 d3 e2             	shl    %cl,%rdx
    715e:	48 89 d0             	mov    %rdx,%rax
    7161:	eb 04                	jmp    7167 <safe_lshift_func_uint64_t_u_u+0x42>
    7163:	48 8b 45 f8          	mov    -0x8(%rbp),%rax
    7167:	5d                   	pop    %rbp
    7168:	c3                   	retq   

0000000000007169 <safe_rshift_func_uint64_t_u_s>:
    7169:	f3 0f 1e fa          	endbr64 
    716d:	55                   	push   %rbp
    716e:	48 89 e5             	mov    %rsp,%rbp
    7171:	48 89 7d f8          	mov    %rdi,-0x8(%rbp)
    7175:	89 75 f4             	mov    %esi,-0xc(%rbp)
    7178:	83 7d f4 00          	cmpl   $0x0,-0xc(%rbp)
    717c:	78 17                	js     7195 <safe_rshift_func_uint64_t_u_s+0x2c>
    717e:	83 7d f4 1f          	cmpl   $0x1f,-0xc(%rbp)
    7182:	7f 11                	jg     7195 <safe_rshift_func_uint64_t_u_s+0x2c>
    7184:	8b 45 f4             	mov    -0xc(%rbp),%eax
    7187:	48 8b 55 f8          	mov    -0x8(%rbp),%rdx
    718b:	89 c1                	mov    %eax,%ecx
    718d:	48 d3 ea             	shr    %cl,%rdx
    7190:	48 89 d0             	mov    %rdx,%rax
    7193:	eb 04                	jmp    7199 <safe_rshift_func_uint64_t_u_s+0x30>
    7195:	48 8b 45 f8          	mov    -0x8(%rbp),%rax
    7199:	5d                   	pop    %rbp
    719a:	c3                   	retq   

000000000000719b <safe_rshift_func_uint64_t_u_u>:
    719b:	f3 0f 1e fa          	endbr64 
    719f:	55                   	push   %rbp
    71a0:	48 89 e5             	mov    %rsp,%rbp
    71a3:	48 89 7d f8          	mov    %rdi,-0x8(%rbp)
    71a7:	89 75 f4             	mov    %esi,-0xc(%rbp)
    71aa:	83 7d f4 1f          	cmpl   $0x1f,-0xc(%rbp)
    71ae:	77 11                	ja     71c1 <safe_rshift_func_uint64_t_u_u+0x26>
    71b0:	8b 45 f4             	mov    -0xc(%rbp),%eax
    71b3:	48 8b 55 f8          	mov    -0x8(%rbp),%rdx
    71b7:	89 c1                	mov    %eax,%ecx
    71b9:	48 d3 ea             	shr    %cl,%rdx
    71bc:	48 89 d0             	mov    %rdx,%rax
    71bf:	eb 04                	jmp    71c5 <safe_rshift_func_uint64_t_u_u+0x2a>
    71c1:	48 8b 45 f8          	mov    -0x8(%rbp),%rax
    71c5:	5d                   	pop    %rbp
    71c6:	c3                   	retq   

00000000000071c7 <safe_add_func_float_f_f>:
    71c7:	f3 0f 1e fa          	endbr64 
    71cb:	55                   	push   %rbp
    71cc:	48 89 e5             	mov    %rsp,%rbp
    71cf:	f3 0f 11 45 fc       	movss  %xmm0,-0x4(%rbp)
    71d4:	f3 0f 11 4d f8       	movss  %xmm1,-0x8(%rbp)
    71d9:	f3 0f 10 4d fc       	movss  -0x4(%rbp),%xmm1
    71de:	f3 0f 10 05 da 89 00 	movss  0x89da(%rip),%xmm0        # fbc0 <g_66+0xb6c>
    71e5:	00 
    71e6:	f3 0f 59 c8          	mulss  %xmm0,%xmm1
    71ea:	f3 0f 10 55 f8       	movss  -0x8(%rbp),%xmm2
    71ef:	f3 0f 10 05 c9 89 00 	movss  0x89c9(%rip),%xmm0        # fbc0 <g_66+0xb6c>
    71f6:	00 
    71f7:	f3 0f 59 c2          	mulss  %xmm2,%xmm0
    71fb:	f3 0f 58 c1          	addss  %xmm1,%xmm0
    71ff:	f3 0f 10 0d c9 89 00 	movss  0x89c9(%rip),%xmm1        # fbd0 <g_66+0xb7c>
    7206:	00 
    7207:	0f 54 c1             	andps  %xmm1,%xmm0
    720a:	0f 2f 05 cf 89 00 00 	comiss 0x89cf(%rip),%xmm0        # fbe0 <g_66+0xb8c>
    7211:	76 07                	jbe    721a <safe_add_func_float_f_f+0x53>
    7213:	f3 0f 10 45 fc       	movss  -0x4(%rbp),%xmm0
    7218:	eb 0a                	jmp    7224 <safe_add_func_float_f_f+0x5d>
    721a:	f3 0f 10 45 fc       	movss  -0x4(%rbp),%xmm0
    721f:	f3 0f 58 45 f8       	addss  -0x8(%rbp),%xmm0
    7224:	5d                   	pop    %rbp
    7225:	c3                   	retq   

0000000000007226 <safe_sub_func_float_f_f>:
    7226:	f3 0f 1e fa          	endbr64 
    722a:	55                   	push   %rbp
    722b:	48 89 e5             	mov    %rsp,%rbp
    722e:	f3 0f 11 45 fc       	movss  %xmm0,-0x4(%rbp)
    7233:	f3 0f 11 4d f8       	movss  %xmm1,-0x8(%rbp)
    7238:	f3 0f 10 4d fc       	movss  -0x4(%rbp),%xmm1
    723d:	f3 0f 10 05 7b 89 00 	movss  0x897b(%rip),%xmm0        # fbc0 <g_66+0xb6c>
    7244:	00 
    7245:	f3 0f 59 c1          	mulss  %xmm1,%xmm0
    7249:	f3 0f 10 55 f8       	movss  -0x8(%rbp),%xmm2
    724e:	f3 0f 10 0d 6a 89 00 	movss  0x896a(%rip),%xmm1        # fbc0 <g_66+0xb6c>
    7255:	00 
    7256:	f3 0f 59 ca          	mulss  %xmm2,%xmm1
    725a:	f3 0f 5c c1          	subss  %xmm1,%xmm0
    725e:	f3 0f 10 0d 6a 89 00 	movss  0x896a(%rip),%xmm1        # fbd0 <g_66+0xb7c>
    7265:	00 
    7266:	0f 54 c1             	andps  %xmm1,%xmm0
    7269:	0f 2f 05 70 89 00 00 	comiss 0x8970(%rip),%xmm0        # fbe0 <g_66+0xb8c>
    7270:	76 07                	jbe    7279 <safe_sub_func_float_f_f+0x53>
    7272:	f3 0f 10 45 fc       	movss  -0x4(%rbp),%xmm0
    7277:	eb 0a                	jmp    7283 <safe_sub_func_float_f_f+0x5d>
    7279:	f3 0f 10 45 fc       	movss  -0x4(%rbp),%xmm0
    727e:	f3 0f 5c 45 f8       	subss  -0x8(%rbp),%xmm0
    7283:	5d                   	pop    %rbp
    7284:	c3                   	retq   

0000000000007285 <safe_mul_func_float_f_f>:
    7285:	f3 0f 1e fa          	endbr64 
    7289:	55                   	push   %rbp
    728a:	48 89 e5             	mov    %rsp,%rbp
    728d:	f3 0f 11 45 fc       	movss  %xmm0,-0x4(%rbp)
    7292:	f3 0f 11 4d f8       	movss  %xmm1,-0x8(%rbp)
    7297:	f3 0f 10 4d fc       	movss  -0x4(%rbp),%xmm1
    729c:	f3 0f 10 05 40 89 00 	movss  0x8940(%rip),%xmm0        # fbe4 <g_66+0xb90>
    72a3:	00 
    72a4:	f3 0f 59 c8          	mulss  %xmm0,%xmm1
    72a8:	f3 0f 10 55 f8       	movss  -0x8(%rbp),%xmm2
    72ad:	f3 0f 10 05 33 89 00 	movss  0x8933(%rip),%xmm0        # fbe8 <g_66+0xb94>
    72b4:	00 
    72b5:	f3 0f 59 c2          	mulss  %xmm2,%xmm0
    72b9:	f3 0f 59 c1          	mulss  %xmm1,%xmm0
    72bd:	f3 0f 10 0d 0b 89 00 	movss  0x890b(%rip),%xmm1        # fbd0 <g_66+0xb7c>
    72c4:	00 
    72c5:	0f 54 c1             	andps  %xmm1,%xmm0
    72c8:	0f 2f 05 1d 89 00 00 	comiss 0x891d(%rip),%xmm0        # fbec <g_66+0xb98>
    72cf:	76 07                	jbe    72d8 <safe_mul_func_float_f_f+0x53>
    72d1:	f3 0f 10 45 fc       	movss  -0x4(%rbp),%xmm0
    72d6:	eb 0a                	jmp    72e2 <safe_mul_func_float_f_f+0x5d>
    72d8:	f3 0f 10 45 fc       	movss  -0x4(%rbp),%xmm0
    72dd:	f3 0f 59 45 f8       	mulss  -0x8(%rbp),%xmm0
    72e2:	5d                   	pop    %rbp
    72e3:	c3                   	retq   

00000000000072e4 <safe_div_func_float_f_f>:
    72e4:	f3 0f 1e fa          	endbr64 
    72e8:	55                   	push   %rbp
    72e9:	48 89 e5             	mov    %rsp,%rbp
    72ec:	f3 0f 11 45 fc       	movss  %xmm0,-0x4(%rbp)
    72f1:	f3 0f 11 4d f8       	movss  %xmm1,-0x8(%rbp)
    72f6:	f3 0f 10 45 f8       	movss  -0x8(%rbp),%xmm0
    72fb:	f3 0f 10 0d cd 88 00 	movss  0x88cd(%rip),%xmm1        # fbd0 <g_66+0xb7c>
    7302:	00 
    7303:	0f 54 c8             	andps  %xmm0,%xmm1
    7306:	f3 0f 10 05 e2 88 00 	movss  0x88e2(%rip),%xmm0        # fbf0 <g_66+0xb9c>
    730d:	00 
    730e:	0f 2f c1             	comiss %xmm1,%xmm0
    7311:	0f 97 c0             	seta   %al
    7314:	83 f0 01             	xor    $0x1,%eax
    7317:	84 c0                	test   %al,%al
    7319:	75 56                	jne    7371 <safe_div_func_float_f_f+0x8d>
    731b:	66 0f ef c0          	pxor   %xmm0,%xmm0
    731f:	0f 2e 45 f8          	ucomiss -0x8(%rbp),%xmm0
    7323:	7a 0a                	jp     732f <safe_div_func_float_f_f+0x4b>
    7325:	66 0f ef c0          	pxor   %xmm0,%xmm0
    7329:	0f 2e 45 f8          	ucomiss -0x8(%rbp),%xmm0
    732d:	74 4e                	je     737d <safe_div_func_float_f_f+0x99>
    732f:	f3 0f 10 4d fc       	movss  -0x4(%rbp),%xmm1
    7334:	f3 0f 10 05 b8 88 00 	movss  0x88b8(%rip),%xmm0        # fbf4 <g_66+0xba0>
    733b:	00 
    733c:	f3 0f 59 c1          	mulss  %xmm1,%xmm0
    7340:	f3 0f 10 55 f8       	movss  -0x8(%rbp),%xmm2
    7345:	f3 0f 10 0d ab 88 00 	movss  0x88ab(%rip),%xmm1        # fbf8 <g_66+0xba4>
    734c:	00 
    734d:	f3 0f 59 ca          	mulss  %xmm2,%xmm1
    7351:	f3 0f 5e c1          	divss  %xmm1,%xmm0
    7355:	f3 0f 10 0d 73 88 00 	movss  0x8873(%rip),%xmm1        # fbd0 <g_66+0xb7c>
    735c:	00 
    735d:	0f 54 c1             	andps  %xmm1,%xmm0
    7360:	0f 2f 05 95 88 00 00 	comiss 0x8895(%rip),%xmm0        # fbfc <g_66+0xba8>
    7367:	0f 97 c0             	seta   %al
    736a:	83 f0 01             	xor    $0x1,%eax
    736d:	84 c0                	test   %al,%al
    736f:	74 0c                	je     737d <safe_div_func_float_f_f+0x99>
    7371:	f3 0f 10 45 fc       	movss  -0x4(%rbp),%xmm0
    7376:	f3 0f 5e 45 f8       	divss  -0x8(%rbp),%xmm0
    737b:	eb 05                	jmp    7382 <safe_div_func_float_f_f+0x9e>
    737d:	f3 0f 10 45 fc       	movss  -0x4(%rbp),%xmm0
    7382:	5d                   	pop    %rbp
    7383:	c3                   	retq   

0000000000007384 <safe_add_func_double_f_f>:
    7384:	f3 0f 1e fa          	endbr64 
    7388:	55                   	push   %rbp
    7389:	48 89 e5             	mov    %rsp,%rbp
    738c:	f2 0f 11 45 f8       	movsd  %xmm0,-0x8(%rbp)
    7391:	f2 0f 11 4d f0       	movsd  %xmm1,-0x10(%rbp)
    7396:	f2 0f 10 4d f8       	movsd  -0x8(%rbp),%xmm1
    739b:	f2 0f 10 05 5d 88 00 	movsd  0x885d(%rip),%xmm0        # fc00 <g_66+0xbac>
    73a2:	00 
    73a3:	f2 0f 59 c8          	mulsd  %xmm0,%xmm1
    73a7:	f2 0f 10 55 f0       	movsd  -0x10(%rbp),%xmm2
    73ac:	f2 0f 10 05 4c 88 00 	movsd  0x884c(%rip),%xmm0        # fc00 <g_66+0xbac>
    73b3:	00 
    73b4:	f2 0f 59 c2          	mulsd  %xmm2,%xmm0
    73b8:	f2 0f 58 c1          	addsd  %xmm1,%xmm0
    73bc:	f3 0f 7e 0d 4c 88 00 	movq   0x884c(%rip),%xmm1        # fc10 <g_66+0xbbc>
    73c3:	00 
    73c4:	66 0f 54 c1          	andpd  %xmm1,%xmm0
    73c8:	66 0f 2f 05 50 88 00 	comisd 0x8850(%rip),%xmm0        # fc20 <g_66+0xbcc>
    73cf:	00 
    73d0:	76 07                	jbe    73d9 <safe_add_func_double_f_f+0x55>
    73d2:	f2 0f 10 45 f8       	movsd  -0x8(%rbp),%xmm0
    73d7:	eb 0a                	jmp    73e3 <safe_add_func_double_f_f+0x5f>
    73d9:	f2 0f 10 45 f8       	movsd  -0x8(%rbp),%xmm0
    73de:	f2 0f 58 45 f0       	addsd  -0x10(%rbp),%xmm0
    73e3:	5d                   	pop    %rbp
    73e4:	c3                   	retq   

00000000000073e5 <safe_sub_func_double_f_f>:
    73e5:	f3 0f 1e fa          	endbr64 
    73e9:	55                   	push   %rbp
    73ea:	48 89 e5             	mov    %rsp,%rbp
    73ed:	f2 0f 11 45 f8       	movsd  %xmm0,-0x8(%rbp)
    73f2:	f2 0f 11 4d f0       	movsd  %xmm1,-0x10(%rbp)
    73f7:	f2 0f 10 4d f8       	movsd  -0x8(%rbp),%xmm1
    73fc:	f2 0f 10 05 fc 87 00 	movsd  0x87fc(%rip),%xmm0        # fc00 <g_66+0xbac>
    7403:	00 
    7404:	f2 0f 59 c1          	mulsd  %xmm1,%xmm0
    7408:	f2 0f 10 55 f0       	movsd  -0x10(%rbp),%xmm2
    740d:	f2 0f 10 0d eb 87 00 	movsd  0x87eb(%rip),%xmm1        # fc00 <g_66+0xbac>
    7414:	00 
    7415:	f2 0f 59 ca          	mulsd  %xmm2,%xmm1
    7419:	f2 0f 5c c1          	subsd  %xmm1,%xmm0
    741d:	f3 0f 7e 0d eb 87 00 	movq   0x87eb(%rip),%xmm1        # fc10 <g_66+0xbbc>
    7424:	00 
    7425:	66 0f 54 c1          	andpd  %xmm1,%xmm0
    7429:	66 0f 2f 05 ef 87 00 	comisd 0x87ef(%rip),%xmm0        # fc20 <g_66+0xbcc>
    7430:	00 
    7431:	76 07                	jbe    743a <safe_sub_func_double_f_f+0x55>
    7433:	f2 0f 10 45 f8       	movsd  -0x8(%rbp),%xmm0
    7438:	eb 0a                	jmp    7444 <safe_sub_func_double_f_f+0x5f>
    743a:	f2 0f 10 45 f8       	movsd  -0x8(%rbp),%xmm0
    743f:	f2 0f 5c 45 f0       	subsd  -0x10(%rbp),%xmm0
    7444:	5d                   	pop    %rbp
    7445:	c3                   	retq   

0000000000007446 <safe_mul_func_double_f_f>:
    7446:	f3 0f 1e fa          	endbr64 
    744a:	55                   	push   %rbp
    744b:	48 89 e5             	mov    %rsp,%rbp
    744e:	f2 0f 11 45 f8       	movsd  %xmm0,-0x8(%rbp)
    7453:	f2 0f 11 4d f0       	movsd  %xmm1,-0x10(%rbp)
    7458:	f2 0f 10 4d f8       	movsd  -0x8(%rbp),%xmm1
    745d:	f2 0f 10 05 c3 87 00 	movsd  0x87c3(%rip),%xmm0        # fc28 <g_66+0xbd4>
    7464:	00 
    7465:	f2 0f 59 c8          	mulsd  %xmm0,%xmm1
    7469:	f2 0f 10 55 f0       	movsd  -0x10(%rbp),%xmm2
    746e:	f2 0f 10 05 ba 87 00 	movsd  0x87ba(%rip),%xmm0        # fc30 <g_66+0xbdc>
    7475:	00 
    7476:	f2 0f 59 c2          	mulsd  %xmm2,%xmm0
    747a:	f2 0f 59 c1          	mulsd  %xmm1,%xmm0
    747e:	f3 0f 7e 0d 8a 87 00 	movq   0x878a(%rip),%xmm1        # fc10 <g_66+0xbbc>
    7485:	00 
    7486:	66 0f 54 c1          	andpd  %xmm1,%xmm0
    748a:	66 0f 2f 05 a6 87 00 	comisd 0x87a6(%rip),%xmm0        # fc38 <g_66+0xbe4>
    7491:	00 
    7492:	76 07                	jbe    749b <safe_mul_func_double_f_f+0x55>
    7494:	f2 0f 10 45 f8       	movsd  -0x8(%rbp),%xmm0
    7499:	eb 0a                	jmp    74a5 <safe_mul_func_double_f_f+0x5f>
    749b:	f2 0f 10 45 f8       	movsd  -0x8(%rbp),%xmm0
    74a0:	f2 0f 59 45 f0       	mulsd  -0x10(%rbp),%xmm0
    74a5:	5d                   	pop    %rbp
    74a6:	c3                   	retq   

00000000000074a7 <safe_div_func_double_f_f>:
    74a7:	f3 0f 1e fa          	endbr64 
    74ab:	55                   	push   %rbp
    74ac:	48 89 e5             	mov    %rsp,%rbp
    74af:	f2 0f 11 45 f8       	movsd  %xmm0,-0x8(%rbp)
    74b4:	f2 0f 11 4d f0       	movsd  %xmm1,-0x10(%rbp)
    74b9:	f2 0f 10 45 f0       	movsd  -0x10(%rbp),%xmm0
    74be:	f3 0f 7e 0d 4a 87 00 	movq   0x874a(%rip),%xmm1        # fc10 <g_66+0xbbc>
    74c5:	00 
    74c6:	66 0f 54 c8          	andpd  %xmm0,%xmm1
    74ca:	f2 0f 10 05 6e 87 00 	movsd  0x876e(%rip),%xmm0        # fc40 <g_66+0xbec>
    74d1:	00 
    74d2:	66 0f 2f c1          	comisd %xmm1,%xmm0
    74d6:	0f 97 c0             	seta   %al
    74d9:	83 f0 01             	xor    $0x1,%eax
    74dc:	84 c0                	test   %al,%al
    74de:	75 5a                	jne    753a <safe_div_func_double_f_f+0x93>
    74e0:	66 0f ef c0          	pxor   %xmm0,%xmm0
    74e4:	66 0f 2e 45 f0       	ucomisd -0x10(%rbp),%xmm0
    74e9:	7a 0b                	jp     74f6 <safe_div_func_double_f_f+0x4f>
    74eb:	66 0f ef c0          	pxor   %xmm0,%xmm0
    74ef:	66 0f 2e 45 f0       	ucomisd -0x10(%rbp),%xmm0
    74f4:	74 50                	je     7546 <safe_div_func_double_f_f+0x9f>
    74f6:	f2 0f 10 4d f8       	movsd  -0x8(%rbp),%xmm1
    74fb:	f2 0f 10 05 45 87 00 	movsd  0x8745(%rip),%xmm0        # fc48 <g_66+0xbf4>
    7502:	00 
    7503:	f2 0f 59 c1          	mulsd  %xmm1,%xmm0
    7507:	f2 0f 10 55 f0       	movsd  -0x10(%rbp),%xmm2
    750c:	f2 0f 10 0d 3c 87 00 	movsd  0x873c(%rip),%xmm1        # fc50 <g_66+0xbfc>
    7513:	00 
    7514:	f2 0f 59 ca          	mulsd  %xmm2,%xmm1
    7518:	f2 0f 5e c1          	divsd  %xmm1,%xmm0
    751c:	f3 0f 7e 0d ec 86 00 	movq   0x86ec(%rip),%xmm1        # fc10 <g_66+0xbbc>
    7523:	00 
    7524:	66 0f 54 c1          	andpd  %xmm1,%xmm0
    7528:	66 0f 2f 05 28 87 00 	comisd 0x8728(%rip),%xmm0        # fc58 <g_66+0xc04>
    752f:	00 
    7530:	0f 97 c0             	seta   %al
    7533:	83 f0 01             	xor    $0x1,%eax
    7536:	84 c0                	test   %al,%al
    7538:	74 0c                	je     7546 <safe_div_func_double_f_f+0x9f>
    753a:	f2 0f 10 45 f8       	movsd  -0x8(%rbp),%xmm0
    753f:	f2 0f 5e 45 f0       	divsd  -0x10(%rbp),%xmm0
    7544:	eb 05                	jmp    754b <safe_div_func_double_f_f+0xa4>
    7546:	f2 0f 10 45 f8       	movsd  -0x8(%rbp),%xmm0
    754b:	5d                   	pop    %rbp
    754c:	c3                   	retq   

000000000000754d <safe_convert_func_float_to_int32_t>:
    754d:	f3 0f 1e fa          	endbr64 
    7551:	55                   	push   %rbp
    7552:	48 89 e5             	mov    %rsp,%rbp
    7555:	f3 0f 11 45 fc       	movss  %xmm0,-0x4(%rbp)
    755a:	f3 0f 10 05 fe 86 00 	movss  0x86fe(%rip),%xmm0        # fc60 <g_66+0xc0c>
    7561:	00 
    7562:	0f 2f 45 fc          	comiss -0x4(%rbp),%xmm0
    7566:	0f 93 c0             	setae  %al
    7569:	83 f0 01             	xor    $0x1,%eax
    756c:	84 c0                	test   %al,%al
    756e:	74 21                	je     7591 <safe_convert_func_float_to_int32_t+0x44>
    7570:	f3 0f 10 45 fc       	movss  -0x4(%rbp),%xmm0
    7575:	0f 2f 05 e8 86 00 00 	comiss 0x86e8(%rip),%xmm0        # fc64 <g_66+0xc10>
    757c:	0f 93 c0             	setae  %al
    757f:	83 f0 01             	xor    $0x1,%eax
    7582:	84 c0                	test   %al,%al
    7584:	74 0b                	je     7591 <safe_convert_func_float_to_int32_t+0x44>
    7586:	f3 0f 10 45 fc       	movss  -0x4(%rbp),%xmm0
    758b:	f3 0f 2c c0          	cvttss2si %xmm0,%eax
    758f:	eb 05                	jmp    7596 <safe_convert_func_float_to_int32_t+0x49>
    7591:	b8 ff ff ff 7f       	mov    $0x7fffffff,%eax
    7596:	5d                   	pop    %rbp
    7597:	c3                   	retq   

0000000000007598 <crc32_gentab>:
    7598:	f3 0f 1e fa          	endbr64 
    759c:	55                   	push   %rbp
    759d:	48 89 e5             	mov    %rsp,%rbp
    75a0:	c7 45 fc 20 83 b8 ed 	movl   $0xedb88320,-0x4(%rbp)
    75a7:	c7 45 f4 00 00 00 00 	movl   $0x0,-0xc(%rbp)
    75ae:	eb 51                	jmp    7601 <crc32_gentab+0x69>
    75b0:	8b 45 f4             	mov    -0xc(%rbp),%eax
    75b3:	89 45 f0             	mov    %eax,-0x10(%rbp)
    75b6:	c7 45 f8 08 00 00 00 	movl   $0x8,-0x8(%rbp)
    75bd:	eb 1e                	jmp    75dd <crc32_gentab+0x45>
    75bf:	8b 45 f0             	mov    -0x10(%rbp),%eax
    75c2:	83 e0 01             	and    $0x1,%eax
    75c5:	85 c0                	test   %eax,%eax
    75c7:	74 0d                	je     75d6 <crc32_gentab+0x3e>
    75c9:	8b 45 f0             	mov    -0x10(%rbp),%eax
    75cc:	d1 e8                	shr    %eax
    75ce:	33 45 fc             	xor    -0x4(%rbp),%eax
    75d1:	89 45 f0             	mov    %eax,-0x10(%rbp)
    75d4:	eb 03                	jmp    75d9 <crc32_gentab+0x41>
    75d6:	d1 6d f0             	shrl   -0x10(%rbp)
    75d9:	83 6d f8 01          	subl   $0x1,-0x8(%rbp)
    75dd:	83 7d f8 00          	cmpl   $0x0,-0x8(%rbp)
    75e1:	7f dc                	jg     75bf <crc32_gentab+0x27>
    75e3:	8b 45 f4             	mov    -0xc(%rbp),%eax
    75e6:	48 98                	cltq   
    75e8:	48 8d 0c 85 00 00 00 	lea    0x0(,%rax,4),%rcx
    75ef:	00 
    75f0:	48 8d 15 a9 da 00 00 	lea    0xdaa9(%rip),%rdx        # 150a0 <crc32_tab>
    75f7:	8b 45 f0             	mov    -0x10(%rbp),%eax
    75fa:	89 04 11             	mov    %eax,(%rcx,%rdx,1)
    75fd:	83 45 f4 01          	addl   $0x1,-0xc(%rbp)
    7601:	81 7d f4 ff 00 00 00 	cmpl   $0xff,-0xc(%rbp)
    7608:	7e a6                	jle    75b0 <crc32_gentab+0x18>
    760a:	90                   	nop
    760b:	90                   	nop
    760c:	5d                   	pop    %rbp
    760d:	c3                   	retq   

000000000000760e <crc32_byte>:
    760e:	f3 0f 1e fa          	endbr64 
    7612:	55                   	push   %rbp
    7613:	48 89 e5             	mov    %rsp,%rbp
    7616:	89 f8                	mov    %edi,%eax
    7618:	88 45 fc             	mov    %al,-0x4(%rbp)
    761b:	8b 05 ff b9 00 00    	mov    0xb9ff(%rip),%eax        # 13020 <crc32_context>
    7621:	c1 e8 08             	shr    $0x8,%eax
    7624:	89 c1                	mov    %eax,%ecx
    7626:	0f b6 55 fc          	movzbl -0x4(%rbp),%edx
    762a:	8b 05 f0 b9 00 00    	mov    0xb9f0(%rip),%eax        # 13020 <crc32_context>
    7630:	31 d0                	xor    %edx,%eax
    7632:	0f b6 c0             	movzbl %al,%eax
    7635:	89 c0                	mov    %eax,%eax
    7637:	48 8d 14 85 00 00 00 	lea    0x0(,%rax,4),%rdx
    763e:	00 
    763f:	48 8d 05 5a da 00 00 	lea    0xda5a(%rip),%rax        # 150a0 <crc32_tab>
    7646:	8b 04 02             	mov    (%rdx,%rax,1),%eax
    7649:	31 c8                	xor    %ecx,%eax
    764b:	89 05 cf b9 00 00    	mov    %eax,0xb9cf(%rip)        # 13020 <crc32_context>
    7651:	90                   	nop
    7652:	5d                   	pop    %rbp
    7653:	c3                   	retq   

0000000000007654 <crc32_8bytes>:
    7654:	f3 0f 1e fa          	endbr64 
    7658:	55                   	push   %rbp
    7659:	48 89 e5             	mov    %rsp,%rbp
    765c:	48 83 ec 08          	sub    $0x8,%rsp
    7660:	48 89 7d f8          	mov    %rdi,-0x8(%rbp)
    7664:	48 8b 45 f8          	mov    -0x8(%rbp),%rax
    7668:	0f b6 c0             	movzbl %al,%eax
    766b:	89 c7                	mov    %eax,%edi
    766d:	e8 9c ff ff ff       	callq  760e <crc32_byte>
    7672:	48 8b 45 f8          	mov    -0x8(%rbp),%rax
    7676:	48 c1 e8 08          	shr    $0x8,%rax
    767a:	0f b6 c0             	movzbl %al,%eax
    767d:	89 c7                	mov    %eax,%edi
    767f:	e8 8a ff ff ff       	callq  760e <crc32_byte>
    7684:	48 8b 45 f8          	mov    -0x8(%rbp),%rax
    7688:	48 c1 e8 10          	shr    $0x10,%rax
    768c:	0f b6 c0             	movzbl %al,%eax
    768f:	89 c7                	mov    %eax,%edi
    7691:	e8 78 ff ff ff       	callq  760e <crc32_byte>
    7696:	48 8b 45 f8          	mov    -0x8(%rbp),%rax
    769a:	48 c1 e8 18          	shr    $0x18,%rax
    769e:	0f b6 c0             	movzbl %al,%eax
    76a1:	89 c7                	mov    %eax,%edi
    76a3:	e8 66 ff ff ff       	callq  760e <crc32_byte>
    76a8:	48 8b 45 f8          	mov    -0x8(%rbp),%rax
    76ac:	48 c1 e8 20          	shr    $0x20,%rax
    76b0:	0f b6 c0             	movzbl %al,%eax
    76b3:	89 c7                	mov    %eax,%edi
    76b5:	e8 54 ff ff ff       	callq  760e <crc32_byte>
    76ba:	48 8b 45 f8          	mov    -0x8(%rbp),%rax
    76be:	48 c1 e8 28          	shr    $0x28,%rax
    76c2:	0f b6 c0             	movzbl %al,%eax
    76c5:	89 c7                	mov    %eax,%edi
    76c7:	e8 42 ff ff ff       	callq  760e <crc32_byte>
    76cc:	48 8b 45 f8          	mov    -0x8(%rbp),%rax
    76d0:	48 c1 e8 30          	shr    $0x30,%rax
    76d4:	0f b6 c0             	movzbl %al,%eax
    76d7:	89 c7                	mov    %eax,%edi
    76d9:	e8 30 ff ff ff       	callq  760e <crc32_byte>
    76de:	48 8b 45 f8          	mov    -0x8(%rbp),%rax
    76e2:	48 c1 e8 38          	shr    $0x38,%rax
    76e6:	0f b6 c0             	movzbl %al,%eax
    76e9:	89 c7                	mov    %eax,%edi
    76eb:	e8 1e ff ff ff       	callq  760e <crc32_byte>
    76f0:	90                   	nop
    76f1:	c9                   	leaveq 
    76f2:	c3                   	retq   

00000000000076f3 <transparent_crc>:
    76f3:	f3 0f 1e fa          	endbr64 
    76f7:	55                   	push   %rbp
    76f8:	48 89 e5             	mov    %rsp,%rbp
    76fb:	48 83 ec 20          	sub    $0x20,%rsp
    76ff:	48 89 7d f8          	mov    %rdi,-0x8(%rbp)
    7703:	48 89 75 f0          	mov    %rsi,-0x10(%rbp)
    7707:	89 55 ec             	mov    %edx,-0x14(%rbp)
    770a:	48 8b 45 f8          	mov    -0x8(%rbp),%rax
    770e:	48 89 c7             	mov    %rax,%rdi
    7711:	e8 3e ff ff ff       	callq  7654 <crc32_8bytes>
    7716:	83 7d ec 00          	cmpl   $0x0,-0x14(%rbp)
    771a:	74 22                	je     773e <transparent_crc+0x4b>
    771c:	8b 05 fe b8 00 00    	mov    0xb8fe(%rip),%eax        # 13020 <crc32_context>
    7722:	f7 d0                	not    %eax
    7724:	89 c2                	mov    %eax,%edx
    7726:	48 8b 45 f0          	mov    -0x10(%rbp),%rax
    772a:	48 89 c6             	mov    %rax,%rsi
    772d:	48 8d 3d fc 78 00 00 	lea    0x78fc(%rip),%rdi        # f030 <_IO_stdin_used+0x30>
    7734:	b8 00 00 00 00       	mov    $0x0,%eax
    7739:	e8 42 e9 ff ff       	callq  6080 <printf@plt>
    773e:	90                   	nop
    773f:	c9                   	leaveq 
    7740:	c3                   	retq   

0000000000007741 <transparent_crc_bytes>:
    7741:	f3 0f 1e fa          	endbr64 
    7745:	55                   	push   %rbp
    7746:	48 89 e5             	mov    %rsp,%rbp
    7749:	48 83 ec 30          	sub    $0x30,%rsp
    774d:	48 89 7d e8          	mov    %rdi,-0x18(%rbp)
    7751:	89 75 e4             	mov    %esi,-0x1c(%rbp)
    7754:	48 89 55 d8          	mov    %rdx,-0x28(%rbp)
    7758:	89 4d e0             	mov    %ecx,-0x20(%rbp)
    775b:	c7 45 fc 00 00 00 00 	movl   $0x0,-0x4(%rbp)
    7762:	eb 1e                	jmp    7782 <transparent_crc_bytes+0x41>
    7764:	8b 45 fc             	mov    -0x4(%rbp),%eax
    7767:	48 63 d0             	movslq %eax,%rdx
    776a:	48 8b 45 e8          	mov    -0x18(%rbp),%rax
    776e:	48 01 d0             	add    %rdx,%rax
    7771:	0f b6 00             	movzbl (%rax),%eax
    7774:	0f b6 c0             	movzbl %al,%eax
    7777:	89 c7                	mov    %eax,%edi
    7779:	e8 90 fe ff ff       	callq  760e <crc32_byte>
    777e:	83 45 fc 01          	addl   $0x1,-0x4(%rbp)
    7782:	8b 45 fc             	mov    -0x4(%rbp),%eax
    7785:	3b 45 e4             	cmp    -0x1c(%rbp),%eax
    7788:	7c da                	jl     7764 <transparent_crc_bytes+0x23>
    778a:	83 7d e0 00          	cmpl   $0x0,-0x20(%rbp)
    778e:	74 22                	je     77b2 <transparent_crc_bytes+0x71>
    7790:	8b 05 8a b8 00 00    	mov    0xb88a(%rip),%eax        # 13020 <crc32_context>
    7796:	f7 d0                	not    %eax
    7798:	89 c2                	mov    %eax,%edx
    779a:	48 8b 45 d8          	mov    -0x28(%rbp),%rax
    779e:	48 89 c6             	mov    %rax,%rsi
    77a1:	48 8d 3d 88 78 00 00 	lea    0x7888(%rip),%rdi        # f030 <_IO_stdin_used+0x30>
    77a8:	b8 00 00 00 00       	mov    $0x0,%eax
    77ad:	e8 ce e8 ff ff       	callq  6080 <printf@plt>
    77b2:	90                   	nop
    77b3:	c9                   	leaveq 
    77b4:	c3                   	retq   

00000000000077b5 <func_1>:
    77b5:	f3 0f 1e fa          	endbr64 
    77b9:	55                   	push   %rbp
    77ba:	48 89 e5             	mov    %rsp,%rbp
    77bd:	48 83 ec 10          	sub    $0x10,%rsp
    77c1:	c7 45 f4 ff ff ff ff 	movl   $0xffffffff,-0xc(%rbp)
    77c8:	48 8d 05 b1 b8 00 00 	lea    0xb8b1(%rip),%rax        # 13080 <g_230>
    77cf:	48 89 45 f8          	mov    %rax,-0x8(%rbp)
    77d3:	8b 45 f4             	mov    -0xc(%rbp),%eax
    77d6:	48 89 c7             	mov    %rax,%rdi
    77d9:	e8 0f 00 00 00       	callq  77ed <func_2>
    77de:	48 8b 55 f8          	mov    -0x8(%rbp),%rdx
    77e2:	89 02                	mov    %eax,(%rdx)
    77e4:	48 8b 05 6d b8 00 00 	mov    0xb86d(%rip),%rax        # 13058 <g_220>
    77eb:	c9                   	leaveq 
    77ec:	c3                   	retq   

00000000000077ed <func_2>:
    77ed:	f3 0f 1e fa          	endbr64 
    77f1:	55                   	push   %rbp
    77f2:	48 89 e5             	mov    %rsp,%rbp
    77f5:	41 55                	push   %r13
    77f7:	41 54                	push   %r12
    77f9:	53                   	push   %rbx
    77fa:	48 81 ec 98 06 00 00 	sub    $0x698,%rsp
    7801:	48 89 bd 58 f9 ff ff 	mov    %rdi,-0x6a8(%rbp)
    7808:	64 48 8b 04 25 28 00 	mov    %fs:0x28,%rax
    780f:	00 00 
    7811:	48 89 45 d8          	mov    %rax,-0x28(%rbp)
    7815:	31 c0                	xor    %eax,%eax
    7817:	c6 85 68 f9 ff ff 9a 	movb   $0x9a,-0x698(%rbp)
    781e:	48 8d 05 83 dc 00 00 	lea    0xdc83(%rip),%rax        # 154a8 <g_7>
    7825:	48 89 85 b0 f9 ff ff 	mov    %rax,-0x650(%rbp)
    782c:	48 b8 a7 80 7e 62 a0 	movabs $0xf9031ea0627e80a7,%rax
    7833:	1e 03 f9 
    7836:	48 89 85 d0 f9 ff ff 	mov    %rax,-0x630(%rbp)
    783d:	c7 85 70 f9 ff ff fa 	movl   $0xfffffffa,-0x690(%rbp)
    7844:	ff ff ff 
    7847:	48 8d 85 10 fc ff ff 	lea    -0x3f0(%rbp),%rax
    784e:	48 8d 15 0b 78 00 00 	lea    0x780b(%rip),%rdx        # f060 <g_66+0xc>
    7855:	b9 78 00 00 00       	mov    $0x78,%ecx
    785a:	48 89 c7             	mov    %rax,%rdi
    785d:	48 89 d6             	mov    %rdx,%rsi
    7860:	f3 48 a5             	rep movsq %ds:(%rsi),%es:(%rdi)
    7863:	48 8b 85 b0 f9 ff ff 	mov    -0x650(%rbp),%rax
    786a:	c7 00 01 00 00 00    	movl   $0x1,(%rax)
    7870:	48 8b 85 b0 f9 ff ff 	mov    -0x650(%rbp),%rax
    7877:	c7 00 7d 70 50 59    	movl   $0x5950707d,(%rax)
    787d:	8b 08                	mov    (%rax),%ecx
    787f:	48 8b 05 ba cd 00 00 	mov    0xcdba(%rip),%rax        # 14640 <g_8>
    7886:	8b 10                	mov    (%rax),%edx
    7888:	21 ca                	and    %ecx,%edx
    788a:	89 10                	mov    %edx,(%rax)
    788c:	48 8b 15 ad cd 00 00 	mov    0xcdad(%rip),%rdx        # 14640 <g_8>
    7893:	48 8b 05 a6 cd 00 00 	mov    0xcda6(%rip),%rax        # 14640 <g_8>
    789a:	8b 12                	mov    (%rdx),%edx
    789c:	89 10                	mov    %edx,(%rax)
    789e:	8b 00                	mov    (%rax),%eax
    78a0:	85 c0                	test   %eax,%eax
    78a2:	0f 84 76 0d 00 00    	je     861e <func_2+0xe31>
    78a8:	48 b8 90 4a 7e 30 c4 	movabs $0x5c8100c4307e4a90,%rax
    78af:	00 81 5c 
    78b2:	48 89 85 d8 f9 ff ff 	mov    %rax,-0x628(%rbp)
    78b9:	c7 85 6c f9 ff ff ff 	movl   $0xffffffff,-0x694(%rbp)
    78c0:	ff ff ff 
    78c3:	c6 85 67 f9 ff ff ff 	movb   $0xff,-0x699(%rbp)
    78ca:	c6 85 69 f9 ff ff c4 	movb   $0xc4,-0x697(%rbp)
    78d1:	66 c7 85 6a f9 ff ff 	movw   $0xffff,-0x696(%rbp)
    78d8:	ff ff 
    78da:	48 8b 85 d8 f9 ff ff 	mov    -0x628(%rbp),%rax
    78e1:	89 c2                	mov    %eax,%edx
    78e3:	48 8b 85 58 f9 ff ff 	mov    -0x6a8(%rbp),%rax
    78ea:	0f b7 c0             	movzwl %ax,%eax
    78ed:	89 d6                	mov    %edx,%esi
    78ef:	89 c7                	mov    %eax,%edi
    78f1:	e8 c8 f4 ff ff       	callq  6dbe <safe_lshift_func_uint16_t_u_s>
    78f6:	66 85 c0             	test   %ax,%ax
    78f9:	0f 84 16 0d 00 00    	je     8615 <func_2+0xe28>
    78ff:	c7 85 74 f9 ff ff 00 	movl   $0x0,-0x68c(%rbp)
    7906:	00 00 00 
    7909:	c7 85 80 f9 ff ff fa 	movl   $0xff5452fa,-0x680(%rbp)
    7910:	52 54 ff 
    7913:	c7 85 70 fb ff ff a5 	movl   $0x6d56a5,-0x490(%rbp)
    791a:	56 6d 00 
    791d:	c7 85 74 fb ff ff 93 	movl   $0x4c274a93,-0x48c(%rbp)
    7924:	4a 27 4c 
    7927:	c7 85 78 fb ff ff e0 	movl   $0x82002e0,-0x488(%rbp)
    792e:	02 20 08 
    7931:	c7 85 7c fb ff ff e0 	movl   $0x82002e0,-0x484(%rbp)
    7938:	02 20 08 
    793b:	c7 85 80 fb ff ff 93 	movl   $0x4c274a93,-0x480(%rbp)
    7942:	4a 27 4c 
    7945:	c7 85 84 fb ff ff fa 	movl   $0xfffffffa,-0x47c(%rbp)
    794c:	ff ff ff 
    794f:	c7 85 88 fb ff ff 01 	movl   $0x1,-0x478(%rbp)
    7956:	00 00 00 
    7959:	c7 85 8c fb ff ff 00 	movl   $0x0,-0x474(%rbp)
    7960:	00 00 00 
    7963:	c7 85 90 fb ff ff 00 	movl   $0x0,-0x470(%rbp)
    796a:	00 00 00 
    796d:	c7 85 94 fb ff ff 01 	movl   $0x1,-0x46c(%rbp)
    7974:	00 00 00 
    7977:	c7 85 98 fb ff ff a5 	movl   $0x6d56a5,-0x468(%rbp)
    797e:	56 6d 00 
    7981:	c7 85 9c fb ff ff 93 	movl   $0x4c274a93,-0x464(%rbp)
    7988:	4a 27 4c 
    798b:	c7 85 a0 fb ff ff e0 	movl   $0x82002e0,-0x460(%rbp)
    7992:	02 20 08 
    7995:	c7 85 a4 fb ff ff e0 	movl   $0x82002e0,-0x45c(%rbp)
    799c:	02 20 08 
    799f:	c7 85 a8 fb ff ff 93 	movl   $0x4c274a93,-0x458(%rbp)
    79a6:	4a 27 4c 
    79a9:	c7 85 ac fb ff ff fa 	movl   $0xfffffffa,-0x454(%rbp)
    79b0:	ff ff ff 
    79b3:	c7 85 b0 fb ff ff 01 	movl   $0x1,-0x450(%rbp)
    79ba:	00 00 00 
    79bd:	c7 85 b4 fb ff ff 00 	movl   $0x0,-0x44c(%rbp)
    79c4:	00 00 00 
    79c7:	c7 85 b8 fb ff ff 00 	movl   $0x0,-0x448(%rbp)
    79ce:	00 00 00 
    79d1:	c7 85 bc fb ff ff 01 	movl   $0x1,-0x444(%rbp)
    79d8:	00 00 00 
    79db:	c7 85 c0 fb ff ff a5 	movl   $0x6d56a5,-0x440(%rbp)
    79e2:	56 6d 00 
    79e5:	c7 85 c4 fb ff ff 93 	movl   $0x4c274a93,-0x43c(%rbp)
    79ec:	4a 27 4c 
    79ef:	c7 85 c8 fb ff ff e0 	movl   $0x82002e0,-0x438(%rbp)
    79f6:	02 20 08 
    79f9:	c7 85 cc fb ff ff e0 	movl   $0x82002e0,-0x434(%rbp)
    7a00:	02 20 08 
    7a03:	c7 85 d0 fb ff ff 93 	movl   $0x4c274a93,-0x430(%rbp)
    7a0a:	4a 27 4c 
    7a0d:	c7 85 d4 fb ff ff fa 	movl   $0xfffffffa,-0x42c(%rbp)
    7a14:	ff ff ff 
    7a17:	c7 85 d8 fb ff ff 01 	movl   $0x1,-0x428(%rbp)
    7a1e:	00 00 00 
    7a21:	c7 85 dc fb ff ff 00 	movl   $0x0,-0x424(%rbp)
    7a28:	00 00 00 
    7a2b:	c7 85 e0 fb ff ff 00 	movl   $0x0,-0x420(%rbp)
    7a32:	00 00 00 
    7a35:	c7 85 e4 fb ff ff 01 	movl   $0x1,-0x41c(%rbp)
    7a3c:	00 00 00 
    7a3f:	c7 85 e8 fb ff ff a5 	movl   $0x6d56a5,-0x418(%rbp)
    7a46:	56 6d 00 
    7a49:	c7 85 ec fb ff ff 93 	movl   $0x4c274a93,-0x414(%rbp)
    7a50:	4a 27 4c 
    7a53:	c7 85 f0 fb ff ff e0 	movl   $0x82002e0,-0x410(%rbp)
    7a5a:	02 20 08 
    7a5d:	c7 85 f4 fb ff ff e0 	movl   $0x82002e0,-0x40c(%rbp)
    7a64:	02 20 08 
    7a67:	c7 85 f8 fb ff ff 93 	movl   $0x4c274a93,-0x408(%rbp)
    7a6e:	4a 27 4c 
    7a71:	c7 85 fc fb ff ff fa 	movl   $0xfffffffa,-0x404(%rbp)
    7a78:	ff ff ff 
    7a7b:	c7 85 00 fc ff ff 01 	movl   $0x1,-0x400(%rbp)
    7a82:	00 00 00 
    7a85:	c7 85 04 fc ff ff 00 	movl   $0x0,-0x3fc(%rbp)
    7a8c:	00 00 00 
    7a8f:	c7 85 08 fc ff ff 00 	movl   $0x0,-0x3f8(%rbp)
    7a96:	00 00 00 
    7a99:	c7 85 0c fc ff ff 01 	movl   $0x1,-0x3f4(%rbp)
    7aa0:	00 00 00 
    7aa3:	48 c7 85 e0 f9 ff ff 	movq   $0x0,-0x620(%rbp)
    7aaa:	00 00 00 00 
    7aae:	c7 05 6c b5 00 00 00 	movl   $0x0,0xb56c(%rip)        # 13024 <g_9>
    7ab5:	00 00 00 
    7ab8:	90                   	nop
    7ab9:	8b 05 65 b5 00 00    	mov    0xb565(%rip),%eax        # 13024 <g_9>
    7abf:	83 f8 fa             	cmp    $0xfffffffa,%eax
    7ac2:	0f 8c 79 06 00 00    	jl     8141 <func_2+0x954>
    7ac8:	48 c7 85 b8 f9 ff ff 	movq   $0x0,-0x648(%rbp)
    7acf:	00 00 00 00 
    7ad3:	48 8d 05 ce d9 00 00 	lea    0xd9ce(%rip),%rax        # 154a8 <g_7>
    7ada:	48 89 85 c0 f9 ff ff 	mov    %rax,-0x640(%rbp)
    7ae1:	48 8d 05 c0 d9 00 00 	lea    0xd9c0(%rip),%rax        # 154a8 <g_7>
    7ae8:	48 89 85 90 fa ff ff 	mov    %rax,-0x570(%rbp)
    7aef:	48 8d 05 b2 d9 00 00 	lea    0xd9b2(%rip),%rax        # 154a8 <g_7>
    7af6:	48 89 85 98 fa ff ff 	mov    %rax,-0x568(%rbp)
    7afd:	48 8d 05 a4 d9 00 00 	lea    0xd9a4(%rip),%rax        # 154a8 <g_7>
    7b04:	48 89 85 a0 fa ff ff 	mov    %rax,-0x560(%rbp)
    7b0b:	48 8d 05 96 d9 00 00 	lea    0xd996(%rip),%rax        # 154a8 <g_7>
    7b12:	48 89 85 a8 fa ff ff 	mov    %rax,-0x558(%rbp)
    7b19:	48 8d 05 88 d9 00 00 	lea    0xd988(%rip),%rax        # 154a8 <g_7>
    7b20:	48 89 85 b0 fa ff ff 	mov    %rax,-0x550(%rbp)
    7b27:	48 8d 05 7a d9 00 00 	lea    0xd97a(%rip),%rax        # 154a8 <g_7>
    7b2e:	48 89 85 b8 fa ff ff 	mov    %rax,-0x548(%rbp)
    7b35:	48 8d 05 6c d9 00 00 	lea    0xd96c(%rip),%rax        # 154a8 <g_7>
    7b3c:	48 89 85 c0 fa ff ff 	mov    %rax,-0x540(%rbp)
    7b43:	48 8d 05 5e d9 00 00 	lea    0xd95e(%rip),%rax        # 154a8 <g_7>
    7b4a:	48 89 85 c8 fa ff ff 	mov    %rax,-0x538(%rbp)
    7b51:	48 8d 05 50 d9 00 00 	lea    0xd950(%rip),%rax        # 154a8 <g_7>
    7b58:	48 89 85 d0 fa ff ff 	mov    %rax,-0x530(%rbp)
    7b5f:	48 c7 85 60 fa ff ff 	movq   $0x0,-0x5a0(%rbp)
    7b66:	00 00 00 00 
    7b6a:	48 c7 85 68 fa ff ff 	movq   $0x0,-0x598(%rbp)
    7b71:	00 00 00 00 
    7b75:	48 8d 05 d8 74 00 00 	lea    0x74d8(%rip),%rax        # f054 <g_66>
    7b7c:	48 89 85 70 fa ff ff 	mov    %rax,-0x590(%rbp)
    7b83:	48 c7 85 78 fa ff ff 	movq   $0x0,-0x588(%rbp)
    7b8a:	00 00 00 00 
    7b8e:	48 c7 85 80 fa ff ff 	movq   $0x0,-0x580(%rbp)
    7b95:	00 00 00 00 
    7b99:	48 8d 05 b4 74 00 00 	lea    0x74b4(%rip),%rax        # f054 <g_66>
    7ba0:	48 89 85 88 fa ff ff 	mov    %rax,-0x578(%rbp)
    7ba7:	c7 85 78 f9 ff ff 00 	movl   $0x0,-0x688(%rbp)
    7bae:	00 00 00 
    7bb1:	eb 1a                	jmp    7bcd <func_2+0x3e0>
    7bb3:	8b 85 78 f9 ff ff    	mov    -0x688(%rbp),%eax
    7bb9:	48 98                	cltq   
    7bbb:	c7 84 85 4c fa ff ff 	movl   $0x0,-0x5b4(%rbp,%rax,4)
    7bc2:	00 00 00 00 
    7bc6:	83 85 78 f9 ff ff 01 	addl   $0x1,-0x688(%rbp)
    7bcd:	83 bd 78 f9 ff ff 00 	cmpl   $0x0,-0x688(%rbp)
    7bd4:	7e dd                	jle    7bb3 <func_2+0x3c6>
    7bd6:	8b 05 4c b4 00 00    	mov    0xb44c(%rip),%eax        # 13028 <g_21>
    7bdc:	83 e8 01             	sub    $0x1,%eax
    7bdf:	89 05 43 b4 00 00    	mov    %eax,0xb443(%rip)        # 13028 <g_21>
    7be5:	48 8b 85 b0 f9 ff ff 	mov    -0x650(%rbp),%rax
    7bec:	c7 00 07 00 00 00    	movl   $0x7,(%rax)
    7bf2:	8b 00                	mov    (%rax),%eax
    7bf4:	89 85 80 f9 ff ff    	mov    %eax,-0x680(%rbp)
    7bfa:	8b 05 28 b4 00 00    	mov    0xb428(%rip),%eax        # 13028 <g_21>
    7c00:	8b 05 22 b4 00 00    	mov    0xb422(%rip),%eax        # 13028 <g_21>
    7c06:	8b 15 9c d8 00 00    	mov    0xd89c(%rip),%edx        # 154a8 <g_7>
    7c0c:	39 d0                	cmp    %edx,%eax
    7c0e:	0f 96 c0             	setbe  %al
    7c11:	0f b6 d0             	movzbl %al,%edx
    7c14:	0f b6 85 67 f9 ff ff 	movzbl -0x699(%rbp),%eax
    7c1b:	0f be c0             	movsbl %al,%eax
    7c1e:	31 c2                	xor    %eax,%edx
    7c20:	48 8b 85 c0 fa ff ff 	mov    -0x540(%rbp),%rax
    7c27:	48 85 c0             	test   %rax,%rax
    7c2a:	0f 95 c0             	setne  %al
    7c2d:	0f b6 c0             	movzbl %al,%eax
    7c30:	89 d6                	mov    %edx,%esi
    7c32:	89 c7                	mov    %eax,%edi
    7c34:	e8 fc e6 ff ff       	callq  6335 <safe_rshift_func_int8_t_s_s>
    7c39:	84 c0                	test   %al,%al
    7c3b:	74 11                	je     7c4e <func_2+0x461>
    7c3d:	48 8b 85 b0 f9 ff ff 	mov    -0x650(%rbp),%rax
    7c44:	8b 00                	mov    (%rax),%eax
    7c46:	85 c0                	test   %eax,%eax
    7c48:	0f 84 fa 01 00 00    	je     7e48 <func_2+0x65b>
    7c4e:	48 b8 40 c8 48 a0 20 	movabs $0x9f32f520a048c840,%rax
    7c55:	f5 32 9f 
    7c58:	48 89 85 18 fa ff ff 	mov    %rax,-0x5e8(%rbp)
    7c5f:	c7 85 9c f9 ff ff 44 	movl   $0xcec8e444,-0x664(%rbp)
    7c66:	e4 c8 ce 
    7c69:	c7 85 a0 f9 ff ff fe 	movl   $0xfffffffe,-0x660(%rbp)
    7c70:	ff ff ff 
    7c73:	c7 85 a4 f9 ff ff ff 	movl   $0xffffffff,-0x65c(%rbp)
    7c7a:	ff ff ff 
    7c7d:	c7 85 a8 f9 ff ff 01 	movl   $0x1,-0x658(%rbp)
    7c84:	00 00 00 
    7c87:	c7 85 ac f9 ff ff 84 	movl   $0x1496d184,-0x654(%rbp)
    7c8e:	d1 96 14 
    7c91:	c7 85 7c f9 ff ff 00 	movl   $0x0,-0x684(%rbp)
    7c98:	00 00 00 
    7c9b:	eb 1a                	jmp    7cb7 <func_2+0x4ca>
    7c9d:	8b 85 7c f9 ff ff    	mov    -0x684(%rbp),%eax
    7ca3:	48 98                	cltq   
    7ca5:	c7 84 85 50 fa ff ff 	movl   $0xb3d52d0d,-0x5b0(%rbp,%rax,4)
    7cac:	0d 2d d5 b3 
    7cb0:	83 85 7c f9 ff ff 01 	addl   $0x1,-0x684(%rbp)
    7cb7:	83 bd 7c f9 ff ff 03 	cmpl   $0x3,-0x684(%rbp)
    7cbe:	7e dd                	jle    7c9d <func_2+0x4b0>
    7cc0:	48 8b 85 b0 f9 ff ff 	mov    -0x650(%rbp),%rax
    7cc7:	8b 08                	mov    (%rax),%ecx
    7cc9:	48 8b 85 58 f9 ff ff 	mov    -0x6a8(%rbp),%rax
    7cd0:	48 3b 85 18 fa ff ff 	cmp    -0x5e8(%rbp),%rax
    7cd7:	0f 95 c0             	setne  %al
    7cda:	0f b6 d0             	movzbl %al,%edx
    7cdd:	48 8b 85 b0 f9 ff ff 	mov    -0x650(%rbp),%rax
    7ce4:	31 ca                	xor    %ecx,%edx
    7ce6:	89 10                	mov    %edx,(%rax)
    7ce8:	48 c7 85 58 f9 ff ff 	movq   $0x0,-0x6a8(%rbp)
    7cef:	00 00 00 00 
    7cf3:	e9 3d 01 00 00       	jmpq   7e35 <func_2+0x648>
    7cf8:	48 8d 85 6c f9 ff ff 	lea    -0x694(%rbp),%rax
    7cff:	48 89 85 c8 f9 ff ff 	mov    %rax,-0x638(%rbp)
    7d06:	48 8d 85 c8 f9 ff ff 	lea    -0x638(%rbp),%rax
    7d0d:	48 89 85 20 fa ff ff 	mov    %rax,-0x5e0(%rbp)
    7d14:	48 8d 05 11 b3 00 00 	lea    0xb311(%rip),%rax        # 1302c <g_35>
    7d1b:	48 89 85 28 fa ff ff 	mov    %rax,-0x5d8(%rbp)
    7d22:	48 c7 85 30 fa ff ff 	movq   $0x0,-0x5d0(%rbp)
    7d29:	00 00 00 00 
    7d2d:	48 8d 05 fc b2 00 00 	lea    0xb2fc(%rip),%rax        # 13030 <g_51>
    7d34:	48 89 85 38 fa ff ff 	mov    %rax,-0x5c8(%rbp)
    7d3b:	48 8d 85 67 f9 ff ff 	lea    -0x699(%rbp),%rax
    7d42:	48 89 85 40 fa ff ff 	mov    %rax,-0x5c0(%rbp)
    7d49:	48 8d 85 90 fa ff ff 	lea    -0x570(%rbp),%rax
    7d50:	48 83 c0 30          	add    $0x30,%rax
    7d54:	48 89 85 e0 fa ff ff 	mov    %rax,-0x520(%rbp)
    7d5b:	48 8d 85 b0 f9 ff ff 	lea    -0x650(%rbp),%rax
    7d62:	48 89 85 e8 fa ff ff 	mov    %rax,-0x518(%rbp)
    7d69:	48 8d 85 b8 f9 ff ff 	lea    -0x648(%rbp),%rax
    7d70:	48 89 85 f0 fa ff ff 	mov    %rax,-0x510(%rbp)
    7d77:	48 8d 85 90 fa ff ff 	lea    -0x570(%rbp),%rax
    7d7e:	48 83 c0 30          	add    $0x30,%rax
    7d82:	48 89 85 f8 fa ff ff 	mov    %rax,-0x508(%rbp)
    7d89:	48 8d 85 c0 f9 ff ff 	lea    -0x640(%rbp),%rax
    7d90:	48 89 85 00 fb ff ff 	mov    %rax,-0x500(%rbp)
    7d97:	48 8d 85 c0 f9 ff ff 	lea    -0x640(%rbp),%rax
    7d9e:	48 89 85 08 fb ff ff 	mov    %rax,-0x4f8(%rbp)
    7da5:	48 8d 85 c0 f9 ff ff 	lea    -0x640(%rbp),%rax
    7dac:	48 89 85 10 fb ff ff 	mov    %rax,-0x4f0(%rbp)
    7db3:	48 8d 85 90 fa ff ff 	lea    -0x570(%rbp),%rax
    7dba:	48 83 c0 30          	add    $0x30,%rax
    7dbe:	48 89 85 18 fb ff ff 	mov    %rax,-0x4e8(%rbp)
    7dc5:	48 8d 85 90 fa ff ff 	lea    -0x570(%rbp),%rax
    7dcc:	48 83 c0 18          	add    $0x18,%rax
    7dd0:	48 89 85 20 fb ff ff 	mov    %rax,-0x4e0(%rbp)
    7dd7:	48 8d 85 c0 f9 ff ff 	lea    -0x640(%rbp),%rax
    7dde:	48 89 85 28 fb ff ff 	mov    %rax,-0x4d8(%rbp)
    7de5:	48 8b 95 c8 f9 ff ff 	mov    -0x638(%rbp),%rdx
    7dec:	48 8b 85 20 fa ff ff 	mov    -0x5e0(%rbp),%rax
    7df3:	48 89 10             	mov    %rdx,(%rax)
    7df6:	48 8b 85 20 fa ff ff 	mov    -0x5e0(%rbp),%rax
    7dfd:	48 8b 00             	mov    (%rax),%rax
    7e00:	48 8d 15 a1 d6 00 00 	lea    0xd6a1(%rip),%rdx        # 154a8 <g_7>
    7e07:	48 39 d0             	cmp    %rdx,%rax
    7e0a:	0f 95 c2             	setne  %dl
    7e0d:	48 8b 85 b0 f9 ff ff 	mov    -0x650(%rbp),%rax
    7e14:	0f b6 d2             	movzbl %dl,%edx
    7e17:	89 10                	mov    %edx,(%rax)
    7e19:	48 8b 85 58 f9 ff ff 	mov    -0x6a8(%rbp),%rax
    7e20:	be 08 00 00 00       	mov    $0x8,%esi
    7e25:	89 c7                	mov    %eax,%edi
    7e27:	e8 d9 e7 ff ff       	callq  6605 <safe_sub_func_int32_t_s_s>
    7e2c:	48 98                	cltq   
    7e2e:	48 89 85 58 f9 ff ff 	mov    %rax,-0x6a8(%rbp)
    7e35:	48 83 bd 58 f9 ff ff 	cmpq   $0xffffffffffffffe8,-0x6a8(%rbp)
    7e3c:	e8 
    7e3d:	0f 85 b5 fe ff ff    	jne    7cf8 <func_2+0x50b>
    7e43:	e9 eb 02 00 00       	jmpq   8133 <func_2+0x946>
    7e48:	48 8d 85 67 f9 ff ff 	lea    -0x699(%rbp),%rax
    7e4f:	48 89 85 c8 f9 ff ff 	mov    %rax,-0x638(%rbp)
    7e56:	48 8d 85 c8 f9 ff ff 	lea    -0x638(%rbp),%rax
    7e5d:	48 89 85 08 fa ff ff 	mov    %rax,-0x5f8(%rbp)
    7e64:	48 8d 05 51 b2 00 00 	lea    0xb251(%rip),%rax        # 130bc <g_489>
    7e6b:	48 89 85 10 fa ff ff 	mov    %rax,-0x5f0(%rbp)
    7e72:	c7 85 8c f9 ff ff ff 	movl   $0xffffffff,-0x674(%rbp)
    7e79:	ff ff ff 
    7e7c:	c7 85 90 f9 ff ff c1 	movl   $0xabb2b2c1,-0x670(%rbp)
    7e83:	b2 b2 ab 
    7e86:	c7 85 94 f9 ff ff af 	movl   $0x93a698af,-0x66c(%rbp)
    7e8d:	98 a6 93 
    7e90:	c7 85 98 f9 ff ff 02 	movl   $0x2,-0x668(%rbp)
    7e97:	00 00 00 
    7e9a:	c7 85 e0 fa ff ff ff 	movl   $0xffffffff,-0x520(%rbp)
    7ea1:	ff ff ff 
    7ea4:	c7 85 e4 fa ff ff ff 	movl   $0xffffffff,-0x51c(%rbp)
    7eab:	ff ff ff 
    7eae:	c7 85 e8 fa ff ff f8 	movl   $0xfffffff8,-0x518(%rbp)
    7eb5:	ff ff ff 
    7eb8:	c7 85 ec fa ff ff 76 	movl   $0xeaf62d76,-0x514(%rbp)
    7ebf:	2d f6 ea 
    7ec2:	c7 85 f0 fa ff ff ff 	movl   $0xffffffff,-0x510(%rbp)
    7ec9:	ff ff ff 
    7ecc:	c7 85 f4 fa ff ff f8 	movl   $0xfffffff8,-0x50c(%rbp)
    7ed3:	ff ff ff 
    7ed6:	c7 85 f8 fa ff ff ff 	movl   $0xffffffff,-0x508(%rbp)
    7edd:	ff ff ff 
    7ee0:	c7 85 fc fa ff ff 9d 	movl   $0xfdcb9d9d,-0x504(%rbp)
    7ee7:	9d cb fd 
    7eea:	c7 85 00 fb ff ff ff 	movl   $0xffffffff,-0x500(%rbp)
    7ef1:	ff ff ff 
    7ef4:	c7 85 04 fb ff ff 76 	movl   $0xeaf62d76,-0x4fc(%rbp)
    7efb:	2d f6 ea 
    7efe:	c7 85 08 fb ff ff 9d 	movl   $0xfdcb9d9d,-0x4f8(%rbp)
    7f05:	9d cb fd 
    7f08:	c7 85 0c fb ff ff 9d 	movl   $0xfdcb9d9d,-0x4f4(%rbp)
    7f0f:	9d cb fd 
    7f12:	c7 85 10 fb ff ff f8 	movl   $0xfffffff8,-0x4f0(%rbp)
    7f19:	ff ff ff 
    7f1c:	c7 85 14 fb ff ff f8 	movl   $0xfffffff8,-0x4ec(%rbp)
    7f23:	ff ff ff 
    7f26:	c7 85 18 fb ff ff 00 	movl   $0x0,-0x4e8(%rbp)
    7f2d:	00 00 00 
    7f30:	c7 85 1c fb ff ff 76 	movl   $0xeaf62d76,-0x4e4(%rbp)
    7f37:	2d f6 ea 
    7f3a:	c7 85 20 fb ff ff 76 	movl   $0xeaf62d76,-0x4e0(%rbp)
    7f41:	2d f6 ea 
    7f44:	c7 85 24 fb ff ff ff 	movl   $0xffffffff,-0x4dc(%rbp)
    7f4b:	ff ff ff 
    7f4e:	c7 85 28 fb ff ff 00 	movl   $0x0,-0x4d8(%rbp)
    7f55:	00 00 00 
    7f58:	c7 85 2c fb ff ff ff 	movl   $0xffffffff,-0x4d4(%rbp)
    7f5f:	ff ff ff 
    7f62:	c7 85 30 fb ff ff f8 	movl   $0xfffffff8,-0x4d0(%rbp)
    7f69:	ff ff ff 
    7f6c:	c7 85 34 fb ff ff ff 	movl   $0xffffffff,-0x4cc(%rbp)
    7f73:	ff ff ff 
    7f76:	c7 85 38 fb ff ff 9d 	movl   $0xfdcb9d9d,-0x4c8(%rbp)
    7f7d:	9d cb fd 
    7f80:	c7 85 3c fb ff ff 00 	movl   $0x0,-0x4c4(%rbp)
    7f87:	00 00 00 
    7f8a:	c7 85 40 fb ff ff ff 	movl   $0xffffffff,-0x4c0(%rbp)
    7f91:	ff ff ff 
    7f94:	c7 85 44 fb ff ff ff 	movl   $0xffffffff,-0x4bc(%rbp)
    7f9b:	ff ff ff 
    7f9e:	c7 85 48 fb ff ff ff 	movl   $0xffffffff,-0x4b8(%rbp)
    7fa5:	ff ff ff 
    7fa8:	c7 85 4c fb ff ff ff 	movl   $0xffffffff,-0x4b4(%rbp)
    7faf:	ff ff ff 
    7fb2:	c7 85 50 fb ff ff ff 	movl   $0xffffffff,-0x4b0(%rbp)
    7fb9:	ff ff ff 
    7fbc:	c7 85 54 fb ff ff ff 	movl   $0xffffffff,-0x4ac(%rbp)
    7fc3:	ff ff ff 
    7fc6:	c7 85 58 fb ff ff f8 	movl   $0xfffffff8,-0x4a8(%rbp)
    7fcd:	ff ff ff 
    7fd0:	c7 85 5c fb ff ff 76 	movl   $0xeaf62d76,-0x4a4(%rbp)
    7fd7:	2d f6 ea 
    7fda:	c7 85 60 fb ff ff ff 	movl   $0xffffffff,-0x4a0(%rbp)
    7fe1:	ff ff ff 
    7fe4:	c7 85 64 fb ff ff f8 	movl   $0xfffffff8,-0x49c(%rbp)
    7feb:	ff ff ff 
    7fee:	c7 85 68 fb ff ff ff 	movl   $0xffffffff,-0x498(%rbp)
    7ff5:	ff ff ff 
    7ff8:	c7 85 6c fb ff ff 9d 	movl   $0xfdcb9d9d,-0x494(%rbp)
    7fff:	9d cb fd 
    8002:	48 8b 85 58 f9 ff ff 	mov    -0x6a8(%rbp),%rax
    8009:	41 89 c4             	mov    %eax,%r12d
    800c:	8b 05 ba b0 00 00    	mov    0xb0ba(%rip),%eax        # 130cc <g_857>
    8012:	41 89 c5             	mov    %eax,%r13d
    8015:	48 8b 85 08 fa ff ff 	mov    -0x5f8(%rbp),%rax
    801c:	48 8d 15 99 b0 00 00 	lea    0xb099(%rip),%rdx        # 130bc <g_489>
    8023:	48 89 10             	mov    %rdx,(%rax)
    8026:	48 8b 85 08 fa ff ff 	mov    -0x5f8(%rbp),%rax
    802d:	48 8b 00             	mov    (%rax),%rax
    8030:	48 8d 15 75 d4 00 00 	lea    0xd475(%rip),%rdx        # 154ac <g_117>
    8037:	48 39 d0             	cmp    %rdx,%rax
    803a:	75 0a                	jne    8046 <func_2+0x859>
    803c:	48 83 bd 58 f9 ff ff 	cmpq   $0x0,-0x6a8(%rbp)
    8043:	00 
    8044:	74 07                	je     804d <func_2+0x860>
    8046:	ba 01 00 00 00       	mov    $0x1,%edx
    804b:	eb 05                	jmp    8052 <func_2+0x865>
    804d:	ba 00 00 00 00       	mov    $0x0,%edx
    8052:	0f b6 85 67 f9 ff ff 	movzbl -0x699(%rbp),%eax
    8059:	0f be c0             	movsbl %al,%eax
    805c:	39 c2                	cmp    %eax,%edx
    805e:	0f 9e c0             	setle  %al
    8061:	0f b6 d0             	movzbl %al,%edx
    8064:	0f b6 85 67 f9 ff ff 	movzbl -0x699(%rbp),%eax
    806b:	0f be c0             	movsbl %al,%eax
    806e:	89 d6                	mov    %edx,%esi
    8070:	89 c7                	mov    %eax,%edi
    8072:	e8 5c e3 ff ff       	callq  63d3 <safe_sub_func_int16_t_s_s>
    8077:	48 0f bf c0          	movswq %ax,%rax
    807b:	48 39 85 58 f9 ff ff 	cmp    %rax,-0x6a8(%rbp)
    8082:	0f 9c c0             	setl   %al
    8085:	0f b6 c0             	movzbl %al,%eax
    8088:	be 00 00 00 00       	mov    $0x0,%esi
    808d:	89 c7                	mov    %eax,%edi
    808f:	e8 2a ec ff ff       	callq  6cbe <safe_rshift_func_uint8_t_u_u>
    8094:	0f b6 d8             	movzbl %al,%ebx
    8097:	48 8b 85 58 f9 ff ff 	mov    -0x6a8(%rbp),%rax
    809e:	0f b6 c0             	movzbl %al,%eax
    80a1:	be 00 00 00 00       	mov    $0x0,%esi
    80a6:	89 c7                	mov    %eax,%edi
    80a8:	e8 e0 eb ff ff       	callq  6c8d <safe_rshift_func_uint8_t_u_s>
    80ad:	0f b6 c0             	movzbl %al,%eax
    80b0:	89 de                	mov    %ebx,%esi
    80b2:	89 c7                	mov    %eax,%edi
    80b4:	e8 a1 ea ff ff       	callq  6b5a <safe_add_func_uint8_t_u_u>
    80b9:	48 8b 85 10 fa ff ff 	mov    -0x5f0(%rbp),%rax
    80c0:	c6 00 ff             	movb   $0xff,(%rax)
    80c3:	4c 89 ee             	mov    %r13,%rsi
    80c6:	bf 00 00 00 00       	mov    $0x0,%edi
    80cb:	e8 d8 e7 ff ff       	callq  68a8 <safe_sub_func_int64_t_s_s>
    80d0:	48 8b 85 b0 f9 ff ff 	mov    -0x650(%rbp),%rax
    80d7:	8b 00                	mov    (%rax),%eax
    80d9:	89 c2                	mov    %eax,%edx
    80db:	48 8b 85 b0 f9 ff ff 	mov    -0x650(%rbp),%rax
    80e2:	8b 00                	mov    (%rax),%eax
    80e4:	85 c0                	test   %eax,%eax
    80e6:	0f 94 c0             	sete   %al
    80e9:	0f b6 c0             	movzbl %al,%eax
    80ec:	31 d0                	xor    %edx,%eax
    80ee:	98                   	cwtl   
    80ef:	be 01 00 00 00       	mov    $0x1,%esi
    80f4:	89 c7                	mov    %eax,%edi
    80f6:	e8 d8 e2 ff ff       	callq  63d3 <safe_sub_func_int16_t_s_s>
    80fb:	0f bf d0             	movswl %ax,%edx
    80fe:	8b 05 d0 af 00 00    	mov    0xafd0(%rip),%eax        # 130d4 <g_875>
    8104:	39 c2                	cmp    %eax,%edx
    8106:	0f 95 c0             	setne  %al
    8109:	0f b6 c0             	movzbl %al,%eax
    810c:	44 89 e6             	mov    %r12d,%esi
    810f:	89 c7                	mov    %eax,%edi
    8111:	e8 a8 ec ff ff       	callq  6dbe <safe_lshift_func_uint16_t_u_s>
    8116:	89 c2                	mov    %eax,%edx
    8118:	48 8b 85 b0 f9 ff ff 	mov    -0x650(%rbp),%rax
    811f:	0f b7 d2             	movzwl %dx,%edx
    8122:	89 10                	mov    %edx,(%rax)
    8124:	8b 85 4c fa ff ff    	mov    -0x5b4(%rbp),%eax
    812a:	83 e8 01             	sub    $0x1,%eax
    812d:	89 85 4c fa ff ff    	mov    %eax,-0x5b4(%rbp)
    8133:	48 8b 05 26 cf 00 00 	mov    0xcf26(%rip),%rax        # 15060 <g_860>
    813a:	8b 00                	mov    (%rax),%eax
    813c:	e9 13 05 00 00       	jmpq   8654 <func_2+0xe67>
    8141:	48 8b 85 b0 f9 ff ff 	mov    -0x650(%rbp),%rax
    8148:	c7 00 00 00 00 00    	movl   $0x0,(%rax)
    814e:	c7 85 70 f9 ff ff 00 	movl   $0x0,-0x690(%rbp)
    8155:	00 00 00 
    8158:	e9 a9 04 00 00       	jmpq   8606 <func_2+0xe19>
    815d:	48 8b 85 b0 f9 ff ff 	mov    -0x650(%rbp),%rax
    8164:	8b 10                	mov    (%rax),%edx
    8166:	48 8b 05 e3 ce 00 00 	mov    0xcee3(%rip),%rax        # 15050 <g_786>
    816d:	48 8b 08             	mov    (%rax),%rcx
    8170:	48 8b 05 49 d3 00 00 	mov    0xd349(%rip),%rax        # 154c0 <g_911>
    8177:	48 39 c1             	cmp    %rax,%rcx
    817a:	0f 95 c0             	setne  %al
    817d:	0f b6 c0             	movzbl %al,%eax
    8180:	39 c2                	cmp    %eax,%edx
    8182:	0f 9d c0             	setge  %al
    8185:	0f b6 d0             	movzbl %al,%edx
    8188:	8b 85 6c f9 ff ff    	mov    -0x694(%rbp),%eax
    818e:	21 d0                	and    %edx,%eax
    8190:	89 85 6c f9 ff ff    	mov    %eax,-0x694(%rbp)
    8196:	48 c7 05 bf ae 00 00 	movq   $0x0,0xaebf(%rip)        # 13060 <g_225>
    819d:	00 00 00 00 
    81a1:	e9 cf 01 00 00       	jmpq   8375 <func_2+0xb88>
    81a6:	48 8d 05 93 ae 00 00 	lea    0xae93(%rip),%rax        # 13040 <g_159>
    81ad:	48 89 85 b8 f9 ff ff 	mov    %rax,-0x648(%rbp)
    81b4:	48 8d 85 b8 f9 ff ff 	lea    -0x648(%rbp),%rax
    81bb:	48 89 85 c0 f9 ff ff 	mov    %rax,-0x640(%rbp)
    81c2:	48 8d 85 c0 f9 ff ff 	lea    -0x640(%rbp),%rax
    81c9:	48 89 85 f8 f9 ff ff 	mov    %rax,-0x608(%rbp)
    81d0:	48 8d 05 e3 ae 00 00 	lea    0xaee3(%rip),%rax        # 130ba <g_456>
    81d7:	48 89 85 c8 f9 ff ff 	mov    %rax,-0x638(%rbp)
    81de:	48 8d 85 c8 f9 ff ff 	lea    -0x638(%rbp),%rax
    81e5:	48 89 85 00 fa ff ff 	mov    %rax,-0x600(%rbp)
    81ec:	48 8d 05 3d ce 00 00 	lea    0xce3d(%rip),%rax        # 15030 <g_694>
    81f3:	48 89 85 e0 fa ff ff 	mov    %rax,-0x520(%rbp)
    81fa:	48 8d 05 2f ce 00 00 	lea    0xce2f(%rip),%rax        # 15030 <g_694>
    8201:	48 89 85 e8 fa ff ff 	mov    %rax,-0x518(%rbp)
    8208:	48 8d 05 21 ce 00 00 	lea    0xce21(%rip),%rax        # 15030 <g_694>
    820f:	48 89 85 f0 fa ff ff 	mov    %rax,-0x510(%rbp)
    8216:	48 8d 05 13 ce 00 00 	lea    0xce13(%rip),%rax        # 15030 <g_694>
    821d:	48 89 85 f8 fa ff ff 	mov    %rax,-0x508(%rbp)
    8224:	48 8d 05 05 ce 00 00 	lea    0xce05(%rip),%rax        # 15030 <g_694>
    822b:	48 89 85 00 fb ff ff 	mov    %rax,-0x500(%rbp)
    8232:	48 8d 05 f7 cd 00 00 	lea    0xcdf7(%rip),%rax        # 15030 <g_694>
    8239:	48 89 85 08 fb ff ff 	mov    %rax,-0x4f8(%rbp)
    8240:	48 8d 05 e9 cd 00 00 	lea    0xcde9(%rip),%rax        # 15030 <g_694>
    8247:	48 89 85 10 fb ff ff 	mov    %rax,-0x4f0(%rbp)
    824e:	48 83 bd 00 fa ff ff 	cmpq   $0x0,-0x600(%rbp)
    8255:	00 
    8256:	0f 95 c0             	setne  %al
    8259:	0f b6 d8             	movzbl %al,%ebx
    825c:	48 8d 85 c0 f9 ff ff 	lea    -0x640(%rbp),%rax
    8263:	48 39 85 f8 f9 ff ff 	cmp    %rax,-0x608(%rbp)
    826a:	0f 95 c0             	setne  %al
    826d:	0f b6 c0             	movzbl %al,%eax
    8270:	89 c6                	mov    %eax,%esi
    8272:	bf ff ff ff ff       	mov    $0xffffffff,%edi
    8277:	e8 79 e1 ff ff       	callq  63f5 <safe_mul_func_int16_t_s_s>
    827c:	0f be d0             	movsbl %al,%edx
    827f:	8b 85 70 f9 ff ff    	mov    -0x690(%rbp),%eax
    8285:	83 c0 04             	add    $0x4,%eax
    8288:	48 98                	cltq   
    828a:	48 8d 0c c5 00 00 00 	lea    0x0(,%rax,8),%rcx
    8291:	00 
    8292:	48 8d 05 67 cd 00 00 	lea    0xcd67(%rip),%rax        # 15000 <g_632>
    8299:	48 8b 04 01          	mov    (%rcx,%rax,1),%rax
    829d:	48 85 c0             	test   %rax,%rax
    82a0:	0f 95 c0             	setne  %al
    82a3:	0f b6 c0             	movzbl %al,%eax
    82a6:	89 d6                	mov    %edx,%esi
    82a8:	89 c7                	mov    %eax,%edi
    82aa:	e8 63 df ff ff       	callq  6212 <safe_mul_func_int8_t_s_s>
    82af:	0f be c0             	movsbl %al,%eax
    82b2:	89 de                	mov    %ebx,%esi
    82b4:	89 c7                	mov    %eax,%edi
    82b6:	e8 18 e1 ff ff       	callq  63d3 <safe_sub_func_int16_t_s_s>
    82bb:	98                   	cwtl   
    82bc:	21 85 74 f9 ff ff    	and    %eax,-0x68c(%rbp)
    82c2:	48 8b 05 8f cd 00 00 	mov    0xcd8f(%rip),%rax        # 15058 <g_815>
    82c9:	48 8b 00             	mov    (%rax),%rax
    82cc:	48 89 85 e0 f9 ff ff 	mov    %rax,-0x620(%rbp)
    82d3:	48 8b 05 8e cd 00 00 	mov    0xcd8e(%rip),%rax        # 15068 <g_859>
    82da:	48 8b 95 e0 f9 ff ff 	mov    -0x620(%rbp),%rdx
    82e1:	48 89 10             	mov    %rdx,(%rax)
    82e4:	48 8b 05 45 cd 00 00 	mov    0xcd45(%rip),%rax        # 15030 <g_694>
    82eb:	8b 08                	mov    (%rax),%ecx
    82ed:	48 8b 05 6c ad 00 00 	mov    0xad6c(%rip),%rax        # 13060 <g_225>
    82f4:	48 8d 50 02          	lea    0x2(%rax),%rdx
    82f8:	8b 85 70 f9 ff ff    	mov    -0x690(%rbp),%eax
    82fe:	83 c0 04             	add    $0x4,%eax
    8301:	48 63 f0             	movslq %eax,%rsi
    8304:	48 89 d0             	mov    %rdx,%rax
    8307:	48 c1 e0 02          	shl    $0x2,%rax
    830b:	48 01 d0             	add    %rdx,%rax
    830e:	48 01 f0             	add    %rsi,%rax
    8311:	8b 94 85 70 fb ff ff 	mov    -0x490(%rbp,%rax,4),%edx
    8318:	48 8b 05 11 cd 00 00 	mov    0xcd11(%rip),%rax        # 15030 <g_694>
    831f:	31 ca                	xor    %ecx,%edx
    8321:	89 10                	mov    %edx,(%rax)
    8323:	48 c7 05 12 ad 00 00 	movq   $0x0,0xad12(%rip)        # 13040 <g_159>
    832a:	00 00 00 00 
    832e:	eb 27                	jmp    8357 <func_2+0xb6a>
    8330:	48 8b 05 31 cd 00 00 	mov    0xcd31(%rip),%rax        # 15068 <g_859>
    8337:	48 8b 00             	mov    (%rax),%rax
    833a:	8b 10                	mov    (%rax),%edx
    833c:	48 8b 85 e0 f9 ff ff 	mov    -0x620(%rbp),%rax
    8343:	89 10                	mov    %edx,(%rax)
    8345:	48 8b 05 f4 ac 00 00 	mov    0xacf4(%rip),%rax        # 13040 <g_159>
    834c:	48 83 e8 01          	sub    $0x1,%rax
    8350:	48 89 05 e9 ac 00 00 	mov    %rax,0xace9(%rip)        # 13040 <g_159>
    8357:	48 8b 05 e2 ac 00 00 	mov    0xace2(%rip),%rax        # 13040 <g_159>
    835e:	48 85 c0             	test   %rax,%rax
    8361:	79 cd                	jns    8330 <func_2+0xb43>
    8363:	48 8b 05 f6 ac 00 00 	mov    0xacf6(%rip),%rax        # 13060 <g_225>
    836a:	48 83 c0 01          	add    $0x1,%rax
    836e:	48 89 05 eb ac 00 00 	mov    %rax,0xaceb(%rip)        # 13060 <g_225>
    8375:	48 8b 05 e4 ac 00 00 	mov    0xace4(%rip),%rax        # 13060 <g_225>
    837c:	48 83 f8 05          	cmp    $0x5,%rax
    8380:	0f 8e 20 fe ff ff    	jle    81a6 <func_2+0x9b9>
    8386:	c7 85 6c f9 ff ff 00 	movl   $0x0,-0x694(%rbp)
    838d:	00 00 00 
    8390:	e9 59 02 00 00       	jmpq   85ee <func_2+0xe01>
    8395:	c7 85 84 f9 ff ff fc 	movl   $0xfffffffc,-0x67c(%rbp)
    839c:	ff ff ff 
    839f:	66 83 bd 6a f9 ff ff 	cmpw   $0x0,-0x696(%rbp)
    83a6:	00 
    83a7:	0f 85 51 02 00 00    	jne    85fe <func_2+0xe11>
    83ad:	48 c7 85 d0 f9 ff ff 	movq   $0x0,-0x630(%rbp)
    83b4:	00 00 00 00 
    83b8:	48 83 bd d0 f9 ff ff 	cmpq   $0x0,-0x630(%rbp)
    83bf:	00 
    83c0:	0f 85 b4 01 00 00    	jne    857a <func_2+0xd8d>
    83c6:	48 8d 85 67 f9 ff ff 	lea    -0x699(%rbp),%rax
    83cd:	48 89 85 e8 f9 ff ff 	mov    %rax,-0x618(%rbp)
    83d4:	c7 85 88 f9 ff ff 6a 	movl   $0x9c776b6a,-0x678(%rbp)
    83db:	6b 77 9c 
    83de:	48 8d 05 e3 ac 00 00 	lea    0xace3(%rip),%rax        # 130c8 <g_762>
    83e5:	48 89 85 f0 f9 ff ff 	mov    %rax,-0x610(%rbp)
    83ec:	48 8d 05 4d cc 00 00 	lea    0xcc4d(%rip),%rax        # 15040 <g_789>
    83f3:	48 8b 00             	mov    (%rax),%rax
    83f6:	48 8b 00             	mov    (%rax),%rax
    83f9:	0f b7 00             	movzwl (%rax),%eax
    83fc:	0f b7 d8             	movzwl %ax,%ebx
    83ff:	8b 85 84 f9 ff ff    	mov    -0x67c(%rbp),%eax
    8405:	44 0f b6 e0          	movzbl %al,%r12d
    8409:	48 8b 85 58 f9 ff ff 	mov    -0x6a8(%rbp),%rax
    8410:	41 89 c5             	mov    %eax,%r13d
    8413:	48 8b 85 58 f9 ff ff 	mov    -0x6a8(%rbp),%rax
    841a:	0f b6 d0             	movzbl %al,%edx
    841d:	48 8b 05 24 c2 00 00 	mov    0xc224(%rip),%rax        # 14648 <g_143>
    8424:	0f b6 00             	movzbl (%rax),%eax
    8427:	0f b6 c0             	movzbl %al,%eax
    842a:	89 d6                	mov    %edx,%esi
    842c:	89 c7                	mov    %eax,%edi
    842e:	e8 7b e7 ff ff       	callq  6bae <safe_mod_func_uint8_t_u_u>
    8433:	84 c0                	test   %al,%al
    8435:	75 69                	jne    84a0 <func_2+0xcb3>
    8437:	48 83 bd 58 f9 ff ff 	cmpq   $0x0,-0x6a8(%rbp)
    843e:	00 
    843f:	0f 9f c0             	setg   %al
    8442:	0f b6 d0             	movzbl %al,%edx
    8445:	48 8b 05 8c ac 00 00 	mov    0xac8c(%rip),%rax        # 130d8 <g_881>
    844c:	48 39 c2             	cmp    %rax,%rdx
    844f:	0f 92 c0             	setb   %al
    8452:	0f b6 c0             	movzbl %al,%eax
    8455:	be 76 8e 00 00       	mov    $0x8e76,%esi
    845a:	89 c7                	mov    %eax,%edi
    845c:	e8 dc e8 ff ff       	callq  6d3d <safe_mul_func_uint16_t_u_u>
    8461:	0f b7 c0             	movzwl %ax,%eax
    8464:	48 0b 85 58 f9 ff ff 	or     -0x6a8(%rbp),%rax
    846b:	48 89 c2             	mov    %rax,%rdx
    846e:	48 8b 85 e8 f9 ff ff 	mov    -0x618(%rbp),%rax
    8475:	0f b6 00             	movzbl (%rax),%eax
    8478:	31 c2                	xor    %eax,%edx
    847a:	48 8b 85 e8 f9 ff ff 	mov    -0x618(%rbp),%rax
    8481:	88 10                	mov    %dl,(%rax)
    8483:	48 8b 85 e8 f9 ff ff 	mov    -0x618(%rbp),%rax
    848a:	0f b6 00             	movzbl (%rax),%eax
    848d:	0f be c0             	movsbl %al,%eax
    8490:	be ff ff ff ff       	mov    $0xffffffff,%esi
    8495:	89 c7                	mov    %eax,%edi
    8497:	e8 ce dd ff ff       	callq  626a <safe_div_func_int8_t_s_s>
    849c:	84 c0                	test   %al,%al
    849e:	74 07                	je     84a7 <func_2+0xcba>
    84a0:	b8 01 00 00 00       	mov    $0x1,%eax
    84a5:	eb 05                	jmp    84ac <func_2+0xcbf>
    84a7:	b8 00 00 00 00       	mov    $0x0,%eax
    84ac:	23 85 88 f9 ff ff    	and    -0x678(%rbp),%eax
    84b2:	89 c7                	mov    %eax,%edi
    84b4:	e8 ed e9 ff ff       	callq  6ea6 <safe_unary_minus_func_uint32_t_u>
    84b9:	89 c2                	mov    %eax,%edx
    84bb:	48 b8 b7 fb 14 83 02 	movabs $0x575359028314fbb7,%rax
    84c2:	59 53 57 
    84c5:	48 09 d0             	or     %rdx,%rax
    84c8:	48 83 f8 ff          	cmp    $0xffffffffffffffff,%rax
    84cc:	0f 9c c0             	setl   %al
    84cf:	0f b6 d0             	movzbl %al,%edx
    84d2:	8b 05 4c ab 00 00    	mov    0xab4c(%rip),%eax        # 13024 <g_9>
    84d8:	39 c2                	cmp    %eax,%edx
    84da:	0f 9e c0             	setle  %al
    84dd:	0f b6 d0             	movzbl %al,%edx
    84e0:	0f b7 05 d1 ab 00 00 	movzwl 0xabd1(%rip),%eax        # 130b8 <g_433>
    84e7:	66 83 f8 08          	cmp    $0x8,%ax
    84eb:	0f 97 c0             	seta   %al
    84ee:	0f b6 c0             	movzbl %al,%eax
    84f1:	89 d6                	mov    %edx,%esi
    84f3:	89 c7                	mov    %eax,%edi
    84f5:	e8 99 e6 ff ff       	callq  6b93 <safe_mul_func_uint8_t_u_u>
    84fa:	89 c2                	mov    %eax,%edx
    84fc:	48 8b 05 65 c1 00 00 	mov    0xc165(%rip),%rax        # 14668 <g_514>
    8503:	0f b6 d2             	movzbl %dl,%edx
    8506:	66 89 10             	mov    %dx,(%rax)
    8509:	48 8b 85 f0 f9 ff ff 	mov    -0x610(%rbp),%rax
    8510:	66 c7 00 01 00       	movw   $0x1,(%rax)
    8515:	48 8b 85 f0 f9 ff ff 	mov    -0x610(%rbp),%rax
    851c:	0f b7 00             	movzwl (%rax),%eax
    851f:	98                   	cwtl   
    8520:	44 89 ee             	mov    %r13d,%esi
    8523:	89 c7                	mov    %eax,%edi
    8525:	e8 68 df ff ff       	callq  6492 <safe_lshift_func_int16_t_s_s>
    852a:	0f b6 c0             	movzbl %al,%eax
    852d:	be 07 00 00 00       	mov    $0x7,%esi
    8532:	89 c7                	mov    %eax,%edi
    8534:	e8 cc e6 ff ff       	callq  6c05 <safe_lshift_func_uint8_t_u_s>
    8539:	48 8b 05 08 c1 00 00 	mov    0xc108(%rip),%rax        # 14648 <g_143>
    8540:	0f b6 00             	movzbl (%rax),%eax
    8543:	3c 62                	cmp    $0x62,%al
    8545:	0f 96 c0             	setbe  %al
    8548:	0f b6 c0             	movzbl %al,%eax
    854b:	44 89 e6             	mov    %r12d,%esi
    854e:	89 c7                	mov    %eax,%edi
    8550:	e8 23 e6 ff ff       	callq  6b78 <safe_sub_func_uint8_t_u_u>
    8555:	0f b6 c0             	movzbl %al,%eax
    8558:	89 de                	mov    %ebx,%esi
    855a:	89 c7                	mov    %eax,%edi
    855c:	e8 fb e7 ff ff       	callq  6d5c <safe_mod_func_uint16_t_u_u>
    8561:	48 8b 85 b0 f9 ff ff 	mov    -0x650(%rbp),%rax
    8568:	c7 00 01 00 00 00    	movl   $0x1,(%rax)
    856e:	48 8b 85 58 f9 ff ff 	mov    -0x6a8(%rbp),%rax
    8575:	e9 da 00 00 00       	jmpq   8654 <func_2+0xe67>
    857a:	48 8b 05 df ca 00 00 	mov    0xcadf(%rip),%rax        # 15060 <g_860>
    8581:	8b 00                	mov    (%rax),%eax
    8583:	85 c0                	test   %eax,%eax
    8585:	75 54                	jne    85db <func_2+0xdee>
    8587:	66 c7 05 2a ab 00 00 	movw   $0x0,0xab2a(%rip)        # 130ba <g_456>
    858e:	00 00 
    8590:	eb 3b                	jmp    85cd <func_2+0xde0>
    8592:	48 8b 05 bf ca 00 00 	mov    0xcabf(%rip),%rax        # 15058 <g_815>
    8599:	48 8b 00             	mov    (%rax),%rax
    859c:	8b 08                	mov    (%rax),%ecx
    859e:	48 8b 85 b0 f9 ff ff 	mov    -0x650(%rbp),%rax
    85a5:	8b 10                	mov    (%rax),%edx
    85a7:	48 8b 85 b0 f9 ff ff 	mov    -0x650(%rbp),%rax
    85ae:	31 ca                	xor    %ecx,%edx
    85b0:	89 10                	mov    %edx,(%rax)
    85b2:	48 83 bd 58 f9 ff ff 	cmpq   $0x0,-0x6a8(%rbp)
    85b9:	00 
    85ba:	75 22                	jne    85de <func_2+0xdf1>
    85bc:	0f b7 05 f7 aa 00 00 	movzwl 0xaaf7(%rip),%eax        # 130ba <g_456>
    85c3:	83 c0 01             	add    $0x1,%eax
    85c6:	66 89 05 ed aa 00 00 	mov    %ax,0xaaed(%rip)        # 130ba <g_456>
    85cd:	0f b7 05 e6 aa 00 00 	movzwl 0xaae6(%rip),%eax        # 130ba <g_456>
    85d4:	66 85 c0             	test   %ax,%ax
    85d7:	74 b9                	je     8592 <func_2+0xda5>
    85d9:	eb 04                	jmp    85df <func_2+0xdf2>
    85db:	90                   	nop
    85dc:	eb 01                	jmp    85df <func_2+0xdf2>
    85de:	90                   	nop
    85df:	8b 85 6c f9 ff ff    	mov    -0x694(%rbp),%eax
    85e5:	83 c0 01             	add    $0x1,%eax
    85e8:	89 85 6c f9 ff ff    	mov    %eax,-0x694(%rbp)
    85ee:	8b 85 6c f9 ff ff    	mov    -0x694(%rbp),%eax
    85f4:	85 c0                	test   %eax,%eax
    85f6:	0f 8e 99 fd ff ff    	jle    8395 <func_2+0xba8>
    85fc:	eb 01                	jmp    85ff <func_2+0xe12>
    85fe:	90                   	nop
    85ff:	83 85 70 f9 ff ff 01 	addl   $0x1,-0x690(%rbp)
    8606:	83 bd 70 f9 ff ff 00 	cmpl   $0x0,-0x690(%rbp)
    860d:	0f 8e 4a fb ff ff    	jle    815d <func_2+0x970>
    8613:	eb 22                	jmp    8637 <func_2+0xe4a>
    8615:	48 8b 85 58 f9 ff ff 	mov    -0x6a8(%rbp),%rax
    861c:	eb 36                	jmp    8654 <func_2+0xe67>
    861e:	48 8b 1d 4b ca 00 00 	mov    0xca4b(%rip),%rbx        # 15070 <g_949>
    8625:	48 8b 85 58 f9 ff ff 	mov    -0x6a8(%rbp),%rax
    862c:	48 89 c7             	mov    %rax,%rdi
    862f:	e8 5e 16 00 00       	callq  9c92 <func_63>
    8634:	48 89 03             	mov    %rax,(%rbx)
    8637:	48 8b 05 3a ca 00 00 	mov    0xca3a(%rip),%rax        # 15078 <g_951>
    863e:	8b 08                	mov    (%rax),%ecx
    8640:	48 8b 95 b0 f9 ff ff 	mov    -0x650(%rbp),%rdx
    8647:	8b 12                	mov    (%rdx),%edx
    8649:	31 ca                	xor    %ecx,%edx
    864b:	89 10                	mov    %edx,(%rax)
    864d:	48 8b 85 58 f9 ff ff 	mov    -0x6a8(%rbp),%rax
    8654:	48 8b 5d d8          	mov    -0x28(%rbp),%rbx
    8658:	64 48 33 1c 25 28 00 	xor    %fs:0x28,%rbx
    865f:	00 00 
    8661:	74 05                	je     8668 <func_2+0xe7b>
    8663:	e8 08 da ff ff       	callq  6070 <__stack_chk_fail@plt>
    8668:	48 81 c4 98 06 00 00 	add    $0x698,%rsp
    866f:	5b                   	pop    %rbx
    8670:	41 5c                	pop    %r12
    8672:	41 5d                	pop    %r13
    8674:	5d                   	pop    %rbp
    8675:	c3                   	retq   

0000000000008676 <func_52>:
    8676:	f3 0f 1e fa          	endbr64 
    867a:	55                   	push   %rbp
    867b:	48 89 e5             	mov    %rsp,%rbp
    867e:	41 56                	push   %r14
    8680:	41 55                	push   %r13
    8682:	41 54                	push   %r12
    8684:	53                   	push   %rbx
    8685:	48 81 ec 20 05 00 00 	sub    $0x520,%rsp
    868c:	89 f8                	mov    %edi,%eax
    868e:	66 89 85 cc fa ff ff 	mov    %ax,-0x534(%rbp)
    8695:	64 48 8b 04 25 28 00 	mov    %fs:0x28,%rax
    869c:	00 00 
    869e:	48 89 45 d8          	mov    %rax,-0x28(%rbp)
    86a2:	31 c0                	xor    %eax,%eax
    86a4:	48 8d 05 81 a9 00 00 	lea    0xa981(%rip),%rax        # 1302c <g_35>
    86ab:	48 89 85 20 fb ff ff 	mov    %rax,-0x4e0(%rbp)
    86b2:	48 8d 05 ff a9 00 00 	lea    0xa9ff(%rip),%rax        # 130b8 <g_433>
    86b9:	48 89 85 f0 fa ff ff 	mov    %rax,-0x510(%rbp)
    86c0:	48 8d 85 f0 fa ff ff 	lea    -0x510(%rbp),%rax
    86c7:	48 89 85 f8 fa ff ff 	mov    %rax,-0x508(%rbp)
    86ce:	48 8d 85 f8 fa ff ff 	lea    -0x508(%rbp),%rax
    86d5:	48 89 85 b0 fb ff ff 	mov    %rax,-0x450(%rbp)
    86dc:	48 8d 85 f8 fa ff ff 	lea    -0x508(%rbp),%rax
    86e3:	48 89 85 b8 fb ff ff 	mov    %rax,-0x448(%rbp)
    86ea:	48 8d 85 f8 fa ff ff 	lea    -0x508(%rbp),%rax
    86f1:	48 89 85 c0 fb ff ff 	mov    %rax,-0x440(%rbp)
    86f8:	48 c7 85 c8 fb ff ff 	movq   $0x0,-0x438(%rbp)
    86ff:	00 00 00 00 
    8703:	48 8d 85 f8 fa ff ff 	lea    -0x508(%rbp),%rax
    870a:	48 89 85 d0 fb ff ff 	mov    %rax,-0x430(%rbp)
    8711:	48 c7 85 d8 fb ff ff 	movq   $0x0,-0x428(%rbp)
    8718:	00 00 00 00 
    871c:	48 8d 85 f8 fa ff ff 	lea    -0x508(%rbp),%rax
    8723:	48 89 85 e0 fb ff ff 	mov    %rax,-0x420(%rbp)
    872a:	48 8d 85 f8 fa ff ff 	lea    -0x508(%rbp),%rax
    8731:	48 89 85 e8 fb ff ff 	mov    %rax,-0x418(%rbp)
    8738:	48 8d 85 f8 fa ff ff 	lea    -0x508(%rbp),%rax
    873f:	48 89 85 f0 fb ff ff 	mov    %rax,-0x410(%rbp)
    8746:	48 c7 85 f8 fb ff ff 	movq   $0x0,-0x408(%rbp)
    874d:	00 00 00 00 
    8751:	48 8d 85 f8 fa ff ff 	lea    -0x508(%rbp),%rax
    8758:	48 89 85 00 fc ff ff 	mov    %rax,-0x400(%rbp)
    875f:	48 8d 85 f8 fa ff ff 	lea    -0x508(%rbp),%rax
    8766:	48 89 85 08 fc ff ff 	mov    %rax,-0x3f8(%rbp)
    876d:	48 8d 85 f8 fa ff ff 	lea    -0x508(%rbp),%rax
    8774:	48 89 85 10 fc ff ff 	mov    %rax,-0x3f0(%rbp)
    877b:	48 c7 85 18 fc ff ff 	movq   $0x0,-0x3e8(%rbp)
    8782:	00 00 00 00 
    8786:	48 8d 85 f8 fa ff ff 	lea    -0x508(%rbp),%rax
    878d:	48 89 85 20 fc ff ff 	mov    %rax,-0x3e0(%rbp)
    8794:	48 c7 85 28 fc ff ff 	movq   $0x0,-0x3d8(%rbp)
    879b:	00 00 00 00 
    879f:	48 8d 85 f8 fa ff ff 	lea    -0x508(%rbp),%rax
    87a6:	48 89 85 30 fc ff ff 	mov    %rax,-0x3d0(%rbp)
    87ad:	48 8d 85 f8 fa ff ff 	lea    -0x508(%rbp),%rax
    87b4:	48 89 85 38 fc ff ff 	mov    %rax,-0x3c8(%rbp)
    87bb:	48 8d 85 f8 fa ff ff 	lea    -0x508(%rbp),%rax
    87c2:	48 89 85 40 fc ff ff 	mov    %rax,-0x3c0(%rbp)
    87c9:	48 8d 85 f8 fa ff ff 	lea    -0x508(%rbp),%rax
    87d0:	48 89 85 48 fc ff ff 	mov    %rax,-0x3b8(%rbp)
    87d7:	48 8d 85 f8 fa ff ff 	lea    -0x508(%rbp),%rax
    87de:	48 89 85 50 fc ff ff 	mov    %rax,-0x3b0(%rbp)
    87e5:	48 8d 85 f8 fa ff ff 	lea    -0x508(%rbp),%rax
    87ec:	48 89 85 58 fc ff ff 	mov    %rax,-0x3a8(%rbp)
    87f3:	48 8d 85 f8 fa ff ff 	lea    -0x508(%rbp),%rax
    87fa:	48 89 85 60 fc ff ff 	mov    %rax,-0x3a0(%rbp)
    8801:	48 8d 85 f8 fa ff ff 	lea    -0x508(%rbp),%rax
    8808:	48 89 85 68 fc ff ff 	mov    %rax,-0x398(%rbp)
    880f:	48 8d 85 b0 fb ff ff 	lea    -0x450(%rbp),%rax
    8816:	48 83 c0 18          	add    $0x18,%rax
    881a:	48 89 85 00 fb ff ff 	mov    %rax,-0x500(%rbp)
    8821:	48 8d 85 00 fb ff ff 	lea    -0x500(%rbp),%rax
    8828:	48 89 85 28 fb ff ff 	mov    %rax,-0x4d8(%rbp)
    882f:	48 8d 05 7a cc 00 00 	lea    0xcc7a(%rip),%rax        # 154b0 <g_152>
    8836:	48 89 85 30 fb ff ff 	mov    %rax,-0x4d0(%rbp)
    883d:	c7 85 d4 fa ff ff 00 	movl   $0x0,-0x52c(%rbp)
    8844:	00 00 00 
    8847:	48 8d 05 5e cc 00 00 	lea    0xcc5e(%rip),%rax        # 154ac <g_117>
    884e:	48 89 85 38 fb ff ff 	mov    %rax,-0x4c8(%rbp)
    8855:	c7 85 e8 fa ff ff 52 	movl   $0x72b93e52,-0x518(%rbp)
    885c:	3e b9 72 
    885f:	48 8d 05 d6 a7 00 00 	lea    0xa7d6(%rip),%rax        # 1303c <g_140>
    8866:	48 89 85 40 fb ff ff 	mov    %rax,-0x4c0(%rbp)
    886d:	c7 85 ec fa ff ff 01 	movl   $0x1,-0x514(%rbp)
    8874:	00 00 00 
    8877:	48 c7 85 08 fb ff ff 	movq   $0x0,-0x4f8(%rbp)
    887e:	00 00 00 00 
    8882:	48 8d 85 08 fb ff ff 	lea    -0x4f8(%rbp),%rax
    8889:	48 89 85 48 fb ff ff 	mov    %rax,-0x4b8(%rbp)
    8890:	48 8d 05 a1 a7 00 00 	lea    0xa7a1(%rip),%rax        # 13038 <g_110>
    8897:	48 89 85 50 fb ff ff 	mov    %rax,-0x4b0(%rbp)
    889e:	48 8d 05 7f a7 00 00 	lea    0xa77f(%rip),%rax        # 13024 <g_9>
    88a5:	48 89 85 58 fb ff ff 	mov    %rax,-0x4a8(%rbp)
    88ac:	48 8d 05 cd a7 00 00 	lea    0xa7cd(%rip),%rax        # 13080 <g_230>
    88b3:	48 89 85 60 fb ff ff 	mov    %rax,-0x4a0(%rbp)
    88ba:	48 8d 05 ab a7 00 00 	lea    0xa7ab(%rip),%rax        # 1306c <g_228>
    88c1:	48 89 85 68 fb ff ff 	mov    %rax,-0x498(%rbp)
    88c8:	66 c7 85 d2 fa ff ff 	movw   $0x0,-0x52e(%rbp)
    88cf:	00 00 
    88d1:	c7 85 d8 fa ff ff 00 	movl   $0x0,-0x528(%rbp)
    88d8:	00 00 00 
    88db:	eb 52                	jmp    892f <func_52+0x2b9>
    88dd:	c7 85 dc fa ff ff 00 	movl   $0x0,-0x524(%rbp)
    88e4:	00 00 00 
    88e7:	eb 36                	jmp    891f <func_52+0x2a9>
    88e9:	8b 85 dc fa ff ff    	mov    -0x524(%rbp),%eax
    88ef:	48 63 c8             	movslq %eax,%rcx
    88f2:	8b 85 d8 fa ff ff    	mov    -0x528(%rbp),%eax
    88f8:	48 63 d0             	movslq %eax,%rdx
    88fb:	48 89 d0             	mov    %rdx,%rax
    88fe:	48 c1 e0 03          	shl    $0x3,%rax
    8902:	48 29 d0             	sub    %rdx,%rax
    8905:	48 8d 14 08          	lea    (%rax,%rcx,1),%rdx
    8909:	48 8d 85 d4 fa ff ff 	lea    -0x52c(%rbp),%rax
    8910:	48 89 84 d5 e0 fd ff 	mov    %rax,-0x220(%rbp,%rdx,8)
    8917:	ff 
    8918:	83 85 dc fa ff ff 01 	addl   $0x1,-0x524(%rbp)
    891f:	83 bd dc fa ff ff 06 	cmpl   $0x6,-0x524(%rbp)
    8926:	7e c1                	jle    88e9 <func_52+0x273>
    8928:	83 85 d8 fa ff ff 01 	addl   $0x1,-0x528(%rbp)
    892f:	83 bd d8 fa ff ff 08 	cmpl   $0x8,-0x528(%rbp)
    8936:	7e a5                	jle    88dd <func_52+0x267>
    8938:	c7 85 d8 fa ff ff 00 	movl   $0x0,-0x528(%rbp)
    893f:	00 00 00 
    8942:	eb 1b                	jmp    895f <func_52+0x2e9>
    8944:	8b 85 d8 fa ff ff    	mov    -0x528(%rbp),%eax
    894a:	48 98                	cltq   
    894c:	48 c7 84 c5 90 fb ff 	movq   $0xfffffffffffffffb,-0x470(%rbp,%rax,8)
    8953:	ff fb ff ff ff 
    8958:	83 85 d8 fa ff ff 01 	addl   $0x1,-0x528(%rbp)
    895f:	83 bd d8 fa ff ff 01 	cmpl   $0x1,-0x528(%rbp)
    8966:	7e dc                	jle    8944 <func_52+0x2ce>
    8968:	8b 85 d4 fa ff ff    	mov    -0x52c(%rbp),%eax
    896e:	48 63 d8             	movslq %eax,%rbx
    8971:	0f b7 85 cc fa ff ff 	movzwl -0x534(%rbp),%eax
    8978:	44 0f b6 e0          	movzbl %al,%r12d
    897c:	8b 85 d4 fa ff ff    	mov    -0x52c(%rbp),%eax
    8982:	44 0f b6 e8          	movzbl %al,%r13d
    8986:	8b 05 e0 a6 00 00    	mov    0xa6e0(%rip),%eax        # 1306c <g_228>
    898c:	48 63 d0             	movslq %eax,%rdx
    898f:	48 8b 85 30 fb ff ff 	mov    -0x4d0(%rbp),%rax
    8996:	48 89 10             	mov    %rdx,(%rax)
    8999:	44 0f b7 b5 cc fa ff 	movzwl -0x534(%rbp),%r14d
    89a0:	ff 
    89a1:	0f b7 85 cc fa ff ff 	movzwl -0x534(%rbp),%eax
    89a8:	48 89 c6             	mov    %rax,%rsi
    89ab:	48 bf f0 82 61 ab 6f 	movabs $0xb10e246fab6182f0,%rdi
    89b2:	24 0e b1 
    89b5:	e8 3d e0 ff ff       	callq  69f7 <safe_div_func_int64_t_s_s>
    89ba:	0f b7 c0             	movzwl %ax,%eax
    89bd:	44 89 f6             	mov    %r14d,%esi
    89c0:	89 c7                	mov    %eax,%edi
    89c2:	e8 38 e3 ff ff       	callq  6cff <safe_add_func_uint16_t_u_u>
    89c7:	0f b7 d0             	movzwl %ax,%edx
    89ca:	8b 05 98 a6 00 00    	mov    0xa698(%rip),%eax        # 13068 <g_227>
    89d0:	39 c2                	cmp    %eax,%edx
    89d2:	44 89 ee             	mov    %r13d,%esi
    89d5:	bf 01 00 00 00       	mov    $0x1,%edi
    89da:	e8 cf e1 ff ff       	callq  6bae <safe_mod_func_uint8_t_u_u>
    89df:	0f b6 c0             	movzbl %al,%eax
    89e2:	66 39 85 cc fa ff ff 	cmp    %ax,-0x534(%rbp)
    89e9:	0f 97 c0             	seta   %al
    89ec:	0f b6 d0             	movzbl %al,%edx
    89ef:	48 8b 05 5a c6 00 00 	mov    0xc65a(%rip),%rax        # 15050 <g_786>
    89f6:	48 89 05 53 c6 00 00 	mov    %rax,0xc653(%rip)        # 15050 <g_786>
    89fd:	48 8b 05 4c c6 00 00 	mov    0xc64c(%rip),%rax        # 15050 <g_786>
    8a04:	48 39 85 28 fb ff ff 	cmp    %rax,-0x4d8(%rbp)
    8a0b:	0f 95 c0             	setne  %al
    8a0e:	0f b6 c0             	movzbl %al,%eax
    8a11:	89 d6                	mov    %edx,%esi
    8a13:	89 c7                	mov    %eax,%edi
    8a15:	e8 eb db ff ff       	callq  6605 <safe_sub_func_int32_t_s_s>
    8a1a:	44 0f b7 e8          	movzwl %ax,%r13d
    8a1e:	0f b7 05 93 a6 00 00 	movzwl 0xa693(%rip),%eax        # 130b8 <g_433>
    8a25:	0f b7 d0             	movzwl %ax,%edx
    8a28:	0f b7 85 cc fa ff ff 	movzwl -0x534(%rbp),%eax
    8a2f:	0f be c0             	movsbl %al,%eax
    8a32:	89 d6                	mov    %edx,%esi
    8a34:	89 c7                	mov    %eax,%edi
    8a36:	e8 fa d8 ff ff       	callq  6335 <safe_rshift_func_int8_t_s_s>
    8a3b:	66 98                	cbtw   
    8a3d:	0f b7 c0             	movzwl %ax,%eax
    8a40:	44 89 ee             	mov    %r13d,%esi
    8a43:	89 c7                	mov    %eax,%edi
    8a45:	e8 12 e3 ff ff       	callq  6d5c <safe_mod_func_uint16_t_u_u>
    8a4a:	89 c2                	mov    %eax,%edx
    8a4c:	48 8b 85 38 fb ff ff 	mov    -0x4c8(%rbp),%rax
    8a53:	88 10                	mov    %dl,(%rax)
    8a55:	48 8b 85 38 fb ff ff 	mov    -0x4c8(%rbp),%rax
    8a5c:	0f b6 00             	movzbl (%rax),%eax
    8a5f:	66 0f be d0          	movsbw %al,%dx
    8a63:	48 8b 05 fe bb 00 00 	mov    0xbbfe(%rip),%rax        # 14668 <g_514>
    8a6a:	83 e2 05             	and    $0x5,%edx
    8a6d:	66 89 10             	mov    %dx,(%rax)
    8a70:	44 89 e6             	mov    %r12d,%esi
    8a73:	bf 01 00 00 00       	mov    $0x1,%edi
    8a78:	e8 16 e1 ff ff       	callq  6b93 <safe_mul_func_uint8_t_u_u>
    8a7d:	0f b6 c0             	movzbl %al,%eax
    8a80:	48 89 de             	mov    %rbx,%rsi
    8a83:	48 89 c7             	mov    %rax,%rdi
    8a86:	e8 29 df ff ff       	callq  69b4 <safe_mod_func_int64_t_s_s>
    8a8b:	89 c2                	mov    %eax,%edx
    8a8d:	48 83 bd 20 fb ff ff 	cmpq   $0x0,-0x4e0(%rbp)
    8a94:	00 
    8a95:	0f 95 c0             	setne  %al
    8a98:	0f b6 c0             	movzbl %al,%eax
    8a9b:	89 d6                	mov    %edx,%esi
    8a9d:	89 c7                	mov    %eax,%edi
    8a9f:	e8 ee d9 ff ff       	callq  6492 <safe_lshift_func_int16_t_s_s>
    8aa4:	98                   	cwtl   
    8aa5:	0b 85 e8 fa ff ff    	or     -0x518(%rbp),%eax
    8aab:	89 c2                	mov    %eax,%edx
    8aad:	48 8b 85 40 fb ff ff 	mov    -0x4c0(%rbp),%rax
    8ab4:	89 10                	mov    %edx,(%rax)
    8ab6:	48 8b 85 40 fb ff ff 	mov    -0x4c0(%rbp),%rax
    8abd:	8b 10                	mov    (%rax),%edx
    8abf:	8b 05 67 a5 00 00    	mov    0xa567(%rip),%eax        # 1302c <g_35>
    8ac5:	39 c2                	cmp    %eax,%edx
    8ac7:	0f 84 bb 00 00 00    	je     8b88 <func_52+0x512>
    8acd:	48 8d 05 74 a5 00 00 	lea    0xa574(%rip),%rax        # 13048 <g_172>
    8ad4:	48 89 85 80 fb ff ff 	mov    %rax,-0x480(%rbp)
    8adb:	48 8d 05 7e a5 00 00 	lea    0xa57e(%rip),%rax        # 13060 <g_225>
    8ae2:	48 89 85 10 fb ff ff 	mov    %rax,-0x4f0(%rbp)
    8ae9:	48 8d 85 10 fb ff ff 	lea    -0x4f0(%rbp),%rax
    8af0:	48 89 85 18 fb ff ff 	mov    %rax,-0x4e8(%rbp)
    8af7:	48 c7 85 88 fb ff ff 	movq   $0x0,-0x478(%rbp)
    8afe:	00 00 00 00 
    8b02:	c7 85 e0 fa ff ff 00 	movl   $0x0,-0x520(%rbp)
    8b09:	00 00 00 
    8b0c:	eb 1e                	jmp    8b2c <func_52+0x4b6>
    8b0e:	8b 85 e0 fa ff ff    	mov    -0x520(%rbp),%eax
    8b14:	48 98                	cltq   
    8b16:	48 8d 95 18 fb ff ff 	lea    -0x4e8(%rbp),%rdx
    8b1d:	48 89 94 c5 70 fc ff 	mov    %rdx,-0x390(%rbp,%rax,8)
    8b24:	ff 
    8b25:	83 85 e0 fa ff ff 01 	addl   $0x1,-0x520(%rbp)
    8b2c:	83 bd e0 fa ff ff 00 	cmpl   $0x0,-0x520(%rbp)
    8b33:	7e d9                	jle    8b0e <func_52+0x498>
    8b35:	bf 16 00 00 00       	mov    $0x16,%edi
    8b3a:	e8 06 e0 ff ff       	callq  6b45 <safe_unary_minus_func_uint8_t_u>
    8b3f:	0f b6 d0             	movzbl %al,%edx
    8b42:	8b 85 ec fa ff ff    	mov    -0x514(%rbp),%eax
    8b48:	98                   	cwtl   
    8b49:	89 d6                	mov    %edx,%esi
    8b4b:	89 c7                	mov    %eax,%edi
    8b4d:	e8 a3 d8 ff ff       	callq  63f5 <safe_mul_func_int16_t_s_s>
    8b52:	48 8b 95 80 fb ff ff 	mov    -0x480(%rbp),%rdx
    8b59:	8b 12                	mov    (%rdx),%edx
    8b5b:	98                   	cwtl   
    8b5c:	09 c2                	or     %eax,%edx
    8b5e:	48 8b 85 80 fb ff ff 	mov    -0x480(%rbp),%rax
    8b65:	89 10                	mov    %edx,(%rax)
    8b67:	48 c7 85 48 fb ff ff 	movq   $0x0,-0x4b8(%rbp)
    8b6e:	00 00 00 00 
    8b72:	48 8b 05 df c4 00 00 	mov    0xc4df(%rip),%rax        # 15058 <g_815>
    8b79:	48 8b 95 80 fb ff ff 	mov    -0x480(%rbp),%rdx
    8b80:	48 89 10             	mov    %rdx,(%rax)
    8b83:	e9 8c 02 00 00       	jmpq   8e14 <func_52+0x79e>
    8b88:	c6 85 d1 fa ff ff 32 	movb   $0x32,-0x52f(%rbp)
    8b8f:	c6 85 10 fb ff ff 50 	movb   $0x50,-0x4f0(%rbp)
    8b96:	48 8d 85 70 fc ff ff 	lea    -0x390(%rbp),%rax
    8b9d:	48 8d 15 7c 68 00 00 	lea    0x687c(%rip),%rdx        # f420 <g_66+0x3cc>
    8ba4:	b9 2d 00 00 00       	mov    $0x2d,%ecx
    8ba9:	48 89 c7             	mov    %rax,%rdi
    8bac:	48 89 d6             	mov    %rdx,%rsi
    8baf:	f3 48 a5             	rep movsq %ds:(%rsi),%es:(%rdi)
    8bb2:	48 c7 85 18 fb ff ff 	movq   $0x0,-0x4e8(%rbp)
    8bb9:	00 00 00 00 
    8bbd:	0f b6 85 10 fb ff ff 	movzbl -0x4f0(%rbp),%eax
    8bc4:	0f b6 d8             	movzbl %al,%ebx
    8bc7:	0f b6 85 10 fb ff ff 	movzbl -0x4f0(%rbp),%eax
    8bce:	44 0f b6 e0          	movzbl %al,%r12d
    8bd2:	0f b6 85 d1 fa ff ff 	movzbl -0x52f(%rbp),%eax
    8bd9:	0f b6 c0             	movzbl %al,%eax
    8bdc:	be 05 00 00 00       	mov    $0x5,%esi
    8be1:	89 c7                	mov    %eax,%edi
    8be3:	e8 1d e0 ff ff       	callq  6c05 <safe_lshift_func_uint8_t_u_s>
    8be8:	0f b6 c0             	movzbl %al,%eax
    8beb:	44 89 e6             	mov    %r12d,%esi
    8bee:	89 c7                	mov    %eax,%edi
    8bf0:	e8 85 e2 ff ff       	callq  6e7a <safe_rshift_func_uint16_t_u_u>
    8bf5:	0f b7 c0             	movzwl %ax,%eax
    8bf8:	48 89 de             	mov    %rbx,%rsi
    8bfb:	48 89 c7             	mov    %rax,%rdi
    8bfe:	e8 b1 dd ff ff       	callq  69b4 <safe_mod_func_int64_t_s_s>
    8c03:	8b 85 ec fa ff ff    	mov    -0x514(%rbp),%eax
    8c09:	89 c7                	mov    %eax,%edi
    8c0b:	e8 96 e2 ff ff       	callq  6ea6 <safe_unary_minus_func_uint32_t_u>
    8c10:	0f b7 85 cc fa ff ff 	movzwl -0x534(%rbp),%eax
    8c17:	0f b6 c0             	movzbl %al,%eax
    8c1a:	be 00 00 00 00       	mov    $0x0,%esi
    8c1f:	89 c7                	mov    %eax,%edi
    8c21:	e8 34 df ff ff       	callq  6b5a <safe_add_func_uint8_t_u_u>
    8c26:	0f b6 d0             	movzbl %al,%edx
    8c29:	0f b7 85 cc fa ff ff 	movzwl -0x534(%rbp),%eax
    8c30:	0f be c0             	movsbl %al,%eax
    8c33:	89 d6                	mov    %edx,%esi
    8c35:	89 c7                	mov    %eax,%edi
    8c37:	e8 b2 d6 ff ff       	callq  62ee <safe_lshift_func_int8_t_s_u>
    8c3c:	0f be d0             	movsbl %al,%edx
    8c3f:	0f b7 85 cc fa ff ff 	movzwl -0x534(%rbp),%eax
    8c46:	89 c1                	mov    %eax,%ecx
    8c48:	48 8b 85 38 fb ff ff 	mov    -0x4c8(%rbp),%rax
    8c4f:	88 08                	mov    %cl,(%rax)
    8c51:	48 8b 85 38 fb ff ff 	mov    -0x4c8(%rbp),%rax
    8c58:	0f b6 00             	movzbl (%rax),%eax
    8c5b:	0f be c8             	movsbl %al,%ecx
    8c5e:	48 8d 05 d3 a3 00 00 	lea    0xa3d3(%rip),%rax        # 13038 <g_110>
    8c65:	48 39 85 50 fb ff ff 	cmp    %rax,-0x4b0(%rbp)
    8c6c:	0f 95 c0             	setne  %al
    8c6f:	0f b6 c0             	movzbl %al,%eax
    8c72:	39 c1                	cmp    %eax,%ecx
    8c74:	0f 9e c0             	setle  %al
    8c77:	0f b6 c0             	movzbl %al,%eax
    8c7a:	89 d6                	mov    %edx,%esi
    8c7c:	89 c7                	mov    %eax,%edi
    8c7e:	e8 49 da ff ff       	callq  66cc <safe_mod_func_int32_t_s_s>
    8c83:	0f b6 c0             	movzbl %al,%eax
    8c86:	89 c6                	mov    %eax,%esi
    8c88:	bf ff 00 00 00       	mov    $0xff,%edi
    8c8d:	e8 1c df ff ff       	callq  6bae <safe_mod_func_uint8_t_u_u>
    8c92:	0f b6 c0             	movzbl %al,%eax
    8c95:	66 39 85 cc fa ff ff 	cmp    %ax,-0x534(%rbp)
    8c9c:	0f 95 c0             	setne  %al
    8c9f:	0f b6 c0             	movzbl %al,%eax
    8ca2:	48 89 05 b7 a3 00 00 	mov    %rax,0xa3b7(%rip)        # 13060 <g_225>
    8ca9:	48 8b 05 b0 a3 00 00 	mov    0xa3b0(%rip),%rax        # 13060 <g_225>
    8cb0:	8b 95 74 fd ff ff    	mov    -0x28c(%rbp),%edx
    8cb6:	89 d2                	mov    %edx,%edx
    8cb8:	48 39 d0             	cmp    %rdx,%rax
    8cbb:	74 0f                	je     8ccc <func_52+0x656>
    8cbd:	48 8b 05 94 c3 00 00 	mov    0xc394(%rip),%rax        # 15058 <g_815>
    8cc4:	48 8b 00             	mov    (%rax),%rax
    8cc7:	e9 79 01 00 00       	jmpq   8e45 <func_52+0x7cf>
    8ccc:	48 8d 85 10 fb ff ff 	lea    -0x4f0(%rbp),%rax
    8cd3:	48 89 85 70 fb ff ff 	mov    %rax,-0x490(%rbp)
    8cda:	48 c7 85 78 fb ff ff 	movq   $0x0,-0x488(%rbp)
    8ce1:	00 00 00 00 
    8ce5:	c7 85 e4 fa ff ff 00 	movl   $0x0,-0x51c(%rbp)
    8cec:	00 00 00 
    8cef:	eb 1e                	jmp    8d0f <func_52+0x699>
    8cf1:	8b 85 e4 fa ff ff    	mov    -0x51c(%rbp),%eax
    8cf7:	48 98                	cltq   
    8cf9:	48 8d 95 18 fb ff ff 	lea    -0x4e8(%rbp),%rdx
    8d00:	48 89 94 c5 a0 fb ff 	mov    %rdx,-0x460(%rbp,%rax,8)
    8d07:	ff 
    8d08:	83 85 e4 fa ff ff 01 	addl   $0x1,-0x51c(%rbp)
    8d0f:	83 bd e4 fa ff ff 01 	cmpl   $0x1,-0x51c(%rbp)
    8d16:	7e d9                	jle    8cf1 <func_52+0x67b>
    8d18:	8b 05 8a c7 00 00    	mov    0xc78a(%rip),%eax        # 154a8 <g_7>
    8d1e:	85 c0                	test   %eax,%eax
    8d20:	74 76                	je     8d98 <func_52+0x722>
    8d22:	48 8b 85 70 fb ff ff 	mov    -0x490(%rbp),%rax
    8d29:	0f b6 00             	movzbl (%rax),%eax
    8d2c:	8d 50 01             	lea    0x1(%rax),%edx
    8d2f:	48 8b 85 70 fb ff ff 	mov    -0x490(%rbp),%rax
    8d36:	88 10                	mov    %dl,(%rax)
    8d38:	48 8b 85 70 fb ff ff 	mov    -0x490(%rbp),%rax
    8d3f:	0f b6 00             	movzbl (%rax),%eax
    8d42:	0f b6 d0             	movzbl %al,%edx
    8d45:	48 8b 05 fc b8 00 00 	mov    0xb8fc(%rip),%rax        # 14648 <g_143>
    8d4c:	0f b6 00             	movzbl (%rax),%eax
    8d4f:	0f b6 c0             	movzbl %al,%eax
    8d52:	89 d6                	mov    %edx,%esi
    8d54:	89 c7                	mov    %eax,%edi
    8d56:	e8 ff dd ff ff       	callq  6b5a <safe_add_func_uint8_t_u_u>
    8d5b:	0f b6 c0             	movzbl %al,%eax
    8d5e:	be 0b 00 00 00       	mov    $0xb,%esi
    8d63:	89 c7                	mov    %eax,%edi
    8d65:	e8 f9 d7 ff ff       	callq  6563 <safe_rshift_func_int16_t_s_u>
    8d6a:	98                   	cwtl   
    8d6b:	be c2 08 00 00       	mov    $0x8c2,%esi
    8d70:	89 c7                	mov    %eax,%edi
    8d72:	e8 7e d6 ff ff       	callq  63f5 <safe_mul_func_int16_t_s_s>
    8d77:	48 8b 85 18 fb ff ff 	mov    -0x4e8(%rbp),%rax
    8d7e:	48 89 85 18 fb ff ff 	mov    %rax,-0x4e8(%rbp)
    8d85:	48 8b 85 18 fb ff ff 	mov    -0x4e8(%rbp),%rax
    8d8c:	48 85 c0             	test   %rax,%rax
    8d8f:	74 07                	je     8d98 <func_52+0x722>
    8d91:	b8 01 00 00 00       	mov    $0x1,%eax
    8d96:	eb 05                	jmp    8d9d <func_52+0x727>
    8d98:	b8 00 00 00 00       	mov    $0x0,%eax
    8d9d:	88 05 09 c7 00 00    	mov    %al,0xc709(%rip)        # 154ac <g_117>
    8da3:	0f b6 05 02 c7 00 00 	movzbl 0xc702(%rip),%eax        # 154ac <g_117>
    8daa:	0f be d0             	movsbl %al,%edx
    8dad:	8b 05 19 a3 00 00    	mov    0xa319(%rip),%eax        # 130cc <g_857>
    8db3:	39 c2                	cmp    %eax,%edx
    8db5:	48 8b 05 04 a3 00 00 	mov    0xa304(%rip),%rax        # 130c0 <g_636>
    8dbc:	48 83 f8 fe          	cmp    $0xfffffffffffffffe,%rax
    8dc0:	0f 95 c0             	setne  %al
    8dc3:	0f b6 c0             	movzbl %al,%eax
    8dc6:	be 00 00 00 00       	mov    $0x0,%esi
    8dcb:	89 c7                	mov    %eax,%edi
    8dcd:	e8 e6 e0 ff ff       	callq  6eb8 <safe_add_func_uint32_t_u_u>
    8dd2:	0f b7 c8             	movzwl %ax,%ecx
    8dd5:	48 8b 85 f8 fa ff ff 	mov    -0x508(%rbp),%rax
    8ddc:	48 8b 00             	mov    (%rax),%rax
    8ddf:	0f b7 10             	movzwl (%rax),%edx
    8de2:	8d 72 01             	lea    0x1(%rdx),%esi
    8de5:	66 89 30             	mov    %si,(%rax)
    8de8:	0f b7 c2             	movzwl %dx,%eax
    8deb:	89 ce                	mov    %ecx,%esi
    8ded:	89 c7                	mov    %eax,%edi
    8def:	e8 2b df ff ff       	callq  6d1f <safe_sub_func_uint16_t_u_u>
    8df4:	0f b6 c0             	movzbl %al,%eax
    8df7:	be a5 00 00 00       	mov    $0xa5,%esi
    8dfc:	89 c7                	mov    %eax,%edi
    8dfe:	e8 57 dd ff ff       	callq  6b5a <safe_add_func_uint8_t_u_u>
    8e03:	48 8b 05 5e c2 00 00 	mov    0xc25e(%rip),%rax        # 15068 <g_859>
    8e0a:	48 8b 95 58 fb ff ff 	mov    -0x4a8(%rbp),%rdx
    8e11:	48 89 10             	mov    %rdx,(%rax)
    8e14:	c6 05 1d a2 00 00 e3 	movb   $0xe3,0xa21d(%rip)        # 13038 <g_110>
    8e1b:	90                   	nop
    8e1c:	0f b6 05 15 a2 00 00 	movzbl 0xa215(%rip),%eax        # 13038 <g_110>
    8e23:	3c 2b                	cmp    $0x2b,%al
    8e25:	74 0c                	je     8e33 <func_52+0x7bd>
    8e27:	48 8b 05 2a c2 00 00 	mov    0xc22a(%rip),%rax        # 15058 <g_815>
    8e2e:	48 8b 00             	mov    (%rax),%rax
    8e31:	eb 12                	jmp    8e45 <func_52+0x7cf>
    8e33:	66 83 85 d2 fa ff ff 	addw   $0x1,-0x52e(%rbp)
    8e3a:	01 
    8e3b:	48 8b 05 16 c2 00 00 	mov    0xc216(%rip),%rax        # 15058 <g_815>
    8e42:	48 8b 00             	mov    (%rax),%rax
    8e45:	48 8b 5d d8          	mov    -0x28(%rbp),%rbx
    8e49:	64 48 33 1c 25 28 00 	xor    %fs:0x28,%rbx
    8e50:	00 00 
    8e52:	74 05                	je     8e59 <func_52+0x7e3>
    8e54:	e8 17 d2 ff ff       	callq  6070 <__stack_chk_fail@plt>
    8e59:	48 81 c4 20 05 00 00 	add    $0x520,%rsp
    8e60:	5b                   	pop    %rbx
    8e61:	41 5c                	pop    %r12
    8e63:	41 5d                	pop    %r13
    8e65:	41 5e                	pop    %r14
    8e67:	5d                   	pop    %rbp
    8e68:	c3                   	retq   

0000000000008e69 <func_58>:
    8e69:	f3 0f 1e fa          	endbr64 
    8e6d:	55                   	push   %rbp
    8e6e:	48 89 e5             	mov    %rsp,%rbp
    8e71:	53                   	push   %rbx
    8e72:	48 81 ec e8 0a 00 00 	sub    $0xae8,%rsp
    8e79:	48 89 bd 28 f5 ff ff 	mov    %rdi,-0xad8(%rbp)
    8e80:	48 89 b5 20 f5 ff ff 	mov    %rsi,-0xae0(%rbp)
    8e87:	89 d0                	mov    %edx,%eax
    8e89:	48 89 8d 10 f5 ff ff 	mov    %rcx,-0xaf0(%rbp)
    8e90:	88 85 1c f5 ff ff    	mov    %al,-0xae4(%rbp)
    8e96:	64 48 8b 04 25 28 00 	mov    %fs:0x28,%rax
    8e9d:	00 00 
    8e9f:	48 89 45 e8          	mov    %rax,-0x18(%rbp)
    8ea3:	31 c0                	xor    %eax,%eax
    8ea5:	48 b8 78 f7 cf f5 e5 	movabs $0xa79f39e5f5cff778,%rax
    8eac:	39 9f a7 
    8eaf:	48 89 85 78 f5 ff ff 	mov    %rax,-0xa88(%rbp)
    8eb6:	48 8d 05 83 a1 00 00 	lea    0xa183(%rip),%rax        # 13040 <g_159>
    8ebd:	48 89 85 58 f5 ff ff 	mov    %rax,-0xaa8(%rbp)
    8ec4:	48 8d 85 58 f5 ff ff 	lea    -0xaa8(%rbp),%rax
    8ecb:	48 89 85 80 f5 ff ff 	mov    %rax,-0xa80(%rbp)
    8ed2:	48 8d 85 58 f5 ff ff 	lea    -0xaa8(%rbp),%rax
    8ed9:	48 89 85 88 f5 ff ff 	mov    %rax,-0xa78(%rbp)
    8ee0:	66 c7 85 32 f5 ff ff 	movw   $0x0,-0xace(%rbp)
    8ee7:	00 00 
    8ee9:	c7 85 3c f5 ff ff f8 	movl   $0xfffffff8,-0xac4(%rbp)
    8ef0:	ff ff ff 
    8ef3:	48 8d 85 00 f9 ff ff 	lea    -0x700(%rbp),%rax
    8efa:	48 8d 15 9f 66 00 00 	lea    0x669f(%rip),%rdx        # f5a0 <g_66+0x54c>
    8f01:	b9 3c 00 00 00       	mov    $0x3c,%ecx
    8f06:	48 89 c7             	mov    %rax,%rdi
    8f09:	48 89 d6             	mov    %rdx,%rsi
    8f0c:	f3 48 a5             	rep movsq %ds:(%rsi),%es:(%rdi)
    8f0f:	c7 85 34 f5 ff ff 00 	movl   $0x0,-0xacc(%rbp)
    8f16:	00 00 00 
    8f19:	eb 4c                	jmp    8f67 <func_58+0xfe>
    8f1b:	c7 85 38 f5 ff ff 00 	movl   $0x0,-0xac8(%rbp)
    8f22:	00 00 00 
    8f25:	eb 30                	jmp    8f57 <func_58+0xee>
    8f27:	8b 85 38 f5 ff ff    	mov    -0xac8(%rbp),%eax
    8f2d:	48 63 c8             	movslq %eax,%rcx
    8f30:	8b 85 34 f5 ff ff    	mov    -0xacc(%rbp),%eax
    8f36:	48 63 d0             	movslq %eax,%rdx
    8f39:	48 89 d0             	mov    %rdx,%rax
    8f3c:	48 01 c0             	add    %rax,%rax
    8f3f:	48 01 d0             	add    %rdx,%rax
    8f42:	48 01 c8             	add    %rcx,%rax
    8f45:	c7 84 85 30 f6 ff ff 	movl   $0xcfff6951,-0x9d0(%rbp,%rax,4)
    8f4c:	51 69 ff cf 
    8f50:	83 85 38 f5 ff ff 01 	addl   $0x1,-0xac8(%rbp)
    8f57:	83 bd 38 f5 ff ff 02 	cmpl   $0x2,-0xac8(%rbp)
    8f5e:	7e c7                	jle    8f27 <func_58+0xbe>
    8f60:	83 85 34 f5 ff ff 01 	addl   $0x1,-0xacc(%rbp)
    8f67:	83 bd 34 f5 ff ff 04 	cmpl   $0x4,-0xacc(%rbp)
    8f6e:	7e ab                	jle    8f1b <func_58+0xb2>
    8f70:	48 8b 85 80 f5 ff ff 	mov    -0xa80(%rbp),%rax
    8f77:	48 3b 85 88 f5 ff ff 	cmp    -0xa78(%rbp),%rax
    8f7e:	0f 95 c0             	setne  %al
    8f81:	0f b6 c0             	movzbl %al,%eax
    8f84:	48 c7 85 78 f5 ff ff 	movq   $0x1,-0xa88(%rbp)
    8f8b:	01 00 00 00 
    8f8f:	89 c6                	mov    %eax,%esi
    8f91:	bf 01 00 00 00       	mov    $0x1,%edi
    8f96:	e8 6a d6 ff ff       	callq  6605 <safe_sub_func_int32_t_s_s>
    8f9b:	85 c0                	test   %eax,%eax
    8f9d:	0f 84 f6 09 00 00    	je     9999 <func_58+0xb30>
    8fa3:	48 c7 85 d0 f5 ff ff 	movq   $0x0,-0xa30(%rbp)
    8faa:	00 00 00 00 
    8fae:	48 8d 05 93 a0 00 00 	lea    0xa093(%rip),%rax        # 13048 <g_172>
    8fb5:	48 89 85 d8 f5 ff ff 	mov    %rax,-0xa28(%rbp)
    8fbc:	48 c7 85 e0 f5 ff ff 	movq   $0x0,-0xa20(%rbp)
    8fc3:	00 00 00 00 
    8fc7:	48 8d 85 30 f6 ff ff 	lea    -0x9d0(%rbp),%rax
    8fce:	48 83 c0 18          	add    $0x18,%rax
    8fd2:	48 89 85 e8 f5 ff ff 	mov    %rax,-0xa18(%rbp)
    8fd9:	48 8d 85 30 f6 ff ff 	lea    -0x9d0(%rbp),%rax
    8fe0:	48 83 c0 18          	add    $0x18,%rax
    8fe4:	48 89 85 f0 f5 ff ff 	mov    %rax,-0xa10(%rbp)
    8feb:	48 8d 05 7a a0 00 00 	lea    0xa07a(%rip),%rax        # 1306c <g_228>
    8ff2:	48 89 85 f8 f5 ff ff 	mov    %rax,-0xa08(%rbp)
    8ff9:	48 8d 05 80 a0 00 00 	lea    0xa080(%rip),%rax        # 13080 <g_230>
    9000:	48 89 85 00 f6 ff ff 	mov    %rax,-0xa00(%rbp)
    9007:	48 8d 05 9a c4 00 00 	lea    0xc49a(%rip),%rax        # 154a8 <g_7>
    900e:	48 89 85 10 fd ff ff 	mov    %rax,-0x2f0(%rbp)
    9015:	48 8d 05 64 a0 00 00 	lea    0xa064(%rip),%rax        # 13080 <g_230>
    901c:	48 89 85 18 fd ff ff 	mov    %rax,-0x2e8(%rbp)
    9023:	48 8d 05 7e c4 00 00 	lea    0xc47e(%rip),%rax        # 154a8 <g_7>
    902a:	48 89 85 20 fd ff ff 	mov    %rax,-0x2e0(%rbp)
    9031:	48 c7 85 28 fd ff ff 	movq   $0x0,-0x2d8(%rbp)
    9038:	00 00 00 00 
    903c:	48 c7 85 30 fd ff ff 	movq   $0x0,-0x2d0(%rbp)
    9043:	00 00 00 00 
    9047:	48 c7 85 38 fd ff ff 	movq   $0x0,-0x2c8(%rbp)
    904e:	00 00 00 00 
    9052:	48 8d 05 4f c4 00 00 	lea    0xc44f(%rip),%rax        # 154a8 <g_7>
    9059:	48 89 85 40 fd ff ff 	mov    %rax,-0x2c0(%rbp)
    9060:	48 8d 05 19 a0 00 00 	lea    0xa019(%rip),%rax        # 13080 <g_230>
    9067:	48 89 85 48 fd ff ff 	mov    %rax,-0x2b8(%rbp)
    906e:	48 8d 05 33 c4 00 00 	lea    0xc433(%rip),%rax        # 154a8 <g_7>
    9075:	48 89 85 50 fd ff ff 	mov    %rax,-0x2b0(%rbp)
    907c:	48 8d 85 30 f6 ff ff 	lea    -0x9d0(%rbp),%rax
    9083:	48 83 c0 18          	add    $0x18,%rax
    9087:	48 89 85 58 fd ff ff 	mov    %rax,-0x2a8(%rbp)
    908e:	48 8d 05 13 c4 00 00 	lea    0xc413(%rip),%rax        # 154a8 <g_7>
    9095:	48 89 85 60 fd ff ff 	mov    %rax,-0x2a0(%rbp)
    909c:	48 8d 05 05 c4 00 00 	lea    0xc405(%rip),%rax        # 154a8 <g_7>
    90a3:	48 89 85 68 fd ff ff 	mov    %rax,-0x298(%rbp)
    90aa:	48 8d 05 f7 c3 00 00 	lea    0xc3f7(%rip),%rax        # 154a8 <g_7>
    90b1:	48 89 85 70 fd ff ff 	mov    %rax,-0x290(%rbp)
    90b8:	48 8d 05 e9 c3 00 00 	lea    0xc3e9(%rip),%rax        # 154a8 <g_7>
    90bf:	48 89 85 78 fd ff ff 	mov    %rax,-0x288(%rbp)
    90c6:	48 8d 85 30 f6 ff ff 	lea    -0x9d0(%rbp),%rax
    90cd:	48 83 c0 18          	add    $0x18,%rax
    90d1:	48 89 85 80 fd ff ff 	mov    %rax,-0x280(%rbp)
    90d8:	48 8d 05 c9 c3 00 00 	lea    0xc3c9(%rip),%rax        # 154a8 <g_7>
    90df:	48 89 85 88 fd ff ff 	mov    %rax,-0x278(%rbp)
    90e6:	48 8d 05 bb c3 00 00 	lea    0xc3bb(%rip),%rax        # 154a8 <g_7>
    90ed:	48 89 85 90 fd ff ff 	mov    %rax,-0x270(%rbp)
    90f4:	48 8d 85 30 f6 ff ff 	lea    -0x9d0(%rbp),%rax
    90fb:	48 83 c0 18          	add    $0x18,%rax
    90ff:	48 89 85 98 fd ff ff 	mov    %rax,-0x268(%rbp)
    9106:	48 8d 05 5f 9f 00 00 	lea    0x9f5f(%rip),%rax        # 1306c <g_228>
    910d:	48 89 85 a0 fd ff ff 	mov    %rax,-0x260(%rbp)
    9114:	48 8d 05 65 9f 00 00 	lea    0x9f65(%rip),%rax        # 13080 <g_230>
    911b:	48 89 85 a8 fd ff ff 	mov    %rax,-0x258(%rbp)
    9122:	48 8d 05 43 9f 00 00 	lea    0x9f43(%rip),%rax        # 1306c <g_228>
    9129:	48 89 85 b0 fd ff ff 	mov    %rax,-0x250(%rbp)
    9130:	48 c7 85 b8 fd ff ff 	movq   $0x0,-0x248(%rbp)
    9137:	00 00 00 00 
    913b:	48 8d 05 e2 9e 00 00 	lea    0x9ee2(%rip),%rax        # 13024 <g_9>
    9142:	48 89 85 c0 fd ff ff 	mov    %rax,-0x240(%rbp)
    9149:	48 c7 85 c8 fd ff ff 	movq   $0x0,-0x238(%rbp)
    9150:	00 00 00 00 
    9154:	48 8d 05 11 9f 00 00 	lea    0x9f11(%rip),%rax        # 1306c <g_228>
    915b:	48 89 85 d0 fd ff ff 	mov    %rax,-0x230(%rbp)
    9162:	48 8d 05 17 9f 00 00 	lea    0x9f17(%rip),%rax        # 13080 <g_230>
    9169:	48 89 85 d8 fd ff ff 	mov    %rax,-0x228(%rbp)
    9170:	48 8d 05 f5 9e 00 00 	lea    0x9ef5(%rip),%rax        # 1306c <g_228>
    9177:	48 89 85 e0 fd ff ff 	mov    %rax,-0x220(%rbp)
    917e:	48 8d 85 30 f6 ff ff 	lea    -0x9d0(%rbp),%rax
    9185:	48 83 c0 18          	add    $0x18,%rax
    9189:	48 89 85 e8 fd ff ff 	mov    %rax,-0x218(%rbp)
    9190:	48 8d 05 11 c3 00 00 	lea    0xc311(%rip),%rax        # 154a8 <g_7>
    9197:	48 89 85 f0 fd ff ff 	mov    %rax,-0x210(%rbp)
    919e:	48 8d 05 03 c3 00 00 	lea    0xc303(%rip),%rax        # 154a8 <g_7>
    91a5:	48 89 85 f8 fd ff ff 	mov    %rax,-0x208(%rbp)
    91ac:	48 8d 85 30 f6 ff ff 	lea    -0x9d0(%rbp),%rax
    91b3:	48 83 c0 18          	add    $0x18,%rax
    91b7:	48 89 85 00 fe ff ff 	mov    %rax,-0x200(%rbp)
    91be:	48 8d 05 e3 c2 00 00 	lea    0xc2e3(%rip),%rax        # 154a8 <g_7>
    91c5:	48 89 85 08 fe ff ff 	mov    %rax,-0x1f8(%rbp)
    91cc:	48 8d 05 d5 c2 00 00 	lea    0xc2d5(%rip),%rax        # 154a8 <g_7>
    91d3:	48 89 85 10 fe ff ff 	mov    %rax,-0x1f0(%rbp)
    91da:	48 8d 05 c7 c2 00 00 	lea    0xc2c7(%rip),%rax        # 154a8 <g_7>
    91e1:	48 89 85 18 fe ff ff 	mov    %rax,-0x1e8(%rbp)
    91e8:	48 8d 05 b9 c2 00 00 	lea    0xc2b9(%rip),%rax        # 154a8 <g_7>
    91ef:	48 89 85 20 fe ff ff 	mov    %rax,-0x1e0(%rbp)
    91f6:	48 8d 85 30 f6 ff ff 	lea    -0x9d0(%rbp),%rax
    91fd:	48 83 c0 18          	add    $0x18,%rax
    9201:	48 89 85 28 fe ff ff 	mov    %rax,-0x1d8(%rbp)
    9208:	48 8d 05 99 c2 00 00 	lea    0xc299(%rip),%rax        # 154a8 <g_7>
    920f:	48 89 85 30 fe ff ff 	mov    %rax,-0x1d0(%rbp)
    9216:	48 8d 05 63 9e 00 00 	lea    0x9e63(%rip),%rax        # 13080 <g_230>
    921d:	48 89 85 38 fe ff ff 	mov    %rax,-0x1c8(%rbp)
    9224:	48 8d 05 7d c2 00 00 	lea    0xc27d(%rip),%rax        # 154a8 <g_7>
    922b:	48 89 85 40 fe ff ff 	mov    %rax,-0x1c0(%rbp)
    9232:	48 c7 85 48 fe ff ff 	movq   $0x0,-0x1b8(%rbp)
    9239:	00 00 00 00 
    923d:	48 c7 85 50 fe ff ff 	movq   $0x0,-0x1b0(%rbp)
    9244:	00 00 00 00 
    9248:	48 c7 85 58 fe ff ff 	movq   $0x0,-0x1a8(%rbp)
    924f:	00 00 00 00 
    9253:	48 8d 05 4e c2 00 00 	lea    0xc24e(%rip),%rax        # 154a8 <g_7>
    925a:	48 89 85 60 fe ff ff 	mov    %rax,-0x1a0(%rbp)
    9261:	48 8d 05 18 9e 00 00 	lea    0x9e18(%rip),%rax        # 13080 <g_230>
    9268:	48 89 85 68 fe ff ff 	mov    %rax,-0x198(%rbp)
    926f:	48 8d 05 32 c2 00 00 	lea    0xc232(%rip),%rax        # 154a8 <g_7>
    9276:	48 89 85 70 fe ff ff 	mov    %rax,-0x190(%rbp)
    927d:	48 8d 85 30 f6 ff ff 	lea    -0x9d0(%rbp),%rax
    9284:	48 83 c0 18          	add    $0x18,%rax
    9288:	48 89 85 78 fe ff ff 	mov    %rax,-0x188(%rbp)
    928f:	48 8d 05 12 c2 00 00 	lea    0xc212(%rip),%rax        # 154a8 <g_7>
    9296:	48 89 85 80 fe ff ff 	mov    %rax,-0x180(%rbp)
    929d:	48 8d 05 04 c2 00 00 	lea    0xc204(%rip),%rax        # 154a8 <g_7>
    92a4:	48 89 85 88 fe ff ff 	mov    %rax,-0x178(%rbp)
    92ab:	48 8d 05 f6 c1 00 00 	lea    0xc1f6(%rip),%rax        # 154a8 <g_7>
    92b2:	48 89 85 90 fe ff ff 	mov    %rax,-0x170(%rbp)
    92b9:	48 8d 05 e8 c1 00 00 	lea    0xc1e8(%rip),%rax        # 154a8 <g_7>
    92c0:	48 89 85 98 fe ff ff 	mov    %rax,-0x168(%rbp)
    92c7:	48 8d 85 30 f6 ff ff 	lea    -0x9d0(%rbp),%rax
    92ce:	48 83 c0 18          	add    $0x18,%rax
    92d2:	48 89 85 a0 fe ff ff 	mov    %rax,-0x160(%rbp)
    92d9:	48 8d 05 c8 c1 00 00 	lea    0xc1c8(%rip),%rax        # 154a8 <g_7>
    92e0:	48 89 85 a8 fe ff ff 	mov    %rax,-0x158(%rbp)
    92e7:	48 8d 05 ba c1 00 00 	lea    0xc1ba(%rip),%rax        # 154a8 <g_7>
    92ee:	48 89 85 b0 fe ff ff 	mov    %rax,-0x150(%rbp)
    92f5:	48 8d 85 30 f6 ff ff 	lea    -0x9d0(%rbp),%rax
    92fc:	48 83 c0 18          	add    $0x18,%rax
    9300:	48 89 85 b8 fe ff ff 	mov    %rax,-0x148(%rbp)
    9307:	48 8d 05 5e 9d 00 00 	lea    0x9d5e(%rip),%rax        # 1306c <g_228>
    930e:	48 89 85 c0 fe ff ff 	mov    %rax,-0x140(%rbp)
    9315:	48 8d 05 64 9d 00 00 	lea    0x9d64(%rip),%rax        # 13080 <g_230>
    931c:	48 89 85 c8 fe ff ff 	mov    %rax,-0x138(%rbp)
    9323:	48 8d 05 42 9d 00 00 	lea    0x9d42(%rip),%rax        # 1306c <g_228>
    932a:	48 89 85 d0 fe ff ff 	mov    %rax,-0x130(%rbp)
    9331:	48 c7 85 d8 fe ff ff 	movq   $0x0,-0x128(%rbp)
    9338:	00 00 00 00 
    933c:	48 8d 05 e1 9c 00 00 	lea    0x9ce1(%rip),%rax        # 13024 <g_9>
    9343:	48 89 85 e0 fe ff ff 	mov    %rax,-0x120(%rbp)
    934a:	48 c7 85 e8 fe ff ff 	movq   $0x0,-0x118(%rbp)
    9351:	00 00 00 00 
    9355:	48 8d 05 10 9d 00 00 	lea    0x9d10(%rip),%rax        # 1306c <g_228>
    935c:	48 89 85 f0 fe ff ff 	mov    %rax,-0x110(%rbp)
    9363:	48 8d 05 16 9d 00 00 	lea    0x9d16(%rip),%rax        # 13080 <g_230>
    936a:	48 89 85 f8 fe ff ff 	mov    %rax,-0x108(%rbp)
    9371:	48 8d 05 f4 9c 00 00 	lea    0x9cf4(%rip),%rax        # 1306c <g_228>
    9378:	48 89 85 00 ff ff ff 	mov    %rax,-0x100(%rbp)
    937f:	48 8d 85 30 f6 ff ff 	lea    -0x9d0(%rbp),%rax
    9386:	48 83 c0 18          	add    $0x18,%rax
    938a:	48 89 85 08 ff ff ff 	mov    %rax,-0xf8(%rbp)
    9391:	48 8d 05 10 c1 00 00 	lea    0xc110(%rip),%rax        # 154a8 <g_7>
    9398:	48 89 85 10 ff ff ff 	mov    %rax,-0xf0(%rbp)
    939f:	48 8d 05 02 c1 00 00 	lea    0xc102(%rip),%rax        # 154a8 <g_7>
    93a6:	48 89 85 18 ff ff ff 	mov    %rax,-0xe8(%rbp)
    93ad:	48 8d 85 30 f6 ff ff 	lea    -0x9d0(%rbp),%rax
    93b4:	48 83 c0 18          	add    $0x18,%rax
    93b8:	48 89 85 20 ff ff ff 	mov    %rax,-0xe0(%rbp)
    93bf:	48 8d 05 e2 c0 00 00 	lea    0xc0e2(%rip),%rax        # 154a8 <g_7>
    93c6:	48 89 85 28 ff ff ff 	mov    %rax,-0xd8(%rbp)
    93cd:	48 8d 05 d4 c0 00 00 	lea    0xc0d4(%rip),%rax        # 154a8 <g_7>
    93d4:	48 89 85 30 ff ff ff 	mov    %rax,-0xd0(%rbp)
    93db:	48 8d 05 c6 c0 00 00 	lea    0xc0c6(%rip),%rax        # 154a8 <g_7>
    93e2:	48 89 85 38 ff ff ff 	mov    %rax,-0xc8(%rbp)
    93e9:	48 8d 05 b8 c0 00 00 	lea    0xc0b8(%rip),%rax        # 154a8 <g_7>
    93f0:	48 89 85 40 ff ff ff 	mov    %rax,-0xc0(%rbp)
    93f7:	48 8d 85 30 f6 ff ff 	lea    -0x9d0(%rbp),%rax
    93fe:	48 83 c0 18          	add    $0x18,%rax
    9402:	48 89 85 48 ff ff ff 	mov    %rax,-0xb8(%rbp)
    9409:	48 8d 05 98 c0 00 00 	lea    0xc098(%rip),%rax        # 154a8 <g_7>
    9410:	48 89 85 50 ff ff ff 	mov    %rax,-0xb0(%rbp)
    9417:	48 8d 05 62 9c 00 00 	lea    0x9c62(%rip),%rax        # 13080 <g_230>
    941e:	48 89 85 58 ff ff ff 	mov    %rax,-0xa8(%rbp)
    9425:	48 8d 05 7c c0 00 00 	lea    0xc07c(%rip),%rax        # 154a8 <g_7>
    942c:	48 89 85 60 ff ff ff 	mov    %rax,-0xa0(%rbp)
    9433:	48 c7 85 68 ff ff ff 	movq   $0x0,-0x98(%rbp)
    943a:	00 00 00 00 
    943e:	48 c7 85 70 ff ff ff 	movq   $0x0,-0x90(%rbp)
    9445:	00 00 00 00 
    9449:	48 c7 85 78 ff ff ff 	movq   $0x0,-0x88(%rbp)
    9450:	00 00 00 00 
    9454:	48 8d 05 4d c0 00 00 	lea    0xc04d(%rip),%rax        # 154a8 <g_7>
    945b:	48 89 45 80          	mov    %rax,-0x80(%rbp)
    945f:	48 8d 05 1a 9c 00 00 	lea    0x9c1a(%rip),%rax        # 13080 <g_230>
    9466:	48 89 45 88          	mov    %rax,-0x78(%rbp)
    946a:	48 8d 05 37 c0 00 00 	lea    0xc037(%rip),%rax        # 154a8 <g_7>
    9471:	48 89 45 90          	mov    %rax,-0x70(%rbp)
    9475:	48 8d 85 30 f6 ff ff 	lea    -0x9d0(%rbp),%rax
    947c:	48 83 c0 18          	add    $0x18,%rax
    9480:	48 89 45 98          	mov    %rax,-0x68(%rbp)
    9484:	48 8d 05 1d c0 00 00 	lea    0xc01d(%rip),%rax        # 154a8 <g_7>
    948b:	48 89 45 a0          	mov    %rax,-0x60(%rbp)
    948f:	48 8d 05 12 c0 00 00 	lea    0xc012(%rip),%rax        # 154a8 <g_7>
    9496:	48 89 45 a8          	mov    %rax,-0x58(%rbp)
    949a:	48 8d 05 07 c0 00 00 	lea    0xc007(%rip),%rax        # 154a8 <g_7>
    94a1:	48 89 45 b0          	mov    %rax,-0x50(%rbp)
    94a5:	48 8d 05 fc bf 00 00 	lea    0xbffc(%rip),%rax        # 154a8 <g_7>
    94ac:	48 89 45 b8          	mov    %rax,-0x48(%rbp)
    94b0:	48 8d 85 30 f6 ff ff 	lea    -0x9d0(%rbp),%rax
    94b7:	48 83 c0 18          	add    $0x18,%rax
    94bb:	48 89 45 c0          	mov    %rax,-0x40(%rbp)
    94bf:	48 8d 05 e2 bf 00 00 	lea    0xbfe2(%rip),%rax        # 154a8 <g_7>
    94c6:	48 89 45 c8          	mov    %rax,-0x38(%rbp)
    94ca:	48 8d 05 d7 bf 00 00 	lea    0xbfd7(%rip),%rax        # 154a8 <g_7>
    94d1:	48 89 45 d0          	mov    %rax,-0x30(%rbp)
    94d5:	48 8d 85 30 f6 ff ff 	lea    -0x9d0(%rbp),%rax
    94dc:	48 83 c0 18          	add    $0x18,%rax
    94e0:	48 89 45 d8          	mov    %rax,-0x28(%rbp)
    94e4:	48 8d 85 c0 f7 ff ff 	lea    -0x840(%rbp),%rax
    94eb:	48 8d 15 8e 62 00 00 	lea    0x628e(%rip),%rdx        # f780 <g_66+0x72c>
    94f2:	b9 28 00 00 00       	mov    $0x28,%ecx
    94f7:	48 89 c7             	mov    %rax,%rdi
    94fa:	48 89 d6             	mov    %rdx,%rsi
    94fd:	f3 48 a5             	rep movsq %ds:(%rsi),%es:(%rdi)
    9500:	c7 85 48 f5 ff ff ee 	movl   $0x8b68a3ee,-0xab8(%rbp)
    9507:	a3 68 8b 
    950a:	0f b7 85 76 fa ff ff 	movzwl -0x58a(%rbp),%eax
    9511:	83 e8 01             	sub    $0x1,%eax
    9514:	66 89 85 76 fa ff ff 	mov    %ax,-0x58a(%rbp)
    951b:	c7 05 23 9b 00 00 0d 	movl   $0xd,0x9b23(%rip)        # 13048 <g_172>
    9522:	00 00 00 
    9525:	90                   	nop
    9526:	8b 05 1c 9b 00 00    	mov    0x9b1c(%rip),%eax        # 13048 <g_172>
    952c:	83 f8 15             	cmp    $0x15,%eax
    952f:	0f 84 39 07 00 00    	je     9c6e <func_58+0xe05>
    9535:	48 8d 85 e0 fa ff ff 	lea    -0x520(%rbp),%rax
    953c:	48 8d 15 7d 63 00 00 	lea    0x637d(%rip),%rdx        # f8c0 <g_66+0x86c>
    9543:	b9 46 00 00 00       	mov    $0x46,%ecx
    9548:	48 89 c7             	mov    %rax,%rdi
    954b:	48 89 d6             	mov    %rdx,%rsi
    954e:	f3 48 a5             	rep movsq %ds:(%rsi),%es:(%rdi)
    9551:	c7 85 4c f5 ff ff f6 	movl   $0xfffffff6,-0xab4(%rbp)
    9558:	ff ff ff 
    955b:	48 b8 68 8f 80 44 25 	movabs $0x749d132544808f68,%rax
    9562:	13 9d 74 
    9565:	48 89 85 08 f6 ff ff 	mov    %rax,-0x9f8(%rbp)
    956c:	c7 85 50 f5 ff ff f8 	movl   $0xfffffff8,-0xab0(%rbp)
    9573:	ff ff ff 
    9576:	c7 85 00 f7 ff ff 70 	movl   $0x41f0bb70,-0x900(%rbp)
    957d:	bb f0 41 
    9580:	c7 85 04 f7 ff ff 78 	movl   $0xc27e7478,-0x8fc(%rbp)
    9587:	74 7e c2 
    958a:	c7 85 08 f7 ff ff 70 	movl   $0x41f0bb70,-0x8f8(%rbp)
    9591:	bb f0 41 
    9594:	c7 85 0c f7 ff ff 70 	movl   $0x41f0bb70,-0x8f4(%rbp)
    959b:	bb f0 41 
    959e:	c7 85 10 f7 ff ff 78 	movl   $0xc27e7478,-0x8f0(%rbp)
    95a5:	74 7e c2 
    95a8:	c7 85 14 f7 ff ff 78 	movl   $0xc27e7478,-0x8ec(%rbp)
    95af:	74 7e c2 
    95b2:	c7 85 18 f7 ff ff 77 	movl   $0xa9f9e177,-0x8e8(%rbp)
    95b9:	e1 f9 a9 
    95bc:	c7 85 1c f7 ff ff 78 	movl   $0xc27e7478,-0x8e4(%rbp)
    95c3:	74 7e c2 
    95c6:	c7 85 20 f7 ff ff 78 	movl   $0xc27e7478,-0x8e0(%rbp)
    95cd:	74 7e c2 
    95d0:	c7 85 24 f7 ff ff 70 	movl   $0x41f0bb70,-0x8dc(%rbp)
    95d7:	bb f0 41 
    95da:	c7 85 28 f7 ff ff 70 	movl   $0x41f0bb70,-0x8d8(%rbp)
    95e1:	bb f0 41 
    95e4:	c7 85 2c f7 ff ff 78 	movl   $0xc27e7478,-0x8d4(%rbp)
    95eb:	74 7e c2 
    95ee:	c7 85 30 f7 ff ff 70 	movl   $0x41f0bb70,-0x8d0(%rbp)
    95f5:	bb f0 41 
    95f8:	c7 85 34 f7 ff ff 78 	movl   $0xc27e7478,-0x8cc(%rbp)
    95ff:	74 7e c2 
    9602:	c7 85 38 f7 ff ff 70 	movl   $0x41f0bb70,-0x8c8(%rbp)
    9609:	bb f0 41 
    960c:	c7 85 3c f7 ff ff 70 	movl   $0x41f0bb70,-0x8c4(%rbp)
    9613:	bb f0 41 
    9616:	c7 85 40 f7 ff ff 78 	movl   $0xc27e7478,-0x8c0(%rbp)
    961d:	74 7e c2 
    9620:	c7 85 44 f7 ff ff 78 	movl   $0xc27e7478,-0x8bc(%rbp)
    9627:	74 7e c2 
    962a:	c7 85 48 f7 ff ff 77 	movl   $0xa9f9e177,-0x8b8(%rbp)
    9631:	e1 f9 a9 
    9634:	c7 85 4c f7 ff ff 78 	movl   $0xc27e7478,-0x8b4(%rbp)
    963b:	74 7e c2 
    963e:	c7 85 50 f7 ff ff 78 	movl   $0xc27e7478,-0x8b0(%rbp)
    9645:	74 7e c2 
    9648:	c7 85 54 f7 ff ff 70 	movl   $0x41f0bb70,-0x8ac(%rbp)
    964f:	bb f0 41 
    9652:	c7 85 58 f7 ff ff 70 	movl   $0x41f0bb70,-0x8a8(%rbp)
    9659:	bb f0 41 
    965c:	c7 85 5c f7 ff ff 78 	movl   $0xc27e7478,-0x8a4(%rbp)
    9663:	74 7e c2 
    9666:	c7 85 60 f7 ff ff 70 	movl   $0x41f0bb70,-0x8a0(%rbp)
    966d:	bb f0 41 
    9670:	c7 85 64 f7 ff ff 78 	movl   $0xc27e7478,-0x89c(%rbp)
    9677:	74 7e c2 
    967a:	c7 85 68 f7 ff ff 70 	movl   $0x41f0bb70,-0x898(%rbp)
    9681:	bb f0 41 
    9684:	c7 85 6c f7 ff ff 70 	movl   $0x41f0bb70,-0x894(%rbp)
    968b:	bb f0 41 
    968e:	c7 85 70 f7 ff ff 78 	movl   $0xc27e7478,-0x890(%rbp)
    9695:	74 7e c2 
    9698:	c7 85 74 f7 ff ff 78 	movl   $0xc27e7478,-0x88c(%rbp)
    969f:	74 7e c2 
    96a2:	c7 85 78 f7 ff ff 77 	movl   $0xa9f9e177,-0x888(%rbp)
    96a9:	e1 f9 a9 
    96ac:	c7 85 7c f7 ff ff 78 	movl   $0xc27e7478,-0x884(%rbp)
    96b3:	74 7e c2 
    96b6:	c7 85 80 f7 ff ff 78 	movl   $0xc27e7478,-0x880(%rbp)
    96bd:	74 7e c2 
    96c0:	c7 85 84 f7 ff ff 70 	movl   $0x41f0bb70,-0x87c(%rbp)
    96c7:	bb f0 41 
    96ca:	c7 85 88 f7 ff ff 70 	movl   $0x41f0bb70,-0x878(%rbp)
    96d1:	bb f0 41 
    96d4:	c7 85 8c f7 ff ff 78 	movl   $0xc27e7478,-0x874(%rbp)
    96db:	74 7e c2 
    96de:	c7 85 90 f7 ff ff 70 	movl   $0x41f0bb70,-0x870(%rbp)
    96e5:	bb f0 41 
    96e8:	c7 85 94 f7 ff ff 78 	movl   $0xc27e7478,-0x86c(%rbp)
    96ef:	74 7e c2 
    96f2:	c7 85 98 f7 ff ff 70 	movl   $0x41f0bb70,-0x868(%rbp)
    96f9:	bb f0 41 
    96fc:	c7 85 9c f7 ff ff 70 	movl   $0x41f0bb70,-0x864(%rbp)
    9703:	bb f0 41 
    9706:	c7 85 a0 f7 ff ff 78 	movl   $0xc27e7478,-0x860(%rbp)
    970d:	74 7e c2 
    9710:	c7 85 a4 f7 ff ff 78 	movl   $0xc27e7478,-0x85c(%rbp)
    9717:	74 7e c2 
    971a:	c7 85 a8 f7 ff ff 77 	movl   $0xa9f9e177,-0x858(%rbp)
    9721:	e1 f9 a9 
    9724:	c7 85 ac f7 ff ff 78 	movl   $0xc27e7478,-0x854(%rbp)
    972b:	74 7e c2 
    972e:	c7 85 b0 f7 ff ff 78 	movl   $0xc27e7478,-0x850(%rbp)
    9735:	74 7e c2 
    9738:	c7 85 b4 f7 ff ff 70 	movl   $0x41f0bb70,-0x84c(%rbp)
    973f:	bb f0 41 
    9742:	c7 85 b8 f7 ff ff 70 	movl   $0x41f0bb70,-0x848(%rbp)
    9749:	bb f0 41 
    974c:	c7 85 bc f7 ff ff 78 	movl   $0xc27e7478,-0x844(%rbp)
    9753:	74 7e c2 
    9756:	c7 45 e2 1b 1b 1b 1b 	movl   $0x1b1b1b1b,-0x1e(%rbp)
    975d:	66 c7 45 e6 1b 1b    	movw   $0x1b1b,-0x1a(%rbp)
    9763:	48 8b 85 f8 fb ff ff 	mov    -0x408(%rbp),%rax
    976a:	48 85 c0             	test   %rax,%rax
    976d:	0f 84 05 02 00 00    	je     9978 <func_58+0xb0f>
    9773:	c6 85 31 f5 ff ff a1 	movb   $0xa1,-0xacf(%rbp)
    977a:	c7 85 70 f6 ff ff fc 	movl   $0xfffffffc,-0x990(%rbp)
    9781:	ff ff ff 
    9784:	c7 85 74 f6 ff ff b9 	movl   $0x3058d5b9,-0x98c(%rbp)
    978b:	d5 58 30 
    978e:	c7 85 78 f6 ff ff b9 	movl   $0x3058d5b9,-0x988(%rbp)
    9795:	d5 58 30 
    9798:	c7 85 7c f6 ff ff fc 	movl   $0xfffffffc,-0x984(%rbp)
    979f:	ff ff ff 
    97a2:	c7 85 80 f6 ff ff 00 	movl   $0x0,-0x980(%rbp)
    97a9:	00 00 00 
    97ac:	c7 85 84 f6 ff ff c2 	movl   $0xbada56c2,-0x97c(%rbp)
    97b3:	56 da ba 
    97b6:	c7 85 88 f6 ff ff 95 	movl   $0xe6a73595,-0x978(%rbp)
    97bd:	35 a7 e6 
    97c0:	c7 85 8c f6 ff ff b9 	movl   $0x3058d5b9,-0x974(%rbp)
    97c7:	d5 58 30 
    97ca:	c7 85 90 f6 ff ff c2 	movl   $0xbada56c2,-0x970(%rbp)
    97d1:	56 da ba 
    97d4:	c7 85 94 f6 ff ff 4b 	movl   $0x5fc0854b,-0x96c(%rbp)
    97db:	85 c0 5f 
    97de:	c7 85 98 f6 ff ff c2 	movl   $0xbada56c2,-0x968(%rbp)
    97e5:	56 da ba 
    97e8:	c7 85 9c f6 ff ff b9 	movl   $0x3058d5b9,-0x964(%rbp)
    97ef:	d5 58 30 
    97f2:	c7 85 a0 f6 ff ff 95 	movl   $0xe6a73595,-0x960(%rbp)
    97f9:	35 a7 e6 
    97fc:	c7 85 a4 f6 ff ff c2 	movl   $0xbada56c2,-0x95c(%rbp)
    9803:	56 da ba 
    9806:	c7 85 a8 f6 ff ff 00 	movl   $0x0,-0x958(%rbp)
    980d:	00 00 00 
    9810:	c7 85 ac f6 ff ff fc 	movl   $0xfffffffc,-0x954(%rbp)
    9817:	ff ff ff 
    981a:	c7 85 b0 f6 ff ff b9 	movl   $0x3058d5b9,-0x950(%rbp)
    9821:	d5 58 30 
    9824:	c7 85 b4 f6 ff ff b9 	movl   $0x3058d5b9,-0x94c(%rbp)
    982b:	d5 58 30 
    982e:	c7 85 b8 f6 ff ff fc 	movl   $0xfffffffc,-0x948(%rbp)
    9835:	ff ff ff 
    9838:	c7 85 bc f6 ff ff 00 	movl   $0x0,-0x944(%rbp)
    983f:	00 00 00 
    9842:	c7 85 c0 f6 ff ff c2 	movl   $0xbada56c2,-0x940(%rbp)
    9849:	56 da ba 
    984c:	c7 85 c4 f6 ff ff 95 	movl   $0xe6a73595,-0x93c(%rbp)
    9853:	35 a7 e6 
    9856:	c7 85 c8 f6 ff ff b9 	movl   $0x3058d5b9,-0x938(%rbp)
    985d:	d5 58 30 
    9860:	c7 85 cc f6 ff ff c2 	movl   $0xbada56c2,-0x934(%rbp)
    9867:	56 da ba 
    986a:	c7 85 d0 f6 ff ff 4b 	movl   $0x5fc0854b,-0x930(%rbp)
    9871:	85 c0 5f 
    9874:	c7 85 d4 f6 ff ff c2 	movl   $0xbada56c2,-0x92c(%rbp)
    987b:	56 da ba 
    987e:	c7 85 d8 f6 ff ff b9 	movl   $0x3058d5b9,-0x928(%rbp)
    9885:	d5 58 30 
    9888:	c7 85 dc f6 ff ff 95 	movl   $0xe6a73595,-0x924(%rbp)
    988f:	35 a7 e6 
    9892:	c7 85 e0 f6 ff ff c2 	movl   $0xbada56c2,-0x920(%rbp)
    9899:	56 da ba 
    989c:	c7 85 e4 f6 ff ff 00 	movl   $0x0,-0x91c(%rbp)
    98a3:	00 00 00 
    98a6:	c7 85 e8 f6 ff ff fc 	movl   $0xfffffffc,-0x918(%rbp)
    98ad:	ff ff ff 
    98b0:	c7 85 ec f6 ff ff b9 	movl   $0x3058d5b9,-0x914(%rbp)
    98b7:	d5 58 30 
    98ba:	c7 85 f0 f6 ff ff b9 	movl   $0x3058d5b9,-0x910(%rbp)
    98c1:	d5 58 30 
    98c4:	c7 85 f4 f6 ff ff fc 	movl   $0xfffffffc,-0x90c(%rbp)
    98cb:	ff ff ff 
    98ce:	c7 85 f8 f6 ff ff 00 	movl   $0x0,-0x908(%rbp)
    98d5:	00 00 00 
    98d8:	c7 85 fc f6 ff ff c2 	movl   $0xbada56c2,-0x904(%rbp)
    98df:	56 da ba 
    98e2:	66 c7 05 cf 97 00 00 	movw   $0xffe7,0x97cf(%rip)        # 130ba <g_456>
    98e9:	e7 ff 
    98eb:	eb 78                	jmp    9965 <func_58+0xafc>
    98ed:	66 c7 85 10 f6 ff ff 	movw   $0xe67c,-0x9f0(%rbp)
    98f4:	7c e6 
    98f6:	66 c7 85 12 f6 ff ff 	movw   $0xfffa,-0x9ee(%rbp)
    98fd:	fa ff 
    98ff:	66 c7 85 14 f6 ff ff 	movw   $0xe67c,-0x9ec(%rbp)
    9906:	7c e6 
    9908:	66 c7 85 16 f6 ff ff 	movw   $0xe67c,-0x9ea(%rbp)
    990f:	7c e6 
    9911:	66 c7 85 18 f6 ff ff 	movw   $0xfffa,-0x9e8(%rbp)
    9918:	fa ff 
    991a:	66 c7 85 1a f6 ff ff 	movw   $0xe67c,-0x9e6(%rbp)
    9921:	7c e6 
    9923:	66 c7 85 1c f6 ff ff 	movw   $0xe67c,-0x9e4(%rbp)
    992a:	7c e6 
    992c:	66 c7 85 1e f6 ff ff 	movw   $0xfffa,-0x9e2(%rbp)
    9933:	fa ff 
    9935:	66 c7 85 20 f6 ff ff 	movw   $0xe67c,-0x9e0(%rbp)
    993c:	7c e6 
    993e:	0f b6 45 e6          	movzbl -0x1a(%rbp),%eax
    9942:	83 e8 01             	sub    $0x1,%eax
    9945:	88 45 e6             	mov    %al,-0x1a(%rbp)
    9948:	0f b7 05 6b 97 00 00 	movzwl 0x976b(%rip),%eax        # 130ba <g_456>
    994f:	0f b7 c0             	movzwl %ax,%eax
    9952:	be 03 00 00 00       	mov    $0x3,%esi
    9957:	89 c7                	mov    %eax,%edi
    9959:	e8 a1 d3 ff ff       	callq  6cff <safe_add_func_uint16_t_u_u>
    995e:	66 89 05 55 97 00 00 	mov    %ax,0x9755(%rip)        # 130ba <g_456>
    9965:	0f b7 05 4e 97 00 00 	movzwl 0x974e(%rip),%eax        # 130ba <g_456>
    996c:	66 83 f8 08          	cmp    $0x8,%ax
    9970:	0f 85 77 ff ff ff    	jne    98ed <func_58+0xa84>
    9976:	eb 15                	jmp    998d <func_58+0xb24>
    9978:	c7 85 54 f5 ff ff bc 	movl   $0x87709abc,-0xaac(%rbp)
    997f:	9a 70 87 
    9982:	8b 85 54 f5 ff ff    	mov    -0xaac(%rbp),%eax
    9988:	e9 e7 02 00 00       	jmpq   9c74 <func_58+0xe0b>
    998d:	0f be 85 1c f5 ff ff 	movsbl -0xae4(%rbp),%eax
    9994:	e9 db 02 00 00       	jmpq   9c74 <func_58+0xe0b>
    9999:	48 c7 85 90 f5 ff ff 	movq   $0xffffffffffffffff,-0xa70(%rbp)
    99a0:	ff ff ff ff 
    99a4:	48 c7 85 98 f5 ff ff 	movq   $0x0,-0xa68(%rbp)
    99ab:	00 00 00 00 
    99af:	48 8d 85 00 f9 ff ff 	lea    -0x700(%rbp),%rax
    99b6:	48 05 76 01 00 00    	add    $0x176,%rax
    99bc:	48 89 85 60 f5 ff ff 	mov    %rax,-0xaa0(%rbp)
    99c3:	48 8d 85 60 f5 ff ff 	lea    -0xaa0(%rbp),%rax
    99ca:	48 89 85 68 f5 ff ff 	mov    %rax,-0xa98(%rbp)
    99d1:	48 8d 85 68 f5 ff ff 	lea    -0xa98(%rbp),%rax
    99d8:	48 89 85 a0 f5 ff ff 	mov    %rax,-0xa60(%rbp)
    99df:	66 c7 85 32 f5 ff ff 	movw   $0xe,-0xace(%rbp)
    99e6:	0e 00 
    99e8:	e9 73 02 00 00       	jmpq   9c60 <func_58+0xdf7>
    99ed:	48 c7 85 a8 f5 ff ff 	movq   $0x0,-0xa58(%rbp)
    99f4:	00 00 00 00 
    99f8:	c7 85 40 f5 ff ff 09 	movl   $0x9,-0xac0(%rbp)
    99ff:	00 00 00 
    9a02:	66 c7 05 41 96 00 00 	movw   $0x0,0x9641(%rip)        # 1304c <g_197>
    9a09:	00 00 
    9a0b:	e9 23 02 00 00       	jmpq   9c33 <func_58+0xdca>
    9a10:	48 8d 85 00 f9 ff ff 	lea    -0x700(%rbp),%rax
    9a17:	48 83 c0 7c          	add    $0x7c,%rax
    9a1b:	48 89 85 70 f5 ff ff 	mov    %rax,-0xa90(%rbp)
    9a22:	48 8d 85 70 f5 ff ff 	lea    -0xa90(%rbp),%rax
    9a29:	48 89 85 10 fd ff ff 	mov    %rax,-0x2f0(%rbp)
    9a30:	48 8d 85 70 f5 ff ff 	lea    -0xa90(%rbp),%rax
    9a37:	48 89 85 18 fd ff ff 	mov    %rax,-0x2e8(%rbp)
    9a3e:	48 8d 85 70 f5 ff ff 	lea    -0xa90(%rbp),%rax
    9a45:	48 89 85 20 fd ff ff 	mov    %rax,-0x2e0(%rbp)
    9a4c:	48 8d 85 70 f5 ff ff 	lea    -0xa90(%rbp),%rax
    9a53:	48 89 85 28 fd ff ff 	mov    %rax,-0x2d8(%rbp)
    9a5a:	48 8d 85 70 f5 ff ff 	lea    -0xa90(%rbp),%rax
    9a61:	48 89 85 30 fd ff ff 	mov    %rax,-0x2d0(%rbp)
    9a68:	48 8d 85 70 f5 ff ff 	lea    -0xa90(%rbp),%rax
    9a6f:	48 89 85 38 fd ff ff 	mov    %rax,-0x2c8(%rbp)
    9a76:	48 8d 85 70 f5 ff ff 	lea    -0xa90(%rbp),%rax
    9a7d:	48 89 85 40 fd ff ff 	mov    %rax,-0x2c0(%rbp)
    9a84:	48 8d 85 70 f5 ff ff 	lea    -0xa90(%rbp),%rax
    9a8b:	48 89 85 48 fd ff ff 	mov    %rax,-0x2b8(%rbp)
    9a92:	48 8d 85 70 f5 ff ff 	lea    -0xa90(%rbp),%rax
    9a99:	48 89 85 50 fd ff ff 	mov    %rax,-0x2b0(%rbp)
    9aa0:	48 8d 85 70 f5 ff ff 	lea    -0xa90(%rbp),%rax
    9aa7:	48 89 85 58 fd ff ff 	mov    %rax,-0x2a8(%rbp)
    9aae:	48 8d 85 70 f5 ff ff 	lea    -0xa90(%rbp),%rax
    9ab5:	48 89 85 60 fd ff ff 	mov    %rax,-0x2a0(%rbp)
    9abc:	48 8d 85 70 f5 ff ff 	lea    -0xa90(%rbp),%rax
    9ac3:	48 89 85 68 fd ff ff 	mov    %rax,-0x298(%rbp)
    9aca:	48 8d 85 10 fd ff ff 	lea    -0x2f0(%rbp),%rax
    9ad1:	48 83 c0 40          	add    $0x40,%rax
    9ad5:	48 89 85 b0 f5 ff ff 	mov    %rax,-0xa50(%rbp)
    9adc:	c7 85 44 f5 ff ff 32 	movl   $0xc8963a32,-0xabc(%rbp)
    9ae3:	3a 96 c8 
    9ae6:	48 8d 05 9f 95 00 00 	lea    0x959f(%rip),%rax        # 1308c <g_230+0xc>
    9aed:	48 89 85 b8 f5 ff ff 	mov    %rax,-0xa48(%rbp)
    9af4:	48 8d 05 cd 95 00 00 	lea    0x95cd(%rip),%rax        # 130c8 <g_762>
    9afb:	48 89 85 c0 f5 ff ff 	mov    %rax,-0xa40(%rbp)
    9b02:	48 8d 05 2f 95 00 00 	lea    0x952f(%rip),%rax        # 13038 <g_110>
    9b09:	48 89 85 c8 f5 ff ff 	mov    %rax,-0xa38(%rbp)
    9b10:	48 c7 85 a8 f5 ff ff 	movq   $0x0,-0xa58(%rbp)
    9b17:	00 00 00 00 
    9b1b:	48 8b 85 a8 f5 ff ff 	mov    -0xa58(%rbp),%rax
    9b22:	48 3b 85 98 f5 ff ff 	cmp    -0xa68(%rbp),%rax
    9b29:	0f 95 c0             	setne  %al
    9b2c:	0f b6 c0             	movzbl %al,%eax
    9b2f:	89 c7                	mov    %eax,%edi
    9b31:	e8 0f d0 ff ff       	callq  6b45 <safe_unary_minus_func_uint8_t_u>
    9b36:	89 c3                	mov    %eax,%ebx
    9b38:	48 8b 85 90 f5 ff ff 	mov    -0xa70(%rbp),%rax
    9b3f:	89 c6                	mov    %eax,%esi
    9b41:	bf fe ff ff ff       	mov    $0xfffffffe,%edi
    9b46:	e8 81 cb ff ff       	callq  66cc <safe_mod_func_int32_t_s_s>
    9b4b:	09 c3                	or     %eax,%ebx
    9b4d:	89 da                	mov    %ebx,%edx
    9b4f:	48 8b 05 f2 aa 00 00 	mov    0xaaf2(%rip),%rax        # 14648 <g_143>
    9b56:	88 10                	mov    %dl,(%rax)
    9b58:	0f b6 00             	movzbl (%rax),%eax
    9b5b:	0f b6 c0             	movzbl %al,%eax
    9b5e:	be ff 00 00 00       	mov    $0xff,%esi
    9b63:	89 c7                	mov    %eax,%edi
    9b65:	e8 44 d0 ff ff       	callq  6bae <safe_mod_func_uint8_t_u_u>
    9b6a:	8b 05 38 b9 00 00    	mov    0xb938(%rip),%eax        # 154a8 <g_7>
    9b70:	85 c0                	test   %eax,%eax
    9b72:	0f 95 c0             	setne  %al
    9b75:	0f b6 d0             	movzbl %al,%edx
    9b78:	48 8b 85 90 f5 ff ff 	mov    -0xa70(%rbp),%rax
    9b7f:	0f b7 c0             	movzwl %ax,%eax
    9b82:	89 d6                	mov    %edx,%esi
    9b84:	89 c7                	mov    %eax,%edi
    9b86:	e8 94 d1 ff ff       	callq  6d1f <safe_sub_func_uint16_t_u_u>
    9b8b:	66 3d 91 4a          	cmp    $0x4a91,%ax
    9b8f:	0f 96 c0             	setbe  %al
    9b92:	0f b6 c0             	movzbl %al,%eax
    9b95:	0b 85 44 f5 ff ff    	or     -0xabc(%rbp),%eax
    9b9b:	f7 d0                	not    %eax
    9b9d:	89 c2                	mov    %eax,%edx
    9b9f:	48 8b 85 b8 f5 ff ff 	mov    -0xa48(%rbp),%rax
    9ba6:	89 10                	mov    %edx,(%rax)
    9ba8:	48 8b 85 10 f5 ff ff 	mov    -0xaf0(%rbp),%rax
    9baf:	89 c2                	mov    %eax,%edx
    9bb1:	48 8b 85 c0 f5 ff ff 	mov    -0xa40(%rbp),%rax
    9bb8:	66 89 10             	mov    %dx,(%rax)
    9bbb:	48 8b 85 c0 f5 ff ff 	mov    -0xa40(%rbp),%rax
    9bc2:	0f b7 00             	movzwl (%rax),%eax
    9bc5:	98                   	cwtl   
    9bc6:	89 85 60 f6 ff ff    	mov    %eax,-0x9a0(%rbp)
    9bcc:	48 8b 05 75 aa 00 00 	mov    0xaa75(%rip),%rax        # 14648 <g_143>
    9bd3:	0f b6 00             	movzbl (%rax),%eax
    9bd6:	0f b6 c0             	movzbl %al,%eax
    9bd9:	be 07 00 00 00       	mov    $0x7,%esi
    9bde:	89 c7                	mov    %eax,%edi
    9be0:	e8 20 d0 ff ff       	callq  6c05 <safe_lshift_func_uint8_t_u_s>
    9be5:	be 06 00 00 00       	mov    $0x6,%esi
    9bea:	bf 3d ad 00 00       	mov    $0xad3d,%edi
    9bef:	e8 54 d2 ff ff       	callq  6e48 <safe_rshift_func_uint16_t_u_s>
    9bf4:	48 8b 95 b8 f5 ff ff 	mov    -0xa48(%rbp),%rdx
    9bfb:	8b 12                	mov    (%rdx),%edx
    9bfd:	0f b7 c0             	movzwl %ax,%eax
    9c00:	21 c2                	and    %eax,%edx
    9c02:	48 8b 85 b8 f5 ff ff 	mov    -0xa48(%rbp),%rax
    9c09:	89 10                	mov    %edx,(%rax)
    9c0b:	48 8b 85 10 f5 ff ff 	mov    -0xaf0(%rbp),%rax
    9c12:	89 85 40 f5 ff ff    	mov    %eax,-0xac0(%rbp)
    9c18:	0f b7 05 2d 94 00 00 	movzwl 0x942d(%rip),%eax        # 1304c <g_197>
    9c1f:	98                   	cwtl   
    9c20:	be 05 00 00 00       	mov    $0x5,%esi
    9c25:	89 c7                	mov    %eax,%edi
    9c27:	e8 d9 c9 ff ff       	callq  6605 <safe_sub_func_int32_t_s_s>
    9c2c:	66 89 05 19 94 00 00 	mov    %ax,0x9419(%rip)        # 1304c <g_197>
    9c33:	0f b7 05 12 94 00 00 	movzwl 0x9412(%rip),%eax        # 1304c <g_197>
    9c3a:	66 83 f8 f7          	cmp    $0xfff7,%ax
    9c3e:	0f 8c cc fd ff ff    	jl     9a10 <func_58+0xba7>
    9c44:	48 0f bf 85 32 f5 ff 	movswq -0xace(%rbp),%rax
    9c4b:	ff 
    9c4c:	be 03 00 00 00       	mov    $0x3,%esi
    9c51:	48 89 c7             	mov    %rax,%rdi
    9c54:	e8 f2 d3 ff ff       	callq  704b <safe_sub_func_uint64_t_u_u>
    9c59:	66 89 85 32 f5 ff ff 	mov    %ax,-0xace(%rbp)
    9c60:	66 83 bd 32 f5 ff ff 	cmpw   $0xffee,-0xace(%rbp)
    9c67:	ee 
    9c68:	0f 8d 7f fd ff ff    	jge    99ed <func_58+0xb84>
    9c6e:	8b 05 b8 93 00 00    	mov    0x93b8(%rip),%eax        # 1302c <g_35>
    9c74:	48 8b 5d e8          	mov    -0x18(%rbp),%rbx
    9c78:	64 48 33 1c 25 28 00 	xor    %fs:0x28,%rbx
    9c7f:	00 00 
    9c81:	74 05                	je     9c88 <func_58+0xe1f>
    9c83:	e8 e8 c3 ff ff       	callq  6070 <__stack_chk_fail@plt>
    9c88:	48 81 c4 e8 0a 00 00 	add    $0xae8,%rsp
    9c8f:	5b                   	pop    %rbx
    9c90:	5d                   	pop    %rbp
    9c91:	c3                   	retq   

0000000000009c92 <func_63>:
    9c92:	f3 0f 1e fa          	endbr64 
    9c96:	55                   	push   %rbp
    9c97:	48 89 e5             	mov    %rsp,%rbp
    9c9a:	41 57                	push   %r15
    9c9c:	41 56                	push   %r14
    9c9e:	41 55                	push   %r13
    9ca0:	41 54                	push   %r12
    9ca2:	53                   	push   %rbx
    9ca3:	48 81 ec a8 0a 00 00 	sub    $0xaa8,%rsp
    9caa:	48 89 bd 58 f5 ff ff 	mov    %rdi,-0xaa8(%rbp)
    9cb1:	64 48 8b 04 25 28 00 	mov    %fs:0x28,%rax
    9cb8:	00 00 
    9cba:	48 89 45 c8          	mov    %rax,-0x38(%rbp)
    9cbe:	31 c0                	xor    %eax,%eax
    9cc0:	48 c7 85 c0 f5 ff ff 	movq   $0x0,-0xa40(%rbp)
    9cc7:	00 00 00 00 
    9ccb:	48 c7 85 10 f6 ff ff 	movq   $0x0,-0x9f0(%rbp)
    9cd2:	00 00 00 00 
    9cd6:	48 8d 05 cb b7 00 00 	lea    0xb7cb(%rip),%rax        # 154a8 <g_7>
    9cdd:	48 89 85 08 f6 ff ff 	mov    %rax,-0x9f8(%rbp)
    9ce4:	48 c7 85 18 f6 ff ff 	movq   $0x0,-0x9e8(%rbp)
    9ceb:	00 00 00 00 
    9cef:	48 8d 85 f0 fc ff ff 	lea    -0x310(%rbp),%rax
    9cf6:	48 8d 15 e3 93 00 00 	lea    0x93e3(%rip),%rdx        # 130e0 <g_881+0x8>
    9cfd:	b9 5a 00 00 00       	mov    $0x5a,%ecx
    9d02:	48 89 c7             	mov    %rax,%rdi
    9d05:	48 89 d6             	mov    %rdx,%rsi
    9d08:	f3 48 a5             	rep movsq %ds:(%rsi),%es:(%rdi)
    9d0b:	48 c7 85 20 f6 ff ff 	movq   $0x0,-0x9e0(%rbp)
    9d12:	00 00 00 00 
    9d16:	48 8d 05 1b 93 00 00 	lea    0x931b(%rip),%rax        # 13038 <g_110>
    9d1d:	48 89 85 20 f8 ff ff 	mov    %rax,-0x7e0(%rbp)
    9d24:	48 8d 05 0d 93 00 00 	lea    0x930d(%rip),%rax        # 13038 <g_110>
    9d2b:	48 89 85 28 f8 ff ff 	mov    %rax,-0x7d8(%rbp)
    9d32:	48 8d 05 ff 92 00 00 	lea    0x92ff(%rip),%rax        # 13038 <g_110>
    9d39:	48 89 85 30 f8 ff ff 	mov    %rax,-0x7d0(%rbp)
    9d40:	48 8d 05 f1 92 00 00 	lea    0x92f1(%rip),%rax        # 13038 <g_110>
    9d47:	48 89 85 38 f8 ff ff 	mov    %rax,-0x7c8(%rbp)
    9d4e:	48 8d 05 e3 92 00 00 	lea    0x92e3(%rip),%rax        # 13038 <g_110>
    9d55:	48 89 85 40 f8 ff ff 	mov    %rax,-0x7c0(%rbp)
    9d5c:	48 8d 05 d5 92 00 00 	lea    0x92d5(%rip),%rax        # 13038 <g_110>
    9d63:	48 89 85 48 f8 ff ff 	mov    %rax,-0x7b8(%rbp)
    9d6a:	48 8d 05 c7 92 00 00 	lea    0x92c7(%rip),%rax        # 13038 <g_110>
    9d71:	48 89 85 50 f8 ff ff 	mov    %rax,-0x7b0(%rbp)
    9d78:	48 8d 05 b9 92 00 00 	lea    0x92b9(%rip),%rax        # 13038 <g_110>
    9d7f:	48 89 85 58 f8 ff ff 	mov    %rax,-0x7a8(%rbp)
    9d86:	48 8d 05 ab 92 00 00 	lea    0x92ab(%rip),%rax        # 13038 <g_110>
    9d8d:	48 89 85 60 f8 ff ff 	mov    %rax,-0x7a0(%rbp)
    9d94:	48 8d 05 9d 92 00 00 	lea    0x929d(%rip),%rax        # 13038 <g_110>
    9d9b:	48 89 85 68 f8 ff ff 	mov    %rax,-0x798(%rbp)
    9da2:	48 8d 05 8f 92 00 00 	lea    0x928f(%rip),%rax        # 13038 <g_110>
    9da9:	48 89 85 70 f8 ff ff 	mov    %rax,-0x790(%rbp)
    9db0:	48 8d 05 81 92 00 00 	lea    0x9281(%rip),%rax        # 13038 <g_110>
    9db7:	48 89 85 78 f8 ff ff 	mov    %rax,-0x788(%rbp)
    9dbe:	48 8d 05 73 92 00 00 	lea    0x9273(%rip),%rax        # 13038 <g_110>
    9dc5:	48 89 85 80 f8 ff ff 	mov    %rax,-0x780(%rbp)
    9dcc:	48 8d 05 65 92 00 00 	lea    0x9265(%rip),%rax        # 13038 <g_110>
    9dd3:	48 89 85 88 f8 ff ff 	mov    %rax,-0x778(%rbp)
    9dda:	48 8d 05 57 92 00 00 	lea    0x9257(%rip),%rax        # 13038 <g_110>
    9de1:	48 89 85 90 f8 ff ff 	mov    %rax,-0x770(%rbp)
    9de8:	48 8d 05 49 92 00 00 	lea    0x9249(%rip),%rax        # 13038 <g_110>
    9def:	48 89 85 98 f8 ff ff 	mov    %rax,-0x768(%rbp)
    9df6:	48 b8 bf 26 9a 6a d9 	movabs $0xf2ceccd96a9a26bf,%rax
    9dfd:	cc ce f2 
    9e00:	48 89 85 c8 f5 ff ff 	mov    %rax,-0xa38(%rbp)
    9e07:	48 8d 05 32 92 00 00 	lea    0x9232(%rip),%rax        # 13040 <g_159>
    9e0e:	48 89 85 d0 f5 ff ff 	mov    %rax,-0xa30(%rbp)
    9e15:	48 c7 85 a0 f8 ff ff 	movq   $0x0,-0x760(%rbp)
    9e1c:	00 00 00 00 
    9e20:	48 8d 05 25 92 00 00 	lea    0x9225(%rip),%rax        # 1304c <g_197>
    9e27:	48 89 85 a8 f8 ff ff 	mov    %rax,-0x758(%rbp)
    9e2e:	48 c7 85 b0 f8 ff ff 	movq   $0x0,-0x750(%rbp)
    9e35:	00 00 00 00 
    9e39:	48 8d 05 0c 92 00 00 	lea    0x920c(%rip),%rax        # 1304c <g_197>
    9e40:	48 89 85 b8 f8 ff ff 	mov    %rax,-0x748(%rbp)
    9e47:	48 8d 05 fe 91 00 00 	lea    0x91fe(%rip),%rax        # 1304c <g_197>
    9e4e:	48 89 85 c0 f8 ff ff 	mov    %rax,-0x740(%rbp)
    9e55:	48 c7 85 c8 f8 ff ff 	movq   $0x0,-0x738(%rbp)
    9e5c:	00 00 00 00 
    9e60:	48 8d 05 e5 91 00 00 	lea    0x91e5(%rip),%rax        # 1304c <g_197>
    9e67:	48 89 85 d0 f8 ff ff 	mov    %rax,-0x730(%rbp)
    9e6e:	48 c7 85 d8 f8 ff ff 	movq   $0x0,-0x728(%rbp)
    9e75:	00 00 00 00 
    9e79:	48 8d 05 cc 91 00 00 	lea    0x91cc(%rip),%rax        # 1304c <g_197>
    9e80:	48 89 85 e0 f8 ff ff 	mov    %rax,-0x720(%rbp)
    9e87:	48 8d 05 be 91 00 00 	lea    0x91be(%rip),%rax        # 1304c <g_197>
    9e8e:	48 89 85 e8 f8 ff ff 	mov    %rax,-0x718(%rbp)
    9e95:	48 c7 85 f0 f8 ff ff 	movq   $0x0,-0x710(%rbp)
    9e9c:	00 00 00 00 
    9ea0:	48 8d 05 a5 91 00 00 	lea    0x91a5(%rip),%rax        # 1304c <g_197>
    9ea7:	48 89 85 f8 f8 ff ff 	mov    %rax,-0x708(%rbp)
    9eae:	48 c7 85 00 f9 ff ff 	movq   $0x0,-0x700(%rbp)
    9eb5:	00 00 00 00 
    9eb9:	48 8d 05 8c 91 00 00 	lea    0x918c(%rip),%rax        # 1304c <g_197>
    9ec0:	48 89 85 08 f9 ff ff 	mov    %rax,-0x6f8(%rbp)
    9ec7:	48 8d 05 7e 91 00 00 	lea    0x917e(%rip),%rax        # 1304c <g_197>
    9ece:	48 89 85 10 f9 ff ff 	mov    %rax,-0x6f0(%rbp)
    9ed5:	48 c7 85 18 f9 ff ff 	movq   $0x0,-0x6e8(%rbp)
    9edc:	00 00 00 00 
    9ee0:	48 8d 05 65 91 00 00 	lea    0x9165(%rip),%rax        # 1304c <g_197>
    9ee7:	48 89 85 20 f9 ff ff 	mov    %rax,-0x6e0(%rbp)
    9eee:	48 c7 85 28 f9 ff ff 	movq   $0x0,-0x6d8(%rbp)
    9ef5:	00 00 00 00 
    9ef9:	48 8d 05 4c 91 00 00 	lea    0x914c(%rip),%rax        # 1304c <g_197>
    9f00:	48 89 85 30 f9 ff ff 	mov    %rax,-0x6d0(%rbp)
    9f07:	48 8d 05 3e 91 00 00 	lea    0x913e(%rip),%rax        # 1304c <g_197>
    9f0e:	48 89 85 38 f9 ff ff 	mov    %rax,-0x6c8(%rbp)
    9f15:	48 8d 85 a0 f8 ff ff 	lea    -0x760(%rbp),%rax
    9f1c:	48 83 c0 50          	add    $0x50,%rax
    9f20:	48 89 85 28 f6 ff ff 	mov    %rax,-0x9d8(%rbp)
    9f27:	48 8d 05 26 91 00 00 	lea    0x9126(%rip),%rax        # 13054 <g_217>
    9f2e:	48 89 85 d8 f5 ff ff 	mov    %rax,-0xa28(%rbp)
    9f35:	48 8d 85 d8 f5 ff ff 	lea    -0xa28(%rbp),%rax
    9f3c:	48 89 85 30 f6 ff ff 	mov    %rax,-0x9d0(%rbp)
    9f43:	8b 05 eb 90 00 00    	mov    0x90eb(%rip),%eax        # 13034 <g_72>
    9f49:	83 e8 01             	sub    $0x1,%eax
    9f4c:	89 05 e2 90 00 00    	mov    %eax,0x90e2(%rip)        # 13034 <g_72>
    9f52:	0f b7 05 fb 90 00 00 	movzwl 0x90fb(%rip),%eax        # 13054 <g_217>
    9f59:	0f b7 c0             	movzwl %ax,%eax
    9f5c:	89 85 54 f5 ff ff    	mov    %eax,-0xaac(%rbp)
    9f62:	4c 8b a5 58 f5 ff ff 	mov    -0xaa8(%rbp),%r12
    9f69:	48 8b 9d c0 f5 ff ff 	mov    -0xa40(%rbp),%rbx
    9f70:	48 8b 85 58 f5 ff ff 	mov    -0xaa8(%rbp),%rax
    9f77:	89 85 50 f5 ff ff    	mov    %eax,-0xab0(%rbp)
    9f7d:	48 8b 85 58 f5 ff ff 	mov    -0xaa8(%rbp),%rax
    9f84:	44 0f b6 f8          	movzbl %al,%r15d
    9f88:	44 8b 35 19 b5 00 00 	mov    0xb519(%rip),%r14d        # 154a8 <g_7>
    9f8f:	8b 05 8f 90 00 00    	mov    0x908f(%rip),%eax        # 13024 <g_9>
    9f95:	44 0f b7 e8          	movzwl %ax,%r13d
    9f99:	48 8b 85 58 f5 ff ff 	mov    -0xaa8(%rbp),%rax
    9fa0:	89 85 4c f5 ff ff    	mov    %eax,-0xab4(%rbp)
    9fa6:	48 8b 85 58 f5 ff ff 	mov    -0xaa8(%rbp),%rax
    9fad:	89 85 48 f5 ff ff    	mov    %eax,-0xab8(%rbp)
    9fb3:	48 8b b5 80 f8 ff ff 	mov    -0x780(%rbp),%rsi
    9fba:	48 89 b5 40 f5 ff ff 	mov    %rsi,-0xac0(%rbp)
    9fc1:	8b 05 65 90 00 00    	mov    0x9065(%rip),%eax        # 1302c <g_35>
    9fc7:	89 85 3c f5 ff ff    	mov    %eax,-0xac4(%rbp)
    9fcd:	48 83 bd 20 f6 ff ff 	cmpq   $0x0,-0x9e0(%rbp)
    9fd4:	00 
    9fd5:	0f 95 c0             	setne  %al
    9fd8:	0f b6 f8             	movzbl %al,%edi
    9fdb:	89 bd 38 f5 ff ff    	mov    %edi,-0xac8(%rbp)
    9fe1:	0f b6 05 50 90 00 00 	movzbl 0x9050(%rip),%eax        # 13038 <g_110>
    9fe8:	83 e8 01             	sub    $0x1,%eax
    9feb:	88 05 47 90 00 00    	mov    %al,0x9047(%rip)        # 13038 <g_110>
    9ff1:	8b 05 2d 90 00 00    	mov    0x902d(%rip),%eax        # 13024 <g_9>
    9ff7:	0f b6 c0             	movzbl %al,%eax
    9ffa:	be 01 00 00 00       	mov    $0x1,%esi
    9fff:	89 c7                	mov    %eax,%edi
    a001:	e8 8d cb ff ff       	callq  6b93 <safe_mul_func_uint8_t_u_u>
    a006:	0f b6 d0             	movzbl %al,%edx
    a009:	48 8b 85 58 f5 ff ff 	mov    -0xaa8(%rbp),%rax
    a010:	0f b6 c0             	movzbl %al,%eax
    a013:	89 d6                	mov    %edx,%esi
    a015:	89 c7                	mov    %eax,%edi
    a017:	e8 a2 cc ff ff       	callq  6cbe <safe_rshift_func_uint8_t_u_u>
    a01c:	0f b6 c0             	movzbl %al,%eax
    a01f:	39 85 38 f5 ff ff    	cmp    %eax,-0xac8(%rbp)
    a025:	0f 9d c0             	setge  %al
    a028:	0f b6 f8             	movzbl %al,%edi
    a02b:	89 bd 38 f5 ff ff    	mov    %edi,-0xac8(%rbp)
    a031:	8b 05 f1 8f 00 00    	mov    0x8ff1(%rip),%eax        # 13028 <g_21>
    a037:	89 c0                	mov    %eax,%eax
    a039:	48 89 c6             	mov    %rax,%rsi
    a03c:	48 bf 45 f4 ca 76 ef 	movabs $0x49ffb2ef76caf445,%rdi
    a043:	b2 ff 49 
    a046:	e8 5d c8 ff ff       	callq  68a8 <safe_sub_func_int64_t_s_s>
    a04b:	8b b5 38 f5 ff ff    	mov    -0xac8(%rbp),%esi
    a051:	89 c7                	mov    %eax,%edi
    a053:	e8 d6 40 00 00       	callq  e12e <func_98>
    a058:	48 8b 8d 40 f5 ff ff 	mov    -0xac0(%rbp),%rcx
    a05f:	8b 95 3c f5 ff ff    	mov    -0xac4(%rbp),%edx
    a065:	48 8d 35 c0 8f 00 00 	lea    0x8fc0(%rip),%rsi        # 1302c <g_35>
    a06c:	48 89 c7             	mov    %rax,%rdi
    a06f:	e8 f9 3a 00 00       	callq  db6d <func_93>
    a074:	48 89 c6             	mov    %rax,%rsi
    a077:	8b 05 2b b4 00 00    	mov    0xb42b(%rip),%eax        # 154a8 <g_7>
    a07d:	98                   	cwtl   
    a07e:	48 8d 95 f0 fc ff ff 	lea    -0x310(%rbp),%rdx
    a085:	48 81 c2 30 01 00 00 	add    $0x130,%rdx
    a08c:	49 89 d0             	mov    %rdx,%r8
    a08f:	8b 8d 4c f5 ff ff    	mov    -0xab4(%rbp),%ecx
    a095:	8b 95 48 f5 ff ff    	mov    -0xab8(%rbp),%edx
    a09b:	89 c7                	mov    %eax,%edi
    a09d:	e8 38 3a 00 00       	callq  dada <func_87>
    a0a2:	44 8b 85 50 f5 ff ff 	mov    -0xab0(%rbp),%r8d
    a0a9:	44 89 f9             	mov    %r15d,%ecx
    a0ac:	44 89 f2             	mov    %r14d,%edx
    a0af:	44 89 ee             	mov    %r13d,%esi
    a0b2:	48 89 c7             	mov    %rax,%rdi
    a0b5:	e8 29 25 00 00       	callq  c5e3 <func_81>
    a0ba:	48 89 c7             	mov    %rax,%rdi
    a0bd:	48 8b 85 10 f6 ff ff 	mov    -0x9f0(%rbp),%rax
    a0c4:	44 8b 85 54 f5 ff ff 	mov    -0xaac(%rbp),%r8d
    a0cb:	4c 89 e1             	mov    %r12,%rcx
    a0ce:	48 89 da             	mov    %rbx,%rdx
    a0d1:	48 89 c6             	mov    %rax,%rsi
    a0d4:	e8 16 1a 00 00       	callq  baef <func_75>
    a0d9:	48 8b 95 08 f6 ff ff 	mov    -0x9f8(%rbp),%rdx
    a0e0:	89 02                	mov    %eax,(%rdx)
    a0e2:	c7 05 40 8f 00 00 07 	movl   $0x7,0x8f40(%rip)        # 1302c <g_35>
    a0e9:	00 00 00 
    a0ec:	e9 b2 19 00 00       	jmpq   baa3 <func_63+0x1e11>
    a0f1:	66 c7 85 62 f5 ff ff 	movw   $0xfc4d,-0xa9e(%rbp)
    a0f8:	4d fc 
    a0fa:	c7 85 40 f9 ff ff fa 	movl   $0xfffffffa,-0x6c0(%rbp)
    a101:	ff ff ff 
    a104:	c7 85 44 f9 ff ff ad 	movl   $0x6e3ecbad,-0x6bc(%rbp)
    a10b:	cb 3e 6e 
    a10e:	c7 85 48 f9 ff ff fa 	movl   $0xfffffffa,-0x6b8(%rbp)
    a115:	ff ff ff 
    a118:	c7 85 4c f9 ff ff fa 	movl   $0xfffffffa,-0x6b4(%rbp)
    a11f:	ff ff ff 
    a122:	c7 85 50 f9 ff ff ad 	movl   $0x6e3ecbad,-0x6b0(%rbp)
    a129:	cb 3e 6e 
    a12c:	c7 85 54 f9 ff ff fa 	movl   $0xfffffffa,-0x6ac(%rbp)
    a133:	ff ff ff 
    a136:	c7 85 58 f9 ff ff fa 	movl   $0xfffffffa,-0x6a8(%rbp)
    a13d:	ff ff ff 
    a140:	c7 85 5c f9 ff ff ad 	movl   $0x6e3ecbad,-0x6a4(%rbp)
    a147:	cb 3e 6e 
    a14a:	c7 85 60 f9 ff ff fa 	movl   $0xfffffffa,-0x6a0(%rbp)
    a151:	ff ff ff 
    a154:	c7 85 64 f9 ff ff fa 	movl   $0xfffffffa,-0x69c(%rbp)
    a15b:	ff ff ff 
    a15e:	c7 85 68 f9 ff ff ad 	movl   $0x6e3ecbad,-0x698(%rbp)
    a165:	cb 3e 6e 
    a168:	c7 85 6c f9 ff ff fa 	movl   $0xfffffffa,-0x694(%rbp)
    a16f:	ff ff ff 
    a172:	c7 85 70 f9 ff ff fa 	movl   $0xfffffffa,-0x690(%rbp)
    a179:	ff ff ff 
    a17c:	c7 85 74 f9 ff ff ad 	movl   $0x6e3ecbad,-0x68c(%rbp)
    a183:	cb 3e 6e 
    a186:	c7 85 78 f9 ff ff fa 	movl   $0xfffffffa,-0x688(%rbp)
    a18d:	ff ff ff 
    a190:	c7 85 7c f9 ff ff fa 	movl   $0xfffffffa,-0x684(%rbp)
    a197:	ff ff ff 
    a19a:	c7 85 80 f9 ff ff ad 	movl   $0x6e3ecbad,-0x680(%rbp)
    a1a1:	cb 3e 6e 
    a1a4:	c7 85 84 f9 ff ff fa 	movl   $0xfffffffa,-0x67c(%rbp)
    a1ab:	ff ff ff 
    a1ae:	c7 85 88 f9 ff ff fa 	movl   $0xfffffffa,-0x678(%rbp)
    a1b5:	ff ff ff 
    a1b8:	c7 85 8c f9 ff ff ad 	movl   $0x6e3ecbad,-0x674(%rbp)
    a1bf:	cb 3e 6e 
    a1c2:	c7 85 90 f9 ff ff fa 	movl   $0xfffffffa,-0x670(%rbp)
    a1c9:	ff ff ff 
    a1cc:	c7 85 94 f9 ff ff fa 	movl   $0xfffffffa,-0x66c(%rbp)
    a1d3:	ff ff ff 
    a1d6:	c7 85 98 f9 ff ff ad 	movl   $0x6e3ecbad,-0x668(%rbp)
    a1dd:	cb 3e 6e 
    a1e0:	c7 85 9c f9 ff ff fa 	movl   $0xfffffffa,-0x664(%rbp)
    a1e7:	ff ff ff 
    a1ea:	c7 85 a0 f9 ff ff fa 	movl   $0xfffffffa,-0x660(%rbp)
    a1f1:	ff ff ff 
    a1f4:	c7 85 a4 f9 ff ff ad 	movl   $0x6e3ecbad,-0x65c(%rbp)
    a1fb:	cb 3e 6e 
    a1fe:	c7 85 a8 f9 ff ff fa 	movl   $0xfffffffa,-0x658(%rbp)
    a205:	ff ff ff 
    a208:	c7 85 ac f9 ff ff fa 	movl   $0xfffffffa,-0x654(%rbp)
    a20f:	ff ff ff 
    a212:	c7 85 b0 f9 ff ff ad 	movl   $0x6e3ecbad,-0x650(%rbp)
    a219:	cb 3e 6e 
    a21c:	c7 85 b4 f9 ff ff fa 	movl   $0xfffffffa,-0x64c(%rbp)
    a223:	ff ff ff 
    a226:	c7 85 b8 f9 ff ff fa 	movl   $0xfffffffa,-0x648(%rbp)
    a22d:	ff ff ff 
    a230:	c7 85 bc f9 ff ff ad 	movl   $0x6e3ecbad,-0x644(%rbp)
    a237:	cb 3e 6e 
    a23a:	c7 85 c0 f9 ff ff fa 	movl   $0xfffffffa,-0x640(%rbp)
    a241:	ff ff ff 
    a244:	c7 85 c4 f9 ff ff fa 	movl   $0xfffffffa,-0x63c(%rbp)
    a24b:	ff ff ff 
    a24e:	c7 85 c8 f9 ff ff ad 	movl   $0x6e3ecbad,-0x638(%rbp)
    a255:	cb 3e 6e 
    a258:	c7 85 cc f9 ff ff fa 	movl   $0xfffffffa,-0x634(%rbp)
    a25f:	ff ff ff 
    a262:	c7 85 d0 f9 ff ff fa 	movl   $0xfffffffa,-0x630(%rbp)
    a269:	ff ff ff 
    a26c:	c7 85 d4 f9 ff ff ad 	movl   $0x6e3ecbad,-0x62c(%rbp)
    a273:	cb 3e 6e 
    a276:	c7 85 d8 f9 ff ff fa 	movl   $0xfffffffa,-0x628(%rbp)
    a27d:	ff ff ff 
    a280:	c7 85 dc f9 ff ff fa 	movl   $0xfffffffa,-0x624(%rbp)
    a287:	ff ff ff 
    a28a:	c7 85 e0 f9 ff ff ad 	movl   $0x6e3ecbad,-0x620(%rbp)
    a291:	cb 3e 6e 
    a294:	c7 85 e4 f9 ff ff fa 	movl   $0xfffffffa,-0x61c(%rbp)
    a29b:	ff ff ff 
    a29e:	c7 85 e8 f9 ff ff fa 	movl   $0xfffffffa,-0x618(%rbp)
    a2a5:	ff ff ff 
    a2a8:	c7 85 ec f9 ff ff ad 	movl   $0x6e3ecbad,-0x614(%rbp)
    a2af:	cb 3e 6e 
    a2b2:	c7 85 f0 f9 ff ff fa 	movl   $0xfffffffa,-0x610(%rbp)
    a2b9:	ff ff ff 
    a2bc:	c7 85 f4 f9 ff ff fa 	movl   $0xfffffffa,-0x60c(%rbp)
    a2c3:	ff ff ff 
    a2c6:	c7 85 f8 f9 ff ff ad 	movl   $0x6e3ecbad,-0x608(%rbp)
    a2cd:	cb 3e 6e 
    a2d0:	c7 85 fc f9 ff ff fa 	movl   $0xfffffffa,-0x604(%rbp)
    a2d7:	ff ff ff 
    a2da:	c7 85 00 fa ff ff fa 	movl   $0xfffffffa,-0x600(%rbp)
    a2e1:	ff ff ff 
    a2e4:	c7 85 04 fa ff ff ad 	movl   $0x6e3ecbad,-0x5fc(%rbp)
    a2eb:	cb 3e 6e 
    a2ee:	c7 85 08 fa ff ff fa 	movl   $0xfffffffa,-0x5f8(%rbp)
    a2f5:	ff ff ff 
    a2f8:	c7 85 0c fa ff ff fa 	movl   $0xfffffffa,-0x5f4(%rbp)
    a2ff:	ff ff ff 
    a302:	c7 85 10 fa ff ff ad 	movl   $0x6e3ecbad,-0x5f0(%rbp)
    a309:	cb 3e 6e 
    a30c:	c7 85 14 fa ff ff fa 	movl   $0xfffffffa,-0x5ec(%rbp)
    a313:	ff ff ff 
    a316:	c7 85 18 fa ff ff fa 	movl   $0xfffffffa,-0x5e8(%rbp)
    a31d:	ff ff ff 
    a320:	c7 85 1c fa ff ff ad 	movl   $0x6e3ecbad,-0x5e4(%rbp)
    a327:	cb 3e 6e 
    a32a:	c7 85 20 fa ff ff fa 	movl   $0xfffffffa,-0x5e0(%rbp)
    a331:	ff ff ff 
    a334:	c7 85 24 fa ff ff fa 	movl   $0xfffffffa,-0x5dc(%rbp)
    a33b:	ff ff ff 
    a33e:	c7 85 28 fa ff ff ad 	movl   $0x6e3ecbad,-0x5d8(%rbp)
    a345:	cb 3e 6e 
    a348:	c7 85 2c fa ff ff fa 	movl   $0xfffffffa,-0x5d4(%rbp)
    a34f:	ff ff ff 
    a352:	c7 85 68 f5 ff ff 87 	movl   $0xf09eca87,-0xa98(%rbp)
    a359:	ca 9e f0 
    a35c:	48 8d 05 57 8d 00 00 	lea    0x8d57(%rip),%rax        # 130ba <g_456>
    a363:	48 89 85 90 f7 ff ff 	mov    %rax,-0x870(%rbp)
    a36a:	48 8d 05 49 8d 00 00 	lea    0x8d49(%rip),%rax        # 130ba <g_456>
    a371:	48 89 85 98 f7 ff ff 	mov    %rax,-0x868(%rbp)
    a378:	48 8d 05 3b 8d 00 00 	lea    0x8d3b(%rip),%rax        # 130ba <g_456>
    a37f:	48 89 85 a0 f7 ff ff 	mov    %rax,-0x860(%rbp)
    a386:	48 8d 05 2d 8d 00 00 	lea    0x8d2d(%rip),%rax        # 130ba <g_456>
    a38d:	48 89 85 a8 f7 ff ff 	mov    %rax,-0x858(%rbp)
    a394:	48 8d 05 1f 8d 00 00 	lea    0x8d1f(%rip),%rax        # 130ba <g_456>
    a39b:	48 89 85 b0 f7 ff ff 	mov    %rax,-0x850(%rbp)
    a3a2:	48 8d 05 11 8d 00 00 	lea    0x8d11(%rip),%rax        # 130ba <g_456>
    a3a9:	48 89 85 b8 f7 ff ff 	mov    %rax,-0x848(%rbp)
    a3b0:	48 8d 05 03 8d 00 00 	lea    0x8d03(%rip),%rax        # 130ba <g_456>
    a3b7:	48 89 85 c0 f7 ff ff 	mov    %rax,-0x840(%rbp)
    a3be:	c7 85 88 f5 ff ff 7c 	movl   $0x36caf7c,-0xa78(%rbp)
    a3c5:	af 6c 03 
    a3c8:	48 8d 85 62 f5 ff ff 	lea    -0xa9e(%rbp),%rax
    a3cf:	48 89 85 e0 f5 ff ff 	mov    %rax,-0xa20(%rbp)
    a3d6:	48 8d 05 83 8c 00 00 	lea    0x8c83(%rip),%rax        # 13060 <g_225>
    a3dd:	48 89 85 38 f6 ff ff 	mov    %rax,-0x9c8(%rbp)
    a3e4:	48 c7 85 e8 f5 ff ff 	movq   $0x0,-0xa18(%rbp)
    a3eb:	00 00 00 00 
    a3ef:	48 8d 85 e8 f5 ff ff 	lea    -0xa18(%rbp),%rax
    a3f6:	48 89 85 30 fa ff ff 	mov    %rax,-0x5d0(%rbp)
    a3fd:	48 8d 85 e8 f5 ff ff 	lea    -0xa18(%rbp),%rax
    a404:	48 89 85 38 fa ff ff 	mov    %rax,-0x5c8(%rbp)
    a40b:	48 8d 85 e8 f5 ff ff 	lea    -0xa18(%rbp),%rax
    a412:	48 89 85 40 fa ff ff 	mov    %rax,-0x5c0(%rbp)
    a419:	48 8d 85 e8 f5 ff ff 	lea    -0xa18(%rbp),%rax
    a420:	48 89 85 48 fa ff ff 	mov    %rax,-0x5b8(%rbp)
    a427:	48 8d 85 e8 f5 ff ff 	lea    -0xa18(%rbp),%rax
    a42e:	48 89 85 50 fa ff ff 	mov    %rax,-0x5b0(%rbp)
    a435:	48 8d 85 e8 f5 ff ff 	lea    -0xa18(%rbp),%rax
    a43c:	48 89 85 58 fa ff ff 	mov    %rax,-0x5a8(%rbp)
    a443:	48 8d 85 e8 f5 ff ff 	lea    -0xa18(%rbp),%rax
    a44a:	48 89 85 60 fa ff ff 	mov    %rax,-0x5a0(%rbp)
    a451:	48 8d 85 e8 f5 ff ff 	lea    -0xa18(%rbp),%rax
    a458:	48 89 85 68 fa ff ff 	mov    %rax,-0x598(%rbp)
    a45f:	48 8d 85 e8 f5 ff ff 	lea    -0xa18(%rbp),%rax
    a466:	48 89 85 70 fa ff ff 	mov    %rax,-0x590(%rbp)
    a46d:	48 8d 85 e8 f5 ff ff 	lea    -0xa18(%rbp),%rax
    a474:	48 89 85 78 fa ff ff 	mov    %rax,-0x588(%rbp)
    a47b:	48 8d 85 e8 f5 ff ff 	lea    -0xa18(%rbp),%rax
    a482:	48 89 85 80 fa ff ff 	mov    %rax,-0x580(%rbp)
    a489:	48 8d 85 e8 f5 ff ff 	lea    -0xa18(%rbp),%rax
    a490:	48 89 85 88 fa ff ff 	mov    %rax,-0x578(%rbp)
    a497:	48 8d 85 e8 f5 ff ff 	lea    -0xa18(%rbp),%rax
    a49e:	48 89 85 90 fa ff ff 	mov    %rax,-0x570(%rbp)
    a4a5:	48 8d 85 e8 f5 ff ff 	lea    -0xa18(%rbp),%rax
    a4ac:	48 89 85 98 fa ff ff 	mov    %rax,-0x568(%rbp)
    a4b3:	48 8d 85 e8 f5 ff ff 	lea    -0xa18(%rbp),%rax
    a4ba:	48 89 85 a0 fa ff ff 	mov    %rax,-0x560(%rbp)
    a4c1:	48 8d 85 e8 f5 ff ff 	lea    -0xa18(%rbp),%rax
    a4c8:	48 89 85 a8 fa ff ff 	mov    %rax,-0x558(%rbp)
    a4cf:	48 8d 85 e8 f5 ff ff 	lea    -0xa18(%rbp),%rax
    a4d6:	48 89 85 b0 fa ff ff 	mov    %rax,-0x550(%rbp)
    a4dd:	48 8d 85 e8 f5 ff ff 	lea    -0xa18(%rbp),%rax
    a4e4:	48 89 85 b8 fa ff ff 	mov    %rax,-0x548(%rbp)
    a4eb:	48 8d 85 e8 f5 ff ff 	lea    -0xa18(%rbp),%rax
    a4f2:	48 89 85 c0 fa ff ff 	mov    %rax,-0x540(%rbp)
    a4f9:	48 8d 85 e8 f5 ff ff 	lea    -0xa18(%rbp),%rax
    a500:	48 89 85 c8 fa ff ff 	mov    %rax,-0x538(%rbp)
    a507:	48 8d 85 e8 f5 ff ff 	lea    -0xa18(%rbp),%rax
    a50e:	48 89 85 d0 fa ff ff 	mov    %rax,-0x530(%rbp)
    a515:	48 8d 85 e8 f5 ff ff 	lea    -0xa18(%rbp),%rax
    a51c:	48 89 85 d8 fa ff ff 	mov    %rax,-0x528(%rbp)
    a523:	48 8d 85 e8 f5 ff ff 	lea    -0xa18(%rbp),%rax
    a52a:	48 89 85 e0 fa ff ff 	mov    %rax,-0x520(%rbp)
    a531:	48 8d 85 e8 f5 ff ff 	lea    -0xa18(%rbp),%rax
    a538:	48 89 85 e8 fa ff ff 	mov    %rax,-0x518(%rbp)
    a53f:	48 8d 85 e8 f5 ff ff 	lea    -0xa18(%rbp),%rax
    a546:	48 89 85 f0 fa ff ff 	mov    %rax,-0x510(%rbp)
    a54d:	48 8d 85 e8 f5 ff ff 	lea    -0xa18(%rbp),%rax
    a554:	48 89 85 f8 fa ff ff 	mov    %rax,-0x508(%rbp)
    a55b:	48 8d 85 e8 f5 ff ff 	lea    -0xa18(%rbp),%rax
    a562:	48 89 85 00 fb ff ff 	mov    %rax,-0x500(%rbp)
    a569:	48 8d 85 e8 f5 ff ff 	lea    -0xa18(%rbp),%rax
    a570:	48 89 85 08 fb ff ff 	mov    %rax,-0x4f8(%rbp)
    a577:	48 8d 85 e8 f5 ff ff 	lea    -0xa18(%rbp),%rax
    a57e:	48 89 85 10 fb ff ff 	mov    %rax,-0x4f0(%rbp)
    a585:	48 8d 85 e8 f5 ff ff 	lea    -0xa18(%rbp),%rax
    a58c:	48 89 85 18 fb ff ff 	mov    %rax,-0x4e8(%rbp)
    a593:	48 8d 85 e8 f5 ff ff 	lea    -0xa18(%rbp),%rax
    a59a:	48 89 85 20 fb ff ff 	mov    %rax,-0x4e0(%rbp)
    a5a1:	48 8d 85 e8 f5 ff ff 	lea    -0xa18(%rbp),%rax
    a5a8:	48 89 85 28 fb ff ff 	mov    %rax,-0x4d8(%rbp)
    a5af:	48 8d 85 e8 f5 ff ff 	lea    -0xa18(%rbp),%rax
    a5b6:	48 89 85 30 fb ff ff 	mov    %rax,-0x4d0(%rbp)
    a5bd:	48 8d 85 e8 f5 ff ff 	lea    -0xa18(%rbp),%rax
    a5c4:	48 89 85 38 fb ff ff 	mov    %rax,-0x4c8(%rbp)
    a5cb:	48 8d 85 e8 f5 ff ff 	lea    -0xa18(%rbp),%rax
    a5d2:	48 89 85 40 fb ff ff 	mov    %rax,-0x4c0(%rbp)
    a5d9:	48 8d 85 e8 f5 ff ff 	lea    -0xa18(%rbp),%rax
    a5e0:	48 89 85 48 fb ff ff 	mov    %rax,-0x4b8(%rbp)
    a5e7:	48 8d 85 e8 f5 ff ff 	lea    -0xa18(%rbp),%rax
    a5ee:	48 89 85 50 fb ff ff 	mov    %rax,-0x4b0(%rbp)
    a5f5:	48 8d 85 e8 f5 ff ff 	lea    -0xa18(%rbp),%rax
    a5fc:	48 89 85 58 fb ff ff 	mov    %rax,-0x4a8(%rbp)
    a603:	48 8d 85 e8 f5 ff ff 	lea    -0xa18(%rbp),%rax
    a60a:	48 89 85 60 fb ff ff 	mov    %rax,-0x4a0(%rbp)
    a611:	48 8d 85 e8 f5 ff ff 	lea    -0xa18(%rbp),%rax
    a618:	48 89 85 68 fb ff ff 	mov    %rax,-0x498(%rbp)
    a61f:	c7 85 8c f5 ff ff 8e 	movl   $0x87f0568e,-0xa74(%rbp)
    a626:	56 f0 87 
    a629:	48 b8 e8 f5 2f 4e 75 	movabs $0x8de07f754e2ff5e8,%rax
    a630:	7f e0 8d 
    a633:	48 89 85 40 f6 ff ff 	mov    %rax,-0x9c0(%rbp)
    a63a:	48 8d 05 17 a0 00 00 	lea    0xa017(%rip),%rax        # 14658 <g_309>
    a641:	48 89 85 48 f6 ff ff 	mov    %rax,-0x9b8(%rbp)
    a648:	48 8d 05 ed 89 00 00 	lea    0x89ed(%rip),%rax        # 1303c <g_140>
    a64f:	48 89 85 d0 f7 ff ff 	mov    %rax,-0x830(%rbp)
    a656:	48 8d 05 df 89 00 00 	lea    0x89df(%rip),%rax        # 1303c <g_140>
    a65d:	48 89 85 d8 f7 ff ff 	mov    %rax,-0x828(%rbp)
    a664:	48 8d 05 d1 89 00 00 	lea    0x89d1(%rip),%rax        # 1303c <g_140>
    a66b:	48 89 85 e0 f7 ff ff 	mov    %rax,-0x820(%rbp)
    a672:	48 8d 05 c3 89 00 00 	lea    0x89c3(%rip),%rax        # 1303c <g_140>
    a679:	48 89 85 e8 f7 ff ff 	mov    %rax,-0x818(%rbp)
    a680:	48 8d 05 b5 89 00 00 	lea    0x89b5(%rip),%rax        # 1303c <g_140>
    a687:	48 89 85 f0 f7 ff ff 	mov    %rax,-0x810(%rbp)
    a68e:	48 8d 05 a7 89 00 00 	lea    0x89a7(%rip),%rax        # 1303c <g_140>
    a695:	48 89 85 f8 f7 ff ff 	mov    %rax,-0x808(%rbp)
    a69c:	48 8d 05 99 89 00 00 	lea    0x8999(%rip),%rax        # 1303c <g_140>
    a6a3:	48 89 85 00 f8 ff ff 	mov    %rax,-0x800(%rbp)
    a6aa:	48 8d 05 8b 89 00 00 	lea    0x898b(%rip),%rax        # 1303c <g_140>
    a6b1:	48 89 85 08 f8 ff ff 	mov    %rax,-0x7f8(%rbp)
    a6b8:	48 8d 05 7d 89 00 00 	lea    0x897d(%rip),%rax        # 1303c <g_140>
    a6bf:	48 89 85 10 f8 ff ff 	mov    %rax,-0x7f0(%rbp)
    a6c6:	48 8d 85 c0 f5 ff ff 	lea    -0xa40(%rbp),%rax
    a6cd:	48 89 85 50 f6 ff ff 	mov    %rax,-0x9b0(%rbp)
    a6d4:	48 8d 05 a9 89 00 00 	lea    0x89a9(%rip),%rax        # 13084 <g_230+0x4>
    a6db:	48 89 85 f0 f5 ff ff 	mov    %rax,-0xa10(%rbp)
    a6e2:	c7 85 6c f5 ff ff 00 	movl   $0x0,-0xa94(%rbp)
    a6e9:	00 00 00 
    a6ec:	eb 1e                	jmp    a70c <func_63+0xa7a>
    a6ee:	8b 85 6c f5 ff ff    	mov    -0xa94(%rbp),%eax
    a6f4:	48 98                	cltq   
    a6f6:	48 8d 95 e0 f5 ff ff 	lea    -0xa20(%rbp),%rdx
    a6fd:	48 89 94 c5 10 f7 ff 	mov    %rdx,-0x8f0(%rbp,%rax,8)
    a704:	ff 
    a705:	83 85 6c f5 ff ff 01 	addl   $0x1,-0xa94(%rbp)
    a70c:	83 bd 6c f5 ff ff 01 	cmpl   $0x1,-0xa94(%rbp)
    a713:	7e d9                	jle    a6ee <func_63+0xa5c>
    a715:	c6 05 1c 89 00 00 00 	movb   $0x0,0x891c(%rip)        # 13038 <g_110>
    a71c:	eb 28                	jmp    a746 <func_63+0xab4>
    a71e:	48 c7 05 17 9f 00 00 	movq   $0x0,0x9f17(%rip)        # 14640 <g_8>
    a725:	00 00 00 00 
    a729:	0f b6 05 08 89 00 00 	movzbl 0x8908(%rip),%eax        # 13038 <g_110>
    a730:	0f b6 c0             	movzbl %al,%eax
    a733:	be 01 00 00 00       	mov    $0x1,%esi
    a738:	48 89 c7             	mov    %rax,%rdi
    a73b:	e8 ee c8 ff ff       	callq  702e <safe_add_func_uint64_t_u_u>
    a740:	88 05 f2 88 00 00    	mov    %al,0x88f2(%rip)        # 13038 <g_110>
    a746:	0f b6 05 eb 88 00 00 	movzbl 0x88eb(%rip),%eax        # 13038 <g_110>
    a74d:	3c 1d                	cmp    $0x1d,%al
    a74f:	77 cd                	ja     a71e <func_63+0xa8c>
    a751:	48 8b 85 08 f6 ff ff 	mov    -0x9f8(%rbp),%rax
    a758:	8b 00                	mov    (%rax),%eax
    a75a:	85 c0                	test   %eax,%eax
    a75c:	0f 85 52 13 00 00    	jne    bab4 <func_63+0x1e22>
    a762:	48 8b 95 58 f5 ff ff 	mov    -0xaa8(%rbp),%rdx
    a769:	0f b7 85 62 f5 ff ff 	movzwl -0xa9e(%rbp),%eax
    a770:	48 0f bf c0          	movswq %ax,%rax
    a774:	48 89 05 c5 88 00 00 	mov    %rax,0x88c5(%rip)        # 13040 <g_159>
    a77b:	48 8b 05 be 88 00 00 	mov    0x88be(%rip),%rax        # 13040 <g_159>
    a782:	48 89 d6             	mov    %rdx,%rsi
    a785:	48 89 c7             	mov    %rax,%rdi
    a788:	e8 1b c1 ff ff       	callq  68a8 <safe_sub_func_int64_t_s_s>
    a78d:	48 8b 95 08 f6 ff ff 	mov    -0x9f8(%rbp),%rdx
    a794:	8b 12                	mov    (%rdx),%edx
    a796:	31 c2                	xor    %eax,%edx
    a798:	48 8b 85 08 f6 ff ff 	mov    -0x9f8(%rbp),%rax
    a79f:	89 10                	mov    %edx,(%rax)
    a7a1:	48 8b 85 08 f6 ff ff 	mov    -0x9f8(%rbp),%rax
    a7a8:	8b 00                	mov    (%rax),%eax
    a7aa:	85 c0                	test   %eax,%eax
    a7ac:	0f 84 21 04 00 00    	je     abd3 <func_63+0xf41>
    a7b2:	48 b8 01 6d 65 65 6d 	movabs $0xffff016d65656d01,%rax
    a7b9:	01 ff ff 
    a7bc:	48 89 85 60 f7 ff ff 	mov    %rax,-0x8a0(%rbp)
    a7c3:	48 89 85 68 f7 ff ff 	mov    %rax,-0x898(%rbp)
    a7ca:	48 89 85 70 f7 ff ff 	mov    %rax,-0x890(%rbp)
    a7d1:	48 89 85 78 f7 ff ff 	mov    %rax,-0x888(%rbp)
    a7d8:	48 c7 85 d0 f6 ff ff 	movq   $0x0,-0x930(%rbp)
    a7df:	00 00 00 00 
    a7e3:	c7 85 ac f5 ff ff fd 	movl   $0xfffffffd,-0xa54(%rbp)
    a7ea:	ff ff ff 
    a7ed:	c7 85 b0 f5 ff ff a5 	movl   $0x9e1026a5,-0xa50(%rbp)
    a7f4:	26 10 9e 
    a7f7:	c7 85 b4 f5 ff ff 08 	movl   $0x8,-0xa4c(%rbp)
    a7fe:	00 00 00 
    a801:	48 8d 05 a4 ac 00 00 	lea    0xaca4(%rip),%rax        # 154ac <g_117>
    a808:	48 89 85 d8 f6 ff ff 	mov    %rax,-0x928(%rbp)
    a80f:	48 8d 05 a6 88 00 00 	lea    0x88a6(%rip),%rax        # 130bc <g_489>
    a816:	48 89 85 e0 f6 ff ff 	mov    %rax,-0x920(%rbp)
    a81d:	48 b8 56 ee 5b 83 63 	movabs $0xa4a4e663835bee56,%rax
    a824:	e6 a4 a4 
    a827:	48 89 85 e8 f6 ff ff 	mov    %rax,-0x918(%rbp)
    a82e:	48 8d 05 f7 87 00 00 	lea    0x87f7(%rip),%rax        # 1302c <g_35>
    a835:	48 89 85 f0 f6 ff ff 	mov    %rax,-0x910(%rbp)
    a83c:	c7 85 b8 f5 ff ff 09 	movl   $0x9,-0xa48(%rbp)
    a843:	00 00 00 
    a846:	c7 85 70 f5 ff ff 00 	movl   $0x0,-0xa90(%rbp)
    a84d:	00 00 00 
    a850:	eb 4a                	jmp    a89c <func_63+0xc0a>
    a852:	c7 85 74 f5 ff ff 00 	movl   $0x0,-0xa8c(%rbp)
    a859:	00 00 00 
    a85c:	eb 2e                	jmp    a88c <func_63+0xbfa>
    a85e:	8b 85 74 f5 ff ff    	mov    -0xa8c(%rbp),%eax
    a864:	48 98                	cltq   
    a866:	8b 95 70 f5 ff ff    	mov    -0xa90(%rbp),%edx
    a86c:	48 63 d2             	movslq %edx,%rdx
    a86f:	48 c1 e2 03          	shl    $0x3,%rdx
    a873:	48 01 d0             	add    %rdx,%rax
    a876:	48 8d 15 c3 87 00 00 	lea    0x87c3(%rip),%rdx        # 13040 <g_159>
    a87d:	48 89 94 c5 70 fb ff 	mov    %rdx,-0x490(%rbp,%rax,8)
    a884:	ff 
    a885:	83 85 74 f5 ff ff 01 	addl   $0x1,-0xa8c(%rbp)
    a88c:	83 bd 74 f5 ff ff 07 	cmpl   $0x7,-0xa8c(%rbp)
    a893:	7e c9                	jle    a85e <func_63+0xbcc>
    a895:	83 85 70 f5 ff ff 01 	addl   $0x1,-0xa90(%rbp)
    a89c:	83 bd 70 f5 ff ff 05 	cmpl   $0x5,-0xa90(%rbp)
    a8a3:	7e ad                	jle    a852 <func_63+0xbc0>
    a8a5:	4c 8b a5 30 f8 ff ff 	mov    -0x7d0(%rbp),%r12
    a8ac:	0f b7 05 07 88 00 00 	movzwl 0x8807(%rip),%eax        # 130ba <g_456>
    a8b3:	0f b7 d8             	movzwl %ax,%ebx
    a8b6:	0f b6 85 76 f7 ff ff 	movzbl -0x88a(%rbp),%eax
    a8bd:	48 8b 95 c8 f5 ff ff 	mov    -0xa38(%rbp),%rdx
    a8c4:	09 d0                	or     %edx,%eax
    a8c6:	0f be c0             	movsbl %al,%eax
    a8c9:	be 04 00 00 00       	mov    $0x4,%esi
    a8ce:	89 c7                	mov    %eax,%edi
    a8d0:	e8 cc b9 ff ff       	callq  62a1 <safe_lshift_func_int8_t_s_s>
    a8d5:	48 0f be d0          	movsbq %al,%rdx
    a8d9:	8b 85 c8 f9 ff ff    	mov    -0x638(%rbp),%eax
    a8df:	48 8b 8d 58 f5 ff ff 	mov    -0xaa8(%rbp),%rcx
    a8e6:	09 c8                	or     %ecx,%eax
    a8e8:	89 85 c8 f9 ff ff    	mov    %eax,-0x638(%rbp)
    a8ee:	8b 8d c8 f9 ff ff    	mov    -0x638(%rbp),%ecx
    a8f4:	0f b6 85 60 f7 ff ff 	movzbl -0x8a0(%rbp),%eax
    a8fb:	0f b6 f0             	movzbl %al,%esi
    a8fe:	8b 85 68 f5 ff ff    	mov    -0xa98(%rbp),%eax
    a904:	25 3c 70 00 00       	and    $0x703c,%eax
    a909:	89 85 68 f5 ff ff    	mov    %eax,-0xa98(%rbp)
    a90f:	8b 85 68 f5 ff ff    	mov    -0xa98(%rbp),%eax
    a915:	39 c6                	cmp    %eax,%esi
    a917:	0f 9e c0             	setle  %al
    a91a:	0f b6 c0             	movzbl %al,%eax
    a91d:	39 c1                	cmp    %eax,%ecx
    a91f:	0f 9c c0             	setl   %al
    a922:	0f b6 c0             	movzbl %al,%eax
    a925:	48 89 05 34 87 00 00 	mov    %rax,0x8734(%rip)        # 13060 <g_225>
    a92c:	48 8b 05 2d 87 00 00 	mov    0x872d(%rip),%rax        # 13060 <g_225>
    a933:	48 83 f0 03          	xor    $0x3,%rax
    a937:	48 39 c2             	cmp    %rax,%rdx
    a93a:	0f 9d c0             	setge  %al
    a93d:	0f b6 c0             	movzbl %al,%eax
    a940:	89 85 ac f5 ff ff    	mov    %eax,-0xa54(%rbp)
    a946:	8b 85 ac f5 ff ff    	mov    -0xa54(%rbp),%eax
    a94c:	33 85 b0 f5 ff ff    	xor    -0xa50(%rbp),%eax
    a952:	89 85 b4 f5 ff ff    	mov    %eax,-0xa4c(%rbp)
    a958:	8b 85 b4 f5 ff ff    	mov    -0xa4c(%rbp),%eax
    a95e:	98                   	cwtl   
    a95f:	89 c7                	mov    %eax,%edi
    a961:	e8 37 ba ff ff       	callq  639d <safe_unary_minus_func_int16_t_s>
    a966:	ba 01 00 00 00       	mov    $0x1,%edx
    a96b:	48 8b 85 d8 f6 ff ff 	mov    -0x928(%rbp),%rax
    a972:	0f b6 00             	movzbl (%rax),%eax
    a975:	21 c2                	and    %eax,%edx
    a977:	48 8b 85 d8 f6 ff ff 	mov    -0x928(%rbp),%rax
    a97e:	88 10                	mov    %dl,(%rax)
    a980:	48 8b 85 d8 f6 ff ff 	mov    -0x928(%rbp),%rax
    a987:	0f b6 10             	movzbl (%rax),%edx
    a98a:	48 8b 85 e0 f6 ff ff 	mov    -0x920(%rbp),%rax
    a991:	88 10                	mov    %dl,(%rax)
    a993:	48 8b 85 e0 f6 ff ff 	mov    -0x920(%rbp),%rax
    a99a:	0f b6 00             	movzbl (%rax),%eax
    a99d:	0f be c0             	movsbl %al,%eax
    a9a0:	be f0 ff ff ff       	mov    $0xfffffff0,%esi
    a9a5:	89 c7                	mov    %eax,%edi
    a9a7:	e8 46 b8 ff ff       	callq  61f2 <safe_sub_func_int8_t_s_s>
    a9ac:	0f be d0             	movsbl %al,%edx
    a9af:	0f b6 85 6d f7 ff ff 	movzbl -0x893(%rbp),%eax
    a9b6:	0f b6 c0             	movzbl %al,%eax
    a9b9:	39 c2                	cmp    %eax,%edx
    a9bb:	0f 9d c0             	setge  %al
    a9be:	0f b6 d0             	movzbl %al,%edx
    a9c1:	8b 05 6d 86 00 00    	mov    0x866d(%rip),%eax        # 13034 <g_72>
    a9c7:	89 d6                	mov    %edx,%esi
    a9c9:	89 c7                	mov    %eax,%edi
    a9cb:	e8 e8 c4 ff ff       	callq  6eb8 <safe_add_func_uint32_t_u_u>
    a9d0:	48 8b 85 e8 f6 ff ff 	mov    -0x918(%rbp),%rax
    a9d7:	be f6 ff ff ff       	mov    $0xfffffff6,%esi
    a9dc:	89 c7                	mov    %eax,%edi
    a9de:	e8 d3 bb ff ff       	callq  65b6 <safe_add_func_int32_t_s_s>
    a9e3:	89 c2                	mov    %eax,%edx
    a9e5:	0f b7 05 cc 86 00 00 	movzwl 0x86cc(%rip),%eax        # 130b8 <g_433>
    a9ec:	0f b7 c0             	movzwl %ax,%eax
    a9ef:	89 d6                	mov    %edx,%esi
    a9f1:	89 c7                	mov    %eax,%edi
    a9f3:	e8 36 37 00 00       	callq  e12e <func_98>
    a9f8:	48 89 c7             	mov    %rax,%rdi
    a9fb:	48 8b 85 f0 f6 ff ff 	mov    -0x910(%rbp),%rax
    aa02:	4c 89 e1             	mov    %r12,%rcx
    aa05:	89 da                	mov    %ebx,%edx
    aa07:	48 89 c6             	mov    %rax,%rsi
    aa0a:	e8 5e 31 00 00       	callq  db6d <func_93>
    aa0f:	48 89 85 08 f6 ff ff 	mov    %rax,-0x9f8(%rbp)
    aa16:	48 8b 85 58 f5 ff ff 	mov    -0xaa8(%rbp),%rax
    aa1d:	0f b6 d8             	movzbl %al,%ebx
    aa20:	8b 85 c8 f9 ff ff    	mov    -0x638(%rbp),%eax
    aa26:	44 0f b6 e0          	movzbl %al,%r12d
    aa2a:	8b 85 c4 f9 ff ff    	mov    -0x63c(%rbp),%eax
    aa30:	44 0f b6 e8          	movzbl %al,%r13d
    aa34:	8b 85 b0 f5 ff ff    	mov    -0xa50(%rbp),%eax
    aa3a:	0f b7 d0             	movzwl %ax,%edx
    aa3d:	48 8b 05 1c 9c 00 00 	mov    0x9c1c(%rip),%rax        # 14660 <g_311>
    aa44:	48 8b 00             	mov    (%rax),%rax
    aa47:	48 8b 00             	mov    (%rax),%rax
    aa4a:	0f b7 00             	movzwl (%rax),%eax
    aa4d:	0f b7 c0             	movzwl %ax,%eax
    aa50:	89 d6                	mov    %edx,%esi
    aa52:	89 c7                	mov    %eax,%edi
    aa54:	e8 03 c3 ff ff       	callq  6d5c <safe_mod_func_uint16_t_u_u>
    aa59:	0f b7 d0             	movzwl %ax,%edx
    aa5c:	48 8b 85 58 f5 ff ff 	mov    -0xaa8(%rbp),%rax
    aa63:	48 89 d6             	mov    %rdx,%rsi
    aa66:	48 89 c7             	mov    %rax,%rdi
    aa69:	e8 89 bf ff ff       	callq  69f7 <safe_div_func_int64_t_s_s>
    aa6e:	83 bd b8 f5 ff ff 00 	cmpl   $0x0,-0xa48(%rbp)
    aa75:	0f 95 c0             	setne  %al
    aa78:	0f b6 d0             	movzbl %al,%edx
    aa7b:	48 8b 85 58 f5 ff ff 	mov    -0xaa8(%rbp),%rax
    aa82:	48 39 c2             	cmp    %rax,%rdx
    aa85:	0f 95 c0             	setne  %al
    aa88:	0f b6 c0             	movzbl %al,%eax
    aa8b:	44 89 ee             	mov    %r13d,%esi
    aa8e:	89 c7                	mov    %eax,%edi
    aa90:	e8 e3 c0 ff ff       	callq  6b78 <safe_sub_func_uint8_t_u_u>
    aa95:	48 8b 85 58 f5 ff ff 	mov    -0xaa8(%rbp),%rax
    aa9c:	48 85 c0             	test   %rax,%rax
    aa9f:	74 07                	je     aaa8 <func_63+0xe16>
    aaa1:	ba 01 00 00 00       	mov    $0x1,%edx
    aaa6:	eb 05                	jmp    aaad <func_63+0xe1b>
    aaa8:	ba 00 00 00 00       	mov    $0x0,%edx
    aaad:	8b 85 68 f5 ff ff    	mov    -0xa98(%rbp),%eax
    aab3:	09 d0                	or     %edx,%eax
    aab5:	89 85 68 f5 ff ff    	mov    %eax,-0xa98(%rbp)
    aabb:	8b 85 68 f5 ff ff    	mov    -0xa98(%rbp),%eax
    aac1:	48 63 d0             	movslq %eax,%rdx
    aac4:	48 8b 85 58 f5 ff ff 	mov    -0xaa8(%rbp),%rax
    aacb:	48 39 c2             	cmp    %rax,%rdx
    aace:	0f 95 c0             	setne  %al
    aad1:	0f b6 c0             	movzbl %al,%eax
    aad4:	44 89 e6             	mov    %r12d,%esi
    aad7:	89 c7                	mov    %eax,%edi
    aad9:	e8 7c c0 ff ff       	callq  6b5a <safe_add_func_uint8_t_u_u>
    aade:	3c 45                	cmp    $0x45,%al
    aae0:	0f 96 c0             	setbe  %al
    aae3:	0f b6 c0             	movzbl %al,%eax
    aae6:	48 89 c7             	mov    %rax,%rdi
    aae9:	e8 28 bd ff ff       	callq  6816 <safe_unary_minus_func_int64_t_s>
    aaee:	0f b7 c0             	movzwl %ax,%eax
    aaf1:	be 08 00 00 00       	mov    $0x8,%esi
    aaf6:	89 c7                	mov    %eax,%edi
    aaf8:	e8 5f c2 ff ff       	callq  6d5c <safe_mod_func_uint16_t_u_u>
    aafd:	0f b6 c0             	movzbl %al,%eax
    ab00:	4c 8b 25 41 9b 00 00 	mov    0x9b41(%rip),%r12        # 14648 <g_143>
    ab07:	89 de                	mov    %ebx,%esi
    ab09:	89 c7                	mov    %eax,%edi
    ab0b:	e8 83 c0 ff ff       	callq  6b93 <safe_mul_func_uint8_t_u_u>
    ab10:	41 88 04 24          	mov    %al,(%r12)
    ab14:	0f b7 05 39 85 00 00 	movzwl 0x8539(%rip),%eax        # 13054 <g_217>
    ab1b:	0f b7 c0             	movzwl %ax,%eax
    ab1e:	89 85 b4 f5 ff ff    	mov    %eax,-0xa4c(%rbp)
    ab24:	48 8b 85 d0 f5 ff ff 	mov    -0xa30(%rbp),%rax
    ab2b:	8b 95 b4 f5 ff ff    	mov    -0xa4c(%rbp),%edx
    ab31:	48 63 d2             	movslq %edx,%rdx
    ab34:	48 89 10             	mov    %rdx,(%rax)
    ab37:	48 8b 00             	mov    (%rax),%rax
    ab3a:	31 85 88 f5 ff ff    	xor    %eax,-0xa78(%rbp)
    ab40:	8b 85 88 f5 ff ff    	mov    -0xa78(%rbp),%eax
    ab46:	48 98                	cltq   
    ab48:	48 8b 15 11 85 00 00 	mov    0x8511(%rip),%rdx        # 13060 <g_225>
    ab4f:	48 89 c6             	mov    %rax,%rsi
    ab52:	48 89 d7             	mov    %rdx,%rdi
    ab55:	e8 f1 c4 ff ff       	callq  704b <safe_sub_func_uint64_t_u_u>
    ab5a:	48 8b 85 08 f6 ff ff 	mov    -0x9f8(%rbp),%rax
    ab61:	8b 00                	mov    (%rax),%eax
    ab63:	48 8b 95 58 f5 ff ff 	mov    -0xaa8(%rbp),%rdx
    ab6a:	09 c2                	or     %eax,%edx
    ab6c:	48 8b 85 08 f6 ff ff 	mov    -0x9f8(%rbp),%rax
    ab73:	89 10                	mov    %edx,(%rax)
    ab75:	48 8b 85 08 f6 ff ff 	mov    -0x9f8(%rbp),%rax
    ab7c:	8b 00                	mov    (%rax),%eax
    ab7e:	85 c0                	test   %eax,%eax
    ab80:	0f 95 c0             	setne  %al
    ab83:	0f b6 c0             	movzbl %al,%eax
    ab86:	89 85 68 f9 ff ff    	mov    %eax,-0x698(%rbp)
    ab8c:	48 8b 85 d0 f5 ff ff 	mov    -0xa30(%rbp),%rax
    ab93:	48 8b 08             	mov    (%rax),%rcx
    ab96:	48 8b 95 58 f5 ff ff 	mov    -0xaa8(%rbp),%rdx
    ab9d:	48 8b 85 d0 f5 ff ff 	mov    -0xa30(%rbp),%rax
    aba4:	48 21 ca             	and    %rcx,%rdx
    aba7:	48 89 10             	mov    %rdx,(%rax)
    abaa:	48 8b 10             	mov    (%rax),%rdx
    abad:	48 8b 85 58 f5 ff ff 	mov    -0xaa8(%rbp),%rax
    abb4:	48 21 d0             	and    %rdx,%rax
    abb7:	21 85 b4 f5 ff ff    	and    %eax,-0xa4c(%rbp)
    abbd:	48 8b 05 1c a4 00 00 	mov    0xa41c(%rip),%rax        # 14fe0 <g_515>
    abc4:	48 8b 95 28 f6 ff ff 	mov    -0x9d8(%rbp),%rdx
    abcb:	48 89 10             	mov    %rdx,(%rax)
    abce:	e9 9b 0b 00 00       	jmpq   b76e <func_63+0x1adc>
    abd3:	48 c7 85 58 f6 ff ff 	movq   $0x0,-0x9a8(%rbp)
    abda:	00 00 00 00 
    abde:	48 8d 85 d0 f5 ff ff 	lea    -0xa30(%rbp),%rax
    abe5:	48 89 85 70 fb ff ff 	mov    %rax,-0x490(%rbp)
    abec:	48 8d 85 d0 f5 ff ff 	lea    -0xa30(%rbp),%rax
    abf3:	48 89 85 78 fb ff ff 	mov    %rax,-0x488(%rbp)
    abfa:	48 8d 85 d0 f5 ff ff 	lea    -0xa30(%rbp),%rax
    ac01:	48 89 85 80 fb ff ff 	mov    %rax,-0x480(%rbp)
    ac08:	48 8d 85 d0 f5 ff ff 	lea    -0xa30(%rbp),%rax
    ac0f:	48 89 85 88 fb ff ff 	mov    %rax,-0x478(%rbp)
    ac16:	48 8d 85 d0 f5 ff ff 	lea    -0xa30(%rbp),%rax
    ac1d:	48 89 85 90 fb ff ff 	mov    %rax,-0x470(%rbp)
    ac24:	48 8d 85 d0 f5 ff ff 	lea    -0xa30(%rbp),%rax
    ac2b:	48 89 85 98 fb ff ff 	mov    %rax,-0x468(%rbp)
    ac32:	48 8d 85 d0 f5 ff ff 	lea    -0xa30(%rbp),%rax
    ac39:	48 89 85 a0 fb ff ff 	mov    %rax,-0x460(%rbp)
    ac40:	48 8d 85 d0 f5 ff ff 	lea    -0xa30(%rbp),%rax
    ac47:	48 89 85 a8 fb ff ff 	mov    %rax,-0x458(%rbp)
    ac4e:	48 8d 85 70 fb ff ff 	lea    -0x490(%rbp),%rax
    ac55:	48 83 c0 10          	add    $0x10,%rax
    ac59:	48 89 85 60 f6 ff ff 	mov    %rax,-0x9a0(%rbp)
    ac60:	48 8d 85 a0 f8 ff ff 	lea    -0x760(%rbp),%rax
    ac67:	48 83 c0 50          	add    $0x50,%rax
    ac6b:	48 89 85 f8 f5 ff ff 	mov    %rax,-0xa08(%rbp)
    ac72:	c7 85 90 f5 ff ff ff 	movl   $0xffffffff,-0xa70(%rbp)
    ac79:	ff ff ff 
    ac7c:	c6 85 61 f5 ff ff 01 	movb   $0x1,-0xa9f(%rbp)
    ac83:	48 b8 7f b1 99 8e 66 	movabs $0x4cca58668e99b17f,%rax
    ac8a:	58 ca 4c 
    ac8d:	48 89 85 68 f6 ff ff 	mov    %rax,-0x998(%rbp)
    ac94:	c7 85 78 f5 ff ff 00 	movl   $0x0,-0xa88(%rbp)
    ac9b:	00 00 00 
    ac9e:	eb 1a                	jmp    acba <func_63+0x1028>
    aca0:	8b 85 78 f5 ff ff    	mov    -0xa88(%rbp),%eax
    aca6:	48 98                	cltq   
    aca8:	c7 84 85 20 f7 ff ff 	movl   $0x83d4e5f,-0x8e0(%rbp,%rax,4)
    acaf:	5f 4e 3d 08 
    acb3:	83 85 78 f5 ff ff 01 	addl   $0x1,-0xa88(%rbp)
    acba:	83 bd 78 f5 ff ff 04 	cmpl   $0x4,-0xa88(%rbp)
    acc1:	7e dd                	jle    aca0 <func_63+0x100e>
    acc3:	48 8b 85 60 f6 ff ff 	mov    -0x9a0(%rbp),%rax
    acca:	48 c7 00 00 00 00 00 	movq   $0x0,(%rax)
    acd1:	83 bd 88 f5 ff ff 00 	cmpl   $0x0,-0xa78(%rbp)
    acd8:	74 06                	je     ace0 <func_63+0x104e>
    acda:	90                   	nop
    acdb:	e9 d4 0d 00 00       	jmpq   bab4 <func_63+0x1e22>
    ace0:	c7 85 68 f5 ff ff 00 	movl   $0x0,-0xa98(%rbp)
    ace7:	00 00 00 
    acea:	e9 70 0a 00 00       	jmpq   b75f <func_63+0x1acd>
    acef:	48 8d 85 10 f7 ff ff 	lea    -0x8f0(%rbp),%rax
    acf6:	48 89 85 70 f6 ff ff 	mov    %rax,-0x990(%rbp)
    acfd:	48 8d 85 e0 f5 ff ff 	lea    -0xa20(%rbp),%rax
    ad04:	48 89 85 00 f6 ff ff 	mov    %rax,-0xa00(%rbp)
    ad0b:	48 8d 85 00 f6 ff ff 	lea    -0xa00(%rbp),%rax
    ad12:	48 89 85 78 f6 ff ff 	mov    %rax,-0x988(%rbp)
    ad19:	48 c7 85 80 f6 ff ff 	movq   $0x0,-0x980(%rbp)
    ad20:	00 00 00 00 
    ad24:	8b 85 68 f5 ff ff    	mov    -0xa98(%rbp),%eax
    ad2a:	48 98                	cltq   
    ad2c:	48 8d 14 85 00 00 00 	lea    0x0(,%rax,4),%rdx
    ad33:	00 
    ad34:	48 8d 05 6d 83 00 00 	lea    0x836d(%rip),%rax        # 130a8 <g_349>
    ad3b:	48 01 d0             	add    %rdx,%rax
    ad3e:	48 89 85 88 f6 ff ff 	mov    %rax,-0x978(%rbp)
    ad45:	c7 85 94 f5 ff ff 44 	movl   $0xc8fbd244,-0xa6c(%rbp)
    ad4c:	d2 fb c8 
    ad4f:	c7 85 98 f5 ff ff 07 	movl   $0x7,-0xa68(%rbp)
    ad56:	00 00 00 
    ad59:	c7 85 9c f5 ff ff 00 	movl   $0x0,-0xa64(%rbp)
    ad60:	00 00 00 
    ad63:	c7 85 40 f7 ff ff 79 	movl   $0x17d7bf79,-0x8c0(%rbp)
    ad6a:	bf d7 17 
    ad6d:	c7 85 44 f7 ff ff 79 	movl   $0x17d7bf79,-0x8bc(%rbp)
    ad74:	bf d7 17 
    ad77:	c7 85 48 f7 ff ff 79 	movl   $0x17d7bf79,-0x8b8(%rbp)
    ad7e:	bf d7 17 
    ad81:	c7 85 4c f7 ff ff 79 	movl   $0x17d7bf79,-0x8b4(%rbp)
    ad88:	bf d7 17 
    ad8b:	c7 85 50 f7 ff ff 79 	movl   $0x17d7bf79,-0x8b0(%rbp)
    ad92:	bf d7 17 
    ad95:	c7 85 54 f7 ff ff 79 	movl   $0x17d7bf79,-0x8ac(%rbp)
    ad9c:	bf d7 17 
    ad9f:	c7 85 58 f7 ff ff 79 	movl   $0x17d7bf79,-0x8a8(%rbp)
    ada6:	bf d7 17 
    ada9:	c7 85 5c f7 ff ff 79 	movl   $0x17d7bf79,-0x8a4(%rbp)
    adb0:	bf d7 17 
    adb3:	8b 05 83 82 00 00    	mov    0x8283(%rip),%eax        # 1303c <g_140>
    adb9:	0f bf d8             	movswl %ax,%ebx
    adbc:	48 8b 85 08 f6 ff ff 	mov    -0x9f8(%rbp),%rax
    adc3:	8b 00                	mov    (%rax),%eax
    adc5:	48 8b 95 58 f5 ff ff 	mov    -0xaa8(%rbp),%rdx
    adcc:	09 c2                	or     %eax,%edx
    adce:	48 8b 85 08 f6 ff ff 	mov    -0x9f8(%rbp),%rax
    add5:	89 10                	mov    %edx,(%rax)
    add7:	48 8b 85 08 f6 ff ff 	mov    -0x9f8(%rbp),%rax
    adde:	44 8b 30             	mov    (%rax),%r14d
    ade1:	8b 85 68 f5 ff ff    	mov    -0xa98(%rbp),%eax
    ade7:	44 0f b7 e0          	movzwl %ax,%r12d
    adeb:	48 8b 95 18 f7 ff ff 	mov    -0x8e8(%rbp),%rdx
    adf2:	48 8b 85 70 f6 ff ff 	mov    -0x990(%rbp),%rax
    adf9:	48 89 10             	mov    %rdx,(%rax)
    adfc:	48 8b 85 70 f6 ff ff 	mov    -0x990(%rbp),%rax
    ae03:	48 8b 10             	mov    (%rax),%rdx
    ae06:	48 8b 85 78 f6 ff ff 	mov    -0x988(%rbp),%rax
    ae0d:	48 89 10             	mov    %rdx,(%rax)
    ae10:	48 8b 85 78 f6 ff ff 	mov    -0x988(%rbp),%rax
    ae17:	48 8b 10             	mov    (%rax),%rdx
    ae1a:	48 8b 05 bf a1 00 00 	mov    0xa1bf(%rip),%rax        # 14fe0 <g_515>
    ae21:	48 8b 00             	mov    (%rax),%rax
    ae24:	48 39 c2             	cmp    %rax,%rdx
    ae27:	0f 84 84 00 00 00    	je     aeb1 <func_63+0x121f>
    ae2d:	48 8b 85 58 f5 ff ff 	mov    -0xaa8(%rbp),%rax
    ae34:	44 0f be e8          	movsbl %al,%r13d
    ae38:	48 83 bd 80 f6 ff ff 	cmpq   $0x0,-0x980(%rbp)
    ae3f:	00 
    ae40:	74 4c                	je     ae8e <func_63+0x11fc>
    ae42:	48 8d 85 58 f5 ff ff 	lea    -0xaa8(%rbp),%rax
    ae49:	48 89 85 38 f6 ff ff 	mov    %rax,-0x9c8(%rbp)
    ae50:	48 8d 05 09 82 00 00 	lea    0x8209(%rip),%rax        # 13060 <g_225>
    ae57:	48 39 85 38 f6 ff ff 	cmp    %rax,-0x9c8(%rbp)
    ae5e:	0f 95 c0             	setne  %al
    ae61:	0f b6 c0             	movzbl %al,%eax
    ae64:	be 02 00 00 00       	mov    $0x2,%esi
    ae69:	89 c7                	mov    %eax,%edi
    ae6b:	e8 31 b4 ff ff       	callq  62a1 <safe_lshift_func_int8_t_s_s>
    ae70:	0f b6 05 45 82 00 00 	movzbl 0x8245(%rip),%eax        # 130bc <g_489>
    ae77:	48 0f be d0          	movsbq %al,%rdx
    ae7b:	48 8b 05 d6 81 00 00 	mov    0x81d6(%rip),%rax        # 13058 <g_220>
    ae82:	48 39 c2             	cmp    %rax,%rdx
    ae85:	73 07                	jae    ae8e <func_63+0x11fc>
    ae87:	b8 01 00 00 00       	mov    $0x1,%eax
    ae8c:	eb 05                	jmp    ae93 <func_63+0x1201>
    ae8e:	b8 00 00 00 00       	mov    $0x0,%eax
    ae93:	0f be c0             	movsbl %al,%eax
    ae96:	44 89 ee             	mov    %r13d,%esi
    ae99:	89 c7                	mov    %eax,%edi
    ae9b:	e8 91 b3 ff ff       	callq  6231 <safe_mod_func_int8_t_s_s>
    aea0:	48 0f be d0          	movsbq %al,%rdx
    aea4:	48 8b 85 58 f5 ff ff 	mov    -0xaa8(%rbp),%rax
    aeab:	48 21 d0             	and    %rdx,%rax
    aeae:	48 85 c0             	test   %rax,%rax
    aeb1:	0f b7 85 62 f5 ff ff 	movzwl -0xa9e(%rbp),%eax
    aeb8:	66 85 c0             	test   %ax,%ax
    aebb:	0f 95 c0             	setne  %al
    aebe:	0f b6 c0             	movzbl %al,%eax
    aec1:	44 89 e6             	mov    %r12d,%esi
    aec4:	89 c7                	mov    %eax,%edi
    aec6:	e8 72 be ff ff       	callq  6d3d <safe_mul_func_uint16_t_u_u>
    aecb:	0f b7 c0             	movzwl %ax,%eax
    aece:	41 39 c6             	cmp    %eax,%r14d
    aed1:	0f 9e c0             	setle  %al
    aed4:	0f b6 c0             	movzbl %al,%eax
    aed7:	89 de                	mov    %ebx,%esi
    aed9:	89 c7                	mov    %eax,%edi
    aedb:	e8 d3 b4 ff ff       	callq  63b3 <safe_add_func_int16_t_s_s>
    aee0:	98                   	cwtl   
    aee1:	39 85 90 f5 ff ff    	cmp    %eax,-0xa70(%rbp)
    aee7:	0f 95 c0             	setne  %al
    aeea:	0f b6 d0             	movzbl %al,%edx
    aeed:	48 8b 85 88 f6 ff ff 	mov    -0x978(%rbp),%rax
    aef4:	8b 00                	mov    (%rax),%eax
    aef6:	31 c2                	xor    %eax,%edx
    aef8:	48 8b 85 88 f6 ff ff 	mov    -0x978(%rbp),%rax
    aeff:	89 10                	mov    %edx,(%rax)
    af01:	48 8b 95 f8 f5 ff ff 	mov    -0xa08(%rbp),%rdx
    af08:	48 8d 85 e0 f5 ff ff 	lea    -0xa20(%rbp),%rax
    af0f:	48 39 c2             	cmp    %rax,%rdx
    af12:	0f 84 90 00 00 00    	je     afa8 <func_63+0x1316>
    af18:	48 b8 df 3c 37 42 8e 	movabs $0x381d518e42373cdf,%rax
    af1f:	51 1d 38 
    af22:	48 89 85 c0 f6 ff ff 	mov    %rax,-0x940(%rbp)
    af29:	48 c7 05 7c a5 00 00 	movq   $0x0,0xa57c(%rip)        # 154b0 <g_152>
    af30:	00 00 00 00 
    af34:	eb 50                	jmp    af86 <func_63+0x12f4>
    af36:	48 8d 85 30 fa ff ff 	lea    -0x5d0(%rbp),%rax
    af3d:	48 83 c0 30          	add    $0x30,%rax
    af41:	48 89 85 c8 f6 ff ff 	mov    %rax,-0x938(%rbp)
    af48:	48 8b 95 c0 fa ff ff 	mov    -0x540(%rbp),%rdx
    af4f:	48 8b 85 c8 f6 ff ff 	mov    -0x938(%rbp),%rax
    af56:	48 89 10             	mov    %rdx,(%rax)
    af59:	48 8b 85 08 f6 ff ff 	mov    -0x9f8(%rbp),%rax
    af60:	8b 00                	mov    (%rax),%eax
    af62:	48 8b 95 c0 f6 ff ff 	mov    -0x940(%rbp),%rdx
    af69:	09 c2                	or     %eax,%edx
    af6b:	48 8b 85 08 f6 ff ff 	mov    -0x9f8(%rbp),%rax
    af72:	89 10                	mov    %edx,(%rax)
    af74:	48 8b 05 35 a5 00 00 	mov    0xa535(%rip),%rax        # 154b0 <g_152>
    af7b:	48 83 c0 01          	add    $0x1,%rax
    af7f:	48 89 05 2a a5 00 00 	mov    %rax,0xa52a(%rip)        # 154b0 <g_152>
    af86:	48 8b 05 23 a5 00 00 	mov    0xa523(%rip),%rax        # 154b0 <g_152>
    af8d:	48 83 f8 0d          	cmp    $0xd,%rax
    af91:	77 a3                	ja     af36 <func_63+0x12a4>
    af93:	48 8b 85 58 f5 ff ff 	mov    -0xaa8(%rbp),%rax
    af9a:	48 85 c0             	test   %rax,%rax
    af9d:	0f 84 ad 07 00 00    	je     b750 <func_63+0x1abe>
    afa3:	e9 c6 07 00 00       	jmpq   b76e <func_63+0x1adc>
    afa8:	66 c7 85 64 f5 ff ff 	movw   $0x5a5d,-0xa9c(%rbp)
    afaf:	5d 5a 
    afb1:	c7 85 a0 f5 ff ff 09 	movl   $0x9,-0xa60(%rbp)
    afb8:	00 00 00 
    afbb:	c7 85 a4 f5 ff ff ff 	movl   $0xffffffff,-0xa5c(%rbp)
    afc2:	ff ff ff 
    afc5:	c7 85 a8 f5 ff ff f9 	movl   $0xfffffff9,-0xa58(%rbp)
    afcc:	ff ff ff 
    afcf:	66 83 85 64 f5 ff ff 	addw   $0x1,-0xa9c(%rbp)
    afd6:	01 
    afd7:	48 8b 85 58 f5 ff ff 	mov    -0xaa8(%rbp),%rax
    afde:	48 be 14 d2 21 7e 1b 	movabs $0xc67bc11b7e21d214,%rsi
    afe5:	c1 7b c6 
    afe8:	48 89 c7             	mov    %rax,%rdi
    afeb:	e8 c4 b9 ff ff       	callq  69b4 <safe_mod_func_int64_t_s_s>
    aff0:	0f bf d0             	movswl %ax,%edx
    aff3:	48 8b 85 58 f5 ff ff 	mov    -0xaa8(%rbp),%rax
    affa:	98                   	cwtl   
    affb:	89 d6                	mov    %edx,%esi
    affd:	89 c7                	mov    %eax,%edi
    afff:	e8 51 b4 ff ff       	callq  6455 <safe_div_func_int16_t_s_s>
    b004:	48 8b 85 58 f5 ff ff 	mov    -0xaa8(%rbp),%rax
    b00b:	0f b6 c0             	movzbl %al,%eax
    b00e:	be 00 00 00 00       	mov    $0x0,%esi
    b013:	89 c7                	mov    %eax,%edi
    b015:	e8 40 bb ff ff       	callq  6b5a <safe_add_func_uint8_t_u_u>
    b01a:	84 c0                	test   %al,%al
    b01c:	0f 84 17 01 00 00    	je     b139 <func_63+0x14a7>
    b022:	48 8d 85 f8 f5 ff ff 	lea    -0xa08(%rbp),%rax
    b029:	48 89 85 b8 f6 ff ff 	mov    %rax,-0x948(%rbp)
    b030:	c7 85 7c f5 ff ff 00 	movl   $0x0,-0xa84(%rbp)
    b037:	00 00 00 
    b03a:	eb 4c                	jmp    b088 <func_63+0x13f6>
    b03c:	c7 85 80 f5 ff ff 00 	movl   $0x0,-0xa80(%rbp)
    b043:	00 00 00 
    b046:	eb 30                	jmp    b078 <func_63+0x13e6>
    b048:	8b 85 80 f5 ff ff    	mov    -0xa80(%rbp),%eax
    b04e:	48 63 c8             	movslq %eax,%rcx
    b051:	8b 85 7c f5 ff ff    	mov    -0xa84(%rbp),%eax
    b057:	48 63 d0             	movslq %eax,%rdx
    b05a:	48 89 d0             	mov    %rdx,%rax
    b05d:	48 01 c0             	add    %rax,%rax
    b060:	48 01 d0             	add    %rdx,%rax
    b063:	48 01 c8             	add    %rcx,%rax
    b066:	c7 84 85 60 f7 ff ff 	movl   $0x5b3949e5,-0x8a0(%rbp,%rax,4)
    b06d:	e5 49 39 5b 
    b071:	83 85 80 f5 ff ff 01 	addl   $0x1,-0xa80(%rbp)
    b078:	83 bd 80 f5 ff ff 02 	cmpl   $0x2,-0xa80(%rbp)
    b07f:	7e c7                	jle    b048 <func_63+0x13b6>
    b081:	83 85 7c f5 ff ff 01 	addl   $0x1,-0xa84(%rbp)
    b088:	83 bd 7c f5 ff ff 02 	cmpl   $0x2,-0xa84(%rbp)
    b08f:	7e ab                	jle    b03c <func_63+0x13aa>
    b091:	83 bd 90 f5 ff ff 00 	cmpl   $0x0,-0xa70(%rbp)
    b098:	74 06                	je     b0a0 <func_63+0x140e>
    b09a:	90                   	nop
    b09b:	e9 ce 06 00 00       	jmpq   b76e <func_63+0x1adc>
    b0a0:	be 6a 00 00 00       	mov    $0x6a,%esi
    b0a5:	bf 00 00 00 00       	mov    $0x0,%edi
    b0aa:	e8 2c bb ff ff       	callq  6bdb <safe_div_func_uint8_t_u_u>
    b0af:	0f be d0             	movsbl %al,%edx
    b0b2:	48 8b 85 58 f5 ff ff 	mov    -0xaa8(%rbp),%rax
    b0b9:	0f be c0             	movsbl %al,%eax
    b0bc:	89 d6                	mov    %edx,%esi
    b0be:	89 c7                	mov    %eax,%edi
    b0c0:	e8 4d b1 ff ff       	callq  6212 <safe_mul_func_int8_t_s_s>
    b0c5:	4c 0f be e0          	movsbq %al,%r12
    b0c9:	8b 85 70 f7 ff ff    	mov    -0x890(%rbp),%eax
    b0cf:	48 63 d8             	movslq %eax,%rbx
    b0d2:	48 8b 85 58 f5 ff ff 	mov    -0xaa8(%rbp),%rax
    b0d9:	41 89 c5             	mov    %eax,%r13d
    b0dc:	48 8b 85 08 f6 ff ff 	mov    -0x9f8(%rbp),%rax
    b0e3:	8b 00                	mov    (%rax),%eax
    b0e5:	48 8b 95 b8 f6 ff ff 	mov    -0x948(%rbp),%rdx
    b0ec:	48 c7 02 00 00 00 00 	movq   $0x0,(%rdx)
    b0f3:	ba 01 00 00 00       	mov    $0x1,%edx
    b0f8:	89 c6                	mov    %eax,%esi
    b0fa:	89 d7                	mov    %edx,%edi
    b0fc:	e8 cb b5 ff ff       	callq  66cc <safe_mod_func_int32_t_s_s>
    b101:	44 89 ee             	mov    %r13d,%esi
    b104:	89 c7                	mov    %eax,%edi
    b106:	e8 f4 b5 ff ff       	callq  66ff <safe_div_func_int32_t_s_s>
    b10b:	48 98                	cltq   
    b10d:	48 89 de             	mov    %rbx,%rsi
    b110:	48 89 c7             	mov    %rax,%rdi
    b113:	e8 68 bf ff ff       	callq  7080 <safe_mod_func_uint64_t_u_u>
    b118:	4c 89 e2             	mov    %r12,%rdx
    b11b:	48 09 c2             	or     %rax,%rdx
    b11e:	48 8b 85 58 f5 ff ff 	mov    -0xaa8(%rbp),%rax
    b125:	48 39 c2             	cmp    %rax,%rdx
    b128:	0f 96 c0             	setbe  %al
    b12b:	0f b6 c0             	movzbl %al,%eax
    b12e:	89 05 74 a3 00 00    	mov    %eax,0xa374(%rip)        # 154a8 <g_7>
    b134:	e9 3f 05 00 00       	jmpq   b678 <func_63+0x19e6>
    b139:	48 c7 85 90 f6 ff ff 	movq   $0x0,-0x970(%rbp)
    b140:	00 00 00 00 
    b144:	48 8d 85 f0 fc ff ff 	lea    -0x310(%rbp),%rax
    b14b:	48 83 c0 28          	add    $0x28,%rax
    b14f:	48 89 85 98 f6 ff ff 	mov    %rax,-0x968(%rbp)
    b156:	48 8d 05 df 7e 00 00 	lea    0x7edf(%rip),%rax        # 1303c <g_140>
    b15d:	48 89 85 a0 f6 ff ff 	mov    %rax,-0x960(%rbp)
    b164:	48 8d 05 51 7f 00 00 	lea    0x7f51(%rip),%rax        # 130bc <g_489>
    b16b:	48 89 85 a8 f6 ff ff 	mov    %rax,-0x958(%rbp)
    b172:	48 8d 85 c8 f5 ff ff 	lea    -0xa38(%rbp),%rax
    b179:	48 89 85 b0 f6 ff ff 	mov    %rax,-0x950(%rbp)
    b180:	8b 15 e2 7e 00 00    	mov    0x7ee2(%rip),%edx        # 13068 <g_227>
    b186:	48 8b 85 08 f6 ff ff 	mov    -0x9f8(%rbp),%rax
    b18d:	89 10                	mov    %edx,(%rax)
    b18f:	48 8b 85 98 f6 ff ff 	mov    -0x968(%rbp),%rax
    b196:	48 8b 95 90 f6 ff ff 	mov    -0x970(%rbp),%rdx
    b19d:	48 89 10             	mov    %rdx,(%rax)
    b1a0:	48 8b 85 58 f5 ff ff 	mov    -0xaa8(%rbp),%rax
    b1a7:	41 89 c4             	mov    %eax,%r12d
    b1aa:	48 8b 85 68 f6 ff ff 	mov    -0x998(%rbp),%rax
    b1b1:	0f b7 c0             	movzwl %ax,%eax
    b1b4:	be 02 00 00 00       	mov    $0x2,%esi
    b1b9:	89 c7                	mov    %eax,%edi
    b1bb:	e8 ba bc ff ff       	callq  6e7a <safe_rshift_func_uint16_t_u_u>
    b1c0:	48 8b 95 a0 f6 ff ff 	mov    -0x960(%rbp),%rdx
    b1c7:	8b 12                	mov    (%rdx),%edx
    b1c9:	0f b7 c0             	movzwl %ax,%eax
    b1cc:	21 c2                	and    %eax,%edx
    b1ce:	48 8b 85 a0 f6 ff ff 	mov    -0x960(%rbp),%rax
    b1d5:	89 10                	mov    %edx,(%rax)
    b1d7:	48 8b 85 a0 f6 ff ff 	mov    -0x960(%rbp),%rax
    b1de:	8b 00                	mov    (%rax),%eax
    b1e0:	89 c2                	mov    %eax,%edx
    b1e2:	8b 85 90 f5 ff ff    	mov    -0xa70(%rbp),%eax
    b1e8:	89 d6                	mov    %edx,%esi
    b1ea:	89 c7                	mov    %eax,%edi
    b1ec:	e8 14 b4 ff ff       	callq  6605 <safe_sub_func_int32_t_s_s>
    b1f1:	85 c0                	test   %eax,%eax
    b1f3:	0f 85 e5 00 00 00    	jne    b2de <func_63+0x164c>
    b1f9:	48 8b 85 a8 f6 ff ff 	mov    -0x958(%rbp),%rax
    b200:	0f b6 00             	movzbl (%rax),%eax
    b203:	83 c8 09             	or     $0x9,%eax
    b206:	89 c2                	mov    %eax,%edx
    b208:	48 8b 85 a8 f6 ff ff 	mov    -0x958(%rbp),%rax
    b20f:	88 10                	mov    %dl,(%rax)
    b211:	be 0c 00 00 00       	mov    $0xc,%esi
    b216:	bf ff ff 00 00       	mov    $0xffff,%edi
    b21b:	e8 e6 bb ff ff       	callq  6e06 <safe_lshift_func_uint16_t_u_u>
    b220:	48 c7 c6 f6 ff ff ff 	mov    $0xfffffffffffffff6,%rsi
    b227:	48 c7 c7 fc ff ff ff 	mov    $0xfffffffffffffffc,%rdi
    b22e:	e8 81 b7 ff ff       	callq  69b4 <safe_mod_func_int64_t_s_s>
    b233:	48 8b 95 58 f5 ff ff 	mov    -0xaa8(%rbp),%rdx
    b23a:	48 39 d0             	cmp    %rdx,%rax
    b23d:	75 0c                	jne    b24b <func_63+0x15b9>
    b23f:	48 8b 05 1a 7e 00 00 	mov    0x7e1a(%rip),%rax        # 13060 <g_225>
    b246:	48 85 c0             	test   %rax,%rax
    b249:	74 07                	je     b252 <func_63+0x15c0>
    b24b:	b8 01 00 00 00       	mov    $0x1,%eax
    b250:	eb 05                	jmp    b257 <func_63+0x15c5>
    b252:	b8 00 00 00 00       	mov    $0x0,%eax
    b257:	89 c2                	mov    %eax,%edx
    b259:	8b 05 c9 7d 00 00    	mov    0x7dc9(%rip),%eax        # 13028 <g_21>
    b25f:	39 c2                	cmp    %eax,%edx
    b261:	74 07                	je     b26a <func_63+0x15d8>
    b263:	b8 01 00 00 00       	mov    $0x1,%eax
    b268:	eb 05                	jmp    b26f <func_63+0x15dd>
    b26a:	b8 00 00 00 00       	mov    $0x0,%eax
    b26f:	48 63 d0             	movslq %eax,%rdx
    b272:	48 8b 85 58 f5 ff ff 	mov    -0xaa8(%rbp),%rax
    b279:	48 39 c2             	cmp    %rax,%rdx
    b27c:	0f 9f c0             	setg   %al
    b27f:	0f b6 d0             	movzbl %al,%edx
    b282:	48 8b 85 58 f5 ff ff 	mov    -0xaa8(%rbp),%rax
    b289:	48 39 c2             	cmp    %rax,%rdx
    b28c:	bf 13 61 00 00       	mov    $0x6113,%edi
    b291:	e8 07 b1 ff ff       	callq  639d <safe_unary_minus_func_int16_t_s>
    b296:	83 f0 25             	xor    $0x25,%eax
    b299:	0f be c0             	movsbl %al,%eax
    b29c:	be 01 00 00 00       	mov    $0x1,%esi
    b2a1:	89 c7                	mov    %eax,%edi
    b2a3:	e8 6a af ff ff       	callq  6212 <safe_mul_func_int8_t_s_s>
    b2a8:	0f b6 85 61 f5 ff ff 	movzbl -0xa9f(%rbp),%eax
    b2af:	0f be c0             	movsbl %al,%eax
    b2b2:	be fe ff ff ff       	mov    $0xfffffffe,%esi
    b2b7:	89 c7                	mov    %eax,%edi
    b2b9:	e8 54 af ff ff       	callq  6212 <safe_mul_func_int8_t_s_s>
    b2be:	48 0f be d0          	movsbq %al,%rdx
    b2c2:	48 8b 05 77 7d 00 00 	mov    0x7d77(%rip),%rax        # 13040 <g_159>
    b2c9:	48 21 d0             	and    %rdx,%rax
    b2cc:	48 89 05 6d 7d 00 00 	mov    %rax,0x7d6d(%rip)        # 13040 <g_159>
    b2d3:	48 8b 05 66 7d 00 00 	mov    0x7d66(%rip),%rax        # 13040 <g_159>
    b2da:	48 83 f8 01          	cmp    $0x1,%rax
    b2de:	48 8b 85 58 f5 ff ff 	mov    -0xaa8(%rbp),%rax
    b2e5:	89 c2                	mov    %eax,%edx
    b2e7:	48 8b 05 7a 93 00 00 	mov    0x937a(%rip),%rax        # 14668 <g_514>
    b2ee:	0f b7 00             	movzwl (%rax),%eax
    b2f1:	98                   	cwtl   
    b2f2:	89 d6                	mov    %edx,%esi
    b2f4:	89 c7                	mov    %eax,%edi
    b2f6:	e8 2f b2 ff ff       	callq  652a <safe_rshift_func_int16_t_s_s>
    b2fb:	0f b7 c0             	movzwl %ax,%eax
    b2fe:	48 8b 1d 4b 93 00 00 	mov    0x934b(%rip),%rbx        # 14650 <g_310>
    b305:	be 0f 00 00 00       	mov    $0xf,%esi
    b30a:	89 c7                	mov    %eax,%edi
    b30c:	e8 69 bb ff ff       	callq  6e7a <safe_rshift_func_uint16_t_u_u>
    b311:	66 89 03             	mov    %ax,(%rbx)
    b314:	0f b7 03             	movzwl (%rbx),%eax
    b317:	66 85 c0             	test   %ax,%ax
    b31a:	75 0c                	jne    b328 <func_63+0x1696>
    b31c:	48 8b 85 58 f5 ff ff 	mov    -0xaa8(%rbp),%rax
    b323:	48 85 c0             	test   %rax,%rax
    b326:	74 07                	je     b32f <func_63+0x169d>
    b328:	ba 01 00 00 00       	mov    $0x1,%edx
    b32d:	eb 05                	jmp    b334 <func_63+0x16a2>
    b32f:	ba 00 00 00 00       	mov    $0x0,%edx
    b334:	48 8b 05 0d 93 00 00 	mov    0x930d(%rip),%rax        # 14648 <g_143>
    b33b:	0f b6 00             	movzbl (%rax),%eax
    b33e:	0f b6 c0             	movzbl %al,%eax
    b341:	39 c2                	cmp    %eax,%edx
    b343:	0f 9c c0             	setl   %al
    b346:	0f b6 c0             	movzbl %al,%eax
    b349:	ba f2 58 3f 9d       	mov    $0x9d3f58f2,%edx
    b34e:	39 d0                	cmp    %edx,%eax
    b350:	0f 95 c0             	setne  %al
    b353:	0f b6 c0             	movzbl %al,%eax
    b356:	44 89 e6             	mov    %r12d,%esi
    b359:	89 c7                	mov    %eax,%edi
    b35b:	e8 9d bb ff ff       	callq  6efd <safe_mod_func_uint32_t_u_u>
    b360:	8b 95 c8 f9 ff ff    	mov    -0x638(%rbp),%edx
    b366:	31 d0                	xor    %edx,%eax
    b368:	89 c2                	mov    %eax,%edx
    b36a:	48 8b 85 08 f6 ff ff 	mov    -0x9f8(%rbp),%rax
    b371:	89 10                	mov    %edx,(%rax)
    b373:	48 8b 85 08 f6 ff ff 	mov    -0x9f8(%rbp),%rax
    b37a:	44 8b 28             	mov    (%rax),%r13d
    b37d:	48 8b 85 58 f5 ff ff 	mov    -0xaa8(%rbp),%rax
    b384:	41 89 c6             	mov    %eax,%r14d
    b387:	8b 85 a0 f5 ff ff    	mov    -0xa60(%rbp),%eax
    b38d:	0f b7 d8             	movzwl %ax,%ebx
    b390:	8b 05 ba 7c 00 00    	mov    0x7cba(%rip),%eax        # 13050 <g_216>
    b396:	41 89 c7             	mov    %eax,%r15d
    b399:	c7 85 8c f5 ff ff 08 	movl   $0x8,-0xa74(%rbp)
    b3a0:	00 00 00 
    b3a3:	be 04 00 00 00       	mov    $0x4,%esi
    b3a8:	bf 08 00 00 00       	mov    $0x8,%edi
    b3ad:	e8 db b8 ff ff       	callq  6c8d <safe_rshift_func_uint8_t_u_s>
    b3b2:	0f b6 d0             	movzbl %al,%edx
    b3b5:	0f b7 85 64 f5 ff ff 	movzwl -0xa9c(%rbp),%eax
    b3bc:	98                   	cwtl   
    b3bd:	89 d6                	mov    %edx,%esi
    b3bf:	89 c7                	mov    %eax,%edi
    b3c1:	e8 50 b0 ff ff       	callq  6416 <safe_mod_func_int16_t_s_s>
    b3c6:	0f b6 d0             	movzbl %al,%edx
    b3c9:	48 8b 0d 78 92 00 00 	mov    0x9278(%rip),%rcx        # 14648 <g_143>
    b3d0:	48 8b 05 71 92 00 00 	mov    0x9271(%rip),%rax        # 14648 <g_143>
    b3d7:	0f b6 09             	movzbl (%rcx),%ecx
    b3da:	88 08                	mov    %cl,(%rax)
    b3dc:	0f b6 00             	movzbl (%rax),%eax
    b3df:	0f b6 c0             	movzbl %al,%eax
    b3e2:	89 d6                	mov    %edx,%esi
    b3e4:	89 c7                	mov    %eax,%edi
    b3e6:	e8 6f b7 ff ff       	callq  6b5a <safe_add_func_uint8_t_u_u>
    b3eb:	84 c0                	test   %al,%al
    b3ed:	0f 84 ca 01 00 00    	je     b5bd <func_63+0x192b>
    b3f3:	44 0f b7 a5 64 f5 ff 	movzwl -0xa9c(%rbp),%r12d
    b3fa:	ff 
    b3fb:	8b 85 a0 f5 ff ff    	mov    -0xa60(%rbp),%eax
    b401:	0f b7 d0             	movzwl %ax,%edx
    b404:	8b 05 3e 7c 00 00    	mov    0x7c3e(%rip),%eax        # 13048 <g_172>
    b40a:	85 c0                	test   %eax,%eax
    b40c:	74 65                	je     b473 <func_63+0x17e1>
    b40e:	48 8b 85 a8 f6 ff ff 	mov    -0x958(%rbp),%rax
    b415:	0f b6 00             	movzbl (%rax),%eax
    b418:	0f b7 0d 9b 7c 00 00 	movzwl 0x7c9b(%rip),%ecx        # 130ba <g_456>
    b41f:	31 c1                	xor    %eax,%ecx
    b421:	48 8b 85 a8 f6 ff ff 	mov    -0x958(%rbp),%rax
    b428:	88 08                	mov    %cl,(%rax)
    b42a:	48 8b 85 a8 f6 ff ff 	mov    -0x958(%rbp),%rax
    b431:	0f b6 00             	movzbl (%rax),%eax
    b434:	0f be c8             	movsbl %al,%ecx
    b437:	0f b7 85 64 f5 ff ff 	movzwl -0xa9c(%rbp),%eax
    b43e:	39 c1                	cmp    %eax,%ecx
    b440:	74 13                	je     b455 <func_63+0x17c3>
    b442:	48 8b 85 58 f5 ff ff 	mov    -0xaa8(%rbp),%rax
    b449:	48 85 c0             	test   %rax,%rax
    b44c:	74 07                	je     b455 <func_63+0x17c3>
    b44e:	b8 01 00 00 00       	mov    $0x1,%eax
    b453:	eb 05                	jmp    b45a <func_63+0x17c8>
    b455:	b8 00 00 00 00       	mov    $0x0,%eax
    b45a:	48 63 c8             	movslq %eax,%rcx
    b45d:	48 8b 85 58 f5 ff ff 	mov    -0xaa8(%rbp),%rax
    b464:	48 09 c8             	or     %rcx,%rax
    b467:	48 85 c0             	test   %rax,%rax
    b46a:	74 07                	je     b473 <func_63+0x17e1>
    b46c:	b8 01 00 00 00       	mov    $0x1,%eax
    b471:	eb 05                	jmp    b478 <func_63+0x17e6>
    b473:	b8 00 00 00 00       	mov    $0x0,%eax
    b478:	0f b7 c0             	movzwl %ax,%eax
    b47b:	89 d6                	mov    %edx,%esi
    b47d:	89 c7                	mov    %eax,%edi
    b47f:	e8 0a b9 ff ff       	callq  6d8e <safe_div_func_uint16_t_u_u>
    b484:	0f b7 d0             	movzwl %ax,%edx
    b487:	48 8b 85 b0 f6 ff ff 	mov    -0x950(%rbp),%rax
    b48e:	48 89 10             	mov    %rdx,(%rax)
    b491:	48 8b 85 b0 f6 ff ff 	mov    -0x950(%rbp),%rax
    b498:	48 8b 00             	mov    (%rax),%rax
    b49b:	48 85 c0             	test   %rax,%rax
    b49e:	74 0a                	je     b4aa <func_63+0x1818>
    b4a0:	48 8b 85 58 f5 ff ff 	mov    -0xaa8(%rbp),%rax
    b4a7:	48 85 c0             	test   %rax,%rax
    b4aa:	b8 01 00 00 00       	mov    $0x1,%eax
    b4af:	98                   	cwtl   
    b4b0:	be 0f 00 00 00       	mov    $0xf,%esi
    b4b5:	89 c7                	mov    %eax,%edi
    b4b7:	e8 6e b0 ff ff       	callq  652a <safe_rshift_func_int16_t_s_s>
    b4bc:	66 85 c0             	test   %ax,%ax
    b4bf:	75 0a                	jne    b4cb <func_63+0x1839>
    b4c1:	66 83 bd 64 f5 ff ff 	cmpw   $0x0,-0xa9c(%rbp)
    b4c8:	00 
    b4c9:	74 07                	je     b4d2 <func_63+0x1840>
    b4cb:	b8 01 00 00 00       	mov    $0x1,%eax
    b4d0:	eb 05                	jmp    b4d7 <func_63+0x1845>
    b4d2:	b8 00 00 00 00       	mov    $0x0,%eax
    b4d7:	98                   	cwtl   
    b4d8:	44 89 e6             	mov    %r12d,%esi
    b4db:	89 c7                	mov    %eax,%edi
    b4dd:	e8 81 b0 ff ff       	callq  6563 <safe_rshift_func_int16_t_s_u>
    b4e2:	66 85 c0             	test   %ax,%ax
    b4e5:	74 07                	je     b4ee <func_63+0x185c>
    b4e7:	b8 01 00 00 00       	mov    $0x1,%eax
    b4ec:	eb 05                	jmp    b4f3 <func_63+0x1861>
    b4ee:	b8 00 00 00 00       	mov    $0x0,%eax
    b4f3:	48 63 d0             	movslq %eax,%rdx
    b4f6:	48 8b 85 58 f5 ff ff 	mov    -0xaa8(%rbp),%rax
    b4fd:	48 21 d0             	and    %rdx,%rax
    b500:	48 85 c0             	test   %rax,%rax
    b503:	75 0a                	jne    b50f <func_63+0x187d>
    b505:	48 8b 85 58 f5 ff ff 	mov    -0xaa8(%rbp),%rax
    b50c:	48 85 c0             	test   %rax,%rax
    b50f:	0f b6 85 61 f5 ff ff 	movzbl -0xa9f(%rbp),%eax
    b516:	48 0d bf 5e 78 6d    	or     $0x6d785ebf,%rax
    b51c:	48 89 c2             	mov    %rax,%rdx
    b51f:	48 8b 85 58 f5 ff ff 	mov    -0xaa8(%rbp),%rax
    b526:	48 39 c2             	cmp    %rax,%rdx
    b529:	0f 95 c0             	setne  %al
    b52c:	0f b6 d0             	movzbl %al,%edx
    b52f:	8b 85 9c f9 ff ff    	mov    -0x664(%rbp),%eax
    b535:	39 c2                	cmp    %eax,%edx
    b537:	8b 85 68 f5 ff ff    	mov    -0xa98(%rbp),%eax
    b53d:	48 98                	cltq   
    b53f:	48 8d 14 85 00 00 00 	lea    0x0(,%rax,4),%rdx
    b546:	00 
    b547:	48 8d 05 5a 7b 00 00 	lea    0x7b5a(%rip),%rax        # 130a8 <g_349>
    b54e:	8b 14 02             	mov    (%rdx,%rax,1),%edx
    b551:	48 8b 05 f0 90 00 00 	mov    0x90f0(%rip),%rax        # 14648 <g_143>
    b558:	88 10                	mov    %dl,(%rax)
    b55a:	0f b6 00             	movzbl (%rax),%eax
    b55d:	0f b6 c0             	movzbl %al,%eax
    b560:	be 05 00 00 00       	mov    $0x5,%esi
    b565:	89 c7                	mov    %eax,%edi
    b567:	e8 21 b7 ff ff       	callq  6c8d <safe_rshift_func_uint8_t_u_s>
    b56c:	0f b6 c0             	movzbl %al,%eax
    b56f:	8b 95 a0 f5 ff ff    	mov    -0xa60(%rbp),%edx
    b575:	89 d6                	mov    %edx,%esi
    b577:	89 c7                	mov    %eax,%edi
    b579:	e8 40 b8 ff ff       	callq  6dbe <safe_lshift_func_uint16_t_u_s>
    b57e:	0f b7 c0             	movzwl %ax,%eax
    b581:	48 be d1 36 91 06 2d 	movabs $0x1ac5392d069136d1,%rsi
    b588:	39 c5 1a 
    b58b:	48 89 c7             	mov    %rax,%rdi
    b58e:	e8 1c bb ff ff       	callq  70af <safe_div_func_uint64_t_u_u>
    b593:	48 89 85 40 f6 ff ff 	mov    %rax,-0x9c0(%rbp)
    b59a:	48 8b 85 40 f6 ff ff 	mov    -0x9c0(%rbp),%rax
    b5a1:	48 83 e0 f9          	and    $0xfffffffffffffff9,%rax
    b5a5:	48 85 c0             	test   %rax,%rax
    b5a8:	75 0c                	jne    b5b6 <func_63+0x1924>
    b5aa:	48 8b 85 58 f5 ff ff 	mov    -0xaa8(%rbp),%rax
    b5b1:	48 85 c0             	test   %rax,%rax
    b5b4:	74 07                	je     b5bd <func_63+0x192b>
    b5b6:	b8 01 00 00 00       	mov    $0x1,%eax
    b5bb:	eb 05                	jmp    b5c2 <func_63+0x1930>
    b5bd:	b8 00 00 00 00       	mov    $0x0,%eax
    b5c2:	98                   	cwtl   
    b5c3:	be ff ff ff ff       	mov    $0xffffffff,%esi
    b5c8:	89 c7                	mov    %eax,%edi
    b5ca:	e8 26 ae ff ff       	callq  63f5 <safe_mul_func_int16_t_s_s>
    b5cf:	44 89 fe             	mov    %r15d,%esi
    b5d2:	bf 01 00 00 00       	mov    $0x1,%edi
    b5d7:	e8 21 b9 ff ff       	callq  6efd <safe_mod_func_uint32_t_u_u>
    b5dc:	89 c0                	mov    %eax,%eax
    b5de:	48 89 c6             	mov    %rax,%rsi
    b5e1:	bf 00 00 00 00       	mov    $0x0,%edi
    b5e6:	e8 c9 b3 ff ff       	callq  69b4 <safe_mod_func_int64_t_s_s>
    b5eb:	8b 95 a0 f5 ff ff    	mov    -0xa60(%rbp),%edx
    b5f1:	48 63 d2             	movslq %edx,%rdx
    b5f4:	48 39 d0             	cmp    %rdx,%rax
    b5f7:	0f 9f c0             	setg   %al
    b5fa:	0f b6 c0             	movzbl %al,%eax
    b5fd:	48 8b 95 58 f5 ff ff 	mov    -0xaa8(%rbp),%rdx
    b604:	21 d0                	and    %edx,%eax
    b606:	0f b7 c0             	movzwl %ax,%eax
    b609:	89 de                	mov    %ebx,%esi
    b60b:	89 c7                	mov    %eax,%edi
    b60d:	e8 4a b7 ff ff       	callq  6d5c <safe_mod_func_uint16_t_u_u>
    b612:	0f b7 d0             	movzwl %ax,%edx
    b615:	48 8b 85 58 f5 ff ff 	mov    -0xaa8(%rbp),%rax
    b61c:	48 39 c2             	cmp    %rax,%rdx
    b61f:	0f 95 c0             	setne  %al
    b622:	0f b6 c0             	movzbl %al,%eax
    b625:	89 85 a4 f5 ff ff    	mov    %eax,-0xa5c(%rbp)
    b62b:	8b 8d a4 f5 ff ff    	mov    -0xa5c(%rbp),%ecx
    b631:	48 8b 05 30 90 00 00 	mov    0x9030(%rip),%rax        # 14668 <g_514>
    b638:	0f b7 10             	movzwl (%rax),%edx
    b63b:	48 8b 05 26 90 00 00 	mov    0x9026(%rip),%rax        # 14668 <g_514>
    b642:	21 ca                	and    %ecx,%edx
    b644:	66 89 10             	mov    %dx,(%rax)
    b647:	0f b7 00             	movzwl (%rax),%eax
    b64a:	98                   	cwtl   
    b64b:	44 89 f6             	mov    %r14d,%esi
    b64e:	89 c7                	mov    %eax,%edi
    b650:	e8 d5 ae ff ff       	callq  652a <safe_rshift_func_int16_t_s_s>
    b655:	48 0f bf d0          	movswq %ax,%rdx
    b659:	48 8b 85 58 f5 ff ff 	mov    -0xaa8(%rbp),%rax
    b660:	48 39 c2             	cmp    %rax,%rdx
    b663:	0f 9f c0             	setg   %al
    b666:	0f b6 c0             	movzbl %al,%eax
    b669:	41 39 c5             	cmp    %eax,%r13d
    b66c:	0f 95 c0             	setne  %al
    b66f:	0f b6 c0             	movzbl %al,%eax
    b672:	89 85 c8 f9 ff ff    	mov    %eax,-0x638(%rbp)
    b678:	48 c7 05 2d 7a 00 00 	movq   $0xfffffffffffffffc,0x7a2d(%rip)        # 130b0 <g_419>
    b67f:	fc ff ff ff 
    b683:	e9 ad 00 00 00       	jmpq   b735 <func_63+0x1aa3>
    b688:	c7 85 84 f5 ff ff 00 	movl   $0x0,-0xa7c(%rbp)
    b68f:	00 00 00 
    b692:	eb 1e                	jmp    b6b2 <func_63+0x1a20>
    b694:	8b 85 84 f5 ff ff    	mov    -0xa7c(%rbp),%eax
    b69a:	48 98                	cltq   
    b69c:	48 8d 15 45 99 00 00 	lea    0x9945(%rip),%rdx        # 14fe8 <g_633>
    b6a3:	48 89 94 c5 60 f7 ff 	mov    %rdx,-0x8a0(%rbp,%rax,8)
    b6aa:	ff 
    b6ab:	83 85 84 f5 ff ff 01 	addl   $0x1,-0xa7c(%rbp)
    b6b2:	83 bd 84 f5 ff ff 00 	cmpl   $0x0,-0xa7c(%rbp)
    b6b9:	7e d9                	jle    b694 <func_63+0x1a02>
    b6bb:	c7 85 84 f5 ff ff 00 	movl   $0x0,-0xa7c(%rbp)
    b6c2:	00 00 00 
    b6c5:	eb 1a                	jmp    b6e1 <func_63+0x1a4f>
    b6c7:	8b 85 84 f5 ff ff    	mov    -0xa7c(%rbp),%eax
    b6cd:	48 98                	cltq   
    b6cf:	c7 84 85 0c f7 ff ff 	movl   $0xffffffff,-0x8f4(%rbp,%rax,4)
    b6d6:	ff ff ff ff 
    b6da:	83 85 84 f5 ff ff 01 	addl   $0x1,-0xa7c(%rbp)
    b6e1:	83 bd 84 f5 ff ff 00 	cmpl   $0x0,-0xa7c(%rbp)
    b6e8:	7e dd                	jle    b6c7 <func_63+0x1a35>
    b6ea:	48 8b 85 08 f6 ff ff 	mov    -0x9f8(%rbp),%rax
    b6f1:	c7 00 03 00 00 00    	movl   $0x3,(%rax)
    b6f7:	48 8b 85 58 f5 ff ff 	mov    -0xaa8(%rbp),%rax
    b6fe:	48 85 c0             	test   %rax,%rax
    b701:	75 1f                	jne    b722 <func_63+0x1a90>
    b703:	48 8d 05 4e 8f 00 00 	lea    0x8f4e(%rip),%rax        # 14658 <g_309>
    b70a:	48 89 85 48 f6 ff ff 	mov    %rax,-0x9b8(%rbp)
    b711:	8b 85 2c f7 ff ff    	mov    -0x8d4(%rbp),%eax
    b717:	83 c0 01             	add    $0x1,%eax
    b71a:	89 85 2c f7 ff ff    	mov    %eax,-0x8d4(%rbp)
    b720:	eb 01                	jmp    b723 <func_63+0x1a91>
    b722:	90                   	nop
    b723:	48 8b 05 86 79 00 00 	mov    0x7986(%rip),%rax        # 130b0 <g_419>
    b72a:	48 83 c0 01          	add    $0x1,%rax
    b72e:	48 89 05 7b 79 00 00 	mov    %rax,0x797b(%rip)        # 130b0 <g_419>
    b735:	48 8b 05 74 79 00 00 	mov    0x7974(%rip),%rax        # 130b0 <g_419>
    b73c:	48 83 f8 05          	cmp    $0x5,%rax
    b740:	0f 85 42 ff ff ff    	jne    b688 <func_63+0x19f6>
    b746:	48 8b 85 58 f5 ff ff 	mov    -0xaa8(%rbp),%rax
    b74d:	48 85 c0             	test   %rax,%rax
    b750:	8b 85 68 f5 ff ff    	mov    -0xa98(%rbp),%eax
    b756:	83 c0 01             	add    $0x1,%eax
    b759:	89 85 68 f5 ff ff    	mov    %eax,-0xa98(%rbp)
    b75f:	8b 85 68 f5 ff ff    	mov    -0xa98(%rbp),%eax
    b765:	83 f8 01             	cmp    $0x1,%eax
    b768:	0f 8e 81 f5 ff ff    	jle    acef <func_63+0x105d>
    b76e:	8b 05 c8 78 00 00    	mov    0x78c8(%rip),%eax        # 1303c <g_140>
    b774:	8d 50 ff             	lea    -0x1(%rax),%edx
    b777:	89 15 bf 78 00 00    	mov    %edx,0x78bf(%rip)        # 1303c <g_140>
    b77d:	85 c0                	test   %eax,%eax
    b77f:	75 7c                	jne    b7fd <func_63+0x1b6b>
    b781:	48 8b 85 08 f6 ff ff 	mov    -0x9f8(%rbp),%rax
    b788:	8b 18                	mov    (%rax),%ebx
    b78a:	48 8b 85 58 f5 ff ff 	mov    -0xaa8(%rbp),%rax
    b791:	89 c1                	mov    %eax,%ecx
    b793:	48 8b 55 a8          	mov    -0x58(%rbp),%rdx
    b797:	48 8b 85 50 f6 ff ff 	mov    -0x9b0(%rbp),%rax
    b79e:	48 89 10             	mov    %rdx,(%rax)
    b7a1:	48 8b 85 50 f6 ff ff 	mov    -0x9b0(%rbp),%rax
    b7a8:	48 8b 10             	mov    (%rax),%rdx
    b7ab:	48 8d 85 68 f5 ff ff 	lea    -0xa98(%rbp),%rax
    b7b2:	48 39 c2             	cmp    %rax,%rdx
    b7b5:	0f 95 c0             	setne  %al
    b7b8:	0f b6 c0             	movzbl %al,%eax
    b7bb:	89 ce                	mov    %ecx,%esi
    b7bd:	89 c7                	mov    %eax,%edi
    b7bf:	e8 08 af ff ff       	callq  66cc <safe_mod_func_int32_t_s_s>
    b7c4:	0f b6 15 f1 78 00 00 	movzbl 0x78f1(%rip),%edx        # 130bc <g_489>
    b7cb:	0f be d2             	movsbl %dl,%edx
    b7ce:	39 d0                	cmp    %edx,%eax
    b7d0:	0f 9d c0             	setge  %al
    b7d3:	0f b6 d0             	movzbl %al,%edx
    b7d6:	48 8b 85 58 f5 ff ff 	mov    -0xaa8(%rbp),%rax
    b7dd:	0f b7 c0             	movzwl %ax,%eax
    b7e0:	89 d6                	mov    %edx,%esi
    b7e2:	89 c7                	mov    %eax,%edi
    b7e4:	e8 d5 b5 ff ff       	callq  6dbe <safe_lshift_func_uint16_t_u_s>
    b7e9:	0f b6 c0             	movzbl %al,%eax
    b7ec:	be be 00 00 00       	mov    $0xbe,%esi
    b7f1:	89 c7                	mov    %eax,%edi
    b7f3:	e8 e3 b3 ff ff       	callq  6bdb <safe_div_func_uint8_t_u_u>
    b7f8:	0f b6 c0             	movzbl %al,%eax
    b7fb:	39 c3                	cmp    %eax,%ebx
    b7fd:	48 8b 85 58 f5 ff ff 	mov    -0xaa8(%rbp),%rax
    b804:	98                   	cwtl   
    b805:	be 5d 24 00 00       	mov    $0x245d,%esi
    b80a:	89 c7                	mov    %eax,%edi
    b80c:	e8 e4 ab ff ff       	callq  63f5 <safe_mul_func_int16_t_s_s>
    b811:	48 0f bf d0          	movswq %ax,%rdx
    b815:	48 8b 85 58 f5 ff ff 	mov    -0xaa8(%rbp),%rax
    b81c:	48 39 c2             	cmp    %rax,%rdx
    b81f:	0f 9e c0             	setle  %al
    b822:	0f b6 c0             	movzbl %al,%eax
    b825:	be 01 00 00 00       	mov    $0x1,%esi
    b82a:	89 c7                	mov    %eax,%edi
    b82c:	e8 c1 a9 ff ff       	callq  61f2 <safe_sub_func_int8_t_s_s>
    b831:	84 c0                	test   %al,%al
    b833:	0f 84 ec 01 00 00    	je     ba25 <func_63+0x1d93>
    b839:	c7 85 bc f5 ff ff 30 	movl   $0x6e43f430,-0xa44(%rbp)
    b840:	f4 43 6e 
    b843:	48 8d 05 36 78 00 00 	lea    0x7836(%rip),%rax        # 13080 <g_230>
    b84a:	48 89 85 f8 f6 ff ff 	mov    %rax,-0x908(%rbp)
    b851:	48 8d 85 f0 f5 ff ff 	lea    -0xa10(%rbp),%rax
    b858:	48 89 85 00 f7 ff ff 	mov    %rax,-0x900(%rbp)
    b85f:	48 8b 05 ea 8d 00 00 	mov    0x8dea(%rip),%rax        # 14650 <g_310>
    b866:	0f b7 10             	movzwl (%rax),%edx
    b869:	0f b7 05 4a 78 00 00 	movzwl 0x784a(%rip),%eax        # 130ba <g_456>
    b870:	21 d0                	and    %edx,%eax
    b872:	66 89 05 41 78 00 00 	mov    %ax,0x7841(%rip)        # 130ba <g_456>
    b879:	44 0f b7 35 39 78 00 	movzwl 0x7839(%rip),%r14d        # 130ba <g_456>
    b880:	00 
    b881:	8b 05 e5 77 00 00    	mov    0x77e5(%rip),%eax        # 1306c <g_228>
    b887:	0f b6 d8             	movzbl %al,%ebx
    b88a:	66 c7 05 25 78 00 00 	movw   $0xb397,0x7825(%rip)        # 130b8 <g_433>
    b891:	97 b3 
    b893:	48 8b 85 58 f5 ff ff 	mov    -0xaa8(%rbp),%rax
    b89a:	44 0f b7 e0          	movzwl %ax,%r12d
    b89e:	48 8b 85 58 f5 ff ff 	mov    -0xaa8(%rbp),%rax
    b8a5:	44 0f bf e8          	movswl %ax,%r13d
    b8a9:	c6 05 fc 9b 00 00 01 	movb   $0x1,0x9bfc(%rip)        # 154ac <g_117>
    b8b0:	be 01 00 00 00       	mov    $0x1,%esi
    b8b5:	bf 09 00 00 00       	mov    $0x9,%edi
    b8ba:	e8 d4 b2 ff ff       	callq  6b93 <safe_mul_func_uint8_t_u_u>
    b8bf:	0f b6 c0             	movzbl %al,%eax
    b8c2:	44 89 ee             	mov    %r13d,%esi
    b8c5:	89 c7                	mov    %eax,%edi
    b8c7:	e8 e7 aa ff ff       	callq  63b3 <safe_add_func_int16_t_s_s>
    b8cc:	0f bf d0             	movswl %ax,%edx
    b8cf:	48 8b 85 08 f6 ff ff 	mov    -0x9f8(%rbp),%rax
    b8d6:	89 10                	mov    %edx,(%rax)
    b8d8:	48 8b 85 08 f6 ff ff 	mov    -0x9f8(%rbp),%rax
    b8df:	8b 00                	mov    (%rax),%eax
    b8e1:	be 07 00 00 00       	mov    $0x7,%esi
    b8e6:	89 c7                	mov    %eax,%edi
    b8e8:	e8 c9 ac ff ff       	callq  65b6 <safe_add_func_int32_t_s_s>
    b8ed:	3d 9b 37 00 00       	cmp    $0x379b,%eax
    b8f2:	0f 95 c0             	setne  %al
    b8f5:	0f b6 d0             	movzbl %al,%edx
    b8f8:	48 8b 85 58 f5 ff ff 	mov    -0xaa8(%rbp),%rax
    b8ff:	48 89 d6             	mov    %rdx,%rsi
    b902:	48 89 c7             	mov    %rax,%rdi
    b905:	e8 37 af ff ff       	callq  6841 <safe_add_func_int64_t_s_s>
    b90a:	0f b7 c0             	movzwl %ax,%eax
    b90d:	44 89 e6             	mov    %r12d,%esi
    b910:	89 c7                	mov    %eax,%edi
    b912:	e8 08 b4 ff ff       	callq  6d1f <safe_sub_func_uint16_t_u_u>
    b917:	0f b7 c0             	movzwl %ax,%eax
    b91a:	89 85 bc f5 ff ff    	mov    %eax,-0xa44(%rbp)
    b920:	0f b7 85 62 f5 ff ff 	movzwl -0xa9e(%rbp),%eax
    b927:	48 0f bf c0          	movswq %ax,%rax
    b92b:	48 83 f8 61          	cmp    $0x61,%rax
    b92f:	0f 97 c0             	seta   %al
    b932:	0f b6 d0             	movzbl %al,%edx
    b935:	48 8b 85 58 f5 ff ff 	mov    -0xaa8(%rbp),%rax
    b93c:	48 39 c2             	cmp    %rax,%rdx
    b93f:	0f 9f c0             	setg   %al
    b942:	0f b6 d0             	movzbl %al,%edx
    b945:	0f b6 05 70 77 00 00 	movzbl 0x7770(%rip),%eax        # 130bc <g_489>
    b94c:	0f be c0             	movsbl %al,%eax
    b94f:	39 c2                	cmp    %eax,%edx
    b951:	0f 9c c0             	setl   %al
    b954:	0f b6 c0             	movzbl %al,%eax
    b957:	be fe ff ff ff       	mov    $0xfffffffe,%esi
    b95c:	89 c7                	mov    %eax,%edi
    b95e:	e8 9a b5 ff ff       	callq  6efd <safe_mod_func_uint32_t_u_u>
    b963:	89 c2                	mov    %eax,%edx
    b965:	48 8b 85 58 f5 ff ff 	mov    -0xaa8(%rbp),%rax
    b96c:	48 09 c2             	or     %rax,%rdx
    b96f:	8b 05 33 77 00 00    	mov    0x7733(%rip),%eax        # 130a8 <g_349>
    b975:	48 98                	cltq   
    b977:	48 09 d0             	or     %rdx,%rax
    b97a:	48 89 c2             	mov    %rax,%rdx
    b97d:	48 b8 fc de 78 52 35 	movabs $0xcbc0d5355278defc,%rax
    b984:	d5 c0 cb 
    b987:	48 39 c2             	cmp    %rax,%rdx
    b98a:	0f 96 c0             	setbe  %al
    b98d:	0f b6 d0             	movzbl %al,%edx
    b990:	48 8b 85 58 f5 ff ff 	mov    -0xaa8(%rbp),%rax
    b997:	48 39 c2             	cmp    %rax,%rdx
    b99a:	0f 95 c0             	setne  %al
    b99d:	0f b6 d0             	movzbl %al,%edx
    b9a0:	48 8b 05 c1 8c 00 00 	mov    0x8cc1(%rip),%rax        # 14668 <g_514>
    b9a7:	0f b7 00             	movzwl (%rax),%eax
    b9aa:	98                   	cwtl   
    b9ab:	89 d6                	mov    %edx,%esi
    b9ad:	89 c7                	mov    %eax,%edi
    b9af:	e8 41 aa ff ff       	callq  63f5 <safe_mul_func_int16_t_s_s>
    b9b4:	0f b6 c0             	movzbl %al,%eax
    b9b7:	be 07 00 00 00       	mov    $0x7,%esi
    b9bc:	89 c7                	mov    %eax,%edi
    b9be:	e8 ca b2 ff ff       	callq  6c8d <safe_rshift_func_uint8_t_u_s>
    b9c3:	89 de                	mov    %ebx,%esi
    b9c5:	bf fc 00 00 00       	mov    $0xfc,%edi
    b9ca:	e8 df b1 ff ff       	callq  6bae <safe_mod_func_uint8_t_u_u>
    b9cf:	0f b6 c0             	movzbl %al,%eax
    b9d2:	66 41 39 c6          	cmp    %ax,%r14w
    b9d6:	0f 96 c0             	setbe  %al
    b9d9:	0f b6 c0             	movzbl %al,%eax
    b9dc:	89 c6                	mov    %eax,%esi
    b9de:	bf 00 00 00 00       	mov    $0x0,%edi
    b9e3:	e8 55 b3 ff ff       	callq  6d3d <safe_mul_func_uint16_t_u_u>
    b9e8:	0f b6 c0             	movzbl %al,%eax
    b9eb:	be 3c 00 00 00       	mov    $0x3c,%esi
    b9f0:	89 c7                	mov    %eax,%edi
    b9f2:	e8 81 b1 ff ff       	callq  6b78 <safe_sub_func_uint8_t_u_u>
    b9f7:	48 8b 85 50 f6 ff ff 	mov    -0x9b0(%rbp),%rax
    b9fe:	48 8b 95 f8 f6 ff ff 	mov    -0x908(%rbp),%rdx
    ba05:	48 89 10             	mov    %rdx,(%rax)
    ba08:	48 8b 95 f0 f5 ff ff 	mov    -0xa10(%rbp),%rdx
    ba0f:	48 8b 85 00 f7 ff ff 	mov    -0x900(%rbp),%rax
    ba16:	48 89 10             	mov    %rdx,(%rax)
    ba19:	48 8b 85 f8 f6 ff ff 	mov    -0x908(%rbp),%rax
    ba20:	e9 a4 00 00 00       	jmpq   bac9 <func_63+0x1e37>
    ba25:	66 c7 85 66 f5 ff ff 	movw   $0x9fed,-0xa9a(%rbp)
    ba2c:	ed 9f 
    ba2e:	48 c7 05 77 9a 00 00 	movq   $0x0,0x9a77(%rip)        # 154b0 <g_152>
    ba35:	00 00 00 00 
    ba39:	eb 22                	jmp    ba5d <func_63+0x1dcb>
    ba3b:	0f b6 05 7a 76 00 00 	movzbl 0x767a(%rip),%eax        # 130bc <g_489>
    ba42:	84 c0                	test   %al,%al
    ba44:	74 05                	je     ba4b <func_63+0x1db9>
    ba46:	e9 f8 e4 ff ff       	jmpq   9f43 <func_63+0x2b1>
    ba4b:	48 8b 05 5e 9a 00 00 	mov    0x9a5e(%rip),%rax        # 154b0 <g_152>
    ba52:	48 83 c0 01          	add    $0x1,%rax
    ba56:	48 89 05 53 9a 00 00 	mov    %rax,0x9a53(%rip)        # 154b0 <g_152>
    ba5d:	48 8b 05 4c 9a 00 00 	mov    0x9a4c(%rip),%rax        # 154b0 <g_152>
    ba64:	48 83 f8 11          	cmp    $0x11,%rax
    ba68:	77 d1                	ja     ba3b <func_63+0x1da9>
    ba6a:	48 8b 85 58 f5 ff ff 	mov    -0xaa8(%rbp),%rax
    ba71:	89 c2                	mov    %eax,%edx
    ba73:	0f b7 85 66 f5 ff ff 	movzwl -0xa9a(%rbp),%eax
    ba7a:	31 d0                	xor    %edx,%eax
    ba7c:	66 89 85 66 f5 ff ff 	mov    %ax,-0xa9a(%rbp)
    ba83:	66 83 bd 66 f5 ff ff 	cmpw   $0x0,-0xa9a(%rbp)
    ba8a:	00 
    ba8b:	8b 05 9b 75 00 00    	mov    0x759b(%rip),%eax        # 1302c <g_35>
    ba91:	be 07 00 00 00       	mov    $0x7,%esi
    ba96:	89 c7                	mov    %eax,%edi
    ba98:	e8 19 ab ff ff       	callq  65b6 <safe_add_func_int32_t_s_s>
    ba9d:	89 05 89 75 00 00    	mov    %eax,0x7589(%rip)        # 1302c <g_35>
    baa3:	8b 05 83 75 00 00    	mov    0x7583(%rip),%eax        # 1302c <g_35>
    baa9:	83 f8 2b             	cmp    $0x2b,%eax
    baac:	0f 86 3f e6 ff ff    	jbe    a0f1 <func_63+0x45f>
    bab2:	eb 01                	jmp    bab5 <func_63+0x1e23>
    bab4:	90                   	nop
    bab5:	48 8b 85 08 f6 ff ff 	mov    -0x9f8(%rbp),%rax
    babc:	c7 00 61 85 14 f7    	movl   $0xf7148561,(%rax)
    bac2:	48 8b 85 20 fe ff ff 	mov    -0x1e0(%rbp),%rax
    bac9:	48 8b 5d c8          	mov    -0x38(%rbp),%rbx
    bacd:	64 48 33 1c 25 28 00 	xor    %fs:0x28,%rbx
    bad4:	00 00 
    bad6:	74 05                	je     badd <func_63+0x1e4b>
    bad8:	e8 93 a5 ff ff       	callq  6070 <__stack_chk_fail@plt>
    badd:	48 81 c4 a8 0a 00 00 	add    $0xaa8,%rsp
    bae4:	5b                   	pop    %rbx
    bae5:	41 5c                	pop    %r12
    bae7:	41 5d                	pop    %r13
    bae9:	41 5e                	pop    %r14
    baeb:	41 5f                	pop    %r15
    baed:	5d                   	pop    %rbp
    baee:	c3                   	retq   

000000000000baef <func_75>:
    baef:	f3 0f 1e fa          	endbr64 
    baf3:	55                   	push   %rbp
    baf4:	48 89 e5             	mov    %rsp,%rbp
    baf7:	41 55                	push   %r13
    baf9:	41 54                	push   %r12
    bafb:	53                   	push   %rbx
    bafc:	48 81 ec 08 05 00 00 	sub    $0x508,%rsp
    bb03:	48 89 bd 08 fb ff ff 	mov    %rdi,-0x4f8(%rbp)
    bb0a:	48 89 b5 00 fb ff ff 	mov    %rsi,-0x500(%rbp)
    bb11:	48 89 95 f8 fa ff ff 	mov    %rdx,-0x508(%rbp)
    bb18:	48 89 8d f0 fa ff ff 	mov    %rcx,-0x510(%rbp)
    bb1f:	44 89 85 ec fa ff ff 	mov    %r8d,-0x514(%rbp)
    bb26:	64 48 8b 04 25 28 00 	mov    %fs:0x28,%rax
    bb2d:	00 00 
    bb2f:	48 89 45 d8          	mov    %rax,-0x28(%rbp)
    bb33:	31 c0                	xor    %eax,%eax
    bb35:	48 8d 05 44 75 00 00 	lea    0x7544(%rip),%rax        # 13080 <g_230>
    bb3c:	48 89 85 68 fb ff ff 	mov    %rax,-0x498(%rbp)
    bb43:	c7 85 24 fb ff ff 01 	movl   $0x1,-0x4dc(%rbp)
    bb4a:	00 00 00 
    bb4d:	c7 85 4c fb ff ff 0c 	movl   $0xc67a710c,-0x4b4(%rbp)
    bb54:	71 7a c6 
    bb57:	48 8d 05 02 75 00 00 	lea    0x7502(%rip),%rax        # 13060 <g_225>
    bb5e:	48 89 85 70 fb ff ff 	mov    %rax,-0x490(%rbp)
    bb65:	c7 85 28 fb ff ff 00 	movl   $0x0,-0x4d8(%rbp)
    bb6c:	00 00 00 
    bb6f:	eb 1a                	jmp    bb8b <func_75+0x9c>
    bb71:	8b 85 28 fb ff ff    	mov    -0x4d8(%rbp),%eax
    bb77:	48 98                	cltq   
    bb79:	c7 84 85 b8 fb ff ff 	movl   $0x1,-0x448(%rbp,%rax,4)
    bb80:	01 00 00 00 
    bb84:	83 85 28 fb ff ff 01 	addl   $0x1,-0x4d8(%rbp)
    bb8b:	83 bd 28 fb ff ff 01 	cmpl   $0x1,-0x4d8(%rbp)
    bb92:	7e dd                	jle    bb71 <func_75+0x82>
    bb94:	48 c7 05 a1 74 00 00 	movq   $0x0,0x74a1(%rip)        # 13040 <g_159>
    bb9b:	00 00 00 00 
    bb9f:	e9 03 0a 00 00       	jmpq   c5a7 <func_75+0xab8>
    bba4:	c7 85 50 fb ff ff 38 	movl   $0x27daaf38,-0x4b0(%rbp)
    bbab:	af da 27 
    bbae:	48 8d 05 cf 74 00 00 	lea    0x74cf(%rip),%rax        # 13084 <g_230+0x4>
    bbb5:	48 89 85 60 fb ff ff 	mov    %rax,-0x4a0(%rbp)
    bbbc:	c7 85 20 fb ff ff 81 	movl   $0xc7ad0581,-0x4e0(%rbp)
    bbc3:	05 ad c7 
    bbc6:	c7 85 2c fb ff ff d1 	movl   $0x3a962d1,-0x4d4(%rbp)
    bbcd:	62 a9 03 
    bbd0:	c7 85 30 fb ff ff f7 	movl   $0xd03b61f7,-0x4d0(%rbp)
    bbd7:	61 3b d0 
    bbda:	c7 85 34 fb ff ff 04 	movl   $0x89685704,-0x4cc(%rbp)
    bbe1:	57 68 89 
    bbe4:	c7 85 54 fb ff ff f8 	movl   $0xfffffff8,-0x4ac(%rbp)
    bbeb:	ff ff ff 
    bbee:	c7 85 58 fb ff ff 00 	movl   $0x0,-0x4a8(%rbp)
    bbf5:	00 00 00 
    bbf8:	c7 85 38 fb ff ff 00 	movl   $0x0,-0x4c8(%rbp)
    bbff:	00 00 00 
    bc02:	eb 1b                	jmp    bc1f <func_75+0x130>
    bc04:	8b 85 38 fb ff ff    	mov    -0x4c8(%rbp),%eax
    bc0a:	48 98                	cltq   
    bc0c:	48 c7 84 c5 10 fc ff 	movq   $0x0,-0x3f0(%rbp,%rax,8)
    bc13:	ff 00 00 00 00 
    bc18:	83 85 38 fb ff ff 01 	addl   $0x1,-0x4c8(%rbp)
    bc1f:	83 bd 38 fb ff ff 05 	cmpl   $0x5,-0x4c8(%rbp)
    bc26:	7e dc                	jle    bc04 <func_75+0x115>
    bc28:	c7 85 38 fb ff ff 00 	movl   $0x0,-0x4c8(%rbp)
    bc2f:	00 00 00 
    bc32:	eb 4d                	jmp    bc81 <func_75+0x192>
    bc34:	c7 85 3c fb ff ff 00 	movl   $0x0,-0x4c4(%rbp)
    bc3b:	00 00 00 
    bc3e:	eb 31                	jmp    bc71 <func_75+0x182>
    bc40:	8b 85 3c fb ff ff    	mov    -0x4c4(%rbp),%eax
    bc46:	48 63 c8             	movslq %eax,%rcx
    bc49:	8b 85 38 fb ff ff    	mov    -0x4c8(%rbp),%eax
    bc4f:	48 63 d0             	movslq %eax,%rdx
    bc52:	48 89 d0             	mov    %rdx,%rax
    bc55:	48 c1 e0 02          	shl    $0x2,%rax
    bc59:	48 01 d0             	add    %rdx,%rax
    bc5c:	48 01 c8             	add    %rcx,%rax
    bc5f:	c7 84 85 e0 fb ff ff 	movl   $0x53ecb5da,-0x420(%rbp,%rax,4)
    bc66:	da b5 ec 53 
    bc6a:	83 85 3c fb ff ff 01 	addl   $0x1,-0x4c4(%rbp)
    bc71:	83 bd 3c fb ff ff 04 	cmpl   $0x4,-0x4c4(%rbp)
    bc78:	7e c6                	jle    bc40 <func_75+0x151>
    bc7a:	83 85 38 fb ff ff 01 	addl   $0x1,-0x4c8(%rbp)
    bc81:	83 bd 38 fb ff ff 01 	cmpl   $0x1,-0x4c8(%rbp)
    bc88:	7e aa                	jle    bc34 <func_75+0x145>
    bc8a:	66 c7 05 c1 73 00 00 	movw   $0xfff0,0x73c1(%rip)        # 13054 <g_217>
    bc91:	f0 ff 
    bc93:	e9 ef 04 00 00       	jmpq   c187 <func_75+0x698>
    bc98:	48 c7 85 a8 fb ff ff 	movq   $0xffffffffffffffff,-0x458(%rbp)
    bc9f:	ff ff ff ff 
    bca3:	c7 85 40 fc ff ff 02 	movl   $0x2,-0x3c0(%rbp)
    bcaa:	00 00 00 
    bcad:	c7 85 44 fc ff ff ff 	movl   $0xffffffff,-0x3bc(%rbp)
    bcb4:	ff ff ff 
    bcb7:	c7 85 48 fc ff ff ff 	movl   $0xffffffff,-0x3b8(%rbp)
    bcbe:	ff ff ff 
    bcc1:	c7 85 4c fc ff ff 02 	movl   $0x2,-0x3b4(%rbp)
    bcc8:	00 00 00 
    bccb:	c7 85 50 fc ff ff ff 	movl   $0xffffffff,-0x3b0(%rbp)
    bcd2:	ff ff ff 
    bcd5:	c7 85 54 fc ff ff ff 	movl   $0xffffffff,-0x3ac(%rbp)
    bcdc:	ff ff ff 
    bcdf:	c6 05 c6 97 00 00 00 	movb   $0x0,0x97c6(%rip)        # 154ac <g_117>
    bce6:	eb 25                	jmp    bd0d <func_75+0x21e>
    bce8:	66 c7 85 1e fb ff ff 	movw   $0xd0c2,-0x4e2(%rbp)
    bcef:	c2 d0 
    bcf1:	0f b6 05 b4 97 00 00 	movzbl 0x97b4(%rip),%eax        # 154ac <g_117>
    bcf8:	0f be c0             	movsbl %al,%eax
    bcfb:	be 01 00 00 00       	mov    $0x1,%esi
    bd00:	89 c7                	mov    %eax,%edi
    bd02:	e8 af a8 ff ff       	callq  65b6 <safe_add_func_int32_t_s_s>
    bd07:	88 05 9f 97 00 00    	mov    %al,0x979f(%rip)        # 154ac <g_117>
    bd0d:	0f b6 05 98 97 00 00 	movzbl 0x9798(%rip),%eax        # 154ac <g_117>
    bd14:	3c 13                	cmp    $0x13,%al
    bd16:	7f d0                	jg     bce8 <func_75+0x1f9>
    bd18:	c7 85 20 fb ff ff 00 	movl   $0x0,-0x4e0(%rbp)
    bd1f:	00 00 00 
    bd22:	e9 40 04 00 00       	jmpq   c167 <func_75+0x678>
    bd27:	66 c7 85 1c fb ff ff 	movw   $0x1,-0x4e4(%rbp)
    bd2e:	01 00 
    bd30:	48 8d 05 49 73 00 00 	lea    0x7349(%rip),%rax        # 13080 <g_230>
    bd37:	48 89 85 70 fc ff ff 	mov    %rax,-0x390(%rbp)
    bd3e:	48 8d 05 3b 73 00 00 	lea    0x733b(%rip),%rax        # 13080 <g_230>
    bd45:	48 89 85 78 fc ff ff 	mov    %rax,-0x388(%rbp)
    bd4c:	48 8d 85 20 fb ff ff 	lea    -0x4e0(%rbp),%rax
    bd53:	48 89 85 80 fc ff ff 	mov    %rax,-0x380(%rbp)
    bd5a:	48 8d 05 47 97 00 00 	lea    0x9747(%rip),%rax        # 154a8 <g_7>
    bd61:	48 89 85 88 fc ff ff 	mov    %rax,-0x378(%rbp)
    bd68:	48 8d 85 20 fb ff ff 	lea    -0x4e0(%rbp),%rax
    bd6f:	48 89 85 90 fc ff ff 	mov    %rax,-0x370(%rbp)
    bd76:	48 8d 05 03 73 00 00 	lea    0x7303(%rip),%rax        # 13080 <g_230>
    bd7d:	48 89 85 98 fc ff ff 	mov    %rax,-0x368(%rbp)
    bd84:	48 8d 85 20 fb ff ff 	lea    -0x4e0(%rbp),%rax
    bd8b:	48 89 85 a0 fc ff ff 	mov    %rax,-0x360(%rbp)
    bd92:	48 8d 85 20 fb ff ff 	lea    -0x4e0(%rbp),%rax
    bd99:	48 89 85 a8 fc ff ff 	mov    %rax,-0x358(%rbp)
    bda0:	48 8d 05 01 97 00 00 	lea    0x9701(%rip),%rax        # 154a8 <g_7>
    bda7:	48 89 85 b0 fc ff ff 	mov    %rax,-0x350(%rbp)
    bdae:	48 8d 05 f3 96 00 00 	lea    0x96f3(%rip),%rax        # 154a8 <g_7>
    bdb5:	48 89 85 b8 fc ff ff 	mov    %rax,-0x348(%rbp)
    bdbc:	48 8d 85 20 fb ff ff 	lea    -0x4e0(%rbp),%rax
    bdc3:	48 89 85 c0 fc ff ff 	mov    %rax,-0x340(%rbp)
    bdca:	48 8d 85 20 fb ff ff 	lea    -0x4e0(%rbp),%rax
    bdd1:	48 89 85 c8 fc ff ff 	mov    %rax,-0x338(%rbp)
    bdd8:	48 8d 05 a1 72 00 00 	lea    0x72a1(%rip),%rax        # 13080 <g_230>
    bddf:	48 89 85 d0 fc ff ff 	mov    %rax,-0x330(%rbp)
    bde6:	48 8d 85 20 fb ff ff 	lea    -0x4e0(%rbp),%rax
    bded:	48 89 85 d8 fc ff ff 	mov    %rax,-0x328(%rbp)
    bdf4:	48 8d 05 ad 96 00 00 	lea    0x96ad(%rip),%rax        # 154a8 <g_7>
    bdfb:	48 89 85 e0 fc ff ff 	mov    %rax,-0x320(%rbp)
    be02:	48 8d 85 20 fb ff ff 	lea    -0x4e0(%rbp),%rax
    be09:	48 89 85 e8 fc ff ff 	mov    %rax,-0x318(%rbp)
    be10:	48 8d 05 69 72 00 00 	lea    0x7269(%rip),%rax        # 13080 <g_230>
    be17:	48 89 85 f0 fc ff ff 	mov    %rax,-0x310(%rbp)
    be1e:	48 8d 05 5b 72 00 00 	lea    0x725b(%rip),%rax        # 13080 <g_230>
    be25:	48 89 85 f8 fc ff ff 	mov    %rax,-0x308(%rbp)
    be2c:	48 8d 05 75 96 00 00 	lea    0x9675(%rip),%rax        # 154a8 <g_7>
    be33:	48 89 85 00 fd ff ff 	mov    %rax,-0x300(%rbp)
    be3a:	48 8d 85 20 fb ff ff 	lea    -0x4e0(%rbp),%rax
    be41:	48 89 85 08 fd ff ff 	mov    %rax,-0x2f8(%rbp)
    be48:	48 8d 85 20 fb ff ff 	lea    -0x4e0(%rbp),%rax
    be4f:	48 89 85 10 fd ff ff 	mov    %rax,-0x2f0(%rbp)
    be56:	48 8d 05 4b 96 00 00 	lea    0x964b(%rip),%rax        # 154a8 <g_7>
    be5d:	48 89 85 18 fd ff ff 	mov    %rax,-0x2e8(%rbp)
    be64:	48 8d 85 20 fb ff ff 	lea    -0x4e0(%rbp),%rax
    be6b:	48 89 85 20 fd ff ff 	mov    %rax,-0x2e0(%rbp)
    be72:	48 8d 05 2f 96 00 00 	lea    0x962f(%rip),%rax        # 154a8 <g_7>
    be79:	48 89 85 28 fd ff ff 	mov    %rax,-0x2d8(%rbp)
    be80:	48 8d 05 21 96 00 00 	lea    0x9621(%rip),%rax        # 154a8 <g_7>
    be87:	48 89 85 30 fd ff ff 	mov    %rax,-0x2d0(%rbp)
    be8e:	48 8d 85 20 fb ff ff 	lea    -0x4e0(%rbp),%rax
    be95:	48 89 85 38 fd ff ff 	mov    %rax,-0x2c8(%rbp)
    be9c:	48 8d 05 05 96 00 00 	lea    0x9605(%rip),%rax        # 154a8 <g_7>
    bea3:	48 89 85 40 fd ff ff 	mov    %rax,-0x2c0(%rbp)
    beaa:	48 8d 85 20 fb ff ff 	lea    -0x4e0(%rbp),%rax
    beb1:	48 89 85 48 fd ff ff 	mov    %rax,-0x2b8(%rbp)
    beb8:	48 8d 85 20 fb ff ff 	lea    -0x4e0(%rbp),%rax
    bebf:	48 89 85 50 fd ff ff 	mov    %rax,-0x2b0(%rbp)
    bec6:	48 8d 05 db 95 00 00 	lea    0x95db(%rip),%rax        # 154a8 <g_7>
    becd:	48 89 85 58 fd ff ff 	mov    %rax,-0x2a8(%rbp)
    bed4:	48 8d 05 a5 71 00 00 	lea    0x71a5(%rip),%rax        # 13080 <g_230>
    bedb:	48 89 85 60 fd ff ff 	mov    %rax,-0x2a0(%rbp)
    bee2:	48 8d 05 97 71 00 00 	lea    0x7197(%rip),%rax        # 13080 <g_230>
    bee9:	48 89 85 68 fd ff ff 	mov    %rax,-0x298(%rbp)
    bef0:	48 8d 85 20 fb ff ff 	lea    -0x4e0(%rbp),%rax
    bef7:	48 89 85 70 fd ff ff 	mov    %rax,-0x290(%rbp)
    befe:	48 8d 05 a3 95 00 00 	lea    0x95a3(%rip),%rax        # 154a8 <g_7>
    bf05:	48 89 85 78 fd ff ff 	mov    %rax,-0x288(%rbp)
    bf0c:	48 8d 85 20 fb ff ff 	lea    -0x4e0(%rbp),%rax
    bf13:	48 89 85 80 fd ff ff 	mov    %rax,-0x280(%rbp)
    bf1a:	48 8d 05 5f 71 00 00 	lea    0x715f(%rip),%rax        # 13080 <g_230>
    bf21:	48 89 85 88 fd ff ff 	mov    %rax,-0x278(%rbp)
    bf28:	48 8d 85 20 fb ff ff 	lea    -0x4e0(%rbp),%rax
    bf2f:	48 89 85 90 fd ff ff 	mov    %rax,-0x270(%rbp)
    bf36:	48 8d 85 20 fb ff ff 	lea    -0x4e0(%rbp),%rax
    bf3d:	48 89 85 98 fd ff ff 	mov    %rax,-0x268(%rbp)
    bf44:	48 8d 05 5d 95 00 00 	lea    0x955d(%rip),%rax        # 154a8 <g_7>
    bf4b:	48 89 85 a0 fd ff ff 	mov    %rax,-0x260(%rbp)
    bf52:	48 8d 05 4f 95 00 00 	lea    0x954f(%rip),%rax        # 154a8 <g_7>
    bf59:	48 89 85 a8 fd ff ff 	mov    %rax,-0x258(%rbp)
    bf60:	48 8d 85 20 fb ff ff 	lea    -0x4e0(%rbp),%rax
    bf67:	48 89 85 b0 fd ff ff 	mov    %rax,-0x250(%rbp)
    bf6e:	48 8d 85 20 fb ff ff 	lea    -0x4e0(%rbp),%rax
    bf75:	48 89 85 b8 fd ff ff 	mov    %rax,-0x248(%rbp)
    bf7c:	48 8d 05 fd 70 00 00 	lea    0x70fd(%rip),%rax        # 13080 <g_230>
    bf83:	48 89 85 c0 fd ff ff 	mov    %rax,-0x240(%rbp)
    bf8a:	48 8d 85 20 fb ff ff 	lea    -0x4e0(%rbp),%rax
    bf91:	48 89 85 c8 fd ff ff 	mov    %rax,-0x238(%rbp)
    bf98:	48 8d 05 09 95 00 00 	lea    0x9509(%rip),%rax        # 154a8 <g_7>
    bf9f:	48 89 85 d0 fd ff ff 	mov    %rax,-0x230(%rbp)
    bfa6:	48 8d 85 20 fb ff ff 	lea    -0x4e0(%rbp),%rax
    bfad:	48 89 85 d8 fd ff ff 	mov    %rax,-0x228(%rbp)
    bfb4:	48 8d 05 c5 70 00 00 	lea    0x70c5(%rip),%rax        # 13080 <g_230>
    bfbb:	48 89 85 e0 fd ff ff 	mov    %rax,-0x220(%rbp)
    bfc2:	48 8d 05 b7 70 00 00 	lea    0x70b7(%rip),%rax        # 13080 <g_230>
    bfc9:	48 89 85 e8 fd ff ff 	mov    %rax,-0x218(%rbp)
    bfd0:	48 8d 05 d1 94 00 00 	lea    0x94d1(%rip),%rax        # 154a8 <g_7>
    bfd7:	48 89 85 f0 fd ff ff 	mov    %rax,-0x210(%rbp)
    bfde:	48 8d 85 20 fb ff ff 	lea    -0x4e0(%rbp),%rax
    bfe5:	48 89 85 f8 fd ff ff 	mov    %rax,-0x208(%rbp)
    bfec:	48 8d 85 20 fb ff ff 	lea    -0x4e0(%rbp),%rax
    bff3:	48 89 85 00 fe ff ff 	mov    %rax,-0x200(%rbp)
    bffa:	48 8d 05 a7 94 00 00 	lea    0x94a7(%rip),%rax        # 154a8 <g_7>
    c001:	48 89 85 08 fe ff ff 	mov    %rax,-0x1f8(%rbp)
    c008:	48 8d 85 20 fb ff ff 	lea    -0x4e0(%rbp),%rax
    c00f:	48 89 85 10 fe ff ff 	mov    %rax,-0x1f0(%rbp)
    c016:	48 8d 05 8b 94 00 00 	lea    0x948b(%rip),%rax        # 154a8 <g_7>
    c01d:	48 89 85 18 fe ff ff 	mov    %rax,-0x1e8(%rbp)
    c024:	48 8d 05 7d 94 00 00 	lea    0x947d(%rip),%rax        # 154a8 <g_7>
    c02b:	48 89 85 20 fe ff ff 	mov    %rax,-0x1e0(%rbp)
    c032:	48 8d 85 20 fb ff ff 	lea    -0x4e0(%rbp),%rax
    c039:	48 89 85 28 fe ff ff 	mov    %rax,-0x1d8(%rbp)
    c040:	48 8d 05 61 94 00 00 	lea    0x9461(%rip),%rax        # 154a8 <g_7>
    c047:	48 89 85 30 fe ff ff 	mov    %rax,-0x1d0(%rbp)
    c04e:	48 8d 85 20 fb ff ff 	lea    -0x4e0(%rbp),%rax
    c055:	48 89 85 38 fe ff ff 	mov    %rax,-0x1c8(%rbp)
    c05c:	48 8d 85 20 fb ff ff 	lea    -0x4e0(%rbp),%rax
    c063:	48 89 85 40 fe ff ff 	mov    %rax,-0x1c0(%rbp)
    c06a:	48 8d 05 37 94 00 00 	lea    0x9437(%rip),%rax        # 154a8 <g_7>
    c071:	48 89 85 48 fe ff ff 	mov    %rax,-0x1b8(%rbp)
    c078:	48 8d 05 01 70 00 00 	lea    0x7001(%rip),%rax        # 13080 <g_230>
    c07f:	48 89 85 50 fe ff ff 	mov    %rax,-0x1b0(%rbp)
    c086:	48 8d 05 f3 6f 00 00 	lea    0x6ff3(%rip),%rax        # 13080 <g_230>
    c08d:	48 89 85 58 fe ff ff 	mov    %rax,-0x1a8(%rbp)
    c094:	48 8d 85 20 fb ff ff 	lea    -0x4e0(%rbp),%rax
    c09b:	48 89 85 60 fe ff ff 	mov    %rax,-0x1a0(%rbp)
    c0a2:	48 8d 05 ff 93 00 00 	lea    0x93ff(%rip),%rax        # 154a8 <g_7>
    c0a9:	48 89 85 68 fe ff ff 	mov    %rax,-0x198(%rbp)
    c0b0:	48 8d 85 20 fb ff ff 	lea    -0x4e0(%rbp),%rax
    c0b7:	48 89 85 70 fe ff ff 	mov    %rax,-0x190(%rbp)
    c0be:	48 8d 05 bb 6f 00 00 	lea    0x6fbb(%rip),%rax        # 13080 <g_230>
    c0c5:	48 89 85 78 fe ff ff 	mov    %rax,-0x188(%rbp)
    c0cc:	48 8d 85 20 fb ff ff 	lea    -0x4e0(%rbp),%rax
    c0d3:	48 89 85 80 fe ff ff 	mov    %rax,-0x180(%rbp)
    c0da:	48 8d 85 20 fb ff ff 	lea    -0x4e0(%rbp),%rax
    c0e1:	48 89 85 88 fe ff ff 	mov    %rax,-0x178(%rbp)
    c0e8:	48 8d 05 b9 93 00 00 	lea    0x93b9(%rip),%rax        # 154a8 <g_7>
    c0ef:	48 89 85 90 fe ff ff 	mov    %rax,-0x170(%rbp)
    c0f6:	48 8d 05 ab 93 00 00 	lea    0x93ab(%rip),%rax        # 154a8 <g_7>
    c0fd:	48 89 85 98 fe ff ff 	mov    %rax,-0x168(%rbp)
    c104:	48 8d 85 20 fb ff ff 	lea    -0x4e0(%rbp),%rax
    c10b:	48 89 85 a0 fe ff ff 	mov    %rax,-0x160(%rbp)
    c112:	48 8d 85 20 fb ff ff 	lea    -0x4e0(%rbp),%rax
    c119:	48 89 85 a8 fe ff ff 	mov    %rax,-0x158(%rbp)
    c120:	48 c7 85 60 fb ff ff 	movq   $0x0,-0x4a0(%rbp)
    c127:	00 00 00 00 
    c12b:	48 8b 85 f8 fa ff ff 	mov    -0x508(%rbp),%rax
    c132:	48 89 05 07 85 00 00 	mov    %rax,0x8507(%rip)        # 14640 <g_8>
    c139:	66 83 bd 1c fb ff ff 	cmpw   $0x0,-0x4e4(%rbp)
    c140:	00 
    c141:	75 14                	jne    c157 <func_75+0x668>
    c143:	48 8b 05 66 6f 00 00 	mov    0x6f66(%rip),%rax        # 130b0 <g_419>
    c14a:	48 83 e8 01          	sub    $0x1,%rax
    c14e:	48 89 05 5b 6f 00 00 	mov    %rax,0x6f5b(%rip)        # 130b0 <g_419>
    c155:	eb 01                	jmp    c158 <func_75+0x669>
    c157:	90                   	nop
    c158:	8b 85 20 fb ff ff    	mov    -0x4e0(%rbp),%eax
    c15e:	83 c0 01             	add    $0x1,%eax
    c161:	89 85 20 fb ff ff    	mov    %eax,-0x4e0(%rbp)
    c167:	8b 85 20 fb ff ff    	mov    -0x4e0(%rbp),%eax
    c16d:	83 f8 1a             	cmp    $0x1a,%eax
    c170:	0f 8e b1 fb ff ff    	jle    bd27 <func_75+0x238>
    c176:	0f b7 05 d7 6e 00 00 	movzwl 0x6ed7(%rip),%eax        # 13054 <g_217>
    c17d:	83 c0 01             	add    $0x1,%eax
    c180:	66 89 05 cd 6e 00 00 	mov    %ax,0x6ecd(%rip)        # 13054 <g_217>
    c187:	0f b7 05 c6 6e 00 00 	movzwl 0x6ec6(%rip),%eax        # 13054 <g_217>
    c18e:	66 83 f8 19          	cmp    $0x19,%ax
    c192:	0f 86 00 fb ff ff    	jbe    bc98 <func_75+0x1a9>
    c198:	c7 85 24 fb ff ff e9 	movl   $0xffffffe9,-0x4dc(%rbp)
    c19f:	ff ff ff 
    c1a2:	eb 23                	jmp    c1c7 <func_75+0x6d8>
    c1a4:	48 8d 85 60 fb ff ff 	lea    -0x4a0(%rbp),%rax
    c1ab:	48 89 85 a0 fb ff ff 	mov    %rax,-0x460(%rbp)
    c1b2:	48 8b 85 a0 fb ff ff 	mov    -0x460(%rbp),%rax
    c1b9:	48 c7 00 00 00 00 00 	movq   $0x0,(%rax)
    c1c0:	83 85 24 fb ff ff 01 	addl   $0x1,-0x4dc(%rbp)
    c1c7:	83 bd 24 fb ff ff 02 	cmpl   $0x2,-0x4dc(%rbp)
    c1ce:	75 d4                	jne    c1a4 <func_75+0x6b5>
    c1d0:	c7 85 2c fb ff ff 19 	movl   $0x19,-0x4d4(%rbp)
    c1d7:	00 00 00 
    c1da:	e9 9c 03 00 00       	jmpq   c57b <func_75+0xa8c>
    c1df:	c7 85 5c fb ff ff dc 	movl   $0x36b844dc,-0x4a4(%rbp)
    c1e6:	44 b8 36 
    c1e9:	c7 85 40 fc ff ff 01 	movl   $0x1,-0x3c0(%rbp)
    c1f0:	00 00 00 
    c1f3:	c7 85 44 fc ff ff 66 	movl   $0x1fe26f66,-0x3bc(%rbp)
    c1fa:	6f e2 1f 
    c1fd:	c7 85 48 fc ff ff 01 	movl   $0x1,-0x3b8(%rbp)
    c204:	00 00 00 
    c207:	c7 85 4c fc ff ff 01 	movl   $0x1,-0x3b4(%rbp)
    c20e:	00 00 00 
    c211:	c7 85 50 fc ff ff 66 	movl   $0x1fe26f66,-0x3b0(%rbp)
    c218:	6f e2 1f 
    c21b:	c7 85 54 fc ff ff 01 	movl   $0x1,-0x3ac(%rbp)
    c222:	00 00 00 
    c225:	c7 85 58 fc ff ff 01 	movl   $0x1,-0x3a8(%rbp)
    c22c:	00 00 00 
    c22f:	c7 85 5c fc ff ff 66 	movl   $0x1fe26f66,-0x3a4(%rbp)
    c236:	6f e2 1f 
    c239:	c7 85 60 fc ff ff 01 	movl   $0x1,-0x3a0(%rbp)
    c240:	00 00 00 
    c243:	c7 85 64 fc ff ff 01 	movl   $0x1,-0x39c(%rbp)
    c24a:	00 00 00 
    c24d:	c7 85 68 fc ff ff 66 	movl   $0x1fe26f66,-0x398(%rbp)
    c254:	6f e2 1f 
    c257:	c7 85 6c fc ff ff 01 	movl   $0x1,-0x394(%rbp)
    c25e:	00 00 00 
    c261:	48 8d 05 50 6e 00 00 	lea    0x6e50(%rip),%rax        # 130b8 <g_433>
    c268:	48 89 85 78 fb ff ff 	mov    %rax,-0x488(%rbp)
    c26f:	48 8d 85 70 fc ff ff 	lea    -0x390(%rbp),%rax
    c276:	48 8d 15 43 71 00 00 	lea    0x7143(%rip),%rdx        # 133c0 <g_881+0x2e8>
    c27d:	b9 6c 00 00 00       	mov    $0x6c,%ecx
    c282:	48 89 c7             	mov    %rax,%rdi
    c285:	48 89 d6             	mov    %rdx,%rsi
    c288:	f3 48 a5             	rep movsq %ds:(%rsi),%es:(%rdi)
    c28b:	48 8d 05 c2 6d 00 00 	lea    0x6dc2(%rip),%rax        # 13054 <g_217>
    c292:	48 89 85 80 fb ff ff 	mov    %rax,-0x480(%rbp)
    c299:	48 8d 05 1a 6e 00 00 	lea    0x6e1a(%rip),%rax        # 130ba <g_456>
    c2a0:	48 89 85 88 fb ff ff 	mov    %rax,-0x478(%rbp)
    c2a7:	48 8d 05 be 6d 00 00 	lea    0x6dbe(%rip),%rax        # 1306c <g_228>
    c2ae:	48 89 85 90 fb ff ff 	mov    %rax,-0x470(%rbp)
    c2b5:	8b 05 ed 6d 00 00    	mov    0x6ded(%rip),%eax        # 130a8 <g_349>
    c2bb:	85 c0                	test   %eax,%eax
    c2bd:	0f 85 c7 02 00 00    	jne    c58a <func_75+0xa9b>
    c2c3:	c7 85 34 fb ff ff f6 	movl   $0xfffffff6,-0x4cc(%rbp)
    c2ca:	ff ff ff 
    c2cd:	e9 d5 01 00 00       	jmpq   c4a7 <func_75+0x9b8>
    c2d2:	48 8d 05 7b 6d 00 00 	lea    0x6d7b(%rip),%rax        # 13054 <g_217>
    c2d9:	48 89 85 98 fb ff ff 	mov    %rax,-0x468(%rbp)
    c2e0:	c7 85 40 fb ff ff 00 	movl   $0x0,-0x4c0(%rbp)
    c2e7:	00 00 00 
    c2ea:	eb 1e                	jmp    c30a <func_75+0x81b>
    c2ec:	8b 85 40 fb ff ff    	mov    -0x4c0(%rbp),%eax
    c2f2:	48 98                	cltq   
    c2f4:	48 8d 15 bd 6d 00 00 	lea    0x6dbd(%rip),%rdx        # 130b8 <g_433>
    c2fb:	48 89 94 c5 b0 fb ff 	mov    %rdx,-0x450(%rbp,%rax,8)
    c302:	ff 
    c303:	83 85 40 fb ff ff 01 	addl   $0x1,-0x4c0(%rbp)
    c30a:	83 bd 40 fb ff ff 00 	cmpl   $0x0,-0x4c0(%rbp)
    c311:	7e d9                	jle    c2ec <func_75+0x7fd>
    c313:	c7 85 40 fb ff ff 00 	movl   $0x0,-0x4c0(%rbp)
    c31a:	00 00 00 
    c31d:	eb 78                	jmp    c397 <func_75+0x8a8>
    c31f:	c7 85 44 fb ff ff 00 	movl   $0x0,-0x4bc(%rbp)
    c326:	00 00 00 
    c329:	eb 5c                	jmp    c387 <func_75+0x898>
    c32b:	c7 85 48 fb ff ff 00 	movl   $0x0,-0x4b8(%rbp)
    c332:	00 00 00 
    c335:	eb 40                	jmp    c377 <func_75+0x888>
    c337:	8b 85 48 fb ff ff    	mov    -0x4b8(%rbp),%eax
    c33d:	48 63 f0             	movslq %eax,%rsi
    c340:	8b 85 44 fb ff ff    	mov    -0x4bc(%rbp),%eax
    c346:	48 63 c8             	movslq %eax,%rcx
    c349:	8b 85 40 fb ff ff    	mov    -0x4c0(%rbp),%eax
    c34f:	48 63 d0             	movslq %eax,%rdx
    c352:	48 89 d0             	mov    %rdx,%rax
    c355:	48 01 c0             	add    %rax,%rax
    c358:	48 01 d0             	add    %rdx,%rax
    c35b:	48 01 f0             	add    %rsi,%rax
    c35e:	48 01 c8             	add    %rcx,%rax
    c361:	48 8d 15 44 91 00 00 	lea    0x9144(%rip),%rdx        # 154ac <g_117>
    c368:	48 89 94 c5 c0 fb ff 	mov    %rdx,-0x440(%rbp,%rax,8)
    c36f:	ff 
    c370:	83 85 48 fb ff ff 01 	addl   $0x1,-0x4b8(%rbp)
    c377:	83 bd 48 fb ff ff 00 	cmpl   $0x0,-0x4b8(%rbp)
    c37e:	7e b7                	jle    c337 <func_75+0x848>
    c380:	83 85 44 fb ff ff 01 	addl   $0x1,-0x4bc(%rbp)
    c387:	83 bd 44 fb ff ff 02 	cmpl   $0x2,-0x4bc(%rbp)
    c38e:	7e 9b                	jle    c32b <func_75+0x83c>
    c390:	83 85 40 fb ff ff 01 	addl   $0x1,-0x4c0(%rbp)
    c397:	83 bd 40 fb ff ff 00 	cmpl   $0x0,-0x4c0(%rbp)
    c39e:	0f 8e 7b ff ff ff    	jle    c31f <func_75+0x830>
    c3a4:	48 8b 05 ad 6c 00 00 	mov    0x6cad(%rip),%rax        # 13058 <g_220>
    c3ab:	89 c6                	mov    %eax,%esi
    c3ad:	bf ff ff ff ff       	mov    $0xffffffff,%edi
    c3b2:	e8 6e ab ff ff       	callq  6f25 <safe_div_func_uint32_t_u_u>
    c3b7:	89 c2                	mov    %eax,%edx
    c3b9:	48 8b 85 f0 fa ff ff 	mov    -0x510(%rbp),%rax
    c3c0:	89 c1                	mov    %eax,%ecx
    c3c2:	48 8b 85 98 fb ff ff 	mov    -0x468(%rbp),%rax
    c3c9:	66 89 08             	mov    %cx,(%rax)
    c3cc:	48 8b 85 98 fb ff ff 	mov    -0x468(%rbp),%rax
    c3d3:	0f b7 00             	movzwl (%rax),%eax
    c3d6:	0f b7 c0             	movzwl %ax,%eax
    c3d9:	8b 8d 30 fb ff ff    	mov    -0x4d0(%rbp),%ecx
    c3df:	31 ca                	xor    %ecx,%edx
    c3e1:	89 95 30 fb ff ff    	mov    %edx,-0x4d0(%rbp)
    c3e7:	39 85 30 fb ff ff    	cmp    %eax,-0x4d0(%rbp)
    c3ed:	0f 9f c0             	setg   %al
    c3f0:	44 0f b6 e0          	movzbl %al,%r12d
    c3f4:	8b 1d 4e 6c 00 00    	mov    0x6c4e(%rip),%ebx        # 13048 <g_172>
    c3fa:	48 8b 85 f0 fa ff ff 	mov    -0x510(%rbp),%rax
    c401:	41 89 c5             	mov    %eax,%r13d
    c404:	8b 95 5c fb ff ff    	mov    -0x4a4(%rbp),%edx
    c40a:	8b 05 98 90 00 00    	mov    0x9098(%rip),%eax        # 154a8 <g_7>
    c410:	c1 e8 1f             	shr    $0x1f,%eax
    c413:	89 c1                	mov    %eax,%ecx
    c415:	48 83 bd f0 fa ff ff 	cmpq   $0x0,-0x510(%rbp)
    c41c:	00 
    c41d:	74 11                	je     c430 <func_75+0x941>
    c41f:	48 83 bd f0 fa ff ff 	cmpq   $0x0,-0x510(%rbp)
    c426:	00 
    c427:	74 07                	je     c430 <func_75+0x941>
    c429:	b8 01 00 00 00       	mov    $0x1,%eax
    c42e:	eb 05                	jmp    c435 <func_75+0x946>
    c430:	b8 00 00 00 00       	mov    $0x0,%eax
    c435:	83 e0 01             	and    $0x1,%eax
    c438:	31 c8                	xor    %ecx,%eax
    c43a:	0f b6 c0             	movzbl %al,%eax
    c43d:	89 d6                	mov    %edx,%esi
    c43f:	89 c7                	mov    %eax,%edi
    c441:	e8 bf a1 ff ff       	callq  6605 <safe_sub_func_int32_t_s_s>
    c446:	0f b7 c0             	movzwl %ax,%eax
    c449:	44 89 ee             	mov    %r13d,%esi
    c44c:	89 c7                	mov    %eax,%edi
    c44e:	e8 6b a9 ff ff       	callq  6dbe <safe_lshift_func_uint16_t_u_s>
    c453:	0f b7 c0             	movzwl %ax,%eax
    c456:	39 85 5c fb ff ff    	cmp    %eax,-0x4a4(%rbp)
    c45c:	0f 97 c0             	seta   %al
    c45f:	0f b6 c0             	movzbl %al,%eax
    c462:	89 de                	mov    %ebx,%esi
    c464:	89 c7                	mov    %eax,%edi
    c466:	e8 ca 9e ff ff       	callq  6335 <safe_rshift_func_int8_t_s_s>
    c46b:	0f b6 d0             	movzbl %al,%edx
    c46e:	b8 f2 58 3f 9d       	mov    $0x9d3f58f2,%eax
    c473:	89 85 bc fb ff ff    	mov    %eax,-0x444(%rbp)
    c479:	8b 85 bc fb ff ff    	mov    -0x444(%rbp),%eax
    c47f:	c1 e8 1f             	shr    $0x1f,%eax
    c482:	0f b6 c0             	movzbl %al,%eax
    c485:	89 d6                	mov    %edx,%esi
    c487:	89 c7                	mov    %eax,%edi
    c489:	e8 cc a6 ff ff       	callq  6b5a <safe_add_func_uint8_t_u_u>
    c48e:	0f b6 c0             	movzbl %al,%eax
    c491:	41 39 c4             	cmp    %eax,%r12d
    c494:	0f 95 c0             	setne  %al
    c497:	0f b6 c0             	movzbl %al,%eax
    c49a:	89 85 54 fc ff ff    	mov    %eax,-0x3ac(%rbp)
    c4a0:	83 ad 34 fb ff ff 01 	subl   $0x1,-0x4cc(%rbp)
    c4a7:	83 bd 34 fb ff ff e4 	cmpl   $0xffffffe4,-0x4cc(%rbp)
    c4ae:	0f 8c 1e fe ff ff    	jl     c2d2 <func_75+0x7e3>
    c4b4:	be 00 00 00 00       	mov    $0x0,%esi
    c4b9:	bf 91 19 00 00       	mov    $0x1991,%edi
    c4be:	e8 cf 9f ff ff       	callq  6492 <safe_lshift_func_int16_t_s_s>
    c4c3:	66 85 c0             	test   %ax,%ax
    c4c6:	74 5b                	je     c523 <func_75+0xa34>
    c4c8:	48 8b 45 b0          	mov    -0x50(%rbp),%rax
    c4cc:	48 89 85 70 fb ff ff 	mov    %rax,-0x490(%rbp)
    c4d3:	48 8b 85 80 fb ff ff 	mov    -0x480(%rbp),%rax
    c4da:	0f b7 00             	movzwl (%rax),%eax
    c4dd:	66 0d 07 d6          	or     $0xd607,%ax
    c4e1:	89 c2                	mov    %eax,%edx
    c4e3:	48 8b 85 80 fb ff ff 	mov    -0x480(%rbp),%rax
    c4ea:	66 89 10             	mov    %dx,(%rax)
    c4ed:	48 8b 85 80 fb ff ff 	mov    -0x480(%rbp),%rax
    c4f4:	0f b7 10             	movzwl (%rax),%edx
    c4f7:	48 8b 85 88 fb ff ff 	mov    -0x478(%rbp),%rax
    c4fe:	0f b7 00             	movzwl (%rax),%eax
    c501:	21 c2                	and    %eax,%edx
    c503:	48 8b 85 88 fb ff ff 	mov    -0x478(%rbp),%rax
    c50a:	66 89 10             	mov    %dx,(%rax)
    c50d:	48 8b 85 88 fb ff ff 	mov    -0x478(%rbp),%rax
    c514:	0f b7 00             	movzwl (%rax),%eax
    c517:	66 85 c0             	test   %ax,%ax
    c51a:	74 07                	je     c523 <func_75+0xa34>
    c51c:	bb 01 00 00 00       	mov    $0x1,%ebx
    c521:	eb 05                	jmp    c528 <func_75+0xa39>
    c523:	bb 00 00 00 00       	mov    $0x0,%ebx
    c528:	8b 05 7a 6b 00 00    	mov    0x6b7a(%rip),%eax        # 130a8 <g_349>
    c52e:	89 c6                	mov    %eax,%esi
    c530:	bf 5b 00 00 00       	mov    $0x5b,%edi
    c535:	e8 53 a7 ff ff       	callq  6c8d <safe_rshift_func_uint8_t_u_s>
    c53a:	0f b6 c0             	movzbl %al,%eax
    c53d:	39 c3                	cmp    %eax,%ebx
    c53f:	0f 9e c0             	setle  %al
    c542:	0f b6 d0             	movzbl %al,%edx
    c545:	48 8b 85 78 fb ff ff 	mov    -0x488(%rbp),%rax
    c54c:	0f b7 00             	movzwl (%rax),%eax
    c54f:	8d 70 01             	lea    0x1(%rax),%esi
    c552:	48 8b 8d 78 fb ff ff 	mov    -0x488(%rbp),%rcx
    c559:	66 89 31             	mov    %si,(%rcx)
    c55c:	0f b7 c0             	movzwl %ax,%eax
    c55f:	89 d6                	mov    %edx,%esi
    c561:	89 c7                	mov    %eax,%edi
    c563:	e8 56 a8 ff ff       	callq  6dbe <safe_lshift_func_uint16_t_u_s>
    c568:	0f b7 d0             	movzwl %ax,%edx
    c56b:	48 8b 85 90 fb ff ff 	mov    -0x470(%rbp),%rax
    c572:	89 10                	mov    %edx,(%rax)
    c574:	83 85 2c fb ff ff 01 	addl   $0x1,-0x4d4(%rbp)
    c57b:	83 bd 2c fb ff ff 19 	cmpl   $0x19,-0x4d4(%rbp)
    c582:	0f 85 57 fc ff ff    	jne    c1df <func_75+0x6f0>
    c588:	eb 01                	jmp    c58b <func_75+0xa9c>
    c58a:	90                   	nop
    c58b:	48 8b 05 ae 6a 00 00 	mov    0x6aae(%rip),%rax        # 13040 <g_159>
    c592:	be 09 00 00 00       	mov    $0x9,%esi
    c597:	89 c7                	mov    %eax,%edi
    c599:	e8 67 a0 ff ff       	callq  6605 <safe_sub_func_int32_t_s_s>
    c59e:	48 98                	cltq   
    c5a0:	48 89 05 99 6a 00 00 	mov    %rax,0x6a99(%rip)        # 13040 <g_159>
    c5a7:	48 8b 05 92 6a 00 00 	mov    0x6a92(%rip),%rax        # 13040 <g_159>
    c5ae:	48 83 f8 e4          	cmp    $0xffffffffffffffe4,%rax
    c5b2:	0f 8c ec f5 ff ff    	jl     bba4 <func_75+0xb5>
    c5b8:	48 8b 85 68 fb ff ff 	mov    -0x498(%rbp),%rax
    c5bf:	8b 00                	mov    (%rax),%eax
    c5c1:	48 8b 5d d8          	mov    -0x28(%rbp),%rbx
    c5c5:	64 48 33 1c 25 28 00 	xor    %fs:0x28,%rbx
    c5cc:	00 00 
    c5ce:	74 05                	je     c5d5 <func_75+0xae6>
    c5d0:	e8 9b 9a ff ff       	callq  6070 <__stack_chk_fail@plt>
    c5d5:	48 81 c4 08 05 00 00 	add    $0x508,%rsp
    c5dc:	5b                   	pop    %rbx
    c5dd:	41 5c                	pop    %r12
    c5df:	41 5d                	pop    %r13
    c5e1:	5d                   	pop    %rbp
    c5e2:	c3                   	retq   

000000000000c5e3 <func_81>:
    c5e3:	f3 0f 1e fa          	endbr64 
    c5e7:	55                   	push   %rbp
    c5e8:	48 89 e5             	mov    %rsp,%rbp
    c5eb:	41 56                	push   %r14
    c5ed:	41 55                	push   %r13
    c5ef:	41 54                	push   %r12
    c5f1:	53                   	push   %rbx
    c5f2:	48 81 ec 00 10 00 00 	sub    $0x1000,%rsp
    c5f9:	48 83 0c 24 00       	orq    $0x0,(%rsp)
    c5fe:	48 81 ec 90 00 00 00 	sub    $0x90,%rsp
    c605:	48 89 bd 68 ef ff ff 	mov    %rdi,-0x1098(%rbp)
    c60c:	89 f0                	mov    %esi,%eax
    c60e:	89 95 60 ef ff ff    	mov    %edx,-0x10a0(%rbp)
    c614:	89 ca                	mov    %ecx,%edx
    c616:	44 89 85 58 ef ff ff 	mov    %r8d,-0x10a8(%rbp)
    c61d:	66 89 85 64 ef ff ff 	mov    %ax,-0x109c(%rbp)
    c624:	89 d0                	mov    %edx,%eax
    c626:	88 85 5c ef ff ff    	mov    %al,-0x10a4(%rbp)
    c62c:	64 48 8b 04 25 28 00 	mov    %fs:0x28,%rax
    c633:	00 00 
    c635:	48 89 45 d8          	mov    %rax,-0x28(%rbp)
    c639:	31 c0                	xor    %eax,%eax
    c63b:	48 8d 05 1e 6a 00 00 	lea    0x6a1e(%rip),%rax        # 13060 <g_225>
    c642:	48 89 85 b8 ef ff ff 	mov    %rax,-0x1048(%rbp)
    c649:	48 c7 85 c0 ef ff ff 	movq   $0x0,-0x1040(%rbp)
    c650:	00 00 00 00 
    c654:	c7 85 8c ef ff ff 00 	movl   $0x0,-0x1074(%rbp)
    c65b:	00 00 00 
    c65e:	c7 85 80 f0 ff ff 66 	movl   $0xdfdb6566,-0xf80(%rbp)
    c665:	65 db df 
    c668:	c7 85 84 f0 ff ff 66 	movl   $0xdfdb6566,-0xf7c(%rbp)
    c66f:	65 db df 
    c672:	c7 85 88 f0 ff ff 66 	movl   $0xdfdb6566,-0xf78(%rbp)
    c679:	65 db df 
    c67c:	c7 85 8c f0 ff ff 66 	movl   $0xdfdb6566,-0xf74(%rbp)
    c683:	65 db df 
    c686:	c7 85 90 f0 ff ff 66 	movl   $0xdfdb6566,-0xf70(%rbp)
    c68d:	65 db df 
    c690:	c7 85 94 f0 ff ff 66 	movl   $0xdfdb6566,-0xf6c(%rbp)
    c697:	65 db df 
    c69a:	c7 85 98 f0 ff ff 66 	movl   $0xdfdb6566,-0xf68(%rbp)
    c6a1:	65 db df 
    c6a4:	c7 85 9c f0 ff ff 66 	movl   $0xdfdb6566,-0xf64(%rbp)
    c6ab:	65 db df 
    c6ae:	c7 85 a0 f0 ff ff 66 	movl   $0xdfdb6566,-0xf60(%rbp)
    c6b5:	65 db df 
    c6b8:	c7 85 a4 f0 ff ff 66 	movl   $0xdfdb6566,-0xf5c(%rbp)
    c6bf:	65 db df 
    c6c2:	c7 85 a8 f0 ff ff 66 	movl   $0xdfdb6566,-0xf58(%rbp)
    c6c9:	65 db df 
    c6cc:	c7 85 ac f0 ff ff 66 	movl   $0xdfdb6566,-0xf54(%rbp)
    c6d3:	65 db df 
    c6d6:	c7 85 b0 f0 ff ff 66 	movl   $0xdfdb6566,-0xf50(%rbp)
    c6dd:	65 db df 
    c6e0:	c7 85 b4 f0 ff ff 66 	movl   $0xdfdb6566,-0xf4c(%rbp)
    c6e7:	65 db df 
    c6ea:	c7 85 b8 f0 ff ff 66 	movl   $0xdfdb6566,-0xf48(%rbp)
    c6f1:	65 db df 
    c6f4:	c7 85 bc f0 ff ff 66 	movl   $0xdfdb6566,-0xf44(%rbp)
    c6fb:	65 db df 
    c6fe:	c7 85 80 ef ff ff b6 	movl   $0x1e3e20b6,-0x1080(%rbp)
    c705:	20 3e 1e 
    c708:	48 8d 05 71 69 00 00 	lea    0x6971(%rip),%rax        # 13080 <g_230>
    c70f:	48 89 85 c0 f1 ff ff 	mov    %rax,-0xe40(%rbp)
    c716:	48 8d 05 8b 8d 00 00 	lea    0x8d8b(%rip),%rax        # 154a8 <g_7>
    c71d:	48 89 85 c8 f1 ff ff 	mov    %rax,-0xe38(%rbp)
    c724:	48 8d 05 f9 68 00 00 	lea    0x68f9(%rip),%rax        # 13024 <g_9>
    c72b:	48 89 85 d0 f1 ff ff 	mov    %rax,-0xe30(%rbp)
    c732:	48 8d 05 4b 69 00 00 	lea    0x694b(%rip),%rax        # 13084 <g_230+0x4>
    c739:	48 89 85 d8 f1 ff ff 	mov    %rax,-0xe28(%rbp)
    c740:	48 8d 85 80 f0 ff ff 	lea    -0xf80(%rbp),%rax
    c747:	48 83 c0 1c          	add    $0x1c,%rax
    c74b:	48 89 85 e0 f1 ff ff 	mov    %rax,-0xe20(%rbp)
    c752:	48 8d 85 80 f0 ff ff 	lea    -0xf80(%rbp),%rax
    c759:	48 83 c0 1c          	add    $0x1c,%rax
    c75d:	48 89 85 e8 f1 ff ff 	mov    %rax,-0xe18(%rbp)
    c764:	48 8d 85 80 f0 ff ff 	lea    -0xf80(%rbp),%rax
    c76b:	48 83 c0 1c          	add    $0x1c,%rax
    c76f:	48 89 85 f0 f1 ff ff 	mov    %rax,-0xe10(%rbp)
    c776:	48 c7 85 f8 f1 ff ff 	movq   $0x0,-0xe08(%rbp)
    c77d:	00 00 00 00 
    c781:	48 8d 05 f8 68 00 00 	lea    0x68f8(%rip),%rax        # 13080 <g_230>
    c788:	48 89 85 00 f2 ff ff 	mov    %rax,-0xe00(%rbp)
    c78f:	48 8d 05 ea 68 00 00 	lea    0x68ea(%rip),%rax        # 13080 <g_230>
    c796:	48 89 85 08 f2 ff ff 	mov    %rax,-0xdf8(%rbp)
    c79d:	48 8d 05 dc 68 00 00 	lea    0x68dc(%rip),%rax        # 13080 <g_230>
    c7a4:	48 89 85 10 f2 ff ff 	mov    %rax,-0xdf0(%rbp)
    c7ab:	48 8d 05 72 68 00 00 	lea    0x6872(%rip),%rax        # 13024 <g_9>
    c7b2:	48 89 85 18 f2 ff ff 	mov    %rax,-0xde8(%rbp)
    c7b9:	48 c7 85 20 f2 ff ff 	movq   $0x0,-0xde0(%rbp)
    c7c0:	00 00 00 00 
    c7c4:	48 8d 05 dd 8c 00 00 	lea    0x8cdd(%rip),%rax        # 154a8 <g_7>
    c7cb:	48 89 85 28 f2 ff ff 	mov    %rax,-0xdd8(%rbp)
    c7d2:	48 c7 85 30 f2 ff ff 	movq   $0x0,-0xdd0(%rbp)
    c7d9:	00 00 00 00 
    c7dd:	48 8d 05 88 68 00 00 	lea    0x6888(%rip),%rax        # 1306c <g_228>
    c7e4:	48 89 85 38 f2 ff ff 	mov    %rax,-0xdc8(%rbp)
    c7eb:	48 8d 05 b6 8c 00 00 	lea    0x8cb6(%rip),%rax        # 154a8 <g_7>
    c7f2:	48 89 85 40 f2 ff ff 	mov    %rax,-0xdc0(%rbp)
    c7f9:	48 8d 05 94 68 00 00 	lea    0x6894(%rip),%rax        # 13094 <g_230+0x14>
    c800:	48 89 85 48 f2 ff ff 	mov    %rax,-0xdb8(%rbp)
    c807:	48 8d 05 72 68 00 00 	lea    0x6872(%rip),%rax        # 13080 <g_230>
    c80e:	48 89 85 50 f2 ff ff 	mov    %rax,-0xdb0(%rbp)
    c815:	48 8d 05 64 68 00 00 	lea    0x6864(%rip),%rax        # 13080 <g_230>
    c81c:	48 89 85 58 f2 ff ff 	mov    %rax,-0xda8(%rbp)
    c823:	48 8d 05 56 68 00 00 	lea    0x6856(%rip),%rax        # 13080 <g_230>
    c82a:	48 89 85 60 f2 ff ff 	mov    %rax,-0xda0(%rbp)
    c831:	48 8d 85 80 f0 ff ff 	lea    -0xf80(%rbp),%rax
    c838:	48 83 c0 1c          	add    $0x1c,%rax
    c83c:	48 89 85 68 f2 ff ff 	mov    %rax,-0xd98(%rbp)
    c843:	48 c7 85 70 f2 ff ff 	movq   $0x0,-0xd90(%rbp)
    c84a:	00 00 00 00 
    c84e:	48 8d 85 80 f0 ff ff 	lea    -0xf80(%rbp),%rax
    c855:	48 83 c0 1c          	add    $0x1c,%rax
    c859:	48 89 85 78 f2 ff ff 	mov    %rax,-0xd88(%rbp)
    c860:	48 c7 85 80 f2 ff ff 	movq   $0x0,-0xd80(%rbp)
    c867:	00 00 00 00 
    c86b:	48 8d 85 80 f0 ff ff 	lea    -0xf80(%rbp),%rax
    c872:	48 83 c0 1c          	add    $0x1c,%rax
    c876:	48 89 85 88 f2 ff ff 	mov    %rax,-0xd78(%rbp)
    c87d:	48 8d 05 1c 68 00 00 	lea    0x681c(%rip),%rax        # 130a0 <g_230+0x20>
    c884:	48 89 85 90 f2 ff ff 	mov    %rax,-0xd70(%rbp)
    c88b:	48 8d 85 80 f0 ff ff 	lea    -0xf80(%rbp),%rax
    c892:	48 83 c0 1c          	add    $0x1c,%rax
    c896:	48 89 85 98 f2 ff ff 	mov    %rax,-0xd68(%rbp)
    c89d:	48 8d 05 04 8c 00 00 	lea    0x8c04(%rip),%rax        # 154a8 <g_7>
    c8a4:	48 89 85 a0 f2 ff ff 	mov    %rax,-0xd60(%rbp)
    c8ab:	48 c7 85 a8 f2 ff ff 	movq   $0x0,-0xd58(%rbp)
    c8b2:	00 00 00 00 
    c8b6:	48 8d 85 80 f0 ff ff 	lea    -0xf80(%rbp),%rax
    c8bd:	48 83 c0 1c          	add    $0x1c,%rax
    c8c1:	48 89 85 b0 f2 ff ff 	mov    %rax,-0xd50(%rbp)
    c8c8:	48 8d 05 b1 67 00 00 	lea    0x67b1(%rip),%rax        # 13080 <g_230>
    c8cf:	48 89 85 b8 f2 ff ff 	mov    %rax,-0xd48(%rbp)
    c8d6:	48 c7 85 c0 f2 ff ff 	movq   $0x0,-0xd40(%rbp)
    c8dd:	00 00 00 00 
    c8e1:	48 8d 85 80 f0 ff ff 	lea    -0xf80(%rbp),%rax
    c8e8:	48 83 c0 1c          	add    $0x1c,%rax
    c8ec:	48 89 85 c8 f2 ff ff 	mov    %rax,-0xd38(%rbp)
    c8f3:	48 8d 05 4e 67 00 00 	lea    0x674e(%rip),%rax        # 13048 <g_172>
    c8fa:	48 89 85 d0 f2 ff ff 	mov    %rax,-0xd30(%rbp)
    c901:	48 8d 05 78 67 00 00 	lea    0x6778(%rip),%rax        # 13080 <g_230>
    c908:	48 89 85 d8 f2 ff ff 	mov    %rax,-0xd28(%rbp)
    c90f:	48 c7 85 e0 f2 ff ff 	movq   $0x0,-0xd20(%rbp)
    c916:	00 00 00 00 
    c91a:	48 8d 85 80 f0 ff ff 	lea    -0xf80(%rbp),%rax
    c921:	48 83 c0 34          	add    $0x34,%rax
    c925:	48 89 85 e8 f2 ff ff 	mov    %rax,-0xd18(%rbp)
    c92c:	48 c7 85 f0 f2 ff ff 	movq   $0x0,-0xd10(%rbp)
    c933:	00 00 00 00 
    c937:	48 8d 85 80 f0 ff ff 	lea    -0xf80(%rbp),%rax
    c93e:	48 83 c0 1c          	add    $0x1c,%rax
    c942:	48 89 85 f8 f2 ff ff 	mov    %rax,-0xd08(%rbp)
    c949:	48 c7 85 00 f3 ff ff 	movq   $0x0,-0xd00(%rbp)
    c950:	00 00 00 00 
    c954:	48 8d 05 11 67 00 00 	lea    0x6711(%rip),%rax        # 1306c <g_228>
    c95b:	48 89 85 08 f3 ff ff 	mov    %rax,-0xcf8(%rbp)
    c962:	48 8d 05 17 67 00 00 	lea    0x6717(%rip),%rax        # 13080 <g_230>
    c969:	48 89 85 10 f3 ff ff 	mov    %rax,-0xcf0(%rbp)
    c970:	48 8d 05 31 8b 00 00 	lea    0x8b31(%rip),%rax        # 154a8 <g_7>
    c977:	48 89 85 18 f3 ff ff 	mov    %rax,-0xce8(%rbp)
    c97e:	48 8d 05 e7 66 00 00 	lea    0x66e7(%rip),%rax        # 1306c <g_228>
    c985:	48 89 85 20 f3 ff ff 	mov    %rax,-0xce0(%rbp)
    c98c:	48 8d 05 d9 66 00 00 	lea    0x66d9(%rip),%rax        # 1306c <g_228>
    c993:	48 89 85 28 f3 ff ff 	mov    %rax,-0xcd8(%rbp)
    c99a:	48 8d 05 a7 66 00 00 	lea    0x66a7(%rip),%rax        # 13048 <g_172>
    c9a1:	48 89 85 30 f3 ff ff 	mov    %rax,-0xcd0(%rbp)
    c9a8:	48 8d 05 bd 66 00 00 	lea    0x66bd(%rip),%rax        # 1306c <g_228>
    c9af:	48 89 85 38 f3 ff ff 	mov    %rax,-0xcc8(%rbp)
    c9b6:	48 c7 85 40 f3 ff ff 	movq   $0x0,-0xcc0(%rbp)
    c9bd:	00 00 00 00 
    c9c1:	48 8d 05 5c 66 00 00 	lea    0x665c(%rip),%rax        # 13024 <g_9>
    c9c8:	48 89 85 48 f3 ff ff 	mov    %rax,-0xcb8(%rbp)
    c9cf:	48 8d 05 96 66 00 00 	lea    0x6696(%rip),%rax        # 1306c <g_228>
    c9d6:	48 89 85 50 f3 ff ff 	mov    %rax,-0xcb0(%rbp)
    c9dd:	48 8d 05 9c 66 00 00 	lea    0x669c(%rip),%rax        # 13080 <g_230>
    c9e4:	48 89 85 58 f3 ff ff 	mov    %rax,-0xca8(%rbp)
    c9eb:	48 8d 85 80 f0 ff ff 	lea    -0xf80(%rbp),%rax
    c9f2:	48 89 85 60 f3 ff ff 	mov    %rax,-0xca0(%rbp)
    c9f9:	48 c7 85 68 f3 ff ff 	movq   $0x0,-0xc98(%rbp)
    ca00:	00 00 00 00 
    ca04:	48 8d 85 80 f0 ff ff 	lea    -0xf80(%rbp),%rax
    ca0b:	48 83 c0 1c          	add    $0x1c,%rax
    ca0f:	48 89 85 70 f3 ff ff 	mov    %rax,-0xc90(%rbp)
    ca16:	48 8d 85 80 f0 ff ff 	lea    -0xf80(%rbp),%rax
    ca1d:	48 83 c0 1c          	add    $0x1c,%rax
    ca21:	48 89 85 78 f3 ff ff 	mov    %rax,-0xc88(%rbp)
    ca28:	48 8d 05 51 66 00 00 	lea    0x6651(%rip),%rax        # 13080 <g_230>
    ca2f:	48 89 85 80 f3 ff ff 	mov    %rax,-0xc80(%rbp)
    ca36:	48 8d 05 47 66 00 00 	lea    0x6647(%rip),%rax        # 13084 <g_230+0x4>
    ca3d:	48 89 85 88 f3 ff ff 	mov    %rax,-0xc78(%rbp)
    ca44:	48 8d 85 80 f0 ff ff 	lea    -0xf80(%rbp),%rax
    ca4b:	48 83 c0 1c          	add    $0x1c,%rax
    ca4f:	48 89 85 90 f3 ff ff 	mov    %rax,-0xc70(%rbp)
    ca56:	48 c7 85 98 f3 ff ff 	movq   $0x0,-0xc68(%rbp)
    ca5d:	00 00 00 00 
    ca61:	48 8d 05 18 66 00 00 	lea    0x6618(%rip),%rax        # 13080 <g_230>
    ca68:	48 89 85 a0 f3 ff ff 	mov    %rax,-0xc60(%rbp)
    ca6f:	48 8d 05 0e 66 00 00 	lea    0x660e(%rip),%rax        # 13084 <g_230+0x4>
    ca76:	48 89 85 a8 f3 ff ff 	mov    %rax,-0xc58(%rbp)
    ca7d:	48 c7 85 b0 f3 ff ff 	movq   $0x0,-0xc50(%rbp)
    ca84:	00 00 00 00 
    ca88:	48 8d 05 09 66 00 00 	lea    0x6609(%rip),%rax        # 13098 <g_230+0x18>
    ca8f:	48 89 85 b8 f3 ff ff 	mov    %rax,-0xc48(%rbp)
    ca96:	48 8d 85 80 f0 ff ff 	lea    -0xf80(%rbp),%rax
    ca9d:	48 83 c0 1c          	add    $0x1c,%rax
    caa1:	48 89 85 c0 f3 ff ff 	mov    %rax,-0xc40(%rbp)
    caa8:	48 8d 05 f1 65 00 00 	lea    0x65f1(%rip),%rax        # 130a0 <g_230+0x20>
    caaf:	48 89 85 c8 f3 ff ff 	mov    %rax,-0xc38(%rbp)
    cab6:	48 8d 05 af 65 00 00 	lea    0x65af(%rip),%rax        # 1306c <g_228>
    cabd:	48 89 85 d0 f3 ff ff 	mov    %rax,-0xc30(%rbp)
    cac4:	48 8d 85 80 f0 ff ff 	lea    -0xf80(%rbp),%rax
    cacb:	48 83 c0 1c          	add    $0x1c,%rax
    cacf:	48 89 85 d8 f3 ff ff 	mov    %rax,-0xc28(%rbp)
    cad6:	48 8d 85 80 f0 ff ff 	lea    -0xf80(%rbp),%rax
    cadd:	48 83 c0 1c          	add    $0x1c,%rax
    cae1:	48 89 85 e0 f3 ff ff 	mov    %rax,-0xc20(%rbp)
    cae8:	48 8d 05 35 65 00 00 	lea    0x6535(%rip),%rax        # 13024 <g_9>
    caef:	48 89 85 e8 f3 ff ff 	mov    %rax,-0xc18(%rbp)
    caf6:	48 8d 85 80 f0 ff ff 	lea    -0xf80(%rbp),%rax
    cafd:	48 89 85 f0 f3 ff ff 	mov    %rax,-0xc10(%rbp)
    cb04:	48 8d 05 75 65 00 00 	lea    0x6575(%rip),%rax        # 13080 <g_230>
    cb0b:	48 89 85 f8 f3 ff ff 	mov    %rax,-0xc08(%rbp)
    cb12:	48 8d 85 80 f0 ff ff 	lea    -0xf80(%rbp),%rax
    cb19:	48 83 c0 30          	add    $0x30,%rax
    cb1d:	48 89 85 00 f4 ff ff 	mov    %rax,-0xc00(%rbp)
    cb24:	48 8d 05 f9 64 00 00 	lea    0x64f9(%rip),%rax        # 13024 <g_9>
    cb2b:	48 89 85 08 f4 ff ff 	mov    %rax,-0xbf8(%rbp)
    cb32:	48 8d 05 5b 65 00 00 	lea    0x655b(%rip),%rax        # 13094 <g_230+0x14>
    cb39:	48 89 85 10 f4 ff ff 	mov    %rax,-0xbf0(%rbp)
    cb40:	48 8d 05 25 65 00 00 	lea    0x6525(%rip),%rax        # 1306c <g_228>
    cb47:	48 89 85 18 f4 ff ff 	mov    %rax,-0xbe8(%rbp)
    cb4e:	48 8d 05 f3 64 00 00 	lea    0x64f3(%rip),%rax        # 13048 <g_172>
    cb55:	48 89 85 20 f4 ff ff 	mov    %rax,-0xbe0(%rbp)
    cb5c:	48 c7 85 28 f4 ff ff 	movq   $0x0,-0xbd8(%rbp)
    cb63:	00 00 00 00 
    cb67:	48 8d 05 fe 64 00 00 	lea    0x64fe(%rip),%rax        # 1306c <g_228>
    cb6e:	48 89 85 30 f4 ff ff 	mov    %rax,-0xbd0(%rbp)
    cb75:	48 8d 05 2c 89 00 00 	lea    0x892c(%rip),%rax        # 154a8 <g_7>
    cb7c:	48 89 85 38 f4 ff ff 	mov    %rax,-0xbc8(%rbp)
    cb83:	48 8d 05 9a 64 00 00 	lea    0x649a(%rip),%rax        # 13024 <g_9>
    cb8a:	48 89 85 40 f4 ff ff 	mov    %rax,-0xbc0(%rbp)
    cb91:	48 8d 05 8c 64 00 00 	lea    0x648c(%rip),%rax        # 13024 <g_9>
    cb98:	48 89 85 48 f4 ff ff 	mov    %rax,-0xbb8(%rbp)
    cb9f:	48 c7 85 50 f4 ff ff 	movq   $0x0,-0xbb0(%rbp)
    cba6:	00 00 00 00 
    cbaa:	48 8d 05 ef 64 00 00 	lea    0x64ef(%rip),%rax        # 130a0 <g_230+0x20>
    cbb1:	48 89 85 58 f4 ff ff 	mov    %rax,-0xba8(%rbp)
    cbb8:	48 8d 05 c1 64 00 00 	lea    0x64c1(%rip),%rax        # 13080 <g_230>
    cbbf:	48 89 85 60 f4 ff ff 	mov    %rax,-0xba0(%rbp)
    cbc6:	48 8d 05 cb 64 00 00 	lea    0x64cb(%rip),%rax        # 13098 <g_230+0x18>
    cbcd:	48 89 85 68 f4 ff ff 	mov    %rax,-0xb98(%rbp)
    cbd4:	48 8d 05 a5 64 00 00 	lea    0x64a5(%rip),%rax        # 13080 <g_230>
    cbdb:	48 89 85 70 f4 ff ff 	mov    %rax,-0xb90(%rbp)
    cbe2:	48 8d 05 3b 64 00 00 	lea    0x643b(%rip),%rax        # 13024 <g_9>
    cbe9:	48 89 85 78 f4 ff ff 	mov    %rax,-0xb88(%rbp)
    cbf0:	48 8d 05 2d 64 00 00 	lea    0x642d(%rip),%rax        # 13024 <g_9>
    cbf7:	48 89 85 80 f4 ff ff 	mov    %rax,-0xb80(%rbp)
    cbfe:	48 8d 05 7b 64 00 00 	lea    0x647b(%rip),%rax        # 13080 <g_230>
    cc05:	48 89 85 88 f4 ff ff 	mov    %rax,-0xb78(%rbp)
    cc0c:	48 c7 85 90 f4 ff ff 	movq   $0x0,-0xb70(%rbp)
    cc13:	00 00 00 00 
    cc17:	48 8d 85 80 f0 ff ff 	lea    -0xf80(%rbp),%rax
    cc1e:	48 83 c0 1c          	add    $0x1c,%rax
    cc22:	48 89 85 98 f4 ff ff 	mov    %rax,-0xb68(%rbp)
    cc29:	48 8d 05 f4 63 00 00 	lea    0x63f4(%rip),%rax        # 13024 <g_9>
    cc30:	48 89 85 a0 f4 ff ff 	mov    %rax,-0xb60(%rbp)
    cc37:	48 8d 05 62 64 00 00 	lea    0x6462(%rip),%rax        # 130a0 <g_230+0x20>
    cc3e:	48 89 85 a8 f4 ff ff 	mov    %rax,-0xb58(%rbp)
    cc45:	48 c7 85 b0 f4 ff ff 	movq   $0x0,-0xb50(%rbp)
    cc4c:	00 00 00 00 
    cc50:	48 8d 05 29 64 00 00 	lea    0x6429(%rip),%rax        # 13080 <g_230>
    cc57:	48 89 85 b8 f4 ff ff 	mov    %rax,-0xb48(%rbp)
    cc5e:	48 8d 05 bf 63 00 00 	lea    0x63bf(%rip),%rax        # 13024 <g_9>
    cc65:	48 89 85 c0 f4 ff ff 	mov    %rax,-0xb40(%rbp)
    cc6c:	48 c7 85 c8 f4 ff ff 	movq   $0x0,-0xb38(%rbp)
    cc73:	00 00 00 00 
    cc77:	48 8d 05 02 64 00 00 	lea    0x6402(%rip),%rax        # 13080 <g_230>
    cc7e:	48 89 85 d0 f4 ff ff 	mov    %rax,-0xb30(%rbp)
    cc85:	48 8d 05 f4 63 00 00 	lea    0x63f4(%rip),%rax        # 13080 <g_230>
    cc8c:	48 89 85 d8 f4 ff ff 	mov    %rax,-0xb28(%rbp)
    cc93:	48 8d 85 80 f0 ff ff 	lea    -0xf80(%rbp),%rax
    cc9a:	48 83 c0 1c          	add    $0x1c,%rax
    cc9e:	48 89 85 e0 f4 ff ff 	mov    %rax,-0xb20(%rbp)
    cca5:	48 8d 05 f4 63 00 00 	lea    0x63f4(%rip),%rax        # 130a0 <g_230+0x20>
    ccac:	48 89 85 e8 f4 ff ff 	mov    %rax,-0xb18(%rbp)
    ccb3:	48 8d 05 c6 63 00 00 	lea    0x63c6(%rip),%rax        # 13080 <g_230>
    ccba:	48 89 85 f0 f4 ff ff 	mov    %rax,-0xb10(%rbp)
    ccc1:	48 c7 85 f8 f4 ff ff 	movq   $0x0,-0xb08(%rbp)
    ccc8:	00 00 00 00 
    cccc:	48 8d 05 ad 63 00 00 	lea    0x63ad(%rip),%rax        # 13080 <g_230>
    ccd3:	48 89 85 00 f5 ff ff 	mov    %rax,-0xb00(%rbp)
    ccda:	48 c7 85 08 f5 ff ff 	movq   $0x0,-0xaf8(%rbp)
    cce1:	00 00 00 00 
    cce5:	48 8d 05 a8 63 00 00 	lea    0x63a8(%rip),%rax        # 13094 <g_230+0x14>
    ccec:	48 89 85 10 f5 ff ff 	mov    %rax,-0xaf0(%rbp)
    ccf3:	48 8d 05 4e 63 00 00 	lea    0x634e(%rip),%rax        # 13048 <g_172>
    ccfa:	48 89 85 18 f5 ff ff 	mov    %rax,-0xae8(%rbp)
    cd01:	48 8d 05 40 63 00 00 	lea    0x6340(%rip),%rax        # 13048 <g_172>
    cd08:	48 89 85 20 f5 ff ff 	mov    %rax,-0xae0(%rbp)
    cd0f:	48 8d 05 7e 63 00 00 	lea    0x637e(%rip),%rax        # 13094 <g_230+0x14>
    cd16:	48 89 85 28 f5 ff ff 	mov    %rax,-0xad8(%rbp)
    cd1d:	48 8d 05 6c 63 00 00 	lea    0x636c(%rip),%rax        # 13090 <g_230+0x10>
    cd24:	48 89 85 30 f5 ff ff 	mov    %rax,-0xad0(%rbp)
    cd2b:	48 8d 05 4e 63 00 00 	lea    0x634e(%rip),%rax        # 13080 <g_230>
    cd32:	48 89 85 38 f5 ff ff 	mov    %rax,-0xac8(%rbp)
    cd39:	48 c7 85 40 f5 ff ff 	movq   $0x0,-0xac0(%rbp)
    cd40:	00 00 00 00 
    cd44:	48 8d 05 35 63 00 00 	lea    0x6335(%rip),%rax        # 13080 <g_230>
    cd4b:	48 89 85 48 f5 ff ff 	mov    %rax,-0xab8(%rbp)
    cd52:	48 c7 85 50 f5 ff ff 	movq   $0x0,-0xab0(%rbp)
    cd59:	00 00 00 00 
    cd5d:	48 8d 85 80 f0 ff ff 	lea    -0xf80(%rbp),%rax
    cd64:	48 83 c0 1c          	add    $0x1c,%rax
    cd68:	48 89 85 58 f5 ff ff 	mov    %rax,-0xaa8(%rbp)
    cd6f:	48 c7 85 60 f5 ff ff 	movq   $0x0,-0xaa0(%rbp)
    cd76:	00 00 00 00 
    cd7a:	48 8d 05 a3 62 00 00 	lea    0x62a3(%rip),%rax        # 13024 <g_9>
    cd81:	48 89 85 68 f5 ff ff 	mov    %rax,-0xa98(%rbp)
    cd88:	48 c7 85 70 f5 ff ff 	movq   $0x0,-0xa90(%rbp)
    cd8f:	00 00 00 00 
    cd93:	48 8d 05 8a 62 00 00 	lea    0x628a(%rip),%rax        # 13024 <g_9>
    cd9a:	48 89 85 78 f5 ff ff 	mov    %rax,-0xa88(%rbp)
    cda1:	48 8d 05 7c 62 00 00 	lea    0x627c(%rip),%rax        # 13024 <g_9>
    cda8:	48 89 85 80 f5 ff ff 	mov    %rax,-0xa80(%rbp)
    cdaf:	48 c7 85 88 f5 ff ff 	movq   $0x0,-0xa78(%rbp)
    cdb6:	00 00 00 00 
    cdba:	48 c7 85 90 f5 ff ff 	movq   $0x0,-0xa70(%rbp)
    cdc1:	00 00 00 00 
    cdc5:	48 c7 85 98 f5 ff ff 	movq   $0x0,-0xa68(%rbp)
    cdcc:	00 00 00 00 
    cdd0:	48 8d 85 80 f0 ff ff 	lea    -0xf80(%rbp),%rax
    cdd7:	48 83 c0 1c          	add    $0x1c,%rax
    cddb:	48 89 85 a0 f5 ff ff 	mov    %rax,-0xa60(%rbp)
    cde2:	48 8d 85 80 f0 ff ff 	lea    -0xf80(%rbp),%rax
    cde9:	48 83 c0 08          	add    $0x8,%rax
    cded:	48 89 85 a8 f5 ff ff 	mov    %rax,-0xa58(%rbp)
    cdf4:	48 8d 05 29 62 00 00 	lea    0x6229(%rip),%rax        # 13024 <g_9>
    cdfb:	48 89 85 b0 f5 ff ff 	mov    %rax,-0xa50(%rbp)
    ce02:	48 8d 05 1b 62 00 00 	lea    0x621b(%rip),%rax        # 13024 <g_9>
    ce09:	48 89 85 b8 f5 ff ff 	mov    %rax,-0xa48(%rbp)
    ce10:	48 8d 05 69 62 00 00 	lea    0x6269(%rip),%rax        # 13080 <g_230>
    ce17:	48 89 85 c0 f5 ff ff 	mov    %rax,-0xa40(%rbp)
    ce1e:	48 8d 05 ff 61 00 00 	lea    0x61ff(%rip),%rax        # 13024 <g_9>
    ce25:	48 89 85 c8 f5 ff ff 	mov    %rax,-0xa38(%rbp)
    ce2c:	48 8d 05 65 62 00 00 	lea    0x6265(%rip),%rax        # 13098 <g_230+0x18>
    ce33:	48 89 85 d0 f5 ff ff 	mov    %rax,-0xa30(%rbp)
    ce3a:	48 c7 85 d8 f5 ff ff 	movq   $0x0,-0xa28(%rbp)
    ce41:	00 00 00 00 
    ce45:	48 c7 85 e0 f5 ff ff 	movq   $0x0,-0xa20(%rbp)
    ce4c:	00 00 00 00 
    ce50:	48 c7 85 e8 f5 ff ff 	movq   $0x0,-0xa18(%rbp)
    ce57:	00 00 00 00 
    ce5b:	48 c7 85 f0 f5 ff ff 	movq   $0x0,-0xa10(%rbp)
    ce62:	00 00 00 00 
    ce66:	48 8d 05 13 62 00 00 	lea    0x6213(%rip),%rax        # 13080 <g_230>
    ce6d:	48 89 85 f8 f5 ff ff 	mov    %rax,-0xa08(%rbp)
    ce74:	48 8d 85 80 f0 ff ff 	lea    -0xf80(%rbp),%rax
    ce7b:	48 83 c0 1c          	add    $0x1c,%rax
    ce7f:	48 89 85 00 f6 ff ff 	mov    %rax,-0xa00(%rbp)
    ce86:	48 8d 05 1b 86 00 00 	lea    0x861b(%rip),%rax        # 154a8 <g_7>
    ce8d:	48 89 85 08 f6 ff ff 	mov    %rax,-0x9f8(%rbp)
    ce94:	48 8d 05 ad 61 00 00 	lea    0x61ad(%rip),%rax        # 13048 <g_172>
    ce9b:	48 89 85 10 f6 ff ff 	mov    %rax,-0x9f0(%rbp)
    cea2:	48 8d 05 c3 61 00 00 	lea    0x61c3(%rip),%rax        # 1306c <g_228>
    cea9:	48 89 85 18 f6 ff ff 	mov    %rax,-0x9e8(%rbp)
    ceb0:	48 8d 05 f1 85 00 00 	lea    0x85f1(%rip),%rax        # 154a8 <g_7>
    ceb7:	48 89 85 20 f6 ff ff 	mov    %rax,-0x9e0(%rbp)
    cebe:	48 c7 85 28 f6 ff ff 	movq   $0x0,-0x9d8(%rbp)
    cec5:	00 00 00 00 
    cec9:	48 8d 05 b0 61 00 00 	lea    0x61b0(%rip),%rax        # 13080 <g_230>
    ced0:	48 89 85 30 f6 ff ff 	mov    %rax,-0x9d0(%rbp)
    ced7:	48 c7 85 38 f6 ff ff 	movq   $0x0,-0x9c8(%rbp)
    cede:	00 00 00 00 
    cee2:	48 8d 05 97 61 00 00 	lea    0x6197(%rip),%rax        # 13080 <g_230>
    cee9:	48 89 85 40 f6 ff ff 	mov    %rax,-0x9c0(%rbp)
    cef0:	48 c7 85 48 f6 ff ff 	movq   $0x0,-0x9b8(%rbp)
    cef7:	00 00 00 00 
    cefb:	48 c7 85 50 f6 ff ff 	movq   $0x0,-0x9b0(%rbp)
    cf02:	00 00 00 00 
    cf06:	48 8d 05 73 61 00 00 	lea    0x6173(%rip),%rax        # 13080 <g_230>
    cf0d:	48 89 85 58 f6 ff ff 	mov    %rax,-0x9a8(%rbp)
    cf14:	48 8d 05 09 61 00 00 	lea    0x6109(%rip),%rax        # 13024 <g_9>
    cf1b:	48 89 85 60 f6 ff ff 	mov    %rax,-0x9a0(%rbp)
    cf22:	48 8d 05 57 61 00 00 	lea    0x6157(%rip),%rax        # 13080 <g_230>
    cf29:	48 89 85 68 f6 ff ff 	mov    %rax,-0x998(%rbp)
    cf30:	48 8d 05 ed 60 00 00 	lea    0x60ed(%rip),%rax        # 13024 <g_9>
    cf37:	48 89 85 70 f6 ff ff 	mov    %rax,-0x990(%rbp)
    cf3e:	48 8d 05 4f 61 00 00 	lea    0x614f(%rip),%rax        # 13094 <g_230+0x14>
    cf45:	48 89 85 78 f6 ff ff 	mov    %rax,-0x988(%rbp)
    cf4c:	48 8d 85 80 f0 ff ff 	lea    -0xf80(%rbp),%rax
    cf53:	48 83 c0 08          	add    $0x8,%rax
    cf57:	48 89 85 80 f6 ff ff 	mov    %rax,-0x980(%rbp)
    cf5e:	48 8d 05 3b 61 00 00 	lea    0x613b(%rip),%rax        # 130a0 <g_230+0x20>
    cf65:	48 89 85 88 f6 ff ff 	mov    %rax,-0x978(%rbp)
    cf6c:	48 c7 85 90 f6 ff ff 	movq   $0x0,-0x970(%rbp)
    cf73:	00 00 00 00 
    cf77:	48 c7 85 98 f6 ff ff 	movq   $0x0,-0x968(%rbp)
    cf7e:	00 00 00 00 
    cf82:	48 c7 85 a0 f6 ff ff 	movq   $0x0,-0x960(%rbp)
    cf89:	00 00 00 00 
    cf8d:	48 8d 05 00 61 00 00 	lea    0x6100(%rip),%rax        # 13094 <g_230+0x14>
    cf94:	48 89 85 a8 f6 ff ff 	mov    %rax,-0x958(%rbp)
    cf9b:	48 8d 05 82 60 00 00 	lea    0x6082(%rip),%rax        # 13024 <g_9>
    cfa2:	48 89 85 b0 f6 ff ff 	mov    %rax,-0x950(%rbp)
    cfa9:	48 8d 05 74 60 00 00 	lea    0x6074(%rip),%rax        # 13024 <g_9>
    cfb0:	48 89 85 b8 f6 ff ff 	mov    %rax,-0x948(%rbp)
    cfb7:	48 8d 05 66 60 00 00 	lea    0x6066(%rip),%rax        # 13024 <g_9>
    cfbe:	48 89 85 c0 f6 ff ff 	mov    %rax,-0x940(%rbp)
    cfc5:	48 c7 85 c8 f6 ff ff 	movq   $0x0,-0x938(%rbp)
    cfcc:	00 00 00 00 
    cfd0:	48 8d 05 a9 60 00 00 	lea    0x60a9(%rip),%rax        # 13080 <g_230>
    cfd7:	48 89 85 d0 f6 ff ff 	mov    %rax,-0x930(%rbp)
    cfde:	48 c7 85 d8 f6 ff ff 	movq   $0x0,-0x928(%rbp)
    cfe5:	00 00 00 00 
    cfe9:	48 8d 05 90 60 00 00 	lea    0x6090(%rip),%rax        # 13080 <g_230>
    cff0:	48 89 85 e0 f6 ff ff 	mov    %rax,-0x920(%rbp)
    cff7:	48 8d 05 26 60 00 00 	lea    0x6026(%rip),%rax        # 13024 <g_9>
    cffe:	48 89 85 e8 f6 ff ff 	mov    %rax,-0x918(%rbp)
    d005:	48 8d 05 74 60 00 00 	lea    0x6074(%rip),%rax        # 13080 <g_230>
    d00c:	48 89 85 f0 f6 ff ff 	mov    %rax,-0x910(%rbp)
    d013:	48 8d 05 76 60 00 00 	lea    0x6076(%rip),%rax        # 13090 <g_230+0x10>
    d01a:	48 89 85 f8 f6 ff ff 	mov    %rax,-0x908(%rbp)
    d021:	48 c7 85 00 f7 ff ff 	movq   $0x0,-0x900(%rbp)
    d028:	00 00 00 00 
    d02c:	48 8d 05 39 60 00 00 	lea    0x6039(%rip),%rax        # 1306c <g_228>
    d033:	48 89 85 08 f7 ff ff 	mov    %rax,-0x8f8(%rbp)
    d03a:	48 8d 05 07 60 00 00 	lea    0x6007(%rip),%rax        # 13048 <g_172>
    d041:	48 89 85 10 f7 ff ff 	mov    %rax,-0x8f0(%rbp)
    d048:	48 c7 85 18 f7 ff ff 	movq   $0x0,-0x8e8(%rbp)
    d04f:	00 00 00 00 
    d053:	48 8d 85 80 f0 ff ff 	lea    -0xf80(%rbp),%rax
    d05a:	48 83 c0 1c          	add    $0x1c,%rax
    d05e:	48 89 85 20 f7 ff ff 	mov    %rax,-0x8e0(%rbp)
    d065:	48 8d 05 14 60 00 00 	lea    0x6014(%rip),%rax        # 13080 <g_230>
    d06c:	48 89 85 28 f7 ff ff 	mov    %rax,-0x8d8(%rbp)
    d073:	48 8d 05 aa 5f 00 00 	lea    0x5faa(%rip),%rax        # 13024 <g_9>
    d07a:	48 89 85 30 f7 ff ff 	mov    %rax,-0x8d0(%rbp)
    d081:	48 c7 85 38 f7 ff ff 	movq   $0x0,-0x8c8(%rbp)
    d088:	00 00 00 00 
    d08c:	48 8d 05 0d 60 00 00 	lea    0x600d(%rip),%rax        # 130a0 <g_230+0x20>
    d093:	48 89 85 40 f7 ff ff 	mov    %rax,-0x8c0(%rbp)
    d09a:	48 8d 05 df 5f 00 00 	lea    0x5fdf(%rip),%rax        # 13080 <g_230>
    d0a1:	48 89 85 48 f7 ff ff 	mov    %rax,-0x8b8(%rbp)
    d0a8:	48 8d 05 e9 5f 00 00 	lea    0x5fe9(%rip),%rax        # 13098 <g_230+0x18>
    d0af:	48 89 85 50 f7 ff ff 	mov    %rax,-0x8b0(%rbp)
    d0b6:	48 8d 05 c3 5f 00 00 	lea    0x5fc3(%rip),%rax        # 13080 <g_230>
    d0bd:	48 89 85 58 f7 ff ff 	mov    %rax,-0x8a8(%rbp)
    d0c4:	48 8d 05 59 5f 00 00 	lea    0x5f59(%rip),%rax        # 13024 <g_9>
    d0cb:	48 89 85 60 f7 ff ff 	mov    %rax,-0x8a0(%rbp)
    d0d2:	48 8d 05 4b 5f 00 00 	lea    0x5f4b(%rip),%rax        # 13024 <g_9>
    d0d9:	48 89 85 68 f7 ff ff 	mov    %rax,-0x898(%rbp)
    d0e0:	48 8d 05 99 5f 00 00 	lea    0x5f99(%rip),%rax        # 13080 <g_230>
    d0e7:	48 89 85 70 f7 ff ff 	mov    %rax,-0x890(%rbp)
    d0ee:	48 c7 85 78 f7 ff ff 	movq   $0x0,-0x888(%rbp)
    d0f5:	00 00 00 00 
    d0f9:	48 8d 85 80 f0 ff ff 	lea    -0xf80(%rbp),%rax
    d100:	48 83 c0 1c          	add    $0x1c,%rax
    d104:	48 89 85 80 f7 ff ff 	mov    %rax,-0x880(%rbp)
    d10b:	48 8d 05 12 5f 00 00 	lea    0x5f12(%rip),%rax        # 13024 <g_9>
    d112:	48 89 85 88 f7 ff ff 	mov    %rax,-0x878(%rbp)
    d119:	48 8d 05 80 5f 00 00 	lea    0x5f80(%rip),%rax        # 130a0 <g_230+0x20>
    d120:	48 89 85 90 f7 ff ff 	mov    %rax,-0x870(%rbp)
    d127:	48 c7 85 98 f7 ff ff 	movq   $0x0,-0x868(%rbp)
    d12e:	00 00 00 00 
    d132:	48 8d 05 47 5f 00 00 	lea    0x5f47(%rip),%rax        # 13080 <g_230>
    d139:	48 89 85 a0 f7 ff ff 	mov    %rax,-0x860(%rbp)
    d140:	48 8d 05 dd 5e 00 00 	lea    0x5edd(%rip),%rax        # 13024 <g_9>
    d147:	48 89 85 a8 f7 ff ff 	mov    %rax,-0x858(%rbp)
    d14e:	48 c7 85 b0 f7 ff ff 	movq   $0x0,-0x850(%rbp)
    d155:	00 00 00 00 
    d159:	48 8d 05 20 5f 00 00 	lea    0x5f20(%rip),%rax        # 13080 <g_230>
    d160:	48 89 85 b8 f7 ff ff 	mov    %rax,-0x848(%rbp)
    d167:	48 8d 05 12 5f 00 00 	lea    0x5f12(%rip),%rax        # 13080 <g_230>
    d16e:	48 89 85 c0 f7 ff ff 	mov    %rax,-0x840(%rbp)
    d175:	48 8d 85 80 f0 ff ff 	lea    -0xf80(%rbp),%rax
    d17c:	48 83 c0 1c          	add    $0x1c,%rax
    d180:	48 89 85 c8 f7 ff ff 	mov    %rax,-0x838(%rbp)
    d187:	48 8d 05 12 5f 00 00 	lea    0x5f12(%rip),%rax        # 130a0 <g_230+0x20>
    d18e:	48 89 85 d0 f7 ff ff 	mov    %rax,-0x830(%rbp)
    d195:	48 8d 05 e4 5e 00 00 	lea    0x5ee4(%rip),%rax        # 13080 <g_230>
    d19c:	48 89 85 d8 f7 ff ff 	mov    %rax,-0x828(%rbp)
    d1a3:	48 c7 85 e0 f7 ff ff 	movq   $0x0,-0x820(%rbp)
    d1aa:	00 00 00 00 
    d1ae:	48 8d 05 cb 5e 00 00 	lea    0x5ecb(%rip),%rax        # 13080 <g_230>
    d1b5:	48 89 85 e8 f7 ff ff 	mov    %rax,-0x818(%rbp)
    d1bc:	48 c7 85 f0 f7 ff ff 	movq   $0x0,-0x810(%rbp)
    d1c3:	00 00 00 00 
    d1c7:	48 8d 05 c6 5e 00 00 	lea    0x5ec6(%rip),%rax        # 13094 <g_230+0x14>
    d1ce:	48 89 85 f8 f7 ff ff 	mov    %rax,-0x808(%rbp)
    d1d5:	48 8d 05 6c 5e 00 00 	lea    0x5e6c(%rip),%rax        # 13048 <g_172>
    d1dc:	48 89 85 00 f8 ff ff 	mov    %rax,-0x800(%rbp)
    d1e3:	48 8d 05 5e 5e 00 00 	lea    0x5e5e(%rip),%rax        # 13048 <g_172>
    d1ea:	48 89 85 08 f8 ff ff 	mov    %rax,-0x7f8(%rbp)
    d1f1:	48 8d 05 9c 5e 00 00 	lea    0x5e9c(%rip),%rax        # 13094 <g_230+0x14>
    d1f8:	48 89 85 10 f8 ff ff 	mov    %rax,-0x7f0(%rbp)
    d1ff:	48 8d 05 8a 5e 00 00 	lea    0x5e8a(%rip),%rax        # 13090 <g_230+0x10>
    d206:	48 89 85 18 f8 ff ff 	mov    %rax,-0x7e8(%rbp)
    d20d:	48 8d 05 6c 5e 00 00 	lea    0x5e6c(%rip),%rax        # 13080 <g_230>
    d214:	48 89 85 20 f8 ff ff 	mov    %rax,-0x7e0(%rbp)
    d21b:	48 c7 85 28 f8 ff ff 	movq   $0x0,-0x7d8(%rbp)
    d222:	00 00 00 00 
    d226:	48 8d 05 53 5e 00 00 	lea    0x5e53(%rip),%rax        # 13080 <g_230>
    d22d:	48 89 85 30 f8 ff ff 	mov    %rax,-0x7d0(%rbp)
    d234:	48 c7 85 38 f8 ff ff 	movq   $0x0,-0x7c8(%rbp)
    d23b:	00 00 00 00 
    d23f:	48 8d 85 80 f0 ff ff 	lea    -0xf80(%rbp),%rax
    d246:	48 83 c0 1c          	add    $0x1c,%rax
    d24a:	48 89 85 40 f8 ff ff 	mov    %rax,-0x7c0(%rbp)
    d251:	48 c7 85 48 f8 ff ff 	movq   $0x0,-0x7b8(%rbp)
    d258:	00 00 00 00 
    d25c:	48 8d 85 c0 f1 ff ff 	lea    -0xe40(%rbp),%rax
    d263:	48 05 60 01 00 00    	add    $0x160,%rax
    d269:	48 89 85 c8 ef ff ff 	mov    %rax,-0x1038(%rbp)
    d270:	48 c7 85 d0 ef ff ff 	movq   $0x1,-0x1030(%rbp)
    d277:	01 00 00 00 
    d27b:	48 c7 85 d8 ef ff ff 	movq   $0x0,-0x1028(%rbp)
    d282:	00 00 00 00 
    d286:	48 8d 05 c7 5d 00 00 	lea    0x5dc7(%rip),%rax        # 13054 <g_217>
    d28d:	48 89 85 e0 ef ff ff 	mov    %rax,-0x1020(%rbp)
    d294:	48 c7 85 e8 ef ff ff 	movq   $0x0,-0x1018(%rbp)
    d29b:	00 00 00 00 
    d29f:	48 8d 05 a6 5d 00 00 	lea    0x5da6(%rip),%rax        # 1304c <g_197>
    d2a6:	48 89 85 f0 ef ff ff 	mov    %rax,-0x1010(%rbp)
    d2ad:	c7 85 90 ef ff ff 9a 	movl   $0x1bd6b79a,-0x1070(%rbp)
    d2b4:	b7 d6 1b 
    d2b7:	48 c7 85 f8 ef ff ff 	movq   $0xfffffffffffffffc,-0x1008(%rbp)
    d2be:	fc ff ff ff 
    d2c2:	48 8d 05 e3 5d 00 00 	lea    0x5de3(%rip),%rax        # 130ac <g_349+0x4>
    d2c9:	48 89 85 00 f0 ff ff 	mov    %rax,-0x1000(%rbp)
    d2d0:	48 8d 85 50 f8 ff ff 	lea    -0x7b0(%rbp),%rax
    d2d7:	48 8d 15 42 64 00 00 	lea    0x6442(%rip),%rdx        # 13720 <g_881+0x648>
    d2de:	b9 f0 00 00 00       	mov    $0xf0,%ecx
    d2e3:	48 89 c7             	mov    %rax,%rdi
    d2e6:	48 89 d6             	mov    %rdx,%rsi
    d2e9:	f3 48 a5             	rep movsq %ds:(%rsi),%es:(%rdi)
    d2ec:	0f b7 05 59 5d 00 00 	movzwl 0x5d59(%rip),%eax        # 1304c <g_197>
    d2f3:	98                   	cwtl   
    d2f4:	48 83 bd b8 ef ff ff 	cmpq   $0x0,-0x1048(%rbp)
    d2fb:	00 
    d2fc:	0f 95 c2             	setne  %dl
    d2ff:	0f b6 d2             	movzbl %dl,%edx
    d302:	21 95 8c ef ff ff    	and    %edx,-0x1074(%rbp)
    d308:	39 85 8c ef ff ff    	cmp    %eax,-0x1074(%rbp)
    d30e:	0f 9c c0             	setl   %al
    d311:	0f b6 d0             	movzbl %al,%edx
    d314:	8b 05 36 5d 00 00    	mov    0x5d36(%rip),%eax        # 13050 <g_216>
    d31a:	85 c0                	test   %eax,%eax
    d31c:	74 25                	je     d343 <func_81+0xd60>
    d31e:	8b 85 a8 f0 ff ff    	mov    -0xf58(%rbp),%eax
    d324:	83 f8 01             	cmp    $0x1,%eax
    d327:	0f 9e c0             	setle  %al
    d32a:	0f b6 c0             	movzbl %al,%eax
    d32d:	31 85 80 ef ff ff    	xor    %eax,-0x1080(%rbp)
    d333:	83 bd 80 ef ff ff 00 	cmpl   $0x0,-0x1080(%rbp)
    d33a:	74 07                	je     d343 <func_81+0xd60>
    d33c:	b8 01 00 00 00       	mov    $0x1,%eax
    d341:	eb 05                	jmp    d348 <func_81+0xd65>
    d343:	b8 00 00 00 00       	mov    $0x0,%eax
    d348:	39 d0                	cmp    %edx,%eax
    d34a:	48 8b 85 c8 ef ff ff 	mov    -0x1038(%rbp),%rax
    d351:	48 c7 00 00 00 00 00 	movq   $0x0,(%rax)
    d358:	66 c7 85 64 ef ff ff 	movw   $0x0,-0x109c(%rbp)
    d35f:	00 00 
    d361:	e9 24 07 00 00       	jmpq   da8a <func_81+0x14a7>
    d366:	c7 85 84 ef ff ff ff 	movl   $0xffffffff,-0x107c(%rbp)
    d36d:	ff ff ff 
    d370:	66 c7 85 7a ef ff ff 	movw   $0x5d11,-0x1086(%rbp)
    d377:	11 5d 
    d379:	c7 85 94 ef ff ff 11 	movl   $0x64130411,-0x106c(%rbp)
    d380:	04 13 64 
    d383:	c7 85 98 ef ff ff 34 	movl   $0x58c68934,-0x1068(%rbp)
    d38a:	89 c6 58 
    d38d:	c7 85 9c ef ff ff 00 	movl   $0x0,-0x1064(%rbp)
    d394:	00 00 00 
    d397:	c7 85 a0 ef ff ff ff 	movl   $0xffffffff,-0x1060(%rbp)
    d39e:	ff ff ff 
    d3a1:	48 c7 85 08 f0 ff ff 	movq   $0x0,-0xff8(%rbp)
    d3a8:	00 00 00 00 
    d3ac:	66 c7 85 7c ef ff ff 	movw   $0x1,-0x1084(%rbp)
    d3b3:	01 00 
    d3b5:	c6 85 79 ef ff ff 58 	movb   $0x58,-0x1087(%rbp)
    d3bc:	c7 85 a4 ef ff ff 1f 	movl   $0x8fb1c91f,-0x105c(%rbp)
    d3c3:	c9 b1 8f 
    d3c6:	c7 85 a8 ef ff ff 99 	movl   $0x493e9099,-0x1058(%rbp)
    d3cd:	90 3e 49 
    d3d0:	c7 85 50 f0 ff ff 04 	movl   $0x4,-0xfb0(%rbp)
    d3d7:	00 00 00 
    d3da:	c7 85 54 f0 ff ff d1 	movl   $0x98bdfed1,-0xfac(%rbp)
    d3e1:	fe bd 98 
    d3e4:	c7 85 58 f0 ff ff d1 	movl   $0x98bdfed1,-0xfa8(%rbp)
    d3eb:	fe bd 98 
    d3ee:	c7 85 5c f0 ff ff 04 	movl   $0x4,-0xfa4(%rbp)
    d3f5:	00 00 00 
    d3f8:	c7 85 60 f0 ff ff 06 	movl   $0x6,-0xfa0(%rbp)
    d3ff:	00 00 00 
    d402:	c7 85 64 f0 ff ff 04 	movl   $0x4,-0xf9c(%rbp)
    d409:	00 00 00 
    d40c:	c7 85 68 f0 ff ff d1 	movl   $0x98bdfed1,-0xf98(%rbp)
    d413:	fe bd 98 
    d416:	c7 85 6c f0 ff ff d1 	movl   $0x98bdfed1,-0xf94(%rbp)
    d41d:	fe bd 98 
    d420:	c7 85 70 f0 ff ff 04 	movl   $0x4,-0xf90(%rbp)
    d427:	00 00 00 
    d42a:	c7 85 74 f0 ff ff 06 	movl   $0x6,-0xf8c(%rbp)
    d431:	00 00 00 
    d434:	48 b8 87 11 2d e6 b2 	movabs $0xe8996ab2e62d1187,%rax
    d43b:	6a 99 e8 
    d43e:	48 89 85 10 f0 ff ff 	mov    %rax,-0xff0(%rbp)
    d445:	c7 85 80 ef ff ff 01 	movl   $0x1,-0x1080(%rbp)
    d44c:	00 00 00 
    d44f:	e9 d4 05 00 00       	jmpq   da28 <func_81+0x1445>
    d454:	c6 85 78 ef ff ff 1b 	movb   $0x1b,-0x1088(%rbp)
    d45b:	c7 85 ac ef ff ff 00 	movl   $0x0,-0x1054(%rbp)
    d462:	00 00 00 
    d465:	48 8d 05 44 80 00 00 	lea    0x8044(%rip),%rax        # 154b0 <g_152>
    d46c:	48 89 85 18 f0 ff ff 	mov    %rax,-0xfe8(%rbp)
    d473:	48 8d 05 c2 5b 00 00 	lea    0x5bc2(%rip),%rax        # 1303c <g_140>
    d47a:	48 89 85 20 f0 ff ff 	mov    %rax,-0xfe0(%rbp)
    d481:	48 8d 85 78 ef ff ff 	lea    -0x1088(%rbp),%rax
    d488:	48 89 85 28 f0 ff ff 	mov    %rax,-0xfd8(%rbp)
    d48f:	48 8d 05 96 5b 00 00 	lea    0x5b96(%rip),%rax        # 1302c <g_35>
    d496:	48 89 85 30 f0 ff ff 	mov    %rax,-0xfd0(%rbp)
    d49d:	c7 85 88 ef ff ff 00 	movl   $0x0,-0x1078(%rbp)
    d4a4:	00 00 00 
    d4a7:	eb 1a                	jmp    d4c3 <func_81+0xee0>
    d4a9:	8b 85 88 ef ff ff    	mov    -0x1078(%rbp),%eax
    d4af:	48 98                	cltq   
    d4b1:	c7 84 85 4c f0 ff ff 	movl   $0x6909606a,-0xfb4(%rbp,%rax,4)
    d4b8:	6a 60 09 69 
    d4bc:	83 85 88 ef ff ff 01 	addl   $0x1,-0x1078(%rbp)
    d4c3:	83 bd 88 ef ff ff 00 	cmpl   $0x0,-0x1078(%rbp)
    d4ca:	7e dd                	jle    d4a9 <func_81+0xec6>
    d4cc:	c7 05 72 5b 00 00 02 	movl   $0x2,0x5b72(%rip)        # 13048 <g_172>
    d4d3:	00 00 00 
    d4d6:	e9 d4 04 00 00       	jmpq   d9af <func_81+0x13cc>
    d4db:	c7 85 b0 ef ff ff e0 	movl   $0x23f4bae0,-0x1050(%rbp)
    d4e2:	ba f4 23 
    d4e5:	48 8d 05 c4 7f 00 00 	lea    0x7fc4(%rip),%rax        # 154b0 <g_152>
    d4ec:	48 89 85 38 f0 ff ff 	mov    %rax,-0xfc8(%rbp)
    d4f3:	48 8d 05 3e 5b 00 00 	lea    0x5b3e(%rip),%rax        # 13038 <g_110>
    d4fa:	48 89 85 40 f0 ff ff 	mov    %rax,-0xfc0(%rbp)
    d501:	c7 85 c0 f0 ff ff 8c 	movl   $0xda117f8c,-0xf40(%rbp)
    d508:	7f 11 da 
    d50b:	c7 85 c4 f0 ff ff 8c 	movl   $0xda117f8c,-0xf3c(%rbp)
    d512:	7f 11 da 
    d515:	c7 85 c8 f0 ff ff 8c 	movl   $0xda117f8c,-0xf38(%rbp)
    d51c:	7f 11 da 
    d51f:	c7 85 cc f0 ff ff 8c 	movl   $0xda117f8c,-0xf34(%rbp)
    d526:	7f 11 da 
    d529:	c7 85 d0 f0 ff ff 8c 	movl   $0xda117f8c,-0xf30(%rbp)
    d530:	7f 11 da 
    d533:	c7 85 d4 f0 ff ff 8c 	movl   $0xda117f8c,-0xf2c(%rbp)
    d53a:	7f 11 da 
    d53d:	c7 85 d8 f0 ff ff 8c 	movl   $0xda117f8c,-0xf28(%rbp)
    d544:	7f 11 da 
    d547:	c7 85 dc f0 ff ff 8c 	movl   $0xda117f8c,-0xf24(%rbp)
    d54e:	7f 11 da 
    d551:	c7 85 e0 f0 ff ff 8c 	movl   $0xda117f8c,-0xf20(%rbp)
    d558:	7f 11 da 
    d55b:	c7 85 e4 f0 ff ff 8c 	movl   $0xda117f8c,-0xf1c(%rbp)
    d562:	7f 11 da 
    d565:	c7 85 e8 f0 ff ff 8c 	movl   $0xda117f8c,-0xf18(%rbp)
    d56c:	7f 11 da 
    d56f:	c7 85 ec f0 ff ff 8c 	movl   $0xda117f8c,-0xf14(%rbp)
    d576:	7f 11 da 
    d579:	c7 85 f0 f0 ff ff 8c 	movl   $0xda117f8c,-0xf10(%rbp)
    d580:	7f 11 da 
    d583:	c7 85 f4 f0 ff ff 8c 	movl   $0xda117f8c,-0xf0c(%rbp)
    d58a:	7f 11 da 
    d58d:	c7 85 f8 f0 ff ff 8c 	movl   $0xda117f8c,-0xf08(%rbp)
    d594:	7f 11 da 
    d597:	c7 85 fc f0 ff ff 8c 	movl   $0xda117f8c,-0xf04(%rbp)
    d59e:	7f 11 da 
    d5a1:	c7 85 00 f1 ff ff 8c 	movl   $0xda117f8c,-0xf00(%rbp)
    d5a8:	7f 11 da 
    d5ab:	c7 85 04 f1 ff ff 8c 	movl   $0xda117f8c,-0xefc(%rbp)
    d5b2:	7f 11 da 
    d5b5:	c7 85 08 f1 ff ff 8c 	movl   $0xda117f8c,-0xef8(%rbp)
    d5bc:	7f 11 da 
    d5bf:	c7 85 0c f1 ff ff 8c 	movl   $0xda117f8c,-0xef4(%rbp)
    d5c6:	7f 11 da 
    d5c9:	c7 85 10 f1 ff ff 8c 	movl   $0xda117f8c,-0xef0(%rbp)
    d5d0:	7f 11 da 
    d5d3:	c7 85 14 f1 ff ff 8c 	movl   $0xda117f8c,-0xeec(%rbp)
    d5da:	7f 11 da 
    d5dd:	c7 85 18 f1 ff ff 8c 	movl   $0xda117f8c,-0xee8(%rbp)
    d5e4:	7f 11 da 
    d5e7:	c7 85 1c f1 ff ff 8c 	movl   $0xda117f8c,-0xee4(%rbp)
    d5ee:	7f 11 da 
    d5f1:	c7 85 20 f1 ff ff 8c 	movl   $0xda117f8c,-0xee0(%rbp)
    d5f8:	7f 11 da 
    d5fb:	c7 85 24 f1 ff ff 8c 	movl   $0xda117f8c,-0xedc(%rbp)
    d602:	7f 11 da 
    d605:	c7 85 28 f1 ff ff 8c 	movl   $0xda117f8c,-0xed8(%rbp)
    d60c:	7f 11 da 
    d60f:	c7 85 2c f1 ff ff 8c 	movl   $0xda117f8c,-0xed4(%rbp)
    d616:	7f 11 da 
    d619:	c7 85 30 f1 ff ff 8c 	movl   $0xda117f8c,-0xed0(%rbp)
    d620:	7f 11 da 
    d623:	c7 85 34 f1 ff ff 8c 	movl   $0xda117f8c,-0xecc(%rbp)
    d62a:	7f 11 da 
    d62d:	c7 85 38 f1 ff ff 8c 	movl   $0xda117f8c,-0xec8(%rbp)
    d634:	7f 11 da 
    d637:	c7 85 3c f1 ff ff 8c 	movl   $0xda117f8c,-0xec4(%rbp)
    d63e:	7f 11 da 
    d641:	c7 85 40 f1 ff ff 8c 	movl   $0xda117f8c,-0xec0(%rbp)
    d648:	7f 11 da 
    d64b:	c7 85 44 f1 ff ff 8c 	movl   $0xda117f8c,-0xebc(%rbp)
    d652:	7f 11 da 
    d655:	c7 85 48 f1 ff ff 8c 	movl   $0xda117f8c,-0xeb8(%rbp)
    d65c:	7f 11 da 
    d65f:	c7 85 4c f1 ff ff 8c 	movl   $0xda117f8c,-0xeb4(%rbp)
    d666:	7f 11 da 
    d669:	c7 85 50 f1 ff ff 8c 	movl   $0xda117f8c,-0xeb0(%rbp)
    d670:	7f 11 da 
    d673:	c7 85 54 f1 ff ff 8c 	movl   $0xda117f8c,-0xeac(%rbp)
    d67a:	7f 11 da 
    d67d:	c7 85 58 f1 ff ff 8c 	movl   $0xda117f8c,-0xea8(%rbp)
    d684:	7f 11 da 
    d687:	c7 85 5c f1 ff ff 8c 	movl   $0xda117f8c,-0xea4(%rbp)
    d68e:	7f 11 da 
    d691:	c7 85 60 f1 ff ff 8c 	movl   $0xda117f8c,-0xea0(%rbp)
    d698:	7f 11 da 
    d69b:	c7 85 64 f1 ff ff 8c 	movl   $0xda117f8c,-0xe9c(%rbp)
    d6a2:	7f 11 da 
    d6a5:	c7 85 68 f1 ff ff 8c 	movl   $0xda117f8c,-0xe98(%rbp)
    d6ac:	7f 11 da 
    d6af:	c7 85 6c f1 ff ff 8c 	movl   $0xda117f8c,-0xe94(%rbp)
    d6b6:	7f 11 da 
    d6b9:	c7 85 70 f1 ff ff 8c 	movl   $0xda117f8c,-0xe90(%rbp)
    d6c0:	7f 11 da 
    d6c3:	c7 85 74 f1 ff ff 8c 	movl   $0xda117f8c,-0xe8c(%rbp)
    d6ca:	7f 11 da 
    d6cd:	c7 85 78 f1 ff ff 8c 	movl   $0xda117f8c,-0xe88(%rbp)
    d6d4:	7f 11 da 
    d6d7:	c7 85 7c f1 ff ff 8c 	movl   $0xda117f8c,-0xe84(%rbp)
    d6de:	7f 11 da 
    d6e1:	c7 85 80 f1 ff ff 8c 	movl   $0xda117f8c,-0xe80(%rbp)
    d6e8:	7f 11 da 
    d6eb:	c7 85 84 f1 ff ff 8c 	movl   $0xda117f8c,-0xe7c(%rbp)
    d6f2:	7f 11 da 
    d6f5:	c7 85 88 f1 ff ff 8c 	movl   $0xda117f8c,-0xe78(%rbp)
    d6fc:	7f 11 da 
    d6ff:	c7 85 8c f1 ff ff 8c 	movl   $0xda117f8c,-0xe74(%rbp)
    d706:	7f 11 da 
    d709:	c7 85 90 f1 ff ff 8c 	movl   $0xda117f8c,-0xe70(%rbp)
    d710:	7f 11 da 
    d713:	c7 85 94 f1 ff ff 8c 	movl   $0xda117f8c,-0xe6c(%rbp)
    d71a:	7f 11 da 
    d71d:	c7 85 98 f1 ff ff 8c 	movl   $0xda117f8c,-0xe68(%rbp)
    d724:	7f 11 da 
    d727:	c7 85 9c f1 ff ff 8c 	movl   $0xda117f8c,-0xe64(%rbp)
    d72e:	7f 11 da 
    d731:	c7 85 a0 f1 ff ff 8c 	movl   $0xda117f8c,-0xe60(%rbp)
    d738:	7f 11 da 
    d73b:	c7 85 a4 f1 ff ff 8c 	movl   $0xda117f8c,-0xe5c(%rbp)
    d742:	7f 11 da 
    d745:	c7 85 a8 f1 ff ff 8c 	movl   $0xda117f8c,-0xe58(%rbp)
    d74c:	7f 11 da 
    d74f:	c7 85 ac f1 ff ff 8c 	movl   $0xda117f8c,-0xe54(%rbp)
    d756:	7f 11 da 
    d759:	c7 85 b0 f1 ff ff 8c 	movl   $0xda117f8c,-0xe50(%rbp)
    d760:	7f 11 da 
    d763:	c7 85 b4 f1 ff ff 8c 	movl   $0xda117f8c,-0xe4c(%rbp)
    d76a:	7f 11 da 
    d76d:	c7 85 b8 f1 ff ff 8c 	movl   $0xda117f8c,-0xe48(%rbp)
    d774:	7f 11 da 
    d777:	c7 85 bc f1 ff ff 8c 	movl   $0xda117f8c,-0xe44(%rbp)
    d77e:	7f 11 da 
    d781:	66 c7 85 7e ef ff ff 	movw   $0xb15d,-0x1082(%rbp)
    d788:	5d b1 
    d78a:	c7 05 d8 58 00 00 01 	movl   $0x1,0x58d8(%rip)        # 1306c <g_228>
    d791:	00 00 00 
    d794:	90                   	nop
    d795:	8b 05 d1 58 00 00    	mov    0x58d1(%rip),%eax        # 1306c <g_228>
    d79b:	85 c0                	test   %eax,%eax
    d79d:	0f 88 f5 01 00 00    	js     d998 <func_81+0x13b5>
    d7a3:	c7 85 b4 ef ff ff 01 	movl   $0x1,-0x104c(%rbp)
    d7aa:	00 00 00 
    d7ad:	c7 05 f1 7c 00 00 00 	movl   $0x0,0x7cf1(%rip)        # 154a8 <g_7>
    d7b4:	00 00 00 
    d7b7:	e9 c1 01 00 00       	jmpq   d97d <func_81+0x139a>
    d7bc:	8b 05 8e 58 00 00    	mov    0x588e(%rip),%eax        # 13050 <g_216>
    d7c2:	0f bf d8             	movswl %ax,%ebx
    d7c5:	8b 85 60 ef ff ff    	mov    -0x10a0(%rbp),%eax
    d7cb:	44 0f b7 e0          	movzwl %ax,%r12d
    d7cf:	8b 85 84 ef ff ff    	mov    -0x107c(%rbp),%eax
    d7d5:	44 0f b6 e8          	movzbl %al,%r13d
    d7d9:	8b 05 4d 58 00 00    	mov    0x584d(%rip),%eax        # 1302c <g_35>
    d7df:	44 0f b7 f0          	movzwl %ax,%r14d
    d7e3:	83 bd 84 ef ff ff 00 	cmpl   $0x0,-0x107c(%rbp)
    d7ea:	74 6b                	je     d857 <func_81+0x1274>
    d7ec:	8b 85 b4 ef ff ff    	mov    -0x104c(%rbp),%eax
    d7f2:	0f bf d0             	movswl %ax,%edx
    d7f5:	48 8d 05 b4 7c 00 00 	lea    0x7cb4(%rip),%rax        # 154b0 <g_152>
    d7fc:	48 39 85 38 f0 ff ff 	cmp    %rax,-0xfc8(%rbp)
    d803:	0f 95 c0             	setne  %al
    d806:	0f b6 c0             	movzbl %al,%eax
    d809:	89 d6                	mov    %edx,%esi
    d80b:	89 c7                	mov    %eax,%edi
    d80d:	e8 e3 8b ff ff       	callq  63f5 <safe_mul_func_int16_t_s_s>
    d812:	66 c7 85 7a ef ff ff 	movw   $0x0,-0x1086(%rbp)
    d819:	00 00 
    d81b:	48 8d 85 5c ef ff ff 	lea    -0x10a4(%rbp),%rax
    d822:	48 39 85 40 f0 ff ff 	cmp    %rax,-0xfc0(%rbp)
    d829:	0f 95 c0             	setne  %al
    d82c:	0f b6 d0             	movzbl %al,%edx
    d82f:	48 8b 05 12 6e 00 00 	mov    0x6e12(%rip),%rax        # 14648 <g_143>
    d836:	0f b6 00             	movzbl (%rax),%eax
    d839:	0f b6 c0             	movzbl %al,%eax
    d83c:	89 d6                	mov    %edx,%esi
    d83e:	89 c7                	mov    %eax,%edi
    d840:	e8 33 93 ff ff       	callq  6b78 <safe_sub_func_uint8_t_u_u>
    d845:	0f b6 95 5c ef ff ff 	movzbl -0x10a4(%rbp),%edx
    d84c:	38 d0                	cmp    %dl,%al
    d84e:	74 07                	je     d857 <func_81+0x1274>
    d850:	ba 01 00 00 00       	mov    $0x1,%edx
    d855:	eb 05                	jmp    d85c <func_81+0x1279>
    d857:	ba 00 00 00 00       	mov    $0x0,%edx
    d85c:	0f b7 85 64 ef ff ff 	movzwl -0x109c(%rbp),%eax
    d863:	0f b7 c0             	movzwl %ax,%eax
    d866:	39 c2                	cmp    %eax,%edx
    d868:	0f 9c c0             	setl   %al
    d86b:	0f b6 c0             	movzbl %al,%eax
    d86e:	44 89 f6             	mov    %r14d,%esi
    d871:	89 c7                	mov    %eax,%edi
    d873:	e8 c5 94 ff ff       	callq  6d3d <safe_mul_func_uint16_t_u_u>
    d878:	66 85 c0             	test   %ax,%ax
    d87b:	0f 95 c0             	setne  %al
    d87e:	89 c2                	mov    %eax,%edx
    d880:	8b 85 b0 ef ff ff    	mov    -0x1050(%rbp),%eax
    d886:	31 d0                	xor    %edx,%eax
    d888:	0f b6 c0             	movzbl %al,%eax
    d88b:	44 89 ee             	mov    %r13d,%esi
    d88e:	89 c7                	mov    %eax,%edi
    d890:	e8 19 93 ff ff       	callq  6bae <safe_mod_func_uint8_t_u_u>
    d895:	84 c0                	test   %al,%al
    d897:	75 08                	jne    d8a1 <func_81+0x12be>
    d899:	8b 05 e1 57 00 00    	mov    0x57e1(%rip),%eax        # 13080 <g_230>
    d89f:	85 c0                	test   %eax,%eax
    d8a1:	83 bd 58 ef ff ff 00 	cmpl   $0x0,-0x10a8(%rbp)
    d8a8:	0f 94 c0             	sete   %al
    d8ab:	0f b6 c0             	movzbl %al,%eax
    d8ae:	44 89 e6             	mov    %r12d,%esi
    d8b1:	89 c7                	mov    %eax,%edi
    d8b3:	e8 47 94 ff ff       	callq  6cff <safe_add_func_uint16_t_u_u>
    d8b8:	98                   	cwtl   
    d8b9:	89 de                	mov    %ebx,%esi
    d8bb:	89 c7                	mov    %eax,%edi
    d8bd:	e8 f1 8a ff ff       	callq  63b3 <safe_add_func_int16_t_s_s>
    d8c2:	0f bf d0             	movswl %ax,%edx
    d8c5:	0f b6 85 5c ef ff ff 	movzbl -0x10a4(%rbp),%eax
    d8cc:	0f b6 c0             	movzbl %al,%eax
    d8cf:	39 c2                	cmp    %eax,%edx
    d8d1:	0f b7 85 64 ef ff ff 	movzwl -0x109c(%rbp),%eax
    d8d8:	0f b7 c0             	movzwl %ax,%eax
    d8db:	44 8d 50 04          	lea    0x4(%rax),%r10d
    d8df:	8b 85 80 ef ff ff    	mov    -0x1080(%rbp),%eax
    d8e5:	8d 48 08             	lea    0x8(%rax),%ecx
    d8e8:	8b 05 5a 57 00 00    	mov    0x575a(%rip),%eax        # 13048 <g_172>
    d8ee:	0f b7 95 64 ef ff ff 	movzwl -0x109c(%rbp),%edx
    d8f5:	0f b7 d2             	movzwl %dx,%edx
    d8f8:	44 8d 4a 03          	lea    0x3(%rdx),%r9d
    d8fc:	0f b7 95 64 ef ff ff 	movzwl -0x109c(%rbp),%edx
    d903:	44 0f b7 c2          	movzwl %dx,%r8d
    d907:	0f b7 95 64 ef ff ff 	movzwl -0x109c(%rbp),%edx
    d90e:	0f b7 d2             	movzwl %dx,%edx
    d911:	8d 7a 01             	lea    0x1(%rdx),%edi
    d914:	48 63 f0             	movslq %eax,%rsi
    d917:	49 63 d2             	movslq %r10d,%rdx
    d91a:	48 63 c9             	movslq %ecx,%rcx
    d91d:	48 89 d0             	mov    %rdx,%rax
    d920:	48 c1 e0 04          	shl    $0x4,%rax
    d924:	48 29 d0             	sub    %rdx,%rax
    d927:	48 01 c0             	add    %rax,%rax
    d92a:	48 89 ca             	mov    %rcx,%rdx
    d92d:	48 01 d2             	add    %rdx,%rdx
    d930:	48 01 ca             	add    %rcx,%rdx
    d933:	48 01 d0             	add    %rdx,%rax
    d936:	48 01 f0             	add    %rsi,%rax
    d939:	48 8b b4 c5 c0 f1 ff 	mov    -0xe40(%rbp,%rax,8),%rsi
    d940:	ff 
    d941:	48 63 ff             	movslq %edi,%rdi
    d944:	49 63 d1             	movslq %r9d,%rdx
    d947:	49 63 c8             	movslq %r8d,%rcx
    d94a:	48 89 d0             	mov    %rdx,%rax
    d94d:	48 c1 e0 04          	shl    $0x4,%rax
    d951:	48 29 d0             	sub    %rdx,%rax
    d954:	48 01 c0             	add    %rax,%rax
    d957:	48 89 ca             	mov    %rcx,%rdx
    d95a:	48 01 d2             	add    %rdx,%rdx
    d95d:	48 01 ca             	add    %rcx,%rdx
    d960:	48 01 d0             	add    %rdx,%rax
    d963:	48 01 f8             	add    %rdi,%rax
    d966:	48 89 b4 c5 c0 f1 ff 	mov    %rsi,-0xe40(%rbp,%rax,8)
    d96d:	ff 
    d96e:	8b 05 34 7b 00 00    	mov    0x7b34(%rip),%eax        # 154a8 <g_7>
    d974:	83 c0 01             	add    $0x1,%eax
    d977:	89 05 2b 7b 00 00    	mov    %eax,0x7b2b(%rip)        # 154a8 <g_7>
    d97d:	8b 05 25 7b 00 00    	mov    0x7b25(%rip),%eax        # 154a8 <g_7>
    d983:	83 f8 02             	cmp    $0x2,%eax
    d986:	0f 8e 30 fe ff ff    	jle    d7bc <func_81+0x11d9>
    d98c:	48 8d 05 19 7b 00 00 	lea    0x7b19(%rip),%rax        # 154ac <g_117>
    d993:	e9 1e 01 00 00       	jmpq   dab6 <func_81+0x14d3>
    d998:	66 83 ad 7e ef ff ff 	subw   $0x1,-0x1082(%rbp)
    d99f:	01 
    d9a0:	8b 05 a2 56 00 00    	mov    0x56a2(%rip),%eax        # 13048 <g_172>
    d9a6:	83 e8 01             	sub    $0x1,%eax
    d9a9:	89 05 99 56 00 00    	mov    %eax,0x5699(%rip)        # 13048 <g_172>
    d9af:	8b 05 93 56 00 00    	mov    0x5693(%rip),%eax        # 13048 <g_172>
    d9b5:	85 c0                	test   %eax,%eax
    d9b7:	0f 89 1e fb ff ff    	jns    d4db <func_81+0xef8>
    d9bd:	48 8b 85 30 f0 ff ff 	mov    -0xfd0(%rbp),%rax
    d9c4:	8b 10                	mov    (%rax),%edx
    d9c6:	48 8b 85 08 f0 ff ff 	mov    -0xff8(%rbp),%rax
    d9cd:	48 3b 85 c0 ef ff ff 	cmp    -0x1040(%rbp),%rax
    d9d4:	0f 95 c0             	setne  %al
    d9d7:	0f b6 c8             	movzbl %al,%ecx
    d9da:	0f b7 85 64 ef ff ff 	movzwl -0x109c(%rbp),%eax
    d9e1:	0f b7 c0             	movzwl %ax,%eax
    d9e4:	39 c1                	cmp    %eax,%ecx
    d9e6:	0f 95 c0             	setne  %al
    d9e9:	0f b6 c0             	movzbl %al,%eax
    d9ec:	21 c2                	and    %eax,%edx
    d9ee:	48 8b 85 30 f0 ff ff 	mov    -0xfd0(%rbp),%rax
    d9f5:	89 10                	mov    %edx,(%rax)
    d9f7:	ba 01 00 00 00       	mov    $0x1,%edx
    d9fc:	8b 05 6a 56 00 00    	mov    0x566a(%rip),%eax        # 1306c <g_228>
    da02:	09 d0                	or     %edx,%eax
    da04:	89 05 62 56 00 00    	mov    %eax,0x5662(%rip)        # 1306c <g_228>
    da0a:	83 bd 58 ef ff ff 00 	cmpl   $0x0,-0x10a8(%rbp)
    da11:	74 05                	je     da18 <func_81+0x1435>
    da13:	e9 40 f9 ff ff       	jmpq   d358 <func_81+0xd75>
    da18:	83 bd 94 ef ff ff 00 	cmpl   $0x0,-0x106c(%rbp)
    da1f:	75 16                	jne    da37 <func_81+0x1454>
    da21:	83 ad 80 ef ff ff 01 	subl   $0x1,-0x1080(%rbp)
    da28:	83 bd 80 ef ff ff 00 	cmpl   $0x0,-0x1080(%rbp)
    da2f:	0f 89 1f fa ff ff    	jns    d454 <func_81+0xe71>
    da35:	eb 01                	jmp    da38 <func_81+0x1455>
    da37:	90                   	nop
    da38:	c7 85 84 ef ff ff 0d 	movl   $0xd,-0x107c(%rbp)
    da3f:	00 00 00 
    da42:	eb 21                	jmp    da65 <func_81+0x1482>
    da44:	48 8b 05 15 6c 00 00 	mov    0x6c15(%rip),%rax        # 14660 <g_311>
    da4b:	48 8b 15 06 6c 00 00 	mov    0x6c06(%rip),%rdx        # 14658 <g_309>
    da52:	48 89 10             	mov    %rdx,(%rax)
    da55:	83 bd 84 ef ff ff 00 	cmpl   $0x0,-0x107c(%rbp)
    da5c:	75 12                	jne    da70 <func_81+0x148d>
    da5e:	83 ad 84 ef ff ff 01 	subl   $0x1,-0x107c(%rbp)
    da65:	83 bd 84 ef ff ff e2 	cmpl   $0xffffffe2,-0x107c(%rbp)
    da6c:	7c d6                	jl     da44 <func_81+0x1461>
    da6e:	eb 01                	jmp    da71 <func_81+0x148e>
    da70:	90                   	nop
    da71:	48 83 ad 10 f0 ff ff 	subq   $0x1,-0xff0(%rbp)
    da78:	01 
    da79:	0f b7 85 64 ef ff ff 	movzwl -0x109c(%rbp),%eax
    da80:	83 c0 01             	add    $0x1,%eax
    da83:	66 89 85 64 ef ff ff 	mov    %ax,-0x109c(%rbp)
    da8a:	0f b7 85 64 ef ff ff 	movzwl -0x109c(%rbp),%eax
    da91:	66 83 f8 01          	cmp    $0x1,%ax
    da95:	0f 86 cb f8 ff ff    	jbe    d366 <func_81+0xd83>
    da9b:	48 8b 85 c8 ef ff ff 	mov    -0x1038(%rbp),%rax
    daa2:	48 8b 10             	mov    (%rax),%rdx
    daa5:	48 8b 85 c8 ef ff ff 	mov    -0x1038(%rbp),%rax
    daac:	48 89 10             	mov    %rdx,(%rax)
    daaf:	48 8b 85 88 fd ff ff 	mov    -0x278(%rbp),%rax
    dab6:	48 8b 5d d8          	mov    -0x28(%rbp),%rbx
    daba:	64 48 33 1c 25 28 00 	xor    %fs:0x28,%rbx
    dac1:	00 00 
    dac3:	74 05                	je     daca <func_81+0x14e7>
    dac5:	e8 a6 85 ff ff       	callq  6070 <__stack_chk_fail@plt>
    daca:	48 81 c4 90 10 00 00 	add    $0x1090,%rsp
    dad1:	5b                   	pop    %rbx
    dad2:	41 5c                	pop    %r12
    dad4:	41 5d                	pop    %r13
    dad6:	41 5e                	pop    %r14
    dad8:	5d                   	pop    %rbp
    dad9:	c3                   	retq   

000000000000dada <func_87>:
    dada:	f3 0f 1e fa          	endbr64 
    dade:	55                   	push   %rbp
    dadf:	48 89 e5             	mov    %rsp,%rbp
    dae2:	53                   	push   %rbx
    dae3:	48 83 ec 40          	sub    $0x40,%rsp
    dae7:	89 f8                	mov    %edi,%eax
    dae9:	48 89 75 c8          	mov    %rsi,-0x38(%rbp)
    daed:	89 55 d0             	mov    %edx,-0x30(%rbp)
    daf0:	89 4d c4             	mov    %ecx,-0x3c(%rbp)
    daf3:	4c 89 45 b8          	mov    %r8,-0x48(%rbp)
    daf7:	66 89 45 d4          	mov    %ax,-0x2c(%rbp)
    dafb:	48 c7 45 e8 00 00 00 	movq   $0x0,-0x18(%rbp)
    db02:	00 
    db03:	48 8d 05 56 55 00 00 	lea    0x5556(%rip),%rax        # 13060 <g_225>
    db0a:	48 89 45 f0          	mov    %rax,-0x10(%rbp)
    db0e:	c7 45 e4 f6 ff ff ff 	movl   $0xfffffff6,-0x1c(%rbp)
    db15:	0f b7 45 d4          	movzwl -0x2c(%rbp),%eax
    db19:	48 0f bf d0          	movswq %ax,%rdx
    db1d:	48 8b 45 f0          	mov    -0x10(%rbp),%rax
    db21:	48 89 10             	mov    %rdx,(%rax)
    db24:	48 8b 45 f0          	mov    -0x10(%rbp),%rax
    db28:	48 8b 18             	mov    (%rax),%rbx
    db2b:	8b 45 c4             	mov    -0x3c(%rbp),%eax
    db2e:	98                   	cwtl   
    db2f:	be 0e 00 00 00       	mov    $0xe,%esi
    db34:	89 c7                	mov    %eax,%edi
    db36:	e8 a6 89 ff ff       	callq  64e1 <safe_lshift_func_int16_t_s_u>
    db3b:	48 0f bf c0          	movswq %ax,%rax
    db3f:	48 39 c3             	cmp    %rax,%rbx
    db42:	7e 07                	jle    db4b <func_87+0x71>
    db44:	b8 01 00 00 00       	mov    $0x1,%eax
    db49:	eb 05                	jmp    db50 <func_87+0x76>
    db4b:	b8 00 00 00 00       	mov    $0x0,%eax
    db50:	89 45 e4             	mov    %eax,-0x1c(%rbp)
    db53:	48 8b 45 c8          	mov    -0x38(%rbp),%rax
    db57:	8b 10                	mov    (%rax),%edx
    db59:	48 8b 45 c8          	mov    -0x38(%rbp),%rax
    db5d:	89 10                	mov    %edx,(%rax)
    db5f:	48 8b 05 52 79 00 00 	mov    0x7952(%rip),%rax        # 154b8 <g_243>
    db66:	48 83 c4 40          	add    $0x40,%rsp
    db6a:	5b                   	pop    %rbx
    db6b:	5d                   	pop    %rbp
    db6c:	c3                   	retq   

000000000000db6d <func_93>:
    db6d:	f3 0f 1e fa          	endbr64 
    db71:	55                   	push   %rbp
    db72:	48 89 e5             	mov    %rsp,%rbp
    db75:	41 54                	push   %r12
    db77:	53                   	push   %rbx
    db78:	48 81 ec 50 03 00 00 	sub    $0x350,%rsp
    db7f:	48 89 bd b8 fc ff ff 	mov    %rdi,-0x348(%rbp)
    db86:	48 89 b5 b0 fc ff ff 	mov    %rsi,-0x350(%rbp)
    db8d:	89 95 ac fc ff ff    	mov    %edx,-0x354(%rbp)
    db93:	48 89 8d a0 fc ff ff 	mov    %rcx,-0x360(%rbp)
    db9a:	64 48 8b 04 25 28 00 	mov    %fs:0x28,%rax
    dba1:	00 00 
    dba3:	48 89 45 e8          	mov    %rax,-0x18(%rbp)
    dba7:	31 c0                	xor    %eax,%eax
    dba9:	48 c7 85 60 fd ff ff 	movq   $0x0,-0x2a0(%rbp)
    dbb0:	00 00 00 00 
    dbb4:	48 8d 85 28 fd ff ff 	lea    -0x2d8(%rbp),%rax
    dbbb:	48 89 85 68 fd ff ff 	mov    %rax,-0x298(%rbp)
    dbc2:	48 8d 85 28 fd ff ff 	lea    -0x2d8(%rbp),%rax
    dbc9:	48 89 85 70 fd ff ff 	mov    %rax,-0x290(%rbp)
    dbd0:	48 c7 85 78 fd ff ff 	movq   $0x0,-0x288(%rbp)
    dbd7:	00 00 00 00 
    dbdb:	48 8d 85 28 fd ff ff 	lea    -0x2d8(%rbp),%rax
    dbe2:	48 89 85 80 fd ff ff 	mov    %rax,-0x280(%rbp)
    dbe9:	48 8d 85 28 fd ff ff 	lea    -0x2d8(%rbp),%rax
    dbf0:	48 89 85 88 fd ff ff 	mov    %rax,-0x278(%rbp)
    dbf7:	c7 85 d0 fc ff ff ff 	movl   $0xffffffff,-0x330(%rbp)
    dbfe:	ff ff ff 
    dc01:	c7 45 e1 01 01 01 01 	movl   $0x1010101,-0x1f(%rbp)
    dc08:	66 c7 45 e5 01 01    	movw   $0x101,-0x1b(%rbp)
    dc0e:	c6 45 e7 01          	movb   $0x1,-0x19(%rbp)
    dc12:	c6 85 c3 fc ff ff ab 	movb   $0xab,-0x33d(%rbp)
    dc19:	48 8d 05 28 54 00 00 	lea    0x5428(%rip),%rax        # 13048 <g_172>
    dc20:	48 89 85 90 fd ff ff 	mov    %rax,-0x270(%rbp)
    dc27:	48 8d 05 52 54 00 00 	lea    0x5452(%rip),%rax        # 13080 <g_230>
    dc2e:	48 89 85 98 fd ff ff 	mov    %rax,-0x268(%rbp)
    dc35:	48 8d 05 0c 54 00 00 	lea    0x540c(%rip),%rax        # 13048 <g_172>
    dc3c:	48 89 85 a0 fd ff ff 	mov    %rax,-0x260(%rbp)
    dc43:	48 8d 05 fe 53 00 00 	lea    0x53fe(%rip),%rax        # 13048 <g_172>
    dc4a:	48 89 85 a8 fd ff ff 	mov    %rax,-0x258(%rbp)
    dc51:	48 8d 05 28 54 00 00 	lea    0x5428(%rip),%rax        # 13080 <g_230>
    dc58:	48 89 85 b0 fd ff ff 	mov    %rax,-0x250(%rbp)
    dc5f:	48 8d 05 e2 53 00 00 	lea    0x53e2(%rip),%rax        # 13048 <g_172>
    dc66:	48 89 85 b8 fd ff ff 	mov    %rax,-0x248(%rbp)
    dc6d:	48 8d 05 d4 53 00 00 	lea    0x53d4(%rip),%rax        # 13048 <g_172>
    dc74:	48 89 85 c0 fd ff ff 	mov    %rax,-0x240(%rbp)
    dc7b:	48 8d 05 fe 53 00 00 	lea    0x53fe(%rip),%rax        # 13080 <g_230>
    dc82:	48 89 85 c8 fd ff ff 	mov    %rax,-0x238(%rbp)
    dc89:	48 8d 05 b8 53 00 00 	lea    0x53b8(%rip),%rax        # 13048 <g_172>
    dc90:	48 89 85 d0 fd ff ff 	mov    %rax,-0x230(%rbp)
    dc97:	48 8d 05 e2 53 00 00 	lea    0x53e2(%rip),%rax        # 13080 <g_230>
    dc9e:	48 89 85 f0 fc ff ff 	mov    %rax,-0x310(%rbp)
    dca5:	c7 85 c4 fc ff ff 00 	movl   $0x0,-0x33c(%rbp)
    dcac:	00 00 00 
    dcaf:	eb 1b                	jmp    dccc <func_93+0x15f>
    dcb1:	8b 85 c4 fc ff ff    	mov    -0x33c(%rbp),%eax
    dcb7:	48 98                	cltq   
    dcb9:	48 c7 84 c5 28 fd ff 	movq   $0x0,-0x2d8(%rbp,%rax,8)
    dcc0:	ff 00 00 00 00 
    dcc5:	83 85 c4 fc ff ff 01 	addl   $0x1,-0x33c(%rbp)
    dccc:	83 bd c4 fc ff ff 00 	cmpl   $0x0,-0x33c(%rbp)
    dcd3:	7e dc                	jle    dcb1 <func_93+0x144>
    dcd5:	c7 85 c4 fc ff ff 00 	movl   $0x0,-0x33c(%rbp)
    dcdc:	00 00 00 
    dcdf:	eb 14                	jmp    dcf5 <func_93+0x188>
    dce1:	8b 85 c4 fc ff ff    	mov    -0x33c(%rbp),%eax
    dce7:	48 98                	cltq   
    dce9:	c6 44 05 db eb       	movb   $0xeb,-0x25(%rbp,%rax,1)
    dcee:	83 85 c4 fc ff ff 01 	addl   $0x1,-0x33c(%rbp)
    dcf5:	83 bd c4 fc ff ff 05 	cmpl   $0x5,-0x33c(%rbp)
    dcfc:	7e e3                	jle    dce1 <func_93+0x174>
    dcfe:	48 8b 85 b0 fc ff ff 	mov    -0x350(%rbp),%rax
    dd05:	48 89 05 34 69 00 00 	mov    %rax,0x6934(%rip)        # 14640 <g_8>
    dd0c:	48 8b 95 78 fd ff ff 	mov    -0x288(%rbp),%rdx
    dd13:	48 8d 85 28 fd ff ff 	lea    -0x2d8(%rbp),%rax
    dd1a:	48 39 c2             	cmp    %rax,%rdx
    dd1d:	0f 84 18 02 00 00    	je     df3b <func_93+0x3ce>
    dd23:	48 8d 05 12 53 00 00 	lea    0x5312(%rip),%rax        # 1303c <g_140>
    dd2a:	48 89 85 10 fd ff ff 	mov    %rax,-0x2f0(%rbp)
    dd31:	48 8d 05 00 53 00 00 	lea    0x5300(%rip),%rax        # 13038 <g_110>
    dd38:	48 89 85 18 fd ff ff 	mov    %rax,-0x2e8(%rbp)
    dd3f:	c7 85 e8 fc ff ff 05 	movl   $0x5,-0x318(%rbp)
    dd46:	00 00 00 
    dd49:	c7 85 ec fc ff ff af 	movl   $0x3ebdd5af,-0x314(%rbp)
    dd50:	d5 bd 3e 
    dd53:	48 8d 05 56 77 00 00 	lea    0x7756(%rip),%rax        # 154b0 <g_152>
    dd5a:	48 89 85 20 fd ff ff 	mov    %rax,-0x2e0(%rbp)
    dd61:	8b 85 ac fc ff ff    	mov    -0x354(%rbp),%eax
    dd67:	0f bf d8             	movswl %ax,%ebx
    dd6a:	44 8b a5 e8 fc ff ff 	mov    -0x318(%rbp),%r12d
    dd71:	8b 85 ac fc ff ff    	mov    -0x354(%rbp),%eax
    dd77:	0f b7 c0             	movzwl %ax,%eax
    dd7a:	48 8b 95 18 fd ff ff 	mov    -0x2e8(%rbp),%rdx
    dd81:	0f b6 12             	movzbl (%rdx),%edx
    dd84:	89 d1                	mov    %edx,%ecx
    dd86:	8b 15 a0 52 00 00    	mov    0x52a0(%rip),%edx        # 1302c <g_35>
    dd8c:	85 d2                	test   %edx,%edx
    dd8e:	75 10                	jne    dda0 <func_93+0x233>
    dd90:	48 8d 15 a5 52 00 00 	lea    0x52a5(%rip),%rdx        # 1303c <g_140>
    dd97:	48 39 95 10 fd ff ff 	cmp    %rdx,-0x2f0(%rbp)
    dd9e:	74 07                	je     dda7 <func_93+0x23a>
    dda0:	ba 01 00 00 00       	mov    $0x1,%edx
    dda5:	eb 05                	jmp    ddac <func_93+0x23f>
    dda7:	ba 00 00 00 00       	mov    $0x0,%edx
    ddac:	09 ca                	or     %ecx,%edx
    ddae:	89 d1                	mov    %edx,%ecx
    ddb0:	48 8b 95 18 fd ff ff 	mov    -0x2e8(%rbp),%rdx
    ddb7:	88 0a                	mov    %cl,(%rdx)
    ddb9:	48 8b 95 18 fd ff ff 	mov    -0x2e8(%rbp),%rdx
    ddc0:	0f b6 12             	movzbl (%rdx),%edx
    ddc3:	0f b6 d2             	movzbl %dl,%edx
    ddc6:	39 95 ac fc ff ff    	cmp    %edx,-0x354(%rbp)
    ddcc:	89 c6                	mov    %eax,%esi
    ddce:	bf 00 00 00 00       	mov    $0x0,%edi
    ddd3:	e8 65 8f ff ff       	callq  6d3d <safe_mul_func_uint16_t_u_u>
    ddd8:	44 89 e6             	mov    %r12d,%esi
    dddb:	bf a9 a4 64 ba       	mov    $0xba64a4a9,%edi
    dde0:	e8 49 03 00 00       	callq  e12e <func_98>
    dde5:	48 89 05 5c 68 00 00 	mov    %rax,0x685c(%rip)        # 14648 <g_143>
    ddec:	8b 15 3a 52 00 00    	mov    0x523a(%rip),%edx        # 1302c <g_35>
    ddf2:	8b 05 3c 52 00 00    	mov    0x523c(%rip),%eax        # 13034 <g_72>
    ddf8:	39 c2                	cmp    %eax,%edx
    ddfa:	0f 92 c0             	setb   %al
    ddfd:	0f b6 c0             	movzbl %al,%eax
    de00:	89 de                	mov    %ebx,%esi
    de02:	89 c7                	mov    %eax,%edi
    de04:	e8 0d 86 ff ff       	callq  6416 <safe_mod_func_int16_t_s_s>
    de09:	98                   	cwtl   
    de0a:	ba f2 58 3f 9d       	mov    $0x9d3f58f2,%edx
    de0f:	39 d0                	cmp    %edx,%eax
    de11:	0f 9f c0             	setg   %al
    de14:	0f b6 d8             	movzbl %al,%ebx
    de17:	8b 85 ac fc ff ff    	mov    -0x354(%rbp),%eax
    de1d:	89 c6                	mov    %eax,%esi
    de1f:	bf 63 f1 5b b8       	mov    $0xb85bf163,%edi
    de24:	e8 a7 90 ff ff       	callq  6ed0 <safe_sub_func_uint32_t_u_u>
    de29:	0f be c0             	movsbl %al,%eax
    de2c:	89 de                	mov    %ebx,%esi
    de2e:	89 c7                	mov    %eax,%edi
    de30:	e8 dd 83 ff ff       	callq  6212 <safe_mul_func_int8_t_s_s>
    de35:	8b 05 ed 51 00 00    	mov    0x51ed(%rip),%eax        # 13028 <g_21>
    de3b:	8b 05 e3 51 00 00    	mov    0x51e3(%rip),%eax        # 13024 <g_9>
    de41:	85 c0                	test   %eax,%eax
    de43:	0f 9e c0             	setle  %al
    de46:	0f b6 c0             	movzbl %al,%eax
    de49:	39 85 e8 fc ff ff    	cmp    %eax,-0x318(%rbp)
    de4f:	0f 95 c0             	setne  %al
    de52:	0f b6 c0             	movzbl %al,%eax
    de55:	21 85 ec fc ff ff    	and    %eax,-0x314(%rbp)
    de5b:	48 8b 85 20 fd ff ff 	mov    -0x2e0(%rbp),%rax
    de62:	48 8b 10             	mov    (%rax),%rdx
    de65:	b8 f2 58 3f 9d       	mov    $0x9d3f58f2,%eax
    de6a:	48 98                	cltq   
    de6c:	48 31 c2             	xor    %rax,%rdx
    de6f:	48 8b 85 20 fd ff ff 	mov    -0x2e0(%rbp),%rax
    de76:	48 89 10             	mov    %rdx,(%rax)
    de79:	48 8b 85 20 fd ff ff 	mov    -0x2e0(%rbp),%rax
    de80:	48 8b 00             	mov    (%rax),%rax
    de83:	41 89 c4             	mov    %eax,%r12d
    de86:	48 8b 05 b3 67 00 00 	mov    0x67b3(%rip),%rax        # 14640 <g_8>
    de8d:	8b 00                	mov    (%rax),%eax
    de8f:	23 85 ac fc ff ff    	and    -0x354(%rbp),%eax
    de95:	89 c3                	mov    %eax,%ebx
    de97:	83 bd ac fc ff ff 00 	cmpl   $0x0,-0x354(%rbp)
    de9e:	75 09                	jne    dea9 <func_93+0x33c>
    dea0:	83 bd e8 fc ff ff 00 	cmpl   $0x0,-0x318(%rbp)
    dea7:	74 07                	je     deb0 <func_93+0x343>
    dea9:	b8 01 00 00 00       	mov    $0x1,%eax
    deae:	eb 05                	jmp    deb5 <func_93+0x348>
    deb0:	b8 00 00 00 00       	mov    $0x0,%eax
    deb5:	48 63 d0             	movslq %eax,%rdx
    deb8:	b8 f2 58 3f 9d       	mov    $0x9d3f58f2,%eax
    debd:	85 c0                	test   %eax,%eax
    debf:	0f 9f c0             	setg   %al
    dec2:	0f b6 c0             	movzbl %al,%eax
    dec5:	48 89 d6             	mov    %rdx,%rsi
    dec8:	48 89 c7             	mov    %rax,%rdi
    decb:	e8 e4 8a ff ff       	callq  69b4 <safe_mod_func_int64_t_s_s>
    ded0:	98                   	cwtl   
    ded1:	8b 95 e8 fc ff ff    	mov    -0x318(%rbp),%edx
    ded7:	89 d6                	mov    %edx,%esi
    ded9:	89 c7                	mov    %eax,%edi
    dedb:	e8 b2 85 ff ff       	callq  6492 <safe_lshift_func_int16_t_s_s>
    dee0:	98                   	cwtl   
    dee1:	39 c3                	cmp    %eax,%ebx
    dee3:	0f 9f c0             	setg   %al
    dee6:	0f b6 c0             	movzbl %al,%eax
    dee9:	8b 95 ac fc ff ff    	mov    -0x354(%rbp),%edx
    deef:	89 d6                	mov    %edx,%esi
    def1:	89 c7                	mov    %eax,%edi
    def3:	e8 c6 8e ff ff       	callq  6dbe <safe_lshift_func_uint16_t_u_s>
    def8:	44 09 e0             	or     %r12d,%eax
    defb:	0f b7 c0             	movzwl %ax,%eax
    defe:	89 c6                	mov    %eax,%esi
    df00:	bf 38 ca 00 00       	mov    $0xca38,%edi
    df05:	e8 15 8e ff ff       	callq  6d1f <safe_sub_func_uint16_t_u_u>
    df0a:	98                   	cwtl   
    df0b:	89 c7                	mov    %eax,%edi
    df0d:	e8 8b 84 ff ff       	callq  639d <safe_unary_minus_func_int16_t_s>
    df12:	be 08 00 00 00       	mov    $0x8,%esi
    df17:	bf ff ff ff ff       	mov    $0xffffffff,%edi
    df1c:	e8 09 86 ff ff       	callq  652a <safe_rshift_func_int16_t_s_s>
    df21:	48 0f bf d0          	movswq %ax,%rdx
    df25:	48 8b 05 14 51 00 00 	mov    0x5114(%rip),%rax        # 13040 <g_159>
    df2c:	48 21 d0             	and    %rdx,%rax
    df2f:	48 89 05 0a 51 00 00 	mov    %rax,0x510a(%rip)        # 13040 <g_159>
    df36:	e9 be 01 00 00       	jmpq   e0f9 <func_93+0x58c>
    df3b:	48 8d 05 06 51 00 00 	lea    0x5106(%rip),%rax        # 13048 <g_172>
    df42:	48 89 85 f8 fc ff ff 	mov    %rax,-0x308(%rbp)
    df49:	c7 85 d4 fc ff ff a1 	movl   $0x50c7b6a1,-0x32c(%rbp)
    df50:	b6 c7 50 
    df53:	c7 85 d8 fc ff ff 01 	movl   $0x1,-0x328(%rbp)
    df5a:	00 00 00 
    df5d:	c7 85 dc fc ff ff 00 	movl   $0x0,-0x324(%rbp)
    df64:	00 00 00 
    df67:	48 b8 23 10 66 da 81 	movabs $0xdbd7c481da661023,%rax
    df6e:	c4 d7 db 
    df71:	48 89 85 00 fd ff ff 	mov    %rax,-0x300(%rbp)
    df78:	c7 85 c8 fc ff ff 00 	movl   $0x0,-0x338(%rbp)
    df7f:	00 00 00 
    df82:	eb 1a                	jmp    df9e <func_93+0x431>
    df84:	8b 85 c8 fc ff ff    	mov    -0x338(%rbp),%eax
    df8a:	48 98                	cltq   
    df8c:	c7 84 85 30 fd ff ff 	movl   $0xfffffff8,-0x2d0(%rbp,%rax,4)
    df93:	f8 ff ff ff 
    df97:	83 85 c8 fc ff ff 01 	addl   $0x1,-0x338(%rbp)
    df9e:	83 bd c8 fc ff ff 03 	cmpl   $0x3,-0x338(%rbp)
    dfa5:	7e dd                	jle    df84 <func_93+0x417>
    dfa7:	48 c7 05 fe 74 00 00 	movq   $0x0,0x74fe(%rip)        # 154b0 <g_152>
    dfae:	00 00 00 00 
    dfb2:	e9 27 01 00 00       	jmpq   e0de <func_93+0x571>
    dfb7:	c7 85 e0 fc ff ff f9 	movl   $0xfffffff9,-0x320(%rbp)
    dfbe:	ff ff ff 
    dfc1:	83 bd ac fc ff ff 00 	cmpl   $0x0,-0x354(%rbp)
    dfc8:	0f 85 23 01 00 00    	jne    e0f1 <func_93+0x584>
    dfce:	48 c7 05 67 66 00 00 	movq   $0x0,0x6667(%rip)        # 14640 <g_8>
    dfd5:	00 00 00 00 
    dfd9:	c6 05 58 50 00 00 00 	movb   $0x0,0x5058(%rip)        # 13038 <g_110>
    dfe0:	e9 b4 00 00 00       	jmpq   e099 <func_93+0x52c>
    dfe5:	c7 85 e4 fc ff ff 1c 	movl   $0x5f48091c,-0x31c(%rbp)
    dfec:	09 48 5f 
    dfef:	48 8d 85 e0 fd ff ff 	lea    -0x220(%rbp),%rax
    dff6:	48 8d 15 a3 5e 00 00 	lea    0x5ea3(%rip),%rdx        # 13ea0 <g_881+0xdc8>
    dffd:	b9 3f 00 00 00       	mov    $0x3f,%ecx
    e002:	48 89 c7             	mov    %rax,%rdi
    e005:	48 89 d6             	mov    %rdx,%rsi
    e008:	f3 48 a5             	rep movsq %ds:(%rsi),%es:(%rdi)
    e00b:	48 c7 05 2a 50 00 00 	movq   $0x0,0x502a(%rip)        # 13040 <g_159>
    e012:	00 00 00 00 
    e016:	eb 58                	jmp    e070 <func_93+0x503>
    e018:	48 8d 05 29 50 00 00 	lea    0x5029(%rip),%rax        # 13048 <g_172>
    e01f:	48 89 85 08 fd ff ff 	mov    %rax,-0x2f8(%rbp)
    e026:	c7 85 cc fc ff ff 00 	movl   $0x0,-0x334(%rbp)
    e02d:	00 00 00 
    e030:	eb 1a                	jmp    e04c <func_93+0x4df>
    e032:	8b 85 cc fc ff ff    	mov    -0x334(%rbp),%eax
    e038:	48 98                	cltq   
    e03a:	c7 84 85 40 fd ff ff 	movl   $0x709dc6ad,-0x2c0(%rbp,%rax,4)
    e041:	ad c6 9d 70 
    e045:	83 85 cc fc ff ff 01 	addl   $0x1,-0x334(%rbp)
    e04c:	83 bd cc fc ff ff 04 	cmpl   $0x4,-0x334(%rbp)
    e053:	7e dd                	jle    e032 <func_93+0x4c5>
    e055:	48 8b 05 e4 4f 00 00 	mov    0x4fe4(%rip),%rax        # 13040 <g_159>
    e05c:	be 09 00 00 00       	mov    $0x9,%esi
    e061:	48 89 c7             	mov    %rax,%rdi
    e064:	e8 c5 8f ff ff       	callq  702e <safe_add_func_uint64_t_u_u>
    e069:	48 89 05 d0 4f 00 00 	mov    %rax,0x4fd0(%rip)        # 13040 <g_159>
    e070:	48 8b 05 c9 4f 00 00 	mov    0x4fc9(%rip),%rax        # 13040 <g_159>
    e077:	48 83 f8 1a          	cmp    $0x1a,%rax
    e07b:	75 9b                	jne    e018 <func_93+0x4ab>
    e07d:	0f b6 05 b4 4f 00 00 	movzbl 0x4fb4(%rip),%eax        # 13038 <g_110>
    e084:	0f b6 c0             	movzbl %al,%eax
    e087:	be 09 00 00 00       	mov    $0x9,%esi
    e08c:	89 c7                	mov    %eax,%edi
    e08e:	e8 25 8e ff ff       	callq  6eb8 <safe_add_func_uint32_t_u_u>
    e093:	88 05 9f 4f 00 00    	mov    %al,0x4f9f(%rip)        # 13038 <g_110>
    e099:	0f b6 05 98 4f 00 00 	movzbl 0x4f98(%rip),%eax        # 13038 <g_110>
    e0a0:	3c 36                	cmp    $0x36,%al
    e0a2:	0f 85 3d ff ff ff    	jne    dfe5 <func_93+0x478>
    e0a8:	48 8b 85 f8 fc ff ff 	mov    -0x308(%rbp),%rax
    e0af:	8b 00                	mov    (%rax),%eax
    e0b1:	23 85 e0 fc ff ff    	and    -0x320(%rbp),%eax
    e0b7:	89 c2                	mov    %eax,%edx
    e0b9:	48 8b 85 f8 fc ff ff 	mov    -0x308(%rbp),%rax
    e0c0:	89 10                	mov    %edx,(%rax)
    e0c2:	48 8b 05 e7 73 00 00 	mov    0x73e7(%rip),%rax        # 154b0 <g_152>
    e0c9:	be 01 00 00 00       	mov    $0x1,%esi
    e0ce:	89 c7                	mov    %eax,%edi
    e0d0:	e8 e3 8d ff ff       	callq  6eb8 <safe_add_func_uint32_t_u_u>
    e0d5:	89 c0                	mov    %eax,%eax
    e0d7:	48 89 05 d2 73 00 00 	mov    %rax,0x73d2(%rip)        # 154b0 <g_152>
    e0de:	48 8b 05 cb 73 00 00 	mov    0x73cb(%rip),%rax        # 154b0 <g_152>
    e0e5:	48 83 f8 37          	cmp    $0x37,%rax
    e0e9:	0f 85 c8 fe ff ff    	jne    dfb7 <func_93+0x44a>
    e0ef:	eb 01                	jmp    e0f2 <func_93+0x585>
    e0f1:	90                   	nop
    e0f2:	80 85 c3 fc ff ff 01 	addb   $0x1,-0x33d(%rbp)
    e0f9:	48 8b 85 98 fd ff ff 	mov    -0x268(%rbp),%rax
    e100:	48 89 05 39 65 00 00 	mov    %rax,0x6539(%rip)        # 14640 <g_8>
    e107:	48 8b 85 f0 fc ff ff 	mov    -0x310(%rbp),%rax
    e10e:	48 8b 5d e8          	mov    -0x18(%rbp),%rbx
    e112:	64 48 33 1c 25 28 00 	xor    %fs:0x28,%rbx
    e119:	00 00 
    e11b:	74 05                	je     e122 <func_93+0x5b5>
    e11d:	e8 4e 7f ff ff       	callq  6070 <__stack_chk_fail@plt>
    e122:	48 81 c4 50 03 00 00 	add    $0x350,%rsp
    e129:	5b                   	pop    %rbx
    e12a:	41 5c                	pop    %r12
    e12c:	5d                   	pop    %rbp
    e12d:	c3                   	retq   

000000000000e12e <func_98>:
    e12e:	f3 0f 1e fa          	endbr64 
    e132:	55                   	push   %rbp
    e133:	48 89 e5             	mov    %rsp,%rbp
    e136:	53                   	push   %rbx
    e137:	48 81 ec 18 06 00 00 	sub    $0x618,%rsp
    e13e:	89 bd ec f9 ff ff    	mov    %edi,-0x614(%rbp)
    e144:	89 b5 e8 f9 ff ff    	mov    %esi,-0x618(%rbp)
    e14a:	64 48 8b 04 25 28 00 	mov    %fs:0x28,%rax
    e151:	00 00 
    e153:	48 89 45 e8          	mov    %rax,-0x18(%rbp)
    e157:	31 c0                	xor    %eax,%eax
    e159:	48 8d 85 40 fa ff ff 	lea    -0x5c0(%rbp),%rax
    e160:	48 8d 15 39 5f 00 00 	lea    0x5f39(%rip),%rdx        # 140a0 <g_881+0xfc8>
    e167:	b9 b4 00 00 00       	mov    $0xb4,%ecx
    e16c:	48 89 c7             	mov    %rax,%rdi
    e16f:	48 89 d6             	mov    %rdx,%rsi
    e172:	f3 48 a5             	rep movsq %ds:(%rsi),%es:(%rdi)
    e175:	c7 85 fc f9 ff ff 55 	movl   $0x44b85c55,-0x604(%rbp)
    e17c:	5c b8 44 
    e17f:	48 c7 85 08 fa ff ff 	movq   $0x0,-0x5f8(%rbp)
    e186:	00 00 00 00 
    e18a:	c7 85 00 fa ff ff c1 	movl   $0xc87b4ec1,-0x600(%rbp)
    e191:	4e 7b c8 
    e194:	c7 85 04 fa ff ff 04 	movl   $0x4,-0x5fc(%rbp)
    e19b:	00 00 00 
    e19e:	c7 85 f4 f9 ff ff 00 	movl   $0x0,-0x60c(%rbp)
    e1a5:	00 00 00 
    e1a8:	eb 1a                	jmp    e1c4 <func_98+0x96>
    e1aa:	8b 85 f4 f9 ff ff    	mov    -0x60c(%rbp),%eax
    e1b0:	48 98                	cltq   
    e1b2:	c7 84 85 14 fa ff ff 	movl   $0xef630fe8,-0x5ec(%rbp,%rax,4)
    e1b9:	e8 0f 63 ef 
    e1bd:	83 85 f4 f9 ff ff 01 	addl   $0x1,-0x60c(%rbp)
    e1c4:	83 bd f4 f9 ff ff 02 	cmpl   $0x2,-0x60c(%rbp)
    e1cb:	7e dd                	jle    e1aa <func_98+0x7c>
    e1cd:	c7 85 f4 f9 ff ff 00 	movl   $0x0,-0x60c(%rbp)
    e1d4:	00 00 00 
    e1d7:	eb 45                	jmp    e21e <func_98+0xf0>
    e1d9:	c7 85 f8 f9 ff ff 00 	movl   $0x0,-0x608(%rbp)
    e1e0:	00 00 00 
    e1e3:	eb 29                	jmp    e20e <func_98+0xe0>
    e1e5:	8b 85 f8 f9 ff ff    	mov    -0x608(%rbp),%eax
    e1eb:	48 98                	cltq   
    e1ed:	8b 95 f4 f9 ff ff    	mov    -0x60c(%rbp),%edx
    e1f3:	48 63 d2             	movslq %edx,%rdx
    e1f6:	48 01 d2             	add    %rdx,%rdx
    e1f9:	48 01 d0             	add    %rdx,%rax
    e1fc:	c7 84 85 20 fa ff ff 	movl   $0x9816e076,-0x5e0(%rbp,%rax,4)
    e203:	76 e0 16 98 
    e207:	83 85 f8 f9 ff ff 01 	addl   $0x1,-0x608(%rbp)
    e20e:	83 bd f8 f9 ff ff 01 	cmpl   $0x1,-0x608(%rbp)
    e215:	7e ce                	jle    e1e5 <func_98+0xb7>
    e217:	83 85 f4 f9 ff ff 01 	addl   $0x1,-0x60c(%rbp)
    e21e:	83 bd f4 f9 ff ff 01 	cmpl   $0x1,-0x60c(%rbp)
    e225:	7e b2                	jle    e1d9 <func_98+0xab>
    e227:	c7 85 f4 f9 ff ff 00 	movl   $0x0,-0x60c(%rbp)
    e22e:	00 00 00 
    e231:	eb 1a                	jmp    e24d <func_98+0x11f>
    e233:	8b 85 f4 f9 ff ff    	mov    -0x60c(%rbp),%eax
    e239:	48 98                	cltq   
    e23b:	c7 84 85 30 fa ff ff 	movl   $0xcca7cc92,-0x5d0(%rbp,%rax,4)
    e242:	92 cc a7 cc 
    e246:	83 85 f4 f9 ff ff 01 	addl   $0x1,-0x60c(%rbp)
    e24d:	83 bd f4 f9 ff ff 03 	cmpl   $0x3,-0x60c(%rbp)
    e254:	7e dd                	jle    e233 <func_98+0x105>
    e256:	83 b5 fc f9 ff ff 3e 	xorl   $0x3e,-0x604(%rbp)
    e25d:	8b 85 14 fa ff ff    	mov    -0x5ec(%rbp),%eax
    e263:	39 85 fc f9 ff ff    	cmp    %eax,-0x604(%rbp)
    e269:	0f 9c c0             	setl   %al
    e26c:	0f b6 d8             	movzbl %al,%ebx
    e26f:	8b 85 24 fa ff ff    	mov    -0x5dc(%rbp),%eax
    e275:	98                   	cwtl   
    e276:	c7 85 00 fa ff ff 01 	movl   $0x1,-0x600(%rbp)
    e27d:	00 00 00 
    e280:	89 c6                	mov    %eax,%esi
    e282:	bf 01 00 00 00       	mov    $0x1,%edi
    e287:	e8 27 81 ff ff       	callq  63b3 <safe_add_func_int16_t_s_s>
    e28c:	66 83 f8 04          	cmp    $0x4,%ax
    e290:	0f 9f c0             	setg   %al
    e293:	0f b6 d0             	movzbl %al,%edx
    e296:	8b 85 ec f9 ff ff    	mov    -0x614(%rbp),%eax
    e29c:	98                   	cwtl   
    e29d:	89 d6                	mov    %edx,%esi
    e29f:	89 c7                	mov    %eax,%edi
    e2a1:	e8 0d 81 ff ff       	callq  63b3 <safe_add_func_int16_t_s_s>
    e2a6:	8b 05 78 4d 00 00    	mov    0x4d78(%rip),%eax        # 13024 <g_9>
    e2ac:	83 f8 01             	cmp    $0x1,%eax
    e2af:	0f 9e c0             	setle  %al
    e2b2:	0f b6 c0             	movzbl %al,%eax
    e2b5:	89 85 04 fa ff ff    	mov    %eax,-0x5fc(%rbp)
    e2bb:	39 9d 04 fa ff ff    	cmp    %ebx,-0x5fc(%rbp)
    e2c1:	0f 9d c0             	setge  %al
    e2c4:	0f b6 c0             	movzbl %al,%eax
    e2c7:	f7 d0                	not    %eax
    e2c9:	ba f2 58 3f 9d       	mov    $0x9d3f58f2,%edx
    e2ce:	09 c2                	or     %eax,%edx
    e2d0:	8b 85 24 fa ff ff    	mov    -0x5dc(%rbp),%eax
    e2d6:	21 d0                	and    %edx,%eax
    e2d8:	48 98                	cltq   
    e2da:	be 04 00 00 00       	mov    $0x4,%esi
    e2df:	48 89 c7             	mov    %rax,%rdi
    e2e2:	e8 5a 85 ff ff       	callq  6841 <safe_add_func_int64_t_s_s>
    e2e7:	8b 95 3c fa ff ff    	mov    -0x5c4(%rbp),%edx
    e2ed:	31 d0                	xor    %edx,%eax
    e2ef:	89 85 3c fa ff ff    	mov    %eax,-0x5c4(%rbp)
    e2f5:	48 8d 05 b0 71 00 00 	lea    0x71b0(%rip),%rax        # 154ac <g_117>
    e2fc:	48 8b 4d e8          	mov    -0x18(%rbp),%rcx
    e300:	64 48 33 0c 25 28 00 	xor    %fs:0x28,%rcx
    e307:	00 00 
    e309:	74 05                	je     e310 <func_98+0x1e2>
    e30b:	e8 60 7d ff ff       	callq  6070 <__stack_chk_fail@plt>
    e310:	48 81 c4 18 06 00 00 	add    $0x618,%rsp
    e317:	5b                   	pop    %rbx
    e318:	5d                   	pop    %rbp
    e319:	c3                   	retq   

000000000000e31a <main>:
    e31a:	f3 0f 1e fa          	endbr64 
    e31e:	55                   	push   %rbp
    e31f:	48 89 e5             	mov    %rsp,%rbp
    e322:	48 83 ec 20          	sub    $0x20,%rsp
    e326:	89 7d ec             	mov    %edi,-0x14(%rbp)
    e329:	48 89 75 e0          	mov    %rsi,-0x20(%rbp)
    e32d:	c7 45 fc 00 00 00 00 	movl   $0x0,-0x4(%rbp)
    e334:	83 7d ec 02          	cmpl   $0x2,-0x14(%rbp)
    e338:	74 25                	je     e35f <main+0x45>
    e33a:	48 8b 45 e0          	mov    -0x20(%rbp),%rax
    e33e:	48 83 c0 08          	add    $0x8,%rax
    e342:	48 8b 00             	mov    (%rax),%rax
    e345:	48 8d 35 a4 17 00 00 	lea    0x17a4(%rip),%rsi        # faf0 <g_66+0xa9c>
    e34c:	48 89 c7             	mov    %rax,%rdi
    e34f:	e8 3c 7d ff ff       	callq  6090 <strcmp@plt>
    e354:	85 c0                	test   %eax,%eax
    e356:	74 07                	je     e35f <main+0x45>
    e358:	c7 45 fc 01 00 00 00 	movl   $0x1,-0x4(%rbp)
    e35f:	e8 25 7e ff ff       	callq  6189 <platform_main_begin>
    e364:	e8 2f 92 ff ff       	callq  7598 <crc32_gentab>
    e369:	e8 47 94 ff ff       	callq  77b5 <func_1>
    e36e:	8b 05 34 71 00 00    	mov    0x7134(%rip),%eax        # 154a8 <g_7>
    e374:	48 98                	cltq   
    e376:	8b 55 fc             	mov    -0x4(%rbp),%edx
    e379:	48 8d 35 72 17 00 00 	lea    0x1772(%rip),%rsi        # faf2 <g_66+0xa9e>
    e380:	48 89 c7             	mov    %rax,%rdi
    e383:	e8 6b 93 ff ff       	callq  76f3 <transparent_crc>
    e388:	8b 05 96 4c 00 00    	mov    0x4c96(%rip),%eax        # 13024 <g_9>
    e38e:	48 98                	cltq   
    e390:	8b 55 fc             	mov    -0x4(%rbp),%edx
    e393:	48 8d 35 5c 17 00 00 	lea    0x175c(%rip),%rsi        # faf6 <g_66+0xaa2>
    e39a:	48 89 c7             	mov    %rax,%rdi
    e39d:	e8 51 93 ff ff       	callq  76f3 <transparent_crc>
    e3a2:	8b 05 80 4c 00 00    	mov    0x4c80(%rip),%eax        # 13028 <g_21>
    e3a8:	89 c1                	mov    %eax,%ecx
    e3aa:	8b 45 fc             	mov    -0x4(%rbp),%eax
    e3ad:	89 c2                	mov    %eax,%edx
    e3af:	48 8d 35 44 17 00 00 	lea    0x1744(%rip),%rsi        # fafa <g_66+0xaa6>
    e3b6:	48 89 cf             	mov    %rcx,%rdi
    e3b9:	e8 35 93 ff ff       	callq  76f3 <transparent_crc>
    e3be:	8b 05 68 4c 00 00    	mov    0x4c68(%rip),%eax        # 1302c <g_35>
    e3c4:	89 c1                	mov    %eax,%ecx
    e3c6:	8b 45 fc             	mov    -0x4(%rbp),%eax
    e3c9:	89 c2                	mov    %eax,%edx
    e3cb:	48 8d 35 2d 17 00 00 	lea    0x172d(%rip),%rsi        # faff <g_66+0xaab>
    e3d2:	48 89 cf             	mov    %rcx,%rdi
    e3d5:	e8 19 93 ff ff       	callq  76f3 <transparent_crc>
    e3da:	8b 05 50 4c 00 00    	mov    0x4c50(%rip),%eax        # 13030 <g_51>
    e3e0:	89 c1                	mov    %eax,%ecx
    e3e2:	8b 45 fc             	mov    -0x4(%rbp),%eax
    e3e5:	89 c2                	mov    %eax,%edx
    e3e7:	48 8d 35 16 17 00 00 	lea    0x1716(%rip),%rsi        # fb04 <g_66+0xab0>
    e3ee:	48 89 cf             	mov    %rcx,%rdi
    e3f1:	e8 fd 92 ff ff       	callq  76f3 <transparent_crc>
    e3f6:	b8 f2 58 3f 9d       	mov    $0x9d3f58f2,%eax
    e3fb:	48 98                	cltq   
    e3fd:	8b 55 fc             	mov    -0x4(%rbp),%edx
    e400:	48 8d 35 02 17 00 00 	lea    0x1702(%rip),%rsi        # fb09 <g_66+0xab5>
    e407:	48 89 c7             	mov    %rax,%rdi
    e40a:	e8 e4 92 ff ff       	callq  76f3 <transparent_crc>
    e40f:	8b 05 1f 4c 00 00    	mov    0x4c1f(%rip),%eax        # 13034 <g_72>
    e415:	89 c1                	mov    %eax,%ecx
    e417:	8b 45 fc             	mov    -0x4(%rbp),%eax
    e41a:	89 c2                	mov    %eax,%edx
    e41c:	48 8d 35 eb 16 00 00 	lea    0x16eb(%rip),%rsi        # fb0e <g_66+0xaba>
    e423:	48 89 cf             	mov    %rcx,%rdi
    e426:	e8 c8 92 ff ff       	callq  76f3 <transparent_crc>
    e42b:	0f b6 05 06 4c 00 00 	movzbl 0x4c06(%rip),%eax        # 13038 <g_110>
    e432:	0f b6 c0             	movzbl %al,%eax
    e435:	8b 55 fc             	mov    -0x4(%rbp),%edx
    e438:	48 8d 35 d4 16 00 00 	lea    0x16d4(%rip),%rsi        # fb13 <g_66+0xabf>
    e43f:	48 89 c7             	mov    %rax,%rdi
    e442:	e8 ac 92 ff ff       	callq  76f3 <transparent_crc>
    e447:	0f b6 05 5e 70 00 00 	movzbl 0x705e(%rip),%eax        # 154ac <g_117>
    e44e:	48 0f be c0          	movsbq %al,%rax
    e452:	8b 55 fc             	mov    -0x4(%rbp),%edx
    e455:	48 8d 35 bd 16 00 00 	lea    0x16bd(%rip),%rsi        # fb19 <g_66+0xac5>
    e45c:	48 89 c7             	mov    %rax,%rdi
    e45f:	e8 8f 92 ff ff       	callq  76f3 <transparent_crc>
    e464:	8b 05 d2 4b 00 00    	mov    0x4bd2(%rip),%eax        # 1303c <g_140>
    e46a:	89 c1                	mov    %eax,%ecx
    e46c:	8b 45 fc             	mov    -0x4(%rbp),%eax
    e46f:	89 c2                	mov    %eax,%edx
    e471:	48 8d 35 a7 16 00 00 	lea    0x16a7(%rip),%rsi        # fb1f <g_66+0xacb>
    e478:	48 89 cf             	mov    %rcx,%rdi
    e47b:	e8 73 92 ff ff       	callq  76f3 <transparent_crc>
    e480:	48 8b 05 29 70 00 00 	mov    0x7029(%rip),%rax        # 154b0 <g_152>
    e487:	8b 55 fc             	mov    -0x4(%rbp),%edx
    e48a:	48 8d 35 94 16 00 00 	lea    0x1694(%rip),%rsi        # fb25 <g_66+0xad1>
    e491:	48 89 c7             	mov    %rax,%rdi
    e494:	e8 5a 92 ff ff       	callq  76f3 <transparent_crc>
    e499:	48 8b 05 a0 4b 00 00 	mov    0x4ba0(%rip),%rax        # 13040 <g_159>
    e4a0:	48 89 c1             	mov    %rax,%rcx
    e4a3:	8b 45 fc             	mov    -0x4(%rbp),%eax
    e4a6:	89 c2                	mov    %eax,%edx
    e4a8:	48 8d 35 7c 16 00 00 	lea    0x167c(%rip),%rsi        # fb2b <g_66+0xad7>
    e4af:	48 89 cf             	mov    %rcx,%rdi
    e4b2:	e8 3c 92 ff ff       	callq  76f3 <transparent_crc>
    e4b7:	8b 05 8b 4b 00 00    	mov    0x4b8b(%rip),%eax        # 13048 <g_172>
    e4bd:	48 98                	cltq   
    e4bf:	8b 55 fc             	mov    -0x4(%rbp),%edx
    e4c2:	48 8d 35 68 16 00 00 	lea    0x1668(%rip),%rsi        # fb31 <g_66+0xadd>
    e4c9:	48 89 c7             	mov    %rax,%rdi
    e4cc:	e8 22 92 ff ff       	callq  76f3 <transparent_crc>
    e4d1:	0f b7 05 74 4b 00 00 	movzwl 0x4b74(%rip),%eax        # 1304c <g_197>
    e4d8:	48 0f bf c0          	movswq %ax,%rax
    e4dc:	8b 55 fc             	mov    -0x4(%rbp),%edx
    e4df:	48 8d 35 51 16 00 00 	lea    0x1651(%rip),%rsi        # fb37 <g_66+0xae3>
    e4e6:	48 89 c7             	mov    %rax,%rdi
    e4e9:	e8 05 92 ff ff       	callq  76f3 <transparent_crc>
    e4ee:	8b 05 5c 4b 00 00    	mov    0x4b5c(%rip),%eax        # 13050 <g_216>
    e4f4:	48 98                	cltq   
    e4f6:	8b 55 fc             	mov    -0x4(%rbp),%edx
    e4f9:	48 8d 35 3d 16 00 00 	lea    0x163d(%rip),%rsi        # fb3d <g_66+0xae9>
    e500:	48 89 c7             	mov    %rax,%rdi
    e503:	e8 eb 91 ff ff       	callq  76f3 <transparent_crc>
    e508:	0f b7 05 45 4b 00 00 	movzwl 0x4b45(%rip),%eax        # 13054 <g_217>
    e50f:	0f b7 c0             	movzwl %ax,%eax
    e512:	8b 55 fc             	mov    -0x4(%rbp),%edx
    e515:	48 8d 35 27 16 00 00 	lea    0x1627(%rip),%rsi        # fb43 <g_66+0xaef>
    e51c:	48 89 c7             	mov    %rax,%rdi
    e51f:	e8 cf 91 ff ff       	callq  76f3 <transparent_crc>
    e524:	48 8b 05 2d 4b 00 00 	mov    0x4b2d(%rip),%rax        # 13058 <g_220>
    e52b:	8b 55 fc             	mov    -0x4(%rbp),%edx
    e52e:	48 8d 35 14 16 00 00 	lea    0x1614(%rip),%rsi        # fb49 <g_66+0xaf5>
    e535:	48 89 c7             	mov    %rax,%rdi
    e538:	e8 b6 91 ff ff       	callq  76f3 <transparent_crc>
    e53d:	48 8b 05 1c 4b 00 00 	mov    0x4b1c(%rip),%rax        # 13060 <g_225>
    e544:	48 89 c1             	mov    %rax,%rcx
    e547:	8b 45 fc             	mov    -0x4(%rbp),%eax
    e54a:	89 c2                	mov    %eax,%edx
    e54c:	48 8d 35 fc 15 00 00 	lea    0x15fc(%rip),%rsi        # fb4f <g_66+0xafb>
    e553:	48 89 cf             	mov    %rcx,%rdi
    e556:	e8 98 91 ff ff       	callq  76f3 <transparent_crc>
    e55b:	8b 05 07 4b 00 00    	mov    0x4b07(%rip),%eax        # 13068 <g_227>
    e561:	48 98                	cltq   
    e563:	8b 55 fc             	mov    -0x4(%rbp),%edx
    e566:	48 8d 35 e8 15 00 00 	lea    0x15e8(%rip),%rsi        # fb55 <g_66+0xb01>
    e56d:	48 89 c7             	mov    %rax,%rdi
    e570:	e8 7e 91 ff ff       	callq  76f3 <transparent_crc>
    e575:	8b 05 f1 4a 00 00    	mov    0x4af1(%rip),%eax        # 1306c <g_228>
    e57b:	48 98                	cltq   
    e57d:	8b 55 fc             	mov    -0x4(%rbp),%edx
    e580:	48 8d 35 d4 15 00 00 	lea    0x15d4(%rip),%rsi        # fb5b <g_66+0xb07>
    e587:	48 89 c7             	mov    %rax,%rdi
    e58a:	e8 64 91 ff ff       	callq  76f3 <transparent_crc>
    e58f:	c7 45 f8 00 00 00 00 	movl   $0x0,-0x8(%rbp)
    e596:	eb 4b                	jmp    e5e3 <main+0x2c9>
    e598:	8b 45 f8             	mov    -0x8(%rbp),%eax
    e59b:	48 98                	cltq   
    e59d:	48 8d 14 85 00 00 00 	lea    0x0(,%rax,4),%rdx
    e5a4:	00 
    e5a5:	48 8d 05 d4 4a 00 00 	lea    0x4ad4(%rip),%rax        # 13080 <g_230>
    e5ac:	8b 04 02             	mov    (%rdx,%rax,1),%eax
    e5af:	48 98                	cltq   
    e5b1:	8b 55 fc             	mov    -0x4(%rbp),%edx
    e5b4:	48 8d 35 a6 15 00 00 	lea    0x15a6(%rip),%rsi        # fb61 <g_66+0xb0d>
    e5bb:	48 89 c7             	mov    %rax,%rdi
    e5be:	e8 30 91 ff ff       	callq  76f3 <transparent_crc>
    e5c3:	83 7d fc 00          	cmpl   $0x0,-0x4(%rbp)
    e5c7:	74 16                	je     e5df <main+0x2c5>
    e5c9:	8b 45 f8             	mov    -0x8(%rbp),%eax
    e5cc:	89 c6                	mov    %eax,%esi
    e5ce:	48 8d 3d 95 15 00 00 	lea    0x1595(%rip),%rdi        # fb6a <g_66+0xb16>
    e5d5:	b8 00 00 00 00       	mov    $0x0,%eax
    e5da:	e8 a1 7a ff ff       	callq  6080 <printf@plt>
    e5df:	83 45 f8 01          	addl   $0x1,-0x8(%rbp)
    e5e3:	83 7d f8 09          	cmpl   $0x9,-0x8(%rbp)
    e5e7:	7e af                	jle    e598 <main+0x27e>
    e5e9:	c7 45 f8 00 00 00 00 	movl   $0x0,-0x8(%rbp)
    e5f0:	eb 4b                	jmp    e63d <main+0x323>
    e5f2:	8b 45 f8             	mov    -0x8(%rbp),%eax
    e5f5:	48 98                	cltq   
    e5f7:	48 8d 14 85 00 00 00 	lea    0x0(,%rax,4),%rdx
    e5fe:	00 
    e5ff:	48 8d 05 a2 4a 00 00 	lea    0x4aa2(%rip),%rax        # 130a8 <g_349>
    e606:	8b 04 02             	mov    (%rdx,%rax,1),%eax
    e609:	48 98                	cltq   
    e60b:	8b 55 fc             	mov    -0x4(%rbp),%edx
    e60e:	48 8d 35 63 15 00 00 	lea    0x1563(%rip),%rsi        # fb78 <g_66+0xb24>
    e615:	48 89 c7             	mov    %rax,%rdi
    e618:	e8 d6 90 ff ff       	callq  76f3 <transparent_crc>
    e61d:	83 7d fc 00          	cmpl   $0x0,-0x4(%rbp)
    e621:	74 16                	je     e639 <main+0x31f>
    e623:	8b 45 f8             	mov    -0x8(%rbp),%eax
    e626:	89 c6                	mov    %eax,%esi
    e628:	48 8d 3d 3b 15 00 00 	lea    0x153b(%rip),%rdi        # fb6a <g_66+0xb16>
    e62f:	b8 00 00 00 00       	mov    $0x0,%eax
    e634:	e8 47 7a ff ff       	callq  6080 <printf@plt>
    e639:	83 45 f8 01          	addl   $0x1,-0x8(%rbp)
    e63d:	83 7d f8 01          	cmpl   $0x1,-0x8(%rbp)
    e641:	7e af                	jle    e5f2 <main+0x2d8>
    e643:	48 8b 05 66 4a 00 00 	mov    0x4a66(%rip),%rax        # 130b0 <g_419>
    e64a:	8b 55 fc             	mov    -0x4(%rbp),%edx
    e64d:	48 8d 35 2d 15 00 00 	lea    0x152d(%rip),%rsi        # fb81 <g_66+0xb2d>
    e654:	48 89 c7             	mov    %rax,%rdi
    e657:	e8 97 90 ff ff       	callq  76f3 <transparent_crc>
    e65c:	0f b7 05 55 4a 00 00 	movzwl 0x4a55(%rip),%eax        # 130b8 <g_433>
    e663:	0f b7 c0             	movzwl %ax,%eax
    e666:	8b 55 fc             	mov    -0x4(%rbp),%edx
    e669:	48 8d 35 17 15 00 00 	lea    0x1517(%rip),%rsi        # fb87 <g_66+0xb33>
    e670:	48 89 c7             	mov    %rax,%rdi
    e673:	e8 7b 90 ff ff       	callq  76f3 <transparent_crc>
    e678:	0f b7 05 3b 4a 00 00 	movzwl 0x4a3b(%rip),%eax        # 130ba <g_456>
    e67f:	0f b7 c0             	movzwl %ax,%eax
    e682:	8b 55 fc             	mov    -0x4(%rbp),%edx
    e685:	48 8d 35 01 15 00 00 	lea    0x1501(%rip),%rsi        # fb8d <g_66+0xb39>
    e68c:	48 89 c7             	mov    %rax,%rdi
    e68f:	e8 5f 90 ff ff       	callq  76f3 <transparent_crc>
    e694:	0f b6 05 21 4a 00 00 	movzbl 0x4a21(%rip),%eax        # 130bc <g_489>
    e69b:	48 0f be c0          	movsbq %al,%rax
    e69f:	8b 55 fc             	mov    -0x4(%rbp),%edx
    e6a2:	48 8d 35 ea 14 00 00 	lea    0x14ea(%rip),%rsi        # fb93 <g_66+0xb3f>
    e6a9:	48 89 c7             	mov    %rax,%rdi
    e6ac:	e8 42 90 ff ff       	callq  76f3 <transparent_crc>
    e6b1:	48 8b 05 08 4a 00 00 	mov    0x4a08(%rip),%rax        # 130c0 <g_636>
    e6b8:	48 89 c1             	mov    %rax,%rcx
    e6bb:	8b 45 fc             	mov    -0x4(%rbp),%eax
    e6be:	89 c2                	mov    %eax,%edx
    e6c0:	48 8d 35 d2 14 00 00 	lea    0x14d2(%rip),%rsi        # fb99 <g_66+0xb45>
    e6c7:	48 89 cf             	mov    %rcx,%rdi
    e6ca:	e8 24 90 ff ff       	callq  76f3 <transparent_crc>
    e6cf:	0f b7 05 f2 49 00 00 	movzwl 0x49f2(%rip),%eax        # 130c8 <g_762>
    e6d6:	48 0f bf c0          	movswq %ax,%rax
    e6da:	8b 55 fc             	mov    -0x4(%rbp),%edx
    e6dd:	48 8d 35 bb 14 00 00 	lea    0x14bb(%rip),%rsi        # fb9f <g_66+0xb4b>
    e6e4:	48 89 c7             	mov    %rax,%rdi
    e6e7:	e8 07 90 ff ff       	callq  76f3 <transparent_crc>
    e6ec:	8b 05 da 49 00 00    	mov    0x49da(%rip),%eax        # 130cc <g_857>
    e6f2:	89 c1                	mov    %eax,%ecx
    e6f4:	8b 45 fc             	mov    -0x4(%rbp),%eax
    e6f7:	89 c2                	mov    %eax,%edx
    e6f9:	48 8d 35 a5 14 00 00 	lea    0x14a5(%rip),%rsi        # fba5 <g_66+0xb51>
    e700:	48 89 cf             	mov    %rcx,%rdi
    e703:	e8 eb 8f ff ff       	callq  76f3 <transparent_crc>
    e708:	8b 05 c2 49 00 00    	mov    0x49c2(%rip),%eax        # 130d0 <g_867>
    e70e:	48 98                	cltq   
    e710:	8b 55 fc             	mov    -0x4(%rbp),%edx
    e713:	48 8d 35 91 14 00 00 	lea    0x1491(%rip),%rsi        # fbab <g_66+0xb57>
    e71a:	48 89 c7             	mov    %rax,%rdi
    e71d:	e8 d1 8f ff ff       	callq  76f3 <transparent_crc>
    e722:	8b 05 ac 49 00 00    	mov    0x49ac(%rip),%eax        # 130d4 <g_875>
    e728:	48 98                	cltq   
    e72a:	8b 55 fc             	mov    -0x4(%rbp),%edx
    e72d:	48 8d 35 7d 14 00 00 	lea    0x147d(%rip),%rsi        # fbb1 <g_66+0xb5d>
    e734:	48 89 c7             	mov    %rax,%rdi
    e737:	e8 b7 8f ff ff       	callq  76f3 <transparent_crc>
    e73c:	48 8b 05 95 49 00 00 	mov    0x4995(%rip),%rax        # 130d8 <g_881>
    e743:	8b 55 fc             	mov    -0x4(%rbp),%edx
    e746:	48 8d 35 6a 14 00 00 	lea    0x146a(%rip),%rsi        # fbb7 <g_66+0xb63>
    e74d:	48 89 c7             	mov    %rax,%rdi
    e750:	e8 9e 8f ff ff       	callq  76f3 <transparent_crc>
    e755:	8b 05 c5 48 00 00    	mov    0x48c5(%rip),%eax        # 13020 <crc32_context>
    e75b:	f7 d0                	not    %eax
    e75d:	89 c2                	mov    %eax,%edx
    e75f:	8b 45 fc             	mov    -0x4(%rbp),%eax
    e762:	89 c6                	mov    %eax,%esi
    e764:	89 d7                	mov    %edx,%edi
    e766:	e8 29 7a ff ff       	callq  6194 <platform_main_end>
    e76b:	b8 00 00 00 00       	mov    $0x0,%eax
    e770:	c9                   	leaveq 
    e771:	c3                   	retq   
    e772:	66 2e 0f 1f 84 00 00 	nopw   %cs:0x0(%rax,%rax,1)
    e779:	00 00 00 
    e77c:	0f 1f 40 00          	nopl   0x0(%rax)

000000000000e780 <__libc_csu_init>:
    e780:	f3 0f 1e fa          	endbr64 
    e784:	41 57                	push   %r15
    e786:	4c 8d 3d 13 46 00 00 	lea    0x4613(%rip),%r15        # 12da0 <__frame_dummy_init_array_entry>
    e78d:	41 56                	push   %r14
    e78f:	49 89 d6             	mov    %rdx,%r14
    e792:	41 55                	push   %r13
    e794:	49 89 f5             	mov    %rsi,%r13
    e797:	41 54                	push   %r12
    e799:	41 89 fc             	mov    %edi,%r12d
    e79c:	55                   	push   %rbp
    e79d:	48 8d 2d 04 46 00 00 	lea    0x4604(%rip),%rbp        # 12da8 <__do_global_dtors_aux_fini_array_entry>
    e7a4:	53                   	push   %rbx
    e7a5:	4c 29 fd             	sub    %r15,%rbp
    e7a8:	48 83 ec 08          	sub    $0x8,%rsp
    e7ac:	e8 4f 78 ff ff       	callq  6000 <_init>
    e7b1:	48 c1 fd 03          	sar    $0x3,%rbp
    e7b5:	74 1f                	je     e7d6 <__libc_csu_init+0x56>
    e7b7:	31 db                	xor    %ebx,%ebx
    e7b9:	0f 1f 80 00 00 00 00 	nopl   0x0(%rax)
    e7c0:	4c 89 f2             	mov    %r14,%rdx
    e7c3:	4c 89 ee             	mov    %r13,%rsi
    e7c6:	44 89 e7             	mov    %r12d,%edi
    e7c9:	41 ff 14 df          	callq  *(%r15,%rbx,8)
    e7cd:	48 83 c3 01          	add    $0x1,%rbx
    e7d1:	48 39 dd             	cmp    %rbx,%rbp
    e7d4:	75 ea                	jne    e7c0 <__libc_csu_init+0x40>
    e7d6:	48 83 c4 08          	add    $0x8,%rsp
    e7da:	5b                   	pop    %rbx
    e7db:	5d                   	pop    %rbp
    e7dc:	41 5c                	pop    %r12
    e7de:	41 5d                	pop    %r13
    e7e0:	41 5e                	pop    %r14
    e7e2:	41 5f                	pop    %r15
    e7e4:	c3                   	retq   
    e7e5:	66 66 2e 0f 1f 84 00 	data16 nopw %cs:0x0(%rax,%rax,1)
    e7ec:	00 00 00 00 

000000000000e7f0 <__libc_csu_fini>:
    e7f0:	f3 0f 1e fa          	endbr64 
    e7f4:	c3                   	retq   
