


Disassembly of section .text:

00000000000060a0 <_start>:
    60a0:	f3 0f 1e fa          	endbr64 
    60a4:	31 ed                	xor    %ebp,%ebp
    60a6:	49 89 d1             	mov    %rdx,%r9
    60a9:	5e                   	pop    %rsi
    60aa:	48 89 e2             	mov    %rsp,%rdx
    60ad:	48 83 e4 f0          	and    $0xfffffffffffffff0,%rsp
    60b1:	50                   	push   %rax
    60b2:	54                   	push   %rsp
    60b3:	4c 8d 05 06 a8 00 00 	lea    0xa806(%rip),%r8        # 108c0 <__libc_csu_fini>
    60ba:	48 8d 0d 8f a7 00 00 	lea    0xa78f(%rip),%rcx        # 10850 <__libc_csu_init>
    60c1:	48 8d 3d e4 9b 00 00 	lea    0x9be4(%rip),%rdi        # fcac <main>
    60c8:	ff 15 0a ef 00 00    	callq  *0xef0a(%rip)        # 14fd8 <__libc_start_main@GLIBC_2.2.5>
    60ce:	f4                   	hlt    
    60cf:	90                   	nop

00000000000060d0 <deregister_tm_clones>:
    60d0:	48 8d 3d 09 15 01 00 	lea    0x11509(%rip),%rdi        # 175e0 <__TMC_END__>
    60d7:	48 8d 05 02 15 01 00 	lea    0x11502(%rip),%rax        # 175e0 <__TMC_END__>
    60de:	48 39 f8             	cmp    %rdi,%rax
    60e1:	74 15                	je     60f8 <deregister_tm_clones+0x28>
    60e3:	48 8b 05 e6 ee 00 00 	mov    0xeee6(%rip),%rax        # 14fd0 <_ITM_deregisterTMCloneTable>
    60ea:	48 85 c0             	test   %rax,%rax
    60ed:	74 09                	je     60f8 <deregister_tm_clones+0x28>
    60ef:	ff e0                	jmpq   *%rax
    60f1:	0f 1f 80 00 00 00 00 	nopl   0x0(%rax)
    60f8:	c3                   	retq   
    60f9:	0f 1f 80 00 00 00 00 	nopl   0x0(%rax)

0000000000006100 <register_tm_clones>:
    6100:	48 8d 3d d9 14 01 00 	lea    0x114d9(%rip),%rdi        # 175e0 <__TMC_END__>
    6107:	48 8d 35 d2 14 01 00 	lea    0x114d2(%rip),%rsi        # 175e0 <__TMC_END__>
    610e:	48 29 fe             	sub    %rdi,%rsi
    6111:	48 89 f0             	mov    %rsi,%rax
    6114:	48 c1 ee 3f          	shr    $0x3f,%rsi
    6118:	48 c1 f8 03          	sar    $0x3,%rax
    611c:	48 01 c6             	add    %rax,%rsi
    611f:	48 d1 fe             	sar    %rsi
    6122:	74 14                	je     6138 <register_tm_clones+0x38>
    6124:	48 8b 05 bd ee 00 00 	mov    0xeebd(%rip),%rax        # 14fe8 <_ITM_registerTMCloneTable>
    612b:	48 85 c0             	test   %rax,%rax
    612e:	74 08                	je     6138 <register_tm_clones+0x38>
    6130:	ff e0                	jmpq   *%rax
    6132:	66 0f 1f 44 00 00    	nopw   0x0(%rax,%rax,1)
    6138:	c3                   	retq   
    6139:	0f 1f 80 00 00 00 00 	nopl   0x0(%rax)

0000000000006140 <__do_global_dtors_aux>:
    6140:	f3 0f 1e fa          	endbr64 
    6144:	80 3d 95 14 01 00 00 	cmpb   $0x0,0x11495(%rip)        # 175e0 <__TMC_END__>
    614b:	75 2b                	jne    6178 <__do_global_dtors_aux+0x38>
    614d:	55                   	push   %rbp
    614e:	48 83 3d 9a ee 00 00 	cmpq   $0x0,0xee9a(%rip)        # 14ff0 <__cxa_finalize@GLIBC_2.2.5>
    6155:	00 
    6156:	48 89 e5             	mov    %rsp,%rbp
    6159:	74 0c                	je     6167 <__do_global_dtors_aux+0x27>
    615b:	48 8b 3d a6 ee 00 00 	mov    0xeea6(%rip),%rdi        # 15008 <__dso_handle>
    6162:	e8 f9 fe ff ff       	callq  6060 <__cxa_finalize@plt>
    6167:	e8 64 ff ff ff       	callq  60d0 <deregister_tm_clones>
    616c:	c6 05 6d 14 01 00 01 	movb   $0x1,0x1146d(%rip)        # 175e0 <__TMC_END__>
    6173:	5d                   	pop    %rbp
    6174:	c3                   	retq   
    6175:	0f 1f 00             	nopl   (%rax)
    6178:	c3                   	retq   
    6179:	0f 1f 80 00 00 00 00 	nopl   0x0(%rax)

0000000000006180 <frame_dummy>:
    6180:	f3 0f 1e fa          	endbr64 
    6184:	e9 77 ff ff ff       	jmpq   6100 <register_tm_clones>

0000000000006189 <platform_main_begin>:
    6189:	f3 0f 1e fa          	endbr64 
    618d:	55                   	push   %rbp
    618e:	48 89 e5             	mov    %rsp,%rbp
    6191:	90                   	nop
    6192:	5d                   	pop    %rbp
    6193:	c3                   	retq   

0000000000006194 <platform_main_end>:
    6194:	f3 0f 1e fa          	endbr64 
    6198:	55                   	push   %rbp
    6199:	48 89 e5             	mov    %rsp,%rbp
    619c:	48 83 ec 10          	sub    $0x10,%rsp
    61a0:	89 7d fc             	mov    %edi,-0x4(%rbp)
    61a3:	89 75 f8             	mov    %esi,-0x8(%rbp)
    61a6:	8b 45 fc             	mov    -0x4(%rbp),%eax
    61a9:	89 c6                	mov    %eax,%esi
    61ab:	48 8d 3d 6e ae 00 00 	lea    0xae6e(%rip),%rdi        # 11020 <_IO_stdin_used+0x20>
    61b2:	b8 00 00 00 00       	mov    $0x0,%eax
    61b7:	e8 c4 fe ff ff       	callq  6080 <printf@plt>
    61bc:	90                   	nop
    61bd:	c9                   	leaveq 
    61be:	c3                   	retq   

00000000000061bf <safe_unary_minus_func_int8_t_s>:
    61bf:	f3 0f 1e fa          	endbr64 
    61c3:	55                   	push   %rbp
    61c4:	48 89 e5             	mov    %rsp,%rbp
    61c7:	89 f8                	mov    %edi,%eax
    61c9:	88 45 fc             	mov    %al,-0x4(%rbp)
    61cc:	0f b6 45 fc          	movzbl -0x4(%rbp),%eax
    61d0:	f7 d8                	neg    %eax
    61d2:	5d                   	pop    %rbp
    61d3:	c3                   	retq   

00000000000061d4 <safe_add_func_int8_t_s_s>:
    61d4:	f3 0f 1e fa          	endbr64 
    61d8:	55                   	push   %rbp
    61d9:	48 89 e5             	mov    %rsp,%rbp
    61dc:	89 fa                	mov    %edi,%edx
    61de:	89 f0                	mov    %esi,%eax
    61e0:	88 55 fc             	mov    %dl,-0x4(%rbp)
    61e3:	88 45 f8             	mov    %al,-0x8(%rbp)
    61e6:	0f b6 55 fc          	movzbl -0x4(%rbp),%edx
    61ea:	0f b6 45 f8          	movzbl -0x8(%rbp),%eax
    61ee:	01 d0                	add    %edx,%eax
    61f0:	5d                   	pop    %rbp
    61f1:	c3                   	retq   

00000000000061f2 <safe_sub_func_int8_t_s_s>:
    61f2:	f3 0f 1e fa          	endbr64 
    61f6:	55                   	push   %rbp
    61f7:	48 89 e5             	mov    %rsp,%rbp
    61fa:	89 fa                	mov    %edi,%edx
    61fc:	89 f0                	mov    %esi,%eax
    61fe:	88 55 fc             	mov    %dl,-0x4(%rbp)
    6201:	88 45 f8             	mov    %al,-0x8(%rbp)
    6204:	0f b6 55 fc          	movzbl -0x4(%rbp),%edx
    6208:	0f b6 45 f8          	movzbl -0x8(%rbp),%eax
    620c:	29 c2                	sub    %eax,%edx
    620e:	89 d0                	mov    %edx,%eax
    6210:	5d                   	pop    %rbp
    6211:	c3                   	retq   

0000000000006212 <safe_mul_func_int8_t_s_s>:
    6212:	f3 0f 1e fa          	endbr64 
    6216:	55                   	push   %rbp
    6217:	48 89 e5             	mov    %rsp,%rbp
    621a:	89 fa                	mov    %edi,%edx
    621c:	89 f0                	mov    %esi,%eax
    621e:	88 55 fc             	mov    %dl,-0x4(%rbp)
    6221:	88 45 f8             	mov    %al,-0x8(%rbp)
    6224:	0f b6 45 fc          	movzbl -0x4(%rbp),%eax
    6228:	0f b6 55 f8          	movzbl -0x8(%rbp),%edx
    622c:	0f af c2             	imul   %edx,%eax
    622f:	5d                   	pop    %rbp
    6230:	c3                   	retq   

0000000000006231 <safe_mod_func_int8_t_s_s>:
    6231:	f3 0f 1e fa          	endbr64 
    6235:	55                   	push   %rbp
    6236:	48 89 e5             	mov    %rsp,%rbp
    6239:	89 fa                	mov    %edi,%edx
    623b:	89 f0                	mov    %esi,%eax
    623d:	88 55 fc             	mov    %dl,-0x4(%rbp)
    6240:	88 45 f8             	mov    %al,-0x8(%rbp)
    6243:	80 7d f8 00          	cmpb   $0x0,-0x8(%rbp)
    6247:	74 1b                	je     6264 <safe_mod_func_int8_t_s_s+0x33>
    6249:	80 7d fc 80          	cmpb   $0x80,-0x4(%rbp)
    624d:	75 06                	jne    6255 <safe_mod_func_int8_t_s_s+0x24>
    624f:	80 7d f8 ff          	cmpb   $0xff,-0x8(%rbp)
    6253:	74 0f                	je     6264 <safe_mod_func_int8_t_s_s+0x33>
    6255:	0f be 45 fc          	movsbl -0x4(%rbp),%eax
    6259:	0f be 4d f8          	movsbl -0x8(%rbp),%ecx
    625d:	99                   	cltd   
    625e:	f7 f9                	idiv   %ecx
    6260:	89 d0                	mov    %edx,%eax
    6262:	eb 04                	jmp    6268 <safe_mod_func_int8_t_s_s+0x37>
    6264:	0f b6 45 fc          	movzbl -0x4(%rbp),%eax
    6268:	5d                   	pop    %rbp
    6269:	c3                   	retq   

000000000000626a <safe_div_func_int8_t_s_s>:
    626a:	f3 0f 1e fa          	endbr64 
    626e:	55                   	push   %rbp
    626f:	48 89 e5             	mov    %rsp,%rbp
    6272:	89 fa                	mov    %edi,%edx
    6274:	89 f0                	mov    %esi,%eax
    6276:	88 55 fc             	mov    %dl,-0x4(%rbp)
    6279:	88 45 f8             	mov    %al,-0x8(%rbp)
    627c:	80 7d f8 00          	cmpb   $0x0,-0x8(%rbp)
    6280:	74 19                	je     629b <safe_div_func_int8_t_s_s+0x31>
    6282:	80 7d fc 80          	cmpb   $0x80,-0x4(%rbp)
    6286:	75 06                	jne    628e <safe_div_func_int8_t_s_s+0x24>
    6288:	80 7d f8 ff          	cmpb   $0xff,-0x8(%rbp)
    628c:	74 0d                	je     629b <safe_div_func_int8_t_s_s+0x31>
    628e:	0f be 45 fc          	movsbl -0x4(%rbp),%eax
    6292:	0f be 4d f8          	movsbl -0x8(%rbp),%ecx
    6296:	99                   	cltd   
    6297:	f7 f9                	idiv   %ecx
    6299:	eb 04                	jmp    629f <safe_div_func_int8_t_s_s+0x35>
    629b:	0f b6 45 fc          	movzbl -0x4(%rbp),%eax
    629f:	5d                   	pop    %rbp
    62a0:	c3                   	retq   

00000000000062a1 <safe_lshift_func_int8_t_s_s>:
    62a1:	f3 0f 1e fa          	endbr64 
    62a5:	55                   	push   %rbp
    62a6:	48 89 e5             	mov    %rsp,%rbp
    62a9:	89 f8                	mov    %edi,%eax
    62ab:	89 75 f8             	mov    %esi,-0x8(%rbp)
    62ae:	88 45 fc             	mov    %al,-0x4(%rbp)
    62b1:	80 7d fc 00          	cmpb   $0x0,-0x4(%rbp)
    62b5:	78 31                	js     62e8 <safe_lshift_func_int8_t_s_s+0x47>
    62b7:	83 7d f8 00          	cmpl   $0x0,-0x8(%rbp)
    62bb:	78 2b                	js     62e8 <safe_lshift_func_int8_t_s_s+0x47>
    62bd:	83 7d f8 1f          	cmpl   $0x1f,-0x8(%rbp)
    62c1:	7f 25                	jg     62e8 <safe_lshift_func_int8_t_s_s+0x47>
    62c3:	0f be 55 fc          	movsbl -0x4(%rbp),%edx
    62c7:	8b 45 f8             	mov    -0x8(%rbp),%eax
    62ca:	be 7f 00 00 00       	mov    $0x7f,%esi
    62cf:	89 c1                	mov    %eax,%ecx
    62d1:	d3 fe                	sar    %cl,%esi
    62d3:	89 f0                	mov    %esi,%eax
    62d5:	39 c2                	cmp    %eax,%edx
    62d7:	7f 0f                	jg     62e8 <safe_lshift_func_int8_t_s_s+0x47>
    62d9:	0f be 55 fc          	movsbl -0x4(%rbp),%edx
    62dd:	8b 45 f8             	mov    -0x8(%rbp),%eax
    62e0:	89 c1                	mov    %eax,%ecx
    62e2:	d3 e2                	shl    %cl,%edx
    62e4:	89 d0                	mov    %edx,%eax
    62e6:	eb 04                	jmp    62ec <safe_lshift_func_int8_t_s_s+0x4b>
    62e8:	0f b6 45 fc          	movzbl -0x4(%rbp),%eax
    62ec:	5d                   	pop    %rbp
    62ed:	c3                   	retq   

00000000000062ee <safe_lshift_func_int8_t_s_u>:
    62ee:	f3 0f 1e fa          	endbr64 
    62f2:	55                   	push   %rbp
    62f3:	48 89 e5             	mov    %rsp,%rbp
    62f6:	89 f8                	mov    %edi,%eax
    62f8:	89 75 f8             	mov    %esi,-0x8(%rbp)
    62fb:	88 45 fc             	mov    %al,-0x4(%rbp)
    62fe:	80 7d fc 00          	cmpb   $0x0,-0x4(%rbp)
    6302:	78 2b                	js     632f <safe_lshift_func_int8_t_s_u+0x41>
    6304:	83 7d f8 1f          	cmpl   $0x1f,-0x8(%rbp)
    6308:	77 25                	ja     632f <safe_lshift_func_int8_t_s_u+0x41>
    630a:	0f be 55 fc          	movsbl -0x4(%rbp),%edx
    630e:	8b 45 f8             	mov    -0x8(%rbp),%eax
    6311:	be 7f 00 00 00       	mov    $0x7f,%esi
    6316:	89 c1                	mov    %eax,%ecx
    6318:	d3 fe                	sar    %cl,%esi
    631a:	89 f0                	mov    %esi,%eax
    631c:	39 c2                	cmp    %eax,%edx
    631e:	7f 0f                	jg     632f <safe_lshift_func_int8_t_s_u+0x41>
    6320:	0f be 55 fc          	movsbl -0x4(%rbp),%edx
    6324:	8b 45 f8             	mov    -0x8(%rbp),%eax
    6327:	89 c1                	mov    %eax,%ecx
    6329:	d3 e2                	shl    %cl,%edx
    632b:	89 d0                	mov    %edx,%eax
    632d:	eb 04                	jmp    6333 <safe_lshift_func_int8_t_s_u+0x45>
    632f:	0f b6 45 fc          	movzbl -0x4(%rbp),%eax
    6333:	5d                   	pop    %rbp
    6334:	c3                   	retq   

0000000000006335 <safe_rshift_func_int8_t_s_s>:
    6335:	f3 0f 1e fa          	endbr64 
    6339:	55                   	push   %rbp
    633a:	48 89 e5             	mov    %rsp,%rbp
    633d:	89 f8                	mov    %edi,%eax
    633f:	89 75 f8             	mov    %esi,-0x8(%rbp)
    6342:	88 45 fc             	mov    %al,-0x4(%rbp)
    6345:	80 7d fc 00          	cmpb   $0x0,-0x4(%rbp)
    6349:	78 1b                	js     6366 <safe_rshift_func_int8_t_s_s+0x31>
    634b:	83 7d f8 00          	cmpl   $0x0,-0x8(%rbp)
    634f:	78 15                	js     6366 <safe_rshift_func_int8_t_s_s+0x31>
    6351:	83 7d f8 1f          	cmpl   $0x1f,-0x8(%rbp)
    6355:	7f 0f                	jg     6366 <safe_rshift_func_int8_t_s_s+0x31>
    6357:	0f be 55 fc          	movsbl -0x4(%rbp),%edx
    635b:	8b 45 f8             	mov    -0x8(%rbp),%eax
    635e:	89 c1                	mov    %eax,%ecx
    6360:	d3 fa                	sar    %cl,%edx
    6362:	89 d0                	mov    %edx,%eax
    6364:	eb 04                	jmp    636a <safe_rshift_func_int8_t_s_s+0x35>
    6366:	0f b6 45 fc          	movzbl -0x4(%rbp),%eax
    636a:	5d                   	pop    %rbp
    636b:	c3                   	retq   

000000000000636c <safe_rshift_func_int8_t_s_u>:
    636c:	f3 0f 1e fa          	endbr64 
    6370:	55                   	push   %rbp
    6371:	48 89 e5             	mov    %rsp,%rbp
    6374:	89 f8                	mov    %edi,%eax
    6376:	89 75 f8             	mov    %esi,-0x8(%rbp)
    6379:	88 45 fc             	mov    %al,-0x4(%rbp)
    637c:	80 7d fc 00          	cmpb   $0x0,-0x4(%rbp)
    6380:	78 15                	js     6397 <safe_rshift_func_int8_t_s_u+0x2b>
    6382:	83 7d f8 1f          	cmpl   $0x1f,-0x8(%rbp)
    6386:	77 0f                	ja     6397 <safe_rshift_func_int8_t_s_u+0x2b>
    6388:	0f be 55 fc          	movsbl -0x4(%rbp),%edx
    638c:	8b 45 f8             	mov    -0x8(%rbp),%eax
    638f:	89 c1                	mov    %eax,%ecx
    6391:	d3 fa                	sar    %cl,%edx
    6393:	89 d0                	mov    %edx,%eax
    6395:	eb 04                	jmp    639b <safe_rshift_func_int8_t_s_u+0x2f>
    6397:	0f b6 45 fc          	movzbl -0x4(%rbp),%eax
    639b:	5d                   	pop    %rbp
    639c:	c3                   	retq   

000000000000639d <safe_unary_minus_func_int16_t_s>:
    639d:	f3 0f 1e fa          	endbr64 
    63a1:	55                   	push   %rbp
    63a2:	48 89 e5             	mov    %rsp,%rbp
    63a5:	89 f8                	mov    %edi,%eax
    63a7:	66 89 45 fc          	mov    %ax,-0x4(%rbp)
    63ab:	0f b7 45 fc          	movzwl -0x4(%rbp),%eax
    63af:	f7 d8                	neg    %eax
    63b1:	5d                   	pop    %rbp
    63b2:	c3                   	retq   

00000000000063b3 <safe_add_func_int16_t_s_s>:
    63b3:	f3 0f 1e fa          	endbr64 
    63b7:	55                   	push   %rbp
    63b8:	48 89 e5             	mov    %rsp,%rbp
    63bb:	89 fa                	mov    %edi,%edx
    63bd:	89 f0                	mov    %esi,%eax
    63bf:	66 89 55 fc          	mov    %dx,-0x4(%rbp)
    63c3:	66 89 45 f8          	mov    %ax,-0x8(%rbp)
    63c7:	0f b7 55 fc          	movzwl -0x4(%rbp),%edx
    63cb:	0f b7 45 f8          	movzwl -0x8(%rbp),%eax
    63cf:	01 d0                	add    %edx,%eax
    63d1:	5d                   	pop    %rbp
    63d2:	c3                   	retq   

00000000000063d3 <safe_sub_func_int16_t_s_s>:
    63d3:	f3 0f 1e fa          	endbr64 
    63d7:	55                   	push   %rbp
    63d8:	48 89 e5             	mov    %rsp,%rbp
    63db:	89 fa                	mov    %edi,%edx
    63dd:	89 f0                	mov    %esi,%eax
    63df:	66 89 55 fc          	mov    %dx,-0x4(%rbp)
    63e3:	66 89 45 f8          	mov    %ax,-0x8(%rbp)
    63e7:	0f b7 55 fc          	movzwl -0x4(%rbp),%edx
    63eb:	0f b7 45 f8          	movzwl -0x8(%rbp),%eax
    63ef:	29 c2                	sub    %eax,%edx
    63f1:	89 d0                	mov    %edx,%eax
    63f3:	5d                   	pop    %rbp
    63f4:	c3                   	retq   

00000000000063f5 <safe_mul_func_int16_t_s_s>:
    63f5:	f3 0f 1e fa          	endbr64 
    63f9:	55                   	push   %rbp
    63fa:	48 89 e5             	mov    %rsp,%rbp
    63fd:	89 fa                	mov    %edi,%edx
    63ff:	89 f0                	mov    %esi,%eax
    6401:	66 89 55 fc          	mov    %dx,-0x4(%rbp)
    6405:	66 89 45 f8          	mov    %ax,-0x8(%rbp)
    6409:	0f b7 55 fc          	movzwl -0x4(%rbp),%edx
    640d:	0f b7 45 f8          	movzwl -0x8(%rbp),%eax
    6411:	0f af c2             	imul   %edx,%eax
    6414:	5d                   	pop    %rbp
    6415:	c3                   	retq   

0000000000006416 <safe_mod_func_int16_t_s_s>:
    6416:	f3 0f 1e fa          	endbr64 
    641a:	55                   	push   %rbp
    641b:	48 89 e5             	mov    %rsp,%rbp
    641e:	89 fa                	mov    %edi,%edx
    6420:	89 f0                	mov    %esi,%eax
    6422:	66 89 55 fc          	mov    %dx,-0x4(%rbp)
    6426:	66 89 45 f8          	mov    %ax,-0x8(%rbp)
    642a:	66 83 7d f8 00       	cmpw   $0x0,-0x8(%rbp)
    642f:	74 1e                	je     644f <safe_mod_func_int16_t_s_s+0x39>
    6431:	66 81 7d fc 00 80    	cmpw   $0x8000,-0x4(%rbp)
    6437:	75 07                	jne    6440 <safe_mod_func_int16_t_s_s+0x2a>
    6439:	66 83 7d f8 ff       	cmpw   $0xffff,-0x8(%rbp)
    643e:	74 0f                	je     644f <safe_mod_func_int16_t_s_s+0x39>
    6440:	0f bf 45 fc          	movswl -0x4(%rbp),%eax
    6444:	0f bf 4d f8          	movswl -0x8(%rbp),%ecx
    6448:	99                   	cltd   
    6449:	f7 f9                	idiv   %ecx
    644b:	89 d0                	mov    %edx,%eax
    644d:	eb 04                	jmp    6453 <safe_mod_func_int16_t_s_s+0x3d>
    644f:	0f b7 45 fc          	movzwl -0x4(%rbp),%eax
    6453:	5d                   	pop    %rbp
    6454:	c3                   	retq   

0000000000006455 <safe_div_func_int16_t_s_s>:
    6455:	f3 0f 1e fa          	endbr64 
    6459:	55                   	push   %rbp
    645a:	48 89 e5             	mov    %rsp,%rbp
    645d:	89 fa                	mov    %edi,%edx
    645f:	89 f0                	mov    %esi,%eax
    6461:	66 89 55 fc          	mov    %dx,-0x4(%rbp)
    6465:	66 89 45 f8          	mov    %ax,-0x8(%rbp)
    6469:	66 83 7d f8 00       	cmpw   $0x0,-0x8(%rbp)
    646e:	74 1c                	je     648c <safe_div_func_int16_t_s_s+0x37>
    6470:	66 81 7d fc 00 80    	cmpw   $0x8000,-0x4(%rbp)
    6476:	75 07                	jne    647f <safe_div_func_int16_t_s_s+0x2a>
    6478:	66 83 7d f8 ff       	cmpw   $0xffff,-0x8(%rbp)
    647d:	74 0d                	je     648c <safe_div_func_int16_t_s_s+0x37>
    647f:	0f bf 45 fc          	movswl -0x4(%rbp),%eax
    6483:	0f bf 4d f8          	movswl -0x8(%rbp),%ecx
    6487:	99                   	cltd   
    6488:	f7 f9                	idiv   %ecx
    648a:	eb 04                	jmp    6490 <safe_div_func_int16_t_s_s+0x3b>
    648c:	0f b7 45 fc          	movzwl -0x4(%rbp),%eax
    6490:	5d                   	pop    %rbp
    6491:	c3                   	retq   

0000000000006492 <safe_lshift_func_int16_t_s_s>:
    6492:	f3 0f 1e fa          	endbr64 
    6496:	55                   	push   %rbp
    6497:	48 89 e5             	mov    %rsp,%rbp
    649a:	89 f8                	mov    %edi,%eax
    649c:	89 75 f8             	mov    %esi,-0x8(%rbp)
    649f:	66 89 45 fc          	mov    %ax,-0x4(%rbp)
    64a3:	66 83 7d fc 00       	cmpw   $0x0,-0x4(%rbp)
    64a8:	78 31                	js     64db <safe_lshift_func_int16_t_s_s+0x49>
    64aa:	83 7d f8 00          	cmpl   $0x0,-0x8(%rbp)
    64ae:	78 2b                	js     64db <safe_lshift_func_int16_t_s_s+0x49>
    64b0:	83 7d f8 1f          	cmpl   $0x1f,-0x8(%rbp)
    64b4:	7f 25                	jg     64db <safe_lshift_func_int16_t_s_s+0x49>
    64b6:	0f bf 55 fc          	movswl -0x4(%rbp),%edx
    64ba:	8b 45 f8             	mov    -0x8(%rbp),%eax
    64bd:	be ff 7f 00 00       	mov    $0x7fff,%esi
    64c2:	89 c1                	mov    %eax,%ecx
    64c4:	d3 fe                	sar    %cl,%esi
    64c6:	89 f0                	mov    %esi,%eax
    64c8:	39 c2                	cmp    %eax,%edx
    64ca:	7f 0f                	jg     64db <safe_lshift_func_int16_t_s_s+0x49>
    64cc:	0f bf 55 fc          	movswl -0x4(%rbp),%edx
    64d0:	8b 45 f8             	mov    -0x8(%rbp),%eax
    64d3:	89 c1                	mov    %eax,%ecx
    64d5:	d3 e2                	shl    %cl,%edx
    64d7:	89 d0                	mov    %edx,%eax
    64d9:	eb 04                	jmp    64df <safe_lshift_func_int16_t_s_s+0x4d>
    64db:	0f b7 45 fc          	movzwl -0x4(%rbp),%eax
    64df:	5d                   	pop    %rbp
    64e0:	c3                   	retq   

00000000000064e1 <safe_lshift_func_int16_t_s_u>:
    64e1:	f3 0f 1e fa          	endbr64 
    64e5:	55                   	push   %rbp
    64e6:	48 89 e5             	mov    %rsp,%rbp
    64e9:	89 f8                	mov    %edi,%eax
    64eb:	89 75 f8             	mov    %esi,-0x8(%rbp)
    64ee:	66 89 45 fc          	mov    %ax,-0x4(%rbp)
    64f2:	66 83 7d fc 00       	cmpw   $0x0,-0x4(%rbp)
    64f7:	78 2b                	js     6524 <safe_lshift_func_int16_t_s_u+0x43>
    64f9:	83 7d f8 1f          	cmpl   $0x1f,-0x8(%rbp)
    64fd:	77 25                	ja     6524 <safe_lshift_func_int16_t_s_u+0x43>
    64ff:	0f bf 55 fc          	movswl -0x4(%rbp),%edx
    6503:	8b 45 f8             	mov    -0x8(%rbp),%eax
    6506:	be ff 7f 00 00       	mov    $0x7fff,%esi
    650b:	89 c1                	mov    %eax,%ecx
    650d:	d3 fe                	sar    %cl,%esi
    650f:	89 f0                	mov    %esi,%eax
    6511:	39 c2                	cmp    %eax,%edx
    6513:	7f 0f                	jg     6524 <safe_lshift_func_int16_t_s_u+0x43>
    6515:	0f bf 55 fc          	movswl -0x4(%rbp),%edx
    6519:	8b 45 f8             	mov    -0x8(%rbp),%eax
    651c:	89 c1                	mov    %eax,%ecx
    651e:	d3 e2                	shl    %cl,%edx
    6520:	89 d0                	mov    %edx,%eax
    6522:	eb 04                	jmp    6528 <safe_lshift_func_int16_t_s_u+0x47>
    6524:	0f b7 45 fc          	movzwl -0x4(%rbp),%eax
    6528:	5d                   	pop    %rbp
    6529:	c3                   	retq   

000000000000652a <safe_rshift_func_int16_t_s_s>:
    652a:	f3 0f 1e fa          	endbr64 
    652e:	55                   	push   %rbp
    652f:	48 89 e5             	mov    %rsp,%rbp
    6532:	89 f8                	mov    %edi,%eax
    6534:	89 75 f8             	mov    %esi,-0x8(%rbp)
    6537:	66 89 45 fc          	mov    %ax,-0x4(%rbp)
    653b:	66 83 7d fc 00       	cmpw   $0x0,-0x4(%rbp)
    6540:	78 1b                	js     655d <safe_rshift_func_int16_t_s_s+0x33>
    6542:	83 7d f8 00          	cmpl   $0x0,-0x8(%rbp)
    6546:	78 15                	js     655d <safe_rshift_func_int16_t_s_s+0x33>
    6548:	83 7d f8 1f          	cmpl   $0x1f,-0x8(%rbp)
    654c:	7f 0f                	jg     655d <safe_rshift_func_int16_t_s_s+0x33>
    654e:	0f bf 55 fc          	movswl -0x4(%rbp),%edx
    6552:	8b 45 f8             	mov    -0x8(%rbp),%eax
    6555:	89 c1                	mov    %eax,%ecx
    6557:	d3 fa                	sar    %cl,%edx
    6559:	89 d0                	mov    %edx,%eax
    655b:	eb 04                	jmp    6561 <safe_rshift_func_int16_t_s_s+0x37>
    655d:	0f b7 45 fc          	movzwl -0x4(%rbp),%eax
    6561:	5d                   	pop    %rbp
    6562:	c3                   	retq   

0000000000006563 <safe_rshift_func_int16_t_s_u>:
    6563:	f3 0f 1e fa          	endbr64 
    6567:	55                   	push   %rbp
    6568:	48 89 e5             	mov    %rsp,%rbp
    656b:	89 f8                	mov    %edi,%eax
    656d:	89 75 f8             	mov    %esi,-0x8(%rbp)
    6570:	66 89 45 fc          	mov    %ax,-0x4(%rbp)
    6574:	66 83 7d fc 00       	cmpw   $0x0,-0x4(%rbp)
    6579:	78 15                	js     6590 <safe_rshift_func_int16_t_s_u+0x2d>
    657b:	83 7d f8 1f          	cmpl   $0x1f,-0x8(%rbp)
    657f:	77 0f                	ja     6590 <safe_rshift_func_int16_t_s_u+0x2d>
    6581:	0f bf 55 fc          	movswl -0x4(%rbp),%edx
    6585:	8b 45 f8             	mov    -0x8(%rbp),%eax
    6588:	89 c1                	mov    %eax,%ecx
    658a:	d3 fa                	sar    %cl,%edx
    658c:	89 d0                	mov    %edx,%eax
    658e:	eb 04                	jmp    6594 <safe_rshift_func_int16_t_s_u+0x31>
    6590:	0f b7 45 fc          	movzwl -0x4(%rbp),%eax
    6594:	5d                   	pop    %rbp
    6595:	c3                   	retq   

0000000000006596 <safe_unary_minus_func_int32_t_s>:
    6596:	f3 0f 1e fa          	endbr64 
    659a:	55                   	push   %rbp
    659b:	48 89 e5             	mov    %rsp,%rbp
    659e:	89 7d fc             	mov    %edi,-0x4(%rbp)
    65a1:	81 7d fc 00 00 00 80 	cmpl   $0x80000000,-0x4(%rbp)
    65a8:	74 07                	je     65b1 <safe_unary_minus_func_int32_t_s+0x1b>
    65aa:	8b 45 fc             	mov    -0x4(%rbp),%eax
    65ad:	f7 d8                	neg    %eax
    65af:	eb 03                	jmp    65b4 <safe_unary_minus_func_int32_t_s+0x1e>
    65b1:	8b 45 fc             	mov    -0x4(%rbp),%eax
    65b4:	5d                   	pop    %rbp
    65b5:	c3                   	retq   

00000000000065b6 <safe_add_func_int32_t_s_s>:
    65b6:	f3 0f 1e fa          	endbr64 
    65ba:	55                   	push   %rbp
    65bb:	48 89 e5             	mov    %rsp,%rbp
    65be:	89 7d fc             	mov    %edi,-0x4(%rbp)
    65c1:	89 75 f8             	mov    %esi,-0x8(%rbp)
    65c4:	83 7d fc 00          	cmpl   $0x0,-0x4(%rbp)
    65c8:	7e 13                	jle    65dd <safe_add_func_int32_t_s_s+0x27>
    65ca:	83 7d f8 00          	cmpl   $0x0,-0x8(%rbp)
    65ce:	7e 0d                	jle    65dd <safe_add_func_int32_t_s_s+0x27>
    65d0:	b8 ff ff ff 7f       	mov    $0x7fffffff,%eax
    65d5:	2b 45 f8             	sub    -0x8(%rbp),%eax
    65d8:	39 45 fc             	cmp    %eax,-0x4(%rbp)
    65db:	7f 23                	jg     6600 <safe_add_func_int32_t_s_s+0x4a>
    65dd:	83 7d fc 00          	cmpl   $0x0,-0x4(%rbp)
    65e1:	79 13                	jns    65f6 <safe_add_func_int32_t_s_s+0x40>
    65e3:	83 7d f8 00          	cmpl   $0x0,-0x8(%rbp)
    65e7:	79 0d                	jns    65f6 <safe_add_func_int32_t_s_s+0x40>
    65e9:	b8 00 00 00 80       	mov    $0x80000000,%eax
    65ee:	2b 45 f8             	sub    -0x8(%rbp),%eax
    65f1:	39 45 fc             	cmp    %eax,-0x4(%rbp)
    65f4:	7c 0a                	jl     6600 <safe_add_func_int32_t_s_s+0x4a>
    65f6:	8b 55 fc             	mov    -0x4(%rbp),%edx
    65f9:	8b 45 f8             	mov    -0x8(%rbp),%eax
    65fc:	01 d0                	add    %edx,%eax
    65fe:	eb 03                	jmp    6603 <safe_add_func_int32_t_s_s+0x4d>
    6600:	8b 45 fc             	mov    -0x4(%rbp),%eax
    6603:	5d                   	pop    %rbp
    6604:	c3                   	retq   

0000000000006605 <safe_sub_func_int32_t_s_s>:
    6605:	f3 0f 1e fa          	endbr64 
    6609:	55                   	push   %rbp
    660a:	48 89 e5             	mov    %rsp,%rbp
    660d:	89 7d fc             	mov    %edi,-0x4(%rbp)
    6610:	89 75 f8             	mov    %esi,-0x8(%rbp)
    6613:	8b 45 fc             	mov    -0x4(%rbp),%eax
    6616:	33 45 f8             	xor    -0x8(%rbp),%eax
    6619:	89 c2                	mov    %eax,%edx
    661b:	8b 45 fc             	mov    -0x4(%rbp),%eax
    661e:	33 45 f8             	xor    -0x8(%rbp),%eax
    6621:	25 00 00 00 80       	and    $0x80000000,%eax
    6626:	33 45 fc             	xor    -0x4(%rbp),%eax
    6629:	2b 45 f8             	sub    -0x8(%rbp),%eax
    662c:	33 45 f8             	xor    -0x8(%rbp),%eax
    662f:	21 d0                	and    %edx,%eax
    6631:	85 c0                	test   %eax,%eax
    6633:	78 08                	js     663d <safe_sub_func_int32_t_s_s+0x38>
    6635:	8b 45 fc             	mov    -0x4(%rbp),%eax
    6638:	2b 45 f8             	sub    -0x8(%rbp),%eax
    663b:	eb 03                	jmp    6640 <safe_sub_func_int32_t_s_s+0x3b>
    663d:	8b 45 fc             	mov    -0x4(%rbp),%eax
    6640:	5d                   	pop    %rbp
    6641:	c3                   	retq   

0000000000006642 <safe_mul_func_int32_t_s_s>:
    6642:	f3 0f 1e fa          	endbr64 
    6646:	55                   	push   %rbp
    6647:	48 89 e5             	mov    %rsp,%rbp
    664a:	89 7d fc             	mov    %edi,-0x4(%rbp)
    664d:	89 75 f8             	mov    %esi,-0x8(%rbp)
    6650:	83 7d fc 00          	cmpl   $0x0,-0x4(%rbp)
    6654:	7e 14                	jle    666a <safe_mul_func_int32_t_s_s+0x28>
    6656:	83 7d f8 00          	cmpl   $0x0,-0x8(%rbp)
    665a:	7e 0e                	jle    666a <safe_mul_func_int32_t_s_s+0x28>
    665c:	b8 ff ff ff 7f       	mov    $0x7fffffff,%eax
    6661:	99                   	cltd   
    6662:	f7 7d f8             	idivl  -0x8(%rbp)
    6665:	39 45 fc             	cmp    %eax,-0x4(%rbp)
    6668:	7f 5d                	jg     66c7 <safe_mul_func_int32_t_s_s+0x85>
    666a:	83 7d fc 00          	cmpl   $0x0,-0x4(%rbp)
    666e:	7e 14                	jle    6684 <safe_mul_func_int32_t_s_s+0x42>
    6670:	83 7d f8 00          	cmpl   $0x0,-0x8(%rbp)
    6674:	7f 0e                	jg     6684 <safe_mul_func_int32_t_s_s+0x42>
    6676:	b8 00 00 00 80       	mov    $0x80000000,%eax
    667b:	99                   	cltd   
    667c:	f7 7d fc             	idivl  -0x4(%rbp)
    667f:	39 45 f8             	cmp    %eax,-0x8(%rbp)
    6682:	7c 43                	jl     66c7 <safe_mul_func_int32_t_s_s+0x85>
    6684:	83 7d fc 00          	cmpl   $0x0,-0x4(%rbp)
    6688:	7f 14                	jg     669e <safe_mul_func_int32_t_s_s+0x5c>
    668a:	83 7d f8 00          	cmpl   $0x0,-0x8(%rbp)
    668e:	7e 0e                	jle    669e <safe_mul_func_int32_t_s_s+0x5c>
    6690:	b8 00 00 00 80       	mov    $0x80000000,%eax
    6695:	99                   	cltd   
    6696:	f7 7d f8             	idivl  -0x8(%rbp)
    6699:	39 45 fc             	cmp    %eax,-0x4(%rbp)
    669c:	7c 29                	jl     66c7 <safe_mul_func_int32_t_s_s+0x85>
    669e:	83 7d fc 00          	cmpl   $0x0,-0x4(%rbp)
    66a2:	7f 1a                	jg     66be <safe_mul_func_int32_t_s_s+0x7c>
    66a4:	83 7d f8 00          	cmpl   $0x0,-0x8(%rbp)
    66a8:	7f 14                	jg     66be <safe_mul_func_int32_t_s_s+0x7c>
    66aa:	83 7d fc 00          	cmpl   $0x0,-0x4(%rbp)
    66ae:	74 0e                	je     66be <safe_mul_func_int32_t_s_s+0x7c>
    66b0:	b8 ff ff ff 7f       	mov    $0x7fffffff,%eax
    66b5:	99                   	cltd   
    66b6:	f7 7d fc             	idivl  -0x4(%rbp)
    66b9:	39 45 f8             	cmp    %eax,-0x8(%rbp)
    66bc:	7c 09                	jl     66c7 <safe_mul_func_int32_t_s_s+0x85>
    66be:	8b 45 fc             	mov    -0x4(%rbp),%eax
    66c1:	0f af 45 f8          	imul   -0x8(%rbp),%eax
    66c5:	eb 03                	jmp    66ca <safe_mul_func_int32_t_s_s+0x88>
    66c7:	8b 45 fc             	mov    -0x4(%rbp),%eax
    66ca:	5d                   	pop    %rbp
    66cb:	c3                   	retq   

00000000000066cc <safe_mod_func_int32_t_s_s>:
    66cc:	f3 0f 1e fa          	endbr64 
    66d0:	55                   	push   %rbp
    66d1:	48 89 e5             	mov    %rsp,%rbp
    66d4:	89 7d fc             	mov    %edi,-0x4(%rbp)
    66d7:	89 75 f8             	mov    %esi,-0x8(%rbp)
    66da:	83 7d f8 00          	cmpl   $0x0,-0x8(%rbp)
    66de:	74 1a                	je     66fa <safe_mod_func_int32_t_s_s+0x2e>
    66e0:	81 7d fc 00 00 00 80 	cmpl   $0x80000000,-0x4(%rbp)
    66e7:	75 06                	jne    66ef <safe_mod_func_int32_t_s_s+0x23>
    66e9:	83 7d f8 ff          	cmpl   $0xffffffff,-0x8(%rbp)
    66ed:	74 0b                	je     66fa <safe_mod_func_int32_t_s_s+0x2e>
    66ef:	8b 45 fc             	mov    -0x4(%rbp),%eax
    66f2:	99                   	cltd   
    66f3:	f7 7d f8             	idivl  -0x8(%rbp)
    66f6:	89 d0                	mov    %edx,%eax
    66f8:	eb 03                	jmp    66fd <safe_mod_func_int32_t_s_s+0x31>
    66fa:	8b 45 fc             	mov    -0x4(%rbp),%eax
    66fd:	5d                   	pop    %rbp
    66fe:	c3                   	retq   

00000000000066ff <safe_div_func_int32_t_s_s>:
    66ff:	f3 0f 1e fa          	endbr64 
    6703:	55                   	push   %rbp
    6704:	48 89 e5             	mov    %rsp,%rbp
    6707:	89 7d fc             	mov    %edi,-0x4(%rbp)
    670a:	89 75 f8             	mov    %esi,-0x8(%rbp)
    670d:	83 7d f8 00          	cmpl   $0x0,-0x8(%rbp)
    6711:	74 18                	je     672b <safe_div_func_int32_t_s_s+0x2c>
    6713:	81 7d fc 00 00 00 80 	cmpl   $0x80000000,-0x4(%rbp)
    671a:	75 06                	jne    6722 <safe_div_func_int32_t_s_s+0x23>
    671c:	83 7d f8 ff          	cmpl   $0xffffffff,-0x8(%rbp)
    6720:	74 09                	je     672b <safe_div_func_int32_t_s_s+0x2c>
    6722:	8b 45 fc             	mov    -0x4(%rbp),%eax
    6725:	99                   	cltd   
    6726:	f7 7d f8             	idivl  -0x8(%rbp)
    6729:	eb 03                	jmp    672e <safe_div_func_int32_t_s_s+0x2f>
    672b:	8b 45 fc             	mov    -0x4(%rbp),%eax
    672e:	5d                   	pop    %rbp
    672f:	c3                   	retq   

0000000000006730 <safe_lshift_func_int32_t_s_s>:
    6730:	f3 0f 1e fa          	endbr64 
    6734:	55                   	push   %rbp
    6735:	48 89 e5             	mov    %rsp,%rbp
    6738:	89 7d fc             	mov    %edi,-0x4(%rbp)
    673b:	89 75 f8             	mov    %esi,-0x8(%rbp)
    673e:	83 7d fc 00          	cmpl   $0x0,-0x4(%rbp)
    6742:	78 2d                	js     6771 <safe_lshift_func_int32_t_s_s+0x41>
    6744:	83 7d f8 00          	cmpl   $0x0,-0x8(%rbp)
    6748:	78 27                	js     6771 <safe_lshift_func_int32_t_s_s+0x41>
    674a:	83 7d f8 1f          	cmpl   $0x1f,-0x8(%rbp)
    674e:	7f 21                	jg     6771 <safe_lshift_func_int32_t_s_s+0x41>
    6750:	8b 45 f8             	mov    -0x8(%rbp),%eax
    6753:	ba ff ff ff 7f       	mov    $0x7fffffff,%edx
    6758:	89 c1                	mov    %eax,%ecx
    675a:	d3 fa                	sar    %cl,%edx
    675c:	89 d0                	mov    %edx,%eax
    675e:	39 45 fc             	cmp    %eax,-0x4(%rbp)
    6761:	7f 0e                	jg     6771 <safe_lshift_func_int32_t_s_s+0x41>
    6763:	8b 45 f8             	mov    -0x8(%rbp),%eax
    6766:	8b 55 fc             	mov    -0x4(%rbp),%edx
    6769:	89 c1                	mov    %eax,%ecx
    676b:	d3 e2                	shl    %cl,%edx
    676d:	89 d0                	mov    %edx,%eax
    676f:	eb 03                	jmp    6774 <safe_lshift_func_int32_t_s_s+0x44>
    6771:	8b 45 fc             	mov    -0x4(%rbp),%eax
    6774:	5d                   	pop    %rbp
    6775:	c3                   	retq   

0000000000006776 <safe_lshift_func_int32_t_s_u>:
    6776:	f3 0f 1e fa          	endbr64 
    677a:	55                   	push   %rbp
    677b:	48 89 e5             	mov    %rsp,%rbp
    677e:	89 7d fc             	mov    %edi,-0x4(%rbp)
    6781:	89 75 f8             	mov    %esi,-0x8(%rbp)
    6784:	83 7d fc 00          	cmpl   $0x0,-0x4(%rbp)
    6788:	78 27                	js     67b1 <safe_lshift_func_int32_t_s_u+0x3b>
    678a:	83 7d f8 1f          	cmpl   $0x1f,-0x8(%rbp)
    678e:	77 21                	ja     67b1 <safe_lshift_func_int32_t_s_u+0x3b>
    6790:	8b 45 f8             	mov    -0x8(%rbp),%eax
    6793:	ba ff ff ff 7f       	mov    $0x7fffffff,%edx
    6798:	89 c1                	mov    %eax,%ecx
    679a:	d3 fa                	sar    %cl,%edx
    679c:	89 d0                	mov    %edx,%eax
    679e:	39 45 fc             	cmp    %eax,-0x4(%rbp)
    67a1:	7f 0e                	jg     67b1 <safe_lshift_func_int32_t_s_u+0x3b>
    67a3:	8b 45 f8             	mov    -0x8(%rbp),%eax
    67a6:	8b 55 fc             	mov    -0x4(%rbp),%edx
    67a9:	89 c1                	mov    %eax,%ecx
    67ab:	d3 e2                	shl    %cl,%edx
    67ad:	89 d0                	mov    %edx,%eax
    67af:	eb 03                	jmp    67b4 <safe_lshift_func_int32_t_s_u+0x3e>
    67b1:	8b 45 fc             	mov    -0x4(%rbp),%eax
    67b4:	5d                   	pop    %rbp
    67b5:	c3                   	retq   

00000000000067b6 <safe_rshift_func_int32_t_s_s>:
    67b6:	f3 0f 1e fa          	endbr64 
    67ba:	55                   	push   %rbp
    67bb:	48 89 e5             	mov    %rsp,%rbp
    67be:	89 7d fc             	mov    %edi,-0x4(%rbp)
    67c1:	89 75 f8             	mov    %esi,-0x8(%rbp)
    67c4:	83 7d fc 00          	cmpl   $0x0,-0x4(%rbp)
    67c8:	78 1a                	js     67e4 <safe_rshift_func_int32_t_s_s+0x2e>
    67ca:	83 7d f8 00          	cmpl   $0x0,-0x8(%rbp)
    67ce:	78 14                	js     67e4 <safe_rshift_func_int32_t_s_s+0x2e>
    67d0:	83 7d f8 1f          	cmpl   $0x1f,-0x8(%rbp)
    67d4:	7f 0e                	jg     67e4 <safe_rshift_func_int32_t_s_s+0x2e>
    67d6:	8b 45 f8             	mov    -0x8(%rbp),%eax
    67d9:	8b 55 fc             	mov    -0x4(%rbp),%edx
    67dc:	89 c1                	mov    %eax,%ecx
    67de:	d3 fa                	sar    %cl,%edx
    67e0:	89 d0                	mov    %edx,%eax
    67e2:	eb 03                	jmp    67e7 <safe_rshift_func_int32_t_s_s+0x31>
    67e4:	8b 45 fc             	mov    -0x4(%rbp),%eax
    67e7:	5d                   	pop    %rbp
    67e8:	c3                   	retq   

00000000000067e9 <safe_rshift_func_int32_t_s_u>:
    67e9:	f3 0f 1e fa          	endbr64 
    67ed:	55                   	push   %rbp
    67ee:	48 89 e5             	mov    %rsp,%rbp
    67f1:	89 7d fc             	mov    %edi,-0x4(%rbp)
    67f4:	89 75 f8             	mov    %esi,-0x8(%rbp)
    67f7:	83 7d fc 00          	cmpl   $0x0,-0x4(%rbp)
    67fb:	78 14                	js     6811 <safe_rshift_func_int32_t_s_u+0x28>
    67fd:	83 7d f8 1f          	cmpl   $0x1f,-0x8(%rbp)
    6801:	77 0e                	ja     6811 <safe_rshift_func_int32_t_s_u+0x28>
    6803:	8b 45 f8             	mov    -0x8(%rbp),%eax
    6806:	8b 55 fc             	mov    -0x4(%rbp),%edx
    6809:	89 c1                	mov    %eax,%ecx
    680b:	d3 fa                	sar    %cl,%edx
    680d:	89 d0                	mov    %edx,%eax
    680f:	eb 03                	jmp    6814 <safe_rshift_func_int32_t_s_u+0x2b>
    6811:	8b 45 fc             	mov    -0x4(%rbp),%eax
    6814:	5d                   	pop    %rbp
    6815:	c3                   	retq   

0000000000006816 <safe_unary_minus_func_int64_t_s>:
    6816:	f3 0f 1e fa          	endbr64 
    681a:	55                   	push   %rbp
    681b:	48 89 e5             	mov    %rsp,%rbp
    681e:	48 89 7d f8          	mov    %rdi,-0x8(%rbp)
    6822:	48 b8 00 00 00 00 00 	movabs $0x8000000000000000,%rax
    6829:	00 00 80 
    682c:	48 39 45 f8          	cmp    %rax,-0x8(%rbp)
    6830:	74 09                	je     683b <safe_unary_minus_func_int64_t_s+0x25>
    6832:	48 8b 45 f8          	mov    -0x8(%rbp),%rax
    6836:	48 f7 d8             	neg    %rax
    6839:	eb 04                	jmp    683f <safe_unary_minus_func_int64_t_s+0x29>
    683b:	48 8b 45 f8          	mov    -0x8(%rbp),%rax
    683f:	5d                   	pop    %rbp
    6840:	c3                   	retq   

0000000000006841 <safe_add_func_int64_t_s_s>:
    6841:	f3 0f 1e fa          	endbr64 
    6845:	55                   	push   %rbp
    6846:	48 89 e5             	mov    %rsp,%rbp
    6849:	48 89 7d f8          	mov    %rdi,-0x8(%rbp)
    684d:	48 89 75 f0          	mov    %rsi,-0x10(%rbp)
    6851:	48 83 7d f8 00       	cmpq   $0x0,-0x8(%rbp)
    6856:	7e 1b                	jle    6873 <safe_add_func_int64_t_s_s+0x32>
    6858:	48 83 7d f0 00       	cmpq   $0x0,-0x10(%rbp)
    685d:	7e 14                	jle    6873 <safe_add_func_int64_t_s_s+0x32>
    685f:	48 b8 ff ff ff ff ff 	movabs $0x7fffffffffffffff,%rax
    6866:	ff ff 7f 
    6869:	48 2b 45 f0          	sub    -0x10(%rbp),%rax
    686d:	48 39 45 f8          	cmp    %rax,-0x8(%rbp)
    6871:	7f 2f                	jg     68a2 <safe_add_func_int64_t_s_s+0x61>
    6873:	48 83 7d f8 00       	cmpq   $0x0,-0x8(%rbp)
    6878:	79 1b                	jns    6895 <safe_add_func_int64_t_s_s+0x54>
    687a:	48 83 7d f0 00       	cmpq   $0x0,-0x10(%rbp)
    687f:	79 14                	jns    6895 <safe_add_func_int64_t_s_s+0x54>
    6881:	48 b8 00 00 00 00 00 	movabs $0x8000000000000000,%rax
    6888:	00 00 80 
    688b:	48 2b 45 f0          	sub    -0x10(%rbp),%rax
    688f:	48 39 45 f8          	cmp    %rax,-0x8(%rbp)
    6893:	7c 0d                	jl     68a2 <safe_add_func_int64_t_s_s+0x61>
    6895:	48 8b 55 f8          	mov    -0x8(%rbp),%rdx
    6899:	48 8b 45 f0          	mov    -0x10(%rbp),%rax
    689d:	48 01 d0             	add    %rdx,%rax
    68a0:	eb 04                	jmp    68a6 <safe_add_func_int64_t_s_s+0x65>
    68a2:	48 8b 45 f8          	mov    -0x8(%rbp),%rax
    68a6:	5d                   	pop    %rbp
    68a7:	c3                   	retq   

00000000000068a8 <safe_sub_func_int64_t_s_s>:
    68a8:	f3 0f 1e fa          	endbr64 
    68ac:	55                   	push   %rbp
    68ad:	48 89 e5             	mov    %rsp,%rbp
    68b0:	48 89 7d f8          	mov    %rdi,-0x8(%rbp)
    68b4:	48 89 75 f0          	mov    %rsi,-0x10(%rbp)
    68b8:	48 8b 45 f8          	mov    -0x8(%rbp),%rax
    68bc:	48 33 45 f0          	xor    -0x10(%rbp),%rax
    68c0:	48 89 c2             	mov    %rax,%rdx
    68c3:	48 8b 45 f8          	mov    -0x8(%rbp),%rax
    68c7:	48 33 45 f0          	xor    -0x10(%rbp),%rax
    68cb:	48 b9 00 00 00 00 00 	movabs $0x8000000000000000,%rcx
    68d2:	00 00 80 
    68d5:	48 21 c8             	and    %rcx,%rax
    68d8:	48 33 45 f8          	xor    -0x8(%rbp),%rax
    68dc:	48 2b 45 f0          	sub    -0x10(%rbp),%rax
    68e0:	48 33 45 f0          	xor    -0x10(%rbp),%rax
    68e4:	48 21 d0             	and    %rdx,%rax
    68e7:	48 85 c0             	test   %rax,%rax
    68ea:	78 0a                	js     68f6 <safe_sub_func_int64_t_s_s+0x4e>
    68ec:	48 8b 45 f8          	mov    -0x8(%rbp),%rax
    68f0:	48 2b 45 f0          	sub    -0x10(%rbp),%rax
    68f4:	eb 04                	jmp    68fa <safe_sub_func_int64_t_s_s+0x52>
    68f6:	48 8b 45 f8          	mov    -0x8(%rbp),%rax
    68fa:	5d                   	pop    %rbp
    68fb:	c3                   	retq   

00000000000068fc <safe_mul_func_int64_t_s_s>:
    68fc:	f3 0f 1e fa          	endbr64 
    6900:	55                   	push   %rbp
    6901:	48 89 e5             	mov    %rsp,%rbp
    6904:	48 89 7d f8          	mov    %rdi,-0x8(%rbp)
    6908:	48 89 75 f0          	mov    %rsi,-0x10(%rbp)
    690c:	48 83 7d f8 00       	cmpq   $0x0,-0x8(%rbp)
    6911:	7e 1d                	jle    6930 <safe_mul_func_int64_t_s_s+0x34>
    6913:	48 83 7d f0 00       	cmpq   $0x0,-0x10(%rbp)
    6918:	7e 16                	jle    6930 <safe_mul_func_int64_t_s_s+0x34>
    691a:	48 b8 ff ff ff ff ff 	movabs $0x7fffffffffffffff,%rax
    6921:	ff ff 7f 
    6924:	48 99                	cqto   
    6926:	48 f7 7d f0          	idivq  -0x10(%rbp)
    692a:	48 39 45 f8          	cmp    %rax,-0x8(%rbp)
    692e:	7f 7e                	jg     69ae <safe_mul_func_int64_t_s_s+0xb2>
    6930:	48 83 7d f8 00       	cmpq   $0x0,-0x8(%rbp)
    6935:	7e 1d                	jle    6954 <safe_mul_func_int64_t_s_s+0x58>
    6937:	48 83 7d f0 00       	cmpq   $0x0,-0x10(%rbp)
    693c:	7f 16                	jg     6954 <safe_mul_func_int64_t_s_s+0x58>
    693e:	48 b8 00 00 00 00 00 	movabs $0x8000000000000000,%rax
    6945:	00 00 80 
    6948:	48 99                	cqto   
    694a:	48 f7 7d f8          	idivq  -0x8(%rbp)
    694e:	48 39 45 f0          	cmp    %rax,-0x10(%rbp)
    6952:	7c 5a                	jl     69ae <safe_mul_func_int64_t_s_s+0xb2>
    6954:	48 83 7d f8 00       	cmpq   $0x0,-0x8(%rbp)
    6959:	7f 1d                	jg     6978 <safe_mul_func_int64_t_s_s+0x7c>
    695b:	48 83 7d f0 00       	cmpq   $0x0,-0x10(%rbp)
    6960:	7e 16                	jle    6978 <safe_mul_func_int64_t_s_s+0x7c>
    6962:	48 b8 00 00 00 00 00 	movabs $0x8000000000000000,%rax
    6969:	00 00 80 
    696c:	48 99                	cqto   
    696e:	48 f7 7d f0          	idivq  -0x10(%rbp)
    6972:	48 39 45 f8          	cmp    %rax,-0x8(%rbp)
    6976:	7c 36                	jl     69ae <safe_mul_func_int64_t_s_s+0xb2>
    6978:	48 83 7d f8 00       	cmpq   $0x0,-0x8(%rbp)
    697d:	7f 24                	jg     69a3 <safe_mul_func_int64_t_s_s+0xa7>
    697f:	48 83 7d f0 00       	cmpq   $0x0,-0x10(%rbp)
    6984:	7f 1d                	jg     69a3 <safe_mul_func_int64_t_s_s+0xa7>
    6986:	48 83 7d f8 00       	cmpq   $0x0,-0x8(%rbp)
    698b:	74 16                	je     69a3 <safe_mul_func_int64_t_s_s+0xa7>
    698d:	48 b8 ff ff ff ff ff 	movabs $0x7fffffffffffffff,%rax
    6994:	ff ff 7f 
    6997:	48 99                	cqto   
    6999:	48 f7 7d f8          	idivq  -0x8(%rbp)
    699d:	48 39 45 f0          	cmp    %rax,-0x10(%rbp)
    69a1:	7c 0b                	jl     69ae <safe_mul_func_int64_t_s_s+0xb2>
    69a3:	48 8b 45 f8          	mov    -0x8(%rbp),%rax
    69a7:	48 0f af 45 f0       	imul   -0x10(%rbp),%rax
    69ac:	eb 04                	jmp    69b2 <safe_mul_func_int64_t_s_s+0xb6>
    69ae:	48 8b 45 f8          	mov    -0x8(%rbp),%rax
    69b2:	5d                   	pop    %rbp
    69b3:	c3                   	retq   

00000000000069b4 <safe_mod_func_int64_t_s_s>:
    69b4:	f3 0f 1e fa          	endbr64 
    69b8:	55                   	push   %rbp
    69b9:	48 89 e5             	mov    %rsp,%rbp
    69bc:	48 89 7d f8          	mov    %rdi,-0x8(%rbp)
    69c0:	48 89 75 f0          	mov    %rsi,-0x10(%rbp)
    69c4:	48 83 7d f0 00       	cmpq   $0x0,-0x10(%rbp)
    69c9:	74 26                	je     69f1 <safe_mod_func_int64_t_s_s+0x3d>
    69cb:	48 b8 00 00 00 00 00 	movabs $0x8000000000000000,%rax
    69d2:	00 00 80 
    69d5:	48 39 45 f8          	cmp    %rax,-0x8(%rbp)
    69d9:	75 07                	jne    69e2 <safe_mod_func_int64_t_s_s+0x2e>
    69db:	48 83 7d f0 ff       	cmpq   $0xffffffffffffffff,-0x10(%rbp)
    69e0:	74 0f                	je     69f1 <safe_mod_func_int64_t_s_s+0x3d>
    69e2:	48 8b 45 f8          	mov    -0x8(%rbp),%rax
    69e6:	48 99                	cqto   
    69e8:	48 f7 7d f0          	idivq  -0x10(%rbp)
    69ec:	48 89 d0             	mov    %rdx,%rax
    69ef:	eb 04                	jmp    69f5 <safe_mod_func_int64_t_s_s+0x41>
    69f1:	48 8b 45 f8          	mov    -0x8(%rbp),%rax
    69f5:	5d                   	pop    %rbp
    69f6:	c3                   	retq   

00000000000069f7 <safe_div_func_int64_t_s_s>:
    69f7:	f3 0f 1e fa          	endbr64 
    69fb:	55                   	push   %rbp
    69fc:	48 89 e5             	mov    %rsp,%rbp
    69ff:	48 89 7d f8          	mov    %rdi,-0x8(%rbp)
    6a03:	48 89 75 f0          	mov    %rsi,-0x10(%rbp)
    6a07:	48 83 7d f0 00       	cmpq   $0x0,-0x10(%rbp)
    6a0c:	74 23                	je     6a31 <safe_div_func_int64_t_s_s+0x3a>
    6a0e:	48 b8 00 00 00 00 00 	movabs $0x8000000000000000,%rax
    6a15:	00 00 80 
    6a18:	48 39 45 f8          	cmp    %rax,-0x8(%rbp)
    6a1c:	75 07                	jne    6a25 <safe_div_func_int64_t_s_s+0x2e>
    6a1e:	48 83 7d f0 ff       	cmpq   $0xffffffffffffffff,-0x10(%rbp)
    6a23:	74 0c                	je     6a31 <safe_div_func_int64_t_s_s+0x3a>
    6a25:	48 8b 45 f8          	mov    -0x8(%rbp),%rax
    6a29:	48 99                	cqto   
    6a2b:	48 f7 7d f0          	idivq  -0x10(%rbp)
    6a2f:	eb 04                	jmp    6a35 <safe_div_func_int64_t_s_s+0x3e>
    6a31:	48 8b 45 f8          	mov    -0x8(%rbp),%rax
    6a35:	5d                   	pop    %rbp
    6a36:	c3                   	retq   

0000000000006a37 <safe_lshift_func_int64_t_s_s>:
    6a37:	f3 0f 1e fa          	endbr64 
    6a3b:	55                   	push   %rbp
    6a3c:	48 89 e5             	mov    %rsp,%rbp
    6a3f:	48 89 7d f8          	mov    %rdi,-0x8(%rbp)
    6a43:	89 75 f4             	mov    %esi,-0xc(%rbp)
    6a46:	48 83 7d f8 00       	cmpq   $0x0,-0x8(%rbp)
    6a4b:	78 38                	js     6a85 <safe_lshift_func_int64_t_s_s+0x4e>
    6a4d:	83 7d f4 00          	cmpl   $0x0,-0xc(%rbp)
    6a51:	78 32                	js     6a85 <safe_lshift_func_int64_t_s_s+0x4e>
    6a53:	83 7d f4 1f          	cmpl   $0x1f,-0xc(%rbp)
    6a57:	7f 2c                	jg     6a85 <safe_lshift_func_int64_t_s_s+0x4e>
    6a59:	8b 45 f4             	mov    -0xc(%rbp),%eax
    6a5c:	48 ba ff ff ff ff ff 	movabs $0x7fffffffffffffff,%rdx
    6a63:	ff ff 7f 
    6a66:	89 c1                	mov    %eax,%ecx
    6a68:	48 d3 fa             	sar    %cl,%rdx
    6a6b:	48 89 d0             	mov    %rdx,%rax
    6a6e:	48 39 45 f8          	cmp    %rax,-0x8(%rbp)
    6a72:	7f 11                	jg     6a85 <safe_lshift_func_int64_t_s_s+0x4e>
    6a74:	8b 45 f4             	mov    -0xc(%rbp),%eax
    6a77:	48 8b 55 f8          	mov    -0x8(%rbp),%rdx
    6a7b:	89 c1                	mov    %eax,%ecx
    6a7d:	48 d3 e2             	shl    %cl,%rdx
    6a80:	48 89 d0             	mov    %rdx,%rax
    6a83:	eb 04                	jmp    6a89 <safe_lshift_func_int64_t_s_s+0x52>
    6a85:	48 8b 45 f8          	mov    -0x8(%rbp),%rax
    6a89:	5d                   	pop    %rbp
    6a8a:	c3                   	retq   

0000000000006a8b <safe_lshift_func_int64_t_s_u>:
    6a8b:	f3 0f 1e fa          	endbr64 
    6a8f:	55                   	push   %rbp
    6a90:	48 89 e5             	mov    %rsp,%rbp
    6a93:	48 89 7d f8          	mov    %rdi,-0x8(%rbp)
    6a97:	89 75 f4             	mov    %esi,-0xc(%rbp)
    6a9a:	48 83 7d f8 00       	cmpq   $0x0,-0x8(%rbp)
    6a9f:	78 32                	js     6ad3 <safe_lshift_func_int64_t_s_u+0x48>
    6aa1:	83 7d f4 1f          	cmpl   $0x1f,-0xc(%rbp)
    6aa5:	77 2c                	ja     6ad3 <safe_lshift_func_int64_t_s_u+0x48>
    6aa7:	8b 45 f4             	mov    -0xc(%rbp),%eax
    6aaa:	48 ba ff ff ff ff ff 	movabs $0x7fffffffffffffff,%rdx
    6ab1:	ff ff 7f 
    6ab4:	89 c1                	mov    %eax,%ecx
    6ab6:	48 d3 fa             	sar    %cl,%rdx
    6ab9:	48 89 d0             	mov    %rdx,%rax
    6abc:	48 39 45 f8          	cmp    %rax,-0x8(%rbp)
    6ac0:	7f 11                	jg     6ad3 <safe_lshift_func_int64_t_s_u+0x48>
    6ac2:	8b 45 f4             	mov    -0xc(%rbp),%eax
    6ac5:	48 8b 55 f8          	mov    -0x8(%rbp),%rdx
    6ac9:	89 c1                	mov    %eax,%ecx
    6acb:	48 d3 e2             	shl    %cl,%rdx
    6ace:	48 89 d0             	mov    %rdx,%rax
    6ad1:	eb 04                	jmp    6ad7 <safe_lshift_func_int64_t_s_u+0x4c>
    6ad3:	48 8b 45 f8          	mov    -0x8(%rbp),%rax
    6ad7:	5d                   	pop    %rbp
    6ad8:	c3                   	retq   

0000000000006ad9 <safe_rshift_func_int64_t_s_s>:
    6ad9:	f3 0f 1e fa          	endbr64 
    6add:	55                   	push   %rbp
    6ade:	48 89 e5             	mov    %rsp,%rbp
    6ae1:	48 89 7d f8          	mov    %rdi,-0x8(%rbp)
    6ae5:	89 75 f4             	mov    %esi,-0xc(%rbp)
    6ae8:	48 83 7d f8 00       	cmpq   $0x0,-0x8(%rbp)
    6aed:	78 1d                	js     6b0c <safe_rshift_func_int64_t_s_s+0x33>
    6aef:	83 7d f4 00          	cmpl   $0x0,-0xc(%rbp)
    6af3:	78 17                	js     6b0c <safe_rshift_func_int64_t_s_s+0x33>
    6af5:	83 7d f4 1f          	cmpl   $0x1f,-0xc(%rbp)
    6af9:	7f 11                	jg     6b0c <safe_rshift_func_int64_t_s_s+0x33>
    6afb:	8b 45 f4             	mov    -0xc(%rbp),%eax
    6afe:	48 8b 55 f8          	mov    -0x8(%rbp),%rdx
    6b02:	89 c1                	mov    %eax,%ecx
    6b04:	48 d3 fa             	sar    %cl,%rdx
    6b07:	48 89 d0             	mov    %rdx,%rax
    6b0a:	eb 04                	jmp    6b10 <safe_rshift_func_int64_t_s_s+0x37>
    6b0c:	48 8b 45 f8          	mov    -0x8(%rbp),%rax
    6b10:	5d                   	pop    %rbp
    6b11:	c3                   	retq   

0000000000006b12 <safe_rshift_func_int64_t_s_u>:
    6b12:	f3 0f 1e fa          	endbr64 
    6b16:	55                   	push   %rbp
    6b17:	48 89 e5             	mov    %rsp,%rbp
    6b1a:	48 89 7d f8          	mov    %rdi,-0x8(%rbp)
    6b1e:	89 75 f4             	mov    %esi,-0xc(%rbp)
    6b21:	48 83 7d f8 00       	cmpq   $0x0,-0x8(%rbp)
    6b26:	78 17                	js     6b3f <safe_rshift_func_int64_t_s_u+0x2d>
    6b28:	83 7d f4 1f          	cmpl   $0x1f,-0xc(%rbp)
    6b2c:	77 11                	ja     6b3f <safe_rshift_func_int64_t_s_u+0x2d>
    6b2e:	8b 45 f4             	mov    -0xc(%rbp),%eax
    6b31:	48 8b 55 f8          	mov    -0x8(%rbp),%rdx
    6b35:	89 c1                	mov    %eax,%ecx
    6b37:	48 d3 fa             	sar    %cl,%rdx
    6b3a:	48 89 d0             	mov    %rdx,%rax
    6b3d:	eb 04                	jmp    6b43 <safe_rshift_func_int64_t_s_u+0x31>
    6b3f:	48 8b 45 f8          	mov    -0x8(%rbp),%rax
    6b43:	5d                   	pop    %rbp
    6b44:	c3                   	retq   

0000000000006b45 <safe_unary_minus_func_uint8_t_u>:
    6b45:	f3 0f 1e fa          	endbr64 
    6b49:	55                   	push   %rbp
    6b4a:	48 89 e5             	mov    %rsp,%rbp
    6b4d:	89 f8                	mov    %edi,%eax
    6b4f:	88 45 fc             	mov    %al,-0x4(%rbp)
    6b52:	0f b6 45 fc          	movzbl -0x4(%rbp),%eax
    6b56:	f7 d8                	neg    %eax
    6b58:	5d                   	pop    %rbp
    6b59:	c3                   	retq   

0000000000006b5a <safe_add_func_uint8_t_u_u>:
    6b5a:	f3 0f 1e fa          	endbr64 
    6b5e:	55                   	push   %rbp
    6b5f:	48 89 e5             	mov    %rsp,%rbp
    6b62:	89 fa                	mov    %edi,%edx
    6b64:	89 f0                	mov    %esi,%eax
    6b66:	88 55 fc             	mov    %dl,-0x4(%rbp)
    6b69:	88 45 f8             	mov    %al,-0x8(%rbp)
    6b6c:	0f b6 55 fc          	movzbl -0x4(%rbp),%edx
    6b70:	0f b6 45 f8          	movzbl -0x8(%rbp),%eax
    6b74:	01 d0                	add    %edx,%eax
    6b76:	5d                   	pop    %rbp
    6b77:	c3                   	retq   

0000000000006b78 <safe_sub_func_uint8_t_u_u>:
    6b78:	f3 0f 1e fa          	endbr64 
    6b7c:	55                   	push   %rbp
    6b7d:	48 89 e5             	mov    %rsp,%rbp
    6b80:	89 fa                	mov    %edi,%edx
    6b82:	89 f0                	mov    %esi,%eax
    6b84:	88 55 fc             	mov    %dl,-0x4(%rbp)
    6b87:	88 45 f8             	mov    %al,-0x8(%rbp)
    6b8a:	0f b6 45 fc          	movzbl -0x4(%rbp),%eax
    6b8e:	2a 45 f8             	sub    -0x8(%rbp),%al
    6b91:	5d                   	pop    %rbp
    6b92:	c3                   	retq   

0000000000006b93 <safe_mul_func_uint8_t_u_u>:
    6b93:	f3 0f 1e fa          	endbr64 
    6b97:	55                   	push   %rbp
    6b98:	48 89 e5             	mov    %rsp,%rbp
    6b9b:	89 fa                	mov    %edi,%edx
    6b9d:	89 f0                	mov    %esi,%eax
    6b9f:	88 55 fc             	mov    %dl,-0x4(%rbp)
    6ba2:	88 45 f8             	mov    %al,-0x8(%rbp)
    6ba5:	0f b6 45 fc          	movzbl -0x4(%rbp),%eax
    6ba9:	f6 65 f8             	mulb   -0x8(%rbp)
    6bac:	5d                   	pop    %rbp
    6bad:	c3                   	retq   

0000000000006bae <safe_mod_func_uint8_t_u_u>:
    6bae:	f3 0f 1e fa          	endbr64 
    6bb2:	55                   	push   %rbp
    6bb3:	48 89 e5             	mov    %rsp,%rbp
    6bb6:	89 fa                	mov    %edi,%edx
    6bb8:	89 f0                	mov    %esi,%eax
    6bba:	88 55 fc             	mov    %dl,-0x4(%rbp)
    6bbd:	88 45 f8             	mov    %al,-0x8(%rbp)
    6bc0:	80 7d f8 00          	cmpb   $0x0,-0x8(%rbp)
    6bc4:	74 0f                	je     6bd5 <safe_mod_func_uint8_t_u_u+0x27>
    6bc6:	0f b6 45 fc          	movzbl -0x4(%rbp),%eax
    6bca:	0f b6 c0             	movzbl %al,%eax
    6bcd:	f6 75 f8             	divb   -0x8(%rbp)
    6bd0:	0f b6 c4             	movzbl %ah,%eax
    6bd3:	eb 04                	jmp    6bd9 <safe_mod_func_uint8_t_u_u+0x2b>
    6bd5:	0f b6 45 fc          	movzbl -0x4(%rbp),%eax
    6bd9:	5d                   	pop    %rbp
    6bda:	c3                   	retq   

0000000000006bdb <safe_div_func_uint8_t_u_u>:
    6bdb:	f3 0f 1e fa          	endbr64 
    6bdf:	55                   	push   %rbp
    6be0:	48 89 e5             	mov    %rsp,%rbp
    6be3:	89 fa                	mov    %edi,%edx
    6be5:	89 f0                	mov    %esi,%eax
    6be7:	88 55 fc             	mov    %dl,-0x4(%rbp)
    6bea:	88 45 f8             	mov    %al,-0x8(%rbp)
    6bed:	80 7d f8 00          	cmpb   $0x0,-0x8(%rbp)
    6bf1:	74 0c                	je     6bff <safe_div_func_uint8_t_u_u+0x24>
    6bf3:	0f b6 45 fc          	movzbl -0x4(%rbp),%eax
    6bf7:	0f b6 c0             	movzbl %al,%eax
    6bfa:	f6 75 f8             	divb   -0x8(%rbp)
    6bfd:	eb 04                	jmp    6c03 <safe_div_func_uint8_t_u_u+0x28>
    6bff:	0f b6 45 fc          	movzbl -0x4(%rbp),%eax
    6c03:	5d                   	pop    %rbp
    6c04:	c3                   	retq   

0000000000006c05 <safe_lshift_func_uint8_t_u_s>:
    6c05:	f3 0f 1e fa          	endbr64 
    6c09:	55                   	push   %rbp
    6c0a:	48 89 e5             	mov    %rsp,%rbp
    6c0d:	89 f8                	mov    %edi,%eax
    6c0f:	89 75 f8             	mov    %esi,-0x8(%rbp)
    6c12:	88 45 fc             	mov    %al,-0x4(%rbp)
    6c15:	83 7d f8 00          	cmpl   $0x0,-0x8(%rbp)
    6c19:	78 2b                	js     6c46 <safe_lshift_func_uint8_t_u_s+0x41>
    6c1b:	83 7d f8 1f          	cmpl   $0x1f,-0x8(%rbp)
    6c1f:	7f 25                	jg     6c46 <safe_lshift_func_uint8_t_u_s+0x41>
    6c21:	0f b6 55 fc          	movzbl -0x4(%rbp),%edx
    6c25:	8b 45 f8             	mov    -0x8(%rbp),%eax
    6c28:	be ff 00 00 00       	mov    $0xff,%esi
    6c2d:	89 c1                	mov    %eax,%ecx
    6c2f:	d3 fe                	sar    %cl,%esi
    6c31:	89 f0                	mov    %esi,%eax
    6c33:	39 c2                	cmp    %eax,%edx
    6c35:	7f 0f                	jg     6c46 <safe_lshift_func_uint8_t_u_s+0x41>
    6c37:	0f b6 55 fc          	movzbl -0x4(%rbp),%edx
    6c3b:	8b 45 f8             	mov    -0x8(%rbp),%eax
    6c3e:	89 c1                	mov    %eax,%ecx
    6c40:	d3 e2                	shl    %cl,%edx
    6c42:	89 d0                	mov    %edx,%eax
    6c44:	eb 04                	jmp    6c4a <safe_lshift_func_uint8_t_u_s+0x45>
    6c46:	0f b6 45 fc          	movzbl -0x4(%rbp),%eax
    6c4a:	5d                   	pop    %rbp
    6c4b:	c3                   	retq   

0000000000006c4c <safe_lshift_func_uint8_t_u_u>:
    6c4c:	f3 0f 1e fa          	endbr64 
    6c50:	55                   	push   %rbp
    6c51:	48 89 e5             	mov    %rsp,%rbp
    6c54:	89 f8                	mov    %edi,%eax
    6c56:	89 75 f8             	mov    %esi,-0x8(%rbp)
    6c59:	88 45 fc             	mov    %al,-0x4(%rbp)
    6c5c:	83 7d f8 1f          	cmpl   $0x1f,-0x8(%rbp)
    6c60:	77 25                	ja     6c87 <safe_lshift_func_uint8_t_u_u+0x3b>
    6c62:	0f b6 55 fc          	movzbl -0x4(%rbp),%edx
    6c66:	8b 45 f8             	mov    -0x8(%rbp),%eax
    6c69:	be ff 00 00 00       	mov    $0xff,%esi
    6c6e:	89 c1                	mov    %eax,%ecx
    6c70:	d3 fe                	sar    %cl,%esi
    6c72:	89 f0                	mov    %esi,%eax
    6c74:	39 c2                	cmp    %eax,%edx
    6c76:	7f 0f                	jg     6c87 <safe_lshift_func_uint8_t_u_u+0x3b>
    6c78:	0f b6 55 fc          	movzbl -0x4(%rbp),%edx
    6c7c:	8b 45 f8             	mov    -0x8(%rbp),%eax
    6c7f:	89 c1                	mov    %eax,%ecx
    6c81:	d3 e2                	shl    %cl,%edx
    6c83:	89 d0                	mov    %edx,%eax
    6c85:	eb 04                	jmp    6c8b <safe_lshift_func_uint8_t_u_u+0x3f>
    6c87:	0f b6 45 fc          	movzbl -0x4(%rbp),%eax
    6c8b:	5d                   	pop    %rbp
    6c8c:	c3                   	retq   

0000000000006c8d <safe_rshift_func_uint8_t_u_s>:
    6c8d:	f3 0f 1e fa          	endbr64 
    6c91:	55                   	push   %rbp
    6c92:	48 89 e5             	mov    %rsp,%rbp
    6c95:	89 f8                	mov    %edi,%eax
    6c97:	89 75 f8             	mov    %esi,-0x8(%rbp)
    6c9a:	88 45 fc             	mov    %al,-0x4(%rbp)
    6c9d:	83 7d f8 00          	cmpl   $0x0,-0x8(%rbp)
    6ca1:	78 15                	js     6cb8 <safe_rshift_func_uint8_t_u_s+0x2b>
    6ca3:	83 7d f8 1f          	cmpl   $0x1f,-0x8(%rbp)
    6ca7:	7f 0f                	jg     6cb8 <safe_rshift_func_uint8_t_u_s+0x2b>
    6ca9:	0f b6 55 fc          	movzbl -0x4(%rbp),%edx
    6cad:	8b 45 f8             	mov    -0x8(%rbp),%eax
    6cb0:	89 c1                	mov    %eax,%ecx
    6cb2:	d3 fa                	sar    %cl,%edx
    6cb4:	89 d0                	mov    %edx,%eax
    6cb6:	eb 04                	jmp    6cbc <safe_rshift_func_uint8_t_u_s+0x2f>
    6cb8:	0f b6 45 fc          	movzbl -0x4(%rbp),%eax
    6cbc:	5d                   	pop    %rbp
    6cbd:	c3                   	retq   

0000000000006cbe <safe_rshift_func_uint8_t_u_u>:
    6cbe:	f3 0f 1e fa          	endbr64 
    6cc2:	55                   	push   %rbp
    6cc3:	48 89 e5             	mov    %rsp,%rbp
    6cc6:	89 f8                	mov    %edi,%eax
    6cc8:	89 75 f8             	mov    %esi,-0x8(%rbp)
    6ccb:	88 45 fc             	mov    %al,-0x4(%rbp)
    6cce:	83 7d f8 1f          	cmpl   $0x1f,-0x8(%rbp)
    6cd2:	77 0f                	ja     6ce3 <safe_rshift_func_uint8_t_u_u+0x25>
    6cd4:	0f b6 55 fc          	movzbl -0x4(%rbp),%edx
    6cd8:	8b 45 f8             	mov    -0x8(%rbp),%eax
    6cdb:	89 c1                	mov    %eax,%ecx
    6cdd:	d3 fa                	sar    %cl,%edx
    6cdf:	89 d0                	mov    %edx,%eax
    6ce1:	eb 04                	jmp    6ce7 <safe_rshift_func_uint8_t_u_u+0x29>
    6ce3:	0f b6 45 fc          	movzbl -0x4(%rbp),%eax
    6ce7:	5d                   	pop    %rbp
    6ce8:	c3                   	retq   

0000000000006ce9 <safe_unary_minus_func_uint16_t_u>:
    6ce9:	f3 0f 1e fa          	endbr64 
    6ced:	55                   	push   %rbp
    6cee:	48 89 e5             	mov    %rsp,%rbp
    6cf1:	89 f8                	mov    %edi,%eax
    6cf3:	66 89 45 fc          	mov    %ax,-0x4(%rbp)
    6cf7:	0f b7 45 fc          	movzwl -0x4(%rbp),%eax
    6cfb:	f7 d8                	neg    %eax
    6cfd:	5d                   	pop    %rbp
    6cfe:	c3                   	retq   

0000000000006cff <safe_add_func_uint16_t_u_u>:
    6cff:	f3 0f 1e fa          	endbr64 
    6d03:	55                   	push   %rbp
    6d04:	48 89 e5             	mov    %rsp,%rbp
    6d07:	89 fa                	mov    %edi,%edx
    6d09:	89 f0                	mov    %esi,%eax
    6d0b:	66 89 55 fc          	mov    %dx,-0x4(%rbp)
    6d0f:	66 89 45 f8          	mov    %ax,-0x8(%rbp)
    6d13:	0f b7 55 fc          	movzwl -0x4(%rbp),%edx
    6d17:	0f b7 45 f8          	movzwl -0x8(%rbp),%eax
    6d1b:	01 d0                	add    %edx,%eax
    6d1d:	5d                   	pop    %rbp
    6d1e:	c3                   	retq   

0000000000006d1f <safe_sub_func_uint16_t_u_u>:
    6d1f:	f3 0f 1e fa          	endbr64 
    6d23:	55                   	push   %rbp
    6d24:	48 89 e5             	mov    %rsp,%rbp
    6d27:	89 fa                	mov    %edi,%edx
    6d29:	89 f0                	mov    %esi,%eax
    6d2b:	66 89 55 fc          	mov    %dx,-0x4(%rbp)
    6d2f:	66 89 45 f8          	mov    %ax,-0x8(%rbp)
    6d33:	0f b7 45 fc          	movzwl -0x4(%rbp),%eax
    6d37:	66 2b 45 f8          	sub    -0x8(%rbp),%ax
    6d3b:	5d                   	pop    %rbp
    6d3c:	c3                   	retq   

0000000000006d3d <safe_mul_func_uint16_t_u_u>:
    6d3d:	f3 0f 1e fa          	endbr64 
    6d41:	55                   	push   %rbp
    6d42:	48 89 e5             	mov    %rsp,%rbp
    6d45:	89 fa                	mov    %edi,%edx
    6d47:	89 f0                	mov    %esi,%eax
    6d49:	66 89 55 fc          	mov    %dx,-0x4(%rbp)
    6d4d:	66 89 45 f8          	mov    %ax,-0x8(%rbp)
    6d51:	0f b7 45 fc          	movzwl -0x4(%rbp),%eax
    6d55:	66 0f af 45 f8       	imul   -0x8(%rbp),%ax
    6d5a:	5d                   	pop    %rbp
    6d5b:	c3                   	retq   

0000000000006d5c <safe_mod_func_uint16_t_u_u>:
    6d5c:	f3 0f 1e fa          	endbr64 
    6d60:	55                   	push   %rbp
    6d61:	48 89 e5             	mov    %rsp,%rbp
    6d64:	89 fa                	mov    %edi,%edx
    6d66:	89 f0                	mov    %esi,%eax
    6d68:	66 89 55 fc          	mov    %dx,-0x4(%rbp)
    6d6c:	66 89 45 f8          	mov    %ax,-0x8(%rbp)
    6d70:	66 83 7d f8 00       	cmpw   $0x0,-0x8(%rbp)
    6d75:	74 11                	je     6d88 <safe_mod_func_uint16_t_u_u+0x2c>
    6d77:	0f b7 45 fc          	movzwl -0x4(%rbp),%eax
    6d7b:	ba 00 00 00 00       	mov    $0x0,%edx
    6d80:	66 f7 75 f8          	divw   -0x8(%rbp)
    6d84:	89 d0                	mov    %edx,%eax
    6d86:	eb 04                	jmp    6d8c <safe_mod_func_uint16_t_u_u+0x30>
    6d88:	0f b7 45 fc          	movzwl -0x4(%rbp),%eax
    6d8c:	5d                   	pop    %rbp
    6d8d:	c3                   	retq   

0000000000006d8e <safe_div_func_uint16_t_u_u>:
    6d8e:	f3 0f 1e fa          	endbr64 
    6d92:	55                   	push   %rbp
    6d93:	48 89 e5             	mov    %rsp,%rbp
    6d96:	89 fa                	mov    %edi,%edx
    6d98:	89 f0                	mov    %esi,%eax
    6d9a:	66 89 55 fc          	mov    %dx,-0x4(%rbp)
    6d9e:	66 89 45 f8          	mov    %ax,-0x8(%rbp)
    6da2:	66 83 7d f8 00       	cmpw   $0x0,-0x8(%rbp)
    6da7:	74 0f                	je     6db8 <safe_div_func_uint16_t_u_u+0x2a>
    6da9:	0f b7 45 fc          	movzwl -0x4(%rbp),%eax
    6dad:	ba 00 00 00 00       	mov    $0x0,%edx
    6db2:	66 f7 75 f8          	divw   -0x8(%rbp)
    6db6:	eb 04                	jmp    6dbc <safe_div_func_uint16_t_u_u+0x2e>
    6db8:	0f b7 45 fc          	movzwl -0x4(%rbp),%eax
    6dbc:	5d                   	pop    %rbp
    6dbd:	c3                   	retq   

0000000000006dbe <safe_lshift_func_uint16_t_u_s>:
    6dbe:	f3 0f 1e fa          	endbr64 
    6dc2:	55                   	push   %rbp
    6dc3:	48 89 e5             	mov    %rsp,%rbp
    6dc6:	89 f8                	mov    %edi,%eax
    6dc8:	89 75 f8             	mov    %esi,-0x8(%rbp)
    6dcb:	66 89 45 fc          	mov    %ax,-0x4(%rbp)
    6dcf:	83 7d f8 00          	cmpl   $0x0,-0x8(%rbp)
    6dd3:	78 2b                	js     6e00 <safe_lshift_func_uint16_t_u_s+0x42>
    6dd5:	83 7d f8 1f          	cmpl   $0x1f,-0x8(%rbp)
    6dd9:	7f 25                	jg     6e00 <safe_lshift_func_uint16_t_u_s+0x42>
    6ddb:	0f b7 55 fc          	movzwl -0x4(%rbp),%edx
    6ddf:	8b 45 f8             	mov    -0x8(%rbp),%eax
    6de2:	be ff ff 00 00       	mov    $0xffff,%esi
    6de7:	89 c1                	mov    %eax,%ecx
    6de9:	d3 fe                	sar    %cl,%esi
    6deb:	89 f0                	mov    %esi,%eax
    6ded:	39 c2                	cmp    %eax,%edx
    6def:	7f 0f                	jg     6e00 <safe_lshift_func_uint16_t_u_s+0x42>
    6df1:	0f b7 55 fc          	movzwl -0x4(%rbp),%edx
    6df5:	8b 45 f8             	mov    -0x8(%rbp),%eax
    6df8:	89 c1                	mov    %eax,%ecx
    6dfa:	d3 e2                	shl    %cl,%edx
    6dfc:	89 d0                	mov    %edx,%eax
    6dfe:	eb 04                	jmp    6e04 <safe_lshift_func_uint16_t_u_s+0x46>
    6e00:	0f b7 45 fc          	movzwl -0x4(%rbp),%eax
    6e04:	5d                   	pop    %rbp
    6e05:	c3                   	retq   

0000000000006e06 <safe_lshift_func_uint16_t_u_u>:
    6e06:	f3 0f 1e fa          	endbr64 
    6e0a:	55                   	push   %rbp
    6e0b:	48 89 e5             	mov    %rsp,%rbp
    6e0e:	89 f8                	mov    %edi,%eax
    6e10:	89 75 f8             	mov    %esi,-0x8(%rbp)
    6e13:	66 89 45 fc          	mov    %ax,-0x4(%rbp)
    6e17:	83 7d f8 1f          	cmpl   $0x1f,-0x8(%rbp)
    6e1b:	77 25                	ja     6e42 <safe_lshift_func_uint16_t_u_u+0x3c>
    6e1d:	0f b7 55 fc          	movzwl -0x4(%rbp),%edx
    6e21:	8b 45 f8             	mov    -0x8(%rbp),%eax
    6e24:	be ff ff 00 00       	mov    $0xffff,%esi
    6e29:	89 c1                	mov    %eax,%ecx
    6e2b:	d3 fe                	sar    %cl,%esi
    6e2d:	89 f0                	mov    %esi,%eax
    6e2f:	39 c2                	cmp    %eax,%edx
    6e31:	7f 0f                	jg     6e42 <safe_lshift_func_uint16_t_u_u+0x3c>
    6e33:	0f b7 55 fc          	movzwl -0x4(%rbp),%edx
    6e37:	8b 45 f8             	mov    -0x8(%rbp),%eax
    6e3a:	89 c1                	mov    %eax,%ecx
    6e3c:	d3 e2                	shl    %cl,%edx
    6e3e:	89 d0                	mov    %edx,%eax
    6e40:	eb 04                	jmp    6e46 <safe_lshift_func_uint16_t_u_u+0x40>
    6e42:	0f b7 45 fc          	movzwl -0x4(%rbp),%eax
    6e46:	5d                   	pop    %rbp
    6e47:	c3                   	retq   

0000000000006e48 <safe_rshift_func_uint16_t_u_s>:
    6e48:	f3 0f 1e fa          	endbr64 
    6e4c:	55                   	push   %rbp
    6e4d:	48 89 e5             	mov    %rsp,%rbp
    6e50:	89 f8                	mov    %edi,%eax
    6e52:	89 75 f8             	mov    %esi,-0x8(%rbp)
    6e55:	66 89 45 fc          	mov    %ax,-0x4(%rbp)
    6e59:	83 7d f8 00          	cmpl   $0x0,-0x8(%rbp)
    6e5d:	78 15                	js     6e74 <safe_rshift_func_uint16_t_u_s+0x2c>
    6e5f:	83 7d f8 1f          	cmpl   $0x1f,-0x8(%rbp)
    6e63:	7f 0f                	jg     6e74 <safe_rshift_func_uint16_t_u_s+0x2c>
    6e65:	0f b7 55 fc          	movzwl -0x4(%rbp),%edx
    6e69:	8b 45 f8             	mov    -0x8(%rbp),%eax
    6e6c:	89 c1                	mov    %eax,%ecx
    6e6e:	d3 fa                	sar    %cl,%edx
    6e70:	89 d0                	mov    %edx,%eax
    6e72:	eb 04                	jmp    6e78 <safe_rshift_func_uint16_t_u_s+0x30>
    6e74:	0f b7 45 fc          	movzwl -0x4(%rbp),%eax
    6e78:	5d                   	pop    %rbp
    6e79:	c3                   	retq   

0000000000006e7a <safe_rshift_func_uint16_t_u_u>:
    6e7a:	f3 0f 1e fa          	endbr64 
    6e7e:	55                   	push   %rbp
    6e7f:	48 89 e5             	mov    %rsp,%rbp
    6e82:	89 f8                	mov    %edi,%eax
    6e84:	89 75 f8             	mov    %esi,-0x8(%rbp)
    6e87:	66 89 45 fc          	mov    %ax,-0x4(%rbp)
    6e8b:	83 7d f8 1f          	cmpl   $0x1f,-0x8(%rbp)
    6e8f:	77 0f                	ja     6ea0 <safe_rshift_func_uint16_t_u_u+0x26>
    6e91:	0f b7 55 fc          	movzwl -0x4(%rbp),%edx
    6e95:	8b 45 f8             	mov    -0x8(%rbp),%eax
    6e98:	89 c1                	mov    %eax,%ecx
    6e9a:	d3 fa                	sar    %cl,%edx
    6e9c:	89 d0                	mov    %edx,%eax
    6e9e:	eb 04                	jmp    6ea4 <safe_rshift_func_uint16_t_u_u+0x2a>
    6ea0:	0f b7 45 fc          	movzwl -0x4(%rbp),%eax
    6ea4:	5d                   	pop    %rbp
    6ea5:	c3                   	retq   

0000000000006ea6 <safe_unary_minus_func_uint32_t_u>:
    6ea6:	f3 0f 1e fa          	endbr64 
    6eaa:	55                   	push   %rbp
    6eab:	48 89 e5             	mov    %rsp,%rbp
    6eae:	89 7d fc             	mov    %edi,-0x4(%rbp)
    6eb1:	8b 45 fc             	mov    -0x4(%rbp),%eax
    6eb4:	f7 d8                	neg    %eax
    6eb6:	5d                   	pop    %rbp
    6eb7:	c3                   	retq   

0000000000006eb8 <safe_add_func_uint32_t_u_u>:
    6eb8:	f3 0f 1e fa          	endbr64 
    6ebc:	55                   	push   %rbp
    6ebd:	48 89 e5             	mov    %rsp,%rbp
    6ec0:	89 7d fc             	mov    %edi,-0x4(%rbp)
    6ec3:	89 75 f8             	mov    %esi,-0x8(%rbp)
    6ec6:	8b 55 fc             	mov    -0x4(%rbp),%edx
    6ec9:	8b 45 f8             	mov    -0x8(%rbp),%eax
    6ecc:	01 d0                	add    %edx,%eax
    6ece:	5d                   	pop    %rbp
    6ecf:	c3                   	retq   

0000000000006ed0 <safe_sub_func_uint32_t_u_u>:
    6ed0:	f3 0f 1e fa          	endbr64 
    6ed4:	55                   	push   %rbp
    6ed5:	48 89 e5             	mov    %rsp,%rbp
    6ed8:	89 7d fc             	mov    %edi,-0x4(%rbp)
    6edb:	89 75 f8             	mov    %esi,-0x8(%rbp)
    6ede:	8b 45 fc             	mov    -0x4(%rbp),%eax
    6ee1:	2b 45 f8             	sub    -0x8(%rbp),%eax
    6ee4:	5d                   	pop    %rbp
    6ee5:	c3                   	retq   

0000000000006ee6 <safe_mul_func_uint32_t_u_u>:
    6ee6:	f3 0f 1e fa          	endbr64 
    6eea:	55                   	push   %rbp
    6eeb:	48 89 e5             	mov    %rsp,%rbp
    6eee:	89 7d fc             	mov    %edi,-0x4(%rbp)
    6ef1:	89 75 f8             	mov    %esi,-0x8(%rbp)
    6ef4:	8b 45 fc             	mov    -0x4(%rbp),%eax
    6ef7:	0f af 45 f8          	imul   -0x8(%rbp),%eax
    6efb:	5d                   	pop    %rbp
    6efc:	c3                   	retq   

0000000000006efd <safe_mod_func_uint32_t_u_u>:
    6efd:	f3 0f 1e fa          	endbr64 
    6f01:	55                   	push   %rbp
    6f02:	48 89 e5             	mov    %rsp,%rbp
    6f05:	89 7d fc             	mov    %edi,-0x4(%rbp)
    6f08:	89 75 f8             	mov    %esi,-0x8(%rbp)
    6f0b:	83 7d f8 00          	cmpl   $0x0,-0x8(%rbp)
    6f0f:	74 0f                	je     6f20 <safe_mod_func_uint32_t_u_u+0x23>
    6f11:	8b 45 fc             	mov    -0x4(%rbp),%eax
    6f14:	ba 00 00 00 00       	mov    $0x0,%edx
    6f19:	f7 75 f8             	divl   -0x8(%rbp)
    6f1c:	89 d0                	mov    %edx,%eax
    6f1e:	eb 03                	jmp    6f23 <safe_mod_func_uint32_t_u_u+0x26>
    6f20:	8b 45 fc             	mov    -0x4(%rbp),%eax
    6f23:	5d                   	pop    %rbp
    6f24:	c3                   	retq   

0000000000006f25 <safe_div_func_uint32_t_u_u>:
    6f25:	f3 0f 1e fa          	endbr64 
    6f29:	55                   	push   %rbp
    6f2a:	48 89 e5             	mov    %rsp,%rbp
    6f2d:	89 7d fc             	mov    %edi,-0x4(%rbp)
    6f30:	89 75 f8             	mov    %esi,-0x8(%rbp)
    6f33:	83 7d f8 00          	cmpl   $0x0,-0x8(%rbp)
    6f37:	74 0d                	je     6f46 <safe_div_func_uint32_t_u_u+0x21>
    6f39:	8b 45 fc             	mov    -0x4(%rbp),%eax
    6f3c:	ba 00 00 00 00       	mov    $0x0,%edx
    6f41:	f7 75 f8             	divl   -0x8(%rbp)
    6f44:	eb 03                	jmp    6f49 <safe_div_func_uint32_t_u_u+0x24>
    6f46:	8b 45 fc             	mov    -0x4(%rbp),%eax
    6f49:	5d                   	pop    %rbp
    6f4a:	c3                   	retq   

0000000000006f4b <safe_lshift_func_uint32_t_u_s>:
    6f4b:	f3 0f 1e fa          	endbr64 
    6f4f:	55                   	push   %rbp
    6f50:	48 89 e5             	mov    %rsp,%rbp
    6f53:	89 7d fc             	mov    %edi,-0x4(%rbp)
    6f56:	89 75 f8             	mov    %esi,-0x8(%rbp)
    6f59:	83 7d f8 00          	cmpl   $0x0,-0x8(%rbp)
    6f5d:	78 27                	js     6f86 <safe_lshift_func_uint32_t_u_s+0x3b>
    6f5f:	83 7d f8 1f          	cmpl   $0x1f,-0x8(%rbp)
    6f63:	7f 21                	jg     6f86 <safe_lshift_func_uint32_t_u_s+0x3b>
    6f65:	8b 45 f8             	mov    -0x8(%rbp),%eax
    6f68:	ba ff ff ff ff       	mov    $0xffffffff,%edx
    6f6d:	89 c1                	mov    %eax,%ecx
    6f6f:	d3 ea                	shr    %cl,%edx
    6f71:	89 d0                	mov    %edx,%eax
    6f73:	39 45 fc             	cmp    %eax,-0x4(%rbp)
    6f76:	77 0e                	ja     6f86 <safe_lshift_func_uint32_t_u_s+0x3b>
    6f78:	8b 45 f8             	mov    -0x8(%rbp),%eax
    6f7b:	8b 55 fc             	mov    -0x4(%rbp),%edx
    6f7e:	89 c1                	mov    %eax,%ecx
    6f80:	d3 e2                	shl    %cl,%edx
    6f82:	89 d0                	mov    %edx,%eax
    6f84:	eb 03                	jmp    6f89 <safe_lshift_func_uint32_t_u_s+0x3e>
    6f86:	8b 45 fc             	mov    -0x4(%rbp),%eax
    6f89:	5d                   	pop    %rbp
    6f8a:	c3                   	retq   

0000000000006f8b <safe_lshift_func_uint32_t_u_u>:
    6f8b:	f3 0f 1e fa          	endbr64 
    6f8f:	55                   	push   %rbp
    6f90:	48 89 e5             	mov    %rsp,%rbp
    6f93:	89 7d fc             	mov    %edi,-0x4(%rbp)
    6f96:	89 75 f8             	mov    %esi,-0x8(%rbp)
    6f99:	83 7d f8 1f          	cmpl   $0x1f,-0x8(%rbp)
    6f9d:	77 21                	ja     6fc0 <safe_lshift_func_uint32_t_u_u+0x35>
    6f9f:	8b 45 f8             	mov    -0x8(%rbp),%eax
    6fa2:	ba ff ff ff ff       	mov    $0xffffffff,%edx
    6fa7:	89 c1                	mov    %eax,%ecx
    6fa9:	d3 ea                	shr    %cl,%edx
    6fab:	89 d0                	mov    %edx,%eax
    6fad:	39 45 fc             	cmp    %eax,-0x4(%rbp)
    6fb0:	77 0e                	ja     6fc0 <safe_lshift_func_uint32_t_u_u+0x35>
    6fb2:	8b 45 f8             	mov    -0x8(%rbp),%eax
    6fb5:	8b 55 fc             	mov    -0x4(%rbp),%edx
    6fb8:	89 c1                	mov    %eax,%ecx
    6fba:	d3 e2                	shl    %cl,%edx
    6fbc:	89 d0                	mov    %edx,%eax
    6fbe:	eb 03                	jmp    6fc3 <safe_lshift_func_uint32_t_u_u+0x38>
    6fc0:	8b 45 fc             	mov    -0x4(%rbp),%eax
    6fc3:	5d                   	pop    %rbp
    6fc4:	c3                   	retq   

0000000000006fc5 <safe_rshift_func_uint32_t_u_s>:
    6fc5:	f3 0f 1e fa          	endbr64 
    6fc9:	55                   	push   %rbp
    6fca:	48 89 e5             	mov    %rsp,%rbp
    6fcd:	89 7d fc             	mov    %edi,-0x4(%rbp)
    6fd0:	89 75 f8             	mov    %esi,-0x8(%rbp)
    6fd3:	83 7d f8 00          	cmpl   $0x0,-0x8(%rbp)
    6fd7:	78 14                	js     6fed <safe_rshift_func_uint32_t_u_s+0x28>
    6fd9:	83 7d f8 1f          	cmpl   $0x1f,-0x8(%rbp)
    6fdd:	7f 0e                	jg     6fed <safe_rshift_func_uint32_t_u_s+0x28>
    6fdf:	8b 45 f8             	mov    -0x8(%rbp),%eax
    6fe2:	8b 55 fc             	mov    -0x4(%rbp),%edx
    6fe5:	89 c1                	mov    %eax,%ecx
    6fe7:	d3 ea                	shr    %cl,%edx
    6fe9:	89 d0                	mov    %edx,%eax
    6feb:	eb 03                	jmp    6ff0 <safe_rshift_func_uint32_t_u_s+0x2b>
    6fed:	8b 45 fc             	mov    -0x4(%rbp),%eax
    6ff0:	5d                   	pop    %rbp
    6ff1:	c3                   	retq   

0000000000006ff2 <safe_rshift_func_uint32_t_u_u>:
    6ff2:	f3 0f 1e fa          	endbr64 
    6ff6:	55                   	push   %rbp
    6ff7:	48 89 e5             	mov    %rsp,%rbp
    6ffa:	89 7d fc             	mov    %edi,-0x4(%rbp)
    6ffd:	89 75 f8             	mov    %esi,-0x8(%rbp)
    7000:	83 7d f8 1f          	cmpl   $0x1f,-0x8(%rbp)
    7004:	77 0e                	ja     7014 <safe_rshift_func_uint32_t_u_u+0x22>
    7006:	8b 45 f8             	mov    -0x8(%rbp),%eax
    7009:	8b 55 fc             	mov    -0x4(%rbp),%edx
    700c:	89 c1                	mov    %eax,%ecx
    700e:	d3 ea                	shr    %cl,%edx
    7010:	89 d0                	mov    %edx,%eax
    7012:	eb 03                	jmp    7017 <safe_rshift_func_uint32_t_u_u+0x25>
    7014:	8b 45 fc             	mov    -0x4(%rbp),%eax
    7017:	5d                   	pop    %rbp
    7018:	c3                   	retq   

0000000000007019 <safe_unary_minus_func_uint64_t_u>:
    7019:	f3 0f 1e fa          	endbr64 
    701d:	55                   	push   %rbp
    701e:	48 89 e5             	mov    %rsp,%rbp
    7021:	48 89 7d f8          	mov    %rdi,-0x8(%rbp)
    7025:	48 8b 45 f8          	mov    -0x8(%rbp),%rax
    7029:	48 f7 d8             	neg    %rax
    702c:	5d                   	pop    %rbp
    702d:	c3                   	retq   

000000000000702e <safe_add_func_uint64_t_u_u>:
    702e:	f3 0f 1e fa          	endbr64 
    7032:	55                   	push   %rbp
    7033:	48 89 e5             	mov    %rsp,%rbp
    7036:	48 89 7d f8          	mov    %rdi,-0x8(%rbp)
    703a:	48 89 75 f0          	mov    %rsi,-0x10(%rbp)
    703e:	48 8b 55 f8          	mov    -0x8(%rbp),%rdx
    7042:	48 8b 45 f0          	mov    -0x10(%rbp),%rax
    7046:	48 01 d0             	add    %rdx,%rax
    7049:	5d                   	pop    %rbp
    704a:	c3                   	retq   

000000000000704b <safe_sub_func_uint64_t_u_u>:
    704b:	f3 0f 1e fa          	endbr64 
    704f:	55                   	push   %rbp
    7050:	48 89 e5             	mov    %rsp,%rbp
    7053:	48 89 7d f8          	mov    %rdi,-0x8(%rbp)
    7057:	48 89 75 f0          	mov    %rsi,-0x10(%rbp)
    705b:	48 8b 45 f8          	mov    -0x8(%rbp),%rax
    705f:	48 2b 45 f0          	sub    -0x10(%rbp),%rax
    7063:	5d                   	pop    %rbp
    7064:	c3                   	retq   

0000000000007065 <safe_mul_func_uint64_t_u_u>:
    7065:	f3 0f 1e fa          	endbr64 
    7069:	55                   	push   %rbp
    706a:	48 89 e5             	mov    %rsp,%rbp
    706d:	48 89 7d f8          	mov    %rdi,-0x8(%rbp)
    7071:	48 89 75 f0          	mov    %rsi,-0x10(%rbp)
    7075:	48 8b 45 f8          	mov    -0x8(%rbp),%rax
    7079:	48 0f af 45 f0       	imul   -0x10(%rbp),%rax
    707e:	5d                   	pop    %rbp
    707f:	c3                   	retq   

0000000000007080 <safe_mod_func_uint64_t_u_u>:
    7080:	f3 0f 1e fa          	endbr64 
    7084:	55                   	push   %rbp
    7085:	48 89 e5             	mov    %rsp,%rbp
    7088:	48 89 7d f8          	mov    %rdi,-0x8(%rbp)
    708c:	48 89 75 f0          	mov    %rsi,-0x10(%rbp)
    7090:	48 83 7d f0 00       	cmpq   $0x0,-0x10(%rbp)
    7095:	74 12                	je     70a9 <safe_mod_func_uint64_t_u_u+0x29>
    7097:	48 8b 45 f8          	mov    -0x8(%rbp),%rax
    709b:	ba 00 00 00 00       	mov    $0x0,%edx
    70a0:	48 f7 75 f0          	divq   -0x10(%rbp)
    70a4:	48 89 d0             	mov    %rdx,%rax
    70a7:	eb 04                	jmp    70ad <safe_mod_func_uint64_t_u_u+0x2d>
    70a9:	48 8b 45 f8          	mov    -0x8(%rbp),%rax
    70ad:	5d                   	pop    %rbp
    70ae:	c3                   	retq   

00000000000070af <safe_div_func_uint64_t_u_u>:
    70af:	f3 0f 1e fa          	endbr64 
    70b3:	55                   	push   %rbp
    70b4:	48 89 e5             	mov    %rsp,%rbp
    70b7:	48 89 7d f8          	mov    %rdi,-0x8(%rbp)
    70bb:	48 89 75 f0          	mov    %rsi,-0x10(%rbp)
    70bf:	48 83 7d f0 00       	cmpq   $0x0,-0x10(%rbp)
    70c4:	74 0f                	je     70d5 <safe_div_func_uint64_t_u_u+0x26>
    70c6:	48 8b 45 f8          	mov    -0x8(%rbp),%rax
    70ca:	ba 00 00 00 00       	mov    $0x0,%edx
    70cf:	48 f7 75 f0          	divq   -0x10(%rbp)
    70d3:	eb 04                	jmp    70d9 <safe_div_func_uint64_t_u_u+0x2a>
    70d5:	48 8b 45 f8          	mov    -0x8(%rbp),%rax
    70d9:	5d                   	pop    %rbp
    70da:	c3                   	retq   

00000000000070db <safe_lshift_func_uint64_t_u_s>:
    70db:	f3 0f 1e fa          	endbr64 
    70df:	55                   	push   %rbp
    70e0:	48 89 e5             	mov    %rsp,%rbp
    70e3:	48 89 7d f8          	mov    %rdi,-0x8(%rbp)
    70e7:	89 75 f4             	mov    %esi,-0xc(%rbp)
    70ea:	83 7d f4 00          	cmpl   $0x0,-0xc(%rbp)
    70ee:	78 2f                	js     711f <safe_lshift_func_uint64_t_u_s+0x44>
    70f0:	83 7d f4 1f          	cmpl   $0x1f,-0xc(%rbp)
    70f4:	7f 29                	jg     711f <safe_lshift_func_uint64_t_u_s+0x44>
    70f6:	8b 45 f4             	mov    -0xc(%rbp),%eax
    70f9:	48 c7 c2 ff ff ff ff 	mov    $0xffffffffffffffff,%rdx
    7100:	89 c1                	mov    %eax,%ecx
    7102:	48 d3 ea             	shr    %cl,%rdx
    7105:	48 89 d0             	mov    %rdx,%rax
    7108:	48 39 45 f8          	cmp    %rax,-0x8(%rbp)
    710c:	77 11                	ja     711f <safe_lshift_func_uint64_t_u_s+0x44>
    710e:	8b 45 f4             	mov    -0xc(%rbp),%eax
    7111:	48 8b 55 f8          	mov    -0x8(%rbp),%rdx
    7115:	89 c1                	mov    %eax,%ecx
    7117:	48 d3 e2             	shl    %cl,%rdx
    711a:	48 89 d0             	mov    %rdx,%rax
    711d:	eb 04                	jmp    7123 <safe_lshift_func_uint64_t_u_s+0x48>
    711f:	48 8b 45 f8          	mov    -0x8(%rbp),%rax
    7123:	5d                   	pop    %rbp
    7124:	c3                   	retq   

0000000000007125 <safe_lshift_func_uint64_t_u_u>:
    7125:	f3 0f 1e fa          	endbr64 
    7129:	55                   	push   %rbp
    712a:	48 89 e5             	mov    %rsp,%rbp
    712d:	48 89 7d f8          	mov    %rdi,-0x8(%rbp)
    7131:	89 75 f4             	mov    %esi,-0xc(%rbp)
    7134:	83 7d f4 1f          	cmpl   $0x1f,-0xc(%rbp)
    7138:	77 29                	ja     7163 <safe_lshift_func_uint64_t_u_u+0x3e>
    713a:	8b 45 f4             	mov    -0xc(%rbp),%eax
    713d:	48 c7 c2 ff ff ff ff 	mov    $0xffffffffffffffff,%rdx
    7144:	89 c1                	mov    %eax,%ecx
    7146:	48 d3 ea             	shr    %cl,%rdx
    7149:	48 89 d0             	mov    %rdx,%rax
    714c:	48 39 45 f8          	cmp    %rax,-0x8(%rbp)
    7150:	77 11                	ja     7163 <safe_lshift_func_uint64_t_u_u+0x3e>
    7152:	8b 45 f4             	mov    -0xc(%rbp),%eax
    7155:	48 8b 55 f8          	mov    -0x8(%rbp),%rdx
    7159:	89 c1                	mov    %eax,%ecx
    715b:	48 d3 e2             	shl    %cl,%rdx
    715e:	48 89 d0             	mov    %rdx,%rax
    7161:	eb 04                	jmp    7167 <safe_lshift_func_uint64_t_u_u+0x42>
    7163:	48 8b 45 f8          	mov    -0x8(%rbp),%rax
    7167:	5d                   	pop    %rbp
    7168:	c3                   	retq   

0000000000007169 <safe_rshift_func_uint64_t_u_s>:
    7169:	f3 0f 1e fa          	endbr64 
    716d:	55                   	push   %rbp
    716e:	48 89 e5             	mov    %rsp,%rbp
    7171:	48 89 7d f8          	mov    %rdi,-0x8(%rbp)
    7175:	89 75 f4             	mov    %esi,-0xc(%rbp)
    7178:	83 7d f4 00          	cmpl   $0x0,-0xc(%rbp)
    717c:	78 17                	js     7195 <safe_rshift_func_uint64_t_u_s+0x2c>
    717e:	83 7d f4 1f          	cmpl   $0x1f,-0xc(%rbp)
    7182:	7f 11                	jg     7195 <safe_rshift_func_uint64_t_u_s+0x2c>
    7184:	8b 45 f4             	mov    -0xc(%rbp),%eax
    7187:	48 8b 55 f8          	mov    -0x8(%rbp),%rdx
    718b:	89 c1                	mov    %eax,%ecx
    718d:	48 d3 ea             	shr    %cl,%rdx
    7190:	48 89 d0             	mov    %rdx,%rax
    7193:	eb 04                	jmp    7199 <safe_rshift_func_uint64_t_u_s+0x30>
    7195:	48 8b 45 f8          	mov    -0x8(%rbp),%rax
    7199:	5d                   	pop    %rbp
    719a:	c3                   	retq   

000000000000719b <safe_rshift_func_uint64_t_u_u>:
    719b:	f3 0f 1e fa          	endbr64 
    719f:	55                   	push   %rbp
    71a0:	48 89 e5             	mov    %rsp,%rbp
    71a3:	48 89 7d f8          	mov    %rdi,-0x8(%rbp)
    71a7:	89 75 f4             	mov    %esi,-0xc(%rbp)
    71aa:	83 7d f4 1f          	cmpl   $0x1f,-0xc(%rbp)
    71ae:	77 11                	ja     71c1 <safe_rshift_func_uint64_t_u_u+0x26>
    71b0:	8b 45 f4             	mov    -0xc(%rbp),%eax
    71b3:	48 8b 55 f8          	mov    -0x8(%rbp),%rdx
    71b7:	89 c1                	mov    %eax,%ecx
    71b9:	48 d3 ea             	shr    %cl,%rdx
    71bc:	48 89 d0             	mov    %rdx,%rax
    71bf:	eb 04                	jmp    71c5 <safe_rshift_func_uint64_t_u_u+0x2a>
    71c1:	48 8b 45 f8          	mov    -0x8(%rbp),%rax
    71c5:	5d                   	pop    %rbp
    71c6:	c3                   	retq   

00000000000071c7 <safe_add_func_float_f_f>:
    71c7:	f3 0f 1e fa          	endbr64 
    71cb:	55                   	push   %rbp
    71cc:	48 89 e5             	mov    %rsp,%rbp
    71cf:	f3 0f 11 45 fc       	movss  %xmm0,-0x4(%rbp)
    71d4:	f3 0f 11 4d f8       	movss  %xmm1,-0x8(%rbp)
    71d9:	f3 0f 10 4d fc       	movss  -0x4(%rbp),%xmm1
    71de:	f3 0f 10 05 a2 b1 00 	movss  0xb1a2(%rip),%xmm0        # 12388 <l_1815.4207+0xc8>
    71e5:	00 
    71e6:	f3 0f 59 c8          	mulss  %xmm0,%xmm1
    71ea:	f3 0f 10 55 f8       	movss  -0x8(%rbp),%xmm2
    71ef:	f3 0f 10 05 91 b1 00 	movss  0xb191(%rip),%xmm0        # 12388 <l_1815.4207+0xc8>
    71f6:	00 
    71f7:	f3 0f 59 c2          	mulss  %xmm2,%xmm0
    71fb:	f3 0f 58 c1          	addss  %xmm1,%xmm0
    71ff:	f3 0f 10 0d 89 b1 00 	movss  0xb189(%rip),%xmm1        # 12390 <l_1815.4207+0xd0>
    7206:	00 
    7207:	0f 54 c1             	andps  %xmm1,%xmm0
    720a:	0f 2f 05 8f b1 00 00 	comiss 0xb18f(%rip),%xmm0        # 123a0 <l_1815.4207+0xe0>
    7211:	76 07                	jbe    721a <safe_add_func_float_f_f+0x53>
    7213:	f3 0f 10 45 fc       	movss  -0x4(%rbp),%xmm0
    7218:	eb 0a                	jmp    7224 <safe_add_func_float_f_f+0x5d>
    721a:	f3 0f 10 45 fc       	movss  -0x4(%rbp),%xmm0
    721f:	f3 0f 58 45 f8       	addss  -0x8(%rbp),%xmm0
    7224:	5d                   	pop    %rbp
    7225:	c3                   	retq   

0000000000007226 <safe_sub_func_float_f_f>:
    7226:	f3 0f 1e fa          	endbr64 
    722a:	55                   	push   %rbp
    722b:	48 89 e5             	mov    %rsp,%rbp
    722e:	f3 0f 11 45 fc       	movss  %xmm0,-0x4(%rbp)
    7233:	f3 0f 11 4d f8       	movss  %xmm1,-0x8(%rbp)
    7238:	f3 0f 10 4d fc       	movss  -0x4(%rbp),%xmm1
    723d:	f3 0f 10 05 43 b1 00 	movss  0xb143(%rip),%xmm0        # 12388 <l_1815.4207+0xc8>
    7244:	00 
    7245:	f3 0f 59 c1          	mulss  %xmm1,%xmm0
    7249:	f3 0f 10 55 f8       	movss  -0x8(%rbp),%xmm2
    724e:	f3 0f 10 0d 32 b1 00 	movss  0xb132(%rip),%xmm1        # 12388 <l_1815.4207+0xc8>
    7255:	00 
    7256:	f3 0f 59 ca          	mulss  %xmm2,%xmm1
    725a:	f3 0f 5c c1          	subss  %xmm1,%xmm0
    725e:	f3 0f 10 0d 2a b1 00 	movss  0xb12a(%rip),%xmm1        # 12390 <l_1815.4207+0xd0>
    7265:	00 
    7266:	0f 54 c1             	andps  %xmm1,%xmm0
    7269:	0f 2f 05 30 b1 00 00 	comiss 0xb130(%rip),%xmm0        # 123a0 <l_1815.4207+0xe0>
    7270:	76 07                	jbe    7279 <safe_sub_func_float_f_f+0x53>
    7272:	f3 0f 10 45 fc       	movss  -0x4(%rbp),%xmm0
    7277:	eb 0a                	jmp    7283 <safe_sub_func_float_f_f+0x5d>
    7279:	f3 0f 10 45 fc       	movss  -0x4(%rbp),%xmm0
    727e:	f3 0f 5c 45 f8       	subss  -0x8(%rbp),%xmm0
    7283:	5d                   	pop    %rbp
    7284:	c3                   	retq   

0000000000007285 <safe_mul_func_float_f_f>:
    7285:	f3 0f 1e fa          	endbr64 
    7289:	55                   	push   %rbp
    728a:	48 89 e5             	mov    %rsp,%rbp
    728d:	f3 0f 11 45 fc       	movss  %xmm0,-0x4(%rbp)
    7292:	f3 0f 11 4d f8       	movss  %xmm1,-0x8(%rbp)
    7297:	f3 0f 10 4d fc       	movss  -0x4(%rbp),%xmm1
    729c:	f3 0f 10 05 00 b1 00 	movss  0xb100(%rip),%xmm0        # 123a4 <l_1815.4207+0xe4>
    72a3:	00 
    72a4:	f3 0f 59 c8          	mulss  %xmm0,%xmm1
    72a8:	f3 0f 10 55 f8       	movss  -0x8(%rbp),%xmm2
    72ad:	f3 0f 10 05 f3 b0 00 	movss  0xb0f3(%rip),%xmm0        # 123a8 <l_1815.4207+0xe8>
    72b4:	00 
    72b5:	f3 0f 59 c2          	mulss  %xmm2,%xmm0
    72b9:	f3 0f 59 c1          	mulss  %xmm1,%xmm0
    72bd:	f3 0f 10 0d cb b0 00 	movss  0xb0cb(%rip),%xmm1        # 12390 <l_1815.4207+0xd0>
    72c4:	00 
    72c5:	0f 54 c1             	andps  %xmm1,%xmm0
    72c8:	0f 2f 05 dd b0 00 00 	comiss 0xb0dd(%rip),%xmm0        # 123ac <l_1815.4207+0xec>
    72cf:	76 07                	jbe    72d8 <safe_mul_func_float_f_f+0x53>
    72d1:	f3 0f 10 45 fc       	movss  -0x4(%rbp),%xmm0
    72d6:	eb 0a                	jmp    72e2 <safe_mul_func_float_f_f+0x5d>
    72d8:	f3 0f 10 45 fc       	movss  -0x4(%rbp),%xmm0
    72dd:	f3 0f 59 45 f8       	mulss  -0x8(%rbp),%xmm0
    72e2:	5d                   	pop    %rbp
    72e3:	c3                   	retq   

00000000000072e4 <safe_div_func_float_f_f>:
    72e4:	f3 0f 1e fa          	endbr64 
    72e8:	55                   	push   %rbp
    72e9:	48 89 e5             	mov    %rsp,%rbp
    72ec:	f3 0f 11 45 fc       	movss  %xmm0,-0x4(%rbp)
    72f1:	f3 0f 11 4d f8       	movss  %xmm1,-0x8(%rbp)
    72f6:	f3 0f 10 45 f8       	movss  -0x8(%rbp),%xmm0
    72fb:	f3 0f 10 0d 8d b0 00 	movss  0xb08d(%rip),%xmm1        # 12390 <l_1815.4207+0xd0>
    7302:	00 
    7303:	0f 54 c8             	andps  %xmm0,%xmm1
    7306:	f3 0f 10 05 a2 b0 00 	movss  0xb0a2(%rip),%xmm0        # 123b0 <l_1815.4207+0xf0>
    730d:	00 
    730e:	0f 2f c1             	comiss %xmm1,%xmm0
    7311:	0f 97 c0             	seta   %al
    7314:	83 f0 01             	xor    $0x1,%eax
    7317:	84 c0                	test   %al,%al
    7319:	75 56                	jne    7371 <safe_div_func_float_f_f+0x8d>
    731b:	66 0f ef c0          	pxor   %xmm0,%xmm0
    731f:	0f 2e 45 f8          	ucomiss -0x8(%rbp),%xmm0
    7323:	7a 0a                	jp     732f <safe_div_func_float_f_f+0x4b>
    7325:	66 0f ef c0          	pxor   %xmm0,%xmm0
    7329:	0f 2e 45 f8          	ucomiss -0x8(%rbp),%xmm0
    732d:	74 4e                	je     737d <safe_div_func_float_f_f+0x99>
    732f:	f3 0f 10 4d fc       	movss  -0x4(%rbp),%xmm1
    7334:	f3 0f 10 05 78 b0 00 	movss  0xb078(%rip),%xmm0        # 123b4 <l_1815.4207+0xf4>
    733b:	00 
    733c:	f3 0f 59 c1          	mulss  %xmm1,%xmm0
    7340:	f3 0f 10 55 f8       	movss  -0x8(%rbp),%xmm2
    7345:	f3 0f 10 0d 6b b0 00 	movss  0xb06b(%rip),%xmm1        # 123b8 <l_1815.4207+0xf8>
    734c:	00 
    734d:	f3 0f 59 ca          	mulss  %xmm2,%xmm1
    7351:	f3 0f 5e c1          	divss  %xmm1,%xmm0
    7355:	f3 0f 10 0d 33 b0 00 	movss  0xb033(%rip),%xmm1        # 12390 <l_1815.4207+0xd0>
    735c:	00 
    735d:	0f 54 c1             	andps  %xmm1,%xmm0
    7360:	0f 2f 05 55 b0 00 00 	comiss 0xb055(%rip),%xmm0        # 123bc <l_1815.4207+0xfc>
    7367:	0f 97 c0             	seta   %al
    736a:	83 f0 01             	xor    $0x1,%eax
    736d:	84 c0                	test   %al,%al
    736f:	74 0c                	je     737d <safe_div_func_float_f_f+0x99>
    7371:	f3 0f 10 45 fc       	movss  -0x4(%rbp),%xmm0
    7376:	f3 0f 5e 45 f8       	divss  -0x8(%rbp),%xmm0
    737b:	eb 05                	jmp    7382 <safe_div_func_float_f_f+0x9e>
    737d:	f3 0f 10 45 fc       	movss  -0x4(%rbp),%xmm0
    7382:	5d                   	pop    %rbp
    7383:	c3                   	retq   

0000000000007384 <safe_add_func_double_f_f>:
    7384:	f3 0f 1e fa          	endbr64 
    7388:	55                   	push   %rbp
    7389:	48 89 e5             	mov    %rsp,%rbp
    738c:	f2 0f 11 45 f8       	movsd  %xmm0,-0x8(%rbp)
    7391:	f2 0f 11 4d f0       	movsd  %xmm1,-0x10(%rbp)
    7396:	f2 0f 10 4d f8       	movsd  -0x8(%rbp),%xmm1
    739b:	f2 0f 10 05 1d b0 00 	movsd  0xb01d(%rip),%xmm0        # 123c0 <l_1815.4207+0x100>
    73a2:	00 
    73a3:	f2 0f 59 c8          	mulsd  %xmm0,%xmm1
    73a7:	f2 0f 10 55 f0       	movsd  -0x10(%rbp),%xmm2
    73ac:	f2 0f 10 05 0c b0 00 	movsd  0xb00c(%rip),%xmm0        # 123c0 <l_1815.4207+0x100>
    73b3:	00 
    73b4:	f2 0f 59 c2          	mulsd  %xmm2,%xmm0
    73b8:	f2 0f 58 c1          	addsd  %xmm1,%xmm0
    73bc:	f3 0f 7e 0d 0c b0 00 	movq   0xb00c(%rip),%xmm1        # 123d0 <l_1815.4207+0x110>
    73c3:	00 
    73c4:	66 0f 54 c1          	andpd  %xmm1,%xmm0
    73c8:	66 0f 2f 05 10 b0 00 	comisd 0xb010(%rip),%xmm0        # 123e0 <l_1815.4207+0x120>
    73cf:	00 
    73d0:	76 07                	jbe    73d9 <safe_add_func_double_f_f+0x55>
    73d2:	f2 0f 10 45 f8       	movsd  -0x8(%rbp),%xmm0
    73d7:	eb 0a                	jmp    73e3 <safe_add_func_double_f_f+0x5f>
    73d9:	f2 0f 10 45 f8       	movsd  -0x8(%rbp),%xmm0
    73de:	f2 0f 58 45 f0       	addsd  -0x10(%rbp),%xmm0
    73e3:	5d                   	pop    %rbp
    73e4:	c3                   	retq   

00000000000073e5 <safe_sub_func_double_f_f>:
    73e5:	f3 0f 1e fa          	endbr64 
    73e9:	55                   	push   %rbp
    73ea:	48 89 e5             	mov    %rsp,%rbp
    73ed:	f2 0f 11 45 f8       	movsd  %xmm0,-0x8(%rbp)
    73f2:	f2 0f 11 4d f0       	movsd  %xmm1,-0x10(%rbp)
    73f7:	f2 0f 10 4d f8       	movsd  -0x8(%rbp),%xmm1
    73fc:	f2 0f 10 05 bc af 00 	movsd  0xafbc(%rip),%xmm0        # 123c0 <l_1815.4207+0x100>
    7403:	00 
    7404:	f2 0f 59 c1          	mulsd  %xmm1,%xmm0
    7408:	f2 0f 10 55 f0       	movsd  -0x10(%rbp),%xmm2
    740d:	f2 0f 10 0d ab af 00 	movsd  0xafab(%rip),%xmm1        # 123c0 <l_1815.4207+0x100>
    7414:	00 
    7415:	f2 0f 59 ca          	mulsd  %xmm2,%xmm1
    7419:	f2 0f 5c c1          	subsd  %xmm1,%xmm0
    741d:	f3 0f 7e 0d ab af 00 	movq   0xafab(%rip),%xmm1        # 123d0 <l_1815.4207+0x110>
    7424:	00 
    7425:	66 0f 54 c1          	andpd  %xmm1,%xmm0
    7429:	66 0f 2f 05 af af 00 	comisd 0xafaf(%rip),%xmm0        # 123e0 <l_1815.4207+0x120>
    7430:	00 
    7431:	76 07                	jbe    743a <safe_sub_func_double_f_f+0x55>
    7433:	f2 0f 10 45 f8       	movsd  -0x8(%rbp),%xmm0
    7438:	eb 0a                	jmp    7444 <safe_sub_func_double_f_f+0x5f>
    743a:	f2 0f 10 45 f8       	movsd  -0x8(%rbp),%xmm0
    743f:	f2 0f 5c 45 f0       	subsd  -0x10(%rbp),%xmm0
    7444:	5d                   	pop    %rbp
    7445:	c3                   	retq   

0000000000007446 <safe_mul_func_double_f_f>:
    7446:	f3 0f 1e fa          	endbr64 
    744a:	55                   	push   %rbp
    744b:	48 89 e5             	mov    %rsp,%rbp
    744e:	f2 0f 11 45 f8       	movsd  %xmm0,-0x8(%rbp)
    7453:	f2 0f 11 4d f0       	movsd  %xmm1,-0x10(%rbp)
    7458:	f2 0f 10 4d f8       	movsd  -0x8(%rbp),%xmm1
    745d:	f2 0f 10 05 83 af 00 	movsd  0xaf83(%rip),%xmm0        # 123e8 <l_1815.4207+0x128>
    7464:	00 
    7465:	f2 0f 59 c8          	mulsd  %xmm0,%xmm1
    7469:	f2 0f 10 55 f0       	movsd  -0x10(%rbp),%xmm2
    746e:	f2 0f 10 05 7a af 00 	movsd  0xaf7a(%rip),%xmm0        # 123f0 <l_1815.4207+0x130>
    7475:	00 
    7476:	f2 0f 59 c2          	mulsd  %xmm2,%xmm0
    747a:	f2 0f 59 c1          	mulsd  %xmm1,%xmm0
    747e:	f3 0f 7e 0d 4a af 00 	movq   0xaf4a(%rip),%xmm1        # 123d0 <l_1815.4207+0x110>
    7485:	00 
    7486:	66 0f 54 c1          	andpd  %xmm1,%xmm0
    748a:	66 0f 2f 05 66 af 00 	comisd 0xaf66(%rip),%xmm0        # 123f8 <l_1815.4207+0x138>
    7491:	00 
    7492:	76 07                	jbe    749b <safe_mul_func_double_f_f+0x55>
    7494:	f2 0f 10 45 f8       	movsd  -0x8(%rbp),%xmm0
    7499:	eb 0a                	jmp    74a5 <safe_mul_func_double_f_f+0x5f>
    749b:	f2 0f 10 45 f8       	movsd  -0x8(%rbp),%xmm0
    74a0:	f2 0f 59 45 f0       	mulsd  -0x10(%rbp),%xmm0
    74a5:	5d                   	pop    %rbp
    74a6:	c3                   	retq   

00000000000074a7 <safe_div_func_double_f_f>:
    74a7:	f3 0f 1e fa          	endbr64 
    74ab:	55                   	push   %rbp
    74ac:	48 89 e5             	mov    %rsp,%rbp
    74af:	f2 0f 11 45 f8       	movsd  %xmm0,-0x8(%rbp)
    74b4:	f2 0f 11 4d f0       	movsd  %xmm1,-0x10(%rbp)
    74b9:	f2 0f 10 45 f0       	movsd  -0x10(%rbp),%xmm0
    74be:	f3 0f 7e 0d 0a af 00 	movq   0xaf0a(%rip),%xmm1        # 123d0 <l_1815.4207+0x110>
    74c5:	00 
    74c6:	66 0f 54 c8          	andpd  %xmm0,%xmm1
    74ca:	f2 0f 10 05 2e af 00 	movsd  0xaf2e(%rip),%xmm0        # 12400 <l_1815.4207+0x140>
    74d1:	00 
    74d2:	66 0f 2f c1          	comisd %xmm1,%xmm0
    74d6:	0f 97 c0             	seta   %al
    74d9:	83 f0 01             	xor    $0x1,%eax
    74dc:	84 c0                	test   %al,%al
    74de:	75 5a                	jne    753a <safe_div_func_double_f_f+0x93>
    74e0:	66 0f ef c0          	pxor   %xmm0,%xmm0
    74e4:	66 0f 2e 45 f0       	ucomisd -0x10(%rbp),%xmm0
    74e9:	7a 0b                	jp     74f6 <safe_div_func_double_f_f+0x4f>
    74eb:	66 0f ef c0          	pxor   %xmm0,%xmm0
    74ef:	66 0f 2e 45 f0       	ucomisd -0x10(%rbp),%xmm0
    74f4:	74 50                	je     7546 <safe_div_func_double_f_f+0x9f>
    74f6:	f2 0f 10 4d f8       	movsd  -0x8(%rbp),%xmm1
    74fb:	f2 0f 10 05 05 af 00 	movsd  0xaf05(%rip),%xmm0        # 12408 <l_1815.4207+0x148>
    7502:	00 
    7503:	f2 0f 59 c1          	mulsd  %xmm1,%xmm0
    7507:	f2 0f 10 55 f0       	movsd  -0x10(%rbp),%xmm2
    750c:	f2 0f 10 0d fc ae 00 	movsd  0xaefc(%rip),%xmm1        # 12410 <l_1815.4207+0x150>
    7513:	00 
    7514:	f2 0f 59 ca          	mulsd  %xmm2,%xmm1
    7518:	f2 0f 5e c1          	divsd  %xmm1,%xmm0
    751c:	f3 0f 7e 0d ac ae 00 	movq   0xaeac(%rip),%xmm1        # 123d0 <l_1815.4207+0x110>
    7523:	00 
    7524:	66 0f 54 c1          	andpd  %xmm1,%xmm0
    7528:	66 0f 2f 05 e8 ae 00 	comisd 0xaee8(%rip),%xmm0        # 12418 <l_1815.4207+0x158>
    752f:	00 
    7530:	0f 97 c0             	seta   %al
    7533:	83 f0 01             	xor    $0x1,%eax
    7536:	84 c0                	test   %al,%al
    7538:	74 0c                	je     7546 <safe_div_func_double_f_f+0x9f>
    753a:	f2 0f 10 45 f8       	movsd  -0x8(%rbp),%xmm0
    753f:	f2 0f 5e 45 f0       	divsd  -0x10(%rbp),%xmm0
    7544:	eb 05                	jmp    754b <safe_div_func_double_f_f+0xa4>
    7546:	f2 0f 10 45 f8       	movsd  -0x8(%rbp),%xmm0
    754b:	5d                   	pop    %rbp
    754c:	c3                   	retq   

000000000000754d <safe_convert_func_float_to_int32_t>:
    754d:	f3 0f 1e fa          	endbr64 
    7551:	55                   	push   %rbp
    7552:	48 89 e5             	mov    %rsp,%rbp
    7555:	f3 0f 11 45 fc       	movss  %xmm0,-0x4(%rbp)
    755a:	f3 0f 10 05 be ae 00 	movss  0xaebe(%rip),%xmm0        # 12420 <l_1815.4207+0x160>
    7561:	00 
    7562:	0f 2f 45 fc          	comiss -0x4(%rbp),%xmm0
    7566:	0f 93 c0             	setae  %al
    7569:	83 f0 01             	xor    $0x1,%eax
    756c:	84 c0                	test   %al,%al
    756e:	74 21                	je     7591 <safe_convert_func_float_to_int32_t+0x44>
    7570:	f3 0f 10 45 fc       	movss  -0x4(%rbp),%xmm0
    7575:	0f 2f 05 a8 ae 00 00 	comiss 0xaea8(%rip),%xmm0        # 12424 <l_1815.4207+0x164>
    757c:	0f 93 c0             	setae  %al
    757f:	83 f0 01             	xor    $0x1,%eax
    7582:	84 c0                	test   %al,%al
    7584:	74 0b                	je     7591 <safe_convert_func_float_to_int32_t+0x44>
    7586:	f3 0f 10 45 fc       	movss  -0x4(%rbp),%xmm0
    758b:	f3 0f 2c c0          	cvttss2si %xmm0,%eax
    758f:	eb 05                	jmp    7596 <safe_convert_func_float_to_int32_t+0x49>
    7591:	b8 ff ff ff 7f       	mov    $0x7fffffff,%eax
    7596:	5d                   	pop    %rbp
    7597:	c3                   	retq   

0000000000007598 <crc32_gentab>:
    7598:	f3 0f 1e fa          	endbr64 
    759c:	55                   	push   %rbp
    759d:	48 89 e5             	mov    %rsp,%rbp
    75a0:	c7 45 fc 20 83 b8 ed 	movl   $0xedb88320,-0x4(%rbp)
    75a7:	c7 45 f4 00 00 00 00 	movl   $0x0,-0xc(%rbp)
    75ae:	eb 51                	jmp    7601 <crc32_gentab+0x69>
    75b0:	8b 45 f4             	mov    -0xc(%rbp),%eax
    75b3:	89 45 f0             	mov    %eax,-0x10(%rbp)
    75b6:	c7 45 f8 08 00 00 00 	movl   $0x8,-0x8(%rbp)
    75bd:	eb 1e                	jmp    75dd <crc32_gentab+0x45>
    75bf:	8b 45 f0             	mov    -0x10(%rbp),%eax
    75c2:	83 e0 01             	and    $0x1,%eax
    75c5:	85 c0                	test   %eax,%eax
    75c7:	74 0d                	je     75d6 <crc32_gentab+0x3e>
    75c9:	8b 45 f0             	mov    -0x10(%rbp),%eax
    75cc:	d1 e8                	shr    %eax
    75ce:	33 45 fc             	xor    -0x4(%rbp),%eax
    75d1:	89 45 f0             	mov    %eax,-0x10(%rbp)
    75d4:	eb 03                	jmp    75d9 <crc32_gentab+0x41>
    75d6:	d1 6d f0             	shrl   -0x10(%rbp)
    75d9:	83 6d f8 01          	subl   $0x1,-0x8(%rbp)
    75dd:	83 7d f8 00          	cmpl   $0x0,-0x8(%rbp)
    75e1:	7f dc                	jg     75bf <crc32_gentab+0x27>
    75e3:	8b 45 f4             	mov    -0xc(%rbp),%eax
    75e6:	48 98                	cltq   
    75e8:	48 8d 0c 85 00 00 00 	lea    0x0(,%rax,4),%rcx
    75ef:	00 
    75f0:	48 8d 15 09 00 01 00 	lea    0x10009(%rip),%rdx        # 17600 <crc32_tab>
    75f7:	8b 45 f0             	mov    -0x10(%rbp),%eax
    75fa:	89 04 11             	mov    %eax,(%rcx,%rdx,1)
    75fd:	83 45 f4 01          	addl   $0x1,-0xc(%rbp)
    7601:	81 7d f4 ff 00 00 00 	cmpl   $0xff,-0xc(%rbp)
    7608:	7e a6                	jle    75b0 <crc32_gentab+0x18>
    760a:	90                   	nop
    760b:	90                   	nop
    760c:	5d                   	pop    %rbp
    760d:	c3                   	retq   

000000000000760e <crc32_byte>:
    760e:	f3 0f 1e fa          	endbr64 
    7612:	55                   	push   %rbp
    7613:	48 89 e5             	mov    %rsp,%rbp
    7616:	89 f8                	mov    %edi,%eax
    7618:	88 45 fc             	mov    %al,-0x4(%rbp)
    761b:	8b 05 ff d9 00 00    	mov    0xd9ff(%rip),%eax        # 15020 <crc32_context>
    7621:	c1 e8 08             	shr    $0x8,%eax
    7624:	89 c1                	mov    %eax,%ecx
    7626:	0f b6 55 fc          	movzbl -0x4(%rbp),%edx
    762a:	8b 05 f0 d9 00 00    	mov    0xd9f0(%rip),%eax        # 15020 <crc32_context>
    7630:	31 d0                	xor    %edx,%eax
    7632:	0f b6 c0             	movzbl %al,%eax
    7635:	89 c0                	mov    %eax,%eax
    7637:	48 8d 14 85 00 00 00 	lea    0x0(,%rax,4),%rdx
    763e:	00 
    763f:	48 8d 05 ba ff 00 00 	lea    0xffba(%rip),%rax        # 17600 <crc32_tab>
    7646:	8b 04 02             	mov    (%rdx,%rax,1),%eax
    7649:	31 c8                	xor    %ecx,%eax
    764b:	89 05 cf d9 00 00    	mov    %eax,0xd9cf(%rip)        # 15020 <crc32_context>
    7651:	90                   	nop
    7652:	5d                   	pop    %rbp
    7653:	c3                   	retq   

0000000000007654 <crc32_8bytes>:
    7654:	f3 0f 1e fa          	endbr64 
    7658:	55                   	push   %rbp
    7659:	48 89 e5             	mov    %rsp,%rbp
    765c:	48 83 ec 08          	sub    $0x8,%rsp
    7660:	48 89 7d f8          	mov    %rdi,-0x8(%rbp)
    7664:	48 8b 45 f8          	mov    -0x8(%rbp),%rax
    7668:	0f b6 c0             	movzbl %al,%eax
    766b:	89 c7                	mov    %eax,%edi
    766d:	e8 9c ff ff ff       	callq  760e <crc32_byte>
    7672:	48 8b 45 f8          	mov    -0x8(%rbp),%rax
    7676:	48 c1 e8 08          	shr    $0x8,%rax
    767a:	0f b6 c0             	movzbl %al,%eax
    767d:	89 c7                	mov    %eax,%edi
    767f:	e8 8a ff ff ff       	callq  760e <crc32_byte>
    7684:	48 8b 45 f8          	mov    -0x8(%rbp),%rax
    7688:	48 c1 e8 10          	shr    $0x10,%rax
    768c:	0f b6 c0             	movzbl %al,%eax
    768f:	89 c7                	mov    %eax,%edi
    7691:	e8 78 ff ff ff       	callq  760e <crc32_byte>
    7696:	48 8b 45 f8          	mov    -0x8(%rbp),%rax
    769a:	48 c1 e8 18          	shr    $0x18,%rax
    769e:	0f b6 c0             	movzbl %al,%eax
    76a1:	89 c7                	mov    %eax,%edi
    76a3:	e8 66 ff ff ff       	callq  760e <crc32_byte>
    76a8:	48 8b 45 f8          	mov    -0x8(%rbp),%rax
    76ac:	48 c1 e8 20          	shr    $0x20,%rax
    76b0:	0f b6 c0             	movzbl %al,%eax
    76b3:	89 c7                	mov    %eax,%edi
    76b5:	e8 54 ff ff ff       	callq  760e <crc32_byte>
    76ba:	48 8b 45 f8          	mov    -0x8(%rbp),%rax
    76be:	48 c1 e8 28          	shr    $0x28,%rax
    76c2:	0f b6 c0             	movzbl %al,%eax
    76c5:	89 c7                	mov    %eax,%edi
    76c7:	e8 42 ff ff ff       	callq  760e <crc32_byte>
    76cc:	48 8b 45 f8          	mov    -0x8(%rbp),%rax
    76d0:	48 c1 e8 30          	shr    $0x30,%rax
    76d4:	0f b6 c0             	movzbl %al,%eax
    76d7:	89 c7                	mov    %eax,%edi
    76d9:	e8 30 ff ff ff       	callq  760e <crc32_byte>
    76de:	48 8b 45 f8          	mov    -0x8(%rbp),%rax
    76e2:	48 c1 e8 38          	shr    $0x38,%rax
    76e6:	0f b6 c0             	movzbl %al,%eax
    76e9:	89 c7                	mov    %eax,%edi
    76eb:	e8 1e ff ff ff       	callq  760e <crc32_byte>
    76f0:	90                   	nop
    76f1:	c9                   	leaveq 
    76f2:	c3                   	retq   

00000000000076f3 <transparent_crc>:
    76f3:	f3 0f 1e fa          	endbr64 
    76f7:	55                   	push   %rbp
    76f8:	48 89 e5             	mov    %rsp,%rbp
    76fb:	48 83 ec 20          	sub    $0x20,%rsp
    76ff:	48 89 7d f8          	mov    %rdi,-0x8(%rbp)
    7703:	48 89 75 f0          	mov    %rsi,-0x10(%rbp)
    7707:	89 55 ec             	mov    %edx,-0x14(%rbp)
    770a:	48 8b 45 f8          	mov    -0x8(%rbp),%rax
    770e:	48 89 c7             	mov    %rax,%rdi
    7711:	e8 3e ff ff ff       	callq  7654 <crc32_8bytes>
    7716:	83 7d ec 00          	cmpl   $0x0,-0x14(%rbp)
    771a:	74 22                	je     773e <transparent_crc+0x4b>
    771c:	8b 05 fe d8 00 00    	mov    0xd8fe(%rip),%eax        # 15020 <crc32_context>
    7722:	f7 d0                	not    %eax
    7724:	89 c2                	mov    %eax,%edx
    7726:	48 8b 45 f0          	mov    -0x10(%rbp),%rax
    772a:	48 89 c6             	mov    %rax,%rsi
    772d:	48 8d 3d fc 98 00 00 	lea    0x98fc(%rip),%rdi        # 11030 <_IO_stdin_used+0x30>
    7734:	b8 00 00 00 00       	mov    $0x0,%eax
    7739:	e8 42 e9 ff ff       	callq  6080 <printf@plt>
    773e:	90                   	nop
    773f:	c9                   	leaveq 
    7740:	c3                   	retq   

0000000000007741 <transparent_crc_bytes>:
    7741:	f3 0f 1e fa          	endbr64 
    7745:	55                   	push   %rbp
    7746:	48 89 e5             	mov    %rsp,%rbp
    7749:	48 83 ec 30          	sub    $0x30,%rsp
    774d:	48 89 7d e8          	mov    %rdi,-0x18(%rbp)
    7751:	89 75 e4             	mov    %esi,-0x1c(%rbp)
    7754:	48 89 55 d8          	mov    %rdx,-0x28(%rbp)
    7758:	89 4d e0             	mov    %ecx,-0x20(%rbp)
    775b:	c7 45 fc 00 00 00 00 	movl   $0x0,-0x4(%rbp)
    7762:	eb 1e                	jmp    7782 <transparent_crc_bytes+0x41>
    7764:	8b 45 fc             	mov    -0x4(%rbp),%eax
    7767:	48 63 d0             	movslq %eax,%rdx
    776a:	48 8b 45 e8          	mov    -0x18(%rbp),%rax
    776e:	48 01 d0             	add    %rdx,%rax
    7771:	0f b6 00             	movzbl (%rax),%eax
    7774:	0f b6 c0             	movzbl %al,%eax
    7777:	89 c7                	mov    %eax,%edi
    7779:	e8 90 fe ff ff       	callq  760e <crc32_byte>
    777e:	83 45 fc 01          	addl   $0x1,-0x4(%rbp)
    7782:	8b 45 fc             	mov    -0x4(%rbp),%eax
    7785:	3b 45 e4             	cmp    -0x1c(%rbp),%eax
    7788:	7c da                	jl     7764 <transparent_crc_bytes+0x23>
    778a:	83 7d e0 00          	cmpl   $0x0,-0x20(%rbp)
    778e:	74 22                	je     77b2 <transparent_crc_bytes+0x71>
    7790:	8b 05 8a d8 00 00    	mov    0xd88a(%rip),%eax        # 15020 <crc32_context>
    7796:	f7 d0                	not    %eax
    7798:	89 c2                	mov    %eax,%edx
    779a:	48 8b 45 d8          	mov    -0x28(%rbp),%rax
    779e:	48 89 c6             	mov    %rax,%rsi
    77a1:	48 8d 3d 88 98 00 00 	lea    0x9888(%rip),%rdi        # 11030 <_IO_stdin_used+0x30>
    77a8:	b8 00 00 00 00       	mov    $0x0,%eax
    77ad:	e8 ce e8 ff ff       	callq  6080 <printf@plt>
    77b2:	90                   	nop
    77b3:	c9                   	leaveq 
    77b4:	c3                   	retq   

00000000000077b5 <func_1>:
    77b5:	f3 0f 1e fa          	endbr64 
    77b9:	55                   	push   %rbp
    77ba:	48 89 e5             	mov    %rsp,%rbp
    77bd:	41 57                	push   %r15
    77bf:	41 56                	push   %r14
    77c1:	41 55                	push   %r13
    77c3:	41 54                	push   %r12
    77c5:	53                   	push   %rbx
    77c6:	48 81 ec 00 10 00 00 	sub    $0x1000,%rsp
    77cd:	48 83 0c 24 00       	orq    $0x0,(%rsp)
    77d2:	48 81 ec 58 07 00 00 	sub    $0x758,%rsp
    77d9:	64 48 8b 04 25 28 00 	mov    %fs:0x28,%rax
    77e0:	00 00 
    77e2:	48 89 45 c8          	mov    %rax,-0x38(%rbp)
    77e6:	31 c0                	xor    %eax,%eax
    77e8:	48 8d 85 e0 f0 ff ff 	lea    -0xf20(%rbp),%rax
    77ef:	48 8d 15 aa e3 00 00 	lea    0xe3aa(%rip),%rdx        # 15ba0 <g_1850+0x40>
    77f6:	b9 e0 00 00 00       	mov    $0xe0,%ecx
    77fb:	48 89 c7             	mov    %rax,%rdi
    77fe:	48 89 d6             	mov    %rdx,%rsi
    7801:	f3 48 a5             	rep movsq %ds:(%rsi),%es:(%rdi)
    7804:	48 c7 85 30 e9 ff ff 	movq   $0x0,-0x16d0(%rbp)
    780b:	00 00 00 00 
    780f:	48 8d 85 70 ec ff ff 	lea    -0x1390(%rbp),%rax
    7816:	48 8d 15 63 98 00 00 	lea    0x9863(%rip),%rdx        # 11080 <g_1636+0x1a>
    781d:	b9 3c 00 00 00       	mov    $0x3c,%ecx
    7822:	48 89 c7             	mov    %rax,%rdi
    7825:	48 89 d6             	mov    %rdx,%rsi
    7828:	f3 48 a5             	rep movsq %ds:(%rsi),%es:(%rdi)
    782b:	c7 85 a0 e8 ff ff 01 	movl   $0x1,-0x1760(%rbp)
    7832:	00 00 00 
    7835:	c7 85 a4 e8 ff ff 00 	movl   $0x0,-0x175c(%rbp)
    783c:	00 00 00 
    783f:	48 b8 af 16 f0 cc a4 	movabs $0x9d3894a4ccf016af,%rax
    7846:	94 38 9d 
    7849:	48 89 85 58 e9 ff ff 	mov    %rax,-0x16a8(%rbp)
    7850:	c7 85 c4 e8 ff ff 08 	movl   $0xf5486f08,-0x173c(%rbp)
    7857:	6f 48 f5 
    785a:	48 8d 05 27 e2 00 00 	lea    0xe227(%rip),%rax        # 15a88 <g_1051+0x8>
    7861:	48 89 85 60 e9 ff ff 	mov    %rax,-0x16a0(%rbp)
    7868:	c7 85 e0 e8 ff ff fc 	movl   $0xfffffffc,-0x1720(%rbp)
    786f:	ff ff ff 
    7872:	48 c7 85 68 e9 ff ff 	movq   $0x0,-0x1698(%rbp)
    7879:	00 00 00 00 
    787d:	48 8d 05 bc dd 00 00 	lea    0xddbc(%rip),%rax        # 15640 <g_659>
    7884:	48 89 85 70 e9 ff ff 	mov    %rax,-0x1690(%rbp)
    788b:	48 8d 05 a6 db 00 00 	lea    0xdba6(%rip),%rax        # 15438 <g_87+0x18>
    7892:	48 89 85 38 e9 ff ff 	mov    %rax,-0x16c8(%rbp)
    7899:	48 c7 85 40 eb ff ff 	movq   $0x0,-0x14c0(%rbp)
    78a0:	00 00 00 00 
    78a4:	48 c7 85 48 eb ff ff 	movq   $0x6,-0x14b8(%rbp)
    78ab:	06 00 00 00 
    78af:	48 c7 85 50 eb ff ff 	movq   $0x0,-0x14b0(%rbp)
    78b6:	00 00 00 00 
    78ba:	48 c7 85 58 eb ff ff 	movq   $0x6,-0x14a8(%rbp)
    78c1:	06 00 00 00 
    78c5:	48 c7 85 60 eb ff ff 	movq   $0x0,-0x14a0(%rbp)
    78cc:	00 00 00 00 
    78d0:	48 c7 85 68 eb ff ff 	movq   $0x6,-0x1498(%rbp)
    78d7:	06 00 00 00 
    78db:	48 c7 85 70 eb ff ff 	movq   $0x0,-0x1490(%rbp)
    78e2:	00 00 00 00 
    78e6:	48 c7 85 78 eb ff ff 	movq   $0x6,-0x1488(%rbp)
    78ed:	06 00 00 00 
    78f1:	48 c7 85 80 eb ff ff 	movq   $0x0,-0x1480(%rbp)
    78f8:	00 00 00 00 
    78fc:	48 8d 85 a4 e8 ff ff 	lea    -0x175c(%rbp),%rax
    7903:	48 89 85 40 e9 ff ff 	mov    %rax,-0x16c0(%rbp)
    790a:	48 8d 05 f7 da 00 00 	lea    0xdaf7(%rip),%rax        # 15408 <g_5>
    7911:	48 89 85 78 e9 ff ff 	mov    %rax,-0x1688(%rbp)
    7918:	c7 85 e4 e8 ff ff 79 	movl   $0x5dbcd479,-0x171c(%rbp)
    791f:	d4 bc 5d 
    7922:	c7 85 e0 ea ff ff c1 	movl   $0x6f8892c1,-0x1520(%rbp)
    7929:	92 88 6f 
    792c:	c7 85 e4 ea ff ff c1 	movl   $0x6f8892c1,-0x151c(%rbp)
    7933:	92 88 6f 
    7936:	c7 85 e8 ea ff ff c1 	movl   $0x6f8892c1,-0x1518(%rbp)
    793d:	92 88 6f 
    7940:	c7 85 ec ea ff ff c1 	movl   $0x6f8892c1,-0x1514(%rbp)
    7947:	92 88 6f 
    794a:	c7 85 c8 e8 ff ff 08 	movl   $0x8,-0x1738(%rbp)
    7951:	00 00 00 
    7954:	c7 85 e8 e8 ff ff 81 	movl   $0x2c824a81,-0x1718(%rbp)
    795b:	4a 82 2c 
    795e:	c7 85 cc e8 ff ff 00 	movl   $0x0,-0x1734(%rbp)
    7965:	00 00 00 
    7968:	eb 1a                	jmp    7984 <func_1+0x1cf>
    796a:	8b 85 cc e8 ff ff    	mov    -0x1734(%rbp),%eax
    7970:	48 98                	cltq   
    7972:	c7 84 85 cc ea ff ff 	movl   $0x9,-0x1534(%rbp,%rax,4)
    7979:	09 00 00 00 
    797d:	83 85 cc e8 ff ff 01 	addl   $0x1,-0x1734(%rbp)
    7984:	83 bd cc e8 ff ff 01 	cmpl   $0x1,-0x1734(%rbp)
    798b:	7e dd                	jle    796a <func_1+0x1b5>
    798d:	c7 85 cc e8 ff ff 00 	movl   $0x0,-0x1734(%rbp)
    7994:	00 00 00 
    7997:	eb 1e                	jmp    79b7 <func_1+0x202>
    7999:	8b 85 cc e8 ff ff    	mov    -0x1734(%rbp),%eax
    799f:	48 98                	cltq   
    79a1:	48 8d 15 68 00 01 00 	lea    0x10068(%rip),%rdx        # 17a10 <g_462>
    79a8:	48 89 94 c5 00 eb ff 	mov    %rdx,-0x1500(%rbp,%rax,8)
    79af:	ff 
    79b0:	83 85 cc e8 ff ff 01 	addl   $0x1,-0x1734(%rbp)
    79b7:	83 bd cc e8 ff ff 02 	cmpl   $0x2,-0x1734(%rbp)
    79be:	7e d9                	jle    7999 <func_1+0x1e4>
    79c0:	c7 05 3e da 00 00 00 	movl   $0x0,0xda3e(%rip)        # 15408 <g_5>
    79c7:	00 00 00 
    79ca:	e9 16 01 00 00       	jmpq   7ae5 <func_1+0x330>
    79cf:	66 c7 85 9e e8 ff ff 	movw   $0xe656,-0x1762(%rbp)
    79d6:	56 e6 
    79d8:	c7 85 28 e9 ff ff de 	movl   $0xff60cbde,-0x16d8(%rbp)
    79df:	cb 60 ff 
    79e2:	48 b8 b5 7e 7f 84 4f 	movabs $0x72a4a94f847f7eb5,%rax
    79e9:	a9 a4 72 
    79ec:	48 89 85 a8 ea ff ff 	mov    %rax,-0x1558(%rbp)
    79f3:	c7 85 2c e9 ff ff 86 	movl   $0x6cc24f86,-0x16d4(%rbp)
    79fa:	4f c2 6c 
    79fd:	48 8d 85 e0 f7 ff ff 	lea    -0x820(%rbp),%rax
    7a04:	48 8d 15 95 e8 00 00 	lea    0xe895(%rip),%rdx        # 162a0 <g_1850+0x740>
    7a0b:	b9 2d 00 00 00       	mov    $0x2d,%ecx
    7a10:	48 89 c7             	mov    %rax,%rdi
    7a13:	48 89 d6             	mov    %rdx,%rsi
    7a16:	f3 48 a5             	rep movsq %ds:(%rsi),%es:(%rdi)
    7a19:	c6 85 8c e8 ff ff ff 	movb   $0xff,-0x1774(%rbp)
    7a20:	c7 85 bc e8 ff ff 00 	movl   $0x0,-0x1744(%rbp)
    7a27:	00 00 00 
    7a2a:	eb 19                	jmp    7a45 <func_1+0x290>
    7a2c:	8b 85 bc e8 ff ff    	mov    -0x1744(%rbp),%eax
    7a32:	48 98                	cltq   
    7a34:	66 c7 84 45 90 eb ff 	movw   $0x8,-0x1470(%rbp,%rax,2)
    7a3b:	ff 08 00 
    7a3e:	83 85 bc e8 ff ff 01 	addl   $0x1,-0x1744(%rbp)
    7a45:	83 bd bc e8 ff ff 03 	cmpl   $0x3,-0x1744(%rbp)
    7a4c:	7e de                	jle    7a2c <func_1+0x277>
    7a4e:	c7 85 bc e8 ff ff 00 	movl   $0x0,-0x1744(%rbp)
    7a55:	00 00 00 
    7a58:	eb 1a                	jmp    7a74 <func_1+0x2bf>
    7a5a:	8b 85 bc e8 ff ff    	mov    -0x1744(%rbp),%eax
    7a60:	48 98                	cltq   
    7a62:	c7 84 85 50 ee ff ff 	movl   $0xfffffff7,-0x11b0(%rbp,%rax,4)
    7a69:	f7 ff ff ff 
    7a6d:	83 85 bc e8 ff ff 01 	addl   $0x1,-0x1744(%rbp)
    7a74:	83 bd bc e8 ff ff 04 	cmpl   $0x4,-0x1744(%rbp)
    7a7b:	7e dd                	jle    7a5a <func_1+0x2a5>
    7a7d:	c7 05 85 d9 00 00 02 	movl   $0x2,0xd985(%rip)        # 1540c <g_8>
    7a84:	00 00 00 
    7a87:	eb 43                	jmp    7acc <func_1+0x317>
    7a89:	c6 85 8d e8 ff ff dc 	movb   $0xdc,-0x1773(%rbp)
    7a90:	48 8d 05 c9 f0 00 00 	lea    0xf0c9(%rip),%rax        # 16b60 <g_914>
    7a97:	48 89 85 b0 ea ff ff 	mov    %rax,-0x1550(%rbp)
    7a9e:	48 8d 05 c3 df 00 00 	lea    0xdfc3(%rip),%rax        # 15a68 <g_923>
    7aa5:	48 89 85 b8 ea ff ff 	mov    %rax,-0x1548(%rbp)
    7aac:	48 b8 06 f2 49 0e 2c 	movabs $0xb173bb2c0e49f206,%rax
    7ab3:	bb 73 b1 
    7ab6:	48 89 85 c0 ea ff ff 	mov    %rax,-0x1540(%rbp)
    7abd:	8b 05 49 d9 00 00    	mov    0xd949(%rip),%eax        # 1540c <g_8>
    7ac3:	83 e8 01             	sub    $0x1,%eax
    7ac6:	89 05 40 d9 00 00    	mov    %eax,0xd940(%rip)        # 1540c <g_8>
    7acc:	8b 05 3a d9 00 00    	mov    0xd93a(%rip),%eax        # 1540c <g_8>
    7ad2:	85 c0                	test   %eax,%eax
    7ad4:	79 b3                	jns    7a89 <func_1+0x2d4>
    7ad6:	8b 05 2c d9 00 00    	mov    0xd92c(%rip),%eax        # 15408 <g_5>
    7adc:	83 e8 01             	sub    $0x1,%eax
    7adf:	89 05 23 d9 00 00    	mov    %eax,0xd923(%rip)        # 15408 <g_5>
    7ae5:	8b 05 1d d9 00 00    	mov    0xd91d(%rip),%eax        # 15408 <g_5>
    7aeb:	83 f8 e3             	cmp    $0xffffffe3,%eax
    7aee:	0f 85 db fe ff ff    	jne    79cf <func_1+0x21a>
    7af4:	8b 85 c8 ed ff ff    	mov    -0x1238(%rbp),%eax
    7afa:	0f bf d8             	movswl %ax,%ebx
    7afd:	8b 05 2d db 00 00    	mov    0xdb2d(%rip),%eax        # 15630 <g_612>
    7b03:	89 c2                	mov    %eax,%edx
    7b05:	8b 85 04 ee ff ff    	mov    -0x11fc(%rbp),%eax
    7b0b:	39 c2                	cmp    %eax,%edx
    7b0d:	0f 95 c0             	setne  %al
    7b10:	f7 d0                	not    %eax
    7b12:	0f be c0             	movsbl %al,%eax
    7b15:	89 c6                	mov    %eax,%esi
    7b17:	bf a8 ff ff ff       	mov    $0xffffffa8,%edi
    7b1c:	e8 b3 e6 ff ff       	callq  61d4 <safe_add_func_int8_t_s_s>
    7b21:	8b 05 cd df 00 00    	mov    0xdfcd(%rip),%eax        # 15af4 <g_1183>
    7b27:	89 c2                	mov    %eax,%edx
    7b29:	48 8b 85 60 e9 ff ff 	mov    -0x16a0(%rbp),%rax
    7b30:	66 89 10             	mov    %dx,(%rax)
    7b33:	48 8b 85 60 e9 ff ff 	mov    -0x16a0(%rbp),%rax
    7b3a:	0f b7 00             	movzwl (%rax),%eax
    7b3d:	44 0f bf f0          	movswl %ax,%r14d
    7b41:	8b 85 b0 ed ff ff    	mov    -0x1250(%rbp),%eax
    7b47:	44 0f be e0          	movsbl %al,%r12d
    7b4b:	0f b6 05 c4 d9 00 00 	movzbl 0xd9c4(%rip),%eax        # 15516 <g_390>
    7b52:	44 0f b6 e8          	movzbl %al,%r13d
    7b56:	48 8b 85 58 e9 ff ff 	mov    -0x16a8(%rbp),%rax
    7b5d:	41 89 c7             	mov    %eax,%r15d
    7b60:	8b 85 a0 e8 ff ff    	mov    -0x1760(%rbp),%eax
    7b66:	0f b6 c0             	movzbl %al,%eax
    7b69:	89 c6                	mov    %eax,%esi
    7b6b:	bf 6a 00 00 00       	mov    $0x6a,%edi
    7b70:	e8 39 f0 ff ff       	callq  6bae <safe_mod_func_uint8_t_u_u>
    7b75:	84 c0                	test   %al,%al
    7b77:	75 56                	jne    7bcf <func_1+0x41a>
    7b79:	48 8b 05 48 eb 00 00 	mov    0xeb48(%rip),%rax        # 166c8 <g_80>
    7b80:	48 8b 00             	mov    (%rax),%rax
    7b83:	8b 00                	mov    (%rax),%eax
    7b85:	89 c2                	mov    %eax,%edx
    7b87:	8b 85 00 ed ff ff    	mov    -0x1300(%rbp),%eax
    7b8d:	85 c0                	test   %eax,%eax
    7b8f:	75 0a                	jne    7b9b <func_1+0x3e6>
    7b91:	8b 85 a0 e8 ff ff    	mov    -0x1760(%rbp),%eax
    7b97:	85 c0                	test   %eax,%eax
    7b99:	74 07                	je     7ba2 <func_1+0x3ed>
    7b9b:	b8 01 00 00 00       	mov    $0x1,%eax
    7ba0:	eb 05                	jmp    7ba7 <func_1+0x3f2>
    7ba2:	b8 00 00 00 00       	mov    $0x0,%eax
    7ba7:	3d fe ff 00 00       	cmp    $0xfffe,%eax
    7bac:	0f 97 c0             	seta   %al
    7baf:	0f b6 c0             	movzbl %al,%eax
    7bb2:	89 d6                	mov    %edx,%esi
    7bb4:	89 c7                	mov    %eax,%edi
    7bb6:	e8 fd f2 ff ff       	callq  6eb8 <safe_add_func_uint32_t_u_u>
    7bbb:	0f b7 c0             	movzwl %ax,%eax
    7bbe:	be 04 00 00 00       	mov    $0x4,%esi
    7bc3:	89 c7                	mov    %eax,%edi
    7bc5:	e8 92 f1 ff ff       	callq  6d5c <safe_mod_func_uint16_t_u_u>
    7bca:	66 85 c0             	test   %ax,%ax
    7bcd:	74 07                	je     7bd6 <func_1+0x421>
    7bcf:	b8 01 00 00 00       	mov    $0x1,%eax
    7bd4:	eb 05                	jmp    7bdb <func_1+0x426>
    7bd6:	b8 00 00 00 00       	mov    $0x0,%eax
    7bdb:	0f b6 c0             	movzbl %al,%eax
    7bde:	44 89 fe             	mov    %r15d,%esi
    7be1:	89 c7                	mov    %eax,%edi
    7be3:	e8 64 f0 ff ff       	callq  6c4c <safe_lshift_func_uint8_t_u_u>
    7be8:	be 02 00 00 00       	mov    $0x2,%esi
    7bed:	bf 6e 00 00 00       	mov    $0x6e,%edi
    7bf2:	e8 75 e7 ff ff       	callq  636c <safe_rshift_func_int8_t_s_u>
    7bf7:	0f be c0             	movsbl %al,%eax
    7bfa:	44 89 ee             	mov    %r13d,%esi
    7bfd:	89 c7                	mov    %eax,%edi
    7bff:	e8 b2 e9 ff ff       	callq  65b6 <safe_add_func_int32_t_s_s>
    7c04:	0f be c0             	movsbl %al,%eax
    7c07:	44 89 e6             	mov    %r12d,%esi
    7c0a:	89 c7                	mov    %eax,%edi
    7c0c:	e8 e1 e5 ff ff       	callq  61f2 <safe_sub_func_int8_t_s_s>
    7c11:	c0 e8 07             	shr    $0x7,%al
    7c14:	0f b6 c0             	movzbl %al,%eax
    7c17:	44 21 f0             	and    %r14d,%eax
    7c1a:	89 c2                	mov    %eax,%edx
    7c1c:	8b 85 b8 ed ff ff    	mov    -0x1248(%rbp),%eax
    7c22:	21 d0                	and    %edx,%eax
    7c24:	89 c6                	mov    %eax,%esi
    7c26:	48 8b 8d 10 f1 ff ff 	mov    -0xef0(%rbp),%rcx
    7c2d:	48 8b 05 ec f0 00 00 	mov    0xf0ec(%rip),%rax        # 16d20 <g_1099>
    7c34:	48 8b 95 40 f3 ff ff 	mov    -0xcc0(%rbp),%rdx
    7c3b:	48 89 10             	mov    %rdx,(%rax)
    7c3e:	48 8b 00             	mov    (%rax),%rax
    7c41:	48 39 c1             	cmp    %rax,%rcx
    7c44:	0f 94 c0             	sete   %al
    7c47:	0f b6 c0             	movzbl %al,%eax
    7c4a:	48 89 c7             	mov    %rax,%rdi
    7c4d:	e8 f9 f3 ff ff       	callq  704b <safe_sub_func_uint64_t_u_u>
    7c52:	48 83 f8 08          	cmp    $0x8,%rax
    7c56:	0f 97 c0             	seta   %al
    7c59:	0f b6 c0             	movzbl %al,%eax
    7c5c:	89 c2                	mov    %eax,%edx
    7c5e:	0f b7 05 bd d8 00 00 	movzwl 0xd8bd(%rip),%eax        # 15522 <g_498>
    7c65:	31 d0                	xor    %edx,%eax
    7c67:	66 89 05 b4 d8 00 00 	mov    %ax,0xd8b4(%rip)        # 15522 <g_498>
    7c6e:	0f b7 05 ad d8 00 00 	movzwl 0xd8ad(%rip),%eax        # 15522 <g_498>
    7c75:	98                   	cwtl   
    7c76:	89 de                	mov    %ebx,%esi
    7c78:	89 c7                	mov    %eax,%edi
    7c7a:	e8 76 e7 ff ff       	callq  63f5 <safe_mul_func_int16_t_s_s>
    7c7f:	8b 95 e0 e8 ff ff    	mov    -0x1720(%rbp),%edx
    7c85:	48 8b 85 70 e9 ff ff 	mov    -0x1690(%rbp),%rax
    7c8c:	8b 00                	mov    (%rax),%eax
    7c8e:	09 c2                	or     %eax,%edx
    7c90:	48 8b 85 70 e9 ff ff 	mov    -0x1690(%rbp),%rax
    7c97:	89 10                	mov    %edx,(%rax)
    7c99:	48 8b 05 28 ea 00 00 	mov    0xea28(%rip),%rax        # 166c8 <g_80>
    7ca0:	48 8b 95 38 e9 ff ff 	mov    -0x16c8(%rbp),%rdx
    7ca7:	48 89 10             	mov    %rdx,(%rax)
    7caa:	48 8b 85 70 e9 ff ff 	mov    -0x1690(%rbp),%rax
    7cb1:	8b 00                	mov    (%rax),%eax
    7cb3:	0f bf d8             	movswl %ax,%ebx
    7cb6:	48 c7 c0 ff ff ff ff 	mov    $0xffffffffffffffff,%rax
    7cbd:	41 89 c4             	mov    %eax,%r12d
    7cc0:	48 8b 85 70 e9 ff ff 	mov    -0x1690(%rbp),%rax
    7cc7:	8b 00                	mov    (%rax),%eax
    7cc9:	3d 12 d3 1d 5f       	cmp    $0x5f1dd312,%eax
    7cce:	0f 9e c2             	setle  %dl
    7cd1:	48 8b 85 40 e9 ff ff 	mov    -0x16c0(%rbp),%rax
    7cd8:	0f b6 d2             	movzbl %dl,%edx
    7cdb:	89 10                	mov    %edx,(%rax)
    7cdd:	48 8b 85 70 e9 ff ff 	mov    -0x1690(%rbp),%rax
    7ce4:	8b 10                	mov    (%rax),%edx
    7ce6:	48 8b 85 78 e9 ff ff 	mov    -0x1688(%rbp),%rax
    7ced:	89 10                	mov    %edx,(%rax)
    7cef:	48 8b 85 78 e9 ff ff 	mov    -0x1688(%rbp),%rax
    7cf6:	8b 10                	mov    (%rax),%edx
    7cf8:	48 8b 85 70 e9 ff ff 	mov    -0x1690(%rbp),%rax
    7cff:	8b 00                	mov    (%rax),%eax
    7d01:	39 c2                	cmp    %eax,%edx
    7d03:	48 8b 95 00 eb ff ff 	mov    -0x1500(%rbp),%rdx
    7d0a:	48 8b 05 b7 ea 00 00 	mov    0xeab7(%rip),%rax        # 167c8 <g_543>
    7d11:	48 8b 00             	mov    (%rax),%rax
    7d14:	48 39 c2             	cmp    %rax,%rdx
    7d17:	0f 94 c0             	sete   %al
    7d1a:	0f b6 d0             	movzbl %al,%edx
    7d1d:	0f b6 05 ec d6 00 00 	movzbl 0xd6ec(%rip),%eax        # 15410 <g_25>
    7d24:	0f b6 c0             	movzbl %al,%eax
    7d27:	89 d6                	mov    %edx,%esi
    7d29:	89 c7                	mov    %eax,%edi
    7d2b:	e8 c5 e6 ff ff       	callq  63f5 <safe_mul_func_int16_t_s_s>
    7d30:	0f bf d0             	movswl %ax,%edx
    7d33:	8b 05 07 d9 00 00    	mov    0xd907(%rip),%eax        # 15640 <g_659>
    7d39:	21 d0                	and    %edx,%eax
    7d3b:	48 98                	cltq   
    7d3d:	be 01 00 00 00       	mov    $0x1,%esi
    7d42:	48 89 c7             	mov    %rax,%rdi
    7d45:	e8 5e eb ff ff       	callq  68a8 <safe_sub_func_int64_t_s_s>
    7d4a:	0f b7 c0             	movzwl %ax,%eax
    7d4d:	44 89 e6             	mov    %r12d,%esi
    7d50:	89 c7                	mov    %eax,%edi
    7d52:	e8 f1 f0 ff ff       	callq  6e48 <safe_rshift_func_uint16_t_u_s>
    7d57:	98                   	cwtl   
    7d58:	89 de                	mov    %ebx,%esi
    7d5a:	89 c7                	mov    %eax,%edi
    7d5c:	e8 94 e6 ff ff       	callq  63f5 <safe_mul_func_int16_t_s_s>
    7d61:	89 c2                	mov    %eax,%edx
    7d63:	48 8b 05 36 f0 00 00 	mov    0xf036(%rip),%rax        # 16da0 <g_1355>
    7d6a:	48 0f bf d2          	movswq %dx,%rdx
    7d6e:	48 89 10             	mov    %rdx,(%rax)
    7d71:	66 c7 85 90 eb ff ff 	movw   $0xfffd,-0x1470(%rbp)
    7d78:	fd ff 
    7d7a:	66 c7 85 92 eb ff ff 	movw   $0x8947,-0x146e(%rbp)
    7d81:	47 89 
    7d83:	66 c7 85 94 eb ff ff 	movw   $0x8947,-0x146c(%rbp)
    7d8a:	47 89 
    7d8c:	66 c7 85 96 eb ff ff 	movw   $0xfffd,-0x146a(%rbp)
    7d93:	fd ff 
    7d95:	66 c7 85 98 eb ff ff 	movw   $0xfffc,-0x1468(%rbp)
    7d9c:	fc ff 
    7d9e:	66 c7 85 9a eb ff ff 	movw   $0x244b,-0x1466(%rbp)
    7da5:	4b 24 
    7da7:	66 c7 85 9c eb ff ff 	movw   $0xfffd,-0x1464(%rbp)
    7dae:	fd ff 
    7db0:	66 c7 85 9e eb ff ff 	movw   $0xc03d,-0x1462(%rbp)
    7db7:	3d c0 
    7db9:	66 c7 85 a0 eb ff ff 	movw   $0x3a5c,-0x1460(%rbp)
    7dc0:	5c 3a 
    7dc2:	66 c7 85 a2 eb ff ff 	movw   $0x868e,-0x145e(%rbp)
    7dc9:	8e 86 
    7dcb:	66 c7 85 a4 eb ff ff 	movw   $0x0,-0x145c(%rbp)
    7dd2:	00 00 
    7dd4:	66 c7 85 a6 eb ff ff 	movw   $0xc632,-0x145a(%rbp)
    7ddb:	32 c6 
    7ddd:	66 c7 85 a8 eb ff ff 	movw   $0x538c,-0x1458(%rbp)
    7de4:	8c 53 
    7de6:	66 c7 85 aa eb ff ff 	movw   $0xfffd,-0x1456(%rbp)
    7ded:	fd ff 
    7def:	66 c7 85 ac eb ff ff 	movw   $0x94bc,-0x1454(%rbp)
    7df6:	bc 94 
    7df8:	66 c7 85 ae eb ff ff 	movw   $0xc632,-0x1452(%rbp)
    7dff:	32 c6 
    7e01:	66 c7 85 b0 eb ff ff 	movw   $0x244b,-0x1450(%rbp)
    7e08:	4b 24 
    7e0a:	66 c7 85 b2 eb ff ff 	movw   $0x868e,-0x144e(%rbp)
    7e11:	8e 86 
    7e13:	66 c7 85 b4 eb ff ff 	movw   $0x1,-0x144c(%rbp)
    7e1a:	01 00 
    7e1c:	66 c7 85 b6 eb ff ff 	movw   $0xc03d,-0x144a(%rbp)
    7e23:	3d c0 
    7e25:	66 c7 85 b8 eb ff ff 	movw   $0xfff9,-0x1448(%rbp)
    7e2c:	f9 ff 
    7e2e:	66 c7 85 ba eb ff ff 	movw   $0x244b,-0x1446(%rbp)
    7e35:	4b 24 
    7e37:	66 c7 85 bc eb ff ff 	movw   $0xfff9,-0x1444(%rbp)
    7e3e:	f9 ff 
    7e40:	66 c7 85 be eb ff ff 	movw   $0xfffd,-0x1442(%rbp)
    7e47:	fd ff 
    7e49:	66 c7 85 c0 eb ff ff 	movw   $0x94bc,-0x1440(%rbp)
    7e50:	bc 94 
    7e52:	66 c7 85 c2 eb ff ff 	movw   $0x8947,-0x143e(%rbp)
    7e59:	47 89 
    7e5b:	66 c7 85 c4 eb ff ff 	movw   $0xc284,-0x143c(%rbp)
    7e62:	84 c2 
    7e64:	66 c7 85 c6 eb ff ff 	movw   $0x868e,-0x143a(%rbp)
    7e6b:	8e 86 
    7e6d:	66 c7 85 c8 eb ff ff 	movw   $0xc632,-0x1438(%rbp)
    7e74:	32 c6 
    7e76:	66 c7 85 ca eb ff ff 	movw   $0xfff9,-0x1436(%rbp)
    7e7d:	f9 ff 
    7e7f:	66 c7 85 cc eb ff ff 	movw   $0xc03d,-0x1434(%rbp)
    7e86:	3d c0 
    7e88:	66 c7 85 ce eb ff ff 	movw   $0x8947,-0x1432(%rbp)
    7e8f:	47 89 
    7e91:	66 c7 85 d0 eb ff ff 	movw   $0xbb22,-0x1430(%rbp)
    7e98:	22 bb 
    7e9a:	66 c7 85 d2 eb ff ff 	movw   $0x27db,-0x142e(%rbp)
    7ea1:	db 27 
    7ea3:	66 c7 85 d4 eb ff ff 	movw   $0xc03d,-0x142c(%rbp)
    7eaa:	3d c0 
    7eac:	66 c7 85 d6 eb ff ff 	movw   $0xfffd,-0x142a(%rbp)
    7eb3:	fd ff 
    7eb5:	66 c7 85 d8 eb ff ff 	movw   $0xc632,-0x1428(%rbp)
    7ebc:	32 c6 
    7ebe:	66 c7 85 da eb ff ff 	movw   $0xffff,-0x1426(%rbp)
    7ec5:	ff ff 
    7ec7:	66 c7 85 dc eb ff ff 	movw   $0xc284,-0x1424(%rbp)
    7ece:	84 c2 
    7ed0:	66 c7 85 de eb ff ff 	movw   $0xc284,-0x1422(%rbp)
    7ed7:	84 c2 
    7ed9:	66 c7 85 e0 eb ff ff 	movw   $0x94bc,-0x1420(%rbp)
    7ee0:	bc 94 
    7ee2:	66 c7 85 e2 eb ff ff 	movw   $0x94bc,-0x141e(%rbp)
    7ee9:	bc 94 
    7eeb:	66 c7 85 e4 eb ff ff 	movw   $0xfff9,-0x141c(%rbp)
    7ef2:	f9 ff 
    7ef4:	66 c7 85 e6 eb ff ff 	movw   $0xbb22,-0x141a(%rbp)
    7efb:	22 bb 
    7efd:	66 c7 85 e8 eb ff ff 	movw   $0xfff9,-0x1418(%rbp)
    7f04:	f9 ff 
    7f06:	66 c7 85 ea eb ff ff 	movw   $0xbb22,-0x1416(%rbp)
    7f0d:	22 bb 
    7f0f:	66 c7 85 ec eb ff ff 	movw   $0x1,-0x1414(%rbp)
    7f16:	01 00 
    7f18:	66 c7 85 ee eb ff ff 	movw   $0x244b,-0x1412(%rbp)
    7f1f:	4b 24 
    7f21:	66 c7 85 f0 eb ff ff 	movw   $0x244b,-0x1410(%rbp)
    7f28:	4b 24 
    7f2a:	66 c7 85 f2 eb ff ff 	movw   $0x3a5c,-0x140e(%rbp)
    7f31:	5c 3a 
    7f33:	66 c7 85 f4 eb ff ff 	movw   $0x94bc,-0x140c(%rbp)
    7f3a:	bc 94 
    7f3c:	66 c7 85 f6 eb ff ff 	movw   $0x1,-0x140a(%rbp)
    7f43:	01 00 
    7f45:	66 c7 85 f8 eb ff ff 	movw   $0x538c,-0x1408(%rbp)
    7f4c:	8c 53 
    7f4e:	66 c7 85 fa eb ff ff 	movw   $0x3a5c,-0x1406(%rbp)
    7f55:	5c 3a 
    7f57:	66 c7 85 fc eb ff ff 	movw   $0x0,-0x1404(%rbp)
    7f5e:	00 00 
    7f60:	66 c7 85 fe eb ff ff 	movw   $0x244b,-0x1402(%rbp)
    7f67:	4b 24 
    7f69:	66 c7 85 00 ec ff ff 	movw   $0x3a5c,-0x1400(%rbp)
    7f70:	5c 3a 
    7f72:	66 c7 85 02 ec ff ff 	movw   $0xbb22,-0x13fe(%rbp)
    7f79:	22 bb 
    7f7b:	66 c7 85 04 ec ff ff 	movw   $0xfffd,-0x13fc(%rbp)
    7f82:	fd ff 
    7f84:	66 c7 85 06 ec ff ff 	movw   $0xbb22,-0x13fa(%rbp)
    7f8b:	22 bb 
    7f8d:	66 c7 85 08 ec ff ff 	movw   $0xfffc,-0x13f8(%rbp)
    7f94:	fc ff 
    7f96:	66 c7 85 0a ec ff ff 	movw   $0x94bc,-0x13f6(%rbp)
    7f9d:	bc 94 
    7f9f:	66 c7 85 0c ec ff ff 	movw   $0x8947,-0x13f4(%rbp)
    7fa6:	47 89 
    7fa8:	66 c7 85 0e ec ff ff 	movw   $0xc284,-0x13f2(%rbp)
    7faf:	84 c2 
    7fb1:	66 c7 85 10 ec ff ff 	movw   $0xfffd,-0x13f0(%rbp)
    7fb8:	fd ff 
    7fba:	66 c7 85 12 ec ff ff 	movw   $0xffff,-0x13ee(%rbp)
    7fc1:	ff ff 
    7fc3:	66 c7 85 14 ec ff ff 	movw   $0x27db,-0x13ec(%rbp)
    7fca:	db 27 
    7fcc:	66 c7 85 16 ec ff ff 	movw   $0xfffd,-0x13ea(%rbp)
    7fd3:	fd ff 
    7fd5:	66 c7 85 18 ec ff ff 	movw   $0xc284,-0x13e8(%rbp)
    7fdc:	84 c2 
    7fde:	66 c7 85 1a ec ff ff 	movw   $0x27db,-0x13e6(%rbp)
    7fe5:	db 27 
    7fe7:	66 c7 85 1c ec ff ff 	movw   $0x3a5c,-0x13e4(%rbp)
    7fee:	5c 3a 
    7ff0:	66 c7 85 1e ec ff ff 	movw   $0x8947,-0x13e2(%rbp)
    7ff7:	47 89 
    7ff9:	66 c7 85 20 ec ff ff 	movw   $0xc284,-0x13e0(%rbp)
    8000:	84 c2 
    8002:	66 c7 85 22 ec ff ff 	movw   $0xfff9,-0x13de(%rbp)
    8009:	f9 ff 
    800b:	66 c7 85 24 ec ff ff 	movw   $0x27db,-0x13dc(%rbp)
    8012:	db 27 
    8014:	66 c7 85 26 ec ff ff 	movw   $0x868e,-0x13da(%rbp)
    801b:	8e 86 
    801d:	66 c7 85 28 ec ff ff 	movw   $0xfffd,-0x13d8(%rbp)
    8024:	fd ff 
    8026:	66 c7 85 2a ec ff ff 	movw   $0x8947,-0x13d6(%rbp)
    802d:	47 89 
    802f:	66 c7 85 2c ec ff ff 	movw   $0x8947,-0x13d4(%rbp)
    8036:	47 89 
    8038:	66 c7 85 2e ec ff ff 	movw   $0xfffd,-0x13d2(%rbp)
    803f:	fd ff 
    8041:	66 c7 85 30 ec ff ff 	movw   $0xfffc,-0x13d0(%rbp)
    8048:	fc ff 
    804a:	66 c7 85 32 ec ff ff 	movw   $0x244b,-0x13ce(%rbp)
    8051:	4b 24 
    8053:	66 c7 85 34 ec ff ff 	movw   $0xfffd,-0x13cc(%rbp)
    805a:	fd ff 
    805c:	66 c7 85 36 ec ff ff 	movw   $0xc03d,-0x13ca(%rbp)
    8063:	3d c0 
    8065:	66 c7 85 38 ec ff ff 	movw   $0x3a5c,-0x13c8(%rbp)
    806c:	5c 3a 
    806e:	66 c7 85 3a ec ff ff 	movw   $0x868e,-0x13c6(%rbp)
    8075:	8e 86 
    8077:	66 c7 85 3c ec ff ff 	movw   $0x0,-0x13c4(%rbp)
    807e:	00 00 
    8080:	66 c7 85 3e ec ff ff 	movw   $0xc632,-0x13c2(%rbp)
    8087:	32 c6 
    8089:	66 c7 85 40 ec ff ff 	movw   $0x538c,-0x13c0(%rbp)
    8090:	8c 53 
    8092:	66 c7 85 42 ec ff ff 	movw   $0xfffd,-0x13be(%rbp)
    8099:	fd ff 
    809b:	66 c7 85 44 ec ff ff 	movw   $0x94bc,-0x13bc(%rbp)
    80a2:	bc 94 
    80a4:	66 c7 85 46 ec ff ff 	movw   $0xc632,-0x13ba(%rbp)
    80ab:	32 c6 
    80ad:	66 c7 85 48 ec ff ff 	movw   $0x244b,-0x13b8(%rbp)
    80b4:	4b 24 
    80b6:	66 c7 85 4a ec ff ff 	movw   $0x868e,-0x13b6(%rbp)
    80bd:	8e 86 
    80bf:	66 c7 85 4c ec ff ff 	movw   $0x1,-0x13b4(%rbp)
    80c6:	01 00 
    80c8:	66 c7 85 4e ec ff ff 	movw   $0xc03d,-0x13b2(%rbp)
    80cf:	3d c0 
    80d1:	66 c7 85 50 ec ff ff 	movw   $0xfff9,-0x13b0(%rbp)
    80d8:	f9 ff 
    80da:	66 c7 85 52 ec ff ff 	movw   $0x244b,-0x13ae(%rbp)
    80e1:	4b 24 
    80e3:	66 c7 85 54 ec ff ff 	movw   $0xfff9,-0x13ac(%rbp)
    80ea:	f9 ff 
    80ec:	66 c7 85 56 ec ff ff 	movw   $0xfffd,-0x13aa(%rbp)
    80f3:	fd ff 
    80f5:	66 c7 85 58 ec ff ff 	movw   $0x94bc,-0x13a8(%rbp)
    80fc:	bc 94 
    80fe:	66 c7 85 5a ec ff ff 	movw   $0x8947,-0x13a6(%rbp)
    8105:	47 89 
    8107:	66 c7 85 5c ec ff ff 	movw   $0xc284,-0x13a4(%rbp)
    810e:	84 c2 
    8110:	66 c7 85 5e ec ff ff 	movw   $0x868e,-0x13a2(%rbp)
    8117:	8e 86 
    8119:	66 c7 85 60 ec ff ff 	movw   $0xc632,-0x13a0(%rbp)
    8120:	32 c6 
    8122:	66 c7 85 62 ec ff ff 	movw   $0xfff9,-0x139e(%rbp)
    8129:	f9 ff 
    812b:	66 c7 85 64 ec ff ff 	movw   $0xc03d,-0x139c(%rbp)
    8132:	3d c0 
    8134:	66 c7 85 66 ec ff ff 	movw   $0x8947,-0x139a(%rbp)
    813b:	47 89 
    813d:	66 c7 85 68 ec ff ff 	movw   $0xbb22,-0x1398(%rbp)
    8144:	22 bb 
    8146:	66 c7 85 6a ec ff ff 	movw   $0x27db,-0x1396(%rbp)
    814d:	db 27 
    814f:	66 c7 85 6c ec ff ff 	movw   $0xc03d,-0x1394(%rbp)
    8156:	3d c0 
    8158:	66 c7 85 6e ec ff ff 	movw   $0xfffd,-0x1392(%rbp)
    815f:	fd ff 
    8161:	48 c7 85 48 e9 ff ff 	movq   $0x0,-0x16b8(%rbp)
    8168:	00 00 00 00 
    816c:	48 8d 85 48 e9 ff ff 	lea    -0x16b8(%rbp),%rax
    8173:	48 89 85 80 e9 ff ff 	mov    %rax,-0x1680(%rbp)
    817a:	c7 85 a8 e8 ff ff 09 	movl   $0x9,-0x1758(%rbp)
    8181:	00 00 00 
    8184:	c6 85 8a e8 ff ff ff 	movb   $0xff,-0x1776(%rbp)
    818b:	48 8d 05 92 d3 00 00 	lea    0xd392(%rip),%rax        # 15524 <g_499>
    8192:	48 89 85 88 e9 ff ff 	mov    %rax,-0x1678(%rbp)
    8199:	48 8d 05 30 e5 00 00 	lea    0xe530(%rip),%rax        # 166d0 <g_82>
    81a0:	48 89 85 90 e9 ff ff 	mov    %rax,-0x1670(%rbp)
    81a7:	c7 85 ac e8 ff ff fd 	movl   $0xfffffffd,-0x1754(%rbp)
    81ae:	ff ff ff 
    81b1:	c7 85 b0 e8 ff ff 04 	movl   $0x4,-0x1750(%rbp)
    81b8:	00 00 00 
    81bb:	c7 85 b4 e8 ff ff 4c 	movl   $0x1b16cd4c,-0x174c(%rbp)
    81c2:	cd 16 1b 
    81c5:	c7 85 b8 e8 ff ff ff 	movl   $0xffffffff,-0x1748(%rbp)
    81cc:	ff ff ff 
    81cf:	c7 85 ec e8 ff ff f9 	movl   $0xfffffff9,-0x1714(%rbp)
    81d6:	ff ff ff 
    81d9:	66 c7 85 8e e8 ff ff 	movw   $0x94ff,-0x1772(%rbp)
    81e0:	ff 94 
    81e2:	48 8d 85 38 e9 ff ff 	lea    -0x16c8(%rbp),%rax
    81e9:	48 89 85 98 e9 ff ff 	mov    %rax,-0x1668(%rbp)
    81f0:	48 8d 05 f9 d8 00 00 	lea    0xd8f9(%rip),%rax        # 15af0 <g_1123>
    81f7:	48 89 85 a0 e9 ff ff 	mov    %rax,-0x1660(%rbp)
    81fe:	c7 85 f0 e8 ff ff 00 	movl   $0x0,-0x1710(%rbp)
    8205:	00 00 00 
    8208:	48 8d 05 99 eb 00 00 	lea    0xeb99(%rip),%rax        # 16da8 <g_1354>
    820f:	48 89 85 a8 e9 ff ff 	mov    %rax,-0x1658(%rbp)
    8216:	c7 85 f4 e8 ff ff 8d 	movl   $0x8cdd18d,-0x170c(%rbp)
    821d:	d1 cd 08 
    8220:	66 c7 85 90 e8 ff ff 	movw   $0xfff6,-0x1770(%rbp)
    8227:	f6 ff 
    8229:	c6 85 8b e8 ff ff fa 	movb   $0xfa,-0x1775(%rbp)
    8230:	c7 85 f8 e8 ff ff 01 	movl   $0x1,-0x1708(%rbp)
    8237:	00 00 00 
    823a:	48 8d 85 40 e9 ff ff 	lea    -0x16c0(%rbp),%rax
    8241:	48 89 85 b0 e9 ff ff 	mov    %rax,-0x1650(%rbp)
    8248:	c7 85 c0 e8 ff ff 00 	movl   $0x0,-0x1740(%rbp)
    824f:	00 00 00 
    8252:	eb 1a                	jmp    826e <func_1+0xab9>
    8254:	8b 85 c0 e8 ff ff    	mov    -0x1740(%rbp),%eax
    825a:	48 98                	cltq   
    825c:	c7 84 85 c8 ea ff ff 	movl   $0x465bf3c,-0x1538(%rbp,%rax,4)
    8263:	3c bf 65 04 
    8267:	83 85 c0 e8 ff ff 01 	addl   $0x1,-0x1740(%rbp)
    826e:	83 bd c0 e8 ff ff 00 	cmpl   $0x0,-0x1740(%rbp)
    8275:	7e dd                	jle    8254 <func_1+0xa9f>
    8277:	c7 85 c0 e8 ff ff 00 	movl   $0x0,-0x1740(%rbp)
    827e:	00 00 00 
    8281:	eb 14                	jmp    8297 <func_1+0xae2>
    8283:	8b 85 c0 e8 ff ff    	mov    -0x1740(%rbp),%eax
    8289:	48 98                	cltq   
    828b:	c6 44 05 c3 ff       	movb   $0xff,-0x3d(%rbp,%rax,1)
    8290:	83 85 c0 e8 ff ff 01 	addl   $0x1,-0x1740(%rbp)
    8297:	83 bd c0 e8 ff ff 04 	cmpl   $0x4,-0x1740(%rbp)
    829e:	7e e3                	jle    8283 <func_1+0xace>
    82a0:	66 c7 05 7b d2 00 00 	movw   $0x9,0xd27b(%rip)        # 15524 <g_499>
    82a7:	09 00 
    82a9:	e9 15 22 00 00       	jmpq   a4c3 <func_1+0x2d0e>
    82ae:	48 8d 05 9b d3 00 00 	lea    0xd39b(%rip),%rax        # 15650 <g_830>
    82b5:	48 89 85 b8 e9 ff ff 	mov    %rax,-0x1648(%rbp)
    82bc:	c6 85 88 e8 ff ff fb 	movb   $0xfb,-0x1778(%rbp)
    82c3:	c7 85 d0 e8 ff ff c8 	movl   $0x2f85eac8,-0x1730(%rbp)
    82ca:	ea 85 2f 
    82cd:	48 8d 85 50 ee ff ff 	lea    -0x11b0(%rbp),%rax
    82d4:	48 8d 15 85 8f 00 00 	lea    0x8f85(%rip),%rdx        # 11260 <g_1636+0x1fa>
    82db:	b9 51 00 00 00       	mov    $0x51,%ecx
    82e0:	48 89 c7             	mov    %rax,%rdi
    82e3:	48 89 d6             	mov    %rdx,%rsi
    82e6:	f3 48 a5             	rep movsq %ds:(%rsi),%es:(%rdi)
    82e9:	48 8d 05 a0 e5 00 00 	lea    0xe5a0(%rip),%rax        # 16890 <g_815>
    82f0:	48 89 85 c0 e9 ff ff 	mov    %rax,-0x1640(%rbp)
    82f7:	c7 85 d4 e8 ff ff 00 	movl   $0x0,-0x172c(%rbp)
    82fe:	00 00 00 
    8301:	eb 1a                	jmp    831d <func_1+0xb68>
    8303:	8b 85 d4 e8 ff ff    	mov    -0x172c(%rbp),%eax
    8309:	48 98                	cltq   
    830b:	c7 84 85 d4 ea ff ff 	movl   $0xffffffff,-0x152c(%rbp,%rax,4)
    8312:	ff ff ff ff 
    8316:	83 85 d4 e8 ff ff 01 	addl   $0x1,-0x172c(%rbp)
    831d:	83 bd d4 e8 ff ff 02 	cmpl   $0x2,-0x172c(%rbp)
    8324:	7e dd                	jle    8303 <func_1+0xb4e>
    8326:	c7 85 d4 e8 ff ff 00 	movl   $0x0,-0x172c(%rbp)
    832d:	00 00 00 
    8330:	eb 1e                	jmp    8350 <func_1+0xb9b>
    8332:	8b 85 d4 e8 ff ff    	mov    -0x172c(%rbp),%eax
    8338:	48 98                	cltq   
    833a:	48 8d 95 30 e9 ff ff 	lea    -0x16d0(%rbp),%rdx
    8341:	48 89 94 c5 f0 ea ff 	mov    %rdx,-0x1510(%rbp,%rax,8)
    8348:	ff 
    8349:	83 85 d4 e8 ff ff 01 	addl   $0x1,-0x172c(%rbp)
    8350:	83 bd d4 e8 ff ff 01 	cmpl   $0x1,-0x172c(%rbp)
    8357:	7e d9                	jle    8332 <func_1+0xb7d>
    8359:	c7 05 65 d1 00 00 00 	movl   $0x0,0xd165(%rip)        # 154c8 <g_144>
    8360:	00 00 00 
    8363:	e9 95 00 00 00       	jmpq   83fd <func_1+0xc48>
    8368:	48 c7 85 90 ea ff ff 	movq   $0x0,-0x1570(%rbp)
    836f:	00 00 00 00 
    8373:	48 8d 05 92 d0 00 00 	lea    0xd092(%rip),%rax        # 1540c <g_8>
    837a:	48 89 85 98 ea ff ff 	mov    %rax,-0x1568(%rbp)
    8381:	66 c7 85 9c e8 ff ff 	movw   $0x0,-0x1764(%rbp)
    8388:	00 00 
    838a:	48 8d 05 79 d1 00 00 	lea    0xd179(%rip),%rax        # 1550a <g_302+0x2>
    8391:	48 89 85 a0 ea ff ff 	mov    %rax,-0x1560(%rbp)
    8398:	c7 85 18 e9 ff ff e5 	movl   $0xbd7279e5,-0x16e8(%rbp)
    839f:	79 72 bd 
    83a2:	c7 85 1c e9 ff ff 67 	movl   $0x53d51b67,-0x16e4(%rbp)
    83a9:	1b d5 53 
    83ac:	c7 85 20 e9 ff ff ff 	movl   $0xffffffff,-0x16e0(%rbp)
    83b3:	ff ff ff 
    83b6:	c7 85 24 e9 ff ff 19 	movl   $0x41cc319,-0x16dc(%rbp)
    83bd:	c3 1c 04 
    83c0:	c7 85 d8 e8 ff ff 00 	movl   $0x0,-0x1728(%rbp)
    83c7:	00 00 00 
    83ca:	eb 19                	jmp    83e5 <func_1+0xc30>
    83cc:	8b 85 d8 e8 ff ff    	mov    -0x1728(%rbp),%eax
    83d2:	48 98                	cltq   
    83d4:	66 c7 84 45 e0 f7 ff 	movw   $0x4,-0x820(%rbp,%rax,2)
    83db:	ff 04 00 
    83de:	83 85 d8 e8 ff ff 01 	addl   $0x1,-0x1728(%rbp)
    83e5:	83 bd d8 e8 ff ff 05 	cmpl   $0x5,-0x1728(%rbp)
    83ec:	7e de                	jle    83cc <func_1+0xc17>
    83ee:	8b 05 d4 d0 00 00    	mov    0xd0d4(%rip),%eax        # 154c8 <g_144>
    83f4:	83 c0 01             	add    $0x1,%eax
    83f7:	89 05 cb d0 00 00    	mov    %eax,0xd0cb(%rip)        # 154c8 <g_144>
    83fd:	8b 05 c5 d0 00 00    	mov    0xd0c5(%rip),%eax        # 154c8 <g_144>
    8403:	83 f8 27             	cmp    $0x27,%eax
    8406:	0f 84 5c ff ff ff    	je     8368 <func_1+0xbb3>
    840c:	8b 85 08 ef ff ff    	mov    -0x10f8(%rbp),%eax
    8412:	85 c0                	test   %eax,%eax
    8414:	74 0f                	je     8425 <func_1+0xc70>
    8416:	48 8b 05 83 e9 00 00 	mov    0xe983(%rip),%rax        # 16da0 <g_1355>
    841d:	48 8b 00             	mov    (%rax),%rax
    8420:	e9 c0 20 00 00       	jmpq   a4e5 <func_1+0x2d30>
    8425:	48 8d 85 b0 e8 ff ff 	lea    -0x1750(%rbp),%rax
    842c:	48 89 85 c8 e9 ff ff 	mov    %rax,-0x1638(%rbp)
    8433:	48 8d 05 ce cf 00 00 	lea    0xcfce(%rip),%rax        # 15408 <g_5>
    843a:	48 89 85 d0 e9 ff ff 	mov    %rax,-0x1630(%rbp)
    8441:	48 8d 05 f9 d6 00 00 	lea    0xd6f9(%rip),%rax        # 15b41 <g_1496>
    8448:	48 89 85 e0 f7 ff ff 	mov    %rax,-0x820(%rbp)
    844f:	48 c7 85 e8 f7 ff ff 	movq   $0x0,-0x818(%rbp)
    8456:	00 00 00 00 
    845a:	48 c7 85 f0 f7 ff ff 	movq   $0x0,-0x810(%rbp)
    8461:	00 00 00 00 
    8465:	48 c7 85 f8 f7 ff ff 	movq   $0x0,-0x808(%rbp)
    846c:	00 00 00 00 
    8470:	48 8d 05 ca d6 00 00 	lea    0xd6ca(%rip),%rax        # 15b41 <g_1496>
    8477:	48 89 85 00 f8 ff ff 	mov    %rax,-0x800(%rbp)
    847e:	48 c7 85 08 f8 ff ff 	movq   $0x0,-0x7f8(%rbp)
    8485:	00 00 00 00 
    8489:	48 8d 05 b1 d6 00 00 	lea    0xd6b1(%rip),%rax        # 15b41 <g_1496>
    8490:	48 89 85 10 f8 ff ff 	mov    %rax,-0x7f0(%rbp)
    8497:	48 c7 85 18 f8 ff ff 	movq   $0x0,-0x7e8(%rbp)
    849e:	00 00 00 00 
    84a2:	48 c7 85 20 f8 ff ff 	movq   $0x0,-0x7e0(%rbp)
    84a9:	00 00 00 00 
    84ad:	48 c7 85 28 f8 ff ff 	movq   $0x0,-0x7d8(%rbp)
    84b4:	00 00 00 00 
    84b8:	48 8d 85 88 e8 ff ff 	lea    -0x1778(%rbp),%rax
    84bf:	48 89 85 30 f8 ff ff 	mov    %rax,-0x7d0(%rbp)
    84c6:	48 8d 05 74 d6 00 00 	lea    0xd674(%rip),%rax        # 15b41 <g_1496>
    84cd:	48 89 85 38 f8 ff ff 	mov    %rax,-0x7c8(%rbp)
    84d4:	48 8d 05 66 d6 00 00 	lea    0xd666(%rip),%rax        # 15b41 <g_1496>
    84db:	48 89 85 40 f8 ff ff 	mov    %rax,-0x7c0(%rbp)
    84e2:	48 c7 85 48 f8 ff ff 	movq   $0x0,-0x7b8(%rbp)
    84e9:	00 00 00 00 
    84ed:	48 8d 05 4d d6 00 00 	lea    0xd64d(%rip),%rax        # 15b41 <g_1496>
    84f4:	48 89 85 50 f8 ff ff 	mov    %rax,-0x7b0(%rbp)
    84fb:	48 8d 05 3f d6 00 00 	lea    0xd63f(%rip),%rax        # 15b41 <g_1496>
    8502:	48 89 85 58 f8 ff ff 	mov    %rax,-0x7a8(%rbp)
    8509:	48 8d 85 88 e8 ff ff 	lea    -0x1778(%rbp),%rax
    8510:	48 89 85 60 f8 ff ff 	mov    %rax,-0x7a0(%rbp)
    8517:	48 8d 05 23 d6 00 00 	lea    0xd623(%rip),%rax        # 15b41 <g_1496>
    851e:	48 89 85 68 f8 ff ff 	mov    %rax,-0x798(%rbp)
    8525:	48 8d 05 15 d6 00 00 	lea    0xd615(%rip),%rax        # 15b41 <g_1496>
    852c:	48 89 85 70 f8 ff ff 	mov    %rax,-0x790(%rbp)
    8533:	48 c7 85 78 f8 ff ff 	movq   $0x0,-0x788(%rbp)
    853a:	00 00 00 00 
    853e:	48 8d 05 fc d5 00 00 	lea    0xd5fc(%rip),%rax        # 15b41 <g_1496>
    8545:	48 89 85 80 f8 ff ff 	mov    %rax,-0x780(%rbp)
    854c:	48 c7 85 88 f8 ff ff 	movq   $0x0,-0x778(%rbp)
    8553:	00 00 00 00 
    8557:	48 8d 05 e3 d5 00 00 	lea    0xd5e3(%rip),%rax        # 15b41 <g_1496>
    855e:	48 89 85 90 f8 ff ff 	mov    %rax,-0x770(%rbp)
    8565:	48 8d 05 d5 d5 00 00 	lea    0xd5d5(%rip),%rax        # 15b41 <g_1496>
    856c:	48 89 85 98 f8 ff ff 	mov    %rax,-0x768(%rbp)
    8573:	48 8d 05 c7 d5 00 00 	lea    0xd5c7(%rip),%rax        # 15b41 <g_1496>
    857a:	48 89 85 a0 f8 ff ff 	mov    %rax,-0x760(%rbp)
    8581:	48 8d 05 b9 d5 00 00 	lea    0xd5b9(%rip),%rax        # 15b41 <g_1496>
    8588:	48 89 85 a8 f8 ff ff 	mov    %rax,-0x758(%rbp)
    858f:	48 8d 05 ab d5 00 00 	lea    0xd5ab(%rip),%rax        # 15b41 <g_1496>
    8596:	48 89 85 b0 f8 ff ff 	mov    %rax,-0x750(%rbp)
    859d:	48 c7 85 b8 f8 ff ff 	movq   $0x0,-0x748(%rbp)
    85a4:	00 00 00 00 
    85a8:	48 8d 05 92 d5 00 00 	lea    0xd592(%rip),%rax        # 15b41 <g_1496>
    85af:	48 89 85 c0 f8 ff ff 	mov    %rax,-0x740(%rbp)
    85b6:	48 8d 05 84 d5 00 00 	lea    0xd584(%rip),%rax        # 15b41 <g_1496>
    85bd:	48 89 85 c8 f8 ff ff 	mov    %rax,-0x738(%rbp)
    85c4:	48 8d 85 88 e8 ff ff 	lea    -0x1778(%rbp),%rax
    85cb:	48 89 85 d0 f8 ff ff 	mov    %rax,-0x730(%rbp)
    85d2:	48 c7 85 d8 f8 ff ff 	movq   $0x0,-0x728(%rbp)
    85d9:	00 00 00 00 
    85dd:	48 8d 05 5d d5 00 00 	lea    0xd55d(%rip),%rax        # 15b41 <g_1496>
    85e4:	48 89 85 e0 f8 ff ff 	mov    %rax,-0x720(%rbp)
    85eb:	48 c7 85 e8 f8 ff ff 	movq   $0x0,-0x718(%rbp)
    85f2:	00 00 00 00 
    85f6:	48 8d 85 88 e8 ff ff 	lea    -0x1778(%rbp),%rax
    85fd:	48 89 85 f0 f8 ff ff 	mov    %rax,-0x710(%rbp)
    8604:	48 c7 85 f8 f8 ff ff 	movq   $0x0,-0x708(%rbp)
    860b:	00 00 00 00 
    860f:	48 8d 85 88 e8 ff ff 	lea    -0x1778(%rbp),%rax
    8616:	48 89 85 00 f9 ff ff 	mov    %rax,-0x700(%rbp)
    861d:	48 c7 85 08 f9 ff ff 	movq   $0x0,-0x6f8(%rbp)
    8624:	00 00 00 00 
    8628:	48 8d 05 12 d5 00 00 	lea    0xd512(%rip),%rax        # 15b41 <g_1496>
    862f:	48 89 85 10 f9 ff ff 	mov    %rax,-0x6f0(%rbp)
    8636:	48 c7 85 18 f9 ff ff 	movq   $0x0,-0x6e8(%rbp)
    863d:	00 00 00 00 
    8641:	48 8d 05 f9 d4 00 00 	lea    0xd4f9(%rip),%rax        # 15b41 <g_1496>
    8648:	48 89 85 20 f9 ff ff 	mov    %rax,-0x6e0(%rbp)
    864f:	48 8d 05 eb d4 00 00 	lea    0xd4eb(%rip),%rax        # 15b41 <g_1496>
    8656:	48 89 85 28 f9 ff ff 	mov    %rax,-0x6d8(%rbp)
    865d:	48 8d 05 dd d4 00 00 	lea    0xd4dd(%rip),%rax        # 15b41 <g_1496>
    8664:	48 89 85 30 f9 ff ff 	mov    %rax,-0x6d0(%rbp)
    866b:	48 c7 85 38 f9 ff ff 	movq   $0x0,-0x6c8(%rbp)
    8672:	00 00 00 00 
    8676:	48 8d 05 c4 d4 00 00 	lea    0xd4c4(%rip),%rax        # 15b41 <g_1496>
    867d:	48 89 85 40 f9 ff ff 	mov    %rax,-0x6c0(%rbp)
    8684:	48 8d 05 b6 d4 00 00 	lea    0xd4b6(%rip),%rax        # 15b41 <g_1496>
    868b:	48 89 85 48 f9 ff ff 	mov    %rax,-0x6b8(%rbp)
    8692:	48 8d 05 a8 d4 00 00 	lea    0xd4a8(%rip),%rax        # 15b41 <g_1496>
    8699:	48 89 85 50 f9 ff ff 	mov    %rax,-0x6b0(%rbp)
    86a0:	48 8d 05 9a d4 00 00 	lea    0xd49a(%rip),%rax        # 15b41 <g_1496>
    86a7:	48 89 85 58 f9 ff ff 	mov    %rax,-0x6a8(%rbp)
    86ae:	48 8d 05 8c d4 00 00 	lea    0xd48c(%rip),%rax        # 15b41 <g_1496>
    86b5:	48 89 85 60 f9 ff ff 	mov    %rax,-0x6a0(%rbp)
    86bc:	48 c7 85 68 f9 ff ff 	movq   $0x0,-0x698(%rbp)
    86c3:	00 00 00 00 
    86c7:	48 8d 05 73 d4 00 00 	lea    0xd473(%rip),%rax        # 15b41 <g_1496>
    86ce:	48 89 85 70 f9 ff ff 	mov    %rax,-0x690(%rbp)
    86d5:	48 c7 85 78 f9 ff ff 	movq   $0x0,-0x688(%rbp)
    86dc:	00 00 00 00 
    86e0:	48 8d 05 5a d4 00 00 	lea    0xd45a(%rip),%rax        # 15b41 <g_1496>
    86e7:	48 89 85 80 f9 ff ff 	mov    %rax,-0x680(%rbp)
    86ee:	48 8d 05 4c d4 00 00 	lea    0xd44c(%rip),%rax        # 15b41 <g_1496>
    86f5:	48 89 85 88 f9 ff ff 	mov    %rax,-0x678(%rbp)
    86fc:	48 8d 85 88 e8 ff ff 	lea    -0x1778(%rbp),%rax
    8703:	48 89 85 90 f9 ff ff 	mov    %rax,-0x670(%rbp)
    870a:	48 8d 05 30 d4 00 00 	lea    0xd430(%rip),%rax        # 15b41 <g_1496>
    8711:	48 89 85 98 f9 ff ff 	mov    %rax,-0x668(%rbp)
    8718:	48 8d 05 22 d4 00 00 	lea    0xd422(%rip),%rax        # 15b41 <g_1496>
    871f:	48 89 85 a0 f9 ff ff 	mov    %rax,-0x660(%rbp)
    8726:	48 c7 85 a8 f9 ff ff 	movq   $0x0,-0x658(%rbp)
    872d:	00 00 00 00 
    8731:	48 8d 05 09 d4 00 00 	lea    0xd409(%rip),%rax        # 15b41 <g_1496>
    8738:	48 89 85 b0 f9 ff ff 	mov    %rax,-0x650(%rbp)
    873f:	48 8d 05 fb d3 00 00 	lea    0xd3fb(%rip),%rax        # 15b41 <g_1496>
    8746:	48 89 85 b8 f9 ff ff 	mov    %rax,-0x648(%rbp)
    874d:	48 8d 05 ed d3 00 00 	lea    0xd3ed(%rip),%rax        # 15b41 <g_1496>
    8754:	48 89 85 c0 f9 ff ff 	mov    %rax,-0x640(%rbp)
    875b:	48 c7 85 c8 f9 ff ff 	movq   $0x0,-0x638(%rbp)
    8762:	00 00 00 00 
    8766:	48 c7 85 d0 f9 ff ff 	movq   $0x0,-0x630(%rbp)
    876d:	00 00 00 00 
    8771:	48 c7 85 d8 f9 ff ff 	movq   $0x0,-0x628(%rbp)
    8778:	00 00 00 00 
    877c:	48 8d 05 be d3 00 00 	lea    0xd3be(%rip),%rax        # 15b41 <g_1496>
    8783:	48 89 85 e0 f9 ff ff 	mov    %rax,-0x620(%rbp)
    878a:	48 c7 85 e8 f9 ff ff 	movq   $0x0,-0x618(%rbp)
    8791:	00 00 00 00 
    8795:	48 8d 05 a5 d3 00 00 	lea    0xd3a5(%rip),%rax        # 15b41 <g_1496>
    879c:	48 89 85 f0 f9 ff ff 	mov    %rax,-0x610(%rbp)
    87a3:	48 c7 85 f8 f9 ff ff 	movq   $0x0,-0x608(%rbp)
    87aa:	00 00 00 00 
    87ae:	48 c7 85 00 fa ff ff 	movq   $0x0,-0x600(%rbp)
    87b5:	00 00 00 00 
    87b9:	48 c7 85 08 fa ff ff 	movq   $0x0,-0x5f8(%rbp)
    87c0:	00 00 00 00 
    87c4:	48 8d 85 88 e8 ff ff 	lea    -0x1778(%rbp),%rax
    87cb:	48 89 85 10 fa ff ff 	mov    %rax,-0x5f0(%rbp)
    87d2:	48 8d 05 68 d3 00 00 	lea    0xd368(%rip),%rax        # 15b41 <g_1496>
    87d9:	48 89 85 18 fa ff ff 	mov    %rax,-0x5e8(%rbp)
    87e0:	48 8d 05 5a d3 00 00 	lea    0xd35a(%rip),%rax        # 15b41 <g_1496>
    87e7:	48 89 85 20 fa ff ff 	mov    %rax,-0x5e0(%rbp)
    87ee:	48 c7 85 28 fa ff ff 	movq   $0x0,-0x5d8(%rbp)
    87f5:	00 00 00 00 
    87f9:	48 8d 05 41 d3 00 00 	lea    0xd341(%rip),%rax        # 15b41 <g_1496>
    8800:	48 89 85 30 fa ff ff 	mov    %rax,-0x5d0(%rbp)
    8807:	48 8d 05 33 d3 00 00 	lea    0xd333(%rip),%rax        # 15b41 <g_1496>
    880e:	48 89 85 38 fa ff ff 	mov    %rax,-0x5c8(%rbp)
    8815:	48 8d 85 88 e8 ff ff 	lea    -0x1778(%rbp),%rax
    881c:	48 89 85 40 fa ff ff 	mov    %rax,-0x5c0(%rbp)
    8823:	48 8d 05 17 d3 00 00 	lea    0xd317(%rip),%rax        # 15b41 <g_1496>
    882a:	48 89 85 48 fa ff ff 	mov    %rax,-0x5b8(%rbp)
    8831:	48 8d 05 09 d3 00 00 	lea    0xd309(%rip),%rax        # 15b41 <g_1496>
    8838:	48 89 85 50 fa ff ff 	mov    %rax,-0x5b0(%rbp)
    883f:	48 c7 85 58 fa ff ff 	movq   $0x0,-0x5a8(%rbp)
    8846:	00 00 00 00 
    884a:	48 8d 05 f0 d2 00 00 	lea    0xd2f0(%rip),%rax        # 15b41 <g_1496>
    8851:	48 89 85 60 fa ff ff 	mov    %rax,-0x5a0(%rbp)
    8858:	48 c7 85 68 fa ff ff 	movq   $0x0,-0x598(%rbp)
    885f:	00 00 00 00 
    8863:	48 c7 85 70 fa ff ff 	movq   $0x0,-0x590(%rbp)
    886a:	00 00 00 00 
    886e:	48 c7 85 78 fa ff ff 	movq   $0x0,-0x588(%rbp)
    8875:	00 00 00 00 
    8879:	48 8d 05 c1 d2 00 00 	lea    0xd2c1(%rip),%rax        # 15b41 <g_1496>
    8880:	48 89 85 80 fa ff ff 	mov    %rax,-0x580(%rbp)
    8887:	48 c7 85 88 fa ff ff 	movq   $0x0,-0x578(%rbp)
    888e:	00 00 00 00 
    8892:	48 c7 85 90 fa ff ff 	movq   $0x0,-0x570(%rbp)
    8899:	00 00 00 00 
    889d:	48 8d 05 9d d2 00 00 	lea    0xd29d(%rip),%rax        # 15b41 <g_1496>
    88a4:	48 89 85 98 fa ff ff 	mov    %rax,-0x568(%rbp)
    88ab:	48 c7 85 a0 fa ff ff 	movq   $0x0,-0x560(%rbp)
    88b2:	00 00 00 00 
    88b6:	48 c7 85 a8 fa ff ff 	movq   $0x0,-0x558(%rbp)
    88bd:	00 00 00 00 
    88c1:	48 8d 05 79 d2 00 00 	lea    0xd279(%rip),%rax        # 15b41 <g_1496>
    88c8:	48 89 85 b0 fa ff ff 	mov    %rax,-0x550(%rbp)
    88cf:	48 8d 05 6b d2 00 00 	lea    0xd26b(%rip),%rax        # 15b41 <g_1496>
    88d6:	48 89 85 b8 fa ff ff 	mov    %rax,-0x548(%rbp)
    88dd:	48 8d 85 88 e8 ff ff 	lea    -0x1778(%rbp),%rax
    88e4:	48 89 85 c0 fa ff ff 	mov    %rax,-0x540(%rbp)
    88eb:	48 8d 05 4f d2 00 00 	lea    0xd24f(%rip),%rax        # 15b41 <g_1496>
    88f2:	48 89 85 c8 fa ff ff 	mov    %rax,-0x538(%rbp)
    88f9:	48 8d 05 41 d2 00 00 	lea    0xd241(%rip),%rax        # 15b41 <g_1496>
    8900:	48 89 85 d0 fa ff ff 	mov    %rax,-0x530(%rbp)
    8907:	48 c7 85 d8 fa ff ff 	movq   $0x0,-0x528(%rbp)
    890e:	00 00 00 00 
    8912:	48 8d 05 28 d2 00 00 	lea    0xd228(%rip),%rax        # 15b41 <g_1496>
    8919:	48 89 85 e0 fa ff ff 	mov    %rax,-0x520(%rbp)
    8920:	48 8d 05 1a d2 00 00 	lea    0xd21a(%rip),%rax        # 15b41 <g_1496>
    8927:	48 89 85 e8 fa ff ff 	mov    %rax,-0x518(%rbp)
    892e:	48 8d 85 88 e8 ff ff 	lea    -0x1778(%rbp),%rax
    8935:	48 89 85 f0 fa ff ff 	mov    %rax,-0x510(%rbp)
    893c:	48 8d 05 fe d1 00 00 	lea    0xd1fe(%rip),%rax        # 15b41 <g_1496>
    8943:	48 89 85 f8 fa ff ff 	mov    %rax,-0x508(%rbp)
    894a:	0f b7 85 8e e8 ff ff 	movzwl -0x1772(%rbp),%eax
    8951:	83 e8 01             	sub    $0x1,%eax
    8954:	66 89 85 8e e8 ff ff 	mov    %ax,-0x1772(%rbp)
    895b:	0f b6 85 88 e8 ff ff 	movzbl -0x1778(%rbp),%eax
    8962:	84 c0                	test   %al,%al
    8964:	0f 85 6c 1b 00 00    	jne    a4d6 <func_1+0x2d21>
    896a:	48 8b 85 98 e9 ff ff 	mov    -0x1668(%rbp),%rax
    8971:	48 8b 00             	mov    (%rax),%rax
    8974:	8b 10                	mov    (%rax),%edx
    8976:	48 8b 85 90 e9 ff ff 	mov    -0x1670(%rbp),%rax
    897d:	48 8b 00             	mov    (%rax),%rax
    8980:	88 10                	mov    %dl,(%rax)
    8982:	0f b6 00             	movzbl (%rax),%eax
    8985:	0f b6 c0             	movzbl %al,%eax
    8988:	89 c6                	mov    %eax,%esi
    898a:	bf 00 00 00 00       	mov    $0x0,%edi
    898f:	e8 5a d9 ff ff       	callq  62ee <safe_lshift_func_int8_t_s_u>
    8994:	48 8b 85 38 e9 ff ff 	mov    -0x16c8(%rbp),%rax
    899b:	8b 00                	mov    (%rax),%eax
    899d:	41 89 c5             	mov    %eax,%r13d
    89a0:	8b 05 5e ca 00 00    	mov    0xca5e(%rip),%eax        # 15404 <g_4+0x4>
    89a6:	0f bf d8             	movswl %ax,%ebx
    89a9:	48 8b 85 a0 fa ff ff 	mov    -0x560(%rbp),%rax
    89b0:	48 39 85 a0 e9 ff ff 	cmp    %rax,-0x1660(%rbp)
    89b7:	0f 95 c0             	setne  %al
    89ba:	44 0f b6 e0          	movzbl %al,%r12d
    89be:	8b 85 f0 e8 ff ff    	mov    -0x1710(%rbp),%eax
    89c4:	89 c6                	mov    %eax,%esi
    89c6:	bf 00 00 00 00       	mov    $0x0,%edi
    89cb:	e8 78 e4 ff ff       	callq  6e48 <safe_rshift_func_uint16_t_u_s>
    89d0:	44 09 e0             	or     %r12d,%eax
    89d3:	98                   	cwtl   
    89d4:	89 de                	mov    %ebx,%esi
    89d6:	89 c7                	mov    %eax,%edi
    89d8:	e8 f6 d9 ff ff       	callq  63d3 <safe_sub_func_int16_t_s_s>
    89dd:	8b 05 25 f0 00 00    	mov    0xf025(%rip),%eax        # 17a08 <g_2>
    89e3:	85 c0                	test   %eax,%eax
    89e5:	74 07                	je     89ee <func_1+0x1239>
    89e7:	b8 01 00 00 00       	mov    $0x1,%eax
    89ec:	eb 05                	jmp    89f3 <func_1+0x123e>
    89ee:	b8 00 00 00 00       	mov    $0x0,%eax
    89f3:	be 09 70 17 07       	mov    $0x7177009,%esi
    89f8:	89 c7                	mov    %eax,%edi
    89fa:	e8 00 dd ff ff       	callq  66ff <safe_div_func_int32_t_s_s>
    89ff:	44 09 e8             	or     %r13d,%eax
    8a02:	0f b7 d0             	movzwl %ax,%edx
    8a05:	8b 85 ac e8 ff ff    	mov    -0x1754(%rbp),%eax
    8a0b:	0f b7 c0             	movzwl %ax,%eax
    8a0e:	89 d6                	mov    %edx,%esi
    8a10:	89 c7                	mov    %eax,%edi
    8a12:	e8 26 e3 ff ff       	callq  6d3d <safe_mul_func_uint16_t_u_u>
    8a17:	8b 95 c0 f0 ff ff    	mov    -0xf40(%rbp),%edx
    8a1d:	0f b7 c0             	movzwl %ax,%eax
    8a20:	09 d0                	or     %edx,%eax
    8a22:	89 85 c0 f0 ff ff    	mov    %eax,-0xf40(%rbp)
    8a28:	c7 85 c4 e8 ff ff 01 	movl   $0x1,-0x173c(%rbp)
    8a2f:	00 00 00 
    8a32:	e9 4b 02 00 00       	jmpq   8c82 <func_1+0x14cd>
    8a37:	66 c7 85 9a e8 ff ff 	movw   $0xffff,-0x1766(%rbp)
    8a3e:	ff ff 
    8a40:	48 c7 05 0d cc 00 00 	movq   $0x0,0xcc0d(%rip)        # 15658 <g_867>
    8a47:	00 00 00 00 
    8a4b:	e9 17 02 00 00       	jmpq   8c67 <func_1+0x14b2>
    8a50:	48 8d 05 bb ca 00 00 	lea    0xcabb(%rip),%rax        # 15512 <g_315>
    8a57:	48 89 85 88 ea ff ff 	mov    %rax,-0x1578(%rbp)
    8a5e:	8b 9d dc ea ff ff    	mov    -0x1524(%rbp),%ebx
    8a64:	44 0f b7 a5 9a e8 ff 	movzwl -0x1766(%rbp),%r12d
    8a6b:	ff 
    8a6c:	48 8b 05 e5 cb 00 00 	mov    0xcbe5(%rip),%rax        # 15658 <g_867>
    8a73:	48 8d 48 01          	lea    0x1(%rax),%rcx
    8a77:	8b 85 c4 e8 ff ff    	mov    -0x173c(%rbp),%eax
    8a7d:	48 98                	cltq   
    8a7f:	48 89 c2             	mov    %rax,%rdx
    8a82:	48 c1 e2 03          	shl    $0x3,%rdx
    8a86:	48 29 c2             	sub    %rax,%rdx
    8a89:	48 8d 04 95 00 00 00 	lea    0x0(,%rdx,4),%rax
    8a90:	00 
    8a91:	48 89 c2             	mov    %rax,%rdx
    8a94:	48 89 c8             	mov    %rcx,%rax
    8a97:	48 01 c0             	add    %rax,%rax
    8a9a:	48 01 c8             	add    %rcx,%rax
    8a9d:	48 c1 e0 05          	shl    $0x5,%rax
    8aa1:	48 01 d0             	add    %rdx,%rax
    8aa4:	48 8d 4d d0          	lea    -0x30(%rbp),%rcx
    8aa8:	48 01 c8             	add    %rcx,%rax
    8aab:	48 2d 60 13 00 00    	sub    $0x1360,%rax
    8ab1:	8b 00                	mov    (%rax),%eax
    8ab3:	0f be c0             	movsbl %al,%eax
    8ab6:	be 01 00 00 00       	mov    $0x1,%esi
    8abb:	89 c7                	mov    %eax,%edi
    8abd:	e8 2c d8 ff ff       	callq  62ee <safe_lshift_func_int8_t_s_u>
    8ac2:	0f be c0             	movsbl %al,%eax
    8ac5:	41 39 c4             	cmp    %eax,%r12d
    8ac8:	0f 94 c0             	sete   %al
    8acb:	0f b6 c0             	movzbl %al,%eax
    8ace:	39 c3                	cmp    %eax,%ebx
    8ad0:	0f 94 c0             	sete   %al
    8ad3:	0f b6 d8             	movzbl %al,%ebx
    8ad6:	48 8b 05 7b cb 00 00 	mov    0xcb7b(%rip),%rax        # 15658 <g_867>
    8add:	48 8d 48 01          	lea    0x1(%rax),%rcx
    8ae1:	8b 85 c4 e8 ff ff    	mov    -0x173c(%rbp),%eax
    8ae7:	48 98                	cltq   
    8ae9:	48 89 c2             	mov    %rax,%rdx
    8aec:	48 c1 e2 03          	shl    $0x3,%rdx
    8af0:	48 29 c2             	sub    %rax,%rdx
    8af3:	48 8d 04 95 00 00 00 	lea    0x0(,%rdx,4),%rax
    8afa:	00 
    8afb:	48 89 c2             	mov    %rax,%rdx
    8afe:	48 89 c8             	mov    %rcx,%rax
    8b01:	48 01 c0             	add    %rax,%rax
    8b04:	48 01 c8             	add    %rcx,%rax
    8b07:	48 c1 e0 05          	shl    $0x5,%rax
    8b0b:	48 01 d0             	add    %rdx,%rax
    8b0e:	48 8d 4d d0          	lea    -0x30(%rbp),%rcx
    8b12:	48 01 c8             	add    %rcx,%rax
    8b15:	48 2d 60 13 00 00    	sub    $0x1360,%rax
    8b1b:	8b 00                	mov    (%rax),%eax
    8b1d:	0f b6 c0             	movzbl %al,%eax
    8b20:	be 06 00 00 00       	mov    $0x6,%esi
    8b25:	89 c7                	mov    %eax,%edi
    8b27:	e8 20 e1 ff ff       	callq  6c4c <safe_lshift_func_uint8_t_u_u>
    8b2c:	0f b6 d0             	movzbl %al,%edx
    8b2f:	48 8b 85 60 e9 ff ff 	mov    -0x16a0(%rbp),%rax
    8b36:	0f b7 00             	movzwl (%rax),%eax
    8b39:	89 d9                	mov    %ebx,%ecx
    8b3b:	21 c1                	and    %eax,%ecx
    8b3d:	48 8b 85 60 e9 ff ff 	mov    -0x16a0(%rbp),%rax
    8b44:	66 89 08             	mov    %cx,(%rax)
    8b47:	48 8b 85 60 e9 ff ff 	mov    -0x16a0(%rbp),%rax
    8b4e:	0f b7 00             	movzwl (%rax),%eax
    8b51:	98                   	cwtl   
    8b52:	39 c2                	cmp    %eax,%edx
    8b54:	0f 95 c0             	setne  %al
    8b57:	0f b6 d0             	movzbl %al,%edx
    8b5a:	48 8b 85 88 ea ff ff 	mov    -0x1578(%rbp),%rax
    8b61:	0f b7 00             	movzwl (%rax),%eax
    8b64:	31 c2                	xor    %eax,%edx
    8b66:	48 8b 85 88 ea ff ff 	mov    -0x1578(%rbp),%rax
    8b6d:	66 89 10             	mov    %dx,(%rax)
    8b70:	48 8b 05 59 db 00 00 	mov    0xdb59(%rip),%rax        # 166d0 <g_82>
    8b77:	0f b6 00             	movzbl (%rax),%eax
    8b7a:	0f be d0             	movsbl %al,%edx
    8b7d:	48 8d 05 5c db 00 00 	lea    0xdb5c(%rip),%rax        # 166e0 <g_546>
    8b84:	48 8b 00             	mov    (%rax),%rax
    8b87:	0f b6 00             	movzbl (%rax),%eax
    8b8a:	0f be c0             	movsbl %al,%eax
    8b8d:	89 d6                	mov    %edx,%esi
    8b8f:	89 c7                	mov    %eax,%edi
    8b91:	e8 3e d6 ff ff       	callq  61d4 <safe_add_func_int8_t_s_s>
    8b96:	84 c0                	test   %al,%al
    8b98:	75 1f                	jne    8bb9 <func_1+0x1404>
    8b9a:	0f b6 05 06 ca 00 00 	movzbl 0xca06(%rip),%eax        # 155a7 <g_518+0x67>
    8ba1:	0f b6 d0             	movzbl %al,%edx
    8ba4:	0f b7 85 9a e8 ff ff 	movzwl -0x1766(%rbp),%eax
    8bab:	89 d6                	mov    %edx,%esi
    8bad:	89 c7                	mov    %eax,%edi
    8baf:	e8 a8 e1 ff ff       	callq  6d5c <safe_mod_func_uint16_t_u_u>
    8bb4:	66 85 c0             	test   %ax,%ax
    8bb7:	74 07                	je     8bc0 <func_1+0x140b>
    8bb9:	b8 01 00 00 00       	mov    $0x1,%eax
    8bbe:	eb 05                	jmp    8bc5 <func_1+0x1410>
    8bc0:	b8 00 00 00 00       	mov    $0x0,%eax
    8bc5:	0f b7 c0             	movzwl %ax,%eax
    8bc8:	89 c6                	mov    %eax,%esi
    8bca:	bf 01 00 00 00       	mov    $0x1,%edi
    8bcf:	e8 88 e1 ff ff       	callq  6d5c <safe_mod_func_uint16_t_u_u>
    8bd4:	8b 85 08 ef ff ff    	mov    -0x10f8(%rbp),%eax
    8bda:	48 63 d0             	movslq %eax,%rdx
    8bdd:	48 8b 05 14 cf 00 00 	mov    0xcf14(%rip),%rax        # 15af8 <g_1342>
    8be4:	48 39 c2             	cmp    %rax,%rdx
    8be7:	0f 92 c0             	setb   %al
    8bea:	0f b6 c0             	movzbl %al,%eax
    8bed:	be 04 00 00 00       	mov    $0x4,%esi
    8bf2:	48 89 c7             	mov    %rax,%rdi
    8bf5:	e8 ba dd ff ff       	callq  69b4 <safe_mod_func_int64_t_s_s>
    8bfa:	48 83 bd c0 e9 ff ff 	cmpq   $0x0,-0x1640(%rbp)
    8c01:	00 
    8c02:	0f 95 c0             	setne  %al
    8c05:	0f b6 c0             	movzbl %al,%eax
    8c08:	be 08 00 00 00       	mov    $0x8,%esi
    8c0d:	89 c7                	mov    %eax,%edi
    8c0f:	e8 16 d9 ff ff       	callq  652a <safe_rshift_func_int16_t_s_s>
    8c14:	89 c2                	mov    %eax,%edx
    8c16:	48 8b 85 98 e9 ff ff 	mov    -0x1668(%rbp),%rax
    8c1d:	48 8b 00             	mov    (%rax),%rax
    8c20:	0f bf d2             	movswl %dx,%edx
    8c23:	89 10                	mov    %edx,(%rax)
    8c25:	48 8b 05 94 da 00 00 	mov    0xda94(%rip),%rax        # 166c0 <g_81>
    8c2c:	8b 00                	mov    (%rax),%eax
    8c2e:	85 c0                	test   %eax,%eax
    8c30:	75 48                	jne    8c7a <func_1+0x14c5>
    8c32:	c6 85 88 e8 ff ff 00 	movb   $0x0,-0x1778(%rbp)
    8c39:	90                   	nop
    8c3a:	0f b6 85 88 e8 ff ff 	movzbl -0x1778(%rbp),%eax
    8c41:	3c 01                	cmp    $0x1,%al
    8c43:	7f 10                	jg     8c55 <func_1+0x14a0>
    8c45:	48 8b 85 38 e9 ff ff 	mov    -0x16c8(%rbp),%rax
    8c4c:	8b 00                	mov    (%rax),%eax
    8c4e:	48 98                	cltq   
    8c50:	e9 90 18 00 00       	jmpq   a4e5 <func_1+0x2d30>
    8c55:	48 8b 05 fc c9 00 00 	mov    0xc9fc(%rip),%rax        # 15658 <g_867>
    8c5c:	48 83 c0 01          	add    $0x1,%rax
    8c60:	48 89 05 f1 c9 00 00 	mov    %rax,0xc9f1(%rip)        # 15658 <g_867>
    8c67:	48 8b 05 ea c9 00 00 	mov    0xc9ea(%rip),%rax        # 15658 <g_867>
    8c6e:	48 83 f8 03          	cmp    $0x3,%rax
    8c72:	0f 8e d8 fd ff ff    	jle    8a50 <func_1+0x129b>
    8c78:	eb 01                	jmp    8c7b <func_1+0x14c6>
    8c7a:	90                   	nop
    8c7b:	83 ad c4 e8 ff ff 01 	subl   $0x1,-0x173c(%rbp)
    8c82:	83 bd c4 e8 ff ff 00 	cmpl   $0x0,-0x173c(%rbp)
    8c89:	0f 89 a8 fd ff ff    	jns    8a37 <func_1+0x1282>
    8c8f:	48 8d 05 92 ed 00 00 	lea    0xed92(%rip),%rax        # 17a28 <g_1202>
    8c96:	48 39 85 a8 e9 ff ff 	cmp    %rax,-0x1658(%rbp)
    8c9d:	0f 95 c0             	setne  %al
    8ca0:	0f b6 c0             	movzbl %al,%eax
    8ca3:	39 85 d0 e8 ff ff    	cmp    %eax,-0x1730(%rbp)
    8ca9:	0f 8c 55 05 00 00    	jl     9204 <func_1+0x1a4f>
    8caf:	48 8d 05 b2 cd 00 00 	lea    0xcdb2(%rip),%rax        # 15a68 <g_923>
    8cb6:	48 89 85 08 ea ff ff 	mov    %rax,-0x15f8(%rbp)
    8cbd:	48 8d 05 7c c9 00 00 	lea    0xc97c(%rip),%rax        # 15640 <g_659>
    8cc4:	48 89 85 10 ea ff ff 	mov    %rax,-0x15f0(%rbp)
    8ccb:	c7 85 10 e9 ff ff 05 	movl   $0x5,-0x16f0(%rbp)
    8cd2:	00 00 00 
    8cd5:	48 8d 85 a8 e8 ff ff 	lea    -0x1758(%rbp),%rax
    8cdc:	48 89 85 18 ea ff ff 	mov    %rax,-0x15e8(%rbp)
    8ce3:	48 8d 05 52 ce 00 00 	lea    0xce52(%rip),%rax        # 15b3c <g_1466+0x1c>
    8cea:	48 89 85 20 ea ff ff 	mov    %rax,-0x15e0(%rbp)
    8cf1:	48 8d 85 b8 e8 ff ff 	lea    -0x1748(%rbp),%rax
    8cf8:	48 89 85 28 ea ff ff 	mov    %rax,-0x15d8(%rbp)
    8cff:	48 8d 05 32 ce 00 00 	lea    0xce32(%rip),%rax        # 15b38 <g_1466+0x18>
    8d06:	48 89 85 30 ea ff ff 	mov    %rax,-0x15d0(%rbp)
    8d0d:	48 8d 85 50 ee ff ff 	lea    -0x11b0(%rbp),%rax
    8d14:	48 05 a0 01 00 00    	add    $0x1a0,%rax
    8d1a:	48 89 85 38 ea ff ff 	mov    %rax,-0x15c8(%rbp)
    8d21:	48 c7 85 40 ea ff ff 	movq   $0x0,-0x15c0(%rbp)
    8d28:	00 00 00 00 
    8d2c:	48 8d 85 ac e8 ff ff 	lea    -0x1754(%rbp),%rax
    8d33:	48 89 85 48 ea ff ff 	mov    %rax,-0x15b8(%rbp)
    8d3a:	48 c7 85 50 ea ff ff 	movq   $0x0,-0x15b0(%rbp)
    8d41:	00 00 00 00 
    8d45:	48 8d 05 ec c6 00 00 	lea    0xc6ec(%rip),%rax        # 15438 <g_87+0x18>
    8d4c:	48 89 85 58 ea ff ff 	mov    %rax,-0x15a8(%rbp)
    8d53:	48 8d 85 b4 e8 ff ff 	lea    -0x174c(%rbp),%rax
    8d5a:	48 89 85 e0 f7 ff ff 	mov    %rax,-0x820(%rbp)
    8d61:	48 8d 05 a4 c6 00 00 	lea    0xc6a4(%rip),%rax        # 1540c <g_8>
    8d68:	48 89 85 e8 f7 ff ff 	mov    %rax,-0x818(%rbp)
    8d6f:	48 8d 05 b6 cd 00 00 	lea    0xcdb6(%rip),%rax        # 15b2c <g_1466+0xc>
    8d76:	48 89 85 f0 f7 ff ff 	mov    %rax,-0x810(%rbp)
    8d7d:	48 8d 85 b4 e8 ff ff 	lea    -0x174c(%rbp),%rax
    8d84:	48 89 85 f8 f7 ff ff 	mov    %rax,-0x808(%rbp)
    8d8b:	48 8d 05 9a cd 00 00 	lea    0xcd9a(%rip),%rax        # 15b2c <g_1466+0xc>
    8d92:	48 89 85 00 f8 ff ff 	mov    %rax,-0x800(%rbp)
    8d99:	48 8d 05 6c c6 00 00 	lea    0xc66c(%rip),%rax        # 1540c <g_8>
    8da0:	48 89 85 08 f8 ff ff 	mov    %rax,-0x7f8(%rbp)
    8da7:	48 8d 85 b4 e8 ff ff 	lea    -0x174c(%rbp),%rax
    8dae:	48 89 85 10 f8 ff ff 	mov    %rax,-0x7f0(%rbp)
    8db5:	48 8d 85 b8 e8 ff ff 	lea    -0x1748(%rbp),%rax
    8dbc:	48 89 85 18 f8 ff ff 	mov    %rax,-0x7e8(%rbp)
    8dc3:	48 8d 85 b8 e8 ff ff 	lea    -0x1748(%rbp),%rax
    8dca:	48 89 85 20 f8 ff ff 	mov    %rax,-0x7e0(%rbp)
    8dd1:	48 8d 85 b4 e8 ff ff 	lea    -0x174c(%rbp),%rax
    8dd8:	48 89 85 28 f8 ff ff 	mov    %rax,-0x7d8(%rbp)
    8ddf:	48 8d 05 26 c6 00 00 	lea    0xc626(%rip),%rax        # 1540c <g_8>
    8de6:	48 89 85 30 f8 ff ff 	mov    %rax,-0x7d0(%rbp)
    8ded:	48 8d 05 38 cd 00 00 	lea    0xcd38(%rip),%rax        # 15b2c <g_1466+0xc>
    8df4:	48 89 85 38 f8 ff ff 	mov    %rax,-0x7c8(%rbp)
    8dfb:	48 8d 85 b4 e8 ff ff 	lea    -0x174c(%rbp),%rax
    8e02:	48 89 85 40 f8 ff ff 	mov    %rax,-0x7c0(%rbp)
    8e09:	48 8d 05 1c cd 00 00 	lea    0xcd1c(%rip),%rax        # 15b2c <g_1466+0xc>
    8e10:	48 89 85 48 f8 ff ff 	mov    %rax,-0x7b8(%rbp)
    8e17:	48 8d 05 ee c5 00 00 	lea    0xc5ee(%rip),%rax        # 1540c <g_8>
    8e1e:	48 89 85 50 f8 ff ff 	mov    %rax,-0x7b0(%rbp)
    8e25:	48 8d 85 b4 e8 ff ff 	lea    -0x174c(%rbp),%rax
    8e2c:	48 89 85 58 f8 ff ff 	mov    %rax,-0x7a8(%rbp)
    8e33:	48 8d 85 b8 e8 ff ff 	lea    -0x1748(%rbp),%rax
    8e3a:	48 89 85 60 f8 ff ff 	mov    %rax,-0x7a0(%rbp)
    8e41:	48 8d 85 b8 e8 ff ff 	lea    -0x1748(%rbp),%rax
    8e48:	48 89 85 68 f8 ff ff 	mov    %rax,-0x798(%rbp)
    8e4f:	48 8d 85 b4 e8 ff ff 	lea    -0x174c(%rbp),%rax
    8e56:	48 89 85 70 f8 ff ff 	mov    %rax,-0x790(%rbp)
    8e5d:	48 8d 05 a8 c5 00 00 	lea    0xc5a8(%rip),%rax        # 1540c <g_8>
    8e64:	48 89 85 78 f8 ff ff 	mov    %rax,-0x788(%rbp)
    8e6b:	48 8d 05 ba cc 00 00 	lea    0xccba(%rip),%rax        # 15b2c <g_1466+0xc>
    8e72:	48 89 85 80 f8 ff ff 	mov    %rax,-0x780(%rbp)
    8e79:	48 8d 85 b4 e8 ff ff 	lea    -0x174c(%rbp),%rax
    8e80:	48 89 85 88 f8 ff ff 	mov    %rax,-0x778(%rbp)
    8e87:	48 8d 05 9e cc 00 00 	lea    0xcc9e(%rip),%rax        # 15b2c <g_1466+0xc>
    8e8e:	48 89 85 90 f8 ff ff 	mov    %rax,-0x770(%rbp)
    8e95:	48 8d 05 70 c5 00 00 	lea    0xc570(%rip),%rax        # 1540c <g_8>
    8e9c:	48 89 85 98 f8 ff ff 	mov    %rax,-0x768(%rbp)
    8ea3:	48 8d 85 b4 e8 ff ff 	lea    -0x174c(%rbp),%rax
    8eaa:	48 89 85 a0 f8 ff ff 	mov    %rax,-0x760(%rbp)
    8eb1:	48 8d 85 b8 e8 ff ff 	lea    -0x1748(%rbp),%rax
    8eb8:	48 89 85 a8 f8 ff ff 	mov    %rax,-0x758(%rbp)
    8ebf:	48 8d 85 b8 e8 ff ff 	lea    -0x1748(%rbp),%rax
    8ec6:	48 89 85 b0 f8 ff ff 	mov    %rax,-0x750(%rbp)
    8ecd:	66 c7 85 94 e8 ff ff 	movw   $0x6fc6,-0x176c(%rbp)
    8ed4:	c6 6f 
    8ed6:	48 c7 85 60 ea ff ff 	movq   $0x5,-0x15a0(%rbp)
    8edd:	05 00 00 00 
    8ee1:	48 83 ad 60 ea ff ff 	subq   $0x1,-0x15a0(%rbp)
    8ee8:	01 
    8ee9:	c6 85 88 e8 ff ff f4 	movb   $0xf4,-0x1778(%rbp)
    8ef0:	90                   	nop
    8ef1:	0f b6 85 88 e8 ff ff 	movzbl -0x1778(%rbp),%eax
    8ef8:	3c ef                	cmp    $0xef,%al
    8efa:	0f 8c f5 02 00 00    	jl     91f5 <func_1+0x1a40>
    8f00:	66 c7 85 96 e8 ff ff 	movw   $0xfff7,-0x176a(%rbp)
    8f07:	f7 ff 
    8f09:	48 8b 05 b8 d7 00 00 	mov    0xd7b8(%rip),%rax        # 166c8 <g_80>
    8f10:	48 8b 00             	mov    (%rax),%rax
    8f13:	8b 00                	mov    (%rax),%eax
    8f15:	85 c0                	test   %eax,%eax
    8f17:	0f 84 6f 01 00 00    	je     908c <func_1+0x18d7>
    8f1d:	66 c7 85 98 e8 ff ff 	movw   $0x6e90,-0x1768(%rbp)
    8f24:	90 6e 
    8f26:	48 8d 05 e3 da 00 00 	lea    0xdae3(%rip),%rax        # 16a10 <g_915+0xf0>
    8f2d:	48 89 85 78 ea ff ff 	mov    %rax,-0x1588(%rbp)
    8f34:	48 8d 85 8e e8 ff ff 	lea    -0x1772(%rbp),%rax
    8f3b:	48 89 85 80 ea ff ff 	mov    %rax,-0x1580(%rbp)
    8f42:	48 8b 85 30 ea ff ff 	mov    -0x15d0(%rbp),%rax
    8f49:	8b 10                	mov    (%rax),%edx
    8f4b:	0f bf 85 98 e8 ff ff 	movswl -0x1768(%rbp),%eax
    8f52:	21 c2                	and    %eax,%edx
    8f54:	48 8b 85 30 ea ff ff 	mov    -0x15d0(%rbp),%rax
    8f5b:	89 10                	mov    %edx,(%rax)
    8f5d:	48 8b 85 18 ea ff ff 	mov    -0x15e8(%rbp),%rax
    8f64:	8b 10                	mov    (%rax),%edx
    8f66:	48 8b 05 53 d7 00 00 	mov    0xd753(%rip),%rax        # 166c0 <g_81>
    8f6d:	8b 00                	mov    (%rax),%eax
    8f6f:	31 c2                	xor    %eax,%edx
    8f71:	48 8b 85 18 ea ff ff 	mov    -0x15e8(%rbp),%rax
    8f78:	89 10                	mov    %edx,(%rax)
    8f7a:	48 8b 05 47 e5 00 00 	mov    0xe547(%rip),%rax        # 174c8 <g_1632>
    8f81:	48 8b 00             	mov    (%rax),%rax
    8f84:	48 8b 10             	mov    (%rax),%rdx
    8f87:	48 8b 05 3a e5 00 00 	mov    0xe53a(%rip),%rax        # 174c8 <g_1632>
    8f8e:	48 8b 00             	mov    (%rax),%rax
    8f91:	48 8b 00             	mov    (%rax),%rax
    8f94:	48 8b 12             	mov    (%rdx),%rdx
    8f97:	48 89 10             	mov    %rdx,(%rax)
    8f9a:	0f b6 85 88 e8 ff ff 	movzbl -0x1778(%rbp),%eax
    8fa1:	66 98                	cbtw   
    8fa3:	0f b7 d8             	movzwl %ax,%ebx
    8fa6:	8b 85 c4 f0 ff ff    	mov    -0xf3c(%rbp),%eax
    8fac:	0f bf d0             	movswl %ax,%edx
    8faf:	83 bd c8 e8 ff ff 00 	cmpl   $0x0,-0x1738(%rbp)
    8fb6:	75 17                	jne    8fcf <func_1+0x181a>
    8fb8:	48 8b 85 38 e9 ff ff 	mov    -0x16c8(%rbp),%rax
    8fbf:	8b 00                	mov    (%rax),%eax
    8fc1:	85 c0                	test   %eax,%eax
    8fc3:	75 0a                	jne    8fcf <func_1+0x181a>
    8fc5:	66 83 bd 96 e8 ff ff 	cmpw   $0x0,-0x176a(%rbp)
    8fcc:	00 
    8fcd:	74 07                	je     8fd6 <func_1+0x1821>
    8fcf:	b8 01 00 00 00       	mov    $0x1,%eax
    8fd4:	eb 05                	jmp    8fdb <func_1+0x1826>
    8fd6:	b8 00 00 00 00       	mov    $0x0,%eax
    8fdb:	98                   	cwtl   
    8fdc:	89 d6                	mov    %edx,%esi
    8fde:	89 c7                	mov    %eax,%edi
    8fe0:	e8 31 d4 ff ff       	callq  6416 <safe_mod_func_int16_t_s_s>
    8fe5:	0f bf 95 96 e8 ff ff 	movswl -0x176a(%rbp),%edx
    8fec:	48 83 bd 78 ea ff ff 	cmpq   $0x0,-0x1588(%rbp)
    8ff3:	00 
    8ff4:	0f 95 c0             	setne  %al
    8ff7:	0f b6 c8             	movzbl %al,%ecx
    8ffa:	8b 85 d4 ea ff ff    	mov    -0x152c(%rbp),%eax
    9000:	39 c1                	cmp    %eax,%ecx
    9002:	0f 92 c0             	setb   %al
    9005:	0f b6 c0             	movzbl %al,%eax
    9008:	39 c2                	cmp    %eax,%edx
    900a:	0f 95 c0             	setne  %al
    900d:	0f b6 d0             	movzbl %al,%edx
    9010:	48 8b 85 80 ea ff ff 	mov    -0x1580(%rbp),%rax
    9017:	66 89 10             	mov    %dx,(%rax)
    901a:	48 8b 85 80 ea ff ff 	mov    -0x1580(%rbp),%rax
    9021:	0f b7 00             	movzwl (%rax),%eax
    9024:	0f b7 c0             	movzwl %ax,%eax
    9027:	89 de                	mov    %ebx,%esi
    9029:	89 c7                	mov    %eax,%edi
    902b:	e8 cf dc ff ff       	callq  6cff <safe_add_func_uint16_t_u_u>
    9030:	89 c2                	mov    %eax,%edx
    9032:	48 8b 85 a0 e9 ff ff 	mov    -0x1660(%rbp),%rax
    9039:	88 10                	mov    %dl,(%rax)
    903b:	0f b7 05 c2 ca 00 00 	movzwl 0xcac2(%rip),%eax        # 15b04 <g_1400>
    9042:	66 83 f8 01          	cmp    $0x1,%ax
    9046:	0f 9e c0             	setle  %al
    9049:	0f b6 c0             	movzbl %al,%eax
    904c:	89 c6                	mov    %eax,%esi
    904e:	bf 00 00 00 00       	mov    $0x0,%edi
    9053:	e8 78 de ff ff       	callq  6ed0 <safe_sub_func_uint32_t_u_u>
    9058:	89 c2                	mov    %eax,%edx
    905a:	0f bf b5 96 e8 ff ff 	movswl -0x176a(%rbp),%esi
    9061:	48 8b 85 20 ea ff ff 	mov    -0x15e0(%rbp),%rax
    9068:	8b 00                	mov    (%rax),%eax
    906a:	0f b7 c0             	movzwl %ax,%eax
    906d:	89 d1                	mov    %edx,%ecx
    906f:	48 8d 15 a0 c4 00 00 	lea    0xc4a0(%rip),%rdx        # 15516 <g_390>
    9076:	89 c7                	mov    %eax,%edi
    9078:	e8 f0 6a 00 00       	callq  fb6d <func_54>
    907d:	48 8b 95 98 e9 ff ff 	mov    -0x1668(%rbp),%rdx
    9084:	48 89 02             	mov    %rax,(%rdx)
    9087:	e9 59 01 00 00       	jmpq   91e5 <func_1+0x1a30>
    908c:	48 c7 85 68 ea ff ff 	movq   $0x0,-0x1598(%rbp)
    9093:	00 00 00 00 
    9097:	48 8d 05 32 d6 00 00 	lea    0xd632(%rip),%rax        # 166d0 <g_82>
    909e:	48 89 85 50 e9 ff ff 	mov    %rax,-0x16b0(%rbp)
    90a5:	48 8d 85 50 e9 ff ff 	lea    -0x16b0(%rbp),%rax
    90ac:	48 89 85 70 ea ff ff 	mov    %rax,-0x1590(%rbp)
    90b3:	c7 85 14 e9 ff ff ff 	movl   $0xffffffff,-0x16ec(%rbp)
    90ba:	ff ff ff 
    90bd:	0f b7 85 96 e8 ff ff 	movzwl -0x176a(%rbp),%eax
    90c4:	0f b6 c0             	movzbl %al,%eax
    90c7:	89 c6                	mov    %eax,%esi
    90c9:	bf 01 00 00 00       	mov    $0x1,%edi
    90ce:	e8 c0 da ff ff       	callq  6b93 <safe_mul_func_uint8_t_u_u>
    90d3:	0f b6 c0             	movzbl %al,%eax
    90d6:	48 89 05 7b c5 00 00 	mov    %rax,0xc57b(%rip)        # 15658 <g_867>
    90dd:	48 8b 15 74 c5 00 00 	mov    0xc574(%rip),%rdx        # 15658 <g_867>
    90e4:	48 8b 05 bd dc 00 00 	mov    0xdcbd(%rip),%rax        # 16da8 <g_1354>
    90eb:	48 8b 00             	mov    (%rax),%rax
    90ee:	48 8b 00             	mov    (%rax),%rax
    90f1:	48 89 d6             	mov    %rdx,%rsi
    90f4:	48 89 c7             	mov    %rax,%rdi
    90f7:	e8 ac d7 ff ff       	callq  68a8 <safe_sub_func_int64_t_s_s>
    90fc:	49 89 c5             	mov    %rax,%r13
    90ff:	b8 ff ff ff ff       	mov    $0xffffffff,%eax
    9104:	0f bf d8             	movswl %ax,%ebx
    9107:	48 8b 05 ca d5 00 00 	mov    0xd5ca(%rip),%rax        # 166d8 <g_203>
    910e:	48 8b 10             	mov    (%rax),%rdx
    9111:	48 8b 05 88 dc 00 00 	mov    0xdc88(%rip),%rax        # 16da0 <g_1355>
    9118:	48 8b 00             	mov    (%rax),%rax
    911b:	48 39 c2             	cmp    %rax,%rdx
    911e:	77 58                	ja     9178 <func_1+0x19c3>
    9120:	48 8b 85 70 ea ff ff 	mov    -0x1590(%rbp),%rax
    9127:	48 8d 15 a2 d5 00 00 	lea    0xd5a2(%rip),%rdx        # 166d0 <g_82>
    912e:	48 89 10             	mov    %rdx,(%rax)
    9131:	ba 01 00 00 00       	mov    $0x1,%edx
    9136:	48 8b 85 60 e9 ff ff 	mov    -0x16a0(%rbp),%rax
    913d:	0f b7 00             	movzwl (%rax),%eax
    9140:	21 c2                	and    %eax,%edx
    9142:	48 8b 85 60 e9 ff ff 	mov    -0x16a0(%rbp),%rax
    9149:	66 89 10             	mov    %dx,(%rax)
    914c:	48 8b 85 98 e9 ff ff 	mov    -0x1668(%rbp),%rax
    9153:	48 8b 00             	mov    (%rax),%rax
    9156:	8b 00                	mov    (%rax),%eax
    9158:	4c 63 e0             	movslq %eax,%r12
    915b:	bf 01 00 00 00       	mov    $0x1,%edi
    9160:	e8 e0 d9 ff ff       	callq  6b45 <safe_unary_minus_func_uint8_t_u>
    9165:	8b 85 f8 e8 ff ff    	mov    -0x1708(%rbp),%eax
    916b:	48 98                	cltq   
    916d:	4c 89 e6             	mov    %r12,%rsi
    9170:	48 89 c7             	mov    %rax,%rdi
    9173:	e8 d3 de ff ff       	callq  704b <safe_sub_func_uint64_t_u_u>
    9178:	b8 01 00 00 00       	mov    $0x1,%eax
    917d:	31 85 d0 e8 ff ff    	xor    %eax,-0x1730(%rbp)
    9183:	48 8b 85 38 e9 ff ff 	mov    -0x16c8(%rbp),%rax
    918a:	8b 00                	mov    (%rax),%eax
    918c:	39 85 d0 e8 ff ff    	cmp    %eax,-0x1730(%rbp)
    9192:	0f 9d c0             	setge  %al
    9195:	0f b6 c0             	movzbl %al,%eax
    9198:	8b 15 6e c2 00 00    	mov    0xc26e(%rip),%edx        # 1540c <g_8>
    919e:	31 d0                	xor    %edx,%eax
    91a0:	0f b7 c0             	movzwl %ax,%eax
    91a3:	89 de                	mov    %ebx,%esi
    91a5:	89 c7                	mov    %eax,%edi
    91a7:	e8 5a dc ff ff       	callq  6e06 <safe_lshift_func_uint16_t_u_u>
    91ac:	0f b7 c0             	movzwl %ax,%eax
    91af:	89 c6                	mov    %eax,%esi
    91b1:	bf 01 00 00 00       	mov    $0x1,%edi
    91b6:	e8 4a da ff ff       	callq  6c05 <safe_lshift_func_uint8_t_u_s>
    91bb:	0f b6 c0             	movzbl %al,%eax
    91be:	4c 89 ea             	mov    %r13,%rdx
    91c1:	48 31 c2             	xor    %rax,%rdx
    91c4:	48 8b 85 38 ea ff ff 	mov    -0x15c8(%rbp),%rax
    91cb:	8b 00                	mov    (%rax),%eax
    91cd:	21 c2                	and    %eax,%edx
    91cf:	48 8b 85 38 ea ff ff 	mov    -0x15c8(%rbp),%rax
    91d6:	89 10                	mov    %edx,(%rax)
    91d8:	48 8b 85 18 ea ff ff 	mov    -0x15e8(%rbp),%rax
    91df:	8b 00                	mov    (%rax),%eax
    91e1:	85 c0                	test   %eax,%eax
    91e3:	75 0f                	jne    91f4 <func_1+0x1a3f>
    91e5:	48 8b 05 b4 db 00 00 	mov    0xdbb4(%rip),%rax        # 16da0 <g_1355>
    91ec:	48 8b 00             	mov    (%rax),%rax
    91ef:	e9 f1 12 00 00       	jmpq   a4e5 <func_1+0x2d30>
    91f4:	90                   	nop
    91f5:	48 8b 05 a4 db 00 00 	mov    0xdba4(%rip),%rax        # 16da0 <g_1355>
    91fc:	48 8b 00             	mov    (%rax),%rax
    91ff:	e9 e1 12 00 00       	jmpq   a4e5 <func_1+0x2d30>
    9204:	66 c7 85 92 e8 ff ff 	movw   $0x1,-0x176e(%rbp)
    920b:	01 00 
    920d:	c7 85 fc e8 ff ff 11 	movl   $0x946bf211,-0x1704(%rbp)
    9214:	f2 6b 94 
    9217:	c7 85 dc e8 ff ff 01 	movl   $0x1,-0x1724(%rbp)
    921e:	00 00 00 
    9221:	c6 85 89 e8 ff ff 09 	movb   $0x9,-0x1777(%rbp)
    9228:	48 8d 05 c5 c8 00 00 	lea    0xc8c5(%rip),%rax        # 15af4 <g_1183>
    922f:	48 89 85 d8 e9 ff ff 	mov    %rax,-0x1628(%rbp)
    9236:	c7 85 20 eb ff ff 4d 	movl   $0x4086c94d,-0x14e0(%rbp)
    923d:	c9 86 40 
    9240:	c7 85 24 eb ff ff ba 	movl   $0x85ef59ba,-0x14dc(%rbp)
    9247:	59 ef 85 
    924a:	c7 85 28 eb ff ff ba 	movl   $0x85ef59ba,-0x14d8(%rbp)
    9251:	59 ef 85 
    9254:	c7 85 2c eb ff ff 4d 	movl   $0x4086c94d,-0x14d4(%rbp)
    925b:	c9 86 40 
    925e:	c7 85 30 eb ff ff ba 	movl   $0x85ef59ba,-0x14d0(%rbp)
    9265:	59 ef 85 
    9268:	c7 85 34 eb ff ff ba 	movl   $0x85ef59ba,-0x14cc(%rbp)
    926f:	59 ef 85 
    9272:	48 8b 85 70 e9 ff ff 	mov    -0x1690(%rbp),%rax
    9279:	8b 00                	mov    (%rax),%eax
    927b:	85 c0                	test   %eax,%eax
    927d:	0f 85 c6 00 00 00    	jne    9349 <func_1+0x1b94>
    9283:	8b 85 58 ee ff ff    	mov    -0x11a8(%rbp),%eax
    9289:	0f bf d8             	movswl %ax,%ebx
    928c:	48 8b 85 70 e9 ff ff 	mov    -0x1690(%rbp),%rax
    9293:	8b 00                	mov    (%rax),%eax
    9295:	0d ad 53 af a6       	or     $0xa6af53ad,%eax
    929a:	89 c2                	mov    %eax,%edx
    929c:	48 8b 85 70 e9 ff ff 	mov    -0x1690(%rbp),%rax
    92a3:	89 10                	mov    %edx,(%rax)
    92a5:	80 ad 89 e8 ff ff 01 	subb   $0x1,-0x1777(%rbp)
    92ac:	48 8b 05 e5 d5 00 00 	mov    0xd5e5(%rip),%rax        # 16898 <g_814>
    92b3:	48 8b 10             	mov    (%rax),%rdx
    92b6:	48 8b 05 0b e2 00 00 	mov    0xe20b(%rip),%rax        # 174c8 <g_1632>
    92bd:	48 8b 00             	mov    (%rax),%rax
    92c0:	48 8b 00             	mov    (%rax),%rax
    92c3:	48 8b 12             	mov    (%rdx),%rdx
    92c6:	48 89 10             	mov    %rdx,(%rax)
    92c9:	0f b6 05 3c e7 00 00 	movzbl 0xe73c(%rip),%eax        # 17a0c <g_116>
    92d0:	66 0f be d0          	movsbw %al,%dx
    92d4:	0f b7 05 33 e7 00 00 	movzwl 0xe733(%rip),%eax        # 17a0e <g_146>
    92db:	66 39 c2             	cmp    %ax,%dx
    92de:	0f 9f c0             	setg   %al
    92e1:	0f b6 d0             	movzbl %al,%edx
    92e4:	48 8b 85 d8 e9 ff ff 	mov    -0x1628(%rbp),%rax
    92eb:	8b 00                	mov    (%rax),%eax
    92ed:	09 c2                	or     %eax,%edx
    92ef:	48 8b 85 d8 e9 ff ff 	mov    -0x1628(%rbp),%rax
    92f6:	89 10                	mov    %edx,(%rax)
    92f8:	48 8b 85 d8 e9 ff ff 	mov    -0x1628(%rbp),%rax
    92ff:	8b 00                	mov    (%rax),%eax
    9301:	35 ac db f7 c9       	xor    $0xc9f7dbac,%eax
    9306:	89 c7                	mov    %eax,%edi
    9308:	e8 99 db ff ff       	callq  6ea6 <safe_unary_minus_func_uint32_t_u>
    930d:	48 8b 05 ac d3 00 00 	mov    0xd3ac(%rip),%rax        # 166c0 <g_81>
    9314:	8b 00                	mov    (%rax),%eax
    9316:	85 c0                	test   %eax,%eax
    9318:	0f b6 05 2f 90 00 00 	movzbl 0x902f(%rip),%eax        # 1234e <l_1815.4207+0x8e>
    931f:	84 c0                	test   %al,%al
    9321:	0f 9f c0             	setg   %al
    9324:	0f b6 c0             	movzbl %al,%eax
    9327:	89 c7                	mov    %eax,%edi
    9329:	e8 17 d8 ff ff       	callq  6b45 <safe_unary_minus_func_uint8_t_u>
    932e:	0f b6 c0             	movzbl %al,%eax
    9331:	89 de                	mov    %ebx,%esi
    9333:	89 c7                	mov    %eax,%edi
    9335:	e8 dc d0 ff ff       	callq  6416 <safe_mod_func_int16_t_s_s>
    933a:	be 05 00 00 00       	mov    $0x5,%esi
    933f:	bf ff 00 00 00       	mov    $0xff,%edi
    9344:	e8 75 d9 ff ff       	callq  6cbe <safe_rshift_func_uint8_t_u_u>
    9349:	ba 01 00 00 00       	mov    $0x1,%edx
    934e:	48 8b 85 78 e9 ff ff 	mov    -0x1688(%rbp),%rax
    9355:	8b 00                	mov    (%rax),%eax
    9357:	21 c2                	and    %eax,%edx
    9359:	48 8b 85 78 e9 ff ff 	mov    -0x1688(%rbp),%rax
    9360:	89 10                	mov    %edx,(%rax)
    9362:	80 bd 89 e8 ff ff 00 	cmpb   $0x0,-0x1777(%rbp)
    9369:	0f 85 6a 11 00 00    	jne    a4d9 <func_1+0x2d24>
    936f:	c7 85 c8 e8 ff ff 00 	movl   $0x0,-0x1738(%rbp)
    9376:	00 00 00 
    9379:	e9 13 11 00 00       	jmpq   a491 <func_1+0x2cdc>
    937e:	48 b8 93 8e 2e 9c 7c 	movabs $0xafabfe7c9c2e8e93,%rax
    9385:	fe ab af 
    9388:	48 89 85 e0 e9 ff ff 	mov    %rax,-0x1620(%rbp)
    938f:	48 8d 05 6e c7 00 00 	lea    0xc76e(%rip),%rax        # 15b04 <g_1400>
    9396:	48 89 85 e8 e9 ff ff 	mov    %rax,-0x1618(%rbp)
    939d:	48 8d 85 90 e8 ff ff 	lea    -0x1770(%rbp),%rax
    93a4:	48 89 85 f0 e9 ff ff 	mov    %rax,-0x1610(%rbp)
    93ab:	48 8d 85 a0 e8 ff ff 	lea    -0x1760(%rbp),%rax
    93b2:	48 89 85 e0 f7 ff ff 	mov    %rax,-0x820(%rbp)
    93b9:	48 8d 85 50 ee ff ff 	lea    -0x11b0(%rbp),%rax
    93c0:	48 05 b8 00 00 00    	add    $0xb8,%rax
    93c6:	48 89 85 e8 f7 ff ff 	mov    %rax,-0x818(%rbp)
    93cd:	48 c7 85 f0 f7 ff ff 	movq   $0x0,-0x810(%rbp)
    93d4:	00 00 00 00 
    93d8:	48 8d 85 50 ee ff ff 	lea    -0x11b0(%rbp),%rax
    93df:	48 05 b8 00 00 00    	add    $0xb8,%rax
    93e5:	48 89 85 f8 f7 ff ff 	mov    %rax,-0x808(%rbp)
    93ec:	48 8d 85 50 ee ff ff 	lea    -0x11b0(%rbp),%rax
    93f3:	48 05 b8 00 00 00    	add    $0xb8,%rax
    93f9:	48 89 85 00 f8 ff ff 	mov    %rax,-0x800(%rbp)
    9400:	48 c7 85 08 f8 ff ff 	movq   $0x0,-0x7f8(%rbp)
    9407:	00 00 00 00 
    940b:	48 c7 85 10 f8 ff ff 	movq   $0x0,-0x7f0(%rbp)
    9412:	00 00 00 00 
    9416:	48 c7 85 18 f8 ff ff 	movq   $0x0,-0x7e8(%rbp)
    941d:	00 00 00 00 
    9421:	48 8d 85 a0 e8 ff ff 	lea    -0x1760(%rbp),%rax
    9428:	48 89 85 20 f8 ff ff 	mov    %rax,-0x7e0(%rbp)
    942f:	48 8d 85 a0 e8 ff ff 	lea    -0x1760(%rbp),%rax
    9436:	48 89 85 28 f8 ff ff 	mov    %rax,-0x7d8(%rbp)
    943d:	48 8d 85 50 ee ff ff 	lea    -0x11b0(%rbp),%rax
    9444:	48 05 b8 00 00 00    	add    $0xb8,%rax
    944a:	48 89 85 30 f8 ff ff 	mov    %rax,-0x7d0(%rbp)
    9451:	48 c7 85 38 f8 ff ff 	movq   $0x0,-0x7c8(%rbp)
    9458:	00 00 00 00 
    945c:	48 8d 05 a5 bf 00 00 	lea    0xbfa5(%rip),%rax        # 15408 <g_5>
    9463:	48 89 85 40 f8 ff ff 	mov    %rax,-0x7c0(%rbp)
    946a:	48 c7 85 48 f8 ff ff 	movq   $0x0,-0x7b8(%rbp)
    9471:	00 00 00 00 
    9475:	48 8d 05 8c bf 00 00 	lea    0xbf8c(%rip),%rax        # 15408 <g_5>
    947c:	48 89 85 50 f8 ff ff 	mov    %rax,-0x7b0(%rbp)
    9483:	48 8d 85 50 ee ff ff 	lea    -0x11b0(%rbp),%rax
    948a:	48 05 b8 00 00 00    	add    $0xb8,%rax
    9490:	48 89 85 58 f8 ff ff 	mov    %rax,-0x7a8(%rbp)
    9497:	48 8d 05 6a bf 00 00 	lea    0xbf6a(%rip),%rax        # 15408 <g_5>
    949e:	48 89 85 60 f8 ff ff 	mov    %rax,-0x7a0(%rbp)
    94a5:	48 8d 85 50 ee ff ff 	lea    -0x11b0(%rbp),%rax
    94ac:	48 05 b8 00 00 00    	add    $0xb8,%rax
    94b2:	48 89 85 68 f8 ff ff 	mov    %rax,-0x798(%rbp)
    94b9:	48 8d 85 50 ee ff ff 	lea    -0x11b0(%rbp),%rax
    94c0:	48 05 b8 00 00 00    	add    $0xb8,%rax
    94c6:	48 89 85 70 f8 ff ff 	mov    %rax,-0x790(%rbp)
    94cd:	48 8d 05 34 bf 00 00 	lea    0xbf34(%rip),%rax        # 15408 <g_5>
    94d4:	48 89 85 78 f8 ff ff 	mov    %rax,-0x788(%rbp)
    94db:	48 8d 85 a0 e8 ff ff 	lea    -0x1760(%rbp),%rax
    94e2:	48 89 85 80 f8 ff ff 	mov    %rax,-0x780(%rbp)
    94e9:	48 8d 85 50 ee ff ff 	lea    -0x11b0(%rbp),%rax
    94f0:	48 05 b8 00 00 00    	add    $0xb8,%rax
    94f6:	48 89 85 88 f8 ff ff 	mov    %rax,-0x778(%rbp)
    94fd:	48 c7 85 90 f8 ff ff 	movq   $0x0,-0x770(%rbp)
    9504:	00 00 00 00 
    9508:	48 8d 85 50 ee ff ff 	lea    -0x11b0(%rbp),%rax
    950f:	48 05 b8 00 00 00    	add    $0xb8,%rax
    9515:	48 89 85 98 f8 ff ff 	mov    %rax,-0x768(%rbp)
    951c:	48 8d 85 50 ee ff ff 	lea    -0x11b0(%rbp),%rax
    9523:	48 05 b8 00 00 00    	add    $0xb8,%rax
    9529:	48 89 85 a0 f8 ff ff 	mov    %rax,-0x760(%rbp)
    9530:	48 c7 85 a8 f8 ff ff 	movq   $0x0,-0x758(%rbp)
    9537:	00 00 00 00 
    953b:	48 c7 85 b0 f8 ff ff 	movq   $0x0,-0x750(%rbp)
    9542:	00 00 00 00 
    9546:	48 c7 85 b8 f8 ff ff 	movq   $0x0,-0x748(%rbp)
    954d:	00 00 00 00 
    9551:	48 8d 85 a0 e8 ff ff 	lea    -0x1760(%rbp),%rax
    9558:	48 89 85 c0 f8 ff ff 	mov    %rax,-0x740(%rbp)
    955f:	48 8d 85 a0 e8 ff ff 	lea    -0x1760(%rbp),%rax
    9566:	48 89 85 c8 f8 ff ff 	mov    %rax,-0x738(%rbp)
    956d:	48 8d 85 50 ee ff ff 	lea    -0x11b0(%rbp),%rax
    9574:	48 05 b8 00 00 00    	add    $0xb8,%rax
    957a:	48 89 85 d0 f8 ff ff 	mov    %rax,-0x730(%rbp)
    9581:	48 c7 85 d8 f8 ff ff 	movq   $0x0,-0x728(%rbp)
    9588:	00 00 00 00 
    958c:	48 8d 05 75 be 00 00 	lea    0xbe75(%rip),%rax        # 15408 <g_5>
    9593:	48 89 85 e0 f8 ff ff 	mov    %rax,-0x720(%rbp)
    959a:	48 c7 85 e8 f8 ff ff 	movq   $0x0,-0x718(%rbp)
    95a1:	00 00 00 00 
    95a5:	48 8d 05 5c be 00 00 	lea    0xbe5c(%rip),%rax        # 15408 <g_5>
    95ac:	48 89 85 f0 f8 ff ff 	mov    %rax,-0x710(%rbp)
    95b3:	48 8d 85 50 ee ff ff 	lea    -0x11b0(%rbp),%rax
    95ba:	48 05 b8 00 00 00    	add    $0xb8,%rax
    95c0:	48 89 85 f8 f8 ff ff 	mov    %rax,-0x708(%rbp)
    95c7:	48 8d 05 3a be 00 00 	lea    0xbe3a(%rip),%rax        # 15408 <g_5>
    95ce:	48 89 85 00 f9 ff ff 	mov    %rax,-0x700(%rbp)
    95d5:	48 8d 85 50 ee ff ff 	lea    -0x11b0(%rbp),%rax
    95dc:	48 05 b8 00 00 00    	add    $0xb8,%rax
    95e2:	48 89 85 08 f9 ff ff 	mov    %rax,-0x6f8(%rbp)
    95e9:	48 8d 85 50 ee ff ff 	lea    -0x11b0(%rbp),%rax
    95f0:	48 05 b8 00 00 00    	add    $0xb8,%rax
    95f6:	48 89 85 10 f9 ff ff 	mov    %rax,-0x6f0(%rbp)
    95fd:	48 8d 05 04 be 00 00 	lea    0xbe04(%rip),%rax        # 15408 <g_5>
    9604:	48 89 85 18 f9 ff ff 	mov    %rax,-0x6e8(%rbp)
    960b:	48 8d 85 a0 e8 ff ff 	lea    -0x1760(%rbp),%rax
    9612:	48 89 85 20 f9 ff ff 	mov    %rax,-0x6e0(%rbp)
    9619:	48 8d 85 50 ee ff ff 	lea    -0x11b0(%rbp),%rax
    9620:	48 05 b8 00 00 00    	add    $0xb8,%rax
    9626:	48 89 85 28 f9 ff ff 	mov    %rax,-0x6d8(%rbp)
    962d:	48 c7 85 30 f9 ff ff 	movq   $0x0,-0x6d0(%rbp)
    9634:	00 00 00 00 
    9638:	48 8d 85 50 ee ff ff 	lea    -0x11b0(%rbp),%rax
    963f:	48 05 b8 00 00 00    	add    $0xb8,%rax
    9645:	48 89 85 38 f9 ff ff 	mov    %rax,-0x6c8(%rbp)
    964c:	48 8d 85 50 ee ff ff 	lea    -0x11b0(%rbp),%rax
    9653:	48 05 b8 00 00 00    	add    $0xb8,%rax
    9659:	48 89 85 40 f9 ff ff 	mov    %rax,-0x6c0(%rbp)
    9660:	48 c7 85 48 f9 ff ff 	movq   $0x0,-0x6b8(%rbp)
    9667:	00 00 00 00 
    966b:	48 c7 85 50 f9 ff ff 	movq   $0x0,-0x6b0(%rbp)
    9672:	00 00 00 00 
    9676:	48 c7 85 58 f9 ff ff 	movq   $0x0,-0x6a8(%rbp)
    967d:	00 00 00 00 
    9681:	48 8d 85 a0 e8 ff ff 	lea    -0x1760(%rbp),%rax
    9688:	48 89 85 60 f9 ff ff 	mov    %rax,-0x6a0(%rbp)
    968f:	48 8d 85 a0 e8 ff ff 	lea    -0x1760(%rbp),%rax
    9696:	48 89 85 68 f9 ff ff 	mov    %rax,-0x698(%rbp)
    969d:	48 8d 85 50 ee ff ff 	lea    -0x11b0(%rbp),%rax
    96a4:	48 05 b8 00 00 00    	add    $0xb8,%rax
    96aa:	48 89 85 70 f9 ff ff 	mov    %rax,-0x690(%rbp)
    96b1:	48 c7 85 78 f9 ff ff 	movq   $0x0,-0x688(%rbp)
    96b8:	00 00 00 00 
    96bc:	48 8d 05 45 bd 00 00 	lea    0xbd45(%rip),%rax        # 15408 <g_5>
    96c3:	48 89 85 80 f9 ff ff 	mov    %rax,-0x680(%rbp)
    96ca:	48 c7 85 88 f9 ff ff 	movq   $0x0,-0x678(%rbp)
    96d1:	00 00 00 00 
    96d5:	48 8d 05 2c bd 00 00 	lea    0xbd2c(%rip),%rax        # 15408 <g_5>
    96dc:	48 89 85 90 f9 ff ff 	mov    %rax,-0x670(%rbp)
    96e3:	48 8d 85 50 ee ff ff 	lea    -0x11b0(%rbp),%rax
    96ea:	48 05 b8 00 00 00    	add    $0xb8,%rax
    96f0:	48 89 85 98 f9 ff ff 	mov    %rax,-0x668(%rbp)
    96f7:	48 8d 05 0a bd 00 00 	lea    0xbd0a(%rip),%rax        # 15408 <g_5>
    96fe:	48 89 85 a0 f9 ff ff 	mov    %rax,-0x660(%rbp)
    9705:	48 8d 85 50 ee ff ff 	lea    -0x11b0(%rbp),%rax
    970c:	48 05 b8 00 00 00    	add    $0xb8,%rax
    9712:	48 89 85 a8 f9 ff ff 	mov    %rax,-0x658(%rbp)
    9719:	48 8d 85 50 ee ff ff 	lea    -0x11b0(%rbp),%rax
    9720:	48 05 b8 00 00 00    	add    $0xb8,%rax
    9726:	48 89 85 b0 f9 ff ff 	mov    %rax,-0x650(%rbp)
    972d:	48 8d 05 d4 bc 00 00 	lea    0xbcd4(%rip),%rax        # 15408 <g_5>
    9734:	48 89 85 b8 f9 ff ff 	mov    %rax,-0x648(%rbp)
    973b:	48 8d 85 a0 e8 ff ff 	lea    -0x1760(%rbp),%rax
    9742:	48 89 85 c0 f9 ff ff 	mov    %rax,-0x640(%rbp)
    9749:	48 8d 85 50 ee ff ff 	lea    -0x11b0(%rbp),%rax
    9750:	48 05 b8 00 00 00    	add    $0xb8,%rax
    9756:	48 89 85 c8 f9 ff ff 	mov    %rax,-0x638(%rbp)
    975d:	48 c7 85 d0 f9 ff ff 	movq   $0x0,-0x630(%rbp)
    9764:	00 00 00 00 
    9768:	48 8d 85 50 ee ff ff 	lea    -0x11b0(%rbp),%rax
    976f:	48 05 b8 00 00 00    	add    $0xb8,%rax
    9775:	48 89 85 d8 f9 ff ff 	mov    %rax,-0x628(%rbp)
    977c:	48 8d 85 50 ee ff ff 	lea    -0x11b0(%rbp),%rax
    9783:	48 05 b8 00 00 00    	add    $0xb8,%rax
    9789:	48 89 85 e0 f9 ff ff 	mov    %rax,-0x620(%rbp)
    9790:	48 c7 85 e8 f9 ff ff 	movq   $0x0,-0x618(%rbp)
    9797:	00 00 00 00 
    979b:	48 c7 85 f0 f9 ff ff 	movq   $0x0,-0x610(%rbp)
    97a2:	00 00 00 00 
    97a6:	48 c7 85 f8 f9 ff ff 	movq   $0x0,-0x608(%rbp)
    97ad:	00 00 00 00 
    97b1:	48 8d 85 a0 e8 ff ff 	lea    -0x1760(%rbp),%rax
    97b8:	48 89 85 00 fa ff ff 	mov    %rax,-0x600(%rbp)
    97bf:	48 8d 85 a0 e8 ff ff 	lea    -0x1760(%rbp),%rax
    97c6:	48 89 85 08 fa ff ff 	mov    %rax,-0x5f8(%rbp)
    97cd:	48 8d 85 50 ee ff ff 	lea    -0x11b0(%rbp),%rax
    97d4:	48 05 b8 00 00 00    	add    $0xb8,%rax
    97da:	48 89 85 10 fa ff ff 	mov    %rax,-0x5f0(%rbp)
    97e1:	48 c7 85 18 fa ff ff 	movq   $0x0,-0x5e8(%rbp)
    97e8:	00 00 00 00 
    97ec:	48 8d 05 15 bc 00 00 	lea    0xbc15(%rip),%rax        # 15408 <g_5>
    97f3:	48 89 85 20 fa ff ff 	mov    %rax,-0x5e0(%rbp)
    97fa:	48 c7 85 28 fa ff ff 	movq   $0x0,-0x5d8(%rbp)
    9801:	00 00 00 00 
    9805:	48 8d 05 fc bb 00 00 	lea    0xbbfc(%rip),%rax        # 15408 <g_5>
    980c:	48 89 85 30 fa ff ff 	mov    %rax,-0x5d0(%rbp)
    9813:	48 8d 85 50 ee ff ff 	lea    -0x11b0(%rbp),%rax
    981a:	48 05 b8 00 00 00    	add    $0xb8,%rax
    9820:	48 89 85 38 fa ff ff 	mov    %rax,-0x5c8(%rbp)
    9827:	48 8d 05 da bb 00 00 	lea    0xbbda(%rip),%rax        # 15408 <g_5>
    982e:	48 89 85 40 fa ff ff 	mov    %rax,-0x5c0(%rbp)
    9835:	48 8d 85 50 ee ff ff 	lea    -0x11b0(%rbp),%rax
    983c:	48 05 b8 00 00 00    	add    $0xb8,%rax
    9842:	48 89 85 48 fa ff ff 	mov    %rax,-0x5b8(%rbp)
    9849:	48 8d 85 50 ee ff ff 	lea    -0x11b0(%rbp),%rax
    9850:	48 05 b8 00 00 00    	add    $0xb8,%rax
    9856:	48 89 85 50 fa ff ff 	mov    %rax,-0x5b0(%rbp)
    985d:	48 8d 05 a4 bb 00 00 	lea    0xbba4(%rip),%rax        # 15408 <g_5>
    9864:	48 89 85 58 fa ff ff 	mov    %rax,-0x5a8(%rbp)
    986b:	48 8d 85 a0 e8 ff ff 	lea    -0x1760(%rbp),%rax
    9872:	48 89 85 60 fa ff ff 	mov    %rax,-0x5a0(%rbp)
    9879:	48 8d 85 50 ee ff ff 	lea    -0x11b0(%rbp),%rax
    9880:	48 05 b8 00 00 00    	add    $0xb8,%rax
    9886:	48 89 85 68 fa ff ff 	mov    %rax,-0x598(%rbp)
    988d:	48 c7 85 70 fa ff ff 	movq   $0x0,-0x590(%rbp)
    9894:	00 00 00 00 
    9898:	48 8d 85 50 ee ff ff 	lea    -0x11b0(%rbp),%rax
    989f:	48 05 b8 00 00 00    	add    $0xb8,%rax
    98a5:	48 89 85 78 fa ff ff 	mov    %rax,-0x588(%rbp)
    98ac:	48 8d 85 50 ee ff ff 	lea    -0x11b0(%rbp),%rax
    98b3:	48 05 b8 00 00 00    	add    $0xb8,%rax
    98b9:	48 89 85 80 fa ff ff 	mov    %rax,-0x580(%rbp)
    98c0:	48 c7 85 88 fa ff ff 	movq   $0x0,-0x578(%rbp)
    98c7:	00 00 00 00 
    98cb:	48 c7 85 90 fa ff ff 	movq   $0x0,-0x570(%rbp)
    98d2:	00 00 00 00 
    98d6:	48 c7 85 98 fa ff ff 	movq   $0x0,-0x568(%rbp)
    98dd:	00 00 00 00 
    98e1:	48 8d 85 a0 e8 ff ff 	lea    -0x1760(%rbp),%rax
    98e8:	48 89 85 a0 fa ff ff 	mov    %rax,-0x560(%rbp)
    98ef:	48 8d 85 a0 e8 ff ff 	lea    -0x1760(%rbp),%rax
    98f6:	48 89 85 a8 fa ff ff 	mov    %rax,-0x558(%rbp)
    98fd:	48 8d 85 50 ee ff ff 	lea    -0x11b0(%rbp),%rax
    9904:	48 05 b8 00 00 00    	add    $0xb8,%rax
    990a:	48 89 85 b0 fa ff ff 	mov    %rax,-0x550(%rbp)
    9911:	48 c7 85 b8 fa ff ff 	movq   $0x0,-0x548(%rbp)
    9918:	00 00 00 00 
    991c:	48 8d 05 e5 ba 00 00 	lea    0xbae5(%rip),%rax        # 15408 <g_5>
    9923:	48 89 85 c0 fa ff ff 	mov    %rax,-0x540(%rbp)
    992a:	48 c7 85 c8 fa ff ff 	movq   $0x0,-0x538(%rbp)
    9931:	00 00 00 00 
    9935:	48 8d 05 cc ba 00 00 	lea    0xbacc(%rip),%rax        # 15408 <g_5>
    993c:	48 89 85 d0 fa ff ff 	mov    %rax,-0x530(%rbp)
    9943:	48 8d 85 50 ee ff ff 	lea    -0x11b0(%rbp),%rax
    994a:	48 05 b8 00 00 00    	add    $0xb8,%rax
    9950:	48 89 85 d8 fa ff ff 	mov    %rax,-0x528(%rbp)
    9957:	48 8d 05 aa ba 00 00 	lea    0xbaaa(%rip),%rax        # 15408 <g_5>
    995e:	48 89 85 e0 fa ff ff 	mov    %rax,-0x520(%rbp)
    9965:	48 8d 85 50 ee ff ff 	lea    -0x11b0(%rbp),%rax
    996c:	48 05 b8 00 00 00    	add    $0xb8,%rax
    9972:	48 89 85 e8 fa ff ff 	mov    %rax,-0x518(%rbp)
    9979:	48 8d 85 50 ee ff ff 	lea    -0x11b0(%rbp),%rax
    9980:	48 05 b8 00 00 00    	add    $0xb8,%rax
    9986:	48 89 85 f0 fa ff ff 	mov    %rax,-0x510(%rbp)
    998d:	48 8d 05 74 ba 00 00 	lea    0xba74(%rip),%rax        # 15408 <g_5>
    9994:	48 89 85 f8 fa ff ff 	mov    %rax,-0x508(%rbp)
    999b:	48 8d 85 a0 e8 ff ff 	lea    -0x1760(%rbp),%rax
    99a2:	48 89 85 00 fb ff ff 	mov    %rax,-0x500(%rbp)
    99a9:	48 8d 85 50 ee ff ff 	lea    -0x11b0(%rbp),%rax
    99b0:	48 05 b8 00 00 00    	add    $0xb8,%rax
    99b6:	48 89 85 08 fb ff ff 	mov    %rax,-0x4f8(%rbp)
    99bd:	48 c7 85 10 fb ff ff 	movq   $0x0,-0x4f0(%rbp)
    99c4:	00 00 00 00 
    99c8:	48 8d 85 50 ee ff ff 	lea    -0x11b0(%rbp),%rax
    99cf:	48 05 b8 00 00 00    	add    $0xb8,%rax
    99d5:	48 89 85 18 fb ff ff 	mov    %rax,-0x4e8(%rbp)
    99dc:	48 8d 85 50 ee ff ff 	lea    -0x11b0(%rbp),%rax
    99e3:	48 05 b8 00 00 00    	add    $0xb8,%rax
    99e9:	48 89 85 20 fb ff ff 	mov    %rax,-0x4e0(%rbp)
    99f0:	48 c7 85 28 fb ff ff 	movq   $0x0,-0x4d8(%rbp)
    99f7:	00 00 00 00 
    99fb:	48 c7 85 30 fb ff ff 	movq   $0x0,-0x4d0(%rbp)
    9a02:	00 00 00 00 
    9a06:	48 c7 85 38 fb ff ff 	movq   $0x0,-0x4c8(%rbp)
    9a0d:	00 00 00 00 
    9a11:	48 8d 85 a0 e8 ff ff 	lea    -0x1760(%rbp),%rax
    9a18:	48 89 85 40 fb ff ff 	mov    %rax,-0x4c0(%rbp)
    9a1f:	48 8d 85 a0 e8 ff ff 	lea    -0x1760(%rbp),%rax
    9a26:	48 89 85 48 fb ff ff 	mov    %rax,-0x4b8(%rbp)
    9a2d:	48 8d 85 50 ee ff ff 	lea    -0x11b0(%rbp),%rax
    9a34:	48 05 b8 00 00 00    	add    $0xb8,%rax
    9a3a:	48 89 85 50 fb ff ff 	mov    %rax,-0x4b0(%rbp)
    9a41:	48 c7 85 58 fb ff ff 	movq   $0x0,-0x4a8(%rbp)
    9a48:	00 00 00 00 
    9a4c:	48 8d 05 b5 b9 00 00 	lea    0xb9b5(%rip),%rax        # 15408 <g_5>
    9a53:	48 89 85 60 fb ff ff 	mov    %rax,-0x4a0(%rbp)
    9a5a:	48 c7 85 68 fb ff ff 	movq   $0x0,-0x498(%rbp)
    9a61:	00 00 00 00 
    9a65:	48 8d 05 9c b9 00 00 	lea    0xb99c(%rip),%rax        # 15408 <g_5>
    9a6c:	48 89 85 70 fb ff ff 	mov    %rax,-0x490(%rbp)
    9a73:	48 8d 85 50 ee ff ff 	lea    -0x11b0(%rbp),%rax
    9a7a:	48 05 b8 00 00 00    	add    $0xb8,%rax
    9a80:	48 89 85 78 fb ff ff 	mov    %rax,-0x488(%rbp)
    9a87:	48 8d 05 7a b9 00 00 	lea    0xb97a(%rip),%rax        # 15408 <g_5>
    9a8e:	48 89 85 80 fb ff ff 	mov    %rax,-0x480(%rbp)
    9a95:	48 8d 85 50 ee ff ff 	lea    -0x11b0(%rbp),%rax
    9a9c:	48 05 b8 00 00 00    	add    $0xb8,%rax
    9aa2:	48 89 85 88 fb ff ff 	mov    %rax,-0x478(%rbp)
    9aa9:	48 8d 85 50 ee ff ff 	lea    -0x11b0(%rbp),%rax
    9ab0:	48 05 b8 00 00 00    	add    $0xb8,%rax
    9ab6:	48 89 85 90 fb ff ff 	mov    %rax,-0x470(%rbp)
    9abd:	48 8d 05 44 b9 00 00 	lea    0xb944(%rip),%rax        # 15408 <g_5>
    9ac4:	48 89 85 98 fb ff ff 	mov    %rax,-0x468(%rbp)
    9acb:	48 8d 85 a0 e8 ff ff 	lea    -0x1760(%rbp),%rax
    9ad2:	48 89 85 a0 fb ff ff 	mov    %rax,-0x460(%rbp)
    9ad9:	48 8d 85 50 ee ff ff 	lea    -0x11b0(%rbp),%rax
    9ae0:	48 05 b8 00 00 00    	add    $0xb8,%rax
    9ae6:	48 89 85 a8 fb ff ff 	mov    %rax,-0x458(%rbp)
    9aed:	48 c7 85 b0 fb ff ff 	movq   $0x0,-0x450(%rbp)
    9af4:	00 00 00 00 
    9af8:	48 8d 85 50 ee ff ff 	lea    -0x11b0(%rbp),%rax
    9aff:	48 05 b8 00 00 00    	add    $0xb8,%rax
    9b05:	48 89 85 b8 fb ff ff 	mov    %rax,-0x448(%rbp)
    9b0c:	48 8d 85 50 ee ff ff 	lea    -0x11b0(%rbp),%rax
    9b13:	48 05 b8 00 00 00    	add    $0xb8,%rax
    9b19:	48 89 85 c0 fb ff ff 	mov    %rax,-0x440(%rbp)
    9b20:	48 c7 85 c8 fb ff ff 	movq   $0x0,-0x438(%rbp)
    9b27:	00 00 00 00 
    9b2b:	48 c7 85 d0 fb ff ff 	movq   $0x0,-0x430(%rbp)
    9b32:	00 00 00 00 
    9b36:	48 c7 85 d8 fb ff ff 	movq   $0x0,-0x428(%rbp)
    9b3d:	00 00 00 00 
    9b41:	48 8d 85 a0 e8 ff ff 	lea    -0x1760(%rbp),%rax
    9b48:	48 89 85 e0 fb ff ff 	mov    %rax,-0x420(%rbp)
    9b4f:	48 8d 85 a0 e8 ff ff 	lea    -0x1760(%rbp),%rax
    9b56:	48 89 85 e8 fb ff ff 	mov    %rax,-0x418(%rbp)
    9b5d:	48 8d 85 50 ee ff ff 	lea    -0x11b0(%rbp),%rax
    9b64:	48 05 b8 00 00 00    	add    $0xb8,%rax
    9b6a:	48 89 85 f0 fb ff ff 	mov    %rax,-0x410(%rbp)
    9b71:	48 c7 85 f8 fb ff ff 	movq   $0x0,-0x408(%rbp)
    9b78:	00 00 00 00 
    9b7c:	48 8d 05 85 b8 00 00 	lea    0xb885(%rip),%rax        # 15408 <g_5>
    9b83:	48 89 85 00 fc ff ff 	mov    %rax,-0x400(%rbp)
    9b8a:	48 c7 85 08 fc ff ff 	movq   $0x0,-0x3f8(%rbp)
    9b91:	00 00 00 00 
    9b95:	48 8d 05 6c b8 00 00 	lea    0xb86c(%rip),%rax        # 15408 <g_5>
    9b9c:	48 89 85 10 fc ff ff 	mov    %rax,-0x3f0(%rbp)
    9ba3:	48 8d 85 50 ee ff ff 	lea    -0x11b0(%rbp),%rax
    9baa:	48 05 b8 00 00 00    	add    $0xb8,%rax
    9bb0:	48 89 85 18 fc ff ff 	mov    %rax,-0x3e8(%rbp)
    9bb7:	48 8d 05 4a b8 00 00 	lea    0xb84a(%rip),%rax        # 15408 <g_5>
    9bbe:	48 89 85 20 fc ff ff 	mov    %rax,-0x3e0(%rbp)
    9bc5:	48 8d 85 50 ee ff ff 	lea    -0x11b0(%rbp),%rax
    9bcc:	48 05 b8 00 00 00    	add    $0xb8,%rax
    9bd2:	48 89 85 28 fc ff ff 	mov    %rax,-0x3d8(%rbp)
    9bd9:	48 8d 85 50 ee ff ff 	lea    -0x11b0(%rbp),%rax
    9be0:	48 05 b8 00 00 00    	add    $0xb8,%rax
    9be6:	48 89 85 30 fc ff ff 	mov    %rax,-0x3d0(%rbp)
    9bed:	48 8d 05 14 b8 00 00 	lea    0xb814(%rip),%rax        # 15408 <g_5>
    9bf4:	48 89 85 38 fc ff ff 	mov    %rax,-0x3c8(%rbp)
    9bfb:	48 8d 85 50 ee ff ff 	lea    -0x11b0(%rbp),%rax
    9c02:	48 05 b8 00 00 00    	add    $0xb8,%rax
    9c08:	48 89 85 40 fc ff ff 	mov    %rax,-0x3c0(%rbp)
    9c0f:	48 8d 05 f2 b7 00 00 	lea    0xb7f2(%rip),%rax        # 15408 <g_5>
    9c16:	48 89 85 48 fc ff ff 	mov    %rax,-0x3b8(%rbp)
    9c1d:	48 c7 85 50 fc ff ff 	movq   $0x0,-0x3b0(%rbp)
    9c24:	00 00 00 00 
    9c28:	48 8d 05 d9 b7 00 00 	lea    0xb7d9(%rip),%rax        # 15408 <g_5>
    9c2f:	48 89 85 58 fc ff ff 	mov    %rax,-0x3a8(%rbp)
    9c36:	48 8d 05 cb b7 00 00 	lea    0xb7cb(%rip),%rax        # 15408 <g_5>
    9c3d:	48 89 85 60 fc ff ff 	mov    %rax,-0x3a0(%rbp)
    9c44:	48 8d 85 a0 e8 ff ff 	lea    -0x1760(%rbp),%rax
    9c4b:	48 89 85 68 fc ff ff 	mov    %rax,-0x398(%rbp)
    9c52:	48 c7 85 70 fc ff ff 	movq   $0x0,-0x390(%rbp)
    9c59:	00 00 00 00 
    9c5d:	48 c7 85 78 fc ff ff 	movq   $0x0,-0x388(%rbp)
    9c64:	00 00 00 00 
    9c68:	48 8d 85 50 ee ff ff 	lea    -0x11b0(%rbp),%rax
    9c6f:	48 05 b8 00 00 00    	add    $0xb8,%rax
    9c75:	48 89 85 80 fc ff ff 	mov    %rax,-0x380(%rbp)
    9c7c:	48 8d 85 50 ee ff ff 	lea    -0x11b0(%rbp),%rax
    9c83:	48 05 b8 00 00 00    	add    $0xb8,%rax
    9c89:	48 89 85 88 fc ff ff 	mov    %rax,-0x378(%rbp)
    9c90:	48 8d 05 71 b7 00 00 	lea    0xb771(%rip),%rax        # 15408 <g_5>
    9c97:	48 89 85 90 fc ff ff 	mov    %rax,-0x370(%rbp)
    9c9e:	48 c7 85 98 fc ff ff 	movq   $0x0,-0x368(%rbp)
    9ca5:	00 00 00 00 
    9ca9:	48 c7 85 a0 fc ff ff 	movq   $0x0,-0x360(%rbp)
    9cb0:	00 00 00 00 
    9cb4:	48 8d 85 a0 e8 ff ff 	lea    -0x1760(%rbp),%rax
    9cbb:	48 89 85 a8 fc ff ff 	mov    %rax,-0x358(%rbp)
    9cc2:	48 c7 85 b0 fc ff ff 	movq   $0x0,-0x350(%rbp)
    9cc9:	00 00 00 00 
    9ccd:	48 8d 05 34 b7 00 00 	lea    0xb734(%rip),%rax        # 15408 <g_5>
    9cd4:	48 89 85 b8 fc ff ff 	mov    %rax,-0x348(%rbp)
    9cdb:	48 c7 85 c0 fc ff ff 	movq   $0x0,-0x340(%rbp)
    9ce2:	00 00 00 00 
    9ce6:	48 8d 05 1b b7 00 00 	lea    0xb71b(%rip),%rax        # 15408 <g_5>
    9ced:	48 89 85 c8 fc ff ff 	mov    %rax,-0x338(%rbp)
    9cf4:	48 8d 05 0d b7 00 00 	lea    0xb70d(%rip),%rax        # 15408 <g_5>
    9cfb:	48 89 85 d0 fc ff ff 	mov    %rax,-0x330(%rbp)
    9d02:	48 c7 85 d8 fc ff ff 	movq   $0x0,-0x328(%rbp)
    9d09:	00 00 00 00 
    9d0d:	48 8d 85 50 ee ff ff 	lea    -0x11b0(%rbp),%rax
    9d14:	48 05 b8 00 00 00    	add    $0xb8,%rax
    9d1a:	48 89 85 e0 fc ff ff 	mov    %rax,-0x320(%rbp)
    9d21:	48 8d 05 e0 b6 00 00 	lea    0xb6e0(%rip),%rax        # 15408 <g_5>
    9d28:	48 89 85 e8 fc ff ff 	mov    %rax,-0x318(%rbp)
    9d2f:	48 c7 85 f0 fc ff ff 	movq   $0x0,-0x310(%rbp)
    9d36:	00 00 00 00 
    9d3a:	48 8d 05 c7 b6 00 00 	lea    0xb6c7(%rip),%rax        # 15408 <g_5>
    9d41:	48 89 85 f8 fc ff ff 	mov    %rax,-0x308(%rbp)
    9d48:	48 8d 05 b9 b6 00 00 	lea    0xb6b9(%rip),%rax        # 15408 <g_5>
    9d4f:	48 89 85 00 fd ff ff 	mov    %rax,-0x300(%rbp)
    9d56:	48 8d 85 a0 e8 ff ff 	lea    -0x1760(%rbp),%rax
    9d5d:	48 89 85 08 fd ff ff 	mov    %rax,-0x2f8(%rbp)
    9d64:	48 c7 85 10 fd ff ff 	movq   $0x0,-0x2f0(%rbp)
    9d6b:	00 00 00 00 
    9d6f:	48 c7 85 18 fd ff ff 	movq   $0x0,-0x2e8(%rbp)
    9d76:	00 00 00 00 
    9d7a:	48 8d 85 50 ee ff ff 	lea    -0x11b0(%rbp),%rax
    9d81:	48 05 b8 00 00 00    	add    $0xb8,%rax
    9d87:	48 89 85 20 fd ff ff 	mov    %rax,-0x2e0(%rbp)
    9d8e:	48 8d 85 50 ee ff ff 	lea    -0x11b0(%rbp),%rax
    9d95:	48 05 b8 00 00 00    	add    $0xb8,%rax
    9d9b:	48 89 85 28 fd ff ff 	mov    %rax,-0x2d8(%rbp)
    9da2:	48 8d 05 5f b6 00 00 	lea    0xb65f(%rip),%rax        # 15408 <g_5>
    9da9:	48 89 85 30 fd ff ff 	mov    %rax,-0x2d0(%rbp)
    9db0:	48 c7 85 38 fd ff ff 	movq   $0x0,-0x2c8(%rbp)
    9db7:	00 00 00 00 
    9dbb:	48 c7 85 40 fd ff ff 	movq   $0x0,-0x2c0(%rbp)
    9dc2:	00 00 00 00 
    9dc6:	48 8d 85 a0 e8 ff ff 	lea    -0x1760(%rbp),%rax
    9dcd:	48 89 85 48 fd ff ff 	mov    %rax,-0x2b8(%rbp)
    9dd4:	48 c7 85 50 fd ff ff 	movq   $0x0,-0x2b0(%rbp)
    9ddb:	00 00 00 00 
    9ddf:	48 8d 05 22 b6 00 00 	lea    0xb622(%rip),%rax        # 15408 <g_5>
    9de6:	48 89 85 58 fd ff ff 	mov    %rax,-0x2a8(%rbp)
    9ded:	48 c7 85 60 fd ff ff 	movq   $0x0,-0x2a0(%rbp)
    9df4:	00 00 00 00 
    9df8:	48 8d 05 09 b6 00 00 	lea    0xb609(%rip),%rax        # 15408 <g_5>
    9dff:	48 89 85 68 fd ff ff 	mov    %rax,-0x298(%rbp)
    9e06:	48 8d 05 fb b5 00 00 	lea    0xb5fb(%rip),%rax        # 15408 <g_5>
    9e0d:	48 89 85 70 fd ff ff 	mov    %rax,-0x290(%rbp)
    9e14:	48 c7 85 78 fd ff ff 	movq   $0x0,-0x288(%rbp)
    9e1b:	00 00 00 00 
    9e1f:	48 8d 85 50 ee ff ff 	lea    -0x11b0(%rbp),%rax
    9e26:	48 05 b8 00 00 00    	add    $0xb8,%rax
    9e2c:	48 89 85 80 fd ff ff 	mov    %rax,-0x280(%rbp)
    9e33:	48 8d 05 ce b5 00 00 	lea    0xb5ce(%rip),%rax        # 15408 <g_5>
    9e3a:	48 89 85 88 fd ff ff 	mov    %rax,-0x278(%rbp)
    9e41:	48 c7 85 90 fd ff ff 	movq   $0x0,-0x270(%rbp)
    9e48:	00 00 00 00 
    9e4c:	48 8d 05 b5 b5 00 00 	lea    0xb5b5(%rip),%rax        # 15408 <g_5>
    9e53:	48 89 85 98 fd ff ff 	mov    %rax,-0x268(%rbp)
    9e5a:	48 8d 05 a7 b5 00 00 	lea    0xb5a7(%rip),%rax        # 15408 <g_5>
    9e61:	48 89 85 a0 fd ff ff 	mov    %rax,-0x260(%rbp)
    9e68:	48 8d 85 a0 e8 ff ff 	lea    -0x1760(%rbp),%rax
    9e6f:	48 89 85 a8 fd ff ff 	mov    %rax,-0x258(%rbp)
    9e76:	48 c7 85 b0 fd ff ff 	movq   $0x0,-0x250(%rbp)
    9e7d:	00 00 00 00 
    9e81:	48 c7 85 b8 fd ff ff 	movq   $0x0,-0x248(%rbp)
    9e88:	00 00 00 00 
    9e8c:	48 8d 85 50 ee ff ff 	lea    -0x11b0(%rbp),%rax
    9e93:	48 05 b8 00 00 00    	add    $0xb8,%rax
    9e99:	48 89 85 c0 fd ff ff 	mov    %rax,-0x240(%rbp)
    9ea0:	48 8d 85 50 ee ff ff 	lea    -0x11b0(%rbp),%rax
    9ea7:	48 05 b8 00 00 00    	add    $0xb8,%rax
    9ead:	48 89 85 c8 fd ff ff 	mov    %rax,-0x238(%rbp)
    9eb4:	48 8d 05 4d b5 00 00 	lea    0xb54d(%rip),%rax        # 15408 <g_5>
    9ebb:	48 89 85 d0 fd ff ff 	mov    %rax,-0x230(%rbp)
    9ec2:	48 c7 85 d8 fd ff ff 	movq   $0x0,-0x228(%rbp)
    9ec9:	00 00 00 00 
    9ecd:	48 c7 85 e0 fd ff ff 	movq   $0x0,-0x220(%rbp)
    9ed4:	00 00 00 00 
    9ed8:	48 8d 85 a0 e8 ff ff 	lea    -0x1760(%rbp),%rax
    9edf:	48 89 85 e8 fd ff ff 	mov    %rax,-0x218(%rbp)
    9ee6:	48 c7 85 f0 fd ff ff 	movq   $0x0,-0x210(%rbp)
    9eed:	00 00 00 00 
    9ef1:	48 8d 05 10 b5 00 00 	lea    0xb510(%rip),%rax        # 15408 <g_5>
    9ef8:	48 89 85 f8 fd ff ff 	mov    %rax,-0x208(%rbp)
    9eff:	48 c7 85 00 fe ff ff 	movq   $0x0,-0x200(%rbp)
    9f06:	00 00 00 00 
    9f0a:	48 8d 05 f7 b4 00 00 	lea    0xb4f7(%rip),%rax        # 15408 <g_5>
    9f11:	48 89 85 08 fe ff ff 	mov    %rax,-0x1f8(%rbp)
    9f18:	48 8d 05 e9 b4 00 00 	lea    0xb4e9(%rip),%rax        # 15408 <g_5>
    9f1f:	48 89 85 10 fe ff ff 	mov    %rax,-0x1f0(%rbp)
    9f26:	48 c7 85 18 fe ff ff 	movq   $0x0,-0x1e8(%rbp)
    9f2d:	00 00 00 00 
    9f31:	48 8d 85 50 ee ff ff 	lea    -0x11b0(%rbp),%rax
    9f38:	48 05 b8 00 00 00    	add    $0xb8,%rax
    9f3e:	48 89 85 20 fe ff ff 	mov    %rax,-0x1e0(%rbp)
    9f45:	48 8d 05 bc b4 00 00 	lea    0xb4bc(%rip),%rax        # 15408 <g_5>
    9f4c:	48 89 85 28 fe ff ff 	mov    %rax,-0x1d8(%rbp)
    9f53:	48 c7 85 30 fe ff ff 	movq   $0x0,-0x1d0(%rbp)
    9f5a:	00 00 00 00 
    9f5e:	48 8d 05 a3 b4 00 00 	lea    0xb4a3(%rip),%rax        # 15408 <g_5>
    9f65:	48 89 85 38 fe ff ff 	mov    %rax,-0x1c8(%rbp)
    9f6c:	48 8d 05 95 b4 00 00 	lea    0xb495(%rip),%rax        # 15408 <g_5>
    9f73:	48 89 85 40 fe ff ff 	mov    %rax,-0x1c0(%rbp)
    9f7a:	48 8d 85 a0 e8 ff ff 	lea    -0x1760(%rbp),%rax
    9f81:	48 89 85 48 fe ff ff 	mov    %rax,-0x1b8(%rbp)
    9f88:	48 c7 85 50 fe ff ff 	movq   $0x0,-0x1b0(%rbp)
    9f8f:	00 00 00 00 
    9f93:	48 c7 85 58 fe ff ff 	movq   $0x0,-0x1a8(%rbp)
    9f9a:	00 00 00 00 
    9f9e:	48 8d 85 50 ee ff ff 	lea    -0x11b0(%rbp),%rax
    9fa5:	48 05 b8 00 00 00    	add    $0xb8,%rax
    9fab:	48 89 85 60 fe ff ff 	mov    %rax,-0x1a0(%rbp)
    9fb2:	48 8d 85 50 ee ff ff 	lea    -0x11b0(%rbp),%rax
    9fb9:	48 05 b8 00 00 00    	add    $0xb8,%rax
    9fbf:	48 89 85 68 fe ff ff 	mov    %rax,-0x198(%rbp)
    9fc6:	48 8d 05 3b b4 00 00 	lea    0xb43b(%rip),%rax        # 15408 <g_5>
    9fcd:	48 89 85 70 fe ff ff 	mov    %rax,-0x190(%rbp)
    9fd4:	48 c7 85 78 fe ff ff 	movq   $0x0,-0x188(%rbp)
    9fdb:	00 00 00 00 
    9fdf:	48 c7 85 80 fe ff ff 	movq   $0x0,-0x180(%rbp)
    9fe6:	00 00 00 00 
    9fea:	48 8d 85 a0 e8 ff ff 	lea    -0x1760(%rbp),%rax
    9ff1:	48 89 85 88 fe ff ff 	mov    %rax,-0x178(%rbp)
    9ff8:	48 c7 85 90 fe ff ff 	movq   $0x0,-0x170(%rbp)
    9fff:	00 00 00 00 
    a003:	48 8d 05 fe b3 00 00 	lea    0xb3fe(%rip),%rax        # 15408 <g_5>
    a00a:	48 89 85 98 fe ff ff 	mov    %rax,-0x168(%rbp)
    a011:	48 c7 85 a0 fe ff ff 	movq   $0x0,-0x160(%rbp)
    a018:	00 00 00 00 
    a01c:	48 8d 05 e5 b3 00 00 	lea    0xb3e5(%rip),%rax        # 15408 <g_5>
    a023:	48 89 85 a8 fe ff ff 	mov    %rax,-0x158(%rbp)
    a02a:	48 8d 05 d7 b3 00 00 	lea    0xb3d7(%rip),%rax        # 15408 <g_5>
    a031:	48 89 85 b0 fe ff ff 	mov    %rax,-0x150(%rbp)
    a038:	48 c7 85 b8 fe ff ff 	movq   $0x0,-0x148(%rbp)
    a03f:	00 00 00 00 
    a043:	48 8d 85 50 ee ff ff 	lea    -0x11b0(%rbp),%rax
    a04a:	48 05 b8 00 00 00    	add    $0xb8,%rax
    a050:	48 89 85 c0 fe ff ff 	mov    %rax,-0x140(%rbp)
    a057:	48 8d 05 aa b3 00 00 	lea    0xb3aa(%rip),%rax        # 15408 <g_5>
    a05e:	48 89 85 c8 fe ff ff 	mov    %rax,-0x138(%rbp)
    a065:	48 c7 85 d0 fe ff ff 	movq   $0x0,-0x130(%rbp)
    a06c:	00 00 00 00 
    a070:	48 8d 05 91 b3 00 00 	lea    0xb391(%rip),%rax        # 15408 <g_5>
    a077:	48 89 85 d8 fe ff ff 	mov    %rax,-0x128(%rbp)
    a07e:	48 8d 05 83 b3 00 00 	lea    0xb383(%rip),%rax        # 15408 <g_5>
    a085:	48 89 85 e0 fe ff ff 	mov    %rax,-0x120(%rbp)
    a08c:	48 8d 85 a0 e8 ff ff 	lea    -0x1760(%rbp),%rax
    a093:	48 89 85 e8 fe ff ff 	mov    %rax,-0x118(%rbp)
    a09a:	48 c7 85 f0 fe ff ff 	movq   $0x0,-0x110(%rbp)
    a0a1:	00 00 00 00 
    a0a5:	48 c7 85 f8 fe ff ff 	movq   $0x0,-0x108(%rbp)
    a0ac:	00 00 00 00 
    a0b0:	48 8d 85 50 ee ff ff 	lea    -0x11b0(%rbp),%rax
    a0b7:	48 05 b8 00 00 00    	add    $0xb8,%rax
    a0bd:	48 89 85 00 ff ff ff 	mov    %rax,-0x100(%rbp)
    a0c4:	48 8d 85 50 ee ff ff 	lea    -0x11b0(%rbp),%rax
    a0cb:	48 05 b8 00 00 00    	add    $0xb8,%rax
    a0d1:	48 89 85 08 ff ff ff 	mov    %rax,-0xf8(%rbp)
    a0d8:	48 8d 05 29 b3 00 00 	lea    0xb329(%rip),%rax        # 15408 <g_5>
    a0df:	48 89 85 10 ff ff ff 	mov    %rax,-0xf0(%rbp)
    a0e6:	48 c7 85 18 ff ff ff 	movq   $0x0,-0xe8(%rbp)
    a0ed:	00 00 00 00 
    a0f1:	48 c7 85 20 ff ff ff 	movq   $0x0,-0xe0(%rbp)
    a0f8:	00 00 00 00 
    a0fc:	48 8d 85 a0 e8 ff ff 	lea    -0x1760(%rbp),%rax
    a103:	48 89 85 28 ff ff ff 	mov    %rax,-0xd8(%rbp)
    a10a:	48 c7 85 30 ff ff ff 	movq   $0x0,-0xd0(%rbp)
    a111:	00 00 00 00 
    a115:	48 8d 05 ec b2 00 00 	lea    0xb2ec(%rip),%rax        # 15408 <g_5>
    a11c:	48 89 85 38 ff ff ff 	mov    %rax,-0xc8(%rbp)
    a123:	48 c7 85 40 ff ff ff 	movq   $0x0,-0xc0(%rbp)
    a12a:	00 00 00 00 
    a12e:	48 8d 05 d3 b2 00 00 	lea    0xb2d3(%rip),%rax        # 15408 <g_5>
    a135:	48 89 85 48 ff ff ff 	mov    %rax,-0xb8(%rbp)
    a13c:	48 8d 05 c5 b2 00 00 	lea    0xb2c5(%rip),%rax        # 15408 <g_5>
    a143:	48 89 85 50 ff ff ff 	mov    %rax,-0xb0(%rbp)
    a14a:	48 c7 85 58 ff ff ff 	movq   $0x0,-0xa8(%rbp)
    a151:	00 00 00 00 
    a155:	48 8d 85 50 ee ff ff 	lea    -0x11b0(%rbp),%rax
    a15c:	48 05 b8 00 00 00    	add    $0xb8,%rax
    a162:	48 89 85 60 ff ff ff 	mov    %rax,-0xa0(%rbp)
    a169:	48 8d 05 98 b2 00 00 	lea    0xb298(%rip),%rax        # 15408 <g_5>
    a170:	48 89 85 68 ff ff ff 	mov    %rax,-0x98(%rbp)
    a177:	48 c7 85 70 ff ff ff 	movq   $0x0,-0x90(%rbp)
    a17e:	00 00 00 00 
    a182:	48 8d 05 7f b2 00 00 	lea    0xb27f(%rip),%rax        # 15408 <g_5>
    a189:	48 89 85 78 ff ff ff 	mov    %rax,-0x88(%rbp)
    a190:	48 8d 05 71 b2 00 00 	lea    0xb271(%rip),%rax        # 15408 <g_5>
    a197:	48 89 45 80          	mov    %rax,-0x80(%rbp)
    a19b:	48 8d 85 a0 e8 ff ff 	lea    -0x1760(%rbp),%rax
    a1a2:	48 89 45 88          	mov    %rax,-0x78(%rbp)
    a1a6:	48 c7 45 90 00 00 00 	movq   $0x0,-0x70(%rbp)
    a1ad:	00 
    a1ae:	48 c7 45 98 00 00 00 	movq   $0x0,-0x68(%rbp)
    a1b5:	00 
    a1b6:	48 8d 85 50 ee ff ff 	lea    -0x11b0(%rbp),%rax
    a1bd:	48 05 b8 00 00 00    	add    $0xb8,%rax
    a1c3:	48 89 45 a0          	mov    %rax,-0x60(%rbp)
    a1c7:	48 8d 85 50 ee ff ff 	lea    -0x11b0(%rbp),%rax
    a1ce:	48 05 b8 00 00 00    	add    $0xb8,%rax
    a1d4:	48 89 45 a8          	mov    %rax,-0x58(%rbp)
    a1d8:	48 8d 05 29 b2 00 00 	lea    0xb229(%rip),%rax        # 15408 <g_5>
    a1df:	48 89 45 b0          	mov    %rax,-0x50(%rbp)
    a1e3:	48 c7 45 b8 00 00 00 	movq   $0x0,-0x48(%rbp)
    a1ea:	00 
    a1eb:	8b 85 fc e8 ff ff    	mov    -0x1704(%rbp),%eax
    a1f1:	0f b6 d0             	movzbl %al,%edx
    a1f4:	48 8b 05 cd c4 00 00 	mov    0xc4cd(%rip),%rax        # 166c8 <g_80>
    a1fb:	48 8b 08             	mov    (%rax),%rcx
    a1fe:	48 8b 85 98 e9 ff ff 	mov    -0x1668(%rbp),%rax
    a205:	48 8b 00             	mov    (%rax),%rax
    a208:	48 39 c1             	cmp    %rax,%rcx
    a20b:	0f 94 c0             	sete   %al
    a20e:	0f b6 c0             	movzbl %al,%eax
    a211:	89 d6                	mov    %edx,%esi
    a213:	89 c7                	mov    %eax,%edi
    a215:	e8 c1 c9 ff ff       	callq  6bdb <safe_div_func_uint8_t_u_u>
    a21a:	0f b6 c0             	movzbl %al,%eax
    a21d:	48 c7 c6 ff ff ff ff 	mov    $0xffffffffffffffff,%rsi
    a224:	48 89 c7             	mov    %rax,%rdi
    a227:	e8 02 ce ff ff       	callq  702e <safe_add_func_uint64_t_u_u>
    a22c:	8b 05 e6 b2 00 00    	mov    0xb2e6(%rip),%eax        # 15518 <g_395>
    a232:	0f b7 d8             	movzwl %ax,%ebx
    a235:	8b 85 9c f0 ff ff    	mov    -0xf64(%rbp),%eax
    a23b:	0f b6 c0             	movzbl %al,%eax
    a23e:	89 c6                	mov    %eax,%esi
    a240:	bf 01 00 00 00       	mov    $0x1,%edi
    a245:	e8 2e c9 ff ff       	callq  6b78 <safe_sub_func_uint8_t_u_u>
    a24a:	48 c7 85 e0 e9 ff ff 	movq   $0x0,-0x1620(%rbp)
    a251:	00 00 00 00 
    a255:	48 81 bd e0 e9 ff ff 	cmpq   $0x57df,-0x1620(%rbp)
    a25c:	df 57 00 00 
    a260:	0f 94 c0             	sete   %al
    a263:	0f b6 c0             	movzbl %al,%eax
    a266:	be 05 00 00 00       	mov    $0x5,%esi
    a26b:	89 c7                	mov    %eax,%edi
    a26d:	e8 80 bf ff ff       	callq  61f2 <safe_sub_func_int8_t_s_s>
    a272:	48 0f be d0          	movsbq %al,%rdx
    a276:	48 8b 05 2b cb 00 00 	mov    0xcb2b(%rip),%rax        # 16da8 <g_1354>
    a27d:	48 8b 00             	mov    (%rax),%rax
    a280:	48 b9 44 9a 3c f5 53 	movabs $0x8a129b53f53c9a44,%rcx
    a287:	9b 12 8a 
    a28a:	48 89 08             	mov    %rcx,(%rax)
    a28d:	48 8b 00             	mov    (%rax),%rax
    a290:	48 89 d6             	mov    %rdx,%rsi
    a293:	48 89 c7             	mov    %rax,%rdi
    a296:	e8 19 c7 ff ff       	callq  69b4 <safe_mod_func_int64_t_s_s>
    a29b:	48 3d 8b dc 00 00    	cmp    $0xdc8b,%rax
    a2a1:	0f 9f c0             	setg   %al
    a2a4:	0f b6 c0             	movzbl %al,%eax
    a2a7:	89 de                	mov    %ebx,%esi
    a2a9:	89 c7                	mov    %eax,%edi
    a2ab:	e8 8d ca ff ff       	callq  6d3d <safe_mul_func_uint16_t_u_u>
    a2b0:	48 8b 15 91 b3 00 00 	mov    0xb391(%rip),%rdx        # 15648 <g_760>
    a2b7:	48 8b 85 60 e9 ff ff 	mov    -0x16a0(%rbp),%rax
    a2be:	0f b7 00             	movzwl (%rax),%eax
    a2c1:	31 c2                	xor    %eax,%edx
    a2c3:	48 8b 85 60 e9 ff ff 	mov    -0x16a0(%rbp),%rax
    a2ca:	66 89 10             	mov    %dx,(%rax)
    a2cd:	48 8b 85 60 e9 ff ff 	mov    -0x16a0(%rbp),%rax
    a2d4:	0f b7 10             	movzwl (%rax),%edx
    a2d7:	48 8b 85 e8 e9 ff ff 	mov    -0x1618(%rbp),%rax
    a2de:	0f b7 00             	movzwl (%rax),%eax
    a2e1:	31 c2                	xor    %eax,%edx
    a2e3:	48 8b 85 e8 e9 ff ff 	mov    -0x1618(%rbp),%rax
    a2ea:	66 89 10             	mov    %dx,(%rax)
    a2ed:	48 8b 85 e8 e9 ff ff 	mov    -0x1618(%rbp),%rax
    a2f4:	0f b7 10             	movzwl (%rax),%edx
    a2f7:	48 8b 85 f0 e9 ff ff 	mov    -0x1610(%rbp),%rax
    a2fe:	66 89 10             	mov    %dx,(%rax)
    a301:	48 8b 85 f0 e9 ff ff 	mov    -0x1610(%rbp),%rax
    a308:	0f b7 00             	movzwl (%rax),%eax
    a30b:	98                   	cwtl   
    a30c:	be 77 31 00 00       	mov    $0x3177,%esi
    a311:	89 c7                	mov    %eax,%edi
    a313:	e8 3d c1 ff ff       	callq  6455 <safe_div_func_int16_t_s_s>
    a318:	66 83 f8 01          	cmp    $0x1,%ax
    a31c:	0f 94 c0             	sete   %al
    a31f:	0f b6 c0             	movzbl %al,%eax
    a322:	09 85 d0 e8 ff ff    	or     %eax,-0x1730(%rbp)
    a328:	83 bd d0 e8 ff ff 00 	cmpl   $0x0,-0x1730(%rbp)
    a32f:	74 31                	je     a362 <func_1+0x2bad>
    a331:	48 8d 85 50 ee ff ff 	lea    -0x11b0(%rbp),%rax
    a338:	48 05 b8 00 00 00    	add    $0xb8,%rax
    a33e:	48 89 85 f0 f9 ff ff 	mov    %rax,-0x610(%rbp)
    a345:	83 bd dc e8 ff ff 00 	cmpl   $0x0,-0x1724(%rbp)
    a34c:	0f 85 37 01 00 00    	jne    a489 <func_1+0x2cd4>
    a352:	48 8b 85 70 e9 ff ff 	mov    -0x1690(%rbp),%rax
    a359:	8b 00                	mov    (%rax),%eax
    a35b:	85 c0                	test   %eax,%eax
    a35d:	e9 28 01 00 00       	jmpq   a48a <func_1+0x2cd5>
    a362:	c7 85 00 e9 ff ff ff 	movl   $0xffffffff,-0x1700(%rbp)
    a369:	ff ff ff 
    a36c:	48 c7 85 f8 e9 ff ff 	movq   $0x0,-0x1608(%rbp)
    a373:	00 00 00 00 
    a377:	48 8d 05 2e b2 00 00 	lea    0xb22e(%rip),%rax        # 155ac <g_518+0x6c>
    a37e:	48 89 85 00 ea ff ff 	mov    %rax,-0x1600(%rbp)
    a385:	c7 85 04 e9 ff ff f8 	movl   $0xfffffff8,-0x16fc(%rbp)
    a38c:	ff ff ff 
    a38f:	c7 85 08 e9 ff ff ca 	movl   $0xc82207ca,-0x16f8(%rbp)
    a396:	07 22 c8 
    a399:	c7 85 0c e9 ff ff 45 	movl   $0xb59c8245,-0x16f4(%rbp)
    a3a0:	82 9c b5 
    a3a3:	48 8b 05 6e c9 00 00 	mov    0xc96e(%rip),%rax        # 16d18 <g_1083>
    a3aa:	48 8b 00             	mov    (%rax),%rax
    a3ad:	48 85 c0             	test   %rax,%rax
    a3b0:	0f 95 c0             	setne  %al
    a3b3:	89 c2                	mov    %eax,%edx
    a3b5:	48 8b 85 a0 e9 ff ff 	mov    -0x1660(%rbp),%rax
    a3bc:	88 10                	mov    %dl,(%rax)
    a3be:	48 8b 85 a0 e9 ff ff 	mov    -0x1660(%rbp),%rax
    a3c5:	0f b6 00             	movzbl (%rax),%eax
    a3c8:	0f be d8             	movsbl %al,%ebx
    a3cb:	48 8b 85 00 ea ff ff 	mov    -0x1600(%rbp),%rax
    a3d2:	0f b6 00             	movzbl (%rax),%eax
    a3d5:	8d 48 ff             	lea    -0x1(%rax),%ecx
    a3d8:	48 8b 95 00 ea ff ff 	mov    -0x1600(%rbp),%rdx
    a3df:	88 0a                	mov    %cl,(%rdx)
    a3e1:	0f be d0             	movsbl %al,%edx
    a3e4:	48 8b 05 e5 c2 00 00 	mov    0xc2e5(%rip),%rax        # 166d0 <g_82>
    a3eb:	0f b6 00             	movzbl (%rax),%eax
    a3ee:	83 c8 52             	or     $0x52,%eax
    a3f1:	0f be c0             	movsbl %al,%eax
    a3f4:	89 d6                	mov    %edx,%esi
    a3f6:	89 c7                	mov    %eax,%edi
    a3f8:	e8 d7 bd ff ff       	callq  61d4 <safe_add_func_int8_t_s_s>
    a3fd:	84 c0                	test   %al,%al
    a3ff:	74 07                	je     a408 <func_1+0x2c53>
    a401:	b8 01 00 00 00       	mov    $0x1,%eax
    a406:	eb 05                	jmp    a40d <func_1+0x2c58>
    a408:	b8 00 00 00 00       	mov    $0x0,%eax
    a40d:	39 d8                	cmp    %ebx,%eax
    a40f:	0f 94 c2             	sete   %dl
    a412:	48 8d 05 c7 c2 00 00 	lea    0xc2c7(%rip),%rax        # 166e0 <g_546>
    a419:	48 8b 00             	mov    (%rax),%rax
    a41c:	88 10                	mov    %dl,(%rax)
    a41e:	0f b6 00             	movzbl (%rax),%eax
    a421:	84 c0                	test   %al,%al
    a423:	75 09                	jne    a42e <func_1+0x2c79>
    a425:	83 bd 04 e9 ff ff 00 	cmpl   $0x0,-0x16fc(%rbp)
    a42c:	74 07                	je     a435 <func_1+0x2c80>
    a42e:	b8 01 00 00 00       	mov    $0x1,%eax
    a433:	eb 05                	jmp    a43a <func_1+0x2c85>
    a435:	b8 00 00 00 00       	mov    $0x0,%eax
    a43a:	0f be d0             	movsbl %al,%edx
    a43d:	8b 85 00 e9 ff ff    	mov    -0x1700(%rbp),%eax
    a443:	89 85 dc e8 ff ff    	mov    %eax,-0x1724(%rbp)
    a449:	8b 85 dc e8 ff ff    	mov    -0x1724(%rbp),%eax
    a44f:	0f be c0             	movsbl %al,%eax
    a452:	89 d6                	mov    %edx,%esi
    a454:	89 c7                	mov    %eax,%edi
    a456:	e8 b7 bd ff ff       	callq  6212 <safe_mul_func_int8_t_s_s>
    a45b:	89 c2                	mov    %eax,%edx
    a45d:	48 8b 85 38 e9 ff ff 	mov    -0x16c8(%rbp),%rax
    a464:	0f be d2             	movsbl %dl,%edx
    a467:	89 10                	mov    %edx,(%rax)
    a469:	0f b6 05 00 b7 00 00 	movzbl 0xb700(%rip),%eax        # 15b70 <g_1850+0x10>
    a470:	83 e8 01             	sub    $0x1,%eax
    a473:	88 05 f7 b6 00 00    	mov    %al,0xb6f7(%rip)        # 15b70 <g_1850+0x10>
    a479:	48 8b 85 b0 e9 ff ff 	mov    -0x1650(%rbp),%rax
    a480:	48 89 05 f9 d5 00 00 	mov    %rax,0xd5f9(%rip)        # 17a80 <g_1854+0x20>
    a487:	eb 01                	jmp    a48a <func_1+0x2cd5>
    a489:	90                   	nop
    a48a:	83 ad c8 e8 ff ff 01 	subl   $0x1,-0x1738(%rbp)
    a491:	83 bd c8 e8 ff ff f0 	cmpl   $0xfffffff0,-0x1738(%rbp)
    a498:	0f 8d e0 ee ff ff    	jge    937e <func_1+0x1bc9>
    a49e:	48 8b 05 23 c2 00 00 	mov    0xc223(%rip),%rax        # 166c8 <g_80>
    a4a5:	48 8b 95 98 e9 ff ff 	mov    -0x1668(%rbp),%rdx
    a4ac:	48 8b 12             	mov    (%rdx),%rdx
    a4af:	48 89 10             	mov    %rdx,(%rax)
    a4b2:	0f b7 05 6b b0 00 00 	movzwl 0xb06b(%rip),%eax        # 15524 <g_499>
    a4b9:	83 c0 01             	add    $0x1,%eax
    a4bc:	66 89 05 61 b0 00 00 	mov    %ax,0xb061(%rip)        # 15524 <g_499>
    a4c3:	0f b7 05 5a b0 00 00 	movzwl 0xb05a(%rip),%eax        # 15524 <g_499>
    a4ca:	66 83 f8 36          	cmp    $0x36,%ax
    a4ce:	0f 87 da dd ff ff    	ja     82ae <func_1+0xaf9>
    a4d4:	eb 04                	jmp    a4da <func_1+0x2d25>
    a4d6:	90                   	nop
    a4d7:	eb 01                	jmp    a4da <func_1+0x2d25>
    a4d9:	90                   	nop
    a4da:	48 8b 85 78 e9 ff ff 	mov    -0x1688(%rbp),%rax
    a4e1:	8b 00                	mov    (%rax),%eax
    a4e3:	48 98                	cltq   
    a4e5:	48 8b 5d c8          	mov    -0x38(%rbp),%rbx
    a4e9:	64 48 33 1c 25 28 00 	xor    %fs:0x28,%rbx
    a4f0:	00 00 
    a4f2:	74 05                	je     a4f9 <func_1+0x2d44>
    a4f4:	e8 77 bb ff ff       	callq  6070 <__stack_chk_fail@plt>
    a4f9:	48 81 c4 58 17 00 00 	add    $0x1758,%rsp
    a500:	5b                   	pop    %rbx
    a501:	41 5c                	pop    %r12
    a503:	41 5d                	pop    %r13
    a505:	41 5e                	pop    %r14
    a507:	41 5f                	pop    %r15
    a509:	5d                   	pop    %rbp
    a50a:	c3                   	retq   

000000000000a50b <func_9>:
    a50b:	f3 0f 1e fa          	endbr64 
    a50f:	55                   	push   %rbp
    a510:	48 89 e5             	mov    %rsp,%rbp
    a513:	41 56                	push   %r14
    a515:	41 55                	push   %r13
    a517:	41 54                	push   %r12
    a519:	53                   	push   %rbx
    a51a:	48 81 ec a0 08 00 00 	sub    $0x8a0,%rsp
    a521:	48 89 bd 58 f7 ff ff 	mov    %rdi,-0x8a8(%rbp)
    a528:	89 b5 54 f7 ff ff    	mov    %esi,-0x8ac(%rbp)
    a52e:	48 89 95 48 f7 ff ff 	mov    %rdx,-0x8b8(%rbp)
    a535:	64 48 8b 04 25 28 00 	mov    %fs:0x28,%rax
    a53c:	00 00 
    a53e:	48 89 45 d8          	mov    %rax,-0x28(%rbp)
    a542:	31 c0                	xor    %eax,%eax
    a544:	c7 85 80 f7 ff ff b5 	movl   $0x523a0bb5,-0x880(%rbp)
    a54b:	0b 3a 52 
    a54e:	c7 85 84 f7 ff ff 40 	movl   $0xc7226140,-0x87c(%rbp)
    a555:	61 22 c7 
    a558:	48 8d 85 50 fd ff ff 	lea    -0x2b0(%rbp),%rax
    a55f:	48 8d 15 ba be 00 00 	lea    0xbeba(%rip),%rdx        # 16420 <g_1850+0x8c0>
    a566:	b9 51 00 00 00       	mov    $0x51,%ecx
    a56b:	48 89 c7             	mov    %rax,%rdi
    a56e:	48 89 d6             	mov    %rdx,%rsi
    a571:	f3 48 a5             	rep movsq %ds:(%rsi),%es:(%rdi)
    a574:	c7 85 88 f7 ff ff 3b 	movl   $0x78a8893b,-0x878(%rbp)
    a57b:	89 a8 78 
    a57e:	48 8d 05 4b c1 00 00 	lea    0xc14b(%rip),%rax        # 166d0 <g_82>
    a585:	48 89 85 d0 f7 ff ff 	mov    %rax,-0x830(%rbp)
    a58c:	48 8d 05 cd c5 00 00 	lea    0xc5cd(%rip),%rax        # 16b60 <g_914>
    a593:	48 89 85 a8 f7 ff ff 	mov    %rax,-0x858(%rbp)
    a59a:	48 8d 85 a8 f7 ff ff 	lea    -0x858(%rbp),%rax
    a5a1:	48 89 85 f0 fa ff ff 	mov    %rax,-0x510(%rbp)
    a5a8:	48 8d 85 a8 f7 ff ff 	lea    -0x858(%rbp),%rax
    a5af:	48 89 85 f8 fa ff ff 	mov    %rax,-0x508(%rbp)
    a5b6:	48 8d 85 a8 f7 ff ff 	lea    -0x858(%rbp),%rax
    a5bd:	48 89 85 00 fb ff ff 	mov    %rax,-0x500(%rbp)
    a5c4:	48 8d 85 a8 f7 ff ff 	lea    -0x858(%rbp),%rax
    a5cb:	48 89 85 08 fb ff ff 	mov    %rax,-0x4f8(%rbp)
    a5d2:	48 8d 85 a8 f7 ff ff 	lea    -0x858(%rbp),%rax
    a5d9:	48 89 85 10 fb ff ff 	mov    %rax,-0x4f0(%rbp)
    a5e0:	48 8d 85 a8 f7 ff ff 	lea    -0x858(%rbp),%rax
    a5e7:	48 89 85 18 fb ff ff 	mov    %rax,-0x4e8(%rbp)
    a5ee:	48 8d 85 a8 f7 ff ff 	lea    -0x858(%rbp),%rax
    a5f5:	48 89 85 20 fb ff ff 	mov    %rax,-0x4e0(%rbp)
    a5fc:	48 8d 85 a8 f7 ff ff 	lea    -0x858(%rbp),%rax
    a603:	48 89 85 28 fb ff ff 	mov    %rax,-0x4d8(%rbp)
    a60a:	48 8d 85 a8 f7 ff ff 	lea    -0x858(%rbp),%rax
    a611:	48 89 85 30 fb ff ff 	mov    %rax,-0x4d0(%rbp)
    a618:	48 8d 85 a8 f7 ff ff 	lea    -0x858(%rbp),%rax
    a61f:	48 89 85 38 fb ff ff 	mov    %rax,-0x4c8(%rbp)
    a626:	48 8d 85 a8 f7 ff ff 	lea    -0x858(%rbp),%rax
    a62d:	48 89 85 40 fb ff ff 	mov    %rax,-0x4c0(%rbp)
    a634:	48 8d 85 a8 f7 ff ff 	lea    -0x858(%rbp),%rax
    a63b:	48 89 85 48 fb ff ff 	mov    %rax,-0x4b8(%rbp)
    a642:	48 8d 85 a8 f7 ff ff 	lea    -0x858(%rbp),%rax
    a649:	48 89 85 50 fb ff ff 	mov    %rax,-0x4b0(%rbp)
    a650:	48 8d 85 a8 f7 ff ff 	lea    -0x858(%rbp),%rax
    a657:	48 89 85 58 fb ff ff 	mov    %rax,-0x4a8(%rbp)
    a65e:	48 8d 85 a8 f7 ff ff 	lea    -0x858(%rbp),%rax
    a665:	48 89 85 60 fb ff ff 	mov    %rax,-0x4a0(%rbp)
    a66c:	48 8d 85 a8 f7 ff ff 	lea    -0x858(%rbp),%rax
    a673:	48 89 85 68 fb ff ff 	mov    %rax,-0x498(%rbp)
    a67a:	48 8d 85 a8 f7 ff ff 	lea    -0x858(%rbp),%rax
    a681:	48 89 85 70 fb ff ff 	mov    %rax,-0x490(%rbp)
    a688:	48 8d 85 a8 f7 ff ff 	lea    -0x858(%rbp),%rax
    a68f:	48 89 85 78 fb ff ff 	mov    %rax,-0x488(%rbp)
    a696:	48 8d 85 a8 f7 ff ff 	lea    -0x858(%rbp),%rax
    a69d:	48 89 85 80 fb ff ff 	mov    %rax,-0x480(%rbp)
    a6a4:	48 8d 85 a8 f7 ff ff 	lea    -0x858(%rbp),%rax
    a6ab:	48 89 85 88 fb ff ff 	mov    %rax,-0x478(%rbp)
    a6b2:	48 8d 85 a8 f7 ff ff 	lea    -0x858(%rbp),%rax
    a6b9:	48 89 85 90 fb ff ff 	mov    %rax,-0x470(%rbp)
    a6c0:	48 8d 85 a8 f7 ff ff 	lea    -0x858(%rbp),%rax
    a6c7:	48 89 85 98 fb ff ff 	mov    %rax,-0x468(%rbp)
    a6ce:	48 8d 85 a8 f7 ff ff 	lea    -0x858(%rbp),%rax
    a6d5:	48 89 85 a0 fb ff ff 	mov    %rax,-0x460(%rbp)
    a6dc:	48 8d 85 a8 f7 ff ff 	lea    -0x858(%rbp),%rax
    a6e3:	48 89 85 a8 fb ff ff 	mov    %rax,-0x458(%rbp)
    a6ea:	48 8d 85 a8 f7 ff ff 	lea    -0x858(%rbp),%rax
    a6f1:	48 89 85 b0 fb ff ff 	mov    %rax,-0x450(%rbp)
    a6f8:	48 8d 85 a8 f7 ff ff 	lea    -0x858(%rbp),%rax
    a6ff:	48 89 85 b8 fb ff ff 	mov    %rax,-0x448(%rbp)
    a706:	48 8d 85 a8 f7 ff ff 	lea    -0x858(%rbp),%rax
    a70d:	48 89 85 c0 fb ff ff 	mov    %rax,-0x440(%rbp)
    a714:	48 8d 85 a8 f7 ff ff 	lea    -0x858(%rbp),%rax
    a71b:	48 89 85 c8 fb ff ff 	mov    %rax,-0x438(%rbp)
    a722:	48 8d 85 a8 f7 ff ff 	lea    -0x858(%rbp),%rax
    a729:	48 89 85 d0 fb ff ff 	mov    %rax,-0x430(%rbp)
    a730:	48 8d 85 a8 f7 ff ff 	lea    -0x858(%rbp),%rax
    a737:	48 89 85 d8 fb ff ff 	mov    %rax,-0x428(%rbp)
    a73e:	c7 85 d0 f9 ff ff 00 	movl   $0x0,-0x630(%rbp)
    a745:	00 00 00 
    a748:	c7 85 d4 f9 ff ff 25 	movl   $0x7138b925,-0x62c(%rbp)
    a74f:	b9 38 71 
    a752:	c7 85 d8 f9 ff ff 25 	movl   $0x7138b925,-0x628(%rbp)
    a759:	b9 38 71 
    a75c:	c7 85 dc f9 ff ff fc 	movl   $0xfffffffc,-0x624(%rbp)
    a763:	ff ff ff 
    a766:	c7 85 e0 f9 ff ff d6 	movl   $0x5b897fd6,-0x620(%rbp)
    a76d:	7f 89 5b 
    a770:	c7 85 e4 f9 ff ff d6 	movl   $0x5b897fd6,-0x61c(%rbp)
    a777:	7f 89 5b 
    a77a:	c7 85 e8 f9 ff ff 00 	movl   $0x0,-0x618(%rbp)
    a781:	00 00 00 
    a784:	c7 85 ec f9 ff ff 25 	movl   $0x7138b925,-0x614(%rbp)
    a78b:	b9 38 71 
    a78e:	c7 85 f0 f9 ff ff 25 	movl   $0x7138b925,-0x610(%rbp)
    a795:	b9 38 71 
    a798:	c7 85 f4 f9 ff ff fc 	movl   $0xfffffffc,-0x60c(%rbp)
    a79f:	ff ff ff 
    a7a2:	c7 85 f8 f9 ff ff d6 	movl   $0x5b897fd6,-0x608(%rbp)
    a7a9:	7f 89 5b 
    a7ac:	c7 85 fc f9 ff ff d6 	movl   $0x5b897fd6,-0x604(%rbp)
    a7b3:	7f 89 5b 
    a7b6:	c7 85 00 fa ff ff 00 	movl   $0x0,-0x600(%rbp)
    a7bd:	00 00 00 
    a7c0:	c7 85 04 fa ff ff 25 	movl   $0x7138b925,-0x5fc(%rbp)
    a7c7:	b9 38 71 
    a7ca:	c7 85 08 fa ff ff 25 	movl   $0x7138b925,-0x5f8(%rbp)
    a7d1:	b9 38 71 
    a7d4:	c7 85 0c fa ff ff fc 	movl   $0xfffffffc,-0x5f4(%rbp)
    a7db:	ff ff ff 
    a7de:	c7 85 10 fa ff ff d6 	movl   $0x5b897fd6,-0x5f0(%rbp)
    a7e5:	7f 89 5b 
    a7e8:	c7 85 14 fa ff ff d6 	movl   $0x5b897fd6,-0x5ec(%rbp)
    a7ef:	7f 89 5b 
    a7f2:	c7 85 18 fa ff ff 00 	movl   $0x0,-0x5e8(%rbp)
    a7f9:	00 00 00 
    a7fc:	c7 85 1c fa ff ff 25 	movl   $0x7138b925,-0x5e4(%rbp)
    a803:	b9 38 71 
    a806:	c7 85 20 fa ff ff 25 	movl   $0x7138b925,-0x5e0(%rbp)
    a80d:	b9 38 71 
    a810:	c7 85 24 fa ff ff fc 	movl   $0xfffffffc,-0x5dc(%rbp)
    a817:	ff ff ff 
    a81a:	c7 85 28 fa ff ff d6 	movl   $0x5b897fd6,-0x5d8(%rbp)
    a821:	7f 89 5b 
    a824:	c7 85 2c fa ff ff d6 	movl   $0x5b897fd6,-0x5d4(%rbp)
    a82b:	7f 89 5b 
    a82e:	66 c7 85 30 fa ff ff 	movw   $0x5b63,-0x5d0(%rbp)
    a835:	63 5b 
    a837:	66 c7 85 32 fa ff ff 	movw   $0xff05,-0x5ce(%rbp)
    a83e:	05 ff 
    a840:	66 c7 85 34 fa ff ff 	movw   $0xff00,-0x5cc(%rbp)
    a847:	00 ff 
    a849:	66 c7 85 36 fa ff ff 	movw   $0x61ff,-0x5ca(%rbp)
    a850:	ff 61 
    a852:	66 c7 85 38 fa ff ff 	movw   $0xc8,-0x5c8(%rbp)
    a859:	c8 00 
    a85b:	66 c7 85 3a fa ff ff 	movw   $0x5ff,-0x5c6(%rbp)
    a862:	ff 05 
    a864:	66 c7 85 3c fa ff ff 	movw   $0x5ff,-0x5c4(%rbp)
    a86b:	ff 05 
    a86d:	66 c7 85 3e fa ff ff 	movw   $0xff,-0x5c2(%rbp)
    a874:	ff 00 
    a876:	66 c7 85 40 fa ff ff 	movw   $0x61c8,-0x5c0(%rbp)
    a87d:	c8 61 
    a87f:	66 c7 85 42 fa ff ff 	movw   $0xffff,-0x5be(%rbp)
    a886:	ff ff 
    a888:	66 c7 85 44 fa ff ff 	movw   $0xff00,-0x5bc(%rbp)
    a88f:	00 ff 
    a891:	66 c7 85 46 fa ff ff 	movw   $0x5b05,-0x5ba(%rbp)
    a898:	05 5b 
    a89a:	66 c7 85 48 fa ff ff 	movw   $0xff63,-0x5b8(%rbp)
    a8a1:	63 ff 
    a8a3:	66 c7 85 4a fa ff ff 	movw   $0xff51,-0x5b6(%rbp)
    a8aa:	51 ff 
    a8ac:	66 c7 85 4c fa ff ff 	movw   $0x61b1,-0x5b4(%rbp)
    a8b3:	b1 61 
    a8b5:	66 c7 85 4e fa ff ff 	movw   $0x26,-0x5b2(%rbp)
    a8bc:	26 00 
    a8be:	66 c7 85 50 fa ff ff 	movw   $0x587,-0x5b0(%rbp)
    a8c5:	87 05 
    a8c7:	66 c7 85 52 fa ff ff 	movw   $0x5ff,-0x5ae(%rbp)
    a8ce:	ff 05 
    a8d0:	66 c7 85 54 fa ff ff 	movw   $0x87,-0x5ac(%rbp)
    a8d7:	87 00 
    a8d9:	66 c7 85 56 fa ff ff 	movw   $0x6126,-0x5aa(%rbp)
    a8e0:	26 61 
    a8e2:	66 c7 85 58 fa ff ff 	movw   $0xffb1,-0x5a8(%rbp)
    a8e9:	b1 ff 
    a8eb:	66 c7 85 5a fa ff ff 	movw   $0xff51,-0x5a6(%rbp)
    a8f2:	51 ff 
    a8f4:	66 c7 85 5c fa ff ff 	movw   $0x5b63,-0x5a4(%rbp)
    a8fb:	63 5b 
    a8fd:	66 c7 85 5e fa ff ff 	movw   $0xff05,-0x5a2(%rbp)
    a904:	05 ff 
    a906:	66 c7 85 60 fa ff ff 	movw   $0xff00,-0x5a0(%rbp)
    a90d:	00 ff 
    a90f:	66 c7 85 62 fa ff ff 	movw   $0x61ff,-0x59e(%rbp)
    a916:	ff 61 
    a918:	66 c7 85 64 fa ff ff 	movw   $0xc8,-0x59c(%rbp)
    a91f:	c8 00 
    a921:	66 c7 85 66 fa ff ff 	movw   $0x5ff,-0x59a(%rbp)
    a928:	ff 05 
    a92a:	66 c7 85 68 fa ff ff 	movw   $0x5ff,-0x598(%rbp)
    a931:	ff 05 
    a933:	66 c7 85 6a fa ff ff 	movw   $0xff,-0x596(%rbp)
    a93a:	ff 00 
    a93c:	66 c7 85 6c fa ff ff 	movw   $0x61c8,-0x594(%rbp)
    a943:	c8 61 
    a945:	66 c7 85 6e fa ff ff 	movw   $0xffff,-0x592(%rbp)
    a94c:	ff ff 
    a94e:	66 c7 85 70 fa ff ff 	movw   $0xff00,-0x590(%rbp)
    a955:	00 ff 
    a957:	66 c7 85 72 fa ff ff 	movw   $0x5b05,-0x58e(%rbp)
    a95e:	05 5b 
    a960:	66 c7 85 74 fa ff ff 	movw   $0xff63,-0x58c(%rbp)
    a967:	63 ff 
    a969:	66 c7 85 76 fa ff ff 	movw   $0xff51,-0x58a(%rbp)
    a970:	51 ff 
    a972:	66 c7 85 78 fa ff ff 	movw   $0x61b1,-0x588(%rbp)
    a979:	b1 61 
    a97b:	66 c7 85 7a fa ff ff 	movw   $0x26,-0x586(%rbp)
    a982:	26 00 
    a984:	66 c7 85 7c fa ff ff 	movw   $0x587,-0x584(%rbp)
    a98b:	87 05 
    a98d:	66 c7 85 7e fa ff ff 	movw   $0x5ff,-0x582(%rbp)
    a994:	ff 05 
    a996:	66 c7 85 80 fa ff ff 	movw   $0x87,-0x580(%rbp)
    a99d:	87 00 
    a99f:	66 c7 85 82 fa ff ff 	movw   $0x6126,-0x57e(%rbp)
    a9a6:	26 61 
    a9a8:	66 c7 85 84 fa ff ff 	movw   $0xffb1,-0x57c(%rbp)
    a9af:	b1 ff 
    a9b1:	66 c7 85 86 fa ff ff 	movw   $0xff51,-0x57a(%rbp)
    a9b8:	51 ff 
    a9ba:	66 c7 85 88 fa ff ff 	movw   $0x5b63,-0x578(%rbp)
    a9c1:	63 5b 
    a9c3:	66 c7 85 8a fa ff ff 	movw   $0xff05,-0x576(%rbp)
    a9ca:	05 ff 
    a9cc:	66 c7 85 8c fa ff ff 	movw   $0xff00,-0x574(%rbp)
    a9d3:	00 ff 
    a9d5:	66 c7 85 8e fa ff ff 	movw   $0x61ff,-0x572(%rbp)
    a9dc:	ff 61 
    a9de:	66 c7 85 90 fa ff ff 	movw   $0xc8,-0x570(%rbp)
    a9e5:	c8 00 
    a9e7:	66 c7 85 92 fa ff ff 	movw   $0x5ff,-0x56e(%rbp)
    a9ee:	ff 05 
    a9f0:	66 c7 85 94 fa ff ff 	movw   $0x5ff,-0x56c(%rbp)
    a9f7:	ff 05 
    a9f9:	66 c7 85 96 fa ff ff 	movw   $0xff,-0x56a(%rbp)
    aa00:	ff 00 
    aa02:	66 c7 85 98 fa ff ff 	movw   $0x61c8,-0x568(%rbp)
    aa09:	c8 61 
    aa0b:	66 c7 85 9a fa ff ff 	movw   $0xffff,-0x566(%rbp)
    aa12:	ff ff 
    aa14:	66 c7 85 9c fa ff ff 	movw   $0xff00,-0x564(%rbp)
    aa1b:	00 ff 
    aa1d:	66 c7 85 9e fa ff ff 	movw   $0x5b05,-0x562(%rbp)
    aa24:	05 5b 
    aa26:	66 c7 85 a0 fa ff ff 	movw   $0xff63,-0x560(%rbp)
    aa2d:	63 ff 
    aa2f:	66 c7 85 a2 fa ff ff 	movw   $0xff51,-0x55e(%rbp)
    aa36:	51 ff 
    aa38:	66 c7 85 a4 fa ff ff 	movw   $0x61b1,-0x55c(%rbp)
    aa3f:	b1 61 
    aa41:	66 c7 85 a6 fa ff ff 	movw   $0x26,-0x55a(%rbp)
    aa48:	26 00 
    aa4a:	66 c7 85 a8 fa ff ff 	movw   $0x587,-0x558(%rbp)
    aa51:	87 05 
    aa53:	66 c7 85 aa fa ff ff 	movw   $0x5ff,-0x556(%rbp)
    aa5a:	ff 05 
    aa5c:	66 c7 85 ac fa ff ff 	movw   $0x87,-0x554(%rbp)
    aa63:	87 00 
    aa65:	66 c7 85 ae fa ff ff 	movw   $0x6126,-0x552(%rbp)
    aa6c:	26 61 
    aa6e:	66 c7 85 b0 fa ff ff 	movw   $0xffb1,-0x550(%rbp)
    aa75:	b1 ff 
    aa77:	66 c7 85 b2 fa ff ff 	movw   $0xff51,-0x54e(%rbp)
    aa7e:	51 ff 
    aa80:	66 c7 85 b4 fa ff ff 	movw   $0x5b63,-0x54c(%rbp)
    aa87:	63 5b 
    aa89:	66 c7 85 b6 fa ff ff 	movw   $0x5bec,-0x54a(%rbp)
    aa90:	ec 5b 
    aa92:	66 c7 85 b8 fa ff ff 	movw   $0x5c8,-0x548(%rbp)
    aa99:	c8 05 
    aa9b:	66 c7 85 ba fa ff ff 	movw   $0x1f8,-0x546(%rbp)
    aaa2:	f8 01 
    aaa4:	66 c7 85 bc fa ff ff 	movw   $0xff63,-0x544(%rbp)
    aaab:	63 ff 
    aaad:	66 c7 85 be fa ff ff 	movw   $0x26ff,-0x542(%rbp)
    aab4:	ff 26 
    aab6:	66 c7 85 c0 fa ff ff 	movw   $0x2605,-0x540(%rbp)
    aabd:	05 26 
    aabf:	66 c7 85 c2 fa ff ff 	movw   $0xffff,-0x53e(%rbp)
    aac6:	ff ff 
    aac8:	66 c7 85 c4 fa ff ff 	movw   $0x163,-0x53c(%rbp)
    aacf:	63 01 
    aad1:	66 c7 85 c6 fa ff ff 	movw   $0x5f8,-0x53a(%rbp)
    aad8:	f8 05 
    aada:	66 c7 85 c8 fa ff ff 	movw   $0x5bc8,-0x538(%rbp)
    aae1:	c8 5b 
    aae3:	66 c7 85 ca fa ff ff 	movw   $0xffec,-0x536(%rbp)
    aaea:	ec ff 
    aaec:	66 c7 85 cc fa ff ff 	movw   $0x5b7f,-0x534(%rbp)
    aaf3:	7f 5b 
    aaf5:	66 c7 85 ce fa ff ff 	movw   $0x526,-0x532(%rbp)
    aafc:	26 05 
    aafe:	66 c7 85 d0 fa ff ff 	movw   $0x100,-0x530(%rbp)
    ab05:	00 01 
    ab07:	66 c7 85 d2 fa ff ff 	movw   $0xff05,-0x52e(%rbp)
    ab0e:	05 ff 
    ab10:	66 c7 85 d4 fa ff ff 	movw   $0x26ff,-0x52c(%rbp)
    ab17:	ff 26 
    ab19:	66 c7 85 d6 fa ff ff 	movw   $0x26fe,-0x52a(%rbp)
    ab20:	fe 26 
    ab22:	66 c7 85 d8 fa ff ff 	movw   $0xffff,-0x528(%rbp)
    ab29:	ff ff 
    ab2b:	66 c7 85 da fa ff ff 	movw   $0x105,-0x526(%rbp)
    ab32:	05 01 
    ab34:	66 c7 85 dc fa ff ff 	movw   $0x500,-0x524(%rbp)
    ab3b:	00 05 
    ab3d:	66 c7 85 de fa ff ff 	movw   $0x5b26,-0x522(%rbp)
    ab44:	26 5b 
    ab46:	66 c7 85 e0 fa ff ff 	movw   $0xff7f,-0x520(%rbp)
    ab4d:	7f ff 
    ab4f:	66 c7 85 e2 fa ff ff 	movw   $0x5bec,-0x51e(%rbp)
    ab56:	ec 5b 
    ab58:	48 8d 05 b5 a9 00 00 	lea    0xa9b5(%rip),%rax        # 15514 <g_354>
    ab5f:	48 89 85 d8 f7 ff ff 	mov    %rax,-0x828(%rbp)
    ab66:	48 c7 85 e0 f7 ff ff 	movq   $0xfffffffffffffffa,-0x820(%rbp)
    ab6d:	fa ff ff ff 
    ab71:	66 c7 85 70 f7 ff ff 	movw   $0xacb0,-0x890(%rbp)
    ab78:	b0 ac 
    ab7a:	48 8d 05 0f bd 00 00 	lea    0xbd0f(%rip),%rax        # 16890 <g_815>
    ab81:	48 89 85 e8 f7 ff ff 	mov    %rax,-0x818(%rbp)
    ab88:	48 c7 85 f0 f7 ff ff 	movq   $0x0,-0x810(%rbp)
    ab8f:	00 00 00 00 
    ab93:	48 c7 85 f8 f7 ff ff 	movq   $0x0,-0x808(%rbp)
    ab9a:	00 00 00 00 
    ab9e:	c7 85 8c f7 ff ff ac 	movl   $0xebe187ac,-0x874(%rbp)
    aba5:	87 e1 eb 
    aba8:	48 8d 05 51 a9 00 00 	lea    0xa951(%rip),%rax        # 15500 <g_223>
    abaf:	48 89 85 70 f8 ff ff 	mov    %rax,-0x790(%rbp)
    abb6:	48 8d 05 43 a9 00 00 	lea    0xa943(%rip),%rax        # 15500 <g_223>
    abbd:	48 89 85 78 f8 ff ff 	mov    %rax,-0x788(%rbp)
    abc4:	48 8d 05 35 a9 00 00 	lea    0xa935(%rip),%rax        # 15500 <g_223>
    abcb:	48 89 85 80 f8 ff ff 	mov    %rax,-0x780(%rbp)
    abd2:	48 8d 05 27 a9 00 00 	lea    0xa927(%rip),%rax        # 15500 <g_223>
    abd9:	48 89 85 88 f8 ff ff 	mov    %rax,-0x778(%rbp)
    abe0:	66 c7 85 72 f7 ff ff 	movw   $0x6942,-0x88e(%rbp)
    abe7:	42 69 
    abe9:	48 8d 85 e0 fb ff ff 	lea    -0x420(%rbp),%rax
    abf0:	48 8d 15 09 69 00 00 	lea    0x6909(%rip),%rdx        # 11500 <g_1636+0x49a>
    abf7:	b9 2d 00 00 00       	mov    $0x2d,%ecx
    abfc:	48 89 c7             	mov    %rax,%rdi
    abff:	48 89 d6             	mov    %rdx,%rsi
    ac02:	f3 48 a5             	rep movsq %ds:(%rsi),%es:(%rdi)
    ac05:	c7 85 90 f7 ff ff 01 	movl   $0x1,-0x870(%rbp)
    ac0c:	00 00 00 
    ac0f:	c7 85 94 f7 ff ff 71 	movl   $0x917af171,-0x86c(%rbp)
    ac16:	f1 7a 91 
    ac19:	48 8d 05 a0 ba 00 00 	lea    0xbaa0(%rip),%rax        # 166c0 <g_81>
    ac20:	48 89 85 00 f8 ff ff 	mov    %rax,-0x800(%rbp)
    ac27:	c7 85 78 f7 ff ff 00 	movl   $0x0,-0x888(%rbp)
    ac2e:	00 00 00 
    ac31:	eb 1e                	jmp    ac51 <func_9+0x746>
    ac33:	8b 85 78 f7 ff ff    	mov    -0x888(%rbp),%eax
    ac39:	48 98                	cltq   
    ac3b:	48 8d 15 16 aa 00 00 	lea    0xaa16(%rip),%rdx        # 15658 <g_867>
    ac42:	48 89 94 c5 40 f8 ff 	mov    %rdx,-0x7c0(%rbp,%rax,8)
    ac49:	ff 
    ac4a:	83 85 78 f7 ff ff 01 	addl   $0x1,-0x888(%rbp)
    ac51:	83 bd 78 f7 ff ff 01 	cmpl   $0x1,-0x888(%rbp)
    ac58:	7e d9                	jle    ac33 <func_9+0x728>
    ac5a:	8b 9d 54 f7 ff ff    	mov    -0x8ac(%rbp),%ebx
    ac60:	8b 85 54 f7 ff ff    	mov    -0x8ac(%rbp),%eax
    ac66:	44 0f b7 e0          	movzwl %ax,%r12d
    ac6a:	8b 05 2c a8 00 00    	mov    0xa82c(%rip),%eax        # 1549c <g_87+0x7c>
    ac70:	4c 63 e8             	movslq %eax,%r13
    ac73:	8b 05 b7 a9 00 00    	mov    0xa9b7(%rip),%eax        # 15630 <g_612>
    ac79:	89 c2                	mov    %eax,%edx
    ac7b:	8b 85 80 f7 ff ff    	mov    -0x880(%rbp),%eax
    ac81:	48 89 d6             	mov    %rdx,%rsi
    ac84:	48 89 c7             	mov    %rax,%rdi
    ac87:	e8 28 bd ff ff       	callq  69b4 <safe_mod_func_int64_t_s_s>
    ac8c:	48 8b 85 58 f7 ff ff 	mov    -0x8a8(%rbp),%rax
    ac93:	8b 00                	mov    (%rax),%eax
    ac95:	85 c0                	test   %eax,%eax
    ac97:	74 50                	je     ace9 <func_9+0x7de>
    ac99:	8b 85 54 f7 ff ff    	mov    -0x8ac(%rbp),%eax
    ac9f:	44 0f bf f0          	movswl %ax,%r14d
    aca3:	8b 85 80 f7 ff ff    	mov    -0x880(%rbp),%eax
    aca9:	0f bf d0             	movswl %ax,%edx
    acac:	8b 85 80 f7 ff ff    	mov    -0x880(%rbp),%eax
    acb2:	98                   	cwtl   
    acb3:	89 d6                	mov    %edx,%esi
    acb5:	89 c7                	mov    %eax,%edi
    acb7:	e8 f7 b6 ff ff       	callq  63b3 <safe_add_func_int16_t_s_s>
    acbc:	98                   	cwtl   
    acbd:	44 89 f6             	mov    %r14d,%esi
    acc0:	89 c7                	mov    %eax,%edi
    acc2:	e8 0c b7 ff ff       	callq  63d3 <safe_sub_func_int16_t_s_s>
    acc7:	83 bd 54 f7 ff ff 01 	cmpl   $0x1,-0x8ac(%rbp)
    acce:	0f 97 c0             	seta   %al
    acd1:	0f b6 c0             	movzbl %al,%eax
    acd4:	39 85 80 f7 ff ff    	cmp    %eax,-0x880(%rbp)
    acda:	0f 95 c0             	setne  %al
    acdd:	0f b6 c0             	movzbl %al,%eax
    ace0:	89 c7                	mov    %eax,%edi
    ace2:	e8 af b8 ff ff       	callq  6596 <safe_unary_minus_func_int32_t_s>
    ace7:	85 c0                	test   %eax,%eax
    ace9:	48 8b 05 e8 b9 00 00 	mov    0xb9e8(%rip),%rax        # 166d8 <g_203>
    acf0:	48 8b 00             	mov    (%rax),%rax
    acf3:	89 85 88 f7 ff ff    	mov    %eax,-0x878(%rbp)
    acf9:	8b 85 88 f7 ff ff    	mov    -0x878(%rbp),%eax
    acff:	48 98                	cltq   
    ad01:	4c 89 ee             	mov    %r13,%rsi
    ad04:	48 89 c7             	mov    %rax,%rdi
    ad07:	e8 74 c3 ff ff       	callq  7080 <safe_mod_func_uint64_t_u_u>
    ad0c:	48 3d a9 95 30 0e    	cmp    $0xe3095a9,%rax
    ad12:	0f 96 c0             	setbe  %al
    ad15:	0f b6 d0             	movzbl %al,%edx
    ad18:	48 8b 05 b1 b9 00 00 	mov    0xb9b1(%rip),%rax        # 166d0 <g_82>
    ad1f:	0f b6 00             	movzbl (%rax),%eax
    ad22:	0f b6 c0             	movzbl %al,%eax
    ad25:	39 c2                	cmp    %eax,%edx
    ad27:	0f 94 c0             	sete   %al
    ad2a:	0f b6 c0             	movzbl %al,%eax
    ad2d:	89 c7                	mov    %eax,%edi
    ad2f:	e8 62 b8 ff ff       	callq  6596 <safe_unary_minus_func_int32_t_s>
    ad34:	85 c0                	test   %eax,%eax
    ad36:	74 10                	je     ad48 <func_9+0x83d>
    ad38:	83 bd 88 f7 ff ff 00 	cmpl   $0x0,-0x878(%rbp)
    ad3f:	74 07                	je     ad48 <func_9+0x83d>
    ad41:	b8 01 00 00 00       	mov    $0x1,%eax
    ad46:	eb 05                	jmp    ad4d <func_9+0x842>
    ad48:	b8 00 00 00 00       	mov    $0x0,%eax
    ad4d:	0f bf d0             	movswl %ax,%edx
    ad50:	8b 85 80 f7 ff ff    	mov    -0x880(%rbp),%eax
    ad56:	48 89 05 73 a7 00 00 	mov    %rax,0xa773(%rip)        # 154d0 <g_166>
    ad5d:	48 8b 05 6c a7 00 00 	mov    0xa76c(%rip),%rax        # 154d0 <g_166>
    ad64:	89 85 84 f7 ff ff    	mov    %eax,-0x87c(%rbp)
    ad6a:	8b 85 84 f7 ff ff    	mov    -0x87c(%rbp),%eax
    ad70:	66 25 0d dc          	and    $0xdc0d,%ax
    ad74:	98                   	cwtl   
    ad75:	89 d6                	mov    %edx,%esi
    ad77:	89 c7                	mov    %eax,%edi
    ad79:	e8 d7 b6 ff ff       	callq  6455 <safe_div_func_int16_t_s_s>
    ad7e:	98                   	cwtl   
    ad7f:	8b 95 80 f7 ff ff    	mov    -0x880(%rbp),%edx
    ad85:	89 d6                	mov    %edx,%esi
    ad87:	89 c7                	mov    %eax,%edi
    ad89:	e8 97 c1 ff ff       	callq  6f25 <safe_div_func_uint32_t_u_u>
    ad8e:	0f b7 c0             	movzwl %ax,%eax
    ad91:	44 89 e6             	mov    %r12d,%esi
    ad94:	89 c7                	mov    %eax,%edi
    ad96:	e8 f3 bf ff ff       	callq  6d8e <safe_div_func_uint16_t_u_u>
    ad9b:	0f b7 c0             	movzwl %ax,%eax
    ad9e:	89 de                	mov    %ebx,%esi
    ada0:	89 c7                	mov    %eax,%edi
    ada2:	e8 17 c0 ff ff       	callq  6dbe <safe_lshift_func_uint16_t_u_s>
    ada7:	66 85 c0             	test   %ax,%ax
    adaa:	75 0b                	jne    adb7 <func_9+0x8ac>
    adac:	0f b6 05 65 a6 00 00 	movzbl 0xa665(%rip),%eax        # 15418 <g_83>
    adb3:	84 c0                	test   %al,%al
    adb5:	74 07                	je     adbe <func_9+0x8b3>
    adb7:	b8 01 00 00 00       	mov    $0x1,%eax
    adbc:	eb 05                	jmp    adc3 <func_9+0x8b8>
    adbe:	b8 00 00 00 00       	mov    $0x0,%eax
    adc3:	0f b6 c0             	movzbl %al,%eax
    adc6:	be 05 00 00 00       	mov    $0x5,%esi
    adcb:	89 c7                	mov    %eax,%edi
    adcd:	e8 33 be ff ff       	callq  6c05 <safe_lshift_func_uint8_t_u_s>
    add2:	8b 95 80 f7 ff ff    	mov    -0x880(%rbp),%edx
    add8:	48 8b 85 48 f7 ff ff 	mov    -0x8b8(%rbp),%rax
    addf:	8b 00                	mov    (%rax),%eax
    ade1:	31 d0                	xor    %edx,%eax
    ade3:	89 c2                	mov    %eax,%edx
    ade5:	48 8b 85 48 f7 ff ff 	mov    -0x8b8(%rbp),%rax
    adec:	89 10                	mov    %edx,(%rax)
    adee:	c7 05 70 ac 00 00 02 	movl   $0x2,0xac70(%rip)        # 15a68 <g_923>
    adf5:	00 00 00 
    adf8:	e9 45 03 00 00       	jmpq   b142 <func_9+0xc37>
    adfd:	48 c7 85 b0 f7 ff ff 	movq   $0x0,-0x850(%rbp)
    ae04:	00 00 00 00 
    ae08:	48 8d 85 b0 f7 ff ff 	lea    -0x850(%rbp),%rax
    ae0f:	48 89 85 08 f8 ff ff 	mov    %rax,-0x7f8(%rbp)
    ae16:	c7 85 50 f9 ff ff ff 	movl   $0xffffffff,-0x6b0(%rbp)
    ae1d:	ff ff ff 
    ae20:	c7 85 54 f9 ff ff 00 	movl   $0x0,-0x6ac(%rbp)
    ae27:	00 00 00 
    ae2a:	c7 85 58 f9 ff ff ff 	movl   $0xffffffff,-0x6a8(%rbp)
    ae31:	ff ff ff 
    ae34:	c7 85 5c f9 ff ff 6d 	movl   $0x321ded6d,-0x6a4(%rbp)
    ae3b:	ed 1d 32 
    ae3e:	c7 85 60 f9 ff ff f1 	movl   $0x7fc90ff1,-0x6a0(%rbp)
    ae45:	0f c9 7f 
    ae48:	c7 85 64 f9 ff ff 6d 	movl   $0x321ded6d,-0x69c(%rbp)
    ae4f:	ed 1d 32 
    ae52:	c7 85 68 f9 ff ff ff 	movl   $0xffffffff,-0x698(%rbp)
    ae59:	ff ff ff 
    ae5c:	c7 85 6c f9 ff ff 00 	movl   $0x0,-0x694(%rbp)
    ae63:	00 00 00 
    ae66:	c7 85 70 f9 ff ff ff 	movl   $0xffffffff,-0x690(%rbp)
    ae6d:	ff ff ff 
    ae70:	c7 85 74 f9 ff ff 6d 	movl   $0x321ded6d,-0x68c(%rbp)
    ae77:	ed 1d 32 
    ae7a:	c7 85 78 f9 ff ff f1 	movl   $0x7fc90ff1,-0x688(%rbp)
    ae81:	0f c9 7f 
    ae84:	c7 85 7c f9 ff ff 6d 	movl   $0x321ded6d,-0x684(%rbp)
    ae8b:	ed 1d 32 
    ae8e:	c7 85 80 f9 ff ff ff 	movl   $0xffffffff,-0x680(%rbp)
    ae95:	ff ff ff 
    ae98:	c7 85 84 f9 ff ff 00 	movl   $0x0,-0x67c(%rbp)
    ae9f:	00 00 00 
    aea2:	c7 85 88 f9 ff ff ff 	movl   $0xffffffff,-0x678(%rbp)
    aea9:	ff ff ff 
    aeac:	c7 85 98 f7 ff ff ff 	movl   $0xffffffff,-0x868(%rbp)
    aeb3:	ff ff ff 
    aeb6:	c6 85 6d f7 ff ff 0c 	movb   $0xc,-0x893(%rbp)
    aebd:	48 b8 bf 6b 81 45 a3 	movabs $0xebc528a345816bbf,%rax
    aec4:	28 c5 eb 
    aec7:	48 89 85 10 f8 ff ff 	mov    %rax,-0x7f0(%rbp)
    aece:	48 c7 85 18 f8 ff ff 	movq   $0xfffffffffffffffa,-0x7e8(%rbp)
    aed5:	fa ff ff ff 
    aed9:	48 8d 05 2c cb 00 00 	lea    0xcb2c(%rip),%rax        # 17a0c <g_116>
    aee0:	48 89 85 b8 f7 ff ff 	mov    %rax,-0x848(%rbp)
    aee7:	48 8d 85 b8 f7 ff ff 	lea    -0x848(%rbp),%rax
    aeee:	48 89 85 90 f9 ff ff 	mov    %rax,-0x670(%rbp)
    aef5:	48 8d 85 b8 f7 ff ff 	lea    -0x848(%rbp),%rax
    aefc:	48 89 85 98 f9 ff ff 	mov    %rax,-0x668(%rbp)
    af03:	48 8d 85 b8 f7 ff ff 	lea    -0x848(%rbp),%rax
    af0a:	48 89 85 a0 f9 ff ff 	mov    %rax,-0x660(%rbp)
    af11:	48 8d 85 b8 f7 ff ff 	lea    -0x848(%rbp),%rax
    af18:	48 89 85 a8 f9 ff ff 	mov    %rax,-0x658(%rbp)
    af1f:	48 8d 85 b8 f7 ff ff 	lea    -0x848(%rbp),%rax
    af26:	48 89 85 b0 f9 ff ff 	mov    %rax,-0x650(%rbp)
    af2d:	48 8d 85 b8 f7 ff ff 	lea    -0x848(%rbp),%rax
    af34:	48 89 85 b8 f9 ff ff 	mov    %rax,-0x648(%rbp)
    af3b:	48 8d 85 b8 f7 ff ff 	lea    -0x848(%rbp),%rax
    af42:	48 89 85 c0 f9 ff ff 	mov    %rax,-0x640(%rbp)
    af49:	48 8d 85 b8 f7 ff ff 	lea    -0x848(%rbp),%rax
    af50:	48 89 85 c8 f9 ff ff 	mov    %rax,-0x638(%rbp)
    af57:	48 8d 05 f2 a6 00 00 	lea    0xa6f2(%rip),%rax        # 15650 <g_830>
    af5e:	48 89 85 90 f8 ff ff 	mov    %rax,-0x770(%rbp)
    af65:	48 8d 05 e4 a6 00 00 	lea    0xa6e4(%rip),%rax        # 15650 <g_830>
    af6c:	48 89 85 98 f8 ff ff 	mov    %rax,-0x768(%rbp)
    af73:	48 8d 05 d6 a6 00 00 	lea    0xa6d6(%rip),%rax        # 15650 <g_830>
    af7a:	48 89 85 a0 f8 ff ff 	mov    %rax,-0x760(%rbp)
    af81:	48 8d 05 c8 a6 00 00 	lea    0xa6c8(%rip),%rax        # 15650 <g_830>
    af88:	48 89 85 a8 f8 ff ff 	mov    %rax,-0x758(%rbp)
    af8f:	48 8d 85 90 f8 ff ff 	lea    -0x770(%rbp),%rax
    af96:	48 83 c0 10          	add    $0x10,%rax
    af9a:	48 89 85 c0 f7 ff ff 	mov    %rax,-0x840(%rbp)
    afa1:	48 8d 85 c0 f7 ff ff 	lea    -0x840(%rbp),%rax
    afa8:	48 89 85 c8 f7 ff ff 	mov    %rax,-0x838(%rbp)
    afaf:	48 8d 05 fa b9 00 00 	lea    0xb9fa(%rip),%rax        # 169b0 <g_915+0x90>
    afb6:	48 89 85 10 f9 ff ff 	mov    %rax,-0x6f0(%rbp)
    afbd:	48 8d 85 50 fd ff ff 	lea    -0x2b0(%rbp),%rax
    afc4:	48 05 20 02 00 00    	add    $0x220,%rax
    afca:	48 89 85 18 f9 ff ff 	mov    %rax,-0x6e8(%rbp)
    afd1:	48 8d 05 d8 b9 00 00 	lea    0xb9d8(%rip),%rax        # 169b0 <g_915+0x90>
    afd8:	48 89 85 20 f9 ff ff 	mov    %rax,-0x6e0(%rbp)
    afdf:	48 8d 05 ca b9 00 00 	lea    0xb9ca(%rip),%rax        # 169b0 <g_915+0x90>
    afe6:	48 89 85 28 f9 ff ff 	mov    %rax,-0x6d8(%rbp)
    afed:	48 8d 85 50 fd ff ff 	lea    -0x2b0(%rbp),%rax
    aff4:	48 05 20 02 00 00    	add    $0x220,%rax
    affa:	48 89 85 30 f9 ff ff 	mov    %rax,-0x6d0(%rbp)
    b001:	48 8d 05 a8 b9 00 00 	lea    0xb9a8(%rip),%rax        # 169b0 <g_915+0x90>
    b008:	48 89 85 38 f9 ff ff 	mov    %rax,-0x6c8(%rbp)
    b00f:	48 8d 05 9a b9 00 00 	lea    0xb99a(%rip),%rax        # 169b0 <g_915+0x90>
    b016:	48 89 85 40 f9 ff ff 	mov    %rax,-0x6c0(%rbp)
    b01d:	48 8d 05 6c b8 00 00 	lea    0xb86c(%rip),%rax        # 16890 <g_815>
    b024:	48 89 85 20 f8 ff ff 	mov    %rax,-0x7e0(%rbp)
    b02b:	66 c7 85 74 f7 ff ff 	movw   $0x5,-0x88c(%rbp)
    b032:	05 00 
    b034:	48 8d 85 50 f9 ff ff 	lea    -0x6b0(%rbp),%rax
    b03b:	48 83 c0 2c          	add    $0x2c,%rax
    b03f:	48 89 85 28 f8 ff ff 	mov    %rax,-0x7d8(%rbp)
    b046:	c7 85 9c f7 ff ff 01 	movl   $0x1,-0x864(%rbp)
    b04d:	00 00 00 
    b050:	c7 85 a0 f7 ff ff 01 	movl   $0x1,-0x860(%rbp)
    b057:	00 00 00 
    b05a:	66 c7 85 76 f7 ff ff 	movw   $0x7d68,-0x88a(%rbp)
    b061:	68 7d 
    b063:	48 b8 b3 50 87 f8 32 	movabs $0x9234b232f88750b3,%rax
    b06a:	b2 34 92 
    b06d:	48 89 85 30 f8 ff ff 	mov    %rax,-0x7d0(%rbp)
    b074:	48 8d 85 b0 f7 ff ff 	lea    -0x850(%rbp),%rax
    b07b:	48 89 85 38 f8 ff ff 	mov    %rax,-0x7c8(%rbp)
    b082:	c6 85 6e f7 ff ff 01 	movb   $0x1,-0x892(%rbp)
    b089:	c7 85 a4 f7 ff ff 92 	movl   $0xc16d2b92,-0x85c(%rbp)
    b090:	2b 6d c1 
    b093:	c6 85 6f f7 ff ff 1c 	movb   $0x1c,-0x891(%rbp)
    b09a:	c7 85 7c f7 ff ff 00 	movl   $0x0,-0x884(%rbp)
    b0a1:	00 00 00 
    b0a4:	eb 1a                	jmp    b0c0 <func_9+0xbb5>
    b0a6:	8b 85 7c f7 ff ff    	mov    -0x884(%rbp),%eax
    b0ac:	48 98                	cltq   
    b0ae:	c7 84 85 b0 f8 ff ff 	movl   $0xa79ef82f,-0x750(%rbp,%rax,4)
    b0b5:	2f f8 9e a7 
    b0b9:	83 85 7c f7 ff ff 01 	addl   $0x1,-0x884(%rbp)
    b0c0:	83 bd 7c f7 ff ff 09 	cmpl   $0x9,-0x884(%rbp)
    b0c7:	7e dd                	jle    b0a6 <func_9+0xb9b>
    b0c9:	c7 85 7c f7 ff ff 00 	movl   $0x0,-0x884(%rbp)
    b0d0:	00 00 00 
    b0d3:	eb 22                	jmp    b0f7 <func_9+0xbec>
    b0d5:	8b 85 7c f7 ff ff    	mov    -0x884(%rbp),%eax
    b0db:	48 98                	cltq   
    b0dd:	48 8d 95 40 f8 ff ff 	lea    -0x7c0(%rbp),%rdx
    b0e4:	48 83 c2 08          	add    $0x8,%rdx
    b0e8:	48 89 94 c5 e0 f8 ff 	mov    %rdx,-0x720(%rbp,%rax,8)
    b0ef:	ff 
    b0f0:	83 85 7c f7 ff ff 01 	addl   $0x1,-0x884(%rbp)
    b0f7:	83 bd 7c f7 ff ff 05 	cmpl   $0x5,-0x884(%rbp)
    b0fe:	7e d5                	jle    b0d5 <func_9+0xbca>
    b100:	c7 85 7c f7 ff ff 00 	movl   $0x0,-0x884(%rbp)
    b107:	00 00 00 
    b10a:	eb 1e                	jmp    b12a <func_9+0xc1f>
    b10c:	8b 85 7c f7 ff ff    	mov    -0x884(%rbp),%eax
    b112:	48 98                	cltq   
    b114:	48 8d 95 c8 f7 ff ff 	lea    -0x838(%rbp),%rdx
    b11b:	48 89 94 c5 50 f8 ff 	mov    %rdx,-0x7b0(%rbp,%rax,8)
    b122:	ff 
    b123:	83 85 7c f7 ff ff 01 	addl   $0x1,-0x884(%rbp)
    b12a:	83 bd 7c f7 ff ff 02 	cmpl   $0x2,-0x884(%rbp)
    b131:	7e d9                	jle    b10c <func_9+0xc01>
    b133:	8b 05 2f a9 00 00    	mov    0xa92f(%rip),%eax        # 15a68 <g_923>
    b139:	83 e8 01             	sub    $0x1,%eax
    b13c:	89 05 26 a9 00 00    	mov    %eax,0xa926(%rip)        # 15a68 <g_923>
    b142:	8b 05 20 a9 00 00    	mov    0xa920(%rip),%eax        # 15a68 <g_923>
    b148:	85 c0                	test   %eax,%eax
    b14a:	0f 89 ad fc ff ff    	jns    adfd <func_9+0x8f2>
    b150:	48 8b 85 48 f7 ff ff 	mov    -0x8b8(%rbp),%rax
    b157:	48 8b 5d d8          	mov    -0x28(%rbp),%rbx
    b15b:	64 48 33 1c 25 28 00 	xor    %fs:0x28,%rbx
    b162:	00 00 
    b164:	74 05                	je     b16b <func_9+0xc60>
    b166:	e8 05 af ff ff       	callq  6070 <__stack_chk_fail@plt>
    b16b:	48 81 c4 a0 08 00 00 	add    $0x8a0,%rsp
    b172:	5b                   	pop    %rbx
    b173:	41 5c                	pop    %r12
    b175:	41 5d                	pop    %r13
    b177:	41 5e                	pop    %r14
    b179:	5d                   	pop    %rbp
    b17a:	c3                   	retq   

000000000000b17b <func_13>:
    b17b:	f3 0f 1e fa          	endbr64 
    b17f:	55                   	push   %rbp
    b180:	48 89 e5             	mov    %rsp,%rbp
    b183:	41 57                	push   %r15
    b185:	41 56                	push   %r14
    b187:	41 55                	push   %r13
    b189:	41 54                	push   %r12
    b18b:	53                   	push   %rbx
    b18c:	48 81 ec a8 06 00 00 	sub    $0x6a8,%rsp
    b193:	89 bd 3c f9 ff ff    	mov    %edi,-0x6c4(%rbp)
    b199:	64 48 8b 04 25 28 00 	mov    %fs:0x28,%rax
    b1a0:	00 00 
    b1a2:	48 89 45 c8          	mov    %rax,-0x38(%rbp)
    b1a6:	31 c0                	xor    %eax,%eax
    b1a8:	48 8d 05 61 a2 00 00 	lea    0xa261(%rip),%rax        # 15410 <g_25>
    b1af:	48 89 85 58 f9 ff ff 	mov    %rax,-0x6a8(%rbp)
    b1b6:	c7 85 50 f9 ff ff 08 	movl   $0x8,-0x6b0(%rbp)
    b1bd:	00 00 00 
    b1c0:	48 8d 05 09 b5 00 00 	lea    0xb509(%rip),%rax        # 166d0 <g_82>
    b1c7:	48 89 85 c0 fa ff ff 	mov    %rax,-0x540(%rbp)
    b1ce:	48 8d 05 fb b4 00 00 	lea    0xb4fb(%rip),%rax        # 166d0 <g_82>
    b1d5:	48 89 85 c8 fa ff ff 	mov    %rax,-0x538(%rbp)
    b1dc:	48 8d 05 ed b4 00 00 	lea    0xb4ed(%rip),%rax        # 166d0 <g_82>
    b1e3:	48 89 85 d0 fa ff ff 	mov    %rax,-0x530(%rbp)
    b1ea:	48 8d 05 df b4 00 00 	lea    0xb4df(%rip),%rax        # 166d0 <g_82>
    b1f1:	48 89 85 d8 fa ff ff 	mov    %rax,-0x528(%rbp)
    b1f8:	48 8d 05 d1 b4 00 00 	lea    0xb4d1(%rip),%rax        # 166d0 <g_82>
    b1ff:	48 89 85 e0 fa ff ff 	mov    %rax,-0x520(%rbp)
    b206:	48 8d 05 c3 b4 00 00 	lea    0xb4c3(%rip),%rax        # 166d0 <g_82>
    b20d:	48 89 85 e8 fa ff ff 	mov    %rax,-0x518(%rbp)
    b214:	48 c7 85 f0 fa ff ff 	movq   $0x0,-0x510(%rbp)
    b21b:	00 00 00 00 
    b21f:	48 8d 85 58 f9 ff ff 	lea    -0x6a8(%rbp),%rax
    b226:	48 89 85 f8 fa ff ff 	mov    %rax,-0x508(%rbp)
    b22d:	48 8d 05 9c b4 00 00 	lea    0xb49c(%rip),%rax        # 166d0 <g_82>
    b234:	48 89 85 00 fb ff ff 	mov    %rax,-0x500(%rbp)
    b23b:	48 8d 85 58 f9 ff ff 	lea    -0x6a8(%rbp),%rax
    b242:	48 89 85 08 fb ff ff 	mov    %rax,-0x4f8(%rbp)
    b249:	48 8d 05 80 b4 00 00 	lea    0xb480(%rip),%rax        # 166d0 <g_82>
    b250:	48 89 85 10 fb ff ff 	mov    %rax,-0x4f0(%rbp)
    b257:	48 8d 85 58 f9 ff ff 	lea    -0x6a8(%rbp),%rax
    b25e:	48 89 85 18 fb ff ff 	mov    %rax,-0x4e8(%rbp)
    b265:	48 8d 05 64 b4 00 00 	lea    0xb464(%rip),%rax        # 166d0 <g_82>
    b26c:	48 89 85 20 fb ff ff 	mov    %rax,-0x4e0(%rbp)
    b273:	48 8d 85 58 f9 ff ff 	lea    -0x6a8(%rbp),%rax
    b27a:	48 89 85 28 fb ff ff 	mov    %rax,-0x4d8(%rbp)
    b281:	48 8d 85 58 f9 ff ff 	lea    -0x6a8(%rbp),%rax
    b288:	48 89 85 30 fb ff ff 	mov    %rax,-0x4d0(%rbp)
    b28f:	48 8d 05 3a b4 00 00 	lea    0xb43a(%rip),%rax        # 166d0 <g_82>
    b296:	48 89 85 38 fb ff ff 	mov    %rax,-0x4c8(%rbp)
    b29d:	48 c7 85 40 fb ff ff 	movq   $0x0,-0x4c0(%rbp)
    b2a4:	00 00 00 00 
    b2a8:	48 8d 05 21 b4 00 00 	lea    0xb421(%rip),%rax        # 166d0 <g_82>
    b2af:	48 89 85 48 fb ff ff 	mov    %rax,-0x4b8(%rbp)
    b2b6:	48 8d 85 58 f9 ff ff 	lea    -0x6a8(%rbp),%rax
    b2bd:	48 89 85 50 fb ff ff 	mov    %rax,-0x4b0(%rbp)
    b2c4:	48 c7 85 58 fb ff ff 	movq   $0x0,-0x4a8(%rbp)
    b2cb:	00 00 00 00 
    b2cf:	48 8d 05 fa b3 00 00 	lea    0xb3fa(%rip),%rax        # 166d0 <g_82>
    b2d6:	48 89 85 60 fb ff ff 	mov    %rax,-0x4a0(%rbp)
    b2dd:	48 8d 05 ec b3 00 00 	lea    0xb3ec(%rip),%rax        # 166d0 <g_82>
    b2e4:	48 89 85 68 fb ff ff 	mov    %rax,-0x498(%rbp)
    b2eb:	48 c7 85 70 fb ff ff 	movq   $0x0,-0x490(%rbp)
    b2f2:	00 00 00 00 
    b2f6:	48 8d 85 58 f9 ff ff 	lea    -0x6a8(%rbp),%rax
    b2fd:	48 89 85 78 fb ff ff 	mov    %rax,-0x488(%rbp)
    b304:	48 8d 05 c5 b3 00 00 	lea    0xb3c5(%rip),%rax        # 166d0 <g_82>
    b30b:	48 89 85 80 fb ff ff 	mov    %rax,-0x480(%rbp)
    b312:	48 8d 05 b7 b3 00 00 	lea    0xb3b7(%rip),%rax        # 166d0 <g_82>
    b319:	48 89 85 88 fb ff ff 	mov    %rax,-0x478(%rbp)
    b320:	48 8d 05 a9 b3 00 00 	lea    0xb3a9(%rip),%rax        # 166d0 <g_82>
    b327:	48 89 85 90 fb ff ff 	mov    %rax,-0x470(%rbp)
    b32e:	48 8d 05 9b b3 00 00 	lea    0xb39b(%rip),%rax        # 166d0 <g_82>
    b335:	48 89 85 98 fb ff ff 	mov    %rax,-0x468(%rbp)
    b33c:	48 8d 85 58 f9 ff ff 	lea    -0x6a8(%rbp),%rax
    b343:	48 89 85 a0 fb ff ff 	mov    %rax,-0x460(%rbp)
    b34a:	48 8d 85 58 f9 ff ff 	lea    -0x6a8(%rbp),%rax
    b351:	48 89 85 a8 fb ff ff 	mov    %rax,-0x458(%rbp)
    b358:	48 8d 05 71 b3 00 00 	lea    0xb371(%rip),%rax        # 166d0 <g_82>
    b35f:	48 89 85 b0 fb ff ff 	mov    %rax,-0x450(%rbp)
    b366:	48 c7 85 b8 fb ff ff 	movq   $0x0,-0x448(%rbp)
    b36d:	00 00 00 00 
    b371:	48 8d 05 58 b3 00 00 	lea    0xb358(%rip),%rax        # 166d0 <g_82>
    b378:	48 89 85 c0 fb ff ff 	mov    %rax,-0x440(%rbp)
    b37f:	48 8d 05 4a b3 00 00 	lea    0xb34a(%rip),%rax        # 166d0 <g_82>
    b386:	48 89 85 c8 fb ff ff 	mov    %rax,-0x438(%rbp)
    b38d:	48 8d 05 3c b3 00 00 	lea    0xb33c(%rip),%rax        # 166d0 <g_82>
    b394:	48 89 85 d0 fb ff ff 	mov    %rax,-0x430(%rbp)
    b39b:	48 8d 85 58 f9 ff ff 	lea    -0x6a8(%rbp),%rax
    b3a2:	48 89 85 d8 fb ff ff 	mov    %rax,-0x428(%rbp)
    b3a9:	48 8d 85 58 f9 ff ff 	lea    -0x6a8(%rbp),%rax
    b3b0:	48 89 85 e0 fb ff ff 	mov    %rax,-0x420(%rbp)
    b3b7:	48 8d 85 58 f9 ff ff 	lea    -0x6a8(%rbp),%rax
    b3be:	48 89 85 e8 fb ff ff 	mov    %rax,-0x418(%rbp)
    b3c5:	48 8d 05 04 b3 00 00 	lea    0xb304(%rip),%rax        # 166d0 <g_82>
    b3cc:	48 89 85 f0 fb ff ff 	mov    %rax,-0x410(%rbp)
    b3d3:	48 c7 85 f8 fb ff ff 	movq   $0x0,-0x408(%rbp)
    b3da:	00 00 00 00 
    b3de:	48 8d 05 eb b2 00 00 	lea    0xb2eb(%rip),%rax        # 166d0 <g_82>
    b3e5:	48 89 85 00 fc ff ff 	mov    %rax,-0x400(%rbp)
    b3ec:	48 8d 85 58 f9 ff ff 	lea    -0x6a8(%rbp),%rax
    b3f3:	48 89 85 08 fc ff ff 	mov    %rax,-0x3f8(%rbp)
    b3fa:	48 8d 05 cf b2 00 00 	lea    0xb2cf(%rip),%rax        # 166d0 <g_82>
    b401:	48 89 85 10 fc ff ff 	mov    %rax,-0x3f0(%rbp)
    b408:	48 8d 05 c1 b2 00 00 	lea    0xb2c1(%rip),%rax        # 166d0 <g_82>
    b40f:	48 89 85 18 fc ff ff 	mov    %rax,-0x3e8(%rbp)
    b416:	48 8d 85 58 f9 ff ff 	lea    -0x6a8(%rbp),%rax
    b41d:	48 89 85 20 fc ff ff 	mov    %rax,-0x3e0(%rbp)
    b424:	48 8d 85 58 f9 ff ff 	lea    -0x6a8(%rbp),%rax
    b42b:	48 89 85 28 fc ff ff 	mov    %rax,-0x3d8(%rbp)
    b432:	48 8d 05 97 b2 00 00 	lea    0xb297(%rip),%rax        # 166d0 <g_82>
    b439:	48 89 85 30 fc ff ff 	mov    %rax,-0x3d0(%rbp)
    b440:	48 8d 85 58 f9 ff ff 	lea    -0x6a8(%rbp),%rax
    b447:	48 89 85 38 fc ff ff 	mov    %rax,-0x3c8(%rbp)
    b44e:	48 c7 85 40 fc ff ff 	movq   $0x0,-0x3c0(%rbp)
    b455:	00 00 00 00 
    b459:	48 c7 85 48 fc ff ff 	movq   $0x0,-0x3b8(%rbp)
    b460:	00 00 00 00 
    b464:	48 c7 85 50 fc ff ff 	movq   $0x0,-0x3b0(%rbp)
    b46b:	00 00 00 00 
    b46f:	48 c7 85 58 fc ff ff 	movq   $0x0,-0x3a8(%rbp)
    b476:	00 00 00 00 
    b47a:	48 8d 85 58 f9 ff ff 	lea    -0x6a8(%rbp),%rax
    b481:	48 89 85 60 fc ff ff 	mov    %rax,-0x3a0(%rbp)
    b488:	48 8d 05 41 b2 00 00 	lea    0xb241(%rip),%rax        # 166d0 <g_82>
    b48f:	48 89 85 68 fc ff ff 	mov    %rax,-0x398(%rbp)
    b496:	48 c7 85 70 fc ff ff 	movq   $0x0,-0x390(%rbp)
    b49d:	00 00 00 00 
    b4a1:	48 8d 05 28 b2 00 00 	lea    0xb228(%rip),%rax        # 166d0 <g_82>
    b4a8:	48 89 85 78 fc ff ff 	mov    %rax,-0x388(%rbp)
    b4af:	48 8d 85 58 f9 ff ff 	lea    -0x6a8(%rbp),%rax
    b4b6:	48 89 85 80 fc ff ff 	mov    %rax,-0x380(%rbp)
    b4bd:	48 8d 85 58 f9 ff ff 	lea    -0x6a8(%rbp),%rax
    b4c4:	48 89 85 88 fc ff ff 	mov    %rax,-0x378(%rbp)
    b4cb:	48 8d 05 fe b1 00 00 	lea    0xb1fe(%rip),%rax        # 166d0 <g_82>
    b4d2:	48 89 85 90 fc ff ff 	mov    %rax,-0x370(%rbp)
    b4d9:	48 8d 85 58 f9 ff ff 	lea    -0x6a8(%rbp),%rax
    b4e0:	48 89 85 98 fc ff ff 	mov    %rax,-0x368(%rbp)
    b4e7:	48 8d 85 58 f9 ff ff 	lea    -0x6a8(%rbp),%rax
    b4ee:	48 89 85 a0 fc ff ff 	mov    %rax,-0x360(%rbp)
    b4f5:	48 8d 85 58 f9 ff ff 	lea    -0x6a8(%rbp),%rax
    b4fc:	48 89 85 a8 fc ff ff 	mov    %rax,-0x358(%rbp)
    b503:	48 8d 05 c6 b1 00 00 	lea    0xb1c6(%rip),%rax        # 166d0 <g_82>
    b50a:	48 89 85 b0 fc ff ff 	mov    %rax,-0x350(%rbp)
    b511:	48 8d 85 58 f9 ff ff 	lea    -0x6a8(%rbp),%rax
    b518:	48 89 85 b8 fc ff ff 	mov    %rax,-0x348(%rbp)
    b51f:	48 c7 85 c0 fc ff ff 	movq   $0x0,-0x340(%rbp)
    b526:	00 00 00 00 
    b52a:	48 8d 85 58 f9 ff ff 	lea    -0x6a8(%rbp),%rax
    b531:	48 89 85 c8 fc ff ff 	mov    %rax,-0x338(%rbp)
    b538:	48 8d 85 58 f9 ff ff 	lea    -0x6a8(%rbp),%rax
    b53f:	48 89 85 d0 fc ff ff 	mov    %rax,-0x330(%rbp)
    b546:	48 8d 05 83 b1 00 00 	lea    0xb183(%rip),%rax        # 166d0 <g_82>
    b54d:	48 89 85 d8 fc ff ff 	mov    %rax,-0x328(%rbp)
    b554:	48 8d 05 75 b1 00 00 	lea    0xb175(%rip),%rax        # 166d0 <g_82>
    b55b:	48 89 85 e0 fc ff ff 	mov    %rax,-0x320(%rbp)
    b562:	48 8d 05 67 b1 00 00 	lea    0xb167(%rip),%rax        # 166d0 <g_82>
    b569:	48 89 85 e8 fc ff ff 	mov    %rax,-0x318(%rbp)
    b570:	48 8d 05 59 b1 00 00 	lea    0xb159(%rip),%rax        # 166d0 <g_82>
    b577:	48 89 85 f0 fc ff ff 	mov    %rax,-0x310(%rbp)
    b57e:	48 8d 85 58 f9 ff ff 	lea    -0x6a8(%rbp),%rax
    b585:	48 89 85 f8 fc ff ff 	mov    %rax,-0x308(%rbp)
    b58c:	48 8d 05 3d b1 00 00 	lea    0xb13d(%rip),%rax        # 166d0 <g_82>
    b593:	48 89 85 00 fd ff ff 	mov    %rax,-0x300(%rbp)
    b59a:	48 c7 85 08 fd ff ff 	movq   $0x0,-0x2f8(%rbp)
    b5a1:	00 00 00 00 
    b5a5:	48 8d 85 58 f9 ff ff 	lea    -0x6a8(%rbp),%rax
    b5ac:	48 89 85 10 fd ff ff 	mov    %rax,-0x2f0(%rbp)
    b5b3:	48 8d 05 16 b1 00 00 	lea    0xb116(%rip),%rax        # 166d0 <g_82>
    b5ba:	48 89 85 18 fd ff ff 	mov    %rax,-0x2e8(%rbp)
    b5c1:	48 c7 85 20 fd ff ff 	movq   $0x0,-0x2e0(%rbp)
    b5c8:	00 00 00 00 
    b5cc:	48 8d 05 fd b0 00 00 	lea    0xb0fd(%rip),%rax        # 166d0 <g_82>
    b5d3:	48 89 85 28 fd ff ff 	mov    %rax,-0x2d8(%rbp)
    b5da:	48 8d 05 ef b0 00 00 	lea    0xb0ef(%rip),%rax        # 166d0 <g_82>
    b5e1:	48 89 85 30 fd ff ff 	mov    %rax,-0x2d0(%rbp)
    b5e8:	48 8d 85 58 f9 ff ff 	lea    -0x6a8(%rbp),%rax
    b5ef:	48 89 85 38 fd ff ff 	mov    %rax,-0x2c8(%rbp)
    b5f6:	48 8d 05 d3 b0 00 00 	lea    0xb0d3(%rip),%rax        # 166d0 <g_82>
    b5fd:	48 89 85 40 fd ff ff 	mov    %rax,-0x2c0(%rbp)
    b604:	48 8d 05 c5 b0 00 00 	lea    0xb0c5(%rip),%rax        # 166d0 <g_82>
    b60b:	48 89 85 48 fd ff ff 	mov    %rax,-0x2b8(%rbp)
    b612:	48 8d 85 58 f9 ff ff 	lea    -0x6a8(%rbp),%rax
    b619:	48 89 85 50 fd ff ff 	mov    %rax,-0x2b0(%rbp)
    b620:	48 8d 05 a9 b0 00 00 	lea    0xb0a9(%rip),%rax        # 166d0 <g_82>
    b627:	48 89 85 58 fd ff ff 	mov    %rax,-0x2a8(%rbp)
    b62e:	48 8d 05 9b b0 00 00 	lea    0xb09b(%rip),%rax        # 166d0 <g_82>
    b635:	48 89 85 60 fd ff ff 	mov    %rax,-0x2a0(%rbp)
    b63c:	48 8d 85 58 f9 ff ff 	lea    -0x6a8(%rbp),%rax
    b643:	48 89 85 68 fd ff ff 	mov    %rax,-0x298(%rbp)
    b64a:	48 8d 05 7f b0 00 00 	lea    0xb07f(%rip),%rax        # 166d0 <g_82>
    b651:	48 89 85 70 fd ff ff 	mov    %rax,-0x290(%rbp)
    b658:	48 8d 05 71 b0 00 00 	lea    0xb071(%rip),%rax        # 166d0 <g_82>
    b65f:	48 89 85 78 fd ff ff 	mov    %rax,-0x288(%rbp)
    b666:	48 8d 05 63 b0 00 00 	lea    0xb063(%rip),%rax        # 166d0 <g_82>
    b66d:	48 89 85 80 fd ff ff 	mov    %rax,-0x280(%rbp)
    b674:	48 8d 85 58 f9 ff ff 	lea    -0x6a8(%rbp),%rax
    b67b:	48 89 85 88 fd ff ff 	mov    %rax,-0x278(%rbp)
    b682:	48 8d 05 47 b0 00 00 	lea    0xb047(%rip),%rax        # 166d0 <g_82>
    b689:	48 89 85 90 fd ff ff 	mov    %rax,-0x270(%rbp)
    b690:	48 8d 05 39 b0 00 00 	lea    0xb039(%rip),%rax        # 166d0 <g_82>
    b697:	48 89 85 98 fd ff ff 	mov    %rax,-0x268(%rbp)
    b69e:	48 8d 85 58 f9 ff ff 	lea    -0x6a8(%rbp),%rax
    b6a5:	48 89 85 a0 fd ff ff 	mov    %rax,-0x260(%rbp)
    b6ac:	48 8d 85 58 f9 ff ff 	lea    -0x6a8(%rbp),%rax
    b6b3:	48 89 85 a8 fd ff ff 	mov    %rax,-0x258(%rbp)
    b6ba:	48 c7 85 b0 fd ff ff 	movq   $0x0,-0x250(%rbp)
    b6c1:	00 00 00 00 
    b6c5:	48 8d 05 04 b0 00 00 	lea    0xb004(%rip),%rax        # 166d0 <g_82>
    b6cc:	48 89 85 b8 fd ff ff 	mov    %rax,-0x248(%rbp)
    b6d3:	48 8d 05 f6 af 00 00 	lea    0xaff6(%rip),%rax        # 166d0 <g_82>
    b6da:	48 89 85 c0 fd ff ff 	mov    %rax,-0x240(%rbp)
    b6e1:	48 8d 05 e8 af 00 00 	lea    0xafe8(%rip),%rax        # 166d0 <g_82>
    b6e8:	48 89 85 c8 fd ff ff 	mov    %rax,-0x238(%rbp)
    b6ef:	48 c7 85 d0 fd ff ff 	movq   $0x0,-0x230(%rbp)
    b6f6:	00 00 00 00 
    b6fa:	48 8d 05 cf af 00 00 	lea    0xafcf(%rip),%rax        # 166d0 <g_82>
    b701:	48 89 85 d8 fd ff ff 	mov    %rax,-0x228(%rbp)
    b708:	48 8d 05 c1 af 00 00 	lea    0xafc1(%rip),%rax        # 166d0 <g_82>
    b70f:	48 89 85 e0 fd ff ff 	mov    %rax,-0x220(%rbp)
    b716:	48 c7 85 e8 fd ff ff 	movq   $0x0,-0x218(%rbp)
    b71d:	00 00 00 00 
    b721:	48 8d 05 a8 af 00 00 	lea    0xafa8(%rip),%rax        # 166d0 <g_82>
    b728:	48 89 85 f0 fd ff ff 	mov    %rax,-0x210(%rbp)
    b72f:	48 8d 05 9a af 00 00 	lea    0xaf9a(%rip),%rax        # 166d0 <g_82>
    b736:	48 89 85 f8 fd ff ff 	mov    %rax,-0x208(%rbp)
    b73d:	48 8d 85 58 f9 ff ff 	lea    -0x6a8(%rbp),%rax
    b744:	48 89 85 00 fe ff ff 	mov    %rax,-0x200(%rbp)
    b74b:	48 8d 05 7e af 00 00 	lea    0xaf7e(%rip),%rax        # 166d0 <g_82>
    b752:	48 89 85 08 fe ff ff 	mov    %rax,-0x1f8(%rbp)
    b759:	48 8d 05 70 af 00 00 	lea    0xaf70(%rip),%rax        # 166d0 <g_82>
    b760:	48 89 85 10 fe ff ff 	mov    %rax,-0x1f0(%rbp)
    b767:	48 8d 05 62 af 00 00 	lea    0xaf62(%rip),%rax        # 166d0 <g_82>
    b76e:	48 89 85 18 fe ff ff 	mov    %rax,-0x1e8(%rbp)
    b775:	48 8d 05 54 af 00 00 	lea    0xaf54(%rip),%rax        # 166d0 <g_82>
    b77c:	48 89 85 20 fe ff ff 	mov    %rax,-0x1e0(%rbp)
    b783:	48 8d 85 58 f9 ff ff 	lea    -0x6a8(%rbp),%rax
    b78a:	48 89 85 28 fe ff ff 	mov    %rax,-0x1d8(%rbp)
    b791:	48 8d 05 38 af 00 00 	lea    0xaf38(%rip),%rax        # 166d0 <g_82>
    b798:	48 89 85 30 fe ff ff 	mov    %rax,-0x1d0(%rbp)
    b79f:	48 8d 85 58 f9 ff ff 	lea    -0x6a8(%rbp),%rax
    b7a6:	48 89 85 38 fe ff ff 	mov    %rax,-0x1c8(%rbp)
    b7ad:	48 8d 05 1c af 00 00 	lea    0xaf1c(%rip),%rax        # 166d0 <g_82>
    b7b4:	48 89 85 40 fe ff ff 	mov    %rax,-0x1c0(%rbp)
    b7bb:	48 8d 85 58 f9 ff ff 	lea    -0x6a8(%rbp),%rax
    b7c2:	48 89 85 48 fe ff ff 	mov    %rax,-0x1b8(%rbp)
    b7c9:	48 8d 05 00 af 00 00 	lea    0xaf00(%rip),%rax        # 166d0 <g_82>
    b7d0:	48 89 85 50 fe ff ff 	mov    %rax,-0x1b0(%rbp)
    b7d7:	48 8d 85 58 f9 ff ff 	lea    -0x6a8(%rbp),%rax
    b7de:	48 89 85 58 fe ff ff 	mov    %rax,-0x1a8(%rbp)
    b7e5:	48 8d 05 e4 ae 00 00 	lea    0xaee4(%rip),%rax        # 166d0 <g_82>
    b7ec:	48 89 85 60 fe ff ff 	mov    %rax,-0x1a0(%rbp)
    b7f3:	48 8d 85 58 f9 ff ff 	lea    -0x6a8(%rbp),%rax
    b7fa:	48 89 85 68 fe ff ff 	mov    %rax,-0x198(%rbp)
    b801:	48 8d 85 58 f9 ff ff 	lea    -0x6a8(%rbp),%rax
    b808:	48 89 85 70 fe ff ff 	mov    %rax,-0x190(%rbp)
    b80f:	48 8d 05 ba ae 00 00 	lea    0xaeba(%rip),%rax        # 166d0 <g_82>
    b816:	48 89 85 78 fe ff ff 	mov    %rax,-0x188(%rbp)
    b81d:	48 8d 05 ac ae 00 00 	lea    0xaeac(%rip),%rax        # 166d0 <g_82>
    b824:	48 89 85 80 fe ff ff 	mov    %rax,-0x180(%rbp)
    b82b:	48 8d 85 58 f9 ff ff 	lea    -0x6a8(%rbp),%rax
    b832:	48 89 85 88 fe ff ff 	mov    %rax,-0x178(%rbp)
    b839:	48 8d 05 90 ae 00 00 	lea    0xae90(%rip),%rax        # 166d0 <g_82>
    b840:	48 89 85 90 fe ff ff 	mov    %rax,-0x170(%rbp)
    b847:	48 8d 85 58 f9 ff ff 	lea    -0x6a8(%rbp),%rax
    b84e:	48 89 85 98 fe ff ff 	mov    %rax,-0x168(%rbp)
    b855:	48 8d 05 74 ae 00 00 	lea    0xae74(%rip),%rax        # 166d0 <g_82>
    b85c:	48 89 85 a0 fe ff ff 	mov    %rax,-0x160(%rbp)
    b863:	48 c7 85 a8 fe ff ff 	movq   $0x0,-0x158(%rbp)
    b86a:	00 00 00 00 
    b86e:	48 8d 85 58 f9 ff ff 	lea    -0x6a8(%rbp),%rax
    b875:	48 89 85 b0 fe ff ff 	mov    %rax,-0x150(%rbp)
    b87c:	48 8d 85 58 f9 ff ff 	lea    -0x6a8(%rbp),%rax
    b883:	48 89 85 b8 fe ff ff 	mov    %rax,-0x148(%rbp)
    b88a:	48 8d 05 3f ae 00 00 	lea    0xae3f(%rip),%rax        # 166d0 <g_82>
    b891:	48 89 85 c0 fe ff ff 	mov    %rax,-0x140(%rbp)
    b898:	48 8d 85 58 f9 ff ff 	lea    -0x6a8(%rbp),%rax
    b89f:	48 89 85 c8 fe ff ff 	mov    %rax,-0x138(%rbp)
    b8a6:	48 c7 85 d0 fe ff ff 	movq   $0x0,-0x130(%rbp)
    b8ad:	00 00 00 00 
    b8b1:	48 8d 05 18 ae 00 00 	lea    0xae18(%rip),%rax        # 166d0 <g_82>
    b8b8:	48 89 85 d8 fe ff ff 	mov    %rax,-0x128(%rbp)
    b8bf:	48 8d 05 0a ae 00 00 	lea    0xae0a(%rip),%rax        # 166d0 <g_82>
    b8c6:	48 89 85 e0 fe ff ff 	mov    %rax,-0x120(%rbp)
    b8cd:	48 c7 85 e8 fe ff ff 	movq   $0x0,-0x118(%rbp)
    b8d4:	00 00 00 00 
    b8d8:	48 8d 85 58 f9 ff ff 	lea    -0x6a8(%rbp),%rax
    b8df:	48 89 85 f0 fe ff ff 	mov    %rax,-0x110(%rbp)
    b8e6:	48 8d 05 e3 ad 00 00 	lea    0xade3(%rip),%rax        # 166d0 <g_82>
    b8ed:	48 89 85 f8 fe ff ff 	mov    %rax,-0x108(%rbp)
    b8f4:	48 8d 05 d5 ad 00 00 	lea    0xadd5(%rip),%rax        # 166d0 <g_82>
    b8fb:	48 89 85 00 ff ff ff 	mov    %rax,-0x100(%rbp)
    b902:	48 8d 85 58 f9 ff ff 	lea    -0x6a8(%rbp),%rax
    b909:	48 89 85 08 ff ff ff 	mov    %rax,-0xf8(%rbp)
    b910:	48 c7 85 10 ff ff ff 	movq   $0x0,-0xf0(%rbp)
    b917:	00 00 00 00 
    b91b:	48 8d 85 58 f9 ff ff 	lea    -0x6a8(%rbp),%rax
    b922:	48 89 85 18 ff ff ff 	mov    %rax,-0xe8(%rbp)
    b929:	48 c7 85 20 ff ff ff 	movq   $0x0,-0xe0(%rbp)
    b930:	00 00 00 00 
    b934:	48 8d 85 58 f9 ff ff 	lea    -0x6a8(%rbp),%rax
    b93b:	48 89 85 28 ff ff ff 	mov    %rax,-0xd8(%rbp)
    b942:	48 8d 05 87 ad 00 00 	lea    0xad87(%rip),%rax        # 166d0 <g_82>
    b949:	48 89 85 30 ff ff ff 	mov    %rax,-0xd0(%rbp)
    b950:	48 8d 05 79 ad 00 00 	lea    0xad79(%rip),%rax        # 166d0 <g_82>
    b957:	48 89 85 38 ff ff ff 	mov    %rax,-0xc8(%rbp)
    b95e:	48 8d 85 58 f9 ff ff 	lea    -0x6a8(%rbp),%rax
    b965:	48 89 85 40 ff ff ff 	mov    %rax,-0xc0(%rbp)
    b96c:	48 8d 05 5d ad 00 00 	lea    0xad5d(%rip),%rax        # 166d0 <g_82>
    b973:	48 89 85 48 ff ff ff 	mov    %rax,-0xb8(%rbp)
    b97a:	48 8d 85 58 f9 ff ff 	lea    -0x6a8(%rbp),%rax
    b981:	48 89 85 50 ff ff ff 	mov    %rax,-0xb0(%rbp)
    b988:	48 8d 05 41 ad 00 00 	lea    0xad41(%rip),%rax        # 166d0 <g_82>
    b98f:	48 89 85 58 ff ff ff 	mov    %rax,-0xa8(%rbp)
    b996:	48 8d 85 58 f9 ff ff 	lea    -0x6a8(%rbp),%rax
    b99d:	48 89 85 60 ff ff ff 	mov    %rax,-0xa0(%rbp)
    b9a4:	48 8d 85 58 f9 ff ff 	lea    -0x6a8(%rbp),%rax
    b9ab:	48 89 85 68 ff ff ff 	mov    %rax,-0x98(%rbp)
    b9b2:	48 8d 85 58 f9 ff ff 	lea    -0x6a8(%rbp),%rax
    b9b9:	48 89 85 70 ff ff ff 	mov    %rax,-0x90(%rbp)
    b9c0:	48 8d 85 58 f9 ff ff 	lea    -0x6a8(%rbp),%rax
    b9c7:	48 89 85 78 ff ff ff 	mov    %rax,-0x88(%rbp)
    b9ce:	48 8d 05 fb ac 00 00 	lea    0xacfb(%rip),%rax        # 166d0 <g_82>
    b9d5:	48 89 45 80          	mov    %rax,-0x80(%rbp)
    b9d9:	48 8d 05 f0 ac 00 00 	lea    0xacf0(%rip),%rax        # 166d0 <g_82>
    b9e0:	48 89 45 88          	mov    %rax,-0x78(%rbp)
    b9e4:	48 8d 05 e5 ac 00 00 	lea    0xace5(%rip),%rax        # 166d0 <g_82>
    b9eb:	48 89 45 90          	mov    %rax,-0x70(%rbp)
    b9ef:	48 8d 05 da ac 00 00 	lea    0xacda(%rip),%rax        # 166d0 <g_82>
    b9f6:	48 89 45 98          	mov    %rax,-0x68(%rbp)
    b9fa:	48 8d 85 58 f9 ff ff 	lea    -0x6a8(%rbp),%rax
    ba01:	48 89 45 a0          	mov    %rax,-0x60(%rbp)
    ba05:	48 8d 05 c4 ac 00 00 	lea    0xacc4(%rip),%rax        # 166d0 <g_82>
    ba0c:	48 89 45 a8          	mov    %rax,-0x58(%rbp)
    ba10:	48 8d 05 b9 ac 00 00 	lea    0xacb9(%rip),%rax        # 166d0 <g_82>
    ba17:	48 89 45 b0          	mov    %rax,-0x50(%rbp)
    ba1b:	48 8d 85 58 f9 ff ff 	lea    -0x6a8(%rbp),%rax
    ba22:	48 89 45 b8          	mov    %rax,-0x48(%rbp)
    ba26:	c6 85 4e f9 ff ff 01 	movb   $0x1,-0x6b2(%rbp)
    ba2d:	48 8d 05 d8 99 00 00 	lea    0x99d8(%rip),%rax        # 1540c <g_8>
    ba34:	48 89 85 78 f9 ff ff 	mov    %rax,-0x688(%rbp)
    ba3b:	48 8d 05 06 9c 00 00 	lea    0x9c06(%rip),%rax        # 15648 <g_760>
    ba42:	48 89 85 80 f9 ff ff 	mov    %rax,-0x680(%rbp)
    ba49:	48 8d 05 80 9a 00 00 	lea    0x9a80(%rip),%rax        # 154d0 <g_166>
    ba50:	48 89 85 88 f9 ff ff 	mov    %rax,-0x678(%rbp)
    ba57:	48 8d 05 fa 9b 00 00 	lea    0x9bfa(%rip),%rax        # 15658 <g_867>
    ba5e:	48 89 85 90 f9 ff ff 	mov    %rax,-0x670(%rbp)
    ba65:	48 c7 85 10 fa ff ff 	movq   $0x0,-0x5f0(%rbp)
    ba6c:	00 00 00 00 
    ba70:	48 b8 67 4e e3 38 20 	movabs $0xf59d322038e34e67,%rax
    ba77:	32 9d f5 
    ba7a:	48 89 85 18 fa ff ff 	mov    %rax,-0x5e8(%rbp)
    ba81:	48 89 85 20 fa ff ff 	mov    %rax,-0x5e0(%rbp)
    ba88:	48 c7 85 28 fa ff ff 	movq   $0x0,-0x5d8(%rbp)
    ba8f:	00 00 00 00 
    ba93:	48 89 85 30 fa ff ff 	mov    %rax,-0x5d0(%rbp)
    ba9a:	48 89 85 38 fa ff ff 	mov    %rax,-0x5c8(%rbp)
    baa1:	48 c7 85 40 fa ff ff 	movq   $0x0,-0x5c0(%rbp)
    baa8:	00 00 00 00 
    baac:	48 89 85 48 fa ff ff 	mov    %rax,-0x5b8(%rbp)
    bab3:	48 89 85 50 fa ff ff 	mov    %rax,-0x5b0(%rbp)
    baba:	48 c7 85 58 fa ff ff 	movq   $0x0,-0x5a8(%rbp)
    bac1:	00 00 00 00 
    bac5:	48 89 85 60 fa ff ff 	mov    %rax,-0x5a0(%rbp)
    bacc:	48 89 85 68 fa ff ff 	mov    %rax,-0x598(%rbp)
    bad3:	48 c7 85 70 fa ff ff 	movq   $0x0,-0x590(%rbp)
    bada:	00 00 00 00 
    bade:	48 89 85 78 fa ff ff 	mov    %rax,-0x588(%rbp)
    bae5:	48 89 85 80 fa ff ff 	mov    %rax,-0x580(%rbp)
    baec:	48 c7 85 88 fa ff ff 	movq   $0x0,-0x578(%rbp)
    baf3:	00 00 00 00 
    baf7:	48 89 85 90 fa ff ff 	mov    %rax,-0x570(%rbp)
    bafe:	48 89 85 98 fa ff ff 	mov    %rax,-0x568(%rbp)
    bb05:	48 c7 85 a0 fa ff ff 	movq   $0x0,-0x560(%rbp)
    bb0c:	00 00 00 00 
    bb10:	48 89 85 a8 fa ff ff 	mov    %rax,-0x558(%rbp)
    bb17:	48 89 85 b0 fa ff ff 	mov    %rax,-0x550(%rbp)
    bb1e:	48 8d 85 50 f9 ff ff 	lea    -0x6b0(%rbp),%rax
    bb25:	48 89 85 98 f9 ff ff 	mov    %rax,-0x668(%rbp)
    bb2c:	48 c7 85 d0 f9 ff ff 	movq   $0xfffffffffffffffb,-0x630(%rbp)
    bb33:	fb ff ff ff 
    bb37:	48 c7 85 d8 f9 ff ff 	movq   $0xfffffffffffffffb,-0x628(%rbp)
    bb3e:	fb ff ff ff 
    bb42:	48 c7 85 e0 f9 ff ff 	movq   $0xfffffffffffffffb,-0x620(%rbp)
    bb49:	fb ff ff ff 
    bb4d:	48 c7 85 e8 f9 ff ff 	movq   $0xfffffffffffffffb,-0x618(%rbp)
    bb54:	fb ff ff ff 
    bb58:	48 c7 85 f0 f9 ff ff 	movq   $0xfffffffffffffffb,-0x610(%rbp)
    bb5f:	fb ff ff ff 
    bb63:	48 c7 85 f8 f9 ff ff 	movq   $0xfffffffffffffffb,-0x608(%rbp)
    bb6a:	fb ff ff ff 
    bb6e:	48 c7 85 00 fa ff ff 	movq   $0xfffffffffffffffb,-0x600(%rbp)
    bb75:	fb ff ff ff 
    bb79:	48 8d 05 d4 9a 00 00 	lea    0x9ad4(%rip),%rax        # 15654 <g_862>
    bb80:	48 89 85 a0 f9 ff ff 	mov    %rax,-0x660(%rbp)
    bb87:	48 8d 05 aa 9a 00 00 	lea    0x9aaa(%rip),%rax        # 15638 <g_655>
    bb8e:	48 89 85 a8 f9 ff ff 	mov    %rax,-0x658(%rbp)
    bb95:	48 c7 85 b0 f9 ff ff 	movq   $0x0,-0x650(%rbp)
    bb9c:	00 00 00 00 
    bba0:	48 8d 05 b1 9e 00 00 	lea    0x9eb1(%rip),%rax        # 15a58 <g_906+0x3f8>
    bba7:	48 89 85 60 f9 ff ff 	mov    %rax,-0x6a0(%rbp)
    bbae:	48 8d 85 60 f9 ff ff 	lea    -0x6a0(%rbp),%rax
    bbb5:	48 89 85 68 f9 ff ff 	mov    %rax,-0x698(%rbp)
    bbbc:	48 8d 85 68 f9 ff ff 	lea    -0x698(%rbp),%rax
    bbc3:	48 89 85 70 f9 ff ff 	mov    %rax,-0x690(%rbp)
    bbca:	48 8d 85 70 f9 ff ff 	lea    -0x690(%rbp),%rax
    bbd1:	48 89 85 b8 f9 ff ff 	mov    %rax,-0x648(%rbp)
    bbd8:	c6 85 4f f9 ff ff ff 	movb   $0xff,-0x6b1(%rbp)
    bbdf:	48 c7 85 c0 f9 ff ff 	movq   $0x0,-0x640(%rbp)
    bbe6:	00 00 00 00 
    bbea:	48 8d 05 4f 9a 00 00 	lea    0x9a4f(%rip),%rax        # 15640 <g_659>
    bbf1:	48 89 85 c8 f9 ff ff 	mov    %rax,-0x638(%rbp)
    bbf8:	8b 05 0a 98 00 00    	mov    0x980a(%rip),%eax        # 15408 <g_5>
    bbfe:	89 c6                	mov    %eax,%esi
    bc00:	bf 78 07 54 ad       	mov    $0xad540778,%edi
    bc05:	e8 fb a9 ff ff       	callq  6605 <safe_sub_func_int32_t_s_s>
    bc0a:	85 c0                	test   %eax,%eax
    bc0c:	0f 84 ba 00 00 00    	je     bccc <func_13+0xb51>
    bc12:	48 8b 85 78 f9 ff ff 	mov    -0x688(%rbp),%rax
    bc19:	8b 00                	mov    (%rax),%eax
    bc1b:	44 0f b7 e0          	movzwl %ax,%r12d
    bc1f:	8b 85 50 f9 ff ff    	mov    -0x6b0(%rbp),%eax
    bc25:	41 89 c5             	mov    %eax,%r13d
    bc28:	48 0f be 9d 4e f9 ff 	movsbq -0x6b2(%rbp),%rbx
    bc2f:	ff 
    bc30:	8b 05 d6 97 00 00    	mov    0x97d6(%rip),%eax        # 1540c <g_8>
    bc36:	48 63 f8             	movslq %eax,%rdi
    bc39:	8b 95 3c f9 ff ff    	mov    -0x6c4(%rbp),%edx
    bc3f:	8b 85 50 f9 ff ff    	mov    -0x6b0(%rbp),%eax
    bc45:	41 89 c1             	mov    %eax,%r9d
    bc48:	8b 85 50 f9 ff ff    	mov    -0x6b0(%rbp),%eax
    bc4e:	f7 d0                	not    %eax
    bc50:	c1 e8 1f             	shr    $0x1f,%eax
    bc53:	0f b6 c8             	movzbl %al,%ecx
    bc56:	8b 05 ac 97 00 00    	mov    0x97ac(%rip),%eax        # 15408 <g_5>
    bc5c:	21 c1                	and    %eax,%ecx
    bc5e:	8b 85 3c f9 ff ff    	mov    -0x6c4(%rbp),%eax
    bc64:	39 c1                	cmp    %eax,%ecx
    bc66:	0f 9f c0             	setg   %al
    bc69:	0f b6 c0             	movzbl %al,%eax
    bc6c:	48 8d b5 50 f9 ff ff 	lea    -0x6b0(%rbp),%rsi
    bc73:	49 89 f8             	mov    %rdi,%r8
    bc76:	89 d1                	mov    %edx,%ecx
    bc78:	44 89 ca             	mov    %r9d,%edx
    bc7b:	89 c7                	mov    %eax,%edi
    bc7d:	e8 0b 2c 00 00       	callq  e88d <func_43>
    bc82:	48 89 05 47 aa 00 00 	mov    %rax,0xaa47(%rip)        # 166d0 <g_82>
    bc89:	48 8b 15 40 aa 00 00 	mov    0xaa40(%rip),%rdx        # 166d0 <g_82>
    bc90:	8b 05 72 97 00 00    	mov    0x9772(%rip),%eax        # 15408 <g_5>
    bc96:	0f b6 c0             	movzbl %al,%eax
    bc99:	be 00 00 00 00       	mov    $0x0,%esi
    bc9e:	89 c7                	mov    %eax,%edi
    bca0:	e8 c5 20 00 00       	callq  dd6a <func_38>
    bca5:	48 89 c7             	mov    %rax,%rdi
    bca8:	48 8b 85 78 f9 ff ff 	mov    -0x688(%rbp),%rax
    bcaf:	45 89 e0             	mov    %r12d,%r8d
    bcb2:	48 89 c1             	mov    %rax,%rcx
    bcb5:	44 89 ea             	mov    %r13d,%edx
    bcb8:	48 89 de             	mov    %rbx,%rsi
    bcbb:	e8 ce 03 00 00       	callq  c08e <func_32>
    bcc0:	66 85 c0             	test   %ax,%ax
    bcc3:	74 07                	je     bccc <func_13+0xb51>
    bcc5:	b8 01 00 00 00       	mov    $0x1,%eax
    bcca:	eb 05                	jmp    bcd1 <func_13+0xb56>
    bccc:	b8 00 00 00 00       	mov    $0x0,%eax
    bcd1:	89 c2                	mov    %eax,%edx
    bcd3:	8b 85 3c f9 ff ff    	mov    -0x6c4(%rbp),%eax
    bcd9:	09 d0                	or     %edx,%eax
    bcdb:	0f be c0             	movsbl %al,%eax
    bcde:	be 07 00 00 00       	mov    $0x7,%esi
    bce3:	89 c7                	mov    %eax,%edi
    bce5:	e8 4b a6 ff ff       	callq  6335 <safe_rshift_func_int8_t_s_s>
    bcea:	48 8b 85 58 f9 ff ff 	mov    -0x6a8(%rbp),%rax
    bcf1:	0f b6 10             	movzbl (%rax),%edx
    bcf4:	8d 4a 01             	lea    0x1(%rdx),%ecx
    bcf7:	88 08                	mov    %cl,(%rax)
    bcf9:	0f b6 c2             	movzbl %dl,%eax
    bcfc:	be 57 00 00 00       	mov    $0x57,%esi
    bd01:	89 c7                	mov    %eax,%edi
    bd03:	e8 44 af ff ff       	callq  6c4c <safe_lshift_func_uint8_t_u_u>
    bd08:	48 8b 85 78 f9 ff ff 	mov    -0x688(%rbp),%rax
    bd0f:	8b 10                	mov    (%rax),%edx
    bd11:	8b 05 f5 96 00 00    	mov    0x96f5(%rip),%eax        # 1540c <g_8>
    bd17:	89 d6                	mov    %edx,%esi
    bd19:	89 c7                	mov    %eax,%edi
    bd1b:	e8 96 a8 ff ff       	callq  65b6 <safe_add_func_int32_t_s_s>
    bd20:	48 63 d0             	movslq %eax,%rdx
    bd23:	48 8b 85 80 f9 ff ff 	mov    -0x680(%rbp),%rax
    bd2a:	48 89 10             	mov    %rdx,(%rax)
    bd2d:	48 8b 85 80 f9 ff ff 	mov    -0x680(%rbp),%rax
    bd34:	48 8b 10             	mov    (%rax),%rdx
    bd37:	48 8b 85 88 f9 ff ff 	mov    -0x678(%rbp),%rax
    bd3e:	48 89 10             	mov    %rdx,(%rax)
    bd41:	48 8b 85 88 f9 ff ff 	mov    -0x678(%rbp),%rax
    bd48:	48 8b 10             	mov    (%rax),%rdx
    bd4b:	48 8b 85 90 f9 ff ff 	mov    -0x670(%rbp),%rax
    bd52:	48 89 10             	mov    %rdx,(%rax)
    bd55:	48 8b 85 90 f9 ff ff 	mov    -0x670(%rbp),%rax
    bd5c:	48 8b 18             	mov    (%rax),%rbx
    bd5f:	8b 85 3c f9 ff ff    	mov    -0x6c4(%rbp),%eax
    bd65:	85 c0                	test   %eax,%eax
    bd67:	74 11                	je     bd7a <func_13+0xbff>
    bd69:	8b 05 35 94 00 00    	mov    0x9435(%rip),%eax        # 151a4 <g_3+0x164>
    bd6f:	85 c0                	test   %eax,%eax
    bd71:	74 07                	je     bd7a <func_13+0xbff>
    bd73:	b8 01 00 00 00       	mov    $0x1,%eax
    bd78:	eb 05                	jmp    bd7f <func_13+0xc04>
    bd7a:	b8 00 00 00 00       	mov    $0x0,%eax
    bd7f:	98                   	cwtl   
    bd80:	be 0b 00 00 00       	mov    $0xb,%esi
    bd85:	89 c7                	mov    %eax,%edi
    bd87:	e8 06 a7 ff ff       	callq  6492 <safe_lshift_func_int16_t_s_s>
    bd8c:	48 0f bf c0          	movswq %ax,%rax
    bd90:	48 89 de             	mov    %rbx,%rsi
    bd93:	48 89 c7             	mov    %rax,%rdi
    bd96:	e8 0d ab ff ff       	callq  68a8 <safe_sub_func_int64_t_s_s>
    bd9b:	48 8b 95 38 fa ff ff 	mov    -0x5c8(%rbp),%rdx
    bda2:	48 31 d0             	xor    %rdx,%rax
    bda5:	48 89 85 38 fa ff ff 	mov    %rax,-0x5c8(%rbp)
    bdac:	66 c7 05 5d 97 00 00 	movw   $0x9,0x975d(%rip)        # 15512 <g_315>
    bdb3:	09 00 
    bdb5:	eb 2e                	jmp    bde5 <func_13+0xc6a>
    bdb7:	c7 85 54 f9 ff ff f4 	movl   $0xcd3118f4,-0x6ac(%rbp)
    bdbe:	18 31 cd 
    bdc1:	83 bd 54 f9 ff ff 00 	cmpl   $0x0,-0x6ac(%rbp)
    bdc8:	75 2a                	jne    bdf4 <func_13+0xc79>
    bdca:	8b 85 3c f9 ff ff    	mov    -0x6c4(%rbp),%eax
    bdd0:	85 c0                	test   %eax,%eax
    bdd2:	75 23                	jne    bdf7 <func_13+0xc7c>
    bdd4:	0f b7 05 37 97 00 00 	movzwl 0x9737(%rip),%eax        # 15512 <g_315>
    bddb:	83 e8 01             	sub    $0x1,%eax
    bdde:	66 89 05 2d 97 00 00 	mov    %ax,0x972d(%rip)        # 15512 <g_315>
    bde5:	0f b7 05 26 97 00 00 	movzwl 0x9726(%rip),%eax        # 15512 <g_315>
    bdec:	66 83 f8 07          	cmp    $0x7,%ax
    bdf0:	7e c5                	jle    bdb7 <func_13+0xc3c>
    bdf2:	eb 04                	jmp    bdf8 <func_13+0xc7d>
    bdf4:	90                   	nop
    bdf5:	eb 01                	jmp    bdf8 <func_13+0xc7d>
    bdf7:	90                   	nop
    bdf8:	48 8b 85 78 f9 ff ff 	mov    -0x688(%rbp),%rax
    bdff:	8b 00                	mov    (%rax),%eax
    be01:	89 85 38 f9 ff ff    	mov    %eax,-0x6c8(%rbp)
    be07:	48 8b 85 78 f9 ff ff 	mov    -0x688(%rbp),%rax
    be0e:	8b 00                	mov    (%rax),%eax
    be10:	0f be d8             	movsbl %al,%ebx
    be13:	48 8b 85 98 f9 ff ff 	mov    -0x668(%rbp),%rax
    be1a:	8b 00                	mov    (%rax),%eax
    be1c:	25 8c d4 fb e6       	and    $0xe6fbd48c,%eax
    be21:	89 c2                	mov    %eax,%edx
    be23:	48 8b 85 98 f9 ff ff 	mov    -0x668(%rbp),%rax
    be2a:	89 10                	mov    %edx,(%rax)
    be2c:	48 8b 85 98 f9 ff ff 	mov    -0x668(%rbp),%rax
    be33:	8b 00                	mov    (%rax),%eax
    be35:	89 85 30 f9 ff ff    	mov    %eax,-0x6d0(%rbp)
    be3b:	48 8b 05 8e a8 00 00 	mov    0xa88e(%rip),%rax        # 166d0 <g_82>
    be42:	0f b6 00             	movzbl (%rax),%eax
    be45:	44 0f b6 e0          	movzbl %al,%r12d
    be49:	0f b7 05 d4 96 00 00 	movzwl 0x96d4(%rip),%eax        # 15524 <g_499>
    be50:	44 0f b7 e8          	movzwl %ax,%r13d
    be54:	48 8b 05 75 a8 00 00 	mov    0xa875(%rip),%rax        # 166d0 <g_82>
    be5b:	0f b6 00             	movzbl (%rax),%eax
    be5e:	0f b6 c0             	movzbl %al,%eax
    be61:	89 85 34 f9 ff ff    	mov    %eax,-0x6cc(%rbp)
    be67:	48 8b 05 62 a8 00 00 	mov    0xa862(%rip),%rax        # 166d0 <g_82>
    be6e:	0f b6 00             	movzbl (%rax),%eax
    be71:	44 0f be f0          	movsbl %al,%r14d
    be75:	48 8b 05 54 a8 00 00 	mov    0xa854(%rip),%rax        # 166d0 <g_82>
    be7c:	0f b6 00             	movzbl (%rax),%eax
    be7f:	44 0f be f8          	movsbl %al,%r15d
    be83:	48 8b 85 78 f9 ff ff 	mov    -0x688(%rbp),%rax
    be8a:	8b 00                	mov    (%rax),%eax
    be8c:	0f b6 c0             	movzbl %al,%eax
    be8f:	48 8b 95 a0 f9 ff ff 	mov    -0x660(%rbp),%rdx
    be96:	0f b7 12             	movzwl (%rdx),%edx
    be99:	89 d1                	mov    %edx,%ecx
    be9b:	83 c9 06             	or     $0x6,%ecx
    be9e:	48 8b 95 a0 f9 ff ff 	mov    -0x660(%rbp),%rdx
    bea5:	66 89 0a             	mov    %cx,(%rdx)
    bea8:	89 c6                	mov    %eax,%esi
    beaa:	bf 01 00 00 00       	mov    $0x1,%edi
    beaf:	e8 df ac ff ff       	callq  6b93 <safe_mul_func_uint8_t_u_u>
    beb4:	0f b6 c0             	movzbl %al,%eax
    beb7:	be 05 00 00 00       	mov    $0x5,%esi
    bebc:	89 c7                	mov    %eax,%edi
    bebe:	e8 89 ad ff ff       	callq  6c4c <safe_lshift_func_uint8_t_u_u>
    bec3:	0f b6 d0             	movzbl %al,%edx
    bec6:	48 8b 85 a8 f9 ff ff 	mov    -0x658(%rbp),%rax
    becd:	48 89 10             	mov    %rdx,(%rax)
    bed0:	48 8b 85 b8 f9 ff ff 	mov    -0x648(%rbp),%rax
    bed7:	48 c7 00 00 00 00 00 	movq   $0x0,(%rax)
    bede:	48 8b 85 b8 f9 ff ff 	mov    -0x648(%rbp),%rax
    bee5:	48 8b 00             	mov    (%rax),%rax
    bee8:	48 8d 15 a1 a9 00 00 	lea    0xa9a1(%rip),%rdx        # 16890 <g_815>
    beef:	48 39 d0             	cmp    %rdx,%rax
    bef2:	0f 94 c0             	sete   %al
    bef5:	0f b6 c0             	movzbl %al,%eax
    bef8:	48 89 c6             	mov    %rax,%rsi
    befb:	48 c7 c7 f9 ff ff ff 	mov    $0xfffffffffffffff9,%rdi
    bf02:	e8 ad aa ff ff       	callq  69b4 <safe_mod_func_int64_t_s_s>
    bf07:	48 8b 95 78 f9 ff ff 	mov    -0x688(%rbp),%rdx
    bf0e:	8b 12                	mov    (%rdx),%edx
    bf10:	48 63 d2             	movslq %edx,%rdx
    bf13:	48 09 c2             	or     %rax,%rdx
    bf16:	48 8b 85 78 f9 ff ff 	mov    -0x688(%rbp),%rax
    bf1d:	8b 00                	mov    (%rax),%eax
    bf1f:	48 98                	cltq   
    bf21:	48 39 c2             	cmp    %rax,%rdx
    bf24:	0f 9f c0             	setg   %al
    bf27:	0f b6 d0             	movzbl %al,%edx
    bf2a:	48 8b 85 88 f9 ff ff 	mov    -0x678(%rbp),%rax
    bf31:	48 89 10             	mov    %rdx,(%rax)
    bf34:	48 8b 85 88 f9 ff ff 	mov    -0x678(%rbp),%rax
    bf3b:	48 8b 10             	mov    (%rax),%rdx
    bf3e:	48 8b 85 78 f9 ff ff 	mov    -0x688(%rbp),%rax
    bf45:	8b 00                	mov    (%rax),%eax
    bf47:	48 98                	cltq   
    bf49:	48 39 c2             	cmp    %rax,%rdx
    bf4c:	0f 9e c0             	setle  %al
    bf4f:	0f b6 d0             	movzbl %al,%edx
    bf52:	48 8b 85 78 f9 ff ff 	mov    -0x688(%rbp),%rax
    bf59:	8b 00                	mov    (%rax),%eax
    bf5b:	39 c2                	cmp    %eax,%edx
    bf5d:	0f 95 c0             	setne  %al
    bf60:	0f b6 c0             	movzbl %al,%eax
    bf63:	44 89 fe             	mov    %r15d,%esi
    bf66:	89 c7                	mov    %eax,%edi
    bf68:	e8 fd a2 ff ff       	callq  626a <safe_div_func_int8_t_s_s>
    bf6d:	0f be c0             	movsbl %al,%eax
    bf70:	89 c7                	mov    %eax,%edi
    bf72:	e8 1f a6 ff ff       	callq  6596 <safe_unary_minus_func_int32_t_s>
    bf77:	0f b6 c0             	movzbl %al,%eax
    bf7a:	be 01 00 00 00       	mov    $0x1,%esi
    bf7f:	89 c7                	mov    %eax,%edi
    bf81:	e8 07 ad ff ff       	callq  6c8d <safe_rshift_func_uint8_t_u_s>
    bf86:	0f be c0             	movsbl %al,%eax
    bf89:	44 89 f6             	mov    %r14d,%esi
    bf8c:	89 c7                	mov    %eax,%edi
    bf8e:	e8 5f a2 ff ff       	callq  61f2 <safe_sub_func_int8_t_s_s>
    bf93:	0f be c0             	movsbl %al,%eax
    bf96:	39 85 34 f9 ff ff    	cmp    %eax,-0x6cc(%rbp)
    bf9c:	7d 0c                	jge    bfaa <func_13+0xe2f>
    bf9e:	0f b7 05 6d 95 00 00 	movzwl 0x956d(%rip),%eax        # 15512 <g_315>
    bfa5:	66 85 c0             	test   %ax,%ax
    bfa8:	74 07                	je     bfb1 <func_13+0xe36>
    bfaa:	b8 01 00 00 00       	mov    $0x1,%eax
    bfaf:	eb 05                	jmp    bfb6 <func_13+0xe3b>
    bfb1:	b8 00 00 00 00       	mov    $0x0,%eax
    bfb6:	0f b7 c0             	movzwl %ax,%eax
    bfb9:	44 89 ee             	mov    %r13d,%esi
    bfbc:	89 c7                	mov    %eax,%edi
    bfbe:	e8 7a ad ff ff       	callq  6d3d <safe_mul_func_uint16_t_u_u>
    bfc3:	0f b7 d0             	movzwl %ax,%edx
    bfc6:	0f be 85 4f f9 ff ff 	movsbl -0x6b1(%rbp),%eax
    bfcd:	39 c2                	cmp    %eax,%edx
    bfcf:	0f 95 c0             	setne  %al
    bfd2:	0f b6 c0             	movzbl %al,%eax
    bfd5:	be e5 00 00 00       	mov    $0xe5,%esi
    bfda:	89 c7                	mov    %eax,%edi
    bfdc:	e8 79 ab ff ff       	callq  6b5a <safe_add_func_uint8_t_u_u>
    bfe1:	0f b6 d0             	movzbl %al,%edx
    bfe4:	48 8b 85 78 f9 ff ff 	mov    -0x688(%rbp),%rax
    bfeb:	8b 00                	mov    (%rax),%eax
    bfed:	39 c2                	cmp    %eax,%edx
    bfef:	0f 94 c0             	sete   %al
    bff2:	0f b6 c0             	movzbl %al,%eax
    bff5:	44 89 e6             	mov    %r12d,%esi
    bff8:	89 c7                	mov    %eax,%edi
    bffa:	e8 dc ab ff ff       	callq  6bdb <safe_div_func_uint8_t_u_u>
    bfff:	8b 85 3c f9 ff ff    	mov    -0x6c4(%rbp),%eax
    c005:	23 85 30 f9 ff ff    	and    -0x6d0(%rbp),%eax
    c00b:	89 85 3c f9 ff ff    	mov    %eax,-0x6c4(%rbp)
    c011:	8b 95 3c f9 ff ff    	mov    -0x6c4(%rbp),%edx
    c017:	48 8b 85 78 f9 ff ff 	mov    -0x688(%rbp),%rax
    c01e:	48 3b 85 98 f9 ff ff 	cmp    -0x668(%rbp),%rax
    c025:	0f 95 c0             	setne  %al
    c028:	0f b6 c0             	movzbl %al,%eax
    c02b:	39 c2                	cmp    %eax,%edx
    c02d:	0f 9d c0             	setge  %al
    c030:	0f b6 c0             	movzbl %al,%eax
    c033:	89 de                	mov    %ebx,%esi
    c035:	89 c7                	mov    %eax,%edi
    c037:	e8 d6 a1 ff ff       	callq  6212 <safe_mul_func_int8_t_s_s>
    c03c:	0f be c0             	movsbl %al,%eax
    c03f:	8b b5 38 f9 ff ff    	mov    -0x6c8(%rbp),%esi
    c045:	89 c7                	mov    %eax,%edi
    c047:	e8 84 ae ff ff       	callq  6ed0 <safe_sub_func_uint32_t_u_u>
    c04c:	48 8b 95 c8 f9 ff ff 	mov    -0x638(%rbp),%rdx
    c053:	8b 12                	mov    (%rdx),%edx
    c055:	21 d0                	and    %edx,%eax
    c057:	89 c2                	mov    %eax,%edx
    c059:	48 8b 85 c8 f9 ff ff 	mov    -0x638(%rbp),%rax
    c060:	89 10                	mov    %edx,(%rax)
    c062:	8b 05 b4 93 00 00    	mov    0x93b4(%rip),%eax        # 1541c <g_84>
    c068:	48 8b 5d c8          	mov    -0x38(%rbp),%rbx
    c06c:	64 48 33 1c 25 28 00 	xor    %fs:0x28,%rbx
    c073:	00 00 
    c075:	74 05                	je     c07c <func_13+0xf01>
    c077:	e8 f4 9f ff ff       	callq  6070 <__stack_chk_fail@plt>
    c07c:	48 81 c4 a8 06 00 00 	add    $0x6a8,%rsp
    c083:	5b                   	pop    %rbx
    c084:	41 5c                	pop    %r12
    c086:	41 5d                	pop    %r13
    c088:	41 5e                	pop    %r14
    c08a:	41 5f                	pop    %r15
    c08c:	5d                   	pop    %rbp
    c08d:	c3                   	retq   

000000000000c08e <func_32>:
    c08e:	f3 0f 1e fa          	endbr64 
    c092:	55                   	push   %rbp
    c093:	48 89 e5             	mov    %rsp,%rbp
    c096:	41 56                	push   %r14
    c098:	41 55                	push   %r13
    c09a:	41 54                	push   %r12
    c09c:	53                   	push   %rbx
    c09d:	48 81 ec e0 09 00 00 	sub    $0x9e0,%rsp
    c0a4:	48 89 bd 18 f6 ff ff 	mov    %rdi,-0x9e8(%rbp)
    c0ab:	48 89 b5 10 f6 ff ff 	mov    %rsi,-0x9f0(%rbp)
    c0b2:	89 95 0c f6 ff ff    	mov    %edx,-0x9f4(%rbp)
    c0b8:	48 89 8d 00 f6 ff ff 	mov    %rcx,-0xa00(%rbp)
    c0bf:	44 89 c0             	mov    %r8d,%eax
    c0c2:	66 89 85 08 f6 ff ff 	mov    %ax,-0x9f8(%rbp)
    c0c9:	64 48 8b 04 25 28 00 	mov    %fs:0x28,%rax
    c0d0:	00 00 
    c0d2:	48 89 45 d8          	mov    %rax,-0x28(%rbp)
    c0d6:	31 c0                	xor    %eax,%eax
    c0d8:	c7 85 90 f8 ff ff e4 	movl   $0xc8ded1e4,-0x770(%rbp)
    c0df:	d1 de c8 
    c0e2:	c7 85 94 f8 ff ff f6 	movl   $0xfffffff6,-0x76c(%rbp)
    c0e9:	ff ff ff 
    c0ec:	c7 85 98 f8 ff ff e4 	movl   $0xc8ded1e4,-0x768(%rbp)
    c0f3:	d1 de c8 
    c0f6:	c7 85 9c f8 ff ff e4 	movl   $0xc8ded1e4,-0x764(%rbp)
    c0fd:	d1 de c8 
    c100:	c7 85 a0 f8 ff ff f6 	movl   $0xfffffff6,-0x760(%rbp)
    c107:	ff ff ff 
    c10a:	c7 85 a4 f8 ff ff e4 	movl   $0xc8ded1e4,-0x75c(%rbp)
    c111:	d1 de c8 
    c114:	c7 85 a8 f8 ff ff e4 	movl   $0xc8ded1e4,-0x758(%rbp)
    c11b:	d1 de c8 
    c11e:	c7 85 ac f8 ff ff f6 	movl   $0xfffffff6,-0x754(%rbp)
    c125:	ff ff ff 
    c128:	c7 85 b0 f8 ff ff e4 	movl   $0xc8ded1e4,-0x750(%rbp)
    c12f:	d1 de c8 
    c132:	48 8d 05 d3 b8 00 00 	lea    0xb8d3(%rip),%rax        # 17a0c <g_116>
    c139:	48 89 85 28 f7 ff ff 	mov    %rax,-0x8d8(%rbp)
    c140:	48 c7 85 c0 f6 ff ff 	movq   $0x0,-0x940(%rbp)
    c147:	00 00 00 00 
    c14b:	48 8d 05 7e 93 00 00 	lea    0x937e(%rip),%rax        # 154d0 <g_166>
    c152:	48 89 85 30 f7 ff ff 	mov    %rax,-0x8d0(%rbp)
    c159:	c6 85 23 f6 ff ff 01 	movb   $0x1,-0x9dd(%rbp)
    c160:	c7 85 30 f6 ff ff 05 	movl   $0x5,-0x9d0(%rbp)
    c167:	00 00 00 
    c16a:	48 c7 85 c8 f6 ff ff 	movq   $0xffffffffffffffff,-0x938(%rbp)
    c171:	ff ff ff ff 
    c175:	c7 85 34 f6 ff ff 00 	movl   $0x0,-0x9cc(%rbp)
    c17c:	00 00 00 
    c17f:	c7 85 64 f6 ff ff 2e 	movl   $0xd720b62e,-0x99c(%rbp)
    c186:	b6 20 d7 
    c189:	c7 85 68 f6 ff ff 07 	movl   $0xf05f6007,-0x998(%rbp)
    c190:	60 5f f0 
    c193:	48 c7 85 d0 f6 ff ff 	movq   $0x1,-0x930(%rbp)
    c19a:	01 00 00 00 
    c19e:	c7 85 40 f6 ff ff fc 	movl   $0xfffffffc,-0x9c0(%rbp)
    c1a5:	ff ff ff 
    c1a8:	c7 85 6c f6 ff ff 01 	movl   $0x1,-0x994(%rbp)
    c1af:	00 00 00 
    c1b2:	c7 85 70 f6 ff ff ff 	movl   $0xffffffff,-0x990(%rbp)
    c1b9:	ff ff ff 
    c1bc:	48 c7 85 38 f7 ff ff 	movq   $0x0,-0x8c8(%rbp)
    c1c3:	00 00 00 00 
    c1c7:	c7 85 74 f6 ff ff fb 	movl   $0xfffffffb,-0x98c(%rbp)
    c1ce:	ff ff ff 
    c1d1:	c7 85 60 f8 ff ff ff 	movl   $0xffffffff,-0x7a0(%rbp)
    c1d8:	ff ff ff 
    c1db:	c7 85 64 f8 ff ff ff 	movl   $0xffffffff,-0x79c(%rbp)
    c1e2:	ff ff ff 
    c1e5:	c7 85 68 f8 ff ff ff 	movl   $0xffffffff,-0x798(%rbp)
    c1ec:	ff ff ff 
    c1ef:	c7 85 6c f8 ff ff ff 	movl   $0xffffffff,-0x794(%rbp)
    c1f6:	ff ff ff 
    c1f9:	48 8d 85 60 f8 ff ff 	lea    -0x7a0(%rbp),%rax
    c200:	48 83 c0 0c          	add    $0xc,%rax
    c204:	48 89 85 d8 f6 ff ff 	mov    %rax,-0x928(%rbp)
    c20b:	48 8d 05 00 93 00 00 	lea    0x9300(%rip),%rax        # 15512 <g_315>
    c212:	48 89 85 e0 f6 ff ff 	mov    %rax,-0x920(%rbp)
    c219:	48 8d 85 e0 f6 ff ff 	lea    -0x920(%rbp),%rax
    c220:	48 89 85 20 fa ff ff 	mov    %rax,-0x5e0(%rbp)
    c227:	48 8d 85 e0 f6 ff ff 	lea    -0x920(%rbp),%rax
    c22e:	48 89 85 28 fa ff ff 	mov    %rax,-0x5d8(%rbp)
    c235:	48 8d 85 e0 f6 ff ff 	lea    -0x920(%rbp),%rax
    c23c:	48 89 85 30 fa ff ff 	mov    %rax,-0x5d0(%rbp)
    c243:	48 8d 85 e0 f6 ff ff 	lea    -0x920(%rbp),%rax
    c24a:	48 89 85 38 fa ff ff 	mov    %rax,-0x5c8(%rbp)
    c251:	48 c7 85 40 fa ff ff 	movq   $0x0,-0x5c0(%rbp)
    c258:	00 00 00 00 
    c25c:	48 c7 85 48 fa ff ff 	movq   $0x0,-0x5b8(%rbp)
    c263:	00 00 00 00 
    c267:	48 8d 85 e0 f6 ff ff 	lea    -0x920(%rbp),%rax
    c26e:	48 89 85 50 fa ff ff 	mov    %rax,-0x5b0(%rbp)
    c275:	48 c7 85 58 fa ff ff 	movq   $0x0,-0x5a8(%rbp)
    c27c:	00 00 00 00 
    c280:	48 8d 85 e0 f6 ff ff 	lea    -0x920(%rbp),%rax
    c287:	48 89 85 60 fa ff ff 	mov    %rax,-0x5a0(%rbp)
    c28e:	48 8d 85 e0 f6 ff ff 	lea    -0x920(%rbp),%rax
    c295:	48 89 85 68 fa ff ff 	mov    %rax,-0x598(%rbp)
    c29c:	48 8d 85 e0 f6 ff ff 	lea    -0x920(%rbp),%rax
    c2a3:	48 89 85 70 fa ff ff 	mov    %rax,-0x590(%rbp)
    c2aa:	48 8d 85 e0 f6 ff ff 	lea    -0x920(%rbp),%rax
    c2b1:	48 89 85 78 fa ff ff 	mov    %rax,-0x588(%rbp)
    c2b8:	48 8d 85 e0 f6 ff ff 	lea    -0x920(%rbp),%rax
    c2bf:	48 89 85 80 fa ff ff 	mov    %rax,-0x580(%rbp)
    c2c6:	48 8d 85 e0 f6 ff ff 	lea    -0x920(%rbp),%rax
    c2cd:	48 89 85 88 fa ff ff 	mov    %rax,-0x578(%rbp)
    c2d4:	48 8d 85 e0 f6 ff ff 	lea    -0x920(%rbp),%rax
    c2db:	48 89 85 90 fa ff ff 	mov    %rax,-0x570(%rbp)
    c2e2:	48 8d 85 e0 f6 ff ff 	lea    -0x920(%rbp),%rax
    c2e9:	48 89 85 98 fa ff ff 	mov    %rax,-0x568(%rbp)
    c2f0:	48 8d 85 e0 f6 ff ff 	lea    -0x920(%rbp),%rax
    c2f7:	48 89 85 a0 fa ff ff 	mov    %rax,-0x560(%rbp)
    c2fe:	48 c7 85 a8 fa ff ff 	movq   $0x0,-0x558(%rbp)
    c305:	00 00 00 00 
    c309:	48 c7 85 b0 fa ff ff 	movq   $0x0,-0x550(%rbp)
    c310:	00 00 00 00 
    c314:	48 8d 85 e0 f6 ff ff 	lea    -0x920(%rbp),%rax
    c31b:	48 89 85 b8 fa ff ff 	mov    %rax,-0x548(%rbp)
    c322:	48 8d 85 e0 f6 ff ff 	lea    -0x920(%rbp),%rax
    c329:	48 89 85 c0 fa ff ff 	mov    %rax,-0x540(%rbp)
    c330:	48 8d 85 e0 f6 ff ff 	lea    -0x920(%rbp),%rax
    c337:	48 89 85 c8 fa ff ff 	mov    %rax,-0x538(%rbp)
    c33e:	48 8d 85 e0 f6 ff ff 	lea    -0x920(%rbp),%rax
    c345:	48 89 85 d0 fa ff ff 	mov    %rax,-0x530(%rbp)
    c34c:	48 8d 85 e0 f6 ff ff 	lea    -0x920(%rbp),%rax
    c353:	48 89 85 d8 fa ff ff 	mov    %rax,-0x528(%rbp)
    c35a:	48 c7 85 e0 fa ff ff 	movq   $0x0,-0x520(%rbp)
    c361:	00 00 00 00 
    c365:	48 c7 85 e8 fa ff ff 	movq   $0x0,-0x518(%rbp)
    c36c:	00 00 00 00 
    c370:	48 8d 85 e0 f6 ff ff 	lea    -0x920(%rbp),%rax
    c377:	48 89 85 f0 fa ff ff 	mov    %rax,-0x510(%rbp)
    c37e:	48 c7 85 f8 fa ff ff 	movq   $0x0,-0x508(%rbp)
    c385:	00 00 00 00 
    c389:	48 8d 85 e0 f6 ff ff 	lea    -0x920(%rbp),%rax
    c390:	48 89 85 00 fb ff ff 	mov    %rax,-0x500(%rbp)
    c397:	48 8d 85 e0 f6 ff ff 	lea    -0x920(%rbp),%rax
    c39e:	48 89 85 08 fb ff ff 	mov    %rax,-0x4f8(%rbp)
    c3a5:	48 8d 85 e0 f6 ff ff 	lea    -0x920(%rbp),%rax
    c3ac:	48 89 85 10 fb ff ff 	mov    %rax,-0x4f0(%rbp)
    c3b3:	48 8d 85 e0 f6 ff ff 	lea    -0x920(%rbp),%rax
    c3ba:	48 89 85 18 fb ff ff 	mov    %rax,-0x4e8(%rbp)
    c3c1:	48 8d 85 e0 f6 ff ff 	lea    -0x920(%rbp),%rax
    c3c8:	48 89 85 20 fb ff ff 	mov    %rax,-0x4e0(%rbp)
    c3cf:	48 8d 85 e0 f6 ff ff 	lea    -0x920(%rbp),%rax
    c3d6:	48 89 85 28 fb ff ff 	mov    %rax,-0x4d8(%rbp)
    c3dd:	48 8d 85 e0 f6 ff ff 	lea    -0x920(%rbp),%rax
    c3e4:	48 89 85 30 fb ff ff 	mov    %rax,-0x4d0(%rbp)
    c3eb:	48 8d 85 e0 f6 ff ff 	lea    -0x920(%rbp),%rax
    c3f2:	48 89 85 38 fb ff ff 	mov    %rax,-0x4c8(%rbp)
    c3f9:	48 8d 85 e0 f6 ff ff 	lea    -0x920(%rbp),%rax
    c400:	48 89 85 40 fb ff ff 	mov    %rax,-0x4c0(%rbp)
    c407:	48 c7 85 48 fb ff ff 	movq   $0x0,-0x4b8(%rbp)
    c40e:	00 00 00 00 
    c412:	48 c7 85 50 fb ff ff 	movq   $0x0,-0x4b0(%rbp)
    c419:	00 00 00 00 
    c41d:	48 8d 85 e0 f6 ff ff 	lea    -0x920(%rbp),%rax
    c424:	48 89 85 58 fb ff ff 	mov    %rax,-0x4a8(%rbp)
    c42b:	48 8d 85 e0 f6 ff ff 	lea    -0x920(%rbp),%rax
    c432:	48 89 85 60 fb ff ff 	mov    %rax,-0x4a0(%rbp)
    c439:	48 c7 85 68 fb ff ff 	movq   $0x0,-0x498(%rbp)
    c440:	00 00 00 00 
    c444:	48 8d 85 e0 f6 ff ff 	lea    -0x920(%rbp),%rax
    c44b:	48 89 85 70 fb ff ff 	mov    %rax,-0x490(%rbp)
    c452:	48 c7 85 78 fb ff ff 	movq   $0x0,-0x488(%rbp)
    c459:	00 00 00 00 
    c45d:	48 8d 85 e0 f6 ff ff 	lea    -0x920(%rbp),%rax
    c464:	48 89 85 80 fb ff ff 	mov    %rax,-0x480(%rbp)
    c46b:	48 8d 85 e0 f6 ff ff 	lea    -0x920(%rbp),%rax
    c472:	48 89 85 88 fb ff ff 	mov    %rax,-0x478(%rbp)
    c479:	48 8d 85 e0 f6 ff ff 	lea    -0x920(%rbp),%rax
    c480:	48 89 85 90 fb ff ff 	mov    %rax,-0x470(%rbp)
    c487:	48 8d 85 e0 f6 ff ff 	lea    -0x920(%rbp),%rax
    c48e:	48 89 85 98 fb ff ff 	mov    %rax,-0x468(%rbp)
    c495:	48 c7 85 a0 fb ff ff 	movq   $0x0,-0x460(%rbp)
    c49c:	00 00 00 00 
    c4a0:	48 8d 85 e0 f6 ff ff 	lea    -0x920(%rbp),%rax
    c4a7:	48 89 85 a8 fb ff ff 	mov    %rax,-0x458(%rbp)
    c4ae:	48 8d 85 e0 f6 ff ff 	lea    -0x920(%rbp),%rax
    c4b5:	48 89 85 b0 fb ff ff 	mov    %rax,-0x450(%rbp)
    c4bc:	48 8d 85 e0 f6 ff ff 	lea    -0x920(%rbp),%rax
    c4c3:	48 89 85 b8 fb ff ff 	mov    %rax,-0x448(%rbp)
    c4ca:	48 8d 85 e0 f6 ff ff 	lea    -0x920(%rbp),%rax
    c4d1:	48 89 85 c0 fb ff ff 	mov    %rax,-0x440(%rbp)
    c4d8:	48 8d 85 e0 f6 ff ff 	lea    -0x920(%rbp),%rax
    c4df:	48 89 85 c8 fb ff ff 	mov    %rax,-0x438(%rbp)
    c4e6:	48 c7 85 d0 fb ff ff 	movq   $0x0,-0x430(%rbp)
    c4ed:	00 00 00 00 
    c4f1:	48 8d 85 e0 f6 ff ff 	lea    -0x920(%rbp),%rax
    c4f8:	48 89 85 d8 fb ff ff 	mov    %rax,-0x428(%rbp)
    c4ff:	48 8d 85 e0 f6 ff ff 	lea    -0x920(%rbp),%rax
    c506:	48 89 85 e0 fb ff ff 	mov    %rax,-0x420(%rbp)
    c50d:	48 8d 85 e0 f6 ff ff 	lea    -0x920(%rbp),%rax
    c514:	48 89 85 e8 fb ff ff 	mov    %rax,-0x418(%rbp)
    c51b:	48 c7 85 f0 fb ff ff 	movq   $0x0,-0x410(%rbp)
    c522:	00 00 00 00 
    c526:	48 8d 85 e0 f6 ff ff 	lea    -0x920(%rbp),%rax
    c52d:	48 89 85 f8 fb ff ff 	mov    %rax,-0x408(%rbp)
    c534:	48 8d 85 e0 f6 ff ff 	lea    -0x920(%rbp),%rax
    c53b:	48 89 85 00 fc ff ff 	mov    %rax,-0x400(%rbp)
    c542:	48 8d 85 e0 f6 ff ff 	lea    -0x920(%rbp),%rax
    c549:	48 89 85 08 fc ff ff 	mov    %rax,-0x3f8(%rbp)
    c550:	48 8d 85 e0 f6 ff ff 	lea    -0x920(%rbp),%rax
    c557:	48 89 85 10 fc ff ff 	mov    %rax,-0x3f0(%rbp)
    c55e:	48 8d 85 e0 f6 ff ff 	lea    -0x920(%rbp),%rax
    c565:	48 89 85 18 fc ff ff 	mov    %rax,-0x3e8(%rbp)
    c56c:	48 8d 85 e0 f6 ff ff 	lea    -0x920(%rbp),%rax
    c573:	48 89 85 20 fc ff ff 	mov    %rax,-0x3e0(%rbp)
    c57a:	48 8d 85 e0 f6 ff ff 	lea    -0x920(%rbp),%rax
    c581:	48 89 85 28 fc ff ff 	mov    %rax,-0x3d8(%rbp)
    c588:	48 8d 85 e0 f6 ff ff 	lea    -0x920(%rbp),%rax
    c58f:	48 89 85 30 fc ff ff 	mov    %rax,-0x3d0(%rbp)
    c596:	48 8d 85 e0 f6 ff ff 	lea    -0x920(%rbp),%rax
    c59d:	48 89 85 38 fc ff ff 	mov    %rax,-0x3c8(%rbp)
    c5a4:	48 c7 85 40 fc ff ff 	movq   $0x0,-0x3c0(%rbp)
    c5ab:	00 00 00 00 
    c5af:	48 8d 85 e0 f6 ff ff 	lea    -0x920(%rbp),%rax
    c5b6:	48 89 85 48 fc ff ff 	mov    %rax,-0x3b8(%rbp)
    c5bd:	48 8d 85 e0 f6 ff ff 	lea    -0x920(%rbp),%rax
    c5c4:	48 89 85 50 fc ff ff 	mov    %rax,-0x3b0(%rbp)
    c5cb:	48 c7 85 58 fc ff ff 	movq   $0x0,-0x3a8(%rbp)
    c5d2:	00 00 00 00 
    c5d6:	48 c7 85 60 fc ff ff 	movq   $0x0,-0x3a0(%rbp)
    c5dd:	00 00 00 00 
    c5e1:	48 c7 85 68 fc ff ff 	movq   $0x0,-0x398(%rbp)
    c5e8:	00 00 00 00 
    c5ec:	48 c7 85 70 fc ff ff 	movq   $0x0,-0x390(%rbp)
    c5f3:	00 00 00 00 
    c5f7:	48 c7 85 78 fc ff ff 	movq   $0x0,-0x388(%rbp)
    c5fe:	00 00 00 00 
    c602:	48 8d 85 e0 f6 ff ff 	lea    -0x920(%rbp),%rax
    c609:	48 89 85 80 fc ff ff 	mov    %rax,-0x380(%rbp)
    c610:	48 8d 85 e0 f6 ff ff 	lea    -0x920(%rbp),%rax
    c617:	48 89 85 88 fc ff ff 	mov    %rax,-0x378(%rbp)
    c61e:	48 c7 85 90 fc ff ff 	movq   $0x0,-0x370(%rbp)
    c625:	00 00 00 00 
    c629:	48 8d 85 e0 f6 ff ff 	lea    -0x920(%rbp),%rax
    c630:	48 89 85 98 fc ff ff 	mov    %rax,-0x368(%rbp)
    c637:	48 8d 85 e0 f6 ff ff 	lea    -0x920(%rbp),%rax
    c63e:	48 89 85 a0 fc ff ff 	mov    %rax,-0x360(%rbp)
    c645:	48 8d 85 e0 f6 ff ff 	lea    -0x920(%rbp),%rax
    c64c:	48 89 85 a8 fc ff ff 	mov    %rax,-0x358(%rbp)
    c653:	48 8d 85 e0 f6 ff ff 	lea    -0x920(%rbp),%rax
    c65a:	48 89 85 b0 fc ff ff 	mov    %rax,-0x350(%rbp)
    c661:	48 8d 85 e0 f6 ff ff 	lea    -0x920(%rbp),%rax
    c668:	48 89 85 b8 fc ff ff 	mov    %rax,-0x348(%rbp)
    c66f:	48 8d 85 e0 f6 ff ff 	lea    -0x920(%rbp),%rax
    c676:	48 89 85 c0 fc ff ff 	mov    %rax,-0x340(%rbp)
    c67d:	48 8d 85 e0 f6 ff ff 	lea    -0x920(%rbp),%rax
    c684:	48 89 85 c8 fc ff ff 	mov    %rax,-0x338(%rbp)
    c68b:	48 8d 85 e0 f6 ff ff 	lea    -0x920(%rbp),%rax
    c692:	48 89 85 d0 fc ff ff 	mov    %rax,-0x330(%rbp)
    c699:	48 8d 85 e0 f6 ff ff 	lea    -0x920(%rbp),%rax
    c6a0:	48 89 85 d8 fc ff ff 	mov    %rax,-0x328(%rbp)
    c6a7:	48 c7 85 e0 fc ff ff 	movq   $0x0,-0x320(%rbp)
    c6ae:	00 00 00 00 
    c6b2:	48 8d 85 e0 f6 ff ff 	lea    -0x920(%rbp),%rax
    c6b9:	48 89 85 e8 fc ff ff 	mov    %rax,-0x318(%rbp)
    c6c0:	48 8d 85 e0 f6 ff ff 	lea    -0x920(%rbp),%rax
    c6c7:	48 89 85 f0 fc ff ff 	mov    %rax,-0x310(%rbp)
    c6ce:	48 8d 85 e0 f6 ff ff 	lea    -0x920(%rbp),%rax
    c6d5:	48 89 85 f8 fc ff ff 	mov    %rax,-0x308(%rbp)
    c6dc:	48 c7 85 00 fd ff ff 	movq   $0x0,-0x300(%rbp)
    c6e3:	00 00 00 00 
    c6e7:	48 8d 85 e0 f6 ff ff 	lea    -0x920(%rbp),%rax
    c6ee:	48 89 85 08 fd ff ff 	mov    %rax,-0x2f8(%rbp)
    c6f5:	48 8d 85 e0 f6 ff ff 	lea    -0x920(%rbp),%rax
    c6fc:	48 89 85 10 fd ff ff 	mov    %rax,-0x2f0(%rbp)
    c703:	48 8d 85 e0 f6 ff ff 	lea    -0x920(%rbp),%rax
    c70a:	48 89 85 18 fd ff ff 	mov    %rax,-0x2e8(%rbp)
    c711:	48 8d 85 e0 f6 ff ff 	lea    -0x920(%rbp),%rax
    c718:	48 89 85 20 fd ff ff 	mov    %rax,-0x2e0(%rbp)
    c71f:	48 8d 85 e0 f6 ff ff 	lea    -0x920(%rbp),%rax
    c726:	48 89 85 28 fd ff ff 	mov    %rax,-0x2d8(%rbp)
    c72d:	48 c7 85 30 fd ff ff 	movq   $0x0,-0x2d0(%rbp)
    c734:	00 00 00 00 
    c738:	48 8d 85 e0 f6 ff ff 	lea    -0x920(%rbp),%rax
    c73f:	48 89 85 38 fd ff ff 	mov    %rax,-0x2c8(%rbp)
    c746:	48 8d 85 e0 f6 ff ff 	lea    -0x920(%rbp),%rax
    c74d:	48 89 85 40 fd ff ff 	mov    %rax,-0x2c0(%rbp)
    c754:	48 8d 85 e0 f6 ff ff 	lea    -0x920(%rbp),%rax
    c75b:	48 89 85 48 fd ff ff 	mov    %rax,-0x2b8(%rbp)
    c762:	48 8d 85 e0 f6 ff ff 	lea    -0x920(%rbp),%rax
    c769:	48 89 85 50 fd ff ff 	mov    %rax,-0x2b0(%rbp)
    c770:	48 c7 85 58 fd ff ff 	movq   $0x0,-0x2a8(%rbp)
    c777:	00 00 00 00 
    c77b:	48 8d 85 e0 f6 ff ff 	lea    -0x920(%rbp),%rax
    c782:	48 89 85 60 fd ff ff 	mov    %rax,-0x2a0(%rbp)
    c789:	48 c7 85 68 fd ff ff 	movq   $0x0,-0x298(%rbp)
    c790:	00 00 00 00 
    c794:	48 8d 85 e0 f6 ff ff 	lea    -0x920(%rbp),%rax
    c79b:	48 89 85 70 fd ff ff 	mov    %rax,-0x290(%rbp)
    c7a2:	48 c7 85 78 fd ff ff 	movq   $0x0,-0x288(%rbp)
    c7a9:	00 00 00 00 
    c7ad:	48 8d 85 e0 f6 ff ff 	lea    -0x920(%rbp),%rax
    c7b4:	48 89 85 80 fd ff ff 	mov    %rax,-0x280(%rbp)
    c7bb:	48 c7 85 88 fd ff ff 	movq   $0x0,-0x278(%rbp)
    c7c2:	00 00 00 00 
    c7c6:	48 8d 85 e0 f6 ff ff 	lea    -0x920(%rbp),%rax
    c7cd:	48 89 85 90 fd ff ff 	mov    %rax,-0x270(%rbp)
    c7d4:	48 8d 85 e0 f6 ff ff 	lea    -0x920(%rbp),%rax
    c7db:	48 89 85 98 fd ff ff 	mov    %rax,-0x268(%rbp)
    c7e2:	48 8d 85 e0 f6 ff ff 	lea    -0x920(%rbp),%rax
    c7e9:	48 89 85 a0 fd ff ff 	mov    %rax,-0x260(%rbp)
    c7f0:	48 8d 85 e0 f6 ff ff 	lea    -0x920(%rbp),%rax
    c7f7:	48 89 85 a8 fd ff ff 	mov    %rax,-0x258(%rbp)
    c7fe:	48 8d 85 e0 f6 ff ff 	lea    -0x920(%rbp),%rax
    c805:	48 89 85 b0 fd ff ff 	mov    %rax,-0x250(%rbp)
    c80c:	48 8d 85 e0 f6 ff ff 	lea    -0x920(%rbp),%rax
    c813:	48 89 85 b8 fd ff ff 	mov    %rax,-0x248(%rbp)
    c81a:	48 8d 85 e0 f6 ff ff 	lea    -0x920(%rbp),%rax
    c821:	48 89 85 c0 fd ff ff 	mov    %rax,-0x240(%rbp)
    c828:	48 c7 85 c8 fd ff ff 	movq   $0x0,-0x238(%rbp)
    c82f:	00 00 00 00 
    c833:	48 8d 85 e0 f6 ff ff 	lea    -0x920(%rbp),%rax
    c83a:	48 89 85 d0 fd ff ff 	mov    %rax,-0x230(%rbp)
    c841:	48 8d 85 e0 f6 ff ff 	lea    -0x920(%rbp),%rax
    c848:	48 89 85 d8 fd ff ff 	mov    %rax,-0x228(%rbp)
    c84f:	48 8d 85 e0 f6 ff ff 	lea    -0x920(%rbp),%rax
    c856:	48 89 85 e0 fd ff ff 	mov    %rax,-0x220(%rbp)
    c85d:	48 8d 85 e0 f6 ff ff 	lea    -0x920(%rbp),%rax
    c864:	48 89 85 e8 fd ff ff 	mov    %rax,-0x218(%rbp)
    c86b:	48 8d 85 e0 f6 ff ff 	lea    -0x920(%rbp),%rax
    c872:	48 89 85 f0 fd ff ff 	mov    %rax,-0x210(%rbp)
    c879:	48 c7 85 f8 fd ff ff 	movq   $0x0,-0x208(%rbp)
    c880:	00 00 00 00 
    c884:	48 c7 85 00 fe ff ff 	movq   $0x0,-0x200(%rbp)
    c88b:	00 00 00 00 
    c88f:	48 8d 85 e0 f6 ff ff 	lea    -0x920(%rbp),%rax
    c896:	48 89 85 08 fe ff ff 	mov    %rax,-0x1f8(%rbp)
    c89d:	48 8d 85 e0 f6 ff ff 	lea    -0x920(%rbp),%rax
    c8a4:	48 89 85 10 fe ff ff 	mov    %rax,-0x1f0(%rbp)
    c8ab:	48 8d 85 e0 f6 ff ff 	lea    -0x920(%rbp),%rax
    c8b2:	48 89 85 18 fe ff ff 	mov    %rax,-0x1e8(%rbp)
    c8b9:	48 8d 85 e0 f6 ff ff 	lea    -0x920(%rbp),%rax
    c8c0:	48 89 85 20 fe ff ff 	mov    %rax,-0x1e0(%rbp)
    c8c7:	48 8d 85 e0 f6 ff ff 	lea    -0x920(%rbp),%rax
    c8ce:	48 89 85 28 fe ff ff 	mov    %rax,-0x1d8(%rbp)
    c8d5:	48 8d 85 e0 f6 ff ff 	lea    -0x920(%rbp),%rax
    c8dc:	48 89 85 30 fe ff ff 	mov    %rax,-0x1d0(%rbp)
    c8e3:	48 8d 85 e0 f6 ff ff 	lea    -0x920(%rbp),%rax
    c8ea:	48 89 85 38 fe ff ff 	mov    %rax,-0x1c8(%rbp)
    c8f1:	48 8d 85 e0 f6 ff ff 	lea    -0x920(%rbp),%rax
    c8f8:	48 89 85 40 fe ff ff 	mov    %rax,-0x1c0(%rbp)
    c8ff:	48 c7 85 48 fe ff ff 	movq   $0x0,-0x1b8(%rbp)
    c906:	00 00 00 00 
    c90a:	48 8d 85 e0 f6 ff ff 	lea    -0x920(%rbp),%rax
    c911:	48 89 85 50 fe ff ff 	mov    %rax,-0x1b0(%rbp)
    c918:	48 8d 85 e0 f6 ff ff 	lea    -0x920(%rbp),%rax
    c91f:	48 89 85 58 fe ff ff 	mov    %rax,-0x1a8(%rbp)
    c926:	48 8d 85 e0 f6 ff ff 	lea    -0x920(%rbp),%rax
    c92d:	48 89 85 60 fe ff ff 	mov    %rax,-0x1a0(%rbp)
    c934:	48 8d 85 e0 f6 ff ff 	lea    -0x920(%rbp),%rax
    c93b:	48 89 85 68 fe ff ff 	mov    %rax,-0x198(%rbp)
    c942:	48 8d 85 e0 f6 ff ff 	lea    -0x920(%rbp),%rax
    c949:	48 89 85 70 fe ff ff 	mov    %rax,-0x190(%rbp)
    c950:	48 c7 85 78 fe ff ff 	movq   $0x0,-0x188(%rbp)
    c957:	00 00 00 00 
    c95b:	48 8d 85 e0 f6 ff ff 	lea    -0x920(%rbp),%rax
    c962:	48 89 85 80 fe ff ff 	mov    %rax,-0x180(%rbp)
    c969:	48 8d 85 e0 f6 ff ff 	lea    -0x920(%rbp),%rax
    c970:	48 89 85 88 fe ff ff 	mov    %rax,-0x178(%rbp)
    c977:	48 8d 85 e0 f6 ff ff 	lea    -0x920(%rbp),%rax
    c97e:	48 89 85 90 fe ff ff 	mov    %rax,-0x170(%rbp)
    c985:	48 8d 85 e0 f6 ff ff 	lea    -0x920(%rbp),%rax
    c98c:	48 89 85 98 fe ff ff 	mov    %rax,-0x168(%rbp)
    c993:	48 c7 85 a0 fe ff ff 	movq   $0x0,-0x160(%rbp)
    c99a:	00 00 00 00 
    c99e:	48 8d 85 e0 f6 ff ff 	lea    -0x920(%rbp),%rax
    c9a5:	48 89 85 a8 fe ff ff 	mov    %rax,-0x158(%rbp)
    c9ac:	48 8d 85 e0 f6 ff ff 	lea    -0x920(%rbp),%rax
    c9b3:	48 89 85 b0 fe ff ff 	mov    %rax,-0x150(%rbp)
    c9ba:	48 8d 85 e0 f6 ff ff 	lea    -0x920(%rbp),%rax
    c9c1:	48 89 85 b8 fe ff ff 	mov    %rax,-0x148(%rbp)
    c9c8:	48 8d 85 e0 f6 ff ff 	lea    -0x920(%rbp),%rax
    c9cf:	48 89 85 c0 fe ff ff 	mov    %rax,-0x140(%rbp)
    c9d6:	48 8d 85 e0 f6 ff ff 	lea    -0x920(%rbp),%rax
    c9dd:	48 89 85 c8 fe ff ff 	mov    %rax,-0x138(%rbp)
    c9e4:	48 8d 85 e0 f6 ff ff 	lea    -0x920(%rbp),%rax
    c9eb:	48 89 85 d0 fe ff ff 	mov    %rax,-0x130(%rbp)
    c9f2:	48 8d 85 e0 f6 ff ff 	lea    -0x920(%rbp),%rax
    c9f9:	48 89 85 d8 fe ff ff 	mov    %rax,-0x128(%rbp)
    ca00:	48 c7 85 e0 fe ff ff 	movq   $0x0,-0x120(%rbp)
    ca07:	00 00 00 00 
    ca0b:	48 8d 85 e0 f6 ff ff 	lea    -0x920(%rbp),%rax
    ca12:	48 89 85 e8 fe ff ff 	mov    %rax,-0x118(%rbp)
    ca19:	48 8d 85 e0 f6 ff ff 	lea    -0x920(%rbp),%rax
    ca20:	48 89 85 f0 fe ff ff 	mov    %rax,-0x110(%rbp)
    ca27:	48 8d 85 e0 f6 ff ff 	lea    -0x920(%rbp),%rax
    ca2e:	48 89 85 f8 fe ff ff 	mov    %rax,-0x108(%rbp)
    ca35:	48 8d 85 e0 f6 ff ff 	lea    -0x920(%rbp),%rax
    ca3c:	48 89 85 00 ff ff ff 	mov    %rax,-0x100(%rbp)
    ca43:	48 c7 85 08 ff ff ff 	movq   $0x0,-0xf8(%rbp)
    ca4a:	00 00 00 00 
    ca4e:	48 8d 85 e0 f6 ff ff 	lea    -0x920(%rbp),%rax
    ca55:	48 89 85 10 ff ff ff 	mov    %rax,-0xf0(%rbp)
    ca5c:	48 c7 85 18 ff ff ff 	movq   $0x0,-0xe8(%rbp)
    ca63:	00 00 00 00 
    ca67:	48 8d 85 e0 f6 ff ff 	lea    -0x920(%rbp),%rax
    ca6e:	48 89 85 20 ff ff ff 	mov    %rax,-0xe0(%rbp)
    ca75:	48 8d 85 e0 f6 ff ff 	lea    -0x920(%rbp),%rax
    ca7c:	48 89 85 28 ff ff ff 	mov    %rax,-0xd8(%rbp)
    ca83:	48 8d 85 e0 f6 ff ff 	lea    -0x920(%rbp),%rax
    ca8a:	48 89 85 30 ff ff ff 	mov    %rax,-0xd0(%rbp)
    ca91:	48 8d 85 e0 f6 ff ff 	lea    -0x920(%rbp),%rax
    ca98:	48 89 85 38 ff ff ff 	mov    %rax,-0xc8(%rbp)
    ca9f:	48 c7 85 40 ff ff ff 	movq   $0x0,-0xc0(%rbp)
    caa6:	00 00 00 00 
    caaa:	48 8d 85 e0 f6 ff ff 	lea    -0x920(%rbp),%rax
    cab1:	48 89 85 48 ff ff ff 	mov    %rax,-0xb8(%rbp)
    cab8:	48 8d 85 e0 f6 ff ff 	lea    -0x920(%rbp),%rax
    cabf:	48 89 85 50 ff ff ff 	mov    %rax,-0xb0(%rbp)
    cac6:	48 8d 85 e0 f6 ff ff 	lea    -0x920(%rbp),%rax
    cacd:	48 89 85 58 ff ff ff 	mov    %rax,-0xa8(%rbp)
    cad4:	48 8d 85 e0 f6 ff ff 	lea    -0x920(%rbp),%rax
    cadb:	48 89 85 60 ff ff ff 	mov    %rax,-0xa0(%rbp)
    cae2:	48 8d 85 e0 f6 ff ff 	lea    -0x920(%rbp),%rax
    cae9:	48 89 85 68 ff ff ff 	mov    %rax,-0x98(%rbp)
    caf0:	48 8d 85 e0 f6 ff ff 	lea    -0x920(%rbp),%rax
    caf7:	48 89 85 70 ff ff ff 	mov    %rax,-0x90(%rbp)
    cafe:	48 8d 85 e0 f6 ff ff 	lea    -0x920(%rbp),%rax
    cb05:	48 89 85 78 ff ff ff 	mov    %rax,-0x88(%rbp)
    cb0c:	48 c7 45 80 00 00 00 	movq   $0x0,-0x80(%rbp)
    cb13:	00 
    cb14:	48 8d 85 e0 f6 ff ff 	lea    -0x920(%rbp),%rax
    cb1b:	48 89 45 88          	mov    %rax,-0x78(%rbp)
    cb1f:	48 8d 85 e0 f6 ff ff 	lea    -0x920(%rbp),%rax
    cb26:	48 89 45 90          	mov    %rax,-0x70(%rbp)
    cb2a:	48 8d 85 e0 f6 ff ff 	lea    -0x920(%rbp),%rax
    cb31:	48 89 45 98          	mov    %rax,-0x68(%rbp)
    cb35:	48 8d 85 e0 f6 ff ff 	lea    -0x920(%rbp),%rax
    cb3c:	48 89 45 a0          	mov    %rax,-0x60(%rbp)
    cb40:	48 c7 45 a8 00 00 00 	movq   $0x0,-0x58(%rbp)
    cb47:	00 
    cb48:	48 8d 85 e0 f6 ff ff 	lea    -0x920(%rbp),%rax
    cb4f:	48 89 45 b0          	mov    %rax,-0x50(%rbp)
    cb53:	48 8d 85 e0 f6 ff ff 	lea    -0x920(%rbp),%rax
    cb5a:	48 89 45 b8          	mov    %rax,-0x48(%rbp)
    cb5e:	48 8d 85 d8 f6 ff ff 	lea    -0x928(%rbp),%rax
    cb65:	48 89 85 40 f7 ff ff 	mov    %rax,-0x8c0(%rbp)
    cb6c:	48 8b 05 65 9b 00 00 	mov    0x9b65(%rip),%rax        # 166d8 <g_203>
    cb73:	4c 8b 28             	mov    (%rax),%r13
    cb76:	be 04 00 00 00       	mov    $0x4,%esi
    cb7b:	bf f6 ff ff ff       	mov    $0xfffffff6,%edi
    cb80:	e8 b0 97 ff ff       	callq  6335 <safe_rshift_func_int8_t_s_s>
    cb85:	84 c0                	test   %al,%al
    cb87:	0f 85 99 00 00 00    	jne    cc26 <func_32+0xb98>
    cb8d:	0f b7 85 08 f6 ff ff 	movzwl -0x9f8(%rbp),%eax
    cb94:	0f b6 d8             	movzbl %al,%ebx
    cb97:	48 8b 85 10 f6 ff ff 	mov    -0x9f0(%rbp),%rax
    cb9e:	44 0f b7 e0          	movzwl %ax,%r12d
    cba2:	be 03 00 00 00       	mov    $0x3,%esi
    cba7:	bf 6e 00 00 00       	mov    $0x6e,%edi
    cbac:	e8 bb 97 ff ff       	callq  636c <safe_rshift_func_int8_t_s_u>
    cbb1:	48 0f be c8          	movsbq %al,%rcx
    cbb5:	48 83 bd 28 f7 ff ff 	cmpq   $0x0,-0x8d8(%rbp)
    cbbc:	00 
    cbbd:	0f 94 c0             	sete   %al
    cbc0:	0f b6 d0             	movzbl %al,%edx
    cbc3:	0f b7 85 08 f6 ff ff 	movzwl -0x9f8(%rbp),%eax
    cbca:	39 c2                	cmp    %eax,%edx
    cbcc:	0f 9e c0             	setle  %al
    cbcf:	0f b6 d0             	movzbl %al,%edx
    cbd2:	48 8b 85 30 f7 ff ff 	mov    -0x8d0(%rbp),%rax
    cbd9:	48 89 10             	mov    %rdx,(%rax)
    cbdc:	48 8b 85 30 f7 ff ff 	mov    -0x8d0(%rbp),%rax
    cbe3:	48 8b 00             	mov    (%rax),%rax
    cbe6:	48 39 c1             	cmp    %rax,%rcx
    cbe9:	0f 95 c0             	setne  %al
    cbec:	0f b6 c0             	movzbl %al,%eax
    cbef:	48 39 85 10 f6 ff ff 	cmp    %rax,-0x9f0(%rbp)
    cbf6:	0f 92 c0             	setb   %al
    cbf9:	0f b6 c0             	movzbl %al,%eax
    cbfc:	44 89 e6             	mov    %r12d,%esi
    cbff:	89 c7                	mov    %eax,%edi
    cc01:	e8 19 a1 ff ff       	callq  6d1f <safe_sub_func_uint16_t_u_u>
    cc06:	0f b7 d0             	movzwl %ax,%edx
    cc09:	0f b7 05 02 89 00 00 	movzwl 0x8902(%rip),%eax        # 15512 <g_315>
    cc10:	98                   	cwtl   
    cc11:	39 c2                	cmp    %eax,%edx
    cc13:	0f 9f c0             	setg   %al
    cc16:	0f b6 c0             	movzbl %al,%eax
    cc19:	89 de                	mov    %ebx,%esi
    cc1b:	89 c7                	mov    %eax,%edi
    cc1d:	e8 b9 9f ff ff       	callq  6bdb <safe_div_func_uint8_t_u_u>
    cc22:	84 c0                	test   %al,%al
    cc24:	74 07                	je     cc2d <func_32+0xb9f>
    cc26:	b8 01 00 00 00       	mov    $0x1,%eax
    cc2b:	eb 05                	jmp    cc32 <func_32+0xba4>
    cc2d:	b8 00 00 00 00       	mov    $0x0,%eax
    cc32:	48 98                	cltq   
    cc34:	49 39 c5             	cmp    %rax,%r13
    cc37:	0f 94 c0             	sete   %al
    cc3a:	0f b6 d0             	movzbl %al,%edx
    cc3d:	0f b6 05 db 88 00 00 	movzbl 0x88db(%rip),%eax        # 1551f <g_413+0x3>
    cc44:	0f b6 c0             	movzbl %al,%eax
    cc47:	89 d6                	mov    %edx,%esi
    cc49:	89 c7                	mov    %eax,%edi
    cc4b:	e8 63 97 ff ff       	callq  63b3 <safe_add_func_int16_t_s_s>
    cc50:	66 85 c0             	test   %ax,%ax
    cc53:	0f 84 e1 0e 00 00    	je     db3a <func_32+0x1aac>
    cc59:	48 b8 7a 51 59 cb 03 	movabs $0xa54f2b03cb59517a,%rax
    cc60:	2b 4f a5 
    cc63:	48 89 85 e8 f6 ff ff 	mov    %rax,-0x918(%rbp)
    cc6a:	48 8d 85 90 f8 ff ff 	lea    -0x770(%rbp),%rax
    cc71:	48 83 c0 10          	add    $0x10,%rax
    cc75:	48 89 85 f0 f6 ff ff 	mov    %rax,-0x910(%rbp)
    cc7c:	48 8d 85 f0 f6 ff ff 	lea    -0x910(%rbp),%rax
    cc83:	48 89 85 20 f7 ff ff 	mov    %rax,-0x8e0(%rbp)
    cc8a:	48 8d 85 34 f6 ff ff 	lea    -0x9cc(%rbp),%rax
    cc91:	48 89 85 50 f7 ff ff 	mov    %rax,-0x8b0(%rbp)
    cc98:	c7 85 78 f6 ff ff 00 	movl   $0x0,-0x988(%rbp)
    cc9f:	00 00 00 
    cca2:	48 c7 85 58 f7 ff ff 	movq   $0x0,-0x8a8(%rbp)
    cca9:	00 00 00 00 
    ccad:	c7 85 44 f6 ff ff 00 	movl   $0x0,-0x9bc(%rbp)
    ccb4:	00 00 00 
    ccb7:	eb 1e                	jmp    ccd7 <func_32+0xc49>
    ccb9:	8b 85 44 f6 ff ff    	mov    -0x9bc(%rbp),%eax
    ccbf:	48 98                	cltq   
    ccc1:	48 8d 15 f8 99 00 00 	lea    0x99f8(%rip),%rdx        # 166c0 <g_81>
    ccc8:	48 89 94 c5 50 f8 ff 	mov    %rdx,-0x7b0(%rbp,%rax,8)
    cccf:	ff 
    ccd0:	83 85 44 f6 ff ff 01 	addl   $0x1,-0x9bc(%rbp)
    ccd7:	83 bd 44 f6 ff ff 00 	cmpl   $0x0,-0x9bc(%rbp)
    ccde:	7e d9                	jle    ccb9 <func_32+0xc2b>
    cce0:	c7 05 2a 87 00 00 02 	movl   $0x2,0x872a(%rip)        # 15414 <g_64>
    cce7:	00 00 00 
    ccea:	e9 96 0d 00 00       	jmpq   da85 <func_32+0x19f7>
    ccef:	c7 85 38 f6 ff ff 48 	movl   $0xcde8a48,-0x9c8(%rbp)
    ccf6:	8a de 0c 
    ccf9:	c7 85 c0 f8 ff ff 04 	movl   $0x4,-0x740(%rbp)
    cd00:	00 00 00 
    cd03:	c7 85 c4 f8 ff ff 04 	movl   $0x4,-0x73c(%rbp)
    cd0a:	00 00 00 
    cd0d:	c7 85 c8 f8 ff ff 04 	movl   $0x4,-0x738(%rbp)
    cd14:	00 00 00 
    cd17:	c7 85 cc f8 ff ff 04 	movl   $0x4,-0x734(%rbp)
    cd1e:	00 00 00 
    cd21:	c7 85 d0 f8 ff ff 04 	movl   $0x4,-0x730(%rbp)
    cd28:	00 00 00 
    cd2b:	c7 85 d4 f8 ff ff 04 	movl   $0x4,-0x72c(%rbp)
    cd32:	00 00 00 
    cd35:	c7 85 d8 f8 ff ff 04 	movl   $0x4,-0x728(%rbp)
    cd3c:	00 00 00 
    cd3f:	c7 85 dc f8 ff ff 04 	movl   $0x4,-0x724(%rbp)
    cd46:	00 00 00 
    cd49:	c7 85 e0 f8 ff ff 04 	movl   $0x4,-0x720(%rbp)
    cd50:	00 00 00 
    cd53:	48 c7 85 f8 f6 ff ff 	movq   $0x0,-0x908(%rbp)
    cd5a:	00 00 00 00 
    cd5e:	48 8d 05 6b 87 00 00 	lea    0x876b(%rip),%rax        # 154d0 <g_166>
    cd65:	48 89 85 60 f7 ff ff 	mov    %rax,-0x8a0(%rbp)
    cd6c:	c7 85 7c f6 ff ff 6c 	movl   $0x90041c6c,-0x984(%rbp)
    cd73:	1c 04 90 
    cd76:	c6 85 24 f6 ff ff ff 	movb   $0xff,-0x9dc(%rbp)
    cd7d:	48 8d 05 a0 87 00 00 	lea    0x87a0(%rip),%rax        # 15524 <g_499>
    cd84:	48 89 85 68 f7 ff ff 	mov    %rax,-0x898(%rbp)
    cd8b:	48 8d 05 7c ac 00 00 	lea    0xac7c(%rip),%rax        # 17a0e <g_146>
    cd92:	48 89 85 00 f7 ff ff 	mov    %rax,-0x900(%rbp)
    cd99:	48 8d 85 00 f7 ff ff 	lea    -0x900(%rbp),%rax
    cda0:	48 89 85 70 f7 ff ff 	mov    %rax,-0x890(%rbp)
    cda7:	48 c7 85 08 f7 ff ff 	movq   $0x0,-0x8f8(%rbp)
    cdae:	00 00 00 00 
    cdb2:	48 8d 85 08 f7 ff ff 	lea    -0x8f8(%rbp),%rax
    cdb9:	48 89 85 78 f7 ff ff 	mov    %rax,-0x888(%rbp)
    cdc0:	8b 05 4e 86 00 00    	mov    0x864e(%rip),%eax        # 15414 <g_64>
    cdc6:	48 98                	cltq   
    cdc8:	48 8d 14 85 00 00 00 	lea    0x0(,%rax,4),%rdx
    cdcf:	00 
    cdd0:	48 8d 05 09 87 00 00 	lea    0x8709(%rip),%rax        # 154e0 <g_202>
    cdd7:	8b 04 02             	mov    (%rdx,%rax,1),%eax
    cdda:	85 c0                	test   %eax,%eax
    cddc:	0f 84 de 08 00 00    	je     d6c0 <func_32+0x1632>
    cde2:	48 8d 05 43 86 00 00 	lea    0x8643(%rip),%rax        # 1542c <g_87+0xc>
    cde9:	48 89 85 10 f7 ff ff 	mov    %rax,-0x8f0(%rbp)
    cdf0:	48 8d 05 1d 87 00 00 	lea    0x871d(%rip),%rax        # 15514 <g_354>
    cdf7:	48 89 85 80 f7 ff ff 	mov    %rax,-0x880(%rbp)
    cdfe:	48 8d 85 c0 f6 ff ff 	lea    -0x940(%rbp),%rax
    ce05:	48 89 85 88 f7 ff ff 	mov    %rax,-0x878(%rbp)
    ce0c:	c7 85 70 f8 ff ff 15 	movl   $0x5b846315,-0x790(%rbp)
    ce13:	63 84 5b 
    ce16:	c7 85 74 f8 ff ff 15 	movl   $0x5b846315,-0x78c(%rbp)
    ce1d:	63 84 5b 
    ce20:	c7 85 78 f8 ff ff 08 	movl   $0x8,-0x788(%rbp)
    ce27:	00 00 00 
    ce2a:	c7 85 7c f8 ff ff 15 	movl   $0x5b846315,-0x784(%rbp)
    ce31:	63 84 5b 
    ce34:	c7 85 80 f8 ff ff 15 	movl   $0x5b846315,-0x780(%rbp)
    ce3b:	63 84 5b 
    ce3e:	c7 85 84 f8 ff ff 08 	movl   $0x8,-0x77c(%rbp)
    ce45:	00 00 00 
    ce48:	c7 85 88 f8 ff ff 15 	movl   $0x5b846315,-0x778(%rbp)
    ce4f:	63 84 5b 
    ce52:	c6 85 22 f6 ff ff ad 	movb   $0xad,-0x9de(%rbp)
    ce59:	48 8d 05 bc 85 00 00 	lea    0x85bc(%rip),%rax        # 1541c <g_84>
    ce60:	48 89 85 18 f7 ff ff 	mov    %rax,-0x8e8(%rbp)
    ce67:	c7 85 84 f6 ff ff 4a 	movl   $0xbb861b4a,-0x97c(%rbp)
    ce6e:	1b 86 bb 
    ce71:	66 c7 85 28 f6 ff ff 	movw   $0x8,-0x9d8(%rbp)
    ce78:	08 00 
    ce7a:	c7 85 48 f6 ff ff 00 	movl   $0x0,-0x9b8(%rbp)
    ce81:	00 00 00 
    ce84:	eb 1e                	jmp    cea4 <func_32+0xe16>
    ce86:	8b 85 48 f6 ff ff    	mov    -0x9b8(%rbp),%eax
    ce8c:	48 98                	cltq   
    ce8e:	48 8d 95 18 f7 ff ff 	lea    -0x8e8(%rbp),%rdx
    ce95:	48 89 94 c5 58 f8 ff 	mov    %rdx,-0x7a8(%rbp,%rax,8)
    ce9c:	ff 
    ce9d:	83 85 48 f6 ff ff 01 	addl   $0x1,-0x9b8(%rbp)
    cea4:	83 bd 48 f6 ff ff 00 	cmpl   $0x0,-0x9b8(%rbp)
    ceab:	7e d9                	jle    ce86 <func_32+0xdf8>
    cead:	8b 05 61 85 00 00    	mov    0x8561(%rip),%eax        # 15414 <g_64>
    ceb3:	48 98                	cltq   
    ceb5:	48 8d 14 85 00 00 00 	lea    0x0(,%rax,4),%rdx
    cebc:	00 
    cebd:	48 8d 05 1c 86 00 00 	lea    0x861c(%rip),%rax        # 154e0 <g_202>
    cec4:	8b 14 02             	mov    (%rdx,%rax,1),%edx
    cec7:	48 8b 85 10 f7 ff ff 	mov    -0x8f0(%rbp),%rax
    cece:	89 10                	mov    %edx,(%rax)
    ced0:	c6 05 41 85 00 00 00 	movb   $0x0,0x8541(%rip)        # 15418 <g_83>
    ced7:	e9 ee 02 00 00       	jmpq   d1ca <func_32+0x113c>
    cedc:	c7 85 4c f6 ff ff f7 	movl   $0xfffffff7,-0x9b4(%rbp)
    cee3:	ff ff ff 
    cee6:	c7 05 14 86 00 00 00 	movl   $0x0,0x8614(%rip)        # 15504 <g_295>
    ceed:	00 00 00 
    cef0:	e9 b6 02 00 00       	jmpq   d1ab <func_32+0x111d>
    cef5:	c6 85 26 f6 ff ff 96 	movb   $0x96,-0x9da(%rbp)
    cefc:	48 c7 85 a8 f7 ff ff 	movq   $0x1,-0x858(%rbp)
    cf03:	01 00 00 00 
    cf07:	48 8d 05 5d 86 00 00 	lea    0x865d(%rip),%rax        # 1556b <g_518+0x2b>
    cf0e:	48 89 85 b0 f7 ff ff 	mov    %rax,-0x850(%rbp)
    cf15:	48 8d 05 24 87 00 00 	lea    0x8724(%rip),%rax        # 15640 <g_659>
    cf1c:	48 89 85 b8 f7 ff ff 	mov    %rax,-0x848(%rbp)
    cf23:	48 8d 05 0e 85 00 00 	lea    0x850e(%rip),%rax        # 15438 <g_87+0x18>
    cf2a:	48 89 85 c0 f7 ff ff 	mov    %rax,-0x840(%rbp)
    cf31:	48 8d 85 38 f6 ff ff 	lea    -0x9c8(%rbp),%rax
    cf38:	48 89 85 c8 f7 ff ff 	mov    %rax,-0x838(%rbp)
    cf3f:	48 8d 85 c0 f8 ff ff 	lea    -0x740(%rbp),%rax
    cf46:	48 83 c0 20          	add    $0x20,%rax
    cf4a:	48 89 85 d0 f7 ff ff 	mov    %rax,-0x830(%rbp)
    cf51:	48 c7 85 d8 f7 ff ff 	movq   $0x0,-0x828(%rbp)
    cf58:	00 00 00 00 
    cf5c:	48 8d 85 c0 f8 ff ff 	lea    -0x740(%rbp),%rax
    cf63:	48 83 c0 20          	add    $0x20,%rax
    cf67:	48 89 85 e0 f7 ff ff 	mov    %rax,-0x820(%rbp)
    cf6e:	48 8d 05 cb 86 00 00 	lea    0x86cb(%rip),%rax        # 15640 <g_659>
    cf75:	48 89 85 e8 f7 ff ff 	mov    %rax,-0x818(%rbp)
    cf7c:	48 8d 85 c0 f8 ff ff 	lea    -0x740(%rbp),%rax
    cf83:	48 83 c0 14          	add    $0x14,%rax
    cf87:	48 89 85 f0 f7 ff ff 	mov    %rax,-0x810(%rbp)
    cf8e:	48 8d 85 c0 f8 ff ff 	lea    -0x740(%rbp),%rax
    cf95:	48 83 c0 14          	add    $0x14,%rax
    cf99:	48 89 85 f8 f7 ff ff 	mov    %rax,-0x808(%rbp)
    cfa0:	48 8d 85 30 f6 ff ff 	lea    -0x9d0(%rbp),%rax
    cfa7:	48 89 85 00 f8 ff ff 	mov    %rax,-0x800(%rbp)
    cfae:	48 8d 05 83 84 00 00 	lea    0x8483(%rip),%rax        # 15438 <g_87+0x18>
    cfb5:	48 89 85 08 f8 ff ff 	mov    %rax,-0x7f8(%rbp)
    cfbc:	48 c7 85 10 f8 ff ff 	movq   $0x0,-0x7f0(%rbp)
    cfc3:	00 00 00 00 
    cfc7:	48 8d 85 38 f6 ff ff 	lea    -0x9c8(%rbp),%rax
    cfce:	48 89 85 18 f8 ff ff 	mov    %rax,-0x7e8(%rbp)
    cfd5:	48 c7 85 20 f8 ff ff 	movq   $0x0,-0x7e0(%rbp)
    cfdc:	00 00 00 00 
    cfe0:	48 8d 05 51 84 00 00 	lea    0x8451(%rip),%rax        # 15438 <g_87+0x18>
    cfe7:	48 89 85 28 f8 ff ff 	mov    %rax,-0x7d8(%rbp)
    cfee:	c7 85 50 f6 ff ff 00 	movl   $0x0,-0x9b0(%rbp)
    cff5:	00 00 00 
    cff8:	eb 1e                	jmp    d018 <func_32+0xf8a>
    cffa:	8b 85 50 f6 ff ff    	mov    -0x9b0(%rbp),%eax
    d000:	48 98                	cltq   
    d002:	48 8d 15 2f 86 00 00 	lea    0x862f(%rip),%rdx        # 15638 <g_655>
    d009:	48 89 94 c5 20 f9 ff 	mov    %rdx,-0x6e0(%rbp,%rax,8)
    d010:	ff 
    d011:	83 85 50 f6 ff ff 01 	addl   $0x1,-0x9b0(%rbp)
    d018:	83 bd 50 f6 ff ff 03 	cmpl   $0x3,-0x9b0(%rbp)
    d01f:	7e d9                	jle    cffa <func_32+0xf6c>
    d021:	48 8b 85 e8 f6 ff ff 	mov    -0x918(%rbp),%rax
    d028:	0f b7 d8             	movzwl %ax,%ebx
    d02b:	8b 05 cf 84 00 00    	mov    0x84cf(%rip),%eax        # 15500 <g_223>
    d031:	44 0f b6 e0          	movzbl %al,%r12d
    d035:	48 8b 05 94 96 00 00 	mov    0x9694(%rip),%rax        # 166d0 <g_82>
    d03c:	0f b6 00             	movzbl (%rax),%eax
    d03f:	44 0f be e8          	movsbl %al,%r13d
    d043:	0f b7 85 08 f6 ff ff 	movzwl -0x9f8(%rbp),%eax
    d04a:	48 89 85 a8 f7 ff ff 	mov    %rax,-0x858(%rbp)
    d051:	48 83 bd 10 f6 ff ff 	cmpq   $0x0,-0x9f0(%rbp)
    d058:	00 
    d059:	75 0a                	jne    d065 <func_32+0xfd7>
    d05b:	8b 05 ab 83 00 00    	mov    0x83ab(%rip),%eax        # 1540c <g_8>
    d061:	85 c0                	test   %eax,%eax
    d063:	74 07                	je     d06c <func_32+0xfde>
    d065:	ba 01 00 00 00       	mov    $0x1,%edx
    d06a:	eb 05                	jmp    d071 <func_32+0xfe3>
    d06c:	ba 00 00 00 00       	mov    $0x0,%edx
    d071:	0f be 85 26 f6 ff ff 	movsbl -0x9da(%rbp),%eax
    d078:	89 d6                	mov    %edx,%esi
    d07a:	89 c7                	mov    %eax,%edi
    d07c:	e8 84 95 ff ff       	callq  6605 <safe_sub_func_int32_t_s_s>
    d081:	89 c2                	mov    %eax,%edx
    d083:	48 8b 85 10 f7 ff ff 	mov    -0x8f0(%rbp),%rax
    d08a:	8b 08                	mov    (%rax),%ecx
    d08c:	48 8b 85 10 f7 ff ff 	mov    -0x8f0(%rbp),%rax
    d093:	31 ca                	xor    %ecx,%edx
    d095:	89 10                	mov    %edx,(%rax)
    d097:	8b 00                	mov    (%rax),%eax
    d099:	4c 63 f0             	movslq %eax,%r14
    d09c:	8b 05 5a 84 00 00    	mov    0x845a(%rip),%eax        # 154fc <g_202+0x1c>
    d0a2:	89 c2                	mov    %eax,%edx
    d0a4:	8b 85 30 f6 ff ff    	mov    -0x9d0(%rbp),%eax
    d0aa:	98                   	cwtl   
    d0ab:	89 d6                	mov    %edx,%esi
    d0ad:	89 c7                	mov    %eax,%edi
    d0af:	e8 76 94 ff ff       	callq  652a <safe_rshift_func_int16_t_s_s>
    d0b4:	48 0f bf c0          	movswq %ax,%rax
    d0b8:	4c 89 f6             	mov    %r14,%rsi
    d0bb:	48 89 c7             	mov    %rax,%rdi
    d0be:	e8 f1 98 ff ff       	callq  69b4 <safe_mod_func_int64_t_s_s>
    d0c3:	48 8b 95 10 f6 ff ff 	mov    -0x9f0(%rbp),%rdx
    d0ca:	48 39 d0             	cmp    %rdx,%rax
    d0cd:	0f 94 c0             	sete   %al
    d0d0:	0f b6 c0             	movzbl %al,%eax
    d0d3:	44 89 ee             	mov    %r13d,%esi
    d0d6:	89 c7                	mov    %eax,%edi
    d0d8:	e8 35 91 ff ff       	callq  6212 <safe_mul_func_int8_t_s_s>
    d0dd:	0f be c0             	movsbl %al,%eax
    d0e0:	39 85 0c f6 ff ff    	cmp    %eax,-0x9f4(%rbp)
    d0e6:	8b 85 a0 f8 ff ff    	mov    -0x760(%rbp),%eax
    d0ec:	89 c2                	mov    %eax,%edx
    d0ee:	48 8b 05 db 95 00 00 	mov    0x95db(%rip),%rax        # 166d0 <g_82>
    d0f5:	83 e2 10             	and    $0x10,%edx
    d0f8:	88 10                	mov    %dl,(%rax)
    d0fa:	0f b6 10             	movzbl (%rax),%edx
    d0fd:	48 8b 85 b0 f7 ff ff 	mov    -0x850(%rbp),%rax
    d104:	88 10                	mov    %dl,(%rax)
    d106:	48 8b 85 b0 f7 ff ff 	mov    -0x850(%rbp),%rax
    d10d:	0f b6 00             	movzbl (%rax),%eax
    d110:	0f b6 c0             	movzbl %al,%eax
    d113:	44 89 e6             	mov    %r12d,%esi
    d116:	89 c7                	mov    %eax,%edi
    d118:	e8 76 9a ff ff       	callq  6b93 <safe_mul_func_uint8_t_u_u>
    d11d:	0f b6 c0             	movzbl %al,%eax
    d120:	89 de                	mov    %ebx,%esi
    d122:	89 c7                	mov    %eax,%edi
    d124:	e8 d6 9b ff ff       	callq  6cff <safe_add_func_uint16_t_u_u>
    d129:	48 8b 95 b8 f7 ff ff 	mov    -0x848(%rbp),%rdx
    d130:	8b 12                	mov    (%rdx),%edx
    d132:	0f b7 c0             	movzwl %ax,%eax
    d135:	21 c2                	and    %eax,%edx
    d137:	48 8b 85 b8 f7 ff ff 	mov    -0x848(%rbp),%rax
    d13e:	89 10                	mov    %edx,(%rax)
    d140:	83 85 4c f6 ff ff 01 	addl   $0x1,-0x9b4(%rbp)
    d147:	48 8b 85 b8 f7 ff ff 	mov    -0x848(%rbp),%rax
    d14e:	8b 08                	mov    (%rax),%ecx
    d150:	48 8b 85 50 f8 ff ff 	mov    -0x7b0(%rbp),%rax
    d157:	48 85 c0             	test   %rax,%rax
    d15a:	0f 94 c0             	sete   %al
    d15d:	0f b6 d0             	movzbl %al,%edx
    d160:	48 8b 85 c0 f7 ff ff 	mov    -0x840(%rbp),%rax
    d167:	89 10                	mov    %edx,(%rax)
    d169:	48 8b 85 c0 f7 ff ff 	mov    -0x840(%rbp),%rax
    d170:	8b 00                	mov    (%rax),%eax
    d172:	39 c1                	cmp    %eax,%ecx
    d174:	0f 95 c0             	setne  %al
    d177:	0f b6 d0             	movzbl %al,%edx
    d17a:	48 8b 85 d0 f7 ff ff 	mov    -0x830(%rbp),%rax
    d181:	8b 00                	mov    (%rax),%eax
    d183:	09 c2                	or     %eax,%edx
    d185:	48 8b 85 d0 f7 ff ff 	mov    -0x830(%rbp),%rax
    d18c:	89 10                	mov    %edx,(%rax)
    d18e:	48 8b 85 00 f6 ff ff 	mov    -0xa00(%rbp),%rax
    d195:	48 89 85 f8 f6 ff ff 	mov    %rax,-0x908(%rbp)
    d19c:	8b 05 62 83 00 00    	mov    0x8362(%rip),%eax        # 15504 <g_295>
    d1a2:	83 c0 01             	add    $0x1,%eax
    d1a5:	89 05 59 83 00 00    	mov    %eax,0x8359(%rip)        # 15504 <g_295>
    d1ab:	8b 05 53 83 00 00    	mov    0x8353(%rip),%eax        # 15504 <g_295>
    d1b1:	83 f8 07             	cmp    $0x7,%eax
    d1b4:	0f 86 3b fd ff ff    	jbe    cef5 <func_32+0xe67>
    d1ba:	0f b6 05 57 82 00 00 	movzbl 0x8257(%rip),%eax        # 15418 <g_83>
    d1c1:	83 c0 01             	add    $0x1,%eax
    d1c4:	88 05 4e 82 00 00    	mov    %al,0x824e(%rip)        # 15418 <g_83>
    d1ca:	0f b6 05 47 82 00 00 	movzbl 0x8247(%rip),%eax        # 15418 <g_83>
    d1d1:	3c 07                	cmp    $0x7,%al
    d1d3:	0f 86 03 fd ff ff    	jbe    cedc <func_32+0xe4e>
    d1d9:	48 8b 85 10 f7 ff ff 	mov    -0x8f0(%rbp),%rax
    d1e0:	8b 00                	mov    (%rax),%eax
    d1e2:	85 c0                	test   %eax,%eax
    d1e4:	0f 8f 7e 04 00 00    	jg     d668 <func_32+0x15da>
    d1ea:	0f b7 05 31 83 00 00 	movzwl 0x8331(%rip),%eax        # 15522 <g_498>
    d1f1:	0f b7 d0             	movzwl %ax,%edx
    d1f4:	b8 ff ff ff ff       	mov    $0xffffffff,%eax
    d1f9:	66 85 c0             	test   %ax,%ax
    d1fc:	74 1a                	je     d218 <func_32+0x118a>
    d1fe:	48 8b 85 80 f7 ff ff 	mov    -0x880(%rbp),%rax
    d205:	0f b7 00             	movzwl (%rax),%eax
    d208:	8d 70 ff             	lea    -0x1(%rax),%esi
    d20b:	48 8b 8d 80 f7 ff ff 	mov    -0x880(%rbp),%rcx
    d212:	66 89 31             	mov    %si,(%rcx)
    d215:	66 85 c0             	test   %ax,%ax
    d218:	48 8b 85 88 f7 ff ff 	mov    -0x878(%rbp),%rax
    d21f:	48 8d 8d c8 f6 ff ff 	lea    -0x938(%rbp),%rcx
    d226:	48 89 08             	mov    %rcx,(%rax)
    d229:	48 8b 85 88 f7 ff ff 	mov    -0x878(%rbp),%rax
    d230:	48 8b 00             	mov    (%rax),%rax
    d233:	48 39 85 60 f7 ff ff 	cmp    %rax,-0x8a0(%rbp)
    d23a:	0f 95 c0             	setne  %al
    d23d:	0f b6 c0             	movzbl %al,%eax
    d240:	f7 d0                	not    %eax
    d242:	89 c1                	mov    %eax,%ecx
    d244:	8b 85 a0 f8 ff ff    	mov    -0x760(%rbp),%eax
    d24a:	39 c1                	cmp    %eax,%ecx
    d24c:	0f 9e c0             	setle  %al
    d24f:	0f b6 c0             	movzbl %al,%eax
    d252:	39 85 0c f6 ff ff    	cmp    %eax,-0x9f4(%rbp)
    d258:	72 0c                	jb     d266 <func_32+0x11d8>
    d25a:	0f b7 05 b1 82 00 00 	movzwl 0x82b1(%rip),%eax        # 15512 <g_315>
    d261:	66 85 c0             	test   %ax,%ax
    d264:	74 07                	je     d26d <func_32+0x11df>
    d266:	b8 01 00 00 00       	mov    $0x1,%eax
    d26b:	eb 05                	jmp    d272 <func_32+0x11e4>
    d26d:	b8 00 00 00 00       	mov    $0x0,%eax
    d272:	0f b7 c0             	movzwl %ax,%eax
    d275:	89 d6                	mov    %edx,%esi
    d277:	89 c7                	mov    %eax,%edi
    d279:	e8 10 9b ff ff       	callq  6d8e <safe_div_func_uint16_t_u_u>
    d27e:	0f b6 05 27 83 00 00 	movzbl 0x8327(%rip),%eax        # 155ac <g_518+0x6c>
    d285:	0f b6 d0             	movzbl %al,%edx
    d288:	0f b7 05 93 82 00 00 	movzwl 0x8293(%rip),%eax        # 15522 <g_498>
    d28f:	98                   	cwtl   
    d290:	89 d6                	mov    %edx,%esi
    d292:	89 c7                	mov    %eax,%edi
    d294:	e8 1f 9c ff ff       	callq  6eb8 <safe_add_func_uint32_t_u_u>
    d299:	8b 85 7c f6 ff ff    	mov    -0x984(%rbp),%eax
    d29f:	0c ff                	or     $0xff,%al
    d2a1:	89 c2                	mov    %eax,%edx
    d2a3:	0f b6 05 60 82 00 00 	movzbl 0x8260(%rip),%eax        # 1550a <g_302+0x2>
    d2aa:	0f b6 c0             	movzbl %al,%eax
    d2ad:	48 31 d0             	xor    %rdx,%rax
    d2b0:	48 83 f8 ff          	cmp    $0xffffffffffffffff,%rax
    d2b4:	0f 85 ae 03 00 00    	jne    d668 <func_32+0x15da>
    d2ba:	48 b8 b9 b9 01 01 b9 	movabs $0x101b9b90101b9b9,%rax
    d2c1:	b9 01 01 
    d2c4:	48 89 85 f0 f8 ff ff 	mov    %rax,-0x710(%rbp)
    d2cb:	c6 85 f8 f8 ff ff b9 	movb   $0xb9,-0x708(%rbp)
    d2d2:	48 bb 5c 4d 5c 4d 5c 	movabs $0x4d5c4d5c4d5c4d5c,%rbx
    d2d9:	4d 5c 4d 
    d2dc:	48 89 9d f9 f8 ff ff 	mov    %rbx,-0x707(%rbp)
    d2e3:	c6 85 01 f9 ff ff 5c 	movb   $0x5c,-0x6ff(%rbp)
    d2ea:	48 bb b9 01 01 b9 b9 	movabs $0xb90101b9b90101b9,%rbx
    d2f1:	01 01 b9 
    d2f4:	48 89 9d 02 f9 ff ff 	mov    %rbx,-0x6fe(%rbp)
    d2fb:	c6 85 0a f9 ff ff b9 	movb   $0xb9,-0x6f6(%rbp)
    d302:	48 bb eb 4d eb 4d eb 	movabs $0x4deb4deb4deb4deb,%rbx
    d309:	4d eb 4d 
    d30c:	48 89 9d 0b f9 ff ff 	mov    %rbx,-0x6f5(%rbp)
    d313:	c6 85 13 f9 ff ff eb 	movb   $0xeb,-0x6ed(%rbp)
    d31a:	48 89 85 14 f9 ff ff 	mov    %rax,-0x6ec(%rbp)
    d321:	c6 85 1c f9 ff ff b9 	movb   $0xb9,-0x6e4(%rbp)
    d328:	c7 85 88 f6 ff ff 06 	movl   $0x6,-0x978(%rbp)
    d32f:	00 00 00 
    d332:	c7 85 8c f6 ff ff 8b 	movl   $0x6ab7298b,-0x974(%rbp)
    d339:	29 b7 6a 
    d33c:	c7 85 90 f6 ff ff d8 	movl   $0x2f2e84d8,-0x970(%rbp)
    d343:	84 2e 2f 
    d346:	c7 85 3c f6 ff ff f7 	movl   $0xfffffff7,-0x9c4(%rbp)
    d34d:	ff ff ff 
    d350:	c7 85 94 f6 ff ff 03 	movl   $0x3,-0x96c(%rbp)
    d357:	00 00 00 
    d35a:	c7 85 98 f6 ff ff 04 	movl   $0x4,-0x968(%rbp)
    d361:	00 00 00 
    d364:	c7 85 9c f6 ff ff 5a 	movl   $0x4027de5a,-0x964(%rbp)
    d36b:	de 27 40 
    d36e:	c7 85 a0 f6 ff ff ef 	movl   $0x8b08b3ef,-0x960(%rbp)
    d375:	b3 08 8b 
    d378:	66 c7 85 2a f6 ff ff 	movw   $0x3896,-0x9d6(%rbp)
    d37f:	96 38 
    d381:	48 8d 85 d0 f6 ff ff 	lea    -0x930(%rbp),%rax
    d388:	48 89 85 90 f7 ff ff 	mov    %rax,-0x870(%rbp)
    d38f:	c7 85 a4 f6 ff ff 00 	movl   $0x0,-0x95c(%rbp)
    d396:	00 00 00 
    d399:	c7 05 9d 82 00 00 07 	movl   $0x7,0x829d(%rip)        # 15640 <g_659>
    d3a0:	00 00 00 
    d3a3:	eb 6a                	jmp    d40f <func_32+0x1381>
    d3a5:	c6 85 25 f6 ff ff 74 	movb   $0x74,-0x9db(%rbp)
    d3ac:	48 8d 85 20 f9 ff ff 	lea    -0x6e0(%rbp),%rax
    d3b3:	48 8d 15 c6 42 00 00 	lea    0x42c6(%rip),%rdx        # 11680 <g_1636+0x61a>
    d3ba:	b9 1f 00 00 00       	mov    $0x1f,%ecx
    d3bf:	48 89 c7             	mov    %rax,%rdi
    d3c2:	48 89 d6             	mov    %rdx,%rsi
    d3c5:	f3 48 a5             	rep movsq %ds:(%rsi),%es:(%rdi)
    d3c8:	48 89 f2             	mov    %rsi,%rdx
    d3cb:	48 89 f8             	mov    %rdi,%rax
    d3ce:	8b 0a                	mov    (%rdx),%ecx
    d3d0:	89 08                	mov    %ecx,(%rax)
    d3d2:	48 8d 40 04          	lea    0x4(%rax),%rax
    d3d6:	48 8d 52 04          	lea    0x4(%rdx),%rdx
    d3da:	48 8b 85 00 f6 ff ff 	mov    -0xa00(%rbp),%rax
    d3e1:	8b 00                	mov    (%rax),%eax
    d3e3:	85 c0                	test   %eax,%eax
    d3e5:	75 34                	jne    d41b <func_32+0x138d>
    d3e7:	80 bd 25 f6 ff ff 00 	cmpb   $0x0,-0x9db(%rbp)
    d3ee:	75 2e                	jne    d41e <func_32+0x1390>
    d3f0:	0f b6 85 22 f6 ff ff 	movzbl -0x9de(%rbp),%eax
    d3f7:	83 c0 01             	add    $0x1,%eax
    d3fa:	88 85 22 f6 ff ff    	mov    %al,-0x9de(%rbp)
    d400:	8b 05 3a 82 00 00    	mov    0x823a(%rip),%eax        # 15640 <g_659>
    d406:	83 e8 01             	sub    $0x1,%eax
    d409:	89 05 31 82 00 00    	mov    %eax,0x8231(%rip)        # 15640 <g_659>
    d40f:	8b 05 2b 82 00 00    	mov    0x822b(%rip),%eax        # 15640 <g_659>
    d415:	85 c0                	test   %eax,%eax
    d417:	79 8c                	jns    d3a5 <func_32+0x1317>
    d419:	eb 04                	jmp    d41f <func_32+0x1391>
    d41b:	90                   	nop
    d41c:	eb 01                	jmp    d41f <func_32+0x1391>
    d41e:	90                   	nop
    d41f:	48 8b 05 a2 92 00 00 	mov    0x92a2(%rip),%rax        # 166c8 <g_80>
    d426:	48 8d 95 70 f8 ff ff 	lea    -0x790(%rbp),%rdx
    d42d:	48 83 c2 18          	add    $0x18,%rdx
    d431:	48 89 10             	mov    %rdx,(%rax)
    d434:	48 8b 85 58 f8 ff ff 	mov    -0x7a8(%rbp),%rax
    d43b:	48 39 85 20 f7 ff ff 	cmp    %rax,-0x8e0(%rbp)
    d442:	0f 85 af 00 00 00    	jne    d4f7 <func_32+0x1469>
    d448:	66 c7 85 2c f6 ff ff 	movw   $0x3658,-0x9d4(%rbp)
    d44f:	58 36 
    d451:	c7 85 a8 f6 ff ff 00 	movl   $0x0,-0x958(%rbp)
    d458:	00 00 00 
    d45b:	c7 85 ac f6 ff ff c2 	movl   $0xe08134c2,-0x954(%rbp)
    d462:	34 81 e0 
    d465:	c7 85 b0 f6 ff ff c3 	movl   $0x9b8f0fc3,-0x950(%rbp)
    d46c:	0f 8f 9b 
    d46f:	c7 85 b4 f6 ff ff b7 	movl   $0xdede17b7,-0x94c(%rbp)
    d476:	17 de de 
    d479:	c7 45 cf 7e f7 f7 7e 	movl   $0x7ef7f77e,-0x31(%rbp)
    d480:	66 c7 45 d3 f7 f7    	movw   $0xf7f7,-0x2d(%rbp)
    d486:	48 8d 85 10 f7 ff ff 	lea    -0x8f0(%rbp),%rax
    d48d:	48 89 85 a0 f7 ff ff 	mov    %rax,-0x860(%rbp)
    d494:	c7 85 54 f6 ff ff 00 	movl   $0x0,-0x9ac(%rbp)
    d49b:	00 00 00 
    d49e:	eb 1a                	jmp    d4ba <func_32+0x142c>
    d4a0:	8b 85 54 f6 ff ff    	mov    -0x9ac(%rbp),%eax
    d4a6:	48 98                	cltq   
    d4a8:	c7 84 85 20 f9 ff ff 	movl   $0xdbd37a06,-0x6e0(%rbp,%rax,4)
    d4af:	06 7a d3 db 
    d4b3:	83 85 54 f6 ff ff 01 	addl   $0x1,-0x9ac(%rbp)
    d4ba:	83 bd 54 f6 ff ff 01 	cmpl   $0x1,-0x9ac(%rbp)
    d4c1:	7e dd                	jle    d4a0 <func_32+0x1412>
    d4c3:	83 ad 84 f6 ff ff 01 	subl   $0x1,-0x97c(%rbp)
    d4ca:	48 8b 85 a0 f7 ff ff 	mov    -0x860(%rbp),%rax
    d4d1:	48 8b 95 00 f6 ff ff 	mov    -0xa00(%rbp),%rdx
    d4d8:	48 89 10             	mov    %rdx,(%rax)
    d4db:	48 8b 05 de 91 00 00 	mov    0x91de(%rip),%rax        # 166c0 <g_81>
    d4e2:	8b 10                	mov    (%rax),%edx
    d4e4:	8b 05 56 81 00 00    	mov    0x8156(%rip),%eax        # 15640 <g_659>
    d4ea:	21 d0                	and    %edx,%eax
    d4ec:	89 05 4e 81 00 00    	mov    %eax,0x814e(%rip)        # 15640 <g_659>
    d4f2:	e9 da 01 00 00       	jmpq   d6d1 <func_32+0x1643>
    d4f7:	48 8d 85 3c f6 ff ff 	lea    -0x9c4(%rbp),%rax
    d4fe:	48 89 85 98 f7 ff ff 	mov    %rax,-0x868(%rbp)
    d505:	48 8b 05 bc 91 00 00 	mov    0x91bc(%rip),%rax        # 166c8 <g_80>
    d50c:	48 8d 95 38 f6 ff ff 	lea    -0x9c8(%rbp),%rdx
    d513:	48 89 10             	mov    %rdx,(%rax)
    d516:	48 8b 00             	mov    (%rax),%rax
    d519:	48 89 85 98 f7 ff ff 	mov    %rax,-0x868(%rbp)
    d520:	48 8b 05 99 91 00 00 	mov    0x9199(%rip),%rax        # 166c0 <g_81>
    d527:	8b 00                	mov    (%rax),%eax
    d529:	85 c0                	test   %eax,%eax
    d52b:	0f 85 45 05 00 00    	jne    da76 <func_32+0x19e8>
    d531:	8b 85 a4 f6 ff ff    	mov    -0x95c(%rbp),%eax
    d537:	0f b6 d8             	movzbl %al,%ebx
    d53a:	8b 85 0c f6 ff ff    	mov    -0x9f4(%rbp),%eax
    d540:	44 0f bf e0          	movswl %ax,%r12d
    d544:	48 8b 05 8d 91 00 00 	mov    0x918d(%rip),%rax        # 166d8 <g_203>
    d54b:	48 8b 00             	mov    (%rax),%rax
    d54e:	49 89 c5             	mov    %rax,%r13
    d551:	48 c7 c0 ff ff ff ff 	mov    $0xffffffffffffffff,%rax
    d558:	89 c6                	mov    %eax,%esi
    d55a:	bf 13 53 00 00       	mov    $0x5313,%edi
    d55f:	e8 6c 99 ff ff       	callq  6ed0 <safe_sub_func_uint32_t_u_u>
    d564:	89 c0                	mov    %eax,%eax
    d566:	4c 89 ee             	mov    %r13,%rsi
    d569:	48 89 c7             	mov    %rax,%rdi
    d56c:	e8 d0 92 ff ff       	callq  6841 <safe_add_func_int64_t_s_s>
    d571:	48 8d 05 58 7f 00 00 	lea    0x7f58(%rip),%rax        # 154d0 <g_166>
    d578:	48 39 85 90 f7 ff ff 	cmp    %rax,-0x870(%rbp)
    d57f:	0f 95 c0             	setne  %al
    d582:	0f b6 d0             	movzbl %al,%edx
    d585:	48 8b 05 44 91 00 00 	mov    0x9144(%rip),%rax        # 166d0 <g_82>
    d58c:	0f b6 00             	movzbl (%rax),%eax
    d58f:	3c 01                	cmp    $0x1,%al
    d591:	0f 96 c0             	setbe  %al
    d594:	0f b6 c8             	movzbl %al,%ecx
    d597:	0f b7 05 84 7f 00 00 	movzwl 0x7f84(%rip),%eax        # 15522 <g_498>
    d59e:	98                   	cwtl   
    d59f:	09 c8                	or     %ecx,%eax
    d5a1:	39 c2                	cmp    %eax,%edx
    d5a3:	0f 9e c0             	setle  %al
    d5a6:	0f b6 c0             	movzbl %al,%eax
    d5a9:	8b 95 0c f6 ff ff    	mov    -0x9f4(%rbp),%edx
    d5af:	09 d0                	or     %edx,%eax
    d5b1:	98                   	cwtl   
    d5b2:	44 89 e6             	mov    %r12d,%esi
    d5b5:	89 c7                	mov    %eax,%edi
    d5b7:	e8 39 8e ff ff       	callq  63f5 <safe_mul_func_int16_t_s_s>
    d5bc:	0f b6 d0             	movzbl %al,%edx
    d5bf:	48 8b 85 98 f7 ff ff 	mov    -0x868(%rbp),%rax
    d5c6:	8b 00                	mov    (%rax),%eax
    d5c8:	0f b6 c0             	movzbl %al,%eax
    d5cb:	89 d6                	mov    %edx,%esi
    d5cd:	89 c7                	mov    %eax,%edi
    d5cf:	e8 da 95 ff ff       	callq  6bae <safe_mod_func_uint8_t_u_u>
    d5d4:	0f b6 c0             	movzbl %al,%eax
    d5d7:	89 c6                	mov    %eax,%esi
    d5d9:	bf f7 ff ff ff       	mov    $0xfffffff7,%edi
    d5de:	e8 42 99 ff ff       	callq  6f25 <safe_div_func_uint32_t_u_u>
    d5e3:	89 c2                	mov    %eax,%edx
    d5e5:	0f b7 05 22 a4 00 00 	movzwl 0xa422(%rip),%eax        # 17a0e <g_146>
    d5ec:	21 c2                	and    %eax,%edx
    d5ee:	48 8b 05 43 80 00 00 	mov    0x8043(%rip),%rax        # 15638 <g_655>
    d5f5:	31 d0                	xor    %edx,%eax
    d5f7:	0f b6 c0             	movzbl %al,%eax
    d5fa:	89 de                	mov    %ebx,%esi
    d5fc:	89 c7                	mov    %eax,%edi
    d5fe:	e8 90 95 ff ff       	callq  6b93 <safe_mul_func_uint8_t_u_u>
    d603:	0f b6 d0             	movzbl %al,%edx
    d606:	48 8b 05 c3 90 00 00 	mov    0x90c3(%rip),%rax        # 166d0 <g_82>
    d60d:	0f b6 00             	movzbl (%rax),%eax
    d610:	0f b6 c0             	movzbl %al,%eax
    d613:	89 d6                	mov    %edx,%esi
    d615:	89 c7                	mov    %eax,%edi
    d617:	e8 77 95 ff ff       	callq  6b93 <safe_mul_func_uint8_t_u_u>
    d61c:	0f b6 c0             	movzbl %al,%eax
    d61f:	ba 02 00 00 00       	mov    $0x2,%edx
    d624:	39 d0                	cmp    %edx,%eax
    d626:	0f 9f c0             	setg   %al
    d629:	0f b6 d0             	movzbl %al,%edx
    d62c:	0f b7 85 08 f6 ff ff 	movzwl -0x9f8(%rbp),%eax
    d633:	39 c2                	cmp    %eax,%edx
    d635:	0f 9e c0             	setle  %al
    d638:	0f b6 d0             	movzbl %al,%edx
    d63b:	48 8b 85 00 f6 ff ff 	mov    -0xa00(%rbp),%rax
    d642:	8b 00                	mov    (%rax),%eax
    d644:	39 c2                	cmp    %eax,%edx
    d646:	48 8b 05 7b 90 00 00 	mov    0x907b(%rip),%rax        # 166c8 <g_80>
    d64d:	48 8b 00             	mov    (%rax),%rax
    d650:	8b 08                	mov    (%rax),%ecx
    d652:	48 8b 85 10 f7 ff ff 	mov    -0x8f0(%rbp),%rax
    d659:	8b 10                	mov    (%rax),%edx
    d65b:	48 8b 85 10 f7 ff ff 	mov    -0x8f0(%rbp),%rax
    d662:	31 ca                	xor    %ecx,%edx
    d664:	89 10                	mov    %edx,(%rax)
    d666:	eb 69                	jmp    d6d1 <func_32+0x1643>
    d668:	66 c7 85 2e f6 ff ff 	movw   $0x9a99,-0x9d2(%rbp)
    d66f:	99 9a 
    d671:	c7 85 b8 f6 ff ff 01 	movl   $0x1,-0x948(%rbp)
    d678:	00 00 00 
    d67b:	c7 85 20 f9 ff ff fa 	movl   $0xfffffffa,-0x6e0(%rbp)
    d682:	ff ff ff 
    d685:	c7 85 24 f9 ff ff fa 	movl   $0xfffffffa,-0x6dc(%rbp)
    d68c:	ff ff ff 
    d68f:	c7 85 28 f9 ff ff fa 	movl   $0xfffffffa,-0x6d8(%rbp)
    d696:	ff ff ff 
    d699:	c7 85 2c f9 ff ff fa 	movl   $0xfffffffa,-0x6d4(%rbp)
    d6a0:	ff ff ff 
    d6a3:	c7 85 30 f9 ff ff fa 	movl   $0xfffffffa,-0x6d0(%rbp)
    d6aa:	ff ff ff 
    d6ad:	0f b7 85 28 f6 ff ff 	movzwl -0x9d8(%rbp),%eax
    d6b4:	83 e8 01             	sub    $0x1,%eax
    d6b7:	66 89 85 28 f6 ff ff 	mov    %ax,-0x9d8(%rbp)
    d6be:	eb 11                	jmp    d6d1 <func_32+0x1643>
    d6c0:	c7 85 80 f6 ff ff 09 	movl   $0x9,-0x980(%rbp)
    d6c7:	00 00 00 
    d6ca:	83 ad 80 f6 ff ff 01 	subl   $0x1,-0x980(%rbp)
    d6d1:	8b 9d 0c f6 ff ff    	mov    -0x9f4(%rbp),%ebx
    d6d7:	8b 85 64 f8 ff ff    	mov    -0x79c(%rbp),%eax
    d6dd:	89 c6                	mov    %eax,%esi
    d6df:	bf fd ff ff ff       	mov    $0xfffffffd,%edi
    d6e4:	e8 3c 98 ff ff       	callq  6f25 <safe_div_func_uint32_t_u_u>
    d6e9:	83 f8 01             	cmp    $0x1,%eax
    d6ec:	48 8b 85 18 f6 ff ff 	mov    -0x9e8(%rbp),%rax
    d6f3:	0f b6 00             	movzbl (%rax),%eax
    d6f6:	0f b6 d0             	movzbl %al,%edx
    d6f9:	48 8b 85 18 f6 ff ff 	mov    -0x9e8(%rbp),%rax
    d700:	0f b6 00             	movzbl (%rax),%eax
    d703:	0f b6 c0             	movzbl %al,%eax
    d706:	89 d6                	mov    %edx,%esi
    d708:	89 c7                	mov    %eax,%edi
    d70a:	e8 cc 94 ff ff       	callq  6bdb <safe_div_func_uint8_t_u_u>
    d70f:	0f b7 85 08 f6 ff ff 	movzwl -0x9f8(%rbp),%eax
    d716:	48 39 85 10 f6 ff ff 	cmp    %rax,-0x9f0(%rbp)
    d71d:	0f 92 c0             	setb   %al
    d720:	0f b6 c0             	movzbl %al,%eax
    d723:	89 85 74 f6 ff ff    	mov    %eax,-0x98c(%rbp)
    d729:	8b 85 74 f6 ff ff    	mov    -0x98c(%rbp),%eax
    d72f:	48 98                	cltq   
    d731:	48 39 85 10 f6 ff ff 	cmp    %rax,-0x9f0(%rbp)
    d738:	0f 93 c0             	setae  %al
    d73b:	0f b6 d0             	movzbl %al,%edx
    d73e:	48 8b 05 8b 8f 00 00 	mov    0x8f8b(%rip),%rax        # 166d0 <g_82>
    d745:	0f b6 00             	movzbl (%rax),%eax
    d748:	0f b6 c0             	movzbl %al,%eax
    d74b:	25 df 00 00 00       	and    $0xdf,%eax
    d750:	48 39 c2             	cmp    %rax,%rdx
    d753:	0f 9f c0             	setg   %al
    d756:	0f b6 d0             	movzbl %al,%edx
    d759:	48 8b 05 78 8f 00 00 	mov    0x8f78(%rip),%rax        # 166d8 <g_203>
    d760:	48 8b 00             	mov    (%rax),%rax
    d763:	48 89 d6             	mov    %rdx,%rsi
    d766:	48 89 c7             	mov    %rax,%rdi
    d769:	e8 c0 98 ff ff       	callq  702e <safe_add_func_uint64_t_u_u>
    d76e:	48 83 f8 01          	cmp    $0x1,%rax
    d772:	74 07                	je     d77b <func_32+0x16ed>
    d774:	b8 01 00 00 00       	mov    $0x1,%eax
    d779:	eb 05                	jmp    d780 <func_32+0x16f2>
    d77b:	b8 00 00 00 00       	mov    $0x0,%eax
    d780:	0f b7 c0             	movzwl %ax,%eax
    d783:	89 de                	mov    %ebx,%esi
    d785:	89 c7                	mov    %eax,%edi
    d787:	e8 bc 96 ff ff       	callq  6e48 <safe_rshift_func_uint16_t_u_s>
    d78c:	66 85 c0             	test   %ax,%ax
    d78f:	0f 84 a6 00 00 00    	je     d83b <func_32+0x17ad>
    d795:	c7 05 61 7d 00 00 02 	movl   $0x2,0x7d61(%rip)        # 15500 <g_223>
    d79c:	00 00 00 
    d79f:	eb 6b                	jmp    d80c <func_32+0x177e>
    d7a1:	c7 05 59 7d 00 00 02 	movl   $0x2,0x7d59(%rip)        # 15504 <g_295>
    d7a8:	00 00 00 
    d7ab:	eb 42                	jmp    d7ef <func_32+0x1761>
    d7ad:	8b 05 4d 7d 00 00    	mov    0x7d4d(%rip),%eax        # 15500 <g_223>
    d7b3:	89 c0                	mov    %eax,%eax
    d7b5:	8b 84 85 c0 f8 ff ff 	mov    -0x740(%rbp,%rax,4),%eax
    d7bc:	85 c0                	test   %eax,%eax
    d7be:	75 3c                	jne    d7fc <func_32+0x176e>
    d7c0:	8b 05 3a 7d 00 00    	mov    0x7d3a(%rip),%eax        # 15500 <g_223>
    d7c6:	89 c0                	mov    %eax,%eax
    d7c8:	48 8d 14 85 00 00 00 	lea    0x0(,%rax,4),%rdx
    d7cf:	00 
    d7d0:	48 8d 05 09 7d 00 00 	lea    0x7d09(%rip),%rax        # 154e0 <g_202>
    d7d7:	8b 04 02             	mov    (%rdx,%rax,1),%eax
    d7da:	89 05 a0 7c 00 00    	mov    %eax,0x7ca0(%rip)        # 15480 <g_87+0x60>
    d7e0:	8b 05 1e 7d 00 00    	mov    0x7d1e(%rip),%eax        # 15504 <g_295>
    d7e6:	83 c0 01             	add    $0x1,%eax
    d7e9:	89 05 15 7d 00 00    	mov    %eax,0x7d15(%rip)        # 15504 <g_295>
    d7ef:	8b 05 0f 7d 00 00    	mov    0x7d0f(%rip),%eax        # 15504 <g_295>
    d7f5:	83 f8 08             	cmp    $0x8,%eax
    d7f8:	76 b3                	jbe    d7ad <func_32+0x171f>
    d7fa:	eb 01                	jmp    d7fd <func_32+0x176f>
    d7fc:	90                   	nop
    d7fd:	8b 05 fd 7c 00 00    	mov    0x7cfd(%rip),%eax        # 15500 <g_223>
    d803:	83 c0 01             	add    $0x1,%eax
    d806:	89 05 f4 7c 00 00    	mov    %eax,0x7cf4(%rip)        # 15500 <g_223>
    d80c:	8b 05 ee 7c 00 00    	mov    0x7cee(%rip),%eax        # 15500 <g_223>
    d812:	83 f8 07             	cmp    $0x7,%eax
    d815:	76 8a                	jbe    d7a1 <func_32+0x1713>
    d817:	48 8b 85 00 f6 ff ff 	mov    -0xa00(%rbp),%rax
    d81e:	8b 00                	mov    (%rax),%eax
    d820:	85 c0                	test   %eax,%eax
    d822:	0f 85 6e 02 00 00    	jne    da96 <func_32+0x1a08>
    d828:	48 8b 85 50 f7 ff ff 	mov    -0x8b0(%rbp),%rax
    d82f:	48 89 85 d8 f6 ff ff 	mov    %rax,-0x928(%rbp)
    d836:	e9 3b 02 00 00       	jmpq   da76 <func_32+0x19e8>
    d83b:	48 8d 85 f8 f6 ff ff 	lea    -0x908(%rbp),%rax
    d842:	48 89 85 30 f8 ff ff 	mov    %rax,-0x7d0(%rbp)
    d849:	48 8d 85 e8 f6 ff ff 	lea    -0x918(%rbp),%rax
    d850:	48 89 85 38 f8 ff ff 	mov    %rax,-0x7c8(%rbp)
    d857:	c6 85 27 f6 ff ff 3f 	movb   $0x3f,-0x9d9(%rbp)
    d85e:	48 8b 85 30 f8 ff ff 	mov    -0x7d0(%rbp),%rax
    d865:	48 8b 95 00 f6 ff ff 	mov    -0xa00(%rbp),%rdx
    d86c:	48 89 10             	mov    %rdx,(%rax)
    d86f:	c7 05 a3 7b 00 00 00 	movl   $0x0,0x7ba3(%rip)        # 1541c <g_84>
    d876:	00 00 00 
    d879:	e9 db 01 00 00       	jmpq   da59 <func_32+0x19cb>
    d87e:	c7 85 bc f6 ff ff fb 	movl   $0xce960fb,-0x944(%rbp)
    d885:	60 e9 0c 
    d888:	48 8d 05 8d 7b 00 00 	lea    0x7b8d(%rip),%rax        # 1541c <g_84>
    d88f:	48 89 85 10 f7 ff ff 	mov    %rax,-0x8f0(%rbp)
    d896:	48 8d 85 10 f7 ff ff 	lea    -0x8f0(%rbp),%rax
    d89d:	48 89 85 18 f7 ff ff 	mov    %rax,-0x8e8(%rbp)
    d8a4:	48 8d 85 18 f7 ff ff 	lea    -0x8e8(%rbp),%rax
    d8ab:	48 89 85 40 f8 ff ff 	mov    %rax,-0x7c0(%rbp)
    d8b2:	48 8d 05 17 7c 00 00 	lea    0x7c17(%rip),%rax        # 154d0 <g_166>
    d8b9:	48 89 85 20 f9 ff ff 	mov    %rax,-0x6e0(%rbp)
    d8c0:	48 8d 85 d0 f6 ff ff 	lea    -0x930(%rbp),%rax
    d8c7:	48 89 85 28 f9 ff ff 	mov    %rax,-0x6d8(%rbp)
    d8ce:	48 8d 05 fb 7b 00 00 	lea    0x7bfb(%rip),%rax        # 154d0 <g_166>
    d8d5:	48 89 85 30 f9 ff ff 	mov    %rax,-0x6d0(%rbp)
    d8dc:	48 8d 85 d0 f6 ff ff 	lea    -0x930(%rbp),%rax
    d8e3:	48 89 85 38 f9 ff ff 	mov    %rax,-0x6c8(%rbp)
    d8ea:	48 8d 85 d0 f6 ff ff 	lea    -0x930(%rbp),%rax
    d8f1:	48 89 85 40 f9 ff ff 	mov    %rax,-0x6c0(%rbp)
    d8f8:	48 8d 85 c8 f6 ff ff 	lea    -0x938(%rbp),%rax
    d8ff:	48 89 85 48 f9 ff ff 	mov    %rax,-0x6b8(%rbp)
    d906:	48 8d 05 c3 7b 00 00 	lea    0x7bc3(%rip),%rax        # 154d0 <g_166>
    d90d:	48 89 85 50 f9 ff ff 	mov    %rax,-0x6b0(%rbp)
    d914:	48 8d 85 d0 f6 ff ff 	lea    -0x930(%rbp),%rax
    d91b:	48 89 85 58 f9 ff ff 	mov    %rax,-0x6a8(%rbp)
    d922:	48 8d 05 a7 7b 00 00 	lea    0x7ba7(%rip),%rax        # 154d0 <g_166>
    d929:	48 89 85 60 f9 ff ff 	mov    %rax,-0x6a0(%rbp)
    d930:	48 8d 85 d0 f6 ff ff 	lea    -0x930(%rbp),%rax
    d937:	48 89 85 68 f9 ff ff 	mov    %rax,-0x698(%rbp)
    d93e:	48 8d 85 c8 f6 ff ff 	lea    -0x938(%rbp),%rax
    d945:	48 89 85 70 f9 ff ff 	mov    %rax,-0x690(%rbp)
    d94c:	48 8d 85 c8 f6 ff ff 	lea    -0x938(%rbp),%rax
    d953:	48 89 85 78 f9 ff ff 	mov    %rax,-0x688(%rbp)
    d95a:	48 8d 05 6f 7b 00 00 	lea    0x7b6f(%rip),%rax        # 154d0 <g_166>
    d961:	48 89 85 80 f9 ff ff 	mov    %rax,-0x680(%rbp)
    d968:	48 8d 05 61 7b 00 00 	lea    0x7b61(%rip),%rax        # 154d0 <g_166>
    d96f:	48 89 85 88 f9 ff ff 	mov    %rax,-0x678(%rbp)
    d976:	48 8d 05 53 7b 00 00 	lea    0x7b53(%rip),%rax        # 154d0 <g_166>
    d97d:	48 89 85 90 f9 ff ff 	mov    %rax,-0x670(%rbp)
    d984:	48 8d 05 45 7b 00 00 	lea    0x7b45(%rip),%rax        # 154d0 <g_166>
    d98b:	48 89 85 98 f9 ff ff 	mov    %rax,-0x668(%rbp)
    d992:	48 8d 05 37 7b 00 00 	lea    0x7b37(%rip),%rax        # 154d0 <g_166>
    d999:	48 89 85 a0 f9 ff ff 	mov    %rax,-0x660(%rbp)
    d9a0:	48 8d 85 c8 f6 ff ff 	lea    -0x938(%rbp),%rax
    d9a7:	48 89 85 a8 f9 ff ff 	mov    %rax,-0x658(%rbp)
    d9ae:	48 8d 85 c8 f6 ff ff 	lea    -0x938(%rbp),%rax
    d9b5:	48 89 85 b0 f9 ff ff 	mov    %rax,-0x650(%rbp)
    d9bc:	48 8d 05 0d 7b 00 00 	lea    0x7b0d(%rip),%rax        # 154d0 <g_166>
    d9c3:	48 89 85 b8 f9 ff ff 	mov    %rax,-0x648(%rbp)
    d9ca:	48 8d 05 ff 7a 00 00 	lea    0x7aff(%rip),%rax        # 154d0 <g_166>
    d9d1:	48 89 85 c0 f9 ff ff 	mov    %rax,-0x640(%rbp)
    d9d8:	48 8d 05 f1 7a 00 00 	lea    0x7af1(%rip),%rax        # 154d0 <g_166>
    d9df:	48 89 85 c8 f9 ff ff 	mov    %rax,-0x638(%rbp)
    d9e6:	48 8d 05 e3 7a 00 00 	lea    0x7ae3(%rip),%rax        # 154d0 <g_166>
    d9ed:	48 89 85 d0 f9 ff ff 	mov    %rax,-0x630(%rbp)
    d9f4:	48 8d 85 c8 f6 ff ff 	lea    -0x938(%rbp),%rax
    d9fb:	48 89 85 d8 f9 ff ff 	mov    %rax,-0x628(%rbp)
    da02:	be 00 00 00 00       	mov    $0x0,%esi
    da07:	bf 4c c6 00 00       	mov    $0xc64c,%edi
    da0c:	e8 f5 93 ff ff       	callq  6e06 <safe_lshift_func_uint16_t_u_u>
    da11:	be 00 00 00 00       	mov    $0x0,%esi
    da16:	bf 2f 00 00 00       	mov    $0x2f,%edi
    da1b:	e8 bb 91 ff ff       	callq  6bdb <safe_div_func_uint8_t_u_u>
    da20:	48 8b 85 50 f7 ff ff 	mov    -0x8b0(%rbp),%rax
    da27:	c7 00 79 48 1c 85    	movl   $0x851c4879,(%rax)
    da2d:	48 8b 85 00 f6 ff ff 	mov    -0xa00(%rbp),%rax
    da34:	8b 00                	mov    (%rax),%eax
    da36:	85 c0                	test   %eax,%eax
    da38:	75 0f                	jne    da49 <func_32+0x19bb>
    da3a:	48 8b 85 00 f6 ff ff 	mov    -0xa00(%rbp),%rax
    da41:	8b 00                	mov    (%rax),%eax
    da43:	85 c0                	test   %eax,%eax
    da45:	75 23                	jne    da6a <func_32+0x19dc>
    da47:	eb 01                	jmp    da4a <func_32+0x19bc>
    da49:	90                   	nop
    da4a:	8b 05 cc 79 00 00    	mov    0x79cc(%rip),%eax        # 1541c <g_84>
    da50:	83 c0 01             	add    $0x1,%eax
    da53:	89 05 c3 79 00 00    	mov    %eax,0x79c3(%rip)        # 1541c <g_84>
    da59:	8b 05 bd 79 00 00    	mov    0x79bd(%rip),%eax        # 1541c <g_84>
    da5f:	83 f8 08             	cmp    $0x8,%eax
    da62:	0f 86 16 fe ff ff    	jbe    d87e <func_32+0x17f0>
    da68:	eb 01                	jmp    da6b <func_32+0x19dd>
    da6a:	90                   	nop
    da6b:	8b 85 0c f6 ff ff    	mov    -0x9f4(%rbp),%eax
    da71:	e9 d0 02 00 00       	jmpq   dd46 <func_32+0x1cb8>
    da76:	8b 05 98 79 00 00    	mov    0x7998(%rip),%eax        # 15414 <g_64>
    da7c:	83 c0 01             	add    $0x1,%eax
    da7f:	89 05 8f 79 00 00    	mov    %eax,0x798f(%rip)        # 15414 <g_64>
    da85:	8b 05 89 79 00 00    	mov    0x7989(%rip),%eax        # 15414 <g_64>
    da8b:	83 f8 07             	cmp    $0x7,%eax
    da8e:	0f 8e 5b f2 ff ff    	jle    ccef <func_32+0xc61>
    da94:	eb 01                	jmp    da97 <func_32+0x1a09>
    da96:	90                   	nop
    da97:	c7 85 40 f6 ff ff 00 	movl   $0x0,-0x9c0(%rbp)
    da9e:	00 00 00 
    daa1:	eb 58                	jmp    dafb <func_32+0x1a6d>
    daa3:	48 c7 85 48 f8 ff ff 	movq   $0x5,-0x7b8(%rbp)
    daaa:	05 00 00 00 
    daae:	48 83 ad 48 f8 ff ff 	subq   $0x1,-0x7b8(%rbp)
    dab5:	01 
    dab6:	48 8b 05 0b 8c 00 00 	mov    0x8c0b(%rip),%rax        # 166c8 <g_80>
    dabd:	48 c7 00 00 00 00 00 	movq   $0x0,(%rax)
    dac4:	48 8b 85 50 f7 ff ff 	mov    -0x8b0(%rbp),%rax
    dacb:	8b 10                	mov    (%rax),%edx
    dacd:	48 8b 85 00 f6 ff ff 	mov    -0xa00(%rbp),%rax
    dad4:	8b 00                	mov    (%rax),%eax
    dad6:	31 c2                	xor    %eax,%edx
    dad8:	48 8b 85 50 f7 ff ff 	mov    -0x8b0(%rbp),%rax
    dadf:	89 10                	mov    %edx,(%rax)
    dae1:	8b 85 40 f6 ff ff    	mov    -0x9c0(%rbp),%eax
    dae7:	98                   	cwtl   
    dae8:	be 02 00 00 00       	mov    $0x2,%esi
    daed:	89 c7                	mov    %eax,%edi
    daef:	e8 df 88 ff ff       	callq  63d3 <safe_sub_func_int16_t_s_s>
    daf4:	98                   	cwtl   
    daf5:	89 85 40 f6 ff ff    	mov    %eax,-0x9c0(%rbp)
    dafb:	83 bd 40 f6 ff ff e4 	cmpl   $0xffffffe4,-0x9c0(%rbp)
    db02:	7c 9f                	jl     daa3 <func_32+0x1a15>
    db04:	48 8b 85 d8 f6 ff ff 	mov    -0x928(%rbp),%rax
    db0b:	8b 10                	mov    (%rax),%edx
    db0d:	48 8b 85 d8 f6 ff ff 	mov    -0x928(%rbp),%rax
    db14:	81 ca 06 cd 13 dc    	or     $0xdc13cd06,%edx
    db1a:	89 10                	mov    %edx,(%rax)
    db1c:	90                   	nop
    db1d:	48 8b 85 40 f7 ff ff 	mov    -0x8c0(%rbp),%rax
    db24:	48 8b 95 00 f6 ff ff 	mov    -0xa00(%rbp),%rdx
    db2b:	48 89 10             	mov    %rdx,(%rax)
    db2e:	48 8b 85 10 f6 ff ff 	mov    -0x9f0(%rbp),%rax
    db35:	e9 0c 02 00 00       	jmpq   dd46 <func_32+0x1cb8>
    db3a:	c7 85 58 f6 ff ff 00 	movl   $0x0,-0x9a8(%rbp)
    db41:	00 00 00 
    db44:	eb 14                	jmp    db5a <func_32+0x1acc>
    db46:	8b 85 58 f6 ff ff    	mov    -0x9a8(%rbp),%eax
    db4c:	48 98                	cltq   
    db4e:	c6 44 05 cf d1       	movb   $0xd1,-0x31(%rbp,%rax,1)
    db53:	83 85 58 f6 ff ff 01 	addl   $0x1,-0x9a8(%rbp)
    db5a:	83 bd 58 f6 ff ff 08 	cmpl   $0x8,-0x9a8(%rbp)
    db61:	7e e3                	jle    db46 <func_32+0x1ab8>
    db63:	c7 85 6c f6 ff ff 08 	movl   $0x8,-0x994(%rbp)
    db6a:	00 00 00 
    db6d:	83 bd 6c f6 ff ff 00 	cmpl   $0x0,-0x994(%rbp)
    db74:	0f 88 c5 01 00 00    	js     dd3f <func_32+0x1cb1>
    db7a:	48 8d 05 97 78 00 00 	lea    0x7897(%rip),%rax        # 15418 <g_83>
    db81:	48 89 85 48 f7 ff ff 	mov    %rax,-0x8b8(%rbp)
    db88:	c7 85 5c f6 ff ff 00 	movl   $0x0,-0x9a4(%rbp)
    db8f:	00 00 00 
    db92:	eb 4f                	jmp    dbe3 <func_32+0x1b55>
    db94:	c7 85 60 f6 ff ff 00 	movl   $0x0,-0x9a0(%rbp)
    db9b:	00 00 00 
    db9e:	eb 33                	jmp    dbd3 <func_32+0x1b45>
    dba0:	8b 85 60 f6 ff ff    	mov    -0x9a0(%rbp),%eax
    dba6:	48 63 c8             	movslq %eax,%rcx
    dba9:	8b 85 5c f6 ff ff    	mov    -0x9a4(%rbp),%eax
    dbaf:	48 63 d0             	movslq %eax,%rdx
    dbb2:	48 89 d0             	mov    %rdx,%rax
    dbb5:	48 01 c0             	add    %rax,%rax
    dbb8:	48 01 d0             	add    %rdx,%rax
    dbbb:	48 01 c0             	add    %rax,%rax
    dbbe:	48 01 c8             	add    %rcx,%rax
    dbc1:	c7 84 85 20 f9 ff ff 	movl   $0xfffffffc,-0x6e0(%rbp,%rax,4)
    dbc8:	fc ff ff ff 
    dbcc:	83 85 60 f6 ff ff 01 	addl   $0x1,-0x9a0(%rbp)
    dbd3:	83 bd 60 f6 ff ff 05 	cmpl   $0x5,-0x9a0(%rbp)
    dbda:	7e c4                	jle    dba0 <func_32+0x1b12>
    dbdc:	83 85 5c f6 ff ff 01 	addl   $0x1,-0x9a4(%rbp)
    dbe3:	83 bd 5c f6 ff ff 00 	cmpl   $0x0,-0x9a4(%rbp)
    dbea:	7e a8                	jle    db94 <func_32+0x1b06>
    dbec:	8b 85 6c f6 ff ff    	mov    -0x994(%rbp),%eax
    dbf2:	48 98                	cltq   
    dbf4:	48 8d 15 0d 79 00 00 	lea    0x790d(%rip),%rdx        # 15508 <g_302>
    dbfb:	0f b6 04 10          	movzbl (%rax,%rdx,1),%eax
    dbff:	0f b6 d8             	movzbl %al,%ebx
    dc02:	8b 05 ec 78 00 00    	mov    0x78ec(%rip),%eax        # 154f4 <g_202+0x14>
    dc08:	66 89 05 15 79 00 00 	mov    %ax,0x7915(%rip)        # 15524 <g_499>
    dc0f:	0f b7 05 0e 79 00 00 	movzwl 0x790e(%rip),%eax        # 15524 <g_499>
    dc16:	44 0f b7 e0          	movzwl %ax,%r12d
    dc1a:	0f b6 55 d0          	movzbl -0x30(%rbp),%edx
    dc1e:	48 8b 85 e0 f6 ff ff 	mov    -0x920(%rbp),%rax
    dc25:	66 0f be d2          	movsbw %dl,%dx
    dc29:	66 89 10             	mov    %dx,(%rax)
    dc2c:	0f b7 00             	movzwl (%rax),%eax
    dc2f:	98                   	cwtl   
    dc30:	89 c6                	mov    %eax,%esi
    dc32:	bf f7 ff ff ff       	mov    $0xfffffff7,%edi
    dc37:	e8 b9 87 ff ff       	callq  63f5 <safe_mul_func_int16_t_s_s>
    dc3c:	0f bf d0             	movswl %ax,%edx
    dc3f:	48 8b 85 d8 f6 ff ff 	mov    -0x928(%rbp),%rax
    dc46:	8b 00                	mov    (%rax),%eax
    dc48:	98                   	cwtl   
    dc49:	89 d6                	mov    %edx,%esi
    dc4b:	89 c7                	mov    %eax,%edi
    dc4d:	e8 11 89 ff ff       	callq  6563 <safe_rshift_func_int16_t_s_u>
    dc52:	89 c2                	mov    %eax,%edx
    dc54:	48 8b 85 28 f7 ff ff 	mov    -0x8d8(%rbp),%rax
    dc5b:	88 10                	mov    %dl,(%rax)
    dc5d:	8b 85 6c f6 ff ff    	mov    -0x994(%rbp),%eax
    dc63:	48 98                	cltq   
    dc65:	48 8d 15 9c 78 00 00 	lea    0x789c(%rip),%rdx        # 15508 <g_302>
    dc6c:	0f b6 04 10          	movzbl (%rax,%rdx,1),%eax
    dc70:	0f b6 c0             	movzbl %al,%eax
    dc73:	89 c6                	mov    %eax,%esi
    dc75:	bf 01 00 00 00       	mov    $0x1,%edi
    dc7a:	e8 db 8e ff ff       	callq  6b5a <safe_add_func_uint8_t_u_u>
    dc7f:	8b 05 2f 78 00 00    	mov    0x782f(%rip),%eax        # 154b4 <g_87+0x94>
    dc85:	48 63 d0             	movslq %eax,%rdx
    dc88:	48 8b 05 41 8a 00 00 	mov    0x8a41(%rip),%rax        # 166d0 <g_82>
    dc8f:	0f b6 00             	movzbl (%rax),%eax
    dc92:	0f b6 c0             	movzbl %al,%eax
    dc95:	f7 d0                	not    %eax
    dc97:	48 98                	cltq   
    dc99:	48 0b 85 10 f6 ff ff 	or     -0x9f0(%rbp),%rax
    dca0:	48 39 c2             	cmp    %rax,%rdx
    dca3:	0f 93 c0             	setae  %al
    dca6:	0f b6 c0             	movzbl %al,%eax
    dca9:	89 85 24 f9 ff ff    	mov    %eax,-0x6dc(%rbp)
    dcaf:	0f b6 45 d0          	movzbl -0x30(%rbp),%eax
    dcb3:	0f be d0             	movsbl %al,%edx
    dcb6:	48 8b 85 d8 f6 ff ff 	mov    -0x928(%rbp),%rax
    dcbd:	8b 00                	mov    (%rax),%eax
    dcbf:	39 c2                	cmp    %eax,%edx
    dcc1:	0f 9d c0             	setge  %al
    dcc4:	89 c2                	mov    %eax,%edx
    dcc6:	48 8b 85 48 f7 ff ff 	mov    -0x8b8(%rbp),%rax
    dccd:	88 10                	mov    %dl,(%rax)
    dccf:	48 8b 85 48 f7 ff ff 	mov    -0x8b8(%rbp),%rax
    dcd6:	0f b6 00             	movzbl (%rax),%eax
    dcd9:	0f b6 d0             	movzbl %al,%edx
    dcdc:	0f b6 45 d0          	movzbl -0x30(%rbp),%eax
    dce0:	0f be c0             	movsbl %al,%eax
    dce3:	39 c2                	cmp    %eax,%edx
    dce5:	0f 9f c0             	setg   %al
    dce8:	0f b6 c0             	movzbl %al,%eax
    dceb:	44 89 e2             	mov    %r12d,%edx
    dcee:	09 c2                	or     %eax,%edx
    dcf0:	0f b7 85 08 f6 ff ff 	movzwl -0x9f8(%rbp),%eax
    dcf7:	8d 48 01             	lea    0x1(%rax),%ecx
    dcfa:	66 89 8d 08 f6 ff ff 	mov    %cx,-0x9f8(%rbp)
    dd01:	0f b7 c0             	movzwl %ax,%eax
    dd04:	89 d6                	mov    %edx,%esi
    dd06:	89 c7                	mov    %eax,%edi
    dd08:	e8 b1 90 ff ff       	callq  6dbe <safe_lshift_func_uint16_t_u_s>
    dd0d:	66 39 c3             	cmp    %ax,%bx
    dd10:	0f 96 c0             	setbe  %al
    dd13:	0f b6 c0             	movzbl %al,%eax
    dd16:	be fd 62 cd 30       	mov    $0x30cd62fd,%esi
    dd1b:	89 c7                	mov    %eax,%edi
    dd1d:	e8 ae 91 ff ff       	callq  6ed0 <safe_sub_func_uint32_t_u_u>
    dd22:	48 8b 15 f7 8a 00 00 	mov    0x8af7(%rip),%rdx        # 16820 <g_610>
    dd29:	48 8b 05 f0 8a 00 00 	mov    0x8af0(%rip),%rax        # 16820 <g_610>
    dd30:	48 8b 12             	mov    (%rdx),%rdx
    dd33:	48 89 10             	mov    %rdx,(%rax)
    dd36:	0f b7 85 08 f6 ff ff 	movzwl -0x9f8(%rbp),%eax
    dd3d:	eb 07                	jmp    dd46 <func_32+0x1cb8>
    dd3f:	0f b7 05 0e 79 00 00 	movzwl 0x790e(%rip),%eax        # 15654 <g_862>
    dd46:	48 8b 5d d8          	mov    -0x28(%rbp),%rbx
    dd4a:	64 48 33 1c 25 28 00 	xor    %fs:0x28,%rbx
    dd51:	00 00 
    dd53:	74 05                	je     dd5a <func_32+0x1ccc>
    dd55:	e8 16 83 ff ff       	callq  6070 <__stack_chk_fail@plt>
    dd5a:	48 81 c4 e0 09 00 00 	add    $0x9e0,%rsp
    dd61:	5b                   	pop    %rbx
    dd62:	41 5c                	pop    %r12
    dd64:	41 5d                	pop    %r13
    dd66:	41 5e                	pop    %r14
    dd68:	5d                   	pop    %rbp
    dd69:	c3                   	retq   

000000000000dd6a <func_38>:
    dd6a:	f3 0f 1e fa          	endbr64 
    dd6e:	55                   	push   %rbp
    dd6f:	48 89 e5             	mov    %rsp,%rbp
    dd72:	41 56                	push   %r14
    dd74:	41 55                	push   %r13
    dd76:	41 54                	push   %r12
    dd78:	53                   	push   %rbx
    dd79:	48 81 ec 10 07 00 00 	sub    $0x710,%rsp
    dd80:	89 f8                	mov    %edi,%eax
    dd82:	48 89 b5 e0 f8 ff ff 	mov    %rsi,-0x720(%rbp)
    dd89:	48 89 95 d8 f8 ff ff 	mov    %rdx,-0x728(%rbp)
    dd90:	88 85 ec f8 ff ff    	mov    %al,-0x714(%rbp)
    dd96:	64 48 8b 04 25 28 00 	mov    %fs:0x28,%rax
    dd9d:	00 00 
    dd9f:	48 89 45 d8          	mov    %rax,-0x28(%rbp)
    dda3:	31 c0                	xor    %eax,%eax
    dda5:	48 c7 85 48 f9 ff ff 	movq   $0xfffffffffffffff8,-0x6b8(%rbp)
    ddac:	f8 ff ff ff 
    ddb0:	48 c7 85 60 f9 ff ff 	movq   $0x0,-0x6a0(%rbp)
    ddb7:	00 00 00 00 
    ddbb:	c7 85 1c f9 ff ff 14 	movl   $0x81df2f14,-0x6e4(%rbp)
    ddc2:	2f df 81 
    ddc5:	c7 85 20 f9 ff ff 0c 	movl   $0x2fb95e0c,-0x6e0(%rbp)
    ddcc:	5e b9 2f 
    ddcf:	c7 85 24 f9 ff ff fa 	movl   $0xfffffffa,-0x6dc(%rbp)
    ddd6:	ff ff ff 
    ddd9:	c7 85 28 f9 ff ff ff 	movl   $0xffffffff,-0x6d8(%rbp)
    dde0:	ff ff ff 
    dde3:	c7 85 08 f9 ff ff e8 	movl   $0xa718cbe8,-0x6f8(%rbp)
    ddea:	cb 18 a7 
    dded:	c7 85 2c f9 ff ff b2 	movl   $0x19e86fb2,-0x6d4(%rbp)
    ddf4:	6f e8 19 
    ddf7:	c7 85 fc f8 ff ff ff 	movl   $0xffffffff,-0x704(%rbp)
    ddfe:	ff ff ff 
    de01:	48 8d 05 08 9c 00 00 	lea    0x9c08(%rip),%rax        # 17a10 <g_462>
    de08:	48 89 85 68 f9 ff ff 	mov    %rax,-0x698(%rbp)
    de0f:	c7 85 00 f9 ff ff f0 	movl   $0x9032ebf0,-0x700(%rbp)
    de16:	eb 32 90 
    de19:	48 c7 85 70 f9 ff ff 	movq   $0x0,-0x690(%rbp)
    de20:	00 00 00 00 
    de24:	c7 85 0c f9 ff ff 00 	movl   $0x0,-0x6f4(%rbp)
    de2b:	00 00 00 
    de2e:	eb 4e                	jmp    de7e <func_38+0x114>
    de30:	c7 85 10 f9 ff ff 00 	movl   $0x0,-0x6f0(%rbp)
    de37:	00 00 00 
    de3a:	eb 32                	jmp    de6e <func_38+0x104>
    de3c:	8b 85 10 f9 ff ff    	mov    -0x6f0(%rbp),%eax
    de42:	48 63 c8             	movslq %eax,%rcx
    de45:	8b 85 0c f9 ff ff    	mov    -0x6f4(%rbp),%eax
    de4b:	48 63 d0             	movslq %eax,%rdx
    de4e:	48 89 d0             	mov    %rdx,%rax
    de51:	48 c1 e0 02          	shl    $0x2,%rax
    de55:	48 01 d0             	add    %rdx,%rax
    de58:	48 01 c8             	add    %rcx,%rax
    de5b:	48 c7 84 c5 50 fa ff 	movq   $0x8,-0x5b0(%rbp,%rax,8)
    de62:	ff 08 00 00 00 
    de67:	83 85 10 f9 ff ff 01 	addl   $0x1,-0x6f0(%rbp)
    de6e:	83 bd 10 f9 ff ff 04 	cmpl   $0x4,-0x6f0(%rbp)
    de75:	7e c5                	jle    de3c <func_38+0xd2>
    de77:	83 85 0c f9 ff ff 01 	addl   $0x1,-0x6f4(%rbp)
    de7e:	83 bd 0c f9 ff ff 04 	cmpl   $0x4,-0x6f4(%rbp)
    de85:	7e a9                	jle    de30 <func_38+0xc6>
    de87:	c7 85 0c f9 ff ff 00 	movl   $0x0,-0x6f4(%rbp)
    de8e:	00 00 00 
    de91:	eb 1a                	jmp    dead <func_38+0x143>
    de93:	8b 85 0c f9 ff ff    	mov    -0x6f4(%rbp),%eax
    de99:	48 98                	cltq   
    de9b:	c7 84 85 d0 f9 ff ff 	movl   $0x0,-0x630(%rbp,%rax,4)
    dea2:	00 00 00 00 
    dea6:	83 85 0c f9 ff ff 01 	addl   $0x1,-0x6f4(%rbp)
    dead:	83 bd 0c f9 ff ff 05 	cmpl   $0x5,-0x6f4(%rbp)
    deb4:	7e dd                	jle    de93 <func_38+0x129>
    deb6:	48 8b 95 e0 fa ff ff 	mov    -0x520(%rbp),%rdx
    debd:	48 8b 85 e0 fa ff ff 	mov    -0x520(%rbp),%rax
    dec4:	89 85 1c f9 ff ff    	mov    %eax,-0x6e4(%rbp)
    deca:	8b 85 1c f9 ff ff    	mov    -0x6e4(%rbp),%eax
    ded0:	88 05 d6 76 00 00    	mov    %al,0x76d6(%rip)        # 155ac <g_518+0x6c>
    ded6:	0f b6 05 cf 76 00 00 	movzbl 0x76cf(%rip),%eax        # 155ac <g_518+0x6c>
    dedd:	0f b6 c0             	movzbl %al,%eax
    dee0:	48 39 c2             	cmp    %rax,%rdx
    dee3:	0f 9c c0             	setl   %al
    dee6:	0f b6 c0             	movzbl %al,%eax
    dee9:	0f b6 15 2f 76 00 00 	movzbl 0x762f(%rip),%edx        # 1551f <g_413+0x3>
    def0:	0f b6 d2             	movzbl %dl,%edx
    def3:	48 8b 8d 48 f9 ff ff 	mov    -0x6b8(%rbp),%rcx
    defa:	09 ca                	or     %ecx,%edx
    defc:	89 c6                	mov    %eax,%esi
    defe:	89 d7                	mov    %edx,%edi
    df00:	e8 cb 8f ff ff       	callq  6ed0 <safe_sub_func_uint32_t_u_u>
    df05:	0f be c0             	movsbl %al,%eax
    df08:	be 01 00 00 00       	mov    $0x1,%esi
    df0d:	89 c7                	mov    %eax,%edi
    df0f:	e8 8d 83 ff ff       	callq  62a1 <safe_lshift_func_int8_t_s_s>
    df14:	84 c0                	test   %al,%al
    df16:	0f 84 c4 00 00 00    	je     dfe0 <func_38+0x276>
    df1c:	48 8d 05 e5 74 00 00 	lea    0x74e5(%rip),%rax        # 15408 <g_5>
    df23:	48 89 85 20 fb ff ff 	mov    %rax,-0x4e0(%rbp)
    df2a:	48 8d 05 d7 74 00 00 	lea    0x74d7(%rip),%rax        # 15408 <g_5>
    df31:	48 89 85 28 fb ff ff 	mov    %rax,-0x4d8(%rbp)
    df38:	48 8d 05 c9 74 00 00 	lea    0x74c9(%rip),%rax        # 15408 <g_5>
    df3f:	48 89 85 30 fb ff ff 	mov    %rax,-0x4d0(%rbp)
    df46:	48 8d 05 bb 74 00 00 	lea    0x74bb(%rip),%rax        # 15408 <g_5>
    df4d:	48 89 85 38 fb ff ff 	mov    %rax,-0x4c8(%rbp)
    df54:	48 8d 05 ad 74 00 00 	lea    0x74ad(%rip),%rax        # 15408 <g_5>
    df5b:	48 89 85 40 fb ff ff 	mov    %rax,-0x4c0(%rbp)
    df62:	48 8d 05 9f 74 00 00 	lea    0x749f(%rip),%rax        # 15408 <g_5>
    df69:	48 89 85 48 fb ff ff 	mov    %rax,-0x4b8(%rbp)
    df70:	48 8d 05 91 74 00 00 	lea    0x7491(%rip),%rax        # 15408 <g_5>
    df77:	48 89 85 50 fb ff ff 	mov    %rax,-0x4b0(%rbp)
    df7e:	48 8d 05 83 74 00 00 	lea    0x7483(%rip),%rax        # 15408 <g_5>
    df85:	48 89 85 58 fb ff ff 	mov    %rax,-0x4a8(%rbp)
    df8c:	48 8d 05 75 74 00 00 	lea    0x7475(%rip),%rax        # 15408 <g_5>
    df93:	48 89 85 60 fb ff ff 	mov    %rax,-0x4a0(%rbp)
    df9a:	48 8d 05 67 74 00 00 	lea    0x7467(%rip),%rax        # 15408 <g_5>
    dfa1:	48 89 85 68 fb ff ff 	mov    %rax,-0x498(%rbp)
    dfa8:	48 8d 85 10 fc ff ff 	lea    -0x3f0(%rbp),%rax
    dfaf:	48 8d 15 ca 37 00 00 	lea    0x37ca(%rip),%rdx        # 11780 <g_1636+0x71a>
    dfb6:	b9 78 00 00 00       	mov    $0x78,%ecx
    dfbb:	48 89 c7             	mov    %rax,%rdi
    dfbe:	48 89 d6             	mov    %rdx,%rsi
    dfc1:	f3 48 a5             	rep movsq %ds:(%rsi),%es:(%rdi)
    dfc4:	c6 85 f7 f8 ff ff fb 	movb   $0xfb,-0x709(%rbp)
    dfcb:	0f b6 85 f7 f8 ff ff 	movzbl -0x709(%rbp),%eax
    dfd2:	83 e8 01             	sub    $0x1,%eax
    dfd5:	88 85 f7 f8 ff ff    	mov    %al,-0x709(%rbp)
    dfdb:	e9 82 08 00 00       	jmpq   e862 <func_38+0xaf8>
    dfe0:	48 8d 05 29 9a 00 00 	lea    0x9a29(%rip),%rax        # 17a10 <g_462>
    dfe7:	48 89 85 50 f9 ff ff 	mov    %rax,-0x6b0(%rbp)
    dfee:	48 8d 85 50 f9 ff ff 	lea    -0x6b0(%rbp),%rax
    dff5:	48 89 85 78 f9 ff ff 	mov    %rax,-0x688(%rbp)
    dffc:	48 8d 85 00 f9 ff ff 	lea    -0x700(%rbp),%rax
    e003:	48 89 85 80 f9 ff ff 	mov    %rax,-0x680(%rbp)
    e00a:	48 8d 05 53 30 00 00 	lea    0x3053(%rip),%rax        # 11064 <g_541>
    e011:	48 89 85 58 f9 ff ff 	mov    %rax,-0x6a8(%rbp)
    e018:	48 8d 85 58 f9 ff ff 	lea    -0x6a8(%rbp),%rax
    e01f:	48 89 85 88 f9 ff ff 	mov    %rax,-0x678(%rbp)
    e026:	c7 85 14 f9 ff ff fa 	movl   $0xfffffffa,-0x6ec(%rbp)
    e02d:	ff ff ff 
    e030:	c7 85 20 fb ff ff ab 	movl   $0x8942d7ab,-0x4e0(%rbp)
    e037:	d7 42 89 
    e03a:	c7 85 24 fb ff ff 01 	movl   $0x1,-0x4dc(%rbp)
    e041:	00 00 00 
    e044:	c7 85 28 fb ff ff f9 	movl   $0xfffffff9,-0x4d8(%rbp)
    e04b:	ff ff ff 
    e04e:	c7 85 2c fb ff ff 01 	movl   $0x1,-0x4d4(%rbp)
    e055:	00 00 00 
    e058:	c7 85 30 fb ff ff ab 	movl   $0x8942d7ab,-0x4d0(%rbp)
    e05f:	d7 42 89 
    e062:	c7 85 34 fb ff ff 01 	movl   $0x1,-0x4cc(%rbp)
    e069:	00 00 00 
    e06c:	c7 85 38 fb ff ff 7c 	movl   $0xc9094e7c,-0x4c8(%rbp)
    e073:	4e 09 c9 
    e076:	c7 85 3c fb ff ff fd 	movl   $0xfd40efd,-0x4c4(%rbp)
    e07d:	0e d4 0f 
    e080:	c7 85 40 fb ff ff 7c 	movl   $0xc9094e7c,-0x4c0(%rbp)
    e087:	4e 09 c9 
    e08a:	c7 85 44 fb ff ff 01 	movl   $0x1,-0x4bc(%rbp)
    e091:	00 00 00 
    e094:	c7 85 48 fb ff ff 7c 	movl   $0xc9094e7c,-0x4b8(%rbp)
    e09b:	4e 09 c9 
    e09e:	c7 85 4c fb ff ff fd 	movl   $0xfd40efd,-0x4b4(%rbp)
    e0a5:	0e d4 0f 
    e0a8:	c7 85 50 fb ff ff ab 	movl   $0x8942d7ab,-0x4b0(%rbp)
    e0af:	d7 42 89 
    e0b2:	c7 85 54 fb ff ff fd 	movl   $0xfd40efd,-0x4ac(%rbp)
    e0b9:	0e d4 0f 
    e0bc:	c7 85 58 fb ff ff f9 	movl   $0xfffffff9,-0x4a8(%rbp)
    e0c3:	ff ff ff 
    e0c6:	c7 85 5c fb ff ff fd 	movl   $0xfd40efd,-0x4a4(%rbp)
    e0cd:	0e d4 0f 
    e0d0:	c7 85 60 fb ff ff ab 	movl   $0x8942d7ab,-0x4a0(%rbp)
    e0d7:	d7 42 89 
    e0da:	c7 85 64 fb ff ff fd 	movl   $0xfd40efd,-0x49c(%rbp)
    e0e1:	0e d4 0f 
    e0e4:	c7 85 68 fb ff ff 7c 	movl   $0xc9094e7c,-0x498(%rbp)
    e0eb:	4e 09 c9 
    e0ee:	c7 85 6c fb ff ff 01 	movl   $0x1,-0x494(%rbp)
    e0f5:	00 00 00 
    e0f8:	c7 85 70 fb ff ff 7c 	movl   $0xc9094e7c,-0x490(%rbp)
    e0ff:	4e 09 c9 
    e102:	c7 85 74 fb ff ff fd 	movl   $0xfd40efd,-0x48c(%rbp)
    e109:	0e d4 0f 
    e10c:	c7 85 78 fb ff ff 7c 	movl   $0xc9094e7c,-0x488(%rbp)
    e113:	4e 09 c9 
    e116:	c7 85 7c fb ff ff 01 	movl   $0x1,-0x484(%rbp)
    e11d:	00 00 00 
    e120:	c7 85 80 fb ff ff ab 	movl   $0x8942d7ab,-0x480(%rbp)
    e127:	d7 42 89 
    e12a:	c7 85 84 fb ff ff 01 	movl   $0x1,-0x47c(%rbp)
    e131:	00 00 00 
    e134:	c7 85 88 fb ff ff f9 	movl   $0xfffffff9,-0x478(%rbp)
    e13b:	ff ff ff 
    e13e:	c7 85 8c fb ff ff 01 	movl   $0x1,-0x474(%rbp)
    e145:	00 00 00 
    e148:	c7 85 90 fb ff ff ab 	movl   $0x8942d7ab,-0x470(%rbp)
    e14f:	d7 42 89 
    e152:	c7 85 94 fb ff ff 01 	movl   $0x1,-0x46c(%rbp)
    e159:	00 00 00 
    e15c:	c7 85 98 fb ff ff 7c 	movl   $0xc9094e7c,-0x468(%rbp)
    e163:	4e 09 c9 
    e166:	c7 85 9c fb ff ff fd 	movl   $0xfd40efd,-0x464(%rbp)
    e16d:	0e d4 0f 
    e170:	c7 85 a0 fb ff ff 7c 	movl   $0xc9094e7c,-0x460(%rbp)
    e177:	4e 09 c9 
    e17a:	c7 85 a4 fb ff ff 01 	movl   $0x1,-0x45c(%rbp)
    e181:	00 00 00 
    e184:	c7 85 a8 fb ff ff 7c 	movl   $0xc9094e7c,-0x458(%rbp)
    e18b:	4e 09 c9 
    e18e:	c7 85 ac fb ff ff fd 	movl   $0xfd40efd,-0x454(%rbp)
    e195:	0e d4 0f 
    e198:	c7 85 b0 fb ff ff ab 	movl   $0x8942d7ab,-0x450(%rbp)
    e19f:	d7 42 89 
    e1a2:	c7 85 b4 fb ff ff fd 	movl   $0xfd40efd,-0x44c(%rbp)
    e1a9:	0e d4 0f 
    e1ac:	c7 85 b8 fb ff ff f9 	movl   $0xfffffff9,-0x448(%rbp)
    e1b3:	ff ff ff 
    e1b6:	c7 85 bc fb ff ff fd 	movl   $0xfd40efd,-0x444(%rbp)
    e1bd:	0e d4 0f 
    e1c0:	c7 85 c0 fb ff ff ab 	movl   $0x8942d7ab,-0x440(%rbp)
    e1c7:	d7 42 89 
    e1ca:	c7 85 c4 fb ff ff fd 	movl   $0xfd40efd,-0x43c(%rbp)
    e1d1:	0e d4 0f 
    e1d4:	c7 85 c8 fb ff ff 7c 	movl   $0xc9094e7c,-0x438(%rbp)
    e1db:	4e 09 c9 
    e1de:	c7 85 cc fb ff ff 01 	movl   $0x1,-0x434(%rbp)
    e1e5:	00 00 00 
    e1e8:	c7 85 d0 fb ff ff 7c 	movl   $0xc9094e7c,-0x430(%rbp)
    e1ef:	4e 09 c9 
    e1f2:	c7 85 d4 fb ff ff fd 	movl   $0xfd40efd,-0x42c(%rbp)
    e1f9:	0e d4 0f 
    e1fc:	c7 85 d8 fb ff ff 7c 	movl   $0xc9094e7c,-0x428(%rbp)
    e203:	4e 09 c9 
    e206:	c7 85 dc fb ff ff 01 	movl   $0x1,-0x424(%rbp)
    e20d:	00 00 00 
    e210:	c7 85 e0 fb ff ff ab 	movl   $0x8942d7ab,-0x420(%rbp)
    e217:	d7 42 89 
    e21a:	c7 85 e4 fb ff ff 01 	movl   $0x1,-0x41c(%rbp)
    e221:	00 00 00 
    e224:	c7 85 e8 fb ff ff f9 	movl   $0xfffffff9,-0x418(%rbp)
    e22b:	ff ff ff 
    e22e:	c7 85 ec fb ff ff 01 	movl   $0x1,-0x414(%rbp)
    e235:	00 00 00 
    e238:	c7 85 f0 fb ff ff ab 	movl   $0x8942d7ab,-0x410(%rbp)
    e23f:	d7 42 89 
    e242:	c7 85 f4 fb ff ff 01 	movl   $0x1,-0x40c(%rbp)
    e249:	00 00 00 
    e24c:	c7 85 f8 fb ff ff 7c 	movl   $0xc9094e7c,-0x408(%rbp)
    e253:	4e 09 c9 
    e256:	c7 85 fc fb ff ff fd 	movl   $0xfd40efd,-0x404(%rbp)
    e25d:	0e d4 0f 
    e260:	c7 85 00 fc ff ff 7c 	movl   $0xc9094e7c,-0x400(%rbp)
    e267:	4e 09 c9 
    e26a:	c7 85 04 fc ff ff 01 	movl   $0x1,-0x3fc(%rbp)
    e271:	00 00 00 
    e274:	c7 85 08 fc ff ff 7c 	movl   $0xc9094e7c,-0x3f8(%rbp)
    e27b:	4e 09 c9 
    e27e:	c7 85 0c fc ff ff fd 	movl   $0xfd40efd,-0x3f4(%rbp)
    e285:	0e d4 0f 
    e288:	c7 85 18 f9 ff ff ca 	movl   $0xa62fccca,-0x6e8(%rbp)
    e28f:	cc 2f a6 
    e292:	48 c7 85 78 f9 ff ff 	movq   $0x0,-0x688(%rbp)
    e299:	00 00 00 00 
    e29d:	0f b6 05 08 73 00 00 	movzbl 0x7308(%rip),%eax        # 155ac <g_518+0x6c>
    e2a4:	0f b6 d0             	movzbl %al,%edx
    e2a7:	48 8d 05 62 97 00 00 	lea    0x9762(%rip),%rax        # 17a10 <g_462>
    e2ae:	48 39 85 68 f9 ff ff 	cmp    %rax,-0x698(%rbp)
    e2b5:	0f 95 c0             	setne  %al
    e2b8:	0f b6 c0             	movzbl %al,%eax
    e2bb:	21 85 24 f9 ff ff    	and    %eax,-0x6dc(%rbp)
    e2c1:	48 8b 85 80 f9 ff ff 	mov    -0x680(%rbp),%rax
    e2c8:	8b 8d 00 f9 ff ff    	mov    -0x700(%rbp),%ecx
    e2ce:	89 08                	mov    %ecx,(%rax)
    e2d0:	48 8b 85 88 f9 ff ff 	mov    -0x678(%rbp),%rax
    e2d7:	48 8d 0d 44 72 00 00 	lea    0x7244(%rip),%rcx        # 15522 <g_498>
    e2de:	48 89 08             	mov    %rcx,(%rax)
    e2e1:	83 bd 14 f9 ff ff 00 	cmpl   $0x0,-0x6ec(%rbp)
    e2e8:	0f 9f c0             	setg   %al
    e2eb:	0f b6 c0             	movzbl %al,%eax
    e2ee:	39 85 28 f9 ff ff    	cmp    %eax,-0x6d8(%rbp)
    e2f4:	0f 9d c0             	setge  %al
    e2f7:	0f b6 c0             	movzbl %al,%eax
    e2fa:	89 d6                	mov    %edx,%esi
    e2fc:	89 c7                	mov    %eax,%edi
    e2fe:	e8 60 82 ff ff       	callq  6563 <safe_rshift_func_int16_t_s_u>
    e303:	0f bf d0             	movswl %ax,%edx
    e306:	0f b6 85 ec f8 ff ff 	movzbl -0x714(%rbp),%eax
    e30d:	39 c2                	cmp    %eax,%edx
    e30f:	0f 9e c0             	setle  %al
    e312:	0f b6 c0             	movzbl %al,%eax
    e315:	89 c7                	mov    %eax,%edi
    e317:	e8 7a 82 ff ff       	callq  6596 <safe_unary_minus_func_int32_t_s>
    e31c:	48 8b 05 a5 84 00 00 	mov    0x84a5(%rip),%rax        # 167c8 <g_543>
    e323:	48 85 c0             	test   %rax,%rax
    e326:	0f 94 c0             	sete   %al
    e329:	0f b6 c0             	movzbl %al,%eax
    e32c:	89 85 20 f9 ff ff    	mov    %eax,-0x6e0(%rbp)
    e332:	c7 85 14 f9 ff ff 00 	movl   $0x0,-0x6ec(%rbp)
    e339:	00 00 00 
    e33c:	83 bd 14 f9 ff ff fb 	cmpl   $0xfffffffb,-0x6ec(%rbp)
    e343:	7d 0c                	jge    e351 <func_38+0x5e7>
    e345:	48 8b 85 d8 f8 ff ff 	mov    -0x728(%rbp),%rax
    e34c:	e9 18 05 00 00       	jmpq   e869 <func_38+0xaff>
    e351:	c7 85 08 f9 ff ff 00 	movl   $0x0,-0x6f8(%rbp)
    e358:	00 00 00 
    e35b:	e9 f5 04 00 00       	jmpq   e855 <func_38+0xaeb>
    e360:	48 8d 85 fc f8 ff ff 	lea    -0x704(%rbp),%rax
    e367:	48 89 85 f0 f9 ff ff 	mov    %rax,-0x610(%rbp)
    e36e:	48 8d 85 fc f8 ff ff 	lea    -0x704(%rbp),%rax
    e375:	48 89 85 f8 f9 ff ff 	mov    %rax,-0x608(%rbp)
    e37c:	48 8d 85 fc f8 ff ff 	lea    -0x704(%rbp),%rax
    e383:	48 89 85 00 fa ff ff 	mov    %rax,-0x600(%rbp)
    e38a:	48 8d 85 fc f8 ff ff 	lea    -0x704(%rbp),%rax
    e391:	48 89 85 08 fa ff ff 	mov    %rax,-0x5f8(%rbp)
    e398:	48 c7 85 90 f9 ff ff 	movq   $0x0,-0x670(%rbp)
    e39f:	00 00 00 00 
    e3a3:	66 c7 85 f8 f8 ff ff 	movw   $0xfffb,-0x708(%rbp)
    e3aa:	fb ff 
    e3ac:	0f b6 9d ec f8 ff ff 	movzbl -0x714(%rbp),%ebx
    e3b3:	0f b6 05 f2 71 00 00 	movzbl 0x71f2(%rip),%eax        # 155ac <g_518+0x6c>
    e3ba:	44 0f b6 e0          	movzbl %al,%r12d
    e3be:	44 0f b6 ad ec f8 ff 	movzbl -0x714(%rbp),%r13d
    e3c5:	ff 
    e3c6:	8b 05 30 71 00 00    	mov    0x7130(%rip),%eax        # 154fc <g_202+0x1c>
    e3cc:	44 0f b7 f0          	movzwl %ax,%r14d
    e3d0:	0f b6 85 ec f8 ff ff 	movzbl -0x714(%rbp),%eax
    e3d7:	89 c6                	mov    %eax,%esi
    e3d9:	bf f6 00 00 00       	mov    $0xf6,%edi
    e3de:	e8 aa 88 ff ff       	callq  6c8d <safe_rshift_func_uint8_t_u_s>
    e3e3:	0f b6 85 ec f8 ff ff 	movzbl -0x714(%rbp),%eax
    e3ea:	44 89 f6             	mov    %r14d,%esi
    e3ed:	89 c7                	mov    %eax,%edi
    e3ef:	e8 49 89 ff ff       	callq  6d3d <safe_mul_func_uint16_t_u_u>
    e3f4:	0f b6 95 ec f8 ff ff 	movzbl -0x714(%rbp),%edx
    e3fb:	8b 05 1b 70 00 00    	mov    0x701b(%rip),%eax        # 1541c <g_84>
    e401:	0c e9                	or     $0xe9,%al
    e403:	48 98                	cltq   
    e405:	48 39 c2             	cmp    %rax,%rdx
    e408:	0f 94 c0             	sete   %al
    e40b:	0f b6 c0             	movzbl %al,%eax
    e40e:	4c 89 ee             	mov    %r13,%rsi
    e411:	48 89 c7             	mov    %rax,%rdi
    e414:	e8 28 84 ff ff       	callq  6841 <safe_add_func_int64_t_s_s>
    e419:	44 89 e6             	mov    %r12d,%esi
    e41c:	bf 01 00 00 00       	mov    $0x1,%edi
    e421:	e8 26 88 ff ff       	callq  6c4c <safe_lshift_func_uint8_t_u_u>
    e426:	48 be a8 cd 20 fb 23 	movabs $0xa37e1a23fb20cda8,%rsi
    e42d:	1a 7e a3 
    e430:	48 bf bb 23 92 5e ee 	movabs $0xf9218dee5e9223bb,%rdi
    e437:	8d 21 f9 
    e43a:	e8 b8 85 ff ff       	callq  69f7 <safe_div_func_int64_t_s_s>
    e43f:	48 89 c2             	mov    %rax,%rdx
    e442:	8b 05 b8 70 00 00    	mov    0x70b8(%rip),%eax        # 15500 <g_223>
    e448:	0f b7 c0             	movzwl %ax,%eax
    e44b:	48 8d 0d c6 6f 00 00 	lea    0x6fc6(%rip),%rcx        # 15418 <g_83>
    e452:	48 8d 35 67 82 00 00 	lea    0x8267(%rip),%rsi        # 166c0 <g_81>
    e459:	89 c7                	mov    %eax,%edi
    e45b:	e8 2a 18 00 00       	callq  fc8a <func_70>
    e460:	48 8b 05 69 82 00 00 	mov    0x8269(%rip),%rax        # 166d0 <g_82>
    e467:	c6 00 bc             	movb   $0xbc,(%rax)
    e46a:	be 04 00 00 00       	mov    $0x4,%esi
    e46f:	bf bc 00 00 00       	mov    $0xbc,%edi
    e474:	e8 14 88 ff ff       	callq  6c8d <safe_rshift_func_uint8_t_u_s>
    e479:	0f b6 c0             	movzbl %al,%eax
    e47c:	0f b6 95 ec f8 ff ff 	movzbl -0x714(%rbp),%edx
    e483:	48 f7 d2             	not    %rdx
    e486:	48 21 d0             	and    %rdx,%rax
    e489:	48 85 c0             	test   %rax,%rax
    e48c:	74 07                	je     e495 <func_38+0x72b>
    e48e:	b8 01 00 00 00       	mov    $0x1,%eax
    e493:	eb 05                	jmp    e49a <func_38+0x730>
    e495:	b8 00 00 00 00       	mov    $0x0,%eax
    e49a:	3b 85 14 f9 ff ff    	cmp    -0x6ec(%rbp),%eax
    e4a0:	0f 95 c0             	setne  %al
    e4a3:	0f b6 c0             	movzbl %al,%eax
    e4a6:	89 de                	mov    %ebx,%esi
    e4a8:	89 c7                	mov    %eax,%edi
    e4aa:	e8 ab 86 ff ff       	callq  6b5a <safe_add_func_uint8_t_u_u>
    e4af:	80 bd ec f8 ff ff 00 	cmpb   $0x0,-0x714(%rbp)
    e4b6:	0f 84 33 03 00 00    	je     e7ef <func_38+0xa85>
    e4bc:	66 c7 85 fa f8 ff ff 	movw   $0x5289,-0x706(%rbp)
    e4c3:	89 52 
    e4c5:	c7 85 30 f9 ff ff f7 	movl   $0xfffffff7,-0x6d0(%rbp)
    e4cc:	ff ff ff 
    e4cf:	48 8d 85 50 f9 ff ff 	lea    -0x6b0(%rbp),%rax
    e4d6:	48 89 85 98 f9 ff ff 	mov    %rax,-0x668(%rbp)
    e4dd:	48 8d 05 38 6f 00 00 	lea    0x6f38(%rip),%rax        # 1541c <g_84>
    e4e4:	48 89 85 a0 f9 ff ff 	mov    %rax,-0x660(%rbp)
    e4eb:	c7 85 34 f9 ff ff ff 	movl   $0xffffffff,-0x6cc(%rbp)
    e4f2:	ff ff ff 
    e4f5:	c7 85 38 f9 ff ff b3 	movl   $0x2ffddcb3,-0x6c8(%rbp)
    e4fc:	dc fd 2f 
    e4ff:	c7 85 3c f9 ff ff 01 	movl   $0x1,-0x6c4(%rbp)
    e506:	00 00 00 
    e509:	48 8d 85 10 fc ff ff 	lea    -0x3f0(%rbp),%rax
    e510:	48 8d 15 29 36 00 00 	lea    0x3629(%rip),%rdx        # 11b40 <g_1636+0xada>
    e517:	b9 30 00 00 00       	mov    $0x30,%ecx
    e51c:	48 89 c7             	mov    %rax,%rdi
    e51f:	48 89 d6             	mov    %rdx,%rsi
    e522:	f3 48 a5             	rep movsq %ds:(%rsi),%es:(%rdi)
    e525:	c7 85 40 f9 ff ff 00 	movl   $0x0,-0x6c0(%rbp)
    e52c:	00 00 00 
    e52f:	66 83 bd fa f8 ff ff 	cmpw   $0x0,-0x706(%rbp)
    e536:	00 
    e537:	0f 84 f4 01 00 00    	je     e731 <func_38+0x9c7>
    e53d:	48 c7 85 10 fa ff ff 	movq   $0xfffffffffffffff7,-0x5f0(%rbp)
    e544:	f7 ff ff ff 
    e548:	48 c7 85 18 fa ff ff 	movq   $0xfffffffffffffff7,-0x5e8(%rbp)
    e54f:	f7 ff ff ff 
    e553:	48 c7 85 20 fa ff ff 	movq   $0xfffffffffffffff7,-0x5e0(%rbp)
    e55a:	f7 ff ff ff 
    e55e:	48 c7 85 28 fa ff ff 	movq   $0xfffffffffffffff7,-0x5d8(%rbp)
    e565:	f7 ff ff ff 
    e569:	48 c7 85 30 fa ff ff 	movq   $0xfffffffffffffff7,-0x5d0(%rbp)
    e570:	f7 ff ff ff 
    e574:	48 c7 85 38 fa ff ff 	movq   $0xfffffffffffffff7,-0x5c8(%rbp)
    e57b:	f7 ff ff ff 
    e57f:	48 c7 85 40 fa ff ff 	movq   $0xfffffffffffffff7,-0x5c0(%rbp)
    e586:	f7 ff ff ff 
    e58a:	48 c7 85 b8 f9 ff ff 	movq   $0x0,-0x648(%rbp)
    e591:	00 00 00 00 
    e595:	48 8d 85 48 f9 ff ff 	lea    -0x6b8(%rbp),%rax
    e59c:	48 89 85 c0 f9 ff ff 	mov    %rax,-0x640(%rbp)
    e5a3:	c7 85 04 f9 ff ff 6e 	movl   $0x5894c06e,-0x6fc(%rbp)
    e5aa:	c0 94 58 
    e5ad:	48 8d 85 50 fa ff ff 	lea    -0x5b0(%rbp),%rax
    e5b4:	48 83 c0 30          	add    $0x30,%rax
    e5b8:	48 89 85 c8 f9 ff ff 	mov    %rax,-0x638(%rbp)
    e5bf:	c7 85 44 f9 ff ff 00 	movl   $0x0,-0x6bc(%rbp)
    e5c6:	00 00 00 
    e5c9:	c6 85 f6 f8 ff ff f8 	movb   $0xf8,-0x70a(%rbp)
    e5d0:	0f b7 9d fa f8 ff ff 	movzwl -0x706(%rbp),%ebx
    e5d7:	44 8b a5 14 f9 ff ff 	mov    -0x6ec(%rbp),%r12d
    e5de:	44 8b ad 30 f9 ff ff 	mov    -0x6d0(%rbp),%r13d
    e5e5:	48 8b 85 28 fa ff ff 	mov    -0x5d8(%rbp),%rax
    e5ec:	48 3d 08 10 00 00    	cmp    $0x1008,%rax
    e5f2:	7e 5f                	jle    e653 <func_38+0x8e9>
    e5f4:	48 8b 85 d8 f8 ff ff 	mov    -0x728(%rbp),%rax
    e5fb:	0f b6 00             	movzbl (%rax),%eax
    e5fe:	8d 50 01             	lea    0x1(%rax),%edx
    e601:	48 8b 85 d8 f8 ff ff 	mov    -0x728(%rbp),%rax
    e608:	88 10                	mov    %dl,(%rax)
    e60a:	48 8b 85 d8 f8 ff ff 	mov    -0x728(%rbp),%rax
    e611:	0f b6 00             	movzbl (%rax),%eax
    e614:	0f b6 c0             	movzbl %al,%eax
    e617:	be 07 00 00 00       	mov    $0x7,%esi
    e61c:	89 c7                	mov    %eax,%edi
    e61e:	e8 9b 86 ff ff       	callq  6cbe <safe_rshift_func_uint8_t_u_u>
    e623:	48 8b 95 c0 f9 ff ff 	mov    -0x640(%rbp),%rdx
    e62a:	48 8b 12             	mov    (%rdx),%rdx
    e62d:	0f b6 c0             	movzbl %al,%eax
    e630:	48 31 c2             	xor    %rax,%rdx
    e633:	48 8b 85 c0 f9 ff ff 	mov    -0x640(%rbp),%rax
    e63a:	48 89 10             	mov    %rdx,(%rax)
    e63d:	48 8b 85 c0 f9 ff ff 	mov    -0x640(%rbp),%rax
    e644:	48 8b 00             	mov    (%rax),%rax
    e647:	48 85 c0             	test   %rax,%rax
    e64a:	74 07                	je     e653 <func_38+0x8e9>
    e64c:	b8 01 00 00 00       	mov    $0x1,%eax
    e651:	eb 05                	jmp    e658 <func_38+0x8ee>
    e653:	b8 00 00 00 00       	mov    $0x0,%eax
    e658:	83 e0 01             	and    $0x1,%eax
    e65b:	8b 95 14 f9 ff ff    	mov    -0x6ec(%rbp),%edx
    e661:	f7 d2                	not    %edx
    e663:	c1 ea 1f             	shr    $0x1f,%edx
    e666:	0f b6 d2             	movzbl %dl,%edx
    e669:	39 95 14 f9 ff ff    	cmp    %edx,-0x6ec(%rbp)
    e66f:	0f 94 c2             	sete   %dl
    e672:	31 d0                	xor    %edx,%eax
    e674:	0f b6 c0             	movzbl %al,%eax
    e677:	44 89 ee             	mov    %r13d,%esi
    e67a:	89 c7                	mov    %eax,%edi
    e67c:	e8 a4 88 ff ff       	callq  6f25 <safe_div_func_uint32_t_u_u>
    e681:	44 89 e6             	mov    %r12d,%esi
    e684:	89 c7                	mov    %eax,%edi
    e686:	e8 45 88 ff ff       	callq  6ed0 <safe_sub_func_uint32_t_u_u>
    e68b:	b8 01 00 00 00       	mov    $0x1,%eax
    e690:	48 63 d0             	movslq %eax,%rdx
    e693:	48 8b 05 36 6e 00 00 	mov    0x6e36(%rip),%rax        # 154d0 <g_166>
    e69a:	48 09 d0             	or     %rdx,%rax
    e69d:	48 89 05 2c 6e 00 00 	mov    %rax,0x6e2c(%rip)        # 154d0 <g_166>
    e6a4:	48 8b 15 25 6e 00 00 	mov    0x6e25(%rip),%rdx        # 154d0 <g_166>
    e6ab:	48 8b 85 c8 f9 ff ff 	mov    -0x638(%rbp),%rax
    e6b2:	48 89 10             	mov    %rdx,(%rax)
    e6b5:	48 83 bd 98 f9 ff ff 	cmpq   $0x0,-0x668(%rbp)
    e6bc:	00 
    e6bd:	89 de                	mov    %ebx,%esi
    e6bf:	bf 01 00 00 00       	mov    $0x1,%edi
    e6c4:	e8 c4 85 ff ff       	callq  6c8d <safe_rshift_func_uint8_t_u_s>
    e6c9:	48 8b 85 d8 f8 ff ff 	mov    -0x728(%rbp),%rax
    e6d0:	0f b6 00             	movzbl (%rax),%eax
    e6d3:	88 05 46 6e 00 00    	mov    %al,0x6e46(%rip)        # 1551f <g_413+0x3>
    e6d9:	0f b6 05 3f 6e 00 00 	movzbl 0x6e3f(%rip),%eax        # 1551f <g_413+0x3>
    e6e0:	84 c0                	test   %al,%al
    e6e2:	74 10                	je     e6f4 <func_38+0x98a>
    e6e4:	48 8b 85 90 f9 ff ff 	mov    -0x670(%rbp),%rax
    e6eb:	48 89 85 a0 f9 ff ff 	mov    %rax,-0x660(%rbp)
    e6f2:	eb 18                	jmp    e70c <func_38+0x9a2>
    e6f4:	83 a5 14 f9 ff ff 05 	andl   $0x5,-0x6ec(%rbp)
    e6fb:	48 8b 85 48 f9 ff ff 	mov    -0x6b8(%rbp),%rax
    e702:	48 85 c0             	test   %rax,%rax
    e705:	74 05                	je     e70c <func_38+0x9a2>
    e707:	e9 26 fc ff ff       	jmpq   e332 <func_38+0x5c8>
    e70c:	83 bd 30 f9 ff ff 00 	cmpl   $0x0,-0x6d0(%rbp)
    e713:	0f 85 49 01 00 00    	jne    e862 <func_38+0xaf8>
    e719:	8b 85 30 f9 ff ff    	mov    -0x6d0(%rbp),%eax
    e71f:	31 85 14 f9 ff ff    	xor    %eax,-0x6ec(%rbp)
    e725:	83 ad 40 f9 ff ff 01 	subl   $0x1,-0x6c0(%rbp)
    e72c:	e9 1d 01 00 00       	jmpq   e84e <func_38+0xae4>
    e731:	48 8d 05 d6 92 00 00 	lea    0x92d6(%rip),%rax        # 17a0e <g_146>
    e738:	48 89 85 a8 f9 ff ff 	mov    %rax,-0x658(%rbp)
    e73f:	48 8d 05 da 80 00 00 	lea    0x80da(%rip),%rax        # 16820 <g_610>
    e746:	48 89 85 b0 f9 ff ff 	mov    %rax,-0x650(%rbp)
    e74d:	8b 85 3c f9 ff ff    	mov    -0x6c4(%rbp),%eax
    e753:	0f be d0             	movsbl %al,%edx
    e756:	0f b7 85 f8 f8 ff ff 	movzwl -0x708(%rbp),%eax
    e75d:	0f be c0             	movsbl %al,%eax
    e760:	89 d6                	mov    %edx,%esi
    e762:	89 c7                	mov    %eax,%edi
    e764:	e8 89 7a ff ff       	callq  61f2 <safe_sub_func_int8_t_s_s>
    e769:	8b 05 7d 6d 00 00    	mov    0x6d7d(%rip),%eax        # 154ec <g_202+0xc>
    e76f:	0f bf d8             	movswl %ax,%ebx
    e772:	0f b6 95 ec f8 ff ff 	movzbl -0x714(%rbp),%edx
    e779:	0f b6 85 ec f8 ff ff 	movzbl -0x714(%rbp),%eax
    e780:	48 89 d6             	mov    %rdx,%rsi
    e783:	48 89 c7             	mov    %rax,%rdi
    e786:	e8 29 82 ff ff       	callq  69b4 <safe_mod_func_int64_t_s_s>
    e78b:	48 8b 95 a8 f9 ff ff 	mov    -0x658(%rbp),%rdx
    e792:	0f b7 12             	movzwl (%rdx),%edx
    e795:	21 c2                	and    %eax,%edx
    e797:	48 8b 85 a8 f9 ff ff 	mov    -0x658(%rbp),%rax
    e79e:	66 89 10             	mov    %dx,(%rax)
    e7a1:	48 8b 85 a8 f9 ff ff 	mov    -0x658(%rbp),%rax
    e7a8:	0f b7 00             	movzwl (%rax),%eax
    e7ab:	98                   	cwtl   
    e7ac:	89 de                	mov    %ebx,%esi
    e7ae:	89 c7                	mov    %eax,%edi
    e7b0:	e8 fe 7b ff ff       	callq  63b3 <safe_add_func_int16_t_s_s>
    e7b5:	0f be d0             	movsbl %al,%edx
    e7b8:	0f b6 85 ec f8 ff ff 	movzbl -0x714(%rbp),%eax
    e7bf:	0f be c0             	movsbl %al,%eax
    e7c2:	89 d6                	mov    %edx,%esi
    e7c4:	89 c7                	mov    %eax,%edi
    e7c6:	e8 9f 7a ff ff       	callq  626a <safe_div_func_int8_t_s_s>
    e7cb:	8b 95 54 fb ff ff    	mov    -0x4ac(%rbp),%edx
    e7d1:	0f be c0             	movsbl %al,%eax
    e7d4:	31 d0                	xor    %edx,%eax
    e7d6:	89 85 54 fb ff ff    	mov    %eax,-0x4ac(%rbp)
    e7dc:	48 8b 15 3d 80 00 00 	mov    0x803d(%rip),%rdx        # 16820 <g_610>
    e7e3:	48 8b 85 b0 f9 ff ff 	mov    -0x650(%rbp),%rax
    e7ea:	48 89 10             	mov    %rdx,(%rax)
    e7ed:	eb 5f                	jmp    e84e <func_38+0xae4>
    e7ef:	c6 85 f5 f8 ff ff 4a 	movb   $0x4a,-0x70b(%rbp)
    e7f6:	83 85 18 f9 ff ff 01 	addl   $0x1,-0x6e8(%rbp)
    e7fd:	c7 05 f9 6c 00 00 00 	movl   $0x0,0x6cf9(%rip)        # 15500 <g_223>
    e804:	00 00 00 
    e807:	eb 3a                	jmp    e843 <func_38+0xad9>
    e809:	48 8b 85 58 f9 ff ff 	mov    -0x6a8(%rbp),%rax
    e810:	48 85 c0             	test   %rax,%rax
    e813:	0f 94 c0             	sete   %al
    e816:	0f b6 c0             	movzbl %al,%eax
    e819:	89 85 e0 f9 ff ff    	mov    %eax,-0x620(%rbp)
    e81f:	0f be 95 f5 f8 ff ff 	movsbl -0x70b(%rbp),%edx
    e826:	8b 05 e8 6b 00 00    	mov    0x6be8(%rip),%eax        # 15414 <g_64>
    e82c:	09 d0                	or     %edx,%eax
    e82e:	89 05 e0 6b 00 00    	mov    %eax,0x6be0(%rip)        # 15414 <g_64>
    e834:	8b 05 c6 6c 00 00    	mov    0x6cc6(%rip),%eax        # 15500 <g_223>
    e83a:	83 c0 01             	add    $0x1,%eax
    e83d:	89 05 bd 6c 00 00    	mov    %eax,0x6cbd(%rip)        # 15500 <g_223>
    e843:	8b 05 b7 6c 00 00    	mov    0x6cb7(%rip),%eax        # 15500 <g_223>
    e849:	83 f8 1a             	cmp    $0x1a,%eax
    e84c:	77 bb                	ja     e809 <func_38+0xa9f>
    e84e:	83 85 08 f9 ff ff 01 	addl   $0x1,-0x6f8(%rbp)
    e855:	83 bd 08 f9 ff ff 12 	cmpl   $0x12,-0x6f8(%rbp)
    e85c:	0f 8e fe fa ff ff    	jle    e360 <func_38+0x5f6>
    e862:	48 8d 05 7b 6d 00 00 	lea    0x6d7b(%rip),%rax        # 155e4 <g_518+0xa4>
    e869:	48 8b 5d d8          	mov    -0x28(%rbp),%rbx
    e86d:	64 48 33 1c 25 28 00 	xor    %fs:0x28,%rbx
    e874:	00 00 
    e876:	74 05                	je     e87d <func_38+0xb13>
    e878:	e8 f3 77 ff ff       	callq  6070 <__stack_chk_fail@plt>
    e87d:	48 81 c4 10 07 00 00 	add    $0x710,%rsp
    e884:	5b                   	pop    %rbx
    e885:	41 5c                	pop    %r12
    e887:	41 5d                	pop    %r13
    e889:	41 5e                	pop    %r14
    e88b:	5d                   	pop    %rbp
    e88c:	c3                   	retq   

000000000000e88d <func_43>:
    e88d:	f3 0f 1e fa          	endbr64 
    e891:	55                   	push   %rbp
    e892:	48 89 e5             	mov    %rsp,%rbp
    e895:	41 57                	push   %r15
    e897:	41 56                	push   %r14
    e899:	41 55                	push   %r13
    e89b:	41 54                	push   %r12
    e89d:	53                   	push   %rbx
    e89e:	48 81 ec 88 06 00 00 	sub    $0x688,%rsp
    e8a5:	89 f8                	mov    %edi,%eax
    e8a7:	48 89 b5 60 f9 ff ff 	mov    %rsi,-0x6a0(%rbp)
    e8ae:	89 95 68 f9 ff ff    	mov    %edx,-0x698(%rbp)
    e8b4:	89 8d 5c f9 ff ff    	mov    %ecx,-0x6a4(%rbp)
    e8ba:	4c 89 85 50 f9 ff ff 	mov    %r8,-0x6b0(%rbp)
    e8c1:	66 89 85 6c f9 ff ff 	mov    %ax,-0x694(%rbp)
    e8c8:	64 48 8b 04 25 28 00 	mov    %fs:0x28,%rax
    e8cf:	00 00 
    e8d1:	48 89 45 c8          	mov    %rax,-0x38(%rbp)
    e8d5:	31 c0                	xor    %eax,%eax
    e8d7:	48 c7 85 10 fa ff ff 	movq   $0xffffffffffffffff,-0x5f0(%rbp)
    e8de:	ff ff ff ff 
    e8e2:	48 8d 05 d7 7d 00 00 	lea    0x7dd7(%rip),%rax        # 166c0 <g_81>
    e8e9:	48 89 85 40 fa ff ff 	mov    %rax,-0x5c0(%rbp)
    e8f0:	48 c7 85 48 fa ff ff 	movq   $0x0,-0x5b8(%rbp)
    e8f7:	00 00 00 00 
    e8fb:	48 8d 05 12 6b 00 00 	lea    0x6b12(%rip),%rax        # 15414 <g_64>
    e902:	48 89 85 18 fa ff ff 	mov    %rax,-0x5e8(%rbp)
    e909:	48 c7 85 50 fa ff ff 	movq   $0x0,-0x5b0(%rbp)
    e910:	00 00 00 00 
    e914:	48 c7 85 58 fa ff ff 	movq   $0x0,-0x5a8(%rbp)
    e91b:	00 00 00 00 
    e91f:	48 8d 85 18 fa ff ff 	lea    -0x5e8(%rbp),%rax
    e926:	48 89 85 60 fa ff ff 	mov    %rax,-0x5a0(%rbp)
    e92d:	c7 85 80 f9 ff ff 55 	movl   $0xf4a0755,-0x680(%rbp)
    e934:	07 4a 0f 
    e937:	48 8d 05 8a 6b 00 00 	lea    0x6b8a(%rip),%rax        # 154c8 <g_144>
    e93e:	48 89 85 68 fa ff ff 	mov    %rax,-0x598(%rbp)
    e945:	c6 85 7c f9 ff ff 84 	movb   $0x84,-0x684(%rbp)
    e94c:	c7 85 84 f9 ff ff 68 	movl   $0x6f204968,-0x67c(%rbp)
    e953:	49 20 6f 
    e956:	c7 85 b0 f9 ff ff 07 	movl   $0x7,-0x650(%rbp)
    e95d:	00 00 00 
    e960:	c7 85 b4 f9 ff ff 01 	movl   $0x1,-0x64c(%rbp)
    e967:	00 00 00 
    e96a:	c7 85 b8 f9 ff ff 75 	movl   $0xab730275,-0x648(%rbp)
    e971:	02 73 ab 
    e974:	c7 85 94 f9 ff ff ff 	movl   $0xffffffff,-0x66c(%rbp)
    e97b:	ff ff ff 
    e97e:	c7 85 88 f9 ff ff 9a 	movl   $0x16d2739a,-0x678(%rbp)
    e985:	73 d2 16 
    e988:	c7 85 8c f9 ff ff 0f 	movl   $0x5e963c0f,-0x674(%rbp)
    e98f:	3c 96 5e 
    e992:	c7 85 98 f9 ff ff 70 	movl   $0x1e4fe670,-0x668(%rbp)
    e999:	e6 4f 1e 
    e99c:	c7 85 00 fb ff ff 39 	movl   $0x6d2c7239,-0x500(%rbp)
    e9a3:	72 2c 6d 
    e9a6:	c7 85 04 fb ff ff 39 	movl   $0x6d2c7239,-0x4fc(%rbp)
    e9ad:	72 2c 6d 
    e9b0:	c7 85 08 fb ff ff 39 	movl   $0x6d2c7239,-0x4f8(%rbp)
    e9b7:	72 2c 6d 
    e9ba:	c7 85 0c fb ff ff 39 	movl   $0x6d2c7239,-0x4f4(%rbp)
    e9c1:	72 2c 6d 
    e9c4:	c7 85 10 fb ff ff 39 	movl   $0x6d2c7239,-0x4f0(%rbp)
    e9cb:	72 2c 6d 
    e9ce:	c7 85 14 fb ff ff 39 	movl   $0x6d2c7239,-0x4ec(%rbp)
    e9d5:	72 2c 6d 
    e9d8:	48 8d 05 2d 90 00 00 	lea    0x902d(%rip),%rax        # 17a0c <g_116>
    e9df:	48 89 85 20 fa ff ff 	mov    %rax,-0x5e0(%rbp)
    e9e6:	48 8d 85 20 fa ff ff 	lea    -0x5e0(%rbp),%rax
    e9ed:	48 89 85 28 fa ff ff 	mov    %rax,-0x5d8(%rbp)
    e9f4:	48 8d 05 17 6b 00 00 	lea    0x6b17(%rip),%rax        # 15512 <g_315>
    e9fb:	48 89 85 70 fa ff ff 	mov    %rax,-0x590(%rbp)
    ea02:	c7 85 bc f9 ff ff 01 	movl   $0x1,-0x644(%rbp)
    ea09:	00 00 00 
    ea0c:	48 c7 85 78 fa ff ff 	movq   $0x2,-0x588(%rbp)
    ea13:	02 00 00 00 
    ea17:	48 8d 85 28 fa ff ff 	lea    -0x5d8(%rbp),%rax
    ea1e:	48 89 85 30 fa ff ff 	mov    %rax,-0x5d0(%rbp)
    ea25:	48 8d 85 30 fa ff ff 	lea    -0x5d0(%rbp),%rax
    ea2c:	48 89 85 80 fa ff ff 	mov    %rax,-0x580(%rbp)
    ea33:	c7 85 9c f9 ff ff 00 	movl   $0x0,-0x664(%rbp)
    ea3a:	00 00 00 
    ea3d:	eb 1b                	jmp    ea5a <func_43+0x1cd>
    ea3f:	8b 85 9c f9 ff ff    	mov    -0x664(%rbp),%eax
    ea45:	48 98                	cltq   
    ea47:	48 c7 84 c5 40 fc ff 	movq   $0x0,-0x3c0(%rbp,%rax,8)
    ea4e:	ff 00 00 00 00 
    ea53:	83 85 9c f9 ff ff 01 	addl   $0x1,-0x664(%rbp)
    ea5a:	83 bd 9c f9 ff ff 09 	cmpl   $0x9,-0x664(%rbp)
    ea61:	7e dc                	jle    ea3f <func_43+0x1b2>
    ea63:	c7 85 9c f9 ff ff 00 	movl   $0x0,-0x664(%rbp)
    ea6a:	00 00 00 
    ea6d:	eb 14                	jmp    ea83 <func_43+0x1f6>
    ea6f:	8b 85 9c f9 ff ff    	mov    -0x664(%rbp),%eax
    ea75:	48 98                	cltq   
    ea77:	c6 44 05 be f7       	movb   $0xf7,-0x42(%rbp,%rax,1)
    ea7c:	83 85 9c f9 ff ff 01 	addl   $0x1,-0x664(%rbp)
    ea83:	83 bd 9c f9 ff ff 00 	cmpl   $0x0,-0x664(%rbp)
    ea8a:	7e e3                	jle    ea6f <func_43+0x1e2>
    ea8c:	c7 85 9c f9 ff ff 00 	movl   $0x0,-0x664(%rbp)
    ea93:	00 00 00 
    ea96:	eb 21                	jmp    eab9 <func_43+0x22c>
    ea98:	8b 85 9c f9 ff ff    	mov    -0x664(%rbp),%eax
    ea9e:	48 98                	cltq   
    eaa0:	48 b9 45 f4 82 59 c9 	movabs $0x8c16dc95982f445,%rcx
    eaa7:	6d c1 08 
    eaaa:	48 89 8c c5 20 fb ff 	mov    %rcx,-0x4e0(%rbp,%rax,8)
    eab1:	ff 
    eab2:	83 85 9c f9 ff ff 01 	addl   $0x1,-0x664(%rbp)
    eab9:	83 bd 9c f9 ff ff 02 	cmpl   $0x2,-0x664(%rbp)
    eac0:	7e d6                	jle    ea98 <func_43+0x20b>
    eac2:	48 8d 3d 3f 69 00 00 	lea    0x693f(%rip),%rdi        # 15408 <g_5>
    eac9:	e8 df 0e 00 00       	callq  f9ad <func_49>
    eace:	0f b6 d0             	movzbl %al,%edx
    ead1:	48 8b 85 60 f9 ff ff 	mov    -0x6a0(%rbp),%rax
    ead8:	8b 00                	mov    (%rax),%eax
    eada:	83 f8 07             	cmp    $0x7,%eax
    eadd:	0f 95 c0             	setne  %al
    eae0:	0f b6 c0             	movzbl %al,%eax
    eae3:	31 d0                	xor    %edx,%eax
    eae5:	48 63 d0             	movslq %eax,%rdx
    eae8:	48 8b 85 10 fa ff ff 	mov    -0x5f0(%rbp),%rax
    eaef:	48 21 d0             	and    %rdx,%rax
    eaf2:	48 89 85 10 fa ff ff 	mov    %rax,-0x5f0(%rbp)
    eaf9:	48 8b 85 10 fa ff ff 	mov    -0x5f0(%rbp),%rax
    eb00:	0f b6 c0             	movzbl %al,%eax
    eb03:	be 01 00 00 00       	mov    $0x1,%esi
    eb08:	89 c7                	mov    %eax,%edi
    eb0a:	e8 69 80 ff ff       	callq  6b78 <safe_sub_func_uint8_t_u_u>
    eb0f:	0f be 9d 7c f9 ff ff 	movsbl -0x684(%rbp),%ebx
    eb16:	0f b7 85 6c f9 ff ff 	movzwl -0x694(%rbp),%eax
    eb1d:	44 0f b6 e0          	movzbl %al,%r12d
    eb21:	44 0f b7 ad 6c f9 ff 	movzwl -0x694(%rbp),%r13d
    eb28:	ff 
    eb29:	48 8b 05 a0 7b 00 00 	mov    0x7ba0(%rip),%rax        # 166d0 <g_82>
    eb30:	0f b6 00             	movzbl (%rax),%eax
    eb33:	44 0f be f0          	movsbl %al,%r14d
    eb37:	48 8b 85 18 fa ff ff 	mov    -0x5e8(%rbp),%rax
    eb3e:	8b 95 68 f9 ff ff    	mov    -0x698(%rbp),%edx
    eb44:	89 10                	mov    %edx,(%rax)
    eb46:	48 8d 85 5c f9 ff ff 	lea    -0x6a4(%rbp),%rax
    eb4d:	48 89 85 60 f9 ff ff 	mov    %rax,-0x6a0(%rbp)
    eb54:	be 0a 00 00 00       	mov    $0xa,%esi
    eb59:	bf 01 00 00 00       	mov    $0x1,%edi
    eb5e:	e8 2f 79 ff ff       	callq  6492 <safe_lshift_func_int16_t_s_s>
    eb63:	48 8b 85 60 fa ff ff 	mov    -0x5a0(%rbp),%rax
    eb6a:	48 8d 95 5c f9 ff ff 	lea    -0x6a4(%rbp),%rdx
    eb71:	48 89 10             	mov    %rdx,(%rax)
    eb74:	48 8b 85 60 fa ff ff 	mov    -0x5a0(%rbp),%rax
    eb7b:	48 8b 10             	mov    (%rax),%rdx
    eb7e:	48 8d 85 5c f9 ff ff 	lea    -0x6a4(%rbp),%rax
    eb85:	48 39 c2             	cmp    %rax,%rdx
    eb88:	0f 95 c0             	setne  %al
    eb8b:	0f b6 c0             	movzbl %al,%eax
    eb8e:	44 89 f6             	mov    %r14d,%esi
    eb91:	89 c7                	mov    %eax,%edi
    eb93:	e8 5a 76 ff ff       	callq  61f2 <safe_sub_func_int8_t_s_s>
    eb98:	0f b6 c0             	movzbl %al,%eax
    eb9b:	44 89 ee             	mov    %r13d,%esi
    eb9e:	89 c7                	mov    %eax,%edi
    eba0:	e8 a7 80 ff ff       	callq  6c4c <safe_lshift_func_uint8_t_u_u>
    eba5:	0f b6 c0             	movzbl %al,%eax
    eba8:	44 89 e6             	mov    %r12d,%esi
    ebab:	89 c7                	mov    %eax,%edi
    ebad:	e8 a8 7f ff ff       	callq  6b5a <safe_add_func_uint8_t_u_u>
    ebb2:	0f b6 d0             	movzbl %al,%edx
    ebb5:	48 8b 85 68 fa ff ff 	mov    -0x598(%rbp),%rax
    ebbc:	89 10                	mov    %edx,(%rax)
    ebbe:	48 8b 85 68 fa ff ff 	mov    -0x598(%rbp),%rax
    ebc5:	8b 00                	mov    (%rax),%eax
    ebc7:	89 c2                	mov    %eax,%edx
    ebc9:	48 8b 05 f0 7a 00 00 	mov    0x7af0(%rip),%rax        # 166c0 <g_81>
    ebd0:	8b 00                	mov    (%rax),%eax
    ebd2:	21 d0                	and    %edx,%eax
    ebd4:	66 89 05 33 8e 00 00 	mov    %ax,0x8e33(%rip)        # 17a0e <g_146>
    ebdb:	0f b7 05 2c 8e 00 00 	movzwl 0x8e2c(%rip),%eax        # 17a0e <g_146>
    ebe2:	48 0f bf d0          	movswq %ax,%rdx
    ebe6:	48 8b 85 40 fa ff ff 	mov    -0x5c0(%rbp),%rax
    ebed:	48 8b 00             	mov    (%rax),%rax
    ebf0:	8b 00                	mov    (%rax),%eax
    ebf2:	48 98                	cltq   
    ebf4:	48 89 d6             	mov    %rdx,%rsi
    ebf7:	48 89 c7             	mov    %rax,%rdi
    ebfa:	e8 42 7c ff ff       	callq  6841 <safe_add_func_int64_t_s_s>
    ebff:	8b 15 ab 68 00 00    	mov    0x68ab(%rip),%edx        # 154b0 <g_87+0x90>
    ec05:	48 63 d2             	movslq %edx,%rdx
    ec08:	48 39 d0             	cmp    %rdx,%rax
    ec0b:	0f 9f c0             	setg   %al
    ec0e:	0f b6 c0             	movzbl %al,%eax
    ec11:	89 de                	mov    %ebx,%esi
    ec13:	89 c7                	mov    %eax,%edi
    ec15:	e8 a4 80 ff ff       	callq  6cbe <safe_rshift_func_uint8_t_u_u>
    ec1a:	84 c0                	test   %al,%al
    ec1c:	74 0a                	je     ec28 <func_43+0x39b>
    ec1e:	0f b7 05 e9 8d 00 00 	movzwl 0x8de9(%rip),%eax        # 17a0e <g_146>
    ec25:	66 85 c0             	test   %ax,%ax
    ec28:	48 8b 85 50 f9 ff ff 	mov    -0x6b0(%rbp),%rax
    ec2f:	98                   	cwtl   
    ec30:	be 02 00 00 00       	mov    $0x2,%esi
    ec35:	89 c7                	mov    %eax,%edi
    ec37:	e8 97 77 ff ff       	callq  63d3 <safe_sub_func_int16_t_s_s>
    ec3c:	c7 85 5c f9 ff ff 00 	movl   $0x0,-0x6a4(%rbp)
    ec43:	00 00 00 
    ec46:	0f b7 9d 6c f9 ff ff 	movzwl -0x694(%rbp),%ebx
    ec4d:	48 8b 85 50 f9 ff ff 	mov    -0x6b0(%rbp),%rax
    ec54:	89 c6                	mov    %eax,%esi
    ec56:	bf 01 00 00 00       	mov    $0x1,%edi
    ec5b:	e8 81 78 ff ff       	callq  64e1 <safe_lshift_func_int16_t_s_u>
    ec60:	98                   	cwtl   
    ec61:	be 01 00 00 00       	mov    $0x1,%esi
    ec66:	89 c7                	mov    %eax,%edi
    ec68:	e8 92 7a ff ff       	callq  66ff <safe_div_func_int32_t_s_s>
    ec6d:	be d6 27 00 00       	mov    $0x27d6,%esi
    ec72:	bf ff ff 00 00       	mov    $0xffff,%edi
    ec77:	e8 e0 80 ff ff       	callq  6d5c <safe_mod_func_uint16_t_u_u>
    ec7c:	0f be c0             	movsbl %al,%eax
    ec7f:	be fb ff ff ff       	mov    $0xfffffffb,%esi
    ec84:	89 c7                	mov    %eax,%edi
    ec86:	e8 67 75 ff ff       	callq  61f2 <safe_sub_func_int8_t_s_s>
    ec8b:	48 0f be c0          	movsbq %al,%rax
    ec8f:	48 be ed c9 98 dd 24 	movabs $0x420ccc24dd98c9ed,%rsi
    ec96:	cc 0c 42 
    ec99:	48 89 c7             	mov    %rax,%rdi
    ec9c:	e8 07 7c ff ff       	callq  68a8 <safe_sub_func_int64_t_s_s>
    eca1:	48 39 c3             	cmp    %rax,%rbx
    eca4:	0f 94 c2             	sete   %dl
    eca7:	48 8b 85 60 fa ff ff 	mov    -0x5a0(%rbp),%rax
    ecae:	48 8b 00             	mov    (%rax),%rax
    ecb1:	0f b6 d2             	movzbl %dl,%edx
    ecb4:	89 10                	mov    %edx,(%rax)
    ecb6:	8b 00                	mov    (%rax),%eax
    ecb8:	85 c0                	test   %eax,%eax
    ecba:	0f 84 9b 05 00 00    	je     f25b <func_43+0x9ce>
    ecc0:	48 c7 85 a8 fa ff ff 	movq   $0x0,-0x558(%rbp)
    ecc7:	00 00 00 00 
    eccb:	c7 85 f0 f9 ff ff 45 	movl   $0xcff5d345,-0x610(%rbp)
    ecd2:	d3 f5 cf 
    ecd5:	c7 85 90 f9 ff ff cb 	movl   $0xdbf33fcb,-0x670(%rbp)
    ecdc:	3f f3 db 
    ecdf:	48 8d 05 ae 67 00 00 	lea    0x67ae(%rip),%rax        # 15494 <g_87+0x74>
    ece6:	48 89 85 b0 fa ff ff 	mov    %rax,-0x550(%rbp)
    eced:	48 c7 85 b8 fa ff ff 	movq   $0x0,-0x548(%rbp)
    ecf4:	00 00 00 00 
    ecf8:	48 8d 85 90 f9 ff ff 	lea    -0x670(%rbp),%rax
    ecff:	48 89 85 00 fc ff ff 	mov    %rax,-0x400(%rbp)
    ed06:	48 8d 85 90 f9 ff ff 	lea    -0x670(%rbp),%rax
    ed0d:	48 89 85 08 fc ff ff 	mov    %rax,-0x3f8(%rbp)
    ed14:	48 8d 05 1d 67 00 00 	lea    0x671d(%rip),%rax        # 15438 <g_87+0x18>
    ed1b:	48 89 85 10 fc ff ff 	mov    %rax,-0x3f0(%rbp)
    ed22:	48 8d 85 90 f9 ff ff 	lea    -0x670(%rbp),%rax
    ed29:	48 89 85 18 fc ff ff 	mov    %rax,-0x3e8(%rbp)
    ed30:	48 8d 85 90 f9 ff ff 	lea    -0x670(%rbp),%rax
    ed37:	48 89 85 20 fc ff ff 	mov    %rax,-0x3e0(%rbp)
    ed3e:	48 8d 05 f3 66 00 00 	lea    0x66f3(%rip),%rax        # 15438 <g_87+0x18>
    ed45:	48 89 85 28 fc ff ff 	mov    %rax,-0x3d8(%rbp)
    ed4c:	48 8d 85 90 f9 ff ff 	lea    -0x670(%rbp),%rax
    ed53:	48 89 85 30 fc ff ff 	mov    %rax,-0x3d0(%rbp)
    ed5a:	48 8d 85 90 f9 ff ff 	lea    -0x670(%rbp),%rax
    ed61:	48 89 85 38 fc ff ff 	mov    %rax,-0x3c8(%rbp)
    ed68:	c7 85 38 fa ff ff fa 	movl   $0xfffffffa,-0x5c8(%rbp)
    ed6f:	ff ff ff 
    ed72:	48 8d 05 5f 79 00 00 	lea    0x795f(%rip),%rax        # 166d8 <g_203>
    ed79:	48 89 85 c0 fa ff ff 	mov    %rax,-0x540(%rbp)
    ed80:	48 8d 85 38 fa ff ff 	lea    -0x5c8(%rbp),%rax
    ed87:	48 89 85 c8 fa ff ff 	mov    %rax,-0x538(%rbp)
    ed8e:	c7 85 a0 f9 ff ff 00 	movl   $0x0,-0x660(%rbp)
    ed95:	00 00 00 
    ed98:	eb 1b                	jmp    edb5 <func_43+0x528>
    ed9a:	8b 85 a0 f9 ff ff    	mov    -0x660(%rbp),%eax
    eda0:	48 98                	cltq   
    eda2:	48 c7 84 c5 d0 fb ff 	movq   $0x0,-0x430(%rbp,%rax,8)
    eda9:	ff 00 00 00 00 
    edae:	83 85 a0 f9 ff ff 01 	addl   $0x1,-0x660(%rbp)
    edb5:	83 bd a0 f9 ff ff 02 	cmpl   $0x2,-0x660(%rbp)
    edbc:	7e dc                	jle    ed9a <func_43+0x50d>
    edbe:	48 8b 85 18 fa ff ff 	mov    -0x5e8(%rbp),%rax
    edc5:	48 8b 95 60 f9 ff ff 	mov    -0x6a0(%rbp),%rdx
    edcc:	8b 12                	mov    (%rdx),%edx
    edce:	89 10                	mov    %edx,(%rax)
    edd0:	48 b8 38 97 d2 d9 e3 	movabs $0x8d7faae3d9d29738,%rax
    edd7:	aa 7f 8d 
    edda:	48 89 05 ef 66 00 00 	mov    %rax,0x66ef(%rip)        # 154d0 <g_166>
    ede1:	48 8b 85 60 fa ff ff 	mov    -0x5a0(%rbp),%rax
    ede8:	48 8b 00             	mov    (%rax),%rax
    edeb:	c7 00 38 97 d2 d9    	movl   $0xd9d29738,(%rax)
    edf1:	48 8b 05 d8 78 00 00 	mov    0x78d8(%rip),%rax        # 166d0 <g_82>
    edf8:	0f b6 00             	movzbl (%rax),%eax
    edfb:	0f be d8             	movsbl %al,%ebx
    edfe:	48 8b 85 a8 fa ff ff 	mov    -0x558(%rbp),%rax
    ee05:	98                   	cwtl   
    ee06:	89 c6                	mov    %eax,%esi
    ee08:	bf 01 00 00 00       	mov    $0x1,%edi
    ee0d:	e8 43 76 ff ff       	callq  6455 <safe_div_func_int16_t_s_s>
    ee12:	8b 05 04 66 00 00    	mov    0x6604(%rip),%eax        # 1541c <g_84>
    ee18:	83 f8 fe             	cmp    $0xfffffffe,%eax
    ee1b:	0f 94 c0             	sete   %al
    ee1e:	0f b6 c0             	movzbl %al,%eax
    ee21:	be 07 00 00 00       	mov    $0x7,%esi
    ee26:	89 c7                	mov    %eax,%edi
    ee28:	e8 1b 80 ff ff       	callq  6e48 <safe_rshift_func_uint16_t_u_s>
    ee2d:	be 72 16 90 64       	mov    $0x64901672,%esi
    ee32:	bf 00 00 00 00       	mov    $0x0,%edi
    ee37:	e8 7a 77 ff ff       	callq  65b6 <safe_add_func_int32_t_s_s>
    ee3c:	be 01 00 00 00       	mov    $0x1,%esi
    ee41:	bf fd ff 00 00       	mov    $0xfffd,%edi
    ee46:	e8 bb 7f ff ff       	callq  6e06 <safe_lshift_func_uint16_t_u_u>
    ee4b:	89 de                	mov    %ebx,%esi
    ee4d:	bf 8a ff ff ff       	mov    $0xffffff8a,%edi
    ee52:	e8 13 74 ff ff       	callq  626a <safe_div_func_int8_t_s_s>
    ee57:	8b 85 68 f9 ff ff    	mov    -0x698(%rbp),%eax
    ee5d:	83 c8 58             	or     $0x58,%eax
    ee60:	98                   	cwtl   
    ee61:	be 0d 00 00 00       	mov    $0xd,%esi
    ee66:	89 c7                	mov    %eax,%edi
    ee68:	e8 f6 76 ff ff       	callq  6563 <safe_rshift_func_int16_t_s_u>
    ee6d:	0f b7 85 6c f9 ff ff 	movzwl -0x694(%rbp),%eax
    ee74:	48 be 51 a0 40 03 2d 	movabs $0xea7b122d0340a051,%rsi
    ee7b:	12 7b ea 
    ee7e:	48 89 c7             	mov    %rax,%rdi
    ee81:	e8 2e 7b ff ff       	callq  69b4 <safe_mod_func_int64_t_s_s>
    ee86:	89 c2                	mov    %eax,%edx
    ee88:	8b 85 90 f9 ff ff    	mov    -0x670(%rbp),%eax
    ee8e:	31 d0                	xor    %edx,%eax
    ee90:	89 85 90 f9 ff ff    	mov    %eax,-0x670(%rbp)
    ee96:	8b 85 38 fa ff ff    	mov    -0x5c8(%rbp),%eax
    ee9c:	83 e8 01             	sub    $0x1,%eax
    ee9f:	89 85 38 fa ff ff    	mov    %eax,-0x5c8(%rbp)
    eea5:	8b 05 75 65 00 00    	mov    0x6575(%rip),%eax        # 15420 <g_87>
    eeab:	48 63 d8             	movslq %eax,%rbx
    eeae:	48 8b 85 60 fa ff ff 	mov    -0x5a0(%rbp),%rax
    eeb5:	48 8b 00             	mov    (%rax),%rax
    eeb8:	8b 10                	mov    (%rax),%edx
    eeba:	48 8b 05 0f 66 00 00 	mov    0x660f(%rip),%rax        # 154d0 <g_166>
    eec1:	0f b7 c0             	movzwl %ax,%eax
    eec4:	89 d6                	mov    %edx,%esi
    eec6:	89 c7                	mov    %eax,%edi
    eec8:	e8 7b 7f ff ff       	callq  6e48 <safe_rshift_func_uint16_t_u_s>
    eecd:	48 8b 85 40 fa ff ff 	mov    -0x5c0(%rbp),%rax
    eed4:	48 8b 00             	mov    (%rax),%rax
    eed7:	8b 00                	mov    (%rax),%eax
    eed9:	85 c0                	test   %eax,%eax
    eedb:	75 0a                	jne    eee7 <func_43+0x65a>
    eedd:	8b 05 29 65 00 00    	mov    0x6529(%rip),%eax        # 1540c <g_8>
    eee3:	85 c0                	test   %eax,%eax
    eee5:	74 07                	je     eeee <func_43+0x661>
    eee7:	b8 01 00 00 00       	mov    $0x1,%eax
    eeec:	eb 05                	jmp    eef3 <func_43+0x666>
    eeee:	b8 00 00 00 00       	mov    $0x0,%eax
    eef3:	89 05 f3 65 00 00    	mov    %eax,0x65f3(%rip)        # 154ec <g_202+0xc>
    eef9:	48 8b 15 d8 77 00 00 	mov    0x77d8(%rip),%rdx        # 166d8 <g_203>
    ef00:	48 8b 85 c0 fa ff ff 	mov    -0x540(%rbp),%rax
    ef07:	48 89 10             	mov    %rdx,(%rax)
    ef0a:	8b 05 04 65 00 00    	mov    0x6504(%rip),%eax        # 15414 <g_64>
    ef10:	85 c0                	test   %eax,%eax
    ef12:	74 07                	je     ef1b <func_43+0x68e>
    ef14:	b8 01 00 00 00       	mov    $0x1,%eax
    ef19:	eb 05                	jmp    ef20 <func_43+0x693>
    ef1b:	b8 00 00 00 00       	mov    $0x0,%eax
    ef20:	98                   	cwtl   
    ef21:	be 48 cc ff ff       	mov    $0xffffcc48,%esi
    ef26:	89 c7                	mov    %eax,%edi
    ef28:	e8 e9 74 ff ff       	callq  6416 <safe_mod_func_int16_t_s_s>
    ef2d:	48 8b 85 50 f9 ff ff 	mov    -0x6b0(%rbp),%rax
    ef34:	0f b6 c0             	movzbl %al,%eax
    ef37:	be 05 00 00 00       	mov    $0x5,%esi
    ef3c:	89 c7                	mov    %eax,%edi
    ef3e:	e8 98 7c ff ff       	callq  6bdb <safe_div_func_uint8_t_u_u>
    ef43:	0f b6 c0             	movzbl %al,%eax
    ef46:	48 89 de             	mov    %rbx,%rsi
    ef49:	48 89 c7             	mov    %rax,%rdi
    ef4c:	e8 63 7a ff ff       	callq  69b4 <safe_mod_func_int64_t_s_s>
    ef51:	48 c7 c0 ff ff ff ff 	mov    $0xffffffffffffffff,%rax
    ef58:	89 c2                	mov    %eax,%edx
    ef5a:	48 8b 85 68 fa ff ff 	mov    -0x598(%rbp),%rax
    ef61:	89 10                	mov    %edx,(%rax)
    ef63:	48 8b 85 68 fa ff ff 	mov    -0x598(%rbp),%rax
    ef6a:	8b 00                	mov    (%rax),%eax
    ef6c:	83 e0 fe             	and    $0xfffffffe,%eax
    ef6f:	89 c2                	mov    %eax,%edx
    ef71:	48 8b 85 c8 fa ff ff 	mov    -0x538(%rbp),%rax
    ef78:	89 10                	mov    %edx,(%rax)
    ef7a:	48 8b 85 c8 fa ff ff 	mov    -0x538(%rbp),%rax
    ef81:	8b 00                	mov    (%rax),%eax
    ef83:	0f b6 c0             	movzbl %al,%eax
    ef86:	be fa 00 00 00       	mov    $0xfa,%esi
    ef8b:	89 c7                	mov    %eax,%edi
    ef8d:	e8 e6 7b ff ff       	callq  6b78 <safe_sub_func_uint8_t_u_u>
    ef92:	84 c0                	test   %al,%al
    ef94:	74 1e                	je     efb4 <func_43+0x727>
    ef96:	48 8b 85 60 f9 ff ff 	mov    -0x6a0(%rbp),%rax
    ef9d:	8b 00                	mov    (%rax),%eax
    ef9f:	0d 9e 39 d5 b4       	or     $0xb4d5399e,%eax
    efa4:	89 c2                	mov    %eax,%edx
    efa6:	48 8b 85 60 f9 ff ff 	mov    -0x6a0(%rbp),%rax
    efad:	89 10                	mov    %edx,(%rax)
    efaf:	e9 cc 09 00 00       	jmpq   f980 <func_43+0x10f3>
    efb4:	66 c7 85 7e f9 ff ff 	movw   $0x9,-0x682(%rbp)
    efbb:	09 00 
    efbd:	c7 85 f4 f9 ff ff 64 	movl   $0x3d589764,-0x60c(%rbp)
    efc4:	97 58 3d 
    efc7:	48 8d 05 4a 64 00 00 	lea    0x644a(%rip),%rax        # 15418 <g_83>
    efce:	48 89 85 d0 fa ff ff 	mov    %rax,-0x530(%rbp)
    efd5:	48 b8 88 13 2a fe cc 	movabs $0xf7f315ccfe2a1388,%rax
    efdc:	15 f3 f7 
    efdf:	48 89 85 d8 fa ff ff 	mov    %rax,-0x528(%rbp)
    efe6:	c7 85 a4 f9 ff ff 00 	movl   $0x0,-0x65c(%rbp)
    efed:	00 00 00 
    eff0:	eb 1a                	jmp    f00c <func_43+0x77f>
    eff2:	8b 85 a4 f9 ff ff    	mov    -0x65c(%rbp),%eax
    eff8:	48 98                	cltq   
    effa:	c7 84 85 a0 fb ff ff 	movl   $0x1,-0x460(%rbp,%rax,4)
    f001:	01 00 00 00 
    f005:	83 85 a4 f9 ff ff 01 	addl   $0x1,-0x65c(%rbp)
    f00c:	83 bd a4 f9 ff ff 04 	cmpl   $0x4,-0x65c(%rbp)
    f013:	7e dd                	jle    eff2 <func_43+0x765>
    f015:	c7 85 68 f9 ff ff 18 	movl   $0x18,-0x698(%rbp)
    f01c:	00 00 00 
    f01f:	eb 2d                	jmp    f04e <func_43+0x7c1>
    f021:	48 8b 85 60 f9 ff ff 	mov    -0x6a0(%rbp),%rax
    f028:	8b 00                	mov    (%rax),%eax
    f02a:	25 e0 84 55 be       	and    $0xbe5584e0,%eax
    f02f:	89 c2                	mov    %eax,%edx
    f031:	48 8b 85 60 f9 ff ff 	mov    -0x6a0(%rbp),%rax
    f038:	89 10                	mov    %edx,(%rax)
    f03a:	48 8b 05 7f 76 00 00 	mov    0x767f(%rip),%rax        # 166c0 <g_81>
    f041:	8b 00                	mov    (%rax),%eax
    f043:	85 c0                	test   %eax,%eax
    f045:	75 12                	jne    f059 <func_43+0x7cc>
    f047:	83 85 68 f9 ff ff 01 	addl   $0x1,-0x698(%rbp)
    f04e:	83 bd 68 f9 ff ff 1d 	cmpl   $0x1d,-0x698(%rbp)
    f055:	77 ca                	ja     f021 <func_43+0x794>
    f057:	eb 01                	jmp    f05a <func_43+0x7cd>
    f059:	90                   	nop
    f05a:	66 c7 05 ab 89 00 00 	movw   $0x7,0x89ab(%rip)        # 17a0e <g_146>
    f061:	07 00 
    f063:	e9 dd 01 00 00       	jmpq   f245 <func_43+0x9b8>
    f068:	48 8d 05 91 64 00 00 	lea    0x6491(%rip),%rax        # 15500 <g_223>
    f06f:	48 89 85 e0 fa ff ff 	mov    %rax,-0x520(%rbp)
    f076:	c7 85 f8 f9 ff ff ff 	movl   $0xffffffff,-0x608(%rbp)
    f07d:	ff ff ff 
    f080:	c7 85 fc f9 ff ff fd 	movl   $0xfffffffd,-0x604(%rbp)
    f087:	ff ff ff 
    f08a:	c7 85 00 fa ff ff 08 	movl   $0x8,-0x600(%rbp)
    f091:	00 00 00 
    f094:	c7 85 04 fa ff ff 00 	movl   $0x0,-0x5fc(%rbp)
    f09b:	00 00 00 
    f09e:	c7 85 08 fa ff ff fd 	movl   $0xfffffffd,-0x5f8(%rbp)
    f0a5:	ff ff ff 
    f0a8:	c7 85 0c fa ff ff 0e 	movl   $0xd9f28a0e,-0x5f4(%rbp)
    f0af:	8a f2 d9 
    f0b2:	48 8d 85 10 fd ff ff 	lea    -0x2f0(%rbp),%rax
    f0b9:	48 8d 15 00 2c 00 00 	lea    0x2c00(%rip),%rdx        # 11cc0 <g_1636+0xc5a>
    f0c0:	b9 2a 00 00 00       	mov    $0x2a,%ecx
    f0c5:	48 89 c7             	mov    %rax,%rdi
    f0c8:	48 89 d6             	mov    %rdx,%rsi
    f0cb:	f3 48 a5             	rep movsq %ds:(%rsi),%es:(%rdi)
    f0ce:	c7 85 90 fc ff ff ff 	movl   $0xffffffff,-0x370(%rbp)
    f0d5:	ff ff ff 
    f0d8:	c7 85 94 fc ff ff ff 	movl   $0xffffffff,-0x36c(%rbp)
    f0df:	ff ff ff 
    f0e2:	c7 85 98 fc ff ff ff 	movl   $0xffffffff,-0x368(%rbp)
    f0e9:	ff ff ff 
    f0ec:	c7 85 9c fc ff ff ff 	movl   $0xffffffff,-0x364(%rbp)
    f0f3:	ff ff ff 
    f0f6:	c7 85 a0 fc ff ff ff 	movl   $0xffffffff,-0x360(%rbp)
    f0fd:	ff ff ff 
    f100:	c7 85 a4 fc ff ff ff 	movl   $0xffffffff,-0x35c(%rbp)
    f107:	ff ff ff 
    f10a:	c7 85 a8 fc ff ff ff 	movl   $0xffffffff,-0x358(%rbp)
    f111:	ff ff ff 
    f114:	c7 85 ac fc ff ff ff 	movl   $0xffffffff,-0x354(%rbp)
    f11b:	ff ff ff 
    f11e:	c7 85 b0 fc ff ff ff 	movl   $0xffffffff,-0x350(%rbp)
    f125:	ff ff ff 
    f128:	c7 85 b4 fc ff ff ff 	movl   $0xffffffff,-0x34c(%rbp)
    f12f:	ff ff ff 
    f132:	c7 85 b8 fc ff ff ff 	movl   $0xffffffff,-0x348(%rbp)
    f139:	ff ff ff 
    f13c:	c7 85 bc fc ff ff ff 	movl   $0xffffffff,-0x344(%rbp)
    f143:	ff ff ff 
    f146:	c7 85 c0 fc ff ff ff 	movl   $0xffffffff,-0x340(%rbp)
    f14d:	ff ff ff 
    f150:	c7 85 c4 fc ff ff ff 	movl   $0xffffffff,-0x33c(%rbp)
    f157:	ff ff ff 
    f15a:	c7 85 c8 fc ff ff ff 	movl   $0xffffffff,-0x338(%rbp)
    f161:	ff ff ff 
    f164:	c7 85 cc fc ff ff ff 	movl   $0xffffffff,-0x334(%rbp)
    f16b:	ff ff ff 
    f16e:	c7 85 d0 fc ff ff ff 	movl   $0xffffffff,-0x330(%rbp)
    f175:	ff ff ff 
    f178:	c7 85 d4 fc ff ff ff 	movl   $0xffffffff,-0x32c(%rbp)
    f17f:	ff ff ff 
    f182:	c7 85 d8 fc ff ff ff 	movl   $0xffffffff,-0x328(%rbp)
    f189:	ff ff ff 
    f18c:	c7 85 dc fc ff ff ff 	movl   $0xffffffff,-0x324(%rbp)
    f193:	ff ff ff 
    f196:	c7 85 e0 fc ff ff ff 	movl   $0xffffffff,-0x320(%rbp)
    f19d:	ff ff ff 
    f1a0:	c7 85 e4 fc ff ff ff 	movl   $0xffffffff,-0x31c(%rbp)
    f1a7:	ff ff ff 
    f1aa:	c7 85 e8 fc ff ff ff 	movl   $0xffffffff,-0x318(%rbp)
    f1b1:	ff ff ff 
    f1b4:	c7 85 ec fc ff ff ff 	movl   $0xffffffff,-0x314(%rbp)
    f1bb:	ff ff ff 
    f1be:	c7 85 f0 fc ff ff ff 	movl   $0xffffffff,-0x310(%rbp)
    f1c5:	ff ff ff 
    f1c8:	c7 85 f4 fc ff ff ff 	movl   $0xffffffff,-0x30c(%rbp)
    f1cf:	ff ff ff 
    f1d2:	c7 85 f8 fc ff ff ff 	movl   $0xffffffff,-0x308(%rbp)
    f1d9:	ff ff ff 
    f1dc:	c7 85 fc fc ff ff ff 	movl   $0xffffffff,-0x304(%rbp)
    f1e3:	ff ff ff 
    f1e6:	c7 85 00 fd ff ff ff 	movl   $0xffffffff,-0x300(%rbp)
    f1ed:	ff ff ff 
    f1f0:	c7 85 04 fd ff ff ff 	movl   $0xffffffff,-0x2fc(%rbp)
    f1f7:	ff ff ff 
    f1fa:	c7 85 08 fd ff ff ff 	movl   $0xffffffff,-0x2f8(%rbp)
    f201:	ff ff ff 
    f204:	c7 85 0c fd ff ff ff 	movl   $0xffffffff,-0x2f4(%rbp)
    f20b:	ff ff ff 
    f20e:	48 8d 05 bb 62 00 00 	lea    0x62bb(%rip),%rax        # 154d0 <g_166>
    f215:	48 89 85 e8 fa ff ff 	mov    %rax,-0x518(%rbp)
    f21c:	48 8d 05 ed 62 00 00 	lea    0x62ed(%rip),%rax        # 15510 <g_302+0x8>
    f223:	48 89 85 f0 fa ff ff 	mov    %rax,-0x510(%rbp)
    f22a:	0f b7 05 dd 87 00 00 	movzwl 0x87dd(%rip),%eax        # 17a0e <g_146>
    f231:	98                   	cwtl   
    f232:	be 08 00 00 00       	mov    $0x8,%esi
    f237:	89 c7                	mov    %eax,%edi
    f239:	e8 75 71 ff ff       	callq  63b3 <safe_add_func_int16_t_s_s>
    f23e:	66 89 05 c9 87 00 00 	mov    %ax,0x87c9(%rip)        # 17a0e <g_146>
    f245:	0f b7 05 c2 87 00 00 	movzwl 0x87c2(%rip),%eax        # 17a0e <g_146>
    f24c:	66 83 f8 0e          	cmp    $0xe,%ax
    f250:	0f 8f 12 fe ff ff    	jg     f068 <func_43+0x7db>
    f256:	e9 25 07 00 00       	jmpq   f980 <func_43+0x10f3>
    f25b:	48 8d 05 a8 62 00 00 	lea    0x62a8(%rip),%rax        # 1550a <g_302+0x2>
    f262:	48 89 85 88 fa ff ff 	mov    %rax,-0x578(%rbp)
    f269:	48 8d 85 88 f9 ff ff 	lea    -0x678(%rbp),%rax
    f270:	48 89 85 a0 fb ff ff 	mov    %rax,-0x460(%rbp)
    f277:	48 8d 85 8c f9 ff ff 	lea    -0x674(%rbp),%rax
    f27e:	48 89 85 a8 fb ff ff 	mov    %rax,-0x458(%rbp)
    f285:	48 8d 85 88 f9 ff ff 	lea    -0x678(%rbp),%rax
    f28c:	48 89 85 b0 fb ff ff 	mov    %rax,-0x450(%rbp)
    f293:	48 8d 85 8c f9 ff ff 	lea    -0x674(%rbp),%rax
    f29a:	48 89 85 b8 fb ff ff 	mov    %rax,-0x448(%rbp)
    f2a1:	48 8d 85 88 f9 ff ff 	lea    -0x678(%rbp),%rax
    f2a8:	48 89 85 c0 fb ff ff 	mov    %rax,-0x440(%rbp)
    f2af:	c6 85 90 f9 ff ff 00 	movb   $0x0,-0x670(%rbp)
    f2b6:	c7 05 44 62 00 00 00 	movl   $0x0,0x6244(%rip)        # 15504 <g_295>
    f2bd:	00 00 00 
    f2c0:	eb 63                	jmp    f325 <func_43+0xa98>
    f2c2:	c7 85 ec f9 ff ff 00 	movl   $0x0,-0x614(%rbp)
    f2c9:	00 00 00 
    f2cc:	48 8d 85 84 f9 ff ff 	lea    -0x67c(%rbp),%rax
    f2d3:	48 89 85 a0 fa ff ff 	mov    %rax,-0x560(%rbp)
    f2da:	83 ad ec f9 ff ff 01 	subl   $0x1,-0x614(%rbp)
    f2e1:	48 8b 85 60 fa ff ff 	mov    -0x5a0(%rbp),%rax
    f2e8:	48 8b 00             	mov    (%rax),%rax
    f2eb:	c7 00 00 00 00 00    	movl   $0x0,(%rax)
    f2f1:	8b 10                	mov    (%rax),%edx
    f2f3:	48 8b 85 a0 fa ff ff 	mov    -0x560(%rbp),%rax
    f2fa:	8b 00                	mov    (%rax),%eax
    f2fc:	31 c2                	xor    %eax,%edx
    f2fe:	48 8b 85 a0 fa ff ff 	mov    -0x560(%rbp),%rax
    f305:	89 10                	mov    %edx,(%rax)
    f307:	8b 05 f7 61 00 00    	mov    0x61f7(%rip),%eax        # 15504 <g_295>
    f30d:	0f b7 c0             	movzwl %ax,%eax
    f310:	be 02 00 00 00       	mov    $0x2,%esi
    f315:	89 c7                	mov    %eax,%edi
    f317:	e8 e3 79 ff ff       	callq  6cff <safe_add_func_uint16_t_u_u>
    f31c:	0f b7 c0             	movzwl %ax,%eax
    f31f:	89 05 df 61 00 00    	mov    %eax,0x61df(%rip)        # 15504 <g_295>
    f325:	8b 05 d9 61 00 00    	mov    0x61d9(%rip),%eax        # 15504 <g_295>
    f32b:	83 f8 34             	cmp    $0x34,%eax
    f32e:	76 92                	jbe    f2c2 <func_43+0xa35>
    f330:	c7 85 88 f9 ff ff 00 	movl   $0x0,-0x678(%rbp)
    f337:	00 00 00 
    f33a:	90                   	nop
    f33b:	8b 85 88 f9 ff ff    	mov    -0x678(%rbp),%eax
    f341:	83 f8 e3             	cmp    $0xffffffe3,%eax
    f344:	7d 0c                	jge    f352 <func_43+0xac5>
    f346:	48 8d 05 c9 61 00 00 	lea    0x61c9(%rip),%rax        # 15516 <g_390>
    f34d:	e9 35 06 00 00       	jmpq   f987 <func_43+0x10fa>
    f352:	c7 85 94 f9 ff ff 00 	movl   $0x0,-0x66c(%rbp)
    f359:	00 00 00 
    f35c:	e9 fa 05 00 00       	jmpq   f95b <func_43+0x10ce>
    f361:	c7 85 c0 f9 ff ff 09 	movl   $0x9,-0x640(%rbp)
    f368:	00 00 00 
    f36b:	48 8d 05 a0 61 00 00 	lea    0x61a0(%rip),%rax        # 15512 <g_315>
    f372:	48 89 85 90 fa ff ff 	mov    %rax,-0x570(%rbp)
    f379:	c7 85 c4 f9 ff ff a2 	movl   $0x15fb80a2,-0x63c(%rbp)
    f380:	80 fb 15 
    f383:	c7 85 c8 f9 ff ff ea 	movl   $0xe20276ea,-0x638(%rbp)
    f38a:	76 02 e2 
    f38d:	c7 85 cc f9 ff ff 63 	movl   $0x6bf44963,-0x634(%rbp)
    f394:	49 f4 6b 
    f397:	c7 85 d0 f9 ff ff 00 	movl   $0x0,-0x630(%rbp)
    f39e:	00 00 00 
    f3a1:	48 8d 85 90 f9 ff ff 	lea    -0x670(%rbp),%rax
    f3a8:	48 89 85 98 fa ff ff 	mov    %rax,-0x568(%rbp)
    f3af:	48 8b 85 18 fa ff ff 	mov    -0x5e8(%rbp),%rax
    f3b6:	8b 00                	mov    (%rax),%eax
    f3b8:	85 c0                	test   %eax,%eax
    f3ba:	0f 85 aa 05 00 00    	jne    f96a <func_43+0x10dd>
    f3c0:	8b 85 c0 f9 ff ff    	mov    -0x640(%rbp),%eax
    f3c6:	0f be c0             	movsbl %al,%eax
    f3c9:	be 05 00 00 00       	mov    $0x5,%esi
    f3ce:	89 c7                	mov    %eax,%edi
    f3d0:	e8 97 6f ff ff       	callq  636c <safe_rshift_func_int8_t_s_u>
    f3d5:	48 0f be d0          	movsbq %al,%rdx
    f3d9:	48 8b 85 50 f9 ff ff 	mov    -0x6b0(%rbp),%rax
    f3e0:	48 39 c2             	cmp    %rax,%rdx
    f3e3:	74 0c                	je     f3f1 <func_43+0xb64>
    f3e5:	48 8b 85 88 fa ff ff 	mov    -0x578(%rbp),%rax
    f3ec:	e9 96 05 00 00       	jmpq   f987 <func_43+0x10fa>
    f3f1:	48 8d 05 1a 61 00 00 	lea    0x611a(%rip),%rax        # 15512 <g_315>
    f3f8:	48 89 85 38 fa ff ff 	mov    %rax,-0x5c8(%rbp)
    f3ff:	48 8d 85 38 fa ff ff 	lea    -0x5c8(%rbp),%rax
    f406:	48 89 85 00 fc ff ff 	mov    %rax,-0x400(%rbp)
    f40d:	48 8d 85 38 fa ff ff 	lea    -0x5c8(%rbp),%rax
    f414:	48 89 85 08 fc ff ff 	mov    %rax,-0x3f8(%rbp)
    f41b:	48 8d 85 38 fa ff ff 	lea    -0x5c8(%rbp),%rax
    f422:	48 89 85 10 fc ff ff 	mov    %rax,-0x3f0(%rbp)
    f429:	48 8d 85 38 fa ff ff 	lea    -0x5c8(%rbp),%rax
    f430:	48 89 85 18 fc ff ff 	mov    %rax,-0x3e8(%rbp)
    f437:	48 8d 85 38 fa ff ff 	lea    -0x5c8(%rbp),%rax
    f43e:	48 89 85 20 fc ff ff 	mov    %rax,-0x3e0(%rbp)
    f445:	48 8d 85 38 fa ff ff 	lea    -0x5c8(%rbp),%rax
    f44c:	48 89 85 28 fc ff ff 	mov    %rax,-0x3d8(%rbp)
    f453:	48 8d 85 38 fa ff ff 	lea    -0x5c8(%rbp),%rax
    f45a:	48 89 85 30 fc ff ff 	mov    %rax,-0x3d0(%rbp)
    f461:	48 8d 85 38 fa ff ff 	lea    -0x5c8(%rbp),%rax
    f468:	48 89 85 38 fc ff ff 	mov    %rax,-0x3c8(%rbp)
    f46f:	c7 85 d4 f9 ff ff 01 	movl   $0x1,-0x62c(%rbp)
    f476:	00 00 00 
    f479:	48 8d 85 10 fd ff ff 	lea    -0x2f0(%rbp),%rax
    f480:	48 8d 15 99 29 00 00 	lea    0x2999(%rip),%rdx        # 11e20 <g_1636+0xdba>
    f487:	b9 54 00 00 00       	mov    $0x54,%ecx
    f48c:	48 89 c7             	mov    %rax,%rdi
    f48f:	48 89 d6             	mov    %rdx,%rsi
    f492:	f3 48 a5             	rep movsq %ds:(%rsi),%es:(%rdi)
    f495:	48 c7 85 60 fb ff ff 	movq   $0x0,-0x4a0(%rbp)
    f49c:	00 00 00 00 
    f4a0:	48 c7 85 68 fb ff ff 	movq   $0x0,-0x498(%rbp)
    f4a7:	00 00 00 00 
    f4ab:	48 c7 85 70 fb ff ff 	movq   $0x0,-0x490(%rbp)
    f4b2:	00 00 00 00 
    f4b6:	48 c7 85 78 fb ff ff 	movq   $0x0,-0x488(%rbp)
    f4bd:	00 00 00 00 
    f4c1:	48 b8 5a f9 5a f9 5a 	movabs $0xf95af95af95af95a,%rax
    f4c8:	f9 5a f9 
    f4cb:	48 89 45 bf          	mov    %rax,-0x41(%rbp)
    f4cf:	c6 45 c7 5a          	movb   $0x5a,-0x39(%rbp)
    f4d3:	48 c7 85 d0 fb ff ff 	movq   $0x0,-0x430(%rbp)
    f4da:	00 00 00 00 
    f4de:	48 c7 85 d8 fb ff ff 	movq   $0x0,-0x428(%rbp)
    f4e5:	00 00 00 00 
    f4e9:	48 8d 05 e0 5f 00 00 	lea    0x5fe0(%rip),%rax        # 154d0 <g_166>
    f4f0:	48 89 85 e0 fb ff ff 	mov    %rax,-0x420(%rbp)
    f4f7:	48 c7 85 e8 fb ff ff 	movq   $0x0,-0x418(%rbp)
    f4fe:	00 00 00 00 
    f502:	48 c7 85 f0 fb ff ff 	movq   $0x0,-0x410(%rbp)
    f509:	00 00 00 00 
    f50d:	48 8d 05 bc 5f 00 00 	lea    0x5fbc(%rip),%rax        # 154d0 <g_166>
    f514:	48 89 85 f8 fb ff ff 	mov    %rax,-0x408(%rbp)
    f51b:	c7 85 a8 f9 ff ff 00 	movl   $0x0,-0x658(%rbp)
    f522:	00 00 00 
    f525:	eb 1b                	jmp    f542 <func_43+0xcb5>
    f527:	8b 85 a8 f9 ff ff    	mov    -0x658(%rbp),%eax
    f52d:	48 98                	cltq   
    f52f:	48 c7 84 c5 90 fc ff 	movq   $0x0,-0x370(%rbp,%rax,8)
    f536:	ff 00 00 00 00 
    f53b:	83 85 a8 f9 ff ff 01 	addl   $0x1,-0x658(%rbp)
    f542:	83 bd a8 f9 ff ff 08 	cmpl   $0x8,-0x658(%rbp)
    f549:	7e dc                	jle    f527 <func_43+0xc9a>
    f54b:	c7 85 a8 f9 ff ff 00 	movl   $0x0,-0x658(%rbp)
    f552:	00 00 00 
    f555:	eb 1e                	jmp    f575 <func_43+0xce8>
    f557:	8b 85 a8 f9 ff ff    	mov    -0x658(%rbp),%eax
    f55d:	48 98                	cltq   
    f55f:	48 8d 15 ae 5f 00 00 	lea    0x5fae(%rip),%rdx        # 15514 <g_354>
    f566:	48 89 94 c5 80 fb ff 	mov    %rdx,-0x480(%rbp,%rax,8)
    f56d:	ff 
    f56e:	83 85 a8 f9 ff ff 01 	addl   $0x1,-0x658(%rbp)
    f575:	83 bd a8 f9 ff ff 03 	cmpl   $0x3,-0x658(%rbp)
    f57c:	7e d9                	jle    f557 <func_43+0xcca>
    f57e:	48 8b 95 b0 fb ff ff 	mov    -0x450(%rbp),%rdx
    f585:	48 8b 85 40 fa ff ff 	mov    -0x5c0(%rbp),%rax
    f58c:	48 89 10             	mov    %rdx,(%rax)
    f58f:	8b 85 d4 f9 ff ff    	mov    -0x62c(%rbp),%eax
    f595:	0f bf d8             	movswl %ax,%ebx
    f598:	48 8b 05 31 5f 00 00 	mov    0x5f31(%rip),%rax        # 154d0 <g_166>
    f59f:	44 0f b7 e0          	movzwl %ax,%r12d
    f5a3:	0f b7 85 6c f9 ff ff 	movzwl -0x694(%rbp),%eax
    f5aa:	be 00 00 00 00       	mov    $0x0,%esi
    f5af:	48 89 c7             	mov    %rax,%rdi
    f5b2:	e8 fd 73 ff ff       	callq  69b4 <safe_mod_func_int64_t_s_s>
    f5b7:	49 89 c7             	mov    %rax,%r15
    f5ba:	44 8b ad 68 f9 ff ff 	mov    -0x698(%rbp),%r13d
    f5c1:	48 8d 05 46 84 00 00 	lea    0x8446(%rip),%rax        # 17a0e <g_146>
    f5c8:	48 89 85 70 fa ff ff 	mov    %rax,-0x590(%rbp)
    f5cf:	8b 85 5c f9 ff ff    	mov    -0x6a4(%rbp),%eax
    f5d5:	44 0f be f0          	movsbl %al,%r14d
    f5d9:	48 8b 85 50 f9 ff ff 	mov    -0x6b0(%rbp),%rax
    f5e0:	89 85 58 f9 ff ff    	mov    %eax,-0x6a8(%rbp)
    f5e6:	8b 85 c0 f9 ff ff    	mov    -0x640(%rbp),%eax
    f5ec:	0f b7 d0             	movzwl %ax,%edx
    f5ef:	0f b6 05 15 5f 00 00 	movzbl 0x5f15(%rip),%eax        # 1550b <g_302+0x3>
    f5f6:	84 c0                	test   %al,%al
    f5f8:	75 09                	jne    f603 <func_43+0xd76>
    f5fa:	83 bd d4 f9 ff ff 00 	cmpl   $0x0,-0x62c(%rbp)
    f601:	74 07                	je     f60a <func_43+0xd7d>
    f603:	b8 01 00 00 00       	mov    $0x1,%eax
    f608:	eb 05                	jmp    f60f <func_43+0xd82>
    f60a:	b8 00 00 00 00       	mov    $0x0,%eax
    f60f:	0f b7 c0             	movzwl %ax,%eax
    f612:	89 d6                	mov    %edx,%esi
    f614:	89 c7                	mov    %eax,%edi
    f616:	e8 41 77 ff ff       	callq  6d5c <safe_mod_func_uint16_t_u_u>
    f61b:	0f b6 c0             	movzbl %al,%eax
    f61e:	be fe 00 00 00       	mov    $0xfe,%esi
    f623:	89 c7                	mov    %eax,%edi
    f625:	e8 69 75 ff ff       	callq  6b93 <safe_mul_func_uint8_t_u_u>
    f62a:	0f b6 d0             	movzbl %al,%edx
    f62d:	0f b6 05 ea 5e 00 00 	movzbl 0x5eea(%rip),%eax        # 1551e <g_413+0x2>
    f634:	0f b6 c0             	movzbl %al,%eax
    f637:	89 d6                	mov    %edx,%esi
    f639:	89 c7                	mov    %eax,%edi
    f63b:	e8 e5 78 ff ff       	callq  6f25 <safe_div_func_uint32_t_u_u>
    f640:	0f b6 c0             	movzbl %al,%eax
    f643:	8b b5 58 f9 ff ff    	mov    -0x6a8(%rbp),%esi
    f649:	89 c7                	mov    %eax,%edi
    f64b:	e8 6e 76 ff ff       	callq  6cbe <safe_rshift_func_uint8_t_u_u>
    f650:	0f be c0             	movsbl %al,%eax
    f653:	44 89 f6             	mov    %r14d,%esi
    f656:	89 c7                	mov    %eax,%edi
    f658:	e8 b5 6b ff ff       	callq  6212 <safe_mul_func_int8_t_s_s>
    f65d:	48 8d 05 aa 83 00 00 	lea    0x83aa(%rip),%rax        # 17a0e <g_146>
    f664:	48 39 85 90 fa ff ff 	cmp    %rax,-0x570(%rbp)
    f66b:	75 0f                	jne    f67c <func_43+0xdef>
    f66d:	48 8b 05 64 70 00 00 	mov    0x7064(%rip),%rax        # 166d8 <g_203>
    f674:	48 8b 00             	mov    (%rax),%rax
    f677:	48 85 c0             	test   %rax,%rax
    f67a:	74 07                	je     f683 <func_43+0xdf6>
    f67c:	ba 01 00 00 00       	mov    $0x1,%edx
    f681:	eb 05                	jmp    f688 <func_43+0xdfb>
    f683:	ba 00 00 00 00       	mov    $0x0,%edx
    f688:	48 8b 85 60 f9 ff ff 	mov    -0x6a0(%rbp),%rax
    f68f:	8b 00                	mov    (%rax),%eax
    f691:	39 c2                	cmp    %eax,%edx
    f693:	0f 9d c0             	setge  %al
    f696:	0f b6 c0             	movzbl %al,%eax
    f699:	44 89 ee             	mov    %r13d,%esi
    f69c:	89 c7                	mov    %eax,%edi
    f69e:	e8 1b 77 ff ff       	callq  6dbe <safe_lshift_func_uint16_t_u_s>
    f6a3:	0f b7 c0             	movzwl %ax,%eax
    f6a6:	39 85 d4 f9 ff ff    	cmp    %eax,-0x62c(%rbp)
    f6ac:	0f 9f c0             	setg   %al
    f6af:	0f b6 c0             	movzbl %al,%eax
    f6b2:	4c 31 f8             	xor    %r15,%rax
    f6b5:	48 83 f8 03          	cmp    $0x3,%rax
    f6b9:	0f 96 c0             	setbe  %al
    f6bc:	0f b6 c0             	movzbl %al,%eax
    f6bf:	44 89 e6             	mov    %r12d,%esi
    f6c2:	89 c7                	mov    %eax,%edi
    f6c4:	e8 74 76 ff ff       	callq  6d3d <safe_mul_func_uint16_t_u_u>
    f6c9:	48 c7 05 3c 83 00 00 	movq   $0x0,0x833c(%rip)        # 17a10 <g_462>
    f6d0:	00 00 00 00 
    f6d4:	89 de                	mov    %ebx,%esi
    f6d6:	bf 88 be ff ff       	mov    $0xffffbe88,%edi
    f6db:	e8 36 6d ff ff       	callq  6416 <safe_mod_func_int16_t_s_s>
    f6e0:	66 85 c0             	test   %ax,%ax
    f6e3:	0f 84 a4 00 00 00    	je     f78d <func_43+0xf00>
    f6e9:	c7 85 dc f9 ff ff ff 	movl   $0xffffffff,-0x624(%rbp)
    f6f0:	ff ff ff 
    f6f3:	c7 85 e0 f9 ff ff b8 	movl   $0x11230db8,-0x620(%rbp)
    f6fa:	0d 23 11 
    f6fd:	c7 85 e4 f9 ff ff b6 	movl   $0xc1a4b2b6,-0x61c(%rbp)
    f704:	b2 a4 c1 
    f707:	c7 85 e8 f9 ff ff 34 	movl   $0x680b7e34,-0x618(%rbp)
    f70e:	7e 0b 68 
    f711:	c6 85 7d f9 ff ff cd 	movb   $0xcd,-0x683(%rbp)
    f718:	c7 85 ac f9 ff ff 00 	movl   $0x0,-0x654(%rbp)
    f71f:	00 00 00 
    f722:	eb 19                	jmp    f73d <func_43+0xeb0>
    f724:	8b 85 ac f9 ff ff    	mov    -0x654(%rbp),%eax
    f72a:	48 98                	cltq   
    f72c:	66 c7 84 45 fe fa ff 	movw   $0x5,-0x502(%rbp,%rax,2)
    f733:	ff 05 00 
    f736:	83 85 ac f9 ff ff 01 	addl   $0x1,-0x654(%rbp)
    f73d:	83 bd ac f9 ff ff 00 	cmpl   $0x0,-0x654(%rbp)
    f744:	7e de                	jle    f724 <func_43+0xe97>
    f746:	c7 85 ac f9 ff ff 00 	movl   $0x0,-0x654(%rbp)
    f74d:	00 00 00 
    f750:	eb 1a                	jmp    f76c <func_43+0xedf>
    f752:	8b 85 ac f9 ff ff    	mov    -0x654(%rbp),%eax
    f758:	48 98                	cltq   
    f75a:	c7 84 85 40 fb ff ff 	movl   $0x762b044e,-0x4c0(%rbp,%rax,4)
    f761:	4e 04 2b 76 
    f765:	83 85 ac f9 ff ff 01 	addl   $0x1,-0x654(%rbp)
    f76c:	83 bd ac f9 ff ff 06 	cmpl   $0x6,-0x654(%rbp)
    f773:	7e dd                	jle    f752 <func_43+0xec5>
    f775:	80 ad 7d f9 ff ff 01 	subb   $0x1,-0x683(%rbp)
    f77c:	8b 85 48 fb ff ff    	mov    -0x4b8(%rbp),%eax
    f782:	83 c0 01             	add    $0x1,%eax
    f785:	89 85 48 fb ff ff    	mov    %eax,-0x4b8(%rbp)
    f78b:	eb 49                	jmp    f7d6 <func_43+0xf49>
    f78d:	c7 85 98 f9 ff ff 00 	movl   $0x0,-0x668(%rbp)
    f794:	00 00 00 
    f797:	eb 28                	jmp    f7c1 <func_43+0xf34>
    f799:	c7 85 d8 f9 ff ff dc 	movl   $0x3a0b12dc,-0x628(%rbp)
    f7a0:	12 0b 3a 
    f7a3:	8b 85 98 f9 ff ff    	mov    -0x668(%rbp),%eax
    f7a9:	0f b7 c0             	movzwl %ax,%eax
    f7ac:	be 06 00 00 00       	mov    $0x6,%esi
    f7b1:	89 c7                	mov    %eax,%edi
    f7b3:	e8 47 75 ff ff       	callq  6cff <safe_add_func_uint16_t_u_u>
    f7b8:	0f b7 c0             	movzwl %ax,%eax
    f7bb:	89 85 98 f9 ff ff    	mov    %eax,-0x668(%rbp)
    f7c1:	83 bd 98 f9 ff ff 09 	cmpl   $0x9,-0x668(%rbp)
    f7c8:	7e cf                	jle    f799 <func_43+0xf0c>
    f7ca:	48 8b 85 88 fa ff ff 	mov    -0x578(%rbp),%rax
    f7d1:	e9 b1 01 00 00       	jmpq   f987 <func_43+0x10fa>
    f7d6:	48 8b 05 f3 6e 00 00 	mov    0x6ef3(%rip),%rax        # 166d0 <g_82>
    f7dd:	0f b6 00             	movzbl (%rax),%eax
    f7e0:	0f b6 d8             	movzbl %al,%ebx
    f7e3:	48 8b 05 ee 6e 00 00 	mov    0x6eee(%rip),%rax        # 166d8 <g_203>
    f7ea:	48 8b 10             	mov    (%rax),%rdx
    f7ed:	48 8b 05 e4 6e 00 00 	mov    0x6ee4(%rip),%rax        # 166d8 <g_203>
    f7f4:	48 8b 00             	mov    (%rax),%rax
    f7f7:	89 c1                	mov    %eax,%ecx
    f7f9:	0f b7 05 22 5d 00 00 	movzwl 0x5d22(%rip),%eax        # 15522 <g_498>
    f800:	31 c8                	xor    %ecx,%eax
    f802:	66 89 05 19 5d 00 00 	mov    %ax,0x5d19(%rip)        # 15522 <g_498>
    f809:	0f b7 05 12 5d 00 00 	movzwl 0x5d12(%rip),%eax        # 15522 <g_498>
    f810:	66 89 05 0d 5d 00 00 	mov    %ax,0x5d0d(%rip)        # 15524 <g_499>
    f817:	0f b7 05 06 5d 00 00 	movzwl 0x5d06(%rip),%eax        # 15524 <g_499>
    f81e:	0f b7 c0             	movzwl %ax,%eax
    f821:	48 89 d6             	mov    %rdx,%rsi
    f824:	48 89 c7             	mov    %rax,%rdi
    f827:	e8 1f 78 ff ff       	callq  704b <safe_sub_func_uint64_t_u_u>
    f82c:	48 83 f8 f9          	cmp    $0xfffffffffffffff9,%rax
    f830:	0f 97 c0             	seta   %al
    f833:	0f b6 c0             	movzbl %al,%eax
    f836:	be 4c 9a ff ff       	mov    $0xffff9a4c,%esi
    f83b:	89 c7                	mov    %eax,%edi
    f83d:	e8 d4 6b ff ff       	callq  6416 <safe_mod_func_int16_t_s_s>
    f842:	c6 45 c3 00          	movb   $0x0,-0x3d(%rbp)
    f846:	48 be d8 92 45 99 ce 	movabs $0x328a8ece994592d8,%rsi
    f84d:	8e 8a 32 
    f850:	48 bf b9 b2 98 7d 51 	movabs $0xce9961517d98b2b9,%rdi
    f857:	61 99 ce 
    f85a:	e8 21 78 ff ff       	callq  7080 <safe_mod_func_uint64_t_u_u>
    f85f:	0f be c0             	movsbl %al,%eax
    f862:	89 de                	mov    %ebx,%esi
    f864:	89 c7                	mov    %eax,%edi
    f866:	e8 83 6a ff ff       	callq  62ee <safe_lshift_func_int8_t_s_u>
    f86b:	0f b7 85 6c f9 ff ff 	movzwl -0x694(%rbp),%eax
    f872:	be 06 00 00 00       	mov    $0x6,%esi
    f877:	89 c7                	mov    %eax,%edi
    f879:	e8 40 75 ff ff       	callq  6dbe <safe_lshift_func_uint16_t_u_s>
    f87e:	0f b7 d0             	movzwl %ax,%edx
    f881:	48 8b 05 48 6e 00 00 	mov    0x6e48(%rip),%rax        # 166d0 <g_82>
    f888:	0f b6 00             	movzbl (%rax),%eax
    f88b:	0f b6 c8             	movzbl %al,%ecx
    f88e:	0f b7 05 7f 5c 00 00 	movzwl 0x5c7f(%rip),%eax        # 15514 <g_354>
    f895:	66 39 c1             	cmp    %ax,%cx
    f898:	0f 93 c0             	setae  %al
    f89b:	0f b6 c0             	movzbl %al,%eax
    f89e:	39 c2                	cmp    %eax,%edx
    f8a0:	c7 85 68 fe ff ff 01 	movl   $0x1,-0x198(%rbp)
    f8a7:	00 00 00 
    f8aa:	8b 85 68 fe ff ff    	mov    -0x198(%rbp),%eax
    f8b0:	48 63 d0             	movslq %eax,%rdx
    f8b3:	48 8b 85 50 f9 ff ff 	mov    -0x6b0(%rbp),%rax
    f8ba:	48 39 c2             	cmp    %rax,%rdx
    f8bd:	0f 93 c0             	setae  %al
    f8c0:	0f b6 d0             	movzbl %al,%edx
    f8c3:	8b 05 6f 5b 00 00    	mov    0x5b6f(%rip),%eax        # 15438 <g_87+0x18>
    f8c9:	39 c2                	cmp    %eax,%edx
    f8cb:	0f 9c c0             	setl   %al
    f8ce:	0f b6 d0             	movzbl %al,%edx
    f8d1:	0f b7 85 6c f9 ff ff 	movzwl -0x694(%rbp),%eax
    f8d8:	09 d0                	or     %edx,%eax
    f8da:	48 63 d0             	movslq %eax,%rdx
    f8dd:	8b 85 5c f9 ff ff    	mov    -0x6a4(%rbp),%eax
    f8e3:	48 98                	cltq   
    f8e5:	48 89 d6             	mov    %rdx,%rsi
    f8e8:	48 89 c7             	mov    %rax,%rdi
    f8eb:	e8 b8 6f ff ff       	callq  68a8 <safe_sub_func_int64_t_s_s>
    f8f0:	48 8b 85 60 fa ff ff 	mov    -0x5a0(%rbp),%rax
    f8f7:	48 8b 00             	mov    (%rax),%rax
    f8fa:	c7 00 08 00 00 00    	movl   $0x8,(%rax)
    f900:	b8 02 00 00 00       	mov    $0x2,%eax
    f905:	39 85 68 f9 ff ff    	cmp    %eax,-0x698(%rbp)
    f90b:	8b 15 f7 5a 00 00    	mov    0x5af7(%rip),%edx        # 15408 <g_5>
    f911:	48 8b 85 40 fa ff ff 	mov    -0x5c0(%rbp),%rax
    f918:	48 8b 00             	mov    (%rax),%rax
    f91b:	81 e2 16 ed 9a 54    	and    $0x549aed16,%edx
    f921:	89 10                	mov    %edx,(%rax)
    f923:	48 8b 05 9e 6d 00 00 	mov    0x6d9e(%rip),%rax        # 166c8 <g_80>
    f92a:	48 8b 00             	mov    (%rax),%rax
    f92d:	8b 10                	mov    (%rax),%edx
    f92f:	48 8b 05 92 6d 00 00 	mov    0x6d92(%rip),%rax        # 166c8 <g_80>
    f936:	48 8b 00             	mov    (%rax),%rax
    f939:	f7 d2                	not    %edx
    f93b:	89 10                	mov    %edx,(%rax)
    f93d:	8b 85 94 f9 ff ff    	mov    -0x66c(%rbp),%eax
    f943:	0f be c0             	movsbl %al,%eax
    f946:	be 07 00 00 00       	mov    $0x7,%esi
    f94b:	89 c7                	mov    %eax,%edi
    f94d:	e8 82 68 ff ff       	callq  61d4 <safe_add_func_int8_t_s_s>
    f952:	0f be c0             	movsbl %al,%eax
    f955:	89 85 94 f9 ff ff    	mov    %eax,-0x66c(%rbp)
    f95b:	83 bd 94 f9 ff ff 15 	cmpl   $0x15,-0x66c(%rbp)
    f962:	0f 85 f9 f9 ff ff    	jne    f361 <func_43+0xad4>
    f968:	eb 01                	jmp    f96b <func_43+0x10de>
    f96a:	90                   	nop
    f96b:	48 8b 85 60 fa ff ff 	mov    -0x5a0(%rbp),%rax
    f972:	48 8b 00             	mov    (%rax),%rax
    f975:	8b 00                	mov    (%rax),%eax
    f977:	48 98                	cltq   
    f979:	48 21 85 78 fa ff ff 	and    %rax,-0x588(%rbp)
    f980:	48 8b 85 20 fa ff ff 	mov    -0x5e0(%rbp),%rax
    f987:	48 8b 4d c8          	mov    -0x38(%rbp),%rcx
    f98b:	64 48 33 0c 25 28 00 	xor    %fs:0x28,%rcx
    f992:	00 00 
    f994:	74 05                	je     f99b <func_43+0x110e>
    f996:	e8 d5 66 ff ff       	callq  6070 <__stack_chk_fail@plt>
    f99b:	48 81 c4 88 06 00 00 	add    $0x688,%rsp
    f9a2:	5b                   	pop    %rbx
    f9a3:	41 5c                	pop    %r12
    f9a5:	41 5d                	pop    %r13
    f9a7:	41 5e                	pop    %r14
    f9a9:	41 5f                	pop    %r15
    f9ab:	5d                   	pop    %rbp
    f9ac:	c3                   	retq   

000000000000f9ad <func_49>:
    f9ad:	f3 0f 1e fa          	endbr64 
    f9b1:	55                   	push   %rbp
    f9b2:	48 89 e5             	mov    %rsp,%rbp
    f9b5:	41 57                	push   %r15
    f9b7:	41 56                	push   %r14
    f9b9:	41 55                	push   %r13
    f9bb:	41 54                	push   %r12
    f9bd:	53                   	push   %rbx
    f9be:	48 83 ec 58          	sub    $0x58,%rsp
    f9c2:	48 89 7d 88          	mov    %rdi,-0x78(%rbp)
    f9c6:	64 48 8b 04 25 28 00 	mov    %fs:0x28,%rax
    f9cd:	00 00 
    f9cf:	48 89 45 c8          	mov    %rax,-0x38(%rbp)
    f9d3:	31 c0                	xor    %eax,%eax
    f9d5:	48 8d 05 2c 5a 00 00 	lea    0x5a2c(%rip),%rax        # 15408 <g_5>
    f9dc:	48 89 45 a0          	mov    %rax,-0x60(%rbp)
    f9e0:	48 8d 05 21 5a 00 00 	lea    0x5a21(%rip),%rax        # 15408 <g_5>
    f9e7:	48 89 45 98          	mov    %rax,-0x68(%rbp)
    f9eb:	48 8d 45 98          	lea    -0x68(%rbp),%rax
    f9ef:	48 89 45 a8          	mov    %rax,-0x58(%rbp)
    f9f3:	48 8d 05 1a 5a 00 00 	lea    0x5a1a(%rip),%rax        # 15414 <g_64>
    f9fa:	48 89 45 b0          	mov    %rax,-0x50(%rbp)
    f9fe:	c7 45 94 f6 71 fd 78 	movl   $0x78fd71f6,-0x6c(%rbp)
    fa05:	48 8d 05 b4 6c 00 00 	lea    0x6cb4(%rip),%rax        # 166c0 <g_81>
    fa0c:	48 89 45 b8          	mov    %rax,-0x48(%rbp)
    fa10:	48 8d 05 f5 7f 00 00 	lea    0x7ff5(%rip),%rax        # 17a0c <g_116>
    fa17:	48 89 45 c0          	mov    %rax,-0x40(%rbp)
    fa1b:	66 c7 45 92 dd 25    	movw   $0x25dd,-0x6e(%rbp)
    fa21:	48 8b 45 a8          	mov    -0x58(%rbp),%rax
    fa25:	48 8b 55 a0          	mov    -0x60(%rbp),%rdx
    fa29:	48 89 10             	mov    %rdx,(%rax)
    fa2c:	48 8b 45 a0          	mov    -0x60(%rbp),%rax
    fa30:	44 8b 28             	mov    (%rax),%r13d
    fa33:	4c 8b 25 66 53 00 00 	mov    0x5366(%rip),%r12        # 14da0 <l_88.4873>
    fa3a:	4c 8b 3d 8f 6c 00 00 	mov    0x6c8f(%rip),%r15        # 166d0 <g_82>
    fa41:	48 8b 45 98          	mov    -0x68(%rbp),%rax
    fa45:	8b 00                	mov    (%rax),%eax
    fa47:	4c 63 f0             	movslq %eax,%r14
    fa4a:	48 8b 1d 77 6c 00 00 	mov    0x6c77(%rip),%rbx        # 166c8 <g_80>
    fa51:	8b 05 b1 59 00 00    	mov    0x59b1(%rip),%eax        # 15408 <g_5>
    fa57:	98                   	cwtl   
    fa58:	89 45 84             	mov    %eax,-0x7c(%rbp)
    fa5b:	8b 05 a7 59 00 00    	mov    0x59a7(%rip),%eax        # 15408 <g_5>
    fa61:	0f b6 d0             	movzbl %al,%edx
    fa64:	48 8b 45 98          	mov    -0x68(%rbp),%rax
    fa68:	8b 00                	mov    (%rax),%eax
    fa6a:	83 c8 01             	or     $0x1,%eax
    fa6d:	89 c1                	mov    %eax,%ecx
    fa6f:	48 8b 45 a0          	mov    -0x60(%rbp),%rax
    fa73:	8b 00                	mov    (%rax),%eax
    fa75:	31 c1                	xor    %eax,%ecx
    fa77:	8b 05 8b 59 00 00    	mov    0x598b(%rip),%eax        # 15408 <g_5>
    fa7d:	21 c8                	and    %ecx,%eax
    fa7f:	0f b6 c0             	movzbl %al,%eax
    fa82:	89 d6                	mov    %edx,%esi
    fa84:	89 c7                	mov    %eax,%edi
    fa86:	e8 ed 70 ff ff       	callq  6b78 <safe_sub_func_uint8_t_u_u>
    fa8b:	84 c0                	test   %al,%al
    fa8d:	0f 94 c0             	sete   %al
    fa90:	0f b6 c0             	movzbl %al,%eax
    fa93:	8b 75 84             	mov    -0x7c(%rbp),%esi
    fa96:	89 c7                	mov    %eax,%edi
    fa98:	e8 b8 69 ff ff       	callq  6455 <safe_div_func_int16_t_s_s>
    fa9d:	4c 89 f9             	mov    %r15,%rcx
    faa0:	4c 89 f2             	mov    %r14,%rdx
    faa3:	48 89 de             	mov    %rbx,%rsi
    faa6:	bf 01 00 00 00       	mov    $0x1,%edi
    faab:	e8 da 01 00 00       	callq  fc8a <func_70>
    fab0:	89 c2                	mov    %eax,%edx
    fab2:	48 8b 4d 88          	mov    -0x78(%rbp),%rcx
    fab6:	8b 05 50 59 00 00    	mov    0x5950(%rip),%eax        # 1540c <g_8>
    fabc:	48 89 ce             	mov    %rcx,%rsi
    fabf:	89 c7                	mov    %eax,%edi
    fac1:	e8 89 01 00 00       	callq  fc4f <func_66>
    fac6:	48 85 c0             	test   %rax,%rax
    fac9:	75 08                	jne    fad3 <func_49+0x126>
    facb:	48 8b 45 a0          	mov    -0x60(%rbp),%rax
    facf:	8b 00                	mov    (%rax),%eax
    fad1:	85 c0                	test   %eax,%eax
    fad3:	0f b6 05 3e 59 00 00 	movzbl 0x593e(%rip),%eax        # 15418 <g_83>
    fada:	84 c0                	test   %al,%al
    fadc:	48 8b 05 e5 6b 00 00 	mov    0x6be5(%rip),%rax        # 166c8 <g_80>
    fae3:	48 8b 10             	mov    (%rax),%rdx
    fae6:	48 8b 45 a8          	mov    -0x58(%rbp),%rax
    faea:	48 8b 00             	mov    (%rax),%rax
    faed:	48 39 c2             	cmp    %rax,%rdx
    faf0:	0f 94 c0             	sete   %al
    faf3:	0f b6 d8             	movzbl %al,%ebx
    faf6:	48 8b 45 b0          	mov    -0x50(%rbp),%rax
    fafa:	8b 10                	mov    (%rax),%edx
    fafc:	48 8b 45 88          	mov    -0x78(%rbp),%rax
    fb00:	8b 00                	mov    (%rax),%eax
    fb02:	21 c2                	and    %eax,%edx
    fb04:	48 8b 45 b0          	mov    -0x50(%rbp),%rax
    fb08:	89 10                	mov    %edx,(%rax)
    fb0a:	8b 45 94             	mov    -0x6c(%rbp),%eax
    fb0d:	89 c6                	mov    %eax,%esi
    fb0f:	bf 00 00 00 00       	mov    $0x0,%edi
    fb14:	e8 88 67 ff ff       	callq  62a1 <safe_lshift_func_int8_t_s_s>
    fb19:	44 89 e9             	mov    %r13d,%ecx
    fb1c:	4c 89 e2             	mov    %r12,%rdx
    fb1f:	89 de                	mov    %ebx,%esi
    fb21:	bf 01 00 00 00       	mov    $0x1,%edi
    fb26:	e8 42 00 00 00       	callq  fb6d <func_54>
    fb2b:	48 8b 55 a8          	mov    -0x58(%rbp),%rdx
    fb2f:	48 89 02             	mov    %rax,(%rdx)
    fb32:	48 8b 15 8f 6b 00 00 	mov    0x6b8f(%rip),%rdx        # 166c8 <g_80>
    fb39:	48 8b 05 88 6b 00 00 	mov    0x6b88(%rip),%rax        # 166c8 <g_80>
    fb40:	48 8b 12             	mov    (%rdx),%rdx
    fb43:	48 89 10             	mov    %rdx,(%rax)
    fb46:	0f b7 45 92          	movzwl -0x6e(%rbp),%eax
    fb4a:	48 8b 5d c8          	mov    -0x38(%rbp),%rbx
    fb4e:	64 48 33 1c 25 28 00 	xor    %fs:0x28,%rbx
    fb55:	00 00 
    fb57:	74 05                	je     fb5e <func_49+0x1b1>
    fb59:	e8 12 65 ff ff       	callq  6070 <__stack_chk_fail@plt>
    fb5e:	48 83 c4 58          	add    $0x58,%rsp
    fb62:	5b                   	pop    %rbx
    fb63:	41 5c                	pop    %r12
    fb65:	41 5d                	pop    %r13
    fb67:	41 5e                	pop    %r14
    fb69:	41 5f                	pop    %r15
    fb6b:	5d                   	pop    %rbp
    fb6c:	c3                   	retq   

000000000000fb6d <func_54>:
    fb6d:	f3 0f 1e fa          	endbr64 
    fb71:	55                   	push   %rbp
    fb72:	48 89 e5             	mov    %rsp,%rbp
    fb75:	48 83 c4 80          	add    $0xffffffffffffff80,%rsp
    fb79:	89 f8                	mov    %edi,%eax
    fb7b:	89 75 98             	mov    %esi,-0x68(%rbp)
    fb7e:	48 89 55 90          	mov    %rdx,-0x70(%rbp)
    fb82:	89 4d 8c             	mov    %ecx,-0x74(%rbp)
    fb85:	66 89 45 9c          	mov    %ax,-0x64(%rbp)
    fb89:	64 48 8b 04 25 28 00 	mov    %fs:0x28,%rax
    fb90:	00 00 
    fb92:	48 89 45 f8          	mov    %rax,-0x8(%rbp)
    fb96:	31 c0                	xor    %eax,%eax
    fb98:	48 b8 57 f6 df 9a 52 	movabs $0x5dcb43529adff657,%rax
    fb9f:	43 cb 5d 
    fba2:	48 89 45 b0          	mov    %rax,-0x50(%rbp)
    fba6:	c7 45 a8 f7 ff ff ff 	movl   $0xfffffff7,-0x58(%rbp)
    fbad:	48 8d 05 84 58 00 00 	lea    0x5884(%rip),%rax        # 15438 <g_87+0x18>
    fbb4:	48 89 45 b8          	mov    %rax,-0x48(%rbp)
    fbb8:	48 c7 45 c0 00 00 00 	movq   $0x0,-0x40(%rbp)
    fbbf:	00 
    fbc0:	48 c7 45 c8 00 00 00 	movq   $0x0,-0x38(%rbp)
    fbc7:	00 
    fbc8:	c7 45 ac 00 00 00 00 	movl   $0x0,-0x54(%rbp)
    fbcf:	eb 12                	jmp    fbe3 <func_54+0x76>
    fbd1:	8b 45 ac             	mov    -0x54(%rbp),%eax
    fbd4:	48 98                	cltq   
    fbd6:	48 8d 55 a8          	lea    -0x58(%rbp),%rdx
    fbda:	48 89 54 c5 d0       	mov    %rdx,-0x30(%rbp,%rax,8)
    fbdf:	83 45 ac 01          	addl   $0x1,-0x54(%rbp)
    fbe3:	83 7d ac 03          	cmpl   $0x3,-0x54(%rbp)
    fbe7:	7e e8                	jle    fbd1 <func_54+0x64>
    fbe9:	81 75 8c ff d6 21 4f 	xorl   $0x4f21d6ff,-0x74(%rbp)
    fbf0:	66 83 7d 9c 00       	cmpw   $0x0,-0x64(%rbp)
    fbf5:	74 1c                	je     fc13 <func_54+0xa6>
    fbf7:	83 7d 8c 00          	cmpl   $0x0,-0x74(%rbp)
    fbfb:	0f 94 c0             	sete   %al
    fbfe:	0f b6 c0             	movzbl %al,%eax
    fc01:	48 89 45 b0          	mov    %rax,-0x50(%rbp)
    fc05:	48 83 7d b0 00       	cmpq   $0x0,-0x50(%rbp)
    fc0a:	74 07                	je     fc13 <func_54+0xa6>
    fc0c:	ba 01 00 00 00       	mov    $0x1,%edx
    fc11:	eb 05                	jmp    fc18 <func_54+0xab>
    fc13:	ba 00 00 00 00       	mov    $0x0,%edx
    fc18:	8b 45 a8             	mov    -0x58(%rbp),%eax
    fc1b:	21 c2                	and    %eax,%edx
    fc1d:	48 8b 45 b8          	mov    -0x48(%rbp),%rax
    fc21:	89 10                	mov    %edx,(%rax)
    fc23:	48 8b 45 b8          	mov    -0x48(%rbp),%rax
    fc27:	8b 00                	mov    (%rax),%eax
    fc29:	89 05 e5 57 00 00    	mov    %eax,0x57e5(%rip)        # 15414 <g_64>
    fc2f:	48 8b 05 92 6a 00 00 	mov    0x6a92(%rip),%rax        # 166c8 <g_80>
    fc36:	48 8b 00             	mov    (%rax),%rax
    fc39:	48 8b 4d f8          	mov    -0x8(%rbp),%rcx
    fc3d:	64 48 33 0c 25 28 00 	xor    %fs:0x28,%rcx
    fc44:	00 00 
    fc46:	74 05                	je     fc4d <func_54+0xe0>
    fc48:	e8 23 64 ff ff       	callq  6070 <__stack_chk_fail@plt>
    fc4d:	c9                   	leaveq 
    fc4e:	c3                   	retq   

000000000000fc4f <func_66>:
    fc4f:	f3 0f 1e fa          	endbr64 
    fc53:	55                   	push   %rbp
    fc54:	48 89 e5             	mov    %rsp,%rbp
    fc57:	89 7d ec             	mov    %edi,-0x14(%rbp)
    fc5a:	48 89 75 e0          	mov    %rsi,-0x20(%rbp)
    fc5e:	89 55 e8             	mov    %edx,-0x18(%rbp)
    fc61:	48 c7 45 f0 00 00 00 	movq   $0x0,-0x10(%rbp)
    fc68:	00 
    fc69:	48 8d 05 c8 57 00 00 	lea    0x57c8(%rip),%rax        # 15438 <g_87+0x18>
    fc70:	48 89 45 f8          	mov    %rax,-0x8(%rbp)
    fc74:	48 8b 45 f8          	mov    -0x8(%rbp),%rax
    fc78:	8b 10                	mov    (%rax),%edx
    fc7a:	48 8b 45 f8          	mov    -0x8(%rbp),%rax
    fc7e:	89 10                	mov    %edx,(%rax)
    fc80:	8b 05 b2 57 00 00    	mov    0x57b2(%rip),%eax        # 15438 <g_87+0x18>
    fc86:	48 98                	cltq   
    fc88:	5d                   	pop    %rbp
    fc89:	c3                   	retq   

000000000000fc8a <func_70>:
    fc8a:	f3 0f 1e fa          	endbr64 
    fc8e:	55                   	push   %rbp
    fc8f:	48 89 e5             	mov    %rsp,%rbp
    fc92:	89 f8                	mov    %edi,%eax
    fc94:	48 89 75 f0          	mov    %rsi,-0x10(%rbp)
    fc98:	48 89 55 e8          	mov    %rdx,-0x18(%rbp)
    fc9c:	48 89 4d e0          	mov    %rcx,-0x20(%rbp)
    fca0:	66 89 45 fc          	mov    %ax,-0x4(%rbp)
    fca4:	8b 05 72 57 00 00    	mov    0x5772(%rip),%eax        # 1541c <g_84>
    fcaa:	5d                   	pop    %rbp
    fcab:	c3                   	retq   

000000000000fcac <main>:
    fcac:	f3 0f 1e fa          	endbr64 
    fcb0:	55                   	push   %rbp
    fcb1:	48 89 e5             	mov    %rsp,%rbp
    fcb4:	48 83 ec 20          	sub    $0x20,%rsp
    fcb8:	89 7d ec             	mov    %edi,-0x14(%rbp)
    fcbb:	48 89 75 e0          	mov    %rsi,-0x20(%rbp)
    fcbf:	c7 45 fc 00 00 00 00 	movl   $0x0,-0x4(%rbp)
    fcc6:	83 7d ec 02          	cmpl   $0x2,-0x14(%rbp)
    fcca:	75 25                	jne    fcf1 <main+0x45>
    fccc:	48 8b 45 e0          	mov    -0x20(%rbp),%rax
    fcd0:	48 83 c0 08          	add    $0x8,%rax
    fcd4:	48 8b 00             	mov    (%rax),%rax
    fcd7:	48 8d 35 e2 23 00 00 	lea    0x23e2(%rip),%rsi        # 120c0 <g_1636+0x105a>
    fcde:	48 89 c7             	mov    %rax,%rdi
    fce1:	e8 aa 63 ff ff       	callq  6090 <strcmp@plt>
    fce6:	85 c0                	test   %eax,%eax
    fce8:	75 07                	jne    fcf1 <main+0x45>
    fcea:	c7 45 fc 01 00 00 00 	movl   $0x1,-0x4(%rbp)
    fcf1:	e8 93 64 ff ff       	callq  6189 <platform_main_begin>
    fcf6:	e8 9d 78 ff ff       	callq  7598 <crc32_gentab>
    fcfb:	e8 b5 7a ff ff       	callq  77b5 <func_1>
    fd00:	8b 05 02 7d 00 00    	mov    0x7d02(%rip),%eax        # 17a08 <g_2>
    fd06:	48 98                	cltq   
    fd08:	8b 55 fc             	mov    -0x4(%rbp),%edx
    fd0b:	48 8d 35 b0 23 00 00 	lea    0x23b0(%rip),%rsi        # 120c2 <g_1636+0x105c>
    fd12:	48 89 c7             	mov    %rax,%rdi
    fd15:	e8 d9 79 ff ff       	callq  76f3 <transparent_crc>
    fd1a:	c7 45 f0 00 00 00 00 	movl   $0x0,-0x10(%rbp)
    fd21:	e9 9e 00 00 00       	jmpq   fdc4 <main+0x118>
    fd26:	c7 45 f4 00 00 00 00 	movl   $0x0,-0xc(%rbp)
    fd2d:	e9 84 00 00 00       	jmpq   fdb6 <main+0x10a>
    fd32:	c7 45 f8 00 00 00 00 	movl   $0x0,-0x8(%rbp)
    fd39:	eb 71                	jmp    fdac <main+0x100>
    fd3b:	8b 45 f8             	mov    -0x8(%rbp),%eax
    fd3e:	48 63 c8             	movslq %eax,%rcx
    fd41:	8b 45 f0             	mov    -0x10(%rbp),%eax
    fd44:	48 63 d0             	movslq %eax,%rdx
    fd47:	8b 45 f4             	mov    -0xc(%rbp),%eax
    fd4a:	48 63 f0             	movslq %eax,%rsi
    fd4d:	48 89 d0             	mov    %rdx,%rax
    fd50:	48 01 c0             	add    %rax,%rax
    fd53:	48 01 d0             	add    %rdx,%rax
    fd56:	48 01 f0             	add    %rsi,%rax
    fd59:	48 c1 e0 03          	shl    $0x3,%rax
    fd5d:	48 01 c8             	add    %rcx,%rax
    fd60:	48 8d 14 85 00 00 00 	lea    0x0(,%rax,4),%rdx
    fd67:	00 
    fd68:	48 8d 05 d1 52 00 00 	lea    0x52d1(%rip),%rax        # 15040 <g_3>
    fd6f:	8b 04 02             	mov    (%rdx,%rax,1),%eax
    fd72:	48 98                	cltq   
    fd74:	8b 55 fc             	mov    -0x4(%rbp),%edx
    fd77:	48 8d 35 48 23 00 00 	lea    0x2348(%rip),%rsi        # 120c6 <g_1636+0x1060>
    fd7e:	48 89 c7             	mov    %rax,%rdi
    fd81:	e8 6d 79 ff ff       	callq  76f3 <transparent_crc>
    fd86:	83 7d fc 00          	cmpl   $0x0,-0x4(%rbp)
    fd8a:	74 1c                	je     fda8 <main+0xfc>
    fd8c:	8b 4d f8             	mov    -0x8(%rbp),%ecx
    fd8f:	8b 55 f4             	mov    -0xc(%rbp),%edx
    fd92:	8b 45 f0             	mov    -0x10(%rbp),%eax
    fd95:	89 c6                	mov    %eax,%esi
    fd97:	48 8d 3d 35 23 00 00 	lea    0x2335(%rip),%rdi        # 120d3 <g_1636+0x106d>
    fd9e:	b8 00 00 00 00       	mov    $0x0,%eax
    fda3:	e8 d8 62 ff ff       	callq  6080 <printf@plt>
    fda8:	83 45 f8 01          	addl   $0x1,-0x8(%rbp)
    fdac:	83 7d f8 07          	cmpl   $0x7,-0x8(%rbp)
    fdb0:	7e 89                	jle    fd3b <main+0x8f>
    fdb2:	83 45 f4 01          	addl   $0x1,-0xc(%rbp)
    fdb6:	83 7d f4 02          	cmpl   $0x2,-0xc(%rbp)
    fdba:	0f 8e 72 ff ff ff    	jle    fd32 <main+0x86>
    fdc0:	83 45 f0 01          	addl   $0x1,-0x10(%rbp)
    fdc4:	83 7d f0 09          	cmpl   $0x9,-0x10(%rbp)
    fdc8:	0f 8e 58 ff ff ff    	jle    fd26 <main+0x7a>
    fdce:	c7 45 f0 00 00 00 00 	movl   $0x0,-0x10(%rbp)
    fdd5:	eb 4b                	jmp    fe22 <main+0x176>
    fdd7:	8b 45 f0             	mov    -0x10(%rbp),%eax
    fdda:	48 98                	cltq   
    fddc:	48 8d 14 85 00 00 00 	lea    0x0(,%rax,4),%rdx
    fde3:	00 
    fde4:	48 8d 05 15 56 00 00 	lea    0x5615(%rip),%rax        # 15400 <g_4>
    fdeb:	8b 04 02             	mov    (%rdx,%rax,1),%eax
    fdee:	48 98                	cltq   
    fdf0:	8b 55 fc             	mov    -0x4(%rbp),%edx
    fdf3:	48 8d 35 ef 22 00 00 	lea    0x22ef(%rip),%rsi        # 120e9 <g_1636+0x1083>
    fdfa:	48 89 c7             	mov    %rax,%rdi
    fdfd:	e8 f1 78 ff ff       	callq  76f3 <transparent_crc>
    fe02:	83 7d fc 00          	cmpl   $0x0,-0x4(%rbp)
    fe06:	74 16                	je     fe1e <main+0x172>
    fe08:	8b 45 f0             	mov    -0x10(%rbp),%eax
    fe0b:	89 c6                	mov    %eax,%esi
    fe0d:	48 8d 3d dc 22 00 00 	lea    0x22dc(%rip),%rdi        # 120f0 <g_1636+0x108a>
    fe14:	b8 00 00 00 00       	mov    $0x0,%eax
    fe19:	e8 62 62 ff ff       	callq  6080 <printf@plt>
    fe1e:	83 45 f0 01          	addl   $0x1,-0x10(%rbp)
    fe22:	83 7d f0 01          	cmpl   $0x1,-0x10(%rbp)
    fe26:	7e af                	jle    fdd7 <main+0x12b>
    fe28:	8b 05 da 55 00 00    	mov    0x55da(%rip),%eax        # 15408 <g_5>
    fe2e:	48 98                	cltq   
    fe30:	8b 55 fc             	mov    -0x4(%rbp),%edx
    fe33:	48 8d 35 c4 22 00 00 	lea    0x22c4(%rip),%rsi        # 120fe <g_1636+0x1098>
    fe3a:	48 89 c7             	mov    %rax,%rdi
    fe3d:	e8 b1 78 ff ff       	callq  76f3 <transparent_crc>
    fe42:	8b 05 c4 55 00 00    	mov    0x55c4(%rip),%eax        # 1540c <g_8>
    fe48:	48 98                	cltq   
    fe4a:	8b 55 fc             	mov    -0x4(%rbp),%edx
    fe4d:	48 8d 35 ae 22 00 00 	lea    0x22ae(%rip),%rsi        # 12102 <g_1636+0x109c>
    fe54:	48 89 c7             	mov    %rax,%rdi
    fe57:	e8 97 78 ff ff       	callq  76f3 <transparent_crc>
    fe5c:	0f b6 05 ad 55 00 00 	movzbl 0x55ad(%rip),%eax        # 15410 <g_25>
    fe63:	0f b6 c0             	movzbl %al,%eax
    fe66:	8b 55 fc             	mov    -0x4(%rbp),%edx
    fe69:	48 8d 35 96 22 00 00 	lea    0x2296(%rip),%rsi        # 12106 <g_1636+0x10a0>
    fe70:	48 89 c7             	mov    %rax,%rdi
    fe73:	e8 7b 78 ff ff       	callq  76f3 <transparent_crc>
    fe78:	8b 05 96 55 00 00    	mov    0x5596(%rip),%eax        # 15414 <g_64>
    fe7e:	48 98                	cltq   
    fe80:	8b 55 fc             	mov    -0x4(%rbp),%edx
    fe83:	48 8d 35 81 22 00 00 	lea    0x2281(%rip),%rsi        # 1210b <g_1636+0x10a5>
    fe8a:	48 89 c7             	mov    %rax,%rdi
    fe8d:	e8 61 78 ff ff       	callq  76f3 <transparent_crc>
    fe92:	0f b6 05 7f 55 00 00 	movzbl 0x557f(%rip),%eax        # 15418 <g_83>
    fe99:	0f b6 c0             	movzbl %al,%eax
    fe9c:	8b 55 fc             	mov    -0x4(%rbp),%edx
    fe9f:	48 8d 35 6a 22 00 00 	lea    0x226a(%rip),%rsi        # 12110 <g_1636+0x10aa>
    fea6:	48 89 c7             	mov    %rax,%rdi
    fea9:	e8 45 78 ff ff       	callq  76f3 <transparent_crc>
    feae:	8b 05 68 55 00 00    	mov    0x5568(%rip),%eax        # 1541c <g_84>
    feb4:	89 c1                	mov    %eax,%ecx
    feb6:	8b 45 fc             	mov    -0x4(%rbp),%eax
    feb9:	89 c2                	mov    %eax,%edx
    febb:	48 8d 35 53 22 00 00 	lea    0x2253(%rip),%rsi        # 12115 <g_1636+0x10af>
    fec2:	48 89 cf             	mov    %rcx,%rdi
    fec5:	e8 29 78 ff ff       	callq  76f3 <transparent_crc>
    feca:	8b 05 4c 55 00 00    	mov    0x554c(%rip),%eax        # 1541c <g_84>
    fed0:	48 98                	cltq   
    fed2:	8b 55 fc             	mov    -0x4(%rbp),%edx
    fed5:	48 8d 35 41 22 00 00 	lea    0x2241(%rip),%rsi        # 1211d <g_1636+0x10b7>
    fedc:	48 89 c7             	mov    %rax,%rdi
    fedf:	e8 0f 78 ff ff       	callq  76f3 <transparent_crc>
    fee4:	c7 45 f0 00 00 00 00 	movl   $0x0,-0x10(%rbp)
    feeb:	eb 77                	jmp    ff64 <main+0x2b8>
    feed:	c7 45 f4 00 00 00 00 	movl   $0x0,-0xc(%rbp)
    fef4:	eb 64                	jmp    ff5a <main+0x2ae>
    fef6:	8b 45 f4             	mov    -0xc(%rbp),%eax
    fef9:	48 63 c8             	movslq %eax,%rcx
    fefc:	8b 45 f0             	mov    -0x10(%rbp),%eax
    feff:	48 63 d0             	movslq %eax,%rdx
    ff02:	48 89 d0             	mov    %rdx,%rax
    ff05:	48 01 c0             	add    %rax,%rax
    ff08:	48 01 d0             	add    %rdx,%rax
    ff0b:	48 01 c0             	add    %rax,%rax
    ff0e:	48 01 c8             	add    %rcx,%rax
    ff11:	48 8d 14 85 00 00 00 	lea    0x0(,%rax,4),%rdx
    ff18:	00 
    ff19:	48 8d 05 00 55 00 00 	lea    0x5500(%rip),%rax        # 15420 <g_87>
    ff20:	8b 04 02             	mov    (%rdx,%rax,1),%eax
    ff23:	48 98                	cltq   
    ff25:	8b 55 fc             	mov    -0x4(%rbp),%edx
    ff28:	48 8d 35 f6 21 00 00 	lea    0x21f6(%rip),%rsi        # 12125 <g_1636+0x10bf>
    ff2f:	48 89 c7             	mov    %rax,%rdi
    ff32:	e8 bc 77 ff ff       	callq  76f3 <transparent_crc>
    ff37:	83 7d fc 00          	cmpl   $0x0,-0x4(%rbp)
    ff3b:	74 19                	je     ff56 <main+0x2aa>
    ff3d:	8b 55 f4             	mov    -0xc(%rbp),%edx
    ff40:	8b 45 f0             	mov    -0x10(%rbp),%eax
    ff43:	89 c6                	mov    %eax,%esi
    ff45:	48 8d 3d e4 21 00 00 	lea    0x21e4(%rip),%rdi        # 12130 <g_1636+0x10ca>
    ff4c:	b8 00 00 00 00       	mov    $0x0,%eax
    ff51:	e8 2a 61 ff ff       	callq  6080 <printf@plt>
    ff56:	83 45 f4 01          	addl   $0x1,-0xc(%rbp)
    ff5a:	83 7d f4 05          	cmpl   $0x5,-0xc(%rbp)
    ff5e:	7e 96                	jle    fef6 <main+0x24a>
    ff60:	83 45 f0 01          	addl   $0x1,-0x10(%rbp)
    ff64:	83 7d f0 06          	cmpl   $0x6,-0x10(%rbp)
    ff68:	7e 83                	jle    feed <main+0x241>
    ff6a:	0f b6 05 9b 7a 00 00 	movzbl 0x7a9b(%rip),%eax        # 17a0c <g_116>
    ff71:	48 0f be c0          	movsbq %al,%rax
    ff75:	8b 55 fc             	mov    -0x4(%rbp),%edx
    ff78:	48 8d 35 c3 21 00 00 	lea    0x21c3(%rip),%rsi        # 12142 <g_1636+0x10dc>
    ff7f:	48 89 c7             	mov    %rax,%rdi
    ff82:	e8 6c 77 ff ff       	callq  76f3 <transparent_crc>
    ff87:	8b 05 3b 55 00 00    	mov    0x553b(%rip),%eax        # 154c8 <g_144>
    ff8d:	89 c1                	mov    %eax,%ecx
    ff8f:	8b 45 fc             	mov    -0x4(%rbp),%eax
    ff92:	89 c2                	mov    %eax,%edx
    ff94:	48 8d 35 ad 21 00 00 	lea    0x21ad(%rip),%rsi        # 12148 <g_1636+0x10e2>
    ff9b:	48 89 cf             	mov    %rcx,%rdi
    ff9e:	e8 50 77 ff ff       	callq  76f3 <transparent_crc>
    ffa3:	0f b7 05 64 7a 00 00 	movzwl 0x7a64(%rip),%eax        # 17a0e <g_146>
    ffaa:	48 0f bf c0          	movswq %ax,%rax
    ffae:	8b 55 fc             	mov    -0x4(%rbp),%edx
    ffb1:	48 8d 35 96 21 00 00 	lea    0x2196(%rip),%rsi        # 1214e <g_1636+0x10e8>
    ffb8:	48 89 c7             	mov    %rax,%rdi
    ffbb:	e8 33 77 ff ff       	callq  76f3 <transparent_crc>
    ffc0:	48 8b 05 09 55 00 00 	mov    0x5509(%rip),%rax        # 154d0 <g_166>
    ffc7:	48 89 c1             	mov    %rax,%rcx
    ffca:	8b 45 fc             	mov    -0x4(%rbp),%eax
    ffcd:	89 c2                	mov    %eax,%edx
    ffcf:	48 8d 35 7e 21 00 00 	lea    0x217e(%rip),%rsi        # 12154 <g_1636+0x10ee>
    ffd6:	48 89 cf             	mov    %rcx,%rdi
    ffd9:	e8 15 77 ff ff       	callq  76f3 <transparent_crc>
    ffde:	48 8b 05 f3 54 00 00 	mov    0x54f3(%rip),%rax        # 154d8 <g_197>
    ffe5:	8b 55 fc             	mov    -0x4(%rbp),%edx
    ffe8:	48 8d 35 6b 21 00 00 	lea    0x216b(%rip),%rsi        # 1215a <g_1636+0x10f4>
    ffef:	48 89 c7             	mov    %rax,%rdi
    fff2:	e8 fc 76 ff ff       	callq  76f3 <transparent_crc>
    fff7:	c7 45 f0 00 00 00 00 	movl   $0x0,-0x10(%rbp)
    fffe:	eb 4d                	jmp    1004d <main+0x3a1>
   10000:	8b 45 f0             	mov    -0x10(%rbp),%eax
   10003:	48 98                	cltq   
   10005:	48 8d 14 85 00 00 00 	lea    0x0(,%rax,4),%rdx
   1000c:	00 
   1000d:	48 8d 05 cc 54 00 00 	lea    0x54cc(%rip),%rax        # 154e0 <g_202>
   10014:	8b 04 02             	mov    (%rdx,%rax,1),%eax
   10017:	89 c1                	mov    %eax,%ecx
   10019:	8b 45 fc             	mov    -0x4(%rbp),%eax
   1001c:	89 c2                	mov    %eax,%edx
   1001e:	48 8d 35 3b 21 00 00 	lea    0x213b(%rip),%rsi        # 12160 <g_1636+0x10fa>
   10025:	48 89 cf             	mov    %rcx,%rdi
   10028:	e8 c6 76 ff ff       	callq  76f3 <transparent_crc>
   1002d:	83 7d fc 00          	cmpl   $0x0,-0x4(%rbp)
   10031:	74 16                	je     10049 <main+0x39d>
   10033:	8b 45 f0             	mov    -0x10(%rbp),%eax
   10036:	89 c6                	mov    %eax,%esi
   10038:	48 8d 3d b1 20 00 00 	lea    0x20b1(%rip),%rdi        # 120f0 <g_1636+0x108a>
   1003f:	b8 00 00 00 00       	mov    $0x0,%eax
   10044:	e8 37 60 ff ff       	callq  6080 <printf@plt>
   10049:	83 45 f0 01          	addl   $0x1,-0x10(%rbp)
   1004d:	83 7d f0 07          	cmpl   $0x7,-0x10(%rbp)
   10051:	7e ad                	jle    10000 <main+0x354>
   10053:	48 c7 c1 ff ff ff ff 	mov    $0xffffffffffffffff,%rcx
   1005a:	8b 45 fc             	mov    -0x4(%rbp),%eax
   1005d:	89 c2                	mov    %eax,%edx
   1005f:	48 8d 35 03 21 00 00 	lea    0x2103(%rip),%rsi        # 12169 <g_1636+0x1103>
   10066:	48 89 cf             	mov    %rcx,%rdi
   10069:	e8 85 76 ff ff       	callq  76f3 <transparent_crc>
   1006e:	8b 05 8c 54 00 00    	mov    0x548c(%rip),%eax        # 15500 <g_223>
   10074:	89 c1                	mov    %eax,%ecx
   10076:	8b 45 fc             	mov    -0x4(%rbp),%eax
   10079:	89 c2                	mov    %eax,%edx
   1007b:	48 8d 35 ed 20 00 00 	lea    0x20ed(%rip),%rsi        # 1216f <g_1636+0x1109>
   10082:	48 89 cf             	mov    %rcx,%rdi
   10085:	e8 69 76 ff ff       	callq  76f3 <transparent_crc>
   1008a:	8b 05 74 54 00 00    	mov    0x5474(%rip),%eax        # 15504 <g_295>
   10090:	89 c1                	mov    %eax,%ecx
   10092:	8b 45 fc             	mov    -0x4(%rbp),%eax
   10095:	89 c2                	mov    %eax,%edx
   10097:	48 8d 35 d7 20 00 00 	lea    0x20d7(%rip),%rsi        # 12175 <g_1636+0x110f>
   1009e:	48 89 cf             	mov    %rcx,%rdi
   100a1:	e8 4d 76 ff ff       	callq  76f3 <transparent_crc>
   100a6:	c7 45 f0 00 00 00 00 	movl   $0x0,-0x10(%rbp)
   100ad:	eb 45                	jmp    100f4 <main+0x448>
   100af:	8b 45 f0             	mov    -0x10(%rbp),%eax
   100b2:	48 98                	cltq   
   100b4:	48 8d 15 4d 54 00 00 	lea    0x544d(%rip),%rdx        # 15508 <g_302>
   100bb:	0f b6 04 10          	movzbl (%rax,%rdx,1),%eax
   100bf:	0f b6 c0             	movzbl %al,%eax
   100c2:	8b 55 fc             	mov    -0x4(%rbp),%edx
   100c5:	48 8d 35 af 20 00 00 	lea    0x20af(%rip),%rsi        # 1217b <g_1636+0x1115>
   100cc:	48 89 c7             	mov    %rax,%rdi
   100cf:	e8 1f 76 ff ff       	callq  76f3 <transparent_crc>
   100d4:	83 7d fc 00          	cmpl   $0x0,-0x4(%rbp)
   100d8:	74 16                	je     100f0 <main+0x444>
   100da:	8b 45 f0             	mov    -0x10(%rbp),%eax
   100dd:	89 c6                	mov    %eax,%esi
   100df:	48 8d 3d 0a 20 00 00 	lea    0x200a(%rip),%rdi        # 120f0 <g_1636+0x108a>
   100e6:	b8 00 00 00 00       	mov    $0x0,%eax
   100eb:	e8 90 5f ff ff       	callq  6080 <printf@plt>
   100f0:	83 45 f0 01          	addl   $0x1,-0x10(%rbp)
   100f4:	83 7d f0 08          	cmpl   $0x8,-0x10(%rbp)
   100f8:	7e b5                	jle    100af <main+0x403>
   100fa:	0f b7 05 11 54 00 00 	movzwl 0x5411(%rip),%eax        # 15512 <g_315>
   10101:	48 0f bf c0          	movswq %ax,%rax
   10105:	8b 55 fc             	mov    -0x4(%rbp),%edx
   10108:	48 8d 35 75 20 00 00 	lea    0x2075(%rip),%rsi        # 12184 <g_1636+0x111e>
   1010f:	48 89 c7             	mov    %rax,%rdi
   10112:	e8 dc 75 ff ff       	callq  76f3 <transparent_crc>
   10117:	0f b7 05 f6 53 00 00 	movzwl 0x53f6(%rip),%eax        # 15514 <g_354>
   1011e:	0f b7 c0             	movzwl %ax,%eax
   10121:	8b 55 fc             	mov    -0x4(%rbp),%edx
   10124:	48 8d 35 5f 20 00 00 	lea    0x205f(%rip),%rsi        # 1218a <g_1636+0x1124>
   1012b:	48 89 c7             	mov    %rax,%rdi
   1012e:	e8 c0 75 ff ff       	callq  76f3 <transparent_crc>
   10133:	0f b6 05 dc 53 00 00 	movzbl 0x53dc(%rip),%eax        # 15516 <g_390>
   1013a:	0f b6 c0             	movzbl %al,%eax
   1013d:	8b 55 fc             	mov    -0x4(%rbp),%edx
   10140:	48 8d 35 49 20 00 00 	lea    0x2049(%rip),%rsi        # 12190 <g_1636+0x112a>
   10147:	48 89 c7             	mov    %rax,%rdi
   1014a:	e8 a4 75 ff ff       	callq  76f3 <transparent_crc>
   1014f:	8b 05 c3 53 00 00    	mov    0x53c3(%rip),%eax        # 15518 <g_395>
   10155:	48 98                	cltq   
   10157:	8b 55 fc             	mov    -0x4(%rbp),%edx
   1015a:	48 8d 35 35 20 00 00 	lea    0x2035(%rip),%rsi        # 12196 <g_1636+0x1130>
   10161:	48 89 c7             	mov    %rax,%rdi
   10164:	e8 8a 75 ff ff       	callq  76f3 <transparent_crc>
   10169:	c7 45 f0 00 00 00 00 	movl   $0x0,-0x10(%rbp)
   10170:	eb 45                	jmp    101b7 <main+0x50b>
   10172:	8b 45 f0             	mov    -0x10(%rbp),%eax
   10175:	48 98                	cltq   
   10177:	48 8d 15 9e 53 00 00 	lea    0x539e(%rip),%rdx        # 1551c <g_413>
   1017e:	0f b6 04 10          	movzbl (%rax,%rdx,1),%eax
   10182:	0f b6 c0             	movzbl %al,%eax
   10185:	8b 55 fc             	mov    -0x4(%rbp),%edx
   10188:	48 8d 35 0d 20 00 00 	lea    0x200d(%rip),%rsi        # 1219c <g_1636+0x1136>
   1018f:	48 89 c7             	mov    %rax,%rdi
   10192:	e8 5c 75 ff ff       	callq  76f3 <transparent_crc>
   10197:	83 7d fc 00          	cmpl   $0x0,-0x4(%rbp)
   1019b:	74 16                	je     101b3 <main+0x507>
   1019d:	8b 45 f0             	mov    -0x10(%rbp),%eax
   101a0:	89 c6                	mov    %eax,%esi
   101a2:	48 8d 3d 47 1f 00 00 	lea    0x1f47(%rip),%rdi        # 120f0 <g_1636+0x108a>
   101a9:	b8 00 00 00 00       	mov    $0x0,%eax
   101ae:	e8 cd 5e ff ff       	callq  6080 <printf@plt>
   101b3:	83 45 f0 01          	addl   $0x1,-0x10(%rbp)
   101b7:	83 7d f0 04          	cmpl   $0x4,-0x10(%rbp)
   101bb:	7e b5                	jle    10172 <main+0x4c6>
   101bd:	0f b7 05 5e 53 00 00 	movzwl 0x535e(%rip),%eax        # 15522 <g_498>
   101c4:	48 0f bf c0          	movswq %ax,%rax
   101c8:	8b 55 fc             	mov    -0x4(%rbp),%edx
   101cb:	48 8d 35 d3 1f 00 00 	lea    0x1fd3(%rip),%rsi        # 121a5 <g_1636+0x113f>
   101d2:	48 89 c7             	mov    %rax,%rdi
   101d5:	e8 19 75 ff ff       	callq  76f3 <transparent_crc>
   101da:	0f b7 05 43 53 00 00 	movzwl 0x5343(%rip),%eax        # 15524 <g_499>
   101e1:	0f b7 c0             	movzwl %ax,%eax
   101e4:	8b 55 fc             	mov    -0x4(%rbp),%edx
   101e7:	48 8d 35 bd 1f 00 00 	lea    0x1fbd(%rip),%rsi        # 121ab <g_1636+0x1145>
   101ee:	48 89 c7             	mov    %rax,%rdi
   101f1:	e8 fd 74 ff ff       	callq  76f3 <transparent_crc>
   101f6:	b8 02 00 00 00       	mov    $0x2,%eax
   101fb:	48 98                	cltq   
   101fd:	8b 55 fc             	mov    -0x4(%rbp),%edx
   10200:	48 8d 35 aa 1f 00 00 	lea    0x1faa(%rip),%rsi        # 121b1 <g_1636+0x114b>
   10207:	48 89 c7             	mov    %rax,%rdi
   1020a:	e8 e4 74 ff ff       	callq  76f3 <transparent_crc>
   1020f:	c7 45 f0 00 00 00 00 	movl   $0x0,-0x10(%rbp)
   10216:	e9 9e 00 00 00       	jmpq   102b9 <main+0x60d>
   1021b:	c7 45 f4 00 00 00 00 	movl   $0x0,-0xc(%rbp)
   10222:	e9 84 00 00 00       	jmpq   102ab <main+0x5ff>
   10227:	c7 45 f8 00 00 00 00 	movl   $0x0,-0x8(%rbp)
   1022e:	eb 71                	jmp    102a1 <main+0x5f5>
   10230:	8b 45 f8             	mov    -0x8(%rbp),%eax
   10233:	48 63 c8             	movslq %eax,%rcx
   10236:	8b 45 f0             	mov    -0x10(%rbp),%eax
   10239:	48 63 d0             	movslq %eax,%rdx
   1023c:	8b 45 f4             	mov    -0xc(%rbp),%eax
   1023f:	48 63 f0             	movslq %eax,%rsi
   10242:	48 89 d0             	mov    %rdx,%rax
   10245:	48 01 c0             	add    %rax,%rax
   10248:	48 01 d0             	add    %rdx,%rax
   1024b:	48 01 c0             	add    %rax,%rax
   1024e:	48 01 f0             	add    %rsi,%rax
   10251:	48 c1 e0 02          	shl    $0x2,%rax
   10255:	48 8d 14 08          	lea    (%rax,%rcx,1),%rdx
   10259:	48 8d 05 e0 52 00 00 	lea    0x52e0(%rip),%rax        # 15540 <g_518>
   10260:	48 01 d0             	add    %rdx,%rax
   10263:	0f b6 00             	movzbl (%rax),%eax
   10266:	0f b6 c0             	movzbl %al,%eax
   10269:	8b 55 fc             	mov    -0x4(%rbp),%edx
   1026c:	48 8d 35 44 1f 00 00 	lea    0x1f44(%rip),%rsi        # 121b7 <g_1636+0x1151>
   10273:	48 89 c7             	mov    %rax,%rdi
   10276:	e8 78 74 ff ff       	callq  76f3 <transparent_crc>
   1027b:	83 7d fc 00          	cmpl   $0x0,-0x4(%rbp)
   1027f:	74 1c                	je     1029d <main+0x5f1>
   10281:	8b 4d f8             	mov    -0x8(%rbp),%ecx
   10284:	8b 55 f4             	mov    -0xc(%rbp),%edx
   10287:	8b 45 f0             	mov    -0x10(%rbp),%eax
   1028a:	89 c6                	mov    %eax,%esi
   1028c:	48 8d 3d 40 1e 00 00 	lea    0x1e40(%rip),%rdi        # 120d3 <g_1636+0x106d>
   10293:	b8 00 00 00 00       	mov    $0x0,%eax
   10298:	e8 e3 5d ff ff       	callq  6080 <printf@plt>
   1029d:	83 45 f8 01          	addl   $0x1,-0x8(%rbp)
   102a1:	83 7d f8 03          	cmpl   $0x3,-0x8(%rbp)
   102a5:	7e 89                	jle    10230 <main+0x584>
   102a7:	83 45 f4 01          	addl   $0x1,-0xc(%rbp)
   102ab:	83 7d f4 05          	cmpl   $0x5,-0xc(%rbp)
   102af:	0f 8e 72 ff ff ff    	jle    10227 <main+0x57b>
   102b5:	83 45 f0 01          	addl   $0x1,-0x10(%rbp)
   102b9:	83 7d f0 09          	cmpl   $0x9,-0x10(%rbp)
   102bd:	0f 8e 58 ff ff ff    	jle    1021b <main+0x56f>
   102c3:	b8 ff ff ff ff       	mov    $0xffffffff,%eax
   102c8:	48 0f bf c0          	movswq %ax,%rax
   102cc:	8b 55 fc             	mov    -0x4(%rbp),%edx
   102cf:	48 8d 35 f0 1e 00 00 	lea    0x1ef0(%rip),%rsi        # 121c6 <g_1636+0x1160>
   102d6:	48 89 c7             	mov    %rax,%rdi
   102d9:	e8 15 74 ff ff       	callq  76f3 <transparent_crc>
   102de:	8b 05 4c 53 00 00    	mov    0x534c(%rip),%eax        # 15630 <g_612>
   102e4:	89 c1                	mov    %eax,%ecx
   102e6:	8b 45 fc             	mov    -0x4(%rbp),%eax
   102e9:	89 c2                	mov    %eax,%edx
   102eb:	48 8d 35 da 1e 00 00 	lea    0x1eda(%rip),%rsi        # 121cc <g_1636+0x1166>
   102f2:	48 89 cf             	mov    %rcx,%rdi
   102f5:	e8 f9 73 ff ff       	callq  76f3 <transparent_crc>
   102fa:	8b 05 30 53 00 00    	mov    0x5330(%rip),%eax        # 15630 <g_612>
   10300:	48 98                	cltq   
   10302:	8b 55 fc             	mov    -0x4(%rbp),%edx
   10305:	48 8d 35 c9 1e 00 00 	lea    0x1ec9(%rip),%rsi        # 121d5 <g_1636+0x116f>
   1030c:	48 89 c7             	mov    %rax,%rdi
   1030f:	e8 df 73 ff ff       	callq  76f3 <transparent_crc>
   10314:	48 8b 05 1d 53 00 00 	mov    0x531d(%rip),%rax        # 15638 <g_655>
   1031b:	8b 55 fc             	mov    -0x4(%rbp),%edx
   1031e:	48 8d 35 b9 1e 00 00 	lea    0x1eb9(%rip),%rsi        # 121de <g_1636+0x1178>
   10325:	48 89 c7             	mov    %rax,%rdi
   10328:	e8 c6 73 ff ff       	callq  76f3 <transparent_crc>
   1032d:	8b 05 0d 53 00 00    	mov    0x530d(%rip),%eax        # 15640 <g_659>
   10333:	48 98                	cltq   
   10335:	8b 55 fc             	mov    -0x4(%rbp),%edx
   10338:	48 8d 35 a5 1e 00 00 	lea    0x1ea5(%rip),%rsi        # 121e4 <g_1636+0x117e>
   1033f:	48 89 c7             	mov    %rax,%rdi
   10342:	e8 ac 73 ff ff       	callq  76f3 <transparent_crc>
   10347:	48 8b 05 fa 52 00 00 	mov    0x52fa(%rip),%rax        # 15648 <g_760>
   1034e:	48 89 c1             	mov    %rax,%rcx
   10351:	8b 45 fc             	mov    -0x4(%rbp),%eax
   10354:	89 c2                	mov    %eax,%edx
   10356:	48 8d 35 8d 1e 00 00 	lea    0x1e8d(%rip),%rsi        # 121ea <g_1636+0x1184>
   1035d:	48 89 cf             	mov    %rcx,%rdi
   10360:	e8 8e 73 ff ff       	callq  76f3 <transparent_crc>
   10365:	8b 05 e5 52 00 00    	mov    0x52e5(%rip),%eax        # 15650 <g_830>
   1036b:	89 c1                	mov    %eax,%ecx
   1036d:	8b 45 fc             	mov    -0x4(%rbp),%eax
   10370:	89 c2                	mov    %eax,%edx
   10372:	48 8d 35 77 1e 00 00 	lea    0x1e77(%rip),%rsi        # 121f0 <g_1636+0x118a>
   10379:	48 89 cf             	mov    %rcx,%rdi
   1037c:	e8 72 73 ff ff       	callq  76f3 <transparent_crc>
   10381:	8b 05 c9 52 00 00    	mov    0x52c9(%rip),%eax        # 15650 <g_830>
   10387:	48 98                	cltq   
   10389:	8b 55 fc             	mov    -0x4(%rbp),%edx
   1038c:	48 8d 35 66 1e 00 00 	lea    0x1e66(%rip),%rsi        # 121f9 <g_1636+0x1193>
   10393:	48 89 c7             	mov    %rax,%rdi
   10396:	e8 58 73 ff ff       	callq  76f3 <transparent_crc>
   1039b:	0f b7 05 b2 52 00 00 	movzwl 0x52b2(%rip),%eax        # 15654 <g_862>
   103a2:	48 0f bf c0          	movswq %ax,%rax
   103a6:	8b 55 fc             	mov    -0x4(%rbp),%edx
   103a9:	48 8d 35 52 1e 00 00 	lea    0x1e52(%rip),%rsi        # 12202 <g_1636+0x119c>
   103b0:	48 89 c7             	mov    %rax,%rdi
   103b3:	e8 3b 73 ff ff       	callq  76f3 <transparent_crc>
   103b8:	48 8b 05 99 52 00 00 	mov    0x5299(%rip),%rax        # 15658 <g_867>
   103bf:	48 89 c1             	mov    %rax,%rcx
   103c2:	8b 45 fc             	mov    -0x4(%rbp),%eax
   103c5:	89 c2                	mov    %eax,%edx
   103c7:	48 8d 35 3a 1e 00 00 	lea    0x1e3a(%rip),%rsi        # 12208 <g_1636+0x11a2>
   103ce:	48 89 cf             	mov    %rcx,%rdi
   103d1:	e8 1d 73 ff ff       	callq  76f3 <transparent_crc>
   103d6:	c7 45 f0 00 00 00 00 	movl   $0x0,-0x10(%rbp)
   103dd:	e9 e6 00 00 00       	jmpq   104c8 <main+0x81c>
   103e2:	c7 45 f4 00 00 00 00 	movl   $0x0,-0xc(%rbp)
   103e9:	e9 cc 00 00 00       	jmpq   104ba <main+0x80e>
   103ee:	c7 45 f8 00 00 00 00 	movl   $0x0,-0x8(%rbp)
   103f5:	e9 b2 00 00 00       	jmpq   104ac <main+0x800>
   103fa:	8b 45 f8             	mov    -0x8(%rbp),%eax
   103fd:	48 98                	cltq   
   103ff:	8b 55 f0             	mov    -0x10(%rbp),%edx
   10402:	48 63 ca             	movslq %edx,%rcx
   10405:	8b 55 f4             	mov    -0xc(%rbp),%edx
   10408:	48 63 d2             	movslq %edx,%rdx
   1040b:	48 c1 e1 03          	shl    $0x3,%rcx
   1040f:	48 01 ca             	add    %rcx,%rdx
   10412:	48 c1 e2 02          	shl    $0x2,%rdx
   10416:	48 01 d0             	add    %rdx,%rax
   10419:	48 8d 14 85 00 00 00 	lea    0x0(,%rax,4),%rdx
   10420:	00 
   10421:	48 8d 05 38 52 00 00 	lea    0x5238(%rip),%rax        # 15660 <g_906>
   10428:	8b 04 02             	mov    (%rdx,%rax,1),%eax
   1042b:	89 c1                	mov    %eax,%ecx
   1042d:	8b 45 fc             	mov    -0x4(%rbp),%eax
   10430:	89 c2                	mov    %eax,%edx
   10432:	48 8d 35 d5 1d 00 00 	lea    0x1dd5(%rip),%rsi        # 1220e <g_1636+0x11a8>
   10439:	48 89 cf             	mov    %rcx,%rdi
   1043c:	e8 b2 72 ff ff       	callq  76f3 <transparent_crc>
   10441:	8b 45 f8             	mov    -0x8(%rbp),%eax
   10444:	48 98                	cltq   
   10446:	8b 55 f0             	mov    -0x10(%rbp),%edx
   10449:	48 63 ca             	movslq %edx,%rcx
   1044c:	8b 55 f4             	mov    -0xc(%rbp),%edx
   1044f:	48 63 d2             	movslq %edx,%rdx
   10452:	48 c1 e1 03          	shl    $0x3,%rcx
   10456:	48 01 ca             	add    %rcx,%rdx
   10459:	48 c1 e2 02          	shl    $0x2,%rdx
   1045d:	48 01 d0             	add    %rdx,%rax
   10460:	48 8d 14 85 00 00 00 	lea    0x0(,%rax,4),%rdx
   10467:	00 
   10468:	48 8d 05 f1 51 00 00 	lea    0x51f1(%rip),%rax        # 15660 <g_906>
   1046f:	8b 04 02             	mov    (%rdx,%rax,1),%eax
   10472:	48 98                	cltq   
   10474:	8b 55 fc             	mov    -0x4(%rbp),%edx
   10477:	48 8d 35 a2 1d 00 00 	lea    0x1da2(%rip),%rsi        # 12220 <g_1636+0x11ba>
   1047e:	48 89 c7             	mov    %rax,%rdi
   10481:	e8 6d 72 ff ff       	callq  76f3 <transparent_crc>
   10486:	83 7d fc 00          	cmpl   $0x0,-0x4(%rbp)
   1048a:	74 1c                	je     104a8 <main+0x7fc>
   1048c:	8b 4d f8             	mov    -0x8(%rbp),%ecx
   1048f:	8b 55 f4             	mov    -0xc(%rbp),%edx
   10492:	8b 45 f0             	mov    -0x10(%rbp),%eax
   10495:	89 c6                	mov    %eax,%esi
   10497:	48 8d 3d 35 1c 00 00 	lea    0x1c35(%rip),%rdi        # 120d3 <g_1636+0x106d>
   1049e:	b8 00 00 00 00       	mov    $0x0,%eax
   104a3:	e8 d8 5b ff ff       	callq  6080 <printf@plt>
   104a8:	83 45 f8 01          	addl   $0x1,-0x8(%rbp)
   104ac:	83 7d f8 03          	cmpl   $0x3,-0x8(%rbp)
   104b0:	0f 8e 44 ff ff ff    	jle    103fa <main+0x74e>
   104b6:	83 45 f4 01          	addl   $0x1,-0xc(%rbp)
   104ba:	83 7d f4 07          	cmpl   $0x7,-0xc(%rbp)
   104be:	0f 8e 2a ff ff ff    	jle    103ee <main+0x742>
   104c4:	83 45 f0 01          	addl   $0x1,-0x10(%rbp)
   104c8:	83 7d f0 07          	cmpl   $0x7,-0x10(%rbp)
   104cc:	0f 8e 10 ff ff ff    	jle    103e2 <main+0x736>
   104d2:	48 8b 05 87 55 00 00 	mov    0x5587(%rip),%rax        # 15a60 <g_916>
   104d9:	8b 55 fc             	mov    -0x4(%rbp),%edx
   104dc:	48 8d 35 4f 1d 00 00 	lea    0x1d4f(%rip),%rsi        # 12232 <g_1636+0x11cc>
   104e3:	48 89 c7             	mov    %rax,%rdi
   104e6:	e8 08 72 ff ff       	callq  76f3 <transparent_crc>
   104eb:	8b 05 77 55 00 00    	mov    0x5577(%rip),%eax        # 15a68 <g_923>
   104f1:	48 98                	cltq   
   104f3:	8b 55 fc             	mov    -0x4(%rbp),%edx
   104f6:	48 8d 35 3b 1d 00 00 	lea    0x1d3b(%rip),%rsi        # 12238 <g_1636+0x11d2>
   104fd:	48 89 c7             	mov    %rax,%rdi
   10500:	e8 ee 71 ff ff       	callq  76f3 <transparent_crc>
   10505:	0f b6 05 0c 75 00 00 	movzbl 0x750c(%rip),%eax        # 17a18 <g_1027>
   1050c:	48 0f be c0          	movsbq %al,%rax
   10510:	8b 55 fc             	mov    -0x4(%rbp),%edx
   10513:	48 8d 35 24 1d 00 00 	lea    0x1d24(%rip),%rsi        # 1223e <g_1636+0x11d8>
   1051a:	48 89 c7             	mov    %rax,%rdi
   1051d:	e8 d1 71 ff ff       	callq  76f3 <transparent_crc>
   10522:	c7 45 f0 00 00 00 00 	movl   $0x0,-0x10(%rbp)
   10529:	e9 a7 00 00 00       	jmpq   105d5 <main+0x929>
   1052e:	c7 45 f4 00 00 00 00 	movl   $0x0,-0xc(%rbp)
   10535:	e9 8d 00 00 00       	jmpq   105c7 <main+0x91b>
   1053a:	c7 45 f8 00 00 00 00 	movl   $0x0,-0x8(%rbp)
   10541:	eb 7a                	jmp    105bd <main+0x911>
   10543:	8b 45 f8             	mov    -0x8(%rbp),%eax
   10546:	48 63 f0             	movslq %eax,%rsi
   10549:	8b 45 f0             	mov    -0x10(%rbp),%eax
   1054c:	48 63 d0             	movslq %eax,%rdx
   1054f:	8b 45 f4             	mov    -0xc(%rbp),%eax
   10552:	48 63 c8             	movslq %eax,%rcx
   10555:	48 89 d0             	mov    %rdx,%rax
   10558:	48 c1 e0 03          	shl    $0x3,%rax
   1055c:	48 29 d0             	sub    %rdx,%rax
   1055f:	48 01 c0             	add    %rax,%rax
   10562:	48 89 ca             	mov    %rcx,%rdx
   10565:	48 c1 e2 03          	shl    $0x3,%rdx
   10569:	48 29 ca             	sub    %rcx,%rdx
   1056c:	48 01 d0             	add    %rdx,%rax
   1056f:	48 01 f0             	add    %rsi,%rax
   10572:	48 8d 14 00          	lea    (%rax,%rax,1),%rdx
   10576:	48 8d 05 03 55 00 00 	lea    0x5503(%rip),%rax        # 15a80 <g_1051>
   1057d:	0f b7 04 02          	movzwl (%rdx,%rax,1),%eax
   10581:	48 0f bf c0          	movswq %ax,%rax
   10585:	8b 55 fc             	mov    -0x4(%rbp),%edx
   10588:	48 8d 35 b6 1c 00 00 	lea    0x1cb6(%rip),%rsi        # 12245 <g_1636+0x11df>
   1058f:	48 89 c7             	mov    %rax,%rdi
   10592:	e8 5c 71 ff ff       	callq  76f3 <transparent_crc>
   10597:	83 7d fc 00          	cmpl   $0x0,-0x4(%rbp)
   1059b:	74 1c                	je     105b9 <main+0x90d>
   1059d:	8b 4d f8             	mov    -0x8(%rbp),%ecx
   105a0:	8b 55 f4             	mov    -0xc(%rbp),%edx
   105a3:	8b 45 f0             	mov    -0x10(%rbp),%eax
   105a6:	89 c6                	mov    %eax,%esi
   105a8:	48 8d 3d 24 1b 00 00 	lea    0x1b24(%rip),%rdi        # 120d3 <g_1636+0x106d>
   105af:	b8 00 00 00 00       	mov    $0x0,%eax
   105b4:	e8 c7 5a ff ff       	callq  6080 <printf@plt>
   105b9:	83 45 f8 01          	addl   $0x1,-0x8(%rbp)
   105bd:	83 7d f8 06          	cmpl   $0x6,-0x8(%rbp)
   105c1:	7e 80                	jle    10543 <main+0x897>
   105c3:	83 45 f4 01          	addl   $0x1,-0xc(%rbp)
   105c7:	83 7d f4 01          	cmpl   $0x1,-0xc(%rbp)
   105cb:	0f 8e 69 ff ff ff    	jle    1053a <main+0x88e>
   105d1:	83 45 f0 01          	addl   $0x1,-0x10(%rbp)
   105d5:	83 7d f0 03          	cmpl   $0x3,-0x10(%rbp)
   105d9:	0f 8e 4f ff ff ff    	jle    1052e <main+0x882>
   105df:	0f b6 05 0a 55 00 00 	movzbl 0x550a(%rip),%eax        # 15af0 <g_1123>
   105e6:	48 0f be c0          	movsbq %al,%rax
   105ea:	8b 55 fc             	mov    -0x4(%rbp),%edx
   105ed:	48 8d 35 61 1c 00 00 	lea    0x1c61(%rip),%rsi        # 12255 <g_1636+0x11ef>
   105f4:	48 89 c7             	mov    %rax,%rdi
   105f7:	e8 f7 70 ff ff       	callq  76f3 <transparent_crc>
   105fc:	8b 05 f2 54 00 00    	mov    0x54f2(%rip),%eax        # 15af4 <g_1183>
   10602:	89 c1                	mov    %eax,%ecx
   10604:	8b 45 fc             	mov    -0x4(%rbp),%eax
   10607:	89 c2                	mov    %eax,%edx
   10609:	48 8d 35 4c 1c 00 00 	lea    0x1c4c(%rip),%rsi        # 1225c <g_1636+0x11f6>
   10610:	48 89 cf             	mov    %rcx,%rdi
   10613:	e8 db 70 ff ff       	callq  76f3 <transparent_crc>
   10618:	48 8b 05 d9 54 00 00 	mov    0x54d9(%rip),%rax        # 15af8 <g_1342>
   1061f:	8b 55 fc             	mov    -0x4(%rbp),%edx
   10622:	48 8d 35 3a 1c 00 00 	lea    0x1c3a(%rip),%rsi        # 12263 <g_1636+0x11fd>
   10629:	48 89 c7             	mov    %rax,%rdi
   1062c:	e8 c2 70 ff ff       	callq  76f3 <transparent_crc>
   10631:	8b 05 c9 54 00 00    	mov    0x54c9(%rip),%eax        # 15b00 <g_1389>
   10637:	89 c1                	mov    %eax,%ecx
   10639:	8b 45 fc             	mov    -0x4(%rbp),%eax
   1063c:	89 c2                	mov    %eax,%edx
   1063e:	48 8d 35 25 1c 00 00 	lea    0x1c25(%rip),%rsi        # 1226a <g_1636+0x1204>
   10645:	48 89 cf             	mov    %rcx,%rdi
   10648:	e8 a6 70 ff ff       	callq  76f3 <transparent_crc>
   1064d:	0f b7 05 b0 54 00 00 	movzwl 0x54b0(%rip),%eax        # 15b04 <g_1400>
   10654:	48 0f bf c0          	movswq %ax,%rax
   10658:	8b 55 fc             	mov    -0x4(%rbp),%edx
   1065b:	48 8d 35 0f 1c 00 00 	lea    0x1c0f(%rip),%rsi        # 12271 <g_1636+0x120b>
   10662:	48 89 c7             	mov    %rax,%rdi
   10665:	e8 89 70 ff ff       	callq  76f3 <transparent_crc>
   1066a:	c7 45 f0 00 00 00 00 	movl   $0x0,-0x10(%rbp)
   10671:	eb 6e                	jmp    106e1 <main+0xa35>
   10673:	c7 45 f4 00 00 00 00 	movl   $0x0,-0xc(%rbp)
   1067a:	eb 5b                	jmp    106d7 <main+0xa2b>
   1067c:	8b 45 f4             	mov    -0xc(%rbp),%eax
   1067f:	48 98                	cltq   
   10681:	8b 55 f0             	mov    -0x10(%rbp),%edx
   10684:	48 63 d2             	movslq %edx,%rdx
   10687:	48 c1 e2 02          	shl    $0x2,%rdx
   1068b:	48 01 d0             	add    %rdx,%rax
   1068e:	48 8d 14 85 00 00 00 	lea    0x0(,%rax,4),%rdx
   10695:	00 
   10696:	48 8d 05 83 54 00 00 	lea    0x5483(%rip),%rax        # 15b20 <g_1466>
   1069d:	8b 04 02             	mov    (%rdx,%rax,1),%eax
   106a0:	48 98                	cltq   
   106a2:	8b 55 fc             	mov    -0x4(%rbp),%edx
   106a5:	48 8d 35 cc 1b 00 00 	lea    0x1bcc(%rip),%rsi        # 12278 <g_1636+0x1212>
   106ac:	48 89 c7             	mov    %rax,%rdi
   106af:	e8 3f 70 ff ff       	callq  76f3 <transparent_crc>
   106b4:	83 7d fc 00          	cmpl   $0x0,-0x4(%rbp)
   106b8:	74 19                	je     106d3 <main+0xa27>
   106ba:	8b 55 f4             	mov    -0xc(%rbp),%edx
   106bd:	8b 45 f0             	mov    -0x10(%rbp),%eax
   106c0:	89 c6                	mov    %eax,%esi
   106c2:	48 8d 3d 67 1a 00 00 	lea    0x1a67(%rip),%rdi        # 12130 <g_1636+0x10ca>
   106c9:	b8 00 00 00 00       	mov    $0x0,%eax
   106ce:	e8 ad 59 ff ff       	callq  6080 <printf@plt>
   106d3:	83 45 f4 01          	addl   $0x1,-0xc(%rbp)
   106d7:	83 7d f4 03          	cmpl   $0x3,-0xc(%rbp)
   106db:	7e 9f                	jle    1067c <main+0x9d0>
   106dd:	83 45 f0 01          	addl   $0x1,-0x10(%rbp)
   106e1:	83 7d f0 01          	cmpl   $0x1,-0x10(%rbp)
   106e5:	7e 8c                	jle    10673 <main+0x9c7>
   106e7:	0f b6 05 52 54 00 00 	movzbl 0x5452(%rip),%eax        # 15b40 <g_1486>
   106ee:	0f b6 c0             	movzbl %al,%eax
   106f1:	8b 55 fc             	mov    -0x4(%rbp),%edx
   106f4:	48 8d 35 8a 1b 00 00 	lea    0x1b8a(%rip),%rsi        # 12285 <g_1636+0x121f>
   106fb:	48 89 c7             	mov    %rax,%rdi
   106fe:	e8 f0 6f ff ff       	callq  76f3 <transparent_crc>
   10703:	0f b6 05 37 54 00 00 	movzbl 0x5437(%rip),%eax        # 15b41 <g_1496>
   1070a:	48 0f be c0          	movsbq %al,%rax
   1070e:	8b 55 fc             	mov    -0x4(%rbp),%edx
   10711:	48 8d 35 74 1b 00 00 	lea    0x1b74(%rip),%rsi        # 1228c <g_1636+0x1226>
   10718:	48 89 c7             	mov    %rax,%rdi
   1071b:	e8 d3 6f ff ff       	callq  76f3 <transparent_crc>
   10720:	b8 2c c9 ff ff       	mov    $0xffffc92c,%eax
   10725:	0f b7 c0             	movzwl %ax,%eax
   10728:	8b 55 fc             	mov    -0x4(%rbp),%edx
   1072b:	48 8d 35 61 1b 00 00 	lea    0x1b61(%rip),%rsi        # 12293 <g_1636+0x122d>
   10732:	48 89 c7             	mov    %rax,%rdi
   10735:	e8 b9 6f ff ff       	callq  76f3 <transparent_crc>
   1073a:	8b 05 04 54 00 00    	mov    0x5404(%rip),%eax        # 15b44 <g_1707>
   10740:	89 c1                	mov    %eax,%ecx
   10742:	8b 45 fc             	mov    -0x4(%rbp),%eax
   10745:	89 c2                	mov    %eax,%edx
   10747:	48 8d 35 4c 1b 00 00 	lea    0x1b4c(%rip),%rsi        # 1229a <g_1636+0x1234>
   1074e:	48 89 cf             	mov    %rcx,%rdi
   10751:	e8 9d 6f ff ff       	callq  76f3 <transparent_crc>
   10756:	8b 05 ec 53 00 00    	mov    0x53ec(%rip),%eax        # 15b48 <g_1764>
   1075c:	48 98                	cltq   
   1075e:	8b 55 fc             	mov    -0x4(%rbp),%edx
   10761:	48 8d 35 39 1b 00 00 	lea    0x1b39(%rip),%rsi        # 122a1 <g_1636+0x123b>
   10768:	48 89 c7             	mov    %rax,%rdi
   1076b:	e8 83 6f ff ff       	callq  76f3 <transparent_crc>
   10770:	c7 45 f0 00 00 00 00 	movl   $0x0,-0x10(%rbp)
   10777:	e9 a0 00 00 00       	jmpq   1081c <main+0xb70>
   1077c:	c7 45 f4 00 00 00 00 	movl   $0x0,-0xc(%rbp)
   10783:	e9 86 00 00 00       	jmpq   1080e <main+0xb62>
   10788:	c7 45 f8 00 00 00 00 	movl   $0x0,-0x8(%rbp)
   1078f:	eb 73                	jmp    10804 <main+0xb58>
   10791:	8b 45 f8             	mov    -0x8(%rbp),%eax
   10794:	48 63 f0             	movslq %eax,%rsi
   10797:	8b 45 f0             	mov    -0x10(%rbp),%eax
   1079a:	48 98                	cltq   
   1079c:	8b 55 f4             	mov    -0xc(%rbp),%edx
   1079f:	48 63 ca             	movslq %edx,%rcx
   107a2:	48 89 c2             	mov    %rax,%rdx
   107a5:	48 c1 e2 03          	shl    $0x3,%rdx
   107a9:	48 01 c2             	add    %rax,%rdx
   107ac:	48 89 c8             	mov    %rcx,%rax
   107af:	48 01 c0             	add    %rax,%rax
   107b2:	48 01 c8             	add    %rcx,%rax
   107b5:	48 01 d0             	add    %rdx,%rax
   107b8:	48 8d 14 30          	lea    (%rax,%rsi,1),%rdx
   107bc:	48 8d 05 9d 53 00 00 	lea    0x539d(%rip),%rax        # 15b60 <g_1850>
   107c3:	48 01 d0             	add    %rdx,%rax
   107c6:	0f b6 00             	movzbl (%rax),%eax
   107c9:	0f b6 c0             	movzbl %al,%eax
   107cc:	8b 55 fc             	mov    -0x4(%rbp),%edx
   107cf:	48 8d 35 d2 1a 00 00 	lea    0x1ad2(%rip),%rsi        # 122a8 <g_1636+0x1242>
   107d6:	48 89 c7             	mov    %rax,%rdi
   107d9:	e8 15 6f ff ff       	callq  76f3 <transparent_crc>
   107de:	83 7d fc 00          	cmpl   $0x0,-0x4(%rbp)
   107e2:	74 1c                	je     10800 <main+0xb54>
   107e4:	8b 4d f8             	mov    -0x8(%rbp),%ecx
   107e7:	8b 55 f4             	mov    -0xc(%rbp),%edx
   107ea:	8b 45 f0             	mov    -0x10(%rbp),%eax
   107ed:	89 c6                	mov    %eax,%esi
   107ef:	48 8d 3d dd 18 00 00 	lea    0x18dd(%rip),%rdi        # 120d3 <g_1636+0x106d>
   107f6:	b8 00 00 00 00       	mov    $0x0,%eax
   107fb:	e8 80 58 ff ff       	callq  6080 <printf@plt>
   10800:	83 45 f8 01          	addl   $0x1,-0x8(%rbp)
   10804:	83 7d f8 02          	cmpl   $0x2,-0x8(%rbp)
   10808:	7e 87                	jle    10791 <main+0xae5>
   1080a:	83 45 f4 01          	addl   $0x1,-0xc(%rbp)
   1080e:	83 7d f4 02          	cmpl   $0x2,-0xc(%rbp)
   10812:	0f 8e 70 ff ff ff    	jle    10788 <main+0xadc>
   10818:	83 45 f0 01          	addl   $0x1,-0x10(%rbp)
   1081c:	83 7d f0 03          	cmpl   $0x3,-0x10(%rbp)
   10820:	0f 8e 56 ff ff ff    	jle    1077c <main+0xad0>
   10826:	8b 05 f4 47 00 00    	mov    0x47f4(%rip),%eax        # 15020 <crc32_context>
   1082c:	f7 d0                	not    %eax
   1082e:	89 c2                	mov    %eax,%edx
   10830:	8b 45 fc             	mov    -0x4(%rbp),%eax
   10833:	89 c6                	mov    %eax,%esi
   10835:	89 d7                	mov    %edx,%edi
   10837:	e8 58 59 ff ff       	callq  6194 <platform_main_end>
   1083c:	b8 00 00 00 00       	mov    $0x0,%eax
   10841:	c9                   	leaveq 
   10842:	c3                   	retq   
   10843:	66 2e 0f 1f 84 00 00 	nopw   %cs:0x0(%rax,%rax,1)
   1084a:	00 00 00 
   1084d:	0f 1f 00             	nopl   (%rax)

0000000000010850 <__libc_csu_init>:
   10850:	f3 0f 1e fa          	endbr64 
   10854:	41 57                	push   %r15
   10856:	4c 8d 3d 53 3e 00 00 	lea    0x3e53(%rip),%r15        # 146b0 <__frame_dummy_init_array_entry>
   1085d:	41 56                	push   %r14
   1085f:	49 89 d6             	mov    %rdx,%r14
   10862:	41 55                	push   %r13
   10864:	49 89 f5             	mov    %rsi,%r13
   10867:	41 54                	push   %r12
   10869:	41 89 fc             	mov    %edi,%r12d
   1086c:	55                   	push   %rbp
   1086d:	48 8d 2d 44 3e 00 00 	lea    0x3e44(%rip),%rbp        # 146b8 <__do_global_dtors_aux_fini_array_entry>
   10874:	53                   	push   %rbx
   10875:	4c 29 fd             	sub    %r15,%rbp
   10878:	48 83 ec 08          	sub    $0x8,%rsp
   1087c:	e8 7f 57 ff ff       	callq  6000 <_init>
   10881:	48 c1 fd 03          	sar    $0x3,%rbp
   10885:	74 1f                	je     108a6 <__libc_csu_init+0x56>
   10887:	31 db                	xor    %ebx,%ebx
   10889:	0f 1f 80 00 00 00 00 	nopl   0x0(%rax)
   10890:	4c 89 f2             	mov    %r14,%rdx
   10893:	4c 89 ee             	mov    %r13,%rsi
   10896:	44 89 e7             	mov    %r12d,%edi
   10899:	41 ff 14 df          	callq  *(%r15,%rbx,8)
   1089d:	48 83 c3 01          	add    $0x1,%rbx
   108a1:	48 39 dd             	cmp    %rbx,%rbp
   108a4:	75 ea                	jne    10890 <__libc_csu_init+0x40>
   108a6:	48 83 c4 08          	add    $0x8,%rsp
   108aa:	5b                   	pop    %rbx
   108ab:	5d                   	pop    %rbp
   108ac:	41 5c                	pop    %r12
   108ae:	41 5d                	pop    %r13
   108b0:	41 5e                	pop    %r14
   108b2:	41 5f                	pop    %r15
   108b4:	c3                   	retq   
   108b5:	66 66 2e 0f 1f 84 00 	data16 nopw %cs:0x0(%rax,%rax,1)
   108bc:	00 00 00 00 

00000000000108c0 <__libc_csu_fini>:
   108c0:	f3 0f 1e fa          	endbr64 
   108c4:	c3                   	retq   
