


Disassembly of section .text:

00000000000030a0 <_start>:
    30a0:	f3 0f 1e fa          	endbr64 
    30a4:	31 ed                	xor    %ebp,%ebp
    30a6:	49 89 d1             	mov    %rdx,%r9
    30a9:	5e                   	pop    %rsi
    30aa:	48 89 e2             	mov    %rsp,%rdx
    30ad:	48 83 e4 f0          	and    $0xfffffffffffffff0,%rsp
    30b1:	50                   	push   %rax
    30b2:	54                   	push   %rsp
    30b3:	4c 8d 05 66 76 00 00 	lea    0x7666(%rip),%r8        # a720 <__libc_csu_fini>
    30ba:	48 8d 0d ef 75 00 00 	lea    0x75ef(%rip),%rcx        # a6b0 <__libc_csu_init>
    30c1:	48 8d 3d f8 5c 00 00 	lea    0x5cf8(%rip),%rdi        # 8dc0 <main>
    30c8:	ff 15 12 bf 00 00    	callq  *0xbf12(%rip)        # efe0 <__libc_start_main@GLIBC_2.2.5>
    30ce:	f4                   	hlt    
    30cf:	90                   	nop

00000000000030d0 <deregister_tm_clones>:
    30d0:	48 8d 3d 21 d5 00 00 	lea    0xd521(%rip),%rdi        # 105f8 <__TMC_END__>
    30d7:	48 8d 05 1a d5 00 00 	lea    0xd51a(%rip),%rax        # 105f8 <__TMC_END__>
    30de:	48 39 f8             	cmp    %rdi,%rax
    30e1:	74 15                	je     30f8 <deregister_tm_clones+0x28>
    30e3:	48 8b 05 ee be 00 00 	mov    0xbeee(%rip),%rax        # efd8 <_ITM_deregisterTMCloneTable>
    30ea:	48 85 c0             	test   %rax,%rax
    30ed:	74 09                	je     30f8 <deregister_tm_clones+0x28>
    30ef:	ff e0                	jmpq   *%rax
    30f1:	0f 1f 80 00 00 00 00 	nopl   0x0(%rax)
    30f8:	c3                   	retq   
    30f9:	0f 1f 80 00 00 00 00 	nopl   0x0(%rax)

0000000000003100 <register_tm_clones>:
    3100:	48 8d 3d f1 d4 00 00 	lea    0xd4f1(%rip),%rdi        # 105f8 <__TMC_END__>
    3107:	48 8d 35 ea d4 00 00 	lea    0xd4ea(%rip),%rsi        # 105f8 <__TMC_END__>
    310e:	48 29 fe             	sub    %rdi,%rsi
    3111:	48 89 f0             	mov    %rsi,%rax
    3114:	48 c1 ee 3f          	shr    $0x3f,%rsi
    3118:	48 c1 f8 03          	sar    $0x3,%rax
    311c:	48 01 c6             	add    %rax,%rsi
    311f:	48 d1 fe             	sar    %rsi
    3122:	74 14                	je     3138 <register_tm_clones+0x38>
    3124:	48 8b 05 c5 be 00 00 	mov    0xbec5(%rip),%rax        # eff0 <_ITM_registerTMCloneTable>
    312b:	48 85 c0             	test   %rax,%rax
    312e:	74 08                	je     3138 <register_tm_clones+0x38>
    3130:	ff e0                	jmpq   *%rax
    3132:	66 0f 1f 44 00 00    	nopw   0x0(%rax,%rax,1)
    3138:	c3                   	retq   
    3139:	0f 1f 80 00 00 00 00 	nopl   0x0(%rax)

0000000000003140 <__do_global_dtors_aux>:
    3140:	f3 0f 1e fa          	endbr64 
    3144:	80 3d b5 d4 00 00 00 	cmpb   $0x0,0xd4b5(%rip)        # 10600 <completed.8061>
    314b:	75 2b                	jne    3178 <__do_global_dtors_aux+0x38>
    314d:	55                   	push   %rbp
    314e:	48 83 3d a2 be 00 00 	cmpq   $0x0,0xbea2(%rip)        # eff8 <__cxa_finalize@GLIBC_2.2.5>
    3155:	00 
    3156:	48 89 e5             	mov    %rsp,%rbp
    3159:	74 0c                	je     3167 <__do_global_dtors_aux+0x27>
    315b:	48 8b 3d a6 be 00 00 	mov    0xbea6(%rip),%rdi        # f008 <__dso_handle>
    3162:	e8 f9 fe ff ff       	callq  3060 <__cxa_finalize@plt>
    3167:	e8 64 ff ff ff       	callq  30d0 <deregister_tm_clones>
    316c:	c6 05 8d d4 00 00 01 	movb   $0x1,0xd48d(%rip)        # 10600 <completed.8061>
    3173:	5d                   	pop    %rbp
    3174:	c3                   	retq   
    3175:	0f 1f 00             	nopl   (%rax)
    3178:	c3                   	retq   
    3179:	0f 1f 80 00 00 00 00 	nopl   0x0(%rax)

0000000000003180 <frame_dummy>:
    3180:	f3 0f 1e fa          	endbr64 
    3184:	e9 77 ff ff ff       	jmpq   3100 <register_tm_clones>

0000000000003189 <platform_main_begin>:
    3189:	f3 0f 1e fa          	endbr64 
    318d:	55                   	push   %rbp
    318e:	48 89 e5             	mov    %rsp,%rbp
    3191:	90                   	nop
    3192:	5d                   	pop    %rbp
    3193:	c3                   	retq   

0000000000003194 <platform_main_end>:
    3194:	f3 0f 1e fa          	endbr64 
    3198:	55                   	push   %rbp
    3199:	48 89 e5             	mov    %rsp,%rbp
    319c:	48 83 ec 10          	sub    $0x10,%rsp
    31a0:	89 7d fc             	mov    %edi,-0x4(%rbp)
    31a3:	89 75 f8             	mov    %esi,-0x8(%rbp)
    31a6:	8b 45 fc             	mov    -0x4(%rbp),%eax
    31a9:	89 c6                	mov    %eax,%esi
    31ab:	48 8d 3d 6e 7e 00 00 	lea    0x7e6e(%rip),%rdi        # b020 <_IO_stdin_used+0x20>
    31b2:	b8 00 00 00 00       	mov    $0x0,%eax
    31b7:	e8 c4 fe ff ff       	callq  3080 <printf@plt>
    31bc:	90                   	nop
    31bd:	c9                   	leaveq 
    31be:	c3                   	retq   

00000000000031bf <safe_unary_minus_func_int8_t_s>:
    31bf:	f3 0f 1e fa          	endbr64 
    31c3:	55                   	push   %rbp
    31c4:	48 89 e5             	mov    %rsp,%rbp
    31c7:	89 f8                	mov    %edi,%eax
    31c9:	88 45 fc             	mov    %al,-0x4(%rbp)
    31cc:	0f b6 45 fc          	movzbl -0x4(%rbp),%eax
    31d0:	f7 d8                	neg    %eax
    31d2:	5d                   	pop    %rbp
    31d3:	c3                   	retq   

00000000000031d4 <safe_add_func_int8_t_s_s>:
    31d4:	f3 0f 1e fa          	endbr64 
    31d8:	55                   	push   %rbp
    31d9:	48 89 e5             	mov    %rsp,%rbp
    31dc:	89 fa                	mov    %edi,%edx
    31de:	89 f0                	mov    %esi,%eax
    31e0:	88 55 fc             	mov    %dl,-0x4(%rbp)
    31e3:	88 45 f8             	mov    %al,-0x8(%rbp)
    31e6:	0f b6 55 fc          	movzbl -0x4(%rbp),%edx
    31ea:	0f b6 45 f8          	movzbl -0x8(%rbp),%eax
    31ee:	01 d0                	add    %edx,%eax
    31f0:	5d                   	pop    %rbp
    31f1:	c3                   	retq   

00000000000031f2 <safe_sub_func_int8_t_s_s>:
    31f2:	f3 0f 1e fa          	endbr64 
    31f6:	55                   	push   %rbp
    31f7:	48 89 e5             	mov    %rsp,%rbp
    31fa:	89 fa                	mov    %edi,%edx
    31fc:	89 f0                	mov    %esi,%eax
    31fe:	88 55 fc             	mov    %dl,-0x4(%rbp)
    3201:	88 45 f8             	mov    %al,-0x8(%rbp)
    3204:	0f b6 55 fc          	movzbl -0x4(%rbp),%edx
    3208:	0f b6 45 f8          	movzbl -0x8(%rbp),%eax
    320c:	29 c2                	sub    %eax,%edx
    320e:	89 d0                	mov    %edx,%eax
    3210:	5d                   	pop    %rbp
    3211:	c3                   	retq   

0000000000003212 <safe_mul_func_int8_t_s_s>:
    3212:	f3 0f 1e fa          	endbr64 
    3216:	55                   	push   %rbp
    3217:	48 89 e5             	mov    %rsp,%rbp
    321a:	89 fa                	mov    %edi,%edx
    321c:	89 f0                	mov    %esi,%eax
    321e:	88 55 fc             	mov    %dl,-0x4(%rbp)
    3221:	88 45 f8             	mov    %al,-0x8(%rbp)
    3224:	0f b6 45 fc          	movzbl -0x4(%rbp),%eax
    3228:	0f b6 55 f8          	movzbl -0x8(%rbp),%edx
    322c:	0f af c2             	imul   %edx,%eax
    322f:	5d                   	pop    %rbp
    3230:	c3                   	retq   

0000000000003231 <safe_mod_func_int8_t_s_s>:
    3231:	f3 0f 1e fa          	endbr64 
    3235:	55                   	push   %rbp
    3236:	48 89 e5             	mov    %rsp,%rbp
    3239:	89 fa                	mov    %edi,%edx
    323b:	89 f0                	mov    %esi,%eax
    323d:	88 55 fc             	mov    %dl,-0x4(%rbp)
    3240:	88 45 f8             	mov    %al,-0x8(%rbp)
    3243:	80 7d f8 00          	cmpb   $0x0,-0x8(%rbp)
    3247:	74 1b                	je     3264 <safe_mod_func_int8_t_s_s+0x33>
    3249:	80 7d fc 80          	cmpb   $0x80,-0x4(%rbp)
    324d:	75 06                	jne    3255 <safe_mod_func_int8_t_s_s+0x24>
    324f:	80 7d f8 ff          	cmpb   $0xff,-0x8(%rbp)
    3253:	74 0f                	je     3264 <safe_mod_func_int8_t_s_s+0x33>
    3255:	0f be 45 fc          	movsbl -0x4(%rbp),%eax
    3259:	0f be 4d f8          	movsbl -0x8(%rbp),%ecx
    325d:	99                   	cltd   
    325e:	f7 f9                	idiv   %ecx
    3260:	89 d0                	mov    %edx,%eax
    3262:	eb 04                	jmp    3268 <safe_mod_func_int8_t_s_s+0x37>
    3264:	0f b6 45 fc          	movzbl -0x4(%rbp),%eax
    3268:	5d                   	pop    %rbp
    3269:	c3                   	retq   

000000000000326a <safe_div_func_int8_t_s_s>:
    326a:	f3 0f 1e fa          	endbr64 
    326e:	55                   	push   %rbp
    326f:	48 89 e5             	mov    %rsp,%rbp
    3272:	89 fa                	mov    %edi,%edx
    3274:	89 f0                	mov    %esi,%eax
    3276:	88 55 fc             	mov    %dl,-0x4(%rbp)
    3279:	88 45 f8             	mov    %al,-0x8(%rbp)
    327c:	80 7d f8 00          	cmpb   $0x0,-0x8(%rbp)
    3280:	74 19                	je     329b <safe_div_func_int8_t_s_s+0x31>
    3282:	80 7d fc 80          	cmpb   $0x80,-0x4(%rbp)
    3286:	75 06                	jne    328e <safe_div_func_int8_t_s_s+0x24>
    3288:	80 7d f8 ff          	cmpb   $0xff,-0x8(%rbp)
    328c:	74 0d                	je     329b <safe_div_func_int8_t_s_s+0x31>
    328e:	0f be 45 fc          	movsbl -0x4(%rbp),%eax
    3292:	0f be 4d f8          	movsbl -0x8(%rbp),%ecx
    3296:	99                   	cltd   
    3297:	f7 f9                	idiv   %ecx
    3299:	eb 04                	jmp    329f <safe_div_func_int8_t_s_s+0x35>
    329b:	0f b6 45 fc          	movzbl -0x4(%rbp),%eax
    329f:	5d                   	pop    %rbp
    32a0:	c3                   	retq   

00000000000032a1 <safe_lshift_func_int8_t_s_s>:
    32a1:	f3 0f 1e fa          	endbr64 
    32a5:	55                   	push   %rbp
    32a6:	48 89 e5             	mov    %rsp,%rbp
    32a9:	89 f8                	mov    %edi,%eax
    32ab:	89 75 f8             	mov    %esi,-0x8(%rbp)
    32ae:	88 45 fc             	mov    %al,-0x4(%rbp)
    32b1:	80 7d fc 00          	cmpb   $0x0,-0x4(%rbp)
    32b5:	78 31                	js     32e8 <safe_lshift_func_int8_t_s_s+0x47>
    32b7:	83 7d f8 00          	cmpl   $0x0,-0x8(%rbp)
    32bb:	78 2b                	js     32e8 <safe_lshift_func_int8_t_s_s+0x47>
    32bd:	83 7d f8 1f          	cmpl   $0x1f,-0x8(%rbp)
    32c1:	7f 25                	jg     32e8 <safe_lshift_func_int8_t_s_s+0x47>
    32c3:	0f be 55 fc          	movsbl -0x4(%rbp),%edx
    32c7:	8b 45 f8             	mov    -0x8(%rbp),%eax
    32ca:	be 7f 00 00 00       	mov    $0x7f,%esi
    32cf:	89 c1                	mov    %eax,%ecx
    32d1:	d3 fe                	sar    %cl,%esi
    32d3:	89 f0                	mov    %esi,%eax
    32d5:	39 c2                	cmp    %eax,%edx
    32d7:	7f 0f                	jg     32e8 <safe_lshift_func_int8_t_s_s+0x47>
    32d9:	0f be 55 fc          	movsbl -0x4(%rbp),%edx
    32dd:	8b 45 f8             	mov    -0x8(%rbp),%eax
    32e0:	89 c1                	mov    %eax,%ecx
    32e2:	d3 e2                	shl    %cl,%edx
    32e4:	89 d0                	mov    %edx,%eax
    32e6:	eb 04                	jmp    32ec <safe_lshift_func_int8_t_s_s+0x4b>
    32e8:	0f b6 45 fc          	movzbl -0x4(%rbp),%eax
    32ec:	5d                   	pop    %rbp
    32ed:	c3                   	retq   

00000000000032ee <safe_lshift_func_int8_t_s_u>:
    32ee:	f3 0f 1e fa          	endbr64 
    32f2:	55                   	push   %rbp
    32f3:	48 89 e5             	mov    %rsp,%rbp
    32f6:	89 f8                	mov    %edi,%eax
    32f8:	89 75 f8             	mov    %esi,-0x8(%rbp)
    32fb:	88 45 fc             	mov    %al,-0x4(%rbp)
    32fe:	80 7d fc 00          	cmpb   $0x0,-0x4(%rbp)
    3302:	78 2b                	js     332f <safe_lshift_func_int8_t_s_u+0x41>
    3304:	83 7d f8 1f          	cmpl   $0x1f,-0x8(%rbp)
    3308:	77 25                	ja     332f <safe_lshift_func_int8_t_s_u+0x41>
    330a:	0f be 55 fc          	movsbl -0x4(%rbp),%edx
    330e:	8b 45 f8             	mov    -0x8(%rbp),%eax
    3311:	be 7f 00 00 00       	mov    $0x7f,%esi
    3316:	89 c1                	mov    %eax,%ecx
    3318:	d3 fe                	sar    %cl,%esi
    331a:	89 f0                	mov    %esi,%eax
    331c:	39 c2                	cmp    %eax,%edx
    331e:	7f 0f                	jg     332f <safe_lshift_func_int8_t_s_u+0x41>
    3320:	0f be 55 fc          	movsbl -0x4(%rbp),%edx
    3324:	8b 45 f8             	mov    -0x8(%rbp),%eax
    3327:	89 c1                	mov    %eax,%ecx
    3329:	d3 e2                	shl    %cl,%edx
    332b:	89 d0                	mov    %edx,%eax
    332d:	eb 04                	jmp    3333 <safe_lshift_func_int8_t_s_u+0x45>
    332f:	0f b6 45 fc          	movzbl -0x4(%rbp),%eax
    3333:	5d                   	pop    %rbp
    3334:	c3                   	retq   

0000000000003335 <safe_rshift_func_int8_t_s_s>:
    3335:	f3 0f 1e fa          	endbr64 
    3339:	55                   	push   %rbp
    333a:	48 89 e5             	mov    %rsp,%rbp
    333d:	89 f8                	mov    %edi,%eax
    333f:	89 75 f8             	mov    %esi,-0x8(%rbp)
    3342:	88 45 fc             	mov    %al,-0x4(%rbp)
    3345:	80 7d fc 00          	cmpb   $0x0,-0x4(%rbp)
    3349:	78 1b                	js     3366 <safe_rshift_func_int8_t_s_s+0x31>
    334b:	83 7d f8 00          	cmpl   $0x0,-0x8(%rbp)
    334f:	78 15                	js     3366 <safe_rshift_func_int8_t_s_s+0x31>
    3351:	83 7d f8 1f          	cmpl   $0x1f,-0x8(%rbp)
    3355:	7f 0f                	jg     3366 <safe_rshift_func_int8_t_s_s+0x31>
    3357:	0f be 55 fc          	movsbl -0x4(%rbp),%edx
    335b:	8b 45 f8             	mov    -0x8(%rbp),%eax
    335e:	89 c1                	mov    %eax,%ecx
    3360:	d3 fa                	sar    %cl,%edx
    3362:	89 d0                	mov    %edx,%eax
    3364:	eb 04                	jmp    336a <safe_rshift_func_int8_t_s_s+0x35>
    3366:	0f b6 45 fc          	movzbl -0x4(%rbp),%eax
    336a:	5d                   	pop    %rbp
    336b:	c3                   	retq   

000000000000336c <safe_rshift_func_int8_t_s_u>:
    336c:	f3 0f 1e fa          	endbr64 
    3370:	55                   	push   %rbp
    3371:	48 89 e5             	mov    %rsp,%rbp
    3374:	89 f8                	mov    %edi,%eax
    3376:	89 75 f8             	mov    %esi,-0x8(%rbp)
    3379:	88 45 fc             	mov    %al,-0x4(%rbp)
    337c:	80 7d fc 00          	cmpb   $0x0,-0x4(%rbp)
    3380:	78 15                	js     3397 <safe_rshift_func_int8_t_s_u+0x2b>
    3382:	83 7d f8 1f          	cmpl   $0x1f,-0x8(%rbp)
    3386:	77 0f                	ja     3397 <safe_rshift_func_int8_t_s_u+0x2b>
    3388:	0f be 55 fc          	movsbl -0x4(%rbp),%edx
    338c:	8b 45 f8             	mov    -0x8(%rbp),%eax
    338f:	89 c1                	mov    %eax,%ecx
    3391:	d3 fa                	sar    %cl,%edx
    3393:	89 d0                	mov    %edx,%eax
    3395:	eb 04                	jmp    339b <safe_rshift_func_int8_t_s_u+0x2f>
    3397:	0f b6 45 fc          	movzbl -0x4(%rbp),%eax
    339b:	5d                   	pop    %rbp
    339c:	c3                   	retq   

000000000000339d <safe_unary_minus_func_int16_t_s>:
    339d:	f3 0f 1e fa          	endbr64 
    33a1:	55                   	push   %rbp
    33a2:	48 89 e5             	mov    %rsp,%rbp
    33a5:	89 f8                	mov    %edi,%eax
    33a7:	66 89 45 fc          	mov    %ax,-0x4(%rbp)
    33ab:	0f b7 45 fc          	movzwl -0x4(%rbp),%eax
    33af:	f7 d8                	neg    %eax
    33b1:	5d                   	pop    %rbp
    33b2:	c3                   	retq   

00000000000033b3 <safe_add_func_int16_t_s_s>:
    33b3:	f3 0f 1e fa          	endbr64 
    33b7:	55                   	push   %rbp
    33b8:	48 89 e5             	mov    %rsp,%rbp
    33bb:	89 fa                	mov    %edi,%edx
    33bd:	89 f0                	mov    %esi,%eax
    33bf:	66 89 55 fc          	mov    %dx,-0x4(%rbp)
    33c3:	66 89 45 f8          	mov    %ax,-0x8(%rbp)
    33c7:	0f b7 55 fc          	movzwl -0x4(%rbp),%edx
    33cb:	0f b7 45 f8          	movzwl -0x8(%rbp),%eax
    33cf:	01 d0                	add    %edx,%eax
    33d1:	5d                   	pop    %rbp
    33d2:	c3                   	retq   

00000000000033d3 <safe_sub_func_int16_t_s_s>:
    33d3:	f3 0f 1e fa          	endbr64 
    33d7:	55                   	push   %rbp
    33d8:	48 89 e5             	mov    %rsp,%rbp
    33db:	89 fa                	mov    %edi,%edx
    33dd:	89 f0                	mov    %esi,%eax
    33df:	66 89 55 fc          	mov    %dx,-0x4(%rbp)
    33e3:	66 89 45 f8          	mov    %ax,-0x8(%rbp)
    33e7:	0f b7 55 fc          	movzwl -0x4(%rbp),%edx
    33eb:	0f b7 45 f8          	movzwl -0x8(%rbp),%eax
    33ef:	29 c2                	sub    %eax,%edx
    33f1:	89 d0                	mov    %edx,%eax
    33f3:	5d                   	pop    %rbp
    33f4:	c3                   	retq   

00000000000033f5 <safe_mul_func_int16_t_s_s>:
    33f5:	f3 0f 1e fa          	endbr64 
    33f9:	55                   	push   %rbp
    33fa:	48 89 e5             	mov    %rsp,%rbp
    33fd:	89 fa                	mov    %edi,%edx
    33ff:	89 f0                	mov    %esi,%eax
    3401:	66 89 55 fc          	mov    %dx,-0x4(%rbp)
    3405:	66 89 45 f8          	mov    %ax,-0x8(%rbp)
    3409:	0f b7 55 fc          	movzwl -0x4(%rbp),%edx
    340d:	0f b7 45 f8          	movzwl -0x8(%rbp),%eax
    3411:	0f af c2             	imul   %edx,%eax
    3414:	5d                   	pop    %rbp
    3415:	c3                   	retq   

0000000000003416 <safe_mod_func_int16_t_s_s>:
    3416:	f3 0f 1e fa          	endbr64 
    341a:	55                   	push   %rbp
    341b:	48 89 e5             	mov    %rsp,%rbp
    341e:	89 fa                	mov    %edi,%edx
    3420:	89 f0                	mov    %esi,%eax
    3422:	66 89 55 fc          	mov    %dx,-0x4(%rbp)
    3426:	66 89 45 f8          	mov    %ax,-0x8(%rbp)
    342a:	66 83 7d f8 00       	cmpw   $0x0,-0x8(%rbp)
    342f:	74 1e                	je     344f <safe_mod_func_int16_t_s_s+0x39>
    3431:	66 81 7d fc 00 80    	cmpw   $0x8000,-0x4(%rbp)
    3437:	75 07                	jne    3440 <safe_mod_func_int16_t_s_s+0x2a>
    3439:	66 83 7d f8 ff       	cmpw   $0xffff,-0x8(%rbp)
    343e:	74 0f                	je     344f <safe_mod_func_int16_t_s_s+0x39>
    3440:	0f bf 45 fc          	movswl -0x4(%rbp),%eax
    3444:	0f bf 4d f8          	movswl -0x8(%rbp),%ecx
    3448:	99                   	cltd   
    3449:	f7 f9                	idiv   %ecx
    344b:	89 d0                	mov    %edx,%eax
    344d:	eb 04                	jmp    3453 <safe_mod_func_int16_t_s_s+0x3d>
    344f:	0f b7 45 fc          	movzwl -0x4(%rbp),%eax
    3453:	5d                   	pop    %rbp
    3454:	c3                   	retq   

0000000000003455 <safe_div_func_int16_t_s_s>:
    3455:	f3 0f 1e fa          	endbr64 
    3459:	55                   	push   %rbp
    345a:	48 89 e5             	mov    %rsp,%rbp
    345d:	89 fa                	mov    %edi,%edx
    345f:	89 f0                	mov    %esi,%eax
    3461:	66 89 55 fc          	mov    %dx,-0x4(%rbp)
    3465:	66 89 45 f8          	mov    %ax,-0x8(%rbp)
    3469:	66 83 7d f8 00       	cmpw   $0x0,-0x8(%rbp)
    346e:	74 1c                	je     348c <safe_div_func_int16_t_s_s+0x37>
    3470:	66 81 7d fc 00 80    	cmpw   $0x8000,-0x4(%rbp)
    3476:	75 07                	jne    347f <safe_div_func_int16_t_s_s+0x2a>
    3478:	66 83 7d f8 ff       	cmpw   $0xffff,-0x8(%rbp)
    347d:	74 0d                	je     348c <safe_div_func_int16_t_s_s+0x37>
    347f:	0f bf 45 fc          	movswl -0x4(%rbp),%eax
    3483:	0f bf 4d f8          	movswl -0x8(%rbp),%ecx
    3487:	99                   	cltd   
    3488:	f7 f9                	idiv   %ecx
    348a:	eb 04                	jmp    3490 <safe_div_func_int16_t_s_s+0x3b>
    348c:	0f b7 45 fc          	movzwl -0x4(%rbp),%eax
    3490:	5d                   	pop    %rbp
    3491:	c3                   	retq   

0000000000003492 <safe_lshift_func_int16_t_s_s>:
    3492:	f3 0f 1e fa          	endbr64 
    3496:	55                   	push   %rbp
    3497:	48 89 e5             	mov    %rsp,%rbp
    349a:	89 f8                	mov    %edi,%eax
    349c:	89 75 f8             	mov    %esi,-0x8(%rbp)
    349f:	66 89 45 fc          	mov    %ax,-0x4(%rbp)
    34a3:	66 83 7d fc 00       	cmpw   $0x0,-0x4(%rbp)
    34a8:	78 31                	js     34db <safe_lshift_func_int16_t_s_s+0x49>
    34aa:	83 7d f8 00          	cmpl   $0x0,-0x8(%rbp)
    34ae:	78 2b                	js     34db <safe_lshift_func_int16_t_s_s+0x49>
    34b0:	83 7d f8 1f          	cmpl   $0x1f,-0x8(%rbp)
    34b4:	7f 25                	jg     34db <safe_lshift_func_int16_t_s_s+0x49>
    34b6:	0f bf 55 fc          	movswl -0x4(%rbp),%edx
    34ba:	8b 45 f8             	mov    -0x8(%rbp),%eax
    34bd:	be ff 7f 00 00       	mov    $0x7fff,%esi
    34c2:	89 c1                	mov    %eax,%ecx
    34c4:	d3 fe                	sar    %cl,%esi
    34c6:	89 f0                	mov    %esi,%eax
    34c8:	39 c2                	cmp    %eax,%edx
    34ca:	7f 0f                	jg     34db <safe_lshift_func_int16_t_s_s+0x49>
    34cc:	0f bf 55 fc          	movswl -0x4(%rbp),%edx
    34d0:	8b 45 f8             	mov    -0x8(%rbp),%eax
    34d3:	89 c1                	mov    %eax,%ecx
    34d5:	d3 e2                	shl    %cl,%edx
    34d7:	89 d0                	mov    %edx,%eax
    34d9:	eb 04                	jmp    34df <safe_lshift_func_int16_t_s_s+0x4d>
    34db:	0f b7 45 fc          	movzwl -0x4(%rbp),%eax
    34df:	5d                   	pop    %rbp
    34e0:	c3                   	retq   

00000000000034e1 <safe_lshift_func_int16_t_s_u>:
    34e1:	f3 0f 1e fa          	endbr64 
    34e5:	55                   	push   %rbp
    34e6:	48 89 e5             	mov    %rsp,%rbp
    34e9:	89 f8                	mov    %edi,%eax
    34eb:	89 75 f8             	mov    %esi,-0x8(%rbp)
    34ee:	66 89 45 fc          	mov    %ax,-0x4(%rbp)
    34f2:	66 83 7d fc 00       	cmpw   $0x0,-0x4(%rbp)
    34f7:	78 2b                	js     3524 <safe_lshift_func_int16_t_s_u+0x43>
    34f9:	83 7d f8 1f          	cmpl   $0x1f,-0x8(%rbp)
    34fd:	77 25                	ja     3524 <safe_lshift_func_int16_t_s_u+0x43>
    34ff:	0f bf 55 fc          	movswl -0x4(%rbp),%edx
    3503:	8b 45 f8             	mov    -0x8(%rbp),%eax
    3506:	be ff 7f 00 00       	mov    $0x7fff,%esi
    350b:	89 c1                	mov    %eax,%ecx
    350d:	d3 fe                	sar    %cl,%esi
    350f:	89 f0                	mov    %esi,%eax
    3511:	39 c2                	cmp    %eax,%edx
    3513:	7f 0f                	jg     3524 <safe_lshift_func_int16_t_s_u+0x43>
    3515:	0f bf 55 fc          	movswl -0x4(%rbp),%edx
    3519:	8b 45 f8             	mov    -0x8(%rbp),%eax
    351c:	89 c1                	mov    %eax,%ecx
    351e:	d3 e2                	shl    %cl,%edx
    3520:	89 d0                	mov    %edx,%eax
    3522:	eb 04                	jmp    3528 <safe_lshift_func_int16_t_s_u+0x47>
    3524:	0f b7 45 fc          	movzwl -0x4(%rbp),%eax
    3528:	5d                   	pop    %rbp
    3529:	c3                   	retq   

000000000000352a <safe_rshift_func_int16_t_s_s>:
    352a:	f3 0f 1e fa          	endbr64 
    352e:	55                   	push   %rbp
    352f:	48 89 e5             	mov    %rsp,%rbp
    3532:	89 f8                	mov    %edi,%eax
    3534:	89 75 f8             	mov    %esi,-0x8(%rbp)
    3537:	66 89 45 fc          	mov    %ax,-0x4(%rbp)
    353b:	66 83 7d fc 00       	cmpw   $0x0,-0x4(%rbp)
    3540:	78 1b                	js     355d <safe_rshift_func_int16_t_s_s+0x33>
    3542:	83 7d f8 00          	cmpl   $0x0,-0x8(%rbp)
    3546:	78 15                	js     355d <safe_rshift_func_int16_t_s_s+0x33>
    3548:	83 7d f8 1f          	cmpl   $0x1f,-0x8(%rbp)
    354c:	7f 0f                	jg     355d <safe_rshift_func_int16_t_s_s+0x33>
    354e:	0f bf 55 fc          	movswl -0x4(%rbp),%edx
    3552:	8b 45 f8             	mov    -0x8(%rbp),%eax
    3555:	89 c1                	mov    %eax,%ecx
    3557:	d3 fa                	sar    %cl,%edx
    3559:	89 d0                	mov    %edx,%eax
    355b:	eb 04                	jmp    3561 <safe_rshift_func_int16_t_s_s+0x37>
    355d:	0f b7 45 fc          	movzwl -0x4(%rbp),%eax
    3561:	5d                   	pop    %rbp
    3562:	c3                   	retq   

0000000000003563 <safe_rshift_func_int16_t_s_u>:
    3563:	f3 0f 1e fa          	endbr64 
    3567:	55                   	push   %rbp
    3568:	48 89 e5             	mov    %rsp,%rbp
    356b:	89 f8                	mov    %edi,%eax
    356d:	89 75 f8             	mov    %esi,-0x8(%rbp)
    3570:	66 89 45 fc          	mov    %ax,-0x4(%rbp)
    3574:	66 83 7d fc 00       	cmpw   $0x0,-0x4(%rbp)
    3579:	78 15                	js     3590 <safe_rshift_func_int16_t_s_u+0x2d>
    357b:	83 7d f8 1f          	cmpl   $0x1f,-0x8(%rbp)
    357f:	77 0f                	ja     3590 <safe_rshift_func_int16_t_s_u+0x2d>
    3581:	0f bf 55 fc          	movswl -0x4(%rbp),%edx
    3585:	8b 45 f8             	mov    -0x8(%rbp),%eax
    3588:	89 c1                	mov    %eax,%ecx
    358a:	d3 fa                	sar    %cl,%edx
    358c:	89 d0                	mov    %edx,%eax
    358e:	eb 04                	jmp    3594 <safe_rshift_func_int16_t_s_u+0x31>
    3590:	0f b7 45 fc          	movzwl -0x4(%rbp),%eax
    3594:	5d                   	pop    %rbp
    3595:	c3                   	retq   

0000000000003596 <safe_unary_minus_func_int32_t_s>:
    3596:	f3 0f 1e fa          	endbr64 
    359a:	55                   	push   %rbp
    359b:	48 89 e5             	mov    %rsp,%rbp
    359e:	89 7d fc             	mov    %edi,-0x4(%rbp)
    35a1:	81 7d fc 00 00 00 80 	cmpl   $0x80000000,-0x4(%rbp)
    35a8:	74 07                	je     35b1 <safe_unary_minus_func_int32_t_s+0x1b>
    35aa:	8b 45 fc             	mov    -0x4(%rbp),%eax
    35ad:	f7 d8                	neg    %eax
    35af:	eb 03                	jmp    35b4 <safe_unary_minus_func_int32_t_s+0x1e>
    35b1:	8b 45 fc             	mov    -0x4(%rbp),%eax
    35b4:	5d                   	pop    %rbp
    35b5:	c3                   	retq   

00000000000035b6 <safe_add_func_int32_t_s_s>:
    35b6:	f3 0f 1e fa          	endbr64 
    35ba:	55                   	push   %rbp
    35bb:	48 89 e5             	mov    %rsp,%rbp
    35be:	89 7d fc             	mov    %edi,-0x4(%rbp)
    35c1:	89 75 f8             	mov    %esi,-0x8(%rbp)
    35c4:	83 7d fc 00          	cmpl   $0x0,-0x4(%rbp)
    35c8:	7e 13                	jle    35dd <safe_add_func_int32_t_s_s+0x27>
    35ca:	83 7d f8 00          	cmpl   $0x0,-0x8(%rbp)
    35ce:	7e 0d                	jle    35dd <safe_add_func_int32_t_s_s+0x27>
    35d0:	b8 ff ff ff 7f       	mov    $0x7fffffff,%eax
    35d5:	2b 45 f8             	sub    -0x8(%rbp),%eax
    35d8:	39 45 fc             	cmp    %eax,-0x4(%rbp)
    35db:	7f 23                	jg     3600 <safe_add_func_int32_t_s_s+0x4a>
    35dd:	83 7d fc 00          	cmpl   $0x0,-0x4(%rbp)
    35e1:	79 13                	jns    35f6 <safe_add_func_int32_t_s_s+0x40>
    35e3:	83 7d f8 00          	cmpl   $0x0,-0x8(%rbp)
    35e7:	79 0d                	jns    35f6 <safe_add_func_int32_t_s_s+0x40>
    35e9:	b8 00 00 00 80       	mov    $0x80000000,%eax
    35ee:	2b 45 f8             	sub    -0x8(%rbp),%eax
    35f1:	39 45 fc             	cmp    %eax,-0x4(%rbp)
    35f4:	7c 0a                	jl     3600 <safe_add_func_int32_t_s_s+0x4a>
    35f6:	8b 55 fc             	mov    -0x4(%rbp),%edx
    35f9:	8b 45 f8             	mov    -0x8(%rbp),%eax
    35fc:	01 d0                	add    %edx,%eax
    35fe:	eb 03                	jmp    3603 <safe_add_func_int32_t_s_s+0x4d>
    3600:	8b 45 fc             	mov    -0x4(%rbp),%eax
    3603:	5d                   	pop    %rbp
    3604:	c3                   	retq   

0000000000003605 <safe_sub_func_int32_t_s_s>:
    3605:	f3 0f 1e fa          	endbr64 
    3609:	55                   	push   %rbp
    360a:	48 89 e5             	mov    %rsp,%rbp
    360d:	89 7d fc             	mov    %edi,-0x4(%rbp)
    3610:	89 75 f8             	mov    %esi,-0x8(%rbp)
    3613:	8b 45 fc             	mov    -0x4(%rbp),%eax
    3616:	33 45 f8             	xor    -0x8(%rbp),%eax
    3619:	89 c2                	mov    %eax,%edx
    361b:	8b 45 fc             	mov    -0x4(%rbp),%eax
    361e:	33 45 f8             	xor    -0x8(%rbp),%eax
    3621:	25 00 00 00 80       	and    $0x80000000,%eax
    3626:	33 45 fc             	xor    -0x4(%rbp),%eax
    3629:	2b 45 f8             	sub    -0x8(%rbp),%eax
    362c:	33 45 f8             	xor    -0x8(%rbp),%eax
    362f:	21 d0                	and    %edx,%eax
    3631:	85 c0                	test   %eax,%eax
    3633:	78 08                	js     363d <safe_sub_func_int32_t_s_s+0x38>
    3635:	8b 45 fc             	mov    -0x4(%rbp),%eax
    3638:	2b 45 f8             	sub    -0x8(%rbp),%eax
    363b:	eb 03                	jmp    3640 <safe_sub_func_int32_t_s_s+0x3b>
    363d:	8b 45 fc             	mov    -0x4(%rbp),%eax
    3640:	5d                   	pop    %rbp
    3641:	c3                   	retq   

0000000000003642 <safe_mul_func_int32_t_s_s>:
    3642:	f3 0f 1e fa          	endbr64 
    3646:	55                   	push   %rbp
    3647:	48 89 e5             	mov    %rsp,%rbp
    364a:	89 7d fc             	mov    %edi,-0x4(%rbp)
    364d:	89 75 f8             	mov    %esi,-0x8(%rbp)
    3650:	83 7d fc 00          	cmpl   $0x0,-0x4(%rbp)
    3654:	7e 14                	jle    366a <safe_mul_func_int32_t_s_s+0x28>
    3656:	83 7d f8 00          	cmpl   $0x0,-0x8(%rbp)
    365a:	7e 0e                	jle    366a <safe_mul_func_int32_t_s_s+0x28>
    365c:	b8 ff ff ff 7f       	mov    $0x7fffffff,%eax
    3661:	99                   	cltd   
    3662:	f7 7d f8             	idivl  -0x8(%rbp)
    3665:	39 45 fc             	cmp    %eax,-0x4(%rbp)
    3668:	7f 5d                	jg     36c7 <safe_mul_func_int32_t_s_s+0x85>
    366a:	83 7d fc 00          	cmpl   $0x0,-0x4(%rbp)
    366e:	7e 14                	jle    3684 <safe_mul_func_int32_t_s_s+0x42>
    3670:	83 7d f8 00          	cmpl   $0x0,-0x8(%rbp)
    3674:	7f 0e                	jg     3684 <safe_mul_func_int32_t_s_s+0x42>
    3676:	b8 00 00 00 80       	mov    $0x80000000,%eax
    367b:	99                   	cltd   
    367c:	f7 7d fc             	idivl  -0x4(%rbp)
    367f:	39 45 f8             	cmp    %eax,-0x8(%rbp)
    3682:	7c 43                	jl     36c7 <safe_mul_func_int32_t_s_s+0x85>
    3684:	83 7d fc 00          	cmpl   $0x0,-0x4(%rbp)
    3688:	7f 14                	jg     369e <safe_mul_func_int32_t_s_s+0x5c>
    368a:	83 7d f8 00          	cmpl   $0x0,-0x8(%rbp)
    368e:	7e 0e                	jle    369e <safe_mul_func_int32_t_s_s+0x5c>
    3690:	b8 00 00 00 80       	mov    $0x80000000,%eax
    3695:	99                   	cltd   
    3696:	f7 7d f8             	idivl  -0x8(%rbp)
    3699:	39 45 fc             	cmp    %eax,-0x4(%rbp)
    369c:	7c 29                	jl     36c7 <safe_mul_func_int32_t_s_s+0x85>
    369e:	83 7d fc 00          	cmpl   $0x0,-0x4(%rbp)
    36a2:	7f 1a                	jg     36be <safe_mul_func_int32_t_s_s+0x7c>
    36a4:	83 7d f8 00          	cmpl   $0x0,-0x8(%rbp)
    36a8:	7f 14                	jg     36be <safe_mul_func_int32_t_s_s+0x7c>
    36aa:	83 7d fc 00          	cmpl   $0x0,-0x4(%rbp)
    36ae:	74 0e                	je     36be <safe_mul_func_int32_t_s_s+0x7c>
    36b0:	b8 ff ff ff 7f       	mov    $0x7fffffff,%eax
    36b5:	99                   	cltd   
    36b6:	f7 7d fc             	idivl  -0x4(%rbp)
    36b9:	39 45 f8             	cmp    %eax,-0x8(%rbp)
    36bc:	7c 09                	jl     36c7 <safe_mul_func_int32_t_s_s+0x85>
    36be:	8b 45 fc             	mov    -0x4(%rbp),%eax
    36c1:	0f af 45 f8          	imul   -0x8(%rbp),%eax
    36c5:	eb 03                	jmp    36ca <safe_mul_func_int32_t_s_s+0x88>
    36c7:	8b 45 fc             	mov    -0x4(%rbp),%eax
    36ca:	5d                   	pop    %rbp
    36cb:	c3                   	retq   

00000000000036cc <safe_mod_func_int32_t_s_s>:
    36cc:	f3 0f 1e fa          	endbr64 
    36d0:	55                   	push   %rbp
    36d1:	48 89 e5             	mov    %rsp,%rbp
    36d4:	89 7d fc             	mov    %edi,-0x4(%rbp)
    36d7:	89 75 f8             	mov    %esi,-0x8(%rbp)
    36da:	83 7d f8 00          	cmpl   $0x0,-0x8(%rbp)
    36de:	74 1a                	je     36fa <safe_mod_func_int32_t_s_s+0x2e>
    36e0:	81 7d fc 00 00 00 80 	cmpl   $0x80000000,-0x4(%rbp)
    36e7:	75 06                	jne    36ef <safe_mod_func_int32_t_s_s+0x23>
    36e9:	83 7d f8 ff          	cmpl   $0xffffffff,-0x8(%rbp)
    36ed:	74 0b                	je     36fa <safe_mod_func_int32_t_s_s+0x2e>
    36ef:	8b 45 fc             	mov    -0x4(%rbp),%eax
    36f2:	99                   	cltd   
    36f3:	f7 7d f8             	idivl  -0x8(%rbp)
    36f6:	89 d0                	mov    %edx,%eax
    36f8:	eb 03                	jmp    36fd <safe_mod_func_int32_t_s_s+0x31>
    36fa:	8b 45 fc             	mov    -0x4(%rbp),%eax
    36fd:	5d                   	pop    %rbp
    36fe:	c3                   	retq   

00000000000036ff <safe_div_func_int32_t_s_s>:
    36ff:	f3 0f 1e fa          	endbr64 
    3703:	55                   	push   %rbp
    3704:	48 89 e5             	mov    %rsp,%rbp
    3707:	89 7d fc             	mov    %edi,-0x4(%rbp)
    370a:	89 75 f8             	mov    %esi,-0x8(%rbp)
    370d:	83 7d f8 00          	cmpl   $0x0,-0x8(%rbp)
    3711:	74 18                	je     372b <safe_div_func_int32_t_s_s+0x2c>
    3713:	81 7d fc 00 00 00 80 	cmpl   $0x80000000,-0x4(%rbp)
    371a:	75 06                	jne    3722 <safe_div_func_int32_t_s_s+0x23>
    371c:	83 7d f8 ff          	cmpl   $0xffffffff,-0x8(%rbp)
    3720:	74 09                	je     372b <safe_div_func_int32_t_s_s+0x2c>
    3722:	8b 45 fc             	mov    -0x4(%rbp),%eax
    3725:	99                   	cltd   
    3726:	f7 7d f8             	idivl  -0x8(%rbp)
    3729:	eb 03                	jmp    372e <safe_div_func_int32_t_s_s+0x2f>
    372b:	8b 45 fc             	mov    -0x4(%rbp),%eax
    372e:	5d                   	pop    %rbp
    372f:	c3                   	retq   

0000000000003730 <safe_lshift_func_int32_t_s_s>:
    3730:	f3 0f 1e fa          	endbr64 
    3734:	55                   	push   %rbp
    3735:	48 89 e5             	mov    %rsp,%rbp
    3738:	89 7d fc             	mov    %edi,-0x4(%rbp)
    373b:	89 75 f8             	mov    %esi,-0x8(%rbp)
    373e:	83 7d fc 00          	cmpl   $0x0,-0x4(%rbp)
    3742:	78 2d                	js     3771 <safe_lshift_func_int32_t_s_s+0x41>
    3744:	83 7d f8 00          	cmpl   $0x0,-0x8(%rbp)
    3748:	78 27                	js     3771 <safe_lshift_func_int32_t_s_s+0x41>
    374a:	83 7d f8 1f          	cmpl   $0x1f,-0x8(%rbp)
    374e:	7f 21                	jg     3771 <safe_lshift_func_int32_t_s_s+0x41>
    3750:	8b 45 f8             	mov    -0x8(%rbp),%eax
    3753:	ba ff ff ff 7f       	mov    $0x7fffffff,%edx
    3758:	89 c1                	mov    %eax,%ecx
    375a:	d3 fa                	sar    %cl,%edx
    375c:	89 d0                	mov    %edx,%eax
    375e:	39 45 fc             	cmp    %eax,-0x4(%rbp)
    3761:	7f 0e                	jg     3771 <safe_lshift_func_int32_t_s_s+0x41>
    3763:	8b 45 f8             	mov    -0x8(%rbp),%eax
    3766:	8b 55 fc             	mov    -0x4(%rbp),%edx
    3769:	89 c1                	mov    %eax,%ecx
    376b:	d3 e2                	shl    %cl,%edx
    376d:	89 d0                	mov    %edx,%eax
    376f:	eb 03                	jmp    3774 <safe_lshift_func_int32_t_s_s+0x44>
    3771:	8b 45 fc             	mov    -0x4(%rbp),%eax
    3774:	5d                   	pop    %rbp
    3775:	c3                   	retq   

0000000000003776 <safe_lshift_func_int32_t_s_u>:
    3776:	f3 0f 1e fa          	endbr64 
    377a:	55                   	push   %rbp
    377b:	48 89 e5             	mov    %rsp,%rbp
    377e:	89 7d fc             	mov    %edi,-0x4(%rbp)
    3781:	89 75 f8             	mov    %esi,-0x8(%rbp)
    3784:	83 7d fc 00          	cmpl   $0x0,-0x4(%rbp)
    3788:	78 27                	js     37b1 <safe_lshift_func_int32_t_s_u+0x3b>
    378a:	83 7d f8 1f          	cmpl   $0x1f,-0x8(%rbp)
    378e:	77 21                	ja     37b1 <safe_lshift_func_int32_t_s_u+0x3b>
    3790:	8b 45 f8             	mov    -0x8(%rbp),%eax
    3793:	ba ff ff ff 7f       	mov    $0x7fffffff,%edx
    3798:	89 c1                	mov    %eax,%ecx
    379a:	d3 fa                	sar    %cl,%edx
    379c:	89 d0                	mov    %edx,%eax
    379e:	39 45 fc             	cmp    %eax,-0x4(%rbp)
    37a1:	7f 0e                	jg     37b1 <safe_lshift_func_int32_t_s_u+0x3b>
    37a3:	8b 45 f8             	mov    -0x8(%rbp),%eax
    37a6:	8b 55 fc             	mov    -0x4(%rbp),%edx
    37a9:	89 c1                	mov    %eax,%ecx
    37ab:	d3 e2                	shl    %cl,%edx
    37ad:	89 d0                	mov    %edx,%eax
    37af:	eb 03                	jmp    37b4 <safe_lshift_func_int32_t_s_u+0x3e>
    37b1:	8b 45 fc             	mov    -0x4(%rbp),%eax
    37b4:	5d                   	pop    %rbp
    37b5:	c3                   	retq   

00000000000037b6 <safe_rshift_func_int32_t_s_s>:
    37b6:	f3 0f 1e fa          	endbr64 
    37ba:	55                   	push   %rbp
    37bb:	48 89 e5             	mov    %rsp,%rbp
    37be:	89 7d fc             	mov    %edi,-0x4(%rbp)
    37c1:	89 75 f8             	mov    %esi,-0x8(%rbp)
    37c4:	83 7d fc 00          	cmpl   $0x0,-0x4(%rbp)
    37c8:	78 1a                	js     37e4 <safe_rshift_func_int32_t_s_s+0x2e>
    37ca:	83 7d f8 00          	cmpl   $0x0,-0x8(%rbp)
    37ce:	78 14                	js     37e4 <safe_rshift_func_int32_t_s_s+0x2e>
    37d0:	83 7d f8 1f          	cmpl   $0x1f,-0x8(%rbp)
    37d4:	7f 0e                	jg     37e4 <safe_rshift_func_int32_t_s_s+0x2e>
    37d6:	8b 45 f8             	mov    -0x8(%rbp),%eax
    37d9:	8b 55 fc             	mov    -0x4(%rbp),%edx
    37dc:	89 c1                	mov    %eax,%ecx
    37de:	d3 fa                	sar    %cl,%edx
    37e0:	89 d0                	mov    %edx,%eax
    37e2:	eb 03                	jmp    37e7 <safe_rshift_func_int32_t_s_s+0x31>
    37e4:	8b 45 fc             	mov    -0x4(%rbp),%eax
    37e7:	5d                   	pop    %rbp
    37e8:	c3                   	retq   

00000000000037e9 <safe_rshift_func_int32_t_s_u>:
    37e9:	f3 0f 1e fa          	endbr64 
    37ed:	55                   	push   %rbp
    37ee:	48 89 e5             	mov    %rsp,%rbp
    37f1:	89 7d fc             	mov    %edi,-0x4(%rbp)
    37f4:	89 75 f8             	mov    %esi,-0x8(%rbp)
    37f7:	83 7d fc 00          	cmpl   $0x0,-0x4(%rbp)
    37fb:	78 14                	js     3811 <safe_rshift_func_int32_t_s_u+0x28>
    37fd:	83 7d f8 1f          	cmpl   $0x1f,-0x8(%rbp)
    3801:	77 0e                	ja     3811 <safe_rshift_func_int32_t_s_u+0x28>
    3803:	8b 45 f8             	mov    -0x8(%rbp),%eax
    3806:	8b 55 fc             	mov    -0x4(%rbp),%edx
    3809:	89 c1                	mov    %eax,%ecx
    380b:	d3 fa                	sar    %cl,%edx
    380d:	89 d0                	mov    %edx,%eax
    380f:	eb 03                	jmp    3814 <safe_rshift_func_int32_t_s_u+0x2b>
    3811:	8b 45 fc             	mov    -0x4(%rbp),%eax
    3814:	5d                   	pop    %rbp
    3815:	c3                   	retq   

0000000000003816 <safe_unary_minus_func_int64_t_s>:
    3816:	f3 0f 1e fa          	endbr64 
    381a:	55                   	push   %rbp
    381b:	48 89 e5             	mov    %rsp,%rbp
    381e:	48 89 7d f8          	mov    %rdi,-0x8(%rbp)
    3822:	48 b8 00 00 00 00 00 	movabs $0x8000000000000000,%rax
    3829:	00 00 80 
    382c:	48 39 45 f8          	cmp    %rax,-0x8(%rbp)
    3830:	74 09                	je     383b <safe_unary_minus_func_int64_t_s+0x25>
    3832:	48 8b 45 f8          	mov    -0x8(%rbp),%rax
    3836:	48 f7 d8             	neg    %rax
    3839:	eb 04                	jmp    383f <safe_unary_minus_func_int64_t_s+0x29>
    383b:	48 8b 45 f8          	mov    -0x8(%rbp),%rax
    383f:	5d                   	pop    %rbp
    3840:	c3                   	retq   

0000000000003841 <safe_add_func_int64_t_s_s>:
    3841:	f3 0f 1e fa          	endbr64 
    3845:	55                   	push   %rbp
    3846:	48 89 e5             	mov    %rsp,%rbp
    3849:	48 89 7d f8          	mov    %rdi,-0x8(%rbp)
    384d:	48 89 75 f0          	mov    %rsi,-0x10(%rbp)
    3851:	48 83 7d f8 00       	cmpq   $0x0,-0x8(%rbp)
    3856:	7e 1b                	jle    3873 <safe_add_func_int64_t_s_s+0x32>
    3858:	48 83 7d f0 00       	cmpq   $0x0,-0x10(%rbp)
    385d:	7e 14                	jle    3873 <safe_add_func_int64_t_s_s+0x32>
    385f:	48 b8 ff ff ff ff ff 	movabs $0x7fffffffffffffff,%rax
    3866:	ff ff 7f 
    3869:	48 2b 45 f0          	sub    -0x10(%rbp),%rax
    386d:	48 39 45 f8          	cmp    %rax,-0x8(%rbp)
    3871:	7f 2f                	jg     38a2 <safe_add_func_int64_t_s_s+0x61>
    3873:	48 83 7d f8 00       	cmpq   $0x0,-0x8(%rbp)
    3878:	79 1b                	jns    3895 <safe_add_func_int64_t_s_s+0x54>
    387a:	48 83 7d f0 00       	cmpq   $0x0,-0x10(%rbp)
    387f:	79 14                	jns    3895 <safe_add_func_int64_t_s_s+0x54>
    3881:	48 b8 00 00 00 00 00 	movabs $0x8000000000000000,%rax
    3888:	00 00 80 
    388b:	48 2b 45 f0          	sub    -0x10(%rbp),%rax
    388f:	48 39 45 f8          	cmp    %rax,-0x8(%rbp)
    3893:	7c 0d                	jl     38a2 <safe_add_func_int64_t_s_s+0x61>
    3895:	48 8b 55 f8          	mov    -0x8(%rbp),%rdx
    3899:	48 8b 45 f0          	mov    -0x10(%rbp),%rax
    389d:	48 01 d0             	add    %rdx,%rax
    38a0:	eb 04                	jmp    38a6 <safe_add_func_int64_t_s_s+0x65>
    38a2:	48 8b 45 f8          	mov    -0x8(%rbp),%rax
    38a6:	5d                   	pop    %rbp
    38a7:	c3                   	retq   

00000000000038a8 <safe_sub_func_int64_t_s_s>:
    38a8:	f3 0f 1e fa          	endbr64 
    38ac:	55                   	push   %rbp
    38ad:	48 89 e5             	mov    %rsp,%rbp
    38b0:	48 89 7d f8          	mov    %rdi,-0x8(%rbp)
    38b4:	48 89 75 f0          	mov    %rsi,-0x10(%rbp)
    38b8:	48 8b 45 f8          	mov    -0x8(%rbp),%rax
    38bc:	48 33 45 f0          	xor    -0x10(%rbp),%rax
    38c0:	48 89 c2             	mov    %rax,%rdx
    38c3:	48 8b 45 f8          	mov    -0x8(%rbp),%rax
    38c7:	48 33 45 f0          	xor    -0x10(%rbp),%rax
    38cb:	48 b9 00 00 00 00 00 	movabs $0x8000000000000000,%rcx
    38d2:	00 00 80 
    38d5:	48 21 c8             	and    %rcx,%rax
    38d8:	48 33 45 f8          	xor    -0x8(%rbp),%rax
    38dc:	48 2b 45 f0          	sub    -0x10(%rbp),%rax
    38e0:	48 33 45 f0          	xor    -0x10(%rbp),%rax
    38e4:	48 21 d0             	and    %rdx,%rax
    38e7:	48 85 c0             	test   %rax,%rax
    38ea:	78 0a                	js     38f6 <safe_sub_func_int64_t_s_s+0x4e>
    38ec:	48 8b 45 f8          	mov    -0x8(%rbp),%rax
    38f0:	48 2b 45 f0          	sub    -0x10(%rbp),%rax
    38f4:	eb 04                	jmp    38fa <safe_sub_func_int64_t_s_s+0x52>
    38f6:	48 8b 45 f8          	mov    -0x8(%rbp),%rax
    38fa:	5d                   	pop    %rbp
    38fb:	c3                   	retq   

00000000000038fc <safe_mul_func_int64_t_s_s>:
    38fc:	f3 0f 1e fa          	endbr64 
    3900:	55                   	push   %rbp
    3901:	48 89 e5             	mov    %rsp,%rbp
    3904:	48 89 7d f8          	mov    %rdi,-0x8(%rbp)
    3908:	48 89 75 f0          	mov    %rsi,-0x10(%rbp)
    390c:	48 83 7d f8 00       	cmpq   $0x0,-0x8(%rbp)
    3911:	7e 1d                	jle    3930 <safe_mul_func_int64_t_s_s+0x34>
    3913:	48 83 7d f0 00       	cmpq   $0x0,-0x10(%rbp)
    3918:	7e 16                	jle    3930 <safe_mul_func_int64_t_s_s+0x34>
    391a:	48 b8 ff ff ff ff ff 	movabs $0x7fffffffffffffff,%rax
    3921:	ff ff 7f 
    3924:	48 99                	cqto   
    3926:	48 f7 7d f0          	idivq  -0x10(%rbp)
    392a:	48 39 45 f8          	cmp    %rax,-0x8(%rbp)
    392e:	7f 7e                	jg     39ae <safe_mul_func_int64_t_s_s+0xb2>
    3930:	48 83 7d f8 00       	cmpq   $0x0,-0x8(%rbp)
    3935:	7e 1d                	jle    3954 <safe_mul_func_int64_t_s_s+0x58>
    3937:	48 83 7d f0 00       	cmpq   $0x0,-0x10(%rbp)
    393c:	7f 16                	jg     3954 <safe_mul_func_int64_t_s_s+0x58>
    393e:	48 b8 00 00 00 00 00 	movabs $0x8000000000000000,%rax
    3945:	00 00 80 
    3948:	48 99                	cqto   
    394a:	48 f7 7d f8          	idivq  -0x8(%rbp)
    394e:	48 39 45 f0          	cmp    %rax,-0x10(%rbp)
    3952:	7c 5a                	jl     39ae <safe_mul_func_int64_t_s_s+0xb2>
    3954:	48 83 7d f8 00       	cmpq   $0x0,-0x8(%rbp)
    3959:	7f 1d                	jg     3978 <safe_mul_func_int64_t_s_s+0x7c>
    395b:	48 83 7d f0 00       	cmpq   $0x0,-0x10(%rbp)
    3960:	7e 16                	jle    3978 <safe_mul_func_int64_t_s_s+0x7c>
    3962:	48 b8 00 00 00 00 00 	movabs $0x8000000000000000,%rax
    3969:	00 00 80 
    396c:	48 99                	cqto   
    396e:	48 f7 7d f0          	idivq  -0x10(%rbp)
    3972:	48 39 45 f8          	cmp    %rax,-0x8(%rbp)
    3976:	7c 36                	jl     39ae <safe_mul_func_int64_t_s_s+0xb2>
    3978:	48 83 7d f8 00       	cmpq   $0x0,-0x8(%rbp)
    397d:	7f 24                	jg     39a3 <safe_mul_func_int64_t_s_s+0xa7>
    397f:	48 83 7d f0 00       	cmpq   $0x0,-0x10(%rbp)
    3984:	7f 1d                	jg     39a3 <safe_mul_func_int64_t_s_s+0xa7>
    3986:	48 83 7d f8 00       	cmpq   $0x0,-0x8(%rbp)
    398b:	74 16                	je     39a3 <safe_mul_func_int64_t_s_s+0xa7>
    398d:	48 b8 ff ff ff ff ff 	movabs $0x7fffffffffffffff,%rax
    3994:	ff ff 7f 
    3997:	48 99                	cqto   
    3999:	48 f7 7d f8          	idivq  -0x8(%rbp)
    399d:	48 39 45 f0          	cmp    %rax,-0x10(%rbp)
    39a1:	7c 0b                	jl     39ae <safe_mul_func_int64_t_s_s+0xb2>
    39a3:	48 8b 45 f8          	mov    -0x8(%rbp),%rax
    39a7:	48 0f af 45 f0       	imul   -0x10(%rbp),%rax
    39ac:	eb 04                	jmp    39b2 <safe_mul_func_int64_t_s_s+0xb6>
    39ae:	48 8b 45 f8          	mov    -0x8(%rbp),%rax
    39b2:	5d                   	pop    %rbp
    39b3:	c3                   	retq   

00000000000039b4 <safe_mod_func_int64_t_s_s>:
    39b4:	f3 0f 1e fa          	endbr64 
    39b8:	55                   	push   %rbp
    39b9:	48 89 e5             	mov    %rsp,%rbp
    39bc:	48 89 7d f8          	mov    %rdi,-0x8(%rbp)
    39c0:	48 89 75 f0          	mov    %rsi,-0x10(%rbp)
    39c4:	48 83 7d f0 00       	cmpq   $0x0,-0x10(%rbp)
    39c9:	74 26                	je     39f1 <safe_mod_func_int64_t_s_s+0x3d>
    39cb:	48 b8 00 00 00 00 00 	movabs $0x8000000000000000,%rax
    39d2:	00 00 80 
    39d5:	48 39 45 f8          	cmp    %rax,-0x8(%rbp)
    39d9:	75 07                	jne    39e2 <safe_mod_func_int64_t_s_s+0x2e>
    39db:	48 83 7d f0 ff       	cmpq   $0xffffffffffffffff,-0x10(%rbp)
    39e0:	74 0f                	je     39f1 <safe_mod_func_int64_t_s_s+0x3d>
    39e2:	48 8b 45 f8          	mov    -0x8(%rbp),%rax
    39e6:	48 99                	cqto   
    39e8:	48 f7 7d f0          	idivq  -0x10(%rbp)
    39ec:	48 89 d0             	mov    %rdx,%rax
    39ef:	eb 04                	jmp    39f5 <safe_mod_func_int64_t_s_s+0x41>
    39f1:	48 8b 45 f8          	mov    -0x8(%rbp),%rax
    39f5:	5d                   	pop    %rbp
    39f6:	c3                   	retq   

00000000000039f7 <safe_div_func_int64_t_s_s>:
    39f7:	f3 0f 1e fa          	endbr64 
    39fb:	55                   	push   %rbp
    39fc:	48 89 e5             	mov    %rsp,%rbp
    39ff:	48 89 7d f8          	mov    %rdi,-0x8(%rbp)
    3a03:	48 89 75 f0          	mov    %rsi,-0x10(%rbp)
    3a07:	48 83 7d f0 00       	cmpq   $0x0,-0x10(%rbp)
    3a0c:	74 23                	je     3a31 <safe_div_func_int64_t_s_s+0x3a>
    3a0e:	48 b8 00 00 00 00 00 	movabs $0x8000000000000000,%rax
    3a15:	00 00 80 
    3a18:	48 39 45 f8          	cmp    %rax,-0x8(%rbp)
    3a1c:	75 07                	jne    3a25 <safe_div_func_int64_t_s_s+0x2e>
    3a1e:	48 83 7d f0 ff       	cmpq   $0xffffffffffffffff,-0x10(%rbp)
    3a23:	74 0c                	je     3a31 <safe_div_func_int64_t_s_s+0x3a>
    3a25:	48 8b 45 f8          	mov    -0x8(%rbp),%rax
    3a29:	48 99                	cqto   
    3a2b:	48 f7 7d f0          	idivq  -0x10(%rbp)
    3a2f:	eb 04                	jmp    3a35 <safe_div_func_int64_t_s_s+0x3e>
    3a31:	48 8b 45 f8          	mov    -0x8(%rbp),%rax
    3a35:	5d                   	pop    %rbp
    3a36:	c3                   	retq   

0000000000003a37 <safe_lshift_func_int64_t_s_s>:
    3a37:	f3 0f 1e fa          	endbr64 
    3a3b:	55                   	push   %rbp
    3a3c:	48 89 e5             	mov    %rsp,%rbp
    3a3f:	48 89 7d f8          	mov    %rdi,-0x8(%rbp)
    3a43:	89 75 f4             	mov    %esi,-0xc(%rbp)
    3a46:	48 83 7d f8 00       	cmpq   $0x0,-0x8(%rbp)
    3a4b:	78 38                	js     3a85 <safe_lshift_func_int64_t_s_s+0x4e>
    3a4d:	83 7d f4 00          	cmpl   $0x0,-0xc(%rbp)
    3a51:	78 32                	js     3a85 <safe_lshift_func_int64_t_s_s+0x4e>
    3a53:	83 7d f4 1f          	cmpl   $0x1f,-0xc(%rbp)
    3a57:	7f 2c                	jg     3a85 <safe_lshift_func_int64_t_s_s+0x4e>
    3a59:	8b 45 f4             	mov    -0xc(%rbp),%eax
    3a5c:	48 ba ff ff ff ff ff 	movabs $0x7fffffffffffffff,%rdx
    3a63:	ff ff 7f 
    3a66:	89 c1                	mov    %eax,%ecx
    3a68:	48 d3 fa             	sar    %cl,%rdx
    3a6b:	48 89 d0             	mov    %rdx,%rax
    3a6e:	48 39 45 f8          	cmp    %rax,-0x8(%rbp)
    3a72:	7f 11                	jg     3a85 <safe_lshift_func_int64_t_s_s+0x4e>
    3a74:	8b 45 f4             	mov    -0xc(%rbp),%eax
    3a77:	48 8b 55 f8          	mov    -0x8(%rbp),%rdx
    3a7b:	89 c1                	mov    %eax,%ecx
    3a7d:	48 d3 e2             	shl    %cl,%rdx
    3a80:	48 89 d0             	mov    %rdx,%rax
    3a83:	eb 04                	jmp    3a89 <safe_lshift_func_int64_t_s_s+0x52>
    3a85:	48 8b 45 f8          	mov    -0x8(%rbp),%rax
    3a89:	5d                   	pop    %rbp
    3a8a:	c3                   	retq   

0000000000003a8b <safe_lshift_func_int64_t_s_u>:
    3a8b:	f3 0f 1e fa          	endbr64 
    3a8f:	55                   	push   %rbp
    3a90:	48 89 e5             	mov    %rsp,%rbp
    3a93:	48 89 7d f8          	mov    %rdi,-0x8(%rbp)
    3a97:	89 75 f4             	mov    %esi,-0xc(%rbp)
    3a9a:	48 83 7d f8 00       	cmpq   $0x0,-0x8(%rbp)
    3a9f:	78 32                	js     3ad3 <safe_lshift_func_int64_t_s_u+0x48>
    3aa1:	83 7d f4 1f          	cmpl   $0x1f,-0xc(%rbp)
    3aa5:	77 2c                	ja     3ad3 <safe_lshift_func_int64_t_s_u+0x48>
    3aa7:	8b 45 f4             	mov    -0xc(%rbp),%eax
    3aaa:	48 ba ff ff ff ff ff 	movabs $0x7fffffffffffffff,%rdx
    3ab1:	ff ff 7f 
    3ab4:	89 c1                	mov    %eax,%ecx
    3ab6:	48 d3 fa             	sar    %cl,%rdx
    3ab9:	48 89 d0             	mov    %rdx,%rax
    3abc:	48 39 45 f8          	cmp    %rax,-0x8(%rbp)
    3ac0:	7f 11                	jg     3ad3 <safe_lshift_func_int64_t_s_u+0x48>
    3ac2:	8b 45 f4             	mov    -0xc(%rbp),%eax
    3ac5:	48 8b 55 f8          	mov    -0x8(%rbp),%rdx
    3ac9:	89 c1                	mov    %eax,%ecx
    3acb:	48 d3 e2             	shl    %cl,%rdx
    3ace:	48 89 d0             	mov    %rdx,%rax
    3ad1:	eb 04                	jmp    3ad7 <safe_lshift_func_int64_t_s_u+0x4c>
    3ad3:	48 8b 45 f8          	mov    -0x8(%rbp),%rax
    3ad7:	5d                   	pop    %rbp
    3ad8:	c3                   	retq   

0000000000003ad9 <safe_rshift_func_int64_t_s_s>:
    3ad9:	f3 0f 1e fa          	endbr64 
    3add:	55                   	push   %rbp
    3ade:	48 89 e5             	mov    %rsp,%rbp
    3ae1:	48 89 7d f8          	mov    %rdi,-0x8(%rbp)
    3ae5:	89 75 f4             	mov    %esi,-0xc(%rbp)
    3ae8:	48 83 7d f8 00       	cmpq   $0x0,-0x8(%rbp)
    3aed:	78 1d                	js     3b0c <safe_rshift_func_int64_t_s_s+0x33>
    3aef:	83 7d f4 00          	cmpl   $0x0,-0xc(%rbp)
    3af3:	78 17                	js     3b0c <safe_rshift_func_int64_t_s_s+0x33>
    3af5:	83 7d f4 1f          	cmpl   $0x1f,-0xc(%rbp)
    3af9:	7f 11                	jg     3b0c <safe_rshift_func_int64_t_s_s+0x33>
    3afb:	8b 45 f4             	mov    -0xc(%rbp),%eax
    3afe:	48 8b 55 f8          	mov    -0x8(%rbp),%rdx
    3b02:	89 c1                	mov    %eax,%ecx
    3b04:	48 d3 fa             	sar    %cl,%rdx
    3b07:	48 89 d0             	mov    %rdx,%rax
    3b0a:	eb 04                	jmp    3b10 <safe_rshift_func_int64_t_s_s+0x37>
    3b0c:	48 8b 45 f8          	mov    -0x8(%rbp),%rax
    3b10:	5d                   	pop    %rbp
    3b11:	c3                   	retq   

0000000000003b12 <safe_rshift_func_int64_t_s_u>:
    3b12:	f3 0f 1e fa          	endbr64 
    3b16:	55                   	push   %rbp
    3b17:	48 89 e5             	mov    %rsp,%rbp
    3b1a:	48 89 7d f8          	mov    %rdi,-0x8(%rbp)
    3b1e:	89 75 f4             	mov    %esi,-0xc(%rbp)
    3b21:	48 83 7d f8 00       	cmpq   $0x0,-0x8(%rbp)
    3b26:	78 17                	js     3b3f <safe_rshift_func_int64_t_s_u+0x2d>
    3b28:	83 7d f4 1f          	cmpl   $0x1f,-0xc(%rbp)
    3b2c:	77 11                	ja     3b3f <safe_rshift_func_int64_t_s_u+0x2d>
    3b2e:	8b 45 f4             	mov    -0xc(%rbp),%eax
    3b31:	48 8b 55 f8          	mov    -0x8(%rbp),%rdx
    3b35:	89 c1                	mov    %eax,%ecx
    3b37:	48 d3 fa             	sar    %cl,%rdx
    3b3a:	48 89 d0             	mov    %rdx,%rax
    3b3d:	eb 04                	jmp    3b43 <safe_rshift_func_int64_t_s_u+0x31>
    3b3f:	48 8b 45 f8          	mov    -0x8(%rbp),%rax
    3b43:	5d                   	pop    %rbp
    3b44:	c3                   	retq   

0000000000003b45 <safe_unary_minus_func_uint8_t_u>:
    3b45:	f3 0f 1e fa          	endbr64 
    3b49:	55                   	push   %rbp
    3b4a:	48 89 e5             	mov    %rsp,%rbp
    3b4d:	89 f8                	mov    %edi,%eax
    3b4f:	88 45 fc             	mov    %al,-0x4(%rbp)
    3b52:	0f b6 45 fc          	movzbl -0x4(%rbp),%eax
    3b56:	f7 d8                	neg    %eax
    3b58:	5d                   	pop    %rbp
    3b59:	c3                   	retq   

0000000000003b5a <safe_add_func_uint8_t_u_u>:
    3b5a:	f3 0f 1e fa          	endbr64 
    3b5e:	55                   	push   %rbp
    3b5f:	48 89 e5             	mov    %rsp,%rbp
    3b62:	89 fa                	mov    %edi,%edx
    3b64:	89 f0                	mov    %esi,%eax
    3b66:	88 55 fc             	mov    %dl,-0x4(%rbp)
    3b69:	88 45 f8             	mov    %al,-0x8(%rbp)
    3b6c:	0f b6 55 fc          	movzbl -0x4(%rbp),%edx
    3b70:	0f b6 45 f8          	movzbl -0x8(%rbp),%eax
    3b74:	01 d0                	add    %edx,%eax
    3b76:	5d                   	pop    %rbp
    3b77:	c3                   	retq   

0000000000003b78 <safe_sub_func_uint8_t_u_u>:
    3b78:	f3 0f 1e fa          	endbr64 
    3b7c:	55                   	push   %rbp
    3b7d:	48 89 e5             	mov    %rsp,%rbp
    3b80:	89 fa                	mov    %edi,%edx
    3b82:	89 f0                	mov    %esi,%eax
    3b84:	88 55 fc             	mov    %dl,-0x4(%rbp)
    3b87:	88 45 f8             	mov    %al,-0x8(%rbp)
    3b8a:	0f b6 45 fc          	movzbl -0x4(%rbp),%eax
    3b8e:	2a 45 f8             	sub    -0x8(%rbp),%al
    3b91:	5d                   	pop    %rbp
    3b92:	c3                   	retq   

0000000000003b93 <safe_mul_func_uint8_t_u_u>:
    3b93:	f3 0f 1e fa          	endbr64 
    3b97:	55                   	push   %rbp
    3b98:	48 89 e5             	mov    %rsp,%rbp
    3b9b:	89 fa                	mov    %edi,%edx
    3b9d:	89 f0                	mov    %esi,%eax
    3b9f:	88 55 fc             	mov    %dl,-0x4(%rbp)
    3ba2:	88 45 f8             	mov    %al,-0x8(%rbp)
    3ba5:	0f b6 45 fc          	movzbl -0x4(%rbp),%eax
    3ba9:	f6 65 f8             	mulb   -0x8(%rbp)
    3bac:	5d                   	pop    %rbp
    3bad:	c3                   	retq   

0000000000003bae <safe_mod_func_uint8_t_u_u>:
    3bae:	f3 0f 1e fa          	endbr64 
    3bb2:	55                   	push   %rbp
    3bb3:	48 89 e5             	mov    %rsp,%rbp
    3bb6:	89 fa                	mov    %edi,%edx
    3bb8:	89 f0                	mov    %esi,%eax
    3bba:	88 55 fc             	mov    %dl,-0x4(%rbp)
    3bbd:	88 45 f8             	mov    %al,-0x8(%rbp)
    3bc0:	80 7d f8 00          	cmpb   $0x0,-0x8(%rbp)
    3bc4:	74 0f                	je     3bd5 <safe_mod_func_uint8_t_u_u+0x27>
    3bc6:	0f b6 45 fc          	movzbl -0x4(%rbp),%eax
    3bca:	0f b6 c0             	movzbl %al,%eax
    3bcd:	f6 75 f8             	divb   -0x8(%rbp)
    3bd0:	0f b6 c4             	movzbl %ah,%eax
    3bd3:	eb 04                	jmp    3bd9 <safe_mod_func_uint8_t_u_u+0x2b>
    3bd5:	0f b6 45 fc          	movzbl -0x4(%rbp),%eax
    3bd9:	5d                   	pop    %rbp
    3bda:	c3                   	retq   

0000000000003bdb <safe_div_func_uint8_t_u_u>:
    3bdb:	f3 0f 1e fa          	endbr64 
    3bdf:	55                   	push   %rbp
    3be0:	48 89 e5             	mov    %rsp,%rbp
    3be3:	89 fa                	mov    %edi,%edx
    3be5:	89 f0                	mov    %esi,%eax
    3be7:	88 55 fc             	mov    %dl,-0x4(%rbp)
    3bea:	88 45 f8             	mov    %al,-0x8(%rbp)
    3bed:	80 7d f8 00          	cmpb   $0x0,-0x8(%rbp)
    3bf1:	74 0c                	je     3bff <safe_div_func_uint8_t_u_u+0x24>
    3bf3:	0f b6 45 fc          	movzbl -0x4(%rbp),%eax
    3bf7:	0f b6 c0             	movzbl %al,%eax
    3bfa:	f6 75 f8             	divb   -0x8(%rbp)
    3bfd:	eb 04                	jmp    3c03 <safe_div_func_uint8_t_u_u+0x28>
    3bff:	0f b6 45 fc          	movzbl -0x4(%rbp),%eax
    3c03:	5d                   	pop    %rbp
    3c04:	c3                   	retq   

0000000000003c05 <safe_lshift_func_uint8_t_u_s>:
    3c05:	f3 0f 1e fa          	endbr64 
    3c09:	55                   	push   %rbp
    3c0a:	48 89 e5             	mov    %rsp,%rbp
    3c0d:	89 f8                	mov    %edi,%eax
    3c0f:	89 75 f8             	mov    %esi,-0x8(%rbp)
    3c12:	88 45 fc             	mov    %al,-0x4(%rbp)
    3c15:	83 7d f8 00          	cmpl   $0x0,-0x8(%rbp)
    3c19:	78 2b                	js     3c46 <safe_lshift_func_uint8_t_u_s+0x41>
    3c1b:	83 7d f8 1f          	cmpl   $0x1f,-0x8(%rbp)
    3c1f:	7f 25                	jg     3c46 <safe_lshift_func_uint8_t_u_s+0x41>
    3c21:	0f b6 55 fc          	movzbl -0x4(%rbp),%edx
    3c25:	8b 45 f8             	mov    -0x8(%rbp),%eax
    3c28:	be ff 00 00 00       	mov    $0xff,%esi
    3c2d:	89 c1                	mov    %eax,%ecx
    3c2f:	d3 fe                	sar    %cl,%esi
    3c31:	89 f0                	mov    %esi,%eax
    3c33:	39 c2                	cmp    %eax,%edx
    3c35:	7f 0f                	jg     3c46 <safe_lshift_func_uint8_t_u_s+0x41>
    3c37:	0f b6 55 fc          	movzbl -0x4(%rbp),%edx
    3c3b:	8b 45 f8             	mov    -0x8(%rbp),%eax
    3c3e:	89 c1                	mov    %eax,%ecx
    3c40:	d3 e2                	shl    %cl,%edx
    3c42:	89 d0                	mov    %edx,%eax
    3c44:	eb 04                	jmp    3c4a <safe_lshift_func_uint8_t_u_s+0x45>
    3c46:	0f b6 45 fc          	movzbl -0x4(%rbp),%eax
    3c4a:	5d                   	pop    %rbp
    3c4b:	c3                   	retq   

0000000000003c4c <safe_lshift_func_uint8_t_u_u>:
    3c4c:	f3 0f 1e fa          	endbr64 
    3c50:	55                   	push   %rbp
    3c51:	48 89 e5             	mov    %rsp,%rbp
    3c54:	89 f8                	mov    %edi,%eax
    3c56:	89 75 f8             	mov    %esi,-0x8(%rbp)
    3c59:	88 45 fc             	mov    %al,-0x4(%rbp)
    3c5c:	83 7d f8 1f          	cmpl   $0x1f,-0x8(%rbp)
    3c60:	77 25                	ja     3c87 <safe_lshift_func_uint8_t_u_u+0x3b>
    3c62:	0f b6 55 fc          	movzbl -0x4(%rbp),%edx
    3c66:	8b 45 f8             	mov    -0x8(%rbp),%eax
    3c69:	be ff 00 00 00       	mov    $0xff,%esi
    3c6e:	89 c1                	mov    %eax,%ecx
    3c70:	d3 fe                	sar    %cl,%esi
    3c72:	89 f0                	mov    %esi,%eax
    3c74:	39 c2                	cmp    %eax,%edx
    3c76:	7f 0f                	jg     3c87 <safe_lshift_func_uint8_t_u_u+0x3b>
    3c78:	0f b6 55 fc          	movzbl -0x4(%rbp),%edx
    3c7c:	8b 45 f8             	mov    -0x8(%rbp),%eax
    3c7f:	89 c1                	mov    %eax,%ecx
    3c81:	d3 e2                	shl    %cl,%edx
    3c83:	89 d0                	mov    %edx,%eax
    3c85:	eb 04                	jmp    3c8b <safe_lshift_func_uint8_t_u_u+0x3f>
    3c87:	0f b6 45 fc          	movzbl -0x4(%rbp),%eax
    3c8b:	5d                   	pop    %rbp
    3c8c:	c3                   	retq   

0000000000003c8d <safe_rshift_func_uint8_t_u_s>:
    3c8d:	f3 0f 1e fa          	endbr64 
    3c91:	55                   	push   %rbp
    3c92:	48 89 e5             	mov    %rsp,%rbp
    3c95:	89 f8                	mov    %edi,%eax
    3c97:	89 75 f8             	mov    %esi,-0x8(%rbp)
    3c9a:	88 45 fc             	mov    %al,-0x4(%rbp)
    3c9d:	83 7d f8 00          	cmpl   $0x0,-0x8(%rbp)
    3ca1:	78 15                	js     3cb8 <safe_rshift_func_uint8_t_u_s+0x2b>
    3ca3:	83 7d f8 1f          	cmpl   $0x1f,-0x8(%rbp)
    3ca7:	7f 0f                	jg     3cb8 <safe_rshift_func_uint8_t_u_s+0x2b>
    3ca9:	0f b6 55 fc          	movzbl -0x4(%rbp),%edx
    3cad:	8b 45 f8             	mov    -0x8(%rbp),%eax
    3cb0:	89 c1                	mov    %eax,%ecx
    3cb2:	d3 fa                	sar    %cl,%edx
    3cb4:	89 d0                	mov    %edx,%eax
    3cb6:	eb 04                	jmp    3cbc <safe_rshift_func_uint8_t_u_s+0x2f>
    3cb8:	0f b6 45 fc          	movzbl -0x4(%rbp),%eax
    3cbc:	5d                   	pop    %rbp
    3cbd:	c3                   	retq   

0000000000003cbe <safe_rshift_func_uint8_t_u_u>:
    3cbe:	f3 0f 1e fa          	endbr64 
    3cc2:	55                   	push   %rbp
    3cc3:	48 89 e5             	mov    %rsp,%rbp
    3cc6:	89 f8                	mov    %edi,%eax
    3cc8:	89 75 f8             	mov    %esi,-0x8(%rbp)
    3ccb:	88 45 fc             	mov    %al,-0x4(%rbp)
    3cce:	83 7d f8 1f          	cmpl   $0x1f,-0x8(%rbp)
    3cd2:	77 0f                	ja     3ce3 <safe_rshift_func_uint8_t_u_u+0x25>
    3cd4:	0f b6 55 fc          	movzbl -0x4(%rbp),%edx
    3cd8:	8b 45 f8             	mov    -0x8(%rbp),%eax
    3cdb:	89 c1                	mov    %eax,%ecx
    3cdd:	d3 fa                	sar    %cl,%edx
    3cdf:	89 d0                	mov    %edx,%eax
    3ce1:	eb 04                	jmp    3ce7 <safe_rshift_func_uint8_t_u_u+0x29>
    3ce3:	0f b6 45 fc          	movzbl -0x4(%rbp),%eax
    3ce7:	5d                   	pop    %rbp
    3ce8:	c3                   	retq   

0000000000003ce9 <safe_unary_minus_func_uint16_t_u>:
    3ce9:	f3 0f 1e fa          	endbr64 
    3ced:	55                   	push   %rbp
    3cee:	48 89 e5             	mov    %rsp,%rbp
    3cf1:	89 f8                	mov    %edi,%eax
    3cf3:	66 89 45 fc          	mov    %ax,-0x4(%rbp)
    3cf7:	0f b7 45 fc          	movzwl -0x4(%rbp),%eax
    3cfb:	f7 d8                	neg    %eax
    3cfd:	5d                   	pop    %rbp
    3cfe:	c3                   	retq   

0000000000003cff <safe_add_func_uint16_t_u_u>:
    3cff:	f3 0f 1e fa          	endbr64 
    3d03:	55                   	push   %rbp
    3d04:	48 89 e5             	mov    %rsp,%rbp
    3d07:	89 fa                	mov    %edi,%edx
    3d09:	89 f0                	mov    %esi,%eax
    3d0b:	66 89 55 fc          	mov    %dx,-0x4(%rbp)
    3d0f:	66 89 45 f8          	mov    %ax,-0x8(%rbp)
    3d13:	0f b7 55 fc          	movzwl -0x4(%rbp),%edx
    3d17:	0f b7 45 f8          	movzwl -0x8(%rbp),%eax
    3d1b:	01 d0                	add    %edx,%eax
    3d1d:	5d                   	pop    %rbp
    3d1e:	c3                   	retq   

0000000000003d1f <safe_sub_func_uint16_t_u_u>:
    3d1f:	f3 0f 1e fa          	endbr64 
    3d23:	55                   	push   %rbp
    3d24:	48 89 e5             	mov    %rsp,%rbp
    3d27:	89 fa                	mov    %edi,%edx
    3d29:	89 f0                	mov    %esi,%eax
    3d2b:	66 89 55 fc          	mov    %dx,-0x4(%rbp)
    3d2f:	66 89 45 f8          	mov    %ax,-0x8(%rbp)
    3d33:	0f b7 45 fc          	movzwl -0x4(%rbp),%eax
    3d37:	66 2b 45 f8          	sub    -0x8(%rbp),%ax
    3d3b:	5d                   	pop    %rbp
    3d3c:	c3                   	retq   

0000000000003d3d <safe_mul_func_uint16_t_u_u>:
    3d3d:	f3 0f 1e fa          	endbr64 
    3d41:	55                   	push   %rbp
    3d42:	48 89 e5             	mov    %rsp,%rbp
    3d45:	89 fa                	mov    %edi,%edx
    3d47:	89 f0                	mov    %esi,%eax
    3d49:	66 89 55 fc          	mov    %dx,-0x4(%rbp)
    3d4d:	66 89 45 f8          	mov    %ax,-0x8(%rbp)
    3d51:	0f b7 45 fc          	movzwl -0x4(%rbp),%eax
    3d55:	66 0f af 45 f8       	imul   -0x8(%rbp),%ax
    3d5a:	5d                   	pop    %rbp
    3d5b:	c3                   	retq   

0000000000003d5c <safe_mod_func_uint16_t_u_u>:
    3d5c:	f3 0f 1e fa          	endbr64 
    3d60:	55                   	push   %rbp
    3d61:	48 89 e5             	mov    %rsp,%rbp
    3d64:	89 fa                	mov    %edi,%edx
    3d66:	89 f0                	mov    %esi,%eax
    3d68:	66 89 55 fc          	mov    %dx,-0x4(%rbp)
    3d6c:	66 89 45 f8          	mov    %ax,-0x8(%rbp)
    3d70:	66 83 7d f8 00       	cmpw   $0x0,-0x8(%rbp)
    3d75:	74 11                	je     3d88 <safe_mod_func_uint16_t_u_u+0x2c>
    3d77:	0f b7 45 fc          	movzwl -0x4(%rbp),%eax
    3d7b:	ba 00 00 00 00       	mov    $0x0,%edx
    3d80:	66 f7 75 f8          	divw   -0x8(%rbp)
    3d84:	89 d0                	mov    %edx,%eax
    3d86:	eb 04                	jmp    3d8c <safe_mod_func_uint16_t_u_u+0x30>
    3d88:	0f b7 45 fc          	movzwl -0x4(%rbp),%eax
    3d8c:	5d                   	pop    %rbp
    3d8d:	c3                   	retq   

0000000000003d8e <safe_div_func_uint16_t_u_u>:
    3d8e:	f3 0f 1e fa          	endbr64 
    3d92:	55                   	push   %rbp
    3d93:	48 89 e5             	mov    %rsp,%rbp
    3d96:	89 fa                	mov    %edi,%edx
    3d98:	89 f0                	mov    %esi,%eax
    3d9a:	66 89 55 fc          	mov    %dx,-0x4(%rbp)
    3d9e:	66 89 45 f8          	mov    %ax,-0x8(%rbp)
    3da2:	66 83 7d f8 00       	cmpw   $0x0,-0x8(%rbp)
    3da7:	74 0f                	je     3db8 <safe_div_func_uint16_t_u_u+0x2a>
    3da9:	0f b7 45 fc          	movzwl -0x4(%rbp),%eax
    3dad:	ba 00 00 00 00       	mov    $0x0,%edx
    3db2:	66 f7 75 f8          	divw   -0x8(%rbp)
    3db6:	eb 04                	jmp    3dbc <safe_div_func_uint16_t_u_u+0x2e>
    3db8:	0f b7 45 fc          	movzwl -0x4(%rbp),%eax
    3dbc:	5d                   	pop    %rbp
    3dbd:	c3                   	retq   

0000000000003dbe <safe_lshift_func_uint16_t_u_s>:
    3dbe:	f3 0f 1e fa          	endbr64 
    3dc2:	55                   	push   %rbp
    3dc3:	48 89 e5             	mov    %rsp,%rbp
    3dc6:	89 f8                	mov    %edi,%eax
    3dc8:	89 75 f8             	mov    %esi,-0x8(%rbp)
    3dcb:	66 89 45 fc          	mov    %ax,-0x4(%rbp)
    3dcf:	83 7d f8 00          	cmpl   $0x0,-0x8(%rbp)
    3dd3:	78 2b                	js     3e00 <safe_lshift_func_uint16_t_u_s+0x42>
    3dd5:	83 7d f8 1f          	cmpl   $0x1f,-0x8(%rbp)
    3dd9:	7f 25                	jg     3e00 <safe_lshift_func_uint16_t_u_s+0x42>
    3ddb:	0f b7 55 fc          	movzwl -0x4(%rbp),%edx
    3ddf:	8b 45 f8             	mov    -0x8(%rbp),%eax
    3de2:	be ff ff 00 00       	mov    $0xffff,%esi
    3de7:	89 c1                	mov    %eax,%ecx
    3de9:	d3 fe                	sar    %cl,%esi
    3deb:	89 f0                	mov    %esi,%eax
    3ded:	39 c2                	cmp    %eax,%edx
    3def:	7f 0f                	jg     3e00 <safe_lshift_func_uint16_t_u_s+0x42>
    3df1:	0f b7 55 fc          	movzwl -0x4(%rbp),%edx
    3df5:	8b 45 f8             	mov    -0x8(%rbp),%eax
    3df8:	89 c1                	mov    %eax,%ecx
    3dfa:	d3 e2                	shl    %cl,%edx
    3dfc:	89 d0                	mov    %edx,%eax
    3dfe:	eb 04                	jmp    3e04 <safe_lshift_func_uint16_t_u_s+0x46>
    3e00:	0f b7 45 fc          	movzwl -0x4(%rbp),%eax
    3e04:	5d                   	pop    %rbp
    3e05:	c3                   	retq   

0000000000003e06 <safe_lshift_func_uint16_t_u_u>:
    3e06:	f3 0f 1e fa          	endbr64 
    3e0a:	55                   	push   %rbp
    3e0b:	48 89 e5             	mov    %rsp,%rbp
    3e0e:	89 f8                	mov    %edi,%eax
    3e10:	89 75 f8             	mov    %esi,-0x8(%rbp)
    3e13:	66 89 45 fc          	mov    %ax,-0x4(%rbp)
    3e17:	83 7d f8 1f          	cmpl   $0x1f,-0x8(%rbp)
    3e1b:	77 25                	ja     3e42 <safe_lshift_func_uint16_t_u_u+0x3c>
    3e1d:	0f b7 55 fc          	movzwl -0x4(%rbp),%edx
    3e21:	8b 45 f8             	mov    -0x8(%rbp),%eax
    3e24:	be ff ff 00 00       	mov    $0xffff,%esi
    3e29:	89 c1                	mov    %eax,%ecx
    3e2b:	d3 fe                	sar    %cl,%esi
    3e2d:	89 f0                	mov    %esi,%eax
    3e2f:	39 c2                	cmp    %eax,%edx
    3e31:	7f 0f                	jg     3e42 <safe_lshift_func_uint16_t_u_u+0x3c>
    3e33:	0f b7 55 fc          	movzwl -0x4(%rbp),%edx
    3e37:	8b 45 f8             	mov    -0x8(%rbp),%eax
    3e3a:	89 c1                	mov    %eax,%ecx
    3e3c:	d3 e2                	shl    %cl,%edx
    3e3e:	89 d0                	mov    %edx,%eax
    3e40:	eb 04                	jmp    3e46 <safe_lshift_func_uint16_t_u_u+0x40>
    3e42:	0f b7 45 fc          	movzwl -0x4(%rbp),%eax
    3e46:	5d                   	pop    %rbp
    3e47:	c3                   	retq   

0000000000003e48 <safe_rshift_func_uint16_t_u_s>:
    3e48:	f3 0f 1e fa          	endbr64 
    3e4c:	55                   	push   %rbp
    3e4d:	48 89 e5             	mov    %rsp,%rbp
    3e50:	89 f8                	mov    %edi,%eax
    3e52:	89 75 f8             	mov    %esi,-0x8(%rbp)
    3e55:	66 89 45 fc          	mov    %ax,-0x4(%rbp)
    3e59:	83 7d f8 00          	cmpl   $0x0,-0x8(%rbp)
    3e5d:	78 15                	js     3e74 <safe_rshift_func_uint16_t_u_s+0x2c>
    3e5f:	83 7d f8 1f          	cmpl   $0x1f,-0x8(%rbp)
    3e63:	7f 0f                	jg     3e74 <safe_rshift_func_uint16_t_u_s+0x2c>
    3e65:	0f b7 55 fc          	movzwl -0x4(%rbp),%edx
    3e69:	8b 45 f8             	mov    -0x8(%rbp),%eax
    3e6c:	89 c1                	mov    %eax,%ecx
    3e6e:	d3 fa                	sar    %cl,%edx
    3e70:	89 d0                	mov    %edx,%eax
    3e72:	eb 04                	jmp    3e78 <safe_rshift_func_uint16_t_u_s+0x30>
    3e74:	0f b7 45 fc          	movzwl -0x4(%rbp),%eax
    3e78:	5d                   	pop    %rbp
    3e79:	c3                   	retq   

0000000000003e7a <safe_rshift_func_uint16_t_u_u>:
    3e7a:	f3 0f 1e fa          	endbr64 
    3e7e:	55                   	push   %rbp
    3e7f:	48 89 e5             	mov    %rsp,%rbp
    3e82:	89 f8                	mov    %edi,%eax
    3e84:	89 75 f8             	mov    %esi,-0x8(%rbp)
    3e87:	66 89 45 fc          	mov    %ax,-0x4(%rbp)
    3e8b:	83 7d f8 1f          	cmpl   $0x1f,-0x8(%rbp)
    3e8f:	77 0f                	ja     3ea0 <safe_rshift_func_uint16_t_u_u+0x26>
    3e91:	0f b7 55 fc          	movzwl -0x4(%rbp),%edx
    3e95:	8b 45 f8             	mov    -0x8(%rbp),%eax
    3e98:	89 c1                	mov    %eax,%ecx
    3e9a:	d3 fa                	sar    %cl,%edx
    3e9c:	89 d0                	mov    %edx,%eax
    3e9e:	eb 04                	jmp    3ea4 <safe_rshift_func_uint16_t_u_u+0x2a>
    3ea0:	0f b7 45 fc          	movzwl -0x4(%rbp),%eax
    3ea4:	5d                   	pop    %rbp
    3ea5:	c3                   	retq   

0000000000003ea6 <safe_unary_minus_func_uint32_t_u>:
    3ea6:	f3 0f 1e fa          	endbr64 
    3eaa:	55                   	push   %rbp
    3eab:	48 89 e5             	mov    %rsp,%rbp
    3eae:	89 7d fc             	mov    %edi,-0x4(%rbp)
    3eb1:	8b 45 fc             	mov    -0x4(%rbp),%eax
    3eb4:	f7 d8                	neg    %eax
    3eb6:	5d                   	pop    %rbp
    3eb7:	c3                   	retq   

0000000000003eb8 <safe_add_func_uint32_t_u_u>:
    3eb8:	f3 0f 1e fa          	endbr64 
    3ebc:	55                   	push   %rbp
    3ebd:	48 89 e5             	mov    %rsp,%rbp
    3ec0:	89 7d fc             	mov    %edi,-0x4(%rbp)
    3ec3:	89 75 f8             	mov    %esi,-0x8(%rbp)
    3ec6:	8b 55 fc             	mov    -0x4(%rbp),%edx
    3ec9:	8b 45 f8             	mov    -0x8(%rbp),%eax
    3ecc:	01 d0                	add    %edx,%eax
    3ece:	5d                   	pop    %rbp
    3ecf:	c3                   	retq   

0000000000003ed0 <safe_sub_func_uint32_t_u_u>:
    3ed0:	f3 0f 1e fa          	endbr64 
    3ed4:	55                   	push   %rbp
    3ed5:	48 89 e5             	mov    %rsp,%rbp
    3ed8:	89 7d fc             	mov    %edi,-0x4(%rbp)
    3edb:	89 75 f8             	mov    %esi,-0x8(%rbp)
    3ede:	8b 45 fc             	mov    -0x4(%rbp),%eax
    3ee1:	2b 45 f8             	sub    -0x8(%rbp),%eax
    3ee4:	5d                   	pop    %rbp
    3ee5:	c3                   	retq   

0000000000003ee6 <safe_mul_func_uint32_t_u_u>:
    3ee6:	f3 0f 1e fa          	endbr64 
    3eea:	55                   	push   %rbp
    3eeb:	48 89 e5             	mov    %rsp,%rbp
    3eee:	89 7d fc             	mov    %edi,-0x4(%rbp)
    3ef1:	89 75 f8             	mov    %esi,-0x8(%rbp)
    3ef4:	8b 45 fc             	mov    -0x4(%rbp),%eax
    3ef7:	0f af 45 f8          	imul   -0x8(%rbp),%eax
    3efb:	5d                   	pop    %rbp
    3efc:	c3                   	retq   

0000000000003efd <safe_mod_func_uint32_t_u_u>:
    3efd:	f3 0f 1e fa          	endbr64 
    3f01:	55                   	push   %rbp
    3f02:	48 89 e5             	mov    %rsp,%rbp
    3f05:	89 7d fc             	mov    %edi,-0x4(%rbp)
    3f08:	89 75 f8             	mov    %esi,-0x8(%rbp)
    3f0b:	83 7d f8 00          	cmpl   $0x0,-0x8(%rbp)
    3f0f:	74 0f                	je     3f20 <safe_mod_func_uint32_t_u_u+0x23>
    3f11:	8b 45 fc             	mov    -0x4(%rbp),%eax
    3f14:	ba 00 00 00 00       	mov    $0x0,%edx
    3f19:	f7 75 f8             	divl   -0x8(%rbp)
    3f1c:	89 d0                	mov    %edx,%eax
    3f1e:	eb 03                	jmp    3f23 <safe_mod_func_uint32_t_u_u+0x26>
    3f20:	8b 45 fc             	mov    -0x4(%rbp),%eax
    3f23:	5d                   	pop    %rbp
    3f24:	c3                   	retq   

0000000000003f25 <safe_div_func_uint32_t_u_u>:
    3f25:	f3 0f 1e fa          	endbr64 
    3f29:	55                   	push   %rbp
    3f2a:	48 89 e5             	mov    %rsp,%rbp
    3f2d:	89 7d fc             	mov    %edi,-0x4(%rbp)
    3f30:	89 75 f8             	mov    %esi,-0x8(%rbp)
    3f33:	83 7d f8 00          	cmpl   $0x0,-0x8(%rbp)
    3f37:	74 0d                	je     3f46 <safe_div_func_uint32_t_u_u+0x21>
    3f39:	8b 45 fc             	mov    -0x4(%rbp),%eax
    3f3c:	ba 00 00 00 00       	mov    $0x0,%edx
    3f41:	f7 75 f8             	divl   -0x8(%rbp)
    3f44:	eb 03                	jmp    3f49 <safe_div_func_uint32_t_u_u+0x24>
    3f46:	8b 45 fc             	mov    -0x4(%rbp),%eax
    3f49:	5d                   	pop    %rbp
    3f4a:	c3                   	retq   

0000000000003f4b <safe_lshift_func_uint32_t_u_s>:
    3f4b:	f3 0f 1e fa          	endbr64 
    3f4f:	55                   	push   %rbp
    3f50:	48 89 e5             	mov    %rsp,%rbp
    3f53:	89 7d fc             	mov    %edi,-0x4(%rbp)
    3f56:	89 75 f8             	mov    %esi,-0x8(%rbp)
    3f59:	83 7d f8 00          	cmpl   $0x0,-0x8(%rbp)
    3f5d:	78 27                	js     3f86 <safe_lshift_func_uint32_t_u_s+0x3b>
    3f5f:	83 7d f8 1f          	cmpl   $0x1f,-0x8(%rbp)
    3f63:	7f 21                	jg     3f86 <safe_lshift_func_uint32_t_u_s+0x3b>
    3f65:	8b 45 f8             	mov    -0x8(%rbp),%eax
    3f68:	ba ff ff ff ff       	mov    $0xffffffff,%edx
    3f6d:	89 c1                	mov    %eax,%ecx
    3f6f:	d3 ea                	shr    %cl,%edx
    3f71:	89 d0                	mov    %edx,%eax
    3f73:	39 45 fc             	cmp    %eax,-0x4(%rbp)
    3f76:	77 0e                	ja     3f86 <safe_lshift_func_uint32_t_u_s+0x3b>
    3f78:	8b 45 f8             	mov    -0x8(%rbp),%eax
    3f7b:	8b 55 fc             	mov    -0x4(%rbp),%edx
    3f7e:	89 c1                	mov    %eax,%ecx
    3f80:	d3 e2                	shl    %cl,%edx
    3f82:	89 d0                	mov    %edx,%eax
    3f84:	eb 03                	jmp    3f89 <safe_lshift_func_uint32_t_u_s+0x3e>
    3f86:	8b 45 fc             	mov    -0x4(%rbp),%eax
    3f89:	5d                   	pop    %rbp
    3f8a:	c3                   	retq   

0000000000003f8b <safe_lshift_func_uint32_t_u_u>:
    3f8b:	f3 0f 1e fa          	endbr64 
    3f8f:	55                   	push   %rbp
    3f90:	48 89 e5             	mov    %rsp,%rbp
    3f93:	89 7d fc             	mov    %edi,-0x4(%rbp)
    3f96:	89 75 f8             	mov    %esi,-0x8(%rbp)
    3f99:	83 7d f8 1f          	cmpl   $0x1f,-0x8(%rbp)
    3f9d:	77 21                	ja     3fc0 <safe_lshift_func_uint32_t_u_u+0x35>
    3f9f:	8b 45 f8             	mov    -0x8(%rbp),%eax
    3fa2:	ba ff ff ff ff       	mov    $0xffffffff,%edx
    3fa7:	89 c1                	mov    %eax,%ecx
    3fa9:	d3 ea                	shr    %cl,%edx
    3fab:	89 d0                	mov    %edx,%eax
    3fad:	39 45 fc             	cmp    %eax,-0x4(%rbp)
    3fb0:	77 0e                	ja     3fc0 <safe_lshift_func_uint32_t_u_u+0x35>
    3fb2:	8b 45 f8             	mov    -0x8(%rbp),%eax
    3fb5:	8b 55 fc             	mov    -0x4(%rbp),%edx
    3fb8:	89 c1                	mov    %eax,%ecx
    3fba:	d3 e2                	shl    %cl,%edx
    3fbc:	89 d0                	mov    %edx,%eax
    3fbe:	eb 03                	jmp    3fc3 <safe_lshift_func_uint32_t_u_u+0x38>
    3fc0:	8b 45 fc             	mov    -0x4(%rbp),%eax
    3fc3:	5d                   	pop    %rbp
    3fc4:	c3                   	retq   

0000000000003fc5 <safe_rshift_func_uint32_t_u_s>:
    3fc5:	f3 0f 1e fa          	endbr64 
    3fc9:	55                   	push   %rbp
    3fca:	48 89 e5             	mov    %rsp,%rbp
    3fcd:	89 7d fc             	mov    %edi,-0x4(%rbp)
    3fd0:	89 75 f8             	mov    %esi,-0x8(%rbp)
    3fd3:	83 7d f8 00          	cmpl   $0x0,-0x8(%rbp)
    3fd7:	78 14                	js     3fed <safe_rshift_func_uint32_t_u_s+0x28>
    3fd9:	83 7d f8 1f          	cmpl   $0x1f,-0x8(%rbp)
    3fdd:	7f 0e                	jg     3fed <safe_rshift_func_uint32_t_u_s+0x28>
    3fdf:	8b 45 f8             	mov    -0x8(%rbp),%eax
    3fe2:	8b 55 fc             	mov    -0x4(%rbp),%edx
    3fe5:	89 c1                	mov    %eax,%ecx
    3fe7:	d3 ea                	shr    %cl,%edx
    3fe9:	89 d0                	mov    %edx,%eax
    3feb:	eb 03                	jmp    3ff0 <safe_rshift_func_uint32_t_u_s+0x2b>
    3fed:	8b 45 fc             	mov    -0x4(%rbp),%eax
    3ff0:	5d                   	pop    %rbp
    3ff1:	c3                   	retq   

0000000000003ff2 <safe_rshift_func_uint32_t_u_u>:
    3ff2:	f3 0f 1e fa          	endbr64 
    3ff6:	55                   	push   %rbp
    3ff7:	48 89 e5             	mov    %rsp,%rbp
    3ffa:	89 7d fc             	mov    %edi,-0x4(%rbp)
    3ffd:	89 75 f8             	mov    %esi,-0x8(%rbp)
    4000:	83 7d f8 1f          	cmpl   $0x1f,-0x8(%rbp)
    4004:	77 0e                	ja     4014 <safe_rshift_func_uint32_t_u_u+0x22>
    4006:	8b 45 f8             	mov    -0x8(%rbp),%eax
    4009:	8b 55 fc             	mov    -0x4(%rbp),%edx
    400c:	89 c1                	mov    %eax,%ecx
    400e:	d3 ea                	shr    %cl,%edx
    4010:	89 d0                	mov    %edx,%eax
    4012:	eb 03                	jmp    4017 <safe_rshift_func_uint32_t_u_u+0x25>
    4014:	8b 45 fc             	mov    -0x4(%rbp),%eax
    4017:	5d                   	pop    %rbp
    4018:	c3                   	retq   

0000000000004019 <safe_unary_minus_func_uint64_t_u>:
    4019:	f3 0f 1e fa          	endbr64 
    401d:	55                   	push   %rbp
    401e:	48 89 e5             	mov    %rsp,%rbp
    4021:	48 89 7d f8          	mov    %rdi,-0x8(%rbp)
    4025:	48 8b 45 f8          	mov    -0x8(%rbp),%rax
    4029:	48 f7 d8             	neg    %rax
    402c:	5d                   	pop    %rbp
    402d:	c3                   	retq   

000000000000402e <safe_add_func_uint64_t_u_u>:
    402e:	f3 0f 1e fa          	endbr64 
    4032:	55                   	push   %rbp
    4033:	48 89 e5             	mov    %rsp,%rbp
    4036:	48 89 7d f8          	mov    %rdi,-0x8(%rbp)
    403a:	48 89 75 f0          	mov    %rsi,-0x10(%rbp)
    403e:	48 8b 55 f8          	mov    -0x8(%rbp),%rdx
    4042:	48 8b 45 f0          	mov    -0x10(%rbp),%rax
    4046:	48 01 d0             	add    %rdx,%rax
    4049:	5d                   	pop    %rbp
    404a:	c3                   	retq   

000000000000404b <safe_sub_func_uint64_t_u_u>:
    404b:	f3 0f 1e fa          	endbr64 
    404f:	55                   	push   %rbp
    4050:	48 89 e5             	mov    %rsp,%rbp
    4053:	48 89 7d f8          	mov    %rdi,-0x8(%rbp)
    4057:	48 89 75 f0          	mov    %rsi,-0x10(%rbp)
    405b:	48 8b 45 f8          	mov    -0x8(%rbp),%rax
    405f:	48 2b 45 f0          	sub    -0x10(%rbp),%rax
    4063:	5d                   	pop    %rbp
    4064:	c3                   	retq   

0000000000004065 <safe_mul_func_uint64_t_u_u>:
    4065:	f3 0f 1e fa          	endbr64 
    4069:	55                   	push   %rbp
    406a:	48 89 e5             	mov    %rsp,%rbp
    406d:	48 89 7d f8          	mov    %rdi,-0x8(%rbp)
    4071:	48 89 75 f0          	mov    %rsi,-0x10(%rbp)
    4075:	48 8b 45 f8          	mov    -0x8(%rbp),%rax
    4079:	48 0f af 45 f0       	imul   -0x10(%rbp),%rax
    407e:	5d                   	pop    %rbp
    407f:	c3                   	retq   

0000000000004080 <safe_mod_func_uint64_t_u_u>:
    4080:	f3 0f 1e fa          	endbr64 
    4084:	55                   	push   %rbp
    4085:	48 89 e5             	mov    %rsp,%rbp
    4088:	48 89 7d f8          	mov    %rdi,-0x8(%rbp)
    408c:	48 89 75 f0          	mov    %rsi,-0x10(%rbp)
    4090:	48 83 7d f0 00       	cmpq   $0x0,-0x10(%rbp)
    4095:	74 12                	je     40a9 <safe_mod_func_uint64_t_u_u+0x29>
    4097:	48 8b 45 f8          	mov    -0x8(%rbp),%rax
    409b:	ba 00 00 00 00       	mov    $0x0,%edx
    40a0:	48 f7 75 f0          	divq   -0x10(%rbp)
    40a4:	48 89 d0             	mov    %rdx,%rax
    40a7:	eb 04                	jmp    40ad <safe_mod_func_uint64_t_u_u+0x2d>
    40a9:	48 8b 45 f8          	mov    -0x8(%rbp),%rax
    40ad:	5d                   	pop    %rbp
    40ae:	c3                   	retq   

00000000000040af <safe_div_func_uint64_t_u_u>:
    40af:	f3 0f 1e fa          	endbr64 
    40b3:	55                   	push   %rbp
    40b4:	48 89 e5             	mov    %rsp,%rbp
    40b7:	48 89 7d f8          	mov    %rdi,-0x8(%rbp)
    40bb:	48 89 75 f0          	mov    %rsi,-0x10(%rbp)
    40bf:	48 83 7d f0 00       	cmpq   $0x0,-0x10(%rbp)
    40c4:	74 0f                	je     40d5 <safe_div_func_uint64_t_u_u+0x26>
    40c6:	48 8b 45 f8          	mov    -0x8(%rbp),%rax
    40ca:	ba 00 00 00 00       	mov    $0x0,%edx
    40cf:	48 f7 75 f0          	divq   -0x10(%rbp)
    40d3:	eb 04                	jmp    40d9 <safe_div_func_uint64_t_u_u+0x2a>
    40d5:	48 8b 45 f8          	mov    -0x8(%rbp),%rax
    40d9:	5d                   	pop    %rbp
    40da:	c3                   	retq   

00000000000040db <safe_lshift_func_uint64_t_u_s>:
    40db:	f3 0f 1e fa          	endbr64 
    40df:	55                   	push   %rbp
    40e0:	48 89 e5             	mov    %rsp,%rbp
    40e3:	48 89 7d f8          	mov    %rdi,-0x8(%rbp)
    40e7:	89 75 f4             	mov    %esi,-0xc(%rbp)
    40ea:	83 7d f4 00          	cmpl   $0x0,-0xc(%rbp)
    40ee:	78 2f                	js     411f <safe_lshift_func_uint64_t_u_s+0x44>
    40f0:	83 7d f4 1f          	cmpl   $0x1f,-0xc(%rbp)
    40f4:	7f 29                	jg     411f <safe_lshift_func_uint64_t_u_s+0x44>
    40f6:	8b 45 f4             	mov    -0xc(%rbp),%eax
    40f9:	48 c7 c2 ff ff ff ff 	mov    $0xffffffffffffffff,%rdx
    4100:	89 c1                	mov    %eax,%ecx
    4102:	48 d3 ea             	shr    %cl,%rdx
    4105:	48 89 d0             	mov    %rdx,%rax
    4108:	48 39 45 f8          	cmp    %rax,-0x8(%rbp)
    410c:	77 11                	ja     411f <safe_lshift_func_uint64_t_u_s+0x44>
    410e:	8b 45 f4             	mov    -0xc(%rbp),%eax
    4111:	48 8b 55 f8          	mov    -0x8(%rbp),%rdx
    4115:	89 c1                	mov    %eax,%ecx
    4117:	48 d3 e2             	shl    %cl,%rdx
    411a:	48 89 d0             	mov    %rdx,%rax
    411d:	eb 04                	jmp    4123 <safe_lshift_func_uint64_t_u_s+0x48>
    411f:	48 8b 45 f8          	mov    -0x8(%rbp),%rax
    4123:	5d                   	pop    %rbp
    4124:	c3                   	retq   

0000000000004125 <safe_lshift_func_uint64_t_u_u>:
    4125:	f3 0f 1e fa          	endbr64 
    4129:	55                   	push   %rbp
    412a:	48 89 e5             	mov    %rsp,%rbp
    412d:	48 89 7d f8          	mov    %rdi,-0x8(%rbp)
    4131:	89 75 f4             	mov    %esi,-0xc(%rbp)
    4134:	83 7d f4 1f          	cmpl   $0x1f,-0xc(%rbp)
    4138:	77 29                	ja     4163 <safe_lshift_func_uint64_t_u_u+0x3e>
    413a:	8b 45 f4             	mov    -0xc(%rbp),%eax
    413d:	48 c7 c2 ff ff ff ff 	mov    $0xffffffffffffffff,%rdx
    4144:	89 c1                	mov    %eax,%ecx
    4146:	48 d3 ea             	shr    %cl,%rdx
    4149:	48 89 d0             	mov    %rdx,%rax
    414c:	48 39 45 f8          	cmp    %rax,-0x8(%rbp)
    4150:	77 11                	ja     4163 <safe_lshift_func_uint64_t_u_u+0x3e>
    4152:	8b 45 f4             	mov    -0xc(%rbp),%eax
    4155:	48 8b 55 f8          	mov    -0x8(%rbp),%rdx
    4159:	89 c1                	mov    %eax,%ecx
    415b:	48 d3 e2             	shl    %cl,%rdx
    415e:	48 89 d0             	mov    %rdx,%rax
    4161:	eb 04                	jmp    4167 <safe_lshift_func_uint64_t_u_u+0x42>
    4163:	48 8b 45 f8          	mov    -0x8(%rbp),%rax
    4167:	5d                   	pop    %rbp
    4168:	c3                   	retq   

0000000000004169 <safe_rshift_func_uint64_t_u_s>:
    4169:	f3 0f 1e fa          	endbr64 
    416d:	55                   	push   %rbp
    416e:	48 89 e5             	mov    %rsp,%rbp
    4171:	48 89 7d f8          	mov    %rdi,-0x8(%rbp)
    4175:	89 75 f4             	mov    %esi,-0xc(%rbp)
    4178:	83 7d f4 00          	cmpl   $0x0,-0xc(%rbp)
    417c:	78 17                	js     4195 <safe_rshift_func_uint64_t_u_s+0x2c>
    417e:	83 7d f4 1f          	cmpl   $0x1f,-0xc(%rbp)
    4182:	7f 11                	jg     4195 <safe_rshift_func_uint64_t_u_s+0x2c>
    4184:	8b 45 f4             	mov    -0xc(%rbp),%eax
    4187:	48 8b 55 f8          	mov    -0x8(%rbp),%rdx
    418b:	89 c1                	mov    %eax,%ecx
    418d:	48 d3 ea             	shr    %cl,%rdx
    4190:	48 89 d0             	mov    %rdx,%rax
    4193:	eb 04                	jmp    4199 <safe_rshift_func_uint64_t_u_s+0x30>
    4195:	48 8b 45 f8          	mov    -0x8(%rbp),%rax
    4199:	5d                   	pop    %rbp
    419a:	c3                   	retq   

000000000000419b <safe_rshift_func_uint64_t_u_u>:
    419b:	f3 0f 1e fa          	endbr64 
    419f:	55                   	push   %rbp
    41a0:	48 89 e5             	mov    %rsp,%rbp
    41a3:	48 89 7d f8          	mov    %rdi,-0x8(%rbp)
    41a7:	89 75 f4             	mov    %esi,-0xc(%rbp)
    41aa:	83 7d f4 1f          	cmpl   $0x1f,-0xc(%rbp)
    41ae:	77 11                	ja     41c1 <safe_rshift_func_uint64_t_u_u+0x26>
    41b0:	8b 45 f4             	mov    -0xc(%rbp),%eax
    41b3:	48 8b 55 f8          	mov    -0x8(%rbp),%rdx
    41b7:	89 c1                	mov    %eax,%ecx
    41b9:	48 d3 ea             	shr    %cl,%rdx
    41bc:	48 89 d0             	mov    %rdx,%rax
    41bf:	eb 04                	jmp    41c5 <safe_rshift_func_uint64_t_u_u+0x2a>
    41c1:	48 8b 45 f8          	mov    -0x8(%rbp),%rax
    41c5:	5d                   	pop    %rbp
    41c6:	c3                   	retq   

00000000000041c7 <safe_add_func_float_f_f>:
    41c7:	f3 0f 1e fa          	endbr64 
    41cb:	55                   	push   %rbp
    41cc:	48 89 e5             	mov    %rsp,%rbp
    41cf:	f3 0f 11 45 fc       	movss  %xmm0,-0x4(%rbp)
    41d4:	f3 0f 11 4d f8       	movss  %xmm1,-0x8(%rbp)
    41d9:	f3 0f 10 4d fc       	movss  -0x4(%rbp),%xmm1
    41de:	f3 0f 10 05 72 7f 00 	movss  0x7f72(%rip),%xmm0        # c158 <g_1991+0x10d8>
    41e5:	00 
    41e6:	f3 0f 59 c8          	mulss  %xmm0,%xmm1
    41ea:	f3 0f 10 55 f8       	movss  -0x8(%rbp),%xmm2
    41ef:	f3 0f 10 05 61 7f 00 	movss  0x7f61(%rip),%xmm0        # c158 <g_1991+0x10d8>
    41f6:	00 
    41f7:	f3 0f 59 c2          	mulss  %xmm2,%xmm0
    41fb:	f3 0f 58 c1          	addss  %xmm1,%xmm0
    41ff:	f3 0f 10 0d 59 7f 00 	movss  0x7f59(%rip),%xmm1        # c160 <g_1991+0x10e0>
    4206:	00 
    4207:	0f 54 c1             	andps  %xmm1,%xmm0
    420a:	0f 2f 05 5f 7f 00 00 	comiss 0x7f5f(%rip),%xmm0        # c170 <g_1991+0x10f0>
    4211:	76 07                	jbe    421a <safe_add_func_float_f_f+0x53>
    4213:	f3 0f 10 45 fc       	movss  -0x4(%rbp),%xmm0
    4218:	eb 0a                	jmp    4224 <safe_add_func_float_f_f+0x5d>
    421a:	f3 0f 10 45 fc       	movss  -0x4(%rbp),%xmm0
    421f:	f3 0f 58 45 f8       	addss  -0x8(%rbp),%xmm0
    4224:	5d                   	pop    %rbp
    4225:	c3                   	retq   

0000000000004226 <safe_sub_func_float_f_f>:
    4226:	f3 0f 1e fa          	endbr64 
    422a:	55                   	push   %rbp
    422b:	48 89 e5             	mov    %rsp,%rbp
    422e:	f3 0f 11 45 fc       	movss  %xmm0,-0x4(%rbp)
    4233:	f3 0f 11 4d f8       	movss  %xmm1,-0x8(%rbp)
    4238:	f3 0f 10 4d fc       	movss  -0x4(%rbp),%xmm1
    423d:	f3 0f 10 05 13 7f 00 	movss  0x7f13(%rip),%xmm0        # c158 <g_1991+0x10d8>
    4244:	00 
    4245:	f3 0f 59 c1          	mulss  %xmm1,%xmm0
    4249:	f3 0f 10 55 f8       	movss  -0x8(%rbp),%xmm2
    424e:	f3 0f 10 0d 02 7f 00 	movss  0x7f02(%rip),%xmm1        # c158 <g_1991+0x10d8>
    4255:	00 
    4256:	f3 0f 59 ca          	mulss  %xmm2,%xmm1
    425a:	f3 0f 5c c1          	subss  %xmm1,%xmm0
    425e:	f3 0f 10 0d fa 7e 00 	movss  0x7efa(%rip),%xmm1        # c160 <g_1991+0x10e0>
    4265:	00 
    4266:	0f 54 c1             	andps  %xmm1,%xmm0
    4269:	0f 2f 05 00 7f 00 00 	comiss 0x7f00(%rip),%xmm0        # c170 <g_1991+0x10f0>
    4270:	76 07                	jbe    4279 <safe_sub_func_float_f_f+0x53>
    4272:	f3 0f 10 45 fc       	movss  -0x4(%rbp),%xmm0
    4277:	eb 0a                	jmp    4283 <safe_sub_func_float_f_f+0x5d>
    4279:	f3 0f 10 45 fc       	movss  -0x4(%rbp),%xmm0
    427e:	f3 0f 5c 45 f8       	subss  -0x8(%rbp),%xmm0
    4283:	5d                   	pop    %rbp
    4284:	c3                   	retq   

0000000000004285 <safe_mul_func_float_f_f>:
    4285:	f3 0f 1e fa          	endbr64 
    4289:	55                   	push   %rbp
    428a:	48 89 e5             	mov    %rsp,%rbp
    428d:	f3 0f 11 45 fc       	movss  %xmm0,-0x4(%rbp)
    4292:	f3 0f 11 4d f8       	movss  %xmm1,-0x8(%rbp)
    4297:	f3 0f 10 4d fc       	movss  -0x4(%rbp),%xmm1
    429c:	f3 0f 10 05 d0 7e 00 	movss  0x7ed0(%rip),%xmm0        # c174 <g_1991+0x10f4>
    42a3:	00 
    42a4:	f3 0f 59 c8          	mulss  %xmm0,%xmm1
    42a8:	f3 0f 10 55 f8       	movss  -0x8(%rbp),%xmm2
    42ad:	f3 0f 10 05 c3 7e 00 	movss  0x7ec3(%rip),%xmm0        # c178 <g_1991+0x10f8>
    42b4:	00 
    42b5:	f3 0f 59 c2          	mulss  %xmm2,%xmm0
    42b9:	f3 0f 59 c1          	mulss  %xmm1,%xmm0
    42bd:	f3 0f 10 0d 9b 7e 00 	movss  0x7e9b(%rip),%xmm1        # c160 <g_1991+0x10e0>
    42c4:	00 
    42c5:	0f 54 c1             	andps  %xmm1,%xmm0
    42c8:	0f 2f 05 ad 7e 00 00 	comiss 0x7ead(%rip),%xmm0        # c17c <g_1991+0x10fc>
    42cf:	76 07                	jbe    42d8 <safe_mul_func_float_f_f+0x53>
    42d1:	f3 0f 10 45 fc       	movss  -0x4(%rbp),%xmm0
    42d6:	eb 0a                	jmp    42e2 <safe_mul_func_float_f_f+0x5d>
    42d8:	f3 0f 10 45 fc       	movss  -0x4(%rbp),%xmm0
    42dd:	f3 0f 59 45 f8       	mulss  -0x8(%rbp),%xmm0
    42e2:	5d                   	pop    %rbp
    42e3:	c3                   	retq   

00000000000042e4 <safe_div_func_float_f_f>:
    42e4:	f3 0f 1e fa          	endbr64 
    42e8:	55                   	push   %rbp
    42e9:	48 89 e5             	mov    %rsp,%rbp
    42ec:	f3 0f 11 45 fc       	movss  %xmm0,-0x4(%rbp)
    42f1:	f3 0f 11 4d f8       	movss  %xmm1,-0x8(%rbp)
    42f6:	f3 0f 10 45 f8       	movss  -0x8(%rbp),%xmm0
    42fb:	f3 0f 10 0d 5d 7e 00 	movss  0x7e5d(%rip),%xmm1        # c160 <g_1991+0x10e0>
    4302:	00 
    4303:	0f 54 c8             	andps  %xmm0,%xmm1
    4306:	f3 0f 10 05 72 7e 00 	movss  0x7e72(%rip),%xmm0        # c180 <g_1991+0x1100>
    430d:	00 
    430e:	0f 2f c1             	comiss %xmm1,%xmm0
    4311:	0f 97 c0             	seta   %al
    4314:	83 f0 01             	xor    $0x1,%eax
    4317:	84 c0                	test   %al,%al
    4319:	75 56                	jne    4371 <safe_div_func_float_f_f+0x8d>
    431b:	66 0f ef c0          	pxor   %xmm0,%xmm0
    431f:	0f 2e 45 f8          	ucomiss -0x8(%rbp),%xmm0
    4323:	7a 0a                	jp     432f <safe_div_func_float_f_f+0x4b>
    4325:	66 0f ef c0          	pxor   %xmm0,%xmm0
    4329:	0f 2e 45 f8          	ucomiss -0x8(%rbp),%xmm0
    432d:	74 4e                	je     437d <safe_div_func_float_f_f+0x99>
    432f:	f3 0f 10 4d fc       	movss  -0x4(%rbp),%xmm1
    4334:	f3 0f 10 05 48 7e 00 	movss  0x7e48(%rip),%xmm0        # c184 <g_1991+0x1104>
    433b:	00 
    433c:	f3 0f 59 c1          	mulss  %xmm1,%xmm0
    4340:	f3 0f 10 55 f8       	movss  -0x8(%rbp),%xmm2
    4345:	f3 0f 10 0d 3b 7e 00 	movss  0x7e3b(%rip),%xmm1        # c188 <g_1991+0x1108>
    434c:	00 
    434d:	f3 0f 59 ca          	mulss  %xmm2,%xmm1
    4351:	f3 0f 5e c1          	divss  %xmm1,%xmm0
    4355:	f3 0f 10 0d 03 7e 00 	movss  0x7e03(%rip),%xmm1        # c160 <g_1991+0x10e0>
    435c:	00 
    435d:	0f 54 c1             	andps  %xmm1,%xmm0
    4360:	0f 2f 05 25 7e 00 00 	comiss 0x7e25(%rip),%xmm0        # c18c <g_1991+0x110c>
    4367:	0f 97 c0             	seta   %al
    436a:	83 f0 01             	xor    $0x1,%eax
    436d:	84 c0                	test   %al,%al
    436f:	74 0c                	je     437d <safe_div_func_float_f_f+0x99>
    4371:	f3 0f 10 45 fc       	movss  -0x4(%rbp),%xmm0
    4376:	f3 0f 5e 45 f8       	divss  -0x8(%rbp),%xmm0
    437b:	eb 05                	jmp    4382 <safe_div_func_float_f_f+0x9e>
    437d:	f3 0f 10 45 fc       	movss  -0x4(%rbp),%xmm0
    4382:	5d                   	pop    %rbp
    4383:	c3                   	retq   

0000000000004384 <safe_add_func_double_f_f>:
    4384:	f3 0f 1e fa          	endbr64 
    4388:	55                   	push   %rbp
    4389:	48 89 e5             	mov    %rsp,%rbp
    438c:	f2 0f 11 45 f8       	movsd  %xmm0,-0x8(%rbp)
    4391:	f2 0f 11 4d f0       	movsd  %xmm1,-0x10(%rbp)
    4396:	f2 0f 10 4d f8       	movsd  -0x8(%rbp),%xmm1
    439b:	f2 0f 10 05 ed 7d 00 	movsd  0x7ded(%rip),%xmm0        # c190 <g_1991+0x1110>
    43a2:	00 
    43a3:	f2 0f 59 c8          	mulsd  %xmm0,%xmm1
    43a7:	f2 0f 10 55 f0       	movsd  -0x10(%rbp),%xmm2
    43ac:	f2 0f 10 05 dc 7d 00 	movsd  0x7ddc(%rip),%xmm0        # c190 <g_1991+0x1110>
    43b3:	00 
    43b4:	f2 0f 59 c2          	mulsd  %xmm2,%xmm0
    43b8:	f2 0f 58 c1          	addsd  %xmm1,%xmm0
    43bc:	f3 0f 7e 0d dc 7d 00 	movq   0x7ddc(%rip),%xmm1        # c1a0 <g_1991+0x1120>
    43c3:	00 
    43c4:	66 0f 54 c1          	andpd  %xmm1,%xmm0
    43c8:	66 0f 2f 05 e0 7d 00 	comisd 0x7de0(%rip),%xmm0        # c1b0 <g_1991+0x1130>
    43cf:	00 
    43d0:	76 07                	jbe    43d9 <safe_add_func_double_f_f+0x55>
    43d2:	f2 0f 10 45 f8       	movsd  -0x8(%rbp),%xmm0
    43d7:	eb 0a                	jmp    43e3 <safe_add_func_double_f_f+0x5f>
    43d9:	f2 0f 10 45 f8       	movsd  -0x8(%rbp),%xmm0
    43de:	f2 0f 58 45 f0       	addsd  -0x10(%rbp),%xmm0
    43e3:	5d                   	pop    %rbp
    43e4:	c3                   	retq   

00000000000043e5 <safe_sub_func_double_f_f>:
    43e5:	f3 0f 1e fa          	endbr64 
    43e9:	55                   	push   %rbp
    43ea:	48 89 e5             	mov    %rsp,%rbp
    43ed:	f2 0f 11 45 f8       	movsd  %xmm0,-0x8(%rbp)
    43f2:	f2 0f 11 4d f0       	movsd  %xmm1,-0x10(%rbp)
    43f7:	f2 0f 10 4d f8       	movsd  -0x8(%rbp),%xmm1
    43fc:	f2 0f 10 05 8c 7d 00 	movsd  0x7d8c(%rip),%xmm0        # c190 <g_1991+0x1110>
    4403:	00 
    4404:	f2 0f 59 c1          	mulsd  %xmm1,%xmm0
    4408:	f2 0f 10 55 f0       	movsd  -0x10(%rbp),%xmm2
    440d:	f2 0f 10 0d 7b 7d 00 	movsd  0x7d7b(%rip),%xmm1        # c190 <g_1991+0x1110>
    4414:	00 
    4415:	f2 0f 59 ca          	mulsd  %xmm2,%xmm1
    4419:	f2 0f 5c c1          	subsd  %xmm1,%xmm0
    441d:	f3 0f 7e 0d 7b 7d 00 	movq   0x7d7b(%rip),%xmm1        # c1a0 <g_1991+0x1120>
    4424:	00 
    4425:	66 0f 54 c1          	andpd  %xmm1,%xmm0
    4429:	66 0f 2f 05 7f 7d 00 	comisd 0x7d7f(%rip),%xmm0        # c1b0 <g_1991+0x1130>
    4430:	00 
    4431:	76 07                	jbe    443a <safe_sub_func_double_f_f+0x55>
    4433:	f2 0f 10 45 f8       	movsd  -0x8(%rbp),%xmm0
    4438:	eb 0a                	jmp    4444 <safe_sub_func_double_f_f+0x5f>
    443a:	f2 0f 10 45 f8       	movsd  -0x8(%rbp),%xmm0
    443f:	f2 0f 5c 45 f0       	subsd  -0x10(%rbp),%xmm0
    4444:	5d                   	pop    %rbp
    4445:	c3                   	retq   

0000000000004446 <safe_mul_func_double_f_f>:
    4446:	f3 0f 1e fa          	endbr64 
    444a:	55                   	push   %rbp
    444b:	48 89 e5             	mov    %rsp,%rbp
    444e:	f2 0f 11 45 f8       	movsd  %xmm0,-0x8(%rbp)
    4453:	f2 0f 11 4d f0       	movsd  %xmm1,-0x10(%rbp)
    4458:	f2 0f 10 4d f8       	movsd  -0x8(%rbp),%xmm1
    445d:	f2 0f 10 05 53 7d 00 	movsd  0x7d53(%rip),%xmm0        # c1b8 <g_1991+0x1138>
    4464:	00 
    4465:	f2 0f 59 c8          	mulsd  %xmm0,%xmm1
    4469:	f2 0f 10 55 f0       	movsd  -0x10(%rbp),%xmm2
    446e:	f2 0f 10 05 4a 7d 00 	movsd  0x7d4a(%rip),%xmm0        # c1c0 <g_1991+0x1140>
    4475:	00 
    4476:	f2 0f 59 c2          	mulsd  %xmm2,%xmm0
    447a:	f2 0f 59 c1          	mulsd  %xmm1,%xmm0
    447e:	f3 0f 7e 0d 1a 7d 00 	movq   0x7d1a(%rip),%xmm1        # c1a0 <g_1991+0x1120>
    4485:	00 
    4486:	66 0f 54 c1          	andpd  %xmm1,%xmm0
    448a:	66 0f 2f 05 36 7d 00 	comisd 0x7d36(%rip),%xmm0        # c1c8 <g_1991+0x1148>
    4491:	00 
    4492:	76 07                	jbe    449b <safe_mul_func_double_f_f+0x55>
    4494:	f2 0f 10 45 f8       	movsd  -0x8(%rbp),%xmm0
    4499:	eb 0a                	jmp    44a5 <safe_mul_func_double_f_f+0x5f>
    449b:	f2 0f 10 45 f8       	movsd  -0x8(%rbp),%xmm0
    44a0:	f2 0f 59 45 f0       	mulsd  -0x10(%rbp),%xmm0
    44a5:	5d                   	pop    %rbp
    44a6:	c3                   	retq   

00000000000044a7 <safe_div_func_double_f_f>:
    44a7:	f3 0f 1e fa          	endbr64 
    44ab:	55                   	push   %rbp
    44ac:	48 89 e5             	mov    %rsp,%rbp
    44af:	f2 0f 11 45 f8       	movsd  %xmm0,-0x8(%rbp)
    44b4:	f2 0f 11 4d f0       	movsd  %xmm1,-0x10(%rbp)
    44b9:	f2 0f 10 45 f0       	movsd  -0x10(%rbp),%xmm0
    44be:	f3 0f 7e 0d da 7c 00 	movq   0x7cda(%rip),%xmm1        # c1a0 <g_1991+0x1120>
    44c5:	00 
    44c6:	66 0f 54 c8          	andpd  %xmm0,%xmm1
    44ca:	f2 0f 10 05 fe 7c 00 	movsd  0x7cfe(%rip),%xmm0        # c1d0 <g_1991+0x1150>
    44d1:	00 
    44d2:	66 0f 2f c1          	comisd %xmm1,%xmm0
    44d6:	0f 97 c0             	seta   %al
    44d9:	83 f0 01             	xor    $0x1,%eax
    44dc:	84 c0                	test   %al,%al
    44de:	75 5a                	jne    453a <safe_div_func_double_f_f+0x93>
    44e0:	66 0f ef c0          	pxor   %xmm0,%xmm0
    44e4:	66 0f 2e 45 f0       	ucomisd -0x10(%rbp),%xmm0
    44e9:	7a 0b                	jp     44f6 <safe_div_func_double_f_f+0x4f>
    44eb:	66 0f ef c0          	pxor   %xmm0,%xmm0
    44ef:	66 0f 2e 45 f0       	ucomisd -0x10(%rbp),%xmm0
    44f4:	74 50                	je     4546 <safe_div_func_double_f_f+0x9f>
    44f6:	f2 0f 10 4d f8       	movsd  -0x8(%rbp),%xmm1
    44fb:	f2 0f 10 05 d5 7c 00 	movsd  0x7cd5(%rip),%xmm0        # c1d8 <g_1991+0x1158>
    4502:	00 
    4503:	f2 0f 59 c1          	mulsd  %xmm1,%xmm0
    4507:	f2 0f 10 55 f0       	movsd  -0x10(%rbp),%xmm2
    450c:	f2 0f 10 0d cc 7c 00 	movsd  0x7ccc(%rip),%xmm1        # c1e0 <g_1991+0x1160>
    4513:	00 
    4514:	f2 0f 59 ca          	mulsd  %xmm2,%xmm1
    4518:	f2 0f 5e c1          	divsd  %xmm1,%xmm0
    451c:	f3 0f 7e 0d 7c 7c 00 	movq   0x7c7c(%rip),%xmm1        # c1a0 <g_1991+0x1120>
    4523:	00 
    4524:	66 0f 54 c1          	andpd  %xmm1,%xmm0
    4528:	66 0f 2f 05 b8 7c 00 	comisd 0x7cb8(%rip),%xmm0        # c1e8 <g_1991+0x1168>
    452f:	00 
    4530:	0f 97 c0             	seta   %al
    4533:	83 f0 01             	xor    $0x1,%eax
    4536:	84 c0                	test   %al,%al
    4538:	74 0c                	je     4546 <safe_div_func_double_f_f+0x9f>
    453a:	f2 0f 10 45 f8       	movsd  -0x8(%rbp),%xmm0
    453f:	f2 0f 5e 45 f0       	divsd  -0x10(%rbp),%xmm0
    4544:	eb 05                	jmp    454b <safe_div_func_double_f_f+0xa4>
    4546:	f2 0f 10 45 f8       	movsd  -0x8(%rbp),%xmm0
    454b:	5d                   	pop    %rbp
    454c:	c3                   	retq   

000000000000454d <safe_convert_func_float_to_int32_t>:
    454d:	f3 0f 1e fa          	endbr64 
    4551:	55                   	push   %rbp
    4552:	48 89 e5             	mov    %rsp,%rbp
    4555:	f3 0f 11 45 fc       	movss  %xmm0,-0x4(%rbp)
    455a:	f3 0f 10 05 8e 7c 00 	movss  0x7c8e(%rip),%xmm0        # c1f0 <g_1991+0x1170>
    4561:	00 
    4562:	0f 2f 45 fc          	comiss -0x4(%rbp),%xmm0
    4566:	0f 93 c0             	setae  %al
    4569:	83 f0 01             	xor    $0x1,%eax
    456c:	84 c0                	test   %al,%al
    456e:	74 21                	je     4591 <safe_convert_func_float_to_int32_t+0x44>
    4570:	f3 0f 10 45 fc       	movss  -0x4(%rbp),%xmm0
    4575:	0f 2f 05 78 7c 00 00 	comiss 0x7c78(%rip),%xmm0        # c1f4 <g_1991+0x1174>
    457c:	0f 93 c0             	setae  %al
    457f:	83 f0 01             	xor    $0x1,%eax
    4582:	84 c0                	test   %al,%al
    4584:	74 0b                	je     4591 <safe_convert_func_float_to_int32_t+0x44>
    4586:	f3 0f 10 45 fc       	movss  -0x4(%rbp),%xmm0
    458b:	f3 0f 2c c0          	cvttss2si %xmm0,%eax
    458f:	eb 05                	jmp    4596 <safe_convert_func_float_to_int32_t+0x49>
    4591:	b8 ff ff ff 7f       	mov    $0x7fffffff,%eax
    4596:	5d                   	pop    %rbp
    4597:	c3                   	retq   

0000000000004598 <crc32_gentab>:
    4598:	f3 0f 1e fa          	endbr64 
    459c:	55                   	push   %rbp
    459d:	48 89 e5             	mov    %rsp,%rbp
    45a0:	c7 45 fc 20 83 b8 ed 	movl   $0xedb88320,-0x4(%rbp)
    45a7:	c7 45 f4 00 00 00 00 	movl   $0x0,-0xc(%rbp)
    45ae:	eb 51                	jmp    4601 <crc32_gentab+0x69>
    45b0:	8b 45 f4             	mov    -0xc(%rbp),%eax
    45b3:	89 45 f0             	mov    %eax,-0x10(%rbp)
    45b6:	c7 45 f8 08 00 00 00 	movl   $0x8,-0x8(%rbp)
    45bd:	eb 1e                	jmp    45dd <crc32_gentab+0x45>
    45bf:	8b 45 f0             	mov    -0x10(%rbp),%eax
    45c2:	83 e0 01             	and    $0x1,%eax
    45c5:	85 c0                	test   %eax,%eax
    45c7:	74 0d                	je     45d6 <crc32_gentab+0x3e>
    45c9:	8b 45 f0             	mov    -0x10(%rbp),%eax
    45cc:	d1 e8                	shr    %eax
    45ce:	33 45 fc             	xor    -0x4(%rbp),%eax
    45d1:	89 45 f0             	mov    %eax,-0x10(%rbp)
    45d4:	eb 03                	jmp    45d9 <crc32_gentab+0x41>
    45d6:	d1 6d f0             	shrl   -0x10(%rbp)
    45d9:	83 6d f8 01          	subl   $0x1,-0x8(%rbp)
    45dd:	83 7d f8 00          	cmpl   $0x0,-0x8(%rbp)
    45e1:	7f dc                	jg     45bf <crc32_gentab+0x27>
    45e3:	8b 45 f4             	mov    -0xc(%rbp),%eax
    45e6:	48 98                	cltq   
    45e8:	48 8d 0c 85 00 00 00 	lea    0x0(,%rax,4),%rcx
    45ef:	00 
    45f0:	48 8d 15 29 c0 00 00 	lea    0xc029(%rip),%rdx        # 10620 <crc32_tab>
    45f7:	8b 45 f0             	mov    -0x10(%rbp),%eax
    45fa:	89 04 11             	mov    %eax,(%rcx,%rdx,1)
    45fd:	83 45 f4 01          	addl   $0x1,-0xc(%rbp)
    4601:	81 7d f4 ff 00 00 00 	cmpl   $0xff,-0xc(%rbp)
    4608:	7e a6                	jle    45b0 <crc32_gentab+0x18>
    460a:	90                   	nop
    460b:	90                   	nop
    460c:	5d                   	pop    %rbp
    460d:	c3                   	retq   

000000000000460e <crc32_byte>:
    460e:	f3 0f 1e fa          	endbr64 
    4612:	55                   	push   %rbp
    4613:	48 89 e5             	mov    %rsp,%rbp
    4616:	89 f8                	mov    %edi,%eax
    4618:	88 45 fc             	mov    %al,-0x4(%rbp)
    461b:	8b 05 ff a9 00 00    	mov    0xa9ff(%rip),%eax        # f020 <crc32_context>
    4621:	c1 e8 08             	shr    $0x8,%eax
    4624:	89 c1                	mov    %eax,%ecx
    4626:	0f b6 55 fc          	movzbl -0x4(%rbp),%edx
    462a:	8b 05 f0 a9 00 00    	mov    0xa9f0(%rip),%eax        # f020 <crc32_context>
    4630:	31 d0                	xor    %edx,%eax
    4632:	0f b6 c0             	movzbl %al,%eax
    4635:	89 c0                	mov    %eax,%eax
    4637:	48 8d 14 85 00 00 00 	lea    0x0(,%rax,4),%rdx
    463e:	00 
    463f:	48 8d 05 da bf 00 00 	lea    0xbfda(%rip),%rax        # 10620 <crc32_tab>
    4646:	8b 04 02             	mov    (%rdx,%rax,1),%eax
    4649:	31 c8                	xor    %ecx,%eax
    464b:	89 05 cf a9 00 00    	mov    %eax,0xa9cf(%rip)        # f020 <crc32_context>
    4651:	90                   	nop
    4652:	5d                   	pop    %rbp
    4653:	c3                   	retq   

0000000000004654 <crc32_8bytes>:
    4654:	f3 0f 1e fa          	endbr64 
    4658:	55                   	push   %rbp
    4659:	48 89 e5             	mov    %rsp,%rbp
    465c:	48 83 ec 08          	sub    $0x8,%rsp
    4660:	48 89 7d f8          	mov    %rdi,-0x8(%rbp)
    4664:	48 8b 45 f8          	mov    -0x8(%rbp),%rax
    4668:	0f b6 c0             	movzbl %al,%eax
    466b:	89 c7                	mov    %eax,%edi
    466d:	e8 9c ff ff ff       	callq  460e <crc32_byte>
    4672:	48 8b 45 f8          	mov    -0x8(%rbp),%rax
    4676:	48 c1 e8 08          	shr    $0x8,%rax
    467a:	0f b6 c0             	movzbl %al,%eax
    467d:	89 c7                	mov    %eax,%edi
    467f:	e8 8a ff ff ff       	callq  460e <crc32_byte>
    4684:	48 8b 45 f8          	mov    -0x8(%rbp),%rax
    4688:	48 c1 e8 10          	shr    $0x10,%rax
    468c:	0f b6 c0             	movzbl %al,%eax
    468f:	89 c7                	mov    %eax,%edi
    4691:	e8 78 ff ff ff       	callq  460e <crc32_byte>
    4696:	48 8b 45 f8          	mov    -0x8(%rbp),%rax
    469a:	48 c1 e8 18          	shr    $0x18,%rax
    469e:	0f b6 c0             	movzbl %al,%eax
    46a1:	89 c7                	mov    %eax,%edi
    46a3:	e8 66 ff ff ff       	callq  460e <crc32_byte>
    46a8:	48 8b 45 f8          	mov    -0x8(%rbp),%rax
    46ac:	48 c1 e8 20          	shr    $0x20,%rax
    46b0:	0f b6 c0             	movzbl %al,%eax
    46b3:	89 c7                	mov    %eax,%edi
    46b5:	e8 54 ff ff ff       	callq  460e <crc32_byte>
    46ba:	48 8b 45 f8          	mov    -0x8(%rbp),%rax
    46be:	48 c1 e8 28          	shr    $0x28,%rax
    46c2:	0f b6 c0             	movzbl %al,%eax
    46c5:	89 c7                	mov    %eax,%edi
    46c7:	e8 42 ff ff ff       	callq  460e <crc32_byte>
    46cc:	48 8b 45 f8          	mov    -0x8(%rbp),%rax
    46d0:	48 c1 e8 30          	shr    $0x30,%rax
    46d4:	0f b6 c0             	movzbl %al,%eax
    46d7:	89 c7                	mov    %eax,%edi
    46d9:	e8 30 ff ff ff       	callq  460e <crc32_byte>
    46de:	48 8b 45 f8          	mov    -0x8(%rbp),%rax
    46e2:	48 c1 e8 38          	shr    $0x38,%rax
    46e6:	0f b6 c0             	movzbl %al,%eax
    46e9:	89 c7                	mov    %eax,%edi
    46eb:	e8 1e ff ff ff       	callq  460e <crc32_byte>
    46f0:	90                   	nop
    46f1:	c9                   	leaveq 
    46f2:	c3                   	retq   

00000000000046f3 <transparent_crc>:
    46f3:	f3 0f 1e fa          	endbr64 
    46f7:	55                   	push   %rbp
    46f8:	48 89 e5             	mov    %rsp,%rbp
    46fb:	48 83 ec 20          	sub    $0x20,%rsp
    46ff:	48 89 7d f8          	mov    %rdi,-0x8(%rbp)
    4703:	48 89 75 f0          	mov    %rsi,-0x10(%rbp)
    4707:	89 55 ec             	mov    %edx,-0x14(%rbp)
    470a:	48 8b 45 f8          	mov    -0x8(%rbp),%rax
    470e:	48 89 c7             	mov    %rax,%rdi
    4711:	e8 3e ff ff ff       	callq  4654 <crc32_8bytes>
    4716:	83 7d ec 00          	cmpl   $0x0,-0x14(%rbp)
    471a:	74 22                	je     473e <transparent_crc+0x4b>
    471c:	8b 05 fe a8 00 00    	mov    0xa8fe(%rip),%eax        # f020 <crc32_context>
    4722:	f7 d0                	not    %eax
    4724:	89 c2                	mov    %eax,%edx
    4726:	48 8b 45 f0          	mov    -0x10(%rbp),%rax
    472a:	48 89 c6             	mov    %rax,%rsi
    472d:	48 8d 3d fc 68 00 00 	lea    0x68fc(%rip),%rdi        # b030 <_IO_stdin_used+0x30>
    4734:	b8 00 00 00 00       	mov    $0x0,%eax
    4739:	e8 42 e9 ff ff       	callq  3080 <printf@plt>
    473e:	90                   	nop
    473f:	c9                   	leaveq 
    4740:	c3                   	retq   

0000000000004741 <transparent_crc_bytes>:
    4741:	f3 0f 1e fa          	endbr64 
    4745:	55                   	push   %rbp
    4746:	48 89 e5             	mov    %rsp,%rbp
    4749:	48 83 ec 30          	sub    $0x30,%rsp
    474d:	48 89 7d e8          	mov    %rdi,-0x18(%rbp)
    4751:	89 75 e4             	mov    %esi,-0x1c(%rbp)
    4754:	48 89 55 d8          	mov    %rdx,-0x28(%rbp)
    4758:	89 4d e0             	mov    %ecx,-0x20(%rbp)
    475b:	c7 45 fc 00 00 00 00 	movl   $0x0,-0x4(%rbp)
    4762:	eb 1e                	jmp    4782 <transparent_crc_bytes+0x41>
    4764:	8b 45 fc             	mov    -0x4(%rbp),%eax
    4767:	48 63 d0             	movslq %eax,%rdx
    476a:	48 8b 45 e8          	mov    -0x18(%rbp),%rax
    476e:	48 01 d0             	add    %rdx,%rax
    4771:	0f b6 00             	movzbl (%rax),%eax
    4774:	0f b6 c0             	movzbl %al,%eax
    4777:	89 c7                	mov    %eax,%edi
    4779:	e8 90 fe ff ff       	callq  460e <crc32_byte>
    477e:	83 45 fc 01          	addl   $0x1,-0x4(%rbp)
    4782:	8b 45 fc             	mov    -0x4(%rbp),%eax
    4785:	3b 45 e4             	cmp    -0x1c(%rbp),%eax
    4788:	7c da                	jl     4764 <transparent_crc_bytes+0x23>
    478a:	83 7d e0 00          	cmpl   $0x0,-0x20(%rbp)
    478e:	74 22                	je     47b2 <transparent_crc_bytes+0x71>
    4790:	8b 05 8a a8 00 00    	mov    0xa88a(%rip),%eax        # f020 <crc32_context>
    4796:	f7 d0                	not    %eax
    4798:	89 c2                	mov    %eax,%edx
    479a:	48 8b 45 d8          	mov    -0x28(%rbp),%rax
    479e:	48 89 c6             	mov    %rax,%rsi
    47a1:	48 8d 3d 88 68 00 00 	lea    0x6888(%rip),%rdi        # b030 <_IO_stdin_used+0x30>
    47a8:	b8 00 00 00 00       	mov    $0x0,%eax
    47ad:	e8 ce e8 ff ff       	callq  3080 <printf@plt>
    47b2:	90                   	nop
    47b3:	c9                   	leaveq 
    47b4:	c3                   	retq   

00000000000047b5 <func_1>:
    47b5:	f3 0f 1e fa          	endbr64 
    47b9:	55                   	push   %rbp
    47ba:	48 89 e5             	mov    %rsp,%rbp
    47bd:	41 56                	push   %r14
    47bf:	41 55                	push   %r13
    47c1:	41 54                	push   %r12
    47c3:	53                   	push   %rbx
    47c4:	48 81 ec 10 08 00 00 	sub    $0x810,%rsp
    47cb:	64 48 8b 04 25 28 00 	mov    %fs:0x28,%rax
    47d2:	00 00 
    47d4:	48 89 45 d8          	mov    %rax,-0x28(%rbp)
    47d8:	31 c0                	xor    %eax,%eax
    47da:	c7 85 00 f8 ff ff 1b 	movl   $0xb63e8e1b,-0x800(%rbp)
    47e1:	8e 3e b6 
    47e4:	48 8d 05 3d a8 00 00 	lea    0xa83d(%rip),%rax        # f028 <g_5>
    47eb:	48 89 85 40 f8 ff ff 	mov    %rax,-0x7c0(%rbp)
    47f2:	c7 85 e0 f7 ff ff 8f 	movl   $0x545ee28f,-0x820(%rbp)
    47f9:	e2 5e 54 
    47fc:	48 8d 85 e0 f7 ff ff 	lea    -0x820(%rbp),%rax
    4803:	48 89 85 48 f8 ff ff 	mov    %rax,-0x7b8(%rbp)
    480a:	48 8d 05 17 a8 00 00 	lea    0xa817(%rip),%rax        # f028 <g_5>
    4811:	48 89 85 50 f8 ff ff 	mov    %rax,-0x7b0(%rbp)
    4818:	48 8d 05 09 a8 00 00 	lea    0xa809(%rip),%rax        # f028 <g_5>
    481f:	48 89 85 18 f8 ff ff 	mov    %rax,-0x7e8(%rbp)
    4826:	48 8d 85 e0 f7 ff ff 	lea    -0x820(%rbp),%rax
    482d:	48 89 85 58 f8 ff ff 	mov    %rax,-0x7a8(%rbp)
    4834:	48 8d 85 e0 f7 ff ff 	lea    -0x820(%rbp),%rax
    483b:	48 89 85 20 f8 ff ff 	mov    %rax,-0x7e0(%rbp)
    4842:	c7 85 e4 f7 ff ff 9e 	movl   $0x6b6feb9e,-0x81c(%rbp)
    4849:	eb 6f 6b 
    484c:	48 8d 05 09 ab 00 00 	lea    0xab09(%rip),%rax        # f35c <g_204+0xc>
    4853:	48 89 85 30 f8 ff ff 	mov    %rax,-0x7d0(%rbp)
    485a:	c7 85 e8 f7 ff ff 00 	movl   $0x0,-0x818(%rbp)
    4861:	00 00 00 
    4864:	eb 46                	jmp    48ac <func_1+0xf7>
    4866:	c7 85 ec f7 ff ff 00 	movl   $0x0,-0x814(%rbp)
    486d:	00 00 00 
    4870:	eb 2a                	jmp    489c <func_1+0xe7>
    4872:	8b 85 ec f7 ff ff    	mov    -0x814(%rbp),%eax
    4878:	48 98                	cltq   
    487a:	8b 95 e8 f7 ff ff    	mov    -0x818(%rbp),%edx
    4880:	48 63 d2             	movslq %edx,%rdx
    4883:	48 01 d2             	add    %rdx,%rdx
    4886:	48 01 d0             	add    %rdx,%rax
    4889:	48 c7 84 c5 e0 f8 ff 	movq   $0x0,-0x720(%rbp,%rax,8)
    4890:	ff 00 00 00 00 
    4895:	83 85 ec f7 ff ff 01 	addl   $0x1,-0x814(%rbp)
    489c:	83 bd ec f7 ff ff 01 	cmpl   $0x1,-0x814(%rbp)
    48a3:	7e cd                	jle    4872 <func_1+0xbd>
    48a5:	83 85 e8 f7 ff ff 01 	addl   $0x1,-0x818(%rbp)
    48ac:	83 bd e8 f7 ff ff 05 	cmpl   $0x5,-0x818(%rbp)
    48b3:	7e b1                	jle    4866 <func_1+0xb1>
    48b5:	8b 05 69 a7 00 00    	mov    0xa769(%rip),%eax        # f024 <g_3>
    48bb:	39 85 00 f8 ff ff    	cmp    %eax,-0x800(%rbp)
    48c1:	0f 9c c0             	setl   %al
    48c4:	0f b6 d0             	movzbl %al,%edx
    48c7:	48 8b 85 40 f8 ff ff 	mov    -0x7c0(%rbp),%rax
    48ce:	89 10                	mov    %edx,(%rax)
    48d0:	0f b7 05 57 a7 00 00 	movzwl 0xa757(%rip),%eax        # f02e <g_15>
    48d7:	83 c0 01             	add    $0x1,%eax
    48da:	66 89 05 4d a7 00 00 	mov    %ax,0xa74d(%rip)        # f02e <g_15>
    48e1:	66 c7 05 44 a7 00 00 	movw   $0x0,0xa744(%rip)        # f02e <g_15>
    48e8:	00 00 
    48ea:	e9 3f 10 00 00       	jmpq   592e <func_1+0x1179>
    48ef:	c7 85 f0 f7 ff ff fc 	movl   $0xfffffffc,-0x810(%rbp)
    48f6:	ff ff ff 
    48f9:	c7 85 04 f8 ff ff 04 	movl   $0x4,-0x7fc(%rbp)
    4900:	00 00 00 
    4903:	c7 85 08 f8 ff ff ff 	movl   $0xffffffff,-0x7f8(%rbp)
    490a:	ff ff ff 
    490d:	48 8d 05 40 67 00 00 	lea    0x6740(%rip),%rax        # b054 <g_59>
    4914:	48 89 85 28 f8 ff ff 	mov    %rax,-0x7d8(%rbp)
    491b:	48 8d 85 28 f8 ff ff 	lea    -0x7d8(%rbp),%rax
    4922:	48 89 85 40 f9 ff ff 	mov    %rax,-0x6c0(%rbp)
    4929:	48 8d 85 28 f8 ff ff 	lea    -0x7d8(%rbp),%rax
    4930:	48 89 85 48 f9 ff ff 	mov    %rax,-0x6b8(%rbp)
    4937:	48 c7 85 50 f9 ff ff 	movq   $0x0,-0x6b0(%rbp)
    493e:	00 00 00 00 
    4942:	48 8d 85 28 f8 ff ff 	lea    -0x7d8(%rbp),%rax
    4949:	48 89 85 58 f9 ff ff 	mov    %rax,-0x6a8(%rbp)
    4950:	48 c7 85 60 f9 ff ff 	movq   $0x0,-0x6a0(%rbp)
    4957:	00 00 00 00 
    495b:	48 c7 85 68 f9 ff ff 	movq   $0x0,-0x698(%rbp)
    4962:	00 00 00 00 
    4966:	48 8d 85 28 f8 ff ff 	lea    -0x7d8(%rbp),%rax
    496d:	48 89 85 70 f9 ff ff 	mov    %rax,-0x690(%rbp)
    4974:	48 8d 85 28 f8 ff ff 	lea    -0x7d8(%rbp),%rax
    497b:	48 89 85 78 f9 ff ff 	mov    %rax,-0x688(%rbp)
    4982:	48 c7 85 80 f9 ff ff 	movq   $0x0,-0x680(%rbp)
    4989:	00 00 00 00 
    498d:	48 8d 85 28 f8 ff ff 	lea    -0x7d8(%rbp),%rax
    4994:	48 89 85 88 f9 ff ff 	mov    %rax,-0x678(%rbp)
    499b:	48 8d 85 28 f8 ff ff 	lea    -0x7d8(%rbp),%rax
    49a2:	48 89 85 90 f9 ff ff 	mov    %rax,-0x670(%rbp)
    49a9:	48 8d 85 28 f8 ff ff 	lea    -0x7d8(%rbp),%rax
    49b0:	48 89 85 98 f9 ff ff 	mov    %rax,-0x668(%rbp)
    49b7:	48 8d 85 28 f8 ff ff 	lea    -0x7d8(%rbp),%rax
    49be:	48 89 85 a0 f9 ff ff 	mov    %rax,-0x660(%rbp)
    49c5:	48 8d 85 28 f8 ff ff 	lea    -0x7d8(%rbp),%rax
    49cc:	48 89 85 a8 f9 ff ff 	mov    %rax,-0x658(%rbp)
    49d3:	48 8d 85 28 f8 ff ff 	lea    -0x7d8(%rbp),%rax
    49da:	48 89 85 b0 f9 ff ff 	mov    %rax,-0x650(%rbp)
    49e1:	48 8d 85 28 f8 ff ff 	lea    -0x7d8(%rbp),%rax
    49e8:	48 89 85 b8 f9 ff ff 	mov    %rax,-0x648(%rbp)
    49ef:	48 c7 85 c0 f9 ff ff 	movq   $0x0,-0x640(%rbp)
    49f6:	00 00 00 00 
    49fa:	48 c7 85 c8 f9 ff ff 	movq   $0x0,-0x638(%rbp)
    4a01:	00 00 00 00 
    4a05:	48 8d 85 28 f8 ff ff 	lea    -0x7d8(%rbp),%rax
    4a0c:	48 89 85 d0 f9 ff ff 	mov    %rax,-0x630(%rbp)
    4a13:	48 c7 85 d8 f9 ff ff 	movq   $0x0,-0x628(%rbp)
    4a1a:	00 00 00 00 
    4a1e:	48 8d 85 28 f8 ff ff 	lea    -0x7d8(%rbp),%rax
    4a25:	48 89 85 e0 f9 ff ff 	mov    %rax,-0x620(%rbp)
    4a2c:	48 8d 85 28 f8 ff ff 	lea    -0x7d8(%rbp),%rax
    4a33:	48 89 85 e8 f9 ff ff 	mov    %rax,-0x618(%rbp)
    4a3a:	48 c7 85 f0 f9 ff ff 	movq   $0x0,-0x610(%rbp)
    4a41:	00 00 00 00 
    4a45:	48 8d 85 28 f8 ff ff 	lea    -0x7d8(%rbp),%rax
    4a4c:	48 89 85 f8 f9 ff ff 	mov    %rax,-0x608(%rbp)
    4a53:	48 c7 85 00 fa ff ff 	movq   $0x0,-0x600(%rbp)
    4a5a:	00 00 00 00 
    4a5e:	48 8d 85 28 f8 ff ff 	lea    -0x7d8(%rbp),%rax
    4a65:	48 89 85 08 fa ff ff 	mov    %rax,-0x5f8(%rbp)
    4a6c:	48 8d 85 28 f8 ff ff 	lea    -0x7d8(%rbp),%rax
    4a73:	48 89 85 10 fa ff ff 	mov    %rax,-0x5f0(%rbp)
    4a7a:	48 c7 85 18 fa ff ff 	movq   $0x0,-0x5e8(%rbp)
    4a81:	00 00 00 00 
    4a85:	48 8d 85 28 f8 ff ff 	lea    -0x7d8(%rbp),%rax
    4a8c:	48 89 85 20 fa ff ff 	mov    %rax,-0x5e0(%rbp)
    4a93:	48 8d 85 28 f8 ff ff 	lea    -0x7d8(%rbp),%rax
    4a9a:	48 89 85 28 fa ff ff 	mov    %rax,-0x5d8(%rbp)
    4aa1:	48 c7 85 30 fa ff ff 	movq   $0x0,-0x5d0(%rbp)
    4aa8:	00 00 00 00 
    4aac:	48 8d 85 28 f8 ff ff 	lea    -0x7d8(%rbp),%rax
    4ab3:	48 89 85 38 fa ff ff 	mov    %rax,-0x5c8(%rbp)
    4aba:	48 8d 85 28 f8 ff ff 	lea    -0x7d8(%rbp),%rax
    4ac1:	48 89 85 40 fa ff ff 	mov    %rax,-0x5c0(%rbp)
    4ac8:	48 c7 85 48 fa ff ff 	movq   $0x0,-0x5b8(%rbp)
    4acf:	00 00 00 00 
    4ad3:	48 8d 85 28 f8 ff ff 	lea    -0x7d8(%rbp),%rax
    4ada:	48 89 85 50 fa ff ff 	mov    %rax,-0x5b0(%rbp)
    4ae1:	48 8d 85 28 f8 ff ff 	lea    -0x7d8(%rbp),%rax
    4ae8:	48 89 85 58 fa ff ff 	mov    %rax,-0x5a8(%rbp)
    4aef:	48 c7 85 60 fa ff ff 	movq   $0x0,-0x5a0(%rbp)
    4af6:	00 00 00 00 
    4afa:	48 c7 85 68 fa ff ff 	movq   $0x0,-0x598(%rbp)
    4b01:	00 00 00 00 
    4b05:	48 8d 85 28 f8 ff ff 	lea    -0x7d8(%rbp),%rax
    4b0c:	48 89 85 70 fa ff ff 	mov    %rax,-0x590(%rbp)
    4b13:	48 8d 85 28 f8 ff ff 	lea    -0x7d8(%rbp),%rax
    4b1a:	48 89 85 78 fa ff ff 	mov    %rax,-0x588(%rbp)
    4b21:	48 8d 85 28 f8 ff ff 	lea    -0x7d8(%rbp),%rax
    4b28:	48 89 85 80 fa ff ff 	mov    %rax,-0x580(%rbp)
    4b2f:	48 8d 85 28 f8 ff ff 	lea    -0x7d8(%rbp),%rax
    4b36:	48 89 85 88 fa ff ff 	mov    %rax,-0x578(%rbp)
    4b3d:	48 8d 85 28 f8 ff ff 	lea    -0x7d8(%rbp),%rax
    4b44:	48 89 85 90 fa ff ff 	mov    %rax,-0x570(%rbp)
    4b4b:	48 8d 85 28 f8 ff ff 	lea    -0x7d8(%rbp),%rax
    4b52:	48 89 85 98 fa ff ff 	mov    %rax,-0x568(%rbp)
    4b59:	48 8d 85 28 f8 ff ff 	lea    -0x7d8(%rbp),%rax
    4b60:	48 89 85 a0 fa ff ff 	mov    %rax,-0x560(%rbp)
    4b67:	48 8d 85 28 f8 ff ff 	lea    -0x7d8(%rbp),%rax
    4b6e:	48 89 85 a8 fa ff ff 	mov    %rax,-0x558(%rbp)
    4b75:	48 c7 85 b0 fa ff ff 	movq   $0x0,-0x550(%rbp)
    4b7c:	00 00 00 00 
    4b80:	48 8d 85 28 f8 ff ff 	lea    -0x7d8(%rbp),%rax
    4b87:	48 89 85 b8 fa ff ff 	mov    %rax,-0x548(%rbp)
    4b8e:	48 8d 85 28 f8 ff ff 	lea    -0x7d8(%rbp),%rax
    4b95:	48 89 85 c0 fa ff ff 	mov    %rax,-0x540(%rbp)
    4b9c:	48 8d 85 28 f8 ff ff 	lea    -0x7d8(%rbp),%rax
    4ba3:	48 89 85 c8 fa ff ff 	mov    %rax,-0x538(%rbp)
    4baa:	48 8d 85 28 f8 ff ff 	lea    -0x7d8(%rbp),%rax
    4bb1:	48 89 85 d0 fa ff ff 	mov    %rax,-0x530(%rbp)
    4bb8:	48 8d 85 28 f8 ff ff 	lea    -0x7d8(%rbp),%rax
    4bbf:	48 89 85 d8 fa ff ff 	mov    %rax,-0x528(%rbp)
    4bc6:	48 8d 85 28 f8 ff ff 	lea    -0x7d8(%rbp),%rax
    4bcd:	48 89 85 e0 fa ff ff 	mov    %rax,-0x520(%rbp)
    4bd4:	48 8d 85 28 f8 ff ff 	lea    -0x7d8(%rbp),%rax
    4bdb:	48 89 85 e8 fa ff ff 	mov    %rax,-0x518(%rbp)
    4be2:	48 8d 85 28 f8 ff ff 	lea    -0x7d8(%rbp),%rax
    4be9:	48 89 85 f0 fa ff ff 	mov    %rax,-0x510(%rbp)
    4bf0:	48 8d 85 28 f8 ff ff 	lea    -0x7d8(%rbp),%rax
    4bf7:	48 89 85 f8 fa ff ff 	mov    %rax,-0x508(%rbp)
    4bfe:	48 8d 85 28 f8 ff ff 	lea    -0x7d8(%rbp),%rax
    4c05:	48 89 85 00 fb ff ff 	mov    %rax,-0x500(%rbp)
    4c0c:	48 8d 85 28 f8 ff ff 	lea    -0x7d8(%rbp),%rax
    4c13:	48 89 85 08 fb ff ff 	mov    %rax,-0x4f8(%rbp)
    4c1a:	48 8d 85 28 f8 ff ff 	lea    -0x7d8(%rbp),%rax
    4c21:	48 89 85 10 fb ff ff 	mov    %rax,-0x4f0(%rbp)
    4c28:	48 8d 85 28 f8 ff ff 	lea    -0x7d8(%rbp),%rax
    4c2f:	48 89 85 18 fb ff ff 	mov    %rax,-0x4e8(%rbp)
    4c36:	48 8d 85 28 f8 ff ff 	lea    -0x7d8(%rbp),%rax
    4c3d:	48 89 85 20 fb ff ff 	mov    %rax,-0x4e0(%rbp)
    4c44:	48 8d 85 28 f8 ff ff 	lea    -0x7d8(%rbp),%rax
    4c4b:	48 89 85 28 fb ff ff 	mov    %rax,-0x4d8(%rbp)
    4c52:	48 c7 85 30 fb ff ff 	movq   $0x0,-0x4d0(%rbp)
    4c59:	00 00 00 00 
    4c5d:	48 8d 85 28 f8 ff ff 	lea    -0x7d8(%rbp),%rax
    4c64:	48 89 85 38 fb ff ff 	mov    %rax,-0x4c8(%rbp)
    4c6b:	48 8d 85 28 f8 ff ff 	lea    -0x7d8(%rbp),%rax
    4c72:	48 89 85 40 fb ff ff 	mov    %rax,-0x4c0(%rbp)
    4c79:	48 8d 85 28 f8 ff ff 	lea    -0x7d8(%rbp),%rax
    4c80:	48 89 85 48 fb ff ff 	mov    %rax,-0x4b8(%rbp)
    4c87:	48 8d 85 28 f8 ff ff 	lea    -0x7d8(%rbp),%rax
    4c8e:	48 89 85 50 fb ff ff 	mov    %rax,-0x4b0(%rbp)
    4c95:	48 8d 85 28 f8 ff ff 	lea    -0x7d8(%rbp),%rax
    4c9c:	48 89 85 58 fb ff ff 	mov    %rax,-0x4a8(%rbp)
    4ca3:	48 8d 85 28 f8 ff ff 	lea    -0x7d8(%rbp),%rax
    4caa:	48 89 85 60 fb ff ff 	mov    %rax,-0x4a0(%rbp)
    4cb1:	48 c7 85 68 fb ff ff 	movq   $0x0,-0x498(%rbp)
    4cb8:	00 00 00 00 
    4cbc:	48 8d 85 28 f8 ff ff 	lea    -0x7d8(%rbp),%rax
    4cc3:	48 89 85 70 fb ff ff 	mov    %rax,-0x490(%rbp)
    4cca:	48 8d 85 28 f8 ff ff 	lea    -0x7d8(%rbp),%rax
    4cd1:	48 89 85 78 fb ff ff 	mov    %rax,-0x488(%rbp)
    4cd8:	48 8d 85 28 f8 ff ff 	lea    -0x7d8(%rbp),%rax
    4cdf:	48 89 85 80 fb ff ff 	mov    %rax,-0x480(%rbp)
    4ce6:	48 8d 85 28 f8 ff ff 	lea    -0x7d8(%rbp),%rax
    4ced:	48 89 85 88 fb ff ff 	mov    %rax,-0x478(%rbp)
    4cf4:	48 8d 85 28 f8 ff ff 	lea    -0x7d8(%rbp),%rax
    4cfb:	48 89 85 90 fb ff ff 	mov    %rax,-0x470(%rbp)
    4d02:	48 8d 85 28 f8 ff ff 	lea    -0x7d8(%rbp),%rax
    4d09:	48 89 85 98 fb ff ff 	mov    %rax,-0x468(%rbp)
    4d10:	48 8d 85 28 f8 ff ff 	lea    -0x7d8(%rbp),%rax
    4d17:	48 89 85 a0 fb ff ff 	mov    %rax,-0x460(%rbp)
    4d1e:	48 8d 85 28 f8 ff ff 	lea    -0x7d8(%rbp),%rax
    4d25:	48 89 85 a8 fb ff ff 	mov    %rax,-0x458(%rbp)
    4d2c:	48 8d 85 28 f8 ff ff 	lea    -0x7d8(%rbp),%rax
    4d33:	48 89 85 b0 fb ff ff 	mov    %rax,-0x450(%rbp)
    4d3a:	48 8d 85 28 f8 ff ff 	lea    -0x7d8(%rbp),%rax
    4d41:	48 89 85 b8 fb ff ff 	mov    %rax,-0x448(%rbp)
    4d48:	48 8d 85 28 f8 ff ff 	lea    -0x7d8(%rbp),%rax
    4d4f:	48 89 85 c0 fb ff ff 	mov    %rax,-0x440(%rbp)
    4d56:	48 8d 85 28 f8 ff ff 	lea    -0x7d8(%rbp),%rax
    4d5d:	48 89 85 c8 fb ff ff 	mov    %rax,-0x438(%rbp)
    4d64:	48 8d 85 28 f8 ff ff 	lea    -0x7d8(%rbp),%rax
    4d6b:	48 89 85 d0 fb ff ff 	mov    %rax,-0x430(%rbp)
    4d72:	48 8d 85 28 f8 ff ff 	lea    -0x7d8(%rbp),%rax
    4d79:	48 89 85 d8 fb ff ff 	mov    %rax,-0x428(%rbp)
    4d80:	48 8d 85 28 f8 ff ff 	lea    -0x7d8(%rbp),%rax
    4d87:	48 89 85 e0 fb ff ff 	mov    %rax,-0x420(%rbp)
    4d8e:	48 c7 85 e8 fb ff ff 	movq   $0x0,-0x418(%rbp)
    4d95:	00 00 00 00 
    4d99:	48 c7 85 f0 fb ff ff 	movq   $0x0,-0x410(%rbp)
    4da0:	00 00 00 00 
    4da4:	48 8d 85 28 f8 ff ff 	lea    -0x7d8(%rbp),%rax
    4dab:	48 89 85 f8 fb ff ff 	mov    %rax,-0x408(%rbp)
    4db2:	48 8d 85 28 f8 ff ff 	lea    -0x7d8(%rbp),%rax
    4db9:	48 89 85 00 fc ff ff 	mov    %rax,-0x400(%rbp)
    4dc0:	48 8d 85 28 f8 ff ff 	lea    -0x7d8(%rbp),%rax
    4dc7:	48 89 85 08 fc ff ff 	mov    %rax,-0x3f8(%rbp)
    4dce:	48 8d 85 28 f8 ff ff 	lea    -0x7d8(%rbp),%rax
    4dd5:	48 89 85 10 fc ff ff 	mov    %rax,-0x3f0(%rbp)
    4ddc:	48 8d 85 28 f8 ff ff 	lea    -0x7d8(%rbp),%rax
    4de3:	48 89 85 18 fc ff ff 	mov    %rax,-0x3e8(%rbp)
    4dea:	48 8d 85 28 f8 ff ff 	lea    -0x7d8(%rbp),%rax
    4df1:	48 89 85 20 fc ff ff 	mov    %rax,-0x3e0(%rbp)
    4df8:	48 c7 85 28 fc ff ff 	movq   $0x0,-0x3d8(%rbp)
    4dff:	00 00 00 00 
    4e03:	48 c7 85 30 fc ff ff 	movq   $0x0,-0x3d0(%rbp)
    4e0a:	00 00 00 00 
    4e0e:	48 c7 85 38 fc ff ff 	movq   $0x0,-0x3c8(%rbp)
    4e15:	00 00 00 00 
    4e19:	48 8d 85 28 f8 ff ff 	lea    -0x7d8(%rbp),%rax
    4e20:	48 89 85 40 fc ff ff 	mov    %rax,-0x3c0(%rbp)
    4e27:	48 8d 85 28 f8 ff ff 	lea    -0x7d8(%rbp),%rax
    4e2e:	48 89 85 48 fc ff ff 	mov    %rax,-0x3b8(%rbp)
    4e35:	48 8d 85 28 f8 ff ff 	lea    -0x7d8(%rbp),%rax
    4e3c:	48 89 85 50 fc ff ff 	mov    %rax,-0x3b0(%rbp)
    4e43:	48 c7 85 58 fc ff ff 	movq   $0x0,-0x3a8(%rbp)
    4e4a:	00 00 00 00 
    4e4e:	48 8d 85 28 f8 ff ff 	lea    -0x7d8(%rbp),%rax
    4e55:	48 89 85 60 fc ff ff 	mov    %rax,-0x3a0(%rbp)
    4e5c:	48 c7 85 68 fc ff ff 	movq   $0x0,-0x398(%rbp)
    4e63:	00 00 00 00 
    4e67:	48 c7 85 70 fc ff ff 	movq   $0x0,-0x390(%rbp)
    4e6e:	00 00 00 00 
    4e72:	48 8d 85 28 f8 ff ff 	lea    -0x7d8(%rbp),%rax
    4e79:	48 89 85 78 fc ff ff 	mov    %rax,-0x388(%rbp)
    4e80:	48 8d 85 28 f8 ff ff 	lea    -0x7d8(%rbp),%rax
    4e87:	48 89 85 80 fc ff ff 	mov    %rax,-0x380(%rbp)
    4e8e:	48 8d 85 28 f8 ff ff 	lea    -0x7d8(%rbp),%rax
    4e95:	48 89 85 88 fc ff ff 	mov    %rax,-0x378(%rbp)
    4e9c:	48 8d 85 28 f8 ff ff 	lea    -0x7d8(%rbp),%rax
    4ea3:	48 89 85 90 fc ff ff 	mov    %rax,-0x370(%rbp)
    4eaa:	48 c7 85 98 fc ff ff 	movq   $0x0,-0x368(%rbp)
    4eb1:	00 00 00 00 
    4eb5:	48 8d 85 28 f8 ff ff 	lea    -0x7d8(%rbp),%rax
    4ebc:	48 89 85 a0 fc ff ff 	mov    %rax,-0x360(%rbp)
    4ec3:	48 c7 85 a8 fc ff ff 	movq   $0x0,-0x358(%rbp)
    4eca:	00 00 00 00 
    4ece:	48 8d 85 28 f8 ff ff 	lea    -0x7d8(%rbp),%rax
    4ed5:	48 89 85 b0 fc ff ff 	mov    %rax,-0x350(%rbp)
    4edc:	48 8d 85 28 f8 ff ff 	lea    -0x7d8(%rbp),%rax
    4ee3:	48 89 85 b8 fc ff ff 	mov    %rax,-0x348(%rbp)
    4eea:	48 c7 85 c0 fc ff ff 	movq   $0x0,-0x340(%rbp)
    4ef1:	00 00 00 00 
    4ef5:	48 8d 85 28 f8 ff ff 	lea    -0x7d8(%rbp),%rax
    4efc:	48 89 85 c8 fc ff ff 	mov    %rax,-0x338(%rbp)
    4f03:	48 8d 85 28 f8 ff ff 	lea    -0x7d8(%rbp),%rax
    4f0a:	48 89 85 d0 fc ff ff 	mov    %rax,-0x330(%rbp)
    4f11:	48 c7 85 d8 fc ff ff 	movq   $0x0,-0x328(%rbp)
    4f18:	00 00 00 00 
    4f1c:	48 c7 85 e0 fc ff ff 	movq   $0x0,-0x320(%rbp)
    4f23:	00 00 00 00 
    4f27:	48 c7 85 e8 fc ff ff 	movq   $0x0,-0x318(%rbp)
    4f2e:	00 00 00 00 
    4f32:	48 8d 85 28 f8 ff ff 	lea    -0x7d8(%rbp),%rax
    4f39:	48 89 85 f0 fc ff ff 	mov    %rax,-0x310(%rbp)
    4f40:	48 8d 85 28 f8 ff ff 	lea    -0x7d8(%rbp),%rax
    4f47:	48 89 85 f8 fc ff ff 	mov    %rax,-0x308(%rbp)
    4f4e:	48 c7 85 00 fd ff ff 	movq   $0x0,-0x300(%rbp)
    4f55:	00 00 00 00 
    4f59:	48 8d 85 28 f8 ff ff 	lea    -0x7d8(%rbp),%rax
    4f60:	48 89 85 08 fd ff ff 	mov    %rax,-0x2f8(%rbp)
    4f67:	48 8d 85 28 f8 ff ff 	lea    -0x7d8(%rbp),%rax
    4f6e:	48 89 85 10 fd ff ff 	mov    %rax,-0x2f0(%rbp)
    4f75:	48 c7 85 18 fd ff ff 	movq   $0x0,-0x2e8(%rbp)
    4f7c:	00 00 00 00 
    4f80:	48 8d 85 28 f8 ff ff 	lea    -0x7d8(%rbp),%rax
    4f87:	48 89 85 20 fd ff ff 	mov    %rax,-0x2e0(%rbp)
    4f8e:	48 8d 85 28 f8 ff ff 	lea    -0x7d8(%rbp),%rax
    4f95:	48 89 85 28 fd ff ff 	mov    %rax,-0x2d8(%rbp)
    4f9c:	48 8d 85 28 f8 ff ff 	lea    -0x7d8(%rbp),%rax
    4fa3:	48 89 85 30 fd ff ff 	mov    %rax,-0x2d0(%rbp)
    4faa:	48 c7 85 38 fd ff ff 	movq   $0x0,-0x2c8(%rbp)
    4fb1:	00 00 00 00 
    4fb5:	48 8d 85 28 f8 ff ff 	lea    -0x7d8(%rbp),%rax
    4fbc:	48 89 85 40 fd ff ff 	mov    %rax,-0x2c0(%rbp)
    4fc3:	48 c7 85 48 fd ff ff 	movq   $0x0,-0x2b8(%rbp)
    4fca:	00 00 00 00 
    4fce:	48 8d 85 28 f8 ff ff 	lea    -0x7d8(%rbp),%rax
    4fd5:	48 89 85 50 fd ff ff 	mov    %rax,-0x2b0(%rbp)
    4fdc:	48 8d 85 28 f8 ff ff 	lea    -0x7d8(%rbp),%rax
    4fe3:	48 89 85 58 fd ff ff 	mov    %rax,-0x2a8(%rbp)
    4fea:	48 c7 85 60 fd ff ff 	movq   $0x0,-0x2a0(%rbp)
    4ff1:	00 00 00 00 
    4ff5:	48 c7 85 68 fd ff ff 	movq   $0x0,-0x298(%rbp)
    4ffc:	00 00 00 00 
    5000:	48 8d 85 28 f8 ff ff 	lea    -0x7d8(%rbp),%rax
    5007:	48 89 85 70 fd ff ff 	mov    %rax,-0x290(%rbp)
    500e:	48 8d 85 28 f8 ff ff 	lea    -0x7d8(%rbp),%rax
    5015:	48 89 85 78 fd ff ff 	mov    %rax,-0x288(%rbp)
    501c:	48 8d 85 28 f8 ff ff 	lea    -0x7d8(%rbp),%rax
    5023:	48 89 85 80 fd ff ff 	mov    %rax,-0x280(%rbp)
    502a:	48 8d 85 28 f8 ff ff 	lea    -0x7d8(%rbp),%rax
    5031:	48 89 85 88 fd ff ff 	mov    %rax,-0x278(%rbp)
    5038:	48 8d 85 28 f8 ff ff 	lea    -0x7d8(%rbp),%rax
    503f:	48 89 85 90 fd ff ff 	mov    %rax,-0x270(%rbp)
    5046:	48 8d 85 28 f8 ff ff 	lea    -0x7d8(%rbp),%rax
    504d:	48 89 85 98 fd ff ff 	mov    %rax,-0x268(%rbp)
    5054:	48 c7 85 a0 fd ff ff 	movq   $0x0,-0x260(%rbp)
    505b:	00 00 00 00 
    505f:	48 c7 85 a8 fd ff ff 	movq   $0x0,-0x258(%rbp)
    5066:	00 00 00 00 
    506a:	48 8d 85 28 f8 ff ff 	lea    -0x7d8(%rbp),%rax
    5071:	48 89 85 b0 fd ff ff 	mov    %rax,-0x250(%rbp)
    5078:	48 8d 85 28 f8 ff ff 	lea    -0x7d8(%rbp),%rax
    507f:	48 89 85 b8 fd ff ff 	mov    %rax,-0x248(%rbp)
    5086:	48 c7 85 c0 fd ff ff 	movq   $0x0,-0x240(%rbp)
    508d:	00 00 00 00 
    5091:	48 8d 85 28 f8 ff ff 	lea    -0x7d8(%rbp),%rax
    5098:	48 89 85 c8 fd ff ff 	mov    %rax,-0x238(%rbp)
    509f:	48 8d 85 28 f8 ff ff 	lea    -0x7d8(%rbp),%rax
    50a6:	48 89 85 d0 fd ff ff 	mov    %rax,-0x230(%rbp)
    50ad:	48 8d 85 28 f8 ff ff 	lea    -0x7d8(%rbp),%rax
    50b4:	48 89 85 d8 fd ff ff 	mov    %rax,-0x228(%rbp)
    50bb:	48 8d 85 28 f8 ff ff 	lea    -0x7d8(%rbp),%rax
    50c2:	48 89 85 e0 fd ff ff 	mov    %rax,-0x220(%rbp)
    50c9:	48 8d 85 28 f8 ff ff 	lea    -0x7d8(%rbp),%rax
    50d0:	48 89 85 e8 fd ff ff 	mov    %rax,-0x218(%rbp)
    50d7:	48 c7 85 f0 fd ff ff 	movq   $0x0,-0x210(%rbp)
    50de:	00 00 00 00 
    50e2:	48 c7 85 f8 fd ff ff 	movq   $0x0,-0x208(%rbp)
    50e9:	00 00 00 00 
    50ed:	48 8d 85 28 f8 ff ff 	lea    -0x7d8(%rbp),%rax
    50f4:	48 89 85 00 fe ff ff 	mov    %rax,-0x200(%rbp)
    50fb:	48 c7 85 08 fe ff ff 	movq   $0x0,-0x1f8(%rbp)
    5102:	00 00 00 00 
    5106:	48 8d 85 28 f8 ff ff 	lea    -0x7d8(%rbp),%rax
    510d:	48 89 85 10 fe ff ff 	mov    %rax,-0x1f0(%rbp)
    5114:	48 8d 85 28 f8 ff ff 	lea    -0x7d8(%rbp),%rax
    511b:	48 89 85 18 fe ff ff 	mov    %rax,-0x1e8(%rbp)
    5122:	48 c7 85 20 fe ff ff 	movq   $0x0,-0x1e0(%rbp)
    5129:	00 00 00 00 
    512d:	48 8d 85 28 f8 ff ff 	lea    -0x7d8(%rbp),%rax
    5134:	48 89 85 28 fe ff ff 	mov    %rax,-0x1d8(%rbp)
    513b:	48 8d 85 28 f8 ff ff 	lea    -0x7d8(%rbp),%rax
    5142:	48 89 85 30 fe ff ff 	mov    %rax,-0x1d0(%rbp)
    5149:	48 8d 85 28 f8 ff ff 	lea    -0x7d8(%rbp),%rax
    5150:	48 89 85 38 fe ff ff 	mov    %rax,-0x1c8(%rbp)
    5157:	48 8d 85 28 f8 ff ff 	lea    -0x7d8(%rbp),%rax
    515e:	48 89 85 40 fe ff ff 	mov    %rax,-0x1c0(%rbp)
    5165:	48 8d 85 28 f8 ff ff 	lea    -0x7d8(%rbp),%rax
    516c:	48 89 85 48 fe ff ff 	mov    %rax,-0x1b8(%rbp)
    5173:	48 8d 85 28 f8 ff ff 	lea    -0x7d8(%rbp),%rax
    517a:	48 89 85 50 fe ff ff 	mov    %rax,-0x1b0(%rbp)
    5181:	48 c7 85 58 fe ff ff 	movq   $0x0,-0x1a8(%rbp)
    5188:	00 00 00 00 
    518c:	48 8d 85 28 f8 ff ff 	lea    -0x7d8(%rbp),%rax
    5193:	48 89 85 60 fe ff ff 	mov    %rax,-0x1a0(%rbp)
    519a:	48 8d 85 28 f8 ff ff 	lea    -0x7d8(%rbp),%rax
    51a1:	48 89 85 68 fe ff ff 	mov    %rax,-0x198(%rbp)
    51a8:	48 8d 85 28 f8 ff ff 	lea    -0x7d8(%rbp),%rax
    51af:	48 89 85 70 fe ff ff 	mov    %rax,-0x190(%rbp)
    51b6:	48 8d 85 28 f8 ff ff 	lea    -0x7d8(%rbp),%rax
    51bd:	48 89 85 78 fe ff ff 	mov    %rax,-0x188(%rbp)
    51c4:	48 8d 85 28 f8 ff ff 	lea    -0x7d8(%rbp),%rax
    51cb:	48 89 85 80 fe ff ff 	mov    %rax,-0x180(%rbp)
    51d2:	48 c7 85 88 fe ff ff 	movq   $0x0,-0x178(%rbp)
    51d9:	00 00 00 00 
    51dd:	48 8d 85 28 f8 ff ff 	lea    -0x7d8(%rbp),%rax
    51e4:	48 89 85 90 fe ff ff 	mov    %rax,-0x170(%rbp)
    51eb:	48 c7 85 98 fe ff ff 	movq   $0x0,-0x168(%rbp)
    51f2:	00 00 00 00 
    51f6:	48 8d 85 28 f8 ff ff 	lea    -0x7d8(%rbp),%rax
    51fd:	48 89 85 a0 fe ff ff 	mov    %rax,-0x160(%rbp)
    5204:	48 8d 85 28 f8 ff ff 	lea    -0x7d8(%rbp),%rax
    520b:	48 89 85 a8 fe ff ff 	mov    %rax,-0x158(%rbp)
    5212:	48 c7 85 b0 fe ff ff 	movq   $0x0,-0x150(%rbp)
    5219:	00 00 00 00 
    521d:	48 c7 85 b8 fe ff ff 	movq   $0x0,-0x148(%rbp)
    5224:	00 00 00 00 
    5228:	48 8d 85 28 f8 ff ff 	lea    -0x7d8(%rbp),%rax
    522f:	48 89 85 c0 fe ff ff 	mov    %rax,-0x140(%rbp)
    5236:	48 8d 85 28 f8 ff ff 	lea    -0x7d8(%rbp),%rax
    523d:	48 89 85 c8 fe ff ff 	mov    %rax,-0x138(%rbp)
    5244:	48 8d 85 28 f8 ff ff 	lea    -0x7d8(%rbp),%rax
    524b:	48 89 85 d0 fe ff ff 	mov    %rax,-0x130(%rbp)
    5252:	48 8d 85 28 f8 ff ff 	lea    -0x7d8(%rbp),%rax
    5259:	48 89 85 d8 fe ff ff 	mov    %rax,-0x128(%rbp)
    5260:	48 c7 85 e0 fe ff ff 	movq   $0x0,-0x120(%rbp)
    5267:	00 00 00 00 
    526b:	48 c7 85 e8 fe ff ff 	movq   $0x0,-0x118(%rbp)
    5272:	00 00 00 00 
    5276:	48 c7 85 f0 fe ff ff 	movq   $0x0,-0x110(%rbp)
    527d:	00 00 00 00 
    5281:	48 8d 85 28 f8 ff ff 	lea    -0x7d8(%rbp),%rax
    5288:	48 89 85 f8 fe ff ff 	mov    %rax,-0x108(%rbp)
    528f:	48 c7 85 00 ff ff ff 	movq   $0x0,-0x100(%rbp)
    5296:	00 00 00 00 
    529a:	48 8d 85 28 f8 ff ff 	lea    -0x7d8(%rbp),%rax
    52a1:	48 89 85 08 ff ff ff 	mov    %rax,-0xf8(%rbp)
    52a8:	48 8d 85 28 f8 ff ff 	lea    -0x7d8(%rbp),%rax
    52af:	48 89 85 10 ff ff ff 	mov    %rax,-0xf0(%rbp)
    52b6:	48 8d 85 28 f8 ff ff 	lea    -0x7d8(%rbp),%rax
    52bd:	48 89 85 18 ff ff ff 	mov    %rax,-0xe8(%rbp)
    52c4:	48 8d 85 28 f8 ff ff 	lea    -0x7d8(%rbp),%rax
    52cb:	48 89 85 20 ff ff ff 	mov    %rax,-0xe0(%rbp)
    52d2:	48 8d 85 28 f8 ff ff 	lea    -0x7d8(%rbp),%rax
    52d9:	48 89 85 28 ff ff ff 	mov    %rax,-0xd8(%rbp)
    52e0:	48 8d 85 28 f8 ff ff 	lea    -0x7d8(%rbp),%rax
    52e7:	48 89 85 30 ff ff ff 	mov    %rax,-0xd0(%rbp)
    52ee:	48 8d 85 28 f8 ff ff 	lea    -0x7d8(%rbp),%rax
    52f5:	48 89 85 38 ff ff ff 	mov    %rax,-0xc8(%rbp)
    52fc:	48 c7 85 40 ff ff ff 	movq   $0x0,-0xc0(%rbp)
    5303:	00 00 00 00 
    5307:	48 8d 85 28 f8 ff ff 	lea    -0x7d8(%rbp),%rax
    530e:	48 89 85 48 ff ff ff 	mov    %rax,-0xb8(%rbp)
    5315:	48 8d 85 28 f8 ff ff 	lea    -0x7d8(%rbp),%rax
    531c:	48 89 85 50 ff ff ff 	mov    %rax,-0xb0(%rbp)
    5323:	48 8d 85 28 f8 ff ff 	lea    -0x7d8(%rbp),%rax
    532a:	48 89 85 58 ff ff ff 	mov    %rax,-0xa8(%rbp)
    5331:	48 8d 85 28 f8 ff ff 	lea    -0x7d8(%rbp),%rax
    5338:	48 89 85 60 ff ff ff 	mov    %rax,-0xa0(%rbp)
    533f:	48 8d 85 28 f8 ff ff 	lea    -0x7d8(%rbp),%rax
    5346:	48 89 85 68 ff ff ff 	mov    %rax,-0x98(%rbp)
    534d:	48 8d 85 28 f8 ff ff 	lea    -0x7d8(%rbp),%rax
    5354:	48 89 85 70 ff ff ff 	mov    %rax,-0x90(%rbp)
    535b:	48 c7 85 78 ff ff ff 	movq   $0x0,-0x88(%rbp)
    5362:	00 00 00 00 
    5366:	48 c7 45 80 00 00 00 	movq   $0x0,-0x80(%rbp)
    536d:	00 
    536e:	48 c7 45 88 00 00 00 	movq   $0x0,-0x78(%rbp)
    5375:	00 
    5376:	48 8d 85 28 f8 ff ff 	lea    -0x7d8(%rbp),%rax
    537d:	48 89 45 90          	mov    %rax,-0x70(%rbp)
    5381:	48 8d 85 28 f8 ff ff 	lea    -0x7d8(%rbp),%rax
    5388:	48 89 45 98          	mov    %rax,-0x68(%rbp)
    538c:	48 8d 85 28 f8 ff ff 	lea    -0x7d8(%rbp),%rax
    5393:	48 89 45 a0          	mov    %rax,-0x60(%rbp)
    5397:	48 c7 45 a8 00 00 00 	movq   $0x0,-0x58(%rbp)
    539e:	00 
    539f:	48 8d 85 28 f8 ff ff 	lea    -0x7d8(%rbp),%rax
    53a6:	48 89 45 b0          	mov    %rax,-0x50(%rbp)
    53aa:	48 c7 45 b8 00 00 00 	movq   $0x0,-0x48(%rbp)
    53b1:	00 
    53b2:	48 c7 45 c0 00 00 00 	movq   $0x0,-0x40(%rbp)
    53b9:	00 
    53ba:	48 8d 85 28 f8 ff ff 	lea    -0x7d8(%rbp),%rax
    53c1:	48 89 45 c8          	mov    %rax,-0x38(%rbp)
    53c5:	48 c7 85 60 f8 ff ff 	movq   $0x7,-0x7a0(%rbp)
    53cc:	07 00 00 00 
    53d0:	c7 85 f4 f7 ff ff 00 	movl   $0x0,-0x80c(%rbp)
    53d7:	00 00 00 
    53da:	eb 19                	jmp    53f5 <func_1+0xc40>
    53dc:	8b 85 f4 f7 ff ff    	mov    -0x80c(%rbp),%eax
    53e2:	48 98                	cltq   
    53e4:	66 c7 84 45 70 f8 ff 	movw   $0x1e76,-0x790(%rbp,%rax,2)
    53eb:	ff 76 1e 
    53ee:	83 85 f4 f7 ff ff 01 	addl   $0x1,-0x80c(%rbp)
    53f5:	83 bd f4 f7 ff ff 01 	cmpl   $0x1,-0x80c(%rbp)
    53fc:	7e de                	jle    53dc <func_1+0xc27>
    53fe:	c7 85 e4 f7 ff ff ff 	movl   $0xffffffff,-0x81c(%rbp)
    5405:	ff ff ff 
    5408:	e9 d0 00 00 00       	jmpq   54dd <func_1+0xd28>
    540d:	c7 05 11 9c 00 00 00 	movl   $0x0,0x9c11(%rip)        # f028 <g_5>
    5414:	00 00 00 
    5417:	eb 3f                	jmp    5458 <func_1+0xca3>
    5419:	0f b6 05 10 9c 00 00 	movzbl 0x9c10(%rip),%eax        # f030 <g_24>
    5420:	83 e8 01             	sub    $0x1,%eax
    5423:	88 05 07 9c 00 00    	mov    %al,0x9c07(%rip)        # f030 <g_24>
    5429:	48 8b 05 b8 ac 00 00 	mov    0xacb8(%rip),%rax        # 100e8 <g_29>
    5430:	48 8b 15 61 ab 00 00 	mov    0xab61(%rip),%rdx        # ff98 <g_27+0x18>
    5437:	48 89 10             	mov    %rdx,(%rax)
    543a:	8b 05 e8 9b 00 00    	mov    0x9be8(%rip),%eax        # f028 <g_5>
    5440:	0f be c0             	movsbl %al,%eax
    5443:	be 04 00 00 00       	mov    $0x4,%esi
    5448:	89 c7                	mov    %eax,%edi
    544a:	e8 85 dd ff ff       	callq  31d4 <safe_add_func_int8_t_s_s>
    544f:	0f be c0             	movsbl %al,%eax
    5452:	89 05 d0 9b 00 00    	mov    %eax,0x9bd0(%rip)        # f028 <g_5>
    5458:	8b 05 ca 9b 00 00    	mov    0x9bca(%rip),%eax        # f028 <g_5>
    545e:	83 f8 1d             	cmp    $0x1d,%eax
    5461:	7e b6                	jle    5419 <func_1+0xc64>
    5463:	c6 05 c6 9b 00 00 00 	movb   $0x0,0x9bc6(%rip)        # f030 <g_24>
    546a:	eb 4e                	jmp    54ba <func_1+0xd05>
    546c:	c7 85 f8 f7 ff ff 00 	movl   $0x0,-0x808(%rbp)
    5473:	00 00 00 
    5476:	eb 1b                	jmp    5493 <func_1+0xcde>
    5478:	8b 85 f8 f7 ff ff    	mov    -0x808(%rbp),%eax
    547e:	48 98                	cltq   
    5480:	48 c7 84 c5 80 f8 ff 	movq   $0x0,-0x780(%rbp,%rax,8)
    5487:	ff 00 00 00 00 
    548c:	83 85 f8 f7 ff ff 01 	addl   $0x1,-0x808(%rbp)
    5493:	83 bd f8 f7 ff ff 02 	cmpl   $0x2,-0x808(%rbp)
    549a:	7e dc                	jle    5478 <func_1+0xcc3>
    549c:	48 8d 05 85 9b 00 00 	lea    0x9b85(%rip),%rax        # f028 <g_5>
    54a3:	48 89 85 18 f8 ff ff 	mov    %rax,-0x7e8(%rbp)
    54aa:	0f b6 05 7f 9b 00 00 	movzbl 0x9b7f(%rip),%eax        # f030 <g_24>
    54b1:	83 c0 01             	add    $0x1,%eax
    54b4:	88 05 76 9b 00 00    	mov    %al,0x9b76(%rip)        # f030 <g_24>
    54ba:	0f b6 05 6f 9b 00 00 	movzbl 0x9b6f(%rip),%eax        # f030 <g_24>
    54c1:	3c 35                	cmp    $0x35,%al
    54c3:	75 a7                	jne    546c <func_1+0xcb7>
    54c5:	8b 85 e4 f7 ff ff    	mov    -0x81c(%rbp),%eax
    54cb:	be 02 00 00 00       	mov    $0x2,%esi
    54d0:	89 c7                	mov    %eax,%edi
    54d2:	e8 f9 e9 ff ff       	callq  3ed0 <safe_sub_func_uint32_t_u_u>
    54d7:	89 85 e4 f7 ff ff    	mov    %eax,-0x81c(%rbp)
    54dd:	83 bd e4 f7 ff ff f4 	cmpl   $0xfffffff4,-0x81c(%rbp)
    54e4:	0f 8c 23 ff ff ff    	jl     540d <func_1+0xc58>
    54ea:	8b 05 44 9b 00 00    	mov    0x9b44(%rip),%eax        # f034 <g_37>
    54f0:	83 c0 01             	add    $0x1,%eax
    54f3:	89 05 3b 9b 00 00    	mov    %eax,0x9b3b(%rip)        # f034 <g_37>
    54f9:	4c 8b 35 e8 b0 00 00 	mov    0xb0e8(%rip),%r14        # 105e8 <g_1975>
    5500:	0f b7 05 4f 9b 00 00 	movzwl 0x9b4f(%rip),%eax        # f056 <g_143+0x6>
    5507:	44 0f b6 e0          	movzbl %al,%r12d
    550b:	48 8b 85 20 f8 ff ff 	mov    -0x7e0(%rbp),%rax
    5512:	8b 00                	mov    (%rax),%eax
    5514:	0f b7 d8             	movzwl %ax,%ebx
    5517:	48 8b 05 da ab 00 00 	mov    0xabda(%rip),%rax        # 100f8 <g_64>
    551e:	4c 8b 28             	mov    (%rax),%r13
    5521:	48 8b 15 d0 ab 00 00 	mov    0xabd0(%rip),%rdx        # 100f8 <g_64>
    5528:	0f b6 05 fd 9a 00 00 	movzbl 0x9afd(%rip),%eax        # f02c <g_14>
    552f:	84 c0                	test   %al,%al
    5531:	0f 94 c0             	sete   %al
    5534:	0f b6 c0             	movzbl %al,%eax
    5537:	48 89 d6             	mov    %rdx,%rsi
    553a:	89 c7                	mov    %eax,%edi
    553c:	e8 e6 12 00 00       	callq  6827 <func_60>
    5541:	48 89 c6             	mov    %rax,%rsi
    5544:	48 8b 95 f8 fb ff ff 	mov    -0x408(%rbp),%rdx
    554b:	48 8b 85 20 f8 ff ff 	mov    -0x7e0(%rbp),%rax
    5552:	8b 00                	mov    (%rax),%eax
    5554:	8b 8d 04 f8 ff ff    	mov    -0x7fc(%rbp),%ecx
    555a:	66 89 0d d7 9a 00 00 	mov    %cx,0x9ad7(%rip)        # f038 <g_55>
    5561:	0f b7 0d d0 9a 00 00 	movzwl 0x9ad0(%rip),%ecx        # f038 <g_55>
    5568:	83 f1 01             	xor    $0x1,%ecx
    556b:	0f b7 c9             	movzwl %cx,%ecx
    556e:	89 0d c8 9a 00 00    	mov    %ecx,0x9ac8(%rip)        # f03c <g_56>
    5574:	8b 0d c2 9a 00 00    	mov    0x9ac2(%rip),%ecx        # f03c <g_56>
    557a:	89 cf                	mov    %ecx,%edi
    557c:	48 89 f1             	mov    %rsi,%rcx
    557f:	89 c6                	mov    %eax,%esi
    5581:	e8 b6 09 00 00       	callq  5f3c <func_50>
    5586:	48 8d 85 18 f8 ff ff 	lea    -0x7e8(%rbp),%rax
    558d:	4c 89 ee             	mov    %r13,%rsi
    5590:	48 89 c7             	mov    %rax,%rdi
    5593:	e8 02 09 00 00       	callq  5e9a <func_46>
    5598:	4d 89 f0             	mov    %r14,%r8
    559b:	48 8d 0d 4e ab 00 00 	lea    0xab4e(%rip),%rcx        # 100f0 <g_65>
    55a2:	44 89 e2             	mov    %r12d,%edx
    55a5:	89 de                	mov    %ebx,%esi
    55a7:	89 c7                	mov    %eax,%edi
    55a9:	e8 c1 03 00 00       	callq  596f <func_40>
    55ae:	85 c0                	test   %eax,%eax
    55b0:	0f 84 58 01 00 00    	je     570e <func_1+0xf59>
    55b6:	c7 85 14 f8 ff ff 31 	movl   $0xcf03a231,-0x7ec(%rbp)
    55bd:	a2 03 cf 
    55c0:	48 8d 05 a1 b4 00 00 	lea    0xb4a1(%rip),%rax        # 10a68 <g_1029>
    55c7:	48 89 85 80 f8 ff ff 	mov    %rax,-0x780(%rbp)
    55ce:	48 8d 05 63 9a 00 00 	lea    0x9a63(%rip),%rax        # f038 <g_55>
    55d5:	48 89 85 88 f8 ff ff 	mov    %rax,-0x778(%rbp)
    55dc:	48 8d 05 85 b4 00 00 	lea    0xb485(%rip),%rax        # 10a68 <g_1029>
    55e3:	48 89 85 90 f8 ff ff 	mov    %rax,-0x770(%rbp)
    55ea:	48 8d 05 77 b4 00 00 	lea    0xb477(%rip),%rax        # 10a68 <g_1029>
    55f1:	48 89 85 98 f8 ff ff 	mov    %rax,-0x768(%rbp)
    55f8:	48 8d 05 39 9a 00 00 	lea    0x9a39(%rip),%rax        # f038 <g_55>
    55ff:	48 89 85 a0 f8 ff ff 	mov    %rax,-0x760(%rbp)
    5606:	48 8d 05 5b b4 00 00 	lea    0xb45b(%rip),%rax        # 10a68 <g_1029>
    560d:	48 89 85 a8 f8 ff ff 	mov    %rax,-0x758(%rbp)
    5614:	48 8d 05 4d b4 00 00 	lea    0xb44d(%rip),%rax        # 10a68 <g_1029>
    561b:	48 89 85 b0 f8 ff ff 	mov    %rax,-0x750(%rbp)
    5622:	48 8d 05 0f 9a 00 00 	lea    0x9a0f(%rip),%rax        # f038 <g_55>
    5629:	48 89 85 b8 f8 ff ff 	mov    %rax,-0x748(%rbp)
    5630:	48 8d 05 31 b4 00 00 	lea    0xb431(%rip),%rax        # 10a68 <g_1029>
    5637:	48 89 85 c0 f8 ff ff 	mov    %rax,-0x740(%rbp)
    563e:	48 8d 85 80 f8 ff ff 	lea    -0x780(%rbp),%rax
    5645:	48 83 c0 40          	add    $0x40,%rax
    5649:	48 89 85 68 f8 ff ff 	mov    %rax,-0x798(%rbp)
    5650:	66 c7 85 de f7 ff ff 	movw   $0x0,-0x822(%rbp)
    5657:	00 00 
    5659:	48 8b 85 58 f8 ff ff 	mov    -0x7a8(%rbp),%rax
    5660:	8b 18                	mov    (%rax),%ebx
    5662:	48 8b 95 b8 f8 ff ff 	mov    -0x748(%rbp),%rdx
    5669:	48 8b 85 68 f8 ff ff 	mov    -0x798(%rbp),%rax
    5670:	48 89 10             	mov    %rdx,(%rax)
    5673:	48 8b 85 68 f8 ff ff 	mov    -0x798(%rbp),%rax
    567a:	48 8b 00             	mov    (%rax),%rax
    567d:	48 39 85 30 f8 ff ff 	cmp    %rax,-0x7d0(%rbp)
    5684:	8b 85 08 f8 ff ff    	mov    -0x7f8(%rbp),%eax
    568a:	39 85 14 f8 ff ff    	cmp    %eax,-0x7ec(%rbp)
    5690:	8b 85 08 f8 ff ff    	mov    -0x7f8(%rbp),%eax
    5696:	48 98                	cltq   
    5698:	be 01 00 00 00       	mov    $0x1,%esi
    569d:	48 89 c7             	mov    %rax,%rdi
    56a0:	e8 9c e1 ff ff       	callq  3841 <safe_add_func_int64_t_s_s>
    56a5:	48 0f bf 95 de f7 ff 	movswq -0x822(%rbp),%rdx
    56ac:	ff 
    56ad:	48 39 d0             	cmp    %rdx,%rax
    56b0:	0f 95 c0             	setne  %al
    56b3:	0f b6 c0             	movzbl %al,%eax
    56b6:	66 89 05 43 9d 00 00 	mov    %ax,0x9d43(%rip)        # f400 <g_806>
    56bd:	0f b7 05 3c 9d 00 00 	movzwl 0x9d3c(%rip),%eax        # f400 <g_806>
    56c4:	98                   	cwtl   
    56c5:	89 c6                	mov    %eax,%esi
    56c7:	bf 01 00 00 00       	mov    $0x1,%edi
    56cc:	e8 77 e7 ff ff       	callq  3e48 <safe_rshift_func_uint16_t_u_s>
    56d1:	0f b7 c0             	movzwl %ax,%eax
    56d4:	89 85 08 f8 ff ff    	mov    %eax,-0x7f8(%rbp)
    56da:	83 bd 08 f8 ff ff 00 	cmpl   $0x0,-0x7f8(%rbp)
    56e1:	0f 95 c0             	setne  %al
    56e4:	0f b6 c0             	movzbl %al,%eax
    56e7:	39 85 14 f8 ff ff    	cmp    %eax,-0x7ec(%rbp)
    56ed:	0f 95 c0             	setne  %al
    56f0:	0f b6 c0             	movzbl %al,%eax
    56f3:	f7 d0                	not    %eax
    56f5:	4c 8b 25 04 aa 00 00 	mov    0xaa04(%rip),%r12        # 10100 <g_95>
    56fc:	89 de                	mov    %ebx,%esi
    56fe:	89 c7                	mov    %eax,%edi
    5700:	e8 c7 df ff ff       	callq  36cc <safe_mod_func_int32_t_s_s>
    5705:	41 89 04 24          	mov    %eax,(%r12)
    5709:	e9 0f 02 00 00       	jmpq   591d <func_1+0x1168>
    570e:	c7 85 80 f8 ff ff cc 	movl   $0x5af58bcc,-0x780(%rbp)
    5715:	8b f5 5a 
    5718:	c7 85 84 f8 ff ff 07 	movl   $0x7,-0x77c(%rbp)
    571f:	00 00 00 
    5722:	c7 85 88 f8 ff ff 00 	movl   $0x0,-0x778(%rbp)
    5729:	00 00 00 
    572c:	c7 85 8c f8 ff ff 02 	movl   $0x2,-0x774(%rbp)
    5733:	00 00 00 
    5736:	c7 85 90 f8 ff ff 00 	movl   $0x0,-0x770(%rbp)
    573d:	00 00 00 
    5740:	c7 85 94 f8 ff ff 07 	movl   $0x7,-0x76c(%rbp)
    5747:	00 00 00 
    574a:	c7 85 98 f8 ff ff cc 	movl   $0x5af58bcc,-0x768(%rbp)
    5751:	8b f5 5a 
    5754:	c7 85 9c f8 ff ff 07 	movl   $0x7,-0x764(%rbp)
    575b:	00 00 00 
    575e:	c7 85 a0 f8 ff ff 00 	movl   $0x0,-0x760(%rbp)
    5765:	00 00 00 
    5768:	c7 85 a4 f8 ff ff 02 	movl   $0x2,-0x75c(%rbp)
    576f:	00 00 00 
    5772:	c7 85 a8 f8 ff ff 00 	movl   $0x0,-0x758(%rbp)
    5779:	00 00 00 
    577c:	c7 85 ac f8 ff ff 07 	movl   $0x7,-0x754(%rbp)
    5783:	00 00 00 
    5786:	c7 85 b0 f8 ff ff cc 	movl   $0x5af58bcc,-0x750(%rbp)
    578d:	8b f5 5a 
    5790:	c7 85 b4 f8 ff ff 07 	movl   $0x7,-0x74c(%rbp)
    5797:	00 00 00 
    579a:	c7 85 b8 f8 ff ff 00 	movl   $0x0,-0x748(%rbp)
    57a1:	00 00 00 
    57a4:	c7 85 bc f8 ff ff 02 	movl   $0x2,-0x744(%rbp)
    57ab:	00 00 00 
    57ae:	c7 85 c0 f8 ff ff 00 	movl   $0x0,-0x740(%rbp)
    57b5:	00 00 00 
    57b8:	c7 85 c4 f8 ff ff 07 	movl   $0x7,-0x73c(%rbp)
    57bf:	00 00 00 
    57c2:	c7 85 c8 f8 ff ff cc 	movl   $0x5af58bcc,-0x738(%rbp)
    57c9:	8b f5 5a 
    57cc:	c7 85 cc f8 ff ff 07 	movl   $0x7,-0x734(%rbp)
    57d3:	00 00 00 
    57d6:	c7 85 d0 f8 ff ff 00 	movl   $0x0,-0x730(%rbp)
    57dd:	00 00 00 
    57e0:	c7 85 0c f8 ff ff 6d 	movl   $0x9780976d,-0x7f4(%rbp)
    57e7:	97 80 97 
    57ea:	c7 85 10 f8 ff ff ff 	movl   $0xffffffff,-0x7f0(%rbp)
    57f1:	ff ff ff 
    57f4:	48 c7 05 41 b2 00 00 	movq   $0x0,0xb241(%rip)        # 10a40 <g_588>
    57fb:	00 00 00 00 
    57ff:	e9 f8 00 00 00       	jmpq   58fc <func_1+0x1147>
    5804:	48 b8 49 76 62 cc 3c 	movabs $0xf9666b3ccc627649,%rax
    580b:	6b 66 f9 
    580e:	48 89 85 38 f8 ff ff 	mov    %rax,-0x7c8(%rbp)
    5815:	48 8b 85 20 f8 ff ff 	mov    -0x7e0(%rbp),%rax
    581c:	c7 00 6a d8 c0 ed    	movl   $0xedc0d86a,(%rax)
    5822:	c7 85 e0 f7 ff ff 00 	movl   $0x0,-0x820(%rbp)
    5829:	00 00 00 
    582c:	90                   	nop
    582d:	8b 85 e0 f7 ff ff    	mov    -0x820(%rbp),%eax
    5833:	85 c0                	test   %eax,%eax
    5835:	0f 88 af 00 00 00    	js     58ea <func_1+0x1135>
    583b:	c6 85 dc f7 ff ff f9 	movb   $0xf9,-0x824(%rbp)
    5842:	c7 85 fc f7 ff ff 00 	movl   $0x0,-0x804(%rbp)
    5849:	00 00 00 
    584c:	eb 1a                	jmp    5868 <func_1+0x10b3>
    584e:	8b 85 fc f7 ff ff    	mov    -0x804(%rbp),%eax
    5854:	48 98                	cltq   
    5856:	c7 84 85 74 f8 ff ff 	movl   $0x8,-0x78c(%rbp,%rax,4)
    585d:	08 00 00 00 
    5861:	83 85 fc f7 ff ff 01 	addl   $0x1,-0x804(%rbp)
    5868:	83 bd fc f7 ff ff 02 	cmpl   $0x2,-0x804(%rbp)
    586f:	7e dd                	jle    584e <func_1+0x1099>
    5871:	c7 85 f0 f7 ff ff 00 	movl   $0x0,-0x810(%rbp)
    5878:	00 00 00 
    587b:	eb 16                	jmp    5893 <func_1+0x10de>
    587d:	c6 85 dd f7 ff ff fc 	movb   $0xfc,-0x823(%rbp)
    5884:	48 83 ad 38 f8 ff ff 	subq   $0x1,-0x7c8(%rbp)
    588b:	01 
    588c:	83 ad f0 f7 ff ff 01 	subl   $0x1,-0x810(%rbp)
    5893:	83 bd f0 f7 ff ff 00 	cmpl   $0x0,-0x810(%rbp)
    589a:	79 e1                	jns    587d <func_1+0x10c8>
    589c:	8b 05 26 9f 00 00    	mov    0x9f26(%rip),%eax        # f7c8 <g_2326>
    58a2:	48 8b 05 67 a8 00 00 	mov    0xa867(%rip),%rax        # 10110 <g_93>
    58a9:	48 8d 95 20 f8 ff ff 	lea    -0x7e0(%rbp),%rdx
    58b0:	48 89 10             	mov    %rdx,(%rax)
    58b3:	8b 85 e0 f7 ff ff    	mov    -0x820(%rbp),%eax
    58b9:	8d 48 01             	lea    0x1(%rax),%ecx
    58bc:	48 8b 15 7d b1 00 00 	mov    0xb17d(%rip),%rdx        # 10a40 <g_588>
    58c3:	48 8b 05 76 b1 00 00 	mov    0xb176(%rip),%rax        # 10a40 <g_588>
    58ca:	48 63 c9             	movslq %ecx,%rcx
    58cd:	48 01 c9             	add    %rcx,%rcx
    58d0:	48 01 ca             	add    %rcx,%rdx
    58d3:	48 01 d0             	add    %rdx,%rax
    58d6:	48 8d 14 00          	lea    (%rax,%rax,1),%rdx
    58da:	48 8d 05 ff 9a 00 00 	lea    0x9aff(%rip),%rax        # f3e0 <g_548>
    58e1:	0f b7 04 02          	movzwl (%rdx,%rax,1),%eax
    58e5:	0f b7 c0             	movzwl %ax,%eax
    58e8:	eb 61                	jmp    594b <func_1+0x1196>
    58ea:	48 8b 05 4f b1 00 00 	mov    0xb14f(%rip),%rax        # 10a40 <g_588>
    58f1:	48 83 c0 01          	add    $0x1,%rax
    58f5:	48 89 05 44 b1 00 00 	mov    %rax,0xb144(%rip)        # 10a40 <g_588>
    58fc:	48 8b 05 3d b1 00 00 	mov    0xb13d(%rip),%rax        # 10a40 <g_588>
    5903:	48 85 c0             	test   %rax,%rax
    5906:	0f 84 f8 fe ff ff    	je     5804 <func_1+0x104f>
    590c:	83 bd 04 f8 ff ff 00 	cmpl   $0x0,-0x7fc(%rbp)
    5913:	75 2a                	jne    593f <func_1+0x118a>
    5915:	48 83 85 60 f8 ff ff 	addq   $0x1,-0x7a0(%rbp)
    591c:	01 
    591d:	0f b7 05 0a 97 00 00 	movzwl 0x970a(%rip),%eax        # f02e <g_15>
    5924:	83 c0 01             	add    $0x1,%eax
    5927:	66 89 05 00 97 00 00 	mov    %ax,0x9700(%rip)        # f02e <g_15>
    592e:	0f b7 05 f9 96 00 00 	movzwl 0x96f9(%rip),%eax        # f02e <g_15>
    5935:	66 83 f8 37          	cmp    $0x37,%ax
    5939:	0f 85 b0 ef ff ff    	jne    48ef <func_1+0x13a>
    593f:	48 8b 05 ba a9 00 00 	mov    0xa9ba(%rip),%rax        # 10300 <g_1111>
    5946:	48 8b 00             	mov    (%rax),%rax
    5949:	8b 00                	mov    (%rax),%eax
    594b:	48 8b 5d d8          	mov    -0x28(%rbp),%rbx
    594f:	64 48 33 1c 25 28 00 	xor    %fs:0x28,%rbx
    5956:	00 00 
    5958:	74 05                	je     595f <func_1+0x11aa>
    595a:	e8 11 d7 ff ff       	callq  3070 <__stack_chk_fail@plt>
    595f:	48 81 c4 10 08 00 00 	add    $0x810,%rsp
    5966:	5b                   	pop    %rbx
    5967:	41 5c                	pop    %r12
    5969:	41 5d                	pop    %r13
    596b:	41 5e                	pop    %r14
    596d:	5d                   	pop    %rbp
    596e:	c3                   	retq   

000000000000596f <func_40>:
    596f:	f3 0f 1e fa          	endbr64 
    5973:	55                   	push   %rbp
    5974:	48 89 e5             	mov    %rsp,%rbp
    5977:	41 56                	push   %r14
    5979:	41 55                	push   %r13
    597b:	41 54                	push   %r12
    597d:	53                   	push   %rbx
    597e:	48 81 ec 30 03 00 00 	sub    $0x330,%rsp
    5985:	89 bd cc fc ff ff    	mov    %edi,-0x334(%rbp)
    598b:	89 f0                	mov    %esi,%eax
    598d:	48 89 8d b8 fc ff ff 	mov    %rcx,-0x348(%rbp)
    5994:	4c 89 85 b0 fc ff ff 	mov    %r8,-0x350(%rbp)
    599b:	66 89 85 c8 fc ff ff 	mov    %ax,-0x338(%rbp)
    59a2:	89 d0                	mov    %edx,%eax
    59a4:	88 85 c4 fc ff ff    	mov    %al,-0x33c(%rbp)
    59aa:	64 48 8b 04 25 28 00 	mov    %fs:0x28,%rax
    59b1:	00 00 
    59b3:	48 89 45 d8          	mov    %rax,-0x28(%rbp)
    59b7:	31 c0                	xor    %eax,%eax
    59b9:	48 8d 05 f0 9a 00 00 	lea    0x9af0(%rip),%rax        # f4b0 <g_1352+0x10>
    59c0:	48 89 85 08 fd ff ff 	mov    %rax,-0x2f8(%rbp)
    59c7:	48 8d 05 6a a8 00 00 	lea    0xa86a(%rip),%rax        # 10238 <g_665+0xf8>
    59ce:	48 89 85 f8 fc ff ff 	mov    %rax,-0x308(%rbp)
    59d5:	48 8d 85 f8 fc ff ff 	lea    -0x308(%rbp),%rax
    59dc:	48 89 85 00 fd ff ff 	mov    %rax,-0x300(%rbp)
    59e3:	48 8d 85 00 fd ff ff 	lea    -0x300(%rbp),%rax
    59ea:	48 89 85 10 fd ff ff 	mov    %rax,-0x2f0(%rbp)
    59f1:	48 8d 05 dc 56 00 00 	lea    0x56dc(%rip),%rax        # b0d4 <g_1991+0x54>
    59f8:	48 89 85 18 fd ff ff 	mov    %rax,-0x2e8(%rbp)
    59ff:	48 b8 91 79 27 8a 00 	movabs $0xb6ec0c008a277991,%rax
    5a06:	0c ec b6 
    5a09:	48 89 85 20 fd ff ff 	mov    %rax,-0x2e0(%rbp)
    5a10:	c7 85 b0 fd ff ff 06 	movl   $0x1ac94a06,-0x250(%rbp)
    5a17:	4a c9 1a 
    5a1a:	c7 85 b4 fd ff ff 02 	movl   $0x2,-0x24c(%rbp)
    5a21:	00 00 00 
    5a24:	c7 85 b8 fd ff ff ff 	movl   $0xffffffff,-0x248(%rbp)
    5a2b:	ff ff ff 
    5a2e:	c7 85 bc fd ff ff 02 	movl   $0x2,-0x244(%rbp)
    5a35:	00 00 00 
    5a38:	c7 85 c0 fd ff ff 06 	movl   $0x1ac94a06,-0x240(%rbp)
    5a3f:	4a c9 1a 
    5a42:	c7 85 c4 fd ff ff de 	movl   $0x41eccde,-0x23c(%rbp)
    5a49:	cc 1e 04 
    5a4c:	c7 85 c8 fd ff ff de 	movl   $0x41eccde,-0x238(%rbp)
    5a53:	cc 1e 04 
    5a56:	c7 85 cc fd ff ff 06 	movl   $0x1ac94a06,-0x234(%rbp)
    5a5d:	4a c9 1a 
    5a60:	c7 85 d0 fd ff ff 02 	movl   $0x2,-0x230(%rbp)
    5a67:	00 00 00 
    5a6a:	c7 85 d4 fd ff ff ff 	movl   $0xffffffff,-0x22c(%rbp)
    5a71:	ff ff ff 
    5a74:	c7 85 d8 fd ff ff fb 	movl   $0xfffffffb,-0x228(%rbp)
    5a7b:	ff ff ff 
    5a7e:	c7 85 dc fd ff ff fb 	movl   $0xfffffffb,-0x224(%rbp)
    5a85:	ff ff ff 
    5a88:	c7 85 e0 fd ff ff ff 	movl   $0xffffffff,-0x220(%rbp)
    5a8f:	ff ff ff 
    5a92:	c7 85 e4 fd ff ff 06 	movl   $0x1ac94a06,-0x21c(%rbp)
    5a99:	4a c9 1a 
    5a9c:	c7 85 e8 fd ff ff 00 	movl   $0x0,-0x218(%rbp)
    5aa3:	00 00 00 
    5aa6:	c7 85 ec fd ff ff 06 	movl   $0x1ac94a06,-0x214(%rbp)
    5aad:	4a c9 1a 
    5ab0:	c7 85 f0 fd ff ff ff 	movl   $0xffffffff,-0x210(%rbp)
    5ab7:	ff ff ff 
    5aba:	c7 85 f4 fd ff ff fb 	movl   $0xfffffffb,-0x20c(%rbp)
    5ac1:	ff ff ff 
    5ac4:	c7 85 f8 fd ff ff fb 	movl   $0xfffffffb,-0x208(%rbp)
    5acb:	ff ff ff 
    5ace:	c7 85 fc fd ff ff ff 	movl   $0xffffffff,-0x204(%rbp)
    5ad5:	ff ff ff 
    5ad8:	c7 85 60 fd ff ff 04 	movl   $0xd904d904,-0x2a0(%rbp)
    5adf:	d9 04 d9 
    5ae2:	c7 85 64 fd ff ff 04 	movl   $0xd904d904,-0x29c(%rbp)
    5ae9:	d9 04 d9 
    5aec:	c7 85 68 fd ff ff 04 	movl   $0xd904d904,-0x298(%rbp)
    5af3:	d9 04 d9 
    5af6:	c7 85 6c fd ff ff 04 	movl   $0xd904d904,-0x294(%rbp)
    5afd:	d9 04 d9 
    5b00:	48 8d 05 c1 99 00 00 	lea    0x99c1(%rip),%rax        # f4c8 <g_1773>
    5b07:	48 89 85 28 fd ff ff 	mov    %rax,-0x2d8(%rbp)
    5b0e:	c7 85 e0 fc ff ff 01 	movl   $0x1,-0x320(%rbp)
    5b15:	00 00 00 
    5b18:	48 b8 36 42 c3 86 0f 	movabs $0x5a94710f86c34236,%rax
    5b1f:	71 94 5a 
    5b22:	48 89 85 30 fd ff ff 	mov    %rax,-0x2d0(%rbp)
    5b29:	c6 85 d6 fc ff ff c7 	movb   $0xc7,-0x32a(%rbp)
    5b30:	c7 85 d8 fc ff ff 00 	movl   $0x0,-0x328(%rbp)
    5b37:	00 00 00 
    5b3a:	eb 1a                	jmp    5b56 <func_40+0x1e7>
    5b3c:	8b 85 d8 fc ff ff    	mov    -0x328(%rbp),%eax
    5b42:	48 98                	cltq   
    5b44:	c7 84 85 58 fd ff ff 	movl   $0xffffffff,-0x2a8(%rbp,%rax,4)
    5b4b:	ff ff ff ff 
    5b4f:	83 85 d8 fc ff ff 01 	addl   $0x1,-0x328(%rbp)
    5b56:	83 bd d8 fc ff ff 01 	cmpl   $0x1,-0x328(%rbp)
    5b5d:	7e dd                	jle    5b3c <func_40+0x1cd>
    5b5f:	48 8b 05 a2 a5 00 00 	mov    0xa5a2(%rip),%rax        # 10108 <g_94>
    5b66:	48 8b 95 08 fd ff ff 	mov    -0x2f8(%rbp),%rdx
    5b6d:	48 89 10             	mov    %rdx,(%rax)
    5b70:	0f b7 9d c8 fc ff ff 	movzwl -0x338(%rbp),%ebx
    5b77:	0f b7 85 c8 fc ff ff 	movzwl -0x338(%rbp),%eax
    5b7e:	44 0f be e0          	movsbl %al,%r12d
    5b82:	48 8b 85 20 fd ff ff 	mov    -0x2e0(%rbp),%rax
    5b89:	44 0f be e8          	movsbl %al,%r13d
    5b8d:	48 8b 85 08 fd ff ff 	mov    -0x2f8(%rbp),%rax
    5b94:	8b 10                	mov    (%rax),%edx
    5b96:	48 8b 85 08 fd ff ff 	mov    -0x2f8(%rbp),%rax
    5b9d:	89 10                	mov    %edx,(%rax)
    5b9f:	48 8b 85 08 fd ff ff 	mov    -0x2f8(%rbp),%rax
    5ba6:	44 8b 30             	mov    (%rax),%r14d
    5ba9:	48 83 bd 08 fd ff ff 	cmpq   $0x0,-0x2f8(%rbp)
    5bb0:	00 
    5bb1:	0f 95 c0             	setne  %al
    5bb4:	0f b6 c0             	movzbl %al,%eax
    5bb7:	89 85 dc fd ff ff    	mov    %eax,-0x224(%rbp)
    5bbd:	8b 85 dc fd ff ff    	mov    -0x224(%rbp),%eax
    5bc3:	0f b7 d0             	movzwl %ax,%edx
    5bc6:	0f b7 85 c8 fc ff ff 	movzwl -0x338(%rbp),%eax
    5bcd:	89 d6                	mov    %edx,%esi
    5bcf:	89 c7                	mov    %eax,%edi
    5bd1:	e8 67 e1 ff ff       	callq  3d3d <safe_mul_func_uint16_t_u_u>
    5bd6:	0f b7 c0             	movzwl %ax,%eax
    5bd9:	41 39 c6             	cmp    %eax,%r14d
    5bdc:	0f 95 c0             	setne  %al
    5bdf:	0f b6 d0             	movzbl %al,%edx
    5be2:	48 8b 85 20 fd ff ff 	mov    -0x2e0(%rbp),%rax
    5be9:	0f b7 c0             	movzwl %ax,%eax
    5bec:	89 d6                	mov    %edx,%esi
    5bee:	89 c7                	mov    %eax,%edi
    5bf0:	e8 85 e2 ff ff       	callq  3e7a <safe_rshift_func_uint16_t_u_u>
    5bf5:	0f b7 d0             	movzwl %ax,%edx
    5bf8:	48 8b 05 41 a9 00 00 	mov    0xa941(%rip),%rax        # 10540 <g_1525>
    5bff:	48 8b 00             	mov    (%rax),%rax
    5c02:	48 39 85 18 fd ff ff 	cmp    %rax,-0x2e8(%rbp)
    5c09:	0f 95 c0             	setne  %al
    5c0c:	0f b6 c0             	movzbl %al,%eax
    5c0f:	48 89 d6             	mov    %rdx,%rsi
    5c12:	48 89 c7             	mov    %rax,%rdi
    5c15:	e8 9a dd ff ff       	callq  39b4 <safe_mod_func_int64_t_s_s>
    5c1a:	0f b7 95 c8 fc ff ff 	movzwl -0x338(%rbp),%edx
    5c21:	48 39 d0             	cmp    %rdx,%rax
    5c24:	0f 95 c0             	setne  %al
    5c27:	89 c2                	mov    %eax,%edx
    5c29:	8b 85 cc fc ff ff    	mov    -0x334(%rbp),%eax
    5c2f:	21 c2                	and    %eax,%edx
    5c31:	48 8b 85 b0 fc ff ff 	mov    -0x350(%rbp),%rax
    5c38:	48 8b 00             	mov    (%rax),%rax
    5c3b:	8b 00                	mov    (%rax),%eax
    5c3d:	21 d0                	and    %edx,%eax
    5c3f:	0f be c0             	movsbl %al,%eax
    5c42:	44 89 ee             	mov    %r13d,%esi
    5c45:	89 c7                	mov    %eax,%edi
    5c47:	e8 a6 d5 ff ff       	callq  31f2 <safe_sub_func_int8_t_s_s>
    5c4c:	48 c7 05 99 a9 00 00 	movq   $0x0,0xa999(%rip)        # 105f0 <g_1998>
    5c53:	00 00 00 00 
    5c57:	48 8b 05 92 a9 00 00 	mov    0xa992(%rip),%rax        # 105f0 <g_1998>
    5c5e:	48 39 85 10 fd ff ff 	cmp    %rax,-0x2f0(%rbp)
    5c65:	0f 95 c0             	setne  %al
    5c68:	0f b6 c0             	movzbl %al,%eax
    5c6b:	be 0f 00 00 00       	mov    $0xf,%esi
    5c70:	89 c7                	mov    %eax,%edi
    5c72:	e8 03 e2 ff ff       	callq  3e7a <safe_rshift_func_uint16_t_u_u>
    5c77:	0f be c0             	movsbl %al,%eax
    5c7a:	44 89 e6             	mov    %r12d,%esi
    5c7d:	89 c7                	mov    %eax,%edi
    5c7f:	e8 8e d5 ff ff       	callq  3212 <safe_mul_func_int8_t_s_s>
    5c84:	0f be d0             	movsbl %al,%edx
    5c87:	0f b6 85 69 fd ff ff 	movzbl -0x297(%rbp),%eax
    5c8e:	0f b6 c0             	movzbl %al,%eax
    5c91:	39 c2                	cmp    %eax,%edx
    5c93:	74 07                	je     5c9c <func_40+0x32d>
    5c95:	ba 01 00 00 00       	mov    $0x1,%edx
    5c9a:	eb 05                	jmp    5ca1 <func_40+0x332>
    5c9c:	ba 00 00 00 00       	mov    $0x0,%edx
    5ca1:	0f b7 85 c8 fc ff ff 	movzwl -0x338(%rbp),%eax
    5ca8:	21 d0                	and    %edx,%eax
    5caa:	89 de                	mov    %ebx,%esi
    5cac:	89 c7                	mov    %eax,%edi
    5cae:	e8 19 da ff ff       	callq  36cc <safe_mod_func_int32_t_s_s>
    5cb3:	85 c0                	test   %eax,%eax
    5cb5:	0f 95 c0             	setne  %al
    5cb8:	0f b6 d0             	movzbl %al,%edx
    5cbb:	48 8b 85 28 fd ff ff 	mov    -0x2d8(%rbp),%rax
    5cc2:	8b 00                	mov    (%rax),%eax
    5cc4:	31 c2                	xor    %eax,%edx
    5cc6:	48 8b 85 28 fd ff ff 	mov    -0x2d8(%rbp),%rax
    5ccd:	89 10                	mov    %edx,(%rax)
    5ccf:	66 c7 05 24 97 00 00 	movw   $0x0,0x9724(%rip)        # f3fc <g_633>
    5cd6:	00 00 
    5cd8:	e9 7f 01 00 00       	jmpq   5e5c <func_40+0x4ed>
    5cdd:	c7 85 e4 fc ff ff 01 	movl   $0x1,-0x31c(%rbp)
    5ce4:	00 00 00 
    5ce7:	48 c7 85 38 fd ff ff 	movq   $0x0,-0x2c8(%rbp)
    5cee:	00 00 00 00 
    5cf2:	48 8d 05 3f 93 00 00 	lea    0x933f(%rip),%rax        # f038 <g_55>
    5cf9:	48 89 85 40 fd ff ff 	mov    %rax,-0x2c0(%rbp)
    5d00:	c7 85 e8 fc ff ff 51 	movl   $0x9af05a51,-0x318(%rbp)
    5d07:	5a f0 9a 
    5d0a:	c7 85 ec fc ff ff 18 	movl   $0x2cbded18,-0x314(%rbp)
    5d11:	ed bd 2c 
    5d14:	c7 85 70 fd ff ff f8 	movl   $0xfffffff8,-0x290(%rbp)
    5d1b:	ff ff ff 
    5d1e:	c7 85 74 fd ff ff 2a 	movl   $0x808ce02a,-0x28c(%rbp)
    5d25:	e0 8c 80 
    5d28:	c7 85 78 fd ff ff f8 	movl   $0xfffffff8,-0x288(%rbp)
    5d2f:	ff ff ff 
    5d32:	c7 85 7c fd ff ff f8 	movl   $0xfffffff8,-0x284(%rbp)
    5d39:	ff ff ff 
    5d3c:	c7 85 80 fd ff ff 2a 	movl   $0x808ce02a,-0x280(%rbp)
    5d43:	e0 8c 80 
    5d46:	c7 85 84 fd ff ff f8 	movl   $0xfffffff8,-0x27c(%rbp)
    5d4d:	ff ff ff 
    5d50:	c7 85 88 fd ff ff f8 	movl   $0xfffffff8,-0x278(%rbp)
    5d57:	ff ff ff 
    5d5a:	c7 85 8c fd ff ff 2a 	movl   $0x808ce02a,-0x274(%rbp)
    5d61:	e0 8c 80 
    5d64:	c7 85 90 fd ff ff 2a 	movl   $0x808ce02a,-0x270(%rbp)
    5d6b:	e0 8c 80 
    5d6e:	c7 85 94 fd ff ff 65 	movl   $0x77da0c65,-0x26c(%rbp)
    5d75:	0c da 77 
    5d78:	c7 85 98 fd ff ff 2a 	movl   $0x808ce02a,-0x268(%rbp)
    5d7f:	e0 8c 80 
    5d82:	c7 85 9c fd ff ff 2a 	movl   $0x808ce02a,-0x264(%rbp)
    5d89:	e0 8c 80 
    5d8c:	c7 85 a0 fd ff ff 65 	movl   $0x77da0c65,-0x260(%rbp)
    5d93:	0c da 77 
    5d96:	c7 85 a4 fd ff ff 2a 	movl   $0x808ce02a,-0x25c(%rbp)
    5d9d:	e0 8c 80 
    5da0:	c7 85 f0 fc ff ff ff 	movl   $0xffffffff,-0x310(%rbp)
    5da7:	ff ff ff 
    5daa:	48 8d 85 50 fe ff ff 	lea    -0x1b0(%rbp),%rax
    5db1:	48 8d 15 88 53 00 00 	lea    0x5388(%rip),%rdx        # b140 <g_1991+0xc0>
    5db8:	b9 30 00 00 00       	mov    $0x30,%ecx
    5dbd:	48 89 c7             	mov    %rax,%rdi
    5dc0:	48 89 d6             	mov    %rdx,%rsi
    5dc3:	f3 48 a5             	rep movsq %ds:(%rsi),%es:(%rdi)
    5dc6:	c6 85 d7 fc ff ff ff 	movb   $0xff,-0x329(%rbp)
    5dcd:	c7 85 f4 fc ff ff ba 	movl   $0xec53dbba,-0x30c(%rbp)
    5dd4:	db 53 ec 
    5dd7:	48 8d 05 ca 95 00 00 	lea    0x95ca(%rip),%rax        # f3a8 <g_207>
    5dde:	48 89 85 48 fd ff ff 	mov    %rax,-0x2b8(%rbp)
    5de5:	c7 85 dc fc ff ff 00 	movl   $0x0,-0x324(%rbp)
    5dec:	00 00 00 
    5def:	eb 1e                	jmp    5e0f <func_40+0x4a0>
    5df1:	8b 85 dc fc ff ff    	mov    -0x324(%rbp),%eax
    5df7:	48 98                	cltq   
    5df9:	48 8d 15 8e 96 00 00 	lea    0x968e(%rip),%rdx        # f48e <g_1327+0xe>
    5e00:	48 89 94 c5 00 fe ff 	mov    %rdx,-0x200(%rbp,%rax,8)
    5e07:	ff 
    5e08:	83 85 dc fc ff ff 01 	addl   $0x1,-0x324(%rbp)
    5e0f:	83 bd dc fc ff ff 09 	cmpl   $0x9,-0x324(%rbp)
    5e16:	7e d9                	jle    5df1 <func_40+0x482>
    5e18:	c7 85 dc fc ff ff 00 	movl   $0x0,-0x324(%rbp)
    5e1f:	00 00 00 
    5e22:	eb 1e                	jmp    5e42 <func_40+0x4d3>
    5e24:	8b 85 dc fc ff ff    	mov    -0x324(%rbp),%eax
    5e2a:	48 98                	cltq   
    5e2c:	48 8d 15 09 98 00 00 	lea    0x9809(%rip),%rdx        # f63c <g_2057>
    5e33:	48 89 94 c5 50 fd ff 	mov    %rdx,-0x2b0(%rbp,%rax,8)
    5e3a:	ff 
    5e3b:	83 85 dc fc ff ff 01 	addl   $0x1,-0x324(%rbp)
    5e42:	83 bd dc fc ff ff 00 	cmpl   $0x0,-0x324(%rbp)
    5e49:	7e d9                	jle    5e24 <func_40+0x4b5>
    5e4b:	0f b7 05 aa 95 00 00 	movzwl 0x95aa(%rip),%eax        # f3fc <g_633>
    5e52:	83 e8 01             	sub    $0x1,%eax
    5e55:	66 89 05 a0 95 00 00 	mov    %ax,0x95a0(%rip)        # f3fc <g_633>
    5e5c:	0f b7 05 99 95 00 00 	movzwl 0x9599(%rip),%eax        # f3fc <g_633>
    5e63:	66 83 f8 ff          	cmp    $0xffff,%ax
    5e67:	0f 8d 70 fe ff ff    	jge    5cdd <func_40+0x36e>
    5e6d:	48 8b 85 08 fd ff ff 	mov    -0x2f8(%rbp),%rax
    5e74:	8b 00                	mov    (%rax),%eax
    5e76:	48 8b 5d d8          	mov    -0x28(%rbp),%rbx
    5e7a:	64 48 33 1c 25 28 00 	xor    %fs:0x28,%rbx
    5e81:	00 00 
    5e83:	74 05                	je     5e8a <func_40+0x51b>
    5e85:	e8 e6 d1 ff ff       	callq  3070 <__stack_chk_fail@plt>
    5e8a:	48 81 c4 30 03 00 00 	add    $0x330,%rsp
    5e91:	5b                   	pop    %rbx
    5e92:	41 5c                	pop    %r12
    5e94:	41 5d                	pop    %r13
    5e96:	41 5e                	pop    %r14
    5e98:	5d                   	pop    %rbp
    5e99:	c3                   	retq   

0000000000005e9a <func_46>:
    5e9a:	f3 0f 1e fa          	endbr64 
    5e9e:	55                   	push   %rbp
    5e9f:	48 89 e5             	mov    %rsp,%rbp
    5ea2:	48 81 ec c0 07 00 00 	sub    $0x7c0,%rsp
    5ea9:	48 89 bd 48 f8 ff ff 	mov    %rdi,-0x7b8(%rbp)
    5eb0:	48 89 b5 40 f8 ff ff 	mov    %rsi,-0x7c0(%rbp)
    5eb7:	64 48 8b 04 25 28 00 	mov    %fs:0x28,%rax
    5ebe:	00 00 
    5ec0:	48 89 45 f8          	mov    %rax,-0x8(%rbp)
    5ec4:	31 c0                	xor    %eax,%eax
    5ec6:	48 8d 85 60 f8 ff ff 	lea    -0x7a0(%rbp),%rax
    5ecd:	48 8d 15 0c 99 00 00 	lea    0x990c(%rip),%rdx        # f7e0 <g_2326+0x18>
    5ed4:	b9 f3 00 00 00       	mov    $0xf3,%ecx
    5ed9:	48 89 c7             	mov    %rax,%rdi
    5edc:	48 89 d6             	mov    %rdx,%rsi
    5edf:	f3 48 a5             	rep movsq %ds:(%rsi),%es:(%rdi)
    5ee2:	48 8d 85 60 f8 ff ff 	lea    -0x7a0(%rbp),%rax
    5ee9:	48 05 58 06 00 00    	add    $0x658,%rax
    5eef:	48 89 85 58 f8 ff ff 	mov    %rax,-0x7a8(%rbp)
    5ef6:	c6 85 57 f8 ff ff 06 	movb   $0x6,-0x7a9(%rbp)
    5efd:	48 8b 05 14 a2 00 00 	mov    0xa214(%rip),%rax        # 10118 <g_242>
    5f04:	8b 08                	mov    (%rax),%ecx
    5f06:	48 83 bd 58 f8 ff ff 	cmpq   $0x0,-0x7a8(%rbp)
    5f0d:	00 
    5f0e:	0f 95 c0             	setne  %al
    5f11:	0f b6 d0             	movzbl %al,%edx
    5f14:	48 8b 05 fd a1 00 00 	mov    0xa1fd(%rip),%rax        # 10118 <g_242>
    5f1b:	31 ca                	xor    %ecx,%edx
    5f1d:	89 10                	mov    %edx,(%rax)
    5f1f:	0f b6 85 57 f8 ff ff 	movzbl -0x7a9(%rbp),%eax
    5f26:	48 8b 75 f8          	mov    -0x8(%rbp),%rsi
    5f2a:	64 48 33 34 25 28 00 	xor    %fs:0x28,%rsi
    5f31:	00 00 
    5f33:	74 05                	je     5f3a <func_46+0xa0>
    5f35:	e8 36 d1 ff ff       	callq  3070 <__stack_chk_fail@plt>
    5f3a:	c9                   	leaveq 
    5f3b:	c3                   	retq   

0000000000005f3c <func_50>:
    5f3c:	f3 0f 1e fa          	endbr64 
    5f40:	55                   	push   %rbp
    5f41:	48 89 e5             	mov    %rsp,%rbp
    5f44:	41 56                	push   %r14
    5f46:	41 55                	push   %r13
    5f48:	41 54                	push   %r12
    5f4a:	53                   	push   %rbx
    5f4b:	48 81 ec a0 04 00 00 	sub    $0x4a0,%rsp
    5f52:	48 89 bd 58 fb ff ff 	mov    %rdi,-0x4a8(%rbp)
    5f59:	89 b5 54 fb ff ff    	mov    %esi,-0x4ac(%rbp)
    5f5f:	48 89 95 48 fb ff ff 	mov    %rdx,-0x4b8(%rbp)
    5f66:	48 89 8d 40 fb ff ff 	mov    %rcx,-0x4c0(%rbp)
    5f6d:	64 48 8b 04 25 28 00 	mov    %fs:0x28,%rax
    5f74:	00 00 
    5f76:	48 89 45 d8          	mov    %rax,-0x28(%rbp)
    5f7a:	31 c0                	xor    %eax,%eax
    5f7c:	48 c7 85 c8 fb ff ff 	movq   $0x0,-0x438(%rbp)
    5f83:	00 00 00 00 
    5f87:	48 8d 05 c8 90 00 00 	lea    0x90c8(%rip),%rax        # f056 <g_143+0x6>
    5f8e:	48 89 85 d0 fb ff ff 	mov    %rax,-0x430(%rbp)
    5f95:	48 c7 85 d8 fb ff ff 	movq   $0x0,-0x428(%rbp)
    5f9c:	00 00 00 00 
    5fa0:	48 8d 05 99 aa 00 00 	lea    0xaa99(%rip),%rax        # 10a40 <g_588>
    5fa7:	48 89 85 e0 fb ff ff 	mov    %rax,-0x420(%rbp)
    5fae:	c7 85 70 fb ff ff f9 	movl   $0xfffffff9,-0x490(%rbp)
    5fb5:	ff ff ff 
    5fb8:	48 8d 05 ed 93 00 00 	lea    0x93ed(%rip),%rax        # f3ac <g_209>
    5fbf:	48 89 85 80 fb ff ff 	mov    %rax,-0x480(%rbp)
    5fc6:	48 8d 85 80 fb ff ff 	lea    -0x480(%rbp),%rax
    5fcd:	48 89 85 88 fb ff ff 	mov    %rax,-0x478(%rbp)
    5fd4:	48 8d 85 88 fb ff ff 	lea    -0x478(%rbp),%rax
    5fdb:	48 89 85 90 fb ff ff 	mov    %rax,-0x470(%rbp)
    5fe2:	48 8d 85 90 fb ff ff 	lea    -0x470(%rbp),%rax
    5fe9:	48 89 85 e8 fb ff ff 	mov    %rax,-0x418(%rbp)
    5ff0:	c7 85 74 fb ff ff ff 	movl   $0xffffffff,-0x48c(%rbp)
    5ff7:	ff ff ff 
    5ffa:	48 8d 05 27 90 00 00 	lea    0x9027(%rip),%rax        # f028 <g_5>
    6001:	48 89 85 f0 fb ff ff 	mov    %rax,-0x410(%rbp)
    6008:	66 c7 85 64 fb ff ff 	movw   $0xfffc,-0x49c(%rbp)
    600f:	fc ff 
    6011:	48 8d 85 d0 fd ff ff 	lea    -0x230(%rbp),%rax
    6018:	48 8d 15 a1 52 00 00 	lea    0x52a1(%rip),%rdx        # b2c0 <g_1991+0x240>
    601f:	b9 40 00 00 00       	mov    $0x40,%ecx
    6024:	48 89 c7             	mov    %rax,%rdi
    6027:	48 89 d6             	mov    %rdx,%rsi
    602a:	f3 48 a5             	rep movsq %ds:(%rsi),%es:(%rdi)
    602d:	48 c7 85 98 fb ff ff 	movq   $0x0,-0x468(%rbp)
    6034:	00 00 00 00 
    6038:	48 8d 85 98 fb ff ff 	lea    -0x468(%rbp),%rax
    603f:	48 89 85 f8 fb ff ff 	mov    %rax,-0x408(%rbp)
    6046:	c6 85 62 fb ff ff 92 	movb   $0x92,-0x49e(%rbp)
    604d:	c6 85 63 fb ff ff 01 	movb   $0x1,-0x49d(%rbp)
    6054:	48 8d 85 63 fb ff ff 	lea    -0x49d(%rbp),%rax
    605b:	48 89 85 00 fc ff ff 	mov    %rax,-0x400(%rbp)
    6062:	66 c7 85 66 fb ff ff 	movw   $0xfff8,-0x49a(%rbp)
    6069:	f8 ff 
    606b:	48 c7 85 08 fc ff ff 	movq   $0x0,-0x3f8(%rbp)
    6072:	00 00 00 00 
    6076:	48 8d 85 62 fb ff ff 	lea    -0x49e(%rbp),%rax
    607d:	48 89 85 10 fc ff ff 	mov    %rax,-0x3f0(%rbp)
    6084:	c7 85 68 fb ff ff 00 	movl   $0x0,-0x498(%rbp)
    608b:	00 00 00 
    608e:	eb 4b                	jmp    60db <func_50+0x19f>
    6090:	c7 85 6c fb ff ff 00 	movl   $0x0,-0x494(%rbp)
    6097:	00 00 00 
    609a:	eb 2f                	jmp    60cb <func_50+0x18f>
    609c:	8b 85 6c fb ff ff    	mov    -0x494(%rbp),%eax
    60a2:	48 63 c8             	movslq %eax,%rcx
    60a5:	8b 85 68 fb ff ff    	mov    -0x498(%rbp),%eax
    60ab:	48 63 d0             	movslq %eax,%rdx
    60ae:	48 89 d0             	mov    %rdx,%rax
    60b1:	48 01 c0             	add    %rax,%rax
    60b4:	48 01 d0             	add    %rdx,%rax
    60b7:	48 01 c8             	add    %rcx,%rax
    60ba:	66 c7 84 45 74 fc ff 	movw   $0x0,-0x38c(%rbp,%rax,2)
    60c1:	ff 00 00 
    60c4:	83 85 6c fb ff ff 01 	addl   $0x1,-0x494(%rbp)
    60cb:	83 bd 6c fb ff ff 02 	cmpl   $0x2,-0x494(%rbp)
    60d2:	7e c8                	jle    609c <func_50+0x160>
    60d4:	83 85 68 fb ff ff 01 	addl   $0x1,-0x498(%rbp)
    60db:	83 bd 68 fb ff ff 00 	cmpl   $0x0,-0x498(%rbp)
    60e2:	7e ac                	jle    6090 <func_50+0x154>
    60e4:	c7 85 68 fb ff ff 00 	movl   $0x0,-0x498(%rbp)
    60eb:	00 00 00 
    60ee:	eb 1a                	jmp    610a <func_50+0x1ce>
    60f0:	8b 85 68 fb ff ff    	mov    -0x498(%rbp),%eax
    60f6:	48 98                	cltq   
    60f8:	c7 84 85 80 fc ff ff 	movl   $0xffffffff,-0x380(%rbp,%rax,4)
    60ff:	ff ff ff ff 
    6103:	83 85 68 fb ff ff 01 	addl   $0x1,-0x498(%rbp)
    610a:	83 bd 68 fb ff ff 04 	cmpl   $0x4,-0x498(%rbp)
    6111:	7e dd                	jle    60f0 <func_50+0x1b4>
    6113:	c7 85 68 fb ff ff 00 	movl   $0x0,-0x498(%rbp)
    611a:	00 00 00 
    611d:	eb 19                	jmp    6138 <func_50+0x1fc>
    611f:	8b 85 68 fb ff ff    	mov    -0x498(%rbp),%eax
    6125:	48 98                	cltq   
    6127:	66 c7 84 45 7a fc ff 	movw   $0xf4a8,-0x386(%rbp,%rax,2)
    612e:	ff a8 f4 
    6131:	83 85 68 fb ff ff 01 	addl   $0x1,-0x498(%rbp)
    6138:	83 bd 68 fb ff ff 02 	cmpl   $0x2,-0x498(%rbp)
    613f:	7e de                	jle    611f <func_50+0x1e3>
    6141:	0f b7 85 74 fc ff ff 	movzwl -0x38c(%rbp),%eax
    6148:	44 0f b7 f0          	movzwl %ax,%r14d
    614c:	0f b7 85 74 fc ff ff 	movzwl -0x38c(%rbp),%eax
    6153:	0f b7 d8             	movzwl %ax,%ebx
    6156:	8b 85 70 fb ff ff    	mov    -0x490(%rbp),%eax
    615c:	44 0f be e0          	movsbl %al,%r12d
    6160:	0f b7 95 76 fc ff ff 	movzwl -0x38a(%rbp),%edx
    6167:	0f b7 85 74 fc ff ff 	movzwl -0x38c(%rbp),%eax
    616e:	66 39 c2             	cmp    %ax,%dx
    6171:	48 8b 85 58 fb ff ff 	mov    -0x4a8(%rbp),%rax
    6178:	44 0f bf e8          	movswl %ax,%r13d
    617c:	48 8b 85 e0 fb ff ff 	mov    -0x420(%rbp),%rax
    6183:	48 8b 10             	mov    (%rax),%rdx
    6186:	48 8b 05 9b 9f 00 00 	mov    0x9f9b(%rip),%rax        # 10128 <g_380>
    618d:	48 8b 00             	mov    (%rax),%rax
    6190:	48 39 85 d8 fb ff ff 	cmp    %rax,-0x428(%rbp)
    6197:	75 0a                	jne    61a3 <func_50+0x267>
    6199:	8b 05 65 92 00 00    	mov    0x9265(%rip),%eax        # f404 <g_835>
    619f:	85 c0                	test   %eax,%eax
    61a1:	74 07                	je     61aa <func_50+0x26e>
    61a3:	b9 01 00 00 00       	mov    $0x1,%ecx
    61a8:	eb 05                	jmp    61af <func_50+0x273>
    61aa:	b9 00 00 00 00       	mov    $0x0,%ecx
    61af:	8b 05 e3 91 00 00    	mov    0x91e3(%rip),%eax        # f398 <g_205+0x18>
    61b5:	39 c1                	cmp    %eax,%ecx
    61b7:	0f 95 c0             	setne  %al
    61ba:	0f b6 c0             	movzbl %al,%eax
    61bd:	48 31 c2             	xor    %rax,%rdx
    61c0:	48 8b 85 e0 fb ff ff 	mov    -0x420(%rbp),%rax
    61c7:	48 89 10             	mov    %rdx,(%rax)
    61ca:	48 8b 85 e0 fb ff ff 	mov    -0x420(%rbp),%rax
    61d1:	48 8b 00             	mov    (%rax),%rax
    61d4:	89 c2                	mov    %eax,%edx
    61d6:	8b 05 d0 91 00 00    	mov    0x91d0(%rip),%eax        # f3ac <g_209>
    61dc:	09 d0                	or     %edx,%eax
    61de:	98                   	cwtl   
    61df:	89 c6                	mov    %eax,%esi
    61e1:	bf 67 0a 00 00       	mov    $0xa67,%edi
    61e6:	e8 6a d2 ff ff       	callq  3455 <safe_div_func_int16_t_s_s>
    61eb:	48 0f bf d0          	movswq %ax,%rdx
    61ef:	8b 05 73 8e 00 00    	mov    0x8e73(%rip),%eax        # f068 <g_182>
    61f5:	48 8b 85 d0 fb ff ff 	mov    -0x430(%rbp),%rax
    61fc:	48 3b 85 c8 fb ff ff 	cmp    -0x438(%rbp),%rax
    6203:	0f 95 c0             	setne  %al
    6206:	0f b6 c0             	movzbl %al,%eax
    6209:	48 89 d6             	mov    %rdx,%rsi
    620c:	48 89 c7             	mov    %rax,%rdi
    620f:	e8 e3 d7 ff ff       	callq  39f7 <safe_div_func_int64_t_s_s>
    6214:	0f b6 c0             	movzbl %al,%eax
    6217:	8b 95 70 fb ff ff    	mov    -0x490(%rbp),%edx
    621d:	89 d6                	mov    %edx,%esi
    621f:	89 c7                	mov    %eax,%edi
    6221:	e8 df d9 ff ff       	callq  3c05 <safe_lshift_func_uint8_t_u_s>
    6226:	8b 85 74 fb ff ff    	mov    -0x48c(%rbp),%eax
    622c:	98                   	cwtl   
    622d:	44 89 ee             	mov    %r13d,%esi
    6230:	89 c7                	mov    %eax,%edi
    6232:	e8 1e d2 ff ff       	callq  3455 <safe_div_func_int16_t_s_s>
    6237:	48 8b 85 58 fb ff ff 	mov    -0x4a8(%rbp),%rax
    623e:	0f be c0             	movsbl %al,%eax
    6241:	44 89 e6             	mov    %r12d,%esi
    6244:	89 c7                	mov    %eax,%edi
    6246:	e8 c7 cf ff ff       	callq  3212 <safe_mul_func_int8_t_s_s>
    624b:	0f be c0             	movsbl %al,%eax
    624e:	89 de                	mov    %ebx,%esi
    6250:	89 c7                	mov    %eax,%edi
    6252:	e8 75 d4 ff ff       	callq  36cc <safe_mod_func_int32_t_s_s>
    6257:	41 39 c6             	cmp    %eax,%r14d
    625a:	0f 95 c0             	setne  %al
    625d:	0f b6 d0             	movzbl %al,%edx
    6260:	48 8b 85 f0 fb ff ff 	mov    -0x410(%rbp),%rax
    6267:	8b 00                	mov    (%rax),%eax
    6269:	21 c2                	and    %eax,%edx
    626b:	48 8b 85 f0 fb ff ff 	mov    -0x410(%rbp),%rax
    6272:	89 10                	mov    %edx,(%rax)
    6274:	66 c7 05 eb a7 00 00 	movw   $0x0,0xa7eb(%rip)        # 10a68 <g_1029>
    627b:	00 00 
    627d:	e9 91 03 00 00       	jmpq   6613 <func_50+0x6d7>
    6282:	c7 85 78 fb ff ff 8c 	movl   $0x24fd648c,-0x488(%rbp)
    6289:	64 fd 24 
    628c:	c7 85 f0 fc ff ff 6f 	movl   $0xd0c8eb6f,-0x310(%rbp)
    6293:	eb c8 d0 
    6296:	c7 85 f4 fc ff ff 77 	movl   $0xe3fa7d77,-0x30c(%rbp)
    629d:	7d fa e3 
    62a0:	c7 85 f8 fc ff ff 52 	movl   $0x40476852,-0x308(%rbp)
    62a7:	68 47 40 
    62aa:	c7 85 fc fc ff ff 07 	movl   $0x7,-0x304(%rbp)
    62b1:	00 00 00 
    62b4:	c7 85 00 fd ff ff 77 	movl   $0xe3fa7d77,-0x300(%rbp)
    62bb:	7d fa e3 
    62be:	c7 85 04 fd ff ff 07 	movl   $0x7,-0x2fc(%rbp)
    62c5:	00 00 00 
    62c8:	c7 85 08 fd ff ff cf 	movl   $0x3435a0cf,-0x2f8(%rbp)
    62cf:	a0 35 34 
    62d2:	c7 85 0c fd ff ff 6f 	movl   $0xd0c8eb6f,-0x2f4(%rbp)
    62d9:	eb c8 d0 
    62dc:	c7 85 10 fd ff ff 52 	movl   $0x40476852,-0x2f0(%rbp)
    62e3:	68 47 40 
    62e6:	c7 85 14 fd ff ff cf 	movl   $0x3435a0cf,-0x2ec(%rbp)
    62ed:	a0 35 34 
    62f0:	c7 85 18 fd ff ff cf 	movl   $0x3435a0cf,-0x2e8(%rbp)
    62f7:	a0 35 34 
    62fa:	c7 85 1c fd ff ff 6f 	movl   $0xd0c8eb6f,-0x2e4(%rbp)
    6301:	eb c8 d0 
    6304:	c7 85 20 fd ff ff 07 	movl   $0x7,-0x2e0(%rbp)
    630b:	00 00 00 
    630e:	c7 85 24 fd ff ff 6f 	movl   $0xd0c8eb6f,-0x2dc(%rbp)
    6315:	eb c8 d0 
    6318:	c7 85 28 fd ff ff 6f 	movl   $0xd0c8eb6f,-0x2d8(%rbp)
    631f:	eb c8 d0 
    6322:	c7 85 2c fd ff ff 6f 	movl   $0xd0c8eb6f,-0x2d4(%rbp)
    6329:	eb c8 d0 
    632c:	c7 85 30 fd ff ff 77 	movl   $0xe3fa7d77,-0x2d0(%rbp)
    6333:	7d fa e3 
    6336:	c7 85 34 fd ff ff 52 	movl   $0x40476852,-0x2cc(%rbp)
    633d:	68 47 40 
    6340:	c7 85 38 fd ff ff 07 	movl   $0x7,-0x2c8(%rbp)
    6347:	00 00 00 
    634a:	c7 85 3c fd ff ff 77 	movl   $0xe3fa7d77,-0x2c4(%rbp)
    6351:	7d fa e3 
    6354:	c7 85 40 fd ff ff 07 	movl   $0x7,-0x2c0(%rbp)
    635b:	00 00 00 
    635e:	c7 85 44 fd ff ff cf 	movl   $0x3435a0cf,-0x2bc(%rbp)
    6365:	a0 35 34 
    6368:	c7 85 48 fd ff ff 6f 	movl   $0xd0c8eb6f,-0x2b8(%rbp)
    636f:	eb c8 d0 
    6372:	c7 85 4c fd ff ff 52 	movl   $0x40476852,-0x2b4(%rbp)
    6379:	68 47 40 
    637c:	48 c7 85 a0 fb ff ff 	movq   $0x0,-0x460(%rbp)
    6383:	00 00 00 00 
    6387:	48 8d 85 a0 fb ff ff 	lea    -0x460(%rbp),%rax
    638e:	48 89 85 a8 fb ff ff 	mov    %rax,-0x458(%rbp)
    6395:	48 8d 85 a8 fb ff ff 	lea    -0x458(%rbp),%rax
    639c:	48 89 85 18 fc ff ff 	mov    %rax,-0x3e8(%rbp)
    63a3:	c7 85 a0 fc ff ff 58 	movl   $0xd7031758,-0x360(%rbp)
    63aa:	17 03 d7 
    63ad:	c7 85 a4 fc ff ff f6 	movl   $0xfffffff6,-0x35c(%rbp)
    63b4:	ff ff ff 
    63b7:	c7 85 a8 fc ff ff 58 	movl   $0xd7031758,-0x358(%rbp)
    63be:	17 03 d7 
    63c1:	c7 85 ac fc ff ff f6 	movl   $0xfffffff6,-0x354(%rbp)
    63c8:	ff ff ff 
    63cb:	c7 85 b0 fc ff ff 58 	movl   $0xd7031758,-0x350(%rbp)
    63d2:	17 03 d7 
    63d5:	c7 85 b4 fc ff ff f6 	movl   $0xfffffff6,-0x34c(%rbp)
    63dc:	ff ff ff 
    63df:	c7 85 b8 fc ff ff 58 	movl   $0xd7031758,-0x348(%rbp)
    63e6:	17 03 d7 
    63e9:	c7 85 bc fc ff ff f6 	movl   $0xfffffff6,-0x344(%rbp)
    63f0:	ff ff ff 
    63f3:	c7 85 c0 fc ff ff 58 	movl   $0xd7031758,-0x340(%rbp)
    63fa:	17 03 d7 
    63fd:	c7 85 c4 fc ff ff f6 	movl   $0xfffffff6,-0x33c(%rbp)
    6404:	ff ff ff 
    6407:	c7 85 c8 fc ff ff 58 	movl   $0xd7031758,-0x338(%rbp)
    640e:	17 03 d7 
    6411:	c7 85 cc fc ff ff f6 	movl   $0xfffffff6,-0x334(%rbp)
    6418:	ff ff ff 
    641b:	c7 85 d0 fc ff ff 58 	movl   $0xd7031758,-0x330(%rbp)
    6422:	17 03 d7 
    6425:	c7 85 d4 fc ff ff f6 	movl   $0xfffffff6,-0x32c(%rbp)
    642c:	ff ff ff 
    642f:	c7 85 d8 fc ff ff 58 	movl   $0xd7031758,-0x328(%rbp)
    6436:	17 03 d7 
    6439:	c7 85 dc fc ff ff f6 	movl   $0xfffffff6,-0x324(%rbp)
    6440:	ff ff ff 
    6443:	c7 85 e0 fc ff ff 58 	movl   $0xd7031758,-0x320(%rbp)
    644a:	17 03 d7 
    644d:	c7 85 e4 fc ff ff f6 	movl   $0xfffffff6,-0x31c(%rbp)
    6454:	ff ff ff 
    6457:	c7 85 e8 fc ff ff 58 	movl   $0xd7031758,-0x318(%rbp)
    645e:	17 03 d7 
    6461:	c7 85 ec fc ff ff f6 	movl   $0xfffffff6,-0x314(%rbp)
    6468:	ff ff ff 
    646b:	48 8d 05 be 9c 00 00 	lea    0x9cbe(%rip),%rax        # 10130 <g_666>
    6472:	48 89 85 20 fc ff ff 	mov    %rax,-0x3e0(%rbp)
    6479:	48 b8 0c f2 1c ce 5d 	movabs $0xc3e2e45dce1cf20c,%rax
    6480:	e4 e2 c3 
    6483:	48 89 85 28 fc ff ff 	mov    %rax,-0x3d8(%rbp)
    648a:	48 8d 05 ab 8b 00 00 	lea    0x8bab(%rip),%rax        # f03c <g_56>
    6491:	48 89 85 30 fc ff ff 	mov    %rax,-0x3d0(%rbp)
    6498:	c7 85 7c fb ff ff 06 	movl   $0x6,-0x484(%rbp)
    649f:	00 00 00 
    64a2:	48 c7 85 38 fc ff ff 	movq   $0x0,-0x3c8(%rbp)
    64a9:	00 00 00 00 
    64ad:	48 8d 05 ac a5 00 00 	lea    0xa5ac(%rip),%rax        # 10a60 <g_1000>
    64b4:	48 89 85 50 fd ff ff 	mov    %rax,-0x2b0(%rbp)
    64bb:	48 8d 05 9e a5 00 00 	lea    0xa59e(%rip),%rax        # 10a60 <g_1000>
    64c2:	48 89 85 58 fd ff ff 	mov    %rax,-0x2a8(%rbp)
    64c9:	48 8d 05 90 a5 00 00 	lea    0xa590(%rip),%rax        # 10a60 <g_1000>
    64d0:	48 89 85 60 fd ff ff 	mov    %rax,-0x2a0(%rbp)
    64d7:	48 8d 05 82 a5 00 00 	lea    0xa582(%rip),%rax        # 10a60 <g_1000>
    64de:	48 89 85 68 fd ff ff 	mov    %rax,-0x298(%rbp)
    64e5:	48 8d 05 74 a5 00 00 	lea    0xa574(%rip),%rax        # 10a60 <g_1000>
    64ec:	48 89 85 70 fd ff ff 	mov    %rax,-0x290(%rbp)
    64f3:	48 8d 05 66 a5 00 00 	lea    0xa566(%rip),%rax        # 10a60 <g_1000>
    64fa:	48 89 85 78 fd ff ff 	mov    %rax,-0x288(%rbp)
    6501:	48 8d 05 58 a5 00 00 	lea    0xa558(%rip),%rax        # 10a60 <g_1000>
    6508:	48 89 85 80 fd ff ff 	mov    %rax,-0x280(%rbp)
    650f:	48 8d 05 4a a5 00 00 	lea    0xa54a(%rip),%rax        # 10a60 <g_1000>
    6516:	48 89 85 88 fd ff ff 	mov    %rax,-0x278(%rbp)
    651d:	48 8d 05 3c a5 00 00 	lea    0xa53c(%rip),%rax        # 10a60 <g_1000>
    6524:	48 89 85 90 fd ff ff 	mov    %rax,-0x270(%rbp)
    652b:	48 8d 05 2e a5 00 00 	lea    0xa52e(%rip),%rax        # 10a60 <g_1000>
    6532:	48 89 85 98 fd ff ff 	mov    %rax,-0x268(%rbp)
    6539:	48 8d 05 20 a5 00 00 	lea    0xa520(%rip),%rax        # 10a60 <g_1000>
    6540:	48 89 85 a0 fd ff ff 	mov    %rax,-0x260(%rbp)
    6547:	48 8d 05 12 a5 00 00 	lea    0xa512(%rip),%rax        # 10a60 <g_1000>
    654e:	48 89 85 a8 fd ff ff 	mov    %rax,-0x258(%rbp)
    6555:	48 8d 05 04 a5 00 00 	lea    0xa504(%rip),%rax        # 10a60 <g_1000>
    655c:	48 89 85 b0 fd ff ff 	mov    %rax,-0x250(%rbp)
    6563:	48 8d 05 f6 a4 00 00 	lea    0xa4f6(%rip),%rax        # 10a60 <g_1000>
    656a:	48 89 85 b8 fd ff ff 	mov    %rax,-0x248(%rbp)
    6571:	48 8d 05 e8 a4 00 00 	lea    0xa4e8(%rip),%rax        # 10a60 <g_1000>
    6578:	48 89 85 c0 fd ff ff 	mov    %rax,-0x240(%rbp)
    657f:	48 8d 05 da a4 00 00 	lea    0xa4da(%rip),%rax        # 10a60 <g_1000>
    6586:	48 89 85 c8 fd ff ff 	mov    %rax,-0x238(%rbp)
    658d:	48 c7 85 40 fc ff ff 	movq   $0x7,-0x3c0(%rbp)
    6594:	07 00 00 00 
    6598:	48 b8 b6 89 01 c3 d1 	movabs $0xc7aa3cd1c30189b6,%rax
    659f:	3c aa c7 
    65a2:	48 89 85 48 fc ff ff 	mov    %rax,-0x3b8(%rbp)
    65a9:	48 c7 85 b0 fb ff ff 	movq   $0x0,-0x450(%rbp)
    65b0:	00 00 00 00 
    65b4:	48 8d 85 b0 fb ff ff 	lea    -0x450(%rbp),%rax
    65bb:	48 89 85 50 fc ff ff 	mov    %rax,-0x3b0(%rbp)
    65c2:	48 c7 85 58 fc ff ff 	movq   $0xffffffffffffffff,-0x3a8(%rbp)
    65c9:	ff ff ff ff 
    65cd:	48 c7 85 b8 fb ff ff 	movq   $0x0,-0x448(%rbp)
    65d4:	00 00 00 00 
    65d8:	48 8d 85 b8 fb ff ff 	lea    -0x448(%rbp),%rax
    65df:	48 89 85 60 fc ff ff 	mov    %rax,-0x3a0(%rbp)
    65e6:	48 8d 05 5f 8a 00 00 	lea    0x8a5f(%rip),%rax        # f04c <g_137>
    65ed:	48 89 85 c0 fb ff ff 	mov    %rax,-0x440(%rbp)
    65f4:	48 8d 85 c0 fb ff ff 	lea    -0x440(%rbp),%rax
    65fb:	48 89 85 68 fc ff ff 	mov    %rax,-0x398(%rbp)
    6602:	0f b7 05 5f a4 00 00 	movzwl 0xa45f(%rip),%eax        # 10a68 <g_1029>
    6609:	83 c0 01             	add    $0x1,%eax
    660c:	66 89 05 55 a4 00 00 	mov    %ax,0xa455(%rip)        # 10a68 <g_1029>
    6613:	0f b7 05 4e a4 00 00 	movzwl 0xa44e(%rip),%eax        # 10a68 <g_1029>
    661a:	66 83 f8 05          	cmp    $0x5,%ax
    661e:	0f 86 5e fc ff ff    	jbe    6282 <func_50+0x346>
    6624:	48 8b 85 f0 fb ff ff 	mov    -0x410(%rbp),%rax
    662b:	8b 00                	mov    (%rax),%eax
    662d:	48 63 d8             	movslq %eax,%rbx
    6630:	44 8b a5 54 fb ff ff 	mov    -0x4ac(%rbp),%r12d
    6637:	48 8b 85 f0 fb ff ff 	mov    -0x410(%rbp),%rax
    663e:	44 8b 28             	mov    (%rax),%r13d
    6641:	8b 85 54 fb ff ff    	mov    -0x4ac(%rbp),%eax
    6647:	0f bf d0             	movswl %ax,%edx
    664a:	48 8b 85 58 fb ff ff 	mov    -0x4a8(%rbp),%rax
    6651:	98                   	cwtl   
    6652:	89 d6                	mov    %edx,%esi
    6654:	89 c7                	mov    %eax,%edi
    6656:	e8 fa cd ff ff       	callq  3455 <safe_div_func_int16_t_s_s>
    665b:	41 89 c6             	mov    %eax,%r14d
    665e:	8b 85 54 fb ff ff    	mov    -0x4ac(%rbp),%eax
    6664:	0f be d0             	movsbl %al,%edx
    6667:	48 8b 85 f0 fb ff ff 	mov    -0x410(%rbp),%rax
    666e:	8b 00                	mov    (%rax),%eax
    6670:	0f be c0             	movsbl %al,%eax
    6673:	89 d6                	mov    %edx,%esi
    6675:	89 c7                	mov    %eax,%edi
    6677:	e8 96 cb ff ff       	callq  3212 <safe_mul_func_int8_t_s_s>
    667c:	be 0c 00 00 00       	mov    $0xc,%esi
    6681:	bf 09 00 00 00       	mov    $0x9,%edi
    6686:	e8 ef d7 ff ff       	callq  3e7a <safe_rshift_func_uint16_t_u_u>
    668b:	98                   	cwtl   
    668c:	be 05 00 00 00       	mov    $0x5,%esi
    6691:	89 c7                	mov    %eax,%edi
    6693:	e8 fa cd ff ff       	callq  3492 <safe_lshift_func_int16_t_s_s>
    6698:	66 85 c0             	test   %ax,%ax
    669b:	74 4c                	je     66e9 <func_50+0x7ad>
    669d:	48 8b 05 34 9f 00 00 	mov    0x9f34(%rip),%rax        # 105d8 <g_1944>
    66a4:	48 8b 00             	mov    (%rax),%rax
    66a7:	48 85 c0             	test   %rax,%rax
    66aa:	75 0a                	jne    66b6 <func_50+0x77a>
    66ac:	48 83 bd 58 fb ff ff 	cmpq   $0x0,-0x4a8(%rbp)
    66b3:	00 
    66b4:	74 07                	je     66bd <func_50+0x781>
    66b6:	b8 01 00 00 00       	mov    $0x1,%eax
    66bb:	eb 05                	jmp    66c2 <func_50+0x786>
    66bd:	b8 00 00 00 00       	mov    $0x0,%eax
    66c2:	48 98                	cltq   
    66c4:	48 be 84 d1 8d 1a a1 	movabs $0xc8209ca11a8dd184,%rsi
    66cb:	9c 20 c8 
    66ce:	48 89 c7             	mov    %rax,%rdi
    66d1:	e8 de d2 ff ff       	callq  39b4 <safe_mod_func_int64_t_s_s>
    66d6:	89 c2                	mov    %eax,%edx
    66d8:	0f b7 05 61 89 00 00 	movzwl 0x8961(%rip),%eax        # f040 <g_66>
    66df:	48 0f bf c0          	movswq %ax,%rax
    66e3:	48 09 d0             	or     %rdx,%rax
    66e6:	48 85 c0             	test   %rax,%rax
    66e9:	48 83 bd 58 fb ff ff 	cmpq   $0x0,-0x4a8(%rbp)
    66f0:	00 
    66f1:	74 0b                	je     66fe <func_50+0x7c2>
    66f3:	48 8b 85 40 fb ff ff 	mov    -0x4c0(%rbp),%rax
    66fa:	8b 00                	mov    (%rax),%eax
    66fc:	85 c0                	test   %eax,%eax
    66fe:	8b 05 24 8e 00 00    	mov    0x8e24(%rip),%eax        # f528 <g_1967>
    6704:	48 8b 85 00 fc ff ff 	mov    -0x400(%rbp),%rax
    670b:	0f b6 00             	movzbl (%rax),%eax
    670e:	89 c2                	mov    %eax,%edx
    6710:	44 89 f0             	mov    %r14d,%eax
    6713:	31 d0                	xor    %edx,%eax
    6715:	89 c2                	mov    %eax,%edx
    6717:	48 8b 85 00 fc ff ff 	mov    -0x400(%rbp),%rax
    671e:	88 10                	mov    %dl,(%rax)
    6720:	48 8b 85 00 fc ff ff 	mov    -0x400(%rbp),%rax
    6727:	0f b6 00             	movzbl (%rax),%eax
    672a:	0f b6 d0             	movzbl %al,%edx
    672d:	48 8b 85 f0 fb ff ff 	mov    -0x410(%rbp),%rax
    6734:	8b 00                	mov    (%rax),%eax
    6736:	39 85 54 fb ff ff    	cmp    %eax,-0x4ac(%rbp)
    673c:	0f 9d c0             	setge  %al
    673f:	0f b6 c0             	movzbl %al,%eax
    6742:	31 d0                	xor    %edx,%eax
    6744:	89 85 74 fb ff ff    	mov    %eax,-0x48c(%rbp)
    674a:	8b 95 74 fb ff ff    	mov    -0x48c(%rbp),%edx
    6750:	48 8b 85 10 fc ff ff 	mov    -0x3f0(%rbp),%rax
    6757:	0f b6 00             	movzbl (%rax),%eax
    675a:	09 c2                	or     %eax,%edx
    675c:	48 8b 85 10 fc ff ff 	mov    -0x3f0(%rbp),%rax
    6763:	88 10                	mov    %dl,(%rax)
    6765:	48 8b 85 10 fc ff ff 	mov    -0x3f0(%rbp),%rax
    676c:	0f b6 00             	movzbl (%rax),%eax
    676f:	0f be c0             	movsbl %al,%eax
    6772:	be fc ff ff ff       	mov    $0xfffffffc,%esi
    6777:	89 c7                	mov    %eax,%edi
    6779:	e8 b3 ca ff ff       	callq  3231 <safe_mod_func_int8_t_s_s>
    677e:	84 c0                	test   %al,%al
    6780:	75 14                	jne    6796 <func_50+0x85a>
    6782:	48 8b 05 8f 99 00 00 	mov    0x998f(%rip),%rax        # 10118 <g_242>
    6789:	8b 00                	mov    (%rax),%eax
    678b:	85 c0                	test   %eax,%eax
    678d:	75 07                	jne    6796 <func_50+0x85a>
    678f:	b8 01 00 00 00       	mov    $0x1,%eax
    6794:	eb 05                	jmp    679b <func_50+0x85f>
    6796:	b8 00 00 00 00       	mov    $0x0,%eax
    679b:	3b 85 54 fb ff ff    	cmp    -0x4ac(%rbp),%eax
    67a1:	75 10                	jne    67b3 <func_50+0x877>
    67a3:	83 bd 54 fb ff ff 00 	cmpl   $0x0,-0x4ac(%rbp)
    67aa:	74 07                	je     67b3 <func_50+0x877>
    67ac:	b8 01 00 00 00       	mov    $0x1,%eax
    67b1:	eb 05                	jmp    67b8 <func_50+0x87c>
    67b3:	b8 00 00 00 00       	mov    $0x0,%eax
    67b8:	83 f8 01             	cmp    $0x1,%eax
    67bb:	0f 95 c0             	setne  %al
    67be:	0f b6 c0             	movzbl %al,%eax
    67c1:	41 39 c5             	cmp    %eax,%r13d
    67c4:	0f 9f c0             	setg   %al
    67c7:	0f b6 c0             	movzbl %al,%eax
    67ca:	be 01 00 00 00       	mov    $0x1,%esi
    67cf:	89 c7                	mov    %eax,%edi
    67d1:	e8 67 d5 ff ff       	callq  3d3d <safe_mul_func_uint16_t_u_u>
    67d6:	0f b7 c0             	movzwl %ax,%eax
    67d9:	44 89 e6             	mov    %r12d,%esi
    67dc:	89 c7                	mov    %eax,%edi
    67de:	e8 23 d6 ff ff       	callq  3e06 <safe_lshift_func_uint16_t_u_u>
    67e3:	48 89 de             	mov    %rbx,%rsi
    67e6:	bf 01 00 00 00       	mov    $0x1,%edi
    67eb:	e8 b8 d0 ff ff       	callq  38a8 <safe_sub_func_int64_t_s_s>
    67f0:	48 89 c2             	mov    %rax,%rdx
    67f3:	48 8b 05 1e 99 00 00 	mov    0x991e(%rip),%rax        # 10118 <g_242>
    67fa:	89 10                	mov    %edx,(%rax)
    67fc:	b8 00 00 00 00       	mov    $0x0,%eax
    6801:	b0 fe                	mov    $0xfe,%al
    6803:	48 8b 5d d8          	mov    -0x28(%rbp),%rbx
    6807:	64 48 33 1c 25 28 00 	xor    %fs:0x28,%rbx
    680e:	00 00 
    6810:	74 05                	je     6817 <func_50+0x8db>
    6812:	e8 59 c8 ff ff       	callq  3070 <__stack_chk_fail@plt>
    6817:	48 81 c4 a0 04 00 00 	add    $0x4a0,%rsp
    681e:	5b                   	pop    %rbx
    681f:	41 5c                	pop    %r12
    6821:	41 5d                	pop    %r13
    6823:	41 5e                	pop    %r14
    6825:	5d                   	pop    %rbp
    6826:	c3                   	retq   

0000000000006827 <func_60>:
    6827:	f3 0f 1e fa          	endbr64 
    682b:	55                   	push   %rbp
    682c:	48 89 e5             	mov    %rsp,%rbp
    682f:	41 57                	push   %r15
    6831:	41 56                	push   %r14
    6833:	41 55                	push   %r13
    6835:	41 54                	push   %r12
    6837:	53                   	push   %rbx
    6838:	48 81 ec e8 00 00 00 	sub    $0xe8,%rsp
    683f:	89 bd 0c ff ff ff    	mov    %edi,-0xf4(%rbp)
    6845:	48 89 b5 00 ff ff ff 	mov    %rsi,-0x100(%rbp)
    684c:	64 48 8b 04 25 28 00 	mov    %fs:0x28,%rax
    6853:	00 00 
    6855:	48 89 45 c8          	mov    %rax,-0x38(%rbp)
    6859:	31 c0                	xor    %eax,%eax
    685b:	c7 85 20 ff ff ff 10 	movl   $0x28040910,-0xe0(%rbp)
    6862:	09 04 28 
    6865:	48 c7 85 30 ff ff ff 	movq   $0x0,-0xd0(%rbp)
    686c:	00 00 00 00 
    6870:	48 8d 05 a1 98 00 00 	lea    0x98a1(%rip),%rax        # 10118 <g_242>
    6877:	48 89 85 38 ff ff ff 	mov    %rax,-0xc8(%rbp)
    687e:	48 8d 05 8b 98 00 00 	lea    0x988b(%rip),%rax        # 10110 <g_93>
    6885:	48 89 85 40 ff ff ff 	mov    %rax,-0xc0(%rbp)
    688c:	48 8d 05 29 8b 00 00 	lea    0x8b29(%rip),%rax        # f3bc <g_356>
    6893:	48 89 85 48 ff ff ff 	mov    %rax,-0xb8(%rbp)
    689a:	48 8d 05 0f 8c 00 00 	lea    0x8c0f(%rip),%rax        # f4b0 <g_1352+0x10>
    68a1:	48 89 85 50 ff ff ff 	mov    %rax,-0xb0(%rbp)
    68a8:	48 8d 05 01 8c 00 00 	lea    0x8c01(%rip),%rax        # f4b0 <g_1352+0x10>
    68af:	48 89 85 58 ff ff ff 	mov    %rax,-0xa8(%rbp)
    68b6:	48 c7 85 60 ff ff ff 	movq   $0x0,-0xa0(%rbp)
    68bd:	00 00 00 00 
    68c1:	48 8d 05 44 8b 00 00 	lea    0x8b44(%rip),%rax        # f40c <g_952>
    68c8:	48 89 45 80          	mov    %rax,-0x80(%rbp)
    68cc:	48 8d 05 39 8b 00 00 	lea    0x8b39(%rip),%rax        # f40c <g_952>
    68d3:	48 89 45 88          	mov    %rax,-0x78(%rbp)
    68d7:	48 8d 05 2e 8b 00 00 	lea    0x8b2e(%rip),%rax        # f40c <g_952>
    68de:	48 89 45 90          	mov    %rax,-0x70(%rbp)
    68e2:	48 8d 05 23 8b 00 00 	lea    0x8b23(%rip),%rax        # f40c <g_952>
    68e9:	48 89 45 98          	mov    %rax,-0x68(%rbp)
    68ed:	48 8d 05 18 8b 00 00 	lea    0x8b18(%rip),%rax        # f40c <g_952>
    68f4:	48 89 45 a0          	mov    %rax,-0x60(%rbp)
    68f8:	48 8d 05 0d 8b 00 00 	lea    0x8b0d(%rip),%rax        # f40c <g_952>
    68ff:	48 89 45 a8          	mov    %rax,-0x58(%rbp)
    6903:	48 8d 05 02 8b 00 00 	lea    0x8b02(%rip),%rax        # f40c <g_952>
    690a:	48 89 45 b0          	mov    %rax,-0x50(%rbp)
    690e:	48 8d 05 f7 8a 00 00 	lea    0x8af7(%rip),%rax        # f40c <g_952>
    6915:	48 89 45 b8          	mov    %rax,-0x48(%rbp)
    6919:	48 8d 05 ec 8a 00 00 	lea    0x8aec(%rip),%rax        # f40c <g_952>
    6920:	48 89 45 c0          	mov    %rax,-0x40(%rbp)
    6924:	c6 85 1f ff ff ff bc 	movb   $0xbc,-0xe1(%rbp)
    692b:	c7 85 24 ff ff ff 22 	movl   $0x5b08cb22,-0xdc(%rbp)
    6932:	cb 08 5b 
    6935:	c7 85 28 ff ff ff 00 	movl   $0x0,-0xd8(%rbp)
    693c:	00 00 00 
    693f:	c7 85 2c ff ff ff 01 	movl   $0x1,-0xd4(%rbp)
    6946:	00 00 00 
    6949:	48 c7 85 68 ff ff ff 	movq   $0x0,-0x98(%rbp)
    6950:	00 00 00 00 
    6954:	48 8d 05 01 8a 00 00 	lea    0x8a01(%rip),%rax        # f35c <g_204+0xc>
    695b:	48 89 85 70 ff ff ff 	mov    %rax,-0x90(%rbp)
    6962:	48 8d 05 1b 8b 00 00 	lea    0x8b1b(%rip),%rax        # f484 <g_1327+0x4>
    6969:	48 89 85 78 ff ff ff 	mov    %rax,-0x88(%rbp)
    6970:	48 8b 05 81 97 00 00 	mov    0x9781(%rip),%rax        # 100f8 <g_64>
    6977:	48 8b 18             	mov    (%rax),%rbx
    697a:	8b 85 0c ff ff ff    	mov    -0xf4(%rbp),%eax
    6980:	48 89 85 f8 fe ff ff 	mov    %rax,-0x108(%rbp)
    6987:	48 8b 85 38 ff ff ff 	mov    -0xc8(%rbp),%rax
    698e:	4c 8b 20             	mov    (%rax),%r12
    6991:	8b 8d 0c ff ff ff    	mov    -0xf4(%rbp),%ecx
    6997:	89 8d 08 ff ff ff    	mov    %ecx,-0xf8(%rbp)
    699d:	44 8b ad 0c ff ff ff 	mov    -0xf4(%rbp),%r13d
    69a4:	8b 85 0c ff ff ff    	mov    -0xf4(%rbp),%eax
    69aa:	44 0f be f0          	movsbl %al,%r14d
    69ae:	81 bd 0c ff ff ff fd 	cmpl   $0xa4fd,-0xf4(%rbp)
    69b5:	a4 00 00 
    69b8:	0f 95 c0             	setne  %al
    69bb:	44 0f b6 f8          	movzbl %al,%r15d
    69bf:	8b 85 0c ff ff ff    	mov    -0xf4(%rbp),%eax
    69c5:	0f be c0             	movsbl %al,%eax
    69c8:	89 c6                	mov    %eax,%esi
    69ca:	bf 44 00 00 00       	mov    $0x44,%edi
    69cf:	e8 3e c8 ff ff       	callq  3212 <safe_mul_func_int8_t_s_s>
    69d4:	0f be c0             	movsbl %al,%eax
    69d7:	41 39 c7             	cmp    %eax,%r15d
    69da:	0f 9e c0             	setle  %al
    69dd:	0f b6 d0             	movzbl %al,%edx
    69e0:	48 8b 35 29 97 00 00 	mov    0x9729(%rip),%rsi        # 10110 <g_93>
    69e7:	48 8b 85 30 ff ff ff 	mov    -0xd0(%rbp),%rax
    69ee:	44 89 f1             	mov    %r14d,%ecx
    69f1:	48 89 c7             	mov    %rax,%rdi
    69f4:	e8 58 21 00 00       	callq  8b51 <func_87>
    69f9:	48 89 c6             	mov    %rax,%rsi
    69fc:	8b 85 20 ff ff ff    	mov    -0xe0(%rbp),%eax
    6a02:	48 8b 95 38 ff ff ff 	mov    -0xc8(%rbp),%rdx
    6a09:	44 8b 85 08 ff ff ff 	mov    -0xf8(%rbp),%r8d
    6a10:	48 89 d1             	mov    %rdx,%rcx
    6a13:	4c 89 ea             	mov    %r13,%rdx
    6a16:	48 89 c7             	mov    %rax,%rdi
    6a19:	e8 e0 0f 00 00       	callq  79fe <func_81>
    6a1e:	48 85 c0             	test   %rax,%rax
    6a21:	0f 95 c0             	setne  %al
    6a24:	0f b6 c8             	movzbl %al,%ecx
    6a27:	8b 85 0c ff ff ff    	mov    -0xf4(%rbp),%eax
    6a2d:	0f b7 c0             	movzwl %ax,%eax
    6a30:	48 8b 95 00 ff ff ff 	mov    -0x100(%rbp),%rdx
    6a37:	48 89 ce             	mov    %rcx,%rsi
    6a3a:	89 c7                	mov    %eax,%edi
    6a3c:	e8 78 04 00 00       	callq  6eb9 <func_77>
    6a41:	48 89 c6             	mov    %rax,%rsi
    6a44:	8b 85 20 ff ff ff    	mov    -0xe0(%rbp),%eax
    6a4a:	98                   	cwtl   
    6a4b:	4c 8b 85 f8 fe ff ff 	mov    -0x108(%rbp),%r8
    6a52:	48 8d 0d 97 96 00 00 	lea    0x9697(%rip),%rcx        # 100f0 <g_65>
    6a59:	4c 89 e2             	mov    %r12,%rdx
    6a5c:	89 c7                	mov    %eax,%edi
    6a5e:	e8 43 02 00 00       	callq  6ca6 <func_70>
    6a63:	48 89 de             	mov    %rbx,%rsi
    6a66:	bf 09 00 00 00       	mov    $0x9,%edi
    6a6b:	e8 5a 01 00 00       	callq  6bca <func_67>
    6a70:	48 8b 95 40 ff ff ff 	mov    -0xc0(%rbp),%rdx
    6a77:	48 89 02             	mov    %rax,(%rdx)
    6a7a:	83 85 28 ff ff ff 01 	addl   $0x1,-0xd8(%rbp)
    6a81:	8b 85 0c ff ff ff    	mov    -0xf4(%rbp),%eax
    6a87:	0f bf d8             	movswl %ax,%ebx
    6a8a:	0f b7 05 a1 85 00 00 	movzwl 0x85a1(%rip),%eax        # f032 <g_28>
    6a91:	98                   	cwtl   
    6a92:	31 85 2c ff ff ff    	xor    %eax,-0xd4(%rbp)
    6a98:	8b 85 2c ff ff ff    	mov    -0xd4(%rbp),%eax
    6a9e:	83 e0 01             	and    $0x1,%eax
    6aa1:	89 c2                	mov    %eax,%edx
    6aa3:	48 8b 85 70 ff ff ff 	mov    -0x90(%rbp),%rax
    6aaa:	66 89 10             	mov    %dx,(%rax)
    6aad:	48 8b 85 70 ff ff ff 	mov    -0x90(%rbp),%rax
    6ab4:	0f b7 00             	movzwl (%rax),%eax
    6ab7:	66 85 c0             	test   %ax,%ax
    6aba:	75 5a                	jne    6b16 <func_60+0x2ef>
    6abc:	48 8b 05 4d 98 00 00 	mov    0x984d(%rip),%rax        # 10310 <g_1178>
    6ac3:	48 8b 00             	mov    (%rax),%rax
    6ac6:	c7 00 01 00 00 00    	movl   $0x1,(%rax)
    6acc:	48 8b 85 50 ff ff ff 	mov    -0xb0(%rbp),%rax
    6ad3:	8b 00                	mov    (%rax),%eax
    6ad5:	48 98                	cltq   
    6ad7:	48 89 05 d2 88 00 00 	mov    %rax,0x88d2(%rip)        # f3b0 <g_210>
    6ade:	be 01 00 00 00       	mov    $0x1,%esi
    6ae3:	bf fa ff ff ff       	mov    $0xfffffffa,%edi
    6ae8:	e8 e6 c8 ff ff       	callq  33d3 <safe_sub_func_int16_t_s_s>
    6aed:	48 8b 95 38 ff ff ff 	mov    -0xc8(%rbp),%rdx
    6af4:	48 8b 12             	mov    (%rdx),%rdx
    6af7:	8b 0a                	mov    (%rdx),%ecx
    6af9:	0f bf d0             	movswl %ax,%edx
    6afc:	48 8b 85 38 ff ff ff 	mov    -0xc8(%rbp),%rax
    6b03:	48 8b 00             	mov    (%rax),%rax
    6b06:	21 ca                	and    %ecx,%edx
    6b08:	89 10                	mov    %edx,(%rax)
    6b0a:	48 8b 85 78 ff ff ff 	mov    -0x88(%rbp),%rax
    6b11:	66 c7 00 01 00       	movw   $0x1,(%rax)
    6b16:	b8 01 00 00 00       	mov    $0x1,%eax
    6b1b:	98                   	cwtl   
    6b1c:	89 de                	mov    %ebx,%esi
    6b1e:	89 c7                	mov    %eax,%edi
    6b20:	e8 30 c9 ff ff       	callq  3455 <safe_div_func_int16_t_s_s>
    6b25:	48 8b 85 48 ff ff ff 	mov    -0xb8(%rbp),%rax
    6b2c:	8b 00                	mov    (%rax),%eax
    6b2e:	23 85 0c ff ff ff    	and    -0xf4(%rbp),%eax
    6b34:	89 c3                	mov    %eax,%ebx
    6b36:	8b 95 0c ff ff ff    	mov    -0xf4(%rbp),%edx
    6b3c:	83 bd 0c ff ff ff 1a 	cmpl   $0x1a,-0xf4(%rbp)
    6b43:	0f 95 c0             	setne  %al
    6b46:	0f b6 c0             	movzbl %al,%eax
    6b49:	89 d6                	mov    %edx,%esi
    6b4b:	89 c7                	mov    %eax,%edi
    6b4d:	e8 4f c7 ff ff       	callq  32a1 <safe_lshift_func_int8_t_s_s>
    6b52:	c0 e8 07             	shr    $0x7,%al
    6b55:	0f b6 c0             	movzbl %al,%eax
    6b58:	48 39 c3             	cmp    %rax,%rbx
    6b5b:	0f 93 c0             	setae  %al
    6b5e:	0f b6 c0             	movzbl %al,%eax
    6b61:	be 2d 81 ff ff       	mov    $0xffff812d,%esi
    6b66:	89 c7                	mov    %eax,%edi
    6b68:	e8 88 c8 ff ff       	callq  33f5 <safe_mul_func_int16_t_s_s>
    6b6d:	48 8d 05 8c 99 00 00 	lea    0x998c(%rip),%rax        # 10500 <g_1479>
    6b74:	48 85 c0             	test   %rax,%rax
    6b77:	74 07                	je     6b80 <func_60+0x359>
    6b79:	b8 01 00 00 00       	mov    $0x1,%eax
    6b7e:	eb 05                	jmp    6b85 <func_60+0x35e>
    6b80:	b8 00 00 00 00       	mov    $0x0,%eax
    6b85:	39 85 0c ff ff ff    	cmp    %eax,-0xf4(%rbp)
    6b8b:	0f 97 c0             	seta   %al
    6b8e:	0f b6 d0             	movzbl %al,%edx
    6b91:	48 8b 85 48 ff ff ff 	mov    -0xb8(%rbp),%rax
    6b98:	89 10                	mov    %edx,(%rax)
    6b9a:	48 8b 85 38 ff ff ff 	mov    -0xc8(%rbp),%rax
    6ba1:	48 8b 00             	mov    (%rax),%rax
    6ba4:	48 8b 5d c8          	mov    -0x38(%rbp),%rbx
    6ba8:	64 48 33 1c 25 28 00 	xor    %fs:0x28,%rbx
    6baf:	00 00 
    6bb1:	74 05                	je     6bb8 <func_60+0x391>
    6bb3:	e8 b8 c4 ff ff       	callq  3070 <__stack_chk_fail@plt>
    6bb8:	48 81 c4 e8 00 00 00 	add    $0xe8,%rsp
    6bbf:	5b                   	pop    %rbx
    6bc0:	41 5c                	pop    %r12
    6bc2:	41 5d                	pop    %r13
    6bc4:	41 5e                	pop    %r14
    6bc6:	41 5f                	pop    %r15
    6bc8:	5d                   	pop    %rbp
    6bc9:	c3                   	retq   

0000000000006bca <func_67>:
    6bca:	f3 0f 1e fa          	endbr64 
    6bce:	55                   	push   %rbp
    6bcf:	48 89 e5             	mov    %rsp,%rbp
    6bd2:	48 83 c4 80          	add    $0xffffffffffffff80,%rsp
    6bd6:	89 f8                	mov    %edi,%eax
    6bd8:	48 89 75 80          	mov    %rsi,-0x80(%rbp)
    6bdc:	66 89 45 8c          	mov    %ax,-0x74(%rbp)
    6be0:	64 48 8b 04 25 28 00 	mov    %fs:0x28,%rax
    6be7:	00 00 
    6be9:	48 89 45 f8          	mov    %rax,-0x8(%rbp)
    6bed:	31 c0                	xor    %eax,%eax
    6bef:	c6 45 99 9f          	movb   $0x9f,-0x67(%rbp)
    6bf3:	c7 45 a0 ff ff ff ff 	movl   $0xffffffff,-0x60(%rbp)
    6bfa:	48 8d 05 bb 87 00 00 	lea    0x87bb(%rip),%rax        # f3bc <g_356>
    6c01:	48 89 45 b0          	mov    %rax,-0x50(%rbp)
    6c05:	48 8d 05 00 88 00 00 	lea    0x8800(%rip),%rax        # f40c <g_952>
    6c0c:	48 89 45 b8          	mov    %rax,-0x48(%rbp)
    6c10:	48 8d 05 a5 87 00 00 	lea    0x87a5(%rip),%rax        # f3bc <g_356>
    6c17:	48 89 45 c0          	mov    %rax,-0x40(%rbp)
    6c1b:	48 8d 05 ea 87 00 00 	lea    0x87ea(%rip),%rax        # f40c <g_952>
    6c22:	48 89 45 c8          	mov    %rax,-0x38(%rbp)
    6c26:	48 8d 05 8f 87 00 00 	lea    0x878f(%rip),%rax        # f3bc <g_356>
    6c2d:	48 89 45 d0          	mov    %rax,-0x30(%rbp)
    6c31:	48 8d 05 d4 87 00 00 	lea    0x87d4(%rip),%rax        # f40c <g_952>
    6c38:	48 89 45 d8          	mov    %rax,-0x28(%rbp)
    6c3c:	48 8d 05 79 87 00 00 	lea    0x8779(%rip),%rax        # f3bc <g_356>
    6c43:	48 89 45 e0          	mov    %rax,-0x20(%rbp)
    6c47:	48 8d 05 be 87 00 00 	lea    0x87be(%rip),%rax        # f40c <g_952>
    6c4e:	48 89 45 e8          	mov    %rax,-0x18(%rbp)
    6c52:	48 8d 05 63 87 00 00 	lea    0x8763(%rip),%rax        # f3bc <g_356>
    6c59:	48 89 45 f0          	mov    %rax,-0x10(%rbp)
    6c5d:	66 c7 45 9a ff ff    	movw   $0xffff,-0x66(%rbp)
    6c63:	66 c7 45 9c ff ff    	movw   $0xffff,-0x64(%rbp)
    6c69:	c7 45 a4 bc 8f d4 78 	movl   $0x78d48fbc,-0x5c(%rbp)
    6c70:	66 c7 45 9e ee d2    	movw   $0xd2ee,-0x62(%rbp)
    6c76:	48 8d 05 8b 94 00 00 	lea    0x948b(%rip),%rax        # 10108 <g_94>
    6c7d:	48 89 45 a8          	mov    %rax,-0x58(%rbp)
    6c81:	0f b7 45 9e          	movzwl -0x62(%rbp),%eax
    6c85:	83 e8 01             	sub    $0x1,%eax
    6c88:	66 89 45 9e          	mov    %ax,-0x62(%rbp)
    6c8c:	48 8b 45 a8          	mov    -0x58(%rbp),%rax
    6c90:	48 8b 55 f8          	mov    -0x8(%rbp),%rdx
    6c94:	64 48 33 14 25 28 00 	xor    %fs:0x28,%rdx
    6c9b:	00 00 
    6c9d:	74 05                	je     6ca4 <func_67+0xda>
    6c9f:	e8 cc c3 ff ff       	callq  3070 <__stack_chk_fail@plt>
    6ca4:	c9                   	leaveq 
    6ca5:	c3                   	retq   

0000000000006ca6 <func_70>:
    6ca6:	f3 0f 1e fa          	endbr64 
    6caa:	55                   	push   %rbp
    6cab:	48 89 e5             	mov    %rsp,%rbp
    6cae:	48 81 ec 20 01 00 00 	sub    $0x120,%rsp
    6cb5:	89 f8                	mov    %edi,%eax
    6cb7:	48 89 b5 00 ff ff ff 	mov    %rsi,-0x100(%rbp)
    6cbe:	48 89 95 f8 fe ff ff 	mov    %rdx,-0x108(%rbp)
    6cc5:	48 89 8d f0 fe ff ff 	mov    %rcx,-0x110(%rbp)
    6ccc:	4c 89 85 e8 fe ff ff 	mov    %r8,-0x118(%rbp)
    6cd3:	66 89 85 0c ff ff ff 	mov    %ax,-0xf4(%rbp)
    6cda:	64 48 8b 04 25 28 00 	mov    %fs:0x28,%rax
    6ce1:	00 00 
    6ce3:	48 89 45 f8          	mov    %rax,-0x8(%rbp)
    6ce7:	31 c0                	xor    %eax,%eax
    6ce9:	48 c7 85 18 ff ff ff 	movq   $0x0,-0xe8(%rbp)
    6cf0:	00 00 00 00 
    6cf4:	48 c7 85 30 ff ff ff 	movq   $0x0,-0xd0(%rbp)
    6cfb:	00 00 00 00 
    6cff:	48 8d 05 3a 9d 00 00 	lea    0x9d3a(%rip),%rax        # 10a40 <g_588>
    6d06:	48 89 85 38 ff ff ff 	mov    %rax,-0xc8(%rbp)
    6d0d:	48 8d 05 2c 9d 00 00 	lea    0x9d2c(%rip),%rax        # 10a40 <g_588>
    6d14:	48 89 85 40 ff ff ff 	mov    %rax,-0xc0(%rbp)
    6d1b:	48 8d 05 1e 9d 00 00 	lea    0x9d1e(%rip),%rax        # 10a40 <g_588>
    6d22:	48 89 85 48 ff ff ff 	mov    %rax,-0xb8(%rbp)
    6d29:	48 c7 85 50 ff ff ff 	movq   $0x0,-0xb0(%rbp)
    6d30:	00 00 00 00 
    6d34:	48 8d 05 05 9d 00 00 	lea    0x9d05(%rip),%rax        # 10a40 <g_588>
    6d3b:	48 89 85 58 ff ff ff 	mov    %rax,-0xa8(%rbp)
    6d42:	48 c7 85 60 ff ff ff 	movq   $0x0,-0xa0(%rbp)
    6d49:	00 00 00 00 
    6d4d:	48 8d 05 ec 9c 00 00 	lea    0x9cec(%rip),%rax        # 10a40 <g_588>
    6d54:	48 89 85 68 ff ff ff 	mov    %rax,-0x98(%rbp)
    6d5b:	48 c7 85 70 ff ff ff 	movq   $0x0,-0x90(%rbp)
    6d62:	00 00 00 00 
    6d66:	48 8d 05 d3 9c 00 00 	lea    0x9cd3(%rip),%rax        # 10a40 <g_588>
    6d6d:	48 89 85 78 ff ff ff 	mov    %rax,-0x88(%rbp)
    6d74:	48 c7 45 80 00 00 00 	movq   $0x0,-0x80(%rbp)
    6d7b:	00 
    6d7c:	48 8d 05 bd 9c 00 00 	lea    0x9cbd(%rip),%rax        # 10a40 <g_588>
    6d83:	48 89 45 88          	mov    %rax,-0x78(%rbp)
    6d87:	48 8d 05 b2 9c 00 00 	lea    0x9cb2(%rip),%rax        # 10a40 <g_588>
    6d8e:	48 89 45 90          	mov    %rax,-0x70(%rbp)
    6d92:	48 8d 05 a7 9c 00 00 	lea    0x9ca7(%rip),%rax        # 10a40 <g_588>
    6d99:	48 89 45 98          	mov    %rax,-0x68(%rbp)
    6d9d:	48 c7 45 a0 00 00 00 	movq   $0x0,-0x60(%rbp)
    6da4:	00 
    6da5:	48 8d 05 94 9c 00 00 	lea    0x9c94(%rip),%rax        # 10a40 <g_588>
    6dac:	48 89 45 a8          	mov    %rax,-0x58(%rbp)
    6db0:	48 c7 45 b0 00 00 00 	movq   $0x0,-0x50(%rbp)
    6db7:	00 
    6db8:	48 8d 05 81 9c 00 00 	lea    0x9c81(%rip),%rax        # 10a40 <g_588>
    6dbf:	48 89 45 b8          	mov    %rax,-0x48(%rbp)
    6dc3:	48 c7 45 c0 00 00 00 	movq   $0x0,-0x40(%rbp)
    6dca:	00 
    6dcb:	48 8d 05 6e 9c 00 00 	lea    0x9c6e(%rip),%rax        # 10a40 <g_588>
    6dd2:	48 89 45 c8          	mov    %rax,-0x38(%rbp)
    6dd6:	48 c7 45 d0 00 00 00 	movq   $0x0,-0x30(%rbp)
    6ddd:	00 
    6dde:	48 8d 05 5b 9c 00 00 	lea    0x9c5b(%rip),%rax        # 10a40 <g_588>
    6de5:	48 89 45 d8          	mov    %rax,-0x28(%rbp)
    6de9:	48 8d 05 50 9c 00 00 	lea    0x9c50(%rip),%rax        # 10a40 <g_588>
    6df0:	48 89 45 e0          	mov    %rax,-0x20(%rbp)
    6df4:	48 8d 05 45 9c 00 00 	lea    0x9c45(%rip),%rax        # 10a40 <g_588>
    6dfb:	48 89 45 e8          	mov    %rax,-0x18(%rbp)
    6dff:	48 8d 05 2a 82 00 00 	lea    0x822a(%rip),%rax        # f030 <g_24>
    6e06:	48 89 85 20 ff ff ff 	mov    %rax,-0xe0(%rbp)
    6e0d:	c7 85 14 ff ff ff 00 	movl   $0x0,-0xec(%rbp)
    6e14:	00 00 00 
    6e17:	eb 19                	jmp    6e32 <func_70+0x18c>
    6e19:	8b 85 14 ff ff ff    	mov    -0xec(%rbp),%eax
    6e1f:	48 98                	cltq   
    6e21:	66 c7 84 45 2c ff ff 	movw   $0x5,-0xd4(%rbp,%rax,2)
    6e28:	ff 05 00 
    6e2b:	83 85 14 ff ff ff 01 	addl   $0x1,-0xec(%rbp)
    6e32:	83 bd 14 ff ff ff 01 	cmpl   $0x1,-0xec(%rbp)
    6e39:	7e de                	jle    6e19 <func_70+0x173>
    6e3b:	48 8b 85 20 ff ff ff 	mov    -0xe0(%rbp),%rax
    6e42:	c6 00 01             	movb   $0x1,(%rax)
    6e45:	bf 01 00 00 00       	mov    $0x1,%edi
    6e4a:	e8 f6 cc ff ff       	callq  3b45 <safe_unary_minus_func_uint8_t_u>
    6e4f:	48 8b 05 ba 94 00 00 	mov    0x94ba(%rip),%rax        # 10310 <g_1178>
    6e56:	48 8b 00             	mov    (%rax),%rax
    6e59:	0f b7 85 2c ff ff ff 	movzwl -0xd4(%rbp),%eax
    6e60:	66 83 f8 01          	cmp    $0x1,%ax
    6e64:	0f 97 c2             	seta   %dl
    6e67:	48 8b 05 a2 94 00 00 	mov    0x94a2(%rip),%rax        # 10310 <g_1178>
    6e6e:	48 8b 00             	mov    (%rax),%rax
    6e71:	0f b6 d2             	movzbl %dl,%edx
    6e74:	89 10                	mov    %edx,(%rax)
    6e76:	8b 00                	mov    (%rax),%eax
    6e78:	be 01 00 00 00       	mov    $0x1,%esi
    6e7d:	89 c7                	mov    %eax,%edi
    6e7f:	e8 4c d0 ff ff       	callq  3ed0 <safe_sub_func_uint32_t_u_u>
    6e84:	83 f8 1f             	cmp    $0x1f,%eax
    6e87:	0f 96 c0             	setbe  %al
    6e8a:	0f b6 d0             	movzbl %al,%edx
    6e8d:	48 8b 85 f8 fe ff ff 	mov    -0x108(%rbp),%rax
    6e94:	89 10                	mov    %edx,(%rax)
    6e96:	48 8b 85 f0 fe ff ff 	mov    -0x110(%rbp),%rax
    6e9d:	48 8b 00             	mov    (%rax),%rax
    6ea0:	0f b7 00             	movzwl (%rax),%eax
    6ea3:	48 8b 4d f8          	mov    -0x8(%rbp),%rcx
    6ea7:	64 48 33 0c 25 28 00 	xor    %fs:0x28,%rcx
    6eae:	00 00 
    6eb0:	74 05                	je     6eb7 <func_70+0x211>
    6eb2:	e8 b9 c1 ff ff       	callq  3070 <__stack_chk_fail@plt>
    6eb7:	c9                   	leaveq 
    6eb8:	c3                   	retq   

0000000000006eb9 <func_77>:
    6eb9:	f3 0f 1e fa          	endbr64 
    6ebd:	55                   	push   %rbp
    6ebe:	48 89 e5             	mov    %rsp,%rbp
    6ec1:	41 56                	push   %r14
    6ec3:	41 55                	push   %r13
    6ec5:	41 54                	push   %r12
    6ec7:	53                   	push   %rbx
    6ec8:	48 81 ec 30 05 00 00 	sub    $0x530,%rsp
    6ecf:	89 f8                	mov    %edi,%eax
    6ed1:	48 89 b5 c0 fa ff ff 	mov    %rsi,-0x540(%rbp)
    6ed8:	48 89 95 b8 fa ff ff 	mov    %rdx,-0x548(%rbp)
    6edf:	66 89 85 cc fa ff ff 	mov    %ax,-0x534(%rbp)
    6ee6:	64 48 8b 04 25 28 00 	mov    %fs:0x28,%rax
    6eed:	00 00 
    6eef:	48 89 45 d8          	mov    %rax,-0x28(%rbp)
    6ef3:	31 c0                	xor    %eax,%eax
    6ef5:	48 8d 05 a4 92 00 00 	lea    0x92a4(%rip),%rax        # 101a0 <g_665+0x60>
    6efc:	48 89 85 18 fb ff ff 	mov    %rax,-0x4e8(%rbp)
    6f03:	c7 85 e0 fa ff ff 00 	movl   $0x0,-0x520(%rbp)
    6f0a:	00 00 00 
    6f0d:	48 8d 05 9c 84 00 00 	lea    0x849c(%rip),%rax        # f3b0 <g_210>
    6f14:	48 89 85 08 fb ff ff 	mov    %rax,-0x4f8(%rbp)
    6f1b:	c6 85 dc fa ff ff 01 	movb   $0x1,-0x524(%rbp)
    6f22:	c7 85 e4 fa ff ff 16 	movl   $0xcc392616,-0x51c(%rbp)
    6f29:	26 39 cc 
    6f2c:	c7 85 f4 fa ff ff 01 	movl   $0x1,-0x50c(%rbp)
    6f33:	00 00 00 
    6f36:	c7 85 f8 fa ff ff 06 	movl   $0x6,-0x508(%rbp)
    6f3d:	00 00 00 
    6f40:	48 c7 85 20 fb ff ff 	movq   $0x0,-0x4e0(%rbp)
    6f47:	00 00 00 00 
    6f4b:	c7 85 e8 fa ff ff 00 	movl   $0x0,-0x518(%rbp)
    6f52:	00 00 00 
    6f55:	eb 1e                	jmp    6f75 <func_77+0xbc>
    6f57:	8b 85 e8 fa ff ff    	mov    -0x518(%rbp),%eax
    6f5d:	48 98                	cltq   
    6f5f:	48 8d 15 b2 91 00 00 	lea    0x91b2(%rip),%rdx        # 10118 <g_242>
    6f66:	48 89 94 c5 d0 fb ff 	mov    %rdx,-0x430(%rbp,%rax,8)
    6f6d:	ff 
    6f6e:	83 85 e8 fa ff ff 01 	addl   $0x1,-0x518(%rbp)
    6f75:	83 bd e8 fa ff ff 07 	cmpl   $0x7,-0x518(%rbp)
    6f7c:	7e d9                	jle    6f57 <func_77+0x9e>
    6f7e:	48 8b 05 7b 93 00 00 	mov    0x937b(%rip),%rax        # 10300 <g_1111>
    6f85:	48 8b 00             	mov    (%rax),%rax
    6f88:	8b 00                	mov    (%rax),%eax
    6f8a:	89 c7                	mov    %eax,%edi
    6f8c:	e8 05 c6 ff ff       	callq  3596 <safe_unary_minus_func_int32_t_s>
    6f91:	0f be d8             	movsbl %al,%ebx
    6f94:	48 8b 85 18 fb ff ff 	mov    -0x4e8(%rbp),%rax
    6f9b:	48 8d 15 8e 91 00 00 	lea    0x918e(%rip),%rdx        # 10130 <g_666>
    6fa2:	48 89 10             	mov    %rdx,(%rax)
    6fa5:	8b 85 e0 fa ff ff    	mov    -0x520(%rbp),%eax
    6fab:	4c 63 e0             	movslq %eax,%r12
    6fae:	0f b7 05 49 84 00 00 	movzwl 0x8449(%rip),%eax        # f3fe <g_661>
    6fb5:	48 0f bf c0          	movswq %ax,%rax
    6fb9:	48 89 c6             	mov    %rax,%rsi
    6fbc:	48 c7 c7 ff ff ff ff 	mov    $0xffffffffffffffff,%rdi
    6fc3:	e8 79 c8 ff ff       	callq  3841 <safe_add_func_int64_t_s_s>
    6fc8:	49 39 c4             	cmp    %rax,%r12
    6fcb:	7c 07                	jl     6fd4 <func_77+0x11b>
    6fcd:	b8 01 00 00 00       	mov    $0x1,%eax
    6fd2:	eb 05                	jmp    6fd9 <func_77+0x120>
    6fd4:	b8 00 00 00 00       	mov    $0x0,%eax
    6fd9:	89 c6                	mov    %eax,%esi
    6fdb:	bf 02 00 00 00       	mov    $0x2,%edi
    6fe0:	e8 1a c7 ff ff       	callq  36ff <safe_div_func_int32_t_s_s>
    6fe5:	48 8b 85 d8 fb ff ff 	mov    -0x428(%rbp),%rax
    6fec:	48 85 c0             	test   %rax,%rax
    6fef:	0f 95 c0             	setne  %al
    6ff2:	0f b6 c0             	movzbl %al,%eax
    6ff5:	89 de                	mov    %ebx,%esi
    6ff7:	89 c7                	mov    %eax,%edi
    6ff9:	e8 33 c2 ff ff       	callq  3231 <safe_mod_func_int8_t_s_s>
    6ffe:	0f be d0             	movsbl %al,%edx
    7001:	48 8b 05 28 91 00 00 	mov    0x9128(%rip),%rax        # 10130 <g_666>
    7008:	0f b7 00             	movzwl (%rax),%eax
    700b:	0f b7 c0             	movzwl %ax,%eax
    700e:	39 c2                	cmp    %eax,%edx
    7010:	0f 9f c0             	setg   %al
    7013:	0f b6 c0             	movzbl %al,%eax
    7016:	be 00 00 00 00       	mov    $0x0,%esi
    701b:	89 c7                	mov    %eax,%edi
    701d:	e8 dd cc ff ff       	callq  3cff <safe_add_func_uint16_t_u_u>
    7022:	66 85 c0             	test   %ax,%ax
    7025:	0f 84 98 02 00 00    	je     72c3 <func_77+0x40a>
    702b:	48 8d 85 08 fb ff ff 	lea    -0x4f8(%rbp),%rax
    7032:	48 89 85 70 fb ff ff 	mov    %rax,-0x490(%rbp)
    7039:	c7 85 ec fa ff ff 01 	movl   $0x1,-0x514(%rbp)
    7040:	00 00 00 
    7043:	48 8d 05 a6 90 00 00 	lea    0x90a6(%rip),%rax        # 100f0 <g_65>
    704a:	48 89 85 78 fb ff ff 	mov    %rax,-0x488(%rbp)
    7051:	c7 85 00 fb ff ff 8b 	movl   $0x27cfdc8b,-0x500(%rbp)
    7058:	dc cf 27 
    705b:	48 8d 85 10 fc ff ff 	lea    -0x3f0(%rbp),%rax
    7062:	48 8d 15 57 44 00 00 	lea    0x4457(%rip),%rdx        # b4c0 <g_1991+0x440>
    7069:	b9 69 00 00 00       	mov    $0x69,%ecx
    706e:	48 89 c7             	mov    %rax,%rdi
    7071:	48 89 d6             	mov    %rdx,%rsi
    7074:	f3 48 a5             	rep movsq %ds:(%rsi),%es:(%rdi)
    7077:	48 83 bd c0 fa ff ff 	cmpq   $0x0,-0x540(%rbp)
    707e:	00 
    707f:	0f 94 c1             	sete   %cl
    7082:	48 8b 95 08 fb ff ff 	mov    -0x4f8(%rbp),%rdx
    7089:	48 8b 85 70 fb ff ff 	mov    -0x490(%rbp),%rax
    7090:	48 89 10             	mov    %rdx,(%rax)
    7093:	48 8b 85 70 fb ff ff 	mov    -0x490(%rbp),%rax
    709a:	48 8b 00             	mov    (%rax),%rax
    709d:	48 85 c0             	test   %rax,%rax
    70a0:	0f 95 c0             	setne  %al
    70a3:	09 c8                	or     %ecx,%eax
    70a5:	0f b6 d8             	movzbl %al,%ebx
    70a8:	8b 85 ec fa ff ff    	mov    -0x514(%rbp),%eax
    70ae:	48 63 d0             	movslq %eax,%rdx
    70b1:	48 8b 85 c0 fa ff ff 	mov    -0x540(%rbp),%rax
    70b8:	48 89 d6             	mov    %rdx,%rsi
    70bb:	48 89 c7             	mov    %rax,%rdi
    70be:	e8 88 cf ff ff       	callq  404b <safe_sub_func_uint64_t_u_u>
    70c3:	48 3d b2 4d 00 00    	cmp    $0x4db2,%rax
    70c9:	0f 97 c0             	seta   %al
    70cc:	0f b6 c0             	movzbl %al,%eax
    70cf:	39 c3                	cmp    %eax,%ebx
    70d1:	0f 9e c0             	setle  %al
    70d4:	0f b6 c0             	movzbl %al,%eax
    70d7:	be 04 00 00 00       	mov    $0x4,%esi
    70dc:	89 c7                	mov    %eax,%edi
    70de:	e8 be c1 ff ff       	callq  32a1 <safe_lshift_func_int8_t_s_s>
    70e3:	0f be c0             	movsbl %al,%eax
    70e6:	be 01 00 00 00       	mov    $0x1,%esi
    70eb:	89 c7                	mov    %eax,%edi
    70ed:	e8 71 c4 ff ff       	callq  3563 <safe_rshift_func_int16_t_s_u>
    70f2:	83 bd ec fa ff ff 00 	cmpl   $0x0,-0x514(%rbp)
    70f9:	0f 84 7f 01 00 00    	je     727e <func_77+0x3c5>
    70ff:	48 8d 05 ea 8f 00 00 	lea    0x8fea(%rip),%rax        # 100f0 <g_65>
    7106:	48 89 85 80 fb ff ff 	mov    %rax,-0x480(%rbp)
    710d:	48 8d 05 2c 99 00 00 	lea    0x992c(%rip),%rax        # 10a40 <g_588>
    7114:	48 89 85 88 fb ff ff 	mov    %rax,-0x478(%rbp)
    711b:	48 c7 85 90 fb ff ff 	movq   $0x0,-0x470(%rbp)
    7122:	00 00 00 00 
    7126:	48 8d 05 21 7f 00 00 	lea    0x7f21(%rip),%rax        # f04e <g_141>
    712d:	48 89 85 98 fb ff ff 	mov    %rax,-0x468(%rbp)
    7134:	c7 85 04 fb ff ff ff 	movl   $0xffffffff,-0x4fc(%rbp)
    713b:	ff ff ff 
    713e:	48 8b 15 c3 8f 00 00 	mov    0x8fc3(%rip),%rdx        # 10108 <g_94>
    7145:	48 8b 05 bc 8f 00 00 	mov    0x8fbc(%rip),%rax        # 10108 <g_94>
    714c:	48 8b 12             	mov    (%rdx),%rdx
    714f:	48 89 10             	mov    %rdx,(%rax)
    7152:	0f b7 05 8d 82 00 00 	movzwl 0x828d(%rip),%eax        # f3e6 <g_548+0x6>
    7159:	0f be d8             	movsbl %al,%ebx
    715c:	8b 85 04 fb ff ff    	mov    -0x4fc(%rbp),%eax
    7162:	44 0f be e0          	movsbl %al,%r12d
    7166:	48 8b 85 88 fb ff ff 	mov    -0x478(%rbp),%rax
    716d:	48 8b 10             	mov    (%rax),%rdx
    7170:	48 8b 85 78 fb ff ff 	mov    -0x488(%rbp),%rax
    7177:	48 3b 85 80 fb ff ff 	cmp    -0x480(%rbp),%rax
    717e:	0f 95 c0             	setne  %al
    7181:	0f b6 c0             	movzbl %al,%eax
    7184:	48 21 c2             	and    %rax,%rdx
    7187:	48 8b 85 88 fb ff ff 	mov    -0x478(%rbp),%rax
    718e:	48 89 10             	mov    %rdx,(%rax)
    7191:	48 8b 85 88 fb ff ff 	mov    -0x478(%rbp),%rax
    7198:	48 8b 10             	mov    (%rax),%rdx
    719b:	0f b7 85 cc fa ff ff 	movzwl -0x534(%rbp),%eax
    71a2:	48 39 c2             	cmp    %rax,%rdx
    71a5:	0f 93 c0             	setae  %al
    71a8:	44 0f b6 f0          	movzbl %al,%r14d
    71ac:	48 8b 85 c0 fa ff ff 	mov    -0x540(%rbp),%rax
    71b3:	44 0f b6 e8          	movzbl %al,%r13d
    71b7:	0f b7 95 cc fa ff ff 	movzwl -0x534(%rbp),%edx
    71be:	48 8b 85 98 fb ff ff 	mov    -0x468(%rbp),%rax
    71c5:	66 89 10             	mov    %dx,(%rax)
    71c8:	48 8b 85 c0 fa ff ff 	mov    -0x540(%rbp),%rax
    71cf:	89 c2                	mov    %eax,%edx
    71d1:	48 8b 85 c0 fa ff ff 	mov    -0x540(%rbp),%rax
    71d8:	0f b7 c0             	movzwl %ax,%eax
    71db:	89 d6                	mov    %edx,%esi
    71dd:	89 c7                	mov    %eax,%edi
    71df:	e8 22 cc ff ff       	callq  3e06 <safe_lshift_func_uint16_t_u_u>
    71e4:	0f b6 95 dc fa ff ff 	movzbl -0x524(%rbp),%edx
    71eb:	66 39 d0             	cmp    %dx,%ax
    71ee:	66 83 bd cc fa ff ff 	cmpw   $0x0,-0x534(%rbp)
    71f5:	00 
    71f6:	0f 94 c0             	sete   %al
    71f9:	0f b6 c0             	movzbl %al,%eax
    71fc:	44 89 ee             	mov    %r13d,%esi
    71ff:	89 c7                	mov    %eax,%edi
    7201:	e8 8d c9 ff ff       	callq  3b93 <safe_mul_func_uint8_t_u_u>
    7206:	0f b6 c0             	movzbl %al,%eax
    7209:	be 0b 00 00 00       	mov    $0xb,%esi
    720e:	89 c7                	mov    %eax,%edi
    7210:	e8 f1 cb ff ff       	callq  3e06 <safe_lshift_func_uint16_t_u_u>
    7215:	0f b7 c0             	movzwl %ax,%eax
    7218:	89 85 ec fa ff ff    	mov    %eax,-0x514(%rbp)
    721e:	44 39 b5 ec fa ff ff 	cmp    %r14d,-0x514(%rbp)
    7225:	0f 9c c0             	setl   %al
    7228:	0f b6 c0             	movzbl %al,%eax
    722b:	44 89 e6             	mov    %r12d,%esi
    722e:	89 c7                	mov    %eax,%edi
    7230:	e8 dd bf ff ff       	callq  3212 <safe_mul_func_int8_t_s_s>
    7235:	84 c0                	test   %al,%al
    7237:	75 09                	jne    7242 <func_77+0x389>
    7239:	83 bd ec fa ff ff 00 	cmpl   $0x0,-0x514(%rbp)
    7240:	74 07                	je     7249 <func_77+0x390>
    7242:	b8 01 00 00 00       	mov    $0x1,%eax
    7247:	eb 05                	jmp    724e <func_77+0x395>
    7249:	b8 00 00 00 00       	mov    $0x0,%eax
    724e:	0f be c0             	movsbl %al,%eax
    7251:	89 de                	mov    %ebx,%esi
    7253:	89 c7                	mov    %eax,%edi
    7255:	e8 b8 bf ff ff       	callq  3212 <safe_mul_func_int8_t_s_s>
    725a:	0f b7 85 cc fa ff ff 	movzwl -0x534(%rbp),%eax
    7261:	39 85 04 fb ff ff    	cmp    %eax,-0x4fc(%rbp)
    7267:	0f 9e c2             	setle  %dl
    726a:	48 8b 05 9f 8e 00 00 	mov    0x8e9f(%rip),%rax        # 10110 <g_93>
    7271:	48 8b 00             	mov    (%rax),%rax
    7274:	48 8b 00             	mov    (%rax),%rax
    7277:	0f b6 d2             	movzbl %dl,%edx
    727a:	89 10                	mov    %edx,(%rax)
    727c:	eb 2b                	jmp    72a9 <func_77+0x3f0>
    727e:	c6 85 dd fa ff ff 01 	movb   $0x1,-0x523(%rbp)
    7285:	48 8b 85 c0 fa ff ff 	mov    -0x540(%rbp),%rax
    728c:	89 c2                	mov    %eax,%edx
    728e:	48 8b 05 73 8e 00 00 	mov    0x8e73(%rip),%rax        # 10108 <g_94>
    7295:	48 8b 00             	mov    (%rax),%rax
    7298:	8b 00                	mov    (%rax),%eax
    729a:	89 d6                	mov    %edx,%esi
    729c:	89 c7                	mov    %eax,%edi
    729e:	e8 62 c3 ff ff       	callq  3605 <safe_sub_func_int32_t_s_s>
    72a3:	88 85 dd fa ff ff    	mov    %al,-0x523(%rbp)
    72a9:	83 85 e4 fa ff ff 01 	addl   $0x1,-0x51c(%rbp)
    72b0:	8b 05 72 7d 00 00    	mov    0x7d72(%rip),%eax        # f028 <g_5>
    72b6:	85 c0                	test   %eax,%eax
    72b8:	0f 84 15 07 00 00    	je     79d3 <func_77+0xb1a>
    72be:	e9 b4 fd ff ff       	jmpq   7077 <func_77+0x1be>
    72c3:	48 8d 85 e0 fa ff ff 	lea    -0x520(%rbp),%rax
    72ca:	48 89 85 10 fc ff ff 	mov    %rax,-0x3f0(%rbp)
    72d1:	48 c7 85 18 fc ff ff 	movq   $0x0,-0x3e8(%rbp)
    72d8:	00 00 00 00 
    72dc:	48 8d 05 45 7d 00 00 	lea    0x7d45(%rip),%rax        # f028 <g_5>
    72e3:	48 89 85 20 fc ff ff 	mov    %rax,-0x3e0(%rbp)
    72ea:	48 c7 85 28 fc ff ff 	movq   $0x0,-0x3d8(%rbp)
    72f1:	00 00 00 00 
    72f5:	48 8d 05 94 80 00 00 	lea    0x8094(%rip),%rax        # f390 <g_205+0x10>
    72fc:	48 89 85 30 fc ff ff 	mov    %rax,-0x3d0(%rbp)
    7303:	48 8d 85 e0 fa ff ff 	lea    -0x520(%rbp),%rax
    730a:	48 89 85 38 fc ff ff 	mov    %rax,-0x3c8(%rbp)
    7311:	48 8d 05 10 7d 00 00 	lea    0x7d10(%rip),%rax        # f028 <g_5>
    7318:	48 89 85 40 fc ff ff 	mov    %rax,-0x3c0(%rbp)
    731f:	48 8d 85 e0 fa ff ff 	lea    -0x520(%rbp),%rax
    7326:	48 89 85 48 fc ff ff 	mov    %rax,-0x3b8(%rbp)
    732d:	48 8d 05 f4 7c 00 00 	lea    0x7cf4(%rip),%rax        # f028 <g_5>
    7334:	48 89 85 50 fc ff ff 	mov    %rax,-0x3b0(%rbp)
    733b:	48 c7 85 58 fc ff ff 	movq   $0x0,-0x3a8(%rbp)
    7342:	00 00 00 00 
    7346:	48 8d 05 6f 80 00 00 	lea    0x806f(%rip),%rax        # f3bc <g_356>
    734d:	48 89 85 60 fc ff ff 	mov    %rax,-0x3a0(%rbp)
    7354:	48 8d 05 cd 7c 00 00 	lea    0x7ccd(%rip),%rax        # f028 <g_5>
    735b:	48 89 85 68 fc ff ff 	mov    %rax,-0x398(%rbp)
    7362:	48 8d 05 1f 80 00 00 	lea    0x801f(%rip),%rax        # f388 <g_205+0x8>
    7369:	48 89 85 70 fc ff ff 	mov    %rax,-0x390(%rbp)
    7370:	48 c7 85 78 fc ff ff 	movq   $0x0,-0x388(%rbp)
    7377:	00 00 00 00 
    737b:	48 8d 85 e0 fa ff ff 	lea    -0x520(%rbp),%rax
    7382:	48 89 85 80 fc ff ff 	mov    %rax,-0x380(%rbp)
    7389:	48 8d 05 00 80 00 00 	lea    0x8000(%rip),%rax        # f390 <g_205+0x10>
    7390:	48 89 85 88 fc ff ff 	mov    %rax,-0x378(%rbp)
    7397:	48 8d 05 6e 80 00 00 	lea    0x806e(%rip),%rax        # f40c <g_952>
    739e:	48 89 85 90 fc ff ff 	mov    %rax,-0x370(%rbp)
    73a5:	48 8d 05 f0 7f 00 00 	lea    0x7ff0(%rip),%rax        # f39c <g_205+0x1c>
    73ac:	48 89 85 98 fc ff ff 	mov    %rax,-0x368(%rbp)
    73b3:	48 8d 05 d6 7f 00 00 	lea    0x7fd6(%rip),%rax        # f390 <g_205+0x10>
    73ba:	48 89 85 a0 fc ff ff 	mov    %rax,-0x360(%rbp)
    73c1:	48 8d 05 44 80 00 00 	lea    0x8044(%rip),%rax        # f40c <g_952>
    73c8:	48 89 85 a8 fc ff ff 	mov    %rax,-0x358(%rbp)
    73cf:	48 8d 05 c6 7f 00 00 	lea    0x7fc6(%rip),%rax        # f39c <g_205+0x1c>
    73d6:	48 89 85 b0 fc ff ff 	mov    %rax,-0x350(%rbp)
    73dd:	48 8d 05 44 7c 00 00 	lea    0x7c44(%rip),%rax        # f028 <g_5>
    73e4:	48 89 85 b8 fc ff ff 	mov    %rax,-0x348(%rbp)
    73eb:	48 8d 05 1a 80 00 00 	lea    0x801a(%rip),%rax        # f40c <g_952>
    73f2:	48 89 85 c0 fc ff ff 	mov    %rax,-0x340(%rbp)
    73f9:	48 c7 85 c8 fc ff ff 	movq   $0x0,-0x338(%rbp)
    7400:	00 00 00 00 
    7404:	48 8d 05 95 7f 00 00 	lea    0x7f95(%rip),%rax        # f3a0 <g_205+0x20>
    740b:	48 89 85 d0 fc ff ff 	mov    %rax,-0x330(%rbp)
    7412:	48 8d 05 87 7f 00 00 	lea    0x7f87(%rip),%rax        # f3a0 <g_205+0x20>
    7419:	48 89 85 d8 fc ff ff 	mov    %rax,-0x328(%rbp)
    7420:	48 8d 85 e0 fa ff ff 	lea    -0x520(%rbp),%rax
    7427:	48 89 85 e0 fc ff ff 	mov    %rax,-0x320(%rbp)
    742e:	48 8d 05 f3 7b 00 00 	lea    0x7bf3(%rip),%rax        # f028 <g_5>
    7435:	48 89 85 e8 fc ff ff 	mov    %rax,-0x318(%rbp)
    743c:	48 c7 85 f0 fc ff ff 	movq   $0x0,-0x310(%rbp)
    7443:	00 00 00 00 
    7447:	48 8d 05 da 7b 00 00 	lea    0x7bda(%rip),%rax        # f028 <g_5>
    744e:	48 89 85 f8 fc ff ff 	mov    %rax,-0x308(%rbp)
    7455:	48 c7 85 00 fd ff ff 	movq   $0x0,-0x300(%rbp)
    745c:	00 00 00 00 
    7460:	48 8d 05 31 7f 00 00 	lea    0x7f31(%rip),%rax        # f398 <g_205+0x18>
    7467:	48 89 85 08 fd ff ff 	mov    %rax,-0x2f8(%rbp)
    746e:	48 8d 05 0b 7f 00 00 	lea    0x7f0b(%rip),%rax        # f380 <g_205>
    7475:	48 89 85 10 fd ff ff 	mov    %rax,-0x2f0(%rbp)
    747c:	48 8d 05 89 7f 00 00 	lea    0x7f89(%rip),%rax        # f40c <g_952>
    7483:	48 89 85 18 fd ff ff 	mov    %rax,-0x2e8(%rbp)
    748a:	48 8d 05 97 7b 00 00 	lea    0x7b97(%rip),%rax        # f028 <g_5>
    7491:	48 89 85 20 fd ff ff 	mov    %rax,-0x2e0(%rbp)
    7498:	48 c7 85 28 fd ff ff 	movq   $0x0,-0x2d8(%rbp)
    749f:	00 00 00 00 
    74a3:	48 8d 05 d6 7e 00 00 	lea    0x7ed6(%rip),%rax        # f380 <g_205>
    74aa:	48 89 85 30 fd ff ff 	mov    %rax,-0x2d0(%rbp)
    74b1:	48 8d 05 70 7b 00 00 	lea    0x7b70(%rip),%rax        # f028 <g_5>
    74b8:	48 89 85 38 fd ff ff 	mov    %rax,-0x2c8(%rbp)
    74bf:	48 c7 85 40 fd ff ff 	movq   $0x0,-0x2c0(%rbp)
    74c6:	00 00 00 00 
    74ca:	48 8d 05 bf 7e 00 00 	lea    0x7ebf(%rip),%rax        # f390 <g_205+0x10>
    74d1:	48 89 85 48 fd ff ff 	mov    %rax,-0x2b8(%rbp)
    74d8:	48 c7 85 50 fd ff ff 	movq   $0x0,-0x2b0(%rbp)
    74df:	00 00 00 00 
    74e3:	48 8d 05 3e 7b 00 00 	lea    0x7b3e(%rip),%rax        # f028 <g_5>
    74ea:	48 89 85 58 fd ff ff 	mov    %rax,-0x2a8(%rbp)
    74f1:	48 8d 05 30 7b 00 00 	lea    0x7b30(%rip),%rax        # f028 <g_5>
    74f8:	48 89 85 60 fd ff ff 	mov    %rax,-0x2a0(%rbp)
    74ff:	48 8d 05 06 7f 00 00 	lea    0x7f06(%rip),%rax        # f40c <g_952>
    7506:	48 89 85 68 fd ff ff 	mov    %rax,-0x298(%rbp)
    750d:	48 c7 85 70 fd ff ff 	movq   $0x0,-0x290(%rbp)
    7514:	00 00 00 00 
    7518:	48 8d 05 e5 7e 00 00 	lea    0x7ee5(%rip),%rax        # f404 <g_835>
    751f:	48 89 85 78 fd ff ff 	mov    %rax,-0x288(%rbp)
    7526:	48 c7 85 80 fd ff ff 	movq   $0x0,-0x280(%rbp)
    752d:	00 00 00 00 
    7531:	48 8d 05 d4 7e 00 00 	lea    0x7ed4(%rip),%rax        # f40c <g_952>
    7538:	48 89 85 88 fd ff ff 	mov    %rax,-0x278(%rbp)
    753f:	48 c7 85 90 fd ff ff 	movq   $0x0,-0x270(%rbp)
    7546:	00 00 00 00 
    754a:	48 8d 85 e0 fa ff ff 	lea    -0x520(%rbp),%rax
    7551:	48 89 85 98 fd ff ff 	mov    %rax,-0x268(%rbp)
    7558:	48 8d 05 c9 7a 00 00 	lea    0x7ac9(%rip),%rax        # f028 <g_5>
    755f:	48 89 85 a0 fd ff ff 	mov    %rax,-0x260(%rbp)
    7566:	48 c7 85 a8 fd ff ff 	movq   $0x0,-0x258(%rbp)
    756d:	00 00 00 00 
    7571:	48 8d 05 10 7e 00 00 	lea    0x7e10(%rip),%rax        # f388 <g_205+0x8>
    7578:	48 89 85 b0 fd ff ff 	mov    %rax,-0x250(%rbp)
    757f:	48 8d 05 1a 7e 00 00 	lea    0x7e1a(%rip),%rax        # f3a0 <g_205+0x20>
    7586:	48 89 85 b8 fd ff ff 	mov    %rax,-0x248(%rbp)
    758d:	48 8d 05 70 7e 00 00 	lea    0x7e70(%rip),%rax        # f404 <g_835>
    7594:	48 89 85 c0 fd ff ff 	mov    %rax,-0x240(%rbp)
    759b:	48 8d 85 e0 fa ff ff 	lea    -0x520(%rbp),%rax
    75a2:	48 89 85 c8 fd ff ff 	mov    %rax,-0x238(%rbp)
    75a9:	48 8d 05 d0 7d 00 00 	lea    0x7dd0(%rip),%rax        # f380 <g_205>
    75b0:	48 89 85 d0 fd ff ff 	mov    %rax,-0x230(%rbp)
    75b7:	48 c7 85 d8 fd ff ff 	movq   $0x0,-0x228(%rbp)
    75be:	00 00 00 00 
    75c2:	48 c7 85 e0 fd ff ff 	movq   $0x0,-0x220(%rbp)
    75c9:	00 00 00 00 
    75cd:	48 8d 05 e8 7d 00 00 	lea    0x7de8(%rip),%rax        # f3bc <g_356>
    75d4:	48 89 85 e8 fd ff ff 	mov    %rax,-0x218(%rbp)
    75db:	48 8d 05 ae 7d 00 00 	lea    0x7dae(%rip),%rax        # f390 <g_205+0x10>
    75e2:	48 89 85 f0 fd ff ff 	mov    %rax,-0x210(%rbp)
    75e9:	48 8d 05 1c 7e 00 00 	lea    0x7e1c(%rip),%rax        # f40c <g_952>
    75f0:	48 89 85 f8 fd ff ff 	mov    %rax,-0x208(%rbp)
    75f7:	48 8d 05 92 7d 00 00 	lea    0x7d92(%rip),%rax        # f390 <g_205+0x10>
    75fe:	48 89 85 00 fe ff ff 	mov    %rax,-0x200(%rbp)
    7605:	48 8d 05 7c 7d 00 00 	lea    0x7d7c(%rip),%rax        # f388 <g_205+0x8>
    760c:	48 89 85 08 fe ff ff 	mov    %rax,-0x1f8(%rbp)
    7613:	48 c7 85 10 fe ff ff 	movq   $0x0,-0x1f0(%rbp)
    761a:	00 00 00 00 
    761e:	48 8d 05 03 7a 00 00 	lea    0x7a03(%rip),%rax        # f028 <g_5>
    7625:	48 89 85 18 fe ff ff 	mov    %rax,-0x1e8(%rbp)
    762c:	48 8d 05 d9 7d 00 00 	lea    0x7dd9(%rip),%rax        # f40c <g_952>
    7633:	48 89 85 20 fe ff ff 	mov    %rax,-0x1e0(%rbp)
    763a:	48 8d 05 e7 79 00 00 	lea    0x79e7(%rip),%rax        # f028 <g_5>
    7641:	48 89 85 28 fe ff ff 	mov    %rax,-0x1d8(%rbp)
    7648:	48 8d 05 35 7d 00 00 	lea    0x7d35(%rip),%rax        # f384 <g_205+0x4>
    764f:	48 89 85 30 fe ff ff 	mov    %rax,-0x1d0(%rbp)
    7656:	48 8d 05 af 7d 00 00 	lea    0x7daf(%rip),%rax        # f40c <g_952>
    765d:	48 89 85 38 fe ff ff 	mov    %rax,-0x1c8(%rbp)
    7664:	48 8d 05 bd 79 00 00 	lea    0x79bd(%rip),%rax        # f028 <g_5>
    766b:	48 89 85 40 fe ff ff 	mov    %rax,-0x1c0(%rbp)
    7672:	48 c7 85 48 fe ff ff 	movq   $0x0,-0x1b8(%rbp)
    7679:	00 00 00 00 
    767d:	48 8d 05 80 7d 00 00 	lea    0x7d80(%rip),%rax        # f404 <g_835>
    7684:	48 89 85 50 fe ff ff 	mov    %rax,-0x1b0(%rbp)
    768b:	48 8d 05 06 7d 00 00 	lea    0x7d06(%rip),%rax        # f398 <g_205+0x18>
    7692:	48 89 85 58 fe ff ff 	mov    %rax,-0x1a8(%rbp)
    7699:	48 8d 05 88 79 00 00 	lea    0x7988(%rip),%rax        # f028 <g_5>
    76a0:	48 89 85 60 fe ff ff 	mov    %rax,-0x1a0(%rbp)
    76a7:	48 8d 05 ee 7c 00 00 	lea    0x7cee(%rip),%rax        # f39c <g_205+0x1c>
    76ae:	48 89 85 68 fe ff ff 	mov    %rax,-0x198(%rbp)
    76b5:	48 c7 85 70 fe ff ff 	movq   $0x0,-0x190(%rbp)
    76bc:	00 00 00 00 
    76c0:	48 8d 05 d9 7c 00 00 	lea    0x7cd9(%rip),%rax        # f3a0 <g_205+0x20>
    76c7:	48 89 85 78 fe ff ff 	mov    %rax,-0x188(%rbp)
    76ce:	48 8d 05 af 7c 00 00 	lea    0x7caf(%rip),%rax        # f384 <g_205+0x4>
    76d5:	48 89 85 80 fe ff ff 	mov    %rax,-0x180(%rbp)
    76dc:	48 8d 05 bd 7c 00 00 	lea    0x7cbd(%rip),%rax        # f3a0 <g_205+0x20>
    76e3:	48 89 85 88 fe ff ff 	mov    %rax,-0x178(%rbp)
    76ea:	48 8d 05 1b 7d 00 00 	lea    0x7d1b(%rip),%rax        # f40c <g_952>
    76f1:	48 89 85 90 fe ff ff 	mov    %rax,-0x170(%rbp)
    76f8:	48 8d 05 91 7c 00 00 	lea    0x7c91(%rip),%rax        # f390 <g_205+0x10>
    76ff:	48 89 85 98 fe ff ff 	mov    %rax,-0x168(%rbp)
    7706:	48 8d 05 ff 7c 00 00 	lea    0x7cff(%rip),%rax        # f40c <g_952>
    770d:	48 89 85 a0 fe ff ff 	mov    %rax,-0x160(%rbp)
    7714:	48 c7 85 a8 fe ff ff 	movq   $0x0,-0x158(%rbp)
    771b:	00 00 00 00 
    771f:	48 c7 85 b0 fe ff ff 	movq   $0x0,-0x150(%rbp)
    7726:	00 00 00 00 
    772a:	48 8d 05 db 7c 00 00 	lea    0x7cdb(%rip),%rax        # f40c <g_952>
    7731:	48 89 85 b8 fe ff ff 	mov    %rax,-0x148(%rbp)
    7738:	48 8d 85 e0 fa ff ff 	lea    -0x520(%rbp),%rax
    773f:	48 89 85 c0 fe ff ff 	mov    %rax,-0x140(%rbp)
    7746:	48 8d 85 e0 fa ff ff 	lea    -0x520(%rbp),%rax
    774d:	48 89 85 c8 fe ff ff 	mov    %rax,-0x138(%rbp)
    7754:	48 8d 05 b1 7c 00 00 	lea    0x7cb1(%rip),%rax        # f40c <g_952>
    775b:	48 89 85 d0 fe ff ff 	mov    %rax,-0x130(%rbp)
    7762:	48 c7 85 d8 fe ff ff 	movq   $0x0,-0x128(%rbp)
    7769:	00 00 00 00 
    776d:	48 8d 05 28 7c 00 00 	lea    0x7c28(%rip),%rax        # f39c <g_205+0x1c>
    7774:	48 89 85 e0 fe ff ff 	mov    %rax,-0x120(%rbp)
    777b:	48 c7 85 e8 fe ff ff 	movq   $0x0,-0x118(%rbp)
    7782:	00 00 00 00 
    7786:	48 8d 05 2f 7c 00 00 	lea    0x7c2f(%rip),%rax        # f3bc <g_356>
    778d:	48 89 85 f0 fe ff ff 	mov    %rax,-0x110(%rbp)
    7794:	48 8d 05 8d 78 00 00 	lea    0x788d(%rip),%rax        # f028 <g_5>
    779b:	48 89 85 f8 fe ff ff 	mov    %rax,-0x108(%rbp)
    77a2:	48 8d 05 13 7c 00 00 	lea    0x7c13(%rip),%rax        # f3bc <g_356>
    77a9:	48 89 85 00 ff ff ff 	mov    %rax,-0x100(%rbp)
    77b0:	48 c7 85 08 ff ff ff 	movq   $0x0,-0xf8(%rbp)
    77b7:	00 00 00 00 
    77bb:	48 8d 05 4a 7c 00 00 	lea    0x7c4a(%rip),%rax        # f40c <g_952>
    77c2:	48 89 85 10 ff ff ff 	mov    %rax,-0xf0(%rbp)
    77c9:	48 8d 85 e0 fa ff ff 	lea    -0x520(%rbp),%rax
    77d0:	48 89 85 18 ff ff ff 	mov    %rax,-0xe8(%rbp)
    77d7:	48 8d 05 c2 7b 00 00 	lea    0x7bc2(%rip),%rax        # f3a0 <g_205+0x20>
    77de:	48 89 85 20 ff ff ff 	mov    %rax,-0xe0(%rbp)
    77e5:	48 8d 05 ac 7b 00 00 	lea    0x7bac(%rip),%rax        # f398 <g_205+0x18>
    77ec:	48 89 85 28 ff ff ff 	mov    %rax,-0xd8(%rbp)
    77f3:	48 8d 05 96 7b 00 00 	lea    0x7b96(%rip),%rax        # f390 <g_205+0x10>
    77fa:	48 89 85 30 ff ff ff 	mov    %rax,-0xd0(%rbp)
    7801:	48 8d 05 20 78 00 00 	lea    0x7820(%rip),%rax        # f028 <g_5>
    7808:	48 89 85 38 ff ff ff 	mov    %rax,-0xc8(%rbp)
    780f:	48 8d 05 f6 7b 00 00 	lea    0x7bf6(%rip),%rax        # f40c <g_952>
    7816:	48 89 85 40 ff ff ff 	mov    %rax,-0xc0(%rbp)
    781d:	48 c7 85 48 ff ff ff 	movq   $0x0,-0xb8(%rbp)
    7824:	00 00 00 00 
    7828:	48 8d 05 69 7b 00 00 	lea    0x7b69(%rip),%rax        # f398 <g_205+0x18>
    782f:	48 89 85 50 ff ff ff 	mov    %rax,-0xb0(%rbp)
    7836:	48 8d 05 eb 77 00 00 	lea    0x77eb(%rip),%rax        # f028 <g_5>
    783d:	48 89 85 58 ff ff ff 	mov    %rax,-0xa8(%rbp)
    7844:	48 8d 05 b9 7b 00 00 	lea    0x7bb9(%rip),%rax        # f404 <g_835>
    784b:	48 89 85 60 ff ff ff 	mov    %rax,-0xa0(%rbp)
    7852:	48 8d 05 cf 77 00 00 	lea    0x77cf(%rip),%rax        # f028 <g_5>
    7859:	48 89 85 68 ff ff ff 	mov    %rax,-0x98(%rbp)
    7860:	48 8d 05 35 7b 00 00 	lea    0x7b35(%rip),%rax        # f39c <g_205+0x1c>
    7867:	48 89 85 70 ff ff ff 	mov    %rax,-0x90(%rbp)
    786e:	48 8d 05 47 7b 00 00 	lea    0x7b47(%rip),%rax        # f3bc <g_356>
    7875:	48 89 85 78 ff ff ff 	mov    %rax,-0x88(%rbp)
    787c:	48 8d 05 81 7b 00 00 	lea    0x7b81(%rip),%rax        # f404 <g_835>
    7883:	48 89 45 80          	mov    %rax,-0x80(%rbp)
    7887:	48 8d 85 e0 fa ff ff 	lea    -0x520(%rbp),%rax
    788e:	48 89 45 88          	mov    %rax,-0x78(%rbp)
    7892:	48 8d 85 e0 fa ff ff 	lea    -0x520(%rbp),%rax
    7899:	48 89 45 90          	mov    %rax,-0x70(%rbp)
    789d:	48 8d 05 f4 7a 00 00 	lea    0x7af4(%rip),%rax        # f398 <g_205+0x18>
    78a4:	48 89 45 98          	mov    %rax,-0x68(%rbp)
    78a8:	48 c7 45 a0 00 00 00 	movq   $0x0,-0x60(%rbp)
    78af:	00 
    78b0:	48 8d 05 d9 7a 00 00 	lea    0x7ad9(%rip),%rax        # f390 <g_205+0x10>
    78b7:	48 89 45 a8          	mov    %rax,-0x58(%rbp)
    78bb:	48 8d 05 42 7b 00 00 	lea    0x7b42(%rip),%rax        # f404 <g_835>
    78c2:	48 89 45 b0          	mov    %rax,-0x50(%rbp)
    78c6:	48 8d 05 c3 7a 00 00 	lea    0x7ac3(%rip),%rax        # f390 <g_205+0x10>
    78cd:	48 89 45 b8          	mov    %rax,-0x48(%rbp)
    78d1:	48 8d 05 c4 7a 00 00 	lea    0x7ac4(%rip),%rax        # f39c <g_205+0x1c>
    78d8:	48 89 45 c0          	mov    %rax,-0x40(%rbp)
    78dc:	48 8d 05 29 7b 00 00 	lea    0x7b29(%rip),%rax        # f40c <g_952>
    78e3:	48 89 45 c8          	mov    %rax,-0x38(%rbp)
    78e7:	48 c7 85 28 fb ff ff 	movq   $0x0,-0x4d8(%rbp)
    78ee:	00 00 00 00 
    78f2:	48 8d 05 50 77 00 00 	lea    0x7750(%rip),%rax        # f049 <g_114>
    78f9:	48 89 85 30 fb ff ff 	mov    %rax,-0x4d0(%rbp)
    7900:	48 8d 05 61 91 00 00 	lea    0x9161(%rip),%rax        # 10a68 <g_1029>
    7907:	48 89 85 38 fb ff ff 	mov    %rax,-0x4c8(%rbp)
    790e:	c7 85 fc fa ff ff 67 	movl   $0x45ad4267,-0x504(%rbp)
    7915:	42 ad 45 
    7918:	48 c7 85 40 fb ff ff 	movq   $0xfffffffffffffffa,-0x4c0(%rbp)
    791f:	fa ff ff ff 
    7923:	48 8d 05 de 87 00 00 	lea    0x87de(%rip),%rax        # 10108 <g_94>
    792a:	48 89 85 48 fb ff ff 	mov    %rax,-0x4b8(%rbp)
    7931:	48 8d 85 e0 fa ff ff 	lea    -0x520(%rbp),%rax
    7938:	48 89 85 50 fb ff ff 	mov    %rax,-0x4b0(%rbp)
    793f:	48 c7 85 58 fb ff ff 	movq   $0x1,-0x4a8(%rbp)
    7946:	01 00 00 00 
    794a:	66 c7 85 de fa ff ff 	movw   $0xffff,-0x522(%rbp)
    7951:	ff ff 
    7953:	48 8d 85 a0 fb ff ff 	lea    -0x460(%rbp),%rax
    795a:	48 83 c0 08          	add    $0x8,%rax
    795e:	48 89 85 10 fb ff ff 	mov    %rax,-0x4f0(%rbp)
    7965:	48 8d 85 10 fb ff ff 	lea    -0x4f0(%rbp),%rax
    796c:	48 89 85 60 fb ff ff 	mov    %rax,-0x4a0(%rbp)
    7973:	48 8d 85 10 fb ff ff 	lea    -0x4f0(%rbp),%rax
    797a:	48 89 85 68 fb ff ff 	mov    %rax,-0x498(%rbp)
    7981:	c7 85 f0 fa ff ff 00 	movl   $0x0,-0x510(%rbp)
    7988:	00 00 00 
    798b:	eb 1b                	jmp    79a8 <func_77+0xaef>
    798d:	8b 85 f0 fa ff ff    	mov    -0x510(%rbp),%eax
    7993:	48 98                	cltq   
    7995:	48 c7 84 c5 a0 fb ff 	movq   $0x0,-0x460(%rbp,%rax,8)
    799c:	ff 00 00 00 00 
    79a1:	83 85 f0 fa ff ff 01 	addl   $0x1,-0x510(%rbp)
    79a8:	83 bd f0 fa ff ff 04 	cmpl   $0x4,-0x510(%rbp)
    79af:	7e dc                	jle    798d <func_77+0xad4>
    79b1:	48 8b 05 58 87 00 00 	mov    0x8758(%rip),%rax        # 10110 <g_93>
    79b8:	48 8b 00             	mov    (%rax),%rax
    79bb:	48 8b 55 c0          	mov    -0x40(%rbp),%rdx
    79bf:	48 89 10             	mov    %rdx,(%rax)
    79c2:	48 8b 05 1f 8b 00 00 	mov    0x8b1f(%rip),%rax        # 104e8 <g_1265>
    79c9:	48 8b 15 10 8b 00 00 	mov    0x8b10(%rip),%rdx        # 104e0 <g_1264>
    79d0:	48 89 10             	mov    %rdx,(%rax)
    79d3:	48 8b 85 20 fb ff ff 	mov    -0x4e0(%rbp),%rax
    79da:	48 8b 4d d8          	mov    -0x28(%rbp),%rcx
    79de:	64 48 33 0c 25 28 00 	xor    %fs:0x28,%rcx
    79e5:	00 00 
    79e7:	74 05                	je     79ee <func_77+0xb35>
    79e9:	e8 82 b6 ff ff       	callq  3070 <__stack_chk_fail@plt>
    79ee:	48 81 c4 30 05 00 00 	add    $0x530,%rsp
    79f5:	5b                   	pop    %rbx
    79f6:	41 5c                	pop    %r12
    79f8:	41 5d                	pop    %r13
    79fa:	41 5e                	pop    %r14
    79fc:	5d                   	pop    %rbp
    79fd:	c3                   	retq   

00000000000079fe <func_81>:
    79fe:	f3 0f 1e fa          	endbr64 
    7a02:	55                   	push   %rbp
    7a03:	48 89 e5             	mov    %rsp,%rbp
    7a06:	41 55                	push   %r13
    7a08:	41 54                	push   %r12
    7a0a:	53                   	push   %rbx
    7a0b:	48 81 ec 28 07 00 00 	sub    $0x728,%rsp
    7a12:	48 89 bd e8 f8 ff ff 	mov    %rdi,-0x718(%rbp)
    7a19:	48 89 b5 e0 f8 ff ff 	mov    %rsi,-0x720(%rbp)
    7a20:	48 89 95 d8 f8 ff ff 	mov    %rdx,-0x728(%rbp)
    7a27:	48 89 8d d0 f8 ff ff 	mov    %rcx,-0x730(%rbp)
    7a2e:	44 89 85 cc f8 ff ff 	mov    %r8d,-0x734(%rbp)
    7a35:	64 48 8b 04 25 28 00 	mov    %fs:0x28,%rax
    7a3c:	00 00 
    7a3e:	48 89 45 d8          	mov    %rax,-0x28(%rbp)
    7a42:	31 c0                	xor    %eax,%eax
    7a44:	48 b8 dc 1c be 7b 04 	movabs $0x52523c047bbe1cdc,%rax
    7a4b:	3c 52 52 
    7a4e:	48 89 85 b8 f9 ff ff 	mov    %rax,-0x648(%rbp)
    7a55:	c7 85 fc f8 ff ff 46 	movl   $0xd509ec46,-0x704(%rbp)
    7a5c:	ec 09 d5 
    7a5f:	c7 85 00 f9 ff ff 07 	movl   $0x7,-0x700(%rbp)
    7a66:	00 00 00 
    7a69:	c7 85 04 f9 ff ff 63 	movl   $0xba1c0563,-0x6fc(%rbp)
    7a70:	05 1c ba 
    7a73:	c7 85 08 f9 ff ff 03 	movl   $0x3,-0x6f8(%rbp)
    7a7a:	00 00 00 
    7a7d:	c7 85 0c f9 ff ff 31 	movl   $0xb2ae8d31,-0x6f4(%rbp)
    7a84:	8d ae b2 
    7a87:	c7 85 34 f9 ff ff fd 	movl   $0xfffffffd,-0x6cc(%rbp)
    7a8e:	ff ff ff 
    7a91:	c7 85 1c f9 ff ff ff 	movl   $0xffffffff,-0x6e4(%rbp)
    7a98:	ff ff ff 
    7a9b:	66 c7 85 f6 f8 ff ff 	movw   $0x6afe,-0x70a(%rbp)
    7aa2:	fe 6a 
    7aa4:	c7 85 10 f9 ff ff 7a 	movl   $0xb656137a,-0x6f0(%rbp)
    7aab:	13 56 b6 
    7aae:	c7 85 14 f9 ff ff 00 	movl   $0x0,-0x6ec(%rbp)
    7ab5:	00 00 00 
    7ab8:	48 8d 05 d1 78 00 00 	lea    0x78d1(%rip),%rax        # f390 <g_205+0x10>
    7abf:	48 89 85 c0 f9 ff ff 	mov    %rax,-0x640(%rbp)
    7ac6:	48 8d 85 14 f9 ff ff 	lea    -0x6ec(%rbp),%rax
    7acd:	48 89 85 c8 f9 ff ff 	mov    %rax,-0x638(%rbp)
    7ad4:	48 c7 85 d0 f9 ff ff 	movq   $0x0,-0x630(%rbp)
    7adb:	00 00 00 00 
    7adf:	48 8d 05 d6 78 00 00 	lea    0x78d6(%rip),%rax        # f3bc <g_356>
    7ae6:	48 89 85 90 f9 ff ff 	mov    %rax,-0x670(%rbp)
    7aed:	c7 85 38 f9 ff ff e5 	movl   $0x90a10de5,-0x6c8(%rbp)
    7af4:	0d a1 90 
    7af7:	48 8d 05 32 8f 00 00 	lea    0x8f32(%rip),%rax        # 10a30 <g_266>
    7afe:	48 89 85 98 f9 ff ff 	mov    %rax,-0x668(%rbp)
    7b05:	48 8d 85 98 f9 ff ff 	lea    -0x668(%rbp),%rax
    7b0c:	48 89 85 d8 f9 ff ff 	mov    %rax,-0x628(%rbp)
    7b13:	48 8d 05 16 86 00 00 	lea    0x8616(%rip),%rax        # 10130 <g_666>
    7b1a:	48 89 85 e0 f9 ff ff 	mov    %rax,-0x620(%rbp)
    7b21:	48 c7 85 e8 f9 ff ff 	movq   $0x0,-0x618(%rbp)
    7b28:	00 00 00 00 
    7b2c:	48 8d 05 cd 78 00 00 	lea    0x78cd(%rip),%rax        # f400 <g_806>
    7b33:	48 89 85 f0 f9 ff ff 	mov    %rax,-0x610(%rbp)
    7b3a:	48 8d 05 cf 85 00 00 	lea    0x85cf(%rip),%rax        # 10110 <g_93>
    7b41:	48 89 85 f8 f9 ff ff 	mov    %rax,-0x608(%rbp)
    7b48:	c7 85 3c f9 ff ff a7 	movl   $0x6a8dc6a7,-0x6c4(%rbp)
    7b4f:	c6 8d 6a 
    7b52:	48 8d 05 4f 78 00 00 	lea    0x784f(%rip),%rax        # f3a8 <g_207>
    7b59:	48 89 85 a0 f9 ff ff 	mov    %rax,-0x660(%rbp)
    7b60:	48 8d 85 a0 f9 ff ff 	lea    -0x660(%rbp),%rax
    7b67:	48 89 85 00 fa ff ff 	mov    %rax,-0x600(%rbp)
    7b6e:	48 bb b8 03 85 6f 4c 	movabs $0x59f6494c6f8503b8,%rbx
    7b75:	49 f6 59 
    7b78:	48 89 9d 20 fb ff ff 	mov    %rbx,-0x4e0(%rbp)
    7b7f:	48 b8 10 5c 4d bd 7c 	movabs $0xd1cd2f7cbd4d5c10,%rax
    7b86:	2f cd d1 
    7b89:	48 89 85 28 fb ff ff 	mov    %rax,-0x4d8(%rbp)
    7b90:	48 89 85 30 fb ff ff 	mov    %rax,-0x4d0(%rbp)
    7b97:	48 b9 2f c6 97 6b 63 	movabs $0xe1645d636b97c62f,%rcx
    7b9e:	5d 64 e1 
    7ba1:	48 89 8d 38 fb ff ff 	mov    %rcx,-0x4c8(%rbp)
    7ba8:	48 bf 67 d6 d1 4e e2 	movabs $0xd5f695e24ed1d667,%rdi
    7baf:	95 f6 d5 
    7bb2:	48 89 bd 40 fb ff ff 	mov    %rdi,-0x4c0(%rbp)
    7bb9:	48 c7 85 48 fb ff ff 	movq   $0x0,-0x4b8(%rbp)
    7bc0:	00 00 00 00 
    7bc4:	48 c7 85 50 fb ff ff 	movq   $0x8,-0x4b0(%rbp)
    7bcb:	08 00 00 00 
    7bcf:	48 be fa 3d c1 81 e3 	movabs $0xe18654e381c13dfa,%rsi
    7bd6:	54 86 e1 
    7bd9:	48 89 b5 58 fb ff ff 	mov    %rsi,-0x4a8(%rbp)
    7be0:	48 89 bd 60 fb ff ff 	mov    %rdi,-0x4a0(%rbp)
    7be7:	48 c7 85 68 fb ff ff 	movq   $0x8,-0x498(%rbp)
    7bee:	08 00 00 00 
    7bf2:	48 89 9d 70 fb ff ff 	mov    %rbx,-0x490(%rbp)
    7bf9:	48 89 85 78 fb ff ff 	mov    %rax,-0x488(%rbp)
    7c00:	48 c7 85 80 fb ff ff 	movq   $0xfffffffffffffffe,-0x480(%rbp)
    7c07:	fe ff ff ff 
    7c0b:	48 be 91 c8 31 84 a3 	movabs $0xa4022aa38431c891,%rsi
    7c12:	2a 02 a4 
    7c15:	48 89 b5 88 fb ff ff 	mov    %rsi,-0x478(%rbp)
    7c1c:	48 c7 85 90 fb ff ff 	movq   $0xfffffffffffffffe,-0x470(%rbp)
    7c23:	fe ff ff ff 
    7c27:	48 89 85 98 fb ff ff 	mov    %rax,-0x468(%rbp)
    7c2e:	48 89 9d a0 fb ff ff 	mov    %rbx,-0x460(%rbp)
    7c35:	48 89 8d a8 fb ff ff 	mov    %rcx,-0x458(%rbp)
    7c3c:	48 bb 77 5b ac 6e 2a 	movabs $0x1bdaef2a6eac5b77,%rbx
    7c43:	ef da 1b 
    7c46:	48 89 9d b0 fb ff ff 	mov    %rbx,-0x450(%rbp)
    7c4d:	48 c7 85 b8 fb ff ff 	movq   $0x0,-0x448(%rbp)
    7c54:	00 00 00 00 
    7c58:	48 89 8d c0 fb ff ff 	mov    %rcx,-0x440(%rbp)
    7c5f:	48 c7 85 c8 fb ff ff 	movq   $0x8,-0x438(%rbp)
    7c66:	08 00 00 00 
    7c6a:	48 89 9d d0 fb ff ff 	mov    %rbx,-0x430(%rbp)
    7c71:	48 c7 85 d8 fb ff ff 	movq   $0xfffffffffffffffe,-0x428(%rbp)
    7c78:	fe ff ff ff 
    7c7c:	48 c7 85 e0 fb ff ff 	movq   $0xfffffffffffffff7,-0x420(%rbp)
    7c83:	f7 ff ff ff 
    7c87:	48 c7 85 e8 fb ff ff 	movq   $0xfffffffffffffff7,-0x418(%rbp)
    7c8e:	f7 ff ff ff 
    7c92:	48 89 85 f0 fb ff ff 	mov    %rax,-0x410(%rbp)
    7c99:	48 c7 85 f8 fb ff ff 	movq   $0x8,-0x408(%rbp)
    7ca0:	08 00 00 00 
    7ca4:	48 89 85 00 fc ff ff 	mov    %rax,-0x400(%rbp)
    7cab:	48 89 9d 08 fc ff ff 	mov    %rbx,-0x3f8(%rbp)
    7cb2:	c7 85 20 f9 ff ff 00 	movl   $0x0,-0x6e0(%rbp)
    7cb9:	00 00 00 
    7cbc:	eb 1e                	jmp    7cdc <func_81+0x2de>
    7cbe:	8b 85 20 f9 ff ff    	mov    -0x6e0(%rbp),%eax
    7cc4:	48 98                	cltq   
    7cc6:	48 8d 15 5b 73 00 00 	lea    0x735b(%rip),%rdx        # f028 <g_5>
    7ccd:	48 89 94 c5 00 fb ff 	mov    %rdx,-0x500(%rbp,%rax,8)
    7cd4:	ff 
    7cd5:	83 85 20 f9 ff ff 01 	addl   $0x1,-0x6e0(%rbp)
    7cdc:	83 bd 20 f9 ff ff 03 	cmpl   $0x3,-0x6e0(%rbp)
    7ce3:	7e d9                	jle    7cbe <func_81+0x2c0>
    7ce5:	c7 85 20 f9 ff ff 00 	movl   $0x0,-0x6e0(%rbp)
    7cec:	00 00 00 
    7cef:	eb 1e                	jmp    7d0f <func_81+0x311>
    7cf1:	8b 85 20 f9 ff ff    	mov    -0x6e0(%rbp),%eax
    7cf7:	48 98                	cltq   
    7cf9:	48 8d 15 30 84 00 00 	lea    0x8430(%rip),%rdx        # 10130 <g_666>
    7d00:	48 89 94 c5 c8 fa ff 	mov    %rdx,-0x538(%rbp,%rax,8)
    7d07:	ff 
    7d08:	83 85 20 f9 ff ff 01 	addl   $0x1,-0x6e0(%rbp)
    7d0f:	83 bd 20 f9 ff ff 00 	cmpl   $0x0,-0x6e0(%rbp)
    7d16:	7e d9                	jle    7cf1 <func_81+0x2f3>
    7d18:	48 8b 85 d0 f8 ff ff 	mov    -0x730(%rbp),%rax
    7d1f:	48 8b 00             	mov    (%rax),%rax
    7d22:	8b 00                	mov    (%rax),%eax
    7d24:	85 c0                	test   %eax,%eax
    7d26:	0f 84 b5 00 00 00    	je     7de1 <func_81+0x3e3>
    7d2c:	48 8d 05 4d 76 00 00 	lea    0x764d(%rip),%rax        # f380 <g_205>
    7d33:	48 89 85 58 fa ff ff 	mov    %rax,-0x5a8(%rbp)
    7d3a:	48 c7 85 60 fa ff ff 	movq   $0x0,-0x5a0(%rbp)
    7d41:	00 00 00 00 
    7d45:	48 c7 85 68 fa ff ff 	movq   $0x0,-0x598(%rbp)
    7d4c:	00 00 00 00 
    7d50:	48 8d 05 45 76 00 00 	lea    0x7645(%rip),%rax        # f39c <g_205+0x1c>
    7d57:	48 89 85 70 fa ff ff 	mov    %rax,-0x590(%rbp)
    7d5e:	c7 85 50 fd ff ff e2 	movl   $0xec69dae2,-0x2b0(%rbp)
    7d65:	da 69 ec 
    7d68:	c7 85 54 fd ff ff 2e 	movl   $0x179fa42e,-0x2ac(%rbp)
    7d6f:	a4 9f 17 
    7d72:	c7 85 58 fd ff ff e2 	movl   $0xec69dae2,-0x2a8(%rbp)
    7d79:	da 69 ec 
    7d7c:	c7 85 5c fd ff ff e2 	movl   $0xec69dae2,-0x2a4(%rbp)
    7d83:	da 69 ec 
    7d86:	c7 85 60 fd ff ff 2e 	movl   $0x179fa42e,-0x2a0(%rbp)
    7d8d:	a4 9f 17 
    7d90:	c7 85 64 fd ff ff e2 	movl   $0xec69dae2,-0x29c(%rbp)
    7d97:	da 69 ec 
    7d9a:	c7 85 24 f9 ff ff 00 	movl   $0x0,-0x6dc(%rbp)
    7da1:	00 00 00 
    7da4:	eb 1e                	jmp    7dc4 <func_81+0x3c6>
    7da6:	8b 85 24 f9 ff ff    	mov    -0x6dc(%rbp),%eax
    7dac:	48 98                	cltq   
    7dae:	48 8d 15 ef 75 00 00 	lea    0x75ef(%rip),%rdx        # f3a4 <g_205+0x24>
    7db5:	48 89 94 c5 10 fc ff 	mov    %rdx,-0x3f0(%rbp,%rax,8)
    7dbc:	ff 
    7dbd:	83 85 24 f9 ff ff 01 	addl   $0x1,-0x6dc(%rbp)
    7dc4:	83 bd 24 f9 ff ff 02 	cmpl   $0x2,-0x6dc(%rbp)
    7dcb:	7e d9                	jle    7da6 <func_81+0x3a8>
    7dcd:	8b 85 50 fd ff ff    	mov    -0x2b0(%rbp),%eax
    7dd3:	83 c0 01             	add    $0x1,%eax
    7dd6:	89 85 50 fd ff ff    	mov    %eax,-0x2b0(%rbp)
    7ddc:	e9 62 0b 00 00       	jmpq   8943 <func_81+0xf45>
    7de1:	c7 85 40 f9 ff ff ff 	movl   $0xffffffff,-0x6c0(%rbp)
    7de8:	ff ff ff 
    7deb:	c7 85 44 f9 ff ff fa 	movl   $0xfffffffa,-0x6bc(%rbp)
    7df2:	ff ff ff 
    7df5:	c7 85 48 f9 ff ff fd 	movl   $0xfffffffd,-0x6b8(%rbp)
    7dfc:	ff ff ff 
    7dff:	c7 85 4c f9 ff ff c9 	movl   $0xae66bac9,-0x6b4(%rbp)
    7e06:	ba 66 ae 
    7e09:	c7 85 50 f9 ff ff 03 	movl   $0x3,-0x6b0(%rbp)
    7e10:	00 00 00 
    7e13:	48 8d 05 ee 82 00 00 	lea    0x82ee(%rip),%rax        # 10108 <g_94>
    7e1a:	48 89 85 08 fa ff ff 	mov    %rax,-0x5f8(%rbp)
    7e21:	c7 85 54 f9 ff ff 01 	movl   $0x1,-0x6ac(%rbp)
    7e28:	00 00 00 
    7e2b:	48 8b 05 d6 82 00 00 	mov    0x82d6(%rip),%rax        # 10108 <g_94>
    7e32:	48 8b 10             	mov    (%rax),%rdx
    7e35:	48 8b 85 d0 f8 ff ff 	mov    -0x730(%rbp),%rax
    7e3c:	48 8b 00             	mov    (%rax),%rax
    7e3f:	8b 12                	mov    (%rdx),%edx
    7e41:	89 10                	mov    %edx,(%rax)
    7e43:	48 8b 05 e6 82 00 00 	mov    0x82e6(%rip),%rax        # 10130 <g_666>
    7e4a:	0f b7 00             	movzwl (%rax),%eax
    7e4d:	0f b7 c0             	movzwl %ax,%eax
    7e50:	89 c6                	mov    %eax,%esi
    7e52:	bf f1 9f 00 00       	mov    $0x9ff1,%edi
    7e57:	e8 00 bf ff ff       	callq  3d5c <safe_mod_func_uint16_t_u_u>
    7e5c:	0f b6 05 e6 71 00 00 	movzbl 0x71e6(%rip),%eax        # f049 <g_114>
    7e63:	0f be d8             	movsbl %al,%ebx
    7e66:	44 8b a5 40 f9 ff ff 	mov    -0x6c0(%rbp),%r12d
    7e6d:	0f b7 05 e0 31 00 00 	movzwl 0x31e0(%rip),%eax        # b054 <g_59>
    7e74:	0f be d0             	movsbl %al,%edx
    7e77:	8b 85 1c f9 ff ff    	mov    -0x6e4(%rbp),%eax
    7e7d:	0f be c0             	movsbl %al,%eax
    7e80:	89 d6                	mov    %edx,%esi
    7e82:	89 c7                	mov    %eax,%edi
    7e84:	e8 89 b3 ff ff       	callq  3212 <safe_mul_func_int8_t_s_s>
    7e89:	84 c0                	test   %al,%al
    7e8b:	74 6e                	je     7efb <func_81+0x4fd>
    7e8d:	0f b7 05 c2 71 00 00 	movzwl 0x71c2(%rip),%eax        # f056 <g_143+0x6>
    7e94:	0f be d0             	movsbl %al,%edx
    7e97:	48 8b 05 92 82 00 00 	mov    0x8292(%rip),%rax        # 10130 <g_666>
    7e9e:	0f b7 00             	movzwl (%rax),%eax
    7ea1:	66 3d 7b 2c          	cmp    $0x2c7b,%ax
    7ea5:	0f 95 c0             	setne  %al
    7ea8:	0f b6 c0             	movzbl %al,%eax
    7eab:	89 85 14 f9 ff ff    	mov    %eax,-0x6ec(%rbp)
    7eb1:	48 0f bf 8d f6 f8 ff 	movswq -0x70a(%rbp),%rcx
    7eb8:	ff 
    7eb9:	48 8b 85 d8 f8 ff ff 	mov    -0x728(%rbp),%rax
    7ec0:	48 39 c1             	cmp    %rax,%rcx
    7ec3:	0f 92 c0             	setb   %al
    7ec6:	0f b6 c0             	movzbl %al,%eax
    7ec9:	89 d6                	mov    %edx,%esi
    7ecb:	89 c7                	mov    %eax,%edi
    7ecd:	e8 20 b3 ff ff       	callq  31f2 <safe_sub_func_int8_t_s_s>
    7ed2:	0f b6 c0             	movzbl %al,%eax
    7ed5:	8b 95 34 f9 ff ff    	mov    -0x6cc(%rbp),%edx
    7edb:	89 d6                	mov    %edx,%esi
    7edd:	89 c7                	mov    %eax,%edi
    7edf:	e8 21 bd ff ff       	callq  3c05 <safe_lshift_func_uint8_t_u_s>
    7ee4:	84 c0                	test   %al,%al
    7ee6:	74 13                	je     7efb <func_81+0x4fd>
    7ee8:	0f b7 05 0d 75 00 00 	movzwl 0x750d(%rip),%eax        # f3fc <g_633>
    7eef:	66 85 c0             	test   %ax,%ax
    7ef2:	74 07                	je     7efb <func_81+0x4fd>
    7ef4:	b8 01 00 00 00       	mov    $0x1,%eax
    7ef9:	eb 05                	jmp    7f00 <func_81+0x502>
    7efb:	b8 00 00 00 00       	mov    $0x0,%eax
    7f00:	98                   	cwtl   
    7f01:	be 7f c9 ff ff       	mov    $0xffffc97f,%esi
    7f06:	89 c7                	mov    %eax,%edi
    7f08:	e8 48 b5 ff ff       	callq  3455 <safe_div_func_int16_t_s_s>
    7f0d:	48 0f bf c0          	movswq %ax,%rax
    7f11:	4c 89 e6             	mov    %r12,%rsi
    7f14:	48 89 c7             	mov    %rax,%rdi
    7f17:	e8 93 c1 ff ff       	callq  40af <safe_div_func_uint64_t_u_u>
    7f1c:	0f be d0             	movsbl %al,%edx
    7f1f:	48 8b 85 d8 f8 ff ff 	mov    -0x728(%rbp),%rax
    7f26:	0f be c0             	movsbl %al,%eax
    7f29:	89 d6                	mov    %edx,%esi
    7f2b:	89 c7                	mov    %eax,%edi
    7f2d:	e8 38 b3 ff ff       	callq  326a <safe_div_func_int8_t_s_s>
    7f32:	66 0f be d0          	movsbw %al,%dx
    7f36:	0f b7 05 11 71 00 00 	movzwl 0x7111(%rip),%eax        # f04e <g_141>
    7f3d:	66 39 c2             	cmp    %ax,%dx
    7f40:	0f 9c c0             	setl   %al
    7f43:	89 c2                	mov    %eax,%edx
    7f45:	8b 85 0c f9 ff ff    	mov    -0x6f4(%rbp),%eax
    7f4b:	09 d0                	or     %edx,%eax
    7f4d:	0f b6 c0             	movzbl %al,%eax
    7f50:	8b 95 34 f9 ff ff    	mov    -0x6cc(%rbp),%edx
    7f56:	89 d6                	mov    %edx,%esi
    7f58:	89 c7                	mov    %eax,%edi
    7f5a:	e8 a6 bc ff ff       	callq  3c05 <safe_lshift_func_uint8_t_u_s>
    7f5f:	0f b6 c0             	movzbl %al,%eax
    7f62:	f7 d0                	not    %eax
    7f64:	89 de                	mov    %ebx,%esi
    7f66:	89 c7                	mov    %eax,%edi
    7f68:	e8 63 bf ff ff       	callq  3ed0 <safe_sub_func_uint32_t_u_u>
    7f6d:	48 8b 85 d0 f8 ff ff 	mov    -0x730(%rbp),%rax
    7f74:	48 8b 00             	mov    (%rax),%rax
    7f77:	8b 00                	mov    (%rax),%eax
    7f79:	85 c0                	test   %eax,%eax
    7f7b:	0f 8f 50 09 00 00    	jg     88d1 <func_81+0xed3>
    7f81:	c7 85 18 f9 ff ff f7 	movl   $0x363ecaf7,-0x6e8(%rbp)
    7f88:	ca 3e 36 
    7f8b:	66 c7 85 f8 f8 ff ff 	movw   $0x1,-0x708(%rbp)
    7f92:	01 00 
    7f94:	c7 85 58 f9 ff ff 61 	movl   $0x55907c61,-0x6a8(%rbp)
    7f9b:	7c 90 55 
    7f9e:	66 c7 85 e0 fa ff ff 	movw   $0x2e46,-0x520(%rbp)
    7fa5:	46 2e 
    7fa7:	66 c7 85 e2 fa ff ff 	movw   $0x49c7,-0x51e(%rbp)
    7fae:	c7 49 
    7fb0:	66 c7 85 e4 fa ff ff 	movw   $0x2e46,-0x51c(%rbp)
    7fb7:	46 2e 
    7fb9:	66 c7 85 e6 fa ff ff 	movw   $0x2e46,-0x51a(%rbp)
    7fc0:	46 2e 
    7fc2:	66 c7 85 e8 fa ff ff 	movw   $0x49c7,-0x518(%rbp)
    7fc9:	c7 49 
    7fcb:	66 c7 85 ea fa ff ff 	movw   $0x2e46,-0x516(%rbp)
    7fd2:	46 2e 
    7fd4:	66 c7 85 ec fa ff ff 	movw   $0x2e46,-0x514(%rbp)
    7fdb:	46 2e 
    7fdd:	66 c7 85 ee fa ff ff 	movw   $0x49c7,-0x512(%rbp)
    7fe4:	c7 49 
    7fe6:	66 c7 85 f0 fa ff ff 	movw   $0x2e46,-0x510(%rbp)
    7fed:	46 2e 
    7fef:	c7 85 5c f9 ff ff 08 	movl   $0x8,-0x6a4(%rbp)
    7ff6:	00 00 00 
    7ff9:	c7 85 60 f9 ff ff cf 	movl   $0xb6250bcf,-0x6a0(%rbp)
    8000:	0b 25 b6 
    8003:	48 8d 05 06 81 00 00 	lea    0x8106(%rip),%rax        # 10110 <g_93>
    800a:	48 89 85 a8 f9 ff ff 	mov    %rax,-0x658(%rbp)
    8011:	c7 85 28 f9 ff ff 00 	movl   $0x0,-0x6d8(%rbp)
    8018:	00 00 00 
    801b:	eb 1a                	jmp    8037 <func_81+0x639>
    801d:	8b 85 28 f9 ff ff    	mov    -0x6d8(%rbp),%eax
    8023:	48 98                	cltq   
    8025:	c7 84 85 d0 fa ff ff 	movl   $0x5,-0x530(%rbp,%rax,4)
    802c:	05 00 00 00 
    8030:	83 85 28 f9 ff ff 01 	addl   $0x1,-0x6d8(%rbp)
    8037:	83 bd 28 f9 ff ff 03 	cmpl   $0x3,-0x6d8(%rbp)
    803e:	7e dd                	jle    801d <func_81+0x61f>
    8040:	c7 85 fc f8 ff ff ea 	movl   $0xffffffea,-0x704(%rbp)
    8047:	ff ff ff 
    804a:	e9 71 08 00 00       	jmpq   88c0 <func_81+0xec2>
    804f:	66 c7 85 fa f8 ff ff 	movw   $0x0,-0x706(%rbp)
    8056:	00 00 
    8058:	c7 85 64 f9 ff ff 00 	movl   $0x0,-0x69c(%rbp)
    805f:	00 00 00 
    8062:	c7 85 68 f9 ff ff f8 	movl   $0xfffffff8,-0x698(%rbp)
    8069:	ff ff ff 
    806c:	c7 85 6c f9 ff ff 01 	movl   $0x1,-0x694(%rbp)
    8073:	00 00 00 
    8076:	c7 85 14 f9 ff ff 00 	movl   $0x0,-0x6ec(%rbp)
    807d:	00 00 00 
    8080:	e9 00 08 00 00       	jmpq   8885 <func_81+0xe87>
    8085:	c7 85 70 f9 ff ff 5d 	movl   $0x34094d5d,-0x690(%rbp)
    808c:	4d 09 34 
    808f:	48 8d 85 10 fc ff ff 	lea    -0x3f0(%rbp),%rax
    8096:	48 8d 15 83 37 00 00 	lea    0x3783(%rip),%rdx        # b820 <g_1991+0x7a0>
    809d:	b9 28 00 00 00       	mov    $0x28,%ecx
    80a2:	48 89 c7             	mov    %rax,%rdi
    80a5:	48 89 d6             	mov    %rdx,%rsi
    80a8:	f3 48 a5             	rep movsq %ds:(%rsi),%es:(%rdi)
    80ab:	66 c7 85 f6 f8 ff ff 	movw   $0x0,-0x70a(%rbp)
    80b2:	00 00 
    80b4:	eb 4e                	jmp    8104 <func_81+0x706>
    80b6:	8b 85 14 f9 ff ff    	mov    -0x6ec(%rbp),%eax
    80bc:	48 98                	cltq   
    80be:	48 8d 14 00          	lea    (%rax,%rax,1),%rdx
    80c2:	48 8d 05 87 72 00 00 	lea    0x7287(%rip),%rax        # f350 <g_204>
    80c9:	0f b7 04 02          	movzwl (%rdx,%rax,1),%eax
    80cd:	66 85 c0             	test   %ax,%ax
    80d0:	75 3e                	jne    8110 <func_81+0x712>
    80d2:	48 8b 85 d0 f8 ff ff 	mov    -0x730(%rbp),%rax
    80d9:	48 8b 00             	mov    (%rax),%rax
    80dc:	8b 00                	mov    (%rax),%eax
    80de:	85 c0                	test   %eax,%eax
    80e0:	74 13                	je     80f5 <func_81+0x6f7>
    80e2:	0f b7 85 f6 f8 ff ff 	movzwl -0x70a(%rbp),%eax
    80e9:	83 e8 01             	sub    $0x1,%eax
    80ec:	66 89 85 f6 f8 ff ff 	mov    %ax,-0x70a(%rbp)
    80f3:	eb 0f                	jmp    8104 <func_81+0x706>
    80f5:	48 8b 05 fc 7f 00 00 	mov    0x7ffc(%rip),%rax        # 100f8 <g_64>
    80fc:	48 8b 00             	mov    (%rax),%rax
    80ff:	e9 2b 0a 00 00       	jmpq   8b2f <func_81+0x1131>
    8104:	66 83 bd f6 f8 ff ff 	cmpw   $0x0,-0x70a(%rbp)
    810b:	00 
    810c:	79 a8                	jns    80b6 <func_81+0x6b8>
    810e:	eb 01                	jmp    8111 <func_81+0x713>
    8110:	90                   	nop
    8111:	48 8b 85 d0 f8 ff ff 	mov    -0x730(%rbp),%rax
    8118:	48 8b 00             	mov    (%rax),%rax
    811b:	c7 00 53 70 a0 62    	movl   $0x62a07053,(%rax)
    8121:	8b 85 14 f9 ff ff    	mov    -0x6ec(%rbp),%eax
    8127:	48 98                	cltq   
    8129:	48 8d 14 00          	lea    (%rax,%rax,1),%rdx
    812d:	48 8d 05 1c 72 00 00 	lea    0x721c(%rip),%rax        # f350 <g_204>
    8134:	0f b7 04 02          	movzwl (%rdx,%rax,1),%eax
    8138:	66 85 c0             	test   %ax,%ax
    813b:	0f 84 49 04 00 00    	je     858a <func_81+0xb8c>
    8141:	48 8d 85 0c f9 ff ff 	lea    -0x6f4(%rbp),%rax
    8148:	48 89 85 38 fa ff ff 	mov    %rax,-0x5c8(%rbp)
    814f:	48 8d 85 08 f9 ff ff 	lea    -0x6f8(%rbp),%rax
    8156:	48 89 85 40 fa ff ff 	mov    %rax,-0x5c0(%rbp)
    815d:	48 8d 85 00 f9 ff ff 	lea    -0x700(%rbp),%rax
    8164:	48 89 85 48 fa ff ff 	mov    %rax,-0x5b8(%rbp)
    816b:	48 8d 85 0c f9 ff ff 	lea    -0x6f4(%rbp),%rax
    8172:	48 89 85 50 fa ff ff 	mov    %rax,-0x5b0(%rbp)
    8179:	48 8d 85 10 f9 ff ff 	lea    -0x6f0(%rbp),%rax
    8180:	48 89 85 50 fd ff ff 	mov    %rax,-0x2b0(%rbp)
    8187:	48 c7 85 58 fd ff ff 	movq   $0x0,-0x2a8(%rbp)
    818e:	00 00 00 00 
    8192:	48 c7 85 60 fd ff ff 	movq   $0x0,-0x2a0(%rbp)
    8199:	00 00 00 00 
    819d:	48 8d 85 10 f9 ff ff 	lea    -0x6f0(%rbp),%rax
    81a4:	48 89 85 68 fd ff ff 	mov    %rax,-0x298(%rbp)
    81ab:	48 8d 85 18 f9 ff ff 	lea    -0x6e8(%rbp),%rax
    81b2:	48 89 85 70 fd ff ff 	mov    %rax,-0x290(%rbp)
    81b9:	48 8d 85 10 f9 ff ff 	lea    -0x6f0(%rbp),%rax
    81c0:	48 89 85 78 fd ff ff 	mov    %rax,-0x288(%rbp)
    81c7:	48 c7 85 80 fd ff ff 	movq   $0x0,-0x280(%rbp)
    81ce:	00 00 00 00 
    81d2:	48 c7 85 88 fd ff ff 	movq   $0x0,-0x278(%rbp)
    81d9:	00 00 00 00 
    81dd:	48 8d 85 10 f9 ff ff 	lea    -0x6f0(%rbp),%rax
    81e4:	48 89 85 90 fd ff ff 	mov    %rax,-0x270(%rbp)
    81eb:	48 8d 85 04 f9 ff ff 	lea    -0x6fc(%rbp),%rax
    81f2:	48 89 85 98 fd ff ff 	mov    %rax,-0x268(%rbp)
    81f9:	48 c7 85 a0 fd ff ff 	movq   $0x0,-0x260(%rbp)
    8200:	00 00 00 00 
    8204:	48 8d 85 fc f8 ff ff 	lea    -0x704(%rbp),%rax
    820b:	48 89 85 a8 fd ff ff 	mov    %rax,-0x258(%rbp)
    8212:	48 c7 85 b0 fd ff ff 	movq   $0x0,-0x250(%rbp)
    8219:	00 00 00 00 
    821d:	48 8d 85 04 f9 ff ff 	lea    -0x6fc(%rbp),%rax
    8224:	48 89 85 b8 fd ff ff 	mov    %rax,-0x248(%rbp)
    822b:	48 8d 85 04 f9 ff ff 	lea    -0x6fc(%rbp),%rax
    8232:	48 89 85 c0 fd ff ff 	mov    %rax,-0x240(%rbp)
    8239:	48 c7 85 c8 fd ff ff 	movq   $0x0,-0x238(%rbp)
    8240:	00 00 00 00 
    8244:	48 8d 85 fc f8 ff ff 	lea    -0x704(%rbp),%rax
    824b:	48 89 85 d0 fd ff ff 	mov    %rax,-0x230(%rbp)
    8252:	48 c7 85 d8 fd ff ff 	movq   $0x0,-0x228(%rbp)
    8259:	00 00 00 00 
    825d:	48 c7 85 e0 fd ff ff 	movq   $0x0,-0x220(%rbp)
    8264:	00 00 00 00 
    8268:	48 8d 85 18 f9 ff ff 	lea    -0x6e8(%rbp),%rax
    826f:	48 89 85 e8 fd ff ff 	mov    %rax,-0x218(%rbp)
    8276:	48 8d 85 fc f8 ff ff 	lea    -0x704(%rbp),%rax
    827d:	48 89 85 f0 fd ff ff 	mov    %rax,-0x210(%rbp)
    8284:	48 8d 85 fc f8 ff ff 	lea    -0x704(%rbp),%rax
    828b:	48 89 85 f8 fd ff ff 	mov    %rax,-0x208(%rbp)
    8292:	48 8d 85 18 f9 ff ff 	lea    -0x6e8(%rbp),%rax
    8299:	48 89 85 00 fe ff ff 	mov    %rax,-0x200(%rbp)
    82a0:	48 c7 85 08 fe ff ff 	movq   $0x0,-0x1f8(%rbp)
    82a7:	00 00 00 00 
    82ab:	48 8d 85 18 f9 ff ff 	lea    -0x6e8(%rbp),%rax
    82b2:	48 89 85 10 fe ff ff 	mov    %rax,-0x1f0(%rbp)
    82b9:	48 8d 85 fc f8 ff ff 	lea    -0x704(%rbp),%rax
    82c0:	48 89 85 18 fe ff ff 	mov    %rax,-0x1e8(%rbp)
    82c7:	48 8d 85 fc f8 ff ff 	lea    -0x704(%rbp),%rax
    82ce:	48 89 85 20 fe ff ff 	mov    %rax,-0x1e0(%rbp)
    82d5:	48 8d 85 04 f9 ff ff 	lea    -0x6fc(%rbp),%rax
    82dc:	48 89 85 28 fe ff ff 	mov    %rax,-0x1d8(%rbp)
    82e3:	48 8d 85 04 f9 ff ff 	lea    -0x6fc(%rbp),%rax
    82ea:	48 89 85 30 fe ff ff 	mov    %rax,-0x1d0(%rbp)
    82f1:	48 c7 85 38 fe ff ff 	movq   $0x0,-0x1c8(%rbp)
    82f8:	00 00 00 00 
    82fc:	48 8d 85 fc f8 ff ff 	lea    -0x704(%rbp),%rax
    8303:	48 89 85 40 fe ff ff 	mov    %rax,-0x1c0(%rbp)
    830a:	48 c7 85 48 fe ff ff 	movq   $0x0,-0x1b8(%rbp)
    8311:	00 00 00 00 
    8315:	48 8d 85 04 f9 ff ff 	lea    -0x6fc(%rbp),%rax
    831c:	48 89 85 50 fe ff ff 	mov    %rax,-0x1b0(%rbp)
    8323:	48 8d 85 04 f9 ff ff 	lea    -0x6fc(%rbp),%rax
    832a:	48 89 85 58 fe ff ff 	mov    %rax,-0x1a8(%rbp)
    8331:	48 c7 85 60 fe ff ff 	movq   $0x0,-0x1a0(%rbp)
    8338:	00 00 00 00 
    833c:	48 8d 85 fc f8 ff ff 	lea    -0x704(%rbp),%rax
    8343:	48 89 85 68 fe ff ff 	mov    %rax,-0x198(%rbp)
    834a:	48 8d 85 10 f9 ff ff 	lea    -0x6f0(%rbp),%rax
    8351:	48 89 85 70 fe ff ff 	mov    %rax,-0x190(%rbp)
    8358:	48 8d 85 18 f9 ff ff 	lea    -0x6e8(%rbp),%rax
    835f:	48 89 85 78 fe ff ff 	mov    %rax,-0x188(%rbp)
    8366:	48 8d 85 10 f9 ff ff 	lea    -0x6f0(%rbp),%rax
    836d:	48 89 85 80 fe ff ff 	mov    %rax,-0x180(%rbp)
    8374:	48 c7 85 88 fe ff ff 	movq   $0x0,-0x178(%rbp)
    837b:	00 00 00 00 
    837f:	48 c7 85 90 fe ff ff 	movq   $0x0,-0x170(%rbp)
    8386:	00 00 00 00 
    838a:	48 8d 85 10 f9 ff ff 	lea    -0x6f0(%rbp),%rax
    8391:	48 89 85 98 fe ff ff 	mov    %rax,-0x168(%rbp)
    8398:	48 8d 85 18 f9 ff ff 	lea    -0x6e8(%rbp),%rax
    839f:	48 89 85 a0 fe ff ff 	mov    %rax,-0x160(%rbp)
    83a6:	48 8d 85 10 f9 ff ff 	lea    -0x6f0(%rbp),%rax
    83ad:	48 89 85 a8 fe ff ff 	mov    %rax,-0x158(%rbp)
    83b4:	48 c7 85 b0 fe ff ff 	movq   $0x0,-0x150(%rbp)
    83bb:	00 00 00 00 
    83bf:	48 8d 85 10 f9 ff ff 	lea    -0x6f0(%rbp),%rax
    83c6:	48 89 85 b8 fe ff ff 	mov    %rax,-0x148(%rbp)
    83cd:	48 c7 85 c0 fe ff ff 	movq   $0x0,-0x140(%rbp)
    83d4:	00 00 00 00 
    83d8:	48 c7 85 c8 fe ff ff 	movq   $0x0,-0x138(%rbp)
    83df:	00 00 00 00 
    83e3:	48 8d 85 10 f9 ff ff 	lea    -0x6f0(%rbp),%rax
    83ea:	48 89 85 d0 fe ff ff 	mov    %rax,-0x130(%rbp)
    83f1:	48 8d 85 18 f9 ff ff 	lea    -0x6e8(%rbp),%rax
    83f8:	48 89 85 d8 fe ff ff 	mov    %rax,-0x128(%rbp)
    83ff:	48 8d 85 10 f9 ff ff 	lea    -0x6f0(%rbp),%rax
    8406:	48 89 85 e0 fe ff ff 	mov    %rax,-0x120(%rbp)
    840d:	48 c7 85 e8 fe ff ff 	movq   $0x0,-0x118(%rbp)
    8414:	00 00 00 00 
    8418:	48 c7 85 f0 fe ff ff 	movq   $0x0,-0x110(%rbp)
    841f:	00 00 00 00 
    8423:	48 8d 85 10 f9 ff ff 	lea    -0x6f0(%rbp),%rax
    842a:	48 89 85 f8 fe ff ff 	mov    %rax,-0x108(%rbp)
    8431:	48 8d 85 04 f9 ff ff 	lea    -0x6fc(%rbp),%rax
    8438:	48 89 85 00 ff ff ff 	mov    %rax,-0x100(%rbp)
    843f:	48 c7 85 08 ff ff ff 	movq   $0x0,-0xf8(%rbp)
    8446:	00 00 00 00 
    844a:	48 8d 85 fc f8 ff ff 	lea    -0x704(%rbp),%rax
    8451:	48 89 85 10 ff ff ff 	mov    %rax,-0xf0(%rbp)
    8458:	48 c7 85 18 ff ff ff 	movq   $0x0,-0xe8(%rbp)
    845f:	00 00 00 00 
    8463:	48 8d 85 04 f9 ff ff 	lea    -0x6fc(%rbp),%rax
    846a:	48 89 85 20 ff ff ff 	mov    %rax,-0xe0(%rbp)
    8471:	48 8d 85 04 f9 ff ff 	lea    -0x6fc(%rbp),%rax
    8478:	48 89 85 28 ff ff ff 	mov    %rax,-0xd8(%rbp)
    847f:	48 c7 85 30 ff ff ff 	movq   $0x0,-0xd0(%rbp)
    8486:	00 00 00 00 
    848a:	48 8d 85 fc f8 ff ff 	lea    -0x704(%rbp),%rax
    8491:	48 89 85 38 ff ff ff 	mov    %rax,-0xc8(%rbp)
    8498:	48 c7 85 40 ff ff ff 	movq   $0x0,-0xc0(%rbp)
    849f:	00 00 00 00 
    84a3:	48 c7 85 48 ff ff ff 	movq   $0x0,-0xb8(%rbp)
    84aa:	00 00 00 00 
    84ae:	48 8d 85 18 f9 ff ff 	lea    -0x6e8(%rbp),%rax
    84b5:	48 89 85 50 ff ff ff 	mov    %rax,-0xb0(%rbp)
    84bc:	48 8d 85 fc f8 ff ff 	lea    -0x704(%rbp),%rax
    84c3:	48 89 85 58 ff ff ff 	mov    %rax,-0xa8(%rbp)
    84ca:	48 8d 85 fc f8 ff ff 	lea    -0x704(%rbp),%rax
    84d1:	48 89 85 60 ff ff ff 	mov    %rax,-0xa0(%rbp)
    84d8:	48 8d 85 18 f9 ff ff 	lea    -0x6e8(%rbp),%rax
    84df:	48 89 85 68 ff ff ff 	mov    %rax,-0x98(%rbp)
    84e6:	48 c7 85 70 ff ff ff 	movq   $0x0,-0x90(%rbp)
    84ed:	00 00 00 00 
    84f1:	48 8d 85 18 f9 ff ff 	lea    -0x6e8(%rbp),%rax
    84f8:	48 89 85 78 ff ff ff 	mov    %rax,-0x88(%rbp)
    84ff:	48 8d 85 fc f8 ff ff 	lea    -0x704(%rbp),%rax
    8506:	48 89 45 80          	mov    %rax,-0x80(%rbp)
    850a:	48 8d 85 fc f8 ff ff 	lea    -0x704(%rbp),%rax
    8511:	48 89 45 88          	mov    %rax,-0x78(%rbp)
    8515:	48 8d 85 04 f9 ff ff 	lea    -0x6fc(%rbp),%rax
    851c:	48 89 45 90          	mov    %rax,-0x70(%rbp)
    8520:	48 8d 85 04 f9 ff ff 	lea    -0x6fc(%rbp),%rax
    8527:	48 89 45 98          	mov    %rax,-0x68(%rbp)
    852b:	48 c7 45 a0 00 00 00 	movq   $0x0,-0x60(%rbp)
    8532:	00 
    8533:	48 8d 85 fc f8 ff ff 	lea    -0x704(%rbp),%rax
    853a:	48 89 45 a8          	mov    %rax,-0x58(%rbp)
    853e:	48 8d 85 10 f9 ff ff 	lea    -0x6f0(%rbp),%rax
    8545:	48 89 45 b0          	mov    %rax,-0x50(%rbp)
    8549:	48 c7 45 b8 00 00 00 	movq   $0x0,-0x48(%rbp)
    8550:	00 
    8551:	48 c7 45 c0 00 00 00 	movq   $0x0,-0x40(%rbp)
    8558:	00 
    8559:	48 8d 85 10 f9 ff ff 	lea    -0x6f0(%rbp),%rax
    8560:	48 89 45 c8          	mov    %rax,-0x38(%rbp)
    8564:	48 8d 85 18 f9 ff ff 	lea    -0x6e8(%rbp),%rax
    856b:	48 89 45 d0          	mov    %rax,-0x30(%rbp)
    856f:	8b 85 d4 fa ff ff    	mov    -0x52c(%rbp),%eax
    8575:	83 e8 01             	sub    $0x1,%eax
    8578:	89 85 d4 fa ff ff    	mov    %eax,-0x52c(%rbp)
    857e:	48 8b 85 e0 f8 ff ff 	mov    -0x720(%rbp),%rax
    8585:	e9 a5 05 00 00       	jmpq   8b2f <func_81+0x1131>
    858a:	48 8d 85 a8 f9 ff ff 	lea    -0x658(%rbp),%rax
    8591:	48 89 85 10 fa ff ff 	mov    %rax,-0x5f0(%rbp)
    8598:	48 c7 85 18 fa ff ff 	movq   $0x0,-0x5e8(%rbp)
    859f:	00 00 00 00 
    85a3:	48 8d 05 a0 6a 00 00 	lea    0x6aa0(%rip),%rax        # f04a <g_136>
    85aa:	48 89 85 20 fa ff ff 	mov    %rax,-0x5e0(%rbp)
    85b1:	8b 05 8d 6a 00 00    	mov    0x6a8d(%rip),%eax        # f044 <g_107>
    85b7:	48 8b 95 a8 f9 ff ff 	mov    -0x658(%rbp),%rdx
    85be:	48 8b 85 10 fa ff ff 	mov    -0x5f0(%rbp),%rax
    85c5:	48 89 10             	mov    %rdx,(%rax)
    85c8:	48 8b 85 d8 f8 ff ff 	mov    -0x728(%rbp),%rax
    85cf:	0f b6 c0             	movzbl %al,%eax
    85d2:	be 06 00 00 00       	mov    $0x6,%esi
    85d7:	89 c7                	mov    %eax,%edi
    85d9:	e8 27 b6 ff ff       	callq  3c05 <safe_lshift_func_uint8_t_u_s>
    85de:	8b 85 cc f8 ff ff    	mov    -0x734(%rbp),%eax
    85e4:	0f b6 d8             	movzbl %al,%ebx
    85e7:	44 8b 25 a2 6d 00 00 	mov    0x6da2(%rip),%r12d        # f390 <g_205+0x10>
    85ee:	48 8b 85 e8 f8 ff ff 	mov    -0x718(%rbp),%rax
    85f5:	41 89 c5             	mov    %eax,%r13d
    85f8:	0f b7 05 2f 6a 00 00 	movzwl 0x6a2f(%rip),%eax        # f02e <g_15>
    85ff:	0f b7 d0             	movzwl %ax,%edx
    8602:	0f b7 05 45 6a 00 00 	movzwl 0x6a45(%rip),%eax        # f04e <g_141>
    8609:	48 0f bf c8          	movswq %ax,%rcx
    860d:	48 8b 85 d8 f8 ff ff 	mov    -0x728(%rbp),%rax
    8614:	48 39 c1             	cmp    %rax,%rcx
    8617:	75 0c                	jne    8625 <func_81+0xc27>
    8619:	48 8b 85 d8 f8 ff ff 	mov    -0x728(%rbp),%rax
    8620:	48 85 c0             	test   %rax,%rax
    8623:	74 07                	je     862c <func_81+0xc2e>
    8625:	b8 01 00 00 00       	mov    $0x1,%eax
    862a:	eb 05                	jmp    8631 <func_81+0xc33>
    862c:	b8 00 00 00 00       	mov    $0x0,%eax
    8631:	0f b7 c0             	movzwl %ax,%eax
    8634:	89 d6                	mov    %edx,%esi
    8636:	89 c7                	mov    %eax,%edi
    8638:	e8 51 b7 ff ff       	callq  3d8e <safe_div_func_uint16_t_u_u>
    863d:	66 83 f8 0e          	cmp    $0xe,%ax
    8641:	77 11                	ja     8654 <func_81+0xc56>
    8643:	8b 85 14 f9 ff ff    	mov    -0x6ec(%rbp),%eax
    8649:	85 c0                	test   %eax,%eax
    864b:	74 07                	je     8654 <func_81+0xc56>
    864d:	b8 01 00 00 00       	mov    $0x1,%eax
    8652:	eb 05                	jmp    8659 <func_81+0xc5b>
    8654:	b8 00 00 00 00       	mov    $0x0,%eax
    8659:	44 89 ee             	mov    %r13d,%esi
    865c:	89 c7                	mov    %eax,%edi
    865e:	e8 9c b0 ff ff       	callq  36ff <safe_div_func_int32_t_s_s>
    8663:	48 8b 85 d8 f8 ff ff 	mov    -0x728(%rbp),%rax
    866a:	0f b7 c0             	movzwl %ax,%eax
    866d:	44 89 e6             	mov    %r12d,%esi
    8670:	89 c7                	mov    %eax,%edi
    8672:	e8 47 b7 ff ff       	callq  3dbe <safe_lshift_func_uint16_t_u_s>
    8677:	0f b6 c0             	movzbl %al,%eax
    867a:	89 de                	mov    %ebx,%esi
    867c:	89 c7                	mov    %eax,%edi
    867e:	e8 10 b5 ff ff       	callq  3b93 <safe_mul_func_uint8_t_u_u>
    8683:	be 52 00 00 00       	mov    $0x52,%esi
    8688:	bf 00 00 00 00       	mov    $0x0,%edi
    868d:	e8 42 ab ff ff       	callq  31d4 <safe_add_func_int8_t_s_s>
    8692:	48 8b 85 e8 f8 ff ff 	mov    -0x718(%rbp),%rax
    8699:	89 85 6c f9 ff ff    	mov    %eax,-0x694(%rbp)
    869f:	8b 85 6c f9 ff ff    	mov    -0x694(%rbp),%eax
    86a5:	48 63 d8             	movslq %eax,%rbx
    86a8:	48 8b 85 20 fa ff ff 	mov    -0x5e0(%rbp),%rax
    86af:	66 c7 00 fa ff       	movw   $0xfffa,(%rax)
    86b4:	b9 01 00 00 00       	mov    $0x1,%ecx
    86b9:	48 8b 85 10 fa ff ff 	mov    -0x5f0(%rbp),%rax
    86c0:	48 8b 00             	mov    (%rax),%rax
    86c3:	48 8b 00             	mov    (%rax),%rax
    86c6:	48 8b 00             	mov    (%rax),%rax
    86c9:	48 8b 00             	mov    (%rax),%rax
    86cc:	8b 10                	mov    (%rax),%edx
    86ce:	48 8b 85 10 fa ff ff 	mov    -0x5f0(%rbp),%rax
    86d5:	48 8b 00             	mov    (%rax),%rax
    86d8:	48 8b 00             	mov    (%rax),%rax
    86db:	48 8b 00             	mov    (%rax),%rax
    86de:	48 8b 00             	mov    (%rax),%rax
    86e1:	09 ca                	or     %ecx,%edx
    86e3:	89 10                	mov    %edx,(%rax)
    86e5:	8b 00                	mov    (%rax),%eax
    86e7:	21 85 1c f9 ff ff    	and    %eax,-0x6e4(%rbp)
    86ed:	8b 85 1c f9 ff ff    	mov    -0x6e4(%rbp),%eax
    86f3:	0f bf d0             	movswl %ax,%edx
    86f6:	0f b6 05 6b 69 00 00 	movzbl 0x696b(%rip),%eax        # f068 <g_182>
    86fd:	0f be c0             	movsbl %al,%eax
    8700:	89 d6                	mov    %edx,%esi
    8702:	89 c7                	mov    %eax,%edi
    8704:	e8 ec ac ff ff       	callq  33f5 <safe_mul_func_int16_t_s_s>
    8709:	48 0f bf d0          	movswq %ax,%rdx
    870d:	48 8b 85 d8 f8 ff ff 	mov    -0x728(%rbp),%rax
    8714:	48 21 d0             	and    %rdx,%rax
    8717:	48 39 c3             	cmp    %rax,%rbx
    871a:	0f 95 c0             	setne  %al
    871d:	0f b6 d0             	movzbl %al,%edx
    8720:	48 8b 85 d8 f8 ff ff 	mov    -0x728(%rbp),%rax
    8727:	48 39 c2             	cmp    %rax,%rdx
    872a:	77 07                	ja     8733 <func_81+0xd35>
    872c:	b8 01 00 00 00       	mov    $0x1,%eax
    8731:	eb 05                	jmp    8738 <func_81+0xd3a>
    8733:	b8 00 00 00 00       	mov    $0x0,%eax
    8738:	3b 85 68 f9 ff ff    	cmp    -0x698(%rbp),%eax
    873e:	48 8b 15 bb 79 00 00 	mov    0x79bb(%rip),%rdx        # 10100 <g_95>
    8745:	48 8b 85 d0 f8 ff ff 	mov    -0x730(%rbp),%rax
    874c:	48 8b 00             	mov    (%rax),%rax
    874f:	8b 12                	mov    (%rdx),%edx
    8751:	89 10                	mov    %edx,(%rax)
    8753:	c7 85 00 f9 ff ff 00 	movl   $0x0,-0x700(%rbp)
    875a:	00 00 00 
    875d:	e9 06 01 00 00       	jmpq   8868 <func_81+0xe6a>
    8762:	48 c7 85 28 fa ff ff 	movq   $0x0,-0x5d8(%rbp)
    8769:	00 00 00 00 
    876d:	48 8d 05 38 6c 00 00 	lea    0x6c38(%rip),%rax        # f3ac <g_209>
    8774:	48 89 85 b0 f9 ff ff 	mov    %rax,-0x650(%rbp)
    877b:	48 8d 85 b0 f9 ff ff 	lea    -0x650(%rbp),%rax
    8782:	48 89 85 30 fa ff ff 	mov    %rax,-0x5d0(%rbp)
    8789:	8b 85 00 f9 ff ff    	mov    -0x700(%rbp),%eax
    878f:	8d 48 01             	lea    0x1(%rax),%ecx
    8792:	8b 85 00 f9 ff ff    	mov    -0x700(%rbp),%eax
    8798:	8b 95 00 f9 ff ff    	mov    -0x700(%rbp),%edx
    879e:	8b b5 cc f8 ff ff    	mov    -0x734(%rbp),%esi
    87a4:	41 89 f1             	mov    %esi,%r9d
    87a7:	48 63 fa             	movslq %edx,%rdi
    87aa:	48 63 f0             	movslq %eax,%rsi
    87ad:	4c 63 c1             	movslq %ecx,%r8
    87b0:	4d 01 c0             	add    %r8,%r8
    87b3:	4c 01 c7             	add    %r8,%rdi
    87b6:	48 01 fe             	add    %rdi,%rsi
    87b9:	48 8d 3c 36          	lea    (%rsi,%rsi,1),%rdi
    87bd:	48 8d 35 1c 6c 00 00 	lea    0x6c1c(%rip),%rsi        # f3e0 <g_548>
    87c4:	66 44 89 0c 37       	mov    %r9w,(%rdi,%rsi,1)
    87c9:	48 63 d2             	movslq %edx,%rdx
    87cc:	48 98                	cltq   
    87ce:	48 63 c9             	movslq %ecx,%rcx
    87d1:	48 01 c9             	add    %rcx,%rcx
    87d4:	48 01 ca             	add    %rcx,%rdx
    87d7:	48 01 d0             	add    %rdx,%rax
    87da:	48 8d 14 00          	lea    (%rax,%rax,1),%rdx
    87de:	48 8d 05 fb 6b 00 00 	lea    0x6bfb(%rip),%rax        # f3e0 <g_548>
    87e5:	0f b7 04 02          	movzwl (%rdx,%rax,1),%eax
    87e9:	0f b7 d0             	movzwl %ax,%edx
    87ec:	8b 05 36 68 00 00    	mov    0x6836(%rip),%eax        # f028 <g_5>
    87f2:	39 c2                	cmp    %eax,%edx
    87f4:	8b 05 de 6b 00 00    	mov    0x6bde(%rip),%eax        # f3d8 <g_513>
    87fa:	48 98                	cltq   
    87fc:	48 89 c6             	mov    %rax,%rsi
    87ff:	48 bf c2 b1 fd 77 97 	movabs $0x367b649777fdb1c2,%rdi
    8806:	64 7b 36 
    8809:	e8 20 b8 ff ff       	callq  402e <safe_add_func_uint64_t_u_u>
    880e:	48 8b 95 30 fa ff ff 	mov    -0x5d0(%rbp),%rdx
    8815:	48 8d 0d 8c 6b 00 00 	lea    0x6b8c(%rip),%rcx        # f3a8 <g_207>
    881c:	48 89 0a             	mov    %rcx,(%rdx)
    881f:	48 8b 95 30 fa ff ff 	mov    -0x5d0(%rbp),%rdx
    8826:	48 8b 12             	mov    (%rdx),%rdx
    8829:	48 39 95 28 fa ff ff 	cmp    %rdx,-0x5d8(%rbp)
    8830:	0f 95 c2             	setne  %dl
    8833:	0f b6 d2             	movzbl %dl,%edx
    8836:	48 39 d0             	cmp    %rdx,%rax
    8839:	0f 97 c0             	seta   %al
    883c:	0f b6 c8             	movzbl %al,%ecx
    883f:	48 8b 85 d0 f8 ff ff 	mov    -0x730(%rbp),%rax
    8846:	48 8b 00             	mov    (%rax),%rax
    8849:	8b 10                	mov    (%rax),%edx
    884b:	48 8b 85 d0 f8 ff ff 	mov    -0x730(%rbp),%rax
    8852:	48 8b 00             	mov    (%rax),%rax
    8855:	21 ca                	and    %ecx,%edx
    8857:	89 10                	mov    %edx,(%rax)
    8859:	8b 85 00 f9 ff ff    	mov    -0x700(%rbp),%eax
    885f:	83 e8 01             	sub    $0x1,%eax
    8862:	89 85 00 f9 ff ff    	mov    %eax,-0x700(%rbp)
    8868:	8b 85 00 f9 ff ff    	mov    -0x700(%rbp),%eax
    886e:	85 c0                	test   %eax,%eax
    8870:	0f 89 ec fe ff ff    	jns    8762 <func_81+0xd64>
    8876:	8b 85 14 f9 ff ff    	mov    -0x6ec(%rbp),%eax
    887c:	83 c0 01             	add    $0x1,%eax
    887f:	89 85 14 f9 ff ff    	mov    %eax,-0x6ec(%rbp)
    8885:	8b 85 14 f9 ff ff    	mov    -0x6ec(%rbp),%eax
    888b:	83 f8 09             	cmp    $0x9,%eax
    888e:	0f 8e f1 f7 ff ff    	jle    8085 <func_81+0x687>
    8894:	48 8b 85 d0 f8 ff ff 	mov    -0x730(%rbp),%rax
    889b:	48 8b 00             	mov    (%rax),%rax
    889e:	8b 00                	mov    (%rax),%eax
    88a0:	85 c0                	test   %eax,%eax
    88a2:	0f 85 9a 00 00 00    	jne    8942 <func_81+0xf44>
    88a8:	8b 85 fc f8 ff ff    	mov    -0x704(%rbp),%eax
    88ae:	be 01 00 00 00       	mov    $0x1,%esi
    88b3:	89 c7                	mov    %eax,%edi
    88b5:	e8 fe b5 ff ff       	callq  3eb8 <safe_add_func_uint32_t_u_u>
    88ba:	89 85 fc f8 ff ff    	mov    %eax,-0x704(%rbp)
    88c0:	8b 85 fc f8 ff ff    	mov    -0x704(%rbp),%eax
    88c6:	83 f8 15             	cmp    $0x15,%eax
    88c9:	0f 8e 80 f7 ff ff    	jle    804f <func_81+0x651>
    88cf:	eb 72                	jmp    8943 <func_81+0xf45>
    88d1:	c7 85 2c f9 ff ff 00 	movl   $0x0,-0x6d4(%rbp)
    88d8:	00 00 00 
    88db:	eb 4a                	jmp    8927 <func_81+0xf29>
    88dd:	c7 85 30 f9 ff ff 00 	movl   $0x0,-0x6d0(%rbp)
    88e4:	00 00 00 
    88e7:	eb 2e                	jmp    8917 <func_81+0xf19>
    88e9:	8b 85 30 f9 ff ff    	mov    -0x6d0(%rbp),%eax
    88ef:	48 98                	cltq   
    88f1:	8b 95 2c f9 ff ff    	mov    -0x6d4(%rbp),%edx
    88f7:	48 63 d2             	movslq %edx,%rdx
    88fa:	48 01 d2             	add    %rdx,%rdx
    88fd:	48 8d 5d e0          	lea    -0x20(%rbp),%rbx
    8901:	48 01 da             	add    %rbx,%rdx
    8904:	48 01 d0             	add    %rdx,%rax
    8907:	48 2d 90 02 00 00    	sub    $0x290,%rax
    890d:	c6 00 ff             	movb   $0xff,(%rax)
    8910:	83 85 30 f9 ff ff 01 	addl   $0x1,-0x6d0(%rbp)
    8917:	83 bd 30 f9 ff ff 01 	cmpl   $0x1,-0x6d0(%rbp)
    891e:	7e c9                	jle    88e9 <func_81+0xeeb>
    8920:	83 85 2c f9 ff ff 01 	addl   $0x1,-0x6d4(%rbp)
    8927:	83 bd 2c f9 ff ff 01 	cmpl   $0x1,-0x6d4(%rbp)
    892e:	7e ad                	jle    88dd <func_81+0xedf>
    8930:	0f b6 85 53 fd ff ff 	movzbl -0x2ad(%rbp),%eax
    8937:	0f b6 c0             	movzbl %al,%eax
    893a:	89 85 54 f9 ff ff    	mov    %eax,-0x6ac(%rbp)
    8940:	eb 01                	jmp    8943 <func_81+0xf45>
    8942:	90                   	nop
    8943:	83 ad 38 f9 ff ff 01 	subl   $0x1,-0x6c8(%rbp)
    894a:	c7 05 d4 66 00 00 00 	movl   $0x0,0x66d4(%rip)        # f028 <g_5>
    8951:	00 00 00 
    8954:	e9 a0 01 00 00       	jmpq   8af9 <func_81+0x10fb>
    8959:	c7 85 74 f9 ff ff f7 	movl   $0x539dc0f7,-0x68c(%rbp)
    8960:	c0 9d 53 
    8963:	48 8d 05 ec 66 00 00 	lea    0x66ec(%rip),%rax        # f056 <g_143+0x6>
    896a:	48 89 85 b0 f9 ff ff 	mov    %rax,-0x650(%rbp)
    8971:	48 8d 85 b0 f9 ff ff 	lea    -0x650(%rbp),%rax
    8978:	48 89 85 78 fa ff ff 	mov    %rax,-0x588(%rbp)
    897f:	c7 85 78 f9 ff ff ff 	movl   $0xffffffff,-0x688(%rbp)
    8986:	ff ff ff 
    8989:	c7 85 7c f9 ff ff 00 	movl   $0x0,-0x684(%rbp)
    8990:	00 00 00 
    8993:	c7 85 80 f9 ff ff 05 	movl   $0x5,-0x680(%rbp)
    899a:	00 00 00 
    899d:	c7 85 84 f9 ff ff ff 	movl   $0xffffffff,-0x67c(%rbp)
    89a4:	ff ff ff 
    89a7:	c7 85 88 f9 ff ff 05 	movl   $0x5,-0x678(%rbp)
    89ae:	00 00 00 
    89b1:	48 8d 05 f4 69 00 00 	lea    0x69f4(%rip),%rax        # f3ac <g_209>
    89b8:	48 89 85 80 fa ff ff 	mov    %rax,-0x580(%rbp)
    89bf:	48 8d 05 86 66 00 00 	lea    0x6686(%rip),%rax        # f04c <g_137>
    89c6:	48 89 85 88 fa ff ff 	mov    %rax,-0x578(%rbp)
    89cd:	48 8d 85 98 f9 ff ff 	lea    -0x668(%rbp),%rax
    89d4:	48 89 85 90 fa ff ff 	mov    %rax,-0x570(%rbp)
    89db:	48 8d 05 4e 80 00 00 	lea    0x804e(%rip),%rax        # 10a30 <g_266>
    89e2:	48 89 85 98 fa ff ff 	mov    %rax,-0x568(%rbp)
    89e9:	48 c7 85 a0 fa ff ff 	movq   $0x0,-0x560(%rbp)
    89f0:	00 00 00 00 
    89f4:	48 8d 05 fd 76 00 00 	lea    0x76fd(%rip),%rax        # 100f8 <g_64>
    89fb:	48 89 85 a8 fa ff ff 	mov    %rax,-0x558(%rbp)
    8a02:	66 c7 85 50 fd ff ff 	movw   $0x189e,-0x2b0(%rbp)
    8a09:	9e 18 
    8a0b:	66 c7 85 52 fd ff ff 	movw   $0x43af,-0x2ae(%rbp)
    8a12:	af 43 
    8a14:	66 c7 85 54 fd ff ff 	movw   $0xffff,-0x2ac(%rbp)
    8a1b:	ff ff 
    8a1d:	66 c7 85 56 fd ff ff 	movw   $0xffff,-0x2aa(%rbp)
    8a24:	ff ff 
    8a26:	66 c7 85 58 fd ff ff 	movw   $0xe216,-0x2a8(%rbp)
    8a2d:	16 e2 
    8a2f:	66 c7 85 5a fd ff ff 	movw   $0xffff,-0x2a6(%rbp)
    8a36:	ff ff 
    8a38:	66 c7 85 5c fd ff ff 	movw   $0xffff,-0x2a4(%rbp)
    8a3f:	ff ff 
    8a41:	66 c7 85 5e fd ff ff 	movw   $0x43af,-0x2a2(%rbp)
    8a48:	af 43 
    8a4a:	66 c7 85 60 fd ff ff 	movw   $0xffff,-0x2a0(%rbp)
    8a51:	ff ff 
    8a53:	66 c7 85 62 fd ff ff 	movw   $0xffff,-0x29e(%rbp)
    8a5a:	ff ff 
    8a5c:	66 c7 85 64 fd ff ff 	movw   $0xe216,-0x29c(%rbp)
    8a63:	16 e2 
    8a65:	66 c7 85 66 fd ff ff 	movw   $0xffff,-0x29a(%rbp)
    8a6c:	ff ff 
    8a6e:	66 c7 85 68 fd ff ff 	movw   $0xffff,-0x298(%rbp)
    8a75:	ff ff 
    8a77:	66 c7 85 6a fd ff ff 	movw   $0x43af,-0x296(%rbp)
    8a7e:	af 43 
    8a80:	66 c7 85 6c fd ff ff 	movw   $0x189e,-0x294(%rbp)
    8a87:	9e 18 
    8a89:	66 c7 85 6e fd ff ff 	movw   $0x189e,-0x292(%rbp)
    8a90:	9e 18 
    8a92:	66 c7 85 70 fd ff ff 	movw   $0xe216,-0x290(%rbp)
    8a99:	16 e2 
    8a9b:	66 c7 85 72 fd ff ff 	movw   $0x189e,-0x28e(%rbp)
    8aa2:	9e 18 
    8aa4:	66 c7 85 74 fd ff ff 	movw   $0x189e,-0x28c(%rbp)
    8aab:	9e 18 
    8aad:	66 c7 85 76 fd ff ff 	movw   $0x43af,-0x28a(%rbp)
    8ab4:	af 43 
    8ab6:	48 b8 24 02 5b 2b 19 	movabs $0xcbd80f192b5b0224,%rax
    8abd:	0f d8 cb 
    8ac0:	48 89 85 b0 fa ff ff 	mov    %rax,-0x550(%rbp)
    8ac7:	48 c7 85 b8 fa ff ff 	movq   $0x0,-0x548(%rbp)
    8ace:	00 00 00 00 
    8ad2:	48 8d 85 90 f9 ff ff 	lea    -0x670(%rbp),%rax
    8ad9:	48 89 85 c0 fa ff ff 	mov    %rax,-0x540(%rbp)
    8ae0:	c7 85 8c f9 ff ff 09 	movl   $0x9,-0x674(%rbp)
    8ae7:	00 00 00 
    8aea:	8b 05 38 65 00 00    	mov    0x6538(%rip),%eax        # f028 <g_5>
    8af0:	83 c0 01             	add    $0x1,%eax
    8af3:	89 05 2f 65 00 00    	mov    %eax,0x652f(%rip)        # f028 <g_5>
    8af9:	8b 05 29 65 00 00    	mov    0x6529(%rip),%eax        # f028 <g_5>
    8aff:	83 f8 02             	cmp    $0x2,%eax
    8b02:	0f 8e 51 fe ff ff    	jle    8959 <func_81+0xf5b>
    8b08:	48 8b 85 f8 f9 ff ff 	mov    -0x608(%rbp),%rax
    8b0f:	48 8b 00             	mov    (%rax),%rax
    8b12:	48 8b 10             	mov    (%rax),%rdx
    8b15:	48 8b 05 f4 75 00 00 	mov    0x75f4(%rip),%rax        # 10110 <g_93>
    8b1c:	48 8b 00             	mov    (%rax),%rax
    8b1f:	48 8b 12             	mov    (%rdx),%rdx
    8b22:	48 89 10             	mov    %rdx,(%rax)
    8b25:	48 8b 05 cc 75 00 00 	mov    0x75cc(%rip),%rax        # 100f8 <g_64>
    8b2c:	48 8b 00             	mov    (%rax),%rax
    8b2f:	48 8b 4d d8          	mov    -0x28(%rbp),%rcx
    8b33:	64 48 33 0c 25 28 00 	xor    %fs:0x28,%rcx
    8b3a:	00 00 
    8b3c:	74 05                	je     8b43 <func_81+0x1145>
    8b3e:	e8 2d a5 ff ff       	callq  3070 <__stack_chk_fail@plt>
    8b43:	48 81 c4 28 07 00 00 	add    $0x728,%rsp
    8b4a:	5b                   	pop    %rbx
    8b4b:	41 5c                	pop    %r12
    8b4d:	41 5d                	pop    %r13
    8b4f:	5d                   	pop    %rbp
    8b50:	c3                   	retq   

0000000000008b51 <func_87>:
    8b51:	f3 0f 1e fa          	endbr64 
    8b55:	55                   	push   %rbp
    8b56:	48 89 e5             	mov    %rsp,%rbp
    8b59:	48 81 ec 50 03 00 00 	sub    $0x350,%rsp
    8b60:	48 89 bd c8 fc ff ff 	mov    %rdi,-0x338(%rbp)
    8b67:	48 89 b5 c0 fc ff ff 	mov    %rsi,-0x340(%rbp)
    8b6e:	89 95 bc fc ff ff    	mov    %edx,-0x344(%rbp)
    8b74:	89 c8                	mov    %ecx,%eax
    8b76:	88 85 b8 fc ff ff    	mov    %al,-0x348(%rbp)
    8b7c:	64 48 8b 04 25 28 00 	mov    %fs:0x28,%rax
    8b83:	00 00 
    8b85:	48 89 45 f8          	mov    %rax,-0x8(%rbp)
    8b89:	31 c0                	xor    %eax,%eax
    8b8b:	48 c7 85 10 fd ff ff 	movq   $0x0,-0x2f0(%rbp)
    8b92:	00 00 00 00 
    8b96:	48 8d 05 5b 75 00 00 	lea    0x755b(%rip),%rax        # 100f8 <g_64>
    8b9d:	48 89 85 18 fd ff ff 	mov    %rax,-0x2e8(%rbp)
    8ba4:	c7 85 f0 fc ff ff fa 	movl   $0xfffffffa,-0x310(%rbp)
    8bab:	ff ff ff 
    8bae:	48 8d 05 93 64 00 00 	lea    0x6493(%rip),%rax        # f048 <g_110>
    8bb5:	48 89 85 20 fd ff ff 	mov    %rax,-0x2e0(%rbp)
    8bbc:	48 c7 85 28 fd ff ff 	movq   $0x0,-0x2d8(%rbp)
    8bc3:	00 00 00 00 
    8bc7:	48 c7 85 30 fd ff ff 	movq   $0x0,-0x2d0(%rbp)
    8bce:	00 00 00 00 
    8bd2:	48 8d 05 70 64 00 00 	lea    0x6470(%rip),%rax        # f049 <g_114>
    8bd9:	48 89 85 38 fd ff ff 	mov    %rax,-0x2c8(%rbp)
    8be0:	48 8d 05 49 64 00 00 	lea    0x6449(%rip),%rax        # f030 <g_24>
    8be7:	48 89 85 40 fd ff ff 	mov    %rax,-0x2c0(%rbp)
    8bee:	48 8d 05 61 64 00 00 	lea    0x6461(%rip),%rax        # f056 <g_143+0x6>
    8bf5:	48 89 85 48 fd ff ff 	mov    %rax,-0x2b8(%rbp)
    8bfc:	48 8d 85 00 fe ff ff 	lea    -0x200(%rbp),%rax
    8c03:	48 8d 15 56 2d 00 00 	lea    0x2d56(%rip),%rdx        # b960 <g_1991+0x8e0>
    8c0a:	b9 3f 00 00 00       	mov    $0x3f,%ecx
    8c0f:	48 89 c7             	mov    %rax,%rdi
    8c12:	48 89 d6             	mov    %rdx,%rsi
    8c15:	f3 48 a5             	rep movsq %ds:(%rsi),%es:(%rdi)
    8c18:	c7 85 f4 fc ff ff 54 	movl   $0x3e7e0054,-0x30c(%rbp)
    8c1f:	00 7e 3e 
    8c22:	66 c7 85 e0 fc ff ff 	movw   $0x3095,-0x320(%rbp)
    8c29:	95 30 
    8c2b:	66 c7 85 e2 fc ff ff 	movw   $0x5d05,-0x31e(%rbp)
    8c32:	05 5d 
    8c34:	48 8d 05 75 67 00 00 	lea    0x6775(%rip),%rax        # f3b0 <g_210>
    8c3b:	48 89 85 50 fd ff ff 	mov    %rax,-0x2b0(%rbp)
    8c42:	66 c7 85 e4 fc ff ff 	movw   $0x2,-0x31c(%rbp)
    8c49:	02 00 
    8c4b:	48 8d 05 5a 67 00 00 	lea    0x675a(%rip),%rax        # f3ac <g_209>
    8c52:	48 89 85 58 fd ff ff 	mov    %rax,-0x2a8(%rbp)
    8c59:	48 8d 05 0c 64 00 00 	lea    0x640c(%rip),%rax        # f06c <g_186>
    8c60:	48 89 85 08 fd ff ff 	mov    %rax,-0x2f8(%rbp)
    8c67:	48 8d 85 08 fd ff ff 	lea    -0x2f8(%rbp),%rax
    8c6e:	48 89 85 60 fd ff ff 	mov    %rax,-0x2a0(%rbp)
    8c75:	48 8d 05 e0 66 00 00 	lea    0x66e0(%rip),%rax        # f35c <g_204+0xc>
    8c7c:	48 89 85 68 fd ff ff 	mov    %rax,-0x298(%rbp)
    8c83:	48 8d 05 b6 63 00 00 	lea    0x63b6(%rip),%rax        # f040 <g_66>
    8c8a:	48 89 85 70 fd ff ff 	mov    %rax,-0x290(%rbp)
    8c91:	66 c7 85 e6 fc ff ff 	movw   $0x0,-0x31a(%rbp)
    8c98:	00 00 
    8c9a:	48 c7 85 78 fd ff ff 	movq   $0x0,-0x288(%rbp)
    8ca1:	00 00 00 00 
    8ca5:	c7 85 f8 fc ff ff 00 	movl   $0x0,-0x308(%rbp)
    8cac:	00 00 00 
    8caf:	c6 85 de fc ff ff 01 	movb   $0x1,-0x322(%rbp)
    8cb6:	48 c7 85 c0 fd ff ff 	movq   $0x1,-0x240(%rbp)
    8cbd:	01 00 00 00 
    8cc1:	48 c7 85 c8 fd ff ff 	movq   $0x1,-0x238(%rbp)
    8cc8:	01 00 00 00 
    8ccc:	48 c7 85 d0 fd ff ff 	movq   $0x1,-0x230(%rbp)
    8cd3:	01 00 00 00 
    8cd7:	48 c7 85 d8 fd ff ff 	movq   $0x1,-0x228(%rbp)
    8cde:	01 00 00 00 
    8ce2:	48 c7 85 e0 fd ff ff 	movq   $0x1,-0x220(%rbp)
    8ce9:	01 00 00 00 
    8ced:	48 c7 85 e8 fd ff ff 	movq   $0x1,-0x218(%rbp)
    8cf4:	01 00 00 00 
    8cf8:	48 c7 85 f0 fd ff ff 	movq   $0x1,-0x210(%rbp)
    8cff:	01 00 00 00 
    8d03:	c7 85 fc fc ff ff 59 	movl   $0xfde12659,-0x304(%rbp)
    8d0a:	26 e1 fd 
    8d0d:	c7 85 00 fd ff ff 04 	movl   $0x4,-0x300(%rbp)
    8d14:	00 00 00 
    8d17:	c7 85 04 fd ff ff 5d 	movl   $0x4c7d825d,-0x2fc(%rbp)
    8d1e:	82 7d 4c 
    8d21:	48 c7 85 80 fd ff ff 	movq   $0xfffffffffffffff7,-0x280(%rbp)
    8d28:	f7 ff ff ff 
    8d2c:	48 c7 85 88 fd ff ff 	movq   $0x0,-0x278(%rbp)
    8d33:	00 00 00 00 
    8d37:	c6 85 df fc ff ff 32 	movb   $0x32,-0x321(%rbp)
    8d3e:	c7 85 e8 fc ff ff 00 	movl   $0x0,-0x318(%rbp)
    8d45:	00 00 00 
    8d48:	eb 4d                	jmp    8d97 <func_87+0x246>
    8d4a:	c7 85 ec fc ff ff 00 	movl   $0x0,-0x314(%rbp)
    8d51:	00 00 00 
    8d54:	eb 31                	jmp    8d87 <func_87+0x236>
    8d56:	8b 85 ec fc ff ff    	mov    -0x314(%rbp),%eax
    8d5c:	48 63 c8             	movslq %eax,%rcx
    8d5f:	8b 85 e8 fc ff ff    	mov    -0x318(%rbp),%eax
    8d65:	48 63 d0             	movslq %eax,%rdx
    8d68:	48 89 d0             	mov    %rdx,%rax
    8d6b:	48 01 c0             	add    %rax,%rax
    8d6e:	48 01 d0             	add    %rdx,%rax
    8d71:	48 01 c8             	add    %rcx,%rax
    8d74:	48 c7 84 c5 90 fd ff 	movq   $0x0,-0x270(%rbp,%rax,8)
    8d7b:	ff 00 00 00 00 
    8d80:	83 85 ec fc ff ff 01 	addl   $0x1,-0x314(%rbp)
    8d87:	83 bd ec fc ff ff 02 	cmpl   $0x2,-0x314(%rbp)
    8d8e:	7e c6                	jle    8d56 <func_87+0x205>
    8d90:	83 85 e8 fc ff ff 01 	addl   $0x1,-0x318(%rbp)
    8d97:	83 bd e8 fc ff ff 01 	cmpl   $0x1,-0x318(%rbp)
    8d9e:	7e aa                	jle    8d4a <func_87+0x1f9>
    8da0:	48 8b 05 51 73 00 00 	mov    0x7351(%rip),%rax        # 100f8 <g_64>
    8da7:	48 8b 00             	mov    (%rax),%rax
    8daa:	48 8b 75 f8          	mov    -0x8(%rbp),%rsi
    8dae:	64 48 33 34 25 28 00 	xor    %fs:0x28,%rsi
    8db5:	00 00 
    8db7:	74 05                	je     8dbe <func_87+0x26d>
    8db9:	e8 b2 a2 ff ff       	callq  3070 <__stack_chk_fail@plt>
    8dbe:	c9                   	leaveq 
    8dbf:	c3                   	retq   

0000000000008dc0 <main>:
    8dc0:	f3 0f 1e fa          	endbr64 
    8dc4:	55                   	push   %rbp
    8dc5:	48 89 e5             	mov    %rsp,%rbp
    8dc8:	48 83 ec 20          	sub    $0x20,%rsp
    8dcc:	89 7d ec             	mov    %edi,-0x14(%rbp)
    8dcf:	48 89 75 e0          	mov    %rsi,-0x20(%rbp)
    8dd3:	c7 45 fc 00 00 00 00 	movl   $0x0,-0x4(%rbp)
    8dda:	83 7d ec 02          	cmpl   $0x2,-0x14(%rbp)
    8dde:	74 25                	je     8e05 <main+0x45>
    8de0:	48 8b 45 e0          	mov    -0x20(%rbp),%rax
    8de4:	48 83 c0 08          	add    $0x8,%rax
    8de8:	48 8b 00             	mov    (%rax),%rax
    8deb:	48 8d 35 66 2d 00 00 	lea    0x2d66(%rip),%rsi        # bb58 <g_1991+0xad8>
    8df2:	48 89 c7             	mov    %rax,%rdi
    8df5:	e8 96 a2 ff ff       	callq  3090 <strcmp@plt>
    8dfa:	85 c0                	test   %eax,%eax
    8dfc:	74 07                	je     8e05 <main+0x45>
    8dfe:	c7 45 fc 01 00 00 00 	movl   $0x1,-0x4(%rbp)
    8e05:	e8 7f a3 ff ff       	callq  3189 <platform_main_begin>
    8e0a:	e8 89 b7 ff ff       	callq  4598 <crc32_gentab>
    8e0f:	e8 a1 b9 ff ff       	callq  47b5 <func_1>
    8e14:	8b 05 0a 62 00 00    	mov    0x620a(%rip),%eax        # f024 <g_3>
    8e1a:	48 98                	cltq   
    8e1c:	8b 55 fc             	mov    -0x4(%rbp),%edx
    8e1f:	48 8d 35 34 2d 00 00 	lea    0x2d34(%rip),%rsi        # bb5a <g_1991+0xada>
    8e26:	48 89 c7             	mov    %rax,%rdi
    8e29:	e8 c5 b8 ff ff       	callq  46f3 <transparent_crc>
    8e2e:	8b 05 f4 61 00 00    	mov    0x61f4(%rip),%eax        # f028 <g_5>
    8e34:	48 98                	cltq   
    8e36:	8b 55 fc             	mov    -0x4(%rbp),%edx
    8e39:	48 8d 35 1e 2d 00 00 	lea    0x2d1e(%rip),%rsi        # bb5e <g_1991+0xade>
    8e40:	48 89 c7             	mov    %rax,%rdi
    8e43:	e8 ab b8 ff ff       	callq  46f3 <transparent_crc>
    8e48:	0f b6 05 dd 61 00 00 	movzbl 0x61dd(%rip),%eax        # f02c <g_14>
    8e4f:	48 0f be c0          	movsbq %al,%rax
    8e53:	8b 55 fc             	mov    -0x4(%rbp),%edx
    8e56:	48 8d 35 05 2d 00 00 	lea    0x2d05(%rip),%rsi        # bb62 <g_1991+0xae2>
    8e5d:	48 89 c7             	mov    %rax,%rdi
    8e60:	e8 8e b8 ff ff       	callq  46f3 <transparent_crc>
    8e65:	0f b7 05 c2 61 00 00 	movzwl 0x61c2(%rip),%eax        # f02e <g_15>
    8e6c:	0f b7 c0             	movzwl %ax,%eax
    8e6f:	8b 55 fc             	mov    -0x4(%rbp),%edx
    8e72:	48 8d 35 ee 2c 00 00 	lea    0x2cee(%rip),%rsi        # bb67 <g_1991+0xae7>
    8e79:	48 89 c7             	mov    %rax,%rdi
    8e7c:	e8 72 b8 ff ff       	callq  46f3 <transparent_crc>
    8e81:	0f b6 05 a8 61 00 00 	movzbl 0x61a8(%rip),%eax        # f030 <g_24>
    8e88:	0f b6 c0             	movzbl %al,%eax
    8e8b:	8b 55 fc             	mov    -0x4(%rbp),%edx
    8e8e:	48 8d 35 d7 2c 00 00 	lea    0x2cd7(%rip),%rsi        # bb6c <g_1991+0xaec>
    8e95:	48 89 c7             	mov    %rax,%rdi
    8e98:	e8 56 b8 ff ff       	callq  46f3 <transparent_crc>
    8e9d:	0f b7 05 8e 61 00 00 	movzwl 0x618e(%rip),%eax        # f032 <g_28>
    8ea4:	48 0f bf c0          	movswq %ax,%rax
    8ea8:	8b 55 fc             	mov    -0x4(%rbp),%edx
    8eab:	48 8d 35 bf 2c 00 00 	lea    0x2cbf(%rip),%rsi        # bb71 <g_1991+0xaf1>
    8eb2:	48 89 c7             	mov    %rax,%rdi
    8eb5:	e8 39 b8 ff ff       	callq  46f3 <transparent_crc>
    8eba:	0f b7 05 71 61 00 00 	movzwl 0x6171(%rip),%eax        # f032 <g_28>
    8ec1:	48 0f bf c0          	movswq %ax,%rax
    8ec5:	8b 55 fc             	mov    -0x4(%rbp),%edx
    8ec8:	48 8d 35 aa 2c 00 00 	lea    0x2caa(%rip),%rsi        # bb79 <g_1991+0xaf9>
    8ecf:	48 89 c7             	mov    %rax,%rdi
    8ed2:	e8 1c b8 ff ff       	callq  46f3 <transparent_crc>
    8ed7:	0f b7 05 54 61 00 00 	movzwl 0x6154(%rip),%eax        # f032 <g_28>
    8ede:	48 0f bf c0          	movswq %ax,%rax
    8ee2:	8b 55 fc             	mov    -0x4(%rbp),%edx
    8ee5:	48 8d 35 95 2c 00 00 	lea    0x2c95(%rip),%rsi        # bb81 <g_1991+0xb01>
    8eec:	48 89 c7             	mov    %rax,%rdi
    8eef:	e8 ff b7 ff ff       	callq  46f3 <transparent_crc>
    8ef4:	0f b7 05 2d 7b 00 00 	movzwl 0x7b2d(%rip),%eax        # 10a28 <g_33>
    8efb:	48 0f bf c0          	movswq %ax,%rax
    8eff:	8b 55 fc             	mov    -0x4(%rbp),%edx
    8f02:	48 8d 35 80 2c 00 00 	lea    0x2c80(%rip),%rsi        # bb89 <g_1991+0xb09>
    8f09:	48 89 c7             	mov    %rax,%rdi
    8f0c:	e8 e2 b7 ff ff       	callq  46f3 <transparent_crc>
    8f11:	8b 05 1d 61 00 00    	mov    0x611d(%rip),%eax        # f034 <g_37>
    8f17:	89 c1                	mov    %eax,%ecx
    8f19:	8b 45 fc             	mov    -0x4(%rbp),%eax
    8f1c:	89 c2                	mov    %eax,%edx
    8f1e:	48 8d 35 69 2c 00 00 	lea    0x2c69(%rip),%rsi        # bb8e <g_1991+0xb0e>
    8f25:	48 89 cf             	mov    %rcx,%rdi
    8f28:	e8 c6 b7 ff ff       	callq  46f3 <transparent_crc>
    8f2d:	0f b7 05 04 61 00 00 	movzwl 0x6104(%rip),%eax        # f038 <g_55>
    8f34:	0f b7 c0             	movzwl %ax,%eax
    8f37:	8b 55 fc             	mov    -0x4(%rbp),%edx
    8f3a:	48 8d 35 52 2c 00 00 	lea    0x2c52(%rip),%rsi        # bb93 <g_1991+0xb13>
    8f41:	48 89 c7             	mov    %rax,%rdi
    8f44:	e8 aa b7 ff ff       	callq  46f3 <transparent_crc>
    8f49:	8b 05 ed 60 00 00    	mov    0x60ed(%rip),%eax        # f03c <g_56>
    8f4f:	89 c1                	mov    %eax,%ecx
    8f51:	8b 45 fc             	mov    -0x4(%rbp),%eax
    8f54:	89 c2                	mov    %eax,%edx
    8f56:	48 8d 35 3b 2c 00 00 	lea    0x2c3b(%rip),%rsi        # bb98 <g_1991+0xb18>
    8f5d:	48 89 cf             	mov    %rcx,%rdi
    8f60:	e8 8e b7 ff ff       	callq  46f3 <transparent_crc>
    8f65:	b8 1c 5f 00 00       	mov    $0x5f1c,%eax
    8f6a:	48 0f bf c0          	movswq %ax,%rax
    8f6e:	8b 55 fc             	mov    -0x4(%rbp),%edx
    8f71:	48 8d 35 25 2c 00 00 	lea    0x2c25(%rip),%rsi        # bb9d <g_1991+0xb1d>
    8f78:	48 89 c7             	mov    %rax,%rdi
    8f7b:	e8 73 b7 ff ff       	callq  46f3 <transparent_crc>
    8f80:	0f b7 05 cd 20 00 00 	movzwl 0x20cd(%rip),%eax        # b054 <g_59>
    8f87:	48 0f bf c0          	movswq %ax,%rax
    8f8b:	8b 55 fc             	mov    -0x4(%rbp),%edx
    8f8e:	48 8d 35 10 2c 00 00 	lea    0x2c10(%rip),%rsi        # bba5 <g_1991+0xb25>
    8f95:	48 89 c7             	mov    %rax,%rdi
    8f98:	e8 56 b7 ff ff       	callq  46f3 <transparent_crc>
    8f9d:	0f b7 05 b0 20 00 00 	movzwl 0x20b0(%rip),%eax        # b054 <g_59>
    8fa4:	48 0f bf c0          	movswq %ax,%rax
    8fa8:	8b 55 fc             	mov    -0x4(%rbp),%edx
    8fab:	48 8d 35 fb 2b 00 00 	lea    0x2bfb(%rip),%rsi        # bbad <g_1991+0xb2d>
    8fb2:	48 89 c7             	mov    %rax,%rdi
    8fb5:	e8 39 b7 ff ff       	callq  46f3 <transparent_crc>
    8fba:	0f b7 05 7f 60 00 00 	movzwl 0x607f(%rip),%eax        # f040 <g_66>
    8fc1:	48 0f bf c0          	movswq %ax,%rax
    8fc5:	8b 55 fc             	mov    -0x4(%rbp),%edx
    8fc8:	48 8d 35 e6 2b 00 00 	lea    0x2be6(%rip),%rsi        # bbb5 <g_1991+0xb35>
    8fcf:	48 89 c7             	mov    %rax,%rdi
    8fd2:	e8 1c b7 ff ff       	callq  46f3 <transparent_crc>
    8fd7:	0f b7 05 62 60 00 00 	movzwl 0x6062(%rip),%eax        # f040 <g_66>
    8fde:	48 0f bf c0          	movswq %ax,%rax
    8fe2:	8b 55 fc             	mov    -0x4(%rbp),%edx
    8fe5:	48 8d 35 d1 2b 00 00 	lea    0x2bd1(%rip),%rsi        # bbbd <g_1991+0xb3d>
    8fec:	48 89 c7             	mov    %rax,%rdi
    8fef:	e8 ff b6 ff ff       	callq  46f3 <transparent_crc>
    8ff4:	0f b7 05 45 60 00 00 	movzwl 0x6045(%rip),%eax        # f040 <g_66>
    8ffb:	48 0f bf c0          	movswq %ax,%rax
    8fff:	8b 55 fc             	mov    -0x4(%rbp),%edx
    9002:	48 8d 35 bc 2b 00 00 	lea    0x2bbc(%rip),%rsi        # bbc5 <g_1991+0xb45>
    9009:	48 89 c7             	mov    %rax,%rdi
    900c:	e8 e2 b6 ff ff       	callq  46f3 <transparent_crc>
    9011:	8b 05 2d 60 00 00    	mov    0x602d(%rip),%eax        # f044 <g_107>
    9017:	48 98                	cltq   
    9019:	8b 55 fc             	mov    -0x4(%rbp),%edx
    901c:	48 8d 35 aa 2b 00 00 	lea    0x2baa(%rip),%rsi        # bbcd <g_1991+0xb4d>
    9023:	48 89 c7             	mov    %rax,%rdi
    9026:	e8 c8 b6 ff ff       	callq  46f3 <transparent_crc>
    902b:	8b 05 13 60 00 00    	mov    0x6013(%rip),%eax        # f044 <g_107>
    9031:	48 98                	cltq   
    9033:	8b 55 fc             	mov    -0x4(%rbp),%edx
    9036:	48 8d 35 99 2b 00 00 	lea    0x2b99(%rip),%rsi        # bbd6 <g_1991+0xb56>
    903d:	48 89 c7             	mov    %rax,%rdi
    9040:	e8 ae b6 ff ff       	callq  46f3 <transparent_crc>
    9045:	0f b6 05 f8 5f 00 00 	movzbl 0x5ff8(%rip),%eax        # f044 <g_107>
    904c:	0f b6 c0             	movzbl %al,%eax
    904f:	8b 55 fc             	mov    -0x4(%rbp),%edx
    9052:	48 8d 35 86 2b 00 00 	lea    0x2b86(%rip),%rsi        # bbdf <g_1991+0xb5f>
    9059:	48 89 c7             	mov    %rax,%rdi
    905c:	e8 92 b6 ff ff       	callq  46f3 <transparent_crc>
    9061:	8b 05 dd 5f 00 00    	mov    0x5fdd(%rip),%eax        # f044 <g_107>
    9067:	48 98                	cltq   
    9069:	8b 55 fc             	mov    -0x4(%rbp),%edx
    906c:	48 8d 35 75 2b 00 00 	lea    0x2b75(%rip),%rsi        # bbe8 <g_1991+0xb68>
    9073:	48 89 c7             	mov    %rax,%rdi
    9076:	e8 78 b6 ff ff       	callq  46f3 <transparent_crc>
    907b:	0f b7 05 c2 5f 00 00 	movzwl 0x5fc2(%rip),%eax        # f044 <g_107>
    9082:	0f b7 c0             	movzwl %ax,%eax
    9085:	8b 55 fc             	mov    -0x4(%rbp),%edx
    9088:	48 8d 35 62 2b 00 00 	lea    0x2b62(%rip),%rsi        # bbf1 <g_1991+0xb71>
    908f:	48 89 c7             	mov    %rax,%rdi
    9092:	e8 5c b6 ff ff       	callq  46f3 <transparent_crc>
    9097:	0f b6 05 aa 5f 00 00 	movzbl 0x5faa(%rip),%eax        # f048 <g_110>
    909e:	48 0f be c0          	movsbq %al,%rax
    90a2:	8b 55 fc             	mov    -0x4(%rbp),%edx
    90a5:	48 8d 35 4e 2b 00 00 	lea    0x2b4e(%rip),%rsi        # bbfa <g_1991+0xb7a>
    90ac:	48 89 c7             	mov    %rax,%rdi
    90af:	e8 3f b6 ff ff       	callq  46f3 <transparent_crc>
    90b4:	0f b6 05 8e 5f 00 00 	movzbl 0x5f8e(%rip),%eax        # f049 <g_114>
    90bb:	48 0f be c0          	movsbq %al,%rax
    90bf:	8b 55 fc             	mov    -0x4(%rbp),%edx
    90c2:	48 8d 35 37 2b 00 00 	lea    0x2b37(%rip),%rsi        # bc00 <g_1991+0xb80>
    90c9:	48 89 c7             	mov    %rax,%rdi
    90cc:	e8 22 b6 ff ff       	callq  46f3 <transparent_crc>
    90d1:	0f b7 05 72 5f 00 00 	movzwl 0x5f72(%rip),%eax        # f04a <g_136>
    90d8:	48 0f bf c0          	movswq %ax,%rax
    90dc:	8b 55 fc             	mov    -0x4(%rbp),%edx
    90df:	48 8d 35 20 2b 00 00 	lea    0x2b20(%rip),%rsi        # bc06 <g_1991+0xb86>
    90e6:	48 89 c7             	mov    %rax,%rdi
    90e9:	e8 05 b6 ff ff       	callq  46f3 <transparent_crc>
    90ee:	0f b7 05 55 5f 00 00 	movzwl 0x5f55(%rip),%eax        # f04a <g_136>
    90f5:	48 0f bf c0          	movswq %ax,%rax
    90f9:	8b 55 fc             	mov    -0x4(%rbp),%edx
    90fc:	48 8d 35 0c 2b 00 00 	lea    0x2b0c(%rip),%rsi        # bc0f <g_1991+0xb8f>
    9103:	48 89 c7             	mov    %rax,%rdi
    9106:	e8 e8 b5 ff ff       	callq  46f3 <transparent_crc>
    910b:	0f b7 05 38 5f 00 00 	movzwl 0x5f38(%rip),%eax        # f04a <g_136>
    9112:	48 0f bf c0          	movswq %ax,%rax
    9116:	8b 55 fc             	mov    -0x4(%rbp),%edx
    9119:	48 8d 35 f8 2a 00 00 	lea    0x2af8(%rip),%rsi        # bc18 <g_1991+0xb98>
    9120:	48 89 c7             	mov    %rax,%rdi
    9123:	e8 cb b5 ff ff       	callq  46f3 <transparent_crc>
    9128:	0f b7 05 1d 5f 00 00 	movzwl 0x5f1d(%rip),%eax        # f04c <g_137>
    912f:	48 0f bf c0          	movswq %ax,%rax
    9133:	8b 55 fc             	mov    -0x4(%rbp),%edx
    9136:	48 8d 35 e4 2a 00 00 	lea    0x2ae4(%rip),%rsi        # bc21 <g_1991+0xba1>
    913d:	48 89 c7             	mov    %rax,%rdi
    9140:	e8 ae b5 ff ff       	callq  46f3 <transparent_crc>
    9145:	0f b7 05 00 5f 00 00 	movzwl 0x5f00(%rip),%eax        # f04c <g_137>
    914c:	48 0f bf c0          	movswq %ax,%rax
    9150:	8b 55 fc             	mov    -0x4(%rbp),%edx
    9153:	48 8d 35 d0 2a 00 00 	lea    0x2ad0(%rip),%rsi        # bc2a <g_1991+0xbaa>
    915a:	48 89 c7             	mov    %rax,%rdi
    915d:	e8 91 b5 ff ff       	callq  46f3 <transparent_crc>
    9162:	0f b7 05 e3 5e 00 00 	movzwl 0x5ee3(%rip),%eax        # f04c <g_137>
    9169:	48 0f bf c0          	movswq %ax,%rax
    916d:	8b 55 fc             	mov    -0x4(%rbp),%edx
    9170:	48 8d 35 bc 2a 00 00 	lea    0x2abc(%rip),%rsi        # bc33 <g_1991+0xbb3>
    9177:	48 89 c7             	mov    %rax,%rdi
    917a:	e8 74 b5 ff ff       	callq  46f3 <transparent_crc>
    917f:	c7 45 f0 00 00 00 00 	movl   $0x0,-0x10(%rbp)
    9186:	e9 9e 00 00 00       	jmpq   9229 <main+0x469>
    918b:	8b 45 f0             	mov    -0x10(%rbp),%eax
    918e:	48 98                	cltq   
    9190:	48 8d 14 00          	lea    (%rax,%rax,1),%rdx
    9194:	48 8d 05 b3 5e 00 00 	lea    0x5eb3(%rip),%rax        # f04e <g_141>
    919b:	0f b7 04 02          	movzwl (%rdx,%rax,1),%eax
    919f:	48 0f bf c0          	movswq %ax,%rax
    91a3:	8b 55 fc             	mov    -0x4(%rbp),%edx
    91a6:	48 8d 35 8f 2a 00 00 	lea    0x2a8f(%rip),%rsi        # bc3c <g_1991+0xbbc>
    91ad:	48 89 c7             	mov    %rax,%rdi
    91b0:	e8 3e b5 ff ff       	callq  46f3 <transparent_crc>
    91b5:	8b 45 f0             	mov    -0x10(%rbp),%eax
    91b8:	48 98                	cltq   
    91ba:	48 8d 14 00          	lea    (%rax,%rax,1),%rdx
    91be:	48 8d 05 89 5e 00 00 	lea    0x5e89(%rip),%rax        # f04e <g_141>
    91c5:	0f b7 04 02          	movzwl (%rdx,%rax,1),%eax
    91c9:	48 0f bf c0          	movswq %ax,%rax
    91cd:	8b 55 fc             	mov    -0x4(%rbp),%edx
    91d0:	48 8d 35 71 2a 00 00 	lea    0x2a71(%rip),%rsi        # bc48 <g_1991+0xbc8>
    91d7:	48 89 c7             	mov    %rax,%rdi
    91da:	e8 14 b5 ff ff       	callq  46f3 <transparent_crc>
    91df:	8b 45 f0             	mov    -0x10(%rbp),%eax
    91e2:	48 98                	cltq   
    91e4:	48 8d 14 00          	lea    (%rax,%rax,1),%rdx
    91e8:	48 8d 05 5f 5e 00 00 	lea    0x5e5f(%rip),%rax        # f04e <g_141>
    91ef:	0f b7 04 02          	movzwl (%rdx,%rax,1),%eax
    91f3:	48 0f bf c0          	movswq %ax,%rax
    91f7:	8b 55 fc             	mov    -0x4(%rbp),%edx
    91fa:	48 8d 35 53 2a 00 00 	lea    0x2a53(%rip),%rsi        # bc54 <g_1991+0xbd4>
    9201:	48 89 c7             	mov    %rax,%rdi
    9204:	e8 ea b4 ff ff       	callq  46f3 <transparent_crc>
    9209:	83 7d fc 00          	cmpl   $0x0,-0x4(%rbp)
    920d:	74 16                	je     9225 <main+0x465>
    920f:	8b 45 f0             	mov    -0x10(%rbp),%eax
    9212:	89 c6                	mov    %eax,%esi
    9214:	48 8d 3d 45 2a 00 00 	lea    0x2a45(%rip),%rdi        # bc60 <g_1991+0xbe0>
    921b:	b8 00 00 00 00       	mov    $0x0,%eax
    9220:	e8 5b 9e ff ff       	callq  3080 <printf@plt>
    9225:	83 45 f0 01          	addl   $0x1,-0x10(%rbp)
    9229:	83 7d f0 00          	cmpl   $0x0,-0x10(%rbp)
    922d:	0f 8e 58 ff ff ff    	jle    918b <main+0x3cb>
    9233:	c7 45 f0 00 00 00 00 	movl   $0x0,-0x10(%rbp)
    923a:	e9 9e 00 00 00       	jmpq   92dd <main+0x51d>
    923f:	8b 45 f0             	mov    -0x10(%rbp),%eax
    9242:	48 98                	cltq   
    9244:	48 8d 14 00          	lea    (%rax,%rax,1),%rdx
    9248:	48 8d 05 01 5e 00 00 	lea    0x5e01(%rip),%rax        # f050 <g_143>
    924f:	0f b7 04 02          	movzwl (%rdx,%rax,1),%eax
    9253:	48 0f bf c0          	movswq %ax,%rax
    9257:	8b 55 fc             	mov    -0x4(%rbp),%edx
    925a:	48 8d 35 0d 2a 00 00 	lea    0x2a0d(%rip),%rsi        # bc6e <g_1991+0xbee>
    9261:	48 89 c7             	mov    %rax,%rdi
    9264:	e8 8a b4 ff ff       	callq  46f3 <transparent_crc>
    9269:	8b 45 f0             	mov    -0x10(%rbp),%eax
    926c:	48 98                	cltq   
    926e:	48 8d 14 00          	lea    (%rax,%rax,1),%rdx
    9272:	48 8d 05 d7 5d 00 00 	lea    0x5dd7(%rip),%rax        # f050 <g_143>
    9279:	0f b7 04 02          	movzwl (%rdx,%rax,1),%eax
    927d:	48 0f bf c0          	movswq %ax,%rax
    9281:	8b 55 fc             	mov    -0x4(%rbp),%edx
    9284:	48 8d 35 ef 29 00 00 	lea    0x29ef(%rip),%rsi        # bc7a <g_1991+0xbfa>
    928b:	48 89 c7             	mov    %rax,%rdi
    928e:	e8 60 b4 ff ff       	callq  46f3 <transparent_crc>
    9293:	8b 45 f0             	mov    -0x10(%rbp),%eax
    9296:	48 98                	cltq   
    9298:	48 8d 14 00          	lea    (%rax,%rax,1),%rdx
    929c:	48 8d 05 ad 5d 00 00 	lea    0x5dad(%rip),%rax        # f050 <g_143>
    92a3:	0f b7 04 02          	movzwl (%rdx,%rax,1),%eax
    92a7:	48 0f bf c0          	movswq %ax,%rax
    92ab:	8b 55 fc             	mov    -0x4(%rbp),%edx
    92ae:	48 8d 35 d1 29 00 00 	lea    0x29d1(%rip),%rsi        # bc86 <g_1991+0xc06>
    92b5:	48 89 c7             	mov    %rax,%rdi
    92b8:	e8 36 b4 ff ff       	callq  46f3 <transparent_crc>
    92bd:	83 7d fc 00          	cmpl   $0x0,-0x4(%rbp)
    92c1:	74 16                	je     92d9 <main+0x519>
    92c3:	8b 45 f0             	mov    -0x10(%rbp),%eax
    92c6:	89 c6                	mov    %eax,%esi
    92c8:	48 8d 3d 91 29 00 00 	lea    0x2991(%rip),%rdi        # bc60 <g_1991+0xbe0>
    92cf:	b8 00 00 00 00       	mov    $0x0,%eax
    92d4:	e8 a7 9d ff ff       	callq  3080 <printf@plt>
    92d9:	83 45 f0 01          	addl   $0x1,-0x10(%rbp)
    92dd:	83 7d f0 08          	cmpl   $0x8,-0x10(%rbp)
    92e1:	0f 8e 58 ff ff ff    	jle    923f <main+0x47f>
    92e7:	0f b6 05 76 5d 00 00 	movzbl 0x5d76(%rip),%eax        # f064 <g_181>
    92ee:	48 0f be c0          	movsbq %al,%rax
    92f2:	8b 55 fc             	mov    -0x4(%rbp),%edx
    92f5:	48 8d 35 96 29 00 00 	lea    0x2996(%rip),%rsi        # bc92 <g_1991+0xc12>
    92fc:	48 89 c7             	mov    %rax,%rdi
    92ff:	e8 ef b3 ff ff       	callq  46f3 <transparent_crc>
    9304:	0f b6 05 5d 5d 00 00 	movzbl 0x5d5d(%rip),%eax        # f068 <g_182>
    930b:	48 0f be c0          	movsbq %al,%rax
    930f:	8b 55 fc             	mov    -0x4(%rbp),%edx
    9312:	48 8d 35 82 29 00 00 	lea    0x2982(%rip),%rsi        # bc9b <g_1991+0xc1b>
    9319:	48 89 c7             	mov    %rax,%rdi
    931c:	e8 d2 b3 ff ff       	callq  46f3 <transparent_crc>
    9321:	0f b7 05 44 5d 00 00 	movzwl 0x5d44(%rip),%eax        # f06c <g_186>
    9328:	48 0f bf c0          	movswq %ax,%rax
    932c:	8b 55 fc             	mov    -0x4(%rbp),%edx
    932f:	48 8d 35 6e 29 00 00 	lea    0x296e(%rip),%rsi        # bca4 <g_1991+0xc24>
    9336:	48 89 c7             	mov    %rax,%rdi
    9339:	e8 b5 b3 ff ff       	callq  46f3 <transparent_crc>
    933e:	c7 45 f0 00 00 00 00 	movl   $0x0,-0x10(%rbp)
    9345:	e9 a2 00 00 00       	jmpq   93ec <main+0x62c>
    934a:	c7 45 f4 00 00 00 00 	movl   $0x0,-0xc(%rbp)
    9351:	e9 88 00 00 00       	jmpq   93de <main+0x61e>
    9356:	c7 45 f8 00 00 00 00 	movl   $0x0,-0x8(%rbp)
    935d:	eb 75                	jmp    93d4 <main+0x614>
    935f:	8b 45 f8             	mov    -0x8(%rbp),%eax
    9362:	48 63 f0             	movslq %eax,%rsi
    9365:	8b 45 f0             	mov    -0x10(%rbp),%eax
    9368:	48 98                	cltq   
    936a:	8b 55 f4             	mov    -0xc(%rbp),%edx
    936d:	48 63 ca             	movslq %edx,%rcx
    9370:	48 89 c2             	mov    %rax,%rdx
    9373:	48 c1 e2 03          	shl    $0x3,%rdx
    9377:	48 01 c2             	add    %rax,%rdx
    937a:	48 89 c8             	mov    %rcx,%rax
    937d:	48 01 c0             	add    %rax,%rax
    9380:	48 01 c8             	add    %rcx,%rax
    9383:	48 01 d0             	add    %rdx,%rax
    9386:	48 01 f0             	add    %rsi,%rax
    9389:	48 8d 14 c5 00 00 00 	lea    0x0(,%rax,8),%rdx
    9390:	00 
    9391:	48 8d 05 e8 5c 00 00 	lea    0x5ce8(%rip),%rax        # f080 <g_188>
    9398:	48 8b 04 02          	mov    (%rdx,%rax,1),%rax
    939c:	8b 55 fc             	mov    -0x4(%rbp),%edx
    939f:	48 8d 35 04 29 00 00 	lea    0x2904(%rip),%rsi        # bcaa <g_1991+0xc2a>
    93a6:	48 89 c7             	mov    %rax,%rdi
    93a9:	e8 45 b3 ff ff       	callq  46f3 <transparent_crc>
    93ae:	83 7d fc 00          	cmpl   $0x0,-0x4(%rbp)
    93b2:	74 1c                	je     93d0 <main+0x610>
    93b4:	8b 4d f8             	mov    -0x8(%rbp),%ecx
    93b7:	8b 55 f4             	mov    -0xc(%rbp),%edx
    93ba:	8b 45 f0             	mov    -0x10(%rbp),%eax
    93bd:	89 c6                	mov    %eax,%esi
    93bf:	48 8d 3d f3 28 00 00 	lea    0x28f3(%rip),%rdi        # bcb9 <g_1991+0xc39>
    93c6:	b8 00 00 00 00       	mov    $0x0,%eax
    93cb:	e8 b0 9c ff ff       	callq  3080 <printf@plt>
    93d0:	83 45 f8 01          	addl   $0x1,-0x8(%rbp)
    93d4:	83 7d f8 02          	cmpl   $0x2,-0x8(%rbp)
    93d8:	7e 85                	jle    935f <main+0x59f>
    93da:	83 45 f4 01          	addl   $0x1,-0xc(%rbp)
    93de:	83 7d f4 02          	cmpl   $0x2,-0xc(%rbp)
    93e2:	0f 8e 6e ff ff ff    	jle    9356 <main+0x596>
    93e8:	83 45 f0 01          	addl   $0x1,-0x10(%rbp)
    93ec:	83 7d f0 09          	cmpl   $0x9,-0x10(%rbp)
    93f0:	0f 8e 54 ff ff ff    	jle    934a <main+0x58a>
    93f6:	c7 45 f0 00 00 00 00 	movl   $0x0,-0x10(%rbp)
    93fd:	eb 49                	jmp    9448 <main+0x688>
    93ff:	8b 45 f0             	mov    -0x10(%rbp),%eax
    9402:	48 98                	cltq   
    9404:	48 8d 14 00          	lea    (%rax,%rax,1),%rdx
    9408:	48 8d 05 41 5f 00 00 	lea    0x5f41(%rip),%rax        # f350 <g_204>
    940f:	0f b7 04 02          	movzwl (%rdx,%rax,1),%eax
    9413:	0f b7 c0             	movzwl %ax,%eax
    9416:	8b 55 fc             	mov    -0x4(%rbp),%edx
    9419:	48 8d 35 af 28 00 00 	lea    0x28af(%rip),%rsi        # bccf <g_1991+0xc4f>
    9420:	48 89 c7             	mov    %rax,%rdi
    9423:	e8 cb b2 ff ff       	callq  46f3 <transparent_crc>
    9428:	83 7d fc 00          	cmpl   $0x0,-0x4(%rbp)
    942c:	74 16                	je     9444 <main+0x684>
    942e:	8b 45 f0             	mov    -0x10(%rbp),%eax
    9431:	89 c6                	mov    %eax,%esi
    9433:	48 8d 3d 26 28 00 00 	lea    0x2826(%rip),%rdi        # bc60 <g_1991+0xbe0>
    943a:	b8 00 00 00 00       	mov    $0x0,%eax
    943f:	e8 3c 9c ff ff       	callq  3080 <printf@plt>
    9444:	83 45 f0 01          	addl   $0x1,-0x10(%rbp)
    9448:	83 7d f0 09          	cmpl   $0x9,-0x10(%rbp)
    944c:	7e b1                	jle    93ff <main+0x63f>
    944e:	c7 45 f0 00 00 00 00 	movl   $0x0,-0x10(%rbp)
    9455:	eb 6d                	jmp    94c4 <main+0x704>
    9457:	c7 45 f4 00 00 00 00 	movl   $0x0,-0xc(%rbp)
    945e:	eb 5a                	jmp    94ba <main+0x6fa>
    9460:	8b 45 f4             	mov    -0xc(%rbp),%eax
    9463:	48 98                	cltq   
    9465:	8b 55 f0             	mov    -0x10(%rbp),%edx
    9468:	48 63 d2             	movslq %edx,%rdx
    946b:	48 01 d2             	add    %rdx,%rdx
    946e:	48 01 d0             	add    %rdx,%rax
    9471:	48 8d 14 85 00 00 00 	lea    0x0(,%rax,4),%rdx
    9478:	00 
    9479:	48 8d 05 00 5f 00 00 	lea    0x5f00(%rip),%rax        # f380 <g_205>
    9480:	8b 04 02             	mov    (%rdx,%rax,1),%eax
    9483:	48 98                	cltq   
    9485:	8b 55 fc             	mov    -0x4(%rbp),%edx
    9488:	48 8d 35 49 28 00 00 	lea    0x2849(%rip),%rsi        # bcd8 <g_1991+0xc58>
    948f:	48 89 c7             	mov    %rax,%rdi
    9492:	e8 5c b2 ff ff       	callq  46f3 <transparent_crc>
    9497:	83 7d fc 00          	cmpl   $0x0,-0x4(%rbp)
    949b:	74 19                	je     94b6 <main+0x6f6>
    949d:	8b 55 f4             	mov    -0xc(%rbp),%edx
    94a0:	8b 45 f0             	mov    -0x10(%rbp),%eax
    94a3:	89 c6                	mov    %eax,%esi
    94a5:	48 8d 3d 38 28 00 00 	lea    0x2838(%rip),%rdi        # bce4 <g_1991+0xc64>
    94ac:	b8 00 00 00 00       	mov    $0x0,%eax
    94b1:	e8 ca 9b ff ff       	callq  3080 <printf@plt>
    94b6:	83 45 f4 01          	addl   $0x1,-0xc(%rbp)
    94ba:	83 7d f4 01          	cmpl   $0x1,-0xc(%rbp)
    94be:	7e a0                	jle    9460 <main+0x6a0>
    94c0:	83 45 f0 01          	addl   $0x1,-0x10(%rbp)
    94c4:	83 7d f0 04          	cmpl   $0x4,-0x10(%rbp)
    94c8:	7e 8d                	jle    9457 <main+0x697>
    94ca:	8b 05 d8 5e 00 00    	mov    0x5ed8(%rip),%eax        # f3a8 <g_207>
    94d0:	89 c1                	mov    %eax,%ecx
    94d2:	8b 45 fc             	mov    -0x4(%rbp),%eax
    94d5:	89 c2                	mov    %eax,%edx
    94d7:	48 8d 35 18 28 00 00 	lea    0x2818(%rip),%rsi        # bcf6 <g_1991+0xc76>
    94de:	48 89 cf             	mov    %rcx,%rdi
    94e1:	e8 0d b2 ff ff       	callq  46f3 <transparent_crc>
    94e6:	8b 05 c0 5e 00 00    	mov    0x5ec0(%rip),%eax        # f3ac <g_209>
    94ec:	89 c1                	mov    %eax,%ecx
    94ee:	8b 45 fc             	mov    -0x4(%rbp),%eax
    94f1:	89 c2                	mov    %eax,%edx
    94f3:	48 8d 35 02 28 00 00 	lea    0x2802(%rip),%rsi        # bcfc <g_1991+0xc7c>
    94fa:	48 89 cf             	mov    %rcx,%rdi
    94fd:	e8 f1 b1 ff ff       	callq  46f3 <transparent_crc>
    9502:	48 8b 05 a7 5e 00 00 	mov    0x5ea7(%rip),%rax        # f3b0 <g_210>
    9509:	48 89 c1             	mov    %rax,%rcx
    950c:	8b 45 fc             	mov    -0x4(%rbp),%eax
    950f:	89 c2                	mov    %eax,%edx
    9511:	48 8d 35 ea 27 00 00 	lea    0x27ea(%rip),%rsi        # bd02 <g_1991+0xc82>
    9518:	48 89 cf             	mov    %rcx,%rdi
    951b:	e8 d3 b1 ff ff       	callq  46f3 <transparent_crc>
    9520:	8b 05 92 5e 00 00    	mov    0x5e92(%rip),%eax        # f3b8 <g_315>
    9526:	89 c1                	mov    %eax,%ecx
    9528:	8b 45 fc             	mov    -0x4(%rbp),%eax
    952b:	89 c2                	mov    %eax,%edx
    952d:	48 8d 35 d4 27 00 00 	lea    0x27d4(%rip),%rsi        # bd08 <g_1991+0xc88>
    9534:	48 89 cf             	mov    %rcx,%rdi
    9537:	e8 b7 b1 ff ff       	callq  46f3 <transparent_crc>
    953c:	8b 05 7a 5e 00 00    	mov    0x5e7a(%rip),%eax        # f3bc <g_356>
    9542:	48 98                	cltq   
    9544:	8b 55 fc             	mov    -0x4(%rbp),%edx
    9547:	48 8d 35 c0 27 00 00 	lea    0x27c0(%rip),%rsi        # bd0e <g_1991+0xc8e>
    954e:	48 89 c7             	mov    %rax,%rdi
    9551:	e8 9d b1 ff ff       	callq  46f3 <transparent_crc>
    9556:	0f b6 05 63 5e 00 00 	movzbl 0x5e63(%rip),%eax        # f3c0 <g_365>
    955d:	48 0f be c0          	movsbq %al,%rax
    9561:	8b 55 fc             	mov    -0x4(%rbp),%edx
    9564:	48 8d 35 a9 27 00 00 	lea    0x27a9(%rip),%rsi        # bd14 <g_1991+0xc94>
    956b:	48 89 c7             	mov    %rax,%rdi
    956e:	e8 80 b1 ff ff       	callq  46f3 <transparent_crc>
    9573:	0f b6 05 4a 5e 00 00 	movzbl 0x5e4a(%rip),%eax        # f3c4 <g_413>
    957a:	48 0f be c0          	movsbq %al,%rax
    957e:	8b 55 fc             	mov    -0x4(%rbp),%edx
    9581:	48 8d 35 95 27 00 00 	lea    0x2795(%rip),%rsi        # bd1d <g_1991+0xc9d>
    9588:	48 89 c7             	mov    %rax,%rdi
    958b:	e8 63 b1 ff ff       	callq  46f3 <transparent_crc>
    9590:	0f b6 05 31 5e 00 00 	movzbl 0x5e31(%rip),%eax        # f3c8 <g_460>
    9597:	48 0f be c0          	movsbq %al,%rax
    959b:	8b 55 fc             	mov    -0x4(%rbp),%edx
    959e:	48 8d 35 81 27 00 00 	lea    0x2781(%rip),%rsi        # bd26 <g_1991+0xca6>
    95a5:	48 89 c7             	mov    %rax,%rdi
    95a8:	e8 46 b1 ff ff       	callq  46f3 <transparent_crc>
    95ad:	48 8b 05 1c 5e 00 00 	mov    0x5e1c(%rip),%rax        # f3d0 <g_488>
    95b4:	48 89 c1             	mov    %rax,%rcx
    95b7:	8b 45 fc             	mov    -0x4(%rbp),%eax
    95ba:	89 c2                	mov    %eax,%edx
    95bc:	48 8d 35 6c 27 00 00 	lea    0x276c(%rip),%rsi        # bd2f <g_1991+0xcaf>
    95c3:	48 89 cf             	mov    %rcx,%rdi
    95c6:	e8 28 b1 ff ff       	callq  46f3 <transparent_crc>
    95cb:	8b 05 07 5e 00 00    	mov    0x5e07(%rip),%eax        # f3d8 <g_513>
    95d1:	48 98                	cltq   
    95d3:	8b 55 fc             	mov    -0x4(%rbp),%edx
    95d6:	48 8d 35 58 27 00 00 	lea    0x2758(%rip),%rsi        # bd35 <g_1991+0xcb5>
    95dd:	48 89 c7             	mov    %rax,%rdi
    95e0:	e8 0e b1 ff ff       	callq  46f3 <transparent_crc>
    95e5:	8b 05 ed 5d 00 00    	mov    0x5ded(%rip),%eax        # f3d8 <g_513>
    95eb:	48 98                	cltq   
    95ed:	8b 55 fc             	mov    -0x4(%rbp),%edx
    95f0:	48 8d 35 47 27 00 00 	lea    0x2747(%rip),%rsi        # bd3e <g_1991+0xcbe>
    95f7:	48 89 c7             	mov    %rax,%rdi
    95fa:	e8 f4 b0 ff ff       	callq  46f3 <transparent_crc>
    95ff:	0f b6 05 d2 5d 00 00 	movzbl 0x5dd2(%rip),%eax        # f3d8 <g_513>
    9606:	0f b6 c0             	movzbl %al,%eax
    9609:	8b 55 fc             	mov    -0x4(%rbp),%edx
    960c:	48 8d 35 34 27 00 00 	lea    0x2734(%rip),%rsi        # bd47 <g_1991+0xcc7>
    9613:	48 89 c7             	mov    %rax,%rdi
    9616:	e8 d8 b0 ff ff       	callq  46f3 <transparent_crc>
    961b:	8b 05 b7 5d 00 00    	mov    0x5db7(%rip),%eax        # f3d8 <g_513>
    9621:	48 98                	cltq   
    9623:	8b 55 fc             	mov    -0x4(%rbp),%edx
    9626:	48 8d 35 23 27 00 00 	lea    0x2723(%rip),%rsi        # bd50 <g_1991+0xcd0>
    962d:	48 89 c7             	mov    %rax,%rdi
    9630:	e8 be b0 ff ff       	callq  46f3 <transparent_crc>
    9635:	0f b7 05 9c 5d 00 00 	movzwl 0x5d9c(%rip),%eax        # f3d8 <g_513>
    963c:	0f b7 c0             	movzwl %ax,%eax
    963f:	8b 55 fc             	mov    -0x4(%rbp),%edx
    9642:	48 8d 35 10 27 00 00 	lea    0x2710(%rip),%rsi        # bd59 <g_1991+0xcd9>
    9649:	48 89 c7             	mov    %rax,%rdi
    964c:	e8 a2 b0 ff ff       	callq  46f3 <transparent_crc>
    9651:	c7 45 f0 00 00 00 00 	movl   $0x0,-0x10(%rbp)
    9658:	e9 8a 00 00 00       	jmpq   96e7 <main+0x927>
    965d:	c7 45 f4 00 00 00 00 	movl   $0x0,-0xc(%rbp)
    9664:	eb 77                	jmp    96dd <main+0x91d>
    9666:	c7 45 f8 00 00 00 00 	movl   $0x0,-0x8(%rbp)
    966d:	eb 64                	jmp    96d3 <main+0x913>
    966f:	8b 45 f8             	mov    -0x8(%rbp),%eax
    9672:	48 63 d0             	movslq %eax,%rdx
    9675:	8b 45 f4             	mov    -0xc(%rbp),%eax
    9678:	48 98                	cltq   
    967a:	8b 4d f0             	mov    -0x10(%rbp),%ecx
    967d:	48 63 c9             	movslq %ecx,%rcx
    9680:	48 01 c9             	add    %rcx,%rcx
    9683:	48 01 ca             	add    %rcx,%rdx
    9686:	48 01 d0             	add    %rdx,%rax
    9689:	48 8d 14 00          	lea    (%rax,%rax,1),%rdx
    968d:	48 8d 05 4c 5d 00 00 	lea    0x5d4c(%rip),%rax        # f3e0 <g_548>
    9694:	0f b7 04 02          	movzwl (%rdx,%rax,1),%eax
    9698:	0f b7 c0             	movzwl %ax,%eax
    969b:	8b 55 fc             	mov    -0x4(%rbp),%edx
    969e:	48 8d 35 bd 26 00 00 	lea    0x26bd(%rip),%rsi        # bd62 <g_1991+0xce2>
    96a5:	48 89 c7             	mov    %rax,%rdi
    96a8:	e8 46 b0 ff ff       	callq  46f3 <transparent_crc>
    96ad:	83 7d fc 00          	cmpl   $0x0,-0x4(%rbp)
    96b1:	74 1c                	je     96cf <main+0x90f>
    96b3:	8b 4d f8             	mov    -0x8(%rbp),%ecx
    96b6:	8b 55 f4             	mov    -0xc(%rbp),%edx
    96b9:	8b 45 f0             	mov    -0x10(%rbp),%eax
    96bc:	89 c6                	mov    %eax,%esi
    96be:	48 8d 3d f4 25 00 00 	lea    0x25f4(%rip),%rdi        # bcb9 <g_1991+0xc39>
    96c5:	b8 00 00 00 00       	mov    $0x0,%eax
    96ca:	e8 b1 99 ff ff       	callq  3080 <printf@plt>
    96cf:	83 45 f8 01          	addl   $0x1,-0x8(%rbp)
    96d3:	83 7d f8 00          	cmpl   $0x0,-0x8(%rbp)
    96d7:	7e 96                	jle    966f <main+0x8af>
    96d9:	83 45 f4 01          	addl   $0x1,-0xc(%rbp)
    96dd:	83 7d f4 01          	cmpl   $0x1,-0xc(%rbp)
    96e1:	7e 83                	jle    9666 <main+0x8a6>
    96e3:	83 45 f0 01          	addl   $0x1,-0x10(%rbp)
    96e7:	83 7d f0 06          	cmpl   $0x6,-0x10(%rbp)
    96eb:	0f 8e 6c ff ff ff    	jle    965d <main+0x89d>
    96f1:	0f b6 05 40 73 00 00 	movzbl 0x7340(%rip),%eax        # 10a38 <g_549>
    96f8:	0f b6 c0             	movzbl %al,%eax
    96fb:	8b 55 fc             	mov    -0x4(%rbp),%edx
    96fe:	48 8d 35 6c 26 00 00 	lea    0x266c(%rip),%rsi        # bd71 <g_1991+0xcf1>
    9705:	48 89 c7             	mov    %rax,%rdi
    9708:	e8 e6 af ff ff       	callq  46f3 <transparent_crc>
    970d:	48 8b 05 2c 73 00 00 	mov    0x732c(%rip),%rax        # 10a40 <g_588>
    9714:	8b 55 fc             	mov    -0x4(%rbp),%edx
    9717:	48 8d 35 59 26 00 00 	lea    0x2659(%rip),%rsi        # bd77 <g_1991+0xcf7>
    971e:	48 89 c7             	mov    %rax,%rdi
    9721:	e8 cd af ff ff       	callq  46f3 <transparent_crc>
    9726:	0f b7 05 cf 5c 00 00 	movzwl 0x5ccf(%rip),%eax        # f3fc <g_633>
    972d:	48 0f bf c0          	movswq %ax,%rax
    9731:	8b 55 fc             	mov    -0x4(%rbp),%edx
    9734:	48 8d 35 42 26 00 00 	lea    0x2642(%rip),%rsi        # bd7d <g_1991+0xcfd>
    973b:	48 89 c7             	mov    %rax,%rdi
    973e:	e8 b0 af ff ff       	callq  46f3 <transparent_crc>
    9743:	0f b7 05 b2 5c 00 00 	movzwl 0x5cb2(%rip),%eax        # f3fc <g_633>
    974a:	48 0f bf c0          	movswq %ax,%rax
    974e:	8b 55 fc             	mov    -0x4(%rbp),%edx
    9751:	48 8d 35 2e 26 00 00 	lea    0x262e(%rip),%rsi        # bd86 <g_1991+0xd06>
    9758:	48 89 c7             	mov    %rax,%rdi
    975b:	e8 93 af ff ff       	callq  46f3 <transparent_crc>
    9760:	0f b7 05 95 5c 00 00 	movzwl 0x5c95(%rip),%eax        # f3fc <g_633>
    9767:	48 0f bf c0          	movswq %ax,%rax
    976b:	8b 55 fc             	mov    -0x4(%rbp),%edx
    976e:	48 8d 35 1a 26 00 00 	lea    0x261a(%rip),%rsi        # bd8f <g_1991+0xd0f>
    9775:	48 89 c7             	mov    %rax,%rdi
    9778:	e8 76 af ff ff       	callq  46f3 <transparent_crc>
    977d:	0f b7 05 7a 5c 00 00 	movzwl 0x5c7a(%rip),%eax        # f3fe <g_661>
    9784:	48 0f bf c0          	movswq %ax,%rax
    9788:	8b 55 fc             	mov    -0x4(%rbp),%edx
    978b:	48 8d 35 06 26 00 00 	lea    0x2606(%rip),%rsi        # bd98 <g_1991+0xd18>
    9792:	48 89 c7             	mov    %rax,%rdi
    9795:	e8 59 af ff ff       	callq  46f3 <transparent_crc>
    979a:	0f b7 05 5d 5c 00 00 	movzwl 0x5c5d(%rip),%eax        # f3fe <g_661>
    97a1:	48 0f bf c0          	movswq %ax,%rax
    97a5:	8b 55 fc             	mov    -0x4(%rbp),%edx
    97a8:	48 8d 35 f2 25 00 00 	lea    0x25f2(%rip),%rsi        # bda1 <g_1991+0xd21>
    97af:	48 89 c7             	mov    %rax,%rdi
    97b2:	e8 3c af ff ff       	callq  46f3 <transparent_crc>
    97b7:	0f b7 05 40 5c 00 00 	movzwl 0x5c40(%rip),%eax        # f3fe <g_661>
    97be:	48 0f bf c0          	movswq %ax,%rax
    97c2:	8b 55 fc             	mov    -0x4(%rbp),%edx
    97c5:	48 8d 35 de 25 00 00 	lea    0x25de(%rip),%rsi        # bdaa <g_1991+0xd2a>
    97cc:	48 89 c7             	mov    %rax,%rdi
    97cf:	e8 1f af ff ff       	callq  46f3 <transparent_crc>
    97d4:	0f b6 05 25 5c 00 00 	movzbl 0x5c25(%rip),%eax        # f400 <g_806>
    97db:	48 0f be c0          	movsbq %al,%rax
    97df:	8b 55 fc             	mov    -0x4(%rbp),%edx
    97e2:	48 8d 35 ca 25 00 00 	lea    0x25ca(%rip),%rsi        # bdb3 <g_1991+0xd33>
    97e9:	48 89 c7             	mov    %rax,%rdi
    97ec:	e8 02 af ff ff       	callq  46f3 <transparent_crc>
    97f1:	8b 05 0d 5c 00 00    	mov    0x5c0d(%rip),%eax        # f404 <g_835>
    97f7:	48 98                	cltq   
    97f9:	8b 55 fc             	mov    -0x4(%rbp),%edx
    97fc:	48 8d 35 b9 25 00 00 	lea    0x25b9(%rip),%rsi        # bdbc <g_1991+0xd3c>
    9803:	48 89 c7             	mov    %rax,%rdi
    9806:	e8 e8 ae ff ff       	callq  46f3 <transparent_crc>
    980b:	8b 05 f3 5b 00 00    	mov    0x5bf3(%rip),%eax        # f404 <g_835>
    9811:	48 98                	cltq   
    9813:	8b 55 fc             	mov    -0x4(%rbp),%edx
    9816:	48 8d 35 a8 25 00 00 	lea    0x25a8(%rip),%rsi        # bdc5 <g_1991+0xd45>
    981d:	48 89 c7             	mov    %rax,%rdi
    9820:	e8 ce ae ff ff       	callq  46f3 <transparent_crc>
    9825:	0f b6 05 d8 5b 00 00 	movzbl 0x5bd8(%rip),%eax        # f404 <g_835>
    982c:	0f b6 c0             	movzbl %al,%eax
    982f:	8b 55 fc             	mov    -0x4(%rbp),%edx
    9832:	48 8d 35 95 25 00 00 	lea    0x2595(%rip),%rsi        # bdce <g_1991+0xd4e>
    9839:	48 89 c7             	mov    %rax,%rdi
    983c:	e8 b2 ae ff ff       	callq  46f3 <transparent_crc>
    9841:	8b 05 bd 5b 00 00    	mov    0x5bbd(%rip),%eax        # f404 <g_835>
    9847:	48 98                	cltq   
    9849:	8b 55 fc             	mov    -0x4(%rbp),%edx
    984c:	48 8d 35 84 25 00 00 	lea    0x2584(%rip),%rsi        # bdd7 <g_1991+0xd57>
    9853:	48 89 c7             	mov    %rax,%rdi
    9856:	e8 98 ae ff ff       	callq  46f3 <transparent_crc>
    985b:	0f b7 05 a2 5b 00 00 	movzwl 0x5ba2(%rip),%eax        # f404 <g_835>
    9862:	0f b7 c0             	movzwl %ax,%eax
    9865:	8b 55 fc             	mov    -0x4(%rbp),%edx
    9868:	48 8d 35 71 25 00 00 	lea    0x2571(%rip),%rsi        # bde0 <g_1991+0xd60>
    986f:	48 89 c7             	mov    %rax,%rdi
    9872:	e8 7c ae ff ff       	callq  46f3 <transparent_crc>
    9877:	0f b6 05 8a 5b 00 00 	movzbl 0x5b8a(%rip),%eax        # f408 <g_910>
    987e:	48 0f be c0          	movsbq %al,%rax
    9882:	8b 55 fc             	mov    -0x4(%rbp),%edx
    9885:	48 8d 35 5d 25 00 00 	lea    0x255d(%rip),%rsi        # bde9 <g_1991+0xd69>
    988c:	48 89 c7             	mov    %rax,%rdi
    988f:	e8 5f ae ff ff       	callq  46f3 <transparent_crc>
    9894:	8b 05 72 5b 00 00    	mov    0x5b72(%rip),%eax        # f40c <g_952>
    989a:	48 98                	cltq   
    989c:	8b 55 fc             	mov    -0x4(%rbp),%edx
    989f:	48 8d 35 4c 25 00 00 	lea    0x254c(%rip),%rsi        # bdf2 <g_1991+0xd72>
    98a6:	48 89 c7             	mov    %rax,%rdi
    98a9:	e8 45 ae ff ff       	callq  46f3 <transparent_crc>
    98ae:	8b 05 58 5b 00 00    	mov    0x5b58(%rip),%eax        # f40c <g_952>
    98b4:	48 98                	cltq   
    98b6:	8b 55 fc             	mov    -0x4(%rbp),%edx
    98b9:	48 8d 35 3b 25 00 00 	lea    0x253b(%rip),%rsi        # bdfb <g_1991+0xd7b>
    98c0:	48 89 c7             	mov    %rax,%rdi
    98c3:	e8 2b ae ff ff       	callq  46f3 <transparent_crc>
    98c8:	0f b6 05 3d 5b 00 00 	movzbl 0x5b3d(%rip),%eax        # f40c <g_952>
    98cf:	0f b6 c0             	movzbl %al,%eax
    98d2:	8b 55 fc             	mov    -0x4(%rbp),%edx
    98d5:	48 8d 35 28 25 00 00 	lea    0x2528(%rip),%rsi        # be04 <g_1991+0xd84>
    98dc:	48 89 c7             	mov    %rax,%rdi
    98df:	e8 0f ae ff ff       	callq  46f3 <transparent_crc>
    98e4:	8b 05 22 5b 00 00    	mov    0x5b22(%rip),%eax        # f40c <g_952>
    98ea:	48 98                	cltq   
    98ec:	8b 55 fc             	mov    -0x4(%rbp),%edx
    98ef:	48 8d 35 17 25 00 00 	lea    0x2517(%rip),%rsi        # be0d <g_1991+0xd8d>
    98f6:	48 89 c7             	mov    %rax,%rdi
    98f9:	e8 f5 ad ff ff       	callq  46f3 <transparent_crc>
    98fe:	0f b7 05 07 5b 00 00 	movzwl 0x5b07(%rip),%eax        # f40c <g_952>
    9905:	0f b7 c0             	movzwl %ax,%eax
    9908:	8b 55 fc             	mov    -0x4(%rbp),%edx
    990b:	48 8d 35 04 25 00 00 	lea    0x2504(%rip),%rsi        # be16 <g_1991+0xd96>
    9912:	48 89 c7             	mov    %rax,%rdi
    9915:	e8 d9 ad ff ff       	callq  46f3 <transparent_crc>
    991a:	0f b6 05 37 17 00 00 	movzbl 0x1737(%rip),%eax        # b058 <g_972>
    9921:	48 0f be c0          	movsbq %al,%rax
    9925:	8b 55 fc             	mov    -0x4(%rbp),%edx
    9928:	48 8d 35 f0 24 00 00 	lea    0x24f0(%rip),%rsi        # be1f <g_1991+0xd9f>
    992f:	48 89 c7             	mov    %rax,%rdi
    9932:	e8 bc ad ff ff       	callq  46f3 <transparent_crc>
    9937:	0f b7 05 2a 71 00 00 	movzwl 0x712a(%rip),%eax        # 10a68 <g_1029>
    993e:	0f b7 c0             	movzwl %ax,%eax
    9941:	8b 55 fc             	mov    -0x4(%rbp),%edx
    9944:	48 8d 35 dd 24 00 00 	lea    0x24dd(%rip),%rsi        # be28 <g_1991+0xda8>
    994b:	48 89 c7             	mov    %rax,%rdi
    994e:	e8 a0 ad ff ff       	callq  46f3 <transparent_crc>
    9953:	c7 45 f0 00 00 00 00 	movl   $0x0,-0x10(%rbp)
    995a:	eb 4e                	jmp    99aa <main+0xbea>
    995c:	8b 45 f0             	mov    -0x10(%rbp),%eax
    995f:	48 98                	cltq   
    9961:	48 8d 14 85 00 00 00 	lea    0x0(,%rax,4),%rdx
    9968:	00 
    9969:	48 8d 05 00 71 00 00 	lea    0x7100(%rip),%rax        # 10a70 <g_1060>
    9970:	0f b6 04 02          	movzbl (%rdx,%rax,1),%eax
    9974:	48 0f be c0          	movsbq %al,%rax
    9978:	8b 55 fc             	mov    -0x4(%rbp),%edx
    997b:	48 8d 35 ad 24 00 00 	lea    0x24ad(%rip),%rsi        # be2f <g_1991+0xdaf>
    9982:	48 89 c7             	mov    %rax,%rdi
    9985:	e8 69 ad ff ff       	callq  46f3 <transparent_crc>
    998a:	83 7d fc 00          	cmpl   $0x0,-0x4(%rbp)
    998e:	74 16                	je     99a6 <main+0xbe6>
    9990:	8b 45 f0             	mov    -0x10(%rbp),%eax
    9993:	89 c6                	mov    %eax,%esi
    9995:	48 8d 3d c4 22 00 00 	lea    0x22c4(%rip),%rdi        # bc60 <g_1991+0xbe0>
    999c:	b8 00 00 00 00       	mov    $0x0,%eax
    99a1:	e8 da 96 ff ff       	callq  3080 <printf@plt>
    99a6:	83 45 f0 01          	addl   $0x1,-0x10(%rbp)
    99aa:	83 7d f0 01          	cmpl   $0x1,-0x10(%rbp)
    99ae:	7e ac                	jle    995c <main+0xb9c>
    99b0:	0f b6 05 59 5a 00 00 	movzbl 0x5a59(%rip),%eax        # f410 <g_1073>
    99b7:	48 0f be c0          	movsbq %al,%rax
    99bb:	8b 55 fc             	mov    -0x4(%rbp),%edx
    99be:	48 8d 35 77 24 00 00 	lea    0x2477(%rip),%rsi        # be3c <g_1991+0xdbc>
    99c5:	48 89 c7             	mov    %rax,%rdi
    99c8:	e8 26 ad ff ff       	callq  46f3 <transparent_crc>
    99cd:	c7 45 f0 00 00 00 00 	movl   $0x0,-0x10(%rbp)
    99d4:	e9 59 01 00 00       	jmpq   9b32 <main+0xd72>
    99d9:	c7 45 f4 00 00 00 00 	movl   $0x0,-0xc(%rbp)
    99e0:	e9 3f 01 00 00       	jmpq   9b24 <main+0xd64>
    99e5:	8b 45 f4             	mov    -0xc(%rbp),%eax
    99e8:	48 98                	cltq   
    99ea:	8b 55 f0             	mov    -0x10(%rbp),%edx
    99ed:	48 63 d2             	movslq %edx,%rdx
    99f0:	48 c1 e2 02          	shl    $0x2,%rdx
    99f4:	48 01 d0             	add    %rdx,%rax
    99f7:	48 8d 14 85 00 00 00 	lea    0x0(,%rax,4),%rdx
    99fe:	00 
    99ff:	48 8d 05 1a 5a 00 00 	lea    0x5a1a(%rip),%rax        # f420 <g_1166>
    9a06:	8b 04 02             	mov    (%rdx,%rax,1),%eax
    9a09:	48 98                	cltq   
    9a0b:	8b 55 fc             	mov    -0x4(%rbp),%edx
    9a0e:	48 8d 35 31 24 00 00 	lea    0x2431(%rip),%rsi        # be46 <g_1991+0xdc6>
    9a15:	48 89 c7             	mov    %rax,%rdi
    9a18:	e8 d6 ac ff ff       	callq  46f3 <transparent_crc>
    9a1d:	8b 45 f4             	mov    -0xc(%rbp),%eax
    9a20:	48 98                	cltq   
    9a22:	8b 55 f0             	mov    -0x10(%rbp),%edx
    9a25:	48 63 d2             	movslq %edx,%rdx
    9a28:	48 c1 e2 02          	shl    $0x2,%rdx
    9a2c:	48 01 d0             	add    %rdx,%rax
    9a2f:	48 8d 14 85 00 00 00 	lea    0x0(,%rax,4),%rdx
    9a36:	00 
    9a37:	48 8d 05 e2 59 00 00 	lea    0x59e2(%rip),%rax        # f420 <g_1166>
    9a3e:	8b 04 02             	mov    (%rdx,%rax,1),%eax
    9a41:	48 98                	cltq   
    9a43:	8b 55 fc             	mov    -0x4(%rbp),%edx
    9a46:	48 8d 35 09 24 00 00 	lea    0x2409(%rip),%rsi        # be56 <g_1991+0xdd6>
    9a4d:	48 89 c7             	mov    %rax,%rdi
    9a50:	e8 9e ac ff ff       	callq  46f3 <transparent_crc>
    9a55:	8b 45 f4             	mov    -0xc(%rbp),%eax
    9a58:	48 98                	cltq   
    9a5a:	8b 55 f0             	mov    -0x10(%rbp),%edx
    9a5d:	48 63 d2             	movslq %edx,%rdx
    9a60:	48 c1 e2 02          	shl    $0x2,%rdx
    9a64:	48 01 d0             	add    %rdx,%rax
    9a67:	48 8d 14 85 00 00 00 	lea    0x0(,%rax,4),%rdx
    9a6e:	00 
    9a6f:	48 8d 05 aa 59 00 00 	lea    0x59aa(%rip),%rax        # f420 <g_1166>
    9a76:	0f b6 04 02          	movzbl (%rdx,%rax,1),%eax
    9a7a:	0f b6 c0             	movzbl %al,%eax
    9a7d:	8b 55 fc             	mov    -0x4(%rbp),%edx
    9a80:	48 8d 35 df 23 00 00 	lea    0x23df(%rip),%rsi        # be66 <g_1991+0xde6>
    9a87:	48 89 c7             	mov    %rax,%rdi
    9a8a:	e8 64 ac ff ff       	callq  46f3 <transparent_crc>
    9a8f:	8b 45 f4             	mov    -0xc(%rbp),%eax
    9a92:	48 98                	cltq   
    9a94:	8b 55 f0             	mov    -0x10(%rbp),%edx
    9a97:	48 63 d2             	movslq %edx,%rdx
    9a9a:	48 c1 e2 02          	shl    $0x2,%rdx
    9a9e:	48 01 d0             	add    %rdx,%rax
    9aa1:	48 8d 14 85 00 00 00 	lea    0x0(,%rax,4),%rdx
    9aa8:	00 
    9aa9:	48 8d 05 70 59 00 00 	lea    0x5970(%rip),%rax        # f420 <g_1166>
    9ab0:	8b 04 02             	mov    (%rdx,%rax,1),%eax
    9ab3:	48 98                	cltq   
    9ab5:	8b 55 fc             	mov    -0x4(%rbp),%edx
    9ab8:	48 8d 35 b7 23 00 00 	lea    0x23b7(%rip),%rsi        # be76 <g_1991+0xdf6>
    9abf:	48 89 c7             	mov    %rax,%rdi
    9ac2:	e8 2c ac ff ff       	callq  46f3 <transparent_crc>
    9ac7:	8b 45 f4             	mov    -0xc(%rbp),%eax
    9aca:	48 98                	cltq   
    9acc:	8b 55 f0             	mov    -0x10(%rbp),%edx
    9acf:	48 63 d2             	movslq %edx,%rdx
    9ad2:	48 c1 e2 02          	shl    $0x2,%rdx
    9ad6:	48 01 d0             	add    %rdx,%rax
    9ad9:	48 8d 14 85 00 00 00 	lea    0x0(,%rax,4),%rdx
    9ae0:	00 
    9ae1:	48 8d 05 38 59 00 00 	lea    0x5938(%rip),%rax        # f420 <g_1166>
    9ae8:	0f b7 04 02          	movzwl (%rdx,%rax,1),%eax
    9aec:	0f b7 c0             	movzwl %ax,%eax
    9aef:	8b 55 fc             	mov    -0x4(%rbp),%edx
    9af2:	48 8d 35 8d 23 00 00 	lea    0x238d(%rip),%rsi        # be86 <g_1991+0xe06>
    9af9:	48 89 c7             	mov    %rax,%rdi
    9afc:	e8 f2 ab ff ff       	callq  46f3 <transparent_crc>
    9b01:	83 7d fc 00          	cmpl   $0x0,-0x4(%rbp)
    9b05:	74 19                	je     9b20 <main+0xd60>
    9b07:	8b 55 f4             	mov    -0xc(%rbp),%edx
    9b0a:	8b 45 f0             	mov    -0x10(%rbp),%eax
    9b0d:	89 c6                	mov    %eax,%esi
    9b0f:	48 8d 3d ce 21 00 00 	lea    0x21ce(%rip),%rdi        # bce4 <g_1991+0xc64>
    9b16:	b8 00 00 00 00       	mov    $0x0,%eax
    9b1b:	e8 60 95 ff ff       	callq  3080 <printf@plt>
    9b20:	83 45 f4 01          	addl   $0x1,-0xc(%rbp)
    9b24:	83 7d f4 03          	cmpl   $0x3,-0xc(%rbp)
    9b28:	0f 8e b7 fe ff ff    	jle    99e5 <main+0xc25>
    9b2e:	83 45 f0 01          	addl   $0x1,-0x10(%rbp)
    9b32:	83 7d f0 04          	cmpl   $0x4,-0x10(%rbp)
    9b36:	0f 8e 9d fe ff ff    	jle    99d9 <main+0xc19>
    9b3c:	0f b7 05 35 6f 00 00 	movzwl 0x6f35(%rip),%eax        # 10a78 <g_1258>
    9b43:	48 0f bf c0          	movswq %ax,%rax
    9b47:	8b 55 fc             	mov    -0x4(%rbp),%edx
    9b4a:	48 8d 35 45 23 00 00 	lea    0x2345(%rip),%rsi        # be96 <g_1991+0xe16>
    9b51:	48 89 c7             	mov    %rax,%rdi
    9b54:	e8 9a ab ff ff       	callq  46f3 <transparent_crc>
    9b59:	0f b7 05 10 59 00 00 	movzwl 0x5910(%rip),%eax        # f470 <g_1277>
    9b60:	48 0f bf c0          	movswq %ax,%rax
    9b64:	8b 55 fc             	mov    -0x4(%rbp),%edx
    9b67:	48 8d 35 2f 23 00 00 	lea    0x232f(%rip),%rsi        # be9d <g_1991+0xe1d>
    9b6e:	48 89 c7             	mov    %rax,%rdi
    9b71:	e8 7d ab ff ff       	callq  46f3 <transparent_crc>
    9b76:	0f b7 05 f3 58 00 00 	movzwl 0x58f3(%rip),%eax        # f470 <g_1277>
    9b7d:	48 0f bf c0          	movswq %ax,%rax
    9b81:	8b 55 fc             	mov    -0x4(%rbp),%edx
    9b84:	48 8d 35 1c 23 00 00 	lea    0x231c(%rip),%rsi        # bea7 <g_1991+0xe27>
    9b8b:	48 89 c7             	mov    %rax,%rdi
    9b8e:	e8 60 ab ff ff       	callq  46f3 <transparent_crc>
    9b93:	0f b7 05 d6 58 00 00 	movzwl 0x58d6(%rip),%eax        # f470 <g_1277>
    9b9a:	48 0f bf c0          	movswq %ax,%rax
    9b9e:	8b 55 fc             	mov    -0x4(%rbp),%edx
    9ba1:	48 8d 35 09 23 00 00 	lea    0x2309(%rip),%rsi        # beb1 <g_1991+0xe31>
    9ba8:	48 89 c7             	mov    %rax,%rdi
    9bab:	e8 43 ab ff ff       	callq  46f3 <transparent_crc>
    9bb0:	0f b6 05 c5 6e 00 00 	movzbl 0x6ec5(%rip),%eax        # 10a7c <g_1291>
    9bb7:	48 0f be c0          	movsbq %al,%rax
    9bbb:	8b 55 fc             	mov    -0x4(%rbp),%edx
    9bbe:	48 8d 35 f6 22 00 00 	lea    0x22f6(%rip),%rsi        # bebb <g_1991+0xe3b>
    9bc5:	48 89 c7             	mov    %rax,%rdi
    9bc8:	e8 26 ab ff ff       	callq  46f3 <transparent_crc>
    9bcd:	c7 45 f0 00 00 00 00 	movl   $0x0,-0x10(%rbp)
    9bd4:	eb 4a                	jmp    9c20 <main+0xe60>
    9bd6:	8b 45 f0             	mov    -0x10(%rbp),%eax
    9bd9:	48 98                	cltq   
    9bdb:	48 8d 14 00          	lea    (%rax,%rax,1),%rdx
    9bdf:	48 8d 05 9a 58 00 00 	lea    0x589a(%rip),%rax        # f480 <g_1327>
    9be6:	0f b7 04 02          	movzwl (%rdx,%rax,1),%eax
    9bea:	48 0f bf c0          	movswq %ax,%rax
    9bee:	8b 55 fc             	mov    -0x4(%rbp),%edx
    9bf1:	48 8d 35 cd 22 00 00 	lea    0x22cd(%rip),%rsi        # bec5 <g_1991+0xe45>
    9bf8:	48 89 c7             	mov    %rax,%rdi
    9bfb:	e8 f3 aa ff ff       	callq  46f3 <transparent_crc>
    9c00:	83 7d fc 00          	cmpl   $0x0,-0x4(%rbp)
    9c04:	74 16                	je     9c1c <main+0xe5c>
    9c06:	8b 45 f0             	mov    -0x10(%rbp),%eax
    9c09:	89 c6                	mov    %eax,%esi
    9c0b:	48 8d 3d 4e 20 00 00 	lea    0x204e(%rip),%rdi        # bc60 <g_1991+0xbe0>
    9c12:	b8 00 00 00 00       	mov    $0x0,%eax
    9c17:	e8 64 94 ff ff       	callq  3080 <printf@plt>
    9c1c:	83 45 f0 01          	addl   $0x1,-0x10(%rbp)
    9c20:	83 7d f0 09          	cmpl   $0x9,-0x10(%rbp)
    9c24:	7e b0                	jle    9bd6 <main+0xe16>
    9c26:	c7 45 f0 00 00 00 00 	movl   $0x0,-0x10(%rbp)
    9c2d:	eb 4b                	jmp    9c7a <main+0xeba>
    9c2f:	8b 45 f0             	mov    -0x10(%rbp),%eax
    9c32:	48 98                	cltq   
    9c34:	48 8d 14 85 00 00 00 	lea    0x0(,%rax,4),%rdx
    9c3b:	00 
    9c3c:	48 8d 05 5d 58 00 00 	lea    0x585d(%rip),%rax        # f4a0 <g_1352>
    9c43:	8b 04 02             	mov    (%rdx,%rax,1),%eax
    9c46:	48 98                	cltq   
    9c48:	8b 55 fc             	mov    -0x4(%rbp),%edx
    9c4b:	48 8d 35 7d 22 00 00 	lea    0x227d(%rip),%rsi        # becf <g_1991+0xe4f>
    9c52:	48 89 c7             	mov    %rax,%rdi
    9c55:	e8 99 aa ff ff       	callq  46f3 <transparent_crc>
    9c5a:	83 7d fc 00          	cmpl   $0x0,-0x4(%rbp)
    9c5e:	74 16                	je     9c76 <main+0xeb6>
    9c60:	8b 45 f0             	mov    -0x10(%rbp),%eax
    9c63:	89 c6                	mov    %eax,%esi
    9c65:	48 8d 3d f4 1f 00 00 	lea    0x1ff4(%rip),%rdi        # bc60 <g_1991+0xbe0>
    9c6c:	b8 00 00 00 00       	mov    $0x0,%eax
    9c71:	e8 0a 94 ff ff       	callq  3080 <printf@plt>
    9c76:	83 45 f0 01          	addl   $0x1,-0x10(%rbp)
    9c7a:	83 7d f0 05          	cmpl   $0x5,-0x10(%rbp)
    9c7e:	7e af                	jle    9c2f <main+0xe6f>
    9c80:	8b 05 32 58 00 00    	mov    0x5832(%rip),%eax        # f4b8 <g_1435>
    9c86:	89 c1                	mov    %eax,%ecx
    9c88:	8b 45 fc             	mov    -0x4(%rbp),%eax
    9c8b:	89 c2                	mov    %eax,%edx
    9c8d:	48 8d 35 45 22 00 00 	lea    0x2245(%rip),%rsi        # bed9 <g_1991+0xe59>
    9c94:	48 89 cf             	mov    %rcx,%rdi
    9c97:	e8 57 aa ff ff       	callq  46f3 <transparent_crc>
    9c9c:	0f b7 05 e5 6d 00 00 	movzwl 0x6de5(%rip),%eax        # 10a88 <g_1482>
    9ca3:	0f b7 c0             	movzwl %ax,%eax
    9ca6:	8b 55 fc             	mov    -0x4(%rbp),%edx
    9ca9:	48 8d 35 30 22 00 00 	lea    0x2230(%rip),%rsi        # bee0 <g_1991+0xe60>
    9cb0:	48 89 c7             	mov    %rax,%rdi
    9cb3:	e8 3b aa ff ff       	callq  46f3 <transparent_crc>
    9cb8:	0f b7 05 fd 57 00 00 	movzwl 0x57fd(%rip),%eax        # f4bc <g_1538>
    9cbf:	48 0f bf c0          	movswq %ax,%rax
    9cc3:	8b 55 fc             	mov    -0x4(%rbp),%edx
    9cc6:	48 8d 35 1a 22 00 00 	lea    0x221a(%rip),%rsi        # bee7 <g_1991+0xe67>
    9ccd:	48 89 c7             	mov    %rax,%rdi
    9cd0:	e8 1e aa ff ff       	callq  46f3 <transparent_crc>
    9cd5:	0f b7 05 e0 57 00 00 	movzwl 0x57e0(%rip),%eax        # f4bc <g_1538>
    9cdc:	48 0f bf c0          	movswq %ax,%rax
    9ce0:	8b 55 fc             	mov    -0x4(%rbp),%edx
    9ce3:	48 8d 35 07 22 00 00 	lea    0x2207(%rip),%rsi        # bef1 <g_1991+0xe71>
    9cea:	48 89 c7             	mov    %rax,%rdi
    9ced:	e8 01 aa ff ff       	callq  46f3 <transparent_crc>
    9cf2:	0f b7 05 c3 57 00 00 	movzwl 0x57c3(%rip),%eax        # f4bc <g_1538>
    9cf9:	48 0f bf c0          	movswq %ax,%rax
    9cfd:	8b 55 fc             	mov    -0x4(%rbp),%edx
    9d00:	48 8d 35 f4 21 00 00 	lea    0x21f4(%rip),%rsi        # befb <g_1991+0xe7b>
    9d07:	48 89 c7             	mov    %rax,%rdi
    9d0a:	e8 e4 a9 ff ff       	callq  46f3 <transparent_crc>
    9d0f:	0f b6 05 aa 57 00 00 	movzbl 0x57aa(%rip),%eax        # f4c0 <g_1566>
    9d16:	48 0f be c0          	movsbq %al,%rax
    9d1a:	8b 55 fc             	mov    -0x4(%rbp),%edx
    9d1d:	48 8d 35 e1 21 00 00 	lea    0x21e1(%rip),%rsi        # bf05 <g_1991+0xe85>
    9d24:	48 89 c7             	mov    %rax,%rdi
    9d27:	e8 c7 a9 ff ff       	callq  46f3 <transparent_crc>
    9d2c:	0f b6 05 91 57 00 00 	movzbl 0x5791(%rip),%eax        # f4c4 <g_1590>
    9d33:	48 0f be c0          	movsbq %al,%rax
    9d37:	8b 55 fc             	mov    -0x4(%rbp),%edx
    9d3a:	48 8d 35 ce 21 00 00 	lea    0x21ce(%rip),%rsi        # bf0f <g_1991+0xe8f>
    9d41:	48 89 c7             	mov    %rax,%rdi
    9d44:	e8 aa a9 ff ff       	callq  46f3 <transparent_crc>
    9d49:	0f b6 05 0c 13 00 00 	movzbl 0x130c(%rip),%eax        # b05c <g_1631>
    9d50:	48 0f be c0          	movsbq %al,%rax
    9d54:	8b 55 fc             	mov    -0x4(%rbp),%edx
    9d57:	48 8d 35 bb 21 00 00 	lea    0x21bb(%rip),%rsi        # bf19 <g_1991+0xe99>
    9d5e:	48 89 c7             	mov    %rax,%rdi
    9d61:	e8 8d a9 ff ff       	callq  46f3 <transparent_crc>
    9d66:	b8 93 37 00 00       	mov    $0x3793,%eax
    9d6b:	48 0f bf c0          	movswq %ax,%rax
    9d6f:	8b 55 fc             	mov    -0x4(%rbp),%edx
    9d72:	48 8d 35 aa 21 00 00 	lea    0x21aa(%rip),%rsi        # bf23 <g_1991+0xea3>
    9d79:	48 89 c7             	mov    %rax,%rdi
    9d7c:	e8 72 a9 ff ff       	callq  46f3 <transparent_crc>
    9d81:	0f b7 05 d8 12 00 00 	movzwl 0x12d8(%rip),%eax        # b060 <g_1677>
    9d88:	48 0f bf c0          	movswq %ax,%rax
    9d8c:	8b 55 fc             	mov    -0x4(%rbp),%edx
    9d8f:	48 8d 35 97 21 00 00 	lea    0x2197(%rip),%rsi        # bf2d <g_1991+0xead>
    9d96:	48 89 c7             	mov    %rax,%rdi
    9d99:	e8 55 a9 ff ff       	callq  46f3 <transparent_crc>
    9d9e:	0f b7 05 bb 12 00 00 	movzwl 0x12bb(%rip),%eax        # b060 <g_1677>
    9da5:	48 0f bf c0          	movswq %ax,%rax
    9da9:	8b 55 fc             	mov    -0x4(%rbp),%edx
    9dac:	48 8d 35 84 21 00 00 	lea    0x2184(%rip),%rsi        # bf37 <g_1991+0xeb7>
    9db3:	48 89 c7             	mov    %rax,%rdi
    9db6:	e8 38 a9 ff ff       	callq  46f3 <transparent_crc>
    9dbb:	8b 05 07 57 00 00    	mov    0x5707(%rip),%eax        # f4c8 <g_1773>
    9dc1:	48 98                	cltq   
    9dc3:	8b 55 fc             	mov    -0x4(%rbp),%edx
    9dc6:	48 8d 35 74 21 00 00 	lea    0x2174(%rip),%rsi        # bf41 <g_1991+0xec1>
    9dcd:	48 89 c7             	mov    %rax,%rdi
    9dd0:	e8 1e a9 ff ff       	callq  46f3 <transparent_crc>
    9dd5:	0f b6 05 88 12 00 00 	movzbl 0x1288(%rip),%eax        # b064 <g_1774>
    9ddc:	48 0f be c0          	movsbq %al,%rax
    9de0:	8b 55 fc             	mov    -0x4(%rbp),%edx
    9de3:	48 8d 35 5e 21 00 00 	lea    0x215e(%rip),%rsi        # bf48 <g_1991+0xec8>
    9dea:	48 89 c7             	mov    %rax,%rdi
    9ded:	e8 01 a9 ff ff       	callq  46f3 <transparent_crc>
    9df2:	8b 05 d4 56 00 00    	mov    0x56d4(%rip),%eax        # f4cc <g_1793>
    9df8:	48 98                	cltq   
    9dfa:	8b 55 fc             	mov    -0x4(%rbp),%edx
    9dfd:	48 8d 35 4e 21 00 00 	lea    0x214e(%rip),%rsi        # bf52 <g_1991+0xed2>
    9e04:	48 89 c7             	mov    %rax,%rdi
    9e07:	e8 e7 a8 ff ff       	callq  46f3 <transparent_crc>
    9e0c:	8b 05 ba 56 00 00    	mov    0x56ba(%rip),%eax        # f4cc <g_1793>
    9e12:	48 98                	cltq   
    9e14:	8b 55 fc             	mov    -0x4(%rbp),%edx
    9e17:	48 8d 35 3e 21 00 00 	lea    0x213e(%rip),%rsi        # bf5c <g_1991+0xedc>
    9e1e:	48 89 c7             	mov    %rax,%rdi
    9e21:	e8 cd a8 ff ff       	callq  46f3 <transparent_crc>
    9e26:	0f b6 05 9f 56 00 00 	movzbl 0x569f(%rip),%eax        # f4cc <g_1793>
    9e2d:	0f b6 c0             	movzbl %al,%eax
    9e30:	8b 55 fc             	mov    -0x4(%rbp),%edx
    9e33:	48 8d 35 2c 21 00 00 	lea    0x212c(%rip),%rsi        # bf66 <g_1991+0xee6>
    9e3a:	48 89 c7             	mov    %rax,%rdi
    9e3d:	e8 b1 a8 ff ff       	callq  46f3 <transparent_crc>
    9e42:	8b 05 84 56 00 00    	mov    0x5684(%rip),%eax        # f4cc <g_1793>
    9e48:	48 98                	cltq   
    9e4a:	8b 55 fc             	mov    -0x4(%rbp),%edx
    9e4d:	48 8d 35 1c 21 00 00 	lea    0x211c(%rip),%rsi        # bf70 <g_1991+0xef0>
    9e54:	48 89 c7             	mov    %rax,%rdi
    9e57:	e8 97 a8 ff ff       	callq  46f3 <transparent_crc>
    9e5c:	0f b7 05 69 56 00 00 	movzwl 0x5669(%rip),%eax        # f4cc <g_1793>
    9e63:	0f b7 c0             	movzwl %ax,%eax
    9e66:	8b 55 fc             	mov    -0x4(%rbp),%edx
    9e69:	48 8d 35 0a 21 00 00 	lea    0x210a(%rip),%rsi        # bf7a <g_1991+0xefa>
    9e70:	48 89 c7             	mov    %rax,%rdi
    9e73:	e8 7b a8 ff ff       	callq  46f3 <transparent_crc>
    9e78:	c7 45 f0 00 00 00 00 	movl   $0x0,-0x10(%rbp)
    9e7f:	e9 f4 00 00 00       	jmpq   9f78 <main+0x11b8>
    9e84:	c7 45 f4 00 00 00 00 	movl   $0x0,-0xc(%rbp)
    9e8b:	e9 da 00 00 00       	jmpq   9f6a <main+0x11aa>
    9e90:	8b 45 f4             	mov    -0xc(%rbp),%eax
    9e93:	48 63 c8             	movslq %eax,%rcx
    9e96:	8b 45 f0             	mov    -0x10(%rbp),%eax
    9e99:	48 63 d0             	movslq %eax,%rdx
    9e9c:	48 89 d0             	mov    %rdx,%rax
    9e9f:	48 01 c0             	add    %rax,%rax
    9ea2:	48 01 d0             	add    %rdx,%rax
    9ea5:	48 01 c8             	add    %rcx,%rax
    9ea8:	48 8d 14 00          	lea    (%rax,%rax,1),%rdx
    9eac:	48 8d 05 2d 56 00 00 	lea    0x562d(%rip),%rax        # f4e0 <g_1919>
    9eb3:	0f b7 04 02          	movzwl (%rdx,%rax,1),%eax
    9eb7:	48 0f bf c0          	movswq %ax,%rax
    9ebb:	8b 55 fc             	mov    -0x4(%rbp),%edx
    9ebe:	48 8d 35 bf 20 00 00 	lea    0x20bf(%rip),%rsi        # bf84 <g_1991+0xf04>
    9ec5:	48 89 c7             	mov    %rax,%rdi
    9ec8:	e8 26 a8 ff ff       	callq  46f3 <transparent_crc>
    9ecd:	8b 45 f4             	mov    -0xc(%rbp),%eax
    9ed0:	48 63 c8             	movslq %eax,%rcx
    9ed3:	8b 45 f0             	mov    -0x10(%rbp),%eax
    9ed6:	48 63 d0             	movslq %eax,%rdx
    9ed9:	48 89 d0             	mov    %rdx,%rax
    9edc:	48 01 c0             	add    %rax,%rax
    9edf:	48 01 d0             	add    %rdx,%rax
    9ee2:	48 01 c8             	add    %rcx,%rax
    9ee5:	48 8d 14 00          	lea    (%rax,%rax,1),%rdx
    9ee9:	48 8d 05 f0 55 00 00 	lea    0x55f0(%rip),%rax        # f4e0 <g_1919>
    9ef0:	0f b7 04 02          	movzwl (%rdx,%rax,1),%eax
    9ef4:	48 0f bf c0          	movswq %ax,%rax
    9ef8:	8b 55 fc             	mov    -0x4(%rbp),%edx
    9efb:	48 8d 35 92 20 00 00 	lea    0x2092(%rip),%rsi        # bf94 <g_1991+0xf14>
    9f02:	48 89 c7             	mov    %rax,%rdi
    9f05:	e8 e9 a7 ff ff       	callq  46f3 <transparent_crc>
    9f0a:	8b 45 f4             	mov    -0xc(%rbp),%eax
    9f0d:	48 63 c8             	movslq %eax,%rcx
    9f10:	8b 45 f0             	mov    -0x10(%rbp),%eax
    9f13:	48 63 d0             	movslq %eax,%rdx
    9f16:	48 89 d0             	mov    %rdx,%rax
    9f19:	48 01 c0             	add    %rax,%rax
    9f1c:	48 01 d0             	add    %rdx,%rax
    9f1f:	48 01 c8             	add    %rcx,%rax
    9f22:	48 8d 14 00          	lea    (%rax,%rax,1),%rdx
    9f26:	48 8d 05 b3 55 00 00 	lea    0x55b3(%rip),%rax        # f4e0 <g_1919>
    9f2d:	0f b7 04 02          	movzwl (%rdx,%rax,1),%eax
    9f31:	48 0f bf c0          	movswq %ax,%rax
    9f35:	8b 55 fc             	mov    -0x4(%rbp),%edx
    9f38:	48 8d 35 65 20 00 00 	lea    0x2065(%rip),%rsi        # bfa4 <g_1991+0xf24>
    9f3f:	48 89 c7             	mov    %rax,%rdi
    9f42:	e8 ac a7 ff ff       	callq  46f3 <transparent_crc>
    9f47:	83 7d fc 00          	cmpl   $0x0,-0x4(%rbp)
    9f4b:	74 19                	je     9f66 <main+0x11a6>
    9f4d:	8b 55 f4             	mov    -0xc(%rbp),%edx
    9f50:	8b 45 f0             	mov    -0x10(%rbp),%eax
    9f53:	89 c6                	mov    %eax,%esi
    9f55:	48 8d 3d 88 1d 00 00 	lea    0x1d88(%rip),%rdi        # bce4 <g_1991+0xc64>
    9f5c:	b8 00 00 00 00       	mov    $0x0,%eax
    9f61:	e8 1a 91 ff ff       	callq  3080 <printf@plt>
    9f66:	83 45 f4 01          	addl   $0x1,-0xc(%rbp)
    9f6a:	83 7d f4 02          	cmpl   $0x2,-0xc(%rbp)
    9f6e:	0f 8e 1c ff ff ff    	jle    9e90 <main+0x10d0>
    9f74:	83 45 f0 01          	addl   $0x1,-0x10(%rbp)
    9f78:	83 7d f0 09          	cmpl   $0x9,-0x10(%rbp)
    9f7c:	0f 8e 02 ff ff ff    	jle    9e84 <main+0x10c4>
    9f82:	8b 05 94 55 00 00    	mov    0x5594(%rip),%eax        # f51c <g_1924>
    9f88:	48 98                	cltq   
    9f8a:	8b 55 fc             	mov    -0x4(%rbp),%edx
    9f8d:	48 8d 35 20 20 00 00 	lea    0x2020(%rip),%rsi        # bfb4 <g_1991+0xf34>
    9f94:	48 89 c7             	mov    %rax,%rdi
    9f97:	e8 57 a7 ff ff       	callq  46f3 <transparent_crc>
    9f9c:	8b 05 7a 55 00 00    	mov    0x557a(%rip),%eax        # f51c <g_1924>
    9fa2:	48 98                	cltq   
    9fa4:	8b 55 fc             	mov    -0x4(%rbp),%edx
    9fa7:	48 8d 35 10 20 00 00 	lea    0x2010(%rip),%rsi        # bfbe <g_1991+0xf3e>
    9fae:	48 89 c7             	mov    %rax,%rdi
    9fb1:	e8 3d a7 ff ff       	callq  46f3 <transparent_crc>
    9fb6:	0f b6 05 5f 55 00 00 	movzbl 0x555f(%rip),%eax        # f51c <g_1924>
    9fbd:	0f b6 c0             	movzbl %al,%eax
    9fc0:	8b 55 fc             	mov    -0x4(%rbp),%edx
    9fc3:	48 8d 35 fe 1f 00 00 	lea    0x1ffe(%rip),%rsi        # bfc8 <g_1991+0xf48>
    9fca:	48 89 c7             	mov    %rax,%rdi
    9fcd:	e8 21 a7 ff ff       	callq  46f3 <transparent_crc>
    9fd2:	8b 05 44 55 00 00    	mov    0x5544(%rip),%eax        # f51c <g_1924>
    9fd8:	48 98                	cltq   
    9fda:	8b 55 fc             	mov    -0x4(%rbp),%edx
    9fdd:	48 8d 35 ee 1f 00 00 	lea    0x1fee(%rip),%rsi        # bfd2 <g_1991+0xf52>
    9fe4:	48 89 c7             	mov    %rax,%rdi
    9fe7:	e8 07 a7 ff ff       	callq  46f3 <transparent_crc>
    9fec:	0f b7 05 29 55 00 00 	movzwl 0x5529(%rip),%eax        # f51c <g_1924>
    9ff3:	0f b7 c0             	movzwl %ax,%eax
    9ff6:	8b 55 fc             	mov    -0x4(%rbp),%edx
    9ff9:	48 8d 35 dc 1f 00 00 	lea    0x1fdc(%rip),%rsi        # bfdc <g_1991+0xf5c>
    a000:	48 89 c7             	mov    %rax,%rdi
    a003:	e8 eb a6 ff ff       	callq  46f3 <transparent_crc>
    a008:	48 8b 05 11 55 00 00 	mov    0x5511(%rip),%rax        # f520 <g_1945>
    a00f:	48 89 c1             	mov    %rax,%rcx
    a012:	8b 45 fc             	mov    -0x4(%rbp),%eax
    a015:	89 c2                	mov    %eax,%edx
    a017:	48 8d 35 c8 1f 00 00 	lea    0x1fc8(%rip),%rsi        # bfe6 <g_1991+0xf66>
    a01e:	48 89 cf             	mov    %rcx,%rdi
    a021:	e8 cd a6 ff ff       	callq  46f3 <transparent_crc>
    a026:	0f b6 05 fb 54 00 00 	movzbl 0x54fb(%rip),%eax        # f528 <g_1967>
    a02d:	48 0f be c0          	movsbq %al,%rax
    a031:	8b 55 fc             	mov    -0x4(%rbp),%edx
    a034:	48 8d 35 b2 1f 00 00 	lea    0x1fb2(%rip),%rsi        # bfed <g_1991+0xf6d>
    a03b:	48 89 c7             	mov    %rax,%rdi
    a03e:	e8 b0 a6 ff ff       	callq  46f3 <transparent_crc>
    a043:	0f b6 05 1e 10 00 00 	movzbl 0x101e(%rip),%eax        # b068 <g_1971>
    a04a:	48 0f be c0          	movsbq %al,%rax
    a04e:	8b 55 fc             	mov    -0x4(%rbp),%edx
    a051:	48 8d 35 9f 1f 00 00 	lea    0x1f9f(%rip),%rsi        # bff7 <g_1991+0xf77>
    a058:	48 89 c7             	mov    %rax,%rdi
    a05b:	e8 93 a6 ff ff       	callq  46f3 <transparent_crc>
    a060:	c7 45 f0 00 00 00 00 	movl   $0x0,-0x10(%rbp)
    a067:	e9 86 01 00 00       	jmpq   a1f2 <main+0x1432>
    a06c:	c7 45 f4 00 00 00 00 	movl   $0x0,-0xc(%rbp)
    a073:	e9 6c 01 00 00       	jmpq   a1e4 <main+0x1424>
    a078:	8b 45 f4             	mov    -0xc(%rbp),%eax
    a07b:	48 63 c8             	movslq %eax,%rcx
    a07e:	8b 45 f0             	mov    -0x10(%rbp),%eax
    a081:	48 63 d0             	movslq %eax,%rdx
    a084:	48 89 d0             	mov    %rdx,%rax
    a087:	48 01 c0             	add    %rax,%rax
    a08a:	48 01 d0             	add    %rdx,%rax
    a08d:	48 01 c0             	add    %rax,%rax
    a090:	48 01 c8             	add    %rcx,%rax
    a093:	48 8d 14 85 00 00 00 	lea    0x0(,%rax,4),%rdx
    a09a:	00 
    a09b:	48 8d 05 de 0f 00 00 	lea    0xfde(%rip),%rax        # b080 <g_1991>
    a0a2:	8b 04 02             	mov    (%rdx,%rax,1),%eax
    a0a5:	48 98                	cltq   
    a0a7:	8b 55 fc             	mov    -0x4(%rbp),%edx
    a0aa:	48 8d 35 50 1f 00 00 	lea    0x1f50(%rip),%rsi        # c001 <g_1991+0xf81>
    a0b1:	48 89 c7             	mov    %rax,%rdi
    a0b4:	e8 3a a6 ff ff       	callq  46f3 <transparent_crc>
    a0b9:	8b 45 f4             	mov    -0xc(%rbp),%eax
    a0bc:	48 63 c8             	movslq %eax,%rcx
    a0bf:	8b 45 f0             	mov    -0x10(%rbp),%eax
    a0c2:	48 63 d0             	movslq %eax,%rdx
    a0c5:	48 89 d0             	mov    %rdx,%rax
    a0c8:	48 01 c0             	add    %rax,%rax
    a0cb:	48 01 d0             	add    %rdx,%rax
    a0ce:	48 01 c0             	add    %rax,%rax
    a0d1:	48 01 c8             	add    %rcx,%rax
    a0d4:	48 8d 14 85 00 00 00 	lea    0x0(,%rax,4),%rdx
    a0db:	00 
    a0dc:	48 8d 05 9d 0f 00 00 	lea    0xf9d(%rip),%rax        # b080 <g_1991>
    a0e3:	8b 04 02             	mov    (%rdx,%rax,1),%eax
    a0e6:	48 98                	cltq   
    a0e8:	8b 55 fc             	mov    -0x4(%rbp),%edx
    a0eb:	48 8d 35 1f 1f 00 00 	lea    0x1f1f(%rip),%rsi        # c011 <g_1991+0xf91>
    a0f2:	48 89 c7             	mov    %rax,%rdi
    a0f5:	e8 f9 a5 ff ff       	callq  46f3 <transparent_crc>
    a0fa:	8b 45 f4             	mov    -0xc(%rbp),%eax
    a0fd:	48 63 c8             	movslq %eax,%rcx
    a100:	8b 45 f0             	mov    -0x10(%rbp),%eax
    a103:	48 63 d0             	movslq %eax,%rdx
    a106:	48 89 d0             	mov    %rdx,%rax
    a109:	48 01 c0             	add    %rax,%rax
    a10c:	48 01 d0             	add    %rdx,%rax
    a10f:	48 01 c0             	add    %rax,%rax
    a112:	48 01 c8             	add    %rcx,%rax
    a115:	48 8d 14 85 00 00 00 	lea    0x0(,%rax,4),%rdx
    a11c:	00 
    a11d:	48 8d 05 5c 0f 00 00 	lea    0xf5c(%rip),%rax        # b080 <g_1991>
    a124:	0f b6 04 02          	movzbl (%rdx,%rax,1),%eax
    a128:	0f b6 c0             	movzbl %al,%eax
    a12b:	8b 55 fc             	mov    -0x4(%rbp),%edx
    a12e:	48 8d 35 ec 1e 00 00 	lea    0x1eec(%rip),%rsi        # c021 <g_1991+0xfa1>
    a135:	48 89 c7             	mov    %rax,%rdi
    a138:	e8 b6 a5 ff ff       	callq  46f3 <transparent_crc>
    a13d:	8b 45 f4             	mov    -0xc(%rbp),%eax
    a140:	48 63 c8             	movslq %eax,%rcx
    a143:	8b 45 f0             	mov    -0x10(%rbp),%eax
    a146:	48 63 d0             	movslq %eax,%rdx
    a149:	48 89 d0             	mov    %rdx,%rax
    a14c:	48 01 c0             	add    %rax,%rax
    a14f:	48 01 d0             	add    %rdx,%rax
    a152:	48 01 c0             	add    %rax,%rax
    a155:	48 01 c8             	add    %rcx,%rax
    a158:	48 8d 14 85 00 00 00 	lea    0x0(,%rax,4),%rdx
    a15f:	00 
    a160:	48 8d 05 19 0f 00 00 	lea    0xf19(%rip),%rax        # b080 <g_1991>
    a167:	8b 04 02             	mov    (%rdx,%rax,1),%eax
    a16a:	48 98                	cltq   
    a16c:	8b 55 fc             	mov    -0x4(%rbp),%edx
    a16f:	48 8d 35 bb 1e 00 00 	lea    0x1ebb(%rip),%rsi        # c031 <g_1991+0xfb1>
    a176:	48 89 c7             	mov    %rax,%rdi
    a179:	e8 75 a5 ff ff       	callq  46f3 <transparent_crc>
    a17e:	8b 45 f4             	mov    -0xc(%rbp),%eax
    a181:	48 63 c8             	movslq %eax,%rcx
    a184:	8b 45 f0             	mov    -0x10(%rbp),%eax
    a187:	48 63 d0             	movslq %eax,%rdx
    a18a:	48 89 d0             	mov    %rdx,%rax
    a18d:	48 01 c0             	add    %rax,%rax
    a190:	48 01 d0             	add    %rdx,%rax
    a193:	48 01 c0             	add    %rax,%rax
    a196:	48 01 c8             	add    %rcx,%rax
    a199:	48 8d 14 85 00 00 00 	lea    0x0(,%rax,4),%rdx
    a1a0:	00 
    a1a1:	48 8d 05 d8 0e 00 00 	lea    0xed8(%rip),%rax        # b080 <g_1991>
    a1a8:	0f b7 04 02          	movzwl (%rdx,%rax,1),%eax
    a1ac:	0f b7 c0             	movzwl %ax,%eax
    a1af:	8b 55 fc             	mov    -0x4(%rbp),%edx
    a1b2:	48 8d 35 88 1e 00 00 	lea    0x1e88(%rip),%rsi        # c041 <g_1991+0xfc1>
    a1b9:	48 89 c7             	mov    %rax,%rdi
    a1bc:	e8 32 a5 ff ff       	callq  46f3 <transparent_crc>
    a1c1:	83 7d fc 00          	cmpl   $0x0,-0x4(%rbp)
    a1c5:	74 19                	je     a1e0 <main+0x1420>
    a1c7:	8b 55 f4             	mov    -0xc(%rbp),%edx
    a1ca:	8b 45 f0             	mov    -0x10(%rbp),%eax
    a1cd:	89 c6                	mov    %eax,%esi
    a1cf:	48 8d 3d 0e 1b 00 00 	lea    0x1b0e(%rip),%rdi        # bce4 <g_1991+0xc64>
    a1d6:	b8 00 00 00 00       	mov    $0x0,%eax
    a1db:	e8 a0 8e ff ff       	callq  3080 <printf@plt>
    a1e0:	83 45 f4 01          	addl   $0x1,-0xc(%rbp)
    a1e4:	83 7d f4 05          	cmpl   $0x5,-0xc(%rbp)
    a1e8:	0f 8e 8a fe ff ff    	jle    a078 <main+0x12b8>
    a1ee:	83 45 f0 01          	addl   $0x1,-0x10(%rbp)
    a1f2:	83 7d f0 07          	cmpl   $0x7,-0x10(%rbp)
    a1f6:	0f 8e 70 fe ff ff    	jle    a06c <main+0x12ac>
    a1fc:	c7 45 f0 00 00 00 00 	movl   $0x0,-0x10(%rbp)
    a203:	e9 38 01 00 00       	jmpq   a340 <main+0x1580>
    a208:	c7 45 f4 00 00 00 00 	movl   $0x0,-0xc(%rbp)
    a20f:	e9 1e 01 00 00       	jmpq   a332 <main+0x1572>
    a214:	c7 45 f8 00 00 00 00 	movl   $0x0,-0x8(%rbp)
    a21b:	e9 04 01 00 00       	jmpq   a324 <main+0x1564>
    a220:	8b 45 f8             	mov    -0x8(%rbp),%eax
    a223:	48 63 c8             	movslq %eax,%rcx
    a226:	8b 45 f0             	mov    -0x10(%rbp),%eax
    a229:	48 63 d0             	movslq %eax,%rdx
    a22c:	8b 45 f4             	mov    -0xc(%rbp),%eax
    a22f:	48 63 f0             	movslq %eax,%rsi
    a232:	48 89 d0             	mov    %rdx,%rax
    a235:	48 01 c0             	add    %rax,%rax
    a238:	48 01 d0             	add    %rdx,%rax
    a23b:	48 01 f0             	add    %rsi,%rax
    a23e:	48 c1 e0 02          	shl    $0x2,%rax
    a242:	48 01 c8             	add    %rcx,%rax
    a245:	48 8d 14 00          	lea    (%rax,%rax,1),%rdx
    a249:	48 8d 05 f0 52 00 00 	lea    0x52f0(%rip),%rax        # f540 <g_2020>
    a250:	0f b7 04 02          	movzwl (%rdx,%rax,1),%eax
    a254:	48 0f bf c0          	movswq %ax,%rax
    a258:	8b 55 fc             	mov    -0x4(%rbp),%edx
    a25b:	48 8d 35 ef 1d 00 00 	lea    0x1def(%rip),%rsi        # c051 <g_1991+0xfd1>
    a262:	48 89 c7             	mov    %rax,%rdi
    a265:	e8 89 a4 ff ff       	callq  46f3 <transparent_crc>
    a26a:	8b 45 f8             	mov    -0x8(%rbp),%eax
    a26d:	48 63 c8             	movslq %eax,%rcx
    a270:	8b 45 f0             	mov    -0x10(%rbp),%eax
    a273:	48 63 d0             	movslq %eax,%rdx
    a276:	8b 45 f4             	mov    -0xc(%rbp),%eax
    a279:	48 63 f0             	movslq %eax,%rsi
    a27c:	48 89 d0             	mov    %rdx,%rax
    a27f:	48 01 c0             	add    %rax,%rax
    a282:	48 01 d0             	add    %rdx,%rax
    a285:	48 01 f0             	add    %rsi,%rax
    a288:	48 c1 e0 02          	shl    $0x2,%rax
    a28c:	48 01 c8             	add    %rcx,%rax
    a28f:	48 8d 14 00          	lea    (%rax,%rax,1),%rdx
    a293:	48 8d 05 a6 52 00 00 	lea    0x52a6(%rip),%rax        # f540 <g_2020>
    a29a:	0f b7 04 02          	movzwl (%rdx,%rax,1),%eax
    a29e:	48 0f bf c0          	movswq %ax,%rax
    a2a2:	8b 55 fc             	mov    -0x4(%rbp),%edx
    a2a5:	48 8d 35 b8 1d 00 00 	lea    0x1db8(%rip),%rsi        # c064 <g_1991+0xfe4>
    a2ac:	48 89 c7             	mov    %rax,%rdi
    a2af:	e8 3f a4 ff ff       	callq  46f3 <transparent_crc>
    a2b4:	8b 45 f8             	mov    -0x8(%rbp),%eax
    a2b7:	48 63 c8             	movslq %eax,%rcx
    a2ba:	8b 45 f0             	mov    -0x10(%rbp),%eax
    a2bd:	48 63 d0             	movslq %eax,%rdx
    a2c0:	8b 45 f4             	mov    -0xc(%rbp),%eax
    a2c3:	48 63 f0             	movslq %eax,%rsi
    a2c6:	48 89 d0             	mov    %rdx,%rax
    a2c9:	48 01 c0             	add    %rax,%rax
    a2cc:	48 01 d0             	add    %rdx,%rax
    a2cf:	48 01 f0             	add    %rsi,%rax
    a2d2:	48 c1 e0 02          	shl    $0x2,%rax
    a2d6:	48 01 c8             	add    %rcx,%rax
    a2d9:	48 8d 14 00          	lea    (%rax,%rax,1),%rdx
    a2dd:	48 8d 05 5c 52 00 00 	lea    0x525c(%rip),%rax        # f540 <g_2020>
    a2e4:	0f b7 04 02          	movzwl (%rdx,%rax,1),%eax
    a2e8:	48 0f bf c0          	movswq %ax,%rax
    a2ec:	8b 55 fc             	mov    -0x4(%rbp),%edx
    a2ef:	48 8d 35 81 1d 00 00 	lea    0x1d81(%rip),%rsi        # c077 <g_1991+0xff7>
    a2f6:	48 89 c7             	mov    %rax,%rdi
    a2f9:	e8 f5 a3 ff ff       	callq  46f3 <transparent_crc>
    a2fe:	83 7d fc 00          	cmpl   $0x0,-0x4(%rbp)
    a302:	74 1c                	je     a320 <main+0x1560>
    a304:	8b 4d f8             	mov    -0x8(%rbp),%ecx
    a307:	8b 55 f4             	mov    -0xc(%rbp),%edx
    a30a:	8b 45 f0             	mov    -0x10(%rbp),%eax
    a30d:	89 c6                	mov    %eax,%esi
    a30f:	48 8d 3d a3 19 00 00 	lea    0x19a3(%rip),%rdi        # bcb9 <g_1991+0xc39>
    a316:	b8 00 00 00 00       	mov    $0x0,%eax
    a31b:	e8 60 8d ff ff       	callq  3080 <printf@plt>
    a320:	83 45 f8 01          	addl   $0x1,-0x8(%rbp)
    a324:	83 7d f8 03          	cmpl   $0x3,-0x8(%rbp)
    a328:	0f 8e f2 fe ff ff    	jle    a220 <main+0x1460>
    a32e:	83 45 f4 01          	addl   $0x1,-0xc(%rbp)
    a332:	83 7d f4 02          	cmpl   $0x2,-0xc(%rbp)
    a336:	0f 8e d8 fe ff ff    	jle    a214 <main+0x1454>
    a33c:	83 45 f0 01          	addl   $0x1,-0x10(%rbp)
    a340:	83 7d f0 08          	cmpl   $0x8,-0x10(%rbp)
    a344:	0f 8e be fe ff ff    	jle    a208 <main+0x1448>
    a34a:	c7 45 f0 00 00 00 00 	movl   $0x0,-0x10(%rbp)
    a351:	e9 7c 01 00 00       	jmpq   a4d2 <main+0x1712>
    a356:	c7 45 f4 00 00 00 00 	movl   $0x0,-0xc(%rbp)
    a35d:	e9 62 01 00 00       	jmpq   a4c4 <main+0x1704>
    a362:	8b 45 f4             	mov    -0xc(%rbp),%eax
    a365:	48 63 c8             	movslq %eax,%rcx
    a368:	8b 45 f0             	mov    -0x10(%rbp),%eax
    a36b:	48 63 d0             	movslq %eax,%rdx
    a36e:	48 89 d0             	mov    %rdx,%rax
    a371:	48 c1 e0 03          	shl    $0x3,%rax
    a375:	48 29 d0             	sub    %rdx,%rax
    a378:	48 01 c8             	add    %rcx,%rax
    a37b:	48 8d 14 85 00 00 00 	lea    0x0(,%rax,4),%rdx
    a382:	00 
    a383:	48 8d 05 96 52 00 00 	lea    0x5296(%rip),%rax        # f620 <g_2047>
    a38a:	8b 04 02             	mov    (%rdx,%rax,1),%eax
    a38d:	48 98                	cltq   
    a38f:	8b 55 fc             	mov    -0x4(%rbp),%edx
    a392:	48 8d 35 f1 1c 00 00 	lea    0x1cf1(%rip),%rsi        # c08a <g_1991+0x100a>
    a399:	48 89 c7             	mov    %rax,%rdi
    a39c:	e8 52 a3 ff ff       	callq  46f3 <transparent_crc>
    a3a1:	8b 45 f4             	mov    -0xc(%rbp),%eax
    a3a4:	48 63 c8             	movslq %eax,%rcx
    a3a7:	8b 45 f0             	mov    -0x10(%rbp),%eax
    a3aa:	48 63 d0             	movslq %eax,%rdx
    a3ad:	48 89 d0             	mov    %rdx,%rax
    a3b0:	48 c1 e0 03          	shl    $0x3,%rax
    a3b4:	48 29 d0             	sub    %rdx,%rax
    a3b7:	48 01 c8             	add    %rcx,%rax
    a3ba:	48 8d 14 85 00 00 00 	lea    0x0(,%rax,4),%rdx
    a3c1:	00 
    a3c2:	48 8d 05 57 52 00 00 	lea    0x5257(%rip),%rax        # f620 <g_2047>
    a3c9:	8b 04 02             	mov    (%rdx,%rax,1),%eax
    a3cc:	48 98                	cltq   
    a3ce:	8b 55 fc             	mov    -0x4(%rbp),%edx
    a3d1:	48 8d 35 c2 1c 00 00 	lea    0x1cc2(%rip),%rsi        # c09a <g_1991+0x101a>
    a3d8:	48 89 c7             	mov    %rax,%rdi
    a3db:	e8 13 a3 ff ff       	callq  46f3 <transparent_crc>
    a3e0:	8b 45 f4             	mov    -0xc(%rbp),%eax
    a3e3:	48 63 c8             	movslq %eax,%rcx
    a3e6:	8b 45 f0             	mov    -0x10(%rbp),%eax
    a3e9:	48 63 d0             	movslq %eax,%rdx
    a3ec:	48 89 d0             	mov    %rdx,%rax
    a3ef:	48 c1 e0 03          	shl    $0x3,%rax
    a3f3:	48 29 d0             	sub    %rdx,%rax
    a3f6:	48 01 c8             	add    %rcx,%rax
    a3f9:	48 8d 14 85 00 00 00 	lea    0x0(,%rax,4),%rdx
    a400:	00 
    a401:	48 8d 05 18 52 00 00 	lea    0x5218(%rip),%rax        # f620 <g_2047>
    a408:	0f b6 04 02          	movzbl (%rdx,%rax,1),%eax
    a40c:	0f b6 c0             	movzbl %al,%eax
    a40f:	8b 55 fc             	mov    -0x4(%rbp),%edx
    a412:	48 8d 35 91 1c 00 00 	lea    0x1c91(%rip),%rsi        # c0aa <g_1991+0x102a>
    a419:	48 89 c7             	mov    %rax,%rdi
    a41c:	e8 d2 a2 ff ff       	callq  46f3 <transparent_crc>
    a421:	8b 45 f4             	mov    -0xc(%rbp),%eax
    a424:	48 63 c8             	movslq %eax,%rcx
    a427:	8b 45 f0             	mov    -0x10(%rbp),%eax
    a42a:	48 63 d0             	movslq %eax,%rdx
    a42d:	48 89 d0             	mov    %rdx,%rax
    a430:	48 c1 e0 03          	shl    $0x3,%rax
    a434:	48 29 d0             	sub    %rdx,%rax
    a437:	48 01 c8             	add    %rcx,%rax
    a43a:	48 8d 14 85 00 00 00 	lea    0x0(,%rax,4),%rdx
    a441:	00 
    a442:	48 8d 05 d7 51 00 00 	lea    0x51d7(%rip),%rax        # f620 <g_2047>
    a449:	8b 04 02             	mov    (%rdx,%rax,1),%eax
    a44c:	48 98                	cltq   
    a44e:	8b 55 fc             	mov    -0x4(%rbp),%edx
    a451:	48 8d 35 62 1c 00 00 	lea    0x1c62(%rip),%rsi        # c0ba <g_1991+0x103a>
    a458:	48 89 c7             	mov    %rax,%rdi
    a45b:	e8 93 a2 ff ff       	callq  46f3 <transparent_crc>
    a460:	8b 45 f4             	mov    -0xc(%rbp),%eax
    a463:	48 63 c8             	movslq %eax,%rcx
    a466:	8b 45 f0             	mov    -0x10(%rbp),%eax
    a469:	48 63 d0             	movslq %eax,%rdx
    a46c:	48 89 d0             	mov    %rdx,%rax
    a46f:	48 c1 e0 03          	shl    $0x3,%rax
    a473:	48 29 d0             	sub    %rdx,%rax
    a476:	48 01 c8             	add    %rcx,%rax
    a479:	48 8d 14 85 00 00 00 	lea    0x0(,%rax,4),%rdx
    a480:	00 
    a481:	48 8d 05 98 51 00 00 	lea    0x5198(%rip),%rax        # f620 <g_2047>
    a488:	0f b7 04 02          	movzwl (%rdx,%rax,1),%eax
    a48c:	0f b7 c0             	movzwl %ax,%eax
    a48f:	8b 55 fc             	mov    -0x4(%rbp),%edx
    a492:	48 8d 35 31 1c 00 00 	lea    0x1c31(%rip),%rsi        # c0ca <g_1991+0x104a>
    a499:	48 89 c7             	mov    %rax,%rdi
    a49c:	e8 52 a2 ff ff       	callq  46f3 <transparent_crc>
    a4a1:	83 7d fc 00          	cmpl   $0x0,-0x4(%rbp)
    a4a5:	74 19                	je     a4c0 <main+0x1700>
    a4a7:	8b 55 f4             	mov    -0xc(%rbp),%edx
    a4aa:	8b 45 f0             	mov    -0x10(%rbp),%eax
    a4ad:	89 c6                	mov    %eax,%esi
    a4af:	48 8d 3d 2e 18 00 00 	lea    0x182e(%rip),%rdi        # bce4 <g_1991+0xc64>
    a4b6:	b8 00 00 00 00       	mov    $0x0,%eax
    a4bb:	e8 c0 8b ff ff       	callq  3080 <printf@plt>
    a4c0:	83 45 f4 01          	addl   $0x1,-0xc(%rbp)
    a4c4:	83 7d f4 06          	cmpl   $0x6,-0xc(%rbp)
    a4c8:	0f 8e 94 fe ff ff    	jle    a362 <main+0x15a2>
    a4ce:	83 45 f0 01          	addl   $0x1,-0x10(%rbp)
    a4d2:	83 7d f0 00          	cmpl   $0x0,-0x10(%rbp)
    a4d6:	0f 8e 7a fe ff ff    	jle    a356 <main+0x1596>
    a4dc:	0f b6 05 59 51 00 00 	movzbl 0x5159(%rip),%eax        # f63c <g_2057>
    a4e3:	48 0f be c0          	movsbq %al,%rax
    a4e7:	8b 55 fc             	mov    -0x4(%rbp),%edx
    a4ea:	48 8d 35 e9 1b 00 00 	lea    0x1be9(%rip),%rsi        # c0da <g_1991+0x105a>
    a4f1:	48 89 c7             	mov    %rax,%rdi
    a4f4:	e8 fa a1 ff ff       	callq  46f3 <transparent_crc>
    a4f9:	8b 05 41 51 00 00    	mov    0x5141(%rip),%eax        # f640 <g_2195>
    a4ff:	48 98                	cltq   
    a501:	8b 55 fc             	mov    -0x4(%rbp),%edx
    a504:	48 8d 35 d9 1b 00 00 	lea    0x1bd9(%rip),%rsi        # c0e4 <g_1991+0x1064>
    a50b:	48 89 c7             	mov    %rax,%rdi
    a50e:	e8 e0 a1 ff ff       	callq  46f3 <transparent_crc>
    a513:	8b 05 27 51 00 00    	mov    0x5127(%rip),%eax        # f640 <g_2195>
    a519:	48 98                	cltq   
    a51b:	8b 55 fc             	mov    -0x4(%rbp),%edx
    a51e:	48 8d 35 c9 1b 00 00 	lea    0x1bc9(%rip),%rsi        # c0ee <g_1991+0x106e>
    a525:	48 89 c7             	mov    %rax,%rdi
    a528:	e8 c6 a1 ff ff       	callq  46f3 <transparent_crc>
    a52d:	0f b6 05 0c 51 00 00 	movzbl 0x510c(%rip),%eax        # f640 <g_2195>
    a534:	0f b6 c0             	movzbl %al,%eax
    a537:	8b 55 fc             	mov    -0x4(%rbp),%edx
    a53a:	48 8d 35 b7 1b 00 00 	lea    0x1bb7(%rip),%rsi        # c0f8 <g_1991+0x1078>
    a541:	48 89 c7             	mov    %rax,%rdi
    a544:	e8 aa a1 ff ff       	callq  46f3 <transparent_crc>
    a549:	8b 05 f1 50 00 00    	mov    0x50f1(%rip),%eax        # f640 <g_2195>
    a54f:	48 98                	cltq   
    a551:	8b 55 fc             	mov    -0x4(%rbp),%edx
    a554:	48 8d 35 a7 1b 00 00 	lea    0x1ba7(%rip),%rsi        # c102 <g_1991+0x1082>
    a55b:	48 89 c7             	mov    %rax,%rdi
    a55e:	e8 90 a1 ff ff       	callq  46f3 <transparent_crc>
    a563:	0f b7 05 d6 50 00 00 	movzwl 0x50d6(%rip),%eax        # f640 <g_2195>
    a56a:	0f b7 c0             	movzwl %ax,%eax
    a56d:	8b 55 fc             	mov    -0x4(%rbp),%edx
    a570:	48 8d 35 95 1b 00 00 	lea    0x1b95(%rip),%rsi        # c10c <g_1991+0x108c>
    a577:	48 89 c7             	mov    %rax,%rdi
    a57a:	e8 74 a1 ff ff       	callq  46f3 <transparent_crc>
    a57f:	c7 45 f0 00 00 00 00 	movl   $0x0,-0x10(%rbp)
    a586:	eb 7b                	jmp    a603 <main+0x1843>
    a588:	c7 45 f4 00 00 00 00 	movl   $0x0,-0xc(%rbp)
    a58f:	eb 68                	jmp    a5f9 <main+0x1839>
    a591:	8b 45 f4             	mov    -0xc(%rbp),%eax
    a594:	48 63 c8             	movslq %eax,%rcx
    a597:	8b 45 f0             	mov    -0x10(%rbp),%eax
    a59a:	48 63 d0             	movslq %eax,%rdx
    a59d:	48 89 d0             	mov    %rdx,%rax
    a5a0:	48 c1 e0 02          	shl    $0x2,%rax
    a5a4:	48 01 d0             	add    %rdx,%rax
    a5a7:	48 01 c0             	add    %rax,%rax
    a5aa:	48 01 c8             	add    %rcx,%rax
    a5ad:	48 8d 14 85 00 00 00 	lea    0x0(,%rax,4),%rdx
    a5b4:	00 
    a5b5:	48 8d 05 a4 50 00 00 	lea    0x50a4(%rip),%rax        # f660 <g_2242>
    a5bc:	0f b6 04 02          	movzbl (%rdx,%rax,1),%eax
    a5c0:	48 0f be c0          	movsbq %al,%rax
    a5c4:	8b 55 fc             	mov    -0x4(%rbp),%edx
    a5c7:	48 8d 35 48 1b 00 00 	lea    0x1b48(%rip),%rsi        # c116 <g_1991+0x1096>
    a5ce:	48 89 c7             	mov    %rax,%rdi
    a5d1:	e8 1d a1 ff ff       	callq  46f3 <transparent_crc>
    a5d6:	83 7d fc 00          	cmpl   $0x0,-0x4(%rbp)
    a5da:	74 19                	je     a5f5 <main+0x1835>
    a5dc:	8b 55 f4             	mov    -0xc(%rbp),%edx
    a5df:	8b 45 f0             	mov    -0x10(%rbp),%eax
    a5e2:	89 c6                	mov    %eax,%esi
    a5e4:	48 8d 3d f9 16 00 00 	lea    0x16f9(%rip),%rdi        # bce4 <g_1991+0xc64>
    a5eb:	b8 00 00 00 00       	mov    $0x0,%eax
    a5f0:	e8 8b 8a ff ff       	callq  3080 <printf@plt>
    a5f5:	83 45 f4 01          	addl   $0x1,-0xc(%rbp)
    a5f9:	83 7d f4 09          	cmpl   $0x9,-0xc(%rbp)
    a5fd:	7e 92                	jle    a591 <main+0x17d1>
    a5ff:	83 45 f0 01          	addl   $0x1,-0x10(%rbp)
    a603:	83 7d f0 08          	cmpl   $0x8,-0x10(%rbp)
    a607:	0f 8e 7b ff ff ff    	jle    a588 <main+0x17c8>
    a60d:	8b 05 b5 51 00 00    	mov    0x51b5(%rip),%eax        # f7c8 <g_2326>
    a613:	48 98                	cltq   
    a615:	8b 55 fc             	mov    -0x4(%rbp),%edx
    a618:	48 8d 35 07 1b 00 00 	lea    0x1b07(%rip),%rsi        # c126 <g_1991+0x10a6>
    a61f:	48 89 c7             	mov    %rax,%rdi
    a622:	e8 cc a0 ff ff       	callq  46f3 <transparent_crc>
    a627:	8b 05 9b 51 00 00    	mov    0x519b(%rip),%eax        # f7c8 <g_2326>
    a62d:	48 98                	cltq   
    a62f:	8b 55 fc             	mov    -0x4(%rbp),%edx
    a632:	48 8d 35 f7 1a 00 00 	lea    0x1af7(%rip),%rsi        # c130 <g_1991+0x10b0>
    a639:	48 89 c7             	mov    %rax,%rdi
    a63c:	e8 b2 a0 ff ff       	callq  46f3 <transparent_crc>
    a641:	0f b6 05 80 51 00 00 	movzbl 0x5180(%rip),%eax        # f7c8 <g_2326>
    a648:	0f b6 c0             	movzbl %al,%eax
    a64b:	8b 55 fc             	mov    -0x4(%rbp),%edx
    a64e:	48 8d 35 e5 1a 00 00 	lea    0x1ae5(%rip),%rsi        # c13a <g_1991+0x10ba>
    a655:	48 89 c7             	mov    %rax,%rdi
    a658:	e8 96 a0 ff ff       	callq  46f3 <transparent_crc>
    a65d:	8b 05 65 51 00 00    	mov    0x5165(%rip),%eax        # f7c8 <g_2326>
    a663:	48 98                	cltq   
    a665:	8b 55 fc             	mov    -0x4(%rbp),%edx
    a668:	48 8d 35 d5 1a 00 00 	lea    0x1ad5(%rip),%rsi        # c144 <g_1991+0x10c4>
    a66f:	48 89 c7             	mov    %rax,%rdi
    a672:	e8 7c a0 ff ff       	callq  46f3 <transparent_crc>
    a677:	0f b7 05 4a 51 00 00 	movzwl 0x514a(%rip),%eax        # f7c8 <g_2326>
    a67e:	0f b7 c0             	movzwl %ax,%eax
    a681:	8b 55 fc             	mov    -0x4(%rbp),%edx
    a684:	48 8d 35 c3 1a 00 00 	lea    0x1ac3(%rip),%rsi        # c14e <g_1991+0x10ce>
    a68b:	48 89 c7             	mov    %rax,%rdi
    a68e:	e8 60 a0 ff ff       	callq  46f3 <transparent_crc>
    a693:	8b 05 87 49 00 00    	mov    0x4987(%rip),%eax        # f020 <crc32_context>
    a699:	f7 d0                	not    %eax
    a69b:	89 c2                	mov    %eax,%edx
    a69d:	8b 45 fc             	mov    -0x4(%rbp),%eax
    a6a0:	89 c6                	mov    %eax,%esi
    a6a2:	89 d7                	mov    %edx,%edi
    a6a4:	e8 eb 8a ff ff       	callq  3194 <platform_main_end>
    a6a9:	b8 00 00 00 00       	mov    $0x0,%eax
    a6ae:	c9                   	leaveq 
    a6af:	c3                   	retq   

000000000000a6b0 <__libc_csu_init>:
    a6b0:	f3 0f 1e fa          	endbr64 
    a6b4:	41 57                	push   %r15
    a6b6:	4c 8d 3d e3 46 00 00 	lea    0x46e3(%rip),%r15        # eda0 <__frame_dummy_init_array_entry>
    a6bd:	41 56                	push   %r14
    a6bf:	49 89 d6             	mov    %rdx,%r14
    a6c2:	41 55                	push   %r13
    a6c4:	49 89 f5             	mov    %rsi,%r13
    a6c7:	41 54                	push   %r12
    a6c9:	41 89 fc             	mov    %edi,%r12d
    a6cc:	55                   	push   %rbp
    a6cd:	48 8d 2d d4 46 00 00 	lea    0x46d4(%rip),%rbp        # eda8 <__do_global_dtors_aux_fini_array_entry>
    a6d4:	53                   	push   %rbx
    a6d5:	4c 29 fd             	sub    %r15,%rbp
    a6d8:	48 83 ec 08          	sub    $0x8,%rsp
    a6dc:	e8 1f 89 ff ff       	callq  3000 <_init>
    a6e1:	48 c1 fd 03          	sar    $0x3,%rbp
    a6e5:	74 1f                	je     a706 <__libc_csu_init+0x56>
    a6e7:	31 db                	xor    %ebx,%ebx
    a6e9:	0f 1f 80 00 00 00 00 	nopl   0x0(%rax)
    a6f0:	4c 89 f2             	mov    %r14,%rdx
    a6f3:	4c 89 ee             	mov    %r13,%rsi
    a6f6:	44 89 e7             	mov    %r12d,%edi
    a6f9:	41 ff 14 df          	callq  *(%r15,%rbx,8)
    a6fd:	48 83 c3 01          	add    $0x1,%rbx
    a701:	48 39 dd             	cmp    %rbx,%rbp
    a704:	75 ea                	jne    a6f0 <__libc_csu_init+0x40>
    a706:	48 83 c4 08          	add    $0x8,%rsp
    a70a:	5b                   	pop    %rbx
    a70b:	5d                   	pop    %rbp
    a70c:	41 5c                	pop    %r12
    a70e:	41 5d                	pop    %r13
    a710:	41 5e                	pop    %r14
    a712:	41 5f                	pop    %r15
    a714:	c3                   	retq   
    a715:	66 66 2e 0f 1f 84 00 	data16 nopw %cs:0x0(%rax,%rax,1)
    a71c:	00 00 00 00 

000000000000a720 <__libc_csu_fini>:
    a720:	f3 0f 1e fa          	endbr64 
    a724:	c3                   	retq   
