


Disassembly of section .text:

00000000000060a0 <_start>:
    60a0:	f3 0f 1e fa          	endbr64 
    60a4:	31 ed                	xor    %ebp,%ebp
    60a6:	49 89 d1             	mov    %rdx,%r9
    60a9:	5e                   	pop    %rsi
    60aa:	48 89 e2             	mov    %rsp,%rdx
    60ad:	48 83 e4 f0          	and    $0xfffffffffffffff0,%rsp
    60b1:	50                   	push   %rax
    60b2:	54                   	push   %rsp
    60b3:	4c 8d 05 f6 58 00 00 	lea    0x58f6(%rip),%r8        # b9b0 <__libc_csu_fini>
    60ba:	48 8d 0d 7f 58 00 00 	lea    0x587f(%rip),%rcx        # b940 <__libc_csu_init>
    60c1:	48 8d 3d db 4c 00 00 	lea    0x4cdb(%rip),%rdi        # ada3 <main>
    60c8:	ff 15 02 9f 00 00    	callq  *0x9f02(%rip)        # ffd0 <__libc_start_main@GLIBC_2.2.5>
    60ce:	f4                   	hlt    
    60cf:	90                   	nop

00000000000060d0 <deregister_tm_clones>:
    60d0:	48 8d 3d a9 c8 00 00 	lea    0xc8a9(%rip),%rdi        # 12980 <__TMC_END__>
    60d7:	48 8d 05 a2 c8 00 00 	lea    0xc8a2(%rip),%rax        # 12980 <__TMC_END__>
    60de:	48 39 f8             	cmp    %rdi,%rax
    60e1:	74 15                	je     60f8 <deregister_tm_clones+0x28>
    60e3:	48 8b 05 de 9e 00 00 	mov    0x9ede(%rip),%rax        # ffc8 <_ITM_deregisterTMCloneTable>
    60ea:	48 85 c0             	test   %rax,%rax
    60ed:	74 09                	je     60f8 <deregister_tm_clones+0x28>
    60ef:	ff e0                	jmpq   *%rax
    60f1:	0f 1f 80 00 00 00 00 	nopl   0x0(%rax)
    60f8:	c3                   	retq   
    60f9:	0f 1f 80 00 00 00 00 	nopl   0x0(%rax)

0000000000006100 <register_tm_clones>:
    6100:	48 8d 3d 79 c8 00 00 	lea    0xc879(%rip),%rdi        # 12980 <__TMC_END__>
    6107:	48 8d 35 72 c8 00 00 	lea    0xc872(%rip),%rsi        # 12980 <__TMC_END__>
    610e:	48 29 fe             	sub    %rdi,%rsi
    6111:	48 89 f0             	mov    %rsi,%rax
    6114:	48 c1 ee 3f          	shr    $0x3f,%rsi
    6118:	48 c1 f8 03          	sar    $0x3,%rax
    611c:	48 01 c6             	add    %rax,%rsi
    611f:	48 d1 fe             	sar    %rsi
    6122:	74 14                	je     6138 <register_tm_clones+0x38>
    6124:	48 8b 05 b5 9e 00 00 	mov    0x9eb5(%rip),%rax        # ffe0 <_ITM_registerTMCloneTable>
    612b:	48 85 c0             	test   %rax,%rax
    612e:	74 08                	je     6138 <register_tm_clones+0x38>
    6130:	ff e0                	jmpq   *%rax
    6132:	66 0f 1f 44 00 00    	nopw   0x0(%rax,%rax,1)
    6138:	c3                   	retq   
    6139:	0f 1f 80 00 00 00 00 	nopl   0x0(%rax)

0000000000006140 <__do_global_dtors_aux>:
    6140:	f3 0f 1e fa          	endbr64 
    6144:	80 3d 35 c8 00 00 00 	cmpb   $0x0,0xc835(%rip)        # 12980 <__TMC_END__>
    614b:	75 2b                	jne    6178 <__do_global_dtors_aux+0x38>
    614d:	55                   	push   %rbp
    614e:	48 83 3d 92 9e 00 00 	cmpq   $0x0,0x9e92(%rip)        # ffe8 <__cxa_finalize@GLIBC_2.2.5>
    6155:	00 
    6156:	48 89 e5             	mov    %rsp,%rbp
    6159:	74 0c                	je     6167 <__do_global_dtors_aux+0x27>
    615b:	48 8b 3d a6 9e 00 00 	mov    0x9ea6(%rip),%rdi        # 10008 <__dso_handle>
    6162:	e8 f9 fe ff ff       	callq  6060 <__cxa_finalize@plt>
    6167:	e8 64 ff ff ff       	callq  60d0 <deregister_tm_clones>
    616c:	c6 05 0d c8 00 00 01 	movb   $0x1,0xc80d(%rip)        # 12980 <__TMC_END__>
    6173:	5d                   	pop    %rbp
    6174:	c3                   	retq   
    6175:	0f 1f 00             	nopl   (%rax)
    6178:	c3                   	retq   
    6179:	0f 1f 80 00 00 00 00 	nopl   0x0(%rax)

0000000000006180 <frame_dummy>:
    6180:	f3 0f 1e fa          	endbr64 
    6184:	e9 77 ff ff ff       	jmpq   6100 <register_tm_clones>

0000000000006189 <platform_main_begin>:
    6189:	f3 0f 1e fa          	endbr64 
    618d:	55                   	push   %rbp
    618e:	48 89 e5             	mov    %rsp,%rbp
    6191:	90                   	nop
    6192:	5d                   	pop    %rbp
    6193:	c3                   	retq   

0000000000006194 <platform_main_end>:
    6194:	f3 0f 1e fa          	endbr64 
    6198:	55                   	push   %rbp
    6199:	48 89 e5             	mov    %rsp,%rbp
    619c:	48 83 ec 10          	sub    $0x10,%rsp
    61a0:	89 7d fc             	mov    %edi,-0x4(%rbp)
    61a3:	89 75 f8             	mov    %esi,-0x8(%rbp)
    61a6:	8b 45 fc             	mov    -0x4(%rbp),%eax
    61a9:	89 c6                	mov    %eax,%esi
    61ab:	48 8d 3d 6e 5e 00 00 	lea    0x5e6e(%rip),%rdi        # c020 <_IO_stdin_used+0x20>
    61b2:	b8 00 00 00 00       	mov    $0x0,%eax
    61b7:	e8 c4 fe ff ff       	callq  6080 <printf@plt>
    61bc:	90                   	nop
    61bd:	c9                   	leaveq 
    61be:	c3                   	retq   

00000000000061bf <safe_unary_minus_func_int8_t_s>:
    61bf:	f3 0f 1e fa          	endbr64 
    61c3:	55                   	push   %rbp
    61c4:	48 89 e5             	mov    %rsp,%rbp
    61c7:	89 f8                	mov    %edi,%eax
    61c9:	88 45 fc             	mov    %al,-0x4(%rbp)
    61cc:	0f b6 45 fc          	movzbl -0x4(%rbp),%eax
    61d0:	f7 d8                	neg    %eax
    61d2:	5d                   	pop    %rbp
    61d3:	c3                   	retq   

00000000000061d4 <safe_add_func_int8_t_s_s>:
    61d4:	f3 0f 1e fa          	endbr64 
    61d8:	55                   	push   %rbp
    61d9:	48 89 e5             	mov    %rsp,%rbp
    61dc:	89 fa                	mov    %edi,%edx
    61de:	89 f0                	mov    %esi,%eax
    61e0:	88 55 fc             	mov    %dl,-0x4(%rbp)
    61e3:	88 45 f8             	mov    %al,-0x8(%rbp)
    61e6:	0f b6 55 fc          	movzbl -0x4(%rbp),%edx
    61ea:	0f b6 45 f8          	movzbl -0x8(%rbp),%eax
    61ee:	01 d0                	add    %edx,%eax
    61f0:	5d                   	pop    %rbp
    61f1:	c3                   	retq   

00000000000061f2 <safe_sub_func_int8_t_s_s>:
    61f2:	f3 0f 1e fa          	endbr64 
    61f6:	55                   	push   %rbp
    61f7:	48 89 e5             	mov    %rsp,%rbp
    61fa:	89 fa                	mov    %edi,%edx
    61fc:	89 f0                	mov    %esi,%eax
    61fe:	88 55 fc             	mov    %dl,-0x4(%rbp)
    6201:	88 45 f8             	mov    %al,-0x8(%rbp)
    6204:	0f b6 55 fc          	movzbl -0x4(%rbp),%edx
    6208:	0f b6 45 f8          	movzbl -0x8(%rbp),%eax
    620c:	29 c2                	sub    %eax,%edx
    620e:	89 d0                	mov    %edx,%eax
    6210:	5d                   	pop    %rbp
    6211:	c3                   	retq   

0000000000006212 <safe_mul_func_int8_t_s_s>:
    6212:	f3 0f 1e fa          	endbr64 
    6216:	55                   	push   %rbp
    6217:	48 89 e5             	mov    %rsp,%rbp
    621a:	89 fa                	mov    %edi,%edx
    621c:	89 f0                	mov    %esi,%eax
    621e:	88 55 fc             	mov    %dl,-0x4(%rbp)
    6221:	88 45 f8             	mov    %al,-0x8(%rbp)
    6224:	0f b6 45 fc          	movzbl -0x4(%rbp),%eax
    6228:	0f b6 55 f8          	movzbl -0x8(%rbp),%edx
    622c:	0f af c2             	imul   %edx,%eax
    622f:	5d                   	pop    %rbp
    6230:	c3                   	retq   

0000000000006231 <safe_mod_func_int8_t_s_s>:
    6231:	f3 0f 1e fa          	endbr64 
    6235:	55                   	push   %rbp
    6236:	48 89 e5             	mov    %rsp,%rbp
    6239:	89 fa                	mov    %edi,%edx
    623b:	89 f0                	mov    %esi,%eax
    623d:	88 55 fc             	mov    %dl,-0x4(%rbp)
    6240:	88 45 f8             	mov    %al,-0x8(%rbp)
    6243:	80 7d f8 00          	cmpb   $0x0,-0x8(%rbp)
    6247:	74 1b                	je     6264 <safe_mod_func_int8_t_s_s+0x33>
    6249:	80 7d fc 80          	cmpb   $0x80,-0x4(%rbp)
    624d:	75 06                	jne    6255 <safe_mod_func_int8_t_s_s+0x24>
    624f:	80 7d f8 ff          	cmpb   $0xff,-0x8(%rbp)
    6253:	74 0f                	je     6264 <safe_mod_func_int8_t_s_s+0x33>
    6255:	0f be 45 fc          	movsbl -0x4(%rbp),%eax
    6259:	0f be 4d f8          	movsbl -0x8(%rbp),%ecx
    625d:	99                   	cltd   
    625e:	f7 f9                	idiv   %ecx
    6260:	89 d0                	mov    %edx,%eax
    6262:	eb 04                	jmp    6268 <safe_mod_func_int8_t_s_s+0x37>
    6264:	0f b6 45 fc          	movzbl -0x4(%rbp),%eax
    6268:	5d                   	pop    %rbp
    6269:	c3                   	retq   

000000000000626a <safe_div_func_int8_t_s_s>:
    626a:	f3 0f 1e fa          	endbr64 
    626e:	55                   	push   %rbp
    626f:	48 89 e5             	mov    %rsp,%rbp
    6272:	89 fa                	mov    %edi,%edx
    6274:	89 f0                	mov    %esi,%eax
    6276:	88 55 fc             	mov    %dl,-0x4(%rbp)
    6279:	88 45 f8             	mov    %al,-0x8(%rbp)
    627c:	80 7d f8 00          	cmpb   $0x0,-0x8(%rbp)
    6280:	74 19                	je     629b <safe_div_func_int8_t_s_s+0x31>
    6282:	80 7d fc 80          	cmpb   $0x80,-0x4(%rbp)
    6286:	75 06                	jne    628e <safe_div_func_int8_t_s_s+0x24>
    6288:	80 7d f8 ff          	cmpb   $0xff,-0x8(%rbp)
    628c:	74 0d                	je     629b <safe_div_func_int8_t_s_s+0x31>
    628e:	0f be 45 fc          	movsbl -0x4(%rbp),%eax
    6292:	0f be 4d f8          	movsbl -0x8(%rbp),%ecx
    6296:	99                   	cltd   
    6297:	f7 f9                	idiv   %ecx
    6299:	eb 04                	jmp    629f <safe_div_func_int8_t_s_s+0x35>
    629b:	0f b6 45 fc          	movzbl -0x4(%rbp),%eax
    629f:	5d                   	pop    %rbp
    62a0:	c3                   	retq   

00000000000062a1 <safe_lshift_func_int8_t_s_s>:
    62a1:	f3 0f 1e fa          	endbr64 
    62a5:	55                   	push   %rbp
    62a6:	48 89 e5             	mov    %rsp,%rbp
    62a9:	89 f8                	mov    %edi,%eax
    62ab:	89 75 f8             	mov    %esi,-0x8(%rbp)
    62ae:	88 45 fc             	mov    %al,-0x4(%rbp)
    62b1:	80 7d fc 00          	cmpb   $0x0,-0x4(%rbp)
    62b5:	78 31                	js     62e8 <safe_lshift_func_int8_t_s_s+0x47>
    62b7:	83 7d f8 00          	cmpl   $0x0,-0x8(%rbp)
    62bb:	78 2b                	js     62e8 <safe_lshift_func_int8_t_s_s+0x47>
    62bd:	83 7d f8 1f          	cmpl   $0x1f,-0x8(%rbp)
    62c1:	7f 25                	jg     62e8 <safe_lshift_func_int8_t_s_s+0x47>
    62c3:	0f be 55 fc          	movsbl -0x4(%rbp),%edx
    62c7:	8b 45 f8             	mov    -0x8(%rbp),%eax
    62ca:	be 7f 00 00 00       	mov    $0x7f,%esi
    62cf:	89 c1                	mov    %eax,%ecx
    62d1:	d3 fe                	sar    %cl,%esi
    62d3:	89 f0                	mov    %esi,%eax
    62d5:	39 c2                	cmp    %eax,%edx
    62d7:	7f 0f                	jg     62e8 <safe_lshift_func_int8_t_s_s+0x47>
    62d9:	0f be 55 fc          	movsbl -0x4(%rbp),%edx
    62dd:	8b 45 f8             	mov    -0x8(%rbp),%eax
    62e0:	89 c1                	mov    %eax,%ecx
    62e2:	d3 e2                	shl    %cl,%edx
    62e4:	89 d0                	mov    %edx,%eax
    62e6:	eb 04                	jmp    62ec <safe_lshift_func_int8_t_s_s+0x4b>
    62e8:	0f b6 45 fc          	movzbl -0x4(%rbp),%eax
    62ec:	5d                   	pop    %rbp
    62ed:	c3                   	retq   

00000000000062ee <safe_lshift_func_int8_t_s_u>:
    62ee:	f3 0f 1e fa          	endbr64 
    62f2:	55                   	push   %rbp
    62f3:	48 89 e5             	mov    %rsp,%rbp
    62f6:	89 f8                	mov    %edi,%eax
    62f8:	89 75 f8             	mov    %esi,-0x8(%rbp)
    62fb:	88 45 fc             	mov    %al,-0x4(%rbp)
    62fe:	80 7d fc 00          	cmpb   $0x0,-0x4(%rbp)
    6302:	78 2b                	js     632f <safe_lshift_func_int8_t_s_u+0x41>
    6304:	83 7d f8 1f          	cmpl   $0x1f,-0x8(%rbp)
    6308:	77 25                	ja     632f <safe_lshift_func_int8_t_s_u+0x41>
    630a:	0f be 55 fc          	movsbl -0x4(%rbp),%edx
    630e:	8b 45 f8             	mov    -0x8(%rbp),%eax
    6311:	be 7f 00 00 00       	mov    $0x7f,%esi
    6316:	89 c1                	mov    %eax,%ecx
    6318:	d3 fe                	sar    %cl,%esi
    631a:	89 f0                	mov    %esi,%eax
    631c:	39 c2                	cmp    %eax,%edx
    631e:	7f 0f                	jg     632f <safe_lshift_func_int8_t_s_u+0x41>
    6320:	0f be 55 fc          	movsbl -0x4(%rbp),%edx
    6324:	8b 45 f8             	mov    -0x8(%rbp),%eax
    6327:	89 c1                	mov    %eax,%ecx
    6329:	d3 e2                	shl    %cl,%edx
    632b:	89 d0                	mov    %edx,%eax
    632d:	eb 04                	jmp    6333 <safe_lshift_func_int8_t_s_u+0x45>
    632f:	0f b6 45 fc          	movzbl -0x4(%rbp),%eax
    6333:	5d                   	pop    %rbp
    6334:	c3                   	retq   

0000000000006335 <safe_rshift_func_int8_t_s_s>:
    6335:	f3 0f 1e fa          	endbr64 
    6339:	55                   	push   %rbp
    633a:	48 89 e5             	mov    %rsp,%rbp
    633d:	89 f8                	mov    %edi,%eax
    633f:	89 75 f8             	mov    %esi,-0x8(%rbp)
    6342:	88 45 fc             	mov    %al,-0x4(%rbp)
    6345:	80 7d fc 00          	cmpb   $0x0,-0x4(%rbp)
    6349:	78 1b                	js     6366 <safe_rshift_func_int8_t_s_s+0x31>
    634b:	83 7d f8 00          	cmpl   $0x0,-0x8(%rbp)
    634f:	78 15                	js     6366 <safe_rshift_func_int8_t_s_s+0x31>
    6351:	83 7d f8 1f          	cmpl   $0x1f,-0x8(%rbp)
    6355:	7f 0f                	jg     6366 <safe_rshift_func_int8_t_s_s+0x31>
    6357:	0f be 55 fc          	movsbl -0x4(%rbp),%edx
    635b:	8b 45 f8             	mov    -0x8(%rbp),%eax
    635e:	89 c1                	mov    %eax,%ecx
    6360:	d3 fa                	sar    %cl,%edx
    6362:	89 d0                	mov    %edx,%eax
    6364:	eb 04                	jmp    636a <safe_rshift_func_int8_t_s_s+0x35>
    6366:	0f b6 45 fc          	movzbl -0x4(%rbp),%eax
    636a:	5d                   	pop    %rbp
    636b:	c3                   	retq   

000000000000636c <safe_rshift_func_int8_t_s_u>:
    636c:	f3 0f 1e fa          	endbr64 
    6370:	55                   	push   %rbp
    6371:	48 89 e5             	mov    %rsp,%rbp
    6374:	89 f8                	mov    %edi,%eax
    6376:	89 75 f8             	mov    %esi,-0x8(%rbp)
    6379:	88 45 fc             	mov    %al,-0x4(%rbp)
    637c:	80 7d fc 00          	cmpb   $0x0,-0x4(%rbp)
    6380:	78 15                	js     6397 <safe_rshift_func_int8_t_s_u+0x2b>
    6382:	83 7d f8 1f          	cmpl   $0x1f,-0x8(%rbp)
    6386:	77 0f                	ja     6397 <safe_rshift_func_int8_t_s_u+0x2b>
    6388:	0f be 55 fc          	movsbl -0x4(%rbp),%edx
    638c:	8b 45 f8             	mov    -0x8(%rbp),%eax
    638f:	89 c1                	mov    %eax,%ecx
    6391:	d3 fa                	sar    %cl,%edx
    6393:	89 d0                	mov    %edx,%eax
    6395:	eb 04                	jmp    639b <safe_rshift_func_int8_t_s_u+0x2f>
    6397:	0f b6 45 fc          	movzbl -0x4(%rbp),%eax
    639b:	5d                   	pop    %rbp
    639c:	c3                   	retq   

000000000000639d <safe_unary_minus_func_int16_t_s>:
    639d:	f3 0f 1e fa          	endbr64 
    63a1:	55                   	push   %rbp
    63a2:	48 89 e5             	mov    %rsp,%rbp
    63a5:	89 f8                	mov    %edi,%eax
    63a7:	66 89 45 fc          	mov    %ax,-0x4(%rbp)
    63ab:	0f b7 45 fc          	movzwl -0x4(%rbp),%eax
    63af:	f7 d8                	neg    %eax
    63b1:	5d                   	pop    %rbp
    63b2:	c3                   	retq   

00000000000063b3 <safe_add_func_int16_t_s_s>:
    63b3:	f3 0f 1e fa          	endbr64 
    63b7:	55                   	push   %rbp
    63b8:	48 89 e5             	mov    %rsp,%rbp
    63bb:	89 fa                	mov    %edi,%edx
    63bd:	89 f0                	mov    %esi,%eax
    63bf:	66 89 55 fc          	mov    %dx,-0x4(%rbp)
    63c3:	66 89 45 f8          	mov    %ax,-0x8(%rbp)
    63c7:	0f b7 55 fc          	movzwl -0x4(%rbp),%edx
    63cb:	0f b7 45 f8          	movzwl -0x8(%rbp),%eax
    63cf:	01 d0                	add    %edx,%eax
    63d1:	5d                   	pop    %rbp
    63d2:	c3                   	retq   

00000000000063d3 <safe_sub_func_int16_t_s_s>:
    63d3:	f3 0f 1e fa          	endbr64 
    63d7:	55                   	push   %rbp
    63d8:	48 89 e5             	mov    %rsp,%rbp
    63db:	89 fa                	mov    %edi,%edx
    63dd:	89 f0                	mov    %esi,%eax
    63df:	66 89 55 fc          	mov    %dx,-0x4(%rbp)
    63e3:	66 89 45 f8          	mov    %ax,-0x8(%rbp)
    63e7:	0f b7 55 fc          	movzwl -0x4(%rbp),%edx
    63eb:	0f b7 45 f8          	movzwl -0x8(%rbp),%eax
    63ef:	29 c2                	sub    %eax,%edx
    63f1:	89 d0                	mov    %edx,%eax
    63f3:	5d                   	pop    %rbp
    63f4:	c3                   	retq   

00000000000063f5 <safe_mul_func_int16_t_s_s>:
    63f5:	f3 0f 1e fa          	endbr64 
    63f9:	55                   	push   %rbp
    63fa:	48 89 e5             	mov    %rsp,%rbp
    63fd:	89 fa                	mov    %edi,%edx
    63ff:	89 f0                	mov    %esi,%eax
    6401:	66 89 55 fc          	mov    %dx,-0x4(%rbp)
    6405:	66 89 45 f8          	mov    %ax,-0x8(%rbp)
    6409:	0f b7 55 fc          	movzwl -0x4(%rbp),%edx
    640d:	0f b7 45 f8          	movzwl -0x8(%rbp),%eax
    6411:	0f af c2             	imul   %edx,%eax
    6414:	5d                   	pop    %rbp
    6415:	c3                   	retq   

0000000000006416 <safe_mod_func_int16_t_s_s>:
    6416:	f3 0f 1e fa          	endbr64 
    641a:	55                   	push   %rbp
    641b:	48 89 e5             	mov    %rsp,%rbp
    641e:	89 fa                	mov    %edi,%edx
    6420:	89 f0                	mov    %esi,%eax
    6422:	66 89 55 fc          	mov    %dx,-0x4(%rbp)
    6426:	66 89 45 f8          	mov    %ax,-0x8(%rbp)
    642a:	66 83 7d f8 00       	cmpw   $0x0,-0x8(%rbp)
    642f:	74 1e                	je     644f <safe_mod_func_int16_t_s_s+0x39>
    6431:	66 81 7d fc 00 80    	cmpw   $0x8000,-0x4(%rbp)
    6437:	75 07                	jne    6440 <safe_mod_func_int16_t_s_s+0x2a>
    6439:	66 83 7d f8 ff       	cmpw   $0xffff,-0x8(%rbp)
    643e:	74 0f                	je     644f <safe_mod_func_int16_t_s_s+0x39>
    6440:	0f bf 45 fc          	movswl -0x4(%rbp),%eax
    6444:	0f bf 4d f8          	movswl -0x8(%rbp),%ecx
    6448:	99                   	cltd   
    6449:	f7 f9                	idiv   %ecx
    644b:	89 d0                	mov    %edx,%eax
    644d:	eb 04                	jmp    6453 <safe_mod_func_int16_t_s_s+0x3d>
    644f:	0f b7 45 fc          	movzwl -0x4(%rbp),%eax
    6453:	5d                   	pop    %rbp
    6454:	c3                   	retq   

0000000000006455 <safe_div_func_int16_t_s_s>:
    6455:	f3 0f 1e fa          	endbr64 
    6459:	55                   	push   %rbp
    645a:	48 89 e5             	mov    %rsp,%rbp
    645d:	89 fa                	mov    %edi,%edx
    645f:	89 f0                	mov    %esi,%eax
    6461:	66 89 55 fc          	mov    %dx,-0x4(%rbp)
    6465:	66 89 45 f8          	mov    %ax,-0x8(%rbp)
    6469:	66 83 7d f8 00       	cmpw   $0x0,-0x8(%rbp)
    646e:	74 1c                	je     648c <safe_div_func_int16_t_s_s+0x37>
    6470:	66 81 7d fc 00 80    	cmpw   $0x8000,-0x4(%rbp)
    6476:	75 07                	jne    647f <safe_div_func_int16_t_s_s+0x2a>
    6478:	66 83 7d f8 ff       	cmpw   $0xffff,-0x8(%rbp)
    647d:	74 0d                	je     648c <safe_div_func_int16_t_s_s+0x37>
    647f:	0f bf 45 fc          	movswl -0x4(%rbp),%eax
    6483:	0f bf 4d f8          	movswl -0x8(%rbp),%ecx
    6487:	99                   	cltd   
    6488:	f7 f9                	idiv   %ecx
    648a:	eb 04                	jmp    6490 <safe_div_func_int16_t_s_s+0x3b>
    648c:	0f b7 45 fc          	movzwl -0x4(%rbp),%eax
    6490:	5d                   	pop    %rbp
    6491:	c3                   	retq   

0000000000006492 <safe_lshift_func_int16_t_s_s>:
    6492:	f3 0f 1e fa          	endbr64 
    6496:	55                   	push   %rbp
    6497:	48 89 e5             	mov    %rsp,%rbp
    649a:	89 f8                	mov    %edi,%eax
    649c:	89 75 f8             	mov    %esi,-0x8(%rbp)
    649f:	66 89 45 fc          	mov    %ax,-0x4(%rbp)
    64a3:	66 83 7d fc 00       	cmpw   $0x0,-0x4(%rbp)
    64a8:	78 31                	js     64db <safe_lshift_func_int16_t_s_s+0x49>
    64aa:	83 7d f8 00          	cmpl   $0x0,-0x8(%rbp)
    64ae:	78 2b                	js     64db <safe_lshift_func_int16_t_s_s+0x49>
    64b0:	83 7d f8 1f          	cmpl   $0x1f,-0x8(%rbp)
    64b4:	7f 25                	jg     64db <safe_lshift_func_int16_t_s_s+0x49>
    64b6:	0f bf 55 fc          	movswl -0x4(%rbp),%edx
    64ba:	8b 45 f8             	mov    -0x8(%rbp),%eax
    64bd:	be ff 7f 00 00       	mov    $0x7fff,%esi
    64c2:	89 c1                	mov    %eax,%ecx
    64c4:	d3 fe                	sar    %cl,%esi
    64c6:	89 f0                	mov    %esi,%eax
    64c8:	39 c2                	cmp    %eax,%edx
    64ca:	7f 0f                	jg     64db <safe_lshift_func_int16_t_s_s+0x49>
    64cc:	0f bf 55 fc          	movswl -0x4(%rbp),%edx
    64d0:	8b 45 f8             	mov    -0x8(%rbp),%eax
    64d3:	89 c1                	mov    %eax,%ecx
    64d5:	d3 e2                	shl    %cl,%edx
    64d7:	89 d0                	mov    %edx,%eax
    64d9:	eb 04                	jmp    64df <safe_lshift_func_int16_t_s_s+0x4d>
    64db:	0f b7 45 fc          	movzwl -0x4(%rbp),%eax
    64df:	5d                   	pop    %rbp
    64e0:	c3                   	retq   

00000000000064e1 <safe_lshift_func_int16_t_s_u>:
    64e1:	f3 0f 1e fa          	endbr64 
    64e5:	55                   	push   %rbp
    64e6:	48 89 e5             	mov    %rsp,%rbp
    64e9:	89 f8                	mov    %edi,%eax
    64eb:	89 75 f8             	mov    %esi,-0x8(%rbp)
    64ee:	66 89 45 fc          	mov    %ax,-0x4(%rbp)
    64f2:	66 83 7d fc 00       	cmpw   $0x0,-0x4(%rbp)
    64f7:	78 2b                	js     6524 <safe_lshift_func_int16_t_s_u+0x43>
    64f9:	83 7d f8 1f          	cmpl   $0x1f,-0x8(%rbp)
    64fd:	77 25                	ja     6524 <safe_lshift_func_int16_t_s_u+0x43>
    64ff:	0f bf 55 fc          	movswl -0x4(%rbp),%edx
    6503:	8b 45 f8             	mov    -0x8(%rbp),%eax
    6506:	be ff 7f 00 00       	mov    $0x7fff,%esi
    650b:	89 c1                	mov    %eax,%ecx
    650d:	d3 fe                	sar    %cl,%esi
    650f:	89 f0                	mov    %esi,%eax
    6511:	39 c2                	cmp    %eax,%edx
    6513:	7f 0f                	jg     6524 <safe_lshift_func_int16_t_s_u+0x43>
    6515:	0f bf 55 fc          	movswl -0x4(%rbp),%edx
    6519:	8b 45 f8             	mov    -0x8(%rbp),%eax
    651c:	89 c1                	mov    %eax,%ecx
    651e:	d3 e2                	shl    %cl,%edx
    6520:	89 d0                	mov    %edx,%eax
    6522:	eb 04                	jmp    6528 <safe_lshift_func_int16_t_s_u+0x47>
    6524:	0f b7 45 fc          	movzwl -0x4(%rbp),%eax
    6528:	5d                   	pop    %rbp
    6529:	c3                   	retq   

000000000000652a <safe_rshift_func_int16_t_s_s>:
    652a:	f3 0f 1e fa          	endbr64 
    652e:	55                   	push   %rbp
    652f:	48 89 e5             	mov    %rsp,%rbp
    6532:	89 f8                	mov    %edi,%eax
    6534:	89 75 f8             	mov    %esi,-0x8(%rbp)
    6537:	66 89 45 fc          	mov    %ax,-0x4(%rbp)
    653b:	66 83 7d fc 00       	cmpw   $0x0,-0x4(%rbp)
    6540:	78 1b                	js     655d <safe_rshift_func_int16_t_s_s+0x33>
    6542:	83 7d f8 00          	cmpl   $0x0,-0x8(%rbp)
    6546:	78 15                	js     655d <safe_rshift_func_int16_t_s_s+0x33>
    6548:	83 7d f8 1f          	cmpl   $0x1f,-0x8(%rbp)
    654c:	7f 0f                	jg     655d <safe_rshift_func_int16_t_s_s+0x33>
    654e:	0f bf 55 fc          	movswl -0x4(%rbp),%edx
    6552:	8b 45 f8             	mov    -0x8(%rbp),%eax
    6555:	89 c1                	mov    %eax,%ecx
    6557:	d3 fa                	sar    %cl,%edx
    6559:	89 d0                	mov    %edx,%eax
    655b:	eb 04                	jmp    6561 <safe_rshift_func_int16_t_s_s+0x37>
    655d:	0f b7 45 fc          	movzwl -0x4(%rbp),%eax
    6561:	5d                   	pop    %rbp
    6562:	c3                   	retq   

0000000000006563 <safe_rshift_func_int16_t_s_u>:
    6563:	f3 0f 1e fa          	endbr64 
    6567:	55                   	push   %rbp
    6568:	48 89 e5             	mov    %rsp,%rbp
    656b:	89 f8                	mov    %edi,%eax
    656d:	89 75 f8             	mov    %esi,-0x8(%rbp)
    6570:	66 89 45 fc          	mov    %ax,-0x4(%rbp)
    6574:	66 83 7d fc 00       	cmpw   $0x0,-0x4(%rbp)
    6579:	78 15                	js     6590 <safe_rshift_func_int16_t_s_u+0x2d>
    657b:	83 7d f8 1f          	cmpl   $0x1f,-0x8(%rbp)
    657f:	77 0f                	ja     6590 <safe_rshift_func_int16_t_s_u+0x2d>
    6581:	0f bf 55 fc          	movswl -0x4(%rbp),%edx
    6585:	8b 45 f8             	mov    -0x8(%rbp),%eax
    6588:	89 c1                	mov    %eax,%ecx
    658a:	d3 fa                	sar    %cl,%edx
    658c:	89 d0                	mov    %edx,%eax
    658e:	eb 04                	jmp    6594 <safe_rshift_func_int16_t_s_u+0x31>
    6590:	0f b7 45 fc          	movzwl -0x4(%rbp),%eax
    6594:	5d                   	pop    %rbp
    6595:	c3                   	retq   

0000000000006596 <safe_unary_minus_func_int32_t_s>:
    6596:	f3 0f 1e fa          	endbr64 
    659a:	55                   	push   %rbp
    659b:	48 89 e5             	mov    %rsp,%rbp
    659e:	89 7d fc             	mov    %edi,-0x4(%rbp)
    65a1:	81 7d fc 00 00 00 80 	cmpl   $0x80000000,-0x4(%rbp)
    65a8:	74 07                	je     65b1 <safe_unary_minus_func_int32_t_s+0x1b>
    65aa:	8b 45 fc             	mov    -0x4(%rbp),%eax
    65ad:	f7 d8                	neg    %eax
    65af:	eb 03                	jmp    65b4 <safe_unary_minus_func_int32_t_s+0x1e>
    65b1:	8b 45 fc             	mov    -0x4(%rbp),%eax
    65b4:	5d                   	pop    %rbp
    65b5:	c3                   	retq   

00000000000065b6 <safe_add_func_int32_t_s_s>:
    65b6:	f3 0f 1e fa          	endbr64 
    65ba:	55                   	push   %rbp
    65bb:	48 89 e5             	mov    %rsp,%rbp
    65be:	89 7d fc             	mov    %edi,-0x4(%rbp)
    65c1:	89 75 f8             	mov    %esi,-0x8(%rbp)
    65c4:	83 7d fc 00          	cmpl   $0x0,-0x4(%rbp)
    65c8:	7e 13                	jle    65dd <safe_add_func_int32_t_s_s+0x27>
    65ca:	83 7d f8 00          	cmpl   $0x0,-0x8(%rbp)
    65ce:	7e 0d                	jle    65dd <safe_add_func_int32_t_s_s+0x27>
    65d0:	b8 ff ff ff 7f       	mov    $0x7fffffff,%eax
    65d5:	2b 45 f8             	sub    -0x8(%rbp),%eax
    65d8:	39 45 fc             	cmp    %eax,-0x4(%rbp)
    65db:	7f 23                	jg     6600 <safe_add_func_int32_t_s_s+0x4a>
    65dd:	83 7d fc 00          	cmpl   $0x0,-0x4(%rbp)
    65e1:	79 13                	jns    65f6 <safe_add_func_int32_t_s_s+0x40>
    65e3:	83 7d f8 00          	cmpl   $0x0,-0x8(%rbp)
    65e7:	79 0d                	jns    65f6 <safe_add_func_int32_t_s_s+0x40>
    65e9:	b8 00 00 00 80       	mov    $0x80000000,%eax
    65ee:	2b 45 f8             	sub    -0x8(%rbp),%eax
    65f1:	39 45 fc             	cmp    %eax,-0x4(%rbp)
    65f4:	7c 0a                	jl     6600 <safe_add_func_int32_t_s_s+0x4a>
    65f6:	8b 55 fc             	mov    -0x4(%rbp),%edx
    65f9:	8b 45 f8             	mov    -0x8(%rbp),%eax
    65fc:	01 d0                	add    %edx,%eax
    65fe:	eb 03                	jmp    6603 <safe_add_func_int32_t_s_s+0x4d>
    6600:	8b 45 fc             	mov    -0x4(%rbp),%eax
    6603:	5d                   	pop    %rbp
    6604:	c3                   	retq   

0000000000006605 <safe_sub_func_int32_t_s_s>:
    6605:	f3 0f 1e fa          	endbr64 
    6609:	55                   	push   %rbp
    660a:	48 89 e5             	mov    %rsp,%rbp
    660d:	89 7d fc             	mov    %edi,-0x4(%rbp)
    6610:	89 75 f8             	mov    %esi,-0x8(%rbp)
    6613:	8b 45 fc             	mov    -0x4(%rbp),%eax
    6616:	33 45 f8             	xor    -0x8(%rbp),%eax
    6619:	89 c2                	mov    %eax,%edx
    661b:	8b 45 fc             	mov    -0x4(%rbp),%eax
    661e:	33 45 f8             	xor    -0x8(%rbp),%eax
    6621:	25 00 00 00 80       	and    $0x80000000,%eax
    6626:	33 45 fc             	xor    -0x4(%rbp),%eax
    6629:	2b 45 f8             	sub    -0x8(%rbp),%eax
    662c:	33 45 f8             	xor    -0x8(%rbp),%eax
    662f:	21 d0                	and    %edx,%eax
    6631:	85 c0                	test   %eax,%eax
    6633:	78 08                	js     663d <safe_sub_func_int32_t_s_s+0x38>
    6635:	8b 45 fc             	mov    -0x4(%rbp),%eax
    6638:	2b 45 f8             	sub    -0x8(%rbp),%eax
    663b:	eb 03                	jmp    6640 <safe_sub_func_int32_t_s_s+0x3b>
    663d:	8b 45 fc             	mov    -0x4(%rbp),%eax
    6640:	5d                   	pop    %rbp
    6641:	c3                   	retq   

0000000000006642 <safe_mul_func_int32_t_s_s>:
    6642:	f3 0f 1e fa          	endbr64 
    6646:	55                   	push   %rbp
    6647:	48 89 e5             	mov    %rsp,%rbp
    664a:	89 7d fc             	mov    %edi,-0x4(%rbp)
    664d:	89 75 f8             	mov    %esi,-0x8(%rbp)
    6650:	83 7d fc 00          	cmpl   $0x0,-0x4(%rbp)
    6654:	7e 14                	jle    666a <safe_mul_func_int32_t_s_s+0x28>
    6656:	83 7d f8 00          	cmpl   $0x0,-0x8(%rbp)
    665a:	7e 0e                	jle    666a <safe_mul_func_int32_t_s_s+0x28>
    665c:	b8 ff ff ff 7f       	mov    $0x7fffffff,%eax
    6661:	99                   	cltd   
    6662:	f7 7d f8             	idivl  -0x8(%rbp)
    6665:	39 45 fc             	cmp    %eax,-0x4(%rbp)
    6668:	7f 5d                	jg     66c7 <safe_mul_func_int32_t_s_s+0x85>
    666a:	83 7d fc 00          	cmpl   $0x0,-0x4(%rbp)
    666e:	7e 14                	jle    6684 <safe_mul_func_int32_t_s_s+0x42>
    6670:	83 7d f8 00          	cmpl   $0x0,-0x8(%rbp)
    6674:	7f 0e                	jg     6684 <safe_mul_func_int32_t_s_s+0x42>
    6676:	b8 00 00 00 80       	mov    $0x80000000,%eax
    667b:	99                   	cltd   
    667c:	f7 7d fc             	idivl  -0x4(%rbp)
    667f:	39 45 f8             	cmp    %eax,-0x8(%rbp)
    6682:	7c 43                	jl     66c7 <safe_mul_func_int32_t_s_s+0x85>
    6684:	83 7d fc 00          	cmpl   $0x0,-0x4(%rbp)
    6688:	7f 14                	jg     669e <safe_mul_func_int32_t_s_s+0x5c>
    668a:	83 7d f8 00          	cmpl   $0x0,-0x8(%rbp)
    668e:	7e 0e                	jle    669e <safe_mul_func_int32_t_s_s+0x5c>
    6690:	b8 00 00 00 80       	mov    $0x80000000,%eax
    6695:	99                   	cltd   
    6696:	f7 7d f8             	idivl  -0x8(%rbp)
    6699:	39 45 fc             	cmp    %eax,-0x4(%rbp)
    669c:	7c 29                	jl     66c7 <safe_mul_func_int32_t_s_s+0x85>
    669e:	83 7d fc 00          	cmpl   $0x0,-0x4(%rbp)
    66a2:	7f 1a                	jg     66be <safe_mul_func_int32_t_s_s+0x7c>
    66a4:	83 7d f8 00          	cmpl   $0x0,-0x8(%rbp)
    66a8:	7f 14                	jg     66be <safe_mul_func_int32_t_s_s+0x7c>
    66aa:	83 7d fc 00          	cmpl   $0x0,-0x4(%rbp)
    66ae:	74 0e                	je     66be <safe_mul_func_int32_t_s_s+0x7c>
    66b0:	b8 ff ff ff 7f       	mov    $0x7fffffff,%eax
    66b5:	99                   	cltd   
    66b6:	f7 7d fc             	idivl  -0x4(%rbp)
    66b9:	39 45 f8             	cmp    %eax,-0x8(%rbp)
    66bc:	7c 09                	jl     66c7 <safe_mul_func_int32_t_s_s+0x85>
    66be:	8b 45 fc             	mov    -0x4(%rbp),%eax
    66c1:	0f af 45 f8          	imul   -0x8(%rbp),%eax
    66c5:	eb 03                	jmp    66ca <safe_mul_func_int32_t_s_s+0x88>
    66c7:	8b 45 fc             	mov    -0x4(%rbp),%eax
    66ca:	5d                   	pop    %rbp
    66cb:	c3                   	retq   

00000000000066cc <safe_mod_func_int32_t_s_s>:
    66cc:	f3 0f 1e fa          	endbr64 
    66d0:	55                   	push   %rbp
    66d1:	48 89 e5             	mov    %rsp,%rbp
    66d4:	89 7d fc             	mov    %edi,-0x4(%rbp)
    66d7:	89 75 f8             	mov    %esi,-0x8(%rbp)
    66da:	83 7d f8 00          	cmpl   $0x0,-0x8(%rbp)
    66de:	74 1a                	je     66fa <safe_mod_func_int32_t_s_s+0x2e>
    66e0:	81 7d fc 00 00 00 80 	cmpl   $0x80000000,-0x4(%rbp)
    66e7:	75 06                	jne    66ef <safe_mod_func_int32_t_s_s+0x23>
    66e9:	83 7d f8 ff          	cmpl   $0xffffffff,-0x8(%rbp)
    66ed:	74 0b                	je     66fa <safe_mod_func_int32_t_s_s+0x2e>
    66ef:	8b 45 fc             	mov    -0x4(%rbp),%eax
    66f2:	99                   	cltd   
    66f3:	f7 7d f8             	idivl  -0x8(%rbp)
    66f6:	89 d0                	mov    %edx,%eax
    66f8:	eb 03                	jmp    66fd <safe_mod_func_int32_t_s_s+0x31>
    66fa:	8b 45 fc             	mov    -0x4(%rbp),%eax
    66fd:	5d                   	pop    %rbp
    66fe:	c3                   	retq   

00000000000066ff <safe_div_func_int32_t_s_s>:
    66ff:	f3 0f 1e fa          	endbr64 
    6703:	55                   	push   %rbp
    6704:	48 89 e5             	mov    %rsp,%rbp
    6707:	89 7d fc             	mov    %edi,-0x4(%rbp)
    670a:	89 75 f8             	mov    %esi,-0x8(%rbp)
    670d:	83 7d f8 00          	cmpl   $0x0,-0x8(%rbp)
    6711:	74 18                	je     672b <safe_div_func_int32_t_s_s+0x2c>
    6713:	81 7d fc 00 00 00 80 	cmpl   $0x80000000,-0x4(%rbp)
    671a:	75 06                	jne    6722 <safe_div_func_int32_t_s_s+0x23>
    671c:	83 7d f8 ff          	cmpl   $0xffffffff,-0x8(%rbp)
    6720:	74 09                	je     672b <safe_div_func_int32_t_s_s+0x2c>
    6722:	8b 45 fc             	mov    -0x4(%rbp),%eax
    6725:	99                   	cltd   
    6726:	f7 7d f8             	idivl  -0x8(%rbp)
    6729:	eb 03                	jmp    672e <safe_div_func_int32_t_s_s+0x2f>
    672b:	8b 45 fc             	mov    -0x4(%rbp),%eax
    672e:	5d                   	pop    %rbp
    672f:	c3                   	retq   

0000000000006730 <safe_lshift_func_int32_t_s_s>:
    6730:	f3 0f 1e fa          	endbr64 
    6734:	55                   	push   %rbp
    6735:	48 89 e5             	mov    %rsp,%rbp
    6738:	89 7d fc             	mov    %edi,-0x4(%rbp)
    673b:	89 75 f8             	mov    %esi,-0x8(%rbp)
    673e:	83 7d fc 00          	cmpl   $0x0,-0x4(%rbp)
    6742:	78 2d                	js     6771 <safe_lshift_func_int32_t_s_s+0x41>
    6744:	83 7d f8 00          	cmpl   $0x0,-0x8(%rbp)
    6748:	78 27                	js     6771 <safe_lshift_func_int32_t_s_s+0x41>
    674a:	83 7d f8 1f          	cmpl   $0x1f,-0x8(%rbp)
    674e:	7f 21                	jg     6771 <safe_lshift_func_int32_t_s_s+0x41>
    6750:	8b 45 f8             	mov    -0x8(%rbp),%eax
    6753:	ba ff ff ff 7f       	mov    $0x7fffffff,%edx
    6758:	89 c1                	mov    %eax,%ecx
    675a:	d3 fa                	sar    %cl,%edx
    675c:	89 d0                	mov    %edx,%eax
    675e:	39 45 fc             	cmp    %eax,-0x4(%rbp)
    6761:	7f 0e                	jg     6771 <safe_lshift_func_int32_t_s_s+0x41>
    6763:	8b 45 f8             	mov    -0x8(%rbp),%eax
    6766:	8b 55 fc             	mov    -0x4(%rbp),%edx
    6769:	89 c1                	mov    %eax,%ecx
    676b:	d3 e2                	shl    %cl,%edx
    676d:	89 d0                	mov    %edx,%eax
    676f:	eb 03                	jmp    6774 <safe_lshift_func_int32_t_s_s+0x44>
    6771:	8b 45 fc             	mov    -0x4(%rbp),%eax
    6774:	5d                   	pop    %rbp
    6775:	c3                   	retq   

0000000000006776 <safe_lshift_func_int32_t_s_u>:
    6776:	f3 0f 1e fa          	endbr64 
    677a:	55                   	push   %rbp
    677b:	48 89 e5             	mov    %rsp,%rbp
    677e:	89 7d fc             	mov    %edi,-0x4(%rbp)
    6781:	89 75 f8             	mov    %esi,-0x8(%rbp)
    6784:	83 7d fc 00          	cmpl   $0x0,-0x4(%rbp)
    6788:	78 27                	js     67b1 <safe_lshift_func_int32_t_s_u+0x3b>
    678a:	83 7d f8 1f          	cmpl   $0x1f,-0x8(%rbp)
    678e:	77 21                	ja     67b1 <safe_lshift_func_int32_t_s_u+0x3b>
    6790:	8b 45 f8             	mov    -0x8(%rbp),%eax
    6793:	ba ff ff ff 7f       	mov    $0x7fffffff,%edx
    6798:	89 c1                	mov    %eax,%ecx
    679a:	d3 fa                	sar    %cl,%edx
    679c:	89 d0                	mov    %edx,%eax
    679e:	39 45 fc             	cmp    %eax,-0x4(%rbp)
    67a1:	7f 0e                	jg     67b1 <safe_lshift_func_int32_t_s_u+0x3b>
    67a3:	8b 45 f8             	mov    -0x8(%rbp),%eax
    67a6:	8b 55 fc             	mov    -0x4(%rbp),%edx
    67a9:	89 c1                	mov    %eax,%ecx
    67ab:	d3 e2                	shl    %cl,%edx
    67ad:	89 d0                	mov    %edx,%eax
    67af:	eb 03                	jmp    67b4 <safe_lshift_func_int32_t_s_u+0x3e>
    67b1:	8b 45 fc             	mov    -0x4(%rbp),%eax
    67b4:	5d                   	pop    %rbp
    67b5:	c3                   	retq   

00000000000067b6 <safe_rshift_func_int32_t_s_s>:
    67b6:	f3 0f 1e fa          	endbr64 
    67ba:	55                   	push   %rbp
    67bb:	48 89 e5             	mov    %rsp,%rbp
    67be:	89 7d fc             	mov    %edi,-0x4(%rbp)
    67c1:	89 75 f8             	mov    %esi,-0x8(%rbp)
    67c4:	83 7d fc 00          	cmpl   $0x0,-0x4(%rbp)
    67c8:	78 1a                	js     67e4 <safe_rshift_func_int32_t_s_s+0x2e>
    67ca:	83 7d f8 00          	cmpl   $0x0,-0x8(%rbp)
    67ce:	78 14                	js     67e4 <safe_rshift_func_int32_t_s_s+0x2e>
    67d0:	83 7d f8 1f          	cmpl   $0x1f,-0x8(%rbp)
    67d4:	7f 0e                	jg     67e4 <safe_rshift_func_int32_t_s_s+0x2e>
    67d6:	8b 45 f8             	mov    -0x8(%rbp),%eax
    67d9:	8b 55 fc             	mov    -0x4(%rbp),%edx
    67dc:	89 c1                	mov    %eax,%ecx
    67de:	d3 fa                	sar    %cl,%edx
    67e0:	89 d0                	mov    %edx,%eax
    67e2:	eb 03                	jmp    67e7 <safe_rshift_func_int32_t_s_s+0x31>
    67e4:	8b 45 fc             	mov    -0x4(%rbp),%eax
    67e7:	5d                   	pop    %rbp
    67e8:	c3                   	retq   

00000000000067e9 <safe_rshift_func_int32_t_s_u>:
    67e9:	f3 0f 1e fa          	endbr64 
    67ed:	55                   	push   %rbp
    67ee:	48 89 e5             	mov    %rsp,%rbp
    67f1:	89 7d fc             	mov    %edi,-0x4(%rbp)
    67f4:	89 75 f8             	mov    %esi,-0x8(%rbp)
    67f7:	83 7d fc 00          	cmpl   $0x0,-0x4(%rbp)
    67fb:	78 14                	js     6811 <safe_rshift_func_int32_t_s_u+0x28>
    67fd:	83 7d f8 1f          	cmpl   $0x1f,-0x8(%rbp)
    6801:	77 0e                	ja     6811 <safe_rshift_func_int32_t_s_u+0x28>
    6803:	8b 45 f8             	mov    -0x8(%rbp),%eax
    6806:	8b 55 fc             	mov    -0x4(%rbp),%edx
    6809:	89 c1                	mov    %eax,%ecx
    680b:	d3 fa                	sar    %cl,%edx
    680d:	89 d0                	mov    %edx,%eax
    680f:	eb 03                	jmp    6814 <safe_rshift_func_int32_t_s_u+0x2b>
    6811:	8b 45 fc             	mov    -0x4(%rbp),%eax
    6814:	5d                   	pop    %rbp
    6815:	c3                   	retq   

0000000000006816 <safe_unary_minus_func_int64_t_s>:
    6816:	f3 0f 1e fa          	endbr64 
    681a:	55                   	push   %rbp
    681b:	48 89 e5             	mov    %rsp,%rbp
    681e:	48 89 7d f8          	mov    %rdi,-0x8(%rbp)
    6822:	48 b8 00 00 00 00 00 	movabs $0x8000000000000000,%rax
    6829:	00 00 80 
    682c:	48 39 45 f8          	cmp    %rax,-0x8(%rbp)
    6830:	74 09                	je     683b <safe_unary_minus_func_int64_t_s+0x25>
    6832:	48 8b 45 f8          	mov    -0x8(%rbp),%rax
    6836:	48 f7 d8             	neg    %rax
    6839:	eb 04                	jmp    683f <safe_unary_minus_func_int64_t_s+0x29>
    683b:	48 8b 45 f8          	mov    -0x8(%rbp),%rax
    683f:	5d                   	pop    %rbp
    6840:	c3                   	retq   

0000000000006841 <safe_add_func_int64_t_s_s>:
    6841:	f3 0f 1e fa          	endbr64 
    6845:	55                   	push   %rbp
    6846:	48 89 e5             	mov    %rsp,%rbp
    6849:	48 89 7d f8          	mov    %rdi,-0x8(%rbp)
    684d:	48 89 75 f0          	mov    %rsi,-0x10(%rbp)
    6851:	48 83 7d f8 00       	cmpq   $0x0,-0x8(%rbp)
    6856:	7e 1b                	jle    6873 <safe_add_func_int64_t_s_s+0x32>
    6858:	48 83 7d f0 00       	cmpq   $0x0,-0x10(%rbp)
    685d:	7e 14                	jle    6873 <safe_add_func_int64_t_s_s+0x32>
    685f:	48 b8 ff ff ff ff ff 	movabs $0x7fffffffffffffff,%rax
    6866:	ff ff 7f 
    6869:	48 2b 45 f0          	sub    -0x10(%rbp),%rax
    686d:	48 39 45 f8          	cmp    %rax,-0x8(%rbp)
    6871:	7f 2f                	jg     68a2 <safe_add_func_int64_t_s_s+0x61>
    6873:	48 83 7d f8 00       	cmpq   $0x0,-0x8(%rbp)
    6878:	79 1b                	jns    6895 <safe_add_func_int64_t_s_s+0x54>
    687a:	48 83 7d f0 00       	cmpq   $0x0,-0x10(%rbp)
    687f:	79 14                	jns    6895 <safe_add_func_int64_t_s_s+0x54>
    6881:	48 b8 00 00 00 00 00 	movabs $0x8000000000000000,%rax
    6888:	00 00 80 
    688b:	48 2b 45 f0          	sub    -0x10(%rbp),%rax
    688f:	48 39 45 f8          	cmp    %rax,-0x8(%rbp)
    6893:	7c 0d                	jl     68a2 <safe_add_func_int64_t_s_s+0x61>
    6895:	48 8b 55 f8          	mov    -0x8(%rbp),%rdx
    6899:	48 8b 45 f0          	mov    -0x10(%rbp),%rax
    689d:	48 01 d0             	add    %rdx,%rax
    68a0:	eb 04                	jmp    68a6 <safe_add_func_int64_t_s_s+0x65>
    68a2:	48 8b 45 f8          	mov    -0x8(%rbp),%rax
    68a6:	5d                   	pop    %rbp
    68a7:	c3                   	retq   

00000000000068a8 <safe_sub_func_int64_t_s_s>:
    68a8:	f3 0f 1e fa          	endbr64 
    68ac:	55                   	push   %rbp
    68ad:	48 89 e5             	mov    %rsp,%rbp
    68b0:	48 89 7d f8          	mov    %rdi,-0x8(%rbp)
    68b4:	48 89 75 f0          	mov    %rsi,-0x10(%rbp)
    68b8:	48 8b 45 f8          	mov    -0x8(%rbp),%rax
    68bc:	48 33 45 f0          	xor    -0x10(%rbp),%rax
    68c0:	48 89 c2             	mov    %rax,%rdx
    68c3:	48 8b 45 f8          	mov    -0x8(%rbp),%rax
    68c7:	48 33 45 f0          	xor    -0x10(%rbp),%rax
    68cb:	48 b9 00 00 00 00 00 	movabs $0x8000000000000000,%rcx
    68d2:	00 00 80 
    68d5:	48 21 c8             	and    %rcx,%rax
    68d8:	48 33 45 f8          	xor    -0x8(%rbp),%rax
    68dc:	48 2b 45 f0          	sub    -0x10(%rbp),%rax
    68e0:	48 33 45 f0          	xor    -0x10(%rbp),%rax
    68e4:	48 21 d0             	and    %rdx,%rax
    68e7:	48 85 c0             	test   %rax,%rax
    68ea:	78 0a                	js     68f6 <safe_sub_func_int64_t_s_s+0x4e>
    68ec:	48 8b 45 f8          	mov    -0x8(%rbp),%rax
    68f0:	48 2b 45 f0          	sub    -0x10(%rbp),%rax
    68f4:	eb 04                	jmp    68fa <safe_sub_func_int64_t_s_s+0x52>
    68f6:	48 8b 45 f8          	mov    -0x8(%rbp),%rax
    68fa:	5d                   	pop    %rbp
    68fb:	c3                   	retq   

00000000000068fc <safe_mul_func_int64_t_s_s>:
    68fc:	f3 0f 1e fa          	endbr64 
    6900:	55                   	push   %rbp
    6901:	48 89 e5             	mov    %rsp,%rbp
    6904:	48 89 7d f8          	mov    %rdi,-0x8(%rbp)
    6908:	48 89 75 f0          	mov    %rsi,-0x10(%rbp)
    690c:	48 83 7d f8 00       	cmpq   $0x0,-0x8(%rbp)
    6911:	7e 1d                	jle    6930 <safe_mul_func_int64_t_s_s+0x34>
    6913:	48 83 7d f0 00       	cmpq   $0x0,-0x10(%rbp)
    6918:	7e 16                	jle    6930 <safe_mul_func_int64_t_s_s+0x34>
    691a:	48 b8 ff ff ff ff ff 	movabs $0x7fffffffffffffff,%rax
    6921:	ff ff 7f 
    6924:	48 99                	cqto   
    6926:	48 f7 7d f0          	idivq  -0x10(%rbp)
    692a:	48 39 45 f8          	cmp    %rax,-0x8(%rbp)
    692e:	7f 7e                	jg     69ae <safe_mul_func_int64_t_s_s+0xb2>
    6930:	48 83 7d f8 00       	cmpq   $0x0,-0x8(%rbp)
    6935:	7e 1d                	jle    6954 <safe_mul_func_int64_t_s_s+0x58>
    6937:	48 83 7d f0 00       	cmpq   $0x0,-0x10(%rbp)
    693c:	7f 16                	jg     6954 <safe_mul_func_int64_t_s_s+0x58>
    693e:	48 b8 00 00 00 00 00 	movabs $0x8000000000000000,%rax
    6945:	00 00 80 
    6948:	48 99                	cqto   
    694a:	48 f7 7d f8          	idivq  -0x8(%rbp)
    694e:	48 39 45 f0          	cmp    %rax,-0x10(%rbp)
    6952:	7c 5a                	jl     69ae <safe_mul_func_int64_t_s_s+0xb2>
    6954:	48 83 7d f8 00       	cmpq   $0x0,-0x8(%rbp)
    6959:	7f 1d                	jg     6978 <safe_mul_func_int64_t_s_s+0x7c>
    695b:	48 83 7d f0 00       	cmpq   $0x0,-0x10(%rbp)
    6960:	7e 16                	jle    6978 <safe_mul_func_int64_t_s_s+0x7c>
    6962:	48 b8 00 00 00 00 00 	movabs $0x8000000000000000,%rax
    6969:	00 00 80 
    696c:	48 99                	cqto   
    696e:	48 f7 7d f0          	idivq  -0x10(%rbp)
    6972:	48 39 45 f8          	cmp    %rax,-0x8(%rbp)
    6976:	7c 36                	jl     69ae <safe_mul_func_int64_t_s_s+0xb2>
    6978:	48 83 7d f8 00       	cmpq   $0x0,-0x8(%rbp)
    697d:	7f 24                	jg     69a3 <safe_mul_func_int64_t_s_s+0xa7>
    697f:	48 83 7d f0 00       	cmpq   $0x0,-0x10(%rbp)
    6984:	7f 1d                	jg     69a3 <safe_mul_func_int64_t_s_s+0xa7>
    6986:	48 83 7d f8 00       	cmpq   $0x0,-0x8(%rbp)
    698b:	74 16                	je     69a3 <safe_mul_func_int64_t_s_s+0xa7>
    698d:	48 b8 ff ff ff ff ff 	movabs $0x7fffffffffffffff,%rax
    6994:	ff ff 7f 
    6997:	48 99                	cqto   
    6999:	48 f7 7d f8          	idivq  -0x8(%rbp)
    699d:	48 39 45 f0          	cmp    %rax,-0x10(%rbp)
    69a1:	7c 0b                	jl     69ae <safe_mul_func_int64_t_s_s+0xb2>
    69a3:	48 8b 45 f8          	mov    -0x8(%rbp),%rax
    69a7:	48 0f af 45 f0       	imul   -0x10(%rbp),%rax
    69ac:	eb 04                	jmp    69b2 <safe_mul_func_int64_t_s_s+0xb6>
    69ae:	48 8b 45 f8          	mov    -0x8(%rbp),%rax
    69b2:	5d                   	pop    %rbp
    69b3:	c3                   	retq   

00000000000069b4 <safe_mod_func_int64_t_s_s>:
    69b4:	f3 0f 1e fa          	endbr64 
    69b8:	55                   	push   %rbp
    69b9:	48 89 e5             	mov    %rsp,%rbp
    69bc:	48 89 7d f8          	mov    %rdi,-0x8(%rbp)
    69c0:	48 89 75 f0          	mov    %rsi,-0x10(%rbp)
    69c4:	48 83 7d f0 00       	cmpq   $0x0,-0x10(%rbp)
    69c9:	74 26                	je     69f1 <safe_mod_func_int64_t_s_s+0x3d>
    69cb:	48 b8 00 00 00 00 00 	movabs $0x8000000000000000,%rax
    69d2:	00 00 80 
    69d5:	48 39 45 f8          	cmp    %rax,-0x8(%rbp)
    69d9:	75 07                	jne    69e2 <safe_mod_func_int64_t_s_s+0x2e>
    69db:	48 83 7d f0 ff       	cmpq   $0xffffffffffffffff,-0x10(%rbp)
    69e0:	74 0f                	je     69f1 <safe_mod_func_int64_t_s_s+0x3d>
    69e2:	48 8b 45 f8          	mov    -0x8(%rbp),%rax
    69e6:	48 99                	cqto   
    69e8:	48 f7 7d f0          	idivq  -0x10(%rbp)
    69ec:	48 89 d0             	mov    %rdx,%rax
    69ef:	eb 04                	jmp    69f5 <safe_mod_func_int64_t_s_s+0x41>
    69f1:	48 8b 45 f8          	mov    -0x8(%rbp),%rax
    69f5:	5d                   	pop    %rbp
    69f6:	c3                   	retq   

00000000000069f7 <safe_div_func_int64_t_s_s>:
    69f7:	f3 0f 1e fa          	endbr64 
    69fb:	55                   	push   %rbp
    69fc:	48 89 e5             	mov    %rsp,%rbp
    69ff:	48 89 7d f8          	mov    %rdi,-0x8(%rbp)
    6a03:	48 89 75 f0          	mov    %rsi,-0x10(%rbp)
    6a07:	48 83 7d f0 00       	cmpq   $0x0,-0x10(%rbp)
    6a0c:	74 23                	je     6a31 <safe_div_func_int64_t_s_s+0x3a>
    6a0e:	48 b8 00 00 00 00 00 	movabs $0x8000000000000000,%rax
    6a15:	00 00 80 
    6a18:	48 39 45 f8          	cmp    %rax,-0x8(%rbp)
    6a1c:	75 07                	jne    6a25 <safe_div_func_int64_t_s_s+0x2e>
    6a1e:	48 83 7d f0 ff       	cmpq   $0xffffffffffffffff,-0x10(%rbp)
    6a23:	74 0c                	je     6a31 <safe_div_func_int64_t_s_s+0x3a>
    6a25:	48 8b 45 f8          	mov    -0x8(%rbp),%rax
    6a29:	48 99                	cqto   
    6a2b:	48 f7 7d f0          	idivq  -0x10(%rbp)
    6a2f:	eb 04                	jmp    6a35 <safe_div_func_int64_t_s_s+0x3e>
    6a31:	48 8b 45 f8          	mov    -0x8(%rbp),%rax
    6a35:	5d                   	pop    %rbp
    6a36:	c3                   	retq   

0000000000006a37 <safe_lshift_func_int64_t_s_s>:
    6a37:	f3 0f 1e fa          	endbr64 
    6a3b:	55                   	push   %rbp
    6a3c:	48 89 e5             	mov    %rsp,%rbp
    6a3f:	48 89 7d f8          	mov    %rdi,-0x8(%rbp)
    6a43:	89 75 f4             	mov    %esi,-0xc(%rbp)
    6a46:	48 83 7d f8 00       	cmpq   $0x0,-0x8(%rbp)
    6a4b:	78 38                	js     6a85 <safe_lshift_func_int64_t_s_s+0x4e>
    6a4d:	83 7d f4 00          	cmpl   $0x0,-0xc(%rbp)
    6a51:	78 32                	js     6a85 <safe_lshift_func_int64_t_s_s+0x4e>
    6a53:	83 7d f4 1f          	cmpl   $0x1f,-0xc(%rbp)
    6a57:	7f 2c                	jg     6a85 <safe_lshift_func_int64_t_s_s+0x4e>
    6a59:	8b 45 f4             	mov    -0xc(%rbp),%eax
    6a5c:	48 ba ff ff ff ff ff 	movabs $0x7fffffffffffffff,%rdx
    6a63:	ff ff 7f 
    6a66:	89 c1                	mov    %eax,%ecx
    6a68:	48 d3 fa             	sar    %cl,%rdx
    6a6b:	48 89 d0             	mov    %rdx,%rax
    6a6e:	48 39 45 f8          	cmp    %rax,-0x8(%rbp)
    6a72:	7f 11                	jg     6a85 <safe_lshift_func_int64_t_s_s+0x4e>
    6a74:	8b 45 f4             	mov    -0xc(%rbp),%eax
    6a77:	48 8b 55 f8          	mov    -0x8(%rbp),%rdx
    6a7b:	89 c1                	mov    %eax,%ecx
    6a7d:	48 d3 e2             	shl    %cl,%rdx
    6a80:	48 89 d0             	mov    %rdx,%rax
    6a83:	eb 04                	jmp    6a89 <safe_lshift_func_int64_t_s_s+0x52>
    6a85:	48 8b 45 f8          	mov    -0x8(%rbp),%rax
    6a89:	5d                   	pop    %rbp
    6a8a:	c3                   	retq   

0000000000006a8b <safe_lshift_func_int64_t_s_u>:
    6a8b:	f3 0f 1e fa          	endbr64 
    6a8f:	55                   	push   %rbp
    6a90:	48 89 e5             	mov    %rsp,%rbp
    6a93:	48 89 7d f8          	mov    %rdi,-0x8(%rbp)
    6a97:	89 75 f4             	mov    %esi,-0xc(%rbp)
    6a9a:	48 83 7d f8 00       	cmpq   $0x0,-0x8(%rbp)
    6a9f:	78 32                	js     6ad3 <safe_lshift_func_int64_t_s_u+0x48>
    6aa1:	83 7d f4 1f          	cmpl   $0x1f,-0xc(%rbp)
    6aa5:	77 2c                	ja     6ad3 <safe_lshift_func_int64_t_s_u+0x48>
    6aa7:	8b 45 f4             	mov    -0xc(%rbp),%eax
    6aaa:	48 ba ff ff ff ff ff 	movabs $0x7fffffffffffffff,%rdx
    6ab1:	ff ff 7f 
    6ab4:	89 c1                	mov    %eax,%ecx
    6ab6:	48 d3 fa             	sar    %cl,%rdx
    6ab9:	48 89 d0             	mov    %rdx,%rax
    6abc:	48 39 45 f8          	cmp    %rax,-0x8(%rbp)
    6ac0:	7f 11                	jg     6ad3 <safe_lshift_func_int64_t_s_u+0x48>
    6ac2:	8b 45 f4             	mov    -0xc(%rbp),%eax
    6ac5:	48 8b 55 f8          	mov    -0x8(%rbp),%rdx
    6ac9:	89 c1                	mov    %eax,%ecx
    6acb:	48 d3 e2             	shl    %cl,%rdx
    6ace:	48 89 d0             	mov    %rdx,%rax
    6ad1:	eb 04                	jmp    6ad7 <safe_lshift_func_int64_t_s_u+0x4c>
    6ad3:	48 8b 45 f8          	mov    -0x8(%rbp),%rax
    6ad7:	5d                   	pop    %rbp
    6ad8:	c3                   	retq   

0000000000006ad9 <safe_rshift_func_int64_t_s_s>:
    6ad9:	f3 0f 1e fa          	endbr64 
    6add:	55                   	push   %rbp
    6ade:	48 89 e5             	mov    %rsp,%rbp
    6ae1:	48 89 7d f8          	mov    %rdi,-0x8(%rbp)
    6ae5:	89 75 f4             	mov    %esi,-0xc(%rbp)
    6ae8:	48 83 7d f8 00       	cmpq   $0x0,-0x8(%rbp)
    6aed:	78 1d                	js     6b0c <safe_rshift_func_int64_t_s_s+0x33>
    6aef:	83 7d f4 00          	cmpl   $0x0,-0xc(%rbp)
    6af3:	78 17                	js     6b0c <safe_rshift_func_int64_t_s_s+0x33>
    6af5:	83 7d f4 1f          	cmpl   $0x1f,-0xc(%rbp)
    6af9:	7f 11                	jg     6b0c <safe_rshift_func_int64_t_s_s+0x33>
    6afb:	8b 45 f4             	mov    -0xc(%rbp),%eax
    6afe:	48 8b 55 f8          	mov    -0x8(%rbp),%rdx
    6b02:	89 c1                	mov    %eax,%ecx
    6b04:	48 d3 fa             	sar    %cl,%rdx
    6b07:	48 89 d0             	mov    %rdx,%rax
    6b0a:	eb 04                	jmp    6b10 <safe_rshift_func_int64_t_s_s+0x37>
    6b0c:	48 8b 45 f8          	mov    -0x8(%rbp),%rax
    6b10:	5d                   	pop    %rbp
    6b11:	c3                   	retq   

0000000000006b12 <safe_rshift_func_int64_t_s_u>:
    6b12:	f3 0f 1e fa          	endbr64 
    6b16:	55                   	push   %rbp
    6b17:	48 89 e5             	mov    %rsp,%rbp
    6b1a:	48 89 7d f8          	mov    %rdi,-0x8(%rbp)
    6b1e:	89 75 f4             	mov    %esi,-0xc(%rbp)
    6b21:	48 83 7d f8 00       	cmpq   $0x0,-0x8(%rbp)
    6b26:	78 17                	js     6b3f <safe_rshift_func_int64_t_s_u+0x2d>
    6b28:	83 7d f4 1f          	cmpl   $0x1f,-0xc(%rbp)
    6b2c:	77 11                	ja     6b3f <safe_rshift_func_int64_t_s_u+0x2d>
    6b2e:	8b 45 f4             	mov    -0xc(%rbp),%eax
    6b31:	48 8b 55 f8          	mov    -0x8(%rbp),%rdx
    6b35:	89 c1                	mov    %eax,%ecx
    6b37:	48 d3 fa             	sar    %cl,%rdx
    6b3a:	48 89 d0             	mov    %rdx,%rax
    6b3d:	eb 04                	jmp    6b43 <safe_rshift_func_int64_t_s_u+0x31>
    6b3f:	48 8b 45 f8          	mov    -0x8(%rbp),%rax
    6b43:	5d                   	pop    %rbp
    6b44:	c3                   	retq   

0000000000006b45 <safe_unary_minus_func_uint8_t_u>:
    6b45:	f3 0f 1e fa          	endbr64 
    6b49:	55                   	push   %rbp
    6b4a:	48 89 e5             	mov    %rsp,%rbp
    6b4d:	89 f8                	mov    %edi,%eax
    6b4f:	88 45 fc             	mov    %al,-0x4(%rbp)
    6b52:	0f b6 45 fc          	movzbl -0x4(%rbp),%eax
    6b56:	f7 d8                	neg    %eax
    6b58:	5d                   	pop    %rbp
    6b59:	c3                   	retq   

0000000000006b5a <safe_add_func_uint8_t_u_u>:
    6b5a:	f3 0f 1e fa          	endbr64 
    6b5e:	55                   	push   %rbp
    6b5f:	48 89 e5             	mov    %rsp,%rbp
    6b62:	89 fa                	mov    %edi,%edx
    6b64:	89 f0                	mov    %esi,%eax
    6b66:	88 55 fc             	mov    %dl,-0x4(%rbp)
    6b69:	88 45 f8             	mov    %al,-0x8(%rbp)
    6b6c:	0f b6 55 fc          	movzbl -0x4(%rbp),%edx
    6b70:	0f b6 45 f8          	movzbl -0x8(%rbp),%eax
    6b74:	01 d0                	add    %edx,%eax
    6b76:	5d                   	pop    %rbp
    6b77:	c3                   	retq   

0000000000006b78 <safe_sub_func_uint8_t_u_u>:
    6b78:	f3 0f 1e fa          	endbr64 
    6b7c:	55                   	push   %rbp
    6b7d:	48 89 e5             	mov    %rsp,%rbp
    6b80:	89 fa                	mov    %edi,%edx
    6b82:	89 f0                	mov    %esi,%eax
    6b84:	88 55 fc             	mov    %dl,-0x4(%rbp)
    6b87:	88 45 f8             	mov    %al,-0x8(%rbp)
    6b8a:	0f b6 45 fc          	movzbl -0x4(%rbp),%eax
    6b8e:	2a 45 f8             	sub    -0x8(%rbp),%al
    6b91:	5d                   	pop    %rbp
    6b92:	c3                   	retq   

0000000000006b93 <safe_mul_func_uint8_t_u_u>:
    6b93:	f3 0f 1e fa          	endbr64 
    6b97:	55                   	push   %rbp
    6b98:	48 89 e5             	mov    %rsp,%rbp
    6b9b:	89 fa                	mov    %edi,%edx
    6b9d:	89 f0                	mov    %esi,%eax
    6b9f:	88 55 fc             	mov    %dl,-0x4(%rbp)
    6ba2:	88 45 f8             	mov    %al,-0x8(%rbp)
    6ba5:	0f b6 45 fc          	movzbl -0x4(%rbp),%eax
    6ba9:	f6 65 f8             	mulb   -0x8(%rbp)
    6bac:	5d                   	pop    %rbp
    6bad:	c3                   	retq   

0000000000006bae <safe_mod_func_uint8_t_u_u>:
    6bae:	f3 0f 1e fa          	endbr64 
    6bb2:	55                   	push   %rbp
    6bb3:	48 89 e5             	mov    %rsp,%rbp
    6bb6:	89 fa                	mov    %edi,%edx
    6bb8:	89 f0                	mov    %esi,%eax
    6bba:	88 55 fc             	mov    %dl,-0x4(%rbp)
    6bbd:	88 45 f8             	mov    %al,-0x8(%rbp)
    6bc0:	80 7d f8 00          	cmpb   $0x0,-0x8(%rbp)
    6bc4:	74 0f                	je     6bd5 <safe_mod_func_uint8_t_u_u+0x27>
    6bc6:	0f b6 45 fc          	movzbl -0x4(%rbp),%eax
    6bca:	0f b6 c0             	movzbl %al,%eax
    6bcd:	f6 75 f8             	divb   -0x8(%rbp)
    6bd0:	0f b6 c4             	movzbl %ah,%eax
    6bd3:	eb 04                	jmp    6bd9 <safe_mod_func_uint8_t_u_u+0x2b>
    6bd5:	0f b6 45 fc          	movzbl -0x4(%rbp),%eax
    6bd9:	5d                   	pop    %rbp
    6bda:	c3                   	retq   

0000000000006bdb <safe_div_func_uint8_t_u_u>:
    6bdb:	f3 0f 1e fa          	endbr64 
    6bdf:	55                   	push   %rbp
    6be0:	48 89 e5             	mov    %rsp,%rbp
    6be3:	89 fa                	mov    %edi,%edx
    6be5:	89 f0                	mov    %esi,%eax
    6be7:	88 55 fc             	mov    %dl,-0x4(%rbp)
    6bea:	88 45 f8             	mov    %al,-0x8(%rbp)
    6bed:	80 7d f8 00          	cmpb   $0x0,-0x8(%rbp)
    6bf1:	74 0c                	je     6bff <safe_div_func_uint8_t_u_u+0x24>
    6bf3:	0f b6 45 fc          	movzbl -0x4(%rbp),%eax
    6bf7:	0f b6 c0             	movzbl %al,%eax
    6bfa:	f6 75 f8             	divb   -0x8(%rbp)
    6bfd:	eb 04                	jmp    6c03 <safe_div_func_uint8_t_u_u+0x28>
    6bff:	0f b6 45 fc          	movzbl -0x4(%rbp),%eax
    6c03:	5d                   	pop    %rbp
    6c04:	c3                   	retq   

0000000000006c05 <safe_lshift_func_uint8_t_u_s>:
    6c05:	f3 0f 1e fa          	endbr64 
    6c09:	55                   	push   %rbp
    6c0a:	48 89 e5             	mov    %rsp,%rbp
    6c0d:	89 f8                	mov    %edi,%eax
    6c0f:	89 75 f8             	mov    %esi,-0x8(%rbp)
    6c12:	88 45 fc             	mov    %al,-0x4(%rbp)
    6c15:	83 7d f8 00          	cmpl   $0x0,-0x8(%rbp)
    6c19:	78 2b                	js     6c46 <safe_lshift_func_uint8_t_u_s+0x41>
    6c1b:	83 7d f8 1f          	cmpl   $0x1f,-0x8(%rbp)
    6c1f:	7f 25                	jg     6c46 <safe_lshift_func_uint8_t_u_s+0x41>
    6c21:	0f b6 55 fc          	movzbl -0x4(%rbp),%edx
    6c25:	8b 45 f8             	mov    -0x8(%rbp),%eax
    6c28:	be ff 00 00 00       	mov    $0xff,%esi
    6c2d:	89 c1                	mov    %eax,%ecx
    6c2f:	d3 fe                	sar    %cl,%esi
    6c31:	89 f0                	mov    %esi,%eax
    6c33:	39 c2                	cmp    %eax,%edx
    6c35:	7f 0f                	jg     6c46 <safe_lshift_func_uint8_t_u_s+0x41>
    6c37:	0f b6 55 fc          	movzbl -0x4(%rbp),%edx
    6c3b:	8b 45 f8             	mov    -0x8(%rbp),%eax
    6c3e:	89 c1                	mov    %eax,%ecx
    6c40:	d3 e2                	shl    %cl,%edx
    6c42:	89 d0                	mov    %edx,%eax
    6c44:	eb 04                	jmp    6c4a <safe_lshift_func_uint8_t_u_s+0x45>
    6c46:	0f b6 45 fc          	movzbl -0x4(%rbp),%eax
    6c4a:	5d                   	pop    %rbp
    6c4b:	c3                   	retq   

0000000000006c4c <safe_lshift_func_uint8_t_u_u>:
    6c4c:	f3 0f 1e fa          	endbr64 
    6c50:	55                   	push   %rbp
    6c51:	48 89 e5             	mov    %rsp,%rbp
    6c54:	89 f8                	mov    %edi,%eax
    6c56:	89 75 f8             	mov    %esi,-0x8(%rbp)
    6c59:	88 45 fc             	mov    %al,-0x4(%rbp)
    6c5c:	83 7d f8 1f          	cmpl   $0x1f,-0x8(%rbp)
    6c60:	77 25                	ja     6c87 <safe_lshift_func_uint8_t_u_u+0x3b>
    6c62:	0f b6 55 fc          	movzbl -0x4(%rbp),%edx
    6c66:	8b 45 f8             	mov    -0x8(%rbp),%eax
    6c69:	be ff 00 00 00       	mov    $0xff,%esi
    6c6e:	89 c1                	mov    %eax,%ecx
    6c70:	d3 fe                	sar    %cl,%esi
    6c72:	89 f0                	mov    %esi,%eax
    6c74:	39 c2                	cmp    %eax,%edx
    6c76:	7f 0f                	jg     6c87 <safe_lshift_func_uint8_t_u_u+0x3b>
    6c78:	0f b6 55 fc          	movzbl -0x4(%rbp),%edx
    6c7c:	8b 45 f8             	mov    -0x8(%rbp),%eax
    6c7f:	89 c1                	mov    %eax,%ecx
    6c81:	d3 e2                	shl    %cl,%edx
    6c83:	89 d0                	mov    %edx,%eax
    6c85:	eb 04                	jmp    6c8b <safe_lshift_func_uint8_t_u_u+0x3f>
    6c87:	0f b6 45 fc          	movzbl -0x4(%rbp),%eax
    6c8b:	5d                   	pop    %rbp
    6c8c:	c3                   	retq   

0000000000006c8d <safe_rshift_func_uint8_t_u_s>:
    6c8d:	f3 0f 1e fa          	endbr64 
    6c91:	55                   	push   %rbp
    6c92:	48 89 e5             	mov    %rsp,%rbp
    6c95:	89 f8                	mov    %edi,%eax
    6c97:	89 75 f8             	mov    %esi,-0x8(%rbp)
    6c9a:	88 45 fc             	mov    %al,-0x4(%rbp)
    6c9d:	83 7d f8 00          	cmpl   $0x0,-0x8(%rbp)
    6ca1:	78 15                	js     6cb8 <safe_rshift_func_uint8_t_u_s+0x2b>
    6ca3:	83 7d f8 1f          	cmpl   $0x1f,-0x8(%rbp)
    6ca7:	7f 0f                	jg     6cb8 <safe_rshift_func_uint8_t_u_s+0x2b>
    6ca9:	0f b6 55 fc          	movzbl -0x4(%rbp),%edx
    6cad:	8b 45 f8             	mov    -0x8(%rbp),%eax
    6cb0:	89 c1                	mov    %eax,%ecx
    6cb2:	d3 fa                	sar    %cl,%edx
    6cb4:	89 d0                	mov    %edx,%eax
    6cb6:	eb 04                	jmp    6cbc <safe_rshift_func_uint8_t_u_s+0x2f>
    6cb8:	0f b6 45 fc          	movzbl -0x4(%rbp),%eax
    6cbc:	5d                   	pop    %rbp
    6cbd:	c3                   	retq   

0000000000006cbe <safe_rshift_func_uint8_t_u_u>:
    6cbe:	f3 0f 1e fa          	endbr64 
    6cc2:	55                   	push   %rbp
    6cc3:	48 89 e5             	mov    %rsp,%rbp
    6cc6:	89 f8                	mov    %edi,%eax
    6cc8:	89 75 f8             	mov    %esi,-0x8(%rbp)
    6ccb:	88 45 fc             	mov    %al,-0x4(%rbp)
    6cce:	83 7d f8 1f          	cmpl   $0x1f,-0x8(%rbp)
    6cd2:	77 0f                	ja     6ce3 <safe_rshift_func_uint8_t_u_u+0x25>
    6cd4:	0f b6 55 fc          	movzbl -0x4(%rbp),%edx
    6cd8:	8b 45 f8             	mov    -0x8(%rbp),%eax
    6cdb:	89 c1                	mov    %eax,%ecx
    6cdd:	d3 fa                	sar    %cl,%edx
    6cdf:	89 d0                	mov    %edx,%eax
    6ce1:	eb 04                	jmp    6ce7 <safe_rshift_func_uint8_t_u_u+0x29>
    6ce3:	0f b6 45 fc          	movzbl -0x4(%rbp),%eax
    6ce7:	5d                   	pop    %rbp
    6ce8:	c3                   	retq   

0000000000006ce9 <safe_unary_minus_func_uint16_t_u>:
    6ce9:	f3 0f 1e fa          	endbr64 
    6ced:	55                   	push   %rbp
    6cee:	48 89 e5             	mov    %rsp,%rbp
    6cf1:	89 f8                	mov    %edi,%eax
    6cf3:	66 89 45 fc          	mov    %ax,-0x4(%rbp)
    6cf7:	0f b7 45 fc          	movzwl -0x4(%rbp),%eax
    6cfb:	f7 d8                	neg    %eax
    6cfd:	5d                   	pop    %rbp
    6cfe:	c3                   	retq   

0000000000006cff <safe_add_func_uint16_t_u_u>:
    6cff:	f3 0f 1e fa          	endbr64 
    6d03:	55                   	push   %rbp
    6d04:	48 89 e5             	mov    %rsp,%rbp
    6d07:	89 fa                	mov    %edi,%edx
    6d09:	89 f0                	mov    %esi,%eax
    6d0b:	66 89 55 fc          	mov    %dx,-0x4(%rbp)
    6d0f:	66 89 45 f8          	mov    %ax,-0x8(%rbp)
    6d13:	0f b7 55 fc          	movzwl -0x4(%rbp),%edx
    6d17:	0f b7 45 f8          	movzwl -0x8(%rbp),%eax
    6d1b:	01 d0                	add    %edx,%eax
    6d1d:	5d                   	pop    %rbp
    6d1e:	c3                   	retq   

0000000000006d1f <safe_sub_func_uint16_t_u_u>:
    6d1f:	f3 0f 1e fa          	endbr64 
    6d23:	55                   	push   %rbp
    6d24:	48 89 e5             	mov    %rsp,%rbp
    6d27:	89 fa                	mov    %edi,%edx
    6d29:	89 f0                	mov    %esi,%eax
    6d2b:	66 89 55 fc          	mov    %dx,-0x4(%rbp)
    6d2f:	66 89 45 f8          	mov    %ax,-0x8(%rbp)
    6d33:	0f b7 45 fc          	movzwl -0x4(%rbp),%eax
    6d37:	66 2b 45 f8          	sub    -0x8(%rbp),%ax
    6d3b:	5d                   	pop    %rbp
    6d3c:	c3                   	retq   

0000000000006d3d <safe_mul_func_uint16_t_u_u>:
    6d3d:	f3 0f 1e fa          	endbr64 
    6d41:	55                   	push   %rbp
    6d42:	48 89 e5             	mov    %rsp,%rbp
    6d45:	89 fa                	mov    %edi,%edx
    6d47:	89 f0                	mov    %esi,%eax
    6d49:	66 89 55 fc          	mov    %dx,-0x4(%rbp)
    6d4d:	66 89 45 f8          	mov    %ax,-0x8(%rbp)
    6d51:	0f b7 45 fc          	movzwl -0x4(%rbp),%eax
    6d55:	66 0f af 45 f8       	imul   -0x8(%rbp),%ax
    6d5a:	5d                   	pop    %rbp
    6d5b:	c3                   	retq   

0000000000006d5c <safe_mod_func_uint16_t_u_u>:
    6d5c:	f3 0f 1e fa          	endbr64 
    6d60:	55                   	push   %rbp
    6d61:	48 89 e5             	mov    %rsp,%rbp
    6d64:	89 fa                	mov    %edi,%edx
    6d66:	89 f0                	mov    %esi,%eax
    6d68:	66 89 55 fc          	mov    %dx,-0x4(%rbp)
    6d6c:	66 89 45 f8          	mov    %ax,-0x8(%rbp)
    6d70:	66 83 7d f8 00       	cmpw   $0x0,-0x8(%rbp)
    6d75:	74 11                	je     6d88 <safe_mod_func_uint16_t_u_u+0x2c>
    6d77:	0f b7 45 fc          	movzwl -0x4(%rbp),%eax
    6d7b:	ba 00 00 00 00       	mov    $0x0,%edx
    6d80:	66 f7 75 f8          	divw   -0x8(%rbp)
    6d84:	89 d0                	mov    %edx,%eax
    6d86:	eb 04                	jmp    6d8c <safe_mod_func_uint16_t_u_u+0x30>
    6d88:	0f b7 45 fc          	movzwl -0x4(%rbp),%eax
    6d8c:	5d                   	pop    %rbp
    6d8d:	c3                   	retq   

0000000000006d8e <safe_div_func_uint16_t_u_u>:
    6d8e:	f3 0f 1e fa          	endbr64 
    6d92:	55                   	push   %rbp
    6d93:	48 89 e5             	mov    %rsp,%rbp
    6d96:	89 fa                	mov    %edi,%edx
    6d98:	89 f0                	mov    %esi,%eax
    6d9a:	66 89 55 fc          	mov    %dx,-0x4(%rbp)
    6d9e:	66 89 45 f8          	mov    %ax,-0x8(%rbp)
    6da2:	66 83 7d f8 00       	cmpw   $0x0,-0x8(%rbp)
    6da7:	74 0f                	je     6db8 <safe_div_func_uint16_t_u_u+0x2a>
    6da9:	0f b7 45 fc          	movzwl -0x4(%rbp),%eax
    6dad:	ba 00 00 00 00       	mov    $0x0,%edx
    6db2:	66 f7 75 f8          	divw   -0x8(%rbp)
    6db6:	eb 04                	jmp    6dbc <safe_div_func_uint16_t_u_u+0x2e>
    6db8:	0f b7 45 fc          	movzwl -0x4(%rbp),%eax
    6dbc:	5d                   	pop    %rbp
    6dbd:	c3                   	retq   

0000000000006dbe <safe_lshift_func_uint16_t_u_s>:
    6dbe:	f3 0f 1e fa          	endbr64 
    6dc2:	55                   	push   %rbp
    6dc3:	48 89 e5             	mov    %rsp,%rbp
    6dc6:	89 f8                	mov    %edi,%eax
    6dc8:	89 75 f8             	mov    %esi,-0x8(%rbp)
    6dcb:	66 89 45 fc          	mov    %ax,-0x4(%rbp)
    6dcf:	83 7d f8 00          	cmpl   $0x0,-0x8(%rbp)
    6dd3:	78 2b                	js     6e00 <safe_lshift_func_uint16_t_u_s+0x42>
    6dd5:	83 7d f8 1f          	cmpl   $0x1f,-0x8(%rbp)
    6dd9:	7f 25                	jg     6e00 <safe_lshift_func_uint16_t_u_s+0x42>
    6ddb:	0f b7 55 fc          	movzwl -0x4(%rbp),%edx
    6ddf:	8b 45 f8             	mov    -0x8(%rbp),%eax
    6de2:	be ff ff 00 00       	mov    $0xffff,%esi
    6de7:	89 c1                	mov    %eax,%ecx
    6de9:	d3 fe                	sar    %cl,%esi
    6deb:	89 f0                	mov    %esi,%eax
    6ded:	39 c2                	cmp    %eax,%edx
    6def:	7f 0f                	jg     6e00 <safe_lshift_func_uint16_t_u_s+0x42>
    6df1:	0f b7 55 fc          	movzwl -0x4(%rbp),%edx
    6df5:	8b 45 f8             	mov    -0x8(%rbp),%eax
    6df8:	89 c1                	mov    %eax,%ecx
    6dfa:	d3 e2                	shl    %cl,%edx
    6dfc:	89 d0                	mov    %edx,%eax
    6dfe:	eb 04                	jmp    6e04 <safe_lshift_func_uint16_t_u_s+0x46>
    6e00:	0f b7 45 fc          	movzwl -0x4(%rbp),%eax
    6e04:	5d                   	pop    %rbp
    6e05:	c3                   	retq   

0000000000006e06 <safe_lshift_func_uint16_t_u_u>:
    6e06:	f3 0f 1e fa          	endbr64 
    6e0a:	55                   	push   %rbp
    6e0b:	48 89 e5             	mov    %rsp,%rbp
    6e0e:	89 f8                	mov    %edi,%eax
    6e10:	89 75 f8             	mov    %esi,-0x8(%rbp)
    6e13:	66 89 45 fc          	mov    %ax,-0x4(%rbp)
    6e17:	83 7d f8 1f          	cmpl   $0x1f,-0x8(%rbp)
    6e1b:	77 25                	ja     6e42 <safe_lshift_func_uint16_t_u_u+0x3c>
    6e1d:	0f b7 55 fc          	movzwl -0x4(%rbp),%edx
    6e21:	8b 45 f8             	mov    -0x8(%rbp),%eax
    6e24:	be ff ff 00 00       	mov    $0xffff,%esi
    6e29:	89 c1                	mov    %eax,%ecx
    6e2b:	d3 fe                	sar    %cl,%esi
    6e2d:	89 f0                	mov    %esi,%eax
    6e2f:	39 c2                	cmp    %eax,%edx
    6e31:	7f 0f                	jg     6e42 <safe_lshift_func_uint16_t_u_u+0x3c>
    6e33:	0f b7 55 fc          	movzwl -0x4(%rbp),%edx
    6e37:	8b 45 f8             	mov    -0x8(%rbp),%eax
    6e3a:	89 c1                	mov    %eax,%ecx
    6e3c:	d3 e2                	shl    %cl,%edx
    6e3e:	89 d0                	mov    %edx,%eax
    6e40:	eb 04                	jmp    6e46 <safe_lshift_func_uint16_t_u_u+0x40>
    6e42:	0f b7 45 fc          	movzwl -0x4(%rbp),%eax
    6e46:	5d                   	pop    %rbp
    6e47:	c3                   	retq   

0000000000006e48 <safe_rshift_func_uint16_t_u_s>:
    6e48:	f3 0f 1e fa          	endbr64 
    6e4c:	55                   	push   %rbp
    6e4d:	48 89 e5             	mov    %rsp,%rbp
    6e50:	89 f8                	mov    %edi,%eax
    6e52:	89 75 f8             	mov    %esi,-0x8(%rbp)
    6e55:	66 89 45 fc          	mov    %ax,-0x4(%rbp)
    6e59:	83 7d f8 00          	cmpl   $0x0,-0x8(%rbp)
    6e5d:	78 15                	js     6e74 <safe_rshift_func_uint16_t_u_s+0x2c>
    6e5f:	83 7d f8 1f          	cmpl   $0x1f,-0x8(%rbp)
    6e63:	7f 0f                	jg     6e74 <safe_rshift_func_uint16_t_u_s+0x2c>
    6e65:	0f b7 55 fc          	movzwl -0x4(%rbp),%edx
    6e69:	8b 45 f8             	mov    -0x8(%rbp),%eax
    6e6c:	89 c1                	mov    %eax,%ecx
    6e6e:	d3 fa                	sar    %cl,%edx
    6e70:	89 d0                	mov    %edx,%eax
    6e72:	eb 04                	jmp    6e78 <safe_rshift_func_uint16_t_u_s+0x30>
    6e74:	0f b7 45 fc          	movzwl -0x4(%rbp),%eax
    6e78:	5d                   	pop    %rbp
    6e79:	c3                   	retq   

0000000000006e7a <safe_rshift_func_uint16_t_u_u>:
    6e7a:	f3 0f 1e fa          	endbr64 
    6e7e:	55                   	push   %rbp
    6e7f:	48 89 e5             	mov    %rsp,%rbp
    6e82:	89 f8                	mov    %edi,%eax
    6e84:	89 75 f8             	mov    %esi,-0x8(%rbp)
    6e87:	66 89 45 fc          	mov    %ax,-0x4(%rbp)
    6e8b:	83 7d f8 1f          	cmpl   $0x1f,-0x8(%rbp)
    6e8f:	77 0f                	ja     6ea0 <safe_rshift_func_uint16_t_u_u+0x26>
    6e91:	0f b7 55 fc          	movzwl -0x4(%rbp),%edx
    6e95:	8b 45 f8             	mov    -0x8(%rbp),%eax
    6e98:	89 c1                	mov    %eax,%ecx
    6e9a:	d3 fa                	sar    %cl,%edx
    6e9c:	89 d0                	mov    %edx,%eax
    6e9e:	eb 04                	jmp    6ea4 <safe_rshift_func_uint16_t_u_u+0x2a>
    6ea0:	0f b7 45 fc          	movzwl -0x4(%rbp),%eax
    6ea4:	5d                   	pop    %rbp
    6ea5:	c3                   	retq   

0000000000006ea6 <safe_unary_minus_func_uint32_t_u>:
    6ea6:	f3 0f 1e fa          	endbr64 
    6eaa:	55                   	push   %rbp
    6eab:	48 89 e5             	mov    %rsp,%rbp
    6eae:	89 7d fc             	mov    %edi,-0x4(%rbp)
    6eb1:	8b 45 fc             	mov    -0x4(%rbp),%eax
    6eb4:	f7 d8                	neg    %eax
    6eb6:	5d                   	pop    %rbp
    6eb7:	c3                   	retq   

0000000000006eb8 <safe_add_func_uint32_t_u_u>:
    6eb8:	f3 0f 1e fa          	endbr64 
    6ebc:	55                   	push   %rbp
    6ebd:	48 89 e5             	mov    %rsp,%rbp
    6ec0:	89 7d fc             	mov    %edi,-0x4(%rbp)
    6ec3:	89 75 f8             	mov    %esi,-0x8(%rbp)
    6ec6:	8b 55 fc             	mov    -0x4(%rbp),%edx
    6ec9:	8b 45 f8             	mov    -0x8(%rbp),%eax
    6ecc:	01 d0                	add    %edx,%eax
    6ece:	5d                   	pop    %rbp
    6ecf:	c3                   	retq   

0000000000006ed0 <safe_sub_func_uint32_t_u_u>:
    6ed0:	f3 0f 1e fa          	endbr64 
    6ed4:	55                   	push   %rbp
    6ed5:	48 89 e5             	mov    %rsp,%rbp
    6ed8:	89 7d fc             	mov    %edi,-0x4(%rbp)
    6edb:	89 75 f8             	mov    %esi,-0x8(%rbp)
    6ede:	8b 45 fc             	mov    -0x4(%rbp),%eax
    6ee1:	2b 45 f8             	sub    -0x8(%rbp),%eax
    6ee4:	5d                   	pop    %rbp
    6ee5:	c3                   	retq   

0000000000006ee6 <safe_mul_func_uint32_t_u_u>:
    6ee6:	f3 0f 1e fa          	endbr64 
    6eea:	55                   	push   %rbp
    6eeb:	48 89 e5             	mov    %rsp,%rbp
    6eee:	89 7d fc             	mov    %edi,-0x4(%rbp)
    6ef1:	89 75 f8             	mov    %esi,-0x8(%rbp)
    6ef4:	8b 45 fc             	mov    -0x4(%rbp),%eax
    6ef7:	0f af 45 f8          	imul   -0x8(%rbp),%eax
    6efb:	5d                   	pop    %rbp
    6efc:	c3                   	retq   

0000000000006efd <safe_mod_func_uint32_t_u_u>:
    6efd:	f3 0f 1e fa          	endbr64 
    6f01:	55                   	push   %rbp
    6f02:	48 89 e5             	mov    %rsp,%rbp
    6f05:	89 7d fc             	mov    %edi,-0x4(%rbp)
    6f08:	89 75 f8             	mov    %esi,-0x8(%rbp)
    6f0b:	83 7d f8 00          	cmpl   $0x0,-0x8(%rbp)
    6f0f:	74 0f                	je     6f20 <safe_mod_func_uint32_t_u_u+0x23>
    6f11:	8b 45 fc             	mov    -0x4(%rbp),%eax
    6f14:	ba 00 00 00 00       	mov    $0x0,%edx
    6f19:	f7 75 f8             	divl   -0x8(%rbp)
    6f1c:	89 d0                	mov    %edx,%eax
    6f1e:	eb 03                	jmp    6f23 <safe_mod_func_uint32_t_u_u+0x26>
    6f20:	8b 45 fc             	mov    -0x4(%rbp),%eax
    6f23:	5d                   	pop    %rbp
    6f24:	c3                   	retq   

0000000000006f25 <safe_div_func_uint32_t_u_u>:
    6f25:	f3 0f 1e fa          	endbr64 
    6f29:	55                   	push   %rbp
    6f2a:	48 89 e5             	mov    %rsp,%rbp
    6f2d:	89 7d fc             	mov    %edi,-0x4(%rbp)
    6f30:	89 75 f8             	mov    %esi,-0x8(%rbp)
    6f33:	83 7d f8 00          	cmpl   $0x0,-0x8(%rbp)
    6f37:	74 0d                	je     6f46 <safe_div_func_uint32_t_u_u+0x21>
    6f39:	8b 45 fc             	mov    -0x4(%rbp),%eax
    6f3c:	ba 00 00 00 00       	mov    $0x0,%edx
    6f41:	f7 75 f8             	divl   -0x8(%rbp)
    6f44:	eb 03                	jmp    6f49 <safe_div_func_uint32_t_u_u+0x24>
    6f46:	8b 45 fc             	mov    -0x4(%rbp),%eax
    6f49:	5d                   	pop    %rbp
    6f4a:	c3                   	retq   

0000000000006f4b <safe_lshift_func_uint32_t_u_s>:
    6f4b:	f3 0f 1e fa          	endbr64 
    6f4f:	55                   	push   %rbp
    6f50:	48 89 e5             	mov    %rsp,%rbp
    6f53:	89 7d fc             	mov    %edi,-0x4(%rbp)
    6f56:	89 75 f8             	mov    %esi,-0x8(%rbp)
    6f59:	83 7d f8 00          	cmpl   $0x0,-0x8(%rbp)
    6f5d:	78 27                	js     6f86 <safe_lshift_func_uint32_t_u_s+0x3b>
    6f5f:	83 7d f8 1f          	cmpl   $0x1f,-0x8(%rbp)
    6f63:	7f 21                	jg     6f86 <safe_lshift_func_uint32_t_u_s+0x3b>
    6f65:	8b 45 f8             	mov    -0x8(%rbp),%eax
    6f68:	ba ff ff ff ff       	mov    $0xffffffff,%edx
    6f6d:	89 c1                	mov    %eax,%ecx
    6f6f:	d3 ea                	shr    %cl,%edx
    6f71:	89 d0                	mov    %edx,%eax
    6f73:	39 45 fc             	cmp    %eax,-0x4(%rbp)
    6f76:	77 0e                	ja     6f86 <safe_lshift_func_uint32_t_u_s+0x3b>
    6f78:	8b 45 f8             	mov    -0x8(%rbp),%eax
    6f7b:	8b 55 fc             	mov    -0x4(%rbp),%edx
    6f7e:	89 c1                	mov    %eax,%ecx
    6f80:	d3 e2                	shl    %cl,%edx
    6f82:	89 d0                	mov    %edx,%eax
    6f84:	eb 03                	jmp    6f89 <safe_lshift_func_uint32_t_u_s+0x3e>
    6f86:	8b 45 fc             	mov    -0x4(%rbp),%eax
    6f89:	5d                   	pop    %rbp
    6f8a:	c3                   	retq   

0000000000006f8b <safe_lshift_func_uint32_t_u_u>:
    6f8b:	f3 0f 1e fa          	endbr64 
    6f8f:	55                   	push   %rbp
    6f90:	48 89 e5             	mov    %rsp,%rbp
    6f93:	89 7d fc             	mov    %edi,-0x4(%rbp)
    6f96:	89 75 f8             	mov    %esi,-0x8(%rbp)
    6f99:	83 7d f8 1f          	cmpl   $0x1f,-0x8(%rbp)
    6f9d:	77 21                	ja     6fc0 <safe_lshift_func_uint32_t_u_u+0x35>
    6f9f:	8b 45 f8             	mov    -0x8(%rbp),%eax
    6fa2:	ba ff ff ff ff       	mov    $0xffffffff,%edx
    6fa7:	89 c1                	mov    %eax,%ecx
    6fa9:	d3 ea                	shr    %cl,%edx
    6fab:	89 d0                	mov    %edx,%eax
    6fad:	39 45 fc             	cmp    %eax,-0x4(%rbp)
    6fb0:	77 0e                	ja     6fc0 <safe_lshift_func_uint32_t_u_u+0x35>
    6fb2:	8b 45 f8             	mov    -0x8(%rbp),%eax
    6fb5:	8b 55 fc             	mov    -0x4(%rbp),%edx
    6fb8:	89 c1                	mov    %eax,%ecx
    6fba:	d3 e2                	shl    %cl,%edx
    6fbc:	89 d0                	mov    %edx,%eax
    6fbe:	eb 03                	jmp    6fc3 <safe_lshift_func_uint32_t_u_u+0x38>
    6fc0:	8b 45 fc             	mov    -0x4(%rbp),%eax
    6fc3:	5d                   	pop    %rbp
    6fc4:	c3                   	retq   

0000000000006fc5 <safe_rshift_func_uint32_t_u_s>:
    6fc5:	f3 0f 1e fa          	endbr64 
    6fc9:	55                   	push   %rbp
    6fca:	48 89 e5             	mov    %rsp,%rbp
    6fcd:	89 7d fc             	mov    %edi,-0x4(%rbp)
    6fd0:	89 75 f8             	mov    %esi,-0x8(%rbp)
    6fd3:	83 7d f8 00          	cmpl   $0x0,-0x8(%rbp)
    6fd7:	78 14                	js     6fed <safe_rshift_func_uint32_t_u_s+0x28>
    6fd9:	83 7d f8 1f          	cmpl   $0x1f,-0x8(%rbp)
    6fdd:	7f 0e                	jg     6fed <safe_rshift_func_uint32_t_u_s+0x28>
    6fdf:	8b 45 f8             	mov    -0x8(%rbp),%eax
    6fe2:	8b 55 fc             	mov    -0x4(%rbp),%edx
    6fe5:	89 c1                	mov    %eax,%ecx
    6fe7:	d3 ea                	shr    %cl,%edx
    6fe9:	89 d0                	mov    %edx,%eax
    6feb:	eb 03                	jmp    6ff0 <safe_rshift_func_uint32_t_u_s+0x2b>
    6fed:	8b 45 fc             	mov    -0x4(%rbp),%eax
    6ff0:	5d                   	pop    %rbp
    6ff1:	c3                   	retq   

0000000000006ff2 <safe_rshift_func_uint32_t_u_u>:
    6ff2:	f3 0f 1e fa          	endbr64 
    6ff6:	55                   	push   %rbp
    6ff7:	48 89 e5             	mov    %rsp,%rbp
    6ffa:	89 7d fc             	mov    %edi,-0x4(%rbp)
    6ffd:	89 75 f8             	mov    %esi,-0x8(%rbp)
    7000:	83 7d f8 1f          	cmpl   $0x1f,-0x8(%rbp)
    7004:	77 0e                	ja     7014 <safe_rshift_func_uint32_t_u_u+0x22>
    7006:	8b 45 f8             	mov    -0x8(%rbp),%eax
    7009:	8b 55 fc             	mov    -0x4(%rbp),%edx
    700c:	89 c1                	mov    %eax,%ecx
    700e:	d3 ea                	shr    %cl,%edx
    7010:	89 d0                	mov    %edx,%eax
    7012:	eb 03                	jmp    7017 <safe_rshift_func_uint32_t_u_u+0x25>
    7014:	8b 45 fc             	mov    -0x4(%rbp),%eax
    7017:	5d                   	pop    %rbp
    7018:	c3                   	retq   

0000000000007019 <safe_unary_minus_func_uint64_t_u>:
    7019:	f3 0f 1e fa          	endbr64 
    701d:	55                   	push   %rbp
    701e:	48 89 e5             	mov    %rsp,%rbp
    7021:	48 89 7d f8          	mov    %rdi,-0x8(%rbp)
    7025:	48 8b 45 f8          	mov    -0x8(%rbp),%rax
    7029:	48 f7 d8             	neg    %rax
    702c:	5d                   	pop    %rbp
    702d:	c3                   	retq   

000000000000702e <safe_add_func_uint64_t_u_u>:
    702e:	f3 0f 1e fa          	endbr64 
    7032:	55                   	push   %rbp
    7033:	48 89 e5             	mov    %rsp,%rbp
    7036:	48 89 7d f8          	mov    %rdi,-0x8(%rbp)
    703a:	48 89 75 f0          	mov    %rsi,-0x10(%rbp)
    703e:	48 8b 55 f8          	mov    -0x8(%rbp),%rdx
    7042:	48 8b 45 f0          	mov    -0x10(%rbp),%rax
    7046:	48 01 d0             	add    %rdx,%rax
    7049:	5d                   	pop    %rbp
    704a:	c3                   	retq   

000000000000704b <safe_sub_func_uint64_t_u_u>:
    704b:	f3 0f 1e fa          	endbr64 
    704f:	55                   	push   %rbp
    7050:	48 89 e5             	mov    %rsp,%rbp
    7053:	48 89 7d f8          	mov    %rdi,-0x8(%rbp)
    7057:	48 89 75 f0          	mov    %rsi,-0x10(%rbp)
    705b:	48 8b 45 f8          	mov    -0x8(%rbp),%rax
    705f:	48 2b 45 f0          	sub    -0x10(%rbp),%rax
    7063:	5d                   	pop    %rbp
    7064:	c3                   	retq   

0000000000007065 <safe_mul_func_uint64_t_u_u>:
    7065:	f3 0f 1e fa          	endbr64 
    7069:	55                   	push   %rbp
    706a:	48 89 e5             	mov    %rsp,%rbp
    706d:	48 89 7d f8          	mov    %rdi,-0x8(%rbp)
    7071:	48 89 75 f0          	mov    %rsi,-0x10(%rbp)
    7075:	48 8b 45 f8          	mov    -0x8(%rbp),%rax
    7079:	48 0f af 45 f0       	imul   -0x10(%rbp),%rax
    707e:	5d                   	pop    %rbp
    707f:	c3                   	retq   

0000000000007080 <safe_mod_func_uint64_t_u_u>:
    7080:	f3 0f 1e fa          	endbr64 
    7084:	55                   	push   %rbp
    7085:	48 89 e5             	mov    %rsp,%rbp
    7088:	48 89 7d f8          	mov    %rdi,-0x8(%rbp)
    708c:	48 89 75 f0          	mov    %rsi,-0x10(%rbp)
    7090:	48 83 7d f0 00       	cmpq   $0x0,-0x10(%rbp)
    7095:	74 12                	je     70a9 <safe_mod_func_uint64_t_u_u+0x29>
    7097:	48 8b 45 f8          	mov    -0x8(%rbp),%rax
    709b:	ba 00 00 00 00       	mov    $0x0,%edx
    70a0:	48 f7 75 f0          	divq   -0x10(%rbp)
    70a4:	48 89 d0             	mov    %rdx,%rax
    70a7:	eb 04                	jmp    70ad <safe_mod_func_uint64_t_u_u+0x2d>
    70a9:	48 8b 45 f8          	mov    -0x8(%rbp),%rax
    70ad:	5d                   	pop    %rbp
    70ae:	c3                   	retq   

00000000000070af <safe_div_func_uint64_t_u_u>:
    70af:	f3 0f 1e fa          	endbr64 
    70b3:	55                   	push   %rbp
    70b4:	48 89 e5             	mov    %rsp,%rbp
    70b7:	48 89 7d f8          	mov    %rdi,-0x8(%rbp)
    70bb:	48 89 75 f0          	mov    %rsi,-0x10(%rbp)
    70bf:	48 83 7d f0 00       	cmpq   $0x0,-0x10(%rbp)
    70c4:	74 0f                	je     70d5 <safe_div_func_uint64_t_u_u+0x26>
    70c6:	48 8b 45 f8          	mov    -0x8(%rbp),%rax
    70ca:	ba 00 00 00 00       	mov    $0x0,%edx
    70cf:	48 f7 75 f0          	divq   -0x10(%rbp)
    70d3:	eb 04                	jmp    70d9 <safe_div_func_uint64_t_u_u+0x2a>
    70d5:	48 8b 45 f8          	mov    -0x8(%rbp),%rax
    70d9:	5d                   	pop    %rbp
    70da:	c3                   	retq   

00000000000070db <safe_lshift_func_uint64_t_u_s>:
    70db:	f3 0f 1e fa          	endbr64 
    70df:	55                   	push   %rbp
    70e0:	48 89 e5             	mov    %rsp,%rbp
    70e3:	48 89 7d f8          	mov    %rdi,-0x8(%rbp)
    70e7:	89 75 f4             	mov    %esi,-0xc(%rbp)
    70ea:	83 7d f4 00          	cmpl   $0x0,-0xc(%rbp)
    70ee:	78 2f                	js     711f <safe_lshift_func_uint64_t_u_s+0x44>
    70f0:	83 7d f4 1f          	cmpl   $0x1f,-0xc(%rbp)
    70f4:	7f 29                	jg     711f <safe_lshift_func_uint64_t_u_s+0x44>
    70f6:	8b 45 f4             	mov    -0xc(%rbp),%eax
    70f9:	48 c7 c2 ff ff ff ff 	mov    $0xffffffffffffffff,%rdx
    7100:	89 c1                	mov    %eax,%ecx
    7102:	48 d3 ea             	shr    %cl,%rdx
    7105:	48 89 d0             	mov    %rdx,%rax
    7108:	48 39 45 f8          	cmp    %rax,-0x8(%rbp)
    710c:	77 11                	ja     711f <safe_lshift_func_uint64_t_u_s+0x44>
    710e:	8b 45 f4             	mov    -0xc(%rbp),%eax
    7111:	48 8b 55 f8          	mov    -0x8(%rbp),%rdx
    7115:	89 c1                	mov    %eax,%ecx
    7117:	48 d3 e2             	shl    %cl,%rdx
    711a:	48 89 d0             	mov    %rdx,%rax
    711d:	eb 04                	jmp    7123 <safe_lshift_func_uint64_t_u_s+0x48>
    711f:	48 8b 45 f8          	mov    -0x8(%rbp),%rax
    7123:	5d                   	pop    %rbp
    7124:	c3                   	retq   

0000000000007125 <safe_lshift_func_uint64_t_u_u>:
    7125:	f3 0f 1e fa          	endbr64 
    7129:	55                   	push   %rbp
    712a:	48 89 e5             	mov    %rsp,%rbp
    712d:	48 89 7d f8          	mov    %rdi,-0x8(%rbp)
    7131:	89 75 f4             	mov    %esi,-0xc(%rbp)
    7134:	83 7d f4 1f          	cmpl   $0x1f,-0xc(%rbp)
    7138:	77 29                	ja     7163 <safe_lshift_func_uint64_t_u_u+0x3e>
    713a:	8b 45 f4             	mov    -0xc(%rbp),%eax
    713d:	48 c7 c2 ff ff ff ff 	mov    $0xffffffffffffffff,%rdx
    7144:	89 c1                	mov    %eax,%ecx
    7146:	48 d3 ea             	shr    %cl,%rdx
    7149:	48 89 d0             	mov    %rdx,%rax
    714c:	48 39 45 f8          	cmp    %rax,-0x8(%rbp)
    7150:	77 11                	ja     7163 <safe_lshift_func_uint64_t_u_u+0x3e>
    7152:	8b 45 f4             	mov    -0xc(%rbp),%eax
    7155:	48 8b 55 f8          	mov    -0x8(%rbp),%rdx
    7159:	89 c1                	mov    %eax,%ecx
    715b:	48 d3 e2             	shl    %cl,%rdx
    715e:	48 89 d0             	mov    %rdx,%rax
    7161:	eb 04                	jmp    7167 <safe_lshift_func_uint64_t_u_u+0x42>
    7163:	48 8b 45 f8          	mov    -0x8(%rbp),%rax
    7167:	5d                   	pop    %rbp
    7168:	c3                   	retq   

0000000000007169 <safe_rshift_func_uint64_t_u_s>:
    7169:	f3 0f 1e fa          	endbr64 
    716d:	55                   	push   %rbp
    716e:	48 89 e5             	mov    %rsp,%rbp
    7171:	48 89 7d f8          	mov    %rdi,-0x8(%rbp)
    7175:	89 75 f4             	mov    %esi,-0xc(%rbp)
    7178:	83 7d f4 00          	cmpl   $0x0,-0xc(%rbp)
    717c:	78 17                	js     7195 <safe_rshift_func_uint64_t_u_s+0x2c>
    717e:	83 7d f4 1f          	cmpl   $0x1f,-0xc(%rbp)
    7182:	7f 11                	jg     7195 <safe_rshift_func_uint64_t_u_s+0x2c>
    7184:	8b 45 f4             	mov    -0xc(%rbp),%eax
    7187:	48 8b 55 f8          	mov    -0x8(%rbp),%rdx
    718b:	89 c1                	mov    %eax,%ecx
    718d:	48 d3 ea             	shr    %cl,%rdx
    7190:	48 89 d0             	mov    %rdx,%rax
    7193:	eb 04                	jmp    7199 <safe_rshift_func_uint64_t_u_s+0x30>
    7195:	48 8b 45 f8          	mov    -0x8(%rbp),%rax
    7199:	5d                   	pop    %rbp
    719a:	c3                   	retq   

000000000000719b <safe_rshift_func_uint64_t_u_u>:
    719b:	f3 0f 1e fa          	endbr64 
    719f:	55                   	push   %rbp
    71a0:	48 89 e5             	mov    %rsp,%rbp
    71a3:	48 89 7d f8          	mov    %rdi,-0x8(%rbp)
    71a7:	89 75 f4             	mov    %esi,-0xc(%rbp)
    71aa:	83 7d f4 1f          	cmpl   $0x1f,-0xc(%rbp)
    71ae:	77 11                	ja     71c1 <safe_rshift_func_uint64_t_u_u+0x26>
    71b0:	8b 45 f4             	mov    -0xc(%rbp),%eax
    71b3:	48 8b 55 f8          	mov    -0x8(%rbp),%rdx
    71b7:	89 c1                	mov    %eax,%ecx
    71b9:	48 d3 ea             	shr    %cl,%rdx
    71bc:	48 89 d0             	mov    %rdx,%rax
    71bf:	eb 04                	jmp    71c5 <safe_rshift_func_uint64_t_u_u+0x2a>
    71c1:	48 8b 45 f8          	mov    -0x8(%rbp),%rax
    71c5:	5d                   	pop    %rbp
    71c6:	c3                   	retq   

00000000000071c7 <safe_add_func_float_f_f>:
    71c7:	f3 0f 1e fa          	endbr64 
    71cb:	55                   	push   %rbp
    71cc:	48 89 e5             	mov    %rsp,%rbp
    71cf:	f3 0f 11 45 fc       	movss  %xmm0,-0x4(%rbp)
    71d4:	f3 0f 11 4d f8       	movss  %xmm1,-0x8(%rbp)
    71d9:	f3 0f 10 4d fc       	movss  -0x4(%rbp),%xmm1
    71de:	f3 0f 10 05 5e 5b 00 	movss  0x5b5e(%rip),%xmm0        # cd44 <g_1458+0xcd0>
    71e5:	00 
    71e6:	f3 0f 59 c8          	mulss  %xmm0,%xmm1
    71ea:	f3 0f 10 55 f8       	movss  -0x8(%rbp),%xmm2
    71ef:	f3 0f 10 05 4d 5b 00 	movss  0x5b4d(%rip),%xmm0        # cd44 <g_1458+0xcd0>
    71f6:	00 
    71f7:	f3 0f 59 c2          	mulss  %xmm2,%xmm0
    71fb:	f3 0f 58 c1          	addss  %xmm1,%xmm0
    71ff:	f3 0f 10 0d 49 5b 00 	movss  0x5b49(%rip),%xmm1        # cd50 <g_1458+0xcdc>
    7206:	00 
    7207:	0f 54 c1             	andps  %xmm1,%xmm0
    720a:	0f 2f 05 4f 5b 00 00 	comiss 0x5b4f(%rip),%xmm0        # cd60 <g_1458+0xcec>
    7211:	76 07                	jbe    721a <safe_add_func_float_f_f+0x53>
    7213:	f3 0f 10 45 fc       	movss  -0x4(%rbp),%xmm0
    7218:	eb 0a                	jmp    7224 <safe_add_func_float_f_f+0x5d>
    721a:	f3 0f 10 45 fc       	movss  -0x4(%rbp),%xmm0
    721f:	f3 0f 58 45 f8       	addss  -0x8(%rbp),%xmm0
    7224:	5d                   	pop    %rbp
    7225:	c3                   	retq   

0000000000007226 <safe_sub_func_float_f_f>:
    7226:	f3 0f 1e fa          	endbr64 
    722a:	55                   	push   %rbp
    722b:	48 89 e5             	mov    %rsp,%rbp
    722e:	f3 0f 11 45 fc       	movss  %xmm0,-0x4(%rbp)
    7233:	f3 0f 11 4d f8       	movss  %xmm1,-0x8(%rbp)
    7238:	f3 0f 10 4d fc       	movss  -0x4(%rbp),%xmm1
    723d:	f3 0f 10 05 ff 5a 00 	movss  0x5aff(%rip),%xmm0        # cd44 <g_1458+0xcd0>
    7244:	00 
    7245:	f3 0f 59 c1          	mulss  %xmm1,%xmm0
    7249:	f3 0f 10 55 f8       	movss  -0x8(%rbp),%xmm2
    724e:	f3 0f 10 0d ee 5a 00 	movss  0x5aee(%rip),%xmm1        # cd44 <g_1458+0xcd0>
    7255:	00 
    7256:	f3 0f 59 ca          	mulss  %xmm2,%xmm1
    725a:	f3 0f 5c c1          	subss  %xmm1,%xmm0
    725e:	f3 0f 10 0d ea 5a 00 	movss  0x5aea(%rip),%xmm1        # cd50 <g_1458+0xcdc>
    7265:	00 
    7266:	0f 54 c1             	andps  %xmm1,%xmm0
    7269:	0f 2f 05 f0 5a 00 00 	comiss 0x5af0(%rip),%xmm0        # cd60 <g_1458+0xcec>
    7270:	76 07                	jbe    7279 <safe_sub_func_float_f_f+0x53>
    7272:	f3 0f 10 45 fc       	movss  -0x4(%rbp),%xmm0
    7277:	eb 0a                	jmp    7283 <safe_sub_func_float_f_f+0x5d>
    7279:	f3 0f 10 45 fc       	movss  -0x4(%rbp),%xmm0
    727e:	f3 0f 5c 45 f8       	subss  -0x8(%rbp),%xmm0
    7283:	5d                   	pop    %rbp
    7284:	c3                   	retq   

0000000000007285 <safe_mul_func_float_f_f>:
    7285:	f3 0f 1e fa          	endbr64 
    7289:	55                   	push   %rbp
    728a:	48 89 e5             	mov    %rsp,%rbp
    728d:	f3 0f 11 45 fc       	movss  %xmm0,-0x4(%rbp)
    7292:	f3 0f 11 4d f8       	movss  %xmm1,-0x8(%rbp)
    7297:	f3 0f 10 4d fc       	movss  -0x4(%rbp),%xmm1
    729c:	f3 0f 10 05 c0 5a 00 	movss  0x5ac0(%rip),%xmm0        # cd64 <g_1458+0xcf0>
    72a3:	00 
    72a4:	f3 0f 59 c8          	mulss  %xmm0,%xmm1
    72a8:	f3 0f 10 55 f8       	movss  -0x8(%rbp),%xmm2
    72ad:	f3 0f 10 05 b3 5a 00 	movss  0x5ab3(%rip),%xmm0        # cd68 <g_1458+0xcf4>
    72b4:	00 
    72b5:	f3 0f 59 c2          	mulss  %xmm2,%xmm0
    72b9:	f3 0f 59 c1          	mulss  %xmm1,%xmm0
    72bd:	f3 0f 10 0d 8b 5a 00 	movss  0x5a8b(%rip),%xmm1        # cd50 <g_1458+0xcdc>
    72c4:	00 
    72c5:	0f 54 c1             	andps  %xmm1,%xmm0
    72c8:	0f 2f 05 9d 5a 00 00 	comiss 0x5a9d(%rip),%xmm0        # cd6c <g_1458+0xcf8>
    72cf:	76 07                	jbe    72d8 <safe_mul_func_float_f_f+0x53>
    72d1:	f3 0f 10 45 fc       	movss  -0x4(%rbp),%xmm0
    72d6:	eb 0a                	jmp    72e2 <safe_mul_func_float_f_f+0x5d>
    72d8:	f3 0f 10 45 fc       	movss  -0x4(%rbp),%xmm0
    72dd:	f3 0f 59 45 f8       	mulss  -0x8(%rbp),%xmm0
    72e2:	5d                   	pop    %rbp
    72e3:	c3                   	retq   

00000000000072e4 <safe_div_func_float_f_f>:
    72e4:	f3 0f 1e fa          	endbr64 
    72e8:	55                   	push   %rbp
    72e9:	48 89 e5             	mov    %rsp,%rbp
    72ec:	f3 0f 11 45 fc       	movss  %xmm0,-0x4(%rbp)
    72f1:	f3 0f 11 4d f8       	movss  %xmm1,-0x8(%rbp)
    72f6:	f3 0f 10 45 f8       	movss  -0x8(%rbp),%xmm0
    72fb:	f3 0f 10 0d 4d 5a 00 	movss  0x5a4d(%rip),%xmm1        # cd50 <g_1458+0xcdc>
    7302:	00 
    7303:	0f 54 c8             	andps  %xmm0,%xmm1
    7306:	f3 0f 10 05 62 5a 00 	movss  0x5a62(%rip),%xmm0        # cd70 <g_1458+0xcfc>
    730d:	00 
    730e:	0f 2f c1             	comiss %xmm1,%xmm0
    7311:	0f 97 c0             	seta   %al
    7314:	83 f0 01             	xor    $0x1,%eax
    7317:	84 c0                	test   %al,%al
    7319:	75 56                	jne    7371 <safe_div_func_float_f_f+0x8d>
    731b:	66 0f ef c0          	pxor   %xmm0,%xmm0
    731f:	0f 2e 45 f8          	ucomiss -0x8(%rbp),%xmm0
    7323:	7a 0a                	jp     732f <safe_div_func_float_f_f+0x4b>
    7325:	66 0f ef c0          	pxor   %xmm0,%xmm0
    7329:	0f 2e 45 f8          	ucomiss -0x8(%rbp),%xmm0
    732d:	74 4e                	je     737d <safe_div_func_float_f_f+0x99>
    732f:	f3 0f 10 4d fc       	movss  -0x4(%rbp),%xmm1
    7334:	f3 0f 10 05 38 5a 00 	movss  0x5a38(%rip),%xmm0        # cd74 <g_1458+0xd00>
    733b:	00 
    733c:	f3 0f 59 c1          	mulss  %xmm1,%xmm0
    7340:	f3 0f 10 55 f8       	movss  -0x8(%rbp),%xmm2
    7345:	f3 0f 10 0d 2b 5a 00 	movss  0x5a2b(%rip),%xmm1        # cd78 <g_1458+0xd04>
    734c:	00 
    734d:	f3 0f 59 ca          	mulss  %xmm2,%xmm1
    7351:	f3 0f 5e c1          	divss  %xmm1,%xmm0
    7355:	f3 0f 10 0d f3 59 00 	movss  0x59f3(%rip),%xmm1        # cd50 <g_1458+0xcdc>
    735c:	00 
    735d:	0f 54 c1             	andps  %xmm1,%xmm0
    7360:	0f 2f 05 15 5a 00 00 	comiss 0x5a15(%rip),%xmm0        # cd7c <g_1458+0xd08>
    7367:	0f 97 c0             	seta   %al
    736a:	83 f0 01             	xor    $0x1,%eax
    736d:	84 c0                	test   %al,%al
    736f:	74 0c                	je     737d <safe_div_func_float_f_f+0x99>
    7371:	f3 0f 10 45 fc       	movss  -0x4(%rbp),%xmm0
    7376:	f3 0f 5e 45 f8       	divss  -0x8(%rbp),%xmm0
    737b:	eb 05                	jmp    7382 <safe_div_func_float_f_f+0x9e>
    737d:	f3 0f 10 45 fc       	movss  -0x4(%rbp),%xmm0
    7382:	5d                   	pop    %rbp
    7383:	c3                   	retq   

0000000000007384 <safe_add_func_double_f_f>:
    7384:	f3 0f 1e fa          	endbr64 
    7388:	55                   	push   %rbp
    7389:	48 89 e5             	mov    %rsp,%rbp
    738c:	f2 0f 11 45 f8       	movsd  %xmm0,-0x8(%rbp)
    7391:	f2 0f 11 4d f0       	movsd  %xmm1,-0x10(%rbp)
    7396:	f2 0f 10 4d f8       	movsd  -0x8(%rbp),%xmm1
    739b:	f2 0f 10 05 dd 59 00 	movsd  0x59dd(%rip),%xmm0        # cd80 <g_1458+0xd0c>
    73a2:	00 
    73a3:	f2 0f 59 c8          	mulsd  %xmm0,%xmm1
    73a7:	f2 0f 10 55 f0       	movsd  -0x10(%rbp),%xmm2
    73ac:	f2 0f 10 05 cc 59 00 	movsd  0x59cc(%rip),%xmm0        # cd80 <g_1458+0xd0c>
    73b3:	00 
    73b4:	f2 0f 59 c2          	mulsd  %xmm2,%xmm0
    73b8:	f2 0f 58 c1          	addsd  %xmm1,%xmm0
    73bc:	f3 0f 7e 0d cc 59 00 	movq   0x59cc(%rip),%xmm1        # cd90 <g_1458+0xd1c>
    73c3:	00 
    73c4:	66 0f 54 c1          	andpd  %xmm1,%xmm0
    73c8:	66 0f 2f 05 d0 59 00 	comisd 0x59d0(%rip),%xmm0        # cda0 <g_1458+0xd2c>
    73cf:	00 
    73d0:	76 07                	jbe    73d9 <safe_add_func_double_f_f+0x55>
    73d2:	f2 0f 10 45 f8       	movsd  -0x8(%rbp),%xmm0
    73d7:	eb 0a                	jmp    73e3 <safe_add_func_double_f_f+0x5f>
    73d9:	f2 0f 10 45 f8       	movsd  -0x8(%rbp),%xmm0
    73de:	f2 0f 58 45 f0       	addsd  -0x10(%rbp),%xmm0
    73e3:	5d                   	pop    %rbp
    73e4:	c3                   	retq   

00000000000073e5 <safe_sub_func_double_f_f>:
    73e5:	f3 0f 1e fa          	endbr64 
    73e9:	55                   	push   %rbp
    73ea:	48 89 e5             	mov    %rsp,%rbp
    73ed:	f2 0f 11 45 f8       	movsd  %xmm0,-0x8(%rbp)
    73f2:	f2 0f 11 4d f0       	movsd  %xmm1,-0x10(%rbp)
    73f7:	f2 0f 10 4d f8       	movsd  -0x8(%rbp),%xmm1
    73fc:	f2 0f 10 05 7c 59 00 	movsd  0x597c(%rip),%xmm0        # cd80 <g_1458+0xd0c>
    7403:	00 
    7404:	f2 0f 59 c1          	mulsd  %xmm1,%xmm0
    7408:	f2 0f 10 55 f0       	movsd  -0x10(%rbp),%xmm2
    740d:	f2 0f 10 0d 6b 59 00 	movsd  0x596b(%rip),%xmm1        # cd80 <g_1458+0xd0c>
    7414:	00 
    7415:	f2 0f 59 ca          	mulsd  %xmm2,%xmm1
    7419:	f2 0f 5c c1          	subsd  %xmm1,%xmm0
    741d:	f3 0f 7e 0d 6b 59 00 	movq   0x596b(%rip),%xmm1        # cd90 <g_1458+0xd1c>
    7424:	00 
    7425:	66 0f 54 c1          	andpd  %xmm1,%xmm0
    7429:	66 0f 2f 05 6f 59 00 	comisd 0x596f(%rip),%xmm0        # cda0 <g_1458+0xd2c>
    7430:	00 
    7431:	76 07                	jbe    743a <safe_sub_func_double_f_f+0x55>
    7433:	f2 0f 10 45 f8       	movsd  -0x8(%rbp),%xmm0
    7438:	eb 0a                	jmp    7444 <safe_sub_func_double_f_f+0x5f>
    743a:	f2 0f 10 45 f8       	movsd  -0x8(%rbp),%xmm0
    743f:	f2 0f 5c 45 f0       	subsd  -0x10(%rbp),%xmm0
    7444:	5d                   	pop    %rbp
    7445:	c3                   	retq   

0000000000007446 <safe_mul_func_double_f_f>:
    7446:	f3 0f 1e fa          	endbr64 
    744a:	55                   	push   %rbp
    744b:	48 89 e5             	mov    %rsp,%rbp
    744e:	f2 0f 11 45 f8       	movsd  %xmm0,-0x8(%rbp)
    7453:	f2 0f 11 4d f0       	movsd  %xmm1,-0x10(%rbp)
    7458:	f2 0f 10 4d f8       	movsd  -0x8(%rbp),%xmm1
    745d:	f2 0f 10 05 43 59 00 	movsd  0x5943(%rip),%xmm0        # cda8 <g_1458+0xd34>
    7464:	00 
    7465:	f2 0f 59 c8          	mulsd  %xmm0,%xmm1
    7469:	f2 0f 10 55 f0       	movsd  -0x10(%rbp),%xmm2
    746e:	f2 0f 10 05 3a 59 00 	movsd  0x593a(%rip),%xmm0        # cdb0 <g_1458+0xd3c>
    7475:	00 
    7476:	f2 0f 59 c2          	mulsd  %xmm2,%xmm0
    747a:	f2 0f 59 c1          	mulsd  %xmm1,%xmm0
    747e:	f3 0f 7e 0d 0a 59 00 	movq   0x590a(%rip),%xmm1        # cd90 <g_1458+0xd1c>
    7485:	00 
    7486:	66 0f 54 c1          	andpd  %xmm1,%xmm0
    748a:	66 0f 2f 05 26 59 00 	comisd 0x5926(%rip),%xmm0        # cdb8 <g_1458+0xd44>
    7491:	00 
    7492:	76 07                	jbe    749b <safe_mul_func_double_f_f+0x55>
    7494:	f2 0f 10 45 f8       	movsd  -0x8(%rbp),%xmm0
    7499:	eb 0a                	jmp    74a5 <safe_mul_func_double_f_f+0x5f>
    749b:	f2 0f 10 45 f8       	movsd  -0x8(%rbp),%xmm0
    74a0:	f2 0f 59 45 f0       	mulsd  -0x10(%rbp),%xmm0
    74a5:	5d                   	pop    %rbp
    74a6:	c3                   	retq   

00000000000074a7 <safe_div_func_double_f_f>:
    74a7:	f3 0f 1e fa          	endbr64 
    74ab:	55                   	push   %rbp
    74ac:	48 89 e5             	mov    %rsp,%rbp
    74af:	f2 0f 11 45 f8       	movsd  %xmm0,-0x8(%rbp)
    74b4:	f2 0f 11 4d f0       	movsd  %xmm1,-0x10(%rbp)
    74b9:	f2 0f 10 45 f0       	movsd  -0x10(%rbp),%xmm0
    74be:	f3 0f 7e 0d ca 58 00 	movq   0x58ca(%rip),%xmm1        # cd90 <g_1458+0xd1c>
    74c5:	00 
    74c6:	66 0f 54 c8          	andpd  %xmm0,%xmm1
    74ca:	f2 0f 10 05 ee 58 00 	movsd  0x58ee(%rip),%xmm0        # cdc0 <g_1458+0xd4c>
    74d1:	00 
    74d2:	66 0f 2f c1          	comisd %xmm1,%xmm0
    74d6:	0f 97 c0             	seta   %al
    74d9:	83 f0 01             	xor    $0x1,%eax
    74dc:	84 c0                	test   %al,%al
    74de:	75 5a                	jne    753a <safe_div_func_double_f_f+0x93>
    74e0:	66 0f ef c0          	pxor   %xmm0,%xmm0
    74e4:	66 0f 2e 45 f0       	ucomisd -0x10(%rbp),%xmm0
    74e9:	7a 0b                	jp     74f6 <safe_div_func_double_f_f+0x4f>
    74eb:	66 0f ef c0          	pxor   %xmm0,%xmm0
    74ef:	66 0f 2e 45 f0       	ucomisd -0x10(%rbp),%xmm0
    74f4:	74 50                	je     7546 <safe_div_func_double_f_f+0x9f>
    74f6:	f2 0f 10 4d f8       	movsd  -0x8(%rbp),%xmm1
    74fb:	f2 0f 10 05 c5 58 00 	movsd  0x58c5(%rip),%xmm0        # cdc8 <g_1458+0xd54>
    7502:	00 
    7503:	f2 0f 59 c1          	mulsd  %xmm1,%xmm0
    7507:	f2 0f 10 55 f0       	movsd  -0x10(%rbp),%xmm2
    750c:	f2 0f 10 0d bc 58 00 	movsd  0x58bc(%rip),%xmm1        # cdd0 <g_1458+0xd5c>
    7513:	00 
    7514:	f2 0f 59 ca          	mulsd  %xmm2,%xmm1
    7518:	f2 0f 5e c1          	divsd  %xmm1,%xmm0
    751c:	f3 0f 7e 0d 6c 58 00 	movq   0x586c(%rip),%xmm1        # cd90 <g_1458+0xd1c>
    7523:	00 
    7524:	66 0f 54 c1          	andpd  %xmm1,%xmm0
    7528:	66 0f 2f 05 a8 58 00 	comisd 0x58a8(%rip),%xmm0        # cdd8 <g_1458+0xd64>
    752f:	00 
    7530:	0f 97 c0             	seta   %al
    7533:	83 f0 01             	xor    $0x1,%eax
    7536:	84 c0                	test   %al,%al
    7538:	74 0c                	je     7546 <safe_div_func_double_f_f+0x9f>
    753a:	f2 0f 10 45 f8       	movsd  -0x8(%rbp),%xmm0
    753f:	f2 0f 5e 45 f0       	divsd  -0x10(%rbp),%xmm0
    7544:	eb 05                	jmp    754b <safe_div_func_double_f_f+0xa4>
    7546:	f2 0f 10 45 f8       	movsd  -0x8(%rbp),%xmm0
    754b:	5d                   	pop    %rbp
    754c:	c3                   	retq   

000000000000754d <safe_convert_func_float_to_int32_t>:
    754d:	f3 0f 1e fa          	endbr64 
    7551:	55                   	push   %rbp
    7552:	48 89 e5             	mov    %rsp,%rbp
    7555:	f3 0f 11 45 fc       	movss  %xmm0,-0x4(%rbp)
    755a:	f3 0f 10 05 7e 58 00 	movss  0x587e(%rip),%xmm0        # cde0 <g_1458+0xd6c>
    7561:	00 
    7562:	0f 2f 45 fc          	comiss -0x4(%rbp),%xmm0
    7566:	0f 93 c0             	setae  %al
    7569:	83 f0 01             	xor    $0x1,%eax
    756c:	84 c0                	test   %al,%al
    756e:	74 21                	je     7591 <safe_convert_func_float_to_int32_t+0x44>
    7570:	f3 0f 10 45 fc       	movss  -0x4(%rbp),%xmm0
    7575:	0f 2f 05 68 58 00 00 	comiss 0x5868(%rip),%xmm0        # cde4 <g_1458+0xd70>
    757c:	0f 93 c0             	setae  %al
    757f:	83 f0 01             	xor    $0x1,%eax
    7582:	84 c0                	test   %al,%al
    7584:	74 0b                	je     7591 <safe_convert_func_float_to_int32_t+0x44>
    7586:	f3 0f 10 45 fc       	movss  -0x4(%rbp),%xmm0
    758b:	f3 0f 2c c0          	cvttss2si %xmm0,%eax
    758f:	eb 05                	jmp    7596 <safe_convert_func_float_to_int32_t+0x49>
    7591:	b8 ff ff ff 7f       	mov    $0x7fffffff,%eax
    7596:	5d                   	pop    %rbp
    7597:	c3                   	retq   

0000000000007598 <crc32_gentab>:
    7598:	f3 0f 1e fa          	endbr64 
    759c:	55                   	push   %rbp
    759d:	48 89 e5             	mov    %rsp,%rbp
    75a0:	c7 45 fc 20 83 b8 ed 	movl   $0xedb88320,-0x4(%rbp)
    75a7:	c7 45 f4 00 00 00 00 	movl   $0x0,-0xc(%rbp)
    75ae:	eb 51                	jmp    7601 <crc32_gentab+0x69>
    75b0:	8b 45 f4             	mov    -0xc(%rbp),%eax
    75b3:	89 45 f0             	mov    %eax,-0x10(%rbp)
    75b6:	c7 45 f8 08 00 00 00 	movl   $0x8,-0x8(%rbp)
    75bd:	eb 1e                	jmp    75dd <crc32_gentab+0x45>
    75bf:	8b 45 f0             	mov    -0x10(%rbp),%eax
    75c2:	83 e0 01             	and    $0x1,%eax
    75c5:	85 c0                	test   %eax,%eax
    75c7:	74 0d                	je     75d6 <crc32_gentab+0x3e>
    75c9:	8b 45 f0             	mov    -0x10(%rbp),%eax
    75cc:	d1 e8                	shr    %eax
    75ce:	33 45 fc             	xor    -0x4(%rbp),%eax
    75d1:	89 45 f0             	mov    %eax,-0x10(%rbp)
    75d4:	eb 03                	jmp    75d9 <crc32_gentab+0x41>
    75d6:	d1 6d f0             	shrl   -0x10(%rbp)
    75d9:	83 6d f8 01          	subl   $0x1,-0x8(%rbp)
    75dd:	83 7d f8 00          	cmpl   $0x0,-0x8(%rbp)
    75e1:	7f dc                	jg     75bf <crc32_gentab+0x27>
    75e3:	8b 45 f4             	mov    -0xc(%rbp),%eax
    75e6:	48 98                	cltq   
    75e8:	48 8d 0c 85 00 00 00 	lea    0x0(,%rax,4),%rcx
    75ef:	00 
    75f0:	48 8d 15 a9 b3 00 00 	lea    0xb3a9(%rip),%rdx        # 129a0 <crc32_tab>
    75f7:	8b 45 f0             	mov    -0x10(%rbp),%eax
    75fa:	89 04 11             	mov    %eax,(%rcx,%rdx,1)
    75fd:	83 45 f4 01          	addl   $0x1,-0xc(%rbp)
    7601:	81 7d f4 ff 00 00 00 	cmpl   $0xff,-0xc(%rbp)
    7608:	7e a6                	jle    75b0 <crc32_gentab+0x18>
    760a:	90                   	nop
    760b:	90                   	nop
    760c:	5d                   	pop    %rbp
    760d:	c3                   	retq   

000000000000760e <crc32_byte>:
    760e:	f3 0f 1e fa          	endbr64 
    7612:	55                   	push   %rbp
    7613:	48 89 e5             	mov    %rsp,%rbp
    7616:	89 f8                	mov    %edi,%eax
    7618:	88 45 fc             	mov    %al,-0x4(%rbp)
    761b:	8b 05 ff 89 00 00    	mov    0x89ff(%rip),%eax        # 10020 <crc32_context>
    7621:	c1 e8 08             	shr    $0x8,%eax
    7624:	89 c1                	mov    %eax,%ecx
    7626:	0f b6 55 fc          	movzbl -0x4(%rbp),%edx
    762a:	8b 05 f0 89 00 00    	mov    0x89f0(%rip),%eax        # 10020 <crc32_context>
    7630:	31 d0                	xor    %edx,%eax
    7632:	0f b6 c0             	movzbl %al,%eax
    7635:	89 c0                	mov    %eax,%eax
    7637:	48 8d 14 85 00 00 00 	lea    0x0(,%rax,4),%rdx
    763e:	00 
    763f:	48 8d 05 5a b3 00 00 	lea    0xb35a(%rip),%rax        # 129a0 <crc32_tab>
    7646:	8b 04 02             	mov    (%rdx,%rax,1),%eax
    7649:	31 c8                	xor    %ecx,%eax
    764b:	89 05 cf 89 00 00    	mov    %eax,0x89cf(%rip)        # 10020 <crc32_context>
    7651:	90                   	nop
    7652:	5d                   	pop    %rbp
    7653:	c3                   	retq   

0000000000007654 <crc32_8bytes>:
    7654:	f3 0f 1e fa          	endbr64 
    7658:	55                   	push   %rbp
    7659:	48 89 e5             	mov    %rsp,%rbp
    765c:	48 83 ec 08          	sub    $0x8,%rsp
    7660:	48 89 7d f8          	mov    %rdi,-0x8(%rbp)
    7664:	48 8b 45 f8          	mov    -0x8(%rbp),%rax
    7668:	0f b6 c0             	movzbl %al,%eax
    766b:	89 c7                	mov    %eax,%edi
    766d:	e8 9c ff ff ff       	callq  760e <crc32_byte>
    7672:	48 8b 45 f8          	mov    -0x8(%rbp),%rax
    7676:	48 c1 e8 08          	shr    $0x8,%rax
    767a:	0f b6 c0             	movzbl %al,%eax
    767d:	89 c7                	mov    %eax,%edi
    767f:	e8 8a ff ff ff       	callq  760e <crc32_byte>
    7684:	48 8b 45 f8          	mov    -0x8(%rbp),%rax
    7688:	48 c1 e8 10          	shr    $0x10,%rax
    768c:	0f b6 c0             	movzbl %al,%eax
    768f:	89 c7                	mov    %eax,%edi
    7691:	e8 78 ff ff ff       	callq  760e <crc32_byte>
    7696:	48 8b 45 f8          	mov    -0x8(%rbp),%rax
    769a:	48 c1 e8 18          	shr    $0x18,%rax
    769e:	0f b6 c0             	movzbl %al,%eax
    76a1:	89 c7                	mov    %eax,%edi
    76a3:	e8 66 ff ff ff       	callq  760e <crc32_byte>
    76a8:	48 8b 45 f8          	mov    -0x8(%rbp),%rax
    76ac:	48 c1 e8 20          	shr    $0x20,%rax
    76b0:	0f b6 c0             	movzbl %al,%eax
    76b3:	89 c7                	mov    %eax,%edi
    76b5:	e8 54 ff ff ff       	callq  760e <crc32_byte>
    76ba:	48 8b 45 f8          	mov    -0x8(%rbp),%rax
    76be:	48 c1 e8 28          	shr    $0x28,%rax
    76c2:	0f b6 c0             	movzbl %al,%eax
    76c5:	89 c7                	mov    %eax,%edi
    76c7:	e8 42 ff ff ff       	callq  760e <crc32_byte>
    76cc:	48 8b 45 f8          	mov    -0x8(%rbp),%rax
    76d0:	48 c1 e8 30          	shr    $0x30,%rax
    76d4:	0f b6 c0             	movzbl %al,%eax
    76d7:	89 c7                	mov    %eax,%edi
    76d9:	e8 30 ff ff ff       	callq  760e <crc32_byte>
    76de:	48 8b 45 f8          	mov    -0x8(%rbp),%rax
    76e2:	48 c1 e8 38          	shr    $0x38,%rax
    76e6:	0f b6 c0             	movzbl %al,%eax
    76e9:	89 c7                	mov    %eax,%edi
    76eb:	e8 1e ff ff ff       	callq  760e <crc32_byte>
    76f0:	90                   	nop
    76f1:	c9                   	leaveq 
    76f2:	c3                   	retq   

00000000000076f3 <transparent_crc>:
    76f3:	f3 0f 1e fa          	endbr64 
    76f7:	55                   	push   %rbp
    76f8:	48 89 e5             	mov    %rsp,%rbp
    76fb:	48 83 ec 20          	sub    $0x20,%rsp
    76ff:	48 89 7d f8          	mov    %rdi,-0x8(%rbp)
    7703:	48 89 75 f0          	mov    %rsi,-0x10(%rbp)
    7707:	89 55 ec             	mov    %edx,-0x14(%rbp)
    770a:	48 8b 45 f8          	mov    -0x8(%rbp),%rax
    770e:	48 89 c7             	mov    %rax,%rdi
    7711:	e8 3e ff ff ff       	callq  7654 <crc32_8bytes>
    7716:	83 7d ec 00          	cmpl   $0x0,-0x14(%rbp)
    771a:	74 22                	je     773e <transparent_crc+0x4b>
    771c:	8b 05 fe 88 00 00    	mov    0x88fe(%rip),%eax        # 10020 <crc32_context>
    7722:	f7 d0                	not    %eax
    7724:	89 c2                	mov    %eax,%edx
    7726:	48 8b 45 f0          	mov    -0x10(%rbp),%rax
    772a:	48 89 c6             	mov    %rax,%rsi
    772d:	48 8d 3d fc 48 00 00 	lea    0x48fc(%rip),%rdi        # c030 <_IO_stdin_used+0x30>
    7734:	b8 00 00 00 00       	mov    $0x0,%eax
    7739:	e8 42 e9 ff ff       	callq  6080 <printf@plt>
    773e:	90                   	nop
    773f:	c9                   	leaveq 
    7740:	c3                   	retq   

0000000000007741 <transparent_crc_bytes>:
    7741:	f3 0f 1e fa          	endbr64 
    7745:	55                   	push   %rbp
    7746:	48 89 e5             	mov    %rsp,%rbp
    7749:	48 83 ec 30          	sub    $0x30,%rsp
    774d:	48 89 7d e8          	mov    %rdi,-0x18(%rbp)
    7751:	89 75 e4             	mov    %esi,-0x1c(%rbp)
    7754:	48 89 55 d8          	mov    %rdx,-0x28(%rbp)
    7758:	89 4d e0             	mov    %ecx,-0x20(%rbp)
    775b:	c7 45 fc 00 00 00 00 	movl   $0x0,-0x4(%rbp)
    7762:	eb 1e                	jmp    7782 <transparent_crc_bytes+0x41>
    7764:	8b 45 fc             	mov    -0x4(%rbp),%eax
    7767:	48 63 d0             	movslq %eax,%rdx
    776a:	48 8b 45 e8          	mov    -0x18(%rbp),%rax
    776e:	48 01 d0             	add    %rdx,%rax
    7771:	0f b6 00             	movzbl (%rax),%eax
    7774:	0f b6 c0             	movzbl %al,%eax
    7777:	89 c7                	mov    %eax,%edi
    7779:	e8 90 fe ff ff       	callq  760e <crc32_byte>
    777e:	83 45 fc 01          	addl   $0x1,-0x4(%rbp)
    7782:	8b 45 fc             	mov    -0x4(%rbp),%eax
    7785:	3b 45 e4             	cmp    -0x1c(%rbp),%eax
    7788:	7c da                	jl     7764 <transparent_crc_bytes+0x23>
    778a:	83 7d e0 00          	cmpl   $0x0,-0x20(%rbp)
    778e:	74 22                	je     77b2 <transparent_crc_bytes+0x71>
    7790:	8b 05 8a 88 00 00    	mov    0x888a(%rip),%eax        # 10020 <crc32_context>
    7796:	f7 d0                	not    %eax
    7798:	89 c2                	mov    %eax,%edx
    779a:	48 8b 45 d8          	mov    -0x28(%rbp),%rax
    779e:	48 89 c6             	mov    %rax,%rsi
    77a1:	48 8d 3d 88 48 00 00 	lea    0x4888(%rip),%rdi        # c030 <_IO_stdin_used+0x30>
    77a8:	b8 00 00 00 00       	mov    $0x0,%eax
    77ad:	e8 ce e8 ff ff       	callq  6080 <printf@plt>
    77b2:	90                   	nop
    77b3:	c9                   	leaveq 
    77b4:	c3                   	retq   

00000000000077b5 <func_1>:
    77b5:	f3 0f 1e fa          	endbr64 
    77b9:	55                   	push   %rbp
    77ba:	48 89 e5             	mov    %rsp,%rbp
    77bd:	41 57                	push   %r15
    77bf:	41 56                	push   %r14
    77c1:	41 55                	push   %r13
    77c3:	41 54                	push   %r12
    77c5:	53                   	push   %rbx
    77c6:	48 81 ec c8 05 00 00 	sub    $0x5c8,%rsp
    77cd:	64 48 8b 04 25 28 00 	mov    %fs:0x28,%rax
    77d4:	00 00 
    77d6:	48 89 45 c8          	mov    %rax,-0x38(%rbp)
    77da:	31 c0                	xor    %eax,%eax
    77dc:	c6 85 24 fa ff ff d5 	movb   $0xd5,-0x5dc(%rbp)
    77e3:	48 8d 05 3a 88 00 00 	lea    0x883a(%rip),%rax        # 10024 <g_32>
    77ea:	48 89 85 e0 fa ff ff 	mov    %rax,-0x520(%rbp)
    77f1:	48 8d 05 2c 88 00 00 	lea    0x882c(%rip),%rax        # 10024 <g_32>
    77f8:	48 89 85 e8 fa ff ff 	mov    %rax,-0x518(%rbp)
    77ff:	48 8d 05 1e 88 00 00 	lea    0x881e(%rip),%rax        # 10024 <g_32>
    7806:	48 89 85 f0 fa ff ff 	mov    %rax,-0x510(%rbp)
    780d:	48 8d 05 10 88 00 00 	lea    0x8810(%rip),%rax        # 10024 <g_32>
    7814:	48 89 85 f8 fa ff ff 	mov    %rax,-0x508(%rbp)
    781b:	48 8d 05 02 88 00 00 	lea    0x8802(%rip),%rax        # 10024 <g_32>
    7822:	48 89 85 00 fb ff ff 	mov    %rax,-0x500(%rbp)
    7829:	48 8d 05 f4 87 00 00 	lea    0x87f4(%rip),%rax        # 10024 <g_32>
    7830:	48 89 85 08 fb ff ff 	mov    %rax,-0x4f8(%rbp)
    7837:	48 c7 85 38 fa ff ff 	movq   $0x5,-0x5c8(%rbp)
    783e:	05 00 00 00 
    7842:	48 8d 05 0f 8e 00 00 	lea    0x8e0f(%rip),%rax        # 10658 <g_504+0x18>
    7849:	48 89 85 40 fa ff ff 	mov    %rax,-0x5c0(%rbp)
    7850:	c7 85 60 fa ff ff e1 	movl   $0xfde8afe1,-0x5a0(%rbp)
    7857:	af e8 fd 
    785a:	c7 85 64 fa ff ff 76 	movl   $0x53667276,-0x59c(%rbp)
    7861:	72 66 53 
    7864:	8b 85 68 fa ff ff    	mov    -0x598(%rbp),%eax
    786a:	25 00 00 f8 ff       	and    $0xfff80000,%eax
    786f:	0d 0f 01 00 00       	or     $0x10f,%eax
    7874:	89 85 68 fa ff ff    	mov    %eax,-0x598(%rbp)
    787a:	c7 85 6c fa ff ff 00 	movl   $0x0,-0x594(%rbp)
    7881:	00 00 00 
    7884:	8b 85 70 fa ff ff    	mov    -0x590(%rbp),%eax
    788a:	25 00 00 00 fe       	and    $0xfe000000,%eax
    788f:	0d f6 03 00 00       	or     $0x3f6,%eax
    7894:	89 85 70 fa ff ff    	mov    %eax,-0x590(%rbp)
    789a:	c6 85 25 fa ff ff 51 	movb   $0x51,-0x5db(%rbp)
    78a1:	c7 85 30 fa ff ff 43 	movl   $0xe56b7443,-0x5d0(%rbp)
    78a8:	74 6b e5 
    78ab:	c7 85 34 fa ff ff 2d 	movl   $0x3dba8c2d,-0x5cc(%rbp)
    78b2:	8c ba 3d 
    78b5:	48 b8 5e d5 0b 40 b7 	movabs $0x9bf2e9b7400bd55e,%rax
    78bc:	e9 f2 9b 
    78bf:	48 89 85 48 fa ff ff 	mov    %rax,-0x5b8(%rbp)
    78c6:	48 8b 05 f3 a2 00 00 	mov    0xa2f3(%rip),%rax        # 11bc0 <g_115>
    78cd:	0f b6 00             	movzbl (%rax),%eax
    78d0:	0f b6 c0             	movzbl %al,%eax
    78d3:	89 85 1c fa ff ff    	mov    %eax,-0x5e4(%rbp)
    78d9:	0f b6 05 82 87 00 00 	movzbl 0x8782(%rip),%eax        # 10062 <g_120>
    78e0:	0f be d8             	movsbl %al,%ebx
    78e3:	44 0f b6 a5 25 fa ff 	movzbl -0x5db(%rbp),%r12d
    78ea:	ff 
    78eb:	48 8b 85 40 fa ff ff 	mov    -0x5c0(%rbp),%rax
    78f2:	8b 00                	mov    (%rax),%eax
    78f4:	44 0f b6 e8          	movzbl %al,%r13d
    78f8:	80 bd 24 fa ff ff 00 	cmpb   $0x0,-0x5dc(%rbp)
    78ff:	0f 95 c0             	setne  %al
    7902:	44 0f b6 f8          	movzbl %al,%r15d
    7906:	48 8b 05 db ac 00 00 	mov    0xacdb(%rip),%rax        # 125e8 <g_653>
    790d:	4c 8b 30             	mov    (%rax),%r14
    7910:	48 8b 85 38 fa ff ff 	mov    -0x5c8(%rbp),%rax
    7917:	0f b6 d0             	movzbl %al,%edx
    791a:	48 8b 05 ef ab 00 00 	mov    0xabef(%rip),%rax        # 12510 <g_563>
    7921:	48 8b 00             	mov    (%rax),%rax
    7924:	48 85 c0             	test   %rax,%rax
    7927:	0f 95 c0             	setne  %al
    792a:	0f b6 c0             	movzbl %al,%eax
    792d:	89 d6                	mov    %edx,%esi
    792f:	89 c7                	mov    %eax,%edi
    7931:	e8 24 f2 ff ff       	callq  6b5a <safe_add_func_uint8_t_u_u>
    7936:	0f be c0             	movsbl %al,%eax
    7939:	be b9 ff ff ff       	mov    $0xffffffb9,%esi
    793e:	89 c7                	mov    %eax,%edi
    7940:	e8 cd e8 ff ff       	callq  6212 <safe_mul_func_int8_t_s_s>
    7945:	48 8d 05 8c a2 00 00 	lea    0xa28c(%rip),%rax        # 11bd8 <g_236>
    794c:	48 8b 00             	mov    (%rax),%rax
    794f:	8b 00                	mov    (%rax),%eax
    7951:	89 c0                	mov    %eax,%eax
    7953:	48 be 0d 62 ee 30 3e 	movabs $0x613cea3e30ee620d,%rsi
    795a:	ea 3c 61 
    795d:	48 89 c7             	mov    %rax,%rdi
    7960:	e8 e6 f6 ff ff       	callq  704b <safe_sub_func_uint64_t_u_u>
    7965:	89 85 18 fa ff ff    	mov    %eax,-0x5e8(%rbp)
    796b:	48 8b 95 e8 fa ff ff 	mov    -0x518(%rbp),%rdx
    7972:	0f b6 8d 24 fa ff ff 	movzbl -0x5dc(%rbp),%ecx
    7979:	48 8d 85 a0 fa ff ff 	lea    -0x560(%rbp),%rax
    7980:	89 ce                	mov    %ecx,%esi
    7982:	48 89 c7             	mov    %rax,%rdi
    7985:	e8 d8 11 00 00       	callq  8b62 <func_28>
    798a:	48 83 ec 08          	sub    $0x8,%rsp
    798e:	48 83 ec 18          	sub    $0x18,%rsp
    7992:	48 89 e1             	mov    %rsp,%rcx
    7995:	48 8b 85 a0 fa ff ff 	mov    -0x560(%rbp),%rax
    799c:	48 8b 95 a8 fa ff ff 	mov    -0x558(%rbp),%rdx
    79a3:	48 89 01             	mov    %rax,(%rcx)
    79a6:	48 89 51 08          	mov    %rdx,0x8(%rcx)
    79aa:	8b 85 b0 fa ff ff    	mov    -0x550(%rbp),%eax
    79b0:	89 41 10             	mov    %eax,0x10(%rcx)
    79b3:	4c 89 f6             	mov    %r14,%rsi
    79b6:	8b bd 18 fa ff ff    	mov    -0x5e8(%rbp),%edi
    79bc:	e8 e9 10 00 00       	callq  8aaa <func_24>
    79c1:	48 83 c4 20          	add    $0x20,%rsp
    79c5:	0f b7 c0             	movzwl %ax,%eax
    79c8:	be 0e 00 00 00       	mov    $0xe,%esi
    79cd:	89 c7                	mov    %eax,%edi
    79cf:	e8 32 f4 ff ff       	callq  6e06 <safe_lshift_func_uint16_t_u_u>
    79d4:	0f b7 c0             	movzwl %ax,%eax
    79d7:	8b 15 87 8c 00 00    	mov    0x8c87(%rip),%edx        # 10664 <g_504+0x24>
    79dd:	81 e2 ff ff ff 01    	and    $0x1ffffff,%edx
    79e3:	39 d0                	cmp    %edx,%eax
    79e5:	0f 94 c0             	sete   %al
    79e8:	0f b6 c0             	movzbl %al,%eax
    79eb:	41 39 c7             	cmp    %eax,%r15d
    79ee:	0f 9f c0             	setg   %al
    79f1:	0f b6 c0             	movzbl %al,%eax
    79f4:	48 8b 95 40 fa ff ff 	mov    -0x5c0(%rbp),%rdx
    79fb:	48 8b 8d 40 fa ff ff 	mov    -0x5c0(%rbp),%rcx
    7a02:	48 89 ce             	mov    %rcx,%rsi
    7a05:	89 c7                	mov    %eax,%edi
    7a07:	e8 ef 0f 00 00       	callq  89fb <func_17>
    7a0c:	48 89 c7             	mov    %rax,%rdi
    7a0f:	48 8b b5 40 fa ff ff 	mov    -0x5c0(%rbp),%rsi
    7a16:	48 83 ec 18          	sub    $0x18,%rsp
    7a1a:	48 89 e1             	mov    %rsp,%rcx
    7a1d:	48 8b 85 60 fa ff ff 	mov    -0x5a0(%rbp),%rax
    7a24:	48 8b 95 68 fa ff ff 	mov    -0x598(%rbp),%rdx
    7a2b:	48 89 01             	mov    %rax,(%rcx)
    7a2e:	48 89 51 08          	mov    %rdx,0x8(%rcx)
    7a32:	8b 85 70 fa ff ff    	mov    -0x590(%rbp),%eax
    7a38:	89 41 10             	mov    %eax,0x10(%rcx)
    7a3b:	48 83 ec 18          	sub    $0x18,%rsp
    7a3f:	48 89 e1             	mov    %rsp,%rcx
    7a42:	48 8b 05 17 46 00 00 	mov    0x4617(%rip),%rax        # c060 <g_502>
    7a49:	48 8b 15 18 46 00 00 	mov    0x4618(%rip),%rdx        # c068 <g_502+0x8>
    7a50:	48 89 01             	mov    %rax,(%rcx)
    7a53:	48 89 51 08          	mov    %rdx,0x8(%rcx)
    7a57:	8b 05 13 46 00 00    	mov    0x4613(%rip),%eax        # c070 <g_502+0x10>
    7a5d:	89 41 10             	mov    %eax,0x10(%rcx)
    7a60:	44 89 ea             	mov    %r13d,%edx
    7a63:	e8 1e 0f 00 00       	callq  8986 <func_11>
    7a68:	48 83 c4 30          	add    $0x30,%rsp
    7a6c:	4c 89 e6             	mov    %r12,%rsi
    7a6f:	48 89 c7             	mov    %rax,%rdi
    7a72:	e8 09 f6 ff ff       	callq  7080 <safe_mod_func_uint64_t_u_u>
    7a77:	0f be c0             	movsbl %al,%eax
    7a7a:	bf 00 00 00 00       	mov    $0x0,%edi
    7a7f:	4c 8b 25 f2 ae 00 00 	mov    0xaef2(%rip),%r12        # 12978 <g_1390>
    7a86:	48 8b 95 40 fa ff ff 	mov    -0x5c0(%rbp),%rdx
    7a8d:	44 8b 85 1c fa ff ff 	mov    -0x5e4(%rbp),%r8d
    7a94:	89 d9                	mov    %ebx,%ecx
    7a96:	89 c6                	mov    %eax,%esi
    7a98:	e8 d4 04 00 00       	callq  7f71 <func_2>
    7a9d:	49 89 04 24          	mov    %rax,(%r12)
    7aa1:	66 c7 05 42 8c 00 00 	movw   $0x0,0x8c42(%rip)        # 106ec <g_1071>
    7aa8:	00 00 
    7aaa:	e9 77 04 00 00       	jmpq   7f26 <func_1+0x771>
    7aaf:	c7 85 b0 fb ff ff 01 	movl   $0x1,-0x450(%rbp)
    7ab6:	00 00 00 
    7ab9:	c7 85 b4 fb ff ff 3e 	movl   $0xe53ec53e,-0x44c(%rbp)
    7ac0:	c5 3e e5 
    7ac3:	c7 85 b8 fb ff ff 1d 	movl   $0xe192e31d,-0x448(%rbp)
    7aca:	e3 92 e1 
    7acd:	c7 85 bc fb ff ff 3e 	movl   $0xe53ec53e,-0x444(%rbp)
    7ad4:	c5 3e e5 
    7ad7:	c7 85 c0 fb ff ff 3e 	movl   $0xe53ec53e,-0x440(%rbp)
    7ade:	c5 3e e5 
    7ae1:	c7 85 c4 fb ff ff c3 	movl   $0x55174ac3,-0x43c(%rbp)
    7ae8:	4a 17 55 
    7aeb:	c7 85 c8 fb ff ff 79 	movl   $0xcaae9279,-0x438(%rbp)
    7af2:	92 ae ca 
    7af5:	c7 85 cc fb ff ff 3e 	movl   $0xe53ec53e,-0x434(%rbp)
    7afc:	c5 3e e5 
    7aff:	c7 85 d0 fb ff ff 79 	movl   $0xcaae9279,-0x430(%rbp)
    7b06:	92 ae ca 
    7b09:	c7 85 d4 fb ff ff 3e 	movl   $0xe53ec53e,-0x42c(%rbp)
    7b10:	c5 3e e5 
    7b13:	c7 85 d8 fb ff ff d2 	movl   $0x7352ffd2,-0x428(%rbp)
    7b1a:	ff 52 73 
    7b1d:	c7 85 dc fb ff ff d2 	movl   $0x7352ffd2,-0x424(%rbp)
    7b24:	ff 52 73 
    7b27:	c7 85 e0 fb ff ff ec 	movl   $0xffe096ec,-0x420(%rbp)
    7b2e:	96 e0 ff 
    7b31:	c7 85 e4 fb ff ff ec 	movl   $0xffe096ec,-0x41c(%rbp)
    7b38:	96 e0 ff 
    7b3b:	c7 85 e8 fb ff ff 1d 	movl   $0xe192e31d,-0x418(%rbp)
    7b42:	e3 92 e1 
    7b45:	c7 85 ec fb ff ff 01 	movl   $0x1,-0x414(%rbp)
    7b4c:	00 00 00 
    7b4f:	c7 85 f0 fb ff ff ec 	movl   $0xffe096ec,-0x410(%rbp)
    7b56:	96 e0 ff 
    7b59:	c7 85 f4 fb ff ff c3 	movl   $0x55174ac3,-0x40c(%rbp)
    7b60:	4a 17 55 
    7b63:	c7 85 f8 fb ff ff d2 	movl   $0x7352ffd2,-0x408(%rbp)
    7b6a:	ff 52 73 
    7b6d:	c7 85 fc fb ff ff ec 	movl   $0xffe096ec,-0x404(%rbp)
    7b74:	96 e0 ff 
    7b77:	c7 85 00 fc ff ff 79 	movl   $0xcaae9279,-0x400(%rbp)
    7b7e:	92 ae ca 
    7b81:	c7 85 04 fc ff ff 01 	movl   $0x1,-0x3fc(%rbp)
    7b88:	00 00 00 
    7b8b:	c7 85 08 fc ff ff 79 	movl   $0xcaae9279,-0x3f8(%rbp)
    7b92:	92 ae ca 
    7b95:	c7 85 0c fc ff ff d2 	movl   $0x7352ffd2,-0x3f4(%rbp)
    7b9c:	ff 52 73 
    7b9f:	c7 85 10 fc ff ff 3e 	movl   $0xe53ec53e,-0x3f0(%rbp)
    7ba6:	c5 3e e5 
    7ba9:	c7 85 14 fc ff ff 01 	movl   $0x1,-0x3ec(%rbp)
    7bb0:	00 00 00 
    7bb3:	c7 85 18 fc ff ff 1d 	movl   $0xe192e31d,-0x3e8(%rbp)
    7bba:	e3 92 e1 
    7bbd:	c7 85 1c fc ff ff ec 	movl   $0xffe096ec,-0x3e4(%rbp)
    7bc4:	96 e0 ff 
    7bc7:	c7 85 20 fc ff ff 01 	movl   $0x1,-0x3e0(%rbp)
    7bce:	00 00 00 
    7bd1:	c7 85 24 fc ff ff c3 	movl   $0x55174ac3,-0x3dc(%rbp)
    7bd8:	4a 17 55 
    7bdb:	c7 85 28 fc ff ff c3 	movl   $0x55174ac3,-0x3d8(%rbp)
    7be2:	4a 17 55 
    7be5:	c7 85 2c fc ff ff 01 	movl   $0x1,-0x3d4(%rbp)
    7bec:	00 00 00 
    7bef:	c7 85 30 fc ff ff 79 	movl   $0xcaae9279,-0x3d0(%rbp)
    7bf6:	92 ae ca 
    7bf9:	c7 85 34 fc ff ff ec 	movl   $0xffe096ec,-0x3cc(%rbp)
    7c00:	96 e0 ff 
    7c03:	c7 85 38 fc ff ff c3 	movl   $0x55174ac3,-0x3c8(%rbp)
    7c0a:	4a 17 55 
    7c0d:	c7 85 3c fc ff ff d2 	movl   $0x7352ffd2,-0x3c4(%rbp)
    7c14:	ff 52 73 
    7c17:	c7 85 40 fc ff ff 01 	movl   $0x1,-0x3c0(%rbp)
    7c1e:	00 00 00 
    7c21:	c7 85 44 fc ff ff 3e 	movl   $0xe53ec53e,-0x3bc(%rbp)
    7c28:	c5 3e e5 
    7c2b:	c7 85 48 fc ff ff 1d 	movl   $0xe192e31d,-0x3b8(%rbp)
    7c32:	e3 92 e1 
    7c35:	c7 85 4c fc ff ff 3e 	movl   $0xe53ec53e,-0x3b4(%rbp)
    7c3c:	c5 3e e5 
    7c3f:	48 8d 85 e0 fd ff ff 	lea    -0x220(%rbp),%rax
    7c46:	48 8d 15 33 44 00 00 	lea    0x4433(%rip),%rdx        # c080 <g_1458+0xc>
    7c4d:	b9 3c 00 00 00       	mov    $0x3c,%ecx
    7c52:	48 89 c7             	mov    %rax,%rdi
    7c55:	48 89 d6             	mov    %rdx,%rsi
    7c58:	f3 48 a5             	rep movsq %ds:(%rsi),%es:(%rdi)
    7c5b:	48 8d 05 2a 84 00 00 	lea    0x842a(%rip),%rax        # 1008c <g_230>
    7c62:	48 89 85 50 fa ff ff 	mov    %rax,-0x5b0(%rbp)
    7c69:	c7 85 80 fa ff ff 01 	movl   $0x1,-0x580(%rbp)
    7c70:	00 00 00 
    7c73:	c7 85 84 fa ff ff f9 	movl   $0xfffffff9,-0x57c(%rbp)
    7c7a:	ff ff ff 
    7c7d:	8b 85 88 fa ff ff    	mov    -0x578(%rbp),%eax
    7c83:	25 00 00 f8 ff       	and    $0xfff80000,%eax
    7c88:	0d 7f 01 00 00       	or     $0x17f,%eax
    7c8d:	89 85 88 fa ff ff    	mov    %eax,-0x578(%rbp)
    7c93:	c7 85 8c fa ff ff ff 	movl   $0xffffffff,-0x574(%rbp)
    7c9a:	ff ff ff 
    7c9d:	8b 85 90 fa ff ff    	mov    -0x570(%rbp),%eax
    7ca3:	25 00 00 00 fe       	and    $0xfe000000,%eax
    7ca8:	0d 26 01 00 00       	or     $0x126,%eax
    7cad:	89 85 90 fa ff ff    	mov    %eax,-0x570(%rbp)
    7cb3:	c7 85 28 fa ff ff 00 	movl   $0x0,-0x5d8(%rbp)
    7cba:	00 00 00 
    7cbd:	eb 21                	jmp    7ce0 <func_1+0x52b>
    7cbf:	8b 85 28 fa ff ff    	mov    -0x5d8(%rbp),%eax
    7cc5:	48 98                	cltq   
    7cc7:	48 bb db 08 c2 9d 9b 	movabs $0x2fd58b9b9dc208db,%rbx
    7cce:	8b d5 2f 
    7cd1:	48 89 9c c5 c0 fa ff 	mov    %rbx,-0x540(%rbp,%rax,8)
    7cd8:	ff 
    7cd9:	83 85 28 fa ff ff 01 	addl   $0x1,-0x5d8(%rbp)
    7ce0:	83 bd 28 fa ff ff 01 	cmpl   $0x1,-0x5d8(%rbp)
    7ce7:	7e d6                	jle    7cbf <func_1+0x50a>
    7ce9:	c7 85 28 fa ff ff 00 	movl   $0x0,-0x5d8(%rbp)
    7cf0:	00 00 00 
    7cf3:	eb 1b                	jmp    7d10 <func_1+0x55b>
    7cf5:	8b 85 28 fa ff ff    	mov    -0x5d8(%rbp),%eax
    7cfb:	48 98                	cltq   
    7cfd:	48 c7 84 c5 d0 fa ff 	movq   $0xfffffffffffffff7,-0x530(%rbp,%rax,8)
    7d04:	ff f7 ff ff ff 
    7d09:	83 85 28 fa ff ff 01 	addl   $0x1,-0x5d8(%rbp)
    7d10:	83 bd 28 fa ff ff 01 	cmpl   $0x1,-0x5d8(%rbp)
    7d17:	7e dc                	jle    7cf5 <func_1+0x540>
    7d19:	80 bd 24 fa ff ff 00 	cmpb   $0x0,-0x5dc(%rbp)
    7d20:	74 05                	je     7d27 <func_1+0x572>
    7d22:	e9 9f fb ff ff       	jmpq   78c6 <func_1+0x111>
    7d27:	c7 85 64 fa ff ff 03 	movl   $0x3,-0x59c(%rbp)
    7d2e:	00 00 00 
    7d31:	e9 d1 01 00 00       	jmpq   7f07 <func_1+0x752>
    7d36:	c7 85 50 fb ff ff 61 	movl   $0x3565761,-0x4b0(%rbp)
    7d3d:	57 56 03 
    7d40:	c7 85 54 fb ff ff ff 	movl   $0x49f5c1ff,-0x4ac(%rbp)
    7d47:	c1 f5 49 
    7d4a:	c7 85 58 fb ff ff ff 	movl   $0x49f5c1ff,-0x4a8(%rbp)
    7d51:	c1 f5 49 
    7d54:	c7 85 5c fb ff ff 61 	movl   $0x3565761,-0x4a4(%rbp)
    7d5b:	57 56 03 
    7d5e:	c7 85 60 fb ff ff 8b 	movl   $0x15f9bf8b,-0x4a0(%rbp)
    7d65:	bf f9 15 
    7d68:	c7 85 64 fb ff ff ff 	movl   $0x49f5c1ff,-0x49c(%rbp)
    7d6f:	c1 f5 49 
    7d72:	c7 85 68 fb ff ff d4 	movl   $0xdd9225d4,-0x498(%rbp)
    7d79:	25 92 dd 
    7d7c:	c7 85 6c fb ff ff ff 	movl   $0x49f5c1ff,-0x494(%rbp)
    7d83:	c1 f5 49 
    7d86:	c7 85 70 fb ff ff ff 	movl   $0x49f5c1ff,-0x490(%rbp)
    7d8d:	c1 f5 49 
    7d90:	c7 85 74 fb ff ff 00 	movl   $0x0,-0x48c(%rbp)
    7d97:	00 00 00 
    7d9a:	c7 85 78 fb ff ff d4 	movl   $0xdd9225d4,-0x488(%rbp)
    7da1:	25 92 dd 
    7da4:	c7 85 7c fb ff ff d4 	movl   $0xdd9225d4,-0x484(%rbp)
    7dab:	25 92 dd 
    7dae:	c7 85 80 fb ff ff 8b 	movl   $0x15f9bf8b,-0x480(%rbp)
    7db5:	bf f9 15 
    7db8:	c7 85 84 fb ff ff 8b 	movl   $0x15f9bf8b,-0x47c(%rbp)
    7dbf:	bf f9 15 
    7dc2:	c7 85 88 fb ff ff ff 	movl   $0x49f5c1ff,-0x478(%rbp)
    7dc9:	c1 f5 49 
    7dcc:	c7 85 8c fb ff ff d4 	movl   $0xdd9225d4,-0x474(%rbp)
    7dd3:	25 92 dd 
    7dd6:	c7 85 90 fb ff ff 61 	movl   $0x3565761,-0x470(%rbp)
    7ddd:	57 56 03 
    7de0:	c7 85 94 fb ff ff 00 	movl   $0x0,-0x46c(%rbp)
    7de7:	00 00 00 
    7dea:	c7 85 98 fb ff ff 61 	movl   $0x3565761,-0x468(%rbp)
    7df1:	57 56 03 
    7df4:	c7 85 9c fb ff ff ff 	movl   $0x49f5c1ff,-0x464(%rbp)
    7dfb:	c1 f5 49 
    7dfe:	c7 85 a0 fb ff ff 61 	movl   $0x3565761,-0x460(%rbp)
    7e05:	57 56 03 
    7e08:	c7 85 a4 fb ff ff ff 	movl   $0x49f5c1ff,-0x45c(%rbp)
    7e0f:	c1 f5 49 
    7e12:	c7 85 a8 fb ff ff ff 	movl   $0x49f5c1ff,-0x458(%rbp)
    7e19:	c1 f5 49 
    7e1c:	c7 85 ac fb ff ff 61 	movl   $0x3565761,-0x454(%rbp)
    7e23:	57 56 03 
    7e26:	48 8d 85 50 fc ff ff 	lea    -0x3b0(%rbp),%rax
    7e2d:	48 8d 15 2c 44 00 00 	lea    0x442c(%rip),%rdx        # c260 <g_1458+0x1ec>
    7e34:	b9 32 00 00 00       	mov    $0x32,%ecx
    7e39:	48 89 c7             	mov    %rax,%rdi
    7e3c:	48 89 d6             	mov    %rdx,%rsi
    7e3f:	f3 48 a5             	rep movsq %ds:(%rsi),%es:(%rdi)
    7e42:	48 8d 85 60 fa ff ff 	lea    -0x5a0(%rbp),%rax
    7e49:	48 89 85 10 fb ff ff 	mov    %rax,-0x4f0(%rbp)
    7e50:	48 8d 85 60 fa ff ff 	lea    -0x5a0(%rbp),%rax
    7e57:	48 89 85 18 fb ff ff 	mov    %rax,-0x4e8(%rbp)
    7e5e:	48 8d 85 60 fa ff ff 	lea    -0x5a0(%rbp),%rax
    7e65:	48 89 85 20 fb ff ff 	mov    %rax,-0x4e0(%rbp)
    7e6c:	48 8d 85 60 fa ff ff 	lea    -0x5a0(%rbp),%rax
    7e73:	48 89 85 28 fb ff ff 	mov    %rax,-0x4d8(%rbp)
    7e7a:	48 8d 85 60 fa ff ff 	lea    -0x5a0(%rbp),%rax
    7e81:	48 89 85 30 fb ff ff 	mov    %rax,-0x4d0(%rbp)
    7e88:	48 8d 85 60 fa ff ff 	lea    -0x5a0(%rbp),%rax
    7e8f:	48 89 85 38 fb ff ff 	mov    %rax,-0x4c8(%rbp)
    7e96:	48 8d 85 60 fa ff ff 	lea    -0x5a0(%rbp),%rax
    7e9d:	48 89 85 40 fb ff ff 	mov    %rax,-0x4c0(%rbp)
    7ea4:	48 8d 85 60 fa ff ff 	lea    -0x5a0(%rbp),%rax
    7eab:	48 89 85 48 fb ff ff 	mov    %rax,-0x4b8(%rbp)
    7eb2:	66 c7 85 26 fa ff ff 	movw   $0x73d5,-0x5da(%rbp)
    7eb9:	d5 73 
    7ebb:	48 8d 05 1e 9b 00 00 	lea    0x9b1e(%rip),%rax        # 119e0 <g_48>
    7ec2:	48 89 85 58 fa ff ff 	mov    %rax,-0x5a8(%rbp)
    7ec9:	c7 85 2c fa ff ff 00 	movl   $0x0,-0x5d4(%rbp)
    7ed0:	00 00 00 
    7ed3:	eb 1a                	jmp    7eef <func_1+0x73a>
    7ed5:	8b 85 2c fa ff ff    	mov    -0x5d4(%rbp),%eax
    7edb:	48 98                	cltq   
    7edd:	c7 84 85 b8 fa ff ff 	movl   $0xecb02cd5,-0x548(%rbp,%rax,4)
    7ee4:	d5 2c b0 ec 
    7ee8:	83 85 2c fa ff ff 01 	addl   $0x1,-0x5d4(%rbp)
    7eef:	83 bd 2c fa ff ff 01 	cmpl   $0x1,-0x5d4(%rbp)
    7ef6:	7e dd                	jle    7ed5 <func_1+0x720>
    7ef8:	8b 85 64 fa ff ff    	mov    -0x59c(%rbp),%eax
    7efe:	83 e8 01             	sub    $0x1,%eax
    7f01:	89 85 64 fa ff ff    	mov    %eax,-0x59c(%rbp)
    7f07:	8b 85 64 fa ff ff    	mov    -0x59c(%rbp),%eax
    7f0d:	85 c0                	test   %eax,%eax
    7f0f:	0f 89 21 fe ff ff    	jns    7d36 <func_1+0x581>
    7f15:	0f b7 05 d0 87 00 00 	movzwl 0x87d0(%rip),%eax        # 106ec <g_1071>
    7f1c:	83 c0 01             	add    $0x1,%eax
    7f1f:	66 89 05 c6 87 00 00 	mov    %ax,0x87c6(%rip)        # 106ec <g_1071>
    7f26:	0f b7 05 bf 87 00 00 	movzwl 0x87bf(%rip),%eax        # 106ec <g_1071>
    7f2d:	66 83 f8 03          	cmp    $0x3,%ax
    7f31:	0f 86 78 fb ff ff    	jbe    7aaf <func_1+0x2fa>
    7f37:	48 8b 85 40 fa ff ff 	mov    -0x5c0(%rbp),%rax
    7f3e:	c7 00 91 8c dd 86    	movl   $0x86dd8c91,(%rax)
    7f44:	48 8b 05 f5 a7 00 00 	mov    0xa7f5(%rip),%rax        # 12740 <g_1167>
    7f4b:	48 8b 00             	mov    (%rax),%rax
    7f4e:	48 8b 5d c8          	mov    -0x38(%rbp),%rbx
    7f52:	64 48 33 1c 25 28 00 	xor    %fs:0x28,%rbx
    7f59:	00 00 
    7f5b:	74 05                	je     7f62 <func_1+0x7ad>
    7f5d:	e8 0e e1 ff ff       	callq  6070 <__stack_chk_fail@plt>
    7f62:	48 8d 65 d8          	lea    -0x28(%rbp),%rsp
    7f66:	5b                   	pop    %rbx
    7f67:	41 5c                	pop    %r12
    7f69:	41 5d                	pop    %r13
    7f6b:	41 5e                	pop    %r14
    7f6d:	41 5f                	pop    %r15
    7f6f:	5d                   	pop    %rbp
    7f70:	c3                   	retq   

0000000000007f71 <func_2>:
    7f71:	f3 0f 1e fa          	endbr64 
    7f75:	55                   	push   %rbp
    7f76:	48 89 e5             	mov    %rsp,%rbp
    7f79:	41 56                	push   %r14
    7f7b:	41 55                	push   %r13
    7f7d:	41 54                	push   %r12
    7f7f:	53                   	push   %rbx
    7f80:	48 81 ec 90 07 00 00 	sub    $0x790,%rsp
    7f87:	48 89 bd 68 f8 ff ff 	mov    %rdi,-0x798(%rbp)
    7f8e:	89 f0                	mov    %esi,%eax
    7f90:	48 89 95 58 f8 ff ff 	mov    %rdx,-0x7a8(%rbp)
    7f97:	89 8d 60 f8 ff ff    	mov    %ecx,-0x7a0(%rbp)
    7f9d:	44 89 c2             	mov    %r8d,%edx
    7fa0:	88 85 64 f8 ff ff    	mov    %al,-0x79c(%rbp)
    7fa6:	89 d0                	mov    %edx,%eax
    7fa8:	88 85 54 f8 ff ff    	mov    %al,-0x7ac(%rbp)
    7fae:	64 48 8b 04 25 28 00 	mov    %fs:0x28,%rax
    7fb5:	00 00 
    7fb7:	48 89 45 d8          	mov    %rax,-0x28(%rbp)
    7fbb:	31 c0                	xor    %eax,%eax
    7fbd:	c7 85 88 f8 ff ff e3 	movl   $0xd0a3b7e3,-0x778(%rbp)
    7fc4:	b7 a3 d0 
    7fc7:	c7 85 40 f9 ff ff 00 	movl   $0x0,-0x6c0(%rbp)
    7fce:	00 00 00 
    7fd1:	c7 85 44 f9 ff ff 14 	movl   $0xd5f99014,-0x6bc(%rbp)
    7fd8:	90 f9 d5 
    7fdb:	8b 85 48 f9 ff ff    	mov    -0x6b8(%rbp),%eax
    7fe1:	25 00 00 f8 ff       	and    $0xfff80000,%eax
    7fe6:	0c ee                	or     $0xee,%al
    7fe8:	89 85 48 f9 ff ff    	mov    %eax,-0x6b8(%rbp)
    7fee:	c7 85 4c f9 ff ff 73 	movl   $0x3b971273,-0x6b4(%rbp)
    7ff5:	12 97 3b 
    7ff8:	8b 85 50 f9 ff ff    	mov    -0x6b0(%rbp),%eax
    7ffe:	25 00 00 00 fe       	and    $0xfe000000,%eax
    8003:	0d ab 15 00 00       	or     $0x15ab,%eax
    8008:	89 85 50 f9 ff ff    	mov    %eax,-0x6b0(%rbp)
    800e:	48 8d 05 eb a4 00 00 	lea    0xa4eb(%rip),%rax        # 12500 <g_490>
    8015:	48 89 85 a0 f8 ff ff 	mov    %rax,-0x760(%rbp)
    801c:	48 8d 85 a0 f8 ff ff 	lea    -0x760(%rbp),%rax
    8023:	48 89 85 00 fa ff ff 	mov    %rax,-0x600(%rbp)
    802a:	48 8d 85 a0 f8 ff ff 	lea    -0x760(%rbp),%rax
    8031:	48 89 85 08 fa ff ff 	mov    %rax,-0x5f8(%rbp)
    8038:	48 8d 85 a0 f8 ff ff 	lea    -0x760(%rbp),%rax
    803f:	48 89 85 10 fa ff ff 	mov    %rax,-0x5f0(%rbp)
    8046:	48 c7 85 18 fa ff ff 	movq   $0x0,-0x5e8(%rbp)
    804d:	00 00 00 00 
    8051:	48 8d 85 a0 f8 ff ff 	lea    -0x760(%rbp),%rax
    8058:	48 89 85 20 fa ff ff 	mov    %rax,-0x5e0(%rbp)
    805f:	48 8d 85 a0 f8 ff ff 	lea    -0x760(%rbp),%rax
    8066:	48 89 85 28 fa ff ff 	mov    %rax,-0x5d8(%rbp)
    806d:	48 8d 85 a0 f8 ff ff 	lea    -0x760(%rbp),%rax
    8074:	48 89 85 30 fa ff ff 	mov    %rax,-0x5d0(%rbp)
    807b:	48 8d 85 a0 f8 ff ff 	lea    -0x760(%rbp),%rax
    8082:	48 89 85 38 fa ff ff 	mov    %rax,-0x5c8(%rbp)
    8089:	48 8d 85 a0 f8 ff ff 	lea    -0x760(%rbp),%rax
    8090:	48 89 85 40 fa ff ff 	mov    %rax,-0x5c0(%rbp)
    8097:	48 8d 85 a0 f8 ff ff 	lea    -0x760(%rbp),%rax
    809e:	48 89 85 48 fa ff ff 	mov    %rax,-0x5b8(%rbp)
    80a5:	48 8d 85 a0 f8 ff ff 	lea    -0x760(%rbp),%rax
    80ac:	48 89 85 50 fa ff ff 	mov    %rax,-0x5b0(%rbp)
    80b3:	48 8d 85 a0 f8 ff ff 	lea    -0x760(%rbp),%rax
    80ba:	48 89 85 58 fa ff ff 	mov    %rax,-0x5a8(%rbp)
    80c1:	48 8d 85 a0 f8 ff ff 	lea    -0x760(%rbp),%rax
    80c8:	48 89 85 60 fa ff ff 	mov    %rax,-0x5a0(%rbp)
    80cf:	48 8d 85 a0 f8 ff ff 	lea    -0x760(%rbp),%rax
    80d6:	48 89 85 68 fa ff ff 	mov    %rax,-0x598(%rbp)
    80dd:	48 8d 85 a0 f8 ff ff 	lea    -0x760(%rbp),%rax
    80e4:	48 89 85 70 fa ff ff 	mov    %rax,-0x590(%rbp)
    80eb:	48 8d 85 a0 f8 ff ff 	lea    -0x760(%rbp),%rax
    80f2:	48 89 85 78 fa ff ff 	mov    %rax,-0x588(%rbp)
    80f9:	48 8d 85 a0 f8 ff ff 	lea    -0x760(%rbp),%rax
    8100:	48 89 85 80 fa ff ff 	mov    %rax,-0x580(%rbp)
    8107:	48 8d 85 a0 f8 ff ff 	lea    -0x760(%rbp),%rax
    810e:	48 89 85 88 fa ff ff 	mov    %rax,-0x578(%rbp)
    8115:	48 8d 85 a0 f8 ff ff 	lea    -0x760(%rbp),%rax
    811c:	48 89 85 90 fa ff ff 	mov    %rax,-0x570(%rbp)
    8123:	48 8d 85 a0 f8 ff ff 	lea    -0x760(%rbp),%rax
    812a:	48 89 85 98 fa ff ff 	mov    %rax,-0x568(%rbp)
    8131:	48 8d 85 a0 f8 ff ff 	lea    -0x760(%rbp),%rax
    8138:	48 89 85 a0 fa ff ff 	mov    %rax,-0x560(%rbp)
    813f:	48 8d 85 a0 f8 ff ff 	lea    -0x760(%rbp),%rax
    8146:	48 89 85 a8 fa ff ff 	mov    %rax,-0x558(%rbp)
    814d:	48 8d 85 a0 f8 ff ff 	lea    -0x760(%rbp),%rax
    8154:	48 89 85 b0 fa ff ff 	mov    %rax,-0x550(%rbp)
    815b:	48 8d 85 a0 f8 ff ff 	lea    -0x760(%rbp),%rax
    8162:	48 89 85 b8 fa ff ff 	mov    %rax,-0x548(%rbp)
    8169:	48 8d 85 a0 f8 ff ff 	lea    -0x760(%rbp),%rax
    8170:	48 89 85 c0 fa ff ff 	mov    %rax,-0x540(%rbp)
    8177:	48 c7 85 c8 fa ff ff 	movq   $0x0,-0x538(%rbp)
    817e:	00 00 00 00 
    8182:	48 8d 85 a0 f8 ff ff 	lea    -0x760(%rbp),%rax
    8189:	48 89 85 d0 fa ff ff 	mov    %rax,-0x530(%rbp)
    8190:	48 8d 85 a0 f8 ff ff 	lea    -0x760(%rbp),%rax
    8197:	48 89 85 d8 fa ff ff 	mov    %rax,-0x528(%rbp)
    819e:	48 c7 85 e0 fa ff ff 	movq   $0x0,-0x520(%rbp)
    81a5:	00 00 00 00 
    81a9:	48 8d 85 a0 f8 ff ff 	lea    -0x760(%rbp),%rax
    81b0:	48 89 85 e8 fa ff ff 	mov    %rax,-0x518(%rbp)
    81b7:	48 8d 85 a0 f8 ff ff 	lea    -0x760(%rbp),%rax
    81be:	48 89 85 f0 fa ff ff 	mov    %rax,-0x510(%rbp)
    81c5:	48 c7 85 f8 fa ff ff 	movq   $0x0,-0x508(%rbp)
    81cc:	00 00 00 00 
    81d0:	48 8d 85 a0 f8 ff ff 	lea    -0x760(%rbp),%rax
    81d7:	48 89 85 00 fb ff ff 	mov    %rax,-0x500(%rbp)
    81de:	48 8d 85 a0 f8 ff ff 	lea    -0x760(%rbp),%rax
    81e5:	48 89 85 08 fb ff ff 	mov    %rax,-0x4f8(%rbp)
    81ec:	48 8d 85 a0 f8 ff ff 	lea    -0x760(%rbp),%rax
    81f3:	48 89 85 10 fb ff ff 	mov    %rax,-0x4f0(%rbp)
    81fa:	48 c7 85 18 fb ff ff 	movq   $0x0,-0x4e8(%rbp)
    8201:	00 00 00 00 
    8205:	48 8d 85 a0 f8 ff ff 	lea    -0x760(%rbp),%rax
    820c:	48 89 85 20 fb ff ff 	mov    %rax,-0x4e0(%rbp)
    8213:	48 8d 85 a0 f8 ff ff 	lea    -0x760(%rbp),%rax
    821a:	48 89 85 28 fb ff ff 	mov    %rax,-0x4d8(%rbp)
    8221:	48 8d 85 a0 f8 ff ff 	lea    -0x760(%rbp),%rax
    8228:	48 89 85 30 fb ff ff 	mov    %rax,-0x4d0(%rbp)
    822f:	48 8d 85 a0 f8 ff ff 	lea    -0x760(%rbp),%rax
    8236:	48 89 85 38 fb ff ff 	mov    %rax,-0x4c8(%rbp)
    823d:	48 8d 85 a0 f8 ff ff 	lea    -0x760(%rbp),%rax
    8244:	48 89 85 40 fb ff ff 	mov    %rax,-0x4c0(%rbp)
    824b:	48 8d 85 a0 f8 ff ff 	lea    -0x760(%rbp),%rax
    8252:	48 89 85 48 fb ff ff 	mov    %rax,-0x4b8(%rbp)
    8259:	48 8d 85 a0 f8 ff ff 	lea    -0x760(%rbp),%rax
    8260:	48 89 85 50 fb ff ff 	mov    %rax,-0x4b0(%rbp)
    8267:	48 8d 85 a0 f8 ff ff 	lea    -0x760(%rbp),%rax
    826e:	48 89 85 58 fb ff ff 	mov    %rax,-0x4a8(%rbp)
    8275:	48 8d 85 a0 f8 ff ff 	lea    -0x760(%rbp),%rax
    827c:	48 89 85 60 fb ff ff 	mov    %rax,-0x4a0(%rbp)
    8283:	48 8d 85 00 fa ff ff 	lea    -0x600(%rbp),%rax
    828a:	48 83 c0 58          	add    $0x58,%rax
    828e:	48 89 85 c0 f8 ff ff 	mov    %rax,-0x740(%rbp)
    8295:	48 8d 05 aa 7d 00 00 	lea    0x7daa(%rip),%rax        # 10046 <g_98>
    829c:	48 89 85 c8 f8 ff ff 	mov    %rax,-0x738(%rbp)
    82a3:	48 c7 85 d0 f8 ff ff 	movq   $0x0,-0x730(%rbp)
    82aa:	00 00 00 00 
    82ae:	48 8d 85 78 f9 ff ff 	lea    -0x688(%rbp),%rax
    82b5:	48 89 85 a8 f8 ff ff 	mov    %rax,-0x758(%rbp)
    82bc:	48 8d 85 a8 f8 ff ff 	lea    -0x758(%rbp),%rax
    82c3:	48 89 85 d8 f8 ff ff 	mov    %rax,-0x728(%rbp)
    82ca:	c7 85 8c f8 ff ff 00 	movl   $0x0,-0x774(%rbp)
    82d1:	00 00 00 
    82d4:	c6 85 7b f8 ff ff cf 	movb   $0xcf,-0x785(%rbp)
    82db:	c7 85 a0 f9 ff ff 00 	movl   $0x0,-0x660(%rbp)
    82e2:	00 00 00 
    82e5:	c7 85 a4 f9 ff ff f6 	movl   $0xfffffff6,-0x65c(%rbp)
    82ec:	ff ff ff 
    82ef:	c7 85 a8 f9 ff ff f6 	movl   $0xfffffff6,-0x658(%rbp)
    82f6:	ff ff ff 
    82f9:	c7 85 ac f9 ff ff 00 	movl   $0x0,-0x654(%rbp)
    8300:	00 00 00 
    8303:	c7 85 b0 f9 ff ff f6 	movl   $0xfffffff6,-0x650(%rbp)
    830a:	ff ff ff 
    830d:	c7 85 b4 f9 ff ff f6 	movl   $0xfffffff6,-0x64c(%rbp)
    8314:	ff ff ff 
    8317:	c7 85 b8 f9 ff ff 00 	movl   $0x0,-0x648(%rbp)
    831e:	00 00 00 
    8321:	c7 85 bc f9 ff ff f6 	movl   $0xfffffff6,-0x644(%rbp)
    8328:	ff ff ff 
    832b:	c7 85 c0 f9 ff ff f6 	movl   $0xfffffff6,-0x640(%rbp)
    8332:	ff ff ff 
    8335:	c7 85 90 f8 ff ff 05 	movl   $0x5,-0x770(%rbp)
    833c:	00 00 00 
    833f:	48 8d 85 a0 f9 ff ff 	lea    -0x660(%rbp),%rax
    8346:	48 83 c0 20          	add    $0x20,%rax
    834a:	48 89 85 e0 f8 ff ff 	mov    %rax,-0x720(%rbp)
    8351:	c7 85 80 f8 ff ff 00 	movl   $0x0,-0x780(%rbp)
    8358:	00 00 00 
    835b:	eb 1b                	jmp    8378 <func_2+0x407>
    835d:	8b 85 80 f8 ff ff    	mov    -0x780(%rbp),%eax
    8363:	48 98                	cltq   
    8365:	48 c7 84 c5 78 f9 ff 	movq   $0x0,-0x688(%rbp,%rax,8)
    836c:	ff 00 00 00 00 
    8371:	83 85 80 f8 ff ff 01 	addl   $0x1,-0x780(%rbp)
    8378:	83 bd 80 f8 ff ff 00 	cmpl   $0x0,-0x780(%rbp)
    837f:	7e dc                	jle    835d <func_2+0x3ec>
    8381:	8b 85 60 f8 ff ff    	mov    -0x7a0(%rbp),%eax
    8387:	48 63 d8             	movslq %eax,%rbx
    838a:	48 8b 05 7f a1 00 00 	mov    0xa17f(%rip),%rax        # 12510 <g_563>
    8391:	48 8b 00             	mov    (%rax),%rax
    8394:	0f b7 00             	movzwl (%rax),%eax
    8397:	44 0f b7 e0          	movzwl %ax,%r12d
    839b:	48 8b 05 26 98 00 00 	mov    0x9826(%rip),%rax        # 11bc8 <g_151>
    83a2:	0f b6 00             	movzbl (%rax),%eax
    83a5:	0f be c0             	movsbl %al,%eax
    83a8:	0b 85 88 f8 ff ff    	or     -0x778(%rbp),%eax
    83ae:	41 89 c5             	mov    %eax,%r13d
    83b1:	0f b6 95 54 f8 ff ff 	movzbl -0x7ac(%rbp),%edx
    83b8:	48 8b 05 19 98 00 00 	mov    0x9819(%rip),%rax        # 11bd8 <g_236>
    83bf:	0f b6 8d 54 f8 ff ff 	movzbl -0x7ac(%rbp),%ecx
    83c6:	89 08                	mov    %ecx,(%rax)
    83c8:	8b 00                	mov    (%rax),%eax
    83ca:	89 c1                	mov    %eax,%ecx
    83cc:	0f b6 85 64 f8 ff ff 	movzbl -0x79c(%rbp),%eax
    83d3:	09 c8                	or     %ecx,%eax
    83d5:	0f b6 c0             	movzbl %al,%eax
    83d8:	89 d6                	mov    %edx,%esi
    83da:	89 c7                	mov    %eax,%edi
    83dc:	e8 cd e7 ff ff       	callq  6bae <safe_mod_func_uint8_t_u_u>
    83e1:	0f b6 c0             	movzbl %al,%eax
    83e4:	41 39 c5             	cmp    %eax,%r13d
    83e7:	72 07                	jb     83f0 <func_2+0x47f>
    83e9:	b8 65 45 00 00       	mov    $0x4565,%eax
    83ee:	eb 05                	jmp    83f5 <func_2+0x484>
    83f0:	b8 64 45 00 00       	mov    $0x4564,%eax
    83f5:	44 89 e6             	mov    %r12d,%esi
    83f8:	89 c7                	mov    %eax,%edi
    83fa:	e8 5d e9 ff ff       	callq  6d5c <safe_mod_func_uint16_t_u_u>
    83ff:	be 0c 00 00 00       	mov    $0xc,%esi
    8404:	bf 01 00 00 00       	mov    $0x1,%edi
    8409:	e8 6c ea ff ff       	callq  6e7a <safe_rshift_func_uint16_t_u_u>
    840e:	b8 01 00 00 00       	mov    $0x1,%eax
    8413:	89 c2                	mov    %eax,%edx
    8415:	8b 85 88 f8 ff ff    	mov    -0x778(%rbp),%eax
    841b:	89 c6                	mov    %eax,%esi
    841d:	89 d7                	mov    %edx,%edi
    841f:	e8 d9 ea ff ff       	callq  6efd <safe_mod_func_uint32_t_u_u>
    8424:	0f be 85 64 f8 ff ff 	movsbl -0x79c(%rbp),%eax
    842b:	be 00 00 00 00       	mov    $0x0,%esi
    8430:	89 c7                	mov    %eax,%edi
    8432:	e8 7c df ff ff       	callq  63b3 <safe_add_func_int16_t_s_s>
    8437:	98                   	cwtl   
    8438:	39 85 88 f8 ff ff    	cmp    %eax,-0x778(%rbp)
    843e:	75 07                	jne    8447 <func_2+0x4d6>
    8440:	83 bd 88 f8 ff ff 00 	cmpl   $0x0,-0x778(%rbp)
    8447:	48 89 de             	mov    %rbx,%rsi
    844a:	48 bf 12 bd f5 31 de 	movabs $0x44d225de31f5bd12,%rdi
    8451:	25 d2 44 
    8454:	e8 5b e5 ff ff       	callq  69b4 <safe_mod_func_int64_t_s_s>
    8459:	b8 00 00 00 00       	mov    $0x0,%eax
    845e:	0f b7 c0             	movzwl %ax,%eax
    8461:	be 7c 26 00 00       	mov    $0x267c,%esi
    8466:	89 c7                	mov    %eax,%edi
    8468:	e8 ef e8 ff ff       	callq  6d5c <safe_mod_func_uint16_t_u_u>
    846d:	0f b7 c0             	movzwl %ax,%eax
    8470:	39 85 88 f8 ff ff    	cmp    %eax,-0x778(%rbp)
    8476:	0f 92 c0             	setb   %al
    8479:	0f b6 d0             	movzbl %al,%edx
    847c:	48 8b 85 58 f8 ff ff 	mov    -0x7a8(%rbp),%rax
    8483:	8b 00                	mov    (%rax),%eax
    8485:	21 c2                	and    %eax,%edx
    8487:	48 8b 85 58 f8 ff ff 	mov    -0x7a8(%rbp),%rax
    848e:	89 10                	mov    %edx,(%rax)
    8490:	83 bd 88 f8 ff ff 00 	cmpl   $0x0,-0x778(%rbp)
    8497:	74 29                	je     84c2 <func_2+0x551>
    8499:	48 8b 05 80 97 00 00 	mov    0x9780(%rip),%rax        # 11c20 <g_237>
    84a0:	48 8b 00             	mov    (%rax),%rax
    84a3:	48 8b 00             	mov    (%rax),%rax
    84a6:	8b 00                	mov    (%rax),%eax
    84a8:	23 85 88 f8 ff ff    	and    -0x778(%rbp),%eax
    84ae:	89 c2                	mov    %eax,%edx
    84b0:	0f be 85 64 f8 ff ff 	movsbl -0x79c(%rbp),%eax
    84b7:	39 c2                	cmp    %eax,%edx
    84b9:	76 07                	jbe    84c2 <func_2+0x551>
    84bb:	b8 01 00 00 00       	mov    $0x1,%eax
    84c0:	eb 05                	jmp    84c7 <func_2+0x556>
    84c2:	b8 00 00 00 00       	mov    $0x0,%eax
    84c7:	3b 85 60 f8 ff ff    	cmp    -0x7a0(%rbp),%eax
    84cd:	0f 8d eb 02 00 00    	jge    87be <func_2+0x84d>
    84d3:	c7 85 9c f8 ff ff 01 	movl   $0xb83f0201,-0x764(%rbp)
    84da:	02 3f b8 
    84dd:	48 8d 85 40 f9 ff ff 	lea    -0x6c0(%rbp),%rax
    84e4:	48 89 85 20 f9 ff ff 	mov    %rax,-0x6e0(%rbp)
    84eb:	48 8d 05 0e a0 00 00 	lea    0xa00e(%rip),%rax        # 12500 <g_490>
    84f2:	48 89 85 b0 f8 ff ff 	mov    %rax,-0x750(%rbp)
    84f9:	48 8d 85 b0 f8 ff ff 	lea    -0x750(%rbp),%rax
    8500:	48 89 85 b8 f8 ff ff 	mov    %rax,-0x748(%rbp)
    8507:	48 8d 85 b8 f8 ff ff 	lea    -0x748(%rbp),%rax
    850e:	48 89 85 60 f9 ff ff 	mov    %rax,-0x6a0(%rbp)
    8515:	48 8d 85 60 f9 ff ff 	lea    -0x6a0(%rbp),%rax
    851c:	48 89 85 28 f9 ff ff 	mov    %rax,-0x6d8(%rbp)
    8523:	48 8d 05 1c 7b 00 00 	lea    0x7b1c(%rip),%rax        # 10046 <g_98>
    852a:	48 89 85 30 f9 ff ff 	mov    %rax,-0x6d0(%rbp)
    8531:	48 8d 05 b2 7c 00 00 	lea    0x7cb2(%rip),%rax        # 101ea <g_251+0x14a>
    8538:	48 89 85 38 f9 ff ff 	mov    %rax,-0x6c8(%rbp)
    853f:	c7 85 84 f8 ff ff 00 	movl   $0x0,-0x77c(%rbp)
    8546:	00 00 00 
    8549:	eb 1a                	jmp    8565 <func_2+0x5f4>
    854b:	8b 85 84 f8 ff ff    	mov    -0x77c(%rbp),%eax
    8551:	48 98                	cltq   
    8553:	c7 84 85 70 fb ff ff 	movl   $0x0,-0x490(%rbp,%rax,4)
    855a:	00 00 00 00 
    855e:	83 85 84 f8 ff ff 01 	addl   $0x1,-0x77c(%rbp)
    8565:	83 bd 84 f8 ff ff 09 	cmpl   $0x9,-0x77c(%rbp)
    856c:	7e dd                	jle    854b <func_2+0x5da>
    856e:	48 8b 85 20 f9 ff ff 	mov    -0x6e0(%rbp),%rax
    8575:	48 89 85 58 f8 ff ff 	mov    %rax,-0x7a8(%rbp)
    857c:	c6 05 c1 7a 00 00 00 	movb   $0x0,0x7ac1(%rip)        # 10044 <g_67>
    8583:	90                   	nop
    8584:	0f b6 05 b9 7a 00 00 	movzbl 0x7ab9(%rip),%eax        # 10044 <g_67>
    858b:	3c 21                	cmp    $0x21,%al
    858d:	74 0c                	je     859b <func_2+0x62a>
    858f:	48 8b 05 5a a0 00 00 	mov    0xa05a(%rip),%rax        # 125f0 <g_860>
    8596:	e9 c7 03 00 00       	jmpq   8962 <func_2+0x9f1>
    859b:	80 bd 64 f8 ff ff fe 	cmpb   $0xfe,-0x79c(%rbp)
    85a2:	74 0a                	je     85ae <func_2+0x63d>
    85a4:	8b 85 7c fb ff ff    	mov    -0x484(%rbp),%eax
    85aa:	85 c0                	test   %eax,%eax
    85ac:	74 07                	je     85b5 <func_2+0x644>
    85ae:	b8 01 00 00 00       	mov    $0x1,%eax
    85b3:	eb 05                	jmp    85ba <func_2+0x649>
    85b5:	b8 00 00 00 00       	mov    $0x0,%eax
    85ba:	0f b7 d0             	movzwl %ax,%edx
    85bd:	8b 85 60 f8 ff ff    	mov    -0x7a0(%rbp),%eax
    85c3:	0f b7 c0             	movzwl %ax,%eax
    85c6:	89 d6                	mov    %edx,%esi
    85c8:	89 c7                	mov    %eax,%edi
    85ca:	e8 bf e7 ff ff       	callq  6d8e <safe_div_func_uint16_t_u_u>
    85cf:	0f b7 c0             	movzwl %ax,%eax
    85d2:	48 8b 1d 1f a0 00 00 	mov    0xa01f(%rip),%rbx        # 125f8 <g_889>
    85d9:	48 8b 95 20 f9 ff ff 	mov    -0x6e0(%rbp),%rdx
    85e0:	48 89 d6             	mov    %rdx,%rsi
    85e3:	48 89 c7             	mov    %rax,%rdi
    85e6:	e8 2b 14 00 00       	callq  9a16 <func_53>
    85eb:	48 89 03             	mov    %rax,(%rbx)
    85ee:	48 8b 85 20 f9 ff ff 	mov    -0x6e0(%rbp),%rax
    85f5:	8b 00                	mov    (%rax),%eax
    85f7:	41 89 c6             	mov    %eax,%r14d
    85fa:	48 8b 05 bf 95 00 00 	mov    0x95bf(%rip),%rax        # 11bc0 <g_115>
    8601:	0f b6 00             	movzbl (%rax),%eax
    8604:	0f b6 c0             	movzbl %al,%eax
    8607:	be 05 00 00 00       	mov    $0x5,%esi
    860c:	89 c7                	mov    %eax,%edi
    860e:	e8 ab e6 ff ff       	callq  6cbe <safe_rshift_func_uint8_t_u_u>
    8613:	48 8b 05 ae 95 00 00 	mov    0x95ae(%rip),%rax        # 11bc8 <g_151>
    861a:	0f b6 00             	movzbl (%rax),%eax
    861d:	0f be d8             	movsbl %al,%ebx
    8620:	48 8b 95 60 f9 ff ff 	mov    -0x6a0(%rbp),%rdx
    8627:	48 8b 85 28 f9 ff ff 	mov    -0x6d8(%rbp),%rax
    862e:	48 89 10             	mov    %rdx,(%rax)
    8631:	48 8b 85 28 f9 ff ff 	mov    -0x6d8(%rbp),%rax
    8638:	48 8b 00             	mov    (%rax),%rax
    863b:	48 39 85 c0 f8 ff ff 	cmp    %rax,-0x740(%rbp)
    8642:	0f 94 c0             	sete   %al
    8645:	44 0f b6 e8          	movzbl %al,%r13d
    8649:	4c 0f be a5 64 f8 ff 	movsbq -0x79c(%rbp),%r12
    8650:	ff 
    8651:	48 8b 05 b0 9e 00 00 	mov    0x9eb0(%rip),%rax        # 12508 <g_564>
    8658:	0f b7 00             	movzwl (%rax),%eax
    865b:	0f bf d0             	movswl %ax,%edx
    865e:	48 8b 85 30 f9 ff ff 	mov    -0x6d0(%rbp),%rax
    8665:	48 3b 85 c8 f8 ff ff 	cmp    -0x738(%rbp),%rax
    866c:	0f 95 c0             	setne  %al
    866f:	0f b6 c0             	movzbl %al,%eax
    8672:	89 d6                	mov    %edx,%esi
    8674:	89 c7                	mov    %eax,%edi
    8676:	e8 7a dd ff ff       	callq  63f5 <safe_mul_func_int16_t_s_s>
    867b:	0f bf d0             	movswl %ax,%edx
    867e:	0f b6 85 54 f8 ff ff 	movzbl -0x7ac(%rbp),%eax
    8685:	39 c2                	cmp    %eax,%edx
    8687:	4c 89 e6             	mov    %r12,%rsi
    868a:	bf 00 00 00 00       	mov    $0x0,%edi
    868f:	e8 1b ea ff ff       	callq  70af <safe_div_func_uint64_t_u_u>
    8694:	8b 95 44 f9 ff ff    	mov    -0x6bc(%rbp),%edx
    869a:	09 d0                	or     %edx,%eax
    869c:	89 85 44 f9 ff ff    	mov    %eax,-0x6bc(%rbp)
    86a2:	48 8b 05 67 9e 00 00 	mov    0x9e67(%rip),%rax        # 12510 <g_563>
    86a9:	48 8b 00             	mov    (%rax),%rax
    86ac:	8b 95 60 f8 ff ff    	mov    -0x7a0(%rbp),%edx
    86b2:	66 89 10             	mov    %dx,(%rax)
    86b5:	0f b7 10             	movzwl (%rax),%edx
    86b8:	48 8b 85 38 f9 ff ff 	mov    -0x6c8(%rbp),%rax
    86bf:	66 89 10             	mov    %dx,(%rax)
    86c2:	48 8b 85 38 f9 ff ff 	mov    -0x6c8(%rbp),%rax
    86c9:	0f b7 00             	movzwl (%rax),%eax
    86cc:	66 85 c0             	test   %ax,%ax
    86cf:	75 0a                	jne    86db <func_2+0x76a>
    86d1:	8b 05 b1 79 00 00    	mov    0x79b1(%rip),%eax        # 10088 <g_226>
    86d7:	85 c0                	test   %eax,%eax
    86d9:	74 07                	je     86e2 <func_2+0x771>
    86db:	b8 01 00 00 00       	mov    $0x1,%eax
    86e0:	eb 05                	jmp    86e7 <func_2+0x776>
    86e2:	b8 00 00 00 00       	mov    $0x0,%eax
    86e7:	0f b7 c0             	movzwl %ax,%eax
    86ea:	be d9 a6 00 00       	mov    $0xa6d9,%esi
    86ef:	89 c7                	mov    %eax,%edi
    86f1:	e8 09 e6 ff ff       	callq  6cff <safe_add_func_uint16_t_u_u>
    86f6:	0f b7 c0             	movzwl %ax,%eax
    86f9:	41 39 c5             	cmp    %eax,%r13d
    86fc:	0f 95 c0             	setne  %al
    86ff:	0f b6 c0             	movzbl %al,%eax
    8702:	89 de                	mov    %ebx,%esi
    8704:	89 c7                	mov    %eax,%edi
    8706:	e8 96 db ff ff       	callq  62a1 <safe_lshift_func_int8_t_s_s>
    870b:	f7 d0                	not    %eax
    870d:	c0 e8 07             	shr    $0x7,%al
    8710:	0f b6 c0             	movzbl %al,%eax
    8713:	48 8b 1d a6 94 00 00 	mov    0x94a6(%rip),%rbx        # 11bc0 <g_115>
    871a:	be 02 00 00 00       	mov    $0x2,%esi
    871f:	89 c7                	mov    %eax,%edi
    8721:	e8 98 e5 ff ff       	callq  6cbe <safe_rshift_func_uint8_t_u_u>
    8726:	88 03                	mov    %al,(%rbx)
    8728:	48 8b 05 d1 9d 00 00 	mov    0x9dd1(%rip),%rax        # 12500 <g_490>
    872f:	48 8b 00             	mov    (%rax),%rax
    8732:	48 89 c3             	mov    %rax,%rbx
    8735:	66 0f be 85 64 f8 ff 	movsbw -0x79c(%rbp),%ax
    873c:	ff 
    873d:	0f b7 c0             	movzwl %ax,%eax
    8740:	be 06 00 00 00       	mov    $0x6,%esi
    8745:	89 c7                	mov    %eax,%edi
    8747:	e8 ba e6 ff ff       	callq  6e06 <safe_lshift_func_uint16_t_u_u>
    874c:	0f b7 d0             	movzwl %ax,%edx
    874f:	48 83 bd 68 f8 ff ff 	cmpq   $0x0,-0x798(%rbp)
    8756:	00 
    8757:	0f 94 c0             	sete   %al
    875a:	0f b6 c0             	movzbl %al,%eax
    875d:	39 c2                	cmp    %eax,%edx
    875f:	0f 94 c0             	sete   %al
    8762:	0f b6 c0             	movzbl %al,%eax
    8765:	48 89 de             	mov    %rbx,%rsi
    8768:	48 89 c7             	mov    %rax,%rdi
    876b:	e8 db e8 ff ff       	callq  704b <safe_sub_func_uint64_t_u_u>
    8770:	48 0f be 95 64 f8 ff 	movsbq -0x79c(%rbp),%rdx
    8777:	ff 
    8778:	48 39 d0             	cmp    %rdx,%rax
    877b:	0f 95 c0             	setne  %al
    877e:	0f b6 c0             	movzbl %al,%eax
    8781:	44 89 f6             	mov    %r14d,%esi
    8784:	89 c7                	mov    %eax,%edi
    8786:	e8 7b e6 ff ff       	callq  6e06 <safe_lshift_func_uint16_t_u_u>
    878b:	be f6 ff ff ff       	mov    $0xfffffff6,%esi
    8790:	bf 01 00 00 00       	mov    $0x1,%edi
    8795:	e8 1e e7 ff ff       	callq  6eb8 <safe_add_func_uint32_t_u_u>
    879a:	48 be 55 22 a5 2e 2a 	movabs $0x87b2f12a2ea52255,%rsi
    87a1:	f1 b2 87 
    87a4:	bf ff ff 00 00       	mov    $0xffff,%edi
    87a9:	e8 fa e0 ff ff       	callq  68a8 <safe_sub_func_int64_t_s_s>
    87ae:	89 c2                	mov    %eax,%edx
    87b0:	48 8b 85 58 f8 ff ff 	mov    -0x7a8(%rbp),%rax
    87b7:	89 10                	mov    %edx,(%rax)
    87b9:	e9 9a 01 00 00       	jmpq   8958 <func_2+0x9e7>
    87be:	48 8d 05 fb 93 00 00 	lea    0x93fb(%rip),%rax        # 11bc0 <g_115>
    87c5:	48 89 85 e8 f8 ff ff 	mov    %rax,-0x718(%rbp)
    87cc:	48 c7 85 d0 f9 ff ff 	movq   $0x0,-0x630(%rbp)
    87d3:	00 00 00 00 
    87d7:	48 8d 05 66 78 00 00 	lea    0x7866(%rip),%rax        # 10044 <g_67>
    87de:	48 89 85 d8 f9 ff ff 	mov    %rax,-0x628(%rbp)
    87e5:	48 c7 85 e0 f9 ff ff 	movq   $0x0,-0x620(%rbp)
    87ec:	00 00 00 00 
    87f0:	48 8d 05 4d 78 00 00 	lea    0x784d(%rip),%rax        # 10044 <g_67>
    87f7:	48 89 85 e8 f9 ff ff 	mov    %rax,-0x618(%rbp)
    87fe:	48 c7 85 f0 f9 ff ff 	movq   $0x0,-0x610(%rbp)
    8805:	00 00 00 00 
    8809:	48 8d 05 34 78 00 00 	lea    0x7834(%rip),%rax        # 10044 <g_67>
    8810:	48 89 85 f8 f9 ff ff 	mov    %rax,-0x608(%rbp)
    8817:	48 8d 85 d0 f9 ff ff 	lea    -0x630(%rbp),%rax
    881e:	48 83 c0 20          	add    $0x20,%rax
    8822:	48 89 85 f0 f8 ff ff 	mov    %rax,-0x710(%rbp)
    8829:	c7 85 80 f9 ff ff b7 	movl   $0xe5a978b7,-0x680(%rbp)
    8830:	78 a9 e5 
    8833:	c7 85 84 f9 ff ff 01 	movl   $0x1,-0x67c(%rbp)
    883a:	00 00 00 
    883d:	c7 85 88 f9 ff ff 01 	movl   $0x1,-0x678(%rbp)
    8844:	00 00 00 
    8847:	c7 85 8c f9 ff ff b7 	movl   $0xe5a978b7,-0x674(%rbp)
    884e:	78 a9 e5 
    8851:	c7 85 90 f9 ff ff 01 	movl   $0x1,-0x670(%rbp)
    8858:	00 00 00 
    885b:	c7 85 94 f9 ff ff 01 	movl   $0x1,-0x66c(%rbp)
    8862:	00 00 00 
    8865:	c7 85 98 f9 ff ff b7 	movl   $0xe5a978b7,-0x668(%rbp)
    886c:	78 a9 e5 
    886f:	c7 85 9c f9 ff ff 01 	movl   $0x1,-0x664(%rbp)
    8876:	00 00 00 
    8879:	48 8d 05 80 9c 00 00 	lea    0x9c80(%rip),%rax        # 12500 <g_490>
    8880:	48 89 85 b8 f8 ff ff 	mov    %rax,-0x748(%rbp)
    8887:	48 8d 85 b8 f8 ff ff 	lea    -0x748(%rbp),%rax
    888e:	48 89 85 f8 f8 ff ff 	mov    %rax,-0x708(%rbp)
    8895:	48 8d 05 44 91 00 00 	lea    0x9144(%rip),%rax        # 119e0 <g_48>
    889c:	48 89 85 00 f9 ff ff 	mov    %rax,-0x700(%rbp)
    88a3:	48 8d 05 26 93 00 00 	lea    0x9326(%rip),%rax        # 11bd0 <g_221>
    88aa:	48 89 85 08 f9 ff ff 	mov    %rax,-0x6f8(%rbp)
    88b1:	48 c7 85 10 f9 ff ff 	movq   $0x1,-0x6f0(%rbp)
    88b8:	01 00 00 00 
    88bc:	c7 85 60 f9 ff ff e2 	movl   $0x2b23d5e2,-0x6a0(%rbp)
    88c3:	d5 23 2b 
    88c6:	c7 85 64 f9 ff ff fb 	movl   $0xfffffffb,-0x69c(%rbp)
    88cd:	ff ff ff 
    88d0:	8b 85 68 f9 ff ff    	mov    -0x698(%rbp),%eax
    88d6:	25 00 00 f8 ff       	and    $0xfff80000,%eax
    88db:	0d 54 01 00 00       	or     $0x154,%eax
    88e0:	89 85 68 f9 ff ff    	mov    %eax,-0x698(%rbp)
    88e6:	c7 85 6c f9 ff ff 86 	movl   $0xd667d386,-0x694(%rbp)
    88ed:	d3 67 d6 
    88f0:	8b 85 70 f9 ff ff    	mov    -0x690(%rbp),%eax
    88f6:	25 00 00 00 fe       	and    $0xfe000000,%eax
    88fb:	0d 93 14 00 00       	or     $0x1493,%eax
    8900:	89 85 70 f9 ff ff    	mov    %eax,-0x690(%rbp)
    8906:	c6 85 7c f8 ff ff 54 	movb   $0x54,-0x784(%rbp)
    890d:	c6 85 7d f8 ff ff 58 	movb   $0x58,-0x783(%rbp)
    8914:	66 c7 85 7e f8 ff ff 	movw   $0x1,-0x782(%rbp)
    891b:	01 00 
    891d:	c7 85 94 f8 ff ff 06 	movl   $0x6,-0x76c(%rbp)
    8924:	00 00 00 
    8927:	c7 85 98 f8 ff ff ff 	movl   $0xffffffff,-0x768(%rbp)
    892e:	ff ff ff 
    8931:	48 c7 85 18 f9 ff ff 	movq   $0x0,-0x6e8(%rbp)
    8938:	00 00 00 00 
    893c:	48 8d 85 70 fb ff ff 	lea    -0x490(%rbp),%rax
    8943:	48 8d 15 f6 80 00 00 	lea    0x80f6(%rip),%rdx        # 10a40 <g_1488+0x8>
    894a:	b9 8c 00 00 00       	mov    $0x8c,%ecx
    894f:	48 89 c7             	mov    %rax,%rdi
    8952:	48 89 d6             	mov    %rdx,%rsi
    8955:	f3 48 a5             	rep movsq %ds:(%rsi),%es:(%rdi)
    8958:	48 8b 05 89 9c 00 00 	mov    0x9c89(%rip),%rax        # 125e8 <g_653>
    895f:	48 8b 00             	mov    (%rax),%rax
    8962:	48 8b 4d d8          	mov    -0x28(%rbp),%rcx
    8966:	64 48 33 0c 25 28 00 	xor    %fs:0x28,%rcx
    896d:	00 00 
    896f:	74 05                	je     8976 <func_2+0xa05>
    8971:	e8 fa d6 ff ff       	callq  6070 <__stack_chk_fail@plt>
    8976:	48 81 c4 90 07 00 00 	add    $0x790,%rsp
    897d:	5b                   	pop    %rbx
    897e:	41 5c                	pop    %r12
    8980:	41 5d                	pop    %r13
    8982:	41 5e                	pop    %r14
    8984:	5d                   	pop    %rbp
    8985:	c3                   	retq   

0000000000008986 <func_11>:
    8986:	f3 0f 1e fa          	endbr64 
    898a:	55                   	push   %rbp
    898b:	48 89 e5             	mov    %rsp,%rbp
    898e:	48 83 ec 40          	sub    $0x40,%rsp
    8992:	48 89 7d d8          	mov    %rdi,-0x28(%rbp)
    8996:	48 89 75 d0          	mov    %rsi,-0x30(%rbp)
    899a:	89 d0                	mov    %edx,%eax
    899c:	88 45 cc             	mov    %al,-0x34(%rbp)
    899f:	64 48 8b 04 25 28 00 	mov    %fs:0x28,%rax
    89a6:	00 00 
    89a8:	48 89 45 f8          	mov    %rax,-0x8(%rbp)
    89ac:	31 c0                	xor    %eax,%eax
    89ae:	c7 45 ec 62 14 7a 1a 	movl   $0x1a7a1462,-0x14(%rbp)
    89b5:	c7 45 e8 00 00 00 00 	movl   $0x0,-0x18(%rbp)
    89bc:	eb 10                	jmp    89ce <func_11+0x48>
    89be:	8b 45 e8             	mov    -0x18(%rbp),%eax
    89c1:	48 98                	cltq   
    89c3:	66 c7 44 45 f0 c5 17 	movw   $0x17c5,-0x10(%rbp,%rax,2)
    89ca:	83 45 e8 01          	addl   $0x1,-0x18(%rbp)
    89ce:	83 7d e8 03          	cmpl   $0x3,-0x18(%rbp)
    89d2:	7e ea                	jle    89be <func_11+0x38>
    89d4:	0f b7 45 f4          	movzwl -0xc(%rbp),%eax
    89d8:	0f b7 c0             	movzwl %ax,%eax
    89db:	31 45 ec             	xor    %eax,-0x14(%rbp)
    89de:	0f b7 45 f4          	movzwl -0xc(%rbp),%eax
    89e2:	0f b7 c0             	movzwl %ax,%eax
    89e5:	48 8b 4d f8          	mov    -0x8(%rbp),%rcx
    89e9:	64 48 33 0c 25 28 00 	xor    %fs:0x28,%rcx
    89f0:	00 00 
    89f2:	74 05                	je     89f9 <func_11+0x73>
    89f4:	e8 77 d6 ff ff       	callq  6070 <__stack_chk_fail@plt>
    89f9:	c9                   	leaveq 
    89fa:	c3                   	retq   

00000000000089fb <func_17>:
    89fb:	f3 0f 1e fa          	endbr64 
    89ff:	55                   	push   %rbp
    8a00:	48 89 e5             	mov    %rsp,%rbp
    8a03:	48 81 ec 20 01 00 00 	sub    $0x120,%rsp
    8a0a:	89 bd fc fe ff ff    	mov    %edi,-0x104(%rbp)
    8a10:	48 89 b5 f0 fe ff ff 	mov    %rsi,-0x110(%rbp)
    8a17:	48 89 95 e8 fe ff ff 	mov    %rdx,-0x118(%rbp)
    8a1e:	64 48 8b 04 25 28 00 	mov    %fs:0x28,%rax
    8a25:	00 00 
    8a27:	48 89 45 f8          	mov    %rax,-0x8(%rbp)
    8a2b:	31 c0                	xor    %eax,%eax
    8a2d:	c7 85 08 ff ff ff 00 	movl   $0x0,-0xf8(%rbp)
    8a34:	00 00 00 
    8a37:	eb 4d                	jmp    8a86 <func_17+0x8b>
    8a39:	c7 85 0c ff ff ff 00 	movl   $0x0,-0xf4(%rbp)
    8a40:	00 00 00 
    8a43:	eb 31                	jmp    8a76 <func_17+0x7b>
    8a45:	8b 85 0c ff ff ff    	mov    -0xf4(%rbp),%eax
    8a4b:	48 63 c8             	movslq %eax,%rcx
    8a4e:	8b 85 08 ff ff ff    	mov    -0xf8(%rbp),%eax
    8a54:	48 63 d0             	movslq %eax,%rdx
    8a57:	48 89 d0             	mov    %rdx,%rax
    8a5a:	48 c1 e0 03          	shl    $0x3,%rax
    8a5e:	48 29 d0             	sub    %rdx,%rax
    8a61:	48 01 c8             	add    %rcx,%rax
    8a64:	c7 84 85 10 ff ff ff 	movl   $0xfffffffa,-0xf0(%rbp,%rax,4)
    8a6b:	fa ff ff ff 
    8a6f:	83 85 0c ff ff ff 01 	addl   $0x1,-0xf4(%rbp)
    8a76:	83 bd 0c ff ff ff 06 	cmpl   $0x6,-0xf4(%rbp)
    8a7d:	7e c6                	jle    8a45 <func_17+0x4a>
    8a7f:	83 85 08 ff ff ff 01 	addl   $0x1,-0xf8(%rbp)
    8a86:	83 bd 08 ff ff ff 07 	cmpl   $0x7,-0xf8(%rbp)
    8a8d:	7e aa                	jle    8a39 <func_17+0x3e>
    8a8f:	8b 45 a0             	mov    -0x60(%rbp),%eax
    8a92:	89 c0                	mov    %eax,%eax
    8a94:	48 8b 75 f8          	mov    -0x8(%rbp),%rsi
    8a98:	64 48 33 34 25 28 00 	xor    %fs:0x28,%rsi
    8a9f:	00 00 
    8aa1:	74 05                	je     8aa8 <func_17+0xad>
    8aa3:	e8 c8 d5 ff ff       	callq  6070 <__stack_chk_fail@plt>
    8aa8:	c9                   	leaveq 
    8aa9:	c3                   	retq   

0000000000008aaa <func_24>:
    8aaa:	f3 0f 1e fa          	endbr64 
    8aae:	55                   	push   %rbp
    8aaf:	48 89 e5             	mov    %rsp,%rbp
    8ab2:	48 83 ec 50          	sub    $0x50,%rsp
    8ab6:	89 7d bc             	mov    %edi,-0x44(%rbp)
    8ab9:	48 89 75 b0          	mov    %rsi,-0x50(%rbp)
    8abd:	64 48 8b 04 25 28 00 	mov    %fs:0x28,%rax
    8ac4:	00 00 
    8ac6:	48 89 45 f8          	mov    %rax,-0x8(%rbp)
    8aca:	31 c0                	xor    %eax,%eax
    8acc:	c7 45 c4 00 00 00 00 	movl   $0x0,-0x3c(%rbp)
    8ad3:	eb 2d                	jmp    8b02 <func_24+0x58>
    8ad5:	c7 45 c8 00 00 00 00 	movl   $0x0,-0x38(%rbp)
    8adc:	eb 1a                	jmp    8af8 <func_24+0x4e>
    8ade:	8b 45 c8             	mov    -0x38(%rbp),%eax
    8ae1:	48 63 d0             	movslq %eax,%rdx
    8ae4:	8b 45 c4             	mov    -0x3c(%rbp),%eax
    8ae7:	48 98                	cltq   
    8ae9:	48 01 d0             	add    %rdx,%rax
    8aec:	c7 44 85 cc 59 0d c1 	movl   $0xadc10d59,-0x34(%rbp,%rax,4)
    8af3:	ad 
    8af4:	83 45 c8 01          	addl   $0x1,-0x38(%rbp)
    8af8:	83 7d c8 00          	cmpl   $0x0,-0x38(%rbp)
    8afc:	7e e0                	jle    8ade <func_24+0x34>
    8afe:	83 45 c4 01          	addl   $0x1,-0x3c(%rbp)
    8b02:	83 7d c4 00          	cmpl   $0x0,-0x3c(%rbp)
    8b06:	7e cd                	jle    8ad5 <func_24+0x2b>
    8b08:	c7 45 c4 00 00 00 00 	movl   $0x0,-0x3c(%rbp)
    8b0f:	eb 15                	jmp    8b26 <func_24+0x7c>
    8b11:	8b 45 c4             	mov    -0x3c(%rbp),%eax
    8b14:	48 98                	cltq   
    8b16:	48 8d 15 c3 8e 00 00 	lea    0x8ec3(%rip),%rdx        # 119e0 <g_48>
    8b1d:	48 89 54 c5 d0       	mov    %rdx,-0x30(%rbp,%rax,8)
    8b22:	83 45 c4 01          	addl   $0x1,-0x3c(%rbp)
    8b26:	83 7d c4 04          	cmpl   $0x4,-0x3c(%rbp)
    8b2a:	7e e5                	jle    8b11 <func_24+0x67>
    8b2c:	48 8d 45 cc          	lea    -0x34(%rbp),%rax
    8b30:	48 89 c6             	mov    %rax,%rsi
    8b33:	48 bf 59 81 54 41 6e 	movabs $0x362ebb6e41548159,%rdi
    8b3a:	bb 2e 36 
    8b3d:	e8 d4 0e 00 00       	callq  9a16 <func_53>
    8b42:	48 89 45 b0          	mov    %rax,-0x50(%rbp)
    8b46:	8b 05 d8 74 00 00    	mov    0x74d8(%rip),%eax        # 10024 <g_32>
    8b4c:	48 8b 4d f8          	mov    -0x8(%rbp),%rcx
    8b50:	64 48 33 0c 25 28 00 	xor    %fs:0x28,%rcx
    8b57:	00 00 
    8b59:	74 05                	je     8b60 <func_24+0xb6>
    8b5b:	e8 10 d5 ff ff       	callq  6070 <__stack_chk_fail@plt>
    8b60:	c9                   	leaveq 
    8b61:	c3                   	retq   

0000000000008b62 <func_28>:
    8b62:	f3 0f 1e fa          	endbr64 
    8b66:	55                   	push   %rbp
    8b67:	48 89 e5             	mov    %rsp,%rbp
    8b6a:	48 81 ec 50 04 00 00 	sub    $0x450,%rsp
    8b71:	48 89 bd c8 fb ff ff 	mov    %rdi,-0x438(%rbp)
    8b78:	89 f0                	mov    %esi,%eax
    8b7a:	48 89 95 b8 fb ff ff 	mov    %rdx,-0x448(%rbp)
    8b81:	66 89 85 c4 fb ff ff 	mov    %ax,-0x43c(%rbp)
    8b88:	64 48 8b 04 25 28 00 	mov    %fs:0x28,%rax
    8b8f:	00 00 
    8b91:	48 89 45 f8          	mov    %rax,-0x8(%rbp)
    8b95:	31 c0                	xor    %eax,%eax
    8b97:	48 8d 05 86 74 00 00 	lea    0x7486(%rip),%rax        # 10024 <g_32>
    8b9e:	48 89 85 e8 fb ff ff 	mov    %rax,-0x418(%rbp)
    8ba5:	48 8d 85 e8 fb ff ff 	lea    -0x418(%rbp),%rax
    8bac:	48 89 85 f0 fb ff ff 	mov    %rax,-0x410(%rbp)
    8bb3:	c7 85 d4 fb ff ff 09 	movl   $0x9,-0x42c(%rbp)
    8bba:	00 00 00 
    8bbd:	c7 85 d8 fb ff ff 21 	movl   $0x90b76121,-0x428(%rbp)
    8bc4:	61 b7 90 
    8bc7:	48 b8 32 84 97 1f e1 	movabs $0x9b1c8de11f978432,%rax
    8bce:	8d 1c 9b 
    8bd1:	48 89 85 00 fc ff ff 	mov    %rax,-0x400(%rbp)
    8bd8:	66 c7 85 3a fc ff ff 	movw   $0xffff,-0x3c6(%rbp)
    8bdf:	ff ff 
    8be1:	c6 85 3c fc ff ff ff 	movb   $0xff,-0x3c4(%rbp)
    8be8:	66 c7 85 3d fc ff ff 	movw   $0xf2f2,-0x3c3(%rbp)
    8bef:	f2 f2 
    8bf1:	c6 85 3f fc ff ff f2 	movb   $0xf2,-0x3c1(%rbp)
    8bf8:	c7 85 dc fb ff ff f8 	movl   $0xb189edf8,-0x424(%rbp)
    8bff:	ed 89 b1 
    8c02:	c7 85 40 fc ff ff ae 	movl   $0x93a734ae,-0x3c0(%rbp)
    8c09:	34 a7 93 
    8c0c:	c7 85 44 fc ff ff c9 	movl   $0x7a44e6c9,-0x3bc(%rbp)
    8c13:	e6 44 7a 
    8c16:	c7 85 48 fc ff ff ae 	movl   $0x93a734ae,-0x3b8(%rbp)
    8c1d:	34 a7 93 
    8c20:	c7 85 4c fc ff ff ea 	movl   $0x4e121dea,-0x3b4(%rbp)
    8c27:	1d 12 4e 
    8c2a:	c7 85 50 fc ff ff ea 	movl   $0x4e121dea,-0x3b0(%rbp)
    8c31:	1d 12 4e 
    8c34:	c7 85 54 fc ff ff ae 	movl   $0x93a734ae,-0x3ac(%rbp)
    8c3b:	34 a7 93 
    8c3e:	c7 85 58 fc ff ff c9 	movl   $0x7a44e6c9,-0x3a8(%rbp)
    8c45:	e6 44 7a 
    8c48:	c7 85 5c fc ff ff ae 	movl   $0x93a734ae,-0x3a4(%rbp)
    8c4f:	34 a7 93 
    8c52:	c7 85 60 fc ff ff ea 	movl   $0x4e121dea,-0x3a0(%rbp)
    8c59:	1d 12 4e 
    8c5c:	c7 85 64 fc ff ff ea 	movl   $0x4e121dea,-0x39c(%rbp)
    8c63:	1d 12 4e 
    8c66:	48 8d 85 00 fe ff ff 	lea    -0x200(%rbp),%rax
    8c6d:	48 8d 15 8c 37 00 00 	lea    0x378c(%rip),%rdx        # c400 <g_1458+0x38c>
    8c74:	b9 3d 00 00 00       	mov    $0x3d,%ecx
    8c79:	48 89 c7             	mov    %rax,%rdi
    8c7c:	48 89 d6             	mov    %rdx,%rsi
    8c7f:	f3 48 a5             	rep movsq %ds:(%rsi),%es:(%rdi)
    8c82:	48 89 f2             	mov    %rsi,%rdx
    8c85:	48 89 f8             	mov    %rdi,%rax
    8c88:	0f b7 0a             	movzwl (%rdx),%ecx
    8c8b:	66 89 08             	mov    %cx,(%rax)
    8c8e:	48 8d 40 02          	lea    0x2(%rax),%rax
    8c92:	48 8d 52 02          	lea    0x2(%rdx),%rdx
    8c96:	c7 85 e0 fb ff ff 04 	movl   $0x4,-0x420(%rbp)
    8c9d:	00 00 00 
    8ca0:	c7 85 20 fc ff ff 69 	movl   $0xe3bcda69,-0x3e0(%rbp)
    8ca7:	da bc e3 
    8caa:	c7 85 24 fc ff ff 01 	movl   $0x1,-0x3dc(%rbp)
    8cb1:	00 00 00 
    8cb4:	8b 85 28 fc ff ff    	mov    -0x3d8(%rbp),%eax
    8cba:	25 00 00 f8 ff       	and    $0xfff80000,%eax
    8cbf:	0c d8                	or     $0xd8,%al
    8cc1:	89 85 28 fc ff ff    	mov    %eax,-0x3d8(%rbp)
    8cc7:	c7 85 2c fc ff ff 00 	movl   $0x0,-0x3d4(%rbp)
    8cce:	00 00 00 
    8cd1:	8b 85 30 fc ff ff    	mov    -0x3d0(%rbp),%eax
    8cd7:	25 00 00 00 fe       	and    $0xfe000000,%eax
    8cdc:	0d 4c 0b 00 00       	or     $0xb4c,%eax
    8ce1:	89 85 30 fc ff ff    	mov    %eax,-0x3d0(%rbp)
    8ce7:	c7 05 33 73 00 00 00 	movl   $0x0,0x7333(%rip)        # 10024 <g_32>
    8cee:	00 00 00 
    8cf1:	eb 6a                	jmp    8d5d <func_28+0x1fb>
    8cf3:	48 c7 85 08 fc ff ff 	movq   $0x0,-0x3f8(%rbp)
    8cfa:	00 00 00 00 
    8cfe:	c7 85 e4 fb ff ff 03 	movl   $0x3,-0x41c(%rbp)
    8d05:	00 00 00 
    8d08:	48 8d 85 70 fc ff ff 	lea    -0x390(%rbp),%rax
    8d0f:	48 8d 15 ea 38 00 00 	lea    0x38ea(%rip),%rdx        # c600 <g_1458+0x58c>
    8d16:	b9 32 00 00 00       	mov    $0x32,%ecx
    8d1b:	48 89 c7             	mov    %rax,%rdi
    8d1e:	48 89 d6             	mov    %rdx,%rsi
    8d21:	f3 48 a5             	rep movsq %ds:(%rsi),%es:(%rdi)
    8d24:	48 8d 85 f0 fb ff ff 	lea    -0x410(%rbp),%rax
    8d2b:	48 89 85 10 fc ff ff 	mov    %rax,-0x3f0(%rbp)
    8d32:	48 8d 05 c7 97 00 00 	lea    0x97c7(%rip),%rax        # 12500 <g_490>
    8d39:	48 89 85 f8 fb ff ff 	mov    %rax,-0x408(%rbp)
    8d40:	48 8d 85 f8 fb ff ff 	lea    -0x408(%rbp),%rax
    8d47:	48 89 85 18 fc ff ff 	mov    %rax,-0x3e8(%rbp)
    8d4e:	8b 05 d0 72 00 00    	mov    0x72d0(%rip),%eax        # 10024 <g_32>
    8d54:	83 e8 01             	sub    $0x1,%eax
    8d57:	89 05 c7 72 00 00    	mov    %eax,0x72c7(%rip)        # 10024 <g_32>
    8d5d:	8b 05 c1 72 00 00    	mov    0x72c1(%rip),%eax        # 10024 <g_32>
    8d63:	83 f8 fe             	cmp    $0xfffffffe,%eax
    8d66:	7c 8b                	jl     8cf3 <func_28+0x191>
    8d68:	48 8b 85 c8 fb ff ff 	mov    -0x438(%rbp),%rax
    8d6f:	c7 00 19 1d 11 6b    	movl   $0x6b111d19,(%rax)
    8d75:	48 8b 85 c8 fb ff ff 	mov    -0x438(%rbp),%rax
    8d7c:	c7 40 04 25 82 f5 62 	movl   $0x62f58225,0x4(%rax)
    8d83:	48 8b 85 c8 fb ff ff 	mov    -0x438(%rbp),%rax
    8d8a:	8b 50 08             	mov    0x8(%rax),%edx
    8d8d:	81 e2 00 00 f8 ff    	and    $0xfff80000,%edx
    8d93:	81 ca 37 01 00 00    	or     $0x137,%edx
    8d99:	89 50 08             	mov    %edx,0x8(%rax)
    8d9c:	48 8b 85 c8 fb ff ff 	mov    -0x438(%rbp),%rax
    8da3:	c7 40 0c c6 5e c2 70 	movl   $0x70c25ec6,0xc(%rax)
    8daa:	48 8b 85 c8 fb ff ff 	mov    -0x438(%rbp),%rax
    8db1:	8b 50 10             	mov    0x10(%rax),%edx
    8db4:	81 e2 00 00 00 fe    	and    $0xfe000000,%edx
    8dba:	81 ca bd 13 00 00    	or     $0x13bd,%edx
    8dc0:	89 50 10             	mov    %edx,0x10(%rax)
    8dc3:	48 8b 45 f8          	mov    -0x8(%rbp),%rax
    8dc7:	64 48 33 04 25 28 00 	xor    %fs:0x28,%rax
    8dce:	00 00 
    8dd0:	74 05                	je     8dd7 <func_28+0x275>
    8dd2:	e8 99 d2 ff ff       	callq  6070 <__stack_chk_fail@plt>
    8dd7:	48 8b 85 c8 fb ff ff 	mov    -0x438(%rbp),%rax
    8dde:	c9                   	leaveq 
    8ddf:	c3                   	retq   

0000000000008de0 <func_35>:
    8de0:	f3 0f 1e fa          	endbr64 
    8de4:	55                   	push   %rbp
    8de5:	48 89 e5             	mov    %rsp,%rbp
    8de8:	48 83 c4 80          	add    $0xffffffffffffff80,%rsp
    8dec:	48 89 7d 98          	mov    %rdi,-0x68(%rbp)
    8df0:	48 89 75 90          	mov    %rsi,-0x70(%rbp)
    8df4:	89 55 8c             	mov    %edx,-0x74(%rbp)
    8df7:	64 48 8b 04 25 28 00 	mov    %fs:0x28,%rax
    8dfe:	00 00 
    8e00:	48 89 45 f8          	mov    %rax,-0x8(%rbp)
    8e04:	31 c0                	xor    %eax,%eax
    8e06:	c7 45 ac 01 00 00 00 	movl   $0x1,-0x54(%rbp)
    8e0d:	48 8d 05 1c 72 00 00 	lea    0x721c(%rip),%rax        # 10030 <g_46>
    8e14:	48 89 45 b0          	mov    %rax,-0x50(%rbp)
    8e18:	48 8d 05 11 72 00 00 	lea    0x7211(%rip),%rax        # 10030 <g_46>
    8e1f:	48 89 45 b8          	mov    %rax,-0x48(%rbp)
    8e23:	48 8d 05 06 72 00 00 	lea    0x7206(%rip),%rax        # 10030 <g_46>
    8e2a:	48 89 45 c0          	mov    %rax,-0x40(%rbp)
    8e2e:	48 8d 05 fb 71 00 00 	lea    0x71fb(%rip),%rax        # 10030 <g_46>
    8e35:	48 89 45 c8          	mov    %rax,-0x38(%rbp)
    8e39:	48 8d 05 f0 71 00 00 	lea    0x71f0(%rip),%rax        # 10030 <g_46>
    8e40:	48 89 45 d0          	mov    %rax,-0x30(%rbp)
    8e44:	48 8d 05 e5 71 00 00 	lea    0x71e5(%rip),%rax        # 10030 <g_46>
    8e4b:	48 89 45 d8          	mov    %rax,-0x28(%rbp)
    8e4f:	48 8d 05 da 71 00 00 	lea    0x71da(%rip),%rax        # 10030 <g_46>
    8e56:	48 89 45 e0          	mov    %rax,-0x20(%rbp)
    8e5a:	48 8d 05 cf 71 00 00 	lea    0x71cf(%rip),%rax        # 10030 <g_46>
    8e61:	48 89 45 e8          	mov    %rax,-0x18(%rbp)
    8e65:	c6 45 ab 00          	movb   $0x0,-0x55(%rbp)
    8e69:	8b 45 8c             	mov    -0x74(%rbp),%eax
    8e6c:	21 45 ac             	and    %eax,-0x54(%rbp)
    8e6f:	8b 45 8c             	mov    -0x74(%rbp),%eax
    8e72:	0f be c0             	movsbl %al,%eax
    8e75:	8b 55 ac             	mov    -0x54(%rbp),%edx
    8e78:	89 d6                	mov    %edx,%esi
    8e7a:	89 c7                	mov    %eax,%edi
    8e7c:	e8 20 d4 ff ff       	callq  62a1 <safe_lshift_func_int8_t_s_s>
    8e81:	89 c2                	mov    %eax,%edx
    8e83:	48 8b 05 7e 96 00 00 	mov    0x967e(%rip),%rax        # 12508 <g_564>
    8e8a:	66 0f be d2          	movsbw %dl,%dx
    8e8e:	66 89 10             	mov    %dx,(%rax)
    8e91:	0f b7 00             	movzwl (%rax),%eax
    8e94:	66 83 f8 06          	cmp    $0x6,%ax
    8e98:	0f 95 c0             	setne  %al
    8e9b:	0f b6 c0             	movzbl %al,%eax
    8e9e:	be 01 00 00 00       	mov    $0x1,%esi
    8ea3:	89 c7                	mov    %eax,%edi
    8ea5:	e8 c0 d3 ff ff       	callq  626a <safe_div_func_int8_t_s_s>
    8eaa:	84 c0                	test   %al,%al
    8eac:	0f 95 c0             	setne  %al
    8eaf:	0f b6 c8             	movzbl %al,%ecx
    8eb2:	48 8b 05 27 8b 00 00 	mov    0x8b27(%rip),%rax        # 119e0 <g_48>
    8eb9:	8b 10                	mov    (%rax),%edx
    8ebb:	48 8b 05 1e 8b 00 00 	mov    0x8b1e(%rip),%rax        # 119e0 <g_48>
    8ec2:	31 ca                	xor    %ecx,%edx
    8ec4:	89 10                	mov    %edx,(%rax)
    8ec6:	8b 00                	mov    (%rax),%eax
    8ec8:	08 45 ab             	or     %al,-0x55(%rbp)
    8ecb:	48 8d 05 0e 8b 00 00 	lea    0x8b0e(%rip),%rax        # 119e0 <g_48>
    8ed2:	48 8b 4d f8          	mov    -0x8(%rbp),%rcx
    8ed6:	64 48 33 0c 25 28 00 	xor    %fs:0x28,%rcx
    8edd:	00 00 
    8edf:	74 05                	je     8ee6 <func_35+0x106>
    8ee1:	e8 8a d1 ff ff       	callq  6070 <__stack_chk_fail@plt>
    8ee6:	c9                   	leaveq 
    8ee7:	c3                   	retq   

0000000000008ee8 <func_39>:
    8ee8:	f3 0f 1e fa          	endbr64 
    8eec:	55                   	push   %rbp
    8eed:	48 89 e5             	mov    %rsp,%rbp
    8ef0:	41 56                	push   %r14
    8ef2:	41 55                	push   %r13
    8ef4:	41 54                	push   %r12
    8ef6:	53                   	push   %rbx
    8ef7:	48 81 ec 10 05 00 00 	sub    $0x510,%rsp
    8efe:	48 89 bd e8 fa ff ff 	mov    %rdi,-0x518(%rbp)
    8f05:	48 89 b5 e0 fa ff ff 	mov    %rsi,-0x520(%rbp)
    8f0c:	48 89 95 d8 fa ff ff 	mov    %rdx,-0x528(%rbp)
    8f13:	64 48 8b 04 25 28 00 	mov    %fs:0x28,%rax
    8f1a:	00 00 
    8f1c:	48 89 45 d8          	mov    %rax,-0x28(%rbp)
    8f20:	31 c0                	xor    %eax,%eax
    8f22:	c7 85 fc fa ff ff 01 	movl   $0x1,-0x504(%rbp)
    8f29:	00 00 00 
    8f2c:	48 8d 05 11 71 00 00 	lea    0x7111(%rip),%rax        # 10044 <g_67>
    8f33:	48 89 85 38 fb ff ff 	mov    %rax,-0x4c8(%rbp)
    8f3a:	48 8d 05 8f 8c 00 00 	lea    0x8c8f(%rip),%rax        # 11bd0 <g_221>
    8f41:	48 89 85 20 fc ff ff 	mov    %rax,-0x3e0(%rbp)
    8f48:	48 8d 05 81 8c 00 00 	lea    0x8c81(%rip),%rax        # 11bd0 <g_221>
    8f4f:	48 89 85 28 fc ff ff 	mov    %rax,-0x3d8(%rbp)
    8f56:	48 8d 05 73 8c 00 00 	lea    0x8c73(%rip),%rax        # 11bd0 <g_221>
    8f5d:	48 89 85 30 fc ff ff 	mov    %rax,-0x3d0(%rbp)
    8f64:	48 8d 05 65 8c 00 00 	lea    0x8c65(%rip),%rax        # 11bd0 <g_221>
    8f6b:	48 89 85 38 fc ff ff 	mov    %rax,-0x3c8(%rbp)
    8f72:	48 8d 05 57 8c 00 00 	lea    0x8c57(%rip),%rax        # 11bd0 <g_221>
    8f79:	48 89 85 40 fc ff ff 	mov    %rax,-0x3c0(%rbp)
    8f80:	48 8d 05 49 8c 00 00 	lea    0x8c49(%rip),%rax        # 11bd0 <g_221>
    8f87:	48 89 85 48 fc ff ff 	mov    %rax,-0x3b8(%rbp)
    8f8e:	48 8d 05 3b 8c 00 00 	lea    0x8c3b(%rip),%rax        # 11bd0 <g_221>
    8f95:	48 89 85 50 fc ff ff 	mov    %rax,-0x3b0(%rbp)
    8f9c:	48 8d 05 2d 8c 00 00 	lea    0x8c2d(%rip),%rax        # 11bd0 <g_221>
    8fa3:	48 89 85 58 fc ff ff 	mov    %rax,-0x3a8(%rbp)
    8faa:	48 8d 05 1f 8c 00 00 	lea    0x8c1f(%rip),%rax        # 11bd0 <g_221>
    8fb1:	48 89 85 60 fc ff ff 	mov    %rax,-0x3a0(%rbp)
    8fb8:	48 8d 05 11 8c 00 00 	lea    0x8c11(%rip),%rax        # 11bd0 <g_221>
    8fbf:	48 89 85 68 fc ff ff 	mov    %rax,-0x398(%rbp)
    8fc6:	c7 85 00 fb ff ff 01 	movl   $0x1,-0x500(%rbp)
    8fcd:	00 00 00 
    8fd0:	c7 85 90 fb ff ff af 	movl   $0x72cda5af,-0x470(%rbp)
    8fd7:	a5 cd 72 
    8fda:	c7 85 94 fb ff ff da 	movl   $0x33014dda,-0x46c(%rbp)
    8fe1:	4d 01 33 
    8fe4:	8b 85 98 fb ff ff    	mov    -0x468(%rbp),%eax
    8fea:	25 00 00 f8 ff       	and    $0xfff80000,%eax
    8fef:	83 c8 5b             	or     $0x5b,%eax
    8ff2:	89 85 98 fb ff ff    	mov    %eax,-0x468(%rbp)
    8ff8:	c7 85 9c fb ff ff de 	movl   $0x284b9bde,-0x464(%rbp)
    8fff:	9b 4b 28 
    9002:	8b 85 a0 fb ff ff    	mov    -0x460(%rbp),%eax
    9008:	25 00 00 00 fe       	and    $0xfe000000,%eax
    900d:	0d da 08 00 00       	or     $0x8da,%eax
    9012:	89 85 a0 fb ff ff    	mov    %eax,-0x460(%rbp)
    9018:	48 8d 05 89 9d 00 00 	lea    0x9d89(%rip),%rax        # 12da8 <g_220>
    901f:	48 89 85 18 fb ff ff 	mov    %rax,-0x4e8(%rbp)
    9026:	48 8d 85 18 fb ff ff 	lea    -0x4e8(%rbp),%rax
    902d:	48 89 85 20 fb ff ff 	mov    %rax,-0x4e0(%rbp)
    9034:	48 8d 05 c5 94 00 00 	lea    0x94c5(%rip),%rax        # 12500 <g_490>
    903b:	48 89 85 28 fb ff ff 	mov    %rax,-0x4d8(%rbp)
    9042:	48 8d 85 28 fb ff ff 	lea    -0x4d8(%rbp),%rax
    9049:	48 89 85 40 fb ff ff 	mov    %rax,-0x4c0(%rbp)
    9050:	48 c7 85 48 fb ff ff 	movq   $0x0,-0x4b8(%rbp)
    9057:	00 00 00 00 
    905b:	48 b8 00 03 21 21 4a 	movabs $0x660064a21210300,%rax
    9062:	06 60 06 
    9065:	48 89 85 d0 fb ff ff 	mov    %rax,-0x430(%rbp)
    906c:	48 b8 4a 06 60 06 4a 	movabs $0x4a21214a0660064a,%rax
    9073:	21 21 4a 
    9076:	48 89 85 d8 fb ff ff 	mov    %rax,-0x428(%rbp)
    907d:	48 bb 06 03 03 06 9f 	movabs $0x69f4a9f06030306,%rbx
    9084:	4a 9f 06 
    9087:	48 89 9d e0 fb ff ff 	mov    %rbx,-0x420(%rbp)
    908e:	48 bb 03 9f 03 21 60 	movabs $0x321606021039f03,%rbx
    9095:	60 21 03 
    9098:	48 89 9d e8 fb ff ff 	mov    %rbx,-0x418(%rbp)
    909f:	48 b9 9f 9f 60 4a 00 	movabs $0x9f604a004a609f9f,%rcx
    90a6:	4a 60 9f 
    90a9:	48 89 8d f0 fb ff ff 	mov    %rcx,-0x410(%rbp)
    90b0:	48 bb 9f 03 21 60 60 	movabs $0x9f0321606021039f,%rbx
    90b7:	21 03 9f 
    90ba:	48 89 9d f8 fb ff ff 	mov    %rbx,-0x408(%rbp)
    90c1:	48 b9 03 06 9f 4a 9f 	movabs $0x303069f4a9f0603,%rcx
    90c8:	06 03 03 
    90cb:	48 89 8d 00 fc ff ff 	mov    %rcx,-0x400(%rbp)
    90d2:	48 bb 06 4a 21 21 4a 	movabs $0x660064a21214a06,%rbx
    90d9:	06 60 06 
    90dc:	48 89 9d 08 fc ff ff 	mov    %rbx,-0x3f8(%rbp)
    90e3:	48 89 85 10 fc ff ff 	mov    %rax,-0x3f0(%rbp)
    90ea:	48 8b 85 e8 fa ff ff 	mov    -0x518(%rbp),%rax
    90f1:	48 8b 18             	mov    (%rax),%rbx
    90f4:	8b 45 20             	mov    0x20(%rbp),%eax
    90f7:	25 ff ff ff 01       	and    $0x1ffffff,%eax
    90fc:	44 0f be e0          	movsbl %al,%r12d
    9100:	8b 45 1c             	mov    0x1c(%rbp),%eax
    9103:	85 c0                	test   %eax,%eax
    9105:	0f 95 c0             	setne  %al
    9108:	0f b6 d0             	movzbl %al,%edx
    910b:	8b 45 14             	mov    0x14(%rbp),%eax
    910e:	09 c2                	or     %eax,%edx
    9110:	41 89 d5             	mov    %edx,%r13d
    9113:	8b 45 14             	mov    0x14(%rbp),%eax
    9116:	48 98                	cltq   
    9118:	48 89 c7             	mov    %rax,%rdi
    911b:	e8 f9 de ff ff       	callq  7019 <safe_unary_minus_func_uint64_t_u>
    9120:	44 89 ee             	mov    %r13d,%esi
    9123:	89 c7                	mov    %eax,%edi
    9125:	e8 a2 d5 ff ff       	callq  66cc <safe_mod_func_int32_t_s_s>
    912a:	3d 33 9f 00 00       	cmp    $0x9f33,%eax
    912f:	0f 9e c0             	setle  %al
    9132:	0f b6 d0             	movzbl %al,%edx
    9135:	8b 05 fd 6e 00 00    	mov    0x6efd(%rip),%eax        # 10038 <g_46+0x8>
    913b:	25 ff ff 07 00       	and    $0x7ffff,%eax
    9140:	0f b6 c0             	movzbl %al,%eax
    9143:	89 d6                	mov    %edx,%esi
    9145:	89 c7                	mov    %eax,%edi
    9147:	e8 0e da ff ff       	callq  6b5a <safe_add_func_uint8_t_u_u>
    914c:	0f b6 d0             	movzbl %al,%edx
    914f:	8b 05 eb 6e 00 00    	mov    0x6eeb(%rip),%eax        # 10040 <g_46+0x10>
    9155:	25 ff ff ff 01       	and    $0x1ffffff,%eax
    915a:	0f b7 c0             	movzwl %ax,%eax
    915d:	89 d6                	mov    %edx,%esi
    915f:	89 c7                	mov    %eax,%edi
    9161:	e8 b9 db ff ff       	callq  6d1f <safe_sub_func_uint16_t_u_u>
    9166:	48 8b 95 38 fb ff ff 	mov    -0x4c8(%rbp),%rdx
    916d:	0f b6 12             	movzbl (%rdx),%edx
    9170:	89 d1                	mov    %edx,%ecx
    9172:	8b 95 fc fa ff ff    	mov    -0x504(%rbp),%edx
    9178:	09 ca                	or     %ecx,%edx
    917a:	89 d1                	mov    %edx,%ecx
    917c:	48 8b 95 38 fb ff ff 	mov    -0x4c8(%rbp),%rdx
    9183:	88 0a                	mov    %cl,(%rdx)
    9185:	48 8b 95 38 fb ff ff 	mov    -0x4c8(%rbp),%rdx
    918c:	0f b6 12             	movzbl (%rdx),%edx
    918f:	0f b6 d2             	movzbl %dl,%edx
    9192:	66 39 d0             	cmp    %dx,%ax
    9195:	0f 92 c0             	setb   %al
    9198:	0f b6 c0             	movzbl %al,%eax
    919b:	39 85 fc fa ff ff    	cmp    %eax,-0x504(%rbp)
    91a1:	0f 94 c0             	sete   %al
    91a4:	0f b6 c0             	movzbl %al,%eax
    91a7:	44 89 e6             	mov    %r12d,%esi
    91aa:	89 c7                	mov    %eax,%edi
    91ac:	e8 41 d0 ff ff       	callq  61f2 <safe_sub_func_int8_t_s_s>
    91b1:	48 89 de             	mov    %rbx,%rsi
    91b4:	bf 01 00 00 00       	mov    $0x1,%edi
    91b9:	e8 58 08 00 00       	callq  9a16 <func_53>
    91be:	48 8b 95 e8 fa ff ff 	mov    -0x518(%rbp),%rdx
    91c5:	48 89 02             	mov    %rax,(%rdx)
    91c8:	48 8b 05 19 94 00 00 	mov    0x9419(%rip),%rax        # 125e8 <g_653>
    91cf:	48 8b 95 e8 fa ff ff 	mov    -0x518(%rbp),%rdx
    91d6:	48 8b 12             	mov    (%rdx),%rdx
    91d9:	48 89 10             	mov    %rdx,(%rax)
    91dc:	48 8b 05 dd 89 00 00 	mov    0x89dd(%rip),%rax        # 11bc0 <g_115>
    91e3:	0f b6 00             	movzbl (%rax),%eax
    91e6:	0f be d8             	movsbl %al,%ebx
    91e9:	8b 85 fc fa ff ff    	mov    -0x504(%rbp),%eax
    91ef:	48 63 d0             	movslq %eax,%rdx
    91f2:	8b 85 fc fa ff ff    	mov    -0x504(%rbp),%eax
    91f8:	48 98                	cltq   
    91fa:	48 89 d6             	mov    %rdx,%rsi
    91fd:	48 89 c7             	mov    %rax,%rdi
    9200:	e8 af d7 ff ff       	callq  69b4 <safe_mod_func_int64_t_s_s>
    9205:	98                   	cwtl   
    9206:	be ab da ff ff       	mov    $0xffffdaab,%esi
    920b:	89 c7                	mov    %eax,%edi
    920d:	e8 04 d2 ff ff       	callq  6416 <safe_mod_func_int16_t_s_s>
    9212:	66 3d f1 00          	cmp    $0xf1,%ax
    9216:	0f 9f c0             	setg   %al
    9219:	0f b6 c0             	movzbl %al,%eax
    921c:	89 de                	mov    %ebx,%esi
    921e:	89 c7                	mov    %eax,%edi
    9220:	e8 0c d0 ff ff       	callq  6231 <safe_mod_func_int8_t_s_s>
    9225:	89 c2                	mov    %eax,%edx
    9227:	48 8b 05 da 92 00 00 	mov    0x92da(%rip),%rax        # 12508 <g_564>
    922e:	66 0f be d2          	movsbw %dl,%dx
    9232:	66 89 10             	mov    %dx,(%rax)
    9235:	0f b7 00             	movzwl (%rax),%eax
    9238:	98                   	cwtl   
    9239:	39 85 fc fa ff ff    	cmp    %eax,-0x504(%rbp)
    923f:	0f 9e c0             	setle  %al
    9242:	0f b6 d0             	movzbl %al,%edx
    9245:	8b 45 14             	mov    0x14(%rbp),%eax
    9248:	39 c2                	cmp    %eax,%edx
    924a:	0f 94 c0             	sete   %al
    924d:	0f b6 c0             	movzbl %al,%eax
    9250:	48 89 c6             	mov    %rax,%rsi
    9253:	bf 00 00 00 00       	mov    $0x0,%edi
    9258:	e8 ee dd ff ff       	callq  704b <safe_sub_func_uint64_t_u_u>
    925d:	0f be c0             	movsbl %al,%eax
    9260:	be 06 00 00 00       	mov    $0x6,%esi
    9265:	89 c7                	mov    %eax,%edi
    9267:	e8 82 d0 ff ff       	callq  62ee <safe_lshift_func_int8_t_s_u>
    926c:	0f be c0             	movsbl %al,%eax
    926f:	39 85 fc fa ff ff    	cmp    %eax,-0x504(%rbp)
    9275:	0f 9f c0             	setg   %al
    9278:	0f b6 d0             	movzbl %al,%edx
    927b:	48 8b 05 3e 89 00 00 	mov    0x893e(%rip),%rax        # 11bc0 <g_115>
    9282:	0f b6 00             	movzbl (%rax),%eax
    9285:	0f b6 c0             	movzbl %al,%eax
    9288:	39 c2                	cmp    %eax,%edx
    928a:	75 4f                	jne    92db <func_39+0x3f3>
    928c:	48 8d 85 70 fc ff ff 	lea    -0x390(%rbp),%rax
    9293:	48 8d 15 06 35 00 00 	lea    0x3506(%rip),%rdx        # c7a0 <g_1458+0x72c>
    929a:	b9 6c 00 00 00       	mov    $0x6c,%ecx
    929f:	48 89 c7             	mov    %rax,%rdi
    92a2:	48 89 d6             	mov    %rdx,%rsi
    92a5:	f3 48 a5             	rep movsq %ds:(%rsi),%es:(%rdi)
    92a8:	c7 85 14 fb ff ff 07 	movl   $0x7,-0x4ec(%rbp)
    92af:	00 00 00 
    92b2:	8b 95 ac fd ff ff    	mov    -0x254(%rbp),%edx
    92b8:	48 8b 85 e8 fa ff ff 	mov    -0x518(%rbp),%rax
    92bf:	48 8b 00             	mov    (%rax),%rax
    92c2:	89 10                	mov    %edx,(%rax)
    92c4:	8b 85 14 fb ff ff    	mov    -0x4ec(%rbp),%eax
    92ca:	0b 85 00 fb ff ff    	or     -0x500(%rbp),%eax
    92d0:	89 85 14 fb ff ff    	mov    %eax,-0x4ec(%rbp)
    92d6:	e9 27 06 00 00       	jmpq   9902 <func_39+0xa1a>
    92db:	66 c7 85 f2 fa ff ff 	movw   $0x3a8b,-0x50e(%rbp)
    92e2:	8b 3a 
    92e4:	48 8d 85 a8 fb ff ff 	lea    -0x458(%rbp),%rax
    92eb:	48 89 85 50 fb ff ff 	mov    %rax,-0x4b0(%rbp)
    92f2:	48 8d 85 20 fb ff ff 	lea    -0x4e0(%rbp),%rax
    92f9:	48 89 85 58 fb ff ff 	mov    %rax,-0x4a8(%rbp)
    9300:	c6 85 b6 fb ff ff 8c 	movb   $0x8c,-0x44a(%rbp)
    9307:	c6 85 b7 fb ff ff 8c 	movb   $0x8c,-0x449(%rbp)
    930e:	c6 85 b8 fb ff ff db 	movb   $0xdb,-0x448(%rbp)
    9315:	c6 85 b9 fb ff ff 8c 	movb   $0x8c,-0x447(%rbp)
    931c:	c6 85 ba fb ff ff 8c 	movb   $0x8c,-0x446(%rbp)
    9323:	c6 85 bb fb ff ff db 	movb   $0xdb,-0x445(%rbp)
    932a:	c6 85 bc fb ff ff 8c 	movb   $0x8c,-0x444(%rbp)
    9331:	c6 85 bd fb ff ff 8c 	movb   $0x8c,-0x443(%rbp)
    9338:	c6 85 be fb ff ff db 	movb   $0xdb,-0x442(%rbp)
    933f:	c6 85 bf fb ff ff 8c 	movb   $0x8c,-0x441(%rbp)
    9346:	c7 85 f4 fa ff ff 00 	movl   $0x0,-0x50c(%rbp)
    934d:	00 00 00 
    9350:	eb 1b                	jmp    936d <func_39+0x485>
    9352:	8b 85 f4 fa ff ff    	mov    -0x50c(%rbp),%eax
    9358:	48 98                	cltq   
    935a:	48 c7 84 c5 a8 fb ff 	movq   $0x0,-0x458(%rbp,%rax,8)
    9361:	ff 00 00 00 00 
    9366:	83 85 f4 fa ff ff 01 	addl   $0x1,-0x50c(%rbp)
    936d:	83 bd f4 fa ff ff 00 	cmpl   $0x0,-0x50c(%rbp)
    9374:	7e dc                	jle    9352 <func_39+0x46a>
    9376:	c7 85 f4 fa ff ff 00 	movl   $0x0,-0x50c(%rbp)
    937d:	00 00 00 
    9380:	eb 1b                	jmp    939d <func_39+0x4b5>
    9382:	8b 85 f4 fa ff ff    	mov    -0x50c(%rbp),%eax
    9388:	48 98                	cltq   
    938a:	48 c7 84 c5 70 fc ff 	movq   $0x0,-0x390(%rbp,%rax,8)
    9391:	ff 00 00 00 00 
    9396:	83 85 f4 fa ff ff 01 	addl   $0x1,-0x50c(%rbp)
    939d:	83 bd f4 fa ff ff 02 	cmpl   $0x2,-0x50c(%rbp)
    93a4:	7e dc                	jle    9382 <func_39+0x49a>
    93a6:	0f b7 85 f2 fa ff ff 	movzwl -0x50e(%rbp),%eax
    93ad:	0f b7 d0             	movzwl %ax,%edx
    93b0:	8b 85 00 fb ff ff    	mov    -0x500(%rbp),%eax
    93b6:	89 d6                	mov    %edx,%esi
    93b8:	89 c7                	mov    %eax,%edi
    93ba:	e8 66 db ff ff       	callq  6f25 <safe_div_func_uint32_t_u_u>
    93bf:	89 c2                	mov    %eax,%edx
    93c1:	48 8b 85 e8 fa ff ff 	mov    -0x518(%rbp),%rax
    93c8:	48 8b 00             	mov    (%rax),%rax
    93cb:	89 10                	mov    %edx,(%rax)
    93cd:	48 8b 85 50 fb ff ff 	mov    -0x4b0(%rbp),%rax
    93d4:	48 c7 00 00 00 00 00 	movq   $0x0,(%rax)
    93db:	48 8b 8d 50 fc ff ff 	mov    -0x3b0(%rbp),%rcx
    93e2:	48 8b 95 20 fb ff ff 	mov    -0x4e0(%rbp),%rdx
    93e9:	48 8b 85 58 fb ff ff 	mov    -0x4a8(%rbp),%rax
    93f0:	48 89 10             	mov    %rdx,(%rax)
    93f3:	48 8b 85 58 fb ff ff 	mov    -0x4a8(%rbp),%rax
    93fa:	48 8b 00             	mov    (%rax),%rax
    93fd:	48 39 c1             	cmp    %rax,%rcx
    9400:	0f 95 c0             	setne  %al
    9403:	0f b6 c0             	movzbl %al,%eax
    9406:	89 c2                	mov    %eax,%edx
    9408:	0f b7 85 f2 fa ff ff 	movzwl -0x50e(%rbp),%eax
    940f:	0f b7 c0             	movzwl %ax,%eax
    9412:	39 c2                	cmp    %eax,%edx
    9414:	0f 9c c0             	setl   %al
    9417:	0f b6 d0             	movzbl %al,%edx
    941a:	48 8b 85 e8 fa ff ff 	mov    -0x518(%rbp),%rax
    9421:	48 8b 00             	mov    (%rax),%rax
    9424:	8b 8d fc fa ff ff    	mov    -0x504(%rbp),%ecx
    942a:	89 08                	mov    %ecx,(%rax)
    942c:	8b 00                	mov    (%rax),%eax
    942e:	89 d6                	mov    %edx,%esi
    9430:	89 c7                	mov    %eax,%edi
    9432:	e8 ce d1 ff ff       	callq  6605 <safe_sub_func_int32_t_s_s>
    9437:	85 c0                	test   %eax,%eax
    9439:	0f 84 84 03 00 00    	je     97c3 <func_39+0x8db>
    943f:	48 8d 05 0e 72 00 00 	lea    0x720e(%rip),%rax        # 10654 <g_504+0x14>
    9446:	48 89 85 70 fb ff ff 	mov    %rax,-0x490(%rbp)
    944d:	c7 85 0c fb ff ff 00 	movl   $0x0,-0x4f4(%rbp)
    9454:	00 00 00 
    9457:	48 8d 05 02 72 00 00 	lea    0x7202(%rip),%rax        # 10660 <g_504+0x20>
    945e:	48 89 85 78 fb ff ff 	mov    %rax,-0x488(%rbp)
    9465:	48 8d 85 f2 fa ff ff 	lea    -0x50e(%rbp),%rax
    946c:	48 89 85 80 fb ff ff 	mov    %rax,-0x480(%rbp)
    9473:	c7 85 10 fb ff ff ff 	movl   $0xffffffff,-0x4f0(%rbp)
    947a:	ff ff ff 
    947d:	48 8d 05 7c 90 00 00 	lea    0x907c(%rip),%rax        # 12500 <g_490>
    9484:	48 89 85 30 fb ff ff 	mov    %rax,-0x4d0(%rbp)
    948b:	48 8d 85 30 fb ff ff 	lea    -0x4d0(%rbp),%rax
    9492:	48 89 85 88 fb ff ff 	mov    %rax,-0x478(%rbp)
    9499:	48 8b 85 70 fc ff ff 	mov    -0x390(%rbp),%rax
    94a0:	48 89 85 70 fb ff ff 	mov    %rax,-0x490(%rbp)
    94a7:	48 8b 05 72 87 00 00 	mov    0x8772(%rip),%rax        # 11c20 <g_237>
    94ae:	8b 85 98 fb ff ff    	mov    -0x468(%rbp),%eax
    94b4:	25 ff ff 07 00       	and    $0x7ffff,%eax
    94b9:	0f b7 d8             	movzwl %ax,%ebx
    94bc:	8b 85 a0 fb ff ff    	mov    -0x460(%rbp),%eax
    94c2:	25 ff ff ff 01       	and    $0x1ffffff,%eax
    94c7:	44 0f bf e0          	movswl %ax,%r12d
    94cb:	8b 85 a0 fb ff ff    	mov    -0x460(%rbp),%eax
    94d1:	25 ff ff ff 01       	and    $0x1ffffff,%eax
    94d6:	44 0f b7 e8          	movzwl %ax,%r13d
    94da:	48 8b 85 e8 fa ff ff 	mov    -0x518(%rbp),%rax
    94e1:	48 8b 00             	mov    (%rax),%rax
    94e4:	8b 00                	mov    (%rax),%eax
    94e6:	41 89 c6             	mov    %eax,%r14d
    94e9:	8b 85 fc fa ff ff    	mov    -0x504(%rbp),%eax
    94ef:	0f bf d0             	movswl %ax,%edx
    94f2:	8b 45 20             	mov    0x20(%rbp),%eax
    94f5:	25 ff ff ff 01       	and    $0x1ffffff,%eax
    94fa:	98                   	cwtl   
    94fb:	89 d6                	mov    %edx,%esi
    94fd:	89 c7                	mov    %eax,%edi
    94ff:	e8 f1 ce ff ff       	callq  63f5 <safe_mul_func_int16_t_s_s>
    9504:	98                   	cwtl   
    9505:	44 89 f6             	mov    %r14d,%esi
    9508:	89 c7                	mov    %eax,%edi
    950a:	e8 c1 d9 ff ff       	callq  6ed0 <safe_sub_func_uint32_t_u_u>
    950f:	0f b7 c0             	movzwl %ax,%eax
    9512:	44 89 ee             	mov    %r13d,%esi
    9515:	89 c7                	mov    %eax,%edi
    9517:	e8 40 d8 ff ff       	callq  6d5c <safe_mod_func_uint16_t_u_u>
    951c:	48 8b 15 ed 8f 00 00 	mov    0x8fed(%rip),%rdx        # 12510 <g_563>
    9523:	48 8b 12             	mov    (%rdx),%rdx
    9526:	0f b7 12             	movzwl (%rdx),%edx
    9529:	89 c1                	mov    %eax,%ecx
    952b:	48 8b 05 de 8f 00 00 	mov    0x8fde(%rip),%rax        # 12510 <g_563>
    9532:	48 8b 00             	mov    (%rax),%rax
    9535:	21 ca                	and    %ecx,%edx
    9537:	66 89 10             	mov    %dx,(%rax)
    953a:	0f b7 00             	movzwl (%rax),%eax
    953d:	98                   	cwtl   
    953e:	44 89 e6             	mov    %r12d,%esi
    9541:	89 c7                	mov    %eax,%edi
    9543:	e8 ad ce ff ff       	callq  63f5 <safe_mul_func_int16_t_s_s>
    9548:	0f b7 c0             	movzwl %ax,%eax
    954b:	be 04 00 00 00       	mov    $0x4,%esi
    9550:	89 c7                	mov    %eax,%edi
    9552:	e8 23 d9 ff ff       	callq  6e7a <safe_rshift_func_uint16_t_u_u>
    9557:	0f b6 d0             	movzbl %al,%edx
    955a:	48 8b 05 5f 86 00 00 	mov    0x865f(%rip),%rax        # 11bc0 <g_115>
    9561:	0f b6 00             	movzbl (%rax),%eax
    9564:	0f b6 c0             	movzbl %al,%eax
    9567:	89 d6                	mov    %edx,%esi
    9569:	89 c7                	mov    %eax,%edi
    956b:	e8 ea d5 ff ff       	callq  6b5a <safe_add_func_uint8_t_u_u>
    9570:	0f b6 85 b9 fb ff ff 	movzbl -0x447(%rbp),%eax
    9577:	84 c0                	test   %al,%al
    9579:	8b 45 10             	mov    0x10(%rbp),%eax
    957c:	89 c2                	mov    %eax,%edx
    957e:	8b 85 98 fb ff ff    	mov    -0x468(%rbp),%eax
    9584:	25 ff ff 07 00       	and    $0x7ffff,%eax
    9589:	89 d6                	mov    %edx,%esi
    958b:	89 c7                	mov    %eax,%edi
    958d:	e8 3e d9 ff ff       	callq  6ed0 <safe_sub_func_uint32_t_u_u>
    9592:	0f b6 05 e7 6c 00 00 	movzbl 0x6ce7(%rip),%eax        # 10280 <g_254>
    9599:	0f b6 d0             	movzbl %al,%edx
    959c:	8b 45 20             	mov    0x20(%rbp),%eax
    959f:	25 ff ff ff 01       	and    $0x1ffffff,%eax
    95a4:	85 c0                	test   %eax,%eax
    95a6:	0f 95 c0             	setne  %al
    95a9:	0f b6 c0             	movzbl %al,%eax
    95ac:	39 c2                	cmp    %eax,%edx
    95ae:	75 07                	jne    95b7 <func_39+0x6cf>
    95b0:	ba cf 38 41 23       	mov    $0x234138cf,%edx
    95b5:	eb 05                	jmp    95bc <func_39+0x6d4>
    95b7:	ba ce 38 41 23       	mov    $0x234138ce,%edx
    95bc:	48 8b 85 78 fb ff ff 	mov    -0x488(%rbp),%rax
    95c3:	89 10                	mov    %edx,(%rax)
    95c5:	be 01 00 00 00       	mov    $0x1,%esi
    95ca:	bf ff ff 00 00       	mov    $0xffff,%edi
    95cf:	e8 ea d7 ff ff       	callq  6dbe <safe_lshift_func_uint16_t_u_s>
    95d4:	0f b7 c0             	movzwl %ax,%eax
    95d7:	be d4 59 f7 33       	mov    $0x33f759d4,%esi
    95dc:	89 c7                	mov    %eax,%edi
    95de:	e8 e9 d0 ff ff       	callq  66cc <safe_mod_func_int32_t_s_s>
    95e3:	8b 55 14             	mov    0x14(%rbp),%edx
    95e6:	39 d0                	cmp    %edx,%eax
    95e8:	0f 9e c0             	setle  %al
    95eb:	89 c2                	mov    %eax,%edx
    95ed:	48 8b 85 38 fb ff ff 	mov    -0x4c8(%rbp),%rax
    95f4:	88 10                	mov    %dl,(%rax)
    95f6:	48 8b 05 c3 85 00 00 	mov    0x85c3(%rip),%rax        # 11bc0 <g_115>
    95fd:	48 8b 95 38 fb ff ff 	mov    -0x4c8(%rbp),%rdx
    9604:	0f b6 12             	movzbl (%rdx),%edx
    9607:	88 10                	mov    %dl,(%rax)
    9609:	0f b6 00             	movzbl (%rax),%eax
    960c:	3c 01                	cmp    $0x1,%al
    960e:	0f 96 c0             	setbe  %al
    9611:	0f b6 c0             	movzbl %al,%eax
    9614:	be 0b 00 00 00       	mov    $0xb,%esi
    9619:	89 c7                	mov    %eax,%edi
    961b:	e8 28 d8 ff ff       	callq  6e48 <safe_rshift_func_uint16_t_u_s>
    9620:	0f b7 d0             	movzwl %ax,%edx
    9623:	8b 05 6b 6c 00 00    	mov    0x6c6b(%rip),%eax        # 10294 <g_418>
    9629:	39 c2                	cmp    %eax,%edx
    962b:	0f 94 c0             	sete   %al
    962e:	0f b6 c0             	movzbl %al,%eax
    9631:	89 85 94 fb ff ff    	mov    %eax,-0x46c(%rbp)
    9637:	48 8b 85 e8 fa ff ff 	mov    -0x518(%rbp),%rax
    963e:	48 8b 00             	mov    (%rax),%rax
    9641:	8b 00                	mov    (%rax),%eax
    9643:	be 00 00 00 00       	mov    $0x0,%esi
    9648:	89 c7                	mov    %eax,%edi
    964a:	e8 67 cf ff ff       	callq  65b6 <safe_add_func_int32_t_s_s>
    964f:	39 85 0c fb ff ff    	cmp    %eax,-0x4f4(%rbp)
    9655:	7e 07                	jle    965e <func_39+0x776>
    9657:	ba 01 00 00 00       	mov    $0x1,%edx
    965c:	eb 05                	jmp    9663 <func_39+0x77b>
    965e:	ba 00 00 00 00       	mov    $0x0,%edx
    9663:	8b 45 1c             	mov    0x1c(%rbp),%eax
    9666:	39 c2                	cmp    %eax,%edx
    9668:	0f 9d c0             	setge  %al
    966b:	0f b6 c0             	movzbl %al,%eax
    966e:	be 01 00 00 00       	mov    $0x1,%esi
    9673:	89 c7                	mov    %eax,%edi
    9675:	e8 98 cb ff ff       	callq  6212 <safe_mul_func_int8_t_s_s>
    967a:	48 8b 95 80 fb ff ff 	mov    -0x480(%rbp),%rdx
    9681:	0f b7 12             	movzwl (%rdx),%edx
    9684:	66 98                	cbtw   
    9686:	21 d0                	and    %edx,%eax
    9688:	89 c2                	mov    %eax,%edx
    968a:	48 8b 85 80 fb ff ff 	mov    -0x480(%rbp),%rax
    9691:	66 89 10             	mov    %dx,(%rax)
    9694:	48 8b 85 80 fb ff ff 	mov    -0x480(%rbp),%rax
    969b:	0f b7 00             	movzwl (%rax),%eax
    969e:	0f b7 c0             	movzwl %ax,%eax
    96a1:	89 de                	mov    %ebx,%esi
    96a3:	89 c7                	mov    %eax,%edi
    96a5:	e8 b2 d6 ff ff       	callq  6d5c <safe_mod_func_uint16_t_u_u>
    96aa:	8b 95 90 fb ff ff    	mov    -0x470(%rbp),%edx
    96b0:	0f b7 c0             	movzwl %ax,%eax
    96b3:	31 d0                	xor    %edx,%eax
    96b5:	89 85 90 fb ff ff    	mov    %eax,-0x470(%rbp)
    96bb:	48 8b 05 1e 83 00 00 	mov    0x831e(%rip),%rax        # 119e0 <g_48>
    96c2:	8b 95 90 fb ff ff    	mov    -0x470(%rbp),%edx
    96c8:	89 10                	mov    %edx,(%rax)
    96ca:	48 8b 85 e8 fa ff ff 	mov    -0x518(%rbp),%rax
    96d1:	48 8b 00             	mov    (%rax),%rax
    96d4:	8b 00                	mov    (%rax),%eax
    96d6:	85 c0                	test   %eax,%eax
    96d8:	74 27                	je     9701 <func_39+0x819>
    96da:	83 bd 00 fb ff ff 00 	cmpl   $0x0,-0x500(%rbp)
    96e1:	75 07                	jne    96ea <func_39+0x802>
    96e3:	8b 45 10             	mov    0x10(%rbp),%eax
    96e6:	85 c0                	test   %eax,%eax
    96e8:	74 07                	je     96f1 <func_39+0x809>
    96ea:	b8 01 00 00 00       	mov    $0x1,%eax
    96ef:	eb 05                	jmp    96f6 <func_39+0x80e>
    96f1:	b8 00 00 00 00       	mov    $0x0,%eax
    96f6:	31 85 10 fb ff ff    	xor    %eax,-0x4f0(%rbp)
    96fc:	e9 01 02 00 00       	jmpq   9902 <func_39+0xa1a>
    9701:	c6 85 f1 fa ff ff 2d 	movb   $0x2d,-0x50f(%rbp)
    9708:	c7 85 f8 fa ff ff 00 	movl   $0x0,-0x508(%rbp)
    970f:	00 00 00 
    9712:	eb 1a                	jmp    972e <func_39+0x846>
    9714:	8b 85 f8 fa ff ff    	mov    -0x508(%rbp),%eax
    971a:	48 98                	cltq   
    971c:	c7 84 85 c0 fb ff ff 	movl   $0x6734c17a,-0x440(%rbp,%rax,4)
    9723:	7a c1 34 67 
    9727:	83 85 f8 fa ff ff 01 	addl   $0x1,-0x508(%rbp)
    972e:	83 bd f8 fa ff ff 03 	cmpl   $0x3,-0x508(%rbp)
    9735:	7e dd                	jle    9714 <func_39+0x82c>
    9737:	0f b6 05 e6 6e 00 00 	movzbl 0x6ee6(%rip),%eax        # 10624 <g_491>
    973e:	84 c0                	test   %al,%al
    9740:	74 08                	je     974a <func_39+0x862>
    9742:	48 83 bd d8 fa ff ff 	cmpq   $0x0,-0x528(%rbp)
    9749:	00 
    974a:	c6 85 f1 fa ff ff 24 	movb   $0x24,-0x50f(%rbp)
    9751:	bb 01 00 00 00       	mov    $0x1,%ebx
    9756:	48 8b 05 63 84 00 00 	mov    0x8463(%rip),%rax        # 11bc0 <g_115>
    975d:	c6 00 b8             	movb   $0xb8,(%rax)
    9760:	8b 85 c0 fb ff ff    	mov    -0x440(%rbp),%eax
    9766:	89 c2                	mov    %eax,%edx
    9768:	b8 c6 5e c2 70       	mov    $0x70c25ec6,%eax
    976d:	09 d0                	or     %edx,%eax
    976f:	0f b7 d0             	movzwl %ax,%edx
    9772:	8b 05 c8 68 00 00    	mov    0x68c8(%rip),%eax        # 10040 <g_46+0x10>
    9778:	25 ff ff ff 01       	and    $0x1ffffff,%eax
    977d:	0f b7 c0             	movzwl %ax,%eax
    9780:	89 d6                	mov    %edx,%esi
    9782:	89 c7                	mov    %eax,%edi
    9784:	e8 76 d5 ff ff       	callq  6cff <safe_add_func_uint16_t_u_u>
    9789:	89 c2                	mov    %eax,%edx
    978b:	48 8b 05 7e 8d 00 00 	mov    0x8d7e(%rip),%rax        # 12510 <g_563>
    9792:	48 8b 00             	mov    (%rax),%rax
    9795:	66 89 10             	mov    %dx,(%rax)
    9798:	0f b7 00             	movzwl (%rax),%eax
    979b:	98                   	cwtl   
    979c:	39 c3                	cmp    %eax,%ebx
    979e:	0f 94 c0             	sete   %al
    97a1:	0f b6 c0             	movzbl %al,%eax
    97a4:	be ff 00 00 00       	mov    $0xff,%esi
    97a9:	89 c7                	mov    %eax,%edi
    97ab:	e8 aa d3 ff ff       	callq  6b5a <safe_add_func_uint8_t_u_u>
    97b0:	89 c2                	mov    %eax,%edx
    97b2:	48 8b 05 27 82 00 00 	mov    0x8227(%rip),%rax        # 119e0 <g_48>
    97b9:	0f b6 d2             	movzbl %dl,%edx
    97bc:	89 10                	mov    %edx,(%rax)
    97be:	e9 3f 01 00 00       	jmpq   9902 <func_39+0xa1a>
    97c3:	48 c7 85 60 fb ff ff 	movq   $0x0,-0x4a0(%rbp)
    97ca:	00 00 00 00 
    97ce:	8b 85 98 fb ff ff    	mov    -0x468(%rbp),%eax
    97d4:	25 ff ff 07 00       	and    $0x7ffff,%eax
    97d9:	89 c2                	mov    %eax,%edx
    97db:	48 8b 85 48 fb ff ff 	mov    -0x4b8(%rbp),%rax
    97e2:	48 89 c6             	mov    %rax,%rsi
    97e5:	48 89 d7             	mov    %rdx,%rdi
    97e8:	e8 29 02 00 00       	callq  9a16 <func_53>
    97ed:	48 8b 95 e8 fa ff ff 	mov    -0x518(%rbp),%rdx
    97f4:	48 89 02             	mov    %rax,(%rdx)
    97f7:	48 8b 05 ea 8d 00 00 	mov    0x8dea(%rip),%rax        # 125e8 <g_653>
    97fe:	48 8b 10             	mov    (%rax),%rdx
    9801:	48 8b 05 d8 81 00 00 	mov    0x81d8(%rip),%rax        # 119e0 <g_48>
    9808:	8b 12                	mov    (%rdx),%edx
    980a:	89 10                	mov    %edx,(%rax)
    980c:	c7 05 1a 68 00 00 00 	movl   $0x0,0x681a(%rip)        # 10030 <g_46>
    9813:	00 00 00 
    9816:	e9 c4 00 00 00       	jmpq   98df <func_39+0x9f7>
    981b:	48 8d 05 36 6e 00 00 	lea    0x6e36(%rip),%rax        # 10658 <g_504+0x18>
    9822:	48 89 85 68 fb ff ff 	mov    %rax,-0x498(%rbp)
    9829:	c7 85 04 fb ff ff e7 	movl   $0x98e86fe7,-0x4fc(%rbp)
    9830:	6f e8 98 
    9833:	c7 85 90 fb ff ff 15 	movl   $0x15,-0x470(%rbp)
    983a:	00 00 00 
    983d:	90                   	nop
    983e:	8b 85 90 fb ff ff    	mov    -0x470(%rbp),%eax
    9844:	83 f8 f2             	cmp    $0xfffffff2,%eax
    9847:	7d 0c                	jge    9855 <func_39+0x96d>
    9849:	48 8b 85 68 fb ff ff 	mov    -0x498(%rbp),%rax
    9850:	e9 9d 01 00 00       	jmpq   99f2 <func_39+0xb0a>
    9855:	c7 05 dd 67 00 00 fb 	movl   $0xfffffffb,0x67dd(%rip)        # 1003c <g_46+0xc>
    985c:	ff ff ff 
    985f:	eb 56                	jmp    98b7 <func_39+0x9cf>
    9861:	c7 05 c9 67 00 00 00 	movl   $0x0,0x67c9(%rip)        # 10034 <g_46+0x4>
    9868:	00 00 00 
    986b:	90                   	nop
    986c:	8b 05 c2 67 00 00    	mov    0x67c2(%rip),%eax        # 10034 <g_46+0x4>
    9872:	83 f8 f6             	cmp    $0xfffffff6,%eax
    9875:	7c 1d                	jl     9894 <func_39+0x9ac>
    9877:	c7 85 08 fb ff ff 01 	movl   $0x1,-0x4f8(%rbp)
    987e:	00 00 00 
    9881:	83 ad 08 fb ff ff 01 	subl   $0x1,-0x4f8(%rbp)
    9888:	48 8b 85 60 fb ff ff 	mov    -0x4a0(%rbp),%rax
    988f:	e9 5e 01 00 00       	jmpq   99f2 <func_39+0xb0a>
    9894:	48 8b 05 45 81 00 00 	mov    0x8145(%rip),%rax        # 119e0 <g_48>
    989b:	8b 00                	mov    (%rax),%eax
    989d:	85 c0                	test   %eax,%eax
    989f:	8b 05 97 67 00 00    	mov    0x6797(%rip),%eax        # 1003c <g_46+0xc>
    98a5:	be 07 00 00 00       	mov    $0x7,%esi
    98aa:	89 c7                	mov    %eax,%edi
    98ac:	e8 54 cd ff ff       	callq  6605 <safe_sub_func_int32_t_s_s>
    98b1:	89 05 85 67 00 00    	mov    %eax,0x6785(%rip)        # 1003c <g_46+0xc>
    98b7:	8b 05 7f 67 00 00    	mov    0x677f(%rip),%eax        # 1003c <g_46+0xc>
    98bd:	83 f8 e7             	cmp    $0xffffffe7,%eax
    98c0:	7c 9f                	jl     9861 <func_39+0x979>
    98c2:	48 8b 85 e8 fa ff ff 	mov    -0x518(%rbp),%rax
    98c9:	48 8b 00             	mov    (%rax),%rax
    98cc:	8b 00                	mov    (%rax),%eax
    98ce:	85 c0                	test   %eax,%eax
    98d0:	8b 05 5a 67 00 00    	mov    0x675a(%rip),%eax        # 10030 <g_46>
    98d6:	83 c0 01             	add    $0x1,%eax
    98d9:	89 05 51 67 00 00    	mov    %eax,0x6751(%rip)        # 10030 <g_46>
    98df:	8b 05 4b 67 00 00    	mov    0x674b(%rip),%eax        # 10030 <g_46>
    98e5:	83 f8 05             	cmp    $0x5,%eax
    98e8:	0f 84 2d ff ff ff    	je     981b <func_39+0x933>
    98ee:	48 8b 95 20 fb ff ff 	mov    -0x4e0(%rbp),%rdx
    98f5:	48 8b 85 20 fb ff ff 	mov    -0x4e0(%rbp),%rax
    98fc:	48 8b 12             	mov    (%rdx),%rdx
    98ff:	48 89 10             	mov    %rdx,(%rax)
    9902:	48 8b 05 cf 82 00 00 	mov    0x82cf(%rip),%rax        # 11bd8 <g_236>
    9909:	8b 10                	mov    (%rax),%edx
    990b:	8d 4a 01             	lea    0x1(%rdx),%ecx
    990e:	89 08                	mov    %ecx,(%rax)
    9910:	83 fa 05             	cmp    $0x5,%edx
    9913:	41 0f 97 c4          	seta   %r12b
    9917:	48 8b 05 a2 82 00 00 	mov    0x82a2(%rip),%rax        # 11bc0 <g_115>
    991e:	c6 00 75             	movb   $0x75,(%rax)
    9921:	0f b6 85 12 fc ff ff 	movzbl -0x3ee(%rbp),%eax
    9928:	0f b6 d8             	movzbl %al,%ebx
    992b:	48 8b 85 38 fb ff ff 	mov    -0x4c8(%rbp),%rax
    9932:	0f b6 00             	movzbl (%rax),%eax
    9935:	8d 50 01             	lea    0x1(%rax),%edx
    9938:	48 8b 85 38 fb ff ff 	mov    -0x4c8(%rbp),%rax
    993f:	88 10                	mov    %dl,(%rax)
    9941:	48 8b 85 e8 fa ff ff 	mov    -0x518(%rbp),%rax
    9948:	48 8b 00             	mov    (%rax),%rax
    994b:	8b 00                	mov    (%rax),%eax
    994d:	85 c0                	test   %eax,%eax
    994f:	75 0a                	jne    995b <func_39+0xa73>
    9951:	8b 85 9c fb ff ff    	mov    -0x464(%rbp),%eax
    9957:	85 c0                	test   %eax,%eax
    9959:	74 07                	je     9962 <func_39+0xa7a>
    995b:	b8 01 00 00 00       	mov    $0x1,%eax
    9960:	eb 05                	jmp    9967 <func_39+0xa7f>
    9962:	b8 00 00 00 00       	mov    $0x0,%eax
    9967:	89 c2                	mov    %eax,%edx
    9969:	8b 45 1c             	mov    0x1c(%rbp),%eax
    996c:	89 d6                	mov    %edx,%esi
    996e:	89 c7                	mov    %eax,%edi
    9970:	e8 5b d5 ff ff       	callq  6ed0 <safe_sub_func_uint32_t_u_u>
    9975:	48 8b 05 64 80 00 00 	mov    0x8064(%rip),%rax        # 119e0 <g_48>
    997c:	8b 00                	mov    (%rax),%eax
    997e:	be f6 ff ff ff       	mov    $0xfffffff6,%esi
    9983:	89 c7                	mov    %eax,%edi
    9985:	e8 75 cd ff ff       	callq  66ff <safe_div_func_int32_t_s_s>
    998a:	be 05 00 00 00       	mov    $0x5,%esi
    998f:	bf 00 00 00 00       	mov    $0x0,%edi
    9994:	e8 d3 c9 ff ff       	callq  636c <safe_rshift_func_int8_t_s_u>
    9999:	0f be d0             	movsbl %al,%edx
    999c:	48 8b 05 3d 80 00 00 	mov    0x803d(%rip),%rax        # 119e0 <g_48>
    99a3:	8b 00                	mov    (%rax),%eax
    99a5:	39 c2                	cmp    %eax,%edx
    99a7:	0f 95 c0             	setne  %al
    99aa:	f7 d0                	not    %eax
    99ac:	0f b6 c0             	movzbl %al,%eax
    99af:	89 de                	mov    %ebx,%esi
    99b1:	89 c7                	mov    %eax,%edi
    99b3:	e8 c0 d1 ff ff       	callq  6b78 <safe_sub_func_uint8_t_u_u>
    99b8:	84 c0                	test   %al,%al
    99ba:	74 07                	je     99c3 <func_39+0xadb>
    99bc:	b8 01 00 00 00       	mov    $0x1,%eax
    99c1:	eb 05                	jmp    99c8 <func_39+0xae0>
    99c3:	b8 00 00 00 00       	mov    $0x0,%eax
    99c8:	83 e0 01             	and    $0x1,%eax
    99cb:	44 21 e0             	and    %r12d,%eax
    99ce:	0f b6 d0             	movzbl %al,%edx
    99d1:	8b 45 10             	mov    0x10(%rbp),%eax
    99d4:	39 c2                	cmp    %eax,%edx
    99d6:	0f 9e c2             	setle  %dl
    99d9:	48 8b 85 e8 fa ff ff 	mov    -0x518(%rbp),%rax
    99e0:	48 8b 00             	mov    (%rax),%rax
    99e3:	0f b6 d2             	movzbl %dl,%edx
    99e6:	89 10                	mov    %edx,(%rax)
    99e8:	48 8b 85 e8 fa ff ff 	mov    -0x518(%rbp),%rax
    99ef:	48 8b 00             	mov    (%rax),%rax
    99f2:	48 8b 4d d8          	mov    -0x28(%rbp),%rcx
    99f6:	64 48 33 0c 25 28 00 	xor    %fs:0x28,%rcx
    99fd:	00 00 
    99ff:	74 05                	je     9a06 <func_39+0xb1e>
    9a01:	e8 6a c6 ff ff       	callq  6070 <__stack_chk_fail@plt>
    9a06:	48 81 c4 10 05 00 00 	add    $0x510,%rsp
    9a0d:	5b                   	pop    %rbx
    9a0e:	41 5c                	pop    %r12
    9a10:	41 5d                	pop    %r13
    9a12:	41 5e                	pop    %r14
    9a14:	5d                   	pop    %rbp
    9a15:	c3                   	retq   

0000000000009a16 <func_53>:
    9a16:	f3 0f 1e fa          	endbr64 
    9a1a:	55                   	push   %rbp
    9a1b:	48 89 e5             	mov    %rsp,%rbp
    9a1e:	48 83 ec 20          	sub    $0x20,%rsp
    9a22:	48 89 7d e8          	mov    %rdi,-0x18(%rbp)
    9a26:	48 89 75 e0          	mov    %rsi,-0x20(%rbp)
    9a2a:	48 8d 05 af 7f 00 00 	lea    0x7faf(%rip),%rax        # 119e0 <g_48>
    9a31:	48 89 45 f0          	mov    %rax,-0x10(%rbp)
    9a35:	48 8d 05 18 6c 00 00 	lea    0x6c18(%rip),%rax        # 10654 <g_504+0x14>
    9a3c:	48 89 45 f8          	mov    %rax,-0x8(%rbp)
    9a40:	48 8b 45 f0          	mov    -0x10(%rbp),%rax
    9a44:	48 89 c7             	mov    %rax,%rdi
    9a47:	e8 17 00 00 00       	callq  9a63 <func_68>
    9a4c:	48 8b 55 f8          	mov    -0x8(%rbp),%rdx
    9a50:	8b 12                	mov    (%rdx),%edx
    9a52:	21 c2                	and    %eax,%edx
    9a54:	48 8b 45 f8          	mov    -0x8(%rbp),%rax
    9a58:	89 10                	mov    %edx,(%rax)
    9a5a:	48 8b 45 f0          	mov    -0x10(%rbp),%rax
    9a5e:	48 8b 00             	mov    (%rax),%rax
    9a61:	c9                   	leaveq 
    9a62:	c3                   	retq   

0000000000009a63 <func_68>:
    9a63:	f3 0f 1e fa          	endbr64 
    9a67:	55                   	push   %rbp
    9a68:	48 89 e5             	mov    %rsp,%rbp
    9a6b:	48 81 ec a0 0e 00 00 	sub    $0xea0,%rsp
    9a72:	48 89 bd 68 f1 ff ff 	mov    %rdi,-0xe98(%rbp)
    9a79:	64 48 8b 04 25 28 00 	mov    %fs:0x28,%rax
    9a80:	00 00 
    9a82:	48 89 45 f8          	mov    %rax,-0x8(%rbp)
    9a86:	31 c0                	xor    %eax,%eax
    9a88:	c7 85 30 f4 ff ff f6 	movl   $0xfffffff6,-0xbd0(%rbp)
    9a8f:	ff ff ff 
    9a92:	c7 85 34 f4 ff ff f6 	movl   $0xfffffff6,-0xbcc(%rbp)
    9a99:	ff ff ff 
    9a9c:	c7 85 38 f4 ff ff c0 	movl   $0x2ca01dc0,-0xbc8(%rbp)
    9aa3:	1d a0 2c 
    9aa6:	c7 85 3c f4 ff ff 4d 	movl   $0xdd571b4d,-0xbc4(%rbp)
    9aad:	1b 57 dd 
    9ab0:	c7 85 40 f4 ff ff 42 	movl   $0x822c2642,-0xbc0(%rbp)
    9ab7:	26 2c 82 
    9aba:	c7 85 44 f4 ff ff 4d 	movl   $0xdd571b4d,-0xbbc(%rbp)
    9ac1:	1b 57 dd 
    9ac4:	c7 85 48 f4 ff ff c0 	movl   $0x2ca01dc0,-0xbb8(%rbp)
    9acb:	1d a0 2c 
    9ace:	c7 85 4c f4 ff ff f6 	movl   $0xfffffff6,-0xbb4(%rbp)
    9ad5:	ff ff ff 
    9ad8:	c7 85 50 f4 ff ff f6 	movl   $0xfffffff6,-0xbb0(%rbp)
    9adf:	ff ff ff 
    9ae2:	c7 85 54 f4 ff ff c0 	movl   $0x2ca01dc0,-0xbac(%rbp)
    9ae9:	1d a0 2c 
    9aec:	c7 85 58 f4 ff ff 4d 	movl   $0xdd571b4d,-0xba8(%rbp)
    9af3:	1b 57 dd 
    9af6:	c7 85 5c f4 ff ff 42 	movl   $0x822c2642,-0xba4(%rbp)
    9afd:	26 2c 82 
    9b00:	c7 85 60 f4 ff ff 4d 	movl   $0xdd571b4d,-0xba0(%rbp)
    9b07:	1b 57 dd 
    9b0a:	c7 85 64 f4 ff ff c0 	movl   $0x2ca01dc0,-0xb9c(%rbp)
    9b11:	1d a0 2c 
    9b14:	c7 85 68 f4 ff ff f6 	movl   $0xfffffff6,-0xb98(%rbp)
    9b1b:	ff ff ff 
    9b1e:	c7 85 6c f4 ff ff f6 	movl   $0xfffffff6,-0xb94(%rbp)
    9b25:	ff ff ff 
    9b28:	c7 85 70 f4 ff ff c0 	movl   $0x2ca01dc0,-0xb90(%rbp)
    9b2f:	1d a0 2c 
    9b32:	c7 85 74 f4 ff ff 4d 	movl   $0xdd571b4d,-0xb8c(%rbp)
    9b39:	1b 57 dd 
    9b3c:	c7 85 78 f4 ff ff 42 	movl   $0x822c2642,-0xb88(%rbp)
    9b43:	26 2c 82 
    9b46:	c7 85 7c f4 ff ff 4d 	movl   $0xdd571b4d,-0xb84(%rbp)
    9b4d:	1b 57 dd 
    9b50:	c7 85 80 f4 ff ff c0 	movl   $0x2ca01dc0,-0xb80(%rbp)
    9b57:	1d a0 2c 
    9b5a:	c7 85 84 f4 ff ff f6 	movl   $0xfffffff6,-0xb7c(%rbp)
    9b61:	ff ff ff 
    9b64:	c7 85 88 f4 ff ff f6 	movl   $0xfffffff6,-0xb78(%rbp)
    9b6b:	ff ff ff 
    9b6e:	c7 85 8c f4 ff ff c0 	movl   $0x2ca01dc0,-0xb74(%rbp)
    9b75:	1d a0 2c 
    9b78:	48 8d 05 c6 64 00 00 	lea    0x64c6(%rip),%rax        # 10045 <g_84>
    9b7f:	48 89 85 48 f2 ff ff 	mov    %rax,-0xdb8(%rbp)
    9b86:	c6 85 73 f1 ff ff a4 	movb   $0xa4,-0xe8d(%rbp)
    9b8d:	c6 85 74 f1 ff ff d0 	movb   $0xd0,-0xe8c(%rbp)
    9b94:	48 8d 05 e1 64 00 00 	lea    0x64e1(%rip),%rax        # 1007c <g_208>
    9b9b:	48 89 85 50 f2 ff ff 	mov    %rax,-0xdb0(%rbp)
    9ba2:	66 c7 85 7a f1 ff ff 	movw   $0x822a,-0xe86(%rbp)
    9ba9:	2a 82 
    9bab:	48 8d 05 be 64 00 00 	lea    0x64be(%rip),%rax        # 10070 <g_153>
    9bb2:	48 89 85 58 f2 ff ff 	mov    %rax,-0xda8(%rbp)
    9bb9:	48 c7 85 60 f2 ff ff 	movq   $0x0,-0xda0(%rbp)
    9bc0:	00 00 00 00 
    9bc4:	48 8d 05 89 6a 00 00 	lea    0x6a89(%rip),%rax        # 10654 <g_504+0x14>
    9bcb:	48 89 85 68 f2 ff ff 	mov    %rax,-0xd98(%rbp)
    9bd2:	48 8d 05 a9 66 00 00 	lea    0x66a9(%rip),%rax        # 10282 <g_260>
    9bd9:	48 89 85 00 f2 ff ff 	mov    %rax,-0xe00(%rbp)
    9be0:	66 c7 85 7c f1 ff ff 	movw   $0x1,-0xe84(%rbp)
    9be7:	01 00 
    9be9:	48 8d 05 10 89 00 00 	lea    0x8910(%rip),%rax        # 12500 <g_490>
    9bf0:	48 89 85 08 f2 ff ff 	mov    %rax,-0xdf8(%rbp)
    9bf7:	48 8d 85 08 f2 ff ff 	lea    -0xdf8(%rbp),%rax
    9bfe:	48 89 85 10 f2 ff ff 	mov    %rax,-0xdf0(%rbp)
    9c05:	c7 85 80 f1 ff ff 00 	movl   $0x0,-0xe80(%rbp)
    9c0c:	00 00 00 
    9c0f:	eb 1e                	jmp    9c2f <func_68+0x1cc>
    9c11:	8b 85 80 f1 ff ff    	mov    -0xe80(%rbp),%eax
    9c17:	48 98                	cltq   
    9c19:	48 8d 15 10 64 00 00 	lea    0x6410(%rip),%rdx        # 10030 <g_46>
    9c20:	48 89 94 c5 50 f3 ff 	mov    %rdx,-0xcb0(%rbp,%rax,8)
    9c27:	ff 
    9c28:	83 85 80 f1 ff ff 01 	addl   $0x1,-0xe80(%rbp)
    9c2f:	83 bd 80 f1 ff ff 06 	cmpl   $0x6,-0xe80(%rbp)
    9c36:	7e d9                	jle    9c11 <func_68+0x1ae>
    9c38:	c7 85 80 f1 ff ff 00 	movl   $0x0,-0xe80(%rbp)
    9c3f:	00 00 00 
    9c42:	eb 1e                	jmp    9c62 <func_68+0x1ff>
    9c44:	8b 85 80 f1 ff ff    	mov    -0xe80(%rbp),%eax
    9c4a:	48 98                	cltq   
    9c4c:	48 8d 15 39 64 00 00 	lea    0x6439(%rip),%rdx        # 1008c <g_230>
    9c53:	48 89 94 c5 f0 f2 ff 	mov    %rdx,-0xd10(%rbp,%rax,8)
    9c5a:	ff 
    9c5b:	83 85 80 f1 ff ff 01 	addl   $0x1,-0xe80(%rbp)
    9c62:	83 bd 80 f1 ff ff 01 	cmpl   $0x1,-0xe80(%rbp)
    9c69:	7e d9                	jle    9c44 <func_68+0x1e1>
    9c6b:	c7 85 80 f1 ff ff 00 	movl   $0x0,-0xe80(%rbp)
    9c72:	00 00 00 
    9c75:	eb 1e                	jmp    9c95 <func_68+0x232>
    9c77:	8b 85 80 f1 ff ff    	mov    -0xe80(%rbp),%eax
    9c7d:	48 98                	cltq   
    9c7f:	48 8d 95 00 f2 ff ff 	lea    -0xe00(%rbp),%rdx
    9c86:	48 89 94 c5 00 f3 ff 	mov    %rdx,-0xd00(%rbp,%rax,8)
    9c8d:	ff 
    9c8e:	83 85 80 f1 ff ff 01 	addl   $0x1,-0xe80(%rbp)
    9c95:	83 bd 80 f1 ff ff 03 	cmpl   $0x3,-0xe80(%rbp)
    9c9c:	7e d9                	jle    9c77 <func_68+0x214>
    9c9e:	8b 85 88 f4 ff ff    	mov    -0xb78(%rbp),%eax
    9ca4:	83 c0 01             	add    $0x1,%eax
    9ca7:	89 85 88 f4 ff ff    	mov    %eax,-0xb78(%rbp)
    9cad:	c6 05 90 63 00 00 00 	movb   $0x0,0x6390(%rip)        # 10044 <g_67>
    9cb4:	e9 f4 03 00 00       	jmpq   a0ad <func_68+0x64a>
    9cb9:	c7 85 f8 f1 ff ff 00 	movl   $0x0,-0xe08(%rbp)
    9cc0:	00 00 00 
    9cc3:	48 8d 05 7a 63 00 00 	lea    0x637a(%rip),%rax        # 10044 <g_67>
    9cca:	48 89 85 38 f2 ff ff 	mov    %rax,-0xdc8(%rbp)
    9cd1:	48 c7 85 c8 f2 ff ff 	movq   $0x0,-0xd38(%rbp)
    9cd8:	00 00 00 00 
    9cdc:	c7 85 fc f1 ff ff 01 	movl   $0x1,-0xe04(%rbp)
    9ce3:	00 00 00 
    9ce6:	c7 85 90 f4 ff ff 06 	movl   $0x6,-0xb70(%rbp)
    9ced:	00 00 00 
    9cf0:	c7 85 94 f4 ff ff fb 	movl   $0xfffffffb,-0xb6c(%rbp)
    9cf7:	ff ff ff 
    9cfa:	c7 85 98 f4 ff ff ff 	movl   $0xffffffff,-0xb68(%rbp)
    9d01:	ff ff ff 
    9d04:	c7 85 9c f4 ff ff 07 	movl   $0x7,-0xb64(%rbp)
    9d0b:	00 00 00 
    9d0e:	c7 85 a0 f4 ff ff 01 	movl   $0x1,-0xb60(%rbp)
    9d15:	00 00 00 
    9d18:	c7 85 a4 f4 ff ff 01 	movl   $0x1,-0xb5c(%rbp)
    9d1f:	00 00 00 
    9d22:	c7 85 a8 f4 ff ff 06 	movl   $0x6,-0xb58(%rbp)
    9d29:	00 00 00 
    9d2c:	c7 85 ac f4 ff ff fb 	movl   $0xfffffffb,-0xb54(%rbp)
    9d33:	ff ff ff 
    9d36:	c7 85 b0 f4 ff ff ff 	movl   $0xffffffff,-0xb50(%rbp)
    9d3d:	ff ff ff 
    9d40:	c7 85 b4 f4 ff ff 07 	movl   $0x7,-0xb4c(%rbp)
    9d47:	00 00 00 
    9d4a:	c7 85 b8 f4 ff ff 01 	movl   $0x1,-0xb48(%rbp)
    9d51:	00 00 00 
    9d54:	c7 85 bc f4 ff ff 01 	movl   $0x1,-0xb44(%rbp)
    9d5b:	00 00 00 
    9d5e:	c7 85 c0 f4 ff ff 06 	movl   $0x6,-0xb40(%rbp)
    9d65:	00 00 00 
    9d68:	c7 85 c4 f4 ff ff fb 	movl   $0xfffffffb,-0xb3c(%rbp)
    9d6f:	ff ff ff 
    9d72:	c7 85 c8 f4 ff ff ff 	movl   $0xffffffff,-0xb38(%rbp)
    9d79:	ff ff ff 
    9d7c:	c7 85 cc f4 ff ff 07 	movl   $0x7,-0xb34(%rbp)
    9d83:	00 00 00 
    9d86:	c7 85 d0 f4 ff ff 01 	movl   $0x1,-0xb30(%rbp)
    9d8d:	00 00 00 
    9d90:	c7 85 d4 f4 ff ff 01 	movl   $0x1,-0xb2c(%rbp)
    9d97:	00 00 00 
    9d9a:	c7 85 d8 f4 ff ff 06 	movl   $0x6,-0xb28(%rbp)
    9da1:	00 00 00 
    9da4:	c7 85 dc f4 ff ff fb 	movl   $0xfffffffb,-0xb24(%rbp)
    9dab:	ff ff ff 
    9dae:	c7 85 e0 f4 ff ff ff 	movl   $0xffffffff,-0xb20(%rbp)
    9db5:	ff ff ff 
    9db8:	c7 85 e4 f4 ff ff 07 	movl   $0x7,-0xb1c(%rbp)
    9dbf:	00 00 00 
    9dc2:	c7 85 e8 f4 ff ff 01 	movl   $0x1,-0xb18(%rbp)
    9dc9:	00 00 00 
    9dcc:	c7 85 ec f4 ff ff 01 	movl   $0x1,-0xb14(%rbp)
    9dd3:	00 00 00 
    9dd6:	c7 05 54 62 00 00 ec 	movl   $0xffffffec,0x6254(%rip)        # 10034 <g_46+0x4>
    9ddd:	ff ff ff 
    9de0:	e9 8d 02 00 00       	jmpq   a072 <func_68+0x60f>
    9de5:	48 c7 85 d0 f2 ff ff 	movq   $0x8,-0xd30(%rbp)
    9dec:	08 00 00 00 
    9df0:	48 8d 85 38 f2 ff ff 	lea    -0xdc8(%rbp),%rax
    9df7:	48 89 85 d8 f2 ff ff 	mov    %rax,-0xd28(%rbp)
    9dfe:	48 8d 85 30 f9 ff ff 	lea    -0x6d0(%rbp),%rax
    9e05:	48 8d 15 94 70 00 00 	lea    0x7094(%rip),%rdx        # 10ea0 <g_1488+0x468>
    9e0c:	b9 d8 00 00 00       	mov    $0xd8,%ecx
    9e11:	48 89 c7             	mov    %rax,%rdi
    9e14:	48 89 d6             	mov    %rdx,%rsi
    9e17:	f3 48 a5             	rep movsq %ds:(%rsi),%es:(%rdi)
    9e1a:	48 8d 05 25 62 00 00 	lea    0x6225(%rip),%rax        # 10046 <g_98>
    9e21:	48 89 85 e0 f2 ff ff 	mov    %rax,-0xd20(%rbp)
    9e28:	c7 85 30 f2 ff ff 6a 	movl   $0x7506916a,-0xdd0(%rbp)
    9e2f:	91 06 75 
    9e32:	66 c7 85 7e f1 ff ff 	movw   $0x5,-0xe82(%rbp)
    9e39:	05 00 
    9e3b:	48 8d 05 11 62 00 00 	lea    0x6211(%rip),%rax        # 10053 <g_110+0x3>
    9e42:	48 89 85 90 f6 ff ff 	mov    %rax,-0x970(%rbp)
    9e49:	48 8d 05 14 62 00 00 	lea    0x6214(%rip),%rax        # 10064 <g_120+0x2>
    9e50:	48 89 85 98 f6 ff ff 	mov    %rax,-0x968(%rbp)
    9e57:	48 8d 05 f5 61 00 00 	lea    0x61f5(%rip),%rax        # 10053 <g_110+0x3>
    9e5e:	48 89 85 a0 f6 ff ff 	mov    %rax,-0x960(%rbp)
    9e65:	48 8d 05 e7 61 00 00 	lea    0x61e7(%rip),%rax        # 10053 <g_110+0x3>
    9e6c:	48 89 85 a8 f6 ff ff 	mov    %rax,-0x958(%rbp)
    9e73:	48 8d 05 d9 61 00 00 	lea    0x61d9(%rip),%rax        # 10053 <g_110+0x3>
    9e7a:	48 89 85 b0 f6 ff ff 	mov    %rax,-0x950(%rbp)
    9e81:	48 8d 85 73 f1 ff ff 	lea    -0xe8d(%rbp),%rax
    9e88:	48 89 85 b8 f6 ff ff 	mov    %rax,-0x948(%rbp)
    9e8f:	48 8d 05 ce 61 00 00 	lea    0x61ce(%rip),%rax        # 10064 <g_120+0x2>
    9e96:	48 89 85 c0 f6 ff ff 	mov    %rax,-0x940(%rbp)
    9e9d:	48 8d 85 73 f1 ff ff 	lea    -0xe8d(%rbp),%rax
    9ea4:	48 89 85 c8 f6 ff ff 	mov    %rax,-0x938(%rbp)
    9eab:	48 8d 85 73 f1 ff ff 	lea    -0xe8d(%rbp),%rax
    9eb2:	48 89 85 d0 f6 ff ff 	mov    %rax,-0x930(%rbp)
    9eb9:	48 8d 85 73 f1 ff ff 	lea    -0xe8d(%rbp),%rax
    9ec0:	48 89 85 d8 f6 ff ff 	mov    %rax,-0x928(%rbp)
    9ec7:	48 8d 05 85 61 00 00 	lea    0x6185(%rip),%rax        # 10053 <g_110+0x3>
    9ece:	48 89 85 e0 f6 ff ff 	mov    %rax,-0x920(%rbp)
    9ed5:	48 8d 05 88 61 00 00 	lea    0x6188(%rip),%rax        # 10064 <g_120+0x2>
    9edc:	48 89 85 e8 f6 ff ff 	mov    %rax,-0x918(%rbp)
    9ee3:	48 8d 05 7e 61 00 00 	lea    0x617e(%rip),%rax        # 10068 <g_120+0x6>
    9eea:	48 89 85 f0 f6 ff ff 	mov    %rax,-0x910(%rbp)
    9ef1:	48 8d 05 5b 61 00 00 	lea    0x615b(%rip),%rax        # 10053 <g_110+0x3>
    9ef8:	48 89 85 f8 f6 ff ff 	mov    %rax,-0x908(%rbp)
    9eff:	48 8d 05 4d 61 00 00 	lea    0x614d(%rip),%rax        # 10053 <g_110+0x3>
    9f06:	48 89 85 00 f7 ff ff 	mov    %rax,-0x900(%rbp)
    9f0d:	48 8d 85 73 f1 ff ff 	lea    -0xe8d(%rbp),%rax
    9f14:	48 89 85 08 f7 ff ff 	mov    %rax,-0x8f8(%rbp)
    9f1b:	48 c7 85 10 f7 ff ff 	movq   $0x0,-0x8f0(%rbp)
    9f22:	00 00 00 00 
    9f26:	48 8d 85 73 f1 ff ff 	lea    -0xe8d(%rbp),%rax
    9f2d:	48 89 85 18 f7 ff ff 	mov    %rax,-0x8e8(%rbp)
    9f34:	48 8d 85 73 f1 ff ff 	lea    -0xe8d(%rbp),%rax
    9f3b:	48 89 85 20 f7 ff ff 	mov    %rax,-0x8e0(%rbp)
    9f42:	48 8d 85 73 f1 ff ff 	lea    -0xe8d(%rbp),%rax
    9f49:	48 89 85 28 f7 ff ff 	mov    %rax,-0x8d8(%rbp)
    9f50:	48 8d 85 90 f6 ff ff 	lea    -0x970(%rbp),%rax
    9f57:	48 83 c0 28          	add    $0x28,%rax
    9f5b:	48 89 85 20 f3 ff ff 	mov    %rax,-0xce0(%rbp)
    9f62:	48 8d 85 90 f6 ff ff 	lea    -0x970(%rbp),%rax
    9f69:	48 83 c0 28          	add    $0x28,%rax
    9f6d:	48 89 85 28 f3 ff ff 	mov    %rax,-0xcd8(%rbp)
    9f74:	48 8d 85 90 f6 ff ff 	lea    -0x970(%rbp),%rax
    9f7b:	48 83 c0 28          	add    $0x28,%rax
    9f7f:	48 89 85 30 f3 ff ff 	mov    %rax,-0xcd0(%rbp)
    9f86:	48 8d 85 90 f6 ff ff 	lea    -0x970(%rbp),%rax
    9f8d:	48 83 c0 28          	add    $0x28,%rax
    9f91:	48 89 85 38 f3 ff ff 	mov    %rax,-0xcc8(%rbp)
    9f98:	48 8d 85 90 f6 ff ff 	lea    -0x970(%rbp),%rax
    9f9f:	48 83 c0 28          	add    $0x28,%rax
    9fa3:	48 89 85 40 f3 ff ff 	mov    %rax,-0xcc0(%rbp)
    9faa:	48 8d 05 bf 60 00 00 	lea    0x60bf(%rip),%rax        # 10070 <g_153>
    9fb1:	48 89 85 e8 f2 ff ff 	mov    %rax,-0xd18(%rbp)
    9fb8:	c7 85 84 f1 ff ff 00 	movl   $0x0,-0xe7c(%rbp)
    9fbf:	00 00 00 
    9fc2:	eb 45                	jmp    a009 <func_68+0x5a6>
    9fc4:	c7 85 88 f1 ff ff 00 	movl   $0x0,-0xe78(%rbp)
    9fcb:	00 00 00 
    9fce:	eb 29                	jmp    9ff9 <func_68+0x596>
    9fd0:	8b 85 88 f1 ff ff    	mov    -0xe78(%rbp),%eax
    9fd6:	48 98                	cltq   
    9fd8:	8b 95 84 f1 ff ff    	mov    -0xe7c(%rbp),%edx
    9fde:	48 63 d2             	movslq %edx,%rdx
    9fe1:	48 01 d2             	add    %rdx,%rdx
    9fe4:	48 01 d0             	add    %rdx,%rax
    9fe7:	c7 84 85 90 f3 ff ff 	movl   $0x8,-0xc70(%rbp,%rax,4)
    9fee:	08 00 00 00 
    9ff2:	83 85 88 f1 ff ff 01 	addl   $0x1,-0xe78(%rbp)
    9ff9:	83 bd 88 f1 ff ff 01 	cmpl   $0x1,-0xe78(%rbp)
    a000:	7e ce                	jle    9fd0 <func_68+0x56d>
    a002:	83 85 84 f1 ff ff 01 	addl   $0x1,-0xe7c(%rbp)
    a009:	83 bd 84 f1 ff ff 08 	cmpl   $0x8,-0xe7c(%rbp)
    a010:	7e b2                	jle    9fc4 <func_68+0x561>
    a012:	c7 85 84 f1 ff ff 00 	movl   $0x0,-0xe7c(%rbp)
    a019:	00 00 00 
    a01c:	eb 1e                	jmp    a03c <func_68+0x5d9>
    a01e:	8b 85 84 f1 ff ff    	mov    -0xe7c(%rbp),%eax
    a024:	48 98                	cltq   
    a026:	48 8d 95 30 f2 ff ff 	lea    -0xdd0(%rbp),%rdx
    a02d:	48 89 94 c5 e0 f3 ff 	mov    %rdx,-0xc20(%rbp,%rax,8)
    a034:	ff 
    a035:	83 85 84 f1 ff ff 01 	addl   $0x1,-0xe7c(%rbp)
    a03c:	83 bd 84 f1 ff ff 09 	cmpl   $0x9,-0xe7c(%rbp)
    a043:	7e d9                	jle    a01e <func_68+0x5bb>
    a045:	8b 85 f8 f1 ff ff    	mov    -0xe08(%rbp),%eax
    a04b:	48 98                	cltq   
    a04d:	48 89 85 d0 f2 ff ff 	mov    %rax,-0xd30(%rbp)
    a054:	8b 05 da 5f 00 00    	mov    0x5fda(%rip),%eax        # 10034 <g_46+0x4>
    a05a:	0f b7 c0             	movzwl %ax,%eax
    a05d:	be 04 00 00 00       	mov    $0x4,%esi
    a062:	89 c7                	mov    %eax,%edi
    a064:	e8 b6 cc ff ff       	callq  6d1f <safe_sub_func_uint16_t_u_u>
    a069:	0f b7 c0             	movzwl %ax,%eax
    a06c:	89 05 c2 5f 00 00    	mov    %eax,0x5fc2(%rip)        # 10034 <g_46+0x4>
    a072:	8b 05 bc 5f 00 00    	mov    0x5fbc(%rip),%eax        # 10034 <g_46+0x4>
    a078:	83 f8 e4             	cmp    $0xffffffe4,%eax
    a07b:	0f 8c 64 fd ff ff    	jl     9de5 <func_68+0x382>
    a081:	8b 05 01 60 00 00    	mov    0x6001(%rip),%eax        # 10088 <g_226>
    a087:	83 c0 01             	add    $0x1,%eax
    a08a:	89 05 f8 5f 00 00    	mov    %eax,0x5ff8(%rip)        # 10088 <g_226>
    a090:	0f b6 05 ad 5f 00 00 	movzbl 0x5fad(%rip),%eax        # 10044 <g_67>
    a097:	0f b6 c0             	movzbl %al,%eax
    a09a:	be 02 00 00 00       	mov    $0x2,%esi
    a09f:	48 89 c7             	mov    %rax,%rdi
    a0a2:	e8 87 cf ff ff       	callq  702e <safe_add_func_uint64_t_u_u>
    a0a7:	88 05 97 5f 00 00    	mov    %al,0x5f97(%rip)        # 10044 <g_67>
    a0ad:	0f b6 05 90 5f 00 00 	movzbl 0x5f90(%rip),%eax        # 10044 <g_67>
    a0b4:	3c 20                	cmp    $0x20,%al
    a0b6:	0f 85 fd fb ff ff    	jne    9cb9 <func_68+0x256>
    a0bc:	8b 05 76 5f 00 00    	mov    0x5f76(%rip),%eax        # 10038 <g_46+0x8>
    a0c2:	25 00 00 f8 ff       	and    $0xfff80000,%eax
    a0c7:	83 c8 01             	or     $0x1,%eax
    a0ca:	89 05 68 5f 00 00    	mov    %eax,0x5f68(%rip)        # 10038 <g_46+0x8>
    a0d0:	8b 05 62 5f 00 00    	mov    0x5f62(%rip),%eax        # 10038 <g_46+0x8>
    a0d6:	25 ff ff 07 00       	and    $0x7ffff,%eax
    a0db:	89 c2                	mov    %eax,%edx
    a0dd:	8b 05 a9 5f 00 00    	mov    0x5fa9(%rip),%eax        # 1008c <g_230>
    a0e3:	09 d0                	or     %edx,%eax
    a0e5:	89 05 a1 5f 00 00    	mov    %eax,0x5fa1(%rip)        # 1008c <g_230>
    a0eb:	8b 05 9b 5f 00 00    	mov    0x5f9b(%rip),%eax        # 1008c <g_230>
    a0f1:	83 f8 01             	cmp    $0x1,%eax
    a0f4:	0f 84 87 0c 00 00    	je     ad81 <func_68+0x131e>
    a0fa:	c7 85 9c f1 ff ff d7 	movl   $0x523aabd7,-0xe64(%rbp)
    a101:	ab 3a 52 
    a104:	48 8d 05 3a 5f 00 00 	lea    0x5f3a(%rip),%rax        # 10045 <g_84>
    a10b:	48 89 85 70 f2 ff ff 	mov    %rax,-0xd90(%rbp)
    a112:	48 8d 05 6b 5f 00 00 	lea    0x5f6b(%rip),%rax        # 10084 <g_222>
    a119:	48 89 85 18 f2 ff ff 	mov    %rax,-0xde8(%rbp)
    a120:	c7 85 a0 f1 ff ff 02 	movl   $0xd4dd6702,-0xe60(%rbp)
    a127:	67 dd d4 
    a12a:	c7 85 a4 f1 ff ff 01 	movl   $0x1,-0xe5c(%rbp)
    a131:	00 00 00 
    a134:	c7 85 a8 f1 ff ff ff 	movl   $0xffffffff,-0xe58(%rbp)
    a13b:	ff ff ff 
    a13e:	c7 85 ac f1 ff ff 92 	movl   $0xd4712d92,-0xe54(%rbp)
    a145:	2d 71 d4 
    a148:	c7 85 b0 f1 ff ff 9c 	movl   $0x11d21e9c,-0xe50(%rbp)
    a14f:	1e d2 11 
    a152:	c7 85 b4 f1 ff ff ff 	movl   $0xffffffff,-0xe4c(%rbp)
    a159:	ff ff ff 
    a15c:	c7 85 b8 f1 ff ff 9f 	movl   $0x27d5859f,-0xe48(%rbp)
    a163:	85 d5 27 
    a166:	c7 85 bc f1 ff ff c6 	movl   $0x57602ec6,-0xe44(%rbp)
    a16d:	2e 60 57 
    a170:	c7 85 c0 f1 ff ff 9e 	movl   $0x4745939e,-0xe40(%rbp)
    a177:	93 45 47 
    a17a:	c7 85 c4 f1 ff ff f9 	movl   $0xfffffff9,-0xe3c(%rbp)
    a181:	ff ff ff 
    a184:	c7 85 c8 f1 ff ff b5 	movl   $0x8b3b24b5,-0xe38(%rbp)
    a18b:	24 3b 8b 
    a18e:	c7 85 cc f1 ff ff 36 	movl   $0x4fac6636,-0xe34(%rbp)
    a195:	66 ac 4f 
    a198:	c7 85 8c f1 ff ff 3a 	movl   $0xa5e1613a,-0xe74(%rbp)
    a19f:	61 e1 a5 
    a1a2:	c7 85 d0 f1 ff ff 5b 	movl   $0xe494c05b,-0xe30(%rbp)
    a1a9:	c0 94 e4 
    a1ac:	48 8d 85 18 f2 ff ff 	lea    -0xde8(%rbp),%rax
    a1b3:	48 89 85 90 f6 ff ff 	mov    %rax,-0x970(%rbp)
    a1ba:	48 8d 05 0f 7a 00 00 	lea    0x7a0f(%rip),%rax        # 11bd0 <g_221>
    a1c1:	48 89 85 98 f6 ff ff 	mov    %rax,-0x968(%rbp)
    a1c8:	48 c7 85 a0 f6 ff ff 	movq   $0x0,-0x960(%rbp)
    a1cf:	00 00 00 00 
    a1d3:	48 c7 85 a8 f6 ff ff 	movq   $0x0,-0x958(%rbp)
    a1da:	00 00 00 00 
    a1de:	48 8d 05 eb 79 00 00 	lea    0x79eb(%rip),%rax        # 11bd0 <g_221>
    a1e5:	48 89 85 b0 f6 ff ff 	mov    %rax,-0x950(%rbp)
    a1ec:	48 8d 05 dd 79 00 00 	lea    0x79dd(%rip),%rax        # 11bd0 <g_221>
    a1f3:	48 89 85 b8 f6 ff ff 	mov    %rax,-0x948(%rbp)
    a1fa:	48 8d 05 cf 79 00 00 	lea    0x79cf(%rip),%rax        # 11bd0 <g_221>
    a201:	48 89 85 c0 f6 ff ff 	mov    %rax,-0x940(%rbp)
    a208:	48 8d 05 c1 79 00 00 	lea    0x79c1(%rip),%rax        # 11bd0 <g_221>
    a20f:	48 89 85 c8 f6 ff ff 	mov    %rax,-0x938(%rbp)
    a216:	48 8d 05 b3 79 00 00 	lea    0x79b3(%rip),%rax        # 11bd0 <g_221>
    a21d:	48 89 85 d0 f6 ff ff 	mov    %rax,-0x930(%rbp)
    a224:	48 8d 85 18 f2 ff ff 	lea    -0xde8(%rbp),%rax
    a22b:	48 89 85 d8 f6 ff ff 	mov    %rax,-0x928(%rbp)
    a232:	48 8d 05 97 79 00 00 	lea    0x7997(%rip),%rax        # 11bd0 <g_221>
    a239:	48 89 85 e0 f6 ff ff 	mov    %rax,-0x920(%rbp)
    a240:	48 c7 85 e8 f6 ff ff 	movq   $0x0,-0x918(%rbp)
    a247:	00 00 00 00 
    a24b:	48 8d 05 7e 79 00 00 	lea    0x797e(%rip),%rax        # 11bd0 <g_221>
    a252:	48 89 85 f0 f6 ff ff 	mov    %rax,-0x910(%rbp)
    a259:	48 8d 85 18 f2 ff ff 	lea    -0xde8(%rbp),%rax
    a260:	48 89 85 f8 f6 ff ff 	mov    %rax,-0x908(%rbp)
    a267:	48 c7 85 00 f7 ff ff 	movq   $0x0,-0x900(%rbp)
    a26e:	00 00 00 00 
    a272:	48 8d 05 57 79 00 00 	lea    0x7957(%rip),%rax        # 11bd0 <g_221>
    a279:	48 89 85 08 f7 ff ff 	mov    %rax,-0x8f8(%rbp)
    a280:	48 8d 05 49 79 00 00 	lea    0x7949(%rip),%rax        # 11bd0 <g_221>
    a287:	48 89 85 10 f7 ff ff 	mov    %rax,-0x8f0(%rbp)
    a28e:	48 8d 85 18 f2 ff ff 	lea    -0xde8(%rbp),%rax
    a295:	48 89 85 18 f7 ff ff 	mov    %rax,-0x8e8(%rbp)
    a29c:	48 8d 05 2d 79 00 00 	lea    0x792d(%rip),%rax        # 11bd0 <g_221>
    a2a3:	48 89 85 20 f7 ff ff 	mov    %rax,-0x8e0(%rbp)
    a2aa:	48 8d 05 1f 79 00 00 	lea    0x791f(%rip),%rax        # 11bd0 <g_221>
    a2b1:	48 89 85 28 f7 ff ff 	mov    %rax,-0x8d8(%rbp)
    a2b8:	48 8d 85 18 f2 ff ff 	lea    -0xde8(%rbp),%rax
    a2bf:	48 89 85 30 f7 ff ff 	mov    %rax,-0x8d0(%rbp)
    a2c6:	48 c7 85 38 f7 ff ff 	movq   $0x0,-0x8c8(%rbp)
    a2cd:	00 00 00 00 
    a2d1:	48 8d 85 18 f2 ff ff 	lea    -0xde8(%rbp),%rax
    a2d8:	48 89 85 40 f7 ff ff 	mov    %rax,-0x8c0(%rbp)
    a2df:	48 8d 05 ea 78 00 00 	lea    0x78ea(%rip),%rax        # 11bd0 <g_221>
    a2e6:	48 89 85 48 f7 ff ff 	mov    %rax,-0x8b8(%rbp)
    a2ed:	48 8d 05 dc 78 00 00 	lea    0x78dc(%rip),%rax        # 11bd0 <g_221>
    a2f4:	48 89 85 50 f7 ff ff 	mov    %rax,-0x8b0(%rbp)
    a2fb:	48 8d 05 ce 78 00 00 	lea    0x78ce(%rip),%rax        # 11bd0 <g_221>
    a302:	48 89 85 58 f7 ff ff 	mov    %rax,-0x8a8(%rbp)
    a309:	48 8d 05 c0 78 00 00 	lea    0x78c0(%rip),%rax        # 11bd0 <g_221>
    a310:	48 89 85 60 f7 ff ff 	mov    %rax,-0x8a0(%rbp)
    a317:	48 8d 85 18 f2 ff ff 	lea    -0xde8(%rbp),%rax
    a31e:	48 89 85 68 f7 ff ff 	mov    %rax,-0x898(%rbp)
    a325:	48 8d 05 a4 78 00 00 	lea    0x78a4(%rip),%rax        # 11bd0 <g_221>
    a32c:	48 89 85 70 f7 ff ff 	mov    %rax,-0x890(%rbp)
    a333:	48 8d 05 96 78 00 00 	lea    0x7896(%rip),%rax        # 11bd0 <g_221>
    a33a:	48 89 85 78 f7 ff ff 	mov    %rax,-0x888(%rbp)
    a341:	48 8d 85 18 f2 ff ff 	lea    -0xde8(%rbp),%rax
    a348:	48 89 85 80 f7 ff ff 	mov    %rax,-0x880(%rbp)
    a34f:	48 8d 05 7a 78 00 00 	lea    0x787a(%rip),%rax        # 11bd0 <g_221>
    a356:	48 89 85 88 f7 ff ff 	mov    %rax,-0x878(%rbp)
    a35d:	48 8d 85 18 f2 ff ff 	lea    -0xde8(%rbp),%rax
    a364:	48 89 85 90 f7 ff ff 	mov    %rax,-0x870(%rbp)
    a36b:	48 8d 05 5e 78 00 00 	lea    0x785e(%rip),%rax        # 11bd0 <g_221>
    a372:	48 89 85 98 f7 ff ff 	mov    %rax,-0x868(%rbp)
    a379:	48 8d 05 50 78 00 00 	lea    0x7850(%rip),%rax        # 11bd0 <g_221>
    a380:	48 89 85 a0 f7 ff ff 	mov    %rax,-0x860(%rbp)
    a387:	48 c7 85 a8 f7 ff ff 	movq   $0x0,-0x858(%rbp)
    a38e:	00 00 00 00 
    a392:	48 8d 05 37 78 00 00 	lea    0x7837(%rip),%rax        # 11bd0 <g_221>
    a399:	48 89 85 b0 f7 ff ff 	mov    %rax,-0x850(%rbp)
    a3a0:	48 8d 85 18 f2 ff ff 	lea    -0xde8(%rbp),%rax
    a3a7:	48 89 85 b8 f7 ff ff 	mov    %rax,-0x848(%rbp)
    a3ae:	48 8d 05 1b 78 00 00 	lea    0x781b(%rip),%rax        # 11bd0 <g_221>
    a3b5:	48 89 85 c0 f7 ff ff 	mov    %rax,-0x840(%rbp)
    a3bc:	48 8d 05 0d 78 00 00 	lea    0x780d(%rip),%rax        # 11bd0 <g_221>
    a3c3:	48 89 85 c8 f7 ff ff 	mov    %rax,-0x838(%rbp)
    a3ca:	48 8d 05 ff 77 00 00 	lea    0x77ff(%rip),%rax        # 11bd0 <g_221>
    a3d1:	48 89 85 d0 f7 ff ff 	mov    %rax,-0x830(%rbp)
    a3d8:	48 8d 85 18 f2 ff ff 	lea    -0xde8(%rbp),%rax
    a3df:	48 89 85 d8 f7 ff ff 	mov    %rax,-0x828(%rbp)
    a3e6:	48 8d 85 18 f2 ff ff 	lea    -0xde8(%rbp),%rax
    a3ed:	48 89 85 e0 f7 ff ff 	mov    %rax,-0x820(%rbp)
    a3f4:	48 8d 05 d5 77 00 00 	lea    0x77d5(%rip),%rax        # 11bd0 <g_221>
    a3fb:	48 89 85 e8 f7 ff ff 	mov    %rax,-0x818(%rbp)
    a402:	48 8d 05 c7 77 00 00 	lea    0x77c7(%rip),%rax        # 11bd0 <g_221>
    a409:	48 89 85 f0 f7 ff ff 	mov    %rax,-0x810(%rbp)
    a410:	48 8d 85 18 f2 ff ff 	lea    -0xde8(%rbp),%rax
    a417:	48 89 85 f8 f7 ff ff 	mov    %rax,-0x808(%rbp)
    a41e:	48 c7 85 00 f8 ff ff 	movq   $0x0,-0x800(%rbp)
    a425:	00 00 00 00 
    a429:	48 c7 85 08 f8 ff ff 	movq   $0x0,-0x7f8(%rbp)
    a430:	00 00 00 00 
    a434:	48 8d 05 95 77 00 00 	lea    0x7795(%rip),%rax        # 11bd0 <g_221>
    a43b:	48 89 85 10 f8 ff ff 	mov    %rax,-0x7f0(%rbp)
    a442:	48 8d 05 87 77 00 00 	lea    0x7787(%rip),%rax        # 11bd0 <g_221>
    a449:	48 89 85 18 f8 ff ff 	mov    %rax,-0x7e8(%rbp)
    a450:	48 c7 85 20 f8 ff ff 	movq   $0x0,-0x7e0(%rbp)
    a457:	00 00 00 00 
    a45b:	48 c7 85 28 f8 ff ff 	movq   $0x0,-0x7d8(%rbp)
    a462:	00 00 00 00 
    a466:	48 c7 85 30 f8 ff ff 	movq   $0x0,-0x7d0(%rbp)
    a46d:	00 00 00 00 
    a471:	48 8d 05 58 77 00 00 	lea    0x7758(%rip),%rax        # 11bd0 <g_221>
    a478:	48 89 85 38 f8 ff ff 	mov    %rax,-0x7c8(%rbp)
    a47f:	48 8d 05 4a 77 00 00 	lea    0x774a(%rip),%rax        # 11bd0 <g_221>
    a486:	48 89 85 40 f8 ff ff 	mov    %rax,-0x7c0(%rbp)
    a48d:	48 8d 05 3c 77 00 00 	lea    0x773c(%rip),%rax        # 11bd0 <g_221>
    a494:	48 89 85 48 f8 ff ff 	mov    %rax,-0x7b8(%rbp)
    a49b:	48 8d 05 2e 77 00 00 	lea    0x772e(%rip),%rax        # 11bd0 <g_221>
    a4a2:	48 89 85 50 f8 ff ff 	mov    %rax,-0x7b0(%rbp)
    a4a9:	48 8d 05 20 77 00 00 	lea    0x7720(%rip),%rax        # 11bd0 <g_221>
    a4b0:	48 89 85 58 f8 ff ff 	mov    %rax,-0x7a8(%rbp)
    a4b7:	48 8d 85 18 f2 ff ff 	lea    -0xde8(%rbp),%rax
    a4be:	48 89 85 60 f8 ff ff 	mov    %rax,-0x7a0(%rbp)
    a4c5:	48 c7 85 68 f8 ff ff 	movq   $0x0,-0x798(%rbp)
    a4cc:	00 00 00 00 
    a4d0:	48 8d 05 f9 76 00 00 	lea    0x76f9(%rip),%rax        # 11bd0 <g_221>
    a4d7:	48 89 85 70 f8 ff ff 	mov    %rax,-0x790(%rbp)
    a4de:	48 c7 85 78 f8 ff ff 	movq   $0x0,-0x788(%rbp)
    a4e5:	00 00 00 00 
    a4e9:	48 c7 85 80 f8 ff ff 	movq   $0x0,-0x780(%rbp)
    a4f0:	00 00 00 00 
    a4f4:	48 8d 85 18 f2 ff ff 	lea    -0xde8(%rbp),%rax
    a4fb:	48 89 85 88 f8 ff ff 	mov    %rax,-0x778(%rbp)
    a502:	48 8d 05 c7 76 00 00 	lea    0x76c7(%rip),%rax        # 11bd0 <g_221>
    a509:	48 89 85 90 f8 ff ff 	mov    %rax,-0x770(%rbp)
    a510:	48 8d 05 b9 76 00 00 	lea    0x76b9(%rip),%rax        # 11bd0 <g_221>
    a517:	48 89 85 98 f8 ff ff 	mov    %rax,-0x768(%rbp)
    a51e:	48 8d 05 ab 76 00 00 	lea    0x76ab(%rip),%rax        # 11bd0 <g_221>
    a525:	48 89 85 a0 f8 ff ff 	mov    %rax,-0x760(%rbp)
    a52c:	48 8d 85 18 f2 ff ff 	lea    -0xde8(%rbp),%rax
    a533:	48 89 85 a8 f8 ff ff 	mov    %rax,-0x758(%rbp)
    a53a:	48 8d 85 18 f2 ff ff 	lea    -0xde8(%rbp),%rax
    a541:	48 89 85 b0 f8 ff ff 	mov    %rax,-0x750(%rbp)
    a548:	48 c7 85 b8 f8 ff ff 	movq   $0x0,-0x748(%rbp)
    a54f:	00 00 00 00 
    a553:	48 8d 85 18 f2 ff ff 	lea    -0xde8(%rbp),%rax
    a55a:	48 89 85 c0 f8 ff ff 	mov    %rax,-0x740(%rbp)
    a561:	48 8d 05 68 76 00 00 	lea    0x7668(%rip),%rax        # 11bd0 <g_221>
    a568:	48 89 85 c8 f8 ff ff 	mov    %rax,-0x738(%rbp)
    a56f:	48 8d 85 18 f2 ff ff 	lea    -0xde8(%rbp),%rax
    a576:	48 89 85 d0 f8 ff ff 	mov    %rax,-0x730(%rbp)
    a57d:	48 8d 05 4c 76 00 00 	lea    0x764c(%rip),%rax        # 11bd0 <g_221>
    a584:	48 89 85 d8 f8 ff ff 	mov    %rax,-0x728(%rbp)
    a58b:	48 c7 85 e0 f8 ff ff 	movq   $0x0,-0x720(%rbp)
    a592:	00 00 00 00 
    a596:	48 8d 85 18 f2 ff ff 	lea    -0xde8(%rbp),%rax
    a59d:	48 89 85 e8 f8 ff ff 	mov    %rax,-0x718(%rbp)
    a5a4:	48 8d 85 18 f2 ff ff 	lea    -0xde8(%rbp),%rax
    a5ab:	48 89 85 f0 f8 ff ff 	mov    %rax,-0x710(%rbp)
    a5b2:	48 8d 85 18 f2 ff ff 	lea    -0xde8(%rbp),%rax
    a5b9:	48 89 85 f8 f8 ff ff 	mov    %rax,-0x708(%rbp)
    a5c0:	48 8d 05 09 76 00 00 	lea    0x7609(%rip),%rax        # 11bd0 <g_221>
    a5c7:	48 89 85 00 f9 ff ff 	mov    %rax,-0x700(%rbp)
    a5ce:	48 8d 85 18 f2 ff ff 	lea    -0xde8(%rbp),%rax
    a5d5:	48 89 85 08 f9 ff ff 	mov    %rax,-0x6f8(%rbp)
    a5dc:	48 8d 05 ed 75 00 00 	lea    0x75ed(%rip),%rax        # 11bd0 <g_221>
    a5e3:	48 89 85 10 f9 ff ff 	mov    %rax,-0x6f0(%rbp)
    a5ea:	48 8d 85 18 f2 ff ff 	lea    -0xde8(%rbp),%rax
    a5f1:	48 89 85 18 f9 ff ff 	mov    %rax,-0x6e8(%rbp)
    a5f8:	48 8d 05 d1 75 00 00 	lea    0x75d1(%rip),%rax        # 11bd0 <g_221>
    a5ff:	48 89 85 20 f9 ff ff 	mov    %rax,-0x6e0(%rbp)
    a606:	48 8d 05 c3 75 00 00 	lea    0x75c3(%rip),%rax        # 11bd0 <g_221>
    a60d:	48 89 85 28 f9 ff ff 	mov    %rax,-0x6d8(%rbp)
    a614:	48 8d 85 90 f6 ff ff 	lea    -0x970(%rbp),%rax
    a61b:	48 83 c0 18          	add    $0x18,%rax
    a61f:	48 89 85 40 f2 ff ff 	mov    %rax,-0xdc0(%rbp)
    a626:	48 8d 05 43 5a 00 00 	lea    0x5a43(%rip),%rax        # 10070 <g_153>
    a62d:	48 89 85 20 f2 ff ff 	mov    %rax,-0xde0(%rbp)
    a634:	48 8d 85 20 f2 ff ff 	lea    -0xde0(%rbp),%rax
    a63b:	48 89 85 78 f2 ff ff 	mov    %rax,-0xd88(%rbp)
    a642:	c6 85 75 f1 ff ff 86 	movb   $0x86,-0xe8b(%rbp)
    a649:	48 8d 05 20 5a 00 00 	lea    0x5a20(%rip),%rax        # 10070 <g_153>
    a650:	48 89 85 28 f2 ff ff 	mov    %rax,-0xdd8(%rbp)
    a657:	48 8d 85 28 f2 ff ff 	lea    -0xdd8(%rbp),%rax
    a65e:	48 89 85 30 f2 ff ff 	mov    %rax,-0xdd0(%rbp)
    a665:	48 8d 85 30 f2 ff ff 	lea    -0xdd0(%rbp),%rax
    a66c:	48 89 85 90 f4 ff ff 	mov    %rax,-0xb70(%rbp)
    a673:	48 8d 85 30 f2 ff ff 	lea    -0xdd0(%rbp),%rax
    a67a:	48 89 85 98 f4 ff ff 	mov    %rax,-0xb68(%rbp)
    a681:	48 8d 85 30 f2 ff ff 	lea    -0xdd0(%rbp),%rax
    a688:	48 89 85 a0 f4 ff ff 	mov    %rax,-0xb60(%rbp)
    a68f:	48 8d 85 30 f2 ff ff 	lea    -0xdd0(%rbp),%rax
    a696:	48 89 85 a8 f4 ff ff 	mov    %rax,-0xb58(%rbp)
    a69d:	48 8d 85 30 f2 ff ff 	lea    -0xdd0(%rbp),%rax
    a6a4:	48 89 85 b0 f4 ff ff 	mov    %rax,-0xb50(%rbp)
    a6ab:	48 8d 85 30 f2 ff ff 	lea    -0xdd0(%rbp),%rax
    a6b2:	48 89 85 b8 f4 ff ff 	mov    %rax,-0xb48(%rbp)
    a6b9:	48 8d 85 30 f2 ff ff 	lea    -0xdd0(%rbp),%rax
    a6c0:	48 89 85 c0 f4 ff ff 	mov    %rax,-0xb40(%rbp)
    a6c7:	48 8d 85 30 f2 ff ff 	lea    -0xdd0(%rbp),%rax
    a6ce:	48 89 85 c8 f4 ff ff 	mov    %rax,-0xb38(%rbp)
    a6d5:	48 8d 85 30 f2 ff ff 	lea    -0xdd0(%rbp),%rax
    a6dc:	48 89 85 d0 f4 ff ff 	mov    %rax,-0xb30(%rbp)
    a6e3:	48 8d 85 30 f2 ff ff 	lea    -0xdd0(%rbp),%rax
    a6ea:	48 89 85 d8 f4 ff ff 	mov    %rax,-0xb28(%rbp)
    a6f1:	48 8d 85 30 f2 ff ff 	lea    -0xdd0(%rbp),%rax
    a6f8:	48 89 85 e0 f4 ff ff 	mov    %rax,-0xb20(%rbp)
    a6ff:	48 8d 85 30 f2 ff ff 	lea    -0xdd0(%rbp),%rax
    a706:	48 89 85 e8 f4 ff ff 	mov    %rax,-0xb18(%rbp)
    a70d:	48 8d 85 30 f2 ff ff 	lea    -0xdd0(%rbp),%rax
    a714:	48 89 85 f0 f4 ff ff 	mov    %rax,-0xb10(%rbp)
    a71b:	48 8d 85 30 f2 ff ff 	lea    -0xdd0(%rbp),%rax
    a722:	48 89 85 f8 f4 ff ff 	mov    %rax,-0xb08(%rbp)
    a729:	48 8d 85 30 f2 ff ff 	lea    -0xdd0(%rbp),%rax
    a730:	48 89 85 00 f5 ff ff 	mov    %rax,-0xb00(%rbp)
    a737:	48 8d 85 30 f2 ff ff 	lea    -0xdd0(%rbp),%rax
    a73e:	48 89 85 08 f5 ff ff 	mov    %rax,-0xaf8(%rbp)
    a745:	48 8d 85 30 f2 ff ff 	lea    -0xdd0(%rbp),%rax
    a74c:	48 89 85 10 f5 ff ff 	mov    %rax,-0xaf0(%rbp)
    a753:	48 8d 85 30 f2 ff ff 	lea    -0xdd0(%rbp),%rax
    a75a:	48 89 85 18 f5 ff ff 	mov    %rax,-0xae8(%rbp)
    a761:	48 8d 85 30 f2 ff ff 	lea    -0xdd0(%rbp),%rax
    a768:	48 89 85 20 f5 ff ff 	mov    %rax,-0xae0(%rbp)
    a76f:	48 8d 85 30 f2 ff ff 	lea    -0xdd0(%rbp),%rax
    a776:	48 89 85 28 f5 ff ff 	mov    %rax,-0xad8(%rbp)
    a77d:	48 8d 85 30 f2 ff ff 	lea    -0xdd0(%rbp),%rax
    a784:	48 89 85 30 f5 ff ff 	mov    %rax,-0xad0(%rbp)
    a78b:	48 8d 85 30 f2 ff ff 	lea    -0xdd0(%rbp),%rax
    a792:	48 89 85 38 f5 ff ff 	mov    %rax,-0xac8(%rbp)
    a799:	48 8d 85 30 f2 ff ff 	lea    -0xdd0(%rbp),%rax
    a7a0:	48 89 85 40 f5 ff ff 	mov    %rax,-0xac0(%rbp)
    a7a7:	48 8d 85 30 f2 ff ff 	lea    -0xdd0(%rbp),%rax
    a7ae:	48 89 85 48 f5 ff ff 	mov    %rax,-0xab8(%rbp)
    a7b5:	48 8d 85 30 f2 ff ff 	lea    -0xdd0(%rbp),%rax
    a7bc:	48 89 85 50 f5 ff ff 	mov    %rax,-0xab0(%rbp)
    a7c3:	48 8d 85 30 f2 ff ff 	lea    -0xdd0(%rbp),%rax
    a7ca:	48 89 85 58 f5 ff ff 	mov    %rax,-0xaa8(%rbp)
    a7d1:	48 8d 85 30 f2 ff ff 	lea    -0xdd0(%rbp),%rax
    a7d8:	48 89 85 60 f5 ff ff 	mov    %rax,-0xaa0(%rbp)
    a7df:	48 8d 85 30 f2 ff ff 	lea    -0xdd0(%rbp),%rax
    a7e6:	48 89 85 68 f5 ff ff 	mov    %rax,-0xa98(%rbp)
    a7ed:	48 8d 85 30 f2 ff ff 	lea    -0xdd0(%rbp),%rax
    a7f4:	48 89 85 70 f5 ff ff 	mov    %rax,-0xa90(%rbp)
    a7fb:	48 8d 85 30 f2 ff ff 	lea    -0xdd0(%rbp),%rax
    a802:	48 89 85 78 f5 ff ff 	mov    %rax,-0xa88(%rbp)
    a809:	48 8d 85 30 f2 ff ff 	lea    -0xdd0(%rbp),%rax
    a810:	48 89 85 80 f5 ff ff 	mov    %rax,-0xa80(%rbp)
    a817:	48 8d 85 30 f2 ff ff 	lea    -0xdd0(%rbp),%rax
    a81e:	48 89 85 88 f5 ff ff 	mov    %rax,-0xa78(%rbp)
    a825:	48 8d 85 30 f2 ff ff 	lea    -0xdd0(%rbp),%rax
    a82c:	48 89 85 90 f5 ff ff 	mov    %rax,-0xa70(%rbp)
    a833:	48 8d 85 30 f2 ff ff 	lea    -0xdd0(%rbp),%rax
    a83a:	48 89 85 98 f5 ff ff 	mov    %rax,-0xa68(%rbp)
    a841:	48 8d 85 30 f2 ff ff 	lea    -0xdd0(%rbp),%rax
    a848:	48 89 85 a0 f5 ff ff 	mov    %rax,-0xa60(%rbp)
    a84f:	48 8d 85 30 f2 ff ff 	lea    -0xdd0(%rbp),%rax
    a856:	48 89 85 a8 f5 ff ff 	mov    %rax,-0xa58(%rbp)
    a85d:	48 8d 85 30 f2 ff ff 	lea    -0xdd0(%rbp),%rax
    a864:	48 89 85 b0 f5 ff ff 	mov    %rax,-0xa50(%rbp)
    a86b:	48 8d 85 30 f2 ff ff 	lea    -0xdd0(%rbp),%rax
    a872:	48 89 85 b8 f5 ff ff 	mov    %rax,-0xa48(%rbp)
    a879:	48 8d 85 30 f2 ff ff 	lea    -0xdd0(%rbp),%rax
    a880:	48 89 85 c0 f5 ff ff 	mov    %rax,-0xa40(%rbp)
    a887:	48 8d 85 30 f2 ff ff 	lea    -0xdd0(%rbp),%rax
    a88e:	48 89 85 c8 f5 ff ff 	mov    %rax,-0xa38(%rbp)
    a895:	48 8d 85 30 f2 ff ff 	lea    -0xdd0(%rbp),%rax
    a89c:	48 89 85 d0 f5 ff ff 	mov    %rax,-0xa30(%rbp)
    a8a3:	48 8d 85 30 f2 ff ff 	lea    -0xdd0(%rbp),%rax
    a8aa:	48 89 85 d8 f5 ff ff 	mov    %rax,-0xa28(%rbp)
    a8b1:	48 8d 85 30 f2 ff ff 	lea    -0xdd0(%rbp),%rax
    a8b8:	48 89 85 e0 f5 ff ff 	mov    %rax,-0xa20(%rbp)
    a8bf:	48 8d 85 30 f2 ff ff 	lea    -0xdd0(%rbp),%rax
    a8c6:	48 89 85 e8 f5 ff ff 	mov    %rax,-0xa18(%rbp)
    a8cd:	48 8d 85 30 f2 ff ff 	lea    -0xdd0(%rbp),%rax
    a8d4:	48 89 85 f0 f5 ff ff 	mov    %rax,-0xa10(%rbp)
    a8db:	48 8d 85 30 f2 ff ff 	lea    -0xdd0(%rbp),%rax
    a8e2:	48 89 85 f8 f5 ff ff 	mov    %rax,-0xa08(%rbp)
    a8e9:	48 8d 85 30 f2 ff ff 	lea    -0xdd0(%rbp),%rax
    a8f0:	48 89 85 00 f6 ff ff 	mov    %rax,-0xa00(%rbp)
    a8f7:	48 8d 85 30 f2 ff ff 	lea    -0xdd0(%rbp),%rax
    a8fe:	48 89 85 08 f6 ff ff 	mov    %rax,-0x9f8(%rbp)
    a905:	48 8d 85 30 f2 ff ff 	lea    -0xdd0(%rbp),%rax
    a90c:	48 89 85 10 f6 ff ff 	mov    %rax,-0x9f0(%rbp)
    a913:	48 8d 85 30 f2 ff ff 	lea    -0xdd0(%rbp),%rax
    a91a:	48 89 85 18 f6 ff ff 	mov    %rax,-0x9e8(%rbp)
    a921:	48 8d 85 30 f2 ff ff 	lea    -0xdd0(%rbp),%rax
    a928:	48 89 85 20 f6 ff ff 	mov    %rax,-0x9e0(%rbp)
    a92f:	48 8d 85 30 f2 ff ff 	lea    -0xdd0(%rbp),%rax
    a936:	48 89 85 28 f6 ff ff 	mov    %rax,-0x9d8(%rbp)
    a93d:	48 8d 85 30 f2 ff ff 	lea    -0xdd0(%rbp),%rax
    a944:	48 89 85 30 f6 ff ff 	mov    %rax,-0x9d0(%rbp)
    a94b:	48 8d 85 30 f2 ff ff 	lea    -0xdd0(%rbp),%rax
    a952:	48 89 85 38 f6 ff ff 	mov    %rax,-0x9c8(%rbp)
    a959:	48 8d 85 30 f2 ff ff 	lea    -0xdd0(%rbp),%rax
    a960:	48 89 85 40 f6 ff ff 	mov    %rax,-0x9c0(%rbp)
    a967:	48 8d 85 30 f2 ff ff 	lea    -0xdd0(%rbp),%rax
    a96e:	48 89 85 48 f6 ff ff 	mov    %rax,-0x9b8(%rbp)
    a975:	48 8d 85 30 f2 ff ff 	lea    -0xdd0(%rbp),%rax
    a97c:	48 89 85 50 f6 ff ff 	mov    %rax,-0x9b0(%rbp)
    a983:	48 8d 85 30 f2 ff ff 	lea    -0xdd0(%rbp),%rax
    a98a:	48 89 85 58 f6 ff ff 	mov    %rax,-0x9a8(%rbp)
    a991:	48 8d 85 30 f2 ff ff 	lea    -0xdd0(%rbp),%rax
    a998:	48 89 85 60 f6 ff ff 	mov    %rax,-0x9a0(%rbp)
    a99f:	48 8d 85 30 f2 ff ff 	lea    -0xdd0(%rbp),%rax
    a9a6:	48 89 85 68 f6 ff ff 	mov    %rax,-0x998(%rbp)
    a9ad:	48 8d 85 30 f2 ff ff 	lea    -0xdd0(%rbp),%rax
    a9b4:	48 89 85 70 f6 ff ff 	mov    %rax,-0x990(%rbp)
    a9bb:	48 8d 85 30 f2 ff ff 	lea    -0xdd0(%rbp),%rax
    a9c2:	48 89 85 78 f6 ff ff 	mov    %rax,-0x988(%rbp)
    a9c9:	48 8d 85 30 f2 ff ff 	lea    -0xdd0(%rbp),%rax
    a9d0:	48 89 85 80 f6 ff ff 	mov    %rax,-0x980(%rbp)
    a9d7:	c7 05 53 56 00 00 00 	movl   $0x0,0x5653(%rip)        # 10034 <g_46+0x4>
    a9de:	00 00 00 
    a9e1:	e9 90 01 00 00       	jmpq   ab76 <func_68+0x1113>
    a9e6:	c7 85 e0 f3 ff ff 02 	movl   $0x2,-0xc20(%rbp)
    a9ed:	00 00 00 
    a9f0:	c7 85 e4 f3 ff ff aa 	movl   $0x917177aa,-0xc1c(%rbp)
    a9f7:	77 71 91 
    a9fa:	c7 85 e8 f3 ff ff 02 	movl   $0x2,-0xc18(%rbp)
    aa01:	00 00 00 
    aa04:	c7 85 ec f3 ff ff 02 	movl   $0x2,-0xc14(%rbp)
    aa0b:	00 00 00 
    aa0e:	c7 85 f0 f3 ff ff aa 	movl   $0x917177aa,-0xc10(%rbp)
    aa15:	77 71 91 
    aa18:	c7 85 f4 f3 ff ff 02 	movl   $0x2,-0xc0c(%rbp)
    aa1f:	00 00 00 
    aa22:	c7 85 f8 f3 ff ff 02 	movl   $0x2,-0xc08(%rbp)
    aa29:	00 00 00 
    aa2c:	c7 85 fc f3 ff ff aa 	movl   $0x917177aa,-0xc04(%rbp)
    aa33:	77 71 91 
    aa36:	c7 85 00 f4 ff ff 02 	movl   $0x2,-0xc00(%rbp)
    aa3d:	00 00 00 
    aa40:	48 8d 85 f0 f2 ff ff 	lea    -0xd10(%rbp),%rax
    aa47:	48 83 c0 08          	add    $0x8,%rax
    aa4b:	48 89 85 a8 f2 ff ff 	mov    %rax,-0xd58(%rbp)
    aa52:	48 b8 2f b5 30 87 8a 	movabs $0x48ed9a8a8730b52f,%rax
    aa59:	9a ed 48 
    aa5c:	48 89 85 b0 f2 ff ff 	mov    %rax,-0xd50(%rbp)
    aa63:	c7 85 e4 f1 ff ff 00 	movl   $0x0,-0xe1c(%rbp)
    aa6a:	00 00 00 
    aa6d:	c7 85 e8 f1 ff ff ca 	movl   $0xba7965ca,-0xe18(%rbp)
    aa74:	65 79 ba 
    aa77:	c7 85 ec f1 ff ff 01 	movl   $0x1,-0xe14(%rbp)
    aa7e:	00 00 00 
    aa81:	c7 85 f0 f1 ff ff ff 	movl   $0xffffffff,-0xe10(%rbp)
    aa88:	ff ff ff 
    aa8b:	c6 85 79 f1 ff ff 79 	movb   $0x79,-0xe87(%rbp)
    aa92:	48 8d 85 30 f9 ff ff 	lea    -0x6d0(%rbp),%rax
    aa99:	48 8d 15 c0 6a 00 00 	lea    0x6ac0(%rip),%rdx        # 11560 <g_1488+0xb28>
    aaa0:	b9 90 00 00 00       	mov    $0x90,%ecx
    aaa5:	48 89 c7             	mov    %rax,%rdi
    aaa8:	48 89 d6             	mov    %rdx,%rsi
    aaab:	f3 48 a5             	rep movsq %ds:(%rsi),%es:(%rdi)
    aaae:	48 c7 85 b8 f2 ff ff 	movq   $0x0,-0xd48(%rbp)
    aab5:	00 00 00 00 
    aab9:	c7 85 f4 f1 ff ff fb 	movl   $0xfffffffb,-0xe0c(%rbp)
    aac0:	ff ff ff 
    aac3:	48 c7 85 c0 f2 ff ff 	movq   $0xffffffffffffffff,-0xd40(%rbp)
    aaca:	ff ff ff ff 
    aace:	c7 85 90 f1 ff ff 00 	movl   $0x0,-0xe70(%rbp)
    aad5:	00 00 00 
    aad8:	eb 42                	jmp    ab1c <func_68+0x10b9>
    aada:	c7 85 94 f1 ff ff 00 	movl   $0x0,-0xe6c(%rbp)
    aae1:	00 00 00 
    aae4:	eb 26                	jmp    ab0c <func_68+0x10a9>
    aae6:	8b 85 94 f1 ff ff    	mov    -0xe6c(%rbp),%eax
    aaec:	48 63 d0             	movslq %eax,%rdx
    aaef:	8b 85 90 f1 ff ff    	mov    -0xe70(%rbp),%eax
    aaf5:	48 98                	cltq   
    aaf7:	48 01 d0             	add    %rdx,%rax
    aafa:	c7 84 85 20 f3 ff ff 	movl   $0x3,-0xce0(%rbp,%rax,4)
    ab01:	03 00 00 00 
    ab05:	83 85 94 f1 ff ff 01 	addl   $0x1,-0xe6c(%rbp)
    ab0c:	83 bd 94 f1 ff ff 00 	cmpl   $0x0,-0xe6c(%rbp)
    ab13:	7e d1                	jle    aae6 <func_68+0x1083>
    ab15:	83 85 90 f1 ff ff 01 	addl   $0x1,-0xe70(%rbp)
    ab1c:	83 bd 90 f1 ff ff 01 	cmpl   $0x1,-0xe70(%rbp)
    ab23:	7e b5                	jle    aada <func_68+0x1077>
    ab25:	c7 85 90 f1 ff ff 00 	movl   $0x0,-0xe70(%rbp)
    ab2c:	00 00 00 
    ab2f:	eb 1e                	jmp    ab4f <func_68+0x10ec>
    ab31:	8b 85 90 f1 ff ff    	mov    -0xe70(%rbp),%eax
    ab37:	48 98                	cltq   
    ab39:	48 8d 15 3d 55 00 00 	lea    0x553d(%rip),%rdx        # 1007d <g_208+0x1>
    ab40:	48 89 94 c5 90 f3 ff 	mov    %rdx,-0xc70(%rbp,%rax,8)
    ab47:	ff 
    ab48:	83 85 90 f1 ff ff 01 	addl   $0x1,-0xe70(%rbp)
    ab4f:	83 bd 90 f1 ff ff 01 	cmpl   $0x1,-0xe70(%rbp)
    ab56:	7e d9                	jle    ab31 <func_68+0x10ce>
    ab58:	8b 05 d6 54 00 00    	mov    0x54d6(%rip),%eax        # 10034 <g_46+0x4>
    ab5e:	0f b6 c0             	movzbl %al,%eax
    ab61:	be 09 00 00 00       	mov    $0x9,%esi
    ab66:	89 c7                	mov    %eax,%edi
    ab68:	e8 ed bf ff ff       	callq  6b5a <safe_add_func_uint8_t_u_u>
    ab6d:	0f b6 c0             	movzbl %al,%eax
    ab70:	89 05 be 54 00 00    	mov    %eax,0x54be(%rip)        # 10034 <g_46+0x4>
    ab76:	8b 05 b8 54 00 00    	mov    0x54b8(%rip),%eax        # 10034 <g_46+0x4>
    ab7c:	83 f8 10             	cmp    $0x10,%eax
    ab7f:	0f 8e 61 fe ff ff    	jle    a9e6 <func_68+0xf83>
    ab85:	8b 05 a9 54 00 00    	mov    0x54a9(%rip),%eax        # 10034 <g_46+0x4>
    ab8b:	85 c0                	test   %eax,%eax
    ab8d:	90                   	nop
    ab8e:	f3 0f 1e fa          	endbr64 
    ab92:	48 8b 05 2f 70 00 00 	mov    0x702f(%rip),%rax        # 11bc8 <g_151>
    ab99:	0f b6 00             	movzbl (%rax),%eax
    ab9c:	0f be c0             	movsbl %al,%eax
    ab9f:	be ff ff ff ff       	mov    $0xffffffff,%esi
    aba4:	89 c7                	mov    %eax,%edi
    aba6:	e8 67 b6 ff ff       	callq  6212 <safe_mul_func_int8_t_s_s>
    abab:	0f be c0             	movsbl %al,%eax
    abae:	09 85 bc f1 ff ff    	or     %eax,-0xe44(%rbp)
    abb4:	c7 85 8c f1 ff ff 00 	movl   $0x0,-0xe74(%rbp)
    abbb:	00 00 00 
    abbe:	e9 a3 01 00 00       	jmpq   ad66 <func_68+0x1303>
    abc3:	48 8d 85 18 f2 ff ff 	lea    -0xde8(%rbp),%rax
    abca:	48 89 85 38 f2 ff ff 	mov    %rax,-0xdc8(%rbp)
    abd1:	48 8d 85 38 f2 ff ff 	lea    -0xdc8(%rbp),%rax
    abd8:	48 89 85 80 f2 ff ff 	mov    %rax,-0xd80(%rbp)
    abdf:	c7 85 d4 f1 ff ff f9 	movl   $0xfffffff9,-0xe2c(%rbp)
    abe6:	ff ff ff 
    abe9:	48 8d 05 a8 56 00 00 	lea    0x56a8(%rip),%rax        # 10298 <g_454>
    abf0:	48 89 85 88 f2 ff ff 	mov    %rax,-0xd78(%rbp)
    abf7:	48 c7 85 90 f2 ff ff 	movq   $0x0,-0xd70(%rbp)
    abfe:	00 00 00 00 
    ac02:	c6 85 76 f1 ff ff 81 	movb   $0x81,-0xe8a(%rbp)
    ac09:	c7 85 d8 f1 ff ff b0 	movl   $0xf9a714b0,-0xe28(%rbp)
    ac10:	14 a7 f9 
    ac13:	c7 85 98 f1 ff ff 00 	movl   $0x0,-0xe68(%rbp)
    ac1a:	00 00 00 
    ac1d:	eb 1b                	jmp    ac3a <func_68+0x11d7>
    ac1f:	8b 85 98 f1 ff ff    	mov    -0xe68(%rbp),%eax
    ac25:	48 98                	cltq   
    ac27:	48 c7 84 c5 e0 f3 ff 	movq   $0x0,-0xc20(%rbp,%rax,8)
    ac2e:	ff 00 00 00 00 
    ac33:	83 85 98 f1 ff ff 01 	addl   $0x1,-0xe68(%rbp)
    ac3a:	83 bd 98 f1 ff ff 00 	cmpl   $0x0,-0xe68(%rbp)
    ac41:	7e dc                	jle    ac1f <func_68+0x11bc>
    ac43:	48 8b 85 40 f2 ff ff 	mov    -0xdc0(%rbp),%rax
    ac4a:	48 3b 85 80 f2 ff ff 	cmp    -0xd80(%rbp),%rax
    ac51:	0f 95 c0             	setne  %al
    ac54:	0f b6 c8             	movzbl %al,%ecx
    ac57:	48 8b 05 82 6d 00 00 	mov    0x6d82(%rip),%rax        # 119e0 <g_48>
    ac5e:	8b 10                	mov    (%rax),%edx
    ac60:	48 8b 05 79 6d 00 00 	mov    0x6d79(%rip),%rax        # 119e0 <g_48>
    ac67:	31 ca                	xor    %ecx,%edx
    ac69:	89 10                	mov    %edx,(%rax)
    ac6b:	c7 05 bb 53 00 00 e5 	movl   $0xffffffe5,0x53bb(%rip)        # 10030 <g_46>
    ac72:	ff ff ff 
    ac75:	e9 d6 00 00 00       	jmpq   ad50 <func_68+0x12ed>
    ac7a:	c6 85 77 f1 ff ff fc 	movb   $0xfc,-0xe89(%rbp)
    ac81:	c7 85 dc f1 ff ff f9 	movl   $0xfffffff9,-0xe24(%rbp)
    ac88:	ff ff ff 
    ac8b:	48 c7 85 98 f2 ff ff 	movq   $0x0,-0xd68(%rbp)
    ac92:	00 00 00 00 
    ac96:	c7 85 e0 f1 ff ff ff 	movl   $0xffffffff,-0xe20(%rbp)
    ac9d:	ff ff ff 
    aca0:	c6 85 78 f1 ff ff f6 	movb   $0xf6,-0xe88(%rbp)
    aca7:	48 8d 85 90 f4 ff ff 	lea    -0xb70(%rbp),%rax
    acae:	48 05 e8 00 00 00    	add    $0xe8,%rax
    acb4:	48 89 85 30 f9 ff ff 	mov    %rax,-0x6d0(%rbp)
    acbb:	48 8d 85 90 f4 ff ff 	lea    -0xb70(%rbp),%rax
    acc2:	48 05 50 01 00 00    	add    $0x150,%rax
    acc8:	48 89 85 38 f9 ff ff 	mov    %rax,-0x6c8(%rbp)
    accf:	48 8d 85 90 f4 ff ff 	lea    -0xb70(%rbp),%rax
    acd6:	48 05 e8 00 00 00    	add    $0xe8,%rax
    acdc:	48 89 85 40 f9 ff ff 	mov    %rax,-0x6c0(%rbp)
    ace3:	48 8d 85 90 f4 ff ff 	lea    -0xb70(%rbp),%rax
    acea:	48 05 e8 00 00 00    	add    $0xe8,%rax
    acf0:	48 89 85 48 f9 ff ff 	mov    %rax,-0x6b8(%rbp)
    acf7:	48 8d 85 90 f4 ff ff 	lea    -0xb70(%rbp),%rax
    acfe:	48 05 50 01 00 00    	add    $0x150,%rax
    ad04:	48 89 85 50 f9 ff ff 	mov    %rax,-0x6b0(%rbp)
    ad0b:	48 8d 85 90 f4 ff ff 	lea    -0xb70(%rbp),%rax
    ad12:	48 05 e8 00 00 00    	add    $0xe8,%rax
    ad18:	48 89 85 58 f9 ff ff 	mov    %rax,-0x6a8(%rbp)
    ad1f:	48 8d 85 90 f4 ff ff 	lea    -0xb70(%rbp),%rax
    ad26:	48 05 e8 00 00 00    	add    $0xe8,%rax
    ad2c:	48 89 85 60 f9 ff ff 	mov    %rax,-0x6a0(%rbp)
    ad33:	48 8d 85 10 f2 ff ff 	lea    -0xdf0(%rbp),%rax
    ad3a:	48 89 85 a0 f2 ff ff 	mov    %rax,-0xd60(%rbp)
    ad41:	8b 05 e9 52 00 00    	mov    0x52e9(%rip),%eax        # 10030 <g_46>
    ad47:	83 c0 01             	add    $0x1,%eax
    ad4a:	89 05 e0 52 00 00    	mov    %eax,0x52e0(%rip)        # 10030 <g_46>
    ad50:	8b 05 da 52 00 00    	mov    0x52da(%rip),%eax        # 10030 <g_46>
    ad56:	83 f8 f4             	cmp    $0xfffffff4,%eax
    ad59:	0f 8d 1b ff ff ff    	jge    ac7a <func_68+0x1217>
    ad5f:	83 ad 8c f1 ff ff 01 	subl   $0x1,-0xe74(%rbp)
    ad66:	83 bd 8c f1 ff ff e5 	cmpl   $0xffffffe5,-0xe74(%rbp)
    ad6d:	0f 8c 50 fe ff ff    	jl     abc3 <func_68+0x1160>
    ad73:	48 8b 85 68 f1 ff ff 	mov    -0xe98(%rbp),%rax
    ad7a:	48 8b 00             	mov    (%rax),%rax
    ad7d:	8b 00                	mov    (%rax),%eax
    ad7f:	eb 0c                	jmp    ad8d <func_68+0x132a>
    ad81:	48 8b 85 68 f1 ff ff 	mov    -0xe98(%rbp),%rax
    ad88:	48 8b 00             	mov    (%rax),%rax
    ad8b:	8b 00                	mov    (%rax),%eax
    ad8d:	48 8b 4d f8          	mov    -0x8(%rbp),%rcx
    ad91:	64 48 33 0c 25 28 00 	xor    %fs:0x28,%rcx
    ad98:	00 00 
    ad9a:	74 05                	je     ada1 <func_68+0x133e>
    ad9c:	e8 cf b2 ff ff       	callq  6070 <__stack_chk_fail@plt>
    ada1:	c9                   	leaveq 
    ada2:	c3                   	retq   

000000000000ada3 <main>:
    ada3:	f3 0f 1e fa          	endbr64 
    ada7:	55                   	push   %rbp
    ada8:	48 89 e5             	mov    %rsp,%rbp
    adab:	48 83 ec 20          	sub    $0x20,%rsp
    adaf:	89 7d ec             	mov    %edi,-0x14(%rbp)
    adb2:	48 89 75 e0          	mov    %rsi,-0x20(%rbp)
    adb6:	c7 45 fc 00 00 00 00 	movl   $0x0,-0x4(%rbp)
    adbd:	83 7d ec 02          	cmpl   $0x2,-0x14(%rbp)
    adc1:	75 25                	jne    ade8 <main+0x45>
    adc3:	48 8b 45 e0          	mov    -0x20(%rbp),%rax
    adc7:	48 83 c0 08          	add    $0x8,%rax
    adcb:	48 8b 00             	mov    (%rax),%rax
    adce:	48 8d 35 2b 1d 00 00 	lea    0x1d2b(%rip),%rsi        # cb00 <g_1458+0xa8c>
    add5:	48 89 c7             	mov    %rax,%rdi
    add8:	e8 b3 b2 ff ff       	callq  6090 <strcmp@plt>
    addd:	85 c0                	test   %eax,%eax
    addf:	75 07                	jne    ade8 <main+0x45>
    ade1:	c7 45 fc 01 00 00 00 	movl   $0x1,-0x4(%rbp)
    ade8:	e8 9c b3 ff ff       	callq  6189 <platform_main_begin>
    aded:	e8 a6 c7 ff ff       	callq  7598 <crc32_gentab>
    adf2:	e8 be c9 ff ff       	callq  77b5 <func_1>
    adf7:	8b 05 27 52 00 00    	mov    0x5227(%rip),%eax        # 10024 <g_32>
    adfd:	48 98                	cltq   
    adff:	8b 55 fc             	mov    -0x4(%rbp),%edx
    ae02:	48 8d 35 f9 1c 00 00 	lea    0x1cf9(%rip),%rsi        # cb02 <g_1458+0xa8e>
    ae09:	48 89 c7             	mov    %rax,%rdi
    ae0c:	e8 e2 c8 ff ff       	callq  76f3 <transparent_crc>
    ae11:	8b 05 19 52 00 00    	mov    0x5219(%rip),%eax        # 10030 <g_46>
    ae17:	48 98                	cltq   
    ae19:	8b 55 fc             	mov    -0x4(%rbp),%edx
    ae1c:	48 8d 35 e4 1c 00 00 	lea    0x1ce4(%rip),%rsi        # cb07 <g_1458+0xa93>
    ae23:	48 89 c7             	mov    %rax,%rdi
    ae26:	e8 c8 c8 ff ff       	callq  76f3 <transparent_crc>
    ae2b:	8b 05 03 52 00 00    	mov    0x5203(%rip),%eax        # 10034 <g_46+0x4>
    ae31:	48 98                	cltq   
    ae33:	8b 55 fc             	mov    -0x4(%rbp),%edx
    ae36:	48 8d 35 d2 1c 00 00 	lea    0x1cd2(%rip),%rsi        # cb0f <g_1458+0xa9b>
    ae3d:	48 89 c7             	mov    %rax,%rdi
    ae40:	e8 ae c8 ff ff       	callq  76f3 <transparent_crc>
    ae45:	8b 05 ed 51 00 00    	mov    0x51ed(%rip),%eax        # 10038 <g_46+0x8>
    ae4b:	25 ff ff 07 00       	and    $0x7ffff,%eax
    ae50:	89 c1                	mov    %eax,%ecx
    ae52:	8b 45 fc             	mov    -0x4(%rbp),%eax
    ae55:	89 c2                	mov    %eax,%edx
    ae57:	48 8d 35 b9 1c 00 00 	lea    0x1cb9(%rip),%rsi        # cb17 <g_1458+0xaa3>
    ae5e:	48 89 cf             	mov    %rcx,%rdi
    ae61:	e8 8d c8 ff ff       	callq  76f3 <transparent_crc>
    ae66:	8b 05 d0 51 00 00    	mov    0x51d0(%rip),%eax        # 1003c <g_46+0xc>
    ae6c:	48 98                	cltq   
    ae6e:	8b 55 fc             	mov    -0x4(%rbp),%edx
    ae71:	48 8d 35 a7 1c 00 00 	lea    0x1ca7(%rip),%rsi        # cb1f <g_1458+0xaab>
    ae78:	48 89 c7             	mov    %rax,%rdi
    ae7b:	e8 73 c8 ff ff       	callq  76f3 <transparent_crc>
    ae80:	8b 05 ba 51 00 00    	mov    0x51ba(%rip),%eax        # 10040 <g_46+0x10>
    ae86:	25 ff ff ff 01       	and    $0x1ffffff,%eax
    ae8b:	89 c1                	mov    %eax,%ecx
    ae8d:	8b 45 fc             	mov    -0x4(%rbp),%eax
    ae90:	89 c2                	mov    %eax,%edx
    ae92:	48 8d 35 8e 1c 00 00 	lea    0x1c8e(%rip),%rsi        # cb27 <g_1458+0xab3>
    ae99:	48 89 cf             	mov    %rcx,%rdi
    ae9c:	e8 52 c8 ff ff       	callq  76f3 <transparent_crc>
    aea1:	0f b6 05 9c 51 00 00 	movzbl 0x519c(%rip),%eax        # 10044 <g_67>
    aea8:	0f b6 c0             	movzbl %al,%eax
    aeab:	8b 55 fc             	mov    -0x4(%rbp),%edx
    aeae:	48 8d 35 7a 1c 00 00 	lea    0x1c7a(%rip),%rsi        # cb2f <g_1458+0xabb>
    aeb5:	48 89 c7             	mov    %rax,%rdi
    aeb8:	e8 36 c8 ff ff       	callq  76f3 <transparent_crc>
    aebd:	0f b6 05 81 51 00 00 	movzbl 0x5181(%rip),%eax        # 10045 <g_84>
    aec4:	0f b6 c0             	movzbl %al,%eax
    aec7:	8b 55 fc             	mov    -0x4(%rbp),%edx
    aeca:	48 8d 35 63 1c 00 00 	lea    0x1c63(%rip),%rsi        # cb34 <g_1458+0xac0>
    aed1:	48 89 c7             	mov    %rax,%rdi
    aed4:	e8 1a c8 ff ff       	callq  76f3 <transparent_crc>
    aed9:	0f b7 05 66 51 00 00 	movzwl 0x5166(%rip),%eax        # 10046 <g_98>
    aee0:	0f b7 c0             	movzwl %ax,%eax
    aee3:	8b 55 fc             	mov    -0x4(%rbp),%edx
    aee6:	48 8d 35 4c 1c 00 00 	lea    0x1c4c(%rip),%rsi        # cb39 <g_1458+0xac5>
    aeed:	48 89 c7             	mov    %rax,%rdi
    aef0:	e8 fe c7 ff ff       	callq  76f3 <transparent_crc>
    aef5:	c7 45 f0 00 00 00 00 	movl   $0x0,-0x10(%rbp)
    aefc:	eb 73                	jmp    af71 <main+0x1ce>
    aefe:	c7 45 f4 00 00 00 00 	movl   $0x0,-0xc(%rbp)
    af05:	eb 60                	jmp    af67 <main+0x1c4>
    af07:	8b 45 f4             	mov    -0xc(%rbp),%eax
    af0a:	48 63 c8             	movslq %eax,%rcx
    af0d:	8b 45 f0             	mov    -0x10(%rbp),%eax
    af10:	48 63 d0             	movslq %eax,%rdx
    af13:	48 89 d0             	mov    %rdx,%rax
    af16:	48 c1 e0 03          	shl    $0x3,%rax
    af1a:	48 01 d0             	add    %rdx,%rax
    af1d:	48 8d 14 08          	lea    (%rax,%rcx,1),%rdx
    af21:	48 8d 05 28 51 00 00 	lea    0x5128(%rip),%rax        # 10050 <g_110>
    af28:	48 01 d0             	add    %rdx,%rax
    af2b:	0f b6 00             	movzbl (%rax),%eax
    af2e:	48 0f be c0          	movsbq %al,%rax
    af32:	8b 55 fc             	mov    -0x4(%rbp),%edx
    af35:	48 8d 35 02 1c 00 00 	lea    0x1c02(%rip),%rsi        # cb3e <g_1458+0xaca>
    af3c:	48 89 c7             	mov    %rax,%rdi
    af3f:	e8 af c7 ff ff       	callq  76f3 <transparent_crc>
    af44:	83 7d fc 00          	cmpl   $0x0,-0x4(%rbp)
    af48:	74 19                	je     af63 <main+0x1c0>
    af4a:	8b 55 f4             	mov    -0xc(%rbp),%edx
    af4d:	8b 45 f0             	mov    -0x10(%rbp),%eax
    af50:	89 c6                	mov    %eax,%esi
    af52:	48 8d 3d f1 1b 00 00 	lea    0x1bf1(%rip),%rdi        # cb4a <g_1458+0xad6>
    af59:	b8 00 00 00 00       	mov    $0x0,%eax
    af5e:	e8 1d b1 ff ff       	callq  6080 <printf@plt>
    af63:	83 45 f4 01          	addl   $0x1,-0xc(%rbp)
    af67:	83 7d f4 08          	cmpl   $0x8,-0xc(%rbp)
    af6b:	7e 9a                	jle    af07 <main+0x164>
    af6d:	83 45 f0 01          	addl   $0x1,-0x10(%rbp)
    af71:	83 7d f0 01          	cmpl   $0x1,-0x10(%rbp)
    af75:	7e 87                	jle    aefe <main+0x15b>
    af77:	c7 45 f0 00 00 00 00 	movl   $0x0,-0x10(%rbp)
    af7e:	eb 46                	jmp    afc6 <main+0x223>
    af80:	8b 45 f0             	mov    -0x10(%rbp),%eax
    af83:	48 98                	cltq   
    af85:	48 8d 15 d6 50 00 00 	lea    0x50d6(%rip),%rdx        # 10062 <g_120>
    af8c:	0f b6 04 10          	movzbl (%rax,%rdx,1),%eax
    af90:	48 0f be c0          	movsbq %al,%rax
    af94:	8b 55 fc             	mov    -0x4(%rbp),%edx
    af97:	48 8d 35 be 1b 00 00 	lea    0x1bbe(%rip),%rsi        # cb5c <g_1458+0xae8>
    af9e:	48 89 c7             	mov    %rax,%rdi
    afa1:	e8 4d c7 ff ff       	callq  76f3 <transparent_crc>
    afa6:	83 7d fc 00          	cmpl   $0x0,-0x4(%rbp)
    afaa:	74 16                	je     afc2 <main+0x21f>
    afac:	8b 45 f0             	mov    -0x10(%rbp),%eax
    afaf:	89 c6                	mov    %eax,%esi
    afb1:	48 8d 3d ad 1b 00 00 	lea    0x1bad(%rip),%rdi        # cb65 <g_1458+0xaf1>
    afb8:	b8 00 00 00 00       	mov    $0x0,%eax
    afbd:	e8 be b0 ff ff       	callq  6080 <printf@plt>
    afc2:	83 45 f0 01          	addl   $0x1,-0x10(%rbp)
    afc6:	83 7d f0 06          	cmpl   $0x6,-0x10(%rbp)
    afca:	7e b4                	jle    af80 <main+0x1dd>
    afcc:	48 8b 05 9d 50 00 00 	mov    0x509d(%rip),%rax        # 10070 <g_153>
    afd3:	48 89 c1             	mov    %rax,%rcx
    afd6:	8b 45 fc             	mov    -0x4(%rbp),%eax
    afd9:	89 c2                	mov    %eax,%edx
    afdb:	48 8d 35 91 1b 00 00 	lea    0x1b91(%rip),%rsi        # cb73 <g_1458+0xaff>
    afe2:	48 89 cf             	mov    %rcx,%rdi
    afe5:	e8 09 c7 ff ff       	callq  76f3 <transparent_crc>
    afea:	8b 05 88 50 00 00    	mov    0x5088(%rip),%eax        # 10078 <g_189>
    aff0:	89 c1                	mov    %eax,%ecx
    aff2:	8b 45 fc             	mov    -0x4(%rbp),%eax
    aff5:	89 c2                	mov    %eax,%edx
    aff7:	48 8d 35 7b 1b 00 00 	lea    0x1b7b(%rip),%rsi        # cb79 <g_1458+0xb05>
    affe:	48 89 cf             	mov    %rcx,%rdi
    b001:	e8 ed c6 ff ff       	callq  76f3 <transparent_crc>
    b006:	c7 45 f0 00 00 00 00 	movl   $0x0,-0x10(%rbp)
    b00d:	eb 45                	jmp    b054 <main+0x2b1>
    b00f:	8b 45 f0             	mov    -0x10(%rbp),%eax
    b012:	48 98                	cltq   
    b014:	48 8d 15 61 50 00 00 	lea    0x5061(%rip),%rdx        # 1007c <g_208>
    b01b:	0f b6 04 10          	movzbl (%rax,%rdx,1),%eax
    b01f:	0f b6 c0             	movzbl %al,%eax
    b022:	8b 55 fc             	mov    -0x4(%rbp),%edx
    b025:	48 8d 35 53 1b 00 00 	lea    0x1b53(%rip),%rsi        # cb7f <g_1458+0xb0b>
    b02c:	48 89 c7             	mov    %rax,%rdi
    b02f:	e8 bf c6 ff ff       	callq  76f3 <transparent_crc>
    b034:	83 7d fc 00          	cmpl   $0x0,-0x4(%rbp)
    b038:	74 16                	je     b050 <main+0x2ad>
    b03a:	8b 45 f0             	mov    -0x10(%rbp),%eax
    b03d:	89 c6                	mov    %eax,%esi
    b03f:	48 8d 3d 1f 1b 00 00 	lea    0x1b1f(%rip),%rdi        # cb65 <g_1458+0xaf1>
    b046:	b8 00 00 00 00       	mov    $0x0,%eax
    b04b:	e8 30 b0 ff ff       	callq  6080 <printf@plt>
    b050:	83 45 f0 01          	addl   $0x1,-0x10(%rbp)
    b054:	83 7d f0 01          	cmpl   $0x1,-0x10(%rbp)
    b058:	7e b5                	jle    b00f <main+0x26c>
    b05a:	0f b6 05 1f 50 00 00 	movzbl 0x501f(%rip),%eax        # 10080 <g_209>
    b061:	48 0f be c0          	movsbq %al,%rax
    b065:	8b 55 fc             	mov    -0x4(%rbp),%edx
    b068:	48 8d 35 1c 1b 00 00 	lea    0x1b1c(%rip),%rsi        # cb8b <g_1458+0xb17>
    b06f:	48 89 c7             	mov    %rax,%rdi
    b072:	e8 7c c6 ff ff       	callq  76f3 <transparent_crc>
    b077:	0f b6 05 2a 7d 00 00 	movzbl 0x7d2a(%rip),%eax        # 12da8 <g_220>
    b07e:	48 0f be c0          	movsbq %al,%rax
    b082:	8b 55 fc             	mov    -0x4(%rbp),%edx
    b085:	48 8d 35 08 1b 00 00 	lea    0x1b08(%rip),%rsi        # cb94 <g_1458+0xb20>
    b08c:	48 89 c7             	mov    %rax,%rdi
    b08f:	e8 5f c6 ff ff       	callq  76f3 <transparent_crc>
    b094:	0f b6 05 e9 4f 00 00 	movzbl 0x4fe9(%rip),%eax        # 10084 <g_222>
    b09b:	48 0f be c0          	movsbq %al,%rax
    b09f:	8b 55 fc             	mov    -0x4(%rbp),%edx
    b0a2:	48 8d 35 f4 1a 00 00 	lea    0x1af4(%rip),%rsi        # cb9d <g_1458+0xb29>
    b0a9:	48 89 c7             	mov    %rax,%rdi
    b0ac:	e8 42 c6 ff ff       	callq  76f3 <transparent_crc>
    b0b1:	8b 05 d1 4f 00 00    	mov    0x4fd1(%rip),%eax        # 10088 <g_226>
    b0b7:	89 c1                	mov    %eax,%ecx
    b0b9:	8b 45 fc             	mov    -0x4(%rbp),%eax
    b0bc:	89 c2                	mov    %eax,%edx
    b0be:	48 8d 35 e1 1a 00 00 	lea    0x1ae1(%rip),%rsi        # cba6 <g_1458+0xb32>
    b0c5:	48 89 cf             	mov    %rcx,%rdi
    b0c8:	e8 26 c6 ff ff       	callq  76f3 <transparent_crc>
    b0cd:	8b 05 b9 4f 00 00    	mov    0x4fb9(%rip),%eax        # 1008c <g_230>
    b0d3:	89 c1                	mov    %eax,%ecx
    b0d5:	8b 45 fc             	mov    -0x4(%rbp),%eax
    b0d8:	89 c2                	mov    %eax,%edx
    b0da:	48 8d 35 cb 1a 00 00 	lea    0x1acb(%rip),%rsi        # cbac <g_1458+0xb38>
    b0e1:	48 89 cf             	mov    %rcx,%rdi
    b0e4:	e8 0a c6 ff ff       	callq  76f3 <transparent_crc>
    b0e9:	c7 45 f0 00 00 00 00 	movl   $0x0,-0x10(%rbp)
    b0f0:	e9 b7 00 00 00       	jmpq   b1ac <main+0x409>
    b0f5:	c7 45 f4 00 00 00 00 	movl   $0x0,-0xc(%rbp)
    b0fc:	e9 9d 00 00 00       	jmpq   b19e <main+0x3fb>
    b101:	c7 45 f8 00 00 00 00 	movl   $0x0,-0x8(%rbp)
    b108:	e9 83 00 00 00       	jmpq   b190 <main+0x3ed>
    b10d:	8b 45 f8             	mov    -0x8(%rbp),%eax
    b110:	48 63 f0             	movslq %eax,%rsi
    b113:	8b 45 f0             	mov    -0x10(%rbp),%eax
    b116:	48 98                	cltq   
    b118:	8b 55 f4             	mov    -0xc(%rbp),%edx
    b11b:	48 63 ca             	movslq %edx,%rcx
    b11e:	48 89 c2             	mov    %rax,%rdx
    b121:	48 c1 e2 04          	shl    $0x4,%rdx
    b125:	48 29 c2             	sub    %rax,%rdx
    b128:	48 8d 04 95 00 00 00 	lea    0x0(,%rdx,4),%rax
    b12f:	00 
    b130:	48 89 c2             	mov    %rax,%rdx
    b133:	48 89 c8             	mov    %rcx,%rax
    b136:	48 01 c0             	add    %rax,%rax
    b139:	48 01 c8             	add    %rcx,%rax
    b13c:	48 01 c0             	add    %rax,%rax
    b13f:	48 01 d0             	add    %rdx,%rax
    b142:	48 01 f0             	add    %rsi,%rax
    b145:	48 8d 14 00          	lea    (%rax,%rax,1),%rdx
    b149:	48 8d 05 50 4f 00 00 	lea    0x4f50(%rip),%rax        # 100a0 <g_251>
    b150:	0f b7 04 02          	movzwl (%rdx,%rax,1),%eax
    b154:	48 0f bf c0          	movswq %ax,%rax
    b158:	8b 55 fc             	mov    -0x4(%rbp),%edx
    b15b:	48 8d 35 50 1a 00 00 	lea    0x1a50(%rip),%rsi        # cbb2 <g_1458+0xb3e>
    b162:	48 89 c7             	mov    %rax,%rdi
    b165:	e8 89 c5 ff ff       	callq  76f3 <transparent_crc>
    b16a:	83 7d fc 00          	cmpl   $0x0,-0x4(%rbp)
    b16e:	74 1c                	je     b18c <main+0x3e9>
    b170:	8b 4d f8             	mov    -0x8(%rbp),%ecx
    b173:	8b 55 f4             	mov    -0xc(%rbp),%edx
    b176:	8b 45 f0             	mov    -0x10(%rbp),%eax
    b179:	89 c6                	mov    %eax,%esi
    b17b:	48 8d 3d 3f 1a 00 00 	lea    0x1a3f(%rip),%rdi        # cbc1 <g_1458+0xb4d>
    b182:	b8 00 00 00 00       	mov    $0x0,%eax
    b187:	e8 f4 ae ff ff       	callq  6080 <printf@plt>
    b18c:	83 45 f8 01          	addl   $0x1,-0x8(%rbp)
    b190:	83 7d f8 05          	cmpl   $0x5,-0x8(%rbp)
    b194:	0f 8e 73 ff ff ff    	jle    b10d <main+0x36a>
    b19a:	83 45 f4 01          	addl   $0x1,-0xc(%rbp)
    b19e:	83 7d f4 09          	cmpl   $0x9,-0xc(%rbp)
    b1a2:	0f 8e 59 ff ff ff    	jle    b101 <main+0x35e>
    b1a8:	83 45 f0 01          	addl   $0x1,-0x10(%rbp)
    b1ac:	83 7d f0 03          	cmpl   $0x3,-0x10(%rbp)
    b1b0:	0f 8e 3f ff ff ff    	jle    b0f5 <main+0x352>
    b1b6:	0f b6 05 c3 50 00 00 	movzbl 0x50c3(%rip),%eax        # 10280 <g_254>
    b1bd:	0f b6 c0             	movzbl %al,%eax
    b1c0:	8b 55 fc             	mov    -0x4(%rbp),%edx
    b1c3:	48 8d 35 0d 1a 00 00 	lea    0x1a0d(%rip),%rsi        # cbd7 <g_1458+0xb63>
    b1ca:	48 89 c7             	mov    %rax,%rdi
    b1cd:	e8 21 c5 ff ff       	callq  76f3 <transparent_crc>
    b1d2:	0f b7 05 a9 50 00 00 	movzwl 0x50a9(%rip),%eax        # 10282 <g_260>
    b1d9:	48 0f bf c0          	movswq %ax,%rax
    b1dd:	8b 55 fc             	mov    -0x4(%rbp),%edx
    b1e0:	48 8d 35 f9 19 00 00 	lea    0x19f9(%rip),%rsi        # cbe0 <g_1458+0xb6c>
    b1e7:	48 89 c7             	mov    %rax,%rdi
    b1ea:	e8 04 c5 ff ff       	callq  76f3 <transparent_crc>
    b1ef:	48 8b 05 92 50 00 00 	mov    0x5092(%rip),%rax        # 10288 <g_279>
    b1f6:	48 89 c1             	mov    %rax,%rcx
    b1f9:	8b 45 fc             	mov    -0x4(%rbp),%eax
    b1fc:	89 c2                	mov    %eax,%edx
    b1fe:	48 8d 35 e1 19 00 00 	lea    0x19e1(%rip),%rsi        # cbe6 <g_1458+0xb72>
    b205:	48 89 cf             	mov    %rcx,%rdi
    b208:	e8 e6 c4 ff ff       	callq  76f3 <transparent_crc>
    b20d:	48 8b 05 9c 7b 00 00 	mov    0x7b9c(%rip),%rax        # 12db0 <g_330>
    b214:	48 89 c1             	mov    %rax,%rcx
    b217:	8b 45 fc             	mov    -0x4(%rbp),%eax
    b21a:	89 c2                	mov    %eax,%edx
    b21c:	48 8d 35 c9 19 00 00 	lea    0x19c9(%rip),%rsi        # cbec <g_1458+0xb78>
    b223:	48 89 cf             	mov    %rcx,%rdi
    b226:	e8 c8 c4 ff ff       	callq  76f3 <transparent_crc>
    b22b:	8b 05 5f 50 00 00    	mov    0x505f(%rip),%eax        # 10290 <g_370>
    b231:	89 c1                	mov    %eax,%ecx
    b233:	8b 45 fc             	mov    -0x4(%rbp),%eax
    b236:	89 c2                	mov    %eax,%edx
    b238:	48 8d 35 b3 19 00 00 	lea    0x19b3(%rip),%rsi        # cbf2 <g_1458+0xb7e>
    b23f:	48 89 cf             	mov    %rcx,%rdi
    b242:	e8 ac c4 ff ff       	callq  76f3 <transparent_crc>
    b247:	8b 05 6b 7b 00 00    	mov    0x7b6b(%rip),%eax        # 12db8 <g_409>
    b24d:	89 c1                	mov    %eax,%ecx
    b24f:	8b 45 fc             	mov    -0x4(%rbp),%eax
    b252:	89 c2                	mov    %eax,%edx
    b254:	48 8d 35 9d 19 00 00 	lea    0x199d(%rip),%rsi        # cbf8 <g_1458+0xb84>
    b25b:	48 89 cf             	mov    %rcx,%rdi
    b25e:	e8 90 c4 ff ff       	callq  76f3 <transparent_crc>
    b263:	8b 05 2b 50 00 00    	mov    0x502b(%rip),%eax        # 10294 <g_418>
    b269:	89 c1                	mov    %eax,%ecx
    b26b:	8b 45 fc             	mov    -0x4(%rbp),%eax
    b26e:	89 c2                	mov    %eax,%edx
    b270:	48 8d 35 87 19 00 00 	lea    0x1987(%rip),%rsi        # cbfe <g_1458+0xb8a>
    b277:	48 89 cf             	mov    %rcx,%rdi
    b27a:	e8 74 c4 ff ff       	callq  76f3 <transparent_crc>
    b27f:	0f b6 05 12 50 00 00 	movzbl 0x5012(%rip),%eax        # 10298 <g_454>
    b286:	0f b6 c0             	movzbl %al,%eax
    b289:	8b 55 fc             	mov    -0x4(%rbp),%edx
    b28c:	48 8d 35 71 19 00 00 	lea    0x1971(%rip),%rsi        # cc04 <g_1458+0xb90>
    b293:	48 89 c7             	mov    %rax,%rdi
    b296:	e8 58 c4 ff ff       	callq  76f3 <transparent_crc>
    b29b:	c7 45 f0 00 00 00 00 	movl   $0x0,-0x10(%rbp)
    b2a2:	e9 b8 00 00 00       	jmpq   b35f <main+0x5bc>
    b2a7:	c7 45 f4 00 00 00 00 	movl   $0x0,-0xc(%rbp)
    b2ae:	e9 9e 00 00 00       	jmpq   b351 <main+0x5ae>
    b2b3:	c7 45 f8 00 00 00 00 	movl   $0x0,-0x8(%rbp)
    b2ba:	e9 84 00 00 00       	jmpq   b343 <main+0x5a0>
    b2bf:	8b 45 f8             	mov    -0x8(%rbp),%eax
    b2c2:	48 63 f0             	movslq %eax,%rsi
    b2c5:	8b 45 f0             	mov    -0x10(%rbp),%eax
    b2c8:	48 63 d0             	movslq %eax,%rdx
    b2cb:	8b 45 f4             	mov    -0xc(%rbp),%eax
    b2ce:	48 63 c8             	movslq %eax,%rcx
    b2d1:	48 89 d0             	mov    %rdx,%rax
    b2d4:	48 01 c0             	add    %rax,%rax
    b2d7:	48 01 d0             	add    %rdx,%rax
    b2da:	48 89 c2             	mov    %rax,%rdx
    b2dd:	48 c1 e2 04          	shl    $0x4,%rdx
    b2e1:	48 29 c2             	sub    %rax,%rdx
    b2e4:	48 89 c8             	mov    %rcx,%rax
    b2e7:	48 c1 e0 02          	shl    $0x2,%rax
    b2eb:	48 01 c8             	add    %rcx,%rax
    b2ee:	48 01 d0             	add    %rdx,%rax
    b2f1:	48 01 f0             	add    %rsi,%rax
    b2f4:	48 8d 14 85 00 00 00 	lea    0x0(,%rax,4),%rdx
    b2fb:	00 
    b2fc:	48 8d 05 9d 4f 00 00 	lea    0x4f9d(%rip),%rax        # 102a0 <g_475>
    b303:	0f b6 04 02          	movzbl (%rdx,%rax,1),%eax
    b307:	48 0f be c0          	movsbq %al,%rax
    b30b:	8b 55 fc             	mov    -0x4(%rbp),%edx
    b30e:	48 8d 35 f8 18 00 00 	lea    0x18f8(%rip),%rsi        # cc0d <g_1458+0xb99>
    b315:	48 89 c7             	mov    %rax,%rdi
    b318:	e8 d6 c3 ff ff       	callq  76f3 <transparent_crc>
    b31d:	83 7d fc 00          	cmpl   $0x0,-0x4(%rbp)
    b321:	74 1c                	je     b33f <main+0x59c>
    b323:	8b 4d f8             	mov    -0x8(%rbp),%ecx
    b326:	8b 55 f4             	mov    -0xc(%rbp),%edx
    b329:	8b 45 f0             	mov    -0x10(%rbp),%eax
    b32c:	89 c6                	mov    %eax,%esi
    b32e:	48 8d 3d 8c 18 00 00 	lea    0x188c(%rip),%rdi        # cbc1 <g_1458+0xb4d>
    b335:	b8 00 00 00 00       	mov    $0x0,%eax
    b33a:	e8 41 ad ff ff       	callq  6080 <printf@plt>
    b33f:	83 45 f8 01          	addl   $0x1,-0x8(%rbp)
    b343:	83 7d f8 04          	cmpl   $0x4,-0x8(%rbp)
    b347:	0f 8e 72 ff ff ff    	jle    b2bf <main+0x51c>
    b34d:	83 45 f4 01          	addl   $0x1,-0xc(%rbp)
    b351:	83 7d f4 08          	cmpl   $0x8,-0xc(%rbp)
    b355:	0f 8e 58 ff ff ff    	jle    b2b3 <main+0x510>
    b35b:	83 45 f0 01          	addl   $0x1,-0x10(%rbp)
    b35f:	83 7d f0 04          	cmpl   $0x4,-0x10(%rbp)
    b363:	0f 8e 3e ff ff ff    	jle    b2a7 <main+0x504>
    b369:	0f b6 05 b4 52 00 00 	movzbl 0x52b4(%rip),%eax        # 10624 <g_491>
    b370:	0f b6 c0             	movzbl %al,%eax
    b373:	8b 55 fc             	mov    -0x4(%rbp),%edx
    b376:	48 8d 35 a2 18 00 00 	lea    0x18a2(%rip),%rsi        # cc1f <g_1458+0xbab>
    b37d:	48 89 c7             	mov    %rax,%rdi
    b380:	e8 6e c3 ff ff       	callq  76f3 <transparent_crc>
    b385:	b8 19 1d 11 6b       	mov    $0x6b111d19,%eax
    b38a:	48 98                	cltq   
    b38c:	8b 55 fc             	mov    -0x4(%rbp),%edx
    b38f:	48 8d 35 92 18 00 00 	lea    0x1892(%rip),%rsi        # cc28 <g_1458+0xbb4>
    b396:	48 89 c7             	mov    %rax,%rdi
    b399:	e8 55 c3 ff ff       	callq  76f3 <transparent_crc>
    b39e:	b8 25 82 f5 62       	mov    $0x62f58225,%eax
    b3a3:	48 98                	cltq   
    b3a5:	8b 55 fc             	mov    -0x4(%rbp),%edx
    b3a8:	48 8d 35 82 18 00 00 	lea    0x1882(%rip),%rsi        # cc31 <g_1458+0xbbd>
    b3af:	48 89 c7             	mov    %rax,%rdi
    b3b2:	e8 3c c3 ff ff       	callq  76f3 <transparent_crc>
    b3b7:	b8 37 01 00 00       	mov    $0x137,%eax
    b3bc:	89 c1                	mov    %eax,%ecx
    b3be:	8b 45 fc             	mov    -0x4(%rbp),%eax
    b3c1:	89 c2                	mov    %eax,%edx
    b3c3:	48 8d 35 70 18 00 00 	lea    0x1870(%rip),%rsi        # cc3a <g_1458+0xbc6>
    b3ca:	48 89 cf             	mov    %rcx,%rdi
    b3cd:	e8 21 c3 ff ff       	callq  76f3 <transparent_crc>
    b3d2:	b8 c6 5e c2 70       	mov    $0x70c25ec6,%eax
    b3d7:	48 98                	cltq   
    b3d9:	8b 55 fc             	mov    -0x4(%rbp),%edx
    b3dc:	48 8d 35 60 18 00 00 	lea    0x1860(%rip),%rsi        # cc43 <g_1458+0xbcf>
    b3e3:	48 89 c7             	mov    %rax,%rdi
    b3e6:	e8 08 c3 ff ff       	callq  76f3 <transparent_crc>
    b3eb:	b8 bd 13 00 00       	mov    $0x13bd,%eax
    b3f0:	89 c1                	mov    %eax,%ecx
    b3f2:	8b 45 fc             	mov    -0x4(%rbp),%eax
    b3f5:	89 c2                	mov    %eax,%edx
    b3f7:	48 8d 35 4e 18 00 00 	lea    0x184e(%rip),%rsi        # cc4c <g_1458+0xbd8>
    b3fe:	48 89 cf             	mov    %rcx,%rdi
    b401:	e8 ed c2 ff ff       	callq  76f3 <transparent_crc>
    b406:	c7 45 f0 00 00 00 00 	movl   $0x0,-0x10(%rbp)
    b40d:	e9 38 01 00 00       	jmpq   b54a <main+0x7a7>
    b412:	8b 45 f0             	mov    -0x10(%rbp),%eax
    b415:	48 63 d0             	movslq %eax,%rdx
    b418:	48 89 d0             	mov    %rdx,%rax
    b41b:	48 c1 e0 02          	shl    $0x2,%rax
    b41f:	48 01 d0             	add    %rdx,%rax
    b422:	48 c1 e0 02          	shl    $0x2,%rax
    b426:	48 89 c2             	mov    %rax,%rdx
    b429:	48 8d 05 10 52 00 00 	lea    0x5210(%rip),%rax        # 10640 <g_504>
    b430:	8b 04 02             	mov    (%rdx,%rax,1),%eax
    b433:	48 98                	cltq   
    b435:	8b 55 fc             	mov    -0x4(%rbp),%edx
    b438:	48 8d 35 16 18 00 00 	lea    0x1816(%rip),%rsi        # cc55 <g_1458+0xbe1>
    b43f:	48 89 c7             	mov    %rax,%rdi
    b442:	e8 ac c2 ff ff       	callq  76f3 <transparent_crc>
    b447:	8b 45 f0             	mov    -0x10(%rbp),%eax
    b44a:	48 63 d0             	movslq %eax,%rdx
    b44d:	48 89 d0             	mov    %rdx,%rax
    b450:	48 c1 e0 02          	shl    $0x2,%rax
    b454:	48 01 d0             	add    %rdx,%rax
    b457:	48 c1 e0 02          	shl    $0x2,%rax
    b45b:	48 89 c2             	mov    %rax,%rdx
    b45e:	48 8d 05 df 51 00 00 	lea    0x51df(%rip),%rax        # 10644 <g_504+0x4>
    b465:	8b 04 02             	mov    (%rdx,%rax,1),%eax
    b468:	48 98                	cltq   
    b46a:	8b 55 fc             	mov    -0x4(%rbp),%edx
    b46d:	48 8d 35 ed 17 00 00 	lea    0x17ed(%rip),%rsi        # cc61 <g_1458+0xbed>
    b474:	48 89 c7             	mov    %rax,%rdi
    b477:	e8 77 c2 ff ff       	callq  76f3 <transparent_crc>
    b47c:	8b 45 f0             	mov    -0x10(%rbp),%eax
    b47f:	48 63 d0             	movslq %eax,%rdx
    b482:	48 89 d0             	mov    %rdx,%rax
    b485:	48 c1 e0 02          	shl    $0x2,%rax
    b489:	48 01 d0             	add    %rdx,%rax
    b48c:	48 c1 e0 02          	shl    $0x2,%rax
    b490:	48 89 c2             	mov    %rax,%rdx
    b493:	48 8d 05 a6 51 00 00 	lea    0x51a6(%rip),%rax        # 10640 <g_504>
    b49a:	8b 44 02 08          	mov    0x8(%rdx,%rax,1),%eax
    b49e:	25 ff ff 07 00       	and    $0x7ffff,%eax
    b4a3:	89 c1                	mov    %eax,%ecx
    b4a5:	8b 45 fc             	mov    -0x4(%rbp),%eax
    b4a8:	89 c2                	mov    %eax,%edx
    b4aa:	48 8d 35 bc 17 00 00 	lea    0x17bc(%rip),%rsi        # cc6d <g_1458+0xbf9>
    b4b1:	48 89 cf             	mov    %rcx,%rdi
    b4b4:	e8 3a c2 ff ff       	callq  76f3 <transparent_crc>
    b4b9:	8b 45 f0             	mov    -0x10(%rbp),%eax
    b4bc:	48 63 d0             	movslq %eax,%rdx
    b4bf:	48 89 d0             	mov    %rdx,%rax
    b4c2:	48 c1 e0 02          	shl    $0x2,%rax
    b4c6:	48 01 d0             	add    %rdx,%rax
    b4c9:	48 c1 e0 02          	shl    $0x2,%rax
    b4cd:	48 89 c2             	mov    %rax,%rdx
    b4d0:	48 8d 05 75 51 00 00 	lea    0x5175(%rip),%rax        # 1064c <g_504+0xc>
    b4d7:	8b 04 02             	mov    (%rdx,%rax,1),%eax
    b4da:	48 98                	cltq   
    b4dc:	8b 55 fc             	mov    -0x4(%rbp),%edx
    b4df:	48 8d 35 93 17 00 00 	lea    0x1793(%rip),%rsi        # cc79 <g_1458+0xc05>
    b4e6:	48 89 c7             	mov    %rax,%rdi
    b4e9:	e8 05 c2 ff ff       	callq  76f3 <transparent_crc>
    b4ee:	8b 45 f0             	mov    -0x10(%rbp),%eax
    b4f1:	48 63 d0             	movslq %eax,%rdx
    b4f4:	48 89 d0             	mov    %rdx,%rax
    b4f7:	48 c1 e0 02          	shl    $0x2,%rax
    b4fb:	48 01 d0             	add    %rdx,%rax
    b4fe:	48 c1 e0 02          	shl    $0x2,%rax
    b502:	48 89 c2             	mov    %rax,%rdx
    b505:	48 8d 05 44 51 00 00 	lea    0x5144(%rip),%rax        # 10650 <g_504+0x10>
    b50c:	8b 04 02             	mov    (%rdx,%rax,1),%eax
    b50f:	25 ff ff ff 01       	and    $0x1ffffff,%eax
    b514:	89 c1                	mov    %eax,%ecx
    b516:	8b 45 fc             	mov    -0x4(%rbp),%eax
    b519:	89 c2                	mov    %eax,%edx
    b51b:	48 8d 35 63 17 00 00 	lea    0x1763(%rip),%rsi        # cc85 <g_1458+0xc11>
    b522:	48 89 cf             	mov    %rcx,%rdi
    b525:	e8 c9 c1 ff ff       	callq  76f3 <transparent_crc>
    b52a:	83 7d fc 00          	cmpl   $0x0,-0x4(%rbp)
    b52e:	74 16                	je     b546 <main+0x7a3>
    b530:	8b 45 f0             	mov    -0x10(%rbp),%eax
    b533:	89 c6                	mov    %eax,%esi
    b535:	48 8d 3d 29 16 00 00 	lea    0x1629(%rip),%rdi        # cb65 <g_1458+0xaf1>
    b53c:	b8 00 00 00 00       	mov    $0x0,%eax
    b541:	e8 3a ab ff ff       	callq  6080 <printf@plt>
    b546:	83 45 f0 01          	addl   $0x1,-0x10(%rbp)
    b54a:	83 7d f0 05          	cmpl   $0x5,-0x10(%rbp)
    b54e:	0f 8e be fe ff ff    	jle    b412 <main+0x66f>
    b554:	0f b6 05 5d 51 00 00 	movzbl 0x515d(%rip),%eax        # 106b8 <g_542>
    b55b:	0f b6 c0             	movzbl %al,%eax
    b55e:	8b 55 fc             	mov    -0x4(%rbp),%edx
    b561:	48 8d 35 29 17 00 00 	lea    0x1729(%rip),%rsi        # cc91 <g_1458+0xc1d>
    b568:	48 89 c7             	mov    %rax,%rdi
    b56b:	e8 83 c1 ff ff       	callq  76f3 <transparent_crc>
    b570:	0f b6 05 42 51 00 00 	movzbl 0x5142(%rip),%eax        # 106b9 <g_565>
    b577:	0f b6 c0             	movzbl %al,%eax
    b57a:	8b 55 fc             	mov    -0x4(%rbp),%edx
    b57d:	48 8d 35 13 17 00 00 	lea    0x1713(%rip),%rsi        # cc97 <g_1458+0xc23>
    b584:	48 89 c7             	mov    %rax,%rdi
    b587:	e8 67 c1 ff ff       	callq  76f3 <transparent_crc>
    b58c:	48 8b 05 35 51 00 00 	mov    0x5135(%rip),%rax        # 106c8 <g_805>
    b593:	8b 55 fc             	mov    -0x4(%rbp),%edx
    b596:	48 8d 35 03 17 00 00 	lea    0x1703(%rip),%rsi        # cca0 <g_1458+0xc2c>
    b59d:	48 89 c7             	mov    %rax,%rdi
    b5a0:	e8 4e c1 ff ff       	callq  76f3 <transparent_crc>
    b5a5:	0f b6 05 24 51 00 00 	movzbl 0x5124(%rip),%eax        # 106d0 <g_887>
    b5ac:	48 0f be c0          	movsbq %al,%rax
    b5b0:	8b 55 fc             	mov    -0x4(%rbp),%edx
    b5b3:	48 8d 35 ec 16 00 00 	lea    0x16ec(%rip),%rsi        # cca6 <g_1458+0xc32>
    b5ba:	48 89 c7             	mov    %rax,%rdi
    b5bd:	e8 31 c1 ff ff       	callq  76f3 <transparent_crc>
    b5c2:	0f b6 05 0b 51 00 00 	movzbl 0x510b(%rip),%eax        # 106d4 <g_904>
    b5c9:	0f b6 c0             	movzbl %al,%eax
    b5cc:	8b 55 fc             	mov    -0x4(%rbp),%edx
    b5cf:	48 8d 35 d9 16 00 00 	lea    0x16d9(%rip),%rsi        # ccaf <g_1458+0xc3b>
    b5d6:	48 89 c7             	mov    %rax,%rdi
    b5d9:	e8 15 c1 ff ff       	callq  76f3 <transparent_crc>
    b5de:	0f b6 05 f3 50 00 00 	movzbl 0x50f3(%rip),%eax        # 106d8 <g_951>
    b5e5:	48 0f be c0          	movsbq %al,%rax
    b5e9:	8b 55 fc             	mov    -0x4(%rbp),%edx
    b5ec:	48 8d 35 c5 16 00 00 	lea    0x16c5(%rip),%rsi        # ccb8 <g_1458+0xc44>
    b5f3:	48 89 c7             	mov    %rax,%rdi
    b5f6:	e8 f8 c0 ff ff       	callq  76f3 <transparent_crc>
    b5fb:	0f b6 05 da 50 00 00 	movzbl 0x50da(%rip),%eax        # 106dc <g_952>
    b602:	0f b6 c0             	movzbl %al,%eax
    b605:	8b 55 fc             	mov    -0x4(%rbp),%edx
    b608:	48 8d 35 b2 16 00 00 	lea    0x16b2(%rip),%rsi        # ccc1 <g_1458+0xc4d>
    b60f:	48 89 c7             	mov    %rax,%rdi
    b612:	e8 dc c0 ff ff       	callq  76f3 <transparent_crc>
    b617:	0f b6 05 bf 50 00 00 	movzbl 0x50bf(%rip),%eax        # 106dd <g_978>
    b61e:	0f b6 c0             	movzbl %al,%eax
    b621:	8b 55 fc             	mov    -0x4(%rbp),%edx
    b624:	48 8d 35 9f 16 00 00 	lea    0x169f(%rip),%rsi        # ccca <g_1458+0xc56>
    b62b:	48 89 c7             	mov    %rax,%rdi
    b62e:	e8 c0 c0 ff ff       	callq  76f3 <transparent_crc>
    b633:	0f b6 05 a4 50 00 00 	movzbl 0x50a4(%rip),%eax        # 106de <g_980>
    b63a:	0f b6 c0             	movzbl %al,%eax
    b63d:	8b 55 fc             	mov    -0x4(%rbp),%edx
    b640:	48 8d 35 8c 16 00 00 	lea    0x168c(%rip),%rsi        # ccd3 <g_1458+0xc5f>
    b647:	48 89 c7             	mov    %rax,%rdi
    b64a:	e8 a4 c0 ff ff       	callq  76f3 <transparent_crc>
    b64f:	c7 45 f0 00 00 00 00 	movl   $0x0,-0x10(%rbp)
    b656:	e9 a4 00 00 00       	jmpq   b6ff <main+0x95c>
    b65b:	c7 45 f4 00 00 00 00 	movl   $0x0,-0xc(%rbp)
    b662:	e9 8a 00 00 00       	jmpq   b6f1 <main+0x94e>
    b667:	c7 45 f8 00 00 00 00 	movl   $0x0,-0x8(%rbp)
    b66e:	eb 77                	jmp    b6e7 <main+0x944>
    b670:	8b 45 f8             	mov    -0x8(%rbp),%eax
    b673:	48 63 f0             	movslq %eax,%rsi
    b676:	8b 45 f0             	mov    -0x10(%rbp),%eax
    b679:	48 63 d0             	movslq %eax,%rdx
    b67c:	8b 45 f4             	mov    -0xc(%rbp),%eax
    b67f:	48 63 c8             	movslq %eax,%rcx
    b682:	48 89 d0             	mov    %rdx,%rax
    b685:	48 01 c0             	add    %rax,%rax
    b688:	48 01 d0             	add    %rdx,%rax
    b68b:	48 c1 e0 02          	shl    $0x2,%rax
    b68f:	48 89 ca             	mov    %rcx,%rdx
    b692:	48 01 d2             	add    %rdx,%rdx
    b695:	48 01 ca             	add    %rcx,%rdx
    b698:	48 01 d0             	add    %rdx,%rax
    b69b:	48 8d 14 30          	lea    (%rax,%rsi,1),%rdx
    b69f:	48 8d 05 3a 50 00 00 	lea    0x503a(%rip),%rax        # 106e0 <g_981>
    b6a6:	48 01 d0             	add    %rdx,%rax
    b6a9:	0f b6 00             	movzbl (%rax),%eax
    b6ac:	0f b6 c0             	movzbl %al,%eax
    b6af:	8b 55 fc             	mov    -0x4(%rbp),%edx
    b6b2:	48 8d 35 23 16 00 00 	lea    0x1623(%rip),%rsi        # ccdc <g_1458+0xc68>
    b6b9:	48 89 c7             	mov    %rax,%rdi
    b6bc:	e8 32 c0 ff ff       	callq  76f3 <transparent_crc>
    b6c1:	83 7d fc 00          	cmpl   $0x0,-0x4(%rbp)
    b6c5:	74 1c                	je     b6e3 <main+0x940>
    b6c7:	8b 4d f8             	mov    -0x8(%rbp),%ecx
    b6ca:	8b 55 f4             	mov    -0xc(%rbp),%edx
    b6cd:	8b 45 f0             	mov    -0x10(%rbp),%eax
    b6d0:	89 c6                	mov    %eax,%esi
    b6d2:	48 8d 3d e8 14 00 00 	lea    0x14e8(%rip),%rdi        # cbc1 <g_1458+0xb4d>
    b6d9:	b8 00 00 00 00       	mov    $0x0,%eax
    b6de:	e8 9d a9 ff ff       	callq  6080 <printf@plt>
    b6e3:	83 45 f8 01          	addl   $0x1,-0x8(%rbp)
    b6e7:	83 7d f8 02          	cmpl   $0x2,-0x8(%rbp)
    b6eb:	7e 83                	jle    b670 <main+0x8cd>
    b6ed:	83 45 f4 01          	addl   $0x1,-0xc(%rbp)
    b6f1:	83 7d f4 03          	cmpl   $0x3,-0xc(%rbp)
    b6f5:	0f 8e 6c ff ff ff    	jle    b667 <main+0x8c4>
    b6fb:	83 45 f0 01          	addl   $0x1,-0x10(%rbp)
    b6ff:	83 7d f0 00          	cmpl   $0x0,-0x10(%rbp)
    b703:	0f 8e 52 ff ff ff    	jle    b65b <main+0x8b8>
    b709:	0f b7 05 dc 4f 00 00 	movzwl 0x4fdc(%rip),%eax        # 106ec <g_1071>
    b710:	0f b7 c0             	movzwl %ax,%eax
    b713:	8b 55 fc             	mov    -0x4(%rbp),%edx
    b716:	48 8d 35 d1 15 00 00 	lea    0x15d1(%rip),%rsi        # ccee <g_1458+0xc7a>
    b71d:	48 89 c7             	mov    %rax,%rdi
    b720:	e8 ce bf ff ff       	callq  76f3 <transparent_crc>
    b725:	48 8b 05 c4 4f 00 00 	mov    0x4fc4(%rip),%rax        # 106f0 <g_1196>
    b72c:	48 89 c1             	mov    %rax,%rcx
    b72f:	8b 45 fc             	mov    -0x4(%rbp),%eax
    b732:	89 c2                	mov    %eax,%edx
    b734:	48 8d 35 ba 15 00 00 	lea    0x15ba(%rip),%rsi        # ccf5 <g_1458+0xc81>
    b73b:	48 89 cf             	mov    %rcx,%rdi
    b73e:	e8 b0 bf ff ff       	callq  76f3 <transparent_crc>
    b743:	c7 45 f0 00 00 00 00 	movl   $0x0,-0x10(%rbp)
    b74a:	eb 74                	jmp    b7c0 <main+0xa1d>
    b74c:	c7 45 f4 00 00 00 00 	movl   $0x0,-0xc(%rbp)
    b753:	eb 61                	jmp    b7b6 <main+0xa13>
    b755:	8b 45 f4             	mov    -0xc(%rbp),%eax
    b758:	48 63 c8             	movslq %eax,%rcx
    b75b:	8b 45 f0             	mov    -0x10(%rbp),%eax
    b75e:	48 63 d0             	movslq %eax,%rdx
    b761:	48 89 d0             	mov    %rdx,%rax
    b764:	48 c1 e0 03          	shl    $0x3,%rax
    b768:	48 01 d0             	add    %rdx,%rax
    b76b:	48 01 c8             	add    %rcx,%rax
    b76e:	48 8d 14 c5 00 00 00 	lea    0x0(,%rax,8),%rdx
    b775:	00 
    b776:	48 8d 05 83 4f 00 00 	lea    0x4f83(%rip),%rax        # 10700 <g_1207>
    b77d:	48 8b 04 02          	mov    (%rdx,%rax,1),%rax
    b781:	8b 55 fc             	mov    -0x4(%rbp),%edx
    b784:	48 8d 35 71 15 00 00 	lea    0x1571(%rip),%rsi        # ccfc <g_1458+0xc88>
    b78b:	48 89 c7             	mov    %rax,%rdi
    b78e:	e8 60 bf ff ff       	callq  76f3 <transparent_crc>
    b793:	83 7d fc 00          	cmpl   $0x0,-0x4(%rbp)
    b797:	74 19                	je     b7b2 <main+0xa0f>
    b799:	8b 55 f4             	mov    -0xc(%rbp),%edx
    b79c:	8b 45 f0             	mov    -0x10(%rbp),%eax
    b79f:	89 c6                	mov    %eax,%esi
    b7a1:	48 8d 3d a2 13 00 00 	lea    0x13a2(%rip),%rdi        # cb4a <g_1458+0xad6>
    b7a8:	b8 00 00 00 00       	mov    $0x0,%eax
    b7ad:	e8 ce a8 ff ff       	callq  6080 <printf@plt>
    b7b2:	83 45 f4 01          	addl   $0x1,-0xc(%rbp)
    b7b6:	83 7d f4 08          	cmpl   $0x8,-0xc(%rbp)
    b7ba:	7e 99                	jle    b755 <main+0x9b2>
    b7bc:	83 45 f0 01          	addl   $0x1,-0x10(%rbp)
    b7c0:	83 7d f0 06          	cmpl   $0x6,-0x10(%rbp)
    b7c4:	7e 86                	jle    b74c <main+0x9a9>
    b7c6:	c7 45 f0 00 00 00 00 	movl   $0x0,-0x10(%rbp)
    b7cd:	eb 72                	jmp    b841 <main+0xa9e>
    b7cf:	c7 45 f4 00 00 00 00 	movl   $0x0,-0xc(%rbp)
    b7d6:	eb 5f                	jmp    b837 <main+0xa94>
    b7d8:	8b 45 f4             	mov    -0xc(%rbp),%eax
    b7db:	48 63 c8             	movslq %eax,%rcx
    b7de:	8b 45 f0             	mov    -0x10(%rbp),%eax
    b7e1:	48 63 d0             	movslq %eax,%rdx
    b7e4:	48 89 d0             	mov    %rdx,%rax
    b7e7:	48 c1 e0 03          	shl    $0x3,%rax
    b7eb:	48 29 d0             	sub    %rdx,%rax
    b7ee:	48 8d 14 08          	lea    (%rax,%rcx,1),%rdx
    b7f2:	48 8d 05 07 51 00 00 	lea    0x5107(%rip),%rax        # 10900 <g_1285>
    b7f9:	48 01 d0             	add    %rdx,%rax
    b7fc:	0f b6 00             	movzbl (%rax),%eax
    b7ff:	0f b6 c0             	movzbl %al,%eax
    b802:	8b 55 fc             	mov    -0x4(%rbp),%edx
    b805:	48 8d 35 fd 14 00 00 	lea    0x14fd(%rip),%rsi        # cd09 <g_1458+0xc95>
    b80c:	48 89 c7             	mov    %rax,%rdi
    b80f:	e8 df be ff ff       	callq  76f3 <transparent_crc>
    b814:	83 7d fc 00          	cmpl   $0x0,-0x4(%rbp)
    b818:	74 19                	je     b833 <main+0xa90>
    b81a:	8b 55 f4             	mov    -0xc(%rbp),%edx
    b81d:	8b 45 f0             	mov    -0x10(%rbp),%eax
    b820:	89 c6                	mov    %eax,%esi
    b822:	48 8d 3d 21 13 00 00 	lea    0x1321(%rip),%rdi        # cb4a <g_1458+0xad6>
    b829:	b8 00 00 00 00       	mov    $0x0,%eax
    b82e:	e8 4d a8 ff ff       	callq  6080 <printf@plt>
    b833:	83 45 f4 01          	addl   $0x1,-0xc(%rbp)
    b837:	83 7d f4 06          	cmpl   $0x6,-0xc(%rbp)
    b83b:	7e 9b                	jle    b7d8 <main+0xa35>
    b83d:	83 45 f0 01          	addl   $0x1,-0x10(%rbp)
    b841:	83 7d f0 03          	cmpl   $0x3,-0x10(%rbp)
    b845:	7e 88                	jle    b7cf <main+0xa2c>
    b847:	0f b6 05 ce 50 00 00 	movzbl 0x50ce(%rip),%eax        # 1091c <g_1309>
    b84e:	0f b6 c0             	movzbl %al,%eax
    b851:	8b 55 fc             	mov    -0x4(%rbp),%edx
    b854:	48 8d 35 be 14 00 00 	lea    0x14be(%rip),%rsi        # cd19 <g_1458+0xca5>
    b85b:	48 89 c7             	mov    %rax,%rdi
    b85e:	e8 90 be ff ff       	callq  76f3 <transparent_crc>
    b863:	c7 45 f0 00 00 00 00 	movl   $0x0,-0x10(%rbp)
    b86a:	eb 78                	jmp    b8e4 <main+0xb41>
    b86c:	c7 45 f4 00 00 00 00 	movl   $0x0,-0xc(%rbp)
    b873:	eb 65                	jmp    b8da <main+0xb37>
    b875:	8b 45 f4             	mov    -0xc(%rbp),%eax
    b878:	48 63 c8             	movslq %eax,%rcx
    b87b:	8b 45 f0             	mov    -0x10(%rbp),%eax
    b87e:	48 63 d0             	movslq %eax,%rdx
    b881:	48 89 d0             	mov    %rdx,%rax
    b884:	48 c1 e0 02          	shl    $0x2,%rax
    b888:	48 01 d0             	add    %rdx,%rax
    b88b:	48 01 c0             	add    %rax,%rax
    b88e:	48 01 c8             	add    %rcx,%rax
    b891:	48 8d 14 85 00 00 00 	lea    0x0(,%rax,4),%rdx
    b898:	00 
    b899:	48 8d 05 80 50 00 00 	lea    0x5080(%rip),%rax        # 10920 <g_1316>
    b8a0:	8b 04 02             	mov    (%rdx,%rax,1),%eax
    b8a3:	48 98                	cltq   
    b8a5:	8b 55 fc             	mov    -0x4(%rbp),%edx
    b8a8:	48 8d 35 74 14 00 00 	lea    0x1474(%rip),%rsi        # cd23 <g_1458+0xcaf>
    b8af:	48 89 c7             	mov    %rax,%rdi
    b8b2:	e8 3c be ff ff       	callq  76f3 <transparent_crc>
    b8b7:	83 7d fc 00          	cmpl   $0x0,-0x4(%rbp)
    b8bb:	74 19                	je     b8d6 <main+0xb33>
    b8bd:	8b 55 f4             	mov    -0xc(%rbp),%edx
    b8c0:	8b 45 f0             	mov    -0x10(%rbp),%eax
    b8c3:	89 c6                	mov    %eax,%esi
    b8c5:	48 8d 3d 7e 12 00 00 	lea    0x127e(%rip),%rdi        # cb4a <g_1458+0xad6>
    b8cc:	b8 00 00 00 00       	mov    $0x0,%eax
    b8d1:	e8 aa a7 ff ff       	callq  6080 <printf@plt>
    b8d6:	83 45 f4 01          	addl   $0x1,-0xc(%rbp)
    b8da:	83 7d f4 09          	cmpl   $0x9,-0xc(%rbp)
    b8de:	7e 95                	jle    b875 <main+0xad2>
    b8e0:	83 45 f0 01          	addl   $0x1,-0x10(%rbp)
    b8e4:	83 7d f0 06          	cmpl   $0x6,-0x10(%rbp)
    b8e8:	7e 82                	jle    b86c <main+0xac9>
    b8ea:	0f b6 05 83 07 00 00 	movzbl 0x783(%rip),%eax        # c074 <g_1458>
    b8f1:	48 0f be c0          	movsbq %al,%rax
    b8f5:	8b 55 fc             	mov    -0x4(%rbp),%edx
    b8f8:	48 8d 35 31 14 00 00 	lea    0x1431(%rip),%rsi        # cd30 <g_1458+0xcbc>
    b8ff:	48 89 c7             	mov    %rax,%rdi
    b902:	e8 ec bd ff ff       	callq  76f3 <transparent_crc>
    b907:	0f b6 05 2a 51 00 00 	movzbl 0x512a(%rip),%eax        # 10a38 <g_1488>
    b90e:	0f b6 c0             	movzbl %al,%eax
    b911:	8b 55 fc             	mov    -0x4(%rbp),%edx
    b914:	48 8d 35 1f 14 00 00 	lea    0x141f(%rip),%rsi        # cd3a <g_1458+0xcc6>
    b91b:	48 89 c7             	mov    %rax,%rdi
    b91e:	e8 d0 bd ff ff       	callq  76f3 <transparent_crc>
    b923:	8b 05 f7 46 00 00    	mov    0x46f7(%rip),%eax        # 10020 <crc32_context>
    b929:	f7 d0                	not    %eax
    b92b:	89 c2                	mov    %eax,%edx
    b92d:	8b 45 fc             	mov    -0x4(%rbp),%eax
    b930:	89 c6                	mov    %eax,%esi
    b932:	89 d7                	mov    %edx,%edi
    b934:	e8 5b a8 ff ff       	callq  6194 <platform_main_end>
    b939:	b8 00 00 00 00       	mov    $0x0,%eax
    b93e:	c9                   	leaveq 
    b93f:	c3                   	retq   

000000000000b940 <__libc_csu_init>:
    b940:	f3 0f 1e fa          	endbr64 
    b944:	41 57                	push   %r15
    b946:	4c 8d 3d e3 43 00 00 	lea    0x43e3(%rip),%r15        # fd30 <__frame_dummy_init_array_entry>
    b94d:	41 56                	push   %r14
    b94f:	49 89 d6             	mov    %rdx,%r14
    b952:	41 55                	push   %r13
    b954:	49 89 f5             	mov    %rsi,%r13
    b957:	41 54                	push   %r12
    b959:	41 89 fc             	mov    %edi,%r12d
    b95c:	55                   	push   %rbp
    b95d:	48 8d 2d d4 43 00 00 	lea    0x43d4(%rip),%rbp        # fd38 <__do_global_dtors_aux_fini_array_entry>
    b964:	53                   	push   %rbx
    b965:	4c 29 fd             	sub    %r15,%rbp
    b968:	48 83 ec 08          	sub    $0x8,%rsp
    b96c:	e8 8f a6 ff ff       	callq  6000 <_init>
    b971:	48 c1 fd 03          	sar    $0x3,%rbp
    b975:	74 1f                	je     b996 <__libc_csu_init+0x56>
    b977:	31 db                	xor    %ebx,%ebx
    b979:	0f 1f 80 00 00 00 00 	nopl   0x0(%rax)
    b980:	4c 89 f2             	mov    %r14,%rdx
    b983:	4c 89 ee             	mov    %r13,%rsi
    b986:	44 89 e7             	mov    %r12d,%edi
    b989:	41 ff 14 df          	callq  *(%r15,%rbx,8)
    b98d:	48 83 c3 01          	add    $0x1,%rbx
    b991:	48 39 dd             	cmp    %rbx,%rbp
    b994:	75 ea                	jne    b980 <__libc_csu_init+0x40>
    b996:	48 83 c4 08          	add    $0x8,%rsp
    b99a:	5b                   	pop    %rbx
    b99b:	5d                   	pop    %rbp
    b99c:	41 5c                	pop    %r12
    b99e:	41 5d                	pop    %r13
    b9a0:	41 5e                	pop    %r14
    b9a2:	41 5f                	pop    %r15
    b9a4:	c3                   	retq   
    b9a5:	66 66 2e 0f 1f 84 00 	data16 nopw %cs:0x0(%rax,%rax,1)
    b9ac:	00 00 00 00 

000000000000b9b0 <__libc_csu_fini>:
    b9b0:	f3 0f 1e fa          	endbr64 
    b9b4:	c3                   	retq   
