


Disassembly of section .text:

00000000000050a0 <_start>:
    50a0:	f3 0f 1e fa          	endbr64 
    50a4:	31 ed                	xor    %ebp,%ebp
    50a6:	49 89 d1             	mov    %rdx,%r9
    50a9:	5e                   	pop    %rsi
    50aa:	48 89 e2             	mov    %rsp,%rdx
    50ad:	48 83 e4 f0          	and    $0xfffffffffffffff0,%rsp
    50b1:	50                   	push   %rax
    50b2:	54                   	push   %rsp
    50b3:	4c 8d 05 26 cf 00 00 	lea    0xcf26(%rip),%r8        # 11fe0 <__libc_csu_fini>
    50ba:	48 8d 0d af ce 00 00 	lea    0xceaf(%rip),%rcx        # 11f70 <__libc_csu_init>
    50c1:	48 8d 3d cf bc 00 00 	lea    0xbccf(%rip),%rdi        # 10d97 <main>
    50c8:	ff 15 fa 1e 01 00    	callq  *0x11efa(%rip)        # 16fc8 <__libc_start_main@GLIBC_2.2.5>
    50ce:	f4                   	hlt    
    50cf:	90                   	nop

00000000000050d0 <deregister_tm_clones>:
    50d0:	48 8d 3d 79 42 01 00 	lea    0x14279(%rip),%rdi        # 19350 <__TMC_END__>
    50d7:	48 8d 05 72 42 01 00 	lea    0x14272(%rip),%rax        # 19350 <__TMC_END__>
    50de:	48 39 f8             	cmp    %rdi,%rax
    50e1:	74 15                	je     50f8 <deregister_tm_clones+0x28>
    50e3:	48 8b 05 d6 1e 01 00 	mov    0x11ed6(%rip),%rax        # 16fc0 <_ITM_deregisterTMCloneTable>
    50ea:	48 85 c0             	test   %rax,%rax
    50ed:	74 09                	je     50f8 <deregister_tm_clones+0x28>
    50ef:	ff e0                	jmpq   *%rax
    50f1:	0f 1f 80 00 00 00 00 	nopl   0x0(%rax)
    50f8:	c3                   	retq   
    50f9:	0f 1f 80 00 00 00 00 	nopl   0x0(%rax)

0000000000005100 <register_tm_clones>:
    5100:	48 8d 3d 49 42 01 00 	lea    0x14249(%rip),%rdi        # 19350 <__TMC_END__>
    5107:	48 8d 35 42 42 01 00 	lea    0x14242(%rip),%rsi        # 19350 <__TMC_END__>
    510e:	48 29 fe             	sub    %rdi,%rsi
    5111:	48 89 f0             	mov    %rsi,%rax
    5114:	48 c1 ee 3f          	shr    $0x3f,%rsi
    5118:	48 c1 f8 03          	sar    $0x3,%rax
    511c:	48 01 c6             	add    %rax,%rsi
    511f:	48 d1 fe             	sar    %rsi
    5122:	74 14                	je     5138 <register_tm_clones+0x38>
    5124:	48 8b 05 ad 1e 01 00 	mov    0x11ead(%rip),%rax        # 16fd8 <_ITM_registerTMCloneTable>
    512b:	48 85 c0             	test   %rax,%rax
    512e:	74 08                	je     5138 <register_tm_clones+0x38>
    5130:	ff e0                	jmpq   *%rax
    5132:	66 0f 1f 44 00 00    	nopw   0x0(%rax,%rax,1)
    5138:	c3                   	retq   
    5139:	0f 1f 80 00 00 00 00 	nopl   0x0(%rax)

0000000000005140 <__do_global_dtors_aux>:
    5140:	f3 0f 1e fa          	endbr64 
    5144:	80 3d 15 42 01 00 00 	cmpb   $0x0,0x14215(%rip)        # 19360 <completed.8061>
    514b:	75 2b                	jne    5178 <__do_global_dtors_aux+0x38>
    514d:	55                   	push   %rbp
    514e:	48 83 3d 8a 1e 01 00 	cmpq   $0x0,0x11e8a(%rip)        # 16fe0 <__cxa_finalize@GLIBC_2.2.5>
    5155:	00 
    5156:	48 89 e5             	mov    %rsp,%rbp
    5159:	74 0c                	je     5167 <__do_global_dtors_aux+0x27>
    515b:	48 8b 3d a6 1e 01 00 	mov    0x11ea6(%rip),%rdi        # 17008 <__dso_handle>
    5162:	e8 f9 fe ff ff       	callq  5060 <__cxa_finalize@plt>
    5167:	e8 64 ff ff ff       	callq  50d0 <deregister_tm_clones>
    516c:	c6 05 ed 41 01 00 01 	movb   $0x1,0x141ed(%rip)        # 19360 <completed.8061>
    5173:	5d                   	pop    %rbp
    5174:	c3                   	retq   
    5175:	0f 1f 00             	nopl   (%rax)
    5178:	c3                   	retq   
    5179:	0f 1f 80 00 00 00 00 	nopl   0x0(%rax)

0000000000005180 <frame_dummy>:
    5180:	f3 0f 1e fa          	endbr64 
    5184:	e9 77 ff ff ff       	jmpq   5100 <register_tm_clones>

0000000000005189 <platform_main_begin>:
    5189:	f3 0f 1e fa          	endbr64 
    518d:	55                   	push   %rbp
    518e:	48 89 e5             	mov    %rsp,%rbp
    5191:	90                   	nop
    5192:	5d                   	pop    %rbp
    5193:	c3                   	retq   

0000000000005194 <platform_main_end>:
    5194:	f3 0f 1e fa          	endbr64 
    5198:	55                   	push   %rbp
    5199:	48 89 e5             	mov    %rsp,%rbp
    519c:	48 83 ec 10          	sub    $0x10,%rsp
    51a0:	89 7d fc             	mov    %edi,-0x4(%rbp)
    51a3:	89 75 f8             	mov    %esi,-0x8(%rbp)
    51a6:	8b 45 fc             	mov    -0x4(%rbp),%eax
    51a9:	89 c6                	mov    %eax,%esi
    51ab:	48 8d 3d 6e ce 00 00 	lea    0xce6e(%rip),%rdi        # 12020 <_IO_stdin_used+0x20>
    51b2:	b8 00 00 00 00       	mov    $0x0,%eax
    51b7:	e8 c4 fe ff ff       	callq  5080 <printf@plt>
    51bc:	90                   	nop
    51bd:	c9                   	leaveq 
    51be:	c3                   	retq   

00000000000051bf <safe_unary_minus_func_int8_t_s>:
    51bf:	f3 0f 1e fa          	endbr64 
    51c3:	55                   	push   %rbp
    51c4:	48 89 e5             	mov    %rsp,%rbp
    51c7:	89 f8                	mov    %edi,%eax
    51c9:	88 45 fc             	mov    %al,-0x4(%rbp)
    51cc:	0f b6 45 fc          	movzbl -0x4(%rbp),%eax
    51d0:	f7 d8                	neg    %eax
    51d2:	5d                   	pop    %rbp
    51d3:	c3                   	retq   

00000000000051d4 <safe_add_func_int8_t_s_s>:
    51d4:	f3 0f 1e fa          	endbr64 
    51d8:	55                   	push   %rbp
    51d9:	48 89 e5             	mov    %rsp,%rbp
    51dc:	89 fa                	mov    %edi,%edx
    51de:	89 f0                	mov    %esi,%eax
    51e0:	88 55 fc             	mov    %dl,-0x4(%rbp)
    51e3:	88 45 f8             	mov    %al,-0x8(%rbp)
    51e6:	0f b6 55 fc          	movzbl -0x4(%rbp),%edx
    51ea:	0f b6 45 f8          	movzbl -0x8(%rbp),%eax
    51ee:	01 d0                	add    %edx,%eax
    51f0:	5d                   	pop    %rbp
    51f1:	c3                   	retq   

00000000000051f2 <safe_sub_func_int8_t_s_s>:
    51f2:	f3 0f 1e fa          	endbr64 
    51f6:	55                   	push   %rbp
    51f7:	48 89 e5             	mov    %rsp,%rbp
    51fa:	89 fa                	mov    %edi,%edx
    51fc:	89 f0                	mov    %esi,%eax
    51fe:	88 55 fc             	mov    %dl,-0x4(%rbp)
    5201:	88 45 f8             	mov    %al,-0x8(%rbp)
    5204:	0f b6 55 fc          	movzbl -0x4(%rbp),%edx
    5208:	0f b6 45 f8          	movzbl -0x8(%rbp),%eax
    520c:	29 c2                	sub    %eax,%edx
    520e:	89 d0                	mov    %edx,%eax
    5210:	5d                   	pop    %rbp
    5211:	c3                   	retq   

0000000000005212 <safe_mul_func_int8_t_s_s>:
    5212:	f3 0f 1e fa          	endbr64 
    5216:	55                   	push   %rbp
    5217:	48 89 e5             	mov    %rsp,%rbp
    521a:	89 fa                	mov    %edi,%edx
    521c:	89 f0                	mov    %esi,%eax
    521e:	88 55 fc             	mov    %dl,-0x4(%rbp)
    5221:	88 45 f8             	mov    %al,-0x8(%rbp)
    5224:	0f b6 45 fc          	movzbl -0x4(%rbp),%eax
    5228:	0f b6 55 f8          	movzbl -0x8(%rbp),%edx
    522c:	0f af c2             	imul   %edx,%eax
    522f:	5d                   	pop    %rbp
    5230:	c3                   	retq   

0000000000005231 <safe_mod_func_int8_t_s_s>:
    5231:	f3 0f 1e fa          	endbr64 
    5235:	55                   	push   %rbp
    5236:	48 89 e5             	mov    %rsp,%rbp
    5239:	89 fa                	mov    %edi,%edx
    523b:	89 f0                	mov    %esi,%eax
    523d:	88 55 fc             	mov    %dl,-0x4(%rbp)
    5240:	88 45 f8             	mov    %al,-0x8(%rbp)
    5243:	80 7d f8 00          	cmpb   $0x0,-0x8(%rbp)
    5247:	74 1b                	je     5264 <safe_mod_func_int8_t_s_s+0x33>
    5249:	80 7d fc 80          	cmpb   $0x80,-0x4(%rbp)
    524d:	75 06                	jne    5255 <safe_mod_func_int8_t_s_s+0x24>
    524f:	80 7d f8 ff          	cmpb   $0xff,-0x8(%rbp)
    5253:	74 0f                	je     5264 <safe_mod_func_int8_t_s_s+0x33>
    5255:	0f be 45 fc          	movsbl -0x4(%rbp),%eax
    5259:	0f be 4d f8          	movsbl -0x8(%rbp),%ecx
    525d:	99                   	cltd   
    525e:	f7 f9                	idiv   %ecx
    5260:	89 d0                	mov    %edx,%eax
    5262:	eb 04                	jmp    5268 <safe_mod_func_int8_t_s_s+0x37>
    5264:	0f b6 45 fc          	movzbl -0x4(%rbp),%eax
    5268:	5d                   	pop    %rbp
    5269:	c3                   	retq   

000000000000526a <safe_div_func_int8_t_s_s>:
    526a:	f3 0f 1e fa          	endbr64 
    526e:	55                   	push   %rbp
    526f:	48 89 e5             	mov    %rsp,%rbp
    5272:	89 fa                	mov    %edi,%edx
    5274:	89 f0                	mov    %esi,%eax
    5276:	88 55 fc             	mov    %dl,-0x4(%rbp)
    5279:	88 45 f8             	mov    %al,-0x8(%rbp)
    527c:	80 7d f8 00          	cmpb   $0x0,-0x8(%rbp)
    5280:	74 19                	je     529b <safe_div_func_int8_t_s_s+0x31>
    5282:	80 7d fc 80          	cmpb   $0x80,-0x4(%rbp)
    5286:	75 06                	jne    528e <safe_div_func_int8_t_s_s+0x24>
    5288:	80 7d f8 ff          	cmpb   $0xff,-0x8(%rbp)
    528c:	74 0d                	je     529b <safe_div_func_int8_t_s_s+0x31>
    528e:	0f be 45 fc          	movsbl -0x4(%rbp),%eax
    5292:	0f be 4d f8          	movsbl -0x8(%rbp),%ecx
    5296:	99                   	cltd   
    5297:	f7 f9                	idiv   %ecx
    5299:	eb 04                	jmp    529f <safe_div_func_int8_t_s_s+0x35>
    529b:	0f b6 45 fc          	movzbl -0x4(%rbp),%eax
    529f:	5d                   	pop    %rbp
    52a0:	c3                   	retq   

00000000000052a1 <safe_lshift_func_int8_t_s_s>:
    52a1:	f3 0f 1e fa          	endbr64 
    52a5:	55                   	push   %rbp
    52a6:	48 89 e5             	mov    %rsp,%rbp
    52a9:	89 f8                	mov    %edi,%eax
    52ab:	89 75 f8             	mov    %esi,-0x8(%rbp)
    52ae:	88 45 fc             	mov    %al,-0x4(%rbp)
    52b1:	80 7d fc 00          	cmpb   $0x0,-0x4(%rbp)
    52b5:	78 31                	js     52e8 <safe_lshift_func_int8_t_s_s+0x47>
    52b7:	83 7d f8 00          	cmpl   $0x0,-0x8(%rbp)
    52bb:	78 2b                	js     52e8 <safe_lshift_func_int8_t_s_s+0x47>
    52bd:	83 7d f8 1f          	cmpl   $0x1f,-0x8(%rbp)
    52c1:	7f 25                	jg     52e8 <safe_lshift_func_int8_t_s_s+0x47>
    52c3:	0f be 55 fc          	movsbl -0x4(%rbp),%edx
    52c7:	8b 45 f8             	mov    -0x8(%rbp),%eax
    52ca:	be 7f 00 00 00       	mov    $0x7f,%esi
    52cf:	89 c1                	mov    %eax,%ecx
    52d1:	d3 fe                	sar    %cl,%esi
    52d3:	89 f0                	mov    %esi,%eax
    52d5:	39 c2                	cmp    %eax,%edx
    52d7:	7f 0f                	jg     52e8 <safe_lshift_func_int8_t_s_s+0x47>
    52d9:	0f be 55 fc          	movsbl -0x4(%rbp),%edx
    52dd:	8b 45 f8             	mov    -0x8(%rbp),%eax
    52e0:	89 c1                	mov    %eax,%ecx
    52e2:	d3 e2                	shl    %cl,%edx
    52e4:	89 d0                	mov    %edx,%eax
    52e6:	eb 04                	jmp    52ec <safe_lshift_func_int8_t_s_s+0x4b>
    52e8:	0f b6 45 fc          	movzbl -0x4(%rbp),%eax
    52ec:	5d                   	pop    %rbp
    52ed:	c3                   	retq   

00000000000052ee <safe_lshift_func_int8_t_s_u>:
    52ee:	f3 0f 1e fa          	endbr64 
    52f2:	55                   	push   %rbp
    52f3:	48 89 e5             	mov    %rsp,%rbp
    52f6:	89 f8                	mov    %edi,%eax
    52f8:	89 75 f8             	mov    %esi,-0x8(%rbp)
    52fb:	88 45 fc             	mov    %al,-0x4(%rbp)
    52fe:	80 7d fc 00          	cmpb   $0x0,-0x4(%rbp)
    5302:	78 2b                	js     532f <safe_lshift_func_int8_t_s_u+0x41>
    5304:	83 7d f8 1f          	cmpl   $0x1f,-0x8(%rbp)
    5308:	77 25                	ja     532f <safe_lshift_func_int8_t_s_u+0x41>
    530a:	0f be 55 fc          	movsbl -0x4(%rbp),%edx
    530e:	8b 45 f8             	mov    -0x8(%rbp),%eax
    5311:	be 7f 00 00 00       	mov    $0x7f,%esi
    5316:	89 c1                	mov    %eax,%ecx
    5318:	d3 fe                	sar    %cl,%esi
    531a:	89 f0                	mov    %esi,%eax
    531c:	39 c2                	cmp    %eax,%edx
    531e:	7f 0f                	jg     532f <safe_lshift_func_int8_t_s_u+0x41>
    5320:	0f be 55 fc          	movsbl -0x4(%rbp),%edx
    5324:	8b 45 f8             	mov    -0x8(%rbp),%eax
    5327:	89 c1                	mov    %eax,%ecx
    5329:	d3 e2                	shl    %cl,%edx
    532b:	89 d0                	mov    %edx,%eax
    532d:	eb 04                	jmp    5333 <safe_lshift_func_int8_t_s_u+0x45>
    532f:	0f b6 45 fc          	movzbl -0x4(%rbp),%eax
    5333:	5d                   	pop    %rbp
    5334:	c3                   	retq   

0000000000005335 <safe_rshift_func_int8_t_s_s>:
    5335:	f3 0f 1e fa          	endbr64 
    5339:	55                   	push   %rbp
    533a:	48 89 e5             	mov    %rsp,%rbp
    533d:	89 f8                	mov    %edi,%eax
    533f:	89 75 f8             	mov    %esi,-0x8(%rbp)
    5342:	88 45 fc             	mov    %al,-0x4(%rbp)
    5345:	80 7d fc 00          	cmpb   $0x0,-0x4(%rbp)
    5349:	78 1b                	js     5366 <safe_rshift_func_int8_t_s_s+0x31>
    534b:	83 7d f8 00          	cmpl   $0x0,-0x8(%rbp)
    534f:	78 15                	js     5366 <safe_rshift_func_int8_t_s_s+0x31>
    5351:	83 7d f8 1f          	cmpl   $0x1f,-0x8(%rbp)
    5355:	7f 0f                	jg     5366 <safe_rshift_func_int8_t_s_s+0x31>
    5357:	0f be 55 fc          	movsbl -0x4(%rbp),%edx
    535b:	8b 45 f8             	mov    -0x8(%rbp),%eax
    535e:	89 c1                	mov    %eax,%ecx
    5360:	d3 fa                	sar    %cl,%edx
    5362:	89 d0                	mov    %edx,%eax
    5364:	eb 04                	jmp    536a <safe_rshift_func_int8_t_s_s+0x35>
    5366:	0f b6 45 fc          	movzbl -0x4(%rbp),%eax
    536a:	5d                   	pop    %rbp
    536b:	c3                   	retq   

000000000000536c <safe_rshift_func_int8_t_s_u>:
    536c:	f3 0f 1e fa          	endbr64 
    5370:	55                   	push   %rbp
    5371:	48 89 e5             	mov    %rsp,%rbp
    5374:	89 f8                	mov    %edi,%eax
    5376:	89 75 f8             	mov    %esi,-0x8(%rbp)
    5379:	88 45 fc             	mov    %al,-0x4(%rbp)
    537c:	80 7d fc 00          	cmpb   $0x0,-0x4(%rbp)
    5380:	78 15                	js     5397 <safe_rshift_func_int8_t_s_u+0x2b>
    5382:	83 7d f8 1f          	cmpl   $0x1f,-0x8(%rbp)
    5386:	77 0f                	ja     5397 <safe_rshift_func_int8_t_s_u+0x2b>
    5388:	0f be 55 fc          	movsbl -0x4(%rbp),%edx
    538c:	8b 45 f8             	mov    -0x8(%rbp),%eax
    538f:	89 c1                	mov    %eax,%ecx
    5391:	d3 fa                	sar    %cl,%edx
    5393:	89 d0                	mov    %edx,%eax
    5395:	eb 04                	jmp    539b <safe_rshift_func_int8_t_s_u+0x2f>
    5397:	0f b6 45 fc          	movzbl -0x4(%rbp),%eax
    539b:	5d                   	pop    %rbp
    539c:	c3                   	retq   

000000000000539d <safe_unary_minus_func_int16_t_s>:
    539d:	f3 0f 1e fa          	endbr64 
    53a1:	55                   	push   %rbp
    53a2:	48 89 e5             	mov    %rsp,%rbp
    53a5:	89 f8                	mov    %edi,%eax
    53a7:	66 89 45 fc          	mov    %ax,-0x4(%rbp)
    53ab:	0f b7 45 fc          	movzwl -0x4(%rbp),%eax
    53af:	f7 d8                	neg    %eax
    53b1:	5d                   	pop    %rbp
    53b2:	c3                   	retq   

00000000000053b3 <safe_add_func_int16_t_s_s>:
    53b3:	f3 0f 1e fa          	endbr64 
    53b7:	55                   	push   %rbp
    53b8:	48 89 e5             	mov    %rsp,%rbp
    53bb:	89 fa                	mov    %edi,%edx
    53bd:	89 f0                	mov    %esi,%eax
    53bf:	66 89 55 fc          	mov    %dx,-0x4(%rbp)
    53c3:	66 89 45 f8          	mov    %ax,-0x8(%rbp)
    53c7:	0f b7 55 fc          	movzwl -0x4(%rbp),%edx
    53cb:	0f b7 45 f8          	movzwl -0x8(%rbp),%eax
    53cf:	01 d0                	add    %edx,%eax
    53d1:	5d                   	pop    %rbp
    53d2:	c3                   	retq   

00000000000053d3 <safe_sub_func_int16_t_s_s>:
    53d3:	f3 0f 1e fa          	endbr64 
    53d7:	55                   	push   %rbp
    53d8:	48 89 e5             	mov    %rsp,%rbp
    53db:	89 fa                	mov    %edi,%edx
    53dd:	89 f0                	mov    %esi,%eax
    53df:	66 89 55 fc          	mov    %dx,-0x4(%rbp)
    53e3:	66 89 45 f8          	mov    %ax,-0x8(%rbp)
    53e7:	0f b7 55 fc          	movzwl -0x4(%rbp),%edx
    53eb:	0f b7 45 f8          	movzwl -0x8(%rbp),%eax
    53ef:	29 c2                	sub    %eax,%edx
    53f1:	89 d0                	mov    %edx,%eax
    53f3:	5d                   	pop    %rbp
    53f4:	c3                   	retq   

00000000000053f5 <safe_mul_func_int16_t_s_s>:
    53f5:	f3 0f 1e fa          	endbr64 
    53f9:	55                   	push   %rbp
    53fa:	48 89 e5             	mov    %rsp,%rbp
    53fd:	89 fa                	mov    %edi,%edx
    53ff:	89 f0                	mov    %esi,%eax
    5401:	66 89 55 fc          	mov    %dx,-0x4(%rbp)
    5405:	66 89 45 f8          	mov    %ax,-0x8(%rbp)
    5409:	0f b7 55 fc          	movzwl -0x4(%rbp),%edx
    540d:	0f b7 45 f8          	movzwl -0x8(%rbp),%eax
    5411:	0f af c2             	imul   %edx,%eax
    5414:	5d                   	pop    %rbp
    5415:	c3                   	retq   

0000000000005416 <safe_mod_func_int16_t_s_s>:
    5416:	f3 0f 1e fa          	endbr64 
    541a:	55                   	push   %rbp
    541b:	48 89 e5             	mov    %rsp,%rbp
    541e:	89 fa                	mov    %edi,%edx
    5420:	89 f0                	mov    %esi,%eax
    5422:	66 89 55 fc          	mov    %dx,-0x4(%rbp)
    5426:	66 89 45 f8          	mov    %ax,-0x8(%rbp)
    542a:	66 83 7d f8 00       	cmpw   $0x0,-0x8(%rbp)
    542f:	74 1e                	je     544f <safe_mod_func_int16_t_s_s+0x39>
    5431:	66 81 7d fc 00 80    	cmpw   $0x8000,-0x4(%rbp)
    5437:	75 07                	jne    5440 <safe_mod_func_int16_t_s_s+0x2a>
    5439:	66 83 7d f8 ff       	cmpw   $0xffff,-0x8(%rbp)
    543e:	74 0f                	je     544f <safe_mod_func_int16_t_s_s+0x39>
    5440:	0f bf 45 fc          	movswl -0x4(%rbp),%eax
    5444:	0f bf 4d f8          	movswl -0x8(%rbp),%ecx
    5448:	99                   	cltd   
    5449:	f7 f9                	idiv   %ecx
    544b:	89 d0                	mov    %edx,%eax
    544d:	eb 04                	jmp    5453 <safe_mod_func_int16_t_s_s+0x3d>
    544f:	0f b7 45 fc          	movzwl -0x4(%rbp),%eax
    5453:	5d                   	pop    %rbp
    5454:	c3                   	retq   

0000000000005455 <safe_div_func_int16_t_s_s>:
    5455:	f3 0f 1e fa          	endbr64 
    5459:	55                   	push   %rbp
    545a:	48 89 e5             	mov    %rsp,%rbp
    545d:	89 fa                	mov    %edi,%edx
    545f:	89 f0                	mov    %esi,%eax
    5461:	66 89 55 fc          	mov    %dx,-0x4(%rbp)
    5465:	66 89 45 f8          	mov    %ax,-0x8(%rbp)
    5469:	66 83 7d f8 00       	cmpw   $0x0,-0x8(%rbp)
    546e:	74 1c                	je     548c <safe_div_func_int16_t_s_s+0x37>
    5470:	66 81 7d fc 00 80    	cmpw   $0x8000,-0x4(%rbp)
    5476:	75 07                	jne    547f <safe_div_func_int16_t_s_s+0x2a>
    5478:	66 83 7d f8 ff       	cmpw   $0xffff,-0x8(%rbp)
    547d:	74 0d                	je     548c <safe_div_func_int16_t_s_s+0x37>
    547f:	0f bf 45 fc          	movswl -0x4(%rbp),%eax
    5483:	0f bf 4d f8          	movswl -0x8(%rbp),%ecx
    5487:	99                   	cltd   
    5488:	f7 f9                	idiv   %ecx
    548a:	eb 04                	jmp    5490 <safe_div_func_int16_t_s_s+0x3b>
    548c:	0f b7 45 fc          	movzwl -0x4(%rbp),%eax
    5490:	5d                   	pop    %rbp
    5491:	c3                   	retq   

0000000000005492 <safe_lshift_func_int16_t_s_s>:
    5492:	f3 0f 1e fa          	endbr64 
    5496:	55                   	push   %rbp
    5497:	48 89 e5             	mov    %rsp,%rbp
    549a:	89 f8                	mov    %edi,%eax
    549c:	89 75 f8             	mov    %esi,-0x8(%rbp)
    549f:	66 89 45 fc          	mov    %ax,-0x4(%rbp)
    54a3:	66 83 7d fc 00       	cmpw   $0x0,-0x4(%rbp)
    54a8:	78 31                	js     54db <safe_lshift_func_int16_t_s_s+0x49>
    54aa:	83 7d f8 00          	cmpl   $0x0,-0x8(%rbp)
    54ae:	78 2b                	js     54db <safe_lshift_func_int16_t_s_s+0x49>
    54b0:	83 7d f8 1f          	cmpl   $0x1f,-0x8(%rbp)
    54b4:	7f 25                	jg     54db <safe_lshift_func_int16_t_s_s+0x49>
    54b6:	0f bf 55 fc          	movswl -0x4(%rbp),%edx
    54ba:	8b 45 f8             	mov    -0x8(%rbp),%eax
    54bd:	be ff 7f 00 00       	mov    $0x7fff,%esi
    54c2:	89 c1                	mov    %eax,%ecx
    54c4:	d3 fe                	sar    %cl,%esi
    54c6:	89 f0                	mov    %esi,%eax
    54c8:	39 c2                	cmp    %eax,%edx
    54ca:	7f 0f                	jg     54db <safe_lshift_func_int16_t_s_s+0x49>
    54cc:	0f bf 55 fc          	movswl -0x4(%rbp),%edx
    54d0:	8b 45 f8             	mov    -0x8(%rbp),%eax
    54d3:	89 c1                	mov    %eax,%ecx
    54d5:	d3 e2                	shl    %cl,%edx
    54d7:	89 d0                	mov    %edx,%eax
    54d9:	eb 04                	jmp    54df <safe_lshift_func_int16_t_s_s+0x4d>
    54db:	0f b7 45 fc          	movzwl -0x4(%rbp),%eax
    54df:	5d                   	pop    %rbp
    54e0:	c3                   	retq   

00000000000054e1 <safe_lshift_func_int16_t_s_u>:
    54e1:	f3 0f 1e fa          	endbr64 
    54e5:	55                   	push   %rbp
    54e6:	48 89 e5             	mov    %rsp,%rbp
    54e9:	89 f8                	mov    %edi,%eax
    54eb:	89 75 f8             	mov    %esi,-0x8(%rbp)
    54ee:	66 89 45 fc          	mov    %ax,-0x4(%rbp)
    54f2:	66 83 7d fc 00       	cmpw   $0x0,-0x4(%rbp)
    54f7:	78 2b                	js     5524 <safe_lshift_func_int16_t_s_u+0x43>
    54f9:	83 7d f8 1f          	cmpl   $0x1f,-0x8(%rbp)
    54fd:	77 25                	ja     5524 <safe_lshift_func_int16_t_s_u+0x43>
    54ff:	0f bf 55 fc          	movswl -0x4(%rbp),%edx
    5503:	8b 45 f8             	mov    -0x8(%rbp),%eax
    5506:	be ff 7f 00 00       	mov    $0x7fff,%esi
    550b:	89 c1                	mov    %eax,%ecx
    550d:	d3 fe                	sar    %cl,%esi
    550f:	89 f0                	mov    %esi,%eax
    5511:	39 c2                	cmp    %eax,%edx
    5513:	7f 0f                	jg     5524 <safe_lshift_func_int16_t_s_u+0x43>
    5515:	0f bf 55 fc          	movswl -0x4(%rbp),%edx
    5519:	8b 45 f8             	mov    -0x8(%rbp),%eax
    551c:	89 c1                	mov    %eax,%ecx
    551e:	d3 e2                	shl    %cl,%edx
    5520:	89 d0                	mov    %edx,%eax
    5522:	eb 04                	jmp    5528 <safe_lshift_func_int16_t_s_u+0x47>
    5524:	0f b7 45 fc          	movzwl -0x4(%rbp),%eax
    5528:	5d                   	pop    %rbp
    5529:	c3                   	retq   

000000000000552a <safe_rshift_func_int16_t_s_s>:
    552a:	f3 0f 1e fa          	endbr64 
    552e:	55                   	push   %rbp
    552f:	48 89 e5             	mov    %rsp,%rbp
    5532:	89 f8                	mov    %edi,%eax
    5534:	89 75 f8             	mov    %esi,-0x8(%rbp)
    5537:	66 89 45 fc          	mov    %ax,-0x4(%rbp)
    553b:	66 83 7d fc 00       	cmpw   $0x0,-0x4(%rbp)
    5540:	78 1b                	js     555d <safe_rshift_func_int16_t_s_s+0x33>
    5542:	83 7d f8 00          	cmpl   $0x0,-0x8(%rbp)
    5546:	78 15                	js     555d <safe_rshift_func_int16_t_s_s+0x33>
    5548:	83 7d f8 1f          	cmpl   $0x1f,-0x8(%rbp)
    554c:	7f 0f                	jg     555d <safe_rshift_func_int16_t_s_s+0x33>
    554e:	0f bf 55 fc          	movswl -0x4(%rbp),%edx
    5552:	8b 45 f8             	mov    -0x8(%rbp),%eax
    5555:	89 c1                	mov    %eax,%ecx
    5557:	d3 fa                	sar    %cl,%edx
    5559:	89 d0                	mov    %edx,%eax
    555b:	eb 04                	jmp    5561 <safe_rshift_func_int16_t_s_s+0x37>
    555d:	0f b7 45 fc          	movzwl -0x4(%rbp),%eax
    5561:	5d                   	pop    %rbp
    5562:	c3                   	retq   

0000000000005563 <safe_rshift_func_int16_t_s_u>:
    5563:	f3 0f 1e fa          	endbr64 
    5567:	55                   	push   %rbp
    5568:	48 89 e5             	mov    %rsp,%rbp
    556b:	89 f8                	mov    %edi,%eax
    556d:	89 75 f8             	mov    %esi,-0x8(%rbp)
    5570:	66 89 45 fc          	mov    %ax,-0x4(%rbp)
    5574:	66 83 7d fc 00       	cmpw   $0x0,-0x4(%rbp)
    5579:	78 15                	js     5590 <safe_rshift_func_int16_t_s_u+0x2d>
    557b:	83 7d f8 1f          	cmpl   $0x1f,-0x8(%rbp)
    557f:	77 0f                	ja     5590 <safe_rshift_func_int16_t_s_u+0x2d>
    5581:	0f bf 55 fc          	movswl -0x4(%rbp),%edx
    5585:	8b 45 f8             	mov    -0x8(%rbp),%eax
    5588:	89 c1                	mov    %eax,%ecx
    558a:	d3 fa                	sar    %cl,%edx
    558c:	89 d0                	mov    %edx,%eax
    558e:	eb 04                	jmp    5594 <safe_rshift_func_int16_t_s_u+0x31>
    5590:	0f b7 45 fc          	movzwl -0x4(%rbp),%eax
    5594:	5d                   	pop    %rbp
    5595:	c3                   	retq   

0000000000005596 <safe_unary_minus_func_int32_t_s>:
    5596:	f3 0f 1e fa          	endbr64 
    559a:	55                   	push   %rbp
    559b:	48 89 e5             	mov    %rsp,%rbp
    559e:	89 7d fc             	mov    %edi,-0x4(%rbp)
    55a1:	81 7d fc 00 00 00 80 	cmpl   $0x80000000,-0x4(%rbp)
    55a8:	74 07                	je     55b1 <safe_unary_minus_func_int32_t_s+0x1b>
    55aa:	8b 45 fc             	mov    -0x4(%rbp),%eax
    55ad:	f7 d8                	neg    %eax
    55af:	eb 03                	jmp    55b4 <safe_unary_minus_func_int32_t_s+0x1e>
    55b1:	8b 45 fc             	mov    -0x4(%rbp),%eax
    55b4:	5d                   	pop    %rbp
    55b5:	c3                   	retq   

00000000000055b6 <safe_add_func_int32_t_s_s>:
    55b6:	f3 0f 1e fa          	endbr64 
    55ba:	55                   	push   %rbp
    55bb:	48 89 e5             	mov    %rsp,%rbp
    55be:	89 7d fc             	mov    %edi,-0x4(%rbp)
    55c1:	89 75 f8             	mov    %esi,-0x8(%rbp)
    55c4:	83 7d fc 00          	cmpl   $0x0,-0x4(%rbp)
    55c8:	7e 13                	jle    55dd <safe_add_func_int32_t_s_s+0x27>
    55ca:	83 7d f8 00          	cmpl   $0x0,-0x8(%rbp)
    55ce:	7e 0d                	jle    55dd <safe_add_func_int32_t_s_s+0x27>
    55d0:	b8 ff ff ff 7f       	mov    $0x7fffffff,%eax
    55d5:	2b 45 f8             	sub    -0x8(%rbp),%eax
    55d8:	39 45 fc             	cmp    %eax,-0x4(%rbp)
    55db:	7f 23                	jg     5600 <safe_add_func_int32_t_s_s+0x4a>
    55dd:	83 7d fc 00          	cmpl   $0x0,-0x4(%rbp)
    55e1:	79 13                	jns    55f6 <safe_add_func_int32_t_s_s+0x40>
    55e3:	83 7d f8 00          	cmpl   $0x0,-0x8(%rbp)
    55e7:	79 0d                	jns    55f6 <safe_add_func_int32_t_s_s+0x40>
    55e9:	b8 00 00 00 80       	mov    $0x80000000,%eax
    55ee:	2b 45 f8             	sub    -0x8(%rbp),%eax
    55f1:	39 45 fc             	cmp    %eax,-0x4(%rbp)
    55f4:	7c 0a                	jl     5600 <safe_add_func_int32_t_s_s+0x4a>
    55f6:	8b 55 fc             	mov    -0x4(%rbp),%edx
    55f9:	8b 45 f8             	mov    -0x8(%rbp),%eax
    55fc:	01 d0                	add    %edx,%eax
    55fe:	eb 03                	jmp    5603 <safe_add_func_int32_t_s_s+0x4d>
    5600:	8b 45 fc             	mov    -0x4(%rbp),%eax
    5603:	5d                   	pop    %rbp
    5604:	c3                   	retq   

0000000000005605 <safe_sub_func_int32_t_s_s>:
    5605:	f3 0f 1e fa          	endbr64 
    5609:	55                   	push   %rbp
    560a:	48 89 e5             	mov    %rsp,%rbp
    560d:	89 7d fc             	mov    %edi,-0x4(%rbp)
    5610:	89 75 f8             	mov    %esi,-0x8(%rbp)
    5613:	8b 45 fc             	mov    -0x4(%rbp),%eax
    5616:	33 45 f8             	xor    -0x8(%rbp),%eax
    5619:	89 c2                	mov    %eax,%edx
    561b:	8b 45 fc             	mov    -0x4(%rbp),%eax
    561e:	33 45 f8             	xor    -0x8(%rbp),%eax
    5621:	25 00 00 00 80       	and    $0x80000000,%eax
    5626:	33 45 fc             	xor    -0x4(%rbp),%eax
    5629:	2b 45 f8             	sub    -0x8(%rbp),%eax
    562c:	33 45 f8             	xor    -0x8(%rbp),%eax
    562f:	21 d0                	and    %edx,%eax
    5631:	85 c0                	test   %eax,%eax
    5633:	78 08                	js     563d <safe_sub_func_int32_t_s_s+0x38>
    5635:	8b 45 fc             	mov    -0x4(%rbp),%eax
    5638:	2b 45 f8             	sub    -0x8(%rbp),%eax
    563b:	eb 03                	jmp    5640 <safe_sub_func_int32_t_s_s+0x3b>
    563d:	8b 45 fc             	mov    -0x4(%rbp),%eax
    5640:	5d                   	pop    %rbp
    5641:	c3                   	retq   

0000000000005642 <safe_mul_func_int32_t_s_s>:
    5642:	f3 0f 1e fa          	endbr64 
    5646:	55                   	push   %rbp
    5647:	48 89 e5             	mov    %rsp,%rbp
    564a:	89 7d fc             	mov    %edi,-0x4(%rbp)
    564d:	89 75 f8             	mov    %esi,-0x8(%rbp)
    5650:	83 7d fc 00          	cmpl   $0x0,-0x4(%rbp)
    5654:	7e 14                	jle    566a <safe_mul_func_int32_t_s_s+0x28>
    5656:	83 7d f8 00          	cmpl   $0x0,-0x8(%rbp)
    565a:	7e 0e                	jle    566a <safe_mul_func_int32_t_s_s+0x28>
    565c:	b8 ff ff ff 7f       	mov    $0x7fffffff,%eax
    5661:	99                   	cltd   
    5662:	f7 7d f8             	idivl  -0x8(%rbp)
    5665:	39 45 fc             	cmp    %eax,-0x4(%rbp)
    5668:	7f 5d                	jg     56c7 <safe_mul_func_int32_t_s_s+0x85>
    566a:	83 7d fc 00          	cmpl   $0x0,-0x4(%rbp)
    566e:	7e 14                	jle    5684 <safe_mul_func_int32_t_s_s+0x42>
    5670:	83 7d f8 00          	cmpl   $0x0,-0x8(%rbp)
    5674:	7f 0e                	jg     5684 <safe_mul_func_int32_t_s_s+0x42>
    5676:	b8 00 00 00 80       	mov    $0x80000000,%eax
    567b:	99                   	cltd   
    567c:	f7 7d fc             	idivl  -0x4(%rbp)
    567f:	39 45 f8             	cmp    %eax,-0x8(%rbp)
    5682:	7c 43                	jl     56c7 <safe_mul_func_int32_t_s_s+0x85>
    5684:	83 7d fc 00          	cmpl   $0x0,-0x4(%rbp)
    5688:	7f 14                	jg     569e <safe_mul_func_int32_t_s_s+0x5c>
    568a:	83 7d f8 00          	cmpl   $0x0,-0x8(%rbp)
    568e:	7e 0e                	jle    569e <safe_mul_func_int32_t_s_s+0x5c>
    5690:	b8 00 00 00 80       	mov    $0x80000000,%eax
    5695:	99                   	cltd   
    5696:	f7 7d f8             	idivl  -0x8(%rbp)
    5699:	39 45 fc             	cmp    %eax,-0x4(%rbp)
    569c:	7c 29                	jl     56c7 <safe_mul_func_int32_t_s_s+0x85>
    569e:	83 7d fc 00          	cmpl   $0x0,-0x4(%rbp)
    56a2:	7f 1a                	jg     56be <safe_mul_func_int32_t_s_s+0x7c>
    56a4:	83 7d f8 00          	cmpl   $0x0,-0x8(%rbp)
    56a8:	7f 14                	jg     56be <safe_mul_func_int32_t_s_s+0x7c>
    56aa:	83 7d fc 00          	cmpl   $0x0,-0x4(%rbp)
    56ae:	74 0e                	je     56be <safe_mul_func_int32_t_s_s+0x7c>
    56b0:	b8 ff ff ff 7f       	mov    $0x7fffffff,%eax
    56b5:	99                   	cltd   
    56b6:	f7 7d fc             	idivl  -0x4(%rbp)
    56b9:	39 45 f8             	cmp    %eax,-0x8(%rbp)
    56bc:	7c 09                	jl     56c7 <safe_mul_func_int32_t_s_s+0x85>
    56be:	8b 45 fc             	mov    -0x4(%rbp),%eax
    56c1:	0f af 45 f8          	imul   -0x8(%rbp),%eax
    56c5:	eb 03                	jmp    56ca <safe_mul_func_int32_t_s_s+0x88>
    56c7:	8b 45 fc             	mov    -0x4(%rbp),%eax
    56ca:	5d                   	pop    %rbp
    56cb:	c3                   	retq   

00000000000056cc <safe_mod_func_int32_t_s_s>:
    56cc:	f3 0f 1e fa          	endbr64 
    56d0:	55                   	push   %rbp
    56d1:	48 89 e5             	mov    %rsp,%rbp
    56d4:	89 7d fc             	mov    %edi,-0x4(%rbp)
    56d7:	89 75 f8             	mov    %esi,-0x8(%rbp)
    56da:	83 7d f8 00          	cmpl   $0x0,-0x8(%rbp)
    56de:	74 1a                	je     56fa <safe_mod_func_int32_t_s_s+0x2e>
    56e0:	81 7d fc 00 00 00 80 	cmpl   $0x80000000,-0x4(%rbp)
    56e7:	75 06                	jne    56ef <safe_mod_func_int32_t_s_s+0x23>
    56e9:	83 7d f8 ff          	cmpl   $0xffffffff,-0x8(%rbp)
    56ed:	74 0b                	je     56fa <safe_mod_func_int32_t_s_s+0x2e>
    56ef:	8b 45 fc             	mov    -0x4(%rbp),%eax
    56f2:	99                   	cltd   
    56f3:	f7 7d f8             	idivl  -0x8(%rbp)
    56f6:	89 d0                	mov    %edx,%eax
    56f8:	eb 03                	jmp    56fd <safe_mod_func_int32_t_s_s+0x31>
    56fa:	8b 45 fc             	mov    -0x4(%rbp),%eax
    56fd:	5d                   	pop    %rbp
    56fe:	c3                   	retq   

00000000000056ff <safe_div_func_int32_t_s_s>:
    56ff:	f3 0f 1e fa          	endbr64 
    5703:	55                   	push   %rbp
    5704:	48 89 e5             	mov    %rsp,%rbp
    5707:	89 7d fc             	mov    %edi,-0x4(%rbp)
    570a:	89 75 f8             	mov    %esi,-0x8(%rbp)
    570d:	83 7d f8 00          	cmpl   $0x0,-0x8(%rbp)
    5711:	74 18                	je     572b <safe_div_func_int32_t_s_s+0x2c>
    5713:	81 7d fc 00 00 00 80 	cmpl   $0x80000000,-0x4(%rbp)
    571a:	75 06                	jne    5722 <safe_div_func_int32_t_s_s+0x23>
    571c:	83 7d f8 ff          	cmpl   $0xffffffff,-0x8(%rbp)
    5720:	74 09                	je     572b <safe_div_func_int32_t_s_s+0x2c>
    5722:	8b 45 fc             	mov    -0x4(%rbp),%eax
    5725:	99                   	cltd   
    5726:	f7 7d f8             	idivl  -0x8(%rbp)
    5729:	eb 03                	jmp    572e <safe_div_func_int32_t_s_s+0x2f>
    572b:	8b 45 fc             	mov    -0x4(%rbp),%eax
    572e:	5d                   	pop    %rbp
    572f:	c3                   	retq   

0000000000005730 <safe_lshift_func_int32_t_s_s>:
    5730:	f3 0f 1e fa          	endbr64 
    5734:	55                   	push   %rbp
    5735:	48 89 e5             	mov    %rsp,%rbp
    5738:	89 7d fc             	mov    %edi,-0x4(%rbp)
    573b:	89 75 f8             	mov    %esi,-0x8(%rbp)
    573e:	83 7d fc 00          	cmpl   $0x0,-0x4(%rbp)
    5742:	78 2d                	js     5771 <safe_lshift_func_int32_t_s_s+0x41>
    5744:	83 7d f8 00          	cmpl   $0x0,-0x8(%rbp)
    5748:	78 27                	js     5771 <safe_lshift_func_int32_t_s_s+0x41>
    574a:	83 7d f8 1f          	cmpl   $0x1f,-0x8(%rbp)
    574e:	7f 21                	jg     5771 <safe_lshift_func_int32_t_s_s+0x41>
    5750:	8b 45 f8             	mov    -0x8(%rbp),%eax
    5753:	ba ff ff ff 7f       	mov    $0x7fffffff,%edx
    5758:	89 c1                	mov    %eax,%ecx
    575a:	d3 fa                	sar    %cl,%edx
    575c:	89 d0                	mov    %edx,%eax
    575e:	39 45 fc             	cmp    %eax,-0x4(%rbp)
    5761:	7f 0e                	jg     5771 <safe_lshift_func_int32_t_s_s+0x41>
    5763:	8b 45 f8             	mov    -0x8(%rbp),%eax
    5766:	8b 55 fc             	mov    -0x4(%rbp),%edx
    5769:	89 c1                	mov    %eax,%ecx
    576b:	d3 e2                	shl    %cl,%edx
    576d:	89 d0                	mov    %edx,%eax
    576f:	eb 03                	jmp    5774 <safe_lshift_func_int32_t_s_s+0x44>
    5771:	8b 45 fc             	mov    -0x4(%rbp),%eax
    5774:	5d                   	pop    %rbp
    5775:	c3                   	retq   

0000000000005776 <safe_lshift_func_int32_t_s_u>:
    5776:	f3 0f 1e fa          	endbr64 
    577a:	55                   	push   %rbp
    577b:	48 89 e5             	mov    %rsp,%rbp
    577e:	89 7d fc             	mov    %edi,-0x4(%rbp)
    5781:	89 75 f8             	mov    %esi,-0x8(%rbp)
    5784:	83 7d fc 00          	cmpl   $0x0,-0x4(%rbp)
    5788:	78 27                	js     57b1 <safe_lshift_func_int32_t_s_u+0x3b>
    578a:	83 7d f8 1f          	cmpl   $0x1f,-0x8(%rbp)
    578e:	77 21                	ja     57b1 <safe_lshift_func_int32_t_s_u+0x3b>
    5790:	8b 45 f8             	mov    -0x8(%rbp),%eax
    5793:	ba ff ff ff 7f       	mov    $0x7fffffff,%edx
    5798:	89 c1                	mov    %eax,%ecx
    579a:	d3 fa                	sar    %cl,%edx
    579c:	89 d0                	mov    %edx,%eax
    579e:	39 45 fc             	cmp    %eax,-0x4(%rbp)
    57a1:	7f 0e                	jg     57b1 <safe_lshift_func_int32_t_s_u+0x3b>
    57a3:	8b 45 f8             	mov    -0x8(%rbp),%eax
    57a6:	8b 55 fc             	mov    -0x4(%rbp),%edx
    57a9:	89 c1                	mov    %eax,%ecx
    57ab:	d3 e2                	shl    %cl,%edx
    57ad:	89 d0                	mov    %edx,%eax
    57af:	eb 03                	jmp    57b4 <safe_lshift_func_int32_t_s_u+0x3e>
    57b1:	8b 45 fc             	mov    -0x4(%rbp),%eax
    57b4:	5d                   	pop    %rbp
    57b5:	c3                   	retq   

00000000000057b6 <safe_rshift_func_int32_t_s_s>:
    57b6:	f3 0f 1e fa          	endbr64 
    57ba:	55                   	push   %rbp
    57bb:	48 89 e5             	mov    %rsp,%rbp
    57be:	89 7d fc             	mov    %edi,-0x4(%rbp)
    57c1:	89 75 f8             	mov    %esi,-0x8(%rbp)
    57c4:	83 7d fc 00          	cmpl   $0x0,-0x4(%rbp)
    57c8:	78 1a                	js     57e4 <safe_rshift_func_int32_t_s_s+0x2e>
    57ca:	83 7d f8 00          	cmpl   $0x0,-0x8(%rbp)
    57ce:	78 14                	js     57e4 <safe_rshift_func_int32_t_s_s+0x2e>
    57d0:	83 7d f8 1f          	cmpl   $0x1f,-0x8(%rbp)
    57d4:	7f 0e                	jg     57e4 <safe_rshift_func_int32_t_s_s+0x2e>
    57d6:	8b 45 f8             	mov    -0x8(%rbp),%eax
    57d9:	8b 55 fc             	mov    -0x4(%rbp),%edx
    57dc:	89 c1                	mov    %eax,%ecx
    57de:	d3 fa                	sar    %cl,%edx
    57e0:	89 d0                	mov    %edx,%eax
    57e2:	eb 03                	jmp    57e7 <safe_rshift_func_int32_t_s_s+0x31>
    57e4:	8b 45 fc             	mov    -0x4(%rbp),%eax
    57e7:	5d                   	pop    %rbp
    57e8:	c3                   	retq   

00000000000057e9 <safe_rshift_func_int32_t_s_u>:
    57e9:	f3 0f 1e fa          	endbr64 
    57ed:	55                   	push   %rbp
    57ee:	48 89 e5             	mov    %rsp,%rbp
    57f1:	89 7d fc             	mov    %edi,-0x4(%rbp)
    57f4:	89 75 f8             	mov    %esi,-0x8(%rbp)
    57f7:	83 7d fc 00          	cmpl   $0x0,-0x4(%rbp)
    57fb:	78 14                	js     5811 <safe_rshift_func_int32_t_s_u+0x28>
    57fd:	83 7d f8 1f          	cmpl   $0x1f,-0x8(%rbp)
    5801:	77 0e                	ja     5811 <safe_rshift_func_int32_t_s_u+0x28>
    5803:	8b 45 f8             	mov    -0x8(%rbp),%eax
    5806:	8b 55 fc             	mov    -0x4(%rbp),%edx
    5809:	89 c1                	mov    %eax,%ecx
    580b:	d3 fa                	sar    %cl,%edx
    580d:	89 d0                	mov    %edx,%eax
    580f:	eb 03                	jmp    5814 <safe_rshift_func_int32_t_s_u+0x2b>
    5811:	8b 45 fc             	mov    -0x4(%rbp),%eax
    5814:	5d                   	pop    %rbp
    5815:	c3                   	retq   

0000000000005816 <safe_unary_minus_func_int64_t_s>:
    5816:	f3 0f 1e fa          	endbr64 
    581a:	55                   	push   %rbp
    581b:	48 89 e5             	mov    %rsp,%rbp
    581e:	48 89 7d f8          	mov    %rdi,-0x8(%rbp)
    5822:	48 b8 00 00 00 00 00 	movabs $0x8000000000000000,%rax
    5829:	00 00 80 
    582c:	48 39 45 f8          	cmp    %rax,-0x8(%rbp)
    5830:	74 09                	je     583b <safe_unary_minus_func_int64_t_s+0x25>
    5832:	48 8b 45 f8          	mov    -0x8(%rbp),%rax
    5836:	48 f7 d8             	neg    %rax
    5839:	eb 04                	jmp    583f <safe_unary_minus_func_int64_t_s+0x29>
    583b:	48 8b 45 f8          	mov    -0x8(%rbp),%rax
    583f:	5d                   	pop    %rbp
    5840:	c3                   	retq   

0000000000005841 <safe_add_func_int64_t_s_s>:
    5841:	f3 0f 1e fa          	endbr64 
    5845:	55                   	push   %rbp
    5846:	48 89 e5             	mov    %rsp,%rbp
    5849:	48 89 7d f8          	mov    %rdi,-0x8(%rbp)
    584d:	48 89 75 f0          	mov    %rsi,-0x10(%rbp)
    5851:	48 83 7d f8 00       	cmpq   $0x0,-0x8(%rbp)
    5856:	7e 1b                	jle    5873 <safe_add_func_int64_t_s_s+0x32>
    5858:	48 83 7d f0 00       	cmpq   $0x0,-0x10(%rbp)
    585d:	7e 14                	jle    5873 <safe_add_func_int64_t_s_s+0x32>
    585f:	48 b8 ff ff ff ff ff 	movabs $0x7fffffffffffffff,%rax
    5866:	ff ff 7f 
    5869:	48 2b 45 f0          	sub    -0x10(%rbp),%rax
    586d:	48 39 45 f8          	cmp    %rax,-0x8(%rbp)
    5871:	7f 2f                	jg     58a2 <safe_add_func_int64_t_s_s+0x61>
    5873:	48 83 7d f8 00       	cmpq   $0x0,-0x8(%rbp)
    5878:	79 1b                	jns    5895 <safe_add_func_int64_t_s_s+0x54>
    587a:	48 83 7d f0 00       	cmpq   $0x0,-0x10(%rbp)
    587f:	79 14                	jns    5895 <safe_add_func_int64_t_s_s+0x54>
    5881:	48 b8 00 00 00 00 00 	movabs $0x8000000000000000,%rax
    5888:	00 00 80 
    588b:	48 2b 45 f0          	sub    -0x10(%rbp),%rax
    588f:	48 39 45 f8          	cmp    %rax,-0x8(%rbp)
    5893:	7c 0d                	jl     58a2 <safe_add_func_int64_t_s_s+0x61>
    5895:	48 8b 55 f8          	mov    -0x8(%rbp),%rdx
    5899:	48 8b 45 f0          	mov    -0x10(%rbp),%rax
    589d:	48 01 d0             	add    %rdx,%rax
    58a0:	eb 04                	jmp    58a6 <safe_add_func_int64_t_s_s+0x65>
    58a2:	48 8b 45 f8          	mov    -0x8(%rbp),%rax
    58a6:	5d                   	pop    %rbp
    58a7:	c3                   	retq   

00000000000058a8 <safe_sub_func_int64_t_s_s>:
    58a8:	f3 0f 1e fa          	endbr64 
    58ac:	55                   	push   %rbp
    58ad:	48 89 e5             	mov    %rsp,%rbp
    58b0:	48 89 7d f8          	mov    %rdi,-0x8(%rbp)
    58b4:	48 89 75 f0          	mov    %rsi,-0x10(%rbp)
    58b8:	48 8b 45 f8          	mov    -0x8(%rbp),%rax
    58bc:	48 33 45 f0          	xor    -0x10(%rbp),%rax
    58c0:	48 89 c2             	mov    %rax,%rdx
    58c3:	48 8b 45 f8          	mov    -0x8(%rbp),%rax
    58c7:	48 33 45 f0          	xor    -0x10(%rbp),%rax
    58cb:	48 b9 00 00 00 00 00 	movabs $0x8000000000000000,%rcx
    58d2:	00 00 80 
    58d5:	48 21 c8             	and    %rcx,%rax
    58d8:	48 33 45 f8          	xor    -0x8(%rbp),%rax
    58dc:	48 2b 45 f0          	sub    -0x10(%rbp),%rax
    58e0:	48 33 45 f0          	xor    -0x10(%rbp),%rax
    58e4:	48 21 d0             	and    %rdx,%rax
    58e7:	48 85 c0             	test   %rax,%rax
    58ea:	78 0a                	js     58f6 <safe_sub_func_int64_t_s_s+0x4e>
    58ec:	48 8b 45 f8          	mov    -0x8(%rbp),%rax
    58f0:	48 2b 45 f0          	sub    -0x10(%rbp),%rax
    58f4:	eb 04                	jmp    58fa <safe_sub_func_int64_t_s_s+0x52>
    58f6:	48 8b 45 f8          	mov    -0x8(%rbp),%rax
    58fa:	5d                   	pop    %rbp
    58fb:	c3                   	retq   

00000000000058fc <safe_mul_func_int64_t_s_s>:
    58fc:	f3 0f 1e fa          	endbr64 
    5900:	55                   	push   %rbp
    5901:	48 89 e5             	mov    %rsp,%rbp
    5904:	48 89 7d f8          	mov    %rdi,-0x8(%rbp)
    5908:	48 89 75 f0          	mov    %rsi,-0x10(%rbp)
    590c:	48 83 7d f8 00       	cmpq   $0x0,-0x8(%rbp)
    5911:	7e 1d                	jle    5930 <safe_mul_func_int64_t_s_s+0x34>
    5913:	48 83 7d f0 00       	cmpq   $0x0,-0x10(%rbp)
    5918:	7e 16                	jle    5930 <safe_mul_func_int64_t_s_s+0x34>
    591a:	48 b8 ff ff ff ff ff 	movabs $0x7fffffffffffffff,%rax
    5921:	ff ff 7f 
    5924:	48 99                	cqto   
    5926:	48 f7 7d f0          	idivq  -0x10(%rbp)
    592a:	48 39 45 f8          	cmp    %rax,-0x8(%rbp)
    592e:	7f 7e                	jg     59ae <safe_mul_func_int64_t_s_s+0xb2>
    5930:	48 83 7d f8 00       	cmpq   $0x0,-0x8(%rbp)
    5935:	7e 1d                	jle    5954 <safe_mul_func_int64_t_s_s+0x58>
    5937:	48 83 7d f0 00       	cmpq   $0x0,-0x10(%rbp)
    593c:	7f 16                	jg     5954 <safe_mul_func_int64_t_s_s+0x58>
    593e:	48 b8 00 00 00 00 00 	movabs $0x8000000000000000,%rax
    5945:	00 00 80 
    5948:	48 99                	cqto   
    594a:	48 f7 7d f8          	idivq  -0x8(%rbp)
    594e:	48 39 45 f0          	cmp    %rax,-0x10(%rbp)
    5952:	7c 5a                	jl     59ae <safe_mul_func_int64_t_s_s+0xb2>
    5954:	48 83 7d f8 00       	cmpq   $0x0,-0x8(%rbp)
    5959:	7f 1d                	jg     5978 <safe_mul_func_int64_t_s_s+0x7c>
    595b:	48 83 7d f0 00       	cmpq   $0x0,-0x10(%rbp)
    5960:	7e 16                	jle    5978 <safe_mul_func_int64_t_s_s+0x7c>
    5962:	48 b8 00 00 00 00 00 	movabs $0x8000000000000000,%rax
    5969:	00 00 80 
    596c:	48 99                	cqto   
    596e:	48 f7 7d f0          	idivq  -0x10(%rbp)
    5972:	48 39 45 f8          	cmp    %rax,-0x8(%rbp)
    5976:	7c 36                	jl     59ae <safe_mul_func_int64_t_s_s+0xb2>
    5978:	48 83 7d f8 00       	cmpq   $0x0,-0x8(%rbp)
    597d:	7f 24                	jg     59a3 <safe_mul_func_int64_t_s_s+0xa7>
    597f:	48 83 7d f0 00       	cmpq   $0x0,-0x10(%rbp)
    5984:	7f 1d                	jg     59a3 <safe_mul_func_int64_t_s_s+0xa7>
    5986:	48 83 7d f8 00       	cmpq   $0x0,-0x8(%rbp)
    598b:	74 16                	je     59a3 <safe_mul_func_int64_t_s_s+0xa7>
    598d:	48 b8 ff ff ff ff ff 	movabs $0x7fffffffffffffff,%rax
    5994:	ff ff 7f 
    5997:	48 99                	cqto   
    5999:	48 f7 7d f8          	idivq  -0x8(%rbp)
    599d:	48 39 45 f0          	cmp    %rax,-0x10(%rbp)
    59a1:	7c 0b                	jl     59ae <safe_mul_func_int64_t_s_s+0xb2>
    59a3:	48 8b 45 f8          	mov    -0x8(%rbp),%rax
    59a7:	48 0f af 45 f0       	imul   -0x10(%rbp),%rax
    59ac:	eb 04                	jmp    59b2 <safe_mul_func_int64_t_s_s+0xb6>
    59ae:	48 8b 45 f8          	mov    -0x8(%rbp),%rax
    59b2:	5d                   	pop    %rbp
    59b3:	c3                   	retq   

00000000000059b4 <safe_mod_func_int64_t_s_s>:
    59b4:	f3 0f 1e fa          	endbr64 
    59b8:	55                   	push   %rbp
    59b9:	48 89 e5             	mov    %rsp,%rbp
    59bc:	48 89 7d f8          	mov    %rdi,-0x8(%rbp)
    59c0:	48 89 75 f0          	mov    %rsi,-0x10(%rbp)
    59c4:	48 83 7d f0 00       	cmpq   $0x0,-0x10(%rbp)
    59c9:	74 26                	je     59f1 <safe_mod_func_int64_t_s_s+0x3d>
    59cb:	48 b8 00 00 00 00 00 	movabs $0x8000000000000000,%rax
    59d2:	00 00 80 
    59d5:	48 39 45 f8          	cmp    %rax,-0x8(%rbp)
    59d9:	75 07                	jne    59e2 <safe_mod_func_int64_t_s_s+0x2e>
    59db:	48 83 7d f0 ff       	cmpq   $0xffffffffffffffff,-0x10(%rbp)
    59e0:	74 0f                	je     59f1 <safe_mod_func_int64_t_s_s+0x3d>
    59e2:	48 8b 45 f8          	mov    -0x8(%rbp),%rax
    59e6:	48 99                	cqto   
    59e8:	48 f7 7d f0          	idivq  -0x10(%rbp)
    59ec:	48 89 d0             	mov    %rdx,%rax
    59ef:	eb 04                	jmp    59f5 <safe_mod_func_int64_t_s_s+0x41>
    59f1:	48 8b 45 f8          	mov    -0x8(%rbp),%rax
    59f5:	5d                   	pop    %rbp
    59f6:	c3                   	retq   

00000000000059f7 <safe_div_func_int64_t_s_s>:
    59f7:	f3 0f 1e fa          	endbr64 
    59fb:	55                   	push   %rbp
    59fc:	48 89 e5             	mov    %rsp,%rbp
    59ff:	48 89 7d f8          	mov    %rdi,-0x8(%rbp)
    5a03:	48 89 75 f0          	mov    %rsi,-0x10(%rbp)
    5a07:	48 83 7d f0 00       	cmpq   $0x0,-0x10(%rbp)
    5a0c:	74 23                	je     5a31 <safe_div_func_int64_t_s_s+0x3a>
    5a0e:	48 b8 00 00 00 00 00 	movabs $0x8000000000000000,%rax
    5a15:	00 00 80 
    5a18:	48 39 45 f8          	cmp    %rax,-0x8(%rbp)
    5a1c:	75 07                	jne    5a25 <safe_div_func_int64_t_s_s+0x2e>
    5a1e:	48 83 7d f0 ff       	cmpq   $0xffffffffffffffff,-0x10(%rbp)
    5a23:	74 0c                	je     5a31 <safe_div_func_int64_t_s_s+0x3a>
    5a25:	48 8b 45 f8          	mov    -0x8(%rbp),%rax
    5a29:	48 99                	cqto   
    5a2b:	48 f7 7d f0          	idivq  -0x10(%rbp)
    5a2f:	eb 04                	jmp    5a35 <safe_div_func_int64_t_s_s+0x3e>
    5a31:	48 8b 45 f8          	mov    -0x8(%rbp),%rax
    5a35:	5d                   	pop    %rbp
    5a36:	c3                   	retq   

0000000000005a37 <safe_lshift_func_int64_t_s_s>:
    5a37:	f3 0f 1e fa          	endbr64 
    5a3b:	55                   	push   %rbp
    5a3c:	48 89 e5             	mov    %rsp,%rbp
    5a3f:	48 89 7d f8          	mov    %rdi,-0x8(%rbp)
    5a43:	89 75 f4             	mov    %esi,-0xc(%rbp)
    5a46:	48 83 7d f8 00       	cmpq   $0x0,-0x8(%rbp)
    5a4b:	78 38                	js     5a85 <safe_lshift_func_int64_t_s_s+0x4e>
    5a4d:	83 7d f4 00          	cmpl   $0x0,-0xc(%rbp)
    5a51:	78 32                	js     5a85 <safe_lshift_func_int64_t_s_s+0x4e>
    5a53:	83 7d f4 1f          	cmpl   $0x1f,-0xc(%rbp)
    5a57:	7f 2c                	jg     5a85 <safe_lshift_func_int64_t_s_s+0x4e>
    5a59:	8b 45 f4             	mov    -0xc(%rbp),%eax
    5a5c:	48 ba ff ff ff ff ff 	movabs $0x7fffffffffffffff,%rdx
    5a63:	ff ff 7f 
    5a66:	89 c1                	mov    %eax,%ecx
    5a68:	48 d3 fa             	sar    %cl,%rdx
    5a6b:	48 89 d0             	mov    %rdx,%rax
    5a6e:	48 39 45 f8          	cmp    %rax,-0x8(%rbp)
    5a72:	7f 11                	jg     5a85 <safe_lshift_func_int64_t_s_s+0x4e>
    5a74:	8b 45 f4             	mov    -0xc(%rbp),%eax
    5a77:	48 8b 55 f8          	mov    -0x8(%rbp),%rdx
    5a7b:	89 c1                	mov    %eax,%ecx
    5a7d:	48 d3 e2             	shl    %cl,%rdx
    5a80:	48 89 d0             	mov    %rdx,%rax
    5a83:	eb 04                	jmp    5a89 <safe_lshift_func_int64_t_s_s+0x52>
    5a85:	48 8b 45 f8          	mov    -0x8(%rbp),%rax
    5a89:	5d                   	pop    %rbp
    5a8a:	c3                   	retq   

0000000000005a8b <safe_lshift_func_int64_t_s_u>:
    5a8b:	f3 0f 1e fa          	endbr64 
    5a8f:	55                   	push   %rbp
    5a90:	48 89 e5             	mov    %rsp,%rbp
    5a93:	48 89 7d f8          	mov    %rdi,-0x8(%rbp)
    5a97:	89 75 f4             	mov    %esi,-0xc(%rbp)
    5a9a:	48 83 7d f8 00       	cmpq   $0x0,-0x8(%rbp)
    5a9f:	78 32                	js     5ad3 <safe_lshift_func_int64_t_s_u+0x48>
    5aa1:	83 7d f4 1f          	cmpl   $0x1f,-0xc(%rbp)
    5aa5:	77 2c                	ja     5ad3 <safe_lshift_func_int64_t_s_u+0x48>
    5aa7:	8b 45 f4             	mov    -0xc(%rbp),%eax
    5aaa:	48 ba ff ff ff ff ff 	movabs $0x7fffffffffffffff,%rdx
    5ab1:	ff ff 7f 
    5ab4:	89 c1                	mov    %eax,%ecx
    5ab6:	48 d3 fa             	sar    %cl,%rdx
    5ab9:	48 89 d0             	mov    %rdx,%rax
    5abc:	48 39 45 f8          	cmp    %rax,-0x8(%rbp)
    5ac0:	7f 11                	jg     5ad3 <safe_lshift_func_int64_t_s_u+0x48>
    5ac2:	8b 45 f4             	mov    -0xc(%rbp),%eax
    5ac5:	48 8b 55 f8          	mov    -0x8(%rbp),%rdx
    5ac9:	89 c1                	mov    %eax,%ecx
    5acb:	48 d3 e2             	shl    %cl,%rdx
    5ace:	48 89 d0             	mov    %rdx,%rax
    5ad1:	eb 04                	jmp    5ad7 <safe_lshift_func_int64_t_s_u+0x4c>
    5ad3:	48 8b 45 f8          	mov    -0x8(%rbp),%rax
    5ad7:	5d                   	pop    %rbp
    5ad8:	c3                   	retq   

0000000000005ad9 <safe_rshift_func_int64_t_s_s>:
    5ad9:	f3 0f 1e fa          	endbr64 
    5add:	55                   	push   %rbp
    5ade:	48 89 e5             	mov    %rsp,%rbp
    5ae1:	48 89 7d f8          	mov    %rdi,-0x8(%rbp)
    5ae5:	89 75 f4             	mov    %esi,-0xc(%rbp)
    5ae8:	48 83 7d f8 00       	cmpq   $0x0,-0x8(%rbp)
    5aed:	78 1d                	js     5b0c <safe_rshift_func_int64_t_s_s+0x33>
    5aef:	83 7d f4 00          	cmpl   $0x0,-0xc(%rbp)
    5af3:	78 17                	js     5b0c <safe_rshift_func_int64_t_s_s+0x33>
    5af5:	83 7d f4 1f          	cmpl   $0x1f,-0xc(%rbp)
    5af9:	7f 11                	jg     5b0c <safe_rshift_func_int64_t_s_s+0x33>
    5afb:	8b 45 f4             	mov    -0xc(%rbp),%eax
    5afe:	48 8b 55 f8          	mov    -0x8(%rbp),%rdx
    5b02:	89 c1                	mov    %eax,%ecx
    5b04:	48 d3 fa             	sar    %cl,%rdx
    5b07:	48 89 d0             	mov    %rdx,%rax
    5b0a:	eb 04                	jmp    5b10 <safe_rshift_func_int64_t_s_s+0x37>
    5b0c:	48 8b 45 f8          	mov    -0x8(%rbp),%rax
    5b10:	5d                   	pop    %rbp
    5b11:	c3                   	retq   

0000000000005b12 <safe_rshift_func_int64_t_s_u>:
    5b12:	f3 0f 1e fa          	endbr64 
    5b16:	55                   	push   %rbp
    5b17:	48 89 e5             	mov    %rsp,%rbp
    5b1a:	48 89 7d f8          	mov    %rdi,-0x8(%rbp)
    5b1e:	89 75 f4             	mov    %esi,-0xc(%rbp)
    5b21:	48 83 7d f8 00       	cmpq   $0x0,-0x8(%rbp)
    5b26:	78 17                	js     5b3f <safe_rshift_func_int64_t_s_u+0x2d>
    5b28:	83 7d f4 1f          	cmpl   $0x1f,-0xc(%rbp)
    5b2c:	77 11                	ja     5b3f <safe_rshift_func_int64_t_s_u+0x2d>
    5b2e:	8b 45 f4             	mov    -0xc(%rbp),%eax
    5b31:	48 8b 55 f8          	mov    -0x8(%rbp),%rdx
    5b35:	89 c1                	mov    %eax,%ecx
    5b37:	48 d3 fa             	sar    %cl,%rdx
    5b3a:	48 89 d0             	mov    %rdx,%rax
    5b3d:	eb 04                	jmp    5b43 <safe_rshift_func_int64_t_s_u+0x31>
    5b3f:	48 8b 45 f8          	mov    -0x8(%rbp),%rax
    5b43:	5d                   	pop    %rbp
    5b44:	c3                   	retq   

0000000000005b45 <safe_unary_minus_func_uint8_t_u>:
    5b45:	f3 0f 1e fa          	endbr64 
    5b49:	55                   	push   %rbp
    5b4a:	48 89 e5             	mov    %rsp,%rbp
    5b4d:	89 f8                	mov    %edi,%eax
    5b4f:	88 45 fc             	mov    %al,-0x4(%rbp)
    5b52:	0f b6 45 fc          	movzbl -0x4(%rbp),%eax
    5b56:	f7 d8                	neg    %eax
    5b58:	5d                   	pop    %rbp
    5b59:	c3                   	retq   

0000000000005b5a <safe_add_func_uint8_t_u_u>:
    5b5a:	f3 0f 1e fa          	endbr64 
    5b5e:	55                   	push   %rbp
    5b5f:	48 89 e5             	mov    %rsp,%rbp
    5b62:	89 fa                	mov    %edi,%edx
    5b64:	89 f0                	mov    %esi,%eax
    5b66:	88 55 fc             	mov    %dl,-0x4(%rbp)
    5b69:	88 45 f8             	mov    %al,-0x8(%rbp)
    5b6c:	0f b6 55 fc          	movzbl -0x4(%rbp),%edx
    5b70:	0f b6 45 f8          	movzbl -0x8(%rbp),%eax
    5b74:	01 d0                	add    %edx,%eax
    5b76:	5d                   	pop    %rbp
    5b77:	c3                   	retq   

0000000000005b78 <safe_sub_func_uint8_t_u_u>:
    5b78:	f3 0f 1e fa          	endbr64 
    5b7c:	55                   	push   %rbp
    5b7d:	48 89 e5             	mov    %rsp,%rbp
    5b80:	89 fa                	mov    %edi,%edx
    5b82:	89 f0                	mov    %esi,%eax
    5b84:	88 55 fc             	mov    %dl,-0x4(%rbp)
    5b87:	88 45 f8             	mov    %al,-0x8(%rbp)
    5b8a:	0f b6 45 fc          	movzbl -0x4(%rbp),%eax
    5b8e:	2a 45 f8             	sub    -0x8(%rbp),%al
    5b91:	5d                   	pop    %rbp
    5b92:	c3                   	retq   

0000000000005b93 <safe_mul_func_uint8_t_u_u>:
    5b93:	f3 0f 1e fa          	endbr64 
    5b97:	55                   	push   %rbp
    5b98:	48 89 e5             	mov    %rsp,%rbp
    5b9b:	89 fa                	mov    %edi,%edx
    5b9d:	89 f0                	mov    %esi,%eax
    5b9f:	88 55 fc             	mov    %dl,-0x4(%rbp)
    5ba2:	88 45 f8             	mov    %al,-0x8(%rbp)
    5ba5:	0f b6 45 fc          	movzbl -0x4(%rbp),%eax
    5ba9:	f6 65 f8             	mulb   -0x8(%rbp)
    5bac:	5d                   	pop    %rbp
    5bad:	c3                   	retq   

0000000000005bae <safe_mod_func_uint8_t_u_u>:
    5bae:	f3 0f 1e fa          	endbr64 
    5bb2:	55                   	push   %rbp
    5bb3:	48 89 e5             	mov    %rsp,%rbp
    5bb6:	89 fa                	mov    %edi,%edx
    5bb8:	89 f0                	mov    %esi,%eax
    5bba:	88 55 fc             	mov    %dl,-0x4(%rbp)
    5bbd:	88 45 f8             	mov    %al,-0x8(%rbp)
    5bc0:	80 7d f8 00          	cmpb   $0x0,-0x8(%rbp)
    5bc4:	74 0f                	je     5bd5 <safe_mod_func_uint8_t_u_u+0x27>
    5bc6:	0f b6 45 fc          	movzbl -0x4(%rbp),%eax
    5bca:	0f b6 c0             	movzbl %al,%eax
    5bcd:	f6 75 f8             	divb   -0x8(%rbp)
    5bd0:	0f b6 c4             	movzbl %ah,%eax
    5bd3:	eb 04                	jmp    5bd9 <safe_mod_func_uint8_t_u_u+0x2b>
    5bd5:	0f b6 45 fc          	movzbl -0x4(%rbp),%eax
    5bd9:	5d                   	pop    %rbp
    5bda:	c3                   	retq   

0000000000005bdb <safe_div_func_uint8_t_u_u>:
    5bdb:	f3 0f 1e fa          	endbr64 
    5bdf:	55                   	push   %rbp
    5be0:	48 89 e5             	mov    %rsp,%rbp
    5be3:	89 fa                	mov    %edi,%edx
    5be5:	89 f0                	mov    %esi,%eax
    5be7:	88 55 fc             	mov    %dl,-0x4(%rbp)
    5bea:	88 45 f8             	mov    %al,-0x8(%rbp)
    5bed:	80 7d f8 00          	cmpb   $0x0,-0x8(%rbp)
    5bf1:	74 0c                	je     5bff <safe_div_func_uint8_t_u_u+0x24>
    5bf3:	0f b6 45 fc          	movzbl -0x4(%rbp),%eax
    5bf7:	0f b6 c0             	movzbl %al,%eax
    5bfa:	f6 75 f8             	divb   -0x8(%rbp)
    5bfd:	eb 04                	jmp    5c03 <safe_div_func_uint8_t_u_u+0x28>
    5bff:	0f b6 45 fc          	movzbl -0x4(%rbp),%eax
    5c03:	5d                   	pop    %rbp
    5c04:	c3                   	retq   

0000000000005c05 <safe_lshift_func_uint8_t_u_s>:
    5c05:	f3 0f 1e fa          	endbr64 
    5c09:	55                   	push   %rbp
    5c0a:	48 89 e5             	mov    %rsp,%rbp
    5c0d:	89 f8                	mov    %edi,%eax
    5c0f:	89 75 f8             	mov    %esi,-0x8(%rbp)
    5c12:	88 45 fc             	mov    %al,-0x4(%rbp)
    5c15:	83 7d f8 00          	cmpl   $0x0,-0x8(%rbp)
    5c19:	78 2b                	js     5c46 <safe_lshift_func_uint8_t_u_s+0x41>
    5c1b:	83 7d f8 1f          	cmpl   $0x1f,-0x8(%rbp)
    5c1f:	7f 25                	jg     5c46 <safe_lshift_func_uint8_t_u_s+0x41>
    5c21:	0f b6 55 fc          	movzbl -0x4(%rbp),%edx
    5c25:	8b 45 f8             	mov    -0x8(%rbp),%eax
    5c28:	be ff 00 00 00       	mov    $0xff,%esi
    5c2d:	89 c1                	mov    %eax,%ecx
    5c2f:	d3 fe                	sar    %cl,%esi
    5c31:	89 f0                	mov    %esi,%eax
    5c33:	39 c2                	cmp    %eax,%edx
    5c35:	7f 0f                	jg     5c46 <safe_lshift_func_uint8_t_u_s+0x41>
    5c37:	0f b6 55 fc          	movzbl -0x4(%rbp),%edx
    5c3b:	8b 45 f8             	mov    -0x8(%rbp),%eax
    5c3e:	89 c1                	mov    %eax,%ecx
    5c40:	d3 e2                	shl    %cl,%edx
    5c42:	89 d0                	mov    %edx,%eax
    5c44:	eb 04                	jmp    5c4a <safe_lshift_func_uint8_t_u_s+0x45>
    5c46:	0f b6 45 fc          	movzbl -0x4(%rbp),%eax
    5c4a:	5d                   	pop    %rbp
    5c4b:	c3                   	retq   

0000000000005c4c <safe_lshift_func_uint8_t_u_u>:
    5c4c:	f3 0f 1e fa          	endbr64 
    5c50:	55                   	push   %rbp
    5c51:	48 89 e5             	mov    %rsp,%rbp
    5c54:	89 f8                	mov    %edi,%eax
    5c56:	89 75 f8             	mov    %esi,-0x8(%rbp)
    5c59:	88 45 fc             	mov    %al,-0x4(%rbp)
    5c5c:	83 7d f8 1f          	cmpl   $0x1f,-0x8(%rbp)
    5c60:	77 25                	ja     5c87 <safe_lshift_func_uint8_t_u_u+0x3b>
    5c62:	0f b6 55 fc          	movzbl -0x4(%rbp),%edx
    5c66:	8b 45 f8             	mov    -0x8(%rbp),%eax
    5c69:	be ff 00 00 00       	mov    $0xff,%esi
    5c6e:	89 c1                	mov    %eax,%ecx
    5c70:	d3 fe                	sar    %cl,%esi
    5c72:	89 f0                	mov    %esi,%eax
    5c74:	39 c2                	cmp    %eax,%edx
    5c76:	7f 0f                	jg     5c87 <safe_lshift_func_uint8_t_u_u+0x3b>
    5c78:	0f b6 55 fc          	movzbl -0x4(%rbp),%edx
    5c7c:	8b 45 f8             	mov    -0x8(%rbp),%eax
    5c7f:	89 c1                	mov    %eax,%ecx
    5c81:	d3 e2                	shl    %cl,%edx
    5c83:	89 d0                	mov    %edx,%eax
    5c85:	eb 04                	jmp    5c8b <safe_lshift_func_uint8_t_u_u+0x3f>
    5c87:	0f b6 45 fc          	movzbl -0x4(%rbp),%eax
    5c8b:	5d                   	pop    %rbp
    5c8c:	c3                   	retq   

0000000000005c8d <safe_rshift_func_uint8_t_u_s>:
    5c8d:	f3 0f 1e fa          	endbr64 
    5c91:	55                   	push   %rbp
    5c92:	48 89 e5             	mov    %rsp,%rbp
    5c95:	89 f8                	mov    %edi,%eax
    5c97:	89 75 f8             	mov    %esi,-0x8(%rbp)
    5c9a:	88 45 fc             	mov    %al,-0x4(%rbp)
    5c9d:	83 7d f8 00          	cmpl   $0x0,-0x8(%rbp)
    5ca1:	78 15                	js     5cb8 <safe_rshift_func_uint8_t_u_s+0x2b>
    5ca3:	83 7d f8 1f          	cmpl   $0x1f,-0x8(%rbp)
    5ca7:	7f 0f                	jg     5cb8 <safe_rshift_func_uint8_t_u_s+0x2b>
    5ca9:	0f b6 55 fc          	movzbl -0x4(%rbp),%edx
    5cad:	8b 45 f8             	mov    -0x8(%rbp),%eax
    5cb0:	89 c1                	mov    %eax,%ecx
    5cb2:	d3 fa                	sar    %cl,%edx
    5cb4:	89 d0                	mov    %edx,%eax
    5cb6:	eb 04                	jmp    5cbc <safe_rshift_func_uint8_t_u_s+0x2f>
    5cb8:	0f b6 45 fc          	movzbl -0x4(%rbp),%eax
    5cbc:	5d                   	pop    %rbp
    5cbd:	c3                   	retq   

0000000000005cbe <safe_rshift_func_uint8_t_u_u>:
    5cbe:	f3 0f 1e fa          	endbr64 
    5cc2:	55                   	push   %rbp
    5cc3:	48 89 e5             	mov    %rsp,%rbp
    5cc6:	89 f8                	mov    %edi,%eax
    5cc8:	89 75 f8             	mov    %esi,-0x8(%rbp)
    5ccb:	88 45 fc             	mov    %al,-0x4(%rbp)
    5cce:	83 7d f8 1f          	cmpl   $0x1f,-0x8(%rbp)
    5cd2:	77 0f                	ja     5ce3 <safe_rshift_func_uint8_t_u_u+0x25>
    5cd4:	0f b6 55 fc          	movzbl -0x4(%rbp),%edx
    5cd8:	8b 45 f8             	mov    -0x8(%rbp),%eax
    5cdb:	89 c1                	mov    %eax,%ecx
    5cdd:	d3 fa                	sar    %cl,%edx
    5cdf:	89 d0                	mov    %edx,%eax
    5ce1:	eb 04                	jmp    5ce7 <safe_rshift_func_uint8_t_u_u+0x29>
    5ce3:	0f b6 45 fc          	movzbl -0x4(%rbp),%eax
    5ce7:	5d                   	pop    %rbp
    5ce8:	c3                   	retq   

0000000000005ce9 <safe_unary_minus_func_uint16_t_u>:
    5ce9:	f3 0f 1e fa          	endbr64 
    5ced:	55                   	push   %rbp
    5cee:	48 89 e5             	mov    %rsp,%rbp
    5cf1:	89 f8                	mov    %edi,%eax
    5cf3:	66 89 45 fc          	mov    %ax,-0x4(%rbp)
    5cf7:	0f b7 45 fc          	movzwl -0x4(%rbp),%eax
    5cfb:	f7 d8                	neg    %eax
    5cfd:	5d                   	pop    %rbp
    5cfe:	c3                   	retq   

0000000000005cff <safe_add_func_uint16_t_u_u>:
    5cff:	f3 0f 1e fa          	endbr64 
    5d03:	55                   	push   %rbp
    5d04:	48 89 e5             	mov    %rsp,%rbp
    5d07:	89 fa                	mov    %edi,%edx
    5d09:	89 f0                	mov    %esi,%eax
    5d0b:	66 89 55 fc          	mov    %dx,-0x4(%rbp)
    5d0f:	66 89 45 f8          	mov    %ax,-0x8(%rbp)
    5d13:	0f b7 55 fc          	movzwl -0x4(%rbp),%edx
    5d17:	0f b7 45 f8          	movzwl -0x8(%rbp),%eax
    5d1b:	01 d0                	add    %edx,%eax
    5d1d:	5d                   	pop    %rbp
    5d1e:	c3                   	retq   

0000000000005d1f <safe_sub_func_uint16_t_u_u>:
    5d1f:	f3 0f 1e fa          	endbr64 
    5d23:	55                   	push   %rbp
    5d24:	48 89 e5             	mov    %rsp,%rbp
    5d27:	89 fa                	mov    %edi,%edx
    5d29:	89 f0                	mov    %esi,%eax
    5d2b:	66 89 55 fc          	mov    %dx,-0x4(%rbp)
    5d2f:	66 89 45 f8          	mov    %ax,-0x8(%rbp)
    5d33:	0f b7 45 fc          	movzwl -0x4(%rbp),%eax
    5d37:	66 2b 45 f8          	sub    -0x8(%rbp),%ax
    5d3b:	5d                   	pop    %rbp
    5d3c:	c3                   	retq   

0000000000005d3d <safe_mul_func_uint16_t_u_u>:
    5d3d:	f3 0f 1e fa          	endbr64 
    5d41:	55                   	push   %rbp
    5d42:	48 89 e5             	mov    %rsp,%rbp
    5d45:	89 fa                	mov    %edi,%edx
    5d47:	89 f0                	mov    %esi,%eax
    5d49:	66 89 55 fc          	mov    %dx,-0x4(%rbp)
    5d4d:	66 89 45 f8          	mov    %ax,-0x8(%rbp)
    5d51:	0f b7 45 fc          	movzwl -0x4(%rbp),%eax
    5d55:	66 0f af 45 f8       	imul   -0x8(%rbp),%ax
    5d5a:	5d                   	pop    %rbp
    5d5b:	c3                   	retq   

0000000000005d5c <safe_mod_func_uint16_t_u_u>:
    5d5c:	f3 0f 1e fa          	endbr64 
    5d60:	55                   	push   %rbp
    5d61:	48 89 e5             	mov    %rsp,%rbp
    5d64:	89 fa                	mov    %edi,%edx
    5d66:	89 f0                	mov    %esi,%eax
    5d68:	66 89 55 fc          	mov    %dx,-0x4(%rbp)
    5d6c:	66 89 45 f8          	mov    %ax,-0x8(%rbp)
    5d70:	66 83 7d f8 00       	cmpw   $0x0,-0x8(%rbp)
    5d75:	74 11                	je     5d88 <safe_mod_func_uint16_t_u_u+0x2c>
    5d77:	0f b7 45 fc          	movzwl -0x4(%rbp),%eax
    5d7b:	ba 00 00 00 00       	mov    $0x0,%edx
    5d80:	66 f7 75 f8          	divw   -0x8(%rbp)
    5d84:	89 d0                	mov    %edx,%eax
    5d86:	eb 04                	jmp    5d8c <safe_mod_func_uint16_t_u_u+0x30>
    5d88:	0f b7 45 fc          	movzwl -0x4(%rbp),%eax
    5d8c:	5d                   	pop    %rbp
    5d8d:	c3                   	retq   

0000000000005d8e <safe_div_func_uint16_t_u_u>:
    5d8e:	f3 0f 1e fa          	endbr64 
    5d92:	55                   	push   %rbp
    5d93:	48 89 e5             	mov    %rsp,%rbp
    5d96:	89 fa                	mov    %edi,%edx
    5d98:	89 f0                	mov    %esi,%eax
    5d9a:	66 89 55 fc          	mov    %dx,-0x4(%rbp)
    5d9e:	66 89 45 f8          	mov    %ax,-0x8(%rbp)
    5da2:	66 83 7d f8 00       	cmpw   $0x0,-0x8(%rbp)
    5da7:	74 0f                	je     5db8 <safe_div_func_uint16_t_u_u+0x2a>
    5da9:	0f b7 45 fc          	movzwl -0x4(%rbp),%eax
    5dad:	ba 00 00 00 00       	mov    $0x0,%edx
    5db2:	66 f7 75 f8          	divw   -0x8(%rbp)
    5db6:	eb 04                	jmp    5dbc <safe_div_func_uint16_t_u_u+0x2e>
    5db8:	0f b7 45 fc          	movzwl -0x4(%rbp),%eax
    5dbc:	5d                   	pop    %rbp
    5dbd:	c3                   	retq   

0000000000005dbe <safe_lshift_func_uint16_t_u_s>:
    5dbe:	f3 0f 1e fa          	endbr64 
    5dc2:	55                   	push   %rbp
    5dc3:	48 89 e5             	mov    %rsp,%rbp
    5dc6:	89 f8                	mov    %edi,%eax
    5dc8:	89 75 f8             	mov    %esi,-0x8(%rbp)
    5dcb:	66 89 45 fc          	mov    %ax,-0x4(%rbp)
    5dcf:	83 7d f8 00          	cmpl   $0x0,-0x8(%rbp)
    5dd3:	78 2b                	js     5e00 <safe_lshift_func_uint16_t_u_s+0x42>
    5dd5:	83 7d f8 1f          	cmpl   $0x1f,-0x8(%rbp)
    5dd9:	7f 25                	jg     5e00 <safe_lshift_func_uint16_t_u_s+0x42>
    5ddb:	0f b7 55 fc          	movzwl -0x4(%rbp),%edx
    5ddf:	8b 45 f8             	mov    -0x8(%rbp),%eax
    5de2:	be ff ff 00 00       	mov    $0xffff,%esi
    5de7:	89 c1                	mov    %eax,%ecx
    5de9:	d3 fe                	sar    %cl,%esi
    5deb:	89 f0                	mov    %esi,%eax
    5ded:	39 c2                	cmp    %eax,%edx
    5def:	7f 0f                	jg     5e00 <safe_lshift_func_uint16_t_u_s+0x42>
    5df1:	0f b7 55 fc          	movzwl -0x4(%rbp),%edx
    5df5:	8b 45 f8             	mov    -0x8(%rbp),%eax
    5df8:	89 c1                	mov    %eax,%ecx
    5dfa:	d3 e2                	shl    %cl,%edx
    5dfc:	89 d0                	mov    %edx,%eax
    5dfe:	eb 04                	jmp    5e04 <safe_lshift_func_uint16_t_u_s+0x46>
    5e00:	0f b7 45 fc          	movzwl -0x4(%rbp),%eax
    5e04:	5d                   	pop    %rbp
    5e05:	c3                   	retq   

0000000000005e06 <safe_lshift_func_uint16_t_u_u>:
    5e06:	f3 0f 1e fa          	endbr64 
    5e0a:	55                   	push   %rbp
    5e0b:	48 89 e5             	mov    %rsp,%rbp
    5e0e:	89 f8                	mov    %edi,%eax
    5e10:	89 75 f8             	mov    %esi,-0x8(%rbp)
    5e13:	66 89 45 fc          	mov    %ax,-0x4(%rbp)
    5e17:	83 7d f8 1f          	cmpl   $0x1f,-0x8(%rbp)
    5e1b:	77 25                	ja     5e42 <safe_lshift_func_uint16_t_u_u+0x3c>
    5e1d:	0f b7 55 fc          	movzwl -0x4(%rbp),%edx
    5e21:	8b 45 f8             	mov    -0x8(%rbp),%eax
    5e24:	be ff ff 00 00       	mov    $0xffff,%esi
    5e29:	89 c1                	mov    %eax,%ecx
    5e2b:	d3 fe                	sar    %cl,%esi
    5e2d:	89 f0                	mov    %esi,%eax
    5e2f:	39 c2                	cmp    %eax,%edx
    5e31:	7f 0f                	jg     5e42 <safe_lshift_func_uint16_t_u_u+0x3c>
    5e33:	0f b7 55 fc          	movzwl -0x4(%rbp),%edx
    5e37:	8b 45 f8             	mov    -0x8(%rbp),%eax
    5e3a:	89 c1                	mov    %eax,%ecx
    5e3c:	d3 e2                	shl    %cl,%edx
    5e3e:	89 d0                	mov    %edx,%eax
    5e40:	eb 04                	jmp    5e46 <safe_lshift_func_uint16_t_u_u+0x40>
    5e42:	0f b7 45 fc          	movzwl -0x4(%rbp),%eax
    5e46:	5d                   	pop    %rbp
    5e47:	c3                   	retq   

0000000000005e48 <safe_rshift_func_uint16_t_u_s>:
    5e48:	f3 0f 1e fa          	endbr64 
    5e4c:	55                   	push   %rbp
    5e4d:	48 89 e5             	mov    %rsp,%rbp
    5e50:	89 f8                	mov    %edi,%eax
    5e52:	89 75 f8             	mov    %esi,-0x8(%rbp)
    5e55:	66 89 45 fc          	mov    %ax,-0x4(%rbp)
    5e59:	83 7d f8 00          	cmpl   $0x0,-0x8(%rbp)
    5e5d:	78 15                	js     5e74 <safe_rshift_func_uint16_t_u_s+0x2c>
    5e5f:	83 7d f8 1f          	cmpl   $0x1f,-0x8(%rbp)
    5e63:	7f 0f                	jg     5e74 <safe_rshift_func_uint16_t_u_s+0x2c>
    5e65:	0f b7 55 fc          	movzwl -0x4(%rbp),%edx
    5e69:	8b 45 f8             	mov    -0x8(%rbp),%eax
    5e6c:	89 c1                	mov    %eax,%ecx
    5e6e:	d3 fa                	sar    %cl,%edx
    5e70:	89 d0                	mov    %edx,%eax
    5e72:	eb 04                	jmp    5e78 <safe_rshift_func_uint16_t_u_s+0x30>
    5e74:	0f b7 45 fc          	movzwl -0x4(%rbp),%eax
    5e78:	5d                   	pop    %rbp
    5e79:	c3                   	retq   

0000000000005e7a <safe_rshift_func_uint16_t_u_u>:
    5e7a:	f3 0f 1e fa          	endbr64 
    5e7e:	55                   	push   %rbp
    5e7f:	48 89 e5             	mov    %rsp,%rbp
    5e82:	89 f8                	mov    %edi,%eax
    5e84:	89 75 f8             	mov    %esi,-0x8(%rbp)
    5e87:	66 89 45 fc          	mov    %ax,-0x4(%rbp)
    5e8b:	83 7d f8 1f          	cmpl   $0x1f,-0x8(%rbp)
    5e8f:	77 0f                	ja     5ea0 <safe_rshift_func_uint16_t_u_u+0x26>
    5e91:	0f b7 55 fc          	movzwl -0x4(%rbp),%edx
    5e95:	8b 45 f8             	mov    -0x8(%rbp),%eax
    5e98:	89 c1                	mov    %eax,%ecx
    5e9a:	d3 fa                	sar    %cl,%edx
    5e9c:	89 d0                	mov    %edx,%eax
    5e9e:	eb 04                	jmp    5ea4 <safe_rshift_func_uint16_t_u_u+0x2a>
    5ea0:	0f b7 45 fc          	movzwl -0x4(%rbp),%eax
    5ea4:	5d                   	pop    %rbp
    5ea5:	c3                   	retq   

0000000000005ea6 <safe_unary_minus_func_uint32_t_u>:
    5ea6:	f3 0f 1e fa          	endbr64 
    5eaa:	55                   	push   %rbp
    5eab:	48 89 e5             	mov    %rsp,%rbp
    5eae:	89 7d fc             	mov    %edi,-0x4(%rbp)
    5eb1:	8b 45 fc             	mov    -0x4(%rbp),%eax
    5eb4:	f7 d8                	neg    %eax
    5eb6:	5d                   	pop    %rbp
    5eb7:	c3                   	retq   

0000000000005eb8 <safe_add_func_uint32_t_u_u>:
    5eb8:	f3 0f 1e fa          	endbr64 
    5ebc:	55                   	push   %rbp
    5ebd:	48 89 e5             	mov    %rsp,%rbp
    5ec0:	89 7d fc             	mov    %edi,-0x4(%rbp)
    5ec3:	89 75 f8             	mov    %esi,-0x8(%rbp)
    5ec6:	8b 55 fc             	mov    -0x4(%rbp),%edx
    5ec9:	8b 45 f8             	mov    -0x8(%rbp),%eax
    5ecc:	01 d0                	add    %edx,%eax
    5ece:	5d                   	pop    %rbp
    5ecf:	c3                   	retq   

0000000000005ed0 <safe_sub_func_uint32_t_u_u>:
    5ed0:	f3 0f 1e fa          	endbr64 
    5ed4:	55                   	push   %rbp
    5ed5:	48 89 e5             	mov    %rsp,%rbp
    5ed8:	89 7d fc             	mov    %edi,-0x4(%rbp)
    5edb:	89 75 f8             	mov    %esi,-0x8(%rbp)
    5ede:	8b 45 fc             	mov    -0x4(%rbp),%eax
    5ee1:	2b 45 f8             	sub    -0x8(%rbp),%eax
    5ee4:	5d                   	pop    %rbp
    5ee5:	c3                   	retq   

0000000000005ee6 <safe_mul_func_uint32_t_u_u>:
    5ee6:	f3 0f 1e fa          	endbr64 
    5eea:	55                   	push   %rbp
    5eeb:	48 89 e5             	mov    %rsp,%rbp
    5eee:	89 7d fc             	mov    %edi,-0x4(%rbp)
    5ef1:	89 75 f8             	mov    %esi,-0x8(%rbp)
    5ef4:	8b 45 fc             	mov    -0x4(%rbp),%eax
    5ef7:	0f af 45 f8          	imul   -0x8(%rbp),%eax
    5efb:	5d                   	pop    %rbp
    5efc:	c3                   	retq   

0000000000005efd <safe_mod_func_uint32_t_u_u>:
    5efd:	f3 0f 1e fa          	endbr64 
    5f01:	55                   	push   %rbp
    5f02:	48 89 e5             	mov    %rsp,%rbp
    5f05:	89 7d fc             	mov    %edi,-0x4(%rbp)
    5f08:	89 75 f8             	mov    %esi,-0x8(%rbp)
    5f0b:	83 7d f8 00          	cmpl   $0x0,-0x8(%rbp)
    5f0f:	74 0f                	je     5f20 <safe_mod_func_uint32_t_u_u+0x23>
    5f11:	8b 45 fc             	mov    -0x4(%rbp),%eax
    5f14:	ba 00 00 00 00       	mov    $0x0,%edx
    5f19:	f7 75 f8             	divl   -0x8(%rbp)
    5f1c:	89 d0                	mov    %edx,%eax
    5f1e:	eb 03                	jmp    5f23 <safe_mod_func_uint32_t_u_u+0x26>
    5f20:	8b 45 fc             	mov    -0x4(%rbp),%eax
    5f23:	5d                   	pop    %rbp
    5f24:	c3                   	retq   

0000000000005f25 <safe_div_func_uint32_t_u_u>:
    5f25:	f3 0f 1e fa          	endbr64 
    5f29:	55                   	push   %rbp
    5f2a:	48 89 e5             	mov    %rsp,%rbp
    5f2d:	89 7d fc             	mov    %edi,-0x4(%rbp)
    5f30:	89 75 f8             	mov    %esi,-0x8(%rbp)
    5f33:	83 7d f8 00          	cmpl   $0x0,-0x8(%rbp)
    5f37:	74 0d                	je     5f46 <safe_div_func_uint32_t_u_u+0x21>
    5f39:	8b 45 fc             	mov    -0x4(%rbp),%eax
    5f3c:	ba 00 00 00 00       	mov    $0x0,%edx
    5f41:	f7 75 f8             	divl   -0x8(%rbp)
    5f44:	eb 03                	jmp    5f49 <safe_div_func_uint32_t_u_u+0x24>
    5f46:	8b 45 fc             	mov    -0x4(%rbp),%eax
    5f49:	5d                   	pop    %rbp
    5f4a:	c3                   	retq   

0000000000005f4b <safe_lshift_func_uint32_t_u_s>:
    5f4b:	f3 0f 1e fa          	endbr64 
    5f4f:	55                   	push   %rbp
    5f50:	48 89 e5             	mov    %rsp,%rbp
    5f53:	89 7d fc             	mov    %edi,-0x4(%rbp)
    5f56:	89 75 f8             	mov    %esi,-0x8(%rbp)
    5f59:	83 7d f8 00          	cmpl   $0x0,-0x8(%rbp)
    5f5d:	78 27                	js     5f86 <safe_lshift_func_uint32_t_u_s+0x3b>
    5f5f:	83 7d f8 1f          	cmpl   $0x1f,-0x8(%rbp)
    5f63:	7f 21                	jg     5f86 <safe_lshift_func_uint32_t_u_s+0x3b>
    5f65:	8b 45 f8             	mov    -0x8(%rbp),%eax
    5f68:	ba ff ff ff ff       	mov    $0xffffffff,%edx
    5f6d:	89 c1                	mov    %eax,%ecx
    5f6f:	d3 ea                	shr    %cl,%edx
    5f71:	89 d0                	mov    %edx,%eax
    5f73:	39 45 fc             	cmp    %eax,-0x4(%rbp)
    5f76:	77 0e                	ja     5f86 <safe_lshift_func_uint32_t_u_s+0x3b>
    5f78:	8b 45 f8             	mov    -0x8(%rbp),%eax
    5f7b:	8b 55 fc             	mov    -0x4(%rbp),%edx
    5f7e:	89 c1                	mov    %eax,%ecx
    5f80:	d3 e2                	shl    %cl,%edx
    5f82:	89 d0                	mov    %edx,%eax
    5f84:	eb 03                	jmp    5f89 <safe_lshift_func_uint32_t_u_s+0x3e>
    5f86:	8b 45 fc             	mov    -0x4(%rbp),%eax
    5f89:	5d                   	pop    %rbp
    5f8a:	c3                   	retq   

0000000000005f8b <safe_lshift_func_uint32_t_u_u>:
    5f8b:	f3 0f 1e fa          	endbr64 
    5f8f:	55                   	push   %rbp
    5f90:	48 89 e5             	mov    %rsp,%rbp
    5f93:	89 7d fc             	mov    %edi,-0x4(%rbp)
    5f96:	89 75 f8             	mov    %esi,-0x8(%rbp)
    5f99:	83 7d f8 1f          	cmpl   $0x1f,-0x8(%rbp)
    5f9d:	77 21                	ja     5fc0 <safe_lshift_func_uint32_t_u_u+0x35>
    5f9f:	8b 45 f8             	mov    -0x8(%rbp),%eax
    5fa2:	ba ff ff ff ff       	mov    $0xffffffff,%edx
    5fa7:	89 c1                	mov    %eax,%ecx
    5fa9:	d3 ea                	shr    %cl,%edx
    5fab:	89 d0                	mov    %edx,%eax
    5fad:	39 45 fc             	cmp    %eax,-0x4(%rbp)
    5fb0:	77 0e                	ja     5fc0 <safe_lshift_func_uint32_t_u_u+0x35>
    5fb2:	8b 45 f8             	mov    -0x8(%rbp),%eax
    5fb5:	8b 55 fc             	mov    -0x4(%rbp),%edx
    5fb8:	89 c1                	mov    %eax,%ecx
    5fba:	d3 e2                	shl    %cl,%edx
    5fbc:	89 d0                	mov    %edx,%eax
    5fbe:	eb 03                	jmp    5fc3 <safe_lshift_func_uint32_t_u_u+0x38>
    5fc0:	8b 45 fc             	mov    -0x4(%rbp),%eax
    5fc3:	5d                   	pop    %rbp
    5fc4:	c3                   	retq   

0000000000005fc5 <safe_rshift_func_uint32_t_u_s>:
    5fc5:	f3 0f 1e fa          	endbr64 
    5fc9:	55                   	push   %rbp
    5fca:	48 89 e5             	mov    %rsp,%rbp
    5fcd:	89 7d fc             	mov    %edi,-0x4(%rbp)
    5fd0:	89 75 f8             	mov    %esi,-0x8(%rbp)
    5fd3:	83 7d f8 00          	cmpl   $0x0,-0x8(%rbp)
    5fd7:	78 14                	js     5fed <safe_rshift_func_uint32_t_u_s+0x28>
    5fd9:	83 7d f8 1f          	cmpl   $0x1f,-0x8(%rbp)
    5fdd:	7f 0e                	jg     5fed <safe_rshift_func_uint32_t_u_s+0x28>
    5fdf:	8b 45 f8             	mov    -0x8(%rbp),%eax
    5fe2:	8b 55 fc             	mov    -0x4(%rbp),%edx
    5fe5:	89 c1                	mov    %eax,%ecx
    5fe7:	d3 ea                	shr    %cl,%edx
    5fe9:	89 d0                	mov    %edx,%eax
    5feb:	eb 03                	jmp    5ff0 <safe_rshift_func_uint32_t_u_s+0x2b>
    5fed:	8b 45 fc             	mov    -0x4(%rbp),%eax
    5ff0:	5d                   	pop    %rbp
    5ff1:	c3                   	retq   

0000000000005ff2 <safe_rshift_func_uint32_t_u_u>:
    5ff2:	f3 0f 1e fa          	endbr64 
    5ff6:	55                   	push   %rbp
    5ff7:	48 89 e5             	mov    %rsp,%rbp
    5ffa:	89 7d fc             	mov    %edi,-0x4(%rbp)
    5ffd:	89 75 f8             	mov    %esi,-0x8(%rbp)
    6000:	83 7d f8 1f          	cmpl   $0x1f,-0x8(%rbp)
    6004:	77 0e                	ja     6014 <safe_rshift_func_uint32_t_u_u+0x22>
    6006:	8b 45 f8             	mov    -0x8(%rbp),%eax
    6009:	8b 55 fc             	mov    -0x4(%rbp),%edx
    600c:	89 c1                	mov    %eax,%ecx
    600e:	d3 ea                	shr    %cl,%edx
    6010:	89 d0                	mov    %edx,%eax
    6012:	eb 03                	jmp    6017 <safe_rshift_func_uint32_t_u_u+0x25>
    6014:	8b 45 fc             	mov    -0x4(%rbp),%eax
    6017:	5d                   	pop    %rbp
    6018:	c3                   	retq   

0000000000006019 <safe_unary_minus_func_uint64_t_u>:
    6019:	f3 0f 1e fa          	endbr64 
    601d:	55                   	push   %rbp
    601e:	48 89 e5             	mov    %rsp,%rbp
    6021:	48 89 7d f8          	mov    %rdi,-0x8(%rbp)
    6025:	48 8b 45 f8          	mov    -0x8(%rbp),%rax
    6029:	48 f7 d8             	neg    %rax
    602c:	5d                   	pop    %rbp
    602d:	c3                   	retq   

000000000000602e <safe_add_func_uint64_t_u_u>:
    602e:	f3 0f 1e fa          	endbr64 
    6032:	55                   	push   %rbp
    6033:	48 89 e5             	mov    %rsp,%rbp
    6036:	48 89 7d f8          	mov    %rdi,-0x8(%rbp)
    603a:	48 89 75 f0          	mov    %rsi,-0x10(%rbp)
    603e:	48 8b 55 f8          	mov    -0x8(%rbp),%rdx
    6042:	48 8b 45 f0          	mov    -0x10(%rbp),%rax
    6046:	48 01 d0             	add    %rdx,%rax
    6049:	5d                   	pop    %rbp
    604a:	c3                   	retq   

000000000000604b <safe_sub_func_uint64_t_u_u>:
    604b:	f3 0f 1e fa          	endbr64 
    604f:	55                   	push   %rbp
    6050:	48 89 e5             	mov    %rsp,%rbp
    6053:	48 89 7d f8          	mov    %rdi,-0x8(%rbp)
    6057:	48 89 75 f0          	mov    %rsi,-0x10(%rbp)
    605b:	48 8b 45 f8          	mov    -0x8(%rbp),%rax
    605f:	48 2b 45 f0          	sub    -0x10(%rbp),%rax
    6063:	5d                   	pop    %rbp
    6064:	c3                   	retq   

0000000000006065 <safe_mul_func_uint64_t_u_u>:
    6065:	f3 0f 1e fa          	endbr64 
    6069:	55                   	push   %rbp
    606a:	48 89 e5             	mov    %rsp,%rbp
    606d:	48 89 7d f8          	mov    %rdi,-0x8(%rbp)
    6071:	48 89 75 f0          	mov    %rsi,-0x10(%rbp)
    6075:	48 8b 45 f8          	mov    -0x8(%rbp),%rax
    6079:	48 0f af 45 f0       	imul   -0x10(%rbp),%rax
    607e:	5d                   	pop    %rbp
    607f:	c3                   	retq   

0000000000006080 <safe_mod_func_uint64_t_u_u>:
    6080:	f3 0f 1e fa          	endbr64 
    6084:	55                   	push   %rbp
    6085:	48 89 e5             	mov    %rsp,%rbp
    6088:	48 89 7d f8          	mov    %rdi,-0x8(%rbp)
    608c:	48 89 75 f0          	mov    %rsi,-0x10(%rbp)
    6090:	48 83 7d f0 00       	cmpq   $0x0,-0x10(%rbp)
    6095:	74 12                	je     60a9 <safe_mod_func_uint64_t_u_u+0x29>
    6097:	48 8b 45 f8          	mov    -0x8(%rbp),%rax
    609b:	ba 00 00 00 00       	mov    $0x0,%edx
    60a0:	48 f7 75 f0          	divq   -0x10(%rbp)
    60a4:	48 89 d0             	mov    %rdx,%rax
    60a7:	eb 04                	jmp    60ad <safe_mod_func_uint64_t_u_u+0x2d>
    60a9:	48 8b 45 f8          	mov    -0x8(%rbp),%rax
    60ad:	5d                   	pop    %rbp
    60ae:	c3                   	retq   

00000000000060af <safe_div_func_uint64_t_u_u>:
    60af:	f3 0f 1e fa          	endbr64 
    60b3:	55                   	push   %rbp
    60b4:	48 89 e5             	mov    %rsp,%rbp
    60b7:	48 89 7d f8          	mov    %rdi,-0x8(%rbp)
    60bb:	48 89 75 f0          	mov    %rsi,-0x10(%rbp)
    60bf:	48 83 7d f0 00       	cmpq   $0x0,-0x10(%rbp)
    60c4:	74 0f                	je     60d5 <safe_div_func_uint64_t_u_u+0x26>
    60c6:	48 8b 45 f8          	mov    -0x8(%rbp),%rax
    60ca:	ba 00 00 00 00       	mov    $0x0,%edx
    60cf:	48 f7 75 f0          	divq   -0x10(%rbp)
    60d3:	eb 04                	jmp    60d9 <safe_div_func_uint64_t_u_u+0x2a>
    60d5:	48 8b 45 f8          	mov    -0x8(%rbp),%rax
    60d9:	5d                   	pop    %rbp
    60da:	c3                   	retq   

00000000000060db <safe_lshift_func_uint64_t_u_s>:
    60db:	f3 0f 1e fa          	endbr64 
    60df:	55                   	push   %rbp
    60e0:	48 89 e5             	mov    %rsp,%rbp
    60e3:	48 89 7d f8          	mov    %rdi,-0x8(%rbp)
    60e7:	89 75 f4             	mov    %esi,-0xc(%rbp)
    60ea:	83 7d f4 00          	cmpl   $0x0,-0xc(%rbp)
    60ee:	78 2f                	js     611f <safe_lshift_func_uint64_t_u_s+0x44>
    60f0:	83 7d f4 1f          	cmpl   $0x1f,-0xc(%rbp)
    60f4:	7f 29                	jg     611f <safe_lshift_func_uint64_t_u_s+0x44>
    60f6:	8b 45 f4             	mov    -0xc(%rbp),%eax
    60f9:	48 c7 c2 ff ff ff ff 	mov    $0xffffffffffffffff,%rdx
    6100:	89 c1                	mov    %eax,%ecx
    6102:	48 d3 ea             	shr    %cl,%rdx
    6105:	48 89 d0             	mov    %rdx,%rax
    6108:	48 39 45 f8          	cmp    %rax,-0x8(%rbp)
    610c:	77 11                	ja     611f <safe_lshift_func_uint64_t_u_s+0x44>
    610e:	8b 45 f4             	mov    -0xc(%rbp),%eax
    6111:	48 8b 55 f8          	mov    -0x8(%rbp),%rdx
    6115:	89 c1                	mov    %eax,%ecx
    6117:	48 d3 e2             	shl    %cl,%rdx
    611a:	48 89 d0             	mov    %rdx,%rax
    611d:	eb 04                	jmp    6123 <safe_lshift_func_uint64_t_u_s+0x48>
    611f:	48 8b 45 f8          	mov    -0x8(%rbp),%rax
    6123:	5d                   	pop    %rbp
    6124:	c3                   	retq   

0000000000006125 <safe_lshift_func_uint64_t_u_u>:
    6125:	f3 0f 1e fa          	endbr64 
    6129:	55                   	push   %rbp
    612a:	48 89 e5             	mov    %rsp,%rbp
    612d:	48 89 7d f8          	mov    %rdi,-0x8(%rbp)
    6131:	89 75 f4             	mov    %esi,-0xc(%rbp)
    6134:	83 7d f4 1f          	cmpl   $0x1f,-0xc(%rbp)
    6138:	77 29                	ja     6163 <safe_lshift_func_uint64_t_u_u+0x3e>
    613a:	8b 45 f4             	mov    -0xc(%rbp),%eax
    613d:	48 c7 c2 ff ff ff ff 	mov    $0xffffffffffffffff,%rdx
    6144:	89 c1                	mov    %eax,%ecx
    6146:	48 d3 ea             	shr    %cl,%rdx
    6149:	48 89 d0             	mov    %rdx,%rax
    614c:	48 39 45 f8          	cmp    %rax,-0x8(%rbp)
    6150:	77 11                	ja     6163 <safe_lshift_func_uint64_t_u_u+0x3e>
    6152:	8b 45 f4             	mov    -0xc(%rbp),%eax
    6155:	48 8b 55 f8          	mov    -0x8(%rbp),%rdx
    6159:	89 c1                	mov    %eax,%ecx
    615b:	48 d3 e2             	shl    %cl,%rdx
    615e:	48 89 d0             	mov    %rdx,%rax
    6161:	eb 04                	jmp    6167 <safe_lshift_func_uint64_t_u_u+0x42>
    6163:	48 8b 45 f8          	mov    -0x8(%rbp),%rax
    6167:	5d                   	pop    %rbp
    6168:	c3                   	retq   

0000000000006169 <safe_rshift_func_uint64_t_u_s>:
    6169:	f3 0f 1e fa          	endbr64 
    616d:	55                   	push   %rbp
    616e:	48 89 e5             	mov    %rsp,%rbp
    6171:	48 89 7d f8          	mov    %rdi,-0x8(%rbp)
    6175:	89 75 f4             	mov    %esi,-0xc(%rbp)
    6178:	83 7d f4 00          	cmpl   $0x0,-0xc(%rbp)
    617c:	78 17                	js     6195 <safe_rshift_func_uint64_t_u_s+0x2c>
    617e:	83 7d f4 1f          	cmpl   $0x1f,-0xc(%rbp)
    6182:	7f 11                	jg     6195 <safe_rshift_func_uint64_t_u_s+0x2c>
    6184:	8b 45 f4             	mov    -0xc(%rbp),%eax
    6187:	48 8b 55 f8          	mov    -0x8(%rbp),%rdx
    618b:	89 c1                	mov    %eax,%ecx
    618d:	48 d3 ea             	shr    %cl,%rdx
    6190:	48 89 d0             	mov    %rdx,%rax
    6193:	eb 04                	jmp    6199 <safe_rshift_func_uint64_t_u_s+0x30>
    6195:	48 8b 45 f8          	mov    -0x8(%rbp),%rax
    6199:	5d                   	pop    %rbp
    619a:	c3                   	retq   

000000000000619b <safe_rshift_func_uint64_t_u_u>:
    619b:	f3 0f 1e fa          	endbr64 
    619f:	55                   	push   %rbp
    61a0:	48 89 e5             	mov    %rsp,%rbp
    61a3:	48 89 7d f8          	mov    %rdi,-0x8(%rbp)
    61a7:	89 75 f4             	mov    %esi,-0xc(%rbp)
    61aa:	83 7d f4 1f          	cmpl   $0x1f,-0xc(%rbp)
    61ae:	77 11                	ja     61c1 <safe_rshift_func_uint64_t_u_u+0x26>
    61b0:	8b 45 f4             	mov    -0xc(%rbp),%eax
    61b3:	48 8b 55 f8          	mov    -0x8(%rbp),%rdx
    61b7:	89 c1                	mov    %eax,%ecx
    61b9:	48 d3 ea             	shr    %cl,%rdx
    61bc:	48 89 d0             	mov    %rdx,%rax
    61bf:	eb 04                	jmp    61c5 <safe_rshift_func_uint64_t_u_u+0x2a>
    61c1:	48 8b 45 f8          	mov    -0x8(%rbp),%rax
    61c5:	5d                   	pop    %rbp
    61c6:	c3                   	retq   

00000000000061c7 <safe_add_func_float_f_f>:
    61c7:	f3 0f 1e fa          	endbr64 
    61cb:	55                   	push   %rbp
    61cc:	48 89 e5             	mov    %rsp,%rbp
    61cf:	f3 0f 11 45 fc       	movss  %xmm0,-0x4(%rbp)
    61d4:	f3 0f 11 4d f8       	movss  %xmm1,-0x8(%rbp)
    61d9:	f3 0f 10 4d fc       	movss  -0x4(%rbp),%xmm1
    61de:	f3 0f 10 05 aa e7 00 	movss  0xe7aa(%rip),%xmm0        # 14990 <l_775.4637+0x8>
    61e5:	00 
    61e6:	f3 0f 59 c8          	mulss  %xmm0,%xmm1
    61ea:	f3 0f 10 55 f8       	movss  -0x8(%rbp),%xmm2
    61ef:	f3 0f 10 05 99 e7 00 	movss  0xe799(%rip),%xmm0        # 14990 <l_775.4637+0x8>
    61f6:	00 
    61f7:	f3 0f 59 c2          	mulss  %xmm2,%xmm0
    61fb:	f3 0f 58 c1          	addss  %xmm1,%xmm0
    61ff:	f3 0f 10 0d 99 e7 00 	movss  0xe799(%rip),%xmm1        # 149a0 <l_775.4637+0x18>
    6206:	00 
    6207:	0f 54 c1             	andps  %xmm1,%xmm0
    620a:	0f 2f 05 9f e7 00 00 	comiss 0xe79f(%rip),%xmm0        # 149b0 <l_775.4637+0x28>
    6211:	76 07                	jbe    621a <safe_add_func_float_f_f+0x53>
    6213:	f3 0f 10 45 fc       	movss  -0x4(%rbp),%xmm0
    6218:	eb 0a                	jmp    6224 <safe_add_func_float_f_f+0x5d>
    621a:	f3 0f 10 45 fc       	movss  -0x4(%rbp),%xmm0
    621f:	f3 0f 58 45 f8       	addss  -0x8(%rbp),%xmm0
    6224:	5d                   	pop    %rbp
    6225:	c3                   	retq   

0000000000006226 <safe_sub_func_float_f_f>:
    6226:	f3 0f 1e fa          	endbr64 
    622a:	55                   	push   %rbp
    622b:	48 89 e5             	mov    %rsp,%rbp
    622e:	f3 0f 11 45 fc       	movss  %xmm0,-0x4(%rbp)
    6233:	f3 0f 11 4d f8       	movss  %xmm1,-0x8(%rbp)
    6238:	f3 0f 10 4d fc       	movss  -0x4(%rbp),%xmm1
    623d:	f3 0f 10 05 4b e7 00 	movss  0xe74b(%rip),%xmm0        # 14990 <l_775.4637+0x8>
    6244:	00 
    6245:	f3 0f 59 c1          	mulss  %xmm1,%xmm0
    6249:	f3 0f 10 55 f8       	movss  -0x8(%rbp),%xmm2
    624e:	f3 0f 10 0d 3a e7 00 	movss  0xe73a(%rip),%xmm1        # 14990 <l_775.4637+0x8>
    6255:	00 
    6256:	f3 0f 59 ca          	mulss  %xmm2,%xmm1
    625a:	f3 0f 5c c1          	subss  %xmm1,%xmm0
    625e:	f3 0f 10 0d 3a e7 00 	movss  0xe73a(%rip),%xmm1        # 149a0 <l_775.4637+0x18>
    6265:	00 
    6266:	0f 54 c1             	andps  %xmm1,%xmm0
    6269:	0f 2f 05 40 e7 00 00 	comiss 0xe740(%rip),%xmm0        # 149b0 <l_775.4637+0x28>
    6270:	76 07                	jbe    6279 <safe_sub_func_float_f_f+0x53>
    6272:	f3 0f 10 45 fc       	movss  -0x4(%rbp),%xmm0
    6277:	eb 0a                	jmp    6283 <safe_sub_func_float_f_f+0x5d>
    6279:	f3 0f 10 45 fc       	movss  -0x4(%rbp),%xmm0
    627e:	f3 0f 5c 45 f8       	subss  -0x8(%rbp),%xmm0
    6283:	5d                   	pop    %rbp
    6284:	c3                   	retq   

0000000000006285 <safe_mul_func_float_f_f>:
    6285:	f3 0f 1e fa          	endbr64 
    6289:	55                   	push   %rbp
    628a:	48 89 e5             	mov    %rsp,%rbp
    628d:	f3 0f 11 45 fc       	movss  %xmm0,-0x4(%rbp)
    6292:	f3 0f 11 4d f8       	movss  %xmm1,-0x8(%rbp)
    6297:	f3 0f 10 4d fc       	movss  -0x4(%rbp),%xmm1
    629c:	f3 0f 10 05 10 e7 00 	movss  0xe710(%rip),%xmm0        # 149b4 <l_775.4637+0x2c>
    62a3:	00 
    62a4:	f3 0f 59 c8          	mulss  %xmm0,%xmm1
    62a8:	f3 0f 10 55 f8       	movss  -0x8(%rbp),%xmm2
    62ad:	f3 0f 10 05 03 e7 00 	movss  0xe703(%rip),%xmm0        # 149b8 <l_775.4637+0x30>
    62b4:	00 
    62b5:	f3 0f 59 c2          	mulss  %xmm2,%xmm0
    62b9:	f3 0f 59 c1          	mulss  %xmm1,%xmm0
    62bd:	f3 0f 10 0d db e6 00 	movss  0xe6db(%rip),%xmm1        # 149a0 <l_775.4637+0x18>
    62c4:	00 
    62c5:	0f 54 c1             	andps  %xmm1,%xmm0
    62c8:	0f 2f 05 ed e6 00 00 	comiss 0xe6ed(%rip),%xmm0        # 149bc <l_775.4637+0x34>
    62cf:	76 07                	jbe    62d8 <safe_mul_func_float_f_f+0x53>
    62d1:	f3 0f 10 45 fc       	movss  -0x4(%rbp),%xmm0
    62d6:	eb 0a                	jmp    62e2 <safe_mul_func_float_f_f+0x5d>
    62d8:	f3 0f 10 45 fc       	movss  -0x4(%rbp),%xmm0
    62dd:	f3 0f 59 45 f8       	mulss  -0x8(%rbp),%xmm0
    62e2:	5d                   	pop    %rbp
    62e3:	c3                   	retq   

00000000000062e4 <safe_div_func_float_f_f>:
    62e4:	f3 0f 1e fa          	endbr64 
    62e8:	55                   	push   %rbp
    62e9:	48 89 e5             	mov    %rsp,%rbp
    62ec:	f3 0f 11 45 fc       	movss  %xmm0,-0x4(%rbp)
    62f1:	f3 0f 11 4d f8       	movss  %xmm1,-0x8(%rbp)
    62f6:	f3 0f 10 45 f8       	movss  -0x8(%rbp),%xmm0
    62fb:	f3 0f 10 0d 9d e6 00 	movss  0xe69d(%rip),%xmm1        # 149a0 <l_775.4637+0x18>
    6302:	00 
    6303:	0f 54 c8             	andps  %xmm0,%xmm1
    6306:	f3 0f 10 05 b2 e6 00 	movss  0xe6b2(%rip),%xmm0        # 149c0 <l_775.4637+0x38>
    630d:	00 
    630e:	0f 2f c1             	comiss %xmm1,%xmm0
    6311:	0f 97 c0             	seta   %al
    6314:	83 f0 01             	xor    $0x1,%eax
    6317:	84 c0                	test   %al,%al
    6319:	75 56                	jne    6371 <safe_div_func_float_f_f+0x8d>
    631b:	66 0f ef c0          	pxor   %xmm0,%xmm0
    631f:	0f 2e 45 f8          	ucomiss -0x8(%rbp),%xmm0
    6323:	7a 0a                	jp     632f <safe_div_func_float_f_f+0x4b>
    6325:	66 0f ef c0          	pxor   %xmm0,%xmm0
    6329:	0f 2e 45 f8          	ucomiss -0x8(%rbp),%xmm0
    632d:	74 4e                	je     637d <safe_div_func_float_f_f+0x99>
    632f:	f3 0f 10 4d fc       	movss  -0x4(%rbp),%xmm1
    6334:	f3 0f 10 05 88 e6 00 	movss  0xe688(%rip),%xmm0        # 149c4 <l_775.4637+0x3c>
    633b:	00 
    633c:	f3 0f 59 c1          	mulss  %xmm1,%xmm0
    6340:	f3 0f 10 55 f8       	movss  -0x8(%rbp),%xmm2
    6345:	f3 0f 10 0d 7b e6 00 	movss  0xe67b(%rip),%xmm1        # 149c8 <l_775.4637+0x40>
    634c:	00 
    634d:	f3 0f 59 ca          	mulss  %xmm2,%xmm1
    6351:	f3 0f 5e c1          	divss  %xmm1,%xmm0
    6355:	f3 0f 10 0d 43 e6 00 	movss  0xe643(%rip),%xmm1        # 149a0 <l_775.4637+0x18>
    635c:	00 
    635d:	0f 54 c1             	andps  %xmm1,%xmm0
    6360:	0f 2f 05 65 e6 00 00 	comiss 0xe665(%rip),%xmm0        # 149cc <l_775.4637+0x44>
    6367:	0f 97 c0             	seta   %al
    636a:	83 f0 01             	xor    $0x1,%eax
    636d:	84 c0                	test   %al,%al
    636f:	74 0c                	je     637d <safe_div_func_float_f_f+0x99>
    6371:	f3 0f 10 45 fc       	movss  -0x4(%rbp),%xmm0
    6376:	f3 0f 5e 45 f8       	divss  -0x8(%rbp),%xmm0
    637b:	eb 05                	jmp    6382 <safe_div_func_float_f_f+0x9e>
    637d:	f3 0f 10 45 fc       	movss  -0x4(%rbp),%xmm0
    6382:	5d                   	pop    %rbp
    6383:	c3                   	retq   

0000000000006384 <safe_add_func_double_f_f>:
    6384:	f3 0f 1e fa          	endbr64 
    6388:	55                   	push   %rbp
    6389:	48 89 e5             	mov    %rsp,%rbp
    638c:	f2 0f 11 45 f8       	movsd  %xmm0,-0x8(%rbp)
    6391:	f2 0f 11 4d f0       	movsd  %xmm1,-0x10(%rbp)
    6396:	f2 0f 10 4d f8       	movsd  -0x8(%rbp),%xmm1
    639b:	f2 0f 10 05 2d e6 00 	movsd  0xe62d(%rip),%xmm0        # 149d0 <l_775.4637+0x48>
    63a2:	00 
    63a3:	f2 0f 59 c8          	mulsd  %xmm0,%xmm1
    63a7:	f2 0f 10 55 f0       	movsd  -0x10(%rbp),%xmm2
    63ac:	f2 0f 10 05 1c e6 00 	movsd  0xe61c(%rip),%xmm0        # 149d0 <l_775.4637+0x48>
    63b3:	00 
    63b4:	f2 0f 59 c2          	mulsd  %xmm2,%xmm0
    63b8:	f2 0f 58 c1          	addsd  %xmm1,%xmm0
    63bc:	f3 0f 7e 0d 1c e6 00 	movq   0xe61c(%rip),%xmm1        # 149e0 <l_775.4637+0x58>
    63c3:	00 
    63c4:	66 0f 54 c1          	andpd  %xmm1,%xmm0
    63c8:	66 0f 2f 05 20 e6 00 	comisd 0xe620(%rip),%xmm0        # 149f0 <l_775.4637+0x68>
    63cf:	00 
    63d0:	76 07                	jbe    63d9 <safe_add_func_double_f_f+0x55>
    63d2:	f2 0f 10 45 f8       	movsd  -0x8(%rbp),%xmm0
    63d7:	eb 0a                	jmp    63e3 <safe_add_func_double_f_f+0x5f>
    63d9:	f2 0f 10 45 f8       	movsd  -0x8(%rbp),%xmm0
    63de:	f2 0f 58 45 f0       	addsd  -0x10(%rbp),%xmm0
    63e3:	5d                   	pop    %rbp
    63e4:	c3                   	retq   

00000000000063e5 <safe_sub_func_double_f_f>:
    63e5:	f3 0f 1e fa          	endbr64 
    63e9:	55                   	push   %rbp
    63ea:	48 89 e5             	mov    %rsp,%rbp
    63ed:	f2 0f 11 45 f8       	movsd  %xmm0,-0x8(%rbp)
    63f2:	f2 0f 11 4d f0       	movsd  %xmm1,-0x10(%rbp)
    63f7:	f2 0f 10 4d f8       	movsd  -0x8(%rbp),%xmm1
    63fc:	f2 0f 10 05 cc e5 00 	movsd  0xe5cc(%rip),%xmm0        # 149d0 <l_775.4637+0x48>
    6403:	00 
    6404:	f2 0f 59 c1          	mulsd  %xmm1,%xmm0
    6408:	f2 0f 10 55 f0       	movsd  -0x10(%rbp),%xmm2
    640d:	f2 0f 10 0d bb e5 00 	movsd  0xe5bb(%rip),%xmm1        # 149d0 <l_775.4637+0x48>
    6414:	00 
    6415:	f2 0f 59 ca          	mulsd  %xmm2,%xmm1
    6419:	f2 0f 5c c1          	subsd  %xmm1,%xmm0
    641d:	f3 0f 7e 0d bb e5 00 	movq   0xe5bb(%rip),%xmm1        # 149e0 <l_775.4637+0x58>
    6424:	00 
    6425:	66 0f 54 c1          	andpd  %xmm1,%xmm0
    6429:	66 0f 2f 05 bf e5 00 	comisd 0xe5bf(%rip),%xmm0        # 149f0 <l_775.4637+0x68>
    6430:	00 
    6431:	76 07                	jbe    643a <safe_sub_func_double_f_f+0x55>
    6433:	f2 0f 10 45 f8       	movsd  -0x8(%rbp),%xmm0
    6438:	eb 0a                	jmp    6444 <safe_sub_func_double_f_f+0x5f>
    643a:	f2 0f 10 45 f8       	movsd  -0x8(%rbp),%xmm0
    643f:	f2 0f 5c 45 f0       	subsd  -0x10(%rbp),%xmm0
    6444:	5d                   	pop    %rbp
    6445:	c3                   	retq   

0000000000006446 <safe_mul_func_double_f_f>:
    6446:	f3 0f 1e fa          	endbr64 
    644a:	55                   	push   %rbp
    644b:	48 89 e5             	mov    %rsp,%rbp
    644e:	f2 0f 11 45 f8       	movsd  %xmm0,-0x8(%rbp)
    6453:	f2 0f 11 4d f0       	movsd  %xmm1,-0x10(%rbp)
    6458:	f2 0f 10 4d f8       	movsd  -0x8(%rbp),%xmm1
    645d:	f2 0f 10 05 93 e5 00 	movsd  0xe593(%rip),%xmm0        # 149f8 <l_775.4637+0x70>
    6464:	00 
    6465:	f2 0f 59 c8          	mulsd  %xmm0,%xmm1
    6469:	f2 0f 10 55 f0       	movsd  -0x10(%rbp),%xmm2
    646e:	f2 0f 10 05 8a e5 00 	movsd  0xe58a(%rip),%xmm0        # 14a00 <l_775.4637+0x78>
    6475:	00 
    6476:	f2 0f 59 c2          	mulsd  %xmm2,%xmm0
    647a:	f2 0f 59 c1          	mulsd  %xmm1,%xmm0
    647e:	f3 0f 7e 0d 5a e5 00 	movq   0xe55a(%rip),%xmm1        # 149e0 <l_775.4637+0x58>
    6485:	00 
    6486:	66 0f 54 c1          	andpd  %xmm1,%xmm0
    648a:	66 0f 2f 05 76 e5 00 	comisd 0xe576(%rip),%xmm0        # 14a08 <l_775.4637+0x80>
    6491:	00 
    6492:	76 07                	jbe    649b <safe_mul_func_double_f_f+0x55>
    6494:	f2 0f 10 45 f8       	movsd  -0x8(%rbp),%xmm0
    6499:	eb 0a                	jmp    64a5 <safe_mul_func_double_f_f+0x5f>
    649b:	f2 0f 10 45 f8       	movsd  -0x8(%rbp),%xmm0
    64a0:	f2 0f 59 45 f0       	mulsd  -0x10(%rbp),%xmm0
    64a5:	5d                   	pop    %rbp
    64a6:	c3                   	retq   

00000000000064a7 <safe_div_func_double_f_f>:
    64a7:	f3 0f 1e fa          	endbr64 
    64ab:	55                   	push   %rbp
    64ac:	48 89 e5             	mov    %rsp,%rbp
    64af:	f2 0f 11 45 f8       	movsd  %xmm0,-0x8(%rbp)
    64b4:	f2 0f 11 4d f0       	movsd  %xmm1,-0x10(%rbp)
    64b9:	f2 0f 10 45 f0       	movsd  -0x10(%rbp),%xmm0
    64be:	f3 0f 7e 0d 1a e5 00 	movq   0xe51a(%rip),%xmm1        # 149e0 <l_775.4637+0x58>
    64c5:	00 
    64c6:	66 0f 54 c8          	andpd  %xmm0,%xmm1
    64ca:	f2 0f 10 05 3e e5 00 	movsd  0xe53e(%rip),%xmm0        # 14a10 <l_775.4637+0x88>
    64d1:	00 
    64d2:	66 0f 2f c1          	comisd %xmm1,%xmm0
    64d6:	0f 97 c0             	seta   %al
    64d9:	83 f0 01             	xor    $0x1,%eax
    64dc:	84 c0                	test   %al,%al
    64de:	75 5a                	jne    653a <safe_div_func_double_f_f+0x93>
    64e0:	66 0f ef c0          	pxor   %xmm0,%xmm0
    64e4:	66 0f 2e 45 f0       	ucomisd -0x10(%rbp),%xmm0
    64e9:	7a 0b                	jp     64f6 <safe_div_func_double_f_f+0x4f>
    64eb:	66 0f ef c0          	pxor   %xmm0,%xmm0
    64ef:	66 0f 2e 45 f0       	ucomisd -0x10(%rbp),%xmm0
    64f4:	74 50                	je     6546 <safe_div_func_double_f_f+0x9f>
    64f6:	f2 0f 10 4d f8       	movsd  -0x8(%rbp),%xmm1
    64fb:	f2 0f 10 05 15 e5 00 	movsd  0xe515(%rip),%xmm0        # 14a18 <l_775.4637+0x90>
    6502:	00 
    6503:	f2 0f 59 c1          	mulsd  %xmm1,%xmm0
    6507:	f2 0f 10 55 f0       	movsd  -0x10(%rbp),%xmm2
    650c:	f2 0f 10 0d 0c e5 00 	movsd  0xe50c(%rip),%xmm1        # 14a20 <l_775.4637+0x98>
    6513:	00 
    6514:	f2 0f 59 ca          	mulsd  %xmm2,%xmm1
    6518:	f2 0f 5e c1          	divsd  %xmm1,%xmm0
    651c:	f3 0f 7e 0d bc e4 00 	movq   0xe4bc(%rip),%xmm1        # 149e0 <l_775.4637+0x58>
    6523:	00 
    6524:	66 0f 54 c1          	andpd  %xmm1,%xmm0
    6528:	66 0f 2f 05 f8 e4 00 	comisd 0xe4f8(%rip),%xmm0        # 14a28 <l_775.4637+0xa0>
    652f:	00 
    6530:	0f 97 c0             	seta   %al
    6533:	83 f0 01             	xor    $0x1,%eax
    6536:	84 c0                	test   %al,%al
    6538:	74 0c                	je     6546 <safe_div_func_double_f_f+0x9f>
    653a:	f2 0f 10 45 f8       	movsd  -0x8(%rbp),%xmm0
    653f:	f2 0f 5e 45 f0       	divsd  -0x10(%rbp),%xmm0
    6544:	eb 05                	jmp    654b <safe_div_func_double_f_f+0xa4>
    6546:	f2 0f 10 45 f8       	movsd  -0x8(%rbp),%xmm0
    654b:	5d                   	pop    %rbp
    654c:	c3                   	retq   

000000000000654d <safe_convert_func_float_to_int32_t>:
    654d:	f3 0f 1e fa          	endbr64 
    6551:	55                   	push   %rbp
    6552:	48 89 e5             	mov    %rsp,%rbp
    6555:	f3 0f 11 45 fc       	movss  %xmm0,-0x4(%rbp)
    655a:	f3 0f 10 05 ce e4 00 	movss  0xe4ce(%rip),%xmm0        # 14a30 <l_775.4637+0xa8>
    6561:	00 
    6562:	0f 2f 45 fc          	comiss -0x4(%rbp),%xmm0
    6566:	0f 93 c0             	setae  %al
    6569:	83 f0 01             	xor    $0x1,%eax
    656c:	84 c0                	test   %al,%al
    656e:	74 21                	je     6591 <safe_convert_func_float_to_int32_t+0x44>
    6570:	f3 0f 10 45 fc       	movss  -0x4(%rbp),%xmm0
    6575:	0f 2f 05 b8 e4 00 00 	comiss 0xe4b8(%rip),%xmm0        # 14a34 <l_775.4637+0xac>
    657c:	0f 93 c0             	setae  %al
    657f:	83 f0 01             	xor    $0x1,%eax
    6582:	84 c0                	test   %al,%al
    6584:	74 0b                	je     6591 <safe_convert_func_float_to_int32_t+0x44>
    6586:	f3 0f 10 45 fc       	movss  -0x4(%rbp),%xmm0
    658b:	f3 0f 2c c0          	cvttss2si %xmm0,%eax
    658f:	eb 05                	jmp    6596 <safe_convert_func_float_to_int32_t+0x49>
    6591:	b8 ff ff ff 7f       	mov    $0x7fffffff,%eax
    6596:	5d                   	pop    %rbp
    6597:	c3                   	retq   

0000000000006598 <crc32_gentab>:
    6598:	f3 0f 1e fa          	endbr64 
    659c:	55                   	push   %rbp
    659d:	48 89 e5             	mov    %rsp,%rbp
    65a0:	c7 45 fc 20 83 b8 ed 	movl   $0xedb88320,-0x4(%rbp)
    65a7:	c7 45 f4 00 00 00 00 	movl   $0x0,-0xc(%rbp)
    65ae:	eb 51                	jmp    6601 <crc32_gentab+0x69>
    65b0:	8b 45 f4             	mov    -0xc(%rbp),%eax
    65b3:	89 45 f0             	mov    %eax,-0x10(%rbp)
    65b6:	c7 45 f8 08 00 00 00 	movl   $0x8,-0x8(%rbp)
    65bd:	eb 1e                	jmp    65dd <crc32_gentab+0x45>
    65bf:	8b 45 f0             	mov    -0x10(%rbp),%eax
    65c2:	83 e0 01             	and    $0x1,%eax
    65c5:	85 c0                	test   %eax,%eax
    65c7:	74 0d                	je     65d6 <crc32_gentab+0x3e>
    65c9:	8b 45 f0             	mov    -0x10(%rbp),%eax
    65cc:	d1 e8                	shr    %eax
    65ce:	33 45 fc             	xor    -0x4(%rbp),%eax
    65d1:	89 45 f0             	mov    %eax,-0x10(%rbp)
    65d4:	eb 03                	jmp    65d9 <crc32_gentab+0x41>
    65d6:	d1 6d f0             	shrl   -0x10(%rbp)
    65d9:	83 6d f8 01          	subl   $0x1,-0x8(%rbp)
    65dd:	83 7d f8 00          	cmpl   $0x0,-0x8(%rbp)
    65e1:	7f dc                	jg     65bf <crc32_gentab+0x27>
    65e3:	8b 45 f4             	mov    -0xc(%rbp),%eax
    65e6:	48 98                	cltq   
    65e8:	48 8d 0c 85 00 00 00 	lea    0x0(,%rax,4),%rcx
    65ef:	00 
    65f0:	48 8d 15 89 2d 01 00 	lea    0x12d89(%rip),%rdx        # 19380 <crc32_tab>
    65f7:	8b 45 f0             	mov    -0x10(%rbp),%eax
    65fa:	89 04 11             	mov    %eax,(%rcx,%rdx,1)
    65fd:	83 45 f4 01          	addl   $0x1,-0xc(%rbp)
    6601:	81 7d f4 ff 00 00 00 	cmpl   $0xff,-0xc(%rbp)
    6608:	7e a6                	jle    65b0 <crc32_gentab+0x18>
    660a:	90                   	nop
    660b:	90                   	nop
    660c:	5d                   	pop    %rbp
    660d:	c3                   	retq   

000000000000660e <crc32_byte>:
    660e:	f3 0f 1e fa          	endbr64 
    6612:	55                   	push   %rbp
    6613:	48 89 e5             	mov    %rsp,%rbp
    6616:	89 f8                	mov    %edi,%eax
    6618:	88 45 fc             	mov    %al,-0x4(%rbp)
    661b:	8b 05 ff 09 01 00    	mov    0x109ff(%rip),%eax        # 17020 <crc32_context>
    6621:	c1 e8 08             	shr    $0x8,%eax
    6624:	89 c1                	mov    %eax,%ecx
    6626:	0f b6 55 fc          	movzbl -0x4(%rbp),%edx
    662a:	8b 05 f0 09 01 00    	mov    0x109f0(%rip),%eax        # 17020 <crc32_context>
    6630:	31 d0                	xor    %edx,%eax
    6632:	0f b6 c0             	movzbl %al,%eax
    6635:	89 c0                	mov    %eax,%eax
    6637:	48 8d 14 85 00 00 00 	lea    0x0(,%rax,4),%rdx
    663e:	00 
    663f:	48 8d 05 3a 2d 01 00 	lea    0x12d3a(%rip),%rax        # 19380 <crc32_tab>
    6646:	8b 04 02             	mov    (%rdx,%rax,1),%eax
    6649:	31 c8                	xor    %ecx,%eax
    664b:	89 05 cf 09 01 00    	mov    %eax,0x109cf(%rip)        # 17020 <crc32_context>
    6651:	90                   	nop
    6652:	5d                   	pop    %rbp
    6653:	c3                   	retq   

0000000000006654 <crc32_8bytes>:
    6654:	f3 0f 1e fa          	endbr64 
    6658:	55                   	push   %rbp
    6659:	48 89 e5             	mov    %rsp,%rbp
    665c:	48 83 ec 08          	sub    $0x8,%rsp
    6660:	48 89 7d f8          	mov    %rdi,-0x8(%rbp)
    6664:	48 8b 45 f8          	mov    -0x8(%rbp),%rax
    6668:	0f b6 c0             	movzbl %al,%eax
    666b:	89 c7                	mov    %eax,%edi
    666d:	e8 9c ff ff ff       	callq  660e <crc32_byte>
    6672:	48 8b 45 f8          	mov    -0x8(%rbp),%rax
    6676:	48 c1 e8 08          	shr    $0x8,%rax
    667a:	0f b6 c0             	movzbl %al,%eax
    667d:	89 c7                	mov    %eax,%edi
    667f:	e8 8a ff ff ff       	callq  660e <crc32_byte>
    6684:	48 8b 45 f8          	mov    -0x8(%rbp),%rax
    6688:	48 c1 e8 10          	shr    $0x10,%rax
    668c:	0f b6 c0             	movzbl %al,%eax
    668f:	89 c7                	mov    %eax,%edi
    6691:	e8 78 ff ff ff       	callq  660e <crc32_byte>
    6696:	48 8b 45 f8          	mov    -0x8(%rbp),%rax
    669a:	48 c1 e8 18          	shr    $0x18,%rax
    669e:	0f b6 c0             	movzbl %al,%eax
    66a1:	89 c7                	mov    %eax,%edi
    66a3:	e8 66 ff ff ff       	callq  660e <crc32_byte>
    66a8:	48 8b 45 f8          	mov    -0x8(%rbp),%rax
    66ac:	48 c1 e8 20          	shr    $0x20,%rax
    66b0:	0f b6 c0             	movzbl %al,%eax
    66b3:	89 c7                	mov    %eax,%edi
    66b5:	e8 54 ff ff ff       	callq  660e <crc32_byte>
    66ba:	48 8b 45 f8          	mov    -0x8(%rbp),%rax
    66be:	48 c1 e8 28          	shr    $0x28,%rax
    66c2:	0f b6 c0             	movzbl %al,%eax
    66c5:	89 c7                	mov    %eax,%edi
    66c7:	e8 42 ff ff ff       	callq  660e <crc32_byte>
    66cc:	48 8b 45 f8          	mov    -0x8(%rbp),%rax
    66d0:	48 c1 e8 30          	shr    $0x30,%rax
    66d4:	0f b6 c0             	movzbl %al,%eax
    66d7:	89 c7                	mov    %eax,%edi
    66d9:	e8 30 ff ff ff       	callq  660e <crc32_byte>
    66de:	48 8b 45 f8          	mov    -0x8(%rbp),%rax
    66e2:	48 c1 e8 38          	shr    $0x38,%rax
    66e6:	0f b6 c0             	movzbl %al,%eax
    66e9:	89 c7                	mov    %eax,%edi
    66eb:	e8 1e ff ff ff       	callq  660e <crc32_byte>
    66f0:	90                   	nop
    66f1:	c9                   	leaveq 
    66f2:	c3                   	retq   

00000000000066f3 <transparent_crc>:
    66f3:	f3 0f 1e fa          	endbr64 
    66f7:	55                   	push   %rbp
    66f8:	48 89 e5             	mov    %rsp,%rbp
    66fb:	48 83 ec 20          	sub    $0x20,%rsp
    66ff:	48 89 7d f8          	mov    %rdi,-0x8(%rbp)
    6703:	48 89 75 f0          	mov    %rsi,-0x10(%rbp)
    6707:	89 55 ec             	mov    %edx,-0x14(%rbp)
    670a:	48 8b 45 f8          	mov    -0x8(%rbp),%rax
    670e:	48 89 c7             	mov    %rax,%rdi
    6711:	e8 3e ff ff ff       	callq  6654 <crc32_8bytes>
    6716:	83 7d ec 00          	cmpl   $0x0,-0x14(%rbp)
    671a:	74 22                	je     673e <transparent_crc+0x4b>
    671c:	8b 05 fe 08 01 00    	mov    0x108fe(%rip),%eax        # 17020 <crc32_context>
    6722:	f7 d0                	not    %eax
    6724:	89 c2                	mov    %eax,%edx
    6726:	48 8b 45 f0          	mov    -0x10(%rbp),%rax
    672a:	48 89 c6             	mov    %rax,%rsi
    672d:	48 8d 3d fc b8 00 00 	lea    0xb8fc(%rip),%rdi        # 12030 <_IO_stdin_used+0x30>
    6734:	b8 00 00 00 00       	mov    $0x0,%eax
    6739:	e8 42 e9 ff ff       	callq  5080 <printf@plt>
    673e:	90                   	nop
    673f:	c9                   	leaveq 
    6740:	c3                   	retq   

0000000000006741 <transparent_crc_bytes>:
    6741:	f3 0f 1e fa          	endbr64 
    6745:	55                   	push   %rbp
    6746:	48 89 e5             	mov    %rsp,%rbp
    6749:	48 83 ec 30          	sub    $0x30,%rsp
    674d:	48 89 7d e8          	mov    %rdi,-0x18(%rbp)
    6751:	89 75 e4             	mov    %esi,-0x1c(%rbp)
    6754:	48 89 55 d8          	mov    %rdx,-0x28(%rbp)
    6758:	89 4d e0             	mov    %ecx,-0x20(%rbp)
    675b:	c7 45 fc 00 00 00 00 	movl   $0x0,-0x4(%rbp)
    6762:	eb 1e                	jmp    6782 <transparent_crc_bytes+0x41>
    6764:	8b 45 fc             	mov    -0x4(%rbp),%eax
    6767:	48 63 d0             	movslq %eax,%rdx
    676a:	48 8b 45 e8          	mov    -0x18(%rbp),%rax
    676e:	48 01 d0             	add    %rdx,%rax
    6771:	0f b6 00             	movzbl (%rax),%eax
    6774:	0f b6 c0             	movzbl %al,%eax
    6777:	89 c7                	mov    %eax,%edi
    6779:	e8 90 fe ff ff       	callq  660e <crc32_byte>
    677e:	83 45 fc 01          	addl   $0x1,-0x4(%rbp)
    6782:	8b 45 fc             	mov    -0x4(%rbp),%eax
    6785:	3b 45 e4             	cmp    -0x1c(%rbp),%eax
    6788:	7c da                	jl     6764 <transparent_crc_bytes+0x23>
    678a:	83 7d e0 00          	cmpl   $0x0,-0x20(%rbp)
    678e:	74 22                	je     67b2 <transparent_crc_bytes+0x71>
    6790:	8b 05 8a 08 01 00    	mov    0x1088a(%rip),%eax        # 17020 <crc32_context>
    6796:	f7 d0                	not    %eax
    6798:	89 c2                	mov    %eax,%edx
    679a:	48 8b 45 d8          	mov    -0x28(%rbp),%rax
    679e:	48 89 c6             	mov    %rax,%rsi
    67a1:	48 8d 3d 88 b8 00 00 	lea    0xb888(%rip),%rdi        # 12030 <_IO_stdin_used+0x30>
    67a8:	b8 00 00 00 00       	mov    $0x0,%eax
    67ad:	e8 ce e8 ff ff       	callq  5080 <printf@plt>
    67b2:	90                   	nop
    67b3:	c9                   	leaveq 
    67b4:	c3                   	retq   

00000000000067b5 <func_1>:
    67b5:	f3 0f 1e fa          	endbr64 
    67b9:	55                   	push   %rbp
    67ba:	48 89 e5             	mov    %rsp,%rbp
    67bd:	48 81 ec f0 05 00 00 	sub    $0x5f0,%rsp
    67c4:	64 48 8b 04 25 28 00 	mov    %fs:0x28,%rax
    67cb:	00 00 
    67cd:	48 89 45 f8          	mov    %rax,-0x8(%rbp)
    67d1:	31 c0                	xor    %eax,%eax
    67d3:	48 8d 05 9a 08 01 00 	lea    0x1089a(%rip),%rax        # 17074 <g_87>
    67da:	48 89 85 50 fa ff ff 	mov    %rax,-0x5b0(%rbp)
    67e1:	48 8d 85 a0 fa ff ff 	lea    -0x560(%rbp),%rax
    67e8:	48 83 c0 08          	add    $0x8,%rax
    67ec:	48 89 85 30 fa ff ff 	mov    %rax,-0x5d0(%rbp)
    67f3:	48 8d 85 30 fa ff ff 	lea    -0x5d0(%rbp),%rax
    67fa:	48 89 85 58 fa ff ff 	mov    %rax,-0x5a8(%rbp)
    6801:	66 c7 85 1a fa ff ff 	movw   $0x0,-0x5e6(%rbp)
    6808:	00 00 
    680a:	c7 85 28 fa ff ff 05 	movl   $0x5,-0x5d8(%rbp)
    6811:	00 00 00 
    6814:	c6 85 8c fa ff ff e7 	movb   $0xe7,-0x574(%rbp)
    681b:	c7 85 90 fa ff ff a0 	movl   $0xbc2de0a0,-0x570(%rbp)
    6822:	e0 2d bc 
    6825:	c6 85 16 fa ff ff 09 	movb   $0x9,-0x5ea(%rbp)
    682c:	48 8d 05 bd 1f 01 00 	lea    0x11fbd(%rip),%rax        # 187f0 <g_1668>
    6833:	48 89 85 38 fa ff ff 	mov    %rax,-0x5c8(%rbp)
    683a:	48 8d 85 38 fa ff ff 	lea    -0x5c8(%rbp),%rax
    6841:	48 89 85 e0 fa ff ff 	mov    %rax,-0x520(%rbp)
    6848:	48 c7 85 e8 fa ff ff 	movq   $0x0,-0x518(%rbp)
    684f:	00 00 00 00 
    6853:	48 8d 85 38 fa ff ff 	lea    -0x5c8(%rbp),%rax
    685a:	48 89 85 f0 fa ff ff 	mov    %rax,-0x510(%rbp)
    6861:	48 8d 85 38 fa ff ff 	lea    -0x5c8(%rbp),%rax
    6868:	48 89 85 f8 fa ff ff 	mov    %rax,-0x508(%rbp)
    686f:	48 c7 85 00 fb ff ff 	movq   $0x0,-0x500(%rbp)
    6876:	00 00 00 00 
    687a:	48 8d 85 38 fa ff ff 	lea    -0x5c8(%rbp),%rax
    6881:	48 89 85 08 fb ff ff 	mov    %rax,-0x4f8(%rbp)
    6888:	48 8d 85 38 fa ff ff 	lea    -0x5c8(%rbp),%rax
    688f:	48 89 85 10 fb ff ff 	mov    %rax,-0x4f0(%rbp)
    6896:	48 c7 85 60 fa ff ff 	movq   $0x0,-0x5a0(%rbp)
    689d:	00 00 00 00 
    68a1:	c7 85 20 fa ff ff 00 	movl   $0x0,-0x5e0(%rbp)
    68a8:	00 00 00 
    68ab:	eb 19                	jmp    68c6 <func_1+0x111>
    68ad:	8b 85 20 fa ff ff    	mov    -0x5e0(%rbp),%eax
    68b3:	48 98                	cltq   
    68b5:	66 c7 84 45 9e fa ff 	movw   $0x88c5,-0x562(%rbp,%rax,2)
    68bc:	ff c5 88 
    68bf:	83 85 20 fa ff ff 01 	addl   $0x1,-0x5e0(%rbp)
    68c6:	83 bd 20 fa ff ff 00 	cmpl   $0x0,-0x5e0(%rbp)
    68cd:	7e de                	jle    68ad <func_1+0xf8>
    68cf:	c7 85 20 fa ff ff 00 	movl   $0x0,-0x5e0(%rbp)
    68d6:	00 00 00 
    68d9:	eb 1b                	jmp    68f6 <func_1+0x141>
    68db:	8b 85 20 fa ff ff    	mov    -0x5e0(%rbp),%eax
    68e1:	48 98                	cltq   
    68e3:	48 c7 84 c5 a0 fa ff 	movq   $0x0,-0x560(%rbp,%rax,8)
    68ea:	ff 00 00 00 00 
    68ef:	83 85 20 fa ff ff 01 	addl   $0x1,-0x5e0(%rbp)
    68f6:	83 bd 20 fa ff ff 01 	cmpl   $0x1,-0x5e0(%rbp)
    68fd:	7e dc                	jle    68db <func_1+0x126>
    68ff:	c7 05 1b 07 01 00 e9 	movl   $0xffffffe9,0x1071b(%rip)        # 17024 <g_2>
    6906:	ff ff ff 
    6909:	e9 ba 08 00 00       	jmpq   71c8 <func_1+0xa13>
    690e:	48 8d 05 0f 07 01 00 	lea    0x1070f(%rip),%rax        # 17024 <g_2>
    6915:	48 89 85 68 fa ff ff 	mov    %rax,-0x598(%rbp)
    691c:	c6 85 17 fa ff ff ff 	movb   $0xff,-0x5e9(%rbp)
    6923:	48 8d 05 a6 2e 01 00 	lea    0x12ea6(%rip),%rax        # 197d0 <g_1389>
    692a:	48 89 85 40 fa ff ff 	mov    %rax,-0x5c0(%rbp)
    6931:	48 c7 85 70 fb ff ff 	movq   $0x0,-0x490(%rbp)
    6938:	00 00 00 00 
    693c:	48 8d 85 40 fa ff ff 	lea    -0x5c0(%rbp),%rax
    6943:	48 89 85 78 fb ff ff 	mov    %rax,-0x488(%rbp)
    694a:	48 8d 85 40 fa ff ff 	lea    -0x5c0(%rbp),%rax
    6951:	48 89 85 80 fb ff ff 	mov    %rax,-0x480(%rbp)
    6958:	48 8d 85 40 fa ff ff 	lea    -0x5c0(%rbp),%rax
    695f:	48 89 85 88 fb ff ff 	mov    %rax,-0x478(%rbp)
    6966:	48 c7 85 90 fb ff ff 	movq   $0x0,-0x470(%rbp)
    696d:	00 00 00 00 
    6971:	48 8d 85 40 fa ff ff 	lea    -0x5c0(%rbp),%rax
    6978:	48 89 85 98 fb ff ff 	mov    %rax,-0x468(%rbp)
    697f:	48 c7 85 a0 fb ff ff 	movq   $0x0,-0x460(%rbp)
    6986:	00 00 00 00 
    698a:	48 8d 85 40 fa ff ff 	lea    -0x5c0(%rbp),%rax
    6991:	48 89 85 a8 fb ff ff 	mov    %rax,-0x458(%rbp)
    6998:	48 c7 85 b0 fb ff ff 	movq   $0x0,-0x450(%rbp)
    699f:	00 00 00 00 
    69a3:	48 8d 85 40 fa ff ff 	lea    -0x5c0(%rbp),%rax
    69aa:	48 89 85 b8 fb ff ff 	mov    %rax,-0x448(%rbp)
    69b1:	48 8d 85 40 fa ff ff 	lea    -0x5c0(%rbp),%rax
    69b8:	48 89 85 c0 fb ff ff 	mov    %rax,-0x440(%rbp)
    69bf:	48 8d 85 40 fa ff ff 	lea    -0x5c0(%rbp),%rax
    69c6:	48 89 85 c8 fb ff ff 	mov    %rax,-0x438(%rbp)
    69cd:	48 8d 85 40 fa ff ff 	lea    -0x5c0(%rbp),%rax
    69d4:	48 89 85 d0 fb ff ff 	mov    %rax,-0x430(%rbp)
    69db:	48 8d 85 40 fa ff ff 	lea    -0x5c0(%rbp),%rax
    69e2:	48 89 85 d8 fb ff ff 	mov    %rax,-0x428(%rbp)
    69e9:	48 8d 85 40 fa ff ff 	lea    -0x5c0(%rbp),%rax
    69f0:	48 89 85 e0 fb ff ff 	mov    %rax,-0x420(%rbp)
    69f7:	48 8d 85 40 fa ff ff 	lea    -0x5c0(%rbp),%rax
    69fe:	48 89 85 e8 fb ff ff 	mov    %rax,-0x418(%rbp)
    6a05:	48 8d 85 40 fa ff ff 	lea    -0x5c0(%rbp),%rax
    6a0c:	48 89 85 f0 fb ff ff 	mov    %rax,-0x410(%rbp)
    6a13:	48 8d 85 40 fa ff ff 	lea    -0x5c0(%rbp),%rax
    6a1a:	48 89 85 f8 fb ff ff 	mov    %rax,-0x408(%rbp)
    6a21:	48 c7 85 00 fc ff ff 	movq   $0x0,-0x400(%rbp)
    6a28:	00 00 00 00 
    6a2c:	48 8d 85 40 fa ff ff 	lea    -0x5c0(%rbp),%rax
    6a33:	48 89 85 08 fc ff ff 	mov    %rax,-0x3f8(%rbp)
    6a3a:	48 c7 85 10 fc ff ff 	movq   $0x0,-0x3f0(%rbp)
    6a41:	00 00 00 00 
    6a45:	48 8d 85 40 fa ff ff 	lea    -0x5c0(%rbp),%rax
    6a4c:	48 89 85 18 fc ff ff 	mov    %rax,-0x3e8(%rbp)
    6a53:	48 8d 85 40 fa ff ff 	lea    -0x5c0(%rbp),%rax
    6a5a:	48 89 85 20 fc ff ff 	mov    %rax,-0x3e0(%rbp)
    6a61:	48 8d 85 40 fa ff ff 	lea    -0x5c0(%rbp),%rax
    6a68:	48 89 85 28 fc ff ff 	mov    %rax,-0x3d8(%rbp)
    6a6f:	48 8d 85 40 fa ff ff 	lea    -0x5c0(%rbp),%rax
    6a76:	48 89 85 30 fc ff ff 	mov    %rax,-0x3d0(%rbp)
    6a7d:	48 8d 85 40 fa ff ff 	lea    -0x5c0(%rbp),%rax
    6a84:	48 89 85 38 fc ff ff 	mov    %rax,-0x3c8(%rbp)
    6a8b:	48 8d 85 40 fa ff ff 	lea    -0x5c0(%rbp),%rax
    6a92:	48 89 85 40 fc ff ff 	mov    %rax,-0x3c0(%rbp)
    6a99:	48 8d 85 40 fa ff ff 	lea    -0x5c0(%rbp),%rax
    6aa0:	48 89 85 48 fc ff ff 	mov    %rax,-0x3b8(%rbp)
    6aa7:	48 8d 85 40 fa ff ff 	lea    -0x5c0(%rbp),%rax
    6aae:	48 89 85 50 fc ff ff 	mov    %rax,-0x3b0(%rbp)
    6ab5:	48 c7 85 58 fc ff ff 	movq   $0x0,-0x3a8(%rbp)
    6abc:	00 00 00 00 
    6ac0:	48 c7 85 60 fc ff ff 	movq   $0x0,-0x3a0(%rbp)
    6ac7:	00 00 00 00 
    6acb:	48 8d 85 40 fa ff ff 	lea    -0x5c0(%rbp),%rax
    6ad2:	48 89 85 68 fc ff ff 	mov    %rax,-0x398(%rbp)
    6ad9:	48 8d 85 40 fa ff ff 	lea    -0x5c0(%rbp),%rax
    6ae0:	48 89 85 70 fc ff ff 	mov    %rax,-0x390(%rbp)
    6ae7:	48 8d 85 40 fa ff ff 	lea    -0x5c0(%rbp),%rax
    6aee:	48 89 85 78 fc ff ff 	mov    %rax,-0x388(%rbp)
    6af5:	48 8d 85 40 fa ff ff 	lea    -0x5c0(%rbp),%rax
    6afc:	48 89 85 80 fc ff ff 	mov    %rax,-0x380(%rbp)
    6b03:	48 8d 85 40 fa ff ff 	lea    -0x5c0(%rbp),%rax
    6b0a:	48 89 85 88 fc ff ff 	mov    %rax,-0x378(%rbp)
    6b11:	48 8d 85 40 fa ff ff 	lea    -0x5c0(%rbp),%rax
    6b18:	48 89 85 90 fc ff ff 	mov    %rax,-0x370(%rbp)
    6b1f:	48 8d 85 40 fa ff ff 	lea    -0x5c0(%rbp),%rax
    6b26:	48 89 85 98 fc ff ff 	mov    %rax,-0x368(%rbp)
    6b2d:	48 c7 85 a0 fc ff ff 	movq   $0x0,-0x360(%rbp)
    6b34:	00 00 00 00 
    6b38:	48 c7 85 a8 fc ff ff 	movq   $0x0,-0x358(%rbp)
    6b3f:	00 00 00 00 
    6b43:	48 8d 85 40 fa ff ff 	lea    -0x5c0(%rbp),%rax
    6b4a:	48 89 85 b0 fc ff ff 	mov    %rax,-0x350(%rbp)
    6b51:	48 8d 85 40 fa ff ff 	lea    -0x5c0(%rbp),%rax
    6b58:	48 89 85 b8 fc ff ff 	mov    %rax,-0x348(%rbp)
    6b5f:	48 c7 85 c0 fc ff ff 	movq   $0x0,-0x340(%rbp)
    6b66:	00 00 00 00 
    6b6a:	48 8d 85 40 fa ff ff 	lea    -0x5c0(%rbp),%rax
    6b71:	48 89 85 c8 fc ff ff 	mov    %rax,-0x338(%rbp)
    6b78:	48 8d 85 40 fa ff ff 	lea    -0x5c0(%rbp),%rax
    6b7f:	48 89 85 d0 fc ff ff 	mov    %rax,-0x330(%rbp)
    6b86:	48 8d 85 40 fa ff ff 	lea    -0x5c0(%rbp),%rax
    6b8d:	48 89 85 d8 fc ff ff 	mov    %rax,-0x328(%rbp)
    6b94:	48 8d 85 40 fa ff ff 	lea    -0x5c0(%rbp),%rax
    6b9b:	48 89 85 e0 fc ff ff 	mov    %rax,-0x320(%rbp)
    6ba2:	48 8d 85 40 fa ff ff 	lea    -0x5c0(%rbp),%rax
    6ba9:	48 89 85 e8 fc ff ff 	mov    %rax,-0x318(%rbp)
    6bb0:	48 c7 85 f0 fc ff ff 	movq   $0x0,-0x310(%rbp)
    6bb7:	00 00 00 00 
    6bbb:	48 c7 85 f8 fc ff ff 	movq   $0x0,-0x308(%rbp)
    6bc2:	00 00 00 00 
    6bc6:	48 c7 85 00 fd ff ff 	movq   $0x0,-0x300(%rbp)
    6bcd:	00 00 00 00 
    6bd1:	48 8d 85 40 fa ff ff 	lea    -0x5c0(%rbp),%rax
    6bd8:	48 89 85 08 fd ff ff 	mov    %rax,-0x2f8(%rbp)
    6bdf:	48 8d 85 40 fa ff ff 	lea    -0x5c0(%rbp),%rax
    6be6:	48 89 85 10 fd ff ff 	mov    %rax,-0x2f0(%rbp)
    6bed:	48 8d 85 40 fa ff ff 	lea    -0x5c0(%rbp),%rax
    6bf4:	48 89 85 18 fd ff ff 	mov    %rax,-0x2e8(%rbp)
    6bfb:	48 8d 85 40 fa ff ff 	lea    -0x5c0(%rbp),%rax
    6c02:	48 89 85 20 fd ff ff 	mov    %rax,-0x2e0(%rbp)
    6c09:	48 8d 85 40 fa ff ff 	lea    -0x5c0(%rbp),%rax
    6c10:	48 89 85 28 fd ff ff 	mov    %rax,-0x2d8(%rbp)
    6c17:	48 8d 85 40 fa ff ff 	lea    -0x5c0(%rbp),%rax
    6c1e:	48 89 85 30 fd ff ff 	mov    %rax,-0x2d0(%rbp)
    6c25:	48 8d 85 40 fa ff ff 	lea    -0x5c0(%rbp),%rax
    6c2c:	48 89 85 38 fd ff ff 	mov    %rax,-0x2c8(%rbp)
    6c33:	48 8d 85 40 fa ff ff 	lea    -0x5c0(%rbp),%rax
    6c3a:	48 89 85 40 fd ff ff 	mov    %rax,-0x2c0(%rbp)
    6c41:	48 c7 85 48 fd ff ff 	movq   $0x0,-0x2b8(%rbp)
    6c48:	00 00 00 00 
    6c4c:	48 8d 85 40 fa ff ff 	lea    -0x5c0(%rbp),%rax
    6c53:	48 89 85 50 fd ff ff 	mov    %rax,-0x2b0(%rbp)
    6c5a:	48 8d 85 40 fa ff ff 	lea    -0x5c0(%rbp),%rax
    6c61:	48 89 85 58 fd ff ff 	mov    %rax,-0x2a8(%rbp)
    6c68:	48 8d 85 40 fa ff ff 	lea    -0x5c0(%rbp),%rax
    6c6f:	48 89 85 60 fd ff ff 	mov    %rax,-0x2a0(%rbp)
    6c76:	48 8d 85 40 fa ff ff 	lea    -0x5c0(%rbp),%rax
    6c7d:	48 89 85 68 fd ff ff 	mov    %rax,-0x298(%rbp)
    6c84:	48 c7 85 70 fd ff ff 	movq   $0x0,-0x290(%rbp)
    6c8b:	00 00 00 00 
    6c8f:	48 8d 85 40 fa ff ff 	lea    -0x5c0(%rbp),%rax
    6c96:	48 89 85 78 fd ff ff 	mov    %rax,-0x288(%rbp)
    6c9d:	48 8d 85 40 fa ff ff 	lea    -0x5c0(%rbp),%rax
    6ca4:	48 89 85 80 fd ff ff 	mov    %rax,-0x280(%rbp)
    6cab:	48 8d 85 40 fa ff ff 	lea    -0x5c0(%rbp),%rax
    6cb2:	48 89 85 88 fd ff ff 	mov    %rax,-0x278(%rbp)
    6cb9:	48 c7 85 90 fd ff ff 	movq   $0x0,-0x270(%rbp)
    6cc0:	00 00 00 00 
    6cc4:	48 8d 85 40 fa ff ff 	lea    -0x5c0(%rbp),%rax
    6ccb:	48 89 85 98 fd ff ff 	mov    %rax,-0x268(%rbp)
    6cd2:	48 8d 85 40 fa ff ff 	lea    -0x5c0(%rbp),%rax
    6cd9:	48 89 85 a0 fd ff ff 	mov    %rax,-0x260(%rbp)
    6ce0:	48 8d 85 40 fa ff ff 	lea    -0x5c0(%rbp),%rax
    6ce7:	48 89 85 a8 fd ff ff 	mov    %rax,-0x258(%rbp)
    6cee:	48 8d 85 40 fa ff ff 	lea    -0x5c0(%rbp),%rax
    6cf5:	48 89 85 b0 fd ff ff 	mov    %rax,-0x250(%rbp)
    6cfc:	48 8d 85 40 fa ff ff 	lea    -0x5c0(%rbp),%rax
    6d03:	48 89 85 b8 fd ff ff 	mov    %rax,-0x248(%rbp)
    6d0a:	48 8d 85 40 fa ff ff 	lea    -0x5c0(%rbp),%rax
    6d11:	48 89 85 c0 fd ff ff 	mov    %rax,-0x240(%rbp)
    6d18:	48 8d 85 40 fa ff ff 	lea    -0x5c0(%rbp),%rax
    6d1f:	48 89 85 c8 fd ff ff 	mov    %rax,-0x238(%rbp)
    6d26:	48 8d 85 40 fa ff ff 	lea    -0x5c0(%rbp),%rax
    6d2d:	48 89 85 d0 fd ff ff 	mov    %rax,-0x230(%rbp)
    6d34:	48 8d 85 40 fa ff ff 	lea    -0x5c0(%rbp),%rax
    6d3b:	48 89 85 d8 fd ff ff 	mov    %rax,-0x228(%rbp)
    6d42:	48 8d 85 40 fa ff ff 	lea    -0x5c0(%rbp),%rax
    6d49:	48 89 85 e0 fd ff ff 	mov    %rax,-0x220(%rbp)
    6d50:	48 c7 85 e8 fd ff ff 	movq   $0x0,-0x218(%rbp)
    6d57:	00 00 00 00 
    6d5b:	48 c7 85 f0 fd ff ff 	movq   $0x0,-0x210(%rbp)
    6d62:	00 00 00 00 
    6d66:	48 8d 85 40 fa ff ff 	lea    -0x5c0(%rbp),%rax
    6d6d:	48 89 85 f8 fd ff ff 	mov    %rax,-0x208(%rbp)
    6d74:	48 8d 85 40 fa ff ff 	lea    -0x5c0(%rbp),%rax
    6d7b:	48 89 85 00 fe ff ff 	mov    %rax,-0x200(%rbp)
    6d82:	48 8d 85 40 fa ff ff 	lea    -0x5c0(%rbp),%rax
    6d89:	48 89 85 08 fe ff ff 	mov    %rax,-0x1f8(%rbp)
    6d90:	48 8d 85 40 fa ff ff 	lea    -0x5c0(%rbp),%rax
    6d97:	48 89 85 10 fe ff ff 	mov    %rax,-0x1f0(%rbp)
    6d9e:	48 8d 85 40 fa ff ff 	lea    -0x5c0(%rbp),%rax
    6da5:	48 89 85 18 fe ff ff 	mov    %rax,-0x1e8(%rbp)
    6dac:	48 8d 85 40 fa ff ff 	lea    -0x5c0(%rbp),%rax
    6db3:	48 89 85 20 fe ff ff 	mov    %rax,-0x1e0(%rbp)
    6dba:	48 8d 85 40 fa ff ff 	lea    -0x5c0(%rbp),%rax
    6dc1:	48 89 85 28 fe ff ff 	mov    %rax,-0x1d8(%rbp)
    6dc8:	48 8d 85 40 fa ff ff 	lea    -0x5c0(%rbp),%rax
    6dcf:	48 89 85 30 fe ff ff 	mov    %rax,-0x1d0(%rbp)
    6dd6:	48 c7 85 38 fe ff ff 	movq   $0x0,-0x1c8(%rbp)
    6ddd:	00 00 00 00 
    6de1:	48 c7 85 40 fe ff ff 	movq   $0x0,-0x1c0(%rbp)
    6de8:	00 00 00 00 
    6dec:	48 8d 85 40 fa ff ff 	lea    -0x5c0(%rbp),%rax
    6df3:	48 89 85 48 fe ff ff 	mov    %rax,-0x1b8(%rbp)
    6dfa:	48 8d 85 40 fa ff ff 	lea    -0x5c0(%rbp),%rax
    6e01:	48 89 85 50 fe ff ff 	mov    %rax,-0x1b0(%rbp)
    6e08:	48 8d 85 40 fa ff ff 	lea    -0x5c0(%rbp),%rax
    6e0f:	48 89 85 58 fe ff ff 	mov    %rax,-0x1a8(%rbp)
    6e16:	48 c7 85 60 fe ff ff 	movq   $0x0,-0x1a0(%rbp)
    6e1d:	00 00 00 00 
    6e21:	48 8d 85 40 fa ff ff 	lea    -0x5c0(%rbp),%rax
    6e28:	48 89 85 68 fe ff ff 	mov    %rax,-0x198(%rbp)
    6e2f:	48 c7 85 70 fe ff ff 	movq   $0x0,-0x190(%rbp)
    6e36:	00 00 00 00 
    6e3a:	48 8d 85 40 fa ff ff 	lea    -0x5c0(%rbp),%rax
    6e41:	48 89 85 78 fe ff ff 	mov    %rax,-0x188(%rbp)
    6e48:	48 c7 85 80 fe ff ff 	movq   $0x0,-0x180(%rbp)
    6e4f:	00 00 00 00 
    6e53:	48 8d 85 40 fa ff ff 	lea    -0x5c0(%rbp),%rax
    6e5a:	48 89 85 88 fe ff ff 	mov    %rax,-0x178(%rbp)
    6e61:	48 8d 85 40 fa ff ff 	lea    -0x5c0(%rbp),%rax
    6e68:	48 89 85 90 fe ff ff 	mov    %rax,-0x170(%rbp)
    6e6f:	48 8d 85 40 fa ff ff 	lea    -0x5c0(%rbp),%rax
    6e76:	48 89 85 98 fe ff ff 	mov    %rax,-0x168(%rbp)
    6e7d:	48 8d 85 40 fa ff ff 	lea    -0x5c0(%rbp),%rax
    6e84:	48 89 85 a0 fe ff ff 	mov    %rax,-0x160(%rbp)
    6e8b:	48 8d 85 40 fa ff ff 	lea    -0x5c0(%rbp),%rax
    6e92:	48 89 85 a8 fe ff ff 	mov    %rax,-0x158(%rbp)
    6e99:	48 8d 85 40 fa ff ff 	lea    -0x5c0(%rbp),%rax
    6ea0:	48 89 85 b0 fe ff ff 	mov    %rax,-0x150(%rbp)
    6ea7:	48 8d 85 40 fa ff ff 	lea    -0x5c0(%rbp),%rax
    6eae:	48 89 85 b8 fe ff ff 	mov    %rax,-0x148(%rbp)
    6eb5:	48 c7 85 c0 fe ff ff 	movq   $0x0,-0x140(%rbp)
    6ebc:	00 00 00 00 
    6ec0:	48 8d 85 40 fa ff ff 	lea    -0x5c0(%rbp),%rax
    6ec7:	48 89 85 c8 fe ff ff 	mov    %rax,-0x138(%rbp)
    6ece:	48 8d 85 40 fa ff ff 	lea    -0x5c0(%rbp),%rax
    6ed5:	48 89 85 d0 fe ff ff 	mov    %rax,-0x130(%rbp)
    6edc:	48 8d 85 40 fa ff ff 	lea    -0x5c0(%rbp),%rax
    6ee3:	48 89 85 d8 fe ff ff 	mov    %rax,-0x128(%rbp)
    6eea:	48 8d 85 40 fa ff ff 	lea    -0x5c0(%rbp),%rax
    6ef1:	48 89 85 e0 fe ff ff 	mov    %rax,-0x120(%rbp)
    6ef8:	48 8d 85 40 fa ff ff 	lea    -0x5c0(%rbp),%rax
    6eff:	48 89 85 e8 fe ff ff 	mov    %rax,-0x118(%rbp)
    6f06:	48 8d 85 40 fa ff ff 	lea    -0x5c0(%rbp),%rax
    6f0d:	48 89 85 f0 fe ff ff 	mov    %rax,-0x110(%rbp)
    6f14:	48 8d 85 40 fa ff ff 	lea    -0x5c0(%rbp),%rax
    6f1b:	48 89 85 f8 fe ff ff 	mov    %rax,-0x108(%rbp)
    6f22:	48 c7 85 00 ff ff ff 	movq   $0x0,-0x100(%rbp)
    6f29:	00 00 00 00 
    6f2d:	48 c7 85 08 ff ff ff 	movq   $0x0,-0xf8(%rbp)
    6f34:	00 00 00 00 
    6f38:	48 8d 85 40 fa ff ff 	lea    -0x5c0(%rbp),%rax
    6f3f:	48 89 85 10 ff ff ff 	mov    %rax,-0xf0(%rbp)
    6f46:	48 8d 85 40 fa ff ff 	lea    -0x5c0(%rbp),%rax
    6f4d:	48 89 85 18 ff ff ff 	mov    %rax,-0xe8(%rbp)
    6f54:	48 c7 85 20 ff ff ff 	movq   $0x0,-0xe0(%rbp)
    6f5b:	00 00 00 00 
    6f5f:	48 8d 85 40 fa ff ff 	lea    -0x5c0(%rbp),%rax
    6f66:	48 89 85 28 ff ff ff 	mov    %rax,-0xd8(%rbp)
    6f6d:	48 8d 85 40 fa ff ff 	lea    -0x5c0(%rbp),%rax
    6f74:	48 89 85 30 ff ff ff 	mov    %rax,-0xd0(%rbp)
    6f7b:	48 c7 85 38 ff ff ff 	movq   $0x0,-0xc8(%rbp)
    6f82:	00 00 00 00 
    6f86:	48 8d 85 40 fa ff ff 	lea    -0x5c0(%rbp),%rax
    6f8d:	48 89 85 40 ff ff ff 	mov    %rax,-0xc0(%rbp)
    6f94:	48 8d 85 40 fa ff ff 	lea    -0x5c0(%rbp),%rax
    6f9b:	48 89 85 48 ff ff ff 	mov    %rax,-0xb8(%rbp)
    6fa2:	48 8d 85 40 fa ff ff 	lea    -0x5c0(%rbp),%rax
    6fa9:	48 89 85 50 ff ff ff 	mov    %rax,-0xb0(%rbp)
    6fb0:	48 8d 85 40 fa ff ff 	lea    -0x5c0(%rbp),%rax
    6fb7:	48 89 85 58 ff ff ff 	mov    %rax,-0xa8(%rbp)
    6fbe:	48 c7 85 60 ff ff ff 	movq   $0x0,-0xa0(%rbp)
    6fc5:	00 00 00 00 
    6fc9:	48 c7 85 68 ff ff ff 	movq   $0x0,-0x98(%rbp)
    6fd0:	00 00 00 00 
    6fd4:	48 8d 85 40 fa ff ff 	lea    -0x5c0(%rbp),%rax
    6fdb:	48 89 85 70 ff ff ff 	mov    %rax,-0x90(%rbp)
    6fe2:	48 8d 85 40 fa ff ff 	lea    -0x5c0(%rbp),%rax
    6fe9:	48 89 85 78 ff ff ff 	mov    %rax,-0x88(%rbp)
    6ff0:	48 c7 45 80 00 00 00 	movq   $0x0,-0x80(%rbp)
    6ff7:	00 
    6ff8:	48 8d 85 40 fa ff ff 	lea    -0x5c0(%rbp),%rax
    6fff:	48 89 45 88          	mov    %rax,-0x78(%rbp)
    7003:	48 8d 85 40 fa ff ff 	lea    -0x5c0(%rbp),%rax
    700a:	48 89 45 90          	mov    %rax,-0x70(%rbp)
    700e:	48 c7 45 98 00 00 00 	movq   $0x0,-0x68(%rbp)
    7015:	00 
    7016:	48 8d 85 40 fa ff ff 	lea    -0x5c0(%rbp),%rax
    701d:	48 89 45 a0          	mov    %rax,-0x60(%rbp)
    7021:	48 c7 45 a8 00 00 00 	movq   $0x0,-0x58(%rbp)
    7028:	00 
    7029:	48 c7 45 b0 00 00 00 	movq   $0x0,-0x50(%rbp)
    7030:	00 
    7031:	48 8d 85 40 fa ff ff 	lea    -0x5c0(%rbp),%rax
    7038:	48 89 45 b8          	mov    %rax,-0x48(%rbp)
    703c:	48 8d 85 40 fa ff ff 	lea    -0x5c0(%rbp),%rax
    7043:	48 89 45 c0          	mov    %rax,-0x40(%rbp)
    7047:	48 8d 85 40 fa ff ff 	lea    -0x5c0(%rbp),%rax
    704e:	48 89 45 c8          	mov    %rax,-0x38(%rbp)
    7052:	48 8d 85 40 fa ff ff 	lea    -0x5c0(%rbp),%rax
    7059:	48 89 45 d0          	mov    %rax,-0x30(%rbp)
    705d:	48 8d 85 40 fa ff ff 	lea    -0x5c0(%rbp),%rax
    7064:	48 89 45 d8          	mov    %rax,-0x28(%rbp)
    7068:	48 c7 45 e0 00 00 00 	movq   $0x0,-0x20(%rbp)
    706f:	00 
    7070:	48 8d 85 40 fa ff ff 	lea    -0x5c0(%rbp),%rax
    7077:	48 89 45 e8          	mov    %rax,-0x18(%rbp)
    707b:	48 8d 85 70 fb ff ff 	lea    -0x490(%rbp),%rax
    7082:	48 83 c0 50          	add    $0x50,%rax
    7086:	48 89 85 70 fa ff ff 	mov    %rax,-0x590(%rbp)
    708d:	c7 85 b0 fa ff ff fe 	movl   $0xfffffffe,-0x550(%rbp)
    7094:	ff ff ff 
    7097:	c7 85 b4 fa ff ff fe 	movl   $0xfffffffe,-0x54c(%rbp)
    709e:	ff ff ff 
    70a1:	c7 85 b8 fa ff ff 01 	movl   $0x1,-0x548(%rbp)
    70a8:	00 00 00 
    70ab:	c7 85 bc fa ff ff fe 	movl   $0xfffffffe,-0x544(%rbp)
    70b2:	ff ff ff 
    70b5:	c7 85 c0 fa ff ff fe 	movl   $0xfffffffe,-0x540(%rbp)
    70bc:	ff ff ff 
    70bf:	c7 85 c4 fa ff ff 01 	movl   $0x1,-0x53c(%rbp)
    70c6:	00 00 00 
    70c9:	c7 85 c8 fa ff ff fe 	movl   $0xfffffffe,-0x538(%rbp)
    70d0:	ff ff ff 
    70d3:	c7 85 cc fa ff ff fe 	movl   $0xfffffffe,-0x534(%rbp)
    70da:	ff ff ff 
    70dd:	c7 85 d0 fa ff ff 01 	movl   $0x1,-0x530(%rbp)
    70e4:	00 00 00 
    70e7:	c7 85 d4 fa ff ff fe 	movl   $0xfffffffe,-0x52c(%rbp)
    70ee:	ff ff ff 
    70f1:	c6 85 94 fa ff ff 5a 	movb   $0x5a,-0x56c(%rbp)
    70f8:	c7 85 98 fa ff ff ff 	movl   $0xffffffff,-0x568(%rbp)
    70ff:	ff ff ff 
    7102:	48 8d 05 af 18 01 00 	lea    0x118af(%rip),%rax        # 189b8 <g_3022+0x18>
    7109:	48 89 85 78 fa ff ff 	mov    %rax,-0x588(%rbp)
    7110:	c7 85 2c fa ff ff 42 	movl   $0xcc8f42,-0x5d4(%rbp)
    7117:	8f cc 00 
    711a:	c7 85 1c fa ff ff 00 	movl   $0x0,-0x5e4(%rbp)
    7121:	00 00 00 
    7124:	c6 85 1c fa ff ff 72 	movb   $0x72,-0x5e4(%rbp)
    712b:	c7 85 24 fa ff ff 00 	movl   $0x0,-0x5dc(%rbp)
    7132:	00 00 00 
    7135:	eb 1b                	jmp    7152 <func_1+0x99d>
    7137:	8b 85 24 fa ff ff    	mov    -0x5dc(%rbp),%eax
    713d:	48 98                	cltq   
    713f:	48 c7 84 c5 20 fb ff 	movq   $0xfffffffffffffffc,-0x4e0(%rbp,%rax,8)
    7146:	ff fc ff ff ff 
    714b:	83 85 24 fa ff ff 01 	addl   $0x1,-0x5dc(%rbp)
    7152:	83 bd 24 fa ff ff 09 	cmpl   $0x9,-0x5dc(%rbp)
    7159:	7e dc                	jle    7137 <func_1+0x982>
    715b:	c7 05 cb fe 00 00 00 	movl   $0x0,0xfecb(%rip)        # 17030 <g_8>
    7162:	00 00 00 
    7165:	eb 38                	jmp    719f <func_1+0x9ea>
    7167:	66 c7 85 18 fa ff ff 	movw   $0x0,-0x5e8(%rbp)
    716e:	00 00 
    7170:	c6 85 18 fa ff ff fa 	movb   $0xfa,-0x5e8(%rbp)
    7177:	48 c7 85 48 fa ff ff 	movq   $0x0,-0x5b8(%rbp)
    717e:	00 00 00 00 
    7182:	48 8d 85 48 fa ff ff 	lea    -0x5b8(%rbp),%rax
    7189:	48 89 85 80 fa ff ff 	mov    %rax,-0x580(%rbp)
    7190:	8b 05 9a fe 00 00    	mov    0xfe9a(%rip),%eax        # 17030 <g_8>
    7196:	83 c0 01             	add    $0x1,%eax
    7199:	89 05 91 fe 00 00    	mov    %eax,0xfe91(%rip)        # 17030 <g_8>
    719f:	8b 05 8b fe 00 00    	mov    0xfe8b(%rip),%eax        # 17030 <g_8>
    71a5:	83 f8 09             	cmp    $0x9,%eax
    71a8:	7e bd                	jle    7167 <func_1+0x9b2>
    71aa:	8b 05 74 fe 00 00    	mov    0xfe74(%rip),%eax        # 17024 <g_2>
    71b0:	0f b7 c0             	movzwl %ax,%eax
    71b3:	be 04 00 00 00       	mov    $0x4,%esi
    71b8:	89 c7                	mov    %eax,%edi
    71ba:	e8 40 eb ff ff       	callq  5cff <safe_add_func_uint16_t_u_u>
    71bf:	0f b7 c0             	movzwl %ax,%eax
    71c2:	89 05 5c fe 00 00    	mov    %eax,0xfe5c(%rip)        # 17024 <g_2>
    71c8:	8b 05 56 fe 00 00    	mov    0xfe56(%rip),%eax        # 17024 <g_2>
    71ce:	83 f8 ec             	cmp    $0xffffffec,%eax
    71d1:	0f 8d 37 f7 ff ff    	jge    690e <func_1+0x159>
    71d7:	48 8b 05 3a 16 01 00 	mov    0x1163a(%rip),%rax        # 18818 <g_1718>
    71de:	48 8b 00             	mov    (%rax),%rax
    71e1:	48 8b 00             	mov    (%rax),%rax
    71e4:	48 8b 55 f8          	mov    -0x8(%rbp),%rdx
    71e8:	64 48 33 14 25 28 00 	xor    %fs:0x28,%rdx
    71ef:	00 00 
    71f1:	74 05                	je     71f8 <func_1+0xa43>
    71f3:	e8 78 de ff ff       	callq  5070 <__stack_chk_fail@plt>
    71f8:	c9                   	leaveq 
    71f9:	c3                   	retq   

00000000000071fa <func_9>:
    71fa:	f3 0f 1e fa          	endbr64 
    71fe:	55                   	push   %rbp
    71ff:	48 89 e5             	mov    %rsp,%rbp
    7202:	41 57                	push   %r15
    7204:	41 56                	push   %r14
    7206:	41 55                	push   %r13
    7208:	41 54                	push   %r12
    720a:	53                   	push   %rbx
    720b:	48 81 ec 00 10 00 00 	sub    $0x1000,%rsp
    7212:	48 83 0c 24 00       	orq    $0x0,(%rsp)
    7217:	48 81 ec 18 0b 00 00 	sub    $0xb18,%rsp
    721e:	66 89 bd ee e4 ff ff 	mov    %di,-0x1b12(%rbp)
    7225:	48 89 95 e0 e4 ff ff 	mov    %rdx,-0x1b20(%rbp)
    722c:	89 c8                	mov    %ecx,%eax
    722e:	4c 89 85 d8 e4 ff ff 	mov    %r8,-0x1b28(%rbp)
    7235:	89 f2                	mov    %esi,%edx
    7237:	88 95 ec e4 ff ff    	mov    %dl,-0x1b14(%rbp)
    723d:	66 89 85 e8 e4 ff ff 	mov    %ax,-0x1b18(%rbp)
    7244:	64 48 8b 04 25 28 00 	mov    %fs:0x28,%rax
    724b:	00 00 
    724d:	48 89 45 c8          	mov    %rax,-0x38(%rbp)
    7251:	31 c0                	xor    %eax,%eax
    7253:	48 c7 85 90 e5 ff ff 	movq   $0xfffffffffffffff7,-0x1a70(%rbp)
    725a:	f7 ff ff ff 
    725e:	48 c7 85 98 e5 ff ff 	movq   $0x0,-0x1a68(%rbp)
    7265:	00 00 00 00 
    7269:	c7 85 98 e5 ff ff fb 	movl   $0xfffffffb,-0x1a68(%rbp)
    7270:	ff ff ff 
    7273:	c7 85 20 e7 ff ff 07 	movl   $0x7,-0x18e0(%rbp)
    727a:	00 00 00 
    727d:	c7 85 24 e7 ff ff 00 	movl   $0x0,-0x18dc(%rbp)
    7284:	00 00 00 
    7287:	c7 85 28 e7 ff ff 00 	movl   $0x0,-0x18d8(%rbp)
    728e:	00 00 00 
    7291:	c7 85 2c e7 ff ff 07 	movl   $0x7,-0x18d4(%rbp)
    7298:	00 00 00 
    729b:	c7 85 30 e7 ff ff 00 	movl   $0x0,-0x18d0(%rbp)
    72a2:	00 00 00 
    72a5:	c7 85 34 e7 ff ff 00 	movl   $0x0,-0x18cc(%rbp)
    72ac:	00 00 00 
    72af:	c7 85 38 e7 ff ff 07 	movl   $0x7,-0x18c8(%rbp)
    72b6:	00 00 00 
    72b9:	c7 85 3c e7 ff ff 00 	movl   $0x0,-0x18c4(%rbp)
    72c0:	00 00 00 
    72c3:	c7 85 40 e7 ff ff 00 	movl   $0x0,-0x18c0(%rbp)
    72ca:	00 00 00 
    72cd:	48 8d 05 7c 13 01 00 	lea    0x1137c(%rip),%rax        # 18650 <g_942>
    72d4:	48 89 85 d8 e5 ff ff 	mov    %rax,-0x1a28(%rbp)
    72db:	48 c7 85 e0 e5 ff ff 	movq   $0x0,-0x1a20(%rbp)
    72e2:	00 00 00 00 
    72e6:	c6 85 c0 e6 ff ff 01 	movb   $0x1,-0x1940(%rbp)
    72ed:	c7 85 c4 e6 ff ff 06 	movl   $0xb80fc906,-0x193c(%rbp)
    72f4:	c9 0f b8 
    72f7:	c7 85 08 e5 ff ff 90 	movl   $0x81715190,-0x1af8(%rbp)
    72fe:	51 71 81 
    7301:	48 8d 05 80 05 01 00 	lea    0x10580(%rip),%rax        # 17888 <g_2196>
    7308:	48 89 85 e8 e5 ff ff 	mov    %rax,-0x1a18(%rbp)
    730f:	48 8d 95 60 ea ff ff 	lea    -0x15a0(%rbp),%rdx
    7316:	b8 00 00 00 00       	mov    $0x0,%eax
    731b:	b9 30 00 00 00       	mov    $0x30,%ecx
    7320:	48 89 d7             	mov    %rdx,%rdi
    7323:	f3 48 ab             	rep stos %rax,%es:(%rdi)
    7326:	c7 85 04 e5 ff ff 00 	movl   $0x0,-0x1afc(%rbp)
    732d:	00 00 00 
    7330:	c6 85 04 e5 ff ff c8 	movb   $0xc8,-0x1afc(%rbp)
    7337:	48 8d 05 5e 24 01 00 	lea    0x1245e(%rip),%rax        # 1979c <g_317>
    733e:	48 89 85 d0 e5 ff ff 	mov    %rax,-0x1a30(%rbp)
    7345:	48 c7 85 e0 ed ff ff 	movq   $0x0,-0x1220(%rbp)
    734c:	00 00 00 00 
    7350:	48 c7 85 e8 ed ff ff 	movq   $0x0,-0x1218(%rbp)
    7357:	00 00 00 00 
    735b:	48 c7 85 f0 ed ff ff 	movq   $0x0,-0x1210(%rbp)
    7362:	00 00 00 00 
    7366:	48 8d 05 2f 24 01 00 	lea    0x1242f(%rip),%rax        # 1979c <g_317>
    736d:	48 89 85 f8 ed ff ff 	mov    %rax,-0x1208(%rbp)
    7374:	48 8d 85 98 e5 ff ff 	lea    -0x1a68(%rbp),%rax
    737b:	48 89 85 00 ee ff ff 	mov    %rax,-0x1200(%rbp)
    7382:	48 8d 05 2f 00 01 00 	lea    0x1002f(%rip),%rax        # 173b8 <g_1225>
    7389:	48 89 85 08 ee ff ff 	mov    %rax,-0x11f8(%rbp)
    7390:	48 8d 85 20 e7 ff ff 	lea    -0x18e0(%rbp),%rax
    7397:	48 89 85 10 ee ff ff 	mov    %rax,-0x11f0(%rbp)
    739e:	48 c7 85 18 ee ff ff 	movq   $0x0,-0x11e8(%rbp)
    73a5:	00 00 00 00 
    73a9:	48 8d 05 10 24 01 00 	lea    0x12410(%rip),%rax        # 197c0 <g_812>
    73b0:	48 89 85 20 ee ff ff 	mov    %rax,-0x11e0(%rbp)
    73b7:	48 8d 05 de 23 01 00 	lea    0x123de(%rip),%rax        # 1979c <g_317>
    73be:	48 89 85 28 ee ff ff 	mov    %rax,-0x11d8(%rbp)
    73c5:	48 8d 05 58 fc 00 00 	lea    0xfc58(%rip),%rax        # 17024 <g_2>
    73cc:	48 89 85 30 ee ff ff 	mov    %rax,-0x11d0(%rbp)
    73d3:	48 c7 85 38 ee ff ff 	movq   $0x0,-0x11c8(%rbp)
    73da:	00 00 00 00 
    73de:	48 8d 05 4b fc 00 00 	lea    0xfc4b(%rip),%rax        # 17030 <g_8>
    73e5:	48 89 85 40 ee ff ff 	mov    %rax,-0x11c0(%rbp)
    73ec:	48 8d 05 a9 23 01 00 	lea    0x123a9(%rip),%rax        # 1979c <g_317>
    73f3:	48 89 85 48 ee ff ff 	mov    %rax,-0x11b8(%rbp)
    73fa:	48 8d 85 20 e7 ff ff 	lea    -0x18e0(%rbp),%rax
    7401:	48 83 c0 14          	add    $0x14,%rax
    7405:	48 89 85 50 ee ff ff 	mov    %rax,-0x11b0(%rbp)
    740c:	48 8d 05 89 23 01 00 	lea    0x12389(%rip),%rax        # 1979c <g_317>
    7413:	48 89 85 58 ee ff ff 	mov    %rax,-0x11a8(%rbp)
    741a:	48 8d 05 03 fc 00 00 	lea    0xfc03(%rip),%rax        # 17024 <g_2>
    7421:	48 89 85 60 ee ff ff 	mov    %rax,-0x11a0(%rbp)
    7428:	48 8d 05 01 fc 00 00 	lea    0xfc01(%rip),%rax        # 17030 <g_8>
    742f:	48 89 85 68 ee ff ff 	mov    %rax,-0x1198(%rbp)
    7436:	48 8d 85 20 e7 ff ff 	lea    -0x18e0(%rbp),%rax
    743d:	48 89 85 70 ee ff ff 	mov    %rax,-0x1190(%rbp)
    7444:	48 8d 05 29 fc 00 00 	lea    0xfc29(%rip),%rax        # 17074 <g_87>
    744b:	48 89 85 78 ee ff ff 	mov    %rax,-0x1188(%rbp)
    7452:	48 c7 85 80 ee ff ff 	movq   $0x0,-0x1180(%rbp)
    7459:	00 00 00 00 
    745d:	48 8d 05 38 23 01 00 	lea    0x12338(%rip),%rax        # 1979c <g_317>
    7464:	48 89 85 88 ee ff ff 	mov    %rax,-0x1178(%rbp)
    746b:	48 8d 05 b2 fb 00 00 	lea    0xfbb2(%rip),%rax        # 17024 <g_2>
    7472:	48 89 85 90 ee ff ff 	mov    %rax,-0x1170(%rbp)
    7479:	48 8d 85 20 e7 ff ff 	lea    -0x18e0(%rbp),%rax
    7480:	48 89 85 98 ee ff ff 	mov    %rax,-0x1168(%rbp)
    7487:	48 c7 85 a0 ee ff ff 	movq   $0x0,-0x1160(%rbp)
    748e:	00 00 00 00 
    7492:	48 c7 85 a8 ee ff ff 	movq   $0x0,-0x1158(%rbp)
    7499:	00 00 00 00 
    749d:	48 8d 05 80 fb 00 00 	lea    0xfb80(%rip),%rax        # 17024 <g_2>
    74a4:	48 89 85 b0 ee ff ff 	mov    %rax,-0x1150(%rbp)
    74ab:	48 8d 05 ea 22 01 00 	lea    0x122ea(%rip),%rax        # 1979c <g_317>
    74b2:	48 89 85 b8 ee ff ff 	mov    %rax,-0x1148(%rbp)
    74b9:	48 c7 85 c0 ee ff ff 	movq   $0x0,-0x1140(%rbp)
    74c0:	00 00 00 00 
    74c4:	48 8d 85 20 e7 ff ff 	lea    -0x18e0(%rbp),%rax
    74cb:	48 83 c0 10          	add    $0x10,%rax
    74cf:	48 89 85 c8 ee ff ff 	mov    %rax,-0x1138(%rbp)
    74d6:	48 8d 05 47 fb 00 00 	lea    0xfb47(%rip),%rax        # 17024 <g_2>
    74dd:	48 89 85 d0 ee ff ff 	mov    %rax,-0x1130(%rbp)
    74e4:	48 8d 05 39 fb 00 00 	lea    0xfb39(%rip),%rax        # 17024 <g_2>
    74eb:	48 89 85 d8 ee ff ff 	mov    %rax,-0x1128(%rbp)
    74f2:	48 8d 05 a3 22 01 00 	lea    0x122a3(%rip),%rax        # 1979c <g_317>
    74f9:	48 89 85 e0 ee ff ff 	mov    %rax,-0x1120(%rbp)
    7500:	48 8d 05 b1 fe 00 00 	lea    0xfeb1(%rip),%rax        # 173b8 <g_1225>
    7507:	48 89 85 e8 ee ff ff 	mov    %rax,-0x1118(%rbp)
    750e:	48 8d 05 5f fb 00 00 	lea    0xfb5f(%rip),%rax        # 17074 <g_87>
    7515:	48 89 85 f0 ee ff ff 	mov    %rax,-0x1110(%rbp)
    751c:	48 8d 05 79 22 01 00 	lea    0x12279(%rip),%rax        # 1979c <g_317>
    7523:	48 89 85 f8 ee ff ff 	mov    %rax,-0x1108(%rbp)
    752a:	48 8d 05 f3 fa 00 00 	lea    0xfaf3(%rip),%rax        # 17024 <g_2>
    7531:	48 89 85 00 ef ff ff 	mov    %rax,-0x1100(%rbp)
    7538:	48 8d 05 e5 fa 00 00 	lea    0xfae5(%rip),%rax        # 17024 <g_2>
    753f:	48 89 85 08 ef ff ff 	mov    %rax,-0x10f8(%rbp)
    7546:	48 8d 85 20 e7 ff ff 	lea    -0x18e0(%rbp),%rax
    754d:	48 83 c0 04          	add    $0x4,%rax
    7551:	48 89 85 10 ef ff ff 	mov    %rax,-0x10f0(%rbp)
    7558:	48 8d 05 c5 fa 00 00 	lea    0xfac5(%rip),%rax        # 17024 <g_2>
    755f:	48 89 85 18 ef ff ff 	mov    %rax,-0x10e8(%rbp)
    7566:	48 8d 05 2f 22 01 00 	lea    0x1222f(%rip),%rax        # 1979c <g_317>
    756d:	48 89 85 20 ef ff ff 	mov    %rax,-0x10e0(%rbp)
    7574:	48 8d 05 a9 fa 00 00 	lea    0xfaa9(%rip),%rax        # 17024 <g_2>
    757b:	48 89 85 28 ef ff ff 	mov    %rax,-0x10d8(%rbp)
    7582:	48 8d 85 98 e5 ff ff 	lea    -0x1a68(%rbp),%rax
    7589:	48 89 85 30 ef ff ff 	mov    %rax,-0x10d0(%rbp)
    7590:	48 8d 05 8d fa 00 00 	lea    0xfa8d(%rip),%rax        # 17024 <g_2>
    7597:	48 89 85 38 ef ff ff 	mov    %rax,-0x10c8(%rbp)
    759e:	48 8d 85 20 e7 ff ff 	lea    -0x18e0(%rbp),%rax
    75a5:	48 83 c0 04          	add    $0x4,%rax
    75a9:	48 89 85 40 ef ff ff 	mov    %rax,-0x10c0(%rbp)
    75b0:	48 c7 85 48 ef ff ff 	movq   $0x0,-0x10b8(%rbp)
    75b7:	00 00 00 00 
    75bb:	48 c7 85 50 ef ff ff 	movq   $0x0,-0x10b0(%rbp)
    75c2:	00 00 00 00 
    75c6:	48 8d 05 cf 21 01 00 	lea    0x121cf(%rip),%rax        # 1979c <g_317>
    75cd:	48 89 85 58 ef ff ff 	mov    %rax,-0x10a8(%rbp)
    75d4:	48 8d 85 20 e7 ff ff 	lea    -0x18e0(%rbp),%rax
    75db:	48 89 85 60 ef ff ff 	mov    %rax,-0x10a0(%rbp)
    75e2:	48 8d 85 98 e5 ff ff 	lea    -0x1a68(%rbp),%rax
    75e9:	48 89 85 68 ef ff ff 	mov    %rax,-0x1098(%rbp)
    75f0:	48 8d 05 a5 21 01 00 	lea    0x121a5(%rip),%rax        # 1979c <g_317>
    75f7:	48 89 85 70 ef ff ff 	mov    %rax,-0x1090(%rbp)
    75fe:	48 c7 85 78 ef ff ff 	movq   $0x0,-0x1088(%rbp)
    7605:	00 00 00 00 
    7609:	48 c7 85 80 ef ff ff 	movq   $0x0,-0x1080(%rbp)
    7610:	00 00 00 00 
    7614:	48 8d 85 20 e7 ff ff 	lea    -0x18e0(%rbp),%rax
    761b:	48 83 c0 10          	add    $0x10,%rax
    761f:	48 89 85 88 ef ff ff 	mov    %rax,-0x1078(%rbp)
    7626:	48 8d 85 20 e7 ff ff 	lea    -0x18e0(%rbp),%rax
    762d:	48 83 c0 04          	add    $0x4,%rax
    7631:	48 89 85 90 ef ff ff 	mov    %rax,-0x1070(%rbp)
    7638:	48 8d 85 20 e7 ff ff 	lea    -0x18e0(%rbp),%rax
    763f:	48 83 c0 10          	add    $0x10,%rax
    7643:	48 89 85 98 ef ff ff 	mov    %rax,-0x1068(%rbp)
    764a:	48 8d 05 d3 f9 00 00 	lea    0xf9d3(%rip),%rax        # 17024 <g_2>
    7651:	48 89 85 a0 ef ff ff 	mov    %rax,-0x1060(%rbp)
    7658:	48 8d 85 20 e7 ff ff 	lea    -0x18e0(%rbp),%rax
    765f:	48 83 c0 04          	add    $0x4,%rax
    7663:	48 89 85 a8 ef ff ff 	mov    %rax,-0x1058(%rbp)
    766a:	48 8d 85 20 e7 ff ff 	lea    -0x18e0(%rbp),%rax
    7671:	48 89 85 b0 ef ff ff 	mov    %rax,-0x1050(%rbp)
    7678:	48 8d 85 20 e7 ff ff 	lea    -0x18e0(%rbp),%rax
    767f:	48 89 85 b8 ef ff ff 	mov    %rax,-0x1048(%rbp)
    7686:	48 c7 85 c0 ef ff ff 	movq   $0x0,-0x1040(%rbp)
    768d:	00 00 00 00 
    7691:	48 8d 05 8c f9 00 00 	lea    0xf98c(%rip),%rax        # 17024 <g_2>
    7698:	48 89 85 c8 ef ff ff 	mov    %rax,-0x1038(%rbp)
    769f:	48 c7 85 d0 ef ff ff 	movq   $0x0,-0x1030(%rbp)
    76a6:	00 00 00 00 
    76aa:	48 8d 85 20 e7 ff ff 	lea    -0x18e0(%rbp),%rax
    76b1:	48 89 85 d8 ef ff ff 	mov    %rax,-0x1028(%rbp)
    76b8:	48 c7 85 e0 ef ff ff 	movq   $0x0,-0x1020(%rbp)
    76bf:	00 00 00 00 
    76c3:	48 8d 05 66 f9 00 00 	lea    0xf966(%rip),%rax        # 17030 <g_8>
    76ca:	48 89 85 e8 ef ff ff 	mov    %rax,-0x1018(%rbp)
    76d1:	48 c7 85 f0 ef ff ff 	movq   $0x0,-0x1010(%rbp)
    76d8:	00 00 00 00 
    76dc:	48 8d 85 98 e5 ff ff 	lea    -0x1a68(%rbp),%rax
    76e3:	48 89 85 f8 ef ff ff 	mov    %rax,-0x1008(%rbp)
    76ea:	48 8d 85 20 e7 ff ff 	lea    -0x18e0(%rbp),%rax
    76f1:	48 83 c0 14          	add    $0x14,%rax
    76f5:	48 89 85 00 f0 ff ff 	mov    %rax,-0x1000(%rbp)
    76fc:	48 8d 85 98 e5 ff ff 	lea    -0x1a68(%rbp),%rax
    7703:	48 89 85 08 f0 ff ff 	mov    %rax,-0xff8(%rbp)
    770a:	48 c7 85 10 f0 ff ff 	movq   $0x0,-0xff0(%rbp)
    7711:	00 00 00 00 
    7715:	48 c7 85 18 f0 ff ff 	movq   $0x0,-0xfe8(%rbp)
    771c:	00 00 00 00 
    7720:	48 8d 05 fd f8 00 00 	lea    0xf8fd(%rip),%rax        # 17024 <g_2>
    7727:	48 89 85 20 f0 ff ff 	mov    %rax,-0xfe0(%rbp)
    772e:	48 8d 85 98 e5 ff ff 	lea    -0x1a68(%rbp),%rax
    7735:	48 89 85 28 f0 ff ff 	mov    %rax,-0xfd8(%rbp)
    773c:	48 8d 05 7d 20 01 00 	lea    0x1207d(%rip),%rax        # 197c0 <g_812>
    7743:	48 89 85 30 f0 ff ff 	mov    %rax,-0xfd0(%rbp)
    774a:	48 8d 05 d3 f8 00 00 	lea    0xf8d3(%rip),%rax        # 17024 <g_2>
    7751:	48 89 85 38 f0 ff ff 	mov    %rax,-0xfc8(%rbp)
    7758:	48 c7 85 40 f0 ff ff 	movq   $0x0,-0xfc0(%rbp)
    775f:	00 00 00 00 
    7763:	48 8d 05 4e fc 00 00 	lea    0xfc4e(%rip),%rax        # 173b8 <g_1225>
    776a:	48 89 85 48 f0 ff ff 	mov    %rax,-0xfb8(%rbp)
    7771:	48 8d 05 40 fc 00 00 	lea    0xfc40(%rip),%rax        # 173b8 <g_1225>
    7778:	48 89 85 50 f0 ff ff 	mov    %rax,-0xfb0(%rbp)
    777f:	48 8d 05 9e f8 00 00 	lea    0xf89e(%rip),%rax        # 17024 <g_2>
    7786:	48 89 85 58 f0 ff ff 	mov    %rax,-0xfa8(%rbp)
    778d:	48 c7 85 60 f0 ff ff 	movq   $0x0,-0xfa0(%rbp)
    7794:	00 00 00 00 
    7798:	48 8d 05 85 f8 00 00 	lea    0xf885(%rip),%rax        # 17024 <g_2>
    779f:	48 89 85 68 f0 ff ff 	mov    %rax,-0xf98(%rbp)
    77a6:	48 8d 85 20 e7 ff ff 	lea    -0x18e0(%rbp),%rax
    77ad:	48 89 85 70 f0 ff ff 	mov    %rax,-0xf90(%rbp)
    77b4:	48 8d 05 69 f8 00 00 	lea    0xf869(%rip),%rax        # 17024 <g_2>
    77bb:	48 89 85 78 f0 ff ff 	mov    %rax,-0xf88(%rbp)
    77c2:	48 8d 05 d3 1f 01 00 	lea    0x11fd3(%rip),%rax        # 1979c <g_317>
    77c9:	48 89 85 80 f0 ff ff 	mov    %rax,-0xf80(%rbp)
    77d0:	48 8d 85 98 e5 ff ff 	lea    -0x1a68(%rbp),%rax
    77d7:	48 89 85 88 f0 ff ff 	mov    %rax,-0xf78(%rbp)
    77de:	48 8d 05 b7 1f 01 00 	lea    0x11fb7(%rip),%rax        # 1979c <g_317>
    77e5:	48 89 85 90 f0 ff ff 	mov    %rax,-0xf70(%rbp)
    77ec:	48 8d 05 81 f8 00 00 	lea    0xf881(%rip),%rax        # 17074 <g_87>
    77f3:	48 89 85 98 f0 ff ff 	mov    %rax,-0xf68(%rbp)
    77fa:	48 8d 05 23 f8 00 00 	lea    0xf823(%rip),%rax        # 17024 <g_2>
    7801:	48 89 85 a0 f0 ff ff 	mov    %rax,-0xf60(%rbp)
    7808:	48 8d 05 65 f8 00 00 	lea    0xf865(%rip),%rax        # 17074 <g_87>
    780f:	48 89 85 a8 f0 ff ff 	mov    %rax,-0xf58(%rbp)
    7816:	48 8d 85 20 e7 ff ff 	lea    -0x18e0(%rbp),%rax
    781d:	48 89 85 b0 f0 ff ff 	mov    %rax,-0xf50(%rbp)
    7824:	48 8d 05 05 f8 00 00 	lea    0xf805(%rip),%rax        # 17030 <g_8>
    782b:	48 89 85 b8 f0 ff ff 	mov    %rax,-0xf48(%rbp)
    7832:	48 8d 85 20 e7 ff ff 	lea    -0x18e0(%rbp),%rax
    7839:	48 83 c0 14          	add    $0x14,%rax
    783d:	48 89 85 c0 f0 ff ff 	mov    %rax,-0xf40(%rbp)
    7844:	48 8d 85 20 e7 ff ff 	lea    -0x18e0(%rbp),%rax
    784b:	48 89 85 c8 f0 ff ff 	mov    %rax,-0xf38(%rbp)
    7852:	48 8d 85 98 e5 ff ff 	lea    -0x1a68(%rbp),%rax
    7859:	48 89 85 d0 f0 ff ff 	mov    %rax,-0xf30(%rbp)
    7860:	48 8d 05 bd f7 00 00 	lea    0xf7bd(%rip),%rax        # 17024 <g_2>
    7867:	48 89 85 d8 f0 ff ff 	mov    %rax,-0xf28(%rbp)
    786e:	48 8d 05 27 1f 01 00 	lea    0x11f27(%rip),%rax        # 1979c <g_317>
    7875:	48 89 85 e0 f0 ff ff 	mov    %rax,-0xf20(%rbp)
    787c:	48 8d 05 19 1f 01 00 	lea    0x11f19(%rip),%rax        # 1979c <g_317>
    7883:	48 89 85 e8 f0 ff ff 	mov    %rax,-0xf18(%rbp)
    788a:	48 8d 05 9f f7 00 00 	lea    0xf79f(%rip),%rax        # 17030 <g_8>
    7891:	48 89 85 f0 f0 ff ff 	mov    %rax,-0xf10(%rbp)
    7898:	48 c7 85 f8 f0 ff ff 	movq   $0x0,-0xf08(%rbp)
    789f:	00 00 00 00 
    78a3:	48 8d 05 0e fb 00 00 	lea    0xfb0e(%rip),%rax        # 173b8 <g_1225>
    78aa:	48 89 85 00 f1 ff ff 	mov    %rax,-0xf00(%rbp)
    78b1:	48 8d 85 98 e5 ff ff 	lea    -0x1a68(%rbp),%rax
    78b8:	48 89 85 08 f1 ff ff 	mov    %rax,-0xef8(%rbp)
    78bf:	48 8d 05 d6 1e 01 00 	lea    0x11ed6(%rip),%rax        # 1979c <g_317>
    78c6:	48 89 85 10 f1 ff ff 	mov    %rax,-0xef0(%rbp)
    78cd:	48 c7 85 18 f1 ff ff 	movq   $0x0,-0xee8(%rbp)
    78d4:	00 00 00 00 
    78d8:	48 8d 85 20 e7 ff ff 	lea    -0x18e0(%rbp),%rax
    78df:	48 83 c0 04          	add    $0x4,%rax
    78e3:	48 89 85 20 f1 ff ff 	mov    %rax,-0xee0(%rbp)
    78ea:	c7 85 24 e5 ff ff 00 	movl   $0x0,-0x1adc(%rbp)
    78f1:	00 00 00 
    78f4:	66 c7 85 00 e5 ff ff 	movw   $0xaa20,-0x1b00(%rbp)
    78fb:	20 aa 
    78fd:	48 c7 85 f0 e5 ff ff 	movq   $0x0,-0x1a10(%rbp)
    7904:	00 00 00 00 
    7908:	48 8d 05 61 f8 00 00 	lea    0xf861(%rip),%rax        # 17170 <g_585>
    790f:	48 89 85 f8 e5 ff ff 	mov    %rax,-0x1a08(%rbp)
    7916:	48 c7 85 a0 e5 ff ff 	movq   $0x0,-0x1a60(%rbp)
    791d:	00 00 00 00 
    7921:	48 8d 85 30 f1 ff ff 	lea    -0xed0(%rbp),%rax
    7928:	48 8d 15 b1 ab 00 00 	lea    0xabb1(%rip),%rdx        # 124e0 <g_3098+0x40>
    792f:	b9 e1 00 00 00       	mov    $0xe1,%ecx
    7934:	48 89 c7             	mov    %rax,%rdi
    7937:	48 89 d6             	mov    %rdx,%rsi
    793a:	f3 48 a5             	rep movsq %ds:(%rsi),%es:(%rdi)
    793d:	c6 85 f7 e4 ff ff fa 	movb   $0xfa,-0x1b09(%rbp)
    7944:	c7 85 e0 e7 ff ff a5 	movl   $0x1f8420a5,-0x1820(%rbp)
    794b:	20 84 1f 
    794e:	c7 85 e4 e7 ff ff ff 	movl   $0xffffffff,-0x181c(%rbp)
    7955:	ff ff ff 
    7958:	c7 85 e8 e7 ff ff 4d 	movl   $0xf44a7f4d,-0x1818(%rbp)
    795f:	7f 4a f4 
    7962:	c7 85 ec e7 ff ff 03 	movl   $0x3,-0x1814(%rbp)
    7969:	00 00 00 
    796c:	c7 85 f0 e7 ff ff 4d 	movl   $0xf44a7f4d,-0x1810(%rbp)
    7973:	7f 4a f4 
    7976:	c7 85 f4 e7 ff ff 00 	movl   $0x0,-0x180c(%rbp)
    797d:	00 00 00 
    7980:	c7 85 f8 e7 ff ff 00 	movl   $0x0,-0x1808(%rbp)
    7987:	00 00 00 
    798a:	c7 85 fc e7 ff ff 00 	movl   $0x0,-0x1804(%rbp)
    7991:	00 00 00 
    7994:	c7 85 00 e8 ff ff ff 	movl   $0xffffffff,-0x1800(%rbp)
    799b:	ff ff ff 
    799e:	c7 85 04 e8 ff ff 01 	movl   $0x1,-0x17fc(%rbp)
    79a5:	00 00 00 
    79a8:	c7 85 08 e8 ff ff ff 	movl   $0xffffffff,-0x17f8(%rbp)
    79af:	ff ff ff 
    79b2:	c7 85 0c e8 ff ff a5 	movl   $0x1f8420a5,-0x17f4(%rbp)
    79b9:	20 84 1f 
    79bc:	c7 85 10 e8 ff ff a5 	movl   $0x1f8420a5,-0x17f0(%rbp)
    79c3:	20 84 1f 
    79c6:	c7 85 14 e8 ff ff ff 	movl   $0xffffffff,-0x17ec(%rbp)
    79cd:	ff ff ff 
    79d0:	c7 85 18 e8 ff ff 4d 	movl   $0xf44a7f4d,-0x17e8(%rbp)
    79d7:	7f 4a f4 
    79da:	c7 85 1c e8 ff ff 0d 	movl   $0x7934550d,-0x17e4(%rbp)
    79e1:	55 34 79 
    79e4:	c7 85 20 e8 ff ff ff 	movl   $0xffffffff,-0x17e0(%rbp)
    79eb:	ff ff ff 
    79ee:	c7 85 24 e8 ff ff 3d 	movl   $0x39b2cc3d,-0x17dc(%rbp)
    79f5:	cc b2 39 
    79f8:	c7 85 28 e8 ff ff 3d 	movl   $0x39b2cc3d,-0x17d8(%rbp)
    79ff:	cc b2 39 
    7a02:	c7 85 2c e8 ff ff ff 	movl   $0xffffffff,-0x17d4(%rbp)
    7a09:	ff ff ff 
    7a0c:	c7 85 30 e8 ff ff 4d 	movl   $0xf44a7f4d,-0x17d0(%rbp)
    7a13:	7f 4a f4 
    7a16:	c7 85 34 e8 ff ff a5 	movl   $0x1f8420a5,-0x17cc(%rbp)
    7a1d:	20 84 1f 
    7a20:	c7 85 38 e8 ff ff e5 	movl   $0x6853aee5,-0x17c8(%rbp)
    7a27:	ae 53 68 
    7a2a:	c7 85 3c e8 ff ff 1e 	movl   $0x162661e,-0x17c4(%rbp)
    7a31:	66 62 01 
    7a34:	c7 85 40 e8 ff ff 1e 	movl   $0x162661e,-0x17c0(%rbp)
    7a3b:	66 62 01 
    7a3e:	c7 85 44 e8 ff ff 00 	movl   $0x0,-0x17bc(%rbp)
    7a45:	00 00 00 
    7a48:	c7 85 48 e8 ff ff 00 	movl   $0x0,-0x17b8(%rbp)
    7a4f:	00 00 00 
    7a52:	c7 85 4c e8 ff ff 00 	movl   $0x0,-0x17b4(%rbp)
    7a59:	00 00 00 
    7a5c:	c7 85 50 e8 ff ff 3d 	movl   $0x39b2cc3d,-0x17b0(%rbp)
    7a63:	cc b2 39 
    7a66:	c7 85 54 e8 ff ff 00 	movl   $0x0,-0x17ac(%rbp)
    7a6d:	00 00 00 
    7a70:	c7 85 58 e8 ff ff 03 	movl   $0x3,-0x17a8(%rbp)
    7a77:	00 00 00 
    7a7a:	c7 85 5c e8 ff ff ff 	movl   $0xffffffff,-0x17a4(%rbp)
    7a81:	ff ff ff 
    7a84:	c7 85 60 e8 ff ff 1e 	movl   $0x162661e,-0x17a0(%rbp)
    7a8b:	66 62 01 
    7a8e:	c7 85 64 e8 ff ff ff 	movl   $0xffffffff,-0x179c(%rbp)
    7a95:	ff ff ff 
    7a98:	c7 85 68 e8 ff ff 03 	movl   $0x3,-0x1798(%rbp)
    7a9f:	00 00 00 
    7aa2:	48 c7 85 80 e7 ff ff 	movq   $0x0,-0x1880(%rbp)
    7aa9:	00 00 00 00 
    7aad:	48 8d 05 9c 0b 01 00 	lea    0x10b9c(%rip),%rax        # 18650 <g_942>
    7ab4:	48 89 85 88 e7 ff ff 	mov    %rax,-0x1878(%rbp)
    7abb:	48 8d 05 8e 0b 01 00 	lea    0x10b8e(%rip),%rax        # 18650 <g_942>
    7ac2:	48 89 85 90 e7 ff ff 	mov    %rax,-0x1870(%rbp)
    7ac9:	48 8d 05 80 0b 01 00 	lea    0x10b80(%rip),%rax        # 18650 <g_942>
    7ad0:	48 89 85 98 e7 ff ff 	mov    %rax,-0x1868(%rbp)
    7ad7:	48 8d 05 72 0b 01 00 	lea    0x10b72(%rip),%rax        # 18650 <g_942>
    7ade:	48 89 85 a0 e7 ff ff 	mov    %rax,-0x1860(%rbp)
    7ae5:	48 8d 05 64 0b 01 00 	lea    0x10b64(%rip),%rax        # 18650 <g_942>
    7aec:	48 89 85 a8 e7 ff ff 	mov    %rax,-0x1858(%rbp)
    7af3:	48 c7 85 b0 e7 ff ff 	movq   $0x0,-0x1850(%rbp)
    7afa:	00 00 00 00 
    7afe:	48 8d 05 4b 0b 01 00 	lea    0x10b4b(%rip),%rax        # 18650 <g_942>
    7b05:	48 89 85 b8 e7 ff ff 	mov    %rax,-0x1848(%rbp)
    7b0c:	48 c7 85 c0 e7 ff ff 	movq   $0x0,-0x1840(%rbp)
    7b13:	00 00 00 00 
    7b17:	48 c7 85 c8 e7 ff ff 	movq   $0x0,-0x1838(%rbp)
    7b1e:	00 00 00 00 
    7b22:	48 8d 05 27 0b 01 00 	lea    0x10b27(%rip),%rax        # 18650 <g_942>
    7b29:	48 89 85 d0 e7 ff ff 	mov    %rax,-0x1830(%rbp)
    7b30:	48 8d 05 19 0b 01 00 	lea    0x10b19(%rip),%rax        # 18650 <g_942>
    7b37:	48 89 85 d8 e7 ff ff 	mov    %rax,-0x1828(%rbp)
    7b3e:	48 8d 85 80 e7 ff ff 	lea    -0x1880(%rbp),%rax
    7b45:	48 83 c0 30          	add    $0x30,%rax
    7b49:	48 89 85 00 e6 ff ff 	mov    %rax,-0x1a00(%rbp)
    7b50:	48 8d 05 a9 0b 01 00 	lea    0x10ba9(%rip),%rax        # 18700 <g_1250+0x20>
    7b57:	48 89 85 08 e6 ff ff 	mov    %rax,-0x19f8(%rbp)
    7b5e:	c6 85 f8 e4 ff ff 00 	movb   $0x0,-0x1b08(%rbp)
    7b65:	c7 85 28 e5 ff ff 65 	movl   $0xb6e20465,-0x1ad8(%rbp)
    7b6c:	04 e2 b6 
    7b6f:	c7 85 2c e5 ff ff 07 	movl   $0x7,-0x1ad4(%rbp)
    7b76:	00 00 00 
    7b79:	c6 85 f9 e4 ff ff fd 	movb   $0xfd,-0x1b07(%rbp)
    7b80:	c6 85 fa e4 ff ff 73 	movb   $0x73,-0x1b06(%rbp)
    7b87:	c7 85 0c e5 ff ff 00 	movl   $0x0,-0x1af4(%rbp)
    7b8e:	00 00 00 
    7b91:	eb 1a                	jmp    7bad <func_9+0x9b3>
    7b93:	8b 85 0c e5 ff ff    	mov    -0x1af4(%rbp),%eax
    7b99:	48 98                	cltq   
    7b9b:	c7 84 85 e4 e6 ff ff 	movl   $0xfffffffa,-0x191c(%rbp,%rax,4)
    7ba2:	fa ff ff ff 
    7ba6:	83 85 0c e5 ff ff 01 	addl   $0x1,-0x1af4(%rbp)
    7bad:	83 bd 0c e5 ff ff 02 	cmpl   $0x2,-0x1af4(%rbp)
    7bb4:	7e dd                	jle    7b93 <func_9+0x999>
    7bb6:	48 c7 05 af f5 00 00 	movq   $0xfffffffffffffff0,0xf5af(%rip)        # 17170 <g_585>
    7bbd:	f0 ff ff ff 
    7bc1:	e9 6e 0e 00 00       	jmpq   8a34 <func_9+0x183a>
    7bc6:	48 c7 85 50 e6 ff ff 	movq   $0x1,-0x19b0(%rbp)
    7bcd:	01 00 00 00 
    7bd1:	c7 85 50 e5 ff ff a3 	movl   $0xe26254a3,-0x1ab0(%rbp)
    7bd8:	54 62 e2 
    7bdb:	c7 85 54 e5 ff ff 00 	movl   $0x0,-0x1aac(%rbp)
    7be2:	00 00 00 
    7be5:	c7 85 58 e5 ff ff 00 	movl   $0x0,-0x1aa8(%rbp)
    7bec:	00 00 00 
    7bef:	48 8d 05 9a 1b 01 00 	lea    0x11b9a(%rip),%rax        # 19790 <g_78>
    7bf6:	48 89 85 50 e7 ff ff 	mov    %rax,-0x18b0(%rbp)
    7bfd:	48 8d 05 8c 1b 01 00 	lea    0x11b8c(%rip),%rax        # 19790 <g_78>
    7c04:	48 89 85 58 e7 ff ff 	mov    %rax,-0x18a8(%rbp)
    7c0b:	48 8d 05 7e 1b 01 00 	lea    0x11b7e(%rip),%rax        # 19790 <g_78>
    7c12:	48 89 85 60 e7 ff ff 	mov    %rax,-0x18a0(%rbp)
    7c19:	48 8d 05 70 1b 01 00 	lea    0x11b70(%rip),%rax        # 19790 <g_78>
    7c20:	48 89 85 68 e7 ff ff 	mov    %rax,-0x1898(%rbp)
    7c27:	c6 85 f6 e4 ff ff fd 	movb   $0xfd,-0x1b0a(%rbp)
    7c2e:	c7 85 70 e8 ff ff 4d 	movl   $0x2902234d,-0x1790(%rbp)
    7c35:	23 02 29 
    7c38:	c7 85 74 e8 ff ff 06 	movl   $0x6,-0x178c(%rbp)
    7c3f:	00 00 00 
    7c42:	c7 85 78 e8 ff ff 06 	movl   $0x6,-0x1788(%rbp)
    7c49:	00 00 00 
    7c4c:	c7 85 7c e8 ff ff 4d 	movl   $0x2902234d,-0x1784(%rbp)
    7c53:	23 02 29 
    7c56:	c7 85 80 e8 ff ff 06 	movl   $0x6,-0x1780(%rbp)
    7c5d:	00 00 00 
    7c60:	c7 85 84 e8 ff ff 06 	movl   $0x6,-0x177c(%rbp)
    7c67:	00 00 00 
    7c6a:	c7 85 88 e8 ff ff 4d 	movl   $0x2902234d,-0x1778(%rbp)
    7c71:	23 02 29 
    7c74:	c7 85 8c e8 ff ff 06 	movl   $0x6,-0x1774(%rbp)
    7c7b:	00 00 00 
    7c7e:	c7 85 90 e8 ff ff 4d 	movl   $0x2902234d,-0x1770(%rbp)
    7c85:	23 02 29 
    7c88:	c7 85 94 e8 ff ff 4d 	movl   $0x2902234d,-0x176c(%rbp)
    7c8f:	23 02 29 
    7c92:	c7 85 98 e8 ff ff fd 	movl   $0xfffffffd,-0x1768(%rbp)
    7c99:	ff ff ff 
    7c9c:	c7 85 9c e8 ff ff 4d 	movl   $0x2902234d,-0x1764(%rbp)
    7ca3:	23 02 29 
    7ca6:	c7 85 a0 e8 ff ff 4d 	movl   $0x2902234d,-0x1760(%rbp)
    7cad:	23 02 29 
    7cb0:	c7 85 a4 e8 ff ff fd 	movl   $0xfffffffd,-0x175c(%rbp)
    7cb7:	ff ff ff 
    7cba:	c7 85 a8 e8 ff ff 4d 	movl   $0x2902234d,-0x1758(%rbp)
    7cc1:	23 02 29 
    7cc4:	c7 85 ac e8 ff ff 4d 	movl   $0x2902234d,-0x1754(%rbp)
    7ccb:	23 02 29 
    7cce:	c7 85 b0 e8 ff ff 06 	movl   $0x6,-0x1750(%rbp)
    7cd5:	00 00 00 
    7cd8:	c7 85 b4 e8 ff ff 4d 	movl   $0x2902234d,-0x174c(%rbp)
    7cdf:	23 02 29 
    7ce2:	c7 85 b8 e8 ff ff 06 	movl   $0x6,-0x1748(%rbp)
    7ce9:	00 00 00 
    7cec:	c7 85 bc e8 ff ff 06 	movl   $0x6,-0x1744(%rbp)
    7cf3:	00 00 00 
    7cf6:	c7 85 c0 e8 ff ff 4d 	movl   $0x2902234d,-0x1740(%rbp)
    7cfd:	23 02 29 
    7d00:	c7 85 c4 e8 ff ff 06 	movl   $0x6,-0x173c(%rbp)
    7d07:	00 00 00 
    7d0a:	c7 85 c8 e8 ff ff 06 	movl   $0x6,-0x1738(%rbp)
    7d11:	00 00 00 
    7d14:	c7 85 cc e8 ff ff 4d 	movl   $0x2902234d,-0x1734(%rbp)
    7d1b:	23 02 29 
    7d1e:	c7 85 d0 e8 ff ff 4d 	movl   $0x2902234d,-0x1730(%rbp)
    7d25:	23 02 29 
    7d28:	c7 85 d4 e8 ff ff 06 	movl   $0x6,-0x172c(%rbp)
    7d2f:	00 00 00 
    7d32:	c7 85 d8 e8 ff ff 06 	movl   $0x6,-0x1728(%rbp)
    7d39:	00 00 00 
    7d3c:	c7 85 dc e8 ff ff 4d 	movl   $0x2902234d,-0x1724(%rbp)
    7d43:	23 02 29 
    7d46:	c7 85 e0 e8 ff ff 06 	movl   $0x6,-0x1720(%rbp)
    7d4d:	00 00 00 
    7d50:	c7 85 e4 e8 ff ff 06 	movl   $0x6,-0x171c(%rbp)
    7d57:	00 00 00 
    7d5a:	c7 85 e8 e8 ff ff 4d 	movl   $0x2902234d,-0x1718(%rbp)
    7d61:	23 02 29 
    7d64:	c7 85 ec e8 ff ff 06 	movl   $0x6,-0x1714(%rbp)
    7d6b:	00 00 00 
    7d6e:	c7 85 f0 e8 ff ff 4d 	movl   $0x2902234d,-0x1710(%rbp)
    7d75:	23 02 29 
    7d78:	c7 85 f4 e8 ff ff 4d 	movl   $0x2902234d,-0x170c(%rbp)
    7d7f:	23 02 29 
    7d82:	c7 85 f8 e8 ff ff fd 	movl   $0xfffffffd,-0x1708(%rbp)
    7d89:	ff ff ff 
    7d8c:	c7 85 fc e8 ff ff 4d 	movl   $0x2902234d,-0x1704(%rbp)
    7d93:	23 02 29 
    7d96:	c7 85 00 e9 ff ff 4d 	movl   $0x2902234d,-0x1700(%rbp)
    7d9d:	23 02 29 
    7da0:	c7 85 04 e9 ff ff fd 	movl   $0xfffffffd,-0x16fc(%rbp)
    7da7:	ff ff ff 
    7daa:	c7 85 08 e9 ff ff 4d 	movl   $0x2902234d,-0x16f8(%rbp)
    7db1:	23 02 29 
    7db4:	c7 85 0c e9 ff ff 4d 	movl   $0x2902234d,-0x16f4(%rbp)
    7dbb:	23 02 29 
    7dbe:	48 c7 85 58 e6 ff ff 	movq   $0x0,-0x19a8(%rbp)
    7dc5:	00 00 00 00 
    7dc9:	66 c7 85 f2 e6 ff ff 	movw   $0x0,-0x190e(%rbp)
    7dd0:	00 00 
    7dd2:	c6 85 f2 e6 ff ff ff 	movb   $0xff,-0x190e(%rbp)
    7dd9:	48 8d 05 08 f6 00 00 	lea    0xf608(%rip),%rax        # 173e8 <g_1851>
    7de0:	48 89 85 60 e6 ff ff 	mov    %rax,-0x19a0(%rbp)
    7de7:	48 8b 85 90 e5 ff ff 	mov    -0x1a70(%rbp),%rax
    7dee:	0f be c0             	movsbl %al,%eax
    7df1:	be 06 00 00 00       	mov    $0x6,%esi
    7df6:	89 c7                	mov    %eax,%edi
    7df8:	e8 f1 d4 ff ff       	callq  52ee <safe_lshift_func_int8_t_s_u>
    7dfd:	84 c0                	test   %al,%al
    7dff:	0f 84 9d 0b 00 00    	je     89a2 <func_9+0x17a8>
    7e05:	c7 85 5c e5 ff ff 01 	movl   $0x1,-0x1aa4(%rbp)
    7e0c:	00 00 00 
    7e0f:	c7 85 60 e5 ff ff bf 	movl   $0x5e3e5cbf,-0x1aa0(%rbp)
    7e16:	5c 3e 5e 
    7e19:	48 8d 05 90 f5 00 00 	lea    0xf590(%rip),%rax        # 173b0 <g_981+0x8>
    7e20:	48 89 85 b0 e5 ff ff 	mov    %rax,-0x1a50(%rbp)
    7e27:	48 8d 05 16 f3 00 00 	lea    0xf316(%rip),%rax        # 17144 <g_256>
    7e2e:	48 89 85 68 e6 ff ff 	mov    %rax,-0x1998(%rbp)
    7e35:	48 c7 85 b8 e5 ff ff 	movq   $0x0,-0x1a48(%rbp)
    7e3c:	00 00 00 00 
    7e40:	48 8d 85 b8 e5 ff ff 	lea    -0x1a48(%rbp),%rax
    7e47:	48 89 85 70 e6 ff ff 	mov    %rax,-0x1990(%rbp)
    7e4e:	48 c7 85 00 e7 ff ff 	movq   $0x0,-0x1900(%rbp)
    7e55:	00 00 00 00 
    7e59:	c7 85 08 e7 ff ff 00 	movl   $0x0,-0x18f8(%rbp)
    7e60:	00 00 00 
    7e63:	c6 85 00 e7 ff ff fe 	movb   $0xfe,-0x1900(%rbp)
    7e6a:	c6 85 04 e7 ff ff fe 	movb   $0xfe,-0x18fc(%rbp)
    7e71:	c6 85 08 e7 ff ff fe 	movb   $0xfe,-0x18f8(%rbp)
    7e78:	48 8d 85 e0 eb ff ff 	lea    -0x1420(%rbp),%rax
    7e7f:	48 8d 15 da fa 00 00 	lea    0xfada(%rip),%rdx        # 17960 <g_3415+0xc>
    7e86:	b9 40 00 00 00       	mov    $0x40,%ecx
    7e8b:	48 89 c7             	mov    %rax,%rdi
    7e8e:	48 89 d6             	mov    %rdx,%rsi
    7e91:	f3 48 a5             	rep movsq %ds:(%rsi),%es:(%rdi)
    7e94:	48 c7 85 c0 e5 ff ff 	movq   $0x0,-0x1a40(%rbp)
    7e9b:	00 00 00 00 
    7e9f:	c7 85 c0 e5 ff ff 95 	movl   $0x337a3595,-0x1a40(%rbp)
    7ea6:	35 7a 33 
    7ea9:	83 bd 5c e5 ff ff 00 	cmpl   $0x0,-0x1aa4(%rbp)
    7eb0:	0f 84 c5 00 00 00    	je     7f7b <func_9+0xd81>
    7eb6:	48 8b 85 68 e6 ff ff 	mov    -0x1998(%rbp),%rax
    7ebd:	8b 00                	mov    (%rax),%eax
    7ebf:	8d 50 01             	lea    0x1(%rax),%edx
    7ec2:	48 8b 85 68 e6 ff ff 	mov    -0x1998(%rbp),%rax
    7ec9:	89 10                	mov    %edx,(%rax)
    7ecb:	48 8b 85 68 e6 ff ff 	mov    -0x1998(%rbp),%rax
    7ed2:	8b 00                	mov    (%rax),%eax
    7ed4:	89 c2                	mov    %eax,%edx
    7ed6:	48 8d 05 bb f4 00 00 	lea    0xf4bb(%rip),%rax        # 17398 <g_936>
    7edd:	48 8b 00             	mov    (%rax),%rax
    7ee0:	48 89 d6             	mov    %rdx,%rsi
    7ee3:	48 89 c7             	mov    %rax,%rdi
    7ee6:	e8 c9 da ff ff       	callq  59b4 <safe_mod_func_int64_t_s_s>
    7eeb:	be ff ff ff ff       	mov    $0xffffffff,%esi
    7ef0:	89 c7                	mov    %eax,%edi
    7ef2:	e8 0e d7 ff ff       	callq  5605 <safe_sub_func_int32_t_s_s>
    7ef7:	89 85 34 e7 ff ff    	mov    %eax,-0x18cc(%rbp)
    7efd:	48 8d 05 4c 07 01 00 	lea    0x1074c(%rip),%rax        # 18650 <g_942>
    7f04:	48 89 85 d8 e5 ff ff 	mov    %rax,-0x1a28(%rbp)
    7f0b:	48 8b 85 70 e6 ff ff 	mov    -0x1990(%rbp),%rax
    7f12:	48 8b 95 d8 e5 ff ff 	mov    -0x1a28(%rbp),%rdx
    7f19:	48 89 10             	mov    %rdx,(%rax)
    7f1c:	48 8b 85 70 e6 ff ff 	mov    -0x1990(%rbp),%rax
    7f23:	48 8b 00             	mov    (%rax),%rax
    7f26:	48 39 85 e0 e5 ff ff 	cmp    %rax,-0x1a20(%rbp)
    7f2d:	0f 95 c0             	setne  %al
    7f30:	0f b6 c0             	movzbl %al,%eax
    7f33:	8b 95 5c e5 ff ff    	mov    -0x1aa4(%rbp),%edx
    7f39:	09 c2                	or     %eax,%edx
    7f3b:	48 8b 05 4e 08 01 00 	mov    0x1084e(%rip),%rax        # 18790 <g_1433>
    7f42:	0f b6 00             	movzbl (%rax),%eax
    7f45:	66 98                	cbtw   
    7f47:	31 d0                	xor    %edx,%eax
    7f49:	0f b7 c0             	movzwl %ax,%eax
    7f4c:	be 02 00 00 00       	mov    $0x2,%esi
    7f51:	89 c7                	mov    %eax,%edi
    7f53:	e8 f0 de ff ff       	callq  5e48 <safe_rshift_func_uint16_t_u_s>
    7f58:	0f b7 d0             	movzwl %ax,%edx
    7f5b:	48 8b 85 b0 e5 ff ff 	mov    -0x1a50(%rbp),%rax
    7f62:	0f b6 08             	movzbl (%rax),%ecx
    7f65:	83 c1 01             	add    $0x1,%ecx
    7f68:	88 08                	mov    %cl,(%rax)
    7f6a:	0f b6 00             	movzbl (%rax),%eax
    7f6d:	0f b6 c0             	movzbl %al,%eax
    7f70:	89 d6                	mov    %edx,%esi
    7f72:	89 c7                	mov    %eax,%edi
    7f74:	e8 14 dd ff ff       	callq  5c8d <safe_rshift_func_uint8_t_u_s>
    7f79:	84 c0                	test   %al,%al
    7f7b:	48 8b 05 b6 06 01 00 	mov    0x106b6(%rip),%rax        # 18638 <g_771>
    7f82:	8b 00                	mov    (%rax),%eax
    7f84:	21 85 50 e5 ff ff    	and    %eax,-0x1ab0(%rbp)
    7f8a:	c7 05 b0 f1 00 00 03 	movl   $0x3,0xf1b0(%rip)        # 17144 <g_256>
    7f91:	00 00 00 
    7f94:	e9 61 03 00 00       	jmpq   82fa <func_9+0x1100>
    7f99:	c7 85 80 e5 ff ff e4 	movl   $0x186f70e4,-0x1a80(%rbp)
    7fa0:	70 6f 18 
    7fa3:	48 8d 05 a6 06 01 00 	lea    0x106a6(%rip),%rax        # 18650 <g_942>
    7faa:	48 89 85 a8 e6 ff ff 	mov    %rax,-0x1958(%rbp)
    7fb1:	48 c7 85 e0 e4 ff ff 	movq   $0xfffffffffffffff7,-0x1b20(%rbp)
    7fb8:	f7 ff ff ff 
    7fbc:	e9 11 03 00 00       	jmpq   82d2 <func_9+0x10d8>
    7fc1:	48 8d 85 40 f8 ff ff 	lea    -0x7c0(%rbp),%rax
    7fc8:	48 8d 15 31 ac 00 00 	lea    0xac31(%rip),%rdx        # 12c00 <g_3098+0x760>
    7fcf:	b9 f0 00 00 00       	mov    $0xf0,%ecx
    7fd4:	48 89 c7             	mov    %rax,%rdi
    7fd7:	48 89 d6             	mov    %rdx,%rsi
    7fda:	f3 48 a5             	rep movsq %ds:(%rsi),%es:(%rdi)
    7fdd:	c7 85 84 e5 ff ff 01 	movl   $0x1,-0x1a7c(%rbp)
    7fe4:	00 00 00 
    7fe7:	c7 85 88 e5 ff ff 35 	movl   $0x55870435,-0x1a78(%rbp)
    7fee:	04 87 55 
    7ff1:	c7 85 8c e5 ff ff 09 	movl   $0x9,-0x1a74(%rbp)
    7ff8:	00 00 00 
    7ffb:	48 8d 05 06 f9 00 00 	lea    0xf906(%rip),%rax        # 17908 <g_2695>
    8002:	48 89 85 c8 e6 ff ff 	mov    %rax,-0x1938(%rbp)
    8009:	48 8d 85 c8 e6 ff ff 	lea    -0x1938(%rbp),%rax
    8010:	48 89 85 d0 e6 ff ff 	mov    %rax,-0x1930(%rbp)
    8017:	48 8d 85 d0 e6 ff ff 	lea    -0x1930(%rbp),%rax
    801e:	48 89 85 b0 e6 ff ff 	mov    %rax,-0x1950(%rbp)
    8025:	48 c7 85 b8 e6 ff ff 	movq   $0x0,-0x1948(%rbp)
    802c:	00 00 00 00 
    8030:	48 8d 85 10 e9 ff ff 	lea    -0x16f0(%rbp),%rax
    8037:	48 8d 15 42 b3 00 00 	lea    0xb342(%rip),%rdx        # 13380 <g_3098+0xee0>
    803e:	b9 2a 00 00 00       	mov    $0x2a,%ecx
    8043:	48 89 c7             	mov    %rax,%rdi
    8046:	48 89 d6             	mov    %rdx,%rsi
    8049:	f3 48 a5             	rep movsq %ds:(%rsi),%es:(%rdi)
    804c:	8b 05 ae f8 00 00    	mov    0xf8ae(%rip),%eax        # 17900 <g_2689>
    8052:	83 e8 01             	sub    $0x1,%eax
    8055:	89 05 a5 f8 00 00    	mov    %eax,0xf8a5(%rip)        # 17900 <g_2689>
    805b:	48 8b 05 36 07 01 00 	mov    0x10736(%rip),%rax        # 18798 <g_1432>
    8062:	48 8b 00             	mov    (%rax),%rax
    8065:	0f b6 00             	movzbl (%rax),%eax
    8068:	0f be d8             	movsbl %al,%ebx
    806b:	0f b6 85 ee e4 ff ff 	movzbl -0x1b12(%rbp),%eax
    8072:	44 0f b6 e0          	movzbl %al,%r12d
    8076:	48 8b 05 bb 05 01 00 	mov    0x105bb(%rip),%rax        # 18638 <g_771>
    807d:	44 8b 28             	mov    (%rax),%r13d
    8080:	44 8b b5 84 e5 ff ff 	mov    -0x1a7c(%rbp),%r14d
    8087:	44 8b bd 34 e7 ff ff 	mov    -0x18cc(%rbp),%r15d
    808e:	0f b6 85 ee e4 ff ff 	movzbl -0x1b12(%rbp),%eax
    8095:	0f b6 c0             	movzbl %al,%eax
    8098:	89 85 d4 e4 ff ff    	mov    %eax,-0x1b2c(%rbp)
    809e:	48 8b 05 c3 04 01 00 	mov    0x104c3(%rip),%rax        # 18568 <g_298>
    80a5:	0f b6 00             	movzbl (%rax),%eax
    80a8:	84 c0                	test   %al,%al
    80aa:	0f 85 82 00 00 00    	jne    8132 <func_9+0xf38>
    80b0:	0f b6 85 ee e4 ff ff 	movzbl -0x1b12(%rbp),%eax
    80b7:	0f b6 c0             	movzbl %al,%eax
    80ba:	89 85 d0 e4 ff ff    	mov    %eax,-0x1b30(%rbp)
    80c0:	48 c7 85 30 e9 ff ff 	movq   $0x0,-0x16d0(%rbp)
    80c7:	00 00 00 00 
    80cb:	8b 85 80 e5 ff ff    	mov    -0x1a80(%rbp),%eax
    80d1:	89 c6                	mov    %eax,%esi
    80d3:	bf 00 00 00 00       	mov    $0x0,%edi
    80d8:	e8 22 d6 ff ff       	callq  56ff <safe_div_func_int32_t_s_s>
    80dd:	0f b6 95 ec e4 ff ff 	movzbl -0x1b14(%rbp),%edx
    80e4:	39 d0                	cmp    %edx,%eax
    80e6:	0f 9e c0             	setle  %al
    80e9:	0f b6 c0             	movzbl %al,%eax
    80ec:	39 85 80 e5 ff ff    	cmp    %eax,-0x1a80(%rbp)
    80f2:	0f 9f c0             	setg   %al
    80f5:	0f b6 d0             	movzbl %al,%edx
    80f8:	48 8b 05 69 04 01 00 	mov    0x10469(%rip),%rax        # 18568 <g_298>
    80ff:	0f b6 00             	movzbl (%rax),%eax
    8102:	0f b6 c0             	movzbl %al,%eax
    8105:	39 c2                	cmp    %eax,%edx
    8107:	0f 9e c0             	setle  %al
    810a:	0f b6 d0             	movzbl %al,%edx
    810d:	0f b6 85 ec e4 ff ff 	movzbl -0x1b14(%rbp),%eax
    8114:	39 c2                	cmp    %eax,%edx
    8116:	0f 9d c0             	setge  %al
    8119:	0f b6 c0             	movzbl %al,%eax
    811c:	8b b5 d0 e4 ff ff    	mov    -0x1b30(%rbp),%esi
    8122:	89 c7                	mov    %eax,%edi
    8124:	e8 2c d3 ff ff       	callq  5455 <safe_div_func_int16_t_s_s>
    8129:	98                   	cwtl   
    812a:	39 85 88 e5 ff ff    	cmp    %eax,-0x1a78(%rbp)
    8130:	74 07                	je     8139 <func_9+0xf3f>
    8132:	b8 01 00 00 00       	mov    $0x1,%eax
    8137:	eb 05                	jmp    813e <func_9+0xf44>
    8139:	b8 00 00 00 00       	mov    $0x0,%eax
    813e:	0f be c0             	movsbl %al,%eax
    8141:	8b 95 80 e5 ff ff    	mov    -0x1a80(%rbp),%edx
    8147:	89 d6                	mov    %edx,%esi
    8149:	89 c7                	mov    %eax,%edi
    814b:	e8 51 d1 ff ff       	callq  52a1 <safe_lshift_func_int8_t_s_s>
    8150:	89 c2                	mov    %eax,%edx
    8152:	48 8b 05 5f 06 01 00 	mov    0x1065f(%rip),%rax        # 187b8 <g_1565>
    8159:	48 8b 00             	mov    (%rax),%rax
    815c:	48 0f be d2          	movsbq %dl,%rdx
    8160:	48 89 10             	mov    %rdx,(%rax)
    8163:	48 8b 00             	mov    (%rax),%rax
    8166:	48 85 c0             	test   %rax,%rax
    8169:	74 07                	je     8172 <func_9+0xf78>
    816b:	b8 01 00 00 00       	mov    $0x1,%eax
    8170:	eb 05                	jmp    8177 <func_9+0xf7d>
    8172:	b8 00 00 00 00       	mov    $0x0,%eax
    8177:	98                   	cwtl   
    8178:	be 79 54 00 00       	mov    $0x5479,%esi
    817d:	89 c7                	mov    %eax,%edi
    817f:	e8 2f d2 ff ff       	callq  53b3 <safe_add_func_int16_t_s_s>
    8184:	98                   	cwtl   
    8185:	39 85 d4 e4 ff ff    	cmp    %eax,-0x1b2c(%rbp)
    818b:	0f 9e c0             	setle  %al
    818e:	0f b6 c0             	movzbl %al,%eax
    8191:	44 89 fe             	mov    %r15d,%esi
    8194:	89 c7                	mov    %eax,%edi
    8196:	e8 6a da ff ff       	callq  5c05 <safe_lshift_func_uint8_t_u_s>
    819b:	0f b6 d0             	movzbl %al,%edx
    819e:	8b 05 e4 f6 00 00    	mov    0xf6e4(%rip),%eax        # 17888 <g_2196>
    81a4:	21 d0                	and    %edx,%eax
    81a6:	89 05 dc f6 00 00    	mov    %eax,0xf6dc(%rip)        # 17888 <g_2196>
    81ac:	8b 05 d6 f6 00 00    	mov    0xf6d6(%rip),%eax        # 17888 <g_2196>
    81b2:	44 89 f6             	mov    %r14d,%esi
    81b5:	89 c7                	mov    %eax,%edi
    81b7:	e8 14 dd ff ff       	callq  5ed0 <safe_sub_func_uint32_t_u_u>
    81bc:	44 89 ee             	mov    %r13d,%esi
    81bf:	89 c7                	mov    %eax,%edi
    81c1:	e8 06 d5 ff ff       	callq  56cc <safe_mod_func_int32_t_s_s>
    81c6:	48 63 d0             	movslq %eax,%rdx
    81c9:	48 8b 05 78 04 01 00 	mov    0x10478(%rip),%rax        # 18648 <g_943>
    81d0:	48 8b 00             	mov    (%rax),%rax
    81d3:	48 39 c2             	cmp    %rax,%rdx
    81d6:	0f 92 c0             	setb   %al
    81d9:	0f b6 c0             	movzbl %al,%eax
    81dc:	be 01 00 00 00       	mov    $0x1,%esi
    81e1:	89 c7                	mov    %eax,%edi
    81e3:	e8 92 dc ff ff       	callq  5e7a <safe_rshift_func_uint16_t_u_u>
    81e8:	0f b7 d0             	movzwl %ax,%edx
    81eb:	48 8b 85 b8 e6 ff ff 	mov    -0x1948(%rbp),%rax
    81f2:	48 3b 85 a8 e6 ff ff 	cmp    -0x1958(%rbp),%rax
    81f9:	0f 95 c0             	setne  %al
    81fc:	89 c1                	mov    %eax,%ecx
    81fe:	0f b6 85 ee e4 ff ff 	movzbl -0x1b12(%rbp),%eax
    8205:	21 c8                	and    %ecx,%eax
    8207:	0f be c0             	movsbl %al,%eax
    820a:	89 d6                	mov    %edx,%esi
    820c:	89 c7                	mov    %eax,%edi
    820e:	e8 22 d1 ff ff       	callq  5335 <safe_rshift_func_int8_t_s_s>
    8213:	0f be c0             	movsbl %al,%eax
    8216:	44 89 e6             	mov    %r12d,%esi
    8219:	89 c7                	mov    %eax,%edi
    821b:	e8 81 d0 ff ff       	callq  52a1 <safe_lshift_func_int8_t_s_s>
    8220:	8b 85 54 e5 ff ff    	mov    -0x1aac(%rbp),%eax
    8226:	89 c7                	mov    %eax,%edi
    8228:	e8 79 dc ff ff       	callq  5ea6 <safe_unary_minus_func_uint32_t_u>
    822d:	0f b7 95 e8 e4 ff ff 	movzwl -0x1b18(%rbp),%edx
    8234:	39 d0                	cmp    %edx,%eax
    8236:	0f 97 c0             	seta   %al
    8239:	0f b6 d0             	movzbl %al,%edx
    823c:	48 8b 05 1d 03 01 00 	mov    0x1031d(%rip),%rax        # 18560 <g_242>
    8243:	48 8b 00             	mov    (%rax),%rax
    8246:	0f b7 00             	movzwl (%rax),%eax
    8249:	0f b7 c0             	movzwl %ax,%eax
    824c:	39 c2                	cmp    %eax,%edx
    824e:	0f 9f c0             	setg   %al
    8251:	0f b6 c0             	movzbl %al,%eax
    8254:	89 de                	mov    %ebx,%esi
    8256:	89 c7                	mov    %eax,%edi
    8258:	e8 0d d0 ff ff       	callq  526a <safe_div_func_int8_t_s_s>
    825d:	48 8b 05 44 05 01 00 	mov    0x10544(%rip),%rax        # 187a8 <g_1498>
    8264:	48 8b 10             	mov    (%rax),%rdx
    8267:	48 8b 85 b0 e6 ff ff 	mov    -0x1950(%rbp),%rax
    826e:	48 89 10             	mov    %rdx,(%rax)
    8271:	48 8b 85 b0 e6 ff ff 	mov    -0x1950(%rbp),%rax
    8278:	48 8b 00             	mov    (%rax),%rax
    827b:	48 85 c0             	test   %rax,%rax
    827e:	74 0c                	je     828c <func_9+0x1092>
    8280:	48 8b 85 d8 e4 ff ff 	mov    -0x1b28(%rbp),%rax
    8287:	e9 77 12 00 00       	jmpq   9503 <func_9+0x2309>
    828c:	48 8b 05 35 06 01 00 	mov    0x10635(%rip),%rax        # 188c8 <g_2550>
    8293:	48 8b 95 c0 e6 ff ff 	mov    -0x1940(%rbp),%rdx
    829a:	48 89 10             	mov    %rdx,(%rax)
    829d:	66 83 bd e8 e4 ff ff 	cmpw   $0x0,-0x1b18(%rbp)
    82a4:	00 
    82a5:	75 0f                	jne    82b6 <func_9+0x10bc>
    82a7:	48 8b 85 c0 e9 ff ff 	mov    -0x1640(%rbp),%rax
    82ae:	89 85 8c e5 ff ff    	mov    %eax,-0x1a74(%rbp)
    82b4:	eb 01                	jmp    82b7 <func_9+0x10bd>
    82b6:	90                   	nop
    82b7:	48 8b 85 e0 e4 ff ff 	mov    -0x1b20(%rbp),%rax
    82be:	be 04 00 00 00       	mov    $0x4,%esi
    82c3:	48 89 c7             	mov    %rax,%rdi
    82c6:	e8 63 dd ff ff       	callq  602e <safe_add_func_uint64_t_u_u>
    82cb:	48 89 85 e0 e4 ff ff 	mov    %rax,-0x1b20(%rbp)
    82d2:	48 83 bd e0 e4 ff ff 	cmpq   $0xa,-0x1b20(%rbp)
    82d9:	0a 
    82da:	0f 8e e1 fc ff ff    	jle    7fc1 <func_9+0xdc7>
    82e0:	8b 05 5e ee 00 00    	mov    0xee5e(%rip),%eax        # 17144 <g_256>
    82e6:	98                   	cwtl   
    82e7:	be 07 00 00 00       	mov    $0x7,%esi
    82ec:	89 c7                	mov    %eax,%edi
    82ee:	e8 c0 d0 ff ff       	callq  53b3 <safe_add_func_int16_t_s_s>
    82f3:	98                   	cwtl   
    82f4:	89 05 4a ee 00 00    	mov    %eax,0xee4a(%rip)        # 17144 <g_256>
    82fa:	8b 05 44 ee 00 00    	mov    0xee44(%rip),%eax        # 17144 <g_256>
    8300:	83 f8 36             	cmp    $0x36,%eax
    8303:	0f 87 90 fc ff ff    	ja     7f99 <func_9+0xd9f>
    8309:	c7 05 a5 f0 00 00 00 	movl   $0x0,0xf0a5(%rip)        # 173b8 <g_1225>
    8310:	00 00 00 
    8313:	e9 79 06 00 00       	jmpq   8991 <func_9+0x1797>
    8318:	48 8d 85 b0 e5 ff ff 	lea    -0x1a50(%rbp),%rax
    831f:	48 89 85 78 e6 ff ff 	mov    %rax,-0x1988(%rbp)
    8326:	c7 85 a8 e5 ff ff d0 	movl   $0x8dfb56d0,-0x1a58(%rbp)
    832d:	56 fb 8d 
    8330:	c7 85 64 e5 ff ff fd 	movl   $0xfffffffd,-0x1a9c(%rbp)
    8337:	ff ff ff 
    833a:	c7 85 10 e5 ff ff c4 	movl   $0x4d2cafc4,-0x1af0(%rbp)
    8341:	af 2c 4d 
    8344:	c6 85 c8 e6 ff ff 08 	movb   $0x8,-0x1938(%rbp)
    834b:	c7 85 cc e6 ff ff fd 	movl   $0xfffffffd,-0x1934(%rbp)
    8352:	ff ff ff 
    8355:	66 c7 05 92 14 01 00 	movw   $0x0,0x11492(%rip)        # 197f0 <g_2020>
    835c:	00 00 
    835e:	e9 8b 00 00 00       	jmpq   83ee <func_9+0x11f4>
    8363:	c6 05 8a 14 01 00 00 	movb   $0x0,0x1148a(%rip)        # 197f4 <g_2198>
    836a:	eb 66                	jmp    83d2 <func_9+0x11d8>
    836c:	48 8d 85 e0 eb ff ff 	lea    -0x1420(%rbp),%rax
    8373:	48 05 c8 01 00 00    	add    $0x1c8,%rax
    8379:	48 89 85 a0 e6 ff ff 	mov    %rax,-0x1960(%rbp)
    8380:	0f b7 05 69 14 01 00 	movzwl 0x11469(%rip),%eax        # 197f0 <g_2020>
    8387:	0f b7 c0             	movzwl %ax,%eax
    838a:	8d 50 01             	lea    0x1(%rax),%edx
    838d:	0f b6 05 60 14 01 00 	movzbl 0x11460(%rip),%eax        # 197f4 <g_2198>
    8394:	0f b6 c0             	movzbl %al,%eax
    8397:	48 8d 8d 20 e7 ff ff 	lea    -0x18e0(%rbp),%rcx
    839e:	48 63 f0             	movslq %eax,%rsi
    83a1:	48 63 d2             	movslq %edx,%rdx
    83a4:	48 89 d0             	mov    %rdx,%rax
    83a7:	48 01 c0             	add    %rax,%rax
    83aa:	48 01 d0             	add    %rdx,%rax
    83ad:	48 01 f0             	add    %rsi,%rax
    83b0:	48 c1 e0 02          	shl    $0x2,%rax
    83b4:	48 8d 14 01          	lea    (%rcx,%rax,1),%rdx
    83b8:	48 8b 85 a0 e6 ff ff 	mov    -0x1960(%rbp),%rax
    83bf:	48 89 10             	mov    %rdx,(%rax)
    83c2:	0f b6 05 2b 14 01 00 	movzbl 0x1142b(%rip),%eax        # 197f4 <g_2198>
    83c9:	83 c0 01             	add    $0x1,%eax
    83cc:	88 05 22 14 01 00    	mov    %al,0x11422(%rip)        # 197f4 <g_2198>
    83d2:	0f b6 05 1b 14 01 00 	movzbl 0x1141b(%rip),%eax        # 197f4 <g_2198>
    83d9:	3c 02                	cmp    $0x2,%al
    83db:	76 8f                	jbe    836c <func_9+0x1172>
    83dd:	0f b7 05 0c 14 01 00 	movzwl 0x1140c(%rip),%eax        # 197f0 <g_2020>
    83e4:	83 c0 01             	add    $0x1,%eax
    83e7:	66 89 05 02 14 01 00 	mov    %ax,0x11402(%rip)        # 197f0 <g_2020>
    83ee:	0f b7 05 fb 13 01 00 	movzwl 0x113fb(%rip),%eax        # 197f0 <g_2020>
    83f5:	66 83 f8 01          	cmp    $0x1,%ax
    83f9:	0f 86 64 ff ff ff    	jbe    8363 <func_9+0x1169>
    83ff:	c7 05 b7 13 01 00 00 	movl   $0x0,0x113b7(%rip)        # 197c0 <g_812>
    8406:	00 00 00 
    8409:	e9 56 05 00 00       	jmpq   8964 <func_9+0x176a>
    840e:	48 c7 85 c8 e5 ff ff 	movq   $0x0,-0x1a38(%rbp)
    8415:	00 00 00 00 
    8419:	c7 85 c8 e5 ff ff ff 	movl   $0xffffffff,-0x1a38(%rbp)
    8420:	ff ff ff 
    8423:	48 8d 85 b0 e5 ff ff 	lea    -0x1a50(%rbp),%rax
    842a:	48 89 85 80 e6 ff ff 	mov    %rax,-0x1980(%rbp)
    8431:	48 8d 05 98 04 01 00 	lea    0x10498(%rip),%rax        # 188d0 <g_2549>
    8438:	48 89 85 88 e6 ff ff 	mov    %rax,-0x1978(%rbp)
    843f:	c7 85 68 e5 ff ff c6 	movl   $0xe0e092c6,-0x1a98(%rbp)
    8446:	92 e0 e0 
    8449:	c7 85 6c e5 ff ff 02 	movl   $0x2,-0x1a94(%rbp)
    8450:	00 00 00 
    8453:	0f b6 05 5e ef 00 00 	movzbl 0xef5e(%rip),%eax        # 173b8 <g_1225>
    845a:	0f b6 d8             	movzbl %al,%ebx
    845d:	4c 8b ad 58 e7 ff ff 	mov    -0x18a8(%rbp),%r13
    8464:	0f b6 85 ee e4 ff ff 	movzbl -0x1b12(%rbp),%eax
    846b:	44 0f b6 e0          	movzbl %al,%r12d
    846f:	0f b6 85 c0 e6 ff ff 	movzbl -0x1940(%rbp),%eax
    8476:	0f b6 c0             	movzbl %al,%eax
    8479:	89 85 d4 e4 ff ff    	mov    %eax,-0x1b2c(%rbp)
    847f:	48 8b 05 7a 01 01 00 	mov    0x1017a(%rip),%rax        # 18600 <g_621>
    8486:	48 8b 00             	mov    (%rax),%rax
    8489:	48 85 c0             	test   %rax,%rax
    848c:	0f 84 28 01 00 00    	je     85ba <func_9+0x13c0>
    8492:	0f b6 85 c8 e5 ff ff 	movzbl -0x1a38(%rbp),%eax
    8499:	44 0f b6 f0          	movzbl %al,%r14d
    849d:	0f b7 85 98 e5 ff ff 	movzwl -0x1a68(%rbp),%eax
    84a4:	66 25 ff 1f          	and    $0x1fff,%ax
    84a8:	44 0f b6 f8          	movzbl %al,%r15d
    84ac:	48 8b 05 e5 02 01 00 	mov    0x102e5(%rip),%rax        # 18798 <g_1432>
    84b3:	48 8b 00             	mov    (%rax),%rax
    84b6:	0f b6 00             	movzbl (%rax),%eax
    84b9:	0f be c0             	movsbl %al,%eax
    84bc:	89 85 d0 e4 ff ff    	mov    %eax,-0x1b30(%rbp)
    84c2:	48 8b 85 80 e6 ff ff 	mov    -0x1980(%rbp),%rax
    84c9:	48 3b 85 78 e6 ff ff 	cmp    -0x1988(%rbp),%rax
    84d0:	0f 95 c0             	setne  %al
    84d3:	0f b6 c0             	movzbl %al,%eax
    84d6:	48 89 85 c8 e4 ff ff 	mov    %rax,-0x1b38(%rbp)
    84dd:	0f b6 95 ec e4 ff ff 	movzbl -0x1b14(%rbp),%edx
    84e4:	8b 05 ea f3 00 00    	mov    0xf3ea(%rip),%eax        # 178d4 <g_2277>
    84ea:	89 d6                	mov    %edx,%esi
    84ec:	89 c7                	mov    %eax,%edi
    84ee:	e8 32 da ff ff       	callq  5f25 <safe_div_func_uint32_t_u_u>
    84f3:	98                   	cwtl   
    84f4:	be fd ff ff ff       	mov    $0xfffffffd,%esi
    84f9:	89 c7                	mov    %eax,%edi
    84fb:	e8 55 cf ff ff       	callq  5455 <safe_div_func_int16_t_s_s>
    8500:	48 8b 05 19 03 01 00 	mov    0x10319(%rip),%rax        # 18820 <g_1717>
    8507:	48 8b 00             	mov    (%rax),%rax
    850a:	48 8b 10             	mov    (%rax),%rdx
    850d:	48 8d 05 84 ee 00 00 	lea    0xee84(%rip),%rax        # 17398 <g_936>
    8514:	48 8b 12             	mov    (%rdx),%rdx
    8517:	48 89 10             	mov    %rdx,(%rax)
    851a:	48 8b 00             	mov    (%rax),%rax
    851d:	48 8b 95 c8 e4 ff ff 	mov    -0x1b38(%rbp),%rdx
    8524:	48 21 c2             	and    %rax,%rdx
    8527:	0f b6 85 ec e4 ff ff 	movzbl -0x1b14(%rbp),%eax
    852e:	48 39 c2             	cmp    %rax,%rdx
    8531:	74 12                	je     8545 <func_9+0x134b>
    8533:	0f b6 85 c0 e6 ff ff 	movzbl -0x1940(%rbp),%eax
    853a:	84 c0                	test   %al,%al
    853c:	74 07                	je     8545 <func_9+0x134b>
    853e:	b8 01 00 00 00       	mov    $0x1,%eax
    8543:	eb 05                	jmp    854a <func_9+0x1350>
    8545:	b8 00 00 00 00       	mov    $0x0,%eax
    854a:	0f be c0             	movsbl %al,%eax
    854d:	8b b5 d0 e4 ff ff    	mov    -0x1b30(%rbp),%esi
    8553:	89 c7                	mov    %eax,%edi
    8555:	e8 98 cc ff ff       	callq  51f2 <safe_sub_func_int8_t_s_s>
    855a:	0f be d0             	movsbl %al,%edx
    855d:	8b 85 08 e5 ff ff    	mov    -0x1af8(%rbp),%eax
    8563:	89 d6                	mov    %edx,%esi
    8565:	89 c7                	mov    %eax,%edi
    8567:	e8 4a d0 ff ff       	callq  55b6 <safe_add_func_int32_t_s_s>
    856c:	48 98                	cltq   
    856e:	48 be 9d a3 28 db 47 	movabs $0xc281cc47db28a39d,%rsi
    8575:	cc 81 c2 
    8578:	48 89 c7             	mov    %rax,%rdi
    857b:	e8 ae da ff ff       	callq  602e <safe_add_func_uint64_t_u_u>
    8580:	0f b6 c0             	movzbl %al,%eax
    8583:	44 89 fe             	mov    %r15d,%esi
    8586:	89 c7                	mov    %eax,%edi
    8588:	e8 06 d6 ff ff       	callq  5b93 <safe_mul_func_uint8_t_u_u>
    858d:	0f b6 c0             	movzbl %al,%eax
    8590:	4c 89 f6             	mov    %r14,%rsi
    8593:	48 89 c7             	mov    %rax,%rdi
    8596:	e8 93 da ff ff       	callq  602e <safe_add_func_uint64_t_u_u>
    859b:	0f b6 95 ee e4 ff ff 	movzbl -0x1b12(%rbp),%edx
    85a2:	0f b6 d2             	movzbl %dl,%edx
    85a5:	48 39 d0             	cmp    %rdx,%rax
    85a8:	0f 93 c0             	setae  %al
    85ab:	0f b6 c0             	movzbl %al,%eax
    85ae:	be 0a ef 8e 6b       	mov    $0x6b8eef0a,%esi
    85b3:	89 c7                	mov    %eax,%edi
    85b5:	e8 45 d1 ff ff       	callq  56ff <safe_div_func_int32_t_s_s>
    85ba:	b8 00 00 00 00       	mov    $0x0,%eax
    85bf:	be 01 00 00 00       	mov    $0x1,%esi
    85c4:	89 c7                	mov    %eax,%edi
    85c6:	e8 34 d1 ff ff       	callq  56ff <safe_div_func_int32_t_s_s>
    85cb:	83 f8 02             	cmp    $0x2,%eax
    85ce:	0f 9e c0             	setle  %al
    85d1:	0f b6 d0             	movzbl %al,%edx
    85d4:	48 8b 05 45 00 01 00 	mov    0x10045(%rip),%rax        # 18620 <g_703>
    85db:	0b 95 d4 e4 ff ff    	or     -0x1b2c(%rbp),%edx
    85e1:	89 10                	mov    %edx,(%rax)
    85e3:	8b 00                	mov    (%rax),%eax
    85e5:	48 8b 8d c0 e5 ff ff 	mov    -0x1a40(%rbp),%rcx
    85ec:	48 8d 95 20 e7 ff ff 	lea    -0x18e0(%rbp),%rdx
    85f3:	48 8d 72 1c          	lea    0x1c(%rdx),%rsi
    85f7:	49 89 c8             	mov    %rcx,%r8
    85fa:	4c 89 e9             	mov    %r13,%rcx
    85fd:	44 89 e2             	mov    %r12d,%edx
    8600:	89 c7                	mov    %eax,%edi
    8602:	e8 ed 5d 00 00       	callq  e3f4 <func_35>
    8607:	89 de                	mov    %ebx,%esi
    8609:	48 89 c7             	mov    %rax,%rdi
    860c:	e8 03 26 00 00       	callq  ac14 <func_23>
    8611:	48 89 85 d8 e4 ff ff 	mov    %rax,-0x1b28(%rbp)
    8618:	c7 05 62 ea 00 00 f0 	movl   $0xfffffff0,0xea62(%rip)        # 17084 <g_136+0x4>
    861f:	ff ff ff 
    8622:	eb 2d                	jmp    8651 <func_9+0x1457>
    8624:	c6 85 fd e4 ff ff 6f 	movb   $0x6f,-0x1b03(%rbp)
    862b:	48 8d 05 96 ed 00 00 	lea    0xed96(%rip),%rax        # 173c8 <g_1460>
    8632:	48 39 85 88 e6 ff ff 	cmp    %rax,-0x1978(%rbp)
    8639:	0f 95 c0             	setne  %al
    863c:	30 85 fd e4 ff ff    	xor    %al,-0x1b03(%rbp)
    8642:	8b 05 3c ea 00 00    	mov    0xea3c(%rip),%eax        # 17084 <g_136+0x4>
    8648:	83 c0 01             	add    $0x1,%eax
    864b:	89 05 33 ea 00 00    	mov    %eax,0xea33(%rip)        # 17084 <g_136+0x4>
    8651:	8b 05 2d ea 00 00    	mov    0xea2d(%rip),%eax        # 17084 <g_136+0x4>
    8657:	83 f8 fa             	cmp    $0xfffffffa,%eax
    865a:	75 c8                	jne    8624 <func_9+0x142a>
    865c:	c6 05 26 ed 00 00 00 	movb   $0x0,0xed26(%rip)        # 17389 <g_901>
    8663:	e9 31 01 00 00       	jmpq   8799 <func_9+0x159f>
    8668:	c7 85 70 e5 ff ff 00 	movl   $0x0,-0x1a90(%rbp)
    866f:	00 00 00 
    8672:	c7 85 74 e5 ff ff b6 	movl   $0x803e8bb6,-0x1a8c(%rbp)
    8679:	8b 3e 80 
    867c:	c7 85 78 e5 ff ff 57 	movl   $0xd2834a57,-0x1a88(%rbp)
    8683:	4a 83 d2 
    8686:	c7 85 7c e5 ff ff bf 	movl   $0xc9c8a6bf,-0x1a84(%rbp)
    868d:	a6 c8 c9 
    8690:	c7 85 14 e5 ff ff 00 	movl   $0x0,-0x1aec(%rbp)
    8697:	00 00 00 
    869a:	eb 1a                	jmp    86b6 <func_9+0x14bc>
    869c:	8b 85 14 e5 ff ff    	mov    -0x1aec(%rbp),%eax
    86a2:	48 98                	cltq   
    86a4:	c7 84 85 40 f8 ff ff 	movl   $0x50ba5b17,-0x7c0(%rbp,%rax,4)
    86ab:	17 5b ba 50 
    86af:	83 85 14 e5 ff ff 01 	addl   $0x1,-0x1aec(%rbp)
    86b6:	83 bd 14 e5 ff ff 02 	cmpl   $0x2,-0x1aec(%rbp)
    86bd:	7e dd                	jle    869c <func_9+0x14a2>
    86bf:	83 85 10 e5 ff ff 01 	addl   $0x1,-0x1af0(%rbp)
    86c6:	48 8b 05 d3 fe 00 00 	mov    0xfed3(%rip),%rax        # 185a0 <g_319>
    86cd:	48 8d 95 a8 e5 ff ff 	lea    -0x1a58(%rbp),%rdx
    86d4:	48 89 10             	mov    %rdx,(%rax)
    86d7:	48 8b 05 b2 00 01 00 	mov    0x100b2(%rip),%rax        # 18790 <g_1433>
    86de:	0f b6 00             	movzbl (%rax),%eax
    86e1:	0f be d8             	movsbl %al,%ebx
    86e4:	48 8b 05 e5 00 01 00 	mov    0x100e5(%rip),%rax        # 187d0 <g_1580>
    86eb:	48 8b 00             	mov    (%rax),%rax
    86ee:	48 8b 10             	mov    (%rax),%rdx
    86f1:	48 8b 05 d8 00 01 00 	mov    0x100d8(%rip),%rax        # 187d0 <g_1580>
    86f8:	48 8b 00             	mov    (%rax),%rax
    86fb:	83 e2 01             	and    $0x1,%edx
    86fe:	48 89 10             	mov    %rdx,(%rax)
    8701:	48 8b 05 60 fe 00 00 	mov    0xfe60(%rip),%rax        # 18568 <g_298>
    8708:	0f b6 00             	movzbl (%rax),%eax
    870b:	be 00 00 00 00       	mov    $0x0,%esi
    8710:	bf f6 ff ff ff       	mov    $0xfffffff6,%edi
    8715:	e8 52 cc ff ff       	callq  536c <safe_rshift_func_int8_t_s_u>
    871a:	84 c0                	test   %al,%al
    871c:	74 07                	je     8725 <func_9+0x152b>
    871e:	b8 01 00 00 00       	mov    $0x1,%eax
    8723:	eb 05                	jmp    872a <func_9+0x1530>
    8725:	b8 00 00 00 00       	mov    $0x0,%eax
    872a:	98                   	cwtl   
    872b:	be fb ff ff ff       	mov    $0xfffffffb,%esi
    8730:	89 c7                	mov    %eax,%edi
    8732:	e8 be cc ff ff       	callq  53f5 <safe_mul_func_int16_t_s_s>
    8737:	89 de                	mov    %ebx,%esi
    8739:	bf 01 00 00 00       	mov    $0x1,%edi
    873e:	e8 ee ca ff ff       	callq  5231 <safe_mod_func_int8_t_s_s>
    8743:	0f be c0             	movsbl %al,%eax
    8746:	89 85 a8 e5 ff ff    	mov    %eax,-0x1a58(%rbp)
    874c:	8b 85 a8 e5 ff ff    	mov    -0x1a58(%rbp),%eax
    8752:	89 c2                	mov    %eax,%edx
    8754:	48 8b 85 d8 e4 ff ff 	mov    -0x1b28(%rbp),%rax
    875b:	89 d6                	mov    %edx,%esi
    875d:	48 89 c7             	mov    %rax,%rdi
    8760:	e8 af 24 00 00       	callq  ac14 <func_23>
    8765:	48 89 85 d8 e4 ff ff 	mov    %rax,-0x1b28(%rbp)
    876c:	0f b6 85 f6 e4 ff ff 	movzbl -0x1b0a(%rbp),%eax
    8773:	83 e8 01             	sub    $0x1,%eax
    8776:	88 85 f6 e4 ff ff    	mov    %al,-0x1b0a(%rbp)
    877c:	0f b6 05 06 ec 00 00 	movzbl 0xec06(%rip),%eax        # 17389 <g_901>
    8783:	0f b6 c0             	movzbl %al,%eax
    8786:	be 06 00 00 00       	mov    $0x6,%esi
    878b:	48 89 c7             	mov    %rax,%rdi
    878e:	e8 9b d8 ff ff       	callq  602e <safe_add_func_uint64_t_u_u>
    8793:	88 05 f0 eb 00 00    	mov    %al,0xebf0(%rip)        # 17389 <g_901>
    8799:	0f b6 05 e9 eb 00 00 	movzbl 0xebe9(%rip),%eax        # 17389 <g_901>
    87a0:	3c 0a                	cmp    $0xa,%al
    87a2:	0f 86 c0 fe ff ff    	jbe    8668 <func_9+0x146e>
    87a8:	66 c7 85 ee e4 ff ff 	movw   $0x0,-0x1b12(%rbp)
    87af:	00 00 
    87b1:	e9 8e 01 00 00       	jmpq   8944 <func_9+0x174a>
    87b6:	48 8d 05 83 fe 00 00 	lea    0xfe83(%rip),%rax        # 18640 <g_858>
    87bd:	48 89 85 90 e6 ff ff 	mov    %rax,-0x1970(%rbp)
    87c4:	c6 85 d0 e6 ff ff 57 	movb   $0x57,-0x1930(%rbp)
    87cb:	c7 85 d4 e6 ff ff f8 	movl   $0xfffffff8,-0x192c(%rbp)
    87d2:	ff ff ff 
    87d5:	48 8d 05 96 e8 00 00 	lea    0xe896(%rip),%rax        # 17072 <g_84+0x12>
    87dc:	48 89 85 98 e6 ff ff 	mov    %rax,-0x1968(%rbp)
    87e3:	48 8d 85 40 f8 ff ff 	lea    -0x7c0(%rbp),%rax
    87ea:	48 8d 15 ef ac 00 00 	lea    0xacef(%rip),%rdx        # 134e0 <g_3098+0x1040>
    87f1:	b9 5a 00 00 00       	mov    $0x5a,%ecx
    87f6:	48 89 c7             	mov    %rax,%rdi
    87f9:	48 89 d6             	mov    %rdx,%rsi
    87fc:	f3 48 a5             	rep movsq %ds:(%rsi),%es:(%rdi)
    87ff:	48 8b 85 90 e6 ff ff 	mov    -0x1970(%rbp),%rax
    8806:	48 c7 00 00 00 00 00 	movq   $0x0,(%rax)
    880d:	48 8b 85 d8 e4 ff ff 	mov    -0x1b28(%rbp),%rax
    8814:	8b 00                	mov    (%rax),%eax
    8816:	85 c0                	test   %eax,%eax
    8818:	0f 85 14 01 00 00    	jne    8932 <func_9+0x1738>
    881e:	0f b6 05 a3 ee 00 00 	movzbl 0xeea3(%rip),%eax        # 176c8 <g_2027+0x2c8>
    8825:	0f b6 d0             	movzbl %al,%edx
    8828:	48 8b 85 68 e6 ff ff 	mov    -0x1998(%rbp),%rax
    882f:	89 10                	mov    %edx,(%rax)
    8831:	48 8b 85 68 e6 ff ff 	mov    -0x1998(%rbp),%rax
    8838:	8b 00                	mov    (%rax),%eax
    883a:	85 c0                	test   %eax,%eax
    883c:	74 35                	je     8873 <func_9+0x1679>
    883e:	8b 85 d0 e8 ff ff    	mov    -0x1730(%rbp),%eax
    8844:	0f be c0             	movsbl %al,%eax
    8847:	89 c6                	mov    %eax,%esi
    8849:	bf a0 ff ff ff       	mov    $0xffffffa0,%edi
    884e:	e8 bf c9 ff ff       	callq  5212 <safe_mul_func_int8_t_s_s>
    8853:	0f be d0             	movsbl %al,%edx
    8856:	48 8b 85 68 e6 ff ff 	mov    -0x1998(%rbp),%rax
    885d:	89 10                	mov    %edx,(%rax)
    885f:	48 8b 85 68 e6 ff ff 	mov    -0x1998(%rbp),%rax
    8866:	8b 00                	mov    (%rax),%eax
    8868:	85 c0                	test   %eax,%eax
    886a:	74 07                	je     8873 <func_9+0x1679>
    886c:	b8 01 00 00 00       	mov    $0x1,%eax
    8871:	eb 05                	jmp    8878 <func_9+0x167e>
    8873:	b8 00 00 00 00       	mov    $0x0,%eax
    8878:	0f b7 c0             	movzwl %ax,%eax
    887b:	be 0d 00 00 00       	mov    $0xd,%esi
    8880:	89 c7                	mov    %eax,%edi
    8882:	e8 f3 d5 ff ff       	callq  5e7a <safe_rshift_func_uint16_t_u_u>
    8887:	44 0f b7 e0          	movzwl %ax,%r12d
    888b:	0f b6 85 c8 e5 ff ff 	movzbl -0x1a38(%rbp),%eax
    8892:	44 0f b6 e8          	movzbl %al,%r13d
    8896:	8b 85 24 e7 ff ff    	mov    -0x18dc(%rbp),%eax
    889c:	41 89 c6             	mov    %eax,%r14d
    889f:	0f b6 85 ee e4 ff ff 	movzbl -0x1b12(%rbp),%eax
    88a6:	0f b6 d8             	movzbl %al,%ebx
    88a9:	8b 85 2c e7 ff ff    	mov    -0x18d4(%rbp),%eax
    88af:	0f be d0             	movsbl %al,%edx
    88b2:	48 8b 05 0f 00 01 00 	mov    0x1000f(%rip),%rax        # 188c8 <g_2550>
    88b9:	48 8b 8d c8 e6 ff ff 	mov    -0x1938(%rbp),%rcx
    88c0:	48 89 08             	mov    %rcx,(%rax)
    88c3:	0f b7 8d e8 e4 ff ff 	movzwl -0x1b18(%rbp),%ecx
    88ca:	48 8b 85 d8 e4 ff ff 	mov    -0x1b28(%rbp),%rax
    88d1:	8b 00                	mov    (%rax),%eax
    88d3:	39 c1                	cmp    %eax,%ecx
    88d5:	0f 95 c0             	setne  %al
    88d8:	0f b6 c0             	movzbl %al,%eax
    88db:	89 d6                	mov    %edx,%esi
    88dd:	89 c7                	mov    %eax,%edi
    88df:	e8 86 c9 ff ff       	callq  526a <safe_div_func_int8_t_s_s>
    88e4:	48 8b 85 98 e6 ff ff 	mov    -0x1968(%rbp),%rax
    88eb:	66 c7 00 01 00       	movw   $0x1,(%rax)
    88f0:	b8 01 00 00 00       	mov    $0x1,%eax
    88f5:	3d 32 b8 00 00       	cmp    $0xb832,%eax
    88fa:	0f 95 c0             	setne  %al
    88fd:	0f b6 c0             	movzbl %al,%eax
    8900:	48 89 de             	mov    %rbx,%rsi
    8903:	48 89 c7             	mov    %rax,%rdi
    8906:	e8 a4 d7 ff ff       	callq  60af <safe_div_func_uint64_t_u_u>
    890b:	44 89 f6             	mov    %r14d,%esi
    890e:	bf 18 bd 5f ce       	mov    $0xce5fbd18,%edi
    8913:	e8 b8 d5 ff ff       	callq  5ed0 <safe_sub_func_uint32_t_u_u>
    8918:	41 39 c5             	cmp    %eax,%r13d
    891b:	0f 93 c0             	setae  %al
    891e:	0f b6 c0             	movzbl %al,%eax
    8921:	41 39 c4             	cmp    %eax,%r12d
    8924:	0f 9e c0             	setle  %al
    8927:	0f b6 c0             	movzbl %al,%eax
    892a:	89 85 c4 f8 ff ff    	mov    %eax,-0x73c(%rbp)
    8930:	eb 01                	jmp    8933 <func_9+0x1739>
    8932:	90                   	nop
    8933:	0f b7 85 ee e4 ff ff 	movzwl -0x1b12(%rbp),%eax
    893a:	83 c0 01             	add    $0x1,%eax
    893d:	66 89 85 ee e4 ff ff 	mov    %ax,-0x1b12(%rbp)
    8944:	0f b7 85 ee e4 ff ff 	movzwl -0x1b12(%rbp),%eax
    894b:	66 83 f8 03          	cmp    $0x3,%ax
    894f:	0f 86 61 fe ff ff    	jbe    87b6 <func_9+0x15bc>
    8955:	8b 05 65 0e 01 00    	mov    0x10e65(%rip),%eax        # 197c0 <g_812>
    895b:	83 c0 01             	add    $0x1,%eax
    895e:	89 05 5c 0e 01 00    	mov    %eax,0x10e5c(%rip)        # 197c0 <g_812>
    8964:	8b 05 56 0e 01 00    	mov    0x10e56(%rip),%eax        # 197c0 <g_812>
    896a:	83 f8 2a             	cmp    $0x2a,%eax
    896d:	0f 85 9b fa ff ff    	jne    840e <func_9+0x1214>
    8973:	8b 05 3f ea 00 00    	mov    0xea3f(%rip),%eax        # 173b8 <g_1225>
    8979:	0f b6 c0             	movzbl %al,%eax
    897c:	be 03 00 00 00       	mov    $0x3,%esi
    8981:	89 c7                	mov    %eax,%edi
    8983:	e8 d2 d1 ff ff       	callq  5b5a <safe_add_func_uint8_t_u_u>
    8988:	0f b6 c0             	movzbl %al,%eax
    898b:	89 05 27 ea 00 00    	mov    %eax,0xea27(%rip)        # 173b8 <g_1225>
    8991:	8b 05 21 ea 00 00    	mov    0xea21(%rip),%eax        # 173b8 <g_1225>
    8997:	83 f8 03             	cmp    $0x3,%eax
    899a:	0f 85 78 f9 ff ff    	jne    8318 <func_9+0x111e>
    89a0:	eb 49                	jmp    89eb <func_9+0x17f1>
    89a2:	c7 85 18 e5 ff ff 00 	movl   $0x0,-0x1ae8(%rbp)
    89a9:	00 00 00 
    89ac:	eb 19                	jmp    89c7 <func_9+0x17cd>
    89ae:	8b 85 18 e5 ff ff    	mov    -0x1ae8(%rbp),%eax
    89b4:	48 98                	cltq   
    89b6:	66 c7 84 45 40 f8 ff 	movw   $0x24b0,-0x7c0(%rbp,%rax,2)
    89bd:	ff b0 24 
    89c0:	83 85 18 e5 ff ff 01 	addl   $0x1,-0x1ae8(%rbp)
    89c7:	83 bd 18 e5 ff ff 06 	cmpl   $0x6,-0x1ae8(%rbp)
    89ce:	7e de                	jle    89ae <func_9+0x17b4>
    89d0:	0f b7 85 40 f8 ff ff 	movzwl -0x7c0(%rbp),%eax
    89d7:	83 e8 01             	sub    $0x1,%eax
    89da:	66 89 85 40 f8 ff ff 	mov    %ax,-0x7c0(%rbp)
    89e1:	c7 85 98 e5 ff ff 25 	movl   $0x6a570525,-0x1a68(%rbp)
    89e8:	05 57 6a 
    89eb:	0f b7 95 e8 e4 ff ff 	movzwl -0x1b18(%rbp),%edx
    89f2:	48 8b 05 df fe 00 00 	mov    0xfedf(%rip),%rax        # 188d8 <g_2807>
    89f9:	89 d6                	mov    %edx,%esi
    89fb:	48 89 c7             	mov    %rax,%rdi
    89fe:	e8 11 22 00 00       	callq  ac14 <func_23>
    8a03:	48 89 85 d8 e4 ff ff 	mov    %rax,-0x1b28(%rbp)
    8a0a:	48 8b 85 d8 e4 ff ff 	mov    -0x1b28(%rbp),%rax
    8a11:	48 89 85 d0 e5 ff ff 	mov    %rax,-0x1a30(%rbp)
    8a18:	48 8b 05 51 e7 00 00 	mov    0xe751(%rip),%rax        # 17170 <g_585>
    8a1f:	be 05 00 00 00       	mov    $0x5,%esi
    8a24:	89 c7                	mov    %eax,%edi
    8a26:	e8 da cb ff ff       	callq  5605 <safe_sub_func_int32_t_s_s>
    8a2b:	48 98                	cltq   
    8a2d:	48 89 05 3c e7 00 00 	mov    %rax,0xe73c(%rip)        # 17170 <g_585>
    8a34:	48 8b 05 35 e7 00 00 	mov    0xe735(%rip),%rax        # 17170 <g_585>
    8a3b:	48 83 f8 eb          	cmp    $0xffffffffffffffeb,%rax
    8a3f:	0f 85 81 f1 ff ff    	jne    7bc6 <func_9+0x9cc>
    8a45:	66 83 ad 00 e5 ff ff 	subw   $0x1,-0x1b00(%rbp)
    8a4c:	01 
    8a4d:	48 8b 85 e0 e4 ff ff 	mov    -0x1b20(%rbp),%rax
    8a54:	89 c2                	mov    %eax,%edx
    8a56:	48 8b 85 d8 e4 ff ff 	mov    -0x1b28(%rbp),%rax
    8a5d:	89 d6                	mov    %edx,%esi
    8a5f:	48 89 c7             	mov    %rax,%rdi
    8a62:	e8 ad 21 00 00       	callq  ac14 <func_23>
    8a67:	48 89 85 d8 e4 ff ff 	mov    %rax,-0x1b28(%rbp)
    8a6e:	48 8b 85 f8 e5 ff ff 	mov    -0x1a08(%rbp),%rax
    8a75:	48 8b 10             	mov    (%rax),%rdx
    8a78:	0f b6 85 ee e4 ff ff 	movzbl -0x1b12(%rbp),%eax
    8a7f:	0f b6 c0             	movzbl %al,%eax
    8a82:	48 31 c2             	xor    %rax,%rdx
    8a85:	48 8b 85 f8 e5 ff ff 	mov    -0x1a08(%rbp),%rax
    8a8c:	48 89 10             	mov    %rdx,(%rax)
    8a8f:	48 8b 85 f8 e5 ff ff 	mov    -0x1a08(%rbp),%rax
    8a96:	48 8b 10             	mov    (%rax),%rdx
    8a99:	48 8b 05 28 fd 00 00 	mov    0xfd28(%rip),%rax        # 187c8 <g_1563>
    8aa0:	48 8b 00             	mov    (%rax),%rax
    8aa3:	48 8b 00             	mov    (%rax),%rax
    8aa6:	48 8b 00             	mov    (%rax),%rax
    8aa9:	48 8b 00             	mov    (%rax),%rax
    8aac:	48 89 d6             	mov    %rdx,%rsi
    8aaf:	48 89 c7             	mov    %rax,%rdi
    8ab2:	e8 8a cd ff ff       	callq  5841 <safe_add_func_int64_t_s_s>
    8ab7:	48 85 c0             	test   %rax,%rax
    8aba:	74 10                	je     8acc <func_9+0x18d2>
    8abc:	48 c7 85 d8 e4 ff ff 	movq   $0x0,-0x1b28(%rbp)
    8ac3:	00 00 00 00 
    8ac7:	e9 30 0a 00 00       	jmpq   94fc <func_9+0x2302>
    8acc:	c7 85 30 e5 ff ff 00 	movl   $0x0,-0x1ad0(%rbp)
    8ad3:	00 00 00 
    8ad6:	c6 85 fb e4 ff ff 09 	movb   $0x9,-0x1b05(%rbp)
    8add:	c7 85 1c e5 ff ff 29 	movl   $0xf6011429,-0x1ae4(%rbp)
    8ae4:	14 01 f6 
    8ae7:	c7 85 34 e5 ff ff d0 	movl   $0x235d4bd0,-0x1acc(%rbp)
    8aee:	4b 5d 23 
    8af1:	c7 85 38 e5 ff ff fe 	movl   $0xfffffffe,-0x1ac8(%rbp)
    8af8:	ff ff ff 
    8afb:	c7 85 50 e7 ff ff 6b 	movl   $0xc93a156b,-0x18b0(%rbp)
    8b02:	15 3a c9 
    8b05:	c7 85 54 e7 ff ff ff 	movl   $0xffffffff,-0x18ac(%rbp)
    8b0c:	ff ff ff 
    8b0f:	c7 85 58 e7 ff ff ff 	movl   $0xffffffff,-0x18a8(%rbp)
    8b16:	ff ff ff 
    8b19:	c7 85 5c e7 ff ff 6b 	movl   $0xc93a156b,-0x18a4(%rbp)
    8b20:	15 3a c9 
    8b23:	c7 85 60 e7 ff ff ff 	movl   $0xffffffff,-0x18a0(%rbp)
    8b2a:	ff ff ff 
    8b2d:	c7 85 64 e7 ff ff ff 	movl   $0xffffffff,-0x189c(%rbp)
    8b34:	ff ff ff 
    8b37:	c7 85 68 e7 ff ff 6b 	movl   $0xc93a156b,-0x1898(%rbp)
    8b3e:	15 3a c9 
    8b41:	c7 85 6c e7 ff ff ff 	movl   $0xffffffff,-0x1894(%rbp)
    8b48:	ff ff ff 
    8b4b:	c7 85 70 e7 ff ff ff 	movl   $0xffffffff,-0x1890(%rbp)
    8b52:	ff ff ff 
    8b55:	48 8d 05 c4 ed 00 00 	lea    0xedc4(%rip),%rax        # 17920 <g_2983>
    8b5c:	48 89 85 a8 e5 ff ff 	mov    %rax,-0x1a58(%rbp)
    8b63:	48 8d 85 a8 e5 ff ff 	lea    -0x1a58(%rbp),%rax
    8b6a:	48 89 85 10 e6 ff ff 	mov    %rax,-0x19f0(%rbp)
    8b71:	48 8d 85 40 f8 ff ff 	lea    -0x7c0(%rbp),%rax
    8b78:	48 8d 15 e1 ef 00 00 	lea    0xefe1(%rip),%rdx        # 17b60 <g_3415+0x20c>
    8b7f:	b9 8c 00 00 00       	mov    $0x8c,%ecx
    8b84:	48 89 c7             	mov    %rax,%rdi
    8b87:	48 89 d6             	mov    %rdx,%rsi
    8b8a:	f3 48 a5             	rep movsq %ds:(%rsi),%es:(%rdi)
    8b8d:	66 c7 85 fe e4 ff ff 	movw   $0x0,-0x1b02(%rbp)
    8b94:	00 00 
    8b96:	c6 85 fe e4 ff ff ff 	movb   $0xff,-0x1b02(%rbp)
    8b9d:	c6 85 c8 e6 ff ff 01 	movb   $0x1,-0x1938(%rbp)
    8ba4:	c7 85 cc e6 ff ff 00 	movl   $0x0,-0x1934(%rbp)
    8bab:	00 00 00 
    8bae:	c7 85 20 e5 ff ff 00 	movl   $0x0,-0x1ae0(%rbp)
    8bb5:	00 00 00 
    8bb8:	eb 1a                	jmp    8bd4 <func_9+0x19da>
    8bba:	8b 85 20 e5 ff ff    	mov    -0x1ae0(%rbp),%eax
    8bc0:	48 98                	cltq   
    8bc2:	c7 84 85 dc e6 ff ff 	movl   $0x5be5b670,-0x1924(%rbp,%rax,4)
    8bc9:	70 b6 e5 5b 
    8bcd:	83 85 20 e5 ff ff 01 	addl   $0x1,-0x1ae0(%rbp)
    8bd4:	83 bd 20 e5 ff ff 01 	cmpl   $0x1,-0x1ae0(%rbp)
    8bdb:	7e dd                	jle    8bba <func_9+0x19c0>
    8bdd:	c7 85 20 e5 ff ff 00 	movl   $0x0,-0x1ae0(%rbp)
    8be4:	00 00 00 
    8be7:	eb 1e                	jmp    8c07 <func_9+0x1a0d>
    8be9:	8b 85 20 e5 ff ff    	mov    -0x1ae0(%rbp),%eax
    8bef:	48 98                	cltq   
    8bf1:	48 8d 15 b0 fb 00 00 	lea    0xfbb0(%rip),%rdx        # 187a8 <g_1498>
    8bf8:	48 89 94 c5 00 e7 ff 	mov    %rdx,-0x1900(%rbp,%rax,8)
    8bff:	ff 
    8c00:	83 85 20 e5 ff ff 01 	addl   $0x1,-0x1ae0(%rbp)
    8c07:	83 bd 20 e5 ff ff 03 	cmpl   $0x3,-0x1ae0(%rbp)
    8c0e:	7e d9                	jle    8be9 <func_9+0x19ef>
    8c10:	0f b6 9d fb e4 ff ff 	movzbl -0x1b05(%rbp),%ebx
    8c17:	48 8b 85 a0 e5 ff ff 	mov    -0x1a60(%rbp),%rax
    8c1e:	48 85 c0             	test   %rax,%rax
    8c21:	41 0f 95 c6          	setne  %r14b
    8c25:	44 8b ad dc e6 ff ff 	mov    -0x1924(%rbp),%r13d
    8c2c:	48 8b 85 40 f3 ff ff 	mov    -0xcc0(%rbp),%rax
    8c33:	44 0f be e0          	movsbl %al,%r12d
    8c37:	48 8b 05 9a fb 00 00 	mov    0xfb9a(%rip),%rax        # 187d8 <g_1579>
    8c3e:	48 8b 00             	mov    (%rax),%rax
    8c41:	48 8b 00             	mov    (%rax),%rax
    8c44:	48 8b 00             	mov    (%rax),%rax
    8c47:	48 89 c2             	mov    %rax,%rdx
    8c4a:	0f b6 85 ee e4 ff ff 	movzbl -0x1b12(%rbp),%eax
    8c51:	0f b6 c0             	movzbl %al,%eax
    8c54:	48 89 d6             	mov    %rdx,%rsi
    8c57:	48 89 c7             	mov    %rax,%rdi
    8c5a:	e8 49 cc ff ff       	callq  58a8 <safe_sub_func_int64_t_s_s>
    8c5f:	0f be c0             	movsbl %al,%eax
    8c62:	44 89 e6             	mov    %r12d,%esi
    8c65:	89 c7                	mov    %eax,%edi
    8c67:	e8 fe c5 ff ff       	callq  526a <safe_div_func_int8_t_s_s>
    8c6c:	0f be c0             	movsbl %al,%eax
    8c6f:	89 c6                	mov    %eax,%esi
    8c71:	bf d8 68 00 00       	mov    $0x68d8,%edi
    8c76:	e8 8b d1 ff ff       	callq  5e06 <safe_lshift_func_uint16_t_u_u>
    8c7b:	0f b7 c0             	movzwl %ax,%eax
    8c7e:	39 85 30 e5 ff ff    	cmp    %eax,-0x1ad0(%rbp)
    8c84:	0f 95 c0             	setne  %al
    8c87:	0f b6 c0             	movzbl %al,%eax
    8c8a:	41 39 c5             	cmp    %eax,%r13d
    8c8d:	0f 95 c0             	setne  %al
    8c90:	44 09 f0             	or     %r14d,%eax
    8c93:	84 c0                	test   %al,%al
    8c95:	74 10                	je     8ca7 <func_9+0x1aad>
    8c97:	80 bd ec e4 ff ff 00 	cmpb   $0x0,-0x1b14(%rbp)
    8c9e:	74 07                	je     8ca7 <func_9+0x1aad>
    8ca0:	b8 01 00 00 00       	mov    $0x1,%eax
    8ca5:	eb 05                	jmp    8cac <func_9+0x1ab2>
    8ca7:	b8 00 00 00 00       	mov    $0x0,%eax
    8cac:	44 0f b6 e0          	movzbl %al,%r12d
    8cb0:	0f b6 85 ee e4 ff ff 	movzbl -0x1b12(%rbp),%eax
    8cb7:	0f b6 c0             	movzbl %al,%eax
    8cba:	be 01 00 00 00       	mov    $0x1,%esi
    8cbf:	89 c7                	mov    %eax,%edi
    8cc1:	e8 39 d0 ff ff       	callq  5cff <safe_add_func_uint16_t_u_u>
    8cc6:	0f b6 c0             	movzbl %al,%eax
    8cc9:	44 89 e6             	mov    %r12d,%esi
    8ccc:	89 c7                	mov    %eax,%edi
    8cce:	e8 87 ce ff ff       	callq  5b5a <safe_add_func_uint8_t_u_u>
    8cd3:	0f b6 d0             	movzbl %al,%edx
    8cd6:	0f b7 85 e8 e4 ff ff 	movzwl -0x1b18(%rbp),%eax
    8cdd:	21 d0                	and    %edx,%eax
    8cdf:	89 c2                	mov    %eax,%edx
    8ce1:	0f b6 05 c8 e6 00 00 	movzbl 0xe6c8(%rip),%eax        # 173b0 <g_981+0x8>
    8ce8:	88 05 c2 e6 00 00    	mov    %al,0xe6c2(%rip)        # 173b0 <g_981+0x8>
    8cee:	0f b6 05 bb e6 00 00 	movzbl 0xe6bb(%rip),%eax        # 173b0 <g_981+0x8>
    8cf5:	0f b6 c0             	movzbl %al,%eax
    8cf8:	89 d6                	mov    %edx,%esi
    8cfa:	89 c7                	mov    %eax,%edi
    8cfc:	e8 4b cf ff ff       	callq  5c4c <safe_lshift_func_uint8_t_u_u>
    8d01:	0f b6 d0             	movzbl %al,%edx
    8d04:	48 8b 05 45 f9 00 00 	mov    0xf945(%rip),%rax        # 18650 <g_942>
    8d0b:	48 8b 00             	mov    (%rax),%rax
    8d0e:	48 8b 00             	mov    (%rax),%rax
    8d11:	48 39 c2             	cmp    %rax,%rdx
    8d14:	0f 93 c0             	setae  %al
    8d17:	0f b6 c0             	movzbl %al,%eax
    8d1a:	89 de                	mov    %ebx,%esi
    8d1c:	89 c7                	mov    %eax,%edi
    8d1e:	e8 e2 ce ff ff       	callq  5c05 <safe_lshift_func_uint8_t_u_s>
    8d23:	84 c0                	test   %al,%al
    8d25:	75 0e                	jne    8d35 <func_9+0x1b3b>
    8d27:	8b 85 dc e6 ff ff    	mov    -0x1924(%rbp),%eax
    8d2d:	85 c0                	test   %eax,%eax
    8d2f:	0f 84 c0 02 00 00    	je     8ff5 <func_9+0x1dfb>
    8d35:	48 c7 85 18 e6 ff ff 	movq   $0x0,-0x19e8(%rbp)
    8d3c:	00 00 00 00 
    8d40:	48 8b 85 18 e6 ff ff 	mov    -0x19e8(%rbp),%rax
    8d47:	48 89 85 d8 e4 ff ff 	mov    %rax,-0x1b28(%rbp)
    8d4e:	48 8b 85 e0 e4 ff ff 	mov    -0x1b20(%rbp),%rax
    8d55:	31 85 1c e5 ff ff    	xor    %eax,-0x1ae4(%rbp)
    8d5b:	c7 05 6b eb 00 00 00 	movl   $0x0,0xeb6b(%rip)        # 178d0 <g_2250>
    8d62:	00 00 00 
    8d65:	e9 48 02 00 00       	jmpq   8fb2 <func_9+0x1db8>
    8d6a:	c6 85 d0 e6 ff ff 00 	movb   $0x0,-0x1930(%rbp)
    8d71:	c7 85 d4 e6 ff ff 09 	movl   $0x9,-0x192c(%rbp)
    8d78:	00 00 00 
    8d7b:	48 8d 85 90 e5 ff ff 	lea    -0x1a70(%rbp),%rax
    8d82:	48 89 85 20 e6 ff ff 	mov    %rax,-0x19e0(%rbp)
    8d89:	c7 85 3c e5 ff ff da 	movl   $0xb7ed56da,-0x1ac4(%rbp)
    8d90:	56 ed b7 
    8d93:	66 c7 85 02 e5 ff ff 	movw   $0xbf33,-0x1afe(%rbp)
    8d9a:	33 bf 
    8d9c:	c7 85 40 e5 ff ff 21 	movl   $0x98cb5821,-0x1ac0(%rbp)
    8da3:	58 cb 98 
    8da6:	c6 85 98 e5 ff ff ed 	movb   $0xed,-0x1a68(%rbp)
    8dad:	e9 d6 01 00 00       	jmpq   8f88 <func_9+0x1d8e>
    8db2:	48 8d 85 e0 eb ff ff 	lea    -0x1420(%rbp),%rax
    8db9:	48 8d 15 00 f2 00 00 	lea    0xf200(%rip),%rdx        # 17fc0 <g_3415+0x66c>
    8dc0:	b9 32 00 00 00       	mov    $0x32,%ecx
    8dc5:	48 89 c7             	mov    %rax,%rdi
    8dc8:	48 89 d6             	mov    %rdx,%rsi
    8dcb:	f3 48 a5             	rep movsq %ds:(%rsi),%es:(%rdi)
    8dce:	c7 85 44 e5 ff ff 01 	movl   $0x1,-0x1abc(%rbp)
    8dd5:	00 00 00 
    8dd8:	c7 85 48 e5 ff ff 08 	movl   $0x8,-0x1ab8(%rbp)
    8ddf:	00 00 00 
    8de2:	0f b7 85 e8 e4 ff ff 	movzwl -0x1b18(%rbp),%eax
    8de9:	83 c0 01             	add    $0x1,%eax
    8dec:	66 89 85 e8 e4 ff ff 	mov    %ax,-0x1b18(%rbp)
    8df3:	c7 85 1c e5 ff ff 01 	movl   $0x1,-0x1ae4(%rbp)
    8dfa:	00 00 00 
    8dfd:	b8 01 00 00 00       	mov    $0x1,%eax
    8e02:	3b 85 44 e5 ff ff    	cmp    -0x1abc(%rbp),%eax
    8e08:	0f 9e c2             	setle  %dl
    8e0b:	48 8b 05 c6 fa 00 00 	mov    0xfac6(%rip),%rax        # 188d8 <g_2807>
    8e12:	0f b6 d2             	movzbl %dl,%edx
    8e15:	89 10                	mov    %edx,(%rax)
    8e17:	8b 00                	mov    (%rax),%eax
    8e19:	21 85 48 e5 ff ff    	and    %eax,-0x1ab8(%rbp)
    8e1f:	48 8b 05 3a f8 00 00 	mov    0xf83a(%rip),%rax        # 18660 <g_1145>
    8e26:	0f b7 00             	movzwl (%rax),%eax
    8e29:	0f bf d8             	movswl %ax,%ebx
    8e2c:	48 8b 05 c5 f7 00 00 	mov    0xf7c5(%rip),%rax        # 185f8 <g_613>
    8e33:	0f b7 00             	movzwl (%rax),%eax
    8e36:	44 0f b7 e0          	movzwl %ax,%r12d
    8e3a:	8b 05 e4 e1 00 00    	mov    0xe1e4(%rip),%eax        # 17024 <g_2>
    8e40:	41 89 c6             	mov    %eax,%r14d
    8e43:	83 bd 30 e5 ff ff 00 	cmpl   $0x0,-0x1ad0(%rbp)
    8e4a:	0f 84 8b 00 00 00    	je     8edb <func_9+0x1ce1>
    8e50:	48 8b 85 e0 e4 ff ff 	mov    -0x1b20(%rbp),%rax
    8e57:	44 0f be e8          	movsbl %al,%r13d
    8e5b:	be 05 00 00 00       	mov    $0x5,%esi
    8e60:	bf fe 00 00 00       	mov    $0xfe,%edi
    8e65:	e8 e2 cd ff ff       	callq  5c4c <safe_lshift_func_uint8_t_u_u>
    8e6a:	8b 95 dc e6 ff ff    	mov    -0x1924(%rbp),%edx
    8e70:	8b 8d ec e6 ff ff    	mov    -0x1914(%rbp),%ecx
    8e76:	48 8b 05 7b f7 00 00 	mov    0xf77b(%rip),%rax        # 185f8 <g_613>
    8e7d:	0f b7 00             	movzwl (%rax),%eax
    8e80:	98                   	cwtl   
    8e81:	39 c1                	cmp    %eax,%ecx
    8e83:	0f 95 c0             	setne  %al
    8e86:	0f b6 c0             	movzbl %al,%eax
    8e89:	39 c2                	cmp    %eax,%edx
    8e8b:	0f 9c c0             	setl   %al
    8e8e:	0f b6 c0             	movzbl %al,%eax
    8e91:	48 c7 c6 ff ff ff ff 	mov    $0xffffffffffffffff,%rsi
    8e98:	48 89 c7             	mov    %rax,%rdi
    8e9b:	e8 14 cb ff ff       	callq  59b4 <safe_mod_func_int64_t_s_s>
    8ea0:	48 f7 d0             	not    %rax
    8ea3:	48 89 c2             	mov    %rax,%rdx
    8ea6:	8b 85 44 e5 ff ff    	mov    -0x1abc(%rbp),%eax
    8eac:	48 98                	cltq   
    8eae:	48 39 c2             	cmp    %rax,%rdx
    8eb1:	0f 95 c0             	setne  %al
    8eb4:	0f b6 c0             	movzbl %al,%eax
    8eb7:	44 89 ee             	mov    %r13d,%esi
    8eba:	89 c7                	mov    %eax,%edi
    8ebc:	e8 51 c3 ff ff       	callq  5212 <safe_mul_func_int8_t_s_s>
    8ec1:	3c 75                	cmp    $0x75,%al
    8ec3:	0f 9f c0             	setg   %al
    8ec6:	0f b6 d0             	movzbl %al,%edx
    8ec9:	0f b6 85 ec e4 ff ff 	movzbl -0x1b14(%rbp),%eax
    8ed0:	39 c2                	cmp    %eax,%edx
    8ed2:	74 07                	je     8edb <func_9+0x1ce1>
    8ed4:	b8 01 00 00 00       	mov    $0x1,%eax
    8ed9:	eb 05                	jmp    8ee0 <func_9+0x1ce6>
    8edb:	b8 00 00 00 00       	mov    $0x0,%eax
    8ee0:	3d c0 fa 00 00       	cmp    $0xfac0,%eax
    8ee5:	7e 07                	jle    8eee <func_9+0x1cf4>
    8ee7:	b8 50 00 00 00       	mov    $0x50,%eax
    8eec:	eb 05                	jmp    8ef3 <func_9+0x1cf9>
    8eee:	b8 51 00 00 00       	mov    $0x51,%eax
    8ef3:	be fc 00 00 00       	mov    $0xfc,%esi
    8ef8:	89 c7                	mov    %eax,%edi
    8efa:	e8 79 cc ff ff       	callq  5b78 <safe_sub_func_uint8_t_u_u>
    8eff:	0f b6 c0             	movzbl %al,%eax
    8f02:	44 89 f6             	mov    %r14d,%esi
    8f05:	89 c7                	mov    %eax,%edi
    8f07:	e8 40 cd ff ff       	callq  5c4c <safe_lshift_func_uint8_t_u_u>
    8f0c:	48 8b 85 e0 e4 ff ff 	mov    -0x1b20(%rbp),%rax
    8f13:	48 83 f0 01          	xor    $0x1,%rax
    8f17:	48 89 c2             	mov    %rax,%rdx
    8f1a:	0f b7 85 e8 e4 ff ff 	movzwl -0x1b18(%rbp),%eax
    8f21:	48 21 d0             	and    %rdx,%rax
    8f24:	48 3d 11 c7 00 00    	cmp    $0xc711,%rax
    8f2a:	7e 07                	jle    8f33 <func_9+0x1d39>
    8f2c:	b8 01 00 00 00       	mov    $0x1,%eax
    8f31:	eb 05                	jmp    8f38 <func_9+0x1d3e>
    8f33:	b8 00 00 00 00       	mov    $0x0,%eax
    8f38:	0f b7 c0             	movzwl %ax,%eax
    8f3b:	44 89 e6             	mov    %r12d,%esi
    8f3e:	89 c7                	mov    %eax,%edi
    8f40:	e8 f8 cd ff ff       	callq  5d3d <safe_mul_func_uint16_t_u_u>
    8f45:	48 8d 15 4c e4 00 00 	lea    0xe44c(%rip),%rdx        # 17398 <g_936>
    8f4c:	0f b7 c0             	movzwl %ax,%eax
    8f4f:	48 89 02             	mov    %rax,(%rdx)
    8f52:	89 de                	mov    %ebx,%esi
    8f54:	bf 00 00 00 00       	mov    $0x0,%edi
    8f59:	e8 60 ce ff ff       	callq  5dbe <safe_lshift_func_uint16_t_u_s>
    8f5e:	89 c2                	mov    %eax,%edx
    8f60:	48 8b 05 71 f9 00 00 	mov    0xf971(%rip),%rax        # 188d8 <g_2807>
    8f67:	0f b7 d2             	movzwl %dx,%edx
    8f6a:	89 10                	mov    %edx,(%rax)
    8f6c:	0f b6 85 98 e5 ff ff 	movzbl -0x1a68(%rbp),%eax
    8f73:	0f b6 c0             	movzbl %al,%eax
    8f76:	be 02 00 00 00       	mov    $0x2,%esi
    8f7b:	89 c7                	mov    %eax,%edi
    8f7d:	e8 36 cf ff ff       	callq  5eb8 <safe_add_func_uint32_t_u_u>
    8f82:	88 85 98 e5 ff ff    	mov    %al,-0x1a68(%rbp)
    8f88:	0f b6 85 98 e5 ff ff 	movzbl -0x1a68(%rbp),%eax
    8f8f:	3c 23                	cmp    $0x23,%al
    8f91:	0f 87 1b fe ff ff    	ja     8db2 <func_9+0x1bb8>
    8f97:	8b 05 33 e9 00 00    	mov    0xe933(%rip),%eax        # 178d0 <g_2250>
    8f9d:	48 98                	cltq   
    8f9f:	be 05 00 00 00       	mov    $0x5,%esi
    8fa4:	48 89 c7             	mov    %rax,%rdi
    8fa7:	e8 9f d0 ff ff       	callq  604b <safe_sub_func_uint64_t_u_u>
    8fac:	89 05 1e e9 00 00    	mov    %eax,0xe91e(%rip)        # 178d0 <g_2250>
    8fb2:	8b 05 18 e9 00 00    	mov    0xe918(%rip),%eax        # 178d0 <g_2250>
    8fb8:	83 f8 f2             	cmp    $0xfffffff2,%eax
    8fbb:	0f 8d a9 fd ff ff    	jge    8d6a <func_9+0x1b70>
    8fc1:	48 8b 85 e0 e4 ff ff 	mov    -0x1b20(%rbp),%rax
    8fc8:	89 c2                	mov    %eax,%edx
    8fca:	48 8b 85 d8 e4 ff ff 	mov    -0x1b28(%rbp),%rax
    8fd1:	89 d6                	mov    %edx,%esi
    8fd3:	48 89 c7             	mov    %rax,%rdi
    8fd6:	e8 39 1c 00 00       	callq  ac14 <func_23>
    8fdb:	48 89 85 d8 e4 ff ff 	mov    %rax,-0x1b28(%rbp)
    8fe2:	48 8b 05 97 f9 00 00 	mov    0xf997(%rip),%rax        # 18980 <g_2910>
    8fe9:	48 8b 95 d8 e4 ff ff 	mov    -0x1b28(%rbp),%rdx
    8ff0:	48 89 10             	mov    %rdx,(%rax)
    8ff3:	eb 21                	jmp    9016 <func_9+0x1e1c>
    8ff5:	c7 05 c1 07 01 00 00 	movl   $0x0,0x107c1(%rip)        # 197c0 <g_812>
    8ffc:	00 00 00 
    8fff:	90                   	nop
    9000:	8b 05 ba 07 01 00    	mov    0x107ba(%rip),%eax        # 197c0 <g_812>
    9006:	85 c0                	test   %eax,%eax
    9008:	75 0c                	jne    9016 <func_9+0x1e1c>
    900a:	48 8b 85 d8 e4 ff ff 	mov    -0x1b28(%rbp),%rax
    9011:	e9 ed 04 00 00       	jmpq   9503 <func_9+0x2309>
    9016:	8b 85 c4 e6 ff ff    	mov    -0x193c(%rbp),%eax
    901c:	85 c0                	test   %eax,%eax
    901e:	90                   	nop
    901f:	f3 0f 1e fa          	endbr64 
    9023:	48 8b 05 06 f6 00 00 	mov    0xf606(%rip),%rax        # 18630 <g_707>
    902a:	48 8b 05 2f f5 00 00 	mov    0xf52f(%rip),%rax        # 18560 <g_242>
    9031:	48 8b 00             	mov    (%rax),%rax
    9034:	0f b7 00             	movzwl (%rax),%eax
    9037:	0f bf d8             	movswl %ax,%ebx
    903a:	48 8b 05 d7 e8 00 00 	mov    0xe8d7(%rip),%rax        # 17918 <g_2921>
    9041:	48 8b 85 10 e7 ff ff 	mov    -0x18f0(%rbp),%rax
    9048:	48 8d 15 31 f7 00 00 	lea    0xf731(%rip),%rdx        # 18780 <g_1291>
    904f:	48 39 d0             	cmp    %rdx,%rax
    9052:	0f 95 c0             	setne  %al
    9055:	44 0f b6 e0          	movzbl %al,%r12d
    9059:	be 9f 21 00 00       	mov    $0x219f,%esi
    905e:	bf 01 00 00 00       	mov    $0x1,%edi
    9063:	e8 26 cd ff ff       	callq  5d8e <safe_div_func_uint16_t_u_u>
    9068:	66 85 c0             	test   %ax,%ax
    906b:	74 19                	je     9086 <func_9+0x1e8c>
    906d:	48 8b 05 ec f4 00 00 	mov    0xf4ec(%rip),%rax        # 18560 <g_242>
    9074:	48 8b 00             	mov    (%rax),%rax
    9077:	0f b7 00             	movzwl (%rax),%eax
    907a:	66 85 c0             	test   %ax,%ax
    907d:	74 07                	je     9086 <func_9+0x1e8c>
    907f:	b8 01 00 00 00       	mov    $0x1,%eax
    9084:	eb 05                	jmp    908b <func_9+0x1e91>
    9086:	b8 00 00 00 00       	mov    $0x0,%eax
    908b:	83 f8 06             	cmp    $0x6,%eax
    908e:	0f 9e c0             	setle  %al
    9091:	0f b6 c0             	movzbl %al,%eax
    9094:	41 39 c4             	cmp    %eax,%r12d
    9097:	0f 9d c0             	setge  %al
    909a:	0f b6 c0             	movzbl %al,%eax
    909d:	89 de                	mov    %ebx,%esi
    909f:	89 c7                	mov    %eax,%edi
    90a1:	e8 2d c3 ff ff       	callq  53d3 <safe_sub_func_int16_t_s_s>
    90a6:	0f be c0             	movsbl %al,%eax
    90a9:	be 06 00 00 00       	mov    $0x6,%esi
    90ae:	89 c7                	mov    %eax,%edi
    90b0:	e8 1f c1 ff ff       	callq  51d4 <safe_add_func_int8_t_s_s>
    90b5:	0f b6 85 ee e4 ff ff 	movzbl -0x1b12(%rbp),%eax
    90bc:	0f b6 d0             	movzbl %al,%edx
    90bf:	0f b6 85 ee e4 ff ff 	movzbl -0x1b12(%rbp),%eax
    90c6:	0f b6 c0             	movzbl %al,%eax
    90c9:	89 d6                	mov    %edx,%esi
    90cb:	89 c7                	mov    %eax,%edi
    90cd:	e8 91 c4 ff ff       	callq  5563 <safe_rshift_func_int16_t_s_u>
    90d2:	66 3d e9 56          	cmp    $0x56e9,%ax
    90d6:	0f 95 c0             	setne  %al
    90d9:	0f b6 c0             	movzbl %al,%eax
    90dc:	39 85 34 e5 ff ff    	cmp    %eax,-0x1acc(%rbp)
    90e2:	7c 0d                	jl     90f1 <func_9+0x1ef7>
    90e4:	48 8b 05 75 f5 00 00 	mov    0xf575(%rip),%rax        # 18660 <g_1145>
    90eb:	0f b7 00             	movzwl (%rax),%eax
    90ee:	66 85 c0             	test   %ax,%ax
    90f1:	48 8d 05 80 df 00 00 	lea    0xdf80(%rip),%rax        # 17078 <g_92>
    90f8:	48 89 85 28 e6 ff ff 	mov    %rax,-0x19d8(%rbp)
    90ff:	c6 85 fc e4 ff ff f6 	movb   $0xf6,-0x1b04(%rbp)
    9106:	48 8d 05 e7 06 01 00 	lea    0x106e7(%rip),%rax        # 197f4 <g_2198>
    910d:	48 89 85 b0 e5 ff ff 	mov    %rax,-0x1a50(%rbp)
    9114:	48 8d 85 b0 e5 ff ff 	lea    -0x1a50(%rbp),%rax
    911b:	48 89 85 30 e6 ff ff 	mov    %rax,-0x19d0(%rbp)
    9122:	c6 85 e0 eb ff ff fd 	movb   $0xfd,-0x1420(%rbp)
    9129:	c7 85 e4 eb ff ff 01 	movl   $0x1,-0x141c(%rbp)
    9130:	00 00 00 
    9133:	c6 85 e8 eb ff ff fa 	movb   $0xfa,-0x1418(%rbp)
    913a:	c7 85 ec eb ff ff 01 	movl   $0x1,-0x1414(%rbp)
    9141:	00 00 00 
    9144:	c6 85 f0 eb ff ff fd 	movb   $0xfd,-0x1410(%rbp)
    914b:	c7 85 f4 eb ff ff 01 	movl   $0x1,-0x140c(%rbp)
    9152:	00 00 00 
    9155:	c6 85 f8 eb ff ff fd 	movb   $0xfd,-0x1408(%rbp)
    915c:	c7 85 fc eb ff ff 01 	movl   $0x1,-0x1404(%rbp)
    9163:	00 00 00 
    9166:	c6 85 00 ec ff ff fa 	movb   $0xfa,-0x1400(%rbp)
    916d:	c7 85 04 ec ff ff 01 	movl   $0x1,-0x13fc(%rbp)
    9174:	00 00 00 
    9177:	c6 85 08 ec ff ff fd 	movb   $0xfd,-0x13f8(%rbp)
    917e:	c7 85 0c ec ff ff 01 	movl   $0x1,-0x13f4(%rbp)
    9185:	00 00 00 
    9188:	c6 85 10 ec ff ff fd 	movb   $0xfd,-0x13f0(%rbp)
    918f:	c7 85 14 ec ff ff 01 	movl   $0x1,-0x13ec(%rbp)
    9196:	00 00 00 
    9199:	c6 85 18 ec ff ff fa 	movb   $0xfa,-0x13e8(%rbp)
    91a0:	c7 85 1c ec ff ff 01 	movl   $0x1,-0x13e4(%rbp)
    91a7:	00 00 00 
    91aa:	c6 85 20 ec ff ff fd 	movb   $0xfd,-0x13e0(%rbp)
    91b1:	c7 85 24 ec ff ff 01 	movl   $0x1,-0x13dc(%rbp)
    91b8:	00 00 00 
    91bb:	48 c7 85 b8 e5 ff ff 	movq   $0x0,-0x1a48(%rbp)
    91c2:	00 00 00 00 
    91c6:	48 8d 85 b8 e5 ff ff 	lea    -0x1a48(%rbp),%rax
    91cd:	48 89 85 c0 e5 ff ff 	mov    %rax,-0x1a40(%rbp)
    91d4:	48 8d 85 c0 e5 ff ff 	lea    -0x1a40(%rbp),%rax
    91db:	48 89 85 c8 e5 ff ff 	mov    %rax,-0x1a38(%rbp)
    91e2:	48 8d 85 c8 e5 ff ff 	lea    -0x1a38(%rbp),%rax
    91e9:	48 89 85 10 e9 ff ff 	mov    %rax,-0x16f0(%rbp)
    91f0:	48 8d 85 c8 e5 ff ff 	lea    -0x1a38(%rbp),%rax
    91f7:	48 89 85 18 e9 ff ff 	mov    %rax,-0x16e8(%rbp)
    91fe:	48 8d 85 c8 e5 ff ff 	lea    -0x1a38(%rbp),%rax
    9205:	48 89 85 20 e9 ff ff 	mov    %rax,-0x16e0(%rbp)
    920c:	48 8d 85 c8 e5 ff ff 	lea    -0x1a38(%rbp),%rax
    9213:	48 89 85 28 e9 ff ff 	mov    %rax,-0x16d8(%rbp)
    921a:	48 8d 85 c8 e5 ff ff 	lea    -0x1a38(%rbp),%rax
    9221:	48 89 85 30 e9 ff ff 	mov    %rax,-0x16d0(%rbp)
    9228:	48 8d 85 c8 e5 ff ff 	lea    -0x1a38(%rbp),%rax
    922f:	48 89 85 38 e9 ff ff 	mov    %rax,-0x16c8(%rbp)
    9236:	48 8d 85 c8 e5 ff ff 	lea    -0x1a38(%rbp),%rax
    923d:	48 89 85 40 e9 ff ff 	mov    %rax,-0x16c0(%rbp)
    9244:	48 8d 85 c8 e5 ff ff 	lea    -0x1a38(%rbp),%rax
    924b:	48 89 85 48 e9 ff ff 	mov    %rax,-0x16b8(%rbp)
    9252:	48 c7 85 f2 e6 ff ff 	movq   $0x0,-0x190e(%rbp)
    9259:	00 00 00 00 
    925d:	c7 85 fa e6 ff ff 00 	movl   $0x0,-0x1906(%rbp)
    9264:	00 00 00 
    9267:	66 c7 85 fe e6 ff ff 	movw   $0x0,-0x1902(%rbp)
    926e:	00 00 
    9270:	c6 85 f2 e6 ff ff f8 	movb   $0xf8,-0x190e(%rbp)
    9277:	c6 85 f4 e6 ff ff f8 	movb   $0xf8,-0x190c(%rbp)
    927e:	c6 85 f6 e6 ff ff f8 	movb   $0xf8,-0x190a(%rbp)
    9285:	c6 85 f8 e6 ff ff f8 	movb   $0xf8,-0x1908(%rbp)
    928c:	c6 85 fa e6 ff ff f8 	movb   $0xf8,-0x1906(%rbp)
    9293:	c6 85 fc e6 ff ff f8 	movb   $0xf8,-0x1904(%rbp)
    929a:	c6 85 fe e6 ff ff f8 	movb   $0xf8,-0x1902(%rbp)
    92a1:	c6 85 d0 e6 ff ff dc 	movb   $0xdc,-0x1930(%rbp)
    92a8:	c7 85 d4 e6 ff ff 00 	movl   $0x0,-0x192c(%rbp)
    92af:	00 00 00 
    92b2:	48 c7 85 38 e6 ff ff 	movq   $0x0,-0x19c8(%rbp)
    92b9:	00 00 00 00 
    92bd:	c7 85 4c e5 ff ff 08 	movl   $0x8,-0x1ab4(%rbp)
    92c4:	00 00 00 
    92c7:	c7 85 70 e8 ff ff 01 	movl   $0x1,-0x1790(%rbp)
    92ce:	00 00 00 
    92d1:	c7 85 74 e8 ff ff 01 	movl   $0x1,-0x178c(%rbp)
    92d8:	00 00 00 
    92db:	c7 85 78 e8 ff ff 01 	movl   $0x1,-0x1788(%rbp)
    92e2:	00 00 00 
    92e5:	c7 85 7c e8 ff ff 01 	movl   $0x1,-0x1784(%rbp)
    92ec:	00 00 00 
    92ef:	c7 85 80 e8 ff ff 01 	movl   $0x1,-0x1780(%rbp)
    92f6:	00 00 00 
    92f9:	c7 85 84 e8 ff ff 01 	movl   $0x1,-0x177c(%rbp)
    9300:	00 00 00 
    9303:	c7 85 88 e8 ff ff 01 	movl   $0x1,-0x1778(%rbp)
    930a:	00 00 00 
    930d:	c7 85 8c e8 ff ff 01 	movl   $0x1,-0x1774(%rbp)
    9314:	00 00 00 
    9317:	c7 85 90 e8 ff ff 01 	movl   $0x1,-0x1770(%rbp)
    931e:	00 00 00 
    9321:	48 8d 05 90 f6 00 00 	lea    0xf690(%rip),%rax        # 189b8 <g_3022+0x18>
    9328:	48 89 85 40 e6 ff ff 	mov    %rax,-0x19c0(%rbp)
    932f:	48 8d 05 ea 04 01 00 	lea    0x104ea(%rip),%rax        # 19820 <g_3109>
    9336:	48 89 85 48 e6 ff ff 	mov    %rax,-0x19b8(%rbp)
    933d:	48 8b 05 4c f4 00 00 	mov    0xf44c(%rip),%rax        # 18790 <g_1433>
    9344:	0f b6 00             	movzbl (%rax),%eax
    9347:	0f be d8             	movsbl %al,%ebx
    934a:	44 0f b6 a5 fc e4 ff 	movzbl -0x1b04(%rbp),%r12d
    9351:	ff 
    9352:	48 8b 85 28 e6 ff ff 	mov    -0x19d8(%rbp),%rax
    9359:	66 c7 00 fe ff       	movw   $0xfffe,(%rax)
    935e:	8b 85 68 e7 ff ff    	mov    -0x1898(%rbp),%eax
    9364:	85 c0                	test   %eax,%eax
    9366:	75 6f                	jne    93d7 <func_9+0x21dd>
    9368:	48 8b 85 e0 e4 ff ff 	mov    -0x1b20(%rbp),%rax
    936f:	44 0f b7 e8          	movzwl %ax,%r13d
    9373:	44 0f b7 b5 e8 e4 ff 	movzwl -0x1b18(%rbp),%r14d
    937a:	ff 
    937b:	8b 85 50 e7 ff ff    	mov    -0x18b0(%rbp),%eax
    9381:	0f be c0             	movsbl %al,%eax
    9384:	be 06 00 00 00       	mov    $0x6,%esi
    9389:	89 c7                	mov    %eax,%edi
    938b:	e8 5e bf ff ff       	callq  52ee <safe_lshift_func_int8_t_s_u>
    9390:	0f be d0             	movsbl %al,%edx
    9393:	48 8b 05 5e f2 00 00 	mov    0xf25e(%rip),%rax        # 185f8 <g_613>
    939a:	0f b7 00             	movzwl (%rax),%eax
    939d:	98                   	cwtl   
    939e:	21 d0                	and    %edx,%eax
    93a0:	48 98                	cltq   
    93a2:	4c 89 f6             	mov    %r14,%rsi
    93a5:	48 89 c7             	mov    %rax,%rdi
    93a8:	e8 81 cc ff ff       	callq  602e <safe_add_func_uint64_t_u_u>
    93ad:	48 8b 85 e0 e4 ff ff 	mov    -0x1b20(%rbp),%rax
    93b4:	0f b7 c0             	movzwl %ax,%eax
    93b7:	44 89 ee             	mov    %r13d,%esi
    93ba:	89 c7                	mov    %eax,%edi
    93bc:	e8 5e c9 ff ff       	callq  5d1f <safe_sub_func_uint16_t_u_u>
    93c1:	83 c8 a7             	or     $0xffffffa7,%eax
    93c4:	0f be c0             	movsbl %al,%eax
    93c7:	be 04 00 00 00       	mov    $0x4,%esi
    93cc:	89 c7                	mov    %eax,%edi
    93ce:	e8 62 bf ff ff       	callq  5335 <safe_rshift_func_int8_t_s_s>
    93d3:	84 c0                	test   %al,%al
    93d5:	74 07                	je     93de <func_9+0x21e4>
    93d7:	b8 01 00 00 00       	mov    $0x1,%eax
    93dc:	eb 05                	jmp    93e3 <func_9+0x21e9>
    93de:	b8 00 00 00 00       	mov    $0x0,%eax
    93e3:	83 f8 69             	cmp    $0x69,%eax
    93e6:	0f 95 c0             	setne  %al
    93e9:	0f b6 c0             	movzbl %al,%eax
    93ec:	be 05 00 00 00       	mov    $0x5,%esi
    93f1:	89 c7                	mov    %eax,%edi
    93f3:	e8 c6 c9 ff ff       	callq  5dbe <safe_lshift_func_uint16_t_u_s>
    93f8:	0f b7 c0             	movzwl %ax,%eax
    93fb:	f7 d0                	not    %eax
    93fd:	89 c2                	mov    %eax,%edx
    93ff:	0f b7 85 e8 e4 ff ff 	movzwl -0x1b18(%rbp),%eax
    9406:	39 c2                	cmp    %eax,%edx
    9408:	0f 9f c0             	setg   %al
    940b:	44 0f b6 e8          	movzbl %al,%r13d
    940f:	8b 85 dc e6 ff ff    	mov    -0x1924(%rbp),%eax
    9415:	89 85 38 e5 ff ff    	mov    %eax,-0x1ac8(%rbp)
    941b:	8b 95 38 e5 ff ff    	mov    -0x1ac8(%rbp),%edx
    9421:	8b 85 1c e5 ff ff    	mov    -0x1ae4(%rbp),%eax
    9427:	89 d6                	mov    %edx,%esi
    9429:	89 c7                	mov    %eax,%edi
    942b:	e8 f5 ca ff ff       	callq  5f25 <safe_div_func_uint32_t_u_u>
    9430:	0f be c0             	movsbl %al,%eax
    9433:	be 04 00 00 00       	mov    $0x4,%esi
    9438:	89 c7                	mov    %eax,%edi
    943a:	e8 2d bf ff ff       	callq  536c <safe_rshift_func_int8_t_s_u>
    943f:	0f be d0             	movsbl %al,%edx
    9442:	48 8b 05 17 f4 00 00 	mov    0xf417(%rip),%rax        # 18860 <g_2295>
    9449:	48 8b 00             	mov    (%rax),%rax
    944c:	48 85 c0             	test   %rax,%rax
    944f:	0f 95 c0             	setne  %al
    9452:	0f b6 c0             	movzbl %al,%eax
    9455:	39 c2                	cmp    %eax,%edx
    9457:	0f 95 c0             	setne  %al
    945a:	0f b6 c0             	movzbl %al,%eax
    945d:	be 06 00 00 00       	mov    $0x6,%esi
    9462:	89 c7                	mov    %eax,%edi
    9464:	e8 9d c9 ff ff       	callq  5e06 <safe_lshift_func_uint16_t_u_u>
    9469:	44 89 ee             	mov    %r13d,%esi
    946c:	bf 01 00 00 00       	mov    $0x1,%edi
    9471:	e8 5d bf ff ff       	callq  53d3 <safe_sub_func_int16_t_s_s>
    9476:	66 85 c0             	test   %ax,%ax
    9479:	75 09                	jne    9484 <func_9+0x228a>
    947b:	83 bd 38 e5 ff ff 00 	cmpl   $0x0,-0x1ac8(%rbp)
    9482:	74 07                	je     948b <func_9+0x2291>
    9484:	ba 01 00 00 00       	mov    $0x1,%edx
    9489:	eb 05                	jmp    9490 <func_9+0x2296>
    948b:	ba 00 00 00 00       	mov    $0x0,%edx
    9490:	48 8b 05 01 f3 00 00 	mov    0xf301(%rip),%rax        # 18798 <g_1432>
    9497:	48 8b 00             	mov    (%rax),%rax
    949a:	0f b6 00             	movzbl (%rax),%eax
    949d:	0f be c0             	movsbl %al,%eax
    94a0:	39 c2                	cmp    %eax,%edx
    94a2:	0f 9d c0             	setge  %al
    94a5:	0f b6 c0             	movzbl %al,%eax
    94a8:	44 89 e6             	mov    %r12d,%esi
    94ab:	89 c7                	mov    %eax,%edi
    94ad:	e8 3c be ff ff       	callq  52ee <safe_lshift_func_int8_t_s_u>
    94b2:	48 0f be c0          	movsbq %al,%rax
    94b6:	48 c7 c6 ff ff ff ff 	mov    $0xffffffffffffffff,%rsi
    94bd:	48 89 c7             	mov    %rax,%rdi
    94c0:	e8 bb cb ff ff       	callq  6080 <safe_mod_func_uint64_t_u_u>
    94c5:	0f be c0             	movsbl %al,%eax
    94c8:	89 de                	mov    %ebx,%esi
    94ca:	89 c7                	mov    %eax,%edi
    94cc:	e8 21 bd ff ff       	callq  51f2 <safe_sub_func_int8_t_s_s>
    94d1:	0f be c0             	movsbl %al,%eax
    94d4:	89 85 6c e7 ff ff    	mov    %eax,-0x1894(%rbp)
    94da:	48 8b 05 e7 f3 00 00 	mov    0xf3e7(%rip),%rax        # 188c8 <g_2550>
    94e1:	48 8b 00             	mov    (%rax),%rax
    94e4:	48 89 85 c8 e6 ff ff 	mov    %rax,-0x1938(%rbp)
    94eb:	48 8b 05 d6 f3 00 00 	mov    0xf3d6(%rip),%rax        # 188c8 <g_2550>
    94f2:	48 8b 95 c8 e6 ff ff 	mov    -0x1938(%rbp),%rdx
    94f9:	48 89 10             	mov    %rdx,(%rax)
    94fc:	48 8b 85 d8 e4 ff ff 	mov    -0x1b28(%rbp),%rax
    9503:	48 8b 5d c8          	mov    -0x38(%rbp),%rbx
    9507:	64 48 33 1c 25 28 00 	xor    %fs:0x28,%rbx
    950e:	00 00 
    9510:	74 05                	je     9517 <func_9+0x231d>
    9512:	e8 59 bb ff ff       	callq  5070 <__stack_chk_fail@plt>
    9517:	48 81 c4 18 1b 00 00 	add    $0x1b18,%rsp
    951e:	5b                   	pop    %rbx
    951f:	41 5c                	pop    %r12
    9521:	41 5d                	pop    %r13
    9523:	41 5e                	pop    %r14
    9525:	41 5f                	pop    %r15
    9527:	5d                   	pop    %rbp
    9528:	c3                   	retq   

0000000000009529 <func_17>:
    9529:	f3 0f 1e fa          	endbr64 
    952d:	55                   	push   %rbp
    952e:	48 89 e5             	mov    %rsp,%rbp
    9531:	41 57                	push   %r15
    9533:	41 56                	push   %r14
    9535:	41 55                	push   %r13
    9537:	41 54                	push   %r12
    9539:	53                   	push   %rbx
    953a:	48 81 ec 78 04 00 00 	sub    $0x478,%rsp
    9541:	89 bd 6c fb ff ff    	mov    %edi,-0x494(%rbp)
    9547:	64 48 8b 04 25 28 00 	mov    %fs:0x28,%rax
    954e:	00 00 
    9550:	48 89 45 c8          	mov    %rax,-0x38(%rbp)
    9554:	31 c0                	xor    %eax,%eax
    9556:	48 8d 05 63 ed 00 00 	lea    0xed63(%rip),%rax        # 182c0 <g_77+0x160>
    955d:	48 89 85 10 fd ff ff 	mov    %rax,-0x2f0(%rbp)
    9564:	48 8d 05 55 ed 00 00 	lea    0xed55(%rip),%rax        # 182c0 <g_77+0x160>
    956b:	48 89 85 18 fd ff ff 	mov    %rax,-0x2e8(%rbp)
    9572:	48 8d 05 47 ed 00 00 	lea    0xed47(%rip),%rax        # 182c0 <g_77+0x160>
    9579:	48 89 85 20 fd ff ff 	mov    %rax,-0x2e0(%rbp)
    9580:	48 8d 05 39 ed 00 00 	lea    0xed39(%rip),%rax        # 182c0 <g_77+0x160>
    9587:	48 89 85 28 fd ff ff 	mov    %rax,-0x2d8(%rbp)
    958e:	48 8d 05 2b ed 00 00 	lea    0xed2b(%rip),%rax        # 182c0 <g_77+0x160>
    9595:	48 89 85 30 fd ff ff 	mov    %rax,-0x2d0(%rbp)
    959c:	48 8d 05 1d ed 00 00 	lea    0xed1d(%rip),%rax        # 182c0 <g_77+0x160>
    95a3:	48 89 85 38 fd ff ff 	mov    %rax,-0x2c8(%rbp)
    95aa:	48 8d 05 0f ed 00 00 	lea    0xed0f(%rip),%rax        # 182c0 <g_77+0x160>
    95b1:	48 89 85 40 fd ff ff 	mov    %rax,-0x2c0(%rbp)
    95b8:	48 8d 05 01 ed 00 00 	lea    0xed01(%rip),%rax        # 182c0 <g_77+0x160>
    95bf:	48 89 85 48 fd ff ff 	mov    %rax,-0x2b8(%rbp)
    95c6:	48 8d 05 ab eb 00 00 	lea    0xebab(%rip),%rax        # 18178 <g_77+0x18>
    95cd:	48 89 85 f8 fb ff ff 	mov    %rax,-0x408(%rbp)
    95d4:	48 b8 98 18 39 9e ff 	movabs $0x16705eff9e391898,%rax
    95db:	5e 70 16 
    95de:	48 89 85 f0 fb ff ff 	mov    %rax,-0x410(%rbp)
    95e5:	c6 85 70 fb ff ff b8 	movb   $0xb8,-0x490(%rbp)
    95ec:	48 8d 05 8d da 00 00 	lea    0xda8d(%rip),%rax        # 17080 <g_136>
    95f3:	48 89 85 00 fc ff ff 	mov    %rax,-0x400(%rbp)
    95fa:	48 8b 15 9f ef 00 00 	mov    0xef9f(%rip),%rdx        # 185a0 <g_319>
    9601:	48 8b 05 98 ef 00 00 	mov    0xef98(%rip),%rax        # 185a0 <g_319>
    9608:	48 8b 12             	mov    (%rdx),%rdx
    960b:	48 89 10             	mov    %rdx,(%rax)
    960e:	48 8b 85 f0 fb ff ff 	mov    -0x410(%rbp),%rax
    9615:	89 c2                	mov    %eax,%edx
    9617:	8b 85 6c fb ff ff    	mov    -0x494(%rbp),%eax
    961d:	31 d0                	xor    %edx,%eax
    961f:	89 85 6c fb ff ff    	mov    %eax,-0x494(%rbp)
    9625:	c7 85 6c fb ff ff 00 	movl   $0x0,-0x494(%rbp)
    962c:	00 00 00 
    962f:	e9 4f 0e 00 00       	jmpq   a483 <func_17+0xf5a>
    9634:	c6 85 72 fb ff ff 72 	movb   $0x72,-0x48e(%rbp)
    963b:	c6 85 73 fb ff ff 9e 	movb   $0x9e,-0x48d(%rbp)
    9642:	48 c7 85 74 fc ff ff 	movq   $0x0,-0x38c(%rbp)
    9649:	00 00 00 00 
    964d:	c7 85 7c fc ff ff 00 	movl   $0x0,-0x384(%rbp)
    9654:	00 00 00 
    9657:	c6 85 74 fc ff ff 29 	movb   $0x29,-0x38c(%rbp)
    965e:	c6 85 78 fc ff ff 29 	movb   $0x29,-0x388(%rbp)
    9665:	c6 85 7c fc ff ff 29 	movb   $0x29,-0x384(%rbp)
    966c:	c7 85 7c fb ff ff ff 	movl   $0xffffffff,-0x484(%rbp)
    9673:	ff ff ff 
    9676:	48 c7 85 08 fc ff ff 	movq   $0x3,-0x3f8(%rbp)
    967d:	03 00 00 00 
    9681:	48 8d 05 c8 ef 00 00 	lea    0xefc8(%rip),%rax        # 18650 <g_942>
    9688:	48 89 85 d8 fb ff ff 	mov    %rax,-0x428(%rbp)
    968f:	48 8d 85 d8 fb ff ff 	lea    -0x428(%rbp),%rax
    9696:	48 89 85 10 fc ff ff 	mov    %rax,-0x3f0(%rbp)
    969d:	c7 85 90 fb ff ff 00 	movl   $0x0,-0x470(%rbp)
    96a4:	00 00 00 
    96a7:	c7 85 94 fb ff ff 00 	movl   $0x0,-0x46c(%rbp)
    96ae:	00 00 00 
    96b1:	c7 85 80 fc ff ff 89 	movl   $0xd8728389,-0x380(%rbp)
    96b8:	83 72 d8 
    96bb:	c7 85 84 fc ff ff ba 	movl   $0x885125ba,-0x37c(%rbp)
    96c2:	25 51 88 
    96c5:	c7 85 88 fc ff ff ba 	movl   $0x885125ba,-0x378(%rbp)
    96cc:	25 51 88 
    96cf:	c7 85 8c fc ff ff 89 	movl   $0xd8728389,-0x374(%rbp)
    96d6:	83 72 d8 
    96d9:	c7 85 90 fc ff ff 5b 	movl   $0x3798f15b,-0x370(%rbp)
    96e0:	f1 98 37 
    96e3:	c7 85 94 fc ff ff 89 	movl   $0xd8728389,-0x36c(%rbp)
    96ea:	83 72 d8 
    96ed:	c7 85 98 fc ff ff ba 	movl   $0x885125ba,-0x368(%rbp)
    96f4:	25 51 88 
    96f7:	c7 85 9c fc ff ff ba 	movl   $0x885125ba,-0x364(%rbp)
    96fe:	25 51 88 
    9701:	c7 85 a0 fc ff ff 89 	movl   $0xd8728389,-0x360(%rbp)
    9708:	83 72 d8 
    970b:	c7 85 a4 fc ff ff 5b 	movl   $0x3798f15b,-0x35c(%rbp)
    9712:	f1 98 37 
    9715:	c7 85 98 fb ff ff 01 	movl   $0x1,-0x468(%rbp)
    971c:	00 00 00 
    971f:	c7 85 9c fb ff ff 48 	movl   $0x3dadab48,-0x464(%rbp)
    9726:	ab ad 3d 
    9729:	c7 85 a0 fb ff ff 01 	movl   $0x1,-0x460(%rbp)
    9730:	00 00 00 
    9733:	c7 85 a4 fb ff ff 44 	movl   $0xa6bb1044,-0x45c(%rbp)
    973a:	10 bb a6 
    973d:	48 8d 85 30 fe ff ff 	lea    -0x1d0(%rbp),%rax
    9744:	48 8d 15 75 a0 00 00 	lea    0xa075(%rip),%rdx        # 137c0 <g_3098+0x1320>
    974b:	b9 32 00 00 00       	mov    $0x32,%ecx
    9750:	48 89 c7             	mov    %rax,%rdi
    9753:	48 89 d6             	mov    %rdx,%rsi
    9756:	f3 48 a5             	rep movsq %ds:(%rsi),%es:(%rdi)
    9759:	c6 85 71 fb ff ff f7 	movb   $0xf7,-0x48f(%rbp)
    9760:	c7 05 1e e1 00 00 00 	movl   $0x0,0xe11e(%rip)        # 17888 <g_2196>
    9767:	00 00 00 
    976a:	e9 64 02 00 00       	jmpq   99d3 <func_17+0x4aa>
    976f:	c7 85 c8 fb ff ff ff 	movl   $0xffffffff,-0x438(%rbp)
    9776:	ff ff ff 
    9779:	c7 85 cc fb ff ff 01 	movl   $0x1,-0x434(%rbp)
    9780:	00 00 00 
    9783:	c7 05 df d9 00 00 ea 	movl   $0xffffffea,0xd9df(%rip)        # 1716c <g_405>
    978a:	ff ff ff 
    978d:	e9 17 02 00 00       	jmpq   99a9 <func_17+0x480>
    9792:	48 8d 05 df d8 00 00 	lea    0xd8df(%rip),%rax        # 17078 <g_92>
    9799:	48 89 85 50 fc ff ff 	mov    %rax,-0x3b0(%rbp)
    97a0:	c7 85 d0 fb ff ff 24 	movl   $0x77180e24,-0x430(%rbp)
    97a7:	0e 18 77 
    97aa:	48 8d 05 c1 d8 00 00 	lea    0xd8c1(%rip),%rax        # 17072 <g_84+0x12>
    97b1:	48 89 85 58 fc ff ff 	mov    %rax,-0x3a8(%rbp)
    97b8:	48 8d 05 f3 db 00 00 	lea    0xdbf3(%rip),%rax        # 173b2 <g_1173>
    97bf:	48 89 85 60 fc ff ff 	mov    %rax,-0x3a0(%rbp)
    97c6:	c7 85 d4 fb ff ff 65 	movl   $0x41fa365,-0x42c(%rbp)
    97cd:	a3 1f 04 
    97d0:	48 8b 05 91 ed 00 00 	mov    0xed91(%rip),%rax        # 18568 <g_298>
    97d7:	0f b6 00             	movzbl (%rax),%eax
    97da:	0f b6 d8             	movzbl %al,%ebx
    97dd:	8b 85 c8 fb ff ff    	mov    -0x438(%rbp),%eax
    97e3:	f7 d0                	not    %eax
    97e5:	89 c2                	mov    %eax,%edx
    97e7:	48 8b 85 50 fc ff ff 	mov    -0x3b0(%rbp),%rax
    97ee:	66 89 10             	mov    %dx,(%rax)
    97f1:	8b 85 6c fb ff ff    	mov    -0x494(%rbp),%eax
    97f7:	41 89 c4             	mov    %eax,%r12d
    97fa:	8b 95 6c fb ff ff    	mov    -0x494(%rbp),%edx
    9800:	8b 85 6c fb ff ff    	mov    -0x494(%rbp),%eax
    9806:	89 d6                	mov    %edx,%esi
    9808:	89 c7                	mov    %eax,%edi
    980a:	e8 f0 be ff ff       	callq  56ff <safe_div_func_int32_t_s_s>
    980f:	89 c2                	mov    %eax,%edx
    9811:	8b 85 6c fb ff ff    	mov    -0x494(%rbp),%eax
    9817:	21 d0                	and    %edx,%eax
    9819:	0f b7 c0             	movzwl %ax,%eax
    981c:	be 0e 00 00 00       	mov    $0xe,%esi
    9821:	89 c7                	mov    %eax,%edi
    9823:	e8 52 c6 ff ff       	callq  5e7a <safe_rshift_func_uint16_t_u_u>
    9828:	48 8b 95 58 fc ff ff 	mov    -0x3a8(%rbp),%rdx
    982f:	66 89 02             	mov    %ax,(%rdx)
    9832:	48 8b 85 58 fc ff ff 	mov    -0x3a8(%rbp),%rax
    9839:	0f b7 00             	movzwl (%rax),%eax
    983c:	0f b7 d0             	movzwl %ax,%edx
    983f:	8b 85 6c fb ff ff    	mov    -0x494(%rbp),%eax
    9845:	39 c2                	cmp    %eax,%edx
    9847:	0f 9c c0             	setl   %al
    984a:	0f b6 c0             	movzbl %al,%eax
    984d:	44 89 e6             	mov    %r12d,%esi
    9850:	89 c7                	mov    %eax,%edi
    9852:	e8 f5 c3 ff ff       	callq  5c4c <safe_lshift_func_uint8_t_u_u>
    9857:	84 c0                	test   %al,%al
    9859:	74 22                	je     987d <func_17+0x354>
    985b:	48 8b 05 ee ed 00 00 	mov    0xedee(%rip),%rax        # 18650 <g_942>
    9862:	48 8b 00             	mov    (%rax),%rax
    9865:	48 8b 00             	mov    (%rax),%rax
    9868:	48 85 c0             	test   %rax,%rax
    986b:	74 10                	je     987d <func_17+0x354>
    986d:	48 8b 05 44 ef 00 00 	mov    0xef44(%rip),%rax        # 187b8 <g_1565>
    9874:	48 8b 00             	mov    (%rax),%rax
    9877:	48 8b 00             	mov    (%rax),%rax
    987a:	48 85 c0             	test   %rax,%rax
    987d:	48 8b 05 74 ed 00 00 	mov    0xed74(%rip),%rax        # 185f8 <g_613>
    9884:	0f b7 08             	movzwl (%rax),%ecx
    9887:	66 0f be 95 72 fb ff 	movsbw -0x48e(%rbp),%dx
    988e:	ff 
    988f:	48 8b 05 62 ed 00 00 	mov    0xed62(%rip),%rax        # 185f8 <g_613>
    9896:	21 ca                	and    %ecx,%edx
    9898:	66 89 10             	mov    %dx,(%rax)
    989b:	0f b7 00             	movzwl (%rax),%eax
    989e:	98                   	cwtl   
    989f:	39 85 c8 fb ff ff    	cmp    %eax,-0x438(%rbp)
    98a5:	0f 95 c0             	setne  %al
    98a8:	0f b6 d0             	movzbl %al,%edx
    98ab:	48 8b 05 e6 ee 00 00 	mov    0xeee6(%rip),%rax        # 18798 <g_1432>
    98b2:	48 8b 00             	mov    (%rax),%rax
    98b5:	0f b6 00             	movzbl (%rax),%eax
    98b8:	0f be c0             	movsbl %al,%eax
    98bb:	89 d6                	mov    %edx,%esi
    98bd:	89 c7                	mov    %eax,%edi
    98bf:	e8 10 b9 ff ff       	callq  51d4 <safe_add_func_int8_t_s_s>
    98c4:	0f b6 c0             	movzbl %al,%eax
    98c7:	be 00 00 00 00       	mov    $0x0,%esi
    98cc:	89 c7                	mov    %eax,%edi
    98ce:	e8 ba c3 ff ff       	callq  5c8d <safe_rshift_func_uint8_t_u_s>
    98d3:	3c 01                	cmp    $0x1,%al
    98d5:	0f 95 c0             	setne  %al
    98d8:	0f b6 d0             	movzbl %al,%edx
    98db:	48 8b 85 60 fc ff ff 	mov    -0x3a0(%rbp),%rax
    98e2:	66 89 10             	mov    %dx,(%rax)
    98e5:	0f b6 85 70 fb ff ff 	movzbl -0x490(%rbp),%eax
    98ec:	0f b6 c0             	movzbl %al,%eax
    98ef:	89 de                	mov    %ebx,%esi
    98f1:	89 c7                	mov    %eax,%edi
    98f3:	e8 54 c3 ff ff       	callq  5c4c <safe_lshift_func_uint8_t_u_u>
    98f8:	0f b6 c0             	movzbl %al,%eax
    98fb:	be 04 00 00 00       	mov    $0x4,%esi
    9900:	89 c7                	mov    %eax,%edi
    9902:	e8 da bb ff ff       	callq  54e1 <safe_lshift_func_int16_t_s_u>
    9907:	0f be c0             	movsbl %al,%eax
    990a:	be 03 00 00 00       	mov    $0x3,%esi
    990f:	89 c7                	mov    %eax,%edi
    9911:	e8 d8 b9 ff ff       	callq  52ee <safe_lshift_func_int8_t_s_u>
    9916:	b8 05 00 00 00       	mov    $0x5,%eax
    991b:	31 85 d4 fb ff ff    	xor    %eax,-0x42c(%rbp)
    9921:	48 8b 05 78 ee 00 00 	mov    0xee78(%rip),%rax        # 187a0 <g_1431>
    9928:	48 8b 00             	mov    (%rax),%rax
    992b:	48 8b 00             	mov    (%rax),%rax
    992e:	0f b6 00             	movzbl (%rax),%eax
    9931:	0f be d8             	movsbl %al,%ebx
    9934:	8b 85 6c fb ff ff    	mov    -0x494(%rbp),%eax
    993a:	48 98                	cltq   
    993c:	48 89 c6             	mov    %rax,%rsi
    993f:	bf 01 00 00 00       	mov    $0x1,%edi
    9944:	e8 ae c0 ff ff       	callq  59f7 <safe_div_func_int64_t_s_s>
    9949:	48 85 c0             	test   %rax,%rax
    994c:	0f b6 95 73 fb ff ff 	movzbl -0x48d(%rbp),%edx
    9953:	8b 85 6c fb ff ff    	mov    -0x494(%rbp),%eax
    9959:	39 c2                	cmp    %eax,%edx
    995b:	0f 9d c0             	setge  %al
    995e:	0f b6 c0             	movzbl %al,%eax
    9961:	89 de                	mov    %ebx,%esi
    9963:	89 c7                	mov    %eax,%edi
    9965:	e8 a8 b8 ff ff       	callq  5212 <safe_mul_func_int8_t_s_s>
    996a:	b8 01 00 00 00       	mov    $0x1,%eax
    996f:	83 f8 01             	cmp    $0x1,%eax
    9972:	0f 9f c0             	setg   %al
    9975:	0f b6 c0             	movzbl %al,%eax
    9978:	89 c6                	mov    %eax,%esi
    997a:	bf 00 00 00 00       	mov    $0x0,%edi
    997f:	e8 d6 c1 ff ff       	callq  5b5a <safe_add_func_uint8_t_u_u>
    9984:	c7 85 cc fb ff ff 90 	movl   $0x2bccbc90,-0x434(%rbp)
    998b:	bc cc 2b 
    998e:	8b 85 6c fb ff ff    	mov    -0x494(%rbp),%eax
    9994:	21 85 cc fb ff ff    	and    %eax,-0x434(%rbp)
    999a:	8b 05 cc d7 00 00    	mov    0xd7cc(%rip),%eax        # 1716c <g_405>
    99a0:	83 c0 01             	add    $0x1,%eax
    99a3:	89 05 c3 d7 00 00    	mov    %eax,0xd7c3(%rip)        # 1716c <g_405>
    99a9:	8b 05 bd d7 00 00    	mov    0xd7bd(%rip),%eax        # 1716c <g_405>
    99af:	83 f8 01             	cmp    $0x1,%eax
    99b2:	0f 85 da fd ff ff    	jne    9792 <func_17+0x269>
    99b8:	8b 05 ca de 00 00    	mov    0xdeca(%rip),%eax        # 17888 <g_2196>
    99be:	89 c0                	mov    %eax,%eax
    99c0:	be 09 00 00 00       	mov    $0x9,%esi
    99c5:	48 89 c7             	mov    %rax,%rdi
    99c8:	e8 74 be ff ff       	callq  5841 <safe_add_func_int64_t_s_s>
    99cd:	89 05 b5 de 00 00    	mov    %eax,0xdeb5(%rip)        # 17888 <g_2196>
    99d3:	8b 05 af de 00 00    	mov    0xdeaf(%rip),%eax        # 17888 <g_2196>
    99d9:	83 f8 37             	cmp    $0x37,%eax
    99dc:	0f 87 8d fd ff ff    	ja     976f <func_17+0x246>
    99e2:	c7 05 d4 d9 00 00 00 	movl   $0x0,0xd9d4(%rip)        # 173c0 <g_1281>
    99e9:	00 00 00 
    99ec:	e9 bc 09 00 00       	jmpq   a3ad <func_17+0xe84>
    99f1:	c7 85 b8 fb ff ff 06 	movl   $0x6,-0x448(%rbp)
    99f8:	00 00 00 
    99fb:	c7 85 bc fb ff ff 08 	movl   $0x8,-0x444(%rbp)
    9a02:	00 00 00 
    9a05:	48 8d 05 66 d6 00 00 	lea    0xd666(%rip),%rax        # 17072 <g_84+0x12>
    9a0c:	48 89 85 18 fc ff ff 	mov    %rax,-0x3e8(%rbp)
    9a13:	48 c7 85 e0 fb ff ff 	movq   $0x0,-0x420(%rbp)
    9a1a:	00 00 00 00 
    9a1e:	48 8d 05 d3 eb 00 00 	lea    0xebd3(%rip),%rax        # 185f8 <g_613>
    9a25:	48 89 85 20 fc ff ff 	mov    %rax,-0x3e0(%rbp)
    9a2c:	c7 85 78 fb ff ff 00 	movl   $0x0,-0x488(%rbp)
    9a33:	00 00 00 
    9a36:	48 8d 05 83 ed 00 00 	lea    0xed83(%rip),%rax        # 187c0 <g_1564>
    9a3d:	48 89 85 e8 fb ff ff 	mov    %rax,-0x418(%rbp)
    9a44:	48 8d 85 d8 fb ff ff 	lea    -0x428(%rbp),%rax
    9a4b:	48 89 85 28 fc ff ff 	mov    %rax,-0x3d8(%rbp)
    9a52:	c7 85 80 fb ff ff 00 	movl   $0x0,-0x480(%rbp)
    9a59:	00 00 00 
    9a5c:	eb 1e                	jmp    9a7c <func_17+0x553>
    9a5e:	8b 85 80 fb ff ff    	mov    -0x480(%rbp),%eax
    9a64:	48 98                	cltq   
    9a66:	48 8d 95 e0 fb ff ff 	lea    -0x420(%rbp),%rdx
    9a6d:	48 89 94 c5 b0 fc ff 	mov    %rdx,-0x350(%rbp,%rax,8)
    9a74:	ff 
    9a75:	83 85 80 fb ff ff 01 	addl   $0x1,-0x480(%rbp)
    9a7c:	83 bd 80 fb ff ff 05 	cmpl   $0x5,-0x480(%rbp)
    9a83:	7e d9                	jle    9a5e <func_17+0x535>
    9a85:	8b 85 bc fb ff ff    	mov    -0x444(%rbp),%eax
    9a8b:	89 c2                	mov    %eax,%edx
    9a8d:	48 8b 85 18 fc ff ff 	mov    -0x3e8(%rbp),%rax
    9a94:	66 89 10             	mov    %dx,(%rax)
    9a97:	48 8b 85 18 fc ff ff 	mov    -0x3e8(%rbp),%rax
    9a9e:	0f b7 00             	movzwl (%rax),%eax
    9aa1:	0f bf d0             	movswl %ax,%edx
    9aa4:	8b 85 b8 fb ff ff    	mov    -0x448(%rbp),%eax
    9aaa:	98                   	cwtl   
    9aab:	89 d6                	mov    %edx,%esi
    9aad:	89 c7                	mov    %eax,%edi
    9aaf:	e8 62 b9 ff ff       	callq  5416 <safe_mod_func_int16_t_s_s>
    9ab4:	66 85 c0             	test   %ax,%ax
    9ab7:	0f 85 b7 00 00 00    	jne    9b74 <func_17+0x64b>
    9abd:	8b 9d 6c fb ff ff    	mov    -0x494(%rbp),%ebx
    9ac3:	48 8b 05 7e eb 00 00 	mov    0xeb7e(%rip),%rax        # 18648 <g_943>
    9aca:	48 8b 00             	mov    (%rax),%rax
    9acd:	48 c7 05 f8 ed 00 00 	movq   $0x0,0xedf8(%rip)        # 188d0 <g_2549>
    9ad4:	00 00 00 00 
    9ad8:	48 89 c6             	mov    %rax,%rsi
    9adb:	bf 01 00 00 00       	mov    $0x1,%edi
    9ae0:	e8 66 c5 ff ff       	callq  604b <safe_sub_func_uint64_t_u_u>
    9ae5:	0f be c0             	movsbl %al,%eax
    9ae8:	be 00 00 00 00       	mov    $0x0,%esi
    9aed:	89 c7                	mov    %eax,%edi
    9aef:	e8 78 b8 ff ff       	callq  536c <safe_rshift_func_int8_t_s_u>
    9af4:	0f be c0             	movsbl %al,%eax
    9af7:	89 de                	mov    %ebx,%esi
    9af9:	89 c7                	mov    %eax,%edi
    9afb:	e8 ff bb ff ff       	callq  56ff <safe_div_func_int32_t_s_s>
    9b00:	48 8b 15 59 ea 00 00 	mov    0xea59(%rip),%rdx        # 18560 <g_242>
    9b07:	48 8b 12             	mov    (%rdx),%rdx
    9b0a:	0f b7 12             	movzwl (%rdx),%edx
    9b0d:	0f b7 d2             	movzwl %dx,%edx
    9b10:	39 d0                	cmp    %edx,%eax
    9b12:	0f 9f c0             	setg   %al
    9b15:	0f b6 c0             	movzbl %al,%eax
    9b18:	39 85 b8 fb ff ff    	cmp    %eax,-0x448(%rbp)
    9b1e:	0f 95 c0             	setne  %al
    9b21:	0f b6 c0             	movzbl %al,%eax
    9b24:	8b 95 6c fb ff ff    	mov    -0x494(%rbp),%edx
    9b2a:	89 c6                	mov    %eax,%esi
    9b2c:	89 d7                	mov    %edx,%edi
    9b2e:	e8 9d c3 ff ff       	callq  5ed0 <safe_sub_func_uint32_t_u_u>
    9b33:	89 c2                	mov    %eax,%edx
    9b35:	0f b6 85 74 fc ff ff 	movzbl -0x38c(%rbp),%eax
    9b3c:	66 98                	cbtw   
    9b3e:	0f b7 c0             	movzwl %ax,%eax
    9b41:	89 d6                	mov    %edx,%esi
    9b43:	89 c7                	mov    %eax,%edi
    9b45:	e8 30 c3 ff ff       	callq  5e7a <safe_rshift_func_uint16_t_u_u>
    9b4a:	48 83 bd 20 fc ff ff 	cmpq   $0x0,-0x3e0(%rbp)
    9b51:	00 
    9b52:	0f 95 c2             	setne  %dl
    9b55:	48 8b 05 34 ec 00 00 	mov    0xec34(%rip),%rax        # 18790 <g_1433>
    9b5c:	88 10                	mov    %dl,(%rax)
    9b5e:	0f b6 00             	movzbl (%rax),%eax
    9b61:	0f be c0             	movsbl %al,%eax
    9b64:	be 04 00 00 00       	mov    $0x4,%esi
    9b69:	89 c7                	mov    %eax,%edi
    9b6b:	e8 7e b7 ff ff       	callq  52ee <safe_lshift_func_int8_t_s_u>
    9b70:	84 c0                	test   %al,%al
    9b72:	74 07                	je     9b7b <func_17+0x652>
    9b74:	ba 01 00 00 00       	mov    $0x1,%edx
    9b79:	eb 05                	jmp    9b80 <func_17+0x657>
    9b7b:	ba 00 00 00 00       	mov    $0x0,%edx
    9b80:	8b 85 6c fb ff ff    	mov    -0x494(%rbp),%eax
    9b86:	21 c2                	and    %eax,%edx
    9b88:	8b 85 78 fb ff ff    	mov    -0x488(%rbp),%eax
    9b8e:	09 d0                	or     %edx,%eax
    9b90:	89 85 78 fb ff ff    	mov    %eax,-0x488(%rbp)
    9b96:	8b 85 6c fb ff ff    	mov    -0x494(%rbp),%eax
    9b9c:	85 c0                	test   %eax,%eax
    9b9e:	0f 85 64 03 00 00    	jne    9f08 <func_17+0x9df>
    9ba4:	66 c7 85 74 fb ff ff 	movw   $0x33e3,-0x48c(%rbp)
    9bab:	e3 33 
    9bad:	c7 85 c0 fb ff ff 05 	movl   $0x5,-0x440(%rbp)
    9bb4:	00 00 00 
    9bb7:	c7 85 50 fd ff ff 08 	movl   $0x8,-0x2b0(%rbp)
    9bbe:	00 00 00 
    9bc1:	c7 85 54 fd ff ff 08 	movl   $0x8,-0x2ac(%rbp)
    9bc8:	00 00 00 
    9bcb:	c7 85 58 fd ff ff 08 	movl   $0x8,-0x2a8(%rbp)
    9bd2:	00 00 00 
    9bd5:	c7 85 5c fd ff ff 08 	movl   $0x8,-0x2a4(%rbp)
    9bdc:	00 00 00 
    9bdf:	c7 85 60 fd ff ff 08 	movl   $0x8,-0x2a0(%rbp)
    9be6:	00 00 00 
    9be9:	c7 85 64 fd ff ff 08 	movl   $0x8,-0x29c(%rbp)
    9bf0:	00 00 00 
    9bf3:	c7 85 68 fd ff ff 08 	movl   $0x8,-0x298(%rbp)
    9bfa:	00 00 00 
    9bfd:	c7 85 6c fd ff ff 08 	movl   $0x8,-0x294(%rbp)
    9c04:	00 00 00 
    9c07:	c7 85 70 fd ff ff 08 	movl   $0x8,-0x290(%rbp)
    9c0e:	00 00 00 
    9c11:	c7 85 74 fd ff ff 08 	movl   $0x8,-0x28c(%rbp)
    9c18:	00 00 00 
    9c1b:	c7 85 78 fd ff ff 08 	movl   $0x8,-0x288(%rbp)
    9c22:	00 00 00 
    9c25:	c7 85 7c fd ff ff 08 	movl   $0x8,-0x284(%rbp)
    9c2c:	00 00 00 
    9c2f:	c7 85 80 fd ff ff 08 	movl   $0x8,-0x280(%rbp)
    9c36:	00 00 00 
    9c39:	c7 85 84 fd ff ff 08 	movl   $0x8,-0x27c(%rbp)
    9c40:	00 00 00 
    9c43:	c7 85 88 fd ff ff 08 	movl   $0x8,-0x278(%rbp)
    9c4a:	00 00 00 
    9c4d:	c7 85 8c fd ff ff 08 	movl   $0x8,-0x274(%rbp)
    9c54:	00 00 00 
    9c57:	c7 85 90 fd ff ff 08 	movl   $0x8,-0x270(%rbp)
    9c5e:	00 00 00 
    9c61:	c7 85 94 fd ff ff 08 	movl   $0x8,-0x26c(%rbp)
    9c68:	00 00 00 
    9c6b:	c7 85 98 fd ff ff 08 	movl   $0x8,-0x268(%rbp)
    9c72:	00 00 00 
    9c75:	c7 85 9c fd ff ff 08 	movl   $0x8,-0x264(%rbp)
    9c7c:	00 00 00 
    9c7f:	c7 85 a0 fd ff ff 08 	movl   $0x8,-0x260(%rbp)
    9c86:	00 00 00 
    9c89:	c7 85 a4 fd ff ff 08 	movl   $0x8,-0x25c(%rbp)
    9c90:	00 00 00 
    9c93:	c7 85 a8 fd ff ff 08 	movl   $0x8,-0x258(%rbp)
    9c9a:	00 00 00 
    9c9d:	c7 85 ac fd ff ff 08 	movl   $0x8,-0x254(%rbp)
    9ca4:	00 00 00 
    9ca7:	c7 85 b0 fd ff ff 08 	movl   $0x8,-0x250(%rbp)
    9cae:	00 00 00 
    9cb1:	c7 85 b4 fd ff ff 08 	movl   $0x8,-0x24c(%rbp)
    9cb8:	00 00 00 
    9cbb:	c7 85 b8 fd ff ff 08 	movl   $0x8,-0x248(%rbp)
    9cc2:	00 00 00 
    9cc5:	c7 85 bc fd ff ff 08 	movl   $0x8,-0x244(%rbp)
    9ccc:	00 00 00 
    9ccf:	c7 85 c0 fd ff ff 08 	movl   $0x8,-0x240(%rbp)
    9cd6:	00 00 00 
    9cd9:	c7 85 c4 fd ff ff 08 	movl   $0x8,-0x23c(%rbp)
    9ce0:	00 00 00 
    9ce3:	c7 85 c8 fd ff ff 08 	movl   $0x8,-0x238(%rbp)
    9cea:	00 00 00 
    9ced:	c7 85 cc fd ff ff 08 	movl   $0x8,-0x234(%rbp)
    9cf4:	00 00 00 
    9cf7:	48 8b 05 ca eb 00 00 	mov    0xebca(%rip),%rax        # 188c8 <g_2550>
    9cfe:	c6 00 28             	movb   $0x28,(%rax)
    9d01:	c7 40 04 07 54 04 f1 	movl   $0xf1045407,0x4(%rax)
    9d08:	48 c7 85 f0 fb ff ff 	movq   $0x0,-0x410(%rbp)
    9d0f:	00 00 00 00 
    9d13:	e9 dd 01 00 00       	jmpq   9ef5 <func_17+0x9cc>
    9d18:	c7 85 c4 fb ff ff ff 	movl   $0xffffffff,-0x43c(%rbp)
    9d1f:	ff ff ff 
    9d22:	48 8b 15 9f eb 00 00 	mov    0xeb9f(%rip),%rdx        # 188c8 <g_2550>
    9d29:	48 8b 05 98 eb 00 00 	mov    0xeb98(%rip),%rax        # 188c8 <g_2550>
    9d30:	48 8b 12             	mov    (%rdx),%rdx
    9d33:	48 89 10             	mov    %rdx,(%rax)
    9d36:	c7 05 78 d6 00 00 00 	movl   $0x0,0xd678(%rip)        # 173b8 <g_1225>
    9d3d:	00 00 00 
    9d40:	e9 82 01 00 00       	jmpq   9ec7 <func_17+0x99e>
    9d45:	66 c7 85 76 fb ff ff 	movw   $0x0,-0x48a(%rbp)
    9d4c:	00 00 
    9d4e:	c6 85 6c fc ff ff f7 	movb   $0xf7,-0x394(%rbp)
    9d55:	c7 85 70 fc ff ff 01 	movl   $0x1,-0x390(%rbp)
    9d5c:	00 00 00 
    9d5f:	c7 85 84 fb ff ff 00 	movl   $0x0,-0x47c(%rbp)
    9d66:	00 00 00 
    9d69:	eb 51                	jmp    9dbc <func_17+0x893>
    9d6b:	c7 85 88 fb ff ff 00 	movl   $0x0,-0x478(%rbp)
    9d72:	00 00 00 
    9d75:	eb 35                	jmp    9dac <func_17+0x883>
    9d77:	8b 85 88 fb ff ff    	mov    -0x478(%rbp),%eax
    9d7d:	48 63 c8             	movslq %eax,%rcx
    9d80:	8b 85 84 fb ff ff    	mov    -0x47c(%rbp),%eax
    9d86:	48 63 d0             	movslq %eax,%rdx
    9d89:	48 89 d0             	mov    %rdx,%rax
    9d8c:	48 01 c0             	add    %rax,%rax
    9d8f:	48 01 d0             	add    %rdx,%rax
    9d92:	48 8d 14 08          	lea    (%rax,%rcx,1),%rdx
    9d96:	48 8d 85 70 fb ff ff 	lea    -0x490(%rbp),%rax
    9d9d:	48 89 84 d5 e0 fc ff 	mov    %rax,-0x320(%rbp,%rdx,8)
    9da4:	ff 
    9da5:	83 85 88 fb ff ff 01 	addl   $0x1,-0x478(%rbp)
    9dac:	83 bd 88 fb ff ff 02 	cmpl   $0x2,-0x478(%rbp)
    9db3:	7e c2                	jle    9d77 <func_17+0x84e>
    9db5:	83 85 84 fb ff ff 01 	addl   $0x1,-0x47c(%rbp)
    9dbc:	83 bd 84 fb ff ff 01 	cmpl   $0x1,-0x47c(%rbp)
    9dc3:	7e a6                	jle    9d6b <func_17+0x842>
    9dc5:	0f b7 05 e6 d5 00 00 	movzwl 0xd5e6(%rip),%eax        # 173b2 <g_1173>
    9dcc:	0f bf d8             	movswl %ax,%ebx
    9dcf:	48 8b 05 ca e9 00 00 	mov    0xe9ca(%rip),%rax        # 187a0 <g_1431>
    9dd6:	48 8b 00             	mov    (%rax),%rax
    9dd9:	48 8b 00             	mov    (%rax),%rax
    9ddc:	0f b6 00             	movzbl (%rax),%eax
    9ddf:	44 0f be e0          	movsbl %al,%r12d
    9de3:	66 81 b5 74 fb ff ff 	xorw   $0x7efc,-0x48c(%rbp)
    9dea:	fc 7e 
    9dec:	8b 85 6c fb ff ff    	mov    -0x494(%rbp),%eax
    9df2:	44 0f b7 e8          	movzwl %ax,%r13d
    9df6:	0f b7 85 76 fb ff ff 	movzwl -0x48a(%rbp),%eax
    9dfd:	0f be c0             	movsbl %al,%eax
    9e00:	be 07 00 00 00       	mov    $0x7,%esi
    9e05:	89 c7                	mov    %eax,%edi
    9e07:	e8 95 b4 ff ff       	callq  52a1 <safe_lshift_func_int8_t_s_s>
    9e0c:	83 bd bc fb ff ff 00 	cmpl   $0x0,-0x444(%rbp)
    9e13:	75 13                	jne    9e28 <func_17+0x8ff>
    9e15:	c7 85 c0 fb ff ff 00 	movl   $0x0,-0x440(%rbp)
    9e1c:	00 00 00 
    9e1f:	83 bd c0 fb ff ff 00 	cmpl   $0x0,-0x440(%rbp)
    9e26:	74 11                	je     9e39 <func_17+0x910>
    9e28:	8b 85 6c fb ff ff    	mov    -0x494(%rbp),%eax
    9e2e:	85 c0                	test   %eax,%eax
    9e30:	74 07                	je     9e39 <func_17+0x910>
    9e32:	b8 01 00 00 00       	mov    $0x1,%eax
    9e37:	eb 05                	jmp    9e3e <func_17+0x915>
    9e39:	b8 00 00 00 00       	mov    $0x0,%eax
    9e3e:	0f b7 c0             	movzwl %ax,%eax
    9e41:	44 89 ee             	mov    %r13d,%esi
    9e44:	89 c7                	mov    %eax,%edi
    9e46:	e8 11 bf ff ff       	callq  5d5c <safe_mod_func_uint16_t_u_u>
    9e4b:	0f b6 05 76 f9 00 00 	movzbl 0xf976(%rip),%eax        # 197c8 <g_1294>
    9e52:	84 c0                	test   %al,%al
    9e54:	74 07                	je     9e5d <func_17+0x934>
    9e56:	b8 01 00 00 00       	mov    $0x1,%eax
    9e5b:	eb 05                	jmp    9e62 <func_17+0x939>
    9e5d:	b8 00 00 00 00       	mov    $0x0,%eax
    9e62:	0f b6 c0             	movzbl %al,%eax
    9e65:	44 89 e6             	mov    %r12d,%esi
    9e68:	89 c7                	mov    %eax,%edi
    9e6a:	e8 1e be ff ff       	callq  5c8d <safe_rshift_func_uint8_t_u_s>
    9e6f:	0f b6 d0             	movzbl %al,%edx
    9e72:	8b 85 c4 fb ff ff    	mov    -0x43c(%rbp),%eax
    9e78:	98                   	cwtl   
    9e79:	89 d6                	mov    %edx,%esi
    9e7b:	89 c7                	mov    %eax,%edi
    9e7d:	e8 51 b5 ff ff       	callq  53d3 <safe_sub_func_int16_t_s_s>
    9e82:	48 8b 05 d7 e7 00 00 	mov    0xe7d7(%rip),%rax        # 18660 <g_1145>
    9e89:	0f b7 95 76 fb ff ff 	movzwl -0x48a(%rbp),%edx
    9e90:	66 89 10             	mov    %dx,(%rax)
    9e93:	0f b7 00             	movzwl (%rax),%eax
    9e96:	98                   	cwtl   
    9e97:	be af 8c ff ff       	mov    $0xffff8caf,%esi
    9e9c:	89 c7                	mov    %eax,%edi
    9e9e:	e8 10 b5 ff ff       	callq  53b3 <safe_add_func_int16_t_s_s>
    9ea3:	89 de                	mov    %ebx,%esi
    9ea5:	bf f8 ff ff ff       	mov    $0xfffffff8,%edi
    9eaa:	e8 bd b4 ff ff       	callq  536c <safe_rshift_func_int8_t_s_u>
    9eaf:	0f be c0             	movsbl %al,%eax
    9eb2:	89 85 c8 fd ff ff    	mov    %eax,-0x238(%rbp)
    9eb8:	8b 05 fa d4 00 00    	mov    0xd4fa(%rip),%eax        # 173b8 <g_1225>
    9ebe:	83 c0 01             	add    $0x1,%eax
    9ec1:	89 05 f1 d4 00 00    	mov    %eax,0xd4f1(%rip)        # 173b8 <g_1225>
    9ec7:	8b 05 eb d4 00 00    	mov    0xd4eb(%rip),%eax        # 173b8 <g_1225>
    9ecd:	83 f8 06             	cmp    $0x6,%eax
    9ed0:	0f 85 6f fe ff ff    	jne    9d45 <func_17+0x81c>
    9ed6:	8b 05 dc d4 00 00    	mov    0xd4dc(%rip),%eax        # 173b8 <g_1225>
    9edc:	85 c0                	test   %eax,%eax
    9ede:	74 05                	je     9ee5 <func_17+0x9bc>
    9ee0:	e9 29 f7 ff ff       	jmpq   960e <func_17+0xe5>
    9ee5:	66 83 bd 74 fb ff ff 	cmpw   $0x0,-0x48c(%rbp)
    9eec:	00 
    9eed:	48 83 85 f0 fb ff ff 	addq   $0x1,-0x410(%rbp)
    9ef4:	01 
    9ef5:	48 83 bd f0 fb ff ff 	cmpq   $0xc,-0x410(%rbp)
    9efc:	0c 
    9efd:	0f 85 15 fe ff ff    	jne    9d18 <func_17+0x7ef>
    9f03:	e9 83 04 00 00       	jmpq   a38b <func_17+0xe62>
    9f08:	48 8d 05 71 d1 00 00 	lea    0xd171(%rip),%rax        # 17080 <g_136>
    9f0f:	48 89 85 30 fc ff ff 	mov    %rax,-0x3d0(%rbp)
    9f16:	c7 05 b8 d4 00 00 04 	movl   $0x4,0xd4b8(%rip)        # 173d8 <g_1547>
    9f1d:	00 00 00 
    9f20:	e9 4a 04 00 00       	jmpq   a36f <func_17+0xe46>
    9f25:	48 c7 85 50 fd ff ff 	movq   $0x0,-0x2b0(%rbp)
    9f2c:	00 00 00 00 
    9f30:	48 8d 05 81 d4 00 00 	lea    0xd481(%rip),%rax        # 173b8 <g_1225>
    9f37:	48 89 85 58 fd ff ff 	mov    %rax,-0x2a8(%rbp)
    9f3e:	48 c7 85 60 fd ff ff 	movq   $0x0,-0x2a0(%rbp)
    9f45:	00 00 00 00 
    9f49:	48 8d 05 68 d4 00 00 	lea    0xd468(%rip),%rax        # 173b8 <g_1225>
    9f50:	48 89 85 68 fd ff ff 	mov    %rax,-0x298(%rbp)
    9f57:	48 c7 85 70 fd ff ff 	movq   $0x0,-0x290(%rbp)
    9f5e:	00 00 00 00 
    9f62:	48 8d 05 4f d4 00 00 	lea    0xd44f(%rip),%rax        # 173b8 <g_1225>
    9f69:	48 89 85 78 fd ff ff 	mov    %rax,-0x288(%rbp)
    9f70:	48 c7 85 80 fd ff ff 	movq   $0x0,-0x280(%rbp)
    9f77:	00 00 00 00 
    9f7b:	48 8d 05 36 d4 00 00 	lea    0xd436(%rip),%rax        # 173b8 <g_1225>
    9f82:	48 89 85 88 fd ff ff 	mov    %rax,-0x278(%rbp)
    9f89:	48 c7 85 90 fd ff ff 	movq   $0x0,-0x270(%rbp)
    9f90:	00 00 00 00 
    9f94:	48 c7 85 98 fd ff ff 	movq   $0x0,-0x268(%rbp)
    9f9b:	00 00 00 00 
    9f9f:	48 8d 85 78 fb ff ff 	lea    -0x488(%rbp),%rax
    9fa6:	48 89 85 a0 fd ff ff 	mov    %rax,-0x260(%rbp)
    9fad:	48 8d 85 78 fb ff ff 	lea    -0x488(%rbp),%rax
    9fb4:	48 89 85 a8 fd ff ff 	mov    %rax,-0x258(%rbp)
    9fbb:	48 c7 85 b0 fd ff ff 	movq   $0x0,-0x250(%rbp)
    9fc2:	00 00 00 00 
    9fc6:	48 c7 85 b8 fd ff ff 	movq   $0x0,-0x248(%rbp)
    9fcd:	00 00 00 00 
    9fd1:	48 8d 85 78 fb ff ff 	lea    -0x488(%rbp),%rax
    9fd8:	48 89 85 c0 fd ff ff 	mov    %rax,-0x240(%rbp)
    9fdf:	48 8d 85 78 fb ff ff 	lea    -0x488(%rbp),%rax
    9fe6:	48 89 85 c8 fd ff ff 	mov    %rax,-0x238(%rbp)
    9fed:	48 c7 85 d0 fd ff ff 	movq   $0x0,-0x230(%rbp)
    9ff4:	00 00 00 00 
    9ff8:	48 c7 85 d8 fd ff ff 	movq   $0x0,-0x228(%rbp)
    9fff:	00 00 00 00 
    a003:	48 8d 05 26 d0 00 00 	lea    0xd026(%rip),%rax        # 17030 <g_8>
    a00a:	48 89 85 e0 fd ff ff 	mov    %rax,-0x220(%rbp)
    a011:	48 8d 05 a0 d3 00 00 	lea    0xd3a0(%rip),%rax        # 173b8 <g_1225>
    a018:	48 89 85 e8 fd ff ff 	mov    %rax,-0x218(%rbp)
    a01f:	48 8d 05 0a d0 00 00 	lea    0xd00a(%rip),%rax        # 17030 <g_8>
    a026:	48 89 85 f0 fd ff ff 	mov    %rax,-0x210(%rbp)
    a02d:	48 8d 05 84 d3 00 00 	lea    0xd384(%rip),%rax        # 173b8 <g_1225>
    a034:	48 89 85 f8 fd ff ff 	mov    %rax,-0x208(%rbp)
    a03b:	48 8d 05 ee cf 00 00 	lea    0xcfee(%rip),%rax        # 17030 <g_8>
    a042:	48 89 85 00 fe ff ff 	mov    %rax,-0x200(%rbp)
    a049:	48 8d 05 68 d3 00 00 	lea    0xd368(%rip),%rax        # 173b8 <g_1225>
    a050:	48 89 85 08 fe ff ff 	mov    %rax,-0x1f8(%rbp)
    a057:	48 8d 05 d2 cf 00 00 	lea    0xcfd2(%rip),%rax        # 17030 <g_8>
    a05e:	48 89 85 10 fe ff ff 	mov    %rax,-0x1f0(%rbp)
    a065:	48 8d 05 4c d3 00 00 	lea    0xd34c(%rip),%rax        # 173b8 <g_1225>
    a06c:	48 89 85 18 fe ff ff 	mov    %rax,-0x1e8(%rbp)
    a073:	48 8d 05 b6 cf 00 00 	lea    0xcfb6(%rip),%rax        # 17030 <g_8>
    a07a:	48 89 85 20 fe ff ff 	mov    %rax,-0x1e0(%rbp)
    a081:	48 8d 85 e8 fb ff ff 	lea    -0x418(%rbp),%rax
    a088:	48 89 85 38 fc ff ff 	mov    %rax,-0x3c8(%rbp)
    a08f:	48 c7 85 e0 fc ff ff 	movq   $0x0,-0x320(%rbp)
    a096:	00 00 00 00 
    a09a:	48 c7 85 e8 fc ff ff 	movq   $0x0,-0x318(%rbp)
    a0a1:	00 00 00 00 
    a0a5:	48 c7 85 f0 fc ff ff 	movq   $0x0,-0x310(%rbp)
    a0ac:	00 00 00 00 
    a0b0:	48 c7 85 f8 fc ff ff 	movq   $0x0,-0x308(%rbp)
    a0b7:	00 00 00 00 
    a0bb:	48 c7 85 00 fd ff ff 	movq   $0x0,-0x300(%rbp)
    a0c2:	00 00 00 00 
    a0c6:	48 8d 85 e0 fc ff ff 	lea    -0x320(%rbp),%rax
    a0cd:	48 83 c0 10          	add    $0x10,%rax
    a0d1:	48 89 85 40 fc ff ff 	mov    %rax,-0x3c0(%rbp)
    a0d8:	48 c7 85 48 fc ff ff 	movq   $0x0,-0x3b8(%rbp)
    a0df:	00 00 00 00 
    a0e3:	c7 85 6c fc ff ff 00 	movl   $0x0,-0x394(%rbp)
    a0ea:	00 00 00 
    a0ed:	c6 85 6c fc ff ff af 	movb   $0xaf,-0x394(%rbp)
    a0f4:	48 8d 85 6c fb ff ff 	lea    -0x494(%rbp),%rax
    a0fb:	48 89 85 d8 fd ff ff 	mov    %rax,-0x228(%rbp)
    a102:	0f b7 05 4f d0 00 00 	movzwl 0xd04f(%rip),%eax        # 17158 <g_277+0x8>
    a109:	0f b7 d8             	movzwl %ax,%ebx
    a10c:	4c 0f be ad 72 fb ff 	movsbq -0x48e(%rbp),%r13
    a113:	ff 
    a114:	48 8b 95 e8 fb ff ff 	mov    -0x418(%rbp),%rdx
    a11b:	48 8b 85 38 fc ff ff 	mov    -0x3c8(%rbp),%rax
    a122:	48 89 10             	mov    %rdx,(%rax)
    a125:	48 8b 85 38 fc ff ff 	mov    -0x3c8(%rbp),%rax
    a12c:	48 8b 10             	mov    (%rax),%rdx
    a12f:	48 8b 85 40 fc ff ff 	mov    -0x3c0(%rbp),%rax
    a136:	48 89 10             	mov    %rdx,(%rax)
    a139:	48 8b 85 40 fc ff ff 	mov    -0x3c0(%rbp),%rax
    a140:	48 8b 00             	mov    (%rax),%rax
    a143:	48 8d 15 76 e6 00 00 	lea    0xe676(%rip),%rdx        # 187c0 <g_1564>
    a14a:	48 39 d0             	cmp    %rdx,%rax
    a14d:	83 8d 7c fb ff ff 01 	orl    $0x1,-0x484(%rbp)
    a154:	8b 85 7c fb ff ff    	mov    -0x484(%rbp),%eax
    a15a:	44 0f b6 e0          	movzbl %al,%r12d
    a15e:	48 8b 05 6b e6 00 00 	mov    0xe66b(%rip),%rax        # 187d0 <g_1580>
    a165:	48 8b 00             	mov    (%rax),%rax
    a168:	48 8b 10             	mov    (%rax),%rdx
    a16b:	48 83 c2 01          	add    $0x1,%rdx
    a16f:	48 89 10             	mov    %rdx,(%rax)
    a172:	48 8b 00             	mov    (%rax),%rax
    a175:	48 89 c6             	mov    %rax,%rsi
    a178:	48 c7 c7 ff ff ff ff 	mov    $0xffffffffffffffff,%rdi
    a17f:	e8 30 b8 ff ff       	callq  59b4 <safe_mod_func_int64_t_s_s>
    a184:	0f b6 c0             	movzbl %al,%eax
    a187:	be 8c 00 00 00       	mov    $0x8c,%esi
    a18c:	89 c7                	mov    %eax,%edi
    a18e:	e8 48 ba ff ff       	callq  5bdb <safe_div_func_uint8_t_u_u>
    a193:	0f b6 c0             	movzbl %al,%eax
    a196:	44 89 e6             	mov    %r12d,%esi
    a199:	89 c7                	mov    %eax,%edi
    a19b:	e8 f3 b9 ff ff       	callq  5b93 <safe_mul_func_uint8_t_u_u>
    a1a0:	8b 95 6c fb ff ff    	mov    -0x494(%rbp),%edx
    a1a6:	48 8b 05 f3 e5 00 00 	mov    0xe5f3(%rip),%rax        # 187a0 <g_1431>
    a1ad:	48 8b 00             	mov    (%rax),%rax
    a1b0:	48 8b 00             	mov    (%rax),%rax
    a1b3:	88 10                	mov    %dl,(%rax)
    a1b5:	0f b6 00             	movzbl (%rax),%eax
    a1b8:	0f be c0             	movsbl %al,%eax
    a1bb:	be cc ff ff ff       	mov    $0xffffffcc,%esi
    a1c0:	89 c7                	mov    %eax,%edi
    a1c2:	e8 4b b0 ff ff       	callq  5212 <safe_mul_func_int8_t_s_s>
    a1c7:	8b 85 6c fb ff ff    	mov    -0x494(%rbp),%eax
    a1cd:	be 01 00 00 00       	mov    $0x1,%esi
    a1d2:	89 c7                	mov    %eax,%edi
    a1d4:	e8 dd b3 ff ff       	callq  55b6 <safe_add_func_int32_t_s_s>
    a1d9:	48 8b 05 e8 e5 00 00 	mov    0xe5e8(%rip),%rax        # 187c8 <g_1563>
    a1e0:	48 8b 00             	mov    (%rax),%rax
    a1e3:	48 8b 00             	mov    (%rax),%rax
    a1e6:	48 8b 00             	mov    (%rax),%rax
    a1e9:	48 8b 00             	mov    (%rax),%rax
    a1ec:	48 be d5 7d 39 96 e1 	movabs $0xbf21b4e196397dd5,%rsi
    a1f3:	b4 21 bf 
    a1f6:	48 89 c7             	mov    %rax,%rdi
    a1f9:	e8 b6 b7 ff ff       	callq  59b4 <safe_mod_func_int64_t_s_s>
    a1fe:	49 39 c5             	cmp    %rax,%r13
    a201:	0f 95 c0             	setne  %al
    a204:	0f b6 c0             	movzbl %al,%eax
    a207:	89 de                	mov    %ebx,%esi
    a209:	89 c7                	mov    %eax,%edi
    a20b:	e8 ef b4 ff ff       	callq  56ff <safe_div_func_int32_t_s_s>
    a210:	85 c0                	test   %eax,%eax
    a212:	74 13                	je     a227 <func_17+0xcfe>
    a214:	8b 85 6c fb ff ff    	mov    -0x494(%rbp),%eax
    a21a:	85 c0                	test   %eax,%eax
    a21c:	0f 84 3e 01 00 00    	je     a360 <func_17+0xe37>
    a222:	e9 56 01 00 00       	jmpq   a37d <func_17+0xe54>
    a227:	be 77 be 04 cb       	mov    $0xcb04be77,%esi
    a22c:	bf 01 00 00 00       	mov    $0x1,%edi
    a231:	e8 c9 b4 ff ff       	callq  56ff <safe_div_func_int32_t_s_s>
    a236:	4c 63 e0             	movslq %eax,%r12
    a239:	b8 7c 00 00 00       	mov    $0x7c,%eax
    a23e:	0f be d8             	movsbl %al,%ebx
    a241:	48 8b 05 08 e4 00 00 	mov    0xe408(%rip),%rax        # 18650 <g_942>
    a248:	48 8b 00             	mov    (%rax),%rax
    a24b:	48 8b 10             	mov    (%rax),%rdx
    a24e:	48 8b 85 08 fc ff ff 	mov    -0x3f8(%rbp),%rax
    a255:	48 89 d6             	mov    %rdx,%rsi
    a258:	48 89 c7             	mov    %rax,%rdi
    a25b:	e8 eb bd ff ff       	callq  604b <safe_sub_func_uint64_t_u_u>
    a260:	41 89 c7             	mov    %eax,%r15d
    a263:	48 8b 05 fe e2 00 00 	mov    0xe2fe(%rip),%rax        # 18568 <g_298>
    a26a:	0f b6 00             	movzbl (%rax),%eax
    a26d:	0f b6 c0             	movzbl %al,%eax
    a270:	be 01 00 00 00       	mov    $0x1,%esi
    a275:	89 c7                	mov    %eax,%edi
    a277:	e8 11 ba ff ff       	callq  5c8d <safe_rshift_func_uint8_t_u_s>
    a27c:	44 0f b6 e8          	movzbl %al,%r13d
    a280:	8b 05 aa cd 00 00    	mov    0xcdaa(%rip),%eax        # 17030 <g_8>
    a286:	41 89 c6             	mov    %eax,%r14d
    a289:	48 8b 05 d0 e3 00 00 	mov    0xe3d0(%rip),%rax        # 18660 <g_1145>
    a290:	0f b7 00             	movzwl (%rax),%eax
    a293:	0f b7 d0             	movzwl %ax,%edx
    a296:	8b 85 6c fb ff ff    	mov    -0x494(%rbp),%eax
    a29c:	0f b7 c0             	movzwl %ax,%eax
    a29f:	89 d6                	mov    %edx,%esi
    a2a1:	89 c7                	mov    %eax,%edi
    a2a3:	e8 57 ba ff ff       	callq  5cff <safe_add_func_uint16_t_u_u>
    a2a8:	48 8b 85 10 fc ff ff 	mov    -0x3f0(%rbp),%rax
    a2af:	48 3b 85 28 fc ff ff 	cmp    -0x3d8(%rbp),%rax
    a2b6:	0f 95 c0             	setne  %al
    a2b9:	0f b6 c0             	movzbl %al,%eax
    a2bc:	44 89 f6             	mov    %r14d,%esi
    a2bf:	89 c7                	mov    %eax,%edi
    a2c1:	e8 f8 b9 ff ff       	callq  5cbe <safe_rshift_func_uint8_t_u_u>
    a2c6:	0f b6 c0             	movzbl %al,%eax
    a2c9:	be 0c 00 00 00       	mov    $0xc,%esi
    a2ce:	89 c7                	mov    %eax,%edi
    a2d0:	e8 bd b1 ff ff       	callq  5492 <safe_lshift_func_int16_t_s_s>
    a2d5:	0f bf d0             	movswl %ax,%edx
    a2d8:	8b 85 6c fb ff ff    	mov    -0x494(%rbp),%eax
    a2de:	39 c2                	cmp    %eax,%edx
    a2e0:	75 0f                	jne    a2f1 <func_17+0xdc8>
    a2e2:	48 8b 05 27 e5 00 00 	mov    0xe527(%rip),%rax        # 18810 <g_1719>
    a2e9:	48 8b 00             	mov    (%rax),%rax
    a2ec:	48 85 c0             	test   %rax,%rax
    a2ef:	74 07                	je     a2f8 <func_17+0xdcf>
    a2f1:	b8 01 00 00 00       	mov    $0x1,%eax
    a2f6:	eb 05                	jmp    a2fd <func_17+0xdd4>
    a2f8:	b8 00 00 00 00       	mov    $0x0,%eax
    a2fd:	44 39 e8             	cmp    %r13d,%eax
    a300:	0f 94 c0             	sete   %al
    a303:	0f b6 d0             	movzbl %al,%edx
    a306:	8b 85 6c fb ff ff    	mov    -0x494(%rbp),%eax
    a30c:	39 c2                	cmp    %eax,%edx
    a30e:	0f 9f c0             	setg   %al
    a311:	89 c2                	mov    %eax,%edx
    a313:	8b 85 6c fb ff ff    	mov    -0x494(%rbp),%eax
    a319:	31 d0                	xor    %edx,%eax
    a31b:	89 c2                	mov    %eax,%edx
    a31d:	48 8b 05 c4 d5 00 00 	mov    0xd5c4(%rip),%rax        # 178e8 <g_2624+0x8>
    a324:	09 d0                	or     %edx,%eax
    a326:	44 89 fa             	mov    %r15d,%edx
    a329:	21 c2                	and    %eax,%edx
    a32b:	48 8b 05 2e e2 00 00 	mov    0xe22e(%rip),%rax        # 18560 <g_242>
    a332:	48 8b 00             	mov    (%rax),%rax
    a335:	0f b7 00             	movzwl (%rax),%eax
    a338:	09 d0                	or     %edx,%eax
    a33a:	0f be c0             	movsbl %al,%eax
    a33d:	89 de                	mov    %ebx,%esi
    a33f:	89 c7                	mov    %eax,%edi
    a341:	e8 ac ae ff ff       	callq  51f2 <safe_sub_func_int8_t_s_s>
    a346:	83 f0 01             	xor    $0x1,%eax
    a349:	48 0f be c0          	movsbq %al,%rax
    a34d:	4c 21 e0             	and    %r12,%rax
    a350:	89 c2                	mov    %eax,%edx
    a352:	8b 85 78 fb ff ff    	mov    -0x488(%rbp),%eax
    a358:	09 d0                	or     %edx,%eax
    a35a:	89 85 78 fb ff ff    	mov    %eax,-0x488(%rbp)
    a360:	8b 05 72 d0 00 00    	mov    0xd072(%rip),%eax        # 173d8 <g_1547>
    a366:	83 e8 01             	sub    $0x1,%eax
    a369:	89 05 69 d0 00 00    	mov    %eax,0xd069(%rip)        # 173d8 <g_1547>
    a36f:	8b 05 63 d0 00 00    	mov    0xd063(%rip),%eax        # 173d8 <g_1547>
    a375:	85 c0                	test   %eax,%eax
    a377:	0f 89 a8 fb ff ff    	jns    9f25 <func_17+0x9fc>
    a37d:	48 8b 85 30 fc ff ff 	mov    -0x3d0(%rbp),%rax
    a384:	48 89 85 00 fc ff ff 	mov    %rax,-0x400(%rbp)
    a38b:	83 bd bc fb ff ff 00 	cmpl   $0x0,-0x444(%rbp)
    a392:	8b 05 28 d0 00 00    	mov    0xd028(%rip),%eax        # 173c0 <g_1281>
    a398:	48 98                	cltq   
    a39a:	be 01 00 00 00       	mov    $0x1,%esi
    a39f:	48 89 c7             	mov    %rax,%rdi
    a3a2:	e8 87 bc ff ff       	callq  602e <safe_add_func_uint64_t_u_u>
    a3a7:	89 05 13 d0 00 00    	mov    %eax,0xd013(%rip)        # 173c0 <g_1281>
    a3ad:	8b 05 0d d0 00 00    	mov    0xd00d(%rip),%eax        # 173c0 <g_1281>
    a3b3:	83 f8 05             	cmp    $0x5,%eax
    a3b6:	0f 8e 35 f6 ff ff    	jle    99f1 <func_17+0x4c8>
    a3bc:	c6 85 70 fb ff ff 00 	movb   $0x0,-0x490(%rbp)
    a3c3:	e9 9d 00 00 00       	jmpq   a465 <func_17+0xf3c>
    a3c8:	c7 85 a8 fb ff ff e6 	movl   $0xc9de0fe6,-0x458(%rbp)
    a3cf:	0f de c9 
    a3d2:	c7 85 ac fb ff ff 00 	movl   $0x0,-0x454(%rbp)
    a3d9:	00 00 00 
    a3dc:	c7 85 b0 fb ff ff 5c 	movl   $0x1732b45c,-0x450(%rbp)
    a3e3:	b4 32 17 
    a3e6:	c7 85 b4 fb ff ff 0f 	movl   $0xcff1d20f,-0x44c(%rbp)
    a3ed:	d2 f1 cf 
    a3f0:	c7 85 8c fb ff ff 00 	movl   $0x0,-0x474(%rbp)
    a3f7:	00 00 00 
    a3fa:	eb 1a                	jmp    a416 <func_17+0xeed>
    a3fc:	8b 85 8c fb ff ff    	mov    -0x474(%rbp),%eax
    a402:	48 98                	cltq   
    a404:	c7 84 85 e0 fc ff ff 	movl   $0x5a1720e4,-0x320(%rbp,%rax,4)
    a40b:	e4 20 17 5a 
    a40f:	83 85 8c fb ff ff 01 	addl   $0x1,-0x474(%rbp)
    a416:	83 bd 8c fb ff ff 00 	cmpl   $0x0,-0x474(%rbp)
    a41d:	7e dd                	jle    a3fc <func_17+0xed3>
    a41f:	c7 85 8c fb ff ff 00 	movl   $0x0,-0x474(%rbp)
    a426:	00 00 00 
    a429:	eb 1a                	jmp    a445 <func_17+0xf1c>
    a42b:	8b 85 8c fb ff ff    	mov    -0x474(%rbp),%eax
    a431:	48 98                	cltq   
    a433:	c7 84 85 50 fd ff ff 	movl   $0x1,-0x2b0(%rbp,%rax,4)
    a43a:	01 00 00 00 
    a43e:	83 85 8c fb ff ff 01 	addl   $0x1,-0x474(%rbp)
    a445:	83 bd 8c fb ff ff 04 	cmpl   $0x4,-0x474(%rbp)
    a44c:	7e dd                	jle    a42b <func_17+0xf02>
    a44e:	80 85 71 fb ff ff 01 	addb   $0x1,-0x48f(%rbp)
    a455:	0f b6 85 70 fb ff ff 	movzbl -0x490(%rbp),%eax
    a45c:	83 c0 01             	add    $0x1,%eax
    a45f:	88 85 70 fb ff ff    	mov    %al,-0x490(%rbp)
    a465:	0f b6 85 70 fb ff ff 	movzbl -0x490(%rbp),%eax
    a46c:	3c 11                	cmp    $0x11,%al
    a46e:	0f 85 54 ff ff ff    	jne    a3c8 <func_17+0xe9f>
    a474:	8b 85 6c fb ff ff    	mov    -0x494(%rbp),%eax
    a47a:	83 c0 01             	add    $0x1,%eax
    a47d:	89 85 6c fb ff ff    	mov    %eax,-0x494(%rbp)
    a483:	8b 85 6c fb ff ff    	mov    -0x494(%rbp),%eax
    a489:	83 f8 11             	cmp    $0x11,%eax
    a48c:	0f 85 a2 f1 ff ff    	jne    9634 <func_17+0x10b>
    a492:	48 8b 05 9f e3 00 00 	mov    0xe39f(%rip),%rax        # 18838 <g_1772>
    a499:	48 8b 00             	mov    (%rax),%rax
    a49c:	48 8b 4d c8          	mov    -0x38(%rbp),%rcx
    a4a0:	64 48 33 0c 25 28 00 	xor    %fs:0x28,%rcx
    a4a7:	00 00 
    a4a9:	74 05                	je     a4b0 <func_17+0xf87>
    a4ab:	e8 c0 ab ff ff       	callq  5070 <__stack_chk_fail@plt>
    a4b0:	48 81 c4 78 04 00 00 	add    $0x478,%rsp
    a4b7:	5b                   	pop    %rbx
    a4b8:	41 5c                	pop    %r12
    a4ba:	41 5d                	pop    %r13
    a4bc:	41 5e                	pop    %r14
    a4be:	41 5f                	pop    %r15
    a4c0:	5d                   	pop    %rbp
    a4c1:	c3                   	retq   

000000000000a4c2 <func_19>:
    a4c2:	f3 0f 1e fa          	endbr64 
    a4c6:	55                   	push   %rbp
    a4c7:	48 89 e5             	mov    %rsp,%rbp
    a4ca:	48 81 ec 20 04 00 00 	sub    $0x420,%rsp
    a4d1:	48 89 bd f8 fb ff ff 	mov    %rdi,-0x408(%rbp)
    a4d8:	48 89 b5 f0 fb ff ff 	mov    %rsi,-0x410(%rbp)
    a4df:	48 89 95 e8 fb ff ff 	mov    %rdx,-0x418(%rbp)
    a4e6:	64 48 8b 04 25 28 00 	mov    %fs:0x28,%rax
    a4ed:	00 00 
    a4ef:	48 89 45 f8          	mov    %rax,-0x8(%rbp)
    a4f3:	31 c0                	xor    %eax,%eax
    a4f5:	c6 85 01 fc ff ff ff 	movb   $0xff,-0x3ff(%rbp)
    a4fc:	48 8d 05 3d cb 00 00 	lea    0xcb3d(%rip),%rax        # 17040 <g_61>
    a503:	48 89 85 88 fc ff ff 	mov    %rax,-0x378(%rbp)
    a50a:	48 c7 85 90 fc ff ff 	movq   $0x0,-0x370(%rbp)
    a511:	00 00 00 00 
    a515:	48 8d 05 42 cb 00 00 	lea    0xcb42(%rip),%rax        # 1705e <g_81>
    a51c:	48 89 85 98 fc ff ff 	mov    %rax,-0x368(%rbp)
    a523:	48 c7 85 a0 fc ff ff 	movq   $0x0,-0x360(%rbp)
    a52a:	00 00 00 00 
    a52e:	48 8d 05 3d cb 00 00 	lea    0xcb3d(%rip),%rax        # 17072 <g_84+0x12>
    a535:	48 89 85 a8 fc ff ff 	mov    %rax,-0x358(%rbp)
    a53c:	48 8d 05 59 f2 00 00 	lea    0xf259(%rip),%rax        # 1979c <g_317>
    a543:	48 89 85 30 fc ff ff 	mov    %rax,-0x3d0(%rbp)
    a54a:	48 8d 85 30 fc ff ff 	lea    -0x3d0(%rbp),%rax
    a551:	48 89 85 90 fe ff ff 	mov    %rax,-0x170(%rbp)
    a558:	48 c7 85 98 fe ff ff 	movq   $0x0,-0x168(%rbp)
    a55f:	00 00 00 00 
    a563:	48 c7 85 a0 fe ff ff 	movq   $0x0,-0x160(%rbp)
    a56a:	00 00 00 00 
    a56e:	48 8d 85 30 fc ff ff 	lea    -0x3d0(%rbp),%rax
    a575:	48 89 85 a8 fe ff ff 	mov    %rax,-0x158(%rbp)
    a57c:	48 8d 85 30 fc ff ff 	lea    -0x3d0(%rbp),%rax
    a583:	48 89 85 b0 fe ff ff 	mov    %rax,-0x150(%rbp)
    a58a:	48 8d 85 30 fc ff ff 	lea    -0x3d0(%rbp),%rax
    a591:	48 89 85 b8 fe ff ff 	mov    %rax,-0x148(%rbp)
    a598:	48 c7 85 c0 fe ff ff 	movq   $0x0,-0x140(%rbp)
    a59f:	00 00 00 00 
    a5a3:	48 c7 85 c8 fe ff ff 	movq   $0x0,-0x138(%rbp)
    a5aa:	00 00 00 00 
    a5ae:	48 8d 85 30 fc ff ff 	lea    -0x3d0(%rbp),%rax
    a5b5:	48 89 85 d0 fe ff ff 	mov    %rax,-0x130(%rbp)
    a5bc:	48 8d 85 30 fc ff ff 	lea    -0x3d0(%rbp),%rax
    a5c3:	48 89 85 d8 fe ff ff 	mov    %rax,-0x128(%rbp)
    a5ca:	48 8d 85 30 fc ff ff 	lea    -0x3d0(%rbp),%rax
    a5d1:	48 89 85 e0 fe ff ff 	mov    %rax,-0x120(%rbp)
    a5d8:	48 c7 85 e8 fe ff ff 	movq   $0x0,-0x118(%rbp)
    a5df:	00 00 00 00 
    a5e3:	48 c7 85 f0 fe ff ff 	movq   $0x0,-0x110(%rbp)
    a5ea:	00 00 00 00 
    a5ee:	48 8d 85 30 fc ff ff 	lea    -0x3d0(%rbp),%rax
    a5f5:	48 89 85 f8 fe ff ff 	mov    %rax,-0x108(%rbp)
    a5fc:	48 8d 85 30 fc ff ff 	lea    -0x3d0(%rbp),%rax
    a603:	48 89 85 00 ff ff ff 	mov    %rax,-0x100(%rbp)
    a60a:	48 8d 85 30 fc ff ff 	lea    -0x3d0(%rbp),%rax
    a611:	48 89 85 08 ff ff ff 	mov    %rax,-0xf8(%rbp)
    a618:	48 c7 85 10 ff ff ff 	movq   $0x0,-0xf0(%rbp)
    a61f:	00 00 00 00 
    a623:	48 c7 85 18 ff ff ff 	movq   $0x0,-0xe8(%rbp)
    a62a:	00 00 00 00 
    a62e:	48 8d 85 30 fc ff ff 	lea    -0x3d0(%rbp),%rax
    a635:	48 89 85 20 ff ff ff 	mov    %rax,-0xe0(%rbp)
    a63c:	48 8d 85 30 fc ff ff 	lea    -0x3d0(%rbp),%rax
    a643:	48 89 85 28 ff ff ff 	mov    %rax,-0xd8(%rbp)
    a64a:	48 8d 85 30 fc ff ff 	lea    -0x3d0(%rbp),%rax
    a651:	48 89 85 30 ff ff ff 	mov    %rax,-0xd0(%rbp)
    a658:	48 c7 85 38 ff ff ff 	movq   $0x0,-0xc8(%rbp)
    a65f:	00 00 00 00 
    a663:	48 c7 85 40 ff ff ff 	movq   $0x0,-0xc0(%rbp)
    a66a:	00 00 00 00 
    a66e:	48 8d 85 30 fc ff ff 	lea    -0x3d0(%rbp),%rax
    a675:	48 89 85 48 ff ff ff 	mov    %rax,-0xb8(%rbp)
    a67c:	48 8d 85 30 fc ff ff 	lea    -0x3d0(%rbp),%rax
    a683:	48 89 85 50 ff ff ff 	mov    %rax,-0xb0(%rbp)
    a68a:	48 8d 85 30 fc ff ff 	lea    -0x3d0(%rbp),%rax
    a691:	48 89 85 58 ff ff ff 	mov    %rax,-0xa8(%rbp)
    a698:	48 8d 85 30 fc ff ff 	lea    -0x3d0(%rbp),%rax
    a69f:	48 89 85 60 ff ff ff 	mov    %rax,-0xa0(%rbp)
    a6a6:	48 8d 85 30 fc ff ff 	lea    -0x3d0(%rbp),%rax
    a6ad:	48 89 85 68 ff ff ff 	mov    %rax,-0x98(%rbp)
    a6b4:	48 8d 85 30 fc ff ff 	lea    -0x3d0(%rbp),%rax
    a6bb:	48 89 85 70 ff ff ff 	mov    %rax,-0x90(%rbp)
    a6c2:	48 c7 85 78 ff ff ff 	movq   $0x0,-0x88(%rbp)
    a6c9:	00 00 00 00 
    a6cd:	48 8d 85 30 fc ff ff 	lea    -0x3d0(%rbp),%rax
    a6d4:	48 89 45 80          	mov    %rax,-0x80(%rbp)
    a6d8:	48 8d 85 30 fc ff ff 	lea    -0x3d0(%rbp),%rax
    a6df:	48 89 45 88          	mov    %rax,-0x78(%rbp)
    a6e3:	48 8d 85 30 fc ff ff 	lea    -0x3d0(%rbp),%rax
    a6ea:	48 89 45 90          	mov    %rax,-0x70(%rbp)
    a6ee:	48 8d 85 30 fc ff ff 	lea    -0x3d0(%rbp),%rax
    a6f5:	48 89 45 98          	mov    %rax,-0x68(%rbp)
    a6f9:	48 c7 45 a0 00 00 00 	movq   $0x0,-0x60(%rbp)
    a700:	00 
    a701:	48 8d 85 30 fc ff ff 	lea    -0x3d0(%rbp),%rax
    a708:	48 89 45 a8          	mov    %rax,-0x58(%rbp)
    a70c:	48 8d 85 30 fc ff ff 	lea    -0x3d0(%rbp),%rax
    a713:	48 89 45 b0          	mov    %rax,-0x50(%rbp)
    a717:	48 8d 85 30 fc ff ff 	lea    -0x3d0(%rbp),%rax
    a71e:	48 89 45 b8          	mov    %rax,-0x48(%rbp)
    a722:	48 8d 85 30 fc ff ff 	lea    -0x3d0(%rbp),%rax
    a729:	48 89 45 c0          	mov    %rax,-0x40(%rbp)
    a72d:	48 c7 45 c8 00 00 00 	movq   $0x0,-0x38(%rbp)
    a734:	00 
    a735:	48 8d 85 30 fc ff ff 	lea    -0x3d0(%rbp),%rax
    a73c:	48 89 45 d0          	mov    %rax,-0x30(%rbp)
    a740:	48 8d 85 30 fc ff ff 	lea    -0x3d0(%rbp),%rax
    a747:	48 89 45 d8          	mov    %rax,-0x28(%rbp)
    a74b:	48 8d 85 30 fc ff ff 	lea    -0x3d0(%rbp),%rax
    a752:	48 89 45 e0          	mov    %rax,-0x20(%rbp)
    a756:	48 8d 85 30 fc ff ff 	lea    -0x3d0(%rbp),%rax
    a75d:	48 89 45 e8          	mov    %rax,-0x18(%rbp)
    a761:	48 c7 45 f0 00 00 00 	movq   $0x0,-0x10(%rbp)
    a768:	00 
    a769:	48 c7 85 38 fc ff ff 	movq   $0x0,-0x3c8(%rbp)
    a770:	00 00 00 00 
    a774:	c7 85 18 fc ff ff ed 	movl   $0x228308ed,-0x3e8(%rbp)
    a77b:	08 83 22 
    a77e:	48 b8 d2 b4 ca c9 37 	movabs $0xea97337c9cab4d2,%rax
    a785:	73 a9 0e 
    a788:	48 89 85 40 fc ff ff 	mov    %rax,-0x3c0(%rbp)
    a78f:	c7 85 1c fc ff ff 01 	movl   $0x1,-0x3e4(%rbp)
    a796:	00 00 00 
    a799:	66 c7 85 08 fc ff ff 	movw   $0xb046,-0x3f8(%rbp)
    a7a0:	46 b0 
    a7a2:	c7 85 20 fc ff ff 00 	movl   $0x0,-0x3e0(%rbp)
    a7a9:	00 00 00 
    a7ac:	48 c7 85 48 fc ff ff 	movq   $0x0,-0x3b8(%rbp)
    a7b3:	00 00 00 00 
    a7b7:	48 c7 85 b0 fc ff ff 	movq   $0x0,-0x350(%rbp)
    a7be:	00 00 00 00 
    a7c2:	48 8d 05 b7 c8 00 00 	lea    0xc8b7(%rip),%rax        # 17080 <g_136>
    a7c9:	48 89 85 50 fc ff ff 	mov    %rax,-0x3b0(%rbp)
    a7d0:	48 8d 85 50 fc ff ff 	lea    -0x3b0(%rbp),%rax
    a7d7:	48 89 85 b8 fc ff ff 	mov    %rax,-0x348(%rbp)
    a7de:	66 c7 85 0a fc ff ff 	movw   $0x42ef,-0x3f6(%rbp)
    a7e5:	ef 42 
    a7e7:	48 8d 05 2a de 00 00 	lea    0xde2a(%rip),%rax        # 18618 <g_675>
    a7ee:	48 89 85 80 fd ff ff 	mov    %rax,-0x280(%rbp)
    a7f5:	48 8d 05 1c de 00 00 	lea    0xde1c(%rip),%rax        # 18618 <g_675>
    a7fc:	48 89 85 88 fd ff ff 	mov    %rax,-0x278(%rbp)
    a803:	48 8d 05 0e de 00 00 	lea    0xde0e(%rip),%rax        # 18618 <g_675>
    a80a:	48 89 85 90 fd ff ff 	mov    %rax,-0x270(%rbp)
    a811:	48 8d 05 00 de 00 00 	lea    0xde00(%rip),%rax        # 18618 <g_675>
    a818:	48 89 85 98 fd ff ff 	mov    %rax,-0x268(%rbp)
    a81f:	48 8d 05 f2 dd 00 00 	lea    0xddf2(%rip),%rax        # 18618 <g_675>
    a826:	48 89 85 a0 fd ff ff 	mov    %rax,-0x260(%rbp)
    a82d:	48 8d 05 e4 dd 00 00 	lea    0xdde4(%rip),%rax        # 18618 <g_675>
    a834:	48 89 85 a8 fd ff ff 	mov    %rax,-0x258(%rbp)
    a83b:	48 8d 05 d6 dd 00 00 	lea    0xddd6(%rip),%rax        # 18618 <g_675>
    a842:	48 89 85 b0 fd ff ff 	mov    %rax,-0x250(%rbp)
    a849:	48 8d 05 c8 dd 00 00 	lea    0xddc8(%rip),%rax        # 18618 <g_675>
    a850:	48 89 85 b8 fd ff ff 	mov    %rax,-0x248(%rbp)
    a857:	48 8d 05 ba dd 00 00 	lea    0xddba(%rip),%rax        # 18618 <g_675>
    a85e:	48 89 85 c0 fd ff ff 	mov    %rax,-0x240(%rbp)
    a865:	48 b8 26 c2 3e bb 80 	movabs $0xf1cda380bb3ec226,%rax
    a86c:	a3 cd f1 
    a86f:	48 89 85 58 fc ff ff 	mov    %rax,-0x3a8(%rbp)
    a876:	c7 85 24 fc ff ff f6 	movl   $0xfffffff6,-0x3dc(%rbp)
    a87d:	ff ff ff 
    a880:	c7 85 10 fd ff ff 86 	movl   $0x6347f986,-0x2f0(%rbp)
    a887:	f9 47 63 
    a88a:	c7 85 14 fd ff ff 87 	movl   $0xc30f1587,-0x2ec(%rbp)
    a891:	15 0f c3 
    a894:	c7 85 18 fd ff ff 86 	movl   $0x6347f986,-0x2e8(%rbp)
    a89b:	f9 47 63 
    a89e:	c7 85 1c fd ff ff 86 	movl   $0x6347f986,-0x2e4(%rbp)
    a8a5:	f9 47 63 
    a8a8:	c7 85 20 fd ff ff 87 	movl   $0xc30f1587,-0x2e0(%rbp)
    a8af:	15 0f c3 
    a8b2:	c7 85 24 fd ff ff 86 	movl   $0x6347f986,-0x2dc(%rbp)
    a8b9:	f9 47 63 
    a8bc:	c7 85 28 fd ff ff 86 	movl   $0x6347f986,-0x2d8(%rbp)
    a8c3:	f9 47 63 
    a8c6:	c7 85 2c fd ff ff 87 	movl   $0xc30f1587,-0x2d4(%rbp)
    a8cd:	15 0f c3 
    a8d0:	c7 85 30 fd ff ff 86 	movl   $0x6347f986,-0x2d0(%rbp)
    a8d7:	f9 47 63 
    a8da:	c7 85 34 fd ff ff 86 	movl   $0x6347f986,-0x2cc(%rbp)
    a8e1:	f9 47 63 
    a8e4:	c7 85 38 fd ff ff 87 	movl   $0xc30f1587,-0x2c8(%rbp)
    a8eb:	15 0f c3 
    a8ee:	c7 85 3c fd ff ff 86 	movl   $0x6347f986,-0x2c4(%rbp)
    a8f5:	f9 47 63 
    a8f8:	48 8d 05 d9 de 00 00 	lea    0xded9(%rip),%rax        # 187d8 <g_1579>
    a8ff:	48 89 85 c0 fc ff ff 	mov    %rax,-0x340(%rbp)
    a906:	48 8d 05 43 dd 00 00 	lea    0xdd43(%rip),%rax        # 18650 <g_942>
    a90d:	48 89 85 c8 fc ff ff 	mov    %rax,-0x338(%rbp)
    a914:	48 8d 85 48 fc ff ff 	lea    -0x3b8(%rbp),%rax
    a91b:	48 89 85 60 fc ff ff 	mov    %rax,-0x3a0(%rbp)
    a922:	48 8d 85 60 fc ff ff 	lea    -0x3a0(%rbp),%rax
    a929:	48 89 85 d0 fc ff ff 	mov    %rax,-0x330(%rbp)
    a930:	48 8d 85 40 fc ff ff 	lea    -0x3c0(%rbp),%rax
    a937:	48 89 85 d8 fc ff ff 	mov    %rax,-0x328(%rbp)
    a93e:	c7 85 10 fc ff ff 00 	movl   $0x0,-0x3f0(%rbp)
    a945:	00 00 00 
    a948:	c6 85 10 fc ff ff fc 	movb   $0xfc,-0x3f0(%rbp)
    a94f:	c6 85 08 fd ff ff 01 	movb   $0x1,-0x2f8(%rbp)
    a956:	c7 85 0c fd ff ff fa 	movl   $0xfffffffa,-0x2f4(%rbp)
    a95d:	ff ff ff 
    a960:	48 8d 05 b1 dc 00 00 	lea    0xdcb1(%rip),%rax        # 18618 <g_675>
    a967:	48 89 85 68 fc ff ff 	mov    %rax,-0x398(%rbp)
    a96e:	48 8d 85 68 fc ff ff 	lea    -0x398(%rbp),%rax
    a975:	48 89 85 70 fc ff ff 	mov    %rax,-0x390(%rbp)
    a97c:	48 8d 85 70 fc ff ff 	lea    -0x390(%rbp),%rax
    a983:	48 89 85 e0 fc ff ff 	mov    %rax,-0x320(%rbp)
    a98a:	48 8d 85 58 fc ff ff 	lea    -0x3a8(%rbp),%rax
    a991:	48 89 85 78 fc ff ff 	mov    %rax,-0x388(%rbp)
    a998:	48 c7 85 d0 fd ff ff 	movq   $0x0,-0x230(%rbp)
    a99f:	00 00 00 00 
    a9a3:	48 c7 85 d8 fd ff ff 	movq   $0x0,-0x228(%rbp)
    a9aa:	00 00 00 00 
    a9ae:	48 8d 85 78 fc ff ff 	lea    -0x388(%rbp),%rax
    a9b5:	48 89 85 e0 fd ff ff 	mov    %rax,-0x220(%rbp)
    a9bc:	48 8d 85 78 fc ff ff 	lea    -0x388(%rbp),%rax
    a9c3:	48 89 85 e8 fd ff ff 	mov    %rax,-0x218(%rbp)
    a9ca:	48 8d 85 78 fc ff ff 	lea    -0x388(%rbp),%rax
    a9d1:	48 89 85 f0 fd ff ff 	mov    %rax,-0x210(%rbp)
    a9d8:	48 c7 85 f8 fd ff ff 	movq   $0x0,-0x208(%rbp)
    a9df:	00 00 00 00 
    a9e3:	48 c7 85 00 fe ff ff 	movq   $0x0,-0x200(%rbp)
    a9ea:	00 00 00 00 
    a9ee:	48 8d 85 78 fc ff ff 	lea    -0x388(%rbp),%rax
    a9f5:	48 89 85 08 fe ff ff 	mov    %rax,-0x1f8(%rbp)
    a9fc:	48 8d 85 78 fc ff ff 	lea    -0x388(%rbp),%rax
    aa03:	48 89 85 10 fe ff ff 	mov    %rax,-0x1f0(%rbp)
    aa0a:	48 8d 85 78 fc ff ff 	lea    -0x388(%rbp),%rax
    aa11:	48 89 85 18 fe ff ff 	mov    %rax,-0x1e8(%rbp)
    aa18:	48 c7 85 e8 fc ff ff 	movq   $0x0,-0x318(%rbp)
    aa1f:	00 00 00 00 
    aa23:	48 c7 85 80 fc ff ff 	movq   $0x0,-0x380(%rbp)
    aa2a:	00 00 00 00 
    aa2e:	48 8d 05 a3 c9 00 00 	lea    0xc9a3(%rip),%rax        # 173d8 <g_1547>
    aa35:	48 89 85 f0 fc ff ff 	mov    %rax,-0x310(%rbp)
    aa3c:	66 c7 85 06 fc ff ff 	movw   $0x0,-0x3fa(%rbp)
    aa43:	00 00 
    aa45:	c6 85 06 fc ff ff 5e 	movb   $0x5e,-0x3fa(%rbp)
    aa4c:	c6 85 02 fc ff ff 65 	movb   $0x65,-0x3fe(%rbp)
    aa53:	48 8d 05 a6 dc 00 00 	lea    0xdca6(%rip),%rax        # 18700 <g_1250+0x20>
    aa5a:	48 89 85 f8 fc ff ff 	mov    %rax,-0x308(%rbp)
    aa61:	48 8d 05 68 ed 00 00 	lea    0xed68(%rip),%rax        # 197d0 <g_1389>
    aa68:	48 89 85 00 fd ff ff 	mov    %rax,-0x300(%rbp)
    aa6f:	66 c7 85 0c fc ff ff 	movw   $0x8bee,-0x3f4(%rbp)
    aa76:	ee 8b 
    aa78:	c7 85 20 fe ff ff 00 	movl   $0x0,-0x1e0(%rbp)
    aa7f:	00 00 00 
    aa82:	c7 85 24 fe ff ff 57 	movl   $0x51b5d957,-0x1dc(%rbp)
    aa89:	d9 b5 51 
    aa8c:	c7 85 28 fe ff ff 00 	movl   $0x0,-0x1d8(%rbp)
    aa93:	00 00 00 
    aa96:	c7 85 2c fe ff ff 00 	movl   $0x0,-0x1d4(%rbp)
    aa9d:	00 00 00 
    aaa0:	c7 85 30 fe ff ff 57 	movl   $0x51b5d957,-0x1d0(%rbp)
    aaa7:	d9 b5 51 
    aaaa:	c7 85 34 fe ff ff 00 	movl   $0x0,-0x1cc(%rbp)
    aab1:	00 00 00 
    aab4:	c7 85 38 fe ff ff 00 	movl   $0x0,-0x1c8(%rbp)
    aabb:	00 00 00 
    aabe:	c7 85 3c fe ff ff 57 	movl   $0x51b5d957,-0x1c4(%rbp)
    aac5:	d9 b5 51 
    aac8:	c7 85 40 fe ff ff 57 	movl   $0x51b5d957,-0x1c0(%rbp)
    aacf:	d9 b5 51 
    aad2:	c7 85 44 fe ff ff 01 	movl   $0x1,-0x1bc(%rbp)
    aad9:	00 00 00 
    aadc:	c7 85 48 fe ff ff 57 	movl   $0x51b5d957,-0x1b8(%rbp)
    aae3:	d9 b5 51 
    aae6:	c7 85 4c fe ff ff 57 	movl   $0x51b5d957,-0x1b4(%rbp)
    aaed:	d9 b5 51 
    aaf0:	c7 85 50 fe ff ff 01 	movl   $0x1,-0x1b0(%rbp)
    aaf7:	00 00 00 
    aafa:	c7 85 54 fe ff ff 57 	movl   $0x51b5d957,-0x1ac(%rbp)
    ab01:	d9 b5 51 
    ab04:	c7 85 58 fe ff ff 57 	movl   $0x51b5d957,-0x1a8(%rbp)
    ab0b:	d9 b5 51 
    ab0e:	c7 85 5c fe ff ff 00 	movl   $0x0,-0x1a4(%rbp)
    ab15:	00 00 00 
    ab18:	c7 85 60 fe ff ff 00 	movl   $0x0,-0x1a0(%rbp)
    ab1f:	00 00 00 
    ab22:	c7 85 64 fe ff ff 57 	movl   $0x51b5d957,-0x19c(%rbp)
    ab29:	d9 b5 51 
    ab2c:	c7 85 68 fe ff ff 00 	movl   $0x0,-0x198(%rbp)
    ab33:	00 00 00 
    ab36:	c7 85 6c fe ff ff 00 	movl   $0x0,-0x194(%rbp)
    ab3d:	00 00 00 
    ab40:	c7 85 70 fe ff ff 57 	movl   $0x51b5d957,-0x190(%rbp)
    ab47:	d9 b5 51 
    ab4a:	c7 85 74 fe ff ff 00 	movl   $0x0,-0x18c(%rbp)
    ab51:	00 00 00 
    ab54:	c7 85 78 fe ff ff 57 	movl   $0x51b5d957,-0x188(%rbp)
    ab5b:	d9 b5 51 
    ab5e:	c7 85 7c fe ff ff 00 	movl   $0x0,-0x184(%rbp)
    ab65:	00 00 00 
    ab68:	c7 85 80 fe ff ff 00 	movl   $0x0,-0x180(%rbp)
    ab6f:	00 00 00 
    ab72:	c7 85 84 fe ff ff 57 	movl   $0x51b5d957,-0x17c(%rbp)
    ab79:	d9 b5 51 
    ab7c:	c7 85 88 fe ff ff 00 	movl   $0x0,-0x178(%rbp)
    ab83:	00 00 00 
    ab86:	c7 85 8c fe ff ff 00 	movl   $0x0,-0x174(%rbp)
    ab8d:	00 00 00 
    ab90:	c6 85 03 fc ff ff 2b 	movb   $0x2b,-0x3fd(%rbp)
    ab97:	c6 85 04 fc ff ff a9 	movb   $0xa9,-0x3fc(%rbp)
    ab9e:	c6 85 05 fc ff ff bd 	movb   $0xbd,-0x3fb(%rbp)
    aba5:	66 c7 85 0e fc ff ff 	movw   $0x0,-0x3f2(%rbp)
    abac:	00 00 
    abae:	c7 85 28 fc ff ff ef 	movl   $0x12f3d4ef,-0x3d8(%rbp)
    abb5:	d4 f3 12 
    abb8:	c7 85 2c fc ff ff 41 	movl   $0x9c082741,-0x3d4(%rbp)
    abbf:	27 08 9c 
    abc2:	c7 85 14 fc ff ff 00 	movl   $0x0,-0x3ec(%rbp)
    abc9:	00 00 00 
    abcc:	eb 1e                	jmp    abec <func_19+0x72a>
    abce:	8b 85 14 fc ff ff    	mov    -0x3ec(%rbp),%eax
    abd4:	48 98                	cltq   
    abd6:	48 8d 95 80 fc ff ff 	lea    -0x380(%rbp),%rdx
    abdd:	48 89 94 c5 40 fd ff 	mov    %rdx,-0x2c0(%rbp,%rax,8)
    abe4:	ff 
    abe5:	83 85 14 fc ff ff 01 	addl   $0x1,-0x3ec(%rbp)
    abec:	83 bd 14 fc ff ff 07 	cmpl   $0x7,-0x3ec(%rbp)
    abf3:	7e d9                	jle    abce <func_19+0x70c>
    abf5:	48 8b 85 30 fc ff ff 	mov    -0x3d0(%rbp),%rax
    abfc:	8b 00                	mov    (%rax),%eax
    abfe:	48 8b 4d f8          	mov    -0x8(%rbp),%rcx
    ac02:	64 48 33 0c 25 28 00 	xor    %fs:0x28,%rcx
    ac09:	00 00 
    ac0b:	74 05                	je     ac12 <func_19+0x750>
    ac0d:	e8 5e a4 ff ff       	callq  5070 <__stack_chk_fail@plt>
    ac12:	c9                   	leaveq 
    ac13:	c3                   	retq   

000000000000ac14 <func_23>:
    ac14:	f3 0f 1e fa          	endbr64 
    ac18:	55                   	push   %rbp
    ac19:	48 89 e5             	mov    %rsp,%rbp
    ac1c:	48 89 7d f8          	mov    %rdi,-0x8(%rbp)
    ac20:	89 75 f4             	mov    %esi,-0xc(%rbp)
    ac23:	48 8d 05 fa c3 00 00 	lea    0xc3fa(%rip),%rax        # 17024 <g_2>
    ac2a:	5d                   	pop    %rbp
    ac2b:	c3                   	retq   

000000000000ac2c <func_29>:
    ac2c:	f3 0f 1e fa          	endbr64 
    ac30:	55                   	push   %rbp
    ac31:	48 89 e5             	mov    %rsp,%rbp
    ac34:	41 56                	push   %r14
    ac36:	41 55                	push   %r13
    ac38:	41 54                	push   %r12
    ac3a:	53                   	push   %rbx
    ac3b:	48 81 ec 00 10 00 00 	sub    $0x1000,%rsp
    ac42:	48 83 0c 24 00       	orq    $0x0,(%rsp)
    ac47:	48 81 ec 90 03 00 00 	sub    $0x390,%rsp
    ac4e:	48 89 95 60 ec ff ff 	mov    %rdx,-0x13a0(%rbp)
    ac55:	89 c8                	mov    %ecx,%eax
    ac57:	4c 89 85 54 ec ff ff 	mov    %r8,-0x13ac(%rbp)
    ac5e:	89 fa                	mov    %edi,%edx
    ac60:	88 95 6c ec ff ff    	mov    %dl,-0x1394(%rbp)
    ac66:	89 f2                	mov    %esi,%edx
    ac68:	88 95 68 ec ff ff    	mov    %dl,-0x1398(%rbp)
    ac6e:	66 89 85 5c ec ff ff 	mov    %ax,-0x13a4(%rbp)
    ac75:	64 48 8b 04 25 28 00 	mov    %fs:0x28,%rax
    ac7c:	00 00 
    ac7e:	48 89 45 d8          	mov    %rax,-0x28(%rbp)
    ac82:	31 c0                	xor    %eax,%eax
    ac84:	48 8d 85 50 f5 ff ff 	lea    -0xab0(%rbp),%rax
    ac8b:	48 8d 15 ce 8c 00 00 	lea    0x8cce(%rip),%rdx        # 13960 <g_3098+0x14c0>
    ac92:	b9 70 00 00 00       	mov    $0x70,%ecx
    ac97:	48 89 c7             	mov    %rax,%rdi
    ac9a:	48 89 d6             	mov    %rdx,%rsi
    ac9d:	f3 48 a5             	rep movsq %ds:(%rsi),%es:(%rdi)
    aca0:	c7 85 90 ec ff ff 05 	movl   $0x5,-0x1370(%rbp)
    aca7:	00 00 00 
    acaa:	c7 85 30 ef ff ff ff 	movl   $0xffffffff,-0x10d0(%rbp)
    acb1:	ff ff ff 
    acb4:	c7 85 34 ef ff ff ff 	movl   $0xffffffff,-0x10cc(%rbp)
    acbb:	ff ff ff 
    acbe:	c7 85 38 ef ff ff ff 	movl   $0xffffffff,-0x10c8(%rbp)
    acc5:	ff ff ff 
    acc8:	c7 85 3c ef ff ff ff 	movl   $0xffffffff,-0x10c4(%rbp)
    accf:	ff ff ff 
    acd2:	c7 85 40 ef ff ff ff 	movl   $0xffffffff,-0x10c0(%rbp)
    acd9:	ff ff ff 
    acdc:	48 8d 05 2d d9 00 00 	lea    0xd92d(%rip),%rax        # 18610 <g_648>
    ace3:	48 89 85 10 ed ff ff 	mov    %rax,-0x12f0(%rbp)
    acea:	48 8d 85 10 ed ff ff 	lea    -0x12f0(%rbp),%rax
    acf1:	48 89 85 18 ed ff ff 	mov    %rax,-0x12e8(%rbp)
    acf8:	48 8d 85 18 ed ff ff 	lea    -0x12e8(%rbp),%rax
    acff:	48 89 85 20 ed ff ff 	mov    %rax,-0x12e0(%rbp)
    ad06:	48 b8 49 7c 9d fd ed 	movabs $0x52c05bedfd9d7c49,%rax
    ad0d:	5b c0 52 
    ad10:	48 89 85 28 ed ff ff 	mov    %rax,-0x12d8(%rbp)
    ad17:	48 8d 05 4b c4 00 00 	lea    0xc44b(%rip),%rax        # 17169 <g_351>
    ad1e:	48 89 85 30 ed ff ff 	mov    %rax,-0x12d0(%rbp)
    ad25:	c6 85 7f ec ff ff fd 	movb   $0xfd,-0x1381(%rbp)
    ad2c:	48 c7 85 38 ed ff ff 	movq   $0x0,-0x12c8(%rbp)
    ad33:	00 00 00 00 
    ad37:	48 8d 85 38 ed ff ff 	lea    -0x12c8(%rbp),%rax
    ad3e:	48 89 85 a0 ed ff ff 	mov    %rax,-0x1260(%rbp)
    ad45:	c7 85 00 f1 ff ff ed 	movl   $0xdd1d10ed,-0xf00(%rbp)
    ad4c:	10 1d dd 
    ad4f:	c7 85 04 f1 ff ff 13 	movl   $0x3aa25313,-0xefc(%rbp)
    ad56:	53 a2 3a 
    ad59:	c7 85 08 f1 ff ff ff 	movl   $0xffffffff,-0xef8(%rbp)
    ad60:	ff ff ff 
    ad63:	c7 85 0c f1 ff ff 51 	movl   $0xa3ac7351,-0xef4(%rbp)
    ad6a:	73 ac a3 
    ad6d:	c7 85 10 f1 ff ff cf 	movl   $0xc4d568cf,-0xef0(%rbp)
    ad74:	68 d5 c4 
    ad77:	c7 85 14 f1 ff ff 00 	movl   $0x0,-0xeec(%rbp)
    ad7e:	00 00 00 
    ad81:	c7 85 18 f1 ff ff 76 	movl   $0xd4c23b76,-0xee8(%rbp)
    ad88:	3b c2 d4 
    ad8b:	c7 85 1c f1 ff ff 00 	movl   $0x0,-0xee4(%rbp)
    ad92:	00 00 00 
    ad95:	c7 85 20 f1 ff ff cf 	movl   $0xc4d568cf,-0xee0(%rbp)
    ad9c:	68 d5 c4 
    ad9f:	c7 85 24 f1 ff ff ff 	movl   $0xffffffff,-0xedc(%rbp)
    ada6:	ff ff ff 
    ada9:	c7 85 28 f1 ff ff 09 	movl   $0x9,-0xed8(%rbp)
    adb0:	00 00 00 
    adb3:	c7 85 2c f1 ff ff 09 	movl   $0x9,-0xed4(%rbp)
    adba:	00 00 00 
    adbd:	c7 85 30 f1 ff ff ff 	movl   $0xffffffff,-0xed0(%rbp)
    adc4:	ff ff ff 
    adc7:	c7 85 34 f1 ff ff 51 	movl   $0xa3ac7351,-0xecc(%rbp)
    adce:	73 ac a3 
    add1:	c7 85 38 f1 ff ff f9 	movl   $0xfffffff9,-0xec8(%rbp)
    add8:	ff ff ff 
    addb:	c7 85 3c f1 ff ff 76 	movl   $0xd4c23b76,-0xec4(%rbp)
    ade2:	3b c2 d4 
    ade5:	c7 85 40 f1 ff ff f7 	movl   $0xfffffff7,-0xec0(%rbp)
    adec:	ff ff ff 
    adef:	c7 85 44 f1 ff ff 01 	movl   $0x1,-0xebc(%rbp)
    adf6:	00 00 00 
    adf9:	c7 85 48 f1 ff ff 51 	movl   $0xa3ac7351,-0xeb8(%rbp)
    ae00:	73 ac a3 
    ae03:	c7 85 4c f1 ff ff ff 	movl   $0xffffffff,-0xeb4(%rbp)
    ae0a:	ff ff ff 
    ae0d:	c7 85 50 f1 ff ff 13 	movl   $0x3aa25313,-0xeb0(%rbp)
    ae14:	53 a2 3a 
    ae17:	c7 85 54 f1 ff ff ed 	movl   $0xdd1d10ed,-0xeac(%rbp)
    ae1e:	10 1d dd 
    ae21:	c7 85 58 f1 ff ff 09 	movl   $0x9,-0xea8(%rbp)
    ae28:	00 00 00 
    ae2b:	c7 85 5c f1 ff ff c9 	movl   $0x1ca6c6c9,-0xea4(%rbp)
    ae32:	c6 a6 1c 
    ae35:	c7 85 60 f1 ff ff 39 	movl   $0xef799239,-0xea0(%rbp)
    ae3c:	92 79 ef 
    ae3f:	c7 85 64 f1 ff ff 01 	movl   $0x1,-0xe9c(%rbp)
    ae46:	00 00 00 
    ae49:	c7 85 68 f1 ff ff 07 	movl   $0x7,-0xe98(%rbp)
    ae50:	00 00 00 
    ae53:	c7 85 6c f1 ff ff 13 	movl   $0x3aa25313,-0xe94(%rbp)
    ae5a:	53 a2 3a 
    ae5d:	c7 85 70 f1 ff ff c9 	movl   $0x1ca6c6c9,-0xe90(%rbp)
    ae64:	c6 a6 1c 
    ae67:	c7 85 74 f1 ff ff ed 	movl   $0xdd1d10ed,-0xe8c(%rbp)
    ae6e:	10 1d dd 
    ae71:	c7 85 78 f1 ff ff f7 	movl   $0xfffffff7,-0xe88(%rbp)
    ae78:	ff ff ff 
    ae7b:	c7 85 7c f1 ff ff 51 	movl   $0xa3ac7351,-0xe84(%rbp)
    ae82:	73 ac a3 
    ae85:	c7 85 80 f1 ff ff f7 	movl   $0xfffffff7,-0xe80(%rbp)
    ae8c:	ff ff ff 
    ae8f:	c7 85 84 f1 ff ff ed 	movl   $0xdd1d10ed,-0xe7c(%rbp)
    ae96:	10 1d dd 
    ae99:	c7 85 88 f1 ff ff c9 	movl   $0x1ca6c6c9,-0xe78(%rbp)
    aea0:	c6 a6 1c 
    aea3:	c7 85 8c f1 ff ff 13 	movl   $0x3aa25313,-0xe74(%rbp)
    aeaa:	53 a2 3a 
    aead:	c7 85 90 f1 ff ff 8e 	movl   $0x72fb128e,-0xe70(%rbp)
    aeb4:	12 fb 72 
    aeb7:	c7 85 94 f1 ff ff 51 	movl   $0xa3ac7351,-0xe6c(%rbp)
    aebe:	73 ac a3 
    aec1:	c7 85 98 f1 ff ff ed 	movl   $0xdd1d10ed,-0xe68(%rbp)
    aec8:	10 1d dd 
    aecb:	c7 85 9c f1 ff ff e3 	movl   $0x734d29e3,-0xe64(%rbp)
    aed2:	29 4d 73 
    aed5:	c7 85 a0 f1 ff ff cf 	movl   $0xc4d568cf,-0xe60(%rbp)
    aedc:	68 d5 c4 
    aedf:	c7 85 a4 f1 ff ff 05 	movl   $0x5,-0xe5c(%rbp)
    aee6:	00 00 00 
    aee9:	c7 85 a8 f1 ff ff 09 	movl   $0x9,-0xe58(%rbp)
    aef0:	00 00 00 
    aef3:	c7 85 ac f1 ff ff 09 	movl   $0x9,-0xe54(%rbp)
    aefa:	00 00 00 
    aefd:	c7 85 b0 f1 ff ff f7 	movl   $0xfffffff7,-0xe50(%rbp)
    af04:	ff ff ff 
    af07:	c7 85 b4 f1 ff ff 00 	movl   $0x0,-0xe4c(%rbp)
    af0e:	00 00 00 
    af11:	c7 85 b8 f1 ff ff 39 	movl   $0xef799239,-0xe48(%rbp)
    af18:	92 79 ef 
    af1b:	c7 85 bc f1 ff ff 13 	movl   $0x3aa25313,-0xe44(%rbp)
    af22:	53 a2 3a 
    af25:	c7 85 c0 f1 ff ff 09 	movl   $0x9,-0xe40(%rbp)
    af2c:	00 00 00 
    af2f:	c7 85 c4 f1 ff ff ff 	movl   $0xffffffff,-0xe3c(%rbp)
    af36:	ff ff ff 
    af39:	c7 85 c8 f1 ff ff 8e 	movl   $0x72fb128e,-0xe38(%rbp)
    af40:	12 fb 72 
    af43:	c7 85 cc f1 ff ff ff 	movl   $0xffffffff,-0xe34(%rbp)
    af4a:	ff ff ff 
    af4d:	c7 85 d0 f1 ff ff ff 	movl   $0xffffffff,-0xe30(%rbp)
    af54:	ff ff ff 
    af57:	c7 85 d4 f1 ff ff 8e 	movl   $0x72fb128e,-0xe2c(%rbp)
    af5e:	12 fb 72 
    af61:	48 8d 05 b0 c1 00 00 	lea    0xc1b0(%rip),%rax        # 17118 <g_226+0x18>
    af68:	48 89 85 40 ed ff ff 	mov    %rax,-0x12c0(%rbp)
    af6f:	48 b8 45 a7 db f2 07 	movabs $0x90880c07f2dba745,%rax
    af76:	0c 88 90 
    af79:	48 89 85 48 ed ff ff 	mov    %rax,-0x12b8(%rbp)
    af80:	66 c7 85 60 f0 ff ff 	movw   $0xfffc,-0xfa0(%rbp)
    af87:	fc ff 
    af89:	66 c7 85 62 f0 ff ff 	movw   $0x1,-0xf9e(%rbp)
    af90:	01 00 
    af92:	66 c7 85 64 f0 ff ff 	movw   $0xfffc,-0xf9c(%rbp)
    af99:	fc ff 
    af9b:	66 c7 85 66 f0 ff ff 	movw   $0xf942,-0xf9a(%rbp)
    afa2:	42 f9 
    afa4:	66 c7 85 68 f0 ff ff 	movw   $0x2192,-0xf98(%rbp)
    afab:	92 21 
    afad:	66 c7 85 6a f0 ff ff 	movw   $0x0,-0xf96(%rbp)
    afb4:	00 00 
    afb6:	66 c7 85 6c f0 ff ff 	movw   $0x1,-0xf94(%rbp)
    afbd:	01 00 
    afbf:	66 c7 85 6e f0 ff ff 	movw   $0x1,-0xf92(%rbp)
    afc6:	01 00 
    afc8:	66 c7 85 70 f0 ff ff 	movw   $0x0,-0xf90(%rbp)
    afcf:	00 00 
    afd1:	66 c7 85 72 f0 ff ff 	movw   $0x2192,-0xf8e(%rbp)
    afd8:	92 21 
    afda:	66 c7 85 74 f0 ff ff 	movw   $0x3,-0xf8c(%rbp)
    afe1:	03 00 
    afe3:	66 c7 85 76 f0 ff ff 	movw   $0xfff6,-0xf8a(%rbp)
    afea:	f6 ff 
    afec:	66 c7 85 78 f0 ff ff 	movw   $0xfff6,-0xf88(%rbp)
    aff3:	f6 ff 
    aff5:	66 c7 85 7a f0 ff ff 	movw   $0x3,-0xf86(%rbp)
    affc:	03 00 
    affe:	66 c7 85 7c f0 ff ff 	movw   $0xfffc,-0xf84(%rbp)
    b005:	fc ff 
    b007:	66 c7 85 7e f0 ff ff 	movw   $0x5,-0xf82(%rbp)
    b00e:	05 00 
    b010:	66 c7 85 80 f0 ff ff 	movw   $0xf942,-0xf80(%rbp)
    b017:	42 f9 
    b019:	66 c7 85 82 f0 ff ff 	movw   $0x1,-0xf7e(%rbp)
    b020:	01 00 
    b022:	66 c7 85 84 f0 ff ff 	movw   $0xf942,-0xf7c(%rbp)
    b029:	42 f9 
    b02b:	66 c7 85 86 f0 ff ff 	movw   $0x5,-0xf7a(%rbp)
    b032:	05 00 
    b034:	66 c7 85 88 f0 ff ff 	movw   $0x0,-0xf78(%rbp)
    b03b:	00 00 
    b03d:	66 c7 85 8a f0 ff ff 	movw   $0x1,-0xf76(%rbp)
    b044:	01 00 
    b046:	66 c7 85 8c f0 ff ff 	movw   $0x0,-0xf74(%rbp)
    b04d:	00 00 
    b04f:	66 c7 85 8e f0 ff ff 	movw   $0x1,-0xf72(%rbp)
    b056:	01 00 
    b058:	66 c7 85 90 f0 ff ff 	movw   $0x1,-0xf70(%rbp)
    b05f:	01 00 
    b061:	66 c7 85 92 f0 ff ff 	movw   $0x3,-0xf6e(%rbp)
    b068:	03 00 
    b06a:	66 c7 85 94 f0 ff ff 	movw   $0xf942,-0xf6c(%rbp)
    b071:	42 f9 
    b073:	66 c7 85 96 f0 ff ff 	movw   $0x671e,-0xf6a(%rbp)
    b07a:	1e 67 
    b07c:	66 c7 85 98 f0 ff ff 	movw   $0x671e,-0xf68(%rbp)
    b083:	1e 67 
    b085:	66 c7 85 9a f0 ff ff 	movw   $0xf942,-0xf66(%rbp)
    b08c:	42 f9 
    b08e:	66 c7 85 9c f0 ff ff 	movw   $0xfffc,-0xf64(%rbp)
    b095:	fc ff 
    b097:	66 c7 85 9e f0 ff ff 	movw   $0x3,-0xf62(%rbp)
    b09e:	03 00 
    b0a0:	66 c7 85 a0 f0 ff ff 	movw   $0xfff6,-0xf60(%rbp)
    b0a7:	f6 ff 
    b0a9:	66 c7 85 a2 f0 ff ff 	movw   $0xfff6,-0xf5e(%rbp)
    b0b0:	f6 ff 
    b0b2:	66 c7 85 a4 f0 ff ff 	movw   $0x3,-0xf5c(%rbp)
    b0b9:	03 00 
    b0bb:	66 c7 85 a6 f0 ff ff 	movw   $0xfffc,-0xf5a(%rbp)
    b0c2:	fc ff 
    b0c4:	66 c7 85 a8 f0 ff ff 	movw   $0x5,-0xf58(%rbp)
    b0cb:	05 00 
    b0cd:	66 c7 85 aa f0 ff ff 	movw   $0xf942,-0xf56(%rbp)
    b0d4:	42 f9 
    b0d6:	66 c7 85 ac f0 ff ff 	movw   $0x1,-0xf54(%rbp)
    b0dd:	01 00 
    b0df:	66 c7 85 ae f0 ff ff 	movw   $0xf942,-0xf52(%rbp)
    b0e6:	42 f9 
    b0e8:	66 c7 85 b0 f0 ff ff 	movw   $0x1,-0xf50(%rbp)
    b0ef:	01 00 
    b0f1:	66 c7 85 b2 f0 ff ff 	movw   $0xfff6,-0xf4e(%rbp)
    b0f8:	f6 ff 
    b0fa:	66 c7 85 b4 f0 ff ff 	movw   $0x1,-0xf4c(%rbp)
    b101:	01 00 
    b103:	66 c7 85 b6 f0 ff ff 	movw   $0x671e,-0xf4a(%rbp)
    b10a:	1e 67 
    b10c:	66 c7 85 b8 f0 ff ff 	movw   $0x1,-0xf48(%rbp)
    b113:	01 00 
    b115:	66 c7 85 ba f0 ff ff 	movw   $0xfff6,-0xf46(%rbp)
    b11c:	f6 ff 
    b11e:	66 c7 85 bc f0 ff ff 	movw   $0x1,-0xf44(%rbp)
    b125:	01 00 
    b127:	66 c7 85 be f0 ff ff 	movw   $0x5,-0xf42(%rbp)
    b12e:	05 00 
    b130:	66 c7 85 c0 f0 ff ff 	movw   $0x0,-0xf40(%rbp)
    b137:	00 00 
    b139:	66 c7 85 c2 f0 ff ff 	movw   $0x0,-0xf3e(%rbp)
    b140:	00 00 
    b142:	66 c7 85 c4 f0 ff ff 	movw   $0x1,-0xf3c(%rbp)
    b149:	01 00 
    b14b:	66 c7 85 c6 f0 ff ff 	movw   $0x0,-0xf3a(%rbp)
    b152:	00 00 
    b154:	66 c7 85 c8 f0 ff ff 	movw   $0xfffc,-0xf38(%rbp)
    b15b:	fc ff 
    b15d:	66 c7 85 ca f0 ff ff 	movw   $0x0,-0xf36(%rbp)
    b164:	00 00 
    b166:	66 c7 85 cc f0 ff ff 	movw   $0x0,-0xf34(%rbp)
    b16d:	00 00 
    b16f:	66 c7 85 ce f0 ff ff 	movw   $0xfffc,-0xf32(%rbp)
    b176:	fc ff 
    b178:	66 c7 85 d0 f0 ff ff 	movw   $0x0,-0xf30(%rbp)
    b17f:	00 00 
    b181:	66 c7 85 d2 f0 ff ff 	movw   $0x1,-0xf2e(%rbp)
    b188:	01 00 
    b18a:	66 c7 85 d4 f0 ff ff 	movw   $0x3,-0xf2c(%rbp)
    b191:	03 00 
    b193:	66 c7 85 d6 f0 ff ff 	movw   $0x5,-0xf2a(%rbp)
    b19a:	05 00 
    b19c:	66 c7 85 d8 f0 ff ff 	movw   $0xfffc,-0xf28(%rbp)
    b1a3:	fc ff 
    b1a5:	66 c7 85 da f0 ff ff 	movw   $0x0,-0xf26(%rbp)
    b1ac:	00 00 
    b1ae:	66 c7 85 dc f0 ff ff 	movw   $0x1,-0xf24(%rbp)
    b1b5:	01 00 
    b1b7:	66 c7 85 de f0 ff ff 	movw   $0x3,-0xf22(%rbp)
    b1be:	03 00 
    b1c0:	66 c7 85 e0 f0 ff ff 	movw   $0x5,-0xf20(%rbp)
    b1c7:	05 00 
    b1c9:	66 c7 85 e2 f0 ff ff 	movw   $0x3,-0xf1e(%rbp)
    b1d0:	03 00 
    b1d2:	66 c7 85 e4 f0 ff ff 	movw   $0x1,-0xf1c(%rbp)
    b1d9:	01 00 
    b1db:	66 c7 85 e6 f0 ff ff 	movw   $0x0,-0xf1a(%rbp)
    b1e2:	00 00 
    b1e4:	66 c7 85 e8 f0 ff ff 	movw   $0xfffc,-0xf18(%rbp)
    b1eb:	fc ff 
    b1ed:	66 c7 85 ea f0 ff ff 	movw   $0x0,-0xf16(%rbp)
    b1f4:	00 00 
    b1f6:	66 c7 85 ec f0 ff ff 	movw   $0x1,-0xf14(%rbp)
    b1fd:	01 00 
    b1ff:	66 c7 85 ee f0 ff ff 	movw   $0xfff6,-0xf12(%rbp)
    b206:	f6 ff 
    b208:	66 c7 85 f0 f0 ff ff 	movw   $0x1,-0xf10(%rbp)
    b20f:	01 00 
    b211:	66 c7 85 f2 f0 ff ff 	movw   $0x5,-0xf0e(%rbp)
    b218:	05 00 
    b21a:	66 c7 85 f4 f0 ff ff 	movw   $0x0,-0xf0c(%rbp)
    b221:	00 00 
    b223:	66 c7 85 f6 f0 ff ff 	movw   $0x0,-0xf0a(%rbp)
    b22a:	00 00 
    b22c:	66 c7 85 f8 f0 ff ff 	movw   $0x5,-0xf08(%rbp)
    b233:	05 00 
    b235:	66 c7 85 fa f0 ff ff 	movw   $0x1,-0xf06(%rbp)
    b23c:	01 00 
    b23e:	66 c7 85 fc f0 ff ff 	movw   $0xfff6,-0xf04(%rbp)
    b245:	f6 ff 
    b247:	66 c7 85 fe f0 ff ff 	movw   $0x1,-0xf02(%rbp)
    b24e:	01 00 
    b250:	48 8d 05 e1 cf 00 00 	lea    0xcfe1(%rip),%rax        # 18238 <g_77+0xd8>
    b257:	48 89 85 78 ed ff ff 	mov    %rax,-0x1288(%rbp)
    b25e:	48 8d 05 df be 00 00 	lea    0xbedf(%rip),%rax        # 17144 <g_256>
    b265:	48 89 85 80 ed ff ff 	mov    %rax,-0x1280(%rbp)
    b26c:	48 8d 05 d1 be 00 00 	lea    0xbed1(%rip),%rax        # 17144 <g_256>
    b273:	48 89 85 88 ed ff ff 	mov    %rax,-0x1278(%rbp)
    b27a:	c7 85 94 ec ff ff 00 	movl   $0x0,-0x136c(%rbp)
    b281:	00 00 00 
    b284:	48 c7 85 50 ed ff ff 	movq   $0x0,-0x12b0(%rbp)
    b28b:	00 00 00 00 
    b28f:	c7 85 50 ed ff ff f9 	movl   $0xfffffff9,-0x12b0(%rbp)
    b296:	ff ff ff 
    b299:	66 c7 85 82 ec ff ff 	movw   $0x0,-0x137e(%rbp)
    b2a0:	00 00 
    b2a2:	48 8d 85 00 f1 ff ff 	lea    -0xf00(%rbp),%rax
    b2a9:	48 05 b0 00 00 00    	add    $0xb0,%rax
    b2af:	48 89 85 90 ed ff ff 	mov    %rax,-0x1270(%rbp)
    b2b6:	c7 85 a4 ec ff ff 00 	movl   $0x0,-0x135c(%rbp)
    b2bd:	00 00 00 
    b2c0:	eb 1e                	jmp    b2e0 <func_29+0x6b4>
    b2c2:	8b 85 a4 ec ff ff    	mov    -0x135c(%rbp),%eax
    b2c8:	48 98                	cltq   
    b2ca:	48 8d 15 b2 c0 00 00 	lea    0xc0b2(%rip),%rdx        # 17383 <g_893+0x3>
    b2d1:	48 89 94 c5 70 ef ff 	mov    %rdx,-0x1090(%rbp,%rax,8)
    b2d8:	ff 
    b2d9:	83 85 a4 ec ff ff 01 	addl   $0x1,-0x135c(%rbp)
    b2e0:	83 bd a4 ec ff ff 03 	cmpl   $0x3,-0x135c(%rbp)
    b2e7:	7e d9                	jle    b2c2 <func_29+0x696>
    b2e9:	c7 85 a4 ec ff ff 00 	movl   $0x0,-0x135c(%rbp)
    b2f0:	00 00 00 
    b2f3:	eb 21                	jmp    b316 <func_29+0x6ea>
    b2f5:	8b 85 a4 ec ff ff    	mov    -0x135c(%rbp),%eax
    b2fb:	48 98                	cltq   
    b2fd:	48 bb 3b e4 95 fa 56 	movabs $0x3fbd1256fa95e43b,%rbx
    b304:	12 bd 3f 
    b307:	48 89 9c c5 10 f0 ff 	mov    %rbx,-0xff0(%rbp,%rax,8)
    b30e:	ff 
    b30f:	83 85 a4 ec ff ff 01 	addl   $0x1,-0x135c(%rbp)
    b316:	83 bd a4 ec ff ff 09 	cmpl   $0x9,-0x135c(%rbp)
    b31d:	7e d6                	jle    b2f5 <func_29+0x6c9>
    b31f:	c7 85 a4 ec ff ff 00 	movl   $0x0,-0x135c(%rbp)
    b326:	00 00 00 
    b329:	eb 1b                	jmp    b346 <func_29+0x71a>
    b32b:	8b 85 a4 ec ff ff    	mov    -0x135c(%rbp),%eax
    b331:	48 98                	cltq   
    b333:	48 c7 84 c5 f8 ee ff 	movq   $0x6,-0x1108(%rbp,%rax,8)
    b33a:	ff 06 00 00 00 
    b33f:	83 85 a4 ec ff ff 01 	addl   $0x1,-0x135c(%rbp)
    b346:	83 bd a4 ec ff ff 00 	cmpl   $0x0,-0x135c(%rbp)
    b34d:	7e dc                	jle    b32b <func_29+0x6ff>
    b34f:	90                   	nop
    b350:	c6 05 29 bd 00 00 00 	movb   $0x0,0xbd29(%rip)        # 17080 <g_136>
    b357:	e9 6f 0d 00 00       	jmpq   c0cb <func_29+0x149f>
    b35c:	c7 85 98 ec ff ff 29 	movl   $0xe72a9629,-0x1368(%rbp)
    b363:	96 2a e7 
    b366:	48 8d 05 e7 bc 00 00 	lea    0xbce7(%rip),%rax        # 17054 <g_61+0x14>
    b36d:	48 89 85 80 ee ff ff 	mov    %rax,-0x1180(%rbp)
    b374:	c7 85 9c ec ff ff 32 	movl   $0x92261732,-0x1364(%rbp)
    b37b:	17 26 92 
    b37e:	48 8d 05 d9 bc 00 00 	lea    0xbcd9(%rip),%rax        # 1705e <g_81>
    b385:	48 89 85 88 ee ff ff 	mov    %rax,-0x1178(%rbp)
    b38c:	66 c7 85 84 ec ff ff 	movw   $0x0,-0x137c(%rbp)
    b393:	00 00 
    b395:	c6 85 84 ec ff ff 32 	movb   $0x32,-0x137c(%rbp)
    b39c:	48 8d 05 e1 bc 00 00 	lea    0xbce1(%rip),%rax        # 17084 <g_136+0x4>
    b3a3:	48 89 85 90 ee ff ff 	mov    %rax,-0x1170(%rbp)
    b3aa:	48 c7 85 50 f3 ff ff 	movq   $0x0,-0xcb0(%rbp)
    b3b1:	00 00 00 00 
    b3b5:	48 c7 85 58 f3 ff ff 	movq   $0x0,-0xca8(%rbp)
    b3bc:	00 00 00 00 
    b3c0:	48 8d 05 81 be 00 00 	lea    0xbe81(%rip),%rax        # 17248 <g_649+0xc8>
    b3c7:	48 89 85 60 f3 ff ff 	mov    %rax,-0xca0(%rbp)
    b3ce:	48 c7 85 68 f3 ff ff 	movq   $0x0,-0xc98(%rbp)
    b3d5:	00 00 00 00 
    b3d9:	48 c7 85 70 f3 ff ff 	movq   $0x0,-0xc90(%rbp)
    b3e0:	00 00 00 00 
    b3e4:	48 8d 05 d5 bd 00 00 	lea    0xbdd5(%rip),%rax        # 171c0 <g_649+0x40>
    b3eb:	48 89 85 78 f3 ff ff 	mov    %rax,-0xc88(%rbp)
    b3f2:	48 c7 85 80 f3 ff ff 	movq   $0x0,-0xc80(%rbp)
    b3f9:	00 00 00 00 
    b3fd:	48 c7 85 88 f3 ff ff 	movq   $0x0,-0xc78(%rbp)
    b404:	00 00 00 00 
    b408:	48 8d 05 39 be 00 00 	lea    0xbe39(%rip),%rax        # 17248 <g_649+0xc8>
    b40f:	48 89 85 90 f3 ff ff 	mov    %rax,-0xc70(%rbp)
    b416:	48 c7 85 98 f3 ff ff 	movq   $0x0,-0xc68(%rbp)
    b41d:	00 00 00 00 
    b421:	48 c7 85 a0 f3 ff ff 	movq   $0x0,-0xc60(%rbp)
    b428:	00 00 00 00 
    b42c:	48 8d 05 8d bd 00 00 	lea    0xbd8d(%rip),%rax        # 171c0 <g_649+0x40>
    b433:	48 89 85 a8 f3 ff ff 	mov    %rax,-0xc58(%rbp)
    b43a:	48 c7 85 b0 f3 ff ff 	movq   $0x0,-0xc50(%rbp)
    b441:	00 00 00 00 
    b445:	48 c7 85 b8 f3 ff ff 	movq   $0x0,-0xc48(%rbp)
    b44c:	00 00 00 00 
    b450:	48 8d 05 f1 bd 00 00 	lea    0xbdf1(%rip),%rax        # 17248 <g_649+0xc8>
    b457:	48 89 85 c0 f3 ff ff 	mov    %rax,-0xc40(%rbp)
    b45e:	48 c7 85 c8 f3 ff ff 	movq   $0x0,-0xc38(%rbp)
    b465:	00 00 00 00 
    b469:	48 c7 85 d0 f3 ff ff 	movq   $0x0,-0xc30(%rbp)
    b470:	00 00 00 00 
    b474:	48 8d 05 45 bd 00 00 	lea    0xbd45(%rip),%rax        # 171c0 <g_649+0x40>
    b47b:	48 89 85 d8 f3 ff ff 	mov    %rax,-0xc28(%rbp)
    b482:	48 c7 85 e0 f3 ff ff 	movq   $0x0,-0xc20(%rbp)
    b489:	00 00 00 00 
    b48d:	48 c7 85 e8 f3 ff ff 	movq   $0x0,-0xc18(%rbp)
    b494:	00 00 00 00 
    b498:	48 8d 05 a9 bd 00 00 	lea    0xbda9(%rip),%rax        # 17248 <g_649+0xc8>
    b49f:	48 89 85 f0 f3 ff ff 	mov    %rax,-0xc10(%rbp)
    b4a6:	48 c7 85 f8 f3 ff ff 	movq   $0x0,-0xc08(%rbp)
    b4ad:	00 00 00 00 
    b4b1:	48 c7 85 00 f4 ff ff 	movq   $0x0,-0xc00(%rbp)
    b4b8:	00 00 00 00 
    b4bc:	48 8d 05 fd bc 00 00 	lea    0xbcfd(%rip),%rax        # 171c0 <g_649+0x40>
    b4c3:	48 89 85 08 f4 ff ff 	mov    %rax,-0xbf8(%rbp)
    b4ca:	48 c7 85 10 f4 ff ff 	movq   $0x0,-0xbf0(%rbp)
    b4d1:	00 00 00 00 
    b4d5:	48 c7 85 18 f4 ff ff 	movq   $0x0,-0xbe8(%rbp)
    b4dc:	00 00 00 00 
    b4e0:	48 8d 05 61 bd 00 00 	lea    0xbd61(%rip),%rax        # 17248 <g_649+0xc8>
    b4e7:	48 89 85 20 f4 ff ff 	mov    %rax,-0xbe0(%rbp)
    b4ee:	48 8d 85 50 f3 ff ff 	lea    -0xcb0(%rbp),%rax
    b4f5:	48 05 98 00 00 00    	add    $0x98,%rax
    b4fb:	48 89 85 60 ed ff ff 	mov    %rax,-0x12a0(%rbp)
    b502:	48 8d 85 60 ed ff ff 	lea    -0x12a0(%rbp),%rax
    b509:	48 89 85 68 ed ff ff 	mov    %rax,-0x1298(%rbp)
    b510:	48 8d 85 68 ed ff ff 	lea    -0x1298(%rbp),%rax
    b517:	48 89 85 98 ee ff ff 	mov    %rax,-0x1168(%rbp)
    b51e:	c7 85 a0 ec ff ff ff 	movl   $0xffffffff,-0x1360(%rbp)
    b525:	ff ff ff 
    b528:	66 c7 05 47 bb 00 00 	movw   $0x0,0xbb47(%rip)        # 17078 <g_92>
    b52f:	00 00 
    b531:	e9 74 0b 00 00       	jmpq   c0aa <func_29+0x147e>
    b536:	48 8d 05 21 bb 00 00 	lea    0xbb21(%rip),%rax        # 1705e <g_81>
    b53d:	48 89 85 70 ed ff ff 	mov    %rax,-0x1290(%rbp)
    b544:	48 c7 85 a0 ee ff ff 	movq   $0x0,-0x1160(%rbp)
    b54b:	00 00 00 00 
    b54f:	48 c7 85 d0 f8 ff ff 	movq   $0x0,-0x730(%rbp)
    b556:	00 00 00 00 
    b55a:	48 8d 85 70 ed ff ff 	lea    -0x1290(%rbp),%rax
    b561:	48 89 85 d8 f8 ff ff 	mov    %rax,-0x728(%rbp)
    b568:	48 c7 85 e0 f8 ff ff 	movq   $0x0,-0x720(%rbp)
    b56f:	00 00 00 00 
    b573:	48 c7 85 e8 f8 ff ff 	movq   $0x0,-0x718(%rbp)
    b57a:	00 00 00 00 
    b57e:	48 8d 85 70 ed ff ff 	lea    -0x1290(%rbp),%rax
    b585:	48 89 85 f0 f8 ff ff 	mov    %rax,-0x710(%rbp)
    b58c:	48 8d 85 70 ed ff ff 	lea    -0x1290(%rbp),%rax
    b593:	48 89 85 f8 f8 ff ff 	mov    %rax,-0x708(%rbp)
    b59a:	48 c7 85 00 f9 ff ff 	movq   $0x0,-0x700(%rbp)
    b5a1:	00 00 00 00 
    b5a5:	48 8d 85 70 ed ff ff 	lea    -0x1290(%rbp),%rax
    b5ac:	48 89 85 08 f9 ff ff 	mov    %rax,-0x6f8(%rbp)
    b5b3:	48 c7 85 10 f9 ff ff 	movq   $0x0,-0x6f0(%rbp)
    b5ba:	00 00 00 00 
    b5be:	48 8d 85 70 ed ff ff 	lea    -0x1290(%rbp),%rax
    b5c5:	48 89 85 18 f9 ff ff 	mov    %rax,-0x6e8(%rbp)
    b5cc:	48 c7 85 20 f9 ff ff 	movq   $0x0,-0x6e0(%rbp)
    b5d3:	00 00 00 00 
    b5d7:	48 8d 85 70 ed ff ff 	lea    -0x1290(%rbp),%rax
    b5de:	48 89 85 28 f9 ff ff 	mov    %rax,-0x6d8(%rbp)
    b5e5:	48 8d 85 70 ed ff ff 	lea    -0x1290(%rbp),%rax
    b5ec:	48 89 85 30 f9 ff ff 	mov    %rax,-0x6d0(%rbp)
    b5f3:	48 c7 85 38 f9 ff ff 	movq   $0x0,-0x6c8(%rbp)
    b5fa:	00 00 00 00 
    b5fe:	48 8d 85 70 ed ff ff 	lea    -0x1290(%rbp),%rax
    b605:	48 89 85 40 f9 ff ff 	mov    %rax,-0x6c0(%rbp)
    b60c:	48 c7 85 48 f9 ff ff 	movq   $0x0,-0x6b8(%rbp)
    b613:	00 00 00 00 
    b617:	48 8d 85 70 ed ff ff 	lea    -0x1290(%rbp),%rax
    b61e:	48 89 85 50 f9 ff ff 	mov    %rax,-0x6b0(%rbp)
    b625:	48 c7 85 58 f9 ff ff 	movq   $0x0,-0x6a8(%rbp)
    b62c:	00 00 00 00 
    b630:	48 8d 85 70 ed ff ff 	lea    -0x1290(%rbp),%rax
    b637:	48 89 85 60 f9 ff ff 	mov    %rax,-0x6a0(%rbp)
    b63e:	48 8d 85 70 ed ff ff 	lea    -0x1290(%rbp),%rax
    b645:	48 89 85 68 f9 ff ff 	mov    %rax,-0x698(%rbp)
    b64c:	48 c7 85 70 f9 ff ff 	movq   $0x0,-0x690(%rbp)
    b653:	00 00 00 00 
    b657:	48 8d 85 70 ed ff ff 	lea    -0x1290(%rbp),%rax
    b65e:	48 89 85 78 f9 ff ff 	mov    %rax,-0x688(%rbp)
    b665:	48 c7 85 80 f9 ff ff 	movq   $0x0,-0x680(%rbp)
    b66c:	00 00 00 00 
    b670:	48 8d 85 70 ed ff ff 	lea    -0x1290(%rbp),%rax
    b677:	48 89 85 88 f9 ff ff 	mov    %rax,-0x678(%rbp)
    b67e:	48 c7 85 90 f9 ff ff 	movq   $0x0,-0x670(%rbp)
    b685:	00 00 00 00 
    b689:	48 8d 85 70 ed ff ff 	lea    -0x1290(%rbp),%rax
    b690:	48 89 85 98 f9 ff ff 	mov    %rax,-0x668(%rbp)
    b697:	48 8d 85 70 ed ff ff 	lea    -0x1290(%rbp),%rax
    b69e:	48 89 85 a0 f9 ff ff 	mov    %rax,-0x660(%rbp)
    b6a5:	48 c7 85 a8 f9 ff ff 	movq   $0x0,-0x658(%rbp)
    b6ac:	00 00 00 00 
    b6b0:	48 c7 85 b0 f9 ff ff 	movq   $0x0,-0x650(%rbp)
    b6b7:	00 00 00 00 
    b6bb:	48 8d 85 70 ed ff ff 	lea    -0x1290(%rbp),%rax
    b6c2:	48 89 85 b8 f9 ff ff 	mov    %rax,-0x648(%rbp)
    b6c9:	48 c7 85 c0 f9 ff ff 	movq   $0x0,-0x640(%rbp)
    b6d0:	00 00 00 00 
    b6d4:	48 8d 85 70 ed ff ff 	lea    -0x1290(%rbp),%rax
    b6db:	48 89 85 c8 f9 ff ff 	mov    %rax,-0x638(%rbp)
    b6e2:	48 c7 85 d0 f9 ff ff 	movq   $0x0,-0x630(%rbp)
    b6e9:	00 00 00 00 
    b6ed:	48 c7 85 d8 f9 ff ff 	movq   $0x0,-0x628(%rbp)
    b6f4:	00 00 00 00 
    b6f8:	48 8d 85 70 ed ff ff 	lea    -0x1290(%rbp),%rax
    b6ff:	48 89 85 e0 f9 ff ff 	mov    %rax,-0x620(%rbp)
    b706:	48 8d 85 70 ed ff ff 	lea    -0x1290(%rbp),%rax
    b70d:	48 89 85 e8 f9 ff ff 	mov    %rax,-0x618(%rbp)
    b714:	48 8d 85 70 ed ff ff 	lea    -0x1290(%rbp),%rax
    b71b:	48 89 85 f0 f9 ff ff 	mov    %rax,-0x610(%rbp)
    b722:	48 8d 05 cf ce 00 00 	lea    0xcecf(%rip),%rax        # 185f8 <g_613>
    b729:	48 89 85 f8 f9 ff ff 	mov    %rax,-0x608(%rbp)
    b730:	48 8d 85 70 ed ff ff 	lea    -0x1290(%rbp),%rax
    b737:	48 89 85 00 fa ff ff 	mov    %rax,-0x600(%rbp)
    b73e:	48 8d 85 70 ed ff ff 	lea    -0x1290(%rbp),%rax
    b745:	48 89 85 08 fa ff ff 	mov    %rax,-0x5f8(%rbp)
    b74c:	48 8d 85 70 ed ff ff 	lea    -0x1290(%rbp),%rax
    b753:	48 89 85 10 fa ff ff 	mov    %rax,-0x5f0(%rbp)
    b75a:	48 c7 85 18 fa ff ff 	movq   $0x0,-0x5e8(%rbp)
    b761:	00 00 00 00 
    b765:	48 c7 85 20 fa ff ff 	movq   $0x0,-0x5e0(%rbp)
    b76c:	00 00 00 00 
    b770:	48 8d 85 70 ed ff ff 	lea    -0x1290(%rbp),%rax
    b777:	48 89 85 28 fa ff ff 	mov    %rax,-0x5d8(%rbp)
    b77e:	48 c7 85 30 fa ff ff 	movq   $0x0,-0x5d0(%rbp)
    b785:	00 00 00 00 
    b789:	48 8d 85 70 ed ff ff 	lea    -0x1290(%rbp),%rax
    b790:	48 89 85 38 fa ff ff 	mov    %rax,-0x5c8(%rbp)
    b797:	48 c7 85 40 fa ff ff 	movq   $0x0,-0x5c0(%rbp)
    b79e:	00 00 00 00 
    b7a2:	48 c7 85 48 fa ff ff 	movq   $0x0,-0x5b8(%rbp)
    b7a9:	00 00 00 00 
    b7ad:	48 8d 85 70 ed ff ff 	lea    -0x1290(%rbp),%rax
    b7b4:	48 89 85 50 fa ff ff 	mov    %rax,-0x5b0(%rbp)
    b7bb:	48 8d 85 70 ed ff ff 	lea    -0x1290(%rbp),%rax
    b7c2:	48 89 85 58 fa ff ff 	mov    %rax,-0x5a8(%rbp)
    b7c9:	48 c7 85 60 fa ff ff 	movq   $0x0,-0x5a0(%rbp)
    b7d0:	00 00 00 00 
    b7d4:	48 8d 85 70 ed ff ff 	lea    -0x1290(%rbp),%rax
    b7db:	48 89 85 68 fa ff ff 	mov    %rax,-0x598(%rbp)
    b7e2:	48 c7 85 70 fa ff ff 	movq   $0x0,-0x590(%rbp)
    b7e9:	00 00 00 00 
    b7ed:	48 8d 85 70 ed ff ff 	lea    -0x1290(%rbp),%rax
    b7f4:	48 89 85 78 fa ff ff 	mov    %rax,-0x588(%rbp)
    b7fb:	48 c7 85 80 fa ff ff 	movq   $0x0,-0x580(%rbp)
    b802:	00 00 00 00 
    b806:	48 8d 85 70 ed ff ff 	lea    -0x1290(%rbp),%rax
    b80d:	48 89 85 88 fa ff ff 	mov    %rax,-0x578(%rbp)
    b814:	48 8d 85 70 ed ff ff 	lea    -0x1290(%rbp),%rax
    b81b:	48 89 85 90 fa ff ff 	mov    %rax,-0x570(%rbp)
    b822:	48 c7 85 98 fa ff ff 	movq   $0x0,-0x568(%rbp)
    b829:	00 00 00 00 
    b82d:	48 8d 85 70 ed ff ff 	lea    -0x1290(%rbp),%rax
    b834:	48 89 85 a0 fa ff ff 	mov    %rax,-0x560(%rbp)
    b83b:	48 c7 85 a8 fa ff ff 	movq   $0x0,-0x558(%rbp)
    b842:	00 00 00 00 
    b846:	48 8d 85 70 ed ff ff 	lea    -0x1290(%rbp),%rax
    b84d:	48 89 85 b0 fa ff ff 	mov    %rax,-0x550(%rbp)
    b854:	48 c7 85 b8 fa ff ff 	movq   $0x0,-0x548(%rbp)
    b85b:	00 00 00 00 
    b85f:	48 8d 85 70 ed ff ff 	lea    -0x1290(%rbp),%rax
    b866:	48 89 85 c0 fa ff ff 	mov    %rax,-0x540(%rbp)
    b86d:	48 8d 85 70 ed ff ff 	lea    -0x1290(%rbp),%rax
    b874:	48 89 85 c8 fa ff ff 	mov    %rax,-0x538(%rbp)
    b87b:	48 c7 85 d0 fa ff ff 	movq   $0x0,-0x530(%rbp)
    b882:	00 00 00 00 
    b886:	48 8d 85 70 ed ff ff 	lea    -0x1290(%rbp),%rax
    b88d:	48 89 85 d8 fa ff ff 	mov    %rax,-0x528(%rbp)
    b894:	48 c7 85 e0 fa ff ff 	movq   $0x0,-0x520(%rbp)
    b89b:	00 00 00 00 
    b89f:	48 8d 85 70 ed ff ff 	lea    -0x1290(%rbp),%rax
    b8a6:	48 89 85 e8 fa ff ff 	mov    %rax,-0x518(%rbp)
    b8ad:	48 c7 85 f0 fa ff ff 	movq   $0x0,-0x510(%rbp)
    b8b4:	00 00 00 00 
    b8b8:	48 8d 85 70 ed ff ff 	lea    -0x1290(%rbp),%rax
    b8bf:	48 89 85 f8 fa ff ff 	mov    %rax,-0x508(%rbp)
    b8c6:	48 8d 85 70 ed ff ff 	lea    -0x1290(%rbp),%rax
    b8cd:	48 89 85 00 fb ff ff 	mov    %rax,-0x500(%rbp)
    b8d4:	48 c7 85 08 fb ff ff 	movq   $0x0,-0x4f8(%rbp)
    b8db:	00 00 00 00 
    b8df:	48 c7 85 10 fb ff ff 	movq   $0x0,-0x4f0(%rbp)
    b8e6:	00 00 00 00 
    b8ea:	48 8d 85 70 ed ff ff 	lea    -0x1290(%rbp),%rax
    b8f1:	48 89 85 18 fb ff ff 	mov    %rax,-0x4e8(%rbp)
    b8f8:	48 c7 85 20 fb ff ff 	movq   $0x0,-0x4e0(%rbp)
    b8ff:	00 00 00 00 
    b903:	48 8d 85 70 ed ff ff 	lea    -0x1290(%rbp),%rax
    b90a:	48 89 85 28 fb ff ff 	mov    %rax,-0x4d8(%rbp)
    b911:	48 c7 85 30 fb ff ff 	movq   $0x0,-0x4d0(%rbp)
    b918:	00 00 00 00 
    b91c:	48 c7 85 38 fb ff ff 	movq   $0x0,-0x4c8(%rbp)
    b923:	00 00 00 00 
    b927:	48 8d 85 70 ed ff ff 	lea    -0x1290(%rbp),%rax
    b92e:	48 89 85 40 fb ff ff 	mov    %rax,-0x4c0(%rbp)
    b935:	48 8d 85 70 ed ff ff 	lea    -0x1290(%rbp),%rax
    b93c:	48 89 85 48 fb ff ff 	mov    %rax,-0x4b8(%rbp)
    b943:	48 8d 85 70 ed ff ff 	lea    -0x1290(%rbp),%rax
    b94a:	48 89 85 50 fb ff ff 	mov    %rax,-0x4b0(%rbp)
    b951:	48 8d 05 a0 cc 00 00 	lea    0xcca0(%rip),%rax        # 185f8 <g_613>
    b958:	48 89 85 58 fb ff ff 	mov    %rax,-0x4a8(%rbp)
    b95f:	48 8d 85 70 ed ff ff 	lea    -0x1290(%rbp),%rax
    b966:	48 89 85 60 fb ff ff 	mov    %rax,-0x4a0(%rbp)
    b96d:	48 8d 85 70 ed ff ff 	lea    -0x1290(%rbp),%rax
    b974:	48 89 85 68 fb ff ff 	mov    %rax,-0x498(%rbp)
    b97b:	48 8d 85 70 ed ff ff 	lea    -0x1290(%rbp),%rax
    b982:	48 89 85 70 fb ff ff 	mov    %rax,-0x490(%rbp)
    b989:	48 c7 85 78 fb ff ff 	movq   $0x0,-0x488(%rbp)
    b990:	00 00 00 00 
    b994:	48 c7 85 80 fb ff ff 	movq   $0x0,-0x480(%rbp)
    b99b:	00 00 00 00 
    b99f:	48 8d 85 70 ed ff ff 	lea    -0x1290(%rbp),%rax
    b9a6:	48 89 85 88 fb ff ff 	mov    %rax,-0x478(%rbp)
    b9ad:	48 c7 85 90 fb ff ff 	movq   $0x0,-0x470(%rbp)
    b9b4:	00 00 00 00 
    b9b8:	48 8d 85 70 ed ff ff 	lea    -0x1290(%rbp),%rax
    b9bf:	48 89 85 98 fb ff ff 	mov    %rax,-0x468(%rbp)
    b9c6:	48 c7 85 a0 fb ff ff 	movq   $0x0,-0x460(%rbp)
    b9cd:	00 00 00 00 
    b9d1:	48 c7 85 a8 fb ff ff 	movq   $0x0,-0x458(%rbp)
    b9d8:	00 00 00 00 
    b9dc:	48 8d 85 70 ed ff ff 	lea    -0x1290(%rbp),%rax
    b9e3:	48 89 85 b0 fb ff ff 	mov    %rax,-0x450(%rbp)
    b9ea:	48 8d 85 70 ed ff ff 	lea    -0x1290(%rbp),%rax
    b9f1:	48 89 85 b8 fb ff ff 	mov    %rax,-0x448(%rbp)
    b9f8:	48 c7 85 c0 fb ff ff 	movq   $0x0,-0x440(%rbp)
    b9ff:	00 00 00 00 
    ba03:	48 8d 85 70 ed ff ff 	lea    -0x1290(%rbp),%rax
    ba0a:	48 89 85 c8 fb ff ff 	mov    %rax,-0x438(%rbp)
    ba11:	48 c7 85 a8 ee ff ff 	movq   $0x0,-0x1158(%rbp)
    ba18:	00 00 00 00 
    ba1c:	48 8d 05 c1 b8 00 00 	lea    0xb8c1(%rip),%rax        # 172e4 <g_788+0x44>
    ba23:	48 89 85 b0 ee ff ff 	mov    %rax,-0x1150(%rbp)
    ba2a:	48 8d 05 6b dd 00 00 	lea    0xdd6b(%rip),%rax        # 1979c <g_317>
    ba31:	48 89 85 b8 ee ff ff 	mov    %rax,-0x1148(%rbp)
    ba38:	48 c7 85 c0 ee ff ff 	movq   $0x0,-0x1140(%rbp)
    ba3f:	00 00 00 00 
    ba43:	48 8d 85 9c ec ff ff 	lea    -0x1364(%rbp),%rax
    ba4a:	48 89 85 f0 ee ff ff 	mov    %rax,-0x1110(%rbp)
    ba51:	48 8d 05 78 c7 00 00 	lea    0xc778(%rip),%rax        # 181d0 <g_77+0x70>
    ba58:	48 89 85 c8 ee ff ff 	mov    %rax,-0x1138(%rbp)
    ba5f:	48 8d 05 2a dd 00 00 	lea    0xdd2a(%rip),%rax        # 19790 <g_78>
    ba66:	48 89 85 d0 ee ff ff 	mov    %rax,-0x1130(%rbp)
    ba6d:	48 8d 05 f5 b6 00 00 	lea    0xb6f5(%rip),%rax        # 17169 <g_351>
    ba74:	48 89 85 d0 ef ff ff 	mov    %rax,-0x1030(%rbp)
    ba7b:	48 8d 05 e7 b6 00 00 	lea    0xb6e7(%rip),%rax        # 17169 <g_351>
    ba82:	48 89 85 d8 ef ff ff 	mov    %rax,-0x1028(%rbp)
    ba89:	48 8d 05 d9 b6 00 00 	lea    0xb6d9(%rip),%rax        # 17169 <g_351>
    ba90:	48 89 85 e0 ef ff ff 	mov    %rax,-0x1020(%rbp)
    ba97:	48 8d 05 cb b6 00 00 	lea    0xb6cb(%rip),%rax        # 17169 <g_351>
    ba9e:	48 89 85 e8 ef ff ff 	mov    %rax,-0x1018(%rbp)
    baa5:	48 8d 05 bd b6 00 00 	lea    0xb6bd(%rip),%rax        # 17169 <g_351>
    baac:	48 89 85 f0 ef ff ff 	mov    %rax,-0x1010(%rbp)
    bab3:	48 8d 05 af b6 00 00 	lea    0xb6af(%rip),%rax        # 17169 <g_351>
    baba:	48 89 85 f8 ef ff ff 	mov    %rax,-0x1008(%rbp)
    bac1:	48 8d 05 a1 b6 00 00 	lea    0xb6a1(%rip),%rax        # 17169 <g_351>
    bac8:	48 89 85 00 f0 ff ff 	mov    %rax,-0x1000(%rbp)
    bacf:	66 c7 85 86 ec ff ff 	movw   $0x0,-0x137a(%rbp)
    bad6:	00 00 
    bad8:	c6 85 86 ec ff ff f6 	movb   $0xf6,-0x137a(%rbp)
    badf:	48 8d 85 98 ec ff ff 	lea    -0x1368(%rbp),%rax
    bae6:	48 89 85 d8 ee ff ff 	mov    %rax,-0x1128(%rbp)
    baed:	48 8d 05 7c b6 00 00 	lea    0xb67c(%rip),%rax        # 17170 <g_585>
    baf4:	48 89 85 e0 ee ff ff 	mov    %rax,-0x1120(%rbp)
    bafb:	c7 85 9c ec ff ff 01 	movl   $0x1,-0x1364(%rbp)
    bb02:	00 00 00 
    bb05:	66 c7 05 50 b5 00 00 	movw   $0x3,0xb550(%rip)        # 1705e <g_81>
    bb0c:	03 00 
    bb0e:	eb 27                	jmp    bb37 <func_29+0xf0b>
    bb10:	48 c7 85 b8 ee ff ff 	movq   $0x0,-0x1148(%rbp)
    bb17:	00 00 00 00 
    bb1b:	48 8b 05 16 cb 00 00 	mov    0xcb16(%rip),%rax        # 18638 <g_771>
    bb22:	8b 00                	mov    (%rax),%eax
    bb24:	85 c0                	test   %eax,%eax
    bb26:	0f b7 05 31 b5 00 00 	movzwl 0xb531(%rip),%eax        # 1705e <g_81>
    bb2d:	83 e8 01             	sub    $0x1,%eax
    bb30:	66 89 05 27 b5 00 00 	mov    %ax,0xb527(%rip)        # 1705e <g_81>
    bb37:	0f b7 05 20 b5 00 00 	movzwl 0xb520(%rip),%eax        # 1705e <g_81>
    bb3e:	66 85 c0             	test   %ax,%ax
    bb41:	79 cd                	jns    bb10 <func_29+0xee4>
    bb43:	8b 9d 40 f8 ff ff    	mov    -0x7c0(%rbp),%ebx
    bb49:	8b 85 40 f8 ff ff    	mov    -0x7c0(%rbp),%eax
    bb4f:	48 98                	cltq   
    bb51:	48 89 c6             	mov    %rax,%rsi
    bb54:	bf 00 00 00 00       	mov    $0x0,%edi
    bb59:	e8 e3 9c ff ff       	callq  5841 <safe_add_func_int64_t_s_s>
    bb5e:	48 89 c2             	mov    %rax,%rdx
    bb61:	8b 85 14 f6 ff ff    	mov    -0x9ec(%rbp),%eax
    bb67:	48 98                	cltq   
    bb69:	48 89 d6             	mov    %rdx,%rsi
    bb6c:	48 89 c7             	mov    %rax,%rdi
    bb6f:	e8 3b a5 ff ff       	callq  60af <safe_div_func_uint64_t_u_u>
    bb74:	89 c2                	mov    %eax,%edx
    bb76:	0f b6 85 84 ec ff ff 	movzbl -0x137c(%rbp),%eax
    bb7d:	0f b6 c0             	movzbl %al,%eax
    bb80:	31 d0                	xor    %edx,%eax
    bb82:	89 de                	mov    %ebx,%esi
    bb84:	89 c7                	mov    %eax,%edi
    bb86:	e8 7a 9a ff ff       	callq  5605 <safe_sub_func_int32_t_s_s>
    bb8b:	48 98                	cltq   
    bb8d:	48 39 85 60 ec ff ff 	cmp    %rax,-0x13a0(%rbp)
    bb94:	0f 95 c0             	setne  %al
    bb97:	0f b6 d0             	movzbl %al,%edx
    bb9a:	0f b6 85 54 ec ff ff 	movzbl -0x13ac(%rbp),%eax
    bba1:	0f b6 c0             	movzbl %al,%eax
    bba4:	39 c2                	cmp    %eax,%edx
    bba6:	0f 9c c0             	setl   %al
    bba9:	89 c2                	mov    %eax,%edx
    bbab:	48 8b 85 b0 ee ff ff 	mov    -0x1150(%rbp),%rax
    bbb2:	88 10                	mov    %dl,(%rax)
    bbb4:	48 8d 85 50 f5 ff ff 	lea    -0xab0(%rbp),%rax
    bbbb:	48 05 f0 02 00 00    	add    $0x2f0,%rax
    bbc1:	48 39 85 90 ee ff ff 	cmp    %rax,-0x1170(%rbp)
    bbc8:	48 8b 85 88 ee ff ff 	mov    -0x1178(%rbp),%rax
    bbcf:	48 3b 85 c0 ee ff ff 	cmp    -0x1140(%rbp),%rax
    bbd6:	0f 94 c0             	sete   %al
    bbd9:	0f b6 c0             	movzbl %al,%eax
    bbdc:	89 85 90 ec ff ff    	mov    %eax,-0x1370(%rbp)
    bbe2:	8b 85 90 ec ff ff    	mov    -0x1370(%rbp),%eax
    bbe8:	48 98                	cltq   
    bbea:	be 01 00 00 00       	mov    $0x1,%esi
    bbef:	48 89 c7             	mov    %rax,%rdi
    bbf2:	e8 4a 9c ff ff       	callq  5841 <safe_add_func_int64_t_s_s>
    bbf7:	48 85 c0             	test   %rax,%rax
    bbfa:	0f 94 c0             	sete   %al
    bbfd:	0f b6 c0             	movzbl %al,%eax
    bc00:	be 06 00 00 00       	mov    $0x6,%esi
    bc05:	89 c7                	mov    %eax,%edi
    bc07:	e8 5e 96 ff ff       	callq  526a <safe_div_func_int8_t_s_s>
    bc0c:	48 0f be c0          	movsbq %al,%rax
    bc10:	48 be a0 8d 2f d2 89 	movabs $0x10b8d289d22f8da0,%rsi
    bc17:	d2 b8 10 
    bc1a:	48 89 c7             	mov    %rax,%rdi
    bc1d:	e8 5e a4 ff ff       	callq  6080 <safe_mod_func_uint64_t_u_u>
    bc22:	be 3c e6 12 2a       	mov    $0x2a12e63c,%esi
    bc27:	89 c7                	mov    %eax,%edi
    bc29:	e8 a2 a2 ff ff       	callq  5ed0 <safe_sub_func_uint32_t_u_u>
    bc2e:	98                   	cwtl   
    bc2f:	be f8 ff ff ff       	mov    $0xfffffff8,%esi
    bc34:	89 c7                	mov    %eax,%edi
    bc36:	e8 db 97 ff ff       	callq  5416 <safe_mod_func_int16_t_s_s>
    bc3b:	98                   	cwtl   
    bc3c:	89 c6                	mov    %eax,%esi
    bc3e:	bf 9e a2 f0 d0       	mov    $0xd0f0a29e,%edi
    bc43:	e8 84 9a ff ff       	callq  56cc <safe_mod_func_int32_t_s_s>
    bc48:	8b 8d f4 f6 ff ff    	mov    -0x90c(%rbp),%ecx
    bc4e:	48 8b 85 f0 ee ff ff 	mov    -0x1110(%rbp),%rax
    bc55:	8b 10                	mov    (%rax),%edx
    bc57:	48 8b 85 f0 ee ff ff 	mov    -0x1110(%rbp),%rax
    bc5e:	09 ca                	or     %ecx,%edx
    bc60:	89 10                	mov    %edx,(%rax)
    bc62:	48 8b 05 8f c9 00 00 	mov    0xc98f(%rip),%rax        # 185f8 <g_613>
    bc69:	0f b7 00             	movzwl (%rax),%eax
    bc6c:	0f bf d8             	movswl %ax,%ebx
    bc6f:	48 8b 85 c8 ee ff ff 	mov    -0x1138(%rbp),%rax
    bc76:	48 8d 95 f0 ee ff ff 	lea    -0x1110(%rbp),%rdx
    bc7d:	48 89 10             	mov    %rdx,(%rax)
    bc80:	48 8b 85 c8 ee ff ff 	mov    -0x1138(%rbp),%rax
    bc87:	48 8b 00             	mov    (%rax),%rax
    bc8a:	48 39 85 d0 ee ff ff 	cmp    %rax,-0x1130(%rbp)
    bc91:	48 8b 85 60 ec ff ff 	mov    -0x13a0(%rbp),%rax
    bc98:	44 0f bf e0          	movswl %ax,%r12d
    bc9c:	8b 05 fa da 00 00    	mov    0xdafa(%rip),%eax        # 1979c <g_317>
    bca2:	0f be c0             	movsbl %al,%eax
    bca5:	be 02 00 00 00       	mov    $0x2,%esi
    bcaa:	89 c7                	mov    %eax,%edi
    bcac:	e8 f0 95 ff ff       	callq  52a1 <safe_lshift_func_int8_t_s_s>
    bcb1:	0f be d0             	movsbl %al,%edx
    bcb4:	0f b6 85 68 ec ff ff 	movzbl -0x1398(%rbp),%eax
    bcbb:	39 c2                	cmp    %eax,%edx
    bcbd:	0f 9f c0             	setg   %al
    bcc0:	0f b6 c0             	movzbl %al,%eax
    bcc3:	8b 95 58 ec ff ff    	mov    -0x13a8(%rbp),%edx
    bcc9:	09 d0                	or     %edx,%eax
    bccb:	83 e0 fa             	and    $0xfffffffa,%eax
    bcce:	98                   	cwtl   
    bccf:	44 89 e6             	mov    %r12d,%esi
    bcd2:	89 c7                	mov    %eax,%edi
    bcd4:	e8 da 96 ff ff       	callq  53b3 <safe_add_func_int16_t_s_s>
    bcd9:	0f bf d0             	movswl %ax,%edx
    bcdc:	0f b6 85 68 ec ff ff 	movzbl -0x1398(%rbp),%eax
    bce3:	21 c2                	and    %eax,%edx
    bce5:	8b 85 58 ec ff ff    	mov    -0x13a8(%rbp),%eax
    bceb:	39 c2                	cmp    %eax,%edx
    bced:	0f 9f c0             	setg   %al
    bcf0:	0f b6 d0             	movzbl %al,%edx
    bcf3:	48 8b 85 20 ed ff ff 	mov    -0x12e0(%rbp),%rax
    bcfa:	48 39 85 98 ee ff ff 	cmp    %rax,-0x1168(%rbp)
    bd01:	0f 95 c0             	setne  %al
    bd04:	0f b6 c0             	movzbl %al,%eax
    bd07:	89 85 90 ec ff ff    	mov    %eax,-0x1370(%rbp)
    bd0d:	8b 85 90 ec ff ff    	mov    -0x1370(%rbp),%eax
    bd13:	0f be c0             	movsbl %al,%eax
    bd16:	89 d6                	mov    %edx,%esi
    bd18:	89 c7                	mov    %eax,%edi
    bd1a:	e8 4d 96 ff ff       	callq  536c <safe_rshift_func_int8_t_s_u>
    bd1f:	0f be c0             	movsbl %al,%eax
    bd22:	be e9 8a 57 3c       	mov    $0x3c578ae9,%esi
    bd27:	89 c7                	mov    %eax,%edi
    bd29:	e8 a2 a1 ff ff       	callq  5ed0 <safe_sub_func_uint32_t_u_u>
    bd2e:	85 c0                	test   %eax,%eax
    bd30:	8b 85 5c f8 ff ff    	mov    -0x7a4(%rbp),%eax
    bd36:	0f b6 c0             	movzbl %al,%eax
    bd39:	be 05 00 00 00       	mov    $0x5,%esi
    bd3e:	89 c7                	mov    %eax,%edi
    bd40:	e8 4e 9e ff ff       	callq  5b93 <safe_mul_func_uint8_t_u_u>
    bd45:	0f b6 d0             	movzbl %al,%edx
    bd48:	48 8b 85 d8 ee ff ff 	mov    -0x1128(%rbp),%rax
    bd4f:	89 10                	mov    %edx,(%rax)
    bd51:	48 8b 85 d8 ee ff ff 	mov    -0x1128(%rbp),%rax
    bd58:	8b 00                	mov    (%rax),%eax
    bd5a:	89 c0                	mov    %eax,%eax
    bd5c:	25 08 03 c6 99       	and    $0x99c60308,%eax
    bd61:	48 89 c2             	mov    %rax,%rdx
    bd64:	0f b6 85 6c ec ff ff 	movzbl -0x1394(%rbp),%eax
    bd6b:	48 31 c2             	xor    %rax,%rdx
    bd6e:	0f b6 85 68 ec ff ff 	movzbl -0x1398(%rbp),%eax
    bd75:	48 89 d6             	mov    %rdx,%rsi
    bd78:	48 89 c7             	mov    %rax,%rdi
    bd7b:	e8 ae a2 ff ff       	callq  602e <safe_add_func_uint64_t_u_u>
    bd80:	8b 85 58 ec ff ff    	mov    -0x13a8(%rbp),%eax
    bd86:	0f b6 c0             	movzbl %al,%eax
    bd89:	be 01 00 00 00       	mov    $0x1,%esi
    bd8e:	89 c7                	mov    %eax,%edi
    bd90:	e8 b7 9e ff ff       	callq  5c4c <safe_lshift_func_uint8_t_u_u>
    bd95:	0f b6 c0             	movzbl %al,%eax
    bd98:	89 de                	mov    %ebx,%esi
    bd9a:	89 c7                	mov    %eax,%edi
    bd9c:	e8 1d a0 ff ff       	callq  5dbe <safe_lshift_func_uint16_t_u_s>
    bda1:	0f b7 d0             	movzwl %ax,%edx
    bda4:	48 8b 85 e0 ee ff ff 	mov    -0x1120(%rbp),%rax
    bdab:	48 89 10             	mov    %rdx,(%rax)
    bdae:	48 8b 85 e0 ee ff ff 	mov    -0x1120(%rbp),%rax
    bdb5:	48 8b 10             	mov    (%rax),%rdx
    bdb8:	8b 85 58 ec ff ff    	mov    -0x13a8(%rbp),%eax
    bdbe:	48 98                	cltq   
    bdc0:	48 21 d0             	and    %rdx,%rax
    bdc3:	48 85 c0             	test   %rax,%rax
    bdc6:	74 1c                	je     bde4 <func_29+0x11b8>
    bdc8:	48 8b 85 f0 ee ff ff 	mov    -0x1110(%rbp),%rax
    bdcf:	48 8b 95 60 ec ff ff 	mov    -0x13a0(%rbp),%rdx
    bdd6:	89 10                	mov    %edx,(%rax)
    bdd8:	c6 05 e1 d9 00 00 00 	movb   $0x0,0xd9e1(%rip)        # 197c0 <g_812>
    bddf:	e9 a6 02 00 00       	jmpq   c08a <func_29+0x145e>
    bde4:	c7 85 58 ed ff ff 00 	movl   $0x0,-0x12a8(%rbp)
    bdeb:	00 00 00 
    bdee:	c6 85 58 ed ff ff cd 	movb   $0xcd,-0x12a8(%rbp)
    bdf5:	48 8d 05 d4 b2 00 00 	lea    0xb2d4(%rip),%rax        # 170d0 <g_186+0x30>
    bdfc:	48 89 85 e8 ee ff ff 	mov    %rax,-0x1118(%rbp)
    be03:	0f b6 85 84 ec ff ff 	movzbl -0x137c(%rbp),%eax
    be0a:	0f b6 d0             	movzbl %al,%edx
    be0d:	48 8b 05 e4 c7 00 00 	mov    0xc7e4(%rip),%rax        # 185f8 <g_613>
    be14:	0f b7 00             	movzwl (%rax),%eax
    be17:	66 85 c0             	test   %ax,%ax
    be1a:	0f 95 c0             	setne  %al
    be1d:	0f b6 c0             	movzbl %al,%eax
    be20:	89 d6                	mov    %edx,%esi
    be22:	89 c7                	mov    %eax,%edi
    be24:	e8 65 9f ff ff       	callq  5d8e <safe_div_func_uint16_t_u_u>
    be29:	48 8b 95 f0 ee ff ff 	mov    -0x1110(%rbp),%rdx
    be30:	8b 0a                	mov    (%rdx),%ecx
    be32:	0f b7 d0             	movzwl %ax,%edx
    be35:	48 8b 85 f0 ee ff ff 	mov    -0x1110(%rbp),%rax
    be3c:	09 ca                	or     %ecx,%edx
    be3e:	89 10                	mov    %edx,(%rax)
    be40:	48 8b 85 e8 ee ff ff 	mov    -0x1118(%rbp),%rax
    be47:	48 89 05 f2 c7 00 00 	mov    %rax,0xc7f2(%rip)        # 18640 <g_858>
    be4e:	0f b6 85 68 ec ff ff 	movzbl -0x1398(%rbp),%eax
    be55:	89 c7                	mov    %eax,%edi
    be57:	e8 41 95 ff ff       	callq  539d <safe_unary_minus_func_int16_t_s>
    be5c:	0f bf d0             	movswl %ax,%edx
    be5f:	8b 85 90 ec ff ff    	mov    -0x1370(%rbp),%eax
    be65:	83 f8 fb             	cmp    $0xfffffffb,%eax
    be68:	0f 9c c0             	setl   %al
    be6b:	0f b6 c0             	movzbl %al,%eax
    be6e:	39 c2                	cmp    %eax,%edx
    be70:	41 0f 9f c6          	setg   %r14b
    be74:	48 8b 05 ed c6 00 00 	mov    0xc6ed(%rip),%rax        # 18568 <g_298>
    be7b:	0f b6 00             	movzbl (%rax),%eax
    be7e:	84 c0                	test   %al,%al
    be80:	75 7d                	jne    beff <func_29+0x12d3>
    be82:	8b 85 58 ec ff ff    	mov    -0x13a8(%rbp),%eax
    be88:	0f b7 d8             	movzwl %ax,%ebx
    be8b:	0f b6 85 58 ed ff ff 	movzbl -0x12a8(%rbp),%eax
    be92:	4c 0f be e0          	movsbq %al,%r12
    be96:	8b 85 9c ec ff ff    	mov    -0x1364(%rbp),%eax
    be9c:	4c 63 e8             	movslq %eax,%r13
    be9f:	be d3 48 6b f9       	mov    $0xf96b48d3,%esi
    bea4:	bf f7 ff ff ff       	mov    $0xfffffff7,%edi
    bea9:	e8 57 97 ff ff       	callq  5605 <safe_sub_func_int32_t_s_s>
    beae:	89 c2                	mov    %eax,%edx
    beb0:	48 8b 85 d8 ee ff ff 	mov    -0x1128(%rbp),%rax
    beb7:	89 10                	mov    %edx,(%rax)
    beb9:	4c 89 ee             	mov    %r13,%rsi
    bebc:	bf 00 00 00 00       	mov    $0x0,%edi
    bec1:	e8 68 a1 ff ff       	callq  602e <safe_add_func_uint64_t_u_u>
    bec6:	4c 89 e6             	mov    %r12,%rsi
    bec9:	48 89 c7             	mov    %rax,%rdi
    becc:	e8 26 9b ff ff       	callq  59f7 <safe_div_func_int64_t_s_s>
    bed1:	0f b7 c0             	movzwl %ax,%eax
    bed4:	89 de                	mov    %ebx,%esi
    bed6:	89 c7                	mov    %eax,%edi
    bed8:	e8 22 9e ff ff       	callq  5cff <safe_add_func_uint16_t_u_u>
    bedd:	83 e0 f7             	and    $0xfffffff7,%eax
    bee0:	89 c2                	mov    %eax,%edx
    bee2:	8b 85 90 ec ff ff    	mov    -0x1370(%rbp),%eax
    bee8:	31 d0                	xor    %edx,%eax
    beea:	0f b7 c0             	movzwl %ax,%eax
    beed:	be 06 00 00 00       	mov    $0x6,%esi
    bef2:	89 c7                	mov    %eax,%edi
    bef4:	e8 c5 9e ff ff       	callq  5dbe <safe_lshift_func_uint16_t_u_s>
    bef9:	66 83 f8 05          	cmp    $0x5,%ax
    befd:	74 07                	je     bf06 <func_29+0x12da>
    beff:	b8 01 00 00 00       	mov    $0x1,%eax
    bf04:	eb 05                	jmp    bf0b <func_29+0x12df>
    bf06:	b8 00 00 00 00       	mov    $0x0,%eax
    bf0b:	83 e0 01             	and    $0x1,%eax
    bf0e:	44 89 f2             	mov    %r14d,%edx
    bf11:	31 c2                	xor    %eax,%edx
    bf13:	48 8b 85 f0 ee ff ff 	mov    -0x1110(%rbp),%rax
    bf1a:	0f b6 d2             	movzbl %dl,%edx
    bf1d:	89 10                	mov    %edx,(%rax)
    bf1f:	8b 85 9c ec ff ff    	mov    -0x1364(%rbp),%eax
    bf25:	e9 a6 24 00 00       	jmpq   e3d0 <func_29+0x37a4>
    bf2a:	c7 85 0c ed ff ff 00 	movl   $0x0,-0x12f4(%rbp)
    bf31:	00 00 00 
    bf34:	83 bd 0c ed ff ff 00 	cmpl   $0x0,-0x12f4(%rbp)
    bf3b:	0f 84 2e 01 00 00    	je     c06f <func_29+0x1443>
    bf41:	66 c7 85 8e ec ff ff 	movw   $0x2,-0x1372(%rbp)
    bf48:	02 00 
    bf4a:	48 c7 85 e0 f1 ff ff 	movq   $0x0,-0xe20(%rbp)
    bf51:	00 00 00 00 
    bf55:	48 8d 85 90 ec ff ff 	lea    -0x1370(%rbp),%rax
    bf5c:	48 89 85 e8 f1 ff ff 	mov    %rax,-0xe18(%rbp)
    bf63:	48 c7 85 f0 f1 ff ff 	movq   $0x0,-0xe10(%rbp)
    bf6a:	00 00 00 00 
    bf6e:	48 8d 85 90 ec ff ff 	lea    -0x1370(%rbp),%rax
    bf75:	48 89 85 f8 f1 ff ff 	mov    %rax,-0xe08(%rbp)
    bf7c:	48 8d 85 a0 ec ff ff 	lea    -0x1360(%rbp),%rax
    bf83:	48 89 85 00 f2 ff ff 	mov    %rax,-0xe00(%rbp)
    bf8a:	48 c7 85 08 f2 ff ff 	movq   $0x0,-0xdf8(%rbp)
    bf91:	00 00 00 00 
    bf95:	48 c7 85 10 f2 ff ff 	movq   $0x0,-0xdf0(%rbp)
    bf9c:	00 00 00 00 
    bfa0:	48 c7 85 18 f2 ff ff 	movq   $0x0,-0xde8(%rbp)
    bfa7:	00 00 00 00 
    bfab:	48 c7 85 20 f2 ff ff 	movq   $0x0,-0xde0(%rbp)
    bfb2:	00 00 00 00 
    bfb6:	48 c7 85 28 f2 ff ff 	movq   $0x0,-0xdd8(%rbp)
    bfbd:	00 00 00 00 
    bfc1:	48 8d 85 a0 ec ff ff 	lea    -0x1360(%rbp),%rax
    bfc8:	48 89 85 30 f2 ff ff 	mov    %rax,-0xdd0(%rbp)
    bfcf:	48 8d 85 90 ec ff ff 	lea    -0x1370(%rbp),%rax
    bfd6:	48 89 85 38 f2 ff ff 	mov    %rax,-0xdc8(%rbp)
    bfdd:	48 c7 85 40 f2 ff ff 	movq   $0x0,-0xdc0(%rbp)
    bfe4:	00 00 00 00 
    bfe8:	48 8d 85 90 ec ff ff 	lea    -0x1370(%rbp),%rax
    bfef:	48 89 85 48 f2 ff ff 	mov    %rax,-0xdb8(%rbp)
    bff6:	c7 85 b8 ec ff ff 00 	movl   $0x0,-0x1348(%rbp)
    bffd:	00 00 00 
    c000:	eb 52                	jmp    c054 <func_29+0x1428>
    c002:	c7 85 bc ec ff ff 00 	movl   $0x0,-0x1344(%rbp)
    c009:	00 00 00 
    c00c:	eb 36                	jmp    c044 <func_29+0x1418>
    c00e:	8b 85 bc ec ff ff    	mov    -0x1344(%rbp),%eax
    c014:	48 63 c8             	movslq %eax,%rcx
    c017:	8b 85 b8 ec ff ff    	mov    -0x1348(%rbp),%eax
    c01d:	48 63 d0             	movslq %eax,%rdx
    c020:	48 89 d0             	mov    %rdx,%rax
    c023:	48 c1 e0 02          	shl    $0x2,%rax
    c027:	48 01 d0             	add    %rdx,%rax
    c02a:	48 8d 5d e0          	lea    -0x20(%rbp),%rbx
    c02e:	48 01 d8             	add    %rbx,%rax
    c031:	48 01 c8             	add    %rcx,%rax
    c034:	48 2d 50 10 00 00    	sub    $0x1050,%rax
    c03a:	c6 00 2a             	movb   $0x2a,(%rax)
    c03d:	83 85 bc ec ff ff 01 	addl   $0x1,-0x1344(%rbp)
    c044:	83 bd bc ec ff ff 04 	cmpl   $0x4,-0x1344(%rbp)
    c04b:	7e c1                	jle    c00e <func_29+0x13e2>
    c04d:	83 85 b8 ec ff ff 01 	addl   $0x1,-0x1348(%rbp)
    c054:	83 bd b8 ec ff ff 09 	cmpl   $0x9,-0x1348(%rbp)
    c05b:	7e a5                	jle    c002 <func_29+0x13d6>
    c05d:	0f b6 85 97 ef ff ff 	movzbl -0x1069(%rbp),%eax
    c064:	83 c0 01             	add    $0x1,%eax
    c067:	88 85 97 ef ff ff    	mov    %al,-0x1069(%rbp)
    c06d:	eb 0b                	jmp    c07a <func_29+0x144e>
    c06f:	8b 85 58 ec ff ff    	mov    -0x13a8(%rbp),%eax
    c075:	e9 56 23 00 00       	jmpq   e3d0 <func_29+0x37a4>
    c07a:	0f b6 05 3f d7 00 00 	movzbl 0xd73f(%rip),%eax        # 197c0 <g_812>
    c081:	83 c0 01             	add    $0x1,%eax
    c084:	88 05 36 d7 00 00    	mov    %al,0xd736(%rip)        # 197c0 <g_812>
    c08a:	0f b6 05 2f d7 00 00 	movzbl 0xd72f(%rip),%eax        # 197c0 <g_812>
    c091:	3c 01                	cmp    $0x1,%al
    c093:	0f 86 91 fe ff ff    	jbe    bf2a <func_29+0x12fe>
    c099:	0f b7 05 d8 af 00 00 	movzwl 0xafd8(%rip),%eax        # 17078 <g_92>
    c0a0:	83 c0 01             	add    $0x1,%eax
    c0a3:	66 89 05 ce af 00 00 	mov    %ax,0xafce(%rip)        # 17078 <g_92>
    c0aa:	0f b7 05 c7 af 00 00 	movzwl 0xafc7(%rip),%eax        # 17078 <g_92>
    c0b1:	66 83 f8 03          	cmp    $0x3,%ax
    c0b5:	0f 86 7b f4 ff ff    	jbe    b536 <func_29+0x90a>
    c0bb:	0f b6 05 be af 00 00 	movzbl 0xafbe(%rip),%eax        # 17080 <g_136>
    c0c2:	83 c0 01             	add    $0x1,%eax
    c0c5:	88 05 b5 af 00 00    	mov    %al,0xafb5(%rip)        # 17080 <g_136>
    c0cb:	0f b6 05 ae af 00 00 	movzbl 0xafae(%rip),%eax        # 17080 <g_136>
    c0d2:	3c 06                	cmp    $0x6,%al
    c0d4:	0f 86 82 f2 ff ff    	jbe    b35c <func_29+0x730>
    c0da:	0f b7 05 77 b0 00 00 	movzwl 0xb077(%rip),%eax        # 17158 <g_277+0x8>
    c0e1:	89 c3                	mov    %eax,%ebx
    c0e3:	8b 85 40 f8 ff ff    	mov    -0x7c0(%rbp),%eax
    c0e9:	0f be d0             	movsbl %al,%edx
    c0ec:	8b 05 82 af 00 00    	mov    0xaf82(%rip),%eax        # 17074 <g_87>
    c0f2:	48 98                	cltq   
    c0f4:	48 83 f8 04          	cmp    $0x4,%rax
    c0f8:	0f 97 c0             	seta   %al
    c0fb:	0f b6 c8             	movzbl %al,%ecx
    c0fe:	0f b7 85 5c ec ff ff 	movzwl -0x13a4(%rbp),%eax
    c105:	0f b7 c0             	movzwl %ax,%eax
    c108:	39 c1                	cmp    %eax,%ecx
    c10a:	0f 9c c0             	setl   %al
    c10d:	0f b6 c0             	movzbl %al,%eax
    c110:	89 d6                	mov    %edx,%esi
    c112:	89 c7                	mov    %eax,%edi
    c114:	e8 bb 90 ff ff       	callq  51d4 <safe_add_func_int8_t_s_s>
    c119:	89 c2                	mov    %eax,%edx
    c11b:	48 8b 85 30 ed ff ff 	mov    -0x12d0(%rbp),%rax
    c122:	21 da                	and    %ebx,%edx
    c124:	88 10                	mov    %dl,(%rax)
    c126:	0f b6 00             	movzbl (%rax),%eax
    c129:	0f be c0             	movsbl %al,%eax
    c12c:	89 85 90 ec ff ff    	mov    %eax,-0x1370(%rbp)
    c132:	8b 85 90 ec ff ff    	mov    -0x1370(%rbp),%eax
    c138:	0f be c0             	movsbl %al,%eax
    c13b:	be c9 ff ff ff       	mov    $0xffffffc9,%esi
    c140:	89 c7                	mov    %eax,%edi
    c142:	e8 8d 90 ff ff       	callq  51d4 <safe_add_func_int8_t_s_s>
    c147:	22 85 7f ec ff ff    	and    -0x1381(%rbp),%al
    c14d:	0f be d0             	movsbl %al,%edx
    c150:	0f b6 85 6c ec ff ff 	movzbl -0x1394(%rbp),%eax
    c157:	39 c2                	cmp    %eax,%edx
    c159:	48 8b 05 00 c4 00 00 	mov    0xc400(%rip),%rax        # 18560 <g_242>
    c160:	48 8b 00             	mov    (%rax),%rax
    c163:	0f b7 00             	movzwl (%rax),%eax
    c166:	0f b7 d0             	movzwl %ax,%edx
    c169:	48 8d 85 38 ed ff ff 	lea    -0x12c8(%rbp),%rax
    c170:	48 39 85 a0 ed ff ff 	cmp    %rax,-0x1260(%rbp)
    c177:	0f 95 c0             	setne  %al
    c17a:	0f b6 c8             	movzbl %al,%ecx
    c17d:	8b 85 3c ef ff ff    	mov    -0x10c4(%rbp),%eax
    c183:	39 c1                	cmp    %eax,%ecx
    c185:	0f 9f c0             	setg   %al
    c188:	0f b6 c8             	movzbl %al,%ecx
    c18b:	48 8b 05 66 c4 00 00 	mov    0xc466(%rip),%rax        # 185f8 <g_613>
    c192:	0f b7 00             	movzwl (%rax),%eax
    c195:	98                   	cwtl   
    c196:	39 c1                	cmp    %eax,%ecx
    c198:	0f 95 c0             	setne  %al
    c19b:	0f b6 c0             	movzbl %al,%eax
    c19e:	39 c2                	cmp    %eax,%edx
    c1a0:	0f 9d c0             	setge  %al
    c1a3:	0f b6 d0             	movzbl %al,%edx
    c1a6:	8b 85 38 ef ff ff    	mov    -0x10c8(%rbp),%eax
    c1ac:	0f b7 c0             	movzwl %ax,%eax
    c1af:	89 d6                	mov    %edx,%esi
    c1b1:	89 c7                	mov    %eax,%edi
    c1b3:	e8 85 9b ff ff       	callq  5d3d <safe_mul_func_uint16_t_u_u>
    c1b8:	48 8b 85 60 ec ff ff 	mov    -0x13a0(%rbp),%rax
    c1bf:	89 c2                	mov    %eax,%edx
    c1c1:	48 8b 85 60 ec ff ff 	mov    -0x13a0(%rbp),%rax
    c1c8:	89 c1                	mov    %eax,%ecx
    c1ca:	48 8b 85 28 ed ff ff 	mov    -0x12d8(%rbp),%rax
    c1d1:	09 c8                	or     %ecx,%eax
    c1d3:	0f b6 c0             	movzbl %al,%eax
    c1d6:	89 d6                	mov    %edx,%esi
    c1d8:	89 c7                	mov    %eax,%edi
    c1da:	e8 26 9a ff ff       	callq  5c05 <safe_lshift_func_uint8_t_u_s>
    c1df:	ba 09 00 00 00       	mov    $0x9,%edx
    c1e4:	8b 85 b0 f1 ff ff    	mov    -0xe50(%rbp),%eax
    c1ea:	31 d0                	xor    %edx,%eax
    c1ec:	89 85 b0 f1 ff ff    	mov    %eax,-0xe50(%rbp)
    c1f2:	8b 95 b0 f1 ff ff    	mov    -0xe50(%rbp),%edx
    c1f8:	8b 85 38 ef ff ff    	mov    -0x10c8(%rbp),%eax
    c1fe:	09 c2                	or     %eax,%edx
    c200:	0f b6 05 c9 ae 00 00 	movzbl 0xaec9(%rip),%eax        # 170d0 <g_186+0x30>
    c207:	0f b6 c0             	movzbl %al,%eax
    c20a:	39 c2                	cmp    %eax,%edx
    c20c:	0f 9e c2             	setle  %dl
    c20f:	48 8b 85 40 ed ff ff 	mov    -0x12c0(%rbp),%rax
    c216:	0f b6 d2             	movzbl %dl,%edx
    c219:	48 89 10             	mov    %rdx,(%rax)
    c21c:	80 bd 7f ec ff ff 00 	cmpb   $0x0,-0x1381(%rbp)
    c223:	0f 84 59 10 00 00    	je     d282 <func_29+0x2656>
    c229:	48 8d 05 44 ae 00 00 	lea    0xae44(%rip),%rax        # 17074 <g_87>
    c230:	48 89 85 d0 f8 ff ff 	mov    %rax,-0x730(%rbp)
    c237:	48 8d 05 5e d5 00 00 	lea    0xd55e(%rip),%rax        # 1979c <g_317>
    c23e:	48 89 85 d8 f8 ff ff 	mov    %rax,-0x728(%rbp)
    c245:	48 8d 05 50 d5 00 00 	lea    0xd550(%rip),%rax        # 1979c <g_317>
    c24c:	48 89 85 e0 f8 ff ff 	mov    %rax,-0x720(%rbp)
    c253:	48 8d 05 1a ae 00 00 	lea    0xae1a(%rip),%rax        # 17074 <g_87>
    c25a:	48 89 85 e8 f8 ff ff 	mov    %rax,-0x718(%rbp)
    c261:	48 8d 85 90 ec ff ff 	lea    -0x1370(%rbp),%rax
    c268:	48 89 85 f0 f8 ff ff 	mov    %rax,-0x710(%rbp)
    c26f:	48 8d 85 90 ec ff ff 	lea    -0x1370(%rbp),%rax
    c276:	48 89 85 f8 f8 ff ff 	mov    %rax,-0x708(%rbp)
    c27d:	48 c7 85 00 f9 ff ff 	movq   $0x0,-0x700(%rbp)
    c284:	00 00 00 00 
    c288:	48 c7 85 08 f9 ff ff 	movq   $0x0,-0x6f8(%rbp)
    c28f:	00 00 00 00 
    c293:	48 8d 85 00 f1 ff ff 	lea    -0xf00(%rbp),%rax
    c29a:	48 05 b0 00 00 00    	add    $0xb0,%rax
    c2a0:	48 89 85 10 f9 ff ff 	mov    %rax,-0x6f0(%rbp)
    c2a7:	48 8d 05 ee d4 00 00 	lea    0xd4ee(%rip),%rax        # 1979c <g_317>
    c2ae:	48 89 85 18 f9 ff ff 	mov    %rax,-0x6e8(%rbp)
    c2b5:	48 c7 85 20 f9 ff ff 	movq   $0x0,-0x6e0(%rbp)
    c2bc:	00 00 00 00 
    c2c0:	48 c7 85 28 f9 ff ff 	movq   $0x0,-0x6d8(%rbp)
    c2c7:	00 00 00 00 
    c2cb:	48 8d 85 00 f1 ff ff 	lea    -0xf00(%rbp),%rax
    c2d2:	48 83 c0 40          	add    $0x40,%rax
    c2d6:	48 89 85 30 f9 ff ff 	mov    %rax,-0x6d0(%rbp)
    c2dd:	48 8d 85 00 f1 ff ff 	lea    -0xf00(%rbp),%rax
    c2e4:	48 05 b0 00 00 00    	add    $0xb0,%rax
    c2ea:	48 89 85 38 f9 ff ff 	mov    %rax,-0x6c8(%rbp)
    c2f1:	48 c7 85 40 f9 ff ff 	movq   $0x0,-0x6c0(%rbp)
    c2f8:	00 00 00 00 
    c2fc:	48 8d 05 99 d4 00 00 	lea    0xd499(%rip),%rax        # 1979c <g_317>
    c303:	48 89 85 48 f9 ff ff 	mov    %rax,-0x6b8(%rbp)
    c30a:	48 8d 05 63 ad 00 00 	lea    0xad63(%rip),%rax        # 17074 <g_87>
    c311:	48 89 85 50 f9 ff ff 	mov    %rax,-0x6b0(%rbp)
    c318:	48 8d 85 00 f1 ff ff 	lea    -0xf00(%rbp),%rax
    c31f:	48 83 c0 14          	add    $0x14,%rax
    c323:	48 89 85 58 f9 ff ff 	mov    %rax,-0x6a8(%rbp)
    c32a:	48 8d 85 00 f1 ff ff 	lea    -0xf00(%rbp),%rax
    c331:	48 05 b0 00 00 00    	add    $0xb0,%rax
    c337:	48 89 85 60 f9 ff ff 	mov    %rax,-0x6a0(%rbp)
    c33e:	48 8d 85 00 f1 ff ff 	lea    -0xf00(%rbp),%rax
    c345:	48 83 c0 40          	add    $0x40,%rax
    c349:	48 89 85 68 f9 ff ff 	mov    %rax,-0x698(%rbp)
    c350:	48 c7 85 70 f9 ff ff 	movq   $0x0,-0x690(%rbp)
    c357:	00 00 00 00 
    c35b:	48 8d 05 12 ad 00 00 	lea    0xad12(%rip),%rax        # 17074 <g_87>
    c362:	48 89 85 78 f9 ff ff 	mov    %rax,-0x688(%rbp)
    c369:	48 8d 05 04 ad 00 00 	lea    0xad04(%rip),%rax        # 17074 <g_87>
    c370:	48 89 85 80 f9 ff ff 	mov    %rax,-0x680(%rbp)
    c377:	48 8d 85 00 f1 ff ff 	lea    -0xf00(%rbp),%rax
    c37e:	48 05 88 00 00 00    	add    $0x88,%rax
    c384:	48 89 85 88 f9 ff ff 	mov    %rax,-0x678(%rbp)
    c38b:	48 8d 85 00 f1 ff ff 	lea    -0xf00(%rbp),%rax
    c392:	48 83 c0 14          	add    $0x14,%rax
    c396:	48 89 85 90 f9 ff ff 	mov    %rax,-0x670(%rbp)
    c39d:	48 c7 85 98 f9 ff ff 	movq   $0x0,-0x668(%rbp)
    c3a4:	00 00 00 00 
    c3a8:	48 8d 85 90 ec ff ff 	lea    -0x1370(%rbp),%rax
    c3af:	48 89 85 a0 f9 ff ff 	mov    %rax,-0x660(%rbp)
    c3b6:	48 8d 85 90 ec ff ff 	lea    -0x1370(%rbp),%rax
    c3bd:	48 89 85 a8 f9 ff ff 	mov    %rax,-0x658(%rbp)
    c3c4:	48 8d 85 00 f1 ff ff 	lea    -0xf00(%rbp),%rax
    c3cb:	48 83 c0 14          	add    $0x14,%rax
    c3cf:	48 89 85 b0 f9 ff ff 	mov    %rax,-0x650(%rbp)
    c3d6:	48 8d 05 97 ac 00 00 	lea    0xac97(%rip),%rax        # 17074 <g_87>
    c3dd:	48 89 85 b8 f9 ff ff 	mov    %rax,-0x648(%rbp)
    c3e4:	48 8d 05 89 ac 00 00 	lea    0xac89(%rip),%rax        # 17074 <g_87>
    c3eb:	48 89 85 c0 f9 ff ff 	mov    %rax,-0x640(%rbp)
    c3f2:	48 c7 85 c8 f9 ff ff 	movq   $0x0,-0x638(%rbp)
    c3f9:	00 00 00 00 
    c3fd:	48 8d 85 90 ec ff ff 	lea    -0x1370(%rbp),%rax
    c404:	48 89 85 d0 f9 ff ff 	mov    %rax,-0x630(%rbp)
    c40b:	48 8d 05 12 ac 00 00 	lea    0xac12(%rip),%rax        # 17024 <g_2>
    c412:	48 89 85 d8 f9 ff ff 	mov    %rax,-0x628(%rbp)
    c419:	48 8d 85 90 ec ff ff 	lea    -0x1370(%rbp),%rax
    c420:	48 89 85 e0 f9 ff ff 	mov    %rax,-0x620(%rbp)
    c427:	48 8d 05 46 ac 00 00 	lea    0xac46(%rip),%rax        # 17074 <g_87>
    c42e:	48 89 85 e8 f9 ff ff 	mov    %rax,-0x618(%rbp)
    c435:	48 8d 05 60 d3 00 00 	lea    0xd360(%rip),%rax        # 1979c <g_317>
    c43c:	48 89 85 f0 f9 ff ff 	mov    %rax,-0x610(%rbp)
    c443:	48 8d 05 52 d3 00 00 	lea    0xd352(%rip),%rax        # 1979c <g_317>
    c44a:	48 89 85 f8 f9 ff ff 	mov    %rax,-0x608(%rbp)
    c451:	48 8d 05 1c ac 00 00 	lea    0xac1c(%rip),%rax        # 17074 <g_87>
    c458:	48 89 85 00 fa ff ff 	mov    %rax,-0x600(%rbp)
    c45f:	48 8d 85 90 ec ff ff 	lea    -0x1370(%rbp),%rax
    c466:	48 89 85 08 fa ff ff 	mov    %rax,-0x5f8(%rbp)
    c46d:	48 8d 85 90 ec ff ff 	lea    -0x1370(%rbp),%rax
    c474:	48 89 85 10 fa ff ff 	mov    %rax,-0x5f0(%rbp)
    c47b:	48 c7 85 18 fa ff ff 	movq   $0x0,-0x5e8(%rbp)
    c482:	00 00 00 00 
    c486:	48 c7 85 20 fa ff ff 	movq   $0x0,-0x5e0(%rbp)
    c48d:	00 00 00 00 
    c491:	48 8d 85 00 f1 ff ff 	lea    -0xf00(%rbp),%rax
    c498:	48 05 b0 00 00 00    	add    $0xb0,%rax
    c49e:	48 89 85 28 fa ff ff 	mov    %rax,-0x5d8(%rbp)
    c4a5:	48 8d 05 f0 d2 00 00 	lea    0xd2f0(%rip),%rax        # 1979c <g_317>
    c4ac:	48 89 85 30 fa ff ff 	mov    %rax,-0x5d0(%rbp)
    c4b3:	48 c7 85 38 fa ff ff 	movq   $0x0,-0x5c8(%rbp)
    c4ba:	00 00 00 00 
    c4be:	48 c7 85 40 fa ff ff 	movq   $0x0,-0x5c0(%rbp)
    c4c5:	00 00 00 00 
    c4c9:	48 8d 85 00 f1 ff ff 	lea    -0xf00(%rbp),%rax
    c4d0:	48 83 c0 40          	add    $0x40,%rax
    c4d4:	48 89 85 48 fa ff ff 	mov    %rax,-0x5b8(%rbp)
    c4db:	48 8d 85 00 f1 ff ff 	lea    -0xf00(%rbp),%rax
    c4e2:	48 05 b0 00 00 00    	add    $0xb0,%rax
    c4e8:	48 89 85 50 fa ff ff 	mov    %rax,-0x5b0(%rbp)
    c4ef:	48 c7 85 58 fa ff ff 	movq   $0x0,-0x5a8(%rbp)
    c4f6:	00 00 00 00 
    c4fa:	48 8d 05 9b d2 00 00 	lea    0xd29b(%rip),%rax        # 1979c <g_317>
    c501:	48 89 85 60 fa ff ff 	mov    %rax,-0x5a0(%rbp)
    c508:	48 8d 05 65 ab 00 00 	lea    0xab65(%rip),%rax        # 17074 <g_87>
    c50f:	48 89 85 68 fa ff ff 	mov    %rax,-0x598(%rbp)
    c516:	48 8d 85 00 f1 ff ff 	lea    -0xf00(%rbp),%rax
    c51d:	48 83 c0 14          	add    $0x14,%rax
    c521:	48 89 85 70 fa ff ff 	mov    %rax,-0x590(%rbp)
    c528:	48 8d 85 00 f1 ff ff 	lea    -0xf00(%rbp),%rax
    c52f:	48 05 b0 00 00 00    	add    $0xb0,%rax
    c535:	48 89 85 78 fa ff ff 	mov    %rax,-0x588(%rbp)
    c53c:	48 8d 85 00 f1 ff ff 	lea    -0xf00(%rbp),%rax
    c543:	48 83 c0 40          	add    $0x40,%rax
    c547:	48 89 85 80 fa ff ff 	mov    %rax,-0x580(%rbp)
    c54e:	48 c7 85 88 fa ff ff 	movq   $0x0,-0x578(%rbp)
    c555:	00 00 00 00 
    c559:	48 8d 05 14 ab 00 00 	lea    0xab14(%rip),%rax        # 17074 <g_87>
    c560:	48 89 85 90 fa ff ff 	mov    %rax,-0x570(%rbp)
    c567:	48 8d 05 06 ab 00 00 	lea    0xab06(%rip),%rax        # 17074 <g_87>
    c56e:	48 89 85 98 fa ff ff 	mov    %rax,-0x568(%rbp)
    c575:	48 8d 85 00 f1 ff ff 	lea    -0xf00(%rbp),%rax
    c57c:	48 05 88 00 00 00    	add    $0x88,%rax
    c582:	48 89 85 a0 fa ff ff 	mov    %rax,-0x560(%rbp)
    c589:	48 8d 85 00 f1 ff ff 	lea    -0xf00(%rbp),%rax
    c590:	48 83 c0 14          	add    $0x14,%rax
    c594:	48 89 85 a8 fa ff ff 	mov    %rax,-0x558(%rbp)
    c59b:	48 c7 85 b0 fa ff ff 	movq   $0x0,-0x550(%rbp)
    c5a2:	00 00 00 00 
    c5a6:	48 8d 85 90 ec ff ff 	lea    -0x1370(%rbp),%rax
    c5ad:	48 89 85 b8 fa ff ff 	mov    %rax,-0x548(%rbp)
    c5b4:	48 8d 85 90 ec ff ff 	lea    -0x1370(%rbp),%rax
    c5bb:	48 89 85 c0 fa ff ff 	mov    %rax,-0x540(%rbp)
    c5c2:	48 8d 85 00 f1 ff ff 	lea    -0xf00(%rbp),%rax
    c5c9:	48 83 c0 14          	add    $0x14,%rax
    c5cd:	48 89 85 c8 fa ff ff 	mov    %rax,-0x538(%rbp)
    c5d4:	48 8d 05 99 aa 00 00 	lea    0xaa99(%rip),%rax        # 17074 <g_87>
    c5db:	48 89 85 d0 fa ff ff 	mov    %rax,-0x530(%rbp)
    c5e2:	48 8d 05 8b aa 00 00 	lea    0xaa8b(%rip),%rax        # 17074 <g_87>
    c5e9:	48 89 85 d8 fa ff ff 	mov    %rax,-0x528(%rbp)
    c5f0:	48 c7 85 e0 fa ff ff 	movq   $0x0,-0x520(%rbp)
    c5f7:	00 00 00 00 
    c5fb:	48 8d 85 90 ec ff ff 	lea    -0x1370(%rbp),%rax
    c602:	48 89 85 e8 fa ff ff 	mov    %rax,-0x518(%rbp)
    c609:	48 8d 05 14 aa 00 00 	lea    0xaa14(%rip),%rax        # 17024 <g_2>
    c610:	48 89 85 f0 fa ff ff 	mov    %rax,-0x510(%rbp)
    c617:	48 8d 85 90 ec ff ff 	lea    -0x1370(%rbp),%rax
    c61e:	48 89 85 f8 fa ff ff 	mov    %rax,-0x508(%rbp)
    c625:	48 8d 85 90 ec ff ff 	lea    -0x1370(%rbp),%rax
    c62c:	48 89 85 d0 ed ff ff 	mov    %rax,-0x1230(%rbp)
    c633:	c6 85 f0 ee ff ff 08 	movb   $0x8,-0x1110(%rbp)
    c63a:	c7 85 f4 ee ff ff ca 	movl   $0x37392ca,-0x110c(%rbp)
    c641:	92 73 03 
    c644:	c6 85 80 ec ff ff 5e 	movb   $0x5e,-0x1380(%rbp)
    c64b:	c7 85 c0 ec ff ff 55 	movl   $0xf9828155,-0x1340(%rbp)
    c652:	81 82 f9 
    c655:	48 8d 85 30 ed ff ff 	lea    -0x12d0(%rbp),%rax
    c65c:	48 89 85 58 ed ff ff 	mov    %rax,-0x12a8(%rbp)
    c663:	48 c7 85 d8 ed ff ff 	movq   $0x9,-0x1228(%rbp)
    c66a:	09 00 00 00 
    c66e:	48 c7 85 e0 ed ff ff 	movq   $0x0,-0x1220(%rbp)
    c675:	00 00 00 00 
    c679:	c7 85 d0 ec ff ff fd 	movl   $0xfffffffd,-0x1330(%rbp)
    c680:	ff ff ff 
    c683:	48 8d 85 f0 ee ff ff 	lea    -0x1110(%rbp),%rax
    c68a:	48 83 c0 04          	add    $0x4,%rax
    c68e:	48 89 85 e8 ed ff ff 	mov    %rax,-0x1218(%rbp)
    c695:	48 c7 85 60 ed ff ff 	movq   $0x0,-0x12a0(%rbp)
    c69c:	00 00 00 00 
    c6a0:	c7 85 60 ed ff ff f6 	movl   $0xfffffff6,-0x12a0(%rbp)
    c6a7:	ff ff ff 
    c6aa:	c7 85 c4 ec ff ff 00 	movl   $0x0,-0x133c(%rbp)
    c6b1:	00 00 00 
    c6b4:	eb 1e                	jmp    c6d4 <func_29+0x1aa8>
    c6b6:	8b 85 c4 ec ff ff    	mov    -0x133c(%rbp),%eax
    c6bc:	48 98                	cltq   
    c6be:	48 8d 15 b3 a9 00 00 	lea    0xa9b3(%rip),%rdx        # 17078 <g_92>
    c6c5:	48 89 94 c5 50 ef ff 	mov    %rdx,-0x10b0(%rbp,%rax,8)
    c6cc:	ff 
    c6cd:	83 85 c4 ec ff ff 01 	addl   $0x1,-0x133c(%rbp)
    c6d4:	83 bd c4 ec ff ff 02 	cmpl   $0x2,-0x133c(%rbp)
    c6db:	7e d9                	jle    c6b6 <func_29+0x1a8a>
    c6dd:	c7 85 c4 ec ff ff 00 	movl   $0x0,-0x133c(%rbp)
    c6e4:	00 00 00 
    c6e7:	eb 22                	jmp    c70b <func_29+0x1adf>
    c6e9:	8b 85 c4 ec ff ff    	mov    -0x133c(%rbp),%eax
    c6ef:	48 98                	cltq   
    c6f1:	48 8d 95 60 f0 ff ff 	lea    -0xfa0(%rbp),%rdx
    c6f8:	48 83 c2 70          	add    $0x70,%rdx
    c6fc:	48 89 94 c5 00 ef ff 	mov    %rdx,-0x1100(%rbp,%rax,8)
    c703:	ff 
    c704:	83 85 c4 ec ff ff 01 	addl   $0x1,-0x133c(%rbp)
    c70b:	83 bd c4 ec ff ff 01 	cmpl   $0x1,-0x133c(%rbp)
    c712:	7e d5                	jle    c6e9 <func_29+0x1abd>
    c714:	48 8b 85 28 f0 ff ff 	mov    -0xfd8(%rbp),%rax
    c71b:	89 c2                	mov    %eax,%edx
    c71d:	48 8b 85 20 f9 ff ff 	mov    -0x6e0(%rbp),%rax
    c724:	89 d6                	mov    %edx,%esi
    c726:	48 89 c7             	mov    %rax,%rdi
    c729:	e8 e6 e4 ff ff       	callq  ac14 <func_23>
    c72e:	48 89 85 d0 ed ff ff 	mov    %rax,-0x1230(%rbp)
    c735:	0f b6 95 54 ec ff ff 	movzbl -0x13ac(%rbp),%edx
    c73c:	48 8b 85 30 ed ff ff 	mov    -0x12d0(%rbp),%rax
    c743:	88 10                	mov    %dl,(%rax)
    c745:	0f b6 00             	movzbl (%rax),%eax
    c748:	88 05 35 ac 00 00    	mov    %al,0xac35(%rip)        # 17383 <g_893+0x3>
    c74e:	0f b6 05 2e ac 00 00 	movzbl 0xac2e(%rip),%eax        # 17383 <g_893+0x3>
    c755:	88 05 2e ac 00 00    	mov    %al,0xac2e(%rip)        # 17389 <g_901>
    c75b:	0f b6 05 27 ac 00 00 	movzbl 0xac27(%rip),%eax        # 17389 <g_901>
    c762:	84 c0                	test   %al,%al
    c764:	0f 85 ff 00 00 00    	jne    c869 <func_29+0x1c3d>
    c76a:	0f b7 05 cf a8 00 00 	movzwl 0xa8cf(%rip),%eax        # 17040 <g_61>
    c771:	98                   	cwtl   
    c772:	89 c7                	mov    %eax,%edi
    c774:	e8 2d 97 ff ff       	callq  5ea6 <safe_unary_minus_func_uint32_t_u>
    c779:	41 89 c5             	mov    %eax,%r13d
    c77c:	48 8b 85 50 ef ff ff 	mov    -0x10b0(%rbp),%rax
    c783:	48 85 c0             	test   %rax,%rax
    c786:	0f 85 aa 00 00 00    	jne    c836 <func_29+0x1c0a>
    c78c:	8b 05 fa ab 00 00    	mov    0xabfa(%rip),%eax        # 1738c <g_917>
    c792:	41 89 c6             	mov    %eax,%r14d
    c795:	0f b6 05 ac aa 00 00 	movzbl 0xaaac(%rip),%eax        # 17248 <g_649+0xc8>
    c79c:	0f be d8             	movsbl %al,%ebx
    c79f:	0f b6 85 54 ec ff ff 	movzbl -0x13ac(%rbp),%eax
    c7a6:	44 0f b6 e0          	movzbl %al,%r12d
    c7aa:	0f b6 85 54 ec ff ff 	movzbl -0x13ac(%rbp),%eax
    c7b1:	0f b6 d0             	movzbl %al,%edx
    c7b4:	48 8b 85 48 ed ff ff 	mov    -0x12b8(%rbp),%rax
    c7bb:	48 83 f8 f9          	cmp    $0xfffffffffffffff9,%rax
    c7bf:	0f 95 c0             	setne  %al
    c7c2:	0f b6 c0             	movzbl %al,%eax
    c7c5:	48 89 d6             	mov    %rdx,%rsi
    c7c8:	48 89 c7             	mov    %rax,%rdi
    c7cb:	e8 7b 98 ff ff       	callq  604b <safe_sub_func_uint64_t_u_u>
    c7d0:	4c 89 e6             	mov    %r12,%rsi
    c7d3:	48 89 c7             	mov    %rax,%rdi
    c7d6:	e8 a5 98 ff ff       	callq  6080 <safe_mod_func_uint64_t_u_u>
    c7db:	89 85 cc f1 ff ff    	mov    %eax,-0xe34(%rbp)
    c7e1:	8b 85 cc f1 ff ff    	mov    -0xe34(%rbp),%eax
    c7e7:	0f be c0             	movsbl %al,%eax
    c7ea:	89 de                	mov    %ebx,%esi
    c7ec:	89 c7                	mov    %eax,%edi
    c7ee:	e8 ff 89 ff ff       	callq  51f2 <safe_sub_func_int8_t_s_s>
    c7f3:	84 c0                	test   %al,%al
    c7f5:	74 0b                	je     c802 <func_29+0x1bd6>
    c7f7:	48 8b 05 3a be 00 00 	mov    0xbe3a(%rip),%rax        # 18638 <g_771>
    c7fe:	8b 00                	mov    (%rax),%eax
    c800:	85 c0                	test   %eax,%eax
    c802:	8b 05 6c a8 00 00    	mov    0xa86c(%rip),%eax        # 17074 <g_87>
    c808:	48 63 d0             	movslq %eax,%rdx
    c80b:	48 8b 85 28 ed ff ff 	mov    -0x12d8(%rbp),%rax
    c812:	48 31 d0             	xor    %rdx,%rax
    c815:	4c 89 f6             	mov    %r14,%rsi
    c818:	48 89 c7             	mov    %rax,%rdi
    c81b:	e8 0e 98 ff ff       	callq  602e <safe_add_func_uint64_t_u_u>
    c820:	0f b6 95 54 ec ff ff 	movzbl -0x13ac(%rbp),%edx
    c827:	0f b6 d2             	movzbl %dl,%edx
    c82a:	48 39 d0             	cmp    %rdx,%rax
    c82d:	80 bd 6c ec ff ff 01 	cmpb   $0x1,-0x1394(%rbp)
    c834:	74 07                	je     c83d <func_29+0x1c11>
    c836:	b8 01 00 00 00       	mov    $0x1,%eax
    c83b:	eb 05                	jmp    c842 <func_29+0x1c16>
    c83d:	b8 00 00 00 00       	mov    $0x0,%eax
    c842:	41 39 c5             	cmp    %eax,%r13d
    c845:	0f 96 c0             	setbe  %al
    c848:	0f b6 c0             	movzbl %al,%eax
    c84b:	f7 d0                	not    %eax
    c84d:	98                   	cwtl   
    c84e:	89 c6                	mov    %eax,%esi
    c850:	bf 00 00 00 00       	mov    $0x0,%edi
    c855:	e8 79 8b ff ff       	callq  53d3 <safe_sub_func_int16_t_s_s>
    c85a:	98                   	cwtl   
    c85b:	be 00 00 00 00       	mov    $0x0,%esi
    c860:	89 c7                	mov    %eax,%edi
    c862:	e8 9e 8d ff ff       	callq  5605 <safe_sub_func_int32_t_s_s>
    c867:	85 c0                	test   %eax,%eax
    c869:	c6 85 80 ec ff ff f7 	movb   $0xf7,-0x1380(%rbp)
    c870:	66 c7 85 8a ec ff ff 	movw   $0xd307,-0x1376(%rbp)
    c877:	07 d3 
    c879:	48 c7 85 f0 ed ff ff 	movq   $0x0,-0x1210(%rbp)
    c880:	00 00 00 00 
    c884:	48 c7 85 f8 ed ff ff 	movq   $0xfffffffffffffff7,-0x1208(%rbp)
    c88b:	f7 ff ff ff 
    c88f:	c7 85 d4 ec ff ff 1a 	movl   $0x19770e1a,-0x132c(%rbp)
    c896:	0e 77 19 
    c899:	c7 85 90 ef ff ff ff 	movl   $0xffffffff,-0x1070(%rbp)
    c8a0:	ff ff ff 
    c8a3:	c7 85 94 ef ff ff ff 	movl   $0xffffffff,-0x106c(%rbp)
    c8aa:	ff ff ff 
    c8ad:	c7 85 98 ef ff ff ff 	movl   $0xffffffff,-0x1068(%rbp)
    c8b4:	ff ff ff 
    c8b7:	c7 85 9c ef ff ff ff 	movl   $0xffffffff,-0x1064(%rbp)
    c8be:	ff ff ff 
    c8c1:	c7 85 a0 ef ff ff ff 	movl   $0xffffffff,-0x1060(%rbp)
    c8c8:	ff ff ff 
    c8cb:	c7 85 a4 ef ff ff ff 	movl   $0xffffffff,-0x105c(%rbp)
    c8d2:	ff ff ff 
    c8d5:	c7 85 c8 ec ff ff 95 	movl   $0xa062be95,-0x1338(%rbp)
    c8dc:	be 62 a0 
    c8df:	66 c7 85 88 ec ff ff 	movw   $0x6cb,-0x1378(%rbp)
    c8e6:	cb 06 
    c8e8:	48 8d 85 58 ed ff ff 	lea    -0x12a8(%rbp),%rax
    c8ef:	48 89 85 00 ee ff ff 	mov    %rax,-0x1200(%rbp)
    c8f6:	c7 05 6c a8 00 00 00 	movl   $0x0,0xa86c(%rip)        # 1716c <g_405>
    c8fd:	00 00 00 
    c900:	e9 4a 09 00 00       	jmpq   d24f <func_29+0x2623>
    c905:	48 8d 05 b4 ce 00 00 	lea    0xceb4(%rip),%rax        # 197c0 <g_812>
    c90c:	48 89 85 08 ee ff ff 	mov    %rax,-0x11f8(%rbp)
    c913:	48 8d 05 a6 ce 00 00 	lea    0xcea6(%rip),%rax        # 197c0 <g_812>
    c91a:	48 89 85 10 ee ff ff 	mov    %rax,-0x11f0(%rbp)
    c921:	48 8d 05 98 ce 00 00 	lea    0xce98(%rip),%rax        # 197c0 <g_812>
    c928:	48 89 85 18 ee ff ff 	mov    %rax,-0x11e8(%rbp)
    c92f:	48 8d 05 8a ce 00 00 	lea    0xce8a(%rip),%rax        # 197c0 <g_812>
    c936:	48 89 85 20 ee ff ff 	mov    %rax,-0x11e0(%rbp)
    c93d:	c7 85 d8 ec ff ff 69 	movl   $0xd58d3069,-0x1328(%rbp)
    c944:	30 8d d5 
    c947:	c7 85 dc ec ff ff ff 	movl   $0xffffffff,-0x1324(%rbp)
    c94e:	ff ff ff 
    c951:	48 c7 85 28 ee ff ff 	movq   $0x0,-0x11d8(%rbp)
    c958:	00 00 00 00 
    c95c:	48 8d 05 e1 a7 00 00 	lea    0xa7e1(%rip),%rax        # 17144 <g_256>
    c963:	48 89 85 30 ee ff ff 	mov    %rax,-0x11d0(%rbp)
    c96a:	48 8d 85 d0 ef ff ff 	lea    -0x1030(%rbp),%rax
    c971:	48 83 c0 10          	add    $0x10,%rax
    c975:	48 89 85 68 ed ff ff 	mov    %rax,-0x1298(%rbp)
    c97c:	48 b8 f7 f1 a3 7a 4e 	movabs $0x72c70d4e7aa3f1f7,%rax
    c983:	0d c7 72 
    c986:	48 89 85 38 ee ff ff 	mov    %rax,-0x11c8(%rbp)
    c98d:	c7 85 e0 ec ff ff 43 	movl   $0x2e747e43,-0x1320(%rbp)
    c994:	7e 74 2e 
    c997:	48 8d 85 00 f1 ff ff 	lea    -0xf00(%rbp),%rax
    c99e:	48 83 e8 80          	sub    $0xffffffffffffff80,%rax
    c9a2:	48 89 85 40 ee ff ff 	mov    %rax,-0x11c0(%rbp)
    c9a9:	c7 85 ac ec ff ff 00 	movl   $0x0,-0x1354(%rbp)
    c9b0:	00 00 00 
    c9b3:	eb 53                	jmp    ca08 <func_29+0x1ddc>
    c9b5:	c7 85 b0 ec ff ff 00 	movl   $0x0,-0x1350(%rbp)
    c9bc:	00 00 00 
    c9bf:	eb 37                	jmp    c9f8 <func_29+0x1dcc>
    c9c1:	8b 85 b0 ec ff ff    	mov    -0x1350(%rbp),%eax
    c9c7:	48 63 c8             	movslq %eax,%rcx
    c9ca:	8b 85 ac ec ff ff    	mov    -0x1354(%rbp),%eax
    c9d0:	48 63 d0             	movslq %eax,%rdx
    c9d3:	48 89 d0             	mov    %rdx,%rax
    c9d6:	48 01 c0             	add    %rax,%rax
    c9d9:	48 01 d0             	add    %rdx,%rax
    c9dc:	48 01 c0             	add    %rax,%rax
    c9df:	48 01 c8             	add    %rcx,%rax
    c9e2:	48 8d 15 d7 cd 00 00 	lea    0xcdd7(%rip),%rdx        # 197c0 <g_812>
    c9e9:	48 89 94 c5 50 f3 ff 	mov    %rdx,-0xcb0(%rbp,%rax,8)
    c9f0:	ff 
    c9f1:	83 85 b0 ec ff ff 01 	addl   $0x1,-0x1350(%rbp)
    c9f8:	83 bd b0 ec ff ff 05 	cmpl   $0x5,-0x1350(%rbp)
    c9ff:	7e c0                	jle    c9c1 <func_29+0x1d95>
    ca01:	83 85 ac ec ff ff 01 	addl   $0x1,-0x1354(%rbp)
    ca08:	83 bd ac ec ff ff 08 	cmpl   $0x8,-0x1354(%rbp)
    ca0f:	7e a4                	jle    c9b5 <func_29+0x1d89>
    ca11:	c7 85 ac ec ff ff 00 	movl   $0x0,-0x1354(%rbp)
    ca18:	00 00 00 
    ca1b:	eb 1e                	jmp    ca3b <func_29+0x1e0f>
    ca1d:	8b 85 ac ec ff ff    	mov    -0x1354(%rbp),%eax
    ca23:	48 98                	cltq   
    ca25:	48 8d 95 40 ed ff ff 	lea    -0x12c0(%rbp),%rdx
    ca2c:	48 89 94 c5 10 ef ff 	mov    %rdx,-0x10f0(%rbp,%rax,8)
    ca33:	ff 
    ca34:	83 85 ac ec ff ff 01 	addl   $0x1,-0x1354(%rbp)
    ca3b:	83 bd ac ec ff ff 01 	cmpl   $0x1,-0x1354(%rbp)
    ca42:	7e d9                	jle    ca1d <func_29+0x1df1>
    ca44:	c7 85 ac ec ff ff 00 	movl   $0x0,-0x1354(%rbp)
    ca4b:	00 00 00 
    ca4e:	eb 1e                	jmp    ca6e <func_29+0x1e42>
    ca50:	8b 85 ac ec ff ff    	mov    -0x1354(%rbp),%eax
    ca56:	48 98                	cltq   
    ca58:	48 8d 15 b1 bb 00 00 	lea    0xbbb1(%rip),%rdx        # 18610 <g_648>
    ca5f:	48 89 94 c5 d0 ef ff 	mov    %rdx,-0x1030(%rbp,%rax,8)
    ca66:	ff 
    ca67:	83 85 ac ec ff ff 01 	addl   $0x1,-0x1354(%rbp)
    ca6e:	83 bd ac ec ff ff 06 	cmpl   $0x6,-0x1354(%rbp)
    ca75:	7e d9                	jle    ca50 <func_29+0x1e24>
    ca77:	66 c7 05 de a5 00 00 	movw   $0x0,0xa5de(%rip)        # 1705e <g_81>
    ca7e:	00 00 
    ca80:	eb 35                	jmp    cab7 <func_29+0x1e8b>
    ca82:	0f b7 05 d5 a5 00 00 	movzwl 0xa5d5(%rip),%eax        # 1705e <g_81>
    ca89:	98                   	cwtl   
    ca8a:	48 98                	cltq   
    ca8c:	48 8d 14 c5 00 00 00 	lea    0x0(,%rax,8),%rdx
    ca93:	00 
    ca94:	48 8d 05 e5 ba 00 00 	lea    0xbae5(%rip),%rax        # 18580 <g_318>
    ca9b:	48 8d 0d ee cc 00 00 	lea    0xccee(%rip),%rcx        # 19790 <g_78>
    caa2:	48 89 0c 02          	mov    %rcx,(%rdx,%rax,1)
    caa6:	0f b7 05 b1 a5 00 00 	movzwl 0xa5b1(%rip),%eax        # 1705e <g_81>
    caad:	83 c0 01             	add    $0x1,%eax
    cab0:	66 89 05 a7 a5 00 00 	mov    %ax,0xa5a7(%rip)        # 1705e <g_81>
    cab7:	0f b7 05 a0 a5 00 00 	movzwl 0xa5a0(%rip),%eax        # 1705e <g_81>
    cabe:	66 83 f8 03          	cmp    $0x3,%ax
    cac2:	7e be                	jle    ca82 <func_29+0x1e56>
    cac4:	66 83 ad 8a ec ff ff 	subw   $0x1,-0x1376(%rbp)
    cacb:	01 
    cacc:	48 8b 85 10 ef ff ff 	mov    -0x10f0(%rbp),%rax
    cad3:	48 89 05 76 bb 00 00 	mov    %rax,0xbb76(%rip)        # 18650 <g_942>
    cada:	48 8b 05 6f bb 00 00 	mov    0xbb6f(%rip),%rax        # 18650 <g_942>
    cae1:	48 85 c0             	test   %rax,%rax
    cae4:	0f 95 c0             	setne  %al
    cae7:	0f b6 d8             	movzbl %al,%ebx
    caea:	be 00 00 00 00       	mov    $0x0,%esi
    caef:	bf 19 97 00 00       	mov    $0x9719,%edi
    caf4:	e8 4f 93 ff ff       	callq  5e48 <safe_rshift_func_uint16_t_u_s>
    caf9:	0f be c0             	movsbl %al,%eax
    cafc:	be 06 00 00 00       	mov    $0x6,%esi
    cb01:	89 c7                	mov    %eax,%edi
    cb03:	e8 99 87 ff ff       	callq  52a1 <safe_lshift_func_int8_t_s_s>
    cb08:	0f be c0             	movsbl %al,%eax
    cb0b:	89 de                	mov    %ebx,%esi
    cb0d:	89 c7                	mov    %eax,%edi
    cb0f:	e8 da 87 ff ff       	callq  52ee <safe_lshift_func_int8_t_s_u>
    cb14:	3c ff                	cmp    $0xff,%al
    cb16:	74 71                	je     cb89 <func_29+0x1f5d>
    cb18:	48 8b 85 30 ee ff ff 	mov    -0x11d0(%rbp),%rax
    cb1f:	8b 00                	mov    (%rax),%eax
    cb21:	8d 50 01             	lea    0x1(%rax),%edx
    cb24:	48 8b 85 30 ee ff ff 	mov    -0x11d0(%rbp),%rax
    cb2b:	89 10                	mov    %edx,(%rax)
    cb2d:	48 8b 85 30 ee ff ff 	mov    -0x11d0(%rbp),%rax
    cb34:	8b 00                	mov    (%rax),%eax
    cb36:	83 f8 01             	cmp    $0x1,%eax
    cb39:	0f 95 c0             	setne  %al
    cb3c:	0f b6 d0             	movzbl %al,%edx
    cb3f:	0f b7 85 8e f0 ff ff 	movzwl -0xf72(%rbp),%eax
    cb46:	0f b7 c0             	movzwl %ax,%eax
    cb49:	89 d6                	mov    %edx,%esi
    cb4b:	89 c7                	mov    %eax,%edi
    cb4d:	e8 eb 91 ff ff       	callq  5d3d <safe_mul_func_uint16_t_u_u>
    cb52:	0f b7 85 5c ec ff ff 	movzwl -0x13a4(%rbp),%eax
    cb59:	0f b7 c0             	movzwl %ax,%eax
    cb5c:	89 c7                	mov    %eax,%edi
    cb5e:	e8 43 93 ff ff       	callq  5ea6 <safe_unary_minus_func_uint32_t_u>
    cb63:	48 8b 95 f0 ed ff ff 	mov    -0x1210(%rbp),%rdx
    cb6a:	48 3b 95 78 ed ff ff 	cmp    -0x1288(%rbp),%rdx
    cb71:	0f 95 c2             	setne  %dl
    cb74:	0f b6 d2             	movzbl %dl,%edx
    cb77:	39 d0                	cmp    %edx,%eax
    cb79:	74 07                	je     cb82 <func_29+0x1f56>
    cb7b:	83 bd dc ec ff ff 00 	cmpl   $0x0,-0x1324(%rbp)
    cb82:	b8 01 00 00 00       	mov    $0x1,%eax
    cb87:	eb 05                	jmp    cb8e <func_29+0x1f62>
    cb89:	b8 00 00 00 00       	mov    $0x0,%eax
    cb8e:	89 85 dc ec ff ff    	mov    %eax,-0x1324(%rbp)
    cb94:	83 bd dc ec ff ff 00 	cmpl   $0x0,-0x1324(%rbp)
    cb9b:	0f 84 ea 02 00 00    	je     ce8b <func_29+0x225f>
    cba1:	48 b8 6d b4 1e f2 58 	movabs $0x620e7058f21eb46d,%rax
    cba8:	70 0e 62 
    cbab:	48 89 85 60 ee ff ff 	mov    %rax,-0x11a0(%rbp)
    cbb2:	48 c7 85 68 ee ff ff 	movq   $0x0,-0x1198(%rbp)
    cbb9:	00 00 00 00 
    cbbd:	48 8d 85 68 ed ff ff 	lea    -0x1298(%rbp),%rax
    cbc4:	48 89 85 70 ee ff ff 	mov    %rax,-0x1190(%rbp)
    cbcb:	c7 85 04 ed ff ff f9 	movl   $0xfffffff9,-0x12fc(%rbp)
    cbd2:	ff ff ff 
    cbd5:	c7 85 b4 ec ff ff 00 	movl   $0x0,-0x134c(%rbp)
    cbdc:	00 00 00 
    cbdf:	eb 1a                	jmp    cbfb <func_29+0x1fcf>
    cbe1:	8b 85 b4 ec ff ff    	mov    -0x134c(%rbp),%eax
    cbe7:	48 98                	cltq   
    cbe9:	c7 84 85 e0 f1 ff ff 	movl   $0xfffffffc,-0xe20(%rbp,%rax,4)
    cbf0:	fc ff ff ff 
    cbf4:	83 85 b4 ec ff ff 01 	addl   $0x1,-0x134c(%rbp)
    cbfb:	83 bd b4 ec ff ff 03 	cmpl   $0x3,-0x134c(%rbp)
    cc02:	7e dd                	jle    cbe1 <func_29+0x1fb5>
    cc04:	0f b6 05 a5 a7 00 00 	movzbl 0xa7a5(%rip),%eax        # 173b0 <g_981+0x8>
    cc0b:	0f b6 d8             	movzbl %al,%ebx
    cc0e:	48 8b 05 4b b9 00 00 	mov    0xb94b(%rip),%rax        # 18560 <g_242>
    cc15:	48 8b 00             	mov    (%rax),%rax
    cc18:	0f b7 00             	movzwl (%rax),%eax
    cc1b:	66 85 c0             	test   %ax,%ax
    cc1e:	75 20                	jne    cc40 <func_29+0x2014>
    cc20:	48 8b 95 68 ed ff ff 	mov    -0x1298(%rbp),%rdx
    cc27:	48 8b 85 70 ee ff ff 	mov    -0x1190(%rbp),%rax
    cc2e:	48 89 10             	mov    %rdx,(%rax)
    cc31:	48 8b 85 70 ee ff ff 	mov    -0x1190(%rbp),%rax
    cc38:	48 8b 00             	mov    (%rax),%rax
    cc3b:	48 85 c0             	test   %rax,%rax
    cc3e:	74 07                	je     cc47 <func_29+0x201b>
    cc40:	b8 01 00 00 00       	mov    $0x1,%eax
    cc45:	eb 05                	jmp    cc4c <func_29+0x2020>
    cc47:	b8 00 00 00 00       	mov    $0x0,%eax
    cc4c:	88 05 92 a6 00 00    	mov    %al,0xa692(%rip)        # 172e4 <g_788+0x44>
    cc52:	0f b6 05 8b a6 00 00 	movzbl 0xa68b(%rip),%eax        # 172e4 <g_788+0x44>
    cc59:	0f b6 d0             	movzbl %al,%edx
    cc5c:	48 8b 85 80 ed ff ff 	mov    -0x1280(%rbp),%rax
    cc63:	48 89 85 88 ed ff ff 	mov    %rax,-0x1278(%rbp)
    cc6a:	48 8b 85 88 ed ff ff 	mov    -0x1278(%rbp),%rax
    cc71:	48 3b 85 18 ee ff ff 	cmp    -0x11e8(%rbp),%rax
    cc78:	0f 95 c0             	setne  %al
    cc7b:	0f b6 c0             	movzbl %al,%eax
    cc7e:	89 d6                	mov    %edx,%esi
    cc80:	89 c7                	mov    %eax,%edi
    cc82:	e8 54 8f ff ff       	callq  5bdb <safe_div_func_uint8_t_u_u>
    cc87:	0f b6 c0             	movzbl %al,%eax
    cc8a:	48 39 85 60 ee ff ff 	cmp    %rax,-0x11a0(%rbp)
    cc91:	0f 95 c0             	setne  %al
    cc94:	0f b6 c0             	movzbl %al,%eax
    cc97:	be 48 00 00 00       	mov    $0x48,%esi
    cc9c:	89 c7                	mov    %eax,%edi
    cc9e:	e8 8e 85 ff ff       	callq  5231 <safe_mod_func_int8_t_s_s>
    cca3:	3c 01                	cmp    $0x1,%al
    cca5:	48 8b 05 5c b9 00 00 	mov    0xb95c(%rip),%rax        # 18608 <g_641>
    ccac:	48 8b 00             	mov    (%rax),%rax
    ccaf:	48 85 c0             	test   %rax,%rax
    ccb2:	0f 95 c0             	setne  %al
    ccb5:	0f b6 d0             	movzbl %al,%edx
    ccb8:	8b 05 b6 a3 00 00    	mov    0xa3b6(%rip),%eax        # 17074 <g_87>
    ccbe:	39 c2                	cmp    %eax,%edx
    ccc0:	7c 07                	jl     ccc9 <func_29+0x209d>
    ccc2:	80 bd 68 ec ff ff 00 	cmpb   $0x0,-0x1398(%rbp)
    ccc9:	48 8b 85 f8 ed ff ff 	mov    -0x1208(%rbp),%rax
    ccd0:	0f b6 c0             	movzbl %al,%eax
    ccd3:	be 00 00 00 00       	mov    $0x0,%esi
    ccd8:	89 c7                	mov    %eax,%edi
    ccda:	e8 26 8f ff ff       	callq  5c05 <safe_lshift_func_uint8_t_u_s>
    ccdf:	0f b6 c0             	movzbl %al,%eax
    cce2:	be 01 00 00 00       	mov    $0x1,%esi
    cce7:	89 c7                	mov    %eax,%edi
    cce9:	e8 d0 8f ff ff       	callq  5cbe <safe_rshift_func_uint8_t_u_u>
    ccee:	0f be c0             	movsbl %al,%eax
    ccf1:	be 05 00 00 00       	mov    $0x5,%esi
    ccf6:	89 c7                	mov    %eax,%edi
    ccf8:	e8 38 86 ff ff       	callq  5335 <safe_rshift_func_int8_t_s_s>
    ccfd:	48 0f be d0          	movsbq %al,%rdx
    cd01:	8b 05 25 a3 00 00    	mov    0xa325(%rip),%eax        # 1702c <g_7>
    cd07:	48 98                	cltq   
    cd09:	48 89 d6             	mov    %rdx,%rsi
    cd0c:	48 89 c7             	mov    %rax,%rdi
    cd0f:	e8 94 8b ff ff       	callq  58a8 <safe_sub_func_int64_t_s_s>
    cd14:	89 c2                	mov    %eax,%edx
    cd16:	48 8b 05 03 a4 00 00 	mov    0xa403(%rip),%rax        # 17120 <g_226+0x20>
    cd1d:	31 d0                	xor    %edx,%eax
    cd1f:	0f b7 c0             	movzwl %ax,%eax
    cd22:	be 05 00 00 00       	mov    $0x5,%esi
    cd27:	89 c7                	mov    %eax,%edi
    cd29:	e8 0f 90 ff ff       	callq  5d3d <safe_mul_func_uint16_t_u_u>
    cd2e:	0f b6 c0             	movzbl %al,%eax
    cd31:	89 de                	mov    %ebx,%esi
    cd33:	89 c7                	mov    %eax,%edi
    cd35:	e8 59 8e ff ff       	callq  5b93 <safe_mul_func_uint8_t_u_u>
    cd3a:	48 8b 85 60 ee ff ff 	mov    -0x11a0(%rbp),%rax
    cd41:	48 3d ff 00 00 00    	cmp    $0xff,%rax
    cd47:	0f 87 2f 01 00 00    	ja     ce7c <func_29+0x2250>
    cd4d:	c6 85 81 ec ff ff 13 	movb   $0x13,-0x137f(%rbp)
    cd54:	48 8d 05 ff a3 00 00 	lea    0xa3ff(%rip),%rax        # 1715a <g_277+0xa>
    cd5b:	48 89 85 78 ee ff ff 	mov    %rax,-0x1188(%rbp)
    cd62:	c7 85 08 ed ff ff ff 	movl   $0xffffffff,-0x12f8(%rbp)
    cd69:	ff ff ff 
    cd6c:	c7 85 04 ed ff ff 00 	movl   $0x0,-0x12fc(%rbp)
    cd73:	00 00 00 
    cd76:	8b 85 04 ed ff ff    	mov    -0x12fc(%rbp),%eax
    cd7c:	89 85 dc ec ff ff    	mov    %eax,-0x1324(%rbp)
    cd82:	80 85 81 ec ff ff 01 	addb   $0x1,-0x137f(%rbp)
    cd89:	be 03 00 00 00       	mov    $0x3,%esi
    cd8e:	bf 01 00 00 00       	mov    $0x1,%edi
    cd93:	e8 26 8f ff ff       	callq  5cbe <safe_rshift_func_uint8_t_u_u>
    cd98:	44 0f b6 e8          	movzbl %al,%r13d
    cd9c:	0f b7 85 5c ec ff ff 	movzwl -0x13a4(%rbp),%eax
    cda3:	0f b7 d8             	movzwl %ax,%ebx
    cda6:	48 8b 05 4b b8 00 00 	mov    0xb84b(%rip),%rax        # 185f8 <g_613>
    cdad:	0f b7 00             	movzwl (%rax),%eax
    cdb0:	0f bf d0             	movswl %ax,%edx
    cdb3:	48 8b 85 78 ee ff ff 	mov    -0x1188(%rbp),%rax
    cdba:	0f b7 00             	movzwl (%rax),%eax
    cdbd:	83 f0 01             	xor    $0x1,%eax
    cdc0:	89 c1                	mov    %eax,%ecx
    cdc2:	48 8b 85 78 ee ff ff 	mov    -0x1188(%rbp),%rax
    cdc9:	66 89 08             	mov    %cx,(%rax)
    cdcc:	48 8b 85 78 ee ff ff 	mov    -0x1188(%rbp),%rax
    cdd3:	0f b7 00             	movzwl (%rax),%eax
    cdd6:	66 83 f8 01          	cmp    $0x1,%ax
    cdda:	0f 95 c0             	setne  %al
    cddd:	0f b6 c0             	movzbl %al,%eax
    cde0:	39 c2                	cmp    %eax,%edx
    cde2:	0f 9f c0             	setg   %al
    cde5:	0f b6 c0             	movzbl %al,%eax
    cde8:	be 61 00 00 00       	mov    $0x61,%esi
    cded:	89 c7                	mov    %eax,%edi
    cdef:	e8 e7 8d ff ff       	callq  5bdb <safe_div_func_uint8_t_u_u>
    cdf4:	44 0f b6 e0          	movzbl %al,%r12d
    cdf8:	44 8b b5 e0 f1 ff ff 	mov    -0xe20(%rbp),%r14d
    cdff:	be fd ff ff ff       	mov    $0xfffffffd,%esi
    ce04:	bf ff ff ff ff       	mov    $0xffffffff,%edi
    ce09:	e8 e4 83 ff ff       	callq  51f2 <safe_sub_func_int8_t_s_s>
    ce0e:	0f be c0             	movsbl %al,%eax
    ce11:	41 39 c6             	cmp    %eax,%r14d
    ce14:	0f 9d c0             	setge  %al
    ce17:	0f b6 c0             	movzbl %al,%eax
    ce1a:	48 89 c7             	mov    %rax,%rdi
    ce1d:	e8 f4 89 ff ff       	callq  5816 <safe_unary_minus_func_int64_t_s>
    ce22:	44 89 e6             	mov    %r12d,%esi
    ce25:	89 c7                	mov    %eax,%edi
    ce27:	e8 f9 90 ff ff       	callq  5f25 <safe_div_func_uint32_t_u_u>
    ce2c:	89 c0                	mov    %eax,%eax
    ce2e:	48 89 de             	mov    %rbx,%rsi
    ce31:	48 89 c7             	mov    %rax,%rdi
    ce34:	e8 7b 8b ff ff       	callq  59b4 <safe_mod_func_int64_t_s_s>
    ce39:	8b 15 05 a3 00 00    	mov    0xa305(%rip),%edx        # 17144 <g_256>
    ce3f:	89 d2                	mov    %edx,%edx
    ce41:	48 39 d0             	cmp    %rdx,%rax
    ce44:	0f 9f c0             	setg   %al
    ce47:	0f b6 c0             	movzbl %al,%eax
    ce4a:	44 89 ea             	mov    %r13d,%edx
    ce4d:	21 c2                	and    %eax,%edx
    ce4f:	48 8b 05 0a b7 00 00 	mov    0xb70a(%rip),%rax        # 18560 <g_242>
    ce56:	48 8b 00             	mov    (%rax),%rax
    ce59:	0f b7 00             	movzwl (%rax),%eax
    ce5c:	0f b7 c0             	movzwl %ax,%eax
    ce5f:	89 d6                	mov    %edx,%esi
    ce61:	89 c7                	mov    %eax,%edi
    ce63:	e8 56 8f ff ff       	callq  5dbe <safe_lshift_func_uint16_t_u_s>
    ce68:	0f b7 c0             	movzwl %ax,%eax
    ce6b:	21 85 08 ed ff ff    	and    %eax,-0x12f8(%rbp)
    ce71:	8b 85 d8 ec ff ff    	mov    -0x1328(%rbp),%eax
    ce77:	e9 54 15 00 00       	jmpq   e3d0 <func_29+0x37a4>
    ce7c:	0f b6 85 54 ec ff ff 	movzbl -0x13ac(%rbp),%eax
    ce83:	0f b6 c0             	movzbl %al,%eax
    ce86:	e9 45 15 00 00       	jmpq   e3d0 <func_29+0x37a4>
    ce8b:	66 c7 85 8c ec ff ff 	movw   $0x366c,-0x1374(%rbp)
    ce92:	6c 36 
    ce94:	c7 85 e4 ec ff ff ae 	movl   $0x60e4e8ae,-0x131c(%rbp)
    ce9b:	e8 e4 60 
    ce9e:	c7 85 e8 ec ff ff fb 	movl   $0xfffffffb,-0x1318(%rbp)
    cea5:	ff ff ff 
    cea8:	c7 85 a0 ec ff ff 00 	movl   $0x0,-0x1360(%rbp)
    ceaf:	00 00 00 
    ceb2:	c6 85 a0 ec ff ff 01 	movb   $0x1,-0x1360(%rbp)
    ceb9:	48 8d 05 c0 a1 00 00 	lea    0xa1c0(%rip),%rax        # 17080 <g_136>
    cec0:	48 89 85 70 ed ff ff 	mov    %rax,-0x1290(%rbp)
    cec7:	48 8d 85 70 ed ff ff 	lea    -0x1290(%rbp),%rax
    cece:	48 89 85 48 ee ff ff 	mov    %rax,-0x11b8(%rbp)
    ced5:	0f b6 9d 6c ec ff ff 	movzbl -0x1394(%rbp),%ebx
    cedc:	0f b7 85 8c ec ff ff 	movzwl -0x1374(%rbp),%eax
    cee3:	0f be d0             	movsbl %al,%edx
    cee6:	0f b7 85 5c ec ff ff 	movzwl -0x13a4(%rbp),%eax
    ceed:	0f be c0             	movsbl %al,%eax
    cef0:	89 d6                	mov    %edx,%esi
    cef2:	89 c7                	mov    %eax,%edi
    cef4:	e8 38 83 ff ff       	callq  5231 <safe_mod_func_int8_t_s_s>
    cef9:	66 0f be d0          	movsbw %al,%dx
    cefd:	48 8b 05 f4 b6 00 00 	mov    0xb6f4(%rip),%rax        # 185f8 <g_613>
    cf04:	0f b7 00             	movzwl (%rax),%eax
    cf07:	66 39 c2             	cmp    %ax,%dx
    cf0a:	0f 9d c0             	setge  %al
    cf0d:	0f b6 c0             	movzbl %al,%eax
    cf10:	21 d8                	and    %ebx,%eax
    cf12:	85 c0                	test   %eax,%eax
    cf14:	74 35                	je     cf4b <func_29+0x231f>
    cf16:	c7 85 ec ec ff ff ff 	movl   $0xffffffff,-0x1314(%rbp)
    cf1d:	ff ff ff 
    cf20:	8b 85 a0 f1 ff ff    	mov    -0xe60(%rbp),%eax
    cf26:	89 85 a0 f1 ff ff    	mov    %eax,-0xe60(%rbp)
    cf2c:	83 85 c8 ec ff ff 01 	addl   $0x1,-0x1338(%rbp)
    cf33:	83 ad ec ec ff ff 01 	subl   $0x1,-0x1314(%rbp)
    cf3a:	0f b7 05 ff a1 00 00 	movzwl 0xa1ff(%rip),%eax        # 17140 <g_228>
    cf41:	66 85 c0             	test   %ax,%ax
    cf44:	74 57                	je     cf9d <func_29+0x2371>
    cf46:	e9 05 e4 ff ff       	jmpq   b350 <func_29+0x724>
    cf4b:	48 c7 85 50 ee ff ff 	movq   $0x0,-0x11b0(%rbp)
    cf52:	00 00 00 00 
    cf56:	48 83 bd 50 ee ff ff 	cmpq   $0x0,-0x11b0(%rbp)
    cf5d:	00 
    cf5e:	0f 95 c0             	setne  %al
    cf61:	0f b6 d0             	movzbl %al,%edx
    cf64:	0f b7 85 5c ec ff ff 	movzwl -0x13a4(%rbp),%eax
    cf6b:	0f b7 c0             	movzwl %ax,%eax
    cf6e:	39 c2                	cmp    %eax,%edx
    cf70:	0f 9f c0             	setg   %al
    cf73:	89 c2                	mov    %eax,%edx
    cf75:	8b 85 dc ec ff ff    	mov    -0x1324(%rbp),%eax
    cf7b:	21 d0                	and    %edx,%eax
    cf7d:	0f b6 c0             	movzbl %al,%eax
    cf80:	be 07 00 00 00       	mov    $0x7,%esi
    cf85:	89 c7                	mov    %eax,%edi
    cf87:	e8 01 8d ff ff       	callq  5c8d <safe_rshift_func_uint8_t_u_s>
    cf8c:	8b 95 cc f1 ff ff    	mov    -0xe34(%rbp),%edx
    cf92:	0f b6 c0             	movzbl %al,%eax
    cf95:	21 d0                	and    %edx,%eax
    cf97:	89 85 cc f1 ff ff    	mov    %eax,-0xe34(%rbp)
    cf9d:	c6 85 6c ec ff ff 00 	movb   $0x0,-0x1394(%rbp)
    cfa4:	e9 f2 00 00 00       	jmpq   d09b <func_29+0x246f>
    cfa9:	48 8b 05 a0 b6 00 00 	mov    0xb6a0(%rip),%rax        # 18650 <g_942>
    cfb0:	48 8b 00             	mov    (%rax),%rax
    cfb3:	8b 95 e0 ec ff ff    	mov    -0x1320(%rbp),%edx
    cfb9:	48 63 d2             	movslq %edx,%rdx
    cfbc:	48 89 10             	mov    %rdx,(%rax)
    cfbf:	48 8b 05 8a b6 00 00 	mov    0xb68a(%rip),%rax        # 18650 <g_942>
    cfc6:	48 8b 00             	mov    (%rax),%rax
    cfc9:	48 bb 94 b4 03 b8 c1 	movabs $0xda52dcc1b803b494,%rbx
    cfd0:	dc 52 da 
    cfd3:	48 89 18             	mov    %rbx,(%rax)
    cfd6:	b8 01 00 00 00       	mov    $0x1,%eax
    cfdb:	48 63 d0             	movslq %eax,%rdx
    cfde:	48 8b 05 1b b6 00 00 	mov    0xb61b(%rip),%rax        # 18600 <g_621>
    cfe5:	48 8b 00             	mov    (%rax),%rax
    cfe8:	48 f7 d0             	not    %rax
    cfeb:	48 39 c2             	cmp    %rax,%rdx
    cfee:	8b 85 58 ec ff ff    	mov    -0x13a8(%rbp),%eax
    cff4:	41 89 c5             	mov    %eax,%r13d
    cff7:	48 8b 85 38 ee ff ff 	mov    -0x11c8(%rbp),%rax
    cffe:	0f bf d8             	movswl %ax,%ebx
    d001:	0f b7 05 56 a0 00 00 	movzwl 0xa056(%rip),%eax        # 1705e <g_81>
    d008:	66 83 f8 01          	cmp    $0x1,%ax
    d00c:	0f 95 c0             	setne  %al
    d00f:	44 0f b6 e0          	movzbl %al,%r12d
    d013:	0f b6 85 68 ec ff ff 	movzbl -0x1398(%rbp),%eax
    d01a:	89 c6                	mov    %eax,%esi
    d01c:	bf 1c 00 00 00       	mov    $0x1c,%edi
    d021:	e8 b5 8b ff ff       	callq  5bdb <safe_div_func_uint8_t_u_u>
    d026:	0f b6 c0             	movzbl %al,%eax
    d029:	44 89 e6             	mov    %r12d,%esi
    d02c:	89 c7                	mov    %eax,%edi
    d02e:	e8 60 8b ff ff       	callq  5b93 <safe_mul_func_uint8_t_u_u>
    d033:	be 04 00 00 00       	mov    $0x4,%esi
    d038:	bf 00 00 00 00       	mov    $0x0,%edi
    d03d:	e8 50 84 ff ff       	callq  5492 <safe_lshift_func_int16_t_s_s>
    d042:	0f b7 c0             	movzwl %ax,%eax
    d045:	be 0d 00 00 00       	mov    $0xd,%esi
    d04a:	89 c7                	mov    %eax,%edi
    d04c:	e8 6d 8d ff ff       	callq  5dbe <safe_lshift_func_uint16_t_u_s>
    d051:	98                   	cwtl   
    d052:	89 de                	mov    %ebx,%esi
    d054:	89 c7                	mov    %eax,%edi
    d056:	e8 78 83 ff ff       	callq  53d3 <safe_sub_func_int16_t_s_s>
    d05b:	98                   	cwtl   
    d05c:	44 89 ee             	mov    %r13d,%esi
    d05f:	89 c7                	mov    %eax,%edi
    d061:	e8 52 8e ff ff       	callq  5eb8 <safe_add_func_uint32_t_u_u>
    d066:	48 83 bd 60 ec ff ff 	cmpq   $0x0,-0x13a0(%rbp)
    d06d:	00 
    d06e:	75 0a                	jne    d07a <func_29+0x244e>
    d070:	8b 85 58 ec ff ff    	mov    -0x13a8(%rbp),%eax
    d076:	85 c0                	test   %eax,%eax
    d078:	74 07                	je     d081 <func_29+0x2455>
    d07a:	ba 01 00 00 00       	mov    $0x1,%edx
    d07f:	eb 05                	jmp    d086 <func_29+0x245a>
    d081:	ba 00 00 00 00       	mov    $0x0,%edx
    d086:	8b 85 98 ef ff ff    	mov    -0x1068(%rbp),%eax
    d08c:	21 d0                	and    %edx,%eax
    d08e:	89 85 98 ef ff ff    	mov    %eax,-0x1068(%rbp)
    d094:	80 85 6c ec ff ff 01 	addb   $0x1,-0x1394(%rbp)
    d09b:	80 bd 6c ec ff ff 05 	cmpb   $0x5,-0x1394(%rbp)
    d0a2:	0f 87 01 ff ff ff    	ja     cfa9 <func_29+0x237d>
    d0a8:	48 c7 85 40 ee ff ff 	movq   $0x0,-0x11c0(%rbp)
    d0af:	00 00 00 00 
    d0b3:	48 8b 85 48 ee ff ff 	mov    -0x11b8(%rbp),%rax
    d0ba:	48 8d 95 f0 ee ff ff 	lea    -0x1110(%rbp),%rdx
    d0c1:	48 89 10             	mov    %rdx,(%rax)
    d0c4:	66 c7 05 73 a0 00 00 	movw   $0x0,0xa073(%rip)        # 17140 <g_228>
    d0cb:	00 00 
    d0cd:	e9 4c 01 00 00       	jmpq   d21e <func_29+0x25f2>
    d0d2:	48 8d 85 e0 f1 ff ff 	lea    -0xe20(%rbp),%rax
    d0d9:	48 8d 15 00 6c 00 00 	lea    0x6c00(%rip),%rdx        # 13ce0 <g_3098+0x1840>
    d0e0:	b9 24 00 00 00       	mov    $0x24,%ecx
    d0e5:	48 89 c7             	mov    %rax,%rdi
    d0e8:	48 89 d6             	mov    %rdx,%rsi
    d0eb:	f3 48 a5             	rep movsq %ds:(%rsi),%es:(%rdi)
    d0ee:	c7 85 f0 ec ff ff 00 	movl   $0x0,-0x1310(%rbp)
    d0f5:	00 00 00 
    d0f8:	c7 85 20 ef ff ff a4 	movl   $0x4bc97aa4,-0x10e0(%rbp)
    d0ff:	7a c9 4b 
    d102:	c7 85 24 ef ff ff a4 	movl   $0x4bc97aa4,-0x10dc(%rbp)
    d109:	7a c9 4b 
    d10c:	c7 85 28 ef ff ff a4 	movl   $0x4bc97aa4,-0x10d8(%rbp)
    d113:	7a c9 4b 
    d116:	c7 85 2c ef ff ff a4 	movl   $0x4bc97aa4,-0x10d4(%rbp)
    d11d:	7a c9 4b 
    d120:	c7 85 f4 ec ff ff fc 	movl   $0xfffffffc,-0x130c(%rbp)
    d127:	ff ff ff 
    d12a:	8b 85 c0 f2 ff ff    	mov    -0xd40(%rbp),%eax
    d130:	83 c0 01             	add    $0x1,%eax
    d133:	89 85 c0 f2 ff ff    	mov    %eax,-0xd40(%rbp)
    d139:	80 bd 68 ec ff ff 00 	cmpb   $0x0,-0x1398(%rbp)
    d140:	0f 85 c6 00 00 00    	jne    d20c <func_29+0x25e0>
    d146:	c7 85 c0 ec ff ff 00 	movl   $0x0,-0x1340(%rbp)
    d14d:	00 00 00 
    d150:	eb 59                	jmp    d1ab <func_29+0x257f>
    d152:	c7 85 f8 ec ff ff 8f 	movl   $0xbc3a28f,-0x1308(%rbp)
    d159:	a2 c3 0b 
    d15c:	c7 85 fc ec ff ff fd 	movl   $0xfffffffd,-0x1304(%rbp)
    d163:	ff ff ff 
    d166:	c7 85 00 ed ff ff 2a 	movl   $0x310c6c2a,-0x1300(%rbp)
    d16d:	6c 0c 31 
    d170:	66 83 ad 88 ec ff ff 	subw   $0x1,-0x1378(%rbp)
    d177:	01 
    d178:	48 8b 85 d0 ed ff ff 	mov    -0x1230(%rbp),%rax
    d17f:	8b 00                	mov    (%rax),%eax
    d181:	85 c0                	test   %eax,%eax
    d183:	75 31                	jne    d1b6 <func_29+0x258a>
    d185:	83 bd d8 ec ff ff 00 	cmpl   $0x0,-0x1328(%rbp)
    d18c:	0f 85 b7 00 00 00    	jne    d249 <func_29+0x261d>
    d192:	8b 85 c0 ec ff ff    	mov    -0x1340(%rbp),%eax
    d198:	be 03 00 00 00       	mov    $0x3,%esi
    d19d:	48 89 c7             	mov    %rax,%rdi
    d1a0:	e8 89 8e ff ff       	callq  602e <safe_add_func_uint64_t_u_u>
    d1a5:	89 85 c0 ec ff ff    	mov    %eax,-0x1340(%rbp)
    d1ab:	83 bd c0 ec ff ff 10 	cmpl   $0x10,-0x1340(%rbp)
    d1b2:	75 9e                	jne    d152 <func_29+0x2526>
    d1b4:	eb 01                	jmp    d1b7 <func_29+0x258b>
    d1b6:	90                   	nop
    d1b7:	c6 85 6c ec ff ff 00 	movb   $0x0,-0x1394(%rbp)
    d1be:	eb 41                	jmp    d201 <func_29+0x25d5>
    d1c0:	48 8d 85 f0 ee ff ff 	lea    -0x1110(%rbp),%rax
    d1c7:	48 89 85 58 ee ff ff 	mov    %rax,-0x11a8(%rbp)
    d1ce:	48 8b 85 58 ee ff ff 	mov    -0x11a8(%rbp),%rax
    d1d5:	48 8b 95 54 ec ff ff 	mov    -0x13ac(%rbp),%rdx
    d1dc:	48 89 10             	mov    %rdx,(%rax)
    d1df:	48 8b 05 72 b4 00 00 	mov    0xb472(%rip),%rax        # 18658 <g_1058>
    d1e6:	48 8b 95 58 ee ff ff 	mov    -0x11a8(%rbp),%rdx
    d1ed:	48 8b 12             	mov    (%rdx),%rdx
    d1f0:	48 89 10             	mov    %rdx,(%rax)
    d1f3:	83 bd f4 ec ff ff 00 	cmpl   $0x0,-0x130c(%rbp)
    d1fa:	80 85 6c ec ff ff 01 	addb   $0x1,-0x1394(%rbp)
    d201:	80 bd 6c ec ff ff 06 	cmpb   $0x6,-0x1394(%rbp)
    d208:	76 b6                	jbe    d1c0 <func_29+0x2594>
    d20a:	eb 01                	jmp    d20d <func_29+0x25e1>
    d20c:	90                   	nop
    d20d:	0f b7 05 2c 9f 00 00 	movzwl 0x9f2c(%rip),%eax        # 17140 <g_228>
    d214:	83 c0 01             	add    $0x1,%eax
    d217:	66 89 05 22 9f 00 00 	mov    %ax,0x9f22(%rip)        # 17140 <g_228>
    d21e:	0f b7 05 1b 9f 00 00 	movzwl 0x9f1b(%rip),%eax        # 17140 <g_228>
    d225:	66 83 f8 17          	cmp    $0x17,%ax
    d229:	0f 85 a3 fe ff ff    	jne    d0d2 <func_29+0x24a6>
    d22f:	8b 05 37 9f 00 00    	mov    0x9f37(%rip),%eax        # 1716c <g_405>
    d235:	be 06 00 00 00       	mov    $0x6,%esi
    d23a:	89 c7                	mov    %eax,%edi
    d23c:	e8 77 8c ff ff       	callq  5eb8 <safe_add_func_uint32_t_u_u>
    d241:	89 05 25 9f 00 00    	mov    %eax,0x9f25(%rip)        # 1716c <g_405>
    d247:	eb 06                	jmp    d24f <func_29+0x2623>
    d249:	90                   	nop
    d24a:	e9 01 e1 ff ff       	jmpq   b350 <func_29+0x724>
    d24f:	8b 05 17 9f 00 00    	mov    0x9f17(%rip),%eax        # 1716c <g_405>
    d255:	83 f8 0b             	cmp    $0xb,%eax
    d258:	0f 87 a7 f6 ff ff    	ja     c905 <func_29+0x1cd9>
    d25e:	48 8b 85 20 f9 ff ff 	mov    -0x6e0(%rbp),%rax
    d265:	48 89 85 d0 ed ff ff 	mov    %rax,-0x1230(%rbp)
    d26c:	48 8b 95 58 ed ff ff 	mov    -0x12a8(%rbp),%rdx
    d273:	48 8b 85 00 ee ff ff 	mov    -0x1200(%rbp),%rax
    d27a:	48 89 10             	mov    %rdx,(%rax)
    d27d:	e9 44 11 00 00       	jmpq   e3c6 <func_29+0x379a>
    d282:	48 8d 85 e0 f1 ff ff 	lea    -0xe20(%rbp),%rax
    d289:	48 8d 15 70 6b 00 00 	lea    0x6b70(%rip),%rdx        # 13e00 <g_3098+0x1960>
    d290:	b9 2d 00 00 00       	mov    $0x2d,%ecx
    d295:	48 89 c7             	mov    %rax,%rdi
    d298:	48 89 d6             	mov    %rdx,%rsi
    d29b:	f3 48 a5             	rep movsq %ds:(%rsi),%es:(%rdi)
    d29e:	48 8d 85 20 ed ff ff 	lea    -0x12e0(%rbp),%rax
    d2a5:	48 89 85 98 ed ff ff 	mov    %rax,-0x1268(%rbp)
    d2ac:	48 c7 85 d0 f8 ff ff 	movq   $0x0,-0x730(%rbp)
    d2b3:	00 00 00 00 
    d2b7:	48 8d 05 de c4 00 00 	lea    0xc4de(%rip),%rax        # 1979c <g_317>
    d2be:	48 89 85 d8 f8 ff ff 	mov    %rax,-0x728(%rbp)
    d2c5:	48 8d 05 a8 9d 00 00 	lea    0x9da8(%rip),%rax        # 17074 <g_87>
    d2cc:	48 89 85 e0 f8 ff ff 	mov    %rax,-0x720(%rbp)
    d2d3:	48 8d 05 56 9d 00 00 	lea    0x9d56(%rip),%rax        # 17030 <g_8>
    d2da:	48 89 85 e8 f8 ff ff 	mov    %rax,-0x718(%rbp)
    d2e1:	48 8d 05 b4 c4 00 00 	lea    0xc4b4(%rip),%rax        # 1979c <g_317>
    d2e8:	48 89 85 f0 f8 ff ff 	mov    %rax,-0x710(%rbp)
    d2ef:	48 8d 85 94 ec ff ff 	lea    -0x136c(%rbp),%rax
    d2f6:	48 89 85 f8 f8 ff ff 	mov    %rax,-0x708(%rbp)
    d2fd:	48 8d 05 70 9d 00 00 	lea    0x9d70(%rip),%rax        # 17074 <g_87>
    d304:	48 89 85 00 f9 ff ff 	mov    %rax,-0x700(%rbp)
    d30b:	48 c7 85 08 f9 ff ff 	movq   $0x0,-0x6f8(%rbp)
    d312:	00 00 00 00 
    d316:	48 c7 85 10 f9 ff ff 	movq   $0x0,-0x6f0(%rbp)
    d31d:	00 00 00 00 
    d321:	48 c7 85 18 f9 ff ff 	movq   $0x0,-0x6e8(%rbp)
    d328:	00 00 00 00 
    d32c:	48 8d 05 f1 9c 00 00 	lea    0x9cf1(%rip),%rax        # 17024 <g_2>
    d333:	48 89 85 20 f9 ff ff 	mov    %rax,-0x6e0(%rbp)
    d33a:	48 8d 05 e3 9c 00 00 	lea    0x9ce3(%rip),%rax        # 17024 <g_2>
    d341:	48 89 85 28 f9 ff ff 	mov    %rax,-0x6d8(%rbp)
    d348:	48 c7 85 30 f9 ff ff 	movq   $0x0,-0x6d0(%rbp)
    d34f:	00 00 00 00 
    d353:	48 8d 05 42 c4 00 00 	lea    0xc442(%rip),%rax        # 1979c <g_317>
    d35a:	48 89 85 38 f9 ff ff 	mov    %rax,-0x6c8(%rbp)
    d361:	48 8d 05 0c 9d 00 00 	lea    0x9d0c(%rip),%rax        # 17074 <g_87>
    d368:	48 89 85 40 f9 ff ff 	mov    %rax,-0x6c0(%rbp)
    d36f:	48 8d 05 ae 9c 00 00 	lea    0x9cae(%rip),%rax        # 17024 <g_2>
    d376:	48 89 85 48 f9 ff ff 	mov    %rax,-0x6b8(%rbp)
    d37d:	48 8d 05 18 c4 00 00 	lea    0xc418(%rip),%rax        # 1979c <g_317>
    d384:	48 89 85 50 f9 ff ff 	mov    %rax,-0x6b0(%rbp)
    d38b:	48 c7 85 58 f9 ff ff 	movq   $0x0,-0x6a8(%rbp)
    d392:	00 00 00 00 
    d396:	48 c7 85 60 f9 ff ff 	movq   $0x0,-0x6a0(%rbp)
    d39d:	00 00 00 00 
    d3a1:	48 c7 85 68 f9 ff ff 	movq   $0x0,-0x698(%rbp)
    d3a8:	00 00 00 00 
    d3ac:	48 8d 85 94 ec ff ff 	lea    -0x136c(%rbp),%rax
    d3b3:	48 89 85 70 f9 ff ff 	mov    %rax,-0x690(%rbp)
    d3ba:	48 8d 85 94 ec ff ff 	lea    -0x136c(%rbp),%rax
    d3c1:	48 89 85 78 f9 ff ff 	mov    %rax,-0x688(%rbp)
    d3c8:	48 8d 05 55 9c 00 00 	lea    0x9c55(%rip),%rax        # 17024 <g_2>
    d3cf:	48 89 85 80 f9 ff ff 	mov    %rax,-0x680(%rbp)
    d3d6:	48 8d 05 53 9c 00 00 	lea    0x9c53(%rip),%rax        # 17030 <g_8>
    d3dd:	48 89 85 88 f9 ff ff 	mov    %rax,-0x678(%rbp)
    d3e4:	48 8d 85 94 ec ff ff 	lea    -0x136c(%rbp),%rax
    d3eb:	48 89 85 90 f9 ff ff 	mov    %rax,-0x670(%rbp)
    d3f2:	48 8d 05 a3 c3 00 00 	lea    0xc3a3(%rip),%rax        # 1979c <g_317>
    d3f9:	48 89 85 98 f9 ff ff 	mov    %rax,-0x668(%rbp)
    d400:	48 c7 85 a0 f9 ff ff 	movq   $0x0,-0x660(%rbp)
    d407:	00 00 00 00 
    d40b:	48 8d 05 8a c3 00 00 	lea    0xc38a(%rip),%rax        # 1979c <g_317>
    d412:	48 89 85 a8 f9 ff ff 	mov    %rax,-0x658(%rbp)
    d419:	48 8d 05 7c c3 00 00 	lea    0xc37c(%rip),%rax        # 1979c <g_317>
    d420:	48 89 85 b0 f9 ff ff 	mov    %rax,-0x650(%rbp)
    d427:	48 c7 85 b8 f9 ff ff 	movq   $0x0,-0x648(%rbp)
    d42e:	00 00 00 00 
    d432:	48 8d 05 3b 9c 00 00 	lea    0x9c3b(%rip),%rax        # 17074 <g_87>
    d439:	48 89 85 c0 f9 ff ff 	mov    %rax,-0x640(%rbp)
    d440:	48 c7 85 c8 f9 ff ff 	movq   $0x0,-0x638(%rbp)
    d447:	00 00 00 00 
    d44b:	48 c7 85 d0 f9 ff ff 	movq   $0x0,-0x630(%rbp)
    d452:	00 00 00 00 
    d456:	48 c7 85 d8 f9 ff ff 	movq   $0x0,-0x628(%rbp)
    d45d:	00 00 00 00 
    d461:	48 8d 05 bc 9b 00 00 	lea    0x9bbc(%rip),%rax        # 17024 <g_2>
    d468:	48 89 85 e0 f9 ff ff 	mov    %rax,-0x620(%rbp)
    d46f:	48 8d 05 26 c3 00 00 	lea    0xc326(%rip),%rax        # 1979c <g_317>
    d476:	48 89 85 e8 f9 ff ff 	mov    %rax,-0x618(%rbp)
    d47d:	48 c7 85 f0 f9 ff ff 	movq   $0x0,-0x610(%rbp)
    d484:	00 00 00 00 
    d488:	48 8d 05 0d c3 00 00 	lea    0xc30d(%rip),%rax        # 1979c <g_317>
    d48f:	48 89 85 f8 f9 ff ff 	mov    %rax,-0x608(%rbp)
    d496:	48 8d 05 d7 9b 00 00 	lea    0x9bd7(%rip),%rax        # 17074 <g_87>
    d49d:	48 89 85 00 fa ff ff 	mov    %rax,-0x600(%rbp)
    d4a4:	48 8d 05 85 9b 00 00 	lea    0x9b85(%rip),%rax        # 17030 <g_8>
    d4ab:	48 89 85 08 fa ff ff 	mov    %rax,-0x5f8(%rbp)
    d4b2:	48 8d 05 e3 c2 00 00 	lea    0xc2e3(%rip),%rax        # 1979c <g_317>
    d4b9:	48 89 85 10 fa ff ff 	mov    %rax,-0x5f0(%rbp)
    d4c0:	48 8d 85 94 ec ff ff 	lea    -0x136c(%rbp),%rax
    d4c7:	48 89 85 18 fa ff ff 	mov    %rax,-0x5e8(%rbp)
    d4ce:	48 8d 05 9f 9b 00 00 	lea    0x9b9f(%rip),%rax        # 17074 <g_87>
    d4d5:	48 89 85 20 fa ff ff 	mov    %rax,-0x5e0(%rbp)
    d4dc:	48 c7 85 28 fa ff ff 	movq   $0x0,-0x5d8(%rbp)
    d4e3:	00 00 00 00 
    d4e7:	48 c7 85 30 fa ff ff 	movq   $0x0,-0x5d0(%rbp)
    d4ee:	00 00 00 00 
    d4f2:	48 c7 85 38 fa ff ff 	movq   $0x0,-0x5c8(%rbp)
    d4f9:	00 00 00 00 
    d4fd:	48 8d 05 20 9b 00 00 	lea    0x9b20(%rip),%rax        # 17024 <g_2>
    d504:	48 89 85 40 fa ff ff 	mov    %rax,-0x5c0(%rbp)
    d50b:	48 8d 05 12 9b 00 00 	lea    0x9b12(%rip),%rax        # 17024 <g_2>
    d512:	48 89 85 48 fa ff ff 	mov    %rax,-0x5b8(%rbp)
    d519:	48 c7 85 50 fa ff ff 	movq   $0x0,-0x5b0(%rbp)
    d520:	00 00 00 00 
    d524:	48 8d 05 71 c2 00 00 	lea    0xc271(%rip),%rax        # 1979c <g_317>
    d52b:	48 89 85 58 fa ff ff 	mov    %rax,-0x5a8(%rbp)
    d532:	48 8d 05 3b 9b 00 00 	lea    0x9b3b(%rip),%rax        # 17074 <g_87>
    d539:	48 89 85 60 fa ff ff 	mov    %rax,-0x5a0(%rbp)
    d540:	48 8d 05 dd 9a 00 00 	lea    0x9add(%rip),%rax        # 17024 <g_2>
    d547:	48 89 85 68 fa ff ff 	mov    %rax,-0x598(%rbp)
    d54e:	48 8d 05 47 c2 00 00 	lea    0xc247(%rip),%rax        # 1979c <g_317>
    d555:	48 89 85 70 fa ff ff 	mov    %rax,-0x590(%rbp)
    d55c:	48 c7 85 78 fa ff ff 	movq   $0x0,-0x588(%rbp)
    d563:	00 00 00 00 
    d567:	48 c7 85 80 fa ff ff 	movq   $0x0,-0x580(%rbp)
    d56e:	00 00 00 00 
    d572:	48 c7 85 88 fa ff ff 	movq   $0x0,-0x578(%rbp)
    d579:	00 00 00 00 
    d57d:	48 8d 85 94 ec ff ff 	lea    -0x136c(%rbp),%rax
    d584:	48 89 85 90 fa ff ff 	mov    %rax,-0x570(%rbp)
    d58b:	48 8d 85 94 ec ff ff 	lea    -0x136c(%rbp),%rax
    d592:	48 89 85 98 fa ff ff 	mov    %rax,-0x568(%rbp)
    d599:	48 8d 05 84 9a 00 00 	lea    0x9a84(%rip),%rax        # 17024 <g_2>
    d5a0:	48 89 85 a0 fa ff ff 	mov    %rax,-0x560(%rbp)
    d5a7:	48 8d 05 82 9a 00 00 	lea    0x9a82(%rip),%rax        # 17030 <g_8>
    d5ae:	48 89 85 a8 fa ff ff 	mov    %rax,-0x558(%rbp)
    d5b5:	48 8d 85 94 ec ff ff 	lea    -0x136c(%rbp),%rax
    d5bc:	48 89 85 b0 fa ff ff 	mov    %rax,-0x550(%rbp)
    d5c3:	48 8d 05 d2 c1 00 00 	lea    0xc1d2(%rip),%rax        # 1979c <g_317>
    d5ca:	48 89 85 b8 fa ff ff 	mov    %rax,-0x548(%rbp)
    d5d1:	48 c7 85 c0 fa ff ff 	movq   $0x0,-0x540(%rbp)
    d5d8:	00 00 00 00 
    d5dc:	48 8d 05 b9 c1 00 00 	lea    0xc1b9(%rip),%rax        # 1979c <g_317>
    d5e3:	48 89 85 c8 fa ff ff 	mov    %rax,-0x538(%rbp)
    d5ea:	48 8d 05 ab c1 00 00 	lea    0xc1ab(%rip),%rax        # 1979c <g_317>
    d5f1:	48 89 85 d0 fa ff ff 	mov    %rax,-0x530(%rbp)
    d5f8:	48 c7 85 d8 fa ff ff 	movq   $0x0,-0x528(%rbp)
    d5ff:	00 00 00 00 
    d603:	48 8d 05 6a 9a 00 00 	lea    0x9a6a(%rip),%rax        # 17074 <g_87>
    d60a:	48 89 85 e0 fa ff ff 	mov    %rax,-0x520(%rbp)
    d611:	48 c7 85 e8 fa ff ff 	movq   $0x0,-0x518(%rbp)
    d618:	00 00 00 00 
    d61c:	48 c7 85 f0 fa ff ff 	movq   $0x0,-0x510(%rbp)
    d623:	00 00 00 00 
    d627:	48 c7 85 f8 fa ff ff 	movq   $0x0,-0x508(%rbp)
    d62e:	00 00 00 00 
    d632:	48 8d 05 eb 99 00 00 	lea    0x99eb(%rip),%rax        # 17024 <g_2>
    d639:	48 89 85 00 fb ff ff 	mov    %rax,-0x500(%rbp)
    d640:	48 8d 05 55 c1 00 00 	lea    0xc155(%rip),%rax        # 1979c <g_317>
    d647:	48 89 85 08 fb ff ff 	mov    %rax,-0x4f8(%rbp)
    d64e:	48 c7 85 10 fb ff ff 	movq   $0x0,-0x4f0(%rbp)
    d655:	00 00 00 00 
    d659:	48 8d 05 3c c1 00 00 	lea    0xc13c(%rip),%rax        # 1979c <g_317>
    d660:	48 89 85 18 fb ff ff 	mov    %rax,-0x4e8(%rbp)
    d667:	48 8d 05 06 9a 00 00 	lea    0x9a06(%rip),%rax        # 17074 <g_87>
    d66e:	48 89 85 20 fb ff ff 	mov    %rax,-0x4e0(%rbp)
    d675:	48 8d 05 b4 99 00 00 	lea    0x99b4(%rip),%rax        # 17030 <g_8>
    d67c:	48 89 85 28 fb ff ff 	mov    %rax,-0x4d8(%rbp)
    d683:	48 8d 05 12 c1 00 00 	lea    0xc112(%rip),%rax        # 1979c <g_317>
    d68a:	48 89 85 30 fb ff ff 	mov    %rax,-0x4d0(%rbp)
    d691:	48 8d 85 94 ec ff ff 	lea    -0x136c(%rbp),%rax
    d698:	48 89 85 38 fb ff ff 	mov    %rax,-0x4c8(%rbp)
    d69f:	48 8d 05 ce 99 00 00 	lea    0x99ce(%rip),%rax        # 17074 <g_87>
    d6a6:	48 89 85 40 fb ff ff 	mov    %rax,-0x4c0(%rbp)
    d6ad:	48 c7 85 48 fb ff ff 	movq   $0x0,-0x4b8(%rbp)
    d6b4:	00 00 00 00 
    d6b8:	48 c7 85 50 fb ff ff 	movq   $0x0,-0x4b0(%rbp)
    d6bf:	00 00 00 00 
    d6c3:	48 c7 85 58 fb ff ff 	movq   $0x0,-0x4a8(%rbp)
    d6ca:	00 00 00 00 
    d6ce:	48 8d 05 4f 99 00 00 	lea    0x994f(%rip),%rax        # 17024 <g_2>
    d6d5:	48 89 85 60 fb ff ff 	mov    %rax,-0x4a0(%rbp)
    d6dc:	48 8d 05 41 99 00 00 	lea    0x9941(%rip),%rax        # 17024 <g_2>
    d6e3:	48 89 85 68 fb ff ff 	mov    %rax,-0x498(%rbp)
    d6ea:	48 c7 85 70 fb ff ff 	movq   $0x0,-0x490(%rbp)
    d6f1:	00 00 00 00 
    d6f5:	48 8d 05 a0 c0 00 00 	lea    0xc0a0(%rip),%rax        # 1979c <g_317>
    d6fc:	48 89 85 78 fb ff ff 	mov    %rax,-0x488(%rbp)
    d703:	48 8d 05 6a 99 00 00 	lea    0x996a(%rip),%rax        # 17074 <g_87>
    d70a:	48 89 85 80 fb ff ff 	mov    %rax,-0x480(%rbp)
    d711:	48 8d 05 0c 99 00 00 	lea    0x990c(%rip),%rax        # 17024 <g_2>
    d718:	48 89 85 88 fb ff ff 	mov    %rax,-0x478(%rbp)
    d71f:	48 8d 05 76 c0 00 00 	lea    0xc076(%rip),%rax        # 1979c <g_317>
    d726:	48 89 85 90 fb ff ff 	mov    %rax,-0x470(%rbp)
    d72d:	48 c7 85 98 fb ff ff 	movq   $0x0,-0x468(%rbp)
    d734:	00 00 00 00 
    d738:	48 c7 85 a0 fb ff ff 	movq   $0x0,-0x460(%rbp)
    d73f:	00 00 00 00 
    d743:	48 c7 85 a8 fb ff ff 	movq   $0x0,-0x458(%rbp)
    d74a:	00 00 00 00 
    d74e:	48 8d 85 94 ec ff ff 	lea    -0x136c(%rbp),%rax
    d755:	48 89 85 b0 fb ff ff 	mov    %rax,-0x450(%rbp)
    d75c:	48 8d 85 94 ec ff ff 	lea    -0x136c(%rbp),%rax
    d763:	48 89 85 b8 fb ff ff 	mov    %rax,-0x448(%rbp)
    d76a:	48 8d 05 b3 98 00 00 	lea    0x98b3(%rip),%rax        # 17024 <g_2>
    d771:	48 89 85 c0 fb ff ff 	mov    %rax,-0x440(%rbp)
    d778:	48 8d 05 b1 98 00 00 	lea    0x98b1(%rip),%rax        # 17030 <g_8>
    d77f:	48 89 85 c8 fb ff ff 	mov    %rax,-0x438(%rbp)
    d786:	48 8d 85 94 ec ff ff 	lea    -0x136c(%rbp),%rax
    d78d:	48 89 85 d0 fb ff ff 	mov    %rax,-0x430(%rbp)
    d794:	48 8d 05 01 c0 00 00 	lea    0xc001(%rip),%rax        # 1979c <g_317>
    d79b:	48 89 85 d8 fb ff ff 	mov    %rax,-0x428(%rbp)
    d7a2:	48 c7 85 e0 fb ff ff 	movq   $0x0,-0x420(%rbp)
    d7a9:	00 00 00 00 
    d7ad:	48 8d 05 e8 bf 00 00 	lea    0xbfe8(%rip),%rax        # 1979c <g_317>
    d7b4:	48 89 85 e8 fb ff ff 	mov    %rax,-0x418(%rbp)
    d7bb:	48 8d 05 da bf 00 00 	lea    0xbfda(%rip),%rax        # 1979c <g_317>
    d7c2:	48 89 85 f0 fb ff ff 	mov    %rax,-0x410(%rbp)
    d7c9:	48 c7 85 f8 fb ff ff 	movq   $0x0,-0x408(%rbp)
    d7d0:	00 00 00 00 
    d7d4:	48 8d 05 99 98 00 00 	lea    0x9899(%rip),%rax        # 17074 <g_87>
    d7db:	48 89 85 00 fc ff ff 	mov    %rax,-0x400(%rbp)
    d7e2:	48 c7 85 08 fc ff ff 	movq   $0x0,-0x3f8(%rbp)
    d7e9:	00 00 00 00 
    d7ed:	48 c7 85 10 fc ff ff 	movq   $0x0,-0x3f0(%rbp)
    d7f4:	00 00 00 00 
    d7f8:	48 c7 85 18 fc ff ff 	movq   $0x0,-0x3e8(%rbp)
    d7ff:	00 00 00 00 
    d803:	48 8d 05 1a 98 00 00 	lea    0x981a(%rip),%rax        # 17024 <g_2>
    d80a:	48 89 85 20 fc ff ff 	mov    %rax,-0x3e0(%rbp)
    d811:	48 8d 05 84 bf 00 00 	lea    0xbf84(%rip),%rax        # 1979c <g_317>
    d818:	48 89 85 28 fc ff ff 	mov    %rax,-0x3d8(%rbp)
    d81f:	48 c7 85 30 fc ff ff 	movq   $0x0,-0x3d0(%rbp)
    d826:	00 00 00 00 
    d82a:	48 8d 05 6b bf 00 00 	lea    0xbf6b(%rip),%rax        # 1979c <g_317>
    d831:	48 89 85 38 fc ff ff 	mov    %rax,-0x3c8(%rbp)
    d838:	48 8d 05 35 98 00 00 	lea    0x9835(%rip),%rax        # 17074 <g_87>
    d83f:	48 89 85 40 fc ff ff 	mov    %rax,-0x3c0(%rbp)
    d846:	48 8d 05 e3 97 00 00 	lea    0x97e3(%rip),%rax        # 17030 <g_8>
    d84d:	48 89 85 48 fc ff ff 	mov    %rax,-0x3b8(%rbp)
    d854:	48 8d 05 41 bf 00 00 	lea    0xbf41(%rip),%rax        # 1979c <g_317>
    d85b:	48 89 85 50 fc ff ff 	mov    %rax,-0x3b0(%rbp)
    d862:	48 8d 85 94 ec ff ff 	lea    -0x136c(%rbp),%rax
    d869:	48 89 85 58 fc ff ff 	mov    %rax,-0x3a8(%rbp)
    d870:	48 8d 05 fd 97 00 00 	lea    0x97fd(%rip),%rax        # 17074 <g_87>
    d877:	48 89 85 60 fc ff ff 	mov    %rax,-0x3a0(%rbp)
    d87e:	48 c7 85 68 fc ff ff 	movq   $0x0,-0x398(%rbp)
    d885:	00 00 00 00 
    d889:	48 c7 85 70 fc ff ff 	movq   $0x0,-0x390(%rbp)
    d890:	00 00 00 00 
    d894:	48 c7 85 78 fc ff ff 	movq   $0x0,-0x388(%rbp)
    d89b:	00 00 00 00 
    d89f:	48 8d 05 7e 97 00 00 	lea    0x977e(%rip),%rax        # 17024 <g_2>
    d8a6:	48 89 85 80 fc ff ff 	mov    %rax,-0x380(%rbp)
    d8ad:	48 8d 05 70 97 00 00 	lea    0x9770(%rip),%rax        # 17024 <g_2>
    d8b4:	48 89 85 88 fc ff ff 	mov    %rax,-0x378(%rbp)
    d8bb:	48 c7 85 90 fc ff ff 	movq   $0x0,-0x370(%rbp)
    d8c2:	00 00 00 00 
    d8c6:	48 8d 05 cf be 00 00 	lea    0xbecf(%rip),%rax        # 1979c <g_317>
    d8cd:	48 89 85 98 fc ff ff 	mov    %rax,-0x368(%rbp)
    d8d4:	48 8d 05 99 97 00 00 	lea    0x9799(%rip),%rax        # 17074 <g_87>
    d8db:	48 89 85 a0 fc ff ff 	mov    %rax,-0x360(%rbp)
    d8e2:	48 8d 05 3b 97 00 00 	lea    0x973b(%rip),%rax        # 17024 <g_2>
    d8e9:	48 89 85 a8 fc ff ff 	mov    %rax,-0x358(%rbp)
    d8f0:	48 8d 05 a5 be 00 00 	lea    0xbea5(%rip),%rax        # 1979c <g_317>
    d8f7:	48 89 85 b0 fc ff ff 	mov    %rax,-0x350(%rbp)
    d8fe:	48 c7 85 b8 fc ff ff 	movq   $0x0,-0x348(%rbp)
    d905:	00 00 00 00 
    d909:	48 c7 85 c0 fc ff ff 	movq   $0x0,-0x340(%rbp)
    d910:	00 00 00 00 
    d914:	48 c7 85 c8 fc ff ff 	movq   $0x0,-0x338(%rbp)
    d91b:	00 00 00 00 
    d91f:	48 8d 85 94 ec ff ff 	lea    -0x136c(%rbp),%rax
    d926:	48 89 85 d0 fc ff ff 	mov    %rax,-0x330(%rbp)
    d92d:	48 8d 85 94 ec ff ff 	lea    -0x136c(%rbp),%rax
    d934:	48 89 85 d8 fc ff ff 	mov    %rax,-0x328(%rbp)
    d93b:	48 8d 05 e2 96 00 00 	lea    0x96e2(%rip),%rax        # 17024 <g_2>
    d942:	48 89 85 e0 fc ff ff 	mov    %rax,-0x320(%rbp)
    d949:	48 8d 05 e0 96 00 00 	lea    0x96e0(%rip),%rax        # 17030 <g_8>
    d950:	48 89 85 e8 fc ff ff 	mov    %rax,-0x318(%rbp)
    d957:	48 8d 85 94 ec ff ff 	lea    -0x136c(%rbp),%rax
    d95e:	48 89 85 f0 fc ff ff 	mov    %rax,-0x310(%rbp)
    d965:	48 8d 05 30 be 00 00 	lea    0xbe30(%rip),%rax        # 1979c <g_317>
    d96c:	48 89 85 f8 fc ff ff 	mov    %rax,-0x308(%rbp)
    d973:	48 c7 85 00 fd ff ff 	movq   $0x0,-0x300(%rbp)
    d97a:	00 00 00 00 
    d97e:	48 8d 05 17 be 00 00 	lea    0xbe17(%rip),%rax        # 1979c <g_317>
    d985:	48 89 85 08 fd ff ff 	mov    %rax,-0x2f8(%rbp)
    d98c:	48 8d 05 09 be 00 00 	lea    0xbe09(%rip),%rax        # 1979c <g_317>
    d993:	48 89 85 10 fd ff ff 	mov    %rax,-0x2f0(%rbp)
    d99a:	48 c7 85 18 fd ff ff 	movq   $0x0,-0x2e8(%rbp)
    d9a1:	00 00 00 00 
    d9a5:	48 8d 05 c8 96 00 00 	lea    0x96c8(%rip),%rax        # 17074 <g_87>
    d9ac:	48 89 85 20 fd ff ff 	mov    %rax,-0x2e0(%rbp)
    d9b3:	48 c7 85 28 fd ff ff 	movq   $0x0,-0x2d8(%rbp)
    d9ba:	00 00 00 00 
    d9be:	48 c7 85 30 fd ff ff 	movq   $0x0,-0x2d0(%rbp)
    d9c5:	00 00 00 00 
    d9c9:	48 c7 85 38 fd ff ff 	movq   $0x0,-0x2c8(%rbp)
    d9d0:	00 00 00 00 
    d9d4:	48 8d 05 49 96 00 00 	lea    0x9649(%rip),%rax        # 17024 <g_2>
    d9db:	48 89 85 40 fd ff ff 	mov    %rax,-0x2c0(%rbp)
    d9e2:	48 8d 05 b3 bd 00 00 	lea    0xbdb3(%rip),%rax        # 1979c <g_317>
    d9e9:	48 89 85 48 fd ff ff 	mov    %rax,-0x2b8(%rbp)
    d9f0:	48 c7 85 50 fd ff ff 	movq   $0x0,-0x2b0(%rbp)
    d9f7:	00 00 00 00 
    d9fb:	48 8d 05 9a bd 00 00 	lea    0xbd9a(%rip),%rax        # 1979c <g_317>
    da02:	48 89 85 58 fd ff ff 	mov    %rax,-0x2a8(%rbp)
    da09:	48 8d 05 64 96 00 00 	lea    0x9664(%rip),%rax        # 17074 <g_87>
    da10:	48 89 85 60 fd ff ff 	mov    %rax,-0x2a0(%rbp)
    da17:	48 8d 05 12 96 00 00 	lea    0x9612(%rip),%rax        # 17030 <g_8>
    da1e:	48 89 85 68 fd ff ff 	mov    %rax,-0x298(%rbp)
    da25:	48 8d 05 70 bd 00 00 	lea    0xbd70(%rip),%rax        # 1979c <g_317>
    da2c:	48 89 85 70 fd ff ff 	mov    %rax,-0x290(%rbp)
    da33:	48 8d 85 94 ec ff ff 	lea    -0x136c(%rbp),%rax
    da3a:	48 89 85 78 fd ff ff 	mov    %rax,-0x288(%rbp)
    da41:	48 8d 05 2c 96 00 00 	lea    0x962c(%rip),%rax        # 17074 <g_87>
    da48:	48 89 85 80 fd ff ff 	mov    %rax,-0x280(%rbp)
    da4f:	48 c7 85 88 fd ff ff 	movq   $0x0,-0x278(%rbp)
    da56:	00 00 00 00 
    da5a:	48 c7 85 90 fd ff ff 	movq   $0x0,-0x270(%rbp)
    da61:	00 00 00 00 
    da65:	48 c7 85 98 fd ff ff 	movq   $0x0,-0x268(%rbp)
    da6c:	00 00 00 00 
    da70:	48 8d 05 ad 95 00 00 	lea    0x95ad(%rip),%rax        # 17024 <g_2>
    da77:	48 89 85 a0 fd ff ff 	mov    %rax,-0x260(%rbp)
    da7e:	48 8d 05 9f 95 00 00 	lea    0x959f(%rip),%rax        # 17024 <g_2>
    da85:	48 89 85 a8 fd ff ff 	mov    %rax,-0x258(%rbp)
    da8c:	48 c7 85 b0 fd ff ff 	movq   $0x0,-0x250(%rbp)
    da93:	00 00 00 00 
    da97:	48 8d 05 fe bc 00 00 	lea    0xbcfe(%rip),%rax        # 1979c <g_317>
    da9e:	48 89 85 b8 fd ff ff 	mov    %rax,-0x248(%rbp)
    daa5:	48 8d 05 c8 95 00 00 	lea    0x95c8(%rip),%rax        # 17074 <g_87>
    daac:	48 89 85 c0 fd ff ff 	mov    %rax,-0x240(%rbp)
    dab3:	48 8d 05 6a 95 00 00 	lea    0x956a(%rip),%rax        # 17024 <g_2>
    daba:	48 89 85 c8 fd ff ff 	mov    %rax,-0x238(%rbp)
    dac1:	48 8d 05 d4 bc 00 00 	lea    0xbcd4(%rip),%rax        # 1979c <g_317>
    dac8:	48 89 85 d0 fd ff ff 	mov    %rax,-0x230(%rbp)
    dacf:	48 c7 85 d8 fd ff ff 	movq   $0x0,-0x228(%rbp)
    dad6:	00 00 00 00 
    dada:	48 c7 85 e0 fd ff ff 	movq   $0x0,-0x220(%rbp)
    dae1:	00 00 00 00 
    dae5:	48 c7 85 e8 fd ff ff 	movq   $0x0,-0x218(%rbp)
    daec:	00 00 00 00 
    daf0:	48 8d 85 94 ec ff ff 	lea    -0x136c(%rbp),%rax
    daf7:	48 89 85 f0 fd ff ff 	mov    %rax,-0x210(%rbp)
    dafe:	48 8d 85 94 ec ff ff 	lea    -0x136c(%rbp),%rax
    db05:	48 89 85 f8 fd ff ff 	mov    %rax,-0x208(%rbp)
    db0c:	48 8d 05 11 95 00 00 	lea    0x9511(%rip),%rax        # 17024 <g_2>
    db13:	48 89 85 00 fe ff ff 	mov    %rax,-0x200(%rbp)
    db1a:	48 8d 05 0f 95 00 00 	lea    0x950f(%rip),%rax        # 17030 <g_8>
    db21:	48 89 85 08 fe ff ff 	mov    %rax,-0x1f8(%rbp)
    db28:	48 8d 85 94 ec ff ff 	lea    -0x136c(%rbp),%rax
    db2f:	48 89 85 10 fe ff ff 	mov    %rax,-0x1f0(%rbp)
    db36:	48 8d 05 5f bc 00 00 	lea    0xbc5f(%rip),%rax        # 1979c <g_317>
    db3d:	48 89 85 18 fe ff ff 	mov    %rax,-0x1e8(%rbp)
    db44:	48 c7 85 20 fe ff ff 	movq   $0x0,-0x1e0(%rbp)
    db4b:	00 00 00 00 
    db4f:	48 8d 05 46 bc 00 00 	lea    0xbc46(%rip),%rax        # 1979c <g_317>
    db56:	48 89 85 28 fe ff ff 	mov    %rax,-0x1d8(%rbp)
    db5d:	48 8d 05 38 bc 00 00 	lea    0xbc38(%rip),%rax        # 1979c <g_317>
    db64:	48 89 85 30 fe ff ff 	mov    %rax,-0x1d0(%rbp)
    db6b:	48 c7 85 38 fe ff ff 	movq   $0x0,-0x1c8(%rbp)
    db72:	00 00 00 00 
    db76:	48 8d 05 f7 94 00 00 	lea    0x94f7(%rip),%rax        # 17074 <g_87>
    db7d:	48 89 85 40 fe ff ff 	mov    %rax,-0x1c0(%rbp)
    db84:	48 c7 85 48 fe ff ff 	movq   $0x0,-0x1b8(%rbp)
    db8b:	00 00 00 00 
    db8f:	48 c7 85 50 fe ff ff 	movq   $0x0,-0x1b0(%rbp)
    db96:	00 00 00 00 
    db9a:	48 c7 85 58 fe ff ff 	movq   $0x0,-0x1a8(%rbp)
    dba1:	00 00 00 00 
    dba5:	48 8d 05 78 94 00 00 	lea    0x9478(%rip),%rax        # 17024 <g_2>
    dbac:	48 89 85 60 fe ff ff 	mov    %rax,-0x1a0(%rbp)
    dbb3:	48 8d 05 e2 bb 00 00 	lea    0xbbe2(%rip),%rax        # 1979c <g_317>
    dbba:	48 89 85 68 fe ff ff 	mov    %rax,-0x198(%rbp)
    dbc1:	48 c7 85 70 fe ff ff 	movq   $0x0,-0x190(%rbp)
    dbc8:	00 00 00 00 
    dbcc:	48 8d 05 c9 bb 00 00 	lea    0xbbc9(%rip),%rax        # 1979c <g_317>
    dbd3:	48 89 85 78 fe ff ff 	mov    %rax,-0x188(%rbp)
    dbda:	48 8d 05 93 94 00 00 	lea    0x9493(%rip),%rax        # 17074 <g_87>
    dbe1:	48 89 85 80 fe ff ff 	mov    %rax,-0x180(%rbp)
    dbe8:	48 8d 05 85 94 00 00 	lea    0x9485(%rip),%rax        # 17074 <g_87>
    dbef:	48 89 85 88 fe ff ff 	mov    %rax,-0x178(%rbp)
    dbf6:	48 8d 05 33 94 00 00 	lea    0x9433(%rip),%rax        # 17030 <g_8>
    dbfd:	48 89 85 90 fe ff ff 	mov    %rax,-0x170(%rbp)
    dc04:	48 8d 05 91 bb 00 00 	lea    0xbb91(%rip),%rax        # 1979c <g_317>
    dc0b:	48 89 85 98 fe ff ff 	mov    %rax,-0x168(%rbp)
    dc12:	48 8d 05 0b 94 00 00 	lea    0x940b(%rip),%rax        # 17024 <g_2>
    dc19:	48 89 85 a0 fe ff ff 	mov    %rax,-0x160(%rbp)
    dc20:	48 8d 05 4d 94 00 00 	lea    0x944d(%rip),%rax        # 17074 <g_87>
    dc27:	48 89 85 a8 fe ff ff 	mov    %rax,-0x158(%rbp)
    dc2e:	48 8d 05 67 bb 00 00 	lea    0xbb67(%rip),%rax        # 1979c <g_317>
    dc35:	48 89 85 b0 fe ff ff 	mov    %rax,-0x150(%rbp)
    dc3c:	48 8d 85 00 f1 ff ff 	lea    -0xf00(%rbp),%rax
    dc43:	48 83 c0 58          	add    $0x58,%rax
    dc47:	48 89 85 b8 fe ff ff 	mov    %rax,-0x148(%rbp)
    dc4e:	48 8d 05 47 bb 00 00 	lea    0xbb47(%rip),%rax        # 1979c <g_317>
    dc55:	48 89 85 c0 fe ff ff 	mov    %rax,-0x140(%rbp)
    dc5c:	48 c7 85 c8 fe ff ff 	movq   $0x0,-0x138(%rbp)
    dc63:	00 00 00 00 
    dc67:	48 8d 85 00 f1 ff ff 	lea    -0xf00(%rbp),%rax
    dc6e:	48 83 c0 58          	add    $0x58,%rax
    dc72:	48 89 85 d0 fe ff ff 	mov    %rax,-0x130(%rbp)
    dc79:	48 8d 85 50 ed ff ff 	lea    -0x12b0(%rbp),%rax
    dc80:	48 89 85 d8 fe ff ff 	mov    %rax,-0x128(%rbp)
    dc87:	48 8d 85 94 ec ff ff 	lea    -0x136c(%rbp),%rax
    dc8e:	48 89 85 e0 fe ff ff 	mov    %rax,-0x120(%rbp)
    dc95:	48 c7 85 e8 fe ff ff 	movq   $0x0,-0x118(%rbp)
    dc9c:	00 00 00 00 
    dca0:	48 8d 05 89 93 00 00 	lea    0x9389(%rip),%rax        # 17030 <g_8>
    dca7:	48 89 85 f0 fe ff ff 	mov    %rax,-0x110(%rbp)
    dcae:	48 8d 85 00 f1 ff ff 	lea    -0xf00(%rbp),%rax
    dcb5:	48 83 c0 58          	add    $0x58,%rax
    dcb9:	48 89 85 f8 fe ff ff 	mov    %rax,-0x108(%rbp)
    dcc0:	48 8d 05 ad 93 00 00 	lea    0x93ad(%rip),%rax        # 17074 <g_87>
    dcc7:	48 89 85 00 ff ff ff 	mov    %rax,-0x100(%rbp)
    dcce:	48 8d 05 9f 93 00 00 	lea    0x939f(%rip),%rax        # 17074 <g_87>
    dcd5:	48 89 85 08 ff ff ff 	mov    %rax,-0xf8(%rbp)
    dcdc:	48 8d 05 b9 ba 00 00 	lea    0xbab9(%rip),%rax        # 1979c <g_317>
    dce3:	48 89 85 10 ff ff ff 	mov    %rax,-0xf0(%rbp)
    dcea:	48 8d 05 ab ba 00 00 	lea    0xbaab(%rip),%rax        # 1979c <g_317>
    dcf1:	48 89 85 18 ff ff ff 	mov    %rax,-0xe8(%rbp)
    dcf8:	48 8d 05 9d ba 00 00 	lea    0xba9d(%rip),%rax        # 1979c <g_317>
    dcff:	48 89 85 20 ff ff ff 	mov    %rax,-0xe0(%rbp)
    dd06:	48 8d 05 67 93 00 00 	lea    0x9367(%rip),%rax        # 17074 <g_87>
    dd0d:	48 89 85 28 ff ff ff 	mov    %rax,-0xd8(%rbp)
    dd14:	48 8d 05 81 ba 00 00 	lea    0xba81(%rip),%rax        # 1979c <g_317>
    dd1b:	48 89 85 30 ff ff ff 	mov    %rax,-0xd0(%rbp)
    dd22:	48 8d 85 50 ed ff ff 	lea    -0x12b0(%rbp),%rax
    dd29:	48 89 85 38 ff ff ff 	mov    %rax,-0xc8(%rbp)
    dd30:	48 8d 05 3d 93 00 00 	lea    0x933d(%rip),%rax        # 17074 <g_87>
    dd37:	48 89 85 40 ff ff ff 	mov    %rax,-0xc0(%rbp)
    dd3e:	48 8d 05 2f 93 00 00 	lea    0x932f(%rip),%rax        # 17074 <g_87>
    dd45:	48 89 85 48 ff ff ff 	mov    %rax,-0xb8(%rbp)
    dd4c:	48 8d 05 dd 92 00 00 	lea    0x92dd(%rip),%rax        # 17030 <g_8>
    dd53:	48 89 85 50 ff ff ff 	mov    %rax,-0xb0(%rbp)
    dd5a:	48 8d 05 3b ba 00 00 	lea    0xba3b(%rip),%rax        # 1979c <g_317>
    dd61:	48 89 85 58 ff ff ff 	mov    %rax,-0xa8(%rbp)
    dd68:	48 8d 85 94 ec ff ff 	lea    -0x136c(%rbp),%rax
    dd6f:	48 89 85 60 ff ff ff 	mov    %rax,-0xa0(%rbp)
    dd76:	48 8d 05 f7 92 00 00 	lea    0x92f7(%rip),%rax        # 17074 <g_87>
    dd7d:	48 89 85 68 ff ff ff 	mov    %rax,-0x98(%rbp)
    dd84:	48 8d 85 00 f1 ff ff 	lea    -0xf00(%rbp),%rax
    dd8b:	48 83 c0 58          	add    $0x58,%rax
    dd8f:	48 89 85 70 ff ff ff 	mov    %rax,-0x90(%rbp)
    dd96:	48 8d 05 ff b9 00 00 	lea    0xb9ff(%rip),%rax        # 1979c <g_317>
    dd9d:	48 89 85 78 ff ff ff 	mov    %rax,-0x88(%rbp)
    dda4:	48 8d 05 f1 b9 00 00 	lea    0xb9f1(%rip),%rax        # 1979c <g_317>
    ddab:	48 89 45 80          	mov    %rax,-0x80(%rbp)
    ddaf:	48 8d 05 be 92 00 00 	lea    0x92be(%rip),%rax        # 17074 <g_87>
    ddb6:	48 89 45 88          	mov    %rax,-0x78(%rbp)
    ddba:	48 8d 05 db b9 00 00 	lea    0xb9db(%rip),%rax        # 1979c <g_317>
    ddc1:	48 89 45 90          	mov    %rax,-0x70(%rbp)
    ddc5:	48 8d 85 50 ed ff ff 	lea    -0x12b0(%rbp),%rax
    ddcc:	48 89 45 98          	mov    %rax,-0x68(%rbp)
    ddd0:	48 8d 05 4d 92 00 00 	lea    0x924d(%rip),%rax        # 17024 <g_2>
    ddd7:	48 89 45 a0          	mov    %rax,-0x60(%rbp)
    dddb:	48 8d 05 92 92 00 00 	lea    0x9292(%rip),%rax        # 17074 <g_87>
    dde2:	48 89 45 a8          	mov    %rax,-0x58(%rbp)
    dde6:	48 8d 05 43 92 00 00 	lea    0x9243(%rip),%rax        # 17030 <g_8>
    dded:	48 89 45 b0          	mov    %rax,-0x50(%rbp)
    ddf1:	48 8d 05 a4 b9 00 00 	lea    0xb9a4(%rip),%rax        # 1979c <g_317>
    ddf8:	48 89 45 b8          	mov    %rax,-0x48(%rbp)
    ddfc:	48 8d 05 21 92 00 00 	lea    0x9221(%rip),%rax        # 17024 <g_2>
    de03:	48 89 45 c0          	mov    %rax,-0x40(%rbp)
    de07:	48 8d 05 66 92 00 00 	lea    0x9266(%rip),%rax        # 17074 <g_87>
    de0e:	48 89 45 c8          	mov    %rax,-0x38(%rbp)
    de12:	48 c7 85 a8 ed ff ff 	movq   $0x0,-0x1258(%rbp)
    de19:	00 00 00 00 
    de1d:	48 c7 85 f0 ee ff ff 	movq   $0x0,-0x1110(%rbp)
    de24:	00 00 00 00 
    de28:	48 8d 85 f0 ee ff ff 	lea    -0x1110(%rbp),%rax
    de2f:	48 89 85 b0 ed ff ff 	mov    %rax,-0x1250(%rbp)
    de36:	c7 85 cc ec ff ff 01 	movl   $0x1,-0x1334(%rbp)
    de3d:	00 00 00 
    de40:	48 8d 85 60 f0 ff ff 	lea    -0xfa0(%rbp),%rax
    de47:	48 83 c0 2e          	add    $0x2e,%rax
    de4b:	48 89 85 b8 ed ff ff 	mov    %rax,-0x1248(%rbp)
    de52:	48 c7 85 50 f3 ff ff 	movq   $0x0,-0xcb0(%rbp)
    de59:	00 00 00 00 
    de5d:	48 8d 05 f4 92 00 00 	lea    0x92f4(%rip),%rax        # 17158 <g_277+0x8>
    de64:	48 89 85 58 f3 ff ff 	mov    %rax,-0xca8(%rbp)
    de6b:	48 8d 05 e6 92 00 00 	lea    0x92e6(%rip),%rax        # 17158 <g_277+0x8>
    de72:	48 89 85 60 f3 ff ff 	mov    %rax,-0xca0(%rbp)
    de79:	48 8d 05 f2 91 00 00 	lea    0x91f2(%rip),%rax        # 17072 <g_84+0x12>
    de80:	48 89 85 68 f3 ff ff 	mov    %rax,-0xc98(%rbp)
    de87:	48 8d 85 82 ec ff ff 	lea    -0x137e(%rbp),%rax
    de8e:	48 89 85 70 f3 ff ff 	mov    %rax,-0xc90(%rbp)
    de95:	48 8d 05 d6 91 00 00 	lea    0x91d6(%rip),%rax        # 17072 <g_84+0x12>
    de9c:	48 89 85 78 f3 ff ff 	mov    %rax,-0xc88(%rbp)
    dea3:	48 8d 05 ae 92 00 00 	lea    0x92ae(%rip),%rax        # 17158 <g_277+0x8>
    deaa:	48 89 85 80 f3 ff ff 	mov    %rax,-0xc80(%rbp)
    deb1:	48 8d 05 aa 91 00 00 	lea    0x91aa(%rip),%rax        # 17062 <g_84+0x2>
    deb8:	48 89 85 88 f3 ff ff 	mov    %rax,-0xc78(%rbp)
    debf:	48 8d 05 9c 91 00 00 	lea    0x919c(%rip),%rax        # 17062 <g_84+0x2>
    dec6:	48 89 85 90 f3 ff ff 	mov    %rax,-0xc70(%rbp)
    decd:	48 8d 05 6c 92 00 00 	lea    0x926c(%rip),%rax        # 17140 <g_228>
    ded4:	48 89 85 98 f3 ff ff 	mov    %rax,-0xc68(%rbp)
    dedb:	48 8d 05 90 91 00 00 	lea    0x9190(%rip),%rax        # 17072 <g_84+0x12>
    dee2:	48 89 85 a0 f3 ff ff 	mov    %rax,-0xc60(%rbp)
    dee9:	48 8d 05 76 91 00 00 	lea    0x9176(%rip),%rax        # 17066 <g_84+0x6>
    def0:	48 89 85 a8 f3 ff ff 	mov    %rax,-0xc58(%rbp)
    def7:	48 c7 85 b0 f3 ff ff 	movq   $0x0,-0xc50(%rbp)
    defe:	00 00 00 00 
    df02:	48 8d 05 37 92 00 00 	lea    0x9237(%rip),%rax        # 17140 <g_228>
    df09:	48 89 85 b8 f3 ff ff 	mov    %rax,-0xc48(%rbp)
    df10:	48 8d 85 82 ec ff ff 	lea    -0x137e(%rbp),%rax
    df17:	48 89 85 c0 f3 ff ff 	mov    %rax,-0xc40(%rbp)
    df1e:	48 8d 05 41 91 00 00 	lea    0x9141(%rip),%rax        # 17066 <g_84+0x6>
    df25:	48 89 85 c8 f3 ff ff 	mov    %rax,-0xc38(%rbp)
    df2c:	48 c7 85 d0 f3 ff ff 	movq   $0x0,-0xc30(%rbp)
    df33:	00 00 00 00 
    df37:	48 8d 05 1a 92 00 00 	lea    0x921a(%rip),%rax        # 17158 <g_277+0x8>
    df3e:	48 89 85 d8 f3 ff ff 	mov    %rax,-0xc28(%rbp)
    df45:	48 8d 05 f4 91 00 00 	lea    0x91f4(%rip),%rax        # 17140 <g_228>
    df4c:	48 89 85 e0 f3 ff ff 	mov    %rax,-0xc20(%rbp)
    df53:	48 8d 05 fe 91 00 00 	lea    0x91fe(%rip),%rax        # 17158 <g_277+0x8>
    df5a:	48 89 85 e8 f3 ff ff 	mov    %rax,-0xc18(%rbp)
    df61:	48 8d 05 f8 90 00 00 	lea    0x90f8(%rip),%rax        # 17060 <g_84>
    df68:	48 89 85 f0 f3 ff ff 	mov    %rax,-0xc10(%rbp)
    df6f:	48 8d 05 fc 90 00 00 	lea    0x90fc(%rip),%rax        # 17072 <g_84+0x12>
    df76:	48 89 85 f8 f3 ff ff 	mov    %rax,-0xc08(%rbp)
    df7d:	48 8d 05 d0 91 00 00 	lea    0x91d0(%rip),%rax        # 17154 <g_277+0x4>
    df84:	48 89 85 00 f4 ff ff 	mov    %rax,-0xc00(%rbp)
    df8b:	48 c7 85 08 f4 ff ff 	movq   $0x0,-0xbf8(%rbp)
    df92:	00 00 00 00 
    df96:	48 c7 85 10 f4 ff ff 	movq   $0x0,-0xbf0(%rbp)
    df9d:	00 00 00 00 
    dfa1:	48 8d 05 be 90 00 00 	lea    0x90be(%rip),%rax        # 17066 <g_84+0x6>
    dfa8:	48 89 85 18 f4 ff ff 	mov    %rax,-0xbe8(%rbp)
    dfaf:	48 c7 85 20 f4 ff ff 	movq   $0x0,-0xbe0(%rbp)
    dfb6:	00 00 00 00 
    dfba:	48 8d 05 a5 90 00 00 	lea    0x90a5(%rip),%rax        # 17066 <g_84+0x6>
    dfc1:	48 89 85 28 f4 ff ff 	mov    %rax,-0xbd8(%rbp)
    dfc8:	48 8d 05 71 91 00 00 	lea    0x9171(%rip),%rax        # 17140 <g_228>
    dfcf:	48 89 85 30 f4 ff ff 	mov    %rax,-0xbd0(%rbp)
    dfd6:	48 8d 05 63 91 00 00 	lea    0x9163(%rip),%rax        # 17140 <g_228>
    dfdd:	48 89 85 38 f4 ff ff 	mov    %rax,-0xbc8(%rbp)
    dfe4:	48 8d 05 55 91 00 00 	lea    0x9155(%rip),%rax        # 17140 <g_228>
    dfeb:	48 89 85 40 f4 ff ff 	mov    %rax,-0xbc0(%rbp)
    dff2:	48 8d 05 47 91 00 00 	lea    0x9147(%rip),%rax        # 17140 <g_228>
    dff9:	48 89 85 48 f4 ff ff 	mov    %rax,-0xbb8(%rbp)
    e000:	48 8d 85 82 ec ff ff 	lea    -0x137e(%rbp),%rax
    e007:	48 89 85 50 f4 ff ff 	mov    %rax,-0xbb0(%rbp)
    e00e:	48 c7 85 58 f4 ff ff 	movq   $0x0,-0xba8(%rbp)
    e015:	00 00 00 00 
    e019:	48 c7 85 60 f4 ff ff 	movq   $0x0,-0xba0(%rbp)
    e020:	00 00 00 00 
    e024:	48 c7 85 68 f4 ff ff 	movq   $0x0,-0xb98(%rbp)
    e02b:	00 00 00 00 
    e02f:	48 c7 85 70 f4 ff ff 	movq   $0x0,-0xb90(%rbp)
    e036:	00 00 00 00 
    e03a:	48 8d 05 13 91 00 00 	lea    0x9113(%rip),%rax        # 17154 <g_277+0x4>
    e041:	48 89 85 78 f4 ff ff 	mov    %rax,-0xb88(%rbp)
    e048:	48 8d 05 23 90 00 00 	lea    0x9023(%rip),%rax        # 17072 <g_84+0x12>
    e04f:	48 89 85 80 f4 ff ff 	mov    %rax,-0xb80(%rbp)
    e056:	48 8d 05 e3 90 00 00 	lea    0x90e3(%rip),%rax        # 17140 <g_228>
    e05d:	48 89 85 88 f4 ff ff 	mov    %rax,-0xb78(%rbp)
    e064:	48 8d 05 ed 90 00 00 	lea    0x90ed(%rip),%rax        # 17158 <g_277+0x8>
    e06b:	48 89 85 90 f4 ff ff 	mov    %rax,-0xb70(%rbp)
    e072:	48 8d 05 f9 8f 00 00 	lea    0x8ff9(%rip),%rax        # 17072 <g_84+0x12>
    e079:	48 89 85 98 f4 ff ff 	mov    %rax,-0xb68(%rbp)
    e080:	48 8d 05 d1 90 00 00 	lea    0x90d1(%rip),%rax        # 17158 <g_277+0x8>
    e087:	48 89 85 a0 f4 ff ff 	mov    %rax,-0xb60(%rbp)
    e08e:	48 c7 85 a8 f4 ff ff 	movq   $0x0,-0xb58(%rbp)
    e095:	00 00 00 00 
    e099:	48 8d 05 c6 8f 00 00 	lea    0x8fc6(%rip),%rax        # 17066 <g_84+0x6>
    e0a0:	48 89 85 b0 f4 ff ff 	mov    %rax,-0xb50(%rbp)
    e0a7:	48 8d 85 82 ec ff ff 	lea    -0x137e(%rbp),%rax
    e0ae:	48 89 85 b8 f4 ff ff 	mov    %rax,-0xb48(%rbp)
    e0b5:	48 8d 05 a6 8f 00 00 	lea    0x8fa6(%rip),%rax        # 17062 <g_84+0x2>
    e0bc:	48 89 85 c0 f4 ff ff 	mov    %rax,-0xb40(%rbp)
    e0c3:	48 c7 85 c8 f4 ff ff 	movq   $0x0,-0xb38(%rbp)
    e0ca:	00 00 00 00 
    e0ce:	48 c7 85 d0 f4 ff ff 	movq   $0x0,-0xb30(%rbp)
    e0d5:	00 00 00 00 
    e0d9:	48 8d 05 92 8f 00 00 	lea    0x8f92(%rip),%rax        # 17072 <g_84+0x12>
    e0e0:	48 89 85 d8 f4 ff ff 	mov    %rax,-0xb28(%rbp)
    e0e7:	48 8d 05 52 90 00 00 	lea    0x9052(%rip),%rax        # 17140 <g_228>
    e0ee:	48 89 85 e0 f4 ff ff 	mov    %rax,-0xb20(%rbp)
    e0f5:	48 8d 05 66 8f 00 00 	lea    0x8f66(%rip),%rax        # 17062 <g_84+0x2>
    e0fc:	48 89 85 e8 f4 ff ff 	mov    %rax,-0xb18(%rbp)
    e103:	48 8d 05 58 8f 00 00 	lea    0x8f58(%rip),%rax        # 17062 <g_84+0x2>
    e10a:	48 89 85 f0 f4 ff ff 	mov    %rax,-0xb10(%rbp)
    e111:	48 8d 05 28 90 00 00 	lea    0x9028(%rip),%rax        # 17140 <g_228>
    e118:	48 89 85 f8 f4 ff ff 	mov    %rax,-0xb08(%rbp)
    e11f:	48 8d 05 4c 8f 00 00 	lea    0x8f4c(%rip),%rax        # 17072 <g_84+0x12>
    e126:	48 89 85 00 f5 ff ff 	mov    %rax,-0xb00(%rbp)
    e12d:	48 8d 05 32 8f 00 00 	lea    0x8f32(%rip),%rax        # 17066 <g_84+0x6>
    e134:	48 89 85 08 f5 ff ff 	mov    %rax,-0xaf8(%rbp)
    e13b:	48 8d 05 30 8f 00 00 	lea    0x8f30(%rip),%rax        # 17072 <g_84+0x12>
    e142:	48 89 85 10 f5 ff ff 	mov    %rax,-0xaf0(%rbp)
    e149:	48 8d 05 08 90 00 00 	lea    0x9008(%rip),%rax        # 17158 <g_277+0x8>
    e150:	48 89 85 18 f5 ff ff 	mov    %rax,-0xae8(%rbp)
    e157:	48 8d 05 fa 8f 00 00 	lea    0x8ffa(%rip),%rax        # 17158 <g_277+0x8>
    e15e:	48 89 85 20 f5 ff ff 	mov    %rax,-0xae0(%rbp)
    e165:	48 c7 85 28 f5 ff ff 	movq   $0x0,-0xad8(%rbp)
    e16c:	00 00 00 00 
    e170:	48 8d 05 c9 8f 00 00 	lea    0x8fc9(%rip),%rax        # 17140 <g_228>
    e177:	48 89 85 30 f5 ff ff 	mov    %rax,-0xad0(%rbp)
    e17e:	48 8d 05 d5 8f 00 00 	lea    0x8fd5(%rip),%rax        # 1715a <g_277+0xa>
    e185:	48 89 85 38 f5 ff ff 	mov    %rax,-0xac8(%rbp)
    e18c:	48 8d 05 cd 8e 00 00 	lea    0x8ecd(%rip),%rax        # 17060 <g_84>
    e193:	48 89 85 40 f5 ff ff 	mov    %rax,-0xac0(%rbp)
    e19a:	48 8d 05 cf 8f 00 00 	lea    0x8fcf(%rip),%rax        # 17170 <g_585>
    e1a1:	48 89 85 c0 ed ff ff 	mov    %rax,-0x1240(%rbp)
    e1a8:	48 8d 05 03 92 00 00 	lea    0x9203(%rip),%rax        # 173b2 <g_1173>
    e1af:	48 89 85 c8 ed ff ff 	mov    %rax,-0x1238(%rbp)
    e1b6:	c7 85 a8 ec ff ff 00 	movl   $0x0,-0x1358(%rbp)
    e1bd:	00 00 00 
    e1c0:	eb 1e                	jmp    e1e0 <func_29+0x35b4>
    e1c2:	8b 85 a8 ec ff ff    	mov    -0x1358(%rbp),%eax
    e1c8:	48 98                	cltq   
    e1ca:	48 8d 15 47 a0 00 00 	lea    0xa047(%rip),%rdx        # 18218 <g_77+0xb8>
    e1d1:	48 89 94 c5 d0 ef ff 	mov    %rdx,-0x1030(%rbp,%rax,8)
    e1d8:	ff 
    e1d9:	83 85 a8 ec ff ff 01 	addl   $0x1,-0x1358(%rbp)
    e1e0:	83 bd a8 ec ff ff 01 	cmpl   $0x1,-0x1358(%rbp)
    e1e7:	7e d9                	jle    e1c2 <func_29+0x3596>
    e1e9:	48 8b 05 38 a4 00 00 	mov    0xa438(%rip),%rax        # 18628 <g_702>
    e1f0:	48 8b 00             	mov    (%rax),%rax
    e1f3:	8b 10                	mov    (%rax),%edx
    e1f5:	48 8b 85 78 ed ff ff 	mov    -0x1288(%rbp),%rax
    e1fc:	48 8d 8d d0 f8 ff ff 	lea    -0x730(%rbp),%rcx
    e203:	48 81 c1 b8 02 00 00 	add    $0x2b8,%rcx
    e20a:	48 89 08             	mov    %rcx,(%rax)
    e20d:	48 8b 85 78 ed ff ff 	mov    -0x1288(%rbp),%rax
    e214:	48 8b 00             	mov    (%rax),%rax
    e217:	89 d6                	mov    %edx,%esi
    e219:	48 89 c7             	mov    %rax,%rdi
    e21c:	e8 95 04 00 00       	callq  e6b6 <func_42>
    e221:	48 89 85 90 ed ff ff 	mov    %rax,-0x1270(%rbp)
    e228:	0f b6 9d 68 ec ff ff 	movzbl -0x1398(%rbp),%ebx
    e22f:	44 0f b6 a5 6c ec ff 	movzbl -0x1394(%rbp),%r12d
    e236:	ff 
    e237:	44 0f b6 ad 68 ec ff 	movzbl -0x1398(%rbp),%r13d
    e23e:	ff 
    e23f:	48 8b 05 22 a3 00 00 	mov    0xa322(%rip),%rax        # 18568 <g_298>
    e246:	0f b6 00             	movzbl (%rax),%eax
    e249:	0f be d0             	movsbl %al,%edx
    e24c:	48 8b 85 b0 ed ff ff 	mov    -0x1250(%rbp),%rax
    e253:	48 8d 8d e0 f1 ff ff 	lea    -0xe20(%rbp),%rcx
    e25a:	48 83 c1 20          	add    $0x20,%rcx
    e25e:	48 89 08             	mov    %rcx,(%rax)
    e261:	48 8b 85 b0 ed ff ff 	mov    -0x1250(%rbp),%rax
    e268:	48 8b 08             	mov    (%rax),%rcx
    e26b:	48 8d 85 48 ed ff ff 	lea    -0x12b8(%rbp),%rax
    e272:	48 39 c1             	cmp    %rax,%rcx
    e275:	0f 95 c0             	setne  %al
    e278:	0f b6 c0             	movzbl %al,%eax
    e27b:	89 d6                	mov    %edx,%esi
    e27d:	89 c7                	mov    %eax,%edi
    e27f:	e8 8e 6f ff ff       	callq  5212 <safe_mul_func_int8_t_s_s>
    e284:	0f be d0             	movsbl %al,%edx
    e287:	0f b6 05 fb 90 00 00 	movzbl 0x90fb(%rip),%eax        # 17389 <g_901>
    e28e:	0f b6 c0             	movzbl %al,%eax
    e291:	39 c2                	cmp    %eax,%edx
    e293:	0f 95 c0             	setne  %al
    e296:	0f b6 c0             	movzbl %al,%eax
    e299:	44 89 ee             	mov    %r13d,%esi
    e29c:	89 c7                	mov    %eax,%edi
    e29e:	e8 38 79 ff ff       	callq  5bdb <safe_div_func_uint8_t_u_u>
    e2a3:	84 c0                	test   %al,%al
    e2a5:	74 10                	je     e2b7 <func_29+0x368b>
    e2a7:	80 bd 6c ec ff ff 00 	cmpb   $0x0,-0x1394(%rbp)
    e2ae:	74 07                	je     e2b7 <func_29+0x368b>
    e2b0:	b8 01 00 00 00       	mov    $0x1,%eax
    e2b5:	eb 05                	jmp    e2bc <func_29+0x3690>
    e2b7:	b8 00 00 00 00       	mov    $0x0,%eax
    e2bc:	89 c2                	mov    %eax,%edx
    e2be:	8b 85 cc ec ff ff    	mov    -0x1334(%rbp),%eax
    e2c4:	09 d0                	or     %edx,%eax
    e2c6:	98                   	cwtl   
    e2c7:	be fe 39 00 00       	mov    $0x39fe,%esi
    e2cc:	89 c7                	mov    %eax,%edi
    e2ce:	e8 82 71 ff ff       	callq  5455 <safe_div_func_int16_t_s_s>
    e2d3:	66 85 c0             	test   %ax,%ax
    e2d6:	74 0b                	je     e2e3 <func_29+0x36b7>
    e2d8:	0f b7 85 5c ec ff ff 	movzwl -0x13a4(%rbp),%eax
    e2df:	66 85 c0             	test   %ax,%ax
    e2e2:	90                   	nop
    e2e3:	48 8b 05 5e a3 00 00 	mov    0xa35e(%rip),%rax        # 18648 <g_943>
    e2ea:	48 8b 00             	mov    (%rax),%rax
    e2ed:	48 83 f8 01          	cmp    $0x1,%rax
    e2f1:	0f 95 c0             	setne  %al
    e2f4:	0f b6 d0             	movzbl %al,%edx
    e2f7:	48 8b 85 b8 ed ff ff 	mov    -0x1248(%rbp),%rax
    e2fe:	0f b7 00             	movzwl (%rax),%eax
    e301:	31 c2                	xor    %eax,%edx
    e303:	48 8b 85 b8 ed ff ff 	mov    -0x1248(%rbp),%rax
    e30a:	66 89 10             	mov    %dx,(%rax)
    e30d:	48 8b 05 5c 8e 00 00 	mov    0x8e5c(%rip),%rax        # 17170 <g_585>
    e314:	48 85 c0             	test   %rax,%rax
    e317:	0f 9f c0             	setg   %al
    e31a:	0f b6 d0             	movzbl %al,%edx
    e31d:	0f b6 85 68 ec ff ff 	movzbl -0x1398(%rbp),%eax
    e324:	39 c2                	cmp    %eax,%edx
    e326:	0f 9e c0             	setle  %al
    e329:	0f b6 c0             	movzbl %al,%eax
    e32c:	be f3 00 00 00       	mov    $0xf3,%esi
    e331:	89 c7                	mov    %eax,%edi
    e333:	e8 5b 78 ff ff       	callq  5b93 <safe_mul_func_uint8_t_u_u>
    e338:	0f b6 c0             	movzbl %al,%eax
    e33b:	89 85 b8 f1 ff ff    	mov    %eax,-0xe48(%rbp)
    e341:	48 8b 15 18 a3 00 00 	mov    0xa318(%rip),%rdx        # 18660 <g_1145>
    e348:	48 8b 05 a9 a2 00 00 	mov    0xa2a9(%rip),%rax        # 185f8 <g_613>
    e34f:	0f b7 12             	movzwl (%rdx),%edx
    e352:	66 89 10             	mov    %dx,(%rax)
    e355:	0f b7 00             	movzwl (%rax),%eax
    e358:	98                   	cwtl   
    e359:	be 8f af ff ff       	mov    $0xffffaf8f,%esi
    e35e:	89 c7                	mov    %eax,%edi
    e360:	e8 6e 70 ff ff       	callq  53d3 <safe_sub_func_int16_t_s_s>
    e365:	48 0f bf c0          	movswq %ax,%rax
    e369:	4c 89 e6             	mov    %r12,%rsi
    e36c:	48 89 c7             	mov    %rax,%rdi
    e36f:	e8 3b 7d ff ff       	callq  60af <safe_div_func_uint64_t_u_u>
    e374:	48 89 c2             	mov    %rax,%rdx
    e377:	48 8b 85 c0 ed ff ff 	mov    -0x1240(%rbp),%rax
    e37e:	48 89 10             	mov    %rdx,(%rax)
    e381:	48 8b 85 c0 ed ff ff 	mov    -0x1240(%rbp),%rax
    e388:	48 8b 00             	mov    (%rax),%rax
    e38b:	48 ba 07 4b 8f c5 ca 	movabs $0xe3e4eacac58f4b07,%rdx
    e392:	ea e4 e3 
    e395:	48 39 d0             	cmp    %rdx,%rax
    e398:	0f 95 c0             	setne  %al
    e39b:	0f b6 d0             	movzbl %al,%edx
    e39e:	48 8b 85 c8 ed ff ff 	mov    -0x1238(%rbp),%rax
    e3a5:	66 89 10             	mov    %dx,(%rax)
    e3a8:	48 8b 85 c8 ed ff ff 	mov    -0x1238(%rbp),%rax
    e3af:	0f b7 00             	movzwl (%rax),%eax
    e3b2:	98                   	cwtl   
    e3b3:	89 de                	mov    %ebx,%esi
    e3b5:	89 c7                	mov    %eax,%edi
    e3b7:	e8 17 70 ff ff       	callq  53d3 <safe_sub_func_int16_t_s_s>
    e3bc:	c7 85 50 ed ff ff ff 	movl   $0xffffffff,-0x12b0(%rbp)
    e3c3:	ff ff ff 
    e3c6:	0f b7 85 5c ec ff ff 	movzwl -0x13a4(%rbp),%eax
    e3cd:	0f b7 c0             	movzwl %ax,%eax
    e3d0:	48 8b 5d d8          	mov    -0x28(%rbp),%rbx
    e3d4:	64 48 33 1c 25 28 00 	xor    %fs:0x28,%rbx
    e3db:	00 00 
    e3dd:	74 05                	je     e3e4 <func_29+0x37b8>
    e3df:	e8 8c 6c ff ff       	callq  5070 <__stack_chk_fail@plt>
    e3e4:	48 81 c4 90 13 00 00 	add    $0x1390,%rsp
    e3eb:	5b                   	pop    %rbx
    e3ec:	41 5c                	pop    %r12
    e3ee:	41 5d                	pop    %r13
    e3f0:	41 5e                	pop    %r14
    e3f2:	5d                   	pop    %rbp
    e3f3:	c3                   	retq   

000000000000e3f4 <func_35>:
    e3f4:	f3 0f 1e fa          	endbr64 
    e3f8:	55                   	push   %rbp
    e3f9:	48 89 e5             	mov    %rsp,%rbp
    e3fc:	48 81 ec c0 01 00 00 	sub    $0x1c0,%rsp
    e403:	89 bd 5c fe ff ff    	mov    %edi,-0x1a4(%rbp)
    e409:	48 89 b5 50 fe ff ff 	mov    %rsi,-0x1b0(%rbp)
    e410:	89 95 58 fe ff ff    	mov    %edx,-0x1a8(%rbp)
    e416:	48 89 8d 48 fe ff ff 	mov    %rcx,-0x1b8(%rbp)
    e41d:	4c 89 85 40 fe ff ff 	mov    %r8,-0x1c0(%rbp)
    e424:	64 48 8b 04 25 28 00 	mov    %fs:0x28,%rax
    e42b:	00 00 
    e42d:	48 89 45 f8          	mov    %rax,-0x8(%rbp)
    e431:	31 c0                	xor    %eax,%eax
    e433:	48 c7 85 c0 fe ff ff 	movq   $0x0,-0x140(%rbp)
    e43a:	00 00 00 00 
    e43e:	48 8d 05 2f 8c 00 00 	lea    0x8c2f(%rip),%rax        # 17074 <g_87>
    e445:	48 89 85 c8 fe ff ff 	mov    %rax,-0x138(%rbp)
    e44c:	c7 85 78 fe ff ff 04 	movl   $0x4,-0x188(%rbp)
    e453:	00 00 00 
    e456:	c7 85 70 fe ff ff 08 	movl   $0x8,-0x190(%rbp)
    e45d:	00 00 00 
    e460:	c7 85 7c fe ff ff 26 	movl   $0xe2060326,-0x184(%rbp)
    e467:	03 06 e2 
    e46a:	c7 85 80 fe ff ff 16 	movl   $0x4c769216,-0x180(%rbp)
    e471:	92 76 4c 
    e474:	c7 85 84 fe ff ff 01 	movl   $0x1,-0x17c(%rbp)
    e47b:	00 00 00 
    e47e:	c7 85 88 fe ff ff 5e 	movl   $0xe08275e,-0x178(%rbp)
    e485:	27 08 0e 
    e488:	c7 85 8c fe ff ff 2a 	movl   $0x91d3c02a,-0x174(%rbp)
    e48f:	c0 d3 91 
    e492:	48 8d 05 ff b2 00 00 	lea    0xb2ff(%rip),%rax        # 19798 <g_85>
    e499:	48 89 85 70 ff ff ff 	mov    %rax,-0x90(%rbp)
    e4a0:	48 8d 05 f1 b2 00 00 	lea    0xb2f1(%rip),%rax        # 19798 <g_85>
    e4a7:	48 89 85 78 ff ff ff 	mov    %rax,-0x88(%rbp)
    e4ae:	48 c7 45 80 00 00 00 	movq   $0x0,-0x80(%rbp)
    e4b5:	00 
    e4b6:	48 8d 05 db b2 00 00 	lea    0xb2db(%rip),%rax        # 19798 <g_85>
    e4bd:	48 89 45 88          	mov    %rax,-0x78(%rbp)
    e4c1:	48 8d 05 d0 b2 00 00 	lea    0xb2d0(%rip),%rax        # 19798 <g_85>
    e4c8:	48 89 45 90          	mov    %rax,-0x70(%rbp)
    e4cc:	48 c7 45 98 00 00 00 	movq   $0x0,-0x68(%rbp)
    e4d3:	00 
    e4d4:	48 8d 05 bd b2 00 00 	lea    0xb2bd(%rip),%rax        # 19798 <g_85>
    e4db:	48 89 45 a0          	mov    %rax,-0x60(%rbp)
    e4df:	c7 85 90 fe ff ff 01 	movl   $0x1,-0x170(%rbp)
    e4e6:	00 00 00 
    e4e9:	66 c7 85 6c fe ff ff 	movw   $0x1,-0x194(%rbp)
    e4f0:	01 00 
    e4f2:	48 8d 85 10 ff ff ff 	lea    -0xf0(%rbp),%rax
    e4f9:	48 83 c0 20          	add    $0x20,%rax
    e4fd:	48 89 85 d0 fe ff ff 	mov    %rax,-0x130(%rbp)
    e504:	66 c7 85 6e fe ff ff 	movw   $0x5,-0x192(%rbp)
    e50b:	05 00 
    e50d:	c6 85 6b fe ff ff 22 	movb   $0x22,-0x195(%rbp)
    e514:	48 8d 85 40 ff ff ff 	lea    -0xc0(%rbp),%rax
    e51b:	48 83 c0 28          	add    $0x28,%rax
    e51f:	48 89 85 98 fe ff ff 	mov    %rax,-0x168(%rbp)
    e526:	48 8d 85 98 fe ff ff 	lea    -0x168(%rbp),%rax
    e52d:	48 89 85 a0 fe ff ff 	mov    %rax,-0x160(%rbp)
    e534:	48 8d 85 a0 fe ff ff 	lea    -0x160(%rbp),%rax
    e53b:	48 89 85 d8 fe ff ff 	mov    %rax,-0x128(%rbp)
    e542:	48 8d 85 70 fe ff ff 	lea    -0x190(%rbp),%rax
    e549:	48 89 85 a8 fe ff ff 	mov    %rax,-0x158(%rbp)
    e550:	48 8d 85 a8 fe ff ff 	lea    -0x158(%rbp),%rax
    e557:	48 89 85 b0 fe ff ff 	mov    %rax,-0x150(%rbp)
    e55e:	48 8d 45 b0          	lea    -0x50(%rbp),%rax
    e562:	48 83 c0 28          	add    $0x28,%rax
    e566:	48 89 85 e0 fe ff ff 	mov    %rax,-0x120(%rbp)
    e56d:	48 8d 05 3c b2 00 00 	lea    0xb23c(%rip),%rax        # 197b0 <g_642>
    e574:	48 89 85 e8 fe ff ff 	mov    %rax,-0x118(%rbp)
    e57b:	c7 85 94 fe ff ff bc 	movl   $0x4b3184bc,-0x16c(%rbp)
    e582:	84 31 4b 
    e585:	48 8d 05 94 8b 00 00 	lea    0x8b94(%rip),%rax        # 17120 <g_226+0x20>
    e58c:	48 89 85 f0 fe ff ff 	mov    %rax,-0x110(%rbp)
    e593:	48 8d 05 de 8a 00 00 	lea    0x8ade(%rip),%rax        # 17078 <g_92>
    e59a:	48 89 85 b8 fe ff ff 	mov    %rax,-0x148(%rbp)
    e5a1:	48 8d 85 b8 fe ff ff 	lea    -0x148(%rbp),%rax
    e5a8:	48 89 85 f8 fe ff ff 	mov    %rax,-0x108(%rbp)
    e5af:	48 8d 05 7a 8a 00 00 	lea    0x8a7a(%rip),%rax        # 17030 <g_8>
    e5b6:	48 89 85 00 ff ff ff 	mov    %rax,-0x100(%rbp)
    e5bd:	c7 85 74 fe ff ff 00 	movl   $0x0,-0x18c(%rbp)
    e5c4:	00 00 00 
    e5c7:	eb 1a                	jmp    e5e3 <func_35+0x1ef>
    e5c9:	8b 85 74 fe ff ff    	mov    -0x18c(%rbp),%eax
    e5cf:	48 98                	cltq   
    e5d1:	c7 84 85 08 ff ff ff 	movl   $0xffffffff,-0xf8(%rbp,%rax,4)
    e5d8:	ff ff ff ff 
    e5dc:	83 85 74 fe ff ff 01 	addl   $0x1,-0x18c(%rbp)
    e5e3:	83 bd 74 fe ff ff 01 	cmpl   $0x1,-0x18c(%rbp)
    e5ea:	7e dd                	jle    e5c9 <func_35+0x1d5>
    e5ec:	c7 85 74 fe ff ff 00 	movl   $0x0,-0x18c(%rbp)
    e5f3:	00 00 00 
    e5f6:	eb 1e                	jmp    e616 <func_35+0x222>
    e5f8:	8b 85 74 fe ff ff    	mov    -0x18c(%rbp),%eax
    e5fe:	48 98                	cltq   
    e600:	48 8d 15 91 b1 00 00 	lea    0xb191(%rip),%rdx        # 19798 <g_85>
    e607:	48 89 94 c5 10 ff ff 	mov    %rdx,-0xf0(%rbp,%rax,8)
    e60e:	ff 
    e60f:	83 85 74 fe ff ff 01 	addl   $0x1,-0x18c(%rbp)
    e616:	83 bd 74 fe ff ff 04 	cmpl   $0x4,-0x18c(%rbp)
    e61d:	7e d9                	jle    e5f8 <func_35+0x204>
    e61f:	c7 85 74 fe ff ff 00 	movl   $0x0,-0x18c(%rbp)
    e626:	00 00 00 
    e629:	eb 1e                	jmp    e649 <func_35+0x255>
    e62b:	8b 85 74 fe ff ff    	mov    -0x18c(%rbp),%eax
    e631:	48 98                	cltq   
    e633:	48 8d 15 56 b1 00 00 	lea    0xb156(%rip),%rdx        # 19790 <g_78>
    e63a:	48 89 94 c5 40 ff ff 	mov    %rdx,-0xc0(%rbp,%rax,8)
    e641:	ff 
    e642:	83 85 74 fe ff ff 01 	addl   $0x1,-0x18c(%rbp)
    e649:	83 bd 74 fe ff ff 05 	cmpl   $0x5,-0x18c(%rbp)
    e650:	7e d9                	jle    e62b <func_35+0x237>
    e652:	c7 85 74 fe ff ff 00 	movl   $0x0,-0x18c(%rbp)
    e659:	00 00 00 
    e65c:	eb 1b                	jmp    e679 <func_35+0x285>
    e65e:	8b 85 74 fe ff ff    	mov    -0x18c(%rbp),%eax
    e664:	48 98                	cltq   
    e666:	48 8d 95 b0 fe ff ff 	lea    -0x150(%rbp),%rdx
    e66d:	48 89 54 c5 b0       	mov    %rdx,-0x50(%rbp,%rax,8)
    e672:	83 85 74 fe ff ff 01 	addl   $0x1,-0x18c(%rbp)
    e679:	83 bd 74 fe ff ff 08 	cmpl   $0x8,-0x18c(%rbp)
    e680:	7e dc                	jle    e65e <func_35+0x26a>
    e682:	48 8b 85 c8 fe ff ff 	mov    -0x138(%rbp),%rax
    e689:	8b 00                	mov    (%rax),%eax
    e68b:	83 f0 09             	xor    $0x9,%eax
    e68e:	89 c2                	mov    %eax,%edx
    e690:	48 8b 85 c8 fe ff ff 	mov    -0x138(%rbp),%rax
    e697:	89 10                	mov    %edx,(%rax)
    e699:	48 8b 85 00 ff ff ff 	mov    -0x100(%rbp),%rax
    e6a0:	48 8b 4d f8          	mov    -0x8(%rbp),%rcx
    e6a4:	64 48 33 0c 25 28 00 	xor    %fs:0x28,%rcx
    e6ab:	00 00 
    e6ad:	74 05                	je     e6b4 <func_35+0x2c0>
    e6af:	e8 bc 69 ff ff       	callq  5070 <__stack_chk_fail@plt>
    e6b4:	c9                   	leaveq 
    e6b5:	c3                   	retq   

000000000000e6b6 <func_42>:
    e6b6:	f3 0f 1e fa          	endbr64 
    e6ba:	55                   	push   %rbp
    e6bb:	48 89 e5             	mov    %rsp,%rbp
    e6be:	48 81 ec b0 00 00 00 	sub    $0xb0,%rsp
    e6c5:	48 89 bd 58 ff ff ff 	mov    %rdi,-0xa8(%rbp)
    e6cc:	89 b5 54 ff ff ff    	mov    %esi,-0xac(%rbp)
    e6d2:	64 48 8b 04 25 28 00 	mov    %fs:0x28,%rax
    e6d9:	00 00 
    e6db:	48 89 45 f8          	mov    %rax,-0x8(%rbp)
    e6df:	31 c0                	xor    %eax,%eax
    e6e1:	66 c7 85 6a ff ff ff 	movw   $0xfac4,-0x96(%rbp)
    e6e8:	c4 fa 
    e6ea:	48 8d 05 83 89 00 00 	lea    0x8983(%rip),%rax        # 17074 <g_87>
    e6f1:	48 89 45 80          	mov    %rax,-0x80(%rbp)
    e6f5:	48 c7 45 88 00 00 00 	movq   $0x0,-0x78(%rbp)
    e6fc:	00 
    e6fd:	48 8d 05 70 89 00 00 	lea    0x8970(%rip),%rax        # 17074 <g_87>
    e704:	48 89 45 90          	mov    %rax,-0x70(%rbp)
    e708:	c7 85 6c ff ff ff 00 	movl   $0x0,-0x94(%rbp)
    e70f:	00 00 00 
    e712:	48 c7 45 98 00 00 00 	movq   $0x0,-0x68(%rbp)
    e719:	00 
    e71a:	48 8d 85 6c ff ff ff 	lea    -0x94(%rbp),%rax
    e721:	48 89 45 a0          	mov    %rax,-0x60(%rbp)
    e725:	48 8d 05 70 b0 00 00 	lea    0xb070(%rip),%rax        # 1979c <g_317>
    e72c:	48 89 45 a8          	mov    %rax,-0x58(%rbp)
    e730:	48 8d 05 3d 89 00 00 	lea    0x893d(%rip),%rax        # 17074 <g_87>
    e737:	48 89 45 b0          	mov    %rax,-0x50(%rbp)
    e73b:	48 c7 45 b8 00 00 00 	movq   $0x0,-0x48(%rbp)
    e742:	00 
    e743:	48 8d 05 52 b0 00 00 	lea    0xb052(%rip),%rax        # 1979c <g_317>
    e74a:	48 89 45 c0          	mov    %rax,-0x40(%rbp)
    e74e:	48 8d 05 47 b0 00 00 	lea    0xb047(%rip),%rax        # 1979c <g_317>
    e755:	48 89 45 c8          	mov    %rax,-0x38(%rbp)
    e759:	c7 85 70 ff ff ff f7 	movl   $0xfffffff7,-0x90(%rbp)
    e760:	ff ff ff 
    e763:	c7 85 7c ff ff ff 00 	movl   $0x0,-0x84(%rbp)
    e76a:	00 00 00 
    e76d:	48 b8 7f 9c 7c 12 37 	movabs $0xb6ba4237127c9c7f,%rax
    e774:	42 ba b6 
    e777:	48 89 45 d0          	mov    %rax,-0x30(%rbp)
    e77b:	48 8d 85 70 ff ff ff 	lea    -0x90(%rbp),%rax
    e782:	48 89 45 d8          	mov    %rax,-0x28(%rbp)
    e786:	c7 85 74 ff ff ff 00 	movl   $0x0,-0x8c(%rbp)
    e78d:	00 00 00 
    e790:	eb 46                	jmp    e7d8 <func_42+0x122>
    e792:	c7 85 78 ff ff ff 00 	movl   $0x0,-0x88(%rbp)
    e799:	00 00 00 
    e79c:	eb 2a                	jmp    e7c8 <func_42+0x112>
    e79e:	8b 85 78 ff ff ff    	mov    -0x88(%rbp),%eax
    e7a4:	48 98                	cltq   
    e7a6:	8b 95 74 ff ff ff    	mov    -0x8c(%rbp),%edx
    e7ac:	48 63 d2             	movslq %edx,%rdx
    e7af:	48 01 d2             	add    %rdx,%rdx
    e7b2:	48 01 c2             	add    %rax,%rdx
    e7b5:	48 8d 85 70 ff ff ff 	lea    -0x90(%rbp),%rax
    e7bc:	48 89 44 d5 e0       	mov    %rax,-0x20(%rbp,%rdx,8)
    e7c1:	83 85 78 ff ff ff 01 	addl   $0x1,-0x88(%rbp)
    e7c8:	83 bd 78 ff ff ff 01 	cmpl   $0x1,-0x88(%rbp)
    e7cf:	7e cd                	jle    e79e <func_42+0xe8>
    e7d1:	83 85 74 ff ff ff 01 	addl   $0x1,-0x8c(%rbp)
    e7d8:	83 bd 74 ff ff ff 00 	cmpl   $0x0,-0x8c(%rbp)
    e7df:	7e b1                	jle    e792 <func_42+0xdc>
    e7e1:	48 83 45 d0 01       	addq   $0x1,-0x30(%rbp)
    e7e6:	48 8b 85 58 ff ff ff 	mov    -0xa8(%rbp),%rax
    e7ed:	48 8b 00             	mov    (%rax),%rax
    e7f0:	48 8b 4d f8          	mov    -0x8(%rbp),%rcx
    e7f4:	64 48 33 0c 25 28 00 	xor    %fs:0x28,%rcx
    e7fb:	00 00 
    e7fd:	74 05                	je     e804 <func_42+0x14e>
    e7ff:	e8 6c 68 ff ff       	callq  5070 <__stack_chk_fail@plt>
    e804:	c9                   	leaveq 
    e805:	c3                   	retq   

000000000000e806 <func_45>:
    e806:	f3 0f 1e fa          	endbr64 
    e80a:	55                   	push   %rbp
    e80b:	48 89 e5             	mov    %rsp,%rbp
    e80e:	41 57                	push   %r15
    e810:	41 56                	push   %r14
    e812:	41 55                	push   %r13
    e814:	41 54                	push   %r12
    e816:	53                   	push   %rbx
    e817:	48 81 ec 18 01 00 00 	sub    $0x118,%rsp
    e81e:	66 89 bd ee fe ff ff 	mov    %di,-0x112(%rbp)
    e825:	48 89 b5 e0 fe ff ff 	mov    %rsi,-0x120(%rbp)
    e82c:	48 89 95 d8 fe ff ff 	mov    %rdx,-0x128(%rbp)
    e833:	48 89 8d d0 fe ff ff 	mov    %rcx,-0x130(%rbp)
    e83a:	44 89 85 e8 fe ff ff 	mov    %r8d,-0x118(%rbp)
    e841:	64 48 8b 04 25 28 00 	mov    %fs:0x28,%rax
    e848:	00 00 
    e84a:	48 89 45 c8          	mov    %rax,-0x38(%rbp)
    e84e:	31 c0                	xor    %eax,%eax
    e850:	48 c7 45 90 01 00 00 	movq   $0x1,-0x70(%rbp)
    e857:	00 
    e858:	48 c7 45 98 ff ff ff 	movq   $0xffffffffffffffff,-0x68(%rbp)
    e85f:	ff 
    e860:	48 c7 45 a0 ff ff ff 	movq   $0xffffffffffffffff,-0x60(%rbp)
    e867:	ff 
    e868:	48 c7 45 a8 01 00 00 	movq   $0x1,-0x58(%rbp)
    e86f:	00 
    e870:	48 c7 45 b0 ff ff ff 	movq   $0xffffffffffffffff,-0x50(%rbp)
    e877:	ff 
    e878:	48 c7 45 b8 ff ff ff 	movq   $0xffffffffffffffff,-0x48(%rbp)
    e87f:	ff 
    e880:	48 c7 45 c0 01 00 00 	movq   $0x1,-0x40(%rbp)
    e887:	00 
    e888:	c7 85 f8 fe ff ff 62 	movl   $0x4e1d6262,-0x108(%rbp)
    e88f:	62 1d 4e 
    e892:	48 8d 05 e7 87 00 00 	lea    0x87e7(%rip),%rax        # 17080 <g_136>
    e899:	48 89 85 08 ff ff ff 	mov    %rax,-0xf8(%rbp)
    e8a0:	48 8d 85 08 ff ff ff 	lea    -0xf8(%rbp),%rax
    e8a7:	48 89 85 18 ff ff ff 	mov    %rax,-0xe8(%rbp)
    e8ae:	48 c7 85 20 ff ff ff 	movq   $0x0,-0xe0(%rbp)
    e8b5:	00 00 00 00 
    e8b9:	48 c7 85 28 ff ff ff 	movq   $0x0,-0xd8(%rbp)
    e8c0:	00 00 00 00 
    e8c4:	48 c7 85 30 ff ff ff 	movq   $0x0,-0xd0(%rbp)
    e8cb:	00 00 00 00 
    e8cf:	c7 85 fc fe ff ff 00 	movl   $0x0,-0x104(%rbp)
    e8d6:	00 00 00 
    e8d9:	c6 85 fc fe ff ff ff 	movb   $0xff,-0x104(%rbp)
    e8e0:	48 8d 05 a9 ae 00 00 	lea    0xaea9(%rip),%rax        # 19790 <g_78>
    e8e7:	48 89 85 38 ff ff ff 	mov    %rax,-0xc8(%rbp)
    e8ee:	c7 85 00 ff ff ff 00 	movl   $0x0,-0x100(%rbp)
    e8f5:	00 00 00 
    e8f8:	eb 1e                	jmp    e918 <func_45+0x112>
    e8fa:	8b 85 00 ff ff ff    	mov    -0x100(%rbp),%eax
    e900:	48 98                	cltq   
    e902:	48 8d 15 17 88 00 00 	lea    0x8817(%rip),%rdx        # 17120 <g_226+0x20>
    e909:	48 89 94 c5 70 ff ff 	mov    %rdx,-0x90(%rbp,%rax,8)
    e910:	ff 
    e911:	83 85 00 ff ff ff 01 	addl   $0x1,-0x100(%rbp)
    e918:	83 bd 00 ff ff ff 02 	cmpl   $0x2,-0x100(%rbp)
    e91f:	7e d9                	jle    e8fa <func_45+0xf4>
    e921:	c7 85 00 ff ff ff 00 	movl   $0x0,-0x100(%rbp)
    e928:	00 00 00 
    e92b:	eb 1a                	jmp    e947 <func_45+0x141>
    e92d:	8b 85 00 ff ff ff    	mov    -0x100(%rbp),%eax
    e933:	48 98                	cltq   
    e935:	c7 84 85 6c ff ff ff 	movl   $0xffffffff,-0x94(%rbp,%rax,4)
    e93c:	ff ff ff ff 
    e940:	83 85 00 ff ff ff 01 	addl   $0x1,-0x100(%rbp)
    e947:	83 bd 00 ff ff ff 00 	cmpl   $0x0,-0x100(%rbp)
    e94e:	7e dd                	jle    e92d <func_45+0x127>
    e950:	48 8b 05 09 9c 00 00 	mov    0x9c09(%rip),%rax        # 18560 <g_242>
    e957:	48 8b 00             	mov    (%rax),%rax
    e95a:	0f b7 00             	movzwl (%rax),%eax
    e95d:	66 85 c0             	test   %ax,%ax
    e960:	75 44                	jne    e9a6 <func_45+0x1a0>
    e962:	48 8b 45 a0          	mov    -0x60(%rbp),%rax
    e966:	48 85 c0             	test   %rax,%rax
    e969:	75 22                	jne    e98d <func_45+0x187>
    e96b:	48 8b 45 a0          	mov    -0x60(%rbp),%rax
    e96f:	25 fb dd 09 9c       	and    $0x9c09ddfb,%eax
    e974:	89 85 f8 fe ff ff    	mov    %eax,-0x108(%rbp)
    e97a:	8b 85 f8 fe ff ff    	mov    -0x108(%rbp),%eax
    e980:	48 98                	cltq   
    e982:	48 89 c7             	mov    %rax,%rdi
    e985:	e8 8f 76 ff ff       	callq  6019 <safe_unary_minus_func_uint64_t_u>
    e98a:	48 85 c0             	test   %rax,%rax
    e98d:	48 8b 5d b0          	mov    -0x50(%rbp),%rbx
    e991:	be 04 00 00 00       	mov    $0x4,%esi
    e996:	bf 01 00 00 00       	mov    $0x1,%edi
    e99b:	e8 da 74 ff ff       	callq  5e7a <safe_rshift_func_uint16_t_u_u>
    e9a0:	0f b7 c0             	movzwl %ax,%eax
    e9a3:	48 39 c3             	cmp    %rax,%rbx
    e9a6:	0f b6 85 ee fe ff ff 	movzbl -0x112(%rbp),%eax
    e9ad:	0f b6 c0             	movzbl %al,%eax
    e9b0:	39 85 e8 fe ff ff    	cmp    %eax,-0x118(%rbp)
    e9b6:	7c 14                	jl     e9cc <func_45+0x1c6>
    e9b8:	48 8b 45 a0          	mov    -0x60(%rbp),%rax
    e9bc:	48 85 c0             	test   %rax,%rax
    e9bf:	75 0b                	jne    e9cc <func_45+0x1c6>
    e9c1:	0f b6 85 ee fe ff ff 	movzbl -0x112(%rbp),%eax
    e9c8:	84 c0                	test   %al,%al
    e9ca:	74 07                	je     e9d3 <func_45+0x1cd>
    e9cc:	ba 01 00 00 00       	mov    $0x1,%edx
    e9d1:	eb 05                	jmp    e9d8 <func_45+0x1d2>
    e9d3:	ba 00 00 00 00       	mov    $0x0,%edx
    e9d8:	48 8b 85 e0 fe ff ff 	mov    -0x120(%rbp),%rax
    e9df:	8b 00                	mov    (%rax),%eax
    e9e1:	21 c2                	and    %eax,%edx
    e9e3:	48 8b 85 e0 fe ff ff 	mov    -0x120(%rbp),%rax
    e9ea:	89 10                	mov    %edx,(%rax)
    e9ec:	0f b6 05 6d 87 00 00 	movzbl 0x876d(%rip),%eax        # 17160 <g_282>
    e9f3:	0f b6 d8             	movzbl %al,%ebx
    e9f6:	0f b7 05 43 86 00 00 	movzwl 0x8643(%rip),%eax        # 17040 <g_61>
    e9fd:	44 0f bf e0          	movswl %ax,%r12d
    ea01:	4c 8b 6d a0          	mov    -0x60(%rbp),%r13
    ea05:	8b 85 f8 fe ff ff    	mov    -0x108(%rbp),%eax
    ea0b:	89 85 cc fe ff ff    	mov    %eax,-0x134(%rbp)
    ea11:	8b 85 f8 fe ff ff    	mov    -0x108(%rbp),%eax
    ea17:	0f be c0             	movsbl %al,%eax
    ea1a:	89 c7                	mov    %eax,%edi
    ea1c:	e8 9e 67 ff ff       	callq  51bf <safe_unary_minus_func_int8_t_s>
    ea21:	0f be c0             	movsbl %al,%eax
    ea24:	89 85 c8 fe ff ff    	mov    %eax,-0x138(%rbp)
    ea2a:	83 bd e8 fe ff ff 00 	cmpl   $0x0,-0x118(%rbp)
    ea31:	0f 95 c0             	setne  %al
    ea34:	0f b6 c0             	movzbl %al,%eax
    ea37:	89 85 c4 fe ff ff    	mov    %eax,-0x13c(%rbp)
    ea3d:	48 8b 55 a0          	mov    -0x60(%rbp),%rdx
    ea41:	0f b6 85 ee fe ff ff 	movzbl -0x112(%rbp),%eax
    ea48:	0f b6 c0             	movzbl %al,%eax
    ea4b:	48 89 d6             	mov    %rdx,%rsi
    ea4e:	48 89 c7             	mov    %rax,%rdi
    ea51:	e8 59 76 ff ff       	callq  60af <safe_div_func_uint64_t_u_u>
    ea56:	49 89 c7             	mov    %rax,%r15
    ea59:	8b 85 e8 fe ff ff    	mov    -0x118(%rbp),%eax
    ea5f:	4c 63 f0             	movslq %eax,%r14
    ea62:	8b 85 f8 fe ff ff    	mov    -0x108(%rbp),%eax
    ea68:	0f b7 c0             	movzwl %ax,%eax
    ea6b:	89 c6                	mov    %eax,%esi
    ea6d:	bf fb ff 00 00       	mov    $0xfffb,%edi
    ea72:	e8 88 72 ff ff       	callq  5cff <safe_add_func_uint16_t_u_u>
    ea77:	8b 85 e8 fe ff ff    	mov    -0x118(%rbp),%eax
    ea7d:	48 98                	cltq   
    ea7f:	4c 89 f6             	mov    %r14,%rsi
    ea82:	48 89 c7             	mov    %rax,%rdi
    ea85:	e8 a4 75 ff ff       	callq  602e <safe_add_func_uint64_t_u_u>
    ea8a:	48 8b 45 a0          	mov    -0x60(%rbp),%rax
    ea8e:	48 85 c0             	test   %rax,%rax
    ea91:	74 07                	je     ea9a <func_45+0x294>
    ea93:	b8 01 00 00 00       	mov    $0x1,%eax
    ea98:	eb 05                	jmp    ea9f <func_45+0x299>
    ea9a:	b8 00 00 00 00       	mov    $0x0,%eax
    ea9f:	89 c6                	mov    %eax,%esi
    eaa1:	bf 01 00 00 00       	mov    $0x1,%edi
    eaa6:	e8 0d 74 ff ff       	callq  5eb8 <safe_add_func_uint32_t_u_u>
    eaab:	89 c0                	mov    %eax,%eax
    eaad:	49 39 c7             	cmp    %rax,%r15
    eab0:	8b 85 e8 fe ff ff    	mov    -0x118(%rbp),%eax
    eab6:	0f b6 c0             	movzbl %al,%eax
    eab9:	be 01 00 00 00       	mov    $0x1,%esi
    eabe:	89 c7                	mov    %eax,%edi
    eac0:	e8 40 71 ff ff       	callq  5c05 <safe_lshift_func_uint8_t_u_s>
    eac5:	0f b6 c0             	movzbl %al,%eax
    eac8:	39 85 c4 fe ff ff    	cmp    %eax,-0x13c(%rbp)
    eace:	0f 9f c0             	setg   %al
    ead1:	0f b6 c0             	movzbl %al,%eax
    ead4:	39 85 c8 fe ff ff    	cmp    %eax,-0x138(%rbp)
    eada:	0f 9d c0             	setge  %al
    eadd:	0f b6 d0             	movzbl %al,%edx
    eae0:	0f b6 85 ee fe ff ff 	movzbl -0x112(%rbp),%eax
    eae7:	0f b6 c0             	movzbl %al,%eax
    eaea:	39 c2                	cmp    %eax,%edx
    eaec:	7e 07                	jle    eaf5 <func_45+0x2ef>
    eaee:	ba 01 00 00 00       	mov    $0x1,%edx
    eaf3:	eb 05                	jmp    eafa <func_45+0x2f4>
    eaf5:	ba 00 00 00 00       	mov    $0x0,%edx
    eafa:	8b 85 e8 fe ff ff    	mov    -0x118(%rbp),%eax
    eb00:	89 c6                	mov    %eax,%esi
    eb02:	89 d7                	mov    %edx,%edi
    eb04:	e8 c3 6b ff ff       	callq  56cc <safe_mod_func_int32_t_s_s>
    eb09:	0f be c0             	movsbl %al,%eax
    eb0c:	8b b5 cc fe ff ff    	mov    -0x134(%rbp),%esi
    eb12:	89 c7                	mov    %eax,%edi
    eb14:	e8 53 68 ff ff       	callq  536c <safe_rshift_func_int8_t_s_u>
    eb19:	48 0f be c0          	movsbq %al,%rax
    eb1d:	4c 89 ee             	mov    %r13,%rsi
    eb20:	48 89 c7             	mov    %rax,%rdi
    eb23:	e8 06 75 ff ff       	callq  602e <safe_add_func_uint64_t_u_u>
    eb28:	8b 95 f8 fe ff ff    	mov    -0x108(%rbp),%edx
    eb2e:	48 63 d2             	movslq %edx,%rdx
    eb31:	48 09 d0             	or     %rdx,%rax
    eb34:	48 85 c0             	test   %rax,%rax
    eb37:	74 10                	je     eb49 <func_45+0x343>
    eb39:	48 8b 45 a0          	mov    -0x60(%rbp),%rax
    eb3d:	48 85 c0             	test   %rax,%rax
    eb40:	74 07                	je     eb49 <func_45+0x343>
    eb42:	b8 01 00 00 00       	mov    $0x1,%eax
    eb47:	eb 05                	jmp    eb4e <func_45+0x348>
    eb49:	b8 00 00 00 00       	mov    $0x0,%eax
    eb4e:	48 63 d0             	movslq %eax,%rdx
    eb51:	48 8b 45 b8          	mov    -0x48(%rbp),%rax
    eb55:	48 39 c2             	cmp    %rax,%rdx
    eb58:	0f 95 c0             	setne  %al
    eb5b:	0f b6 c0             	movzbl %al,%eax
    eb5e:	89 05 08 86 00 00    	mov    %eax,0x8608(%rip)        # 1716c <g_405>
    eb64:	8b 05 02 86 00 00    	mov    0x8602(%rip),%eax        # 1716c <g_405>
    eb6a:	89 c2                	mov    %eax,%edx
    eb6c:	48 8b 05 bd 85 00 00 	mov    0x85bd(%rip),%rax        # 17130 <g_226+0x30>
    eb73:	48 89 d6             	mov    %rdx,%rsi
    eb76:	48 89 c7             	mov    %rax,%rdi
    eb79:	e8 2a 6d ff ff       	callq  58a8 <safe_sub_func_int64_t_s_s>
    eb7e:	0f b7 c0             	movzwl %ax,%eax
    eb81:	44 89 e6             	mov    %r12d,%esi
    eb84:	89 c7                	mov    %eax,%edi
    eb86:	e8 33 72 ff ff       	callq  5dbe <safe_lshift_func_uint16_t_u_s>
    eb8b:	0f b7 d0             	movzwl %ax,%edx
    eb8e:	0f b7 05 c9 84 00 00 	movzwl 0x84c9(%rip),%eax        # 1705e <g_81>
    eb95:	98                   	cwtl   
    eb96:	39 c2                	cmp    %eax,%edx
    eb98:	0f 9e c0             	setle  %al
    eb9b:	0f b6 c0             	movzbl %al,%eax
    eb9e:	89 de                	mov    %ebx,%esi
    eba0:	89 c7                	mov    %eax,%edi
    eba2:	e8 0f 6a ff ff       	callq  55b6 <safe_add_func_int32_t_s_s>
    eba7:	85 c0                	test   %eax,%eax
    eba9:	74 12                	je     ebbd <func_45+0x3b7>
    ebab:	0f b6 85 ee fe ff ff 	movzbl -0x112(%rbp),%eax
    ebb2:	84 c0                	test   %al,%al
    ebb4:	74 07                	je     ebbd <func_45+0x3b7>
    ebb6:	ba 01 00 00 00       	mov    $0x1,%edx
    ebbb:	eb 05                	jmp    ebc2 <func_45+0x3bc>
    ebbd:	ba 00 00 00 00       	mov    $0x0,%edx
    ebc2:	48 8b 85 e0 fe ff ff 	mov    -0x120(%rbp),%rax
    ebc9:	89 10                	mov    %edx,(%rax)
    ebcb:	8b 85 6c ff ff ff    	mov    -0x94(%rbp),%eax
    ebd1:	83 c0 01             	add    $0x1,%eax
    ebd4:	89 85 6c ff ff ff    	mov    %eax,-0x94(%rbp)
    ebda:	c6 05 9f 84 00 00 ed 	movb   $0xed,0x849f(%rip)        # 17080 <g_136>
    ebe1:	90                   	nop
    ebe2:	0f b6 05 97 84 00 00 	movzbl 0x8497(%rip),%eax        # 17080 <g_136>
    ebe9:	3c 28                	cmp    $0x28,%al
    ebeb:	0f 84 52 02 00 00    	je     ee43 <func_45+0x63d>
    ebf1:	c7 85 04 ff ff ff 9e 	movl   $0x377ed9e,-0xfc(%rbp)
    ebf8:	ed 77 03 
    ebfb:	48 8d 85 6c ff ff ff 	lea    -0x94(%rbp),%rax
    ec02:	48 89 85 40 ff ff ff 	mov    %rax,-0xc0(%rbp)
    ec09:	48 8d 85 08 ff ff ff 	lea    -0xf8(%rbp),%rax
    ec10:	48 89 85 48 ff ff ff 	mov    %rax,-0xb8(%rbp)
    ec17:	48 8d 85 08 ff ff ff 	lea    -0xf8(%rbp),%rax
    ec1e:	48 89 85 10 ff ff ff 	mov    %rax,-0xf0(%rbp)
    ec25:	48 8d 85 10 ff ff ff 	lea    -0xf0(%rbp),%rax
    ec2c:	48 89 85 50 ff ff ff 	mov    %rax,-0xb0(%rbp)
    ec33:	48 8d 05 56 ab 00 00 	lea    0xab56(%rip),%rax        # 19790 <g_78>
    ec3a:	48 89 85 58 ff ff ff 	mov    %rax,-0xa8(%rbp)
    ec41:	0f b6 85 ee fe ff ff 	movzbl -0x112(%rbp),%eax
    ec48:	0f b6 c0             	movzbl %al,%eax
    ec4b:	be 0d 00 00 00       	mov    $0xd,%esi
    ec50:	89 c7                	mov    %eax,%edi
    ec52:	e8 0c 69 ff ff       	callq  5563 <safe_rshift_func_int16_t_s_u>
    ec57:	0f bf d8             	movswl %ax,%ebx
    ec5a:	0f b6 85 ee fe ff ff 	movzbl -0x112(%rbp),%eax
    ec61:	84 c0                	test   %al,%al
    ec63:	74 12                	je     ec77 <func_45+0x471>
    ec65:	8b 85 6c ff ff ff    	mov    -0x94(%rbp),%eax
    ec6b:	85 c0                	test   %eax,%eax
    ec6d:	74 08                	je     ec77 <func_45+0x471>
    ec6f:	41 bc 01 00 00 00    	mov    $0x1,%r12d
    ec75:	eb 06                	jmp    ec7d <func_45+0x477>
    ec77:	41 bc 00 00 00 00    	mov    $0x0,%r12d
    ec7d:	48 8b 85 e0 fe ff ff 	mov    -0x120(%rbp),%rax
    ec84:	c7 00 09 00 00 00    	movl   $0x9,(%rax)
    ec8a:	be 03 00 00 00       	mov    $0x3,%esi
    ec8f:	bf ff ff ff ff       	mov    $0xffffffff,%edi
    ec94:	e8 91 68 ff ff       	callq  552a <safe_rshift_func_int16_t_s_s>
    ec99:	66 85 c0             	test   %ax,%ax
    ec9c:	74 07                	je     eca5 <func_45+0x49f>
    ec9e:	b8 01 00 00 00       	mov    $0x1,%eax
    eca3:	eb 05                	jmp    ecaa <func_45+0x4a4>
    eca5:	b8 00 00 00 00       	mov    $0x0,%eax
    ecaa:	0b 85 04 ff ff ff    	or     -0xfc(%rbp),%eax
    ecb0:	41 39 c4             	cmp    %eax,%r12d
    ecb3:	0f 94 c0             	sete   %al
    ecb6:	0f b6 c0             	movzbl %al,%eax
    ecb9:	39 c3                	cmp    %eax,%ebx
    ecbb:	0f 9c c0             	setl   %al
    ecbe:	0f b6 c0             	movzbl %al,%eax
    ecc1:	be 01 00 00 00       	mov    $0x1,%esi
    ecc6:	89 c7                	mov    %eax,%edi
    ecc8:	e8 03 72 ff ff       	callq  5ed0 <safe_sub_func_uint32_t_u_u>
    eccd:	c7 85 f8 fe ff ff 01 	movl   $0x1,-0x108(%rbp)
    ecd4:	00 00 00 
    ecd7:	8b 95 f8 fe ff ff    	mov    -0x108(%rbp),%edx
    ecdd:	0f b6 85 ee fe ff ff 	movzbl -0x112(%rbp),%eax
    ece4:	0f b6 c0             	movzbl %al,%eax
    ece7:	39 c2                	cmp    %eax,%edx
    ece9:	0f 9d c0             	setge  %al
    ecec:	0f b6 c0             	movzbl %al,%eax
    ecef:	be 02 00 00 00       	mov    $0x2,%esi
    ecf4:	89 c7                	mov    %eax,%edi
    ecf6:	e8 71 66 ff ff       	callq  536c <safe_rshift_func_int8_t_s_u>
    ecfb:	84 c0                	test   %al,%al
    ecfd:	74 07                	je     ed06 <func_45+0x500>
    ecff:	b8 01 00 00 00       	mov    $0x1,%eax
    ed04:	eb 05                	jmp    ed0b <func_45+0x505>
    ed06:	b8 00 00 00 00       	mov    $0x0,%eax
    ed0b:	31 85 e8 fe ff ff    	xor    %eax,-0x118(%rbp)
    ed11:	c7 05 51 84 00 00 00 	movl   $0x0,0x8451(%rip)        # 1716c <g_405>
    ed18:	00 00 00 
    ed1b:	eb 3f                	jmp    ed5c <func_45+0x556>
    ed1d:	48 8d 05 50 83 00 00 	lea    0x8350(%rip),%rax        # 17074 <g_87>
    ed24:	48 89 85 60 ff ff ff 	mov    %rax,-0xa0(%rbp)
    ed2b:	0f b6 05 4e 83 00 00 	movzbl 0x834e(%rip),%eax        # 17080 <g_136>
    ed32:	0f b6 d0             	movzbl %al,%edx
    ed35:	48 8d 85 f8 fe ff ff 	lea    -0x108(%rbp),%rax
    ed3c:	89 d6                	mov    %edx,%esi
    ed3e:	48 89 c7             	mov    %rax,%rdi
    ed41:	e8 ce be ff ff       	callq  ac14 <func_23>
    ed46:	48 89 85 60 ff ff ff 	mov    %rax,-0xa0(%rbp)
    ed4d:	8b 05 19 84 00 00    	mov    0x8419(%rip),%eax        # 1716c <g_405>
    ed53:	83 c0 01             	add    $0x1,%eax
    ed56:	89 05 10 84 00 00    	mov    %eax,0x8410(%rip)        # 1716c <g_405>
    ed5c:	8b 05 0a 84 00 00    	mov    0x840a(%rip),%eax        # 1716c <g_405>
    ed62:	83 f8 21             	cmp    $0x21,%eax
    ed65:	77 b6                	ja     ed1d <func_45+0x517>
    ed67:	0f b6 85 ee fe ff ff 	movzbl -0x112(%rbp),%eax
    ed6e:	0f b6 d8             	movzbl %al,%ebx
    ed71:	8b 05 fd 82 00 00    	mov    0x82fd(%rip),%eax        # 17074 <g_87>
    ed77:	4c 63 e0             	movslq %eax,%r12
    ed7a:	83 bd e8 fe ff ff 00 	cmpl   $0x0,-0x118(%rbp)
    ed81:	0f 95 c0             	setne  %al
    ed84:	0f b6 d0             	movzbl %al,%edx
    ed87:	48 8d 85 08 ff ff ff 	lea    -0xf8(%rbp),%rax
    ed8e:	48 89 85 48 ff ff ff 	mov    %rax,-0xb8(%rbp)
    ed95:	48 8b 8d 10 ff ff ff 	mov    -0xf0(%rbp),%rcx
    ed9c:	48 8b 85 50 ff ff ff 	mov    -0xb0(%rbp),%rax
    eda3:	48 89 08             	mov    %rcx,(%rax)
    eda6:	8b 85 04 ff ff ff    	mov    -0xfc(%rbp),%eax
    edac:	83 f0 01             	xor    $0x1,%eax
    edaf:	89 c1                	mov    %eax,%ecx
    edb1:	0f b6 05 e0 a9 00 00 	movzbl 0xa9e0(%rip),%eax        # 19798 <g_85>
    edb8:	0f be c0             	movsbl %al,%eax
    edbb:	39 c1                	cmp    %eax,%ecx
    edbd:	0f 9f c0             	setg   %al
    edc0:	0f b6 c0             	movzbl %al,%eax
    edc3:	89 d6                	mov    %edx,%esi
    edc5:	89 c7                	mov    %eax,%edi
    edc7:	e8 9e 64 ff ff       	callq  526a <safe_div_func_int8_t_s_s>
    edcc:	48 0f be c0          	movsbq %al,%rax
    edd0:	4c 89 e6             	mov    %r12,%rsi
    edd3:	48 89 c7             	mov    %rax,%rdi
    edd6:	e8 1c 6c ff ff       	callq  59f7 <safe_div_func_int64_t_s_s>
    eddb:	89 c2                	mov    %eax,%edx
    eddd:	48 83 bd 40 ff ff ff 	cmpq   $0x0,-0xc0(%rbp)
    ede4:	00 
    ede5:	0f 95 c0             	setne  %al
    ede8:	0f b6 c0             	movzbl %al,%eax
    edeb:	89 d6                	mov    %edx,%esi
    eded:	89 c7                	mov    %eax,%edi
    edef:	e8 12 70 ff ff       	callq  5e06 <safe_lshift_func_uint16_t_u_u>
    edf4:	0f be c0             	movsbl %al,%eax
    edf7:	89 de                	mov    %ebx,%esi
    edf9:	89 c7                	mov    %eax,%edi
    edfb:	e8 6c 65 ff ff       	callq  536c <safe_rshift_func_int8_t_s_u>
    ee00:	83 bd 04 ff ff ff 00 	cmpl   $0x0,-0xfc(%rbp)
    ee07:	74 1d                	je     ee26 <func_45+0x620>
    ee09:	48 8b 85 10 ff ff ff 	mov    -0xf0(%rbp),%rax
    ee10:	48 8b 95 18 ff ff ff 	mov    -0xe8(%rbp),%rdx
    ee17:	48 8b 12             	mov    (%rdx),%rdx
    ee1a:	48 89 10             	mov    %rdx,(%rax)
    ee1d:	48 8b 85 58 ff ff ff 	mov    -0xa8(%rbp),%rax
    ee24:	eb 24                	jmp    ee4a <func_45+0x644>
    ee26:	48 8b 85 58 ff ff ff 	mov    -0xa8(%rbp),%rax
    ee2d:	48 8b 10             	mov    (%rax),%rdx
    ee30:	48 8b 85 58 ff ff ff 	mov    -0xa8(%rbp),%rax
    ee37:	48 89 10             	mov    %rdx,(%rax)
    ee3a:	48 8b 05 4f 7f 00 00 	mov    0x7f4f(%rip),%rax        # 16d90 <l_439.5133+0x10>
    ee41:	eb 07                	jmp    ee4a <func_45+0x644>
    ee43:	48 8b 85 38 ff ff ff 	mov    -0xc8(%rbp),%rax
    ee4a:	48 8b 5d c8          	mov    -0x38(%rbp),%rbx
    ee4e:	64 48 33 1c 25 28 00 	xor    %fs:0x28,%rbx
    ee55:	00 00 
    ee57:	74 05                	je     ee5e <func_45+0x658>
    ee59:	e8 12 62 ff ff       	callq  5070 <__stack_chk_fail@plt>
    ee5e:	48 81 c4 18 01 00 00 	add    $0x118,%rsp
    ee65:	5b                   	pop    %rbx
    ee66:	41 5c                	pop    %r12
    ee68:	41 5d                	pop    %r13
    ee6a:	41 5e                	pop    %r14
    ee6c:	41 5f                	pop    %r15
    ee6e:	5d                   	pop    %rbp
    ee6f:	c3                   	retq   

000000000000ee70 <func_51>:
    ee70:	f3 0f 1e fa          	endbr64 
    ee74:	55                   	push   %rbp
    ee75:	48 89 e5             	mov    %rsp,%rbp
    ee78:	41 57                	push   %r15
    ee7a:	41 56                	push   %r14
    ee7c:	41 55                	push   %r13
    ee7e:	41 54                	push   %r12
    ee80:	53                   	push   %rbx
    ee81:	48 81 ec 18 0e 00 00 	sub    $0xe18,%rsp
    ee88:	89 f8                	mov    %edi,%eax
    ee8a:	89 b5 d8 f1 ff ff    	mov    %esi,-0xe28(%rbp)
    ee90:	48 89 95 d0 f1 ff ff 	mov    %rdx,-0xe30(%rbp)
    ee97:	89 8d cc f1 ff ff    	mov    %ecx,-0xe34(%rbp)
    ee9d:	88 85 dc f1 ff ff    	mov    %al,-0xe24(%rbp)
    eea3:	64 48 8b 04 25 28 00 	mov    %fs:0x28,%rax
    eeaa:	00 00 
    eeac:	48 89 45 c8          	mov    %rax,-0x38(%rbp)
    eeb0:	31 c0                	xor    %eax,%eax
    eeb2:	48 8d 85 f0 f6 ff ff 	lea    -0x910(%rbp),%rax
    eeb9:	48 8d 15 c0 50 00 00 	lea    0x50c0(%rip),%rdx        # 13f80 <g_3098+0x1ae0>
    eec0:	b9 5a 00 00 00       	mov    $0x5a,%ecx
    eec5:	48 89 c7             	mov    %rax,%rdi
    eec8:	48 89 d6             	mov    %rdx,%rsi
    eecb:	f3 48 a5             	rep movsq %ds:(%rsi),%es:(%rdi)
    eece:	48 8d 05 9f 81 00 00 	lea    0x819f(%rip),%rax        # 17074 <g_87>
    eed5:	48 89 85 10 f4 ff ff 	mov    %rax,-0xbf0(%rbp)
    eedc:	48 8d 05 91 81 00 00 	lea    0x8191(%rip),%rax        # 17074 <g_87>
    eee3:	48 89 85 18 f4 ff ff 	mov    %rax,-0xbe8(%rbp)
    eeea:	48 8d 05 83 81 00 00 	lea    0x8183(%rip),%rax        # 17074 <g_87>
    eef1:	48 89 85 20 f4 ff ff 	mov    %rax,-0xbe0(%rbp)
    eef8:	48 8d 05 75 81 00 00 	lea    0x8175(%rip),%rax        # 17074 <g_87>
    eeff:	48 89 85 28 f4 ff ff 	mov    %rax,-0xbd8(%rbp)
    ef06:	48 8d 05 67 81 00 00 	lea    0x8167(%rip),%rax        # 17074 <g_87>
    ef0d:	48 89 85 30 f4 ff ff 	mov    %rax,-0xbd0(%rbp)
    ef14:	48 8d 05 59 81 00 00 	lea    0x8159(%rip),%rax        # 17074 <g_87>
    ef1b:	48 89 85 38 f4 ff ff 	mov    %rax,-0xbc8(%rbp)
    ef22:	c7 85 ec f1 ff ff 76 	movl   $0x8bdfdf76,-0xe14(%rbp)
    ef29:	df df 8b 
    ef2c:	c7 85 38 f2 ff ff 00 	movl   $0x0,-0xdc8(%rbp)
    ef33:	00 00 00 
    ef36:	c7 85 3c f2 ff ff 32 	movl   $0xc101f132,-0xdc4(%rbp)
    ef3d:	f1 01 c1 
    ef40:	48 c7 85 80 f2 ff ff 	movq   $0xfffffffffffffffc,-0xd80(%rbp)
    ef47:	fc ff ff ff 
    ef4b:	c6 85 a0 f3 ff ff f9 	movb   $0xf9,-0xc60(%rbp)
    ef52:	c7 85 a4 f3 ff ff ec 	movl   $0x41dadcec,-0xc5c(%rbp)
    ef59:	dc da 41 
    ef5c:	48 b8 ee f4 78 df 83 	movabs $0x8e565183df78f4ee,%rax
    ef63:	51 56 8e 
    ef66:	48 89 85 b0 f2 ff ff 	mov    %rax,-0xd50(%rbp)
    ef6d:	66 c7 85 e6 f1 ff ff 	movw   $0xffff,-0xe1a(%rbp)
    ef74:	ff ff 
    ef76:	48 8d 05 e5 80 00 00 	lea    0x80e5(%rip),%rax        # 17062 <g_84+0x2>
    ef7d:	48 89 85 88 f2 ff ff 	mov    %rax,-0xd78(%rbp)
    ef84:	48 8d 05 05 a8 00 00 	lea    0xa805(%rip),%rax        # 19790 <g_78>
    ef8b:	48 89 85 90 f2 ff ff 	mov    %rax,-0xd70(%rbp)
    ef92:	48 c7 85 f0 f5 ff ff 	movq   $0x0,-0xa10(%rbp)
    ef99:	00 00 00 00 
    ef9d:	48 8d 05 6c 81 00 00 	lea    0x816c(%rip),%rax        # 17110 <g_226+0x10>
    efa4:	48 89 85 f8 f5 ff ff 	mov    %rax,-0xa08(%rbp)
    efab:	48 c7 85 00 f6 ff ff 	movq   $0x0,-0xa00(%rbp)
    efb2:	00 00 00 00 
    efb6:	48 c7 85 08 f6 ff ff 	movq   $0x0,-0x9f8(%rbp)
    efbd:	00 00 00 00 
    efc1:	48 c7 85 10 f6 ff ff 	movq   $0x0,-0x9f0(%rbp)
    efc8:	00 00 00 00 
    efcc:	48 8d 05 3d 81 00 00 	lea    0x813d(%rip),%rax        # 17110 <g_226+0x10>
    efd3:	48 89 85 18 f6 ff ff 	mov    %rax,-0x9e8(%rbp)
    efda:	48 c7 85 20 f6 ff ff 	movq   $0x0,-0x9e0(%rbp)
    efe1:	00 00 00 00 
    efe5:	48 c7 85 28 f6 ff ff 	movq   $0x0,-0x9d8(%rbp)
    efec:	00 00 00 00 
    eff0:	48 c7 85 30 f6 ff ff 	movq   $0x0,-0x9d0(%rbp)
    eff7:	00 00 00 00 
    effb:	48 8d 05 0e 81 00 00 	lea    0x810e(%rip),%rax        # 17110 <g_226+0x10>
    f002:	48 89 85 38 f6 ff ff 	mov    %rax,-0x9c8(%rbp)
    f009:	48 c7 85 40 f6 ff ff 	movq   $0x0,-0x9c0(%rbp)
    f010:	00 00 00 00 
    f014:	48 c7 85 48 f6 ff ff 	movq   $0x0,-0x9b8(%rbp)
    f01b:	00 00 00 00 
    f01f:	48 c7 85 50 f6 ff ff 	movq   $0x0,-0x9b0(%rbp)
    f026:	00 00 00 00 
    f02a:	48 8d 05 df 80 00 00 	lea    0x80df(%rip),%rax        # 17110 <g_226+0x10>
    f031:	48 89 85 58 f6 ff ff 	mov    %rax,-0x9a8(%rbp)
    f038:	48 c7 85 60 f6 ff ff 	movq   $0x0,-0x9a0(%rbp)
    f03f:	00 00 00 00 
    f043:	48 c7 85 68 f6 ff ff 	movq   $0x0,-0x998(%rbp)
    f04a:	00 00 00 00 
    f04e:	48 c7 85 70 f6 ff ff 	movq   $0x0,-0x990(%rbp)
    f055:	00 00 00 00 
    f059:	48 8d 05 b0 80 00 00 	lea    0x80b0(%rip),%rax        # 17110 <g_226+0x10>
    f060:	48 89 85 78 f6 ff ff 	mov    %rax,-0x988(%rbp)
    f067:	48 c7 85 80 f6 ff ff 	movq   $0x0,-0x980(%rbp)
    f06e:	00 00 00 00 
    f072:	48 c7 85 88 f6 ff ff 	movq   $0x0,-0x978(%rbp)
    f079:	00 00 00 00 
    f07d:	48 c7 85 90 f6 ff ff 	movq   $0x0,-0x970(%rbp)
    f084:	00 00 00 00 
    f088:	48 8d 05 81 80 00 00 	lea    0x8081(%rip),%rax        # 17110 <g_226+0x10>
    f08f:	48 89 85 98 f6 ff ff 	mov    %rax,-0x968(%rbp)
    f096:	48 c7 85 a0 f6 ff ff 	movq   $0x0,-0x960(%rbp)
    f09d:	00 00 00 00 
    f0a1:	48 c7 85 a8 f6 ff ff 	movq   $0x0,-0x958(%rbp)
    f0a8:	00 00 00 00 
    f0ac:	48 c7 85 b0 f6 ff ff 	movq   $0x0,-0x950(%rbp)
    f0b3:	00 00 00 00 
    f0b7:	48 8d 05 52 80 00 00 	lea    0x8052(%rip),%rax        # 17110 <g_226+0x10>
    f0be:	48 89 85 b8 f6 ff ff 	mov    %rax,-0x948(%rbp)
    f0c5:	48 c7 85 c0 f6 ff ff 	movq   $0x0,-0x940(%rbp)
    f0cc:	00 00 00 00 
    f0d0:	48 c7 85 c8 f6 ff ff 	movq   $0x0,-0x938(%rbp)
    f0d7:	00 00 00 00 
    f0db:	48 c7 85 d0 f6 ff ff 	movq   $0x0,-0x930(%rbp)
    f0e2:	00 00 00 00 
    f0e6:	48 8d 05 23 80 00 00 	lea    0x8023(%rip),%rax        # 17110 <g_226+0x10>
    f0ed:	48 89 85 d8 f6 ff ff 	mov    %rax,-0x928(%rbp)
    f0f4:	48 c7 85 e0 f6 ff ff 	movq   $0x0,-0x920(%rbp)
    f0fb:	00 00 00 00 
    f0ff:	48 c7 85 e8 f6 ff ff 	movq   $0x0,-0x918(%rbp)
    f106:	00 00 00 00 
    f10a:	66 c7 85 e8 f1 ff ff 	movw   $0x0,-0xe18(%rbp)
    f111:	00 00 
    f113:	c7 85 40 f2 ff ff 07 	movl   $0x7,-0xdc0(%rbp)
    f11a:	00 00 00 
    f11d:	c7 85 44 f2 ff ff f8 	movl   $0xfffffff8,-0xdbc(%rbp)
    f124:	ff ff ff 
    f127:	c7 85 e0 f3 ff ff d3 	movl   $0xb92c3fd3,-0xc20(%rbp)
    f12e:	3f 2c b9 
    f131:	c7 85 e4 f3 ff ff 01 	movl   $0x1,-0xc1c(%rbp)
    f138:	00 00 00 
    f13b:	c7 85 e8 f3 ff ff d3 	movl   $0xb92c3fd3,-0xc18(%rbp)
    f142:	3f 2c b9 
    f145:	c7 85 ec f3 ff ff 01 	movl   $0x1,-0xc14(%rbp)
    f14c:	00 00 00 
    f14f:	c7 85 f0 f3 ff ff d3 	movl   $0xb92c3fd3,-0xc10(%rbp)
    f156:	3f 2c b9 
    f159:	c7 85 f4 f3 ff ff 01 	movl   $0x1,-0xc0c(%rbp)
    f160:	00 00 00 
    f163:	c7 85 f8 f3 ff ff d3 	movl   $0xb92c3fd3,-0xc08(%rbp)
    f16a:	3f 2c b9 
    f16d:	c7 85 fc f3 ff ff 01 	movl   $0x1,-0xc04(%rbp)
    f174:	00 00 00 
    f177:	c7 85 00 f4 ff ff d3 	movl   $0xb92c3fd3,-0xc00(%rbp)
    f17e:	3f 2c b9 
    f181:	c7 85 48 f2 ff ff 2e 	movl   $0xad19e72e,-0xdb8(%rbp)
    f188:	e7 19 ad 
    f18b:	c7 85 14 f2 ff ff 00 	movl   $0x0,-0xdec(%rbp)
    f192:	00 00 00 
    f195:	48 8d 85 c0 f9 ff ff 	lea    -0x640(%rbp),%rax
    f19c:	48 8d 15 bd 50 00 00 	lea    0x50bd(%rip),%rdx        # 14260 <g_3098+0x1dc0>
    f1a3:	b9 5a 00 00 00       	mov    $0x5a,%ecx
    f1a8:	48 89 c7             	mov    %rax,%rdi
    f1ab:	48 89 d6             	mov    %rdx,%rsi
    f1ae:	f3 48 a5             	rep movsq %ds:(%rsi),%es:(%rdi)
    f1b1:	48 b8 e1 77 42 31 63 	movabs $0x5b5f0963314277e1,%rax
    f1b8:	09 5f 5b 
    f1bb:	48 89 85 b8 f2 ff ff 	mov    %rax,-0xd48(%rbp)
    f1c2:	c7 85 f0 f1 ff ff 00 	movl   $0x0,-0xe10(%rbp)
    f1c9:	00 00 00 
    f1cc:	c6 85 f0 f1 ff ff ff 	movb   $0xff,-0xe10(%rbp)
    f1d3:	48 8d 05 b6 a5 00 00 	lea    0xa5b6(%rip),%rax        # 19790 <g_78>
    f1da:	48 89 85 c0 f2 ff ff 	mov    %rax,-0xd40(%rbp)
    f1e1:	0f b6 85 dc f1 ff ff 	movzbl -0xe24(%rbp),%eax
    f1e8:	84 c0                	test   %al,%al
    f1ea:	0f 84 da 1a 00 00    	je     10cca <func_51+0x1e5a>
    f1f0:	48 8d 05 7d 7e 00 00 	lea    0x7e7d(%rip),%rax        # 17074 <g_87>
    f1f7:	48 89 85 b0 f4 ff ff 	mov    %rax,-0xb50(%rbp)
    f1fe:	48 8d 05 2b 7e 00 00 	lea    0x7e2b(%rip),%rax        # 17030 <g_8>
    f205:	48 89 85 b8 f4 ff ff 	mov    %rax,-0xb48(%rbp)
    f20c:	48 8d 05 61 7e 00 00 	lea    0x7e61(%rip),%rax        # 17074 <g_87>
    f213:	48 89 85 c0 f4 ff ff 	mov    %rax,-0xb40(%rbp)
    f21a:	48 8d 05 53 7e 00 00 	lea    0x7e53(%rip),%rax        # 17074 <g_87>
    f221:	48 89 85 c8 f4 ff ff 	mov    %rax,-0xb38(%rbp)
    f228:	48 8d 05 01 7e 00 00 	lea    0x7e01(%rip),%rax        # 17030 <g_8>
    f22f:	48 89 85 d0 f4 ff ff 	mov    %rax,-0xb30(%rbp)
    f236:	48 8d 05 37 7e 00 00 	lea    0x7e37(%rip),%rax        # 17074 <g_87>
    f23d:	48 89 85 d8 f4 ff ff 	mov    %rax,-0xb28(%rbp)
    f244:	48 8d 05 29 7e 00 00 	lea    0x7e29(%rip),%rax        # 17074 <g_87>
    f24b:	48 89 85 e0 f4 ff ff 	mov    %rax,-0xb20(%rbp)
    f252:	48 8d 05 d7 7d 00 00 	lea    0x7dd7(%rip),%rax        # 17030 <g_8>
    f259:	48 89 85 e8 f4 ff ff 	mov    %rax,-0xb18(%rbp)
    f260:	c7 85 f4 f1 ff ff 22 	movl   $0xa0e0cc22,-0xe0c(%rbp)
    f267:	cc e0 a0 
    f26a:	c7 85 18 f2 ff ff fa 	movl   $0xa0dc95fa,-0xde8(%rbp)
    f271:	95 dc a0 
    f274:	c7 85 f8 f1 ff ff 01 	movl   $0x1,-0xe08(%rbp)
    f27b:	00 00 00 
    f27e:	c7 85 4c f2 ff ff ff 	movl   $0xffffffff,-0xdb4(%rbp)
    f285:	ff ff ff 
    f288:	c6 85 a8 f3 ff ff 01 	movb   $0x1,-0xc58(%rbp)
    f28f:	c7 85 ac f3 ff ff 01 	movl   $0x1,-0xc54(%rbp)
    f296:	00 00 00 
    f299:	c7 85 50 f2 ff ff c6 	movl   $0x9d5c39c6,-0xdb0(%rbp)
    f2a0:	39 5c 9d 
    f2a3:	66 c7 85 e2 f1 ff ff 	movw   $0x0,-0xe1e(%rbp)
    f2aa:	00 00 
    f2ac:	48 c7 85 98 f2 ff ff 	movq   $0x0,-0xd68(%rbp)
    f2b3:	00 00 00 00 
    f2b7:	c7 85 98 f2 ff ff fc 	movl   $0xfffffffc,-0xd68(%rbp)
    f2be:	ff ff ff 
    f2c1:	48 c7 85 d8 f2 ff ff 	movq   $0x0,-0xd28(%rbp)
    f2c8:	00 00 00 00 
    f2cc:	c7 85 fc f1 ff ff 06 	movl   $0x6,-0xe04(%rbp)
    f2d3:	00 00 00 
    f2d6:	48 c7 85 e0 f2 ff ff 	movq   $0xfffffffffffffffd,-0xd20(%rbp)
    f2dd:	fd ff ff ff 
    f2e1:	c7 85 54 f2 ff ff 00 	movl   $0x0,-0xdac(%rbp)
    f2e8:	00 00 00 
    f2eb:	c7 85 1c f2 ff ff 00 	movl   $0x0,-0xde4(%rbp)
    f2f2:	00 00 00 
    f2f5:	eb 1a                	jmp    f311 <func_51+0x4a1>
    f2f7:	8b 85 1c f2 ff ff    	mov    -0xde4(%rbp),%eax
    f2fd:	48 98                	cltq   
    f2ff:	c7 84 85 d4 f3 ff ff 	movl   $0x104320fe,-0xc2c(%rbp,%rax,4)
    f306:	fe 20 43 10 
    f30a:	83 85 1c f2 ff ff 01 	addl   $0x1,-0xde4(%rbp)
    f311:	83 bd 1c f2 ff ff 02 	cmpl   $0x2,-0xde4(%rbp)
    f318:	7e dd                	jle    f2f7 <func_51+0x487>
    f31a:	c7 85 d8 f1 ff ff 00 	movl   $0x0,-0xe28(%rbp)
    f321:	00 00 00 
    f324:	e9 8f 19 00 00       	jmpq   10cb8 <func_51+0x1e48>
    f329:	48 8d 05 44 7d 00 00 	lea    0x7d44(%rip),%rax        # 17074 <g_87>
    f330:	48 89 85 a0 f2 ff ff 	mov    %rax,-0xd60(%rbp)
    f337:	48 8d 05 36 7d 00 00 	lea    0x7d36(%rip),%rax        # 17074 <g_87>
    f33e:	48 89 85 e8 f2 ff ff 	mov    %rax,-0xd18(%rbp)
    f345:	c7 85 00 f2 ff ff 78 	movl   $0xab68978,-0xe00(%rbp)
    f34c:	89 b6 0a 
    f34f:	c7 85 04 f2 ff ff 02 	movl   $0x2,-0xdfc(%rbp)
    f356:	00 00 00 
    f359:	c7 85 f0 f4 ff ff cb 	movl   $0xd75997cb,-0xb10(%rbp)
    f360:	97 59 d7 
    f363:	c7 85 f4 f4 ff ff cb 	movl   $0xd75997cb,-0xb0c(%rbp)
    f36a:	97 59 d7 
    f36d:	c7 85 f8 f4 ff ff cb 	movl   $0xd75997cb,-0xb08(%rbp)
    f374:	97 59 d7 
    f377:	c7 85 fc f4 ff ff cb 	movl   $0xd75997cb,-0xb04(%rbp)
    f37e:	97 59 d7 
    f381:	c7 85 00 f5 ff ff cb 	movl   $0xd75997cb,-0xb00(%rbp)
    f388:	97 59 d7 
    f38b:	c7 85 04 f5 ff ff cb 	movl   $0xd75997cb,-0xafc(%rbp)
    f392:	97 59 d7 
    f395:	c7 85 08 f5 ff ff cb 	movl   $0xd75997cb,-0xaf8(%rbp)
    f39c:	97 59 d7 
    f39f:	c7 85 0c f5 ff ff cb 	movl   $0xd75997cb,-0xaf4(%rbp)
    f3a6:	97 59 d7 
    f3a9:	c7 85 10 f5 ff ff cb 	movl   $0xd75997cb,-0xaf0(%rbp)
    f3b0:	97 59 d7 
    f3b3:	c7 85 14 f5 ff ff cb 	movl   $0xd75997cb,-0xaec(%rbp)
    f3ba:	97 59 d7 
    f3bd:	c7 85 18 f5 ff ff cb 	movl   $0xd75997cb,-0xae8(%rbp)
    f3c4:	97 59 d7 
    f3c7:	c7 85 1c f5 ff ff cb 	movl   $0xd75997cb,-0xae4(%rbp)
    f3ce:	97 59 d7 
    f3d1:	c7 85 20 f5 ff ff cb 	movl   $0xd75997cb,-0xae0(%rbp)
    f3d8:	97 59 d7 
    f3db:	c7 85 24 f5 ff ff cb 	movl   $0xd75997cb,-0xadc(%rbp)
    f3e2:	97 59 d7 
    f3e5:	c7 85 28 f5 ff ff cb 	movl   $0xd75997cb,-0xad8(%rbp)
    f3ec:	97 59 d7 
    f3ef:	c7 85 2c f5 ff ff cb 	movl   $0xd75997cb,-0xad4(%rbp)
    f3f6:	97 59 d7 
    f3f9:	c7 85 70 f4 ff ff 69 	movl   $0x9f046969,-0xb90(%rbp)
    f400:	69 04 9f 
    f403:	66 c7 85 74 f4 ff ff 	movw   $0x8912,-0xb8c(%rbp)
    f40a:	12 89 
    f40c:	c6 85 76 f4 ff ff fa 	movb   $0xfa,-0xb8a(%rbp)
    f413:	c7 85 77 f4 ff ff 89 	movl   $0x552c0089,-0xb89(%rbp)
    f41a:	00 2c 55 
    f41d:	66 c7 85 7b f4 ff ff 	movw   $0x4,-0xb85(%rbp)
    f424:	04 00 
    f426:	c6 85 7d f4 ff ff a9 	movb   $0xa9,-0xb83(%rbp)
    f42d:	c7 85 7e f4 ff ff 04 	movl   $0x6aeb8204,-0xb82(%rbp)
    f434:	82 eb 6a 
    f437:	66 c7 85 82 f4 ff ff 	movw   $0x112,-0xb7e(%rbp)
    f43e:	12 01 
    f440:	c6 85 84 f4 ff ff 6a 	movb   $0x6a,-0xb7c(%rbp)
    f447:	c7 85 85 f4 ff ff f8 	movl   $0x2cf800f8,-0xb7b(%rbp)
    f44e:	00 f8 2c 
    f451:	66 c7 85 89 f4 ff ff 	movw   $0xa9a9,-0xb77(%rbp)
    f458:	a9 a9 
    f45a:	c6 85 8b f4 ff ff 2c 	movb   $0x2c,-0xb75(%rbp)
    f461:	c7 85 8c f4 ff ff 55 	movl   $0x6a550055,-0xb74(%rbp)
    f468:	00 55 6a 
    f46b:	66 c7 85 90 f4 ff ff 	movw   $0x1,-0xb70(%rbp)
    f472:	01 00 
    f474:	c6 85 92 f4 ff ff 00 	movb   $0x0,-0xb6e(%rbp)
    f47b:	c7 85 93 f4 ff ff 04 	movl   $0x182ff04,-0xb6d(%rbp)
    f482:	ff 82 01 
    f485:	66 c7 85 97 f4 ff ff 	movw   $0xc16e,-0xb69(%rbp)
    f48c:	6e c1 
    f48e:	c6 85 99 f4 ff ff 01 	movb   $0x1,-0xb67(%rbp)
    f495:	c7 85 9a f4 ff ff 9f 	movl   $0x5ca9009f,-0xb66(%rbp)
    f49c:	00 a9 5c 
    f49f:	66 c7 85 9e f4 ff ff 	movw   $0x12,-0xb62(%rbp)
    f4a6:	12 00 
    f4a8:	c6 85 a0 f4 ff ff 00 	movb   $0x0,-0xb60(%rbp)
    f4af:	c7 85 a1 f4 ff ff fa 	movl   $0x6e166afa,-0xb5f(%rbp)
    f4b6:	6a 16 6e 
    f4b9:	66 c7 85 a5 f4 ff ff 	movw   $0xa99f,-0xb5b(%rbp)
    f4c0:	9f a9 
    f4c2:	c6 85 a7 f4 ff ff 9f 	movb   $0x9f,-0xb59(%rbp)
    f4c9:	c7 85 a8 f4 ff ff 82 	movl   $0x82161682,-0xb58(%rbp)
    f4d0:	16 16 82 
    f4d3:	66 c7 85 ac f4 ff ff 	movw   $0x189,-0xb54(%rbp)
    f4da:	89 01 
    f4dc:	c6 85 ae f4 ff ff a9 	movb   $0xa9,-0xb52(%rbp)
    f4e3:	c7 85 58 f2 ff ff 00 	movl   $0x0,-0xda8(%rbp)
    f4ea:	00 00 00 
    f4ed:	c6 85 b0 f3 ff ff 5e 	movb   $0x5e,-0xc50(%rbp)
    f4f4:	c7 85 b4 f3 ff ff 59 	movl   $0xfd051559,-0xc4c(%rbp)
    f4fb:	15 05 fd 
    f4fe:	8b 85 2c f9 ff ff    	mov    -0x6d4(%rbp),%eax
    f504:	83 c0 01             	add    $0x1,%eax
    f507:	89 85 2c f9 ff ff    	mov    %eax,-0x6d4(%rbp)
    f50d:	48 8b 85 a0 f2 ff ff 	mov    -0xd60(%rbp),%rax
    f514:	8b 10                	mov    (%rax),%edx
    f516:	48 8b 85 a0 f2 ff ff 	mov    -0xd60(%rbp),%rax
    f51d:	83 f2 01             	xor    $0x1,%edx
    f520:	89 10                	mov    %edx,(%rax)
    f522:	8b 00                	mov    (%rax),%eax
    f524:	85 c0                	test   %eax,%eax
    f526:	74 0c                	je     f534 <func_51+0x6c4>
    f528:	0f b7 05 49 7b 00 00 	movzwl 0x7b49(%rip),%eax        # 17078 <g_92>
    f52f:	e9 3d 18 00 00       	jmpq   10d71 <func_51+0x1f01>
    f534:	48 8d 95 30 f5 ff ff 	lea    -0xad0(%rbp),%rdx
    f53b:	b8 00 00 00 00       	mov    $0x0,%eax
    f540:	b9 18 00 00 00       	mov    $0x18,%ecx
    f545:	48 89 d7             	mov    %rdx,%rdi
    f548:	f3 48 ab             	rep stos %rax,%es:(%rdi)
    f54b:	c6 85 30 f5 ff ff 14 	movb   $0x14,-0xad0(%rbp)
    f552:	c6 85 32 f5 ff ff f4 	movb   $0xf4,-0xace(%rbp)
    f559:	c6 85 34 f5 ff ff fe 	movb   $0xfe,-0xacc(%rbp)
    f560:	c6 85 36 f5 ff ff 0f 	movb   $0xf,-0xaca(%rbp)
    f567:	c6 85 38 f5 ff ff cc 	movb   $0xcc,-0xac8(%rbp)
    f56e:	c6 85 3a f5 ff ff 07 	movb   $0x7,-0xac6(%rbp)
    f575:	c6 85 3c f5 ff ff ff 	movb   $0xff,-0xac4(%rbp)
    f57c:	c6 85 3e f5 ff ff fa 	movb   $0xfa,-0xac2(%rbp)
    f583:	c6 85 40 f5 ff ff 71 	movb   $0x71,-0xac0(%rbp)
    f58a:	c6 85 42 f5 ff ff 71 	movb   $0x71,-0xabe(%rbp)
    f591:	c6 85 44 f5 ff ff fa 	movb   $0xfa,-0xabc(%rbp)
    f598:	c6 85 46 f5 ff ff ff 	movb   $0xff,-0xaba(%rbp)
    f59f:	c6 85 48 f5 ff ff ff 	movb   $0xff,-0xab8(%rbp)
    f5a6:	c6 85 4a f5 ff ff 07 	movb   $0x7,-0xab6(%rbp)
    f5ad:	c6 85 4c f5 ff ff fa 	movb   $0xfa,-0xab4(%rbp)
    f5b4:	c6 85 4e f5 ff ff 09 	movb   $0x9,-0xab2(%rbp)
    f5bb:	c6 85 50 f5 ff ff fd 	movb   $0xfd,-0xab0(%rbp)
    f5c2:	c6 85 52 f5 ff ff fe 	movb   $0xfe,-0xaae(%rbp)
    f5c9:	c6 85 54 f5 ff ff 07 	movb   $0x7,-0xaac(%rbp)
    f5d0:	c6 85 56 f5 ff ff f6 	movb   $0xf6,-0xaaa(%rbp)
    f5d7:	c6 85 58 f5 ff ff 34 	movb   $0x34,-0xaa8(%rbp)
    f5de:	c6 85 5a f5 ff ff 14 	movb   $0x14,-0xaa6(%rbp)
    f5e5:	c6 85 5c f5 ff ff f5 	movb   $0xf5,-0xaa4(%rbp)
    f5ec:	c6 85 5e f5 ff ff 5e 	movb   $0x5e,-0xaa2(%rbp)
    f5f3:	c6 85 60 f5 ff ff 07 	movb   $0x7,-0xaa0(%rbp)
    f5fa:	c6 85 62 f5 ff ff 31 	movb   $0x31,-0xa9e(%rbp)
    f601:	c6 85 64 f5 ff ff 14 	movb   $0x14,-0xa9c(%rbp)
    f608:	c6 85 66 f5 ff ff 09 	movb   $0x9,-0xa9a(%rbp)
    f60f:	c6 85 68 f5 ff ff 0f 	movb   $0xf,-0xa98(%rbp)
    f616:	c6 85 6a f5 ff ff fb 	movb   $0xfb,-0xa96(%rbp)
    f61d:	c6 85 6c f5 ff ff ff 	movb   $0xff,-0xa94(%rbp)
    f624:	c6 85 6e f5 ff ff fd 	movb   $0xfd,-0xa92(%rbp)
    f62b:	c6 85 70 f5 ff ff 6c 	movb   $0x6c,-0xa90(%rbp)
    f632:	c6 85 72 f5 ff ff 71 	movb   $0x71,-0xa8e(%rbp)
    f639:	c6 85 74 f5 ff ff fe 	movb   $0xfe,-0xa8c(%rbp)
    f640:	c6 85 76 f5 ff ff 3d 	movb   $0x3d,-0xa8a(%rbp)
    f647:	c6 85 78 f5 ff ff ff 	movb   $0xff,-0xa88(%rbp)
    f64e:	c6 85 7a f5 ff ff 69 	movb   $0x69,-0xa86(%rbp)
    f655:	c6 85 7c f5 ff ff 07 	movb   $0x7,-0xa84(%rbp)
    f65c:	c6 85 7e f5 ff ff 0f 	movb   $0xf,-0xa82(%rbp)
    f663:	c6 85 80 f5 ff ff 07 	movb   $0x7,-0xa80(%rbp)
    f66a:	c6 85 82 f5 ff ff 69 	movb   $0x69,-0xa7e(%rbp)
    f671:	c6 85 84 f5 ff ff 14 	movb   $0x14,-0xa7c(%rbp)
    f678:	c6 85 86 f5 ff ff 07 	movb   $0x7,-0xa7a(%rbp)
    f67f:	c6 85 88 f5 ff ff f9 	movb   $0xf9,-0xa78(%rbp)
    f686:	c6 85 8a f5 ff ff f6 	movb   $0xf6,-0xa76(%rbp)
    f68d:	c6 85 8c f5 ff ff ff 	movb   $0xff,-0xa74(%rbp)
    f694:	c6 85 8e f5 ff ff 4c 	movb   $0x4c,-0xa72(%rbp)
    f69b:	c6 85 90 f5 ff ff c7 	movb   $0xc7,-0xa70(%rbp)
    f6a2:	c6 85 92 f5 ff ff fd 	movb   $0xfd,-0xa6e(%rbp)
    f6a9:	c6 85 94 f5 ff ff fe 	movb   $0xfe,-0xa6c(%rbp)
    f6b0:	c6 85 96 f5 ff ff ff 	movb   $0xff,-0xa6a(%rbp)
    f6b7:	c6 85 98 f5 ff ff fb 	movb   $0xfb,-0xa68(%rbp)
    f6be:	c6 85 9a f5 ff ff fe 	movb   $0xfe,-0xa66(%rbp)
    f6c5:	c6 85 9c f5 ff ff f5 	movb   $0xf5,-0xa64(%rbp)
    f6cc:	c6 85 9e f5 ff ff fd 	movb   $0xfd,-0xa62(%rbp)
    f6d3:	c6 85 a0 f5 ff ff 69 	movb   $0x69,-0xa60(%rbp)
    f6da:	c6 85 a2 f5 ff ff 01 	movb   $0x1,-0xa5e(%rbp)
    f6e1:	c6 85 a4 f5 ff ff ff 	movb   $0xff,-0xa5c(%rbp)
    f6e8:	c6 85 a6 f5 ff ff ff 	movb   $0xff,-0xa5a(%rbp)
    f6ef:	c6 85 a8 f5 ff ff fe 	movb   $0xfe,-0xa58(%rbp)
    f6f6:	c6 85 aa f5 ff ff 07 	movb   $0x7,-0xa56(%rbp)
    f6fd:	c6 85 ac f5 ff ff 8e 	movb   $0x8e,-0xa54(%rbp)
    f704:	c6 85 ae f5 ff ff f5 	movb   $0xf5,-0xa52(%rbp)
    f70b:	c6 85 b0 f5 ff ff 07 	movb   $0x7,-0xa50(%rbp)
    f712:	c6 85 b2 f5 ff ff f9 	movb   $0xf9,-0xa4e(%rbp)
    f719:	c6 85 b4 f5 ff ff 6c 	movb   $0x6c,-0xa4c(%rbp)
    f720:	c6 85 b6 f5 ff ff 69 	movb   $0x69,-0xa4a(%rbp)
    f727:	c6 85 b8 f5 ff ff 0f 	movb   $0xf,-0xa48(%rbp)
    f72e:	c6 85 ba f5 ff ff fe 	movb   $0xfe,-0xa46(%rbp)
    f735:	c6 85 bc f5 ff ff fe 	movb   $0xfe,-0xa44(%rbp)
    f73c:	c6 85 be f5 ff ff 0f 	movb   $0xf,-0xa42(%rbp)
    f743:	c6 85 c0 f5 ff ff fd 	movb   $0xfd,-0xa40(%rbp)
    f74a:	c6 85 c2 f5 ff ff fd 	movb   $0xfd,-0xa3e(%rbp)
    f751:	c6 85 c4 f5 ff ff 01 	movb   $0x1,-0xa3c(%rbp)
    f758:	c6 85 c6 f5 ff ff 07 	movb   $0x7,-0xa3a(%rbp)
    f75f:	c6 85 c8 f5 ff ff 0f 	movb   $0xf,-0xa38(%rbp)
    f766:	c6 85 ca f5 ff ff 31 	movb   $0x31,-0xa36(%rbp)
    f76d:	c6 85 cc f5 ff ff f6 	movb   $0xf6,-0xa34(%rbp)
    f774:	c6 85 ce f5 ff ff 31 	movb   $0x31,-0xa32(%rbp)
    f77b:	c6 85 d0 f5 ff ff 2a 	movb   $0x2a,-0xa30(%rbp)
    f782:	c6 85 d2 f5 ff ff 3d 	movb   $0x3d,-0xa2e(%rbp)
    f789:	c6 85 d4 f5 ff ff f5 	movb   $0xf5,-0xa2c(%rbp)
    f790:	c6 85 d6 f5 ff ff 01 	movb   $0x1,-0xa2a(%rbp)
    f797:	c6 85 d8 f5 ff ff 01 	movb   $0x1,-0xa28(%rbp)
    f79e:	c6 85 da f5 ff ff f6 	movb   $0xf6,-0xa26(%rbp)
    f7a5:	c6 85 dc f5 ff ff 2a 	movb   $0x2a,-0xa24(%rbp)
    f7ac:	c6 85 de f5 ff ff 07 	movb   $0x7,-0xa22(%rbp)
    f7b3:	c6 85 e0 f5 ff ff fd 	movb   $0xfd,-0xa20(%rbp)
    f7ba:	c6 85 e2 f5 ff ff 31 	movb   $0x31,-0xa1e(%rbp)
    f7c1:	c6 85 e4 f5 ff ff f4 	movb   $0xf4,-0xa1c(%rbp)
    f7c8:	c6 85 e6 f5 ff ff 07 	movb   $0x7,-0xa1a(%rbp)
    f7cf:	c6 85 e8 f5 ff ff 01 	movb   $0x1,-0xa18(%rbp)
    f7d6:	c6 85 ea f5 ff ff 34 	movb   $0x34,-0xa16(%rbp)
    f7dd:	c6 85 ec f5 ff ff fa 	movb   $0xfa,-0xa14(%rbp)
    f7e4:	c6 85 ee f5 ff ff 0f 	movb   $0xf,-0xa12(%rbp)
    f7eb:	48 8d 85 30 f5 ff ff 	lea    -0xad0(%rbp),%rax
    f7f2:	48 83 c0 20          	add    $0x20,%rax
    f7f6:	48 89 85 a8 f2 ff ff 	mov    %rax,-0xd58(%rbp)
    f7fd:	c7 85 08 f2 ff ff 55 	movl   $0xd2720855,-0xdf8(%rbp)
    f804:	08 72 d2 
    f807:	c7 85 0c f2 ff ff ff 	movl   $0xffffffff,-0xdf4(%rbp)
    f80e:	ff ff ff 
    f811:	c7 85 5c f2 ff ff 16 	movl   $0x14c7e216,-0xda4(%rbp)
    f818:	e2 c7 14 
    f81b:	c6 85 e1 f1 ff ff 01 	movb   $0x1,-0xe1f(%rbp)
    f822:	c6 85 b8 f3 ff ff 2b 	movb   $0x2b,-0xc48(%rbp)
    f829:	c7 85 bc f3 ff ff 00 	movl   $0x0,-0xc44(%rbp)
    f830:	00 00 00 
    f833:	48 b8 fe fe fe fe fe 	movabs $0xfefefefefefefefe,%rax
    f83a:	fe fe fe 
    f83d:	48 89 45 bf          	mov    %rax,-0x41(%rbp)
    f841:	c6 45 c7 fe          	movb   $0xfe,-0x39(%rbp)
    f845:	c7 85 20 f2 ff ff 00 	movl   $0x0,-0xde0(%rbp)
    f84c:	00 00 00 
    f84f:	eb 1a                	jmp    f86b <func_51+0x9fb>
    f851:	8b 85 20 f2 ff ff    	mov    -0xde0(%rbp),%eax
    f857:	48 98                	cltq   
    f859:	c7 84 85 cc f3 ff ff 	movl   $0xfffffffe,-0xc34(%rbp,%rax,4)
    f860:	fe ff ff ff 
    f864:	83 85 20 f2 ff ff 01 	addl   $0x1,-0xde0(%rbp)
    f86b:	83 bd 20 f2 ff ff 01 	cmpl   $0x1,-0xde0(%rbp)
    f872:	7e dd                	jle    f851 <func_51+0x9e1>
    f874:	48 8b 85 d8 f4 ff ff 	mov    -0xb28(%rbp),%rax
    f87b:	48 89 85 28 f4 ff ff 	mov    %rax,-0xbd8(%rbp)
    f882:	c7 05 e8 77 00 00 00 	movl   $0x0,0x77e8(%rip)        # 17074 <g_87>
    f889:	00 00 00 
    f88c:	90                   	nop
    f88d:	8b 05 e1 77 00 00    	mov    0x77e1(%rip),%eax        # 17074 <g_87>
    f893:	85 c0                	test   %eax,%eax
    f895:	78 0c                	js     f8a3 <func_51+0xa33>
    f897:	0f b7 85 50 f5 ff ff 	movzwl -0xab0(%rbp),%eax
    f89e:	e9 ce 14 00 00       	jmpq   10d71 <func_51+0x1f01>
    f8a3:	0f b6 85 cc f1 ff ff 	movzbl -0xe34(%rbp),%eax
    f8aa:	0f be d0             	movsbl %al,%edx
    f8ad:	8b 05 7d 77 00 00    	mov    0x777d(%rip),%eax        # 17030 <g_8>
    f8b3:	39 c2                	cmp    %eax,%edx
    f8b5:	0f 9d c0             	setge  %al
    f8b8:	0f b6 c0             	movzbl %al,%eax
    f8bb:	48 98                	cltq   
    f8bd:	48 ba c9 b6 1f b3 0a 	movabs $0x8111800ab31fb6c9,%rdx
    f8c4:	80 11 81 
    f8c7:	48 21 c2             	and    %rax,%rdx
    f8ca:	48 8b 85 e8 f2 ff ff 	mov    -0xd18(%rbp),%rax
    f8d1:	8b 00                	mov    (%rax),%eax
    f8d3:	48 98                	cltq   
    f8d5:	48 39 c2             	cmp    %rax,%rdx
    f8d8:	0f 95 c0             	setne  %al
    f8db:	0f b6 d0             	movzbl %al,%edx
    f8de:	48 8b 85 a8 f2 ff ff 	mov    -0xd58(%rbp),%rax
    f8e5:	8b 8d d8 f1 ff ff    	mov    -0xe28(%rbp),%ecx
    f8eb:	66 89 08             	mov    %cx,(%rax)
    f8ee:	0f b7 00             	movzwl (%rax),%eax
    f8f1:	0f b7 c0             	movzwl %ax,%eax
    f8f4:	89 d6                	mov    %edx,%esi
    f8f6:	89 c7                	mov    %eax,%edi
    f8f8:	e8 40 64 ff ff       	callq  5d3d <safe_mul_func_uint16_t_u_u>
    f8fd:	0f b7 d0             	movzwl %ax,%edx
    f900:	0f b6 85 dc f1 ff ff 	movzbl -0xe24(%rbp),%eax
    f907:	0f b6 c0             	movzbl %al,%eax
    f90a:	89 d6                	mov    %edx,%esi
    f90c:	89 c7                	mov    %eax,%edi
    f90e:	e8 ec 5d ff ff       	callq  56ff <safe_div_func_int32_t_s_s>
    f913:	0f b7 05 44 77 00 00 	movzwl 0x7744(%rip),%eax        # 1705e <g_81>
    f91a:	0f bf d0             	movswl %ax,%edx
    f91d:	48 8b 85 a0 f2 ff ff 	mov    -0xd60(%rbp),%rax
    f924:	8b 00                	mov    (%rax),%eax
    f926:	39 c2                	cmp    %eax,%edx
    f928:	0f 9c c0             	setl   %al
    f92b:	0f b6 d0             	movzbl %al,%edx
    f92e:	48 8b 85 a0 f2 ff ff 	mov    -0xd60(%rbp),%rax
    f935:	8b 00                	mov    (%rax),%eax
    f937:	f7 d0                	not    %eax
    f939:	0f be c0             	movsbl %al,%eax
    f93c:	89 d6                	mov    %edx,%esi
    f93e:	89 c7                	mov    %eax,%edi
    f940:	e8 8f 58 ff ff       	callq  51d4 <safe_add_func_int8_t_s_s>
    f945:	0f be c0             	movsbl %al,%eax
    f948:	be 00 00 00 00       	mov    $0x0,%esi
    f94d:	89 c7                	mov    %eax,%edi
    f94f:	e8 62 5c ff ff       	callq  55b6 <safe_add_func_int32_t_s_s>
    f954:	0f b7 c0             	movzwl %ax,%eax
    f957:	be 0b 00 00 00       	mov    $0xb,%esi
    f95c:	89 c7                	mov    %eax,%edi
    f95e:	e8 e5 64 ff ff       	callq  5e48 <safe_rshift_func_uint16_t_u_s>
    f963:	0f b7 d0             	movzwl %ax,%edx
    f966:	8b 05 b8 76 00 00    	mov    0x76b8(%rip),%eax        # 17024 <g_2>
    f96c:	39 c2                	cmp    %eax,%edx
    f96e:	75 0b                	jne    f97b <func_51+0xb0b>
    f970:	0f b6 05 01 77 00 00 	movzbl 0x7701(%rip),%eax        # 17078 <g_92>
    f977:	84 c0                	test   %al,%al
    f979:	74 07                	je     f982 <func_51+0xb12>
    f97b:	b8 01 00 00 00       	mov    $0x1,%eax
    f980:	eb 05                	jmp    f987 <func_51+0xb17>
    f982:	b8 00 00 00 00       	mov    $0x0,%eax
    f987:	0f be d0             	movsbl %al,%edx
    f98a:	0f b6 85 cc f1 ff ff 	movzbl -0xe34(%rbp),%eax
    f991:	0f be c0             	movsbl %al,%eax
    f994:	89 d6                	mov    %edx,%esi
    f996:	89 c7                	mov    %eax,%edi
    f998:	e8 37 58 ff ff       	callq  51d4 <safe_add_func_int8_t_s_s>
    f99d:	84 c0                	test   %al,%al
    f99f:	0f 84 5d 02 00 00    	je     fc02 <func_51+0xd92>
    f9a5:	c7 85 10 f2 ff ff 08 	movl   $0x8,-0xdf0(%rbp)
    f9ac:	00 00 00 
    f9af:	c7 85 64 f2 ff ff 00 	movl   $0x0,-0xd9c(%rbp)
    f9b6:	00 00 00 
    f9b9:	c7 85 68 f2 ff ff 02 	movl   $0x2,-0xd98(%rbp)
    f9c0:	00 00 00 
    f9c3:	8b 85 10 f2 ff ff    	mov    -0xdf0(%rbp),%eax
    f9c9:	83 f8 01             	cmp    $0x1,%eax
    f9cc:	0f 95 c0             	setne  %al
    f9cf:	0f b6 c0             	movzbl %al,%eax
    f9d2:	89 85 08 f2 ff ff    	mov    %eax,-0xdf8(%rbp)
    f9d8:	8b 95 08 f2 ff ff    	mov    -0xdf8(%rbp),%edx
    f9de:	48 8b 85 e8 f2 ff ff 	mov    -0xd18(%rbp),%rax
    f9e5:	89 10                	mov    %edx,(%rax)
    f9e7:	48 8d 85 10 f2 ff ff 	lea    -0xdf0(%rbp),%rax
    f9ee:	48 89 85 38 f3 ff ff 	mov    %rax,-0xcc8(%rbp)
    f9f5:	48 8d 85 10 f2 ff ff 	lea    -0xdf0(%rbp),%rax
    f9fc:	48 89 85 40 f3 ff ff 	mov    %rax,-0xcc0(%rbp)
    fa03:	48 8d 05 6a 76 00 00 	lea    0x766a(%rip),%rax        # 17074 <g_87>
    fa0a:	48 89 85 48 f3 ff ff 	mov    %rax,-0xcb8(%rbp)
    fa11:	48 8d 85 10 f2 ff ff 	lea    -0xdf0(%rbp),%rax
    fa18:	48 89 85 50 f3 ff ff 	mov    %rax,-0xcb0(%rbp)
    fa1f:	66 c7 85 40 f4 ff ff 	movw   $0x1,-0xbc0(%rbp)
    fa26:	01 00 
    fa28:	66 c7 85 42 f4 ff ff 	movw   $0x226c,-0xbbe(%rbp)
    fa2f:	6c 22 
    fa31:	66 c7 85 44 f4 ff ff 	movw   $0xfff6,-0xbbc(%rbp)
    fa38:	f6 ff 
    fa3a:	66 c7 85 46 f4 ff ff 	movw   $0xfff6,-0xbba(%rbp)
    fa41:	f6 ff 
    fa43:	66 c7 85 48 f4 ff ff 	movw   $0xfff6,-0xbb8(%rbp)
    fa4a:	f6 ff 
    fa4c:	66 c7 85 4a f4 ff ff 	movw   $0x226c,-0xbb6(%rbp)
    fa53:	6c 22 
    fa55:	66 c7 85 4c f4 ff ff 	movw   $0x1,-0xbb4(%rbp)
    fa5c:	01 00 
    fa5e:	66 c7 85 4e f4 ff ff 	movw   $0x0,-0xbb2(%rbp)
    fa65:	00 00 
    fa67:	66 c7 85 50 f4 ff ff 	movw   $0x226c,-0xbb0(%rbp)
    fa6e:	6c 22 
    fa70:	66 c7 85 52 f4 ff ff 	movw   $0x0,-0xbae(%rbp)
    fa77:	00 00 
    fa79:	66 c7 85 54 f4 ff ff 	movw   $0x1,-0xbac(%rbp)
    fa80:	01 00 
    fa82:	66 c7 85 56 f4 ff ff 	movw   $0x226c,-0xbaa(%rbp)
    fa89:	6c 22 
    fa8b:	66 c7 85 58 f4 ff ff 	movw   $0xfff6,-0xba8(%rbp)
    fa92:	f6 ff 
    fa94:	66 c7 85 5a f4 ff ff 	movw   $0xfff6,-0xba6(%rbp)
    fa9b:	f6 ff 
    fa9d:	66 c7 85 5c f4 ff ff 	movw   $0xfff6,-0xba4(%rbp)
    faa4:	f6 ff 
    faa6:	66 c7 85 5e f4 ff ff 	movw   $0x226c,-0xba2(%rbp)
    faad:	6c 22 
    faaf:	66 c7 85 60 f4 ff ff 	movw   $0x1,-0xba0(%rbp)
    fab6:	01 00 
    fab8:	66 c7 85 62 f4 ff ff 	movw   $0x0,-0xb9e(%rbp)
    fabf:	00 00 
    fac1:	66 c7 85 64 f4 ff ff 	movw   $0x226c,-0xb9c(%rbp)
    fac8:	6c 22 
    faca:	66 c7 85 66 f4 ff ff 	movw   $0x0,-0xb9a(%rbp)
    fad1:	00 00 
    fad3:	66 c7 85 68 f4 ff ff 	movw   $0x1,-0xb98(%rbp)
    fada:	01 00 
    fadc:	66 c7 85 6a f4 ff ff 	movw   $0x226c,-0xb96(%rbp)
    fae3:	6c 22 
    fae5:	66 c7 85 6c f4 ff ff 	movw   $0xfff6,-0xb94(%rbp)
    faec:	f6 ff 
    faee:	66 c7 85 6e f4 ff ff 	movw   $0xfff6,-0xb92(%rbp)
    faf5:	f6 ff 
    faf7:	c6 85 c0 f3 ff ff a9 	movb   $0xa9,-0xc40(%rbp)
    fafe:	c7 85 c4 f3 ff ff bb 	movl   $0x53317bb,-0xc3c(%rbp)
    fb05:	17 33 05 
    fb08:	48 c7 85 58 f3 ff ff 	movq   $0x0,-0xca8(%rbp)
    fb0f:	00 00 00 00 
    fb13:	c7 85 24 f2 ff ff 00 	movl   $0x0,-0xddc(%rbp)
    fb1a:	00 00 00 
    fb1d:	eb 6e                	jmp    fb8d <func_51+0xd1d>
    fb1f:	c7 85 28 f2 ff ff 00 	movl   $0x0,-0xdd8(%rbp)
    fb26:	00 00 00 
    fb29:	eb 52                	jmp    fb7d <func_51+0xd0d>
    fb2b:	c7 85 2c f2 ff ff 00 	movl   $0x0,-0xdd4(%rbp)
    fb32:	00 00 00 
    fb35:	eb 36                	jmp    fb6d <func_51+0xcfd>
    fb37:	8b 85 2c f2 ff ff    	mov    -0xdd4(%rbp),%eax
    fb3d:	48 63 c8             	movslq %eax,%rcx
    fb40:	8b 85 28 f2 ff ff    	mov    -0xdd8(%rbp),%eax
    fb46:	48 63 d0             	movslq %eax,%rdx
    fb49:	8b 85 24 f2 ff ff    	mov    -0xddc(%rbp),%eax
    fb4f:	48 98                	cltq   
    fb51:	48 01 ca             	add    %rcx,%rdx
    fb54:	48 01 d0             	add    %rdx,%rax
    fb57:	48 8d 15 16 75 00 00 	lea    0x7516(%rip),%rdx        # 17074 <g_87>
    fb5e:	48 89 94 c5 90 fc ff 	mov    %rdx,-0x370(%rbp,%rax,8)
    fb65:	ff 
    fb66:	83 85 2c f2 ff ff 01 	addl   $0x1,-0xdd4(%rbp)
    fb6d:	83 bd 2c f2 ff ff 00 	cmpl   $0x0,-0xdd4(%rbp)
    fb74:	7e c1                	jle    fb37 <func_51+0xcc7>
    fb76:	83 85 28 f2 ff ff 01 	addl   $0x1,-0xdd8(%rbp)
    fb7d:	83 bd 28 f2 ff ff 00 	cmpl   $0x0,-0xdd8(%rbp)
    fb84:	7e a5                	jle    fb2b <func_51+0xcbb>
    fb86:	83 85 24 f2 ff ff 01 	addl   $0x1,-0xddc(%rbp)
    fb8d:	83 bd 24 f2 ff ff 08 	cmpl   $0x8,-0xddc(%rbp)
    fb94:	7e 89                	jle    fb1f <func_51+0xcaf>
    fb96:	0f b7 85 66 f4 ff ff 	movzwl -0xb9a(%rbp),%eax
    fb9d:	83 c0 01             	add    $0x1,%eax
    fba0:	66 89 85 66 f4 ff ff 	mov    %ax,-0xb9a(%rbp)
    fba7:	48 8b 85 c0 f3 ff ff 	mov    -0xc40(%rbp),%rax
    fbae:	48 89 85 a8 f3 ff ff 	mov    %rax,-0xc58(%rbp)
    fbb5:	48 8b 85 48 f3 ff ff 	mov    -0xcb8(%rbp),%rax
    fbbc:	8b 10                	mov    (%rax),%edx
    fbbe:	0f b7 05 81 74 00 00 	movzwl 0x7481(%rip),%eax        # 17046 <g_61+0x6>
    fbc5:	48 0f bf c0          	movswq %ax,%rax
    fbc9:	48 39 85 d0 f1 ff ff 	cmp    %rax,-0xe30(%rbp)
    fbd0:	0f 9e c0             	setle  %al
    fbd3:	0f b6 c0             	movzbl %al,%eax
    fbd6:	09 c2                	or     %eax,%edx
    fbd8:	48 8b 85 48 f3 ff ff 	mov    -0xcb8(%rbp),%rax
    fbdf:	89 10                	mov    %edx,(%rax)
    fbe1:	8b 85 10 f2 ff ff    	mov    -0xdf0(%rbp),%eax
    fbe7:	85 c0                	test   %eax,%eax
    fbe9:	0f 85 63 11 00 00    	jne    10d52 <func_51+0x1ee2>
    fbef:	48 83 bd d0 f1 ff ff 	cmpq   $0x0,-0xe30(%rbp)
    fbf6:	00 
    fbf7:	0f 84 55 06 00 00    	je     10252 <func_51+0x13e2>
    fbfd:	e9 54 11 00 00       	jmpq   10d56 <func_51+0x1ee6>
    fc02:	48 c7 85 f0 f2 ff ff 	movq   $0x0,-0xd10(%rbp)
    fc09:	00 00 00 00 
    fc0d:	48 8d 85 a8 f2 ff ff 	lea    -0xd58(%rbp),%rax
    fc14:	48 89 85 f8 f2 ff ff 	mov    %rax,-0xd08(%rbp)
    fc1b:	c7 85 60 f2 ff ff ce 	movl   $0xd665b7ce,-0xda0(%rbp)
    fc22:	b7 65 d6 
    fc25:	48 8d 85 80 f2 ff ff 	lea    -0xd80(%rbp),%rax
    fc2c:	48 89 85 00 f3 ff ff 	mov    %rax,-0xd00(%rbp)
    fc33:	48 8b 85 f8 f2 ff ff 	mov    -0xd08(%rbp),%rax
    fc3a:	48 8d 15 27 74 00 00 	lea    0x7427(%rip),%rdx        # 17068 <g_84+0x8>
    fc41:	48 89 10             	mov    %rdx,(%rax)
    fc44:	48 8b 85 f8 f2 ff ff 	mov    -0xd08(%rbp),%rax
    fc4b:	48 8b 10             	mov    (%rax),%rdx
    fc4e:	48 8b 85 88 f2 ff ff 	mov    -0xd78(%rbp),%rax
    fc55:	48 39 c2             	cmp    %rax,%rdx
    fc58:	0f 95 c0             	setne  %al
    fc5b:	0f b6 d0             	movzbl %al,%edx
    fc5e:	0f b7 05 0b 74 00 00 	movzwl 0x740b(%rip),%eax        # 17070 <g_84+0x10>
    fc65:	0f b7 c0             	movzwl %ax,%eax
    fc68:	09 c2                	or     %eax,%edx
    fc6a:	41 89 d6             	mov    %edx,%r14d
    fc6d:	8b 9d d8 f1 ff ff    	mov    -0xe28(%rbp),%ebx
    fc73:	8b 85 60 f2 ff ff    	mov    -0xda0(%rbp),%eax
    fc79:	48 63 d0             	movslq %eax,%rdx
    fc7c:	0f b7 05 ef 73 00 00 	movzwl 0x73ef(%rip),%eax        # 17072 <g_84+0x12>
    fc83:	0f b7 c0             	movzwl %ax,%eax
    fc86:	48 21 d0             	and    %rdx,%rax
    fc89:	48 89 c2             	mov    %rax,%rdx
    fc8c:	48 b8 82 89 d0 1e 1b 	movabs $0xfdde1f1b1ed08982,%rax
    fc93:	1f de fd 
    fc96:	48 21 c2             	and    %rax,%rdx
    fc99:	48 8b 85 00 f3 ff ff 	mov    -0xd00(%rbp),%rax
    fca0:	48 89 10             	mov    %rdx,(%rax)
    fca3:	48 8b 85 00 f3 ff ff 	mov    -0xd00(%rbp),%rax
    fcaa:	48 8b 00             	mov    (%rax),%rax
    fcad:	48 85 c0             	test   %rax,%rax
    fcb0:	0f 85 85 00 00 00    	jne    fd3b <func_51+0xecb>
    fcb6:	48 8b 85 e8 f2 ff ff 	mov    -0xd18(%rbp),%rax
    fcbd:	44 8b 20             	mov    (%rax),%r12d
    fcc0:	8b 05 66 73 00 00    	mov    0x7366(%rip),%eax        # 1702c <g_7>
    fcc6:	8b 85 d8 f1 ff ff    	mov    -0xe28(%rbp),%eax
    fccc:	44 0f bf e8          	movswl %ax,%r13d
    fcd0:	be d2 00 00 00       	mov    $0xd2,%esi
    fcd5:	bf 01 00 00 00       	mov    $0x1,%edi
    fcda:	e8 b4 5e ff ff       	callq  5b93 <safe_mul_func_uint8_t_u_u>
    fcdf:	0f b6 c0             	movzbl %al,%eax
    fce2:	be 09 00 00 00       	mov    $0x9,%esi
    fce7:	89 c7                	mov    %eax,%edi
    fce9:	e8 8c 61 ff ff       	callq  5e7a <safe_rshift_func_uint16_t_u_u>
    fcee:	66 85 c0             	test   %ax,%ax
    fcf1:	0f 94 c0             	sete   %al
    fcf4:	0f b6 c0             	movzbl %al,%eax
    fcf7:	44 89 ee             	mov    %r13d,%esi
    fcfa:	89 c7                	mov    %eax,%edi
    fcfc:	e8 15 57 ff ff       	callq  5416 <safe_mod_func_int16_t_s_s>
    fd01:	0f b6 85 dc f1 ff ff 	movzbl -0xe24(%rbp),%eax
    fd08:	0f b6 c0             	movzbl %al,%eax
    fd0b:	44 89 e6             	mov    %r12d,%esi
    fd0e:	89 c7                	mov    %eax,%edi
    fd10:	e8 f0 5e ff ff       	callq  5c05 <safe_lshift_func_uint8_t_u_s>
    fd15:	0f b6 c0             	movzbl %al,%eax
    fd18:	39 85 d8 f1 ff ff    	cmp    %eax,-0xe28(%rbp)
    fd1e:	0f 9d c0             	setge  %al
    fd21:	0f b6 c0             	movzbl %al,%eax
    fd24:	23 85 60 f2 ff ff    	and    -0xda0(%rbp),%eax
    fd2a:	89 c2                	mov    %eax,%edx
    fd2c:	48 8b 85 e8 f2 ff ff 	mov    -0xd18(%rbp),%rax
    fd33:	8b 00                	mov    (%rax),%eax
    fd35:	09 d0                	or     %edx,%eax
    fd37:	85 c0                	test   %eax,%eax
    fd39:	74 07                	je     fd42 <func_51+0xed2>
    fd3b:	b8 01 00 00 00       	mov    $0x1,%eax
    fd40:	eb 05                	jmp    fd47 <func_51+0xed7>
    fd42:	b8 00 00 00 00       	mov    $0x0,%eax
    fd47:	0f b7 c0             	movzwl %ax,%eax
    fd4a:	89 de                	mov    %ebx,%esi
    fd4c:	89 c7                	mov    %eax,%edi
    fd4e:	e8 b3 60 ff ff       	callq  5e06 <safe_lshift_func_uint16_t_u_u>
    fd53:	0f b7 c0             	movzwl %ax,%eax
    fd56:	44 09 f0             	or     %r14d,%eax
    fd59:	85 c0                	test   %eax,%eax
    fd5b:	74 0c                	je     fd69 <func_51+0xef9>
    fd5d:	0f b7 85 e2 f1 ff ff 	movzwl -0xe1e(%rbp),%eax
    fd64:	e9 08 10 00 00       	jmpq   10d71 <func_51+0x1f01>
    fd69:	48 8d 05 ee 72 00 00 	lea    0x72ee(%rip),%rax        # 1705e <g_81>
    fd70:	48 89 85 08 f3 ff ff 	mov    %rax,-0xcf8(%rbp)
    fd77:	48 8d 85 e1 f1 ff ff 	lea    -0xe1f(%rbp),%rax
    fd7e:	48 89 85 10 f3 ff ff 	mov    %rax,-0xcf0(%rbp)
    fd85:	48 8d 85 f0 f4 ff ff 	lea    -0xb10(%rbp),%rax
    fd8c:	48 83 c0 04          	add    $0x4,%rax
    fd90:	48 89 85 18 f3 ff ff 	mov    %rax,-0xce8(%rbp)
    fd97:	48 8d 85 90 f2 ff ff 	lea    -0xd70(%rbp),%rax
    fd9e:	48 89 85 20 f3 ff ff 	mov    %rax,-0xce0(%rbp)
    fda5:	48 8d 95 90 fc ff ff 	lea    -0x370(%rbp),%rdx
    fdac:	b8 00 00 00 00       	mov    $0x0,%eax
    fdb1:	b9 23 00 00 00       	mov    $0x23,%ecx
    fdb6:	48 89 d7             	mov    %rdx,%rdi
    fdb9:	f3 48 ab             	rep stos %rax,%es:(%rdi)
    fdbc:	c7 85 90 fc ff ff 03 	movl   $0x3,-0x370(%rbp)
    fdc3:	00 00 00 
    fdc6:	c7 85 98 fc ff ff 88 	movl   $0x74766c88,-0x368(%rbp)
    fdcd:	6c 76 74 
    fdd0:	c7 85 a0 fc ff ff f6 	movl   $0xfffffff6,-0x360(%rbp)
    fdd7:	ff ff ff 
    fdda:	c7 85 a8 fc ff ff 88 	movl   $0x74766c88,-0x358(%rbp)
    fde1:	6c 76 74 
    fde4:	c7 85 b0 fc ff ff 03 	movl   $0x3,-0x350(%rbp)
    fdeb:	00 00 00 
    fdee:	c7 85 b8 fc ff ff 05 	movl   $0x5,-0x348(%rbp)
    fdf5:	00 00 00 
    fdf8:	c7 85 c0 fc ff ff 01 	movl   $0x1,-0x340(%rbp)
    fdff:	00 00 00 
    fe02:	c7 85 c8 fc ff ff 0f 	movl   $0xd959810f,-0x338(%rbp)
    fe09:	81 59 d9 
    fe0c:	c7 85 d0 fc ff ff 01 	movl   $0x1,-0x330(%rbp)
    fe13:	00 00 00 
    fe16:	c7 85 d8 fc ff ff 05 	movl   $0x5,-0x328(%rbp)
    fe1d:	00 00 00 
    fe20:	c7 85 e0 fc ff ff 03 	movl   $0x3,-0x320(%rbp)
    fe27:	00 00 00 
    fe2a:	c7 85 e8 fc ff ff 88 	movl   $0x74766c88,-0x318(%rbp)
    fe31:	6c 76 74 
    fe34:	c7 85 f0 fc ff ff f6 	movl   $0xfffffff6,-0x310(%rbp)
    fe3b:	ff ff ff 
    fe3e:	c7 85 f8 fc ff ff 88 	movl   $0x74766c88,-0x308(%rbp)
    fe45:	6c 76 74 
    fe48:	c7 85 00 fd ff ff 03 	movl   $0x3,-0x300(%rbp)
    fe4f:	00 00 00 
    fe52:	c7 85 08 fd ff ff 05 	movl   $0x5,-0x2f8(%rbp)
    fe59:	00 00 00 
    fe5c:	c7 85 10 fd ff ff 01 	movl   $0x1,-0x2f0(%rbp)
    fe63:	00 00 00 
    fe66:	c7 85 18 fd ff ff 0f 	movl   $0xd959810f,-0x2e8(%rbp)
    fe6d:	81 59 d9 
    fe70:	c7 85 20 fd ff ff fb 	movl   $0xfffffffb,-0x2e0(%rbp)
    fe77:	ff ff ff 
    fe7a:	c7 85 28 fd ff ff 01 	movl   $0x1,-0x2d8(%rbp)
    fe81:	00 00 00 
    fe84:	c7 85 30 fd ff ff 88 	movl   $0x74766c88,-0x2d0(%rbp)
    fe8b:	6c 76 74 
    fe8e:	c7 85 38 fd ff ff f9 	movl   $0xfffffff9,-0x2c8(%rbp)
    fe95:	ff ff ff 
    fe98:	c7 85 40 fd ff ff 43 	movl   $0x5de73643,-0x2c0(%rbp)
    fe9f:	36 e7 5d 
    fea2:	c7 85 48 fd ff ff f9 	movl   $0xfffffff9,-0x2b8(%rbp)
    fea9:	ff ff ff 
    feac:	c7 85 50 fd ff ff 88 	movl   $0x74766c88,-0x2b0(%rbp)
    feb3:	6c 76 74 
    feb6:	c7 85 58 fd ff ff 01 	movl   $0x1,-0x2a8(%rbp)
    febd:	00 00 00 
    fec0:	c7 85 60 fd ff ff fb 	movl   $0xfffffffb,-0x2a0(%rbp)
    fec7:	ff ff ff 
    feca:	c7 85 68 fd ff ff 63 	movl   $0x7b0a8863,-0x298(%rbp)
    fed1:	88 0a 7b 
    fed4:	c7 85 70 fd ff ff fb 	movl   $0xfffffffb,-0x290(%rbp)
    fedb:	ff ff ff 
    fede:	c7 85 78 fd ff ff 01 	movl   $0x1,-0x288(%rbp)
    fee5:	00 00 00 
    fee8:	c7 85 80 fd ff ff 88 	movl   $0x74766c88,-0x280(%rbp)
    feef:	6c 76 74 
    fef2:	c7 85 88 fd ff ff f9 	movl   $0xfffffff9,-0x278(%rbp)
    fef9:	ff ff ff 
    fefc:	c7 85 90 fd ff ff 43 	movl   $0x5de73643,-0x270(%rbp)
    ff03:	36 e7 5d 
    ff06:	c7 85 98 fd ff ff f9 	movl   $0xfffffff9,-0x268(%rbp)
    ff0d:	ff ff ff 
    ff10:	c7 85 a0 fd ff ff 88 	movl   $0x74766c88,-0x260(%rbp)
    ff17:	6c 76 74 
    ff1a:	48 8d 05 ff 71 00 00 	lea    0x71ff(%rip),%rax        # 17120 <g_226+0x20>
    ff21:	48 89 85 28 f3 ff ff 	mov    %rax,-0xcd8(%rbp)
    ff28:	48 c7 85 30 f3 ff ff 	movq   $0x0,-0xcd0(%rbp)
    ff2f:	00 00 00 00 
    ff33:	48 8b 85 d0 f1 ff ff 	mov    -0xe30(%rbp),%rax
    ff3a:	0f be c0             	movsbl %al,%eax
    ff3d:	89 c6                	mov    %eax,%esi
    ff3f:	bf 01 00 00 00       	mov    $0x1,%edi
    ff44:	e8 c9 52 ff ff       	callq  5212 <safe_mul_func_int8_t_s_s>
    ff49:	0f be d0             	movsbl %al,%edx
    ff4c:	48 8b 85 d0 f1 ff ff 	mov    -0xe30(%rbp),%rax
    ff53:	89 c1                	mov    %eax,%ecx
    ff55:	48 8b 85 10 f3 ff ff 	mov    -0xcf0(%rbp),%rax
    ff5c:	88 08                	mov    %cl,(%rax)
    ff5e:	48 8b 85 10 f3 ff ff 	mov    -0xcf0(%rbp),%rax
    ff65:	0f b6 00             	movzbl (%rax),%eax
    ff68:	83 c8 01             	or     $0x1,%eax
    ff6b:	0f be c0             	movsbl %al,%eax
    ff6e:	89 d6                	mov    %edx,%esi
    ff70:	89 c7                	mov    %eax,%edi
    ff72:	e8 7b 52 ff ff       	callq  51f2 <safe_sub_func_int8_t_s_s>
    ff77:	48 8b 85 18 f3 ff ff 	mov    -0xce8(%rbp),%rax
    ff7e:	c7 00 01 00 00 00    	movl   $0x1,(%rax)
    ff84:	83 bd 60 f2 ff ff 00 	cmpl   $0x0,-0xda0(%rbp)
    ff8b:	0f 85 c4 0d 00 00    	jne    10d55 <func_51+0x1ee5>
    ff91:	0f b7 05 be 70 00 00 	movzwl 0x70be(%rip),%eax        # 17056 <g_61+0x16>
    ff98:	48 0f bf d8          	movswq %ax,%rbx
    ff9c:	48 8b 85 88 f2 ff ff 	mov    -0xd78(%rbp),%rax
    ffa3:	0f b7 00             	movzwl (%rax),%eax
    ffa6:	89 c2                	mov    %eax,%edx
    ffa8:	48 83 bd 10 f3 ff ff 	cmpq   $0x0,-0xcf0(%rbp)
    ffaf:	00 
    ffb0:	0f 95 c0             	setne  %al
    ffb3:	0f b6 c0             	movzbl %al,%eax
    ffb6:	31 c2                	xor    %eax,%edx
    ffb8:	48 8b 85 88 f2 ff ff 	mov    -0xd78(%rbp),%rax
    ffbf:	66 89 10             	mov    %dx,(%rax)
    ffc2:	0f b7 00             	movzwl (%rax),%eax
    ffc5:	0f bf d0             	movswl %ax,%edx
    ffc8:	8b 05 5e 70 00 00    	mov    0x705e(%rip),%eax        # 1702c <g_7>
    ffce:	98                   	cwtl   
    ffcf:	89 d6                	mov    %edx,%esi
    ffd1:	89 c7                	mov    %eax,%edi
    ffd3:	e8 3e 54 ff ff       	callq  5416 <safe_mod_func_int16_t_s_s>
    ffd8:	44 0f bf e0          	movswl %ax,%r12d
    ffdc:	44 0f b6 2d 9c 70 00 	movzbl 0x709c(%rip),%r13d        # 17080 <g_136>
    ffe3:	00 
    ffe4:	be 07 00 00 00       	mov    $0x7,%esi
    ffe9:	bf 01 00 00 00       	mov    $0x1,%edi
    ffee:	e8 9a 5c ff ff       	callq  5c8d <safe_rshift_func_uint8_t_u_s>
    fff3:	41 38 c5             	cmp    %al,%r13b
    fff6:	0f 97 c0             	seta   %al
    fff9:	0f b6 c0             	movzbl %al,%eax
    fffc:	44 89 e6             	mov    %r12d,%esi
    ffff:	89 c7                	mov    %eax,%edi
   10001:	e8 f9 56 ff ff       	callq  56ff <safe_div_func_int32_t_s_s>
   10006:	85 c0                	test   %eax,%eax
   10008:	74 37                	je     10041 <func_51+0x11d1>
   1000a:	0f b6 45 c5          	movzbl -0x3b(%rbp),%eax
   1000e:	44 0f b6 e0          	movzbl %al,%r12d
   10012:	0f b7 05 4f 70 00 00 	movzwl 0x704f(%rip),%eax        # 17068 <g_84+0x8>
   10019:	0f b7 c0             	movzwl %ax,%eax
   1001c:	89 c6                	mov    %eax,%esi
   1001e:	bf 01 00 00 00       	mov    $0x1,%edi
   10023:	e8 66 5d ff ff       	callq  5d8e <safe_div_func_uint16_t_u_u>
   10028:	44 89 e6             	mov    %r12d,%esi
   1002b:	bf 00 00 00 00       	mov    $0x0,%edi
   10030:	e8 ca 5c ff ff       	callq  5cff <safe_add_func_uint16_t_u_u>
   10035:	66 85 c0             	test   %ax,%ax
   10038:	74 07                	je     10041 <func_51+0x11d1>
   1003a:	b8 01 00 00 00       	mov    $0x1,%eax
   1003f:	eb 05                	jmp    10046 <func_51+0x11d6>
   10041:	b8 00 00 00 00       	mov    $0x0,%eax
   10046:	48 98                	cltq   
   10048:	48 89 de             	mov    %rbx,%rsi
   1004b:	48 89 c7             	mov    %rax,%rdi
   1004e:	e8 61 59 ff ff       	callq  59b4 <safe_mod_func_int64_t_s_s>
   10053:	0c ec                	or     $0xec,%al
   10055:	48 89 c2             	mov    %rax,%rdx
   10058:	8b 85 0c f2 ff ff    	mov    -0xdf4(%rbp),%eax
   1005e:	48 98                	cltq   
   10060:	48 39 c2             	cmp    %rax,%rdx
   10063:	0f 9e c0             	setle  %al
   10066:	0f b6 d0             	movzbl %al,%edx
   10069:	48 8b 85 e8 f2 ff ff 	mov    -0xd18(%rbp),%rax
   10070:	89 10                	mov    %edx,(%rax)
   10072:	0f b6 85 cc f1 ff ff 	movzbl -0xe34(%rbp),%eax
   10079:	84 c0                	test   %al,%al
   1007b:	0f 85 bf 01 00 00    	jne    10240 <func_51+0x13d0>
   10081:	8b 05 9d 6f 00 00    	mov    0x6f9d(%rip),%eax        # 17024 <g_2>
   10087:	0f be d8             	movsbl %al,%ebx
   1008a:	0f b6 85 dc f1 ff ff 	movzbl -0xe24(%rbp),%eax
   10091:	84 c0                	test   %al,%al
   10093:	0f 85 8b 01 00 00    	jne    10224 <func_51+0x13b4>
   10099:	48 8b 95 90 f2 ff ff 	mov    -0xd70(%rbp),%rdx
   100a0:	48 8b 85 20 f3 ff ff 	mov    -0xce0(%rbp),%rax
   100a7:	48 89 10             	mov    %rdx,(%rax)
   100aa:	48 8b 85 20 f3 ff ff 	mov    -0xce0(%rbp),%rax
   100b1:	48 8b 10             	mov    (%rax),%rdx
   100b4:	48 8d 85 a0 f2 ff ff 	lea    -0xd60(%rbp),%rax
   100bb:	48 39 c2             	cmp    %rax,%rdx
   100be:	0f 95 c0             	setne  %al
   100c1:	44 0f b6 f8          	movzbl %al,%r15d
   100c5:	44 8b 25 58 6f 00 00 	mov    0x6f58(%rip),%r12d        # 17024 <g_2>
   100cc:	8b 85 d8 f1 ff ff    	mov    -0xe28(%rbp),%eax
   100d2:	4c 63 e8             	movslq %eax,%r13
   100d5:	0f b6 05 a4 6f 00 00 	movzbl 0x6fa4(%rip),%eax        # 17080 <g_136>
   100dc:	83 c0 01             	add    $0x1,%eax
   100df:	88 05 9b 6f 00 00    	mov    %al,0x6f9b(%rip)        # 17080 <g_136>
   100e5:	0f b6 05 94 6f 00 00 	movzbl 0x6f94(%rip),%eax        # 17080 <g_136>
   100ec:	0f b6 c0             	movzbl %al,%eax
   100ef:	89 85 c8 f1 ff ff    	mov    %eax,-0xe38(%rbp)
   100f5:	8b 05 89 6f 00 00    	mov    0x6f89(%rip),%eax        # 17084 <g_136+0x4>
   100fb:	44 0f b6 f0          	movzbl %al,%r14d
   100ff:	8b 85 60 f2 ff ff    	mov    -0xda0(%rbp),%eax
   10105:	0f b6 c0             	movzbl %al,%eax
   10108:	be c7 00 00 00       	mov    $0xc7,%esi
   1010d:	89 c7                	mov    %eax,%edi
   1010f:	e8 7f 5a ff ff       	callq  5b93 <safe_mul_func_uint8_t_u_u>
   10114:	44 89 f6             	mov    %r14d,%esi
   10117:	bf 01 00 00 00       	mov    $0x1,%edi
   1011c:	e8 72 5a ff ff       	callq  5b93 <safe_mul_func_uint8_t_u_u>
   10121:	0f b6 d0             	movzbl %al,%edx
   10124:	48 8b 85 28 f3 ff ff 	mov    -0xcd8(%rbp),%rax
   1012b:	48 89 10             	mov    %rdx,(%rax)
   1012e:	48 8b 85 28 f3 ff ff 	mov    -0xcd8(%rbp),%rax
   10135:	48 8b 00             	mov    (%rax),%rax
   10138:	48 ba 2c d5 79 c7 1a 	movabs $0x3f40911ac779d52c,%rdx
   1013f:	91 40 3f 
   10142:	48 39 d0             	cmp    %rdx,%rax
   10145:	0f 97 c0             	seta   %al
   10148:	0f b6 c0             	movzbl %al,%eax
   1014b:	89 85 98 f2 ff ff    	mov    %eax,-0xd68(%rbp)
   10151:	8b 95 98 f2 ff ff    	mov    -0xd68(%rbp),%edx
   10157:	0f b7 05 14 6f 00 00 	movzwl 0x6f14(%rip),%eax        # 17072 <g_84+0x12>
   1015e:	0f b7 c0             	movzwl %ax,%eax
   10161:	39 c2                	cmp    %eax,%edx
   10163:	0f 9c c0             	setl   %al
   10166:	0f b6 c0             	movzbl %al,%eax
   10169:	39 85 c8 f1 ff ff    	cmp    %eax,-0xe38(%rbp)
   1016f:	0f 9d c0             	setge  %al
   10172:	0f b6 c0             	movzbl %al,%eax
   10175:	8b 95 60 f2 ff ff    	mov    -0xda0(%rbp),%edx
   1017b:	31 d0                	xor    %edx,%eax
   1017d:	66 89 05 bc 6f 00 00 	mov    %ax,0x6fbc(%rip)        # 17140 <g_228>
   10184:	0f b7 05 b5 6f 00 00 	movzwl 0x6fb5(%rip),%eax        # 17140 <g_228>
   1018b:	66 85 c0             	test   %ax,%ax
   1018e:	74 13                	je     101a3 <func_51+0x1333>
   10190:	0f b7 05 a9 6f 00 00 	movzwl 0x6fa9(%rip),%eax        # 17140 <g_228>
   10197:	66 85 c0             	test   %ax,%ax
   1019a:	74 07                	je     101a3 <func_51+0x1333>
   1019c:	b8 01 00 00 00       	mov    $0x1,%eax
   101a1:	eb 05                	jmp    101a8 <func_51+0x1338>
   101a3:	b8 00 00 00 00       	mov    $0x0,%eax
   101a8:	48 98                	cltq   
   101aa:	48 39 85 d0 f1 ff ff 	cmp    %rax,-0xe30(%rbp)
   101b1:	0f 9f c0             	setg   %al
   101b4:	0f b6 d0             	movzbl %al,%edx
   101b7:	0f b6 05 12 6f 00 00 	movzbl 0x6f12(%rip),%eax        # 170d0 <g_186+0x30>
   101be:	0f b6 c0             	movzbl %al,%eax
   101c1:	39 c2                	cmp    %eax,%edx
   101c3:	0f 9f c0             	setg   %al
   101c6:	0f b6 c0             	movzbl %al,%eax
   101c9:	4c 89 ee             	mov    %r13,%rsi
   101cc:	48 89 c7             	mov    %rax,%rdi
   101cf:	e8 6d 56 ff ff       	callq  5841 <safe_add_func_int64_t_s_s>
   101d4:	98                   	cwtl   
   101d5:	44 89 e6             	mov    %r12d,%esi
   101d8:	89 c7                	mov    %eax,%edi
   101da:	e8 4b 53 ff ff       	callq  552a <safe_rshift_func_int16_t_s_s>
   101df:	48 8b 85 e8 f2 ff ff 	mov    -0xd18(%rbp),%rax
   101e6:	8b 00                	mov    (%rax),%eax
   101e8:	44 89 fa             	mov    %r15d,%edx
   101eb:	09 c2                	or     %eax,%edx
   101ed:	48 8b 85 e8 f2 ff ff 	mov    -0xd18(%rbp),%rax
   101f4:	89 10                	mov    %edx,(%rax)
   101f6:	48 8b 85 e8 f2 ff ff 	mov    -0xd18(%rbp),%rax
   101fd:	8b 00                	mov    (%rax),%eax
   101ff:	66 25 fe fc          	and    $0xfcfe,%ax
   10203:	98                   	cwtl   
   10204:	be ff ff ff ff       	mov    $0xffffffff,%esi
   10209:	89 c7                	mov    %eax,%edi
   1020b:	e8 a3 51 ff ff       	callq  53b3 <safe_add_func_int16_t_s_s>
   10210:	0f b7 c0             	movzwl %ax,%eax
   10213:	be fc ff 00 00       	mov    $0xfffc,%esi
   10218:	89 c7                	mov    %eax,%edi
   1021a:	e8 e0 5a ff ff       	callq  5cff <safe_add_func_uint16_t_u_u>
   1021f:	66 85 c0             	test   %ax,%ax
   10222:	74 07                	je     1022b <func_51+0x13bb>
   10224:	b8 01 00 00 00       	mov    $0x1,%eax
   10229:	eb 05                	jmp    10230 <func_51+0x13c0>
   1022b:	b8 00 00 00 00       	mov    $0x0,%eax
   10230:	0f be c0             	movsbl %al,%eax
   10233:	89 de                	mov    %ebx,%esi
   10235:	89 c7                	mov    %eax,%edi
   10237:	e8 f5 4f ff ff       	callq  5231 <safe_mod_func_int8_t_s_s>
   1023c:	84 c0                	test   %al,%al
   1023e:	74 07                	je     10247 <func_51+0x13d7>
   10240:	b8 01 00 00 00       	mov    $0x1,%eax
   10245:	eb 05                	jmp    1024c <func_51+0x13dc>
   10247:	b8 00 00 00 00       	mov    $0x0,%eax
   1024c:	89 85 5c f2 ff ff    	mov    %eax,-0xda4(%rbp)
   10252:	48 c7 85 d0 f1 ff ff 	movq   $0x0,-0xe30(%rbp)
   10259:	00 00 00 00 
   1025d:	e9 67 08 00 00       	jmpq   10ac9 <func_51+0x1c59>
   10262:	48 8d 85 f0 f6 ff ff 	lea    -0x910(%rbp),%rax
   10269:	48 05 3c 02 00 00    	add    $0x23c,%rax
   1026f:	48 89 85 80 f3 ff ff 	mov    %rax,-0xc80(%rbp)
   10276:	c7 85 30 f2 ff ff ba 	movl   $0x22f6d8ba,-0xdd0(%rbp)
   1027d:	d8 f6 22 
   10280:	c7 85 70 f2 ff ff 09 	movl   $0x9,-0xd90(%rbp)
   10287:	00 00 00 
   1028a:	c7 85 74 f2 ff ff 05 	movl   $0x5,-0xd8c(%rbp)
   10291:	00 00 00 
   10294:	66 c7 85 e4 f1 ff ff 	movw   $0xf773,-0xe1c(%rbp)
   1029b:	73 f7 
   1029d:	c7 85 34 f2 ff ff 00 	movl   $0x0,-0xdcc(%rbp)
   102a4:	00 00 00 
   102a7:	eb 1a                	jmp    102c3 <func_51+0x1453>
   102a9:	8b 85 34 f2 ff ff    	mov    -0xdcc(%rbp),%eax
   102af:	48 98                	cltq   
   102b1:	c7 84 85 40 f4 ff ff 	movl   $0xe6685201,-0xbc0(%rbp,%rax,4)
   102b8:	01 52 68 e6 
   102bc:	83 85 34 f2 ff ff 01 	addl   $0x1,-0xdcc(%rbp)
   102c3:	83 bd 34 f2 ff ff 04 	cmpl   $0x4,-0xdcc(%rbp)
   102ca:	7e dd                	jle    102a9 <func_51+0x1439>
   102cc:	48 8b 85 d0 f1 ff ff 	mov    -0xe30(%rbp),%rax
   102d3:	48 8d 50 01          	lea    0x1(%rax),%rdx
   102d7:	8b 85 d8 f1 ff ff    	mov    -0xe28(%rbp),%eax
   102dd:	83 c0 01             	add    $0x1,%eax
   102e0:	48 63 c8             	movslq %eax,%rcx
   102e3:	48 89 d0             	mov    %rdx,%rax
   102e6:	48 c1 e0 02          	shl    $0x2,%rax
   102ea:	48 01 d0             	add    %rdx,%rax
   102ed:	48 01 c8             	add    %rcx,%rax
   102f0:	48 8d 14 00          	lea    (%rax,%rax,1),%rdx
   102f4:	48 8d 05 45 6d 00 00 	lea    0x6d45(%rip),%rax        # 17040 <g_61>
   102fb:	0f b7 04 02          	movzwl (%rdx,%rax,1),%eax
   102ff:	66 85 c0             	test   %ax,%ax
   10302:	74 14                	je     10318 <func_51+0x14a8>
   10304:	48 8b 85 08 f6 ff ff 	mov    -0x9f8(%rbp),%rax
   1030b:	48 85 c0             	test   %rax,%rax
   1030e:	74 08                	je     10318 <func_51+0x14a8>
   10310:	41 bd 01 00 00 00    	mov    $0x1,%r13d
   10316:	eb 06                	jmp    1031e <func_51+0x14ae>
   10318:	41 bd 00 00 00 00    	mov    $0x0,%r13d
   1031e:	0f b7 05 47 6d 00 00 	movzwl 0x6d47(%rip),%eax        # 1706c <g_84+0xc>
   10325:	0f bf d8             	movswl %ax,%ebx
   10328:	48 8b 05 31 82 00 00 	mov    0x8231(%rip),%rax        # 18560 <g_242>
   1032f:	48 39 85 d8 f2 ff ff 	cmp    %rax,-0xd28(%rbp)
   10336:	0f 95 c0             	setne  %al
   10339:	0f b6 c0             	movzbl %al,%eax
   1033c:	be 02 00 00 00       	mov    $0x2,%esi
   10341:	89 c7                	mov    %eax,%edi
   10343:	e8 04 59 ff ff       	callq  5c4c <safe_lshift_func_uint8_t_u_u>
   10348:	0f b6 c0             	movzbl %al,%eax
   1034b:	66 0b 85 e8 f1 ff ff 	or     -0xe18(%rbp),%ax
   10352:	66 89 05 05 6d 00 00 	mov    %ax,0x6d05(%rip)        # 1705e <g_81>
   10359:	0f b7 05 fe 6c 00 00 	movzwl 0x6cfe(%rip),%eax        # 1705e <g_81>
   10360:	98                   	cwtl   
   10361:	23 85 58 f2 ff ff    	and    -0xda8(%rbp),%eax
   10367:	41 89 c4             	mov    %eax,%r12d
   1036a:	0f b6 05 07 6d 00 00 	movzbl 0x6d07(%rip),%eax        # 17078 <g_92>
   10371:	0f be c0             	movsbl %al,%eax
   10374:	89 c6                	mov    %eax,%esi
   10376:	bf 40 00 00 00       	mov    $0x40,%edi
   1037b:	e8 ea 4e ff ff       	callq  526a <safe_div_func_int8_t_s_s>
   10380:	0f be c0             	movsbl %al,%eax
   10383:	be 00 00 00 00       	mov    $0x0,%esi
   10388:	89 c7                	mov    %eax,%edi
   1038a:	e8 5f 4f ff ff       	callq  52ee <safe_lshift_func_int8_t_s_u>
   1038f:	84 c0                	test   %al,%al
   10391:	75 0b                	jne    1039e <func_51+0x152e>
   10393:	0f b6 85 dc f1 ff ff 	movzbl -0xe24(%rbp),%eax
   1039a:	84 c0                	test   %al,%al
   1039c:	74 07                	je     103a5 <func_51+0x1535>
   1039e:	b8 01 00 00 00       	mov    $0x1,%eax
   103a3:	eb 05                	jmp    103aa <func_51+0x153a>
   103a5:	b8 00 00 00 00       	mov    $0x0,%eax
   103aa:	41 39 c4             	cmp    %eax,%r12d
   103ad:	0f 95 c0             	setne  %al
   103b0:	0f b6 d0             	movzbl %al,%edx
   103b3:	48 8b 85 80 f3 ff ff 	mov    -0xc80(%rbp),%rax
   103ba:	89 10                	mov    %edx,(%rax)
   103bc:	48 8b 85 80 f3 ff ff 	mov    -0xc80(%rbp),%rax
   103c3:	8b 00                	mov    (%rax),%eax
   103c5:	be 01 be 2a 52       	mov    $0x522abe01,%esi
   103ca:	89 c7                	mov    %eax,%edi
   103cc:	e8 2c 5b ff ff       	callq  5efd <safe_mod_func_uint32_t_u_u>
   103d1:	98                   	cwtl   
   103d2:	89 de                	mov    %ebx,%esi
   103d4:	89 c7                	mov    %eax,%edi
   103d6:	e8 1a 50 ff ff       	callq  53f5 <safe_mul_func_int16_t_s_s>
   103db:	ba 01 00 00 00       	mov    $0x1,%edx
   103e0:	8b 05 4a 6c 00 00    	mov    0x6c4a(%rip),%eax        # 17030 <g_8>
   103e6:	39 c2                	cmp    %eax,%edx
   103e8:	0f 95 c0             	setne  %al
   103eb:	0f b6 d8             	movzbl %al,%ebx
   103ee:	8b 05 3c 6c 00 00    	mov    0x6c3c(%rip),%eax        # 17030 <g_8>
   103f4:	f7 d0                	not    %eax
   103f6:	0f be c0             	movsbl %al,%eax
   103f9:	89 c7                	mov    %eax,%edi
   103fb:	e8 bf 4d ff ff       	callq  51bf <safe_unary_minus_func_int8_t_s>
   10400:	66 98                	cbtw   
   10402:	0f b7 c0             	movzwl %ax,%eax
   10405:	89 de                	mov    %ebx,%esi
   10407:	89 c7                	mov    %eax,%edi
   10409:	e8 6c 5a ff ff       	callq  5e7a <safe_rshift_func_uint16_t_u_u>
   1040e:	0f b7 c0             	movzwl %ax,%eax
   10411:	44 09 e8             	or     %r13d,%eax
   10414:	85 c0                	test   %eax,%eax
   10416:	0f 84 00 05 00 00    	je     1091c <func_51+0x1aac>
   1041c:	48 8d 85 f4 f1 ff ff 	lea    -0xe0c(%rbp),%rax
   10423:	48 89 85 88 f3 ff ff 	mov    %rax,-0xc78(%rbp)
   1042a:	48 8d 05 43 6c 00 00 	lea    0x6c43(%rip),%rax        # 17074 <g_87>
   10431:	48 89 85 90 f3 ff ff 	mov    %rax,-0xc70(%rbp)
   10438:	48 8d 85 00 f2 ff ff 	lea    -0xe00(%rbp),%rax
   1043f:	48 89 85 90 fc ff ff 	mov    %rax,-0x370(%rbp)
   10446:	48 c7 85 98 fc ff ff 	movq   $0x0,-0x368(%rbp)
   1044d:	00 00 00 00 
   10451:	48 8d 85 00 f2 ff ff 	lea    -0xe00(%rbp),%rax
   10458:	48 89 85 a0 fc ff ff 	mov    %rax,-0x360(%rbp)
   1045f:	48 c7 85 a8 fc ff ff 	movq   $0x0,-0x358(%rbp)
   10466:	00 00 00 00 
   1046a:	48 8d 85 00 f2 ff ff 	lea    -0xe00(%rbp),%rax
   10471:	48 89 85 b0 fc ff ff 	mov    %rax,-0x350(%rbp)
   10478:	48 c7 85 b8 fc ff ff 	movq   $0x0,-0x348(%rbp)
   1047f:	00 00 00 00 
   10483:	48 8d 85 00 f2 ff ff 	lea    -0xe00(%rbp),%rax
   1048a:	48 89 85 c0 fc ff ff 	mov    %rax,-0x340(%rbp)
   10491:	48 c7 85 c8 fc ff ff 	movq   $0x0,-0x338(%rbp)
   10498:	00 00 00 00 
   1049c:	48 8d 85 00 f2 ff ff 	lea    -0xe00(%rbp),%rax
   104a3:	48 89 85 d0 fc ff ff 	mov    %rax,-0x330(%rbp)
   104aa:	48 c7 85 d8 fc ff ff 	movq   $0x0,-0x328(%rbp)
   104b1:	00 00 00 00 
   104b5:	48 8d 05 68 6b 00 00 	lea    0x6b68(%rip),%rax        # 17024 <g_2>
   104bc:	48 89 85 e0 fc ff ff 	mov    %rax,-0x320(%rbp)
   104c3:	48 c7 85 e8 fc ff ff 	movq   $0x0,-0x318(%rbp)
   104ca:	00 00 00 00 
   104ce:	48 8d 05 4f 6b 00 00 	lea    0x6b4f(%rip),%rax        # 17024 <g_2>
   104d5:	48 89 85 f0 fc ff ff 	mov    %rax,-0x310(%rbp)
   104dc:	48 c7 85 f8 fc ff ff 	movq   $0x0,-0x308(%rbp)
   104e3:	00 00 00 00 
   104e7:	48 8d 05 36 6b 00 00 	lea    0x6b36(%rip),%rax        # 17024 <g_2>
   104ee:	48 89 85 00 fd ff ff 	mov    %rax,-0x300(%rbp)
   104f5:	48 c7 85 08 fd ff ff 	movq   $0x0,-0x2f8(%rbp)
   104fc:	00 00 00 00 
   10500:	48 8d 05 1d 6b 00 00 	lea    0x6b1d(%rip),%rax        # 17024 <g_2>
   10507:	48 89 85 10 fd ff ff 	mov    %rax,-0x2f0(%rbp)
   1050e:	48 c7 85 18 fd ff ff 	movq   $0x0,-0x2e8(%rbp)
   10515:	00 00 00 00 
   10519:	48 8d 05 04 6b 00 00 	lea    0x6b04(%rip),%rax        # 17024 <g_2>
   10520:	48 89 85 20 fd ff ff 	mov    %rax,-0x2e0(%rbp)
   10527:	48 c7 85 28 fd ff ff 	movq   $0x0,-0x2d8(%rbp)
   1052e:	00 00 00 00 
   10532:	48 8d 85 00 f2 ff ff 	lea    -0xe00(%rbp),%rax
   10539:	48 89 85 30 fd ff ff 	mov    %rax,-0x2d0(%rbp)
   10540:	48 c7 85 38 fd ff ff 	movq   $0x0,-0x2c8(%rbp)
   10547:	00 00 00 00 
   1054b:	48 8d 85 00 f2 ff ff 	lea    -0xe00(%rbp),%rax
   10552:	48 89 85 40 fd ff ff 	mov    %rax,-0x2c0(%rbp)
   10559:	48 c7 85 48 fd ff ff 	movq   $0x0,-0x2b8(%rbp)
   10560:	00 00 00 00 
   10564:	48 8d 85 00 f2 ff ff 	lea    -0xe00(%rbp),%rax
   1056b:	48 89 85 50 fd ff ff 	mov    %rax,-0x2b0(%rbp)
   10572:	48 c7 85 58 fd ff ff 	movq   $0x0,-0x2a8(%rbp)
   10579:	00 00 00 00 
   1057d:	48 8d 85 00 f2 ff ff 	lea    -0xe00(%rbp),%rax
   10584:	48 89 85 60 fd ff ff 	mov    %rax,-0x2a0(%rbp)
   1058b:	48 c7 85 68 fd ff ff 	movq   $0x0,-0x298(%rbp)
   10592:	00 00 00 00 
   10596:	48 8d 85 00 f2 ff ff 	lea    -0xe00(%rbp),%rax
   1059d:	48 89 85 70 fd ff ff 	mov    %rax,-0x290(%rbp)
   105a4:	48 c7 85 78 fd ff ff 	movq   $0x0,-0x288(%rbp)
   105ab:	00 00 00 00 
   105af:	48 8d 05 6e 6a 00 00 	lea    0x6a6e(%rip),%rax        # 17024 <g_2>
   105b6:	48 89 85 80 fd ff ff 	mov    %rax,-0x280(%rbp)
   105bd:	48 c7 85 88 fd ff ff 	movq   $0x0,-0x278(%rbp)
   105c4:	00 00 00 00 
   105c8:	48 8d 05 55 6a 00 00 	lea    0x6a55(%rip),%rax        # 17024 <g_2>
   105cf:	48 89 85 90 fd ff ff 	mov    %rax,-0x270(%rbp)
   105d6:	48 c7 85 98 fd ff ff 	movq   $0x0,-0x268(%rbp)
   105dd:	00 00 00 00 
   105e1:	48 8d 05 3c 6a 00 00 	lea    0x6a3c(%rip),%rax        # 17024 <g_2>
   105e8:	48 89 85 a0 fd ff ff 	mov    %rax,-0x260(%rbp)
   105ef:	48 c7 85 a8 fd ff ff 	movq   $0x0,-0x258(%rbp)
   105f6:	00 00 00 00 
   105fa:	48 8d 05 23 6a 00 00 	lea    0x6a23(%rip),%rax        # 17024 <g_2>
   10601:	48 89 85 b0 fd ff ff 	mov    %rax,-0x250(%rbp)
   10608:	48 c7 85 b8 fd ff ff 	movq   $0x0,-0x248(%rbp)
   1060f:	00 00 00 00 
   10613:	48 8d 05 0a 6a 00 00 	lea    0x6a0a(%rip),%rax        # 17024 <g_2>
   1061a:	48 89 85 c0 fd ff ff 	mov    %rax,-0x240(%rbp)
   10621:	48 c7 85 c8 fd ff ff 	movq   $0x0,-0x238(%rbp)
   10628:	00 00 00 00 
   1062c:	48 8d 85 00 f2 ff ff 	lea    -0xe00(%rbp),%rax
   10633:	48 89 85 d0 fd ff ff 	mov    %rax,-0x230(%rbp)
   1063a:	48 c7 85 d8 fd ff ff 	movq   $0x0,-0x228(%rbp)
   10641:	00 00 00 00 
   10645:	48 8d 85 00 f2 ff ff 	lea    -0xe00(%rbp),%rax
   1064c:	48 89 85 e0 fd ff ff 	mov    %rax,-0x220(%rbp)
   10653:	48 c7 85 e8 fd ff ff 	movq   $0x0,-0x218(%rbp)
   1065a:	00 00 00 00 
   1065e:	48 8d 85 00 f2 ff ff 	lea    -0xe00(%rbp),%rax
   10665:	48 89 85 f0 fd ff ff 	mov    %rax,-0x210(%rbp)
   1066c:	48 c7 85 f8 fd ff ff 	movq   $0x0,-0x208(%rbp)
   10673:	00 00 00 00 
   10677:	48 8d 85 00 f2 ff ff 	lea    -0xe00(%rbp),%rax
   1067e:	48 89 85 00 fe ff ff 	mov    %rax,-0x200(%rbp)
   10685:	48 c7 85 08 fe ff ff 	movq   $0x0,-0x1f8(%rbp)
   1068c:	00 00 00 00 
   10690:	48 8d 85 00 f2 ff ff 	lea    -0xe00(%rbp),%rax
   10697:	48 89 85 10 fe ff ff 	mov    %rax,-0x1f0(%rbp)
   1069e:	48 c7 85 18 fe ff ff 	movq   $0x0,-0x1e8(%rbp)
   106a5:	00 00 00 00 
   106a9:	48 8d 05 74 69 00 00 	lea    0x6974(%rip),%rax        # 17024 <g_2>
   106b0:	48 89 85 20 fe ff ff 	mov    %rax,-0x1e0(%rbp)
   106b7:	48 c7 85 28 fe ff ff 	movq   $0x0,-0x1d8(%rbp)
   106be:	00 00 00 00 
   106c2:	48 8d 05 5b 69 00 00 	lea    0x695b(%rip),%rax        # 17024 <g_2>
   106c9:	48 89 85 30 fe ff ff 	mov    %rax,-0x1d0(%rbp)
   106d0:	48 c7 85 38 fe ff ff 	movq   $0x0,-0x1c8(%rbp)
   106d7:	00 00 00 00 
   106db:	48 8d 05 42 69 00 00 	lea    0x6942(%rip),%rax        # 17024 <g_2>
   106e2:	48 89 85 40 fe ff ff 	mov    %rax,-0x1c0(%rbp)
   106e9:	48 c7 85 48 fe ff ff 	movq   $0x0,-0x1b8(%rbp)
   106f0:	00 00 00 00 
   106f4:	48 8d 05 29 69 00 00 	lea    0x6929(%rip),%rax        # 17024 <g_2>
   106fb:	48 89 85 50 fe ff ff 	mov    %rax,-0x1b0(%rbp)
   10702:	48 c7 85 58 fe ff ff 	movq   $0x0,-0x1a8(%rbp)
   10709:	00 00 00 00 
   1070d:	48 8d 05 10 69 00 00 	lea    0x6910(%rip),%rax        # 17024 <g_2>
   10714:	48 89 85 60 fe ff ff 	mov    %rax,-0x1a0(%rbp)
   1071b:	48 c7 85 68 fe ff ff 	movq   $0x0,-0x198(%rbp)
   10722:	00 00 00 00 
   10726:	48 8d 85 00 f2 ff ff 	lea    -0xe00(%rbp),%rax
   1072d:	48 89 85 70 fe ff ff 	mov    %rax,-0x190(%rbp)
   10734:	48 c7 85 78 fe ff ff 	movq   $0x0,-0x188(%rbp)
   1073b:	00 00 00 00 
   1073f:	48 8d 85 00 f2 ff ff 	lea    -0xe00(%rbp),%rax
   10746:	48 89 85 80 fe ff ff 	mov    %rax,-0x180(%rbp)
   1074d:	48 c7 85 88 fe ff ff 	movq   $0x0,-0x178(%rbp)
   10754:	00 00 00 00 
   10758:	48 8d 85 00 f2 ff ff 	lea    -0xe00(%rbp),%rax
   1075f:	48 89 85 90 fe ff ff 	mov    %rax,-0x170(%rbp)
   10766:	48 c7 85 98 fe ff ff 	movq   $0x0,-0x168(%rbp)
   1076d:	00 00 00 00 
   10771:	48 8d 85 00 f2 ff ff 	lea    -0xe00(%rbp),%rax
   10778:	48 89 85 a0 fe ff ff 	mov    %rax,-0x160(%rbp)
   1077f:	48 c7 85 a8 fe ff ff 	movq   $0x0,-0x158(%rbp)
   10786:	00 00 00 00 
   1078a:	48 8d 85 00 f2 ff ff 	lea    -0xe00(%rbp),%rax
   10791:	48 89 85 b0 fe ff ff 	mov    %rax,-0x150(%rbp)
   10798:	48 c7 85 b8 fe ff ff 	movq   $0x0,-0x148(%rbp)
   1079f:	00 00 00 00 
   107a3:	48 8d 05 7a 68 00 00 	lea    0x687a(%rip),%rax        # 17024 <g_2>
   107aa:	48 89 85 c0 fe ff ff 	mov    %rax,-0x140(%rbp)
   107b1:	48 c7 85 c8 fe ff ff 	movq   $0x0,-0x138(%rbp)
   107b8:	00 00 00 00 
   107bc:	48 8d 05 61 68 00 00 	lea    0x6861(%rip),%rax        # 17024 <g_2>
   107c3:	48 89 85 d0 fe ff ff 	mov    %rax,-0x130(%rbp)
   107ca:	48 c7 85 d8 fe ff ff 	movq   $0x0,-0x128(%rbp)
   107d1:	00 00 00 00 
   107d5:	48 8d 05 48 68 00 00 	lea    0x6848(%rip),%rax        # 17024 <g_2>
   107dc:	48 89 85 e0 fe ff ff 	mov    %rax,-0x120(%rbp)
   107e3:	48 c7 85 e8 fe ff ff 	movq   $0x0,-0x118(%rbp)
   107ea:	00 00 00 00 
   107ee:	48 8d 05 2f 68 00 00 	lea    0x682f(%rip),%rax        # 17024 <g_2>
   107f5:	48 89 85 f0 fe ff ff 	mov    %rax,-0x110(%rbp)
   107fc:	48 c7 85 f8 fe ff ff 	movq   $0x0,-0x108(%rbp)
   10803:	00 00 00 00 
   10807:	48 8d 05 16 68 00 00 	lea    0x6816(%rip),%rax        # 17024 <g_2>
   1080e:	48 89 85 00 ff ff ff 	mov    %rax,-0x100(%rbp)
   10815:	48 c7 85 08 ff ff ff 	movq   $0x0,-0xf8(%rbp)
   1081c:	00 00 00 00 
   10820:	48 8d 85 00 f2 ff ff 	lea    -0xe00(%rbp),%rax
   10827:	48 89 85 10 ff ff ff 	mov    %rax,-0xf0(%rbp)
   1082e:	48 c7 85 18 ff ff ff 	movq   $0x0,-0xe8(%rbp)
   10835:	00 00 00 00 
   10839:	48 8d 85 00 f2 ff ff 	lea    -0xe00(%rbp),%rax
   10840:	48 89 85 20 ff ff ff 	mov    %rax,-0xe0(%rbp)
   10847:	48 c7 85 28 ff ff ff 	movq   $0x0,-0xd8(%rbp)
   1084e:	00 00 00 00 
   10852:	48 8d 85 00 f2 ff ff 	lea    -0xe00(%rbp),%rax
   10859:	48 89 85 30 ff ff ff 	mov    %rax,-0xd0(%rbp)
   10860:	48 c7 85 38 ff ff ff 	movq   $0x0,-0xc8(%rbp)
   10867:	00 00 00 00 
   1086b:	48 8d 85 00 f2 ff ff 	lea    -0xe00(%rbp),%rax
   10872:	48 89 85 40 ff ff ff 	mov    %rax,-0xc0(%rbp)
   10879:	48 c7 85 48 ff ff ff 	movq   $0x0,-0xb8(%rbp)
   10880:	00 00 00 00 
   10884:	48 8d 85 00 f2 ff ff 	lea    -0xe00(%rbp),%rax
   1088b:	48 89 85 50 ff ff ff 	mov    %rax,-0xb0(%rbp)
   10892:	48 c7 85 58 ff ff ff 	movq   $0x0,-0xa8(%rbp)
   10899:	00 00 00 00 
   1089d:	48 8d 05 80 67 00 00 	lea    0x6780(%rip),%rax        # 17024 <g_2>
   108a4:	48 89 85 60 ff ff ff 	mov    %rax,-0xa0(%rbp)
   108ab:	48 c7 85 68 ff ff ff 	movq   $0x0,-0x98(%rbp)
   108b2:	00 00 00 00 
   108b6:	48 8d 05 67 67 00 00 	lea    0x6767(%rip),%rax        # 17024 <g_2>
   108bd:	48 89 85 70 ff ff ff 	mov    %rax,-0x90(%rbp)
   108c4:	48 c7 85 78 ff ff ff 	movq   $0x0,-0x88(%rbp)
   108cb:	00 00 00 00 
   108cf:	48 8d 05 4e 67 00 00 	lea    0x674e(%rip),%rax        # 17024 <g_2>
   108d6:	48 89 45 80          	mov    %rax,-0x80(%rbp)
   108da:	48 c7 45 88 00 00 00 	movq   $0x0,-0x78(%rbp)
   108e1:	00 
   108e2:	48 8d 05 3b 67 00 00 	lea    0x673b(%rip),%rax        # 17024 <g_2>
   108e9:	48 89 45 90          	mov    %rax,-0x70(%rbp)
   108ed:	48 c7 45 98 00 00 00 	movq   $0x0,-0x68(%rbp)
   108f4:	00 
   108f5:	48 8d 05 28 67 00 00 	lea    0x6728(%rip),%rax        # 17024 <g_2>
   108fc:	48 89 45 a0          	mov    %rax,-0x60(%rbp)
   10900:	48 c7 45 a8 00 00 00 	movq   $0x0,-0x58(%rbp)
   10907:	00 
   10908:	8b 05 36 68 00 00    	mov    0x6836(%rip),%eax        # 17144 <g_256>
   1090e:	83 c0 01             	add    $0x1,%eax
   10911:	89 05 2d 68 00 00    	mov    %eax,0x682d(%rip)        # 17144 <g_256>
   10917:	e9 53 01 00 00       	jmpq   10a6f <func_51+0x1bff>
   1091c:	c7 85 78 f2 ff ff 00 	movl   $0x0,-0xd88(%rbp)
   10923:	00 00 00 
   10926:	c7 85 7c f2 ff ff 7c 	movl   $0x28e0927c,-0xd84(%rbp)
   1092d:	92 e0 28 
   10930:	c7 85 30 f5 ff ff 7b 	movl   $0x5f7cfa7b,-0xad0(%rbp)
   10937:	fa 7c 5f 
   1093a:	c7 85 34 f5 ff ff 7b 	movl   $0x5f7cfa7b,-0xacc(%rbp)
   10941:	fa 7c 5f 
   10944:	c7 85 38 f5 ff ff 7b 	movl   $0x5f7cfa7b,-0xac8(%rbp)
   1094b:	fa 7c 5f 
   1094e:	c7 85 3c f5 ff ff 7b 	movl   $0x5f7cfa7b,-0xac4(%rbp)
   10955:	fa 7c 5f 
   10958:	c7 85 40 f5 ff ff 7b 	movl   $0x5f7cfa7b,-0xac0(%rbp)
   1095f:	fa 7c 5f 
   10962:	c7 85 44 f5 ff ff 7b 	movl   $0x5f7cfa7b,-0xabc(%rbp)
   10969:	fa 7c 5f 
   1096c:	c7 85 48 f5 ff ff 7b 	movl   $0x5f7cfa7b,-0xab8(%rbp)
   10973:	fa 7c 5f 
   10976:	c7 85 4c f5 ff ff 7b 	movl   $0x5f7cfa7b,-0xab4(%rbp)
   1097d:	fa 7c 5f 
   10980:	c7 85 50 f5 ff ff 7b 	movl   $0x5f7cfa7b,-0xab0(%rbp)
   10987:	fa 7c 5f 
   1098a:	c7 85 f8 f1 ff ff 00 	movl   $0x0,-0xe08(%rbp)
   10991:	00 00 00 
   10994:	e9 c7 00 00 00       	jmpq   10a60 <func_51+0x1bf0>
   10999:	48 8d 85 f4 f1 ff ff 	lea    -0xe0c(%rbp),%rax
   109a0:	48 89 85 90 fc ff ff 	mov    %rax,-0x370(%rbp)
   109a7:	48 8d 85 04 f2 ff ff 	lea    -0xdfc(%rbp),%rax
   109ae:	48 89 85 98 fc ff ff 	mov    %rax,-0x368(%rbp)
   109b5:	48 8d 85 f4 f1 ff ff 	lea    -0xe0c(%rbp),%rax
   109bc:	48 89 85 a0 fc ff ff 	mov    %rax,-0x360(%rbp)
   109c3:	48 8d 85 f4 f1 ff ff 	lea    -0xe0c(%rbp),%rax
   109ca:	48 89 85 a8 fc ff ff 	mov    %rax,-0x358(%rbp)
   109d1:	48 8d 85 04 f2 ff ff 	lea    -0xdfc(%rbp),%rax
   109d8:	48 89 85 b0 fc ff ff 	mov    %rax,-0x350(%rbp)
   109df:	48 8d 85 f4 f1 ff ff 	lea    -0xe0c(%rbp),%rax
   109e6:	48 89 85 b8 fc ff ff 	mov    %rax,-0x348(%rbp)
   109ed:	48 8d 85 f4 f1 ff ff 	lea    -0xe0c(%rbp),%rax
   109f4:	48 89 85 c0 fc ff ff 	mov    %rax,-0x340(%rbp)
   109fb:	48 8d 85 04 f2 ff ff 	lea    -0xdfc(%rbp),%rax
   10a02:	48 89 85 c8 fc ff ff 	mov    %rax,-0x338(%rbp)
   10a09:	48 8d 85 f4 f1 ff ff 	lea    -0xe0c(%rbp),%rax
   10a10:	48 89 85 d0 fc ff ff 	mov    %rax,-0x330(%rbp)
   10a17:	66 c7 85 ea f1 ff ff 	movw   $0x1,-0xe16(%rbp)
   10a1e:	01 00 
   10a20:	0f b7 85 e4 f1 ff ff 	movzwl -0xe1c(%rbp),%eax
   10a27:	83 e8 01             	sub    $0x1,%eax
   10a2a:	66 89 85 e4 f1 ff ff 	mov    %ax,-0xe1c(%rbp)
   10a31:	0f b7 05 20 67 00 00 	movzwl 0x6720(%rip),%eax        # 17158 <g_277+0x8>
   10a38:	83 c0 01             	add    $0x1,%eax
   10a3b:	66 89 05 16 67 00 00 	mov    %ax,0x6716(%rip)        # 17158 <g_277+0x8>
   10a42:	48 8b 85 a0 f2 ff ff 	mov    -0xd60(%rbp),%rax
   10a49:	8b 95 14 f2 ff ff    	mov    -0xdec(%rbp),%edx
   10a4f:	89 10                	mov    %edx,(%rax)
   10a51:	8b 85 f8 f1 ff ff    	mov    -0xe08(%rbp),%eax
   10a57:	83 c0 01             	add    $0x1,%eax
   10a5a:	89 85 f8 f1 ff ff    	mov    %eax,-0xe08(%rbp)
   10a60:	8b 85 f8 f1 ff ff    	mov    -0xe08(%rbp),%eax
   10a66:	83 f8 01             	cmp    $0x1,%eax
   10a69:	0f 8e 2a ff ff ff    	jle    10999 <func_51+0x1b29>
   10a6f:	c7 85 00 f2 ff ff 00 	movl   $0x0,-0xe00(%rbp)
   10a76:	00 00 00 
   10a79:	eb 3b                	jmp    10ab6 <func_51+0x1c46>
   10a7b:	48 8d 05 0e 8d 00 00 	lea    0x8d0e(%rip),%rax        # 19790 <g_78>
   10a82:	48 89 85 98 f3 ff ff 	mov    %rax,-0xc68(%rbp)
   10a89:	81 b5 30 f2 ff ff b5 	xorl   $0xb9e157b5,-0xdd0(%rbp)
   10a90:	57 e1 b9 
   10a93:	48 8b 85 90 f2 ff ff 	mov    -0xd70(%rbp),%rax
   10a9a:	48 8b 10             	mov    (%rax),%rdx
   10a9d:	48 8b 85 98 f3 ff ff 	mov    -0xc68(%rbp),%rax
   10aa4:	48 89 10             	mov    %rdx,(%rax)
   10aa7:	8b 85 00 f2 ff ff    	mov    -0xe00(%rbp),%eax
   10aad:	83 c0 01             	add    $0x1,%eax
   10ab0:	89 85 00 f2 ff ff    	mov    %eax,-0xe00(%rbp)
   10ab6:	8b 85 00 f2 ff ff    	mov    -0xe00(%rbp),%eax
   10abc:	83 f8 01             	cmp    $0x1,%eax
   10abf:	7e ba                	jle    10a7b <func_51+0x1c0b>
   10ac1:	48 83 85 d0 f1 ff ff 	addq   $0x1,-0xe30(%rbp)
   10ac8:	01 
   10ac9:	48 83 bd d0 f1 ff ff 	cmpq   $0x1,-0xe30(%rbp)
   10ad0:	01 
   10ad1:	0f 8e 8b f7 ff ff    	jle    10262 <func_51+0x13f2>
   10ad7:	c7 85 18 f2 ff ff 00 	movl   $0x0,-0xde8(%rbp)
   10ade:	00 00 00 
   10ae1:	e9 be 01 00 00       	jmpq   10ca4 <func_51+0x1e34>
   10ae6:	66 c7 85 c0 f3 ff ff 	movw   $0x0,-0xc40(%rbp)
   10aed:	00 00 
   10aef:	c6 85 c0 f3 ff ff ff 	movb   $0xff,-0xc40(%rbp)
   10af6:	48 8d 85 fc f1 ff ff 	lea    -0xe04(%rbp),%rax
   10afd:	48 89 85 60 f3 ff ff 	mov    %rax,-0xca0(%rbp)
   10b04:	48 c7 85 68 f3 ff ff 	movq   $0x0,-0xc98(%rbp)
   10b0b:	00 00 00 00 
   10b0f:	48 c7 85 70 f3 ff ff 	movq   $0x0,-0xc90(%rbp)
   10b16:	00 00 00 00 
   10b1a:	48 8b 05 3f 66 00 00 	mov    0x663f(%rip),%rax        # 17160 <g_282>
   10b21:	8b 85 18 f2 ff ff    	mov    -0xde8(%rbp),%eax
   10b27:	48 63 c8             	movslq %eax,%rcx
   10b2a:	8b 85 d8 f1 ff ff    	mov    -0xe28(%rbp),%eax
   10b30:	48 63 d0             	movslq %eax,%rdx
   10b33:	48 89 d0             	mov    %rdx,%rax
   10b36:	48 c1 e0 02          	shl    $0x2,%rax
   10b3a:	48 01 d0             	add    %rdx,%rax
   10b3d:	48 01 c8             	add    %rcx,%rax
   10b40:	48 8d 14 00          	lea    (%rax,%rax,1),%rdx
   10b44:	48 8d 05 f5 64 00 00 	lea    0x64f5(%rip),%rax        # 17040 <g_61>
   10b4b:	0f b7 04 02          	movzwl (%rdx,%rax,1),%eax
   10b4f:	44 0f bf e8          	movswl %ax,%r13d
   10b53:	0f b6 85 cc f1 ff ff 	movzbl -0xe34(%rbp),%eax
   10b5a:	0f be d8             	movsbl %al,%ebx
   10b5d:	48 8b 05 c4 65 00 00 	mov    0x65c4(%rip),%rax        # 17128 <g_226+0x28>
   10b64:	41 89 c6             	mov    %eax,%r14d
   10b67:	8b 85 d8 f1 ff ff    	mov    -0xe28(%rbp),%eax
   10b6d:	44 0f b6 e0          	movzbl %al,%r12d
   10b71:	48 8b 85 d8 f4 ff ff 	mov    -0xb28(%rbp),%rax
   10b78:	48 8d 15 c5 65 00 00 	lea    0x65c5(%rip),%rdx        # 17144 <g_256>
   10b7f:	48 39 d0             	cmp    %rdx,%rax
   10b82:	75 78                	jne    10bfc <func_51+0x1d8c>
   10b84:	8b 85 d8 f1 ff ff    	mov    -0xe28(%rbp),%eax
   10b8a:	0f be c0             	movsbl %al,%eax
   10b8d:	89 c6                	mov    %eax,%esi
   10b8f:	bf fa ff ff ff       	mov    $0xfffffffa,%edi
   10b94:	e8 98 46 ff ff       	callq  5231 <safe_mod_func_int8_t_s_s>
   10b99:	84 c0                	test   %al,%al
   10b9b:	75 0d                	jne    10baa <func_51+0x1d3a>
   10b9d:	48 8b 85 a0 f2 ff ff 	mov    -0xd60(%rbp),%rax
   10ba4:	8b 00                	mov    (%rax),%eax
   10ba6:	85 c0                	test   %eax,%eax
   10ba8:	74 13                	je     10bbd <func_51+0x1d4d>
   10baa:	0f b7 05 8f 65 00 00 	movzwl 0x658f(%rip),%eax        # 17140 <g_228>
   10bb1:	66 85 c0             	test   %ax,%ax
   10bb4:	74 07                	je     10bbd <func_51+0x1d4d>
   10bb6:	b8 01 00 00 00       	mov    $0x1,%eax
   10bbb:	eb 05                	jmp    10bc2 <func_51+0x1d52>
   10bbd:	b8 00 00 00 00       	mov    $0x0,%eax
   10bc2:	48 98                	cltq   
   10bc4:	be 01 00 00 00       	mov    $0x1,%esi
   10bc9:	48 89 c7             	mov    %rax,%rdi
   10bcc:	e8 70 4c ff ff       	callq  5841 <safe_add_func_int64_t_s_s>
   10bd1:	0f b6 95 dc f1 ff ff 	movzbl -0xe24(%rbp),%edx
   10bd8:	0f b6 d2             	movzbl %dl,%edx
   10bdb:	48 39 d0             	cmp    %rdx,%rax
   10bde:	0f 9d c0             	setge  %al
   10be1:	0f b6 c0             	movzbl %al,%eax
   10be4:	be 4b d9 00 00       	mov    $0xd94b,%esi
   10be9:	89 c7                	mov    %eax,%edi
   10beb:	e8 9e 51 ff ff       	callq  5d8e <safe_div_func_uint16_t_u_u>
   10bf0:	66 85 c0             	test   %ax,%ax
   10bf3:	74 07                	je     10bfc <func_51+0x1d8c>
   10bf5:	b8 01 00 00 00       	mov    $0x1,%eax
   10bfa:	eb 05                	jmp    10c01 <func_51+0x1d91>
   10bfc:	b8 00 00 00 00       	mov    $0x0,%eax
   10c01:	0f b6 c0             	movzbl %al,%eax
   10c04:	44 89 e6             	mov    %r12d,%esi
   10c07:	89 c7                	mov    %eax,%edi
   10c09:	e8 4c 4f ff ff       	callq  5b5a <safe_add_func_uint8_t_u_u>
   10c0e:	0f be c0             	movsbl %al,%eax
   10c11:	44 89 f6             	mov    %r14d,%esi
   10c14:	89 c7                	mov    %eax,%edi
   10c16:	e8 51 47 ff ff       	callq  536c <safe_rshift_func_int8_t_s_u>
   10c1b:	0f be c0             	movsbl %al,%eax
   10c1e:	be 0b 00 00 00       	mov    $0xb,%esi
   10c23:	89 c7                	mov    %eax,%edi
   10c25:	e8 b7 48 ff ff       	callq  54e1 <safe_lshift_func_int16_t_s_u>
   10c2a:	0f be c0             	movsbl %al,%eax
   10c2d:	89 de                	mov    %ebx,%esi
   10c2f:	89 c7                	mov    %eax,%edi
   10c31:	e8 fb 45 ff ff       	callq  5231 <safe_mod_func_int8_t_s_s>
   10c36:	3c 09                	cmp    $0x9,%al
   10c38:	0f 9f c0             	setg   %al
   10c3b:	0f b6 c0             	movzbl %al,%eax
   10c3e:	41 39 c5             	cmp    %eax,%r13d
   10c41:	0f 9f c0             	setg   %al
   10c44:	0f b6 d0             	movzbl %al,%edx
   10c47:	48 8b 85 60 f3 ff ff 	mov    -0xca0(%rbp),%rax
   10c4e:	8b 00                	mov    (%rax),%eax
   10c50:	31 c2                	xor    %eax,%edx
   10c52:	48 8b 85 60 f3 ff ff 	mov    -0xca0(%rbp),%rax
   10c59:	89 10                	mov    %edx,(%rax)
   10c5b:	c7 85 14 f2 ff ff 00 	movl   $0x0,-0xdec(%rbp)
   10c62:	00 00 00 
   10c65:	eb 2d                	jmp    10c94 <func_51+0x1e24>
   10c67:	48 c7 85 78 f3 ff ff 	movq   $0x0,-0xc88(%rbp)
   10c6e:	00 00 00 00 
   10c72:	c7 85 6c f2 ff ff 3c 	movl   $0xb8c1493c,-0xd94(%rbp)
   10c79:	49 c1 b8 
   10c7c:	48 8b 05 ed 78 00 00 	mov    0x78ed(%rip),%rax        # 18570 <g_301>
   10c83:	48 8b 95 a0 f3 ff ff 	mov    -0xc60(%rbp),%rdx
   10c8a:	48 89 10             	mov    %rdx,(%rax)
   10c8d:	83 85 14 f2 ff ff 01 	addl   $0x1,-0xdec(%rbp)
   10c94:	83 bd 14 f2 ff ff 01 	cmpl   $0x1,-0xdec(%rbp)
   10c9b:	7e ca                	jle    10c67 <func_51+0x1df7>
   10c9d:	83 85 18 f2 ff ff 01 	addl   $0x1,-0xde8(%rbp)
   10ca4:	83 bd 18 f2 ff ff 01 	cmpl   $0x1,-0xde8(%rbp)
   10cab:	0f 8e 35 fe ff ff    	jle    10ae6 <func_51+0x1c76>
   10cb1:	83 85 d8 f1 ff ff 01 	addl   $0x1,-0xe28(%rbp)
   10cb8:	83 bd d8 f1 ff ff 02 	cmpl   $0x2,-0xe28(%rbp)
   10cbf:	0f 8e 64 e6 ff ff    	jle    f329 <func_51+0x4b9>
   10cc5:	e9 8c 00 00 00       	jmpq   10d56 <func_51+0x1ee6>
   10cca:	66 c7 05 a5 63 00 00 	movw   $0x0,0x63a5(%rip)        # 17078 <g_92>
   10cd1:	00 00 
   10cd3:	eb 6e                	jmp    10d43 <func_51+0x1ed3>
   10cd5:	48 c7 85 c0 f3 ff ff 	movq   $0x0,-0xc40(%rbp)
   10cdc:	00 00 00 00 
   10ce0:	48 8d 85 c0 f3 ff ff 	lea    -0xc40(%rbp),%rax
   10ce7:	48 89 85 c8 f2 ff ff 	mov    %rax,-0xd38(%rbp)
   10cee:	48 8d 85 a0 f3 ff ff 	lea    -0xc60(%rbp),%rax
   10cf5:	48 89 85 d0 f2 ff ff 	mov    %rax,-0xd30(%rbp)
   10cfc:	48 8b 85 c8 f2 ff ff 	mov    -0xd38(%rbp),%rax
   10d03:	48 8d 15 c6 74 00 00 	lea    0x74c6(%rip),%rdx        # 181d0 <g_77+0x70>
   10d0a:	48 89 10             	mov    %rdx,(%rax)
   10d0d:	48 8b 85 d0 f2 ff ff 	mov    -0xd30(%rbp),%rax
   10d14:	48 8b 95 a0 f3 ff ff 	mov    -0xc60(%rbp),%rdx
   10d1b:	48 89 10             	mov    %rdx,(%rax)
   10d1e:	48 8b 05 83 78 00 00 	mov    0x7883(%rip),%rax        # 185a8 <g_364>
   10d25:	48 8b 95 d0 f2 ff ff 	mov    -0xd30(%rbp),%rdx
   10d2c:	48 8b 12             	mov    (%rdx),%rdx
   10d2f:	48 89 10             	mov    %rdx,(%rax)
   10d32:	0f b7 05 3f 63 00 00 	movzwl 0x633f(%rip),%eax        # 17078 <g_92>
   10d39:	83 c0 01             	add    $0x1,%eax
   10d3c:	66 89 05 35 63 00 00 	mov    %ax,0x6335(%rip)        # 17078 <g_92>
   10d43:	0f b7 05 2e 63 00 00 	movzwl 0x632e(%rip),%eax        # 17078 <g_92>
   10d4a:	66 83 f8 15          	cmp    $0x15,%ax
   10d4e:	75 85                	jne    10cd5 <func_51+0x1e65>
   10d50:	eb 04                	jmp    10d56 <func_51+0x1ee6>
   10d52:	90                   	nop
   10d53:	eb 01                	jmp    10d56 <func_51+0x1ee6>
   10d55:	90                   	nop
   10d56:	48 8b 85 90 f2 ff ff 	mov    -0xd70(%rbp),%rax
   10d5d:	48 8b 10             	mov    (%rax),%rdx
   10d60:	48 8b 85 c0 f2 ff ff 	mov    -0xd40(%rbp),%rax
   10d67:	48 89 10             	mov    %rdx,(%rax)
   10d6a:	0f b7 05 07 63 00 00 	movzwl 0x6307(%rip),%eax        # 17078 <g_92>
   10d71:	48 8b 5d c8          	mov    -0x38(%rbp),%rbx
   10d75:	64 48 33 1c 25 28 00 	xor    %fs:0x28,%rbx
   10d7c:	00 00 
   10d7e:	74 05                	je     10d85 <func_51+0x1f15>
   10d80:	e8 eb 42 ff ff       	callq  5070 <__stack_chk_fail@plt>
   10d85:	48 81 c4 18 0e 00 00 	add    $0xe18,%rsp
   10d8c:	5b                   	pop    %rbx
   10d8d:	41 5c                	pop    %r12
   10d8f:	41 5d                	pop    %r13
   10d91:	41 5e                	pop    %r14
   10d93:	41 5f                	pop    %r15
   10d95:	5d                   	pop    %rbp
   10d96:	c3                   	retq   

0000000000010d97 <main>:
   10d97:	f3 0f 1e fa          	endbr64 
   10d9b:	55                   	push   %rbp
   10d9c:	48 89 e5             	mov    %rsp,%rbp
   10d9f:	48 83 ec 20          	sub    $0x20,%rsp
   10da3:	89 7d ec             	mov    %edi,-0x14(%rbp)
   10da6:	48 89 75 e0          	mov    %rsi,-0x20(%rbp)
   10daa:	c7 45 fc 00 00 00 00 	movl   $0x0,-0x4(%rbp)
   10db1:	83 7d ec 02          	cmpl   $0x2,-0x14(%rbp)
   10db5:	74 25                	je     10ddc <main+0x45>
   10db7:	48 8b 45 e0          	mov    -0x20(%rbp),%rax
   10dbb:	48 83 c0 08          	add    $0x8,%rax
   10dbf:	48 8b 00             	mov    (%rax),%rax
   10dc2:	48 8d 35 67 37 00 00 	lea    0x3767(%rip),%rsi        # 14530 <g_3098+0x2090>
   10dc9:	48 89 c7             	mov    %rax,%rdi
   10dcc:	e8 bf 42 ff ff       	callq  5090 <strcmp@plt>
   10dd1:	85 c0                	test   %eax,%eax
   10dd3:	74 07                	je     10ddc <main+0x45>
   10dd5:	c7 45 fc 01 00 00 00 	movl   $0x1,-0x4(%rbp)
   10ddc:	e8 a8 43 ff ff       	callq  5189 <platform_main_begin>
   10de1:	e8 b2 57 ff ff       	callq  6598 <crc32_gentab>
   10de6:	e8 ca 59 ff ff       	callq  67b5 <func_1>
   10deb:	8b 05 33 62 00 00    	mov    0x6233(%rip),%eax        # 17024 <g_2>
   10df1:	48 98                	cltq   
   10df3:	8b 55 fc             	mov    -0x4(%rbp),%edx
   10df6:	48 8d 35 35 37 00 00 	lea    0x3735(%rip),%rsi        # 14532 <g_3098+0x2092>
   10dfd:	48 89 c7             	mov    %rax,%rdi
   10e00:	e8 ee 58 ff ff       	callq  66f3 <transparent_crc>
   10e05:	8b 05 1d 62 00 00    	mov    0x621d(%rip),%eax        # 17028 <g_6>
   10e0b:	48 98                	cltq   
   10e0d:	8b 55 fc             	mov    -0x4(%rbp),%edx
   10e10:	48 8d 35 1f 37 00 00 	lea    0x371f(%rip),%rsi        # 14536 <g_3098+0x2096>
   10e17:	48 89 c7             	mov    %rax,%rdi
   10e1a:	e8 d4 58 ff ff       	callq  66f3 <transparent_crc>
   10e1f:	8b 05 07 62 00 00    	mov    0x6207(%rip),%eax        # 1702c <g_7>
   10e25:	48 98                	cltq   
   10e27:	8b 55 fc             	mov    -0x4(%rbp),%edx
   10e2a:	48 8d 35 09 37 00 00 	lea    0x3709(%rip),%rsi        # 1453a <g_3098+0x209a>
   10e31:	48 89 c7             	mov    %rax,%rdi
   10e34:	e8 ba 58 ff ff       	callq  66f3 <transparent_crc>
   10e39:	8b 05 f1 61 00 00    	mov    0x61f1(%rip),%eax        # 17030 <g_8>
   10e3f:	48 98                	cltq   
   10e41:	8b 55 fc             	mov    -0x4(%rbp),%edx
   10e44:	48 8d 35 f3 36 00 00 	lea    0x36f3(%rip),%rsi        # 1453e <g_3098+0x209e>
   10e4b:	48 89 c7             	mov    %rax,%rdi
   10e4e:	e8 a0 58 ff ff       	callq  66f3 <transparent_crc>
   10e53:	c7 45 f0 00 00 00 00 	movl   $0x0,-0x10(%rbp)
   10e5a:	eb 74                	jmp    10ed0 <main+0x139>
   10e5c:	c7 45 f4 00 00 00 00 	movl   $0x0,-0xc(%rbp)
   10e63:	eb 61                	jmp    10ec6 <main+0x12f>
   10e65:	8b 45 f4             	mov    -0xc(%rbp),%eax
   10e68:	48 63 c8             	movslq %eax,%rcx
   10e6b:	8b 45 f0             	mov    -0x10(%rbp),%eax
   10e6e:	48 63 d0             	movslq %eax,%rdx
   10e71:	48 89 d0             	mov    %rdx,%rax
   10e74:	48 c1 e0 02          	shl    $0x2,%rax
   10e78:	48 01 d0             	add    %rdx,%rax
   10e7b:	48 01 c8             	add    %rcx,%rax
   10e7e:	48 8d 14 00          	lea    (%rax,%rax,1),%rdx
   10e82:	48 8d 05 b7 61 00 00 	lea    0x61b7(%rip),%rax        # 17040 <g_61>
   10e89:	0f b7 04 02          	movzwl (%rdx,%rax,1),%eax
   10e8d:	48 0f bf c0          	movswq %ax,%rax
   10e91:	8b 55 fc             	mov    -0x4(%rbp),%edx
   10e94:	48 8d 35 a7 36 00 00 	lea    0x36a7(%rip),%rsi        # 14542 <g_3098+0x20a2>
   10e9b:	48 89 c7             	mov    %rax,%rdi
   10e9e:	e8 50 58 ff ff       	callq  66f3 <transparent_crc>
   10ea3:	83 7d fc 00          	cmpl   $0x0,-0x4(%rbp)
   10ea7:	74 19                	je     10ec2 <main+0x12b>
   10ea9:	8b 55 f4             	mov    -0xc(%rbp),%edx
   10eac:	8b 45 f0             	mov    -0x10(%rbp),%eax
   10eaf:	89 c6                	mov    %eax,%esi
   10eb1:	48 8d 3d 95 36 00 00 	lea    0x3695(%rip),%rdi        # 1454d <g_3098+0x20ad>
   10eb8:	b8 00 00 00 00       	mov    $0x0,%eax
   10ebd:	e8 be 41 ff ff       	callq  5080 <printf@plt>
   10ec2:	83 45 f4 01          	addl   $0x1,-0xc(%rbp)
   10ec6:	83 7d f4 04          	cmpl   $0x4,-0xc(%rbp)
   10eca:	7e 99                	jle    10e65 <main+0xce>
   10ecc:	83 45 f0 01          	addl   $0x1,-0x10(%rbp)
   10ed0:	83 7d f0 02          	cmpl   $0x2,-0x10(%rbp)
   10ed4:	7e 86                	jle    10e5c <main+0xc5>
   10ed6:	0f b7 05 81 61 00 00 	movzwl 0x6181(%rip),%eax        # 1705e <g_81>
   10edd:	48 0f bf c0          	movswq %ax,%rax
   10ee1:	8b 55 fc             	mov    -0x4(%rbp),%edx
   10ee4:	48 8d 35 74 36 00 00 	lea    0x3674(%rip),%rsi        # 1455f <g_3098+0x20bf>
   10eeb:	48 89 c7             	mov    %rax,%rdi
   10eee:	e8 00 58 ff ff       	callq  66f3 <transparent_crc>
   10ef3:	c7 45 f0 00 00 00 00 	movl   $0x0,-0x10(%rbp)
   10efa:	eb 73                	jmp    10f6f <main+0x1d8>
   10efc:	c7 45 f4 00 00 00 00 	movl   $0x0,-0xc(%rbp)
   10f03:	eb 60                	jmp    10f65 <main+0x1ce>
   10f05:	8b 45 f4             	mov    -0xc(%rbp),%eax
   10f08:	48 63 c8             	movslq %eax,%rcx
   10f0b:	8b 45 f0             	mov    -0x10(%rbp),%eax
   10f0e:	48 63 d0             	movslq %eax,%rdx
   10f11:	48 89 d0             	mov    %rdx,%rax
   10f14:	48 c1 e0 02          	shl    $0x2,%rax
   10f18:	48 01 d0             	add    %rdx,%rax
   10f1b:	48 01 c8             	add    %rcx,%rax
   10f1e:	48 8d 14 00          	lea    (%rax,%rax,1),%rdx
   10f22:	48 8d 05 37 61 00 00 	lea    0x6137(%rip),%rax        # 17060 <g_84>
   10f29:	0f b7 04 02          	movzwl (%rdx,%rax,1),%eax
   10f2d:	0f b7 c0             	movzwl %ax,%eax
   10f30:	8b 55 fc             	mov    -0x4(%rbp),%edx
   10f33:	48 8d 35 2a 36 00 00 	lea    0x362a(%rip),%rsi        # 14564 <g_3098+0x20c4>
   10f3a:	48 89 c7             	mov    %rax,%rdi
   10f3d:	e8 b1 57 ff ff       	callq  66f3 <transparent_crc>
   10f42:	83 7d fc 00          	cmpl   $0x0,-0x4(%rbp)
   10f46:	74 19                	je     10f61 <main+0x1ca>
   10f48:	8b 55 f4             	mov    -0xc(%rbp),%edx
   10f4b:	8b 45 f0             	mov    -0x10(%rbp),%eax
   10f4e:	89 c6                	mov    %eax,%esi
   10f50:	48 8d 3d f6 35 00 00 	lea    0x35f6(%rip),%rdi        # 1454d <g_3098+0x20ad>
   10f57:	b8 00 00 00 00       	mov    $0x0,%eax
   10f5c:	e8 1f 41 ff ff       	callq  5080 <printf@plt>
   10f61:	83 45 f4 01          	addl   $0x1,-0xc(%rbp)
   10f65:	83 7d f4 04          	cmpl   $0x4,-0xc(%rbp)
   10f69:	7e 9a                	jle    10f05 <main+0x16e>
   10f6b:	83 45 f0 01          	addl   $0x1,-0x10(%rbp)
   10f6f:	83 7d f0 01          	cmpl   $0x1,-0x10(%rbp)
   10f73:	7e 87                	jle    10efc <main+0x165>
   10f75:	0f b6 05 1c 88 00 00 	movzbl 0x881c(%rip),%eax        # 19798 <g_85>
   10f7c:	48 0f be c0          	movsbq %al,%rax
   10f80:	8b 55 fc             	mov    -0x4(%rbp),%edx
   10f83:	48 8d 35 e5 35 00 00 	lea    0x35e5(%rip),%rsi        # 1456f <g_3098+0x20cf>
   10f8a:	48 89 c7             	mov    %rax,%rdi
   10f8d:	e8 61 57 ff ff       	callq  66f3 <transparent_crc>
   10f92:	8b 05 dc 60 00 00    	mov    0x60dc(%rip),%eax        # 17074 <g_87>
   10f98:	48 98                	cltq   
   10f9a:	8b 55 fc             	mov    -0x4(%rbp),%edx
   10f9d:	48 8d 35 d3 35 00 00 	lea    0x35d3(%rip),%rsi        # 14577 <g_3098+0x20d7>
   10fa4:	48 89 c7             	mov    %rax,%rdi
   10fa7:	e8 47 57 ff ff       	callq  66f3 <transparent_crc>
   10fac:	0f b6 05 c5 60 00 00 	movzbl 0x60c5(%rip),%eax        # 17078 <g_92>
   10fb3:	0f b6 c0             	movzbl %al,%eax
   10fb6:	8b 55 fc             	mov    -0x4(%rbp),%edx
   10fb9:	48 8d 35 bc 35 00 00 	lea    0x35bc(%rip),%rsi        # 1457c <g_3098+0x20dc>
   10fc0:	48 89 c7             	mov    %rax,%rdi
   10fc3:	e8 2b 57 ff ff       	callq  66f3 <transparent_crc>
   10fc8:	0f b6 05 b1 60 00 00 	movzbl 0x60b1(%rip),%eax        # 17080 <g_136>
   10fcf:	0f b6 c0             	movzbl %al,%eax
   10fd2:	8b 55 fc             	mov    -0x4(%rbp),%edx
   10fd5:	48 8d 35 a8 35 00 00 	lea    0x35a8(%rip),%rsi        # 14584 <g_3098+0x20e4>
   10fdc:	48 89 c7             	mov    %rax,%rdi
   10fdf:	e8 0f 57 ff ff       	callq  66f3 <transparent_crc>
   10fe4:	8b 05 9a 60 00 00    	mov    0x609a(%rip),%eax        # 17084 <g_136+0x4>
   10fea:	48 98                	cltq   
   10fec:	8b 55 fc             	mov    -0x4(%rbp),%edx
   10fef:	48 8d 35 97 35 00 00 	lea    0x3597(%rip),%rsi        # 1458d <g_3098+0x20ed>
   10ff6:	48 89 c7             	mov    %rax,%rdi
   10ff9:	e8 f5 56 ff ff       	callq  66f3 <transparent_crc>
   10ffe:	c7 45 f0 00 00 00 00 	movl   $0x0,-0x10(%rbp)
   11005:	e9 ad 00 00 00       	jmpq   110b7 <main+0x320>
   1100a:	c7 45 f4 00 00 00 00 	movl   $0x0,-0xc(%rbp)
   11011:	e9 93 00 00 00       	jmpq   110a9 <main+0x312>
   11016:	8b 45 f4             	mov    -0xc(%rbp),%eax
   11019:	48 98                	cltq   
   1101b:	8b 55 f0             	mov    -0x10(%rbp),%edx
   1101e:	48 63 d2             	movslq %edx,%rdx
   11021:	48 01 d2             	add    %rdx,%rdx
   11024:	48 01 d0             	add    %rdx,%rax
   11027:	48 8d 14 c5 00 00 00 	lea    0x0(,%rax,8),%rdx
   1102e:	00 
   1102f:	48 8d 05 6a 60 00 00 	lea    0x606a(%rip),%rax        # 170a0 <g_186>
   11036:	0f b6 04 02          	movzbl (%rdx,%rax,1),%eax
   1103a:	0f b6 c0             	movzbl %al,%eax
   1103d:	8b 55 fc             	mov    -0x4(%rbp),%edx
   11040:	48 8d 35 4f 35 00 00 	lea    0x354f(%rip),%rsi        # 14596 <g_3098+0x20f6>
   11047:	48 89 c7             	mov    %rax,%rdi
   1104a:	e8 a4 56 ff ff       	callq  66f3 <transparent_crc>
   1104f:	8b 45 f4             	mov    -0xc(%rbp),%eax
   11052:	48 98                	cltq   
   11054:	8b 55 f0             	mov    -0x10(%rbp),%edx
   11057:	48 63 d2             	movslq %edx,%rdx
   1105a:	48 01 d2             	add    %rdx,%rdx
   1105d:	48 01 d0             	add    %rdx,%rax
   11060:	48 8d 14 c5 00 00 00 	lea    0x0(,%rax,8),%rdx
   11067:	00 
   11068:	48 8d 05 35 60 00 00 	lea    0x6035(%rip),%rax        # 170a4 <g_186+0x4>
   1106f:	8b 04 02             	mov    (%rdx,%rax,1),%eax
   11072:	48 98                	cltq   
   11074:	8b 55 fc             	mov    -0x4(%rbp),%edx
   11077:	48 8d 35 2a 35 00 00 	lea    0x352a(%rip),%rsi        # 145a8 <g_3098+0x2108>
   1107e:	48 89 c7             	mov    %rax,%rdi
   11081:	e8 6d 56 ff ff       	callq  66f3 <transparent_crc>
   11086:	83 7d fc 00          	cmpl   $0x0,-0x4(%rbp)
   1108a:	74 19                	je     110a5 <main+0x30e>
   1108c:	8b 55 f4             	mov    -0xc(%rbp),%edx
   1108f:	8b 45 f0             	mov    -0x10(%rbp),%eax
   11092:	89 c6                	mov    %eax,%esi
   11094:	48 8d 3d b2 34 00 00 	lea    0x34b2(%rip),%rdi        # 1454d <g_3098+0x20ad>
   1109b:	b8 00 00 00 00       	mov    $0x0,%eax
   110a0:	e8 db 3f ff ff       	callq  5080 <printf@plt>
   110a5:	83 45 f4 01          	addl   $0x1,-0xc(%rbp)
   110a9:	83 7d f4 01          	cmpl   $0x1,-0xc(%rbp)
   110ad:	0f 8e 63 ff ff ff    	jle    11016 <main+0x27f>
   110b3:	83 45 f0 01          	addl   $0x1,-0x10(%rbp)
   110b7:	83 7d f0 05          	cmpl   $0x5,-0x10(%rbp)
   110bb:	0f 8e 49 ff ff ff    	jle    1100a <main+0x273>
   110c1:	c7 45 f0 00 00 00 00 	movl   $0x0,-0x10(%rbp)
   110c8:	eb 4a                	jmp    11114 <main+0x37d>
   110ca:	8b 45 f0             	mov    -0x10(%rbp),%eax
   110cd:	48 98                	cltq   
   110cf:	48 8d 14 c5 00 00 00 	lea    0x0(,%rax,8),%rdx
   110d6:	00 
   110d7:	48 8d 05 22 60 00 00 	lea    0x6022(%rip),%rax        # 17100 <g_226>
   110de:	48 8b 04 02          	mov    (%rdx,%rax,1),%rax
   110e2:	8b 55 fc             	mov    -0x4(%rbp),%edx
   110e5:	48 8d 35 ce 34 00 00 	lea    0x34ce(%rip),%rsi        # 145ba <g_3098+0x211a>
   110ec:	48 89 c7             	mov    %rax,%rdi
   110ef:	e8 ff 55 ff ff       	callq  66f3 <transparent_crc>
   110f4:	83 7d fc 00          	cmpl   $0x0,-0x4(%rbp)
   110f8:	74 16                	je     11110 <main+0x379>
   110fa:	8b 45 f0             	mov    -0x10(%rbp),%eax
   110fd:	89 c6                	mov    %eax,%esi
   110ff:	48 8d 3d bd 34 00 00 	lea    0x34bd(%rip),%rdi        # 145c3 <g_3098+0x2123>
   11106:	b8 00 00 00 00       	mov    $0x0,%eax
   1110b:	e8 70 3f ff ff       	callq  5080 <printf@plt>
   11110:	83 45 f0 01          	addl   $0x1,-0x10(%rbp)
   11114:	83 7d f0 07          	cmpl   $0x7,-0x10(%rbp)
   11118:	7e b0                	jle    110ca <main+0x333>
   1111a:	0f b7 05 1f 60 00 00 	movzwl 0x601f(%rip),%eax        # 17140 <g_228>
   11121:	0f b7 c0             	movzwl %ax,%eax
   11124:	8b 55 fc             	mov    -0x4(%rbp),%edx
   11127:	48 8d 35 a3 34 00 00 	lea    0x34a3(%rip),%rsi        # 145d1 <g_3098+0x2131>
   1112e:	48 89 c7             	mov    %rax,%rdi
   11131:	e8 bd 55 ff ff       	callq  66f3 <transparent_crc>
   11136:	8b 05 08 60 00 00    	mov    0x6008(%rip),%eax        # 17144 <g_256>
   1113c:	89 c1                	mov    %eax,%ecx
   1113e:	8b 45 fc             	mov    -0x4(%rbp),%eax
   11141:	89 c2                	mov    %eax,%edx
   11143:	48 8d 35 8d 34 00 00 	lea    0x348d(%rip),%rsi        # 145d7 <g_3098+0x2137>
   1114a:	48 89 cf             	mov    %rcx,%rdi
   1114d:	e8 a1 55 ff ff       	callq  66f3 <transparent_crc>
   11152:	8b 05 f0 5f 00 00    	mov    0x5ff0(%rip),%eax        # 17148 <g_274>
   11158:	48 98                	cltq   
   1115a:	8b 55 fc             	mov    -0x4(%rbp),%edx
   1115d:	48 8d 35 79 34 00 00 	lea    0x3479(%rip),%rsi        # 145dd <g_3098+0x213d>
   11164:	48 89 c7             	mov    %rax,%rdi
   11167:	e8 87 55 ff ff       	callq  66f3 <transparent_crc>
   1116c:	c7 45 f0 00 00 00 00 	movl   $0x0,-0x10(%rbp)
   11173:	eb 49                	jmp    111be <main+0x427>
   11175:	8b 45 f0             	mov    -0x10(%rbp),%eax
   11178:	48 98                	cltq   
   1117a:	48 8d 14 00          	lea    (%rax,%rax,1),%rdx
   1117e:	48 8d 05 cb 5f 00 00 	lea    0x5fcb(%rip),%rax        # 17150 <g_277>
   11185:	0f b7 04 02          	movzwl (%rdx,%rax,1),%eax
   11189:	0f b7 c0             	movzwl %ax,%eax
   1118c:	8b 55 fc             	mov    -0x4(%rbp),%edx
   1118f:	48 8d 35 4d 34 00 00 	lea    0x344d(%rip),%rsi        # 145e3 <g_3098+0x2143>
   11196:	48 89 c7             	mov    %rax,%rdi
   11199:	e8 55 55 ff ff       	callq  66f3 <transparent_crc>
   1119e:	83 7d fc 00          	cmpl   $0x0,-0x4(%rbp)
   111a2:	74 16                	je     111ba <main+0x423>
   111a4:	8b 45 f0             	mov    -0x10(%rbp),%eax
   111a7:	89 c6                	mov    %eax,%esi
   111a9:	48 8d 3d 13 34 00 00 	lea    0x3413(%rip),%rdi        # 145c3 <g_3098+0x2123>
   111b0:	b8 00 00 00 00       	mov    $0x0,%eax
   111b5:	e8 c6 3e ff ff       	callq  5080 <printf@plt>
   111ba:	83 45 f0 01          	addl   $0x1,-0x10(%rbp)
   111be:	83 7d f0 06          	cmpl   $0x6,-0x10(%rbp)
   111c2:	7e b1                	jle    11175 <main+0x3de>
   111c4:	0f b6 05 95 5f 00 00 	movzbl 0x5f95(%rip),%eax        # 17160 <g_282>
   111cb:	0f b6 c0             	movzbl %al,%eax
   111ce:	8b 55 fc             	mov    -0x4(%rbp),%edx
   111d1:	48 8d 35 14 34 00 00 	lea    0x3414(%rip),%rsi        # 145ec <g_3098+0x214c>
   111d8:	48 89 c7             	mov    %rax,%rdi
   111db:	e8 13 55 ff ff       	callq  66f3 <transparent_crc>
   111e0:	8b 05 7e 5f 00 00    	mov    0x5f7e(%rip),%eax        # 17164 <g_282+0x4>
   111e6:	48 98                	cltq   
   111e8:	8b 55 fc             	mov    -0x4(%rbp),%edx
   111eb:	48 8d 35 06 34 00 00 	lea    0x3406(%rip),%rsi        # 145f8 <g_3098+0x2158>
   111f2:	48 89 c7             	mov    %rax,%rdi
   111f5:	e8 f9 54 ff ff       	callq  66f3 <transparent_crc>
   111fa:	0f b6 05 67 5f 00 00 	movzbl 0x5f67(%rip),%eax        # 17168 <g_299>
   11201:	0f b6 c0             	movzbl %al,%eax
   11204:	8b 55 fc             	mov    -0x4(%rbp),%edx
   11207:	48 8d 35 f6 33 00 00 	lea    0x33f6(%rip),%rsi        # 14604 <g_3098+0x2164>
   1120e:	48 89 c7             	mov    %rax,%rdi
   11211:	e8 dd 54 ff ff       	callq  66f3 <transparent_crc>
   11216:	8b 05 80 85 00 00    	mov    0x8580(%rip),%eax        # 1979c <g_317>
   1121c:	48 98                	cltq   
   1121e:	8b 55 fc             	mov    -0x4(%rbp),%edx
   11221:	48 8d 35 e2 33 00 00 	lea    0x33e2(%rip),%rsi        # 1460a <g_3098+0x216a>
   11228:	48 89 c7             	mov    %rax,%rdi
   1122b:	e8 c3 54 ff ff       	callq  66f3 <transparent_crc>
   11230:	0f b6 05 32 5f 00 00 	movzbl 0x5f32(%rip),%eax        # 17169 <g_351>
   11237:	48 0f be c0          	movsbq %al,%rax
   1123b:	8b 55 fc             	mov    -0x4(%rbp),%edx
   1123e:	48 8d 35 cb 33 00 00 	lea    0x33cb(%rip),%rsi        # 14610 <g_3098+0x2170>
   11245:	48 89 c7             	mov    %rax,%rdi
   11248:	e8 a6 54 ff ff       	callq  66f3 <transparent_crc>
   1124d:	8b 05 19 5f 00 00    	mov    0x5f19(%rip),%eax        # 1716c <g_405>
   11253:	89 c1                	mov    %eax,%ecx
   11255:	8b 45 fc             	mov    -0x4(%rbp),%eax
   11258:	89 c2                	mov    %eax,%edx
   1125a:	48 8d 35 b5 33 00 00 	lea    0x33b5(%rip),%rsi        # 14616 <g_3098+0x2176>
   11261:	48 89 cf             	mov    %rcx,%rdi
   11264:	e8 8a 54 ff ff       	callq  66f3 <transparent_crc>
   11269:	48 8b 05 00 5f 00 00 	mov    0x5f00(%rip),%rax        # 17170 <g_585>
   11270:	48 89 c1             	mov    %rax,%rcx
   11273:	8b 45 fc             	mov    -0x4(%rbp),%eax
   11276:	89 c2                	mov    %eax,%edx
   11278:	48 8d 35 9d 33 00 00 	lea    0x339d(%rip),%rsi        # 1461c <g_3098+0x217c>
   1127f:	48 89 cf             	mov    %rcx,%rdi
   11282:	e8 6c 54 ff ff       	callq  66f3 <transparent_crc>
   11287:	0f b7 05 1a 85 00 00 	movzwl 0x851a(%rip),%eax        # 197a8 <g_592>
   1128e:	48 0f bf c0          	movswq %ax,%rax
   11292:	8b 55 fc             	mov    -0x4(%rbp),%edx
   11295:	48 8d 35 86 33 00 00 	lea    0x3386(%rip),%rsi        # 14622 <g_3098+0x2182>
   1129c:	48 89 c7             	mov    %rax,%rdi
   1129f:	e8 4f 54 ff ff       	callq  66f3 <transparent_crc>
   112a4:	b9 05 00 00 00       	mov    $0x5,%ecx
   112a9:	8b 45 fc             	mov    -0x4(%rbp),%eax
   112ac:	89 c2                	mov    %eax,%edx
   112ae:	48 8d 35 73 33 00 00 	lea    0x3373(%rip),%rsi        # 14628 <g_3098+0x2188>
   112b5:	48 89 cf             	mov    %rcx,%rdi
   112b8:	e8 36 54 ff ff       	callq  66f3 <transparent_crc>
   112bd:	c7 45 f0 00 00 00 00 	movl   $0x0,-0x10(%rbp)
   112c4:	e9 a6 00 00 00       	jmpq   1136f <main+0x5d8>
   112c9:	c7 45 f4 00 00 00 00 	movl   $0x0,-0xc(%rbp)
   112d0:	e9 8c 00 00 00       	jmpq   11361 <main+0x5ca>
   112d5:	c7 45 f8 00 00 00 00 	movl   $0x0,-0x8(%rbp)
   112dc:	eb 79                	jmp    11357 <main+0x5c0>
   112de:	8b 45 f8             	mov    -0x8(%rbp),%eax
   112e1:	48 63 f0             	movslq %eax,%rsi
   112e4:	8b 45 f0             	mov    -0x10(%rbp),%eax
   112e7:	48 98                	cltq   
   112e9:	8b 55 f4             	mov    -0xc(%rbp),%edx
   112ec:	48 63 ca             	movslq %edx,%rcx
   112ef:	48 89 c2             	mov    %rax,%rdx
   112f2:	48 c1 e2 03          	shl    $0x3,%rdx
   112f6:	48 01 c2             	add    %rax,%rdx
   112f9:	48 89 c8             	mov    %rcx,%rax
   112fc:	48 01 c0             	add    %rax,%rax
   112ff:	48 01 c8             	add    %rcx,%rax
   11302:	48 01 d0             	add    %rdx,%rax
   11305:	48 01 f0             	add    %rsi,%rax
   11308:	48 8d 14 85 00 00 00 	lea    0x0(,%rax,4),%rdx
   1130f:	00 
   11310:	48 8d 05 69 5e 00 00 	lea    0x5e69(%rip),%rax        # 17180 <g_649>
   11317:	0f b6 04 02          	movzbl (%rdx,%rax,1),%eax
   1131b:	48 0f be c0          	movsbq %al,%rax
   1131f:	8b 55 fc             	mov    -0x4(%rbp),%edx
   11322:	48 8d 35 05 33 00 00 	lea    0x3305(%rip),%rsi        # 1462e <g_3098+0x218e>
   11329:	48 89 c7             	mov    %rax,%rdi
   1132c:	e8 c2 53 ff ff       	callq  66f3 <transparent_crc>
   11331:	83 7d fc 00          	cmpl   $0x0,-0x4(%rbp)
   11335:	74 1c                	je     11353 <main+0x5bc>
   11337:	8b 4d f8             	mov    -0x8(%rbp),%ecx
   1133a:	8b 55 f4             	mov    -0xc(%rbp),%edx
   1133d:	8b 45 f0             	mov    -0x10(%rbp),%eax
   11340:	89 c6                	mov    %eax,%esi
   11342:	48 8d 3d f7 32 00 00 	lea    0x32f7(%rip),%rdi        # 14640 <g_3098+0x21a0>
   11349:	b8 00 00 00 00       	mov    $0x0,%eax
   1134e:	e8 2d 3d ff ff       	callq  5080 <printf@plt>
   11353:	83 45 f8 01          	addl   $0x1,-0x8(%rbp)
   11357:	83 7d f8 02          	cmpl   $0x2,-0x8(%rbp)
   1135b:	7e 81                	jle    112de <main+0x547>
   1135d:	83 45 f4 01          	addl   $0x1,-0xc(%rbp)
   11361:	83 7d f4 02          	cmpl   $0x2,-0xc(%rbp)
   11365:	0f 8e 6a ff ff ff    	jle    112d5 <main+0x53e>
   1136b:	83 45 f0 01          	addl   $0x1,-0x10(%rbp)
   1136f:	83 7d f0 07          	cmpl   $0x7,-0x10(%rbp)
   11373:	0f 8e 50 ff ff ff    	jle    112c9 <main+0x532>
   11379:	b8 7c 00 00 00       	mov    $0x7c,%eax
   1137e:	0f b6 c0             	movzbl %al,%eax
   11381:	8b 55 fc             	mov    -0x4(%rbp),%edx
   11384:	48 8d 35 cb 32 00 00 	lea    0x32cb(%rip),%rsi        # 14656 <g_3098+0x21b6>
   1138b:	48 89 c7             	mov    %rax,%rdi
   1138e:	e8 60 53 ff ff       	callq  66f3 <transparent_crc>
   11393:	c7 45 f0 00 00 00 00 	movl   $0x0,-0x10(%rbp)
   1139a:	e9 95 00 00 00       	jmpq   11434 <main+0x69d>
   1139f:	c7 45 f4 00 00 00 00 	movl   $0x0,-0xc(%rbp)
   113a6:	eb 7e                	jmp    11426 <main+0x68f>
   113a8:	c7 45 f8 00 00 00 00 	movl   $0x0,-0x8(%rbp)
   113af:	eb 6b                	jmp    1141c <main+0x685>
   113b1:	8b 45 f8             	mov    -0x8(%rbp),%eax
   113b4:	48 98                	cltq   
   113b6:	8b 55 f0             	mov    -0x10(%rbp),%edx
   113b9:	48 63 ca             	movslq %edx,%rcx
   113bc:	8b 55 f4             	mov    -0xc(%rbp),%edx
   113bf:	48 63 d2             	movslq %edx,%rdx
   113c2:	48 c1 e1 02          	shl    $0x2,%rcx
   113c6:	48 01 ca             	add    %rcx,%rdx
   113c9:	48 c1 e2 03          	shl    $0x3,%rdx
   113cd:	48 01 d0             	add    %rdx,%rax
   113d0:	48 8d 14 85 00 00 00 	lea    0x0(,%rax,4),%rdx
   113d7:	00 
   113d8:	48 8d 05 a1 0c 00 00 	lea    0xca1(%rip),%rax        # 12080 <g_772>
   113df:	8b 04 02             	mov    (%rdx,%rax,1),%eax
   113e2:	48 98                	cltq   
   113e4:	8b 55 fc             	mov    -0x4(%rbp),%edx
   113e7:	48 8d 35 71 32 00 00 	lea    0x3271(%rip),%rsi        # 1465f <g_3098+0x21bf>
   113ee:	48 89 c7             	mov    %rax,%rdi
   113f1:	e8 fd 52 ff ff       	callq  66f3 <transparent_crc>
   113f6:	83 7d fc 00          	cmpl   $0x0,-0x4(%rbp)
   113fa:	74 1c                	je     11418 <main+0x681>
   113fc:	8b 4d f8             	mov    -0x8(%rbp),%ecx
   113ff:	8b 55 f4             	mov    -0xc(%rbp),%edx
   11402:	8b 45 f0             	mov    -0x10(%rbp),%eax
   11405:	89 c6                	mov    %eax,%esi
   11407:	48 8d 3d 32 32 00 00 	lea    0x3232(%rip),%rdi        # 14640 <g_3098+0x21a0>
   1140e:	b8 00 00 00 00       	mov    $0x0,%eax
   11413:	e8 68 3c ff ff       	callq  5080 <printf@plt>
   11418:	83 45 f8 01          	addl   $0x1,-0x8(%rbp)
   1141c:	83 7d f8 07          	cmpl   $0x7,-0x8(%rbp)
   11420:	7e 8f                	jle    113b1 <main+0x61a>
   11422:	83 45 f4 01          	addl   $0x1,-0xc(%rbp)
   11426:	83 7d f4 03          	cmpl   $0x3,-0xc(%rbp)
   1142a:	0f 8e 78 ff ff ff    	jle    113a8 <main+0x611>
   11430:	83 45 f0 01          	addl   $0x1,-0x10(%rbp)
   11434:	83 7d f0 07          	cmpl   $0x7,-0x10(%rbp)
   11438:	0f 8e 61 ff ff ff    	jle    1139f <main+0x608>
   1143e:	c7 45 f0 00 00 00 00 	movl   $0x0,-0x10(%rbp)
   11445:	e9 9c 00 00 00       	jmpq   114e6 <main+0x74f>
   1144a:	c7 45 f4 00 00 00 00 	movl   $0x0,-0xc(%rbp)
   11451:	e9 82 00 00 00       	jmpq   114d8 <main+0x741>
   11456:	c7 45 f8 00 00 00 00 	movl   $0x0,-0x8(%rbp)
   1145d:	eb 6f                	jmp    114ce <main+0x737>
   1145f:	8b 45 f8             	mov    -0x8(%rbp),%eax
   11462:	48 63 c8             	movslq %eax,%rcx
   11465:	8b 45 f0             	mov    -0x10(%rbp),%eax
   11468:	48 63 d0             	movslq %eax,%rdx
   1146b:	8b 45 f4             	mov    -0xc(%rbp),%eax
   1146e:	48 63 f0             	movslq %eax,%rsi
   11471:	48 89 d0             	mov    %rdx,%rax
   11474:	48 c1 e0 03          	shl    $0x3,%rax
   11478:	48 29 d0             	sub    %rdx,%rax
   1147b:	48 01 f0             	add    %rsi,%rax
   1147e:	48 c1 e0 02          	shl    $0x2,%rax
   11482:	48 8d 14 08          	lea    (%rax,%rcx,1),%rdx
   11486:	48 8d 05 13 5e 00 00 	lea    0x5e13(%rip),%rax        # 172a0 <g_788>
   1148d:	48 01 d0             	add    %rdx,%rax
   11490:	0f b6 00             	movzbl (%rax),%eax
   11493:	0f b6 c0             	movzbl %al,%eax
   11496:	8b 55 fc             	mov    -0x4(%rbp),%edx
   11499:	48 8d 35 ce 31 00 00 	lea    0x31ce(%rip),%rsi        # 1466e <g_3098+0x21ce>
   114a0:	48 89 c7             	mov    %rax,%rdi
   114a3:	e8 4b 52 ff ff       	callq  66f3 <transparent_crc>
   114a8:	83 7d fc 00          	cmpl   $0x0,-0x4(%rbp)
   114ac:	74 1c                	je     114ca <main+0x733>
   114ae:	8b 4d f8             	mov    -0x8(%rbp),%ecx
   114b1:	8b 55 f4             	mov    -0xc(%rbp),%edx
   114b4:	8b 45 f0             	mov    -0x10(%rbp),%eax
   114b7:	89 c6                	mov    %eax,%esi
   114b9:	48 8d 3d 80 31 00 00 	lea    0x3180(%rip),%rdi        # 14640 <g_3098+0x21a0>
   114c0:	b8 00 00 00 00       	mov    $0x0,%eax
   114c5:	e8 b6 3b ff ff       	callq  5080 <printf@plt>
   114ca:	83 45 f8 01          	addl   $0x1,-0x8(%rbp)
   114ce:	83 7d f8 03          	cmpl   $0x3,-0x8(%rbp)
   114d2:	7e 8b                	jle    1145f <main+0x6c8>
   114d4:	83 45 f4 01          	addl   $0x1,-0xc(%rbp)
   114d8:	83 7d f4 06          	cmpl   $0x6,-0xc(%rbp)
   114dc:	0f 8e 74 ff ff ff    	jle    11456 <main+0x6bf>
   114e2:	83 45 f0 01          	addl   $0x1,-0x10(%rbp)
   114e6:	83 7d f0 07          	cmpl   $0x7,-0x10(%rbp)
   114ea:	0f 8e 5a ff ff ff    	jle    1144a <main+0x6b3>
   114f0:	8b 05 ca 82 00 00    	mov    0x82ca(%rip),%eax        # 197c0 <g_812>
   114f6:	89 c1                	mov    %eax,%ecx
   114f8:	8b 45 fc             	mov    -0x4(%rbp),%eax
   114fb:	89 c2                	mov    %eax,%edx
   114fd:	48 8d 35 79 31 00 00 	lea    0x3179(%rip),%rsi        # 1467d <g_3098+0x21dd>
   11504:	48 89 cf             	mov    %rcx,%rdi
   11507:	e8 e7 51 ff ff       	callq  66f3 <transparent_crc>
   1150c:	0f b7 05 ad 82 00 00 	movzwl 0x82ad(%rip),%eax        # 197c0 <g_812>
   11513:	66 25 ff 1f          	and    $0x1fff,%ax
   11517:	0f b7 c0             	movzwl %ax,%eax
   1151a:	8b 55 fc             	mov    -0x4(%rbp),%edx
   1151d:	48 8d 35 62 31 00 00 	lea    0x3162(%rip),%rsi        # 14686 <g_3098+0x21e6>
   11524:	48 89 c7             	mov    %rax,%rdi
   11527:	e8 c7 51 ff ff       	callq  66f3 <transparent_crc>
   1152c:	0f b6 05 8d 82 00 00 	movzbl 0x828d(%rip),%eax        # 197c0 <g_812>
   11533:	0f b6 c0             	movzbl %al,%eax
   11536:	8b 55 fc             	mov    -0x4(%rbp),%edx
   11539:	48 8d 35 4f 31 00 00 	lea    0x314f(%rip),%rsi        # 1468f <g_3098+0x21ef>
   11540:	48 89 c7             	mov    %rax,%rdi
   11543:	e8 ab 51 ff ff       	callq  66f3 <transparent_crc>
   11548:	8b 05 72 82 00 00    	mov    0x8272(%rip),%eax        # 197c0 <g_812>
   1154e:	48 98                	cltq   
   11550:	8b 55 fc             	mov    -0x4(%rbp),%edx
   11553:	48 8d 35 3e 31 00 00 	lea    0x313e(%rip),%rsi        # 14698 <g_3098+0x21f8>
   1155a:	48 89 c7             	mov    %rax,%rdi
   1155d:	e8 91 51 ff ff       	callq  66f3 <transparent_crc>
   11562:	c7 45 f0 00 00 00 00 	movl   $0x0,-0x10(%rbp)
   11569:	eb 46                	jmp    115b1 <main+0x81a>
   1156b:	8b 45 f0             	mov    -0x10(%rbp),%eax
   1156e:	48 98                	cltq   
   11570:	48 8d 15 09 5e 00 00 	lea    0x5e09(%rip),%rdx        # 17380 <g_893>
   11577:	0f b6 04 10          	movzbl (%rax,%rdx,1),%eax
   1157b:	48 0f be c0          	movsbq %al,%rax
   1157f:	8b 55 fc             	mov    -0x4(%rbp),%edx
   11582:	48 8d 35 18 31 00 00 	lea    0x3118(%rip),%rsi        # 146a1 <g_3098+0x2201>
   11589:	48 89 c7             	mov    %rax,%rdi
   1158c:	e8 62 51 ff ff       	callq  66f3 <transparent_crc>
   11591:	83 7d fc 00          	cmpl   $0x0,-0x4(%rbp)
   11595:	74 16                	je     115ad <main+0x816>
   11597:	8b 45 f0             	mov    -0x10(%rbp),%eax
   1159a:	89 c6                	mov    %eax,%esi
   1159c:	48 8d 3d 20 30 00 00 	lea    0x3020(%rip),%rdi        # 145c3 <g_3098+0x2123>
   115a3:	b8 00 00 00 00       	mov    $0x0,%eax
   115a8:	e8 d3 3a ff ff       	callq  5080 <printf@plt>
   115ad:	83 45 f0 01          	addl   $0x1,-0x10(%rbp)
   115b1:	83 7d f0 08          	cmpl   $0x8,-0x10(%rbp)
   115b5:	7e b4                	jle    1156b <main+0x7d4>
   115b7:	0f b6 05 cb 5d 00 00 	movzbl 0x5dcb(%rip),%eax        # 17389 <g_901>
   115be:	0f b6 c0             	movzbl %al,%eax
   115c1:	8b 55 fc             	mov    -0x4(%rbp),%edx
   115c4:	48 8d 35 df 30 00 00 	lea    0x30df(%rip),%rsi        # 146aa <g_3098+0x220a>
   115cb:	48 89 c7             	mov    %rax,%rdi
   115ce:	e8 20 51 ff ff       	callq  66f3 <transparent_crc>
   115d3:	8b 05 b3 5d 00 00    	mov    0x5db3(%rip),%eax        # 1738c <g_917>
   115d9:	89 c1                	mov    %eax,%ecx
   115db:	8b 45 fc             	mov    -0x4(%rbp),%eax
   115de:	89 c2                	mov    %eax,%edx
   115e0:	48 8d 35 c9 30 00 00 	lea    0x30c9(%rip),%rsi        # 146b0 <g_3098+0x2210>
   115e7:	48 89 cf             	mov    %rcx,%rdi
   115ea:	e8 04 51 ff ff       	callq  66f3 <transparent_crc>
   115ef:	0f b6 05 9a 5d 00 00 	movzbl 0x5d9a(%rip),%eax        # 17390 <g_933>
   115f6:	48 0f be c0          	movsbq %al,%rax
   115fa:	8b 55 fc             	mov    -0x4(%rbp),%edx
   115fd:	48 8d 35 b2 30 00 00 	lea    0x30b2(%rip),%rsi        # 146b6 <g_3098+0x2216>
   11604:	48 89 c7             	mov    %rax,%rdi
   11607:	e8 e7 50 ff ff       	callq  66f3 <transparent_crc>
   1160c:	48 8b 05 85 5d 00 00 	mov    0x5d85(%rip),%rax        # 17398 <g_936>
   11613:	48 89 c1             	mov    %rax,%rcx
   11616:	8b 45 fc             	mov    -0x4(%rbp),%eax
   11619:	89 c2                	mov    %eax,%edx
   1161b:	48 8d 35 9a 30 00 00 	lea    0x309a(%rip),%rsi        # 146bc <g_3098+0x221c>
   11622:	48 89 cf             	mov    %rcx,%rdi
   11625:	e8 c9 50 ff ff       	callq  66f3 <transparent_crc>
   1162a:	0f b6 05 6f 5d 00 00 	movzbl 0x5d6f(%rip),%eax        # 173a0 <g_957>
   11631:	0f b6 c0             	movzbl %al,%eax
   11634:	8b 55 fc             	mov    -0x4(%rbp),%edx
   11637:	48 8d 35 84 30 00 00 	lea    0x3084(%rip),%rsi        # 146c2 <g_3098+0x2222>
   1163e:	48 89 c7             	mov    %rax,%rdi
   11641:	e8 ad 50 ff ff       	callq  66f3 <transparent_crc>
   11646:	8b 05 58 5d 00 00    	mov    0x5d58(%rip),%eax        # 173a4 <g_957+0x4>
   1164c:	48 98                	cltq   
   1164e:	8b 55 fc             	mov    -0x4(%rbp),%edx
   11651:	48 8d 35 76 30 00 00 	lea    0x3076(%rip),%rsi        # 146ce <g_3098+0x222e>
   11658:	48 89 c7             	mov    %rax,%rdi
   1165b:	e8 93 50 ff ff       	callq  66f3 <transparent_crc>
   11660:	c7 45 f0 00 00 00 00 	movl   $0x0,-0x10(%rbp)
   11667:	eb 45                	jmp    116ae <main+0x917>
   11669:	8b 45 f0             	mov    -0x10(%rbp),%eax
   1166c:	48 98                	cltq   
   1166e:	48 8d 15 33 5d 00 00 	lea    0x5d33(%rip),%rdx        # 173a8 <g_981>
   11675:	0f b6 04 10          	movzbl (%rax,%rdx,1),%eax
   11679:	0f b6 c0             	movzbl %al,%eax
   1167c:	8b 55 fc             	mov    -0x4(%rbp),%edx
   1167f:	48 8d 35 54 30 00 00 	lea    0x3054(%rip),%rsi        # 146da <g_3098+0x223a>
   11686:	48 89 c7             	mov    %rax,%rdi
   11689:	e8 65 50 ff ff       	callq  66f3 <transparent_crc>
   1168e:	83 7d fc 00          	cmpl   $0x0,-0x4(%rbp)
   11692:	74 16                	je     116aa <main+0x913>
   11694:	8b 45 f0             	mov    -0x10(%rbp),%eax
   11697:	89 c6                	mov    %eax,%esi
   11699:	48 8d 3d 23 2f 00 00 	lea    0x2f23(%rip),%rdi        # 145c3 <g_3098+0x2123>
   116a0:	b8 00 00 00 00       	mov    $0x0,%eax
   116a5:	e8 d6 39 ff ff       	callq  5080 <printf@plt>
   116aa:	83 45 f0 01          	addl   $0x1,-0x10(%rbp)
   116ae:	83 7d f0 08          	cmpl   $0x8,-0x10(%rbp)
   116b2:	7e b5                	jle    11669 <main+0x8d2>
   116b4:	0f b7 05 f7 5c 00 00 	movzwl 0x5cf7(%rip),%eax        # 173b2 <g_1173>
   116bb:	48 0f bf c0          	movswq %ax,%rax
   116bf:	8b 55 fc             	mov    -0x4(%rbp),%edx
   116c2:	48 8d 35 1a 30 00 00 	lea    0x301a(%rip),%rsi        # 146e3 <g_3098+0x2243>
   116c9:	48 89 c7             	mov    %rax,%rdi
   116cc:	e8 22 50 ff ff       	callq  66f3 <transparent_crc>
   116d1:	0f b6 05 a8 0d 00 00 	movzbl 0xda8(%rip),%eax        # 12480 <g_1178>
   116d8:	0f b6 c0             	movzbl %al,%eax
   116db:	8b 55 fc             	mov    -0x4(%rbp),%edx
   116de:	48 8d 35 05 30 00 00 	lea    0x3005(%rip),%rsi        # 146ea <g_3098+0x224a>
   116e5:	48 89 c7             	mov    %rax,%rdi
   116e8:	e8 06 50 ff ff       	callq  66f3 <transparent_crc>
   116ed:	8b 05 91 0d 00 00    	mov    0xd91(%rip),%eax        # 12484 <g_1178+0x4>
   116f3:	48 98                	cltq   
   116f5:	8b 55 fc             	mov    -0x4(%rbp),%edx
   116f8:	48 8d 35 f8 2f 00 00 	lea    0x2ff8(%rip),%rsi        # 146f7 <g_3098+0x2257>
   116ff:	48 89 c7             	mov    %rax,%rdi
   11702:	e8 ec 4f ff ff       	callq  66f3 <transparent_crc>
   11707:	8b 05 ab 5c 00 00    	mov    0x5cab(%rip),%eax        # 173b8 <g_1225>
   1170d:	89 c1                	mov    %eax,%ecx
   1170f:	8b 45 fc             	mov    -0x4(%rbp),%eax
   11712:	89 c2                	mov    %eax,%edx
   11714:	48 8d 35 e9 2f 00 00 	lea    0x2fe9(%rip),%rsi        # 14704 <g_3098+0x2264>
   1171b:	48 89 cf             	mov    %rcx,%rdi
   1171e:	e8 d0 4f ff ff       	callq  66f3 <transparent_crc>
   11723:	0f b7 05 8e 5c 00 00 	movzwl 0x5c8e(%rip),%eax        # 173b8 <g_1225>
   1172a:	66 25 ff 1f          	and    $0x1fff,%ax
   1172e:	0f b7 c0             	movzwl %ax,%eax
   11731:	8b 55 fc             	mov    -0x4(%rbp),%edx
   11734:	48 8d 35 d3 2f 00 00 	lea    0x2fd3(%rip),%rsi        # 1470e <g_3098+0x226e>
   1173b:	48 89 c7             	mov    %rax,%rdi
   1173e:	e8 b0 4f ff ff       	callq  66f3 <transparent_crc>
   11743:	0f b6 05 6e 5c 00 00 	movzbl 0x5c6e(%rip),%eax        # 173b8 <g_1225>
   1174a:	0f b6 c0             	movzbl %al,%eax
   1174d:	8b 55 fc             	mov    -0x4(%rbp),%edx
   11750:	48 8d 35 c1 2f 00 00 	lea    0x2fc1(%rip),%rsi        # 14718 <g_3098+0x2278>
   11757:	48 89 c7             	mov    %rax,%rdi
   1175a:	e8 94 4f ff ff       	callq  66f3 <transparent_crc>
   1175f:	8b 05 53 5c 00 00    	mov    0x5c53(%rip),%eax        # 173b8 <g_1225>
   11765:	48 98                	cltq   
   11767:	8b 55 fc             	mov    -0x4(%rbp),%edx
   1176a:	48 8d 35 b1 2f 00 00 	lea    0x2fb1(%rip),%rsi        # 14722 <g_3098+0x2282>
   11771:	48 89 c7             	mov    %rax,%rdi
   11774:	e8 7a 4f ff ff       	callq  66f3 <transparent_crc>
   11779:	8b 05 41 5c 00 00    	mov    0x5c41(%rip),%eax        # 173c0 <g_1281>
   1177f:	48 98                	cltq   
   11781:	8b 55 fc             	mov    -0x4(%rbp),%edx
   11784:	48 8d 35 a1 2f 00 00 	lea    0x2fa1(%rip),%rsi        # 1472c <g_3098+0x228c>
   1178b:	48 89 c7             	mov    %rax,%rdi
   1178e:	e8 60 4f ff ff       	callq  66f3 <transparent_crc>
   11793:	0f b6 05 2e 80 00 00 	movzbl 0x802e(%rip),%eax        # 197c8 <g_1294>
   1179a:	48 0f be c0          	movsbq %al,%rax
   1179e:	8b 55 fc             	mov    -0x4(%rbp),%edx
   117a1:	48 8d 35 8b 2f 00 00 	lea    0x2f8b(%rip),%rsi        # 14733 <g_3098+0x2293>
   117a8:	48 89 c7             	mov    %rax,%rdi
   117ab:	e8 43 4f ff ff       	callq  66f3 <transparent_crc>
   117b0:	8b 05 1a 5c 00 00    	mov    0x5c1a(%rip),%eax        # 173d0 <g_1484>
   117b6:	89 c1                	mov    %eax,%ecx
   117b8:	8b 45 fc             	mov    -0x4(%rbp),%eax
   117bb:	89 c2                	mov    %eax,%edx
   117bd:	48 8d 35 79 2f 00 00 	lea    0x2f79(%rip),%rsi        # 1473d <g_3098+0x229d>
   117c4:	48 89 cf             	mov    %rcx,%rdi
   117c7:	e8 27 4f ff ff       	callq  66f3 <transparent_crc>
   117cc:	0f b6 05 05 5c 00 00 	movzbl 0x5c05(%rip),%eax        # 173d8 <g_1547>
   117d3:	0f b6 c0             	movzbl %al,%eax
   117d6:	8b 55 fc             	mov    -0x4(%rbp),%edx
   117d9:	48 8d 35 64 2f 00 00 	lea    0x2f64(%rip),%rsi        # 14744 <g_3098+0x22a4>
   117e0:	48 89 c7             	mov    %rax,%rdi
   117e3:	e8 0b 4f ff ff       	callq  66f3 <transparent_crc>
   117e8:	8b 05 ee 5b 00 00    	mov    0x5bee(%rip),%eax        # 173dc <g_1547+0x4>
   117ee:	48 98                	cltq   
   117f0:	8b 55 fc             	mov    -0x4(%rbp),%edx
   117f3:	48 8d 35 57 2f 00 00 	lea    0x2f57(%rip),%rsi        # 14751 <g_3098+0x22b1>
   117fa:	48 89 c7             	mov    %rax,%rdi
   117fd:	e8 f1 4e ff ff       	callq  66f3 <transparent_crc>
   11802:	0f b6 05 d7 5b 00 00 	movzbl 0x5bd7(%rip),%eax        # 173e0 <g_1770>
   11809:	0f b6 c0             	movzbl %al,%eax
   1180c:	8b 55 fc             	mov    -0x4(%rbp),%edx
   1180f:	48 8d 35 48 2f 00 00 	lea    0x2f48(%rip),%rsi        # 1475e <g_3098+0x22be>
   11816:	48 89 c7             	mov    %rax,%rdi
   11819:	e8 d5 4e ff ff       	callq  66f3 <transparent_crc>
   1181e:	8b 05 c0 5b 00 00    	mov    0x5bc0(%rip),%eax        # 173e4 <g_1770+0x4>
   11824:	48 98                	cltq   
   11826:	8b 55 fc             	mov    -0x4(%rbp),%edx
   11829:	48 8d 35 3b 2f 00 00 	lea    0x2f3b(%rip),%rsi        # 1476b <g_3098+0x22cb>
   11830:	48 89 c7             	mov    %rax,%rdi
   11833:	e8 bb 4e ff ff       	callq  66f3 <transparent_crc>
   11838:	0f b6 05 a9 5b 00 00 	movzbl 0x5ba9(%rip),%eax        # 173e8 <g_1851>
   1183f:	0f b6 c0             	movzbl %al,%eax
   11842:	8b 55 fc             	mov    -0x4(%rbp),%edx
   11845:	48 8d 35 2c 2f 00 00 	lea    0x2f2c(%rip),%rsi        # 14778 <g_3098+0x22d8>
   1184c:	48 89 c7             	mov    %rax,%rdi
   1184f:	e8 9f 4e ff ff       	callq  66f3 <transparent_crc>
   11854:	8b 05 92 5b 00 00    	mov    0x5b92(%rip),%eax        # 173ec <g_1851+0x4>
   1185a:	48 98                	cltq   
   1185c:	8b 55 fc             	mov    -0x4(%rbp),%edx
   1185f:	48 8d 35 1f 2f 00 00 	lea    0x2f1f(%rip),%rsi        # 14785 <g_3098+0x22e5>
   11866:	48 89 c7             	mov    %rax,%rdi
   11869:	e8 85 4e ff ff       	callq  66f3 <transparent_crc>
   1186e:	48 8b 05 7b 5b 00 00 	mov    0x5b7b(%rip),%rax        # 173f0 <g_1859>
   11875:	8b 55 fc             	mov    -0x4(%rbp),%edx
   11878:	48 8d 35 13 2f 00 00 	lea    0x2f13(%rip),%rsi        # 14792 <g_3098+0x22f2>
   1187f:	48 89 c7             	mov    %rax,%rdi
   11882:	e8 6c 4e ff ff       	callq  66f3 <transparent_crc>
   11887:	0f b6 05 6a 5b 00 00 	movzbl 0x5b6a(%rip),%eax        # 173f8 <g_1862>
   1188e:	0f b6 c0             	movzbl %al,%eax
   11891:	8b 55 fc             	mov    -0x4(%rbp),%edx
   11894:	48 8d 35 fe 2e 00 00 	lea    0x2efe(%rip),%rsi        # 14799 <g_3098+0x22f9>
   1189b:	48 89 c7             	mov    %rax,%rdi
   1189e:	e8 50 4e ff ff       	callq  66f3 <transparent_crc>
   118a3:	8b 05 53 5b 00 00    	mov    0x5b53(%rip),%eax        # 173fc <g_1862+0x4>
   118a9:	48 98                	cltq   
   118ab:	8b 55 fc             	mov    -0x4(%rbp),%edx
   118ae:	48 8d 35 f1 2e 00 00 	lea    0x2ef1(%rip),%rsi        # 147a6 <g_3098+0x2306>
   118b5:	48 89 c7             	mov    %rax,%rdi
   118b8:	e8 36 4e ff ff       	callq  66f3 <transparent_crc>
   118bd:	0f b6 05 2c 7f 00 00 	movzbl 0x7f2c(%rip),%eax        # 197f0 <g_2020>
   118c4:	0f b6 c0             	movzbl %al,%eax
   118c7:	8b 55 fc             	mov    -0x4(%rbp),%edx
   118ca:	48 8d 35 e2 2e 00 00 	lea    0x2ee2(%rip),%rsi        # 147b3 <g_3098+0x2313>
   118d1:	48 89 c7             	mov    %rax,%rdi
   118d4:	e8 1a 4e ff ff       	callq  66f3 <transparent_crc>
   118d9:	c7 45 f0 00 00 00 00 	movl   $0x0,-0x10(%rbp)
   118e0:	e9 18 01 00 00       	jmpq   119fd <main+0xc66>
   118e5:	c7 45 f4 00 00 00 00 	movl   $0x0,-0xc(%rbp)
   118ec:	e9 fe 00 00 00       	jmpq   119ef <main+0xc58>
   118f1:	c7 45 f8 00 00 00 00 	movl   $0x0,-0x8(%rbp)
   118f8:	e9 e4 00 00 00       	jmpq   119e1 <main+0xc4a>
   118fd:	8b 45 f8             	mov    -0x8(%rbp),%eax
   11900:	48 63 f0             	movslq %eax,%rsi
   11903:	8b 45 f0             	mov    -0x10(%rbp),%eax
   11906:	48 98                	cltq   
   11908:	8b 55 f4             	mov    -0xc(%rbp),%edx
   1190b:	48 63 ca             	movslq %edx,%rcx
   1190e:	48 89 c2             	mov    %rax,%rdx
   11911:	48 c1 e2 03          	shl    $0x3,%rdx
   11915:	48 01 c2             	add    %rax,%rdx
   11918:	48 8d 04 95 00 00 00 	lea    0x0(,%rdx,4),%rax
   1191f:	00 
   11920:	48 89 c2             	mov    %rax,%rdx
   11923:	48 89 c8             	mov    %rcx,%rax
   11926:	48 01 c0             	add    %rax,%rax
   11929:	48 01 c8             	add    %rcx,%rax
   1192c:	48 01 c0             	add    %rax,%rax
   1192f:	48 01 d0             	add    %rdx,%rax
   11932:	48 01 f0             	add    %rsi,%rax
   11935:	48 8d 14 c5 00 00 00 	lea    0x0(,%rax,8),%rdx
   1193c:	00 
   1193d:	48 8d 05 bc 5a 00 00 	lea    0x5abc(%rip),%rax        # 17400 <g_2027>
   11944:	0f b6 04 02          	movzbl (%rdx,%rax,1),%eax
   11948:	0f b6 c0             	movzbl %al,%eax
   1194b:	8b 55 fc             	mov    -0x4(%rbp),%edx
   1194e:	48 8d 35 68 2e 00 00 	lea    0x2e68(%rip),%rsi        # 147bd <g_3098+0x231d>
   11955:	48 89 c7             	mov    %rax,%rdi
   11958:	e8 96 4d ff ff       	callq  66f3 <transparent_crc>
   1195d:	8b 45 f8             	mov    -0x8(%rbp),%eax
   11960:	48 63 f0             	movslq %eax,%rsi
   11963:	8b 45 f0             	mov    -0x10(%rbp),%eax
   11966:	48 98                	cltq   
   11968:	8b 55 f4             	mov    -0xc(%rbp),%edx
   1196b:	48 63 ca             	movslq %edx,%rcx
   1196e:	48 89 c2             	mov    %rax,%rdx
   11971:	48 c1 e2 03          	shl    $0x3,%rdx
   11975:	48 01 c2             	add    %rax,%rdx
   11978:	48 8d 04 95 00 00 00 	lea    0x0(,%rdx,4),%rax
   1197f:	00 
   11980:	48 89 c2             	mov    %rax,%rdx
   11983:	48 89 c8             	mov    %rcx,%rax
   11986:	48 01 c0             	add    %rax,%rax
   11989:	48 01 c8             	add    %rcx,%rax
   1198c:	48 01 c0             	add    %rax,%rax
   1198f:	48 01 d0             	add    %rdx,%rax
   11992:	48 01 f0             	add    %rsi,%rax
   11995:	48 8d 14 c5 00 00 00 	lea    0x0(,%rax,8),%rdx
   1199c:	00 
   1199d:	48 8d 05 60 5a 00 00 	lea    0x5a60(%rip),%rax        # 17404 <g_2027+0x4>
   119a4:	8b 04 02             	mov    (%rdx,%rax,1),%eax
   119a7:	48 98                	cltq   
   119a9:	8b 55 fc             	mov    -0x4(%rbp),%edx
   119ac:	48 8d 35 20 2e 00 00 	lea    0x2e20(%rip),%rsi        # 147d3 <g_3098+0x2333>
   119b3:	48 89 c7             	mov    %rax,%rdi
   119b6:	e8 38 4d ff ff       	callq  66f3 <transparent_crc>
   119bb:	83 7d fc 00          	cmpl   $0x0,-0x4(%rbp)
   119bf:	74 1c                	je     119dd <main+0xc46>
   119c1:	8b 4d f8             	mov    -0x8(%rbp),%ecx
   119c4:	8b 55 f4             	mov    -0xc(%rbp),%edx
   119c7:	8b 45 f0             	mov    -0x10(%rbp),%eax
   119ca:	89 c6                	mov    %eax,%esi
   119cc:	48 8d 3d 6d 2c 00 00 	lea    0x2c6d(%rip),%rdi        # 14640 <g_3098+0x21a0>
   119d3:	b8 00 00 00 00       	mov    $0x0,%eax
   119d8:	e8 a3 36 ff ff       	callq  5080 <printf@plt>
   119dd:	83 45 f8 01          	addl   $0x1,-0x8(%rbp)
   119e1:	83 7d f8 05          	cmpl   $0x5,-0x8(%rbp)
   119e5:	0f 8e 12 ff ff ff    	jle    118fd <main+0xb66>
   119eb:	83 45 f4 01          	addl   $0x1,-0xc(%rbp)
   119ef:	83 7d f4 05          	cmpl   $0x5,-0xc(%rbp)
   119f3:	0f 8e f8 fe ff ff    	jle    118f1 <main+0xb5a>
   119f9:	83 45 f0 01          	addl   $0x1,-0x10(%rbp)
   119fd:	83 7d f0 03          	cmpl   $0x3,-0x10(%rbp)
   11a01:	0f 8e de fe ff ff    	jle    118e5 <main+0xb4e>
   11a07:	0f b6 05 e4 7d 00 00 	movzbl 0x7de4(%rip),%eax        # 197f2 <g_2031>
   11a0e:	0f b6 c0             	movzbl %al,%eax
   11a11:	8b 55 fc             	mov    -0x4(%rbp),%edx
   11a14:	48 8d 35 ce 2d 00 00 	lea    0x2dce(%rip),%rsi        # 147e9 <g_3098+0x2349>
   11a1b:	48 89 c7             	mov    %rax,%rdi
   11a1e:	e8 d0 4c ff ff       	callq  66f3 <transparent_crc>
   11a23:	8b 05 57 5e 00 00    	mov    0x5e57(%rip),%eax        # 17880 <g_2039>
   11a29:	89 c1                	mov    %eax,%ecx
   11a2b:	8b 45 fc             	mov    -0x4(%rbp),%eax
   11a2e:	89 c2                	mov    %eax,%edx
   11a30:	48 8d 35 bc 2d 00 00 	lea    0x2dbc(%rip),%rsi        # 147f3 <g_3098+0x2353>
   11a37:	48 89 cf             	mov    %rcx,%rdi
   11a3a:	e8 b4 4c ff ff       	callq  66f3 <transparent_crc>
   11a3f:	8b 05 3f 5e 00 00    	mov    0x5e3f(%rip),%eax        # 17884 <g_2087>
   11a45:	89 c1                	mov    %eax,%ecx
   11a47:	8b 45 fc             	mov    -0x4(%rbp),%eax
   11a4a:	89 c2                	mov    %eax,%edx
   11a4c:	48 8d 35 a7 2d 00 00 	lea    0x2da7(%rip),%rsi        # 147fa <g_3098+0x235a>
   11a53:	48 89 cf             	mov    %rcx,%rdi
   11a56:	e8 98 4c ff ff       	callq  66f3 <transparent_crc>
   11a5b:	8b 05 27 5e 00 00    	mov    0x5e27(%rip),%eax        # 17888 <g_2196>
   11a61:	89 c1                	mov    %eax,%ecx
   11a63:	8b 45 fc             	mov    -0x4(%rbp),%eax
   11a66:	89 c2                	mov    %eax,%edx
   11a68:	48 8d 35 92 2d 00 00 	lea    0x2d92(%rip),%rsi        # 14801 <g_3098+0x2361>
   11a6f:	48 89 cf             	mov    %rcx,%rdi
   11a72:	e8 7c 4c ff ff       	callq  66f3 <transparent_crc>
   11a77:	c7 45 f0 00 00 00 00 	movl   $0x0,-0x10(%rbp)
   11a7e:	eb 6c                	jmp    11aec <main+0xd55>
   11a80:	c7 45 f4 00 00 00 00 	movl   $0x0,-0xc(%rbp)
   11a87:	eb 59                	jmp    11ae2 <main+0xd4b>
   11a89:	8b 45 f4             	mov    -0xc(%rbp),%eax
   11a8c:	48 98                	cltq   
   11a8e:	8b 55 f0             	mov    -0x10(%rbp),%edx
   11a91:	48 63 d2             	movslq %edx,%rdx
   11a94:	48 01 d2             	add    %rdx,%rdx
   11a97:	48 01 d0             	add    %rdx,%rax
   11a9a:	48 8d 14 c5 00 00 00 	lea    0x0(,%rax,8),%rdx
   11aa1:	00 
   11aa2:	48 8d 05 f7 5d 00 00 	lea    0x5df7(%rip),%rax        # 178a0 <g_2197>
   11aa9:	48 8b 04 02          	mov    (%rdx,%rax,1),%rax
   11aad:	8b 55 fc             	mov    -0x4(%rbp),%edx
   11ab0:	48 8d 35 51 2d 00 00 	lea    0x2d51(%rip),%rsi        # 14808 <g_3098+0x2368>
   11ab7:	48 89 c7             	mov    %rax,%rdi
   11aba:	e8 34 4c ff ff       	callq  66f3 <transparent_crc>
   11abf:	83 7d fc 00          	cmpl   $0x0,-0x4(%rbp)
   11ac3:	74 19                	je     11ade <main+0xd47>
   11ac5:	8b 55 f4             	mov    -0xc(%rbp),%edx
   11ac8:	8b 45 f0             	mov    -0x10(%rbp),%eax
   11acb:	89 c6                	mov    %eax,%esi
   11acd:	48 8d 3d 79 2a 00 00 	lea    0x2a79(%rip),%rdi        # 1454d <g_3098+0x20ad>
   11ad4:	b8 00 00 00 00       	mov    $0x0,%eax
   11ad9:	e8 a2 35 ff ff       	callq  5080 <printf@plt>
   11ade:	83 45 f4 01          	addl   $0x1,-0xc(%rbp)
   11ae2:	83 7d f4 01          	cmpl   $0x1,-0xc(%rbp)
   11ae6:	7e a1                	jle    11a89 <main+0xcf2>
   11ae8:	83 45 f0 01          	addl   $0x1,-0x10(%rbp)
   11aec:	83 7d f0 02          	cmpl   $0x2,-0x10(%rbp)
   11af0:	7e 8e                	jle    11a80 <main+0xce9>
   11af2:	0f b6 05 fb 7c 00 00 	movzbl 0x7cfb(%rip),%eax        # 197f4 <g_2198>
   11af9:	0f b6 c0             	movzbl %al,%eax
   11afc:	8b 55 fc             	mov    -0x4(%rbp),%edx
   11aff:	48 8d 35 0f 2d 00 00 	lea    0x2d0f(%rip),%rsi        # 14815 <g_3098+0x2375>
   11b06:	48 89 c7             	mov    %rax,%rdi
   11b09:	e8 e5 4b ff ff       	callq  66f3 <transparent_crc>
   11b0e:	8b 05 bc 5d 00 00    	mov    0x5dbc(%rip),%eax        # 178d0 <g_2250>
   11b14:	48 98                	cltq   
   11b16:	8b 55 fc             	mov    -0x4(%rbp),%edx
   11b19:	48 8d 35 fc 2c 00 00 	lea    0x2cfc(%rip),%rsi        # 1481c <g_3098+0x237c>
   11b20:	48 89 c7             	mov    %rax,%rdi
   11b23:	e8 cb 4b ff ff       	callq  66f3 <transparent_crc>
   11b28:	8b 05 a6 5d 00 00    	mov    0x5da6(%rip),%eax        # 178d4 <g_2277>
   11b2e:	89 c1                	mov    %eax,%ecx
   11b30:	8b 45 fc             	mov    -0x4(%rbp),%eax
   11b33:	89 c2                	mov    %eax,%edx
   11b35:	48 8d 35 e7 2c 00 00 	lea    0x2ce7(%rip),%rsi        # 14823 <g_3098+0x2383>
   11b3c:	48 89 cf             	mov    %rcx,%rdi
   11b3f:	e8 af 4b ff ff       	callq  66f3 <transparent_crc>
   11b44:	0f b6 05 3d 09 00 00 	movzbl 0x93d(%rip),%eax        # 12488 <g_2279>
   11b4b:	0f b6 c0             	movzbl %al,%eax
   11b4e:	8b 55 fc             	mov    -0x4(%rbp),%edx
   11b51:	48 8d 35 d2 2c 00 00 	lea    0x2cd2(%rip),%rsi        # 1482a <g_3098+0x238a>
   11b58:	48 89 c7             	mov    %rax,%rdi
   11b5b:	e8 93 4b ff ff       	callq  66f3 <transparent_crc>
   11b60:	8b 05 26 09 00 00    	mov    0x926(%rip),%eax        # 1248c <g_2279+0x4>
   11b66:	48 98                	cltq   
   11b68:	8b 55 fc             	mov    -0x4(%rbp),%edx
   11b6b:	48 8d 35 c5 2c 00 00 	lea    0x2cc5(%rip),%rsi        # 14837 <g_3098+0x2397>
   11b72:	48 89 c7             	mov    %rax,%rdi
   11b75:	e8 79 4b ff ff       	callq  66f3 <transparent_crc>
   11b7a:	0f b6 05 57 5d 00 00 	movzbl 0x5d57(%rip),%eax        # 178d8 <g_2591>
   11b81:	0f b6 c0             	movzbl %al,%eax
   11b84:	8b 55 fc             	mov    -0x4(%rbp),%edx
   11b87:	48 8d 35 b6 2c 00 00 	lea    0x2cb6(%rip),%rsi        # 14844 <g_3098+0x23a4>
   11b8e:	48 89 c7             	mov    %rax,%rdi
   11b91:	e8 5d 4b ff ff       	callq  66f3 <transparent_crc>
   11b96:	8b 05 40 5d 00 00    	mov    0x5d40(%rip),%eax        # 178dc <g_2591+0x4>
   11b9c:	48 98                	cltq   
   11b9e:	8b 55 fc             	mov    -0x4(%rbp),%edx
   11ba1:	48 8d 35 a9 2c 00 00 	lea    0x2ca9(%rip),%rsi        # 14851 <g_3098+0x23b1>
   11ba8:	48 89 c7             	mov    %rax,%rdi
   11bab:	e8 43 4b ff ff       	callq  66f3 <transparent_crc>
   11bb0:	c7 45 f0 00 00 00 00 	movl   $0x0,-0x10(%rbp)
   11bb7:	eb 4a                	jmp    11c03 <main+0xe6c>
   11bb9:	8b 45 f0             	mov    -0x10(%rbp),%eax
   11bbc:	48 98                	cltq   
   11bbe:	48 8d 14 c5 00 00 00 	lea    0x0(,%rax,8),%rdx
   11bc5:	00 
   11bc6:	48 8d 05 13 5d 00 00 	lea    0x5d13(%rip),%rax        # 178e0 <g_2624>
   11bcd:	48 8b 04 02          	mov    (%rdx,%rax,1),%rax
   11bd1:	8b 55 fc             	mov    -0x4(%rbp),%edx
   11bd4:	48 8d 35 83 2c 00 00 	lea    0x2c83(%rip),%rsi        # 1485e <g_3098+0x23be>
   11bdb:	48 89 c7             	mov    %rax,%rdi
   11bde:	e8 10 4b ff ff       	callq  66f3 <transparent_crc>
   11be3:	83 7d fc 00          	cmpl   $0x0,-0x4(%rbp)
   11be7:	74 16                	je     11bff <main+0xe68>
   11be9:	8b 45 f0             	mov    -0x10(%rbp),%eax
   11bec:	89 c6                	mov    %eax,%esi
   11bee:	48 8d 3d ce 29 00 00 	lea    0x29ce(%rip),%rdi        # 145c3 <g_3098+0x2123>
   11bf5:	b8 00 00 00 00       	mov    $0x0,%eax
   11bfa:	e8 81 34 ff ff       	callq  5080 <printf@plt>
   11bff:	83 45 f0 01          	addl   $0x1,-0x10(%rbp)
   11c03:	83 7d f0 03          	cmpl   $0x3,-0x10(%rbp)
   11c07:	7e b0                	jle    11bb9 <main+0xe22>
   11c09:	8b 05 f1 5c 00 00    	mov    0x5cf1(%rip),%eax        # 17900 <g_2689>
   11c0f:	89 c1                	mov    %eax,%ecx
   11c11:	8b 45 fc             	mov    -0x4(%rbp),%eax
   11c14:	89 c2                	mov    %eax,%edx
   11c16:	48 8d 35 4b 2c 00 00 	lea    0x2c4b(%rip),%rsi        # 14868 <g_3098+0x23c8>
   11c1d:	48 89 cf             	mov    %rcx,%rdi
   11c20:	e8 ce 4a ff ff       	callq  66f3 <transparent_crc>
   11c25:	c7 45 f0 00 00 00 00 	movl   $0x0,-0x10(%rbp)
   11c2c:	eb 4e                	jmp    11c7c <main+0xee5>
   11c2e:	8b 45 f0             	mov    -0x10(%rbp),%eax
   11c31:	48 98                	cltq   
   11c33:	48 8d 14 85 00 00 00 	lea    0x0(,%rax,4),%rdx
   11c3a:	00 
   11c3b:	48 8d 05 c6 5c 00 00 	lea    0x5cc6(%rip),%rax        # 17908 <g_2695>
   11c42:	0f b6 04 02          	movzbl (%rdx,%rax,1),%eax
   11c46:	48 0f be c0          	movsbq %al,%rax
   11c4a:	8b 55 fc             	mov    -0x4(%rbp),%edx
   11c4d:	48 8d 35 1b 2c 00 00 	lea    0x2c1b(%rip),%rsi        # 1486f <g_3098+0x23cf>
   11c54:	48 89 c7             	mov    %rax,%rdi
   11c57:	e8 97 4a ff ff       	callq  66f3 <transparent_crc>
   11c5c:	83 7d fc 00          	cmpl   $0x0,-0x4(%rbp)
   11c60:	74 16                	je     11c78 <main+0xee1>
   11c62:	8b 45 f0             	mov    -0x10(%rbp),%eax
   11c65:	89 c6                	mov    %eax,%esi
   11c67:	48 8d 3d 55 29 00 00 	lea    0x2955(%rip),%rdi        # 145c3 <g_3098+0x2123>
   11c6e:	b8 00 00 00 00       	mov    $0x0,%eax
   11c73:	e8 08 34 ff ff       	callq  5080 <printf@plt>
   11c78:	83 45 f0 01          	addl   $0x1,-0x10(%rbp)
   11c7c:	83 7d f0 01          	cmpl   $0x1,-0x10(%rbp)
   11c80:	7e ac                	jle    11c2e <main+0xe97>
   11c82:	0f b6 05 87 5c 00 00 	movzbl 0x5c87(%rip),%eax        # 17910 <g_2889>
   11c89:	0f b6 c0             	movzbl %al,%eax
   11c8c:	8b 55 fc             	mov    -0x4(%rbp),%edx
   11c8f:	48 8d 35 e6 2b 00 00 	lea    0x2be6(%rip),%rsi        # 1487c <g_3098+0x23dc>
   11c96:	48 89 c7             	mov    %rax,%rdi
   11c99:	e8 55 4a ff ff       	callq  66f3 <transparent_crc>
   11c9e:	0f b6 05 73 5c 00 00 	movzbl 0x5c73(%rip),%eax        # 17918 <g_2921>
   11ca5:	0f b6 c0             	movzbl %al,%eax
   11ca8:	8b 55 fc             	mov    -0x4(%rbp),%edx
   11cab:	48 8d 35 d1 2b 00 00 	lea    0x2bd1(%rip),%rsi        # 14883 <g_3098+0x23e3>
   11cb2:	48 89 c7             	mov    %rax,%rdi
   11cb5:	e8 39 4a ff ff       	callq  66f3 <transparent_crc>
   11cba:	8b 05 5c 5c 00 00    	mov    0x5c5c(%rip),%eax        # 1791c <g_2921+0x4>
   11cc0:	48 98                	cltq   
   11cc2:	8b 55 fc             	mov    -0x4(%rbp),%edx
   11cc5:	48 8d 35 c4 2b 00 00 	lea    0x2bc4(%rip),%rsi        # 14890 <g_3098+0x23f0>
   11ccc:	48 89 c7             	mov    %rax,%rdi
   11ccf:	e8 1f 4a ff ff       	callq  66f3 <transparent_crc>
   11cd4:	0f b6 05 45 5c 00 00 	movzbl 0x5c45(%rip),%eax        # 17920 <g_2983>
   11cdb:	0f b6 c0             	movzbl %al,%eax
   11cde:	8b 55 fc             	mov    -0x4(%rbp),%edx
   11ce1:	48 8d 35 b5 2b 00 00 	lea    0x2bb5(%rip),%rsi        # 1489d <g_3098+0x23fd>
   11ce8:	48 89 c7             	mov    %rax,%rdi
   11ceb:	e8 03 4a ff ff       	callq  66f3 <transparent_crc>
   11cf0:	0f b6 05 31 5c 00 00 	movzbl 0x5c31(%rip),%eax        # 17928 <g_3004>
   11cf7:	0f b6 c0             	movzbl %al,%eax
   11cfa:	8b 55 fc             	mov    -0x4(%rbp),%edx
   11cfd:	48 8d 35 a0 2b 00 00 	lea    0x2ba0(%rip),%rsi        # 148a4 <g_3098+0x2404>
   11d04:	48 89 c7             	mov    %rax,%rdi
   11d07:	e8 e7 49 ff ff       	callq  66f3 <transparent_crc>
   11d0c:	8b 05 1a 5c 00 00    	mov    0x5c1a(%rip),%eax        # 1792c <g_3004+0x4>
   11d12:	48 98                	cltq   
   11d14:	8b 55 fc             	mov    -0x4(%rbp),%edx
   11d17:	48 8d 35 93 2b 00 00 	lea    0x2b93(%rip),%rsi        # 148b1 <g_3098+0x2411>
   11d1e:	48 89 c7             	mov    %rax,%rdi
   11d21:	e8 cd 49 ff ff       	callq  66f3 <transparent_crc>
   11d26:	48 8b 05 03 5c 00 00 	mov    0x5c03(%rip),%rax        # 17930 <g_3014>
   11d2d:	48 89 c1             	mov    %rax,%rcx
   11d30:	8b 45 fc             	mov    -0x4(%rbp),%eax
   11d33:	89 c2                	mov    %eax,%edx
   11d35:	48 8d 35 82 2b 00 00 	lea    0x2b82(%rip),%rsi        # 148be <g_3098+0x241e>
   11d3c:	48 89 cf             	mov    %rcx,%rdi
   11d3f:	e8 af 49 ff ff       	callq  66f3 <transparent_crc>
   11d44:	0f b6 05 ed 5b 00 00 	movzbl 0x5bed(%rip),%eax        # 17938 <g_3050>
   11d4b:	0f b6 c0             	movzbl %al,%eax
   11d4e:	8b 55 fc             	mov    -0x4(%rbp),%edx
   11d51:	48 8d 35 6d 2b 00 00 	lea    0x2b6d(%rip),%rsi        # 148c5 <g_3098+0x2425>
   11d58:	48 89 c7             	mov    %rax,%rdi
   11d5b:	e8 93 49 ff ff       	callq  66f3 <transparent_crc>
   11d60:	8b 05 d6 5b 00 00    	mov    0x5bd6(%rip),%eax        # 1793c <g_3050+0x4>
   11d66:	48 98                	cltq   
   11d68:	8b 55 fc             	mov    -0x4(%rbp),%edx
   11d6b:	48 8d 35 60 2b 00 00 	lea    0x2b60(%rip),%rsi        # 148d2 <g_3098+0x2432>
   11d72:	48 89 c7             	mov    %rax,%rdi
   11d75:	e8 79 49 ff ff       	callq  66f3 <transparent_crc>
   11d7a:	c7 45 f0 00 00 00 00 	movl   $0x0,-0x10(%rbp)
   11d81:	eb 78                	jmp    11dfb <main+0x1064>
   11d83:	8b 45 f0             	mov    -0x10(%rbp),%eax
   11d86:	48 98                	cltq   
   11d88:	48 8d 14 c5 00 00 00 	lea    0x0(,%rax,8),%rdx
   11d8f:	00 
   11d90:	48 8d 05 09 07 00 00 	lea    0x709(%rip),%rax        # 124a0 <g_3098>
   11d97:	0f b6 04 02          	movzbl (%rdx,%rax,1),%eax
   11d9b:	0f b6 c0             	movzbl %al,%eax
   11d9e:	8b 55 fc             	mov    -0x4(%rbp),%edx
   11da1:	48 8d 35 37 2b 00 00 	lea    0x2b37(%rip),%rsi        # 148df <g_3098+0x243f>
   11da8:	48 89 c7             	mov    %rax,%rdi
   11dab:	e8 43 49 ff ff       	callq  66f3 <transparent_crc>
   11db0:	8b 45 f0             	mov    -0x10(%rbp),%eax
   11db3:	48 98                	cltq   
   11db5:	48 8d 14 c5 00 00 00 	lea    0x0(,%rax,8),%rdx
   11dbc:	00 
   11dbd:	48 8d 05 e0 06 00 00 	lea    0x6e0(%rip),%rax        # 124a4 <g_3098+0x4>
   11dc4:	8b 04 02             	mov    (%rdx,%rax,1),%eax
   11dc7:	48 98                	cltq   
   11dc9:	8b 55 fc             	mov    -0x4(%rbp),%edx
   11dcc:	48 8d 35 1c 2b 00 00 	lea    0x2b1c(%rip),%rsi        # 148ef <g_3098+0x244f>
   11dd3:	48 89 c7             	mov    %rax,%rdi
   11dd6:	e8 18 49 ff ff       	callq  66f3 <transparent_crc>
   11ddb:	83 7d fc 00          	cmpl   $0x0,-0x4(%rbp)
   11ddf:	74 16                	je     11df7 <main+0x1060>
   11de1:	8b 45 f0             	mov    -0x10(%rbp),%eax
   11de4:	89 c6                	mov    %eax,%esi
   11de6:	48 8d 3d d6 27 00 00 	lea    0x27d6(%rip),%rdi        # 145c3 <g_3098+0x2123>
   11ded:	b8 00 00 00 00       	mov    $0x0,%eax
   11df2:	e8 89 32 ff ff       	callq  5080 <printf@plt>
   11df7:	83 45 f0 01          	addl   $0x1,-0x10(%rbp)
   11dfb:	83 7d f0 05          	cmpl   $0x5,-0x10(%rbp)
   11dff:	7e 82                	jle    11d83 <main+0xfec>
   11e01:	8b 05 11 7a 00 00    	mov    0x7a11(%rip),%eax        # 19818 <g_3103>
   11e07:	89 c1                	mov    %eax,%ecx
   11e09:	8b 45 fc             	mov    -0x4(%rbp),%eax
   11e0c:	89 c2                	mov    %eax,%edx
   11e0e:	48 8d 35 ea 2a 00 00 	lea    0x2aea(%rip),%rsi        # 148ff <g_3098+0x245f>
   11e15:	48 89 cf             	mov    %rcx,%rdi
   11e18:	e8 d6 48 ff ff       	callq  66f3 <transparent_crc>
   11e1d:	48 8b 05 f4 79 00 00 	mov    0x79f4(%rip),%rax        # 19818 <g_3103>
   11e24:	66 25 ff 1f          	and    $0x1fff,%ax
   11e28:	0f b7 c0             	movzwl %ax,%eax
   11e2b:	8b 55 fc             	mov    -0x4(%rbp),%edx
   11e2e:	48 8d 35 d4 2a 00 00 	lea    0x2ad4(%rip),%rsi        # 14909 <g_3098+0x2469>
   11e35:	48 89 c7             	mov    %rax,%rdi
   11e38:	e8 b6 48 ff ff       	callq  66f3 <transparent_crc>
   11e3d:	0f b6 05 d4 79 00 00 	movzbl 0x79d4(%rip),%eax        # 19818 <g_3103>
   11e44:	0f b6 c0             	movzbl %al,%eax
   11e47:	8b 55 fc             	mov    -0x4(%rbp),%edx
   11e4a:	48 8d 35 c2 2a 00 00 	lea    0x2ac2(%rip),%rsi        # 14913 <g_3098+0x2473>
   11e51:	48 89 c7             	mov    %rax,%rdi
   11e54:	e8 9a 48 ff ff       	callq  66f3 <transparent_crc>
   11e59:	8b 05 b9 79 00 00    	mov    0x79b9(%rip),%eax        # 19818 <g_3103>
   11e5f:	48 98                	cltq   
   11e61:	8b 55 fc             	mov    -0x4(%rbp),%edx
   11e64:	48 8d 35 b2 2a 00 00 	lea    0x2ab2(%rip),%rsi        # 1491d <g_3098+0x247d>
   11e6b:	48 89 c7             	mov    %rax,%rdi
   11e6e:	e8 80 48 ff ff       	callq  66f3 <transparent_crc>
   11e73:	0f b6 05 a6 79 00 00 	movzbl 0x79a6(%rip),%eax        # 19820 <g_3109>
   11e7a:	48 0f be c0          	movsbq %al,%rax
   11e7e:	8b 55 fc             	mov    -0x4(%rbp),%edx
   11e81:	48 8d 35 9f 2a 00 00 	lea    0x2a9f(%rip),%rsi        # 14927 <g_3098+0x2487>
   11e88:	48 89 c7             	mov    %rax,%rdi
   11e8b:	e8 63 48 ff ff       	callq  66f3 <transparent_crc>
   11e90:	0f b6 05 a9 5a 00 00 	movzbl 0x5aa9(%rip),%eax        # 17940 <g_3234>
   11e97:	0f b6 c0             	movzbl %al,%eax
   11e9a:	8b 55 fc             	mov    -0x4(%rbp),%edx
   11e9d:	48 8d 35 8d 2a 00 00 	lea    0x2a8d(%rip),%rsi        # 14931 <g_3098+0x2491>
   11ea4:	48 89 c7             	mov    %rax,%rdi
   11ea7:	e8 47 48 ff ff       	callq  66f3 <transparent_crc>
   11eac:	8b 05 92 5a 00 00    	mov    0x5a92(%rip),%eax        # 17944 <g_3234+0x4>
   11eb2:	48 98                	cltq   
   11eb4:	8b 55 fc             	mov    -0x4(%rbp),%edx
   11eb7:	48 8d 35 80 2a 00 00 	lea    0x2a80(%rip),%rsi        # 1493e <g_3098+0x249e>
   11ebe:	48 89 c7             	mov    %rax,%rdi
   11ec1:	e8 2d 48 ff ff       	callq  66f3 <transparent_crc>
   11ec6:	0f b6 05 7b 5a 00 00 	movzbl 0x5a7b(%rip),%eax        # 17948 <g_3250>
   11ecd:	0f b6 c0             	movzbl %al,%eax
   11ed0:	8b 55 fc             	mov    -0x4(%rbp),%edx
   11ed3:	48 8d 35 71 2a 00 00 	lea    0x2a71(%rip),%rsi        # 1494b <g_3098+0x24ab>
   11eda:	48 89 c7             	mov    %rax,%rdi
   11edd:	e8 11 48 ff ff       	callq  66f3 <transparent_crc>
   11ee2:	8b 05 64 5a 00 00    	mov    0x5a64(%rip),%eax        # 1794c <g_3250+0x4>
   11ee8:	48 98                	cltq   
   11eea:	8b 55 fc             	mov    -0x4(%rbp),%edx
   11eed:	48 8d 35 64 2a 00 00 	lea    0x2a64(%rip),%rsi        # 14958 <g_3098+0x24b8>
   11ef4:	48 89 c7             	mov    %rax,%rdi
   11ef7:	e8 f7 47 ff ff       	callq  66f3 <transparent_crc>
   11efc:	0f b6 05 21 79 00 00 	movzbl 0x7921(%rip),%eax        # 19824 <g_3382>
   11f03:	0f b6 c0             	movzbl %al,%eax
   11f06:	8b 55 fc             	mov    -0x4(%rbp),%edx
   11f09:	48 8d 35 55 2a 00 00 	lea    0x2a55(%rip),%rsi        # 14965 <g_3098+0x24c5>
   11f10:	48 89 c7             	mov    %rax,%rdi
   11f13:	e8 db 47 ff ff       	callq  66f3 <transparent_crc>
   11f18:	0f b6 05 31 5a 00 00 	movzbl 0x5a31(%rip),%eax        # 17950 <g_3392>
   11f1f:	0f b6 c0             	movzbl %al,%eax
   11f22:	8b 55 fc             	mov    -0x4(%rbp),%edx
   11f25:	48 8d 35 40 2a 00 00 	lea    0x2a40(%rip),%rsi        # 1496c <g_3098+0x24cc>
   11f2c:	48 89 c7             	mov    %rax,%rdi
   11f2f:	e8 bf 47 ff ff       	callq  66f3 <transparent_crc>
   11f34:	8b 05 1a 5a 00 00    	mov    0x5a1a(%rip),%eax        # 17954 <g_3415>
   11f3a:	48 98                	cltq   
   11f3c:	8b 55 fc             	mov    -0x4(%rbp),%edx
   11f3f:	48 8d 35 2d 2a 00 00 	lea    0x2a2d(%rip),%rsi        # 14973 <g_3098+0x24d3>
   11f46:	48 89 c7             	mov    %rax,%rdi
   11f49:	e8 a5 47 ff ff       	callq  66f3 <transparent_crc>
   11f4e:	8b 05 cc 50 00 00    	mov    0x50cc(%rip),%eax        # 17020 <crc32_context>
   11f54:	f7 d0                	not    %eax
   11f56:	89 c2                	mov    %eax,%edx
   11f58:	8b 45 fc             	mov    -0x4(%rbp),%eax
   11f5b:	89 c6                	mov    %eax,%esi
   11f5d:	89 d7                	mov    %edx,%edi
   11f5f:	e8 30 32 ff ff       	callq  5194 <platform_main_end>
   11f64:	b8 00 00 00 00       	mov    $0x0,%eax
   11f69:	c9                   	leaveq 
   11f6a:	c3                   	retq   
   11f6b:	0f 1f 44 00 00       	nopl   0x0(%rax,%rax,1)

0000000000011f70 <__libc_csu_init>:
   11f70:	f3 0f 1e fa          	endbr64 
   11f74:	41 57                	push   %r15
   11f76:	4c 8d 3d 33 4d 00 00 	lea    0x4d33(%rip),%r15        # 16cb0 <__frame_dummy_init_array_entry>
   11f7d:	41 56                	push   %r14
   11f7f:	49 89 d6             	mov    %rdx,%r14
   11f82:	41 55                	push   %r13
   11f84:	49 89 f5             	mov    %rsi,%r13
   11f87:	41 54                	push   %r12
   11f89:	41 89 fc             	mov    %edi,%r12d
   11f8c:	55                   	push   %rbp
   11f8d:	48 8d 2d 24 4d 00 00 	lea    0x4d24(%rip),%rbp        # 16cb8 <__do_global_dtors_aux_fini_array_entry>
   11f94:	53                   	push   %rbx
   11f95:	4c 29 fd             	sub    %r15,%rbp
   11f98:	48 83 ec 08          	sub    $0x8,%rsp
   11f9c:	e8 5f 30 ff ff       	callq  5000 <_init>
   11fa1:	48 c1 fd 03          	sar    $0x3,%rbp
   11fa5:	74 1f                	je     11fc6 <__libc_csu_init+0x56>
   11fa7:	31 db                	xor    %ebx,%ebx
   11fa9:	0f 1f 80 00 00 00 00 	nopl   0x0(%rax)
   11fb0:	4c 89 f2             	mov    %r14,%rdx
   11fb3:	4c 89 ee             	mov    %r13,%rsi
   11fb6:	44 89 e7             	mov    %r12d,%edi
   11fb9:	41 ff 14 df          	callq  *(%r15,%rbx,8)
   11fbd:	48 83 c3 01          	add    $0x1,%rbx
   11fc1:	48 39 dd             	cmp    %rbx,%rbp
   11fc4:	75 ea                	jne    11fb0 <__libc_csu_init+0x40>
   11fc6:	48 83 c4 08          	add    $0x8,%rsp
   11fca:	5b                   	pop    %rbx
   11fcb:	5d                   	pop    %rbp
   11fcc:	41 5c                	pop    %r12
   11fce:	41 5d                	pop    %r13
   11fd0:	41 5e                	pop    %r14
   11fd2:	41 5f                	pop    %r15
   11fd4:	c3                   	retq   
   11fd5:	66 66 2e 0f 1f 84 00 	data16 nopw %cs:0x0(%rax,%rax,1)
   11fdc:	00 00 00 00 

0000000000011fe0 <__libc_csu_fini>:
   11fe0:	f3 0f 1e fa          	endbr64 
   11fe4:	c3                   	retq   
