


Disassembly of section .text:

00000000000050a0 <_start>:
    50a0:	f3 0f 1e fa          	endbr64 
    50a4:	31 ed                	xor    %ebp,%ebp
    50a6:	49 89 d1             	mov    %rdx,%r9
    50a9:	5e                   	pop    %rsi
    50aa:	48 89 e2             	mov    %rsp,%rdx
    50ad:	48 83 e4 f0          	and    $0xfffffffffffffff0,%rsp
    50b1:	50                   	push   %rax
    50b2:	54                   	push   %rsp
    50b3:	4c 8d 05 06 9a 00 00 	lea    0x9a06(%rip),%r8        # eac0 <__libc_csu_fini>
    50ba:	48 8d 0d 8f 99 00 00 	lea    0x998f(%rip),%rcx        # ea50 <__libc_csu_init>
    50c1:	48 8d 3d 56 6f 00 00 	lea    0x6f56(%rip),%rdi        # c01e <main>
    50c8:	ff 15 12 ef 00 00    	callq  *0xef12(%rip)        # 13fe0 <__libc_start_main@GLIBC_2.2.5>
    50ce:	f4                   	hlt    
    50cf:	90                   	nop

00000000000050d0 <deregister_tm_clones>:
    50d0:	48 8d 3d 31 15 01 00 	lea    0x11531(%rip),%rdi        # 16608 <__TMC_END__>
    50d7:	48 8d 05 2a 15 01 00 	lea    0x1152a(%rip),%rax        # 16608 <__TMC_END__>
    50de:	48 39 f8             	cmp    %rdi,%rax
    50e1:	74 15                	je     50f8 <deregister_tm_clones+0x28>
    50e3:	48 8b 05 ee ee 00 00 	mov    0xeeee(%rip),%rax        # 13fd8 <_ITM_deregisterTMCloneTable>
    50ea:	48 85 c0             	test   %rax,%rax
    50ed:	74 09                	je     50f8 <deregister_tm_clones+0x28>
    50ef:	ff e0                	jmpq   *%rax
    50f1:	0f 1f 80 00 00 00 00 	nopl   0x0(%rax)
    50f8:	c3                   	retq   
    50f9:	0f 1f 80 00 00 00 00 	nopl   0x0(%rax)

0000000000005100 <register_tm_clones>:
    5100:	48 8d 3d 01 15 01 00 	lea    0x11501(%rip),%rdi        # 16608 <__TMC_END__>
    5107:	48 8d 35 fa 14 01 00 	lea    0x114fa(%rip),%rsi        # 16608 <__TMC_END__>
    510e:	48 29 fe             	sub    %rdi,%rsi
    5111:	48 89 f0             	mov    %rsi,%rax
    5114:	48 c1 ee 3f          	shr    $0x3f,%rsi
    5118:	48 c1 f8 03          	sar    $0x3,%rax
    511c:	48 01 c6             	add    %rax,%rsi
    511f:	48 d1 fe             	sar    %rsi
    5122:	74 14                	je     5138 <register_tm_clones+0x38>
    5124:	48 8b 05 c5 ee 00 00 	mov    0xeec5(%rip),%rax        # 13ff0 <_ITM_registerTMCloneTable>
    512b:	48 85 c0             	test   %rax,%rax
    512e:	74 08                	je     5138 <register_tm_clones+0x38>
    5130:	ff e0                	jmpq   *%rax
    5132:	66 0f 1f 44 00 00    	nopw   0x0(%rax,%rax,1)
    5138:	c3                   	retq   
    5139:	0f 1f 80 00 00 00 00 	nopl   0x0(%rax)

0000000000005140 <__do_global_dtors_aux>:
    5140:	f3 0f 1e fa          	endbr64 
    5144:	80 3d d5 14 01 00 00 	cmpb   $0x0,0x114d5(%rip)        # 16620 <completed.8061>
    514b:	75 2b                	jne    5178 <__do_global_dtors_aux+0x38>
    514d:	55                   	push   %rbp
    514e:	48 83 3d a2 ee 00 00 	cmpq   $0x0,0xeea2(%rip)        # 13ff8 <__cxa_finalize@GLIBC_2.2.5>
    5155:	00 
    5156:	48 89 e5             	mov    %rsp,%rbp
    5159:	74 0c                	je     5167 <__do_global_dtors_aux+0x27>
    515b:	48 8b 3d a6 ee 00 00 	mov    0xeea6(%rip),%rdi        # 14008 <__dso_handle>
    5162:	e8 f9 fe ff ff       	callq  5060 <__cxa_finalize@plt>
    5167:	e8 64 ff ff ff       	callq  50d0 <deregister_tm_clones>
    516c:	c6 05 ad 14 01 00 01 	movb   $0x1,0x114ad(%rip)        # 16620 <completed.8061>
    5173:	5d                   	pop    %rbp
    5174:	c3                   	retq   
    5175:	0f 1f 00             	nopl   (%rax)
    5178:	c3                   	retq   
    5179:	0f 1f 80 00 00 00 00 	nopl   0x0(%rax)

0000000000005180 <frame_dummy>:
    5180:	f3 0f 1e fa          	endbr64 
    5184:	e9 77 ff ff ff       	jmpq   5100 <register_tm_clones>

0000000000005189 <platform_main_begin>:
    5189:	f3 0f 1e fa          	endbr64 
    518d:	55                   	push   %rbp
    518e:	48 89 e5             	mov    %rsp,%rbp
    5191:	90                   	nop
    5192:	5d                   	pop    %rbp
    5193:	c3                   	retq   

0000000000005194 <platform_main_end>:
    5194:	f3 0f 1e fa          	endbr64 
    5198:	55                   	push   %rbp
    5199:	48 89 e5             	mov    %rsp,%rbp
    519c:	48 83 ec 10          	sub    $0x10,%rsp
    51a0:	89 7d fc             	mov    %edi,-0x4(%rbp)
    51a3:	89 75 f8             	mov    %esi,-0x8(%rbp)
    51a6:	8b 45 fc             	mov    -0x4(%rbp),%eax
    51a9:	89 c6                	mov    %eax,%esi
    51ab:	48 8d 3d 6e 9e 00 00 	lea    0x9e6e(%rip),%rdi        # f020 <_IO_stdin_used+0x20>
    51b2:	b8 00 00 00 00       	mov    $0x0,%eax
    51b7:	e8 c4 fe ff ff       	callq  5080 <printf@plt>
    51bc:	90                   	nop
    51bd:	c9                   	leaveq 
    51be:	c3                   	retq   

00000000000051bf <safe_unary_minus_func_int8_t_s>:
    51bf:	f3 0f 1e fa          	endbr64 
    51c3:	55                   	push   %rbp
    51c4:	48 89 e5             	mov    %rsp,%rbp
    51c7:	89 f8                	mov    %edi,%eax
    51c9:	88 45 fc             	mov    %al,-0x4(%rbp)
    51cc:	0f b6 45 fc          	movzbl -0x4(%rbp),%eax
    51d0:	f7 d8                	neg    %eax
    51d2:	5d                   	pop    %rbp
    51d3:	c3                   	retq   

00000000000051d4 <safe_add_func_int8_t_s_s>:
    51d4:	f3 0f 1e fa          	endbr64 
    51d8:	55                   	push   %rbp
    51d9:	48 89 e5             	mov    %rsp,%rbp
    51dc:	89 fa                	mov    %edi,%edx
    51de:	89 f0                	mov    %esi,%eax
    51e0:	88 55 fc             	mov    %dl,-0x4(%rbp)
    51e3:	88 45 f8             	mov    %al,-0x8(%rbp)
    51e6:	0f b6 55 fc          	movzbl -0x4(%rbp),%edx
    51ea:	0f b6 45 f8          	movzbl -0x8(%rbp),%eax
    51ee:	01 d0                	add    %edx,%eax
    51f0:	5d                   	pop    %rbp
    51f1:	c3                   	retq   

00000000000051f2 <safe_sub_func_int8_t_s_s>:
    51f2:	f3 0f 1e fa          	endbr64 
    51f6:	55                   	push   %rbp
    51f7:	48 89 e5             	mov    %rsp,%rbp
    51fa:	89 fa                	mov    %edi,%edx
    51fc:	89 f0                	mov    %esi,%eax
    51fe:	88 55 fc             	mov    %dl,-0x4(%rbp)
    5201:	88 45 f8             	mov    %al,-0x8(%rbp)
    5204:	0f b6 55 fc          	movzbl -0x4(%rbp),%edx
    5208:	0f b6 45 f8          	movzbl -0x8(%rbp),%eax
    520c:	29 c2                	sub    %eax,%edx
    520e:	89 d0                	mov    %edx,%eax
    5210:	5d                   	pop    %rbp
    5211:	c3                   	retq   

0000000000005212 <safe_mul_func_int8_t_s_s>:
    5212:	f3 0f 1e fa          	endbr64 
    5216:	55                   	push   %rbp
    5217:	48 89 e5             	mov    %rsp,%rbp
    521a:	89 fa                	mov    %edi,%edx
    521c:	89 f0                	mov    %esi,%eax
    521e:	88 55 fc             	mov    %dl,-0x4(%rbp)
    5221:	88 45 f8             	mov    %al,-0x8(%rbp)
    5224:	0f b6 45 fc          	movzbl -0x4(%rbp),%eax
    5228:	0f b6 55 f8          	movzbl -0x8(%rbp),%edx
    522c:	0f af c2             	imul   %edx,%eax
    522f:	5d                   	pop    %rbp
    5230:	c3                   	retq   

0000000000005231 <safe_mod_func_int8_t_s_s>:
    5231:	f3 0f 1e fa          	endbr64 
    5235:	55                   	push   %rbp
    5236:	48 89 e5             	mov    %rsp,%rbp
    5239:	89 fa                	mov    %edi,%edx
    523b:	89 f0                	mov    %esi,%eax
    523d:	88 55 fc             	mov    %dl,-0x4(%rbp)
    5240:	88 45 f8             	mov    %al,-0x8(%rbp)
    5243:	80 7d f8 00          	cmpb   $0x0,-0x8(%rbp)
    5247:	74 1b                	je     5264 <safe_mod_func_int8_t_s_s+0x33>
    5249:	80 7d fc 80          	cmpb   $0x80,-0x4(%rbp)
    524d:	75 06                	jne    5255 <safe_mod_func_int8_t_s_s+0x24>
    524f:	80 7d f8 ff          	cmpb   $0xff,-0x8(%rbp)
    5253:	74 0f                	je     5264 <safe_mod_func_int8_t_s_s+0x33>
    5255:	0f be 45 fc          	movsbl -0x4(%rbp),%eax
    5259:	0f be 4d f8          	movsbl -0x8(%rbp),%ecx
    525d:	99                   	cltd   
    525e:	f7 f9                	idiv   %ecx
    5260:	89 d0                	mov    %edx,%eax
    5262:	eb 04                	jmp    5268 <safe_mod_func_int8_t_s_s+0x37>
    5264:	0f b6 45 fc          	movzbl -0x4(%rbp),%eax
    5268:	5d                   	pop    %rbp
    5269:	c3                   	retq   

000000000000526a <safe_div_func_int8_t_s_s>:
    526a:	f3 0f 1e fa          	endbr64 
    526e:	55                   	push   %rbp
    526f:	48 89 e5             	mov    %rsp,%rbp
    5272:	89 fa                	mov    %edi,%edx
    5274:	89 f0                	mov    %esi,%eax
    5276:	88 55 fc             	mov    %dl,-0x4(%rbp)
    5279:	88 45 f8             	mov    %al,-0x8(%rbp)
    527c:	80 7d f8 00          	cmpb   $0x0,-0x8(%rbp)
    5280:	74 19                	je     529b <safe_div_func_int8_t_s_s+0x31>
    5282:	80 7d fc 80          	cmpb   $0x80,-0x4(%rbp)
    5286:	75 06                	jne    528e <safe_div_func_int8_t_s_s+0x24>
    5288:	80 7d f8 ff          	cmpb   $0xff,-0x8(%rbp)
    528c:	74 0d                	je     529b <safe_div_func_int8_t_s_s+0x31>
    528e:	0f be 45 fc          	movsbl -0x4(%rbp),%eax
    5292:	0f be 4d f8          	movsbl -0x8(%rbp),%ecx
    5296:	99                   	cltd   
    5297:	f7 f9                	idiv   %ecx
    5299:	eb 04                	jmp    529f <safe_div_func_int8_t_s_s+0x35>
    529b:	0f b6 45 fc          	movzbl -0x4(%rbp),%eax
    529f:	5d                   	pop    %rbp
    52a0:	c3                   	retq   

00000000000052a1 <safe_lshift_func_int8_t_s_s>:
    52a1:	f3 0f 1e fa          	endbr64 
    52a5:	55                   	push   %rbp
    52a6:	48 89 e5             	mov    %rsp,%rbp
    52a9:	89 f8                	mov    %edi,%eax
    52ab:	89 75 f8             	mov    %esi,-0x8(%rbp)
    52ae:	88 45 fc             	mov    %al,-0x4(%rbp)
    52b1:	80 7d fc 00          	cmpb   $0x0,-0x4(%rbp)
    52b5:	78 31                	js     52e8 <safe_lshift_func_int8_t_s_s+0x47>
    52b7:	83 7d f8 00          	cmpl   $0x0,-0x8(%rbp)
    52bb:	78 2b                	js     52e8 <safe_lshift_func_int8_t_s_s+0x47>
    52bd:	83 7d f8 1f          	cmpl   $0x1f,-0x8(%rbp)
    52c1:	7f 25                	jg     52e8 <safe_lshift_func_int8_t_s_s+0x47>
    52c3:	0f be 55 fc          	movsbl -0x4(%rbp),%edx
    52c7:	8b 45 f8             	mov    -0x8(%rbp),%eax
    52ca:	be 7f 00 00 00       	mov    $0x7f,%esi
    52cf:	89 c1                	mov    %eax,%ecx
    52d1:	d3 fe                	sar    %cl,%esi
    52d3:	89 f0                	mov    %esi,%eax
    52d5:	39 c2                	cmp    %eax,%edx
    52d7:	7f 0f                	jg     52e8 <safe_lshift_func_int8_t_s_s+0x47>
    52d9:	0f be 55 fc          	movsbl -0x4(%rbp),%edx
    52dd:	8b 45 f8             	mov    -0x8(%rbp),%eax
    52e0:	89 c1                	mov    %eax,%ecx
    52e2:	d3 e2                	shl    %cl,%edx
    52e4:	89 d0                	mov    %edx,%eax
    52e6:	eb 04                	jmp    52ec <safe_lshift_func_int8_t_s_s+0x4b>
    52e8:	0f b6 45 fc          	movzbl -0x4(%rbp),%eax
    52ec:	5d                   	pop    %rbp
    52ed:	c3                   	retq   

00000000000052ee <safe_lshift_func_int8_t_s_u>:
    52ee:	f3 0f 1e fa          	endbr64 
    52f2:	55                   	push   %rbp
    52f3:	48 89 e5             	mov    %rsp,%rbp
    52f6:	89 f8                	mov    %edi,%eax
    52f8:	89 75 f8             	mov    %esi,-0x8(%rbp)
    52fb:	88 45 fc             	mov    %al,-0x4(%rbp)
    52fe:	80 7d fc 00          	cmpb   $0x0,-0x4(%rbp)
    5302:	78 2b                	js     532f <safe_lshift_func_int8_t_s_u+0x41>
    5304:	83 7d f8 1f          	cmpl   $0x1f,-0x8(%rbp)
    5308:	77 25                	ja     532f <safe_lshift_func_int8_t_s_u+0x41>
    530a:	0f be 55 fc          	movsbl -0x4(%rbp),%edx
    530e:	8b 45 f8             	mov    -0x8(%rbp),%eax
    5311:	be 7f 00 00 00       	mov    $0x7f,%esi
    5316:	89 c1                	mov    %eax,%ecx
    5318:	d3 fe                	sar    %cl,%esi
    531a:	89 f0                	mov    %esi,%eax
    531c:	39 c2                	cmp    %eax,%edx
    531e:	7f 0f                	jg     532f <safe_lshift_func_int8_t_s_u+0x41>
    5320:	0f be 55 fc          	movsbl -0x4(%rbp),%edx
    5324:	8b 45 f8             	mov    -0x8(%rbp),%eax
    5327:	89 c1                	mov    %eax,%ecx
    5329:	d3 e2                	shl    %cl,%edx
    532b:	89 d0                	mov    %edx,%eax
    532d:	eb 04                	jmp    5333 <safe_lshift_func_int8_t_s_u+0x45>
    532f:	0f b6 45 fc          	movzbl -0x4(%rbp),%eax
    5333:	5d                   	pop    %rbp
    5334:	c3                   	retq   

0000000000005335 <safe_rshift_func_int8_t_s_s>:
    5335:	f3 0f 1e fa          	endbr64 
    5339:	55                   	push   %rbp
    533a:	48 89 e5             	mov    %rsp,%rbp
    533d:	89 f8                	mov    %edi,%eax
    533f:	89 75 f8             	mov    %esi,-0x8(%rbp)
    5342:	88 45 fc             	mov    %al,-0x4(%rbp)
    5345:	80 7d fc 00          	cmpb   $0x0,-0x4(%rbp)
    5349:	78 1b                	js     5366 <safe_rshift_func_int8_t_s_s+0x31>
    534b:	83 7d f8 00          	cmpl   $0x0,-0x8(%rbp)
    534f:	78 15                	js     5366 <safe_rshift_func_int8_t_s_s+0x31>
    5351:	83 7d f8 1f          	cmpl   $0x1f,-0x8(%rbp)
    5355:	7f 0f                	jg     5366 <safe_rshift_func_int8_t_s_s+0x31>
    5357:	0f be 55 fc          	movsbl -0x4(%rbp),%edx
    535b:	8b 45 f8             	mov    -0x8(%rbp),%eax
    535e:	89 c1                	mov    %eax,%ecx
    5360:	d3 fa                	sar    %cl,%edx
    5362:	89 d0                	mov    %edx,%eax
    5364:	eb 04                	jmp    536a <safe_rshift_func_int8_t_s_s+0x35>
    5366:	0f b6 45 fc          	movzbl -0x4(%rbp),%eax
    536a:	5d                   	pop    %rbp
    536b:	c3                   	retq   

000000000000536c <safe_rshift_func_int8_t_s_u>:
    536c:	f3 0f 1e fa          	endbr64 
    5370:	55                   	push   %rbp
    5371:	48 89 e5             	mov    %rsp,%rbp
    5374:	89 f8                	mov    %edi,%eax
    5376:	89 75 f8             	mov    %esi,-0x8(%rbp)
    5379:	88 45 fc             	mov    %al,-0x4(%rbp)
    537c:	80 7d fc 00          	cmpb   $0x0,-0x4(%rbp)
    5380:	78 15                	js     5397 <safe_rshift_func_int8_t_s_u+0x2b>
    5382:	83 7d f8 1f          	cmpl   $0x1f,-0x8(%rbp)
    5386:	77 0f                	ja     5397 <safe_rshift_func_int8_t_s_u+0x2b>
    5388:	0f be 55 fc          	movsbl -0x4(%rbp),%edx
    538c:	8b 45 f8             	mov    -0x8(%rbp),%eax
    538f:	89 c1                	mov    %eax,%ecx
    5391:	d3 fa                	sar    %cl,%edx
    5393:	89 d0                	mov    %edx,%eax
    5395:	eb 04                	jmp    539b <safe_rshift_func_int8_t_s_u+0x2f>
    5397:	0f b6 45 fc          	movzbl -0x4(%rbp),%eax
    539b:	5d                   	pop    %rbp
    539c:	c3                   	retq   

000000000000539d <safe_unary_minus_func_int16_t_s>:
    539d:	f3 0f 1e fa          	endbr64 
    53a1:	55                   	push   %rbp
    53a2:	48 89 e5             	mov    %rsp,%rbp
    53a5:	89 f8                	mov    %edi,%eax
    53a7:	66 89 45 fc          	mov    %ax,-0x4(%rbp)
    53ab:	0f b7 45 fc          	movzwl -0x4(%rbp),%eax
    53af:	f7 d8                	neg    %eax
    53b1:	5d                   	pop    %rbp
    53b2:	c3                   	retq   

00000000000053b3 <safe_add_func_int16_t_s_s>:
    53b3:	f3 0f 1e fa          	endbr64 
    53b7:	55                   	push   %rbp
    53b8:	48 89 e5             	mov    %rsp,%rbp
    53bb:	89 fa                	mov    %edi,%edx
    53bd:	89 f0                	mov    %esi,%eax
    53bf:	66 89 55 fc          	mov    %dx,-0x4(%rbp)
    53c3:	66 89 45 f8          	mov    %ax,-0x8(%rbp)
    53c7:	0f b7 55 fc          	movzwl -0x4(%rbp),%edx
    53cb:	0f b7 45 f8          	movzwl -0x8(%rbp),%eax
    53cf:	01 d0                	add    %edx,%eax
    53d1:	5d                   	pop    %rbp
    53d2:	c3                   	retq   

00000000000053d3 <safe_sub_func_int16_t_s_s>:
    53d3:	f3 0f 1e fa          	endbr64 
    53d7:	55                   	push   %rbp
    53d8:	48 89 e5             	mov    %rsp,%rbp
    53db:	89 fa                	mov    %edi,%edx
    53dd:	89 f0                	mov    %esi,%eax
    53df:	66 89 55 fc          	mov    %dx,-0x4(%rbp)
    53e3:	66 89 45 f8          	mov    %ax,-0x8(%rbp)
    53e7:	0f b7 55 fc          	movzwl -0x4(%rbp),%edx
    53eb:	0f b7 45 f8          	movzwl -0x8(%rbp),%eax
    53ef:	29 c2                	sub    %eax,%edx
    53f1:	89 d0                	mov    %edx,%eax
    53f3:	5d                   	pop    %rbp
    53f4:	c3                   	retq   

00000000000053f5 <safe_mul_func_int16_t_s_s>:
    53f5:	f3 0f 1e fa          	endbr64 
    53f9:	55                   	push   %rbp
    53fa:	48 89 e5             	mov    %rsp,%rbp
    53fd:	89 fa                	mov    %edi,%edx
    53ff:	89 f0                	mov    %esi,%eax
    5401:	66 89 55 fc          	mov    %dx,-0x4(%rbp)
    5405:	66 89 45 f8          	mov    %ax,-0x8(%rbp)
    5409:	0f b7 55 fc          	movzwl -0x4(%rbp),%edx
    540d:	0f b7 45 f8          	movzwl -0x8(%rbp),%eax
    5411:	0f af c2             	imul   %edx,%eax
    5414:	5d                   	pop    %rbp
    5415:	c3                   	retq   

0000000000005416 <safe_mod_func_int16_t_s_s>:
    5416:	f3 0f 1e fa          	endbr64 
    541a:	55                   	push   %rbp
    541b:	48 89 e5             	mov    %rsp,%rbp
    541e:	89 fa                	mov    %edi,%edx
    5420:	89 f0                	mov    %esi,%eax
    5422:	66 89 55 fc          	mov    %dx,-0x4(%rbp)
    5426:	66 89 45 f8          	mov    %ax,-0x8(%rbp)
    542a:	66 83 7d f8 00       	cmpw   $0x0,-0x8(%rbp)
    542f:	74 1e                	je     544f <safe_mod_func_int16_t_s_s+0x39>
    5431:	66 81 7d fc 00 80    	cmpw   $0x8000,-0x4(%rbp)
    5437:	75 07                	jne    5440 <safe_mod_func_int16_t_s_s+0x2a>
    5439:	66 83 7d f8 ff       	cmpw   $0xffff,-0x8(%rbp)
    543e:	74 0f                	je     544f <safe_mod_func_int16_t_s_s+0x39>
    5440:	0f bf 45 fc          	movswl -0x4(%rbp),%eax
    5444:	0f bf 4d f8          	movswl -0x8(%rbp),%ecx
    5448:	99                   	cltd   
    5449:	f7 f9                	idiv   %ecx
    544b:	89 d0                	mov    %edx,%eax
    544d:	eb 04                	jmp    5453 <safe_mod_func_int16_t_s_s+0x3d>
    544f:	0f b7 45 fc          	movzwl -0x4(%rbp),%eax
    5453:	5d                   	pop    %rbp
    5454:	c3                   	retq   

0000000000005455 <safe_div_func_int16_t_s_s>:
    5455:	f3 0f 1e fa          	endbr64 
    5459:	55                   	push   %rbp
    545a:	48 89 e5             	mov    %rsp,%rbp
    545d:	89 fa                	mov    %edi,%edx
    545f:	89 f0                	mov    %esi,%eax
    5461:	66 89 55 fc          	mov    %dx,-0x4(%rbp)
    5465:	66 89 45 f8          	mov    %ax,-0x8(%rbp)
    5469:	66 83 7d f8 00       	cmpw   $0x0,-0x8(%rbp)
    546e:	74 1c                	je     548c <safe_div_func_int16_t_s_s+0x37>
    5470:	66 81 7d fc 00 80    	cmpw   $0x8000,-0x4(%rbp)
    5476:	75 07                	jne    547f <safe_div_func_int16_t_s_s+0x2a>
    5478:	66 83 7d f8 ff       	cmpw   $0xffff,-0x8(%rbp)
    547d:	74 0d                	je     548c <safe_div_func_int16_t_s_s+0x37>
    547f:	0f bf 45 fc          	movswl -0x4(%rbp),%eax
    5483:	0f bf 4d f8          	movswl -0x8(%rbp),%ecx
    5487:	99                   	cltd   
    5488:	f7 f9                	idiv   %ecx
    548a:	eb 04                	jmp    5490 <safe_div_func_int16_t_s_s+0x3b>
    548c:	0f b7 45 fc          	movzwl -0x4(%rbp),%eax
    5490:	5d                   	pop    %rbp
    5491:	c3                   	retq   

0000000000005492 <safe_lshift_func_int16_t_s_s>:
    5492:	f3 0f 1e fa          	endbr64 
    5496:	55                   	push   %rbp
    5497:	48 89 e5             	mov    %rsp,%rbp
    549a:	89 f8                	mov    %edi,%eax
    549c:	89 75 f8             	mov    %esi,-0x8(%rbp)
    549f:	66 89 45 fc          	mov    %ax,-0x4(%rbp)
    54a3:	66 83 7d fc 00       	cmpw   $0x0,-0x4(%rbp)
    54a8:	78 31                	js     54db <safe_lshift_func_int16_t_s_s+0x49>
    54aa:	83 7d f8 00          	cmpl   $0x0,-0x8(%rbp)
    54ae:	78 2b                	js     54db <safe_lshift_func_int16_t_s_s+0x49>
    54b0:	83 7d f8 1f          	cmpl   $0x1f,-0x8(%rbp)
    54b4:	7f 25                	jg     54db <safe_lshift_func_int16_t_s_s+0x49>
    54b6:	0f bf 55 fc          	movswl -0x4(%rbp),%edx
    54ba:	8b 45 f8             	mov    -0x8(%rbp),%eax
    54bd:	be ff 7f 00 00       	mov    $0x7fff,%esi
    54c2:	89 c1                	mov    %eax,%ecx
    54c4:	d3 fe                	sar    %cl,%esi
    54c6:	89 f0                	mov    %esi,%eax
    54c8:	39 c2                	cmp    %eax,%edx
    54ca:	7f 0f                	jg     54db <safe_lshift_func_int16_t_s_s+0x49>
    54cc:	0f bf 55 fc          	movswl -0x4(%rbp),%edx
    54d0:	8b 45 f8             	mov    -0x8(%rbp),%eax
    54d3:	89 c1                	mov    %eax,%ecx
    54d5:	d3 e2                	shl    %cl,%edx
    54d7:	89 d0                	mov    %edx,%eax
    54d9:	eb 04                	jmp    54df <safe_lshift_func_int16_t_s_s+0x4d>
    54db:	0f b7 45 fc          	movzwl -0x4(%rbp),%eax
    54df:	5d                   	pop    %rbp
    54e0:	c3                   	retq   

00000000000054e1 <safe_lshift_func_int16_t_s_u>:
    54e1:	f3 0f 1e fa          	endbr64 
    54e5:	55                   	push   %rbp
    54e6:	48 89 e5             	mov    %rsp,%rbp
    54e9:	89 f8                	mov    %edi,%eax
    54eb:	89 75 f8             	mov    %esi,-0x8(%rbp)
    54ee:	66 89 45 fc          	mov    %ax,-0x4(%rbp)
    54f2:	66 83 7d fc 00       	cmpw   $0x0,-0x4(%rbp)
    54f7:	78 2b                	js     5524 <safe_lshift_func_int16_t_s_u+0x43>
    54f9:	83 7d f8 1f          	cmpl   $0x1f,-0x8(%rbp)
    54fd:	77 25                	ja     5524 <safe_lshift_func_int16_t_s_u+0x43>
    54ff:	0f bf 55 fc          	movswl -0x4(%rbp),%edx
    5503:	8b 45 f8             	mov    -0x8(%rbp),%eax
    5506:	be ff 7f 00 00       	mov    $0x7fff,%esi
    550b:	89 c1                	mov    %eax,%ecx
    550d:	d3 fe                	sar    %cl,%esi
    550f:	89 f0                	mov    %esi,%eax
    5511:	39 c2                	cmp    %eax,%edx
    5513:	7f 0f                	jg     5524 <safe_lshift_func_int16_t_s_u+0x43>
    5515:	0f bf 55 fc          	movswl -0x4(%rbp),%edx
    5519:	8b 45 f8             	mov    -0x8(%rbp),%eax
    551c:	89 c1                	mov    %eax,%ecx
    551e:	d3 e2                	shl    %cl,%edx
    5520:	89 d0                	mov    %edx,%eax
    5522:	eb 04                	jmp    5528 <safe_lshift_func_int16_t_s_u+0x47>
    5524:	0f b7 45 fc          	movzwl -0x4(%rbp),%eax
    5528:	5d                   	pop    %rbp
    5529:	c3                   	retq   

000000000000552a <safe_rshift_func_int16_t_s_s>:
    552a:	f3 0f 1e fa          	endbr64 
    552e:	55                   	push   %rbp
    552f:	48 89 e5             	mov    %rsp,%rbp
    5532:	89 f8                	mov    %edi,%eax
    5534:	89 75 f8             	mov    %esi,-0x8(%rbp)
    5537:	66 89 45 fc          	mov    %ax,-0x4(%rbp)
    553b:	66 83 7d fc 00       	cmpw   $0x0,-0x4(%rbp)
    5540:	78 1b                	js     555d <safe_rshift_func_int16_t_s_s+0x33>
    5542:	83 7d f8 00          	cmpl   $0x0,-0x8(%rbp)
    5546:	78 15                	js     555d <safe_rshift_func_int16_t_s_s+0x33>
    5548:	83 7d f8 1f          	cmpl   $0x1f,-0x8(%rbp)
    554c:	7f 0f                	jg     555d <safe_rshift_func_int16_t_s_s+0x33>
    554e:	0f bf 55 fc          	movswl -0x4(%rbp),%edx
    5552:	8b 45 f8             	mov    -0x8(%rbp),%eax
    5555:	89 c1                	mov    %eax,%ecx
    5557:	d3 fa                	sar    %cl,%edx
    5559:	89 d0                	mov    %edx,%eax
    555b:	eb 04                	jmp    5561 <safe_rshift_func_int16_t_s_s+0x37>
    555d:	0f b7 45 fc          	movzwl -0x4(%rbp),%eax
    5561:	5d                   	pop    %rbp
    5562:	c3                   	retq   

0000000000005563 <safe_rshift_func_int16_t_s_u>:
    5563:	f3 0f 1e fa          	endbr64 
    5567:	55                   	push   %rbp
    5568:	48 89 e5             	mov    %rsp,%rbp
    556b:	89 f8                	mov    %edi,%eax
    556d:	89 75 f8             	mov    %esi,-0x8(%rbp)
    5570:	66 89 45 fc          	mov    %ax,-0x4(%rbp)
    5574:	66 83 7d fc 00       	cmpw   $0x0,-0x4(%rbp)
    5579:	78 15                	js     5590 <safe_rshift_func_int16_t_s_u+0x2d>
    557b:	83 7d f8 1f          	cmpl   $0x1f,-0x8(%rbp)
    557f:	77 0f                	ja     5590 <safe_rshift_func_int16_t_s_u+0x2d>
    5581:	0f bf 55 fc          	movswl -0x4(%rbp),%edx
    5585:	8b 45 f8             	mov    -0x8(%rbp),%eax
    5588:	89 c1                	mov    %eax,%ecx
    558a:	d3 fa                	sar    %cl,%edx
    558c:	89 d0                	mov    %edx,%eax
    558e:	eb 04                	jmp    5594 <safe_rshift_func_int16_t_s_u+0x31>
    5590:	0f b7 45 fc          	movzwl -0x4(%rbp),%eax
    5594:	5d                   	pop    %rbp
    5595:	c3                   	retq   

0000000000005596 <safe_unary_minus_func_int32_t_s>:
    5596:	f3 0f 1e fa          	endbr64 
    559a:	55                   	push   %rbp
    559b:	48 89 e5             	mov    %rsp,%rbp
    559e:	89 7d fc             	mov    %edi,-0x4(%rbp)
    55a1:	81 7d fc 00 00 00 80 	cmpl   $0x80000000,-0x4(%rbp)
    55a8:	74 07                	je     55b1 <safe_unary_minus_func_int32_t_s+0x1b>
    55aa:	8b 45 fc             	mov    -0x4(%rbp),%eax
    55ad:	f7 d8                	neg    %eax
    55af:	eb 03                	jmp    55b4 <safe_unary_minus_func_int32_t_s+0x1e>
    55b1:	8b 45 fc             	mov    -0x4(%rbp),%eax
    55b4:	5d                   	pop    %rbp
    55b5:	c3                   	retq   

00000000000055b6 <safe_add_func_int32_t_s_s>:
    55b6:	f3 0f 1e fa          	endbr64 
    55ba:	55                   	push   %rbp
    55bb:	48 89 e5             	mov    %rsp,%rbp
    55be:	89 7d fc             	mov    %edi,-0x4(%rbp)
    55c1:	89 75 f8             	mov    %esi,-0x8(%rbp)
    55c4:	83 7d fc 00          	cmpl   $0x0,-0x4(%rbp)
    55c8:	7e 13                	jle    55dd <safe_add_func_int32_t_s_s+0x27>
    55ca:	83 7d f8 00          	cmpl   $0x0,-0x8(%rbp)
    55ce:	7e 0d                	jle    55dd <safe_add_func_int32_t_s_s+0x27>
    55d0:	b8 ff ff ff 7f       	mov    $0x7fffffff,%eax
    55d5:	2b 45 f8             	sub    -0x8(%rbp),%eax
    55d8:	39 45 fc             	cmp    %eax,-0x4(%rbp)
    55db:	7f 23                	jg     5600 <safe_add_func_int32_t_s_s+0x4a>
    55dd:	83 7d fc 00          	cmpl   $0x0,-0x4(%rbp)
    55e1:	79 13                	jns    55f6 <safe_add_func_int32_t_s_s+0x40>
    55e3:	83 7d f8 00          	cmpl   $0x0,-0x8(%rbp)
    55e7:	79 0d                	jns    55f6 <safe_add_func_int32_t_s_s+0x40>
    55e9:	b8 00 00 00 80       	mov    $0x80000000,%eax
    55ee:	2b 45 f8             	sub    -0x8(%rbp),%eax
    55f1:	39 45 fc             	cmp    %eax,-0x4(%rbp)
    55f4:	7c 0a                	jl     5600 <safe_add_func_int32_t_s_s+0x4a>
    55f6:	8b 55 fc             	mov    -0x4(%rbp),%edx
    55f9:	8b 45 f8             	mov    -0x8(%rbp),%eax
    55fc:	01 d0                	add    %edx,%eax
    55fe:	eb 03                	jmp    5603 <safe_add_func_int32_t_s_s+0x4d>
    5600:	8b 45 fc             	mov    -0x4(%rbp),%eax
    5603:	5d                   	pop    %rbp
    5604:	c3                   	retq   

0000000000005605 <safe_sub_func_int32_t_s_s>:
    5605:	f3 0f 1e fa          	endbr64 
    5609:	55                   	push   %rbp
    560a:	48 89 e5             	mov    %rsp,%rbp
    560d:	89 7d fc             	mov    %edi,-0x4(%rbp)
    5610:	89 75 f8             	mov    %esi,-0x8(%rbp)
    5613:	8b 45 fc             	mov    -0x4(%rbp),%eax
    5616:	33 45 f8             	xor    -0x8(%rbp),%eax
    5619:	89 c2                	mov    %eax,%edx
    561b:	8b 45 fc             	mov    -0x4(%rbp),%eax
    561e:	33 45 f8             	xor    -0x8(%rbp),%eax
    5621:	25 00 00 00 80       	and    $0x80000000,%eax
    5626:	33 45 fc             	xor    -0x4(%rbp),%eax
    5629:	2b 45 f8             	sub    -0x8(%rbp),%eax
    562c:	33 45 f8             	xor    -0x8(%rbp),%eax
    562f:	21 d0                	and    %edx,%eax
    5631:	85 c0                	test   %eax,%eax
    5633:	78 08                	js     563d <safe_sub_func_int32_t_s_s+0x38>
    5635:	8b 45 fc             	mov    -0x4(%rbp),%eax
    5638:	2b 45 f8             	sub    -0x8(%rbp),%eax
    563b:	eb 03                	jmp    5640 <safe_sub_func_int32_t_s_s+0x3b>
    563d:	8b 45 fc             	mov    -0x4(%rbp),%eax
    5640:	5d                   	pop    %rbp
    5641:	c3                   	retq   

0000000000005642 <safe_mul_func_int32_t_s_s>:
    5642:	f3 0f 1e fa          	endbr64 
    5646:	55                   	push   %rbp
    5647:	48 89 e5             	mov    %rsp,%rbp
    564a:	89 7d fc             	mov    %edi,-0x4(%rbp)
    564d:	89 75 f8             	mov    %esi,-0x8(%rbp)
    5650:	83 7d fc 00          	cmpl   $0x0,-0x4(%rbp)
    5654:	7e 14                	jle    566a <safe_mul_func_int32_t_s_s+0x28>
    5656:	83 7d f8 00          	cmpl   $0x0,-0x8(%rbp)
    565a:	7e 0e                	jle    566a <safe_mul_func_int32_t_s_s+0x28>
    565c:	b8 ff ff ff 7f       	mov    $0x7fffffff,%eax
    5661:	99                   	cltd   
    5662:	f7 7d f8             	idivl  -0x8(%rbp)
    5665:	39 45 fc             	cmp    %eax,-0x4(%rbp)
    5668:	7f 5d                	jg     56c7 <safe_mul_func_int32_t_s_s+0x85>
    566a:	83 7d fc 00          	cmpl   $0x0,-0x4(%rbp)
    566e:	7e 14                	jle    5684 <safe_mul_func_int32_t_s_s+0x42>
    5670:	83 7d f8 00          	cmpl   $0x0,-0x8(%rbp)
    5674:	7f 0e                	jg     5684 <safe_mul_func_int32_t_s_s+0x42>
    5676:	b8 00 00 00 80       	mov    $0x80000000,%eax
    567b:	99                   	cltd   
    567c:	f7 7d fc             	idivl  -0x4(%rbp)
    567f:	39 45 f8             	cmp    %eax,-0x8(%rbp)
    5682:	7c 43                	jl     56c7 <safe_mul_func_int32_t_s_s+0x85>
    5684:	83 7d fc 00          	cmpl   $0x0,-0x4(%rbp)
    5688:	7f 14                	jg     569e <safe_mul_func_int32_t_s_s+0x5c>
    568a:	83 7d f8 00          	cmpl   $0x0,-0x8(%rbp)
    568e:	7e 0e                	jle    569e <safe_mul_func_int32_t_s_s+0x5c>
    5690:	b8 00 00 00 80       	mov    $0x80000000,%eax
    5695:	99                   	cltd   
    5696:	f7 7d f8             	idivl  -0x8(%rbp)
    5699:	39 45 fc             	cmp    %eax,-0x4(%rbp)
    569c:	7c 29                	jl     56c7 <safe_mul_func_int32_t_s_s+0x85>
    569e:	83 7d fc 00          	cmpl   $0x0,-0x4(%rbp)
    56a2:	7f 1a                	jg     56be <safe_mul_func_int32_t_s_s+0x7c>
    56a4:	83 7d f8 00          	cmpl   $0x0,-0x8(%rbp)
    56a8:	7f 14                	jg     56be <safe_mul_func_int32_t_s_s+0x7c>
    56aa:	83 7d fc 00          	cmpl   $0x0,-0x4(%rbp)
    56ae:	74 0e                	je     56be <safe_mul_func_int32_t_s_s+0x7c>
    56b0:	b8 ff ff ff 7f       	mov    $0x7fffffff,%eax
    56b5:	99                   	cltd   
    56b6:	f7 7d fc             	idivl  -0x4(%rbp)
    56b9:	39 45 f8             	cmp    %eax,-0x8(%rbp)
    56bc:	7c 09                	jl     56c7 <safe_mul_func_int32_t_s_s+0x85>
    56be:	8b 45 fc             	mov    -0x4(%rbp),%eax
    56c1:	0f af 45 f8          	imul   -0x8(%rbp),%eax
    56c5:	eb 03                	jmp    56ca <safe_mul_func_int32_t_s_s+0x88>
    56c7:	8b 45 fc             	mov    -0x4(%rbp),%eax
    56ca:	5d                   	pop    %rbp
    56cb:	c3                   	retq   

00000000000056cc <safe_mod_func_int32_t_s_s>:
    56cc:	f3 0f 1e fa          	endbr64 
    56d0:	55                   	push   %rbp
    56d1:	48 89 e5             	mov    %rsp,%rbp
    56d4:	89 7d fc             	mov    %edi,-0x4(%rbp)
    56d7:	89 75 f8             	mov    %esi,-0x8(%rbp)
    56da:	83 7d f8 00          	cmpl   $0x0,-0x8(%rbp)
    56de:	74 1a                	je     56fa <safe_mod_func_int32_t_s_s+0x2e>
    56e0:	81 7d fc 00 00 00 80 	cmpl   $0x80000000,-0x4(%rbp)
    56e7:	75 06                	jne    56ef <safe_mod_func_int32_t_s_s+0x23>
    56e9:	83 7d f8 ff          	cmpl   $0xffffffff,-0x8(%rbp)
    56ed:	74 0b                	je     56fa <safe_mod_func_int32_t_s_s+0x2e>
    56ef:	8b 45 fc             	mov    -0x4(%rbp),%eax
    56f2:	99                   	cltd   
    56f3:	f7 7d f8             	idivl  -0x8(%rbp)
    56f6:	89 d0                	mov    %edx,%eax
    56f8:	eb 03                	jmp    56fd <safe_mod_func_int32_t_s_s+0x31>
    56fa:	8b 45 fc             	mov    -0x4(%rbp),%eax
    56fd:	5d                   	pop    %rbp
    56fe:	c3                   	retq   

00000000000056ff <safe_div_func_int32_t_s_s>:
    56ff:	f3 0f 1e fa          	endbr64 
    5703:	55                   	push   %rbp
    5704:	48 89 e5             	mov    %rsp,%rbp
    5707:	89 7d fc             	mov    %edi,-0x4(%rbp)
    570a:	89 75 f8             	mov    %esi,-0x8(%rbp)
    570d:	83 7d f8 00          	cmpl   $0x0,-0x8(%rbp)
    5711:	74 18                	je     572b <safe_div_func_int32_t_s_s+0x2c>
    5713:	81 7d fc 00 00 00 80 	cmpl   $0x80000000,-0x4(%rbp)
    571a:	75 06                	jne    5722 <safe_div_func_int32_t_s_s+0x23>
    571c:	83 7d f8 ff          	cmpl   $0xffffffff,-0x8(%rbp)
    5720:	74 09                	je     572b <safe_div_func_int32_t_s_s+0x2c>
    5722:	8b 45 fc             	mov    -0x4(%rbp),%eax
    5725:	99                   	cltd   
    5726:	f7 7d f8             	idivl  -0x8(%rbp)
    5729:	eb 03                	jmp    572e <safe_div_func_int32_t_s_s+0x2f>
    572b:	8b 45 fc             	mov    -0x4(%rbp),%eax
    572e:	5d                   	pop    %rbp
    572f:	c3                   	retq   

0000000000005730 <safe_lshift_func_int32_t_s_s>:
    5730:	f3 0f 1e fa          	endbr64 
    5734:	55                   	push   %rbp
    5735:	48 89 e5             	mov    %rsp,%rbp
    5738:	89 7d fc             	mov    %edi,-0x4(%rbp)
    573b:	89 75 f8             	mov    %esi,-0x8(%rbp)
    573e:	83 7d fc 00          	cmpl   $0x0,-0x4(%rbp)
    5742:	78 2d                	js     5771 <safe_lshift_func_int32_t_s_s+0x41>
    5744:	83 7d f8 00          	cmpl   $0x0,-0x8(%rbp)
    5748:	78 27                	js     5771 <safe_lshift_func_int32_t_s_s+0x41>
    574a:	83 7d f8 1f          	cmpl   $0x1f,-0x8(%rbp)
    574e:	7f 21                	jg     5771 <safe_lshift_func_int32_t_s_s+0x41>
    5750:	8b 45 f8             	mov    -0x8(%rbp),%eax
    5753:	ba ff ff ff 7f       	mov    $0x7fffffff,%edx
    5758:	89 c1                	mov    %eax,%ecx
    575a:	d3 fa                	sar    %cl,%edx
    575c:	89 d0                	mov    %edx,%eax
    575e:	39 45 fc             	cmp    %eax,-0x4(%rbp)
    5761:	7f 0e                	jg     5771 <safe_lshift_func_int32_t_s_s+0x41>
    5763:	8b 45 f8             	mov    -0x8(%rbp),%eax
    5766:	8b 55 fc             	mov    -0x4(%rbp),%edx
    5769:	89 c1                	mov    %eax,%ecx
    576b:	d3 e2                	shl    %cl,%edx
    576d:	89 d0                	mov    %edx,%eax
    576f:	eb 03                	jmp    5774 <safe_lshift_func_int32_t_s_s+0x44>
    5771:	8b 45 fc             	mov    -0x4(%rbp),%eax
    5774:	5d                   	pop    %rbp
    5775:	c3                   	retq   

0000000000005776 <safe_lshift_func_int32_t_s_u>:
    5776:	f3 0f 1e fa          	endbr64 
    577a:	55                   	push   %rbp
    577b:	48 89 e5             	mov    %rsp,%rbp
    577e:	89 7d fc             	mov    %edi,-0x4(%rbp)
    5781:	89 75 f8             	mov    %esi,-0x8(%rbp)
    5784:	83 7d fc 00          	cmpl   $0x0,-0x4(%rbp)
    5788:	78 27                	js     57b1 <safe_lshift_func_int32_t_s_u+0x3b>
    578a:	83 7d f8 1f          	cmpl   $0x1f,-0x8(%rbp)
    578e:	77 21                	ja     57b1 <safe_lshift_func_int32_t_s_u+0x3b>
    5790:	8b 45 f8             	mov    -0x8(%rbp),%eax
    5793:	ba ff ff ff 7f       	mov    $0x7fffffff,%edx
    5798:	89 c1                	mov    %eax,%ecx
    579a:	d3 fa                	sar    %cl,%edx
    579c:	89 d0                	mov    %edx,%eax
    579e:	39 45 fc             	cmp    %eax,-0x4(%rbp)
    57a1:	7f 0e                	jg     57b1 <safe_lshift_func_int32_t_s_u+0x3b>
    57a3:	8b 45 f8             	mov    -0x8(%rbp),%eax
    57a6:	8b 55 fc             	mov    -0x4(%rbp),%edx
    57a9:	89 c1                	mov    %eax,%ecx
    57ab:	d3 e2                	shl    %cl,%edx
    57ad:	89 d0                	mov    %edx,%eax
    57af:	eb 03                	jmp    57b4 <safe_lshift_func_int32_t_s_u+0x3e>
    57b1:	8b 45 fc             	mov    -0x4(%rbp),%eax
    57b4:	5d                   	pop    %rbp
    57b5:	c3                   	retq   

00000000000057b6 <safe_rshift_func_int32_t_s_s>:
    57b6:	f3 0f 1e fa          	endbr64 
    57ba:	55                   	push   %rbp
    57bb:	48 89 e5             	mov    %rsp,%rbp
    57be:	89 7d fc             	mov    %edi,-0x4(%rbp)
    57c1:	89 75 f8             	mov    %esi,-0x8(%rbp)
    57c4:	83 7d fc 00          	cmpl   $0x0,-0x4(%rbp)
    57c8:	78 1a                	js     57e4 <safe_rshift_func_int32_t_s_s+0x2e>
    57ca:	83 7d f8 00          	cmpl   $0x0,-0x8(%rbp)
    57ce:	78 14                	js     57e4 <safe_rshift_func_int32_t_s_s+0x2e>
    57d0:	83 7d f8 1f          	cmpl   $0x1f,-0x8(%rbp)
    57d4:	7f 0e                	jg     57e4 <safe_rshift_func_int32_t_s_s+0x2e>
    57d6:	8b 45 f8             	mov    -0x8(%rbp),%eax
    57d9:	8b 55 fc             	mov    -0x4(%rbp),%edx
    57dc:	89 c1                	mov    %eax,%ecx
    57de:	d3 fa                	sar    %cl,%edx
    57e0:	89 d0                	mov    %edx,%eax
    57e2:	eb 03                	jmp    57e7 <safe_rshift_func_int32_t_s_s+0x31>
    57e4:	8b 45 fc             	mov    -0x4(%rbp),%eax
    57e7:	5d                   	pop    %rbp
    57e8:	c3                   	retq   

00000000000057e9 <safe_rshift_func_int32_t_s_u>:
    57e9:	f3 0f 1e fa          	endbr64 
    57ed:	55                   	push   %rbp
    57ee:	48 89 e5             	mov    %rsp,%rbp
    57f1:	89 7d fc             	mov    %edi,-0x4(%rbp)
    57f4:	89 75 f8             	mov    %esi,-0x8(%rbp)
    57f7:	83 7d fc 00          	cmpl   $0x0,-0x4(%rbp)
    57fb:	78 14                	js     5811 <safe_rshift_func_int32_t_s_u+0x28>
    57fd:	83 7d f8 1f          	cmpl   $0x1f,-0x8(%rbp)
    5801:	77 0e                	ja     5811 <safe_rshift_func_int32_t_s_u+0x28>
    5803:	8b 45 f8             	mov    -0x8(%rbp),%eax
    5806:	8b 55 fc             	mov    -0x4(%rbp),%edx
    5809:	89 c1                	mov    %eax,%ecx
    580b:	d3 fa                	sar    %cl,%edx
    580d:	89 d0                	mov    %edx,%eax
    580f:	eb 03                	jmp    5814 <safe_rshift_func_int32_t_s_u+0x2b>
    5811:	8b 45 fc             	mov    -0x4(%rbp),%eax
    5814:	5d                   	pop    %rbp
    5815:	c3                   	retq   

0000000000005816 <safe_unary_minus_func_int64_t_s>:
    5816:	f3 0f 1e fa          	endbr64 
    581a:	55                   	push   %rbp
    581b:	48 89 e5             	mov    %rsp,%rbp
    581e:	48 89 7d f8          	mov    %rdi,-0x8(%rbp)
    5822:	48 b8 00 00 00 00 00 	movabs $0x8000000000000000,%rax
    5829:	00 00 80 
    582c:	48 39 45 f8          	cmp    %rax,-0x8(%rbp)
    5830:	74 09                	je     583b <safe_unary_minus_func_int64_t_s+0x25>
    5832:	48 8b 45 f8          	mov    -0x8(%rbp),%rax
    5836:	48 f7 d8             	neg    %rax
    5839:	eb 04                	jmp    583f <safe_unary_minus_func_int64_t_s+0x29>
    583b:	48 8b 45 f8          	mov    -0x8(%rbp),%rax
    583f:	5d                   	pop    %rbp
    5840:	c3                   	retq   

0000000000005841 <safe_add_func_int64_t_s_s>:
    5841:	f3 0f 1e fa          	endbr64 
    5845:	55                   	push   %rbp
    5846:	48 89 e5             	mov    %rsp,%rbp
    5849:	48 89 7d f8          	mov    %rdi,-0x8(%rbp)
    584d:	48 89 75 f0          	mov    %rsi,-0x10(%rbp)
    5851:	48 83 7d f8 00       	cmpq   $0x0,-0x8(%rbp)
    5856:	7e 1b                	jle    5873 <safe_add_func_int64_t_s_s+0x32>
    5858:	48 83 7d f0 00       	cmpq   $0x0,-0x10(%rbp)
    585d:	7e 14                	jle    5873 <safe_add_func_int64_t_s_s+0x32>
    585f:	48 b8 ff ff ff ff ff 	movabs $0x7fffffffffffffff,%rax
    5866:	ff ff 7f 
    5869:	48 2b 45 f0          	sub    -0x10(%rbp),%rax
    586d:	48 39 45 f8          	cmp    %rax,-0x8(%rbp)
    5871:	7f 2f                	jg     58a2 <safe_add_func_int64_t_s_s+0x61>
    5873:	48 83 7d f8 00       	cmpq   $0x0,-0x8(%rbp)
    5878:	79 1b                	jns    5895 <safe_add_func_int64_t_s_s+0x54>
    587a:	48 83 7d f0 00       	cmpq   $0x0,-0x10(%rbp)
    587f:	79 14                	jns    5895 <safe_add_func_int64_t_s_s+0x54>
    5881:	48 b8 00 00 00 00 00 	movabs $0x8000000000000000,%rax
    5888:	00 00 80 
    588b:	48 2b 45 f0          	sub    -0x10(%rbp),%rax
    588f:	48 39 45 f8          	cmp    %rax,-0x8(%rbp)
    5893:	7c 0d                	jl     58a2 <safe_add_func_int64_t_s_s+0x61>
    5895:	48 8b 55 f8          	mov    -0x8(%rbp),%rdx
    5899:	48 8b 45 f0          	mov    -0x10(%rbp),%rax
    589d:	48 01 d0             	add    %rdx,%rax
    58a0:	eb 04                	jmp    58a6 <safe_add_func_int64_t_s_s+0x65>
    58a2:	48 8b 45 f8          	mov    -0x8(%rbp),%rax
    58a6:	5d                   	pop    %rbp
    58a7:	c3                   	retq   

00000000000058a8 <safe_sub_func_int64_t_s_s>:
    58a8:	f3 0f 1e fa          	endbr64 
    58ac:	55                   	push   %rbp
    58ad:	48 89 e5             	mov    %rsp,%rbp
    58b0:	48 89 7d f8          	mov    %rdi,-0x8(%rbp)
    58b4:	48 89 75 f0          	mov    %rsi,-0x10(%rbp)
    58b8:	48 8b 45 f8          	mov    -0x8(%rbp),%rax
    58bc:	48 33 45 f0          	xor    -0x10(%rbp),%rax
    58c0:	48 89 c2             	mov    %rax,%rdx
    58c3:	48 8b 45 f8          	mov    -0x8(%rbp),%rax
    58c7:	48 33 45 f0          	xor    -0x10(%rbp),%rax
    58cb:	48 b9 00 00 00 00 00 	movabs $0x8000000000000000,%rcx
    58d2:	00 00 80 
    58d5:	48 21 c8             	and    %rcx,%rax
    58d8:	48 33 45 f8          	xor    -0x8(%rbp),%rax
    58dc:	48 2b 45 f0          	sub    -0x10(%rbp),%rax
    58e0:	48 33 45 f0          	xor    -0x10(%rbp),%rax
    58e4:	48 21 d0             	and    %rdx,%rax
    58e7:	48 85 c0             	test   %rax,%rax
    58ea:	78 0a                	js     58f6 <safe_sub_func_int64_t_s_s+0x4e>
    58ec:	48 8b 45 f8          	mov    -0x8(%rbp),%rax
    58f0:	48 2b 45 f0          	sub    -0x10(%rbp),%rax
    58f4:	eb 04                	jmp    58fa <safe_sub_func_int64_t_s_s+0x52>
    58f6:	48 8b 45 f8          	mov    -0x8(%rbp),%rax
    58fa:	5d                   	pop    %rbp
    58fb:	c3                   	retq   

00000000000058fc <safe_mul_func_int64_t_s_s>:
    58fc:	f3 0f 1e fa          	endbr64 
    5900:	55                   	push   %rbp
    5901:	48 89 e5             	mov    %rsp,%rbp
    5904:	48 89 7d f8          	mov    %rdi,-0x8(%rbp)
    5908:	48 89 75 f0          	mov    %rsi,-0x10(%rbp)
    590c:	48 83 7d f8 00       	cmpq   $0x0,-0x8(%rbp)
    5911:	7e 1d                	jle    5930 <safe_mul_func_int64_t_s_s+0x34>
    5913:	48 83 7d f0 00       	cmpq   $0x0,-0x10(%rbp)
    5918:	7e 16                	jle    5930 <safe_mul_func_int64_t_s_s+0x34>
    591a:	48 b8 ff ff ff ff ff 	movabs $0x7fffffffffffffff,%rax
    5921:	ff ff 7f 
    5924:	48 99                	cqto   
    5926:	48 f7 7d f0          	idivq  -0x10(%rbp)
    592a:	48 39 45 f8          	cmp    %rax,-0x8(%rbp)
    592e:	7f 7e                	jg     59ae <safe_mul_func_int64_t_s_s+0xb2>
    5930:	48 83 7d f8 00       	cmpq   $0x0,-0x8(%rbp)
    5935:	7e 1d                	jle    5954 <safe_mul_func_int64_t_s_s+0x58>
    5937:	48 83 7d f0 00       	cmpq   $0x0,-0x10(%rbp)
    593c:	7f 16                	jg     5954 <safe_mul_func_int64_t_s_s+0x58>
    593e:	48 b8 00 00 00 00 00 	movabs $0x8000000000000000,%rax
    5945:	00 00 80 
    5948:	48 99                	cqto   
    594a:	48 f7 7d f8          	idivq  -0x8(%rbp)
    594e:	48 39 45 f0          	cmp    %rax,-0x10(%rbp)
    5952:	7c 5a                	jl     59ae <safe_mul_func_int64_t_s_s+0xb2>
    5954:	48 83 7d f8 00       	cmpq   $0x0,-0x8(%rbp)
    5959:	7f 1d                	jg     5978 <safe_mul_func_int64_t_s_s+0x7c>
    595b:	48 83 7d f0 00       	cmpq   $0x0,-0x10(%rbp)
    5960:	7e 16                	jle    5978 <safe_mul_func_int64_t_s_s+0x7c>
    5962:	48 b8 00 00 00 00 00 	movabs $0x8000000000000000,%rax
    5969:	00 00 80 
    596c:	48 99                	cqto   
    596e:	48 f7 7d f0          	idivq  -0x10(%rbp)
    5972:	48 39 45 f8          	cmp    %rax,-0x8(%rbp)
    5976:	7c 36                	jl     59ae <safe_mul_func_int64_t_s_s+0xb2>
    5978:	48 83 7d f8 00       	cmpq   $0x0,-0x8(%rbp)
    597d:	7f 24                	jg     59a3 <safe_mul_func_int64_t_s_s+0xa7>
    597f:	48 83 7d f0 00       	cmpq   $0x0,-0x10(%rbp)
    5984:	7f 1d                	jg     59a3 <safe_mul_func_int64_t_s_s+0xa7>
    5986:	48 83 7d f8 00       	cmpq   $0x0,-0x8(%rbp)
    598b:	74 16                	je     59a3 <safe_mul_func_int64_t_s_s+0xa7>
    598d:	48 b8 ff ff ff ff ff 	movabs $0x7fffffffffffffff,%rax
    5994:	ff ff 7f 
    5997:	48 99                	cqto   
    5999:	48 f7 7d f8          	idivq  -0x8(%rbp)
    599d:	48 39 45 f0          	cmp    %rax,-0x10(%rbp)
    59a1:	7c 0b                	jl     59ae <safe_mul_func_int64_t_s_s+0xb2>
    59a3:	48 8b 45 f8          	mov    -0x8(%rbp),%rax
    59a7:	48 0f af 45 f0       	imul   -0x10(%rbp),%rax
    59ac:	eb 04                	jmp    59b2 <safe_mul_func_int64_t_s_s+0xb6>
    59ae:	48 8b 45 f8          	mov    -0x8(%rbp),%rax
    59b2:	5d                   	pop    %rbp
    59b3:	c3                   	retq   

00000000000059b4 <safe_mod_func_int64_t_s_s>:
    59b4:	f3 0f 1e fa          	endbr64 
    59b8:	55                   	push   %rbp
    59b9:	48 89 e5             	mov    %rsp,%rbp
    59bc:	48 89 7d f8          	mov    %rdi,-0x8(%rbp)
    59c0:	48 89 75 f0          	mov    %rsi,-0x10(%rbp)
    59c4:	48 83 7d f0 00       	cmpq   $0x0,-0x10(%rbp)
    59c9:	74 26                	je     59f1 <safe_mod_func_int64_t_s_s+0x3d>
    59cb:	48 b8 00 00 00 00 00 	movabs $0x8000000000000000,%rax
    59d2:	00 00 80 
    59d5:	48 39 45 f8          	cmp    %rax,-0x8(%rbp)
    59d9:	75 07                	jne    59e2 <safe_mod_func_int64_t_s_s+0x2e>
    59db:	48 83 7d f0 ff       	cmpq   $0xffffffffffffffff,-0x10(%rbp)
    59e0:	74 0f                	je     59f1 <safe_mod_func_int64_t_s_s+0x3d>
    59e2:	48 8b 45 f8          	mov    -0x8(%rbp),%rax
    59e6:	48 99                	cqto   
    59e8:	48 f7 7d f0          	idivq  -0x10(%rbp)
    59ec:	48 89 d0             	mov    %rdx,%rax
    59ef:	eb 04                	jmp    59f5 <safe_mod_func_int64_t_s_s+0x41>
    59f1:	48 8b 45 f8          	mov    -0x8(%rbp),%rax
    59f5:	5d                   	pop    %rbp
    59f6:	c3                   	retq   

00000000000059f7 <safe_div_func_int64_t_s_s>:
    59f7:	f3 0f 1e fa          	endbr64 
    59fb:	55                   	push   %rbp
    59fc:	48 89 e5             	mov    %rsp,%rbp
    59ff:	48 89 7d f8          	mov    %rdi,-0x8(%rbp)
    5a03:	48 89 75 f0          	mov    %rsi,-0x10(%rbp)
    5a07:	48 83 7d f0 00       	cmpq   $0x0,-0x10(%rbp)
    5a0c:	74 23                	je     5a31 <safe_div_func_int64_t_s_s+0x3a>
    5a0e:	48 b8 00 00 00 00 00 	movabs $0x8000000000000000,%rax
    5a15:	00 00 80 
    5a18:	48 39 45 f8          	cmp    %rax,-0x8(%rbp)
    5a1c:	75 07                	jne    5a25 <safe_div_func_int64_t_s_s+0x2e>
    5a1e:	48 83 7d f0 ff       	cmpq   $0xffffffffffffffff,-0x10(%rbp)
    5a23:	74 0c                	je     5a31 <safe_div_func_int64_t_s_s+0x3a>
    5a25:	48 8b 45 f8          	mov    -0x8(%rbp),%rax
    5a29:	48 99                	cqto   
    5a2b:	48 f7 7d f0          	idivq  -0x10(%rbp)
    5a2f:	eb 04                	jmp    5a35 <safe_div_func_int64_t_s_s+0x3e>
    5a31:	48 8b 45 f8          	mov    -0x8(%rbp),%rax
    5a35:	5d                   	pop    %rbp
    5a36:	c3                   	retq   

0000000000005a37 <safe_lshift_func_int64_t_s_s>:
    5a37:	f3 0f 1e fa          	endbr64 
    5a3b:	55                   	push   %rbp
    5a3c:	48 89 e5             	mov    %rsp,%rbp
    5a3f:	48 89 7d f8          	mov    %rdi,-0x8(%rbp)
    5a43:	89 75 f4             	mov    %esi,-0xc(%rbp)
    5a46:	48 83 7d f8 00       	cmpq   $0x0,-0x8(%rbp)
    5a4b:	78 38                	js     5a85 <safe_lshift_func_int64_t_s_s+0x4e>
    5a4d:	83 7d f4 00          	cmpl   $0x0,-0xc(%rbp)
    5a51:	78 32                	js     5a85 <safe_lshift_func_int64_t_s_s+0x4e>
    5a53:	83 7d f4 1f          	cmpl   $0x1f,-0xc(%rbp)
    5a57:	7f 2c                	jg     5a85 <safe_lshift_func_int64_t_s_s+0x4e>
    5a59:	8b 45 f4             	mov    -0xc(%rbp),%eax
    5a5c:	48 ba ff ff ff ff ff 	movabs $0x7fffffffffffffff,%rdx
    5a63:	ff ff 7f 
    5a66:	89 c1                	mov    %eax,%ecx
    5a68:	48 d3 fa             	sar    %cl,%rdx
    5a6b:	48 89 d0             	mov    %rdx,%rax
    5a6e:	48 39 45 f8          	cmp    %rax,-0x8(%rbp)
    5a72:	7f 11                	jg     5a85 <safe_lshift_func_int64_t_s_s+0x4e>
    5a74:	8b 45 f4             	mov    -0xc(%rbp),%eax
    5a77:	48 8b 55 f8          	mov    -0x8(%rbp),%rdx
    5a7b:	89 c1                	mov    %eax,%ecx
    5a7d:	48 d3 e2             	shl    %cl,%rdx
    5a80:	48 89 d0             	mov    %rdx,%rax
    5a83:	eb 04                	jmp    5a89 <safe_lshift_func_int64_t_s_s+0x52>
    5a85:	48 8b 45 f8          	mov    -0x8(%rbp),%rax
    5a89:	5d                   	pop    %rbp
    5a8a:	c3                   	retq   

0000000000005a8b <safe_lshift_func_int64_t_s_u>:
    5a8b:	f3 0f 1e fa          	endbr64 
    5a8f:	55                   	push   %rbp
    5a90:	48 89 e5             	mov    %rsp,%rbp
    5a93:	48 89 7d f8          	mov    %rdi,-0x8(%rbp)
    5a97:	89 75 f4             	mov    %esi,-0xc(%rbp)
    5a9a:	48 83 7d f8 00       	cmpq   $0x0,-0x8(%rbp)
    5a9f:	78 32                	js     5ad3 <safe_lshift_func_int64_t_s_u+0x48>
    5aa1:	83 7d f4 1f          	cmpl   $0x1f,-0xc(%rbp)
    5aa5:	77 2c                	ja     5ad3 <safe_lshift_func_int64_t_s_u+0x48>
    5aa7:	8b 45 f4             	mov    -0xc(%rbp),%eax
    5aaa:	48 ba ff ff ff ff ff 	movabs $0x7fffffffffffffff,%rdx
    5ab1:	ff ff 7f 
    5ab4:	89 c1                	mov    %eax,%ecx
    5ab6:	48 d3 fa             	sar    %cl,%rdx
    5ab9:	48 89 d0             	mov    %rdx,%rax
    5abc:	48 39 45 f8          	cmp    %rax,-0x8(%rbp)
    5ac0:	7f 11                	jg     5ad3 <safe_lshift_func_int64_t_s_u+0x48>
    5ac2:	8b 45 f4             	mov    -0xc(%rbp),%eax
    5ac5:	48 8b 55 f8          	mov    -0x8(%rbp),%rdx
    5ac9:	89 c1                	mov    %eax,%ecx
    5acb:	48 d3 e2             	shl    %cl,%rdx
    5ace:	48 89 d0             	mov    %rdx,%rax
    5ad1:	eb 04                	jmp    5ad7 <safe_lshift_func_int64_t_s_u+0x4c>
    5ad3:	48 8b 45 f8          	mov    -0x8(%rbp),%rax
    5ad7:	5d                   	pop    %rbp
    5ad8:	c3                   	retq   

0000000000005ad9 <safe_rshift_func_int64_t_s_s>:
    5ad9:	f3 0f 1e fa          	endbr64 
    5add:	55                   	push   %rbp
    5ade:	48 89 e5             	mov    %rsp,%rbp
    5ae1:	48 89 7d f8          	mov    %rdi,-0x8(%rbp)
    5ae5:	89 75 f4             	mov    %esi,-0xc(%rbp)
    5ae8:	48 83 7d f8 00       	cmpq   $0x0,-0x8(%rbp)
    5aed:	78 1d                	js     5b0c <safe_rshift_func_int64_t_s_s+0x33>
    5aef:	83 7d f4 00          	cmpl   $0x0,-0xc(%rbp)
    5af3:	78 17                	js     5b0c <safe_rshift_func_int64_t_s_s+0x33>
    5af5:	83 7d f4 1f          	cmpl   $0x1f,-0xc(%rbp)
    5af9:	7f 11                	jg     5b0c <safe_rshift_func_int64_t_s_s+0x33>
    5afb:	8b 45 f4             	mov    -0xc(%rbp),%eax
    5afe:	48 8b 55 f8          	mov    -0x8(%rbp),%rdx
    5b02:	89 c1                	mov    %eax,%ecx
    5b04:	48 d3 fa             	sar    %cl,%rdx
    5b07:	48 89 d0             	mov    %rdx,%rax
    5b0a:	eb 04                	jmp    5b10 <safe_rshift_func_int64_t_s_s+0x37>
    5b0c:	48 8b 45 f8          	mov    -0x8(%rbp),%rax
    5b10:	5d                   	pop    %rbp
    5b11:	c3                   	retq   

0000000000005b12 <safe_rshift_func_int64_t_s_u>:
    5b12:	f3 0f 1e fa          	endbr64 
    5b16:	55                   	push   %rbp
    5b17:	48 89 e5             	mov    %rsp,%rbp
    5b1a:	48 89 7d f8          	mov    %rdi,-0x8(%rbp)
    5b1e:	89 75 f4             	mov    %esi,-0xc(%rbp)
    5b21:	48 83 7d f8 00       	cmpq   $0x0,-0x8(%rbp)
    5b26:	78 17                	js     5b3f <safe_rshift_func_int64_t_s_u+0x2d>
    5b28:	83 7d f4 1f          	cmpl   $0x1f,-0xc(%rbp)
    5b2c:	77 11                	ja     5b3f <safe_rshift_func_int64_t_s_u+0x2d>
    5b2e:	8b 45 f4             	mov    -0xc(%rbp),%eax
    5b31:	48 8b 55 f8          	mov    -0x8(%rbp),%rdx
    5b35:	89 c1                	mov    %eax,%ecx
    5b37:	48 d3 fa             	sar    %cl,%rdx
    5b3a:	48 89 d0             	mov    %rdx,%rax
    5b3d:	eb 04                	jmp    5b43 <safe_rshift_func_int64_t_s_u+0x31>
    5b3f:	48 8b 45 f8          	mov    -0x8(%rbp),%rax
    5b43:	5d                   	pop    %rbp
    5b44:	c3                   	retq   

0000000000005b45 <safe_unary_minus_func_uint8_t_u>:
    5b45:	f3 0f 1e fa          	endbr64 
    5b49:	55                   	push   %rbp
    5b4a:	48 89 e5             	mov    %rsp,%rbp
    5b4d:	89 f8                	mov    %edi,%eax
    5b4f:	88 45 fc             	mov    %al,-0x4(%rbp)
    5b52:	0f b6 45 fc          	movzbl -0x4(%rbp),%eax
    5b56:	f7 d8                	neg    %eax
    5b58:	5d                   	pop    %rbp
    5b59:	c3                   	retq   

0000000000005b5a <safe_add_func_uint8_t_u_u>:
    5b5a:	f3 0f 1e fa          	endbr64 
    5b5e:	55                   	push   %rbp
    5b5f:	48 89 e5             	mov    %rsp,%rbp
    5b62:	89 fa                	mov    %edi,%edx
    5b64:	89 f0                	mov    %esi,%eax
    5b66:	88 55 fc             	mov    %dl,-0x4(%rbp)
    5b69:	88 45 f8             	mov    %al,-0x8(%rbp)
    5b6c:	0f b6 55 fc          	movzbl -0x4(%rbp),%edx
    5b70:	0f b6 45 f8          	movzbl -0x8(%rbp),%eax
    5b74:	01 d0                	add    %edx,%eax
    5b76:	5d                   	pop    %rbp
    5b77:	c3                   	retq   

0000000000005b78 <safe_sub_func_uint8_t_u_u>:
    5b78:	f3 0f 1e fa          	endbr64 
    5b7c:	55                   	push   %rbp
    5b7d:	48 89 e5             	mov    %rsp,%rbp
    5b80:	89 fa                	mov    %edi,%edx
    5b82:	89 f0                	mov    %esi,%eax
    5b84:	88 55 fc             	mov    %dl,-0x4(%rbp)
    5b87:	88 45 f8             	mov    %al,-0x8(%rbp)
    5b8a:	0f b6 45 fc          	movzbl -0x4(%rbp),%eax
    5b8e:	2a 45 f8             	sub    -0x8(%rbp),%al
    5b91:	5d                   	pop    %rbp
    5b92:	c3                   	retq   

0000000000005b93 <safe_mul_func_uint8_t_u_u>:
    5b93:	f3 0f 1e fa          	endbr64 
    5b97:	55                   	push   %rbp
    5b98:	48 89 e5             	mov    %rsp,%rbp
    5b9b:	89 fa                	mov    %edi,%edx
    5b9d:	89 f0                	mov    %esi,%eax
    5b9f:	88 55 fc             	mov    %dl,-0x4(%rbp)
    5ba2:	88 45 f8             	mov    %al,-0x8(%rbp)
    5ba5:	0f b6 45 fc          	movzbl -0x4(%rbp),%eax
    5ba9:	f6 65 f8             	mulb   -0x8(%rbp)
    5bac:	5d                   	pop    %rbp
    5bad:	c3                   	retq   

0000000000005bae <safe_mod_func_uint8_t_u_u>:
    5bae:	f3 0f 1e fa          	endbr64 
    5bb2:	55                   	push   %rbp
    5bb3:	48 89 e5             	mov    %rsp,%rbp
    5bb6:	89 fa                	mov    %edi,%edx
    5bb8:	89 f0                	mov    %esi,%eax
    5bba:	88 55 fc             	mov    %dl,-0x4(%rbp)
    5bbd:	88 45 f8             	mov    %al,-0x8(%rbp)
    5bc0:	80 7d f8 00          	cmpb   $0x0,-0x8(%rbp)
    5bc4:	74 0f                	je     5bd5 <safe_mod_func_uint8_t_u_u+0x27>
    5bc6:	0f b6 45 fc          	movzbl -0x4(%rbp),%eax
    5bca:	0f b6 c0             	movzbl %al,%eax
    5bcd:	f6 75 f8             	divb   -0x8(%rbp)
    5bd0:	0f b6 c4             	movzbl %ah,%eax
    5bd3:	eb 04                	jmp    5bd9 <safe_mod_func_uint8_t_u_u+0x2b>
    5bd5:	0f b6 45 fc          	movzbl -0x4(%rbp),%eax
    5bd9:	5d                   	pop    %rbp
    5bda:	c3                   	retq   

0000000000005bdb <safe_div_func_uint8_t_u_u>:
    5bdb:	f3 0f 1e fa          	endbr64 
    5bdf:	55                   	push   %rbp
    5be0:	48 89 e5             	mov    %rsp,%rbp
    5be3:	89 fa                	mov    %edi,%edx
    5be5:	89 f0                	mov    %esi,%eax
    5be7:	88 55 fc             	mov    %dl,-0x4(%rbp)
    5bea:	88 45 f8             	mov    %al,-0x8(%rbp)
    5bed:	80 7d f8 00          	cmpb   $0x0,-0x8(%rbp)
    5bf1:	74 0c                	je     5bff <safe_div_func_uint8_t_u_u+0x24>
    5bf3:	0f b6 45 fc          	movzbl -0x4(%rbp),%eax
    5bf7:	0f b6 c0             	movzbl %al,%eax
    5bfa:	f6 75 f8             	divb   -0x8(%rbp)
    5bfd:	eb 04                	jmp    5c03 <safe_div_func_uint8_t_u_u+0x28>
    5bff:	0f b6 45 fc          	movzbl -0x4(%rbp),%eax
    5c03:	5d                   	pop    %rbp
    5c04:	c3                   	retq   

0000000000005c05 <safe_lshift_func_uint8_t_u_s>:
    5c05:	f3 0f 1e fa          	endbr64 
    5c09:	55                   	push   %rbp
    5c0a:	48 89 e5             	mov    %rsp,%rbp
    5c0d:	89 f8                	mov    %edi,%eax
    5c0f:	89 75 f8             	mov    %esi,-0x8(%rbp)
    5c12:	88 45 fc             	mov    %al,-0x4(%rbp)
    5c15:	83 7d f8 00          	cmpl   $0x0,-0x8(%rbp)
    5c19:	78 2b                	js     5c46 <safe_lshift_func_uint8_t_u_s+0x41>
    5c1b:	83 7d f8 1f          	cmpl   $0x1f,-0x8(%rbp)
    5c1f:	7f 25                	jg     5c46 <safe_lshift_func_uint8_t_u_s+0x41>
    5c21:	0f b6 55 fc          	movzbl -0x4(%rbp),%edx
    5c25:	8b 45 f8             	mov    -0x8(%rbp),%eax
    5c28:	be ff 00 00 00       	mov    $0xff,%esi
    5c2d:	89 c1                	mov    %eax,%ecx
    5c2f:	d3 fe                	sar    %cl,%esi
    5c31:	89 f0                	mov    %esi,%eax
    5c33:	39 c2                	cmp    %eax,%edx
    5c35:	7f 0f                	jg     5c46 <safe_lshift_func_uint8_t_u_s+0x41>
    5c37:	0f b6 55 fc          	movzbl -0x4(%rbp),%edx
    5c3b:	8b 45 f8             	mov    -0x8(%rbp),%eax
    5c3e:	89 c1                	mov    %eax,%ecx
    5c40:	d3 e2                	shl    %cl,%edx
    5c42:	89 d0                	mov    %edx,%eax
    5c44:	eb 04                	jmp    5c4a <safe_lshift_func_uint8_t_u_s+0x45>
    5c46:	0f b6 45 fc          	movzbl -0x4(%rbp),%eax
    5c4a:	5d                   	pop    %rbp
    5c4b:	c3                   	retq   

0000000000005c4c <safe_lshift_func_uint8_t_u_u>:
    5c4c:	f3 0f 1e fa          	endbr64 
    5c50:	55                   	push   %rbp
    5c51:	48 89 e5             	mov    %rsp,%rbp
    5c54:	89 f8                	mov    %edi,%eax
    5c56:	89 75 f8             	mov    %esi,-0x8(%rbp)
    5c59:	88 45 fc             	mov    %al,-0x4(%rbp)
    5c5c:	83 7d f8 1f          	cmpl   $0x1f,-0x8(%rbp)
    5c60:	77 25                	ja     5c87 <safe_lshift_func_uint8_t_u_u+0x3b>
    5c62:	0f b6 55 fc          	movzbl -0x4(%rbp),%edx
    5c66:	8b 45 f8             	mov    -0x8(%rbp),%eax
    5c69:	be ff 00 00 00       	mov    $0xff,%esi
    5c6e:	89 c1                	mov    %eax,%ecx
    5c70:	d3 fe                	sar    %cl,%esi
    5c72:	89 f0                	mov    %esi,%eax
    5c74:	39 c2                	cmp    %eax,%edx
    5c76:	7f 0f                	jg     5c87 <safe_lshift_func_uint8_t_u_u+0x3b>
    5c78:	0f b6 55 fc          	movzbl -0x4(%rbp),%edx
    5c7c:	8b 45 f8             	mov    -0x8(%rbp),%eax
    5c7f:	89 c1                	mov    %eax,%ecx
    5c81:	d3 e2                	shl    %cl,%edx
    5c83:	89 d0                	mov    %edx,%eax
    5c85:	eb 04                	jmp    5c8b <safe_lshift_func_uint8_t_u_u+0x3f>
    5c87:	0f b6 45 fc          	movzbl -0x4(%rbp),%eax
    5c8b:	5d                   	pop    %rbp
    5c8c:	c3                   	retq   

0000000000005c8d <safe_rshift_func_uint8_t_u_s>:
    5c8d:	f3 0f 1e fa          	endbr64 
    5c91:	55                   	push   %rbp
    5c92:	48 89 e5             	mov    %rsp,%rbp
    5c95:	89 f8                	mov    %edi,%eax
    5c97:	89 75 f8             	mov    %esi,-0x8(%rbp)
    5c9a:	88 45 fc             	mov    %al,-0x4(%rbp)
    5c9d:	83 7d f8 00          	cmpl   $0x0,-0x8(%rbp)
    5ca1:	78 15                	js     5cb8 <safe_rshift_func_uint8_t_u_s+0x2b>
    5ca3:	83 7d f8 1f          	cmpl   $0x1f,-0x8(%rbp)
    5ca7:	7f 0f                	jg     5cb8 <safe_rshift_func_uint8_t_u_s+0x2b>
    5ca9:	0f b6 55 fc          	movzbl -0x4(%rbp),%edx
    5cad:	8b 45 f8             	mov    -0x8(%rbp),%eax
    5cb0:	89 c1                	mov    %eax,%ecx
    5cb2:	d3 fa                	sar    %cl,%edx
    5cb4:	89 d0                	mov    %edx,%eax
    5cb6:	eb 04                	jmp    5cbc <safe_rshift_func_uint8_t_u_s+0x2f>
    5cb8:	0f b6 45 fc          	movzbl -0x4(%rbp),%eax
    5cbc:	5d                   	pop    %rbp
    5cbd:	c3                   	retq   

0000000000005cbe <safe_rshift_func_uint8_t_u_u>:
    5cbe:	f3 0f 1e fa          	endbr64 
    5cc2:	55                   	push   %rbp
    5cc3:	48 89 e5             	mov    %rsp,%rbp
    5cc6:	89 f8                	mov    %edi,%eax
    5cc8:	89 75 f8             	mov    %esi,-0x8(%rbp)
    5ccb:	88 45 fc             	mov    %al,-0x4(%rbp)
    5cce:	83 7d f8 1f          	cmpl   $0x1f,-0x8(%rbp)
    5cd2:	77 0f                	ja     5ce3 <safe_rshift_func_uint8_t_u_u+0x25>
    5cd4:	0f b6 55 fc          	movzbl -0x4(%rbp),%edx
    5cd8:	8b 45 f8             	mov    -0x8(%rbp),%eax
    5cdb:	89 c1                	mov    %eax,%ecx
    5cdd:	d3 fa                	sar    %cl,%edx
    5cdf:	89 d0                	mov    %edx,%eax
    5ce1:	eb 04                	jmp    5ce7 <safe_rshift_func_uint8_t_u_u+0x29>
    5ce3:	0f b6 45 fc          	movzbl -0x4(%rbp),%eax
    5ce7:	5d                   	pop    %rbp
    5ce8:	c3                   	retq   

0000000000005ce9 <safe_unary_minus_func_uint16_t_u>:
    5ce9:	f3 0f 1e fa          	endbr64 
    5ced:	55                   	push   %rbp
    5cee:	48 89 e5             	mov    %rsp,%rbp
    5cf1:	89 f8                	mov    %edi,%eax
    5cf3:	66 89 45 fc          	mov    %ax,-0x4(%rbp)
    5cf7:	0f b7 45 fc          	movzwl -0x4(%rbp),%eax
    5cfb:	f7 d8                	neg    %eax
    5cfd:	5d                   	pop    %rbp
    5cfe:	c3                   	retq   

0000000000005cff <safe_add_func_uint16_t_u_u>:
    5cff:	f3 0f 1e fa          	endbr64 
    5d03:	55                   	push   %rbp
    5d04:	48 89 e5             	mov    %rsp,%rbp
    5d07:	89 fa                	mov    %edi,%edx
    5d09:	89 f0                	mov    %esi,%eax
    5d0b:	66 89 55 fc          	mov    %dx,-0x4(%rbp)
    5d0f:	66 89 45 f8          	mov    %ax,-0x8(%rbp)
    5d13:	0f b7 55 fc          	movzwl -0x4(%rbp),%edx
    5d17:	0f b7 45 f8          	movzwl -0x8(%rbp),%eax
    5d1b:	01 d0                	add    %edx,%eax
    5d1d:	5d                   	pop    %rbp
    5d1e:	c3                   	retq   

0000000000005d1f <safe_sub_func_uint16_t_u_u>:
    5d1f:	f3 0f 1e fa          	endbr64 
    5d23:	55                   	push   %rbp
    5d24:	48 89 e5             	mov    %rsp,%rbp
    5d27:	89 fa                	mov    %edi,%edx
    5d29:	89 f0                	mov    %esi,%eax
    5d2b:	66 89 55 fc          	mov    %dx,-0x4(%rbp)
    5d2f:	66 89 45 f8          	mov    %ax,-0x8(%rbp)
    5d33:	0f b7 45 fc          	movzwl -0x4(%rbp),%eax
    5d37:	66 2b 45 f8          	sub    -0x8(%rbp),%ax
    5d3b:	5d                   	pop    %rbp
    5d3c:	c3                   	retq   

0000000000005d3d <safe_mul_func_uint16_t_u_u>:
    5d3d:	f3 0f 1e fa          	endbr64 
    5d41:	55                   	push   %rbp
    5d42:	48 89 e5             	mov    %rsp,%rbp
    5d45:	89 fa                	mov    %edi,%edx
    5d47:	89 f0                	mov    %esi,%eax
    5d49:	66 89 55 fc          	mov    %dx,-0x4(%rbp)
    5d4d:	66 89 45 f8          	mov    %ax,-0x8(%rbp)
    5d51:	0f b7 45 fc          	movzwl -0x4(%rbp),%eax
    5d55:	66 0f af 45 f8       	imul   -0x8(%rbp),%ax
    5d5a:	5d                   	pop    %rbp
    5d5b:	c3                   	retq   

0000000000005d5c <safe_mod_func_uint16_t_u_u>:
    5d5c:	f3 0f 1e fa          	endbr64 
    5d60:	55                   	push   %rbp
    5d61:	48 89 e5             	mov    %rsp,%rbp
    5d64:	89 fa                	mov    %edi,%edx
    5d66:	89 f0                	mov    %esi,%eax
    5d68:	66 89 55 fc          	mov    %dx,-0x4(%rbp)
    5d6c:	66 89 45 f8          	mov    %ax,-0x8(%rbp)
    5d70:	66 83 7d f8 00       	cmpw   $0x0,-0x8(%rbp)
    5d75:	74 11                	je     5d88 <safe_mod_func_uint16_t_u_u+0x2c>
    5d77:	0f b7 45 fc          	movzwl -0x4(%rbp),%eax
    5d7b:	ba 00 00 00 00       	mov    $0x0,%edx
    5d80:	66 f7 75 f8          	divw   -0x8(%rbp)
    5d84:	89 d0                	mov    %edx,%eax
    5d86:	eb 04                	jmp    5d8c <safe_mod_func_uint16_t_u_u+0x30>
    5d88:	0f b7 45 fc          	movzwl -0x4(%rbp),%eax
    5d8c:	5d                   	pop    %rbp
    5d8d:	c3                   	retq   

0000000000005d8e <safe_div_func_uint16_t_u_u>:
    5d8e:	f3 0f 1e fa          	endbr64 
    5d92:	55                   	push   %rbp
    5d93:	48 89 e5             	mov    %rsp,%rbp
    5d96:	89 fa                	mov    %edi,%edx
    5d98:	89 f0                	mov    %esi,%eax
    5d9a:	66 89 55 fc          	mov    %dx,-0x4(%rbp)
    5d9e:	66 89 45 f8          	mov    %ax,-0x8(%rbp)
    5da2:	66 83 7d f8 00       	cmpw   $0x0,-0x8(%rbp)
    5da7:	74 0f                	je     5db8 <safe_div_func_uint16_t_u_u+0x2a>
    5da9:	0f b7 45 fc          	movzwl -0x4(%rbp),%eax
    5dad:	ba 00 00 00 00       	mov    $0x0,%edx
    5db2:	66 f7 75 f8          	divw   -0x8(%rbp)
    5db6:	eb 04                	jmp    5dbc <safe_div_func_uint16_t_u_u+0x2e>
    5db8:	0f b7 45 fc          	movzwl -0x4(%rbp),%eax
    5dbc:	5d                   	pop    %rbp
    5dbd:	c3                   	retq   

0000000000005dbe <safe_lshift_func_uint16_t_u_s>:
    5dbe:	f3 0f 1e fa          	endbr64 
    5dc2:	55                   	push   %rbp
    5dc3:	48 89 e5             	mov    %rsp,%rbp
    5dc6:	89 f8                	mov    %edi,%eax
    5dc8:	89 75 f8             	mov    %esi,-0x8(%rbp)
    5dcb:	66 89 45 fc          	mov    %ax,-0x4(%rbp)
    5dcf:	83 7d f8 00          	cmpl   $0x0,-0x8(%rbp)
    5dd3:	78 2b                	js     5e00 <safe_lshift_func_uint16_t_u_s+0x42>
    5dd5:	83 7d f8 1f          	cmpl   $0x1f,-0x8(%rbp)
    5dd9:	7f 25                	jg     5e00 <safe_lshift_func_uint16_t_u_s+0x42>
    5ddb:	0f b7 55 fc          	movzwl -0x4(%rbp),%edx
    5ddf:	8b 45 f8             	mov    -0x8(%rbp),%eax
    5de2:	be ff ff 00 00       	mov    $0xffff,%esi
    5de7:	89 c1                	mov    %eax,%ecx
    5de9:	d3 fe                	sar    %cl,%esi
    5deb:	89 f0                	mov    %esi,%eax
    5ded:	39 c2                	cmp    %eax,%edx
    5def:	7f 0f                	jg     5e00 <safe_lshift_func_uint16_t_u_s+0x42>
    5df1:	0f b7 55 fc          	movzwl -0x4(%rbp),%edx
    5df5:	8b 45 f8             	mov    -0x8(%rbp),%eax
    5df8:	89 c1                	mov    %eax,%ecx
    5dfa:	d3 e2                	shl    %cl,%edx
    5dfc:	89 d0                	mov    %edx,%eax
    5dfe:	eb 04                	jmp    5e04 <safe_lshift_func_uint16_t_u_s+0x46>
    5e00:	0f b7 45 fc          	movzwl -0x4(%rbp),%eax
    5e04:	5d                   	pop    %rbp
    5e05:	c3                   	retq   

0000000000005e06 <safe_lshift_func_uint16_t_u_u>:
    5e06:	f3 0f 1e fa          	endbr64 
    5e0a:	55                   	push   %rbp
    5e0b:	48 89 e5             	mov    %rsp,%rbp
    5e0e:	89 f8                	mov    %edi,%eax
    5e10:	89 75 f8             	mov    %esi,-0x8(%rbp)
    5e13:	66 89 45 fc          	mov    %ax,-0x4(%rbp)
    5e17:	83 7d f8 1f          	cmpl   $0x1f,-0x8(%rbp)
    5e1b:	77 25                	ja     5e42 <safe_lshift_func_uint16_t_u_u+0x3c>
    5e1d:	0f b7 55 fc          	movzwl -0x4(%rbp),%edx
    5e21:	8b 45 f8             	mov    -0x8(%rbp),%eax
    5e24:	be ff ff 00 00       	mov    $0xffff,%esi
    5e29:	89 c1                	mov    %eax,%ecx
    5e2b:	d3 fe                	sar    %cl,%esi
    5e2d:	89 f0                	mov    %esi,%eax
    5e2f:	39 c2                	cmp    %eax,%edx
    5e31:	7f 0f                	jg     5e42 <safe_lshift_func_uint16_t_u_u+0x3c>
    5e33:	0f b7 55 fc          	movzwl -0x4(%rbp),%edx
    5e37:	8b 45 f8             	mov    -0x8(%rbp),%eax
    5e3a:	89 c1                	mov    %eax,%ecx
    5e3c:	d3 e2                	shl    %cl,%edx
    5e3e:	89 d0                	mov    %edx,%eax
    5e40:	eb 04                	jmp    5e46 <safe_lshift_func_uint16_t_u_u+0x40>
    5e42:	0f b7 45 fc          	movzwl -0x4(%rbp),%eax
    5e46:	5d                   	pop    %rbp
    5e47:	c3                   	retq   

0000000000005e48 <safe_rshift_func_uint16_t_u_s>:
    5e48:	f3 0f 1e fa          	endbr64 
    5e4c:	55                   	push   %rbp
    5e4d:	48 89 e5             	mov    %rsp,%rbp
    5e50:	89 f8                	mov    %edi,%eax
    5e52:	89 75 f8             	mov    %esi,-0x8(%rbp)
    5e55:	66 89 45 fc          	mov    %ax,-0x4(%rbp)
    5e59:	83 7d f8 00          	cmpl   $0x0,-0x8(%rbp)
    5e5d:	78 15                	js     5e74 <safe_rshift_func_uint16_t_u_s+0x2c>
    5e5f:	83 7d f8 1f          	cmpl   $0x1f,-0x8(%rbp)
    5e63:	7f 0f                	jg     5e74 <safe_rshift_func_uint16_t_u_s+0x2c>
    5e65:	0f b7 55 fc          	movzwl -0x4(%rbp),%edx
    5e69:	8b 45 f8             	mov    -0x8(%rbp),%eax
    5e6c:	89 c1                	mov    %eax,%ecx
    5e6e:	d3 fa                	sar    %cl,%edx
    5e70:	89 d0                	mov    %edx,%eax
    5e72:	eb 04                	jmp    5e78 <safe_rshift_func_uint16_t_u_s+0x30>
    5e74:	0f b7 45 fc          	movzwl -0x4(%rbp),%eax
    5e78:	5d                   	pop    %rbp
    5e79:	c3                   	retq   

0000000000005e7a <safe_rshift_func_uint16_t_u_u>:
    5e7a:	f3 0f 1e fa          	endbr64 
    5e7e:	55                   	push   %rbp
    5e7f:	48 89 e5             	mov    %rsp,%rbp
    5e82:	89 f8                	mov    %edi,%eax
    5e84:	89 75 f8             	mov    %esi,-0x8(%rbp)
    5e87:	66 89 45 fc          	mov    %ax,-0x4(%rbp)
    5e8b:	83 7d f8 1f          	cmpl   $0x1f,-0x8(%rbp)
    5e8f:	77 0f                	ja     5ea0 <safe_rshift_func_uint16_t_u_u+0x26>
    5e91:	0f b7 55 fc          	movzwl -0x4(%rbp),%edx
    5e95:	8b 45 f8             	mov    -0x8(%rbp),%eax
    5e98:	89 c1                	mov    %eax,%ecx
    5e9a:	d3 fa                	sar    %cl,%edx
    5e9c:	89 d0                	mov    %edx,%eax
    5e9e:	eb 04                	jmp    5ea4 <safe_rshift_func_uint16_t_u_u+0x2a>
    5ea0:	0f b7 45 fc          	movzwl -0x4(%rbp),%eax
    5ea4:	5d                   	pop    %rbp
    5ea5:	c3                   	retq   

0000000000005ea6 <safe_unary_minus_func_uint32_t_u>:
    5ea6:	f3 0f 1e fa          	endbr64 
    5eaa:	55                   	push   %rbp
    5eab:	48 89 e5             	mov    %rsp,%rbp
    5eae:	89 7d fc             	mov    %edi,-0x4(%rbp)
    5eb1:	8b 45 fc             	mov    -0x4(%rbp),%eax
    5eb4:	f7 d8                	neg    %eax
    5eb6:	5d                   	pop    %rbp
    5eb7:	c3                   	retq   

0000000000005eb8 <safe_add_func_uint32_t_u_u>:
    5eb8:	f3 0f 1e fa          	endbr64 
    5ebc:	55                   	push   %rbp
    5ebd:	48 89 e5             	mov    %rsp,%rbp
    5ec0:	89 7d fc             	mov    %edi,-0x4(%rbp)
    5ec3:	89 75 f8             	mov    %esi,-0x8(%rbp)
    5ec6:	8b 55 fc             	mov    -0x4(%rbp),%edx
    5ec9:	8b 45 f8             	mov    -0x8(%rbp),%eax
    5ecc:	01 d0                	add    %edx,%eax
    5ece:	5d                   	pop    %rbp
    5ecf:	c3                   	retq   

0000000000005ed0 <safe_sub_func_uint32_t_u_u>:
    5ed0:	f3 0f 1e fa          	endbr64 
    5ed4:	55                   	push   %rbp
    5ed5:	48 89 e5             	mov    %rsp,%rbp
    5ed8:	89 7d fc             	mov    %edi,-0x4(%rbp)
    5edb:	89 75 f8             	mov    %esi,-0x8(%rbp)
    5ede:	8b 45 fc             	mov    -0x4(%rbp),%eax
    5ee1:	2b 45 f8             	sub    -0x8(%rbp),%eax
    5ee4:	5d                   	pop    %rbp
    5ee5:	c3                   	retq   

0000000000005ee6 <safe_mul_func_uint32_t_u_u>:
    5ee6:	f3 0f 1e fa          	endbr64 
    5eea:	55                   	push   %rbp
    5eeb:	48 89 e5             	mov    %rsp,%rbp
    5eee:	89 7d fc             	mov    %edi,-0x4(%rbp)
    5ef1:	89 75 f8             	mov    %esi,-0x8(%rbp)
    5ef4:	8b 45 fc             	mov    -0x4(%rbp),%eax
    5ef7:	0f af 45 f8          	imul   -0x8(%rbp),%eax
    5efb:	5d                   	pop    %rbp
    5efc:	c3                   	retq   

0000000000005efd <safe_mod_func_uint32_t_u_u>:
    5efd:	f3 0f 1e fa          	endbr64 
    5f01:	55                   	push   %rbp
    5f02:	48 89 e5             	mov    %rsp,%rbp
    5f05:	89 7d fc             	mov    %edi,-0x4(%rbp)
    5f08:	89 75 f8             	mov    %esi,-0x8(%rbp)
    5f0b:	83 7d f8 00          	cmpl   $0x0,-0x8(%rbp)
    5f0f:	74 0f                	je     5f20 <safe_mod_func_uint32_t_u_u+0x23>
    5f11:	8b 45 fc             	mov    -0x4(%rbp),%eax
    5f14:	ba 00 00 00 00       	mov    $0x0,%edx
    5f19:	f7 75 f8             	divl   -0x8(%rbp)
    5f1c:	89 d0                	mov    %edx,%eax
    5f1e:	eb 03                	jmp    5f23 <safe_mod_func_uint32_t_u_u+0x26>
    5f20:	8b 45 fc             	mov    -0x4(%rbp),%eax
    5f23:	5d                   	pop    %rbp
    5f24:	c3                   	retq   

0000000000005f25 <safe_div_func_uint32_t_u_u>:
    5f25:	f3 0f 1e fa          	endbr64 
    5f29:	55                   	push   %rbp
    5f2a:	48 89 e5             	mov    %rsp,%rbp
    5f2d:	89 7d fc             	mov    %edi,-0x4(%rbp)
    5f30:	89 75 f8             	mov    %esi,-0x8(%rbp)
    5f33:	83 7d f8 00          	cmpl   $0x0,-0x8(%rbp)
    5f37:	74 0d                	je     5f46 <safe_div_func_uint32_t_u_u+0x21>
    5f39:	8b 45 fc             	mov    -0x4(%rbp),%eax
    5f3c:	ba 00 00 00 00       	mov    $0x0,%edx
    5f41:	f7 75 f8             	divl   -0x8(%rbp)
    5f44:	eb 03                	jmp    5f49 <safe_div_func_uint32_t_u_u+0x24>
    5f46:	8b 45 fc             	mov    -0x4(%rbp),%eax
    5f49:	5d                   	pop    %rbp
    5f4a:	c3                   	retq   

0000000000005f4b <safe_lshift_func_uint32_t_u_s>:
    5f4b:	f3 0f 1e fa          	endbr64 
    5f4f:	55                   	push   %rbp
    5f50:	48 89 e5             	mov    %rsp,%rbp
    5f53:	89 7d fc             	mov    %edi,-0x4(%rbp)
    5f56:	89 75 f8             	mov    %esi,-0x8(%rbp)
    5f59:	83 7d f8 00          	cmpl   $0x0,-0x8(%rbp)
    5f5d:	78 27                	js     5f86 <safe_lshift_func_uint32_t_u_s+0x3b>
    5f5f:	83 7d f8 1f          	cmpl   $0x1f,-0x8(%rbp)
    5f63:	7f 21                	jg     5f86 <safe_lshift_func_uint32_t_u_s+0x3b>
    5f65:	8b 45 f8             	mov    -0x8(%rbp),%eax
    5f68:	ba ff ff ff ff       	mov    $0xffffffff,%edx
    5f6d:	89 c1                	mov    %eax,%ecx
    5f6f:	d3 ea                	shr    %cl,%edx
    5f71:	89 d0                	mov    %edx,%eax
    5f73:	39 45 fc             	cmp    %eax,-0x4(%rbp)
    5f76:	77 0e                	ja     5f86 <safe_lshift_func_uint32_t_u_s+0x3b>
    5f78:	8b 45 f8             	mov    -0x8(%rbp),%eax
    5f7b:	8b 55 fc             	mov    -0x4(%rbp),%edx
    5f7e:	89 c1                	mov    %eax,%ecx
    5f80:	d3 e2                	shl    %cl,%edx
    5f82:	89 d0                	mov    %edx,%eax
    5f84:	eb 03                	jmp    5f89 <safe_lshift_func_uint32_t_u_s+0x3e>
    5f86:	8b 45 fc             	mov    -0x4(%rbp),%eax
    5f89:	5d                   	pop    %rbp
    5f8a:	c3                   	retq   

0000000000005f8b <safe_lshift_func_uint32_t_u_u>:
    5f8b:	f3 0f 1e fa          	endbr64 
    5f8f:	55                   	push   %rbp
    5f90:	48 89 e5             	mov    %rsp,%rbp
    5f93:	89 7d fc             	mov    %edi,-0x4(%rbp)
    5f96:	89 75 f8             	mov    %esi,-0x8(%rbp)
    5f99:	83 7d f8 1f          	cmpl   $0x1f,-0x8(%rbp)
    5f9d:	77 21                	ja     5fc0 <safe_lshift_func_uint32_t_u_u+0x35>
    5f9f:	8b 45 f8             	mov    -0x8(%rbp),%eax
    5fa2:	ba ff ff ff ff       	mov    $0xffffffff,%edx
    5fa7:	89 c1                	mov    %eax,%ecx
    5fa9:	d3 ea                	shr    %cl,%edx
    5fab:	89 d0                	mov    %edx,%eax
    5fad:	39 45 fc             	cmp    %eax,-0x4(%rbp)
    5fb0:	77 0e                	ja     5fc0 <safe_lshift_func_uint32_t_u_u+0x35>
    5fb2:	8b 45 f8             	mov    -0x8(%rbp),%eax
    5fb5:	8b 55 fc             	mov    -0x4(%rbp),%edx
    5fb8:	89 c1                	mov    %eax,%ecx
    5fba:	d3 e2                	shl    %cl,%edx
    5fbc:	89 d0                	mov    %edx,%eax
    5fbe:	eb 03                	jmp    5fc3 <safe_lshift_func_uint32_t_u_u+0x38>
    5fc0:	8b 45 fc             	mov    -0x4(%rbp),%eax
    5fc3:	5d                   	pop    %rbp
    5fc4:	c3                   	retq   

0000000000005fc5 <safe_rshift_func_uint32_t_u_s>:
    5fc5:	f3 0f 1e fa          	endbr64 
    5fc9:	55                   	push   %rbp
    5fca:	48 89 e5             	mov    %rsp,%rbp
    5fcd:	89 7d fc             	mov    %edi,-0x4(%rbp)
    5fd0:	89 75 f8             	mov    %esi,-0x8(%rbp)
    5fd3:	83 7d f8 00          	cmpl   $0x0,-0x8(%rbp)
    5fd7:	78 14                	js     5fed <safe_rshift_func_uint32_t_u_s+0x28>
    5fd9:	83 7d f8 1f          	cmpl   $0x1f,-0x8(%rbp)
    5fdd:	7f 0e                	jg     5fed <safe_rshift_func_uint32_t_u_s+0x28>
    5fdf:	8b 45 f8             	mov    -0x8(%rbp),%eax
    5fe2:	8b 55 fc             	mov    -0x4(%rbp),%edx
    5fe5:	89 c1                	mov    %eax,%ecx
    5fe7:	d3 ea                	shr    %cl,%edx
    5fe9:	89 d0                	mov    %edx,%eax
    5feb:	eb 03                	jmp    5ff0 <safe_rshift_func_uint32_t_u_s+0x2b>
    5fed:	8b 45 fc             	mov    -0x4(%rbp),%eax
    5ff0:	5d                   	pop    %rbp
    5ff1:	c3                   	retq   

0000000000005ff2 <safe_rshift_func_uint32_t_u_u>:
    5ff2:	f3 0f 1e fa          	endbr64 
    5ff6:	55                   	push   %rbp
    5ff7:	48 89 e5             	mov    %rsp,%rbp
    5ffa:	89 7d fc             	mov    %edi,-0x4(%rbp)
    5ffd:	89 75 f8             	mov    %esi,-0x8(%rbp)
    6000:	83 7d f8 1f          	cmpl   $0x1f,-0x8(%rbp)
    6004:	77 0e                	ja     6014 <safe_rshift_func_uint32_t_u_u+0x22>
    6006:	8b 45 f8             	mov    -0x8(%rbp),%eax
    6009:	8b 55 fc             	mov    -0x4(%rbp),%edx
    600c:	89 c1                	mov    %eax,%ecx
    600e:	d3 ea                	shr    %cl,%edx
    6010:	89 d0                	mov    %edx,%eax
    6012:	eb 03                	jmp    6017 <safe_rshift_func_uint32_t_u_u+0x25>
    6014:	8b 45 fc             	mov    -0x4(%rbp),%eax
    6017:	5d                   	pop    %rbp
    6018:	c3                   	retq   

0000000000006019 <safe_unary_minus_func_uint64_t_u>:
    6019:	f3 0f 1e fa          	endbr64 
    601d:	55                   	push   %rbp
    601e:	48 89 e5             	mov    %rsp,%rbp
    6021:	48 89 7d f8          	mov    %rdi,-0x8(%rbp)
    6025:	48 8b 45 f8          	mov    -0x8(%rbp),%rax
    6029:	48 f7 d8             	neg    %rax
    602c:	5d                   	pop    %rbp
    602d:	c3                   	retq   

000000000000602e <safe_add_func_uint64_t_u_u>:
    602e:	f3 0f 1e fa          	endbr64 
    6032:	55                   	push   %rbp
    6033:	48 89 e5             	mov    %rsp,%rbp
    6036:	48 89 7d f8          	mov    %rdi,-0x8(%rbp)
    603a:	48 89 75 f0          	mov    %rsi,-0x10(%rbp)
    603e:	48 8b 55 f8          	mov    -0x8(%rbp),%rdx
    6042:	48 8b 45 f0          	mov    -0x10(%rbp),%rax
    6046:	48 01 d0             	add    %rdx,%rax
    6049:	5d                   	pop    %rbp
    604a:	c3                   	retq   

000000000000604b <safe_sub_func_uint64_t_u_u>:
    604b:	f3 0f 1e fa          	endbr64 
    604f:	55                   	push   %rbp
    6050:	48 89 e5             	mov    %rsp,%rbp
    6053:	48 89 7d f8          	mov    %rdi,-0x8(%rbp)
    6057:	48 89 75 f0          	mov    %rsi,-0x10(%rbp)
    605b:	48 8b 45 f8          	mov    -0x8(%rbp),%rax
    605f:	48 2b 45 f0          	sub    -0x10(%rbp),%rax
    6063:	5d                   	pop    %rbp
    6064:	c3                   	retq   

0000000000006065 <safe_mul_func_uint64_t_u_u>:
    6065:	f3 0f 1e fa          	endbr64 
    6069:	55                   	push   %rbp
    606a:	48 89 e5             	mov    %rsp,%rbp
    606d:	48 89 7d f8          	mov    %rdi,-0x8(%rbp)
    6071:	48 89 75 f0          	mov    %rsi,-0x10(%rbp)
    6075:	48 8b 45 f8          	mov    -0x8(%rbp),%rax
    6079:	48 0f af 45 f0       	imul   -0x10(%rbp),%rax
    607e:	5d                   	pop    %rbp
    607f:	c3                   	retq   

0000000000006080 <safe_mod_func_uint64_t_u_u>:
    6080:	f3 0f 1e fa          	endbr64 
    6084:	55                   	push   %rbp
    6085:	48 89 e5             	mov    %rsp,%rbp
    6088:	48 89 7d f8          	mov    %rdi,-0x8(%rbp)
    608c:	48 89 75 f0          	mov    %rsi,-0x10(%rbp)
    6090:	48 83 7d f0 00       	cmpq   $0x0,-0x10(%rbp)
    6095:	74 12                	je     60a9 <safe_mod_func_uint64_t_u_u+0x29>
    6097:	48 8b 45 f8          	mov    -0x8(%rbp),%rax
    609b:	ba 00 00 00 00       	mov    $0x0,%edx
    60a0:	48 f7 75 f0          	divq   -0x10(%rbp)
    60a4:	48 89 d0             	mov    %rdx,%rax
    60a7:	eb 04                	jmp    60ad <safe_mod_func_uint64_t_u_u+0x2d>
    60a9:	48 8b 45 f8          	mov    -0x8(%rbp),%rax
    60ad:	5d                   	pop    %rbp
    60ae:	c3                   	retq   

00000000000060af <safe_div_func_uint64_t_u_u>:
    60af:	f3 0f 1e fa          	endbr64 
    60b3:	55                   	push   %rbp
    60b4:	48 89 e5             	mov    %rsp,%rbp
    60b7:	48 89 7d f8          	mov    %rdi,-0x8(%rbp)
    60bb:	48 89 75 f0          	mov    %rsi,-0x10(%rbp)
    60bf:	48 83 7d f0 00       	cmpq   $0x0,-0x10(%rbp)
    60c4:	74 0f                	je     60d5 <safe_div_func_uint64_t_u_u+0x26>
    60c6:	48 8b 45 f8          	mov    -0x8(%rbp),%rax
    60ca:	ba 00 00 00 00       	mov    $0x0,%edx
    60cf:	48 f7 75 f0          	divq   -0x10(%rbp)
    60d3:	eb 04                	jmp    60d9 <safe_div_func_uint64_t_u_u+0x2a>
    60d5:	48 8b 45 f8          	mov    -0x8(%rbp),%rax
    60d9:	5d                   	pop    %rbp
    60da:	c3                   	retq   

00000000000060db <safe_lshift_func_uint64_t_u_s>:
    60db:	f3 0f 1e fa          	endbr64 
    60df:	55                   	push   %rbp
    60e0:	48 89 e5             	mov    %rsp,%rbp
    60e3:	48 89 7d f8          	mov    %rdi,-0x8(%rbp)
    60e7:	89 75 f4             	mov    %esi,-0xc(%rbp)
    60ea:	83 7d f4 00          	cmpl   $0x0,-0xc(%rbp)
    60ee:	78 2f                	js     611f <safe_lshift_func_uint64_t_u_s+0x44>
    60f0:	83 7d f4 1f          	cmpl   $0x1f,-0xc(%rbp)
    60f4:	7f 29                	jg     611f <safe_lshift_func_uint64_t_u_s+0x44>
    60f6:	8b 45 f4             	mov    -0xc(%rbp),%eax
    60f9:	48 c7 c2 ff ff ff ff 	mov    $0xffffffffffffffff,%rdx
    6100:	89 c1                	mov    %eax,%ecx
    6102:	48 d3 ea             	shr    %cl,%rdx
    6105:	48 89 d0             	mov    %rdx,%rax
    6108:	48 39 45 f8          	cmp    %rax,-0x8(%rbp)
    610c:	77 11                	ja     611f <safe_lshift_func_uint64_t_u_s+0x44>
    610e:	8b 45 f4             	mov    -0xc(%rbp),%eax
    6111:	48 8b 55 f8          	mov    -0x8(%rbp),%rdx
    6115:	89 c1                	mov    %eax,%ecx
    6117:	48 d3 e2             	shl    %cl,%rdx
    611a:	48 89 d0             	mov    %rdx,%rax
    611d:	eb 04                	jmp    6123 <safe_lshift_func_uint64_t_u_s+0x48>
    611f:	48 8b 45 f8          	mov    -0x8(%rbp),%rax
    6123:	5d                   	pop    %rbp
    6124:	c3                   	retq   

0000000000006125 <safe_lshift_func_uint64_t_u_u>:
    6125:	f3 0f 1e fa          	endbr64 
    6129:	55                   	push   %rbp
    612a:	48 89 e5             	mov    %rsp,%rbp
    612d:	48 89 7d f8          	mov    %rdi,-0x8(%rbp)
    6131:	89 75 f4             	mov    %esi,-0xc(%rbp)
    6134:	83 7d f4 1f          	cmpl   $0x1f,-0xc(%rbp)
    6138:	77 29                	ja     6163 <safe_lshift_func_uint64_t_u_u+0x3e>
    613a:	8b 45 f4             	mov    -0xc(%rbp),%eax
    613d:	48 c7 c2 ff ff ff ff 	mov    $0xffffffffffffffff,%rdx
    6144:	89 c1                	mov    %eax,%ecx
    6146:	48 d3 ea             	shr    %cl,%rdx
    6149:	48 89 d0             	mov    %rdx,%rax
    614c:	48 39 45 f8          	cmp    %rax,-0x8(%rbp)
    6150:	77 11                	ja     6163 <safe_lshift_func_uint64_t_u_u+0x3e>
    6152:	8b 45 f4             	mov    -0xc(%rbp),%eax
    6155:	48 8b 55 f8          	mov    -0x8(%rbp),%rdx
    6159:	89 c1                	mov    %eax,%ecx
    615b:	48 d3 e2             	shl    %cl,%rdx
    615e:	48 89 d0             	mov    %rdx,%rax
    6161:	eb 04                	jmp    6167 <safe_lshift_func_uint64_t_u_u+0x42>
    6163:	48 8b 45 f8          	mov    -0x8(%rbp),%rax
    6167:	5d                   	pop    %rbp
    6168:	c3                   	retq   

0000000000006169 <safe_rshift_func_uint64_t_u_s>:
    6169:	f3 0f 1e fa          	endbr64 
    616d:	55                   	push   %rbp
    616e:	48 89 e5             	mov    %rsp,%rbp
    6171:	48 89 7d f8          	mov    %rdi,-0x8(%rbp)
    6175:	89 75 f4             	mov    %esi,-0xc(%rbp)
    6178:	83 7d f4 00          	cmpl   $0x0,-0xc(%rbp)
    617c:	78 17                	js     6195 <safe_rshift_func_uint64_t_u_s+0x2c>
    617e:	83 7d f4 1f          	cmpl   $0x1f,-0xc(%rbp)
    6182:	7f 11                	jg     6195 <safe_rshift_func_uint64_t_u_s+0x2c>
    6184:	8b 45 f4             	mov    -0xc(%rbp),%eax
    6187:	48 8b 55 f8          	mov    -0x8(%rbp),%rdx
    618b:	89 c1                	mov    %eax,%ecx
    618d:	48 d3 ea             	shr    %cl,%rdx
    6190:	48 89 d0             	mov    %rdx,%rax
    6193:	eb 04                	jmp    6199 <safe_rshift_func_uint64_t_u_s+0x30>
    6195:	48 8b 45 f8          	mov    -0x8(%rbp),%rax
    6199:	5d                   	pop    %rbp
    619a:	c3                   	retq   

000000000000619b <safe_rshift_func_uint64_t_u_u>:
    619b:	f3 0f 1e fa          	endbr64 
    619f:	55                   	push   %rbp
    61a0:	48 89 e5             	mov    %rsp,%rbp
    61a3:	48 89 7d f8          	mov    %rdi,-0x8(%rbp)
    61a7:	89 75 f4             	mov    %esi,-0xc(%rbp)
    61aa:	83 7d f4 1f          	cmpl   $0x1f,-0xc(%rbp)
    61ae:	77 11                	ja     61c1 <safe_rshift_func_uint64_t_u_u+0x26>
    61b0:	8b 45 f4             	mov    -0xc(%rbp),%eax
    61b3:	48 8b 55 f8          	mov    -0x8(%rbp),%rdx
    61b7:	89 c1                	mov    %eax,%ecx
    61b9:	48 d3 ea             	shr    %cl,%rdx
    61bc:	48 89 d0             	mov    %rdx,%rax
    61bf:	eb 04                	jmp    61c5 <safe_rshift_func_uint64_t_u_u+0x2a>
    61c1:	48 8b 45 f8          	mov    -0x8(%rbp),%rax
    61c5:	5d                   	pop    %rbp
    61c6:	c3                   	retq   

00000000000061c7 <safe_add_func_float_f_f>:
    61c7:	f3 0f 1e fa          	endbr64 
    61cb:	55                   	push   %rbp
    61cc:	48 89 e5             	mov    %rsp,%rbp
    61cf:	f3 0f 11 45 fc       	movss  %xmm0,-0x4(%rbp)
    61d4:	f3 0f 11 4d f8       	movss  %xmm1,-0x8(%rbp)
    61d9:	f3 0f 10 4d fc       	movss  -0x4(%rbp),%xmm1
    61de:	f3 0f 10 05 82 ad 00 	movss  0xad82(%rip),%xmm0        # 10f68 <l_757.4305+0x18>
    61e5:	00 
    61e6:	f3 0f 59 c8          	mulss  %xmm0,%xmm1
    61ea:	f3 0f 10 55 f8       	movss  -0x8(%rbp),%xmm2
    61ef:	f3 0f 10 05 71 ad 00 	movss  0xad71(%rip),%xmm0        # 10f68 <l_757.4305+0x18>
    61f6:	00 
    61f7:	f3 0f 59 c2          	mulss  %xmm2,%xmm0
    61fb:	f3 0f 58 c1          	addss  %xmm1,%xmm0
    61ff:	f3 0f 10 0d 69 ad 00 	movss  0xad69(%rip),%xmm1        # 10f70 <l_757.4305+0x20>
    6206:	00 
    6207:	0f 54 c1             	andps  %xmm1,%xmm0
    620a:	0f 2f 05 6f ad 00 00 	comiss 0xad6f(%rip),%xmm0        # 10f80 <l_757.4305+0x30>
    6211:	76 07                	jbe    621a <safe_add_func_float_f_f+0x53>
    6213:	f3 0f 10 45 fc       	movss  -0x4(%rbp),%xmm0
    6218:	eb 0a                	jmp    6224 <safe_add_func_float_f_f+0x5d>
    621a:	f3 0f 10 45 fc       	movss  -0x4(%rbp),%xmm0
    621f:	f3 0f 58 45 f8       	addss  -0x8(%rbp),%xmm0
    6224:	5d                   	pop    %rbp
    6225:	c3                   	retq   

0000000000006226 <safe_sub_func_float_f_f>:
    6226:	f3 0f 1e fa          	endbr64 
    622a:	55                   	push   %rbp
    622b:	48 89 e5             	mov    %rsp,%rbp
    622e:	f3 0f 11 45 fc       	movss  %xmm0,-0x4(%rbp)
    6233:	f3 0f 11 4d f8       	movss  %xmm1,-0x8(%rbp)
    6238:	f3 0f 10 4d fc       	movss  -0x4(%rbp),%xmm1
    623d:	f3 0f 10 05 23 ad 00 	movss  0xad23(%rip),%xmm0        # 10f68 <l_757.4305+0x18>
    6244:	00 
    6245:	f3 0f 59 c1          	mulss  %xmm1,%xmm0
    6249:	f3 0f 10 55 f8       	movss  -0x8(%rbp),%xmm2
    624e:	f3 0f 10 0d 12 ad 00 	movss  0xad12(%rip),%xmm1        # 10f68 <l_757.4305+0x18>
    6255:	00 
    6256:	f3 0f 59 ca          	mulss  %xmm2,%xmm1
    625a:	f3 0f 5c c1          	subss  %xmm1,%xmm0
    625e:	f3 0f 10 0d 0a ad 00 	movss  0xad0a(%rip),%xmm1        # 10f70 <l_757.4305+0x20>
    6265:	00 
    6266:	0f 54 c1             	andps  %xmm1,%xmm0
    6269:	0f 2f 05 10 ad 00 00 	comiss 0xad10(%rip),%xmm0        # 10f80 <l_757.4305+0x30>
    6270:	76 07                	jbe    6279 <safe_sub_func_float_f_f+0x53>
    6272:	f3 0f 10 45 fc       	movss  -0x4(%rbp),%xmm0
    6277:	eb 0a                	jmp    6283 <safe_sub_func_float_f_f+0x5d>
    6279:	f3 0f 10 45 fc       	movss  -0x4(%rbp),%xmm0
    627e:	f3 0f 5c 45 f8       	subss  -0x8(%rbp),%xmm0
    6283:	5d                   	pop    %rbp
    6284:	c3                   	retq   

0000000000006285 <safe_mul_func_float_f_f>:
    6285:	f3 0f 1e fa          	endbr64 
    6289:	55                   	push   %rbp
    628a:	48 89 e5             	mov    %rsp,%rbp
    628d:	f3 0f 11 45 fc       	movss  %xmm0,-0x4(%rbp)
    6292:	f3 0f 11 4d f8       	movss  %xmm1,-0x8(%rbp)
    6297:	f3 0f 10 4d fc       	movss  -0x4(%rbp),%xmm1
    629c:	f3 0f 10 05 e0 ac 00 	movss  0xace0(%rip),%xmm0        # 10f84 <l_757.4305+0x34>
    62a3:	00 
    62a4:	f3 0f 59 c8          	mulss  %xmm0,%xmm1
    62a8:	f3 0f 10 55 f8       	movss  -0x8(%rbp),%xmm2
    62ad:	f3 0f 10 05 d3 ac 00 	movss  0xacd3(%rip),%xmm0        # 10f88 <l_757.4305+0x38>
    62b4:	00 
    62b5:	f3 0f 59 c2          	mulss  %xmm2,%xmm0
    62b9:	f3 0f 59 c1          	mulss  %xmm1,%xmm0
    62bd:	f3 0f 10 0d ab ac 00 	movss  0xacab(%rip),%xmm1        # 10f70 <l_757.4305+0x20>
    62c4:	00 
    62c5:	0f 54 c1             	andps  %xmm1,%xmm0
    62c8:	0f 2f 05 bd ac 00 00 	comiss 0xacbd(%rip),%xmm0        # 10f8c <l_757.4305+0x3c>
    62cf:	76 07                	jbe    62d8 <safe_mul_func_float_f_f+0x53>
    62d1:	f3 0f 10 45 fc       	movss  -0x4(%rbp),%xmm0
    62d6:	eb 0a                	jmp    62e2 <safe_mul_func_float_f_f+0x5d>
    62d8:	f3 0f 10 45 fc       	movss  -0x4(%rbp),%xmm0
    62dd:	f3 0f 59 45 f8       	mulss  -0x8(%rbp),%xmm0
    62e2:	5d                   	pop    %rbp
    62e3:	c3                   	retq   

00000000000062e4 <safe_div_func_float_f_f>:
    62e4:	f3 0f 1e fa          	endbr64 
    62e8:	55                   	push   %rbp
    62e9:	48 89 e5             	mov    %rsp,%rbp
    62ec:	f3 0f 11 45 fc       	movss  %xmm0,-0x4(%rbp)
    62f1:	f3 0f 11 4d f8       	movss  %xmm1,-0x8(%rbp)
    62f6:	f3 0f 10 45 f8       	movss  -0x8(%rbp),%xmm0
    62fb:	f3 0f 10 0d 6d ac 00 	movss  0xac6d(%rip),%xmm1        # 10f70 <l_757.4305+0x20>
    6302:	00 
    6303:	0f 54 c8             	andps  %xmm0,%xmm1
    6306:	f3 0f 10 05 82 ac 00 	movss  0xac82(%rip),%xmm0        # 10f90 <l_757.4305+0x40>
    630d:	00 
    630e:	0f 2f c1             	comiss %xmm1,%xmm0
    6311:	0f 97 c0             	seta   %al
    6314:	83 f0 01             	xor    $0x1,%eax
    6317:	84 c0                	test   %al,%al
    6319:	75 56                	jne    6371 <safe_div_func_float_f_f+0x8d>
    631b:	66 0f ef c0          	pxor   %xmm0,%xmm0
    631f:	0f 2e 45 f8          	ucomiss -0x8(%rbp),%xmm0
    6323:	7a 0a                	jp     632f <safe_div_func_float_f_f+0x4b>
    6325:	66 0f ef c0          	pxor   %xmm0,%xmm0
    6329:	0f 2e 45 f8          	ucomiss -0x8(%rbp),%xmm0
    632d:	74 4e                	je     637d <safe_div_func_float_f_f+0x99>
    632f:	f3 0f 10 4d fc       	movss  -0x4(%rbp),%xmm1
    6334:	f3 0f 10 05 58 ac 00 	movss  0xac58(%rip),%xmm0        # 10f94 <l_757.4305+0x44>
    633b:	00 
    633c:	f3 0f 59 c1          	mulss  %xmm1,%xmm0
    6340:	f3 0f 10 55 f8       	movss  -0x8(%rbp),%xmm2
    6345:	f3 0f 10 0d 4b ac 00 	movss  0xac4b(%rip),%xmm1        # 10f98 <l_757.4305+0x48>
    634c:	00 
    634d:	f3 0f 59 ca          	mulss  %xmm2,%xmm1
    6351:	f3 0f 5e c1          	divss  %xmm1,%xmm0
    6355:	f3 0f 10 0d 13 ac 00 	movss  0xac13(%rip),%xmm1        # 10f70 <l_757.4305+0x20>
    635c:	00 
    635d:	0f 54 c1             	andps  %xmm1,%xmm0
    6360:	0f 2f 05 35 ac 00 00 	comiss 0xac35(%rip),%xmm0        # 10f9c <l_757.4305+0x4c>
    6367:	0f 97 c0             	seta   %al
    636a:	83 f0 01             	xor    $0x1,%eax
    636d:	84 c0                	test   %al,%al
    636f:	74 0c                	je     637d <safe_div_func_float_f_f+0x99>
    6371:	f3 0f 10 45 fc       	movss  -0x4(%rbp),%xmm0
    6376:	f3 0f 5e 45 f8       	divss  -0x8(%rbp),%xmm0
    637b:	eb 05                	jmp    6382 <safe_div_func_float_f_f+0x9e>
    637d:	f3 0f 10 45 fc       	movss  -0x4(%rbp),%xmm0
    6382:	5d                   	pop    %rbp
    6383:	c3                   	retq   

0000000000006384 <safe_add_func_double_f_f>:
    6384:	f3 0f 1e fa          	endbr64 
    6388:	55                   	push   %rbp
    6389:	48 89 e5             	mov    %rsp,%rbp
    638c:	f2 0f 11 45 f8       	movsd  %xmm0,-0x8(%rbp)
    6391:	f2 0f 11 4d f0       	movsd  %xmm1,-0x10(%rbp)
    6396:	f2 0f 10 4d f8       	movsd  -0x8(%rbp),%xmm1
    639b:	f2 0f 10 05 fd ab 00 	movsd  0xabfd(%rip),%xmm0        # 10fa0 <l_757.4305+0x50>
    63a2:	00 
    63a3:	f2 0f 59 c8          	mulsd  %xmm0,%xmm1
    63a7:	f2 0f 10 55 f0       	movsd  -0x10(%rbp),%xmm2
    63ac:	f2 0f 10 05 ec ab 00 	movsd  0xabec(%rip),%xmm0        # 10fa0 <l_757.4305+0x50>
    63b3:	00 
    63b4:	f2 0f 59 c2          	mulsd  %xmm2,%xmm0
    63b8:	f2 0f 58 c1          	addsd  %xmm1,%xmm0
    63bc:	f3 0f 7e 0d ec ab 00 	movq   0xabec(%rip),%xmm1        # 10fb0 <l_757.4305+0x60>
    63c3:	00 
    63c4:	66 0f 54 c1          	andpd  %xmm1,%xmm0
    63c8:	66 0f 2f 05 f0 ab 00 	comisd 0xabf0(%rip),%xmm0        # 10fc0 <l_757.4305+0x70>
    63cf:	00 
    63d0:	76 07                	jbe    63d9 <safe_add_func_double_f_f+0x55>
    63d2:	f2 0f 10 45 f8       	movsd  -0x8(%rbp),%xmm0
    63d7:	eb 0a                	jmp    63e3 <safe_add_func_double_f_f+0x5f>
    63d9:	f2 0f 10 45 f8       	movsd  -0x8(%rbp),%xmm0
    63de:	f2 0f 58 45 f0       	addsd  -0x10(%rbp),%xmm0
    63e3:	5d                   	pop    %rbp
    63e4:	c3                   	retq   

00000000000063e5 <safe_sub_func_double_f_f>:
    63e5:	f3 0f 1e fa          	endbr64 
    63e9:	55                   	push   %rbp
    63ea:	48 89 e5             	mov    %rsp,%rbp
    63ed:	f2 0f 11 45 f8       	movsd  %xmm0,-0x8(%rbp)
    63f2:	f2 0f 11 4d f0       	movsd  %xmm1,-0x10(%rbp)
    63f7:	f2 0f 10 4d f8       	movsd  -0x8(%rbp),%xmm1
    63fc:	f2 0f 10 05 9c ab 00 	movsd  0xab9c(%rip),%xmm0        # 10fa0 <l_757.4305+0x50>
    6403:	00 
    6404:	f2 0f 59 c1          	mulsd  %xmm1,%xmm0
    6408:	f2 0f 10 55 f0       	movsd  -0x10(%rbp),%xmm2
    640d:	f2 0f 10 0d 8b ab 00 	movsd  0xab8b(%rip),%xmm1        # 10fa0 <l_757.4305+0x50>
    6414:	00 
    6415:	f2 0f 59 ca          	mulsd  %xmm2,%xmm1
    6419:	f2 0f 5c c1          	subsd  %xmm1,%xmm0
    641d:	f3 0f 7e 0d 8b ab 00 	movq   0xab8b(%rip),%xmm1        # 10fb0 <l_757.4305+0x60>
    6424:	00 
    6425:	66 0f 54 c1          	andpd  %xmm1,%xmm0
    6429:	66 0f 2f 05 8f ab 00 	comisd 0xab8f(%rip),%xmm0        # 10fc0 <l_757.4305+0x70>
    6430:	00 
    6431:	76 07                	jbe    643a <safe_sub_func_double_f_f+0x55>
    6433:	f2 0f 10 45 f8       	movsd  -0x8(%rbp),%xmm0
    6438:	eb 0a                	jmp    6444 <safe_sub_func_double_f_f+0x5f>
    643a:	f2 0f 10 45 f8       	movsd  -0x8(%rbp),%xmm0
    643f:	f2 0f 5c 45 f0       	subsd  -0x10(%rbp),%xmm0
    6444:	5d                   	pop    %rbp
    6445:	c3                   	retq   

0000000000006446 <safe_mul_func_double_f_f>:
    6446:	f3 0f 1e fa          	endbr64 
    644a:	55                   	push   %rbp
    644b:	48 89 e5             	mov    %rsp,%rbp
    644e:	f2 0f 11 45 f8       	movsd  %xmm0,-0x8(%rbp)
    6453:	f2 0f 11 4d f0       	movsd  %xmm1,-0x10(%rbp)
    6458:	f2 0f 10 4d f8       	movsd  -0x8(%rbp),%xmm1
    645d:	f2 0f 10 05 63 ab 00 	movsd  0xab63(%rip),%xmm0        # 10fc8 <l_757.4305+0x78>
    6464:	00 
    6465:	f2 0f 59 c8          	mulsd  %xmm0,%xmm1
    6469:	f2 0f 10 55 f0       	movsd  -0x10(%rbp),%xmm2
    646e:	f2 0f 10 05 5a ab 00 	movsd  0xab5a(%rip),%xmm0        # 10fd0 <l_757.4305+0x80>
    6475:	00 
    6476:	f2 0f 59 c2          	mulsd  %xmm2,%xmm0
    647a:	f2 0f 59 c1          	mulsd  %xmm1,%xmm0
    647e:	f3 0f 7e 0d 2a ab 00 	movq   0xab2a(%rip),%xmm1        # 10fb0 <l_757.4305+0x60>
    6485:	00 
    6486:	66 0f 54 c1          	andpd  %xmm1,%xmm0
    648a:	66 0f 2f 05 46 ab 00 	comisd 0xab46(%rip),%xmm0        # 10fd8 <l_757.4305+0x88>
    6491:	00 
    6492:	76 07                	jbe    649b <safe_mul_func_double_f_f+0x55>
    6494:	f2 0f 10 45 f8       	movsd  -0x8(%rbp),%xmm0
    6499:	eb 0a                	jmp    64a5 <safe_mul_func_double_f_f+0x5f>
    649b:	f2 0f 10 45 f8       	movsd  -0x8(%rbp),%xmm0
    64a0:	f2 0f 59 45 f0       	mulsd  -0x10(%rbp),%xmm0
    64a5:	5d                   	pop    %rbp
    64a6:	c3                   	retq   

00000000000064a7 <safe_div_func_double_f_f>:
    64a7:	f3 0f 1e fa          	endbr64 
    64ab:	55                   	push   %rbp
    64ac:	48 89 e5             	mov    %rsp,%rbp
    64af:	f2 0f 11 45 f8       	movsd  %xmm0,-0x8(%rbp)
    64b4:	f2 0f 11 4d f0       	movsd  %xmm1,-0x10(%rbp)
    64b9:	f2 0f 10 45 f0       	movsd  -0x10(%rbp),%xmm0
    64be:	f3 0f 7e 0d ea aa 00 	movq   0xaaea(%rip),%xmm1        # 10fb0 <l_757.4305+0x60>
    64c5:	00 
    64c6:	66 0f 54 c8          	andpd  %xmm0,%xmm1
    64ca:	f2 0f 10 05 0e ab 00 	movsd  0xab0e(%rip),%xmm0        # 10fe0 <l_757.4305+0x90>
    64d1:	00 
    64d2:	66 0f 2f c1          	comisd %xmm1,%xmm0
    64d6:	0f 97 c0             	seta   %al
    64d9:	83 f0 01             	xor    $0x1,%eax
    64dc:	84 c0                	test   %al,%al
    64de:	75 5a                	jne    653a <safe_div_func_double_f_f+0x93>
    64e0:	66 0f ef c0          	pxor   %xmm0,%xmm0
    64e4:	66 0f 2e 45 f0       	ucomisd -0x10(%rbp),%xmm0
    64e9:	7a 0b                	jp     64f6 <safe_div_func_double_f_f+0x4f>
    64eb:	66 0f ef c0          	pxor   %xmm0,%xmm0
    64ef:	66 0f 2e 45 f0       	ucomisd -0x10(%rbp),%xmm0
    64f4:	74 50                	je     6546 <safe_div_func_double_f_f+0x9f>
    64f6:	f2 0f 10 4d f8       	movsd  -0x8(%rbp),%xmm1
    64fb:	f2 0f 10 05 e5 aa 00 	movsd  0xaae5(%rip),%xmm0        # 10fe8 <l_757.4305+0x98>
    6502:	00 
    6503:	f2 0f 59 c1          	mulsd  %xmm1,%xmm0
    6507:	f2 0f 10 55 f0       	movsd  -0x10(%rbp),%xmm2
    650c:	f2 0f 10 0d dc aa 00 	movsd  0xaadc(%rip),%xmm1        # 10ff0 <l_757.4305+0xa0>
    6513:	00 
    6514:	f2 0f 59 ca          	mulsd  %xmm2,%xmm1
    6518:	f2 0f 5e c1          	divsd  %xmm1,%xmm0
    651c:	f3 0f 7e 0d 8c aa 00 	movq   0xaa8c(%rip),%xmm1        # 10fb0 <l_757.4305+0x60>
    6523:	00 
    6524:	66 0f 54 c1          	andpd  %xmm1,%xmm0
    6528:	66 0f 2f 05 c8 aa 00 	comisd 0xaac8(%rip),%xmm0        # 10ff8 <l_757.4305+0xa8>
    652f:	00 
    6530:	0f 97 c0             	seta   %al
    6533:	83 f0 01             	xor    $0x1,%eax
    6536:	84 c0                	test   %al,%al
    6538:	74 0c                	je     6546 <safe_div_func_double_f_f+0x9f>
    653a:	f2 0f 10 45 f8       	movsd  -0x8(%rbp),%xmm0
    653f:	f2 0f 5e 45 f0       	divsd  -0x10(%rbp),%xmm0
    6544:	eb 05                	jmp    654b <safe_div_func_double_f_f+0xa4>
    6546:	f2 0f 10 45 f8       	movsd  -0x8(%rbp),%xmm0
    654b:	5d                   	pop    %rbp
    654c:	c3                   	retq   

000000000000654d <safe_convert_func_float_to_int32_t>:
    654d:	f3 0f 1e fa          	endbr64 
    6551:	55                   	push   %rbp
    6552:	48 89 e5             	mov    %rsp,%rbp
    6555:	f3 0f 11 45 fc       	movss  %xmm0,-0x4(%rbp)
    655a:	f3 0f 10 05 9e aa 00 	movss  0xaa9e(%rip),%xmm0        # 11000 <l_757.4305+0xb0>
    6561:	00 
    6562:	0f 2f 45 fc          	comiss -0x4(%rbp),%xmm0
    6566:	0f 93 c0             	setae  %al
    6569:	83 f0 01             	xor    $0x1,%eax
    656c:	84 c0                	test   %al,%al
    656e:	74 21                	je     6591 <safe_convert_func_float_to_int32_t+0x44>
    6570:	f3 0f 10 45 fc       	movss  -0x4(%rbp),%xmm0
    6575:	0f 2f 05 88 aa 00 00 	comiss 0xaa88(%rip),%xmm0        # 11004 <l_757.4305+0xb4>
    657c:	0f 93 c0             	setae  %al
    657f:	83 f0 01             	xor    $0x1,%eax
    6582:	84 c0                	test   %al,%al
    6584:	74 0b                	je     6591 <safe_convert_func_float_to_int32_t+0x44>
    6586:	f3 0f 10 45 fc       	movss  -0x4(%rbp),%xmm0
    658b:	f3 0f 2c c0          	cvttss2si %xmm0,%eax
    658f:	eb 05                	jmp    6596 <safe_convert_func_float_to_int32_t+0x49>
    6591:	b8 ff ff ff 7f       	mov    $0x7fffffff,%eax
    6596:	5d                   	pop    %rbp
    6597:	c3                   	retq   

0000000000006598 <crc32_gentab>:
    6598:	f3 0f 1e fa          	endbr64 
    659c:	55                   	push   %rbp
    659d:	48 89 e5             	mov    %rsp,%rbp
    65a0:	c7 45 fc 20 83 b8 ed 	movl   $0xedb88320,-0x4(%rbp)
    65a7:	c7 45 f4 00 00 00 00 	movl   $0x0,-0xc(%rbp)
    65ae:	eb 51                	jmp    6601 <crc32_gentab+0x69>
    65b0:	8b 45 f4             	mov    -0xc(%rbp),%eax
    65b3:	89 45 f0             	mov    %eax,-0x10(%rbp)
    65b6:	c7 45 f8 08 00 00 00 	movl   $0x8,-0x8(%rbp)
    65bd:	eb 1e                	jmp    65dd <crc32_gentab+0x45>
    65bf:	8b 45 f0             	mov    -0x10(%rbp),%eax
    65c2:	83 e0 01             	and    $0x1,%eax
    65c5:	85 c0                	test   %eax,%eax
    65c7:	74 0d                	je     65d6 <crc32_gentab+0x3e>
    65c9:	8b 45 f0             	mov    -0x10(%rbp),%eax
    65cc:	d1 e8                	shr    %eax
    65ce:	33 45 fc             	xor    -0x4(%rbp),%eax
    65d1:	89 45 f0             	mov    %eax,-0x10(%rbp)
    65d4:	eb 03                	jmp    65d9 <crc32_gentab+0x41>
    65d6:	d1 6d f0             	shrl   -0x10(%rbp)
    65d9:	83 6d f8 01          	subl   $0x1,-0x8(%rbp)
    65dd:	83 7d f8 00          	cmpl   $0x0,-0x8(%rbp)
    65e1:	7f dc                	jg     65bf <crc32_gentab+0x27>
    65e3:	8b 45 f4             	mov    -0xc(%rbp),%eax
    65e6:	48 98                	cltq   
    65e8:	48 8d 0c 85 00 00 00 	lea    0x0(,%rax,4),%rcx
    65ef:	00 
    65f0:	48 8d 15 49 00 01 00 	lea    0x10049(%rip),%rdx        # 16640 <crc32_tab>
    65f7:	8b 45 f0             	mov    -0x10(%rbp),%eax
    65fa:	89 04 11             	mov    %eax,(%rcx,%rdx,1)
    65fd:	83 45 f4 01          	addl   $0x1,-0xc(%rbp)
    6601:	81 7d f4 ff 00 00 00 	cmpl   $0xff,-0xc(%rbp)
    6608:	7e a6                	jle    65b0 <crc32_gentab+0x18>
    660a:	90                   	nop
    660b:	90                   	nop
    660c:	5d                   	pop    %rbp
    660d:	c3                   	retq   

000000000000660e <crc32_byte>:
    660e:	f3 0f 1e fa          	endbr64 
    6612:	55                   	push   %rbp
    6613:	48 89 e5             	mov    %rsp,%rbp
    6616:	89 f8                	mov    %edi,%eax
    6618:	88 45 fc             	mov    %al,-0x4(%rbp)
    661b:	8b 05 ff d9 00 00    	mov    0xd9ff(%rip),%eax        # 14020 <crc32_context>
    6621:	c1 e8 08             	shr    $0x8,%eax
    6624:	89 c1                	mov    %eax,%ecx
    6626:	0f b6 55 fc          	movzbl -0x4(%rbp),%edx
    662a:	8b 05 f0 d9 00 00    	mov    0xd9f0(%rip),%eax        # 14020 <crc32_context>
    6630:	31 d0                	xor    %edx,%eax
    6632:	0f b6 c0             	movzbl %al,%eax
    6635:	89 c0                	mov    %eax,%eax
    6637:	48 8d 14 85 00 00 00 	lea    0x0(,%rax,4),%rdx
    663e:	00 
    663f:	48 8d 05 fa ff 00 00 	lea    0xfffa(%rip),%rax        # 16640 <crc32_tab>
    6646:	8b 04 02             	mov    (%rdx,%rax,1),%eax
    6649:	31 c8                	xor    %ecx,%eax
    664b:	89 05 cf d9 00 00    	mov    %eax,0xd9cf(%rip)        # 14020 <crc32_context>
    6651:	90                   	nop
    6652:	5d                   	pop    %rbp
    6653:	c3                   	retq   

0000000000006654 <crc32_8bytes>:
    6654:	f3 0f 1e fa          	endbr64 
    6658:	55                   	push   %rbp
    6659:	48 89 e5             	mov    %rsp,%rbp
    665c:	48 83 ec 08          	sub    $0x8,%rsp
    6660:	48 89 7d f8          	mov    %rdi,-0x8(%rbp)
    6664:	48 8b 45 f8          	mov    -0x8(%rbp),%rax
    6668:	0f b6 c0             	movzbl %al,%eax
    666b:	89 c7                	mov    %eax,%edi
    666d:	e8 9c ff ff ff       	callq  660e <crc32_byte>
    6672:	48 8b 45 f8          	mov    -0x8(%rbp),%rax
    6676:	48 c1 e8 08          	shr    $0x8,%rax
    667a:	0f b6 c0             	movzbl %al,%eax
    667d:	89 c7                	mov    %eax,%edi
    667f:	e8 8a ff ff ff       	callq  660e <crc32_byte>
    6684:	48 8b 45 f8          	mov    -0x8(%rbp),%rax
    6688:	48 c1 e8 10          	shr    $0x10,%rax
    668c:	0f b6 c0             	movzbl %al,%eax
    668f:	89 c7                	mov    %eax,%edi
    6691:	e8 78 ff ff ff       	callq  660e <crc32_byte>
    6696:	48 8b 45 f8          	mov    -0x8(%rbp),%rax
    669a:	48 c1 e8 18          	shr    $0x18,%rax
    669e:	0f b6 c0             	movzbl %al,%eax
    66a1:	89 c7                	mov    %eax,%edi
    66a3:	e8 66 ff ff ff       	callq  660e <crc32_byte>
    66a8:	48 8b 45 f8          	mov    -0x8(%rbp),%rax
    66ac:	48 c1 e8 20          	shr    $0x20,%rax
    66b0:	0f b6 c0             	movzbl %al,%eax
    66b3:	89 c7                	mov    %eax,%edi
    66b5:	e8 54 ff ff ff       	callq  660e <crc32_byte>
    66ba:	48 8b 45 f8          	mov    -0x8(%rbp),%rax
    66be:	48 c1 e8 28          	shr    $0x28,%rax
    66c2:	0f b6 c0             	movzbl %al,%eax
    66c5:	89 c7                	mov    %eax,%edi
    66c7:	e8 42 ff ff ff       	callq  660e <crc32_byte>
    66cc:	48 8b 45 f8          	mov    -0x8(%rbp),%rax
    66d0:	48 c1 e8 30          	shr    $0x30,%rax
    66d4:	0f b6 c0             	movzbl %al,%eax
    66d7:	89 c7                	mov    %eax,%edi
    66d9:	e8 30 ff ff ff       	callq  660e <crc32_byte>
    66de:	48 8b 45 f8          	mov    -0x8(%rbp),%rax
    66e2:	48 c1 e8 38          	shr    $0x38,%rax
    66e6:	0f b6 c0             	movzbl %al,%eax
    66e9:	89 c7                	mov    %eax,%edi
    66eb:	e8 1e ff ff ff       	callq  660e <crc32_byte>
    66f0:	90                   	nop
    66f1:	c9                   	leaveq 
    66f2:	c3                   	retq   

00000000000066f3 <transparent_crc>:
    66f3:	f3 0f 1e fa          	endbr64 
    66f7:	55                   	push   %rbp
    66f8:	48 89 e5             	mov    %rsp,%rbp
    66fb:	48 83 ec 20          	sub    $0x20,%rsp
    66ff:	48 89 7d f8          	mov    %rdi,-0x8(%rbp)
    6703:	48 89 75 f0          	mov    %rsi,-0x10(%rbp)
    6707:	89 55 ec             	mov    %edx,-0x14(%rbp)
    670a:	48 8b 45 f8          	mov    -0x8(%rbp),%rax
    670e:	48 89 c7             	mov    %rax,%rdi
    6711:	e8 3e ff ff ff       	callq  6654 <crc32_8bytes>
    6716:	83 7d ec 00          	cmpl   $0x0,-0x14(%rbp)
    671a:	74 22                	je     673e <transparent_crc+0x4b>
    671c:	8b 05 fe d8 00 00    	mov    0xd8fe(%rip),%eax        # 14020 <crc32_context>
    6722:	f7 d0                	not    %eax
    6724:	89 c2                	mov    %eax,%edx
    6726:	48 8b 45 f0          	mov    -0x10(%rbp),%rax
    672a:	48 89 c6             	mov    %rax,%rsi
    672d:	48 8d 3d fc 88 00 00 	lea    0x88fc(%rip),%rdi        # f030 <_IO_stdin_used+0x30>
    6734:	b8 00 00 00 00       	mov    $0x0,%eax
    6739:	e8 42 e9 ff ff       	callq  5080 <printf@plt>
    673e:	90                   	nop
    673f:	c9                   	leaveq 
    6740:	c3                   	retq   

0000000000006741 <transparent_crc_bytes>:
    6741:	f3 0f 1e fa          	endbr64 
    6745:	55                   	push   %rbp
    6746:	48 89 e5             	mov    %rsp,%rbp
    6749:	48 83 ec 30          	sub    $0x30,%rsp
    674d:	48 89 7d e8          	mov    %rdi,-0x18(%rbp)
    6751:	89 75 e4             	mov    %esi,-0x1c(%rbp)
    6754:	48 89 55 d8          	mov    %rdx,-0x28(%rbp)
    6758:	89 4d e0             	mov    %ecx,-0x20(%rbp)
    675b:	c7 45 fc 00 00 00 00 	movl   $0x0,-0x4(%rbp)
    6762:	eb 1e                	jmp    6782 <transparent_crc_bytes+0x41>
    6764:	8b 45 fc             	mov    -0x4(%rbp),%eax
    6767:	48 63 d0             	movslq %eax,%rdx
    676a:	48 8b 45 e8          	mov    -0x18(%rbp),%rax
    676e:	48 01 d0             	add    %rdx,%rax
    6771:	0f b6 00             	movzbl (%rax),%eax
    6774:	0f b6 c0             	movzbl %al,%eax
    6777:	89 c7                	mov    %eax,%edi
    6779:	e8 90 fe ff ff       	callq  660e <crc32_byte>
    677e:	83 45 fc 01          	addl   $0x1,-0x4(%rbp)
    6782:	8b 45 fc             	mov    -0x4(%rbp),%eax
    6785:	3b 45 e4             	cmp    -0x1c(%rbp),%eax
    6788:	7c da                	jl     6764 <transparent_crc_bytes+0x23>
    678a:	83 7d e0 00          	cmpl   $0x0,-0x20(%rbp)
    678e:	74 22                	je     67b2 <transparent_crc_bytes+0x71>
    6790:	8b 05 8a d8 00 00    	mov    0xd88a(%rip),%eax        # 14020 <crc32_context>
    6796:	f7 d0                	not    %eax
    6798:	89 c2                	mov    %eax,%edx
    679a:	48 8b 45 d8          	mov    -0x28(%rbp),%rax
    679e:	48 89 c6             	mov    %rax,%rsi
    67a1:	48 8d 3d 88 88 00 00 	lea    0x8888(%rip),%rdi        # f030 <_IO_stdin_used+0x30>
    67a8:	b8 00 00 00 00       	mov    $0x0,%eax
    67ad:	e8 ce e8 ff ff       	callq  5080 <printf@plt>
    67b2:	90                   	nop
    67b3:	c9                   	leaveq 
    67b4:	c3                   	retq   

00000000000067b5 <func_1>:
    67b5:	f3 0f 1e fa          	endbr64 
    67b9:	55                   	push   %rbp
    67ba:	48 89 e5             	mov    %rsp,%rbp
    67bd:	41 57                	push   %r15
    67bf:	41 56                	push   %r14
    67c1:	41 55                	push   %r13
    67c3:	41 54                	push   %r12
    67c5:	53                   	push   %rbx
    67c6:	48 81 ec 78 03 00 00 	sub    $0x378,%rsp
    67cd:	64 48 8b 04 25 28 00 	mov    %fs:0x28,%rax
    67d4:	00 00 
    67d6:	48 89 45 c8          	mov    %rax,-0x38(%rbp)
    67da:	31 c0                	xor    %eax,%eax
    67dc:	c6 85 b1 fc ff ff 01 	movb   $0x1,-0x34f(%rbp)
    67e3:	c7 85 b4 fc ff ff fb 	movl   $0xfffffffb,-0x34c(%rbp)
    67ea:	ff ff ff 
    67ed:	48 8d 05 30 d8 00 00 	lea    0xd830(%rip),%rax        # 14024 <g_74>
    67f4:	48 89 85 b8 fc ff ff 	mov    %rax,-0x348(%rbp)
    67fb:	48 c7 85 c0 fc ff ff 	movq   $0x0,-0x340(%rbp)
    6802:	00 00 00 00 
    6806:	48 8d 05 2b d8 00 00 	lea    0xd82b(%rip),%rax        # 14038 <g_87>
    680d:	48 89 85 c8 fc ff ff 	mov    %rax,-0x338(%rbp)
    6814:	0f b7 85 b2 fc ff ff 	movzwl -0x34e(%rbp),%eax
    681b:	66 25 00 fc          	and    $0xfc00,%ax
    681f:	83 c8 0c             	or     $0xc,%eax
    6822:	66 89 85 b2 fc ff ff 	mov    %ax,-0x34e(%rbp)
    6829:	48 8d 05 70 d9 00 00 	lea    0xd970(%rip),%rax        # 141a0 <g_118+0x120>
    6830:	48 89 85 d0 fc ff ff 	mov    %rax,-0x330(%rbp)
    6837:	48 b8 ad 79 c0 cd 38 	movabs $0x76197838cdc079ad,%rax
    683e:	78 19 76 
    6841:	48 89 85 d8 fc ff ff 	mov    %rax,-0x328(%rbp)
    6848:	48 8d 05 a1 da 00 00 	lea    0xdaa1(%rip),%rax        # 142f0 <g_141+0x8>
    684f:	48 89 85 e0 fc ff ff 	mov    %rax,-0x320(%rbp)
    6856:	48 8d 85 f0 fc ff ff 	lea    -0x310(%rbp),%rax
    685d:	48 8d 15 7c 88 00 00 	lea    0x887c(%rip),%rdx        # f0e0 <g_2179+0x14>
    6864:	b9 5a 00 00 00       	mov    $0x5a,%ecx
    6869:	48 89 c7             	mov    %rax,%rdi
    686c:	48 89 d6             	mov    %rdx,%rsi
    686f:	f3 48 a5             	rep movsq %ds:(%rsi),%es:(%rdi)
    6872:	48 8d 05 83 02 01 00 	lea    0x10283(%rip),%rax        # 16afc <g_2211>
    6879:	48 89 85 e8 fc ff ff 	mov    %rax,-0x318(%rbp)
    6880:	0f b7 85 b2 fc ff ff 	movzwl -0x34e(%rbp),%eax
    6887:	66 25 ff 03          	and    $0x3ff,%ax
    688b:	0f b7 c0             	movzwl %ax,%eax
    688e:	89 85 ac fc ff ff    	mov    %eax,-0x354(%rbp)
    6894:	0f b7 85 b2 fc ff ff 	movzwl -0x34e(%rbp),%eax
    689b:	66 25 ff 03          	and    $0x3ff,%ax
    689f:	0f b6 c0             	movzbl %al,%eax
    68a2:	89 85 a8 fc ff ff    	mov    %eax,-0x358(%rbp)
    68a8:	0f be 85 b1 fc ff ff 	movsbl -0x34f(%rbp),%eax
    68af:	89 85 a4 fc ff ff    	mov    %eax,-0x35c(%rbp)
    68b5:	0f b7 85 b2 fc ff ff 	movzwl -0x34e(%rbp),%eax
    68bc:	66 25 ff 03          	and    $0x3ff,%ax
    68c0:	0f b7 c0             	movzwl %ax,%eax
    68c3:	89 85 a0 fc ff ff    	mov    %eax,-0x360(%rbp)
    68c9:	0f b7 05 0a db 00 00 	movzwl 0xdb0a(%rip),%eax        # 143da <g_413+0xa>
    68d0:	0f be c0             	movsbl %al,%eax
    68d3:	89 85 9c fc ff ff    	mov    %eax,-0x364(%rbp)
    68d9:	0f be 85 b1 fc ff ff 	movsbl -0x34f(%rbp),%eax
    68e0:	89 85 98 fc ff ff    	mov    %eax,-0x368(%rbp)
    68e6:	0f b7 05 ed da 00 00 	movzwl 0xdaed(%rip),%eax        # 143da <g_413+0xa>
    68ed:	0f b7 c0             	movzwl %ax,%eax
    68f0:	89 85 94 fc ff ff    	mov    %eax,-0x36c(%rbp)
    68f6:	8b 85 b4 fc ff ff    	mov    -0x34c(%rbp),%eax
    68fc:	0f b6 c0             	movzbl %al,%eax
    68ff:	89 85 90 fc ff ff    	mov    %eax,-0x370(%rbp)
    6905:	8b 85 b4 fc ff ff    	mov    -0x34c(%rbp),%eax
    690b:	48 89 85 88 fc ff ff 	mov    %rax,-0x378(%rbp)
    6912:	0f b7 85 b2 fc ff ff 	movzwl -0x34e(%rbp),%eax
    6919:	66 25 ff 03          	and    $0x3ff,%ax
    691d:	0f b6 c0             	movzbl %al,%eax
    6920:	89 85 84 fc ff ff    	mov    %eax,-0x37c(%rbp)
    6926:	0f b7 85 b2 fc ff ff 	movzwl -0x34e(%rbp),%eax
    692d:	66 25 ff 03          	and    $0x3ff,%ax
    6931:	0f b7 c0             	movzwl %ax,%eax
    6934:	89 85 80 fc ff ff    	mov    %eax,-0x380(%rbp)
    693a:	48 8b 85 d8 fc ff ff 	mov    -0x328(%rbp),%rax
    6941:	0f be c0             	movsbl %al,%eax
    6944:	89 85 7c fc ff ff    	mov    %eax,-0x384(%rbp)
    694a:	0f b7 85 b2 fc ff ff 	movzwl -0x34e(%rbp),%eax
    6951:	66 25 ff 03          	and    $0x3ff,%ax
    6955:	0f b7 c0             	movzwl %ax,%eax
    6958:	48 89 85 70 fc ff ff 	mov    %rax,-0x390(%rbp)
    695f:	0f be 85 b1 fc ff ff 	movsbl -0x34f(%rbp),%eax
    6966:	89 85 78 fc ff ff    	mov    %eax,-0x388(%rbp)
    696c:	0f b7 85 b2 fc ff ff 	movzwl -0x34e(%rbp),%eax
    6973:	66 25 ff 03          	and    $0x3ff,%ax
    6977:	0f b7 c0             	movzwl %ax,%eax
    697a:	89 85 6c fc ff ff    	mov    %eax,-0x394(%rbp)
    6980:	48 8b 85 d8 fc ff ff 	mov    -0x328(%rbp),%rax
    6987:	89 85 68 fc ff ff    	mov    %eax,-0x398(%rbp)
    698d:	8b 05 dd d8 00 00    	mov    0xd8dd(%rip),%eax        # 14270 <g_120+0x50>
    6993:	0f b6 c0             	movzbl %al,%eax
    6996:	89 85 64 fc ff ff    	mov    %eax,-0x39c(%rbp)
    699c:	48 8b 85 d8 fc ff ff 	mov    -0x328(%rbp),%rax
    69a3:	89 85 60 fc ff ff    	mov    %eax,-0x3a0(%rbp)
    69a9:	44 8b bd b4 fc ff ff 	mov    -0x34c(%rbp),%r15d
    69b0:	b8 43 c3 a6 d6       	mov    $0xd6a6c343,%eax
    69b5:	4c 63 f0             	movslq %eax,%r14
    69b8:	b8 43 c3 a6 d6       	mov    $0xd6a6c343,%eax
    69bd:	4c 63 e8             	movslq %eax,%r13
    69c0:	b8 43 c3 a6 d6       	mov    $0xd6a6c343,%eax
    69c5:	41 89 c4             	mov    %eax,%r12d
    69c8:	0f be 9d b1 fc ff ff 	movsbl -0x34f(%rbp),%ebx
    69cf:	0f b6 85 b1 fc ff ff 	movzbl -0x34f(%rbp),%eax
    69d6:	0f b6 c0             	movzbl %al,%eax
    69d9:	89 c6                	mov    %eax,%esi
    69db:	bf 00 00 00 00       	mov    $0x0,%edi
    69e0:	e8 ae f1 ff ff       	callq  5b93 <safe_mul_func_uint8_t_u_u>
    69e5:	0f b6 c0             	movzbl %al,%eax
    69e8:	39 c3                	cmp    %eax,%ebx
    69ea:	0f 95 c0             	setne  %al
    69ed:	0f b6 d0             	movzbl %al,%edx
    69f0:	0f be 85 b1 fc ff ff 	movsbl -0x34f(%rbp),%eax
    69f7:	21 d0                	and    %edx,%eax
    69f9:	44 89 e6             	mov    %r12d,%esi
    69fc:	89 c7                	mov    %eax,%edi
    69fe:	e8 fa f4 ff ff       	callq  5efd <safe_mod_func_uint32_t_u_u>
    6a03:	48 8b 05 26 d6 00 00 	mov    0xd626(%rip),%rax        # 14030 <g_75+0x8>
    6a0a:	48 c1 e8 09          	shr    $0x9,%rax
    6a0e:	83 e0 7f             	and    $0x7f,%eax
    6a11:	0f b6 d0             	movzbl %al,%edx
    6a14:	80 bd b1 fc ff ff 01 	cmpb   $0x1,-0x34f(%rbp)
    6a1b:	0f 95 c0             	setne  %al
    6a1e:	0f b6 c0             	movzbl %al,%eax
    6a21:	39 c2                	cmp    %eax,%edx
    6a23:	7c 09                	jl     6a2e <func_1+0x279>
    6a25:	80 bd b1 fc ff ff 00 	cmpb   $0x0,-0x34f(%rbp)
    6a2c:	74 07                	je     6a35 <func_1+0x280>
    6a2e:	b8 01 00 00 00       	mov    $0x1,%eax
    6a33:	eb 05                	jmp    6a3a <func_1+0x285>
    6a35:	b8 00 00 00 00       	mov    $0x0,%eax
    6a3a:	0f bf d0             	movswl %ax,%edx
    6a3d:	8b 85 b4 fc ff ff    	mov    -0x34c(%rbp),%eax
    6a43:	89 c6                	mov    %eax,%esi
    6a45:	89 d7                	mov    %edx,%edi
    6a47:	e8 95 ea ff ff       	callq  54e1 <safe_lshift_func_int16_t_s_u>
    6a4c:	48 0f bf d0          	movswq %ax,%rdx
    6a50:	48 8b 85 c8 fc ff ff 	mov    -0x338(%rbp),%rax
    6a57:	48 89 10             	mov    %rdx,(%rax)
    6a5a:	48 8b 85 c8 fc ff ff 	mov    -0x338(%rbp),%rax
    6a61:	48 8b 00             	mov    (%rax),%rax
    6a64:	48 85 c0             	test   %rax,%rax
    6a67:	74 07                	je     6a70 <func_1+0x2bb>
    6a69:	ba 01 00 00 00       	mov    $0x1,%edx
    6a6e:	eb 05                	jmp    6a75 <func_1+0x2c0>
    6a70:	ba 00 00 00 00       	mov    $0x0,%edx
    6a75:	0f be 85 b1 fc ff ff 	movsbl -0x34f(%rbp),%eax
    6a7c:	39 c2                	cmp    %eax,%edx
    6a7e:	0f 95 c0             	setne  %al
    6a81:	0f b6 f0             	movzbl %al,%esi
    6a84:	48 8b 85 b8 fc ff ff 	mov    -0x348(%rbp),%rax
    6a8b:	8b 10                	mov    (%rax),%edx
    6a8d:	0f be 85 b1 fc ff ff 	movsbl -0x34f(%rbp),%eax
    6a94:	31 c2                	xor    %eax,%edx
    6a96:	48 8b 85 b8 fc ff ff 	mov    -0x348(%rbp),%rax
    6a9d:	89 10                	mov    %edx,(%rax)
    6a9f:	48 8b 85 b8 fc ff ff 	mov    -0x348(%rbp),%rax
    6aa6:	8b 38                	mov    (%rax),%edi
    6aa8:	0f b7 85 b2 fc ff ff 	movzwl -0x34e(%rbp),%eax
    6aaf:	41 89 c0             	mov    %eax,%r8d
    6ab2:	4c 89 f1             	mov    %r14,%rcx
    6ab5:	4c 89 ea             	mov    %r13,%rdx
    6ab8:	e8 37 53 00 00       	callq  bdf4 <func_67>
    6abd:	85 c0                	test   %eax,%eax
    6abf:	75 08                	jne    6ac9 <func_1+0x314>
    6ac1:	8b 05 5d d5 00 00    	mov    0xd55d(%rip),%eax        # 14024 <g_74>
    6ac7:	85 c0                	test   %eax,%eax
    6ac9:	48 8b 85 d0 fc ff ff 	mov    -0x330(%rbp),%rax
    6ad0:	48 c7 00 01 00 00 00 	movq   $0x1,(%rax)
    6ad7:	48 8b 85 d0 fc ff ff 	mov    -0x330(%rbp),%rax
    6ade:	48 8b 10             	mov    (%rax),%rdx
    6ae1:	48 b8 8c f9 e1 77 40 	movabs $0x4388704077e1f98c,%rax
    6ae8:	70 88 43 
    6aeb:	48 39 c2             	cmp    %rax,%rdx
    6aee:	0f 9e c0             	setle  %al
    6af1:	0f b6 c0             	movzbl %al,%eax
    6af4:	4c 89 fe             	mov    %r15,%rsi
    6af7:	89 c7                	mov    %eax,%edi
    6af9:	e8 12 51 00 00       	callq  bc10 <func_64>
    6afe:	0f b6 d0             	movzbl %al,%edx
    6b01:	8b 85 b4 fc ff ff    	mov    -0x34c(%rbp),%eax
    6b07:	0f be c0             	movsbl %al,%eax
    6b0a:	89 d6                	mov    %edx,%esi
    6b0c:	89 c7                	mov    %eax,%edi
    6b0e:	e8 db e7 ff ff       	callq  52ee <safe_lshift_func_int8_t_s_u>
    6b13:	66 98                	cbtw   
    6b15:	0f b7 c0             	movzwl %ax,%eax
    6b18:	be 0a 00 00 00       	mov    $0xa,%esi
    6b1d:	89 c7                	mov    %eax,%edi
    6b1f:	e8 e2 f2 ff ff       	callq  5e06 <safe_lshift_func_uint16_t_u_u>
    6b24:	0f b7 c0             	movzwl %ax,%eax
    6b27:	8b b5 60 fc ff ff    	mov    -0x3a0(%rbp),%esi
    6b2d:	89 c7                	mov    %eax,%edi
    6b2f:	e8 14 f3 ff ff       	callq  5e48 <safe_rshift_func_uint16_t_u_s>
    6b34:	48 8b 85 c8 fc ff ff 	mov    -0x338(%rbp),%rax
    6b3b:	48 c7 00 00 00 00 00 	movq   $0x0,(%rax)
    6b42:	48 8b 85 c8 fc ff ff 	mov    -0x338(%rbp),%rax
    6b49:	48 8b 00             	mov    (%rax),%rax
    6b4c:	48 83 f8 07          	cmp    $0x7,%rax
    6b50:	0f 95 c0             	setne  %al
    6b53:	0f b6 c0             	movzbl %al,%eax
    6b56:	48 39 85 d8 fc ff ff 	cmp    %rax,-0x328(%rbp)
    6b5d:	0f 95 c0             	setne  %al
    6b60:	0f b6 c0             	movzbl %al,%eax
    6b63:	8b b5 64 fc ff ff    	mov    -0x39c(%rbp),%esi
    6b69:	89 c7                	mov    %eax,%edi
    6b6b:	e8 6b f0 ff ff       	callq  5bdb <safe_div_func_uint8_t_u_u>
    6b70:	0f b6 d0             	movzbl %al,%edx
    6b73:	0f be 85 b1 fc ff ff 	movsbl -0x34f(%rbp),%eax
    6b7a:	21 c2                	and    %eax,%edx
    6b7c:	48 8b 85 e0 fc ff ff 	mov    -0x320(%rbp),%rax
    6b83:	8b 00                	mov    (%rax),%eax
    6b85:	31 c2                	xor    %eax,%edx
    6b87:	48 8b 85 e0 fc ff ff 	mov    -0x320(%rbp),%rax
    6b8e:	89 10                	mov    %edx,(%rax)
    6b90:	48 8b 85 e0 fc ff ff 	mov    -0x320(%rbp),%rax
    6b97:	8b 38                	mov    (%rax),%edi
    6b99:	0f b7 35 a5 d7 00 00 	movzwl 0xd7a5(%rip),%esi        # 14345 <g_143>
    6ba0:	48 83 ec 08          	sub    $0x8,%rsp
    6ba4:	48 83 ec 18          	sub    $0x18,%rsp
    6ba8:	48 89 e1             	mov    %rsp,%rcx
    6bab:	48 8b 05 7c d7 00 00 	mov    0xd77c(%rip),%rax        # 1432e <g_142+0x2e>
    6bb2:	48 8b 15 7d d7 00 00 	mov    0xd77d(%rip),%rdx        # 14336 <g_142+0x36>
    6bb9:	48 89 01             	mov    %rax,(%rcx)
    6bbc:	48 89 51 08          	mov    %rdx,0x8(%rcx)
    6bc0:	8b 05 78 d7 00 00    	mov    0xd778(%rip),%eax        # 1433e <g_142+0x3e>
    6bc6:	89 41 10             	mov    %eax,0x10(%rcx)
    6bc9:	0f b7 05 72 d7 00 00 	movzwl 0xd772(%rip),%eax        # 14342 <g_142+0x42>
    6bd0:	66 89 41 14          	mov    %ax,0x14(%rcx)
    6bd4:	0f b6 05 69 d7 00 00 	movzbl 0xd769(%rip),%eax        # 14344 <g_142+0x44>
    6bdb:	88 41 16             	mov    %al,0x16(%rcx)
    6bde:	8b 8d 6c fc ff ff    	mov    -0x394(%rbp),%ecx
    6be4:	8b 95 68 fc ff ff    	mov    -0x398(%rbp),%edx
    6bea:	e8 f3 2d 00 00       	callq  99e2 <func_49>
    6bef:	48 83 c4 20          	add    $0x20,%rsp
    6bf3:	0f be c0             	movsbl %al,%eax
    6bf6:	8b b5 78 fc ff ff    	mov    -0x388(%rbp),%esi
    6bfc:	89 c7                	mov    %eax,%edi
    6bfe:	e8 9e e6 ff ff       	callq  52a1 <safe_lshift_func_int8_t_s_s>
    6c03:	48 0f be c0          	movsbq %al,%rax
    6c07:	48 8b b5 70 fc ff ff 	mov    -0x390(%rbp),%rsi
    6c0e:	48 89 c7             	mov    %rax,%rdi
    6c11:	e8 6a f4 ff ff       	callq  6080 <safe_mod_func_uint64_t_u_u>
    6c16:	0f be c0             	movsbl %al,%eax
    6c19:	8b b5 7c fc ff ff    	mov    -0x384(%rbp),%esi
    6c1f:	89 c7                	mov    %eax,%edi
    6c21:	e8 ae e5 ff ff       	callq  51d4 <safe_add_func_int8_t_s_s>
    6c26:	0f be c0             	movsbl %al,%eax
    6c29:	89 85 b4 fe ff ff    	mov    %eax,-0x14c(%rbp)
    6c2f:	44 8b 85 90 fc ff ff 	mov    -0x370(%rbp),%r8d
    6c36:	48 8b 8d 88 fc ff ff 	mov    -0x378(%rbp),%rcx
    6c3d:	8b 95 84 fc ff ff    	mov    -0x37c(%rbp),%edx
    6c43:	8b b5 80 fc ff ff    	mov    -0x380(%rbp),%esi
    6c49:	48 bf ae b8 6a 13 15 	movabs $0x258cd015136ab8ae,%rdi
    6c50:	d0 8c 25 
    6c53:	e8 53 2d 00 00       	callq  99ab <func_36>
    6c58:	8b b5 94 fc ff ff    	mov    -0x36c(%rbp),%esi
    6c5e:	89 c7                	mov    %eax,%edi
    6c60:	e8 c0 f2 ff ff       	callq  5f25 <safe_div_func_uint32_t_u_u>
    6c65:	0f b6 d0             	movzbl %al,%edx
    6c68:	48 0f be 85 b1 fc ff 	movsbq -0x34f(%rbp),%rax
    6c6f:	ff 
    6c70:	89 d6                	mov    %edx,%esi
    6c72:	48 89 c7             	mov    %rax,%rdi
    6c75:	e8 cd 19 00 00       	callq  8647 <func_31>
    6c7a:	89 c3                	mov    %eax,%ebx
    6c7c:	8b 85 b4 fc ff ff    	mov    -0x34c(%rbp),%eax
    6c82:	89 c7                	mov    %eax,%edi
    6c84:	e8 0d e9 ff ff       	callq  5596 <safe_unary_minus_func_int32_t_s>
    6c89:	89 c6                	mov    %eax,%esi
    6c8b:	0f be 85 b1 fc ff ff 	movsbl -0x34f(%rbp),%eax
    6c92:	8b 8d 98 fc ff ff    	mov    -0x368(%rbp),%ecx
    6c98:	89 da                	mov    %ebx,%edx
    6c9a:	89 c7                	mov    %eax,%edi
    6c9c:	e8 e9 17 00 00       	callq  848a <func_23>
    6ca1:	0f be c0             	movsbl %al,%eax
    6ca4:	8b b5 9c fc ff ff    	mov    -0x364(%rbp),%esi
    6caa:	89 c7                	mov    %eax,%edi
    6cac:	e8 61 e5 ff ff       	callq  5212 <safe_mul_func_int8_t_s_s>
    6cb1:	be ff ff 00 00       	mov    $0xffff,%esi
    6cb6:	bf f6 ff 00 00       	mov    $0xfff6,%edi
    6cbb:	e8 5f f0 ff ff       	callq  5d1f <safe_sub_func_uint16_t_u_u>
    6cc0:	8b 85 b4 fe ff ff    	mov    -0x14c(%rbp),%eax
    6cc6:	8b b5 a0 fc ff ff    	mov    -0x360(%rbp),%esi
    6ccc:	89 c7                	mov    %eax,%edi
    6cce:	e8 34 10 00 00       	callq  7d07 <func_16>
    6cd3:	0f b7 c0             	movzwl %ax,%eax
    6cd6:	48 8b 8d d8 fc ff ff 	mov    -0x328(%rbp),%rcx
    6cdd:	0f b7 95 b2 fc ff ff 	movzwl -0x34e(%rbp),%edx
    6ce4:	8b b5 b4 fc ff ff    	mov    -0x34c(%rbp),%esi
    6cea:	44 8b 85 a4 fc ff ff 	mov    -0x35c(%rbp),%r8d
    6cf1:	89 c7                	mov    %eax,%edi
    6cf3:	e8 e8 0e 00 00       	callq  7be0 <func_10>
    6cf8:	66 85 c0             	test   %ax,%ax
    6cfb:	74 07                	je     6d04 <func_1+0x54f>
    6cfd:	b8 01 00 00 00       	mov    $0x1,%eax
    6d02:	eb 05                	jmp    6d09 <func_1+0x554>
    6d04:	b8 00 00 00 00       	mov    $0x0,%eax
    6d09:	0f b6 c0             	movzbl %al,%eax
    6d0c:	8b b5 a8 fc ff ff    	mov    -0x358(%rbp),%esi
    6d12:	89 c7                	mov    %eax,%edi
    6d14:	e8 7a ee ff ff       	callq  5b93 <safe_mul_func_uint8_t_u_u>
    6d19:	0f be c0             	movsbl %al,%eax
    6d1c:	8b b5 ac fc ff ff    	mov    -0x354(%rbp),%esi
    6d22:	89 c7                	mov    %eax,%edi
    6d24:	e8 5c 00 00 00       	callq  6d85 <func_5>
    6d29:	f7 d0                	not    %eax
    6d2b:	98                   	cwtl   
    6d2c:	be 0f 00 00 00       	mov    $0xf,%esi
    6d31:	89 c7                	mov    %eax,%edi
    6d33:	e8 2b e8 ff ff       	callq  5563 <safe_rshift_func_int16_t_s_u>
    6d38:	98                   	cwtl   
    6d39:	39 85 b4 fc ff ff    	cmp    %eax,-0x34c(%rbp)
    6d3f:	0f 92 c0             	setb   %al
    6d42:	0f b6 d0             	movzbl %al,%edx
    6d45:	48 8b 85 e8 fc ff ff 	mov    -0x318(%rbp),%rax
    6d4c:	8b 00                	mov    (%rax),%eax
    6d4e:	09 c2                	or     %eax,%edx
    6d50:	48 8b 85 e8 fc ff ff 	mov    -0x318(%rbp),%rax
    6d57:	89 10                	mov    %edx,(%rax)
    6d59:	48 8b 85 e8 fc ff ff 	mov    -0x318(%rbp),%rax
    6d60:	8b 00                	mov    (%rax),%eax
    6d62:	48 8b 5d c8          	mov    -0x38(%rbp),%rbx
    6d66:	64 48 33 1c 25 28 00 	xor    %fs:0x28,%rbx
    6d6d:	00 00 
    6d6f:	74 05                	je     6d76 <func_1+0x5c1>
    6d71:	e8 fa e2 ff ff       	callq  5070 <__stack_chk_fail@plt>
    6d76:	48 8d 65 d8          	lea    -0x28(%rbp),%rsp
    6d7a:	5b                   	pop    %rbx
    6d7b:	41 5c                	pop    %r12
    6d7d:	41 5d                	pop    %r13
    6d7f:	41 5e                	pop    %r14
    6d81:	41 5f                	pop    %r15
    6d83:	5d                   	pop    %rbp
    6d84:	c3                   	retq   

0000000000006d85 <func_5>:
    6d85:	f3 0f 1e fa          	endbr64 
    6d89:	55                   	push   %rbp
    6d8a:	48 89 e5             	mov    %rsp,%rbp
    6d8d:	48 81 ec 30 07 00 00 	sub    $0x730,%rsp
    6d94:	89 f8                	mov    %edi,%eax
    6d96:	89 b5 d8 f8 ff ff    	mov    %esi,-0x728(%rbp)
    6d9c:	88 85 dc f8 ff ff    	mov    %al,-0x724(%rbp)
    6da2:	64 48 8b 04 25 28 00 	mov    %fs:0x28,%rax
    6da9:	00 00 
    6dab:	48 89 45 f8          	mov    %rax,-0x8(%rbp)
    6daf:	31 c0                	xor    %eax,%eax
    6db1:	c7 85 60 fa ff ff 00 	movl   $0x0,-0x5a0(%rbp)
    6db8:	00 00 00 
    6dbb:	c7 85 64 fa ff ff fc 	movl   $0xfffffffc,-0x59c(%rbp)
    6dc2:	ff ff ff 
    6dc5:	c7 85 68 fa ff ff f9 	movl   $0xfffffff9,-0x598(%rbp)
    6dcc:	ff ff ff 
    6dcf:	c7 85 6c fa ff ff fc 	movl   $0xfffffffc,-0x594(%rbp)
    6dd6:	ff ff ff 
    6dd9:	c7 85 70 fa ff ff 00 	movl   $0x0,-0x590(%rbp)
    6de0:	00 00 00 
    6de3:	c7 85 74 fa ff ff fd 	movl   $0xfffffffd,-0x58c(%rbp)
    6dea:	ff ff ff 
    6ded:	c7 85 78 fa ff ff 00 	movl   $0x0,-0x588(%rbp)
    6df4:	00 00 00 
    6df7:	c7 85 7c fa ff ff fc 	movl   $0xfffffffc,-0x584(%rbp)
    6dfe:	ff ff ff 
    6e01:	c7 85 80 fa ff ff f9 	movl   $0xfffffff9,-0x580(%rbp)
    6e08:	ff ff ff 
    6e0b:	c7 85 84 fa ff ff fc 	movl   $0xfffffffc,-0x57c(%rbp)
    6e12:	ff ff ff 
    6e15:	c7 85 88 fa ff ff 00 	movl   $0x0,-0x578(%rbp)
    6e1c:	00 00 00 
    6e1f:	c7 85 8c fa ff ff fd 	movl   $0xfffffffd,-0x574(%rbp)
    6e26:	ff ff ff 
    6e29:	c7 85 90 fa ff ff 00 	movl   $0x0,-0x570(%rbp)
    6e30:	00 00 00 
    6e33:	c7 85 94 fa ff ff fc 	movl   $0xfffffffc,-0x56c(%rbp)
    6e3a:	ff ff ff 
    6e3d:	c7 85 98 fa ff ff f9 	movl   $0xfffffff9,-0x568(%rbp)
    6e44:	ff ff ff 
    6e47:	c7 85 9c fa ff ff fc 	movl   $0xfffffffc,-0x564(%rbp)
    6e4e:	ff ff ff 
    6e51:	c7 85 a0 fa ff ff 00 	movl   $0x0,-0x560(%rbp)
    6e58:	00 00 00 
    6e5b:	c7 85 a4 fa ff ff fd 	movl   $0xfffffffd,-0x55c(%rbp)
    6e62:	ff ff ff 
    6e65:	c7 85 a8 fa ff ff 00 	movl   $0x0,-0x558(%rbp)
    6e6c:	00 00 00 
    6e6f:	c7 85 ac fa ff ff fc 	movl   $0xfffffffc,-0x554(%rbp)
    6e76:	ff ff ff 
    6e79:	c7 85 b0 fa ff ff f9 	movl   $0xfffffff9,-0x550(%rbp)
    6e80:	ff ff ff 
    6e83:	c7 85 b4 fa ff ff fc 	movl   $0xfffffffc,-0x54c(%rbp)
    6e8a:	ff ff ff 
    6e8d:	c7 85 b8 fa ff ff 00 	movl   $0x0,-0x548(%rbp)
    6e94:	00 00 00 
    6e97:	c7 85 bc fa ff ff fd 	movl   $0xfffffffd,-0x544(%rbp)
    6e9e:	ff ff ff 
    6ea1:	c7 85 c0 fa ff ff 00 	movl   $0x0,-0x540(%rbp)
    6ea8:	00 00 00 
    6eab:	c7 85 c4 fa ff ff fc 	movl   $0xfffffffc,-0x53c(%rbp)
    6eb2:	ff ff ff 
    6eb5:	c7 85 c8 fa ff ff f9 	movl   $0xfffffff9,-0x538(%rbp)
    6ebc:	ff ff ff 
    6ebf:	c7 85 cc fa ff ff fc 	movl   $0xfffffffc,-0x534(%rbp)
    6ec6:	ff ff ff 
    6ec9:	c7 85 d0 fa ff ff 00 	movl   $0x0,-0x530(%rbp)
    6ed0:	00 00 00 
    6ed3:	c7 85 d4 fa ff ff fd 	movl   $0xfffffffd,-0x52c(%rbp)
    6eda:	ff ff ff 
    6edd:	c7 85 d8 fa ff ff 00 	movl   $0x0,-0x528(%rbp)
    6ee4:	00 00 00 
    6ee7:	c7 85 dc fa ff ff fc 	movl   $0xfffffffc,-0x524(%rbp)
    6eee:	ff ff ff 
    6ef1:	c7 85 e0 fa ff ff f9 	movl   $0xfffffff9,-0x520(%rbp)
    6ef8:	ff ff ff 
    6efb:	c7 85 e4 fa ff ff fc 	movl   $0xfffffffc,-0x51c(%rbp)
    6f02:	ff ff ff 
    6f05:	c7 85 e8 fa ff ff 00 	movl   $0x0,-0x518(%rbp)
    6f0c:	00 00 00 
    6f0f:	c7 85 ec fa ff ff fd 	movl   $0xfffffffd,-0x514(%rbp)
    6f16:	ff ff ff 
    6f19:	c7 85 f0 fa ff ff 00 	movl   $0x0,-0x510(%rbp)
    6f20:	00 00 00 
    6f23:	c7 85 f4 fa ff ff fc 	movl   $0xfffffffc,-0x50c(%rbp)
    6f2a:	ff ff ff 
    6f2d:	c7 85 f8 fa ff ff f9 	movl   $0xfffffff9,-0x508(%rbp)
    6f34:	ff ff ff 
    6f37:	c7 85 fc fa ff ff fc 	movl   $0xfffffffc,-0x504(%rbp)
    6f3e:	ff ff ff 
    6f41:	c7 85 00 fb ff ff 00 	movl   $0x0,-0x500(%rbp)
    6f48:	00 00 00 
    6f4b:	c7 85 04 fb ff ff fd 	movl   $0xfffffffd,-0x4fc(%rbp)
    6f52:	ff ff ff 
    6f55:	c7 85 08 fb ff ff 00 	movl   $0x0,-0x4f8(%rbp)
    6f5c:	00 00 00 
    6f5f:	c7 85 0c fb ff ff fc 	movl   $0xfffffffc,-0x4f4(%rbp)
    6f66:	ff ff ff 
    6f69:	c7 85 10 fb ff ff f9 	movl   $0xfffffff9,-0x4f0(%rbp)
    6f70:	ff ff ff 
    6f73:	c7 85 14 fb ff ff fc 	movl   $0xfffffffc,-0x4ec(%rbp)
    6f7a:	ff ff ff 
    6f7d:	c7 85 18 fb ff ff 00 	movl   $0x0,-0x4e8(%rbp)
    6f84:	00 00 00 
    6f87:	c7 85 1c fb ff ff fd 	movl   $0xfffffffd,-0x4e4(%rbp)
    6f8e:	ff ff ff 
    6f91:	c7 85 20 fb ff ff 00 	movl   $0x0,-0x4e0(%rbp)
    6f98:	00 00 00 
    6f9b:	c7 85 24 fb ff ff fc 	movl   $0xfffffffc,-0x4dc(%rbp)
    6fa2:	ff ff ff 
    6fa5:	48 8d 05 00 d7 00 00 	lea    0xd700(%rip),%rax        # 146ac <g_522>
    6fac:	48 89 85 c0 f9 ff ff 	mov    %rax,-0x640(%rbp)
    6fb3:	48 c7 85 c8 f9 ff ff 	movq   $0x0,-0x638(%rbp)
    6fba:	00 00 00 00 
    6fbe:	48 8d 05 e7 d6 00 00 	lea    0xd6e7(%rip),%rax        # 146ac <g_522>
    6fc5:	48 89 85 d0 f9 ff ff 	mov    %rax,-0x630(%rbp)
    6fcc:	48 c7 85 d8 f9 ff ff 	movq   $0x0,-0x628(%rbp)
    6fd3:	00 00 00 00 
    6fd7:	48 8d 05 ce d6 00 00 	lea    0xd6ce(%rip),%rax        # 146ac <g_522>
    6fde:	48 89 85 e0 f9 ff ff 	mov    %rax,-0x620(%rbp)
    6fe5:	48 c7 85 e8 f9 ff ff 	movq   $0x0,-0x618(%rbp)
    6fec:	00 00 00 00 
    6ff0:	48 8d 05 b5 d6 00 00 	lea    0xd6b5(%rip),%rax        # 146ac <g_522>
    6ff7:	48 89 85 f0 f9 ff ff 	mov    %rax,-0x610(%rbp)
    6ffe:	48 c7 85 f8 f9 ff ff 	movq   $0x0,-0x608(%rbp)
    7005:	00 00 00 00 
    7009:	48 8d 05 9c d6 00 00 	lea    0xd69c(%rip),%rax        # 146ac <g_522>
    7010:	48 89 85 00 fa ff ff 	mov    %rax,-0x600(%rbp)
    7017:	48 8d 85 c0 f9 ff ff 	lea    -0x640(%rbp),%rax
    701e:	48 83 c0 40          	add    $0x40,%rax
    7022:	48 89 85 b0 fc ff ff 	mov    %rax,-0x350(%rbp)
    7029:	48 8d 85 c0 f9 ff ff 	lea    -0x640(%rbp),%rax
    7030:	48 83 c0 30          	add    $0x30,%rax
    7034:	48 89 85 b8 fc ff ff 	mov    %rax,-0x348(%rbp)
    703b:	48 8d 85 c0 f9 ff ff 	lea    -0x640(%rbp),%rax
    7042:	48 83 c0 40          	add    $0x40,%rax
    7046:	48 89 85 c0 fc ff ff 	mov    %rax,-0x340(%rbp)
    704d:	48 8d 85 c0 f9 ff ff 	lea    -0x640(%rbp),%rax
    7054:	48 83 c0 28          	add    $0x28,%rax
    7058:	48 89 85 c8 fc ff ff 	mov    %rax,-0x338(%rbp)
    705f:	48 8d 85 c0 f9 ff ff 	lea    -0x640(%rbp),%rax
    7066:	48 83 c0 38          	add    $0x38,%rax
    706a:	48 89 85 d0 fc ff ff 	mov    %rax,-0x330(%rbp)
    7071:	48 8d 85 c0 f9 ff ff 	lea    -0x640(%rbp),%rax
    7078:	48 83 c0 28          	add    $0x28,%rax
    707c:	48 89 85 d8 fc ff ff 	mov    %rax,-0x328(%rbp)
    7083:	48 8d 85 c0 f9 ff ff 	lea    -0x640(%rbp),%rax
    708a:	48 83 c0 40          	add    $0x40,%rax
    708e:	48 89 85 e0 fc ff ff 	mov    %rax,-0x320(%rbp)
    7095:	48 8d 85 c0 f9 ff ff 	lea    -0x640(%rbp),%rax
    709c:	48 83 c0 30          	add    $0x30,%rax
    70a0:	48 89 85 e8 fc ff ff 	mov    %rax,-0x318(%rbp)
    70a7:	48 8d 85 c0 f9 ff ff 	lea    -0x640(%rbp),%rax
    70ae:	48 83 c0 40          	add    $0x40,%rax
    70b2:	48 89 85 f0 fc ff ff 	mov    %rax,-0x310(%rbp)
    70b9:	48 8d 85 c0 f9 ff ff 	lea    -0x640(%rbp),%rax
    70c0:	48 83 c0 28          	add    $0x28,%rax
    70c4:	48 89 85 f8 fc ff ff 	mov    %rax,-0x308(%rbp)
    70cb:	48 8d 85 c0 f9 ff ff 	lea    -0x640(%rbp),%rax
    70d2:	48 83 c0 38          	add    $0x38,%rax
    70d6:	48 89 85 00 fd ff ff 	mov    %rax,-0x300(%rbp)
    70dd:	48 8d 85 c0 f9 ff ff 	lea    -0x640(%rbp),%rax
    70e4:	48 83 c0 28          	add    $0x28,%rax
    70e8:	48 89 85 08 fd ff ff 	mov    %rax,-0x2f8(%rbp)
    70ef:	48 8d 85 c0 f9 ff ff 	lea    -0x640(%rbp),%rax
    70f6:	48 83 c0 40          	add    $0x40,%rax
    70fa:	48 89 85 10 fd ff ff 	mov    %rax,-0x2f0(%rbp)
    7101:	48 8d 85 c0 f9 ff ff 	lea    -0x640(%rbp),%rax
    7108:	48 83 c0 30          	add    $0x30,%rax
    710c:	48 89 85 18 fd ff ff 	mov    %rax,-0x2e8(%rbp)
    7113:	48 8d 85 c0 f9 ff ff 	lea    -0x640(%rbp),%rax
    711a:	48 83 c0 40          	add    $0x40,%rax
    711e:	48 89 85 20 fd ff ff 	mov    %rax,-0x2e0(%rbp)
    7125:	48 8d 85 c0 f9 ff ff 	lea    -0x640(%rbp),%rax
    712c:	48 83 c0 28          	add    $0x28,%rax
    7130:	48 89 85 28 fd ff ff 	mov    %rax,-0x2d8(%rbp)
    7137:	48 8d 85 c0 f9 ff ff 	lea    -0x640(%rbp),%rax
    713e:	48 83 c0 38          	add    $0x38,%rax
    7142:	48 89 85 30 fd ff ff 	mov    %rax,-0x2d0(%rbp)
    7149:	48 8d 85 c0 f9 ff ff 	lea    -0x640(%rbp),%rax
    7150:	48 83 c0 28          	add    $0x28,%rax
    7154:	48 89 85 38 fd ff ff 	mov    %rax,-0x2c8(%rbp)
    715b:	48 8d 85 c0 f9 ff ff 	lea    -0x640(%rbp),%rax
    7162:	48 83 c0 40          	add    $0x40,%rax
    7166:	48 89 85 40 fd ff ff 	mov    %rax,-0x2c0(%rbp)
    716d:	48 8d 85 c0 f9 ff ff 	lea    -0x640(%rbp),%rax
    7174:	48 83 c0 30          	add    $0x30,%rax
    7178:	48 89 85 48 fd ff ff 	mov    %rax,-0x2b8(%rbp)
    717f:	48 8d 85 c0 f9 ff ff 	lea    -0x640(%rbp),%rax
    7186:	48 83 c0 40          	add    $0x40,%rax
    718a:	48 89 85 50 fd ff ff 	mov    %rax,-0x2b0(%rbp)
    7191:	48 8d 85 c0 f9 ff ff 	lea    -0x640(%rbp),%rax
    7198:	48 83 c0 28          	add    $0x28,%rax
    719c:	48 89 85 58 fd ff ff 	mov    %rax,-0x2a8(%rbp)
    71a3:	48 8d 85 c0 f9 ff ff 	lea    -0x640(%rbp),%rax
    71aa:	48 83 c0 38          	add    $0x38,%rax
    71ae:	48 89 85 60 fd ff ff 	mov    %rax,-0x2a0(%rbp)
    71b5:	48 8d 85 c0 f9 ff ff 	lea    -0x640(%rbp),%rax
    71bc:	48 83 c0 28          	add    $0x28,%rax
    71c0:	48 89 85 68 fd ff ff 	mov    %rax,-0x298(%rbp)
    71c7:	48 8d 85 c0 f9 ff ff 	lea    -0x640(%rbp),%rax
    71ce:	48 83 c0 40          	add    $0x40,%rax
    71d2:	48 89 85 70 fd ff ff 	mov    %rax,-0x290(%rbp)
    71d9:	48 8d 85 c0 f9 ff ff 	lea    -0x640(%rbp),%rax
    71e0:	48 83 c0 30          	add    $0x30,%rax
    71e4:	48 89 85 78 fd ff ff 	mov    %rax,-0x288(%rbp)
    71eb:	48 8d 85 c0 f9 ff ff 	lea    -0x640(%rbp),%rax
    71f2:	48 83 c0 40          	add    $0x40,%rax
    71f6:	48 89 85 80 fd ff ff 	mov    %rax,-0x280(%rbp)
    71fd:	48 8d 85 c0 f9 ff ff 	lea    -0x640(%rbp),%rax
    7204:	48 83 c0 28          	add    $0x28,%rax
    7208:	48 89 85 88 fd ff ff 	mov    %rax,-0x278(%rbp)
    720f:	48 8d 85 c0 f9 ff ff 	lea    -0x640(%rbp),%rax
    7216:	48 83 c0 38          	add    $0x38,%rax
    721a:	48 89 85 90 fd ff ff 	mov    %rax,-0x270(%rbp)
    7221:	48 8d 85 c0 f9 ff ff 	lea    -0x640(%rbp),%rax
    7228:	48 83 c0 28          	add    $0x28,%rax
    722c:	48 89 85 98 fd ff ff 	mov    %rax,-0x268(%rbp)
    7233:	48 8d 85 c0 f9 ff ff 	lea    -0x640(%rbp),%rax
    723a:	48 83 c0 40          	add    $0x40,%rax
    723e:	48 89 85 a0 fd ff ff 	mov    %rax,-0x260(%rbp)
    7245:	48 8d 85 c0 f9 ff ff 	lea    -0x640(%rbp),%rax
    724c:	48 83 c0 30          	add    $0x30,%rax
    7250:	48 89 85 a8 fd ff ff 	mov    %rax,-0x258(%rbp)
    7257:	48 8d 85 c0 f9 ff ff 	lea    -0x640(%rbp),%rax
    725e:	48 83 c0 40          	add    $0x40,%rax
    7262:	48 89 85 b0 fd ff ff 	mov    %rax,-0x250(%rbp)
    7269:	48 8d 85 c0 f9 ff ff 	lea    -0x640(%rbp),%rax
    7270:	48 83 c0 28          	add    $0x28,%rax
    7274:	48 89 85 b8 fd ff ff 	mov    %rax,-0x248(%rbp)
    727b:	48 8d 85 c0 f9 ff ff 	lea    -0x640(%rbp),%rax
    7282:	48 83 c0 38          	add    $0x38,%rax
    7286:	48 89 85 c0 fd ff ff 	mov    %rax,-0x240(%rbp)
    728d:	48 8d 85 c0 f9 ff ff 	lea    -0x640(%rbp),%rax
    7294:	48 83 c0 28          	add    $0x28,%rax
    7298:	48 89 85 c8 fd ff ff 	mov    %rax,-0x238(%rbp)
    729f:	48 8d 85 c0 f9 ff ff 	lea    -0x640(%rbp),%rax
    72a6:	48 83 c0 40          	add    $0x40,%rax
    72aa:	48 89 85 d0 fd ff ff 	mov    %rax,-0x230(%rbp)
    72b1:	48 8d 85 c0 f9 ff ff 	lea    -0x640(%rbp),%rax
    72b8:	48 83 c0 30          	add    $0x30,%rax
    72bc:	48 89 85 d8 fd ff ff 	mov    %rax,-0x228(%rbp)
    72c3:	48 8d 85 c0 f9 ff ff 	lea    -0x640(%rbp),%rax
    72ca:	48 83 c0 40          	add    $0x40,%rax
    72ce:	48 89 85 e0 fd ff ff 	mov    %rax,-0x220(%rbp)
    72d5:	48 8d 85 c0 f9 ff ff 	lea    -0x640(%rbp),%rax
    72dc:	48 83 c0 28          	add    $0x28,%rax
    72e0:	48 89 85 e8 fd ff ff 	mov    %rax,-0x218(%rbp)
    72e7:	48 8d 85 c0 f9 ff ff 	lea    -0x640(%rbp),%rax
    72ee:	48 83 c0 38          	add    $0x38,%rax
    72f2:	48 89 85 f0 fd ff ff 	mov    %rax,-0x210(%rbp)
    72f9:	48 8d 85 c0 f9 ff ff 	lea    -0x640(%rbp),%rax
    7300:	48 83 c0 28          	add    $0x28,%rax
    7304:	48 89 85 f8 fd ff ff 	mov    %rax,-0x208(%rbp)
    730b:	48 8d 85 c0 f9 ff ff 	lea    -0x640(%rbp),%rax
    7312:	48 83 c0 40          	add    $0x40,%rax
    7316:	48 89 85 00 fe ff ff 	mov    %rax,-0x200(%rbp)
    731d:	48 8d 85 c0 f9 ff ff 	lea    -0x640(%rbp),%rax
    7324:	48 83 c0 30          	add    $0x30,%rax
    7328:	48 89 85 08 fe ff ff 	mov    %rax,-0x1f8(%rbp)
    732f:	48 8d 85 c0 f9 ff ff 	lea    -0x640(%rbp),%rax
    7336:	48 83 c0 40          	add    $0x40,%rax
    733a:	48 89 85 10 fe ff ff 	mov    %rax,-0x1f0(%rbp)
    7341:	48 8d 85 c0 f9 ff ff 	lea    -0x640(%rbp),%rax
    7348:	48 83 c0 28          	add    $0x28,%rax
    734c:	48 89 85 18 fe ff ff 	mov    %rax,-0x1e8(%rbp)
    7353:	48 8d 85 c0 f9 ff ff 	lea    -0x640(%rbp),%rax
    735a:	48 83 c0 38          	add    $0x38,%rax
    735e:	48 89 85 20 fe ff ff 	mov    %rax,-0x1e0(%rbp)
    7365:	48 8d 85 c0 f9 ff ff 	lea    -0x640(%rbp),%rax
    736c:	48 83 c0 28          	add    $0x28,%rax
    7370:	48 89 85 28 fe ff ff 	mov    %rax,-0x1d8(%rbp)
    7377:	48 8d 85 c0 f9 ff ff 	lea    -0x640(%rbp),%rax
    737e:	48 83 c0 40          	add    $0x40,%rax
    7382:	48 89 85 30 fe ff ff 	mov    %rax,-0x1d0(%rbp)
    7389:	48 8d 85 c0 f9 ff ff 	lea    -0x640(%rbp),%rax
    7390:	48 83 c0 30          	add    $0x30,%rax
    7394:	48 89 85 38 fe ff ff 	mov    %rax,-0x1c8(%rbp)
    739b:	48 8d 85 c0 f9 ff ff 	lea    -0x640(%rbp),%rax
    73a2:	48 83 c0 40          	add    $0x40,%rax
    73a6:	48 89 85 40 fe ff ff 	mov    %rax,-0x1c0(%rbp)
    73ad:	48 8d 85 c0 f9 ff ff 	lea    -0x640(%rbp),%rax
    73b4:	48 83 c0 28          	add    $0x28,%rax
    73b8:	48 89 85 48 fe ff ff 	mov    %rax,-0x1b8(%rbp)
    73bf:	48 8d 85 c0 f9 ff ff 	lea    -0x640(%rbp),%rax
    73c6:	48 83 c0 38          	add    $0x38,%rax
    73ca:	48 89 85 50 fe ff ff 	mov    %rax,-0x1b0(%rbp)
    73d1:	48 8d 85 c0 f9 ff ff 	lea    -0x640(%rbp),%rax
    73d8:	48 83 c0 28          	add    $0x28,%rax
    73dc:	48 89 85 58 fe ff ff 	mov    %rax,-0x1a8(%rbp)
    73e3:	48 8d 85 c0 f9 ff ff 	lea    -0x640(%rbp),%rax
    73ea:	48 83 c0 40          	add    $0x40,%rax
    73ee:	48 89 85 60 fe ff ff 	mov    %rax,-0x1a0(%rbp)
    73f5:	48 8d 85 c0 f9 ff ff 	lea    -0x640(%rbp),%rax
    73fc:	48 83 c0 30          	add    $0x30,%rax
    7400:	48 89 85 68 fe ff ff 	mov    %rax,-0x198(%rbp)
    7407:	48 8d 85 c0 f9 ff ff 	lea    -0x640(%rbp),%rax
    740e:	48 83 c0 40          	add    $0x40,%rax
    7412:	48 89 85 70 fe ff ff 	mov    %rax,-0x190(%rbp)
    7419:	48 8d 85 c0 f9 ff ff 	lea    -0x640(%rbp),%rax
    7420:	48 83 c0 28          	add    $0x28,%rax
    7424:	48 89 85 78 fe ff ff 	mov    %rax,-0x188(%rbp)
    742b:	48 8d 85 c0 f9 ff ff 	lea    -0x640(%rbp),%rax
    7432:	48 83 c0 38          	add    $0x38,%rax
    7436:	48 89 85 80 fe ff ff 	mov    %rax,-0x180(%rbp)
    743d:	48 8d 85 c0 f9 ff ff 	lea    -0x640(%rbp),%rax
    7444:	48 83 c0 28          	add    $0x28,%rax
    7448:	48 89 85 88 fe ff ff 	mov    %rax,-0x178(%rbp)
    744f:	48 8d 85 c0 f9 ff ff 	lea    -0x640(%rbp),%rax
    7456:	48 83 c0 40          	add    $0x40,%rax
    745a:	48 89 85 90 fe ff ff 	mov    %rax,-0x170(%rbp)
    7461:	48 8d 85 c0 f9 ff ff 	lea    -0x640(%rbp),%rax
    7468:	48 83 c0 30          	add    $0x30,%rax
    746c:	48 89 85 98 fe ff ff 	mov    %rax,-0x168(%rbp)
    7473:	48 8d 85 c0 f9 ff ff 	lea    -0x640(%rbp),%rax
    747a:	48 83 c0 40          	add    $0x40,%rax
    747e:	48 89 85 a0 fe ff ff 	mov    %rax,-0x160(%rbp)
    7485:	48 8d 85 c0 f9 ff ff 	lea    -0x640(%rbp),%rax
    748c:	48 83 c0 28          	add    $0x28,%rax
    7490:	48 89 85 a8 fe ff ff 	mov    %rax,-0x158(%rbp)
    7497:	48 8d 85 c0 f9 ff ff 	lea    -0x640(%rbp),%rax
    749e:	48 83 c0 38          	add    $0x38,%rax
    74a2:	48 89 85 b0 fe ff ff 	mov    %rax,-0x150(%rbp)
    74a9:	48 8d 85 c0 f9 ff ff 	lea    -0x640(%rbp),%rax
    74b0:	48 83 c0 28          	add    $0x28,%rax
    74b4:	48 89 85 b8 fe ff ff 	mov    %rax,-0x148(%rbp)
    74bb:	48 8d 85 c0 f9 ff ff 	lea    -0x640(%rbp),%rax
    74c2:	48 83 c0 40          	add    $0x40,%rax
    74c6:	48 89 85 c0 fe ff ff 	mov    %rax,-0x140(%rbp)
    74cd:	48 8d 85 c0 f9 ff ff 	lea    -0x640(%rbp),%rax
    74d4:	48 83 c0 30          	add    $0x30,%rax
    74d8:	48 89 85 c8 fe ff ff 	mov    %rax,-0x138(%rbp)
    74df:	48 8d 85 c0 f9 ff ff 	lea    -0x640(%rbp),%rax
    74e6:	48 83 c0 40          	add    $0x40,%rax
    74ea:	48 89 85 d0 fe ff ff 	mov    %rax,-0x130(%rbp)
    74f1:	48 8d 85 c0 f9 ff ff 	lea    -0x640(%rbp),%rax
    74f8:	48 83 c0 28          	add    $0x28,%rax
    74fc:	48 89 85 d8 fe ff ff 	mov    %rax,-0x128(%rbp)
    7503:	48 8d 85 c0 f9 ff ff 	lea    -0x640(%rbp),%rax
    750a:	48 83 c0 38          	add    $0x38,%rax
    750e:	48 89 85 e0 fe ff ff 	mov    %rax,-0x120(%rbp)
    7515:	48 8d 85 c0 f9 ff ff 	lea    -0x640(%rbp),%rax
    751c:	48 83 c0 28          	add    $0x28,%rax
    7520:	48 89 85 e8 fe ff ff 	mov    %rax,-0x118(%rbp)
    7527:	48 8d 85 c0 f9 ff ff 	lea    -0x640(%rbp),%rax
    752e:	48 83 c0 40          	add    $0x40,%rax
    7532:	48 89 85 f0 fe ff ff 	mov    %rax,-0x110(%rbp)
    7539:	48 8d 85 c0 f9 ff ff 	lea    -0x640(%rbp),%rax
    7540:	48 83 c0 30          	add    $0x30,%rax
    7544:	48 89 85 f8 fe ff ff 	mov    %rax,-0x108(%rbp)
    754b:	48 8d 85 c0 f9 ff ff 	lea    -0x640(%rbp),%rax
    7552:	48 83 c0 40          	add    $0x40,%rax
    7556:	48 89 85 00 ff ff ff 	mov    %rax,-0x100(%rbp)
    755d:	48 8d 85 c0 f9 ff ff 	lea    -0x640(%rbp),%rax
    7564:	48 83 c0 28          	add    $0x28,%rax
    7568:	48 89 85 08 ff ff ff 	mov    %rax,-0xf8(%rbp)
    756f:	48 8d 85 c0 f9 ff ff 	lea    -0x640(%rbp),%rax
    7576:	48 83 c0 38          	add    $0x38,%rax
    757a:	48 89 85 10 ff ff ff 	mov    %rax,-0xf0(%rbp)
    7581:	48 8d 85 c0 f9 ff ff 	lea    -0x640(%rbp),%rax
    7588:	48 83 c0 28          	add    $0x28,%rax
    758c:	48 89 85 18 ff ff ff 	mov    %rax,-0xe8(%rbp)
    7593:	48 8d 85 c0 f9 ff ff 	lea    -0x640(%rbp),%rax
    759a:	48 83 c0 40          	add    $0x40,%rax
    759e:	48 89 85 20 ff ff ff 	mov    %rax,-0xe0(%rbp)
    75a5:	48 8d 85 c0 f9 ff ff 	lea    -0x640(%rbp),%rax
    75ac:	48 83 c0 30          	add    $0x30,%rax
    75b0:	48 89 85 28 ff ff ff 	mov    %rax,-0xd8(%rbp)
    75b7:	48 8d 85 c0 f9 ff ff 	lea    -0x640(%rbp),%rax
    75be:	48 83 c0 40          	add    $0x40,%rax
    75c2:	48 89 85 30 ff ff ff 	mov    %rax,-0xd0(%rbp)
    75c9:	48 8d 85 c0 f9 ff ff 	lea    -0x640(%rbp),%rax
    75d0:	48 83 c0 28          	add    $0x28,%rax
    75d4:	48 89 85 38 ff ff ff 	mov    %rax,-0xc8(%rbp)
    75db:	48 8d 85 c0 f9 ff ff 	lea    -0x640(%rbp),%rax
    75e2:	48 83 c0 38          	add    $0x38,%rax
    75e6:	48 89 85 40 ff ff ff 	mov    %rax,-0xc0(%rbp)
    75ed:	48 8d 85 c0 f9 ff ff 	lea    -0x640(%rbp),%rax
    75f4:	48 83 c0 28          	add    $0x28,%rax
    75f8:	48 89 85 48 ff ff ff 	mov    %rax,-0xb8(%rbp)
    75ff:	48 8d 85 c0 f9 ff ff 	lea    -0x640(%rbp),%rax
    7606:	48 83 c0 40          	add    $0x40,%rax
    760a:	48 89 85 50 ff ff ff 	mov    %rax,-0xb0(%rbp)
    7611:	48 8d 85 c0 f9 ff ff 	lea    -0x640(%rbp),%rax
    7618:	48 83 c0 30          	add    $0x30,%rax
    761c:	48 89 85 58 ff ff ff 	mov    %rax,-0xa8(%rbp)
    7623:	48 8d 85 c0 f9 ff ff 	lea    -0x640(%rbp),%rax
    762a:	48 83 c0 40          	add    $0x40,%rax
    762e:	48 89 85 60 ff ff ff 	mov    %rax,-0xa0(%rbp)
    7635:	48 8d 85 c0 f9 ff ff 	lea    -0x640(%rbp),%rax
    763c:	48 83 c0 28          	add    $0x28,%rax
    7640:	48 89 85 68 ff ff ff 	mov    %rax,-0x98(%rbp)
    7647:	48 8d 85 c0 f9 ff ff 	lea    -0x640(%rbp),%rax
    764e:	48 83 c0 38          	add    $0x38,%rax
    7652:	48 89 85 70 ff ff ff 	mov    %rax,-0x90(%rbp)
    7659:	48 8d 85 c0 f9 ff ff 	lea    -0x640(%rbp),%rax
    7660:	48 83 c0 28          	add    $0x28,%rax
    7664:	48 89 85 78 ff ff ff 	mov    %rax,-0x88(%rbp)
    766b:	48 8d 85 c0 f9 ff ff 	lea    -0x640(%rbp),%rax
    7672:	48 83 c0 40          	add    $0x40,%rax
    7676:	48 89 45 80          	mov    %rax,-0x80(%rbp)
    767a:	48 8d 85 c0 f9 ff ff 	lea    -0x640(%rbp),%rax
    7681:	48 83 c0 40          	add    $0x40,%rax
    7685:	48 89 45 88          	mov    %rax,-0x78(%rbp)
    7689:	48 8d 85 c0 f9 ff ff 	lea    -0x640(%rbp),%rax
    7690:	48 83 c0 38          	add    $0x38,%rax
    7694:	48 89 45 90          	mov    %rax,-0x70(%rbp)
    7698:	48 c7 45 98 00 00 00 	movq   $0x0,-0x68(%rbp)
    769f:	00 
    76a0:	48 8d 85 c0 f9 ff ff 	lea    -0x640(%rbp),%rax
    76a7:	48 83 c0 20          	add    $0x20,%rax
    76ab:	48 89 45 a0          	mov    %rax,-0x60(%rbp)
    76af:	48 c7 45 a8 00 00 00 	movq   $0x0,-0x58(%rbp)
    76b6:	00 
    76b7:	48 8d 85 c0 f9 ff ff 	lea    -0x640(%rbp),%rax
    76be:	48 83 c0 38          	add    $0x38,%rax
    76c2:	48 89 45 b0          	mov    %rax,-0x50(%rbp)
    76c6:	48 8d 85 c0 f9 ff ff 	lea    -0x640(%rbp),%rax
    76cd:	48 83 c0 40          	add    $0x40,%rax
    76d1:	48 89 45 b8          	mov    %rax,-0x48(%rbp)
    76d5:	48 8d 85 c0 f9 ff ff 	lea    -0x640(%rbp),%rax
    76dc:	48 83 c0 38          	add    $0x38,%rax
    76e0:	48 89 45 c0          	mov    %rax,-0x40(%rbp)
    76e4:	48 c7 45 c8 00 00 00 	movq   $0x0,-0x38(%rbp)
    76eb:	00 
    76ec:	48 8d 85 c0 f9 ff ff 	lea    -0x640(%rbp),%rax
    76f3:	48 83 c0 20          	add    $0x20,%rax
    76f7:	48 89 45 d0          	mov    %rax,-0x30(%rbp)
    76fb:	48 c7 45 d8 00 00 00 	movq   $0x0,-0x28(%rbp)
    7702:	00 
    7703:	48 8d 85 c0 f9 ff ff 	lea    -0x640(%rbp),%rax
    770a:	48 83 c0 38          	add    $0x38,%rax
    770e:	48 89 45 e0          	mov    %rax,-0x20(%rbp)
    7712:	48 8d 85 c0 f9 ff ff 	lea    -0x640(%rbp),%rax
    7719:	48 83 c0 40          	add    $0x40,%rax
    771d:	48 89 45 e8          	mov    %rax,-0x18(%rbp)
    7721:	48 8d 85 c0 f9 ff ff 	lea    -0x640(%rbp),%rax
    7728:	48 83 c0 38          	add    $0x38,%rax
    772c:	48 89 45 f0          	mov    %rax,-0x10(%rbp)
    7730:	c7 85 10 fa ff ff 40 	movl   $0xc6706e40,-0x5f0(%rbp)
    7737:	6e 70 c6 
    773a:	c7 85 14 fa ff ff 0a 	movl   $0xcb68c10a,-0x5ec(%rbp)
    7741:	c1 68 cb 
    7744:	c7 85 18 fa ff ff 91 	movl   $0xf7555691,-0x5e8(%rbp)
    774b:	56 55 f7 
    774e:	c7 85 1c fa ff ff 91 	movl   $0xf7555691,-0x5e4(%rbp)
    7755:	56 55 f7 
    7758:	c7 85 20 fa ff ff 0a 	movl   $0xcb68c10a,-0x5e0(%rbp)
    775f:	c1 68 cb 
    7762:	c7 85 24 fa ff ff 40 	movl   $0xc6706e40,-0x5dc(%rbp)
    7769:	6e 70 c6 
    776c:	c7 85 28 fa ff ff 0a 	movl   $0xcb68c10a,-0x5d8(%rbp)
    7773:	c1 68 cb 
    7776:	c7 85 2c fa ff ff 91 	movl   $0xf7555691,-0x5d4(%rbp)
    777d:	56 55 f7 
    7780:	c7 85 30 fa ff ff 91 	movl   $0xf7555691,-0x5d0(%rbp)
    7787:	56 55 f7 
    778a:	c7 85 34 fa ff ff 0a 	movl   $0xcb68c10a,-0x5cc(%rbp)
    7791:	c1 68 cb 
    7794:	c7 85 38 fa ff ff 40 	movl   $0xc6706e40,-0x5c8(%rbp)
    779b:	6e 70 c6 
    779e:	c7 85 3c fa ff ff 0a 	movl   $0xcb68c10a,-0x5c4(%rbp)
    77a5:	c1 68 cb 
    77a8:	c7 85 40 fa ff ff 91 	movl   $0xf7555691,-0x5c0(%rbp)
    77af:	56 55 f7 
    77b2:	c7 85 44 fa ff ff 91 	movl   $0xf7555691,-0x5bc(%rbp)
    77b9:	56 55 f7 
    77bc:	c7 85 48 fa ff ff 0a 	movl   $0xcb68c10a,-0x5b8(%rbp)
    77c3:	c1 68 cb 
    77c6:	c7 85 4c fa ff ff 40 	movl   $0xc6706e40,-0x5b4(%rbp)
    77cd:	6e 70 c6 
    77d0:	c7 85 50 fa ff ff 0a 	movl   $0xcb68c10a,-0x5b0(%rbp)
    77d7:	c1 68 cb 
    77da:	c7 85 54 fa ff ff 91 	movl   $0xf7555691,-0x5ac(%rbp)
    77e1:	56 55 f7 
    77e4:	0f b7 85 ea f8 ff ff 	movzwl -0x716(%rbp),%eax
    77eb:	66 25 00 fc          	and    $0xfc00,%ax
    77ef:	83 c8 11             	or     $0x11,%eax
    77f2:	66 89 85 ea f8 ff ff 	mov    %ax,-0x716(%rbp)
    77f9:	48 8d 05 5c ca 00 00 	lea    0xca5c(%rip),%rax        # 1425c <g_120+0x3c>
    7800:	48 89 85 00 f9 ff ff 	mov    %rax,-0x700(%rbp)
    7807:	48 c7 85 30 fb ff ff 	movq   $0x0,-0x4d0(%rbp)
    780e:	00 00 00 00 
    7812:	48 c7 85 38 fb ff ff 	movq   $0x0,-0x4c8(%rbp)
    7819:	00 00 00 00 
    781d:	48 c7 85 40 fb ff ff 	movq   $0x0,-0x4c0(%rbp)
    7824:	00 00 00 00 
    7828:	48 8d 85 00 f9 ff ff 	lea    -0x700(%rbp),%rax
    782f:	48 89 85 48 fb ff ff 	mov    %rax,-0x4b8(%rbp)
    7836:	48 8d 85 00 f9 ff ff 	lea    -0x700(%rbp),%rax
    783d:	48 89 85 50 fb ff ff 	mov    %rax,-0x4b0(%rbp)
    7844:	48 c7 85 58 fb ff ff 	movq   $0x0,-0x4a8(%rbp)
    784b:	00 00 00 00 
    784f:	48 8d 85 00 f9 ff ff 	lea    -0x700(%rbp),%rax
    7856:	48 89 85 60 fb ff ff 	mov    %rax,-0x4a0(%rbp)
    785d:	48 8d 85 00 f9 ff ff 	lea    -0x700(%rbp),%rax
    7864:	48 89 85 68 fb ff ff 	mov    %rax,-0x498(%rbp)
    786b:	48 8d 85 00 f9 ff ff 	lea    -0x700(%rbp),%rax
    7872:	48 89 85 70 fb ff ff 	mov    %rax,-0x490(%rbp)
    7879:	48 8d 85 00 f9 ff ff 	lea    -0x700(%rbp),%rax
    7880:	48 89 85 78 fb ff ff 	mov    %rax,-0x488(%rbp)
    7887:	48 8d 85 00 f9 ff ff 	lea    -0x700(%rbp),%rax
    788e:	48 89 85 80 fb ff ff 	mov    %rax,-0x480(%rbp)
    7895:	48 8d 85 00 f9 ff ff 	lea    -0x700(%rbp),%rax
    789c:	48 89 85 88 fb ff ff 	mov    %rax,-0x478(%rbp)
    78a3:	48 8d 85 00 f9 ff ff 	lea    -0x700(%rbp),%rax
    78aa:	48 89 85 90 fb ff ff 	mov    %rax,-0x470(%rbp)
    78b1:	48 c7 85 98 fb ff ff 	movq   $0x0,-0x468(%rbp)
    78b8:	00 00 00 00 
    78bc:	48 8d 85 00 f9 ff ff 	lea    -0x700(%rbp),%rax
    78c3:	48 89 85 a0 fb ff ff 	mov    %rax,-0x460(%rbp)
    78ca:	48 8d 85 00 f9 ff ff 	lea    -0x700(%rbp),%rax
    78d1:	48 89 85 a8 fb ff ff 	mov    %rax,-0x458(%rbp)
    78d8:	48 c7 85 b0 fb ff ff 	movq   $0x0,-0x450(%rbp)
    78df:	00 00 00 00 
    78e3:	48 8d 85 00 f9 ff ff 	lea    -0x700(%rbp),%rax
    78ea:	48 89 85 b8 fb ff ff 	mov    %rax,-0x448(%rbp)
    78f1:	48 8d 85 00 f9 ff ff 	lea    -0x700(%rbp),%rax
    78f8:	48 89 85 c0 fb ff ff 	mov    %rax,-0x440(%rbp)
    78ff:	48 8d 85 00 f9 ff ff 	lea    -0x700(%rbp),%rax
    7906:	48 89 85 c8 fb ff ff 	mov    %rax,-0x438(%rbp)
    790d:	48 8d 85 00 f9 ff ff 	lea    -0x700(%rbp),%rax
    7914:	48 89 85 d0 fb ff ff 	mov    %rax,-0x430(%rbp)
    791b:	48 8d 85 00 f9 ff ff 	lea    -0x700(%rbp),%rax
    7922:	48 89 85 d8 fb ff ff 	mov    %rax,-0x428(%rbp)
    7929:	48 8d 85 00 f9 ff ff 	lea    -0x700(%rbp),%rax
    7930:	48 89 85 e0 fb ff ff 	mov    %rax,-0x420(%rbp)
    7937:	48 8d 85 00 f9 ff ff 	lea    -0x700(%rbp),%rax
    793e:	48 89 85 e8 fb ff ff 	mov    %rax,-0x418(%rbp)
    7945:	48 c7 85 f0 fb ff ff 	movq   $0x0,-0x410(%rbp)
    794c:	00 00 00 00 
    7950:	48 8d 85 00 f9 ff ff 	lea    -0x700(%rbp),%rax
    7957:	48 89 85 f8 fb ff ff 	mov    %rax,-0x408(%rbp)
    795e:	48 8d 85 00 f9 ff ff 	lea    -0x700(%rbp),%rax
    7965:	48 89 85 00 fc ff ff 	mov    %rax,-0x400(%rbp)
    796c:	48 c7 85 08 fc ff ff 	movq   $0x0,-0x3f8(%rbp)
    7973:	00 00 00 00 
    7977:	48 c7 85 10 fc ff ff 	movq   $0x0,-0x3f0(%rbp)
    797e:	00 00 00 00 
    7982:	48 c7 85 18 fc ff ff 	movq   $0x0,-0x3e8(%rbp)
    7989:	00 00 00 00 
    798d:	48 c7 85 20 fc ff ff 	movq   $0x0,-0x3e0(%rbp)
    7994:	00 00 00 00 
    7998:	48 c7 85 28 fc ff ff 	movq   $0x0,-0x3d8(%rbp)
    799f:	00 00 00 00 
    79a3:	48 c7 85 30 fc ff ff 	movq   $0x0,-0x3d0(%rbp)
    79aa:	00 00 00 00 
    79ae:	48 8d 85 00 f9 ff ff 	lea    -0x700(%rbp),%rax
    79b5:	48 89 85 38 fc ff ff 	mov    %rax,-0x3c8(%rbp)
    79bc:	48 8d 85 00 f9 ff ff 	lea    -0x700(%rbp),%rax
    79c3:	48 89 85 40 fc ff ff 	mov    %rax,-0x3c0(%rbp)
    79ca:	48 c7 85 48 fc ff ff 	movq   $0x0,-0x3b8(%rbp)
    79d1:	00 00 00 00 
    79d5:	48 8d 85 00 f9 ff ff 	lea    -0x700(%rbp),%rax
    79dc:	48 89 85 50 fc ff ff 	mov    %rax,-0x3b0(%rbp)
    79e3:	48 8d 85 00 f9 ff ff 	lea    -0x700(%rbp),%rax
    79ea:	48 89 85 58 fc ff ff 	mov    %rax,-0x3a8(%rbp)
    79f1:	48 8d 85 00 f9 ff ff 	lea    -0x700(%rbp),%rax
    79f8:	48 89 85 60 fc ff ff 	mov    %rax,-0x3a0(%rbp)
    79ff:	48 8d 85 00 f9 ff ff 	lea    -0x700(%rbp),%rax
    7a06:	48 89 85 68 fc ff ff 	mov    %rax,-0x398(%rbp)
    7a0d:	48 8d 85 00 f9 ff ff 	lea    -0x700(%rbp),%rax
    7a14:	48 89 85 70 fc ff ff 	mov    %rax,-0x390(%rbp)
    7a1b:	48 8d 85 00 f9 ff ff 	lea    -0x700(%rbp),%rax
    7a22:	48 89 85 78 fc ff ff 	mov    %rax,-0x388(%rbp)
    7a29:	48 8d 85 00 f9 ff ff 	lea    -0x700(%rbp),%rax
    7a30:	48 89 85 80 fc ff ff 	mov    %rax,-0x380(%rbp)
    7a37:	48 c7 85 88 fc ff ff 	movq   $0x0,-0x378(%rbp)
    7a3e:	00 00 00 00 
    7a42:	48 8d 85 00 f9 ff ff 	lea    -0x700(%rbp),%rax
    7a49:	48 89 85 90 fc ff ff 	mov    %rax,-0x370(%rbp)
    7a50:	48 8d 85 00 f9 ff ff 	lea    -0x700(%rbp),%rax
    7a57:	48 89 85 98 fc ff ff 	mov    %rax,-0x368(%rbp)
    7a5e:	48 c7 85 a0 fc ff ff 	movq   $0x0,-0x360(%rbp)
    7a65:	00 00 00 00 
    7a69:	48 8d 85 00 f9 ff ff 	lea    -0x700(%rbp),%rax
    7a70:	48 89 85 a8 fc ff ff 	mov    %rax,-0x358(%rbp)
    7a77:	48 8d 05 7a ce 00 00 	lea    0xce7a(%rip),%rax        # 148f8 <g_1276+0x8>
    7a7e:	48 89 85 10 f9 ff ff 	mov    %rax,-0x6f0(%rbp)
    7a85:	c7 85 f0 f8 ff ff 20 	movl   $0x8d485120,-0x710(%rbp)
    7a8c:	51 48 8d 
    7a8f:	48 8d 05 aa dd 00 00 	lea    0xddaa(%rip),%rax        # 15840 <g_706>
    7a96:	48 89 85 18 f9 ff ff 	mov    %rax,-0x6e8(%rbp)
    7a9d:	48 8d 05 0c cc 00 00 	lea    0xcc0c(%rip),%rax        # 146b0 <g_672>
    7aa4:	48 89 85 08 f9 ff ff 	mov    %rax,-0x6f8(%rbp)
    7aab:	48 8d 85 08 f9 ff ff 	lea    -0x6f8(%rbp),%rax
    7ab2:	48 89 85 20 f9 ff ff 	mov    %rax,-0x6e0(%rbp)
    7ab9:	48 c7 85 60 f9 ff ff 	movq   $0x8,-0x6a0(%rbp)
    7ac0:	08 00 00 00 
    7ac4:	48 c7 85 68 f9 ff ff 	movq   $0x8,-0x698(%rbp)
    7acb:	08 00 00 00 
    7acf:	48 c7 85 70 f9 ff ff 	movq   $0x8,-0x690(%rbp)
    7ad6:	08 00 00 00 
    7ada:	48 c7 85 78 f9 ff ff 	movq   $0x8,-0x688(%rbp)
    7ae1:	08 00 00 00 
    7ae5:	48 c7 85 80 f9 ff ff 	movq   $0x8,-0x680(%rbp)
    7aec:	08 00 00 00 
    7af0:	48 c7 85 88 f9 ff ff 	movq   $0x8,-0x678(%rbp)
    7af7:	08 00 00 00 
    7afb:	48 b8 be 27 50 27 07 	movabs $0x31ba4b07275027be,%rax
    7b02:	4b ba 31 
    7b05:	48 89 85 28 f9 ff ff 	mov    %rax,-0x6d8(%rbp)
    7b0c:	c7 85 f4 f8 ff ff fc 	movl   $0xfffffffc,-0x70c(%rbp)
    7b13:	ff ff ff 
    7b16:	c7 85 f8 f8 ff ff 9b 	movl   $0x39d3139b,-0x708(%rbp)
    7b1d:	13 d3 39 
    7b20:	48 8d 05 7d cf 00 00 	lea    0xcf7d(%rip),%rax        # 14aa4 <g_1925>
    7b27:	48 89 85 30 f9 ff ff 	mov    %rax,-0x6d0(%rbp)
    7b2e:	48 8d 05 6b cd 00 00 	lea    0xcd6b(%rip),%rax        # 148a0 <g_1025>
    7b35:	48 89 85 38 f9 ff ff 	mov    %rax,-0x6c8(%rbp)
    7b3c:	48 8d 05 0d ef 00 00 	lea    0xef0d(%rip),%rax        # 16a50 <g_253>
    7b43:	48 89 85 40 f9 ff ff 	mov    %rax,-0x6c0(%rbp)
    7b4a:	48 8d 05 ff ee 00 00 	lea    0xeeff(%rip),%rax        # 16a50 <g_253>
    7b51:	48 89 85 48 f9 ff ff 	mov    %rax,-0x6b8(%rbp)
    7b58:	c7 85 fc f8 ff ff 02 	movl   $0x2,-0x704(%rbp)
    7b5f:	00 00 00 
    7b62:	c7 85 ec f8 ff ff 00 	movl   $0x0,-0x714(%rbp)
    7b69:	00 00 00 
    7b6c:	eb 1e                	jmp    7b8c <func_5+0xe07>
    7b6e:	8b 85 ec f8 ff ff    	mov    -0x714(%rbp),%eax
    7b74:	48 98                	cltq   
    7b76:	48 8d 15 93 d5 00 00 	lea    0xd593(%rip),%rdx        # 15110 <g_371+0x70>
    7b7d:	48 89 94 c5 90 f9 ff 	mov    %rdx,-0x670(%rbp,%rax,8)
    7b84:	ff 
    7b85:	83 85 ec f8 ff ff 01 	addl   $0x1,-0x714(%rbp)
    7b8c:	83 bd ec f8 ff ff 05 	cmpl   $0x5,-0x714(%rbp)
    7b93:	7e d9                	jle    7b6e <func_5+0xde9>
    7b95:	c7 85 ec f8 ff ff 00 	movl   $0x0,-0x714(%rbp)
    7b9c:	00 00 00 
    7b9f:	eb 1a                	jmp    7bbb <func_5+0xe36>
    7ba1:	8b 85 ec f8 ff ff    	mov    -0x714(%rbp),%eax
    7ba7:	48 98                	cltq   
    7ba9:	c7 84 85 50 f9 ff ff 	movl   $0x0,-0x6b0(%rbp,%rax,4)
    7bb0:	00 00 00 00 
    7bb4:	83 85 ec f8 ff ff 01 	addl   $0x1,-0x714(%rbp)
    7bbb:	83 bd ec f8 ff ff 03 	cmpl   $0x3,-0x714(%rbp)
    7bc2:	7e dd                	jle    7ba1 <func_5+0xe1c>
    7bc4:	8b 85 d8 f8 ff ff    	mov    -0x728(%rbp),%eax
    7bca:	48 8b 4d f8          	mov    -0x8(%rbp),%rcx
    7bce:	64 48 33 0c 25 28 00 	xor    %fs:0x28,%rcx
    7bd5:	00 00 
    7bd7:	74 05                	je     7bde <func_5+0xe59>
    7bd9:	e8 92 d4 ff ff       	callq  5070 <__stack_chk_fail@plt>
    7bde:	c9                   	leaveq 
    7bdf:	c3                   	retq   

0000000000007be0 <func_10>:
    7be0:	f3 0f 1e fa          	endbr64 
    7be4:	55                   	push   %rbp
    7be5:	48 89 e5             	mov    %rsp,%rbp
    7be8:	48 81 ec b0 00 00 00 	sub    $0xb0,%rsp
    7bef:	89 f8                	mov    %edi,%eax
    7bf1:	89 b5 68 ff ff ff    	mov    %esi,-0x98(%rbp)
    7bf7:	66 89 95 6e ff ff ff 	mov    %dx,-0x92(%rbp)
    7bfe:	48 89 8d 60 ff ff ff 	mov    %rcx,-0xa0(%rbp)
    7c05:	44 89 85 5c ff ff ff 	mov    %r8d,-0xa4(%rbp)
    7c0c:	66 89 85 6c ff ff ff 	mov    %ax,-0x94(%rbp)
    7c13:	64 48 8b 04 25 28 00 	mov    %fs:0x28,%rax
    7c1a:	00 00 
    7c1c:	48 89 45 f8          	mov    %rax,-0x8(%rbp)
    7c20:	31 c0                	xor    %eax,%eax
    7c22:	48 8d 05 f7 cc 00 00 	lea    0xccf7(%rip),%rax        # 14920 <g_1329>
    7c29:	48 89 45 80          	mov    %rax,-0x80(%rbp)
    7c2d:	48 8d 45 80          	lea    -0x80(%rbp),%rax
    7c31:	48 89 45 90          	mov    %rax,-0x70(%rbp)
    7c35:	48 c7 45 98 00 00 00 	movq   $0x0,-0x68(%rbp)
    7c3c:	00 
    7c3d:	48 8d 45 80          	lea    -0x80(%rbp),%rax
    7c41:	48 89 45 a0          	mov    %rax,-0x60(%rbp)
    7c45:	48 8d 45 80          	lea    -0x80(%rbp),%rax
    7c49:	48 89 45 a8          	mov    %rax,-0x58(%rbp)
    7c4d:	48 c7 45 b0 00 00 00 	movq   $0x0,-0x50(%rbp)
    7c54:	00 
    7c55:	48 c7 45 b8 00 00 00 	movq   $0x0,-0x48(%rbp)
    7c5c:	00 
    7c5d:	48 8d 45 80          	lea    -0x80(%rbp),%rax
    7c61:	48 89 45 c0          	mov    %rax,-0x40(%rbp)
    7c65:	48 c7 45 c8 00 00 00 	movq   $0x0,-0x38(%rbp)
    7c6c:	00 
    7c6d:	48 c7 45 d0 00 00 00 	movq   $0x0,-0x30(%rbp)
    7c74:	00 
    7c75:	48 8d 45 80          	lea    -0x80(%rbp),%rax
    7c79:	48 89 45 d8          	mov    %rax,-0x28(%rbp)
    7c7d:	48 8d 45 80          	lea    -0x80(%rbp),%rax
    7c81:	48 89 45 e0          	mov    %rax,-0x20(%rbp)
    7c85:	48 c7 45 e8 00 00 00 	movq   $0x0,-0x18(%rbp)
    7c8c:	00 
    7c8d:	c7 85 7c ff ff ff ff 	movl   $0xffffffff,-0x84(%rbp)
    7c94:	ff ff ff 
    7c97:	48 8b 45 80          	mov    -0x80(%rbp),%rax
    7c9b:	48 89 05 36 ee 00 00 	mov    %rax,0xee36(%rip)        # 16ad8 <g_1613>
    7ca2:	48 8b 05 87 d4 00 00 	mov    0xd487(%rip),%rax        # 15130 <g_414>
    7ca9:	48 8b 15 28 ee 00 00 	mov    0xee28(%rip),%rdx        # 16ad8 <g_1613>
    7cb0:	48 89 10             	mov    %rdx,(%rax)
    7cb3:	83 bd 7c ff ff ff 00 	cmpl   $0x0,-0x84(%rbp)
    7cba:	74 24                	je     7ce0 <func_10+0x100>
    7cbc:	48 8d 05 ad c5 00 00 	lea    0xc5ad(%rip),%rax        # 14270 <g_120+0x50>
    7cc3:	48 89 45 88          	mov    %rax,-0x78(%rbp)
    7cc7:	48 8b 05 ba e1 00 00 	mov    0xe1ba(%rip),%rax        # 15e88 <g_1578>
    7cce:	48 8b 00             	mov    (%rax),%rax
    7cd1:	48 8b 55 88          	mov    -0x78(%rbp),%rdx
    7cd5:	48 89 10             	mov    %rdx,(%rax)
    7cd8:	8b 05 ee 8e 00 00    	mov    0x8eee(%rip),%eax        # 10bcc <l_1617.4281+0xc>
    7cde:	eb 11                	jmp    7cf1 <func_10+0x111>
    7ce0:	83 bd 7c ff ff ff 00 	cmpl   $0x0,-0x84(%rbp)
    7ce7:	74 02                	je     7ceb <func_10+0x10b>
    7ce9:	eb ac                	jmp    7c97 <func_10+0xb7>
    7ceb:	8b 85 7c ff ff ff    	mov    -0x84(%rbp),%eax
    7cf1:	48 8b 4d f8          	mov    -0x8(%rbp),%rcx
    7cf5:	64 48 33 0c 25 28 00 	xor    %fs:0x28,%rcx
    7cfc:	00 00 
    7cfe:	74 05                	je     7d05 <func_10+0x125>
    7d00:	e8 6b d3 ff ff       	callq  5070 <__stack_chk_fail@plt>
    7d05:	c9                   	leaveq 
    7d06:	c3                   	retq   

0000000000007d07 <func_16>:
    7d07:	f3 0f 1e fa          	endbr64 
    7d0b:	55                   	push   %rbp
    7d0c:	48 89 e5             	mov    %rsp,%rbp
    7d0f:	41 55                	push   %r13
    7d11:	41 54                	push   %r12
    7d13:	53                   	push   %rbx
    7d14:	48 81 ec 58 03 00 00 	sub    $0x358,%rsp
    7d1b:	89 bd 9c fc ff ff    	mov    %edi,-0x364(%rbp)
    7d21:	89 b5 98 fc ff ff    	mov    %esi,-0x368(%rbp)
    7d27:	64 48 8b 04 25 28 00 	mov    %fs:0x28,%rax
    7d2e:	00 00 
    7d30:	48 89 45 d8          	mov    %rax,-0x28(%rbp)
    7d34:	31 c0                	xor    %eax,%eax
    7d36:	48 c7 85 a0 fd ff ff 	movq   $0x0,-0x260(%rbp)
    7d3d:	00 00 00 00 
    7d41:	48 c7 85 a8 fd ff ff 	movq   $0x0,-0x258(%rbp)
    7d48:	00 00 00 00 
    7d4c:	48 c7 85 b0 fd ff ff 	movq   $0x0,-0x250(%rbp)
    7d53:	00 00 00 00 
    7d57:	48 c7 85 b8 fd ff ff 	movq   $0x0,-0x248(%rbp)
    7d5e:	00 00 00 00 
    7d62:	48 c7 85 c0 fd ff ff 	movq   $0x0,-0x240(%rbp)
    7d69:	00 00 00 00 
    7d6d:	48 c7 85 c8 fd ff ff 	movq   $0x0,-0x238(%rbp)
    7d74:	00 00 00 00 
    7d78:	48 c7 85 d0 fd ff ff 	movq   $0x0,-0x230(%rbp)
    7d7f:	00 00 00 00 
    7d83:	48 c7 85 d8 fd ff ff 	movq   $0x0,-0x228(%rbp)
    7d8a:	00 00 00 00 
    7d8e:	c7 85 ac fc ff ff 55 	movl   $0xabb89c55,-0x354(%rbp)
    7d95:	9c b8 ab 
    7d98:	48 8d 05 d1 d2 00 00 	lea    0xd2d1(%rip),%rax        # 15070 <g_252>
    7d9f:	48 89 85 e8 fc ff ff 	mov    %rax,-0x318(%rbp)
    7da6:	48 8d 85 e8 fc ff ff 	lea    -0x318(%rbp),%rax
    7dad:	48 89 85 f0 fc ff ff 	mov    %rax,-0x310(%rbp)
    7db4:	48 8d 85 f0 fc ff ff 	lea    -0x310(%rbp),%rax
    7dbb:	48 89 85 e0 fd ff ff 	mov    %rax,-0x220(%rbp)
    7dc2:	48 8d 85 f0 fc ff ff 	lea    -0x310(%rbp),%rax
    7dc9:	48 89 85 e8 fd ff ff 	mov    %rax,-0x218(%rbp)
    7dd0:	48 8d 85 f0 fc ff ff 	lea    -0x310(%rbp),%rax
    7dd7:	48 89 85 f0 fd ff ff 	mov    %rax,-0x210(%rbp)
    7dde:	48 8d 85 f0 fc ff ff 	lea    -0x310(%rbp),%rax
    7de5:	48 89 85 f8 fd ff ff 	mov    %rax,-0x208(%rbp)
    7dec:	48 8d 85 f0 fc ff ff 	lea    -0x310(%rbp),%rax
    7df3:	48 89 85 00 fe ff ff 	mov    %rax,-0x200(%rbp)
    7dfa:	48 8d 85 f0 fc ff ff 	lea    -0x310(%rbp),%rax
    7e01:	48 89 85 08 fe ff ff 	mov    %rax,-0x1f8(%rbp)
    7e08:	48 8d 85 f0 fc ff ff 	lea    -0x310(%rbp),%rax
    7e0f:	48 89 85 10 fe ff ff 	mov    %rax,-0x1f0(%rbp)
    7e16:	48 8d 85 f0 fc ff ff 	lea    -0x310(%rbp),%rax
    7e1d:	48 89 85 18 fe ff ff 	mov    %rax,-0x1e8(%rbp)
    7e24:	48 8d 85 f0 fc ff ff 	lea    -0x310(%rbp),%rax
    7e2b:	48 89 85 20 fe ff ff 	mov    %rax,-0x1e0(%rbp)
    7e32:	48 8d 85 f0 fc ff ff 	lea    -0x310(%rbp),%rax
    7e39:	48 89 85 28 fe ff ff 	mov    %rax,-0x1d8(%rbp)
    7e40:	48 c7 85 30 fe ff ff 	movq   $0x0,-0x1d0(%rbp)
    7e47:	00 00 00 00 
    7e4b:	48 8d 85 f0 fc ff ff 	lea    -0x310(%rbp),%rax
    7e52:	48 89 85 38 fe ff ff 	mov    %rax,-0x1c8(%rbp)
    7e59:	48 8d 85 f0 fc ff ff 	lea    -0x310(%rbp),%rax
    7e60:	48 89 85 40 fe ff ff 	mov    %rax,-0x1c0(%rbp)
    7e67:	48 8d 85 f0 fc ff ff 	lea    -0x310(%rbp),%rax
    7e6e:	48 89 85 48 fe ff ff 	mov    %rax,-0x1b8(%rbp)
    7e75:	48 8d 85 f0 fc ff ff 	lea    -0x310(%rbp),%rax
    7e7c:	48 89 85 50 fe ff ff 	mov    %rax,-0x1b0(%rbp)
    7e83:	48 8d 85 f0 fc ff ff 	lea    -0x310(%rbp),%rax
    7e8a:	48 89 85 58 fe ff ff 	mov    %rax,-0x1a8(%rbp)
    7e91:	48 c7 85 60 fe ff ff 	movq   $0x0,-0x1a0(%rbp)
    7e98:	00 00 00 00 
    7e9c:	48 8d 85 f0 fc ff ff 	lea    -0x310(%rbp),%rax
    7ea3:	48 89 85 68 fe ff ff 	mov    %rax,-0x198(%rbp)
    7eaa:	48 8d 85 f0 fc ff ff 	lea    -0x310(%rbp),%rax
    7eb1:	48 89 85 70 fe ff ff 	mov    %rax,-0x190(%rbp)
    7eb8:	48 8d 85 f0 fc ff ff 	lea    -0x310(%rbp),%rax
    7ebf:	48 89 85 78 fe ff ff 	mov    %rax,-0x188(%rbp)
    7ec6:	48 8d 85 f0 fc ff ff 	lea    -0x310(%rbp),%rax
    7ecd:	48 89 85 80 fe ff ff 	mov    %rax,-0x180(%rbp)
    7ed4:	48 8d 85 f0 fc ff ff 	lea    -0x310(%rbp),%rax
    7edb:	48 89 85 88 fe ff ff 	mov    %rax,-0x178(%rbp)
    7ee2:	48 8d 85 f0 fc ff ff 	lea    -0x310(%rbp),%rax
    7ee9:	48 89 85 90 fe ff ff 	mov    %rax,-0x170(%rbp)
    7ef0:	48 8d 85 f0 fc ff ff 	lea    -0x310(%rbp),%rax
    7ef7:	48 89 85 98 fe ff ff 	mov    %rax,-0x168(%rbp)
    7efe:	48 8d 85 f0 fc ff ff 	lea    -0x310(%rbp),%rax
    7f05:	48 89 85 a0 fe ff ff 	mov    %rax,-0x160(%rbp)
    7f0c:	48 8d 85 f0 fc ff ff 	lea    -0x310(%rbp),%rax
    7f13:	48 89 85 a8 fe ff ff 	mov    %rax,-0x158(%rbp)
    7f1a:	48 8d 85 f0 fc ff ff 	lea    -0x310(%rbp),%rax
    7f21:	48 89 85 b0 fe ff ff 	mov    %rax,-0x150(%rbp)
    7f28:	48 8d 85 f0 fc ff ff 	lea    -0x310(%rbp),%rax
    7f2f:	48 89 85 b8 fe ff ff 	mov    %rax,-0x148(%rbp)
    7f36:	48 8d 85 f0 fc ff ff 	lea    -0x310(%rbp),%rax
    7f3d:	48 89 85 c0 fe ff ff 	mov    %rax,-0x140(%rbp)
    7f44:	48 8d 85 f0 fc ff ff 	lea    -0x310(%rbp),%rax
    7f4b:	48 89 85 c8 fe ff ff 	mov    %rax,-0x138(%rbp)
    7f52:	48 c7 85 d0 fe ff ff 	movq   $0x0,-0x130(%rbp)
    7f59:	00 00 00 00 
    7f5d:	48 c7 85 d8 fe ff ff 	movq   $0x0,-0x128(%rbp)
    7f64:	00 00 00 00 
    7f68:	48 8d 85 f0 fc ff ff 	lea    -0x310(%rbp),%rax
    7f6f:	48 89 85 e0 fe ff ff 	mov    %rax,-0x120(%rbp)
    7f76:	48 8d 85 f0 fc ff ff 	lea    -0x310(%rbp),%rax
    7f7d:	48 89 85 e8 fe ff ff 	mov    %rax,-0x118(%rbp)
    7f84:	48 8d 85 f0 fc ff ff 	lea    -0x310(%rbp),%rax
    7f8b:	48 89 85 f0 fe ff ff 	mov    %rax,-0x110(%rbp)
    7f92:	48 8d 85 f0 fc ff ff 	lea    -0x310(%rbp),%rax
    7f99:	48 89 85 f8 fe ff ff 	mov    %rax,-0x108(%rbp)
    7fa0:	48 8d 85 f0 fc ff ff 	lea    -0x310(%rbp),%rax
    7fa7:	48 89 85 00 ff ff ff 	mov    %rax,-0x100(%rbp)
    7fae:	48 8d 85 f0 fc ff ff 	lea    -0x310(%rbp),%rax
    7fb5:	48 89 85 08 ff ff ff 	mov    %rax,-0xf8(%rbp)
    7fbc:	48 8d 85 f0 fc ff ff 	lea    -0x310(%rbp),%rax
    7fc3:	48 89 85 10 ff ff ff 	mov    %rax,-0xf0(%rbp)
    7fca:	48 8d 85 f0 fc ff ff 	lea    -0x310(%rbp),%rax
    7fd1:	48 89 85 18 ff ff ff 	mov    %rax,-0xe8(%rbp)
    7fd8:	48 8d 85 f0 fc ff ff 	lea    -0x310(%rbp),%rax
    7fdf:	48 89 85 20 ff ff ff 	mov    %rax,-0xe0(%rbp)
    7fe6:	48 8d 85 f0 fc ff ff 	lea    -0x310(%rbp),%rax
    7fed:	48 89 85 28 ff ff ff 	mov    %rax,-0xd8(%rbp)
    7ff4:	48 8d 85 f0 fc ff ff 	lea    -0x310(%rbp),%rax
    7ffb:	48 89 85 30 ff ff ff 	mov    %rax,-0xd0(%rbp)
    8002:	48 8d 85 f0 fc ff ff 	lea    -0x310(%rbp),%rax
    8009:	48 89 85 38 ff ff ff 	mov    %rax,-0xc8(%rbp)
    8010:	48 8d 85 f0 fc ff ff 	lea    -0x310(%rbp),%rax
    8017:	48 89 85 40 ff ff ff 	mov    %rax,-0xc0(%rbp)
    801e:	48 c7 85 48 ff ff ff 	movq   $0x0,-0xb8(%rbp)
    8025:	00 00 00 00 
    8029:	48 8d 85 f0 fc ff ff 	lea    -0x310(%rbp),%rax
    8030:	48 89 85 50 ff ff ff 	mov    %rax,-0xb0(%rbp)
    8037:	48 8d 85 f0 fc ff ff 	lea    -0x310(%rbp),%rax
    803e:	48 89 85 58 ff ff ff 	mov    %rax,-0xa8(%rbp)
    8045:	48 8d 85 f0 fc ff ff 	lea    -0x310(%rbp),%rax
    804c:	48 89 85 60 ff ff ff 	mov    %rax,-0xa0(%rbp)
    8053:	48 8d 85 f0 fc ff ff 	lea    -0x310(%rbp),%rax
    805a:	48 89 85 68 ff ff ff 	mov    %rax,-0x98(%rbp)
    8061:	48 8d 85 f0 fc ff ff 	lea    -0x310(%rbp),%rax
    8068:	48 89 85 70 ff ff ff 	mov    %rax,-0x90(%rbp)
    806f:	48 8d 85 f0 fc ff ff 	lea    -0x310(%rbp),%rax
    8076:	48 89 85 78 ff ff ff 	mov    %rax,-0x88(%rbp)
    807d:	48 8d 85 f0 fc ff ff 	lea    -0x310(%rbp),%rax
    8084:	48 89 45 80          	mov    %rax,-0x80(%rbp)
    8088:	48 8d 85 f0 fc ff ff 	lea    -0x310(%rbp),%rax
    808f:	48 89 45 88          	mov    %rax,-0x78(%rbp)
    8093:	48 8d 85 f0 fc ff ff 	lea    -0x310(%rbp),%rax
    809a:	48 89 45 90          	mov    %rax,-0x70(%rbp)
    809e:	48 8d 85 f0 fc ff ff 	lea    -0x310(%rbp),%rax
    80a5:	48 89 45 98          	mov    %rax,-0x68(%rbp)
    80a9:	48 c7 45 a0 00 00 00 	movq   $0x0,-0x60(%rbp)
    80b0:	00 
    80b1:	48 8d 85 f0 fc ff ff 	lea    -0x310(%rbp),%rax
    80b8:	48 89 45 a8          	mov    %rax,-0x58(%rbp)
    80bc:	48 c7 45 b0 00 00 00 	movq   $0x0,-0x50(%rbp)
    80c3:	00 
    80c4:	48 8d 85 f0 fc ff ff 	lea    -0x310(%rbp),%rax
    80cb:	48 89 45 b8          	mov    %rax,-0x48(%rbp)
    80cf:	48 8d 85 f0 fc ff ff 	lea    -0x310(%rbp),%rax
    80d6:	48 89 45 c0          	mov    %rax,-0x40(%rbp)
    80da:	48 c7 45 c8 00 00 00 	movq   $0x0,-0x38(%rbp)
    80e1:	00 
    80e2:	48 8d 85 f0 fc ff ff 	lea    -0x310(%rbp),%rax
    80e9:	48 89 45 d0          	mov    %rax,-0x30(%rbp)
    80ed:	48 8d 85 e8 fc ff ff 	lea    -0x318(%rbp),%rax
    80f4:	48 89 85 f8 fc ff ff 	mov    %rax,-0x308(%rbp)
    80fb:	c7 85 b0 fc ff ff 00 	movl   $0x0,-0x350(%rbp)
    8102:	00 00 00 
    8105:	48 c7 85 00 fd ff ff 	movq   $0x0,-0x300(%rbp)
    810c:	00 00 00 00 
    8110:	48 8d 05 81 c2 00 00 	lea    0xc281(%rip),%rax        # 14398 <g_268>
    8117:	48 89 85 08 fd ff ff 	mov    %rax,-0x2f8(%rbp)
    811e:	48 8d 05 73 cf 00 00 	lea    0xcf73(%rip),%rax        # 15098 <g_372>
    8125:	48 89 85 10 fd ff ff 	mov    %rax,-0x2f0(%rbp)
    812c:	c7 85 50 fd ff ff 8e 	movl   $0xec34498e,-0x2b0(%rbp)
    8133:	49 34 ec 
    8136:	c7 85 54 fd ff ff 8e 	movl   $0xec34498e,-0x2ac(%rbp)
    813d:	49 34 ec 
    8140:	c7 85 58 fd ff ff 8e 	movl   $0xec34498e,-0x2a8(%rbp)
    8147:	49 34 ec 
    814a:	c7 85 5c fd ff ff 8e 	movl   $0xec34498e,-0x2a4(%rbp)
    8151:	49 34 ec 
    8154:	c7 85 60 fd ff ff 8e 	movl   $0xec34498e,-0x2a0(%rbp)
    815b:	49 34 ec 
    815e:	c7 85 64 fd ff ff 8e 	movl   $0xec34498e,-0x29c(%rbp)
    8165:	49 34 ec 
    8168:	c7 85 68 fd ff ff 8e 	movl   $0xec34498e,-0x298(%rbp)
    816f:	49 34 ec 
    8172:	c7 85 b4 fc ff ff ff 	movl   $0xffffffff,-0x34c(%rbp)
    8179:	ff ff ff 
    817c:	48 8d 05 4d c2 00 00 	lea    0xc24d(%rip),%rax        # 143d0 <g_413>
    8183:	48 89 85 18 fd ff ff 	mov    %rax,-0x2e8(%rbp)
    818a:	48 8d 05 df d6 00 00 	lea    0xd6df(%rip),%rax        # 15870 <g_706+0x30>
    8191:	48 89 85 20 fd ff ff 	mov    %rax,-0x2e0(%rbp)
    8198:	c7 85 b8 fc ff ff 00 	movl   $0x0,-0x348(%rbp)
    819f:	00 00 00 
    81a2:	c6 85 a3 fc ff ff fd 	movb   $0xfd,-0x35d(%rbp)
    81a9:	48 c7 85 28 fd ff ff 	movq   $0x0,-0x2d8(%rbp)
    81b0:	00 00 00 00 
    81b4:	c7 85 bc fc ff ff 9b 	movl   $0x587c629b,-0x344(%rbp)
    81bb:	62 7c 58 
    81be:	c7 85 c0 fc ff ff 00 	movl   $0x0,-0x340(%rbp)
    81c5:	00 00 00 
    81c8:	c7 85 c4 fc ff ff 00 	movl   $0x0,-0x33c(%rbp)
    81cf:	00 00 00 
    81d2:	c7 85 c8 fc ff ff 14 	movl   $0x824c9114,-0x338(%rbp)
    81d9:	91 4c 82 
    81dc:	c7 85 cc fc ff ff 3b 	movl   $0xad3b763b,-0x334(%rbp)
    81e3:	76 3b ad 
    81e6:	c7 85 d0 fc ff ff 57 	movl   $0x55330557,-0x330(%rbp)
    81ed:	05 33 55 
    81f0:	c7 85 d4 fc ff ff ff 	movl   $0xffffffff,-0x32c(%rbp)
    81f7:	ff ff ff 
    81fa:	c7 85 d8 fc ff ff db 	movl   $0x84b30db,-0x328(%rbp)
    8201:	30 4b 08 
    8204:	c7 85 dc fc ff ff ff 	movl   $0xffffffff,-0x324(%rbp)
    820b:	ff ff ff 
    820e:	c7 85 e0 fc ff ff 18 	movl   $0x546c9d18,-0x320(%rbp)
    8215:	9d 6c 54 
    8218:	48 c7 85 30 fd ff ff 	movq   $0x0,-0x2d0(%rbp)
    821f:	00 00 00 00 
    8223:	c7 85 e4 fc ff ff 00 	movl   $0x0,-0x31c(%rbp)
    822a:	00 00 00 
    822d:	0f b7 85 a6 fc ff ff 	movzwl -0x35a(%rbp),%eax
    8234:	66 25 00 fc          	and    $0xfc00,%ax
    8238:	83 c8 04             	or     $0x4,%eax
    823b:	66 89 85 a6 fc ff ff 	mov    %ax,-0x35a(%rbp)
    8242:	66 c7 85 a4 fc ff ff 	movw   $0xfffe,-0x35c(%rbp)
    8249:	fe ff 
    824b:	48 8d 85 a4 fc ff ff 	lea    -0x35c(%rbp),%rax
    8252:	48 89 85 38 fd ff ff 	mov    %rax,-0x2c8(%rbp)
    8259:	48 8d 05 3c c6 00 00 	lea    0xc63c(%rip),%rax        # 1489c <g_969>
    8260:	48 89 85 40 fd ff ff 	mov    %rax,-0x2c0(%rbp)
    8267:	c7 85 a8 fc ff ff 00 	movl   $0x0,-0x358(%rbp)
    826e:	00 00 00 
    8271:	eb 1a                	jmp    828d <func_16+0x586>
    8273:	8b 85 a8 fc ff ff    	mov    -0x358(%rbp),%eax
    8279:	48 98                	cltq   
    827b:	c7 84 85 48 fd ff ff 	movl   $0x1,-0x2b8(%rbp,%rax,4)
    8282:	01 00 00 00 
    8286:	83 85 a8 fc ff ff 01 	addl   $0x1,-0x358(%rbp)
    828d:	83 bd a8 fc ff ff 01 	cmpl   $0x1,-0x358(%rbp)
    8294:	7e dd                	jle    8273 <func_16+0x56c>
    8296:	c7 85 a8 fc ff ff 00 	movl   $0x0,-0x358(%rbp)
    829d:	00 00 00 
    82a0:	eb 1a                	jmp    82bc <func_16+0x5b5>
    82a2:	8b 85 a8 fc ff ff    	mov    -0x358(%rbp),%eax
    82a8:	48 98                	cltq   
    82aa:	c7 84 85 70 fd ff ff 	movl   $0xffffffff,-0x290(%rbp,%rax,4)
    82b1:	ff ff ff ff 
    82b5:	83 85 a8 fc ff ff 01 	addl   $0x1,-0x358(%rbp)
    82bc:	83 bd a8 fc ff ff 09 	cmpl   $0x9,-0x358(%rbp)
    82c3:	7e dd                	jle    82a2 <func_16+0x59b>
    82c5:	8b 85 b4 fc ff ff    	mov    -0x34c(%rbp),%eax
    82cb:	0f b6 d8             	movzbl %al,%ebx
    82ce:	8b 85 64 fd ff ff    	mov    -0x29c(%rbp),%eax
    82d4:	44 0f b6 e0          	movzbl %al,%r12d
    82d8:	8b 85 98 fc ff ff    	mov    -0x368(%rbp),%eax
    82de:	44 0f bf e8          	movswl %ax,%r13d
    82e2:	48 8b 85 f0 fc ff ff 	mov    -0x310(%rbp),%rax
    82e9:	48 89 85 f8 fc ff ff 	mov    %rax,-0x308(%rbp)
    82f0:	b8 00 00 00 00       	mov    $0x0,%eax
    82f5:	48 39 85 f8 fc ff ff 	cmp    %rax,-0x308(%rbp)
    82fc:	0f 95 c0             	setne  %al
    82ff:	0f b6 c0             	movzbl %al,%eax
    8302:	48 be 45 17 4d d7 2d 	movabs $0x1c19db2dd74d1745,%rsi
    8309:	db 19 1c 
    830c:	48 89 c7             	mov    %rax,%rdi
    830f:	e8 6c dd ff ff       	callq  6080 <safe_mod_func_uint64_t_u_u>
    8314:	0f be d0             	movsbl %al,%edx
    8317:	8b 85 9c fc ff ff    	mov    -0x364(%rbp),%eax
    831d:	25 bb b4 3e 8f       	and    $0x8f3eb4bb,%eax
    8322:	09 85 ac fc ff ff    	or     %eax,-0x354(%rbp)
    8328:	8b 85 ac fc ff ff    	mov    -0x354(%rbp),%eax
    832e:	0f be c0             	movsbl %al,%eax
    8331:	89 d6                	mov    %edx,%esi
    8333:	89 c7                	mov    %eax,%edi
    8335:	e8 30 cf ff ff       	callq  526a <safe_div_func_int8_t_s_s>
    833a:	0f be c0             	movsbl %al,%eax
    833d:	39 85 b0 fc ff ff    	cmp    %eax,-0x350(%rbp)
    8343:	7f 09                	jg     834e <func_16+0x647>
    8345:	83 bd 9c fc ff ff 00 	cmpl   $0x0,-0x364(%rbp)
    834c:	74 07                	je     8355 <func_16+0x64e>
    834e:	ba 01 00 00 00       	mov    $0x1,%edx
    8353:	eb 05                	jmp    835a <func_16+0x653>
    8355:	ba 00 00 00 00       	mov    $0x0,%edx
    835a:	48 8b 85 08 fd ff ff 	mov    -0x2f8(%rbp),%rax
    8361:	0f b7 00             	movzwl (%rax),%eax
    8364:	31 c2                	xor    %eax,%edx
    8366:	48 8b 85 08 fd ff ff 	mov    -0x2f8(%rbp),%rax
    836d:	66 89 10             	mov    %dx,(%rax)
    8370:	48 8b 85 08 fd ff ff 	mov    -0x2f8(%rbp),%rax
    8377:	0f b7 00             	movzwl (%rax),%eax
    837a:	98                   	cwtl   
    837b:	be 0e 00 00 00       	mov    $0xe,%esi
    8380:	89 c7                	mov    %eax,%edi
    8382:	e8 dc d1 ff ff       	callq  5563 <safe_rshift_func_int16_t_s_u>
    8387:	8b 85 b0 fc ff ff    	mov    -0x350(%rbp),%eax
    838d:	89 c6                	mov    %eax,%esi
    838f:	bf 39 51 00 00       	mov    $0x5139,%edi
    8394:	e8 25 da ff ff       	callq  5dbe <safe_lshift_func_uint16_t_u_s>
    8399:	0f b7 c0             	movzwl %ax,%eax
    839c:	89 c6                	mov    %eax,%esi
    839e:	bf fc ca 05 2f       	mov    $0x2f05cafc,%edi
    83a3:	e8 10 db ff ff       	callq  5eb8 <safe_add_func_uint32_t_u_u>
    83a8:	48 83 bd 10 fd ff ff 	cmpq   $0x0,-0x2f0(%rbp)
    83af:	00 
    83b0:	0f 95 c0             	setne  %al
    83b3:	0f b6 c0             	movzbl %al,%eax
    83b6:	39 85 b0 fc ff ff    	cmp    %eax,-0x350(%rbp)
    83bc:	0f 95 c0             	setne  %al
    83bf:	0f b6 d0             	movzbl %al,%edx
    83c2:	8b 85 64 fd ff ff    	mov    -0x29c(%rbp),%eax
    83c8:	39 c2                	cmp    %eax,%edx
    83ca:	0f 95 c0             	setne  %al
    83cd:	0f b6 c0             	movzbl %al,%eax
    83d0:	be 01 00 00 00       	mov    $0x1,%esi
    83d5:	89 c7                	mov    %eax,%edi
    83d7:	e8 3a d0 ff ff       	callq  5416 <safe_mod_func_int16_t_s_s>
    83dc:	98                   	cwtl   
    83dd:	44 89 ee             	mov    %r13d,%esi
    83e0:	89 c7                	mov    %eax,%edi
    83e2:	e8 6e d0 ff ff       	callq  5455 <safe_div_func_int16_t_s_s>
    83e7:	66 85 c0             	test   %ax,%ax
    83ea:	8b 85 54 fd ff ff    	mov    -0x2ac(%rbp),%eax
    83f0:	0f be d0             	movsbl %al,%edx
    83f3:	c6 05 8c bf 00 00 00 	movb   $0x0,0xbf8c(%rip)        # 14386 <g_189>
    83fa:	0f b6 05 85 bf 00 00 	movzbl 0xbf85(%rip),%eax        # 14386 <g_189>
    8401:	0f be c0             	movsbl %al,%eax
    8404:	89 d6                	mov    %edx,%esi
    8406:	89 c7                	mov    %eax,%edi
    8408:	e8 05 ce ff ff       	callq  5212 <safe_mul_func_int8_t_s_s>
    840d:	0f b6 c0             	movzbl %al,%eax
    8410:	44 89 e6             	mov    %r12d,%esi
    8413:	89 c7                	mov    %eax,%edi
    8415:	e8 94 d7 ff ff       	callq  5bae <safe_mod_func_uint8_t_u_u>
    841a:	48 8b 05 37 bf 00 00 	mov    0xbf37(%rip),%rax        # 14358 <g_151+0x8>
    8421:	be d0 00 00 00       	mov    $0xd0,%esi
    8426:	bf 01 00 00 00       	mov    $0x1,%edi
    842b:	e8 63 d7 ff ff       	callq  5b93 <safe_mul_func_uint8_t_u_u>
    8430:	8b 95 98 fc ff ff    	mov    -0x368(%rbp),%edx
    8436:	8b 85 98 fc ff ff    	mov    -0x368(%rbp),%eax
    843c:	89 d6                	mov    %edx,%esi
    843e:	89 c7                	mov    %eax,%edi
    8440:	e8 87 d2 ff ff       	callq  56cc <safe_mod_func_int32_t_s_s>
    8445:	48 98                	cltq   
    8447:	89 de                	mov    %ebx,%esi
    8449:	48 89 c7             	mov    %rax,%rdi
    844c:	e8 f6 01 00 00       	callq  8647 <func_31>
    8451:	48 8b 05 e0 d3 00 00 	mov    0xd3e0(%rip),%rax        # 15838 <g_688>
    8458:	48 8b 95 18 fd ff ff 	mov    -0x2e8(%rbp),%rdx
    845f:	48 89 10             	mov    %rdx,(%rax)
    8462:	8b 85 98 fc ff ff    	mov    -0x368(%rbp),%eax
    8468:	48 8b 4d d8          	mov    -0x28(%rbp),%rcx
    846c:	64 48 33 0c 25 28 00 	xor    %fs:0x28,%rcx
    8473:	00 00 
    8475:	74 05                	je     847c <func_16+0x775>
    8477:	e8 f4 cb ff ff       	callq  5070 <__stack_chk_fail@plt>
    847c:	48 81 c4 58 03 00 00 	add    $0x358,%rsp
    8483:	5b                   	pop    %rbx
    8484:	41 5c                	pop    %r12
    8486:	41 5d                	pop    %r13
    8488:	5d                   	pop    %rbp
    8489:	c3                   	retq   

000000000000848a <func_23>:
    848a:	f3 0f 1e fa          	endbr64 
    848e:	55                   	push   %rbp
    848f:	48 89 e5             	mov    %rsp,%rbp
    8492:	41 55                	push   %r13
    8494:	41 54                	push   %r12
    8496:	53                   	push   %rbx
    8497:	48 83 ec 58          	sub    $0x58,%rsp
    849b:	89 7d 9c             	mov    %edi,-0x64(%rbp)
    849e:	89 75 98             	mov    %esi,-0x68(%rbp)
    84a1:	66 89 55 96          	mov    %dx,-0x6a(%rbp)
    84a5:	89 c8                	mov    %ecx,%eax
    84a7:	66 89 45 94          	mov    %ax,-0x6c(%rbp)
    84ab:	64 48 8b 04 25 28 00 	mov    %fs:0x28,%rax
    84b2:	00 00 
    84b4:	48 89 45 d8          	mov    %rax,-0x28(%rbp)
    84b8:	31 c0                	xor    %eax,%eax
    84ba:	48 8d 05 af bd 00 00 	lea    0xbdaf(%rip),%rax        # 14270 <g_120+0x50>
    84c1:	48 89 45 b0          	mov    %rax,-0x50(%rbp)
    84c5:	48 c7 45 b8 00 00 00 	movq   $0x0,-0x48(%rbp)
    84cc:	00 
    84cd:	48 8d 05 e2 be 00 00 	lea    0xbee2(%rip),%rax        # 143b6 <g_332>
    84d4:	48 89 45 c0          	mov    %rax,-0x40(%rbp)
    84d8:	48 8d 05 89 e5 00 00 	lea    0xe589(%rip),%rax        # 16a68 <g_649>
    84df:	48 89 45 c8          	mov    %rax,-0x38(%rbp)
    84e3:	66 c7 45 a2 b8 2e    	movw   $0x2eb8,-0x5e(%rbp)
    84e9:	c7 45 a4 00 00 00 00 	movl   $0x0,-0x5c(%rbp)
    84f0:	eb 4d                	jmp    853f <func_23+0xb5>
    84f2:	c7 45 a8 00 00 00 00 	movl   $0x0,-0x58(%rbp)
    84f9:	eb 3a                	jmp    8535 <func_23+0xab>
    84fb:	c7 45 ac 00 00 00 00 	movl   $0x0,-0x54(%rbp)
    8502:	eb 27                	jmp    852b <func_23+0xa1>
    8504:	8b 45 ac             	mov    -0x54(%rbp),%eax
    8507:	48 63 c8             	movslq %eax,%rcx
    850a:	8b 45 a8             	mov    -0x58(%rbp),%eax
    850d:	48 63 d0             	movslq %eax,%rdx
    8510:	8b 45 a4             	mov    -0x5c(%rbp),%eax
    8513:	48 98                	cltq   
    8515:	48 01 ca             	add    %rcx,%rdx
    8518:	48 01 d0             	add    %rdx,%rax
    851b:	48 8d 15 de bd 00 00 	lea    0xbdde(%rip),%rdx        # 14300 <g_142>
    8522:	48 89 54 c5 d0       	mov    %rdx,-0x30(%rbp,%rax,8)
    8527:	83 45 ac 01          	addl   $0x1,-0x54(%rbp)
    852b:	83 7d ac 00          	cmpl   $0x0,-0x54(%rbp)
    852f:	7e d3                	jle    8504 <func_23+0x7a>
    8531:	83 45 a8 01          	addl   $0x1,-0x58(%rbp)
    8535:	83 7d a8 00          	cmpl   $0x0,-0x58(%rbp)
    8539:	7e c0                	jle    84fb <func_23+0x71>
    853b:	83 45 a4 01          	addl   $0x1,-0x5c(%rbp)
    853f:	83 7d a4 00          	cmpl   $0x0,-0x5c(%rbp)
    8543:	7e ad                	jle    84f2 <func_23+0x68>
    8545:	48 8b 45 b0          	mov    -0x50(%rbp),%rax
    8549:	48 89 45 b8          	mov    %rax,-0x48(%rbp)
    854d:	48 8b 45 d0          	mov    -0x30(%rbp),%rax
    8551:	48 85 c0             	test   %rax,%rax
    8554:	0f 95 c0             	setne  %al
    8557:	44 0f b6 e0          	movzbl %al,%r12d
    855b:	48 8b 45 b0          	mov    -0x50(%rbp),%rax
    855f:	8b 00                	mov    (%rax),%eax
    8561:	0f be d8             	movsbl %al,%ebx
    8564:	0f b7 05 6f be 00 00 	movzwl 0xbe6f(%rip),%eax        # 143da <g_413+0xa>
    856b:	0f b7 d0             	movzwl %ax,%edx
    856e:	48 8b 45 b8          	mov    -0x48(%rbp),%rax
    8572:	8b 00                	mov    (%rax),%eax
    8574:	09 d0                	or     %edx,%eax
    8576:	41 89 c5             	mov    %eax,%r13d
    8579:	be f7 ff ff ff       	mov    $0xfffffff7,%esi
    857e:	bf 01 00 00 00       	mov    $0x1,%edi
    8583:	e8 44 d1 ff ff       	callq  56cc <safe_mod_func_int32_t_s_s>
    8588:	44 89 ee             	mov    %r13d,%esi
    858b:	89 c7                	mov    %eax,%edi
    858d:	e8 3e d9 ff ff       	callq  5ed0 <safe_sub_func_uint32_t_u_u>
    8592:	0f be c0             	movsbl %al,%eax
    8595:	89 de                	mov    %ebx,%esi
    8597:	89 c7                	mov    %eax,%edi
    8599:	e8 93 cc ff ff       	callq  5231 <safe_mod_func_int8_t_s_s>
    859e:	0f be c0             	movsbl %al,%eax
    85a1:	33 45 98             	xor    -0x68(%rbp),%eax
    85a4:	89 c2                	mov    %eax,%edx
    85a6:	0f b6 45 96          	movzbl -0x6a(%rbp),%eax
    85aa:	0f b6 4d 97          	movzbl -0x69(%rbp),%ecx
    85ae:	83 e1 03             	and    $0x3,%ecx
    85b1:	48 c1 e1 08          	shl    $0x8,%rcx
    85b5:	48 09 c8             	or     %rcx,%rax
    85b8:	0f b7 c0             	movzwl %ax,%eax
    85bb:	39 c2                	cmp    %eax,%edx
    85bd:	0f 9e c0             	setle  %al
    85c0:	0f b6 c0             	movzbl %al,%eax
    85c3:	44 31 e0             	xor    %r12d,%eax
    85c6:	89 c2                	mov    %eax,%edx
    85c8:	48 8b 45 c0          	mov    -0x40(%rbp),%rax
    85cc:	66 89 10             	mov    %dx,(%rax)
    85cf:	48 8b 45 c0          	mov    -0x40(%rbp),%rax
    85d3:	0f b7 00             	movzwl (%rax),%eax
    85d6:	0f b7 d0             	movzwl %ax,%edx
    85d9:	48 8b 45 c8          	mov    -0x38(%rbp),%rax
    85dd:	0f b7 00             	movzwl (%rax),%eax
    85e0:	09 c2                	or     %eax,%edx
    85e2:	48 8b 45 c8          	mov    -0x38(%rbp),%rax
    85e6:	66 89 10             	mov    %dx,(%rax)
    85e9:	48 8b 45 c8          	mov    -0x38(%rbp),%rax
    85ed:	0f b7 00             	movzwl (%rax),%eax
    85f0:	0f b6 55 96          	movzbl -0x6a(%rbp),%edx
    85f4:	0f b6 4d 97          	movzbl -0x69(%rbp),%ecx
    85f8:	83 e1 03             	and    $0x3,%ecx
    85fb:	48 c1 e1 08          	shl    $0x8,%rcx
    85ff:	48 09 ca             	or     %rcx,%rdx
    8602:	66 39 d0             	cmp    %dx,%ax
    8605:	0f 96 c0             	setbe  %al
    8608:	0f b6 d0             	movzbl %al,%edx
    860b:	48 8b 05 66 bd 00 00 	mov    0xbd66(%rip),%rax        # 14378 <g_152+0x8>
    8612:	48 c1 e8 11          	shr    $0x11,%rax
    8616:	83 e0 7f             	and    $0x7f,%eax
    8619:	0f b6 c0             	movzbl %al,%eax
    861c:	09 d0                	or     %edx,%eax
    861e:	66 89 45 a2          	mov    %ax,-0x5e(%rbp)
    8622:	8b 05 c8 bc 00 00    	mov    0xbcc8(%rip),%eax        # 142f0 <g_141+0x8>
    8628:	48 8b 5d d8          	mov    -0x28(%rbp),%rbx
    862c:	64 48 33 1c 25 28 00 	xor    %fs:0x28,%rbx
    8633:	00 00 
    8635:	74 05                	je     863c <func_23+0x1b2>
    8637:	e8 34 ca ff ff       	callq  5070 <__stack_chk_fail@plt>
    863c:	48 83 c4 58          	add    $0x58,%rsp
    8640:	5b                   	pop    %rbx
    8641:	41 5c                	pop    %r12
    8643:	41 5d                	pop    %r13
    8645:	5d                   	pop    %rbp
    8646:	c3                   	retq   

0000000000008647 <func_31>:
    8647:	f3 0f 1e fa          	endbr64 
    864b:	55                   	push   %rbp
    864c:	48 89 e5             	mov    %rsp,%rbp
    864f:	41 56                	push   %r14
    8651:	41 55                	push   %r13
    8653:	41 54                	push   %r12
    8655:	53                   	push   %rbx
    8656:	48 81 ec 80 0c 00 00 	sub    $0xc80,%rsp
    865d:	48 89 bd 68 f3 ff ff 	mov    %rdi,-0xc98(%rbp)
    8664:	89 f0                	mov    %esi,%eax
    8666:	88 85 64 f3 ff ff    	mov    %al,-0xc9c(%rbp)
    866c:	64 48 8b 04 25 28 00 	mov    %fs:0x28,%rax
    8673:	00 00 
    8675:	48 89 45 d8          	mov    %rax,-0x28(%rbp)
    8679:	31 c0                	xor    %eax,%eax
    867b:	c6 85 71 f3 ff ff 00 	movb   $0x0,-0xc8f(%rbp)
    8682:	48 c7 85 e0 f3 ff ff 	movq   $0x0,-0xc20(%rbp)
    8689:	00 00 00 00 
    868d:	c7 85 7c f3 ff ff ca 	movl   $0x2073e9ca,-0xc84(%rbp)
    8694:	e9 73 20 
    8697:	c7 85 88 f3 ff ff 8a 	movl   $0xfe464a8a,-0xc78(%rbp)
    869e:	4a 46 fe 
    86a1:	c7 85 8c f3 ff ff 32 	movl   $0x19412132,-0xc74(%rbp)
    86a8:	21 41 19 
    86ab:	c7 85 80 f3 ff ff ce 	movl   $0x134a23ce,-0xc80(%rbp)
    86b2:	23 4a 13 
    86b5:	48 c7 85 e8 f3 ff ff 	movq   $0x0,-0xc18(%rbp)
    86bc:	00 00 00 00 
    86c0:	48 8d 85 20 fd ff ff 	lea    -0x2e0(%rbp),%rax
    86c7:	48 8d 15 f2 6c 00 00 	lea    0x6cf2(%rip),%rdx        # f3c0 <g_2179+0x2f4>
    86ce:	b9 56 00 00 00       	mov    $0x56,%ecx
    86d3:	48 89 c7             	mov    %rax,%rdi
    86d6:	48 89 d6             	mov    %rdx,%rsi
    86d9:	f3 48 a5             	rep movsq %ds:(%rsi),%es:(%rdi)
    86dc:	48 89 f2             	mov    %rsi,%rdx
    86df:	48 89 f8             	mov    %rdi,%rax
    86e2:	0f b7 0a             	movzwl (%rdx),%ecx
    86e5:	66 89 08             	mov    %cx,(%rax)
    86e8:	48 8d 40 02          	lea    0x2(%rax),%rax
    86ec:	48 8d 52 02          	lea    0x2(%rdx),%rdx
    86f0:	c6 85 72 f3 ff ff 01 	movb   $0x1,-0xc8e(%rbp)
    86f7:	c7 85 90 f3 ff ff 19 	movl   $0xd5381b19,-0xc70(%rbp)
    86fe:	1b 38 d5 
    8701:	c7 85 94 f3 ff ff 2a 	movl   $0xd02df72a,-0xc6c(%rbp)
    8708:	f7 2d d0 
    870b:	c7 85 98 f3 ff ff f6 	movl   $0xfffffff6,-0xc68(%rbp)
    8712:	ff ff ff 
    8715:	48 8d 85 a0 fa ff ff 	lea    -0x560(%rbp),%rax
    871c:	48 8d 15 5d 6f 00 00 	lea    0x6f5d(%rip),%rdx        # f680 <g_2179+0x5b4>
    8723:	b9 50 00 00 00       	mov    $0x50,%ecx
    8728:	48 89 c7             	mov    %rax,%rdi
    872b:	48 89 d6             	mov    %rdx,%rsi
    872e:	f3 48 a5             	rep movsq %ds:(%rsi),%es:(%rdi)
    8731:	66 c7 85 e0 f4 ff ff 	movw   $0x1,-0xb20(%rbp)
    8738:	01 00 
    873a:	66 c7 85 e2 f4 ff ff 	movw   $0x1,-0xb1e(%rbp)
    8741:	01 00 
    8743:	66 c7 85 e4 f4 ff ff 	movw   $0xd725,-0xb1c(%rbp)
    874a:	25 d7 
    874c:	66 c7 85 e6 f4 ff ff 	movw   $0x1,-0xb1a(%rbp)
    8753:	01 00 
    8755:	66 c7 85 e8 f4 ff ff 	movw   $0x1,-0xb18(%rbp)
    875c:	01 00 
    875e:	66 c7 85 ea f4 ff ff 	movw   $0xd725,-0xb16(%rbp)
    8765:	25 d7 
    8767:	66 c7 85 ec f4 ff ff 	movw   $0x1,-0xb14(%rbp)
    876e:	01 00 
    8770:	66 c7 85 ee f4 ff ff 	movw   $0x1,-0xb12(%rbp)
    8777:	01 00 
    8779:	66 c7 85 f0 f4 ff ff 	movw   $0xd725,-0xb10(%rbp)
    8780:	25 d7 
    8782:	48 8d 05 2d bc 00 00 	lea    0xbc2d(%rip),%rax        # 143b6 <g_332>
    8789:	48 89 85 d8 f3 ff ff 	mov    %rax,-0xc28(%rbp)
    8790:	c7 85 84 f3 ff ff 2e 	movl   $0xa8be222e,-0xc7c(%rbp)
    8797:	22 be a8 
    879a:	48 8d 85 20 fd ff ff 	lea    -0x2e0(%rbp),%rax
    87a1:	48 05 8f 01 00 00    	add    $0x18f,%rax
    87a7:	48 89 85 a0 f8 ff ff 	mov    %rax,-0x760(%rbp)
    87ae:	48 8d 85 20 fd ff ff 	lea    -0x2e0(%rbp),%rax
    87b5:	48 05 8f 01 00 00    	add    $0x18f,%rax
    87bb:	48 89 85 a8 f8 ff ff 	mov    %rax,-0x758(%rbp)
    87c2:	48 8d 85 20 fd ff ff 	lea    -0x2e0(%rbp),%rax
    87c9:	48 05 8f 01 00 00    	add    $0x18f,%rax
    87cf:	48 89 85 b0 f8 ff ff 	mov    %rax,-0x750(%rbp)
    87d6:	48 8d 85 20 fd ff ff 	lea    -0x2e0(%rbp),%rax
    87dd:	48 05 8f 01 00 00    	add    $0x18f,%rax
    87e3:	48 89 85 b8 f8 ff ff 	mov    %rax,-0x748(%rbp)
    87ea:	48 8d 85 20 fd ff ff 	lea    -0x2e0(%rbp),%rax
    87f1:	48 05 8f 01 00 00    	add    $0x18f,%rax
    87f7:	48 89 85 c0 f8 ff ff 	mov    %rax,-0x740(%rbp)
    87fe:	48 8d 05 31 bb 00 00 	lea    0xbb31(%rip),%rax        # 14336 <g_142+0x36>
    8805:	48 89 85 c8 f8 ff ff 	mov    %rax,-0x738(%rbp)
    880c:	48 8d 85 20 fd ff ff 	lea    -0x2e0(%rbp),%rax
    8813:	48 05 8f 01 00 00    	add    $0x18f,%rax
    8819:	48 89 85 d0 f8 ff ff 	mov    %rax,-0x730(%rbp)
    8820:	48 8d 85 20 fd ff ff 	lea    -0x2e0(%rbp),%rax
    8827:	48 05 8f 01 00 00    	add    $0x18f,%rax
    882d:	48 89 85 d8 f8 ff ff 	mov    %rax,-0x728(%rbp)
    8834:	48 8d 85 20 fd ff ff 	lea    -0x2e0(%rbp),%rax
    883b:	48 05 8f 01 00 00    	add    $0x18f,%rax
    8841:	48 89 85 e0 f8 ff ff 	mov    %rax,-0x720(%rbp)
    8848:	48 8d 85 20 fd ff ff 	lea    -0x2e0(%rbp),%rax
    884f:	48 05 8f 01 00 00    	add    $0x18f,%rax
    8855:	48 89 85 e8 f8 ff ff 	mov    %rax,-0x718(%rbp)
    885c:	48 8d 85 20 fd ff ff 	lea    -0x2e0(%rbp),%rax
    8863:	48 05 8f 01 00 00    	add    $0x18f,%rax
    8869:	48 89 85 f0 f8 ff ff 	mov    %rax,-0x710(%rbp)
    8870:	48 8d 85 20 fd ff ff 	lea    -0x2e0(%rbp),%rax
    8877:	48 05 8f 01 00 00    	add    $0x18f,%rax
    887d:	48 89 85 f8 f8 ff ff 	mov    %rax,-0x708(%rbp)
    8884:	48 8d 05 ab ba 00 00 	lea    0xbaab(%rip),%rax        # 14336 <g_142+0x36>
    888b:	48 89 85 00 f9 ff ff 	mov    %rax,-0x700(%rbp)
    8892:	48 8d 85 20 fd ff ff 	lea    -0x2e0(%rbp),%rax
    8899:	48 05 8f 01 00 00    	add    $0x18f,%rax
    889f:	48 89 85 08 f9 ff ff 	mov    %rax,-0x6f8(%rbp)
    88a6:	48 8d 85 20 fd ff ff 	lea    -0x2e0(%rbp),%rax
    88ad:	48 05 8f 01 00 00    	add    $0x18f,%rax
    88b3:	48 89 85 10 f9 ff ff 	mov    %rax,-0x6f0(%rbp)
    88ba:	48 8d 85 20 fd ff ff 	lea    -0x2e0(%rbp),%rax
    88c1:	48 05 8f 01 00 00    	add    $0x18f,%rax
    88c7:	48 89 85 18 f9 ff ff 	mov    %rax,-0x6e8(%rbp)
    88ce:	48 8d 85 20 fd ff ff 	lea    -0x2e0(%rbp),%rax
    88d5:	48 05 8f 01 00 00    	add    $0x18f,%rax
    88db:	48 89 85 20 f9 ff ff 	mov    %rax,-0x6e0(%rbp)
    88e2:	48 8d 85 20 fd ff ff 	lea    -0x2e0(%rbp),%rax
    88e9:	48 05 8f 01 00 00    	add    $0x18f,%rax
    88ef:	48 89 85 28 f9 ff ff 	mov    %rax,-0x6d8(%rbp)
    88f6:	48 8d 85 20 fd ff ff 	lea    -0x2e0(%rbp),%rax
    88fd:	48 05 8f 01 00 00    	add    $0x18f,%rax
    8903:	48 89 85 30 f9 ff ff 	mov    %rax,-0x6d0(%rbp)
    890a:	48 8d 05 25 ba 00 00 	lea    0xba25(%rip),%rax        # 14336 <g_142+0x36>
    8911:	48 89 85 38 f9 ff ff 	mov    %rax,-0x6c8(%rbp)
    8918:	48 8d 85 20 fd ff ff 	lea    -0x2e0(%rbp),%rax
    891f:	48 05 8f 01 00 00    	add    $0x18f,%rax
    8925:	48 89 85 40 f9 ff ff 	mov    %rax,-0x6c0(%rbp)
    892c:	48 8d 85 20 fd ff ff 	lea    -0x2e0(%rbp),%rax
    8933:	48 05 8f 01 00 00    	add    $0x18f,%rax
    8939:	48 89 85 48 f9 ff ff 	mov    %rax,-0x6b8(%rbp)
    8940:	48 8d 85 20 fd ff ff 	lea    -0x2e0(%rbp),%rax
    8947:	48 05 8f 01 00 00    	add    $0x18f,%rax
    894d:	48 89 85 50 f9 ff ff 	mov    %rax,-0x6b0(%rbp)
    8954:	48 8d 85 20 fd ff ff 	lea    -0x2e0(%rbp),%rax
    895b:	48 05 8f 01 00 00    	add    $0x18f,%rax
    8961:	48 89 85 58 f9 ff ff 	mov    %rax,-0x6a8(%rbp)
    8968:	48 8d 85 20 fd ff ff 	lea    -0x2e0(%rbp),%rax
    896f:	48 05 8f 01 00 00    	add    $0x18f,%rax
    8975:	48 89 85 60 f9 ff ff 	mov    %rax,-0x6a0(%rbp)
    897c:	48 8d 85 20 fd ff ff 	lea    -0x2e0(%rbp),%rax
    8983:	48 05 8f 01 00 00    	add    $0x18f,%rax
    8989:	48 89 85 68 f9 ff ff 	mov    %rax,-0x698(%rbp)
    8990:	48 8d 05 9f b9 00 00 	lea    0xb99f(%rip),%rax        # 14336 <g_142+0x36>
    8997:	48 89 85 70 f9 ff ff 	mov    %rax,-0x690(%rbp)
    899e:	48 8d 85 20 fd ff ff 	lea    -0x2e0(%rbp),%rax
    89a5:	48 05 8f 01 00 00    	add    $0x18f,%rax
    89ab:	48 89 85 78 f9 ff ff 	mov    %rax,-0x688(%rbp)
    89b2:	48 8d 85 20 fd ff ff 	lea    -0x2e0(%rbp),%rax
    89b9:	48 05 8f 01 00 00    	add    $0x18f,%rax
    89bf:	48 89 85 80 f9 ff ff 	mov    %rax,-0x680(%rbp)
    89c6:	48 8d 85 20 fd ff ff 	lea    -0x2e0(%rbp),%rax
    89cd:	48 05 8f 01 00 00    	add    $0x18f,%rax
    89d3:	48 89 85 88 f9 ff ff 	mov    %rax,-0x678(%rbp)
    89da:	48 8d 85 20 fd ff ff 	lea    -0x2e0(%rbp),%rax
    89e1:	48 05 8f 01 00 00    	add    $0x18f,%rax
    89e7:	48 89 85 90 f9 ff ff 	mov    %rax,-0x670(%rbp)
    89ee:	48 8d 85 20 fd ff ff 	lea    -0x2e0(%rbp),%rax
    89f5:	48 05 8f 01 00 00    	add    $0x18f,%rax
    89fb:	48 89 85 98 f9 ff ff 	mov    %rax,-0x668(%rbp)
    8a02:	48 8d 85 20 fd ff ff 	lea    -0x2e0(%rbp),%rax
    8a09:	48 05 8f 01 00 00    	add    $0x18f,%rax
    8a0f:	48 89 85 a0 f9 ff ff 	mov    %rax,-0x660(%rbp)
    8a16:	48 8d 05 19 b9 00 00 	lea    0xb919(%rip),%rax        # 14336 <g_142+0x36>
    8a1d:	48 89 85 a8 f9 ff ff 	mov    %rax,-0x658(%rbp)
    8a24:	48 8d 85 20 fd ff ff 	lea    -0x2e0(%rbp),%rax
    8a2b:	48 05 8f 01 00 00    	add    $0x18f,%rax
    8a31:	48 89 85 b0 f9 ff ff 	mov    %rax,-0x650(%rbp)
    8a38:	48 8d 85 20 fd ff ff 	lea    -0x2e0(%rbp),%rax
    8a3f:	48 05 8f 01 00 00    	add    $0x18f,%rax
    8a45:	48 89 85 b8 f9 ff ff 	mov    %rax,-0x648(%rbp)
    8a4c:	48 8d 85 20 fd ff ff 	lea    -0x2e0(%rbp),%rax
    8a53:	48 05 8f 01 00 00    	add    $0x18f,%rax
    8a59:	48 89 85 c0 f9 ff ff 	mov    %rax,-0x640(%rbp)
    8a60:	48 8d 85 20 fd ff ff 	lea    -0x2e0(%rbp),%rax
    8a67:	48 05 8f 01 00 00    	add    $0x18f,%rax
    8a6d:	48 89 85 c8 f9 ff ff 	mov    %rax,-0x638(%rbp)
    8a74:	48 8d 85 20 fd ff ff 	lea    -0x2e0(%rbp),%rax
    8a7b:	48 05 8f 01 00 00    	add    $0x18f,%rax
    8a81:	48 89 85 d0 f9 ff ff 	mov    %rax,-0x630(%rbp)
    8a88:	48 8d 85 20 fd ff ff 	lea    -0x2e0(%rbp),%rax
    8a8f:	48 05 8f 01 00 00    	add    $0x18f,%rax
    8a95:	48 89 85 d8 f9 ff ff 	mov    %rax,-0x628(%rbp)
    8a9c:	48 8d 05 93 b8 00 00 	lea    0xb893(%rip),%rax        # 14336 <g_142+0x36>
    8aa3:	48 89 85 e0 f9 ff ff 	mov    %rax,-0x620(%rbp)
    8aaa:	48 8d 85 20 fd ff ff 	lea    -0x2e0(%rbp),%rax
    8ab1:	48 05 8f 01 00 00    	add    $0x18f,%rax
    8ab7:	48 89 85 e8 f9 ff ff 	mov    %rax,-0x618(%rbp)
    8abe:	48 8d 85 20 fd ff ff 	lea    -0x2e0(%rbp),%rax
    8ac5:	48 05 8f 01 00 00    	add    $0x18f,%rax
    8acb:	48 89 85 f0 f9 ff ff 	mov    %rax,-0x610(%rbp)
    8ad2:	48 8d 85 20 fd ff ff 	lea    -0x2e0(%rbp),%rax
    8ad9:	48 05 8f 01 00 00    	add    $0x18f,%rax
    8adf:	48 89 85 f8 f9 ff ff 	mov    %rax,-0x608(%rbp)
    8ae6:	48 8d 85 20 fd ff ff 	lea    -0x2e0(%rbp),%rax
    8aed:	48 05 8f 01 00 00    	add    $0x18f,%rax
    8af3:	48 89 85 00 fa ff ff 	mov    %rax,-0x600(%rbp)
    8afa:	48 8d 85 20 fd ff ff 	lea    -0x2e0(%rbp),%rax
    8b01:	48 05 8f 01 00 00    	add    $0x18f,%rax
    8b07:	48 89 85 08 fa ff ff 	mov    %rax,-0x5f8(%rbp)
    8b0e:	48 8d 85 20 fd ff ff 	lea    -0x2e0(%rbp),%rax
    8b15:	48 05 8f 01 00 00    	add    $0x18f,%rax
    8b1b:	48 89 85 10 fa ff ff 	mov    %rax,-0x5f0(%rbp)
    8b22:	48 8d 05 0d b8 00 00 	lea    0xb80d(%rip),%rax        # 14336 <g_142+0x36>
    8b29:	48 89 85 18 fa ff ff 	mov    %rax,-0x5e8(%rbp)
    8b30:	48 8d 85 20 fd ff ff 	lea    -0x2e0(%rbp),%rax
    8b37:	48 05 8f 01 00 00    	add    $0x18f,%rax
    8b3d:	48 89 85 20 fa ff ff 	mov    %rax,-0x5e0(%rbp)
    8b44:	48 8d 85 20 fd ff ff 	lea    -0x2e0(%rbp),%rax
    8b4b:	48 05 8f 01 00 00    	add    $0x18f,%rax
    8b51:	48 89 85 28 fa ff ff 	mov    %rax,-0x5d8(%rbp)
    8b58:	48 8d 85 20 fd ff ff 	lea    -0x2e0(%rbp),%rax
    8b5f:	48 05 8f 01 00 00    	add    $0x18f,%rax
    8b65:	48 89 85 30 fa ff ff 	mov    %rax,-0x5d0(%rbp)
    8b6c:	48 8d 85 20 fd ff ff 	lea    -0x2e0(%rbp),%rax
    8b73:	48 05 8f 01 00 00    	add    $0x18f,%rax
    8b79:	48 89 85 38 fa ff ff 	mov    %rax,-0x5c8(%rbp)
    8b80:	48 8d 85 20 fd ff ff 	lea    -0x2e0(%rbp),%rax
    8b87:	48 05 8f 01 00 00    	add    $0x18f,%rax
    8b8d:	48 89 85 40 fa ff ff 	mov    %rax,-0x5c0(%rbp)
    8b94:	48 8d 85 20 fd ff ff 	lea    -0x2e0(%rbp),%rax
    8b9b:	48 05 8f 01 00 00    	add    $0x18f,%rax
    8ba1:	48 89 85 48 fa ff ff 	mov    %rax,-0x5b8(%rbp)
    8ba8:	48 8d 05 87 b7 00 00 	lea    0xb787(%rip),%rax        # 14336 <g_142+0x36>
    8baf:	48 89 85 50 fa ff ff 	mov    %rax,-0x5b0(%rbp)
    8bb6:	48 8d 85 20 fd ff ff 	lea    -0x2e0(%rbp),%rax
    8bbd:	48 05 8f 01 00 00    	add    $0x18f,%rax
    8bc3:	48 89 85 58 fa ff ff 	mov    %rax,-0x5a8(%rbp)
    8bca:	48 8d 85 20 fd ff ff 	lea    -0x2e0(%rbp),%rax
    8bd1:	48 05 8f 01 00 00    	add    $0x18f,%rax
    8bd7:	48 89 85 60 fa ff ff 	mov    %rax,-0x5a0(%rbp)
    8bde:	48 8d 85 20 fd ff ff 	lea    -0x2e0(%rbp),%rax
    8be5:	48 05 8f 01 00 00    	add    $0x18f,%rax
    8beb:	48 89 85 68 fa ff ff 	mov    %rax,-0x598(%rbp)
    8bf2:	48 8d 85 20 fd ff ff 	lea    -0x2e0(%rbp),%rax
    8bf9:	48 05 8f 01 00 00    	add    $0x18f,%rax
    8bff:	48 89 85 70 fa ff ff 	mov    %rax,-0x590(%rbp)
    8c06:	48 8d 85 20 fd ff ff 	lea    -0x2e0(%rbp),%rax
    8c0d:	48 05 8f 01 00 00    	add    $0x18f,%rax
    8c13:	48 89 85 78 fa ff ff 	mov    %rax,-0x588(%rbp)
    8c1a:	48 8d 85 20 fd ff ff 	lea    -0x2e0(%rbp),%rax
    8c21:	48 05 8f 01 00 00    	add    $0x18f,%rax
    8c27:	48 89 85 80 fa ff ff 	mov    %rax,-0x580(%rbp)
    8c2e:	48 8d 05 01 b7 00 00 	lea    0xb701(%rip),%rax        # 14336 <g_142+0x36>
    8c35:	48 89 85 88 fa ff ff 	mov    %rax,-0x578(%rbp)
    8c3c:	48 8d 85 20 fd ff ff 	lea    -0x2e0(%rbp),%rax
    8c43:	48 05 8f 01 00 00    	add    $0x18f,%rax
    8c49:	48 89 85 90 fa ff ff 	mov    %rax,-0x570(%rbp)
    8c50:	c6 85 73 f3 ff ff 32 	movb   $0x32,-0xc8d(%rbp)
    8c57:	c7 85 a4 f3 ff ff 00 	movl   $0x0,-0xc5c(%rbp)
    8c5e:	00 00 00 
    8c61:	eb 19                	jmp    8c7c <func_31+0x635>
    8c63:	8b 85 a4 f3 ff ff    	mov    -0xc5c(%rbp),%eax
    8c69:	48 98                	cltq   
    8c6b:	66 c7 84 45 d4 f4 ff 	movw   $0x37dc,-0xb2c(%rbp,%rax,2)
    8c72:	ff dc 37 
    8c75:	83 85 a4 f3 ff ff 01 	addl   $0x1,-0xc5c(%rbp)
    8c7c:	83 bd a4 f3 ff ff 01 	cmpl   $0x1,-0xc5c(%rbp)
    8c83:	7e de                	jle    8c63 <func_31+0x61c>
    8c85:	48 83 bd e0 f3 ff ff 	cmpq   $0x0,-0xc20(%rbp)
    8c8c:	00 
    8c8d:	0f 95 c0             	setne  %al
    8c90:	0f b6 d8             	movzbl %al,%ebx
    8c93:	80 bd 64 f3 ff ff 00 	cmpb   $0x0,-0xc9c(%rbp)
    8c9a:	0f 95 c0             	setne  %al
    8c9d:	44 0f b6 e0          	movzbl %al,%r12d
    8ca1:	48 8b 85 68 f3 ff ff 	mov    -0xc98(%rbp),%rax
    8ca8:	0f b6 c0             	movzbl %al,%eax
    8cab:	be 04 00 00 00       	mov    $0x4,%esi
    8cb0:	89 c7                	mov    %eax,%edi
    8cb2:	e8 07 d0 ff ff       	callq  5cbe <safe_rshift_func_uint8_t_u_u>
    8cb7:	44 89 e6             	mov    %r12d,%esi
    8cba:	bf 01 00 00 00       	mov    $0x1,%edi
    8cbf:	e8 ef c6 ff ff       	callq  53b3 <safe_add_func_int16_t_s_s>
    8cc4:	89 c2                	mov    %eax,%edx
    8cc6:	0f b6 85 71 f3 ff ff 	movzbl -0xc8f(%rbp),%eax
    8ccd:	09 d0                	or     %edx,%eax
    8ccf:	88 85 71 f3 ff ff    	mov    %al,-0xc8f(%rbp)
    8cd5:	0f b6 85 71 f3 ff ff 	movzbl -0xc8f(%rbp),%eax
    8cdc:	89 de                	mov    %ebx,%esi
    8cde:	89 c7                	mov    %eax,%edi
    8ce0:	e8 10 c7 ff ff       	callq  53f5 <safe_mul_func_int16_t_s_s>
    8ce5:	8b 85 7c f3 ff ff    	mov    -0xc84(%rbp),%eax
    8ceb:	85 c0                	test   %eax,%eax
    8ced:	74 74                	je     8d63 <func_31+0x71c>
    8cef:	48 8d 05 92 c3 00 00 	lea    0xc392(%rip),%rax        # 15088 <g_294>
    8cf6:	48 89 85 48 f4 ff ff 	mov    %rax,-0xbb8(%rbp)
    8cfd:	48 c7 85 b0 f6 ff ff 	movq   $0x0,-0x950(%rbp)
    8d04:	00 00 00 00 
    8d08:	48 c7 85 b8 f6 ff ff 	movq   $0x0,-0x948(%rbp)
    8d0f:	00 00 00 00 
    8d13:	48 c7 85 c0 f6 ff ff 	movq   $0x0,-0x940(%rbp)
    8d1a:	00 00 00 00 
    8d1e:	48 c7 85 c8 f6 ff ff 	movq   $0x0,-0x938(%rbp)
    8d25:	00 00 00 00 
    8d29:	48 c7 85 d0 f6 ff ff 	movq   $0x0,-0x930(%rbp)
    8d30:	00 00 00 00 
    8d34:	48 c7 85 d8 f6 ff ff 	movq   $0x0,-0x928(%rbp)
    8d3b:	00 00 00 00 
    8d3f:	48 8d 05 da c3 00 00 	lea    0xc3da(%rip),%rax        # 15120 <g_375>
    8d46:	48 89 85 48 f4 ff ff 	mov    %rax,-0xbb8(%rbp)
    8d4d:	48 8b 05 dc c3 00 00 	mov    0xc3dc(%rip),%rax        # 15130 <g_414>
    8d54:	48 8b 95 e0 f3 ff ff 	mov    -0xc20(%rbp),%rdx
    8d5b:	48 89 10             	mov    %rdx,(%rax)
    8d5e:	e9 85 03 00 00       	jmpq   90e8 <func_31+0xaa1>
    8d63:	c7 45 d2 c9 c9 c9 c9 	movl   $0xc9c9c9c9,-0x2e(%rbp)
    8d6a:	66 c7 45 d6 c9 c9    	movw   $0xc9c9,-0x2a(%rbp)
    8d70:	c7 85 a8 f3 ff ff 33 	movl   $0x27ac533,-0xc58(%rbp)
    8d77:	c5 7a 02 
    8d7a:	c7 85 ac f3 ff ff 01 	movl   $0x1,-0xc54(%rbp)
    8d81:	00 00 00 
    8d84:	c7 85 d0 f3 ff ff 85 	movl   $0xc48d2985,-0xc30(%rbp)
    8d8b:	29 8d c4 
    8d8e:	48 8d 05 4b c4 00 00 	lea    0xc44b(%rip),%rax        # 151e0 <g_514>
    8d95:	48 89 85 f0 f3 ff ff 	mov    %rax,-0xc10(%rbp)
    8d9c:	66 c7 05 f3 b5 00 00 	movw   $0x6,0xb5f3(%rip)        # 14398 <g_268>
    8da3:	06 00 
    8da5:	e9 09 03 00 00       	jmpq   90b3 <func_31+0xa6c>
    8daa:	c6 85 74 f3 ff ff bf 	movb   $0xbf,-0xc8c(%rbp)
    8db1:	48 c7 85 f8 f3 ff ff 	movq   $0x0,-0xc08(%rbp)
    8db8:	00 00 00 00 
    8dbc:	48 c7 85 00 f4 ff ff 	movq   $0x0,-0xc00(%rbp)
    8dc3:	00 00 00 00 
    8dc7:	48 8d 05 ae b4 00 00 	lea    0xb4ae(%rip),%rax        # 1427c <g_120+0x5c>
    8dce:	48 89 85 08 f4 ff ff 	mov    %rax,-0xbf8(%rbp)
    8dd5:	48 8d 85 7c f3 ff ff 	lea    -0xc84(%rbp),%rax
    8ddc:	48 89 85 10 f4 ff ff 	mov    %rax,-0xbf0(%rbp)
    8de3:	48 8d 05 86 b4 00 00 	lea    0xb486(%rip),%rax        # 14270 <g_120+0x50>
    8dea:	48 89 85 18 f4 ff ff 	mov    %rax,-0xbe8(%rbp)
    8df1:	48 8d 05 78 b4 00 00 	lea    0xb478(%rip),%rax        # 14270 <g_120+0x50>
    8df8:	48 89 85 20 f4 ff ff 	mov    %rax,-0xbe0(%rbp)
    8dff:	48 8d 05 6a b4 00 00 	lea    0xb46a(%rip),%rax        # 14270 <g_120+0x50>
    8e06:	48 89 85 28 f4 ff ff 	mov    %rax,-0xbd8(%rbp)
    8e0d:	48 8d 85 7c f3 ff ff 	lea    -0xc84(%rbp),%rax
    8e14:	48 89 85 30 f4 ff ff 	mov    %rax,-0xbd0(%rbp)
    8e1b:	48 8d 05 4e b4 00 00 	lea    0xb44e(%rip),%rax        # 14270 <g_120+0x50>
    8e22:	48 89 85 b0 f6 ff ff 	mov    %rax,-0x950(%rbp)
    8e29:	48 8d 05 40 b4 00 00 	lea    0xb440(%rip),%rax        # 14270 <g_120+0x50>
    8e30:	48 89 85 b8 f6 ff ff 	mov    %rax,-0x948(%rbp)
    8e37:	48 8d 85 7c f3 ff ff 	lea    -0xc84(%rbp),%rax
    8e3e:	48 89 85 c0 f6 ff ff 	mov    %rax,-0x940(%rbp)
    8e45:	48 8d 05 24 b4 00 00 	lea    0xb424(%rip),%rax        # 14270 <g_120+0x50>
    8e4c:	48 89 85 c8 f6 ff ff 	mov    %rax,-0x938(%rbp)
    8e53:	48 8d 05 16 b4 00 00 	lea    0xb416(%rip),%rax        # 14270 <g_120+0x50>
    8e5a:	48 89 85 d0 f6 ff ff 	mov    %rax,-0x930(%rbp)
    8e61:	48 8d 85 7c f3 ff ff 	lea    -0xc84(%rbp),%rax
    8e68:	48 89 85 d8 f6 ff ff 	mov    %rax,-0x928(%rbp)
    8e6f:	48 8d 05 fa b3 00 00 	lea    0xb3fa(%rip),%rax        # 14270 <g_120+0x50>
    8e76:	48 89 85 e0 f6 ff ff 	mov    %rax,-0x920(%rbp)
    8e7d:	48 8d 05 ec b3 00 00 	lea    0xb3ec(%rip),%rax        # 14270 <g_120+0x50>
    8e84:	48 89 85 e8 f6 ff ff 	mov    %rax,-0x918(%rbp)
    8e8b:	c7 85 b0 f3 ff ff 9a 	movl   $0x76c4359a,-0xc50(%rbp)
    8e92:	35 c4 76 
    8e95:	48 8b 05 9c c2 00 00 	mov    0xc29c(%rip),%rax        # 15138 <g_457>
    8e9c:	8b 00                	mov    (%rax),%eax
    8e9e:	85 c0                	test   %eax,%eax
    8ea0:	0f 85 1f 02 00 00    	jne    90c5 <func_31+0xa7e>
    8ea6:	48 c7 85 68 f3 ff ff 	movq   $0x0,-0xc98(%rbp)
    8ead:	00 00 00 00 
    8eb1:	e9 d7 01 00 00       	jmpq   908d <func_31+0xa46>
    8eb6:	66 c7 85 00 f6 ff ff 	movw   $0xffff,-0xa00(%rbp)
    8ebd:	ff ff 
    8ebf:	66 c7 85 02 f6 ff ff 	movw   $0xffff,-0x9fe(%rbp)
    8ec6:	ff ff 
    8ec8:	66 c7 85 04 f6 ff ff 	movw   $0xffff,-0x9fc(%rbp)
    8ecf:	ff ff 
    8ed1:	66 c7 85 06 f6 ff ff 	movw   $0xffff,-0x9fa(%rbp)
    8ed8:	ff ff 
    8eda:	66 c7 85 08 f6 ff ff 	movw   $0xffff,-0x9f8(%rbp)
    8ee1:	ff ff 
    8ee3:	66 c7 85 0a f6 ff ff 	movw   $0x6ecf,-0x9f6(%rbp)
    8eea:	cf 6e 
    8eec:	66 c7 85 0c f6 ff ff 	movw   $0x6ecf,-0x9f4(%rbp)
    8ef3:	cf 6e 
    8ef5:	66 c7 85 0e f6 ff ff 	movw   $0x6ecf,-0x9f2(%rbp)
    8efc:	cf 6e 
    8efe:	66 c7 85 10 f6 ff ff 	movw   $0x6ecf,-0x9f0(%rbp)
    8f05:	cf 6e 
    8f07:	66 c7 85 12 f6 ff ff 	movw   $0x6ecf,-0x9ee(%rbp)
    8f0e:	cf 6e 
    8f10:	66 c7 85 14 f6 ff ff 	movw   $0xffff,-0x9ec(%rbp)
    8f17:	ff ff 
    8f19:	66 c7 85 16 f6 ff ff 	movw   $0xffff,-0x9ea(%rbp)
    8f20:	ff ff 
    8f22:	66 c7 85 18 f6 ff ff 	movw   $0xffff,-0x9e8(%rbp)
    8f29:	ff ff 
    8f2b:	66 c7 85 1a f6 ff ff 	movw   $0xffff,-0x9e6(%rbp)
    8f32:	ff ff 
    8f34:	66 c7 85 1c f6 ff ff 	movw   $0xffff,-0x9e4(%rbp)
    8f3b:	ff ff 
    8f3d:	48 8d 05 44 b1 00 00 	lea    0xb144(%rip),%rax        # 14088 <g_118+0x8>
    8f44:	48 89 85 38 f4 ff ff 	mov    %rax,-0xbc8(%rbp)
    8f4b:	48 8d 05 1e b3 00 00 	lea    0xb31e(%rip),%rax        # 14270 <g_120+0x50>
    8f52:	48 89 85 40 f4 ff ff 	mov    %rax,-0xbc0(%rbp)
    8f59:	0f b6 85 74 f3 ff ff 	movzbl -0xc8c(%rbp),%eax
    8f60:	0f b6 d8             	movzbl %al,%ebx
    8f63:	0f b7 05 2e b4 00 00 	movzwl 0xb42e(%rip),%eax        # 14398 <g_268>
    8f6a:	98                   	cwtl   
    8f6b:	48 63 d0             	movslq %eax,%rdx
    8f6e:	48 89 d0             	mov    %rdx,%rax
    8f71:	48 c1 e0 03          	shl    $0x3,%rax
    8f75:	48 29 d0             	sub    %rdx,%rax
    8f78:	48 8b 95 68 f3 ff ff 	mov    -0xc98(%rbp),%rdx
    8f7f:	48 01 d0             	add    %rdx,%rax
    8f82:	48 8d 14 85 00 00 00 	lea    0x0(,%rax,4),%rdx
    8f89:	00 
    8f8a:	48 8d 05 8f b2 00 00 	lea    0xb28f(%rip),%rax        # 14220 <g_120>
    8f91:	8b 04 02             	mov    (%rdx,%rax,1),%eax
    8f94:	3d a9 00 00 00       	cmp    $0xa9,%eax
    8f99:	0f 9f c0             	setg   %al
    8f9c:	44 0f b6 f0          	movzbl %al,%r14d
    8fa0:	0f b6 85 64 f3 ff ff 	movzbl -0xc9c(%rbp),%eax
    8fa7:	48 89 c6             	mov    %rax,%rsi
    8faa:	48 bf 45 6a 35 1b 63 	movabs $0x662eeb631b356a45,%rdi
    8fb1:	eb 2e 66 
    8fb4:	e8 75 d0 ff ff       	callq  602e <safe_add_func_uint64_t_u_u>
    8fb9:	49 89 c5             	mov    %rax,%r13
    8fbc:	0f b6 45 d6          	movzbl -0x2a(%rbp),%eax
    8fc0:	44 0f b6 e0          	movzbl %al,%r12d
    8fc4:	48 8b 85 68 f3 ff ff 	mov    -0xc98(%rbp),%rax
    8fcb:	89 c2                	mov    %eax,%edx
    8fcd:	48 8b 85 68 f3 ff ff 	mov    -0xc98(%rbp),%rax
    8fd4:	83 e0 01             	and    $0x1,%eax
    8fd7:	48 3d 40 1d 00 00    	cmp    $0x1d40,%rax
    8fdd:	0f 97 c0             	seta   %al
    8fe0:	0f b6 c0             	movzbl %al,%eax
    8fe3:	89 d6                	mov    %edx,%esi
    8fe5:	89 c7                	mov    %eax,%edi
    8fe7:	e8 5c ce ff ff       	callq  5e48 <safe_rshift_func_uint16_t_u_s>
    8fec:	0f b7 c0             	movzwl %ax,%eax
    8fef:	44 89 e6             	mov    %r12d,%esi
    8ff2:	89 c7                	mov    %eax,%edi
    8ff4:	e8 bd c5 ff ff       	callq  55b6 <safe_add_func_int32_t_s_s>
    8ff9:	48 98                	cltq   
    8ffb:	48 be ac f3 95 18 a5 	movabs $0x3f55e2a51895f3ac,%rsi
    9002:	e2 55 3f 
    9005:	48 89 c7             	mov    %rax,%rdi
    9008:	e8 21 d0 ff ff       	callq  602e <safe_add_func_uint64_t_u_u>
    900d:	0f b7 85 0e f6 ff ff 	movzwl -0x9f2(%rbp),%eax
    9014:	0f b7 d0             	movzwl %ax,%edx
    9017:	48 8b 85 38 f4 ff ff 	mov    -0xbc8(%rbp),%rax
    901e:	48 89 10             	mov    %rdx,(%rax)
    9021:	48 8b 85 38 f4 ff ff 	mov    -0xbc8(%rbp),%rax
    9028:	48 8b 00             	mov    (%rax),%rax
    902b:	48 c7 c6 fe ff ff ff 	mov    $0xfffffffffffffffe,%rsi
    9032:	48 89 c7             	mov    %rax,%rdi
    9035:	e8 07 c8 ff ff       	callq  5841 <safe_add_func_int64_t_s_s>
    903a:	49 39 c5             	cmp    %rax,%r13
    903d:	0f 97 c0             	seta   %al
    9040:	0f b6 c0             	movzbl %al,%eax
    9043:	89 c6                	mov    %eax,%esi
    9045:	bf 00 00 00 00       	mov    $0x0,%edi
    904a:	e8 14 c5 ff ff       	callq  5563 <safe_rshift_func_int16_t_s_u>
    904f:	83 c8 06             	or     $0x6,%eax
    9052:	48 0f bf c0          	movswq %ax,%rax
    9056:	be 03 00 00 00       	mov    $0x3,%esi
    905b:	48 89 c7             	mov    %rax,%rdi
    905e:	e8 cb cf ff ff       	callq  602e <safe_add_func_uint64_t_u_u>
    9063:	49 39 c6             	cmp    %rax,%r14
    9066:	0f 92 c0             	setb   %al
    9069:	0f b6 c0             	movzbl %al,%eax
    906c:	89 de                	mov    %ebx,%esi
    906e:	89 c7                	mov    %eax,%edi
    9070:	e8 03 cb ff ff       	callq  5b78 <safe_sub_func_uint8_t_u_u>
    9075:	0f b6 95 64 f3 ff ff 	movzbl -0xc9c(%rbp),%edx
    907c:	48 8b 85 40 f4 ff ff 	mov    -0xbc0(%rbp),%rax
    9083:	89 10                	mov    %edx,(%rax)
    9085:	48 83 85 68 f3 ff ff 	addq   $0x1,-0xc98(%rbp)
    908c:	01 
    908d:	48 83 bd 68 f3 ff ff 	cmpq   $0x6,-0xc98(%rbp)
    9094:	06 
    9095:	0f 86 1b fe ff ff    	jbe    8eb6 <func_31+0x86f>
    909b:	83 ad b0 f3 ff ff 01 	subl   $0x1,-0xc50(%rbp)
    90a2:	0f b7 05 ef b2 00 00 	movzwl 0xb2ef(%rip),%eax        # 14398 <g_268>
    90a9:	83 e8 01             	sub    $0x1,%eax
    90ac:	66 89 05 e5 b2 00 00 	mov    %ax,0xb2e5(%rip)        # 14398 <g_268>
    90b3:	0f b7 05 de b2 00 00 	movzwl 0xb2de(%rip),%eax        # 14398 <g_268>
    90ba:	66 85 c0             	test   %ax,%ax
    90bd:	0f 89 e7 fc ff ff    	jns    8daa <func_31+0x763>
    90c3:	eb 01                	jmp    90c6 <func_31+0xa7f>
    90c5:	90                   	nop
    90c6:	48 8b 05 1b c1 00 00 	mov    0xc11b(%rip),%rax        # 151e8 <g_513>
    90cd:	48 8d 95 80 f3 ff ff 	lea    -0xc80(%rbp),%rdx
    90d4:	48 89 10             	mov    %rdx,(%rax)
    90d7:	48 8b 85 f0 f3 ff ff 	mov    -0xc10(%rbp),%rax
    90de:	48 8d 95 d0 f3 ff ff 	lea    -0xc30(%rbp),%rdx
    90e5:	48 89 10             	mov    %rdx,(%rax)
    90e8:	c6 85 71 f3 ff ff f1 	movb   $0xf1,-0xc8f(%rbp)
    90ef:	e9 fd 06 00 00       	jmpq   97f1 <func_31+0x11aa>
    90f4:	c7 85 20 f5 ff ff c2 	movl   $0xb0be39c2,-0xae0(%rbp)
    90fb:	39 be b0 
    90fe:	c7 85 24 f5 ff ff c2 	movl   $0xb0be39c2,-0xadc(%rbp)
    9105:	39 be b0 
    9108:	c7 85 28 f5 ff ff c2 	movl   $0xb0be39c2,-0xad8(%rbp)
    910f:	39 be b0 
    9112:	c7 85 2c f5 ff ff ff 	movl   $0xffffffff,-0xad4(%rbp)
    9119:	ff ff ff 
    911c:	c7 85 30 f5 ff ff 01 	movl   $0x1,-0xad0(%rbp)
    9123:	00 00 00 
    9126:	c7 85 34 f5 ff ff ff 	movl   $0xffffffff,-0xacc(%rbp)
    912d:	ff ff ff 
    9130:	c7 85 38 f5 ff ff ff 	movl   $0xffffffff,-0xac8(%rbp)
    9137:	ff ff ff 
    913a:	c7 85 3c f5 ff ff ff 	movl   $0xffffffff,-0xac4(%rbp)
    9141:	ff ff ff 
    9144:	c7 85 40 f5 ff ff 01 	movl   $0x1,-0xac0(%rbp)
    914b:	00 00 00 
    914e:	c7 85 44 f5 ff ff ff 	movl   $0xffffffff,-0xabc(%rbp)
    9155:	ff ff ff 
    9158:	c7 85 48 f5 ff ff c2 	movl   $0xb0be39c2,-0xab8(%rbp)
    915f:	39 be b0 
    9162:	c7 85 4c f5 ff ff c2 	movl   $0xb0be39c2,-0xab4(%rbp)
    9169:	39 be b0 
    916c:	c7 85 50 f5 ff ff c2 	movl   $0xb0be39c2,-0xab0(%rbp)
    9173:	39 be b0 
    9176:	c7 85 54 f5 ff ff ff 	movl   $0xffffffff,-0xaac(%rbp)
    917d:	ff ff ff 
    9180:	c7 85 58 f5 ff ff 01 	movl   $0x1,-0xaa8(%rbp)
    9187:	00 00 00 
    918a:	c7 85 5c f5 ff ff ff 	movl   $0xffffffff,-0xaa4(%rbp)
    9191:	ff ff ff 
    9194:	c7 85 60 f5 ff ff ff 	movl   $0xffffffff,-0xaa0(%rbp)
    919b:	ff ff ff 
    919e:	c7 85 64 f5 ff ff ff 	movl   $0xffffffff,-0xa9c(%rbp)
    91a5:	ff ff ff 
    91a8:	c7 85 68 f5 ff ff 01 	movl   $0x1,-0xa98(%rbp)
    91af:	00 00 00 
    91b2:	c7 85 6c f5 ff ff ff 	movl   $0xffffffff,-0xa94(%rbp)
    91b9:	ff ff ff 
    91bc:	48 8d 05 6b b1 00 00 	lea    0xb16b(%rip),%rax        # 1432e <g_142+0x2e>
    91c3:	48 89 85 c8 f3 ff ff 	mov    %rax,-0xc38(%rbp)
    91ca:	48 8d 85 c8 f3 ff ff 	lea    -0xc38(%rbp),%rax
    91d1:	48 89 85 50 f4 ff ff 	mov    %rax,-0xbb0(%rbp)
    91d8:	48 8d 05 e1 b0 00 00 	lea    0xb0e1(%rip),%rax        # 142c0 <g_120+0xa0>
    91df:	48 89 85 58 f4 ff ff 	mov    %rax,-0xba8(%rbp)
    91e6:	48 c7 85 60 f4 ff ff 	movq   $0x0,-0xba0(%rbp)
    91ed:	00 00 00 00 
    91f1:	48 8d 85 7c f3 ff ff 	lea    -0xc84(%rbp),%rax
    91f8:	48 89 85 68 f4 ff ff 	mov    %rax,-0xb98(%rbp)
    91ff:	48 c7 85 70 f4 ff ff 	movq   $0x0,-0xb90(%rbp)
    9206:	00 00 00 00 
    920a:	48 8d 85 20 f5 ff ff 	lea    -0xae0(%rbp),%rax
    9211:	48 83 c0 28          	add    $0x28,%rax
    9215:	48 89 85 78 f4 ff ff 	mov    %rax,-0xb88(%rbp)
    921c:	48 8d 85 7c f3 ff ff 	lea    -0xc84(%rbp),%rax
    9223:	48 89 85 80 f4 ff ff 	mov    %rax,-0xb80(%rbp)
    922a:	48 8d 85 20 f5 ff ff 	lea    -0xae0(%rbp),%rax
    9231:	48 83 c0 24          	add    $0x24,%rax
    9235:	48 89 85 88 f4 ff ff 	mov    %rax,-0xb78(%rbp)
    923c:	48 8d 85 20 f5 ff ff 	lea    -0xae0(%rbp),%rax
    9243:	48 83 c0 20          	add    $0x20,%rax
    9247:	48 89 85 90 f4 ff ff 	mov    %rax,-0xb70(%rbp)
    924e:	48 c7 85 98 f4 ff ff 	movq   $0x0,-0xb68(%rbp)
    9255:	00 00 00 00 
    9259:	48 8d 85 7c f3 ff ff 	lea    -0xc84(%rbp),%rax
    9260:	48 89 85 a0 f4 ff ff 	mov    %rax,-0xb60(%rbp)
    9267:	48 8d 85 80 f3 ff ff 	lea    -0xc80(%rbp),%rax
    926e:	48 89 85 a8 f4 ff ff 	mov    %rax,-0xb58(%rbp)
    9275:	c7 85 9c f3 ff ff 00 	movl   $0x0,-0xc64(%rbp)
    927c:	00 00 00 
    927f:	eb 1e                	jmp    929f <func_31+0xc58>
    9281:	8b 85 9c f3 ff ff    	mov    -0xc64(%rbp),%eax
    9287:	48 98                	cltq   
    9289:	48 8d 95 7c f3 ff ff 	lea    -0xc84(%rbp),%rdx
    9290:	48 89 94 c5 00 f5 ff 	mov    %rdx,-0xb00(%rbp,%rax,8)
    9297:	ff 
    9298:	83 85 9c f3 ff ff 01 	addl   $0x1,-0xc64(%rbp)
    929f:	83 bd 9c f3 ff ff 02 	cmpl   $0x2,-0xc64(%rbp)
    92a6:	7e d9                	jle    9281 <func_31+0xc3a>
    92a8:	48 8b 05 51 c5 00 00 	mov    0xc551(%rip),%rax        # 15800 <g_519>
    92af:	8b 08                	mov    (%rax),%ecx
    92b1:	0f b6 95 64 f3 ff ff 	movzbl -0xc9c(%rbp),%edx
    92b8:	21 ca                	and    %ecx,%edx
    92ba:	89 10                	mov    %edx,(%rax)
    92bc:	c7 85 80 f3 ff ff 00 	movl   $0x0,-0xc80(%rbp)
    92c3:	00 00 00 
    92c6:	e9 f6 04 00 00       	jmpq   97c1 <func_31+0x117a>
    92cb:	66 c7 85 76 f3 ff ff 	movw   $0x0,-0xc8a(%rbp)
    92d2:	00 00 
    92d4:	48 8d 05 ab b0 00 00 	lea    0xb0ab(%rip),%rax        # 14386 <g_189>
    92db:	48 89 85 70 f5 ff ff 	mov    %rax,-0xa90(%rbp)
    92e2:	48 8d 05 9d b0 00 00 	lea    0xb09d(%rip),%rax        # 14386 <g_189>
    92e9:	48 89 85 78 f5 ff ff 	mov    %rax,-0xa88(%rbp)
    92f0:	48 c7 85 80 f5 ff ff 	movq   $0x0,-0xa80(%rbp)
    92f7:	00 00 00 00 
    92fb:	48 c7 85 88 f5 ff ff 	movq   $0x0,-0xa78(%rbp)
    9302:	00 00 00 00 
    9306:	48 c7 85 90 f5 ff ff 	movq   $0x0,-0xa70(%rbp)
    930d:	00 00 00 00 
    9311:	48 c7 85 98 f5 ff ff 	movq   $0x0,-0xa68(%rbp)
    9318:	00 00 00 00 
    931c:	48 8d 05 63 b0 00 00 	lea    0xb063(%rip),%rax        # 14386 <g_189>
    9323:	48 89 85 a0 f5 ff ff 	mov    %rax,-0xa60(%rbp)
    932a:	48 8d 05 55 b0 00 00 	lea    0xb055(%rip),%rax        # 14386 <g_189>
    9331:	48 89 85 a8 f5 ff ff 	mov    %rax,-0xa58(%rbp)
    9338:	48 8d 05 47 b0 00 00 	lea    0xb047(%rip),%rax        # 14386 <g_189>
    933f:	48 89 85 b0 f5 ff ff 	mov    %rax,-0xa50(%rbp)
    9346:	48 c7 85 b8 f5 ff ff 	movq   $0x0,-0xa48(%rbp)
    934d:	00 00 00 00 
    9351:	48 c7 85 c0 f5 ff ff 	movq   $0x0,-0xa40(%rbp)
    9358:	00 00 00 00 
    935c:	48 c7 85 c8 f5 ff ff 	movq   $0x0,-0xa38(%rbp)
    9363:	00 00 00 00 
    9367:	48 c7 85 d0 f5 ff ff 	movq   $0x0,-0xa30(%rbp)
    936e:	00 00 00 00 
    9372:	48 8d 05 0d b0 00 00 	lea    0xb00d(%rip),%rax        # 14386 <g_189>
    9379:	48 89 85 d8 f5 ff ff 	mov    %rax,-0xa28(%rbp)
    9380:	48 8d 05 ff af 00 00 	lea    0xafff(%rip),%rax        # 14386 <g_189>
    9387:	48 89 85 e0 f5 ff ff 	mov    %rax,-0xa20(%rbp)
    938e:	48 8d 05 f1 af 00 00 	lea    0xaff1(%rip),%rax        # 14386 <g_189>
    9395:	48 89 85 e8 f5 ff ff 	mov    %rax,-0xa18(%rbp)
    939c:	48 c7 85 f0 f5 ff ff 	movq   $0x0,-0xa10(%rbp)
    93a3:	00 00 00 00 
    93a7:	48 c7 85 f8 f5 ff ff 	movq   $0x0,-0xa08(%rbp)
    93ae:	00 00 00 00 
    93b2:	0f b7 85 78 f3 ff ff 	movzwl -0xc88(%rbp),%eax
    93b9:	66 25 00 fc          	and    $0xfc00,%ax
    93bd:	83 c8 1d             	or     $0x1d,%eax
    93c0:	66 89 85 78 f3 ff ff 	mov    %ax,-0xc88(%rbp)
    93c7:	48 8d 05 32 af 00 00 	lea    0xaf32(%rip),%rax        # 14300 <g_142>
    93ce:	48 89 85 00 f6 ff ff 	mov    %rax,-0xa00(%rbp)
    93d5:	48 c7 85 08 f6 ff ff 	movq   $0x0,-0x9f8(%rbp)
    93dc:	00 00 00 00 
    93e0:	48 8d 05 19 af 00 00 	lea    0xaf19(%rip),%rax        # 14300 <g_142>
    93e7:	48 89 85 10 f6 ff ff 	mov    %rax,-0x9f0(%rbp)
    93ee:	48 c7 85 18 f6 ff ff 	movq   $0x0,-0x9e8(%rbp)
    93f5:	00 00 00 00 
    93f9:	48 8d 05 00 af 00 00 	lea    0xaf00(%rip),%rax        # 14300 <g_142>
    9400:	48 89 85 20 f6 ff ff 	mov    %rax,-0x9e0(%rbp)
    9407:	48 c7 85 28 f6 ff ff 	movq   $0x0,-0x9d8(%rbp)
    940e:	00 00 00 00 
    9412:	48 8d 05 e7 ae 00 00 	lea    0xaee7(%rip),%rax        # 14300 <g_142>
    9419:	48 89 85 30 f6 ff ff 	mov    %rax,-0x9d0(%rbp)
    9420:	48 8d 05 07 af 00 00 	lea    0xaf07(%rip),%rax        # 1432e <g_142+0x2e>
    9427:	48 89 85 38 f6 ff ff 	mov    %rax,-0x9c8(%rbp)
    942e:	48 8d 05 f9 ae 00 00 	lea    0xaef9(%rip),%rax        # 1432e <g_142+0x2e>
    9435:	48 89 85 40 f6 ff ff 	mov    %rax,-0x9c0(%rbp)
    943c:	48 8d 05 eb ae 00 00 	lea    0xaeeb(%rip),%rax        # 1432e <g_142+0x2e>
    9443:	48 89 85 48 f6 ff ff 	mov    %rax,-0x9b8(%rbp)
    944a:	48 8d 05 dd ae 00 00 	lea    0xaedd(%rip),%rax        # 1432e <g_142+0x2e>
    9451:	48 89 85 50 f6 ff ff 	mov    %rax,-0x9b0(%rbp)
    9458:	48 8d 05 cf ae 00 00 	lea    0xaecf(%rip),%rax        # 1432e <g_142+0x2e>
    945f:	48 89 85 58 f6 ff ff 	mov    %rax,-0x9a8(%rbp)
    9466:	48 8d 05 c1 ae 00 00 	lea    0xaec1(%rip),%rax        # 1432e <g_142+0x2e>
    946d:	48 89 85 60 f6 ff ff 	mov    %rax,-0x9a0(%rbp)
    9474:	48 8d 05 b3 ae 00 00 	lea    0xaeb3(%rip),%rax        # 1432e <g_142+0x2e>
    947b:	48 89 85 68 f6 ff ff 	mov    %rax,-0x998(%rbp)
    9482:	48 8d 05 77 ae 00 00 	lea    0xae77(%rip),%rax        # 14300 <g_142>
    9489:	48 89 85 70 f6 ff ff 	mov    %rax,-0x990(%rbp)
    9490:	48 c7 85 78 f6 ff ff 	movq   $0x0,-0x988(%rbp)
    9497:	00 00 00 00 
    949b:	48 8d 05 5e ae 00 00 	lea    0xae5e(%rip),%rax        # 14300 <g_142>
    94a2:	48 89 85 80 f6 ff ff 	mov    %rax,-0x980(%rbp)
    94a9:	48 c7 85 88 f6 ff ff 	movq   $0x0,-0x978(%rbp)
    94b0:	00 00 00 00 
    94b4:	48 8d 05 45 ae 00 00 	lea    0xae45(%rip),%rax        # 14300 <g_142>
    94bb:	48 89 85 90 f6 ff ff 	mov    %rax,-0x970(%rbp)
    94c2:	48 c7 85 98 f6 ff ff 	movq   $0x0,-0x968(%rbp)
    94c9:	00 00 00 00 
    94cd:	48 8d 05 2c ae 00 00 	lea    0xae2c(%rip),%rax        # 14300 <g_142>
    94d4:	48 89 85 a0 f6 ff ff 	mov    %rax,-0x960(%rbp)
    94db:	48 8d 85 00 f6 ff ff 	lea    -0xa00(%rbp),%rax
    94e2:	48 83 c0 28          	add    $0x28,%rax
    94e6:	48 89 85 b0 f4 ff ff 	mov    %rax,-0xb50(%rbp)
    94ed:	c7 85 b4 f3 ff ff 28 	movl   $0x4a2dff28,-0xc4c(%rbp)
    94f4:	ff 2d 4a 
    94f7:	66 c7 05 b6 ae 00 00 	movw   $0x0,0xaeb6(%rip)        # 143b6 <g_332>
    94fe:	00 00 
    9500:	e9 9c 02 00 00       	jmpq   97a1 <func_31+0x115a>
    9505:	48 c7 85 d0 f3 ff ff 	movq   $0xfffffffffffffffc,-0xc30(%rbp)
    950c:	fc ff ff ff 
    9510:	c6 85 75 f3 ff ff a2 	movb   $0xa2,-0xc8b(%rbp)
    9517:	c7 85 b8 f3 ff ff 01 	movl   $0x1,-0xc48(%rbp)
    951e:	00 00 00 
    9521:	c7 85 bc f3 ff ff 00 	movl   $0x0,-0xc44(%rbp)
    9528:	00 00 00 
    952b:	c7 85 c0 f3 ff ff 01 	movl   $0x1,-0xc40(%rbp)
    9532:	00 00 00 
    9535:	c6 85 64 f3 ff ff 00 	movb   $0x0,-0xc9c(%rbp)
    953c:	eb 60                	jmp    959e <func_31+0xf57>
    953e:	48 8d 85 7c f3 ff ff 	lea    -0xc84(%rbp),%rax
    9545:	48 89 85 b0 f6 ff ff 	mov    %rax,-0x950(%rbp)
    954c:	48 8d 85 7c f3 ff ff 	lea    -0xc84(%rbp),%rax
    9553:	48 89 85 b8 f6 ff ff 	mov    %rax,-0x948(%rbp)
    955a:	48 8d 85 7c f3 ff ff 	lea    -0xc84(%rbp),%rax
    9561:	48 89 85 c0 f6 ff ff 	mov    %rax,-0x940(%rbp)
    9568:	48 8d 85 7c f3 ff ff 	lea    -0xc84(%rbp),%rax
    956f:	48 89 85 c8 f6 ff ff 	mov    %rax,-0x938(%rbp)
    9576:	8b 05 30 b1 00 00    	mov    0xb130(%rip),%eax        # 146ac <g_522>
    957c:	83 e8 01             	sub    $0x1,%eax
    957f:	89 05 27 b1 00 00    	mov    %eax,0xb127(%rip)        # 146ac <g_522>
    9585:	48 8b 85 d0 f3 ff ff 	mov    -0xc30(%rbp),%rax
    958c:	48 83 e8 01          	sub    $0x1,%rax
    9590:	48 89 85 d0 f3 ff ff 	mov    %rax,-0xc30(%rbp)
    9597:	80 85 64 f3 ff ff 01 	addb   $0x1,-0xc9c(%rbp)
    959e:	80 bd 64 f3 ff ff 02 	cmpb   $0x2,-0xc9c(%rbp)
    95a5:	76 97                	jbe    953e <func_31+0xef7>
    95a7:	c7 05 fb b0 00 00 00 	movl   $0x0,0xb0fb(%rip)        # 146ac <g_522>
    95ae:	00 00 00 
    95b1:	90                   	nop
    95b2:	8b 05 f4 b0 00 00    	mov    0xb0f4(%rip),%eax        # 146ac <g_522>
    95b8:	83 f8 02             	cmp    $0x2,%eax
    95bb:	0f 87 c1 01 00 00    	ja     9782 <func_31+0x113b>
    95c1:	48 8d 85 d0 f3 ff ff 	lea    -0xc30(%rbp),%rax
    95c8:	48 89 85 b8 f4 ff ff 	mov    %rax,-0xb48(%rbp)
    95cf:	48 8d 05 ca ab 00 00 	lea    0xabca(%rip),%rax        # 141a0 <g_118+0x120>
    95d6:	48 89 85 c0 f4 ff ff 	mov    %rax,-0xb40(%rbp)
    95dd:	c7 85 c4 f3 ff ff c2 	movl   $0xd5d5dc2,-0xc3c(%rbp)
    95e4:	5d 5d 0d 
    95e7:	0f b7 85 7a f3 ff ff 	movzwl -0xc86(%rbp),%eax
    95ee:	66 25 00 fc          	and    $0xfc00,%ax
    95f2:	83 c8 0c             	or     $0xc,%eax
    95f5:	66 89 85 7a f3 ff ff 	mov    %ax,-0xc86(%rbp)
    95fc:	48 8d 85 b0 f6 ff ff 	lea    -0x950(%rbp),%rax
    9603:	48 8d 15 f6 62 00 00 	lea    0x62f6(%rip),%rdx        # f900 <g_2179+0x834>
    960a:	b9 3c 00 00 00       	mov    $0x3c,%ecx
    960f:	48 89 c7             	mov    %rax,%rdi
    9612:	48 89 d6             	mov    %rdx,%rsi
    9615:	f3 48 a5             	rep movsq %ds:(%rsi),%es:(%rdi)
    9618:	48 89 f2             	mov    %rsi,%rdx
    961b:	48 89 f8             	mov    %rdi,%rax
    961e:	0f b7 0a             	movzwl (%rdx),%ecx
    9621:	66 89 08             	mov    %cx,(%rax)
    9624:	48 8d 40 02          	lea    0x2(%rax),%rax
    9628:	48 8d 52 02          	lea    0x2(%rdx),%rdx
    962c:	0f b6 0a             	movzbl (%rdx),%ecx
    962f:	88 08                	mov    %cl,(%rax)
    9631:	48 8d 40 01          	lea    0x1(%rax),%rax
    9635:	48 8d 52 01          	lea    0x1(%rdx),%rdx
    9639:	48 8d 05 44 ac 00 00 	lea    0xac44(%rip),%rax        # 14284 <g_120+0x64>
    9640:	48 89 85 c8 f4 ff ff 	mov    %rax,-0xb38(%rbp)
    9647:	0f b7 05 68 ad 00 00 	movzwl 0xad68(%rip),%eax        # 143b6 <g_332>
    964e:	0f b7 c0             	movzwl %ax,%eax
    9651:	48 98                	cltq   
    9653:	48 8d 14 85 00 00 00 	lea    0x0(,%rax,4),%rdx
    965a:	00 
    965b:	48 8d 05 86 ac 00 00 	lea    0xac86(%rip),%rax        # 142e8 <g_141>
    9662:	8b 04 02             	mov    (%rdx,%rax,1),%eax
    9665:	0f be d8             	movsbl %al,%ebx
    9668:	8b 05 3e b0 00 00    	mov    0xb03e(%rip),%eax        # 146ac <g_522>
    966e:	89 c0                	mov    %eax,%eax
    9670:	48 8d 14 85 00 00 00 	lea    0x0(,%rax,4),%rdx
    9677:	00 
    9678:	48 8d 05 69 ac 00 00 	lea    0xac69(%rip),%rax        # 142e8 <g_141>
    967f:	8b 04 02             	mov    (%rdx,%rax,1),%eax
    9682:	89 c7                	mov    %eax,%edi
    9684:	e8 1d c8 ff ff       	callq  5ea6 <safe_unary_minus_func_uint32_t_u>
    9689:	0f be c0             	movsbl %al,%eax
    968c:	89 de                	mov    %ebx,%esi
    968e:	89 c7                	mov    %eax,%edi
    9690:	e8 7d bb ff ff       	callq  5212 <safe_mul_func_int8_t_s_s>
    9695:	48 83 bd e8 f3 ff ff 	cmpq   $0x0,-0xc18(%rbp)
    969c:	00 
    969d:	48 8b 85 b8 f4 ff ff 	mov    -0xb48(%rbp),%rax
    96a4:	48 8b 10             	mov    (%rax),%rdx
    96a7:	48 8b 85 d0 f5 ff ff 	mov    -0xa30(%rbp),%rax
    96ae:	48 85 c0             	test   %rax,%rax
    96b1:	0f 95 c0             	setne  %al
    96b4:	0f b6 c0             	movzbl %al,%eax
    96b7:	48 09 c2             	or     %rax,%rdx
    96ba:	48 8b 85 b8 f4 ff ff 	mov    -0xb48(%rbp),%rax
    96c1:	48 89 10             	mov    %rdx,(%rax)
    96c4:	48 8b 85 b8 f4 ff ff 	mov    -0xb48(%rbp),%rax
    96cb:	48 8b 00             	mov    (%rax),%rax
    96ce:	48 89 c2             	mov    %rax,%rdx
    96d1:	0f b6 85 75 f3 ff ff 	movzbl -0xc8b(%rbp),%eax
    96d8:	48 89 d6             	mov    %rdx,%rsi
    96db:	48 89 c7             	mov    %rax,%rdi
    96de:	e8 14 c3 ff ff       	callq  59f7 <safe_div_func_int64_t_s_s>
    96e3:	48 3d d6 00 00 00    	cmp    $0xd6,%rax
    96e9:	0f 9f c0             	setg   %al
    96ec:	0f b6 d0             	movzbl %al,%edx
    96ef:	48 8b 85 c0 f4 ff ff 	mov    -0xb40(%rbp),%rax
    96f6:	48 89 10             	mov    %rdx,(%rax)
    96f9:	48 8b 85 c0 f4 ff ff 	mov    -0xb40(%rbp),%rax
    9700:	48 8b 00             	mov    (%rax),%rax
    9703:	48 89 c2             	mov    %rax,%rdx
    9706:	48 8b 85 68 f3 ff ff 	mov    -0xc98(%rbp),%rax
    970d:	48 89 d6             	mov    %rdx,%rsi
    9710:	48 89 c7             	mov    %rax,%rdi
    9713:	e8 16 c9 ff ff       	callq  602e <safe_add_func_uint64_t_u_u>
    9718:	be 02 00 00 00       	mov    $0x2,%esi
    971d:	bf 01 00 00 00       	mov    $0x1,%edi
    9722:	e8 ac bc ff ff       	callq  53d3 <safe_sub_func_int16_t_s_s>
    9727:	c7 85 a0 f3 ff ff 00 	movl   $0x0,-0xc60(%rbp)
    972e:	00 00 00 
    9731:	eb 1e                	jmp    9751 <func_31+0x110a>
    9733:	8b 85 a0 f3 ff ff    	mov    -0xc60(%rbp),%eax
    9739:	48 98                	cltq   
    973b:	48 8d 15 6a ab 00 00 	lea    0xab6a(%rip),%rdx        # 142ac <g_120+0x8c>
    9742:	48 89 94 c5 d8 f4 ff 	mov    %rdx,-0xb28(%rbp,%rax,8)
    9749:	ff 
    974a:	83 85 a0 f3 ff ff 01 	addl   $0x1,-0xc60(%rbp)
    9751:	83 bd a0 f3 ff ff 00 	cmpl   $0x0,-0xc60(%rbp)
    9758:	7e d9                	jle    9733 <func_31+0x10ec>
    975a:	48 83 bd 68 f3 ff ff 	cmpq   $0x1,-0xc98(%rbp)
    9761:	01 
    9762:	0f 95 c0             	setne  %al
    9765:	0f b6 d0             	movzbl %al,%edx
    9768:	8b 05 82 ab 00 00    	mov    0xab82(%rip),%eax        # 142f0 <g_141+0x8>
    976e:	09 d0                	or     %edx,%eax
    9770:	31 85 c4 f3 ff ff    	xor    %eax,-0xc3c(%rbp)
    9776:	0f b7 85 7a f3 ff ff 	movzwl -0xc86(%rbp),%eax
    977d:	e9 05 02 00 00       	jmpq   9987 <func_31+0x1340>
    9782:	48 8b 05 5f ba 00 00 	mov    0xba5f(%rip),%rax        # 151e8 <g_513>
    9789:	48 c7 00 00 00 00 00 	movq   $0x0,(%rax)
    9790:	0f b7 05 1f ac 00 00 	movzwl 0xac1f(%rip),%eax        # 143b6 <g_332>
    9797:	83 c0 01             	add    $0x1,%eax
    979a:	66 89 05 15 ac 00 00 	mov    %ax,0xac15(%rip)        # 143b6 <g_332>
    97a1:	0f b7 05 0e ac 00 00 	movzwl 0xac0e(%rip),%eax        # 143b6 <g_332>
    97a8:	66 83 f8 02          	cmp    $0x2,%ax
    97ac:	0f 86 53 fd ff ff    	jbe    9505 <func_31+0xebe>
    97b2:	8b 85 80 f3 ff ff    	mov    -0xc80(%rbp),%eax
    97b8:	83 c0 01             	add    $0x1,%eax
    97bb:	89 85 80 f3 ff ff    	mov    %eax,-0xc80(%rbp)
    97c1:	8b 85 80 f3 ff ff    	mov    -0xc80(%rbp),%eax
    97c7:	83 f8 02             	cmp    $0x2,%eax
    97ca:	0f 8e fb fa ff ff    	jle    92cb <func_31+0xc84>
    97d0:	0f b7 85 ea f4 ff ff 	movzwl -0xb16(%rbp),%eax
    97d7:	83 e8 01             	sub    $0x1,%eax
    97da:	66 89 85 ea f4 ff ff 	mov    %ax,-0xb16(%rbp)
    97e1:	0f b6 85 71 f3 ff ff 	movzbl -0xc8f(%rbp),%eax
    97e8:	83 c0 01             	add    $0x1,%eax
    97eb:	88 85 71 f3 ff ff    	mov    %al,-0xc8f(%rbp)
    97f1:	80 bd 71 f3 ff ff 2a 	cmpb   $0x2a,-0xc8f(%rbp)
    97f8:	0f 86 f6 f8 ff ff    	jbe    90f4 <func_31+0xaad>
    97fe:	48 8b 85 68 f3 ff ff 	mov    -0xc98(%rbp),%rax
    9805:	41 89 c5             	mov    %eax,%r13d
    9808:	8b 9d 84 f3 ff ff    	mov    -0xc7c(%rbp),%ebx
    980e:	48 8b 05 23 ab 00 00 	mov    0xab23(%rip),%rax        # 14338 <g_142+0x38>
    9815:	48 c1 e8 10          	shr    $0x10,%rax
    9819:	25 ff ff ff 0f       	and    $0xfffffff,%eax
    981e:	89 c0                	mov    %eax,%eax
    9820:	48 c7 c6 f7 ff ff ff 	mov    $0xfffffffffffffff7,%rsi
    9827:	48 89 c7             	mov    %rax,%rdi
    982a:	e8 c8 c1 ff ff       	callq  59f7 <safe_div_func_int64_t_s_s>
    982f:	0f b6 85 64 f3 ff ff 	movzbl -0xc9c(%rbp),%eax
    9836:	44 0f be e0          	movsbl %al,%r12d
    983a:	8b 85 7c f3 ff ff    	mov    -0xc84(%rbp),%eax
    9840:	35 9d e2 00 00       	xor    $0xe29d,%eax
    9845:	89 85 7c f3 ff ff    	mov    %eax,-0xc84(%rbp)
    984b:	0f b6 85 64 f3 ff ff 	movzbl -0xc9c(%rbp),%eax
    9852:	89 c6                	mov    %eax,%esi
    9854:	bf 00 00 00 00       	mov    $0x0,%edi
    9859:	e8 a8 c5 ff ff       	callq  5e06 <safe_lshift_func_uint16_t_u_u>
    985e:	be 87 d0 05 49       	mov    $0x4905d087,%esi
    9863:	bf c9 00 07 f4       	mov    $0xf40700c9,%edi
    9868:	e8 b8 c6 ff ff       	callq  5f25 <safe_div_func_uint32_t_u_u>
    986d:	85 c0                	test   %eax,%eax
    986f:	75 07                	jne    9878 <func_31+0x1231>
    9871:	80 bd 64 f3 ff ff 00 	cmpb   $0x0,-0xc9c(%rbp)
    9878:	48 83 bd 68 f3 ff ff 	cmpq   $0x0,-0xc98(%rbp)
    987f:	00 
    9880:	74 11                	je     9893 <func_31+0x124c>
    9882:	48 83 bd 68 f3 ff ff 	cmpq   $0x0,-0xc98(%rbp)
    9889:	00 
    988a:	74 07                	je     9893 <func_31+0x124c>
    988c:	b8 01 00 00 00       	mov    $0x1,%eax
    9891:	eb 05                	jmp    9898 <func_31+0x1251>
    9893:	b8 00 00 00 00       	mov    $0x0,%eax
    9898:	0f be c0             	movsbl %al,%eax
    989b:	44 89 e6             	mov    %r12d,%esi
    989e:	89 c7                	mov    %eax,%edi
    98a0:	e8 c5 b9 ff ff       	callq  526a <safe_div_func_int8_t_s_s>
    98a5:	44 0f b6 e0          	movzbl %al,%r12d
    98a9:	0f b6 95 64 f3 ff ff 	movzbl -0xc9c(%rbp),%edx
    98b0:	0f b6 05 cf aa 00 00 	movzbl 0xaacf(%rip),%eax        # 14386 <g_189>
    98b7:	66 0f be c8          	movsbw %al,%cx
    98bb:	48 8b 85 d8 f3 ff ff 	mov    -0xc28(%rbp),%rax
    98c2:	66 89 08             	mov    %cx,(%rax)
    98c5:	48 8b 85 d8 f3 ff ff 	mov    -0xc28(%rbp),%rax
    98cc:	0f b7 00             	movzwl (%rax),%eax
    98cf:	0f b7 c0             	movzwl %ax,%eax
    98d2:	89 d6                	mov    %edx,%esi
    98d4:	89 c7                	mov    %eax,%edi
    98d6:	e8 b3 c4 ff ff       	callq  5d8e <safe_div_func_uint16_t_u_u>
    98db:	0f b6 c0             	movzbl %al,%eax
    98de:	44 89 e6             	mov    %r12d,%esi
    98e1:	89 c7                	mov    %eax,%edi
    98e3:	e8 ab c2 ff ff       	callq  5b93 <safe_mul_func_uint8_t_u_u>
    98e8:	84 c0                	test   %al,%al
    98ea:	75 12                	jne    98fe <func_31+0x12b7>
    98ec:	48 8b 05 85 aa 00 00 	mov    0xaa85(%rip),%rax        # 14378 <g_152+0x8>
    98f3:	48 c1 e8 11          	shr    $0x11,%rax
    98f7:	83 e0 7f             	and    $0x7f,%eax
    98fa:	84 c0                	test   %al,%al
    98fc:	74 07                	je     9905 <func_31+0x12be>
    98fe:	b8 01 00 00 00       	mov    $0x1,%eax
    9903:	eb 05                	jmp    990a <func_31+0x12c3>
    9905:	b8 00 00 00 00       	mov    $0x0,%eax
    990a:	85 c0                	test   %eax,%eax
    990c:	75 0a                	jne    9918 <func_31+0x12d1>
    990e:	48 83 bd 68 f3 ff ff 	cmpq   $0x0,-0xc98(%rbp)
    9915:	00 
    9916:	74 07                	je     991f <func_31+0x12d8>
    9918:	b8 01 00 00 00       	mov    $0x1,%eax
    991d:	eb 05                	jmp    9924 <func_31+0x12dd>
    991f:	b8 00 00 00 00       	mov    $0x0,%eax
    9924:	0f b7 c0             	movzwl %ax,%eax
    9927:	89 de                	mov    %ebx,%esi
    9929:	89 c7                	mov    %eax,%edi
    992b:	e8 4a c5 ff ff       	callq  5e7a <safe_rshift_func_uint16_t_u_u>
    9930:	0f b7 c0             	movzwl %ax,%eax
    9933:	44 89 ee             	mov    %r13d,%esi
    9936:	89 c7                	mov    %eax,%edi
    9938:	e8 3d c5 ff ff       	callq  5e7a <safe_rshift_func_uint16_t_u_u>
    993d:	98                   	cwtl   
    993e:	89 c7                	mov    %eax,%edi
    9940:	e8 58 ba ff ff       	callq  539d <safe_unary_minus_func_int16_t_s>
    9945:	8b 85 28 fb ff ff    	mov    -0x4d8(%rbp),%eax
    994b:	0f b6 c0             	movzbl %al,%eax
    994e:	be 08 00 00 00       	mov    $0x8,%esi
    9953:	89 c7                	mov    %eax,%edi
    9955:	e8 33 c3 ff ff       	callq  5c8d <safe_rshift_func_uint8_t_u_s>
    995a:	0f b7 85 d4 f4 ff ff 	movzwl -0xb2c(%rbp),%eax
    9961:	20 85 73 f3 ff ff    	and    %al,-0xc8d(%rbp)
    9967:	b9 00 00 00 00       	mov    $0x0,%ecx
    996c:	48 8b 05 95 be 00 00 	mov    0xbe95(%rip),%rax        # 15808 <g_590>
    9973:	8b 10                	mov    (%rax),%edx
    9975:	48 8b 05 8c be 00 00 	mov    0xbe8c(%rip),%rax        # 15808 <g_590>
    997c:	31 ca                	xor    %ecx,%edx
    997e:	89 10                	mov    %edx,(%rax)
    9980:	0f b7 05 be a9 00 00 	movzwl 0xa9be(%rip),%eax        # 14345 <g_143>
    9987:	48 8b 5d d8          	mov    -0x28(%rbp),%rbx
    998b:	64 48 33 1c 25 28 00 	xor    %fs:0x28,%rbx
    9992:	00 00 
    9994:	74 05                	je     999b <func_31+0x1354>
    9996:	e8 d5 b6 ff ff       	callq  5070 <__stack_chk_fail@plt>
    999b:	48 81 c4 80 0c 00 00 	add    $0xc80,%rsp
    99a2:	5b                   	pop    %rbx
    99a3:	41 5c                	pop    %r12
    99a5:	41 5d                	pop    %r13
    99a7:	41 5e                	pop    %r14
    99a9:	5d                   	pop    %rbp
    99aa:	c3                   	retq   

00000000000099ab <func_36>:
    99ab:	f3 0f 1e fa          	endbr64 
    99af:	55                   	push   %rbp
    99b0:	48 89 e5             	mov    %rsp,%rbp
    99b3:	48 89 7d f8          	mov    %rdi,-0x8(%rbp)
    99b7:	89 f0                	mov    %esi,%eax
    99b9:	48 89 4d e8          	mov    %rcx,-0x18(%rbp)
    99bd:	44 89 c1             	mov    %r8d,%ecx
    99c0:	66 89 45 f4          	mov    %ax,-0xc(%rbp)
    99c4:	89 d0                	mov    %edx,%eax
    99c6:	88 45 f0             	mov    %al,-0x10(%rbp)
    99c9:	89 c8                	mov    %ecx,%eax
    99cb:	88 45 e4             	mov    %al,-0x1c(%rbp)
    99ce:	48 8b 05 6b a9 00 00 	mov    0xa96b(%rip),%rax        # 14340 <g_142+0x40>
    99d5:	48 c1 e0 1f          	shl    $0x1f,%rax
    99d9:	48 c1 f8 3e          	sar    $0x3e,%rax
    99dd:	0f be c0             	movsbl %al,%eax
    99e0:	5d                   	pop    %rbp
    99e1:	c3                   	retq   

00000000000099e2 <func_49>:
    99e2:	f3 0f 1e fa          	endbr64 
    99e6:	55                   	push   %rbp
    99e7:	48 89 e5             	mov    %rsp,%rbp
    99ea:	41 57                	push   %r15
    99ec:	41 56                	push   %r14
    99ee:	41 55                	push   %r13
    99f0:	41 54                	push   %r12
    99f2:	53                   	push   %rbx
    99f3:	48 81 ec 18 09 00 00 	sub    $0x918,%rsp
    99fa:	89 bd dc f6 ff ff    	mov    %edi,-0x924(%rbp)
    9a00:	66 89 b5 da f6 ff ff 	mov    %si,-0x926(%rbp)
    9a07:	89 95 d4 f6 ff ff    	mov    %edx,-0x92c(%rbp)
    9a0d:	89 8d d0 f6 ff ff    	mov    %ecx,-0x930(%rbp)
    9a13:	64 48 8b 04 25 28 00 	mov    %fs:0x28,%rax
    9a1a:	00 00 
    9a1c:	48 89 45 c8          	mov    %rax,-0x38(%rbp)
    9a20:	31 c0                	xor    %eax,%eax
    9a22:	c7 85 00 f7 ff ff 48 	movl   $0xff6f9448,-0x900(%rbp)
    9a29:	94 6f ff 
    9a2c:	48 8d 05 15 d0 00 00 	lea    0xd015(%rip),%rax        # 16a48 <g_138>
    9a33:	48 89 85 c8 f7 ff ff 	mov    %rax,-0x838(%rbp)
    9a3a:	c7 85 04 f7 ff ff 02 	movl   $0x2,-0x8fc(%rbp)
    9a41:	00 00 00 
    9a44:	c7 85 08 f7 ff ff 03 	movl   $0x3,-0x8f8(%rbp)
    9a4b:	00 00 00 
    9a4e:	c7 85 0c f7 ff ff f0 	movl   $0x44f759f0,-0x8f4(%rbp)
    9a55:	59 f7 44 
    9a58:	48 8d 85 40 fb ff ff 	lea    -0x4c0(%rbp),%rax
    9a5f:	48 8d 15 7a b1 00 00 	lea    0xb17a(%rip),%rdx        # 14be0 <g_2154+0x4>
    9a66:	b9 90 00 00 00       	mov    $0x90,%ecx
    9a6b:	48 89 c7             	mov    %rax,%rdi
    9a6e:	48 89 d6             	mov    %rdx,%rsi
    9a71:	f3 48 a5             	rep movsq %ds:(%rsi),%es:(%rdi)
    9a74:	c7 85 44 f7 ff ff 56 	movl   $0x8b0f7556,-0x8bc(%rbp)
    9a7b:	75 0f 8b 
    9a7e:	48 8d 05 63 a8 00 00 	lea    0xa863(%rip),%rax        # 142e8 <g_141>
    9a85:	48 89 85 d0 f7 ff ff 	mov    %rax,-0x830(%rbp)
    9a8c:	c7 85 48 f7 ff ff 01 	movl   $0x1,-0x8b8(%rbp)
    9a93:	00 00 00 
    9a96:	66 c7 85 f2 f6 ff ff 	movw   $0xfff7,-0x90e(%rbp)
    9a9d:	f7 ff 
    9a9f:	c7 85 10 f7 ff ff 00 	movl   $0x0,-0x8f0(%rbp)
    9aa6:	00 00 00 
    9aa9:	eb 1a                	jmp    9ac5 <func_49+0xe3>
    9aab:	8b 85 10 f7 ff ff    	mov    -0x8f0(%rbp),%eax
    9ab1:	48 98                	cltq   
    9ab3:	c7 84 85 bc f8 ff ff 	movl   $0x1,-0x744(%rbp,%rax,4)
    9aba:	01 00 00 00 
    9abe:	83 85 10 f7 ff ff 01 	addl   $0x1,-0x8f0(%rbp)
    9ac5:	83 bd 10 f7 ff ff 00 	cmpl   $0x0,-0x8f0(%rbp)
    9acc:	7e dd                	jle    9aab <func_49+0xc9>
    9ace:	c7 45 18 00 00 00 00 	movl   $0x0,0x18(%rbp)
    9ad5:	e9 e5 20 00 00       	jmpq   bbbf <func_49+0x21dd>
    9ada:	48 8d 05 67 cf 00 00 	lea    0xcf67(%rip),%rax        # 16a48 <g_138>
    9ae1:	48 89 85 a0 f7 ff ff 	mov    %rax,-0x860(%rbp)
    9ae8:	48 8d 85 a0 f7 ff ff 	lea    -0x860(%rbp),%rax
    9aef:	48 89 85 d8 f7 ff ff 	mov    %rax,-0x828(%rbp)
    9af6:	0f b7 85 fe f6 ff ff 	movzwl -0x902(%rbp),%eax
    9afd:	66 25 00 fc          	and    $0xfc00,%ax
    9b01:	83 c8 01             	or     $0x1,%eax
    9b04:	66 89 85 fe f6 ff ff 	mov    %ax,-0x902(%rbp)
    9b0b:	48 8d 05 a6 a8 00 00 	lea    0xa8a6(%rip),%rax        # 143b8 <g_353>
    9b12:	48 89 85 a8 f7 ff ff 	mov    %rax,-0x858(%rbp)
    9b19:	48 8d 85 a8 f7 ff ff 	lea    -0x858(%rbp),%rax
    9b20:	48 89 85 e0 f7 ff ff 	mov    %rax,-0x820(%rbp)
    9b27:	c7 85 14 f7 ff ff 00 	movl   $0x0,-0x8ec(%rbp)
    9b2e:	00 00 00 
    9b31:	eb 1e                	jmp    9b51 <func_49+0x16f>
    9b33:	8b 85 14 f7 ff ff    	mov    -0x8ec(%rbp),%eax
    9b39:	48 98                	cltq   
    9b3b:	48 8d 15 2e a7 00 00 	lea    0xa72e(%rip),%rdx        # 14270 <g_120+0x50>
    9b42:	48 89 94 c5 c0 f8 ff 	mov    %rdx,-0x740(%rbp,%rax,8)
    9b49:	ff 
    9b4a:	83 85 14 f7 ff ff 01 	addl   $0x1,-0x8ec(%rbp)
    9b51:	83 bd 14 f7 ff ff 00 	cmpl   $0x0,-0x8ec(%rbp)
    9b58:	7e d9                	jle    9b33 <func_49+0x151>
    9b5a:	8b 15 10 a7 00 00    	mov    0xa710(%rip),%edx        # 14270 <g_120+0x50>
    9b60:	8b 05 8a a7 00 00    	mov    0xa78a(%rip),%eax        # 142f0 <g_141+0x8>
    9b66:	31 d0                	xor    %edx,%eax
    9b68:	89 05 02 a7 00 00    	mov    %eax,0xa702(%rip)        # 14270 <g_120+0x50>
    9b6e:	48 8b 05 2b a6 00 00 	mov    0xa62b(%rip),%rax        # 141a0 <g_118+0x120>
    9b75:	48 85 c0             	test   %rax,%rax
    9b78:	0f 85 2e 20 00 00    	jne    bbac <func_49+0x21ca>
    9b7e:	c7 05 9c a4 00 00 00 	movl   $0x0,0xa49c(%rip)        # 14024 <g_74>
    9b85:	00 00 00 
    9b88:	eb 59                	jmp    9be3 <func_49+0x201>
    9b8a:	c6 85 f1 f6 ff ff f8 	movb   $0xf8,-0x90f(%rbp)
    9b91:	80 ad f1 f6 ff ff 01 	subb   $0x1,-0x90f(%rbp)
    9b98:	8b 15 86 a4 00 00    	mov    0xa486(%rip),%edx        # 14024 <g_74>
    9b9e:	8b 05 80 a4 00 00    	mov    0xa480(%rip),%eax        # 14024 <g_74>
    9ba4:	83 c0 02             	add    $0x2,%eax
    9ba7:	89 c1                	mov    %eax,%ecx
    9ba9:	89 d2                	mov    %edx,%edx
    9bab:	48 89 d0             	mov    %rdx,%rax
    9bae:	48 c1 e0 02          	shl    $0x2,%rax
    9bb2:	48 01 d0             	add    %rdx,%rax
    9bb5:	48 01 c0             	add    %rax,%rax
    9bb8:	48 01 c8             	add    %rcx,%rax
    9bbb:	48 8d 14 c5 00 00 00 	lea    0x0(,%rax,8),%rdx
    9bc2:	00 
    9bc3:	48 8d 05 b6 a4 00 00 	lea    0xa4b6(%rip),%rax        # 14080 <g_118>
    9bca:	48 8b 04 02          	mov    (%rdx,%rax,1),%rax
    9bce:	89 85 00 f7 ff ff    	mov    %eax,-0x900(%rbp)
    9bd4:	8b 05 4a a4 00 00    	mov    0xa44a(%rip),%eax        # 14024 <g_74>
    9bda:	83 c0 01             	add    $0x1,%eax
    9bdd:	89 05 41 a4 00 00    	mov    %eax,0xa441(%rip)        # 14024 <g_74>
    9be3:	8b 05 3b a4 00 00    	mov    0xa43b(%rip),%eax        # 14024 <g_74>
    9be9:	83 f8 04             	cmp    $0x4,%eax
    9bec:	76 9c                	jbe    9b8a <func_49+0x1a8>
    9bee:	48 8b 85 d8 f7 ff ff 	mov    -0x828(%rbp),%rax
    9bf5:	48 8b 95 c8 f7 ff ff 	mov    -0x838(%rbp),%rdx
    9bfc:	48 89 10             	mov    %rdx,(%rax)
    9bff:	48 8b 85 d8 f7 ff ff 	mov    -0x828(%rbp),%rax
    9c06:	48 8b 00             	mov    (%rax),%rax
    9c09:	48 39 85 c8 f7 ff ff 	cmp    %rax,-0x838(%rbp)
    9c10:	0f 95 c0             	setne  %al
    9c13:	0f b6 c0             	movzbl %al,%eax
    9c16:	c1 e0 03             	shl    $0x3,%eax
    9c19:	c1 f8 03             	sar    $0x3,%eax
    9c1c:	89 c0                	mov    %eax,%eax
    9c1e:	25 ff ff ff 1f       	and    $0x1fffffff,%eax
    9c23:	48 c1 e0 1c          	shl    $0x1c,%rax
    9c27:	48 89 c2             	mov    %rax,%rdx
    9c2a:	48 8b 45 10          	mov    0x10(%rbp),%rax
    9c2e:	48 b9 ff ff ff 0f 00 	movabs $0xfe0000000fffffff,%rcx
    9c35:	00 00 fe 
    9c38:	48 21 c8             	and    %rcx,%rax
    9c3b:	48 09 d0             	or     %rdx,%rax
    9c3e:	48 89 45 10          	mov    %rax,0x10(%rbp)
    9c42:	48 8b 45 10          	mov    0x10(%rbp),%rax
    9c46:	48 c1 e0 07          	shl    $0x7,%rax
    9c4a:	48 c1 f8 23          	sar    $0x23,%rax
    9c4e:	c1 e0 04             	shl    $0x4,%eax
    9c51:	c1 f8 04             	sar    $0x4,%eax
    9c54:	25 ff ff ff 0f       	and    $0xfffffff,%eax
    9c59:	89 c2                	mov    %eax,%edx
    9c5b:	8b 45 10             	mov    0x10(%rbp),%eax
    9c5e:	25 00 00 00 f0       	and    $0xf0000000,%eax
    9c63:	09 d0                	or     %edx,%eax
    9c65:	89 45 10             	mov    %eax,0x10(%rbp)
    9c68:	8b 45 10             	mov    0x10(%rbp),%eax
    9c6b:	c1 e0 04             	shl    $0x4,%eax
    9c6e:	c1 f8 04             	sar    $0x4,%eax
    9c71:	85 c0                	test   %eax,%eax
    9c73:	0f 84 8f 11 00 00    	je     ae08 <func_49+0x1426>
    9c79:	48 b8 0a 24 b3 5d 00 	movabs $0x8f1d9c005db3240a,%rax
    9c80:	9c 1d 8f 
    9c83:	48 89 85 c0 f7 ff ff 	mov    %rax,-0x840(%rbp)
    9c8a:	48 8d 05 f5 a6 00 00 	lea    0xa6f5(%rip),%rax        # 14386 <g_189>
    9c91:	48 89 85 40 f8 ff ff 	mov    %rax,-0x7c0(%rbp)
    9c98:	c6 85 ef f6 ff ff 00 	movb   $0x0,-0x911(%rbp)
    9c9f:	48 8d 05 e1 a6 00 00 	lea    0xa6e1(%rip),%rax        # 14387 <g_217>
    9ca6:	48 89 85 b0 f7 ff ff 	mov    %rax,-0x850(%rbp)
    9cad:	48 8d 85 b0 f7 ff ff 	lea    -0x850(%rbp),%rax
    9cb4:	48 89 85 48 f8 ff ff 	mov    %rax,-0x7b8(%rbp)
    9cbb:	48 8d 05 8e cd 00 00 	lea    0xcd8e(%rip),%rax        # 16a50 <g_253>
    9cc2:	48 89 85 50 f8 ff ff 	mov    %rax,-0x7b0(%rbp)
    9cc9:	c7 85 10 f9 ff ff 13 	movl   $0x47575213,-0x6f0(%rbp)
    9cd0:	52 57 47 
    9cd3:	c7 85 14 f9 ff ff ff 	movl   $0xffffffff,-0x6ec(%rbp)
    9cda:	ff ff ff 
    9cdd:	c7 85 18 f9 ff ff fe 	movl   $0xfffffffe,-0x6e8(%rbp)
    9ce4:	ff ff ff 
    9ce7:	c7 85 1c f9 ff ff ff 	movl   $0xffffffff,-0x6e4(%rbp)
    9cee:	ff ff ff 
    9cf1:	c7 85 20 f9 ff ff fe 	movl   $0xfffffffe,-0x6e0(%rbp)
    9cf8:	ff ff ff 
    9cfb:	c7 85 24 f9 ff ff ff 	movl   $0xffffffff,-0x6dc(%rbp)
    9d02:	ff ff ff 
    9d05:	c7 85 28 f9 ff ff 13 	movl   $0x47575213,-0x6d8(%rbp)
    9d0c:	52 57 47 
    9d0f:	c7 85 2c f9 ff ff 81 	movl   $0x86d45781,-0x6d4(%rbp)
    9d16:	57 d4 86 
    9d19:	c7 85 30 f9 ff ff 74 	movl   $0xe22f3474,-0x6d0(%rbp)
    9d20:	34 2f e2 
    9d23:	c7 85 34 f9 ff ff ff 	movl   $0xffffffff,-0x6cc(%rbp)
    9d2a:	ff ff ff 
    9d2d:	c7 85 38 f9 ff ff 6d 	movl   $0xa44a9b6d,-0x6c8(%rbp)
    9d34:	9b 4a a4 
    9d37:	c7 85 3c f9 ff ff 07 	movl   $0x7,-0x6c4(%rbp)
    9d3e:	00 00 00 
    9d41:	c7 85 40 f9 ff ff 01 	movl   $0x1,-0x6c0(%rbp)
    9d48:	00 00 00 
    9d4b:	c7 85 44 f9 ff ff ff 	movl   $0xffffffff,-0x6bc(%rbp)
    9d52:	ff ff ff 
    9d55:	c7 85 48 f9 ff ff f9 	movl   $0xfffffff9,-0x6b8(%rbp)
    9d5c:	ff ff ff 
    9d5f:	c7 85 4c f9 ff ff ff 	movl   $0xffffffff,-0x6b4(%rbp)
    9d66:	ff ff ff 
    9d69:	c7 85 50 f9 ff ff 01 	movl   $0x1,-0x6b0(%rbp)
    9d70:	00 00 00 
    9d73:	c7 85 54 f9 ff ff ff 	movl   $0xffffffff,-0x6ac(%rbp)
    9d7a:	ff ff ff 
    9d7d:	c7 85 58 f9 ff ff f9 	movl   $0xfffffff9,-0x6a8(%rbp)
    9d84:	ff ff ff 
    9d87:	c7 85 5c f9 ff ff ff 	movl   $0xffffffff,-0x6a4(%rbp)
    9d8e:	ff ff ff 
    9d91:	c7 85 60 f9 ff ff 01 	movl   $0x1,-0x6a0(%rbp)
    9d98:	00 00 00 
    9d9b:	c7 85 64 f9 ff ff 07 	movl   $0x7,-0x69c(%rbp)
    9da2:	00 00 00 
    9da5:	c7 85 68 f9 ff ff 6d 	movl   $0xa44a9b6d,-0x698(%rbp)
    9dac:	9b 4a a4 
    9daf:	c7 85 6c f9 ff ff ff 	movl   $0xffffffff,-0x694(%rbp)
    9db6:	ff ff ff 
    9db9:	c7 85 70 f9 ff ff 74 	movl   $0xe22f3474,-0x690(%rbp)
    9dc0:	34 2f e2 
    9dc3:	c7 85 74 f9 ff ff 81 	movl   $0x86d45781,-0x68c(%rbp)
    9dca:	57 d4 86 
    9dcd:	c7 85 78 f9 ff ff 13 	movl   $0x47575213,-0x688(%rbp)
    9dd4:	52 57 47 
    9dd7:	c7 85 7c f9 ff ff 81 	movl   $0x86d45781,-0x684(%rbp)
    9dde:	57 d4 86 
    9de1:	c7 85 80 f9 ff ff dd 	movl   $0x12feb1dd,-0x680(%rbp)
    9de8:	b1 fe 12 
    9deb:	c7 85 84 f9 ff ff 07 	movl   $0x7,-0x67c(%rbp)
    9df2:	00 00 00 
    9df5:	c7 85 88 f9 ff ff dd 	movl   $0x12feb1dd,-0x678(%rbp)
    9dfc:	b1 fe 12 
    9dff:	c7 85 8c f9 ff ff 81 	movl   $0x86d45781,-0x674(%rbp)
    9e06:	57 d4 86 
    9e09:	c7 85 90 f9 ff ff 01 	movl   $0x1,-0x670(%rbp)
    9e10:	00 00 00 
    9e13:	c7 85 94 f9 ff ff fe 	movl   $0x4aef56fe,-0x66c(%rbp)
    9e1a:	56 ef 4a 
    9e1d:	c7 85 98 f9 ff ff 01 	movl   $0x1,-0x668(%rbp)
    9e24:	00 00 00 
    9e27:	c7 85 9c f9 ff ff f3 	movl   $0x9593f4f3,-0x664(%rbp)
    9e2e:	f4 93 95 
    9e31:	c7 85 a0 f9 ff ff fe 	movl   $0xfffffffe,-0x660(%rbp)
    9e38:	ff ff ff 
    9e3b:	c7 85 a4 f9 ff ff 6b 	movl   $0xe94d726b,-0x65c(%rbp)
    9e42:	72 4d e9 
    9e45:	c7 85 a8 f9 ff ff f9 	movl   $0xfffffff9,-0x658(%rbp)
    9e4c:	ff ff ff 
    9e4f:	c7 85 ac f9 ff ff ff 	movl   $0xffffffff,-0x654(%rbp)
    9e56:	ff ff ff 
    9e59:	c7 85 b0 f9 ff ff dd 	movl   $0x12feb1dd,-0x650(%rbp)
    9e60:	b1 fe 12 
    9e63:	c7 85 b4 f9 ff ff fe 	movl   $0x4aef56fe,-0x64c(%rbp)
    9e6a:	56 ef 4a 
    9e6d:	c7 85 b8 f9 ff ff fe 	movl   $0xfffffffe,-0x648(%rbp)
    9e74:	ff ff ff 
    9e77:	c7 85 bc f9 ff ff 07 	movl   $0x7,-0x644(%rbp)
    9e7e:	00 00 00 
    9e81:	c7 85 c0 f9 ff ff 74 	movl   $0xe22f3474,-0x640(%rbp)
    9e88:	34 2f e2 
    9e8b:	c7 85 c4 f9 ff ff 07 	movl   $0x7,-0x63c(%rbp)
    9e92:	00 00 00 
    9e95:	c7 85 c8 f9 ff ff fe 	movl   $0xfffffffe,-0x638(%rbp)
    9e9c:	ff ff ff 
    9e9f:	c7 85 cc f9 ff ff fe 	movl   $0x4aef56fe,-0x634(%rbp)
    9ea6:	56 ef 4a 
    9ea9:	c7 85 d0 f9 ff ff dd 	movl   $0x12feb1dd,-0x630(%rbp)
    9eb0:	b1 fe 12 
    9eb3:	c7 85 d4 f9 ff ff ff 	movl   $0xffffffff,-0x62c(%rbp)
    9eba:	ff ff ff 
    9ebd:	c7 85 d8 f9 ff ff f9 	movl   $0xfffffff9,-0x628(%rbp)
    9ec4:	ff ff ff 
    9ec7:	c7 85 dc f9 ff ff 6b 	movl   $0xe94d726b,-0x624(%rbp)
    9ece:	72 4d e9 
    9ed1:	c7 85 e0 f9 ff ff fe 	movl   $0xfffffffe,-0x620(%rbp)
    9ed8:	ff ff ff 
    9edb:	c7 85 e4 f9 ff ff f3 	movl   $0x9593f4f3,-0x61c(%rbp)
    9ee2:	f4 93 95 
    9ee5:	c7 85 e8 f9 ff ff 01 	movl   $0x1,-0x618(%rbp)
    9eec:	00 00 00 
    9eef:	c7 85 ec f9 ff ff fe 	movl   $0x4aef56fe,-0x614(%rbp)
    9ef6:	56 ef 4a 
    9ef9:	c7 85 18 f7 ff ff 00 	movl   $0x0,-0x8e8(%rbp)
    9f00:	00 00 00 
    9f03:	eb 21                	jmp    9f26 <func_49+0x544>
    9f05:	8b 85 18 f7 ff ff    	mov    -0x8e8(%rbp),%eax
    9f0b:	48 98                	cltq   
    9f0d:	48 bb f5 17 24 43 22 	movabs $0x458d822432417f5,%rbx
    9f14:	d8 58 04 
    9f17:	48 89 9c c5 d0 f8 ff 	mov    %rbx,-0x730(%rbp,%rax,8)
    9f1e:	ff 
    9f1f:	83 85 18 f7 ff ff 01 	addl   $0x1,-0x8e8(%rbp)
    9f26:	83 bd 18 f7 ff ff 02 	cmpl   $0x2,-0x8e8(%rbp)
    9f2d:	7e d6                	jle    9f05 <func_49+0x523>
    9f2f:	c7 85 d0 f6 ff ff 00 	movl   $0x0,-0x930(%rbp)
    9f36:	00 00 00 
    9f39:	e9 92 0b 00 00       	jmpq   aad0 <func_49+0x10ee>
    9f3e:	c7 85 f0 f8 ff ff e4 	movl   $0x5b6f9ce4,-0x710(%rbp)
    9f45:	9c 6f 5b 
    9f48:	c7 85 f4 f8 ff ff 65 	movl   $0x5e538c65,-0x70c(%rbp)
    9f4f:	8c 53 5e 
    9f52:	c7 85 f8 f8 ff ff e4 	movl   $0x5b6f9ce4,-0x708(%rbp)
    9f59:	9c 6f 5b 
    9f5c:	c7 85 fc f8 ff ff 65 	movl   $0x5e538c65,-0x704(%rbp)
    9f63:	8c 53 5e 
    9f66:	c7 85 00 f9 ff ff e4 	movl   $0x5b6f9ce4,-0x700(%rbp)
    9f6d:	9c 6f 5b 
    9f70:	c7 85 04 f9 ff ff 65 	movl   $0x5e538c65,-0x6fc(%rbp)
    9f77:	8c 53 5e 
    9f7a:	c7 85 08 f9 ff ff e4 	movl   $0x5b6f9ce4,-0x6f8(%rbp)
    9f81:	9c 6f 5b 
    9f84:	c7 85 0c f9 ff ff 65 	movl   $0x5e538c65,-0x6f4(%rbp)
    9f8b:	8c 53 5e 
    9f8e:	c7 85 98 f7 ff ff f8 	movl   $0xfffffff8,-0x868(%rbp)
    9f95:	ff ff ff 
    9f98:	48 8d 05 b5 a0 00 00 	lea    0xa0b5(%rip),%rax        # 14054 <g_115+0x14>
    9f9f:	48 89 85 58 f8 ff ff 	mov    %rax,-0x7a8(%rbp)
    9fa6:	48 8d 05 8b a0 00 00 	lea    0xa08b(%rip),%rax        # 14038 <g_87>
    9fad:	48 89 85 60 f8 ff ff 	mov    %rax,-0x7a0(%rbp)
    9fb4:	48 8d 85 d0 f8 ff ff 	lea    -0x730(%rbp),%rax
    9fbb:	48 89 85 68 f8 ff ff 	mov    %rax,-0x798(%rbp)
    9fc2:	48 8d 05 be a3 00 00 	lea    0xa3be(%rip),%rax        # 14387 <g_217>
    9fc9:	48 89 85 b8 f7 ff ff 	mov    %rax,-0x848(%rbp)
    9fd0:	48 8d 05 b1 a3 00 00 	lea    0xa3b1(%rip),%rax        # 14388 <g_223>
    9fd7:	48 89 85 70 f8 ff ff 	mov    %rax,-0x790(%rbp)
    9fde:	48 8d 05 51 a3 00 00 	lea    0xa351(%rip),%rax        # 14336 <g_142+0x36>
    9fe5:	48 89 85 78 f8 ff ff 	mov    %rax,-0x788(%rbp)
    9fec:	48 8d 85 b8 f7 ff ff 	lea    -0x848(%rbp),%rax
    9ff3:	48 89 85 f0 f9 ff ff 	mov    %rax,-0x610(%rbp)
    9ffa:	48 c7 85 f8 f9 ff ff 	movq   $0x0,-0x608(%rbp)
    a001:	00 00 00 00 
    a005:	48 8d 85 b8 f7 ff ff 	lea    -0x848(%rbp),%rax
    a00c:	48 89 85 00 fa ff ff 	mov    %rax,-0x600(%rbp)
    a013:	48 8d 85 b8 f7 ff ff 	lea    -0x848(%rbp),%rax
    a01a:	48 89 85 08 fa ff ff 	mov    %rax,-0x5f8(%rbp)
    a021:	48 8d 85 b8 f7 ff ff 	lea    -0x848(%rbp),%rax
    a028:	48 89 85 10 fa ff ff 	mov    %rax,-0x5f0(%rbp)
    a02f:	48 8d 85 b8 f7 ff ff 	lea    -0x848(%rbp),%rax
    a036:	48 89 85 18 fa ff ff 	mov    %rax,-0x5e8(%rbp)
    a03d:	48 8d 85 b8 f7 ff ff 	lea    -0x848(%rbp),%rax
    a044:	48 89 85 20 fa ff ff 	mov    %rax,-0x5e0(%rbp)
    a04b:	48 8d 85 b8 f7 ff ff 	lea    -0x848(%rbp),%rax
    a052:	48 89 85 28 fa ff ff 	mov    %rax,-0x5d8(%rbp)
    a059:	48 8d 85 b8 f7 ff ff 	lea    -0x848(%rbp),%rax
    a060:	48 89 85 30 fa ff ff 	mov    %rax,-0x5d0(%rbp)
    a067:	48 c7 85 38 fa ff ff 	movq   $0x0,-0x5c8(%rbp)
    a06e:	00 00 00 00 
    a072:	48 8d 85 b8 f7 ff ff 	lea    -0x848(%rbp),%rax
    a079:	48 89 85 40 fa ff ff 	mov    %rax,-0x5c0(%rbp)
    a080:	48 8d 85 b8 f7 ff ff 	lea    -0x848(%rbp),%rax
    a087:	48 89 85 48 fa ff ff 	mov    %rax,-0x5b8(%rbp)
    a08e:	48 c7 85 50 fa ff ff 	movq   $0x0,-0x5b0(%rbp)
    a095:	00 00 00 00 
    a099:	48 8d 85 b8 f7 ff ff 	lea    -0x848(%rbp),%rax
    a0a0:	48 89 85 58 fa ff ff 	mov    %rax,-0x5a8(%rbp)
    a0a7:	48 8d 85 b8 f7 ff ff 	lea    -0x848(%rbp),%rax
    a0ae:	48 89 85 60 fa ff ff 	mov    %rax,-0x5a0(%rbp)
    a0b5:	48 8d 85 b8 f7 ff ff 	lea    -0x848(%rbp),%rax
    a0bc:	48 89 85 68 fa ff ff 	mov    %rax,-0x598(%rbp)
    a0c3:	48 c7 85 70 fa ff ff 	movq   $0x0,-0x590(%rbp)
    a0ca:	00 00 00 00 
    a0ce:	48 8d 85 b8 f7 ff ff 	lea    -0x848(%rbp),%rax
    a0d5:	48 89 85 78 fa ff ff 	mov    %rax,-0x588(%rbp)
    a0dc:	48 8d 85 b8 f7 ff ff 	lea    -0x848(%rbp),%rax
    a0e3:	48 89 85 80 fa ff ff 	mov    %rax,-0x580(%rbp)
    a0ea:	48 c7 85 88 fa ff ff 	movq   $0x0,-0x578(%rbp)
    a0f1:	00 00 00 00 
    a0f5:	48 8d 85 b8 f7 ff ff 	lea    -0x848(%rbp),%rax
    a0fc:	48 89 85 90 fa ff ff 	mov    %rax,-0x570(%rbp)
    a103:	48 8d 85 b8 f7 ff ff 	lea    -0x848(%rbp),%rax
    a10a:	48 89 85 98 fa ff ff 	mov    %rax,-0x568(%rbp)
    a111:	48 8d 85 b8 f7 ff ff 	lea    -0x848(%rbp),%rax
    a118:	48 89 85 a0 fa ff ff 	mov    %rax,-0x560(%rbp)
    a11f:	48 8d 85 b8 f7 ff ff 	lea    -0x848(%rbp),%rax
    a126:	48 89 85 a8 fa ff ff 	mov    %rax,-0x558(%rbp)
    a12d:	48 8d 85 b8 f7 ff ff 	lea    -0x848(%rbp),%rax
    a134:	48 89 85 b0 fa ff ff 	mov    %rax,-0x550(%rbp)
    a13b:	48 8d 85 b8 f7 ff ff 	lea    -0x848(%rbp),%rax
    a142:	48 89 85 b8 fa ff ff 	mov    %rax,-0x548(%rbp)
    a149:	48 8d 85 b8 f7 ff ff 	lea    -0x848(%rbp),%rax
    a150:	48 89 85 c0 fa ff ff 	mov    %rax,-0x540(%rbp)
    a157:	48 c7 85 c8 fa ff ff 	movq   $0x0,-0x538(%rbp)
    a15e:	00 00 00 00 
    a162:	48 8d 85 b8 f7 ff ff 	lea    -0x848(%rbp),%rax
    a169:	48 89 85 d0 fa ff ff 	mov    %rax,-0x530(%rbp)
    a170:	48 8d 85 b8 f7 ff ff 	lea    -0x848(%rbp),%rax
    a177:	48 89 85 d8 fa ff ff 	mov    %rax,-0x528(%rbp)
    a17e:	48 c7 85 e0 fa ff ff 	movq   $0x0,-0x520(%rbp)
    a185:	00 00 00 00 
    a189:	48 8d 85 b8 f7 ff ff 	lea    -0x848(%rbp),%rax
    a190:	48 89 85 e8 fa ff ff 	mov    %rax,-0x518(%rbp)
    a197:	48 8d 85 b8 f7 ff ff 	lea    -0x848(%rbp),%rax
    a19e:	48 89 85 f0 fa ff ff 	mov    %rax,-0x510(%rbp)
    a1a5:	48 8d 85 b8 f7 ff ff 	lea    -0x848(%rbp),%rax
    a1ac:	48 89 85 f8 fa ff ff 	mov    %rax,-0x508(%rbp)
    a1b3:	48 c7 85 00 fb ff ff 	movq   $0x0,-0x500(%rbp)
    a1ba:	00 00 00 00 
    a1be:	48 8d 85 b8 f7 ff ff 	lea    -0x848(%rbp),%rax
    a1c5:	48 89 85 08 fb ff ff 	mov    %rax,-0x4f8(%rbp)
    a1cc:	48 8d 85 b8 f7 ff ff 	lea    -0x848(%rbp),%rax
    a1d3:	48 89 85 10 fb ff ff 	mov    %rax,-0x4f0(%rbp)
    a1da:	48 c7 85 18 fb ff ff 	movq   $0x0,-0x4e8(%rbp)
    a1e1:	00 00 00 00 
    a1e5:	48 8d 85 b8 f7 ff ff 	lea    -0x848(%rbp),%rax
    a1ec:	48 89 85 20 fb ff ff 	mov    %rax,-0x4e0(%rbp)
    a1f3:	48 8d 85 b8 f7 ff ff 	lea    -0x848(%rbp),%rax
    a1fa:	48 89 85 28 fb ff ff 	mov    %rax,-0x4d8(%rbp)
    a201:	48 8d 85 b8 f7 ff ff 	lea    -0x848(%rbp),%rax
    a208:	48 89 85 30 fb ff ff 	mov    %rax,-0x4d0(%rbp)
    a20f:	48 8d 85 b8 f7 ff ff 	lea    -0x848(%rbp),%rax
    a216:	48 89 85 38 fb ff ff 	mov    %rax,-0x4c8(%rbp)
    a21d:	c7 85 00 f7 ff ff 0f 	movl   $0xf,-0x900(%rbp)
    a224:	00 00 00 
    a227:	e9 a0 03 00 00       	jmpq   a5cc <func_49+0xbea>
    a22c:	48 8d 05 53 a1 00 00 	lea    0xa153(%rip),%rax        # 14386 <g_189>
    a233:	48 89 85 90 f8 ff ff 	mov    %rax,-0x770(%rbp)
    a23a:	c7 85 9c f7 ff ff fd 	movl   $0xfffffffd,-0x864(%rbp)
    a241:	ff ff ff 
    a244:	48 8d 05 09 9e 00 00 	lea    0x9e09(%rip),%rax        # 14054 <g_115+0x14>
    a24b:	48 89 85 a0 f8 ff ff 	mov    %rax,-0x760(%rbp)
    a252:	48 8d 85 a0 f8 ff ff 	lea    -0x760(%rbp),%rax
    a259:	48 89 85 98 f8 ff ff 	mov    %rax,-0x768(%rbp)
    a260:	8b 1d 0a a0 00 00    	mov    0xa00a(%rip),%ebx        # 14270 <g_120+0x50>
    a266:	8b 85 9c f7 ff ff    	mov    -0x864(%rbp),%eax
    a26c:	44 0f be e0          	movsbl %al,%r12d
    a270:	44 8b 2d f1 9f 00 00 	mov    0x9ff1(%rip),%r13d        # 14268 <g_120+0x48>
    a277:	8b 85 00 f9 ff ff    	mov    -0x700(%rbp),%eax
    a27d:	41 89 c7             	mov    %eax,%r15d
    a280:	0f b7 05 b9 a0 00 00 	movzwl 0xa0b9(%rip),%eax        # 14340 <g_142+0x40>
    a287:	c1 e0 07             	shl    $0x7,%eax
    a28a:	66 c1 f8 0d          	sar    $0xd,%ax
    a28e:	44 0f be f0          	movsbl %al,%r14d
    a292:	be 53 14 f9 0a       	mov    $0xaf91453,%esi
    a297:	bf 01 00 00 00       	mov    $0x1,%edi
    a29c:	e8 84 bc ff ff       	callq  5f25 <safe_div_func_uint32_t_u_u>
    a2a1:	0f be c0             	movsbl %al,%eax
    a2a4:	44 89 f6             	mov    %r14d,%esi
    a2a7:	89 c7                	mov    %eax,%edi
    a2a9:	e8 f3 af ff ff       	callq  52a1 <safe_lshift_func_int8_t_s_s>
    a2ae:	0f be c0             	movsbl %al,%eax
    a2b1:	be 06 5c 4c 40       	mov    $0x404c5c06,%esi
    a2b6:	89 c7                	mov    %eax,%edi
    a2b8:	e8 f9 b2 ff ff       	callq  55b6 <safe_add_func_int32_t_s_s>
    a2bd:	3d bf 42 11 79       	cmp    $0x791142bf,%eax
    a2c2:	0f 95 c0             	setne  %al
    a2c5:	0f b6 c0             	movzbl %al,%eax
    a2c8:	4c 89 fe             	mov    %r15,%rsi
    a2cb:	48 89 c7             	mov    %rax,%rdi
    a2ce:	e8 dc bd ff ff       	callq  60af <safe_div_func_uint64_t_u_u>
    a2d3:	be 00 00 00 00       	mov    $0x0,%esi
    a2d8:	48 bf 15 34 24 05 ec 	movabs $0x47e52bec05243415,%rdi
    a2df:	2b e5 47 
    a2e2:	e8 c1 b5 ff ff       	callq  58a8 <safe_sub_func_int64_t_s_s>
    a2e7:	0f b7 d0             	movzwl %ax,%edx
    a2ea:	8b 45 10             	mov    0x10(%rbp),%eax
    a2ed:	c1 e0 04             	shl    $0x4,%eax
    a2f0:	c1 f8 04             	sar    $0x4,%eax
    a2f3:	0f b7 c0             	movzwl %ax,%eax
    a2f6:	89 d6                	mov    %edx,%esi
    a2f8:	89 c7                	mov    %eax,%edi
    a2fa:	e8 3e ba ff ff       	callq  5d3d <safe_mul_func_uint16_t_u_u>
    a2ff:	48 8b 85 90 f8 ff ff 	mov    -0x770(%rbp),%rax
    a306:	c6 00 cf             	movb   $0xcf,(%rax)
    a309:	48 8b 85 90 f8 ff ff 	mov    -0x770(%rbp),%rax
    a310:	0f b6 00             	movzbl (%rax),%eax
    a313:	0f be c0             	movsbl %al,%eax
    a316:	c1 e0 06             	shl    $0x6,%eax
    a319:	c1 f8 06             	sar    $0x6,%eax
    a31c:	8b 15 1a a0 00 00    	mov    0xa01a(%rip),%edx        # 1433c <g_142+0x3c>
    a322:	c1 ea 0c             	shr    $0xc,%edx
    a325:	89 d1                	mov    %edx,%ecx
    a327:	0f b6 15 12 a0 00 00 	movzbl 0xa012(%rip),%edx        # 14340 <g_142+0x40>
    a32e:	83 e2 3f             	and    $0x3f,%edx
    a331:	48 c1 e2 14          	shl    $0x14,%rdx
    a335:	48 09 ca             	or     %rcx,%rdx
    a338:	48 c1 e2 26          	shl    $0x26,%rdx
    a33c:	48 c1 fa 26          	sar    $0x26,%rdx
    a340:	39 d0                	cmp    %edx,%eax
    a342:	0f 95 c0             	setne  %al
    a345:	0f b6 c0             	movzbl %al,%eax
    a348:	44 89 ee             	mov    %r13d,%esi
    a34b:	89 c7                	mov    %eax,%edi
    a34d:	e8 6c ba ff ff       	callq  5dbe <safe_lshift_func_uint16_t_u_s>
    a352:	0f be c0             	movsbl %al,%eax
    a355:	44 89 e6             	mov    %r12d,%esi
    a358:	89 c7                	mov    %eax,%edi
    a35a:	e8 b3 ae ff ff       	callq  5212 <safe_mul_func_int8_t_s_s>
    a35f:	0f be d0             	movsbl %al,%edx
    a362:	8b 05 d8 9f 00 00    	mov    0x9fd8(%rip),%eax        # 14340 <g_142+0x40>
    a368:	c1 e8 09             	shr    $0x9,%eax
    a36b:	25 ff ff 3f 00       	and    $0x3fffff,%eax
    a370:	89 d6                	mov    %edx,%esi
    a372:	89 c7                	mov    %eax,%edi
    a374:	e8 8c b2 ff ff       	callq  5605 <safe_sub_func_int32_t_s_s>
    a379:	0f b6 85 da f6 ff ff 	movzbl -0x926(%rbp),%eax
    a380:	0f b6 95 db f6 ff ff 	movzbl -0x925(%rbp),%edx
    a387:	83 e2 03             	and    $0x3,%edx
    a38a:	48 c1 e2 08          	shl    $0x8,%rdx
    a38e:	48 09 d0             	or     %rdx,%rax
    a391:	0f b7 c0             	movzwl %ax,%eax
    a394:	48 8b 95 c0 f7 ff ff 	mov    -0x840(%rbp),%rdx
    a39b:	21 d0                	and    %edx,%eax
    a39d:	be f6 ff ff ff       	mov    $0xfffffff6,%esi
    a3a2:	89 c7                	mov    %eax,%edi
    a3a4:	e8 0f bb ff ff       	callq  5eb8 <safe_add_func_uint32_t_u_u>
    a3a9:	83 f8 05             	cmp    $0x5,%eax
    a3ac:	0f 97 c0             	seta   %al
    a3af:	0f b6 d0             	movzbl %al,%edx
    a3b2:	8b 85 f0 f8 ff ff    	mov    -0x710(%rbp),%eax
    a3b8:	39 c2                	cmp    %eax,%edx
    a3ba:	72 1b                	jb     a3d7 <func_49+0x9f5>
    a3bc:	48 8b 05 75 9f 00 00 	mov    0x9f75(%rip),%rax        # 14338 <g_142+0x38>
    a3c3:	48 c1 e8 10          	shr    $0x10,%rax
    a3c7:	25 ff ff ff 0f       	and    $0xfffffff,%eax
    a3cc:	85 c0                	test   %eax,%eax
    a3ce:	74 07                	je     a3d7 <func_49+0x9f5>
    a3d0:	b8 01 00 00 00       	mov    $0x1,%eax
    a3d5:	eb 05                	jmp    a3dc <func_49+0x9fa>
    a3d7:	b8 00 00 00 00       	mov    $0x0,%eax
    a3dc:	0f b7 c0             	movzwl %ax,%eax
    a3df:	89 de                	mov    %ebx,%esi
    a3e1:	89 c7                	mov    %eax,%edi
    a3e3:	e8 d6 b9 ff ff       	callq  5dbe <safe_lshift_func_uint16_t_u_s>
    a3e8:	0f b7 d0             	movzwl %ax,%edx
    a3eb:	8b 45 10             	mov    0x10(%rbp),%eax
    a3ee:	c1 e0 04             	shl    $0x4,%eax
    a3f1:	c1 f8 04             	sar    $0x4,%eax
    a3f4:	85 c0                	test   %eax,%eax
    a3f6:	75 11                	jne    a409 <func_49+0xa27>
    a3f8:	48 8b 05 51 9f 00 00 	mov    0x9f51(%rip),%rax        # 14350 <g_151>
    a3ff:	c1 e0 06             	shl    $0x6,%eax
    a402:	c0 f8 06             	sar    $0x6,%al
    a405:	84 c0                	test   %al,%al
    a407:	74 07                	je     a410 <func_49+0xa2e>
    a409:	b8 01 00 00 00       	mov    $0x1,%eax
    a40e:	eb 05                	jmp    a415 <func_49+0xa33>
    a410:	b8 00 00 00 00       	mov    $0x0,%eax
    a415:	48 98                	cltq   
    a417:	48 89 d6             	mov    %rdx,%rsi
    a41a:	48 89 c7             	mov    %rax,%rdi
    a41d:	e8 1f b4 ff ff       	callq  5841 <safe_add_func_int64_t_s_s>
    a422:	48 85 c0             	test   %rax,%rax
    a425:	75 0c                	jne    a433 <func_49+0xa51>
    a427:	48 8b 05 0a 9c 00 00 	mov    0x9c0a(%rip),%rax        # 14038 <g_87>
    a42e:	48 85 c0             	test   %rax,%rax
    a431:	74 07                	je     a43a <func_49+0xa58>
    a433:	b9 01 00 00 00       	mov    $0x1,%ecx
    a438:	eb 05                	jmp    a43f <func_49+0xa5d>
    a43a:	b9 00 00 00 00       	mov    $0x0,%ecx
    a43f:	0f b6 45 1f          	movzbl 0x1f(%rbp),%eax
    a443:	c0 e8 04             	shr    $0x4,%al
    a446:	0f b6 c0             	movzbl %al,%eax
    a449:	8b 55 20             	mov    0x20(%rbp),%edx
    a44c:	81 e2 ff ff 3f 00    	and    $0x3fffff,%edx
    a452:	48 c1 e2 04          	shl    $0x4,%rdx
    a456:	48 09 d0             	or     %rdx,%rax
    a459:	48 c1 e0 26          	shl    $0x26,%rax
    a45d:	48 c1 f8 26          	sar    $0x26,%rax
    a461:	39 c1                	cmp    %eax,%ecx
    a463:	0f 9d c0             	setge  %al
    a466:	0f b6 c0             	movzbl %al,%eax
    a469:	be 36 d3 00 17       	mov    $0x1700d336,%esi
    a46e:	89 c7                	mov    %eax,%edi
    a470:	e8 88 ba ff ff       	callq  5efd <safe_mod_func_uint32_t_u_u>
    a475:	89 c2                	mov    %eax,%edx
    a477:	8b 45 24             	mov    0x24(%rbp),%eax
    a47a:	c1 e0 0f             	shl    $0xf,%eax
    a47d:	c1 f8 1e             	sar    $0x1e,%eax
    a480:	89 c1                	mov    %eax,%ecx
    a482:	89 d0                	mov    %edx,%eax
    a484:	21 c8                	and    %ecx,%eax
    a486:	c1 e0 06             	shl    $0x6,%eax
    a489:	c0 f8 06             	sar    $0x6,%al
    a48c:	0f b6 d0             	movzbl %al,%edx
    a48f:	83 e2 01             	and    $0x1,%edx
    a492:	89 d1                	mov    %edx,%ecx
    a494:	c1 e1 07             	shl    $0x7,%ecx
    a497:	0f b6 55 25          	movzbl 0x25(%rbp),%edx
    a49b:	83 e2 7f             	and    $0x7f,%edx
    a49e:	09 ca                	or     %ecx,%edx
    a4a0:	88 55 25             	mov    %dl,0x25(%rbp)
    a4a3:	d0 e8                	shr    %al
    a4a5:	0f b6 c0             	movzbl %al,%eax
    a4a8:	83 e0 01             	and    $0x1,%eax
    a4ab:	89 c2                	mov    %eax,%edx
    a4ad:	83 e2 01             	and    $0x1,%edx
    a4b0:	0f b6 45 26          	movzbl 0x26(%rbp),%eax
    a4b4:	83 e0 fe             	and    $0xfffffffe,%eax
    a4b7:	09 d0                	or     %edx,%eax
    a4b9:	88 45 26             	mov    %al,0x26(%rbp)
    a4bc:	48 8b 85 98 f8 ff ff 	mov    -0x768(%rbp),%rax
    a4c3:	48 8b 95 90 f8 ff ff 	mov    -0x770(%rbp),%rdx
    a4ca:	48 89 10             	mov    %rdx,(%rax)
    a4cd:	48 8b 85 98 f8 ff ff 	mov    -0x768(%rbp),%rax
    a4d4:	48 8b 00             	mov    (%rax),%rax
    a4d7:	48 85 c0             	test   %rax,%rax
    a4da:	0f 95 c0             	setne  %al
    a4dd:	0f b6 d8             	movzbl %al,%ebx
    a4e0:	8b 05 56 9e 00 00    	mov    0x9e56(%rip),%eax        # 1433c <g_142+0x3c>
    a4e6:	c1 e8 0c             	shr    $0xc,%eax
    a4e9:	89 c2                	mov    %eax,%edx
    a4eb:	0f b6 05 4e 9e 00 00 	movzbl 0x9e4e(%rip),%eax        # 14340 <g_142+0x40>
    a4f2:	83 e0 3f             	and    $0x3f,%eax
    a4f5:	48 c1 e0 14          	shl    $0x14,%rax
    a4f9:	48 09 d0             	or     %rdx,%rax
    a4fc:	48 c1 e0 26          	shl    $0x26,%rax
    a500:	48 c1 f8 26          	sar    $0x26,%rax
    a504:	48 98                	cltq   
    a506:	48 89 c6             	mov    %rax,%rsi
    a509:	bf 02 00 00 00       	mov    $0x2,%edi
    a50e:	e8 95 b3 ff ff       	callq  58a8 <safe_sub_func_int64_t_s_s>
    a513:	48 89 c2             	mov    %rax,%rdx
    a516:	0f b6 05 69 9e 00 00 	movzbl 0x9e69(%rip),%eax        # 14386 <g_189>
    a51d:	48 0f be c0          	movsbq %al,%rax
    a521:	48 89 d6             	mov    %rdx,%rsi
    a524:	48 89 c7             	mov    %rax,%rdi
    a527:	e8 02 bb ff ff       	callq  602e <safe_add_func_uint64_t_u_u>
    a52c:	0f be d0             	movsbl %al,%edx
    a52f:	8b 85 9c f7 ff ff    	mov    -0x864(%rbp),%eax
    a535:	0f be c0             	movsbl %al,%eax
    a538:	89 d6                	mov    %edx,%esi
    a53a:	89 c7                	mov    %eax,%edi
    a53c:	e8 93 ac ff ff       	callq  51d4 <safe_add_func_int8_t_s_s>
    a541:	0f be c0             	movsbl %al,%eax
    a544:	23 85 9c f7 ff ff    	and    -0x864(%rbp),%eax
    a54a:	85 c0                	test   %eax,%eax
    a54c:	74 13                	je     a561 <func_49+0xb7f>
    a54e:	48 8b 85 d0 f8 ff ff 	mov    -0x730(%rbp),%rax
    a555:	48 85 c0             	test   %rax,%rax
    a558:	74 07                	je     a561 <func_49+0xb7f>
    a55a:	b8 01 00 00 00       	mov    $0x1,%eax
    a55f:	eb 05                	jmp    a566 <func_49+0xb84>
    a561:	b8 00 00 00 00       	mov    $0x0,%eax
    a566:	0f b7 c0             	movzwl %ax,%eax
    a569:	89 c7                	mov    %eax,%edi
    a56b:	e8 79 b7 ff ff       	callq  5ce9 <safe_unary_minus_func_uint16_t_u>
    a570:	66 83 f8 01          	cmp    $0x1,%ax
    a574:	0f 95 c0             	setne  %al
    a577:	0f b6 c0             	movzbl %al,%eax
    a57a:	f7 d0                	not    %eax
    a57c:	39 c3                	cmp    %eax,%ebx
    a57e:	0f 9f c0             	setg   %al
    a581:	0f b6 c0             	movzbl %al,%eax
    a584:	89 85 98 f7 ff ff    	mov    %eax,-0x868(%rbp)
    a58a:	48 c7 85 c0 f7 ff ff 	movq   $0x0,-0x840(%rbp)
    a591:	00 00 00 00 
    a595:	48 83 bd c0 f7 ff ff 	cmpq   $0x2,-0x840(%rbp)
    a59c:	02 
    a59d:	77 14                	ja     a5b3 <func_49+0xbd1>
    a59f:	48 8b 85 c0 f7 ff ff 	mov    -0x840(%rbp),%rax
    a5a6:	48 8b 84 c5 d0 f8 ff 	mov    -0x730(%rbp,%rax,8),%rax
    a5ad:	ff 
    a5ae:	e9 37 16 00 00       	jmpq   bbea <func_49+0x2208>
    a5b3:	8b 85 00 f7 ff ff    	mov    -0x900(%rbp),%eax
    a5b9:	be 07 00 00 00       	mov    $0x7,%esi
    a5be:	48 89 c7             	mov    %rax,%rdi
    a5c1:	e8 7b b2 ff ff       	callq  5841 <safe_add_func_int64_t_s_s>
    a5c6:	89 85 00 f7 ff ff    	mov    %eax,-0x900(%rbp)
    a5cc:	83 bd 00 f7 ff ff 2e 	cmpl   $0x2e,-0x900(%rbp)
    a5d3:	0f 87 53 fc ff ff    	ja     a22c <func_49+0x84a>
    a5d9:	8b 45 10             	mov    0x10(%rbp),%eax
    a5dc:	c1 e0 04             	shl    $0x4,%eax
    a5df:	c1 f8 04             	sar    $0x4,%eax
    a5e2:	85 c0                	test   %eax,%eax
    a5e4:	0f 85 0f 01 00 00    	jne    a6f9 <func_49+0xd17>
    a5ea:	48 8b 85 58 f8 ff ff 	mov    -0x7a8(%rbp),%rax
    a5f1:	0f b6 00             	movzbl (%rax),%eax
    a5f4:	8d 48 ff             	lea    -0x1(%rax),%ecx
    a5f7:	48 8b 95 58 f8 ff ff 	mov    -0x7a8(%rbp),%rdx
    a5fe:	88 0a                	mov    %cl,(%rdx)
    a600:	44 0f b6 e0          	movzbl %al,%r12d
    a604:	48 8b 85 60 f8 ff ff 	mov    -0x7a0(%rbp),%rax
    a60b:	48 c7 00 fa ff ff ff 	movq   $0xfffffffffffffffa,(%rax)
    a612:	48 8b 85 60 f8 ff ff 	mov    -0x7a0(%rbp),%rax
    a619:	48 8b 10             	mov    (%rax),%rdx
    a61c:	48 8b 85 68 f8 ff ff 	mov    -0x798(%rbp),%rax
    a623:	48 89 10             	mov    %rdx,(%rax)
    a626:	48 8b 85 68 f8 ff ff 	mov    -0x798(%rbp),%rax
    a62d:	4c 8b 28             	mov    (%rax),%r13
    a630:	8b 85 00 f7 ff ff    	mov    -0x900(%rbp),%eax
    a636:	41 89 c6             	mov    %eax,%r14d
    a639:	8b 05 a9 9c 00 00    	mov    0x9ca9(%rip),%eax        # 142e8 <g_141>
    a63f:	48 63 d8             	movslq %eax,%rbx
    a642:	8b 05 a4 9c 00 00    	mov    0x9ca4(%rip),%eax        # 142ec <g_141+0x4>
    a648:	48 63 d0             	movslq %eax,%rdx
    a64b:	48 8b 05 fe 9c 00 00 	mov    0x9cfe(%rip),%rax        # 14350 <g_151>
    a652:	48 c1 e8 08          	shr    $0x8,%rax
    a656:	66 25 ff 0f          	and    $0xfff,%ax
    a65a:	0f b7 c0             	movzwl %ax,%eax
    a65d:	48 89 d6             	mov    %rdx,%rsi
    a660:	48 89 c7             	mov    %rax,%rdi
    a663:	e8 4c b3 ff ff       	callq  59b4 <safe_mod_func_int64_t_s_s>
    a668:	48 8b 85 70 f8 ff ff 	mov    -0x790(%rbp),%rax
    a66f:	c6 00 00             	movb   $0x0,(%rax)
    a672:	8b 85 00 f7 ff ff    	mov    -0x900(%rbp),%eax
    a678:	89 c6                	mov    %eax,%esi
    a67a:	bf 00 00 00 00       	mov    $0x0,%edi
    a67f:	e8 3a b6 ff ff       	callq  5cbe <safe_rshift_func_uint8_t_u_u>
    a684:	3c 07                	cmp    $0x7,%al
    a686:	0f 95 c0             	setne  %al
    a689:	0f b6 c0             	movzbl %al,%eax
    a68c:	48 89 de             	mov    %rbx,%rsi
    a68f:	48 89 c7             	mov    %rax,%rdi
    a692:	e8 60 b3 ff ff       	callq  59f7 <safe_div_func_int64_t_s_s>
    a697:	44 09 f0             	or     %r14d,%eax
    a69a:	0f b6 d0             	movzbl %al,%edx
    a69d:	48 8b 45 10          	mov    0x10(%rbp),%rax
    a6a1:	48 c1 e0 07          	shl    $0x7,%rax
    a6a5:	48 c1 f8 23          	sar    $0x23,%rax
    a6a9:	48 98                	cltq   
    a6ab:	48 39 85 c0 f7 ff ff 	cmp    %rax,-0x840(%rbp)
    a6b2:	0f 95 c1             	setne  %cl
    a6b5:	48 8b 85 b8 f7 ff ff 	mov    -0x848(%rbp),%rax
    a6bc:	88 08                	mov    %cl,(%rax)
    a6be:	0f b6 00             	movzbl (%rax),%eax
    a6c1:	0f b6 c0             	movzbl %al,%eax
    a6c4:	89 d6                	mov    %edx,%esi
    a6c6:	89 c7                	mov    %eax,%edi
    a6c8:	e8 e1 b4 ff ff       	callq  5bae <safe_mod_func_uint8_t_u_u>
    a6cd:	0f b6 c0             	movzbl %al,%eax
    a6d0:	49 39 c5             	cmp    %rax,%r13
    a6d3:	0f 93 c0             	setae  %al
    a6d6:	0f b6 c0             	movzbl %al,%eax
    a6d9:	be fe ff 00 00       	mov    $0xfffe,%esi
    a6de:	89 c7                	mov    %eax,%edi
    a6e0:	e8 3a b6 ff ff       	callq  5d1f <safe_sub_func_uint16_t_u_u>
    a6e5:	0f b7 c0             	movzwl %ax,%eax
    a6e8:	41 39 c4             	cmp    %eax,%r12d
    a6eb:	75 0c                	jne    a6f9 <func_49+0xd17>
    a6ed:	8b 45 1c             	mov    0x1c(%rbp),%eax
    a6f0:	25 ff ff ff 0f       	and    $0xfffffff,%eax
    a6f5:	85 c0                	test   %eax,%eax
    a6f7:	74 07                	je     a700 <func_49+0xd1e>
    a6f9:	ba 01 00 00 00       	mov    $0x1,%edx
    a6fe:	eb 05                	jmp    a705 <func_49+0xd23>
    a700:	ba 00 00 00 00       	mov    $0x0,%edx
    a705:	48 8b 85 78 f8 ff ff 	mov    -0x788(%rbp),%rax
    a70c:	8b 00                	mov    (%rax),%eax
    a70e:	21 c2                	and    %eax,%edx
    a710:	48 8b 85 78 f8 ff ff 	mov    -0x788(%rbp),%rax
    a717:	89 10                	mov    %edx,(%rax)
    a719:	48 8b 85 78 f8 ff ff 	mov    -0x788(%rbp),%rax
    a720:	8b 00                	mov    (%rax),%eax
    a722:	8b 95 d0 f6 ff ff    	mov    -0x930(%rbp),%edx
    a728:	89 d6                	mov    %edx,%esi
    a72a:	89 c7                	mov    %eax,%edi
    a72c:	e8 9f b7 ff ff       	callq  5ed0 <safe_sub_func_uint32_t_u_u>
    a731:	85 c0                	test   %eax,%eax
    a733:	0f 84 58 02 00 00    	je     a991 <func_49+0xfaf>
    a739:	66 c7 85 fc f6 ff ff 	movw   $0xffff,-0x904(%rbp)
    a740:	ff ff 
    a742:	c7 85 1c f7 ff ff 00 	movl   $0x0,-0x8e4(%rbp)
    a749:	00 00 00 
    a74c:	0f b7 05 ed 9b 00 00 	movzwl 0x9bed(%rip),%eax        # 14340 <g_142+0x40>
    a753:	c1 e0 07             	shl    $0x7,%eax
    a756:	66 c1 f8 0d          	sar    $0xd,%ax
    a75a:	38 85 ef f6 ff ff    	cmp    %al,-0x911(%rbp)
    a760:	0f 9f c0             	setg   %al
    a763:	0f b6 d8             	movzbl %al,%ebx
    a766:	be 02 00 00 00       	mov    $0x2,%esi
    a76b:	bf 30 00 00 00       	mov    $0x30,%edi
    a770:	e8 18 b5 ff ff       	callq  5c8d <safe_rshift_func_uint8_t_u_s>
    a775:	0f be d0             	movsbl %al,%edx
    a778:	8b 45 24             	mov    0x24(%rbp),%eax
    a77b:	c1 e0 0f             	shl    $0xf,%eax
    a77e:	c1 f8 1e             	sar    $0x1e,%eax
    a781:	0f be c0             	movsbl %al,%eax
    a784:	89 d6                	mov    %edx,%esi
    a786:	89 c7                	mov    %eax,%edi
    a788:	e8 85 aa ff ff       	callq  5212 <safe_mul_func_int8_t_s_s>
    a78d:	0f be c0             	movsbl %al,%eax
    a790:	39 c3                	cmp    %eax,%ebx
    a792:	0f 9d c0             	setge  %al
    a795:	0f b6 c0             	movzbl %al,%eax
    a798:	89 85 98 f7 ff ff    	mov    %eax,-0x868(%rbp)
    a79e:	48 8b 45 10          	mov    0x10(%rbp),%rax
    a7a2:	48 c1 e0 07          	shl    $0x7,%rax
    a7a6:	48 c1 f8 23          	sar    $0x23,%rax
    a7aa:	89 c2                	mov    %eax,%edx
    a7ac:	48 8b 85 d0 f8 ff ff 	mov    -0x730(%rbp),%rax
    a7b3:	09 d0                	or     %edx,%eax
    a7b5:	c1 e0 03             	shl    $0x3,%eax
    a7b8:	c1 f8 03             	sar    $0x3,%eax
    a7bb:	89 c0                	mov    %eax,%eax
    a7bd:	25 ff ff ff 1f       	and    $0x1fffffff,%eax
    a7c2:	48 c1 e0 1c          	shl    $0x1c,%rax
    a7c6:	48 89 c2             	mov    %rax,%rdx
    a7c9:	48 8b 45 10          	mov    0x10(%rbp),%rax
    a7cd:	48 b9 ff ff ff 0f 00 	movabs $0xfe0000000fffffff,%rcx
    a7d4:	00 00 fe 
    a7d7:	48 21 c8             	and    %rcx,%rax
    a7da:	48 09 d0             	or     %rdx,%rax
    a7dd:	48 89 45 10          	mov    %rax,0x10(%rbp)
    a7e1:	c7 85 d4 f6 ff ff 0f 	movl   $0xf,-0x92c(%rbp)
    a7e8:	00 00 00 
    a7eb:	e9 8f 01 00 00       	jmpq   a97f <func_49+0xf9d>
    a7f0:	c7 85 20 f7 ff ff 00 	movl   $0x0,-0x8e0(%rbp)
    a7f7:	00 00 00 
    a7fa:	eb 1a                	jmp    a816 <func_49+0xe34>
    a7fc:	8b 85 20 f7 ff ff    	mov    -0x8e0(%rbp),%eax
    a802:	48 98                	cltq   
    a804:	c7 84 85 c8 f8 ff ff 	movl   $0x0,-0x738(%rbp,%rax,4)
    a80b:	00 00 00 00 
    a80f:	83 85 20 f7 ff ff 01 	addl   $0x1,-0x8e0(%rbp)
    a816:	83 bd 20 f7 ff ff 01 	cmpl   $0x1,-0x8e0(%rbp)
    a81d:	7e dd                	jle    a7fc <func_49+0xe1a>
    a81f:	8b 05 1b 9b 00 00    	mov    0x9b1b(%rip),%eax        # 14340 <g_142+0x40>
    a825:	c1 e8 09             	shr    $0x9,%eax
    a828:	25 ff ff 3f 00       	and    $0x3fffff,%eax
    a82d:	89 c1                	mov    %eax,%ecx
    a82f:	0f b6 05 52 9b 00 00 	movzbl 0x9b52(%rip),%eax        # 14388 <g_223>
    a836:	8d 50 ff             	lea    -0x1(%rax),%edx
    a839:	88 15 49 9b 00 00    	mov    %dl,0x9b49(%rip)        # 14388 <g_223>
    a83f:	0f b6 d0             	movzbl %al,%edx
    a842:	48 8b 05 e7 9a 00 00 	mov    0x9ae7(%rip),%rax        # 14330 <g_142+0x30>
    a849:	48 c1 e0 17          	shl    $0x17,%rax
    a84d:	48 c1 f8 23          	sar    $0x23,%rax
    a851:	89 c6                	mov    %eax,%esi
    a853:	0f b7 85 fc f6 ff ff 	movzwl -0x904(%rbp),%eax
    a85a:	39 c6                	cmp    %eax,%esi
    a85c:	0f 9f c0             	setg   %al
    a85f:	0f b6 c0             	movzbl %al,%eax
    a862:	39 c2                	cmp    %eax,%edx
    a864:	0f 9c c0             	setl   %al
    a867:	0f b6 c0             	movzbl %al,%eax
    a86a:	09 c1                	or     %eax,%ecx
    a86c:	89 ca                	mov    %ecx,%edx
    a86e:	48 8b 05 d3 c1 00 00 	mov    0xc1d3(%rip),%rax        # 16a48 <g_138>
    a875:	48 85 c0             	test   %rax,%rax
    a878:	0f 95 c0             	setne  %al
    a87b:	0f b6 c0             	movzbl %al,%eax
    a87e:	39 c2                	cmp    %eax,%edx
    a880:	0f 85 cd 00 00 00    	jne    a953 <func_49+0xf71>
    a886:	8b 05 40 9a 00 00    	mov    0x9a40(%rip),%eax        # 142cc <g_120+0xac>
    a88c:	0f b6 d8             	movzbl %al,%ebx
    a88f:	8b 05 f7 9a 00 00    	mov    0x9af7(%rip),%eax        # 1438c <g_241>
    a895:	44 8b a5 cc f8 ff ff 	mov    -0x734(%rbp),%r12d
    a89c:	8b 05 d3 9a 00 00    	mov    0x9ad3(%rip),%eax        # 14375 <g_152+0x5>
    a8a2:	83 c8 01             	or     $0x1,%eax
    a8a5:	0f b6 c0             	movzbl %al,%eax
    a8a8:	be 7d 00 00 00       	mov    $0x7d,%esi
    a8ad:	89 c7                	mov    %eax,%edi
    a8af:	e8 fa b2 ff ff       	callq  5bae <safe_mod_func_uint8_t_u_u>
    a8b4:	0f b6 c0             	movzbl %al,%eax
    a8b7:	89 c7                	mov    %eax,%edi
    a8b9:	e8 df aa ff ff       	callq  539d <safe_unary_minus_func_int16_t_s>
    a8be:	98                   	cwtl   
    a8bf:	44 09 e0             	or     %r12d,%eax
    a8c2:	83 f8 04             	cmp    $0x4,%eax
    a8c5:	0f 95 c0             	setne  %al
    a8c8:	f7 d0                	not    %eax
    a8ca:	0f b6 c0             	movzbl %al,%eax
    a8cd:	89 de                	mov    %ebx,%esi
    a8cf:	89 c7                	mov    %eax,%edi
    a8d1:	e8 05 b3 ff ff       	callq  5bdb <safe_div_func_uint8_t_u_u>
    a8d6:	3c de                	cmp    $0xde,%al
    a8d8:	0f 95 c0             	setne  %al
    a8db:	0f b6 d0             	movzbl %al,%edx
    a8de:	8b 45 18             	mov    0x18(%rbp),%eax
    a8e1:	39 c2                	cmp    %eax,%edx
    a8e3:	0f 95 c0             	setne  %al
    a8e6:	0f b6 c0             	movzbl %al,%eax
    a8e9:	c1 e0 04             	shl    $0x4,%eax
    a8ec:	c1 f8 04             	sar    $0x4,%eax
    a8ef:	89 c2                	mov    %eax,%edx
    a8f1:	0f b7 d2             	movzwl %dx,%edx
    a8f4:	0f b7 0d 33 9a 00 00 	movzwl 0x9a33(%rip),%ecx        # 1432e <g_142+0x2e>
    a8fb:	83 e1 00             	and    $0x0,%ecx
    a8fe:	09 ca                	or     %ecx,%edx
    a900:	66 89 15 27 9a 00 00 	mov    %dx,0x9a27(%rip)        # 1432e <g_142+0x2e>
    a907:	c1 e8 10             	shr    $0x10,%eax
    a90a:	89 c0                	mov    %eax,%eax
    a90c:	25 ff 0f 00 00       	and    $0xfff,%eax
    a911:	89 c2                	mov    %eax,%edx
    a913:	66 81 e2 ff 0f       	and    $0xfff,%dx
    a918:	0f b7 05 11 9a 00 00 	movzwl 0x9a11(%rip),%eax        # 14330 <g_142+0x30>
    a91f:	66 25 00 f0          	and    $0xf000,%ax
    a923:	09 d0                	or     %edx,%eax
    a925:	66 89 05 04 9a 00 00 	mov    %ax,0x9a04(%rip)        # 14330 <g_142+0x30>
    a92c:	0f b7 05 fb 99 00 00 	movzwl 0x99fb(%rip),%eax        # 1432e <g_142+0x2e>
    a933:	0f b7 15 f6 99 00 00 	movzwl 0x99f6(%rip),%edx        # 14330 <g_142+0x30>
    a93a:	81 e2 ff 0f 00 00    	and    $0xfff,%edx
    a940:	48 c1 e2 10          	shl    $0x10,%rdx
    a944:	48 09 d0             	or     %rdx,%rax
    a947:	48 c1 e0 24          	shl    $0x24,%rax
    a94b:	48 c1 f8 24          	sar    $0x24,%rax
    a94f:	85 c0                	test   %eax,%eax
    a951:	74 07                	je     a95a <func_49+0xf78>
    a953:	b8 01 00 00 00       	mov    $0x1,%eax
    a958:	eb 05                	jmp    a95f <func_49+0xf7d>
    a95a:	b8 00 00 00 00       	mov    $0x0,%eax
    a95f:	31 85 1c f7 ff ff    	xor    %eax,-0x8e4(%rbp)
    a965:	8b 85 d4 f6 ff ff    	mov    -0x92c(%rbp),%eax
    a96b:	98                   	cwtl   
    a96c:	be 09 00 00 00       	mov    $0x9,%esi
    a971:	89 c7                	mov    %eax,%edi
    a973:	e8 3b aa ff ff       	callq  53b3 <safe_add_func_int16_t_s_s>
    a978:	98                   	cwtl   
    a979:	89 85 d4 f6 ff ff    	mov    %eax,-0x92c(%rbp)
    a97f:	83 bd d4 f6 ff ff 19 	cmpl   $0x19,-0x92c(%rbp)
    a986:	0f 86 64 fe ff ff    	jbe    a7f0 <func_49+0xe0e>
    a98c:	e9 31 01 00 00       	jmpq   aac2 <func_49+0x10e0>
    a991:	48 b8 3d 89 43 34 c1 	movabs $0xeef999c13443893d,%rax
    a998:	99 f9 ee 
    a99b:	48 89 85 80 f8 ff ff 	mov    %rax,-0x780(%rbp)
    a9a2:	c6 85 ef f6 ff ff 00 	movb   $0x0,-0x911(%rbp)
    a9a9:	e9 b9 00 00 00       	jmpq   aa67 <func_49+0x1085>
    a9ae:	48 c7 85 88 f8 ff ff 	movq   $0x0,-0x778(%rbp)
    a9b5:	00 00 00 00 
    a9b9:	8b 05 d1 99 00 00    	mov    0x99d1(%rip),%eax        # 14390 <g_251>
    a9bf:	48 8b 85 48 f8 ff ff 	mov    -0x7b8(%rbp),%rax
    a9c6:	48 89 85 f8 f9 ff ff 	mov    %rax,-0x608(%rbp)
    a9cd:	48 8b 85 f8 f9 ff ff 	mov    -0x608(%rbp),%rax
    a9d4:	48 8b 15 95 a6 00 00 	mov    0xa695(%rip),%rdx        # 15070 <g_252>
    a9db:	48 89 95 50 f8 ff ff 	mov    %rdx,-0x7b0(%rbp)
    a9e2:	48 39 85 50 f8 ff ff 	cmp    %rax,-0x7b0(%rbp)
    a9e9:	0f 95 c0             	setne  %al
    a9ec:	0f b6 c0             	movzbl %al,%eax
    a9ef:	0f b7 15 38 99 00 00 	movzwl 0x9938(%rip),%edx        # 1432e <g_142+0x2e>
    a9f6:	0f b7 0d 33 99 00 00 	movzwl 0x9933(%rip),%ecx        # 14330 <g_142+0x30>
    a9fd:	81 e1 ff 0f 00 00    	and    $0xfff,%ecx
    aa03:	48 c1 e1 10          	shl    $0x10,%rcx
    aa07:	48 09 ca             	or     %rcx,%rdx
    aa0a:	48 c1 e2 24          	shl    $0x24,%rdx
    aa0e:	48 c1 fa 24          	sar    $0x24,%rdx
    aa12:	09 d0                	or     %edx,%eax
    aa14:	c1 e0 04             	shl    $0x4,%eax
    aa17:	c1 f8 04             	sar    $0x4,%eax
    aa1a:	89 c2                	mov    %eax,%edx
    aa1c:	0f b7 d2             	movzwl %dx,%edx
    aa1f:	0f b7 0d 08 99 00 00 	movzwl 0x9908(%rip),%ecx        # 1432e <g_142+0x2e>
    aa26:	83 e1 00             	and    $0x0,%ecx
    aa29:	09 ca                	or     %ecx,%edx
    aa2b:	66 89 15 fc 98 00 00 	mov    %dx,0x98fc(%rip)        # 1432e <g_142+0x2e>
    aa32:	c1 e8 10             	shr    $0x10,%eax
    aa35:	89 c0                	mov    %eax,%eax
    aa37:	25 ff 0f 00 00       	and    $0xfff,%eax
    aa3c:	89 c2                	mov    %eax,%edx
    aa3e:	66 81 e2 ff 0f       	and    $0xfff,%dx
    aa43:	0f b7 05 e6 98 00 00 	movzwl 0x98e6(%rip),%eax        # 14330 <g_142+0x30>
    aa4a:	66 25 00 f0          	and    $0xf000,%ax
    aa4e:	09 d0                	or     %edx,%eax
    aa50:	66 89 05 d9 98 00 00 	mov    %ax,0x98d9(%rip)        # 14330 <g_142+0x30>
    aa57:	0f b6 85 ef f6 ff ff 	movzbl -0x911(%rbp),%eax
    aa5e:	83 c0 01             	add    $0x1,%eax
    aa61:	88 85 ef f6 ff ff    	mov    %al,-0x911(%rbp)
    aa67:	80 bd ef f6 ff ff 04 	cmpb   $0x4,-0x911(%rbp)
    aa6e:	0f 8e 3a ff ff ff    	jle    a9ae <func_49+0xfcc>
    aa74:	8b 05 1a 99 00 00    	mov    0x991a(%rip),%eax        # 14394 <g_256>
    aa7a:	8b 05 6c 98 00 00    	mov    0x986c(%rip),%eax        # 142ec <g_141+0x4>
    aa80:	89 05 ea 97 00 00    	mov    %eax,0x97ea(%rip)        # 14270 <g_120+0x50>
    aa86:	8b 05 e4 97 00 00    	mov    0x97e4(%rip),%eax        # 14270 <g_120+0x50>
    aa8c:	c1 e0 06             	shl    $0x6,%eax
    aa8f:	c0 f8 06             	sar    $0x6,%al
    aa92:	0f b6 d0             	movzbl %al,%edx
    aa95:	83 e2 01             	and    $0x1,%edx
    aa98:	89 d1                	mov    %edx,%ecx
    aa9a:	c1 e1 07             	shl    $0x7,%ecx
    aa9d:	0f b6 55 25          	movzbl 0x25(%rbp),%edx
    aaa1:	83 e2 7f             	and    $0x7f,%edx
    aaa4:	09 ca                	or     %ecx,%edx
    aaa6:	88 55 25             	mov    %dl,0x25(%rbp)
    aaa9:	d0 e8                	shr    %al
    aaab:	0f b6 c0             	movzbl %al,%eax
    aaae:	83 e0 01             	and    $0x1,%eax
    aab1:	89 c2                	mov    %eax,%edx
    aab3:	83 e2 01             	and    $0x1,%edx
    aab6:	0f b6 45 26          	movzbl 0x26(%rbp),%eax
    aaba:	83 e0 fe             	and    $0xfffffffe,%eax
    aabd:	09 d0                	or     %edx,%eax
    aabf:	88 45 26             	mov    %al,0x26(%rbp)
    aac2:	83 85 04 f7 ff ff 01 	addl   $0x1,-0x8fc(%rbp)
    aac9:	83 85 d0 f6 ff ff 01 	addl   $0x1,-0x930(%rbp)
    aad0:	83 bd d0 f6 ff ff 19 	cmpl   $0x19,-0x930(%rbp)
    aad7:	0f 85 61 f4 ff ff    	jne    9f3e <func_49+0x55c>
    aadd:	c7 05 3d 95 00 00 0b 	movl   $0xb,0x953d(%rip)        # 14024 <g_74>
    aae4:	00 00 00 
    aae7:	e9 08 03 00 00       	jmpq   adf4 <func_49+0x1412>
    aaec:	c6 85 f0 f6 ff ff 1a 	movb   $0x1a,-0x910(%rbp)
    aaf3:	c6 85 ef f6 ff ff 00 	movb   $0x0,-0x911(%rbp)
    aafa:	e9 c8 02 00 00       	jmpq   adc7 <func_49+0x13e5>
    aaff:	c6 05 80 98 00 00 f8 	movb   $0xf8,0x9880(%rip)        # 14386 <g_189>
    ab06:	e9 91 02 00 00       	jmpq   ad9c <func_49+0x13ba>
    ab0b:	48 8d 05 a6 96 00 00 	lea    0x96a6(%rip),%rax        # 141b8 <g_118+0x138>
    ab12:	48 89 85 f0 f9 ff ff 	mov    %rax,-0x610(%rbp)
    ab19:	48 8d 05 60 95 00 00 	lea    0x9560(%rip),%rax        # 14080 <g_118>
    ab20:	48 89 85 f8 f9 ff ff 	mov    %rax,-0x608(%rbp)
    ab27:	48 8d 05 b2 95 00 00 	lea    0x95b2(%rip),%rax        # 140e0 <g_118+0x60>
    ab2e:	48 89 85 00 fa ff ff 	mov    %rax,-0x600(%rbp)
    ab35:	48 8d 05 a4 95 00 00 	lea    0x95a4(%rip),%rax        # 140e0 <g_118+0x60>
    ab3c:	48 89 85 08 fa ff ff 	mov    %rax,-0x5f8(%rbp)
    ab43:	48 8d 05 56 96 00 00 	lea    0x9656(%rip),%rax        # 141a0 <g_118+0x120>
    ab4a:	48 89 85 10 fa ff ff 	mov    %rax,-0x5f0(%rbp)
    ab51:	48 8d 05 48 96 00 00 	lea    0x9648(%rip),%rax        # 141a0 <g_118+0x120>
    ab58:	48 89 85 18 fa ff ff 	mov    %rax,-0x5e8(%rbp)
    ab5f:	48 c7 85 20 fa ff ff 	movq   $0x0,-0x5e0(%rbp)
    ab66:	00 00 00 00 
    ab6a:	48 8d 05 0f 95 00 00 	lea    0x950f(%rip),%rax        # 14080 <g_118>
    ab71:	48 89 85 28 fa ff ff 	mov    %rax,-0x5d8(%rbp)
    ab78:	48 8d 05 01 95 00 00 	lea    0x9501(%rip),%rax        # 14080 <g_118>
    ab7f:	48 89 85 30 fa ff ff 	mov    %rax,-0x5d0(%rbp)
    ab86:	48 8d 05 2b 96 00 00 	lea    0x962b(%rip),%rax        # 141b8 <g_118+0x138>
    ab8d:	48 89 85 38 fa ff ff 	mov    %rax,-0x5c8(%rbp)
    ab94:	48 c7 85 40 fa ff ff 	movq   $0x0,-0x5c0(%rbp)
    ab9b:	00 00 00 00 
    ab9f:	48 8d 05 12 96 00 00 	lea    0x9612(%rip),%rax        # 141b8 <g_118+0x138>
    aba6:	48 89 85 48 fa ff ff 	mov    %rax,-0x5b8(%rbp)
    abad:	48 8d 05 ec 95 00 00 	lea    0x95ec(%rip),%rax        # 141a0 <g_118+0x120>
    abb4:	48 89 85 50 fa ff ff 	mov    %rax,-0x5b0(%rbp)
    abbb:	48 8d 05 de 95 00 00 	lea    0x95de(%rip),%rax        # 141a0 <g_118+0x120>
    abc2:	48 89 85 58 fa ff ff 	mov    %rax,-0x5a8(%rbp)
    abc9:	48 8d 05 10 95 00 00 	lea    0x9510(%rip),%rax        # 140e0 <g_118+0x60>
    abd0:	48 89 85 60 fa ff ff 	mov    %rax,-0x5a0(%rbp)
    abd7:	48 c7 85 68 fa ff ff 	movq   $0x0,-0x598(%rbp)
    abde:	00 00 00 00 
    abe2:	48 8d 05 cf 95 00 00 	lea    0x95cf(%rip),%rax        # 141b8 <g_118+0x138>
    abe9:	48 89 85 70 fa ff ff 	mov    %rax,-0x590(%rbp)
    abf0:	48 8d 05 a9 95 00 00 	lea    0x95a9(%rip),%rax        # 141a0 <g_118+0x120>
    abf7:	48 89 85 78 fa ff ff 	mov    %rax,-0x588(%rbp)
    abfe:	48 8d 05 9b 95 00 00 	lea    0x959b(%rip),%rax        # 141a0 <g_118+0x120>
    ac05:	48 89 85 80 fa ff ff 	mov    %rax,-0x580(%rbp)
    ac0c:	48 8d 05 a5 95 00 00 	lea    0x95a5(%rip),%rax        # 141b8 <g_118+0x138>
    ac13:	48 89 85 88 fa ff ff 	mov    %rax,-0x578(%rbp)
    ac1a:	48 8d 05 7f 95 00 00 	lea    0x957f(%rip),%rax        # 141a0 <g_118+0x120>
    ac21:	48 89 85 90 fa ff ff 	mov    %rax,-0x570(%rbp)
    ac28:	48 8d 05 89 95 00 00 	lea    0x9589(%rip),%rax        # 141b8 <g_118+0x138>
    ac2f:	48 89 85 98 fa ff ff 	mov    %rax,-0x568(%rbp)
    ac36:	48 8d 05 63 95 00 00 	lea    0x9563(%rip),%rax        # 141a0 <g_118+0x120>
    ac3d:	48 89 85 a0 fa ff ff 	mov    %rax,-0x560(%rbp)
    ac44:	48 8d 05 35 94 00 00 	lea    0x9435(%rip),%rax        # 14080 <g_118>
    ac4b:	48 89 85 a8 fa ff ff 	mov    %rax,-0x558(%rbp)
    ac52:	c7 85 94 f7 ff ff f7 	movl   $0xfffffff7,-0x86c(%rbp)
    ac59:	ff ff ff 
    ac5c:	c7 85 24 f7 ff ff 00 	movl   $0x0,-0x8dc(%rbp)
    ac63:	00 00 00 
    ac66:	eb 1e                	jmp    ac86 <func_49+0x12a4>
    ac68:	8b 85 24 f7 ff ff    	mov    -0x8dc(%rbp),%eax
    ac6e:	48 98                	cltq   
    ac70:	48 8d 15 21 97 00 00 	lea    0x9721(%rip),%rdx        # 14398 <g_268>
    ac77:	48 89 94 c5 f0 f8 ff 	mov    %rdx,-0x710(%rbp,%rax,8)
    ac7e:	ff 
    ac7f:	83 85 24 f7 ff ff 01 	addl   $0x1,-0x8dc(%rbp)
    ac86:	83 bd 24 f7 ff ff 00 	cmpl   $0x0,-0x8dc(%rbp)
    ac8d:	7e d9                	jle    ac68 <func_49+0x1286>
    ac8f:	c7 85 08 f7 ff ff 00 	movl   $0x0,-0x8f8(%rbp)
    ac96:	00 00 00 
    ac99:	48 8b 85 48 f8 ff ff 	mov    -0x7b8(%rbp),%rax
    aca0:	48 8b 00             	mov    (%rax),%rax
    aca3:	0f b6 10             	movzbl (%rax),%edx
    aca6:	83 c2 01             	add    $0x1,%edx
    aca9:	88 10                	mov    %dl,(%rax)
    acab:	0f b6 00             	movzbl (%rax),%eax
    acae:	88 05 a0 93 00 00    	mov    %al,0x93a0(%rip)        # 14054 <g_115+0x14>
    acb4:	0f b6 05 cb 96 00 00 	movzbl 0x96cb(%rip),%eax        # 14386 <g_189>
    acbb:	48 0f be c0          	movsbq %al,%rax
    acbf:	8b 55 18             	mov    0x18(%rbp),%edx
    acc2:	89 d2                	mov    %edx,%edx
    acc4:	48 89 c6             	mov    %rax,%rsi
    acc7:	48 89 d7             	mov    %rdx,%rdi
    acca:	e8 72 ab ff ff       	callq  5841 <safe_add_func_int64_t_s_s>
    accf:	89 85 0c f7 ff ff    	mov    %eax,-0x8f4(%rbp)
    acd5:	81 bd 0c f7 ff ff 9b 	cmpl   $0x489b,-0x8f4(%rbp)
    acdc:	48 00 00 
    acdf:	0f 9f c0             	setg   %al
    ace2:	0f b6 c0             	movzbl %al,%eax
    ace5:	89 c6                	mov    %eax,%esi
    ace7:	bf 01 00 00 00       	mov    $0x1,%edi
    acec:	e8 e3 a4 ff ff       	callq  51d4 <safe_add_func_int8_t_s_s>
    acf1:	0f be d0             	movsbl %al,%edx
    acf4:	8b 85 d0 f6 ff ff    	mov    -0x930(%rbp),%eax
    acfa:	89 85 ec f9 ff ff    	mov    %eax,-0x614(%rbp)
    ad00:	8b 85 ec f9 ff ff    	mov    -0x614(%rbp),%eax
    ad06:	85 c0                	test   %eax,%eax
    ad08:	0f 94 c0             	sete   %al
    ad0b:	0f b6 c0             	movzbl %al,%eax
    ad0e:	89 d6                	mov    %edx,%esi
    ad10:	89 c7                	mov    %eax,%edi
    ad12:	e8 bc a6 ff ff       	callq  53d3 <safe_sub_func_int16_t_s_s>
    ad17:	66 85 c0             	test   %ax,%ax
    ad1a:	0f 94 c0             	sete   %al
    ad1d:	0f b6 c0             	movzbl %al,%eax
    ad20:	0b 85 94 f7 ff ff    	or     -0x86c(%rbp),%eax
    ad26:	f7 d0                	not    %eax
    ad28:	89 c2                	mov    %eax,%edx
    ad2a:	8b 45 10             	mov    0x10(%rbp),%eax
    ad2d:	c1 e0 04             	shl    $0x4,%eax
    ad30:	c1 f8 04             	sar    $0x4,%eax
    ad33:	09 d0                	or     %edx,%eax
    ad35:	c1 e0 04             	shl    $0x4,%eax
    ad38:	c1 f8 04             	sar    $0x4,%eax
    ad3b:	25 ff ff ff 0f       	and    $0xfffffff,%eax
    ad40:	89 c2                	mov    %eax,%edx
    ad42:	8b 45 10             	mov    0x10(%rbp),%eax
    ad45:	25 00 00 00 f0       	and    $0xf0000000,%eax
    ad4a:	09 d0                	or     %edx,%eax
    ad4c:	89 45 10             	mov    %eax,0x10(%rbp)
    ad4f:	0f b6 85 f0 f6 ff ff 	movzbl -0x910(%rbp),%eax
    ad56:	83 c0 01             	add    $0x1,%eax
    ad59:	88 85 f0 f6 ff ff    	mov    %al,-0x910(%rbp)
    ad5f:	48 8b 45 20          	mov    0x20(%rbp),%rax
    ad63:	48 c1 e8 19          	shr    $0x19,%rax
    ad67:	25 ff ff 3f 00       	and    $0x3fffff,%eax
    ad6c:	89 85 0c f7 ff ff    	mov    %eax,-0x8f4(%rbp)
    ad72:	48 8b 05 57 94 00 00 	mov    0x9457(%rip),%rax        # 141d0 <g_118+0x150>
    ad79:	48 85 c0             	test   %rax,%rax
    ad7c:	75 2f                	jne    adad <func_49+0x13cb>
    ad7e:	0f b6 05 01 96 00 00 	movzbl 0x9601(%rip),%eax        # 14386 <g_189>
    ad85:	66 98                	cbtw   
    ad87:	0f b7 c0             	movzwl %ax,%eax
    ad8a:	be 08 00 00 00       	mov    $0x8,%esi
    ad8f:	89 c7                	mov    %eax,%edi
    ad91:	e8 89 af ff ff       	callq  5d1f <safe_sub_func_uint16_t_u_u>
    ad96:	88 05 ea 95 00 00    	mov    %al,0x95ea(%rip)        # 14386 <g_189>
    ad9c:	0f b6 05 e3 95 00 00 	movzbl 0x95e3(%rip),%eax        # 14386 <g_189>
    ada3:	3c f7                	cmp    $0xf7,%al
    ada5:	0f 8c 60 fd ff ff    	jl     ab0b <func_49+0x1129>
    adab:	eb 01                	jmp    adae <func_49+0x13cc>
    adad:	90                   	nop
    adae:	0f be 85 ef f6 ff ff 	movsbl -0x911(%rbp),%eax
    adb5:	be 05 00 00 00       	mov    $0x5,%esi
    adba:	89 c7                	mov    %eax,%edi
    adbc:	e8 f5 a7 ff ff       	callq  55b6 <safe_add_func_int32_t_s_s>
    adc1:	88 85 ef f6 ff ff    	mov    %al,-0x911(%rbp)
    adc7:	80 bd ef f6 ff ff 04 	cmpb   $0x4,-0x911(%rbp)
    adce:	0f 8e 2b fd ff ff    	jle    aaff <func_49+0x111d>
    add4:	48 8b 05 a5 a2 00 00 	mov    0xa2a5(%rip),%rax        # 15080 <g_290>
    addb:	48 8b 95 f8 fe ff ff 	mov    -0x108(%rbp),%rdx
    ade2:	48 89 10             	mov    %rdx,(%rax)
    ade5:	8b 05 39 92 00 00    	mov    0x9239(%rip),%eax        # 14024 <g_74>
    adeb:	83 e8 01             	sub    $0x1,%eax
    adee:	89 05 30 92 00 00    	mov    %eax,0x9230(%rip)        # 14024 <g_74>
    adf4:	8b 05 2a 92 00 00    	mov    0x922a(%rip),%eax        # 14024 <g_74>
    adfa:	83 f8 03             	cmp    $0x3,%eax
    adfd:	0f 85 e9 fc ff ff    	jne    aaec <func_49+0x110a>
    ae03:	e9 a5 0d 00 00       	jmpq   bbad <func_49+0x21cb>
    ae08:	48 8d 05 89 95 00 00 	lea    0x9589(%rip),%rax        # 14398 <g_268>
    ae0f:	48 89 85 b0 f7 ff ff 	mov    %rax,-0x850(%rbp)
    ae16:	48 8d 85 b0 f7 ff ff 	lea    -0x850(%rbp),%rax
    ae1d:	48 89 85 b8 f7 ff ff 	mov    %rax,-0x848(%rbp)
    ae24:	c7 85 4c f7 ff ff fb 	movl   $0xfffffffb,-0x8b4(%rbp)
    ae2b:	ff ff ff 
    ae2e:	48 b8 6b 78 0a b7 b3 	movabs $0xda2793b3b70a786b,%rax
    ae35:	93 27 da 
    ae38:	48 89 85 e8 f7 ff ff 	mov    %rax,-0x818(%rbp)
    ae3f:	c7 85 50 f7 ff ff af 	movl   $0x6932eeaf,-0x8b0(%rbp)
    ae46:	ee 32 69 
    ae49:	c7 85 10 f9 ff ff 4c 	movl   $0xe40df4c,-0x6f0(%rbp)
    ae50:	df 40 0e 
    ae53:	c7 85 14 f9 ff ff 01 	movl   $0x1,-0x6ec(%rbp)
    ae5a:	00 00 00 
    ae5d:	c7 85 18 f9 ff ff 4c 	movl   $0xe40df4c,-0x6e8(%rbp)
    ae64:	df 40 0e 
    ae67:	c7 85 1c f9 ff ff 01 	movl   $0x1,-0x6e4(%rbp)
    ae6e:	00 00 00 
    ae71:	c7 85 20 f9 ff ff 4c 	movl   $0xe40df4c,-0x6e0(%rbp)
    ae78:	df 40 0e 
    ae7b:	c7 85 24 f9 ff ff 01 	movl   $0x1,-0x6dc(%rbp)
    ae82:	00 00 00 
    ae85:	c7 85 28 f9 ff ff 4c 	movl   $0xe40df4c,-0x6d8(%rbp)
    ae8c:	df 40 0e 
    ae8f:	c7 85 2c f9 ff ff 01 	movl   $0x1,-0x6d4(%rbp)
    ae96:	00 00 00 
    ae99:	c7 85 30 f9 ff ff 4c 	movl   $0xe40df4c,-0x6d0(%rbp)
    aea0:	df 40 0e 
    aea3:	8b 85 a0 f8 ff ff    	mov    -0x760(%rbp),%eax
    aea9:	25 00 00 00 f0       	and    $0xf0000000,%eax
    aeae:	0d 4b ee ff 0f       	or     $0xfffee4b,%eax
    aeb3:	89 85 a0 f8 ff ff    	mov    %eax,-0x760(%rbp)
    aeb9:	48 8b 85 a0 f8 ff ff 	mov    -0x760(%rbp),%rax
    aec0:	48 ba ff ff ff 0f 00 	movabs $0xfe0000000fffffff,%rdx
    aec7:	00 00 fe 
    aeca:	48 21 c2             	and    %rax,%rdx
    aecd:	48 b8 00 00 00 60 29 	movabs $0x1ffff2960000000,%rax
    aed4:	ff ff 01 
    aed7:	48 09 d0             	or     %rdx,%rax
    aeda:	48 89 85 a0 f8 ff ff 	mov    %rax,-0x760(%rbp)
    aee1:	c7 85 a8 f8 ff ff 91 	movl   $0x97739491,-0x758(%rbp)
    aee8:	94 73 97 
    aeeb:	8b 85 ac f8 ff ff    	mov    -0x754(%rbp),%eax
    aef1:	25 00 00 00 f0       	and    $0xf0000000,%eax
    aef6:	0d dd 07 00 00       	or     $0x7dd,%eax
    aefb:	89 85 ac f8 ff ff    	mov    %eax,-0x754(%rbp)
    af01:	0f b6 85 af f8 ff ff 	movzbl -0x751(%rbp),%eax
    af08:	83 e0 0f             	and    $0xf,%eax
    af0b:	83 c8 a0             	or     $0xffffffa0,%eax
    af0e:	88 85 af f8 ff ff    	mov    %al,-0x751(%rbp)
    af14:	8b 85 b0 f8 ff ff    	mov    -0x750(%rbp),%eax
    af1a:	25 00 00 c0 ff       	and    $0xffc00000,%eax
    af1f:	0d 96 ff 3f 00       	or     $0x3fff96,%eax
    af24:	89 85 b0 f8 ff ff    	mov    %eax,-0x750(%rbp)
    af2a:	0f b7 85 b2 f8 ff ff 	movzwl -0x74e(%rbp),%eax
    af31:	66 25 3f fe          	and    $0xfe3f,%ax
    af35:	66 89 85 b2 f8 ff ff 	mov    %ax,-0x74e(%rbp)
    af3c:	0f b6 85 b3 f8 ff ff 	movzbl -0x74d(%rbp),%eax
    af43:	83 e0 01             	and    $0x1,%eax
    af46:	83 c8 a2             	or     $0xffffffa2,%eax
    af49:	88 85 b3 f8 ff ff    	mov    %al,-0x74d(%rbp)
    af4f:	0f b7 85 b4 f8 ff ff 	movzwl -0x74c(%rbp),%eax
    af56:	66 25 00 80          	and    $0x8000,%ax
    af5a:	83 c8 06             	or     $0x6,%eax
    af5d:	66 89 85 b4 f8 ff ff 	mov    %ax,-0x74c(%rbp)
    af64:	0f b6 85 b5 f8 ff ff 	movzbl -0x74b(%rbp),%eax
    af6b:	83 c8 80             	or     $0xffffff80,%eax
    af6e:	88 85 b5 f8 ff ff    	mov    %al,-0x74b(%rbp)
    af74:	0f b6 85 b6 f8 ff ff 	movzbl -0x74a(%rbp),%eax
    af7b:	83 e0 fe             	and    $0xfffffffe,%eax
    af7e:	88 85 b6 f8 ff ff    	mov    %al,-0x74a(%rbp)
    af84:	48 8d 85 a0 f8 ff ff 	lea    -0x760(%rbp),%rax
    af8b:	48 83 c0 08          	add    $0x8,%rax
    af8f:	48 89 85 f0 f7 ff ff 	mov    %rax,-0x810(%rbp)
    af96:	48 8d 05 99 93 00 00 	lea    0x9399(%rip),%rax        # 14336 <g_142+0x36>
    af9d:	48 89 85 f8 f7 ff ff 	mov    %rax,-0x808(%rbp)
    afa4:	83 bd 04 f7 ff ff 00 	cmpl   $0x0,-0x8fc(%rbp)
    afab:	0f 85 1c 0c 00 00    	jne    bbcd <func_49+0x21eb>
    afb1:	48 8b 05 a0 93 00 00 	mov    0x93a0(%rip),%rax        # 14358 <g_151+0x8>
    afb8:	48 c1 e8 11          	shr    $0x11,%rax
    afbc:	83 e0 7f             	and    $0x7f,%eax
    afbf:	84 c0                	test   %al,%al
    afc1:	0f 85 09 0c 00 00    	jne    bbd0 <func_49+0x21ee>
    afc7:	c7 85 08 f7 ff ff fc 	movl   $0xfffffffc,-0x8f8(%rbp)
    afce:	ff ff ff 
    afd1:	e9 4c 09 00 00       	jmpq   b922 <func_49+0x1f40>
    afd6:	66 c7 85 f4 f6 ff ff 	movw   $0x73e5,-0x90c(%rbp)
    afdd:	e5 73 
    afdf:	48 8d 85 b8 f7 ff ff 	lea    -0x848(%rbp),%rax
    afe6:	48 89 85 00 f8 ff ff 	mov    %rax,-0x800(%rbp)
    afed:	c7 85 54 f7 ff ff fd 	movl   $0xfffffffd,-0x8ac(%rbp)
    aff4:	ff ff ff 
    aff7:	c7 85 58 f7 ff ff ad 	movl   $0x4fd301ad,-0x8a8(%rbp)
    affe:	01 d3 4f 
    b001:	c7 85 5c f7 ff ff 00 	movl   $0x0,-0x8a4(%rbp)
    b008:	00 00 00 
    b00b:	c7 85 28 f7 ff ff 28 	movl   $0xb74ccc28,-0x8d8(%rbp)
    b012:	cc 4c b7 
    b015:	c7 85 60 f7 ff ff ff 	movl   $0xffffffff,-0x8a0(%rbp)
    b01c:	ff ff ff 
    b01f:	c7 85 64 f7 ff ff ce 	movl   $0xee743ce,-0x89c(%rbp)
    b026:	43 e7 0e 
    b029:	c7 85 2c f7 ff ff 02 	movl   $0x2,-0x8d4(%rbp)
    b030:	00 00 00 
    b033:	c7 85 68 f7 ff ff 00 	movl   $0x0,-0x898(%rbp)
    b03a:	00 00 00 
    b03d:	c7 85 30 f7 ff ff 00 	movl   $0x0,-0x8d0(%rbp)
    b044:	00 00 00 
    b047:	eb 6e                	jmp    b0b7 <func_49+0x16d5>
    b049:	c7 85 34 f7 ff ff 00 	movl   $0x0,-0x8cc(%rbp)
    b050:	00 00 00 
    b053:	eb 52                	jmp    b0a7 <func_49+0x16c5>
    b055:	c7 85 38 f7 ff ff 00 	movl   $0x0,-0x8c8(%rbp)
    b05c:	00 00 00 
    b05f:	eb 36                	jmp    b097 <func_49+0x16b5>
    b061:	8b 85 38 f7 ff ff    	mov    -0x8c8(%rbp),%eax
    b067:	48 63 d0             	movslq %eax,%rdx
    b06a:	8b 85 34 f7 ff ff    	mov    -0x8cc(%rbp),%eax
    b070:	48 98                	cltq   
    b072:	8b 8d 30 f7 ff ff    	mov    -0x8d0(%rbp),%ecx
    b078:	48 63 c9             	movslq %ecx,%rcx
    b07b:	48 01 c9             	add    %rcx,%rcx
    b07e:	48 01 ca             	add    %rcx,%rdx
    b081:	48 01 d0             	add    %rdx,%rax
    b084:	48 c7 84 c5 d0 f8 ff 	movq   $0x0,-0x730(%rbp,%rax,8)
    b08b:	ff 00 00 00 00 
    b090:	83 85 38 f7 ff ff 01 	addl   $0x1,-0x8c8(%rbp)
    b097:	83 bd 38 f7 ff ff 00 	cmpl   $0x0,-0x8c8(%rbp)
    b09e:	7e c1                	jle    b061 <func_49+0x167f>
    b0a0:	83 85 34 f7 ff ff 01 	addl   $0x1,-0x8cc(%rbp)
    b0a7:	83 bd 34 f7 ff ff 01 	cmpl   $0x1,-0x8cc(%rbp)
    b0ae:	7e a5                	jle    b055 <func_49+0x1673>
    b0b0:	83 85 30 f7 ff ff 01 	addl   $0x1,-0x8d0(%rbp)
    b0b7:	83 bd 30 f7 ff ff 00 	cmpl   $0x0,-0x8d0(%rbp)
    b0be:	7e 89                	jle    b049 <func_49+0x1667>
    b0c0:	48 8b 05 c1 9f 00 00 	mov    0x9fc1(%rip),%rax        # 15088 <g_294>
    b0c7:	48 8b 0d 60 92 00 00 	mov    0x9260(%rip),%rcx        # 1432e <g_142+0x2e>
    b0ce:	48 8b 1d 61 92 00 00 	mov    0x9261(%rip),%rbx        # 14336 <g_142+0x36>
    b0d5:	48 89 08             	mov    %rcx,(%rax)
    b0d8:	48 89 58 08          	mov    %rbx,0x8(%rax)
    b0dc:	8b 15 5c 92 00 00    	mov    0x925c(%rip),%edx        # 1433e <g_142+0x3e>
    b0e2:	89 50 10             	mov    %edx,0x10(%rax)
    b0e5:	0f b7 15 56 92 00 00 	movzwl 0x9256(%rip),%edx        # 14342 <g_142+0x42>
    b0ec:	66 89 50 14          	mov    %dx,0x14(%rax)
    b0f0:	0f b6 15 4d 92 00 00 	movzbl 0x924d(%rip),%edx        # 14344 <g_142+0x44>
    b0f7:	88 50 16             	mov    %dl,0x16(%rax)
    b0fa:	8b 45 10             	mov    0x10(%rbp),%eax
    b0fd:	c1 e0 04             	shl    $0x4,%eax
    b100:	c1 f8 04             	sar    $0x4,%eax
    b103:	0f be d0             	movsbl %al,%edx
    b106:	8b 85 08 f7 ff ff    	mov    -0x8f8(%rbp),%eax
    b10c:	0f be c0             	movsbl %al,%eax
    b10f:	89 d6                	mov    %edx,%esi
    b111:	89 c7                	mov    %eax,%edi
    b113:	e8 52 a1 ff ff       	callq  526a <safe_div_func_int8_t_s_s>
    b118:	84 c0                	test   %al,%al
    b11a:	0f 85 bf 00 00 00    	jne    b1df <func_49+0x17fd>
    b120:	8b 1d 06 8f 00 00    	mov    0x8f06(%rip),%ebx        # 1402c <g_75+0x4>
    b126:	0f b6 05 27 8f 00 00 	movzbl 0x8f27(%rip),%eax        # 14054 <g_115+0x14>
    b12d:	44 0f b6 e0          	movzbl %al,%r12d
    b131:	44 0f bf b5 f4 f6 ff 	movswl -0x90c(%rbp),%r14d
    b138:	ff 
    b139:	8b 05 b1 91 00 00    	mov    0x91b1(%rip),%eax        # 142f0 <g_141+0x8>
    b13f:	44 0f be e8          	movsbl %al,%r13d
    b143:	0f b7 45 22          	movzwl 0x22(%rbp),%eax
    b147:	c1 e0 07             	shl    $0x7,%eax
    b14a:	66 c1 f8 0d          	sar    $0xd,%ax
    b14e:	66 44 0f be f8       	movsbw %al,%r15w
    b153:	0f bf 85 f4 f6 ff ff 	movswl -0x90c(%rbp),%eax
    b15a:	89 05 4c 91 00 00    	mov    %eax,0x914c(%rip)        # 142ac <g_120+0x8c>
    b160:	8b 05 46 91 00 00    	mov    0x9146(%rip),%eax        # 142ac <g_120+0x8c>
    b166:	89 85 cc f6 ff ff    	mov    %eax,-0x934(%rbp)
    b16c:	bf 9d ff ff ff       	mov    $0xffffff9d,%edi
    b171:	e8 49 a0 ff ff       	callq  51bf <safe_unary_minus_func_int8_t_s>
    b176:	3c 01                	cmp    $0x1,%al
    b178:	0f 9f c0             	setg   %al
    b17b:	0f b6 c0             	movzbl %al,%eax
    b17e:	39 85 cc f6 ff ff    	cmp    %eax,-0x934(%rbp)
    b184:	0f 9c c0             	setl   %al
    b187:	0f b6 c0             	movzbl %al,%eax
    b18a:	be 08 00 00 00       	mov    $0x8,%esi
    b18f:	89 c7                	mov    %eax,%edi
    b191:	e8 cd a3 ff ff       	callq  5563 <safe_rshift_func_int16_t_s_u>
    b196:	66 41 39 c7          	cmp    %ax,%r15w
    b19a:	0f 95 c0             	setne  %al
    b19d:	0f b6 c0             	movzbl %al,%eax
    b1a0:	44 89 ee             	mov    %r13d,%esi
    b1a3:	89 c7                	mov    %eax,%edi
    b1a5:	e8 87 a0 ff ff       	callq  5231 <safe_mod_func_int8_t_s_s>
    b1aa:	0f be c0             	movsbl %al,%eax
    b1ad:	44 31 f0             	xor    %r14d,%eax
    b1b0:	89 c2                	mov    %eax,%edx
    b1b2:	8b 85 d0 f6 ff ff    	mov    -0x930(%rbp),%eax
    b1b8:	89 c6                	mov    %eax,%esi
    b1ba:	89 d7                	mov    %edx,%edi
    b1bc:	e8 3c ad ff ff       	callq  5efd <safe_mod_func_uint32_t_u_u>
    b1c1:	0f b6 c0             	movzbl %al,%eax
    b1c4:	44 89 e6             	mov    %r12d,%esi
    b1c7:	89 c7                	mov    %eax,%edi
    b1c9:	e8 0d aa ff ff       	callq  5bdb <safe_div_func_uint8_t_u_u>
    b1ce:	0f b6 c0             	movzbl %al,%eax
    b1d1:	89 de                	mov    %ebx,%esi
    b1d3:	89 c7                	mov    %eax,%edi
    b1d5:	e8 e4 ab ff ff       	callq  5dbe <safe_lshift_func_uint16_t_u_s>
    b1da:	66 85 c0             	test   %ax,%ax
    b1dd:	74 14                	je     b1f3 <func_49+0x1811>
    b1df:	0f b6 05 60 8e 00 00 	movzbl 0x8e60(%rip),%eax        # 14046 <g_115+0x6>
    b1e6:	84 c0                	test   %al,%al
    b1e8:	0f 84 5f 04 00 00    	je     b64d <func_49+0x1c6b>
    b1ee:	e9 3c 07 00 00       	jmpq   b92f <func_49+0x1f4d>
    b1f3:	48 8d 85 b0 f7 ff ff 	lea    -0x850(%rbp),%rax
    b1fa:	48 89 85 08 f8 ff ff 	mov    %rax,-0x7f8(%rbp)
    b201:	48 8d 05 ae 91 00 00 	lea    0x91ae(%rip),%rax        # 143b6 <g_332>
    b208:	48 89 85 10 f8 ff ff 	mov    %rax,-0x7f0(%rbp)
    b20f:	66 c7 85 f6 f6 ff ff 	movw   $0xf44a,-0x90a(%rbp)
    b216:	4a f4 
    b218:	c7 85 3c f7 ff ff 00 	movl   $0x0,-0x8c4(%rbp)
    b21f:	00 00 00 
    b222:	eb 1b                	jmp    b23f <func_49+0x185d>
    b224:	8b 85 3c f7 ff ff    	mov    -0x8c4(%rbp),%eax
    b22a:	48 98                	cltq   
    b22c:	48 c7 84 c5 f0 f8 ff 	movq   $0x0,-0x710(%rbp,%rax,8)
    b233:	ff 00 00 00 00 
    b238:	83 85 3c f7 ff ff 01 	addl   $0x1,-0x8c4(%rbp)
    b23f:	83 bd 3c f7 ff ff 01 	cmpl   $0x1,-0x8c4(%rbp)
    b246:	7e dc                	jle    b224 <func_49+0x1842>
    b248:	8b 05 27 91 00 00    	mov    0x9127(%rip),%eax        # 14375 <g_152+0x5>
    b24e:	85 c0                	test   %eax,%eax
    b250:	74 19                	je     b26b <func_49+0x1889>
    b252:	48 8b 85 b8 f7 ff ff 	mov    -0x848(%rbp),%rax
    b259:	48 89 85 08 f8 ff ff 	mov    %rax,-0x7f8(%rbp)
    b260:	8b 85 04 f7 ff ff    	mov    -0x8fc(%rbp),%eax
    b266:	e9 7f 09 00 00       	jmpq   bbea <func_49+0x2208>
    b26b:	48 b8 79 4e 62 0b 1f 	movabs $0xf8a00b1f0b624e79,%rax
    b272:	0b a0 f8 
    b275:	48 89 85 c8 f8 ff ff 	mov    %rax,-0x738(%rbp)
    b27c:	48 c7 85 18 f8 ff ff 	movq   $0x0,-0x7e8(%rbp)
    b283:	00 00 00 00 
    b287:	48 8d 05 28 91 00 00 	lea    0x9128(%rip),%rax        # 143b6 <g_332>
    b28e:	48 89 85 f0 f9 ff ff 	mov    %rax,-0x610(%rbp)
    b295:	48 8d 05 1a 91 00 00 	lea    0x911a(%rip),%rax        # 143b6 <g_332>
    b29c:	48 89 85 f8 f9 ff ff 	mov    %rax,-0x608(%rbp)
    b2a3:	48 8d 05 0c 91 00 00 	lea    0x910c(%rip),%rax        # 143b6 <g_332>
    b2aa:	48 89 85 00 fa ff ff 	mov    %rax,-0x600(%rbp)
    b2b1:	48 8d 05 fe 90 00 00 	lea    0x90fe(%rip),%rax        # 143b6 <g_332>
    b2b8:	48 89 85 08 fa ff ff 	mov    %rax,-0x5f8(%rbp)
    b2bf:	48 8d 05 f0 90 00 00 	lea    0x90f0(%rip),%rax        # 143b6 <g_332>
    b2c6:	48 89 85 10 fa ff ff 	mov    %rax,-0x5f0(%rbp)
    b2cd:	48 8d 05 e2 90 00 00 	lea    0x90e2(%rip),%rax        # 143b6 <g_332>
    b2d4:	48 89 85 18 fa ff ff 	mov    %rax,-0x5e8(%rbp)
    b2db:	48 8d 05 d4 90 00 00 	lea    0x90d4(%rip),%rax        # 143b6 <g_332>
    b2e2:	48 89 85 20 fa ff ff 	mov    %rax,-0x5e0(%rbp)
    b2e9:	48 8d 05 c6 90 00 00 	lea    0x90c6(%rip),%rax        # 143b6 <g_332>
    b2f0:	48 89 85 28 fa ff ff 	mov    %rax,-0x5d8(%rbp)
    b2f7:	48 8b 85 c8 f8 ff ff 	mov    -0x738(%rbp),%rax
    b2fe:	c1 e0 05             	shl    $0x5,%eax
    b301:	c0 f8 05             	sar    $0x5,%al
    b304:	0f b6 c0             	movzbl %al,%eax
    b307:	83 e0 07             	and    $0x7,%eax
    b30a:	c1 e0 06             	shl    $0x6,%eax
    b30d:	89 c2                	mov    %eax,%edx
    b30f:	0f b7 45 22          	movzwl 0x22(%rbp),%eax
    b313:	66 25 3f fe          	and    $0xfe3f,%ax
    b317:	09 d0                	or     %edx,%eax
    b319:	66 89 45 22          	mov    %ax,0x22(%rbp)
    b31d:	8b 85 4c f7 ff ff    	mov    -0x8b4(%rbp),%eax
    b323:	0f bf d8             	movswl %ax,%ebx
    b326:	48 8b 45 10          	mov    0x10(%rbp),%rax
    b32a:	48 c1 e0 07          	shl    $0x7,%rax
    b32e:	48 c1 f8 23          	sar    $0x23,%rax
    b332:	83 f8 01             	cmp    $0x1,%eax
    b335:	0f 9e c0             	setle  %al
    b338:	0f b6 c0             	movzbl %al,%eax
    b33b:	0f b6 55 1f          	movzbl 0x1f(%rbp),%edx
    b33f:	c0 ea 04             	shr    $0x4,%dl
    b342:	0f b6 d2             	movzbl %dl,%edx
    b345:	8b 4d 20             	mov    0x20(%rbp),%ecx
    b348:	81 e1 ff ff 3f 00    	and    $0x3fffff,%ecx
    b34e:	48 c1 e1 04          	shl    $0x4,%rcx
    b352:	48 09 ca             	or     %rcx,%rdx
    b355:	48 c1 e2 26          	shl    $0x26,%rdx
    b359:	48 c1 fa 26          	sar    $0x26,%rdx
    b35d:	89 c6                	mov    %eax,%esi
    b35f:	89 d7                	mov    %edx,%edi
    b361:	e8 6a ab ff ff       	callq  5ed0 <safe_sub_func_uint32_t_u_u>
    b366:	0f bf 95 f4 f6 ff ff 	movswl -0x90c(%rbp),%edx
    b36d:	39 d0                	cmp    %edx,%eax
    b36f:	48 8b 05 12 9d 00 00 	mov    0x9d12(%rip),%rax        # 15088 <g_294>
    b376:	48 8b 05 f3 9c 00 00 	mov    0x9cf3(%rip),%rax        # 15070 <g_252>
    b37d:	48 8b 00             	mov    (%rax),%rax
    b380:	48 85 c0             	test   %rax,%rax
    b383:	0f 95 c0             	setne  %al
    b386:	0f b6 c0             	movzbl %al,%eax
    b389:	be 07 00 00 00       	mov    $0x7,%esi
    b38e:	89 c7                	mov    %eax,%edi
    b390:	e8 59 9f ff ff       	callq  52ee <safe_lshift_func_int8_t_s_u>
    b395:	0f be d0             	movsbl %al,%edx
    b398:	b8 43 c3 a6 d6       	mov    $0xd6a6c343,%eax
    b39d:	33 85 d0 f6 ff ff    	xor    -0x930(%rbp),%eax
    b3a3:	39 c2                	cmp    %eax,%edx
    b3a5:	0f 93 c0             	setae  %al
    b3a8:	0f b6 c0             	movzbl %al,%eax
    b3ab:	89 c2                	mov    %eax,%edx
    b3ad:	0f b7 05 02 90 00 00 	movzwl 0x9002(%rip),%eax        # 143b6 <g_332>
    b3b4:	09 d0                	or     %edx,%eax
    b3b6:	66 89 05 f9 8f 00 00 	mov    %ax,0x8ff9(%rip)        # 143b6 <g_332>
    b3bd:	0f b7 05 f2 8f 00 00 	movzwl 0x8ff2(%rip),%eax        # 143b6 <g_332>
    b3c4:	66 3d 4b f7          	cmp    $0xf74b,%ax
    b3c8:	0f 95 c0             	setne  %al
    b3cb:	0f b6 c0             	movzbl %al,%eax
    b3ce:	39 85 4c f7 ff ff    	cmp    %eax,-0x8b4(%rbp)
    b3d4:	0f 9d c0             	setge  %al
    b3d7:	0f b6 c0             	movzbl %al,%eax
    b3da:	be 00 00 00 00       	mov    $0x0,%esi
    b3df:	89 c7                	mov    %eax,%edi
    b3e1:	e8 a7 a8 ff ff       	callq  5c8d <safe_rshift_func_uint8_t_u_s>
    b3e6:	0f be c0             	movsbl %al,%eax
    b3e9:	be 00 00 00 00       	mov    $0x0,%esi
    b3ee:	89 c7                	mov    %eax,%edi
    b3f0:	e8 f9 9e ff ff       	callq  52ee <safe_lshift_func_int8_t_s_u>
    b3f5:	0f be c0             	movsbl %al,%eax
    b3f8:	be 00 00 00 00       	mov    $0x0,%esi
    b3fd:	89 c7                	mov    %eax,%edi
    b3ff:	e8 01 a2 ff ff       	callq  5605 <safe_sub_func_int32_t_s_s>
    b404:	85 c0                	test   %eax,%eax
    b406:	be 00 00 00 00       	mov    $0x0,%esi
    b40b:	bf 00 00 00 00       	mov    $0x0,%edi
    b410:	e8 57 9f ff ff       	callq  536c <safe_rshift_func_int8_t_s_u>
    b415:	0f be c0             	movsbl %al,%eax
    b418:	8b 55 1c             	mov    0x1c(%rbp),%edx
    b41b:	81 e2 ff ff ff 0f    	and    $0xfffffff,%edx
    b421:	39 d0                	cmp    %edx,%eax
    b423:	0f 95 c0             	setne  %al
    b426:	0f b6 c0             	movzbl %al,%eax
    b429:	be 00 00 00 00       	mov    $0x0,%esi
    b42e:	89 c7                	mov    %eax,%edi
    b430:	e8 45 aa ff ff       	callq  5e7a <safe_rshift_func_uint16_t_u_u>
    b435:	98                   	cwtl   
    b436:	89 de                	mov    %ebx,%esi
    b438:	89 c7                	mov    %eax,%edi
    b43a:	e8 d7 9f ff ff       	callq  5416 <safe_mod_func_int16_t_s_s>
    b43f:	48 0f bf c0          	movswq %ax,%rax
    b443:	48 89 85 e8 f7 ff ff 	mov    %rax,-0x818(%rbp)
    b44a:	48 8b 45 10          	mov    0x10(%rbp),%rax
    b44e:	48 c1 e0 07          	shl    $0x7,%rax
    b452:	48 c1 f8 23          	sar    $0x23,%rax
    b456:	89 c2                	mov    %eax,%edx
    b458:	8b 45 18             	mov    0x18(%rbp),%eax
    b45b:	31 d0                	xor    %edx,%eax
    b45d:	c1 e0 03             	shl    $0x3,%eax
    b460:	c1 f8 03             	sar    $0x3,%eax
    b463:	89 c0                	mov    %eax,%eax
    b465:	25 ff ff ff 1f       	and    $0x1fffffff,%eax
    b46a:	48 c1 e0 1c          	shl    $0x1c,%rax
    b46e:	48 89 c2             	mov    %rax,%rdx
    b471:	48 8b 45 10          	mov    0x10(%rbp),%rax
    b475:	48 b9 ff ff ff 0f 00 	movabs $0xfe0000000fffffff,%rcx
    b47c:	00 00 fe 
    b47f:	48 21 c8             	and    %rcx,%rax
    b482:	48 09 d0             	or     %rdx,%rax
    b485:	48 89 45 10          	mov    %rax,0x10(%rbp)
    b489:	0f bf 9d f6 f6 ff ff 	movswl -0x90a(%rbp),%ebx
    b490:	44 8b a5 44 f7 ff ff 	mov    -0x8bc(%rbp),%r12d
    b497:	8b 45 1c             	mov    0x1c(%rbp),%eax
    b49a:	25 ff ff ff 0f       	and    $0xfffffff,%eax
    b49f:	41 89 c6             	mov    %eax,%r14d
    b4a2:	48 8d 05 a7 b5 00 00 	lea    0xb5a7(%rip),%rax        # 16a50 <g_253>
    b4a9:	48 89 85 e0 f7 ff ff 	mov    %rax,-0x820(%rbp)
    b4b0:	8b 45 10             	mov    0x10(%rbp),%eax
    b4b3:	c1 e0 04             	shl    $0x4,%eax
    b4b6:	c1 f8 04             	sar    $0x4,%eax
    b4b9:	85 c0                	test   %eax,%eax
    b4bb:	74 57                	je     b514 <func_49+0x1b32>
    b4bd:	0f b7 85 f6 f6 ff ff 	movzwl -0x90a(%rbp),%eax
    b4c4:	44 0f b7 e8          	movzwl %ax,%r13d
    b4c8:	0f b6 45 1f          	movzbl 0x1f(%rbp),%eax
    b4cc:	c0 e8 04             	shr    $0x4,%al
    b4cf:	0f b6 c0             	movzbl %al,%eax
    b4d2:	8b 55 20             	mov    0x20(%rbp),%edx
    b4d5:	81 e2 ff ff 3f 00    	and    $0x3fffff,%edx
    b4db:	48 c1 e2 04          	shl    $0x4,%rdx
    b4df:	48 09 d0             	or     %rdx,%rax
    b4e2:	48 c1 e0 26          	shl    $0x26,%rax
    b4e6:	48 c1 f8 26          	sar    $0x26,%rax
    b4ea:	98                   	cwtl   
    b4eb:	89 c6                	mov    %eax,%esi
    b4ed:	bf 02 00 00 00       	mov    $0x2,%edi
    b4f2:	e8 fe 9e ff ff       	callq  53f5 <safe_mul_func_int16_t_s_s>
    b4f7:	66 0d 6c 5c          	or     $0x5c6c,%ax
    b4fb:	0f b7 c0             	movzwl %ax,%eax
    b4fe:	44 89 ee             	mov    %r13d,%esi
    b501:	89 c7                	mov    %eax,%edi
    b503:	e8 17 a8 ff ff       	callq  5d1f <safe_sub_func_uint16_t_u_u>
    b508:	66 85 c0             	test   %ax,%ax
    b50b:	74 07                	je     b514 <func_49+0x1b32>
    b50d:	b8 01 00 00 00       	mov    $0x1,%eax
    b512:	eb 05                	jmp    b519 <func_49+0x1b37>
    b514:	b8 00 00 00 00       	mov    $0x0,%eax
    b519:	23 85 04 f7 ff ff    	and    -0x8fc(%rbp),%eax
    b51f:	83 e0 01             	and    $0x1,%eax
    b522:	89 c2                	mov    %eax,%edx
    b524:	8b 85 4c f7 ff ff    	mov    -0x8b4(%rbp),%eax
    b52a:	35 13 a6 00 00       	xor    $0xa613,%eax
    b52f:	39 85 0c f7 ff ff    	cmp    %eax,-0x8f4(%rbp)
    b535:	0f 9e c0             	setle  %al
    b538:	0f b6 c8             	movzbl %al,%ecx
    b53b:	48 8b 85 10 f8 ff ff 	mov    -0x7f0(%rbp),%rax
    b542:	66 89 08             	mov    %cx,(%rax)
    b545:	48 8b 85 10 f8 ff ff 	mov    -0x7f0(%rbp),%rax
    b54c:	0f b7 00             	movzwl (%rax),%eax
    b54f:	0f b7 c0             	movzwl %ax,%eax
    b552:	89 d6                	mov    %edx,%esi
    b554:	89 c7                	mov    %eax,%edi
    b556:	e8 63 a8 ff ff       	callq  5dbe <safe_lshift_func_uint16_t_u_s>
    b55b:	0f b7 c0             	movzwl %ax,%eax
    b55e:	48 39 85 e8 f7 ff ff 	cmp    %rax,-0x818(%rbp)
    b565:	0f 9f c0             	setg   %al
    b568:	0f b6 c0             	movzbl %al,%eax
    b56b:	be c3 a0 00 00       	mov    $0xa0c3,%esi
    b570:	89 c7                	mov    %eax,%edi
    b572:	e8 e5 a7 ff ff       	callq  5d5c <safe_mod_func_uint16_t_u_u>
    b577:	0f b7 c0             	movzwl %ax,%eax
    b57a:	44 89 f6             	mov    %r14d,%esi
    b57d:	89 c7                	mov    %eax,%edi
    b57f:	e8 c4 a8 ff ff       	callq  5e48 <safe_rshift_func_uint16_t_u_s>
    b584:	0f b7 c0             	movzwl %ax,%eax
    b587:	4c 89 e6             	mov    %r12,%rsi
    b58a:	48 89 c7             	mov    %rax,%rdi
    b58d:	e8 ee aa ff ff       	callq  6080 <safe_mod_func_uint64_t_u_u>
    b592:	89 c1                	mov    %eax,%ecx
    b594:	0f b6 45 1f          	movzbl 0x1f(%rbp),%eax
    b598:	c0 e8 04             	shr    $0x4,%al
    b59b:	0f b6 c0             	movzbl %al,%eax
    b59e:	8b 55 20             	mov    0x20(%rbp),%edx
    b5a1:	81 e2 ff ff 3f 00    	and    $0x3fffff,%edx
    b5a7:	48 c1 e2 04          	shl    $0x4,%rdx
    b5ab:	48 09 d0             	or     %rdx,%rax
    b5ae:	48 c1 e0 26          	shl    $0x26,%rax
    b5b2:	48 c1 f8 26          	sar    $0x26,%rax
    b5b6:	09 c8                	or     %ecx,%eax
    b5b8:	98                   	cwtl   
    b5b9:	be 0f 00 00 00       	mov    $0xf,%esi
    b5be:	89 c7                	mov    %eax,%edi
    b5c0:	e8 1c 9f ff ff       	callq  54e1 <safe_lshift_func_int16_t_s_u>
    b5c5:	0f b7 c0             	movzwl %ax,%eax
    b5c8:	be 0a 00 00 00       	mov    $0xa,%esi
    b5cd:	89 c7                	mov    %eax,%edi
    b5cf:	e8 32 a8 ff ff       	callq  5e06 <safe_lshift_func_uint16_t_u_u>
    b5d4:	89 c2                	mov    %eax,%edx
    b5d6:	48 8b 85 08 f8 ff ff 	mov    -0x7f8(%rbp),%rax
    b5dd:	48 8b 00             	mov    (%rax),%rax
    b5e0:	66 89 10             	mov    %dx,(%rax)
    b5e3:	0f b7 00             	movzwl (%rax),%eax
    b5e6:	98                   	cwtl   
    b5e7:	89 de                	mov    %ebx,%esi
    b5e9:	89 c7                	mov    %eax,%edi
    b5eb:	e8 73 9f ff ff       	callq  5563 <safe_rshift_func_int16_t_s_u>
    b5f0:	66 85 c0             	test   %ax,%ax
    b5f3:	74 3e                	je     b633 <func_49+0x1c51>
    b5f5:	48 8b 05 8c 9a 00 00 	mov    0x9a8c(%rip),%rax        # 15088 <g_294>
    b5fc:	48 8b 4d 10          	mov    0x10(%rbp),%rcx
    b600:	48 8b 5d 18          	mov    0x18(%rbp),%rbx
    b604:	48 89 08             	mov    %rcx,(%rax)
    b607:	48 89 58 08          	mov    %rbx,0x8(%rax)
    b60b:	8b 55 20             	mov    0x20(%rbp),%edx
    b60e:	89 50 10             	mov    %edx,0x10(%rax)
    b611:	0f b7 55 24          	movzwl 0x24(%rbp),%edx
    b615:	66 89 50 14          	mov    %dx,0x14(%rax)
    b619:	0f b6 55 26          	movzbl 0x26(%rbp),%edx
    b61d:	88 50 16             	mov    %dl,0x16(%rax)
    b620:	8b 05 a6 8c 00 00    	mov    0x8ca6(%rip),%eax        # 142cc <g_120+0xac>
    b626:	35 05 e8 39 08       	xor    $0x839e805,%eax
    b62b:	89 05 9b 8c 00 00    	mov    %eax,0x8c9b(%rip)        # 142cc <g_120+0xac>
    b631:	eb 1a                	jmp    b64d <func_49+0x1c6b>
    b633:	48 8b 05 56 9a 00 00 	mov    0x9a56(%rip),%rax        # 15090 <g_360>
    b63a:	48 8b 15 7f 8d 00 00 	mov    0x8d7f(%rip),%rdx        # 143c0 <g_359>
    b641:	48 89 10             	mov    %rdx,(%rax)
    b644:	8b 15 7e 8d 00 00    	mov    0x8d7e(%rip),%edx        # 143c8 <g_359+0x8>
    b64a:	89 50 08             	mov    %edx,0x8(%rax)
    b64d:	0f b6 45 1f          	movzbl 0x1f(%rbp),%eax
    b651:	c0 e8 04             	shr    $0x4,%al
    b654:	0f b6 c0             	movzbl %al,%eax
    b657:	8b 55 20             	mov    0x20(%rbp),%edx
    b65a:	81 e2 ff ff 3f 00    	and    $0x3fffff,%edx
    b660:	48 c1 e2 04          	shl    $0x4,%rdx
    b664:	48 09 d0             	or     %rdx,%rax
    b667:	48 c1 e0 26          	shl    $0x26,%rax
    b66b:	48 c1 f8 26          	sar    $0x26,%rax
    b66f:	85 c0                	test   %eax,%eax
    b671:	0f 84 2a 02 00 00    	je     b8a1 <func_49+0x1ebf>
    b677:	48 8d 05 38 8d 00 00 	lea    0x8d38(%rip),%rax        # 143b6 <g_332>
    b67e:	48 89 85 28 f8 ff ff 	mov    %rax,-0x7d8(%rbp)
    b685:	66 c7 85 f8 f6 ff ff 	movw   $0x2388,-0x908(%rbp)
    b68c:	88 23 
    b68e:	c7 85 6c f7 ff ff 0d 	movl   $0x3af5d0d,-0x894(%rbp)
    b695:	5d af 03 
    b698:	c7 85 70 f7 ff ff ff 	movl   $0xffffffff,-0x890(%rbp)
    b69f:	ff ff ff 
    b6a2:	c7 85 74 f7 ff ff fb 	movl   $0xfffffffb,-0x88c(%rbp)
    b6a9:	ff ff ff 
    b6ac:	c7 85 78 f7 ff ff 00 	movl   $0x0,-0x888(%rbp)
    b6b3:	00 00 00 
    b6b6:	c7 85 7c f7 ff ff 01 	movl   $0x1,-0x884(%rbp)
    b6bd:	00 00 00 
    b6c0:	c7 85 40 f7 ff ff 00 	movl   $0x0,-0x8c0(%rbp)
    b6c7:	00 00 00 
    b6ca:	eb 1a                	jmp    b6e6 <func_49+0x1d04>
    b6cc:	8b 85 40 f7 ff ff    	mov    -0x8c0(%rbp),%eax
    b6d2:	48 98                	cltq   
    b6d4:	c7 84 85 f0 f8 ff ff 	movl   $0xd6896c1c,-0x710(%rbp,%rax,4)
    b6db:	1c 6c 89 d6 
    b6df:	83 85 40 f7 ff ff 01 	addl   $0x1,-0x8c0(%rbp)
    b6e6:	83 bd 40 f7 ff ff 06 	cmpl   $0x6,-0x8c0(%rbp)
    b6ed:	7e dd                	jle    b6cc <func_49+0x1cea>
    b6ef:	48 8b 85 28 f8 ff ff 	mov    -0x7d8(%rbp),%rax
    b6f6:	0f b7 00             	movzwl (%rax),%eax
    b6f9:	8d 50 01             	lea    0x1(%rax),%edx
    b6fc:	48 8b 85 28 f8 ff ff 	mov    -0x7d8(%rbp),%rax
    b703:	66 89 10             	mov    %dx,(%rax)
    b706:	48 8d 85 d0 f8 ff ff 	lea    -0x730(%rbp),%rax
    b70d:	48 89 85 30 f8 ff ff 	mov    %rax,-0x7d0(%rbp)
    b714:	48 8b 45 10          	mov    0x10(%rbp),%rax
    b718:	48 c1 e0 07          	shl    $0x7,%rax
    b71c:	48 c1 f8 23          	sar    $0x23,%rax
    b720:	85 c0                	test   %eax,%eax
    b722:	0f 85 6d 01 00 00    	jne    b895 <func_49+0x1eb3>
    b728:	83 bd 4c f7 ff ff 00 	cmpl   $0x0,-0x8b4(%rbp)
    b72f:	0f 85 66 01 00 00    	jne    b89b <func_49+0x1eb9>
    b735:	48 8b 95 d0 f8 ff ff 	mov    -0x730(%rbp),%rdx
    b73c:	48 8b 85 30 f8 ff ff 	mov    -0x7d0(%rbp),%rax
    b743:	48 89 10             	mov    %rdx,(%rax)
    b746:	c7 85 d0 f6 ff ff 00 	movl   $0x0,-0x930(%rbp)
    b74d:	00 00 00 
    b750:	e9 ea 00 00 00       	jmpq   b83f <func_49+0x1e5d>
    b755:	48 8d 05 14 8b 00 00 	lea    0x8b14(%rip),%rax        # 14270 <g_120+0x50>
    b75c:	48 89 85 38 f8 ff ff 	mov    %rax,-0x7c8(%rbp)
    b763:	c7 85 80 f7 ff ff 01 	movl   $0x1,-0x880(%rbp)
    b76a:	00 00 00 
    b76d:	c7 85 84 f7 ff ff e1 	movl   $0x6d0770e1,-0x87c(%rbp)
    b774:	70 07 6d 
    b777:	c7 85 88 f7 ff ff 61 	movl   $0xa2feff61,-0x878(%rbp)
    b77e:	ff fe a2 
    b781:	c7 85 8c f7 ff ff 45 	movl   $0x1a295a45,-0x874(%rbp)
    b788:	5a 29 1a 
    b78b:	c7 85 f0 f9 ff ff ff 	movl   $0xffffffff,-0x610(%rbp)
    b792:	ff ff ff 
    b795:	c7 85 f4 f9 ff ff ff 	movl   $0xffffffff,-0x60c(%rbp)
    b79c:	ff ff ff 
    b79f:	c7 85 f8 f9 ff ff ff 	movl   $0xffffffff,-0x608(%rbp)
    b7a6:	ff ff ff 
    b7a9:	c7 85 fc f9 ff ff ff 	movl   $0xffffffff,-0x604(%rbp)
    b7b0:	ff ff ff 
    b7b3:	c7 85 00 fa ff ff ff 	movl   $0xffffffff,-0x600(%rbp)
    b7ba:	ff ff ff 
    b7bd:	c7 85 04 fa ff ff ff 	movl   $0xffffffff,-0x5fc(%rbp)
    b7c4:	ff ff ff 
    b7c7:	c7 85 08 fa ff ff ff 	movl   $0xffffffff,-0x5f8(%rbp)
    b7ce:	ff ff ff 
    b7d1:	c7 85 0c fa ff ff ff 	movl   $0xffffffff,-0x5f4(%rbp)
    b7d8:	ff ff ff 
    b7db:	c7 85 10 fa ff ff ff 	movl   $0xffffffff,-0x5f0(%rbp)
    b7e2:	ff ff ff 
    b7e5:	c7 85 14 fa ff ff ff 	movl   $0xffffffff,-0x5ec(%rbp)
    b7ec:	ff ff ff 
    b7ef:	66 c7 85 fa f6 ff ff 	movw   $0x4,-0x906(%rbp)
    b7f6:	04 00 
    b7f8:	48 c7 85 38 f8 ff ff 	movq   $0x0,-0x7c8(%rbp)
    b7ff:	00 00 00 00 
    b803:	0f b7 85 fa f6 ff ff 	movzwl -0x906(%rbp),%eax
    b80a:	83 e8 01             	sub    $0x1,%eax
    b80d:	66 89 85 fa f6 ff ff 	mov    %ax,-0x906(%rbp)
    b814:	0f b7 05 90 8b 00 00 	movzwl 0x8b90(%rip),%eax        # 143ab <g_288+0xb>
    b81b:	66 85 c0             	test   %ax,%ax
    b81e:	75 2e                	jne    b84e <func_49+0x1e6c>
    b820:	48 8b 05 51 8b 00 00 	mov    0x8b51(%rip),%rax        # 14378 <g_152+0x8>
    b827:	48 c1 e8 08          	shr    $0x8,%rax
    b82b:	66 25 ff 01          	and    $0x1ff,%ax
    b82f:	0f b7 c0             	movzwl %ax,%eax
    b832:	31 85 2c f7 ff ff    	xor    %eax,-0x8d4(%rbp)
    b838:	83 85 d0 f6 ff ff 01 	addl   $0x1,-0x930(%rbp)
    b83f:	83 bd d0 f6 ff ff 02 	cmpl   $0x2,-0x930(%rbp)
    b846:	0f 86 09 ff ff ff    	jbe    b755 <func_49+0x1d73>
    b84c:	eb 01                	jmp    b84f <func_49+0x1e6d>
    b84e:	90                   	nop
    b84f:	c7 85 04 f7 ff ff 00 	movl   $0x0,-0x8fc(%rbp)
    b856:	00 00 00 
    b859:	eb 2f                	jmp    b88a <func_49+0x1ea8>
    b85b:	c7 85 90 f7 ff ff ff 	movl   $0xffffffff,-0x870(%rbp)
    b862:	ff ff ff 
    b865:	83 85 90 f7 ff ff 01 	addl   $0x1,-0x870(%rbp)
    b86c:	8b 85 04 f7 ff ff    	mov    -0x8fc(%rbp),%eax
    b872:	0f b6 c0             	movzbl %al,%eax
    b875:	be 07 00 00 00       	mov    $0x7,%esi
    b87a:	89 c7                	mov    %eax,%edi
    b87c:	e8 d9 a2 ff ff       	callq  5b5a <safe_add_func_uint8_t_u_u>
    b881:	0f b6 c0             	movzbl %al,%eax
    b884:	89 85 04 f7 ff ff    	mov    %eax,-0x8fc(%rbp)
    b88a:	83 bd 04 f7 ff ff 1c 	cmpl   $0x1c,-0x8fc(%rbp)
    b891:	75 c8                	jne    b85b <func_49+0x1e79>
    b893:	eb 6f                	jmp    b904 <func_49+0x1f22>
    b895:	90                   	nop
    b896:	e9 94 00 00 00       	jmpq   b92f <func_49+0x1f4d>
    b89b:	90                   	nop
    b89c:	e9 8e 00 00 00       	jmpq   b92f <func_49+0x1f4d>
    b8a1:	c7 85 28 f7 ff ff 00 	movl   $0x0,-0x8d8(%rbp)
    b8a8:	00 00 00 
    b8ab:	eb 3d                	jmp    b8ea <func_49+0x1f08>
    b8ad:	48 8d 05 94 b1 00 00 	lea    0xb194(%rip),%rax        # 16a48 <g_138>
    b8b4:	48 89 85 20 f8 ff ff 	mov    %rax,-0x7e0(%rbp)
    b8bb:	48 8b 85 d8 f7 ff ff 	mov    -0x828(%rbp),%rax
    b8c2:	48 8b 95 20 f8 ff ff 	mov    -0x7e0(%rbp),%rdx
    b8c9:	48 89 10             	mov    %rdx,(%rax)
    b8cc:	8b 85 28 f7 ff ff    	mov    -0x8d8(%rbp),%eax
    b8d2:	0f b7 c0             	movzwl %ax,%eax
    b8d5:	be 06 00 00 00       	mov    $0x6,%esi
    b8da:	89 c7                	mov    %eax,%edi
    b8dc:	e8 3e a4 ff ff       	callq  5d1f <safe_sub_func_uint16_t_u_u>
    b8e1:	0f b7 c0             	movzwl %ax,%eax
    b8e4:	89 85 28 f7 ff ff    	mov    %eax,-0x8d8(%rbp)
    b8ea:	83 bd 28 f7 ff ff e5 	cmpl   $0xffffffe5,-0x8d8(%rbp)
    b8f1:	7d ba                	jge    b8ad <func_49+0x1ecb>
    b8f3:	48 8b 05 36 98 00 00 	mov    0x9836(%rip),%rax        # 15130 <g_414>
    b8fa:	48 8b 15 27 98 00 00 	mov    0x9827(%rip),%rdx        # 15128 <g_412>
    b901:	48 89 10             	mov    %rdx,(%rax)
    b904:	8b 85 08 f7 ff ff    	mov    -0x8f8(%rbp),%eax
    b90a:	0f be c0             	movsbl %al,%eax
    b90d:	be 02 00 00 00       	mov    $0x2,%esi
    b912:	89 c7                	mov    %eax,%edi
    b914:	e8 bb 98 ff ff       	callq  51d4 <safe_add_func_int8_t_s_s>
    b919:	0f be c0             	movsbl %al,%eax
    b91c:	89 85 08 f7 ff ff    	mov    %eax,-0x8f8(%rbp)
    b922:	83 bd 08 f7 ff ff 02 	cmpl   $0x2,-0x8f8(%rbp)
    b929:	0f 8f a7 f6 ff ff    	jg     afd6 <func_49+0x15f4>
    b92f:	48 8b 05 0a 8a 00 00 	mov    0x8a0a(%rip),%rax        # 14340 <g_142+0x40>
    b936:	48 c1 e0 1f          	shl    $0x1f,%rax
    b93a:	48 c1 f8 3e          	sar    $0x3e,%rax
    b93e:	66 98                	cbtw   
    b940:	0f b7 d8             	movzwl %ax,%ebx
    b943:	0f b6 85 da f6 ff ff 	movzbl -0x926(%rbp),%eax
    b94a:	0f b6 95 db f6 ff ff 	movzbl -0x925(%rbp),%edx
    b951:	83 e2 03             	and    $0x3,%edx
    b954:	48 c1 e2 08          	shl    $0x8,%rdx
    b958:	48 09 d0             	or     %rdx,%rax
    b95b:	44 0f be e0          	movsbl %al,%r12d
    b95f:	48 8b 05 da 89 00 00 	mov    0x89da(%rip),%rax        # 14340 <g_142+0x40>
    b966:	48 c1 e0 1f          	shl    $0x1f,%rax
    b96a:	48 c1 f8 3e          	sar    $0x3e,%rax
    b96e:	44 0f be e8          	movsbl %al,%r13d
    b972:	8b 85 00 f7 ff ff    	mov    -0x900(%rbp),%eax
    b978:	44 0f be f0          	movsbl %al,%r14d
    b97c:	0f b7 15 d8 89 00 00 	movzwl 0x89d8(%rip),%edx        # 1435b <g_151+0xb>
    b983:	0f b6 05 fe 89 00 00 	movzbl 0x89fe(%rip),%eax        # 14388 <g_223>
    b98a:	0f b6 c0             	movzbl %al,%eax
    b98d:	66 39 c2             	cmp    %ax,%dx
    b990:	0f 95 c0             	setne  %al
    b993:	0f b6 c0             	movzbl %al,%eax
    b996:	be da 00 00 00       	mov    $0xda,%esi
    b99b:	89 c7                	mov    %eax,%edi
    b99d:	e8 b8 a1 ff ff       	callq  5b5a <safe_add_func_uint8_t_u_u>
    b9a2:	83 f0 fe             	xor    $0xfffffffe,%eax
    b9a5:	0f b6 d0             	movzbl %al,%edx
    b9a8:	48 8b 85 f0 f7 ff ff 	mov    -0x810(%rbp),%rax
    b9af:	89 10                	mov    %edx,(%rax)
    b9b1:	48 8b 85 f0 f7 ff ff 	mov    -0x810(%rbp),%rax
    b9b8:	8b 10                	mov    (%rax),%edx
    b9ba:	0f b6 05 9d 86 00 00 	movzbl 0x869d(%rip),%eax        # 1405e <g_115+0x1e>
    b9c1:	0f b6 c0             	movzbl %al,%eax
    b9c4:	39 c2                	cmp    %eax,%edx
    b9c6:	0f 92 c0             	setb   %al
    b9c9:	0f b6 c0             	movzbl %al,%eax
    b9cc:	44 89 f6             	mov    %r14d,%esi
    b9cf:	89 c7                	mov    %eax,%edi
    b9d1:	e8 3c 98 ff ff       	callq  5212 <safe_mul_func_int8_t_s_s>
    b9d6:	48 8b 95 b8 f7 ff ff 	mov    -0x848(%rbp),%rdx
    b9dd:	48 8b 12             	mov    (%rdx),%rdx
    b9e0:	0f b7 0a             	movzwl (%rdx),%ecx
    b9e3:	66 0f be d0          	movsbw %al,%dx
    b9e7:	48 8b 85 b8 f7 ff ff 	mov    -0x848(%rbp),%rax
    b9ee:	48 8b 00             	mov    (%rax),%rax
    b9f1:	31 ca                	xor    %ecx,%edx
    b9f3:	66 89 10             	mov    %dx,(%rax)
    b9f6:	0f b7 00             	movzwl (%rax),%eax
    b9f9:	0f bf d0             	movswl %ax,%edx
    b9fc:	8b 85 bc f8 ff ff    	mov    -0x744(%rbp),%eax
    ba02:	21 d0                	and    %edx,%eax
    ba04:	85 c0                	test   %eax,%eax
    ba06:	75 09                	jne    ba11 <func_49+0x202f>
    ba08:	83 bd 08 f7 ff ff 00 	cmpl   $0x0,-0x8f8(%rbp)
    ba0f:	74 07                	je     ba18 <func_49+0x2036>
    ba11:	b8 01 00 00 00       	mov    $0x1,%eax
    ba16:	eb 05                	jmp    ba1d <func_49+0x203b>
    ba18:	b8 00 00 00 00       	mov    $0x0,%eax
    ba1d:	44 89 ee             	mov    %r13d,%esi
    ba20:	89 c7                	mov    %eax,%edi
    ba22:	e8 8f 9b ff ff       	callq  55b6 <safe_add_func_int32_t_s_s>
    ba27:	0f b6 d0             	movzbl %al,%edx
    ba2a:	8b 85 48 f7 ff ff    	mov    -0x8b8(%rbp),%eax
    ba30:	0f b6 c0             	movzbl %al,%eax
    ba33:	89 d6                	mov    %edx,%esi
    ba35:	89 c7                	mov    %eax,%edi
    ba37:	e8 57 a1 ff ff       	callq  5b93 <safe_mul_func_uint8_t_u_u>
    ba3c:	84 c0                	test   %al,%al
    ba3e:	75 07                	jne    ba47 <func_49+0x2065>
    ba40:	83 bd 44 f7 ff ff 00 	cmpl   $0x0,-0x8bc(%rbp)
    ba47:	8b 85 44 f7 ff ff    	mov    -0x8bc(%rbp),%eax
    ba4d:	0f be c0             	movsbl %al,%eax
    ba50:	44 89 e6             	mov    %r12d,%esi
    ba53:	89 c7                	mov    %eax,%edi
    ba55:	e8 10 98 ff ff       	callq  526a <safe_div_func_int8_t_s_s>
    ba5a:	0f be d0             	movsbl %al,%edx
    ba5d:	0f b7 05 52 89 00 00 	movzwl 0x8952(%rip),%eax        # 143b6 <g_332>
    ba64:	0f b7 c0             	movzwl %ax,%eax
    ba67:	39 c2                	cmp    %eax,%edx
    ba69:	0f 9f c0             	setg   %al
    ba6c:	0f b6 c0             	movzbl %al,%eax
    ba6f:	89 de                	mov    %ebx,%esi
    ba71:	89 c7                	mov    %eax,%edi
    ba73:	e8 a7 a2 ff ff       	callq  5d1f <safe_sub_func_uint16_t_u_u>
    ba78:	0f b7 d8             	movzwl %ax,%ebx
    ba7b:	be fb ff ff ff       	mov    $0xfffffffb,%esi
    ba80:	bf 00 00 00 00       	mov    $0x0,%edi
    ba85:	e8 8c 99 ff ff       	callq  5416 <safe_mod_func_int16_t_s_s>
    ba8a:	41 89 c4             	mov    %eax,%r12d
    ba8d:	be 06 00 00 00       	mov    $0x6,%esi
    ba92:	bf f7 ff ff ff       	mov    $0xfffffff7,%edi
    ba97:	e8 52 98 ff ff       	callq  52ee <safe_lshift_func_int8_t_s_u>
    ba9c:	44 31 e0             	xor    %r12d,%eax
    ba9f:	0f be c0             	movsbl %al,%eax
    baa2:	89 de                	mov    %ebx,%esi
    baa4:	89 c7                	mov    %eax,%edi
    baa6:	e8 f6 97 ff ff       	callq  52a1 <safe_lshift_func_int8_t_s_s>
    baab:	0f be c0             	movsbl %al,%eax
    baae:	be c2 ff ff ff       	mov    $0xffffffc2,%esi
    bab3:	89 c7                	mov    %eax,%edi
    bab5:	e8 b0 97 ff ff       	callq  526a <safe_div_func_int8_t_s_s>
    baba:	66 98                	cbtw   
    babc:	0f b7 c0             	movzwl %ax,%eax
    babf:	8b 95 48 f7 ff ff    	mov    -0x8b8(%rbp),%edx
    bac5:	89 d6                	mov    %edx,%esi
    bac7:	89 c7                	mov    %eax,%edi
    bac9:	e8 f0 a2 ff ff       	callq  5dbe <safe_lshift_func_uint16_t_u_s>
    bace:	0f be c0             	movsbl %al,%eax
    bad1:	89 c6                	mov    %eax,%esi
    bad3:	bf 54 00 00 00       	mov    $0x54,%edi
    bad8:	e8 f7 96 ff ff       	callq  51d4 <safe_add_func_int8_t_s_s>
    badd:	48 8b 95 f8 f7 ff ff 	mov    -0x808(%rbp),%rdx
    bae4:	8b 12                	mov    (%rdx),%edx
    bae6:	0f be c0             	movsbl %al,%eax
    bae9:	21 c2                	and    %eax,%edx
    baeb:	48 8b 85 f8 f7 ff ff 	mov    -0x808(%rbp),%rax
    baf2:	89 10                	mov    %edx,(%rax)
    baf4:	48 8b 85 f8 f7 ff ff 	mov    -0x808(%rbp),%rax
    bafb:	8b 00                	mov    (%rax),%eax
    bafd:	be 0b 80 22 b8       	mov    $0xb822800b,%esi
    bb02:	89 c7                	mov    %eax,%edi
    bb04:	e8 af a3 ff ff       	callq  5eb8 <safe_add_func_uint32_t_u_u>
    bb09:	0f b7 c0             	movzwl %ax,%eax
    bb0c:	be f7 ff 00 00       	mov    $0xfff7,%esi
    bb11:	89 c7                	mov    %eax,%edi
    bb13:	e8 07 a2 ff ff       	callq  5d1f <safe_sub_func_uint16_t_u_u>
    bb18:	0f b6 c0             	movzbl %al,%eax
    bb1b:	be d4 00 00 00       	mov    $0xd4,%esi
    bb20:	89 c7                	mov    %eax,%edi
    bb22:	e8 87 a0 ff ff       	callq  5bae <safe_mod_func_uint8_t_u_u>
    bb27:	0f b6 d0             	movzbl %al,%edx
    bb2a:	48 8b 05 0f 88 00 00 	mov    0x880f(%rip),%rax        # 14340 <g_142+0x40>
    bb31:	48 c1 e0 1f          	shl    $0x1f,%rax
    bb35:	48 c1 f8 3e          	sar    $0x3e,%rax
    bb39:	0f be c0             	movsbl %al,%eax
    bb3c:	39 c2                	cmp    %eax,%edx
    bb3e:	0f 95 c0             	setne  %al
    bb41:	0f b6 c0             	movzbl %al,%eax
    bb44:	be 03 00 00 00       	mov    $0x3,%esi
    bb49:	89 c7                	mov    %eax,%edi
    bb4b:	e8 13 9a ff ff       	callq  5563 <safe_rshift_func_int16_t_s_u>
    bb50:	be 08 00 00 00       	mov    $0x8,%esi
    bb55:	bf 01 00 00 00       	mov    $0x1,%edi
    bb5a:	e8 93 96 ff ff       	callq  51f2 <safe_sub_func_int8_t_s_s>
    bb5f:	0f be d0             	movsbl %al,%edx
    bb62:	0f b6 05 dc 87 00 00 	movzbl 0x87dc(%rip),%eax        # 14345 <g_143>
    bb69:	0f b6 0d d6 87 00 00 	movzbl 0x87d6(%rip),%ecx        # 14346 <g_143+0x1>
    bb70:	83 e1 03             	and    $0x3,%ecx
    bb73:	48 c1 e1 08          	shl    $0x8,%rcx
    bb77:	48 09 c8             	or     %rcx,%rax
    bb7a:	0f b7 c0             	movzwl %ax,%eax
    bb7d:	39 c2                	cmp    %eax,%edx
    bb7f:	0f 9e c0             	setle  %al
    bb82:	0f b6 c8             	movzbl %al,%ecx
    bb85:	48 8b 85 a8 f7 ff ff 	mov    -0x858(%rbp),%rax
    bb8c:	0f b6 10             	movzbl (%rax),%edx
    bb8f:	8d 72 01             	lea    0x1(%rdx),%esi
    bb92:	40 88 30             	mov    %sil,(%rax)
    bb95:	0f b6 c2             	movzbl %dl,%eax
    bb98:	89 ce                	mov    %ecx,%esi
    bb9a:	89 c7                	mov    %eax,%edi
    bb9c:	e8 d7 9f ff ff       	callq  5b78 <safe_sub_func_uint8_t_u_u>
    bba1:	0f b6 c0             	movzbl %al,%eax
    bba4:	21 85 0c f7 ff ff    	and    %eax,-0x8f4(%rbp)
    bbaa:	eb 01                	jmp    bbad <func_49+0x21cb>
    bbac:	90                   	nop
    bbad:	8b 45 18             	mov    0x18(%rbp),%eax
    bbb0:	be 04 00 00 00       	mov    $0x4,%esi
    bbb5:	89 c7                	mov    %eax,%edi
    bbb7:	e8 fc a2 ff ff       	callq  5eb8 <safe_add_func_uint32_t_u_u>
    bbbc:	89 45 18             	mov    %eax,0x18(%rbp)
    bbbf:	8b 45 18             	mov    0x18(%rbp),%eax
    bbc2:	83 f8 33             	cmp    $0x33,%eax
    bbc5:	0f 87 0f df ff ff    	ja     9ada <func_49+0xf8>
    bbcb:	eb 04                	jmp    bbd1 <func_49+0x21ef>
    bbcd:	90                   	nop
    bbce:	eb 01                	jmp    bbd1 <func_49+0x21ef>
    bbd0:	90                   	nop
    bbd1:	48 8b 05 60 95 00 00 	mov    0x9560(%rip),%rax        # 15138 <g_457>
    bbd8:	8b 10                	mov    (%rax),%edx
    bbda:	33 95 0c f7 ff ff    	xor    -0x8f4(%rbp),%edx
    bbe0:	89 10                	mov    %edx,(%rax)
    bbe2:	8b 45 1c             	mov    0x1c(%rbp),%eax
    bbe5:	25 ff ff ff 0f       	and    $0xfffffff,%eax
    bbea:	48 8b 5d c8          	mov    -0x38(%rbp),%rbx
    bbee:	64 48 33 1c 25 28 00 	xor    %fs:0x28,%rbx
    bbf5:	00 00 
    bbf7:	74 05                	je     bbfe <func_49+0x221c>
    bbf9:	e8 72 94 ff ff       	callq  5070 <__stack_chk_fail@plt>
    bbfe:	48 81 c4 18 09 00 00 	add    $0x918,%rsp
    bc05:	5b                   	pop    %rbx
    bc06:	41 5c                	pop    %r12
    bc08:	41 5d                	pop    %r13
    bc0a:	41 5e                	pop    %r14
    bc0c:	41 5f                	pop    %r15
    bc0e:	5d                   	pop    %rbp
    bc0f:	c3                   	retq   

000000000000bc10 <func_64>:
    bc10:	f3 0f 1e fa          	endbr64 
    bc14:	55                   	push   %rbp
    bc15:	48 89 e5             	mov    %rsp,%rbp
    bc18:	48 81 ec b0 04 00 00 	sub    $0x4b0,%rsp
    bc1f:	89 bd 5c fb ff ff    	mov    %edi,-0x4a4(%rbp)
    bc25:	48 89 b5 50 fb ff ff 	mov    %rsi,-0x4b0(%rbp)
    bc2c:	64 48 8b 04 25 28 00 	mov    %fs:0x28,%rax
    bc33:	00 00 
    bc35:	48 89 45 f8          	mov    %rax,-0x8(%rbp)
    bc39:	31 c0                	xor    %eax,%eax
    bc3b:	48 8d 05 2e 86 00 00 	lea    0x862e(%rip),%rax        # 14270 <g_120+0x50>
    bc42:	48 89 85 78 fb ff ff 	mov    %rax,-0x488(%rbp)
    bc49:	48 8d 05 20 86 00 00 	lea    0x8620(%rip),%rax        # 14270 <g_120+0x50>
    bc50:	48 89 85 80 fb ff ff 	mov    %rax,-0x480(%rbp)
    bc57:	c7 85 6c fb ff ff fc 	movl   $0xfffffffc,-0x494(%rbp)
    bc5e:	ff ff ff 
    bc61:	48 8d 05 08 86 00 00 	lea    0x8608(%rip),%rax        # 14270 <g_120+0x50>
    bc68:	48 89 85 88 fb ff ff 	mov    %rax,-0x478(%rbp)
    bc6f:	48 8d 05 fa 85 00 00 	lea    0x85fa(%rip),%rax        # 14270 <g_120+0x50>
    bc76:	48 89 85 90 fb ff ff 	mov    %rax,-0x470(%rbp)
    bc7d:	48 c7 85 98 fb ff ff 	movq   $0x0,-0x468(%rbp)
    bc84:	00 00 00 00 
    bc88:	48 c7 85 a0 fb ff ff 	movq   $0x0,-0x460(%rbp)
    bc8f:	00 00 00 00 
    bc93:	48 8d 05 d6 85 00 00 	lea    0x85d6(%rip),%rax        # 14270 <g_120+0x50>
    bc9a:	48 89 85 a8 fb ff ff 	mov    %rax,-0x458(%rbp)
    bca1:	48 c7 85 b0 fb ff ff 	movq   $0x0,-0x450(%rbp)
    bca8:	00 00 00 00 
    bcac:	48 c7 85 b8 fb ff ff 	movq   $0x0,-0x448(%rbp)
    bcb3:	00 00 00 00 
    bcb7:	48 8d 05 b2 85 00 00 	lea    0x85b2(%rip),%rax        # 14270 <g_120+0x50>
    bcbe:	48 89 85 c0 fb ff ff 	mov    %rax,-0x440(%rbp)
    bcc5:	48 c7 85 c8 fb ff ff 	movq   $0x0,-0x438(%rbp)
    bccc:	00 00 00 00 
    bcd0:	48 c7 85 d0 fb ff ff 	movq   $0x0,-0x430(%rbp)
    bcd7:	00 00 00 00 
    bcdb:	c6 85 67 fb ff ff 01 	movb   $0x1,-0x499(%rbp)
    bce2:	c6 85 68 fb ff ff a4 	movb   $0xa4,-0x498(%rbp)
    bce9:	48 8d 85 30 fc ff ff 	lea    -0x3d0(%rbp),%rax
    bcf0:	48 8d 15 09 3e 00 00 	lea    0x3e09(%rip),%rdx        # fb00 <g_2179+0xa34>
    bcf7:	b9 78 00 00 00       	mov    $0x78,%ecx
    bcfc:	48 89 c7             	mov    %rax,%rdi
    bcff:	48 89 d6             	mov    %rdx,%rsi
    bd02:	f3 48 a5             	rep movsq %ds:(%rsi),%es:(%rdi)
    bd05:	c6 85 69 fb ff ff fd 	movb   $0xfd,-0x497(%rbp)
    bd0c:	66 c7 85 6a fb ff ff 	movw   $0xf472,-0x496(%rbp)
    bd13:	72 f4 
    bd15:	48 8d 05 08 83 00 00 	lea    0x8308(%rip),%rax        # 14024 <g_74>
    bd1c:	48 89 85 70 fb ff ff 	mov    %rax,-0x490(%rbp)
    bd23:	48 8d 85 70 fb ff ff 	lea    -0x490(%rbp),%rax
    bd2a:	48 89 85 e0 fb ff ff 	mov    %rax,-0x420(%rbp)
    bd31:	48 8d 85 70 fb ff ff 	lea    -0x490(%rbp),%rax
    bd38:	48 89 85 e8 fb ff ff 	mov    %rax,-0x418(%rbp)
    bd3f:	48 8d 85 70 fb ff ff 	lea    -0x490(%rbp),%rax
    bd46:	48 89 85 f0 fb ff ff 	mov    %rax,-0x410(%rbp)
    bd4d:	48 8d 85 70 fb ff ff 	lea    -0x490(%rbp),%rax
    bd54:	48 89 85 f8 fb ff ff 	mov    %rax,-0x408(%rbp)
    bd5b:	48 8d 85 70 fb ff ff 	lea    -0x490(%rbp),%rax
    bd62:	48 89 85 00 fc ff ff 	mov    %rax,-0x400(%rbp)
    bd69:	48 8d 85 70 fb ff ff 	lea    -0x490(%rbp),%rax
    bd70:	48 89 85 08 fc ff ff 	mov    %rax,-0x3f8(%rbp)
    bd77:	48 8d 85 70 fb ff ff 	lea    -0x490(%rbp),%rax
    bd7e:	48 89 85 10 fc ff ff 	mov    %rax,-0x3f0(%rbp)
    bd85:	48 8d 85 70 fb ff ff 	lea    -0x490(%rbp),%rax
    bd8c:	48 89 85 18 fc ff ff 	mov    %rax,-0x3e8(%rbp)
    bd93:	48 8d 85 70 fb ff ff 	lea    -0x490(%rbp),%rax
    bd9a:	48 89 85 20 fc ff ff 	mov    %rax,-0x3e0(%rbp)
    bda1:	48 8d 85 70 fb ff ff 	lea    -0x490(%rbp),%rax
    bda8:	48 89 85 28 fc ff ff 	mov    %rax,-0x3d8(%rbp)
    bdaf:	0f b6 85 67 fb ff ff 	movzbl -0x499(%rbp),%eax
    bdb6:	83 c0 01             	add    $0x1,%eax
    bdb9:	88 85 67 fb ff ff    	mov    %al,-0x499(%rbp)
    bdbf:	66 83 ad 6a fb ff ff 	subw   $0x1,-0x496(%rbp)
    bdc6:	01 
    bdc7:	48 8b 05 9a 92 00 00 	mov    0x929a(%rip),%rax        # 15068 <g_136>
    bdce:	48 8b 95 f0 fb ff ff 	mov    -0x410(%rbp),%rdx
    bdd5:	48 89 10             	mov    %rdx,(%rax)
    bdd8:	8b 05 4e 82 00 00    	mov    0x824e(%rip),%eax        # 1402c <g_75+0x4>
    bdde:	48 8b 4d f8          	mov    -0x8(%rbp),%rcx
    bde2:	64 48 33 0c 25 28 00 	xor    %fs:0x28,%rcx
    bde9:	00 00 
    bdeb:	74 05                	je     bdf2 <func_64+0x1e2>
    bded:	e8 7e 92 ff ff       	callq  5070 <__stack_chk_fail@plt>
    bdf2:	c9                   	leaveq 
    bdf3:	c3                   	retq   

000000000000bdf4 <func_67>:
    bdf4:	f3 0f 1e fa          	endbr64 
    bdf8:	55                   	push   %rbp
    bdf9:	48 89 e5             	mov    %rsp,%rbp
    bdfc:	41 57                	push   %r15
    bdfe:	41 56                	push   %r14
    be00:	41 55                	push   %r13
    be02:	41 54                	push   %r12
    be04:	53                   	push   %rbx
    be05:	48 81 ec 48 03 00 00 	sub    $0x348,%rsp
    be0c:	89 bd ac fc ff ff    	mov    %edi,-0x354(%rbp)
    be12:	89 f0                	mov    %esi,%eax
    be14:	48 89 95 a0 fc ff ff 	mov    %rdx,-0x360(%rbp)
    be1b:	48 89 8d 98 fc ff ff 	mov    %rcx,-0x368(%rbp)
    be22:	66 44 89 85 aa fc ff 	mov    %r8w,-0x356(%rbp)
    be29:	ff 
    be2a:	66 89 85 a8 fc ff ff 	mov    %ax,-0x358(%rbp)
    be31:	64 48 8b 04 25 28 00 	mov    %fs:0x28,%rax
    be38:	00 00 
    be3a:	48 89 45 c8          	mov    %rax,-0x38(%rbp)
    be3e:	31 c0                	xor    %eax,%eax
    be40:	48 8d 85 f0 fc ff ff 	lea    -0x310(%rbp),%rax
    be47:	48 8d 15 72 40 00 00 	lea    0x4072(%rip),%rdx        # fec0 <g_2179+0xdf4>
    be4e:	b9 5a 00 00 00       	mov    $0x5a,%ecx
    be53:	48 89 c7             	mov    %rax,%rdi
    be56:	48 89 d6             	mov    %rdx,%rsi
    be59:	f3 48 a5             	rep movsq %ds:(%rsi),%es:(%rdi)
    be5c:	c7 85 b8 fc ff ff d1 	movl   $0x131a75d1,-0x348(%rbp)
    be63:	75 1a 13 
    be66:	c7 85 bc fc ff ff 4c 	movl   $0xd4616b4c,-0x344(%rbp)
    be6d:	6b 61 d4 
    be70:	c7 85 b4 fc ff ff 00 	movl   $0x0,-0x34c(%rbp)
    be77:	00 00 00 
    be7a:	eb 1e                	jmp    be9a <func_67+0xa6>
    be7c:	8b 85 b4 fc ff ff    	mov    -0x34c(%rbp),%eax
    be82:	48 98                	cltq   
    be84:	48 8d 15 c9 81 00 00 	lea    0x81c9(%rip),%rdx        # 14054 <g_115+0x14>
    be8b:	48 89 94 c5 c0 fc ff 	mov    %rdx,-0x340(%rbp,%rax,8)
    be92:	ff 
    be93:	83 85 b4 fc ff ff 01 	addl   $0x1,-0x34c(%rbp)
    be9a:	83 bd b4 fc ff ff 04 	cmpl   $0x4,-0x34c(%rbp)
    bea1:	7e d9                	jle    be7c <func_67+0x88>
    bea3:	48 0f bf 9d a8 fc ff 	movswq -0x358(%rbp),%rbx
    beaa:	ff 
    beab:	41 be 43 c3 a6 d6    	mov    $0xd6a6c343,%r14d
    beb1:	b8 43 c3 a6 d6       	mov    $0xd6a6c343,%eax
    beb6:	41 89 c7             	mov    %eax,%r15d
    beb9:	bf 10 2a d5 24       	mov    $0x24d52a10,%edi
    bebe:	e8 e3 9f ff ff       	callq  5ea6 <safe_unary_minus_func_uint32_t_u>
    bec3:	89 c0                	mov    %eax,%eax
    bec5:	83 e0 f9             	and    $0xfffffff9,%eax
    bec8:	48 39 85 a0 fc ff ff 	cmp    %rax,-0x360(%rbp)
    becf:	0f 95 c0             	setne  %al
    bed2:	44 0f b6 e8          	movzbl %al,%r13d
    bed6:	8b 85 2c fd ff ff    	mov    -0x2d4(%rbp),%eax
    bedc:	44 0f b7 e0          	movzwl %ax,%r12d
    bee0:	8b 05 3e 81 00 00    	mov    0x813e(%rip),%eax        # 14024 <g_74>
    bee6:	89 c0                	mov    %eax,%eax
    bee8:	48 89 c6             	mov    %rax,%rsi
    beeb:	bf 01 00 00 00       	mov    $0x1,%edi
    bef0:	e8 bf 9a ff ff       	callq  59b4 <safe_mod_func_int64_t_s_s>
    bef5:	0f b7 c0             	movzwl %ax,%eax
    bef8:	be 0e 00 00 00       	mov    $0xe,%esi
    befd:	89 c7                	mov    %eax,%edi
    beff:	e8 76 9f ff ff       	callq  5e7a <safe_rshift_func_uint16_t_u_u>
    bf04:	0f b7 c0             	movzwl %ax,%eax
    bf07:	44 89 e6             	mov    %r12d,%esi
    bf0a:	89 c7                	mov    %eax,%edi
    bf0c:	e8 ee 9d ff ff       	callq  5cff <safe_add_func_uint16_t_u_u>
    bf11:	be a8 00 00 00       	mov    $0xa8,%esi
    bf16:	bf 01 00 00 00       	mov    $0x1,%edi
    bf1b:	e8 3a 9c ff ff       	callq  5b5a <safe_add_func_uint8_t_u_u>
    bf20:	84 c0                	test   %al,%al
    bf22:	0f 95 c0             	setne  %al
    bf25:	0f b6 c0             	movzbl %al,%eax
    bf28:	48 39 85 a0 fc ff ff 	cmp    %rax,-0x360(%rbp)
    bf2f:	72 07                	jb     bf38 <func_67+0x144>
    bf31:	b8 01 00 00 00       	mov    $0x1,%eax
    bf36:	eb 05                	jmp    bf3d <func_67+0x149>
    bf38:	b8 00 00 00 00       	mov    $0x0,%eax
    bf3d:	89 c2                	mov    %eax,%edx
    bf3f:	0f b7 05 ec 80 00 00 	movzwl 0x80ec(%rip),%eax        # 14032 <g_75+0xa>
    bf46:	0f b7 c0             	movzwl %ax,%eax
    bf49:	89 d6                	mov    %edx,%esi
    bf4b:	89 c7                	mov    %eax,%edi
    bf4d:	e8 ab 9f ff ff       	callq  5efd <safe_mod_func_uint32_t_u_u>
    bf52:	41 39 c5             	cmp    %eax,%r13d
    bf55:	0f 93 c0             	setae  %al
    bf58:	0f b6 c0             	movzbl %al,%eax
    bf5b:	be 02 00 00 00       	mov    $0x2,%esi
    bf60:	89 c7                	mov    %eax,%edi
    bf62:	e8 ca 92 ff ff       	callq  5231 <safe_mod_func_int8_t_s_s>
    bf67:	44 89 fe             	mov    %r15d,%esi
    bf6a:	bf c2 ff ff ff       	mov    $0xffffffc2,%edi
    bf6f:	e8 f8 93 ff ff       	callq  536c <safe_rshift_func_int8_t_s_u>
    bf74:	0f be c0             	movsbl %al,%eax
    bf77:	44 89 f6             	mov    %r14d,%esi
    bf7a:	89 c7                	mov    %eax,%edi
    bf7c:	e8 84 96 ff ff       	callq  5605 <safe_sub_func_int32_t_s_s>
    bf81:	48 89 de             	mov    %rbx,%rsi
    bf84:	bf 00 00 00 00       	mov    $0x0,%edi
    bf89:	e8 bd a0 ff ff       	callq  604b <safe_sub_func_uint64_t_u_u>
    bf8e:	ba 43 c3 a6 d6       	mov    $0xd6a6c343,%edx
    bf93:	48 63 d2             	movslq %edx,%rdx
    bf96:	48 39 d0             	cmp    %rdx,%rax
    bf99:	0f 95 c0             	setne  %al
    bf9c:	0f b6 c0             	movzbl %al,%eax
    bf9f:	89 c6                	mov    %eax,%esi
    bfa1:	bf f8 ff 00 00       	mov    $0xfff8,%edi
    bfa6:	e8 54 9d ff ff       	callq  5cff <safe_add_func_uint16_t_u_u>
    bfab:	0f b7 c0             	movzwl %ax,%eax
    bfae:	39 85 b8 fc ff ff    	cmp    %eax,-0x348(%rbp)
    bfb4:	0f 95 c0             	setne  %al
    bfb7:	0f b6 c0             	movzbl %al,%eax
    bfba:	0f b6 15 9f 80 00 00 	movzbl 0x809f(%rip),%edx        # 14060 <g_115+0x20>
    bfc1:	31 d0                	xor    %edx,%eax
    bfc3:	88 05 97 80 00 00    	mov    %al,0x8097(%rip)        # 14060 <g_115+0x20>
    bfc9:	0f b6 05 90 80 00 00 	movzbl 0x8090(%rip),%eax        # 14060 <g_115+0x20>
    bfd0:	0f b6 c0             	movzbl %al,%eax
    bfd3:	21 85 bc fc ff ff    	and    %eax,-0x344(%rbp)
    bfd9:	8b 85 48 fe ff ff    	mov    -0x1b8(%rbp),%eax
    bfdf:	23 85 bc fc ff ff    	and    -0x344(%rbp),%eax
    bfe5:	85 c0                	test   %eax,%eax
    bfe7:	0f 94 c0             	sete   %al
    bfea:	0f b6 c0             	movzbl %al,%eax
    bfed:	89 05 39 80 00 00    	mov    %eax,0x8039(%rip)        # 1402c <g_75+0x4>
    bff3:	b8 43 c3 a6 d6       	mov    $0xd6a6c343,%eax
    bff8:	48 8b 5d c8          	mov    -0x38(%rbp),%rbx
    bffc:	64 48 33 1c 25 28 00 	xor    %fs:0x28,%rbx
    c003:	00 00 
    c005:	74 05                	je     c00c <func_67+0x218>
    c007:	e8 64 90 ff ff       	callq  5070 <__stack_chk_fail@plt>
    c00c:	48 81 c4 48 03 00 00 	add    $0x348,%rsp
    c013:	5b                   	pop    %rbx
    c014:	41 5c                	pop    %r12
    c016:	41 5d                	pop    %r13
    c018:	41 5e                	pop    %r14
    c01a:	41 5f                	pop    %r15
    c01c:	5d                   	pop    %rbp
    c01d:	c3                   	retq   

000000000000c01e <main>:
    c01e:	f3 0f 1e fa          	endbr64 
    c022:	55                   	push   %rbp
    c023:	48 89 e5             	mov    %rsp,%rbp
    c026:	48 83 ec 20          	sub    $0x20,%rsp
    c02a:	89 7d ec             	mov    %edi,-0x14(%rbp)
    c02d:	48 89 75 e0          	mov    %rsi,-0x20(%rbp)
    c031:	c7 45 fc 00 00 00 00 	movl   $0x0,-0x4(%rbp)
    c038:	83 7d ec 02          	cmpl   $0x2,-0x14(%rbp)
    c03c:	74 25                	je     c063 <main+0x45>
    c03e:	48 8b 45 e0          	mov    -0x20(%rbp),%rax
    c042:	48 83 c0 08          	add    $0x8,%rax
    c046:	48 8b 00             	mov    (%rax),%rax
    c049:	48 8d 35 40 41 00 00 	lea    0x4140(%rip),%rsi        # 10190 <g_2179+0x10c4>
    c050:	48 89 c7             	mov    %rax,%rdi
    c053:	e8 38 90 ff ff       	callq  5090 <strcmp@plt>
    c058:	85 c0                	test   %eax,%eax
    c05a:	74 07                	je     c063 <main+0x45>
    c05c:	c7 45 fc 01 00 00 00 	movl   $0x1,-0x4(%rbp)
    c063:	e8 21 91 ff ff       	callq  5189 <platform_main_begin>
    c068:	e8 2b a5 ff ff       	callq  6598 <crc32_gentab>
    c06d:	e8 43 a7 ff ff       	callq  67b5 <func_1>
    c072:	8b 05 ac 7f 00 00    	mov    0x7fac(%rip),%eax        # 14024 <g_74>
    c078:	89 c1                	mov    %eax,%ecx
    c07a:	8b 45 fc             	mov    -0x4(%rbp),%eax
    c07d:	89 c2                	mov    %eax,%edx
    c07f:	48 8d 35 0c 41 00 00 	lea    0x410c(%rip),%rsi        # 10192 <g_2179+0x10c6>
    c086:	48 89 cf             	mov    %rcx,%rdi
    c089:	e8 65 a6 ff ff       	callq  66f3 <transparent_crc>
    c08e:	48 8b 05 93 7f 00 00 	mov    0x7f93(%rip),%rax        # 14028 <g_75>
    c095:	66 25 ff 0f          	and    $0xfff,%ax
    c099:	0f b7 c0             	movzwl %ax,%eax
    c09c:	8b 55 fc             	mov    -0x4(%rbp),%edx
    c09f:	48 8d 35 f1 40 00 00 	lea    0x40f1(%rip),%rsi        # 10197 <g_2179+0x10cb>
    c0a6:	48 89 c7             	mov    %rax,%rdi
    c0a9:	e8 45 a6 ff ff       	callq  66f3 <transparent_crc>
    c0ae:	8b 05 78 7f 00 00    	mov    0x7f78(%rip),%eax        # 1402c <g_75+0x4>
    c0b4:	48 98                	cltq   
    c0b6:	8b 55 fc             	mov    -0x4(%rbp),%edx
    c0b9:	48 8d 35 df 40 00 00 	lea    0x40df(%rip),%rsi        # 1019f <g_2179+0x10d3>
    c0c0:	48 89 c7             	mov    %rax,%rdi
    c0c3:	e8 2b a6 ff ff       	callq  66f3 <transparent_crc>
    c0c8:	48 8b 05 61 7f 00 00 	mov    0x7f61(%rip),%rax        # 14030 <g_75+0x8>
    c0cf:	66 25 ff 01          	and    $0x1ff,%ax
    c0d3:	0f b7 c0             	movzwl %ax,%eax
    c0d6:	8b 55 fc             	mov    -0x4(%rbp),%edx
    c0d9:	48 8d 35 c7 40 00 00 	lea    0x40c7(%rip),%rsi        # 101a7 <g_2179+0x10db>
    c0e0:	48 89 c7             	mov    %rax,%rdi
    c0e3:	e8 0b a6 ff ff       	callq  66f3 <transparent_crc>
    c0e8:	48 8b 05 41 7f 00 00 	mov    0x7f41(%rip),%rax        # 14030 <g_75+0x8>
    c0ef:	48 c1 e8 09          	shr    $0x9,%rax
    c0f3:	83 e0 7f             	and    $0x7f,%eax
    c0f6:	0f b6 c0             	movzbl %al,%eax
    c0f9:	8b 55 fc             	mov    -0x4(%rbp),%edx
    c0fc:	48 8d 35 ac 40 00 00 	lea    0x40ac(%rip),%rsi        # 101af <g_2179+0x10e3>
    c103:	48 89 c7             	mov    %rax,%rdi
    c106:	e8 e8 a5 ff ff       	callq  66f3 <transparent_crc>
    c10b:	0f b7 05 20 7f 00 00 	movzwl 0x7f20(%rip),%eax        # 14032 <g_75+0xa>
    c112:	0f b7 c0             	movzwl %ax,%eax
    c115:	8b 55 fc             	mov    -0x4(%rbp),%edx
    c118:	48 8d 35 98 40 00 00 	lea    0x4098(%rip),%rsi        # 101b7 <g_2179+0x10eb>
    c11f:	48 89 c7             	mov    %rax,%rdi
    c122:	e8 cc a5 ff ff       	callq  66f3 <transparent_crc>
    c127:	b8 43 c3 a6 d6       	mov    $0xd6a6c343,%eax
    c12c:	48 98                	cltq   
    c12e:	8b 55 fc             	mov    -0x4(%rbp),%edx
    c131:	48 8d 35 87 40 00 00 	lea    0x4087(%rip),%rsi        # 101bf <g_2179+0x10f3>
    c138:	48 89 c7             	mov    %rax,%rdi
    c13b:	e8 b3 a5 ff ff       	callq  66f3 <transparent_crc>
    c140:	48 8b 05 f1 7e 00 00 	mov    0x7ef1(%rip),%rax        # 14038 <g_87>
    c147:	8b 55 fc             	mov    -0x4(%rbp),%edx
    c14a:	48 8d 35 73 40 00 00 	lea    0x4073(%rip),%rsi        # 101c4 <g_2179+0x10f8>
    c151:	48 89 c7             	mov    %rax,%rdi
    c154:	e8 9a a5 ff ff       	callq  66f3 <transparent_crc>
    c159:	c7 45 f0 00 00 00 00 	movl   $0x0,-0x10(%rbp)
    c160:	e9 9b 00 00 00       	jmpq   c200 <main+0x1e2>
    c165:	c7 45 f4 00 00 00 00 	movl   $0x0,-0xc(%rbp)
    c16c:	e9 81 00 00 00       	jmpq   c1f2 <main+0x1d4>
    c171:	c7 45 f8 00 00 00 00 	movl   $0x0,-0x8(%rbp)
    c178:	eb 6e                	jmp    c1e8 <main+0x1ca>
    c17a:	8b 45 f8             	mov    -0x8(%rbp),%eax
    c17d:	48 63 c8             	movslq %eax,%rcx
    c180:	8b 45 f0             	mov    -0x10(%rbp),%eax
    c183:	48 63 d0             	movslq %eax,%rdx
    c186:	8b 45 f4             	mov    -0xc(%rbp),%eax
    c189:	48 63 f0             	movslq %eax,%rsi
    c18c:	48 89 d0             	mov    %rdx,%rax
    c18f:	48 01 c0             	add    %rax,%rax
    c192:	48 01 d0             	add    %rdx,%rax
    c195:	48 01 f0             	add    %rsi,%rax
    c198:	48 c1 e0 02          	shl    $0x2,%rax
    c19c:	48 8d 14 08          	lea    (%rax,%rcx,1),%rdx
    c1a0:	48 8d 05 99 7e 00 00 	lea    0x7e99(%rip),%rax        # 14040 <g_115>
    c1a7:	48 01 d0             	add    %rdx,%rax
    c1aa:	0f b6 00             	movzbl (%rax),%eax
    c1ad:	0f b6 c0             	movzbl %al,%eax
    c1b0:	8b 55 fc             	mov    -0x4(%rbp),%edx
    c1b3:	48 8d 35 0f 40 00 00 	lea    0x400f(%rip),%rsi        # 101c9 <g_2179+0x10fd>
    c1ba:	48 89 c7             	mov    %rax,%rdi
    c1bd:	e8 31 a5 ff ff       	callq  66f3 <transparent_crc>
    c1c2:	83 7d fc 00          	cmpl   $0x0,-0x4(%rbp)
    c1c6:	74 1c                	je     c1e4 <main+0x1c6>
    c1c8:	8b 4d f8             	mov    -0x8(%rbp),%ecx
    c1cb:	8b 55 f4             	mov    -0xc(%rbp),%edx
    c1ce:	8b 45 f0             	mov    -0x10(%rbp),%eax
    c1d1:	89 c6                	mov    %eax,%esi
    c1d3:	48 8d 3d fe 3f 00 00 	lea    0x3ffe(%rip),%rdi        # 101d8 <g_2179+0x110c>
    c1da:	b8 00 00 00 00       	mov    $0x0,%eax
    c1df:	e8 9c 8e ff ff       	callq  5080 <printf@plt>
    c1e4:	83 45 f8 01          	addl   $0x1,-0x8(%rbp)
    c1e8:	83 7d f8 03          	cmpl   $0x3,-0x8(%rbp)
    c1ec:	7e 8c                	jle    c17a <main+0x15c>
    c1ee:	83 45 f4 01          	addl   $0x1,-0xc(%rbp)
    c1f2:	83 7d f4 02          	cmpl   $0x2,-0xc(%rbp)
    c1f6:	0f 8e 75 ff ff ff    	jle    c171 <main+0x153>
    c1fc:	83 45 f0 01          	addl   $0x1,-0x10(%rbp)
    c200:	83 7d f0 02          	cmpl   $0x2,-0x10(%rbp)
    c204:	0f 8e 5b ff ff ff    	jle    c165 <main+0x147>
    c20a:	c7 45 f0 00 00 00 00 	movl   $0x0,-0x10(%rbp)
    c211:	eb 7c                	jmp    c28f <main+0x271>
    c213:	c7 45 f4 00 00 00 00 	movl   $0x0,-0xc(%rbp)
    c21a:	eb 69                	jmp    c285 <main+0x267>
    c21c:	8b 45 f4             	mov    -0xc(%rbp),%eax
    c21f:	48 63 c8             	movslq %eax,%rcx
    c222:	8b 45 f0             	mov    -0x10(%rbp),%eax
    c225:	48 63 d0             	movslq %eax,%rdx
    c228:	48 89 d0             	mov    %rdx,%rax
    c22b:	48 c1 e0 02          	shl    $0x2,%rax
    c22f:	48 01 d0             	add    %rdx,%rax
    c232:	48 01 c0             	add    %rax,%rax
    c235:	48 01 c8             	add    %rcx,%rax
    c238:	48 8d 14 c5 00 00 00 	lea    0x0(,%rax,8),%rdx
    c23f:	00 
    c240:	48 8d 05 39 7e 00 00 	lea    0x7e39(%rip),%rax        # 14080 <g_118>
    c247:	48 8b 04 02          	mov    (%rdx,%rax,1),%rax
    c24b:	48 89 c1             	mov    %rax,%rcx
    c24e:	8b 45 fc             	mov    -0x4(%rbp),%eax
    c251:	89 c2                	mov    %eax,%edx
    c253:	48 8d 35 94 3f 00 00 	lea    0x3f94(%rip),%rsi        # 101ee <g_2179+0x1122>
    c25a:	48 89 cf             	mov    %rcx,%rdi
    c25d:	e8 91 a4 ff ff       	callq  66f3 <transparent_crc>
    c262:	83 7d fc 00          	cmpl   $0x0,-0x4(%rbp)
    c266:	74 19                	je     c281 <main+0x263>
    c268:	8b 55 f4             	mov    -0xc(%rbp),%edx
    c26b:	8b 45 f0             	mov    -0x10(%rbp),%eax
    c26e:	89 c6                	mov    %eax,%esi
    c270:	48 8d 3d 83 3f 00 00 	lea    0x3f83(%rip),%rdi        # 101fa <g_2179+0x112e>
    c277:	b8 00 00 00 00       	mov    $0x0,%eax
    c27c:	e8 ff 8d ff ff       	callq  5080 <printf@plt>
    c281:	83 45 f4 01          	addl   $0x1,-0xc(%rbp)
    c285:	83 7d f4 09          	cmpl   $0x9,-0xc(%rbp)
    c289:	7e 91                	jle    c21c <main+0x1fe>
    c28b:	83 45 f0 01          	addl   $0x1,-0x10(%rbp)
    c28f:	83 7d f0 04          	cmpl   $0x4,-0x10(%rbp)
    c293:	0f 8e 7a ff ff ff    	jle    c213 <main+0x1f5>
    c299:	c7 45 f0 00 00 00 00 	movl   $0x0,-0x10(%rbp)
    c2a0:	eb 75                	jmp    c317 <main+0x2f9>
    c2a2:	c7 45 f4 00 00 00 00 	movl   $0x0,-0xc(%rbp)
    c2a9:	eb 62                	jmp    c30d <main+0x2ef>
    c2ab:	8b 45 f4             	mov    -0xc(%rbp),%eax
    c2ae:	48 63 c8             	movslq %eax,%rcx
    c2b1:	8b 45 f0             	mov    -0x10(%rbp),%eax
    c2b4:	48 63 d0             	movslq %eax,%rdx
    c2b7:	48 89 d0             	mov    %rdx,%rax
    c2ba:	48 c1 e0 03          	shl    $0x3,%rax
    c2be:	48 29 d0             	sub    %rdx,%rax
    c2c1:	48 01 c8             	add    %rcx,%rax
    c2c4:	48 8d 14 85 00 00 00 	lea    0x0(,%rax,4),%rdx
    c2cb:	00 
    c2cc:	48 8d 05 4d 7f 00 00 	lea    0x7f4d(%rip),%rax        # 14220 <g_120>
    c2d3:	8b 04 02             	mov    (%rdx,%rax,1),%eax
    c2d6:	48 98                	cltq   
    c2d8:	8b 55 fc             	mov    -0x4(%rbp),%edx
    c2db:	48 8d 35 2a 3f 00 00 	lea    0x3f2a(%rip),%rsi        # 1020c <g_2179+0x1140>
    c2e2:	48 89 c7             	mov    %rax,%rdi
    c2e5:	e8 09 a4 ff ff       	callq  66f3 <transparent_crc>
    c2ea:	83 7d fc 00          	cmpl   $0x0,-0x4(%rbp)
    c2ee:	74 19                	je     c309 <main+0x2eb>
    c2f0:	8b 55 f4             	mov    -0xc(%rbp),%edx
    c2f3:	8b 45 f0             	mov    -0x10(%rbp),%eax
    c2f6:	89 c6                	mov    %eax,%esi
    c2f8:	48 8d 3d fb 3e 00 00 	lea    0x3efb(%rip),%rdi        # 101fa <g_2179+0x112e>
    c2ff:	b8 00 00 00 00       	mov    $0x0,%eax
    c304:	e8 77 8d ff ff       	callq  5080 <printf@plt>
    c309:	83 45 f4 01          	addl   $0x1,-0xc(%rbp)
    c30d:	83 7d f4 06          	cmpl   $0x6,-0xc(%rbp)
    c311:	7e 98                	jle    c2ab <main+0x28d>
    c313:	83 45 f0 01          	addl   $0x1,-0x10(%rbp)
    c317:	83 7d f0 06          	cmpl   $0x6,-0x10(%rbp)
    c31b:	7e 85                	jle    c2a2 <main+0x284>
    c31d:	c7 45 f0 00 00 00 00 	movl   $0x0,-0x10(%rbp)
    c324:	eb 4b                	jmp    c371 <main+0x353>
    c326:	8b 45 f0             	mov    -0x10(%rbp),%eax
    c329:	48 98                	cltq   
    c32b:	48 8d 14 85 00 00 00 	lea    0x0(,%rax,4),%rdx
    c332:	00 
    c333:	48 8d 05 ae 7f 00 00 	lea    0x7fae(%rip),%rax        # 142e8 <g_141>
    c33a:	8b 04 02             	mov    (%rdx,%rax,1),%eax
    c33d:	48 98                	cltq   
    c33f:	8b 55 fc             	mov    -0x4(%rbp),%edx
    c342:	48 8d 35 cf 3e 00 00 	lea    0x3ecf(%rip),%rsi        # 10218 <g_2179+0x114c>
    c349:	48 89 c7             	mov    %rax,%rdi
    c34c:	e8 a2 a3 ff ff       	callq  66f3 <transparent_crc>
    c351:	83 7d fc 00          	cmpl   $0x0,-0x4(%rbp)
    c355:	74 16                	je     c36d <main+0x34f>
    c357:	8b 45 f0             	mov    -0x10(%rbp),%eax
    c35a:	89 c6                	mov    %eax,%esi
    c35c:	48 8d 3d be 3e 00 00 	lea    0x3ebe(%rip),%rdi        # 10221 <g_2179+0x1155>
    c363:	b8 00 00 00 00       	mov    $0x0,%eax
    c368:	e8 13 8d ff ff       	callq  5080 <printf@plt>
    c36d:	83 45 f0 01          	addl   $0x1,-0x10(%rbp)
    c371:	83 7d f0 02          	cmpl   $0x2,-0x10(%rbp)
    c375:	7e af                	jle    c326 <main+0x308>
    c377:	c7 45 f0 00 00 00 00 	movl   $0x0,-0x10(%rbp)
    c37e:	e9 14 03 00 00       	jmpq   c697 <main+0x679>
    c383:	8b 45 f0             	mov    -0x10(%rbp),%eax
    c386:	48 63 d0             	movslq %eax,%rdx
    c389:	48 89 d0             	mov    %rdx,%rax
    c38c:	48 01 c0             	add    %rax,%rax
    c38f:	48 01 d0             	add    %rdx,%rax
    c392:	48 c1 e0 03          	shl    $0x3,%rax
    c396:	48 29 d0             	sub    %rdx,%rax
    c399:	48 89 c2             	mov    %rax,%rdx
    c39c:	48 8d 05 5d 7f 00 00 	lea    0x7f5d(%rip),%rax        # 14300 <g_142>
    c3a3:	0f b6 0c 02          	movzbl (%rdx,%rax,1),%ecx
    c3a7:	0f b6 74 02 01       	movzbl 0x1(%rdx,%rax,1),%esi
    c3ac:	48 c1 e6 08          	shl    $0x8,%rsi
    c3b0:	48 09 ce             	or     %rcx,%rsi
    c3b3:	0f b6 4c 02 02       	movzbl 0x2(%rdx,%rax,1),%ecx
    c3b8:	48 c1 e1 10          	shl    $0x10,%rcx
    c3bc:	48 09 f1             	or     %rsi,%rcx
    c3bf:	0f b6 44 02 03       	movzbl 0x3(%rdx,%rax,1),%eax
    c3c4:	83 e0 0f             	and    $0xf,%eax
    c3c7:	48 c1 e0 18          	shl    $0x18,%rax
    c3cb:	48 09 c8             	or     %rcx,%rax
    c3ce:	48 c1 e0 24          	shl    $0x24,%rax
    c3d2:	48 c1 f8 24          	sar    $0x24,%rax
    c3d6:	48 98                	cltq   
    c3d8:	8b 55 fc             	mov    -0x4(%rbp),%edx
    c3db:	48 8d 35 4d 3e 00 00 	lea    0x3e4d(%rip),%rsi        # 1022f <g_2179+0x1163>
    c3e2:	48 89 c7             	mov    %rax,%rdi
    c3e5:	e8 09 a3 ff ff       	callq  66f3 <transparent_crc>
    c3ea:	8b 45 f0             	mov    -0x10(%rbp),%eax
    c3ed:	48 63 d0             	movslq %eax,%rdx
    c3f0:	48 89 d0             	mov    %rdx,%rax
    c3f3:	48 01 c0             	add    %rax,%rax
    c3f6:	48 01 d0             	add    %rdx,%rax
    c3f9:	48 c1 e0 03          	shl    $0x3,%rax
    c3fd:	48 29 d0             	sub    %rdx,%rax
    c400:	48 89 c2             	mov    %rax,%rdx
    c403:	48 8d 05 f6 7e 00 00 	lea    0x7ef6(%rip),%rax        # 14300 <g_142>
    c40a:	0f b6 4c 02 03       	movzbl 0x3(%rdx,%rax,1),%ecx
    c40f:	c0 e9 04             	shr    $0x4,%cl
    c412:	0f b6 c9             	movzbl %cl,%ecx
    c415:	0f b6 74 02 04       	movzbl 0x4(%rdx,%rax,1),%esi
    c41a:	48 c1 e6 04          	shl    $0x4,%rsi
    c41e:	48 09 ce             	or     %rcx,%rsi
    c421:	0f b6 4c 02 05       	movzbl 0x5(%rdx,%rax,1),%ecx
    c426:	48 c1 e1 0c          	shl    $0xc,%rcx
    c42a:	48 09 ce             	or     %rcx,%rsi
    c42d:	0f b6 4c 02 06       	movzbl 0x6(%rdx,%rax,1),%ecx
    c432:	48 c1 e1 14          	shl    $0x14,%rcx
    c436:	48 09 f1             	or     %rsi,%rcx
    c439:	0f b6 44 02 07       	movzbl 0x7(%rdx,%rax,1),%eax
    c43e:	83 e0 01             	and    $0x1,%eax
    c441:	48 c1 e0 1c          	shl    $0x1c,%rax
    c445:	48 09 c8             	or     %rcx,%rax
    c448:	48 c1 e0 23          	shl    $0x23,%rax
    c44c:	48 c1 f8 23          	sar    $0x23,%rax
    c450:	48 98                	cltq   
    c452:	8b 55 fc             	mov    -0x4(%rbp),%edx
    c455:	48 8d 35 df 3d 00 00 	lea    0x3ddf(%rip),%rsi        # 1023b <g_2179+0x116f>
    c45c:	48 89 c7             	mov    %rax,%rdi
    c45f:	e8 8f a2 ff ff       	callq  66f3 <transparent_crc>
    c464:	8b 45 f0             	mov    -0x10(%rbp),%eax
    c467:	48 63 d0             	movslq %eax,%rdx
    c46a:	48 89 d0             	mov    %rdx,%rax
    c46d:	48 01 c0             	add    %rax,%rax
    c470:	48 01 d0             	add    %rdx,%rax
    c473:	48 c1 e0 03          	shl    $0x3,%rax
    c477:	48 29 d0             	sub    %rdx,%rax
    c47a:	48 89 c2             	mov    %rax,%rdx
    c47d:	48 8d 05 84 7e 00 00 	lea    0x7e84(%rip),%rax        # 14308 <g_142+0x8>
    c484:	8b 04 02             	mov    (%rdx,%rax,1),%eax
    c487:	89 c1                	mov    %eax,%ecx
    c489:	8b 45 fc             	mov    -0x4(%rbp),%eax
    c48c:	89 c2                	mov    %eax,%edx
    c48e:	48 8d 35 b2 3d 00 00 	lea    0x3db2(%rip),%rsi        # 10247 <g_2179+0x117b>
    c495:	48 89 cf             	mov    %rcx,%rdi
    c498:	e8 56 a2 ff ff       	callq  66f3 <transparent_crc>
    c49d:	8b 45 f0             	mov    -0x10(%rbp),%eax
    c4a0:	48 63 d0             	movslq %eax,%rdx
    c4a3:	48 89 d0             	mov    %rdx,%rax
    c4a6:	48 01 c0             	add    %rax,%rax
    c4a9:	48 01 d0             	add    %rdx,%rax
    c4ac:	48 c1 e0 03          	shl    $0x3,%rax
    c4b0:	48 29 d0             	sub    %rdx,%rax
    c4b3:	48 89 c2             	mov    %rax,%rdx
    c4b6:	48 8d 05 43 7e 00 00 	lea    0x7e43(%rip),%rax        # 14300 <g_142>
    c4bd:	0f b6 4c 02 0c       	movzbl 0xc(%rdx,%rax,1),%ecx
    c4c2:	0f b6 74 02 0d       	movzbl 0xd(%rdx,%rax,1),%esi
    c4c7:	48 c1 e6 08          	shl    $0x8,%rsi
    c4cb:	48 09 ce             	or     %rcx,%rsi
    c4ce:	0f b6 4c 02 0e       	movzbl 0xe(%rdx,%rax,1),%ecx
    c4d3:	48 c1 e1 10          	shl    $0x10,%rcx
    c4d7:	48 09 f1             	or     %rsi,%rcx
    c4da:	0f b6 44 02 0f       	movzbl 0xf(%rdx,%rax,1),%eax
    c4df:	83 e0 0f             	and    $0xf,%eax
    c4e2:	48 c1 e0 18          	shl    $0x18,%rax
    c4e6:	48 09 c8             	or     %rcx,%rax
    c4e9:	89 c1                	mov    %eax,%ecx
    c4eb:	8b 45 fc             	mov    -0x4(%rbp),%eax
    c4ee:	89 c2                	mov    %eax,%edx
    c4f0:	48 8d 35 5c 3d 00 00 	lea    0x3d5c(%rip),%rsi        # 10253 <g_2179+0x1187>
    c4f7:	48 89 cf             	mov    %rcx,%rdi
    c4fa:	e8 f4 a1 ff ff       	callq  66f3 <transparent_crc>
    c4ff:	8b 45 f0             	mov    -0x10(%rbp),%eax
    c502:	48 63 d0             	movslq %eax,%rdx
    c505:	48 89 d0             	mov    %rdx,%rax
    c508:	48 01 c0             	add    %rax,%rax
    c50b:	48 01 d0             	add    %rdx,%rax
    c50e:	48 c1 e0 03          	shl    $0x3,%rax
    c512:	48 29 d0             	sub    %rdx,%rax
    c515:	48 89 c2             	mov    %rax,%rdx
    c518:	48 8d 05 e1 7d 00 00 	lea    0x7de1(%rip),%rax        # 14300 <g_142>
    c51f:	0f b6 4c 02 0f       	movzbl 0xf(%rdx,%rax,1),%ecx
    c524:	c0 e9 04             	shr    $0x4,%cl
    c527:	0f b6 c9             	movzbl %cl,%ecx
    c52a:	0f b6 74 02 10       	movzbl 0x10(%rdx,%rax,1),%esi
    c52f:	48 c1 e6 04          	shl    $0x4,%rsi
    c533:	48 09 ce             	or     %rcx,%rsi
    c536:	0f b6 4c 02 11       	movzbl 0x11(%rdx,%rax,1),%ecx
    c53b:	48 c1 e1 0c          	shl    $0xc,%rcx
    c53f:	48 09 f1             	or     %rsi,%rcx
    c542:	0f b6 44 02 12       	movzbl 0x12(%rdx,%rax,1),%eax
    c547:	83 e0 3f             	and    $0x3f,%eax
    c54a:	48 c1 e0 14          	shl    $0x14,%rax
    c54e:	48 09 c8             	or     %rcx,%rax
    c551:	48 c1 e0 26          	shl    $0x26,%rax
    c555:	48 c1 f8 26          	sar    $0x26,%rax
    c559:	48 98                	cltq   
    c55b:	8b 55 fc             	mov    -0x4(%rbp),%edx
    c55e:	48 8d 35 fa 3c 00 00 	lea    0x3cfa(%rip),%rsi        # 1025f <g_2179+0x1193>
    c565:	48 89 c7             	mov    %rax,%rdi
    c568:	e8 86 a1 ff ff       	callq  66f3 <transparent_crc>
    c56d:	8b 45 f0             	mov    -0x10(%rbp),%eax
    c570:	48 63 d0             	movslq %eax,%rdx
    c573:	48 89 d0             	mov    %rdx,%rax
    c576:	48 01 c0             	add    %rax,%rax
    c579:	48 01 d0             	add    %rdx,%rax
    c57c:	48 c1 e0 03          	shl    $0x3,%rax
    c580:	48 29 d0             	sub    %rdx,%rax
    c583:	48 89 c2             	mov    %rax,%rdx
    c586:	48 8d 05 83 7d 00 00 	lea    0x7d83(%rip),%rax        # 14310 <g_142+0x10>
    c58d:	0f b6 4c 02 02       	movzbl 0x2(%rdx,%rax,1),%ecx
    c592:	c0 e9 06             	shr    $0x6,%cl
    c595:	0f b6 c9             	movzbl %cl,%ecx
    c598:	0f b6 44 02 03       	movzbl 0x3(%rdx,%rax,1),%eax
    c59d:	83 e0 01             	and    $0x1,%eax
    c5a0:	48 c1 e0 02          	shl    $0x2,%rax
    c5a4:	48 09 c8             	or     %rcx,%rax
    c5a7:	48 c1 e0 3d          	shl    $0x3d,%rax
    c5ab:	48 c1 f8 3d          	sar    $0x3d,%rax
    c5af:	48 0f be c0          	movsbq %al,%rax
    c5b3:	8b 55 fc             	mov    -0x4(%rbp),%edx
    c5b6:	48 8d 35 ae 3c 00 00 	lea    0x3cae(%rip),%rsi        # 1026b <g_2179+0x119f>
    c5bd:	48 89 c7             	mov    %rax,%rdi
    c5c0:	e8 2e a1 ff ff       	callq  66f3 <transparent_crc>
    c5c5:	8b 45 f0             	mov    -0x10(%rbp),%eax
    c5c8:	48 63 d0             	movslq %eax,%rdx
    c5cb:	48 89 d0             	mov    %rdx,%rax
    c5ce:	48 01 c0             	add    %rax,%rax
    c5d1:	48 01 d0             	add    %rdx,%rax
    c5d4:	48 c1 e0 03          	shl    $0x3,%rax
    c5d8:	48 29 d0             	sub    %rdx,%rax
    c5db:	48 89 c2             	mov    %rax,%rdx
    c5de:	48 8d 05 2b 7d 00 00 	lea    0x7d2b(%rip),%rax        # 14310 <g_142+0x10>
    c5e5:	0f b6 4c 02 03       	movzbl 0x3(%rdx,%rax,1),%ecx
    c5ea:	d0 e9                	shr    %cl
    c5ec:	0f b6 c9             	movzbl %cl,%ecx
    c5ef:	0f b6 74 02 04       	movzbl 0x4(%rdx,%rax,1),%esi
    c5f4:	48 c1 e6 07          	shl    $0x7,%rsi
    c5f8:	48 09 f1             	or     %rsi,%rcx
    c5fb:	0f b6 44 02 05       	movzbl 0x5(%rdx,%rax,1),%eax
    c600:	83 e0 7f             	and    $0x7f,%eax
    c603:	48 c1 e0 0f          	shl    $0xf,%rax
    c607:	48 09 c8             	or     %rcx,%rax
    c60a:	89 c1                	mov    %eax,%ecx
    c60c:	8b 45 fc             	mov    -0x4(%rbp),%eax
    c60f:	89 c2                	mov    %eax,%edx
    c611:	48 8d 35 5f 3c 00 00 	lea    0x3c5f(%rip),%rsi        # 10277 <g_2179+0x11ab>
    c618:	48 89 cf             	mov    %rcx,%rdi
    c61b:	e8 d3 a0 ff ff       	callq  66f3 <transparent_crc>
    c620:	8b 45 f0             	mov    -0x10(%rbp),%eax
    c623:	48 63 d0             	movslq %eax,%rdx
    c626:	48 89 d0             	mov    %rdx,%rax
    c629:	48 01 c0             	add    %rax,%rax
    c62c:	48 01 d0             	add    %rdx,%rax
    c62f:	48 c1 e0 03          	shl    $0x3,%rax
    c633:	48 29 d0             	sub    %rdx,%rax
    c636:	48 89 c2             	mov    %rax,%rdx
    c639:	48 8d 05 d0 7c 00 00 	lea    0x7cd0(%rip),%rax        # 14310 <g_142+0x10>
    c640:	0f b6 4c 02 05       	movzbl 0x5(%rdx,%rax,1),%ecx
    c645:	c0 e9 07             	shr    $0x7,%cl
    c648:	0f b6 c9             	movzbl %cl,%ecx
    c64b:	0f b6 44 02 06       	movzbl 0x6(%rdx,%rax,1),%eax
    c650:	83 e0 01             	and    $0x1,%eax
    c653:	48 01 c0             	add    %rax,%rax
    c656:	48 09 c8             	or     %rcx,%rax
    c659:	48 c1 e0 3e          	shl    $0x3e,%rax
    c65d:	48 c1 f8 3e          	sar    $0x3e,%rax
    c661:	48 0f be c0          	movsbq %al,%rax
    c665:	8b 55 fc             	mov    -0x4(%rbp),%edx
    c668:	48 8d 35 14 3c 00 00 	lea    0x3c14(%rip),%rsi        # 10283 <g_2179+0x11b7>
    c66f:	48 89 c7             	mov    %rax,%rdi
    c672:	e8 7c a0 ff ff       	callq  66f3 <transparent_crc>
    c677:	83 7d fc 00          	cmpl   $0x0,-0x4(%rbp)
    c67b:	74 16                	je     c693 <main+0x675>
    c67d:	8b 45 f0             	mov    -0x10(%rbp),%eax
    c680:	89 c6                	mov    %eax,%esi
    c682:	48 8d 3d 98 3b 00 00 	lea    0x3b98(%rip),%rdi        # 10221 <g_2179+0x1155>
    c689:	b8 00 00 00 00       	mov    $0x0,%eax
    c68e:	e8 ed 89 ff ff       	callq  5080 <printf@plt>
    c693:	83 45 f0 01          	addl   $0x1,-0x10(%rbp)
    c697:	83 7d f0 02          	cmpl   $0x2,-0x10(%rbp)
    c69b:	0f 8e e2 fc ff ff    	jle    c383 <main+0x365>
    c6a1:	0f b6 05 9d 7c 00 00 	movzbl 0x7c9d(%rip),%eax        # 14345 <g_143>
    c6a8:	0f b6 15 97 7c 00 00 	movzbl 0x7c97(%rip),%edx        # 14346 <g_143+0x1>
    c6af:	83 e2 03             	and    $0x3,%edx
    c6b2:	48 c1 e2 08          	shl    $0x8,%rdx
    c6b6:	48 09 d0             	or     %rdx,%rax
    c6b9:	0f b7 c0             	movzwl %ax,%eax
    c6bc:	8b 55 fc             	mov    -0x4(%rbp),%edx
    c6bf:	48 8d 35 c9 3b 00 00 	lea    0x3bc9(%rip),%rsi        # 1028f <g_2179+0x11c3>
    c6c6:	48 89 c7             	mov    %rax,%rdi
    c6c9:	e8 25 a0 ff ff       	callq  66f3 <transparent_crc>
    c6ce:	48 8b 05 7b 7c 00 00 	mov    0x7c7b(%rip),%rax        # 14350 <g_151>
    c6d5:	c1 e0 06             	shl    $0x6,%eax
    c6d8:	c0 f8 06             	sar    $0x6,%al
    c6db:	48 0f be c0          	movsbq %al,%rax
    c6df:	8b 55 fc             	mov    -0x4(%rbp),%edx
    c6e2:	48 8d 35 af 3b 00 00 	lea    0x3baf(%rip),%rsi        # 10298 <g_2179+0x11cc>
    c6e9:	48 89 c7             	mov    %rax,%rdi
    c6ec:	e8 02 a0 ff ff       	callq  66f3 <transparent_crc>
    c6f1:	48 8b 05 58 7c 00 00 	mov    0x7c58(%rip),%rax        # 14350 <g_151>
    c6f8:	48 c1 e8 08          	shr    $0x8,%rax
    c6fc:	66 25 ff 0f          	and    $0xfff,%ax
    c700:	0f b7 c0             	movzwl %ax,%eax
    c703:	8b 55 fc             	mov    -0x4(%rbp),%edx
    c706:	48 8d 35 94 3b 00 00 	lea    0x3b94(%rip),%rsi        # 102a1 <g_2179+0x11d5>
    c70d:	48 89 c7             	mov    %rax,%rdi
    c710:	e8 de 9f ff ff       	callq  66f3 <transparent_crc>
    c715:	8b 05 3a 7c 00 00    	mov    0x7c3a(%rip),%eax        # 14355 <g_151+0x5>
    c71b:	48 98                	cltq   
    c71d:	8b 55 fc             	mov    -0x4(%rbp),%edx
    c720:	48 8d 35 86 3b 00 00 	lea    0x3b86(%rip),%rsi        # 102ad <g_2179+0x11e1>
    c727:	48 89 c7             	mov    %rax,%rdi
    c72a:	e8 c4 9f ff ff       	callq  66f3 <transparent_crc>
    c72f:	48 8b 05 22 7c 00 00 	mov    0x7c22(%rip),%rax        # 14358 <g_151+0x8>
    c736:	48 c1 e8 08          	shr    $0x8,%rax
    c73a:	66 25 ff 01          	and    $0x1ff,%ax
    c73e:	0f b7 c0             	movzwl %ax,%eax
    c741:	8b 55 fc             	mov    -0x4(%rbp),%edx
    c744:	48 8d 35 6e 3b 00 00 	lea    0x3b6e(%rip),%rsi        # 102b9 <g_2179+0x11ed>
    c74b:	48 89 c7             	mov    %rax,%rdi
    c74e:	e8 a0 9f ff ff       	callq  66f3 <transparent_crc>
    c753:	48 8b 05 fe 7b 00 00 	mov    0x7bfe(%rip),%rax        # 14358 <g_151+0x8>
    c75a:	48 c1 e8 11          	shr    $0x11,%rax
    c75e:	83 e0 7f             	and    $0x7f,%eax
    c761:	0f b6 c0             	movzbl %al,%eax
    c764:	8b 55 fc             	mov    -0x4(%rbp),%edx
    c767:	48 8d 35 57 3b 00 00 	lea    0x3b57(%rip),%rsi        # 102c5 <g_2179+0x11f9>
    c76e:	48 89 c7             	mov    %rax,%rdi
    c771:	e8 7d 9f ff ff       	callq  66f3 <transparent_crc>
    c776:	0f b7 05 de 7b 00 00 	movzwl 0x7bde(%rip),%eax        # 1435b <g_151+0xb>
    c77d:	0f b7 c0             	movzwl %ax,%eax
    c780:	8b 55 fc             	mov    -0x4(%rbp),%edx
    c783:	48 8d 35 47 3b 00 00 	lea    0x3b47(%rip),%rsi        # 102d1 <g_2179+0x1205>
    c78a:	48 89 c7             	mov    %rax,%rdi
    c78d:	e8 61 9f ff ff       	callq  66f3 <transparent_crc>
    c792:	48 8b 05 c4 7b 00 00 	mov    0x7bc4(%rip),%rax        # 1435d <g_151+0xd>
    c799:	8b 55 fc             	mov    -0x4(%rbp),%edx
    c79c:	48 8d 35 3a 3b 00 00 	lea    0x3b3a(%rip),%rsi        # 102dd <g_2179+0x1211>
    c7a3:	48 89 c7             	mov    %rax,%rdi
    c7a6:	e8 48 9f ff ff       	callq  66f3 <transparent_crc>
    c7ab:	0f b6 05 b3 7b 00 00 	movzbl 0x7bb3(%rip),%eax        # 14365 <g_151+0x15>
    c7b2:	48 0f be c0          	movsbq %al,%rax
    c7b6:	8b 55 fc             	mov    -0x4(%rbp),%edx
    c7b9:	48 8d 35 26 3b 00 00 	lea    0x3b26(%rip),%rsi        # 102e6 <g_2179+0x121a>
    c7c0:	48 89 c7             	mov    %rax,%rdi
    c7c3:	e8 2b 9f ff ff       	callq  66f3 <transparent_crc>
    c7c8:	48 8b 05 a1 7b 00 00 	mov    0x7ba1(%rip),%rax        # 14370 <g_152>
    c7cf:	c1 e0 06             	shl    $0x6,%eax
    c7d2:	c0 f8 06             	sar    $0x6,%al
    c7d5:	48 0f be c0          	movsbq %al,%rax
    c7d9:	8b 55 fc             	mov    -0x4(%rbp),%edx
    c7dc:	48 8d 35 0c 3b 00 00 	lea    0x3b0c(%rip),%rsi        # 102ef <g_2179+0x1223>
    c7e3:	48 89 c7             	mov    %rax,%rdi
    c7e6:	e8 08 9f ff ff       	callq  66f3 <transparent_crc>
    c7eb:	48 8b 05 7e 7b 00 00 	mov    0x7b7e(%rip),%rax        # 14370 <g_152>
    c7f2:	48 c1 e8 08          	shr    $0x8,%rax
    c7f6:	66 25 ff 0f          	and    $0xfff,%ax
    c7fa:	0f b7 c0             	movzwl %ax,%eax
    c7fd:	8b 55 fc             	mov    -0x4(%rbp),%edx
    c800:	48 8d 35 f1 3a 00 00 	lea    0x3af1(%rip),%rsi        # 102f8 <g_2179+0x122c>
    c807:	48 89 c7             	mov    %rax,%rdi
    c80a:	e8 e4 9e ff ff       	callq  66f3 <transparent_crc>
    c80f:	8b 05 60 7b 00 00    	mov    0x7b60(%rip),%eax        # 14375 <g_152+0x5>
    c815:	48 98                	cltq   
    c817:	8b 55 fc             	mov    -0x4(%rbp),%edx
    c81a:	48 8d 35 e3 3a 00 00 	lea    0x3ae3(%rip),%rsi        # 10304 <g_2179+0x1238>
    c821:	48 89 c7             	mov    %rax,%rdi
    c824:	e8 ca 9e ff ff       	callq  66f3 <transparent_crc>
    c829:	48 8b 05 48 7b 00 00 	mov    0x7b48(%rip),%rax        # 14378 <g_152+0x8>
    c830:	48 c1 e8 08          	shr    $0x8,%rax
    c834:	66 25 ff 01          	and    $0x1ff,%ax
    c838:	0f b7 c0             	movzwl %ax,%eax
    c83b:	8b 55 fc             	mov    -0x4(%rbp),%edx
    c83e:	48 8d 35 cb 3a 00 00 	lea    0x3acb(%rip),%rsi        # 10310 <g_2179+0x1244>
    c845:	48 89 c7             	mov    %rax,%rdi
    c848:	e8 a6 9e ff ff       	callq  66f3 <transparent_crc>
    c84d:	48 8b 05 24 7b 00 00 	mov    0x7b24(%rip),%rax        # 14378 <g_152+0x8>
    c854:	48 c1 e8 11          	shr    $0x11,%rax
    c858:	83 e0 7f             	and    $0x7f,%eax
    c85b:	0f b6 c0             	movzbl %al,%eax
    c85e:	8b 55 fc             	mov    -0x4(%rbp),%edx
    c861:	48 8d 35 b4 3a 00 00 	lea    0x3ab4(%rip),%rsi        # 1031c <g_2179+0x1250>
    c868:	48 89 c7             	mov    %rax,%rdi
    c86b:	e8 83 9e ff ff       	callq  66f3 <transparent_crc>
    c870:	0f b7 05 04 7b 00 00 	movzwl 0x7b04(%rip),%eax        # 1437b <g_152+0xb>
    c877:	0f b7 c0             	movzwl %ax,%eax
    c87a:	8b 55 fc             	mov    -0x4(%rbp),%edx
    c87d:	48 8d 35 a4 3a 00 00 	lea    0x3aa4(%rip),%rsi        # 10328 <g_2179+0x125c>
    c884:	48 89 c7             	mov    %rax,%rdi
    c887:	e8 67 9e ff ff       	callq  66f3 <transparent_crc>
    c88c:	48 8b 05 ea 7a 00 00 	mov    0x7aea(%rip),%rax        # 1437d <g_152+0xd>
    c893:	8b 55 fc             	mov    -0x4(%rbp),%edx
    c896:	48 8d 35 97 3a 00 00 	lea    0x3a97(%rip),%rsi        # 10334 <g_2179+0x1268>
    c89d:	48 89 c7             	mov    %rax,%rdi
    c8a0:	e8 4e 9e ff ff       	callq  66f3 <transparent_crc>
    c8a5:	0f b6 05 d9 7a 00 00 	movzbl 0x7ad9(%rip),%eax        # 14385 <g_152+0x15>
    c8ac:	48 0f be c0          	movsbq %al,%rax
    c8b0:	8b 55 fc             	mov    -0x4(%rbp),%edx
    c8b3:	48 8d 35 83 3a 00 00 	lea    0x3a83(%rip),%rsi        # 1033d <g_2179+0x1271>
    c8ba:	48 89 c7             	mov    %rax,%rdi
    c8bd:	e8 31 9e ff ff       	callq  66f3 <transparent_crc>
    c8c2:	0f b6 05 bd 7a 00 00 	movzbl 0x7abd(%rip),%eax        # 14386 <g_189>
    c8c9:	48 0f be c0          	movsbq %al,%rax
    c8cd:	8b 55 fc             	mov    -0x4(%rbp),%edx
    c8d0:	48 8d 35 6f 3a 00 00 	lea    0x3a6f(%rip),%rsi        # 10346 <g_2179+0x127a>
    c8d7:	48 89 c7             	mov    %rax,%rdi
    c8da:	e8 14 9e ff ff       	callq  66f3 <transparent_crc>
    c8df:	0f b6 05 a1 7a 00 00 	movzbl 0x7aa1(%rip),%eax        # 14387 <g_217>
    c8e6:	0f b6 c0             	movzbl %al,%eax
    c8e9:	8b 55 fc             	mov    -0x4(%rbp),%edx
    c8ec:	48 8d 35 59 3a 00 00 	lea    0x3a59(%rip),%rsi        # 1034c <g_2179+0x1280>
    c8f3:	48 89 c7             	mov    %rax,%rdi
    c8f6:	e8 f8 9d ff ff       	callq  66f3 <transparent_crc>
    c8fb:	0f b6 05 86 7a 00 00 	movzbl 0x7a86(%rip),%eax        # 14388 <g_223>
    c902:	0f b6 c0             	movzbl %al,%eax
    c905:	8b 55 fc             	mov    -0x4(%rbp),%edx
    c908:	48 8d 35 43 3a 00 00 	lea    0x3a43(%rip),%rsi        # 10352 <g_2179+0x1286>
    c90f:	48 89 c7             	mov    %rax,%rdi
    c912:	e8 dc 9d ff ff       	callq  66f3 <transparent_crc>
    c917:	0f b7 05 6e 7a 00 00 	movzwl 0x7a6e(%rip),%eax        # 1438c <g_241>
    c91e:	0f b7 c0             	movzwl %ax,%eax
    c921:	8b 55 fc             	mov    -0x4(%rbp),%edx
    c924:	48 8d 35 2d 3a 00 00 	lea    0x3a2d(%rip),%rsi        # 10358 <g_2179+0x128c>
    c92b:	48 89 c7             	mov    %rax,%rdi
    c92e:	e8 c0 9d ff ff       	callq  66f3 <transparent_crc>
    c933:	0f b7 05 52 7a 00 00 	movzwl 0x7a52(%rip),%eax        # 1438c <g_241>
    c93a:	48 0f bf c0          	movswq %ax,%rax
    c93e:	8b 55 fc             	mov    -0x4(%rbp),%edx
    c941:	48 8d 35 19 3a 00 00 	lea    0x3a19(%rip),%rsi        # 10361 <g_2179+0x1295>
    c948:	48 89 c7             	mov    %rax,%rdi
    c94b:	e8 a3 9d ff ff       	callq  66f3 <transparent_crc>
    c950:	0f b7 05 39 7a 00 00 	movzwl 0x7a39(%rip),%eax        # 14390 <g_251>
    c957:	0f b7 c0             	movzwl %ax,%eax
    c95a:	8b 55 fc             	mov    -0x4(%rbp),%edx
    c95d:	48 8d 35 06 3a 00 00 	lea    0x3a06(%rip),%rsi        # 1036a <g_2179+0x129e>
    c964:	48 89 c7             	mov    %rax,%rdi
    c967:	e8 87 9d ff ff       	callq  66f3 <transparent_crc>
    c96c:	0f b7 05 1d 7a 00 00 	movzwl 0x7a1d(%rip),%eax        # 14390 <g_251>
    c973:	48 0f bf c0          	movswq %ax,%rax
    c977:	8b 55 fc             	mov    -0x4(%rbp),%edx
    c97a:	48 8d 35 f2 39 00 00 	lea    0x39f2(%rip),%rsi        # 10373 <g_2179+0x12a7>
    c981:	48 89 c7             	mov    %rax,%rdi
    c984:	e8 6a 9d ff ff       	callq  66f3 <transparent_crc>
    c989:	0f b7 05 04 7a 00 00 	movzwl 0x7a04(%rip),%eax        # 14394 <g_256>
    c990:	0f b7 c0             	movzwl %ax,%eax
    c993:	8b 55 fc             	mov    -0x4(%rbp),%edx
    c996:	48 8d 35 df 39 00 00 	lea    0x39df(%rip),%rsi        # 1037c <g_2179+0x12b0>
    c99d:	48 89 c7             	mov    %rax,%rdi
    c9a0:	e8 4e 9d ff ff       	callq  66f3 <transparent_crc>
    c9a5:	0f b7 05 e8 79 00 00 	movzwl 0x79e8(%rip),%eax        # 14394 <g_256>
    c9ac:	48 0f bf c0          	movswq %ax,%rax
    c9b0:	8b 55 fc             	mov    -0x4(%rbp),%edx
    c9b3:	48 8d 35 cb 39 00 00 	lea    0x39cb(%rip),%rsi        # 10385 <g_2179+0x12b9>
    c9ba:	48 89 c7             	mov    %rax,%rdi
    c9bd:	e8 31 9d ff ff       	callq  66f3 <transparent_crc>
    c9c2:	0f b7 05 cf 79 00 00 	movzwl 0x79cf(%rip),%eax        # 14398 <g_268>
    c9c9:	48 0f bf c0          	movswq %ax,%rax
    c9cd:	8b 55 fc             	mov    -0x4(%rbp),%edx
    c9d0:	48 8d 35 b7 39 00 00 	lea    0x39b7(%rip),%rsi        # 1038e <g_2179+0x12c2>
    c9d7:	48 89 c7             	mov    %rax,%rdi
    c9da:	e8 14 9d ff ff       	callq  66f3 <transparent_crc>
    c9df:	48 8b 05 ba 79 00 00 	mov    0x79ba(%rip),%rax        # 143a0 <g_288>
    c9e6:	c1 e0 06             	shl    $0x6,%eax
    c9e9:	c0 f8 06             	sar    $0x6,%al
    c9ec:	48 0f be c0          	movsbq %al,%rax
    c9f0:	8b 55 fc             	mov    -0x4(%rbp),%edx
    c9f3:	48 8d 35 9a 39 00 00 	lea    0x399a(%rip),%rsi        # 10394 <g_2179+0x12c8>
    c9fa:	48 89 c7             	mov    %rax,%rdi
    c9fd:	e8 f1 9c ff ff       	callq  66f3 <transparent_crc>
    ca02:	8b 05 98 79 00 00    	mov    0x7998(%rip),%eax        # 143a0 <g_288>
    ca08:	c1 e8 08             	shr    $0x8,%eax
    ca0b:	66 25 ff 0f          	and    $0xfff,%ax
    ca0f:	0f b7 c0             	movzwl %ax,%eax
    ca12:	8b 55 fc             	mov    -0x4(%rbp),%edx
    ca15:	48 8d 35 81 39 00 00 	lea    0x3981(%rip),%rsi        # 1039d <g_2179+0x12d1>
    ca1c:	48 89 c7             	mov    %rax,%rdi
    ca1f:	e8 cf 9c ff ff       	callq  66f3 <transparent_crc>
    ca24:	8b 05 7b 79 00 00    	mov    0x797b(%rip),%eax        # 143a5 <g_288+0x5>
    ca2a:	48 98                	cltq   
    ca2c:	8b 55 fc             	mov    -0x4(%rbp),%edx
    ca2f:	48 8d 35 73 39 00 00 	lea    0x3973(%rip),%rsi        # 103a9 <g_2179+0x12dd>
    ca36:	48 89 c7             	mov    %rax,%rdi
    ca39:	e8 b5 9c ff ff       	callq  66f3 <transparent_crc>
    ca3e:	8b 05 64 79 00 00    	mov    0x7964(%rip),%eax        # 143a8 <g_288+0x8>
    ca44:	c1 e8 08             	shr    $0x8,%eax
    ca47:	66 25 ff 01          	and    $0x1ff,%ax
    ca4b:	0f b7 c0             	movzwl %ax,%eax
    ca4e:	8b 55 fc             	mov    -0x4(%rbp),%edx
    ca51:	48 8d 35 5d 39 00 00 	lea    0x395d(%rip),%rsi        # 103b5 <g_2179+0x12e9>
    ca58:	48 89 c7             	mov    %rax,%rdi
    ca5b:	e8 93 9c ff ff       	callq  66f3 <transparent_crc>
    ca60:	0f b6 05 43 79 00 00 	movzbl 0x7943(%rip),%eax        # 143aa <g_288+0xa>
    ca67:	d0 e8                	shr    %al
    ca69:	0f b6 c0             	movzbl %al,%eax
    ca6c:	8b 55 fc             	mov    -0x4(%rbp),%edx
    ca6f:	48 8d 35 4b 39 00 00 	lea    0x394b(%rip),%rsi        # 103c1 <g_2179+0x12f5>
    ca76:	48 89 c7             	mov    %rax,%rdi
    ca79:	e8 75 9c ff ff       	callq  66f3 <transparent_crc>
    ca7e:	0f b7 05 26 79 00 00 	movzwl 0x7926(%rip),%eax        # 143ab <g_288+0xb>
    ca85:	0f b7 c0             	movzwl %ax,%eax
    ca88:	8b 55 fc             	mov    -0x4(%rbp),%edx
    ca8b:	48 8d 35 3b 39 00 00 	lea    0x393b(%rip),%rsi        # 103cd <g_2179+0x1301>
    ca92:	48 89 c7             	mov    %rax,%rdi
    ca95:	e8 59 9c ff ff       	callq  66f3 <transparent_crc>
    ca9a:	48 8b 05 0c 79 00 00 	mov    0x790c(%rip),%rax        # 143ad <g_288+0xd>
    caa1:	8b 55 fc             	mov    -0x4(%rbp),%edx
    caa4:	48 8d 35 2e 39 00 00 	lea    0x392e(%rip),%rsi        # 103d9 <g_2179+0x130d>
    caab:	48 89 c7             	mov    %rax,%rdi
    caae:	e8 40 9c ff ff       	callq  66f3 <transparent_crc>
    cab3:	0f b6 05 fb 78 00 00 	movzbl 0x78fb(%rip),%eax        # 143b5 <g_288+0x15>
    caba:	48 0f be c0          	movsbq %al,%rax
    cabe:	8b 55 fc             	mov    -0x4(%rbp),%edx
    cac1:	48 8d 35 1a 39 00 00 	lea    0x391a(%rip),%rsi        # 103e2 <g_2179+0x1316>
    cac8:	48 89 c7             	mov    %rax,%rdi
    cacb:	e8 23 9c ff ff       	callq  66f3 <transparent_crc>
    cad0:	0f b7 05 df 78 00 00 	movzwl 0x78df(%rip),%eax        # 143b6 <g_332>
    cad7:	0f b7 c0             	movzwl %ax,%eax
    cada:	8b 55 fc             	mov    -0x4(%rbp),%edx
    cadd:	48 8d 35 07 39 00 00 	lea    0x3907(%rip),%rsi        # 103eb <g_2179+0x131f>
    cae4:	48 89 c7             	mov    %rax,%rdi
    cae7:	e8 07 9c ff ff       	callq  66f3 <transparent_crc>
    caec:	0f b6 05 c5 78 00 00 	movzbl 0x78c5(%rip),%eax        # 143b8 <g_353>
    caf3:	0f b6 c0             	movzbl %al,%eax
    caf6:	8b 55 fc             	mov    -0x4(%rbp),%edx
    caf9:	48 8d 35 f1 38 00 00 	lea    0x38f1(%rip),%rsi        # 103f1 <g_2179+0x1325>
    cb00:	48 89 c7             	mov    %rax,%rdi
    cb03:	e8 eb 9b ff ff       	callq  66f3 <transparent_crc>
    cb08:	48 8b 05 b1 78 00 00 	mov    0x78b1(%rip),%rax        # 143c0 <g_359>
    cb0f:	66 25 ff 0f          	and    $0xfff,%ax
    cb13:	0f b7 c0             	movzwl %ax,%eax
    cb16:	8b 55 fc             	mov    -0x4(%rbp),%edx
    cb19:	48 8d 35 d7 38 00 00 	lea    0x38d7(%rip),%rsi        # 103f7 <g_2179+0x132b>
    cb20:	48 89 c7             	mov    %rax,%rdi
    cb23:	e8 cb 9b ff ff       	callq  66f3 <transparent_crc>
    cb28:	8b 05 96 78 00 00    	mov    0x7896(%rip),%eax        # 143c4 <g_359+0x4>
    cb2e:	48 98                	cltq   
    cb30:	8b 55 fc             	mov    -0x4(%rbp),%edx
    cb33:	48 8d 35 c6 38 00 00 	lea    0x38c6(%rip),%rsi        # 10400 <g_2179+0x1334>
    cb3a:	48 89 c7             	mov    %rax,%rdi
    cb3d:	e8 b1 9b ff ff       	callq  66f3 <transparent_crc>
    cb42:	48 8b 05 7f 78 00 00 	mov    0x787f(%rip),%rax        # 143c8 <g_359+0x8>
    cb49:	66 25 ff 01          	and    $0x1ff,%ax
    cb4d:	0f b7 c0             	movzwl %ax,%eax
    cb50:	8b 55 fc             	mov    -0x4(%rbp),%edx
    cb53:	48 8d 35 af 38 00 00 	lea    0x38af(%rip),%rsi        # 10409 <g_2179+0x133d>
    cb5a:	48 89 c7             	mov    %rax,%rdi
    cb5d:	e8 91 9b ff ff       	callq  66f3 <transparent_crc>
    cb62:	48 8b 05 5f 78 00 00 	mov    0x785f(%rip),%rax        # 143c8 <g_359+0x8>
    cb69:	48 c1 e8 09          	shr    $0x9,%rax
    cb6d:	83 e0 7f             	and    $0x7f,%eax
    cb70:	0f b6 c0             	movzbl %al,%eax
    cb73:	8b 55 fc             	mov    -0x4(%rbp),%edx
    cb76:	48 8d 35 95 38 00 00 	lea    0x3895(%rip),%rsi        # 10412 <g_2179+0x1346>
    cb7d:	48 89 c7             	mov    %rax,%rdi
    cb80:	e8 6e 9b ff ff       	callq  66f3 <transparent_crc>
    cb85:	0f b7 05 3e 78 00 00 	movzwl 0x783e(%rip),%eax        # 143ca <g_359+0xa>
    cb8c:	0f b7 c0             	movzwl %ax,%eax
    cb8f:	8b 55 fc             	mov    -0x4(%rbp),%edx
    cb92:	48 8d 35 82 38 00 00 	lea    0x3882(%rip),%rsi        # 1041b <g_2179+0x134f>
    cb99:	48 89 c7             	mov    %rax,%rdi
    cb9c:	e8 52 9b ff ff       	callq  66f3 <transparent_crc>
    cba1:	0f b7 05 28 78 00 00 	movzwl 0x7828(%rip),%eax        # 143d0 <g_413>
    cba8:	66 25 ff 0f          	and    $0xfff,%ax
    cbac:	0f b7 c0             	movzwl %ax,%eax
    cbaf:	8b 55 fc             	mov    -0x4(%rbp),%edx
    cbb2:	48 8d 35 6b 38 00 00 	lea    0x386b(%rip),%rsi        # 10424 <g_2179+0x1358>
    cbb9:	48 89 c7             	mov    %rax,%rdi
    cbbc:	e8 32 9b ff ff       	callq  66f3 <transparent_crc>
    cbc1:	8b 05 0d 78 00 00    	mov    0x780d(%rip),%eax        # 143d4 <g_413+0x4>
    cbc7:	48 98                	cltq   
    cbc9:	8b 55 fc             	mov    -0x4(%rbp),%edx
    cbcc:	48 8d 35 5a 38 00 00 	lea    0x385a(%rip),%rsi        # 1042d <g_2179+0x1361>
    cbd3:	48 89 c7             	mov    %rax,%rdi
    cbd6:	e8 18 9b ff ff       	callq  66f3 <transparent_crc>
    cbdb:	0f b7 05 f6 77 00 00 	movzwl 0x77f6(%rip),%eax        # 143d8 <g_413+0x8>
    cbe2:	66 25 ff 01          	and    $0x1ff,%ax
    cbe6:	0f b7 c0             	movzwl %ax,%eax
    cbe9:	8b 55 fc             	mov    -0x4(%rbp),%edx
    cbec:	48 8d 35 43 38 00 00 	lea    0x3843(%rip),%rsi        # 10436 <g_2179+0x136a>
    cbf3:	48 89 c7             	mov    %rax,%rdi
    cbf6:	e8 f8 9a ff ff       	callq  66f3 <transparent_crc>
    cbfb:	0f b6 05 d7 77 00 00 	movzbl 0x77d7(%rip),%eax        # 143d9 <g_413+0x9>
    cc02:	d0 e8                	shr    %al
    cc04:	0f b6 c0             	movzbl %al,%eax
    cc07:	8b 55 fc             	mov    -0x4(%rbp),%edx
    cc0a:	48 8d 35 2e 38 00 00 	lea    0x382e(%rip),%rsi        # 1043f <g_2179+0x1373>
    cc11:	48 89 c7             	mov    %rax,%rdi
    cc14:	e8 da 9a ff ff       	callq  66f3 <transparent_crc>
    cc19:	0f b7 05 ba 77 00 00 	movzwl 0x77ba(%rip),%eax        # 143da <g_413+0xa>
    cc20:	0f b7 c0             	movzwl %ax,%eax
    cc23:	8b 55 fc             	mov    -0x4(%rbp),%edx
    cc26:	48 8d 35 1b 38 00 00 	lea    0x381b(%rip),%rsi        # 10448 <g_2179+0x137c>
    cc2d:	48 89 c7             	mov    %rax,%rdi
    cc30:	e8 be 9a ff ff       	callq  66f3 <transparent_crc>
    cc35:	c7 45 f0 00 00 00 00 	movl   $0x0,-0x10(%rbp)
    cc3c:	e9 3c 03 00 00       	jmpq   cf7d <main+0xf5f>
    cc41:	c7 45 f4 00 00 00 00 	movl   $0x0,-0xc(%rbp)
    cc48:	e9 22 03 00 00       	jmpq   cf6f <main+0xf51>
    cc4d:	8b 45 f4             	mov    -0xc(%rbp),%eax
    cc50:	48 98                	cltq   
    cc52:	8b 55 f0             	mov    -0x10(%rbp),%edx
    cc55:	48 63 ca             	movslq %edx,%rcx
    cc58:	48 89 c2             	mov    %rax,%rdx
    cc5b:	48 c1 e2 02          	shl    $0x2,%rdx
    cc5f:	48 01 c2             	add    %rax,%rdx
    cc62:	48 01 d2             	add    %rdx,%rdx
    cc65:	48 01 c2             	add    %rax,%rdx
    cc68:	48 8d 04 12          	lea    (%rdx,%rdx,1),%rax
    cc6c:	48 89 c2             	mov    %rax,%rdx
    cc6f:	48 89 c8             	mov    %rcx,%rax
    cc72:	48 c1 e0 02          	shl    $0x2,%rax
    cc76:	48 01 c8             	add    %rcx,%rax
    cc79:	48 01 c0             	add    %rax,%rax
    cc7c:	48 01 c8             	add    %rcx,%rax
    cc7f:	48 c1 e0 04          	shl    $0x4,%rax
    cc83:	48 01 c2             	add    %rax,%rdx
    cc86:	48 8d 05 53 77 00 00 	lea    0x7753(%rip),%rax        # 143e0 <g_472>
    cc8d:	48 01 d0             	add    %rdx,%rax
    cc90:	0f b7 00             	movzwl (%rax),%eax
    cc93:	c1 e0 06             	shl    $0x6,%eax
    cc96:	c0 f8 06             	sar    $0x6,%al
    cc99:	48 0f be c0          	movsbq %al,%rax
    cc9d:	8b 55 fc             	mov    -0x4(%rbp),%edx
    cca0:	48 8d 35 aa 37 00 00 	lea    0x37aa(%rip),%rsi        # 10451 <g_2179+0x1385>
    cca7:	48 89 c7             	mov    %rax,%rdi
    ccaa:	e8 44 9a ff ff       	callq  66f3 <transparent_crc>
    ccaf:	8b 45 f4             	mov    -0xc(%rbp),%eax
    ccb2:	48 98                	cltq   
    ccb4:	8b 55 f0             	mov    -0x10(%rbp),%edx
    ccb7:	48 63 ca             	movslq %edx,%rcx
    ccba:	48 89 c2             	mov    %rax,%rdx
    ccbd:	48 c1 e2 02          	shl    $0x2,%rdx
    ccc1:	48 01 c2             	add    %rax,%rdx
    ccc4:	48 01 d2             	add    %rdx,%rdx
    ccc7:	48 01 c2             	add    %rax,%rdx
    ccca:	48 8d 04 12          	lea    (%rdx,%rdx,1),%rax
    ccce:	48 89 c2             	mov    %rax,%rdx
    ccd1:	48 89 c8             	mov    %rcx,%rax
    ccd4:	48 c1 e0 02          	shl    $0x2,%rax
    ccd8:	48 01 c8             	add    %rcx,%rax
    ccdb:	48 01 c0             	add    %rax,%rax
    ccde:	48 01 c8             	add    %rcx,%rax
    cce1:	48 c1 e0 04          	shl    $0x4,%rax
    cce5:	48 01 c2             	add    %rax,%rdx
    cce8:	48 8d 05 f1 76 00 00 	lea    0x76f1(%rip),%rax        # 143e0 <g_472>
    ccef:	48 01 d0             	add    %rdx,%rax
    ccf2:	0f b6 50 01          	movzbl 0x1(%rax),%edx
    ccf6:	0f b6 40 02          	movzbl 0x2(%rax),%eax
    ccfa:	83 e0 0f             	and    $0xf,%eax
    ccfd:	48 c1 e0 08          	shl    $0x8,%rax
    cd01:	48 09 d0             	or     %rdx,%rax
    cd04:	0f b7 c0             	movzwl %ax,%eax
    cd07:	8b 55 fc             	mov    -0x4(%rbp),%edx
    cd0a:	48 8d 35 4f 37 00 00 	lea    0x374f(%rip),%rsi        # 10460 <g_2179+0x1394>
    cd11:	48 89 c7             	mov    %rax,%rdi
    cd14:	e8 da 99 ff ff       	callq  66f3 <transparent_crc>
    cd19:	8b 45 f4             	mov    -0xc(%rbp),%eax
    cd1c:	48 98                	cltq   
    cd1e:	8b 55 f0             	mov    -0x10(%rbp),%edx
    cd21:	48 63 ca             	movslq %edx,%rcx
    cd24:	48 89 c2             	mov    %rax,%rdx
    cd27:	48 c1 e2 02          	shl    $0x2,%rdx
    cd2b:	48 01 c2             	add    %rax,%rdx
    cd2e:	48 01 d2             	add    %rdx,%rdx
    cd31:	48 01 c2             	add    %rax,%rdx
    cd34:	48 8d 04 12          	lea    (%rdx,%rdx,1),%rax
    cd38:	48 89 c2             	mov    %rax,%rdx
    cd3b:	48 89 c8             	mov    %rcx,%rax
    cd3e:	48 c1 e0 02          	shl    $0x2,%rax
    cd42:	48 01 c8             	add    %rcx,%rax
    cd45:	48 01 c0             	add    %rax,%rax
    cd48:	48 01 c8             	add    %rcx,%rax
    cd4b:	48 c1 e0 04          	shl    $0x4,%rax
    cd4f:	48 01 c2             	add    %rax,%rdx
    cd52:	48 8d 05 87 76 00 00 	lea    0x7687(%rip),%rax        # 143e0 <g_472>
    cd59:	48 01 d0             	add    %rdx,%rax
    cd5c:	8b 40 05             	mov    0x5(%rax),%eax
    cd5f:	48 98                	cltq   
    cd61:	8b 55 fc             	mov    -0x4(%rbp),%edx
    cd64:	48 8d 35 07 37 00 00 	lea    0x3707(%rip),%rsi        # 10472 <g_2179+0x13a6>
    cd6b:	48 89 c7             	mov    %rax,%rdi
    cd6e:	e8 80 99 ff ff       	callq  66f3 <transparent_crc>
    cd73:	8b 45 f4             	mov    -0xc(%rbp),%eax
    cd76:	48 98                	cltq   
    cd78:	8b 55 f0             	mov    -0x10(%rbp),%edx
    cd7b:	48 63 ca             	movslq %edx,%rcx
    cd7e:	48 89 c2             	mov    %rax,%rdx
    cd81:	48 c1 e2 02          	shl    $0x2,%rdx
    cd85:	48 01 c2             	add    %rax,%rdx
    cd88:	48 01 d2             	add    %rdx,%rdx
    cd8b:	48 01 c2             	add    %rax,%rdx
    cd8e:	48 8d 04 12          	lea    (%rdx,%rdx,1),%rax
    cd92:	48 89 c2             	mov    %rax,%rdx
    cd95:	48 89 c8             	mov    %rcx,%rax
    cd98:	48 c1 e0 02          	shl    $0x2,%rax
    cd9c:	48 01 c8             	add    %rcx,%rax
    cd9f:	48 01 c0             	add    %rax,%rax
    cda2:	48 01 c8             	add    %rcx,%rax
    cda5:	48 c1 e0 04          	shl    $0x4,%rax
    cda9:	48 01 c2             	add    %rax,%rdx
    cdac:	48 8d 05 2d 76 00 00 	lea    0x762d(%rip),%rax        # 143e0 <g_472>
    cdb3:	48 01 d0             	add    %rdx,%rax
    cdb6:	0f b6 50 09          	movzbl 0x9(%rax),%edx
    cdba:	0f b6 40 0a          	movzbl 0xa(%rax),%eax
    cdbe:	83 e0 01             	and    $0x1,%eax
    cdc1:	48 c1 e0 08          	shl    $0x8,%rax
    cdc5:	48 09 d0             	or     %rdx,%rax
    cdc8:	0f b7 c0             	movzwl %ax,%eax
    cdcb:	8b 55 fc             	mov    -0x4(%rbp),%edx
    cdce:	48 8d 35 af 36 00 00 	lea    0x36af(%rip),%rsi        # 10484 <g_2179+0x13b8>
    cdd5:	48 89 c7             	mov    %rax,%rdi
    cdd8:	e8 16 99 ff ff       	callq  66f3 <transparent_crc>
    cddd:	8b 45 f4             	mov    -0xc(%rbp),%eax
    cde0:	48 98                	cltq   
    cde2:	8b 55 f0             	mov    -0x10(%rbp),%edx
    cde5:	48 63 ca             	movslq %edx,%rcx
    cde8:	48 89 c2             	mov    %rax,%rdx
    cdeb:	48 c1 e2 02          	shl    $0x2,%rdx
    cdef:	48 01 c2             	add    %rax,%rdx
    cdf2:	48 01 d2             	add    %rdx,%rdx
    cdf5:	48 01 c2             	add    %rax,%rdx
    cdf8:	48 8d 04 12          	lea    (%rdx,%rdx,1),%rax
    cdfc:	48 89 c2             	mov    %rax,%rdx
    cdff:	48 89 c8             	mov    %rcx,%rax
    ce02:	48 c1 e0 02          	shl    $0x2,%rax
    ce06:	48 01 c8             	add    %rcx,%rax
    ce09:	48 01 c0             	add    %rax,%rax
    ce0c:	48 01 c8             	add    %rcx,%rax
    ce0f:	48 c1 e0 04          	shl    $0x4,%rax
    ce13:	48 01 c2             	add    %rax,%rdx
    ce16:	48 8d 05 c3 75 00 00 	lea    0x75c3(%rip),%rax        # 143e0 <g_472>
    ce1d:	48 01 d0             	add    %rdx,%rax
    ce20:	0f b6 40 0a          	movzbl 0xa(%rax),%eax
    ce24:	d0 e8                	shr    %al
    ce26:	0f b6 c0             	movzbl %al,%eax
    ce29:	8b 55 fc             	mov    -0x4(%rbp),%edx
    ce2c:	48 8d 35 63 36 00 00 	lea    0x3663(%rip),%rsi        # 10496 <g_2179+0x13ca>
    ce33:	48 89 c7             	mov    %rax,%rdi
    ce36:	e8 b8 98 ff ff       	callq  66f3 <transparent_crc>
    ce3b:	8b 45 f4             	mov    -0xc(%rbp),%eax
    ce3e:	48 98                	cltq   
    ce40:	8b 55 f0             	mov    -0x10(%rbp),%edx
    ce43:	48 63 ca             	movslq %edx,%rcx
    ce46:	48 89 c2             	mov    %rax,%rdx
    ce49:	48 c1 e2 02          	shl    $0x2,%rdx
    ce4d:	48 01 c2             	add    %rax,%rdx
    ce50:	48 01 d2             	add    %rdx,%rdx
    ce53:	48 01 c2             	add    %rax,%rdx
    ce56:	48 8d 04 12          	lea    (%rdx,%rdx,1),%rax
    ce5a:	48 89 c2             	mov    %rax,%rdx
    ce5d:	48 89 c8             	mov    %rcx,%rax
    ce60:	48 c1 e0 02          	shl    $0x2,%rax
    ce64:	48 01 c8             	add    %rcx,%rax
    ce67:	48 01 c0             	add    %rax,%rax
    ce6a:	48 01 c8             	add    %rcx,%rax
    ce6d:	48 c1 e0 04          	shl    $0x4,%rax
    ce71:	48 01 c2             	add    %rax,%rdx
    ce74:	48 8d 05 65 75 00 00 	lea    0x7565(%rip),%rax        # 143e0 <g_472>
    ce7b:	48 01 d0             	add    %rdx,%rax
    ce7e:	0f b7 40 0b          	movzwl 0xb(%rax),%eax
    ce82:	0f b7 c0             	movzwl %ax,%eax
    ce85:	8b 55 fc             	mov    -0x4(%rbp),%edx
    ce88:	48 8d 35 19 36 00 00 	lea    0x3619(%rip),%rsi        # 104a8 <g_2179+0x13dc>
    ce8f:	48 89 c7             	mov    %rax,%rdi
    ce92:	e8 5c 98 ff ff       	callq  66f3 <transparent_crc>
    ce97:	8b 45 f4             	mov    -0xc(%rbp),%eax
    ce9a:	48 98                	cltq   
    ce9c:	8b 55 f0             	mov    -0x10(%rbp),%edx
    ce9f:	48 63 ca             	movslq %edx,%rcx
    cea2:	48 89 c2             	mov    %rax,%rdx
    cea5:	48 c1 e2 02          	shl    $0x2,%rdx
    cea9:	48 01 c2             	add    %rax,%rdx
    ceac:	48 01 d2             	add    %rdx,%rdx
    ceaf:	48 01 c2             	add    %rax,%rdx
    ceb2:	48 8d 04 12          	lea    (%rdx,%rdx,1),%rax
    ceb6:	48 89 c2             	mov    %rax,%rdx
    ceb9:	48 89 c8             	mov    %rcx,%rax
    cebc:	48 c1 e0 02          	shl    $0x2,%rax
    cec0:	48 01 c8             	add    %rcx,%rax
    cec3:	48 01 c0             	add    %rax,%rax
    cec6:	48 01 c8             	add    %rcx,%rax
    cec9:	48 c1 e0 04          	shl    $0x4,%rax
    cecd:	48 01 c2             	add    %rax,%rdx
    ced0:	48 8d 05 09 75 00 00 	lea    0x7509(%rip),%rax        # 143e0 <g_472>
    ced7:	48 01 d0             	add    %rdx,%rax
    ceda:	48 8b 40 0d          	mov    0xd(%rax),%rax
    cede:	8b 55 fc             	mov    -0x4(%rbp),%edx
    cee1:	48 8d 35 d2 35 00 00 	lea    0x35d2(%rip),%rsi        # 104ba <g_2179+0x13ee>
    cee8:	48 89 c7             	mov    %rax,%rdi
    ceeb:	e8 03 98 ff ff       	callq  66f3 <transparent_crc>
    cef0:	8b 45 f4             	mov    -0xc(%rbp),%eax
    cef3:	48 98                	cltq   
    cef5:	8b 55 f0             	mov    -0x10(%rbp),%edx
    cef8:	48 63 ca             	movslq %edx,%rcx
    cefb:	48 89 c2             	mov    %rax,%rdx
    cefe:	48 c1 e2 02          	shl    $0x2,%rdx
    cf02:	48 01 c2             	add    %rax,%rdx
    cf05:	48 01 d2             	add    %rdx,%rdx
    cf08:	48 01 c2             	add    %rax,%rdx
    cf0b:	48 8d 04 12          	lea    (%rdx,%rdx,1),%rax
    cf0f:	48 89 c2             	mov    %rax,%rdx
    cf12:	48 89 c8             	mov    %rcx,%rax
    cf15:	48 c1 e0 02          	shl    $0x2,%rax
    cf19:	48 01 c8             	add    %rcx,%rax
    cf1c:	48 01 c0             	add    %rax,%rax
    cf1f:	48 01 c8             	add    %rcx,%rax
    cf22:	48 c1 e0 04          	shl    $0x4,%rax
    cf26:	48 01 c2             	add    %rax,%rdx
    cf29:	48 8d 05 c5 74 00 00 	lea    0x74c5(%rip),%rax        # 143f5 <g_472+0x15>
    cf30:	48 01 d0             	add    %rdx,%rax
    cf33:	0f b6 00             	movzbl (%rax),%eax
    cf36:	48 0f be c0          	movsbq %al,%rax
    cf3a:	8b 55 fc             	mov    -0x4(%rbp),%edx
    cf3d:	48 8d 35 85 35 00 00 	lea    0x3585(%rip),%rsi        # 104c9 <g_2179+0x13fd>
    cf44:	48 89 c7             	mov    %rax,%rdi
    cf47:	e8 a7 97 ff ff       	callq  66f3 <transparent_crc>
    cf4c:	83 7d fc 00          	cmpl   $0x0,-0x4(%rbp)
    cf50:	74 19                	je     cf6b <main+0xf4d>
    cf52:	8b 55 f4             	mov    -0xc(%rbp),%edx
    cf55:	8b 45 f0             	mov    -0x10(%rbp),%eax
    cf58:	89 c6                	mov    %eax,%esi
    cf5a:	48 8d 3d 99 32 00 00 	lea    0x3299(%rip),%rdi        # 101fa <g_2179+0x112e>
    cf61:	b8 00 00 00 00       	mov    $0x0,%eax
    cf66:	e8 15 81 ff ff       	callq  5080 <printf@plt>
    cf6b:	83 45 f4 01          	addl   $0x1,-0xc(%rbp)
    cf6f:	83 7d f4 07          	cmpl   $0x7,-0xc(%rbp)
    cf73:	0f 8e d4 fc ff ff    	jle    cc4d <main+0xc2f>
    cf79:	83 45 f0 01          	addl   $0x1,-0x10(%rbp)
    cf7d:	83 7d f0 03          	cmpl   $0x3,-0x10(%rbp)
    cf81:	0f 8e ba fc ff ff    	jle    cc41 <main+0xc23>
    cf87:	0f b7 05 12 77 00 00 	movzwl 0x7712(%rip),%eax        # 146a0 <g_481>
    cf8e:	66 25 ff 0f          	and    $0xfff,%ax
    cf92:	0f b7 c0             	movzwl %ax,%eax
    cf95:	8b 55 fc             	mov    -0x4(%rbp),%edx
    cf98:	48 8d 35 39 35 00 00 	lea    0x3539(%rip),%rsi        # 104d8 <g_2179+0x140c>
    cf9f:	48 89 c7             	mov    %rax,%rdi
    cfa2:	e8 4c 97 ff ff       	callq  66f3 <transparent_crc>
    cfa7:	8b 05 f7 76 00 00    	mov    0x76f7(%rip),%eax        # 146a4 <g_481+0x4>
    cfad:	48 98                	cltq   
    cfaf:	8b 55 fc             	mov    -0x4(%rbp),%edx
    cfb2:	48 8d 35 28 35 00 00 	lea    0x3528(%rip),%rsi        # 104e1 <g_2179+0x1415>
    cfb9:	48 89 c7             	mov    %rax,%rdi
    cfbc:	e8 32 97 ff ff       	callq  66f3 <transparent_crc>
    cfc1:	0f b7 05 e0 76 00 00 	movzwl 0x76e0(%rip),%eax        # 146a8 <g_481+0x8>
    cfc8:	66 25 ff 01          	and    $0x1ff,%ax
    cfcc:	0f b7 c0             	movzwl %ax,%eax
    cfcf:	8b 55 fc             	mov    -0x4(%rbp),%edx
    cfd2:	48 8d 35 11 35 00 00 	lea    0x3511(%rip),%rsi        # 104ea <g_2179+0x141e>
    cfd9:	48 89 c7             	mov    %rax,%rdi
    cfdc:	e8 12 97 ff ff       	callq  66f3 <transparent_crc>
    cfe1:	0f b6 05 c1 76 00 00 	movzbl 0x76c1(%rip),%eax        # 146a9 <g_481+0x9>
    cfe8:	d0 e8                	shr    %al
    cfea:	0f b6 c0             	movzbl %al,%eax
    cfed:	8b 55 fc             	mov    -0x4(%rbp),%edx
    cff0:	48 8d 35 fc 34 00 00 	lea    0x34fc(%rip),%rsi        # 104f3 <g_2179+0x1427>
    cff7:	48 89 c7             	mov    %rax,%rdi
    cffa:	e8 f4 96 ff ff       	callq  66f3 <transparent_crc>
    cfff:	0f b7 05 a4 76 00 00 	movzwl 0x76a4(%rip),%eax        # 146aa <g_481+0xa>
    d006:	0f b7 c0             	movzwl %ax,%eax
    d009:	8b 55 fc             	mov    -0x4(%rbp),%edx
    d00c:	48 8d 35 e9 34 00 00 	lea    0x34e9(%rip),%rsi        # 104fc <g_2179+0x1430>
    d013:	48 89 c7             	mov    %rax,%rdi
    d016:	e8 d8 96 ff ff       	callq  66f3 <transparent_crc>
    d01b:	8b 05 8b 76 00 00    	mov    0x768b(%rip),%eax        # 146ac <g_522>
    d021:	89 c1                	mov    %eax,%ecx
    d023:	8b 45 fc             	mov    -0x4(%rbp),%eax
    d026:	89 c2                	mov    %eax,%edx
    d028:	48 8d 35 d6 34 00 00 	lea    0x34d6(%rip),%rsi        # 10505 <g_2179+0x1439>
    d02f:	48 89 cf             	mov    %rcx,%rdi
    d032:	e8 bc 96 ff ff       	callq  66f3 <transparent_crc>
    d037:	0f b7 05 2a 9a 00 00 	movzwl 0x9a2a(%rip),%eax        # 16a68 <g_649>
    d03e:	0f b7 c0             	movzwl %ax,%eax
    d041:	8b 55 fc             	mov    -0x4(%rbp),%edx
    d044:	48 8d 35 c0 34 00 00 	lea    0x34c0(%rip),%rsi        # 1050b <g_2179+0x143f>
    d04b:	48 89 c7             	mov    %rax,%rdi
    d04e:	e8 a0 96 ff ff       	callq  66f3 <transparent_crc>
    d053:	0f b6 05 56 76 00 00 	movzbl 0x7656(%rip),%eax        # 146b0 <g_672>
    d05a:	48 0f be c0          	movsbq %al,%rax
    d05e:	8b 55 fc             	mov    -0x4(%rbp),%edx
    d061:	48 8d 35 a9 34 00 00 	lea    0x34a9(%rip),%rsi        # 10511 <g_2179+0x1445>
    d068:	48 89 c7             	mov    %rax,%rdi
    d06b:	e8 83 96 ff ff       	callq  66f3 <transparent_crc>
    d070:	0f b7 05 3d 76 00 00 	movzwl 0x763d(%rip),%eax        # 146b4 <g_754>
    d077:	0f b7 c0             	movzwl %ax,%eax
    d07a:	8b 55 fc             	mov    -0x4(%rbp),%edx
    d07d:	48 8d 35 93 34 00 00 	lea    0x3493(%rip),%rsi        # 10517 <g_2179+0x144b>
    d084:	48 89 c7             	mov    %rax,%rdi
    d087:	e8 67 96 ff ff       	callq  66f3 <transparent_crc>
    d08c:	0f b7 05 21 76 00 00 	movzwl 0x7621(%rip),%eax        # 146b4 <g_754>
    d093:	48 0f bf c0          	movswq %ax,%rax
    d097:	8b 55 fc             	mov    -0x4(%rbp),%edx
    d09a:	48 8d 35 7f 34 00 00 	lea    0x347f(%rip),%rsi        # 10520 <g_2179+0x1454>
    d0a1:	48 89 c7             	mov    %rax,%rdi
    d0a4:	e8 4a 96 ff ff       	callq  66f3 <transparent_crc>
    d0a9:	48 8b 05 10 76 00 00 	mov    0x7610(%rip),%rax        # 146c0 <g_824>
    d0b0:	c1 e0 06             	shl    $0x6,%eax
    d0b3:	c0 f8 06             	sar    $0x6,%al
    d0b6:	48 0f be c0          	movsbq %al,%rax
    d0ba:	8b 55 fc             	mov    -0x4(%rbp),%edx
    d0bd:	48 8d 35 65 34 00 00 	lea    0x3465(%rip),%rsi        # 10529 <g_2179+0x145d>
    d0c4:	48 89 c7             	mov    %rax,%rdi
    d0c7:	e8 27 96 ff ff       	callq  66f3 <transparent_crc>
    d0cc:	48 8b 05 ed 75 00 00 	mov    0x75ed(%rip),%rax        # 146c0 <g_824>
    d0d3:	48 c1 e8 08          	shr    $0x8,%rax
    d0d7:	66 25 ff 0f          	and    $0xfff,%ax
    d0db:	0f b7 c0             	movzwl %ax,%eax
    d0de:	8b 55 fc             	mov    -0x4(%rbp),%edx
    d0e1:	48 8d 35 4a 34 00 00 	lea    0x344a(%rip),%rsi        # 10532 <g_2179+0x1466>
    d0e8:	48 89 c7             	mov    %rax,%rdi
    d0eb:	e8 03 96 ff ff       	callq  66f3 <transparent_crc>
    d0f0:	8b 05 cf 75 00 00    	mov    0x75cf(%rip),%eax        # 146c5 <g_824+0x5>
    d0f6:	48 98                	cltq   
    d0f8:	8b 55 fc             	mov    -0x4(%rbp),%edx
    d0fb:	48 8d 35 3c 34 00 00 	lea    0x343c(%rip),%rsi        # 1053e <g_2179+0x1472>
    d102:	48 89 c7             	mov    %rax,%rdi
    d105:	e8 e9 95 ff ff       	callq  66f3 <transparent_crc>
    d10a:	48 8b 05 b7 75 00 00 	mov    0x75b7(%rip),%rax        # 146c8 <g_824+0x8>
    d111:	48 c1 e8 08          	shr    $0x8,%rax
    d115:	66 25 ff 01          	and    $0x1ff,%ax
    d119:	0f b7 c0             	movzwl %ax,%eax
    d11c:	8b 55 fc             	mov    -0x4(%rbp),%edx
    d11f:	48 8d 35 24 34 00 00 	lea    0x3424(%rip),%rsi        # 1054a <g_2179+0x147e>
    d126:	48 89 c7             	mov    %rax,%rdi
    d129:	e8 c5 95 ff ff       	callq  66f3 <transparent_crc>
    d12e:	48 8b 05 93 75 00 00 	mov    0x7593(%rip),%rax        # 146c8 <g_824+0x8>
    d135:	48 c1 e8 11          	shr    $0x11,%rax
    d139:	83 e0 7f             	and    $0x7f,%eax
    d13c:	0f b6 c0             	movzbl %al,%eax
    d13f:	8b 55 fc             	mov    -0x4(%rbp),%edx
    d142:	48 8d 35 0d 34 00 00 	lea    0x340d(%rip),%rsi        # 10556 <g_2179+0x148a>
    d149:	48 89 c7             	mov    %rax,%rdi
    d14c:	e8 a2 95 ff ff       	callq  66f3 <transparent_crc>
    d151:	0f b7 05 73 75 00 00 	movzwl 0x7573(%rip),%eax        # 146cb <g_824+0xb>
    d158:	0f b7 c0             	movzwl %ax,%eax
    d15b:	8b 55 fc             	mov    -0x4(%rbp),%edx
    d15e:	48 8d 35 fd 33 00 00 	lea    0x33fd(%rip),%rsi        # 10562 <g_2179+0x1496>
    d165:	48 89 c7             	mov    %rax,%rdi
    d168:	e8 86 95 ff ff       	callq  66f3 <transparent_crc>
    d16d:	48 8b 05 59 75 00 00 	mov    0x7559(%rip),%rax        # 146cd <g_824+0xd>
    d174:	8b 55 fc             	mov    -0x4(%rbp),%edx
    d177:	48 8d 35 f0 33 00 00 	lea    0x33f0(%rip),%rsi        # 1056e <g_2179+0x14a2>
    d17e:	48 89 c7             	mov    %rax,%rdi
    d181:	e8 6d 95 ff ff       	callq  66f3 <transparent_crc>
    d186:	0f b6 05 48 75 00 00 	movzbl 0x7548(%rip),%eax        # 146d5 <g_824+0x15>
    d18d:	48 0f be c0          	movsbq %al,%rax
    d191:	8b 55 fc             	mov    -0x4(%rbp),%edx
    d194:	48 8d 35 dc 33 00 00 	lea    0x33dc(%rip),%rsi        # 10577 <g_2179+0x14ab>
    d19b:	48 89 c7             	mov    %rax,%rdi
    d19e:	e8 50 95 ff ff       	callq  66f3 <transparent_crc>
    d1a3:	c7 45 f0 00 00 00 00 	movl   $0x0,-0x10(%rbp)
    d1aa:	e9 53 03 00 00       	jmpq   d502 <main+0x14e4>
    d1af:	c7 45 f4 00 00 00 00 	movl   $0x0,-0xc(%rbp)
    d1b6:	e9 39 03 00 00       	jmpq   d4f4 <main+0x14d6>
    d1bb:	8b 45 f4             	mov    -0xc(%rbp),%eax
    d1be:	48 98                	cltq   
    d1c0:	8b 55 f0             	mov    -0x10(%rbp),%edx
    d1c3:	48 63 ca             	movslq %edx,%rcx
    d1c6:	48 89 c2             	mov    %rax,%rdx
    d1c9:	48 c1 e2 02          	shl    $0x2,%rdx
    d1cd:	48 01 c2             	add    %rax,%rdx
    d1d0:	48 01 d2             	add    %rdx,%rdx
    d1d3:	48 01 c2             	add    %rax,%rdx
    d1d6:	48 8d 04 12          	lea    (%rdx,%rdx,1),%rax
    d1da:	48 89 c2             	mov    %rax,%rdx
    d1dd:	48 89 c8             	mov    %rcx,%rax
    d1e0:	48 c1 e0 02          	shl    $0x2,%rax
    d1e4:	48 01 c8             	add    %rcx,%rax
    d1e7:	48 01 c0             	add    %rax,%rax
    d1ea:	48 01 c8             	add    %rcx,%rax
    d1ed:	48 c1 e0 03          	shl    $0x3,%rax
    d1f1:	48 01 c2             	add    %rax,%rdx
    d1f4:	48 8d 05 e5 74 00 00 	lea    0x74e5(%rip),%rax        # 146e0 <g_842>
    d1fb:	48 01 d0             	add    %rdx,%rax
    d1fe:	0f b7 00             	movzwl (%rax),%eax
    d201:	c1 e0 06             	shl    $0x6,%eax
    d204:	c0 f8 06             	sar    $0x6,%al
    d207:	48 0f be c0          	movsbq %al,%rax
    d20b:	8b 55 fc             	mov    -0x4(%rbp),%edx
    d20e:	48 8d 35 6b 33 00 00 	lea    0x336b(%rip),%rsi        # 10580 <g_2179+0x14b4>
    d215:	48 89 c7             	mov    %rax,%rdi
    d218:	e8 d6 94 ff ff       	callq  66f3 <transparent_crc>
    d21d:	8b 45 f4             	mov    -0xc(%rbp),%eax
    d220:	48 98                	cltq   
    d222:	8b 55 f0             	mov    -0x10(%rbp),%edx
    d225:	48 63 ca             	movslq %edx,%rcx
    d228:	48 89 c2             	mov    %rax,%rdx
    d22b:	48 c1 e2 02          	shl    $0x2,%rdx
    d22f:	48 01 c2             	add    %rax,%rdx
    d232:	48 01 d2             	add    %rdx,%rdx
    d235:	48 01 c2             	add    %rax,%rdx
    d238:	48 8d 04 12          	lea    (%rdx,%rdx,1),%rax
    d23c:	48 89 c2             	mov    %rax,%rdx
    d23f:	48 89 c8             	mov    %rcx,%rax
    d242:	48 c1 e0 02          	shl    $0x2,%rax
    d246:	48 01 c8             	add    %rcx,%rax
    d249:	48 01 c0             	add    %rax,%rax
    d24c:	48 01 c8             	add    %rcx,%rax
    d24f:	48 c1 e0 03          	shl    $0x3,%rax
    d253:	48 01 c2             	add    %rax,%rdx
    d256:	48 8d 05 83 74 00 00 	lea    0x7483(%rip),%rax        # 146e0 <g_842>
    d25d:	48 01 d0             	add    %rdx,%rax
    d260:	0f b7 10             	movzwl (%rax),%edx
    d263:	66 c1 ea 08          	shr    $0x8,%dx
    d267:	0f b7 d2             	movzwl %dx,%edx
    d26a:	0f b7 40 02          	movzwl 0x2(%rax),%eax
    d26e:	0f b7 c0             	movzwl %ax,%eax
    d271:	83 e0 0f             	and    $0xf,%eax
    d274:	48 c1 e0 08          	shl    $0x8,%rax
    d278:	48 09 d0             	or     %rdx,%rax
    d27b:	0f b7 c0             	movzwl %ax,%eax
    d27e:	8b 55 fc             	mov    -0x4(%rbp),%edx
    d281:	48 8d 35 07 33 00 00 	lea    0x3307(%rip),%rsi        # 1058f <g_2179+0x14c3>
    d288:	48 89 c7             	mov    %rax,%rdi
    d28b:	e8 63 94 ff ff       	callq  66f3 <transparent_crc>
    d290:	8b 45 f4             	mov    -0xc(%rbp),%eax
    d293:	48 98                	cltq   
    d295:	8b 55 f0             	mov    -0x10(%rbp),%edx
    d298:	48 63 ca             	movslq %edx,%rcx
    d29b:	48 89 c2             	mov    %rax,%rdx
    d29e:	48 c1 e2 02          	shl    $0x2,%rdx
    d2a2:	48 01 c2             	add    %rax,%rdx
    d2a5:	48 01 d2             	add    %rdx,%rdx
    d2a8:	48 01 c2             	add    %rax,%rdx
    d2ab:	48 8d 04 12          	lea    (%rdx,%rdx,1),%rax
    d2af:	48 89 c2             	mov    %rax,%rdx
    d2b2:	48 89 c8             	mov    %rcx,%rax
    d2b5:	48 c1 e0 02          	shl    $0x2,%rax
    d2b9:	48 01 c8             	add    %rcx,%rax
    d2bc:	48 01 c0             	add    %rax,%rax
    d2bf:	48 01 c8             	add    %rcx,%rax
    d2c2:	48 c1 e0 03          	shl    $0x3,%rax
    d2c6:	48 01 c2             	add    %rax,%rdx
    d2c9:	48 8d 05 10 74 00 00 	lea    0x7410(%rip),%rax        # 146e0 <g_842>
    d2d0:	48 01 d0             	add    %rdx,%rax
    d2d3:	8b 40 05             	mov    0x5(%rax),%eax
    d2d6:	48 98                	cltq   
    d2d8:	8b 55 fc             	mov    -0x4(%rbp),%edx
    d2db:	48 8d 35 bf 32 00 00 	lea    0x32bf(%rip),%rsi        # 105a1 <g_2179+0x14d5>
    d2e2:	48 89 c7             	mov    %rax,%rdi
    d2e5:	e8 09 94 ff ff       	callq  66f3 <transparent_crc>
    d2ea:	8b 45 f4             	mov    -0xc(%rbp),%eax
    d2ed:	48 98                	cltq   
    d2ef:	8b 55 f0             	mov    -0x10(%rbp),%edx
    d2f2:	48 63 ca             	movslq %edx,%rcx
    d2f5:	48 89 c2             	mov    %rax,%rdx
    d2f8:	48 c1 e2 02          	shl    $0x2,%rdx
    d2fc:	48 01 c2             	add    %rax,%rdx
    d2ff:	48 01 d2             	add    %rdx,%rdx
    d302:	48 01 c2             	add    %rax,%rdx
    d305:	48 8d 04 12          	lea    (%rdx,%rdx,1),%rax
    d309:	48 89 c2             	mov    %rax,%rdx
    d30c:	48 89 c8             	mov    %rcx,%rax
    d30f:	48 c1 e0 02          	shl    $0x2,%rax
    d313:	48 01 c8             	add    %rcx,%rax
    d316:	48 01 c0             	add    %rax,%rax
    d319:	48 01 c8             	add    %rcx,%rax
    d31c:	48 c1 e0 03          	shl    $0x3,%rax
    d320:	48 01 c2             	add    %rax,%rdx
    d323:	48 8d 05 b6 73 00 00 	lea    0x73b6(%rip),%rax        # 146e0 <g_842>
    d32a:	48 01 d0             	add    %rdx,%rax
    d32d:	0f b7 50 08          	movzwl 0x8(%rax),%edx
    d331:	66 c1 ea 08          	shr    $0x8,%dx
    d335:	0f b7 d2             	movzwl %dx,%edx
    d338:	0f b7 40 0a          	movzwl 0xa(%rax),%eax
    d33c:	0f b7 c0             	movzwl %ax,%eax
    d33f:	83 e0 01             	and    $0x1,%eax
    d342:	48 c1 e0 08          	shl    $0x8,%rax
    d346:	48 09 d0             	or     %rdx,%rax
    d349:	0f b7 c0             	movzwl %ax,%eax
    d34c:	8b 55 fc             	mov    -0x4(%rbp),%edx
    d34f:	48 8d 35 5d 32 00 00 	lea    0x325d(%rip),%rsi        # 105b3 <g_2179+0x14e7>
    d356:	48 89 c7             	mov    %rax,%rdi
    d359:	e8 95 93 ff ff       	callq  66f3 <transparent_crc>
    d35e:	8b 45 f4             	mov    -0xc(%rbp),%eax
    d361:	48 98                	cltq   
    d363:	8b 55 f0             	mov    -0x10(%rbp),%edx
    d366:	48 63 ca             	movslq %edx,%rcx
    d369:	48 89 c2             	mov    %rax,%rdx
    d36c:	48 c1 e2 02          	shl    $0x2,%rdx
    d370:	48 01 c2             	add    %rax,%rdx
    d373:	48 01 d2             	add    %rdx,%rdx
    d376:	48 01 c2             	add    %rax,%rdx
    d379:	48 8d 04 12          	lea    (%rdx,%rdx,1),%rax
    d37d:	48 89 c2             	mov    %rax,%rdx
    d380:	48 89 c8             	mov    %rcx,%rax
    d383:	48 c1 e0 02          	shl    $0x2,%rax
    d387:	48 01 c8             	add    %rcx,%rax
    d38a:	48 01 c0             	add    %rax,%rax
    d38d:	48 01 c8             	add    %rcx,%rax
    d390:	48 c1 e0 03          	shl    $0x3,%rax
    d394:	48 01 c2             	add    %rax,%rdx
    d397:	48 8d 05 42 73 00 00 	lea    0x7342(%rip),%rax        # 146e0 <g_842>
    d39e:	48 01 d0             	add    %rdx,%rax
    d3a1:	0f b7 40 0a          	movzwl 0xa(%rax),%eax
    d3a5:	66 d1 e8             	shr    %ax
    d3a8:	83 e0 7f             	and    $0x7f,%eax
    d3ab:	0f b6 c0             	movzbl %al,%eax
    d3ae:	8b 55 fc             	mov    -0x4(%rbp),%edx
    d3b1:	48 8d 35 0d 32 00 00 	lea    0x320d(%rip),%rsi        # 105c5 <g_2179+0x14f9>
    d3b8:	48 89 c7             	mov    %rax,%rdi
    d3bb:	e8 33 93 ff ff       	callq  66f3 <transparent_crc>
    d3c0:	8b 45 f4             	mov    -0xc(%rbp),%eax
    d3c3:	48 98                	cltq   
    d3c5:	8b 55 f0             	mov    -0x10(%rbp),%edx
    d3c8:	48 63 ca             	movslq %edx,%rcx
    d3cb:	48 89 c2             	mov    %rax,%rdx
    d3ce:	48 c1 e2 02          	shl    $0x2,%rdx
    d3d2:	48 01 c2             	add    %rax,%rdx
    d3d5:	48 01 d2             	add    %rdx,%rdx
    d3d8:	48 01 c2             	add    %rax,%rdx
    d3db:	48 8d 04 12          	lea    (%rdx,%rdx,1),%rax
    d3df:	48 89 c2             	mov    %rax,%rdx
    d3e2:	48 89 c8             	mov    %rcx,%rax
    d3e5:	48 c1 e0 02          	shl    $0x2,%rax
    d3e9:	48 01 c8             	add    %rcx,%rax
    d3ec:	48 01 c0             	add    %rax,%rax
    d3ef:	48 01 c8             	add    %rcx,%rax
    d3f2:	48 c1 e0 03          	shl    $0x3,%rax
    d3f6:	48 01 c2             	add    %rax,%rdx
    d3f9:	48 8d 05 e0 72 00 00 	lea    0x72e0(%rip),%rax        # 146e0 <g_842>
    d400:	48 01 d0             	add    %rdx,%rax
    d403:	0f b7 40 0b          	movzwl 0xb(%rax),%eax
    d407:	0f b7 c0             	movzwl %ax,%eax
    d40a:	8b 55 fc             	mov    -0x4(%rbp),%edx
    d40d:	48 8d 35 c3 31 00 00 	lea    0x31c3(%rip),%rsi        # 105d7 <g_2179+0x150b>
    d414:	48 89 c7             	mov    %rax,%rdi
    d417:	e8 d7 92 ff ff       	callq  66f3 <transparent_crc>
    d41c:	8b 45 f4             	mov    -0xc(%rbp),%eax
    d41f:	48 98                	cltq   
    d421:	8b 55 f0             	mov    -0x10(%rbp),%edx
    d424:	48 63 ca             	movslq %edx,%rcx
    d427:	48 89 c2             	mov    %rax,%rdx
    d42a:	48 c1 e2 02          	shl    $0x2,%rdx
    d42e:	48 01 c2             	add    %rax,%rdx
    d431:	48 01 d2             	add    %rdx,%rdx
    d434:	48 01 c2             	add    %rax,%rdx
    d437:	48 8d 04 12          	lea    (%rdx,%rdx,1),%rax
    d43b:	48 89 c2             	mov    %rax,%rdx
    d43e:	48 89 c8             	mov    %rcx,%rax
    d441:	48 c1 e0 02          	shl    $0x2,%rax
    d445:	48 01 c8             	add    %rcx,%rax
    d448:	48 01 c0             	add    %rax,%rax
    d44b:	48 01 c8             	add    %rcx,%rax
    d44e:	48 c1 e0 03          	shl    $0x3,%rax
    d452:	48 01 c2             	add    %rax,%rdx
    d455:	48 8d 05 84 72 00 00 	lea    0x7284(%rip),%rax        # 146e0 <g_842>
    d45c:	48 01 d0             	add    %rdx,%rax
    d45f:	48 8b 40 0d          	mov    0xd(%rax),%rax
    d463:	8b 55 fc             	mov    -0x4(%rbp),%edx
    d466:	48 8d 35 7c 31 00 00 	lea    0x317c(%rip),%rsi        # 105e9 <g_2179+0x151d>
    d46d:	48 89 c7             	mov    %rax,%rdi
    d470:	e8 7e 92 ff ff       	callq  66f3 <transparent_crc>
    d475:	8b 45 f4             	mov    -0xc(%rbp),%eax
    d478:	48 98                	cltq   
    d47a:	8b 55 f0             	mov    -0x10(%rbp),%edx
    d47d:	48 63 ca             	movslq %edx,%rcx
    d480:	48 89 c2             	mov    %rax,%rdx
    d483:	48 c1 e2 02          	shl    $0x2,%rdx
    d487:	48 01 c2             	add    %rax,%rdx
    d48a:	48 01 d2             	add    %rdx,%rdx
    d48d:	48 01 c2             	add    %rax,%rdx
    d490:	48 8d 04 12          	lea    (%rdx,%rdx,1),%rax
    d494:	48 89 c2             	mov    %rax,%rdx
    d497:	48 89 c8             	mov    %rcx,%rax
    d49a:	48 c1 e0 02          	shl    $0x2,%rax
    d49e:	48 01 c8             	add    %rcx,%rax
    d4a1:	48 01 c0             	add    %rax,%rax
    d4a4:	48 01 c8             	add    %rcx,%rax
    d4a7:	48 c1 e0 03          	shl    $0x3,%rax
    d4ab:	48 01 c2             	add    %rax,%rdx
    d4ae:	48 8d 05 40 72 00 00 	lea    0x7240(%rip),%rax        # 146f5 <g_842+0x15>
    d4b5:	48 01 d0             	add    %rdx,%rax
    d4b8:	0f b6 00             	movzbl (%rax),%eax
    d4bb:	48 0f be c0          	movsbq %al,%rax
    d4bf:	8b 55 fc             	mov    -0x4(%rbp),%edx
    d4c2:	48 8d 35 2f 31 00 00 	lea    0x312f(%rip),%rsi        # 105f8 <g_2179+0x152c>
    d4c9:	48 89 c7             	mov    %rax,%rdi
    d4cc:	e8 22 92 ff ff       	callq  66f3 <transparent_crc>
    d4d1:	83 7d fc 00          	cmpl   $0x0,-0x4(%rbp)
    d4d5:	74 19                	je     d4f0 <main+0x14d2>
    d4d7:	8b 55 f4             	mov    -0xc(%rbp),%edx
    d4da:	8b 45 f0             	mov    -0x10(%rbp),%eax
    d4dd:	89 c6                	mov    %eax,%esi
    d4df:	48 8d 3d 14 2d 00 00 	lea    0x2d14(%rip),%rdi        # 101fa <g_2179+0x112e>
    d4e6:	b8 00 00 00 00       	mov    $0x0,%eax
    d4eb:	e8 90 7b ff ff       	callq  5080 <printf@plt>
    d4f0:	83 45 f4 01          	addl   $0x1,-0xc(%rbp)
    d4f4:	83 7d f4 03          	cmpl   $0x3,-0xc(%rbp)
    d4f8:	0f 8e bd fc ff ff    	jle    d1bb <main+0x119d>
    d4fe:	83 45 f0 01          	addl   $0x1,-0x10(%rbp)
    d502:	83 7d f0 04          	cmpl   $0x4,-0x10(%rbp)
    d506:	0f 8e a3 fc ff ff    	jle    d1af <main+0x1191>
    d50c:	0f b7 05 85 73 00 00 	movzwl 0x7385(%rip),%eax        # 14898 <g_901>
    d513:	0f b7 c0             	movzwl %ax,%eax
    d516:	8b 55 fc             	mov    -0x4(%rbp),%edx
    d519:	48 8d 35 e7 30 00 00 	lea    0x30e7(%rip),%rsi        # 10607 <g_2179+0x153b>
    d520:	48 89 c7             	mov    %rax,%rdi
    d523:	e8 cb 91 ff ff       	callq  66f3 <transparent_crc>
    d528:	0f b7 05 6d 73 00 00 	movzwl 0x736d(%rip),%eax        # 1489c <g_969>
    d52f:	0f b7 c0             	movzwl %ax,%eax
    d532:	8b 55 fc             	mov    -0x4(%rbp),%edx
    d535:	48 8d 35 d1 30 00 00 	lea    0x30d1(%rip),%rsi        # 1060d <g_2179+0x1541>
    d53c:	48 89 c7             	mov    %rax,%rdi
    d53f:	e8 af 91 ff ff       	callq  66f3 <transparent_crc>
    d544:	0f b7 05 51 73 00 00 	movzwl 0x7351(%rip),%eax        # 1489c <g_969>
    d54b:	48 0f bf c0          	movswq %ax,%rax
    d54f:	8b 55 fc             	mov    -0x4(%rbp),%edx
    d552:	48 8d 35 bd 30 00 00 	lea    0x30bd(%rip),%rsi        # 10616 <g_2179+0x154a>
    d559:	48 89 c7             	mov    %rax,%rdi
    d55c:	e8 92 91 ff ff       	callq  66f3 <transparent_crc>
    d561:	0f b7 05 38 73 00 00 	movzwl 0x7338(%rip),%eax        # 148a0 <g_1025>
    d568:	66 25 ff 0f          	and    $0xfff,%ax
    d56c:	0f b7 c0             	movzwl %ax,%eax
    d56f:	8b 55 fc             	mov    -0x4(%rbp),%edx
    d572:	48 8d 35 a6 30 00 00 	lea    0x30a6(%rip),%rsi        # 1061f <g_2179+0x1553>
    d579:	48 89 c7             	mov    %rax,%rdi
    d57c:	e8 72 91 ff ff       	callq  66f3 <transparent_crc>
    d581:	8b 05 1d 73 00 00    	mov    0x731d(%rip),%eax        # 148a4 <g_1025+0x4>
    d587:	48 98                	cltq   
    d589:	8b 55 fc             	mov    -0x4(%rbp),%edx
    d58c:	48 8d 35 96 30 00 00 	lea    0x3096(%rip),%rsi        # 10629 <g_2179+0x155d>
    d593:	48 89 c7             	mov    %rax,%rdi
    d596:	e8 58 91 ff ff       	callq  66f3 <transparent_crc>
    d59b:	0f b7 05 06 73 00 00 	movzwl 0x7306(%rip),%eax        # 148a8 <g_1025+0x8>
    d5a2:	66 25 ff 01          	and    $0x1ff,%ax
    d5a6:	0f b7 c0             	movzwl %ax,%eax
    d5a9:	8b 55 fc             	mov    -0x4(%rbp),%edx
    d5ac:	48 8d 35 80 30 00 00 	lea    0x3080(%rip),%rsi        # 10633 <g_2179+0x1567>
    d5b3:	48 89 c7             	mov    %rax,%rdi
    d5b6:	e8 38 91 ff ff       	callq  66f3 <transparent_crc>
    d5bb:	0f b6 05 e7 72 00 00 	movzbl 0x72e7(%rip),%eax        # 148a9 <g_1025+0x9>
    d5c2:	d0 e8                	shr    %al
    d5c4:	0f b6 c0             	movzbl %al,%eax
    d5c7:	8b 55 fc             	mov    -0x4(%rbp),%edx
    d5ca:	48 8d 35 6c 30 00 00 	lea    0x306c(%rip),%rsi        # 1063d <g_2179+0x1571>
    d5d1:	48 89 c7             	mov    %rax,%rdi
    d5d4:	e8 1a 91 ff ff       	callq  66f3 <transparent_crc>
    d5d9:	0f b7 05 ca 72 00 00 	movzwl 0x72ca(%rip),%eax        # 148aa <g_1025+0xa>
    d5e0:	0f b7 c0             	movzwl %ax,%eax
    d5e3:	8b 55 fc             	mov    -0x4(%rbp),%edx
    d5e6:	48 8d 35 5a 30 00 00 	lea    0x305a(%rip),%rsi        # 10647 <g_2179+0x157b>
    d5ed:	48 89 c7             	mov    %rax,%rdi
    d5f0:	e8 fe 90 ff ff       	callq  66f3 <transparent_crc>
    d5f5:	0f b7 05 b4 72 00 00 	movzwl 0x72b4(%rip),%eax        # 148b0 <g_1038>
    d5fc:	66 25 ff 0f          	and    $0xfff,%ax
    d600:	0f b7 c0             	movzwl %ax,%eax
    d603:	8b 55 fc             	mov    -0x4(%rbp),%edx
    d606:	48 8d 35 44 30 00 00 	lea    0x3044(%rip),%rsi        # 10651 <g_2179+0x1585>
    d60d:	48 89 c7             	mov    %rax,%rdi
    d610:	e8 de 90 ff ff       	callq  66f3 <transparent_crc>
    d615:	8b 05 99 72 00 00    	mov    0x7299(%rip),%eax        # 148b4 <g_1038+0x4>
    d61b:	48 98                	cltq   
    d61d:	8b 55 fc             	mov    -0x4(%rbp),%edx
    d620:	48 8d 35 34 30 00 00 	lea    0x3034(%rip),%rsi        # 1065b <g_2179+0x158f>
    d627:	48 89 c7             	mov    %rax,%rdi
    d62a:	e8 c4 90 ff ff       	callq  66f3 <transparent_crc>
    d62f:	0f b7 05 82 72 00 00 	movzwl 0x7282(%rip),%eax        # 148b8 <g_1038+0x8>
    d636:	66 25 ff 01          	and    $0x1ff,%ax
    d63a:	0f b7 c0             	movzwl %ax,%eax
    d63d:	8b 55 fc             	mov    -0x4(%rbp),%edx
    d640:	48 8d 35 1e 30 00 00 	lea    0x301e(%rip),%rsi        # 10665 <g_2179+0x1599>
    d647:	48 89 c7             	mov    %rax,%rdi
    d64a:	e8 a4 90 ff ff       	callq  66f3 <transparent_crc>
    d64f:	0f b6 05 63 72 00 00 	movzbl 0x7263(%rip),%eax        # 148b9 <g_1038+0x9>
    d656:	d0 e8                	shr    %al
    d658:	0f b6 c0             	movzbl %al,%eax
    d65b:	8b 55 fc             	mov    -0x4(%rbp),%edx
    d65e:	48 8d 35 0a 30 00 00 	lea    0x300a(%rip),%rsi        # 1066f <g_2179+0x15a3>
    d665:	48 89 c7             	mov    %rax,%rdi
    d668:	e8 86 90 ff ff       	callq  66f3 <transparent_crc>
    d66d:	0f b7 05 46 72 00 00 	movzwl 0x7246(%rip),%eax        # 148ba <g_1038+0xa>
    d674:	0f b7 c0             	movzwl %ax,%eax
    d677:	8b 55 fc             	mov    -0x4(%rbp),%edx
    d67a:	48 8d 35 f8 2f 00 00 	lea    0x2ff8(%rip),%rsi        # 10679 <g_2179+0x15ad>
    d681:	48 89 c7             	mov    %rax,%rdi
    d684:	e8 6a 90 ff ff       	callq  66f3 <transparent_crc>
    d689:	48 8b 05 18 94 00 00 	mov    0x9418(%rip),%rax        # 16aa8 <g_1051>
    d690:	48 89 c1             	mov    %rax,%rcx
    d693:	8b 45 fc             	mov    -0x4(%rbp),%eax
    d696:	89 c2                	mov    %eax,%edx
    d698:	48 8d 35 e4 2f 00 00 	lea    0x2fe4(%rip),%rsi        # 10683 <g_2179+0x15b7>
    d69f:	48 89 cf             	mov    %rcx,%rdi
    d6a2:	e8 4c 90 ff ff       	callq  66f3 <transparent_crc>
    d6a7:	48 8b 05 12 72 00 00 	mov    0x7212(%rip),%rax        # 148c0 <g_1057>
    d6ae:	66 25 ff 0f          	and    $0xfff,%ax
    d6b2:	0f b7 c0             	movzwl %ax,%eax
    d6b5:	8b 55 fc             	mov    -0x4(%rbp),%edx
    d6b8:	48 8d 35 cb 2f 00 00 	lea    0x2fcb(%rip),%rsi        # 1068a <g_2179+0x15be>
    d6bf:	48 89 c7             	mov    %rax,%rdi
    d6c2:	e8 2c 90 ff ff       	callq  66f3 <transparent_crc>
    d6c7:	8b 05 f7 71 00 00    	mov    0x71f7(%rip),%eax        # 148c4 <g_1057+0x4>
    d6cd:	48 98                	cltq   
    d6cf:	8b 55 fc             	mov    -0x4(%rbp),%edx
    d6d2:	48 8d 35 bb 2f 00 00 	lea    0x2fbb(%rip),%rsi        # 10694 <g_2179+0x15c8>
    d6d9:	48 89 c7             	mov    %rax,%rdi
    d6dc:	e8 12 90 ff ff       	callq  66f3 <transparent_crc>
    d6e1:	48 8b 05 e0 71 00 00 	mov    0x71e0(%rip),%rax        # 148c8 <g_1057+0x8>
    d6e8:	66 25 ff 01          	and    $0x1ff,%ax
    d6ec:	0f b7 c0             	movzwl %ax,%eax
    d6ef:	8b 55 fc             	mov    -0x4(%rbp),%edx
    d6f2:	48 8d 35 a5 2f 00 00 	lea    0x2fa5(%rip),%rsi        # 1069e <g_2179+0x15d2>
    d6f9:	48 89 c7             	mov    %rax,%rdi
    d6fc:	e8 f2 8f ff ff       	callq  66f3 <transparent_crc>
    d701:	48 8b 05 c0 71 00 00 	mov    0x71c0(%rip),%rax        # 148c8 <g_1057+0x8>
    d708:	48 c1 e8 09          	shr    $0x9,%rax
    d70c:	83 e0 7f             	and    $0x7f,%eax
    d70f:	0f b6 c0             	movzbl %al,%eax
    d712:	8b 55 fc             	mov    -0x4(%rbp),%edx
    d715:	48 8d 35 8c 2f 00 00 	lea    0x2f8c(%rip),%rsi        # 106a8 <g_2179+0x15dc>
    d71c:	48 89 c7             	mov    %rax,%rdi
    d71f:	e8 cf 8f ff ff       	callq  66f3 <transparent_crc>
    d724:	0f b7 05 9f 71 00 00 	movzwl 0x719f(%rip),%eax        # 148ca <g_1057+0xa>
    d72b:	0f b7 c0             	movzwl %ax,%eax
    d72e:	8b 55 fc             	mov    -0x4(%rbp),%edx
    d731:	48 8d 35 7a 2f 00 00 	lea    0x2f7a(%rip),%rsi        # 106b2 <g_2179+0x15e6>
    d738:	48 89 c7             	mov    %rax,%rdi
    d73b:	e8 b3 8f ff ff       	callq  66f3 <transparent_crc>
    d740:	0f b7 05 85 71 00 00 	movzwl 0x7185(%rip),%eax        # 148cc <g_1074>
    d747:	0f b7 c0             	movzwl %ax,%eax
    d74a:	8b 55 fc             	mov    -0x4(%rbp),%edx
    d74d:	48 8d 35 68 2f 00 00 	lea    0x2f68(%rip),%rsi        # 106bc <g_2179+0x15f0>
    d754:	48 89 c7             	mov    %rax,%rdi
    d757:	e8 97 8f ff ff       	callq  66f3 <transparent_crc>
    d75c:	0f b7 05 69 71 00 00 	movzwl 0x7169(%rip),%eax        # 148cc <g_1074>
    d763:	48 0f bf c0          	movswq %ax,%rax
    d767:	8b 55 fc             	mov    -0x4(%rbp),%edx
    d76a:	48 8d 35 55 2f 00 00 	lea    0x2f55(%rip),%rsi        # 106c6 <g_2179+0x15fa>
    d771:	48 89 c7             	mov    %rax,%rdi
    d774:	e8 7a 8f ff ff       	callq  66f3 <transparent_crc>
    d779:	48 8b 05 50 71 00 00 	mov    0x7150(%rip),%rax        # 148d0 <g_1154>
    d780:	c1 e0 06             	shl    $0x6,%eax
    d783:	c0 f8 06             	sar    $0x6,%al
    d786:	48 0f be c0          	movsbq %al,%rax
    d78a:	8b 55 fc             	mov    -0x4(%rbp),%edx
    d78d:	48 8d 35 3c 2f 00 00 	lea    0x2f3c(%rip),%rsi        # 106d0 <g_2179+0x1604>
    d794:	48 89 c7             	mov    %rax,%rdi
    d797:	e8 57 8f ff ff       	callq  66f3 <transparent_crc>
    d79c:	8b 05 2e 71 00 00    	mov    0x712e(%rip),%eax        # 148d0 <g_1154>
    d7a2:	c1 e8 08             	shr    $0x8,%eax
    d7a5:	66 25 ff 0f          	and    $0xfff,%ax
    d7a9:	0f b7 c0             	movzwl %ax,%eax
    d7ac:	8b 55 fc             	mov    -0x4(%rbp),%edx
    d7af:	48 8d 35 24 2f 00 00 	lea    0x2f24(%rip),%rsi        # 106da <g_2179+0x160e>
    d7b6:	48 89 c7             	mov    %rax,%rdi
    d7b9:	e8 35 8f ff ff       	callq  66f3 <transparent_crc>
    d7be:	8b 05 11 71 00 00    	mov    0x7111(%rip),%eax        # 148d5 <g_1154+0x5>
    d7c4:	48 98                	cltq   
    d7c6:	8b 55 fc             	mov    -0x4(%rbp),%edx
    d7c9:	48 8d 35 17 2f 00 00 	lea    0x2f17(%rip),%rsi        # 106e7 <g_2179+0x161b>
    d7d0:	48 89 c7             	mov    %rax,%rdi
    d7d3:	e8 1b 8f ff ff       	callq  66f3 <transparent_crc>
    d7d8:	8b 05 fa 70 00 00    	mov    0x70fa(%rip),%eax        # 148d8 <g_1154+0x8>
    d7de:	c1 e8 08             	shr    $0x8,%eax
    d7e1:	66 25 ff 01          	and    $0x1ff,%ax
    d7e5:	0f b7 c0             	movzwl %ax,%eax
    d7e8:	8b 55 fc             	mov    -0x4(%rbp),%edx
    d7eb:	48 8d 35 02 2f 00 00 	lea    0x2f02(%rip),%rsi        # 106f4 <g_2179+0x1628>
    d7f2:	48 89 c7             	mov    %rax,%rdi
    d7f5:	e8 f9 8e ff ff       	callq  66f3 <transparent_crc>
    d7fa:	0f b6 05 d9 70 00 00 	movzbl 0x70d9(%rip),%eax        # 148da <g_1154+0xa>
    d801:	d0 e8                	shr    %al
    d803:	0f b6 c0             	movzbl %al,%eax
    d806:	8b 55 fc             	mov    -0x4(%rbp),%edx
    d809:	48 8d 35 f1 2e 00 00 	lea    0x2ef1(%rip),%rsi        # 10701 <g_2179+0x1635>
    d810:	48 89 c7             	mov    %rax,%rdi
    d813:	e8 db 8e ff ff       	callq  66f3 <transparent_crc>
    d818:	0f b7 05 bc 70 00 00 	movzwl 0x70bc(%rip),%eax        # 148db <g_1154+0xb>
    d81f:	0f b7 c0             	movzwl %ax,%eax
    d822:	8b 55 fc             	mov    -0x4(%rbp),%edx
    d825:	48 8d 35 e2 2e 00 00 	lea    0x2ee2(%rip),%rsi        # 1070e <g_2179+0x1642>
    d82c:	48 89 c7             	mov    %rax,%rdi
    d82f:	e8 bf 8e ff ff       	callq  66f3 <transparent_crc>
    d834:	48 8b 05 a2 70 00 00 	mov    0x70a2(%rip),%rax        # 148dd <g_1154+0xd>
    d83b:	8b 55 fc             	mov    -0x4(%rbp),%edx
    d83e:	48 8d 35 d6 2e 00 00 	lea    0x2ed6(%rip),%rsi        # 1071b <g_2179+0x164f>
    d845:	48 89 c7             	mov    %rax,%rdi
    d848:	e8 a6 8e ff ff       	callq  66f3 <transparent_crc>
    d84d:	0f b6 05 91 70 00 00 	movzbl 0x7091(%rip),%eax        # 148e5 <g_1154+0x15>
    d854:	48 0f be c0          	movsbq %al,%rax
    d858:	8b 55 fc             	mov    -0x4(%rbp),%edx
    d85b:	48 8d 35 c3 2e 00 00 	lea    0x2ec3(%rip),%rsi        # 10725 <g_2179+0x1659>
    d862:	48 89 c7             	mov    %rax,%rdi
    d865:	e8 89 8e ff ff       	callq  66f3 <transparent_crc>
    d86a:	c7 45 f0 00 00 00 00 	movl   $0x0,-0x10(%rbp)
    d871:	eb 4f                	jmp    d8c2 <main+0x18a4>
    d873:	8b 45 f0             	mov    -0x10(%rbp),%eax
    d876:	48 98                	cltq   
    d878:	48 8d 14 c5 00 00 00 	lea    0x0(,%rax,8),%rdx
    d87f:	00 
    d880:	48 8d 05 69 70 00 00 	lea    0x7069(%rip),%rax        # 148f0 <g_1276>
    d887:	48 8b 04 02          	mov    (%rdx,%rax,1),%rax
    d88b:	48 89 c1             	mov    %rax,%rcx
    d88e:	8b 45 fc             	mov    -0x4(%rbp),%eax
    d891:	89 c2                	mov    %eax,%edx
    d893:	48 8d 35 95 2e 00 00 	lea    0x2e95(%rip),%rsi        # 1072f <g_2179+0x1663>
    d89a:	48 89 cf             	mov    %rcx,%rdi
    d89d:	e8 51 8e ff ff       	callq  66f3 <transparent_crc>
    d8a2:	83 7d fc 00          	cmpl   $0x0,-0x4(%rbp)
    d8a6:	74 16                	je     d8be <main+0x18a0>
    d8a8:	8b 45 f0             	mov    -0x10(%rbp),%eax
    d8ab:	89 c6                	mov    %eax,%esi
    d8ad:	48 8d 3d 6d 29 00 00 	lea    0x296d(%rip),%rdi        # 10221 <g_2179+0x1155>
    d8b4:	b8 00 00 00 00       	mov    $0x0,%eax
    d8b9:	e8 c2 77 ff ff       	callq  5080 <printf@plt>
    d8be:	83 45 f0 01          	addl   $0x1,-0x10(%rbp)
    d8c2:	83 7d f0 02          	cmpl   $0x2,-0x10(%rbp)
    d8c6:	7e ab                	jle    d873 <main+0x1855>
    d8c8:	0f b7 05 39 70 00 00 	movzwl 0x7039(%rip),%eax        # 14908 <g_1279>
    d8cf:	48 0f bf c0          	movswq %ax,%rax
    d8d3:	8b 55 fc             	mov    -0x4(%rbp),%edx
    d8d6:	48 8d 35 5c 2e 00 00 	lea    0x2e5c(%rip),%rsi        # 10739 <g_2179+0x166d>
    d8dd:	48 89 c7             	mov    %rax,%rdi
    d8e0:	e8 0e 8e ff ff       	callq  66f3 <transparent_crc>
    d8e5:	c7 45 f0 00 00 00 00 	movl   $0x0,-0x10(%rbp)
    d8ec:	eb 7b                	jmp    d969 <main+0x194b>
    d8ee:	8b 45 f0             	mov    -0x10(%rbp),%eax
    d8f1:	48 98                	cltq   
    d8f3:	48 8d 14 85 00 00 00 	lea    0x0(,%rax,4),%rdx
    d8fa:	00 
    d8fb:	48 8d 05 0e 70 00 00 	lea    0x700e(%rip),%rax        # 14910 <g_1291>
    d902:	0f b7 04 02          	movzwl (%rdx,%rax,1),%eax
    d906:	0f b7 c0             	movzwl %ax,%eax
    d909:	8b 55 fc             	mov    -0x4(%rbp),%edx
    d90c:	48 8d 35 2d 2e 00 00 	lea    0x2e2d(%rip),%rsi        # 10740 <g_2179+0x1674>
    d913:	48 89 c7             	mov    %rax,%rdi
    d916:	e8 d8 8d ff ff       	callq  66f3 <transparent_crc>
    d91b:	8b 45 f0             	mov    -0x10(%rbp),%eax
    d91e:	48 98                	cltq   
    d920:	48 8d 14 85 00 00 00 	lea    0x0(,%rax,4),%rdx
    d927:	00 
    d928:	48 8d 05 e1 6f 00 00 	lea    0x6fe1(%rip),%rax        # 14910 <g_1291>
    d92f:	0f b7 04 02          	movzwl (%rdx,%rax,1),%eax
    d933:	48 0f bf c0          	movswq %ax,%rax
    d937:	8b 55 fc             	mov    -0x4(%rbp),%edx
    d93a:	48 8d 35 0c 2e 00 00 	lea    0x2e0c(%rip),%rsi        # 1074d <g_2179+0x1681>
    d941:	48 89 c7             	mov    %rax,%rdi
    d944:	e8 aa 8d ff ff       	callq  66f3 <transparent_crc>
    d949:	83 7d fc 00          	cmpl   $0x0,-0x4(%rbp)
    d94d:	74 16                	je     d965 <main+0x1947>
    d94f:	8b 45 f0             	mov    -0x10(%rbp),%eax
    d952:	89 c6                	mov    %eax,%esi
    d954:	48 8d 3d c6 28 00 00 	lea    0x28c6(%rip),%rdi        # 10221 <g_2179+0x1155>
    d95b:	b8 00 00 00 00       	mov    $0x0,%eax
    d960:	e8 1b 77 ff ff       	callq  5080 <printf@plt>
    d965:	83 45 f0 01          	addl   $0x1,-0x10(%rbp)
    d969:	83 7d f0 01          	cmpl   $0x1,-0x10(%rbp)
    d96d:	0f 8e 7b ff ff ff    	jle    d8ee <main+0x18d0>
    d973:	c7 45 f0 00 00 00 00 	movl   $0x0,-0x10(%rbp)
    d97a:	e9 e1 01 00 00       	jmpq   db60 <main+0x1b42>
    d97f:	c7 45 f4 00 00 00 00 	movl   $0x0,-0xc(%rbp)
    d986:	e9 c7 01 00 00       	jmpq   db52 <main+0x1b34>
    d98b:	8b 45 f4             	mov    -0xc(%rbp),%eax
    d98e:	48 98                	cltq   
    d990:	8b 55 f0             	mov    -0x10(%rbp),%edx
    d993:	48 63 ca             	movslq %edx,%rcx
    d996:	48 89 c2             	mov    %rax,%rdx
    d999:	48 01 d2             	add    %rdx,%rdx
    d99c:	48 01 c2             	add    %rax,%rdx
    d99f:	48 8d 04 95 00 00 00 	lea    0x0(,%rdx,4),%rax
    d9a6:	00 
    d9a7:	48 89 c2             	mov    %rax,%rdx
    d9aa:	48 89 c8             	mov    %rcx,%rax
    d9ad:	48 c1 e0 03          	shl    $0x3,%rax
    d9b1:	48 01 c8             	add    %rcx,%rax
    d9b4:	48 c1 e0 03          	shl    $0x3,%rax
    d9b8:	48 01 c2             	add    %rax,%rdx
    d9bb:	48 8d 05 5e 6f 00 00 	lea    0x6f5e(%rip),%rax        # 14920 <g_1329>
    d9c2:	48 01 d0             	add    %rdx,%rax
    d9c5:	0f b7 00             	movzwl (%rax),%eax
    d9c8:	66 25 ff 0f          	and    $0xfff,%ax
    d9cc:	0f b7 c0             	movzwl %ax,%eax
    d9cf:	8b 55 fc             	mov    -0x4(%rbp),%edx
    d9d2:	48 8d 35 81 2d 00 00 	lea    0x2d81(%rip),%rsi        # 1075a <g_2179+0x168e>
    d9d9:	48 89 c7             	mov    %rax,%rdi
    d9dc:	e8 12 8d ff ff       	callq  66f3 <transparent_crc>
    d9e1:	8b 45 f4             	mov    -0xc(%rbp),%eax
    d9e4:	48 98                	cltq   
    d9e6:	8b 55 f0             	mov    -0x10(%rbp),%edx
    d9e9:	48 63 ca             	movslq %edx,%rcx
    d9ec:	48 89 c2             	mov    %rax,%rdx
    d9ef:	48 01 d2             	add    %rdx,%rdx
    d9f2:	48 01 c2             	add    %rax,%rdx
    d9f5:	48 8d 04 95 00 00 00 	lea    0x0(,%rdx,4),%rax
    d9fc:	00 
    d9fd:	48 89 c2             	mov    %rax,%rdx
    da00:	48 89 c8             	mov    %rcx,%rax
    da03:	48 c1 e0 03          	shl    $0x3,%rax
    da07:	48 01 c8             	add    %rcx,%rax
    da0a:	48 c1 e0 03          	shl    $0x3,%rax
    da0e:	48 01 c2             	add    %rax,%rdx
    da11:	48 8d 05 0c 6f 00 00 	lea    0x6f0c(%rip),%rax        # 14924 <g_1329+0x4>
    da18:	48 01 d0             	add    %rdx,%rax
    da1b:	8b 00                	mov    (%rax),%eax
    da1d:	48 98                	cltq   
    da1f:	8b 55 fc             	mov    -0x4(%rbp),%edx
    da22:	48 8d 35 41 2d 00 00 	lea    0x2d41(%rip),%rsi        # 1076a <g_2179+0x169e>
    da29:	48 89 c7             	mov    %rax,%rdi
    da2c:	e8 c2 8c ff ff       	callq  66f3 <transparent_crc>
    da31:	8b 45 f4             	mov    -0xc(%rbp),%eax
    da34:	48 98                	cltq   
    da36:	8b 55 f0             	mov    -0x10(%rbp),%edx
    da39:	48 63 ca             	movslq %edx,%rcx
    da3c:	48 89 c2             	mov    %rax,%rdx
    da3f:	48 01 d2             	add    %rdx,%rdx
    da42:	48 01 c2             	add    %rax,%rdx
    da45:	48 8d 04 95 00 00 00 	lea    0x0(,%rdx,4),%rax
    da4c:	00 
    da4d:	48 89 c2             	mov    %rax,%rdx
    da50:	48 89 c8             	mov    %rcx,%rax
    da53:	48 c1 e0 03          	shl    $0x3,%rax
    da57:	48 01 c8             	add    %rcx,%rax
    da5a:	48 c1 e0 03          	shl    $0x3,%rax
    da5e:	48 01 c2             	add    %rax,%rdx
    da61:	48 8d 05 b8 6e 00 00 	lea    0x6eb8(%rip),%rax        # 14920 <g_1329>
    da68:	48 01 d0             	add    %rdx,%rax
    da6b:	0f b7 40 08          	movzwl 0x8(%rax),%eax
    da6f:	66 25 ff 01          	and    $0x1ff,%ax
    da73:	0f b7 c0             	movzwl %ax,%eax
    da76:	8b 55 fc             	mov    -0x4(%rbp),%edx
    da79:	48 8d 35 fa 2c 00 00 	lea    0x2cfa(%rip),%rsi        # 1077a <g_2179+0x16ae>
    da80:	48 89 c7             	mov    %rax,%rdi
    da83:	e8 6b 8c ff ff       	callq  66f3 <transparent_crc>
    da88:	8b 45 f4             	mov    -0xc(%rbp),%eax
    da8b:	48 98                	cltq   
    da8d:	8b 55 f0             	mov    -0x10(%rbp),%edx
    da90:	48 63 ca             	movslq %edx,%rcx
    da93:	48 89 c2             	mov    %rax,%rdx
    da96:	48 01 d2             	add    %rdx,%rdx
    da99:	48 01 c2             	add    %rax,%rdx
    da9c:	48 8d 04 95 00 00 00 	lea    0x0(,%rdx,4),%rax
    daa3:	00 
    daa4:	48 89 c2             	mov    %rax,%rdx
    daa7:	48 89 c8             	mov    %rcx,%rax
    daaa:	48 c1 e0 03          	shl    $0x3,%rax
    daae:	48 01 c8             	add    %rcx,%rax
    dab1:	48 c1 e0 03          	shl    $0x3,%rax
    dab5:	48 01 c2             	add    %rax,%rdx
    dab8:	48 8d 05 61 6e 00 00 	lea    0x6e61(%rip),%rax        # 14920 <g_1329>
    dabf:	48 01 d0             	add    %rdx,%rax
    dac2:	0f b6 40 09          	movzbl 0x9(%rax),%eax
    dac6:	d0 e8                	shr    %al
    dac8:	0f b6 c0             	movzbl %al,%eax
    dacb:	8b 55 fc             	mov    -0x4(%rbp),%edx
    dace:	48 8d 35 b5 2c 00 00 	lea    0x2cb5(%rip),%rsi        # 1078a <g_2179+0x16be>
    dad5:	48 89 c7             	mov    %rax,%rdi
    dad8:	e8 16 8c ff ff       	callq  66f3 <transparent_crc>
    dadd:	8b 45 f4             	mov    -0xc(%rbp),%eax
    dae0:	48 98                	cltq   
    dae2:	8b 55 f0             	mov    -0x10(%rbp),%edx
    dae5:	48 63 ca             	movslq %edx,%rcx
    dae8:	48 89 c2             	mov    %rax,%rdx
    daeb:	48 01 d2             	add    %rdx,%rdx
    daee:	48 01 c2             	add    %rax,%rdx
    daf1:	48 8d 04 95 00 00 00 	lea    0x0(,%rdx,4),%rax
    daf8:	00 
    daf9:	48 89 c2             	mov    %rax,%rdx
    dafc:	48 89 c8             	mov    %rcx,%rax
    daff:	48 c1 e0 03          	shl    $0x3,%rax
    db03:	48 01 c8             	add    %rcx,%rax
    db06:	48 c1 e0 03          	shl    $0x3,%rax
    db0a:	48 01 c2             	add    %rax,%rdx
    db0d:	48 8d 05 16 6e 00 00 	lea    0x6e16(%rip),%rax        # 1492a <g_1329+0xa>
    db14:	48 01 d0             	add    %rdx,%rax
    db17:	0f b7 00             	movzwl (%rax),%eax
    db1a:	0f b7 c0             	movzwl %ax,%eax
    db1d:	8b 55 fc             	mov    -0x4(%rbp),%edx
    db20:	48 8d 35 73 2c 00 00 	lea    0x2c73(%rip),%rsi        # 1079a <g_2179+0x16ce>
    db27:	48 89 c7             	mov    %rax,%rdi
    db2a:	e8 c4 8b ff ff       	callq  66f3 <transparent_crc>
    db2f:	83 7d fc 00          	cmpl   $0x0,-0x4(%rbp)
    db33:	74 19                	je     db4e <main+0x1b30>
    db35:	8b 55 f4             	mov    -0xc(%rbp),%edx
    db38:	8b 45 f0             	mov    -0x10(%rbp),%eax
    db3b:	89 c6                	mov    %eax,%esi
    db3d:	48 8d 3d b6 26 00 00 	lea    0x26b6(%rip),%rdi        # 101fa <g_2179+0x112e>
    db44:	b8 00 00 00 00       	mov    $0x0,%eax
    db49:	e8 32 75 ff ff       	callq  5080 <printf@plt>
    db4e:	83 45 f4 01          	addl   $0x1,-0xc(%rbp)
    db52:	83 7d f4 05          	cmpl   $0x5,-0xc(%rbp)
    db56:	0f 8e 2f fe ff ff    	jle    d98b <main+0x196d>
    db5c:	83 45 f0 01          	addl   $0x1,-0x10(%rbp)
    db60:	83 7d f0 00          	cmpl   $0x0,-0x10(%rbp)
    db64:	0f 8e 15 fe ff ff    	jle    d97f <main+0x1961>
    db6a:	0f b7 05 f7 6d 00 00 	movzwl 0x6df7(%rip),%eax        # 14968 <g_1361>
    db71:	48 0f bf c0          	movswq %ax,%rax
    db75:	8b 55 fc             	mov    -0x4(%rbp),%edx
    db78:	48 8d 35 2b 2c 00 00 	lea    0x2c2b(%rip),%rsi        # 107aa <g_2179+0x16de>
    db7f:	48 89 c7             	mov    %rax,%rdi
    db82:	e8 6c 8b ff ff       	callq  66f3 <transparent_crc>
    db87:	c7 45 f0 00 00 00 00 	movl   $0x0,-0x10(%rbp)
    db8e:	e9 89 00 00 00       	jmpq   dc1c <main+0x1bfe>
    db93:	c7 45 f4 00 00 00 00 	movl   $0x0,-0xc(%rbp)
    db9a:	eb 76                	jmp    dc12 <main+0x1bf4>
    db9c:	c7 45 f8 00 00 00 00 	movl   $0x0,-0x8(%rbp)
    dba3:	eb 63                	jmp    dc08 <main+0x1bea>
    dba5:	8b 45 f8             	mov    -0x8(%rbp),%eax
    dba8:	48 63 d0             	movslq %eax,%rdx
    dbab:	8b 45 f4             	mov    -0xc(%rbp),%eax
    dbae:	48 98                	cltq   
    dbb0:	8b 4d f0             	mov    -0x10(%rbp),%ecx
    dbb3:	48 63 c9             	movslq %ecx,%rcx
    dbb6:	48 c1 e1 03          	shl    $0x3,%rcx
    dbba:	48 01 ca             	add    %rcx,%rdx
    dbbd:	48 01 c2             	add    %rax,%rdx
    dbc0:	48 8d 05 99 14 00 00 	lea    0x1499(%rip),%rax        # f060 <g_1398>
    dbc7:	48 01 d0             	add    %rdx,%rax
    dbca:	0f b6 00             	movzbl (%rax),%eax
    dbcd:	0f b6 c0             	movzbl %al,%eax
    dbd0:	8b 55 fc             	mov    -0x4(%rbp),%edx
    dbd3:	48 8d 35 d7 2b 00 00 	lea    0x2bd7(%rip),%rsi        # 107b1 <g_2179+0x16e5>
    dbda:	48 89 c7             	mov    %rax,%rdi
    dbdd:	e8 11 8b ff ff       	callq  66f3 <transparent_crc>
    dbe2:	83 7d fc 00          	cmpl   $0x0,-0x4(%rbp)
    dbe6:	74 1c                	je     dc04 <main+0x1be6>
    dbe8:	8b 4d f8             	mov    -0x8(%rbp),%ecx
    dbeb:	8b 55 f4             	mov    -0xc(%rbp),%edx
    dbee:	8b 45 f0             	mov    -0x10(%rbp),%eax
    dbf1:	89 c6                	mov    %eax,%esi
    dbf3:	48 8d 3d de 25 00 00 	lea    0x25de(%rip),%rdi        # 101d8 <g_2179+0x110c>
    dbfa:	b8 00 00 00 00       	mov    $0x0,%eax
    dbff:	e8 7c 74 ff ff       	callq  5080 <printf@plt>
    dc04:	83 45 f8 01          	addl   $0x1,-0x8(%rbp)
    dc08:	83 7d f8 00          	cmpl   $0x0,-0x8(%rbp)
    dc0c:	7e 97                	jle    dba5 <main+0x1b87>
    dc0e:	83 45 f4 01          	addl   $0x1,-0xc(%rbp)
    dc12:	83 7d f4 07          	cmpl   $0x7,-0xc(%rbp)
    dc16:	7e 84                	jle    db9c <main+0x1b7e>
    dc18:	83 45 f0 01          	addl   $0x1,-0x10(%rbp)
    dc1c:	83 7d f0 08          	cmpl   $0x8,-0x10(%rbp)
    dc20:	0f 8e 6d ff ff ff    	jle    db93 <main+0x1b75>
    dc26:	48 8b 05 43 6d 00 00 	mov    0x6d43(%rip),%rax        # 14970 <g_1419>
    dc2d:	c1 e0 06             	shl    $0x6,%eax
    dc30:	c0 f8 06             	sar    $0x6,%al
    dc33:	48 0f be c0          	movsbq %al,%rax
    dc37:	8b 55 fc             	mov    -0x4(%rbp),%edx
    dc3a:	48 8d 35 80 2b 00 00 	lea    0x2b80(%rip),%rsi        # 107c1 <g_2179+0x16f5>
    dc41:	48 89 c7             	mov    %rax,%rdi
    dc44:	e8 aa 8a ff ff       	callq  66f3 <transparent_crc>
    dc49:	8b 05 21 6d 00 00    	mov    0x6d21(%rip),%eax        # 14970 <g_1419>
    dc4f:	c1 e8 08             	shr    $0x8,%eax
    dc52:	66 25 ff 0f          	and    $0xfff,%ax
    dc56:	0f b7 c0             	movzwl %ax,%eax
    dc59:	8b 55 fc             	mov    -0x4(%rbp),%edx
    dc5c:	48 8d 35 68 2b 00 00 	lea    0x2b68(%rip),%rsi        # 107cb <g_2179+0x16ff>
    dc63:	48 89 c7             	mov    %rax,%rdi
    dc66:	e8 88 8a ff ff       	callq  66f3 <transparent_crc>
    dc6b:	8b 05 04 6d 00 00    	mov    0x6d04(%rip),%eax        # 14975 <g_1419+0x5>
    dc71:	48 98                	cltq   
    dc73:	8b 55 fc             	mov    -0x4(%rbp),%edx
    dc76:	48 8d 35 5b 2b 00 00 	lea    0x2b5b(%rip),%rsi        # 107d8 <g_2179+0x170c>
    dc7d:	48 89 c7             	mov    %rax,%rdi
    dc80:	e8 6e 8a ff ff       	callq  66f3 <transparent_crc>
    dc85:	8b 05 ed 6c 00 00    	mov    0x6ced(%rip),%eax        # 14978 <g_1419+0x8>
    dc8b:	c1 e8 08             	shr    $0x8,%eax
    dc8e:	66 25 ff 01          	and    $0x1ff,%ax
    dc92:	0f b7 c0             	movzwl %ax,%eax
    dc95:	8b 55 fc             	mov    -0x4(%rbp),%edx
    dc98:	48 8d 35 46 2b 00 00 	lea    0x2b46(%rip),%rsi        # 107e5 <g_2179+0x1719>
    dc9f:	48 89 c7             	mov    %rax,%rdi
    dca2:	e8 4c 8a ff ff       	callq  66f3 <transparent_crc>
    dca7:	0f b6 05 cc 6c 00 00 	movzbl 0x6ccc(%rip),%eax        # 1497a <g_1419+0xa>
    dcae:	d0 e8                	shr    %al
    dcb0:	0f b6 c0             	movzbl %al,%eax
    dcb3:	8b 55 fc             	mov    -0x4(%rbp),%edx
    dcb6:	48 8d 35 35 2b 00 00 	lea    0x2b35(%rip),%rsi        # 107f2 <g_2179+0x1726>
    dcbd:	48 89 c7             	mov    %rax,%rdi
    dcc0:	e8 2e 8a ff ff       	callq  66f3 <transparent_crc>
    dcc5:	0f b7 05 af 6c 00 00 	movzwl 0x6caf(%rip),%eax        # 1497b <g_1419+0xb>
    dccc:	0f b7 c0             	movzwl %ax,%eax
    dccf:	8b 55 fc             	mov    -0x4(%rbp),%edx
    dcd2:	48 8d 35 26 2b 00 00 	lea    0x2b26(%rip),%rsi        # 107ff <g_2179+0x1733>
    dcd9:	48 89 c7             	mov    %rax,%rdi
    dcdc:	e8 12 8a ff ff       	callq  66f3 <transparent_crc>
    dce1:	48 8b 05 95 6c 00 00 	mov    0x6c95(%rip),%rax        # 1497d <g_1419+0xd>
    dce8:	8b 55 fc             	mov    -0x4(%rbp),%edx
    dceb:	48 8d 35 1a 2b 00 00 	lea    0x2b1a(%rip),%rsi        # 1080c <g_2179+0x1740>
    dcf2:	48 89 c7             	mov    %rax,%rdi
    dcf5:	e8 f9 89 ff ff       	callq  66f3 <transparent_crc>
    dcfa:	0f b6 05 84 6c 00 00 	movzbl 0x6c84(%rip),%eax        # 14985 <g_1419+0x15>
    dd01:	48 0f be c0          	movsbq %al,%rax
    dd05:	8b 55 fc             	mov    -0x4(%rbp),%edx
    dd08:	48 8d 35 07 2b 00 00 	lea    0x2b07(%rip),%rsi        # 10816 <g_2179+0x174a>
    dd0f:	48 89 c7             	mov    %rax,%rdi
    dd12:	e8 dc 89 ff ff       	callq  66f3 <transparent_crc>
    dd17:	0f b7 05 6a 6c 00 00 	movzwl 0x6c6a(%rip),%eax        # 14988 <g_1452>
    dd1e:	0f b7 c0             	movzwl %ax,%eax
    dd21:	8b 55 fc             	mov    -0x4(%rbp),%edx
    dd24:	48 8d 35 f5 2a 00 00 	lea    0x2af5(%rip),%rsi        # 10820 <g_2179+0x1754>
    dd2b:	48 89 c7             	mov    %rax,%rdi
    dd2e:	e8 c0 89 ff ff       	callq  66f3 <transparent_crc>
    dd33:	0f b7 05 4e 6c 00 00 	movzwl 0x6c4e(%rip),%eax        # 14988 <g_1452>
    dd3a:	48 0f bf c0          	movswq %ax,%rax
    dd3e:	8b 55 fc             	mov    -0x4(%rbp),%edx
    dd41:	48 8d 35 e2 2a 00 00 	lea    0x2ae2(%rip),%rsi        # 1082a <g_2179+0x175e>
    dd48:	48 89 c7             	mov    %rax,%rdi
    dd4b:	e8 a3 89 ff ff       	callq  66f3 <transparent_crc>
    dd50:	48 8b 05 39 6c 00 00 	mov    0x6c39(%rip),%rax        # 14990 <g_1453>
    dd57:	66 25 ff 0f          	and    $0xfff,%ax
    dd5b:	0f b7 c0             	movzwl %ax,%eax
    dd5e:	8b 55 fc             	mov    -0x4(%rbp),%edx
    dd61:	48 8d 35 cc 2a 00 00 	lea    0x2acc(%rip),%rsi        # 10834 <g_2179+0x1768>
    dd68:	48 89 c7             	mov    %rax,%rdi
    dd6b:	e8 83 89 ff ff       	callq  66f3 <transparent_crc>
    dd70:	8b 05 1e 6c 00 00    	mov    0x6c1e(%rip),%eax        # 14994 <g_1453+0x4>
    dd76:	48 98                	cltq   
    dd78:	8b 55 fc             	mov    -0x4(%rbp),%edx
    dd7b:	48 8d 35 bc 2a 00 00 	lea    0x2abc(%rip),%rsi        # 1083e <g_2179+0x1772>
    dd82:	48 89 c7             	mov    %rax,%rdi
    dd85:	e8 69 89 ff ff       	callq  66f3 <transparent_crc>
    dd8a:	48 8b 05 07 6c 00 00 	mov    0x6c07(%rip),%rax        # 14998 <g_1453+0x8>
    dd91:	66 25 ff 01          	and    $0x1ff,%ax
    dd95:	0f b7 c0             	movzwl %ax,%eax
    dd98:	8b 55 fc             	mov    -0x4(%rbp),%edx
    dd9b:	48 8d 35 a6 2a 00 00 	lea    0x2aa6(%rip),%rsi        # 10848 <g_2179+0x177c>
    dda2:	48 89 c7             	mov    %rax,%rdi
    dda5:	e8 49 89 ff ff       	callq  66f3 <transparent_crc>
    ddaa:	48 8b 05 e7 6b 00 00 	mov    0x6be7(%rip),%rax        # 14998 <g_1453+0x8>
    ddb1:	48 c1 e8 09          	shr    $0x9,%rax
    ddb5:	83 e0 7f             	and    $0x7f,%eax
    ddb8:	0f b6 c0             	movzbl %al,%eax
    ddbb:	8b 55 fc             	mov    -0x4(%rbp),%edx
    ddbe:	48 8d 35 8d 2a 00 00 	lea    0x2a8d(%rip),%rsi        # 10852 <g_2179+0x1786>
    ddc5:	48 89 c7             	mov    %rax,%rdi
    ddc8:	e8 26 89 ff ff       	callq  66f3 <transparent_crc>
    ddcd:	0f b7 05 c6 6b 00 00 	movzwl 0x6bc6(%rip),%eax        # 1499a <g_1453+0xa>
    ddd4:	0f b7 c0             	movzwl %ax,%eax
    ddd7:	8b 55 fc             	mov    -0x4(%rbp),%edx
    ddda:	48 8d 35 7b 2a 00 00 	lea    0x2a7b(%rip),%rsi        # 1085c <g_2179+0x1790>
    dde1:	48 89 c7             	mov    %rax,%rdi
    dde4:	e8 0a 89 ff ff       	callq  66f3 <transparent_crc>
    dde9:	8b 05 ad 6b 00 00    	mov    0x6bad(%rip),%eax        # 1499c <g_1454>
    ddef:	48 98                	cltq   
    ddf1:	8b 55 fc             	mov    -0x4(%rbp),%edx
    ddf4:	48 8d 35 6b 2a 00 00 	lea    0x2a6b(%rip),%rsi        # 10866 <g_2179+0x179a>
    ddfb:	48 89 c7             	mov    %rax,%rdi
    ddfe:	e8 f0 88 ff ff       	callq  66f3 <transparent_crc>
    de03:	c7 45 f0 00 00 00 00 	movl   $0x0,-0x10(%rbp)
    de0a:	e9 b2 00 00 00       	jmpq   dec1 <main+0x1ea3>
    de0f:	c7 45 f4 00 00 00 00 	movl   $0x0,-0xc(%rbp)
    de16:	e9 98 00 00 00       	jmpq   deb3 <main+0x1e95>
    de1b:	8b 45 f4             	mov    -0xc(%rbp),%eax
    de1e:	48 98                	cltq   
    de20:	8b 55 f0             	mov    -0x10(%rbp),%edx
    de23:	48 63 d2             	movslq %edx,%rdx
    de26:	48 c1 e2 03          	shl    $0x3,%rdx
    de2a:	48 01 d0             	add    %rdx,%rax
    de2d:	48 8d 14 85 00 00 00 	lea    0x0(,%rax,4),%rdx
    de34:	00 
    de35:	48 8d 05 64 6b 00 00 	lea    0x6b64(%rip),%rax        # 149a0 <g_1480>
    de3c:	0f b7 04 02          	movzwl (%rdx,%rax,1),%eax
    de40:	0f b7 c0             	movzwl %ax,%eax
    de43:	8b 55 fc             	mov    -0x4(%rbp),%edx
    de46:	48 8d 35 20 2a 00 00 	lea    0x2a20(%rip),%rsi        # 1086d <g_2179+0x17a1>
    de4d:	48 89 c7             	mov    %rax,%rdi
    de50:	e8 9e 88 ff ff       	callq  66f3 <transparent_crc>
    de55:	8b 45 f4             	mov    -0xc(%rbp),%eax
    de58:	48 98                	cltq   
    de5a:	8b 55 f0             	mov    -0x10(%rbp),%edx
    de5d:	48 63 d2             	movslq %edx,%rdx
    de60:	48 c1 e2 03          	shl    $0x3,%rdx
    de64:	48 01 d0             	add    %rdx,%rax
    de67:	48 8d 14 85 00 00 00 	lea    0x0(,%rax,4),%rdx
    de6e:	00 
    de6f:	48 8d 05 2a 6b 00 00 	lea    0x6b2a(%rip),%rax        # 149a0 <g_1480>
    de76:	0f b7 04 02          	movzwl (%rdx,%rax,1),%eax
    de7a:	48 0f bf c0          	movswq %ax,%rax
    de7e:	8b 55 fc             	mov    -0x4(%rbp),%edx
    de81:	48 8d 35 f5 29 00 00 	lea    0x29f5(%rip),%rsi        # 1087d <g_2179+0x17b1>
    de88:	48 89 c7             	mov    %rax,%rdi
    de8b:	e8 63 88 ff ff       	callq  66f3 <transparent_crc>
    de90:	83 7d fc 00          	cmpl   $0x0,-0x4(%rbp)
    de94:	74 19                	je     deaf <main+0x1e91>
    de96:	8b 55 f4             	mov    -0xc(%rbp),%edx
    de99:	8b 45 f0             	mov    -0x10(%rbp),%eax
    de9c:	89 c6                	mov    %eax,%esi
    de9e:	48 8d 3d 55 23 00 00 	lea    0x2355(%rip),%rdi        # 101fa <g_2179+0x112e>
    dea5:	b8 00 00 00 00       	mov    $0x0,%eax
    deaa:	e8 d1 71 ff ff       	callq  5080 <printf@plt>
    deaf:	83 45 f4 01          	addl   $0x1,-0xc(%rbp)
    deb3:	83 7d f4 07          	cmpl   $0x7,-0xc(%rbp)
    deb7:	0f 8e 5e ff ff ff    	jle    de1b <main+0x1dfd>
    debd:	83 45 f0 01          	addl   $0x1,-0x10(%rbp)
    dec1:	83 7d f0 03          	cmpl   $0x3,-0x10(%rbp)
    dec5:	0f 8e 44 ff ff ff    	jle    de0f <main+0x1df1>
    decb:	0f b7 05 4e 6b 00 00 	movzwl 0x6b4e(%rip),%eax        # 14a20 <g_1494>
    ded2:	0f b7 c0             	movzwl %ax,%eax
    ded5:	8b 55 fc             	mov    -0x4(%rbp),%edx
    ded8:	48 8d 35 ae 29 00 00 	lea    0x29ae(%rip),%rsi        # 1088d <g_2179+0x17c1>
    dedf:	48 89 c7             	mov    %rax,%rdi
    dee2:	e8 0c 88 ff ff       	callq  66f3 <transparent_crc>
    dee7:	0f b7 05 32 6b 00 00 	movzwl 0x6b32(%rip),%eax        # 14a20 <g_1494>
    deee:	48 0f bf c0          	movswq %ax,%rax
    def2:	8b 55 fc             	mov    -0x4(%rbp),%edx
    def5:	48 8d 35 9b 29 00 00 	lea    0x299b(%rip),%rsi        # 10897 <g_2179+0x17cb>
    defc:	48 89 c7             	mov    %rax,%rdi
    deff:	e8 ef 87 ff ff       	callq  66f3 <transparent_crc>
    df04:	0f b7 05 1d 6b 00 00 	movzwl 0x6b1d(%rip),%eax        # 14a28 <g_1534>
    df0b:	66 25 ff 0f          	and    $0xfff,%ax
    df0f:	0f b7 c0             	movzwl %ax,%eax
    df12:	8b 55 fc             	mov    -0x4(%rbp),%edx
    df15:	48 8d 35 85 29 00 00 	lea    0x2985(%rip),%rsi        # 108a1 <g_2179+0x17d5>
    df1c:	48 89 c7             	mov    %rax,%rdi
    df1f:	e8 cf 87 ff ff       	callq  66f3 <transparent_crc>
    df24:	8b 05 02 6b 00 00    	mov    0x6b02(%rip),%eax        # 14a2c <g_1534+0x4>
    df2a:	48 98                	cltq   
    df2c:	8b 55 fc             	mov    -0x4(%rbp),%edx
    df2f:	48 8d 35 75 29 00 00 	lea    0x2975(%rip),%rsi        # 108ab <g_2179+0x17df>
    df36:	48 89 c7             	mov    %rax,%rdi
    df39:	e8 b5 87 ff ff       	callq  66f3 <transparent_crc>
    df3e:	0f b7 05 eb 6a 00 00 	movzwl 0x6aeb(%rip),%eax        # 14a30 <g_1534+0x8>
    df45:	66 25 ff 01          	and    $0x1ff,%ax
    df49:	0f b7 c0             	movzwl %ax,%eax
    df4c:	8b 55 fc             	mov    -0x4(%rbp),%edx
    df4f:	48 8d 35 5f 29 00 00 	lea    0x295f(%rip),%rsi        # 108b5 <g_2179+0x17e9>
    df56:	48 89 c7             	mov    %rax,%rdi
    df59:	e8 95 87 ff ff       	callq  66f3 <transparent_crc>
    df5e:	0f b6 05 cc 6a 00 00 	movzbl 0x6acc(%rip),%eax        # 14a31 <g_1534+0x9>
    df65:	d0 e8                	shr    %al
    df67:	0f b6 c0             	movzbl %al,%eax
    df6a:	8b 55 fc             	mov    -0x4(%rbp),%edx
    df6d:	48 8d 35 4b 29 00 00 	lea    0x294b(%rip),%rsi        # 108bf <g_2179+0x17f3>
    df74:	48 89 c7             	mov    %rax,%rdi
    df77:	e8 77 87 ff ff       	callq  66f3 <transparent_crc>
    df7c:	0f b7 05 af 6a 00 00 	movzwl 0x6aaf(%rip),%eax        # 14a32 <g_1534+0xa>
    df83:	0f b7 c0             	movzwl %ax,%eax
    df86:	8b 55 fc             	mov    -0x4(%rbp),%edx
    df89:	48 8d 35 39 29 00 00 	lea    0x2939(%rip),%rsi        # 108c9 <g_2179+0x17fd>
    df90:	48 89 c7             	mov    %rax,%rdi
    df93:	e8 5b 87 ff ff       	callq  66f3 <transparent_crc>
    df98:	0f b7 05 99 6a 00 00 	movzwl 0x6a99(%rip),%eax        # 14a38 <g_1536>
    df9f:	66 25 ff 0f          	and    $0xfff,%ax
    dfa3:	0f b7 c0             	movzwl %ax,%eax
    dfa6:	8b 55 fc             	mov    -0x4(%rbp),%edx
    dfa9:	48 8d 35 23 29 00 00 	lea    0x2923(%rip),%rsi        # 108d3 <g_2179+0x1807>
    dfb0:	48 89 c7             	mov    %rax,%rdi
    dfb3:	e8 3b 87 ff ff       	callq  66f3 <transparent_crc>
    dfb8:	8b 05 7e 6a 00 00    	mov    0x6a7e(%rip),%eax        # 14a3c <g_1536+0x4>
    dfbe:	48 98                	cltq   
    dfc0:	8b 55 fc             	mov    -0x4(%rbp),%edx
    dfc3:	48 8d 35 13 29 00 00 	lea    0x2913(%rip),%rsi        # 108dd <g_2179+0x1811>
    dfca:	48 89 c7             	mov    %rax,%rdi
    dfcd:	e8 21 87 ff ff       	callq  66f3 <transparent_crc>
    dfd2:	0f b7 05 67 6a 00 00 	movzwl 0x6a67(%rip),%eax        # 14a40 <g_1536+0x8>
    dfd9:	66 25 ff 01          	and    $0x1ff,%ax
    dfdd:	0f b7 c0             	movzwl %ax,%eax
    dfe0:	8b 55 fc             	mov    -0x4(%rbp),%edx
    dfe3:	48 8d 35 fd 28 00 00 	lea    0x28fd(%rip),%rsi        # 108e7 <g_2179+0x181b>
    dfea:	48 89 c7             	mov    %rax,%rdi
    dfed:	e8 01 87 ff ff       	callq  66f3 <transparent_crc>
    dff2:	0f b6 05 48 6a 00 00 	movzbl 0x6a48(%rip),%eax        # 14a41 <g_1536+0x9>
    dff9:	d0 e8                	shr    %al
    dffb:	0f b6 c0             	movzbl %al,%eax
    dffe:	8b 55 fc             	mov    -0x4(%rbp),%edx
    e001:	48 8d 35 e9 28 00 00 	lea    0x28e9(%rip),%rsi        # 108f1 <g_2179+0x1825>
    e008:	48 89 c7             	mov    %rax,%rdi
    e00b:	e8 e3 86 ff ff       	callq  66f3 <transparent_crc>
    e010:	0f b7 05 2b 6a 00 00 	movzwl 0x6a2b(%rip),%eax        # 14a42 <g_1536+0xa>
    e017:	0f b7 c0             	movzwl %ax,%eax
    e01a:	8b 55 fc             	mov    -0x4(%rbp),%edx
    e01d:	48 8d 35 d7 28 00 00 	lea    0x28d7(%rip),%rsi        # 108fb <g_2179+0x182f>
    e024:	48 89 c7             	mov    %rax,%rdi
    e027:	e8 c7 86 ff ff       	callq  66f3 <transparent_crc>
    e02c:	c7 45 f0 00 00 00 00 	movl   $0x0,-0x10(%rbp)
    e033:	e9 38 01 00 00       	jmpq   e170 <main+0x2152>
    e038:	8b 45 f0             	mov    -0x10(%rbp),%eax
    e03b:	48 63 d0             	movslq %eax,%rdx
    e03e:	48 89 d0             	mov    %rdx,%rax
    e041:	48 01 c0             	add    %rax,%rax
    e044:	48 01 d0             	add    %rdx,%rax
    e047:	48 c1 e0 02          	shl    $0x2,%rax
    e04b:	48 89 c2             	mov    %rax,%rdx
    e04e:	48 8d 05 f3 69 00 00 	lea    0x69f3(%rip),%rax        # 14a48 <g_1609>
    e055:	0f b7 04 02          	movzwl (%rdx,%rax,1),%eax
    e059:	66 25 ff 0f          	and    $0xfff,%ax
    e05d:	0f b7 c0             	movzwl %ax,%eax
    e060:	8b 55 fc             	mov    -0x4(%rbp),%edx
    e063:	48 8d 35 9b 28 00 00 	lea    0x289b(%rip),%rsi        # 10905 <g_2179+0x1839>
    e06a:	48 89 c7             	mov    %rax,%rdi
    e06d:	e8 81 86 ff ff       	callq  66f3 <transparent_crc>
    e072:	8b 45 f0             	mov    -0x10(%rbp),%eax
    e075:	48 63 d0             	movslq %eax,%rdx
    e078:	48 89 d0             	mov    %rdx,%rax
    e07b:	48 01 c0             	add    %rax,%rax
    e07e:	48 01 d0             	add    %rdx,%rax
    e081:	48 c1 e0 02          	shl    $0x2,%rax
    e085:	48 89 c2             	mov    %rax,%rdx
    e088:	48 8d 05 bd 69 00 00 	lea    0x69bd(%rip),%rax        # 14a4c <g_1609+0x4>
    e08f:	8b 04 02             	mov    (%rdx,%rax,1),%eax
    e092:	48 98                	cltq   
    e094:	8b 55 fc             	mov    -0x4(%rbp),%edx
    e097:	48 8d 35 74 28 00 00 	lea    0x2874(%rip),%rsi        # 10912 <g_2179+0x1846>
    e09e:	48 89 c7             	mov    %rax,%rdi
    e0a1:	e8 4d 86 ff ff       	callq  66f3 <transparent_crc>
    e0a6:	8b 45 f0             	mov    -0x10(%rbp),%eax
    e0a9:	48 63 d0             	movslq %eax,%rdx
    e0ac:	48 89 d0             	mov    %rdx,%rax
    e0af:	48 01 c0             	add    %rax,%rax
    e0b2:	48 01 d0             	add    %rdx,%rax
    e0b5:	48 c1 e0 02          	shl    $0x2,%rax
    e0b9:	48 89 c2             	mov    %rax,%rdx
    e0bc:	48 8d 05 85 69 00 00 	lea    0x6985(%rip),%rax        # 14a48 <g_1609>
    e0c3:	0f b7 44 02 08       	movzwl 0x8(%rdx,%rax,1),%eax
    e0c8:	66 25 ff 01          	and    $0x1ff,%ax
    e0cc:	0f b7 c0             	movzwl %ax,%eax
    e0cf:	8b 55 fc             	mov    -0x4(%rbp),%edx
    e0d2:	48 8d 35 46 28 00 00 	lea    0x2846(%rip),%rsi        # 1091f <g_2179+0x1853>
    e0d9:	48 89 c7             	mov    %rax,%rdi
    e0dc:	e8 12 86 ff ff       	callq  66f3 <transparent_crc>
    e0e1:	8b 45 f0             	mov    -0x10(%rbp),%eax
    e0e4:	48 63 d0             	movslq %eax,%rdx
    e0e7:	48 89 d0             	mov    %rdx,%rax
    e0ea:	48 01 c0             	add    %rax,%rax
    e0ed:	48 01 d0             	add    %rdx,%rax
    e0f0:	48 c1 e0 02          	shl    $0x2,%rax
    e0f4:	48 89 c2             	mov    %rax,%rdx
    e0f7:	48 8d 05 4a 69 00 00 	lea    0x694a(%rip),%rax        # 14a48 <g_1609>
    e0fe:	0f b6 44 02 09       	movzbl 0x9(%rdx,%rax,1),%eax
    e103:	d0 e8                	shr    %al
    e105:	0f b6 c0             	movzbl %al,%eax
    e108:	8b 55 fc             	mov    -0x4(%rbp),%edx
    e10b:	48 8d 35 1a 28 00 00 	lea    0x281a(%rip),%rsi        # 1092c <g_2179+0x1860>
    e112:	48 89 c7             	mov    %rax,%rdi
    e115:	e8 d9 85 ff ff       	callq  66f3 <transparent_crc>
    e11a:	8b 45 f0             	mov    -0x10(%rbp),%eax
    e11d:	48 63 d0             	movslq %eax,%rdx
    e120:	48 89 d0             	mov    %rdx,%rax
    e123:	48 01 c0             	add    %rax,%rax
    e126:	48 01 d0             	add    %rdx,%rax
    e129:	48 c1 e0 02          	shl    $0x2,%rax
    e12d:	48 89 c2             	mov    %rax,%rdx
    e130:	48 8d 05 1b 69 00 00 	lea    0x691b(%rip),%rax        # 14a52 <g_1609+0xa>
    e137:	0f b7 04 02          	movzwl (%rdx,%rax,1),%eax
    e13b:	0f b7 c0             	movzwl %ax,%eax
    e13e:	8b 55 fc             	mov    -0x4(%rbp),%edx
    e141:	48 8d 35 f1 27 00 00 	lea    0x27f1(%rip),%rsi        # 10939 <g_2179+0x186d>
    e148:	48 89 c7             	mov    %rax,%rdi
    e14b:	e8 a3 85 ff ff       	callq  66f3 <transparent_crc>
    e150:	83 7d fc 00          	cmpl   $0x0,-0x4(%rbp)
    e154:	74 16                	je     e16c <main+0x214e>
    e156:	8b 45 f0             	mov    -0x10(%rbp),%eax
    e159:	89 c6                	mov    %eax,%esi
    e15b:	48 8d 3d bf 20 00 00 	lea    0x20bf(%rip),%rdi        # 10221 <g_2179+0x1155>
    e162:	b8 00 00 00 00       	mov    $0x0,%eax
    e167:	e8 14 6f ff ff       	callq  5080 <printf@plt>
    e16c:	83 45 f0 01          	addl   $0x1,-0x10(%rbp)
    e170:	83 7d f0 00          	cmpl   $0x0,-0x10(%rbp)
    e174:	0f 8e be fe ff ff    	jle    e038 <main+0x201a>
    e17a:	0f b7 05 d3 68 00 00 	movzwl 0x68d3(%rip),%eax        # 14a54 <g_1628>
    e181:	0f b7 c0             	movzwl %ax,%eax
    e184:	8b 55 fc             	mov    -0x4(%rbp),%edx
    e187:	48 8d 35 b8 27 00 00 	lea    0x27b8(%rip),%rsi        # 10946 <g_2179+0x187a>
    e18e:	48 89 c7             	mov    %rax,%rdi
    e191:	e8 5d 85 ff ff       	callq  66f3 <transparent_crc>
    e196:	0f b7 05 b7 68 00 00 	movzwl 0x68b7(%rip),%eax        # 14a54 <g_1628>
    e19d:	48 0f bf c0          	movswq %ax,%rax
    e1a1:	8b 55 fc             	mov    -0x4(%rbp),%edx
    e1a4:	48 8d 35 a5 27 00 00 	lea    0x27a5(%rip),%rsi        # 10950 <g_2179+0x1884>
    e1ab:	48 89 c7             	mov    %rax,%rdi
    e1ae:	e8 40 85 ff ff       	callq  66f3 <transparent_crc>
    e1b3:	c7 45 f0 00 00 00 00 	movl   $0x0,-0x10(%rbp)
    e1ba:	eb 41                	jmp    e1fd <main+0x21df>
    e1bc:	48 b8 58 a3 f5 9b 11 	movabs $0xd832ed119bf5a358,%rax
    e1c3:	ed 32 d8 
    e1c6:	48 89 c1             	mov    %rax,%rcx
    e1c9:	8b 45 fc             	mov    -0x4(%rbp),%eax
    e1cc:	89 c2                	mov    %eax,%edx
    e1ce:	48 8d 35 85 27 00 00 	lea    0x2785(%rip),%rsi        # 1095a <g_2179+0x188e>
    e1d5:	48 89 cf             	mov    %rcx,%rdi
    e1d8:	e8 16 85 ff ff       	callq  66f3 <transparent_crc>
    e1dd:	83 7d fc 00          	cmpl   $0x0,-0x4(%rbp)
    e1e1:	74 16                	je     e1f9 <main+0x21db>
    e1e3:	8b 45 f0             	mov    -0x10(%rbp),%eax
    e1e6:	89 c6                	mov    %eax,%esi
    e1e8:	48 8d 3d 32 20 00 00 	lea    0x2032(%rip),%rdi        # 10221 <g_2179+0x1155>
    e1ef:	b8 00 00 00 00       	mov    $0x0,%eax
    e1f4:	e8 87 6e ff ff       	callq  5080 <printf@plt>
    e1f9:	83 45 f0 01          	addl   $0x1,-0x10(%rbp)
    e1fd:	83 7d f0 00          	cmpl   $0x0,-0x10(%rbp)
    e201:	7e b9                	jle    e1bc <main+0x219e>
    e203:	0f b7 05 4e 68 00 00 	movzwl 0x684e(%rip),%eax        # 14a58 <g_1689>
    e20a:	0f b7 c0             	movzwl %ax,%eax
    e20d:	8b 55 fc             	mov    -0x4(%rbp),%edx
    e210:	48 8d 35 4d 27 00 00 	lea    0x274d(%rip),%rsi        # 10964 <g_2179+0x1898>
    e217:	48 89 c7             	mov    %rax,%rdi
    e21a:	e8 d4 84 ff ff       	callq  66f3 <transparent_crc>
    e21f:	0f b7 05 32 68 00 00 	movzwl 0x6832(%rip),%eax        # 14a58 <g_1689>
    e226:	48 0f bf c0          	movswq %ax,%rax
    e22a:	8b 55 fc             	mov    -0x4(%rbp),%edx
    e22d:	48 8d 35 3a 27 00 00 	lea    0x273a(%rip),%rsi        # 1096e <g_2179+0x18a2>
    e234:	48 89 c7             	mov    %rax,%rdi
    e237:	e8 b7 84 ff ff       	callq  66f3 <transparent_crc>
    e23c:	48 8b 05 1d 68 00 00 	mov    0x681d(%rip),%rax        # 14a60 <g_1692>
    e243:	8b 55 fc             	mov    -0x4(%rbp),%edx
    e246:	48 8d 35 2b 27 00 00 	lea    0x272b(%rip),%rsi        # 10978 <g_2179+0x18ac>
    e24d:	48 89 c7             	mov    %rax,%rdi
    e250:	e8 9e 84 ff ff       	callq  66f3 <transparent_crc>
    e255:	c7 45 f0 00 00 00 00 	movl   $0x0,-0x10(%rbp)
    e25c:	eb 7b                	jmp    e2d9 <main+0x22bb>
    e25e:	8b 45 f0             	mov    -0x10(%rbp),%eax
    e261:	48 98                	cltq   
    e263:	48 8d 14 85 00 00 00 	lea    0x0(,%rax,4),%rdx
    e26a:	00 
    e26b:	48 8d 05 3e 0e 00 00 	lea    0xe3e(%rip),%rax        # f0b0 <g_1708>
    e272:	0f b7 04 02          	movzwl (%rdx,%rax,1),%eax
    e276:	0f b7 c0             	movzwl %ax,%eax
    e279:	8b 55 fc             	mov    -0x4(%rbp),%edx
    e27c:	48 8d 35 fc 26 00 00 	lea    0x26fc(%rip),%rsi        # 1097f <g_2179+0x18b3>
    e283:	48 89 c7             	mov    %rax,%rdi
    e286:	e8 68 84 ff ff       	callq  66f3 <transparent_crc>
    e28b:	8b 45 f0             	mov    -0x10(%rbp),%eax
    e28e:	48 98                	cltq   
    e290:	48 8d 14 85 00 00 00 	lea    0x0(,%rax,4),%rdx
    e297:	00 
    e298:	48 8d 05 11 0e 00 00 	lea    0xe11(%rip),%rax        # f0b0 <g_1708>
    e29f:	0f b7 04 02          	movzwl (%rdx,%rax,1),%eax
    e2a3:	48 0f bf c0          	movswq %ax,%rax
    e2a7:	8b 55 fc             	mov    -0x4(%rbp),%edx
    e2aa:	48 8d 35 db 26 00 00 	lea    0x26db(%rip),%rsi        # 1098c <g_2179+0x18c0>
    e2b1:	48 89 c7             	mov    %rax,%rdi
    e2b4:	e8 3a 84 ff ff       	callq  66f3 <transparent_crc>
    e2b9:	83 7d fc 00          	cmpl   $0x0,-0x4(%rbp)
    e2bd:	74 16                	je     e2d5 <main+0x22b7>
    e2bf:	8b 45 f0             	mov    -0x10(%rbp),%eax
    e2c2:	89 c6                	mov    %eax,%esi
    e2c4:	48 8d 3d 56 1f 00 00 	lea    0x1f56(%rip),%rdi        # 10221 <g_2179+0x1155>
    e2cb:	b8 00 00 00 00       	mov    $0x0,%eax
    e2d0:	e8 ab 6d ff ff       	callq  5080 <printf@plt>
    e2d5:	83 45 f0 01          	addl   $0x1,-0x10(%rbp)
    e2d9:	83 7d f0 06          	cmpl   $0x6,-0x10(%rbp)
    e2dd:	0f 8e 7b ff ff ff    	jle    e25e <main+0x2240>
    e2e3:	0f b6 05 7e 67 00 00 	movzbl 0x677e(%rip),%eax        # 14a68 <g_1737>
    e2ea:	48 0f be c0          	movsbq %al,%rax
    e2ee:	8b 55 fc             	mov    -0x4(%rbp),%edx
    e2f1:	48 8d 35 a1 26 00 00 	lea    0x26a1(%rip),%rsi        # 10999 <g_2179+0x18cd>
    e2f8:	48 89 c7             	mov    %rax,%rdi
    e2fb:	e8 f3 83 ff ff       	callq  66f3 <transparent_crc>
    e300:	8b 05 66 67 00 00    	mov    0x6766(%rip),%eax        # 14a6c <g_1765>
    e306:	89 c1                	mov    %eax,%ecx
    e308:	8b 45 fc             	mov    -0x4(%rbp),%eax
    e30b:	89 c2                	mov    %eax,%edx
    e30d:	48 8d 35 8c 26 00 00 	lea    0x268c(%rip),%rsi        # 109a0 <g_2179+0x18d4>
    e314:	48 89 cf             	mov    %rcx,%rdi
    e317:	e8 d7 83 ff ff       	callq  66f3 <transparent_crc>
    e31c:	48 8b 05 4d 67 00 00 	mov    0x674d(%rip),%rax        # 14a70 <g_1774>
    e323:	c1 e0 06             	shl    $0x6,%eax
    e326:	c0 f8 06             	sar    $0x6,%al
    e329:	48 0f be c0          	movsbq %al,%rax
    e32d:	8b 55 fc             	mov    -0x4(%rbp),%edx
    e330:	48 8d 35 70 26 00 00 	lea    0x2670(%rip),%rsi        # 109a7 <g_2179+0x18db>
    e337:	48 89 c7             	mov    %rax,%rdi
    e33a:	e8 b4 83 ff ff       	callq  66f3 <transparent_crc>
    e33f:	48 8b 05 2a 67 00 00 	mov    0x672a(%rip),%rax        # 14a70 <g_1774>
    e346:	48 c1 e8 08          	shr    $0x8,%rax
    e34a:	66 25 ff 0f          	and    $0xfff,%ax
    e34e:	0f b7 c0             	movzwl %ax,%eax
    e351:	8b 55 fc             	mov    -0x4(%rbp),%edx
    e354:	48 8d 35 56 26 00 00 	lea    0x2656(%rip),%rsi        # 109b1 <g_2179+0x18e5>
    e35b:	48 89 c7             	mov    %rax,%rdi
    e35e:	e8 90 83 ff ff       	callq  66f3 <transparent_crc>
    e363:	8b 05 0c 67 00 00    	mov    0x670c(%rip),%eax        # 14a75 <g_1774+0x5>
    e369:	48 98                	cltq   
    e36b:	8b 55 fc             	mov    -0x4(%rbp),%edx
    e36e:	48 8d 35 49 26 00 00 	lea    0x2649(%rip),%rsi        # 109be <g_2179+0x18f2>
    e375:	48 89 c7             	mov    %rax,%rdi
    e378:	e8 76 83 ff ff       	callq  66f3 <transparent_crc>
    e37d:	48 8b 05 f4 66 00 00 	mov    0x66f4(%rip),%rax        # 14a78 <g_1774+0x8>
    e384:	48 c1 e8 08          	shr    $0x8,%rax
    e388:	66 25 ff 01          	and    $0x1ff,%ax
    e38c:	0f b7 c0             	movzwl %ax,%eax
    e38f:	8b 55 fc             	mov    -0x4(%rbp),%edx
    e392:	48 8d 35 32 26 00 00 	lea    0x2632(%rip),%rsi        # 109cb <g_2179+0x18ff>
    e399:	48 89 c7             	mov    %rax,%rdi
    e39c:	e8 52 83 ff ff       	callq  66f3 <transparent_crc>
    e3a1:	48 8b 05 d0 66 00 00 	mov    0x66d0(%rip),%rax        # 14a78 <g_1774+0x8>
    e3a8:	48 c1 e8 11          	shr    $0x11,%rax
    e3ac:	83 e0 7f             	and    $0x7f,%eax
    e3af:	0f b6 c0             	movzbl %al,%eax
    e3b2:	8b 55 fc             	mov    -0x4(%rbp),%edx
    e3b5:	48 8d 35 1c 26 00 00 	lea    0x261c(%rip),%rsi        # 109d8 <g_2179+0x190c>
    e3bc:	48 89 c7             	mov    %rax,%rdi
    e3bf:	e8 2f 83 ff ff       	callq  66f3 <transparent_crc>
    e3c4:	0f b7 05 b0 66 00 00 	movzwl 0x66b0(%rip),%eax        # 14a7b <g_1774+0xb>
    e3cb:	0f b7 c0             	movzwl %ax,%eax
    e3ce:	8b 55 fc             	mov    -0x4(%rbp),%edx
    e3d1:	48 8d 35 0d 26 00 00 	lea    0x260d(%rip),%rsi        # 109e5 <g_2179+0x1919>
    e3d8:	48 89 c7             	mov    %rax,%rdi
    e3db:	e8 13 83 ff ff       	callq  66f3 <transparent_crc>
    e3e0:	48 8b 05 96 66 00 00 	mov    0x6696(%rip),%rax        # 14a7d <g_1774+0xd>
    e3e7:	8b 55 fc             	mov    -0x4(%rbp),%edx
    e3ea:	48 8d 35 01 26 00 00 	lea    0x2601(%rip),%rsi        # 109f2 <g_2179+0x1926>
    e3f1:	48 89 c7             	mov    %rax,%rdi
    e3f4:	e8 fa 82 ff ff       	callq  66f3 <transparent_crc>
    e3f9:	0f b6 05 85 66 00 00 	movzbl 0x6685(%rip),%eax        # 14a85 <g_1774+0x15>
    e400:	48 0f be c0          	movsbq %al,%rax
    e404:	8b 55 fc             	mov    -0x4(%rbp),%edx
    e407:	48 8d 35 ee 25 00 00 	lea    0x25ee(%rip),%rsi        # 109fc <g_2179+0x1930>
    e40e:	48 89 c7             	mov    %rax,%rdi
    e411:	e8 dd 82 ff ff       	callq  66f3 <transparent_crc>
    e416:	c7 45 f0 00 00 00 00 	movl   $0x0,-0x10(%rbp)
    e41d:	eb 4a                	jmp    e469 <main+0x244b>
    e41f:	8b 45 f0             	mov    -0x10(%rbp),%eax
    e422:	48 98                	cltq   
    e424:	48 8d 14 00          	lea    (%rax,%rax,1),%rdx
    e428:	48 8d 05 61 66 00 00 	lea    0x6661(%rip),%rax        # 14a90 <g_1840>
    e42f:	0f b7 04 02          	movzwl (%rdx,%rax,1),%eax
    e433:	48 0f bf c0          	movswq %ax,%rax
    e437:	8b 55 fc             	mov    -0x4(%rbp),%edx
    e43a:	48 8d 35 c5 25 00 00 	lea    0x25c5(%rip),%rsi        # 10a06 <g_2179+0x193a>
    e441:	48 89 c7             	mov    %rax,%rdi
    e444:	e8 aa 82 ff ff       	callq  66f3 <transparent_crc>
    e449:	83 7d fc 00          	cmpl   $0x0,-0x4(%rbp)
    e44d:	74 16                	je     e465 <main+0x2447>
    e44f:	8b 45 f0             	mov    -0x10(%rbp),%eax
    e452:	89 c6                	mov    %eax,%esi
    e454:	48 8d 3d c6 1d 00 00 	lea    0x1dc6(%rip),%rdi        # 10221 <g_2179+0x1155>
    e45b:	b8 00 00 00 00       	mov    $0x0,%eax
    e460:	e8 1b 6c ff ff       	callq  5080 <printf@plt>
    e465:	83 45 f0 01          	addl   $0x1,-0x10(%rbp)
    e469:	83 7d f0 01          	cmpl   $0x1,-0x10(%rbp)
    e46d:	7e b0                	jle    e41f <main+0x2401>
    e46f:	48 8b 05 22 66 00 00 	mov    0x6622(%rip),%rax        # 14a98 <g_1870>
    e476:	66 25 ff 0f          	and    $0xfff,%ax
    e47a:	0f b7 c0             	movzwl %ax,%eax
    e47d:	8b 55 fc             	mov    -0x4(%rbp),%edx
    e480:	48 8d 35 89 25 00 00 	lea    0x2589(%rip),%rsi        # 10a10 <g_2179+0x1944>
    e487:	48 89 c7             	mov    %rax,%rdi
    e48a:	e8 64 82 ff ff       	callq  66f3 <transparent_crc>
    e48f:	8b 05 07 66 00 00    	mov    0x6607(%rip),%eax        # 14a9c <g_1870+0x4>
    e495:	48 98                	cltq   
    e497:	8b 55 fc             	mov    -0x4(%rbp),%edx
    e49a:	48 8d 35 79 25 00 00 	lea    0x2579(%rip),%rsi        # 10a1a <g_2179+0x194e>
    e4a1:	48 89 c7             	mov    %rax,%rdi
    e4a4:	e8 4a 82 ff ff       	callq  66f3 <transparent_crc>
    e4a9:	48 8b 05 f0 65 00 00 	mov    0x65f0(%rip),%rax        # 14aa0 <g_1870+0x8>
    e4b0:	66 25 ff 01          	and    $0x1ff,%ax
    e4b4:	0f b7 c0             	movzwl %ax,%eax
    e4b7:	8b 55 fc             	mov    -0x4(%rbp),%edx
    e4ba:	48 8d 35 63 25 00 00 	lea    0x2563(%rip),%rsi        # 10a24 <g_2179+0x1958>
    e4c1:	48 89 c7             	mov    %rax,%rdi
    e4c4:	e8 2a 82 ff ff       	callq  66f3 <transparent_crc>
    e4c9:	48 8b 05 d0 65 00 00 	mov    0x65d0(%rip),%rax        # 14aa0 <g_1870+0x8>
    e4d0:	48 c1 e8 09          	shr    $0x9,%rax
    e4d4:	83 e0 7f             	and    $0x7f,%eax
    e4d7:	0f b6 c0             	movzbl %al,%eax
    e4da:	8b 55 fc             	mov    -0x4(%rbp),%edx
    e4dd:	48 8d 35 4a 25 00 00 	lea    0x254a(%rip),%rsi        # 10a2e <g_2179+0x1962>
    e4e4:	48 89 c7             	mov    %rax,%rdi
    e4e7:	e8 07 82 ff ff       	callq  66f3 <transparent_crc>
    e4ec:	0f b7 05 af 65 00 00 	movzwl 0x65af(%rip),%eax        # 14aa2 <g_1870+0xa>
    e4f3:	0f b7 c0             	movzwl %ax,%eax
    e4f6:	8b 55 fc             	mov    -0x4(%rbp),%edx
    e4f9:	48 8d 35 38 25 00 00 	lea    0x2538(%rip),%rsi        # 10a38 <g_2179+0x196c>
    e500:	48 89 c7             	mov    %rax,%rdi
    e503:	e8 eb 81 ff ff       	callq  66f3 <transparent_crc>
    e508:	0f b7 05 95 65 00 00 	movzwl 0x6595(%rip),%eax        # 14aa4 <g_1925>
    e50f:	0f b7 c0             	movzwl %ax,%eax
    e512:	8b 55 fc             	mov    -0x4(%rbp),%edx
    e515:	48 8d 35 26 25 00 00 	lea    0x2526(%rip),%rsi        # 10a42 <g_2179+0x1976>
    e51c:	48 89 c7             	mov    %rax,%rdi
    e51f:	e8 cf 81 ff ff       	callq  66f3 <transparent_crc>
    e524:	0f b7 05 79 65 00 00 	movzwl 0x6579(%rip),%eax        # 14aa4 <g_1925>
    e52b:	48 0f bf c0          	movswq %ax,%rax
    e52f:	8b 55 fc             	mov    -0x4(%rbp),%edx
    e532:	48 8d 35 13 25 00 00 	lea    0x2513(%rip),%rsi        # 10a4c <g_2179+0x1980>
    e539:	48 89 c7             	mov    %rax,%rdi
    e53c:	e8 b2 81 ff ff       	callq  66f3 <transparent_crc>
    e541:	c7 45 f0 00 00 00 00 	movl   $0x0,-0x10(%rbp)
    e548:	eb 7b                	jmp    e5c5 <main+0x25a7>
    e54a:	8b 45 f0             	mov    -0x10(%rbp),%eax
    e54d:	48 98                	cltq   
    e54f:	48 8d 14 85 00 00 00 	lea    0x0(,%rax,4),%rdx
    e556:	00 
    e557:	48 8d 05 4a 65 00 00 	lea    0x654a(%rip),%rax        # 14aa8 <g_1927>
    e55e:	0f b7 04 02          	movzwl (%rdx,%rax,1),%eax
    e562:	0f b7 c0             	movzwl %ax,%eax
    e565:	8b 55 fc             	mov    -0x4(%rbp),%edx
    e568:	48 8d 35 e7 24 00 00 	lea    0x24e7(%rip),%rsi        # 10a56 <g_2179+0x198a>
    e56f:	48 89 c7             	mov    %rax,%rdi
    e572:	e8 7c 81 ff ff       	callq  66f3 <transparent_crc>
    e577:	8b 45 f0             	mov    -0x10(%rbp),%eax
    e57a:	48 98                	cltq   
    e57c:	48 8d 14 85 00 00 00 	lea    0x0(,%rax,4),%rdx
    e583:	00 
    e584:	48 8d 05 1d 65 00 00 	lea    0x651d(%rip),%rax        # 14aa8 <g_1927>
    e58b:	0f b7 04 02          	movzwl (%rdx,%rax,1),%eax
    e58f:	48 0f bf c0          	movswq %ax,%rax
    e593:	8b 55 fc             	mov    -0x4(%rbp),%edx
    e596:	48 8d 35 c6 24 00 00 	lea    0x24c6(%rip),%rsi        # 10a63 <g_2179+0x1997>
    e59d:	48 89 c7             	mov    %rax,%rdi
    e5a0:	e8 4e 81 ff ff       	callq  66f3 <transparent_crc>
    e5a5:	83 7d fc 00          	cmpl   $0x0,-0x4(%rbp)
    e5a9:	74 16                	je     e5c1 <main+0x25a3>
    e5ab:	8b 45 f0             	mov    -0x10(%rbp),%eax
    e5ae:	89 c6                	mov    %eax,%esi
    e5b0:	48 8d 3d 6a 1c 00 00 	lea    0x1c6a(%rip),%rdi        # 10221 <g_2179+0x1155>
    e5b7:	b8 00 00 00 00       	mov    $0x0,%eax
    e5bc:	e8 bf 6a ff ff       	callq  5080 <printf@plt>
    e5c1:	83 45 f0 01          	addl   $0x1,-0x10(%rbp)
    e5c5:	83 7d f0 00          	cmpl   $0x0,-0x10(%rbp)
    e5c9:	0f 8e 7b ff ff ff    	jle    e54a <main+0x252c>
    e5cf:	c7 45 f0 00 00 00 00 	movl   $0x0,-0x10(%rbp)
    e5d6:	eb 7b                	jmp    e653 <main+0x2635>
    e5d8:	8b 45 f0             	mov    -0x10(%rbp),%eax
    e5db:	48 98                	cltq   
    e5dd:	48 8d 14 85 00 00 00 	lea    0x0(,%rax,4),%rdx
    e5e4:	00 
    e5e5:	48 8d 05 c4 64 00 00 	lea    0x64c4(%rip),%rax        # 14ab0 <g_1928>
    e5ec:	0f b7 04 02          	movzwl (%rdx,%rax,1),%eax
    e5f0:	0f b7 c0             	movzwl %ax,%eax
    e5f3:	8b 55 fc             	mov    -0x4(%rbp),%edx
    e5f6:	48 8d 35 73 24 00 00 	lea    0x2473(%rip),%rsi        # 10a70 <g_2179+0x19a4>
    e5fd:	48 89 c7             	mov    %rax,%rdi
    e600:	e8 ee 80 ff ff       	callq  66f3 <transparent_crc>
    e605:	8b 45 f0             	mov    -0x10(%rbp),%eax
    e608:	48 98                	cltq   
    e60a:	48 8d 14 85 00 00 00 	lea    0x0(,%rax,4),%rdx
    e611:	00 
    e612:	48 8d 05 97 64 00 00 	lea    0x6497(%rip),%rax        # 14ab0 <g_1928>
    e619:	0f b7 04 02          	movzwl (%rdx,%rax,1),%eax
    e61d:	48 0f bf c0          	movswq %ax,%rax
    e621:	8b 55 fc             	mov    -0x4(%rbp),%edx
    e624:	48 8d 35 52 24 00 00 	lea    0x2452(%rip),%rsi        # 10a7d <g_2179+0x19b1>
    e62b:	48 89 c7             	mov    %rax,%rdi
    e62e:	e8 c0 80 ff ff       	callq  66f3 <transparent_crc>
    e633:	83 7d fc 00          	cmpl   $0x0,-0x4(%rbp)
    e637:	74 16                	je     e64f <main+0x2631>
    e639:	8b 45 f0             	mov    -0x10(%rbp),%eax
    e63c:	89 c6                	mov    %eax,%esi
    e63e:	48 8d 3d dc 1b 00 00 	lea    0x1bdc(%rip),%rdi        # 10221 <g_2179+0x1155>
    e645:	b8 00 00 00 00       	mov    $0x0,%eax
    e64a:	e8 31 6a ff ff       	callq  5080 <printf@plt>
    e64f:	83 45 f0 01          	addl   $0x1,-0x10(%rbp)
    e653:	83 7d f0 06          	cmpl   $0x6,-0x10(%rbp)
    e657:	0f 8e 7b ff ff ff    	jle    e5d8 <main+0x25ba>
    e65d:	c7 45 f0 00 00 00 00 	movl   $0x0,-0x10(%rbp)
    e664:	eb 4f                	jmp    e6b5 <main+0x2697>
    e666:	8b 45 f0             	mov    -0x10(%rbp),%eax
    e669:	48 98                	cltq   
    e66b:	48 8d 14 c5 00 00 00 	lea    0x0(,%rax,8),%rdx
    e672:	00 
    e673:	48 8d 05 66 64 00 00 	lea    0x6466(%rip),%rax        # 14ae0 <g_1932>
    e67a:	48 8b 04 02          	mov    (%rdx,%rax,1),%rax
    e67e:	48 89 c1             	mov    %rax,%rcx
    e681:	8b 45 fc             	mov    -0x4(%rbp),%eax
    e684:	89 c2                	mov    %eax,%edx
    e686:	48 8d 35 fd 23 00 00 	lea    0x23fd(%rip),%rsi        # 10a8a <g_2179+0x19be>
    e68d:	48 89 cf             	mov    %rcx,%rdi
    e690:	e8 5e 80 ff ff       	callq  66f3 <transparent_crc>
    e695:	83 7d fc 00          	cmpl   $0x0,-0x4(%rbp)
    e699:	74 16                	je     e6b1 <main+0x2693>
    e69b:	8b 45 f0             	mov    -0x10(%rbp),%eax
    e69e:	89 c6                	mov    %eax,%esi
    e6a0:	48 8d 3d 7a 1b 00 00 	lea    0x1b7a(%rip),%rdi        # 10221 <g_2179+0x1155>
    e6a7:	b8 00 00 00 00       	mov    $0x0,%eax
    e6ac:	e8 cf 69 ff ff       	callq  5080 <printf@plt>
    e6b1:	83 45 f0 01          	addl   $0x1,-0x10(%rbp)
    e6b5:	83 7d f0 09          	cmpl   $0x9,-0x10(%rbp)
    e6b9:	7e ab                	jle    e666 <main+0x2648>
    e6bb:	48 8b 05 6e 64 00 00 	mov    0x646e(%rip),%rax        # 14b30 <g_1943>
    e6c2:	66 25 ff 0f          	and    $0xfff,%ax
    e6c6:	0f b7 c0             	movzwl %ax,%eax
    e6c9:	8b 55 fc             	mov    -0x4(%rbp),%edx
    e6cc:	48 8d 35 c1 23 00 00 	lea    0x23c1(%rip),%rsi        # 10a94 <g_2179+0x19c8>
    e6d3:	48 89 c7             	mov    %rax,%rdi
    e6d6:	e8 18 80 ff ff       	callq  66f3 <transparent_crc>
    e6db:	8b 05 53 64 00 00    	mov    0x6453(%rip),%eax        # 14b34 <g_1943+0x4>
    e6e1:	48 98                	cltq   
    e6e3:	8b 55 fc             	mov    -0x4(%rbp),%edx
    e6e6:	48 8d 35 b1 23 00 00 	lea    0x23b1(%rip),%rsi        # 10a9e <g_2179+0x19d2>
    e6ed:	48 89 c7             	mov    %rax,%rdi
    e6f0:	e8 fe 7f ff ff       	callq  66f3 <transparent_crc>
    e6f5:	48 8b 05 3c 64 00 00 	mov    0x643c(%rip),%rax        # 14b38 <g_1943+0x8>
    e6fc:	66 25 ff 01          	and    $0x1ff,%ax
    e700:	0f b7 c0             	movzwl %ax,%eax
    e703:	8b 55 fc             	mov    -0x4(%rbp),%edx
    e706:	48 8d 35 9b 23 00 00 	lea    0x239b(%rip),%rsi        # 10aa8 <g_2179+0x19dc>
    e70d:	48 89 c7             	mov    %rax,%rdi
    e710:	e8 de 7f ff ff       	callq  66f3 <transparent_crc>
    e715:	48 8b 05 1c 64 00 00 	mov    0x641c(%rip),%rax        # 14b38 <g_1943+0x8>
    e71c:	48 c1 e8 09          	shr    $0x9,%rax
    e720:	83 e0 7f             	and    $0x7f,%eax
    e723:	0f b6 c0             	movzbl %al,%eax
    e726:	8b 55 fc             	mov    -0x4(%rbp),%edx
    e729:	48 8d 35 82 23 00 00 	lea    0x2382(%rip),%rsi        # 10ab2 <g_2179+0x19e6>
    e730:	48 89 c7             	mov    %rax,%rdi
    e733:	e8 bb 7f ff ff       	callq  66f3 <transparent_crc>
    e738:	0f b7 05 fb 63 00 00 	movzwl 0x63fb(%rip),%eax        # 14b3a <g_1943+0xa>
    e73f:	0f b7 c0             	movzwl %ax,%eax
    e742:	8b 55 fc             	mov    -0x4(%rbp),%edx
    e745:	48 8d 35 70 23 00 00 	lea    0x2370(%rip),%rsi        # 10abc <g_2179+0x19f0>
    e74c:	48 89 c7             	mov    %rax,%rdi
    e74f:	e8 9f 7f ff ff       	callq  66f3 <transparent_crc>
    e754:	0f b7 05 e1 63 00 00 	movzwl 0x63e1(%rip),%eax        # 14b3c <g_1970>
    e75b:	48 0f bf c0          	movswq %ax,%rax
    e75f:	8b 55 fc             	mov    -0x4(%rbp),%edx
    e762:	48 8d 35 5d 23 00 00 	lea    0x235d(%rip),%rsi        # 10ac6 <g_2179+0x19fa>
    e769:	48 89 c7             	mov    %rax,%rdi
    e76c:	e8 82 7f ff ff       	callq  66f3 <transparent_crc>
    e771:	0f b7 05 c8 63 00 00 	movzwl 0x63c8(%rip),%eax        # 14b40 <g_1973>
    e778:	0f b7 c0             	movzwl %ax,%eax
    e77b:	8b 55 fc             	mov    -0x4(%rbp),%edx
    e77e:	48 8d 35 48 23 00 00 	lea    0x2348(%rip),%rsi        # 10acd <g_2179+0x1a01>
    e785:	48 89 c7             	mov    %rax,%rdi
    e788:	e8 66 7f ff ff       	callq  66f3 <transparent_crc>
    e78d:	0f b7 05 ac 63 00 00 	movzwl 0x63ac(%rip),%eax        # 14b40 <g_1973>
    e794:	48 0f bf c0          	movswq %ax,%rax
    e798:	8b 55 fc             	mov    -0x4(%rbp),%edx
    e79b:	48 8d 35 35 23 00 00 	lea    0x2335(%rip),%rsi        # 10ad7 <g_2179+0x1a0b>
    e7a2:	48 89 c7             	mov    %rax,%rdi
    e7a5:	e8 49 7f ff ff       	callq  66f3 <transparent_crc>
    e7aa:	0f b7 05 47 83 00 00 	movzwl 0x8347(%rip),%eax        # 16af8 <g_2003>
    e7b1:	0f b7 c0             	movzwl %ax,%eax
    e7b4:	8b 55 fc             	mov    -0x4(%rbp),%edx
    e7b7:	48 8d 35 23 23 00 00 	lea    0x2323(%rip),%rsi        # 10ae1 <g_2179+0x1a15>
    e7be:	48 89 c7             	mov    %rax,%rdi
    e7c1:	e8 2d 7f ff ff       	callq  66f3 <transparent_crc>
    e7c6:	0f b7 05 2b 83 00 00 	movzwl 0x832b(%rip),%eax        # 16af8 <g_2003>
    e7cd:	48 0f bf c0          	movswq %ax,%rax
    e7d1:	8b 55 fc             	mov    -0x4(%rbp),%edx
    e7d4:	48 8d 35 10 23 00 00 	lea    0x2310(%rip),%rsi        # 10aeb <g_2179+0x1a1f>
    e7db:	48 89 c7             	mov    %rax,%rdi
    e7de:	e8 10 7f ff ff       	callq  66f3 <transparent_crc>
    e7e3:	48 8b 05 5e 63 00 00 	mov    0x635e(%rip),%rax        # 14b48 <g_2010>
    e7ea:	66 25 ff 0f          	and    $0xfff,%ax
    e7ee:	0f b7 c0             	movzwl %ax,%eax
    e7f1:	8b 55 fc             	mov    -0x4(%rbp),%edx
    e7f4:	48 8d 35 fa 22 00 00 	lea    0x22fa(%rip),%rsi        # 10af5 <g_2179+0x1a29>
    e7fb:	48 89 c7             	mov    %rax,%rdi
    e7fe:	e8 f0 7e ff ff       	callq  66f3 <transparent_crc>
    e803:	8b 05 43 63 00 00    	mov    0x6343(%rip),%eax        # 14b4c <g_2010+0x4>
    e809:	48 98                	cltq   
    e80b:	8b 55 fc             	mov    -0x4(%rbp),%edx
    e80e:	48 8d 35 ea 22 00 00 	lea    0x22ea(%rip),%rsi        # 10aff <g_2179+0x1a33>
    e815:	48 89 c7             	mov    %rax,%rdi
    e818:	e8 d6 7e ff ff       	callq  66f3 <transparent_crc>
    e81d:	48 8b 05 2c 63 00 00 	mov    0x632c(%rip),%rax        # 14b50 <g_2010+0x8>
    e824:	66 25 ff 01          	and    $0x1ff,%ax
    e828:	0f b7 c0             	movzwl %ax,%eax
    e82b:	8b 55 fc             	mov    -0x4(%rbp),%edx
    e82e:	48 8d 35 d4 22 00 00 	lea    0x22d4(%rip),%rsi        # 10b09 <g_2179+0x1a3d>
    e835:	48 89 c7             	mov    %rax,%rdi
    e838:	e8 b6 7e ff ff       	callq  66f3 <transparent_crc>
    e83d:	48 8b 05 0c 63 00 00 	mov    0x630c(%rip),%rax        # 14b50 <g_2010+0x8>
    e844:	48 c1 e8 09          	shr    $0x9,%rax
    e848:	83 e0 7f             	and    $0x7f,%eax
    e84b:	0f b6 c0             	movzbl %al,%eax
    e84e:	8b 55 fc             	mov    -0x4(%rbp),%edx
    e851:	48 8d 35 bb 22 00 00 	lea    0x22bb(%rip),%rsi        # 10b13 <g_2179+0x1a47>
    e858:	48 89 c7             	mov    %rax,%rdi
    e85b:	e8 93 7e ff ff       	callq  66f3 <transparent_crc>
    e860:	0f b7 05 eb 62 00 00 	movzwl 0x62eb(%rip),%eax        # 14b52 <g_2010+0xa>
    e867:	0f b7 c0             	movzwl %ax,%eax
    e86a:	8b 55 fc             	mov    -0x4(%rbp),%edx
    e86d:	48 8d 35 a9 22 00 00 	lea    0x22a9(%rip),%rsi        # 10b1d <g_2179+0x1a51>
    e874:	48 89 c7             	mov    %rax,%rdi
    e877:	e8 77 7e ff ff       	callq  66f3 <transparent_crc>
    e87c:	8b 05 d2 62 00 00    	mov    0x62d2(%rip),%eax        # 14b54 <g_2015>
    e882:	48 98                	cltq   
    e884:	8b 55 fc             	mov    -0x4(%rbp),%edx
    e887:	48 8d 35 99 22 00 00 	lea    0x2299(%rip),%rsi        # 10b27 <g_2179+0x1a5b>
    e88e:	48 89 c7             	mov    %rax,%rdi
    e891:	e8 5d 7e ff ff       	callq  66f3 <transparent_crc>
    e896:	0f b7 05 bb 62 00 00 	movzwl 0x62bb(%rip),%eax        # 14b58 <g_2087>
    e89d:	66 25 ff 0f          	and    $0xfff,%ax
    e8a1:	0f b7 c0             	movzwl %ax,%eax
    e8a4:	8b 55 fc             	mov    -0x4(%rbp),%edx
    e8a7:	48 8d 35 80 22 00 00 	lea    0x2280(%rip),%rsi        # 10b2e <g_2179+0x1a62>
    e8ae:	48 89 c7             	mov    %rax,%rdi
    e8b1:	e8 3d 7e ff ff       	callq  66f3 <transparent_crc>
    e8b6:	8b 05 a0 62 00 00    	mov    0x62a0(%rip),%eax        # 14b5c <g_2087+0x4>
    e8bc:	48 98                	cltq   
    e8be:	8b 55 fc             	mov    -0x4(%rbp),%edx
    e8c1:	48 8d 35 70 22 00 00 	lea    0x2270(%rip),%rsi        # 10b38 <g_2179+0x1a6c>
    e8c8:	48 89 c7             	mov    %rax,%rdi
    e8cb:	e8 23 7e ff ff       	callq  66f3 <transparent_crc>
    e8d0:	0f b7 05 89 62 00 00 	movzwl 0x6289(%rip),%eax        # 14b60 <g_2087+0x8>
    e8d7:	66 25 ff 01          	and    $0x1ff,%ax
    e8db:	0f b7 c0             	movzwl %ax,%eax
    e8de:	8b 55 fc             	mov    -0x4(%rbp),%edx
    e8e1:	48 8d 35 5a 22 00 00 	lea    0x225a(%rip),%rsi        # 10b42 <g_2179+0x1a76>
    e8e8:	48 89 c7             	mov    %rax,%rdi
    e8eb:	e8 03 7e ff ff       	callq  66f3 <transparent_crc>
    e8f0:	0f b6 05 6a 62 00 00 	movzbl 0x626a(%rip),%eax        # 14b61 <g_2087+0x9>
    e8f7:	d0 e8                	shr    %al
    e8f9:	0f b6 c0             	movzbl %al,%eax
    e8fc:	8b 55 fc             	mov    -0x4(%rbp),%edx
    e8ff:	48 8d 35 46 22 00 00 	lea    0x2246(%rip),%rsi        # 10b4c <g_2179+0x1a80>
    e906:	48 89 c7             	mov    %rax,%rdi
    e909:	e8 e5 7d ff ff       	callq  66f3 <transparent_crc>
    e90e:	0f b7 05 4d 62 00 00 	movzwl 0x624d(%rip),%eax        # 14b62 <g_2087+0xa>
    e915:	0f b7 c0             	movzwl %ax,%eax
    e918:	8b 55 fc             	mov    -0x4(%rbp),%edx
    e91b:	48 8d 35 34 22 00 00 	lea    0x2234(%rip),%rsi        # 10b56 <g_2179+0x1a8a>
    e922:	48 89 c7             	mov    %rax,%rdi
    e925:	e8 c9 7d ff ff       	callq  66f3 <transparent_crc>
    e92a:	c7 45 f0 00 00 00 00 	movl   $0x0,-0x10(%rbp)
    e931:	eb 72                	jmp    e9a5 <main+0x2987>
    e933:	c7 45 f4 00 00 00 00 	movl   $0x0,-0xc(%rbp)
    e93a:	eb 5f                	jmp    e99b <main+0x297d>
    e93c:	8b 45 f4             	mov    -0xc(%rbp),%eax
    e93f:	48 63 c8             	movslq %eax,%rcx
    e942:	8b 45 f0             	mov    -0x10(%rbp),%eax
    e945:	48 63 d0             	movslq %eax,%rdx
    e948:	48 89 d0             	mov    %rdx,%rax
    e94b:	48 c1 e0 03          	shl    $0x3,%rax
    e94f:	48 01 d0             	add    %rdx,%rax
    e952:	48 8d 14 08          	lea    (%rax,%rcx,1),%rdx
    e956:	48 8d 05 23 62 00 00 	lea    0x6223(%rip),%rax        # 14b80 <g_2096>
    e95d:	48 01 d0             	add    %rdx,%rax
    e960:	0f b6 00             	movzbl (%rax),%eax
    e963:	0f b6 c0             	movzbl %al,%eax
    e966:	8b 55 fc             	mov    -0x4(%rbp),%edx
    e969:	48 8d 35 f0 21 00 00 	lea    0x21f0(%rip),%rsi        # 10b60 <g_2179+0x1a94>
    e970:	48 89 c7             	mov    %rax,%rdi
    e973:	e8 7b 7d ff ff       	callq  66f3 <transparent_crc>
    e978:	83 7d fc 00          	cmpl   $0x0,-0x4(%rbp)
    e97c:	74 19                	je     e997 <main+0x2979>
    e97e:	8b 55 f4             	mov    -0xc(%rbp),%edx
    e981:	8b 45 f0             	mov    -0x10(%rbp),%eax
    e984:	89 c6                	mov    %eax,%esi
    e986:	48 8d 3d 6d 18 00 00 	lea    0x186d(%rip),%rdi        # 101fa <g_2179+0x112e>
    e98d:	b8 00 00 00 00       	mov    $0x0,%eax
    e992:	e8 e9 66 ff ff       	callq  5080 <printf@plt>
    e997:	83 45 f4 01          	addl   $0x1,-0xc(%rbp)
    e99b:	83 7d f4 08          	cmpl   $0x8,-0xc(%rbp)
    e99f:	7e 9b                	jle    e93c <main+0x291e>
    e9a1:	83 45 f0 01          	addl   $0x1,-0x10(%rbp)
    e9a5:	83 7d f0 08          	cmpl   $0x8,-0x10(%rbp)
    e9a9:	7e 88                	jle    e933 <main+0x2915>
    e9ab:	8b 05 23 62 00 00    	mov    0x6223(%rip),%eax        # 14bd4 <g_2102>
    e9b1:	48 98                	cltq   
    e9b3:	8b 55 fc             	mov    -0x4(%rbp),%edx
    e9b6:	48 8d 35 b0 21 00 00 	lea    0x21b0(%rip),%rsi        # 10b6d <g_2179+0x1aa1>
    e9bd:	48 89 c7             	mov    %rax,%rdi
    e9c0:	e8 2e 7d ff ff       	callq  66f3 <transparent_crc>
    e9c5:	8b 05 0d 62 00 00    	mov    0x620d(%rip),%eax        # 14bd8 <g_2152>
    e9cb:	89 c1                	mov    %eax,%ecx
    e9cd:	8b 45 fc             	mov    -0x4(%rbp),%eax
    e9d0:	89 c2                	mov    %eax,%edx
    e9d2:	48 8d 35 9b 21 00 00 	lea    0x219b(%rip),%rsi        # 10b74 <g_2179+0x1aa8>
    e9d9:	48 89 cf             	mov    %rcx,%rdi
    e9dc:	e8 12 7d ff ff       	callq  66f3 <transparent_crc>
    e9e1:	0f b6 05 f4 61 00 00 	movzbl 0x61f4(%rip),%eax        # 14bdc <g_2154>
    e9e8:	48 0f be c0          	movsbq %al,%rax
    e9ec:	8b 55 fc             	mov    -0x4(%rbp),%edx
    e9ef:	48 8d 35 85 21 00 00 	lea    0x2185(%rip),%rsi        # 10b7b <g_2179+0x1aaf>
    e9f6:	48 89 c7             	mov    %rax,%rdi
    e9f9:	e8 f5 7c ff ff       	callq  66f3 <transparent_crc>
    e9fe:	b8 01 00 00 00       	mov    $0x1,%eax
    ea03:	48 0f bf c0          	movswq %ax,%rax
    ea07:	8b 55 fc             	mov    -0x4(%rbp),%edx
    ea0a:	48 8d 35 71 21 00 00 	lea    0x2171(%rip),%rsi        # 10b82 <g_2179+0x1ab6>
    ea11:	48 89 c7             	mov    %rax,%rdi
    ea14:	e8 da 7c ff ff       	callq  66f3 <transparent_crc>
    ea19:	8b 05 dd 80 00 00    	mov    0x80dd(%rip),%eax        # 16afc <g_2211>
    ea1f:	48 98                	cltq   
    ea21:	8b 55 fc             	mov    -0x4(%rbp),%edx
    ea24:	48 8d 35 5e 21 00 00 	lea    0x215e(%rip),%rsi        # 10b89 <g_2179+0x1abd>
    ea2b:	48 89 c7             	mov    %rax,%rdi
    ea2e:	e8 c0 7c ff ff       	callq  66f3 <transparent_crc>
    ea33:	8b 05 e7 55 00 00    	mov    0x55e7(%rip),%eax        # 14020 <crc32_context>
    ea39:	f7 d0                	not    %eax
    ea3b:	89 c2                	mov    %eax,%edx
    ea3d:	8b 45 fc             	mov    -0x4(%rbp),%eax
    ea40:	89 c6                	mov    %eax,%esi
    ea42:	89 d7                	mov    %edx,%edi
    ea44:	e8 4b 67 ff ff       	callq  5194 <platform_main_end>
    ea49:	b8 00 00 00 00       	mov    $0x0,%eax
    ea4e:	c9                   	leaveq 
    ea4f:	c3                   	retq   

000000000000ea50 <__libc_csu_init>:
    ea50:	f3 0f 1e fa          	endbr64 
    ea54:	41 57                	push   %r15
    ea56:	4c 8d 3d 4b 53 00 00 	lea    0x534b(%rip),%r15        # 13da8 <__frame_dummy_init_array_entry>
    ea5d:	41 56                	push   %r14
    ea5f:	49 89 d6             	mov    %rdx,%r14
    ea62:	41 55                	push   %r13
    ea64:	49 89 f5             	mov    %rsi,%r13
    ea67:	41 54                	push   %r12
    ea69:	41 89 fc             	mov    %edi,%r12d
    ea6c:	55                   	push   %rbp
    ea6d:	48 8d 2d 3c 53 00 00 	lea    0x533c(%rip),%rbp        # 13db0 <__do_global_dtors_aux_fini_array_entry>
    ea74:	53                   	push   %rbx
    ea75:	4c 29 fd             	sub    %r15,%rbp
    ea78:	48 83 ec 08          	sub    $0x8,%rsp
    ea7c:	e8 7f 65 ff ff       	callq  5000 <_init>
    ea81:	48 c1 fd 03          	sar    $0x3,%rbp
    ea85:	74 1f                	je     eaa6 <__libc_csu_init+0x56>
    ea87:	31 db                	xor    %ebx,%ebx
    ea89:	0f 1f 80 00 00 00 00 	nopl   0x0(%rax)
    ea90:	4c 89 f2             	mov    %r14,%rdx
    ea93:	4c 89 ee             	mov    %r13,%rsi
    ea96:	44 89 e7             	mov    %r12d,%edi
    ea99:	41 ff 14 df          	callq  *(%r15,%rbx,8)
    ea9d:	48 83 c3 01          	add    $0x1,%rbx
    eaa1:	48 39 dd             	cmp    %rbx,%rbp
    eaa4:	75 ea                	jne    ea90 <__libc_csu_init+0x40>
    eaa6:	48 83 c4 08          	add    $0x8,%rsp
    eaaa:	5b                   	pop    %rbx
    eaab:	5d                   	pop    %rbp
    eaac:	41 5c                	pop    %r12
    eaae:	41 5d                	pop    %r13
    eab0:	41 5e                	pop    %r14
    eab2:	41 5f                	pop    %r15
    eab4:	c3                   	retq   
    eab5:	66 66 2e 0f 1f 84 00 	data16 nopw %cs:0x0(%rax,%rax,1)
    eabc:	00 00 00 00 

000000000000eac0 <__libc_csu_fini>:
    eac0:	f3 0f 1e fa          	endbr64 
    eac4:	c3                   	retq   
