


Disassembly of section .text:

00000000000050a0 <_start>:
    50a0:	f3 0f 1e fa          	endbr64 
    50a4:	31 ed                	xor    %ebp,%ebp
    50a6:	49 89 d1             	mov    %rdx,%r9
    50a9:	5e                   	pop    %rsi
    50aa:	48 89 e2             	mov    %rsp,%rdx
    50ad:	48 83 e4 f0          	and    $0xfffffffffffffff0,%rsp
    50b1:	50                   	push   %rax
    50b2:	54                   	push   %rsp
    50b3:	4c 8d 05 36 db 00 00 	lea    0xdb36(%rip),%r8        # 12bf0 <__libc_csu_fini>
    50ba:	48 8d 0d bf da 00 00 	lea    0xdabf(%rip),%rcx        # 12b80 <__libc_csu_init>
    50c1:	48 8d 3d 36 c6 00 00 	lea    0xc636(%rip),%rdi        # 116fe <main>
    50c8:	ff 15 12 1f 01 00    	callq  *0x11f12(%rip)        # 16fe0 <__libc_start_main@GLIBC_2.2.5>
    50ce:	f4                   	hlt    
    50cf:	90                   	nop

00000000000050d0 <deregister_tm_clones>:
    50d0:	48 8d 3d b9 4a 01 00 	lea    0x14ab9(%rip),%rdi        # 19b90 <__TMC_END__>
    50d7:	48 8d 05 b2 4a 01 00 	lea    0x14ab2(%rip),%rax        # 19b90 <__TMC_END__>
    50de:	48 39 f8             	cmp    %rdi,%rax
    50e1:	74 15                	je     50f8 <deregister_tm_clones+0x28>
    50e3:	48 8b 05 ee 1e 01 00 	mov    0x11eee(%rip),%rax        # 16fd8 <_ITM_deregisterTMCloneTable>
    50ea:	48 85 c0             	test   %rax,%rax
    50ed:	74 09                	je     50f8 <deregister_tm_clones+0x28>
    50ef:	ff e0                	jmpq   *%rax
    50f1:	0f 1f 80 00 00 00 00 	nopl   0x0(%rax)
    50f8:	c3                   	retq   
    50f9:	0f 1f 80 00 00 00 00 	nopl   0x0(%rax)

0000000000005100 <register_tm_clones>:
    5100:	48 8d 3d 89 4a 01 00 	lea    0x14a89(%rip),%rdi        # 19b90 <__TMC_END__>
    5107:	48 8d 35 82 4a 01 00 	lea    0x14a82(%rip),%rsi        # 19b90 <__TMC_END__>
    510e:	48 29 fe             	sub    %rdi,%rsi
    5111:	48 89 f0             	mov    %rsi,%rax
    5114:	48 c1 ee 3f          	shr    $0x3f,%rsi
    5118:	48 c1 f8 03          	sar    $0x3,%rax
    511c:	48 01 c6             	add    %rax,%rsi
    511f:	48 d1 fe             	sar    %rsi
    5122:	74 14                	je     5138 <register_tm_clones+0x38>
    5124:	48 8b 05 c5 1e 01 00 	mov    0x11ec5(%rip),%rax        # 16ff0 <_ITM_registerTMCloneTable>
    512b:	48 85 c0             	test   %rax,%rax
    512e:	74 08                	je     5138 <register_tm_clones+0x38>
    5130:	ff e0                	jmpq   *%rax
    5132:	66 0f 1f 44 00 00    	nopw   0x0(%rax,%rax,1)
    5138:	c3                   	retq   
    5139:	0f 1f 80 00 00 00 00 	nopl   0x0(%rax)

0000000000005140 <__do_global_dtors_aux>:
    5140:	f3 0f 1e fa          	endbr64 
    5144:	80 3d 55 4a 01 00 00 	cmpb   $0x0,0x14a55(%rip)        # 19ba0 <completed.8061>
    514b:	75 2b                	jne    5178 <__do_global_dtors_aux+0x38>
    514d:	55                   	push   %rbp
    514e:	48 83 3d a2 1e 01 00 	cmpq   $0x0,0x11ea2(%rip)        # 16ff8 <__cxa_finalize@GLIBC_2.2.5>
    5155:	00 
    5156:	48 89 e5             	mov    %rsp,%rbp
    5159:	74 0c                	je     5167 <__do_global_dtors_aux+0x27>
    515b:	48 8b 3d a6 1e 01 00 	mov    0x11ea6(%rip),%rdi        # 17008 <__dso_handle>
    5162:	e8 f9 fe ff ff       	callq  5060 <__cxa_finalize@plt>
    5167:	e8 64 ff ff ff       	callq  50d0 <deregister_tm_clones>
    516c:	c6 05 2d 4a 01 00 01 	movb   $0x1,0x14a2d(%rip)        # 19ba0 <completed.8061>
    5173:	5d                   	pop    %rbp
    5174:	c3                   	retq   
    5175:	0f 1f 00             	nopl   (%rax)
    5178:	c3                   	retq   
    5179:	0f 1f 80 00 00 00 00 	nopl   0x0(%rax)

0000000000005180 <frame_dummy>:
    5180:	f3 0f 1e fa          	endbr64 
    5184:	e9 77 ff ff ff       	jmpq   5100 <register_tm_clones>

0000000000005189 <platform_main_begin>:
    5189:	f3 0f 1e fa          	endbr64 
    518d:	55                   	push   %rbp
    518e:	48 89 e5             	mov    %rsp,%rbp
    5191:	90                   	nop
    5192:	5d                   	pop    %rbp
    5193:	c3                   	retq   

0000000000005194 <platform_main_end>:
    5194:	f3 0f 1e fa          	endbr64 
    5198:	55                   	push   %rbp
    5199:	48 89 e5             	mov    %rsp,%rbp
    519c:	48 83 ec 10          	sub    $0x10,%rsp
    51a0:	89 7d fc             	mov    %edi,-0x4(%rbp)
    51a3:	89 75 f8             	mov    %esi,-0x8(%rbp)
    51a6:	8b 45 fc             	mov    -0x4(%rbp),%eax
    51a9:	89 c6                	mov    %eax,%esi
    51ab:	48 8d 3d 6e de 00 00 	lea    0xde6e(%rip),%rdi        # 13020 <_IO_stdin_used+0x20>
    51b2:	b8 00 00 00 00       	mov    $0x0,%eax
    51b7:	e8 c4 fe ff ff       	callq  5080 <printf@plt>
    51bc:	90                   	nop
    51bd:	c9                   	leaveq 
    51be:	c3                   	retq   

00000000000051bf <safe_unary_minus_func_int8_t_s>:
    51bf:	f3 0f 1e fa          	endbr64 
    51c3:	55                   	push   %rbp
    51c4:	48 89 e5             	mov    %rsp,%rbp
    51c7:	89 f8                	mov    %edi,%eax
    51c9:	88 45 fc             	mov    %al,-0x4(%rbp)
    51cc:	0f b6 45 fc          	movzbl -0x4(%rbp),%eax
    51d0:	f7 d8                	neg    %eax
    51d2:	5d                   	pop    %rbp
    51d3:	c3                   	retq   

00000000000051d4 <safe_add_func_int8_t_s_s>:
    51d4:	f3 0f 1e fa          	endbr64 
    51d8:	55                   	push   %rbp
    51d9:	48 89 e5             	mov    %rsp,%rbp
    51dc:	89 fa                	mov    %edi,%edx
    51de:	89 f0                	mov    %esi,%eax
    51e0:	88 55 fc             	mov    %dl,-0x4(%rbp)
    51e3:	88 45 f8             	mov    %al,-0x8(%rbp)
    51e6:	0f b6 55 fc          	movzbl -0x4(%rbp),%edx
    51ea:	0f b6 45 f8          	movzbl -0x8(%rbp),%eax
    51ee:	01 d0                	add    %edx,%eax
    51f0:	5d                   	pop    %rbp
    51f1:	c3                   	retq   

00000000000051f2 <safe_sub_func_int8_t_s_s>:
    51f2:	f3 0f 1e fa          	endbr64 
    51f6:	55                   	push   %rbp
    51f7:	48 89 e5             	mov    %rsp,%rbp
    51fa:	89 fa                	mov    %edi,%edx
    51fc:	89 f0                	mov    %esi,%eax
    51fe:	88 55 fc             	mov    %dl,-0x4(%rbp)
    5201:	88 45 f8             	mov    %al,-0x8(%rbp)
    5204:	0f b6 55 fc          	movzbl -0x4(%rbp),%edx
    5208:	0f b6 45 f8          	movzbl -0x8(%rbp),%eax
    520c:	29 c2                	sub    %eax,%edx
    520e:	89 d0                	mov    %edx,%eax
    5210:	5d                   	pop    %rbp
    5211:	c3                   	retq   

0000000000005212 <safe_mul_func_int8_t_s_s>:
    5212:	f3 0f 1e fa          	endbr64 
    5216:	55                   	push   %rbp
    5217:	48 89 e5             	mov    %rsp,%rbp
    521a:	89 fa                	mov    %edi,%edx
    521c:	89 f0                	mov    %esi,%eax
    521e:	88 55 fc             	mov    %dl,-0x4(%rbp)
    5221:	88 45 f8             	mov    %al,-0x8(%rbp)
    5224:	0f b6 45 fc          	movzbl -0x4(%rbp),%eax
    5228:	0f b6 55 f8          	movzbl -0x8(%rbp),%edx
    522c:	0f af c2             	imul   %edx,%eax
    522f:	5d                   	pop    %rbp
    5230:	c3                   	retq   

0000000000005231 <safe_mod_func_int8_t_s_s>:
    5231:	f3 0f 1e fa          	endbr64 
    5235:	55                   	push   %rbp
    5236:	48 89 e5             	mov    %rsp,%rbp
    5239:	89 fa                	mov    %edi,%edx
    523b:	89 f0                	mov    %esi,%eax
    523d:	88 55 fc             	mov    %dl,-0x4(%rbp)
    5240:	88 45 f8             	mov    %al,-0x8(%rbp)
    5243:	80 7d f8 00          	cmpb   $0x0,-0x8(%rbp)
    5247:	74 1b                	je     5264 <safe_mod_func_int8_t_s_s+0x33>
    5249:	80 7d fc 80          	cmpb   $0x80,-0x4(%rbp)
    524d:	75 06                	jne    5255 <safe_mod_func_int8_t_s_s+0x24>
    524f:	80 7d f8 ff          	cmpb   $0xff,-0x8(%rbp)
    5253:	74 0f                	je     5264 <safe_mod_func_int8_t_s_s+0x33>
    5255:	0f be 45 fc          	movsbl -0x4(%rbp),%eax
    5259:	0f be 4d f8          	movsbl -0x8(%rbp),%ecx
    525d:	99                   	cltd   
    525e:	f7 f9                	idiv   %ecx
    5260:	89 d0                	mov    %edx,%eax
    5262:	eb 04                	jmp    5268 <safe_mod_func_int8_t_s_s+0x37>
    5264:	0f b6 45 fc          	movzbl -0x4(%rbp),%eax
    5268:	5d                   	pop    %rbp
    5269:	c3                   	retq   

000000000000526a <safe_div_func_int8_t_s_s>:
    526a:	f3 0f 1e fa          	endbr64 
    526e:	55                   	push   %rbp
    526f:	48 89 e5             	mov    %rsp,%rbp
    5272:	89 fa                	mov    %edi,%edx
    5274:	89 f0                	mov    %esi,%eax
    5276:	88 55 fc             	mov    %dl,-0x4(%rbp)
    5279:	88 45 f8             	mov    %al,-0x8(%rbp)
    527c:	80 7d f8 00          	cmpb   $0x0,-0x8(%rbp)
    5280:	74 19                	je     529b <safe_div_func_int8_t_s_s+0x31>
    5282:	80 7d fc 80          	cmpb   $0x80,-0x4(%rbp)
    5286:	75 06                	jne    528e <safe_div_func_int8_t_s_s+0x24>
    5288:	80 7d f8 ff          	cmpb   $0xff,-0x8(%rbp)
    528c:	74 0d                	je     529b <safe_div_func_int8_t_s_s+0x31>
    528e:	0f be 45 fc          	movsbl -0x4(%rbp),%eax
    5292:	0f be 4d f8          	movsbl -0x8(%rbp),%ecx
    5296:	99                   	cltd   
    5297:	f7 f9                	idiv   %ecx
    5299:	eb 04                	jmp    529f <safe_div_func_int8_t_s_s+0x35>
    529b:	0f b6 45 fc          	movzbl -0x4(%rbp),%eax
    529f:	5d                   	pop    %rbp
    52a0:	c3                   	retq   

00000000000052a1 <safe_lshift_func_int8_t_s_s>:
    52a1:	f3 0f 1e fa          	endbr64 
    52a5:	55                   	push   %rbp
    52a6:	48 89 e5             	mov    %rsp,%rbp
    52a9:	89 f8                	mov    %edi,%eax
    52ab:	89 75 f8             	mov    %esi,-0x8(%rbp)
    52ae:	88 45 fc             	mov    %al,-0x4(%rbp)
    52b1:	80 7d fc 00          	cmpb   $0x0,-0x4(%rbp)
    52b5:	78 31                	js     52e8 <safe_lshift_func_int8_t_s_s+0x47>
    52b7:	83 7d f8 00          	cmpl   $0x0,-0x8(%rbp)
    52bb:	78 2b                	js     52e8 <safe_lshift_func_int8_t_s_s+0x47>
    52bd:	83 7d f8 1f          	cmpl   $0x1f,-0x8(%rbp)
    52c1:	7f 25                	jg     52e8 <safe_lshift_func_int8_t_s_s+0x47>
    52c3:	0f be 55 fc          	movsbl -0x4(%rbp),%edx
    52c7:	8b 45 f8             	mov    -0x8(%rbp),%eax
    52ca:	be 7f 00 00 00       	mov    $0x7f,%esi
    52cf:	89 c1                	mov    %eax,%ecx
    52d1:	d3 fe                	sar    %cl,%esi
    52d3:	89 f0                	mov    %esi,%eax
    52d5:	39 c2                	cmp    %eax,%edx
    52d7:	7f 0f                	jg     52e8 <safe_lshift_func_int8_t_s_s+0x47>
    52d9:	0f be 55 fc          	movsbl -0x4(%rbp),%edx
    52dd:	8b 45 f8             	mov    -0x8(%rbp),%eax
    52e0:	89 c1                	mov    %eax,%ecx
    52e2:	d3 e2                	shl    %cl,%edx
    52e4:	89 d0                	mov    %edx,%eax
    52e6:	eb 04                	jmp    52ec <safe_lshift_func_int8_t_s_s+0x4b>
    52e8:	0f b6 45 fc          	movzbl -0x4(%rbp),%eax
    52ec:	5d                   	pop    %rbp
    52ed:	c3                   	retq   

00000000000052ee <safe_lshift_func_int8_t_s_u>:
    52ee:	f3 0f 1e fa          	endbr64 
    52f2:	55                   	push   %rbp
    52f3:	48 89 e5             	mov    %rsp,%rbp
    52f6:	89 f8                	mov    %edi,%eax
    52f8:	89 75 f8             	mov    %esi,-0x8(%rbp)
    52fb:	88 45 fc             	mov    %al,-0x4(%rbp)
    52fe:	80 7d fc 00          	cmpb   $0x0,-0x4(%rbp)
    5302:	78 2b                	js     532f <safe_lshift_func_int8_t_s_u+0x41>
    5304:	83 7d f8 1f          	cmpl   $0x1f,-0x8(%rbp)
    5308:	77 25                	ja     532f <safe_lshift_func_int8_t_s_u+0x41>
    530a:	0f be 55 fc          	movsbl -0x4(%rbp),%edx
    530e:	8b 45 f8             	mov    -0x8(%rbp),%eax
    5311:	be 7f 00 00 00       	mov    $0x7f,%esi
    5316:	89 c1                	mov    %eax,%ecx
    5318:	d3 fe                	sar    %cl,%esi
    531a:	89 f0                	mov    %esi,%eax
    531c:	39 c2                	cmp    %eax,%edx
    531e:	7f 0f                	jg     532f <safe_lshift_func_int8_t_s_u+0x41>
    5320:	0f be 55 fc          	movsbl -0x4(%rbp),%edx
    5324:	8b 45 f8             	mov    -0x8(%rbp),%eax
    5327:	89 c1                	mov    %eax,%ecx
    5329:	d3 e2                	shl    %cl,%edx
    532b:	89 d0                	mov    %edx,%eax
    532d:	eb 04                	jmp    5333 <safe_lshift_func_int8_t_s_u+0x45>
    532f:	0f b6 45 fc          	movzbl -0x4(%rbp),%eax
    5333:	5d                   	pop    %rbp
    5334:	c3                   	retq   

0000000000005335 <safe_rshift_func_int8_t_s_s>:
    5335:	f3 0f 1e fa          	endbr64 
    5339:	55                   	push   %rbp
    533a:	48 89 e5             	mov    %rsp,%rbp
    533d:	89 f8                	mov    %edi,%eax
    533f:	89 75 f8             	mov    %esi,-0x8(%rbp)
    5342:	88 45 fc             	mov    %al,-0x4(%rbp)
    5345:	80 7d fc 00          	cmpb   $0x0,-0x4(%rbp)
    5349:	78 1b                	js     5366 <safe_rshift_func_int8_t_s_s+0x31>
    534b:	83 7d f8 00          	cmpl   $0x0,-0x8(%rbp)
    534f:	78 15                	js     5366 <safe_rshift_func_int8_t_s_s+0x31>
    5351:	83 7d f8 1f          	cmpl   $0x1f,-0x8(%rbp)
    5355:	7f 0f                	jg     5366 <safe_rshift_func_int8_t_s_s+0x31>
    5357:	0f be 55 fc          	movsbl -0x4(%rbp),%edx
    535b:	8b 45 f8             	mov    -0x8(%rbp),%eax
    535e:	89 c1                	mov    %eax,%ecx
    5360:	d3 fa                	sar    %cl,%edx
    5362:	89 d0                	mov    %edx,%eax
    5364:	eb 04                	jmp    536a <safe_rshift_func_int8_t_s_s+0x35>
    5366:	0f b6 45 fc          	movzbl -0x4(%rbp),%eax
    536a:	5d                   	pop    %rbp
    536b:	c3                   	retq   

000000000000536c <safe_rshift_func_int8_t_s_u>:
    536c:	f3 0f 1e fa          	endbr64 
    5370:	55                   	push   %rbp
    5371:	48 89 e5             	mov    %rsp,%rbp
    5374:	89 f8                	mov    %edi,%eax
    5376:	89 75 f8             	mov    %esi,-0x8(%rbp)
    5379:	88 45 fc             	mov    %al,-0x4(%rbp)
    537c:	80 7d fc 00          	cmpb   $0x0,-0x4(%rbp)
    5380:	78 15                	js     5397 <safe_rshift_func_int8_t_s_u+0x2b>
    5382:	83 7d f8 1f          	cmpl   $0x1f,-0x8(%rbp)
    5386:	77 0f                	ja     5397 <safe_rshift_func_int8_t_s_u+0x2b>
    5388:	0f be 55 fc          	movsbl -0x4(%rbp),%edx
    538c:	8b 45 f8             	mov    -0x8(%rbp),%eax
    538f:	89 c1                	mov    %eax,%ecx
    5391:	d3 fa                	sar    %cl,%edx
    5393:	89 d0                	mov    %edx,%eax
    5395:	eb 04                	jmp    539b <safe_rshift_func_int8_t_s_u+0x2f>
    5397:	0f b6 45 fc          	movzbl -0x4(%rbp),%eax
    539b:	5d                   	pop    %rbp
    539c:	c3                   	retq   

000000000000539d <safe_unary_minus_func_int16_t_s>:
    539d:	f3 0f 1e fa          	endbr64 
    53a1:	55                   	push   %rbp
    53a2:	48 89 e5             	mov    %rsp,%rbp
    53a5:	89 f8                	mov    %edi,%eax
    53a7:	66 89 45 fc          	mov    %ax,-0x4(%rbp)
    53ab:	0f b7 45 fc          	movzwl -0x4(%rbp),%eax
    53af:	f7 d8                	neg    %eax
    53b1:	5d                   	pop    %rbp
    53b2:	c3                   	retq   

00000000000053b3 <safe_add_func_int16_t_s_s>:
    53b3:	f3 0f 1e fa          	endbr64 
    53b7:	55                   	push   %rbp
    53b8:	48 89 e5             	mov    %rsp,%rbp
    53bb:	89 fa                	mov    %edi,%edx
    53bd:	89 f0                	mov    %esi,%eax
    53bf:	66 89 55 fc          	mov    %dx,-0x4(%rbp)
    53c3:	66 89 45 f8          	mov    %ax,-0x8(%rbp)
    53c7:	0f b7 55 fc          	movzwl -0x4(%rbp),%edx
    53cb:	0f b7 45 f8          	movzwl -0x8(%rbp),%eax
    53cf:	01 d0                	add    %edx,%eax
    53d1:	5d                   	pop    %rbp
    53d2:	c3                   	retq   

00000000000053d3 <safe_sub_func_int16_t_s_s>:
    53d3:	f3 0f 1e fa          	endbr64 
    53d7:	55                   	push   %rbp
    53d8:	48 89 e5             	mov    %rsp,%rbp
    53db:	89 fa                	mov    %edi,%edx
    53dd:	89 f0                	mov    %esi,%eax
    53df:	66 89 55 fc          	mov    %dx,-0x4(%rbp)
    53e3:	66 89 45 f8          	mov    %ax,-0x8(%rbp)
    53e7:	0f b7 55 fc          	movzwl -0x4(%rbp),%edx
    53eb:	0f b7 45 f8          	movzwl -0x8(%rbp),%eax
    53ef:	29 c2                	sub    %eax,%edx
    53f1:	89 d0                	mov    %edx,%eax
    53f3:	5d                   	pop    %rbp
    53f4:	c3                   	retq   

00000000000053f5 <safe_mul_func_int16_t_s_s>:
    53f5:	f3 0f 1e fa          	endbr64 
    53f9:	55                   	push   %rbp
    53fa:	48 89 e5             	mov    %rsp,%rbp
    53fd:	89 fa                	mov    %edi,%edx
    53ff:	89 f0                	mov    %esi,%eax
    5401:	66 89 55 fc          	mov    %dx,-0x4(%rbp)
    5405:	66 89 45 f8          	mov    %ax,-0x8(%rbp)
    5409:	0f b7 55 fc          	movzwl -0x4(%rbp),%edx
    540d:	0f b7 45 f8          	movzwl -0x8(%rbp),%eax
    5411:	0f af c2             	imul   %edx,%eax
    5414:	5d                   	pop    %rbp
    5415:	c3                   	retq   

0000000000005416 <safe_mod_func_int16_t_s_s>:
    5416:	f3 0f 1e fa          	endbr64 
    541a:	55                   	push   %rbp
    541b:	48 89 e5             	mov    %rsp,%rbp
    541e:	89 fa                	mov    %edi,%edx
    5420:	89 f0                	mov    %esi,%eax
    5422:	66 89 55 fc          	mov    %dx,-0x4(%rbp)
    5426:	66 89 45 f8          	mov    %ax,-0x8(%rbp)
    542a:	66 83 7d f8 00       	cmpw   $0x0,-0x8(%rbp)
    542f:	74 1e                	je     544f <safe_mod_func_int16_t_s_s+0x39>
    5431:	66 81 7d fc 00 80    	cmpw   $0x8000,-0x4(%rbp)
    5437:	75 07                	jne    5440 <safe_mod_func_int16_t_s_s+0x2a>
    5439:	66 83 7d f8 ff       	cmpw   $0xffff,-0x8(%rbp)
    543e:	74 0f                	je     544f <safe_mod_func_int16_t_s_s+0x39>
    5440:	0f bf 45 fc          	movswl -0x4(%rbp),%eax
    5444:	0f bf 4d f8          	movswl -0x8(%rbp),%ecx
    5448:	99                   	cltd   
    5449:	f7 f9                	idiv   %ecx
    544b:	89 d0                	mov    %edx,%eax
    544d:	eb 04                	jmp    5453 <safe_mod_func_int16_t_s_s+0x3d>
    544f:	0f b7 45 fc          	movzwl -0x4(%rbp),%eax
    5453:	5d                   	pop    %rbp
    5454:	c3                   	retq   

0000000000005455 <safe_div_func_int16_t_s_s>:
    5455:	f3 0f 1e fa          	endbr64 
    5459:	55                   	push   %rbp
    545a:	48 89 e5             	mov    %rsp,%rbp
    545d:	89 fa                	mov    %edi,%edx
    545f:	89 f0                	mov    %esi,%eax
    5461:	66 89 55 fc          	mov    %dx,-0x4(%rbp)
    5465:	66 89 45 f8          	mov    %ax,-0x8(%rbp)
    5469:	66 83 7d f8 00       	cmpw   $0x0,-0x8(%rbp)
    546e:	74 1c                	je     548c <safe_div_func_int16_t_s_s+0x37>
    5470:	66 81 7d fc 00 80    	cmpw   $0x8000,-0x4(%rbp)
    5476:	75 07                	jne    547f <safe_div_func_int16_t_s_s+0x2a>
    5478:	66 83 7d f8 ff       	cmpw   $0xffff,-0x8(%rbp)
    547d:	74 0d                	je     548c <safe_div_func_int16_t_s_s+0x37>
    547f:	0f bf 45 fc          	movswl -0x4(%rbp),%eax
    5483:	0f bf 4d f8          	movswl -0x8(%rbp),%ecx
    5487:	99                   	cltd   
    5488:	f7 f9                	idiv   %ecx
    548a:	eb 04                	jmp    5490 <safe_div_func_int16_t_s_s+0x3b>
    548c:	0f b7 45 fc          	movzwl -0x4(%rbp),%eax
    5490:	5d                   	pop    %rbp
    5491:	c3                   	retq   

0000000000005492 <safe_lshift_func_int16_t_s_s>:
    5492:	f3 0f 1e fa          	endbr64 
    5496:	55                   	push   %rbp
    5497:	48 89 e5             	mov    %rsp,%rbp
    549a:	89 f8                	mov    %edi,%eax
    549c:	89 75 f8             	mov    %esi,-0x8(%rbp)
    549f:	66 89 45 fc          	mov    %ax,-0x4(%rbp)
    54a3:	66 83 7d fc 00       	cmpw   $0x0,-0x4(%rbp)
    54a8:	78 31                	js     54db <safe_lshift_func_int16_t_s_s+0x49>
    54aa:	83 7d f8 00          	cmpl   $0x0,-0x8(%rbp)
    54ae:	78 2b                	js     54db <safe_lshift_func_int16_t_s_s+0x49>
    54b0:	83 7d f8 1f          	cmpl   $0x1f,-0x8(%rbp)
    54b4:	7f 25                	jg     54db <safe_lshift_func_int16_t_s_s+0x49>
    54b6:	0f bf 55 fc          	movswl -0x4(%rbp),%edx
    54ba:	8b 45 f8             	mov    -0x8(%rbp),%eax
    54bd:	be ff 7f 00 00       	mov    $0x7fff,%esi
    54c2:	89 c1                	mov    %eax,%ecx
    54c4:	d3 fe                	sar    %cl,%esi
    54c6:	89 f0                	mov    %esi,%eax
    54c8:	39 c2                	cmp    %eax,%edx
    54ca:	7f 0f                	jg     54db <safe_lshift_func_int16_t_s_s+0x49>
    54cc:	0f bf 55 fc          	movswl -0x4(%rbp),%edx
    54d0:	8b 45 f8             	mov    -0x8(%rbp),%eax
    54d3:	89 c1                	mov    %eax,%ecx
    54d5:	d3 e2                	shl    %cl,%edx
    54d7:	89 d0                	mov    %edx,%eax
    54d9:	eb 04                	jmp    54df <safe_lshift_func_int16_t_s_s+0x4d>
    54db:	0f b7 45 fc          	movzwl -0x4(%rbp),%eax
    54df:	5d                   	pop    %rbp
    54e0:	c3                   	retq   

00000000000054e1 <safe_lshift_func_int16_t_s_u>:
    54e1:	f3 0f 1e fa          	endbr64 
    54e5:	55                   	push   %rbp
    54e6:	48 89 e5             	mov    %rsp,%rbp
    54e9:	89 f8                	mov    %edi,%eax
    54eb:	89 75 f8             	mov    %esi,-0x8(%rbp)
    54ee:	66 89 45 fc          	mov    %ax,-0x4(%rbp)
    54f2:	66 83 7d fc 00       	cmpw   $0x0,-0x4(%rbp)
    54f7:	78 2b                	js     5524 <safe_lshift_func_int16_t_s_u+0x43>
    54f9:	83 7d f8 1f          	cmpl   $0x1f,-0x8(%rbp)
    54fd:	77 25                	ja     5524 <safe_lshift_func_int16_t_s_u+0x43>
    54ff:	0f bf 55 fc          	movswl -0x4(%rbp),%edx
    5503:	8b 45 f8             	mov    -0x8(%rbp),%eax
    5506:	be ff 7f 00 00       	mov    $0x7fff,%esi
    550b:	89 c1                	mov    %eax,%ecx
    550d:	d3 fe                	sar    %cl,%esi
    550f:	89 f0                	mov    %esi,%eax
    5511:	39 c2                	cmp    %eax,%edx
    5513:	7f 0f                	jg     5524 <safe_lshift_func_int16_t_s_u+0x43>
    5515:	0f bf 55 fc          	movswl -0x4(%rbp),%edx
    5519:	8b 45 f8             	mov    -0x8(%rbp),%eax
    551c:	89 c1                	mov    %eax,%ecx
    551e:	d3 e2                	shl    %cl,%edx
    5520:	89 d0                	mov    %edx,%eax
    5522:	eb 04                	jmp    5528 <safe_lshift_func_int16_t_s_u+0x47>
    5524:	0f b7 45 fc          	movzwl -0x4(%rbp),%eax
    5528:	5d                   	pop    %rbp
    5529:	c3                   	retq   

000000000000552a <safe_rshift_func_int16_t_s_s>:
    552a:	f3 0f 1e fa          	endbr64 
    552e:	55                   	push   %rbp
    552f:	48 89 e5             	mov    %rsp,%rbp
    5532:	89 f8                	mov    %edi,%eax
    5534:	89 75 f8             	mov    %esi,-0x8(%rbp)
    5537:	66 89 45 fc          	mov    %ax,-0x4(%rbp)
    553b:	66 83 7d fc 00       	cmpw   $0x0,-0x4(%rbp)
    5540:	78 1b                	js     555d <safe_rshift_func_int16_t_s_s+0x33>
    5542:	83 7d f8 00          	cmpl   $0x0,-0x8(%rbp)
    5546:	78 15                	js     555d <safe_rshift_func_int16_t_s_s+0x33>
    5548:	83 7d f8 1f          	cmpl   $0x1f,-0x8(%rbp)
    554c:	7f 0f                	jg     555d <safe_rshift_func_int16_t_s_s+0x33>
    554e:	0f bf 55 fc          	movswl -0x4(%rbp),%edx
    5552:	8b 45 f8             	mov    -0x8(%rbp),%eax
    5555:	89 c1                	mov    %eax,%ecx
    5557:	d3 fa                	sar    %cl,%edx
    5559:	89 d0                	mov    %edx,%eax
    555b:	eb 04                	jmp    5561 <safe_rshift_func_int16_t_s_s+0x37>
    555d:	0f b7 45 fc          	movzwl -0x4(%rbp),%eax
    5561:	5d                   	pop    %rbp
    5562:	c3                   	retq   

0000000000005563 <safe_rshift_func_int16_t_s_u>:
    5563:	f3 0f 1e fa          	endbr64 
    5567:	55                   	push   %rbp
    5568:	48 89 e5             	mov    %rsp,%rbp
    556b:	89 f8                	mov    %edi,%eax
    556d:	89 75 f8             	mov    %esi,-0x8(%rbp)
    5570:	66 89 45 fc          	mov    %ax,-0x4(%rbp)
    5574:	66 83 7d fc 00       	cmpw   $0x0,-0x4(%rbp)
    5579:	78 15                	js     5590 <safe_rshift_func_int16_t_s_u+0x2d>
    557b:	83 7d f8 1f          	cmpl   $0x1f,-0x8(%rbp)
    557f:	77 0f                	ja     5590 <safe_rshift_func_int16_t_s_u+0x2d>
    5581:	0f bf 55 fc          	movswl -0x4(%rbp),%edx
    5585:	8b 45 f8             	mov    -0x8(%rbp),%eax
    5588:	89 c1                	mov    %eax,%ecx
    558a:	d3 fa                	sar    %cl,%edx
    558c:	89 d0                	mov    %edx,%eax
    558e:	eb 04                	jmp    5594 <safe_rshift_func_int16_t_s_u+0x31>
    5590:	0f b7 45 fc          	movzwl -0x4(%rbp),%eax
    5594:	5d                   	pop    %rbp
    5595:	c3                   	retq   

0000000000005596 <safe_unary_minus_func_int32_t_s>:
    5596:	f3 0f 1e fa          	endbr64 
    559a:	55                   	push   %rbp
    559b:	48 89 e5             	mov    %rsp,%rbp
    559e:	89 7d fc             	mov    %edi,-0x4(%rbp)
    55a1:	81 7d fc 00 00 00 80 	cmpl   $0x80000000,-0x4(%rbp)
    55a8:	74 07                	je     55b1 <safe_unary_minus_func_int32_t_s+0x1b>
    55aa:	8b 45 fc             	mov    -0x4(%rbp),%eax
    55ad:	f7 d8                	neg    %eax
    55af:	eb 03                	jmp    55b4 <safe_unary_minus_func_int32_t_s+0x1e>
    55b1:	8b 45 fc             	mov    -0x4(%rbp),%eax
    55b4:	5d                   	pop    %rbp
    55b5:	c3                   	retq   

00000000000055b6 <safe_add_func_int32_t_s_s>:
    55b6:	f3 0f 1e fa          	endbr64 
    55ba:	55                   	push   %rbp
    55bb:	48 89 e5             	mov    %rsp,%rbp
    55be:	89 7d fc             	mov    %edi,-0x4(%rbp)
    55c1:	89 75 f8             	mov    %esi,-0x8(%rbp)
    55c4:	83 7d fc 00          	cmpl   $0x0,-0x4(%rbp)
    55c8:	7e 13                	jle    55dd <safe_add_func_int32_t_s_s+0x27>
    55ca:	83 7d f8 00          	cmpl   $0x0,-0x8(%rbp)
    55ce:	7e 0d                	jle    55dd <safe_add_func_int32_t_s_s+0x27>
    55d0:	b8 ff ff ff 7f       	mov    $0x7fffffff,%eax
    55d5:	2b 45 f8             	sub    -0x8(%rbp),%eax
    55d8:	39 45 fc             	cmp    %eax,-0x4(%rbp)
    55db:	7f 23                	jg     5600 <safe_add_func_int32_t_s_s+0x4a>
    55dd:	83 7d fc 00          	cmpl   $0x0,-0x4(%rbp)
    55e1:	79 13                	jns    55f6 <safe_add_func_int32_t_s_s+0x40>
    55e3:	83 7d f8 00          	cmpl   $0x0,-0x8(%rbp)
    55e7:	79 0d                	jns    55f6 <safe_add_func_int32_t_s_s+0x40>
    55e9:	b8 00 00 00 80       	mov    $0x80000000,%eax
    55ee:	2b 45 f8             	sub    -0x8(%rbp),%eax
    55f1:	39 45 fc             	cmp    %eax,-0x4(%rbp)
    55f4:	7c 0a                	jl     5600 <safe_add_func_int32_t_s_s+0x4a>
    55f6:	8b 55 fc             	mov    -0x4(%rbp),%edx
    55f9:	8b 45 f8             	mov    -0x8(%rbp),%eax
    55fc:	01 d0                	add    %edx,%eax
    55fe:	eb 03                	jmp    5603 <safe_add_func_int32_t_s_s+0x4d>
    5600:	8b 45 fc             	mov    -0x4(%rbp),%eax
    5603:	5d                   	pop    %rbp
    5604:	c3                   	retq   

0000000000005605 <safe_sub_func_int32_t_s_s>:
    5605:	f3 0f 1e fa          	endbr64 
    5609:	55                   	push   %rbp
    560a:	48 89 e5             	mov    %rsp,%rbp
    560d:	89 7d fc             	mov    %edi,-0x4(%rbp)
    5610:	89 75 f8             	mov    %esi,-0x8(%rbp)
    5613:	8b 45 fc             	mov    -0x4(%rbp),%eax
    5616:	33 45 f8             	xor    -0x8(%rbp),%eax
    5619:	89 c2                	mov    %eax,%edx
    561b:	8b 45 fc             	mov    -0x4(%rbp),%eax
    561e:	33 45 f8             	xor    -0x8(%rbp),%eax
    5621:	25 00 00 00 80       	and    $0x80000000,%eax
    5626:	33 45 fc             	xor    -0x4(%rbp),%eax
    5629:	2b 45 f8             	sub    -0x8(%rbp),%eax
    562c:	33 45 f8             	xor    -0x8(%rbp),%eax
    562f:	21 d0                	and    %edx,%eax
    5631:	85 c0                	test   %eax,%eax
    5633:	78 08                	js     563d <safe_sub_func_int32_t_s_s+0x38>
    5635:	8b 45 fc             	mov    -0x4(%rbp),%eax
    5638:	2b 45 f8             	sub    -0x8(%rbp),%eax
    563b:	eb 03                	jmp    5640 <safe_sub_func_int32_t_s_s+0x3b>
    563d:	8b 45 fc             	mov    -0x4(%rbp),%eax
    5640:	5d                   	pop    %rbp
    5641:	c3                   	retq   

0000000000005642 <safe_mul_func_int32_t_s_s>:
    5642:	f3 0f 1e fa          	endbr64 
    5646:	55                   	push   %rbp
    5647:	48 89 e5             	mov    %rsp,%rbp
    564a:	89 7d fc             	mov    %edi,-0x4(%rbp)
    564d:	89 75 f8             	mov    %esi,-0x8(%rbp)
    5650:	83 7d fc 00          	cmpl   $0x0,-0x4(%rbp)
    5654:	7e 14                	jle    566a <safe_mul_func_int32_t_s_s+0x28>
    5656:	83 7d f8 00          	cmpl   $0x0,-0x8(%rbp)
    565a:	7e 0e                	jle    566a <safe_mul_func_int32_t_s_s+0x28>
    565c:	b8 ff ff ff 7f       	mov    $0x7fffffff,%eax
    5661:	99                   	cltd   
    5662:	f7 7d f8             	idivl  -0x8(%rbp)
    5665:	39 45 fc             	cmp    %eax,-0x4(%rbp)
    5668:	7f 5d                	jg     56c7 <safe_mul_func_int32_t_s_s+0x85>
    566a:	83 7d fc 00          	cmpl   $0x0,-0x4(%rbp)
    566e:	7e 14                	jle    5684 <safe_mul_func_int32_t_s_s+0x42>
    5670:	83 7d f8 00          	cmpl   $0x0,-0x8(%rbp)
    5674:	7f 0e                	jg     5684 <safe_mul_func_int32_t_s_s+0x42>
    5676:	b8 00 00 00 80       	mov    $0x80000000,%eax
    567b:	99                   	cltd   
    567c:	f7 7d fc             	idivl  -0x4(%rbp)
    567f:	39 45 f8             	cmp    %eax,-0x8(%rbp)
    5682:	7c 43                	jl     56c7 <safe_mul_func_int32_t_s_s+0x85>
    5684:	83 7d fc 00          	cmpl   $0x0,-0x4(%rbp)
    5688:	7f 14                	jg     569e <safe_mul_func_int32_t_s_s+0x5c>
    568a:	83 7d f8 00          	cmpl   $0x0,-0x8(%rbp)
    568e:	7e 0e                	jle    569e <safe_mul_func_int32_t_s_s+0x5c>
    5690:	b8 00 00 00 80       	mov    $0x80000000,%eax
    5695:	99                   	cltd   
    5696:	f7 7d f8             	idivl  -0x8(%rbp)
    5699:	39 45 fc             	cmp    %eax,-0x4(%rbp)
    569c:	7c 29                	jl     56c7 <safe_mul_func_int32_t_s_s+0x85>
    569e:	83 7d fc 00          	cmpl   $0x0,-0x4(%rbp)
    56a2:	7f 1a                	jg     56be <safe_mul_func_int32_t_s_s+0x7c>
    56a4:	83 7d f8 00          	cmpl   $0x0,-0x8(%rbp)
    56a8:	7f 14                	jg     56be <safe_mul_func_int32_t_s_s+0x7c>
    56aa:	83 7d fc 00          	cmpl   $0x0,-0x4(%rbp)
    56ae:	74 0e                	je     56be <safe_mul_func_int32_t_s_s+0x7c>
    56b0:	b8 ff ff ff 7f       	mov    $0x7fffffff,%eax
    56b5:	99                   	cltd   
    56b6:	f7 7d fc             	idivl  -0x4(%rbp)
    56b9:	39 45 f8             	cmp    %eax,-0x8(%rbp)
    56bc:	7c 09                	jl     56c7 <safe_mul_func_int32_t_s_s+0x85>
    56be:	8b 45 fc             	mov    -0x4(%rbp),%eax
    56c1:	0f af 45 f8          	imul   -0x8(%rbp),%eax
    56c5:	eb 03                	jmp    56ca <safe_mul_func_int32_t_s_s+0x88>
    56c7:	8b 45 fc             	mov    -0x4(%rbp),%eax
    56ca:	5d                   	pop    %rbp
    56cb:	c3                   	retq   

00000000000056cc <safe_mod_func_int32_t_s_s>:
    56cc:	f3 0f 1e fa          	endbr64 
    56d0:	55                   	push   %rbp
    56d1:	48 89 e5             	mov    %rsp,%rbp
    56d4:	89 7d fc             	mov    %edi,-0x4(%rbp)
    56d7:	89 75 f8             	mov    %esi,-0x8(%rbp)
    56da:	83 7d f8 00          	cmpl   $0x0,-0x8(%rbp)
    56de:	74 1a                	je     56fa <safe_mod_func_int32_t_s_s+0x2e>
    56e0:	81 7d fc 00 00 00 80 	cmpl   $0x80000000,-0x4(%rbp)
    56e7:	75 06                	jne    56ef <safe_mod_func_int32_t_s_s+0x23>
    56e9:	83 7d f8 ff          	cmpl   $0xffffffff,-0x8(%rbp)
    56ed:	74 0b                	je     56fa <safe_mod_func_int32_t_s_s+0x2e>
    56ef:	8b 45 fc             	mov    -0x4(%rbp),%eax
    56f2:	99                   	cltd   
    56f3:	f7 7d f8             	idivl  -0x8(%rbp)
    56f6:	89 d0                	mov    %edx,%eax
    56f8:	eb 03                	jmp    56fd <safe_mod_func_int32_t_s_s+0x31>
    56fa:	8b 45 fc             	mov    -0x4(%rbp),%eax
    56fd:	5d                   	pop    %rbp
    56fe:	c3                   	retq   

00000000000056ff <safe_div_func_int32_t_s_s>:
    56ff:	f3 0f 1e fa          	endbr64 
    5703:	55                   	push   %rbp
    5704:	48 89 e5             	mov    %rsp,%rbp
    5707:	89 7d fc             	mov    %edi,-0x4(%rbp)
    570a:	89 75 f8             	mov    %esi,-0x8(%rbp)
    570d:	83 7d f8 00          	cmpl   $0x0,-0x8(%rbp)
    5711:	74 18                	je     572b <safe_div_func_int32_t_s_s+0x2c>
    5713:	81 7d fc 00 00 00 80 	cmpl   $0x80000000,-0x4(%rbp)
    571a:	75 06                	jne    5722 <safe_div_func_int32_t_s_s+0x23>
    571c:	83 7d f8 ff          	cmpl   $0xffffffff,-0x8(%rbp)
    5720:	74 09                	je     572b <safe_div_func_int32_t_s_s+0x2c>
    5722:	8b 45 fc             	mov    -0x4(%rbp),%eax
    5725:	99                   	cltd   
    5726:	f7 7d f8             	idivl  -0x8(%rbp)
    5729:	eb 03                	jmp    572e <safe_div_func_int32_t_s_s+0x2f>
    572b:	8b 45 fc             	mov    -0x4(%rbp),%eax
    572e:	5d                   	pop    %rbp
    572f:	c3                   	retq   

0000000000005730 <safe_lshift_func_int32_t_s_s>:
    5730:	f3 0f 1e fa          	endbr64 
    5734:	55                   	push   %rbp
    5735:	48 89 e5             	mov    %rsp,%rbp
    5738:	89 7d fc             	mov    %edi,-0x4(%rbp)
    573b:	89 75 f8             	mov    %esi,-0x8(%rbp)
    573e:	83 7d fc 00          	cmpl   $0x0,-0x4(%rbp)
    5742:	78 2d                	js     5771 <safe_lshift_func_int32_t_s_s+0x41>
    5744:	83 7d f8 00          	cmpl   $0x0,-0x8(%rbp)
    5748:	78 27                	js     5771 <safe_lshift_func_int32_t_s_s+0x41>
    574a:	83 7d f8 1f          	cmpl   $0x1f,-0x8(%rbp)
    574e:	7f 21                	jg     5771 <safe_lshift_func_int32_t_s_s+0x41>
    5750:	8b 45 f8             	mov    -0x8(%rbp),%eax
    5753:	ba ff ff ff 7f       	mov    $0x7fffffff,%edx
    5758:	89 c1                	mov    %eax,%ecx
    575a:	d3 fa                	sar    %cl,%edx
    575c:	89 d0                	mov    %edx,%eax
    575e:	39 45 fc             	cmp    %eax,-0x4(%rbp)
    5761:	7f 0e                	jg     5771 <safe_lshift_func_int32_t_s_s+0x41>
    5763:	8b 45 f8             	mov    -0x8(%rbp),%eax
    5766:	8b 55 fc             	mov    -0x4(%rbp),%edx
    5769:	89 c1                	mov    %eax,%ecx
    576b:	d3 e2                	shl    %cl,%edx
    576d:	89 d0                	mov    %edx,%eax
    576f:	eb 03                	jmp    5774 <safe_lshift_func_int32_t_s_s+0x44>
    5771:	8b 45 fc             	mov    -0x4(%rbp),%eax
    5774:	5d                   	pop    %rbp
    5775:	c3                   	retq   

0000000000005776 <safe_lshift_func_int32_t_s_u>:
    5776:	f3 0f 1e fa          	endbr64 
    577a:	55                   	push   %rbp
    577b:	48 89 e5             	mov    %rsp,%rbp
    577e:	89 7d fc             	mov    %edi,-0x4(%rbp)
    5781:	89 75 f8             	mov    %esi,-0x8(%rbp)
    5784:	83 7d fc 00          	cmpl   $0x0,-0x4(%rbp)
    5788:	78 27                	js     57b1 <safe_lshift_func_int32_t_s_u+0x3b>
    578a:	83 7d f8 1f          	cmpl   $0x1f,-0x8(%rbp)
    578e:	77 21                	ja     57b1 <safe_lshift_func_int32_t_s_u+0x3b>
    5790:	8b 45 f8             	mov    -0x8(%rbp),%eax
    5793:	ba ff ff ff 7f       	mov    $0x7fffffff,%edx
    5798:	89 c1                	mov    %eax,%ecx
    579a:	d3 fa                	sar    %cl,%edx
    579c:	89 d0                	mov    %edx,%eax
    579e:	39 45 fc             	cmp    %eax,-0x4(%rbp)
    57a1:	7f 0e                	jg     57b1 <safe_lshift_func_int32_t_s_u+0x3b>
    57a3:	8b 45 f8             	mov    -0x8(%rbp),%eax
    57a6:	8b 55 fc             	mov    -0x4(%rbp),%edx
    57a9:	89 c1                	mov    %eax,%ecx
    57ab:	d3 e2                	shl    %cl,%edx
    57ad:	89 d0                	mov    %edx,%eax
    57af:	eb 03                	jmp    57b4 <safe_lshift_func_int32_t_s_u+0x3e>
    57b1:	8b 45 fc             	mov    -0x4(%rbp),%eax
    57b4:	5d                   	pop    %rbp
    57b5:	c3                   	retq   

00000000000057b6 <safe_rshift_func_int32_t_s_s>:
    57b6:	f3 0f 1e fa          	endbr64 
    57ba:	55                   	push   %rbp
    57bb:	48 89 e5             	mov    %rsp,%rbp
    57be:	89 7d fc             	mov    %edi,-0x4(%rbp)
    57c1:	89 75 f8             	mov    %esi,-0x8(%rbp)
    57c4:	83 7d fc 00          	cmpl   $0x0,-0x4(%rbp)
    57c8:	78 1a                	js     57e4 <safe_rshift_func_int32_t_s_s+0x2e>
    57ca:	83 7d f8 00          	cmpl   $0x0,-0x8(%rbp)
    57ce:	78 14                	js     57e4 <safe_rshift_func_int32_t_s_s+0x2e>
    57d0:	83 7d f8 1f          	cmpl   $0x1f,-0x8(%rbp)
    57d4:	7f 0e                	jg     57e4 <safe_rshift_func_int32_t_s_s+0x2e>
    57d6:	8b 45 f8             	mov    -0x8(%rbp),%eax
    57d9:	8b 55 fc             	mov    -0x4(%rbp),%edx
    57dc:	89 c1                	mov    %eax,%ecx
    57de:	d3 fa                	sar    %cl,%edx
    57e0:	89 d0                	mov    %edx,%eax
    57e2:	eb 03                	jmp    57e7 <safe_rshift_func_int32_t_s_s+0x31>
    57e4:	8b 45 fc             	mov    -0x4(%rbp),%eax
    57e7:	5d                   	pop    %rbp
    57e8:	c3                   	retq   

00000000000057e9 <safe_rshift_func_int32_t_s_u>:
    57e9:	f3 0f 1e fa          	endbr64 
    57ed:	55                   	push   %rbp
    57ee:	48 89 e5             	mov    %rsp,%rbp
    57f1:	89 7d fc             	mov    %edi,-0x4(%rbp)
    57f4:	89 75 f8             	mov    %esi,-0x8(%rbp)
    57f7:	83 7d fc 00          	cmpl   $0x0,-0x4(%rbp)
    57fb:	78 14                	js     5811 <safe_rshift_func_int32_t_s_u+0x28>
    57fd:	83 7d f8 1f          	cmpl   $0x1f,-0x8(%rbp)
    5801:	77 0e                	ja     5811 <safe_rshift_func_int32_t_s_u+0x28>
    5803:	8b 45 f8             	mov    -0x8(%rbp),%eax
    5806:	8b 55 fc             	mov    -0x4(%rbp),%edx
    5809:	89 c1                	mov    %eax,%ecx
    580b:	d3 fa                	sar    %cl,%edx
    580d:	89 d0                	mov    %edx,%eax
    580f:	eb 03                	jmp    5814 <safe_rshift_func_int32_t_s_u+0x2b>
    5811:	8b 45 fc             	mov    -0x4(%rbp),%eax
    5814:	5d                   	pop    %rbp
    5815:	c3                   	retq   

0000000000005816 <safe_unary_minus_func_int64_t_s>:
    5816:	f3 0f 1e fa          	endbr64 
    581a:	55                   	push   %rbp
    581b:	48 89 e5             	mov    %rsp,%rbp
    581e:	48 89 7d f8          	mov    %rdi,-0x8(%rbp)
    5822:	48 b8 00 00 00 00 00 	movabs $0x8000000000000000,%rax
    5829:	00 00 80 
    582c:	48 39 45 f8          	cmp    %rax,-0x8(%rbp)
    5830:	74 09                	je     583b <safe_unary_minus_func_int64_t_s+0x25>
    5832:	48 8b 45 f8          	mov    -0x8(%rbp),%rax
    5836:	48 f7 d8             	neg    %rax
    5839:	eb 04                	jmp    583f <safe_unary_minus_func_int64_t_s+0x29>
    583b:	48 8b 45 f8          	mov    -0x8(%rbp),%rax
    583f:	5d                   	pop    %rbp
    5840:	c3                   	retq   

0000000000005841 <safe_add_func_int64_t_s_s>:
    5841:	f3 0f 1e fa          	endbr64 
    5845:	55                   	push   %rbp
    5846:	48 89 e5             	mov    %rsp,%rbp
    5849:	48 89 7d f8          	mov    %rdi,-0x8(%rbp)
    584d:	48 89 75 f0          	mov    %rsi,-0x10(%rbp)
    5851:	48 83 7d f8 00       	cmpq   $0x0,-0x8(%rbp)
    5856:	7e 1b                	jle    5873 <safe_add_func_int64_t_s_s+0x32>
    5858:	48 83 7d f0 00       	cmpq   $0x0,-0x10(%rbp)
    585d:	7e 14                	jle    5873 <safe_add_func_int64_t_s_s+0x32>
    585f:	48 b8 ff ff ff ff ff 	movabs $0x7fffffffffffffff,%rax
    5866:	ff ff 7f 
    5869:	48 2b 45 f0          	sub    -0x10(%rbp),%rax
    586d:	48 39 45 f8          	cmp    %rax,-0x8(%rbp)
    5871:	7f 2f                	jg     58a2 <safe_add_func_int64_t_s_s+0x61>
    5873:	48 83 7d f8 00       	cmpq   $0x0,-0x8(%rbp)
    5878:	79 1b                	jns    5895 <safe_add_func_int64_t_s_s+0x54>
    587a:	48 83 7d f0 00       	cmpq   $0x0,-0x10(%rbp)
    587f:	79 14                	jns    5895 <safe_add_func_int64_t_s_s+0x54>
    5881:	48 b8 00 00 00 00 00 	movabs $0x8000000000000000,%rax
    5888:	00 00 80 
    588b:	48 2b 45 f0          	sub    -0x10(%rbp),%rax
    588f:	48 39 45 f8          	cmp    %rax,-0x8(%rbp)
    5893:	7c 0d                	jl     58a2 <safe_add_func_int64_t_s_s+0x61>
    5895:	48 8b 55 f8          	mov    -0x8(%rbp),%rdx
    5899:	48 8b 45 f0          	mov    -0x10(%rbp),%rax
    589d:	48 01 d0             	add    %rdx,%rax
    58a0:	eb 04                	jmp    58a6 <safe_add_func_int64_t_s_s+0x65>
    58a2:	48 8b 45 f8          	mov    -0x8(%rbp),%rax
    58a6:	5d                   	pop    %rbp
    58a7:	c3                   	retq   

00000000000058a8 <safe_sub_func_int64_t_s_s>:
    58a8:	f3 0f 1e fa          	endbr64 
    58ac:	55                   	push   %rbp
    58ad:	48 89 e5             	mov    %rsp,%rbp
    58b0:	48 89 7d f8          	mov    %rdi,-0x8(%rbp)
    58b4:	48 89 75 f0          	mov    %rsi,-0x10(%rbp)
    58b8:	48 8b 45 f8          	mov    -0x8(%rbp),%rax
    58bc:	48 33 45 f0          	xor    -0x10(%rbp),%rax
    58c0:	48 89 c2             	mov    %rax,%rdx
    58c3:	48 8b 45 f8          	mov    -0x8(%rbp),%rax
    58c7:	48 33 45 f0          	xor    -0x10(%rbp),%rax
    58cb:	48 b9 00 00 00 00 00 	movabs $0x8000000000000000,%rcx
    58d2:	00 00 80 
    58d5:	48 21 c8             	and    %rcx,%rax
    58d8:	48 33 45 f8          	xor    -0x8(%rbp),%rax
    58dc:	48 2b 45 f0          	sub    -0x10(%rbp),%rax
    58e0:	48 33 45 f0          	xor    -0x10(%rbp),%rax
    58e4:	48 21 d0             	and    %rdx,%rax
    58e7:	48 85 c0             	test   %rax,%rax
    58ea:	78 0a                	js     58f6 <safe_sub_func_int64_t_s_s+0x4e>
    58ec:	48 8b 45 f8          	mov    -0x8(%rbp),%rax
    58f0:	48 2b 45 f0          	sub    -0x10(%rbp),%rax
    58f4:	eb 04                	jmp    58fa <safe_sub_func_int64_t_s_s+0x52>
    58f6:	48 8b 45 f8          	mov    -0x8(%rbp),%rax
    58fa:	5d                   	pop    %rbp
    58fb:	c3                   	retq   

00000000000058fc <safe_mul_func_int64_t_s_s>:
    58fc:	f3 0f 1e fa          	endbr64 
    5900:	55                   	push   %rbp
    5901:	48 89 e5             	mov    %rsp,%rbp
    5904:	48 89 7d f8          	mov    %rdi,-0x8(%rbp)
    5908:	48 89 75 f0          	mov    %rsi,-0x10(%rbp)
    590c:	48 83 7d f8 00       	cmpq   $0x0,-0x8(%rbp)
    5911:	7e 1d                	jle    5930 <safe_mul_func_int64_t_s_s+0x34>
    5913:	48 83 7d f0 00       	cmpq   $0x0,-0x10(%rbp)
    5918:	7e 16                	jle    5930 <safe_mul_func_int64_t_s_s+0x34>
    591a:	48 b8 ff ff ff ff ff 	movabs $0x7fffffffffffffff,%rax
    5921:	ff ff 7f 
    5924:	48 99                	cqto   
    5926:	48 f7 7d f0          	idivq  -0x10(%rbp)
    592a:	48 39 45 f8          	cmp    %rax,-0x8(%rbp)
    592e:	7f 7e                	jg     59ae <safe_mul_func_int64_t_s_s+0xb2>
    5930:	48 83 7d f8 00       	cmpq   $0x0,-0x8(%rbp)
    5935:	7e 1d                	jle    5954 <safe_mul_func_int64_t_s_s+0x58>
    5937:	48 83 7d f0 00       	cmpq   $0x0,-0x10(%rbp)
    593c:	7f 16                	jg     5954 <safe_mul_func_int64_t_s_s+0x58>
    593e:	48 b8 00 00 00 00 00 	movabs $0x8000000000000000,%rax
    5945:	00 00 80 
    5948:	48 99                	cqto   
    594a:	48 f7 7d f8          	idivq  -0x8(%rbp)
    594e:	48 39 45 f0          	cmp    %rax,-0x10(%rbp)
    5952:	7c 5a                	jl     59ae <safe_mul_func_int64_t_s_s+0xb2>
    5954:	48 83 7d f8 00       	cmpq   $0x0,-0x8(%rbp)
    5959:	7f 1d                	jg     5978 <safe_mul_func_int64_t_s_s+0x7c>
    595b:	48 83 7d f0 00       	cmpq   $0x0,-0x10(%rbp)
    5960:	7e 16                	jle    5978 <safe_mul_func_int64_t_s_s+0x7c>
    5962:	48 b8 00 00 00 00 00 	movabs $0x8000000000000000,%rax
    5969:	00 00 80 
    596c:	48 99                	cqto   
    596e:	48 f7 7d f0          	idivq  -0x10(%rbp)
    5972:	48 39 45 f8          	cmp    %rax,-0x8(%rbp)
    5976:	7c 36                	jl     59ae <safe_mul_func_int64_t_s_s+0xb2>
    5978:	48 83 7d f8 00       	cmpq   $0x0,-0x8(%rbp)
    597d:	7f 24                	jg     59a3 <safe_mul_func_int64_t_s_s+0xa7>
    597f:	48 83 7d f0 00       	cmpq   $0x0,-0x10(%rbp)
    5984:	7f 1d                	jg     59a3 <safe_mul_func_int64_t_s_s+0xa7>
    5986:	48 83 7d f8 00       	cmpq   $0x0,-0x8(%rbp)
    598b:	74 16                	je     59a3 <safe_mul_func_int64_t_s_s+0xa7>
    598d:	48 b8 ff ff ff ff ff 	movabs $0x7fffffffffffffff,%rax
    5994:	ff ff 7f 
    5997:	48 99                	cqto   
    5999:	48 f7 7d f8          	idivq  -0x8(%rbp)
    599d:	48 39 45 f0          	cmp    %rax,-0x10(%rbp)
    59a1:	7c 0b                	jl     59ae <safe_mul_func_int64_t_s_s+0xb2>
    59a3:	48 8b 45 f8          	mov    -0x8(%rbp),%rax
    59a7:	48 0f af 45 f0       	imul   -0x10(%rbp),%rax
    59ac:	eb 04                	jmp    59b2 <safe_mul_func_int64_t_s_s+0xb6>
    59ae:	48 8b 45 f8          	mov    -0x8(%rbp),%rax
    59b2:	5d                   	pop    %rbp
    59b3:	c3                   	retq   

00000000000059b4 <safe_mod_func_int64_t_s_s>:
    59b4:	f3 0f 1e fa          	endbr64 
    59b8:	55                   	push   %rbp
    59b9:	48 89 e5             	mov    %rsp,%rbp
    59bc:	48 89 7d f8          	mov    %rdi,-0x8(%rbp)
    59c0:	48 89 75 f0          	mov    %rsi,-0x10(%rbp)
    59c4:	48 83 7d f0 00       	cmpq   $0x0,-0x10(%rbp)
    59c9:	74 26                	je     59f1 <safe_mod_func_int64_t_s_s+0x3d>
    59cb:	48 b8 00 00 00 00 00 	movabs $0x8000000000000000,%rax
    59d2:	00 00 80 
    59d5:	48 39 45 f8          	cmp    %rax,-0x8(%rbp)
    59d9:	75 07                	jne    59e2 <safe_mod_func_int64_t_s_s+0x2e>
    59db:	48 83 7d f0 ff       	cmpq   $0xffffffffffffffff,-0x10(%rbp)
    59e0:	74 0f                	je     59f1 <safe_mod_func_int64_t_s_s+0x3d>
    59e2:	48 8b 45 f8          	mov    -0x8(%rbp),%rax
    59e6:	48 99                	cqto   
    59e8:	48 f7 7d f0          	idivq  -0x10(%rbp)
    59ec:	48 89 d0             	mov    %rdx,%rax
    59ef:	eb 04                	jmp    59f5 <safe_mod_func_int64_t_s_s+0x41>
    59f1:	48 8b 45 f8          	mov    -0x8(%rbp),%rax
    59f5:	5d                   	pop    %rbp
    59f6:	c3                   	retq   

00000000000059f7 <safe_div_func_int64_t_s_s>:
    59f7:	f3 0f 1e fa          	endbr64 
    59fb:	55                   	push   %rbp
    59fc:	48 89 e5             	mov    %rsp,%rbp
    59ff:	48 89 7d f8          	mov    %rdi,-0x8(%rbp)
    5a03:	48 89 75 f0          	mov    %rsi,-0x10(%rbp)
    5a07:	48 83 7d f0 00       	cmpq   $0x0,-0x10(%rbp)
    5a0c:	74 23                	je     5a31 <safe_div_func_int64_t_s_s+0x3a>
    5a0e:	48 b8 00 00 00 00 00 	movabs $0x8000000000000000,%rax
    5a15:	00 00 80 
    5a18:	48 39 45 f8          	cmp    %rax,-0x8(%rbp)
    5a1c:	75 07                	jne    5a25 <safe_div_func_int64_t_s_s+0x2e>
    5a1e:	48 83 7d f0 ff       	cmpq   $0xffffffffffffffff,-0x10(%rbp)
    5a23:	74 0c                	je     5a31 <safe_div_func_int64_t_s_s+0x3a>
    5a25:	48 8b 45 f8          	mov    -0x8(%rbp),%rax
    5a29:	48 99                	cqto   
    5a2b:	48 f7 7d f0          	idivq  -0x10(%rbp)
    5a2f:	eb 04                	jmp    5a35 <safe_div_func_int64_t_s_s+0x3e>
    5a31:	48 8b 45 f8          	mov    -0x8(%rbp),%rax
    5a35:	5d                   	pop    %rbp
    5a36:	c3                   	retq   

0000000000005a37 <safe_lshift_func_int64_t_s_s>:
    5a37:	f3 0f 1e fa          	endbr64 
    5a3b:	55                   	push   %rbp
    5a3c:	48 89 e5             	mov    %rsp,%rbp
    5a3f:	48 89 7d f8          	mov    %rdi,-0x8(%rbp)
    5a43:	89 75 f4             	mov    %esi,-0xc(%rbp)
    5a46:	48 83 7d f8 00       	cmpq   $0x0,-0x8(%rbp)
    5a4b:	78 38                	js     5a85 <safe_lshift_func_int64_t_s_s+0x4e>
    5a4d:	83 7d f4 00          	cmpl   $0x0,-0xc(%rbp)
    5a51:	78 32                	js     5a85 <safe_lshift_func_int64_t_s_s+0x4e>
    5a53:	83 7d f4 1f          	cmpl   $0x1f,-0xc(%rbp)
    5a57:	7f 2c                	jg     5a85 <safe_lshift_func_int64_t_s_s+0x4e>
    5a59:	8b 45 f4             	mov    -0xc(%rbp),%eax
    5a5c:	48 ba ff ff ff ff ff 	movabs $0x7fffffffffffffff,%rdx
    5a63:	ff ff 7f 
    5a66:	89 c1                	mov    %eax,%ecx
    5a68:	48 d3 fa             	sar    %cl,%rdx
    5a6b:	48 89 d0             	mov    %rdx,%rax
    5a6e:	48 39 45 f8          	cmp    %rax,-0x8(%rbp)
    5a72:	7f 11                	jg     5a85 <safe_lshift_func_int64_t_s_s+0x4e>
    5a74:	8b 45 f4             	mov    -0xc(%rbp),%eax
    5a77:	48 8b 55 f8          	mov    -0x8(%rbp),%rdx
    5a7b:	89 c1                	mov    %eax,%ecx
    5a7d:	48 d3 e2             	shl    %cl,%rdx
    5a80:	48 89 d0             	mov    %rdx,%rax
    5a83:	eb 04                	jmp    5a89 <safe_lshift_func_int64_t_s_s+0x52>
    5a85:	48 8b 45 f8          	mov    -0x8(%rbp),%rax
    5a89:	5d                   	pop    %rbp
    5a8a:	c3                   	retq   

0000000000005a8b <safe_lshift_func_int64_t_s_u>:
    5a8b:	f3 0f 1e fa          	endbr64 
    5a8f:	55                   	push   %rbp
    5a90:	48 89 e5             	mov    %rsp,%rbp
    5a93:	48 89 7d f8          	mov    %rdi,-0x8(%rbp)
    5a97:	89 75 f4             	mov    %esi,-0xc(%rbp)
    5a9a:	48 83 7d f8 00       	cmpq   $0x0,-0x8(%rbp)
    5a9f:	78 32                	js     5ad3 <safe_lshift_func_int64_t_s_u+0x48>
    5aa1:	83 7d f4 1f          	cmpl   $0x1f,-0xc(%rbp)
    5aa5:	77 2c                	ja     5ad3 <safe_lshift_func_int64_t_s_u+0x48>
    5aa7:	8b 45 f4             	mov    -0xc(%rbp),%eax
    5aaa:	48 ba ff ff ff ff ff 	movabs $0x7fffffffffffffff,%rdx
    5ab1:	ff ff 7f 
    5ab4:	89 c1                	mov    %eax,%ecx
    5ab6:	48 d3 fa             	sar    %cl,%rdx
    5ab9:	48 89 d0             	mov    %rdx,%rax
    5abc:	48 39 45 f8          	cmp    %rax,-0x8(%rbp)
    5ac0:	7f 11                	jg     5ad3 <safe_lshift_func_int64_t_s_u+0x48>
    5ac2:	8b 45 f4             	mov    -0xc(%rbp),%eax
    5ac5:	48 8b 55 f8          	mov    -0x8(%rbp),%rdx
    5ac9:	89 c1                	mov    %eax,%ecx
    5acb:	48 d3 e2             	shl    %cl,%rdx
    5ace:	48 89 d0             	mov    %rdx,%rax
    5ad1:	eb 04                	jmp    5ad7 <safe_lshift_func_int64_t_s_u+0x4c>
    5ad3:	48 8b 45 f8          	mov    -0x8(%rbp),%rax
    5ad7:	5d                   	pop    %rbp
    5ad8:	c3                   	retq   

0000000000005ad9 <safe_rshift_func_int64_t_s_s>:
    5ad9:	f3 0f 1e fa          	endbr64 
    5add:	55                   	push   %rbp
    5ade:	48 89 e5             	mov    %rsp,%rbp
    5ae1:	48 89 7d f8          	mov    %rdi,-0x8(%rbp)
    5ae5:	89 75 f4             	mov    %esi,-0xc(%rbp)
    5ae8:	48 83 7d f8 00       	cmpq   $0x0,-0x8(%rbp)
    5aed:	78 1d                	js     5b0c <safe_rshift_func_int64_t_s_s+0x33>
    5aef:	83 7d f4 00          	cmpl   $0x0,-0xc(%rbp)
    5af3:	78 17                	js     5b0c <safe_rshift_func_int64_t_s_s+0x33>
    5af5:	83 7d f4 1f          	cmpl   $0x1f,-0xc(%rbp)
    5af9:	7f 11                	jg     5b0c <safe_rshift_func_int64_t_s_s+0x33>
    5afb:	8b 45 f4             	mov    -0xc(%rbp),%eax
    5afe:	48 8b 55 f8          	mov    -0x8(%rbp),%rdx
    5b02:	89 c1                	mov    %eax,%ecx
    5b04:	48 d3 fa             	sar    %cl,%rdx
    5b07:	48 89 d0             	mov    %rdx,%rax
    5b0a:	eb 04                	jmp    5b10 <safe_rshift_func_int64_t_s_s+0x37>
    5b0c:	48 8b 45 f8          	mov    -0x8(%rbp),%rax
    5b10:	5d                   	pop    %rbp
    5b11:	c3                   	retq   

0000000000005b12 <safe_rshift_func_int64_t_s_u>:
    5b12:	f3 0f 1e fa          	endbr64 
    5b16:	55                   	push   %rbp
    5b17:	48 89 e5             	mov    %rsp,%rbp
    5b1a:	48 89 7d f8          	mov    %rdi,-0x8(%rbp)
    5b1e:	89 75 f4             	mov    %esi,-0xc(%rbp)
    5b21:	48 83 7d f8 00       	cmpq   $0x0,-0x8(%rbp)
    5b26:	78 17                	js     5b3f <safe_rshift_func_int64_t_s_u+0x2d>
    5b28:	83 7d f4 1f          	cmpl   $0x1f,-0xc(%rbp)
    5b2c:	77 11                	ja     5b3f <safe_rshift_func_int64_t_s_u+0x2d>
    5b2e:	8b 45 f4             	mov    -0xc(%rbp),%eax
    5b31:	48 8b 55 f8          	mov    -0x8(%rbp),%rdx
    5b35:	89 c1                	mov    %eax,%ecx
    5b37:	48 d3 fa             	sar    %cl,%rdx
    5b3a:	48 89 d0             	mov    %rdx,%rax
    5b3d:	eb 04                	jmp    5b43 <safe_rshift_func_int64_t_s_u+0x31>
    5b3f:	48 8b 45 f8          	mov    -0x8(%rbp),%rax
    5b43:	5d                   	pop    %rbp
    5b44:	c3                   	retq   

0000000000005b45 <safe_unary_minus_func_uint8_t_u>:
    5b45:	f3 0f 1e fa          	endbr64 
    5b49:	55                   	push   %rbp
    5b4a:	48 89 e5             	mov    %rsp,%rbp
    5b4d:	89 f8                	mov    %edi,%eax
    5b4f:	88 45 fc             	mov    %al,-0x4(%rbp)
    5b52:	0f b6 45 fc          	movzbl -0x4(%rbp),%eax
    5b56:	f7 d8                	neg    %eax
    5b58:	5d                   	pop    %rbp
    5b59:	c3                   	retq   

0000000000005b5a <safe_add_func_uint8_t_u_u>:
    5b5a:	f3 0f 1e fa          	endbr64 
    5b5e:	55                   	push   %rbp
    5b5f:	48 89 e5             	mov    %rsp,%rbp
    5b62:	89 fa                	mov    %edi,%edx
    5b64:	89 f0                	mov    %esi,%eax
    5b66:	88 55 fc             	mov    %dl,-0x4(%rbp)
    5b69:	88 45 f8             	mov    %al,-0x8(%rbp)
    5b6c:	0f b6 55 fc          	movzbl -0x4(%rbp),%edx
    5b70:	0f b6 45 f8          	movzbl -0x8(%rbp),%eax
    5b74:	01 d0                	add    %edx,%eax
    5b76:	5d                   	pop    %rbp
    5b77:	c3                   	retq   

0000000000005b78 <safe_sub_func_uint8_t_u_u>:
    5b78:	f3 0f 1e fa          	endbr64 
    5b7c:	55                   	push   %rbp
    5b7d:	48 89 e5             	mov    %rsp,%rbp
    5b80:	89 fa                	mov    %edi,%edx
    5b82:	89 f0                	mov    %esi,%eax
    5b84:	88 55 fc             	mov    %dl,-0x4(%rbp)
    5b87:	88 45 f8             	mov    %al,-0x8(%rbp)
    5b8a:	0f b6 45 fc          	movzbl -0x4(%rbp),%eax
    5b8e:	2a 45 f8             	sub    -0x8(%rbp),%al
    5b91:	5d                   	pop    %rbp
    5b92:	c3                   	retq   

0000000000005b93 <safe_mul_func_uint8_t_u_u>:
    5b93:	f3 0f 1e fa          	endbr64 
    5b97:	55                   	push   %rbp
    5b98:	48 89 e5             	mov    %rsp,%rbp
    5b9b:	89 fa                	mov    %edi,%edx
    5b9d:	89 f0                	mov    %esi,%eax
    5b9f:	88 55 fc             	mov    %dl,-0x4(%rbp)
    5ba2:	88 45 f8             	mov    %al,-0x8(%rbp)
    5ba5:	0f b6 45 fc          	movzbl -0x4(%rbp),%eax
    5ba9:	f6 65 f8             	mulb   -0x8(%rbp)
    5bac:	5d                   	pop    %rbp
    5bad:	c3                   	retq   

0000000000005bae <safe_mod_func_uint8_t_u_u>:
    5bae:	f3 0f 1e fa          	endbr64 
    5bb2:	55                   	push   %rbp
    5bb3:	48 89 e5             	mov    %rsp,%rbp
    5bb6:	89 fa                	mov    %edi,%edx
    5bb8:	89 f0                	mov    %esi,%eax
    5bba:	88 55 fc             	mov    %dl,-0x4(%rbp)
    5bbd:	88 45 f8             	mov    %al,-0x8(%rbp)
    5bc0:	80 7d f8 00          	cmpb   $0x0,-0x8(%rbp)
    5bc4:	74 0f                	je     5bd5 <safe_mod_func_uint8_t_u_u+0x27>
    5bc6:	0f b6 45 fc          	movzbl -0x4(%rbp),%eax
    5bca:	0f b6 c0             	movzbl %al,%eax
    5bcd:	f6 75 f8             	divb   -0x8(%rbp)
    5bd0:	0f b6 c4             	movzbl %ah,%eax
    5bd3:	eb 04                	jmp    5bd9 <safe_mod_func_uint8_t_u_u+0x2b>
    5bd5:	0f b6 45 fc          	movzbl -0x4(%rbp),%eax
    5bd9:	5d                   	pop    %rbp
    5bda:	c3                   	retq   

0000000000005bdb <safe_div_func_uint8_t_u_u>:
    5bdb:	f3 0f 1e fa          	endbr64 
    5bdf:	55                   	push   %rbp
    5be0:	48 89 e5             	mov    %rsp,%rbp
    5be3:	89 fa                	mov    %edi,%edx
    5be5:	89 f0                	mov    %esi,%eax
    5be7:	88 55 fc             	mov    %dl,-0x4(%rbp)
    5bea:	88 45 f8             	mov    %al,-0x8(%rbp)
    5bed:	80 7d f8 00          	cmpb   $0x0,-0x8(%rbp)
    5bf1:	74 0c                	je     5bff <safe_div_func_uint8_t_u_u+0x24>
    5bf3:	0f b6 45 fc          	movzbl -0x4(%rbp),%eax
    5bf7:	0f b6 c0             	movzbl %al,%eax
    5bfa:	f6 75 f8             	divb   -0x8(%rbp)
    5bfd:	eb 04                	jmp    5c03 <safe_div_func_uint8_t_u_u+0x28>
    5bff:	0f b6 45 fc          	movzbl -0x4(%rbp),%eax
    5c03:	5d                   	pop    %rbp
    5c04:	c3                   	retq   

0000000000005c05 <safe_lshift_func_uint8_t_u_s>:
    5c05:	f3 0f 1e fa          	endbr64 
    5c09:	55                   	push   %rbp
    5c0a:	48 89 e5             	mov    %rsp,%rbp
    5c0d:	89 f8                	mov    %edi,%eax
    5c0f:	89 75 f8             	mov    %esi,-0x8(%rbp)
    5c12:	88 45 fc             	mov    %al,-0x4(%rbp)
    5c15:	83 7d f8 00          	cmpl   $0x0,-0x8(%rbp)
    5c19:	78 2b                	js     5c46 <safe_lshift_func_uint8_t_u_s+0x41>
    5c1b:	83 7d f8 1f          	cmpl   $0x1f,-0x8(%rbp)
    5c1f:	7f 25                	jg     5c46 <safe_lshift_func_uint8_t_u_s+0x41>
    5c21:	0f b6 55 fc          	movzbl -0x4(%rbp),%edx
    5c25:	8b 45 f8             	mov    -0x8(%rbp),%eax
    5c28:	be ff 00 00 00       	mov    $0xff,%esi
    5c2d:	89 c1                	mov    %eax,%ecx
    5c2f:	d3 fe                	sar    %cl,%esi
    5c31:	89 f0                	mov    %esi,%eax
    5c33:	39 c2                	cmp    %eax,%edx
    5c35:	7f 0f                	jg     5c46 <safe_lshift_func_uint8_t_u_s+0x41>
    5c37:	0f b6 55 fc          	movzbl -0x4(%rbp),%edx
    5c3b:	8b 45 f8             	mov    -0x8(%rbp),%eax
    5c3e:	89 c1                	mov    %eax,%ecx
    5c40:	d3 e2                	shl    %cl,%edx
    5c42:	89 d0                	mov    %edx,%eax
    5c44:	eb 04                	jmp    5c4a <safe_lshift_func_uint8_t_u_s+0x45>
    5c46:	0f b6 45 fc          	movzbl -0x4(%rbp),%eax
    5c4a:	5d                   	pop    %rbp
    5c4b:	c3                   	retq   

0000000000005c4c <safe_lshift_func_uint8_t_u_u>:
    5c4c:	f3 0f 1e fa          	endbr64 
    5c50:	55                   	push   %rbp
    5c51:	48 89 e5             	mov    %rsp,%rbp
    5c54:	89 f8                	mov    %edi,%eax
    5c56:	89 75 f8             	mov    %esi,-0x8(%rbp)
    5c59:	88 45 fc             	mov    %al,-0x4(%rbp)
    5c5c:	83 7d f8 1f          	cmpl   $0x1f,-0x8(%rbp)
    5c60:	77 25                	ja     5c87 <safe_lshift_func_uint8_t_u_u+0x3b>
    5c62:	0f b6 55 fc          	movzbl -0x4(%rbp),%edx
    5c66:	8b 45 f8             	mov    -0x8(%rbp),%eax
    5c69:	be ff 00 00 00       	mov    $0xff,%esi
    5c6e:	89 c1                	mov    %eax,%ecx
    5c70:	d3 fe                	sar    %cl,%esi
    5c72:	89 f0                	mov    %esi,%eax
    5c74:	39 c2                	cmp    %eax,%edx
    5c76:	7f 0f                	jg     5c87 <safe_lshift_func_uint8_t_u_u+0x3b>
    5c78:	0f b6 55 fc          	movzbl -0x4(%rbp),%edx
    5c7c:	8b 45 f8             	mov    -0x8(%rbp),%eax
    5c7f:	89 c1                	mov    %eax,%ecx
    5c81:	d3 e2                	shl    %cl,%edx
    5c83:	89 d0                	mov    %edx,%eax
    5c85:	eb 04                	jmp    5c8b <safe_lshift_func_uint8_t_u_u+0x3f>
    5c87:	0f b6 45 fc          	movzbl -0x4(%rbp),%eax
    5c8b:	5d                   	pop    %rbp
    5c8c:	c3                   	retq   

0000000000005c8d <safe_rshift_func_uint8_t_u_s>:
    5c8d:	f3 0f 1e fa          	endbr64 
    5c91:	55                   	push   %rbp
    5c92:	48 89 e5             	mov    %rsp,%rbp
    5c95:	89 f8                	mov    %edi,%eax
    5c97:	89 75 f8             	mov    %esi,-0x8(%rbp)
    5c9a:	88 45 fc             	mov    %al,-0x4(%rbp)
    5c9d:	83 7d f8 00          	cmpl   $0x0,-0x8(%rbp)
    5ca1:	78 15                	js     5cb8 <safe_rshift_func_uint8_t_u_s+0x2b>
    5ca3:	83 7d f8 1f          	cmpl   $0x1f,-0x8(%rbp)
    5ca7:	7f 0f                	jg     5cb8 <safe_rshift_func_uint8_t_u_s+0x2b>
    5ca9:	0f b6 55 fc          	movzbl -0x4(%rbp),%edx
    5cad:	8b 45 f8             	mov    -0x8(%rbp),%eax
    5cb0:	89 c1                	mov    %eax,%ecx
    5cb2:	d3 fa                	sar    %cl,%edx
    5cb4:	89 d0                	mov    %edx,%eax
    5cb6:	eb 04                	jmp    5cbc <safe_rshift_func_uint8_t_u_s+0x2f>
    5cb8:	0f b6 45 fc          	movzbl -0x4(%rbp),%eax
    5cbc:	5d                   	pop    %rbp
    5cbd:	c3                   	retq   

0000000000005cbe <safe_rshift_func_uint8_t_u_u>:
    5cbe:	f3 0f 1e fa          	endbr64 
    5cc2:	55                   	push   %rbp
    5cc3:	48 89 e5             	mov    %rsp,%rbp
    5cc6:	89 f8                	mov    %edi,%eax
    5cc8:	89 75 f8             	mov    %esi,-0x8(%rbp)
    5ccb:	88 45 fc             	mov    %al,-0x4(%rbp)
    5cce:	83 7d f8 1f          	cmpl   $0x1f,-0x8(%rbp)
    5cd2:	77 0f                	ja     5ce3 <safe_rshift_func_uint8_t_u_u+0x25>
    5cd4:	0f b6 55 fc          	movzbl -0x4(%rbp),%edx
    5cd8:	8b 45 f8             	mov    -0x8(%rbp),%eax
    5cdb:	89 c1                	mov    %eax,%ecx
    5cdd:	d3 fa                	sar    %cl,%edx
    5cdf:	89 d0                	mov    %edx,%eax
    5ce1:	eb 04                	jmp    5ce7 <safe_rshift_func_uint8_t_u_u+0x29>
    5ce3:	0f b6 45 fc          	movzbl -0x4(%rbp),%eax
    5ce7:	5d                   	pop    %rbp
    5ce8:	c3                   	retq   

0000000000005ce9 <safe_unary_minus_func_uint16_t_u>:
    5ce9:	f3 0f 1e fa          	endbr64 
    5ced:	55                   	push   %rbp
    5cee:	48 89 e5             	mov    %rsp,%rbp
    5cf1:	89 f8                	mov    %edi,%eax
    5cf3:	66 89 45 fc          	mov    %ax,-0x4(%rbp)
    5cf7:	0f b7 45 fc          	movzwl -0x4(%rbp),%eax
    5cfb:	f7 d8                	neg    %eax
    5cfd:	5d                   	pop    %rbp
    5cfe:	c3                   	retq   

0000000000005cff <safe_add_func_uint16_t_u_u>:
    5cff:	f3 0f 1e fa          	endbr64 
    5d03:	55                   	push   %rbp
    5d04:	48 89 e5             	mov    %rsp,%rbp
    5d07:	89 fa                	mov    %edi,%edx
    5d09:	89 f0                	mov    %esi,%eax
    5d0b:	66 89 55 fc          	mov    %dx,-0x4(%rbp)
    5d0f:	66 89 45 f8          	mov    %ax,-0x8(%rbp)
    5d13:	0f b7 55 fc          	movzwl -0x4(%rbp),%edx
    5d17:	0f b7 45 f8          	movzwl -0x8(%rbp),%eax
    5d1b:	01 d0                	add    %edx,%eax
    5d1d:	5d                   	pop    %rbp
    5d1e:	c3                   	retq   

0000000000005d1f <safe_sub_func_uint16_t_u_u>:
    5d1f:	f3 0f 1e fa          	endbr64 
    5d23:	55                   	push   %rbp
    5d24:	48 89 e5             	mov    %rsp,%rbp
    5d27:	89 fa                	mov    %edi,%edx
    5d29:	89 f0                	mov    %esi,%eax
    5d2b:	66 89 55 fc          	mov    %dx,-0x4(%rbp)
    5d2f:	66 89 45 f8          	mov    %ax,-0x8(%rbp)
    5d33:	0f b7 45 fc          	movzwl -0x4(%rbp),%eax
    5d37:	66 2b 45 f8          	sub    -0x8(%rbp),%ax
    5d3b:	5d                   	pop    %rbp
    5d3c:	c3                   	retq   

0000000000005d3d <safe_mul_func_uint16_t_u_u>:
    5d3d:	f3 0f 1e fa          	endbr64 
    5d41:	55                   	push   %rbp
    5d42:	48 89 e5             	mov    %rsp,%rbp
    5d45:	89 fa                	mov    %edi,%edx
    5d47:	89 f0                	mov    %esi,%eax
    5d49:	66 89 55 fc          	mov    %dx,-0x4(%rbp)
    5d4d:	66 89 45 f8          	mov    %ax,-0x8(%rbp)
    5d51:	0f b7 45 fc          	movzwl -0x4(%rbp),%eax
    5d55:	66 0f af 45 f8       	imul   -0x8(%rbp),%ax
    5d5a:	5d                   	pop    %rbp
    5d5b:	c3                   	retq   

0000000000005d5c <safe_mod_func_uint16_t_u_u>:
    5d5c:	f3 0f 1e fa          	endbr64 
    5d60:	55                   	push   %rbp
    5d61:	48 89 e5             	mov    %rsp,%rbp
    5d64:	89 fa                	mov    %edi,%edx
    5d66:	89 f0                	mov    %esi,%eax
    5d68:	66 89 55 fc          	mov    %dx,-0x4(%rbp)
    5d6c:	66 89 45 f8          	mov    %ax,-0x8(%rbp)
    5d70:	66 83 7d f8 00       	cmpw   $0x0,-0x8(%rbp)
    5d75:	74 11                	je     5d88 <safe_mod_func_uint16_t_u_u+0x2c>
    5d77:	0f b7 45 fc          	movzwl -0x4(%rbp),%eax
    5d7b:	ba 00 00 00 00       	mov    $0x0,%edx
    5d80:	66 f7 75 f8          	divw   -0x8(%rbp)
    5d84:	89 d0                	mov    %edx,%eax
    5d86:	eb 04                	jmp    5d8c <safe_mod_func_uint16_t_u_u+0x30>
    5d88:	0f b7 45 fc          	movzwl -0x4(%rbp),%eax
    5d8c:	5d                   	pop    %rbp
    5d8d:	c3                   	retq   

0000000000005d8e <safe_div_func_uint16_t_u_u>:
    5d8e:	f3 0f 1e fa          	endbr64 
    5d92:	55                   	push   %rbp
    5d93:	48 89 e5             	mov    %rsp,%rbp
    5d96:	89 fa                	mov    %edi,%edx
    5d98:	89 f0                	mov    %esi,%eax
    5d9a:	66 89 55 fc          	mov    %dx,-0x4(%rbp)
    5d9e:	66 89 45 f8          	mov    %ax,-0x8(%rbp)
    5da2:	66 83 7d f8 00       	cmpw   $0x0,-0x8(%rbp)
    5da7:	74 0f                	je     5db8 <safe_div_func_uint16_t_u_u+0x2a>
    5da9:	0f b7 45 fc          	movzwl -0x4(%rbp),%eax
    5dad:	ba 00 00 00 00       	mov    $0x0,%edx
    5db2:	66 f7 75 f8          	divw   -0x8(%rbp)
    5db6:	eb 04                	jmp    5dbc <safe_div_func_uint16_t_u_u+0x2e>
    5db8:	0f b7 45 fc          	movzwl -0x4(%rbp),%eax
    5dbc:	5d                   	pop    %rbp
    5dbd:	c3                   	retq   

0000000000005dbe <safe_lshift_func_uint16_t_u_s>:
    5dbe:	f3 0f 1e fa          	endbr64 
    5dc2:	55                   	push   %rbp
    5dc3:	48 89 e5             	mov    %rsp,%rbp
    5dc6:	89 f8                	mov    %edi,%eax
    5dc8:	89 75 f8             	mov    %esi,-0x8(%rbp)
    5dcb:	66 89 45 fc          	mov    %ax,-0x4(%rbp)
    5dcf:	83 7d f8 00          	cmpl   $0x0,-0x8(%rbp)
    5dd3:	78 2b                	js     5e00 <safe_lshift_func_uint16_t_u_s+0x42>
    5dd5:	83 7d f8 1f          	cmpl   $0x1f,-0x8(%rbp)
    5dd9:	7f 25                	jg     5e00 <safe_lshift_func_uint16_t_u_s+0x42>
    5ddb:	0f b7 55 fc          	movzwl -0x4(%rbp),%edx
    5ddf:	8b 45 f8             	mov    -0x8(%rbp),%eax
    5de2:	be ff ff 00 00       	mov    $0xffff,%esi
    5de7:	89 c1                	mov    %eax,%ecx
    5de9:	d3 fe                	sar    %cl,%esi
    5deb:	89 f0                	mov    %esi,%eax
    5ded:	39 c2                	cmp    %eax,%edx
    5def:	7f 0f                	jg     5e00 <safe_lshift_func_uint16_t_u_s+0x42>
    5df1:	0f b7 55 fc          	movzwl -0x4(%rbp),%edx
    5df5:	8b 45 f8             	mov    -0x8(%rbp),%eax
    5df8:	89 c1                	mov    %eax,%ecx
    5dfa:	d3 e2                	shl    %cl,%edx
    5dfc:	89 d0                	mov    %edx,%eax
    5dfe:	eb 04                	jmp    5e04 <safe_lshift_func_uint16_t_u_s+0x46>
    5e00:	0f b7 45 fc          	movzwl -0x4(%rbp),%eax
    5e04:	5d                   	pop    %rbp
    5e05:	c3                   	retq   

0000000000005e06 <safe_lshift_func_uint16_t_u_u>:
    5e06:	f3 0f 1e fa          	endbr64 
    5e0a:	55                   	push   %rbp
    5e0b:	48 89 e5             	mov    %rsp,%rbp
    5e0e:	89 f8                	mov    %edi,%eax
    5e10:	89 75 f8             	mov    %esi,-0x8(%rbp)
    5e13:	66 89 45 fc          	mov    %ax,-0x4(%rbp)
    5e17:	83 7d f8 1f          	cmpl   $0x1f,-0x8(%rbp)
    5e1b:	77 25                	ja     5e42 <safe_lshift_func_uint16_t_u_u+0x3c>
    5e1d:	0f b7 55 fc          	movzwl -0x4(%rbp),%edx
    5e21:	8b 45 f8             	mov    -0x8(%rbp),%eax
    5e24:	be ff ff 00 00       	mov    $0xffff,%esi
    5e29:	89 c1                	mov    %eax,%ecx
    5e2b:	d3 fe                	sar    %cl,%esi
    5e2d:	89 f0                	mov    %esi,%eax
    5e2f:	39 c2                	cmp    %eax,%edx
    5e31:	7f 0f                	jg     5e42 <safe_lshift_func_uint16_t_u_u+0x3c>
    5e33:	0f b7 55 fc          	movzwl -0x4(%rbp),%edx
    5e37:	8b 45 f8             	mov    -0x8(%rbp),%eax
    5e3a:	89 c1                	mov    %eax,%ecx
    5e3c:	d3 e2                	shl    %cl,%edx
    5e3e:	89 d0                	mov    %edx,%eax
    5e40:	eb 04                	jmp    5e46 <safe_lshift_func_uint16_t_u_u+0x40>
    5e42:	0f b7 45 fc          	movzwl -0x4(%rbp),%eax
    5e46:	5d                   	pop    %rbp
    5e47:	c3                   	retq   

0000000000005e48 <safe_rshift_func_uint16_t_u_s>:
    5e48:	f3 0f 1e fa          	endbr64 
    5e4c:	55                   	push   %rbp
    5e4d:	48 89 e5             	mov    %rsp,%rbp
    5e50:	89 f8                	mov    %edi,%eax
    5e52:	89 75 f8             	mov    %esi,-0x8(%rbp)
    5e55:	66 89 45 fc          	mov    %ax,-0x4(%rbp)
    5e59:	83 7d f8 00          	cmpl   $0x0,-0x8(%rbp)
    5e5d:	78 15                	js     5e74 <safe_rshift_func_uint16_t_u_s+0x2c>
    5e5f:	83 7d f8 1f          	cmpl   $0x1f,-0x8(%rbp)
    5e63:	7f 0f                	jg     5e74 <safe_rshift_func_uint16_t_u_s+0x2c>
    5e65:	0f b7 55 fc          	movzwl -0x4(%rbp),%edx
    5e69:	8b 45 f8             	mov    -0x8(%rbp),%eax
    5e6c:	89 c1                	mov    %eax,%ecx
    5e6e:	d3 fa                	sar    %cl,%edx
    5e70:	89 d0                	mov    %edx,%eax
    5e72:	eb 04                	jmp    5e78 <safe_rshift_func_uint16_t_u_s+0x30>
    5e74:	0f b7 45 fc          	movzwl -0x4(%rbp),%eax
    5e78:	5d                   	pop    %rbp
    5e79:	c3                   	retq   

0000000000005e7a <safe_rshift_func_uint16_t_u_u>:
    5e7a:	f3 0f 1e fa          	endbr64 
    5e7e:	55                   	push   %rbp
    5e7f:	48 89 e5             	mov    %rsp,%rbp
    5e82:	89 f8                	mov    %edi,%eax
    5e84:	89 75 f8             	mov    %esi,-0x8(%rbp)
    5e87:	66 89 45 fc          	mov    %ax,-0x4(%rbp)
    5e8b:	83 7d f8 1f          	cmpl   $0x1f,-0x8(%rbp)
    5e8f:	77 0f                	ja     5ea0 <safe_rshift_func_uint16_t_u_u+0x26>
    5e91:	0f b7 55 fc          	movzwl -0x4(%rbp),%edx
    5e95:	8b 45 f8             	mov    -0x8(%rbp),%eax
    5e98:	89 c1                	mov    %eax,%ecx
    5e9a:	d3 fa                	sar    %cl,%edx
    5e9c:	89 d0                	mov    %edx,%eax
    5e9e:	eb 04                	jmp    5ea4 <safe_rshift_func_uint16_t_u_u+0x2a>
    5ea0:	0f b7 45 fc          	movzwl -0x4(%rbp),%eax
    5ea4:	5d                   	pop    %rbp
    5ea5:	c3                   	retq   

0000000000005ea6 <safe_unary_minus_func_uint32_t_u>:
    5ea6:	f3 0f 1e fa          	endbr64 
    5eaa:	55                   	push   %rbp
    5eab:	48 89 e5             	mov    %rsp,%rbp
    5eae:	89 7d fc             	mov    %edi,-0x4(%rbp)
    5eb1:	8b 45 fc             	mov    -0x4(%rbp),%eax
    5eb4:	f7 d8                	neg    %eax
    5eb6:	5d                   	pop    %rbp
    5eb7:	c3                   	retq   

0000000000005eb8 <safe_add_func_uint32_t_u_u>:
    5eb8:	f3 0f 1e fa          	endbr64 
    5ebc:	55                   	push   %rbp
    5ebd:	48 89 e5             	mov    %rsp,%rbp
    5ec0:	89 7d fc             	mov    %edi,-0x4(%rbp)
    5ec3:	89 75 f8             	mov    %esi,-0x8(%rbp)
    5ec6:	8b 55 fc             	mov    -0x4(%rbp),%edx
    5ec9:	8b 45 f8             	mov    -0x8(%rbp),%eax
    5ecc:	01 d0                	add    %edx,%eax
    5ece:	5d                   	pop    %rbp
    5ecf:	c3                   	retq   

0000000000005ed0 <safe_sub_func_uint32_t_u_u>:
    5ed0:	f3 0f 1e fa          	endbr64 
    5ed4:	55                   	push   %rbp
    5ed5:	48 89 e5             	mov    %rsp,%rbp
    5ed8:	89 7d fc             	mov    %edi,-0x4(%rbp)
    5edb:	89 75 f8             	mov    %esi,-0x8(%rbp)
    5ede:	8b 45 fc             	mov    -0x4(%rbp),%eax
    5ee1:	2b 45 f8             	sub    -0x8(%rbp),%eax
    5ee4:	5d                   	pop    %rbp
    5ee5:	c3                   	retq   

0000000000005ee6 <safe_mul_func_uint32_t_u_u>:
    5ee6:	f3 0f 1e fa          	endbr64 
    5eea:	55                   	push   %rbp
    5eeb:	48 89 e5             	mov    %rsp,%rbp
    5eee:	89 7d fc             	mov    %edi,-0x4(%rbp)
    5ef1:	89 75 f8             	mov    %esi,-0x8(%rbp)
    5ef4:	8b 45 fc             	mov    -0x4(%rbp),%eax
    5ef7:	0f af 45 f8          	imul   -0x8(%rbp),%eax
    5efb:	5d                   	pop    %rbp
    5efc:	c3                   	retq   

0000000000005efd <safe_mod_func_uint32_t_u_u>:
    5efd:	f3 0f 1e fa          	endbr64 
    5f01:	55                   	push   %rbp
    5f02:	48 89 e5             	mov    %rsp,%rbp
    5f05:	89 7d fc             	mov    %edi,-0x4(%rbp)
    5f08:	89 75 f8             	mov    %esi,-0x8(%rbp)
    5f0b:	83 7d f8 00          	cmpl   $0x0,-0x8(%rbp)
    5f0f:	74 0f                	je     5f20 <safe_mod_func_uint32_t_u_u+0x23>
    5f11:	8b 45 fc             	mov    -0x4(%rbp),%eax
    5f14:	ba 00 00 00 00       	mov    $0x0,%edx
    5f19:	f7 75 f8             	divl   -0x8(%rbp)
    5f1c:	89 d0                	mov    %edx,%eax
    5f1e:	eb 03                	jmp    5f23 <safe_mod_func_uint32_t_u_u+0x26>
    5f20:	8b 45 fc             	mov    -0x4(%rbp),%eax
    5f23:	5d                   	pop    %rbp
    5f24:	c3                   	retq   

0000000000005f25 <safe_div_func_uint32_t_u_u>:
    5f25:	f3 0f 1e fa          	endbr64 
    5f29:	55                   	push   %rbp
    5f2a:	48 89 e5             	mov    %rsp,%rbp
    5f2d:	89 7d fc             	mov    %edi,-0x4(%rbp)
    5f30:	89 75 f8             	mov    %esi,-0x8(%rbp)
    5f33:	83 7d f8 00          	cmpl   $0x0,-0x8(%rbp)
    5f37:	74 0d                	je     5f46 <safe_div_func_uint32_t_u_u+0x21>
    5f39:	8b 45 fc             	mov    -0x4(%rbp),%eax
    5f3c:	ba 00 00 00 00       	mov    $0x0,%edx
    5f41:	f7 75 f8             	divl   -0x8(%rbp)
    5f44:	eb 03                	jmp    5f49 <safe_div_func_uint32_t_u_u+0x24>
    5f46:	8b 45 fc             	mov    -0x4(%rbp),%eax
    5f49:	5d                   	pop    %rbp
    5f4a:	c3                   	retq   

0000000000005f4b <safe_lshift_func_uint32_t_u_s>:
    5f4b:	f3 0f 1e fa          	endbr64 
    5f4f:	55                   	push   %rbp
    5f50:	48 89 e5             	mov    %rsp,%rbp
    5f53:	89 7d fc             	mov    %edi,-0x4(%rbp)
    5f56:	89 75 f8             	mov    %esi,-0x8(%rbp)
    5f59:	83 7d f8 00          	cmpl   $0x0,-0x8(%rbp)
    5f5d:	78 27                	js     5f86 <safe_lshift_func_uint32_t_u_s+0x3b>
    5f5f:	83 7d f8 1f          	cmpl   $0x1f,-0x8(%rbp)
    5f63:	7f 21                	jg     5f86 <safe_lshift_func_uint32_t_u_s+0x3b>
    5f65:	8b 45 f8             	mov    -0x8(%rbp),%eax
    5f68:	ba ff ff ff ff       	mov    $0xffffffff,%edx
    5f6d:	89 c1                	mov    %eax,%ecx
    5f6f:	d3 ea                	shr    %cl,%edx
    5f71:	89 d0                	mov    %edx,%eax
    5f73:	39 45 fc             	cmp    %eax,-0x4(%rbp)
    5f76:	77 0e                	ja     5f86 <safe_lshift_func_uint32_t_u_s+0x3b>
    5f78:	8b 45 f8             	mov    -0x8(%rbp),%eax
    5f7b:	8b 55 fc             	mov    -0x4(%rbp),%edx
    5f7e:	89 c1                	mov    %eax,%ecx
    5f80:	d3 e2                	shl    %cl,%edx
    5f82:	89 d0                	mov    %edx,%eax
    5f84:	eb 03                	jmp    5f89 <safe_lshift_func_uint32_t_u_s+0x3e>
    5f86:	8b 45 fc             	mov    -0x4(%rbp),%eax
    5f89:	5d                   	pop    %rbp
    5f8a:	c3                   	retq   

0000000000005f8b <safe_lshift_func_uint32_t_u_u>:
    5f8b:	f3 0f 1e fa          	endbr64 
    5f8f:	55                   	push   %rbp
    5f90:	48 89 e5             	mov    %rsp,%rbp
    5f93:	89 7d fc             	mov    %edi,-0x4(%rbp)
    5f96:	89 75 f8             	mov    %esi,-0x8(%rbp)
    5f99:	83 7d f8 1f          	cmpl   $0x1f,-0x8(%rbp)
    5f9d:	77 21                	ja     5fc0 <safe_lshift_func_uint32_t_u_u+0x35>
    5f9f:	8b 45 f8             	mov    -0x8(%rbp),%eax
    5fa2:	ba ff ff ff ff       	mov    $0xffffffff,%edx
    5fa7:	89 c1                	mov    %eax,%ecx
    5fa9:	d3 ea                	shr    %cl,%edx
    5fab:	89 d0                	mov    %edx,%eax
    5fad:	39 45 fc             	cmp    %eax,-0x4(%rbp)
    5fb0:	77 0e                	ja     5fc0 <safe_lshift_func_uint32_t_u_u+0x35>
    5fb2:	8b 45 f8             	mov    -0x8(%rbp),%eax
    5fb5:	8b 55 fc             	mov    -0x4(%rbp),%edx
    5fb8:	89 c1                	mov    %eax,%ecx
    5fba:	d3 e2                	shl    %cl,%edx
    5fbc:	89 d0                	mov    %edx,%eax
    5fbe:	eb 03                	jmp    5fc3 <safe_lshift_func_uint32_t_u_u+0x38>
    5fc0:	8b 45 fc             	mov    -0x4(%rbp),%eax
    5fc3:	5d                   	pop    %rbp
    5fc4:	c3                   	retq   

0000000000005fc5 <safe_rshift_func_uint32_t_u_s>:
    5fc5:	f3 0f 1e fa          	endbr64 
    5fc9:	55                   	push   %rbp
    5fca:	48 89 e5             	mov    %rsp,%rbp
    5fcd:	89 7d fc             	mov    %edi,-0x4(%rbp)
    5fd0:	89 75 f8             	mov    %esi,-0x8(%rbp)
    5fd3:	83 7d f8 00          	cmpl   $0x0,-0x8(%rbp)
    5fd7:	78 14                	js     5fed <safe_rshift_func_uint32_t_u_s+0x28>
    5fd9:	83 7d f8 1f          	cmpl   $0x1f,-0x8(%rbp)
    5fdd:	7f 0e                	jg     5fed <safe_rshift_func_uint32_t_u_s+0x28>
    5fdf:	8b 45 f8             	mov    -0x8(%rbp),%eax
    5fe2:	8b 55 fc             	mov    -0x4(%rbp),%edx
    5fe5:	89 c1                	mov    %eax,%ecx
    5fe7:	d3 ea                	shr    %cl,%edx
    5fe9:	89 d0                	mov    %edx,%eax
    5feb:	eb 03                	jmp    5ff0 <safe_rshift_func_uint32_t_u_s+0x2b>
    5fed:	8b 45 fc             	mov    -0x4(%rbp),%eax
    5ff0:	5d                   	pop    %rbp
    5ff1:	c3                   	retq   

0000000000005ff2 <safe_rshift_func_uint32_t_u_u>:
    5ff2:	f3 0f 1e fa          	endbr64 
    5ff6:	55                   	push   %rbp
    5ff7:	48 89 e5             	mov    %rsp,%rbp
    5ffa:	89 7d fc             	mov    %edi,-0x4(%rbp)
    5ffd:	89 75 f8             	mov    %esi,-0x8(%rbp)
    6000:	83 7d f8 1f          	cmpl   $0x1f,-0x8(%rbp)
    6004:	77 0e                	ja     6014 <safe_rshift_func_uint32_t_u_u+0x22>
    6006:	8b 45 f8             	mov    -0x8(%rbp),%eax
    6009:	8b 55 fc             	mov    -0x4(%rbp),%edx
    600c:	89 c1                	mov    %eax,%ecx
    600e:	d3 ea                	shr    %cl,%edx
    6010:	89 d0                	mov    %edx,%eax
    6012:	eb 03                	jmp    6017 <safe_rshift_func_uint32_t_u_u+0x25>
    6014:	8b 45 fc             	mov    -0x4(%rbp),%eax
    6017:	5d                   	pop    %rbp
    6018:	c3                   	retq   

0000000000006019 <safe_unary_minus_func_uint64_t_u>:
    6019:	f3 0f 1e fa          	endbr64 
    601d:	55                   	push   %rbp
    601e:	48 89 e5             	mov    %rsp,%rbp
    6021:	48 89 7d f8          	mov    %rdi,-0x8(%rbp)
    6025:	48 8b 45 f8          	mov    -0x8(%rbp),%rax
    6029:	48 f7 d8             	neg    %rax
    602c:	5d                   	pop    %rbp
    602d:	c3                   	retq   

000000000000602e <safe_add_func_uint64_t_u_u>:
    602e:	f3 0f 1e fa          	endbr64 
    6032:	55                   	push   %rbp
    6033:	48 89 e5             	mov    %rsp,%rbp
    6036:	48 89 7d f8          	mov    %rdi,-0x8(%rbp)
    603a:	48 89 75 f0          	mov    %rsi,-0x10(%rbp)
    603e:	48 8b 55 f8          	mov    -0x8(%rbp),%rdx
    6042:	48 8b 45 f0          	mov    -0x10(%rbp),%rax
    6046:	48 01 d0             	add    %rdx,%rax
    6049:	5d                   	pop    %rbp
    604a:	c3                   	retq   

000000000000604b <safe_sub_func_uint64_t_u_u>:
    604b:	f3 0f 1e fa          	endbr64 
    604f:	55                   	push   %rbp
    6050:	48 89 e5             	mov    %rsp,%rbp
    6053:	48 89 7d f8          	mov    %rdi,-0x8(%rbp)
    6057:	48 89 75 f0          	mov    %rsi,-0x10(%rbp)
    605b:	48 8b 45 f8          	mov    -0x8(%rbp),%rax
    605f:	48 2b 45 f0          	sub    -0x10(%rbp),%rax
    6063:	5d                   	pop    %rbp
    6064:	c3                   	retq   

0000000000006065 <safe_mul_func_uint64_t_u_u>:
    6065:	f3 0f 1e fa          	endbr64 
    6069:	55                   	push   %rbp
    606a:	48 89 e5             	mov    %rsp,%rbp
    606d:	48 89 7d f8          	mov    %rdi,-0x8(%rbp)
    6071:	48 89 75 f0          	mov    %rsi,-0x10(%rbp)
    6075:	48 8b 45 f8          	mov    -0x8(%rbp),%rax
    6079:	48 0f af 45 f0       	imul   -0x10(%rbp),%rax
    607e:	5d                   	pop    %rbp
    607f:	c3                   	retq   

0000000000006080 <safe_mod_func_uint64_t_u_u>:
    6080:	f3 0f 1e fa          	endbr64 
    6084:	55                   	push   %rbp
    6085:	48 89 e5             	mov    %rsp,%rbp
    6088:	48 89 7d f8          	mov    %rdi,-0x8(%rbp)
    608c:	48 89 75 f0          	mov    %rsi,-0x10(%rbp)
    6090:	48 83 7d f0 00       	cmpq   $0x0,-0x10(%rbp)
    6095:	74 12                	je     60a9 <safe_mod_func_uint64_t_u_u+0x29>
    6097:	48 8b 45 f8          	mov    -0x8(%rbp),%rax
    609b:	ba 00 00 00 00       	mov    $0x0,%edx
    60a0:	48 f7 75 f0          	divq   -0x10(%rbp)
    60a4:	48 89 d0             	mov    %rdx,%rax
    60a7:	eb 04                	jmp    60ad <safe_mod_func_uint64_t_u_u+0x2d>
    60a9:	48 8b 45 f8          	mov    -0x8(%rbp),%rax
    60ad:	5d                   	pop    %rbp
    60ae:	c3                   	retq   

00000000000060af <safe_div_func_uint64_t_u_u>:
    60af:	f3 0f 1e fa          	endbr64 
    60b3:	55                   	push   %rbp
    60b4:	48 89 e5             	mov    %rsp,%rbp
    60b7:	48 89 7d f8          	mov    %rdi,-0x8(%rbp)
    60bb:	48 89 75 f0          	mov    %rsi,-0x10(%rbp)
    60bf:	48 83 7d f0 00       	cmpq   $0x0,-0x10(%rbp)
    60c4:	74 0f                	je     60d5 <safe_div_func_uint64_t_u_u+0x26>
    60c6:	48 8b 45 f8          	mov    -0x8(%rbp),%rax
    60ca:	ba 00 00 00 00       	mov    $0x0,%edx
    60cf:	48 f7 75 f0          	divq   -0x10(%rbp)
    60d3:	eb 04                	jmp    60d9 <safe_div_func_uint64_t_u_u+0x2a>
    60d5:	48 8b 45 f8          	mov    -0x8(%rbp),%rax
    60d9:	5d                   	pop    %rbp
    60da:	c3                   	retq   

00000000000060db <safe_lshift_func_uint64_t_u_s>:
    60db:	f3 0f 1e fa          	endbr64 
    60df:	55                   	push   %rbp
    60e0:	48 89 e5             	mov    %rsp,%rbp
    60e3:	48 89 7d f8          	mov    %rdi,-0x8(%rbp)
    60e7:	89 75 f4             	mov    %esi,-0xc(%rbp)
    60ea:	83 7d f4 00          	cmpl   $0x0,-0xc(%rbp)
    60ee:	78 2f                	js     611f <safe_lshift_func_uint64_t_u_s+0x44>
    60f0:	83 7d f4 1f          	cmpl   $0x1f,-0xc(%rbp)
    60f4:	7f 29                	jg     611f <safe_lshift_func_uint64_t_u_s+0x44>
    60f6:	8b 45 f4             	mov    -0xc(%rbp),%eax
    60f9:	48 c7 c2 ff ff ff ff 	mov    $0xffffffffffffffff,%rdx
    6100:	89 c1                	mov    %eax,%ecx
    6102:	48 d3 ea             	shr    %cl,%rdx
    6105:	48 89 d0             	mov    %rdx,%rax
    6108:	48 39 45 f8          	cmp    %rax,-0x8(%rbp)
    610c:	77 11                	ja     611f <safe_lshift_func_uint64_t_u_s+0x44>
    610e:	8b 45 f4             	mov    -0xc(%rbp),%eax
    6111:	48 8b 55 f8          	mov    -0x8(%rbp),%rdx
    6115:	89 c1                	mov    %eax,%ecx
    6117:	48 d3 e2             	shl    %cl,%rdx
    611a:	48 89 d0             	mov    %rdx,%rax
    611d:	eb 04                	jmp    6123 <safe_lshift_func_uint64_t_u_s+0x48>
    611f:	48 8b 45 f8          	mov    -0x8(%rbp),%rax
    6123:	5d                   	pop    %rbp
    6124:	c3                   	retq   

0000000000006125 <safe_lshift_func_uint64_t_u_u>:
    6125:	f3 0f 1e fa          	endbr64 
    6129:	55                   	push   %rbp
    612a:	48 89 e5             	mov    %rsp,%rbp
    612d:	48 89 7d f8          	mov    %rdi,-0x8(%rbp)
    6131:	89 75 f4             	mov    %esi,-0xc(%rbp)
    6134:	83 7d f4 1f          	cmpl   $0x1f,-0xc(%rbp)
    6138:	77 29                	ja     6163 <safe_lshift_func_uint64_t_u_u+0x3e>
    613a:	8b 45 f4             	mov    -0xc(%rbp),%eax
    613d:	48 c7 c2 ff ff ff ff 	mov    $0xffffffffffffffff,%rdx
    6144:	89 c1                	mov    %eax,%ecx
    6146:	48 d3 ea             	shr    %cl,%rdx
    6149:	48 89 d0             	mov    %rdx,%rax
    614c:	48 39 45 f8          	cmp    %rax,-0x8(%rbp)
    6150:	77 11                	ja     6163 <safe_lshift_func_uint64_t_u_u+0x3e>
    6152:	8b 45 f4             	mov    -0xc(%rbp),%eax
    6155:	48 8b 55 f8          	mov    -0x8(%rbp),%rdx
    6159:	89 c1                	mov    %eax,%ecx
    615b:	48 d3 e2             	shl    %cl,%rdx
    615e:	48 89 d0             	mov    %rdx,%rax
    6161:	eb 04                	jmp    6167 <safe_lshift_func_uint64_t_u_u+0x42>
    6163:	48 8b 45 f8          	mov    -0x8(%rbp),%rax
    6167:	5d                   	pop    %rbp
    6168:	c3                   	retq   

0000000000006169 <safe_rshift_func_uint64_t_u_s>:
    6169:	f3 0f 1e fa          	endbr64 
    616d:	55                   	push   %rbp
    616e:	48 89 e5             	mov    %rsp,%rbp
    6171:	48 89 7d f8          	mov    %rdi,-0x8(%rbp)
    6175:	89 75 f4             	mov    %esi,-0xc(%rbp)
    6178:	83 7d f4 00          	cmpl   $0x0,-0xc(%rbp)
    617c:	78 17                	js     6195 <safe_rshift_func_uint64_t_u_s+0x2c>
    617e:	83 7d f4 1f          	cmpl   $0x1f,-0xc(%rbp)
    6182:	7f 11                	jg     6195 <safe_rshift_func_uint64_t_u_s+0x2c>
    6184:	8b 45 f4             	mov    -0xc(%rbp),%eax
    6187:	48 8b 55 f8          	mov    -0x8(%rbp),%rdx
    618b:	89 c1                	mov    %eax,%ecx
    618d:	48 d3 ea             	shr    %cl,%rdx
    6190:	48 89 d0             	mov    %rdx,%rax
    6193:	eb 04                	jmp    6199 <safe_rshift_func_uint64_t_u_s+0x30>
    6195:	48 8b 45 f8          	mov    -0x8(%rbp),%rax
    6199:	5d                   	pop    %rbp
    619a:	c3                   	retq   

000000000000619b <safe_rshift_func_uint64_t_u_u>:
    619b:	f3 0f 1e fa          	endbr64 
    619f:	55                   	push   %rbp
    61a0:	48 89 e5             	mov    %rsp,%rbp
    61a3:	48 89 7d f8          	mov    %rdi,-0x8(%rbp)
    61a7:	89 75 f4             	mov    %esi,-0xc(%rbp)
    61aa:	83 7d f4 1f          	cmpl   $0x1f,-0xc(%rbp)
    61ae:	77 11                	ja     61c1 <safe_rshift_func_uint64_t_u_u+0x26>
    61b0:	8b 45 f4             	mov    -0xc(%rbp),%eax
    61b3:	48 8b 55 f8          	mov    -0x8(%rbp),%rdx
    61b7:	89 c1                	mov    %eax,%ecx
    61b9:	48 d3 ea             	shr    %cl,%rdx
    61bc:	48 89 d0             	mov    %rdx,%rax
    61bf:	eb 04                	jmp    61c5 <safe_rshift_func_uint64_t_u_u+0x2a>
    61c1:	48 8b 45 f8          	mov    -0x8(%rbp),%rax
    61c5:	5d                   	pop    %rbp
    61c6:	c3                   	retq   

00000000000061c7 <safe_add_func_float_f_f>:
    61c7:	f3 0f 1e fa          	endbr64 
    61cb:	55                   	push   %rbp
    61cc:	48 89 e5             	mov    %rsp,%rbp
    61cf:	f3 0f 11 45 fc       	movss  %xmm0,-0x4(%rbp)
    61d4:	f3 0f 11 4d f8       	movss  %xmm1,-0x8(%rbp)
    61d9:	f3 0f 10 4d fc       	movss  -0x4(%rbp),%xmm1
    61de:	f3 0f 10 05 f2 e4 00 	movss  0xe4f2(%rip),%xmm0        # 146d8 <l_380.5134+0x9>
    61e5:	00 
    61e6:	f3 0f 59 c8          	mulss  %xmm0,%xmm1
    61ea:	f3 0f 10 55 f8       	movss  -0x8(%rbp),%xmm2
    61ef:	f3 0f 10 05 e1 e4 00 	movss  0xe4e1(%rip),%xmm0        # 146d8 <l_380.5134+0x9>
    61f6:	00 
    61f7:	f3 0f 59 c2          	mulss  %xmm2,%xmm0
    61fb:	f3 0f 58 c1          	addss  %xmm1,%xmm0
    61ff:	f3 0f 10 0d d9 e4 00 	movss  0xe4d9(%rip),%xmm1        # 146e0 <l_380.5134+0x11>
    6206:	00 
    6207:	0f 54 c1             	andps  %xmm1,%xmm0
    620a:	0f 2f 05 df e4 00 00 	comiss 0xe4df(%rip),%xmm0        # 146f0 <l_380.5134+0x21>
    6211:	76 07                	jbe    621a <safe_add_func_float_f_f+0x53>
    6213:	f3 0f 10 45 fc       	movss  -0x4(%rbp),%xmm0
    6218:	eb 0a                	jmp    6224 <safe_add_func_float_f_f+0x5d>
    621a:	f3 0f 10 45 fc       	movss  -0x4(%rbp),%xmm0
    621f:	f3 0f 58 45 f8       	addss  -0x8(%rbp),%xmm0
    6224:	5d                   	pop    %rbp
    6225:	c3                   	retq   

0000000000006226 <safe_sub_func_float_f_f>:
    6226:	f3 0f 1e fa          	endbr64 
    622a:	55                   	push   %rbp
    622b:	48 89 e5             	mov    %rsp,%rbp
    622e:	f3 0f 11 45 fc       	movss  %xmm0,-0x4(%rbp)
    6233:	f3 0f 11 4d f8       	movss  %xmm1,-0x8(%rbp)
    6238:	f3 0f 10 4d fc       	movss  -0x4(%rbp),%xmm1
    623d:	f3 0f 10 05 93 e4 00 	movss  0xe493(%rip),%xmm0        # 146d8 <l_380.5134+0x9>
    6244:	00 
    6245:	f3 0f 59 c1          	mulss  %xmm1,%xmm0
    6249:	f3 0f 10 55 f8       	movss  -0x8(%rbp),%xmm2
    624e:	f3 0f 10 0d 82 e4 00 	movss  0xe482(%rip),%xmm1        # 146d8 <l_380.5134+0x9>
    6255:	00 
    6256:	f3 0f 59 ca          	mulss  %xmm2,%xmm1
    625a:	f3 0f 5c c1          	subss  %xmm1,%xmm0
    625e:	f3 0f 10 0d 7a e4 00 	movss  0xe47a(%rip),%xmm1        # 146e0 <l_380.5134+0x11>
    6265:	00 
    6266:	0f 54 c1             	andps  %xmm1,%xmm0
    6269:	0f 2f 05 80 e4 00 00 	comiss 0xe480(%rip),%xmm0        # 146f0 <l_380.5134+0x21>
    6270:	76 07                	jbe    6279 <safe_sub_func_float_f_f+0x53>
    6272:	f3 0f 10 45 fc       	movss  -0x4(%rbp),%xmm0
    6277:	eb 0a                	jmp    6283 <safe_sub_func_float_f_f+0x5d>
    6279:	f3 0f 10 45 fc       	movss  -0x4(%rbp),%xmm0
    627e:	f3 0f 5c 45 f8       	subss  -0x8(%rbp),%xmm0
    6283:	5d                   	pop    %rbp
    6284:	c3                   	retq   

0000000000006285 <safe_mul_func_float_f_f>:
    6285:	f3 0f 1e fa          	endbr64 
    6289:	55                   	push   %rbp
    628a:	48 89 e5             	mov    %rsp,%rbp
    628d:	f3 0f 11 45 fc       	movss  %xmm0,-0x4(%rbp)
    6292:	f3 0f 11 4d f8       	movss  %xmm1,-0x8(%rbp)
    6297:	f3 0f 10 4d fc       	movss  -0x4(%rbp),%xmm1
    629c:	f3 0f 10 05 50 e4 00 	movss  0xe450(%rip),%xmm0        # 146f4 <l_380.5134+0x25>
    62a3:	00 
    62a4:	f3 0f 59 c8          	mulss  %xmm0,%xmm1
    62a8:	f3 0f 10 55 f8       	movss  -0x8(%rbp),%xmm2
    62ad:	f3 0f 10 05 43 e4 00 	movss  0xe443(%rip),%xmm0        # 146f8 <l_380.5134+0x29>
    62b4:	00 
    62b5:	f3 0f 59 c2          	mulss  %xmm2,%xmm0
    62b9:	f3 0f 59 c1          	mulss  %xmm1,%xmm0
    62bd:	f3 0f 10 0d 1b e4 00 	movss  0xe41b(%rip),%xmm1        # 146e0 <l_380.5134+0x11>
    62c4:	00 
    62c5:	0f 54 c1             	andps  %xmm1,%xmm0
    62c8:	0f 2f 05 2d e4 00 00 	comiss 0xe42d(%rip),%xmm0        # 146fc <l_380.5134+0x2d>
    62cf:	76 07                	jbe    62d8 <safe_mul_func_float_f_f+0x53>
    62d1:	f3 0f 10 45 fc       	movss  -0x4(%rbp),%xmm0
    62d6:	eb 0a                	jmp    62e2 <safe_mul_func_float_f_f+0x5d>
    62d8:	f3 0f 10 45 fc       	movss  -0x4(%rbp),%xmm0
    62dd:	f3 0f 59 45 f8       	mulss  -0x8(%rbp),%xmm0
    62e2:	5d                   	pop    %rbp
    62e3:	c3                   	retq   

00000000000062e4 <safe_div_func_float_f_f>:
    62e4:	f3 0f 1e fa          	endbr64 
    62e8:	55                   	push   %rbp
    62e9:	48 89 e5             	mov    %rsp,%rbp
    62ec:	f3 0f 11 45 fc       	movss  %xmm0,-0x4(%rbp)
    62f1:	f3 0f 11 4d f8       	movss  %xmm1,-0x8(%rbp)
    62f6:	f3 0f 10 45 f8       	movss  -0x8(%rbp),%xmm0
    62fb:	f3 0f 10 0d dd e3 00 	movss  0xe3dd(%rip),%xmm1        # 146e0 <l_380.5134+0x11>
    6302:	00 
    6303:	0f 54 c8             	andps  %xmm0,%xmm1
    6306:	f3 0f 10 05 f2 e3 00 	movss  0xe3f2(%rip),%xmm0        # 14700 <l_380.5134+0x31>
    630d:	00 
    630e:	0f 2f c1             	comiss %xmm1,%xmm0
    6311:	0f 97 c0             	seta   %al
    6314:	83 f0 01             	xor    $0x1,%eax
    6317:	84 c0                	test   %al,%al
    6319:	75 56                	jne    6371 <safe_div_func_float_f_f+0x8d>
    631b:	66 0f ef c0          	pxor   %xmm0,%xmm0
    631f:	0f 2e 45 f8          	ucomiss -0x8(%rbp),%xmm0
    6323:	7a 0a                	jp     632f <safe_div_func_float_f_f+0x4b>
    6325:	66 0f ef c0          	pxor   %xmm0,%xmm0
    6329:	0f 2e 45 f8          	ucomiss -0x8(%rbp),%xmm0
    632d:	74 4e                	je     637d <safe_div_func_float_f_f+0x99>
    632f:	f3 0f 10 4d fc       	movss  -0x4(%rbp),%xmm1
    6334:	f3 0f 10 05 c8 e3 00 	movss  0xe3c8(%rip),%xmm0        # 14704 <l_380.5134+0x35>
    633b:	00 
    633c:	f3 0f 59 c1          	mulss  %xmm1,%xmm0
    6340:	f3 0f 10 55 f8       	movss  -0x8(%rbp),%xmm2
    6345:	f3 0f 10 0d bb e3 00 	movss  0xe3bb(%rip),%xmm1        # 14708 <l_380.5134+0x39>
    634c:	00 
    634d:	f3 0f 59 ca          	mulss  %xmm2,%xmm1
    6351:	f3 0f 5e c1          	divss  %xmm1,%xmm0
    6355:	f3 0f 10 0d 83 e3 00 	movss  0xe383(%rip),%xmm1        # 146e0 <l_380.5134+0x11>
    635c:	00 
    635d:	0f 54 c1             	andps  %xmm1,%xmm0
    6360:	0f 2f 05 a5 e3 00 00 	comiss 0xe3a5(%rip),%xmm0        # 1470c <l_380.5134+0x3d>
    6367:	0f 97 c0             	seta   %al
    636a:	83 f0 01             	xor    $0x1,%eax
    636d:	84 c0                	test   %al,%al
    636f:	74 0c                	je     637d <safe_div_func_float_f_f+0x99>
    6371:	f3 0f 10 45 fc       	movss  -0x4(%rbp),%xmm0
    6376:	f3 0f 5e 45 f8       	divss  -0x8(%rbp),%xmm0
    637b:	eb 05                	jmp    6382 <safe_div_func_float_f_f+0x9e>
    637d:	f3 0f 10 45 fc       	movss  -0x4(%rbp),%xmm0
    6382:	5d                   	pop    %rbp
    6383:	c3                   	retq   

0000000000006384 <safe_add_func_double_f_f>:
    6384:	f3 0f 1e fa          	endbr64 
    6388:	55                   	push   %rbp
    6389:	48 89 e5             	mov    %rsp,%rbp
    638c:	f2 0f 11 45 f8       	movsd  %xmm0,-0x8(%rbp)
    6391:	f2 0f 11 4d f0       	movsd  %xmm1,-0x10(%rbp)
    6396:	f2 0f 10 4d f8       	movsd  -0x8(%rbp),%xmm1
    639b:	f2 0f 10 05 6d e3 00 	movsd  0xe36d(%rip),%xmm0        # 14710 <l_380.5134+0x41>
    63a2:	00 
    63a3:	f2 0f 59 c8          	mulsd  %xmm0,%xmm1
    63a7:	f2 0f 10 55 f0       	movsd  -0x10(%rbp),%xmm2
    63ac:	f2 0f 10 05 5c e3 00 	movsd  0xe35c(%rip),%xmm0        # 14710 <l_380.5134+0x41>
    63b3:	00 
    63b4:	f2 0f 59 c2          	mulsd  %xmm2,%xmm0
    63b8:	f2 0f 58 c1          	addsd  %xmm1,%xmm0
    63bc:	f3 0f 7e 0d 5c e3 00 	movq   0xe35c(%rip),%xmm1        # 14720 <l_380.5134+0x51>
    63c3:	00 
    63c4:	66 0f 54 c1          	andpd  %xmm1,%xmm0
    63c8:	66 0f 2f 05 60 e3 00 	comisd 0xe360(%rip),%xmm0        # 14730 <l_380.5134+0x61>
    63cf:	00 
    63d0:	76 07                	jbe    63d9 <safe_add_func_double_f_f+0x55>
    63d2:	f2 0f 10 45 f8       	movsd  -0x8(%rbp),%xmm0
    63d7:	eb 0a                	jmp    63e3 <safe_add_func_double_f_f+0x5f>
    63d9:	f2 0f 10 45 f8       	movsd  -0x8(%rbp),%xmm0
    63de:	f2 0f 58 45 f0       	addsd  -0x10(%rbp),%xmm0
    63e3:	5d                   	pop    %rbp
    63e4:	c3                   	retq   

00000000000063e5 <safe_sub_func_double_f_f>:
    63e5:	f3 0f 1e fa          	endbr64 
    63e9:	55                   	push   %rbp
    63ea:	48 89 e5             	mov    %rsp,%rbp
    63ed:	f2 0f 11 45 f8       	movsd  %xmm0,-0x8(%rbp)
    63f2:	f2 0f 11 4d f0       	movsd  %xmm1,-0x10(%rbp)
    63f7:	f2 0f 10 4d f8       	movsd  -0x8(%rbp),%xmm1
    63fc:	f2 0f 10 05 0c e3 00 	movsd  0xe30c(%rip),%xmm0        # 14710 <l_380.5134+0x41>
    6403:	00 
    6404:	f2 0f 59 c1          	mulsd  %xmm1,%xmm0
    6408:	f2 0f 10 55 f0       	movsd  -0x10(%rbp),%xmm2
    640d:	f2 0f 10 0d fb e2 00 	movsd  0xe2fb(%rip),%xmm1        # 14710 <l_380.5134+0x41>
    6414:	00 
    6415:	f2 0f 59 ca          	mulsd  %xmm2,%xmm1
    6419:	f2 0f 5c c1          	subsd  %xmm1,%xmm0
    641d:	f3 0f 7e 0d fb e2 00 	movq   0xe2fb(%rip),%xmm1        # 14720 <l_380.5134+0x51>
    6424:	00 
    6425:	66 0f 54 c1          	andpd  %xmm1,%xmm0
    6429:	66 0f 2f 05 ff e2 00 	comisd 0xe2ff(%rip),%xmm0        # 14730 <l_380.5134+0x61>
    6430:	00 
    6431:	76 07                	jbe    643a <safe_sub_func_double_f_f+0x55>
    6433:	f2 0f 10 45 f8       	movsd  -0x8(%rbp),%xmm0
    6438:	eb 0a                	jmp    6444 <safe_sub_func_double_f_f+0x5f>
    643a:	f2 0f 10 45 f8       	movsd  -0x8(%rbp),%xmm0
    643f:	f2 0f 5c 45 f0       	subsd  -0x10(%rbp),%xmm0
    6444:	5d                   	pop    %rbp
    6445:	c3                   	retq   

0000000000006446 <safe_mul_func_double_f_f>:
    6446:	f3 0f 1e fa          	endbr64 
    644a:	55                   	push   %rbp
    644b:	48 89 e5             	mov    %rsp,%rbp
    644e:	f2 0f 11 45 f8       	movsd  %xmm0,-0x8(%rbp)
    6453:	f2 0f 11 4d f0       	movsd  %xmm1,-0x10(%rbp)
    6458:	f2 0f 10 4d f8       	movsd  -0x8(%rbp),%xmm1
    645d:	f2 0f 10 05 d3 e2 00 	movsd  0xe2d3(%rip),%xmm0        # 14738 <l_380.5134+0x69>
    6464:	00 
    6465:	f2 0f 59 c8          	mulsd  %xmm0,%xmm1
    6469:	f2 0f 10 55 f0       	movsd  -0x10(%rbp),%xmm2
    646e:	f2 0f 10 05 ca e2 00 	movsd  0xe2ca(%rip),%xmm0        # 14740 <l_380.5134+0x71>
    6475:	00 
    6476:	f2 0f 59 c2          	mulsd  %xmm2,%xmm0
    647a:	f2 0f 59 c1          	mulsd  %xmm1,%xmm0
    647e:	f3 0f 7e 0d 9a e2 00 	movq   0xe29a(%rip),%xmm1        # 14720 <l_380.5134+0x51>
    6485:	00 
    6486:	66 0f 54 c1          	andpd  %xmm1,%xmm0
    648a:	66 0f 2f 05 b6 e2 00 	comisd 0xe2b6(%rip),%xmm0        # 14748 <l_380.5134+0x79>
    6491:	00 
    6492:	76 07                	jbe    649b <safe_mul_func_double_f_f+0x55>
    6494:	f2 0f 10 45 f8       	movsd  -0x8(%rbp),%xmm0
    6499:	eb 0a                	jmp    64a5 <safe_mul_func_double_f_f+0x5f>
    649b:	f2 0f 10 45 f8       	movsd  -0x8(%rbp),%xmm0
    64a0:	f2 0f 59 45 f0       	mulsd  -0x10(%rbp),%xmm0
    64a5:	5d                   	pop    %rbp
    64a6:	c3                   	retq   

00000000000064a7 <safe_div_func_double_f_f>:
    64a7:	f3 0f 1e fa          	endbr64 
    64ab:	55                   	push   %rbp
    64ac:	48 89 e5             	mov    %rsp,%rbp
    64af:	f2 0f 11 45 f8       	movsd  %xmm0,-0x8(%rbp)
    64b4:	f2 0f 11 4d f0       	movsd  %xmm1,-0x10(%rbp)
    64b9:	f2 0f 10 45 f0       	movsd  -0x10(%rbp),%xmm0
    64be:	f3 0f 7e 0d 5a e2 00 	movq   0xe25a(%rip),%xmm1        # 14720 <l_380.5134+0x51>
    64c5:	00 
    64c6:	66 0f 54 c8          	andpd  %xmm0,%xmm1
    64ca:	f2 0f 10 05 7e e2 00 	movsd  0xe27e(%rip),%xmm0        # 14750 <l_380.5134+0x81>
    64d1:	00 
    64d2:	66 0f 2f c1          	comisd %xmm1,%xmm0
    64d6:	0f 97 c0             	seta   %al
    64d9:	83 f0 01             	xor    $0x1,%eax
    64dc:	84 c0                	test   %al,%al
    64de:	75 5a                	jne    653a <safe_div_func_double_f_f+0x93>
    64e0:	66 0f ef c0          	pxor   %xmm0,%xmm0
    64e4:	66 0f 2e 45 f0       	ucomisd -0x10(%rbp),%xmm0
    64e9:	7a 0b                	jp     64f6 <safe_div_func_double_f_f+0x4f>
    64eb:	66 0f ef c0          	pxor   %xmm0,%xmm0
    64ef:	66 0f 2e 45 f0       	ucomisd -0x10(%rbp),%xmm0
    64f4:	74 50                	je     6546 <safe_div_func_double_f_f+0x9f>
    64f6:	f2 0f 10 4d f8       	movsd  -0x8(%rbp),%xmm1
    64fb:	f2 0f 10 05 55 e2 00 	movsd  0xe255(%rip),%xmm0        # 14758 <l_380.5134+0x89>
    6502:	00 
    6503:	f2 0f 59 c1          	mulsd  %xmm1,%xmm0
    6507:	f2 0f 10 55 f0       	movsd  -0x10(%rbp),%xmm2
    650c:	f2 0f 10 0d 4c e2 00 	movsd  0xe24c(%rip),%xmm1        # 14760 <l_380.5134+0x91>
    6513:	00 
    6514:	f2 0f 59 ca          	mulsd  %xmm2,%xmm1
    6518:	f2 0f 5e c1          	divsd  %xmm1,%xmm0
    651c:	f3 0f 7e 0d fc e1 00 	movq   0xe1fc(%rip),%xmm1        # 14720 <l_380.5134+0x51>
    6523:	00 
    6524:	66 0f 54 c1          	andpd  %xmm1,%xmm0
    6528:	66 0f 2f 05 38 e2 00 	comisd 0xe238(%rip),%xmm0        # 14768 <l_380.5134+0x99>
    652f:	00 
    6530:	0f 97 c0             	seta   %al
    6533:	83 f0 01             	xor    $0x1,%eax
    6536:	84 c0                	test   %al,%al
    6538:	74 0c                	je     6546 <safe_div_func_double_f_f+0x9f>
    653a:	f2 0f 10 45 f8       	movsd  -0x8(%rbp),%xmm0
    653f:	f2 0f 5e 45 f0       	divsd  -0x10(%rbp),%xmm0
    6544:	eb 05                	jmp    654b <safe_div_func_double_f_f+0xa4>
    6546:	f2 0f 10 45 f8       	movsd  -0x8(%rbp),%xmm0
    654b:	5d                   	pop    %rbp
    654c:	c3                   	retq   

000000000000654d <safe_convert_func_float_to_int32_t>:
    654d:	f3 0f 1e fa          	endbr64 
    6551:	55                   	push   %rbp
    6552:	48 89 e5             	mov    %rsp,%rbp
    6555:	f3 0f 11 45 fc       	movss  %xmm0,-0x4(%rbp)
    655a:	f3 0f 10 05 0e e2 00 	movss  0xe20e(%rip),%xmm0        # 14770 <l_380.5134+0xa1>
    6561:	00 
    6562:	0f 2f 45 fc          	comiss -0x4(%rbp),%xmm0
    6566:	0f 93 c0             	setae  %al
    6569:	83 f0 01             	xor    $0x1,%eax
    656c:	84 c0                	test   %al,%al
    656e:	74 21                	je     6591 <safe_convert_func_float_to_int32_t+0x44>
    6570:	f3 0f 10 45 fc       	movss  -0x4(%rbp),%xmm0
    6575:	0f 2f 05 f8 e1 00 00 	comiss 0xe1f8(%rip),%xmm0        # 14774 <l_380.5134+0xa5>
    657c:	0f 93 c0             	setae  %al
    657f:	83 f0 01             	xor    $0x1,%eax
    6582:	84 c0                	test   %al,%al
    6584:	74 0b                	je     6591 <safe_convert_func_float_to_int32_t+0x44>
    6586:	f3 0f 10 45 fc       	movss  -0x4(%rbp),%xmm0
    658b:	f3 0f 2c c0          	cvttss2si %xmm0,%eax
    658f:	eb 05                	jmp    6596 <safe_convert_func_float_to_int32_t+0x49>
    6591:	b8 ff ff ff 7f       	mov    $0x7fffffff,%eax
    6596:	5d                   	pop    %rbp
    6597:	c3                   	retq   

0000000000006598 <crc32_gentab>:
    6598:	f3 0f 1e fa          	endbr64 
    659c:	55                   	push   %rbp
    659d:	48 89 e5             	mov    %rsp,%rbp
    65a0:	c7 45 fc 20 83 b8 ed 	movl   $0xedb88320,-0x4(%rbp)
    65a7:	c7 45 f4 00 00 00 00 	movl   $0x0,-0xc(%rbp)
    65ae:	eb 51                	jmp    6601 <crc32_gentab+0x69>
    65b0:	8b 45 f4             	mov    -0xc(%rbp),%eax
    65b3:	89 45 f0             	mov    %eax,-0x10(%rbp)
    65b6:	c7 45 f8 08 00 00 00 	movl   $0x8,-0x8(%rbp)
    65bd:	eb 1e                	jmp    65dd <crc32_gentab+0x45>
    65bf:	8b 45 f0             	mov    -0x10(%rbp),%eax
    65c2:	83 e0 01             	and    $0x1,%eax
    65c5:	85 c0                	test   %eax,%eax
    65c7:	74 0d                	je     65d6 <crc32_gentab+0x3e>
    65c9:	8b 45 f0             	mov    -0x10(%rbp),%eax
    65cc:	d1 e8                	shr    %eax
    65ce:	33 45 fc             	xor    -0x4(%rbp),%eax
    65d1:	89 45 f0             	mov    %eax,-0x10(%rbp)
    65d4:	eb 03                	jmp    65d9 <crc32_gentab+0x41>
    65d6:	d1 6d f0             	shrl   -0x10(%rbp)
    65d9:	83 6d f8 01          	subl   $0x1,-0x8(%rbp)
    65dd:	83 7d f8 00          	cmpl   $0x0,-0x8(%rbp)
    65e1:	7f dc                	jg     65bf <crc32_gentab+0x27>
    65e3:	8b 45 f4             	mov    -0xc(%rbp),%eax
    65e6:	48 98                	cltq   
    65e8:	48 8d 0c 85 00 00 00 	lea    0x0(,%rax,4),%rcx
    65ef:	00 
    65f0:	48 8d 15 c9 35 01 00 	lea    0x135c9(%rip),%rdx        # 19bc0 <crc32_tab>
    65f7:	8b 45 f0             	mov    -0x10(%rbp),%eax
    65fa:	89 04 11             	mov    %eax,(%rcx,%rdx,1)
    65fd:	83 45 f4 01          	addl   $0x1,-0xc(%rbp)
    6601:	81 7d f4 ff 00 00 00 	cmpl   $0xff,-0xc(%rbp)
    6608:	7e a6                	jle    65b0 <crc32_gentab+0x18>
    660a:	90                   	nop
    660b:	90                   	nop
    660c:	5d                   	pop    %rbp
    660d:	c3                   	retq   

000000000000660e <crc32_byte>:
    660e:	f3 0f 1e fa          	endbr64 
    6612:	55                   	push   %rbp
    6613:	48 89 e5             	mov    %rsp,%rbp
    6616:	89 f8                	mov    %edi,%eax
    6618:	88 45 fc             	mov    %al,-0x4(%rbp)
    661b:	8b 05 ff 09 01 00    	mov    0x109ff(%rip),%eax        # 17020 <crc32_context>
    6621:	c1 e8 08             	shr    $0x8,%eax
    6624:	89 c1                	mov    %eax,%ecx
    6626:	0f b6 55 fc          	movzbl -0x4(%rbp),%edx
    662a:	8b 05 f0 09 01 00    	mov    0x109f0(%rip),%eax        # 17020 <crc32_context>
    6630:	31 d0                	xor    %edx,%eax
    6632:	0f b6 c0             	movzbl %al,%eax
    6635:	89 c0                	mov    %eax,%eax
    6637:	48 8d 14 85 00 00 00 	lea    0x0(,%rax,4),%rdx
    663e:	00 
    663f:	48 8d 05 7a 35 01 00 	lea    0x1357a(%rip),%rax        # 19bc0 <crc32_tab>
    6646:	8b 04 02             	mov    (%rdx,%rax,1),%eax
    6649:	31 c8                	xor    %ecx,%eax
    664b:	89 05 cf 09 01 00    	mov    %eax,0x109cf(%rip)        # 17020 <crc32_context>
    6651:	90                   	nop
    6652:	5d                   	pop    %rbp
    6653:	c3                   	retq   

0000000000006654 <crc32_8bytes>:
    6654:	f3 0f 1e fa          	endbr64 
    6658:	55                   	push   %rbp
    6659:	48 89 e5             	mov    %rsp,%rbp
    665c:	48 83 ec 08          	sub    $0x8,%rsp
    6660:	48 89 7d f8          	mov    %rdi,-0x8(%rbp)
    6664:	48 8b 45 f8          	mov    -0x8(%rbp),%rax
    6668:	0f b6 c0             	movzbl %al,%eax
    666b:	89 c7                	mov    %eax,%edi
    666d:	e8 9c ff ff ff       	callq  660e <crc32_byte>
    6672:	48 8b 45 f8          	mov    -0x8(%rbp),%rax
    6676:	48 c1 e8 08          	shr    $0x8,%rax
    667a:	0f b6 c0             	movzbl %al,%eax
    667d:	89 c7                	mov    %eax,%edi
    667f:	e8 8a ff ff ff       	callq  660e <crc32_byte>
    6684:	48 8b 45 f8          	mov    -0x8(%rbp),%rax
    6688:	48 c1 e8 10          	shr    $0x10,%rax
    668c:	0f b6 c0             	movzbl %al,%eax
    668f:	89 c7                	mov    %eax,%edi
    6691:	e8 78 ff ff ff       	callq  660e <crc32_byte>
    6696:	48 8b 45 f8          	mov    -0x8(%rbp),%rax
    669a:	48 c1 e8 18          	shr    $0x18,%rax
    669e:	0f b6 c0             	movzbl %al,%eax
    66a1:	89 c7                	mov    %eax,%edi
    66a3:	e8 66 ff ff ff       	callq  660e <crc32_byte>
    66a8:	48 8b 45 f8          	mov    -0x8(%rbp),%rax
    66ac:	48 c1 e8 20          	shr    $0x20,%rax
    66b0:	0f b6 c0             	movzbl %al,%eax
    66b3:	89 c7                	mov    %eax,%edi
    66b5:	e8 54 ff ff ff       	callq  660e <crc32_byte>
    66ba:	48 8b 45 f8          	mov    -0x8(%rbp),%rax
    66be:	48 c1 e8 28          	shr    $0x28,%rax
    66c2:	0f b6 c0             	movzbl %al,%eax
    66c5:	89 c7                	mov    %eax,%edi
    66c7:	e8 42 ff ff ff       	callq  660e <crc32_byte>
    66cc:	48 8b 45 f8          	mov    -0x8(%rbp),%rax
    66d0:	48 c1 e8 30          	shr    $0x30,%rax
    66d4:	0f b6 c0             	movzbl %al,%eax
    66d7:	89 c7                	mov    %eax,%edi
    66d9:	e8 30 ff ff ff       	callq  660e <crc32_byte>
    66de:	48 8b 45 f8          	mov    -0x8(%rbp),%rax
    66e2:	48 c1 e8 38          	shr    $0x38,%rax
    66e6:	0f b6 c0             	movzbl %al,%eax
    66e9:	89 c7                	mov    %eax,%edi
    66eb:	e8 1e ff ff ff       	callq  660e <crc32_byte>
    66f0:	90                   	nop
    66f1:	c9                   	leaveq 
    66f2:	c3                   	retq   

00000000000066f3 <transparent_crc>:
    66f3:	f3 0f 1e fa          	endbr64 
    66f7:	55                   	push   %rbp
    66f8:	48 89 e5             	mov    %rsp,%rbp
    66fb:	48 83 ec 20          	sub    $0x20,%rsp
    66ff:	48 89 7d f8          	mov    %rdi,-0x8(%rbp)
    6703:	48 89 75 f0          	mov    %rsi,-0x10(%rbp)
    6707:	89 55 ec             	mov    %edx,-0x14(%rbp)
    670a:	48 8b 45 f8          	mov    -0x8(%rbp),%rax
    670e:	48 89 c7             	mov    %rax,%rdi
    6711:	e8 3e ff ff ff       	callq  6654 <crc32_8bytes>
    6716:	83 7d ec 00          	cmpl   $0x0,-0x14(%rbp)
    671a:	74 22                	je     673e <transparent_crc+0x4b>
    671c:	8b 05 fe 08 01 00    	mov    0x108fe(%rip),%eax        # 17020 <crc32_context>
    6722:	f7 d0                	not    %eax
    6724:	89 c2                	mov    %eax,%edx
    6726:	48 8b 45 f0          	mov    -0x10(%rbp),%rax
    672a:	48 89 c6             	mov    %rax,%rsi
    672d:	48 8d 3d fc c8 00 00 	lea    0xc8fc(%rip),%rdi        # 13030 <_IO_stdin_used+0x30>
    6734:	b8 00 00 00 00       	mov    $0x0,%eax
    6739:	e8 42 e9 ff ff       	callq  5080 <printf@plt>
    673e:	90                   	nop
    673f:	c9                   	leaveq 
    6740:	c3                   	retq   

0000000000006741 <transparent_crc_bytes>:
    6741:	f3 0f 1e fa          	endbr64 
    6745:	55                   	push   %rbp
    6746:	48 89 e5             	mov    %rsp,%rbp
    6749:	48 83 ec 30          	sub    $0x30,%rsp
    674d:	48 89 7d e8          	mov    %rdi,-0x18(%rbp)
    6751:	89 75 e4             	mov    %esi,-0x1c(%rbp)
    6754:	48 89 55 d8          	mov    %rdx,-0x28(%rbp)
    6758:	89 4d e0             	mov    %ecx,-0x20(%rbp)
    675b:	c7 45 fc 00 00 00 00 	movl   $0x0,-0x4(%rbp)
    6762:	eb 1e                	jmp    6782 <transparent_crc_bytes+0x41>
    6764:	8b 45 fc             	mov    -0x4(%rbp),%eax
    6767:	48 63 d0             	movslq %eax,%rdx
    676a:	48 8b 45 e8          	mov    -0x18(%rbp),%rax
    676e:	48 01 d0             	add    %rdx,%rax
    6771:	0f b6 00             	movzbl (%rax),%eax
    6774:	0f b6 c0             	movzbl %al,%eax
    6777:	89 c7                	mov    %eax,%edi
    6779:	e8 90 fe ff ff       	callq  660e <crc32_byte>
    677e:	83 45 fc 01          	addl   $0x1,-0x4(%rbp)
    6782:	8b 45 fc             	mov    -0x4(%rbp),%eax
    6785:	3b 45 e4             	cmp    -0x1c(%rbp),%eax
    6788:	7c da                	jl     6764 <transparent_crc_bytes+0x23>
    678a:	83 7d e0 00          	cmpl   $0x0,-0x20(%rbp)
    678e:	74 22                	je     67b2 <transparent_crc_bytes+0x71>
    6790:	8b 05 8a 08 01 00    	mov    0x1088a(%rip),%eax        # 17020 <crc32_context>
    6796:	f7 d0                	not    %eax
    6798:	89 c2                	mov    %eax,%edx
    679a:	48 8b 45 d8          	mov    -0x28(%rbp),%rax
    679e:	48 89 c6             	mov    %rax,%rsi
    67a1:	48 8d 3d 88 c8 00 00 	lea    0xc888(%rip),%rdi        # 13030 <_IO_stdin_used+0x30>
    67a8:	b8 00 00 00 00       	mov    $0x0,%eax
    67ad:	e8 ce e8 ff ff       	callq  5080 <printf@plt>
    67b2:	90                   	nop
    67b3:	c9                   	leaveq 
    67b4:	c3                   	retq   

00000000000067b5 <func_1>:
    67b5:	f3 0f 1e fa          	endbr64 
    67b9:	55                   	push   %rbp
    67ba:	48 89 e5             	mov    %rsp,%rbp
    67bd:	41 57                	push   %r15
    67bf:	41 56                	push   %r14
    67c1:	41 55                	push   %r13
    67c3:	41 54                	push   %r12
    67c5:	53                   	push   %rbx
    67c6:	48 81 ec b8 0d 00 00 	sub    $0xdb8,%rsp
    67cd:	64 48 8b 04 25 28 00 	mov    %fs:0x28,%rax
    67d4:	00 00 
    67d6:	48 89 45 c8          	mov    %rax,-0x38(%rbp)
    67da:	31 c0                	xor    %eax,%eax
    67dc:	48 c7 85 20 f3 ff ff 	movq   $0x0,-0xce0(%rbp)
    67e3:	00 00 00 00 
    67e7:	48 8d 05 3a 08 01 00 	lea    0x1083a(%rip),%rax        # 17028 <g_14>
    67ee:	48 89 85 80 f3 ff ff 	mov    %rax,-0xc80(%rbp)
    67f5:	c7 85 60 f2 ff ff af 	movl   $0x3a7112af,-0xda0(%rbp)
    67fc:	12 71 3a 
    67ff:	66 c7 85 c0 f7 ff ff 	movw   $0xfff8,-0x840(%rbp)
    6806:	f8 ff 
    6808:	66 c7 85 c2 f7 ff ff 	movw   $0x1941,-0x83e(%rbp)
    680f:	41 19 
    6811:	66 c7 85 c4 f7 ff ff 	movw   $0xfff8,-0x83c(%rbp)
    6818:	f8 ff 
    681a:	66 c7 85 c6 f7 ff ff 	movw   $0x1941,-0x83a(%rbp)
    6821:	41 19 
    6823:	66 c7 85 c8 f7 ff ff 	movw   $0xfff8,-0x838(%rbp)
    682a:	f8 ff 
    682c:	66 c7 85 ca f7 ff ff 	movw   $0x1941,-0x836(%rbp)
    6833:	41 19 
    6835:	66 c7 85 cc f7 ff ff 	movw   $0xfff8,-0x834(%rbp)
    683c:	f8 ff 
    683e:	66 c7 85 ce f7 ff ff 	movw   $0x1941,-0x832(%rbp)
    6845:	41 19 
    6847:	66 c7 85 d0 f7 ff ff 	movw   $0xfff8,-0x830(%rbp)
    684e:	f8 ff 
    6850:	66 c7 85 d2 f7 ff ff 	movw   $0x4,-0x82e(%rbp)
    6857:	04 00 
    6859:	66 c7 85 d4 f7 ff ff 	movw   $0xc8a5,-0x82c(%rbp)
    6860:	a5 c8 
    6862:	66 c7 85 d6 f7 ff ff 	movw   $0xc8a5,-0x82a(%rbp)
    6869:	a5 c8 
    686b:	66 c7 85 d8 f7 ff ff 	movw   $0x4,-0x828(%rbp)
    6872:	04 00 
    6874:	66 c7 85 da f7 ff ff 	movw   $0x4,-0x826(%rbp)
    687b:	04 00 
    687d:	66 c7 85 dc f7 ff ff 	movw   $0xc8a5,-0x824(%rbp)
    6884:	a5 c8 
    6886:	66 c7 85 de f7 ff ff 	movw   $0xc8a5,-0x822(%rbp)
    688d:	a5 c8 
    688f:	66 c7 85 e0 f7 ff ff 	movw   $0x4,-0x820(%rbp)
    6896:	04 00 
    6898:	66 c7 85 e2 f7 ff ff 	movw   $0x4,-0x81e(%rbp)
    689f:	04 00 
    68a1:	66 c7 85 e4 f7 ff ff 	movw   $0x94cf,-0x81c(%rbp)
    68a8:	cf 94 
    68aa:	66 c7 85 e6 f7 ff ff 	movw   $0x1941,-0x81a(%rbp)
    68b1:	41 19 
    68b3:	66 c7 85 e8 f7 ff ff 	movw   $0x94cf,-0x818(%rbp)
    68ba:	cf 94 
    68bc:	66 c7 85 ea f7 ff ff 	movw   $0x1941,-0x816(%rbp)
    68c3:	41 19 
    68c5:	66 c7 85 ec f7 ff ff 	movw   $0x94cf,-0x814(%rbp)
    68cc:	cf 94 
    68ce:	66 c7 85 ee f7 ff ff 	movw   $0x1941,-0x812(%rbp)
    68d5:	41 19 
    68d7:	66 c7 85 f0 f7 ff ff 	movw   $0x94cf,-0x810(%rbp)
    68de:	cf 94 
    68e0:	66 c7 85 f2 f7 ff ff 	movw   $0x1941,-0x80e(%rbp)
    68e7:	41 19 
    68e9:	66 c7 85 f4 f7 ff ff 	movw   $0x94cf,-0x80c(%rbp)
    68f0:	cf 94 
    68f2:	66 c7 85 f6 f7 ff ff 	movw   $0x4,-0x80a(%rbp)
    68f9:	04 00 
    68fb:	66 c7 85 f8 f7 ff ff 	movw   $0x4,-0x808(%rbp)
    6902:	04 00 
    6904:	66 c7 85 fa f7 ff ff 	movw   $0xc8a5,-0x806(%rbp)
    690b:	a5 c8 
    690d:	66 c7 85 fc f7 ff ff 	movw   $0xc8a5,-0x804(%rbp)
    6914:	a5 c8 
    6916:	66 c7 85 fe f7 ff ff 	movw   $0x4,-0x802(%rbp)
    691d:	04 00 
    691f:	66 c7 85 00 f8 ff ff 	movw   $0x4,-0x800(%rbp)
    6926:	04 00 
    6928:	66 c7 85 02 f8 ff ff 	movw   $0xc8a5,-0x7fe(%rbp)
    692f:	a5 c8 
    6931:	66 c7 85 04 f8 ff ff 	movw   $0xc8a5,-0x7fc(%rbp)
    6938:	a5 c8 
    693a:	66 c7 85 06 f8 ff ff 	movw   $0x4,-0x7fa(%rbp)
    6941:	04 00 
    6943:	66 c7 85 08 f8 ff ff 	movw   $0xfff8,-0x7f8(%rbp)
    694a:	f8 ff 
    694c:	66 c7 85 0a f8 ff ff 	movw   $0x1941,-0x7f6(%rbp)
    6953:	41 19 
    6955:	66 c7 85 0c f8 ff ff 	movw   $0xfff8,-0x7f4(%rbp)
    695c:	f8 ff 
    695e:	66 c7 85 0e f8 ff ff 	movw   $0x1941,-0x7f2(%rbp)
    6965:	41 19 
    6967:	66 c7 85 10 f8 ff ff 	movw   $0xfff8,-0x7f0(%rbp)
    696e:	f8 ff 
    6970:	66 c7 85 12 f8 ff ff 	movw   $0x1941,-0x7ee(%rbp)
    6977:	41 19 
    6979:	66 c7 85 14 f8 ff ff 	movw   $0xfff8,-0x7ec(%rbp)
    6980:	f8 ff 
    6982:	66 c7 85 16 f8 ff ff 	movw   $0x1941,-0x7ea(%rbp)
    6989:	41 19 
    698b:	66 c7 85 18 f8 ff ff 	movw   $0xfff8,-0x7e8(%rbp)
    6992:	f8 ff 
    6994:	66 c7 85 1a f8 ff ff 	movw   $0x4,-0x7e6(%rbp)
    699b:	04 00 
    699d:	66 c7 85 1c f8 ff ff 	movw   $0xc8a5,-0x7e4(%rbp)
    69a4:	a5 c8 
    69a6:	66 c7 85 1e f8 ff ff 	movw   $0xc8a5,-0x7e2(%rbp)
    69ad:	a5 c8 
    69af:	66 c7 85 20 f8 ff ff 	movw   $0x4,-0x7e0(%rbp)
    69b6:	04 00 
    69b8:	66 c7 85 22 f8 ff ff 	movw   $0x4,-0x7de(%rbp)
    69bf:	04 00 
    69c1:	66 c7 85 24 f8 ff ff 	movw   $0xc8a5,-0x7dc(%rbp)
    69c8:	a5 c8 
    69ca:	66 c7 85 26 f8 ff ff 	movw   $0xc8a5,-0x7da(%rbp)
    69d1:	a5 c8 
    69d3:	66 c7 85 28 f8 ff ff 	movw   $0x4,-0x7d8(%rbp)
    69da:	04 00 
    69dc:	66 c7 85 2a f8 ff ff 	movw   $0x4,-0x7d6(%rbp)
    69e3:	04 00 
    69e5:	66 c7 85 2c f8 ff ff 	movw   $0x94cf,-0x7d4(%rbp)
    69ec:	cf 94 
    69ee:	66 c7 85 2e f8 ff ff 	movw   $0x1941,-0x7d2(%rbp)
    69f5:	41 19 
    69f7:	66 c7 85 30 f8 ff ff 	movw   $0x94cf,-0x7d0(%rbp)
    69fe:	cf 94 
    6a00:	66 c7 85 32 f8 ff ff 	movw   $0x1941,-0x7ce(%rbp)
    6a07:	41 19 
    6a09:	66 c7 85 34 f8 ff ff 	movw   $0x94cf,-0x7cc(%rbp)
    6a10:	cf 94 
    6a12:	66 c7 85 36 f8 ff ff 	movw   $0x1941,-0x7ca(%rbp)
    6a19:	41 19 
    6a1b:	66 c7 85 38 f8 ff ff 	movw   $0x94cf,-0x7c8(%rbp)
    6a22:	cf 94 
    6a24:	66 c7 85 3a f8 ff ff 	movw   $0x1941,-0x7c6(%rbp)
    6a2b:	41 19 
    6a2d:	66 c7 85 3c f8 ff ff 	movw   $0x94cf,-0x7c4(%rbp)
    6a34:	cf 94 
    6a36:	48 8d 05 f3 05 01 00 	lea    0x105f3(%rip),%rax        # 17030 <g_26>
    6a3d:	48 89 85 28 f3 ff ff 	mov    %rax,-0xcd8(%rbp)
    6a44:	48 8d 85 28 f3 ff ff 	lea    -0xcd8(%rbp),%rax
    6a4b:	48 89 85 30 f3 ff ff 	mov    %rax,-0xcd0(%rbp)
    6a52:	48 8d 05 5f 28 01 00 	lea    0x1285f(%rip),%rax        # 192b8 <g_1603>
    6a59:	48 89 85 38 f3 ff ff 	mov    %rax,-0xcc8(%rbp)
    6a60:	48 b8 43 ad 0c a6 98 	movabs $0x5eeba298a60cad43,%rax
    6a67:	a2 eb 5e 
    6a6a:	48 89 85 40 f3 ff ff 	mov    %rax,-0xcc0(%rbp)
    6a71:	c7 85 64 f2 ff ff f5 	movl   $0x60da16f5,-0xd9c(%rbp)
    6a78:	16 da 60 
    6a7b:	c7 85 68 f2 ff ff 76 	movl   $0xc3dd7576,-0xd98(%rbp)
    6a82:	75 dd c3 
    6a85:	48 8d 05 2c 28 01 00 	lea    0x1282c(%rip),%rax        # 192b8 <g_1603>
    6a8c:	48 89 85 48 f3 ff ff 	mov    %rax,-0xcb8(%rbp)
    6a93:	48 8d 85 48 f3 ff ff 	lea    -0xcb8(%rbp),%rax
    6a9a:	48 89 85 50 f3 ff ff 	mov    %rax,-0xcb0(%rbp)
    6aa1:	48 8d 85 50 f3 ff ff 	lea    -0xcb0(%rbp),%rax
    6aa8:	48 89 85 90 f3 ff ff 	mov    %rax,-0xc70(%rbp)
    6aaf:	c7 85 6c f2 ff ff 9e 	movl   $0x678fe69e,-0xd94(%rbp)
    6ab6:	e6 8f 67 
    6ab9:	c7 85 c0 f2 ff ff ff 	movl   $0xffffffff,-0xd40(%rbp)
    6ac0:	ff ff ff 
    6ac3:	48 8d 85 10 fb ff ff 	lea    -0x4f0(%rbp),%rax
    6aca:	48 8d 15 8f c5 00 00 	lea    0xc58f(%rip),%rdx        # 13060 <g_1778+0x4>
    6ad1:	b9 3c 00 00 00       	mov    $0x3c,%ecx
    6ad6:	48 89 c7             	mov    %rax,%rdi
    6ad9:	48 89 d6             	mov    %rdx,%rsi
    6adc:	f3 48 a5             	rep movsq %ds:(%rsi),%es:(%rdi)
    6adf:	c7 85 20 f6 ff ff cf 	movl   $0x84a04acf,-0x9e0(%rbp)
    6ae6:	4a a0 84 
    6ae9:	c7 85 24 f6 ff ff cf 	movl   $0x84a04acf,-0x9dc(%rbp)
    6af0:	4a a0 84 
    6af3:	c7 85 28 f6 ff ff cf 	movl   $0x84a04acf,-0x9d8(%rbp)
    6afa:	4a a0 84 
    6afd:	c7 85 2c f6 ff ff cf 	movl   $0x84a04acf,-0x9d4(%rbp)
    6b04:	4a a0 84 
    6b07:	c7 85 30 f6 ff ff cf 	movl   $0x84a04acf,-0x9d0(%rbp)
    6b0e:	4a a0 84 
    6b11:	c7 85 34 f6 ff ff cf 	movl   $0x84a04acf,-0x9cc(%rbp)
    6b18:	4a a0 84 
    6b1b:	c7 85 38 f6 ff ff cf 	movl   $0x84a04acf,-0x9c8(%rbp)
    6b22:	4a a0 84 
    6b25:	66 c7 85 46 f2 ff ff 	movw   $0xfffb,-0xdba(%rbp)
    6b2c:	fb ff 
    6b2e:	48 8d 05 93 07 01 00 	lea    0x10793(%rip),%rax        # 172c8 <g_196+0x8>
    6b35:	48 89 85 98 f3 ff ff 	mov    %rax,-0xc68(%rbp)
    6b3c:	48 8d 05 91 12 01 00 	lea    0x11291(%rip),%rax        # 17dd4 <g_1326>
    6b43:	48 89 85 a0 f3 ff ff 	mov    %rax,-0xc60(%rbp)
    6b4a:	c6 85 3a f2 ff ff ac 	movb   $0xac,-0xdc6(%rbp)
    6b51:	c6 85 3b f2 ff ff 01 	movb   $0x1,-0xdc5(%rbp)
    6b58:	48 c7 85 a8 f3 ff ff 	movq   $0x0,-0xc58(%rbp)
    6b5f:	00 00 00 00 
    6b63:	c7 85 9c f2 ff ff 00 	movl   $0x0,-0xd64(%rbp)
    6b6a:	00 00 00 
    6b6d:	eb 71                	jmp    6be0 <func_1+0x42b>
    6b6f:	c7 85 a0 f2 ff ff 00 	movl   $0x0,-0xd60(%rbp)
    6b76:	00 00 00 
    6b79:	eb 55                	jmp    6bd0 <func_1+0x41b>
    6b7b:	c7 85 a4 f2 ff ff 00 	movl   $0x0,-0xd5c(%rbp)
    6b82:	00 00 00 
    6b85:	eb 39                	jmp    6bc0 <func_1+0x40b>
    6b87:	8b 85 a4 f2 ff ff    	mov    -0xd5c(%rbp),%eax
    6b8d:	48 98                	cltq   
    6b8f:	8b 95 9c f2 ff ff    	mov    -0xd64(%rbp),%edx
    6b95:	48 63 ca             	movslq %edx,%rcx
    6b98:	8b 95 a0 f2 ff ff    	mov    -0xd60(%rbp),%edx
    6b9e:	48 63 d2             	movslq %edx,%rdx
    6ba1:	48 01 ca             	add    %rcx,%rdx
    6ba4:	48 01 d2             	add    %rdx,%rdx
    6ba7:	48 01 d0             	add    %rdx,%rax
    6baa:	48 8d 15 af 34 01 00 	lea    0x134af(%rip),%rdx        # 1a060 <g_1053>
    6bb1:	48 89 94 c5 e0 f5 ff 	mov    %rdx,-0xa20(%rbp,%rax,8)
    6bb8:	ff 
    6bb9:	83 85 a4 f2 ff ff 01 	addl   $0x1,-0xd5c(%rbp)
    6bc0:	83 bd a4 f2 ff ff 01 	cmpl   $0x1,-0xd5c(%rbp)
    6bc7:	7e be                	jle    6b87 <func_1+0x3d2>
    6bc9:	83 85 a0 f2 ff ff 01 	addl   $0x1,-0xd60(%rbp)
    6bd0:	83 bd a0 f2 ff ff 00 	cmpl   $0x0,-0xd60(%rbp)
    6bd7:	7e a2                	jle    6b7b <func_1+0x3c6>
    6bd9:	83 85 9c f2 ff ff 01 	addl   $0x1,-0xd64(%rbp)
    6be0:	83 bd 9c f2 ff ff 00 	cmpl   $0x0,-0xd64(%rbp)
    6be7:	7e 86                	jle    6b6f <func_1+0x3ba>
    6be9:	c7 85 9c f2 ff ff 00 	movl   $0x0,-0xd64(%rbp)
    6bf0:	00 00 00 
    6bf3:	eb 1a                	jmp    6c0f <func_1+0x45a>
    6bf5:	8b 85 9c f2 ff ff    	mov    -0xd64(%rbp),%eax
    6bfb:	48 98                	cltq   
    6bfd:	c7 84 85 dc f5 ff ff 	movl   $0xb6b6544a,-0xa24(%rbp,%rax,4)
    6c04:	4a 54 b6 b6 
    6c08:	83 85 9c f2 ff ff 01 	addl   $0x1,-0xd64(%rbp)
    6c0f:	83 bd 9c f2 ff ff 00 	cmpl   $0x0,-0xd64(%rbp)
    6c16:	7e dd                	jle    6bf5 <func_1+0x440>
    6c18:	48 8b 05 79 25 01 00 	mov    0x12579(%rip),%rax        # 19198 <g_923>
    6c1f:	8b 18                	mov    (%rax),%ebx
    6c21:	8b 05 99 0e 01 00    	mov    0x10e99(%rip),%eax        # 17ac0 <g_875>
    6c27:	41 89 c4             	mov    %eax,%r12d
    6c2a:	8b 15 f4 03 01 00    	mov    0x103f4(%rip),%edx        # 17024 <g_11>
    6c30:	48 8b 85 80 f3 ff ff 	mov    -0xc80(%rbp),%rax
    6c37:	89 10                	mov    %edx,(%rax)
    6c39:	48 8b 85 80 f3 ff ff 	mov    -0xc80(%rbp),%rax
    6c40:	8b 00                	mov    (%rax),%eax
    6c42:	8b 15 dc 03 01 00    	mov    0x103dc(%rip),%edx        # 17024 <g_11>
    6c48:	89 c6                	mov    %eax,%esi
    6c4a:	89 d7                	mov    %edx,%edi
    6c4c:	e8 62 61 00 00       	callq  cdb3 <func_8>
    6c51:	89 c6                	mov    %eax,%esi
    6c53:	bf d0 9e a3 0a       	mov    $0xaa39ed0,%edi
    6c58:	e8 a2 ea ff ff       	callq  56ff <safe_div_func_int32_t_s_s>
    6c5d:	48 8b 05 b4 25 01 00 	mov    0x125b4(%rip),%rax        # 19218 <g_1052+0x78>
    6c64:	48 89 85 e8 f5 ff ff 	mov    %rax,-0xa18(%rbp)
    6c6b:	48 8b 85 80 f3 ff ff 	mov    -0xc80(%rbp),%rax
    6c72:	8b 00                	mov    (%rax),%eax
    6c74:	89 c1                	mov    %eax,%ecx
    6c76:	48 8b 85 80 f3 ff ff 	mov    -0xc80(%rbp),%rax
    6c7d:	8b 00                	mov    (%rax),%eax
    6c7f:	3d df 12 00 00       	cmp    $0x12df,%eax
    6c84:	0f 9e c0             	setle  %al
    6c87:	0f b6 d0             	movzbl %al,%edx
    6c8a:	8b 85 60 f2 ff ff    	mov    -0xda0(%rbp),%eax
    6c90:	39 c2                	cmp    %eax,%edx
    6c92:	0f 96 c0             	setbe  %al
    6c95:	0f b6 c0             	movzbl %al,%eax
    6c98:	31 c8                	xor    %ecx,%eax
    6c9a:	0f b7 c0             	movzwl %ax,%eax
    6c9d:	be 08 00 00 00       	mov    $0x8,%esi
    6ca2:	89 c7                	mov    %eax,%edi
    6ca4:	e8 9f f1 ff ff       	callq  5e48 <safe_rshift_func_uint16_t_u_s>
    6ca9:	48 8b 05 10 21 01 00 	mov    0x12110(%rip),%rax        # 18dc0 <g_671>
    6cb0:	c6 00 01             	movb   $0x1,(%rax)
    6cb3:	0f b6 00             	movzbl (%rax),%eax
    6cb6:	0f b6 c0             	movzbl %al,%eax
    6cb9:	89 da                	mov    %ebx,%edx
    6cbb:	44 89 e6             	mov    %r12d,%esi
    6cbe:	89 c7                	mov    %eax,%edi
    6cc0:	e8 b6 3b 00 00       	callq  a87b <func_2>
    6cc5:	48 85 c0             	test   %rax,%rax
    6cc8:	74 14                	je     6cde <func_1+0x529>
    6cca:	48 8b 85 80 f3 ff ff 	mov    -0xc80(%rbp),%rax
    6cd1:	8b 00                	mov    (%rax),%eax
    6cd3:	85 c0                	test   %eax,%eax
    6cd5:	74 07                	je     6cde <func_1+0x529>
    6cd7:	ba 01 00 00 00       	mov    $0x1,%edx
    6cdc:	eb 05                	jmp    6ce3 <func_1+0x52e>
    6cde:	ba 00 00 00 00       	mov    $0x0,%edx
    6ce3:	0f b7 85 12 f8 ff ff 	movzwl -0x7ee(%rbp),%eax
    6cea:	0f b7 c0             	movzwl %ax,%eax
    6ced:	39 c2                	cmp    %eax,%edx
    6cef:	0f 85 24 2a 00 00    	jne    9719 <func_1+0x2f64>
    6cf5:	48 c7 85 58 f3 ff ff 	movq   $0x0,-0xca8(%rbp)
    6cfc:	00 00 00 00 
    6d00:	48 8d 85 e0 f5 ff ff 	lea    -0xa20(%rbp),%rax
    6d07:	48 83 c0 08          	add    $0x8,%rax
    6d0b:	48 89 85 e8 f4 ff ff 	mov    %rax,-0xb18(%rbp)
    6d12:	c7 85 50 f9 ff ff fb 	movl   $0xfffffffb,-0x6b0(%rbp)
    6d19:	ff ff ff 
    6d1c:	c7 85 54 f9 ff ff 5f 	movl   $0x2115875f,-0x6ac(%rbp)
    6d23:	87 15 21 
    6d26:	c7 85 58 f9 ff ff 99 	movl   $0x9a37ac99,-0x6a8(%rbp)
    6d2d:	ac 37 9a 
    6d30:	c7 85 5c f9 ff ff 00 	movl   $0x0,-0x6a4(%rbp)
    6d37:	00 00 00 
    6d3a:	c7 85 60 f9 ff ff fc 	movl   $0xfffffffc,-0x6a0(%rbp)
    6d41:	ff ff ff 
    6d44:	c7 85 64 f9 ff ff 20 	movl   $0x57727420,-0x69c(%rbp)
    6d4b:	74 72 57 
    6d4e:	c7 85 68 f9 ff ff 01 	movl   $0x1,-0x698(%rbp)
    6d55:	00 00 00 
    6d58:	c7 85 6c f9 ff ff 00 	movl   $0x0,-0x694(%rbp)
    6d5f:	00 00 00 
    6d62:	c7 85 70 f9 ff ff ff 	movl   $0xffffffff,-0x690(%rbp)
    6d69:	ff ff ff 
    6d6c:	c7 85 74 f9 ff ff 1c 	movl   $0xb181291c,-0x68c(%rbp)
    6d73:	29 81 b1 
    6d76:	c7 85 78 f9 ff ff 1c 	movl   $0xb181291c,-0x688(%rbp)
    6d7d:	29 81 b1 
    6d80:	c7 85 7c f9 ff ff a0 	movl   $0xd56c55a0,-0x684(%rbp)
    6d87:	55 6c d5 
    6d8a:	c7 85 80 f9 ff ff f3 	movl   $0x62560ef3,-0x680(%rbp)
    6d91:	0e 56 62 
    6d94:	c7 85 84 f9 ff ff 5f 	movl   $0x2115875f,-0x67c(%rbp)
    6d9b:	87 15 21 
    6d9e:	c7 85 88 f9 ff ff fc 	movl   $0xfffffffc,-0x678(%rbp)
    6da5:	ff ff ff 
    6da8:	c7 85 8c f9 ff ff 99 	movl   $0x9a37ac99,-0x674(%rbp)
    6daf:	ac 37 9a 
    6db2:	c7 85 90 f9 ff ff ff 	movl   $0xffffffff,-0x670(%rbp)
    6db9:	ff ff ff 
    6dbc:	c7 85 94 f9 ff ff ff 	movl   $0xffffffff,-0x66c(%rbp)
    6dc3:	ff ff ff 
    6dc6:	c7 85 98 f9 ff ff 99 	movl   $0x9a37ac99,-0x668(%rbp)
    6dcd:	ac 37 9a 
    6dd0:	c7 85 9c f9 ff ff a0 	movl   $0xd56c55a0,-0x664(%rbp)
    6dd7:	55 6c d5 
    6dda:	c7 85 a0 f9 ff ff fc 	movl   $0xfffffffc,-0x660(%rbp)
    6de1:	ff ff ff 
    6de4:	c7 85 a4 f9 ff ff ff 	movl   $0xffffffff,-0x65c(%rbp)
    6deb:	ff ff ff 
    6dee:	c7 85 a8 f9 ff ff 07 	movl   $0x7,-0x658(%rbp)
    6df5:	00 00 00 
    6df8:	c7 85 ac f9 ff ff fb 	movl   $0xfffffffb,-0x654(%rbp)
    6dff:	ff ff ff 
    6e02:	c7 85 b0 f9 ff ff 99 	movl   $0x9a37ac99,-0x650(%rbp)
    6e09:	ac 37 9a 
    6e0c:	c7 85 b4 f9 ff ff 5f 	movl   $0x2115875f,-0x64c(%rbp)
    6e13:	87 15 21 
    6e16:	c7 85 b8 f9 ff ff a0 	movl   $0xd56c55a0,-0x648(%rbp)
    6e1d:	55 6c d5 
    6e20:	c7 85 bc f9 ff ff fc 	movl   $0xfffffffc,-0x644(%rbp)
    6e27:	ff ff ff 
    6e2a:	c7 85 c0 f9 ff ff 01 	movl   $0x1,-0x640(%rbp)
    6e31:	00 00 00 
    6e34:	c7 85 c4 f9 ff ff 09 	movl   $0xb0280709,-0x63c(%rbp)
    6e3b:	07 28 b0 
    6e3e:	c7 85 c8 f9 ff ff 07 	movl   $0x7,-0x638(%rbp)
    6e45:	00 00 00 
    6e48:	c7 85 cc f9 ff ff 01 	movl   $0x1,-0x634(%rbp)
    6e4f:	00 00 00 
    6e52:	c7 85 d0 f9 ff ff 65 	movl   $0x17ecd765,-0x630(%rbp)
    6e59:	d7 ec 17 
    6e5c:	c7 85 d4 f9 ff ff fb 	movl   $0xfffffffb,-0x62c(%rbp)
    6e63:	ff ff ff 
    6e66:	c7 85 d8 f9 ff ff fb 	movl   $0xfffffffb,-0x628(%rbp)
    6e6d:	ff ff ff 
    6e70:	c7 85 dc f9 ff ff 01 	movl   $0x1,-0x624(%rbp)
    6e77:	00 00 00 
    6e7a:	c7 85 e0 f9 ff ff 5f 	movl   $0x2115875f,-0x620(%rbp)
    6e81:	87 15 21 
    6e84:	c7 85 e4 f9 ff ff 01 	movl   $0x1,-0x61c(%rbp)
    6e8b:	00 00 00 
    6e8e:	c7 85 e8 f9 ff ff 99 	movl   $0x9a37ac99,-0x618(%rbp)
    6e95:	ac 37 9a 
    6e98:	c7 85 ec f9 ff ff 18 	movl   $0x185e2918,-0x614(%rbp)
    6e9f:	29 5e 18 
    6ea2:	c7 85 f0 f9 ff ff 01 	movl   $0x1,-0x610(%rbp)
    6ea9:	00 00 00 
    6eac:	c7 85 f4 f9 ff ff 54 	movl   $0x6b68bf54,-0x60c(%rbp)
    6eb3:	bf 68 6b 
    6eb6:	c7 85 f8 f9 ff ff 01 	movl   $0x1,-0x608(%rbp)
    6ebd:	00 00 00 
    6ec0:	c7 85 fc f9 ff ff 5f 	movl   $0x2115875f,-0x604(%rbp)
    6ec7:	87 15 21 
    6eca:	c7 85 00 fa ff ff 00 	movl   $0x0,-0x600(%rbp)
    6ed1:	00 00 00 
    6ed4:	c7 85 04 fa ff ff 07 	movl   $0x7,-0x5fc(%rbp)
    6edb:	00 00 00 
    6ede:	c7 85 08 fa ff ff 65 	movl   $0x17ecd765,-0x5f8(%rbp)
    6ee5:	d7 ec 17 
    6ee8:	c7 85 0c fa ff ff a0 	movl   $0xd56c55a0,-0x5f4(%rbp)
    6eef:	55 6c d5 
    6ef2:	c7 85 10 fa ff ff ff 	movl   $0xffffffff,-0x5f0(%rbp)
    6ef9:	ff ff ff 
    6efc:	c7 85 14 fa ff ff fb 	movl   $0xfffffffb,-0x5ec(%rbp)
    6f03:	ff ff ff 
    6f06:	66 c7 85 52 f2 ff ff 	movw   $0x0,-0xdae(%rbp)
    6f0d:	00 00 
    6f0f:	48 8d 05 ca 30 01 00 	lea    0x130ca(%rip),%rax        # 19fe0 <g_582>
    6f16:	48 89 85 f0 f4 ff ff 	mov    %rax,-0xb10(%rbp)
    6f1d:	48 c7 85 60 f3 ff ff 	movq   $0x0,-0xca0(%rbp)
    6f24:	00 00 00 00 
    6f28:	c7 85 a8 f2 ff ff 3f 	movl   $0x137a613f,-0xd58(%rbp)
    6f2f:	61 7a 13 
    6f32:	48 c7 85 f8 f4 ff ff 	movq   $0x0,-0xb08(%rbp)
    6f39:	00 00 00 00 
    6f3d:	48 c7 85 00 f5 ff ff 	movq   $0x0,-0xb00(%rbp)
    6f44:	00 00 00 00 
    6f48:	48 8d 05 79 03 01 00 	lea    0x10379(%rip),%rax        # 172c8 <g_196+0x8>
    6f4f:	48 89 85 08 f5 ff ff 	mov    %rax,-0xaf8(%rbp)
    6f56:	48 8d 05 cb 1f 01 00 	lea    0x11fcb(%rip),%rax        # 18f28 <g_728+0x8>
    6f5d:	48 89 85 10 f5 ff ff 	mov    %rax,-0xaf0(%rbp)
    6f64:	48 8d 05 85 04 01 00 	lea    0x10485(%rip),%rax        # 173f0 <g_612>
    6f6b:	48 89 85 18 f5 ff ff 	mov    %rax,-0xae8(%rbp)
    6f72:	48 b8 2b 21 bd aa 34 	movabs $0xf8963234aabd212b,%rax
    6f79:	32 96 f8 
    6f7c:	48 89 85 20 f5 ff ff 	mov    %rax,-0xae0(%rbp)
    6f83:	48 8d 05 ba 06 01 00 	lea    0x106ba(%rip),%rax        # 17644 <g_857+0x4>
    6f8a:	48 89 85 28 f5 ff ff 	mov    %rax,-0xad8(%rbp)
    6f91:	48 8d 85 38 f3 ff ff 	lea    -0xcc8(%rbp),%rax
    6f98:	48 89 85 20 f7 ff ff 	mov    %rax,-0x8e0(%rbp)
    6f9f:	48 8d 85 38 f3 ff ff 	lea    -0xcc8(%rbp),%rax
    6fa6:	48 89 85 28 f7 ff ff 	mov    %rax,-0x8d8(%rbp)
    6fad:	48 8d 85 38 f3 ff ff 	lea    -0xcc8(%rbp),%rax
    6fb4:	48 89 85 30 f7 ff ff 	mov    %rax,-0x8d0(%rbp)
    6fbb:	48 8d 85 38 f3 ff ff 	lea    -0xcc8(%rbp),%rax
    6fc2:	48 89 85 38 f7 ff ff 	mov    %rax,-0x8c8(%rbp)
    6fc9:	48 8d 85 38 f3 ff ff 	lea    -0xcc8(%rbp),%rax
    6fd0:	48 89 85 40 f7 ff ff 	mov    %rax,-0x8c0(%rbp)
    6fd7:	48 8d 85 38 f3 ff ff 	lea    -0xcc8(%rbp),%rax
    6fde:	48 89 85 48 f7 ff ff 	mov    %rax,-0x8b8(%rbp)
    6fe5:	48 8d 85 38 f3 ff ff 	lea    -0xcc8(%rbp),%rax
    6fec:	48 89 85 50 f7 ff ff 	mov    %rax,-0x8b0(%rbp)
    6ff3:	48 8d 85 38 f3 ff ff 	lea    -0xcc8(%rbp),%rax
    6ffa:	48 89 85 58 f7 ff ff 	mov    %rax,-0x8a8(%rbp)
    7001:	48 8d 85 38 f3 ff ff 	lea    -0xcc8(%rbp),%rax
    7008:	48 89 85 60 f7 ff ff 	mov    %rax,-0x8a0(%rbp)
    700f:	c6 85 3e f2 ff ff 87 	movb   $0x87,-0xdc2(%rbp)
    7016:	66 c7 85 48 f2 ff ff 	movw   $0x962c,-0xdb8(%rbp)
    701d:	2c 96 
    701f:	c7 05 ab 06 01 00 00 	movl   $0x0,0x106ab(%rip)        # 176d4 <g_870>
    7026:	00 00 00 
    7029:	e9 a8 01 00 00       	jmpq   71d6 <func_1+0xa21>
    702e:	66 c7 85 5e f2 ff ff 	movw   $0x1,-0xda2(%rbp)
    7035:	01 00 
    7037:	48 8d 85 c0 f7 ff ff 	lea    -0x840(%rbp),%rax
    703e:	48 83 c0 52          	add    $0x52,%rax
    7042:	48 89 85 c8 f5 ff ff 	mov    %rax,-0xa38(%rbp)
    7049:	48 8d 05 70 1d 01 00 	lea    0x11d70(%rip),%rax        # 18dc0 <g_671>
    7050:	48 89 85 f0 fc ff ff 	mov    %rax,-0x310(%rbp)
    7057:	48 8d 05 62 1d 01 00 	lea    0x11d62(%rip),%rax        # 18dc0 <g_671>
    705e:	48 89 85 f8 fc ff ff 	mov    %rax,-0x308(%rbp)
    7065:	48 8d 05 54 1d 01 00 	lea    0x11d54(%rip),%rax        # 18dc0 <g_671>
    706c:	48 89 85 00 fd ff ff 	mov    %rax,-0x300(%rbp)
    7073:	48 8d 05 46 1d 01 00 	lea    0x11d46(%rip),%rax        # 18dc0 <g_671>
    707a:	48 89 85 08 fd ff ff 	mov    %rax,-0x2f8(%rbp)
    7081:	48 8d 05 38 1d 01 00 	lea    0x11d38(%rip),%rax        # 18dc0 <g_671>
    7088:	48 89 85 10 fd ff ff 	mov    %rax,-0x2f0(%rbp)
    708f:	48 8d 05 2a 1d 01 00 	lea    0x11d2a(%rip),%rax        # 18dc0 <g_671>
    7096:	48 89 85 18 fd ff ff 	mov    %rax,-0x2e8(%rbp)
    709d:	48 8d 05 1c 1d 01 00 	lea    0x11d1c(%rip),%rax        # 18dc0 <g_671>
    70a4:	48 89 85 20 fd ff ff 	mov    %rax,-0x2e0(%rbp)
    70ab:	48 8d 05 0e 1d 01 00 	lea    0x11d0e(%rip),%rax        # 18dc0 <g_671>
    70b2:	48 89 85 28 fd ff ff 	mov    %rax,-0x2d8(%rbp)
    70b9:	48 8d 05 00 1d 01 00 	lea    0x11d00(%rip),%rax        # 18dc0 <g_671>
    70c0:	48 89 85 30 fd ff ff 	mov    %rax,-0x2d0(%rbp)
    70c7:	48 8d 05 f2 1c 01 00 	lea    0x11cf2(%rip),%rax        # 18dc0 <g_671>
    70ce:	48 89 85 38 fd ff ff 	mov    %rax,-0x2c8(%rbp)
    70d5:	48 8d 85 f0 fc ff ff 	lea    -0x310(%rbp),%rax
    70dc:	48 83 c0 28          	add    $0x28,%rax
    70e0:	48 89 85 d0 f5 ff ff 	mov    %rax,-0xa30(%rbp)
    70e7:	8b 9d 08 fa ff ff    	mov    -0x5f8(%rbp),%ebx
    70ed:	48 8b 85 58 f3 ff ff 	mov    -0xca8(%rbp),%rax
    70f4:	98                   	cwtl   
    70f5:	be 01 00 00 00       	mov    $0x1,%esi
    70fa:	89 c7                	mov    %eax,%edi
    70fc:	e8 f4 e2 ff ff       	callq  53f5 <safe_mul_func_int16_t_s_s>
    7101:	48 8b 85 e8 f4 ff ff 	mov    -0xb18(%rbp),%rax
    7108:	48 89 05 81 21 01 00 	mov    %rax,0x12181(%rip)        # 19290 <g_1487>
    710f:	48 8b 05 7a 21 01 00 	mov    0x1217a(%rip),%rax        # 19290 <g_1487>
    7116:	48 8d 15 83 20 01 00 	lea    0x12083(%rip),%rdx        # 191a0 <g_1052>
    711d:	48 39 d0             	cmp    %rdx,%rax
    7120:	0f 94 c0             	sete   %al
    7123:	44 0f b6 e0          	movzbl %al,%r12d
    7127:	be 00 00 00 00       	mov    $0x0,%esi
    712c:	bf 00 00 00 00       	mov    $0x0,%edi
    7131:	e8 7d e2 ff ff       	callq  53b3 <safe_add_func_int16_t_s_s>
    7136:	98                   	cwtl   
    7137:	44 89 e6             	mov    %r12d,%esi
    713a:	89 c7                	mov    %eax,%edi
    713c:	e8 77 ed ff ff       	callq  5eb8 <safe_add_func_uint32_t_u_u>
    7141:	85 c0                	test   %eax,%eax
    7143:	74 4d                	je     7192 <func_1+0x9dd>
    7145:	48 8b 85 58 f3 ff ff 	mov    -0xca8(%rbp),%rax
    714c:	0f b7 d0             	movzwl %ax,%edx
    714f:	48 8b 85 c8 f5 ff ff 	mov    -0xa38(%rbp),%rax
    7156:	0f b7 8d 5e f2 ff ff 	movzwl -0xda2(%rbp),%ecx
    715d:	66 89 08             	mov    %cx,(%rax)
    7160:	48 8b 85 c8 f5 ff ff 	mov    -0xa38(%rbp),%rax
    7167:	0f b7 00             	movzwl (%rax),%eax
    716a:	0f b7 c0             	movzwl %ax,%eax
    716d:	89 d6                	mov    %edx,%esi
    716f:	89 c7                	mov    %eax,%edi
    7171:	e8 18 ec ff ff       	callq  5d8e <safe_div_func_uint16_t_u_u>
    7176:	0f b7 c0             	movzwl %ax,%eax
    7179:	be 05 00 00 00       	mov    $0x5,%esi
    717e:	48 89 c7             	mov    %rax,%rdi
    7181:	e8 29 ef ff ff       	callq  60af <safe_div_func_uint64_t_u_u>
    7186:	48 85 c0             	test   %rax,%rax
    7189:	74 07                	je     7192 <func_1+0x9dd>
    718b:	b8 01 00 00 00       	mov    $0x1,%eax
    7190:	eb 05                	jmp    7197 <func_1+0x9e2>
    7192:	b8 00 00 00 00       	mov    $0x0,%eax
    7197:	98                   	cwtl   
    7198:	89 de                	mov    %ebx,%esi
    719a:	89 c7                	mov    %eax,%edi
    719c:	e8 f1 e2 ff ff       	callq  5492 <safe_lshift_func_int16_t_s_s>
    71a1:	48 8b 95 80 f3 ff ff 	mov    -0xc80(%rbp),%rdx
    71a8:	8b 12                	mov    (%rdx),%edx
    71aa:	98                   	cwtl   
    71ab:	31 c2                	xor    %eax,%edx
    71ad:	48 8b 85 80 f3 ff ff 	mov    -0xc80(%rbp),%rax
    71b4:	89 10                	mov    %edx,(%rax)
    71b6:	48 8b 85 d0 f5 ff ff 	mov    -0xa30(%rbp),%rax
    71bd:	48 8d 15 fc 1b 01 00 	lea    0x11bfc(%rip),%rdx        # 18dc0 <g_671>
    71c4:	48 89 10             	mov    %rdx,(%rax)
    71c7:	8b 05 07 05 01 00    	mov    0x10507(%rip),%eax        # 176d4 <g_870>
    71cd:	83 c0 01             	add    $0x1,%eax
    71d0:	89 05 fe 04 01 00    	mov    %eax,0x104fe(%rip)        # 176d4 <g_870>
    71d6:	8b 05 f8 04 01 00    	mov    0x104f8(%rip),%eax        # 176d4 <g_870>
    71dc:	83 f8 06             	cmp    $0x6,%eax
    71df:	0f 85 49 fe ff ff    	jne    702e <func_1+0x879>
    71e5:	90                   	nop
    71e6:	0f b7 85 52 f2 ff ff 	movzwl -0xdae(%rbp),%eax
    71ed:	0f b7 c0             	movzwl %ax,%eax
    71f0:	89 c7                	mov    %eax,%edi
    71f2:	e8 f2 ea ff ff       	callq  5ce9 <safe_unary_minus_func_uint16_t_u>
    71f7:	0f b7 c0             	movzwl %ax,%eax
    71fa:	be 08 00 00 00       	mov    $0x8,%esi
    71ff:	48 89 c7             	mov    %rax,%rdi
    7202:	e8 ad e7 ff ff       	callq  59b4 <safe_mod_func_int64_t_s_s>
    7207:	be 05 00 00 00       	mov    $0x5,%esi
    720c:	bf 93 ff ff ff       	mov    $0xffffff93,%edi
    7211:	e8 d8 e0 ff ff       	callq  52ee <safe_lshift_func_int8_t_s_u>
    7216:	0f be c0             	movsbl %al,%eax
    7219:	89 c6                	mov    %eax,%esi
    721b:	bf be ff ff ff       	mov    $0xffffffbe,%edi
    7220:	e8 c9 e0 ff ff       	callq  52ee <safe_lshift_func_int8_t_s_u>
    7225:	0f be d0             	movsbl %al,%edx
    7228:	48 8b 85 f0 f4 ff ff 	mov    -0xb10(%rbp),%rax
    722f:	48 89 85 60 f3 ff ff 	mov    %rax,-0xca0(%rbp)
    7236:	48 8b 85 60 f3 ff ff 	mov    -0xca0(%rbp),%rax
    723d:	48 39 85 f0 f4 ff ff 	cmp    %rax,-0xb10(%rbp)
    7244:	0f 94 c0             	sete   %al
    7247:	0f b6 c8             	movzbl %al,%ecx
    724a:	0f b7 05 5f 00 01 00 	movzwl 0x1005f(%rip),%eax        # 172b0 <g_156>
    7251:	98                   	cwtl   
    7252:	39 c1                	cmp    %eax,%ecx
    7254:	0f 94 c0             	sete   %al
    7257:	0f b6 c8             	movzbl %al,%ecx
    725a:	48 8b 85 58 f3 ff ff 	mov    -0xca8(%rbp),%rax
    7261:	48 39 c1             	cmp    %rax,%rcx
    7264:	0f 9d c0             	setge  %al
    7267:	0f b6 c0             	movzbl %al,%eax
    726a:	39 c2                	cmp    %eax,%edx
    726c:	0f 95 c0             	setne  %al
    726f:	0f b6 c0             	movzbl %al,%eax
    7272:	89 85 a8 f2 ff ff    	mov    %eax,-0xd58(%rbp)
    7278:	8b 95 08 fa ff ff    	mov    -0x5f8(%rbp),%edx
    727e:	48 8b 85 80 f3 ff ff 	mov    -0xc80(%rbp),%rax
    7285:	8b 00                	mov    (%rax),%eax
    7287:	09 c2                	or     %eax,%edx
    7289:	48 8b 85 80 f3 ff ff 	mov    -0xc80(%rbp),%rax
    7290:	89 10                	mov    %edx,(%rax)
    7292:	48 8d 85 50 f9 ff ff 	lea    -0x6b0(%rbp),%rax
    7299:	48 05 b8 00 00 00    	add    $0xb8,%rax
    729f:	48 89 05 f2 1f 01 00 	mov    %rax,0x11ff2(%rip)        # 19298 <g_1513>
    72a6:	c6 05 44 01 01 00 00 	movb   $0x0,0x10144(%rip)        # 173f1 <g_653>
    72ad:	e9 53 24 00 00       	jmpq   9705 <func_1+0x2f50>
    72b2:	66 c7 85 54 f2 ff ff 	movw   $0xfff8,-0xdac(%rbp)
    72b9:	f8 ff 
    72bb:	48 8d 05 b2 03 01 00 	lea    0x103b2(%rip),%rax        # 17674 <g_861>
    72c2:	48 89 85 60 f6 ff ff 	mov    %rax,-0x9a0(%rbp)
    72c9:	48 8d 05 a4 03 01 00 	lea    0x103a4(%rip),%rax        # 17674 <g_861>
    72d0:	48 89 85 68 f6 ff ff 	mov    %rax,-0x998(%rbp)
    72d7:	48 8d 05 96 03 01 00 	lea    0x10396(%rip),%rax        # 17674 <g_861>
    72de:	48 89 85 70 f6 ff ff 	mov    %rax,-0x990(%rbp)
    72e5:	48 8d 05 88 03 01 00 	lea    0x10388(%rip),%rax        # 17674 <g_861>
    72ec:	48 89 85 78 f6 ff ff 	mov    %rax,-0x988(%rbp)
    72f3:	c7 85 80 f6 ff ff 01 	movl   $0x1,-0x980(%rbp)
    72fa:	00 00 00 
    72fd:	c7 85 84 f6 ff ff e1 	movl   $0x858eb3e1,-0x97c(%rbp)
    7304:	b3 8e 85 
    7307:	c7 85 88 f6 ff ff 01 	movl   $0x1,-0x978(%rbp)
    730e:	00 00 00 
    7311:	c7 85 8c f6 ff ff 01 	movl   $0x1,-0x974(%rbp)
    7318:	00 00 00 
    731b:	c7 85 90 f6 ff ff e1 	movl   $0x858eb3e1,-0x970(%rbp)
    7322:	b3 8e 85 
    7325:	c7 85 94 f6 ff ff 01 	movl   $0x1,-0x96c(%rbp)
    732c:	00 00 00 
    732f:	c7 85 98 f6 ff ff 01 	movl   $0x1,-0x968(%rbp)
    7336:	00 00 00 
    7339:	c7 85 9c f6 ff ff e1 	movl   $0x858eb3e1,-0x964(%rbp)
    7340:	b3 8e 85 
    7343:	c7 85 a0 f6 ff ff 01 	movl   $0x1,-0x960(%rbp)
    734a:	00 00 00 
    734d:	c7 85 a4 f6 ff ff 01 	movl   $0x1,-0x95c(%rbp)
    7354:	00 00 00 
    7357:	c7 85 a8 f6 ff ff e1 	movl   $0x858eb3e1,-0x958(%rbp)
    735e:	b3 8e 85 
    7361:	c7 85 ac f6 ff ff 01 	movl   $0x1,-0x954(%rbp)
    7368:	00 00 00 
    736b:	48 c7 85 30 f5 ff ff 	movq   $0x0,-0xad0(%rbp)
    7372:	00 00 00 00 
    7376:	c7 85 40 f6 ff ff ff 	movl   $0xffffffff,-0x9c0(%rbp)
    737d:	ff ff ff 
    7380:	c7 85 44 f6 ff ff ff 	movl   $0xffffffff,-0x9bc(%rbp)
    7387:	ff ff ff 
    738a:	c7 85 48 f6 ff ff ff 	movl   $0xffffffff,-0x9b8(%rbp)
    7391:	ff ff ff 
    7394:	c7 85 4c f6 ff ff ff 	movl   $0xffffffff,-0x9b4(%rbp)
    739b:	ff ff ff 
    739e:	c7 85 50 f6 ff ff ff 	movl   $0xffffffff,-0x9b0(%rbp)
    73a5:	ff ff ff 
    73a8:	c7 85 54 f6 ff ff ff 	movl   $0xffffffff,-0x9ac(%rbp)
    73af:	ff ff ff 
    73b2:	c7 85 58 f6 ff ff ff 	movl   $0xffffffff,-0x9a8(%rbp)
    73b9:	ff ff ff 
    73bc:	48 c7 85 68 f3 ff ff 	movq   $0x0,-0xc98(%rbp)
    73c3:	00 00 00 00 
    73c7:	48 8d 85 68 f3 ff ff 	lea    -0xc98(%rbp),%rax
    73ce:	48 89 85 70 f3 ff ff 	mov    %rax,-0xc90(%rbp)
    73d5:	48 8d 85 70 f3 ff ff 	lea    -0xc90(%rbp),%rax
    73dc:	48 89 85 38 f5 ff ff 	mov    %rax,-0xac8(%rbp)
    73e3:	48 b8 47 af 85 9f a1 	movabs $0x420daca19f85af47,%rax
    73ea:	ac 0d 42 
    73ed:	48 89 85 40 f5 ff ff 	mov    %rax,-0xac0(%rbp)
    73f4:	c7 85 ac f2 ff ff 00 	movl   $0x0,-0xd54(%rbp)
    73fb:	00 00 00 
    73fe:	eb 1e                	jmp    741e <func_1+0xc69>
    7400:	8b 85 ac f2 ff ff    	mov    -0xd54(%rbp),%eax
    7406:	48 98                	cltq   
    7408:	48 8d 95 60 f3 ff ff 	lea    -0xca0(%rbp),%rdx
    740f:	48 89 94 c5 00 f6 ff 	mov    %rdx,-0xa00(%rbp,%rax,8)
    7416:	ff 
    7417:	83 85 ac f2 ff ff 01 	addl   $0x1,-0xd54(%rbp)
    741e:	83 bd ac f2 ff ff 02 	cmpl   $0x2,-0xd54(%rbp)
    7425:	7e d9                	jle    7400 <func_1+0xc4b>
    7427:	c7 85 ac f2 ff ff 00 	movl   $0x0,-0xd54(%rbp)
    742e:	00 00 00 
    7431:	eb 4f                	jmp    7482 <func_1+0xccd>
    7433:	c7 85 b0 f2 ff ff 00 	movl   $0x0,-0xd50(%rbp)
    743a:	00 00 00 
    743d:	eb 33                	jmp    7472 <func_1+0xcbd>
    743f:	8b 85 b0 f2 ff ff    	mov    -0xd50(%rbp),%eax
    7445:	48 63 c8             	movslq %eax,%rcx
    7448:	8b 85 ac f2 ff ff    	mov    -0xd54(%rbp),%eax
    744e:	48 63 d0             	movslq %eax,%rdx
    7451:	48 89 d0             	mov    %rdx,%rax
    7454:	48 01 c0             	add    %rax,%rax
    7457:	48 01 d0             	add    %rdx,%rax
    745a:	48 01 c0             	add    %rax,%rax
    745d:	48 01 c8             	add    %rcx,%rax
    7460:	c7 84 85 70 f7 ff ff 	movl   $0x1,-0x890(%rbp,%rax,4)
    7467:	01 00 00 00 
    746b:	83 85 b0 f2 ff ff 01 	addl   $0x1,-0xd50(%rbp)
    7472:	83 bd b0 f2 ff ff 05 	cmpl   $0x5,-0xd50(%rbp)
    7479:	7e c4                	jle    743f <func_1+0xc8a>
    747b:	83 85 ac f2 ff ff 01 	addl   $0x1,-0xd54(%rbp)
    7482:	83 bd ac f2 ff ff 02 	cmpl   $0x2,-0xd54(%rbp)
    7489:	7e a8                	jle    7433 <func_1+0xc7e>
    748b:	8b 05 1f 02 01 00    	mov    0x1021f(%rip),%eax        # 176b0 <g_867>
    7491:	0f be c0             	movsbl %al,%eax
    7494:	be 41 00 00 00       	mov    $0x41,%esi
    7499:	89 c7                	mov    %eax,%edi
    749b:	e8 72 dd ff ff       	callq  5212 <safe_mul_func_int8_t_s_s>
    74a0:	84 c0                	test   %al,%al
    74a2:	0f 84 a7 01 00 00    	je     764f <func_1+0xe9a>
    74a8:	c6 85 40 f2 ff ff 01 	movb   $0x1,-0xdc0(%rbp)
    74af:	c7 05 bb 01 01 00 07 	movl   $0x7,0x101bb(%rip)        # 17674 <g_861>
    74b6:	00 00 00 
    74b9:	e9 7d 01 00 00       	jmpq   763b <func_1+0xe86>
    74be:	c7 85 20 fa ff ff 16 	movl   $0xafaebe16,-0x5e0(%rbp)
    74c5:	be ae af 
    74c8:	c7 85 24 fa ff ff 16 	movl   $0xafaebe16,-0x5dc(%rbp)
    74cf:	be ae af 
    74d2:	c7 85 28 fa ff ff 16 	movl   $0xafaebe16,-0x5d8(%rbp)
    74d9:	be ae af 
    74dc:	c7 85 2c fa ff ff 16 	movl   $0xafaebe16,-0x5d4(%rbp)
    74e3:	be ae af 
    74e6:	c7 85 30 fa ff ff 16 	movl   $0xafaebe16,-0x5d0(%rbp)
    74ed:	be ae af 
    74f0:	c7 85 34 fa ff ff 16 	movl   $0xafaebe16,-0x5cc(%rbp)
    74f7:	be ae af 
    74fa:	c7 85 38 fa ff ff 16 	movl   $0xafaebe16,-0x5c8(%rbp)
    7501:	be ae af 
    7504:	c7 85 f0 fc ff ff 16 	movl   $0x86034016,-0x310(%rbp)
    750b:	40 03 86 
    750e:	c7 85 f4 fc ff ff 16 	movl   $0x86034016,-0x30c(%rbp)
    7515:	40 03 86 
    7518:	c7 85 f8 fc ff ff 16 	movl   $0x86034016,-0x308(%rbp)
    751f:	40 03 86 
    7522:	c7 85 fc fc ff ff 16 	movl   $0x86034016,-0x304(%rbp)
    7529:	40 03 86 
    752c:	c7 85 00 fd ff ff 16 	movl   $0x86034016,-0x300(%rbp)
    7533:	40 03 86 
    7536:	c7 85 04 fd ff ff 00 	movl   $0x0,-0x2fc(%rbp)
    753d:	00 00 00 
    7540:	c7 85 08 fd ff ff 00 	movl   $0x0,-0x2f8(%rbp)
    7547:	00 00 00 
    754a:	c7 85 0c fd ff ff 00 	movl   $0x0,-0x2f4(%rbp)
    7551:	00 00 00 
    7554:	c7 85 10 fd ff ff 00 	movl   $0x0,-0x2f0(%rbp)
    755b:	00 00 00 
    755e:	c7 85 14 fd ff ff 00 	movl   $0x0,-0x2ec(%rbp)
    7565:	00 00 00 
    7568:	48 8b 05 59 2a 01 00 	mov    0x12a59(%rip),%rax        # 19fc8 <g_28>
    756f:	48 85 c0             	test   %rax,%rax
    7572:	74 05                	je     7579 <func_1+0xdc4>
    7574:	e9 6d fc ff ff       	jmpq   71e6 <func_1+0xa31>
    7579:	0f b6 9d 40 f2 ff ff 	movzbl -0xdc0(%rbp),%ebx
    7580:	0f b6 85 40 f2 ff ff 	movzbl -0xdc0(%rbp),%eax
    7587:	be 0f 00 00 00       	mov    $0xf,%esi
    758c:	89 c7                	mov    %eax,%edi
    758e:	e8 73 e8 ff ff       	callq  5e06 <safe_lshift_func_uint16_t_u_u>
    7593:	66 89 85 54 f2 ff ff 	mov    %ax,-0xdac(%rbp)
    759a:	0f b7 85 54 f2 ff ff 	movzwl -0xdac(%rbp),%eax
    75a1:	0f b6 c0             	movzbl %al,%eax
    75a4:	89 de                	mov    %ebx,%esi
    75a6:	89 c7                	mov    %eax,%edi
    75a8:	e8 2e e6 ff ff       	callq  5bdb <safe_div_func_uint8_t_u_u>
    75ad:	0f b6 c0             	movzbl %al,%eax
    75b0:	f7 d0                	not    %eax
    75b2:	41 89 c4             	mov    %eax,%r12d
    75b5:	48 8d 05 7c 2a 01 00 	lea    0x12a7c(%rip),%rax        # 1a038 <g_949+0x8>
    75bc:	48 39 85 08 f5 ff ff 	cmp    %rax,-0xaf8(%rbp)
    75c3:	0f 94 c0             	sete   %al
    75c6:	0f b6 d8             	movzbl %al,%ebx
    75c9:	be 01 00 00 00       	mov    $0x1,%esi
    75ce:	bf 6d c3 ff ff       	mov    $0xffffc36d,%edi
    75d3:	e8 1d de ff ff       	callq  53f5 <safe_mul_func_int16_t_s_s>
    75d8:	98                   	cwtl   
    75d9:	31 d8                	xor    %ebx,%eax
    75db:	85 c0                	test   %eax,%eax
    75dd:	0f 9e c0             	setle  %al
    75e0:	0f b6 c0             	movzbl %al,%eax
    75e3:	41 39 c4             	cmp    %eax,%r12d
    75e6:	0f 94 c0             	sete   %al
    75e9:	0f b6 c0             	movzbl %al,%eax
    75ec:	89 85 08 fd ff ff    	mov    %eax,-0x2f8(%rbp)
    75f2:	8b 95 28 fa ff ff    	mov    -0x5d8(%rbp),%edx
    75f8:	8b 85 38 fa ff ff    	mov    -0x5c8(%rbp),%eax
    75fe:	39 c2                	cmp    %eax,%edx
    7600:	0f 95 c0             	setne  %al
    7603:	0f b6 d0             	movzbl %al,%edx
    7606:	0f bf 85 54 f2 ff ff 	movswl -0xdac(%rbp),%eax
    760d:	39 c2                	cmp    %eax,%edx
    760f:	0f 9f c0             	setg   %al
    7612:	0f b6 c0             	movzbl %al,%eax
    7615:	89 85 a8 f2 ff ff    	mov    %eax,-0xd58(%rbp)
    761b:	48 8b 05 76 1c 01 00 	mov    0x11c76(%rip),%rax        # 19298 <g_1513>
    7622:	8b 00                	mov    (%rax),%eax
    7624:	85 c0                	test   %eax,%eax
    7626:	0f 85 a0 11 00 00    	jne    87cc <func_1+0x2017>
    762c:	8b 05 42 00 01 00    	mov    0x10042(%rip),%eax        # 17674 <g_861>
    7632:	83 c0 01             	add    $0x1,%eax
    7635:	89 05 39 00 01 00    	mov    %eax,0x10039(%rip)        # 17674 <g_861>
    763b:	8b 05 33 00 01 00    	mov    0x10033(%rip),%eax        # 17674 <g_861>
    7641:	83 f8 0e             	cmp    $0xe,%eax
    7644:	0f 8f 74 fe ff ff    	jg     74be <func_1+0xd09>
    764a:	e9 7e 11 00 00       	jmpq   87cd <func_1+0x2018>
    764f:	c6 85 3f f2 ff ff e5 	movb   $0xe5,-0xdc1(%rbp)
    7656:	66 c7 85 20 fa ff ff 	movw   $0x2fc,-0x5e0(%rbp)
    765d:	fc 02 
    765f:	66 c7 85 22 fa ff ff 	movw   $0xfb,-0x5de(%rbp)
    7666:	fb 00 
    7668:	66 c7 85 24 fa ff ff 	movw   $0x3,-0x5dc(%rbp)
    766f:	03 00 
    7671:	66 c7 85 26 fa ff ff 	movw   $0x2fb,-0x5da(%rbp)
    7678:	fb 02 
    767a:	66 c7 85 28 fa ff ff 	movw   $0xf8fc,-0x5d8(%rbp)
    7681:	fc f8 
    7683:	66 c7 85 2a fa ff ff 	movw   $0xb9b9,-0x5d6(%rbp)
    768a:	b9 b9 
    768c:	66 c7 85 2c fa ff ff 	movw   $0x302,-0x5d4(%rbp)
    7693:	02 03 
    7695:	66 c7 85 2e fa ff ff 	movw   $0x101,-0x5d2(%rbp)
    769c:	01 01 
    769e:	66 c7 85 30 fa ff ff 	movw   $0xd54f,-0x5d0(%rbp)
    76a5:	4f d5 
    76a7:	66 c7 85 32 fa ff ff 	movw   $0x4f61,-0x5ce(%rbp)
    76ae:	61 4f 
    76b0:	66 c7 85 34 fa ff ff 	movw   $0xfb00,-0x5cc(%rbp)
    76b7:	00 fb 
    76b9:	66 c7 85 36 fa ff ff 	movw   $0x4f00,-0x5ca(%rbp)
    76c0:	00 4f 
    76c2:	66 c7 85 38 fa ff ff 	movw   $0xd561,-0x5c8(%rbp)
    76c9:	61 d5 
    76cb:	66 c7 85 3a fa ff ff 	movw   $0x14f,-0x5c6(%rbp)
    76d2:	4f 01 
    76d4:	66 c7 85 3c fa ff ff 	movw   $0x301,-0x5c4(%rbp)
    76db:	01 03 
    76dd:	66 c7 85 3e fa ff ff 	movw   $0xb902,-0x5c2(%rbp)
    76e4:	02 b9 
    76e6:	66 c7 85 40 fa ff ff 	movw   $0xf8b9,-0x5c0(%rbp)
    76ed:	b9 f8 
    76ef:	66 c7 85 42 fa ff ff 	movw   $0x2fc,-0x5be(%rbp)
    76f6:	fc 02 
    76f8:	66 c7 85 44 fa ff ff 	movw   $0xfb,-0x5bc(%rbp)
    76ff:	fb 00 
    7701:	66 c7 85 46 fa ff ff 	movw   $0x3,-0x5ba(%rbp)
    7708:	03 00 
    770a:	66 c7 85 48 fa ff ff 	movw   $0x2fb,-0x5b8(%rbp)
    7711:	fb 02 
    7713:	66 c7 85 4a fa ff ff 	movw   $0xf8fc,-0x5b6(%rbp)
    771a:	fc f8 
    771c:	66 c7 85 4c fa ff ff 	movw   $0xb9b9,-0x5b4(%rbp)
    7723:	b9 b9 
    7725:	66 c7 85 4e fa ff ff 	movw   $0x302,-0x5b2(%rbp)
    772c:	02 03 
    772e:	66 c7 85 50 fa ff ff 	movw   $0x101,-0x5b0(%rbp)
    7735:	01 01 
    7737:	66 c7 85 52 fa ff ff 	movw   $0xd54f,-0x5ae(%rbp)
    773e:	4f d5 
    7740:	66 c7 85 54 fa ff ff 	movw   $0x4f61,-0x5ac(%rbp)
    7747:	61 4f 
    7749:	66 c7 85 56 fa ff ff 	movw   $0xfb00,-0x5aa(%rbp)
    7750:	00 fb 
    7752:	66 c7 85 58 fa ff ff 	movw   $0x4f00,-0x5a8(%rbp)
    7759:	00 4f 
    775b:	66 c7 85 5a fa ff ff 	movw   $0xd561,-0x5a6(%rbp)
    7762:	61 d5 
    7764:	66 c7 85 5c fa ff ff 	movw   $0x14f,-0x5a4(%rbp)
    776b:	4f 01 
    776d:	66 c7 85 5e fa ff ff 	movw   $0x301,-0x5a2(%rbp)
    7774:	01 03 
    7776:	66 c7 85 60 fa ff ff 	movw   $0xb902,-0x5a0(%rbp)
    777d:	02 b9 
    777f:	66 c7 85 62 fa ff ff 	movw   $0xf8b9,-0x59e(%rbp)
    7786:	b9 f8 
    7788:	66 c7 85 64 fa ff ff 	movw   $0x2fc,-0x59c(%rbp)
    778f:	fc 02 
    7791:	66 c7 85 66 fa ff ff 	movw   $0xfb,-0x59a(%rbp)
    7798:	fb 00 
    779a:	66 c7 85 68 fa ff ff 	movw   $0x3,-0x598(%rbp)
    77a1:	03 00 
    77a3:	66 c7 85 6a fa ff ff 	movw   $0x2fb,-0x596(%rbp)
    77aa:	fb 02 
    77ac:	66 c7 85 6c fa ff ff 	movw   $0xf8fc,-0x594(%rbp)
    77b3:	fc f8 
    77b5:	66 c7 85 6e fa ff ff 	movw   $0xb9b9,-0x592(%rbp)
    77bc:	b9 b9 
    77be:	66 c7 85 70 fa ff ff 	movw   $0x302,-0x590(%rbp)
    77c5:	02 03 
    77c7:	66 c7 85 72 fa ff ff 	movw   $0x101,-0x58e(%rbp)
    77ce:	01 01 
    77d0:	66 c7 85 74 fa ff ff 	movw   $0xd54f,-0x58c(%rbp)
    77d7:	4f d5 
    77d9:	66 c7 85 76 fa ff ff 	movw   $0x4f61,-0x58a(%rbp)
    77e0:	61 4f 
    77e2:	66 c7 85 78 fa ff ff 	movw   $0xfb00,-0x588(%rbp)
    77e9:	00 fb 
    77eb:	66 c7 85 7a fa ff ff 	movw   $0x4f00,-0x586(%rbp)
    77f2:	00 4f 
    77f4:	66 c7 85 7c fa ff ff 	movw   $0xd561,-0x584(%rbp)
    77fb:	61 d5 
    77fd:	66 c7 85 7e fa ff ff 	movw   $0x14f,-0x582(%rbp)
    7804:	4f 01 
    7806:	66 c7 85 80 fa ff ff 	movw   $0x301,-0x580(%rbp)
    780d:	01 03 
    780f:	66 c7 85 82 fa ff ff 	movw   $0xb902,-0x57e(%rbp)
    7816:	02 b9 
    7818:	66 c7 85 84 fa ff ff 	movw   $0xf8b9,-0x57c(%rbp)
    781f:	b9 f8 
    7821:	66 c7 85 86 fa ff ff 	movw   $0x2fc,-0x57a(%rbp)
    7828:	fc 02 
    782a:	66 c7 85 88 fa ff ff 	movw   $0xfb,-0x578(%rbp)
    7831:	fb 00 
    7833:	66 c7 85 8a fa ff ff 	movw   $0x3,-0x576(%rbp)
    783a:	03 00 
    783c:	66 c7 85 8c fa ff ff 	movw   $0x2fb,-0x574(%rbp)
    7843:	fb 02 
    7845:	66 c7 85 8e fa ff ff 	movw   $0xf8fc,-0x572(%rbp)
    784c:	fc f8 
    784e:	66 c7 85 90 fa ff ff 	movw   $0xb9b9,-0x570(%rbp)
    7855:	b9 b9 
    7857:	66 c7 85 92 fa ff ff 	movw   $0x302,-0x56e(%rbp)
    785e:	02 03 
    7860:	66 c7 85 94 fa ff ff 	movw   $0x101,-0x56c(%rbp)
    7867:	01 01 
    7869:	66 c7 85 96 fa ff ff 	movw   $0xd54f,-0x56a(%rbp)
    7870:	4f d5 
    7872:	66 c7 85 98 fa ff ff 	movw   $0x4f61,-0x568(%rbp)
    7879:	61 4f 
    787b:	66 c7 85 9a fa ff ff 	movw   $0xfb00,-0x566(%rbp)
    7882:	00 fb 
    7884:	66 c7 85 9c fa ff ff 	movw   $0x4f00,-0x564(%rbp)
    788b:	00 4f 
    788d:	66 c7 85 9e fa ff ff 	movw   $0xd561,-0x562(%rbp)
    7894:	61 d5 
    7896:	66 c7 85 a0 fa ff ff 	movw   $0x14f,-0x560(%rbp)
    789d:	4f 01 
    789f:	66 c7 85 a2 fa ff ff 	movw   $0x301,-0x55e(%rbp)
    78a6:	01 03 
    78a8:	66 c7 85 a4 fa ff ff 	movw   $0xb902,-0x55c(%rbp)
    78af:	02 b9 
    78b1:	66 c7 85 a6 fa ff ff 	movw   $0xf8b9,-0x55a(%rbp)
    78b8:	b9 f8 
    78ba:	66 c7 85 a8 fa ff ff 	movw   $0x2fc,-0x558(%rbp)
    78c1:	fc 02 
    78c3:	66 c7 85 aa fa ff ff 	movw   $0xfb,-0x556(%rbp)
    78ca:	fb 00 
    78cc:	66 c7 85 ac fa ff ff 	movw   $0x3,-0x554(%rbp)
    78d3:	03 00 
    78d5:	66 c7 85 ae fa ff ff 	movw   $0x2fb,-0x552(%rbp)
    78dc:	fb 02 
    78de:	66 c7 85 b0 fa ff ff 	movw   $0xf8fc,-0x550(%rbp)
    78e5:	fc f8 
    78e7:	66 c7 85 b2 fa ff ff 	movw   $0xb9b9,-0x54e(%rbp)
    78ee:	b9 b9 
    78f0:	66 c7 85 b4 fa ff ff 	movw   $0x302,-0x54c(%rbp)
    78f7:	02 03 
    78f9:	66 c7 85 b6 fa ff ff 	movw   $0x101,-0x54a(%rbp)
    7900:	01 01 
    7902:	66 c7 85 b8 fa ff ff 	movw   $0xd54f,-0x548(%rbp)
    7909:	4f d5 
    790b:	66 c7 85 ba fa ff ff 	movw   $0x4f61,-0x546(%rbp)
    7912:	61 4f 
    7914:	66 c7 85 bc fa ff ff 	movw   $0xfb00,-0x544(%rbp)
    791b:	00 fb 
    791d:	66 c7 85 be fa ff ff 	movw   $0x4f00,-0x542(%rbp)
    7924:	00 4f 
    7926:	66 c7 85 c0 fa ff ff 	movw   $0xd561,-0x540(%rbp)
    792d:	61 d5 
    792f:	66 c7 85 c2 fa ff ff 	movw   $0x14f,-0x53e(%rbp)
    7936:	4f 01 
    7938:	66 c7 85 c4 fa ff ff 	movw   $0x301,-0x53c(%rbp)
    793f:	01 03 
    7941:	66 c7 85 c6 fa ff ff 	movw   $0xb902,-0x53a(%rbp)
    7948:	02 b9 
    794a:	66 c7 85 c8 fa ff ff 	movw   $0xf8b9,-0x538(%rbp)
    7951:	b9 f8 
    7953:	66 c7 85 ca fa ff ff 	movw   $0x2fc,-0x536(%rbp)
    795a:	fc 02 
    795c:	66 c7 85 cc fa ff ff 	movw   $0xfb,-0x534(%rbp)
    7963:	fb 00 
    7965:	66 c7 85 ce fa ff ff 	movw   $0xfb03,-0x532(%rbp)
    796c:	03 fb 
    796e:	66 c7 85 d0 fa ff ff 	movw   $0xf8d5,-0x530(%rbp)
    7975:	d5 f8 
    7977:	66 c7 85 d2 fa ff ff 	movw   $0x7f01,-0x52e(%rbp)
    797e:	01 7f 
    7980:	48 8d 05 59 26 01 00 	lea    0x12659(%rip),%rax        # 19fe0 <g_582>
    7987:	48 89 85 40 f8 ff ff 	mov    %rax,-0x7c0(%rbp)
    798e:	48 8d 05 4b 26 01 00 	lea    0x1264b(%rip),%rax        # 19fe0 <g_582>
    7995:	48 89 85 48 f8 ff ff 	mov    %rax,-0x7b8(%rbp)
    799c:	48 8d 05 3d 26 01 00 	lea    0x1263d(%rip),%rax        # 19fe0 <g_582>
    79a3:	48 89 85 50 f8 ff ff 	mov    %rax,-0x7b0(%rbp)
    79aa:	48 8d 05 2f 26 01 00 	lea    0x1262f(%rip),%rax        # 19fe0 <g_582>
    79b1:	48 89 85 58 f8 ff ff 	mov    %rax,-0x7a8(%rbp)
    79b8:	48 8d 05 21 26 01 00 	lea    0x12621(%rip),%rax        # 19fe0 <g_582>
    79bf:	48 89 85 60 f8 ff ff 	mov    %rax,-0x7a0(%rbp)
    79c6:	48 8d 05 13 26 01 00 	lea    0x12613(%rip),%rax        # 19fe0 <g_582>
    79cd:	48 89 85 68 f8 ff ff 	mov    %rax,-0x798(%rbp)
    79d4:	48 8d 05 05 26 01 00 	lea    0x12605(%rip),%rax        # 19fe0 <g_582>
    79db:	48 89 85 70 f8 ff ff 	mov    %rax,-0x790(%rbp)
    79e2:	48 8d 05 f7 25 01 00 	lea    0x125f7(%rip),%rax        # 19fe0 <g_582>
    79e9:	48 89 85 78 f8 ff ff 	mov    %rax,-0x788(%rbp)
    79f0:	48 8d 05 e9 25 01 00 	lea    0x125e9(%rip),%rax        # 19fe0 <g_582>
    79f7:	48 89 85 80 f8 ff ff 	mov    %rax,-0x780(%rbp)
    79fe:	48 8d 05 db 25 01 00 	lea    0x125db(%rip),%rax        # 19fe0 <g_582>
    7a05:	48 89 85 88 f8 ff ff 	mov    %rax,-0x778(%rbp)
    7a0c:	48 8d 05 cd 25 01 00 	lea    0x125cd(%rip),%rax        # 19fe0 <g_582>
    7a13:	48 89 85 90 f8 ff ff 	mov    %rax,-0x770(%rbp)
    7a1a:	48 8d 05 bf 25 01 00 	lea    0x125bf(%rip),%rax        # 19fe0 <g_582>
    7a21:	48 89 85 98 f8 ff ff 	mov    %rax,-0x768(%rbp)
    7a28:	48 8d 05 b1 25 01 00 	lea    0x125b1(%rip),%rax        # 19fe0 <g_582>
    7a2f:	48 89 85 a0 f8 ff ff 	mov    %rax,-0x760(%rbp)
    7a36:	48 8d 05 a3 25 01 00 	lea    0x125a3(%rip),%rax        # 19fe0 <g_582>
    7a3d:	48 89 85 a8 f8 ff ff 	mov    %rax,-0x758(%rbp)
    7a44:	48 8d 05 95 25 01 00 	lea    0x12595(%rip),%rax        # 19fe0 <g_582>
    7a4b:	48 89 85 b0 f8 ff ff 	mov    %rax,-0x750(%rbp)
    7a52:	48 8d 05 87 25 01 00 	lea    0x12587(%rip),%rax        # 19fe0 <g_582>
    7a59:	48 89 85 b8 f8 ff ff 	mov    %rax,-0x748(%rbp)
    7a60:	66 c7 85 56 f2 ff ff 	movw   $0xe4ea,-0xdaa(%rbp)
    7a67:	ea e4 
    7a69:	c7 85 04 f3 ff ff 25 	movl   $0x26950b25,-0xcfc(%rbp)
    7a70:	0b 95 26 
    7a73:	c7 85 b4 f2 ff ff 00 	movl   $0x0,-0xd4c(%rbp)
    7a7a:	00 00 00 
    7a7d:	eb 1e                	jmp    7a9d <func_1+0x12e8>
    7a7f:	8b 85 b4 f2 ff ff    	mov    -0xd4c(%rbp),%eax
    7a85:	48 98                	cltq   
    7a87:	48 8d 15 9a 14 01 00 	lea    0x1149a(%rip),%rdx        # 18f28 <g_728+0x8>
    7a8e:	48 89 94 c5 f0 f5 ff 	mov    %rdx,-0xa10(%rbp,%rax,8)
    7a95:	ff 
    7a96:	83 85 b4 f2 ff ff 01 	addl   $0x1,-0xd4c(%rbp)
    7a9d:	83 bd b4 f2 ff ff 01 	cmpl   $0x1,-0xd4c(%rbp)
    7aa4:	7e d9                	jle    7a7f <func_1+0x12ca>
    7aa6:	c7 85 b4 f2 ff ff 00 	movl   $0x0,-0xd4c(%rbp)
    7aad:	00 00 00 
    7ab0:	eb 49                	jmp    7afb <func_1+0x1346>
    7ab2:	c7 85 b8 f2 ff ff 00 	movl   $0x0,-0xd48(%rbp)
    7ab9:	00 00 00 
    7abc:	eb 2d                	jmp    7aeb <func_1+0x1336>
    7abe:	8b 85 b8 f2 ff ff    	mov    -0xd48(%rbp),%eax
    7ac4:	48 63 d0             	movslq %eax,%rdx
    7ac7:	8b 85 b4 f2 ff ff    	mov    -0xd4c(%rbp),%eax
    7acd:	48 98                	cltq   
    7acf:	48 01 d0             	add    %rdx,%rax
    7ad2:	48 bb c0 55 ca 71 93 	movabs $0x9148db9371ca55c0,%rbx
    7ad9:	db 48 91 
    7adc:	48 89 9c c5 b0 f6 ff 	mov    %rbx,-0x950(%rbp,%rax,8)
    7ae3:	ff 
    7ae4:	83 85 b8 f2 ff ff 01 	addl   $0x1,-0xd48(%rbp)
    7aeb:	83 bd b8 f2 ff ff 00 	cmpl   $0x0,-0xd48(%rbp)
    7af2:	7e ca                	jle    7abe <func_1+0x1309>
    7af4:	83 85 b4 f2 ff ff 01 	addl   $0x1,-0xd4c(%rbp)
    7afb:	83 bd b4 f2 ff ff 05 	cmpl   $0x5,-0xd4c(%rbp)
    7b02:	7e ae                	jle    7ab2 <func_1+0x12fd>
    7b04:	c7 85 b4 f2 ff ff 00 	movl   $0x0,-0xd4c(%rbp)
    7b0b:	00 00 00 
    7b0e:	eb 4d                	jmp    7b5d <func_1+0x13a8>
    7b10:	c7 85 b8 f2 ff ff 00 	movl   $0x0,-0xd48(%rbp)
    7b17:	00 00 00 
    7b1a:	eb 31                	jmp    7b4d <func_1+0x1398>
    7b1c:	8b 85 b8 f2 ff ff    	mov    -0xd48(%rbp),%eax
    7b22:	48 63 c8             	movslq %eax,%rcx
    7b25:	8b 85 b4 f2 ff ff    	mov    -0xd4c(%rbp),%eax
    7b2b:	48 63 d0             	movslq %eax,%rdx
    7b2e:	48 89 d0             	mov    %rdx,%rax
    7b31:	48 c1 e0 03          	shl    $0x3,%rax
    7b35:	48 29 d0             	sub    %rdx,%rax
    7b38:	48 01 c8             	add    %rcx,%rax
    7b3b:	c7 84 85 e0 f6 ff ff 	movl   $0xffffffff,-0x920(%rbp,%rax,4)
    7b42:	ff ff ff ff 
    7b46:	83 85 b8 f2 ff ff 01 	addl   $0x1,-0xd48(%rbp)
    7b4d:	83 bd b8 f2 ff ff 06 	cmpl   $0x6,-0xd48(%rbp)
    7b54:	7e c6                	jle    7b1c <func_1+0x1367>
    7b56:	83 85 b4 f2 ff ff 01 	addl   $0x1,-0xd4c(%rbp)
    7b5d:	83 bd b4 f2 ff ff 01 	cmpl   $0x1,-0xd4c(%rbp)
    7b64:	7e aa                	jle    7b10 <func_1+0x135b>
    7b66:	48 8b 05 1b 17 01 00 	mov    0x1171b(%rip),%rax        # 19288 <g_1416>
    7b6d:	48 8b 95 78 f6 ff ff 	mov    -0x988(%rbp),%rdx
    7b74:	48 89 10             	mov    %rdx,(%rax)
    7b77:	c7 05 7f fa 00 00 00 	movl   $0x0,0xfa7f(%rip)        # 17600 <g_840>
    7b7e:	00 00 00 
    7b81:	e9 0c 06 00 00       	jmpq   8192 <func_1+0x19dd>
    7b86:	48 8d 05 3b f8 00 00 	lea    0xf83b(%rip),%rax        # 173c8 <g_228>
    7b8d:	48 89 85 60 f5 ff ff 	mov    %rax,-0xaa0(%rbp)
    7b94:	48 8d 05 05 10 01 00 	lea    0x11005(%rip),%rax        # 18ba0 <g_409>
    7b9b:	48 89 85 68 f5 ff ff 	mov    %rax,-0xa98(%rbp)
    7ba2:	48 8d 85 c0 f7 ff ff 	lea    -0x840(%rbp),%rax
    7ba9:	48 83 c0 74          	add    $0x74,%rax
    7bad:	48 89 85 f0 fc ff ff 	mov    %rax,-0x310(%rbp)
    7bb4:	48 8d 05 35 f7 00 00 	lea    0xf735(%rip),%rax        # 172f0 <g_198+0x10>
    7bbb:	48 89 85 f8 fc ff ff 	mov    %rax,-0x308(%rbp)
    7bc2:	48 8d 05 27 f7 00 00 	lea    0xf727(%rip),%rax        # 172f0 <g_198+0x10>
    7bc9:	48 89 85 00 fd ff ff 	mov    %rax,-0x300(%rbp)
    7bd0:	48 8d 85 c0 f7 ff ff 	lea    -0x840(%rbp),%rax
    7bd7:	48 83 c0 74          	add    $0x74,%rax
    7bdb:	48 89 85 08 fd ff ff 	mov    %rax,-0x2f8(%rbp)
    7be2:	48 8d 05 07 f7 00 00 	lea    0xf707(%rip),%rax        # 172f0 <g_198+0x10>
    7be9:	48 89 85 10 fd ff ff 	mov    %rax,-0x2f0(%rbp)
    7bf0:	48 8d 05 f9 f6 00 00 	lea    0xf6f9(%rip),%rax        # 172f0 <g_198+0x10>
    7bf7:	48 89 85 18 fd ff ff 	mov    %rax,-0x2e8(%rbp)
    7bfe:	48 8d 85 c0 f7 ff ff 	lea    -0x840(%rbp),%rax
    7c05:	48 83 c0 74          	add    $0x74,%rax
    7c09:	48 89 85 20 fd ff ff 	mov    %rax,-0x2e0(%rbp)
    7c10:	48 8d 05 d9 f6 00 00 	lea    0xf6d9(%rip),%rax        # 172f0 <g_198+0x10>
    7c17:	48 89 85 28 fd ff ff 	mov    %rax,-0x2d8(%rbp)
    7c1e:	48 8d 05 cb f6 00 00 	lea    0xf6cb(%rip),%rax        # 172f0 <g_198+0x10>
    7c25:	48 89 85 30 fd ff ff 	mov    %rax,-0x2d0(%rbp)
    7c2c:	48 8d 85 c0 f7 ff ff 	lea    -0x840(%rbp),%rax
    7c33:	48 83 c0 74          	add    $0x74,%rax
    7c37:	48 89 85 38 fd ff ff 	mov    %rax,-0x2c8(%rbp)
    7c3e:	48 8d 05 ab f6 00 00 	lea    0xf6ab(%rip),%rax        # 172f0 <g_198+0x10>
    7c45:	48 89 85 40 fd ff ff 	mov    %rax,-0x2c0(%rbp)
    7c4c:	48 8d 05 9d f6 00 00 	lea    0xf69d(%rip),%rax        # 172f0 <g_198+0x10>
    7c53:	48 89 85 48 fd ff ff 	mov    %rax,-0x2b8(%rbp)
    7c5a:	48 8d 85 c0 f7 ff ff 	lea    -0x840(%rbp),%rax
    7c61:	48 83 c0 74          	add    $0x74,%rax
    7c65:	48 89 85 50 fd ff ff 	mov    %rax,-0x2b0(%rbp)
    7c6c:	48 8d 05 7d f6 00 00 	lea    0xf67d(%rip),%rax        # 172f0 <g_198+0x10>
    7c73:	48 89 85 58 fd ff ff 	mov    %rax,-0x2a8(%rbp)
    7c7a:	48 8d 05 6f f6 00 00 	lea    0xf66f(%rip),%rax        # 172f0 <g_198+0x10>
    7c81:	48 89 85 60 fd ff ff 	mov    %rax,-0x2a0(%rbp)
    7c88:	48 8d 85 c0 f7 ff ff 	lea    -0x840(%rbp),%rax
    7c8f:	48 83 c0 74          	add    $0x74,%rax
    7c93:	48 89 85 68 fd ff ff 	mov    %rax,-0x298(%rbp)
    7c9a:	48 8d 05 4f f6 00 00 	lea    0xf64f(%rip),%rax        # 172f0 <g_198+0x10>
    7ca1:	48 89 85 70 fd ff ff 	mov    %rax,-0x290(%rbp)
    7ca8:	48 8d 05 41 f6 00 00 	lea    0xf641(%rip),%rax        # 172f0 <g_198+0x10>
    7caf:	48 89 85 78 fd ff ff 	mov    %rax,-0x288(%rbp)
    7cb6:	48 8d 85 c0 f7 ff ff 	lea    -0x840(%rbp),%rax
    7cbd:	48 83 c0 74          	add    $0x74,%rax
    7cc1:	48 89 85 80 fd ff ff 	mov    %rax,-0x280(%rbp)
    7cc8:	48 8d 05 21 f6 00 00 	lea    0xf621(%rip),%rax        # 172f0 <g_198+0x10>
    7ccf:	48 89 85 88 fd ff ff 	mov    %rax,-0x278(%rbp)
    7cd6:	48 8d 05 13 f6 00 00 	lea    0xf613(%rip),%rax        # 172f0 <g_198+0x10>
    7cdd:	48 89 85 90 fd ff ff 	mov    %rax,-0x270(%rbp)
    7ce4:	48 8d 85 c0 f7 ff ff 	lea    -0x840(%rbp),%rax
    7ceb:	48 83 c0 74          	add    $0x74,%rax
    7cef:	48 89 85 98 fd ff ff 	mov    %rax,-0x268(%rbp)
    7cf6:	48 8d 05 f3 f5 00 00 	lea    0xf5f3(%rip),%rax        # 172f0 <g_198+0x10>
    7cfd:	48 89 85 a0 fd ff ff 	mov    %rax,-0x260(%rbp)
    7d04:	48 8d 05 e5 f5 00 00 	lea    0xf5e5(%rip),%rax        # 172f0 <g_198+0x10>
    7d0b:	48 89 85 a8 fd ff ff 	mov    %rax,-0x258(%rbp)
    7d12:	48 8d 85 c0 f7 ff ff 	lea    -0x840(%rbp),%rax
    7d19:	48 83 c0 74          	add    $0x74,%rax
    7d1d:	48 89 85 b0 fd ff ff 	mov    %rax,-0x250(%rbp)
    7d24:	48 8d 05 c5 f5 00 00 	lea    0xf5c5(%rip),%rax        # 172f0 <g_198+0x10>
    7d2b:	48 89 85 b8 fd ff ff 	mov    %rax,-0x248(%rbp)
    7d32:	48 8d 05 b7 f5 00 00 	lea    0xf5b7(%rip),%rax        # 172f0 <g_198+0x10>
    7d39:	48 89 85 c0 fd ff ff 	mov    %rax,-0x240(%rbp)
    7d40:	48 8d 85 c0 f7 ff ff 	lea    -0x840(%rbp),%rax
    7d47:	48 83 c0 74          	add    $0x74,%rax
    7d4b:	48 89 85 c8 fd ff ff 	mov    %rax,-0x238(%rbp)
    7d52:	48 8d 05 97 f5 00 00 	lea    0xf597(%rip),%rax        # 172f0 <g_198+0x10>
    7d59:	48 89 85 d0 fd ff ff 	mov    %rax,-0x230(%rbp)
    7d60:	48 8d 05 89 f5 00 00 	lea    0xf589(%rip),%rax        # 172f0 <g_198+0x10>
    7d67:	48 89 85 d8 fd ff ff 	mov    %rax,-0x228(%rbp)
    7d6e:	48 8d 85 c0 f7 ff ff 	lea    -0x840(%rbp),%rax
    7d75:	48 83 c0 74          	add    $0x74,%rax
    7d79:	48 89 85 e0 fd ff ff 	mov    %rax,-0x220(%rbp)
    7d80:	48 8d 05 69 f5 00 00 	lea    0xf569(%rip),%rax        # 172f0 <g_198+0x10>
    7d87:	48 89 85 e8 fd ff ff 	mov    %rax,-0x218(%rbp)
    7d8e:	48 8d 05 5b f5 00 00 	lea    0xf55b(%rip),%rax        # 172f0 <g_198+0x10>
    7d95:	48 89 85 f0 fd ff ff 	mov    %rax,-0x210(%rbp)
    7d9c:	48 8d 85 c0 f7 ff ff 	lea    -0x840(%rbp),%rax
    7da3:	48 83 c0 74          	add    $0x74,%rax
    7da7:	48 89 85 f8 fd ff ff 	mov    %rax,-0x208(%rbp)
    7dae:	48 8d 05 3b f5 00 00 	lea    0xf53b(%rip),%rax        # 172f0 <g_198+0x10>
    7db5:	48 89 85 00 fe ff ff 	mov    %rax,-0x200(%rbp)
    7dbc:	48 8d 05 2d f5 00 00 	lea    0xf52d(%rip),%rax        # 172f0 <g_198+0x10>
    7dc3:	48 89 85 08 fe ff ff 	mov    %rax,-0x1f8(%rbp)
    7dca:	48 8d 85 c0 f7 ff ff 	lea    -0x840(%rbp),%rax
    7dd1:	48 83 c0 74          	add    $0x74,%rax
    7dd5:	48 89 85 10 fe ff ff 	mov    %rax,-0x1f0(%rbp)
    7ddc:	48 8d 05 0d f5 00 00 	lea    0xf50d(%rip),%rax        # 172f0 <g_198+0x10>
    7de3:	48 89 85 18 fe ff ff 	mov    %rax,-0x1e8(%rbp)
    7dea:	48 8d 05 ff f4 00 00 	lea    0xf4ff(%rip),%rax        # 172f0 <g_198+0x10>
    7df1:	48 89 85 20 fe ff ff 	mov    %rax,-0x1e0(%rbp)
    7df8:	48 8d 85 c0 f7 ff ff 	lea    -0x840(%rbp),%rax
    7dff:	48 83 c0 74          	add    $0x74,%rax
    7e03:	48 89 85 28 fe ff ff 	mov    %rax,-0x1d8(%rbp)
    7e0a:	48 8d 05 df f4 00 00 	lea    0xf4df(%rip),%rax        # 172f0 <g_198+0x10>
    7e11:	48 89 85 30 fe ff ff 	mov    %rax,-0x1d0(%rbp)
    7e18:	48 8d 05 d1 f4 00 00 	lea    0xf4d1(%rip),%rax        # 172f0 <g_198+0x10>
    7e1f:	48 89 85 38 fe ff ff 	mov    %rax,-0x1c8(%rbp)
    7e26:	48 8d 85 c0 f7 ff ff 	lea    -0x840(%rbp),%rax
    7e2d:	48 83 c0 74          	add    $0x74,%rax
    7e31:	48 89 85 40 fe ff ff 	mov    %rax,-0x1c0(%rbp)
    7e38:	48 8d 05 b1 f4 00 00 	lea    0xf4b1(%rip),%rax        # 172f0 <g_198+0x10>
    7e3f:	48 89 85 48 fe ff ff 	mov    %rax,-0x1b8(%rbp)
    7e46:	48 8d 05 a3 f4 00 00 	lea    0xf4a3(%rip),%rax        # 172f0 <g_198+0x10>
    7e4d:	48 89 85 50 fe ff ff 	mov    %rax,-0x1b0(%rbp)
    7e54:	48 8d 85 c0 f7 ff ff 	lea    -0x840(%rbp),%rax
    7e5b:	48 83 c0 74          	add    $0x74,%rax
    7e5f:	48 89 85 58 fe ff ff 	mov    %rax,-0x1a8(%rbp)
    7e66:	48 8d 05 83 f4 00 00 	lea    0xf483(%rip),%rax        # 172f0 <g_198+0x10>
    7e6d:	48 89 85 60 fe ff ff 	mov    %rax,-0x1a0(%rbp)
    7e74:	48 8d 05 75 f4 00 00 	lea    0xf475(%rip),%rax        # 172f0 <g_198+0x10>
    7e7b:	48 89 85 68 fe ff ff 	mov    %rax,-0x198(%rbp)
    7e82:	48 8d 85 c0 f7 ff ff 	lea    -0x840(%rbp),%rax
    7e89:	48 83 c0 74          	add    $0x74,%rax
    7e8d:	48 89 85 70 fe ff ff 	mov    %rax,-0x190(%rbp)
    7e94:	48 8d 05 55 f4 00 00 	lea    0xf455(%rip),%rax        # 172f0 <g_198+0x10>
    7e9b:	48 89 85 78 fe ff ff 	mov    %rax,-0x188(%rbp)
    7ea2:	48 8d 05 47 f4 00 00 	lea    0xf447(%rip),%rax        # 172f0 <g_198+0x10>
    7ea9:	48 89 85 80 fe ff ff 	mov    %rax,-0x180(%rbp)
    7eb0:	48 8d 85 c0 f7 ff ff 	lea    -0x840(%rbp),%rax
    7eb7:	48 83 c0 74          	add    $0x74,%rax
    7ebb:	48 89 85 88 fe ff ff 	mov    %rax,-0x178(%rbp)
    7ec2:	48 8d 05 27 f4 00 00 	lea    0xf427(%rip),%rax        # 172f0 <g_198+0x10>
    7ec9:	48 89 85 90 fe ff ff 	mov    %rax,-0x170(%rbp)
    7ed0:	48 8d 05 19 f4 00 00 	lea    0xf419(%rip),%rax        # 172f0 <g_198+0x10>
    7ed7:	48 89 85 98 fe ff ff 	mov    %rax,-0x168(%rbp)
    7ede:	48 8d 85 c0 f7 ff ff 	lea    -0x840(%rbp),%rax
    7ee5:	48 83 c0 74          	add    $0x74,%rax
    7ee9:	48 89 85 a0 fe ff ff 	mov    %rax,-0x160(%rbp)
    7ef0:	48 8d 05 f9 f3 00 00 	lea    0xf3f9(%rip),%rax        # 172f0 <g_198+0x10>
    7ef7:	48 89 85 a8 fe ff ff 	mov    %rax,-0x158(%rbp)
    7efe:	48 8d 05 eb f3 00 00 	lea    0xf3eb(%rip),%rax        # 172f0 <g_198+0x10>
    7f05:	48 89 85 b0 fe ff ff 	mov    %rax,-0x150(%rbp)
    7f0c:	48 8d 85 c0 f7 ff ff 	lea    -0x840(%rbp),%rax
    7f13:	48 83 c0 74          	add    $0x74,%rax
    7f17:	48 89 85 b8 fe ff ff 	mov    %rax,-0x148(%rbp)
    7f1e:	48 8d 05 cb f3 00 00 	lea    0xf3cb(%rip),%rax        # 172f0 <g_198+0x10>
    7f25:	48 89 85 c0 fe ff ff 	mov    %rax,-0x140(%rbp)
    7f2c:	48 8d 05 bd f3 00 00 	lea    0xf3bd(%rip),%rax        # 172f0 <g_198+0x10>
    7f33:	48 89 85 c8 fe ff ff 	mov    %rax,-0x138(%rbp)
    7f3a:	48 8d 85 c0 f7 ff ff 	lea    -0x840(%rbp),%rax
    7f41:	48 83 c0 74          	add    $0x74,%rax
    7f45:	48 89 85 d0 fe ff ff 	mov    %rax,-0x130(%rbp)
    7f4c:	48 8d 05 9d f3 00 00 	lea    0xf39d(%rip),%rax        # 172f0 <g_198+0x10>
    7f53:	48 89 85 d8 fe ff ff 	mov    %rax,-0x128(%rbp)
    7f5a:	48 8d 05 8f f3 00 00 	lea    0xf38f(%rip),%rax        # 172f0 <g_198+0x10>
    7f61:	48 89 85 e0 fe ff ff 	mov    %rax,-0x120(%rbp)
    7f68:	48 8d 85 c0 f7 ff ff 	lea    -0x840(%rbp),%rax
    7f6f:	48 83 c0 74          	add    $0x74,%rax
    7f73:	48 89 85 e8 fe ff ff 	mov    %rax,-0x118(%rbp)
    7f7a:	c7 85 bc f2 ff ff 00 	movl   $0x0,-0xd44(%rbp)
    7f81:	00 00 00 
    7f84:	eb 1a                	jmp    7fa0 <func_1+0x17eb>
    7f86:	8b 85 bc f2 ff ff    	mov    -0xd44(%rbp),%eax
    7f8c:	48 98                	cltq   
    7f8e:	c7 84 85 c0 f8 ff ff 	movl   $0x0,-0x740(%rbp,%rax,4)
    7f95:	00 00 00 00 
    7f99:	83 85 bc f2 ff ff 01 	addl   $0x1,-0xd44(%rbp)
    7fa0:	83 bd bc f2 ff ff 01 	cmpl   $0x1,-0xd44(%rbp)
    7fa7:	7e dd                	jle    7f86 <func_1+0x17d1>
    7fa9:	48 8b 85 60 f5 ff ff 	mov    -0xaa0(%rbp),%rax
    7fb0:	8b 10                	mov    (%rax),%edx
    7fb2:	8b 05 58 f7 00 00    	mov    0xf758(%rip),%eax        # 17710 <g_871+0x30>
    7fb8:	31 c2                	xor    %eax,%edx
    7fba:	48 8b 85 60 f5 ff ff 	mov    -0xaa0(%rbp),%rax
    7fc1:	89 10                	mov    %edx,(%rax)
    7fc3:	44 0f b6 b5 3f f2 ff 	movzbl -0xdc1(%rbp),%r14d
    7fca:	ff 
    7fcb:	48 8b 85 08 f5 ff ff 	mov    -0xaf8(%rbp),%rax
    7fd2:	48 8b 18             	mov    (%rax),%rbx
    7fd5:	48 8d 53 01          	lea    0x1(%rbx),%rdx
    7fd9:	48 8b 85 08 f5 ff ff 	mov    -0xaf8(%rbp),%rax
    7fe0:	48 89 10             	mov    %rdx,(%rax)
    7fe3:	8b 05 fb f3 00 00    	mov    0xf3fb(%rip),%eax        # 173e4 <g_326>
    7fe9:	41 89 c7             	mov    %eax,%r15d
    7fec:	44 0f b6 a5 3f f2 ff 	movzbl -0xdc1(%rbp),%r12d
    7ff3:	ff 
    7ff4:	8b 85 c4 f8 ff ff    	mov    -0x73c(%rbp),%eax
    7ffa:	44 0f bf e8          	movswl %ax,%r13d
    7ffe:	8b 05 fc f5 00 00    	mov    0xf5fc(%rip),%eax        # 17600 <g_840>
    8004:	8b 15 f6 f5 00 00    	mov    0xf5f6(%rip),%edx        # 17600 <g_840>
    800a:	8d 4a 05             	lea    0x5(%rdx),%ecx
    800d:	8b 3d ed f5 00 00    	mov    0xf5ed(%rip),%edi        # 17600 <g_840>
    8013:	8b 15 e7 f5 00 00    	mov    0xf5e7(%rip),%edx        # 17600 <g_840>
    8019:	8d 72 03             	lea    0x3(%rdx),%esi
    801c:	48 63 c9             	movslq %ecx,%rcx
    801f:	48 63 d0             	movslq %eax,%rdx
    8022:	48 89 d0             	mov    %rdx,%rax
    8025:	48 c1 e0 03          	shl    $0x3,%rax
    8029:	48 01 d0             	add    %rdx,%rax
    802c:	48 01 c8             	add    %rcx,%rax
    802f:	48 8d 14 c5 00 00 00 	lea    0x0(,%rax,8),%rdx
    8036:	00 
    8037:	48 8d 05 62 11 01 00 	lea    0x11162(%rip),%rax        # 191a0 <g_1052>
    803e:	48 8b 0c 02          	mov    (%rdx,%rax,1),%rcx
    8042:	48 63 f6             	movslq %esi,%rsi
    8045:	48 63 d7             	movslq %edi,%rdx
    8048:	48 89 d0             	mov    %rdx,%rax
    804b:	48 c1 e0 03          	shl    $0x3,%rax
    804f:	48 01 d0             	add    %rdx,%rax
    8052:	48 01 f0             	add    %rsi,%rax
    8055:	48 8d 14 c5 00 00 00 	lea    0x0(,%rax,8),%rdx
    805c:	00 
    805d:	48 8d 05 3c 11 01 00 	lea    0x1113c(%rip),%rax        # 191a0 <g_1052>
    8064:	48 89 0c 02          	mov    %rcx,(%rdx,%rax,1)
    8068:	8b 85 c4 f8 ff ff    	mov    -0x73c(%rbp),%eax
    806e:	48 63 d0             	movslq %eax,%rdx
    8071:	48 8b 8d 78 f6 ff ff 	mov    -0x988(%rbp),%rcx
    8078:	48 8b 85 68 f5 ff ff 	mov    -0xa98(%rbp),%rax
    807f:	48 89 08             	mov    %rcx,(%rax)
    8082:	48 8b 85 68 f5 ff ff 	mov    -0xa98(%rbp),%rax
    8089:	48 8b 00             	mov    (%rax),%rax
    808c:	48 85 c0             	test   %rax,%rax
    808f:	0f 94 c0             	sete   %al
    8092:	0f b6 c8             	movzbl %al,%ecx
    8095:	0f b6 85 3f f2 ff ff 	movzbl -0xdc1(%rbp),%eax
    809c:	39 c1                	cmp    %eax,%ecx
    809e:	0f 9f c0             	setg   %al
    80a1:	0f b6 c0             	movzbl %al,%eax
    80a4:	48 89 d6             	mov    %rdx,%rsi
    80a7:	48 89 c7             	mov    %rax,%rdi
    80aa:	e8 9c df ff ff       	callq  604b <safe_sub_func_uint64_t_u_u>
    80af:	48 83 f8 fb          	cmp    $0xfffffffffffffffb,%rax
    80b3:	77 07                	ja     80bc <func_1+0x1907>
    80b5:	ba 01 00 00 00       	mov    $0x1,%edx
    80ba:	eb 05                	jmp    80c1 <func_1+0x190c>
    80bc:	ba 00 00 00 00       	mov    $0x0,%edx
    80c1:	48 8b 85 80 f3 ff ff 	mov    -0xc80(%rbp),%rax
    80c8:	89 10                	mov    %edx,(%rax)
    80ca:	48 8b 85 80 f3 ff ff 	mov    -0xc80(%rbp),%rax
    80d1:	8b 00                	mov    (%rax),%eax
    80d3:	85 c0                	test   %eax,%eax
    80d5:	74 10                	je     80e7 <func_1+0x1932>
    80d7:	80 bd 3f f2 ff ff 00 	cmpb   $0x0,-0xdc1(%rbp)
    80de:	74 07                	je     80e7 <func_1+0x1932>
    80e0:	ba 01 00 00 00       	mov    $0x1,%edx
    80e5:	eb 05                	jmp    80ec <func_1+0x1937>
    80e7:	ba 00 00 00 00       	mov    $0x0,%edx
    80ec:	0f b6 85 3f f2 ff ff 	movzbl -0xdc1(%rbp),%eax
    80f3:	39 c2                	cmp    %eax,%edx
    80f5:	0f 94 c0             	sete   %al
    80f8:	0f b6 c0             	movzbl %al,%eax
    80fb:	44 89 ee             	mov    %r13d,%esi
    80fe:	89 c7                	mov    %eax,%edi
    8100:	e8 ce d2 ff ff       	callq  53d3 <safe_sub_func_int16_t_s_s>
    8105:	66 85 c0             	test   %ax,%ax
    8108:	74 07                	je     8111 <func_1+0x195c>
    810a:	b8 01 00 00 00       	mov    $0x1,%eax
    810f:	eb 05                	jmp    8116 <func_1+0x1961>
    8111:	b8 00 00 00 00       	mov    $0x0,%eax
    8116:	98                   	cwtl   
    8117:	44 89 e6             	mov    %r12d,%esi
    811a:	89 c7                	mov    %eax,%edi
    811c:	e8 09 d4 ff ff       	callq  552a <safe_rshift_func_int16_t_s_s>
    8121:	48 0f bf c0          	movswq %ax,%rax
    8125:	4c 89 fe             	mov    %r15,%rsi
    8128:	48 89 c7             	mov    %rax,%rdi
    812b:	e8 50 df ff ff       	callq  6080 <safe_mod_func_uint64_t_u_u>
    8130:	48 39 c3             	cmp    %rax,%rbx
    8133:	0f 96 c0             	setbe  %al
    8136:	0f b6 c0             	movzbl %al,%eax
    8139:	41 39 c6             	cmp    %eax,%r14d
    813c:	0f b6 85 53 fa ff ff 	movzbl -0x5ad(%rbp),%eax
    8143:	66 98                	cbtw   
    8145:	0f b7 15 18 ef 00 00 	movzwl 0xef18(%rip),%edx        # 17064 <g_66>
    814c:	09 d0                	or     %edx,%eax
    814e:	66 89 05 0f ef 00 00 	mov    %ax,0xef0f(%rip)        # 17064 <g_66>
    8155:	0f b7 05 08 ef 00 00 	movzwl 0xef08(%rip),%eax        # 17064 <g_66>
    815c:	0f bf d0             	movswl %ax,%edx
    815f:	0f b6 85 3f f2 ff ff 	movzbl -0xdc1(%rbp),%eax
    8166:	89 d6                	mov    %edx,%esi
    8168:	89 c7                	mov    %eax,%edi
    816a:	e8 44 d2 ff ff       	callq  53b3 <safe_add_func_int16_t_s_s>
    816f:	8b 85 c4 f8 ff ff    	mov    -0x73c(%rbp),%eax
    8175:	85 c0                	test   %eax,%eax
    8177:	0f 9f c0             	setg   %al
    817a:	0f b6 c0             	movzbl %al,%eax
    817d:	09 85 a8 f2 ff ff    	or     %eax,-0xd58(%rbp)
    8183:	8b 05 77 f4 00 00    	mov    0xf477(%rip),%eax        # 17600 <g_840>
    8189:	83 c0 01             	add    $0x1,%eax
    818c:	89 05 6e f4 00 00    	mov    %eax,0xf46e(%rip)        # 17600 <g_840>
    8192:	8b 05 68 f4 00 00    	mov    0xf468(%rip),%eax        # 17600 <g_840>
    8198:	83 f8 02             	cmp    $0x2,%eax
    819b:	0f 8e e5 f9 ff ff    	jle    7b86 <func_1+0x13d1>
    81a1:	c7 05 f5 fb 00 00 02 	movl   $0x2,0xfbf5(%rip)        # 17da0 <g_882>
    81a8:	00 00 00 
    81ab:	e9 fc 05 00 00       	jmpq   87ac <func_1+0x1ff7>
    81b0:	48 8d 85 00 f6 ff ff 	lea    -0xa00(%rbp),%rax
    81b7:	48 83 c0 10          	add    $0x10,%rax
    81bb:	48 89 85 48 f5 ff ff 	mov    %rax,-0xab8(%rbp)
    81c2:	c7 85 98 f2 ff ff 01 	movl   $0x1,-0xd68(%rbp)
    81c9:	00 00 00 
    81cc:	48 8d 85 f0 fc ff ff 	lea    -0x310(%rbp),%rax
    81d3:	48 8d 15 66 b0 00 00 	lea    0xb066(%rip),%rdx        # 13240 <g_1778+0x1e4>
    81da:	b9 5a 00 00 00       	mov    $0x5a,%ecx
    81df:	48 89 c7             	mov    %rax,%rdi
    81e2:	48 89 d6             	mov    %rdx,%rsi
    81e5:	f3 48 a5             	rep movsq %ds:(%rsi),%es:(%rdi)
    81e8:	c7 85 c0 f8 ff ff fe 	movl   $0x1612f4fe,-0x740(%rbp)
    81ef:	f4 12 16 
    81f2:	c6 85 c4 f8 ff ff 2e 	movb   $0x2e,-0x73c(%rbp)
    81f9:	c7 85 c5 f8 ff ff a1 	movl   $0xfc01fba1,-0x73b(%rbp)
    8200:	fb 01 fc 
    8203:	c6 85 c9 f8 ff ff 2e 	movb   $0x2e,-0x737(%rbp)
    820a:	c7 85 ca f8 ff ff 04 	movl   $0x12fe1e04,-0x736(%rbp)
    8211:	1e fe 12 
    8214:	c6 85 ce f8 ff ff b8 	movb   $0xb8,-0x732(%rbp)
    821b:	c7 85 cf f8 ff ff fe 	movl   $0x30312fe,-0x731(%rbp)
    8222:	12 03 03 
    8225:	c6 85 d3 f8 ff ff 12 	movb   $0x12,-0x72d(%rbp)
    822c:	c7 85 d4 f8 ff ff 1e 	movl   $0x4a1f11e,-0x72c(%rbp)
    8233:	f1 a1 04 
    8236:	c6 85 d8 f8 ff ff f5 	movb   $0xf5,-0x728(%rbp)
    823d:	c7 85 d9 f8 ff ff 03 	movl   $0xd71efe03,-0x727(%rbp)
    8244:	fe 1e d7 
    8247:	c6 85 dd f8 ff ff 09 	movb   $0x9,-0x723(%rbp)
    824e:	c7 85 de f8 ff ff 0b 	movl   $0x8bac550b,-0x722(%rbp)
    8255:	55 ac 8b 
    8258:	c6 85 e2 f8 ff ff 2d 	movb   $0x2d,-0x71e(%rbp)
    825f:	c7 85 e3 f8 ff ff 03 	movl   $0xfe163303,-0x71d(%rbp)
    8266:	33 16 fe 
    8269:	c6 85 e7 f8 ff ff fc 	movb   $0xfc,-0x719(%rbp)
    8270:	c7 85 e8 f8 ff ff 1e 	movl   $0x90bac1e,-0x718(%rbp)
    8277:	ac 0b 09 
    827a:	c6 85 ec f8 ff ff 33 	movb   $0x33,-0x714(%rbp)
    8281:	c7 85 ed f8 ff ff fe 	movl   $0xefff6fe,-0x713(%rbp)
    8288:	f6 ff 0e 
    828b:	c6 85 f1 f8 ff ff 00 	movb   $0x0,-0x70f(%rbp)
    8292:	c7 85 f2 f8 ff ff 04 	movl   $0x2fe04,-0x70e(%rbp)
    8299:	fe 02 00 
    829c:	c6 85 f6 f8 ff ff a1 	movb   $0xa1,-0x70a(%rbp)
    82a3:	c7 85 f7 f8 ff ff a1 	movl   $0xfe42fea1,-0x709(%rbp)
    82aa:	fe 42 fe 
    82ad:	c6 85 fb f8 ff ff 00 	movb   $0x0,-0x705(%rbp)
    82b4:	c7 85 fc f8 ff ff fe 	movl   $0x400f6fe,-0x704(%rbp)
    82bb:	f6 00 04 
    82be:	c6 85 00 f9 ff ff 04 	movb   $0x4,-0x700(%rbp)
    82c5:	c7 85 01 f9 ff ff 09 	movl   $0x109ac09,-0x6ff(%rbp)
    82cc:	ac 09 01 
    82cf:	c6 85 05 f9 ff ff 20 	movb   $0x20,-0x6fb(%rbp)
    82d6:	c7 85 06 f9 ff ff 01 	movl   $0xf5553301,-0x6fa(%rbp)
    82dd:	33 55 f5 
    82e0:	c6 85 0a f9 ff ff 02 	movb   $0x2,-0x6f6(%rbp)
    82e7:	c7 85 0b f9 ff ff ff 	movl   $0xb80055ff,-0x6f5(%rbp)
    82ee:	55 00 b8 
    82f1:	c6 85 0f f9 ff ff 1e 	movb   $0x1e,-0x6f1(%rbp)
    82f8:	c7 85 10 f9 ff ff 01 	movl   $0x255fe01,-0x6f0(%rbp)
    82ff:	fe 55 02 
    8302:	c6 85 14 f9 ff ff ff 	movb   $0xff,-0x6ec(%rbp)
    8309:	c7 85 15 f9 ff ff 0e 	movl   $0x109f10e,-0x6eb(%rbp)
    8310:	f1 09 01 
    8313:	c6 85 19 f9 ff ff 41 	movb   $0x41,-0x6e7(%rbp)
    831a:	c7 85 1a f9 ff ff 36 	movl   $0x2f001236,-0x6e6(%rbp)
    8321:	12 00 2f 
    8324:	c6 85 1e f9 ff ff 01 	movb   $0x1,-0x6e2(%rbp)
    832b:	c7 85 1f f9 ff ff f6 	movl   $0x6f421ef6,-0x6e1(%rbp)
    8332:	1e 42 6f 
    8335:	c6 85 23 f9 ff ff f4 	movb   $0xf4,-0x6dd(%rbp)
    833c:	c7 85 24 f9 ff ff 09 	movl   $0x6f02fb09,-0x6dc(%rbp)
    8343:	fb 02 6f 
    8346:	c6 85 28 f9 ff ff d7 	movb   $0xd7,-0x6d8(%rbp)
    834d:	c7 85 29 f9 ff ff ce 	movl   $0x2ffff4ce,-0x6d7(%rbp)
    8354:	f4 ff 2f 
    8357:	c6 85 2d f9 ff ff fe 	movb   $0xfe,-0x6d3(%rbp)
    835e:	c7 85 2e f9 ff ff f1 	movl   $0x10b01f1,-0x6d2(%rbp)
    8365:	01 0b 01 
    8368:	c6 85 32 f9 ff ff f1 	movb   $0xf1,-0x6ce(%rbp)
    836f:	c7 85 33 f9 ff ff 00 	movl   $0xf4ff2f00,-0x6cd(%rbp)
    8376:	2f ff f4 
    8379:	c6 85 37 f9 ff ff ce 	movb   $0xce,-0x6c9(%rbp)
    8380:	c7 85 38 f9 ff ff 42 	movl   $0x361ea042,-0x6c8(%rbp)
    8387:	a0 1e 36 
    838a:	c6 85 3c f9 ff ff fe 	movb   $0xfe,-0x6c4(%rbp)
    8391:	c7 85 3d f9 ff ff 1e 	movl   $0x2f02041e,-0x6c3(%rbp)
    8398:	04 02 2f 
    839b:	c6 85 41 f9 ff ff ce 	movb   $0xce,-0x6bf(%rbp)
    83a2:	c7 85 42 f9 ff ff 03 	movl   $0xa1203603,-0x6be(%rbp)
    83a9:	36 20 a1 
    83ac:	c6 85 46 f9 ff ff 13 	movb   $0x13,-0x6ba(%rbp)
    83b3:	c7 85 47 f9 ff ff ce 	movl   $0xa00412ce,-0x6b9(%rbp)
    83ba:	12 04 a0 
    83bd:	c6 85 4b f9 ff ff 00 	movb   $0x0,-0x6b5(%rbp)
    83c4:	48 8b 85 80 f3 ff ff 	mov    -0xc80(%rbp),%rax
    83cb:	8b 00                	mov    (%rax),%eax
    83cd:	89 c2                	mov    %eax,%edx
    83cf:	8b 05 6f f7 00 00    	mov    0xf76f(%rip),%eax        # 17b44 <g_876+0x44>
    83d5:	89 d6                	mov    %edx,%esi
    83d7:	89 c7                	mov    %eax,%edi
    83d9:	e8 47 db ff ff       	callq  5f25 <safe_div_func_uint32_t_u_u>
    83de:	85 c0                	test   %eax,%eax
    83e0:	0f 95 c0             	setne  %al
    83e3:	0f b6 c8             	movzbl %al,%ecx
    83e6:	48 8b 95 10 f6 ff ff 	mov    -0x9f0(%rbp),%rdx
    83ed:	48 8b 85 48 f5 ff ff 	mov    -0xab8(%rbp),%rax
    83f4:	48 89 10             	mov    %rdx,(%rax)
    83f7:	48 8b 85 48 f5 ff ff 	mov    -0xab8(%rbp),%rax
    83fe:	48 8b 00             	mov    (%rax),%rax
    8401:	48 85 c0             	test   %rax,%rax
    8404:	0f 95 c0             	setne  %al
    8407:	0f b6 c0             	movzbl %al,%eax
    840a:	39 c1                	cmp    %eax,%ecx
    840c:	7d 24                	jge    8432 <func_1+0x1c7d>
    840e:	48 8b 05 db 0c 01 00 	mov    0x10cdb(%rip),%rax        # 190f0 <g_731>
    8415:	48 c7 00 00 00 00 00 	movq   $0x0,(%rax)
    841c:	48 8b 05 75 0e 01 00 	mov    0x10e75(%rip),%rax        # 19298 <g_1513>
    8423:	8b 00                	mov    (%rax),%eax
    8425:	85 c0                	test   %eax,%eax
    8427:	0f 84 b5 01 00 00    	je     85e2 <func_1+0x1e2d>
    842d:	e9 5c 03 00 00       	jmpq   878e <func_1+0x1fd9>
    8432:	48 8d 05 a7 1b 01 00 	lea    0x11ba7(%rip),%rax        # 19fe0 <g_582>
    8439:	48 89 85 50 f5 ff ff 	mov    %rax,-0xab0(%rbp)
    8440:	c7 85 08 f3 ff ff 07 	movl   $0x7,-0xcf8(%rbp)
    8447:	00 00 00 
    844a:	8b 85 08 f3 ff ff    	mov    -0xcf8(%rbp),%eax
    8450:	0f b7 d8             	movzwl %ax,%ebx
    8453:	0f b6 85 3f f2 ff ff 	movzbl -0xdc1(%rbp),%eax
    845a:	44 0f be e0          	movsbl %al,%r12d
    845e:	8b 05 3c f9 00 00    	mov    0xf93c(%rip),%eax        # 17da0 <g_882>
    8464:	4c 63 e8             	movslq %eax,%r13
    8467:	48 8b 05 4a 09 01 00 	mov    0x1094a(%rip),%rax        # 18db8 <g_665>
    846e:	0f b6 00             	movzbl (%rax),%eax
    8471:	44 0f be f0          	movsbl %al,%r14d
    8475:	83 bd 98 f2 ff ff 00 	cmpl   $0x0,-0xd68(%rbp)
    847c:	75 25                	jne    84a3 <func_1+0x1cee>
    847e:	8b 85 98 f2 ff ff    	mov    -0xd68(%rbp),%eax
    8484:	48 63 d0             	movslq %eax,%rdx
    8487:	48 83 bd 18 f5 ff ff 	cmpq   $0x0,-0xae8(%rbp)
    848e:	00 
    848f:	0f 95 c0             	setne  %al
    8492:	0f b6 c0             	movzbl %al,%eax
    8495:	48 89 d6             	mov    %rdx,%rsi
    8498:	48 89 c7             	mov    %rax,%rdi
    849b:	e8 08 d4 ff ff       	callq  58a8 <safe_sub_func_int64_t_s_s>
    84a0:	48 85 c0             	test   %rax,%rax
    84a3:	48 8b 05 ce 0d 01 00 	mov    0x10dce(%rip),%rax        # 19278 <g_1072>
    84aa:	8b 85 08 f3 ff ff    	mov    -0xcf8(%rbp),%eax
    84b0:	89 c6                	mov    %eax,%esi
    84b2:	bf 00 00 00 00       	mov    $0x0,%edi
    84b7:	e8 6e d0 ff ff       	callq  552a <safe_rshift_func_int16_t_s_s>
    84bc:	48 8b 85 f0 f5 ff ff 	mov    -0xa10(%rbp),%rax
    84c3:	48 8d 15 5e 0a 01 00 	lea    0x10a5e(%rip),%rdx        # 18f28 <g_728+0x8>
    84ca:	48 39 d0             	cmp    %rdx,%rax
    84cd:	0f 95 c2             	setne  %dl
    84d0:	0f b6 05 5a eb 00 00 	movzbl 0xeb5a(%rip),%eax        # 17031 <g_27>
    84d7:	84 c0                	test   %al,%al
    84d9:	0f 94 c0             	sete   %al
    84dc:	31 d0                	xor    %edx,%eax
    84de:	0f b6 c0             	movzbl %al,%eax
    84e1:	44 89 f6             	mov    %r14d,%esi
    84e4:	89 c7                	mov    %eax,%edi
    84e6:	e8 7f cd ff ff       	callq  526a <safe_div_func_int8_t_s_s>
    84eb:	48 8b 85 b8 f8 ff ff 	mov    -0x748(%rbp),%rax
    84f2:	48 39 85 50 f5 ff ff 	cmp    %rax,-0xab0(%rbp)
    84f9:	0f 95 c0             	setne  %al
    84fc:	0f b6 c0             	movzbl %al,%eax
    84ff:	be 05 00 00 00       	mov    $0x5,%esi
    8504:	89 c7                	mov    %eax,%edi
    8506:	e8 82 d7 ff ff       	callq  5c8d <safe_rshift_func_uint8_t_u_s>
    850b:	0f b6 c0             	movzbl %al,%eax
    850e:	be 00 00 00 00       	mov    $0x0,%esi
    8513:	89 c7                	mov    %eax,%edi
    8515:	e8 79 d6 ff ff       	callq  5b93 <safe_mul_func_uint8_t_u_u>
    851a:	0f b6 85 53 fa ff ff 	movzbl -0x5ad(%rbp),%eax
    8521:	48 0f be c0          	movsbq %al,%rax
    8525:	48 83 f8 f8          	cmp    $0xfffffffffffffff8,%rax
    8529:	0f 97 c0             	seta   %al
    852c:	0f b6 c0             	movzbl %al,%eax
    852f:	39 85 98 f2 ff ff    	cmp    %eax,-0xd68(%rbp)
    8535:	0f 94 c0             	sete   %al
    8538:	0f b6 c0             	movzbl %al,%eax
    853b:	39 85 08 f3 ff ff    	cmp    %eax,-0xcf8(%rbp)
    8541:	0f 95 c0             	setne  %al
    8544:	0f b6 c0             	movzbl %al,%eax
    8547:	4c 89 ee             	mov    %r13,%rsi
    854a:	48 89 c7             	mov    %rax,%rdi
    854d:	e8 a5 d4 ff ff       	callq  59f7 <safe_div_func_int64_t_s_s>
    8552:	48 85 c0             	test   %rax,%rax
    8555:	75 0a                	jne    8561 <func_1+0x1dac>
    8557:	8b 85 84 f7 ff ff    	mov    -0x87c(%rbp),%eax
    855d:	85 c0                	test   %eax,%eax
    855f:	74 07                	je     8568 <func_1+0x1db3>
    8561:	ba 01 00 00 00       	mov    $0x1,%edx
    8566:	eb 05                	jmp    856d <func_1+0x1db8>
    8568:	ba 00 00 00 00       	mov    $0x0,%edx
    856d:	48 8b 05 34 0d 01 00 	mov    0x10d34(%rip),%rax        # 192a8 <g_1593>
    8574:	48 8b 00             	mov    (%rax),%rax
    8577:	88 10                	mov    %dl,(%rax)
    8579:	0f b6 00             	movzbl (%rax),%eax
    857c:	0f be c0             	movsbl %al,%eax
    857f:	be 02 00 00 00       	mov    $0x2,%esi
    8584:	89 c7                	mov    %eax,%edi
    8586:	e8 63 cd ff ff       	callq  52ee <safe_lshift_func_int8_t_s_u>
    858b:	be 02 00 00 00       	mov    $0x2,%esi
    8590:	bf d9 9e ff ff       	mov    $0xffff9ed9,%edi
    8595:	e8 90 cf ff ff       	callq  552a <safe_rshift_func_int16_t_s_s>
    859a:	0f bf d0             	movswl %ax,%edx
    859d:	8b 05 e1 ed 00 00    	mov    0xede1(%rip),%eax        # 17384 <g_226+0x4>
    85a3:	39 c2                	cmp    %eax,%edx
    85a5:	0f 9c c0             	setl   %al
    85a8:	0f b6 c0             	movzbl %al,%eax
    85ab:	44 89 e6             	mov    %r12d,%esi
    85ae:	89 c7                	mov    %eax,%edi
    85b0:	e8 3d cc ff ff       	callq  51f2 <safe_sub_func_int8_t_s_s>
    85b5:	66 98                	cbtw   
    85b7:	f7 d0                	not    %eax
    85b9:	98                   	cwtl   
    85ba:	8b 95 98 f2 ff ff    	mov    -0xd68(%rbp),%edx
    85c0:	89 d6                	mov    %edx,%esi
    85c2:	89 c7                	mov    %eax,%edi
    85c4:	e8 c9 ce ff ff       	callq  5492 <safe_lshift_func_int16_t_s_s>
    85c9:	0f b7 c0             	movzwl %ax,%eax
    85cc:	89 de                	mov    %ebx,%esi
    85ce:	89 c7                	mov    %eax,%edi
    85d0:	e8 4a d7 ff ff       	callq  5d1f <safe_sub_func_uint16_t_u_u>
    85d5:	48 8b 85 80 f3 ff ff 	mov    -0xc80(%rbp),%rax
    85dc:	c7 00 01 00 00 00    	movl   $0x1,(%rax)
    85e2:	c7 85 98 f2 ff ff 00 	movl   $0x0,-0xd68(%rbp)
    85e9:	00 00 00 
    85ec:	eb 37                	jmp    8625 <func_1+0x1e70>
    85ee:	48 8d 05 a3 0e 01 00 	lea    0x10ea3(%rip),%rax        # 19498 <g_1602+0x1d8>
    85f5:	48 89 85 58 f5 ff ff 	mov    %rax,-0xaa8(%rbp)
    85fc:	66 83 bd 52 f2 ff ff 	cmpw   $0x0,-0xdae(%rbp)
    8603:	00 
    8604:	74 05                	je     860b <func_1+0x1e56>
    8606:	e9 87 ec ff ff       	jmpq   7292 <func_1+0xadd>
    860b:	8b 85 98 f2 ff ff    	mov    -0xd68(%rbp),%eax
    8611:	98                   	cwtl   
    8612:	be 01 00 00 00       	mov    $0x1,%esi
    8617:	89 c7                	mov    %eax,%edi
    8619:	e8 b5 cd ff ff       	callq  53d3 <safe_sub_func_int16_t_s_s>
    861e:	98                   	cwtl   
    861f:	89 85 98 f2 ff ff    	mov    %eax,-0xd68(%rbp)
    8625:	83 bd 98 f2 ff ff f8 	cmpl   $0xfffffff8,-0xd68(%rbp)
    862c:	7d c0                	jge    85ee <func_1+0x1e39>
    862e:	48 8b 85 80 f3 ff ff 	mov    -0xc80(%rbp),%rax
    8635:	8b 10                	mov    (%rax),%edx
    8637:	48 8b 05 7a 07 01 00 	mov    0x1077a(%rip),%rax        # 18db8 <g_665>
    863e:	0f b6 00             	movzbl (%rax),%eax
    8641:	0f b6 c0             	movzbl %al,%eax
    8644:	39 c2                	cmp    %eax,%edx
    8646:	0f 9e c0             	setle  %al
    8649:	0f b6 c0             	movzbl %al,%eax
    864c:	0b 85 98 f2 ff ff    	or     -0xd68(%rbp),%eax
    8652:	89 c3                	mov    %eax,%ebx
    8654:	0f b6 85 cb fa ff ff 	movzbl -0x535(%rbp),%eax
    865b:	48 0f be d0          	movsbq %al,%rdx
    865f:	0f b6 85 c8 fa ff ff 	movzbl -0x538(%rbp),%eax
    8666:	0f be c8             	movsbl %al,%ecx
    8669:	8b 05 65 19 01 00    	mov    0x11965(%rip),%eax        # 19fd4 <g_231>
    866f:	39 c1                	cmp    %eax,%ecx
    8671:	0f 9f c0             	setg   %al
    8674:	0f b6 c8             	movzbl %al,%ecx
    8677:	8b 05 27 f7 00 00    	mov    0xf727(%rip),%eax        # 17da4 <g_883>
    867d:	21 c8                	and    %ecx,%eax
    867f:	89 c1                	mov    %eax,%ecx
    8681:	8b 05 59 f7 00 00    	mov    0xf759(%rip),%eax        # 17de0 <g_1614>
    8687:	39 c1                	cmp    %eax,%ecx
    8689:	0f 92 c0             	setb   %al
    868c:	0f b6 c0             	movzbl %al,%eax
    868f:	48 89 d6             	mov    %rdx,%rsi
    8692:	48 89 c7             	mov    %rax,%rdi
    8695:	e8 a7 d1 ff ff       	callq  5841 <safe_add_func_int64_t_s_s>
    869a:	89 c2                	mov    %eax,%edx
    869c:	0f b6 05 c5 ec 00 00 	movzbl 0xecc5(%rip),%eax        # 17368 <g_224>
    86a3:	0f be c0             	movsbl %al,%eax
    86a6:	89 d6                	mov    %edx,%esi
    86a8:	89 c7                	mov    %eax,%edi
    86aa:	e8 21 d8 ff ff       	callq  5ed0 <safe_sub_func_uint32_t_u_u>
    86af:	21 d8                	and    %ebx,%eax
    86b1:	85 c0                	test   %eax,%eax
    86b3:	0f 84 bb 00 00 00    	je     8774 <func_1+0x1fbf>
    86b9:	48 8b 05 00 07 01 00 	mov    0x10700(%rip),%rax        # 18dc0 <g_671>
    86c0:	0f b6 00             	movzbl (%rax),%eax
    86c3:	0f b6 c0             	movzbl %al,%eax
    86c6:	be 07 00 00 00       	mov    $0x7,%esi
    86cb:	89 c7                	mov    %eax,%edi
    86cd:	e8 7a d5 ff ff       	callq  5c4c <safe_lshift_func_uint8_t_u_u>
    86d2:	48 8b 15 df 06 01 00 	mov    0x106df(%rip),%rdx        # 18db8 <g_665>
    86d9:	0f b6 12             	movzbl (%rdx),%edx
    86dc:	21 d0                	and    %edx,%eax
    86de:	84 c0                	test   %al,%al
    86e0:	0f 94 c0             	sete   %al
    86e3:	0f b6 d8             	movzbl %al,%ebx
    86e6:	0f b7 95 56 f2 ff ff 	movzwl -0xdaa(%rbp),%edx
    86ed:	0f b6 85 d4 f8 ff ff 	movzbl -0x72c(%rbp),%eax
    86f4:	0f b6 c0             	movzbl %al,%eax
    86f7:	31 c2                	xor    %eax,%edx
    86f9:	0f b7 05 e4 f6 00 00 	movzwl 0xf6e4(%rip),%eax        # 17de4 <g_1624>
    8700:	0f b7 c0             	movzwl %ax,%eax
    8703:	33 85 98 f2 ff ff    	xor    -0xd68(%rbp),%eax
    8709:	39 c2                	cmp    %eax,%edx
    870b:	0f 9c c0             	setl   %al
    870e:	0f b6 d0             	movzbl %al,%edx
    8711:	8b 85 d8 fd ff ff    	mov    -0x228(%rbp),%eax
    8717:	0f b6 c0             	movzbl %al,%eax
    871a:	89 d6                	mov    %edx,%esi
    871c:	89 c7                	mov    %eax,%edi
    871e:	e8 70 d4 ff ff       	callq  5b93 <safe_mul_func_uint8_t_u_u>
    8723:	0f b6 c0             	movzbl %al,%eax
    8726:	89 de                	mov    %ebx,%esi
    8728:	89 c7                	mov    %eax,%edi
    872a:	e8 34 ce ff ff       	callq  5563 <safe_rshift_func_int16_t_s_u>
    872f:	48 8b 05 72 0b 01 00 	mov    0x10b72(%rip),%rax        # 192a8 <g_1593>
    8736:	48 8b 00             	mov    (%rax),%rax
    8739:	48 8b 05 58 0b 01 00 	mov    0x10b58(%rip),%rax        # 19298 <g_1513>
    8740:	8b 10                	mov    (%rax),%edx
    8742:	48 8b 85 80 f3 ff ff 	mov    -0xc80(%rbp),%rax
    8749:	89 10                	mov    %edx,(%rax)
    874b:	48 8b 05 26 0b 01 00 	mov    0x10b26(%rip),%rax        # 19278 <g_1072>
    8752:	48 8b 95 80 f3 ff ff 	mov    -0xc80(%rbp),%rdx
    8759:	8b 12                	mov    (%rdx),%edx
    875b:	89 10                	mov    %edx,(%rax)
    875d:	8b 00                	mov    (%rax),%eax
    875f:	48 8b 95 d8 f6 ff ff 	mov    -0x928(%rbp),%rdx
    8766:	48 98                	cltq   
    8768:	48 21 d0             	and    %rdx,%rax
    876b:	48 89 85 d8 f6 ff ff 	mov    %rax,-0x928(%rbp)
    8772:	eb 1a                	jmp    878e <func_1+0x1fd9>
    8774:	48 8b 85 80 f3 ff ff 	mov    -0xc80(%rbp),%rax
    877b:	8b 10                	mov    (%rax),%edx
    877d:	8b 85 d8 fd ff ff    	mov    -0x228(%rbp),%eax
    8783:	21 c2                	and    %eax,%edx
    8785:	48 8b 85 80 f3 ff ff 	mov    -0xc80(%rbp),%rax
    878c:	89 10                	mov    %edx,(%rax)
    878e:	8b 05 0c f6 00 00    	mov    0xf60c(%rip),%eax        # 17da0 <g_882>
    8794:	0f be c0             	movsbl %al,%eax
    8797:	be 06 00 00 00       	mov    $0x6,%esi
    879c:	89 c7                	mov    %eax,%edi
    879e:	e8 31 ca ff ff       	callq  51d4 <safe_add_func_int8_t_s_s>
    87a3:	0f be c0             	movsbl %al,%eax
    87a6:	89 05 f4 f5 00 00    	mov    %eax,0xf5f4(%rip)        # 17da0 <g_882>
    87ac:	8b 05 ee f5 00 00    	mov    0xf5ee(%rip),%eax        # 17da0 <g_882>
    87b2:	83 f8 10             	cmp    $0x10,%eax
    87b5:	0f 8e f5 f9 ff ff    	jle    81b0 <func_1+0x19fb>
    87bb:	8b 85 58 f6 ff ff    	mov    -0x9a8(%rbp),%eax
    87c1:	83 e8 01             	sub    $0x1,%eax
    87c4:	89 85 58 f6 ff ff    	mov    %eax,-0x9a8(%rbp)
    87ca:	eb 01                	jmp    87cd <func_1+0x2018>
    87cc:	90                   	nop
    87cd:	0f b7 05 20 f6 00 00 	movzwl 0xf620(%rip),%eax        # 17df4 <g_1634+0xc>
    87d4:	66 85 c0             	test   %ax,%ax
    87d7:	0f 84 05 0c 00 00    	je     93e2 <func_1+0x2c2d>
    87dd:	48 8d 05 00 ec 00 00 	lea    0xec00(%rip),%rax        # 173e4 <g_326>
    87e4:	48 89 85 78 f5 ff ff 	mov    %rax,-0xa88(%rbp)
    87eb:	c7 85 70 f2 ff ff fc 	movl   $0x70bcb2fc,-0xd90(%rbp)
    87f2:	b2 bc 70 
    87f5:	48 8d 85 70 f7 ff ff 	lea    -0x890(%rbp),%rax
    87fc:	48 83 c0 14          	add    $0x14,%rax
    8800:	48 89 85 80 f5 ff ff 	mov    %rax,-0xa80(%rbp)
    8807:	48 c7 85 88 f5 ff ff 	movq   $0x0,-0xa78(%rbp)
    880e:	00 00 00 00 
    8812:	48 8b 05 7f 0a 01 00 	mov    0x10a7f(%rip),%rax        # 19298 <g_1513>
    8819:	8b 00                	mov    (%rax),%eax
    881b:	85 c0                	test   %eax,%eax
    881d:	0f 84 3b 03 00 00    	je     8b5e <func_1+0x23a9>
    8823:	c7 85 10 f3 ff ff 03 	movl   $0x3,-0xcf0(%rbp)
    882a:	00 00 00 
    882d:	c7 85 14 f3 ff ff b0 	movl   $0xa9699eb0,-0xcec(%rbp)
    8834:	9e 69 a9 
    8837:	c7 85 74 f2 ff ff 00 	movl   $0x0,-0xd8c(%rbp)
    883e:	00 00 00 
    8841:	eb 14                	jmp    8857 <func_1+0x20a2>
    8843:	8b 85 74 f2 ff ff    	mov    -0xd8c(%rbp),%eax
    8849:	48 98                	cltq   
    884b:	c6 44 05 c0 65       	movb   $0x65,-0x40(%rbp,%rax,1)
    8850:	83 85 74 f2 ff ff 01 	addl   $0x1,-0xd8c(%rbp)
    8857:	83 bd 74 f2 ff ff 07 	cmpl   $0x7,-0xd8c(%rbp)
    885e:	7e e3                	jle    8843 <func_1+0x208e>
    8860:	c7 85 74 f2 ff ff 00 	movl   $0x0,-0xd8c(%rbp)
    8867:	00 00 00 
    886a:	eb 1e                	jmp    888a <func_1+0x20d5>
    886c:	8b 85 74 f2 ff ff    	mov    -0xd8c(%rbp),%eax
    8872:	48 98                	cltq   
    8874:	48 8d 15 69 eb 00 00 	lea    0xeb69(%rip),%rdx        # 173e4 <g_326>
    887b:	48 89 94 c5 c0 f8 ff 	mov    %rdx,-0x740(%rbp,%rax,8)
    8882:	ff 
    8883:	83 85 74 f2 ff ff 01 	addl   $0x1,-0xd8c(%rbp)
    888a:	83 bd 74 f2 ff ff 01 	cmpl   $0x1,-0xd8c(%rbp)
    8891:	7e d9                	jle    886c <func_1+0x20b7>
    8893:	66 c7 05 3c eb 00 00 	movw   $0x0,0xeb3c(%rip)        # 173d8 <g_232>
    889a:	00 00 
    889c:	e9 a7 02 00 00       	jmpq   8b48 <func_1+0x2393>
    88a1:	c6 85 43 f2 ff ff ff 	movb   $0xff,-0xdbd(%rbp)
    88a8:	48 8d 05 19 17 01 00 	lea    0x11719(%rip),%rax        # 19fc8 <g_28>
    88af:	48 89 85 f0 fc ff ff 	mov    %rax,-0x310(%rbp)
    88b6:	48 8d 05 13 eb 00 00 	lea    0xeb13(%rip),%rax        # 173d0 <g_229>
    88bd:	48 89 85 f8 fc ff ff 	mov    %rax,-0x308(%rbp)
    88c4:	48 8d 05 fd 16 01 00 	lea    0x116fd(%rip),%rax        # 19fc8 <g_28>
    88cb:	48 89 85 00 fd ff ff 	mov    %rax,-0x300(%rbp)
    88d2:	48 8d 05 ef 16 01 00 	lea    0x116ef(%rip),%rax        # 19fc8 <g_28>
    88d9:	48 89 85 08 fd ff ff 	mov    %rax,-0x2f8(%rbp)
    88e0:	48 8d 05 e9 ea 00 00 	lea    0xeae9(%rip),%rax        # 173d0 <g_229>
    88e7:	48 89 85 10 fd ff ff 	mov    %rax,-0x2f0(%rbp)
    88ee:	48 8d 05 d3 16 01 00 	lea    0x116d3(%rip),%rax        # 19fc8 <g_28>
    88f5:	48 89 85 18 fd ff ff 	mov    %rax,-0x2e8(%rbp)
    88fc:	48 8d 05 c5 16 01 00 	lea    0x116c5(%rip),%rax        # 19fc8 <g_28>
    8903:	48 89 85 20 fd ff ff 	mov    %rax,-0x2e0(%rbp)
    890a:	48 8d 05 bf ea 00 00 	lea    0xeabf(%rip),%rax        # 173d0 <g_229>
    8911:	48 89 85 28 fd ff ff 	mov    %rax,-0x2d8(%rbp)
    8918:	48 8d 05 a9 16 01 00 	lea    0x116a9(%rip),%rax        # 19fc8 <g_28>
    891f:	48 89 85 30 fd ff ff 	mov    %rax,-0x2d0(%rbp)
    8926:	c7 85 18 f3 ff ff f6 	movl   $0xfffffff6,-0xce8(%rbp)
    892d:	ff ff ff 
    8930:	c7 85 78 f2 ff ff 00 	movl   $0x0,-0xd88(%rbp)
    8937:	00 00 00 
    893a:	eb 1b                	jmp    8957 <func_1+0x21a2>
    893c:	8b 85 78 f2 ff ff    	mov    -0xd88(%rbp),%eax
    8942:	48 98                	cltq   
    8944:	48 c7 84 c5 20 fa ff 	movq   $0x0,-0x5e0(%rbp,%rax,8)
    894b:	ff 00 00 00 00 
    8950:	83 85 78 f2 ff ff 01 	addl   $0x1,-0xd88(%rbp)
    8957:	83 bd 78 f2 ff ff 06 	cmpl   $0x6,-0xd88(%rbp)
    895e:	7e dc                	jle    893c <func_1+0x2187>
    8960:	48 8b 85 80 f3 ff ff 	mov    -0xc80(%rbp),%rax
    8967:	8b 10                	mov    (%rax),%edx
    8969:	0f be 85 43 f2 ff ff 	movsbl -0xdbd(%rbp),%eax
    8970:	31 c2                	xor    %eax,%edx
    8972:	48 8b 85 80 f3 ff ff 	mov    -0xc80(%rbp),%rax
    8979:	89 10                	mov    %edx,(%rax)
    897b:	48 c7 05 e2 0b 01 00 	movq   $0x0,0x10be2(%rip)        # 19568 <g_1639+0x8>
    8982:	00 00 00 00 
    8986:	48 8b 05 db 0b 01 00 	mov    0x10bdb(%rip),%rax        # 19568 <g_1639+0x8>
    898d:	48 8d 15 ac 0b 01 00 	lea    0x10bac(%rip),%rdx        # 19540 <g_1640>
    8994:	48 39 d0             	cmp    %rdx,%rax
    8997:	0f 95 c0             	setne  %al
    899a:	0f b6 d0             	movzbl %al,%edx
    899d:	48 8b 85 80 f3 ff ff 	mov    -0xc80(%rbp),%rax
    89a4:	89 10                	mov    %edx,(%rax)
    89a6:	48 8b 05 13 04 01 00 	mov    0x10413(%rip),%rax        # 18dc0 <g_671>
    89ad:	0f b6 00             	movzbl (%rax),%eax
    89b0:	0f b6 d8             	movzbl %al,%ebx
    89b3:	44 8b a5 14 f3 ff ff 	mov    -0xcec(%rbp),%r12d
    89ba:	8b 85 70 f2 ff ff    	mov    -0xd90(%rbp),%eax
    89c0:	89 85 18 f3 ff ff    	mov    %eax,-0xce8(%rbp)
    89c6:	48 8b 05 ab 08 01 00 	mov    0x108ab(%rip),%rax        # 19278 <g_1072>
    89cd:	8b 10                	mov    (%rax),%edx
    89cf:	23 95 70 f2 ff ff    	and    -0xd90(%rbp),%edx
    89d5:	89 10                	mov    %edx,(%rax)
    89d7:	48 8b 85 80 f3 ff ff 	mov    -0xc80(%rbp),%rax
    89de:	8b 00                	mov    (%rax),%eax
    89e0:	89 85 2c f2 ff ff    	mov    %eax,-0xdd4(%rbp)
    89e6:	8b 85 18 f3 ff ff    	mov    -0xce8(%rbp),%eax
    89ec:	44 0f bf e8          	movswl %ax,%r13d
    89f0:	0f b6 45 c5          	movzbl -0x3b(%rbp),%eax
    89f4:	0f b6 c0             	movzbl %al,%eax
    89f7:	48 89 85 20 f2 ff ff 	mov    %rax,-0xde0(%rbp)
    89fe:	48 8b 85 80 f3 ff ff 	mov    -0xc80(%rbp),%rax
    8a05:	8b 00                	mov    (%rax),%eax
    8a07:	4c 63 f0             	movslq %eax,%r14
    8a0a:	48 8b 85 20 f5 ff ff 	mov    -0xae0(%rbp),%rax
    8a11:	44 0f b7 f8          	movzwl %ax,%r15d
    8a15:	8b 05 15 ec 00 00    	mov    0xec15(%rip),%eax        # 17630 <g_854>
    8a1b:	0b 85 14 f3 ff ff    	or     -0xcec(%rbp),%eax
    8a21:	83 f8 56             	cmp    $0x56,%eax
    8a24:	7f 09                	jg     8a2f <func_1+0x227a>
    8a26:	83 bd 70 f2 ff ff 00 	cmpl   $0x0,-0xd90(%rbp)
    8a2d:	74 07                	je     8a36 <func_1+0x2281>
    8a2f:	b8 01 00 00 00       	mov    $0x1,%eax
    8a34:	eb 05                	jmp    8a3b <func_1+0x2286>
    8a36:	b8 00 00 00 00       	mov    $0x0,%eax
    8a3b:	0f b7 c0             	movzwl %ax,%eax
    8a3e:	be b7 82 00 00       	mov    $0x82b7,%esi
    8a43:	89 c7                	mov    %eax,%edi
    8a45:	e8 f3 d2 ff ff       	callq  5d3d <safe_mul_func_uint16_t_u_u>
    8a4a:	89 c2                	mov    %eax,%edx
    8a4c:	48 8b 85 80 f3 ff ff 	mov    -0xc80(%rbp),%rax
    8a53:	8b 00                	mov    (%rax),%eax
    8a55:	09 d0                	or     %edx,%eax
    8a57:	0f b7 c0             	movzwl %ax,%eax
    8a5a:	44 89 fe             	mov    %r15d,%esi
    8a5d:	89 c7                	mov    %eax,%edi
    8a5f:	e8 d9 d2 ff ff       	callq  5d3d <safe_mul_func_uint16_t_u_u>
    8a64:	0f b7 c0             	movzwl %ax,%eax
    8a67:	4c 89 f6             	mov    %r14,%rsi
    8a6a:	48 89 c7             	mov    %rax,%rdi
    8a6d:	e8 85 cf ff ff       	callq  59f7 <safe_div_func_int64_t_s_s>
    8a72:	48 39 85 20 f2 ff ff 	cmp    %rax,-0xde0(%rbp)
    8a79:	0f 9c c0             	setl   %al
    8a7c:	0f b6 c0             	movzbl %al,%eax
    8a7f:	44 89 ee             	mov    %r13d,%esi
    8a82:	89 c7                	mov    %eax,%edi
    8a84:	e8 8d c9 ff ff       	callq  5416 <safe_mod_func_int16_t_s_s>
    8a89:	98                   	cwtl   
    8a8a:	8b b5 2c f2 ff ff    	mov    -0xdd4(%rbp),%esi
    8a90:	89 c7                	mov    %eax,%edi
    8a92:	e8 66 d4 ff ff       	callq  5efd <safe_mod_func_uint32_t_u_u>
    8a97:	8b 85 70 f2 ff ff    	mov    -0xd90(%rbp),%eax
    8a9d:	3b 85 10 f3 ff ff    	cmp    -0xcf0(%rbp),%eax
    8aa3:	0f 94 c0             	sete   %al
    8aa6:	0f b6 c0             	movzbl %al,%eax
    8aa9:	23 85 70 f2 ff ff    	and    -0xd90(%rbp),%eax
    8aaf:	39 85 14 f3 ff ff    	cmp    %eax,-0xcec(%rbp)
    8ab5:	0f 9e c0             	setle  %al
    8ab8:	0f b6 d0             	movzbl %al,%edx
    8abb:	48 8b 05 e6 07 01 00 	mov    0x107e6(%rip),%rax        # 192a8 <g_1593>
    8ac2:	48 8b 00             	mov    (%rax),%rax
    8ac5:	0f b6 00             	movzbl (%rax),%eax
    8ac8:	0f be c0             	movsbl %al,%eax
    8acb:	89 d1                	mov    %edx,%ecx
    8acd:	31 c1                	xor    %eax,%ecx
    8acf:	48 8b 05 6a 0a 01 00 	mov    0x10a6a(%rip),%rax        # 19540 <g_1640>
    8ad6:	8b 10                	mov    (%rax),%edx
    8ad8:	48 8b 05 61 0a 01 00 	mov    0x10a61(%rip),%rax        # 19540 <g_1640>
    8adf:	09 ca                	or     %ecx,%edx
    8ae1:	89 10                	mov    %edx,(%rax)
    8ae3:	8b 00                	mov    (%rax),%eax
    8ae5:	44 89 e6             	mov    %r12d,%esi
    8ae8:	89 c7                	mov    %eax,%edi
    8aea:	e8 c9 d3 ff ff       	callq  5eb8 <safe_add_func_uint32_t_u_u>
    8aef:	0f b6 c0             	movzbl %al,%eax
    8af2:	89 de                	mov    %ebx,%esi
    8af4:	89 c7                	mov    %eax,%edi
    8af6:	e8 98 d0 ff ff       	callq  5b93 <safe_mul_func_uint8_t_u_u>
    8afb:	48 8b 85 c8 f8 ff ff 	mov    -0x738(%rbp),%rax
    8b02:	48 39 85 78 f5 ff ff 	cmp    %rax,-0xa88(%rbp)
    8b09:	0f 95 c0             	setne  %al
    8b0c:	0f b6 d0             	movzbl %al,%edx
    8b0f:	48 8b 85 80 f3 ff ff 	mov    -0xc80(%rbp),%rax
    8b16:	89 10                	mov    %edx,(%rax)
    8b18:	48 8b 05 e1 0f 01 00 	mov    0x10fe1(%rip),%rax        # 19b00 <g_1669>
    8b1f:	48 8b 15 c2 0a 01 00 	mov    0x10ac2(%rip),%rdx        # 195e8 <g_1665>
    8b26:	48 89 10             	mov    %rdx,(%rax)
    8b29:	0f b7 05 a8 e8 00 00 	movzwl 0xe8a8(%rip),%eax        # 173d8 <g_232>
    8b30:	48 0f bf c0          	movswq %ax,%rax
    8b34:	be 01 00 00 00       	mov    $0x1,%esi
    8b39:	48 89 c7             	mov    %rax,%rdi
    8b3c:	e8 00 cd ff ff       	callq  5841 <safe_add_func_int64_t_s_s>
    8b41:	66 89 05 90 e8 00 00 	mov    %ax,0xe890(%rip)        # 173d8 <g_232>
    8b48:	0f b7 05 89 e8 00 00 	movzwl 0xe889(%rip),%eax        # 173d8 <g_232>
    8b4f:	66 83 f8 1a          	cmp    $0x1a,%ax
    8b53:	0f 8e 48 fd ff ff    	jle    88a1 <func_1+0x20ec>
    8b59:	e9 12 01 00 00       	jmpq   8c70 <func_1+0x24bb>
    8b5e:	48 b8 f0 2c ff 36 45 	movabs $0xcf785d4536ff2cf0,%rax
    8b65:	5d 78 cf 
    8b68:	48 89 85 90 f5 ff ff 	mov    %rax,-0xa70(%rbp)
    8b6f:	48 8d 05 36 eb 00 00 	lea    0xeb36(%rip),%rax        # 176ac <g_866>
    8b76:	48 89 85 98 f5 ff ff 	mov    %rax,-0xa68(%rbp)
    8b7d:	48 8b 05 7c 0f 01 00 	mov    0x10f7c(%rip),%rax        # 19b00 <g_1669>
    8b84:	48 8b 00             	mov    (%rax),%rax
    8b87:	48 8b 85 80 f3 ff ff 	mov    -0xc80(%rbp),%rax
    8b8e:	8b 00                	mov    (%rax),%eax
    8b90:	0f b6 d8             	movzbl %al,%ebx
    8b93:	48 8b 85 80 f3 ff ff 	mov    -0xc80(%rbp),%rax
    8b9a:	8b 00                	mov    (%rax),%eax
    8b9c:	44 0f be e0          	movsbl %al,%r12d
    8ba0:	48 8b 05 69 0f 01 00 	mov    0x10f69(%rip),%rax        # 19b10 <g_1680>
    8ba7:	48 85 c0             	test   %rax,%rax
    8baa:	0f 95 c0             	setne  %al
    8bad:	44 0f b6 e8          	movzbl %al,%r13d
    8bb1:	be 0b 00 00 00       	mov    $0xb,%esi
    8bb6:	bf ff ff ff ff       	mov    $0xffffffff,%edi
    8bbb:	e8 d2 c8 ff ff       	callq  5492 <safe_lshift_func_int16_t_s_s>
    8bc0:	98                   	cwtl   
    8bc1:	44 89 ee             	mov    %r13d,%esi
    8bc4:	89 c7                	mov    %eax,%edi
    8bc6:	e8 77 ca ff ff       	callq  5642 <safe_mul_func_int32_t_s_s>
    8bcb:	41 89 c5             	mov    %eax,%r13d
    8bce:	48 8b 85 90 f5 ff ff 	mov    -0xa70(%rbp),%rax
    8bd5:	89 c6                	mov    %eax,%esi
    8bd7:	bf 00 00 00 00       	mov    $0x0,%edi
    8bdc:	e8 d5 c9 ff ff       	callq  55b6 <safe_add_func_int32_t_s_s>
    8be1:	3d fe 00 00 00       	cmp    $0xfe,%eax
    8be6:	77 18                	ja     8c00 <func_1+0x244b>
    8be8:	48 8b 05 b9 06 01 00 	mov    0x106b9(%rip),%rax        # 192a8 <g_1593>
    8bef:	48 8b 00             	mov    (%rax),%rax
    8bf2:	0f b6 00             	movzbl (%rax),%eax
    8bf5:	84 c0                	test   %al,%al
    8bf7:	74 07                	je     8c00 <func_1+0x244b>
    8bf9:	b8 01 00 00 00       	mov    $0x1,%eax
    8bfe:	eb 05                	jmp    8c05 <func_1+0x2450>
    8c00:	b8 00 00 00 00       	mov    $0x0,%eax
    8c05:	3d a1 75 00 00       	cmp    $0x75a1,%eax
    8c0a:	0f 95 c0             	setne  %al
    8c0d:	0f b6 c0             	movzbl %al,%eax
    8c10:	41 39 c5             	cmp    %eax,%r13d
    8c13:	44 89 e6             	mov    %r12d,%esi
    8c16:	bf b1 ff ff ff       	mov    $0xffffffb1,%edi
    8c1b:	e8 d2 c5 ff ff       	callq  51f2 <safe_sub_func_int8_t_s_s>
    8c20:	0f b6 c0             	movzbl %al,%eax
    8c23:	89 de                	mov    %ebx,%esi
    8c25:	89 c7                	mov    %eax,%edi
    8c27:	e8 67 cf ff ff       	callq  5b93 <safe_mul_func_uint8_t_u_u>
    8c2c:	48 8b 85 80 f3 ff ff 	mov    -0xc80(%rbp),%rax
    8c33:	8b 00                	mov    (%rax),%eax
    8c35:	89 c2                	mov    %eax,%edx
    8c37:	8b 85 70 f2 ff ff    	mov    -0xd90(%rbp),%eax
    8c3d:	98                   	cwtl   
    8c3e:	89 d6                	mov    %edx,%esi
    8c40:	89 c7                	mov    %eax,%edi
    8c42:	e8 9a c8 ff ff       	callq  54e1 <safe_lshift_func_int16_t_s_u>
    8c47:	48 8b 05 c2 0e 01 00 	mov    0x10ec2(%rip),%rax        # 19b10 <g_1680>
    8c4e:	48 8b 00             	mov    (%rax),%rax
    8c51:	48 8d 95 80 f6 ff ff 	lea    -0x980(%rbp),%rdx
    8c58:	48 83 c2 04          	add    $0x4,%rdx
    8c5c:	48 89 10             	mov    %rdx,(%rax)
    8c5f:	48 8b 05 b2 0e 01 00 	mov    0x10eb2(%rip),%rax        # 19b18 <g_1686>
    8c66:	48 8b 95 98 f5 ff ff 	mov    -0xa68(%rbp),%rdx
    8c6d:	48 89 10             	mov    %rdx,(%rax)
    8c70:	48 8b 85 80 f5 ff ff 	mov    -0xa80(%rbp),%rax
    8c77:	c7 00 ff ff ff ff    	movl   $0xffffffff,(%rax)
    8c7d:	48 8b 05 8c 0e 01 00 	mov    0x10e8c(%rip),%rax        # 19b10 <g_1680>
    8c84:	48 8b 00             	mov    (%rax),%rax
    8c87:	48 8b 95 28 f5 ff ff 	mov    -0xad8(%rbp),%rdx
    8c8e:	48 89 10             	mov    %rdx,(%rax)
    8c91:	48 8b 85 28 f5 ff ff 	mov    -0xad8(%rbp),%rax
    8c98:	8b 10                	mov    (%rax),%edx
    8c9a:	48 8b 85 80 f3 ff ff 	mov    -0xc80(%rbp),%rax
    8ca1:	8b 00                	mov    (%rax),%eax
    8ca3:	21 c2                	and    %eax,%edx
    8ca5:	48 8b 85 28 f5 ff ff 	mov    -0xad8(%rbp),%rax
    8cac:	89 10                	mov    %edx,(%rax)
    8cae:	48 8b 85 28 f5 ff ff 	mov    -0xad8(%rbp),%rax
    8cb5:	8b 00                	mov    (%rax),%eax
    8cb7:	39 85 70 f2 ff ff    	cmp    %eax,-0xd90(%rbp)
    8cbd:	0f 95 c2             	setne  %dl
    8cc0:	48 8b 05 d9 05 01 00 	mov    0x105d9(%rip),%rax        # 192a0 <g_1594>
    8cc7:	88 10                	mov    %dl,(%rax)
    8cc9:	0f b6 00             	movzbl (%rax),%eax
    8ccc:	0f b6 d0             	movzbl %al,%edx
    8ccf:	48 8b 85 80 f3 ff ff 	mov    -0xc80(%rbp),%rax
    8cd6:	8b 00                	mov    (%rax),%eax
    8cd8:	39 85 70 f2 ff ff    	cmp    %eax,-0xd90(%rbp)
    8cde:	0f 9d c0             	setge  %al
    8ce1:	0f b6 c0             	movzbl %al,%eax
    8ce4:	89 d6                	mov    %edx,%esi
    8ce6:	89 c7                	mov    %eax,%edi
    8ce8:	e8 6d ce ff ff       	callq  5b5a <safe_add_func_uint8_t_u_u>
    8ced:	84 c0                	test   %al,%al
    8cef:	0f 84 6c 06 00 00    	je     9361 <func_1+0x2bac>
    8cf5:	48 c7 85 40 f8 ff ff 	movq   $0xfffffffffffffffc,-0x7c0(%rbp)
    8cfc:	fc ff ff ff 
    8d00:	48 c7 85 48 f8 ff ff 	movq   $0xfffffffffffffffc,-0x7b8(%rbp)
    8d07:	fc ff ff ff 
    8d0b:	48 c7 85 50 f8 ff ff 	movq   $0xfffffffffffffffc,-0x7b0(%rbp)
    8d12:	fc ff ff ff 
    8d16:	48 c7 85 58 f8 ff ff 	movq   $0xfffffffffffffffc,-0x7a8(%rbp)
    8d1d:	fc ff ff ff 
    8d21:	48 c7 85 60 f8 ff ff 	movq   $0xfffffffffffffffc,-0x7a0(%rbp)
    8d28:	fc ff ff ff 
    8d2c:	48 c7 85 68 f8 ff ff 	movq   $0xfffffffffffffffc,-0x798(%rbp)
    8d33:	fc ff ff ff 
    8d37:	c7 85 1c f3 ff ff ff 	movl   $0xffffffff,-0xce4(%rbp)
    8d3e:	ff ff ff 
    8d41:	48 8d 85 f0 fc ff ff 	lea    -0x310(%rbp),%rax
    8d48:	48 8d 15 d1 a7 00 00 	lea    0xa7d1(%rip),%rdx        # 13520 <g_1778+0x4c4>
    8d4f:	b9 5a 00 00 00       	mov    $0x5a,%ecx
    8d54:	48 89 c7             	mov    %rax,%rdi
    8d57:	48 89 d6             	mov    %rdx,%rsi
    8d5a:	f3 48 a5             	rep movsq %ds:(%rsi),%es:(%rdi)
    8d5d:	48 8d 05 34 05 01 00 	lea    0x10534(%rip),%rax        # 19298 <g_1513>
    8d64:	48 89 85 a8 f5 ff ff 	mov    %rax,-0xa58(%rbp)
    8d6b:	66 c7 85 5c f2 ff ff 	movw   $0x5458,-0xda4(%rbp)
    8d72:	58 54 
    8d74:	c7 05 b2 ef 00 00 00 	movl   $0x0,0xefb2(%rip)        # 17d30 <g_879>
    8d7b:	00 00 00 
    8d7e:	e9 c4 05 00 00       	jmpq   9347 <func_1+0x2b92>
    8d83:	c7 85 c0 f8 ff ff 85 	movl   $0x27f36d85,-0x740(%rbp)
    8d8a:	6d f3 27 
    8d8d:	c7 85 c4 f8 ff ff f9 	movl   $0xfffffff9,-0x73c(%rbp)
    8d94:	ff ff ff 
    8d97:	c7 85 c8 f8 ff ff 85 	movl   $0x27f36d85,-0x738(%rbp)
    8d9e:	6d f3 27 
    8da1:	c7 85 cc f8 ff ff 85 	movl   $0x27f36d85,-0x734(%rbp)
    8da8:	6d f3 27 
    8dab:	c7 85 d0 f8 ff ff f9 	movl   $0xfffffff9,-0x730(%rbp)
    8db2:	ff ff ff 
    8db5:	c7 85 d4 f8 ff ff 85 	movl   $0x27f36d85,-0x72c(%rbp)
    8dbc:	6d f3 27 
    8dbf:	c7 85 d8 f8 ff ff 85 	movl   $0x27f36d85,-0x728(%rbp)
    8dc6:	6d f3 27 
    8dc9:	c7 85 dc f8 ff ff f9 	movl   $0xfffffff9,-0x724(%rbp)
    8dd0:	ff ff ff 
    8dd3:	c7 85 e0 f8 ff ff f9 	movl   $0xfffffff9,-0x720(%rbp)
    8dda:	ff ff ff 
    8ddd:	c7 85 e4 f8 ff ff 85 	movl   $0x27f36d85,-0x71c(%rbp)
    8de4:	6d f3 27 
    8de7:	c7 85 e8 f8 ff ff 85 	movl   $0x27f36d85,-0x718(%rbp)
    8dee:	6d f3 27 
    8df1:	c7 85 ec f8 ff ff f9 	movl   $0xfffffff9,-0x714(%rbp)
    8df8:	ff ff ff 
    8dfb:	c7 85 f0 f8 ff ff 85 	movl   $0x27f36d85,-0x710(%rbp)
    8e02:	6d f3 27 
    8e05:	c7 85 f4 f8 ff ff 85 	movl   $0x27f36d85,-0x70c(%rbp)
    8e0c:	6d f3 27 
    8e0f:	c7 85 f8 f8 ff ff f9 	movl   $0xfffffff9,-0x708(%rbp)
    8e16:	ff ff ff 
    8e19:	c7 85 fc f8 ff ff 85 	movl   $0x27f36d85,-0x704(%rbp)
    8e20:	6d f3 27 
    8e23:	c7 85 00 f9 ff ff f9 	movl   $0xfffffff9,-0x700(%rbp)
    8e2a:	ff ff ff 
    8e2d:	c7 85 04 f9 ff ff f9 	movl   $0xfffffff9,-0x6fc(%rbp)
    8e34:	ff ff ff 
    8e37:	c7 85 08 f9 ff ff f6 	movl   $0xfffffff6,-0x6f8(%rbp)
    8e3e:	ff ff ff 
    8e41:	c7 85 0c f9 ff ff f9 	movl   $0xfffffff9,-0x6f4(%rbp)
    8e48:	ff ff ff 
    8e4b:	c7 85 10 f9 ff ff f9 	movl   $0xfffffff9,-0x6f0(%rbp)
    8e52:	ff ff ff 
    8e55:	c7 85 14 f9 ff ff f6 	movl   $0xfffffff6,-0x6ec(%rbp)
    8e5c:	ff ff ff 
    8e5f:	c7 85 18 f9 ff ff f9 	movl   $0xfffffff9,-0x6e8(%rbp)
    8e66:	ff ff ff 
    8e69:	c7 85 1c f9 ff ff f9 	movl   $0xfffffff9,-0x6e4(%rbp)
    8e70:	ff ff ff 
    8e73:	66 c7 85 44 f2 ff ff 	movw   $0x0,-0xdbc(%rbp)
    8e7a:	00 00 
    8e7c:	48 c7 85 b0 f5 ff ff 	movq   $0x0,-0xa50(%rbp)
    8e83:	00 00 00 00 
    8e87:	48 8d 85 c0 f7 ff ff 	lea    -0x840(%rbp),%rax
    8e8e:	48 83 c0 52          	add    $0x52,%rax
    8e92:	48 89 85 b8 f5 ff ff 	mov    %rax,-0xa48(%rbp)
    8e99:	48 c7 85 c0 f5 ff ff 	movq   $0x4,-0xa40(%rbp)
    8ea0:	04 00 00 00 
    8ea4:	48 8d 05 0d 04 01 00 	lea    0x1040d(%rip),%rax        # 192b8 <g_1603>
    8eab:	48 89 85 20 fa ff ff 	mov    %rax,-0x5e0(%rbp)
    8eb2:	48 8d 05 ff 03 01 00 	lea    0x103ff(%rip),%rax        # 192b8 <g_1603>
    8eb9:	48 89 85 28 fa ff ff 	mov    %rax,-0x5d8(%rbp)
    8ec0:	48 8d 05 f1 03 01 00 	lea    0x103f1(%rip),%rax        # 192b8 <g_1603>
    8ec7:	48 89 85 30 fa ff ff 	mov    %rax,-0x5d0(%rbp)
    8ece:	48 8d 05 e3 03 01 00 	lea    0x103e3(%rip),%rax        # 192b8 <g_1603>
    8ed5:	48 89 85 38 fa ff ff 	mov    %rax,-0x5c8(%rbp)
    8edc:	48 8d 05 d5 03 01 00 	lea    0x103d5(%rip),%rax        # 192b8 <g_1603>
    8ee3:	48 89 85 40 fa ff ff 	mov    %rax,-0x5c0(%rbp)
    8eea:	48 8d 05 c7 03 01 00 	lea    0x103c7(%rip),%rax        # 192b8 <g_1603>
    8ef1:	48 89 85 48 fa ff ff 	mov    %rax,-0x5b8(%rbp)
    8ef8:	48 8d 05 b9 03 01 00 	lea    0x103b9(%rip),%rax        # 192b8 <g_1603>
    8eff:	48 89 85 50 fa ff ff 	mov    %rax,-0x5b0(%rbp)
    8f06:	48 8d 05 ab 03 01 00 	lea    0x103ab(%rip),%rax        # 192b8 <g_1603>
    8f0d:	48 89 85 58 fa ff ff 	mov    %rax,-0x5a8(%rbp)
    8f14:	48 8d 05 9d 03 01 00 	lea    0x1039d(%rip),%rax        # 192b8 <g_1603>
    8f1b:	48 89 85 60 fa ff ff 	mov    %rax,-0x5a0(%rbp)
    8f22:	48 8d 05 8f 03 01 00 	lea    0x1038f(%rip),%rax        # 192b8 <g_1603>
    8f29:	48 89 85 68 fa ff ff 	mov    %rax,-0x598(%rbp)
    8f30:	48 8d 05 81 03 01 00 	lea    0x10381(%rip),%rax        # 192b8 <g_1603>
    8f37:	48 89 85 70 fa ff ff 	mov    %rax,-0x590(%rbp)
    8f3e:	48 8d 05 73 03 01 00 	lea    0x10373(%rip),%rax        # 192b8 <g_1603>
    8f45:	48 89 85 78 fa ff ff 	mov    %rax,-0x588(%rbp)
    8f4c:	48 c7 85 80 fa ff ff 	movq   $0x0,-0x580(%rbp)
    8f53:	00 00 00 00 
    8f57:	48 8d 05 5a 03 01 00 	lea    0x1035a(%rip),%rax        # 192b8 <g_1603>
    8f5e:	48 89 85 88 fa ff ff 	mov    %rax,-0x578(%rbp)
    8f65:	48 8d 05 4c 03 01 00 	lea    0x1034c(%rip),%rax        # 192b8 <g_1603>
    8f6c:	48 89 85 90 fa ff ff 	mov    %rax,-0x570(%rbp)
    8f73:	48 8d 05 3e 03 01 00 	lea    0x1033e(%rip),%rax        # 192b8 <g_1603>
    8f7a:	48 89 85 98 fa ff ff 	mov    %rax,-0x568(%rbp)
    8f81:	48 8d 05 30 03 01 00 	lea    0x10330(%rip),%rax        # 192b8 <g_1603>
    8f88:	48 89 85 a0 fa ff ff 	mov    %rax,-0x560(%rbp)
    8f8f:	48 8d 05 22 03 01 00 	lea    0x10322(%rip),%rax        # 192b8 <g_1603>
    8f96:	48 89 85 a8 fa ff ff 	mov    %rax,-0x558(%rbp)
    8f9d:	48 8d 05 14 03 01 00 	lea    0x10314(%rip),%rax        # 192b8 <g_1603>
    8fa4:	48 89 85 b0 fa ff ff 	mov    %rax,-0x550(%rbp)
    8fab:	48 8d 05 06 03 01 00 	lea    0x10306(%rip),%rax        # 192b8 <g_1603>
    8fb2:	48 89 85 b8 fa ff ff 	mov    %rax,-0x548(%rbp)
    8fb9:	48 8d 05 f8 02 01 00 	lea    0x102f8(%rip),%rax        # 192b8 <g_1603>
    8fc0:	48 89 85 c0 fa ff ff 	mov    %rax,-0x540(%rbp)
    8fc7:	48 8d 05 ea 02 01 00 	lea    0x102ea(%rip),%rax        # 192b8 <g_1603>
    8fce:	48 89 85 c8 fa ff ff 	mov    %rax,-0x538(%rbp)
    8fd5:	48 8d 05 dc 02 01 00 	lea    0x102dc(%rip),%rax        # 192b8 <g_1603>
    8fdc:	48 89 85 d0 fa ff ff 	mov    %rax,-0x530(%rbp)
    8fe3:	48 8d 05 ce 02 01 00 	lea    0x102ce(%rip),%rax        # 192b8 <g_1603>
    8fea:	48 89 85 d8 fa ff ff 	mov    %rax,-0x528(%rbp)
    8ff1:	48 8d 05 c0 02 01 00 	lea    0x102c0(%rip),%rax        # 192b8 <g_1603>
    8ff8:	48 89 85 e0 fa ff ff 	mov    %rax,-0x520(%rbp)
    8fff:	48 8d 05 b2 02 01 00 	lea    0x102b2(%rip),%rax        # 192b8 <g_1603>
    9006:	48 89 85 e8 fa ff ff 	mov    %rax,-0x518(%rbp)
    900d:	48 8d 05 a4 02 01 00 	lea    0x102a4(%rip),%rax        # 192b8 <g_1603>
    9014:	48 89 85 f0 fa ff ff 	mov    %rax,-0x510(%rbp)
    901b:	48 c7 85 f8 fa ff ff 	movq   $0x0,-0x508(%rbp)
    9022:	00 00 00 00 
    9026:	48 8d 05 8b 02 01 00 	lea    0x1028b(%rip),%rax        # 192b8 <g_1603>
    902d:	48 89 85 00 fb ff ff 	mov    %rax,-0x500(%rbp)
    9034:	48 8d 05 7d 02 01 00 	lea    0x1027d(%rip),%rax        # 192b8 <g_1603>
    903b:	48 89 85 08 fb ff ff 	mov    %rax,-0x4f8(%rbp)
    9042:	48 8b 05 57 02 01 00 	mov    0x10257(%rip),%rax        # 192a0 <g_1594>
    9049:	0f b6 00             	movzbl (%rax),%eax
    904c:	0f be d8             	movsbl %al,%ebx
    904f:	8b 05 db ec 00 00    	mov    0xecdb(%rip),%eax        # 17d30 <g_879>
    9055:	48 98                	cltq   
    9057:	48 8d 14 00          	lea    (%rax,%rax,1),%rdx
    905b:	48 8d 05 7e e3 00 00 	lea    0xe37e(%rip),%rax        # 173e0 <g_304>
    9062:	0f b7 14 02          	movzwl (%rdx,%rax,1),%edx
    9066:	48 8b 05 d3 04 01 00 	mov    0x104d3(%rip),%rax        # 19540 <g_1640>
    906d:	0f b7 d2             	movzwl %dx,%edx
    9070:	89 10                	mov    %edx,(%rax)
    9072:	8b 00                	mov    (%rax),%eax
    9074:	89 85 f8 f8 ff ff    	mov    %eax,-0x708(%rbp)
    907a:	8b 85 f8 f8 ff ff    	mov    -0x708(%rbp),%eax
    9080:	85 c0                	test   %eax,%eax
    9082:	74 71                	je     90f5 <func_1+0x2940>
    9084:	48 8b 05 ed 01 01 00 	mov    0x101ed(%rip),%rax        # 19278 <g_1072>
    908b:	48 8b 05 26 02 01 00 	mov    0x10226(%rip),%rax        # 192b8 <g_1603>
    9092:	48 8b 00             	mov    (%rax),%rax
    9095:	66 c7 00 01 00       	movw   $0x1,(%rax)
    909a:	48 8b 05 f7 00 01 00 	mov    0x100f7(%rip),%rax        # 19198 <g_923>
    90a1:	8b 00                	mov    (%rax),%eax
    90a3:	66 89 85 44 f2 ff ff 	mov    %ax,-0xdbc(%rbp)
    90aa:	48 8b 05 0f fd 00 00 	mov    0xfd0f(%rip),%rax        # 18dc0 <g_671>
    90b1:	c6 00 01             	movb   $0x1,(%rax)
    90b4:	b8 01 00 00 00       	mov    $0x1,%eax
    90b9:	0f bf d0             	movswl %ax,%edx
    90bc:	48 8b 8d 40 f8 ff ff 	mov    -0x7c0(%rbp),%rcx
    90c3:	48 8b 85 28 f5 ff ff 	mov    -0xad8(%rbp),%rax
    90ca:	8b 00                	mov    (%rax),%eax
    90cc:	48 98                	cltq   
    90ce:	48 31 c8             	xor    %rcx,%rax
    90d1:	48 89 85 40 f8 ff ff 	mov    %rax,-0x7c0(%rbp)
    90d8:	48 8b 85 40 f8 ff ff 	mov    -0x7c0(%rbp),%rax
    90df:	98                   	cwtl   
    90e0:	89 d6                	mov    %edx,%esi
    90e2:	89 c7                	mov    %eax,%edi
    90e4:	e8 6c c3 ff ff       	callq  5455 <safe_div_func_int16_t_s_s>
    90e9:	66 85 c0             	test   %ax,%ax
    90ec:	79 07                	jns    90f5 <func_1+0x2940>
    90ee:	b8 01 00 00 00       	mov    $0x1,%eax
    90f3:	eb 05                	jmp    90fa <func_1+0x2945>
    90f5:	b8 00 00 00 00       	mov    $0x0,%eax
    90fa:	89 c2                	mov    %eax,%edx
    90fc:	48 8b 85 b8 f5 ff ff 	mov    -0xa48(%rbp),%rax
    9103:	66 89 10             	mov    %dx,(%rax)
    9106:	48 8b 85 b8 f5 ff ff 	mov    -0xa48(%rbp),%rax
    910d:	0f b7 00             	movzwl (%rax),%eax
    9110:	0f b7 c0             	movzwl %ax,%eax
    9113:	be 0d 00 00 00       	mov    $0xd,%esi
    9118:	89 c7                	mov    %eax,%edi
    911a:	e8 29 cd ff ff       	callq  5e48 <safe_rshift_func_uint16_t_u_s>
    911f:	89 c2                	mov    %eax,%edx
    9121:	48 8b 85 18 f5 ff ff 	mov    -0xae8(%rbp),%rax
    9128:	0f b6 00             	movzbl (%rax),%eax
    912b:	09 c2                	or     %eax,%edx
    912d:	48 8b 85 18 f5 ff ff 	mov    -0xae8(%rbp),%rax
    9134:	88 10                	mov    %dl,(%rax)
    9136:	48 8b 85 18 f5 ff ff 	mov    -0xae8(%rbp),%rax
    913d:	0f b6 00             	movzbl (%rax),%eax
    9140:	3c ff                	cmp    $0xff,%al
    9142:	0f 94 c0             	sete   %al
    9145:	0f b6 c0             	movzbl %al,%eax
    9148:	89 de                	mov    %ebx,%esi
    914a:	89 c7                	mov    %eax,%edi
    914c:	e8 19 c1 ff ff       	callq  526a <safe_div_func_int8_t_s_s>
    9151:	66 98                	cbtw   
    9153:	0f b7 c0             	movzwl %ax,%eax
    9156:	be 0a 00 00 00       	mov    $0xa,%esi
    915b:	89 c7                	mov    %eax,%edi
    915d:	e8 5c cc ff ff       	callq  5dbe <safe_lshift_func_uint16_t_u_s>
    9162:	48 8b 85 48 f8 ff ff 	mov    -0x7b8(%rbp),%rax
    9169:	89 c1                	mov    %eax,%ecx
    916b:	8b 05 bf eb 00 00    	mov    0xebbf(%rip),%eax        # 17d30 <g_879>
    9171:	48 98                	cltq   
    9173:	48 8d 14 00          	lea    (%rax,%rax,1),%rdx
    9177:	48 8d 05 62 e2 00 00 	lea    0xe262(%rip),%rax        # 173e0 <g_304>
    917e:	0f b7 04 02          	movzwl (%rdx,%rax,1),%eax
    9182:	0f b7 c0             	movzwl %ax,%eax
    9185:	31 c8                	xor    %ecx,%eax
    9187:	89 85 1c fd ff ff    	mov    %eax,-0x2e4(%rbp)
    918d:	8b 85 1c fd ff ff    	mov    -0x2e4(%rbp),%eax
    9193:	98                   	cwtl   
    9194:	be 00 00 00 00       	mov    $0x0,%esi
    9199:	89 c7                	mov    %eax,%edi
    919b:	e8 13 c2 ff ff       	callq  53b3 <safe_add_func_int16_t_s_s>
    91a0:	48 0f bf c0          	movswq %ax,%rax
    91a4:	48 09 85 c0 f5 ff ff 	or     %rax,-0xa40(%rbp)
    91ab:	8b 05 7f eb 00 00    	mov    0xeb7f(%rip),%eax        # 17d30 <g_879>
    91b1:	48 98                	cltq   
    91b3:	48 8d 14 00          	lea    (%rax,%rax,1),%rdx
    91b7:	48 8d 05 22 e2 00 00 	lea    0xe222(%rip),%rax        # 173e0 <g_304>
    91be:	0f b7 04 02          	movzwl (%rdx,%rax,1),%eax
    91c2:	0f b7 c0             	movzwl %ax,%eax
    91c5:	48 23 85 c0 f5 ff ff 	and    -0xa40(%rbp),%rax
    91cc:	48 85 c0             	test   %rax,%rax
    91cf:	74 11                	je     91e2 <func_1+0x2a2d>
    91d1:	48 83 bd c0 f5 ff ff 	cmpq   $0x0,-0xa40(%rbp)
    91d8:	00 
    91d9:	74 07                	je     91e2 <func_1+0x2a2d>
    91db:	b8 01 00 00 00       	mov    $0x1,%eax
    91e0:	eb 05                	jmp    91e7 <func_1+0x2a32>
    91e2:	b8 00 00 00 00       	mov    $0x0,%eax
    91e7:	3b 85 70 f2 ff ff    	cmp    -0xd90(%rbp),%eax
    91ed:	0f 95 c2             	setne  %dl
    91f0:	48 8b 05 91 0e 01 00 	mov    0x10e91(%rip),%rax        # 1a088 <g_1275>
    91f7:	0f b6 d2             	movzbl %dl,%edx
    91fa:	89 10                	mov    %edx,(%rax)
    91fc:	48 8b 85 40 f8 ff ff 	mov    -0x7c0(%rbp),%rax
    9203:	48 85 c0             	test   %rax,%rax
    9206:	74 10                	je     9218 <func_1+0x2a63>
    9208:	48 8b 15 31 03 01 00 	mov    0x10331(%rip),%rdx        # 19540 <g_1640>
    920f:	8b 02                	mov    (%rdx),%eax
    9211:	8d 48 01             	lea    0x1(%rax),%ecx
    9214:	89 0a                	mov    %ecx,(%rdx)
    9216:	85 c0                	test   %eax,%eax
    9218:	48 8b 85 28 f5 ff ff 	mov    -0xad8(%rbp),%rax
    921f:	8b 00                	mov    (%rax),%eax
    9221:	48 98                	cltq   
    9223:	48 89 c6             	mov    %rax,%rsi
    9226:	48 bf ef 3c e4 7b 45 	movabs $0xe99ee3457be43cef,%rdi
    922d:	e3 9e e9 
    9230:	e8 73 c6 ff ff       	callq  58a8 <safe_sub_func_int64_t_s_s>
    9235:	8b 85 70 f2 ff ff    	mov    -0xd90(%rbp),%eax
    923b:	98                   	cwtl   
    923c:	be 03 00 00 00       	mov    $0x3,%esi
    9241:	89 c7                	mov    %eax,%edi
    9243:	e8 4a c2 ff ff       	callq  5492 <safe_lshift_func_int16_t_s_s>
    9248:	0f b7 c0             	movzwl %ax,%eax
    924b:	be 08 00 00 00       	mov    $0x8,%esi
    9250:	89 c7                	mov    %eax,%edi
    9252:	e8 67 cb ff ff       	callq  5dbe <safe_lshift_func_uint16_t_u_s>
    9257:	0f bf 85 44 f2 ff ff 	movswl -0xdbc(%rbp),%eax
    925e:	48 8b 8d 40 f7 ff ff 	mov    -0x8c0(%rbp),%rcx
    9265:	48 8d 95 38 f3 ff ff 	lea    -0xcc8(%rbp),%rdx
    926c:	48 39 d1             	cmp    %rdx,%rcx
    926f:	0f 95 c2             	setne  %dl
    9272:	0f b6 d2             	movzbl %dl,%edx
    9275:	39 d0                	cmp    %edx,%eax
    9277:	0f 9d c0             	setge  %al
    927a:	0f b6 d0             	movzbl %al,%edx
    927d:	48 8b 85 80 f3 ff ff 	mov    -0xc80(%rbp),%rax
    9284:	89 10                	mov    %edx,(%rax)
    9286:	48 8b 85 80 f3 ff ff 	mov    -0xc80(%rbp),%rax
    928d:	8b 00                	mov    (%rax),%eax
    928f:	0f bf d0             	movswl %ax,%edx
    9292:	8b 85 f8 f8 ff ff    	mov    -0x708(%rbp),%eax
    9298:	98                   	cwtl   
    9299:	89 d6                	mov    %edx,%esi
    929b:	89 c7                	mov    %eax,%edi
    929d:	e8 53 c1 ff ff       	callq  53f5 <safe_mul_func_int16_t_s_s>
    92a2:	48 8b 05 ef ff 00 00 	mov    0xffef(%rip),%rax        # 19298 <g_1513>
    92a9:	8b 00                	mov    (%rax),%eax
    92ab:	41 89 c4             	mov    %eax,%r12d
    92ae:	0f bf 9d 5c f2 ff ff 	movswl -0xda4(%rbp),%ebx
    92b5:	48 83 bd a8 f5 ff ff 	cmpq   $0x0,-0xa58(%rbp)
    92bc:	00 
    92bd:	0f 95 c0             	setne  %al
    92c0:	0f b6 c0             	movzbl %al,%eax
    92c3:	89 c6                	mov    %eax,%esi
    92c5:	bf 01 00 00 00       	mov    $0x1,%edi
    92ca:	e8 94 c2 ff ff       	callq  5563 <safe_rshift_func_int16_t_s_u>
    92cf:	0f be c0             	movsbl %al,%eax
    92d2:	48 8d 95 e0 f5 ff ff 	lea    -0xa20(%rbp),%rdx
    92d9:	48 89 15 b0 ff 00 00 	mov    %rdx,0xffb0(%rip)        # 19290 <g_1487>
    92e0:	89 c6                	mov    %eax,%esi
    92e2:	bf ff ff ff ff       	mov    $0xffffffff,%edi
    92e7:	e8 45 bf ff ff       	callq  5231 <safe_mod_func_int8_t_s_s>
    92ec:	0f b6 c0             	movzbl %al,%eax
    92ef:	89 de                	mov    %ebx,%esi
    92f1:	89 c7                	mov    %eax,%edi
    92f3:	e8 0d c9 ff ff       	callq  5c05 <safe_lshift_func_uint8_t_u_s>
    92f8:	44 89 e6             	mov    %r12d,%esi
    92fb:	bf 01 00 00 00       	mov    $0x1,%edi
    9300:	e8 f8 cb ff ff       	callq  5efd <safe_mod_func_uint32_t_u_u>
    9305:	0f b6 c0             	movzbl %al,%eax
    9308:	be 08 00 00 00       	mov    $0x8,%esi
    930d:	89 c7                	mov    %eax,%edi
    930f:	e8 7f c8 ff ff       	callq  5b93 <safe_mul_func_uint8_t_u_u>
    9314:	48 8b 05 65 ff 00 00 	mov    0xff65(%rip),%rax        # 19280 <g_1274>
    931b:	48 8b 00             	mov    (%rax),%rax
    931e:	c7 00 ff ff ff ff    	movl   $0xffffffff,(%rax)
    9324:	48 8b 15 dd 07 01 00 	mov    0x107dd(%rip),%rdx        # 19b08 <g_1681>
    932b:	48 8b 05 d6 07 01 00 	mov    0x107d6(%rip),%rax        # 19b08 <g_1681>
    9332:	48 8b 12             	mov    (%rdx),%rdx
    9335:	48 89 10             	mov    %rdx,(%rax)
    9338:	8b 05 f2 e9 00 00    	mov    0xe9f2(%rip),%eax        # 17d30 <g_879>
    933e:	83 c0 01             	add    $0x1,%eax
    9341:	89 05 e9 e9 00 00    	mov    %eax,0xe9e9(%rip)        # 17d30 <g_879>
    9347:	8b 05 e3 e9 00 00    	mov    0xe9e3(%rip),%eax        # 17d30 <g_879>
    934d:	83 f8 01             	cmp    $0x1,%eax
    9350:	0f 8e 2d fa ff ff    	jle    8d83 <func_1+0x25ce>
    9356:	8b 85 70 f2 ff ff    	mov    -0xd90(%rbp),%eax
    935c:	e9 f4 14 00 00       	jmpq   a855 <func_1+0x40a0>
    9361:	66 c7 85 5a f2 ff ff 	movw   $0x9dd3,-0xda6(%rbp)
    9368:	d3 9d 
    936a:	48 c7 05 63 ea 00 00 	movq   $0x0,0xea63(%rip)        # 17dd8 <g_1415>
    9371:	00 00 00 00 
    9375:	eb 52                	jmp    93c9 <func_1+0x2c14>
    9377:	48 8d 85 30 f3 ff ff 	lea    -0xcd0(%rbp),%rax
    937e:	48 89 85 a0 f5 ff ff 	mov    %rax,-0xa60(%rbp)
    9385:	48 8b 05 7c 07 01 00 	mov    0x1077c(%rip),%rax        # 19b08 <g_1681>
    938c:	48 8b 00             	mov    (%rax),%rax
    938f:	c7 00 01 00 00 00    	movl   $0x1,(%rax)
    9395:	0f b7 85 48 f2 ff ff 	movzwl -0xdb8(%rbp),%eax
    939c:	83 c0 01             	add    $0x1,%eax
    939f:	66 89 85 48 f2 ff ff 	mov    %ax,-0xdb8(%rbp)
    93a6:	48 8b 85 a0 f5 ff ff 	mov    -0xa60(%rbp),%rax
    93ad:	48 8d 95 28 f3 ff ff 	lea    -0xcd8(%rbp),%rdx
    93b4:	48 89 10             	mov    %rdx,(%rax)
    93b7:	48 8b 05 1a ea 00 00 	mov    0xea1a(%rip),%rax        # 17dd8 <g_1415>
    93be:	48 83 c0 01          	add    $0x1,%rax
    93c2:	48 89 05 0f ea 00 00 	mov    %rax,0xea0f(%rip)        # 17dd8 <g_1415>
    93c9:	48 8b 05 08 ea 00 00 	mov    0xea08(%rip),%rax        # 17dd8 <g_1415>
    93d0:	48 83 f8 03          	cmp    $0x3,%rax
    93d4:	76 a1                	jbe    9377 <func_1+0x2bc2>
    93d6:	0f b7 85 5a f2 ff ff 	movzwl -0xda6(%rbp),%eax
    93dd:	e9 73 14 00 00       	jmpq   a855 <func_1+0x40a0>
    93e2:	c6 85 41 f2 ff ff 2a 	movb   $0x2a,-0xdbf(%rbp)
    93e9:	48 8b 05 20 07 01 00 	mov    0x10720(%rip),%rax        # 19b10 <g_1680>
    93f0:	48 8b 00             	mov    (%rax),%rax
    93f3:	48 8d 95 68 f2 ff ff 	lea    -0xd98(%rbp),%rdx
    93fa:	48 89 10             	mov    %rdx,(%rax)
    93fd:	48 8b 15 9c fe 00 00 	mov    0xfe9c(%rip),%rdx        # 192a0 <g_1594>
    9404:	48 8b 85 28 f3 ff ff 	mov    -0xcd8(%rbp),%rax
    940b:	0f b6 12             	movzbl (%rdx),%edx
    940e:	88 10                	mov    %dl,(%rax)
    9410:	0f b6 00             	movzbl (%rax),%eax
    9413:	48 0f be c0          	movsbq %al,%rax
    9417:	34 ff                	xor    $0xff,%al
    9419:	48 89 c2             	mov    %rax,%rdx
    941c:	48 8b 85 80 f3 ff ff 	mov    -0xc80(%rbp),%rax
    9423:	8b 00                	mov    (%rax),%eax
    9425:	89 c1                	mov    %eax,%ecx
    9427:	89 d0                	mov    %edx,%eax
    9429:	21 c8                	and    %ecx,%eax
    942b:	89 c2                	mov    %eax,%edx
    942d:	48 8b 85 80 f3 ff ff 	mov    -0xc80(%rbp),%rax
    9434:	89 10                	mov    %edx,(%rax)
    9436:	48 8b 05 e3 fc 00 00 	mov    0xfce3(%rip),%rax        # 19120 <g_770>
    943d:	48 8b 00             	mov    (%rax),%rax
    9440:	48 85 c0             	test   %rax,%rax
    9443:	74 7f                	je     94c4 <func_1+0x2d0f>
    9445:	66 c7 85 58 f2 ff ff 	movw   $0x7435,-0xda8(%rbp)
    944c:	35 74 
    944e:	66 83 ad 58 f2 ff ff 	subw   $0x1,-0xda8(%rbp)
    9455:	01 
    9456:	c7 05 50 e9 00 00 00 	movl   $0x0,0xe950(%rip)        # 17db0 <g_886>
    945d:	00 00 00 
    9460:	eb 52                	jmp    94b4 <func_1+0x2cff>
    9462:	c6 85 42 f2 ff ff 01 	movb   $0x1,-0xdbe(%rbp)
    9469:	48 8b 05 b0 06 01 00 	mov    0x106b0(%rip),%rax        # 19b20 <g_1753>
    9470:	48 89 05 a9 06 01 00 	mov    %rax,0x106a9(%rip)        # 19b20 <g_1753>
    9477:	48 8b 05 8a 06 01 00 	mov    0x1068a(%rip),%rax        # 19b08 <g_1681>
    947e:	48 8d 95 64 f2 ff ff 	lea    -0xd9c(%rbp),%rdx
    9485:	48 89 10             	mov    %rdx,(%rax)
    9488:	0f b6 85 42 f2 ff ff 	movzbl -0xdbe(%rbp),%eax
    948f:	83 c0 01             	add    $0x1,%eax
    9492:	88 85 42 f2 ff ff    	mov    %al,-0xdbe(%rbp)
    9498:	80 bd 41 f2 ff ff 00 	cmpb   $0x0,-0xdbf(%rbp)
    949f:	0f 85 2b 02 00 00    	jne    96d0 <func_1+0x2f1b>
    94a5:	8b 05 05 e9 00 00    	mov    0xe905(%rip),%eax        # 17db0 <g_886>
    94ab:	83 e8 01             	sub    $0x1,%eax
    94ae:	89 05 fc e8 00 00    	mov    %eax,0xe8fc(%rip)        # 17db0 <g_886>
    94b4:	8b 05 f6 e8 00 00    	mov    0xe8f6(%rip),%eax        # 17db0 <g_886>
    94ba:	83 f8 ec             	cmp    $0xffffffec,%eax
    94bd:	74 a3                	je     9462 <func_1+0x2cad>
    94bf:	e9 0d 02 00 00       	jmpq   96d1 <func_1+0x2f1c>
    94c4:	48 8d 05 91 9b 00 00 	lea    0x9b91(%rip),%rax        # 1305c <g_1778>
    94cb:	48 89 85 78 f3 ff ff 	mov    %rax,-0xc88(%rbp)
    94d2:	48 8d 85 78 f3 ff ff 	lea    -0xc88(%rbp),%rax
    94d9:	48 89 85 70 f5 ff ff 	mov    %rax,-0xa90(%rbp)
    94e0:	c7 85 0c f3 ff ff 36 	movl   $0x793e9536,-0xcf4(%rbp)
    94e7:	95 3e 79 
    94ea:	c7 85 7c f2 ff ff 00 	movl   $0x0,-0xd84(%rbp)
    94f1:	00 00 00 
    94f4:	eb 1e                	jmp    9514 <func_1+0x2d5f>
    94f6:	8b 85 7c f2 ff ff    	mov    -0xd84(%rbp),%eax
    94fc:	48 98                	cltq   
    94fe:	48 8d 15 e6 de 00 00 	lea    0xdee6(%rip),%rdx        # 173eb <g_477+0x1>
    9505:	48 89 94 c5 f0 fc ff 	mov    %rdx,-0x310(%rbp,%rax,8)
    950c:	ff 
    950d:	83 85 7c f2 ff ff 01 	addl   $0x1,-0xd84(%rbp)
    9514:	83 bd 7c f2 ff ff 03 	cmpl   $0x3,-0xd84(%rbp)
    951b:	7e d9                	jle    94f6 <func_1+0x2d41>
    951d:	c7 05 d9 de 00 00 eb 	movl   $0xffffffeb,0xded9(%rip)        # 17400 <g_831>
    9524:	ff ff ff 
    9527:	eb 2a                	jmp    9553 <func_1+0x2d9e>
    9529:	8b 05 71 e5 00 00    	mov    0xe571(%rip),%eax        # 17aa0 <g_874>
    952f:	85 c0                	test   %eax,%eax
    9531:	74 05                	je     9538 <func_1+0x2d83>
    9533:	e9 e7 da ff ff       	jmpq   701f <func_1+0x86a>
    9538:	8b 05 c2 de 00 00    	mov    0xdec2(%rip),%eax        # 17400 <g_831>
    953e:	48 98                	cltq   
    9540:	be 03 00 00 00       	mov    $0x3,%esi
    9545:	48 89 c7             	mov    %rax,%rdi
    9548:	e8 5b c3 ff ff       	callq  58a8 <safe_sub_func_int64_t_s_s>
    954d:	89 05 ad de 00 00    	mov    %eax,0xdead(%rip)        # 17400 <g_831>
    9553:	8b 05 a7 de 00 00    	mov    0xdea7(%rip),%eax        # 17400 <g_831>
    9559:	83 f8 e7             	cmp    $0xffffffe7,%eax
    955c:	7c cb                	jl     9529 <func_1+0x2d74>
    955e:	8b 85 0c f3 ff ff    	mov    -0xcf4(%rbp),%eax
    9564:	48 63 d8             	movslq %eax,%rbx
    9567:	48 8b 05 4a fd 00 00 	mov    0xfd4a(%rip),%rax        # 192b8 <g_1603>
    956e:	48 8b 00             	mov    (%rax),%rax
    9571:	0f b7 00             	movzwl (%rax),%eax
    9574:	44 0f b7 e0          	movzwl %ax,%r12d
    9578:	48 8b 85 80 f3 ff ff 	mov    -0xc80(%rbp),%rax
    957f:	8b 00                	mov    (%rax),%eax
    9581:	85 c0                	test   %eax,%eax
    9583:	0f 84 9a 00 00 00    	je     9623 <func_1+0x2e6e>
    9589:	48 8b 05 50 00 01 00 	mov    0x10050(%rip),%rax        # 195e0 <g_1667>
    9590:	0f b6 00             	movzbl (%rax),%eax
    9593:	44 0f b6 e8          	movzbl %al,%r13d
    9597:	48 8b 05 02 fd 00 00 	mov    0xfd02(%rip),%rax        # 192a0 <g_1594>
    959e:	0f b6 00             	movzbl (%rax),%eax
    95a1:	44 0f be f0          	movsbl %al,%r14d
    95a5:	48 8b 05 04 fd 00 00 	mov    0xfd04(%rip),%rax        # 192b0 <g_1604>
    95ac:	0f b7 00             	movzwl (%rax),%eax
    95af:	0f b7 c0             	movzwl %ax,%eax
    95b2:	89 c6                	mov    %eax,%esi
    95b4:	bf 5b ff 00 00       	mov    $0xff5b,%edi
    95b9:	e8 48 c8 ff ff       	callq  5e06 <safe_lshift_func_uint16_t_u_u>
    95be:	44 89 f6             	mov    %r14d,%esi
    95c1:	bf 00 00 00 00       	mov    $0x0,%edi
    95c6:	e8 c2 c6 ff ff       	callq  5c8d <safe_rshift_func_uint8_t_u_s>
    95cb:	0f b6 d0             	movzbl %al,%edx
    95ce:	48 8b b5 00 fd ff ff 	mov    -0x300(%rbp),%rsi
    95d5:	48 8b 05 24 05 01 00 	mov    0x10524(%rip),%rax        # 19b00 <g_1669>
    95dc:	48 8b 00             	mov    (%rax),%rax
    95df:	48 8b 00             	mov    (%rax),%rax
    95e2:	48 8b 08             	mov    (%rax),%rcx
    95e5:	48 8b 85 70 f5 ff ff 	mov    -0xa90(%rbp),%rax
    95ec:	48 89 08             	mov    %rcx,(%rax)
    95ef:	48 8b 85 70 f5 ff ff 	mov    -0xa90(%rbp),%rax
    95f6:	48 8b 00             	mov    (%rax),%rax
    95f9:	48 39 c6             	cmp    %rax,%rsi
    95fc:	0f 94 c0             	sete   %al
    95ff:	0f b6 c0             	movzbl %al,%eax
    9602:	89 d6                	mov    %edx,%esi
    9604:	89 c7                	mov    %eax,%edi
    9606:	e8 f4 c0 ff ff       	callq  56ff <safe_div_func_int32_t_s_s>
    960b:	0f b6 c0             	movzbl %al,%eax
    960e:	44 89 ee             	mov    %r13d,%esi
    9611:	89 c7                	mov    %eax,%edi
    9613:	e8 34 c6 ff ff       	callq  5c4c <safe_lshift_func_uint8_t_u_u>
    9618:	84 c0                	test   %al,%al
    961a:	74 07                	je     9623 <func_1+0x2e6e>
    961c:	b8 01 00 00 00       	mov    $0x1,%eax
    9621:	eb 05                	jmp    9628 <func_1+0x2e73>
    9623:	b8 00 00 00 00       	mov    $0x0,%eax
    9628:	0f b7 c0             	movzwl %ax,%eax
    962b:	44 89 e6             	mov    %r12d,%esi
    962e:	89 c7                	mov    %eax,%edi
    9630:	e8 59 c7 ff ff       	callq  5d8e <safe_div_func_uint16_t_u_u>
    9635:	be 70 00 00 00       	mov    $0x70,%esi
    963a:	bf 00 00 00 00       	mov    $0x0,%edi
    963f:	e8 4f c5 ff ff       	callq  5b93 <safe_mul_func_uint8_t_u_u>
    9644:	3c 2f                	cmp    $0x2f,%al
    9646:	74 0c                	je     9654 <func_1+0x2e9f>
    9648:	48 8b 05 51 fc 00 00 	mov    0xfc51(%rip),%rax        # 192a0 <g_1594>
    964f:	0f b6 00             	movzbl (%rax),%eax
    9652:	84 c0                	test   %al,%al
    9654:	48 8d 05 85 ff 00 00 	lea    0xff85(%rip),%rax        # 195e0 <g_1667>
    965b:	48 8b 00             	mov    (%rax),%rax
    965e:	0f b6 00             	movzbl (%rax),%eax
    9661:	0f b6 c0             	movzbl %al,%eax
    9664:	be 00 00 00 00       	mov    $0x0,%esi
    9669:	89 c7                	mov    %eax,%edi
    966b:	e8 4e c6 ff ff       	callq  5cbe <safe_rshift_func_uint8_t_u_u>
    9670:	89 c2                	mov    %eax,%edx
    9672:	48 8b 05 3f fc 00 00 	mov    0xfc3f(%rip),%rax        # 192b8 <g_1603>
    9679:	48 8b 00             	mov    (%rax),%rax
    967c:	0f b6 d2             	movzbl %dl,%edx
    967f:	66 89 10             	mov    %dx,(%rax)
    9682:	0f b7 00             	movzwl (%rax),%eax
    9685:	0f b7 d0             	movzwl %ax,%edx
    9688:	0f be 85 41 f2 ff ff 	movsbl -0xdbf(%rbp),%eax
    968f:	39 c2                	cmp    %eax,%edx
    9691:	74 0c                	je     969f <func_1+0x2eea>
    9693:	48 b8 68 9a 45 35 83 	movabs $0x74d9108335459a68,%rax
    969a:	10 d9 74 
    969d:	eb 0a                	jmp    96a9 <func_1+0x2ef4>
    969f:	48 b8 69 9a 45 35 83 	movabs $0x74d9108335459a69,%rax
    96a6:	10 d9 74 
    96a9:	48 89 de             	mov    %rbx,%rsi
    96ac:	48 89 c7             	mov    %rax,%rdi
    96af:	e8 fb c9 ff ff       	callq  60af <safe_div_func_uint64_t_u_u>
    96b4:	48 8b 15 4d 04 01 00 	mov    0x1044d(%rip),%rdx        # 19b08 <g_1681>
    96bb:	48 8b 12             	mov    (%rdx),%rdx
    96be:	8b 12                	mov    (%rdx),%edx
    96c0:	31 c2                	xor    %eax,%edx
    96c2:	48 8b 05 3f 04 01 00 	mov    0x1043f(%rip),%rax        # 19b08 <g_1681>
    96c9:	48 8b 00             	mov    (%rax),%rax
    96cc:	89 10                	mov    %edx,(%rax)
    96ce:	eb 01                	jmp    96d1 <func_1+0x2f1c>
    96d0:	90                   	nop
    96d1:	48 8b 05 40 04 01 00 	mov    0x10440(%rip),%rax        # 19b18 <g_1686>
    96d8:	48 8b 00             	mov    (%rax),%rax
    96db:	8b 00                	mov    (%rax),%eax
    96dd:	85 c0                	test   %eax,%eax
    96df:	74 12                	je     96f3 <func_1+0x2f3e>
    96e1:	0f b6 05 09 dd 00 00 	movzbl 0xdd09(%rip),%eax        # 173f1 <g_653>
    96e8:	83 c0 01             	add    $0x1,%eax
    96eb:	88 05 00 dd 00 00    	mov    %al,0xdd00(%rip)        # 173f1 <g_653>
    96f1:	eb 12                	jmp    9705 <func_1+0x2f50>
    96f3:	48 8b 05 ae fb 00 00 	mov    0xfbae(%rip),%rax        # 192a8 <g_1593>
    96fa:	48 8b 00             	mov    (%rax),%rax
    96fd:	0f b6 00             	movzbl (%rax),%eax
    9700:	e9 50 11 00 00       	jmpq   a855 <func_1+0x40a0>
    9705:	0f b6 05 e5 dc 00 00 	movzbl 0xdce5(%rip),%eax        # 173f1 <g_653>
    970c:	3c 24                	cmp    $0x24,%al
    970e:	0f 84 9e db ff ff    	je     72b2 <func_1+0xafd>
    9714:	e9 33 11 00 00       	jmpq   a84c <func_1+0x4097>
    9719:	c7 85 80 f2 ff ff d5 	movl   $0x19f877d5,-0xd80(%rbp)
    9720:	77 f8 19 
    9723:	48 8d 05 86 fb 00 00 	lea    0xfb86(%rip),%rax        # 192b0 <g_1604>
    972a:	48 89 85 58 f3 ff ff 	mov    %rax,-0xca8(%rbp)
    9731:	c7 85 c4 f2 ff ff 14 	movl   $0xfb991a14,-0xd3c(%rbp)
    9738:	1a 99 fb 
    973b:	c7 85 c8 f2 ff ff 08 	movl   $0xadb8ee08,-0xd38(%rbp)
    9742:	ee b8 ad 
    9745:	48 c7 85 88 f3 ff ff 	movq   $0x1,-0xc78(%rbp)
    974c:	01 00 00 00 
    9750:	48 8d 05 e9 03 01 00 	lea    0x103e9(%rip),%rax        # 19b40 <g_1899>
    9757:	48 89 85 b0 f3 ff ff 	mov    %rax,-0xc50(%rbp)
    975e:	48 c7 85 b8 f3 ff ff 	movq   $0x0,-0xc48(%rbp)
    9765:	00 00 00 00 
    9769:	c7 85 cc f2 ff ff 01 	movl   $0x1,-0xd34(%rbp)
    9770:	00 00 00 
    9773:	c7 85 d0 f2 ff ff ff 	movl   $0xffffffff,-0xd30(%rbp)
    977a:	ff ff ff 
    977d:	48 8d 85 c0 f7 ff ff 	lea    -0x840(%rbp),%rax
    9784:	48 83 c0 66          	add    $0x66,%rax
    9788:	48 89 85 c0 f3 ff ff 	mov    %rax,-0xc40(%rbp)
    978f:	48 8d 05 72 03 01 00 	lea    0x10372(%rip),%rax        # 19b08 <g_1681>
    9796:	48 89 85 50 f9 ff ff 	mov    %rax,-0x6b0(%rbp)
    979d:	48 8d 05 64 03 01 00 	lea    0x10364(%rip),%rax        # 19b08 <g_1681>
    97a4:	48 89 85 58 f9 ff ff 	mov    %rax,-0x6a8(%rbp)
    97ab:	48 8d 05 56 03 01 00 	lea    0x10356(%rip),%rax        # 19b08 <g_1681>
    97b2:	48 89 85 60 f9 ff ff 	mov    %rax,-0x6a0(%rbp)
    97b9:	48 8d 05 48 03 01 00 	lea    0x10348(%rip),%rax        # 19b08 <g_1681>
    97c0:	48 89 85 68 f9 ff ff 	mov    %rax,-0x698(%rbp)
    97c7:	48 8d 05 3a 03 01 00 	lea    0x1033a(%rip),%rax        # 19b08 <g_1681>
    97ce:	48 89 85 70 f9 ff ff 	mov    %rax,-0x690(%rbp)
    97d5:	48 8d 05 2c 03 01 00 	lea    0x1032c(%rip),%rax        # 19b08 <g_1681>
    97dc:	48 89 85 78 f9 ff ff 	mov    %rax,-0x688(%rbp)
    97e3:	48 8d 05 1e 03 01 00 	lea    0x1031e(%rip),%rax        # 19b08 <g_1681>
    97ea:	48 89 85 80 f9 ff ff 	mov    %rax,-0x680(%rbp)
    97f1:	66 c7 85 70 f7 ff ff 	movw   $0x1,-0x890(%rbp)
    97f8:	01 00 
    97fa:	66 c7 85 72 f7 ff ff 	movw   $0x1,-0x88e(%rbp)
    9801:	01 00 
    9803:	66 c7 85 74 f7 ff ff 	movw   $0xfd72,-0x88c(%rbp)
    980a:	72 fd 
    980c:	66 c7 85 76 f7 ff ff 	movw   $0x1,-0x88a(%rbp)
    9813:	01 00 
    9815:	66 c7 85 78 f7 ff ff 	movw   $0xfd72,-0x888(%rbp)
    981c:	72 fd 
    981e:	66 c7 85 7a f7 ff ff 	movw   $0x1,-0x886(%rbp)
    9825:	01 00 
    9827:	66 c7 85 7c f7 ff ff 	movw   $0x1,-0x884(%rbp)
    982e:	01 00 
    9830:	66 c7 85 7e f7 ff ff 	movw   $0xfd72,-0x882(%rbp)
    9837:	72 fd 
    9839:	66 c7 85 80 f7 ff ff 	movw   $0x1,-0x880(%rbp)
    9840:	01 00 
    9842:	66 c7 85 82 f7 ff ff 	movw   $0xfd72,-0x87e(%rbp)
    9849:	72 fd 
    984b:	c7 85 d4 f2 ff ff 06 	movl   $0x6,-0xd2c(%rbp)
    9852:	00 00 00 
    9855:	c7 85 84 f2 ff ff 00 	movl   $0x0,-0xd7c(%rbp)
    985c:	00 00 00 
    985f:	eb 19                	jmp    987a <func_1+0x30c5>
    9861:	8b 85 84 f2 ff ff    	mov    -0xd7c(%rbp),%eax
    9867:	48 98                	cltq   
    9869:	66 c7 84 45 b0 f6 ff 	movw   $0xf3c3,-0x950(%rbp,%rax,2)
    9870:	ff c3 f3 
    9873:	83 85 84 f2 ff ff 01 	addl   $0x1,-0xd7c(%rbp)
    987a:	83 bd 84 f2 ff ff 00 	cmpl   $0x0,-0xd7c(%rbp)
    9881:	7e de                	jle    9861 <func_1+0x30ac>
    9883:	c7 85 84 f2 ff ff 00 	movl   $0x0,-0xd7c(%rbp)
    988a:	00 00 00 
    988d:	eb 1a                	jmp    98a9 <func_1+0x30f4>
    988f:	8b 85 84 f2 ff ff    	mov    -0xd7c(%rbp),%eax
    9895:	48 98                	cltq   
    9897:	c7 84 85 20 f7 ff ff 	movl   $0xffffffff,-0x8e0(%rbp,%rax,4)
    989e:	ff ff ff ff 
    98a2:	83 85 84 f2 ff ff 01 	addl   $0x1,-0xd7c(%rbp)
    98a9:	83 bd 84 f2 ff ff 01 	cmpl   $0x1,-0xd7c(%rbp)
    98b0:	7e dd                	jle    988f <func_1+0x30da>
    98b2:	c7 85 84 f2 ff ff 00 	movl   $0x0,-0xd7c(%rbp)
    98b9:	00 00 00 
    98bc:	eb 1e                	jmp    98dc <func_1+0x3127>
    98be:	8b 85 84 f2 ff ff    	mov    -0xd7c(%rbp),%eax
    98c4:	48 98                	cltq   
    98c6:	48 8d 95 50 f9 ff ff 	lea    -0x6b0(%rbp),%rdx
    98cd:	48 89 94 c5 20 fa ff 	mov    %rdx,-0x5e0(%rbp,%rax,8)
    98d4:	ff 
    98d5:	83 85 84 f2 ff ff 01 	addl   $0x1,-0xd7c(%rbp)
    98dc:	83 bd 84 f2 ff ff 08 	cmpl   $0x8,-0xd7c(%rbp)
    98e3:	7e d9                	jle    98be <func_1+0x3109>
    98e5:	48 8b 05 54 fc 00 00 	mov    0xfc54(%rip),%rax        # 19540 <g_1640>
    98ec:	8b 10                	mov    (%rax),%edx
    98ee:	83 c2 01             	add    $0x1,%edx
    98f1:	89 10                	mov    %edx,(%rax)
    98f3:	8b 85 6c f2 ff ff    	mov    -0xd94(%rbp),%eax
    98f9:	44 0f bf e0          	movswl %ax,%r12d
    98fd:	0f b7 85 b0 f6 ff ff 	movzwl -0x950(%rbp),%eax
    9904:	0f b7 d8             	movzwl %ax,%ebx
    9907:	8b 05 87 e3 00 00    	mov    0xe387(%rip),%eax        # 17c94 <g_877+0x14>
    990d:	4c 63 e8             	movslq %eax,%r13
    9910:	0f b7 85 b0 f6 ff ff 	movzwl -0x950(%rbp),%eax
    9917:	44 0f bf f0          	movswl %ax,%r14d
    991b:	0f b7 85 b0 f6 ff ff 	movzwl -0x950(%rbp),%eax
    9922:	0f bf d0             	movswl %ax,%edx
    9925:	48 83 bd 90 f3 ff ff 	cmpq   $0x0,-0xc70(%rbp)
    992c:	00 
    992d:	0f 94 c0             	sete   %al
    9930:	0f b6 c0             	movzbl %al,%eax
    9933:	89 d6                	mov    %edx,%esi
    9935:	89 c7                	mov    %eax,%edi
    9937:	e8 56 bb ff ff       	callq  5492 <safe_lshift_func_int16_t_s_s>
    993c:	98                   	cwtl   
    993d:	44 89 f6             	mov    %r14d,%esi
    9940:	89 c7                	mov    %eax,%edi
    9942:	e8 ae ba ff ff       	callq  53f5 <safe_mul_func_int16_t_s_s>
    9947:	48 0f bf c0          	movswq %ax,%rax
    994b:	4c 89 ee             	mov    %r13,%rsi
    994e:	48 89 c7             	mov    %rax,%rdi
    9951:	e8 a1 c0 ff ff       	callq  59f7 <safe_div_func_int64_t_s_s>
    9956:	83 c8 fd             	or     $0xfffffffd,%eax
    9959:	0f b7 c0             	movzwl %ax,%eax
    995c:	89 de                	mov    %ebx,%esi
    995e:	89 c7                	mov    %eax,%edi
    9960:	e8 d8 c3 ff ff       	callq  5d3d <safe_mul_func_uint16_t_u_u>
    9965:	0f b7 85 b0 f6 ff ff 	movzwl -0x950(%rbp),%eax
    996c:	98                   	cwtl   
    996d:	be 9d f3 20 fc       	mov    $0xfc20f39d,%esi
    9972:	89 c7                	mov    %eax,%edi
    9974:	e8 3d bc ff ff       	callq  55b6 <safe_add_func_int32_t_s_s>
    9979:	98                   	cwtl   
    997a:	be 0e 00 00 00       	mov    $0xe,%esi
    997f:	89 c7                	mov    %eax,%edi
    9981:	e8 5b bb ff ff       	callq  54e1 <safe_lshift_func_int16_t_s_u>
    9986:	0f bf d0             	movswl %ax,%edx
    9989:	8b 05 89 dc 00 00    	mov    0xdc89(%rip),%eax        # 17618 <g_847>
    998f:	39 c2                	cmp    %eax,%edx
    9991:	0f 95 c0             	setne  %al
    9994:	0f b6 c0             	movzbl %al,%eax
    9997:	be b7 2e 00 00       	mov    $0x2eb7,%esi
    999c:	89 c7                	mov    %eax,%edi
    999e:	e8 b9 c3 ff ff       	callq  5d5c <safe_mod_func_uint16_t_u_u>
    99a3:	0f b7 c0             	movzwl %ax,%eax
    99a6:	39 85 c4 f2 ff ff    	cmp    %eax,-0xd3c(%rbp)
    99ac:	0f 9f c0             	setg   %al
    99af:	44 0f b6 e8          	movzbl %al,%r13d
    99b3:	48 8b 85 80 f3 ff ff 	mov    -0xc80(%rbp),%rax
    99ba:	44 8b 30             	mov    (%rax),%r14d
    99bd:	48 8b 05 e4 f8 00 00 	mov    0xf8e4(%rip),%rax        # 192a8 <g_1593>
    99c4:	48 8b 00             	mov    (%rax),%rax
    99c7:	0f b6 00             	movzbl (%rax),%eax
    99ca:	0f be c0             	movsbl %al,%eax
    99cd:	48 8b 9d 28 f3 ff ff 	mov    -0xcd8(%rbp),%rbx
    99d4:	be 06 00 00 00       	mov    $0x6,%esi
    99d9:	89 c7                	mov    %eax,%edi
    99db:	e8 0e b9 ff ff       	callq  52ee <safe_lshift_func_int8_t_s_u>
    99e0:	88 03                	mov    %al,(%rbx)
    99e2:	0f b6 03             	movzbl (%rbx),%eax
    99e5:	0f be c0             	movsbl %al,%eax
    99e8:	41 39 c6             	cmp    %eax,%r14d
    99eb:	0f 95 c0             	setne  %al
    99ee:	0f b6 c0             	movzbl %al,%eax
    99f1:	44 89 ee             	mov    %r13d,%esi
    99f4:	89 c7                	mov    %eax,%edi
    99f6:	e8 f3 b8 ff ff       	callq  52ee <safe_lshift_func_int8_t_s_u>
    99fb:	0f be d0             	movsbl %al,%edx
    99fe:	48 8b 05 bb f3 00 00 	mov    0xf3bb(%rip),%rax        # 18dc0 <g_671>
    9a05:	0f b6 00             	movzbl (%rax),%eax
    9a08:	0f b6 c0             	movzbl %al,%eax
    9a0b:	39 c2                	cmp    %eax,%edx
    9a0d:	7f 07                	jg     9a16 <func_1+0x3261>
    9a0f:	ba 09 00 00 00       	mov    $0x9,%edx
    9a14:	eb 05                	jmp    9a1b <func_1+0x3266>
    9a16:	ba 08 00 00 00       	mov    $0x8,%edx
    9a1b:	48 8b 85 80 f3 ff ff 	mov    -0xc80(%rbp),%rax
    9a22:	8b 00                	mov    (%rax),%eax
    9a24:	48 98                	cltq   
    9a26:	48 21 c2             	and    %rax,%rdx
    9a29:	8b 85 c8 f2 ff ff    	mov    -0xd38(%rbp),%eax
    9a2f:	48 98                	cltq   
    9a31:	48 09 d0             	or     %rdx,%rax
    9a34:	48 3d fa ff 00 00    	cmp    $0xfffa,%rax
    9a3a:	48 8b 85 58 f3 ff ff 	mov    -0xca8(%rbp),%rax
    9a41:	48 85 c0             	test   %rax,%rax
    9a44:	0f 94 c0             	sete   %al
    9a47:	0f b6 c0             	movzbl %al,%eax
    9a4a:	be 06 00 00 00       	mov    $0x6,%esi
    9a4f:	89 c7                	mov    %eax,%edi
    9a51:	e8 16 b9 ff ff       	callq  536c <safe_rshift_func_int8_t_s_u>
    9a56:	0f b7 85 b0 f6 ff ff 	movzwl -0x950(%rbp),%eax
    9a5d:	0f b6 c0             	movzbl %al,%eax
    9a60:	89 c6                	mov    %eax,%esi
    9a62:	bf fb 00 00 00       	mov    $0xfb,%edi
    9a67:	e8 ee c0 ff ff       	callq  5b5a <safe_add_func_uint8_t_u_u>
    9a6c:	0f b6 d0             	movzbl %al,%edx
    9a6f:	8b 05 b7 db 00 00    	mov    0xdbb7(%rip),%eax        # 1762c <g_853>
    9a75:	48 98                	cltq   
    9a77:	48 89 d6             	mov    %rdx,%rsi
    9a7a:	48 89 c7             	mov    %rax,%rdi
    9a7d:	e8 c9 c5 ff ff       	callq  604b <safe_sub_func_uint64_t_u_u>
    9a82:	44 89 e6             	mov    %r12d,%esi
    9a85:	bf 07 00 00 00       	mov    $0x7,%edi
    9a8a:	e8 87 b9 ff ff       	callq  5416 <safe_mod_func_int16_t_s_s>
    9a8f:	48 c7 85 c8 f3 ff ff 	movq   $0x0,-0xc38(%rbp)
    9a96:	00 00 00 00 
    9a9a:	c7 85 d8 f2 ff ff 3d 	movl   $0x115ae93d,-0xd28(%rbp)
    9aa1:	e9 5a 11 
    9aa4:	c7 85 dc f2 ff ff ff 	movl   $0xffffffff,-0xd24(%rbp)
    9aab:	ff ff ff 
    9aae:	48 8d 05 eb f7 00 00 	lea    0xf7eb(%rip),%rax        # 192a0 <g_1594>
    9ab5:	48 89 85 d0 f3 ff ff 	mov    %rax,-0xc30(%rbp)
    9abc:	48 8d 05 65 f4 00 00 	lea    0xf465(%rip),%rax        # 18f28 <g_728+0x8>
    9ac3:	48 89 85 d8 f3 ff ff 	mov    %rax,-0xc28(%rbp)
    9aca:	c7 85 88 f2 ff ff e0 	movl   $0x50ae8fe0,-0xd78(%rbp)
    9ad1:	8f ae 50 
    9ad4:	66 c7 85 4a f2 ff ff 	movw   $0xa96d,-0xdb6(%rbp)
    9adb:	6d a9 
    9add:	48 8d 05 7c d8 00 00 	lea    0xd87c(%rip),%rax        # 17360 <g_214>
    9ae4:	48 89 85 e0 f3 ff ff 	mov    %rax,-0xc20(%rbp)
    9aeb:	c7 85 8c f2 ff ff 00 	movl   $0x0,-0xd74(%rbp)
    9af2:	00 00 00 
    9af5:	eb 1a                	jmp    9b11 <func_1+0x335c>
    9af7:	8b 85 8c f2 ff ff    	mov    -0xd74(%rbp),%eax
    9afd:	48 98                	cltq   
    9aff:	c7 84 85 40 f8 ff ff 	movl   $0x9e6c9f36,-0x7c0(%rbp,%rax,4)
    9b06:	36 9f 6c 9e 
    9b0a:	83 85 8c f2 ff ff 01 	addl   $0x1,-0xd74(%rbp)
    9b11:	83 bd 8c f2 ff ff 04 	cmpl   $0x4,-0xd74(%rbp)
    9b18:	7e dd                	jle    9af7 <func_1+0x3342>
    9b1a:	c7 05 f4 da 00 00 00 	movl   $0x0,0xdaf4(%rip)        # 17618 <g_847>
    9b21:	00 00 00 
    9b24:	e9 3a 02 00 00       	jmpq   9d63 <func_1+0x35ae>
    9b29:	66 c7 85 4e f2 ff ff 	movw   $0xffff,-0xdb2(%rbp)
    9b30:	ff ff 
    9b32:	48 c7 85 e0 f4 ff ff 	movq   $0x0,-0xb20(%rbp)
    9b39:	00 00 00 00 
    9b3d:	48 83 bd c8 f3 ff ff 	cmpq   $0x0,-0xc38(%rbp)
    9b44:	00 
    9b45:	0f 94 c0             	sete   %al
    9b48:	0f b6 d0             	movzbl %al,%edx
    9b4b:	0f b7 85 4e f2 ff ff 	movzwl -0xdb2(%rbp),%eax
    9b52:	89 d6                	mov    %edx,%esi
    9b54:	89 c7                	mov    %eax,%edi
    9b56:	e8 a4 c1 ff ff       	callq  5cff <safe_add_func_uint16_t_u_u>
    9b5b:	48 8b 95 80 f3 ff ff 	mov    -0xc80(%rbp),%rdx
    9b62:	8b 12                	mov    (%rdx),%edx
    9b64:	0f b7 c0             	movzwl %ax,%eax
    9b67:	09 c2                	or     %eax,%edx
    9b69:	48 8b 85 80 f3 ff ff 	mov    -0xc80(%rbp),%rax
    9b70:	89 10                	mov    %edx,(%rax)
    9b72:	48 8b 85 80 f3 ff ff 	mov    -0xc80(%rbp),%rax
    9b79:	8b 00                	mov    (%rax),%eax
    9b7b:	23 85 d8 f2 ff ff    	and    -0xd28(%rbp),%eax
    9b81:	89 c2                	mov    %eax,%edx
    9b83:	48 8b 85 80 f3 ff ff 	mov    -0xc80(%rbp),%rax
    9b8a:	89 10                	mov    %edx,(%rax)
    9b8c:	c7 05 6e da 00 00 00 	movl   $0x0,0xda6e(%rip)        # 17604 <g_841>
    9b93:	00 00 00 
    9b96:	e9 9b 01 00 00       	jmpq   9d36 <func_1+0x3581>
    9b9b:	c6 85 3d f2 ff ff fc 	movb   $0xfc,-0xdc3(%rbp)
    9ba2:	48 c7 05 b3 d7 00 00 	movq   $0xf,0xd7b3(%rip)        # 17360 <g_214>
    9ba9:	0f 00 00 00 
    9bad:	90                   	nop
    9bae:	48 8b 05 ab d7 00 00 	mov    0xd7ab(%rip),%rax        # 17360 <g_214>
    9bb5:	48 83 f8 2c          	cmp    $0x2c,%rax
    9bb9:	0f 85 5f 01 00 00    	jne    9d1e <func_1+0x3569>
    9bbf:	66 c7 85 50 f2 ff ff 	movw   $0x6669,-0xdb0(%rbp)
    9bc6:	69 66 
    9bc8:	c7 85 00 f3 ff ff af 	movl   $0x34ab00af,-0xd00(%rbp)
    9bcf:	00 ab 34 
    9bd2:	0f bf 95 50 f2 ff ff 	movswl -0xdb0(%rbp),%edx
    9bd9:	48 8b 85 80 f3 ff ff 	mov    -0xc80(%rbp),%rax
    9be0:	89 10                	mov    %edx,(%rax)
    9be2:	48 8b 85 80 f3 ff ff 	mov    -0xc80(%rbp),%rax
    9be9:	8b 00                	mov    (%rax),%eax
    9beb:	89 85 00 f3 ff ff    	mov    %eax,-0xd00(%rbp)
    9bf1:	44 0f be ad 3d f2 ff 	movsbl -0xdc3(%rbp),%r13d
    9bf8:	ff 
    9bf9:	48 8b 85 80 f3 ff ff 	mov    -0xc80(%rbp),%rax
    9c00:	8b 00                	mov    (%rax),%eax
    9c02:	0f bf d8             	movswl %ax,%ebx
    9c05:	48 8b 05 34 f9 00 00 	mov    0xf934(%rip),%rax        # 19540 <g_1640>
    9c0c:	8b 10                	mov    (%rax),%edx
    9c0e:	48 8b 05 2b f9 00 00 	mov    0xf92b(%rip),%rax        # 19540 <g_1640>
    9c15:	83 ca 01             	or     $0x1,%edx
    9c18:	89 10                	mov    %edx,(%rax)
    9c1a:	44 8b 30             	mov    (%rax),%r14d
    9c1d:	48 8b 05 7c f6 00 00 	mov    0xf67c(%rip),%rax        # 192a0 <g_1594>
    9c24:	0f b6 00             	movzbl (%rax),%eax
    9c27:	44 0f be e0          	movsbl %al,%r12d
    9c2b:	48 8b 05 6e f6 00 00 	mov    0xf66e(%rip),%rax        # 192a0 <g_1594>
    9c32:	0f b6 00             	movzbl (%rax),%eax
    9c35:	0f be d0             	movsbl %al,%edx
    9c38:	0f b7 8d 4e f2 ff ff 	movzwl -0xdb2(%rbp),%ecx
    9c3f:	48 83 bd e0 f4 ff ff 	cmpq   $0x0,-0xb20(%rbp)
    9c46:	00 
    9c47:	0f 95 c0             	setne  %al
    9c4a:	0f b6 c0             	movzbl %al,%eax
    9c4d:	89 85 00 f3 ff ff    	mov    %eax,-0xd00(%rbp)
    9c53:	8b 85 00 f3 ff ff    	mov    -0xd00(%rbp),%eax
    9c59:	33 85 d8 f2 ff ff    	xor    -0xd28(%rbp),%eax
    9c5f:	39 c1                	cmp    %eax,%ecx
    9c61:	0f 95 c0             	setne  %al
    9c64:	0f b6 c0             	movzbl %al,%eax
    9c67:	89 d6                	mov    %edx,%esi
    9c69:	89 c7                	mov    %eax,%edi
    9c6b:	e8 1d c0 ff ff       	callq  5c8d <safe_rshift_func_uint8_t_u_s>
    9c70:	0f b6 c0             	movzbl %al,%eax
    9c73:	39 85 d8 f2 ff ff    	cmp    %eax,-0xd28(%rbp)
    9c79:	0f 95 c0             	setne  %al
    9c7c:	0f b6 c0             	movzbl %al,%eax
    9c7f:	be 09 00 00 00       	mov    $0x9,%esi
    9c84:	89 c7                	mov    %eax,%edi
    9c86:	e8 07 b8 ff ff       	callq  5492 <safe_lshift_func_int16_t_s_s>
    9c8b:	98                   	cwtl   
    9c8c:	89 c7                	mov    %eax,%edi
    9c8e:	e8 03 b9 ff ff       	callq  5596 <safe_unary_minus_func_int32_t_s>
    9c93:	89 85 d8 f2 ff ff    	mov    %eax,-0xd28(%rbp)
    9c99:	0f be 85 3d f2 ff ff 	movsbl -0xdc3(%rbp),%eax
    9ca0:	39 85 d8 f2 ff ff    	cmp    %eax,-0xd28(%rbp)
    9ca6:	0f 9f c0             	setg   %al
    9ca9:	0f b6 c0             	movzbl %al,%eax
    9cac:	44 89 e6             	mov    %r12d,%esi
    9caf:	89 c7                	mov    %eax,%edi
    9cb1:	e8 eb b5 ff ff       	callq  52a1 <safe_lshift_func_int8_t_s_s>
    9cb6:	0f be c0             	movsbl %al,%eax
    9cb9:	be 0f 00 00 00       	mov    $0xf,%esi
    9cbe:	89 c7                	mov    %eax,%edi
    9cc0:	e8 65 b8 ff ff       	callq  552a <safe_rshift_func_int16_t_s_s>
    9cc5:	98                   	cwtl   
    9cc6:	44 89 f2             	mov    %r14d,%edx
    9cc9:	09 c2                	or     %eax,%edx
    9ccb:	0f b7 85 4e f2 ff ff 	movzwl -0xdb2(%rbp),%eax
    9cd2:	89 d6                	mov    %edx,%esi
    9cd4:	89 c7                	mov    %eax,%edi
    9cd6:	e8 dd c1 ff ff       	callq  5eb8 <safe_add_func_uint32_t_u_u>
    9cdb:	98                   	cwtl   
    9cdc:	89 de                	mov    %ebx,%esi
    9cde:	89 c7                	mov    %eax,%edi
    9ce0:	e8 70 b7 ff ff       	callq  5455 <safe_div_func_int16_t_s_s>
    9ce5:	66 0d e1 55          	or     $0x55e1,%ax
    9ce9:	48 0f bf d0          	movswq %ax,%rdx
    9ced:	8b 05 2d d9 00 00    	mov    0xd92d(%rip),%eax        # 17620 <g_849>
    9cf3:	48 98                	cltq   
    9cf5:	48 39 c2             	cmp    %rax,%rdx
    9cf8:	0f 9f c0             	setg   %al
    9cfb:	0f b6 c0             	movzbl %al,%eax
    9cfe:	41 39 c5             	cmp    %eax,%r13d
    9d01:	0f 9d c0             	setge  %al
    9d04:	0f b6 d0             	movzbl %al,%edx
    9d07:	48 8b 85 80 f3 ff ff 	mov    -0xc80(%rbp),%rax
    9d0e:	89 10                	mov    %edx,(%rax)
    9d10:	48 8b 85 80 f3 ff ff 	mov    -0xc80(%rbp),%rax
    9d17:	8b 00                	mov    (%rax),%eax
    9d19:	e9 37 0b 00 00       	jmpq   a855 <func_1+0x40a0>
    9d1e:	8b 05 e0 d8 00 00    	mov    0xd8e0(%rip),%eax        # 17604 <g_841>
    9d24:	be 05 00 00 00       	mov    $0x5,%esi
    9d29:	89 c7                	mov    %eax,%edi
    9d2b:	e8 a0 c1 ff ff       	callq  5ed0 <safe_sub_func_uint32_t_u_u>
    9d30:	89 05 ce d8 00 00    	mov    %eax,0xd8ce(%rip)        # 17604 <g_841>
    9d36:	8b 05 c8 d8 00 00    	mov    0xd8c8(%rip),%eax        # 17604 <g_841>
    9d3c:	83 f8 e7             	cmp    $0xffffffe7,%eax
    9d3f:	0f 85 56 fe ff ff    	jne    9b9b <func_1+0x33e6>
    9d45:	8b 05 cd d8 00 00    	mov    0xd8cd(%rip),%eax        # 17618 <g_847>
    9d4b:	0f be c0             	movsbl %al,%eax
    9d4e:	be 09 00 00 00       	mov    $0x9,%esi
    9d53:	89 c7                	mov    %eax,%edi
    9d55:	e8 98 b4 ff ff       	callq  51f2 <safe_sub_func_int8_t_s_s>
    9d5a:	0f be c0             	movsbl %al,%eax
    9d5d:	89 05 b5 d8 00 00    	mov    %eax,0xd8b5(%rip)        # 17618 <g_847>
    9d63:	8b 05 af d8 00 00    	mov    0xd8af(%rip),%eax        # 17618 <g_847>
    9d69:	83 f8 f2             	cmp    $0xfffffff2,%eax
    9d6c:	0f 8d b7 fd ff ff    	jge    9b29 <func_1+0x3374>
    9d72:	c7 05 90 d8 00 00 02 	movl   $0x2,0xd890(%rip)        # 1760c <g_844>
    9d79:	00 00 00 
    9d7c:	e9 37 08 00 00       	jmpq   a5b8 <func_1+0x3e03>
    9d81:	48 8d 85 58 f3 ff ff 	lea    -0xca8(%rbp),%rax
    9d88:	48 89 85 e8 f3 ff ff 	mov    %rax,-0xc18(%rbp)
    9d8f:	48 c7 85 60 f3 ff ff 	movq   $0x0,-0xca0(%rbp)
    9d96:	00 00 00 00 
    9d9a:	48 8d 85 60 f3 ff ff 	lea    -0xca0(%rbp),%rax
    9da1:	48 89 85 68 f3 ff ff 	mov    %rax,-0xc98(%rbp)
    9da8:	48 8d 85 68 f3 ff ff 	lea    -0xc98(%rbp),%rax
    9daf:	48 89 85 f0 f3 ff ff 	mov    %rax,-0xc10(%rbp)
    9db6:	c7 85 e4 f2 ff ff 12 	movl   $0x9f171e12,-0xd1c(%rbp)
    9dbd:	1e 17 9f 
    9dc0:	48 8d 85 64 f2 ff ff 	lea    -0xd9c(%rbp),%rax
    9dc7:	48 89 85 f8 f3 ff ff 	mov    %rax,-0xc08(%rbp)
    9dce:	48 8d 05 cb f4 00 00 	lea    0xf4cb(%rip),%rax        # 192a0 <g_1594>
    9dd5:	48 89 85 70 f3 ff ff 	mov    %rax,-0xc90(%rbp)
    9ddc:	c7 85 e8 f2 ff ff 01 	movl   $0xa9d27c01,-0xd18(%rbp)
    9de3:	7c d2 a9 
    9de6:	c7 85 ec f2 ff ff 8b 	movl   $0x4506088b,-0xd14(%rbp)
    9ded:	08 06 45 
    9df0:	48 8b 05 81 f4 00 00 	mov    0xf481(%rip),%rax        # 19278 <g_1072>
    9df7:	48 8d 05 e2 f7 00 00 	lea    0xf7e2(%rip),%rax        # 195e0 <g_1667>
    9dfe:	48 8b 00             	mov    (%rax),%rax
    9e01:	0f b6 00             	movzbl (%rax),%eax
    9e04:	0f b6 d8             	movzbl %al,%ebx
    9e07:	8b 85 c0 f2 ff ff    	mov    -0xd40(%rbp),%eax
    9e0d:	4c 63 e0             	movslq %eax,%r12
    9e10:	8b 85 e4 f2 ff ff    	mov    -0xd1c(%rbp),%eax
    9e16:	4c 63 e8             	movslq %eax,%r13
    9e19:	48 8b 85 80 f3 ff ff 	mov    -0xc80(%rbp),%rax
    9e20:	44 8b 30             	mov    (%rax),%r14d
    9e23:	48 8b 05 ee fc 00 00 	mov    0xfcee(%rip),%rax        # 19b18 <g_1686>
    9e2a:	48 8b 00             	mov    (%rax),%rax
    9e2d:	8b 00                	mov    (%rax),%eax
    9e2f:	41 89 c7             	mov    %eax,%r15d
    9e32:	8b 05 20 d8 00 00    	mov    0xd820(%rip),%eax        # 17658 <g_858>
    9e38:	85 c0                	test   %eax,%eax
    9e3a:	74 4d                	je     9e89 <func_1+0x36d4>
    9e3c:	48 8b 05 e5 fc 00 00 	mov    0xfce5(%rip),%rax        # 19b28 <g_1867>
    9e43:	48 89 85 f0 f3 ff ff 	mov    %rax,-0xc10(%rbp)
    9e4a:	48 8b 05 e7 fc 00 00 	mov    0xfce7(%rip),%rax        # 19b38 <g_1872>
    9e51:	48 89 05 e0 fc 00 00 	mov    %rax,0xfce0(%rip)        # 19b38 <g_1872>
    9e58:	48 8b 05 d9 fc 00 00 	mov    0xfcd9(%rip),%rax        # 19b38 <g_1872>
    9e5f:	48 39 85 f0 f3 ff ff 	cmp    %rax,-0xc10(%rbp)
    9e66:	0f 94 c0             	sete   %al
    9e69:	0f b6 d0             	movzbl %al,%edx
    9e6c:	8b 85 c8 f2 ff ff    	mov    -0xd38(%rbp),%eax
    9e72:	0f be c0             	movsbl %al,%eax
    9e75:	89 d6                	mov    %edx,%esi
    9e77:	89 c7                	mov    %eax,%edi
    9e79:	e8 56 b3 ff ff       	callq  51d4 <safe_add_func_int8_t_s_s>
    9e7e:	84 c0                	test   %al,%al
    9e80:	74 07                	je     9e89 <func_1+0x36d4>
    9e82:	b8 01 00 00 00       	mov    $0x1,%eax
    9e87:	eb 05                	jmp    9e8e <func_1+0x36d9>
    9e89:	b8 00 00 00 00       	mov    $0x0,%eax
    9e8e:	44 89 fe             	mov    %r15d,%esi
    9e91:	89 c7                	mov    %eax,%edi
    9e93:	e8 8d c0 ff ff       	callq  5f25 <safe_div_func_uint32_t_u_u>
    9e98:	8b 95 d8 f2 ff ff    	mov    -0xd28(%rbp),%edx
    9e9e:	39 d0                	cmp    %edx,%eax
    9ea0:	0f 93 c0             	setae  %al
    9ea3:	0f b6 d0             	movzbl %al,%edx
    9ea6:	48 8b 85 80 f3 ff ff 	mov    -0xc80(%rbp),%rax
    9ead:	8b 00                	mov    (%rax),%eax
    9eaf:	39 c2                	cmp    %eax,%edx
    9eb1:	0f 9d c0             	setge  %al
    9eb4:	0f b6 c0             	movzbl %al,%eax
    9eb7:	41 39 c6             	cmp    %eax,%r14d
    9eba:	0f 94 c0             	sete   %al
    9ebd:	0f b6 c0             	movzbl %al,%eax
    9ec0:	4c 89 ee             	mov    %r13,%rsi
    9ec3:	48 89 c7             	mov    %rax,%rdi
    9ec6:	e8 80 c1 ff ff       	callq  604b <safe_sub_func_uint64_t_u_u>
    9ecb:	8b 95 e4 f2 ff ff    	mov    -0xd1c(%rbp),%edx
    9ed1:	48 63 d2             	movslq %edx,%rdx
    9ed4:	48 39 d0             	cmp    %rdx,%rax
    9ed7:	0f 92 c0             	setb   %al
    9eda:	0f b6 d0             	movzbl %al,%edx
    9edd:	48 8b 85 80 f3 ff ff 	mov    -0xc80(%rbp),%rax
    9ee4:	8b 00                	mov    (%rax),%eax
    9ee6:	39 c2                	cmp    %eax,%edx
    9ee8:	0f 94 c0             	sete   %al
    9eeb:	0f b6 c0             	movzbl %al,%eax
    9eee:	4c 89 e6             	mov    %r12,%rsi
    9ef1:	48 89 c7             	mov    %rax,%rdi
    9ef4:	e8 52 c1 ff ff       	callq  604b <safe_sub_func_uint64_t_u_u>
    9ef9:	98                   	cwtl   
    9efa:	be 01 00 00 00       	mov    $0x1,%esi
    9eff:	89 c7                	mov    %eax,%edi
    9f01:	e8 8c b5 ff ff       	callq  5492 <safe_lshift_func_int16_t_s_s>
    9f06:	8b 85 c4 f2 ff ff    	mov    -0xd3c(%rbp),%eax
    9f0c:	48 98                	cltq   
    9f0e:	48 be 6a 3d 73 4d 32 	movabs $0xb2a30a324d733d6a,%rsi
    9f15:	0a a3 b2 
    9f18:	48 89 c7             	mov    %rax,%rdi
    9f1b:	e8 2b c1 ff ff       	callq  604b <safe_sub_func_uint64_t_u_u>
    9f20:	0f be c0             	movsbl %al,%eax
    9f23:	89 de                	mov    %ebx,%esi
    9f25:	89 c7                	mov    %eax,%edi
    9f27:	e8 c2 b3 ff ff       	callq  52ee <safe_lshift_func_int8_t_s_u>
    9f2c:	ba 00 00 00 00       	mov    $0x0,%edx
    9f31:	48 8b 85 f8 f3 ff ff 	mov    -0xc08(%rbp),%rax
    9f38:	8b 00                	mov    (%rax),%eax
    9f3a:	09 c2                	or     %eax,%edx
    9f3c:	48 8b 85 f8 f3 ff ff 	mov    -0xc08(%rbp),%rax
    9f43:	89 10                	mov    %edx,(%rax)
    9f45:	66 c7 05 8e d4 00 00 	movw   $0x0,0xd48e(%rip)        # 173dc <g_234>
    9f4c:	00 00 
    9f4e:	e9 3a 06 00 00       	jmpq   a58d <func_1+0x3dd8>
    9f53:	48 8d 85 70 f3 ff ff 	lea    -0xc90(%rbp),%rax
    9f5a:	48 89 85 00 f4 ff ff 	mov    %rax,-0xc00(%rbp)
    9f61:	48 8d 85 40 f3 ff ff 	lea    -0xcc0(%rbp),%rax
    9f68:	48 89 85 08 f4 ff ff 	mov    %rax,-0xbf8(%rbp)
    9f6f:	48 8d 05 5a d4 00 00 	lea    0xd45a(%rip),%rax        # 173d0 <g_229>
    9f76:	48 89 85 10 f4 ff ff 	mov    %rax,-0xbf0(%rbp)
    9f7d:	48 8d 05 bc f5 00 00 	lea    0xf5bc(%rip),%rax        # 19540 <g_1640>
    9f84:	48 89 85 18 f4 ff ff 	mov    %rax,-0xbe8(%rbp)
    9f8b:	66 c7 85 4c f2 ff ff 	movw   $0x131d,-0xdb4(%rbp)
    9f92:	1d 13 
    9f94:	48 8d 05 d5 fb 00 00 	lea    0xfbd5(%rip),%rax        # 19b70 <g_1898+0x10>
    9f9b:	48 89 85 c0 f8 ff ff 	mov    %rax,-0x740(%rbp)
    9fa2:	48 8d 05 c7 fb 00 00 	lea    0xfbc7(%rip),%rax        # 19b70 <g_1898+0x10>
    9fa9:	48 89 85 c8 f8 ff ff 	mov    %rax,-0x738(%rbp)
    9fb0:	48 8d 05 b9 fb 00 00 	lea    0xfbb9(%rip),%rax        # 19b70 <g_1898+0x10>
    9fb7:	48 89 85 d0 f8 ff ff 	mov    %rax,-0x730(%rbp)
    9fbe:	48 8d 05 ab fb 00 00 	lea    0xfbab(%rip),%rax        # 19b70 <g_1898+0x10>
    9fc5:	48 89 85 d8 f8 ff ff 	mov    %rax,-0x728(%rbp)
    9fcc:	48 8d 85 6c f2 ff ff 	lea    -0xd94(%rbp),%rax
    9fd3:	48 89 85 78 f3 ff ff 	mov    %rax,-0xc88(%rbp)
    9fda:	48 8d 85 78 f3 ff ff 	lea    -0xc88(%rbp),%rax
    9fe1:	48 89 85 20 f4 ff ff 	mov    %rax,-0xbe0(%rbp)
    9fe8:	c7 85 f0 f2 ff ff 08 	movl   $0xfc53808,-0xd10(%rbp)
    9fef:	38 c5 0f 
    9ff2:	c7 85 f4 f2 ff ff 00 	movl   $0x0,-0xd0c(%rbp)
    9ff9:	00 00 00 
    9ffc:	c7 85 f8 f2 ff ff 00 	movl   $0x0,-0xd08(%rbp)
    a003:	00 00 00 
    a006:	c7 85 90 f2 ff ff 00 	movl   $0x0,-0xd70(%rbp)
    a00d:	00 00 00 
    a010:	eb 42                	jmp    a054 <func_1+0x389f>
    a012:	c7 85 94 f2 ff ff 00 	movl   $0x0,-0xd6c(%rbp)
    a019:	00 00 00 
    a01c:	eb 26                	jmp    a044 <func_1+0x388f>
    a01e:	8b 85 94 f2 ff ff    	mov    -0xd6c(%rbp),%eax
    a024:	48 63 d0             	movslq %eax,%rdx
    a027:	8b 85 90 f2 ff ff    	mov    -0xd70(%rbp),%eax
    a02d:	48 98                	cltq   
    a02f:	48 01 d0             	add    %rdx,%rax
    a032:	c7 84 85 e0 f6 ff ff 	movl   $0x62117e8f,-0x920(%rbp,%rax,4)
    a039:	8f 7e 11 62 
    a03d:	83 85 94 f2 ff ff 01 	addl   $0x1,-0xd6c(%rbp)
    a044:	83 bd 94 f2 ff ff 00 	cmpl   $0x0,-0xd6c(%rbp)
    a04b:	7e d1                	jle    a01e <func_1+0x3869>
    a04d:	83 85 90 f2 ff ff 01 	addl   $0x1,-0xd70(%rbp)
    a054:	83 bd 90 f2 ff ff 00 	cmpl   $0x0,-0xd70(%rbp)
    a05b:	7e b5                	jle    a012 <func_1+0x385d>
    a05d:	48 8b 95 70 f3 ff ff 	mov    -0xc90(%rbp),%rdx
    a064:	48 8b 85 00 f4 ff ff 	mov    -0xc00(%rbp),%rax
    a06b:	48 89 10             	mov    %rdx,(%rax)
    a06e:	48 8b 85 00 f4 ff ff 	mov    -0xc00(%rbp),%rax
    a075:	48 8b 00             	mov    (%rax),%rax
    a078:	48 39 85 d0 f3 ff ff 	cmp    %rax,-0xc30(%rbp)
    a07f:	0f 95 c0             	setne  %al
    a082:	0f b6 d0             	movzbl %al,%edx
    a085:	48 8b 85 f8 f3 ff ff 	mov    -0xc08(%rbp),%rax
    a08c:	8b 00                	mov    (%rax),%eax
    a08e:	09 c2                	or     %eax,%edx
    a090:	48 8b 85 f8 f3 ff ff 	mov    -0xc08(%rbp),%rax
    a097:	89 10                	mov    %edx,(%rax)
    a099:	0f b7 05 3c d3 00 00 	movzwl 0xd33c(%rip),%eax        # 173dc <g_234>
    a0a0:	0f b7 c0             	movzwl %ax,%eax
    a0a3:	0f b7 15 32 d3 00 00 	movzwl 0xd332(%rip),%edx        # 173dc <g_234>
    a0aa:	0f b7 d2             	movzwl %dx,%edx
    a0ad:	83 c2 01             	add    $0x1,%edx
    a0b0:	48 63 ca             	movslq %edx,%rcx
    a0b3:	48 63 d0             	movslq %eax,%rdx
    a0b6:	48 89 d0             	mov    %rdx,%rax
    a0b9:	48 c1 e0 02          	shl    $0x2,%rax
    a0bd:	48 01 d0             	add    %rdx,%rax
    a0c0:	48 8d 14 08          	lea    (%rax,%rcx,1),%rdx
    a0c4:	48 8d 05 f5 dc 00 00 	lea    0xdcf5(%rip),%rax        # 17dc0 <g_1039>
    a0cb:	48 01 d0             	add    %rdx,%rax
    a0ce:	0f b6 00             	movzbl (%rax),%eax
    a0d1:	48 0f be c0          	movsbq %al,%rax
    a0d5:	48 31 85 88 f3 ff ff 	xor    %rax,-0xc78(%rbp)
    a0dc:	48 8b 05 bd f1 00 00 	mov    0xf1bd(%rip),%rax        # 192a0 <g_1594>
    a0e3:	0f b6 00             	movzbl (%rax),%eax
    a0e6:	0f be d8             	movsbl %al,%ebx
    a0e9:	48 8b 85 18 f4 ff ff 	mov    -0xbe8(%rbp),%rax
    a0f0:	48 8d 95 60 f2 ff ff 	lea    -0xda0(%rbp),%rdx
    a0f7:	48 89 10             	mov    %rdx,(%rax)
    a0fa:	48 8b 05 ff f9 00 00 	mov    0xf9ff(%rip),%rax        # 19b00 <g_1669>
    a101:	48 8b 00             	mov    (%rax),%rax
    a104:	48 8b 05 5d fa 00 00 	mov    0xfa5d(%rip),%rax        # 19b68 <g_1898+0x8>
    a10b:	48 89 85 b0 f3 ff ff 	mov    %rax,-0xc50(%rbp)
    a112:	48 8b 85 20 f4 ff ff 	mov    -0xbe0(%rbp),%rax
    a119:	48 8b 95 f8 f3 ff ff 	mov    -0xc08(%rbp),%rdx
    a120:	48 89 10             	mov    %rdx,(%rax)
    a123:	0f b7 85 b0 f6 ff ff 	movzwl -0x950(%rbp),%eax
    a12a:	48 0f bf d0          	movswq %ax,%rdx
    a12e:	48 8b 85 08 f4 ff ff 	mov    -0xbf8(%rbp),%rax
    a135:	48 89 10             	mov    %rdx,(%rax)
    a138:	48 8b 85 08 f4 ff ff 	mov    -0xbf8(%rbp),%rax
    a13f:	48 8b 10             	mov    (%rax),%rdx
    a142:	48 8b 85 10 f4 ff ff 	mov    -0xbf0(%rbp),%rax
    a149:	48 89 10             	mov    %rdx,(%rax)
    a14c:	48 8b 85 10 f4 ff ff 	mov    -0xbf0(%rbp),%rax
    a153:	48 8b 00             	mov    (%rax),%rax
    a156:	48 83 f8 34          	cmp    $0x34,%rax
    a15a:	0f 9e c0             	setle  %al
    a15d:	0f b6 c0             	movzbl %al,%eax
    a160:	be 73 77 00 00       	mov    $0x7773,%esi
    a165:	89 c7                	mov    %eax,%edi
    a167:	e8 89 b2 ff ff       	callq  53f5 <safe_mul_func_int16_t_s_s>
    a16c:	0f be c0             	movsbl %al,%eax
    a16f:	89 de                	mov    %ebx,%esi
    a171:	89 c7                	mov    %eax,%edi
    a173:	e8 29 b1 ff ff       	callq  52a1 <safe_lshift_func_int8_t_s_s>
    a178:	8b 85 d8 f2 ff ff    	mov    -0xd28(%rbp),%eax
    a17e:	48 98                	cltq   
    a180:	48 be 62 ee 11 17 b0 	movabs $0xcf264cb01711ee62,%rsi
    a187:	4c 26 cf 
    a18a:	48 89 c7             	mov    %rax,%rdi
    a18d:	e8 65 b8 ff ff       	callq  59f7 <safe_div_func_int64_t_s_s>
    a192:	48 8b 85 80 f3 ff ff 	mov    -0xc80(%rbp),%rax
    a199:	8b 08                	mov    (%rax),%ecx
    a19b:	0f b7 05 3a d2 00 00 	movzwl 0xd23a(%rip),%eax        # 173dc <g_234>
    a1a2:	0f b7 c0             	movzwl %ax,%eax
    a1a5:	0f b7 15 30 d2 00 00 	movzwl 0xd230(%rip),%edx        # 173dc <g_234>
    a1ac:	0f b7 d2             	movzwl %dx,%edx
    a1af:	83 c2 01             	add    $0x1,%edx
    a1b2:	48 63 f2             	movslq %edx,%rsi
    a1b5:	48 63 d0             	movslq %eax,%rdx
    a1b8:	48 89 d0             	mov    %rdx,%rax
    a1bb:	48 c1 e0 02          	shl    $0x2,%rax
    a1bf:	48 01 d0             	add    %rdx,%rax
    a1c2:	48 8d 14 30          	lea    (%rax,%rsi,1),%rdx
    a1c6:	48 8d 05 f3 db 00 00 	lea    0xdbf3(%rip),%rax        # 17dc0 <g_1039>
    a1cd:	48 01 d0             	add    %rdx,%rax
    a1d0:	0f b6 00             	movzbl (%rax),%eax
    a1d3:	0f be c0             	movsbl %al,%eax
    a1d6:	39 85 d8 f2 ff ff    	cmp    %eax,-0xd28(%rbp)
    a1dc:	0f 95 c0             	setne  %al
    a1df:	0f b6 d0             	movzbl %al,%edx
    a1e2:	48 8b 05 57 f9 00 00 	mov    0xf957(%rip),%rax        # 19b40 <g_1899>
    a1e9:	48 8b 00             	mov    (%rax),%rax
    a1ec:	0f b6 00             	movzbl (%rax),%eax
    a1ef:	0f b6 c0             	movzbl %al,%eax
    a1f2:	21 d0                	and    %edx,%eax
    a1f4:	39 c1                	cmp    %eax,%ecx
    a1f6:	74 07                	je     a1ff <func_1+0x3a4a>
    a1f8:	83 bd dc f2 ff ff 00 	cmpl   $0x0,-0xd24(%rbp)
    a1ff:	bf 01 00 00 00       	mov    $0x1,%edi
    a204:	e8 10 be ff ff       	callq  6019 <safe_unary_minus_func_uint64_t_u>
    a209:	48 85 c0             	test   %rax,%rax
    a20c:	0f 94 c0             	sete   %al
    a20f:	0f b6 c8             	movzbl %al,%ecx
    a212:	0f b7 05 c3 d1 00 00 	movzwl 0xd1c3(%rip),%eax        # 173dc <g_234>
    a219:	0f b7 c0             	movzwl %ax,%eax
    a21c:	0f b7 15 b9 d1 00 00 	movzwl 0xd1b9(%rip),%edx        # 173dc <g_234>
    a223:	0f b7 d2             	movzwl %dx,%edx
    a226:	83 c2 01             	add    $0x1,%edx
    a229:	48 63 f2             	movslq %edx,%rsi
    a22c:	48 63 d0             	movslq %eax,%rdx
    a22f:	48 89 d0             	mov    %rdx,%rax
    a232:	48 c1 e0 02          	shl    $0x2,%rax
    a236:	48 01 d0             	add    %rdx,%rax
    a239:	48 8d 14 30          	lea    (%rax,%rsi,1),%rdx
    a23d:	48 8d 05 7c db 00 00 	lea    0xdb7c(%rip),%rax        # 17dc0 <g_1039>
    a244:	48 01 d0             	add    %rdx,%rax
    a247:	0f b6 00             	movzbl (%rax),%eax
    a24a:	0f be c0             	movsbl %al,%eax
    a24d:	31 c8                	xor    %ecx,%eax
    a24f:	89 c2                	mov    %eax,%edx
    a251:	48 8b 05 60 eb 00 00 	mov    0xeb60(%rip),%rax        # 18db8 <g_665>
    a258:	0f b6 00             	movzbl (%rax),%eax
    a25b:	0f b6 c0             	movzbl %al,%eax
    a25e:	89 d6                	mov    %edx,%esi
    a260:	89 c7                	mov    %eax,%edi
    a262:	e8 e5 b9 ff ff       	callq  5c4c <safe_lshift_func_uint8_t_u_u>
    a267:	48 c7 c2 ff ff ff ff 	mov    $0xffffffffffffffff,%rdx
    a26e:	48 8b 85 f8 f3 ff ff 	mov    -0xc08(%rbp),%rax
    a275:	8b 00                	mov    (%rax),%eax
    a277:	21 c2                	and    %eax,%edx
    a279:	48 8b 85 f8 f3 ff ff 	mov    -0xc08(%rbp),%rax
    a280:	89 10                	mov    %edx,(%rax)
    a282:	8b 85 d8 f2 ff ff    	mov    -0xd28(%rbp),%eax
    a288:	89 85 f0 f2 ff ff    	mov    %eax,-0xd10(%rbp)
    a28e:	48 8b 85 f8 f3 ff ff 	mov    -0xc08(%rbp),%rax
    a295:	8b 00                	mov    (%rax),%eax
    a297:	98                   	cwtl   
    a298:	8b 95 f0 f2 ff ff    	mov    -0xd10(%rbp),%edx
    a29e:	89 d6                	mov    %edx,%esi
    a2a0:	89 c7                	mov    %eax,%edi
    a2a2:	e8 83 b2 ff ff       	callq  552a <safe_rshift_func_int16_t_s_s>
    a2a7:	48 8b 85 f8 f3 ff ff 	mov    -0xc08(%rbp),%rax
    a2ae:	8b 00                	mov    (%rax),%eax
    a2b0:	98                   	cwtl   
    a2b1:	be 0b 00 00 00       	mov    $0xb,%esi
    a2b6:	89 c7                	mov    %eax,%edi
    a2b8:	e8 6d b2 ff ff       	callq  552a <safe_rshift_func_int16_t_s_s>
    a2bd:	48 8b 85 f8 f3 ff ff 	mov    -0xc08(%rbp),%rax
    a2c4:	8b 00                	mov    (%rax),%eax
    a2c6:	89 c6                	mov    %eax,%esi
    a2c8:	bf d8 07 67 1c       	mov    $0x1c6707d8,%edi
    a2cd:	e8 53 bc ff ff       	callq  5f25 <safe_div_func_uint32_t_u_u>
    a2d2:	85 c0                	test   %eax,%eax
    a2d4:	75 09                	jne    a2df <func_1+0x3b2a>
    a2d6:	83 bd dc f2 ff ff 00 	cmpl   $0x0,-0xd24(%rbp)
    a2dd:	74 08                	je     a2e7 <func_1+0x3b32>
    a2df:	41 bc 01 00 00 00    	mov    $0x1,%r12d
    a2e5:	eb 06                	jmp    a2ed <func_1+0x3b38>
    a2e7:	41 bc 00 00 00 00    	mov    $0x0,%r12d
    a2ed:	48 8b 85 f8 f3 ff ff 	mov    -0xc08(%rbp),%rax
    a2f4:	8b 00                	mov    (%rax),%eax
    a2f6:	48 63 d8             	movslq %eax,%rbx
    a2f9:	48 8d 05 20 ec 00 00 	lea    0xec20(%rip),%rax        # 18f20 <g_728>
    a300:	48 39 85 d8 f3 ff ff 	cmp    %rax,-0xc28(%rbp)
    a307:	0f 95 c0             	setne  %al
    a30a:	0f b6 c0             	movzbl %al,%eax
    a30d:	ba ff ff ff ff       	mov    $0xffffffff,%edx
    a312:	39 d0                	cmp    %edx,%eax
    a314:	0f 92 c1             	setb   %cl
    a317:	0f b7 05 be d0 00 00 	movzwl 0xd0be(%rip),%eax        # 173dc <g_234>
    a31e:	0f b7 d0             	movzwl %ax,%edx
    a321:	0f b7 05 b4 d0 00 00 	movzwl 0xd0b4(%rip),%eax        # 173dc <g_234>
    a328:	0f b7 c0             	movzwl %ax,%eax
    a32b:	8d 70 01             	lea    0x1(%rax),%esi
    a32e:	41 89 c8             	mov    %ecx,%r8d
    a331:	48 63 fe             	movslq %esi,%rdi
    a334:	48 63 ca             	movslq %edx,%rcx
    a337:	48 89 c8             	mov    %rcx,%rax
    a33a:	48 c1 e0 02          	shl    $0x2,%rax
    a33e:	48 01 c8             	add    %rcx,%rax
    a341:	48 8d 0c 38          	lea    (%rax,%rdi,1),%rcx
    a345:	48 8d 05 74 da 00 00 	lea    0xda74(%rip),%rax        # 17dc0 <g_1039>
    a34c:	48 01 c8             	add    %rcx,%rax
    a34f:	44 88 00             	mov    %r8b,(%rax)
    a352:	48 63 ce             	movslq %esi,%rcx
    a355:	48 63 d2             	movslq %edx,%rdx
    a358:	48 89 d0             	mov    %rdx,%rax
    a35b:	48 c1 e0 02          	shl    $0x2,%rax
    a35f:	48 01 d0             	add    %rdx,%rax
    a362:	48 8d 14 08          	lea    (%rax,%rcx,1),%rdx
    a366:	48 8d 05 53 da 00 00 	lea    0xda53(%rip),%rax        # 17dc0 <g_1039>
    a36d:	48 01 d0             	add    %rdx,%rax
    a370:	0f b6 00             	movzbl (%rax),%eax
    a373:	0f be c0             	movsbl %al,%eax
    a376:	be 03 00 00 00       	mov    $0x3,%esi
    a37b:	89 c7                	mov    %eax,%edi
    a37d:	e8 70 ae ff ff       	callq  51f2 <safe_sub_func_int8_t_s_s>
    a382:	0f be c0             	movsbl %al,%eax
    a385:	31 85 88 f2 ff ff    	xor    %eax,-0xd78(%rbp)
    a38b:	8b 85 88 f2 ff ff    	mov    -0xd78(%rbp),%eax
    a391:	0f be c0             	movsbl %al,%eax
    a394:	be 07 00 00 00       	mov    $0x7,%esi
    a399:	89 c7                	mov    %eax,%edi
    a39b:	e8 91 ae ff ff       	callq  5231 <safe_mod_func_int8_t_s_s>
    a3a0:	48 0f be c0          	movsbq %al,%rax
    a3a4:	48 89 de             	mov    %rbx,%rsi
    a3a7:	48 89 c7             	mov    %rax,%rdi
    a3aa:	e8 05 b6 ff ff       	callq  59b4 <safe_mod_func_int64_t_s_s>
    a3af:	48 85 c0             	test   %rax,%rax
    a3b2:	74 10                	je     a3c4 <func_1+0x3c0f>
    a3b4:	83 bd 88 f2 ff ff 00 	cmpl   $0x0,-0xd78(%rbp)
    a3bb:	74 07                	je     a3c4 <func_1+0x3c0f>
    a3bd:	b8 01 00 00 00       	mov    $0x1,%eax
    a3c2:	eb 05                	jmp    a3c9 <func_1+0x3c14>
    a3c4:	b8 00 00 00 00       	mov    $0x0,%eax
    a3c9:	41 39 c4             	cmp    %eax,%r12d
    a3cc:	0f 9d c0             	setge  %al
    a3cf:	0f b6 d0             	movzbl %al,%edx
    a3d2:	0f bf 85 4c f2 ff ff 	movswl -0xdb4(%rbp),%eax
    a3d9:	39 c2                	cmp    %eax,%edx
    a3db:	0f 95 c0             	setne  %al
    a3de:	0f b6 c0             	movzbl %al,%eax
    a3e1:	89 85 80 f2 ff ff    	mov    %eax,-0xd80(%rbp)
    a3e7:	c7 05 3b d2 00 00 00 	movl   $0x0,0xd23b(%rip)        # 1762c <g_853>
    a3ee:	00 00 00 
    a3f1:	90                   	nop
    a3f2:	8b 05 34 d2 00 00    	mov    0xd234(%rip),%eax        # 1762c <g_853>
    a3f8:	83 f8 03             	cmp    $0x3,%eax
    a3fb:	0f 8f 7b 01 00 00    	jg     a57c <func_1+0x3dc7>
    a401:	48 8d 05 10 d2 00 00 	lea    0xd210(%rip),%rax        # 17618 <g_847>
    a408:	48 89 85 28 f4 ff ff 	mov    %rax,-0xbd8(%rbp)
    a40f:	48 c7 85 30 f4 ff ff 	movq   $0x0,-0xbd0(%rbp)
    a416:	00 00 00 00 
    a41a:	48 c7 85 38 f4 ff ff 	movq   $0x0,-0xbc8(%rbp)
    a421:	00 00 00 00 
    a425:	48 8d 05 70 d9 00 00 	lea    0xd970(%rip),%rax        # 17d9c <g_881+0x1c>
    a42c:	48 89 85 40 f4 ff ff 	mov    %rax,-0xbc0(%rbp)
    a433:	48 c7 85 48 f4 ff ff 	movq   $0x0,-0xbb8(%rbp)
    a43a:	00 00 00 00 
    a43e:	48 8d 05 c3 d1 00 00 	lea    0xd1c3(%rip),%rax        # 17608 <g_842>
    a445:	48 89 85 50 f4 ff ff 	mov    %rax,-0xbb0(%rbp)
    a44c:	48 8d 05 fd d8 00 00 	lea    0xd8fd(%rip),%rax        # 17d50 <g_880+0x10>
    a453:	48 89 85 58 f4 ff ff 	mov    %rax,-0xba8(%rbp)
    a45a:	48 8d 05 cf d8 00 00 	lea    0xd8cf(%rip),%rax        # 17d30 <g_879>
    a461:	48 89 85 60 f4 ff ff 	mov    %rax,-0xba0(%rbp)
    a468:	48 8d 05 bd cb 00 00 	lea    0xcbbd(%rip),%rax        # 1702c <g_20>
    a46f:	48 89 85 68 f4 ff ff 	mov    %rax,-0xb98(%rbp)
    a476:	48 8d 05 b7 d1 00 00 	lea    0xd1b7(%rip),%rax        # 17634 <g_855>
    a47d:	48 89 85 70 f4 ff ff 	mov    %rax,-0xb90(%rbp)
    a484:	48 8d 05 21 d2 00 00 	lea    0xd221(%rip),%rax        # 176ac <g_866>
    a48b:	48 89 85 78 f4 ff ff 	mov    %rax,-0xb88(%rbp)
    a492:	48 c7 85 80 f4 ff ff 	movq   $0x0,-0xb80(%rbp)
    a499:	00 00 00 00 
    a49d:	48 8d 05 1c d8 00 00 	lea    0xd81c(%rip),%rax        # 17cc0 <g_878+0x20>
    a4a4:	48 89 85 88 f4 ff ff 	mov    %rax,-0xb78(%rbp)
    a4ab:	48 8d 05 b2 d5 00 00 	lea    0xd5b2(%rip),%rax        # 17a64 <g_873+0x2c4>
    a4b2:	48 89 85 90 f4 ff ff 	mov    %rax,-0xb70(%rbp)
    a4b9:	48 8d 05 28 fb 00 00 	lea    0xfb28(%rip),%rax        # 19fe8 <g_832>
    a4c0:	48 89 85 98 f4 ff ff 	mov    %rax,-0xb68(%rbp)
    a4c7:	48 8d 05 5a d8 00 00 	lea    0xd85a(%rip),%rax        # 17d28 <g_878+0x88>
    a4ce:	48 89 85 a0 f4 ff ff 	mov    %rax,-0xb60(%rbp)
    a4d5:	48 8d 05 50 fb 00 00 	lea    0xfb50(%rip),%rax        # 1a02c <g_856>
    a4dc:	48 89 85 a8 f4 ff ff 	mov    %rax,-0xb58(%rbp)
    a4e3:	48 8d 05 aa d7 00 00 	lea    0xd7aa(%rip),%rax        # 17c94 <g_877+0x14>
    a4ea:	48 89 85 b0 f4 ff ff 	mov    %rax,-0xb50(%rbp)
    a4f1:	48 8d 05 2c d1 00 00 	lea    0xd12c(%rip),%rax        # 17624 <g_850>
    a4f8:	48 89 85 b8 f4 ff ff 	mov    %rax,-0xb48(%rbp)
    a4ff:	48 c7 85 c0 f4 ff ff 	movq   $0x0,-0xb40(%rbp)
    a506:	00 00 00 00 
    a50a:	48 8d 05 63 d1 00 00 	lea    0xd163(%rip),%rax        # 17674 <g_861>
    a511:	48 89 85 c8 f4 ff ff 	mov    %rax,-0xb38(%rbp)
    a518:	48 8d 05 81 d5 00 00 	lea    0xd581(%rip),%rax        # 17aa0 <g_874>
    a51f:	48 89 85 d0 f4 ff ff 	mov    %rax,-0xb30(%rbp)
    a526:	48 8d 05 e7 d0 00 00 	lea    0xd0e7(%rip),%rax        # 17614 <g_846>
    a52d:	48 89 85 d8 f4 ff ff 	mov    %rax,-0xb28(%rbp)
    a534:	48 8d 85 f0 fc ff ff 	lea    -0x310(%rbp),%rax
    a53b:	48 8d 15 be d8 00 00 	lea    0xd8be(%rip),%rdx        # 17e00 <g_1634+0x18>
    a542:	b9 23 00 00 00       	mov    $0x23,%ecx
    a547:	48 89 c7             	mov    %rax,%rdi
    a54a:	48 89 d6             	mov    %rdx,%rsi
    a54d:	f3 48 a5             	rep movsq %ds:(%rsi),%es:(%rdi)
    a550:	c7 85 fc f2 ff ff 06 	movl   $0x6,-0xd04(%rbp)
    a557:	00 00 00 
    a55a:	66 83 ad 46 f2 ff ff 	subw   $0x1,-0xdba(%rbp)
    a561:	01 
    a562:	8b 85 e0 f6 ff ff    	mov    -0x920(%rbp),%eax
    a568:	85 c0                	test   %eax,%eax
    a56a:	75 0f                	jne    a57b <func_1+0x3dc6>
    a56c:	48 8b 05 2d ed 00 00 	mov    0xed2d(%rip),%rax        # 192a0 <g_1594>
    a573:	0f b6 00             	movzbl (%rax),%eax
    a576:	e9 da 02 00 00       	jmpq   a855 <func_1+0x40a0>
    a57b:	90                   	nop
    a57c:	0f b7 05 59 ce 00 00 	movzwl 0xce59(%rip),%eax        # 173dc <g_234>
    a583:	83 c0 01             	add    $0x1,%eax
    a586:	66 89 05 4f ce 00 00 	mov    %ax,0xce4f(%rip)        # 173dc <g_234>
    a58d:	0f b7 05 48 ce 00 00 	movzwl 0xce48(%rip),%eax        # 173dc <g_234>
    a594:	66 83 f8 03          	cmp    $0x3,%ax
    a598:	0f 86 b5 f9 ff ff    	jbe    9f53 <func_1+0x379e>
    a59e:	8b 05 68 d0 00 00    	mov    0xd068(%rip),%eax        # 1760c <g_844>
    a5a4:	98                   	cwtl   
    a5a5:	be 01 00 00 00       	mov    $0x1,%esi
    a5aa:	89 c7                	mov    %eax,%edi
    a5ac:	e8 22 ae ff ff       	callq  53d3 <safe_sub_func_int16_t_s_s>
    a5b1:	98                   	cwtl   
    a5b2:	89 05 54 d0 00 00    	mov    %eax,0xd054(%rip)        # 1760c <g_844>
    a5b8:	8b 05 4e d0 00 00    	mov    0xd04e(%rip),%eax        # 1760c <g_844>
    a5be:	83 f8 fb             	cmp    $0xfffffffb,%eax
    a5c1:	0f 8c ba f7 ff ff    	jl     9d81 <func_1+0x35cc>
    a5c7:	48 8b 85 80 f3 ff ff 	mov    -0xc80(%rbp),%rax
    a5ce:	8b 10                	mov    (%rax),%edx
    a5d0:	48 83 bd b8 f3 ff ff 	cmpq   $0x0,-0xc48(%rbp)
    a5d7:	00 
    a5d8:	0f 94 c0             	sete   %al
    a5db:	0f b6 c0             	movzbl %al,%eax
    a5de:	21 c2                	and    %eax,%edx
    a5e0:	48 8b 85 80 f3 ff ff 	mov    -0xc80(%rbp),%rax
    a5e7:	89 10                	mov    %edx,(%rax)
    a5e9:	48 8b 05 28 f5 00 00 	mov    0xf528(%rip),%rax        # 19b18 <g_1686>
    a5f0:	0f b7 85 b0 f6 ff ff 	movzwl -0x950(%rbp),%eax
    a5f7:	48 0f bf d0          	movswq %ax,%rdx
    a5fb:	48 8b 85 e0 f3 ff ff 	mov    -0xc20(%rbp),%rax
    a602:	48 89 10             	mov    %rdx,(%rax)
    a605:	48 8b 85 e0 f3 ff ff 	mov    -0xc20(%rbp),%rax
    a60c:	48 8b 00             	mov    (%rax),%rax
    a60f:	89 85 d8 f2 ff ff    	mov    %eax,-0xd28(%rbp)
    a615:	8b 85 d8 f2 ff ff    	mov    -0xd28(%rbp),%eax
    a61b:	48 98                	cltq   
    a61d:	48 89 05 b4 d7 00 00 	mov    %rax,0xd7b4(%rip)        # 17dd8 <g_1415>
    a624:	c7 85 48 f8 ff ff a6 	movl   $0x79a6,-0x7b8(%rbp)
    a62b:	79 00 00 
    a62e:	83 bd d0 f2 ff ff 00 	cmpl   $0x0,-0xd30(%rbp)
    a635:	0f 94 c0             	sete   %al
    a638:	0f b6 d0             	movzbl %al,%edx
    a63b:	0f bf 85 4a f2 ff ff 	movswl -0xdb6(%rbp),%eax
    a642:	39 c2                	cmp    %eax,%edx
    a644:	0f 94 c0             	sete   %al
    a647:	0f b6 c0             	movzbl %al,%eax
    a64a:	be cb 00 00 00       	mov    $0xcb,%esi
    a64f:	89 c7                	mov    %eax,%edi
    a651:	e8 04 b5 ff ff       	callq  5b5a <safe_add_func_uint8_t_u_u>
    a656:	0f b6 c0             	movzbl %al,%eax
    a659:	48 be 34 39 9a af 7c 	movabs $0xe371707caf9a3934,%rsi
    a660:	70 71 e3 
    a663:	48 89 c7             	mov    %rax,%rdi
    a666:	e8 3d b2 ff ff       	callq  58a8 <safe_sub_func_int64_t_s_s>
    a66b:	8b 85 cc f2 ff ff    	mov    -0xd34(%rbp),%eax
    a671:	98                   	cwtl   
    a672:	be 01 00 00 00       	mov    $0x1,%esi
    a677:	89 c7                	mov    %eax,%edi
    a679:	e8 77 ad ff ff       	callq  53f5 <safe_mul_func_int16_t_s_s>
    a67e:	48 0f bf c0          	movswq %ax,%rax
    a682:	48 be 6e 36 f2 bc 29 	movabs $0x1abe5729bcf2366e,%rsi
    a689:	57 be 1a 
    a68c:	48 89 c7             	mov    %rax,%rdi
    a68f:	e8 14 b2 ff ff       	callq  58a8 <safe_sub_func_int64_t_s_s>
    a694:	48 8b 05 a5 ee 00 00 	mov    0xeea5(%rip),%rax        # 19540 <g_1640>
    a69b:	8b 00                	mov    (%rax),%eax
    a69d:	85 c0                	test   %eax,%eax
    a69f:	75 11                	jne    a6b2 <func_1+0x3efd>
    a6a1:	48 8b 05 98 ee 00 00 	mov    0xee98(%rip),%rax        # 19540 <g_1640>
    a6a8:	8b 00                	mov    (%rax),%eax
    a6aa:	85 c0                	test   %eax,%eax
    a6ac:	0f 84 8e 01 00 00    	je     a840 <func_1+0x408b>
    a6b2:	c6 85 3c f2 ff ff 3c 	movb   $0x3c,-0xdc4(%rbp)
    a6b9:	c7 85 e0 f2 ff ff c7 	movl   $0x1ec122c7,-0xd20(%rbp)
    a6c0:	22 c1 1e 
    a6c3:	8b 9d dc f2 ff ff    	mov    -0xd24(%rbp),%ebx
    a6c9:	48 8b 05 10 ef 00 00 	mov    0xef10(%rip),%rax        # 195e0 <g_1667>
    a6d0:	0f b6 00             	movzbl (%rax),%eax
    a6d3:	44 0f b6 e0          	movzbl %al,%r12d
    a6d7:	48 8b 85 80 f3 ff ff 	mov    -0xc80(%rbp),%rax
    a6de:	8b 00                	mov    (%rax),%eax
    a6e0:	41 89 c6             	mov    %eax,%r14d
    a6e3:	44 0f be ad 3c f2 ff 	movsbl -0xdc4(%rbp),%r13d
    a6ea:	ff 
    a6eb:	48 8b 85 80 f3 ff ff 	mov    -0xc80(%rbp),%rax
    a6f2:	8b 00                	mov    (%rax),%eax
    a6f4:	41 89 c7             	mov    %eax,%r15d
    a6f7:	48 0f be 85 3c f2 ff 	movsbq -0xdc4(%rbp),%rax
    a6fe:	ff 
    a6ff:	48 89 c6             	mov    %rax,%rsi
    a702:	48 bf 94 00 bc d3 98 	movabs $0x36a04298d3bc0094,%rdi
    a709:	42 a0 36 
    a70c:	e8 3a b9 ff ff       	callq  604b <safe_sub_func_uint64_t_u_u>
    a711:	89 c6                	mov    %eax,%esi
    a713:	bf f8 ff ff ff       	mov    $0xfffffff8,%edi
    a718:	e8 84 ab ff ff       	callq  52a1 <safe_lshift_func_int8_t_s_s>
    a71d:	c0 e8 07             	shr    $0x7,%al
    a720:	0f b6 c0             	movzbl %al,%eax
    a723:	89 85 dc f5 ff ff    	mov    %eax,-0xa24(%rbp)
    a729:	8b 85 dc f5 ff ff    	mov    -0xa24(%rbp),%eax
    a72f:	0f b7 c0             	movzwl %ax,%eax
    a732:	be e3 a2 00 00       	mov    $0xa2e3,%esi
    a737:	89 c7                	mov    %eax,%edi
    a739:	e8 1e b6 ff ff       	callq  5d5c <safe_mod_func_uint16_t_u_u>
    a73e:	98                   	cwtl   
    a73f:	44 89 fe             	mov    %r15d,%esi
    a742:	89 c7                	mov    %eax,%edi
    a744:	e8 1a ae ff ff       	callq  5563 <safe_rshift_func_int16_t_s_u>
    a749:	0f b7 c0             	movzwl %ax,%eax
    a74c:	be 27 e3 00 00       	mov    $0xe327,%esi
    a751:	89 c7                	mov    %eax,%edi
    a753:	e8 e5 b5 ff ff       	callq  5d3d <safe_mul_func_uint16_t_u_u>
    a758:	f7 d0                	not    %eax
    a75a:	0f b6 c0             	movzbl %al,%eax
    a75d:	be 02 00 00 00       	mov    $0x2,%esi
    a762:	89 c7                	mov    %eax,%edi
    a764:	e8 9c b4 ff ff       	callq  5c05 <safe_lshift_func_uint8_t_u_s>
    a769:	0f b6 c0             	movzbl %al,%eax
    a76c:	be 0e 00 00 00       	mov    $0xe,%esi
    a771:	89 c7                	mov    %eax,%edi
    a773:	e8 b2 ad ff ff       	callq  552a <safe_rshift_func_int16_t_s_s>
    a778:	0f be c0             	movsbl %al,%eax
    a77b:	44 89 ee             	mov    %r13d,%esi
    a77e:	89 c7                	mov    %eax,%edi
    a780:	e8 8d aa ff ff       	callq  5212 <safe_mul_func_int8_t_s_s>
    a785:	0f be c0             	movsbl %al,%eax
    a788:	44 89 f6             	mov    %r14d,%esi
    a78b:	89 c7                	mov    %eax,%edi
    a78d:	e8 d1 ad ff ff       	callq  5563 <safe_rshift_func_int16_t_s_u>
    a792:	98                   	cwtl   
    a793:	be 07 00 00 00       	mov    $0x7,%esi
    a798:	89 c7                	mov    %eax,%edi
    a79a:	e8 42 ad ff ff       	callq  54e1 <safe_lshift_func_int16_t_s_u>
    a79f:	66 85 c0             	test   %ax,%ax
    a7a2:	44 89 e6             	mov    %r12d,%esi
    a7a5:	bf 00 00 00 00       	mov    $0x0,%edi
    a7aa:	e8 0f b5 ff ff       	callq  5cbe <safe_rshift_func_uint8_t_u_u>
    a7af:	0f be c0             	movsbl %al,%eax
    a7b2:	be 07 00 00 00       	mov    $0x7,%esi
    a7b7:	89 c7                	mov    %eax,%edi
    a7b9:	e8 30 ab ff ff       	callq  52ee <safe_lshift_func_int8_t_s_u>
    a7be:	0f be c0             	movsbl %al,%eax
    a7c1:	89 de                	mov    %ebx,%esi
    a7c3:	89 c7                	mov    %eax,%edi
    a7c5:	e8 a2 ab ff ff       	callq  536c <safe_rshift_func_int8_t_s_u>
    a7ca:	0f be c0             	movsbl %al,%eax
    a7cd:	39 85 80 f2 ff ff    	cmp    %eax,-0xd80(%rbp)
    a7d3:	0f 9e c0             	setle  %al
    a7d6:	0f b6 c0             	movzbl %al,%eax
    a7d9:	be 9e ff ff ff       	mov    $0xffffff9e,%esi
    a7de:	89 c7                	mov    %eax,%edi
    a7e0:	e8 2d aa ff ff       	callq  5212 <safe_mul_func_int8_t_s_s>
    a7e5:	be 0a 00 00 00       	mov    $0xa,%esi
    a7ea:	bf 01 00 00 00       	mov    $0x1,%edi
    a7ef:	e8 ed ac ff ff       	callq  54e1 <safe_lshift_func_int16_t_s_u>
    a7f4:	0f be c0             	movsbl %al,%eax
    a7f7:	be 00 00 00 00       	mov    $0x0,%esi
    a7fc:	89 c7                	mov    %eax,%edi
    a7fe:	e8 0f aa ff ff       	callq  5212 <safe_mul_func_int8_t_s_s>
    a803:	8b 05 0b d3 00 00    	mov    0xd30b(%rip),%eax        # 17b14 <g_876+0x14>
    a809:	23 85 d0 f2 ff ff    	and    -0xd30(%rbp),%eax
    a80f:	39 85 e0 f2 ff ff    	cmp    %eax,-0xd20(%rbp)
    a815:	0f 94 c0             	sete   %al
    a818:	0f b6 d0             	movzbl %al,%edx
    a81b:	8b 85 44 f8 ff ff    	mov    -0x7bc(%rbp),%eax
    a821:	39 c2                	cmp    %eax,%edx
    a823:	0f 9c c0             	setl   %al
    a826:	0f b6 c0             	movzbl %al,%eax
    a829:	89 85 24 f7 ff ff    	mov    %eax,-0x8dc(%rbp)
    a82f:	48 8b 05 42 ea 00 00 	mov    0xea42(%rip),%rax        # 19278 <g_1072>
    a836:	8b 95 24 f7 ff ff    	mov    -0x8dc(%rbp),%edx
    a83c:	89 10                	mov    %edx,(%rax)
    a83e:	eb 0c                	jmp    a84c <func_1+0x4097>
    a840:	48 8d 05 7d d5 00 00 	lea    0xd57d(%rip),%rax        # 17dc4 <g_1039+0x4>
    a847:	0f b6 00             	movzbl (%rax),%eax
    a84a:	eb 09                	jmp    a855 <func_1+0x40a0>
    a84c:	48 8b 85 80 f3 ff ff 	mov    -0xc80(%rbp),%rax
    a853:	8b 00                	mov    (%rax),%eax
    a855:	48 8b 5d c8          	mov    -0x38(%rbp),%rbx
    a859:	64 48 33 1c 25 28 00 	xor    %fs:0x28,%rbx
    a860:	00 00 
    a862:	74 05                	je     a869 <func_1+0x40b4>
    a864:	e8 07 a8 ff ff       	callq  5070 <__stack_chk_fail@plt>
    a869:	48 81 c4 b8 0d 00 00 	add    $0xdb8,%rsp
    a870:	5b                   	pop    %rbx
    a871:	41 5c                	pop    %r12
    a873:	41 5d                	pop    %r13
    a875:	41 5e                	pop    %r14
    a877:	41 5f                	pop    %r15
    a879:	5d                   	pop    %rbp
    a87a:	c3                   	retq   

000000000000a87b <func_2>:
    a87b:	f3 0f 1e fa          	endbr64 
    a87f:	55                   	push   %rbp
    a880:	48 89 e5             	mov    %rsp,%rbp
    a883:	41 57                	push   %r15
    a885:	41 56                	push   %r14
    a887:	41 55                	push   %r13
    a889:	41 54                	push   %r12
    a88b:	53                   	push   %rbx
    a88c:	48 81 ec 58 0e 00 00 	sub    $0xe58,%rsp
    a893:	89 f8                	mov    %edi,%eax
    a895:	89 b5 98 f1 ff ff    	mov    %esi,-0xe68(%rbp)
    a89b:	89 95 94 f1 ff ff    	mov    %edx,-0xe6c(%rbp)
    a8a1:	88 85 9c f1 ff ff    	mov    %al,-0xe64(%rbp)
    a8a7:	64 48 8b 04 25 28 00 	mov    %fs:0x28,%rax
    a8ae:	00 00 
    a8b0:	48 89 45 c8          	mov    %rax,-0x38(%rbp)
    a8b4:	31 c0                	xor    %eax,%eax
    a8b6:	48 c7 85 c8 f2 ff ff 	movq   $0xfffffffffffffffd,-0xd38(%rbp)
    a8bd:	fd ff ff ff 
    a8c1:	c7 85 dc f1 ff ff 01 	movl   $0x1,-0xe24(%rbp)
    a8c8:	00 00 00 
    a8cb:	c7 85 d8 f1 ff ff 01 	movl   $0x1,-0xe28(%rbp)
    a8d2:	00 00 00 
    a8d5:	48 c7 85 d0 f2 ff ff 	movq   $0xfffffffffffffffc,-0xd30(%rbp)
    a8dc:	fc ff ff ff 
    a8e0:	c7 85 e0 f1 ff ff 50 	movl   $0x3bb9d050,-0xe20(%rbp)
    a8e7:	d0 b9 3b 
    a8ea:	48 8d 85 b0 f8 ff ff 	lea    -0x750(%rbp),%rax
    a8f1:	48 8d 15 08 8f 00 00 	lea    0x8f08(%rip),%rdx        # 13800 <g_1778+0x7a4>
    a8f8:	b9 64 00 00 00       	mov    $0x64,%ecx
    a8fd:	48 89 c7             	mov    %rax,%rdi
    a900:	48 89 d6             	mov    %rdx,%rsi
    a903:	f3 48 a5             	rep movsq %ds:(%rsi),%es:(%rdi)
    a906:	48 c7 85 40 f2 ff ff 	movq   $0x0,-0xdc0(%rbp)
    a90d:	00 00 00 00 
    a911:	48 c7 85 c0 f2 ff ff 	movq   $0x0,-0xd40(%rbp)
    a918:	00 00 00 00 
    a91c:	48 8d 85 d0 f5 ff ff 	lea    -0xa30(%rbp),%rax
    a923:	48 8d 15 f6 d5 00 00 	lea    0xd5f6(%rip),%rdx        # 17f20 <g_1634+0x138>
    a92a:	b9 2d 00 00 00       	mov    $0x2d,%ecx
    a92f:	48 89 c7             	mov    %rax,%rdi
    a932:	48 89 d6             	mov    %rdx,%rsi
    a935:	f3 48 a5             	rep movsq %ds:(%rsi),%es:(%rdi)
    a938:	48 8d 05 79 c9 00 00 	lea    0xc979(%rip),%rax        # 172b8 <g_162>
    a93f:	48 89 85 48 f2 ff ff 	mov    %rax,-0xdb8(%rbp)
    a946:	48 8d 85 48 f2 ff ff 	lea    -0xdb8(%rbp),%rax
    a94d:	48 89 85 50 f2 ff ff 	mov    %rax,-0xdb0(%rbp)
    a954:	48 8d 85 50 f2 ff ff 	lea    -0xdb0(%rbp),%rax
    a95b:	48 89 85 d8 f2 ff ff 	mov    %rax,-0xd28(%rbp)
    a962:	c6 85 b0 f1 ff ff f8 	movb   $0xf8,-0xe50(%rbp)
    a969:	c6 85 b1 f1 ff ff 3d 	movb   $0x3d,-0xe4f(%rbp)
    a970:	c7 85 e4 f1 ff ff 06 	movl   $0x6,-0xe1c(%rbp)
    a977:	00 00 00 
    a97a:	48 8d 85 40 f7 ff ff 	lea    -0x8c0(%rbp),%rax
    a981:	48 8d 15 18 d7 00 00 	lea    0xd718(%rip),%rdx        # 180a0 <g_1634+0x2b8>
    a988:	b9 2d 00 00 00       	mov    $0x2d,%ecx
    a98d:	48 89 c7             	mov    %rax,%rdi
    a990:	48 89 d6             	mov    %rdx,%rsi
    a993:	f3 48 a5             	rep movsq %ds:(%rsi),%es:(%rdi)
    a996:	48 8d 85 40 f7 ff ff 	lea    -0x8c0(%rbp),%rax
    a99d:	48 83 c0 18          	add    $0x18,%rax
    a9a1:	48 89 85 e0 f2 ff ff 	mov    %rax,-0xd20(%rbp)
    a9a8:	66 c7 85 b8 f1 ff ff 	movw   $0xfff7,-0xe48(%rbp)
    a9af:	f7 ff 
    a9b1:	48 8d 05 d8 e1 00 00 	lea    0xe1d8(%rip),%rax        # 18b90 <g_221+0x10>
    a9b8:	48 89 85 58 f2 ff ff 	mov    %rax,-0xda8(%rbp)
    a9bf:	48 8d 85 58 f2 ff ff 	lea    -0xda8(%rbp),%rax
    a9c6:	48 89 85 e8 f2 ff ff 	mov    %rax,-0xd18(%rbp)
    a9cd:	c7 05 35 cc 00 00 01 	movl   $0x1,0xcc35(%rip)        # 1760c <g_844>
    a9d4:	00 00 00 
    a9d7:	90                   	nop
    a9d8:	8b 05 2e cc 00 00    	mov    0xcc2e(%rip),%eax        # 1760c <g_844>
    a9de:	85 c0                	test   %eax,%eax
    a9e0:	78 56                	js     aa38 <func_2+0x1bd>
    a9e2:	48 c7 05 db f5 00 00 	movq   $0x3,0xf5db(%rip)        # 19fc8 <g_28>
    a9e9:	03 00 00 00 
    a9ed:	90                   	nop
    a9ee:	48 8b 05 d3 f5 00 00 	mov    0xf5d3(%rip),%rax        # 19fc8 <g_28>
    a9f5:	48 83 f8 09          	cmp    $0x9,%rax
    a9f9:	7f 30                	jg     aa2b <func_2+0x1b0>
    a9fb:	8b 15 0b cc 00 00    	mov    0xcc0b(%rip),%edx        # 1760c <g_844>
    aa01:	8b 05 05 cc 00 00    	mov    0xcc05(%rip),%eax        # 1760c <g_844>
    aa07:	48 98                	cltq   
    aa09:	48 63 d2             	movslq %edx,%rdx
    aa0c:	48 01 d2             	add    %rdx,%rdx
    aa0f:	48 01 d0             	add    %rdx,%rax
    aa12:	48 8d 14 85 00 00 00 	lea    0x0(,%rax,4),%rdx
    aa19:	00 
    aa1a:	48 8d 05 ff c9 00 00 	lea    0xc9ff(%rip),%rax        # 17420 <g_838>
    aa21:	8b 04 02             	mov    (%rdx,%rax,1),%eax
    aa24:	48 98                	cltq   
    aa26:	e9 62 23 00 00       	jmpq   cd8d <func_2+0x2512>
    aa2b:	8b 85 94 f1 ff ff    	mov    -0xe6c(%rbp),%eax
    aa31:	89 c0                	mov    %eax,%eax
    aa33:	e9 55 23 00 00       	jmpq   cd8d <func_2+0x2512>
    aa38:	c7 05 5e d0 00 00 00 	movl   $0x0,0xd05e(%rip)        # 17aa0 <g_874>
    aa3f:	00 00 00 
    aa42:	e9 30 23 00 00       	jmpq   cd77 <func_2+0x24fc>
    aa47:	48 8d 05 c2 cb 00 00 	lea    0xcbc2(%rip),%rax        # 17610 <g_845>
    aa4e:	48 89 85 60 f2 ff ff 	mov    %rax,-0xda0(%rbp)
    aa55:	48 8d 05 5c c8 00 00 	lea    0xc85c(%rip),%rax        # 172b8 <g_162>
    aa5c:	48 89 85 68 f2 ff ff 	mov    %rax,-0xd98(%rbp)
    aa63:	48 8d 85 68 f2 ff ff 	lea    -0xd98(%rbp),%rax
    aa6a:	48 89 85 70 f2 ff ff 	mov    %rax,-0xd90(%rbp)
    aa71:	48 8d 05 30 e1 00 00 	lea    0xe130(%rip),%rax        # 18ba8 <g_409+0x8>
    aa78:	48 89 85 78 f2 ff ff 	mov    %rax,-0xd88(%rbp)
    aa7f:	48 8d 85 78 f2 ff ff 	lea    -0xd88(%rbp),%rax
    aa86:	48 89 85 10 f4 ff ff 	mov    %rax,-0xbf0(%rbp)
    aa8d:	48 8d 85 78 f2 ff ff 	lea    -0xd88(%rbp),%rax
    aa94:	48 89 85 18 f4 ff ff 	mov    %rax,-0xbe8(%rbp)
    aa9b:	48 8d 85 78 f2 ff ff 	lea    -0xd88(%rbp),%rax
    aaa2:	48 89 85 20 f4 ff ff 	mov    %rax,-0xbe0(%rbp)
    aaa9:	48 8d 85 78 f2 ff ff 	lea    -0xd88(%rbp),%rax
    aab0:	48 89 85 28 f4 ff ff 	mov    %rax,-0xbd8(%rbp)
    aab7:	48 8d 85 78 f2 ff ff 	lea    -0xd88(%rbp),%rax
    aabe:	48 89 85 30 f4 ff ff 	mov    %rax,-0xbd0(%rbp)
    aac5:	48 8d 85 78 f2 ff ff 	lea    -0xd88(%rbp),%rax
    aacc:	48 89 85 38 f4 ff ff 	mov    %rax,-0xbc8(%rbp)
    aad3:	48 8d 85 78 f2 ff ff 	lea    -0xd88(%rbp),%rax
    aada:	48 89 85 40 f4 ff ff 	mov    %rax,-0xbc0(%rbp)
    aae1:	48 8d 85 78 f2 ff ff 	lea    -0xd88(%rbp),%rax
    aae8:	48 89 85 48 f4 ff ff 	mov    %rax,-0xbb8(%rbp)
    aaef:	48 8d 85 78 f2 ff ff 	lea    -0xd88(%rbp),%rax
    aaf6:	48 89 85 50 f4 ff ff 	mov    %rax,-0xbb0(%rbp)
    aafd:	c6 85 af f1 ff ff ff 	movb   $0xff,-0xe51(%rbp)
    ab04:	c7 85 c4 f1 ff ff a3 	movl   $0x455c78a3,-0xe3c(%rbp)
    ab0b:	78 5c 45 
    ab0e:	c6 85 b2 f1 ff ff 61 	movb   $0x61,-0xe4e(%rbp)
    ab15:	c7 85 c8 f1 ff ff 00 	movl   $0x0,-0xe38(%rbp)
    ab1c:	00 00 00 
    ab1f:	48 8d 05 02 e4 00 00 	lea    0xe402(%rip),%rax        # 18f28 <g_728+0x8>
    ab26:	48 89 85 80 f2 ff ff 	mov    %rax,-0xd80(%rbp)
    ab2d:	48 c7 85 f0 f2 ff ff 	movq   $0x0,-0xd10(%rbp)
    ab34:	00 00 00 00 
    ab38:	c7 85 bc f1 ff ff fe 	movl   $0xfffffffe,-0xe44(%rbp)
    ab3f:	ff ff ff 
    ab42:	48 8d 05 3f f5 00 00 	lea    0xf53f(%rip),%rax        # 1a088 <g_1275>
    ab49:	48 89 85 88 f2 ff ff 	mov    %rax,-0xd78(%rbp)
    ab50:	48 8d 85 88 f2 ff ff 	lea    -0xd78(%rbp),%rax
    ab57:	48 89 85 60 f4 ff ff 	mov    %rax,-0xba0(%rbp)
    ab5e:	48 8d 85 88 f2 ff ff 	lea    -0xd78(%rbp),%rax
    ab65:	48 89 85 68 f4 ff ff 	mov    %rax,-0xb98(%rbp)
    ab6c:	48 8d 85 88 f2 ff ff 	lea    -0xd78(%rbp),%rax
    ab73:	48 89 85 70 f4 ff ff 	mov    %rax,-0xb90(%rbp)
    ab7a:	48 8d 85 88 f2 ff ff 	lea    -0xd78(%rbp),%rax
    ab81:	48 89 85 78 f4 ff ff 	mov    %rax,-0xb88(%rbp)
    ab88:	48 8d 85 88 f2 ff ff 	lea    -0xd78(%rbp),%rax
    ab8f:	48 89 85 80 f4 ff ff 	mov    %rax,-0xb80(%rbp)
    ab96:	48 8d 85 88 f2 ff ff 	lea    -0xd78(%rbp),%rax
    ab9d:	48 89 85 88 f4 ff ff 	mov    %rax,-0xb78(%rbp)
    aba4:	48 8d 85 88 f2 ff ff 	lea    -0xd78(%rbp),%rax
    abab:	48 89 85 90 f4 ff ff 	mov    %rax,-0xb70(%rbp)
    abb2:	48 8d 85 88 f2 ff ff 	lea    -0xd78(%rbp),%rax
    abb9:	48 89 85 98 f4 ff ff 	mov    %rax,-0xb68(%rbp)
    abc0:	48 8d 85 88 f2 ff ff 	lea    -0xd78(%rbp),%rax
    abc7:	48 89 85 a0 f4 ff ff 	mov    %rax,-0xb60(%rbp)
    abce:	48 8d 85 88 f2 ff ff 	lea    -0xd78(%rbp),%rax
    abd5:	48 89 85 a8 f4 ff ff 	mov    %rax,-0xb58(%rbp)
    abdc:	48 8d 85 88 f2 ff ff 	lea    -0xd78(%rbp),%rax
    abe3:	48 89 85 90 f2 ff ff 	mov    %rax,-0xd70(%rbp)
    abea:	48 8d 85 90 f2 ff ff 	lea    -0xd70(%rbp),%rax
    abf1:	48 89 85 f8 f2 ff ff 	mov    %rax,-0xd08(%rbp)
    abf8:	66 c7 85 ba f1 ff ff 	movw   $0xb61e,-0xe46(%rbp)
    abff:	1e b6 
    ac01:	c6 85 b3 f1 ff ff 34 	movb   $0x34,-0xe4d(%rbp)
    ac08:	48 8d 05 c9 d1 00 00 	lea    0xd1c9(%rip),%rax        # 17dd8 <g_1415>
    ac0f:	48 89 85 00 f3 ff ff 	mov    %rax,-0xd00(%rbp)
    ac16:	48 81 bd c8 f2 ff ff 	cmpq   $0x19c,-0xd38(%rbp)
    ac1d:	9c 01 00 00 
    ac21:	0f 97 c2             	seta   %dl
    ac24:	48 8b 85 60 f2 ff ff 	mov    -0xda0(%rbp),%rax
    ac2b:	0f b6 d2             	movzbl %dl,%edx
    ac2e:	89 10                	mov    %edx,(%rax)
    ac30:	8b 00                	mov    (%rax),%eax
    ac32:	85 c0                	test   %eax,%eax
    ac34:	0f 84 ef 00 00 00    	je     ad29 <func_2+0x4ae>
    ac3a:	c7 85 3c f2 ff ff 03 	movl   $0x3,-0xdc4(%rbp)
    ac41:	00 00 00 
    ac44:	c7 05 d6 f3 00 00 00 	movl   $0x0,0xf3d6(%rip)        # 1a024 <g_843>
    ac4b:	00 00 00 
    ac4e:	e9 c2 00 00 00       	jmpq   ad15 <func_2+0x49a>
    ac53:	48 8b 95 70 f2 ff ff 	mov    -0xd90(%rbp),%rdx
    ac5a:	48 8d 85 68 f2 ff ff 	lea    -0xd98(%rbp),%rax
    ac61:	48 39 c2             	cmp    %rax,%rdx
    ac64:	0f 94 c0             	sete   %al
    ac67:	0f b6 c0             	movzbl %al,%eax
    ac6a:	8b 95 3c f2 ff ff    	mov    -0xdc4(%rbp),%edx
    ac70:	89 d6                	mov    %edx,%esi
    ac72:	89 c7                	mov    %eax,%edi
    ac74:	e8 8c af ff ff       	callq  5c05 <safe_lshift_func_uint8_t_u_s>
    ac79:	0f b6 15 71 c7 00 00 	movzbl 0xc771(%rip),%edx        # 173f1 <g_653>
    ac80:	31 d0                	xor    %edx,%eax
    ac82:	0f b6 d0             	movzbl %al,%edx
    ac85:	48 8b 85 60 f2 ff ff 	mov    -0xda0(%rbp),%rax
    ac8c:	8b 08                	mov    (%rax),%ecx
    ac8e:	48 8b 85 60 f2 ff ff 	mov    -0xda0(%rbp),%rax
    ac95:	81 e1 4c 2f 3e 51    	and    $0x513e2f4c,%ecx
    ac9b:	89 08                	mov    %ecx,(%rax)
    ac9d:	8b 00                	mov    (%rax),%eax
    ac9f:	39 c2                	cmp    %eax,%edx
    aca1:	0f 94 c0             	sete   %al
    aca4:	0f b6 c0             	movzbl %al,%eax
    aca7:	48 89 c6             	mov    %rax,%rsi
    acaa:	48 c7 c7 ff ff ff ff 	mov    $0xffffffffffffffff,%rdi
    acb1:	e8 8b ab ff ff       	callq  5841 <safe_add_func_int64_t_s_s>
    acb6:	0f b7 c0             	movzwl %ax,%eax
    acb9:	be 0f 00 00 00       	mov    $0xf,%esi
    acbe:	89 c7                	mov    %eax,%edi
    acc0:	e8 b5 b1 ff ff       	callq  5e7a <safe_rshift_func_uint16_t_u_u>
    acc5:	0f b7 d0             	movzwl %ax,%edx
    acc8:	8b 85 94 f1 ff ff    	mov    -0xe6c(%rbp),%eax
    acce:	39 c2                	cmp    %eax,%edx
    acd0:	0f 95 c0             	setne  %al
    acd3:	0f b6 c0             	movzbl %al,%eax
    acd6:	39 85 98 f1 ff ff    	cmp    %eax,-0xe68(%rbp)
    acdc:	0f 94 c0             	sete   %al
    acdf:	0f b6 c0             	movzbl %al,%eax
    ace2:	39 85 98 f1 ff ff    	cmp    %eax,-0xe68(%rbp)
    ace8:	0f 92 c2             	setb   %dl
    aceb:	48 8b 05 86 e5 00 00 	mov    0xe586(%rip),%rax        # 19278 <g_1072>
    acf2:	0f b6 d2             	movzbl %dl,%edx
    acf5:	89 10                	mov    %edx,(%rax)
    acf7:	8b 05 27 f3 00 00    	mov    0xf327(%rip),%eax        # 1a024 <g_843>
    acfd:	0f b6 c0             	movzbl %al,%eax
    ad00:	be 05 00 00 00       	mov    $0x5,%esi
    ad05:	89 c7                	mov    %eax,%edi
    ad07:	e8 4e ae ff ff       	callq  5b5a <safe_add_func_uint8_t_u_u>
    ad0c:	0f b6 c0             	movzbl %al,%eax
    ad0f:	89 05 0f f3 00 00    	mov    %eax,0xf30f(%rip)        # 1a024 <g_843>
    ad15:	8b 05 09 f3 00 00    	mov    0xf309(%rip),%eax        # 1a024 <g_843>
    ad1b:	83 f8 06             	cmp    $0x6,%eax
    ad1e:	0f 8e 2f ff ff ff    	jle    ac53 <func_2+0x3d8>
    ad24:	e9 f5 1c 00 00       	jmpq   ca1e <func_2+0x21a3>
    ad29:	48 8d 05 98 c6 00 00 	lea    0xc698(%rip),%rax        # 173c8 <g_228>
    ad30:	48 89 85 b0 f4 ff ff 	mov    %rax,-0xb50(%rbp)
    ad37:	48 8d 05 8a c6 00 00 	lea    0xc68a(%rip),%rax        # 173c8 <g_228>
    ad3e:	48 89 85 b8 f4 ff ff 	mov    %rax,-0xb48(%rbp)
    ad45:	48 8d 05 34 c6 00 00 	lea    0xc634(%rip),%rax        # 17380 <g_226>
    ad4c:	48 89 85 c0 f4 ff ff 	mov    %rax,-0xb40(%rbp)
    ad53:	48 8d 05 6e c6 00 00 	lea    0xc66e(%rip),%rax        # 173c8 <g_228>
    ad5a:	48 89 85 c8 f4 ff ff 	mov    %rax,-0xb38(%rbp)
    ad61:	48 8d 05 60 c6 00 00 	lea    0xc660(%rip),%rax        # 173c8 <g_228>
    ad68:	48 89 85 d0 f4 ff ff 	mov    %rax,-0xb30(%rbp)
    ad6f:	48 8d 05 0a c6 00 00 	lea    0xc60a(%rip),%rax        # 17380 <g_226>
    ad76:	48 89 85 d8 f4 ff ff 	mov    %rax,-0xb28(%rbp)
    ad7d:	48 8d 05 44 c6 00 00 	lea    0xc644(%rip),%rax        # 173c8 <g_228>
    ad84:	48 89 85 e0 f4 ff ff 	mov    %rax,-0xb20(%rbp)
    ad8b:	48 8d 05 36 c6 00 00 	lea    0xc636(%rip),%rax        # 173c8 <g_228>
    ad92:	48 89 85 e8 f4 ff ff 	mov    %rax,-0xb18(%rbp)
    ad99:	48 8d 05 e0 c5 00 00 	lea    0xc5e0(%rip),%rax        # 17380 <g_226>
    ada0:	48 89 85 f0 f4 ff ff 	mov    %rax,-0xb10(%rbp)
    ada7:	48 8d 05 1a c6 00 00 	lea    0xc61a(%rip),%rax        # 173c8 <g_228>
    adae:	48 89 85 f8 f4 ff ff 	mov    %rax,-0xb08(%rbp)
    adb5:	48 8d 05 75 c2 00 00 	lea    0xc275(%rip),%rax        # 17031 <g_27>
    adbc:	48 89 85 08 f3 ff ff 	mov    %rax,-0xcf8(%rbp)
    adc3:	c7 85 cc f1 ff ff 7b 	movl   $0x5e60da7b,-0xe34(%rbp)
    adca:	da 60 5e 
    adcd:	48 c7 85 10 f3 ff ff 	movq   $0x0,-0xcf0(%rbp)
    add4:	00 00 00 00 
    add8:	48 8d 85 68 f2 ff ff 	lea    -0xd98(%rbp),%rax
    addf:	48 89 85 18 f3 ff ff 	mov    %rax,-0xce8(%rbp)
    ade6:	48 8d 05 f5 c5 00 00 	lea    0xc5f5(%rip),%rax        # 173e2 <g_304+0x2>
    aded:	48 89 85 20 f3 ff ff 	mov    %rax,-0xce0(%rbp)
    adf4:	48 8d 05 cd c5 00 00 	lea    0xc5cd(%rip),%rax        # 173c8 <g_228>
    adfb:	48 89 85 28 f3 ff ff 	mov    %rax,-0xcd8(%rbp)
    ae02:	c6 85 b4 f1 ff ff ff 	movb   $0xff,-0xe4c(%rbp)
    ae09:	c7 85 d0 f1 ff ff 00 	movl   $0x0,-0xe30(%rbp)
    ae10:	00 00 00 
    ae13:	eb 1a                	jmp    ae2f <func_2+0x5b4>
    ae15:	8b 85 d0 f1 ff ff    	mov    -0xe30(%rbp),%eax
    ae1b:	48 98                	cltq   
    ae1d:	c7 84 85 f8 f3 ff ff 	movl   $0x0,-0xc08(%rbp,%rax,4)
    ae24:	00 00 00 00 
    ae28:	83 85 d0 f1 ff ff 01 	addl   $0x1,-0xe30(%rbp)
    ae2f:	83 bd d0 f1 ff ff 01 	cmpl   $0x1,-0xe30(%rbp)
    ae36:	7e dd                	jle    ae15 <func_2+0x59a>
    ae38:	8b 85 98 f1 ff ff    	mov    -0xe68(%rbp),%eax
    ae3e:	0f bf d8             	movswl %ax,%ebx
    ae41:	44 8b a5 94 f1 ff ff 	mov    -0xe6c(%rbp),%r12d
    ae48:	0f b6 85 af f1 ff ff 	movzbl -0xe51(%rbp),%eax
    ae4f:	0f b6 d0             	movzbl %al,%edx
    ae52:	48 8b 8d c8 f4 ff ff 	mov    -0xb38(%rbp),%rcx
    ae59:	48 8b 85 60 f2 ff ff 	mov    -0xda0(%rbp),%rax
    ae60:	48 39 c1             	cmp    %rax,%rcx
    ae63:	0f 95 c0             	setne  %al
    ae66:	0f b6 c0             	movzbl %al,%eax
    ae69:	21 d0                	and    %edx,%eax
    ae6b:	48 98                	cltq   
    ae6d:	ba f8 ff ff ff       	mov    $0xfffffff8,%edx
    ae72:	48 31 d0             	xor    %rdx,%rax
    ae75:	48 0d 51 fc 00 00    	or     $0xfc51,%rax
    ae7b:	49 89 c5             	mov    %rax,%r13
    ae7e:	48 8b 85 08 f3 ff ff 	mov    -0xcf8(%rbp),%rax
    ae85:	c6 00 fc             	movb   $0xfc,(%rax)
    ae88:	be 01 00 00 00       	mov    $0x1,%esi
    ae8d:	bf fc ff ff ff       	mov    $0xfffffffc,%edi
    ae92:	e8 d5 a4 ff ff       	callq  536c <safe_rshift_func_int8_t_s_u>
    ae97:	48 0f be c0          	movsbq %al,%rax
    ae9b:	49 39 c5             	cmp    %rax,%r13
    ae9e:	0f 96 c0             	setbe  %al
    aea1:	0f b6 c0             	movzbl %al,%eax
    aea4:	44 89 e6             	mov    %r12d,%esi
    aea7:	89 c7                	mov    %eax,%edi
    aea9:	e8 cc af ff ff       	callq  5e7a <safe_rshift_func_uint16_t_u_u>
    aeae:	98                   	cwtl   
    aeaf:	89 de                	mov    %ebx,%esi
    aeb1:	89 c7                	mov    %eax,%edi
    aeb3:	e8 fb a4 ff ff       	callq  53b3 <safe_add_func_int16_t_s_s>
    aeb8:	48 8b 85 10 f4 ff ff 	mov    -0xbf0(%rbp),%rax
    aebf:	48 85 c0             	test   %rax,%rax
    aec2:	0f 95 c0             	setne  %al
    aec5:	0f b6 c0             	movzbl %al,%eax
    aec8:	f7 d0                	not    %eax
    aeca:	48 98                	cltq   
    aecc:	48 39 85 c8 f2 ff ff 	cmp    %rax,-0xd38(%rbp)
    aed3:	0f 94 c0             	sete   %al
    aed6:	0f b6 c0             	movzbl %al,%eax
    aed9:	89 c7                	mov    %eax,%edi
    aedb:	e8 df a2 ff ff       	callq  51bf <safe_unary_minus_func_int8_t_s>
    aee0:	0f be c0             	movsbl %al,%eax
    aee3:	be 02 00 00 00       	mov    $0x2,%esi
    aee8:	89 c7                	mov    %eax,%edi
    aeea:	e8 46 a4 ff ff       	callq  5335 <safe_rshift_func_int8_t_s_s>
    aeef:	0f be c0             	movsbl %al,%eax
    aef2:	89 85 d8 f1 ff ff    	mov    %eax,-0xe28(%rbp)
    aef8:	8b 85 d8 f1 ff ff    	mov    -0xe28(%rbp),%eax
    aefe:	0f bf d0             	movswl %ax,%edx
    af01:	48 8b 85 60 f2 ff ff 	mov    -0xda0(%rbp),%rax
    af08:	8b 00                	mov    (%rax),%eax
    af0a:	98                   	cwtl   
    af0b:	89 d6                	mov    %edx,%esi
    af0d:	89 c7                	mov    %eax,%edi
    af0f:	e8 41 a5 ff ff       	callq  5455 <safe_div_func_int16_t_s_s>
    af14:	66 85 c0             	test   %ax,%ax
    af17:	0f 84 3e 09 00 00    	je     b85b <func_2+0xfe0>
    af1d:	48 8d 05 6c dc 00 00 	lea    0xdc6c(%rip),%rax        # 18b90 <g_221+0x10>
    af24:	48 89 85 48 f3 ff ff 	mov    %rax,-0xcb8(%rbp)
    af2b:	c7 85 ec f1 ff ff 01 	movl   $0x1,-0xe14(%rbp)
    af32:	00 00 00 
    af35:	c7 85 00 f4 ff ff c8 	movl   $0xf26d9fc8,-0xc00(%rbp)
    af3c:	9f 6d f2 
    af3f:	c7 85 04 f4 ff ff c8 	movl   $0xf26d9fc8,-0xbfc(%rbp)
    af46:	9f 6d f2 
    af49:	c7 85 08 f4 ff ff c8 	movl   $0xf26d9fc8,-0xbf8(%rbp)
    af50:	9f 6d f2 
    af53:	c7 85 0c f4 ff ff c8 	movl   $0xf26d9fc8,-0xbf4(%rbp)
    af5a:	9f 6d f2 
    af5d:	c7 85 f0 f1 ff ff 00 	movl   $0x0,-0xe10(%rbp)
    af64:	00 00 00 
    af67:	c7 85 cc f1 ff ff 01 	movl   $0x1,-0xe34(%rbp)
    af6e:	00 00 00 
    af71:	48 8b 85 60 f2 ff ff 	mov    -0xda0(%rbp),%rax
    af78:	8b 95 cc f1 ff ff    	mov    -0xe34(%rbp),%edx
    af7e:	89 10                	mov    %edx,(%rax)
    af80:	8b 00                	mov    (%rax),%eax
    af82:	89 85 d8 f1 ff ff    	mov    %eax,-0xe28(%rbp)
    af88:	c7 05 e2 c6 00 00 03 	movl   $0x3,0xc6e2(%rip)        # 17674 <g_861>
    af8f:	00 00 00 
    af92:	e9 6c 06 00 00       	jmpq   b603 <func_2+0xd88>
    af97:	48 c7 85 b0 f2 ff ff 	movq   $0x0,-0xd50(%rbp)
    af9e:	00 00 00 00 
    afa2:	48 8d 85 b0 f2 ff ff 	lea    -0xd50(%rbp),%rax
    afa9:	48 89 85 00 f5 ff ff 	mov    %rax,-0xb00(%rbp)
    afb0:	48 8d 85 b0 f2 ff ff 	lea    -0xd50(%rbp),%rax
    afb7:	48 89 85 08 f5 ff ff 	mov    %rax,-0xaf8(%rbp)
    afbe:	48 8d 85 b0 f2 ff ff 	lea    -0xd50(%rbp),%rax
    afc5:	48 89 85 10 f5 ff ff 	mov    %rax,-0xaf0(%rbp)
    afcc:	48 8d 85 b0 f2 ff ff 	lea    -0xd50(%rbp),%rax
    afd3:	48 89 85 18 f5 ff ff 	mov    %rax,-0xae8(%rbp)
    afda:	48 8d 85 b0 f2 ff ff 	lea    -0xd50(%rbp),%rax
    afe1:	48 89 85 20 f5 ff ff 	mov    %rax,-0xae0(%rbp)
    afe8:	48 8d 85 b0 f2 ff ff 	lea    -0xd50(%rbp),%rax
    afef:	48 89 85 28 f5 ff ff 	mov    %rax,-0xad8(%rbp)
    aff6:	48 8d 85 b0 f2 ff ff 	lea    -0xd50(%rbp),%rax
    affd:	48 89 85 30 f5 ff ff 	mov    %rax,-0xad0(%rbp)
    b004:	48 8d 85 b0 f2 ff ff 	lea    -0xd50(%rbp),%rax
    b00b:	48 89 85 38 f5 ff ff 	mov    %rax,-0xac8(%rbp)
    b012:	48 8d 85 b0 f2 ff ff 	lea    -0xd50(%rbp),%rax
    b019:	48 89 85 40 f5 ff ff 	mov    %rax,-0xac0(%rbp)
    b020:	48 8d 85 b0 f2 ff ff 	lea    -0xd50(%rbp),%rax
    b027:	48 89 85 48 f5 ff ff 	mov    %rax,-0xab8(%rbp)
    b02e:	48 8d 85 00 f5 ff ff 	lea    -0xb00(%rbp),%rax
    b035:	48 83 c0 48          	add    $0x48,%rax
    b039:	48 89 85 50 f3 ff ff 	mov    %rax,-0xcb0(%rbp)
    b040:	48 b8 f1 e1 04 32 97 	movabs $0x9c19ee973204e1f1,%rax
    b047:	ee 19 9c 
    b04a:	48 89 85 b8 f2 ff ff 	mov    %rax,-0xd48(%rbp)
    b051:	c7 85 fc f1 ff ff a5 	movl   $0xb9b4f5a5,-0xe04(%rbp)
    b058:	f5 b4 b9 
    b05b:	c7 85 00 f2 ff ff df 	movl   $0x60d46bdf,-0xe00(%rbp)
    b062:	6b d4 60 
    b065:	c7 85 04 f2 ff ff 15 	movl   $0xdf475e15,-0xdfc(%rbp)
    b06c:	5e 47 df 
    b06f:	c7 85 08 f2 ff ff 02 	movl   $0x2,-0xdf8(%rbp)
    b076:	00 00 00 
    b079:	c7 85 0c f2 ff ff fe 	movl   $0xe6bb87fe,-0xdf4(%rbp)
    b080:	87 bb e6 
    b083:	c7 85 d0 fb ff ff 07 	movl   $0x7,-0x430(%rbp)
    b08a:	00 00 00 
    b08d:	c7 85 d4 fb ff ff cf 	movl   $0x4c9114cf,-0x42c(%rbp)
    b094:	14 91 4c 
    b097:	c7 85 d8 fb ff ff 01 	movl   $0x1,-0x428(%rbp)
    b09e:	00 00 00 
    b0a1:	c7 85 dc fb ff ff cf 	movl   $0x4c9114cf,-0x424(%rbp)
    b0a8:	14 91 4c 
    b0ab:	c7 85 e0 fb ff ff cf 	movl   $0x4c9114cf,-0x420(%rbp)
    b0b2:	14 91 4c 
    b0b5:	c7 85 e4 fb ff ff 00 	movl   $0x0,-0x41c(%rbp)
    b0bc:	00 00 00 
    b0bf:	c7 85 e8 fb ff ff ff 	movl   $0xffffffff,-0x418(%rbp)
    b0c6:	ff ff ff 
    b0c9:	c7 85 ec fb ff ff cf 	movl   $0x4c9114cf,-0x414(%rbp)
    b0d0:	14 91 4c 
    b0d3:	c7 85 f0 fb ff ff ff 	movl   $0xffffffff,-0x410(%rbp)
    b0da:	ff ff ff 
    b0dd:	c7 85 f4 fb ff ff cf 	movl   $0x4c9114cf,-0x40c(%rbp)
    b0e4:	14 91 4c 
    b0e7:	c7 85 f8 fb ff ff ff 	movl   $0xffffffff,-0x408(%rbp)
    b0ee:	ff ff ff 
    b0f1:	c7 85 fc fb ff ff ff 	movl   $0xffffffff,-0x404(%rbp)
    b0f8:	ff ff ff 
    b0fb:	c7 85 00 fc ff ff 01 	movl   $0x1,-0x400(%rbp)
    b102:	00 00 00 
    b105:	c7 85 04 fc ff ff 01 	movl   $0x1,-0x3fc(%rbp)
    b10c:	00 00 00 
    b10f:	c7 85 08 fc ff ff 01 	movl   $0x1,-0x3f8(%rbp)
    b116:	00 00 00 
    b119:	c7 85 0c fc ff ff 07 	movl   $0x7,-0x3f4(%rbp)
    b120:	00 00 00 
    b123:	c7 85 10 fc ff ff 01 	movl   $0x1,-0x3f0(%rbp)
    b12a:	00 00 00 
    b12d:	c7 85 14 fc ff ff 00 	movl   $0x0,-0x3ec(%rbp)
    b134:	00 00 00 
    b137:	c7 85 18 fc ff ff ff 	movl   $0xffffffff,-0x3e8(%rbp)
    b13e:	ff ff ff 
    b141:	c7 85 1c fc ff ff 01 	movl   $0x1,-0x3e4(%rbp)
    b148:	00 00 00 
    b14b:	c7 85 20 fc ff ff ff 	movl   $0xffffffff,-0x3e0(%rbp)
    b152:	ff ff ff 
    b155:	c7 85 24 fc ff ff 07 	movl   $0x7,-0x3dc(%rbp)
    b15c:	00 00 00 
    b15f:	c7 85 28 fc ff ff ff 	movl   $0xffffffff,-0x3d8(%rbp)
    b166:	ff ff ff 
    b169:	c7 85 2c fc ff ff ff 	movl   $0xffffffff,-0x3d4(%rbp)
    b170:	ff ff ff 
    b173:	c7 85 30 fc ff ff cf 	movl   $0x4c9114cf,-0x3d0(%rbp)
    b17a:	14 91 4c 
    b17d:	c7 85 34 fc ff ff 07 	movl   $0x7,-0x3cc(%rbp)
    b184:	00 00 00 
    b187:	c7 85 38 fc ff ff 01 	movl   $0x1,-0x3c8(%rbp)
    b18e:	00 00 00 
    b191:	c7 85 3c fc ff ff 01 	movl   $0x1,-0x3c4(%rbp)
    b198:	00 00 00 
    b19b:	c7 85 40 fc ff ff 07 	movl   $0x7,-0x3c0(%rbp)
    b1a2:	00 00 00 
    b1a5:	c7 85 44 fc ff ff 00 	movl   $0x0,-0x3bc(%rbp)
    b1ac:	00 00 00 
    b1af:	c7 85 48 fc ff ff 00 	movl   $0x0,-0x3b8(%rbp)
    b1b6:	00 00 00 
    b1b9:	c7 85 4c fc ff ff 07 	movl   $0x7,-0x3b4(%rbp)
    b1c0:	00 00 00 
    b1c3:	c6 85 b5 f1 ff ff ff 	movb   $0xff,-0xe4b(%rbp)
    b1ca:	8b 05 a4 c4 00 00    	mov    0xc4a4(%rip),%eax        # 17674 <g_861>
    b1d0:	48 98                	cltq   
    b1d2:	48 8d 15 11 c2 00 00 	lea    0xc211(%rip),%rdx        # 173ea <g_477>
    b1d9:	0f b6 04 10          	movzbl (%rax,%rdx,1),%eax
    b1dd:	0f b6 d0             	movzbl %al,%edx
    b1e0:	8b 05 8e c4 00 00    	mov    0xc48e(%rip),%eax        # 17674 <g_861>
    b1e6:	48 98                	cltq   
    b1e8:	48 8d 0d fb c1 00 00 	lea    0xc1fb(%rip),%rcx        # 173ea <g_477>
    b1ef:	0f b6 04 08          	movzbl (%rax,%rcx,1),%eax
    b1f3:	84 c0                	test   %al,%al
    b1f5:	0f 95 c0             	setne  %al
    b1f8:	0f b6 c8             	movzbl %al,%ecx
    b1fb:	8b 05 73 c4 00 00    	mov    0xc473(%rip),%eax        # 17674 <g_861>
    b201:	83 c0 04             	add    $0x4,%eax
    b204:	48 98                	cltq   
    b206:	48 8d 34 85 00 00 00 	lea    0x0(,%rax,4),%rsi
    b20d:	00 
    b20e:	48 8d 05 6b cb 00 00 	lea    0xcb6b(%rip),%rax        # 17d80 <g_881>
    b215:	8b 04 06             	mov    (%rsi,%rax,1),%eax
    b218:	39 c1                	cmp    %eax,%ecx
    b21a:	0f 9d c0             	setge  %al
    b21d:	0f b6 c0             	movzbl %al,%eax
    b220:	39 c2                	cmp    %eax,%edx
    b222:	0f 9e c2             	setle  %dl
    b225:	48 8b 85 60 f2 ff ff 	mov    -0xda0(%rbp),%rax
    b22c:	0f b6 d2             	movzbl %dl,%edx
    b22f:	89 10                	mov    %edx,(%rax)
    b231:	8b 00                	mov    (%rax),%eax
    b233:	85 c0                	test   %eax,%eax
    b235:	0f 84 a6 01 00 00    	je     b3e1 <func_2+0xb66>
    b23b:	48 8d 05 9e ed 00 00 	lea    0xed9e(%rip),%rax        # 19fe0 <g_582>
    b242:	48 89 85 58 f3 ff ff 	mov    %rax,-0xca8(%rbp)
    b249:	48 8d 05 78 c0 00 00 	lea    0xc078(%rip),%rax        # 172c8 <g_196+0x8>
    b250:	48 89 85 60 f3 ff ff 	mov    %rax,-0xca0(%rbp)
    b257:	c7 85 10 f2 ff ff 00 	movl   $0xd46f9500,-0xdf0(%rbp)
    b25e:	95 6f d4 
    b261:	c7 85 14 f2 ff ff 00 	movl   $0x0,-0xdec(%rbp)
    b268:	00 00 00 
    b26b:	c7 85 18 f2 ff ff 04 	movl   $0x4,-0xde8(%rbp)
    b272:	00 00 00 
    b275:	8b 85 c4 f1 ff ff    	mov    -0xe3c(%rbp),%eax
    b27b:	0f b7 d8             	movzwl %ax,%ebx
    b27e:	8b 05 f0 c3 00 00    	mov    0xc3f0(%rip),%eax        # 17674 <g_861>
    b284:	48 98                	cltq   
    b286:	48 8d 14 85 00 00 00 	lea    0x0(,%rax,4),%rdx
    b28d:	00 
    b28e:	48 8d 05 eb ca 00 00 	lea    0xcaeb(%rip),%rax        # 17d80 <g_881>
    b295:	8b 14 02             	mov    (%rdx,%rax,1),%edx
    b298:	48 8b 05 21 db 00 00 	mov    0xdb21(%rip),%rax        # 18dc0 <g_671>
    b29f:	88 10                	mov    %dl,(%rax)
    b2a1:	0f b6 00             	movzbl (%rax),%eax
    b2a4:	0f b6 c0             	movzbl %al,%eax
    b2a7:	be 03 00 00 00       	mov    $0x3,%esi
    b2ac:	89 c7                	mov    %eax,%edi
    b2ae:	e8 52 a9 ff ff       	callq  5c05 <safe_lshift_func_uint8_t_u_s>
    b2b3:	44 0f b6 f8          	movzbl %al,%r15d
    b2b7:	0f b6 85 9c f1 ff ff 	movzbl -0xe64(%rbp),%eax
    b2be:	44 0f be e0          	movsbl %al,%r12d
    b2c2:	8b 85 cc f1 ff ff    	mov    -0xe34(%rbp),%eax
    b2c8:	44 0f bf e8          	movswl %ax,%r13d
    b2cc:	48 8b 05 65 ed 00 00 	mov    0xed65(%rip),%rax        # 1a038 <g_949+0x8>
    b2d3:	8b 05 27 c3 00 00    	mov    0xc327(%rip),%eax        # 17600 <g_840>
    b2d9:	83 f8 08             	cmp    $0x8,%eax
    b2dc:	44 8b b5 98 f1 ff ff 	mov    -0xe68(%rbp),%r14d
    b2e3:	8b 05 83 c3 00 00    	mov    0xc383(%rip),%eax        # 1766c <g_860+0xc>
    b2e9:	89 c2                	mov    %eax,%edx
    b2eb:	48 8d 05 fe dd 00 00 	lea    0xddfe(%rip),%rax        # 190f0 <g_731>
    b2f2:	48 39 85 50 f3 ff ff 	cmp    %rax,-0xcb0(%rbp)
    b2f9:	48 8b 05 f0 dd 00 00 	mov    0xddf0(%rip),%rax        # 190f0 <g_731>
    b300:	b8 01 00 00 00       	mov    $0x1,%eax
    b305:	89 d6                	mov    %edx,%esi
    b307:	89 c7                	mov    %eax,%edi
    b309:	e8 17 ac ff ff       	callq  5f25 <safe_div_func_uint32_t_u_u>
    b30e:	44 89 f6             	mov    %r14d,%esi
    b311:	bf ff 00 00 00       	mov    $0xff,%edi
    b316:	e8 72 a9 ff ff       	callq  5c8d <safe_rshift_func_uint8_t_u_s>
    b31b:	0f b6 c0             	movzbl %al,%eax
    b31e:	44 89 ee             	mov    %r13d,%esi
    b321:	89 c7                	mov    %eax,%edi
    b323:	e8 ee a0 ff ff       	callq  5416 <safe_mod_func_int16_t_s_s>
    b328:	48 0f bf c0          	movswq %ax,%rax
    b32c:	89 c2                	mov    %eax,%edx
    b32e:	48 8b 85 60 f3 ff ff 	mov    -0xca0(%rbp),%rax
    b335:	48 89 10             	mov    %rdx,(%rax)
    b338:	8b 95 94 f1 ff ff    	mov    -0xe6c(%rbp),%edx
    b33e:	8b 85 d8 f1 ff ff    	mov    -0xe28(%rbp),%eax
    b344:	31 d0                	xor    %edx,%eax
    b346:	83 f8 01             	cmp    $0x1,%eax
    b349:	0f 94 c0             	sete   %al
    b34c:	0f b6 c0             	movzbl %al,%eax
    b34f:	44 89 e6             	mov    %r12d,%esi
    b352:	89 c7                	mov    %eax,%edi
    b354:	e8 11 9f ff ff       	callq  526a <safe_div_func_int8_t_s_s>
    b359:	0f be c0             	movsbl %al,%eax
    b35c:	41 39 c7             	cmp    %eax,%r15d
    b35f:	0f 9c c0             	setl   %al
    b362:	0f b6 c0             	movzbl %al,%eax
    b365:	89 de                	mov    %ebx,%esi
    b367:	89 c7                	mov    %eax,%edi
    b369:	e8 ee a9 ff ff       	callq  5d5c <safe_mod_func_uint16_t_u_u>
    b36e:	be ab ff ff ff       	mov    $0xffffffab,%esi
    b373:	bf 01 00 00 00       	mov    $0x1,%edi
    b378:	e8 75 9e ff ff       	callq  51f2 <safe_sub_func_int8_t_s_s>
    b37d:	48 8b 85 58 f3 ff ff 	mov    -0xca8(%rbp),%rax
    b384:	48 8b 95 10 f3 ff ff 	mov    -0xcf0(%rbp),%rdx
    b38b:	48 89 10             	mov    %rdx,(%rax)
    b38e:	48 8b 85 58 f3 ff ff 	mov    -0xca8(%rbp),%rax
    b395:	48 8b 00             	mov    (%rax),%rax
    b398:	48 39 85 48 f3 ff ff 	cmp    %rax,-0xcb8(%rbp)
    b39f:	0f 95 c2             	setne  %dl
    b3a2:	48 8b 85 48 f3 ff ff 	mov    -0xcb8(%rbp),%rax
    b3a9:	48 8b 00             	mov    (%rax),%rax
    b3ac:	0f b6 d2             	movzbl %dl,%edx
    b3af:	66 89 10             	mov    %dx,(%rax)
    b3b2:	b9 00 00 00 00       	mov    $0x0,%ecx
    b3b7:	48 8b 85 60 f2 ff ff 	mov    -0xda0(%rbp),%rax
    b3be:	8b 10                	mov    (%rax),%edx
    b3c0:	48 8b 85 60 f2 ff ff 	mov    -0xda0(%rbp),%rax
    b3c7:	31 ca                	xor    %ecx,%edx
    b3c9:	89 10                	mov    %edx,(%rax)
    b3cb:	80 85 b5 f1 ff ff 01 	addb   $0x1,-0xe4b(%rbp)
    b3d2:	c7 85 c4 f1 ff ff 12 	movl   $0x12,-0xe3c(%rbp)
    b3d9:	00 00 00 
    b3dc:	e9 e3 01 00 00       	jmpq   b5c4 <func_2+0xd49>
    b3e1:	48 83 bd c8 f2 ff ff 	cmpq   $0x0,-0xd38(%rbp)
    b3e8:	00 
    b3e9:	0f 85 16 16 00 00    	jne    ca05 <func_2+0x218a>
    b3ef:	8b 85 f0 f1 ff ff    	mov    -0xe10(%rbp),%eax
    b3f5:	e9 93 19 00 00       	jmpq   cd8d <func_2+0x2512>
    b3fa:	c7 85 1c f2 ff ff cb 	movl   $0xb37e77cb,-0xde4(%rbp)
    b401:	77 7e b3 
    b404:	48 8d 85 b8 f2 ff ff 	lea    -0xd48(%rbp),%rax
    b40b:	48 89 85 50 f5 ff ff 	mov    %rax,-0xab0(%rbp)
    b412:	48 c7 85 58 f5 ff ff 	movq   $0x0,-0xaa8(%rbp)
    b419:	00 00 00 00 
    b41d:	48 8d 85 b8 f2 ff ff 	lea    -0xd48(%rbp),%rax
    b424:	48 89 85 60 f5 ff ff 	mov    %rax,-0xaa0(%rbp)
    b42b:	48 8d 85 b8 f2 ff ff 	lea    -0xd48(%rbp),%rax
    b432:	48 89 85 68 f5 ff ff 	mov    %rax,-0xa98(%rbp)
    b439:	48 c7 85 70 f5 ff ff 	movq   $0x0,-0xa90(%rbp)
    b440:	00 00 00 00 
    b444:	48 c7 85 78 f5 ff ff 	movq   $0x0,-0xa88(%rbp)
    b44b:	00 00 00 00 
    b44f:	48 8d 85 b8 f2 ff ff 	lea    -0xd48(%rbp),%rax
    b456:	48 89 85 80 f5 ff ff 	mov    %rax,-0xa80(%rbp)
    b45d:	48 8d 85 b8 f2 ff ff 	lea    -0xd48(%rbp),%rax
    b464:	48 89 85 88 f5 ff ff 	mov    %rax,-0xa78(%rbp)
    b46b:	48 c7 85 90 f5 ff ff 	movq   $0x0,-0xa70(%rbp)
    b472:	00 00 00 00 
    b476:	48 8d 85 b8 f2 ff ff 	lea    -0xd48(%rbp),%rax
    b47d:	48 89 85 98 f5 ff ff 	mov    %rax,-0xa68(%rbp)
    b484:	48 c7 85 a0 f5 ff ff 	movq   $0x0,-0xa60(%rbp)
    b48b:	00 00 00 00 
    b48f:	48 c7 85 a8 f5 ff ff 	movq   $0x0,-0xa58(%rbp)
    b496:	00 00 00 00 
    b49a:	48 8d 85 b8 f2 ff ff 	lea    -0xd48(%rbp),%rax
    b4a1:	48 89 85 b0 f5 ff ff 	mov    %rax,-0xa50(%rbp)
    b4a8:	48 c7 85 b8 f5 ff ff 	movq   $0x0,-0xa48(%rbp)
    b4af:	00 00 00 00 
    b4b3:	48 c7 85 c0 f5 ff ff 	movq   $0x0,-0xa40(%rbp)
    b4ba:	00 00 00 00 
    b4be:	83 bd 98 f1 ff ff 00 	cmpl   $0x0,-0xe68(%rbp)
    b4c5:	0f 85 08 01 00 00    	jne    b5d3 <func_2+0xd58>
    b4cb:	c7 05 af bb 00 00 00 	movl   $0x0,0xbbaf(%rip)        # 17084 <g_72+0x4>
    b4d2:	00 00 00 
    b4d5:	44 8b 25 a8 bb 00 00 	mov    0xbba8(%rip),%r12d        # 17084 <g_72+0x4>
    b4dc:	8b 85 0c f4 ff ff    	mov    -0xbf4(%rbp),%eax
    b4e2:	89 c2                	mov    %eax,%edx
    b4e4:	8b 05 62 c8 00 00    	mov    0xc862(%rip),%eax        # 17d4c <g_880+0xc>
    b4ea:	f7 d0                	not    %eax
    b4ec:	89 d6                	mov    %edx,%esi
    b4ee:	89 c7                	mov    %eax,%edi
    b4f0:	e8 c3 a9 ff ff       	callq  5eb8 <safe_add_func_uint32_t_u_u>
    b4f5:	0f b6 d8             	movzbl %al,%ebx
    b4f8:	c7 85 1c f2 ff ff ff 	movl   $0xffffffff,-0xde4(%rbp)
    b4ff:	ff ff ff 
    b502:	be 0a 00 00 00       	mov    $0xa,%esi
    b507:	bf ff ff ff ff       	mov    $0xffffffff,%edi
    b50c:	e8 d0 9f ff ff       	callq  54e1 <safe_lshift_func_int16_t_s_u>
    b511:	66 85 c0             	test   %ax,%ax
    b514:	74 07                	je     b51d <func_2+0xca2>
    b516:	83 bd 98 f1 ff ff 00 	cmpl   $0x0,-0xe68(%rbp)
    b51d:	8b 85 94 f1 ff ff    	mov    -0xe6c(%rbp),%eax
    b523:	41 89 c5             	mov    %eax,%r13d
    b526:	0f b6 85 9c f1 ff ff 	movzbl -0xe64(%rbp),%eax
    b52d:	48 89 c7             	mov    %rax,%rdi
    b530:	e8 e4 aa ff ff       	callq  6019 <safe_unary_minus_func_uint64_t_u>
    b535:	4c 21 e8             	and    %r13,%rax
    b538:	48 85 c0             	test   %rax,%rax
    b53b:	75 0d                	jne    b54a <func_2+0xccf>
    b53d:	48 8b 85 60 f2 ff ff 	mov    -0xda0(%rbp),%rax
    b544:	c7 00 bf a2 7f dc    	movl   $0xdc7fa2bf,(%rax)
    b54a:	b9 01 00 00 00       	mov    $0x1,%ecx
    b54f:	48 8b 05 6a d8 00 00 	mov    0xd86a(%rip),%rax        # 18dc0 <g_671>
    b556:	0f b6 00             	movzbl (%rax),%eax
    b559:	89 c2                	mov    %eax,%edx
    b55b:	89 c8                	mov    %ecx,%eax
    b55d:	09 c2                	or     %eax,%edx
    b55f:	48 8b 05 5a d8 00 00 	mov    0xd85a(%rip),%rax        # 18dc0 <g_671>
    b566:	88 10                	mov    %dl,(%rax)
    b568:	0f b6 00             	movzbl (%rax),%eax
    b56b:	0f b6 c0             	movzbl %al,%eax
    b56e:	89 de                	mov    %ebx,%esi
    b570:	89 c7                	mov    %eax,%edi
    b572:	e8 37 a6 ff ff       	callq  5bae <safe_mod_func_uint8_t_u_u>
    b577:	0f b6 c0             	movzbl %al,%eax
    b57a:	41 39 c4             	cmp    %eax,%r12d
    b57d:	80 bd 9c f1 ff ff 4a 	cmpb   $0x4a,-0xe64(%rbp)
    b584:	77 07                	ja     b58d <func_2+0xd12>
    b586:	ba b8 64 b3 88       	mov    $0x88b364b8,%edx
    b58b:	eb 05                	jmp    b592 <func_2+0xd17>
    b58d:	ba b9 64 b3 88       	mov    $0x88b364b9,%edx
    b592:	48 8b 85 78 f2 ff ff 	mov    -0xd88(%rbp),%rax
    b599:	48 8b 00             	mov    (%rax),%rax
    b59c:	89 10                	mov    %edx,(%rax)
    b59e:	83 bd c4 f1 ff ff 00 	cmpl   $0x0,-0xe3c(%rbp)
    b5a5:	0f 85 60 14 00 00    	jne    ca0b <func_2+0x2190>
    b5ab:	48 8b 85 78 f2 ff ff 	mov    -0xd88(%rbp),%rax
    b5b2:	48 8b 00             	mov    (%rax),%rax
    b5b5:	8b 95 98 f1 ff ff    	mov    -0xe68(%rbp),%edx
    b5bb:	89 10                	mov    %edx,(%rax)
    b5bd:	83 85 c4 f1 ff ff 01 	addl   $0x1,-0xe3c(%rbp)
    b5c4:	83 bd c4 f1 ff ff 1a 	cmpl   $0x1a,-0xe3c(%rbp)
    b5cb:	0f 85 29 fe ff ff    	jne    b3fa <func_2+0xb7f>
    b5d1:	eb 01                	jmp    b5d4 <func_2+0xd59>
    b5d3:	90                   	nop
    b5d4:	48 8b 85 78 f2 ff ff 	mov    -0xd88(%rbp),%rax
    b5db:	48 8b 00             	mov    (%rax),%rax
    b5de:	8b 00                	mov    (%rax),%eax
    b5e0:	98                   	cwtl   
    b5e1:	be 04 00 00 00       	mov    $0x4,%esi
    b5e6:	89 c7                	mov    %eax,%edi
    b5e8:	e8 f4 9e ff ff       	callq  54e1 <safe_lshift_func_int16_t_s_u>
    b5ed:	98                   	cwtl   
    b5ee:	89 85 f8 f3 ff ff    	mov    %eax,-0xc08(%rbp)
    b5f4:	8b 05 7a c0 00 00    	mov    0xc07a(%rip),%eax        # 17674 <g_861>
    b5fa:	83 e8 01             	sub    $0x1,%eax
    b5fd:	89 05 71 c0 00 00    	mov    %eax,0xc071(%rip)        # 17674 <g_861>
    b603:	8b 05 6b c0 00 00    	mov    0xc06b(%rip),%eax        # 17674 <g_861>
    b609:	85 c0                	test   %eax,%eax
    b60b:	0f 89 86 f9 ff ff    	jns    af97 <func_2+0x71c>
    b611:	c7 05 15 c0 00 00 00 	movl   $0x0,0xc015(%rip)        # 17630 <g_854>
    b618:	00 00 00 
    b61b:	e9 27 02 00 00       	jmpq   b847 <func_2+0xfcc>
    b620:	c7 85 f4 f1 ff ff ff 	movl   $0xffffffff,-0xe0c(%rbp)
    b627:	ff ff ff 
    b62a:	c7 85 f8 f1 ff ff 58 	movl   $0x821a0258,-0xe08(%rbp)
    b631:	02 1a 82 
    b634:	c7 85 d0 fb ff ff 00 	movl   $0x0,-0x430(%rbp)
    b63b:	00 00 00 
    b63e:	c7 85 d4 fb ff ff 01 	movl   $0x1,-0x42c(%rbp)
    b645:	00 00 00 
    b648:	c7 85 d8 fb ff ff 01 	movl   $0x1,-0x428(%rbp)
    b64f:	00 00 00 
    b652:	c7 85 dc fb ff ff ff 	movl   $0xffffffff,-0x424(%rbp)
    b659:	ff ff ff 
    b65c:	c7 85 e0 fb ff ff 01 	movl   $0x1,-0x420(%rbp)
    b663:	00 00 00 
    b666:	c7 85 e4 fb ff ff 01 	movl   $0x1,-0x41c(%rbp)
    b66d:	00 00 00 
    b670:	c7 85 e8 fb ff ff 00 	movl   $0x0,-0x418(%rbp)
    b677:	00 00 00 
    b67a:	c7 85 ec fb ff ff 01 	movl   $0x1,-0x414(%rbp)
    b681:	00 00 00 
    b684:	c7 85 f0 fb ff ff 01 	movl   $0x1,-0x410(%rbp)
    b68b:	00 00 00 
    b68e:	c7 85 f4 fb ff ff ff 	movl   $0xffffffff,-0x40c(%rbp)
    b695:	ff ff ff 
    b698:	c7 85 f8 fb ff ff 01 	movl   $0x1,-0x408(%rbp)
    b69f:	00 00 00 
    b6a2:	c7 85 fc fb ff ff 01 	movl   $0x1,-0x404(%rbp)
    b6a9:	00 00 00 
    b6ac:	c6 05 7d b9 00 00 00 	movb   $0x0,0xb97d(%rip)        # 17030 <g_26>
    b6b3:	eb 71                	jmp    b726 <func_2+0xeab>
    b6b5:	c7 05 55 bf 00 00 00 	movl   $0x0,0xbf55(%rip)        # 17614 <g_846>
    b6bc:	00 00 00 
    b6bf:	eb 4a                	jmp    b70b <func_2+0xe90>
    b6c1:	0f b6 05 68 b9 00 00 	movzbl 0xb968(%rip),%eax        # 17030 <g_26>
    b6c8:	0f be c0             	movsbl %al,%eax
    b6cb:	8b 15 43 bf 00 00    	mov    0xbf43(%rip),%edx        # 17614 <g_846>
    b6d1:	48 63 ca             	movslq %edx,%rcx
    b6d4:	48 63 d0             	movslq %eax,%rdx
    b6d7:	48 89 d0             	mov    %rdx,%rax
    b6da:	48 01 c0             	add    %rax,%rax
    b6dd:	48 01 d0             	add    %rdx,%rax
    b6e0:	48 01 c0             	add    %rax,%rax
    b6e3:	48 01 c8             	add    %rcx,%rax
    b6e6:	48 8d 14 85 00 00 00 	lea    0x0(,%rax,4),%rdx
    b6ed:	00 
    b6ee:	48 8d 05 8b bc 00 00 	lea    0xbc8b(%rip),%rax        # 17380 <g_226>
    b6f5:	c7 04 02 ff ff ff ff 	movl   $0xffffffff,(%rdx,%rax,1)
    b6fc:	8b 05 12 bf 00 00    	mov    0xbf12(%rip),%eax        # 17614 <g_846>
    b702:	83 c0 01             	add    $0x1,%eax
    b705:	89 05 09 bf 00 00    	mov    %eax,0xbf09(%rip)        # 17614 <g_846>
    b70b:	8b 05 03 bf 00 00    	mov    0xbf03(%rip),%eax        # 17614 <g_846>
    b711:	83 f8 05             	cmp    $0x5,%eax
    b714:	7e ab                	jle    b6c1 <func_2+0xe46>
    b716:	0f b6 05 13 b9 00 00 	movzbl 0xb913(%rip),%eax        # 17030 <g_26>
    b71d:	83 c0 01             	add    $0x1,%eax
    b720:	88 05 0a b9 00 00    	mov    %al,0xb90a(%rip)        # 17030 <g_26>
    b726:	0f b6 05 03 b9 00 00 	movzbl 0xb903(%rip),%eax        # 17030 <g_26>
    b72d:	3c 02                	cmp    $0x2,%al
    b72f:	7e 84                	jle    b6b5 <func_2+0xe3a>
    b731:	8b 05 f9 be 00 00    	mov    0xbef9(%rip),%eax        # 17630 <g_854>
    b737:	83 c0 05             	add    $0x5,%eax
    b73a:	48 98                	cltq   
    b73c:	48 8d 14 85 00 00 00 	lea    0x0(,%rax,4),%rdx
    b743:	00 
    b744:	48 8d 05 75 c3 00 00 	lea    0xc375(%rip),%rax        # 17ac0 <g_875>
    b74b:	8b 14 02             	mov    (%rdx,%rax,1),%edx
    b74e:	8b 05 dc be 00 00    	mov    0xbedc(%rip),%eax        # 17630 <g_854>
    b754:	48 98                	cltq   
    b756:	8b 84 85 00 f4 ff ff 	mov    -0xc00(%rbp,%rax,4),%eax
    b75d:	8b 0d cd be 00 00    	mov    0xbecd(%rip),%ecx        # 17630 <g_854>
    b763:	8d 71 05             	lea    0x5(%rcx),%esi
    b766:	89 d1                	mov    %edx,%ecx
    b768:	09 c1                	or     %eax,%ecx
    b76a:	48 63 c6             	movslq %esi,%rax
    b76d:	48 8d 14 85 00 00 00 	lea    0x0(,%rax,4),%rdx
    b774:	00 
    b775:	48 8d 05 44 c3 00 00 	lea    0xc344(%rip),%rax        # 17ac0 <g_875>
    b77c:	89 0c 02             	mov    %ecx,(%rdx,%rax,1)
    b77f:	c7 05 d3 be 00 00 00 	movl   $0x0,0xbed3(%rip)        # 1765c <g_859>
    b786:	00 00 00 
    b789:	e9 9b 00 00 00       	jmpq   b829 <func_2+0xfae>
    b78e:	c7 85 50 f5 ff ff 01 	movl   $0x1,-0xab0(%rbp)
    b795:	00 00 00 
    b798:	c7 85 54 f5 ff ff 01 	movl   $0x1,-0xaac(%rbp)
    b79f:	00 00 00 
    b7a2:	c7 85 58 f5 ff ff 01 	movl   $0x1,-0xaa8(%rbp)
    b7a9:	00 00 00 
    b7ac:	c7 85 5c f5 ff ff 01 	movl   $0x1,-0xaa4(%rbp)
    b7b3:	00 00 00 
    b7b6:	c7 85 60 f5 ff ff 01 	movl   $0x1,-0xaa0(%rbp)
    b7bd:	00 00 00 
    b7c0:	c7 85 64 f5 ff ff 01 	movl   $0x1,-0xa9c(%rbp)
    b7c7:	00 00 00 
    b7ca:	c7 85 68 f5 ff ff 01 	movl   $0x1,-0xa98(%rbp)
    b7d1:	00 00 00 
    b7d4:	c7 85 6c f5 ff ff 01 	movl   $0x1,-0xa94(%rbp)
    b7db:	00 00 00 
    b7de:	c7 85 70 f5 ff ff 01 	movl   $0x1,-0xa90(%rbp)
    b7e5:	00 00 00 
    b7e8:	83 85 c8 f1 ff ff 01 	addl   $0x1,-0xe38(%rbp)
    b7ef:	8b 05 67 be 00 00    	mov    0xbe67(%rip),%eax        # 1765c <g_859>
    b7f5:	48 98                	cltq   
    b7f7:	8b 84 85 00 f4 ff ff 	mov    -0xc00(%rbp,%rax,4),%eax
    b7fe:	85 c0                	test   %eax,%eax
    b800:	74 11                	je     b813 <func_2+0xf98>
    b802:	8b 05 54 be 00 00    	mov    0xbe54(%rip),%eax        # 1765c <g_859>
    b808:	83 c0 01             	add    $0x1,%eax
    b80b:	89 05 4b be 00 00    	mov    %eax,0xbe4b(%rip)        # 1765c <g_859>
    b811:	eb 16                	jmp    b829 <func_2+0xfae>
    b813:	8b 05 43 be 00 00    	mov    0xbe43(%rip),%eax        # 1765c <g_859>
    b819:	48 98                	cltq   
    b81b:	8b 84 85 00 f4 ff ff 	mov    -0xc00(%rbp,%rax,4),%eax
    b822:	48 98                	cltq   
    b824:	e9 64 15 00 00       	jmpq   cd8d <func_2+0x2512>
    b829:	8b 05 2d be 00 00    	mov    0xbe2d(%rip),%eax        # 1765c <g_859>
    b82f:	83 f8 03             	cmp    $0x3,%eax
    b832:	0f 8e 56 ff ff ff    	jle    b78e <func_2+0xf13>
    b838:	8b 05 f2 bd 00 00    	mov    0xbdf2(%rip),%eax        # 17630 <g_854>
    b83e:	83 c0 01             	add    $0x1,%eax
    b841:	89 05 e9 bd 00 00    	mov    %eax,0xbde9(%rip)        # 17630 <g_854>
    b847:	8b 05 e3 bd 00 00    	mov    0xbde3(%rip),%eax        # 17630 <g_854>
    b84d:	83 f8 03             	cmp    $0x3,%eax
    b850:	0f 8e ca fd ff ff    	jle    b620 <func_2+0xda5>
    b856:	e9 f4 01 00 00       	jmpq   ba4f <func_2+0x11d4>
    b85b:	48 c7 85 30 f3 ff ff 	movq   $0x0,-0xcd0(%rbp)
    b862:	00 00 00 00 
    b866:	48 8d 85 40 f2 ff ff 	lea    -0xdc0(%rbp),%rax
    b86d:	48 89 85 38 f3 ff ff 	mov    %rax,-0xcc8(%rbp)
    b874:	c7 85 e8 f1 ff ff 29 	movl   $0xc2ea9829,-0xe18(%rbp)
    b87b:	98 ea c2 
    b87e:	48 8d 05 43 ba 00 00 	lea    0xba43(%rip),%rax        # 172c8 <g_196+0x8>
    b885:	48 89 85 40 f3 ff ff 	mov    %rax,-0xcc0(%rbp)
    b88c:	48 8b 85 60 f2 ff ff 	mov    -0xda0(%rbp),%rax
    b893:	8b 00                	mov    (%rax),%eax
    b895:	0f be d8             	movsbl %al,%ebx
    b898:	0f b6 85 9c f1 ff ff 	movzbl -0xe64(%rbp),%eax
    b89f:	89 85 90 f1 ff ff    	mov    %eax,-0xe70(%rbp)
    b8a5:	44 8b 25 9c bd 00 00 	mov    0xbd9c(%rip),%r12d        # 17648 <g_857+0x8>
    b8ac:	48 8b 85 68 f2 ff ff 	mov    -0xd98(%rbp),%rax
    b8b3:	0f b7 10             	movzwl (%rax),%edx
    b8b6:	8b 85 98 f1 ff ff    	mov    -0xe68(%rbp),%eax
    b8bc:	89 c1                	mov    %eax,%ecx
    b8be:	48 8b 85 68 f2 ff ff 	mov    -0xd98(%rbp),%rax
    b8c5:	09 ca                	or     %ecx,%edx
    b8c7:	66 89 10             	mov    %dx,(%rax)
    b8ca:	44 0f b6 ad 9c f1 ff 	movzbl -0xe64(%rbp),%r13d
    b8d1:	ff 
    b8d2:	44 0f b6 b5 9c f1 ff 	movzbl -0xe64(%rbp),%r14d
    b8d9:	ff 
    b8da:	8b 85 e8 f1 ff ff    	mov    -0xe18(%rbp),%eax
    b8e0:	44 0f b7 f8          	movzwl %ax,%r15d
    b8e4:	48 83 bd c0 f2 ff ff 	cmpq   $0x0,-0xd40(%rbp)
    b8eb:	00 
    b8ec:	0f 94 c0             	sete   %al
    b8ef:	0f b6 c0             	movzbl %al,%eax
    b8f2:	8b 95 e0 f1 ff ff    	mov    -0xe20(%rbp),%edx
    b8f8:	89 d6                	mov    %edx,%esi
    b8fa:	89 c7                	mov    %eax,%edi
    b8fc:	e8 04 a3 ff ff       	callq  5c05 <safe_lshift_func_uint8_t_u_s>
    b901:	38 85 9c f1 ff ff    	cmp    %al,-0xe64(%rbp)
    b907:	0f b6 8d 9c f1 ff ff 	movzbl -0xe64(%rbp),%ecx
    b90e:	48 8b 95 40 f2 ff ff 	mov    -0xdc0(%rbp),%rdx
    b915:	48 8b 85 38 f3 ff ff 	mov    -0xcc8(%rbp),%rax
    b91c:	48 89 10             	mov    %rdx,(%rax)
    b91f:	48 8b 85 38 f3 ff ff 	mov    -0xcc8(%rbp),%rax
    b926:	48 8b 10             	mov    (%rax),%rdx
    b929:	48 8b 85 80 f2 ff ff 	mov    -0xd80(%rbp),%rax
    b930:	48 39 c2             	cmp    %rax,%rdx
    b933:	0f 95 c0             	setne  %al
    b936:	0f b6 c0             	movzbl %al,%eax
    b939:	39 c1                	cmp    %eax,%ecx
    b93b:	0f 9d c0             	setge  %al
    b93e:	0f b6 d0             	movzbl %al,%edx
    b941:	8b 85 94 f1 ff ff    	mov    -0xe6c(%rbp),%eax
    b947:	39 c2                	cmp    %eax,%edx
    b949:	0f 95 c0             	setne  %al
    b94c:	0f b6 c0             	movzbl %al,%eax
    b94f:	44 89 fe             	mov    %r15d,%esi
    b952:	89 c7                	mov    %eax,%edi
    b954:	e8 e4 a3 ff ff       	callq  5d3d <safe_mul_func_uint16_t_u_u>
    b959:	0f b7 c0             	movzwl %ax,%eax
    b95c:	48 be 38 1f 93 fe 8f 	movabs $0x96fa208ffe931f38,%rsi
    b963:	20 fa 96 
    b966:	48 89 c7             	mov    %rax,%rdi
    b969:	e8 d3 9e ff ff       	callq  5841 <safe_add_func_int64_t_s_s>
    b96e:	8b 15 b8 bc 00 00    	mov    0xbcb8(%rip),%edx        # 1762c <g_853>
    b974:	8b 05 aa b6 00 00    	mov    0xb6aa(%rip),%eax        # 17024 <g_11>
    b97a:	39 c2                	cmp    %eax,%edx
    b97c:	0f 94 c0             	sete   %al
    b97f:	0f b6 d0             	movzbl %al,%edx
    b982:	48 8b 85 40 f3 ff ff 	mov    -0xcc0(%rbp),%rax
    b989:	48 89 10             	mov    %rdx,(%rax)
    b98c:	48 8b 85 40 f3 ff ff 	mov    -0xcc0(%rbp),%rax
    b993:	48 8b 00             	mov    (%rax),%rax
    b996:	4c 89 f6             	mov    %r14,%rsi
    b999:	48 89 c7             	mov    %rax,%rdi
    b99c:	e8 0e a7 ff ff       	callq  60af <safe_div_func_uint64_t_u_u>
    b9a1:	0f b7 c0             	movzwl %ax,%eax
    b9a4:	44 89 ee             	mov    %r13d,%esi
    b9a7:	89 c7                	mov    %eax,%edi
    b9a9:	e8 e0 a3 ff ff       	callq  5d8e <safe_div_func_uint16_t_u_u>
    b9ae:	66 85 c0             	test   %ax,%ax
    b9b1:	75 0a                	jne    b9bd <func_2+0x1142>
    b9b3:	8b 85 94 f1 ff ff    	mov    -0xe6c(%rbp),%eax
    b9b9:	85 c0                	test   %eax,%eax
    b9bb:	74 07                	je     b9c4 <func_2+0x1149>
    b9bd:	b8 01 00 00 00       	mov    $0x1,%eax
    b9c2:	eb 05                	jmp    b9c9 <func_2+0x114e>
    b9c4:	b8 00 00 00 00       	mov    $0x0,%eax
    b9c9:	0f be c0             	movsbl %al,%eax
    b9cc:	be 06 00 00 00       	mov    $0x6,%esi
    b9d1:	89 c7                	mov    %eax,%edi
    b9d3:	e8 94 99 ff ff       	callq  536c <safe_rshift_func_int8_t_s_u>
    b9d8:	0f be d0             	movsbl %al,%edx
    b9db:	8b 05 47 e6 00 00    	mov    0xe647(%rip),%eax        # 1a028 <g_852>
    b9e1:	31 d0                	xor    %edx,%eax
    b9e3:	89 c2                	mov    %eax,%edx
    b9e5:	8b 85 98 f1 ff ff    	mov    -0xe68(%rbp),%eax
    b9eb:	89 d6                	mov    %edx,%esi
    b9ed:	89 c7                	mov    %eax,%edi
    b9ef:	e8 c4 a4 ff ff       	callq  5eb8 <safe_add_func_uint32_t_u_u>
    b9f4:	44 89 e6             	mov    %r12d,%esi
    b9f7:	89 c7                	mov    %eax,%edi
    b9f9:	e8 b8 9b ff ff       	callq  55b6 <safe_add_func_int32_t_s_s>
    b9fe:	85 c0                	test   %eax,%eax
    ba00:	74 07                	je     ba09 <func_2+0x118e>
    ba02:	80 bd 9c f1 ff ff 00 	cmpb   $0x0,-0xe64(%rbp)
    ba09:	8b 85 d8 f1 ff ff    	mov    -0xe28(%rbp),%eax
    ba0f:	0f be c0             	movsbl %al,%eax
    ba12:	be 03 00 00 00       	mov    $0x3,%esi
    ba17:	89 c7                	mov    %eax,%edi
    ba19:	e8 d0 98 ff ff       	callq  52ee <safe_lshift_func_int8_t_s_u>
    ba1e:	0f be d0             	movsbl %al,%edx
    ba21:	0f b6 85 9c f1 ff ff 	movzbl -0xe64(%rbp),%eax
    ba28:	09 d0                	or     %edx,%eax
    ba2a:	39 85 90 f1 ff ff    	cmp    %eax,-0xe70(%rbp)
    ba30:	0f 94 c0             	sete   %al
    ba33:	f7 d0                	not    %eax
    ba35:	0f be c0             	movsbl %al,%eax
    ba38:	89 de                	mov    %ebx,%esi
    ba3a:	89 c7                	mov    %eax,%edi
    ba3c:	e8 b1 97 ff ff       	callq  51f2 <safe_sub_func_int8_t_s_s>
    ba41:	89 c2                	mov    %eax,%edx
    ba43:	48 8b 85 60 f2 ff ff 	mov    -0xda0(%rbp),%rax
    ba4a:	0f be d2             	movsbl %dl,%edx
    ba4d:	89 10                	mov    %edx,(%rax)
    ba4f:	48 8b 95 68 f2 ff ff 	mov    -0xd98(%rbp),%rdx
    ba56:	48 8b 85 18 f3 ff ff 	mov    -0xce8(%rbp),%rax
    ba5d:	48 89 10             	mov    %rdx,(%rax)
    ba60:	48 8b 85 18 f3 ff ff 	mov    -0xce8(%rbp),%rax
    ba67:	48 8b 00             	mov    (%rax),%rax
    ba6a:	48 39 85 20 f3 ff ff 	cmp    %rax,-0xce0(%rbp)
    ba71:	0f 85 4f 02 00 00    	jne    bcc6 <func_2+0x144b>
    ba77:	48 8d 85 60 f2 ff ff 	lea    -0xda0(%rbp),%rax
    ba7e:	48 89 85 d8 f3 ff ff 	mov    %rax,-0xc28(%rbp)
    ba85:	48 c7 85 a8 f2 ff ff 	movq   $0x0,-0xd58(%rbp)
    ba8c:	00 00 00 00 
    ba90:	48 8d 85 a8 f2 ff ff 	lea    -0xd58(%rbp),%rax
    ba97:	48 89 85 b0 f2 ff ff 	mov    %rax,-0xd50(%rbp)
    ba9e:	48 8d 85 b0 f2 ff ff 	lea    -0xd50(%rbp),%rax
    baa5:	48 89 85 b8 f2 ff ff 	mov    %rax,-0xd48(%rbp)
    baac:	48 8d 85 b8 f2 ff ff 	lea    -0xd48(%rbp),%rax
    bab3:	48 89 85 e0 f3 ff ff 	mov    %rax,-0xc20(%rbp)
    baba:	48 8d 85 b8 f2 ff ff 	lea    -0xd48(%rbp),%rax
    bac1:	48 89 85 e8 f3 ff ff 	mov    %rax,-0xc18(%rbp)
    bac8:	c7 05 a6 bb 00 00 f7 	movl   $0xfffffff7,0xbba6(%rip)        # 17678 <g_862>
    bacf:	ff ff ff 
    bad2:	eb 32                	jmp    bb06 <func_2+0x128b>
    bad4:	48 8b 85 78 f2 ff ff 	mov    -0xd88(%rbp),%rax
    badb:	48 8b 00             	mov    (%rax),%rax
    bade:	8b 08                	mov    (%rax),%ecx
    bae0:	48 8b 85 60 f2 ff ff 	mov    -0xda0(%rbp),%rax
    bae7:	8b 10                	mov    (%rax),%edx
    bae9:	48 8b 85 78 f2 ff ff 	mov    -0xd88(%rbp),%rax
    baf0:	48 8b 00             	mov    (%rax),%rax
    baf3:	21 ca                	and    %ecx,%edx
    baf5:	89 10                	mov    %edx,(%rax)
    baf7:	8b 05 7b bb 00 00    	mov    0xbb7b(%rip),%eax        # 17678 <g_862>
    bafd:	83 c0 01             	add    $0x1,%eax
    bb00:	89 05 72 bb 00 00    	mov    %eax,0xbb72(%rip)        # 17678 <g_862>
    bb06:	8b 05 6c bb 00 00    	mov    0xbb6c(%rip),%eax        # 17678 <g_862>
    bb0c:	83 f8 fe             	cmp    $0xfffffffe,%eax
    bb0f:	7c c3                	jl     bad4 <func_2+0x1259>
    bb11:	48 83 bd d8 f3 ff ff 	cmpq   $0x0,-0xc28(%rbp)
    bb18:	00 
    bb19:	74 0d                	je     bb28 <func_2+0x12ad>
    bb1b:	8b 85 94 f1 ff ff    	mov    -0xe6c(%rbp),%eax
    bb21:	89 c0                	mov    %eax,%eax
    bb23:	e9 65 12 00 00       	jmpq   cd8d <func_2+0x2512>
    bb28:	48 8d 85 d0 fb ff ff 	lea    -0x430(%rbp),%rax
    bb2f:	48 8d 15 ea 7f 00 00 	lea    0x7fea(%rip),%rdx        # 13b20 <g_1778+0xac4>
    bb36:	b9 7e 00 00 00       	mov    $0x7e,%ecx
    bb3b:	48 89 c7             	mov    %rax,%rdi
    bb3e:	48 89 d6             	mov    %rdx,%rsi
    bb41:	f3 48 a5             	rep movsq %ds:(%rsi),%es:(%rdi)
    bb44:	48 8d 85 80 f2 ff ff 	lea    -0xd80(%rbp),%rax
    bb4b:	48 89 85 f0 f3 ff ff 	mov    %rax,-0xc10(%rbp)
    bb52:	c6 85 b7 f1 ff ff f9 	movb   $0xf9,-0xe49(%rbp)
    bb59:	8b 9d 98 f1 ff ff    	mov    -0xe68(%rbp),%ebx
    bb5f:	48 8b 05 12 d7 00 00 	mov    0xd712(%rip),%rax        # 19278 <g_1072>
    bb66:	44 8b 28             	mov    (%rax),%r13d
    bb69:	0f b6 85 9c f1 ff ff 	movzbl -0xe64(%rbp),%eax
    bb70:	f7 d0                	not    %eax
    bb72:	41 89 c6             	mov    %eax,%r14d
    bb75:	8b 85 f8 f3 ff ff    	mov    -0xc08(%rbp),%eax
    bb7b:	44 0f be e0          	movsbl %al,%r12d
    bb7f:	48 8b 85 68 f2 ff ff 	mov    -0xd98(%rbp),%rax
    bb86:	0f b6 95 9c f1 ff ff 	movzbl -0xe64(%rbp),%edx
    bb8d:	66 89 10             	mov    %dx,(%rax)
    bb90:	0f b7 00             	movzwl (%rax),%eax
    bb93:	0f b7 c0             	movzwl %ax,%eax
    bb96:	be 08 00 00 00       	mov    $0x8,%esi
    bb9b:	89 c7                	mov    %eax,%edi
    bb9d:	e8 a6 a2 ff ff       	callq  5e48 <safe_rshift_func_uint16_t_u_s>
    bba2:	8b 85 98 f1 ff ff    	mov    -0xe68(%rbp),%eax
    bba8:	48 89 c6             	mov    %rax,%rsi
    bbab:	bf 00 00 00 00       	mov    $0x0,%edi
    bbb0:	e8 cb a4 ff ff       	callq  6080 <safe_mod_func_uint64_t_u_u>
    bbb5:	f7 d0                	not    %eax
    bbb7:	89 c2                	mov    %eax,%edx
    bbb9:	48 8b 85 20 f3 ff ff 	mov    -0xce0(%rbp),%rax
    bbc0:	66 89 10             	mov    %dx,(%rax)
    bbc3:	48 8b 85 20 f3 ff ff 	mov    -0xce0(%rbp),%rax
    bbca:	0f b7 00             	movzwl (%rax),%eax
    bbcd:	66 3d 27 3f          	cmp    $0x3f27,%ax
    bbd1:	0f 97 c0             	seta   %al
    bbd4:	0f b6 c0             	movzbl %al,%eax
    bbd7:	89 c6                	mov    %eax,%esi
    bbd9:	bf 19 6e 00 00       	mov    $0x6e19,%edi
    bbde:	e8 1c a1 ff ff       	callq  5cff <safe_add_func_uint16_t_u_u>
    bbe3:	48 8b 85 20 f6 ff ff 	mov    -0x9e0(%rbp),%rax
    bbea:	48 8d 15 d3 c1 00 00 	lea    0xc1d3(%rip),%rdx        # 17dc4 <g_1039+0x4>
    bbf1:	48 39 d0             	cmp    %rdx,%rax
    bbf4:	0f 95 c0             	setne  %al
    bbf7:	0f b6 c0             	movzbl %al,%eax
    bbfa:	be 00 00 00 00       	mov    $0x0,%esi
    bbff:	89 c7                	mov    %eax,%edi
    bc01:	e8 74 a2 ff ff       	callq  5e7a <safe_rshift_func_uint16_t_u_u>
    bc06:	0f be c0             	movsbl %al,%eax
    bc09:	be 04 00 00 00       	mov    $0x4,%esi
    bc0e:	89 c7                	mov    %eax,%edi
    bc10:	e8 d9 96 ff ff       	callq  52ee <safe_lshift_func_int8_t_s_u>
    bc15:	48 8b 85 f0 f2 ff ff 	mov    -0xd10(%rbp),%rax
    bc1c:	48 89 85 e0 f3 ff ff 	mov    %rax,-0xc20(%rbp)
    bc23:	48 8b 85 e0 f3 ff ff 	mov    -0xc20(%rbp),%rax
    bc2a:	48 89 85 e8 f3 ff ff 	mov    %rax,-0xc18(%rbp)
    bc31:	48 83 bd e8 f3 ff ff 	cmpq   $0x0,-0xc18(%rbp)
    bc38:	00 
    bc39:	0f 94 c0             	sete   %al
    bc3c:	0f b6 c0             	movzbl %al,%eax
    bc3f:	39 85 98 f1 ff ff    	cmp    %eax,-0xe68(%rbp)
    bc45:	44 89 e6             	mov    %r12d,%esi
    bc48:	bf 00 00 00 00       	mov    $0x0,%edi
    bc4d:	e8 82 95 ff ff       	callq  51d4 <safe_add_func_int8_t_s_s>
    bc52:	0f be c0             	movsbl %al,%eax
    bc55:	44 09 f0             	or     %r14d,%eax
    bc58:	41 39 c5             	cmp    %eax,%r13d
    bc5b:	7e 07                	jle    bc64 <func_2+0x13e9>
    bc5d:	80 bd 9c f1 ff ff 00 	cmpb   $0x0,-0xe64(%rbp)
    bc64:	48 8b 85 f0 f3 ff ff 	mov    -0xc10(%rbp),%rax
    bc6b:	48 c7 00 00 00 00 00 	movq   $0x0,(%rax)
    bc72:	48 8b 85 f0 f3 ff ff 	mov    -0xc10(%rbp),%rax
    bc79:	48 8b 00             	mov    (%rax),%rax
    bc7c:	48 85 c0             	test   %rax,%rax
    bc7f:	0f 95 c0             	setne  %al
    bc82:	0f b6 c0             	movzbl %al,%eax
    bc85:	be 06 00 00 00       	mov    $0x6,%esi
    bc8a:	89 c7                	mov    %eax,%edi
    bc8c:	e8 fc 9f ff ff       	callq  5c8d <safe_rshift_func_uint8_t_u_s>
    bc91:	0f b6 c0             	movzbl %al,%eax
    bc94:	89 de                	mov    %ebx,%esi
    bc96:	89 c7                	mov    %eax,%edi
    bc98:	e8 8d 98 ff ff       	callq  552a <safe_rshift_func_int16_t_s_s>
    bc9d:	98                   	cwtl   
    bc9e:	23 85 98 f1 ff ff    	and    -0xe68(%rbp),%eax
    bca4:	89 c2                	mov    %eax,%edx
    bca6:	0f b6 85 b7 f1 ff ff 	movzbl -0xe49(%rbp),%eax
    bcad:	39 c2                	cmp    %eax,%edx
    bcaf:	0f 93 c2             	setae  %dl
    bcb2:	48 8b 85 d8 f3 ff ff 	mov    -0xc28(%rbp),%rax
    bcb9:	48 8b 00             	mov    (%rax),%rax
    bcbc:	0f b6 d2             	movzbl %dl,%edx
    bcbf:	89 10                	mov    %edx,(%rax)
    bcc1:	e9 f2 0c 00 00       	jmpq   c9b8 <func_2+0x213d>
    bcc6:	48 8d 05 5b b3 00 00 	lea    0xb35b(%rip),%rax        # 17028 <g_14>
    bccd:	48 89 85 98 f2 ff ff 	mov    %rax,-0xd68(%rbp)
    bcd4:	48 8d 05 ed b5 00 00 	lea    0xb5ed(%rip),%rax        # 172c8 <g_196+0x8>
    bcdb:	48 89 85 68 f3 ff ff 	mov    %rax,-0xc98(%rbp)
    bce2:	c7 85 20 f2 ff ff ff 	movl   $0xffffffff,-0xde0(%rbp)
    bce9:	ff ff ff 
    bcec:	48 8d 85 48 f2 ff ff 	lea    -0xdb8(%rbp),%rax
    bcf3:	48 89 85 70 f3 ff ff 	mov    %rax,-0xc90(%rbp)
    bcfa:	c7 85 c0 f1 ff ff ff 	movl   $0xffffffff,-0xe40(%rbp)
    bd01:	ff ff ff 
    bd04:	48 c7 05 c1 b6 00 00 	movq   $0x1,0xb6c1(%rip)        # 173d0 <g_229>
    bd0b:	01 00 00 00 
    bd0f:	e9 ba 01 00 00       	jmpq   bece <func_2+0x1653>
    bd14:	48 c7 85 a0 f2 ff ff 	movq   $0x0,-0xd60(%rbp)
    bd1b:	00 00 00 00 
    bd1f:	48 8d 85 a0 f2 ff ff 	lea    -0xd60(%rbp),%rax
    bd26:	48 89 85 c0 f3 ff ff 	mov    %rax,-0xc40(%rbp)
    bd2d:	48 8d 05 4c e3 00 00 	lea    0xe34c(%rip),%rax        # 1a080 <g_1239>
    bd34:	48 89 85 a8 f2 ff ff 	mov    %rax,-0xd58(%rbp)
    bd3b:	48 8d 85 a8 f2 ff ff 	lea    -0xd58(%rbp),%rax
    bd42:	48 89 85 b0 f2 ff ff 	mov    %rax,-0xd50(%rbp)
    bd49:	48 8d 85 b0 f2 ff ff 	lea    -0xd50(%rbp),%rax
    bd50:	48 89 85 b8 f2 ff ff 	mov    %rax,-0xd48(%rbp)
    bd57:	48 8d 85 b8 f2 ff ff 	lea    -0xd48(%rbp),%rax
    bd5e:	48 89 85 c8 f3 ff ff 	mov    %rax,-0xc38(%rbp)
    bd65:	48 8d 05 5c b5 00 00 	lea    0xb55c(%rip),%rax        # 172c8 <g_196+0x8>
    bd6c:	48 89 85 d0 f3 ff ff 	mov    %rax,-0xc30(%rbp)
    bd73:	48 8b 85 c8 f3 ff ff 	mov    -0xc38(%rbp),%rax
    bd7a:	48 c7 00 00 00 00 00 	movq   $0x0,(%rax)
    bd81:	8b 85 98 f1 ff ff    	mov    -0xe68(%rbp),%eax
    bd87:	0f bf d8             	movswl %ax,%ebx
    bd8a:	48 8b 15 37 b5 00 00 	mov    0xb537(%rip),%rdx        # 172c8 <g_196+0x8>
    bd91:	0f b6 05 42 b6 00 00 	movzbl 0xb642(%rip),%eax        # 173da <g_233>
    bd98:	48 0f be c0          	movsbq %al,%rax
    bd9c:	48 39 c2             	cmp    %rax,%rdx
    bd9f:	0f 96 c0             	setbe  %al
    bda2:	0f b6 d0             	movzbl %al,%edx
    bda5:	48 8b 85 d0 f3 ff ff 	mov    -0xc30(%rbp),%rax
    bdac:	48 89 10             	mov    %rdx,(%rax)
    bdaf:	48 8b 85 d0 f3 ff ff 	mov    -0xc30(%rbp),%rax
    bdb6:	48 8b 00             	mov    (%rax),%rax
    bdb9:	48 85 c0             	test   %rax,%rax
    bdbc:	74 12                	je     bdd0 <func_2+0x1555>
    bdbe:	0f b6 05 ff bf 00 00 	movzbl 0xbfff(%rip),%eax        # 17dc4 <g_1039+0x4>
    bdc5:	84 c0                	test   %al,%al
    bdc7:	74 07                	je     bdd0 <func_2+0x1555>
    bdc9:	ba 01 00 00 00       	mov    $0x1,%edx
    bdce:	eb 05                	jmp    bdd5 <func_2+0x155a>
    bdd0:	ba 00 00 00 00       	mov    $0x0,%edx
    bdd5:	8b 85 68 fb ff ff    	mov    -0x498(%rbp),%eax
    bddb:	39 c2                	cmp    %eax,%edx
    bddd:	0f 95 c2             	setne  %dl
    bde0:	48 8b 85 60 f2 ff ff 	mov    -0xda0(%rbp),%rax
    bde7:	0f b6 d2             	movzbl %dl,%edx
    bdea:	89 10                	mov    %edx,(%rax)
    bdec:	48 8b 85 c8 f4 ff ff 	mov    -0xb38(%rbp),%rax
    bdf3:	48 39 85 28 f3 ff ff 	cmp    %rax,-0xcd8(%rbp)
    bdfa:	0f 94 c0             	sete   %al
    bdfd:	0f b6 d0             	movzbl %al,%edx
    be00:	0f b6 85 9c f1 ff ff 	movzbl -0xe64(%rbp),%eax
    be07:	39 c2                	cmp    %eax,%edx
    be09:	0f 9f c0             	setg   %al
    be0c:	0f b6 d0             	movzbl %al,%edx
    be0f:	0f be 85 b0 f1 ff ff 	movsbl -0xe50(%rbp),%eax
    be16:	21 d0                	and    %edx,%eax
    be18:	89 c2                	mov    %eax,%edx
    be1a:	8b 85 94 f1 ff ff    	mov    -0xe6c(%rbp),%eax
    be20:	39 c2                	cmp    %eax,%edx
    be22:	0f 92 c0             	setb   %al
    be25:	0f b6 c0             	movzbl %al,%eax
    be28:	be 02 00 00 00       	mov    $0x2,%esi
    be2d:	89 c7                	mov    %eax,%edi
    be2f:	e8 8a 9e ff ff       	callq  5cbe <safe_rshift_func_uint8_t_u_u>
    be34:	83 c8 95             	or     $0xffffff95,%eax
    be37:	0f b6 c0             	movzbl %al,%eax
    be3a:	89 c7                	mov    %eax,%edi
    be3c:	e8 04 9d ff ff       	callq  5b45 <safe_unary_minus_func_uint8_t_u>
    be41:	89 de                	mov    %ebx,%esi
    be43:	bf 01 00 00 00       	mov    $0x1,%edi
    be48:	e8 a8 95 ff ff       	callq  53f5 <safe_mul_func_int16_t_s_s>
    be4d:	48 8b 05 9c d2 00 00 	mov    0xd29c(%rip),%rax        # 190f0 <g_731>
    be54:	8b 85 94 f1 ff ff    	mov    -0xe6c(%rbp),%eax
    be5a:	39 85 98 f1 ff ff    	cmp    %eax,-0xe68(%rbp)
    be60:	0f 92 c0             	setb   %al
    be63:	0f b6 d0             	movzbl %al,%edx
    be66:	0f b6 85 9c f1 ff ff 	movzbl -0xe64(%rbp),%eax
    be6d:	39 c2                	cmp    %eax,%edx
    be6f:	80 bd 9c f1 ff ff ba 	cmpb   $0xba,-0xe64(%rbp)
    be76:	0f 97 c0             	seta   %al
    be79:	0f b6 c0             	movzbl %al,%eax
    be7c:	be 00 00 00 00       	mov    $0x0,%esi
    be81:	89 c7                	mov    %eax,%edi
    be83:	e8 4b 95 ff ff       	callq  53d3 <safe_sub_func_int16_t_s_s>
    be88:	98                   	cwtl   
    be89:	39 85 98 f1 ff ff    	cmp    %eax,-0xe68(%rbp)
    be8f:	0f 95 c0             	setne  %al
    be92:	0f b6 c0             	movzbl %al,%eax
    be95:	89 85 f8 f3 ff ff    	mov    %eax,-0xc08(%rbp)
    be9b:	48 8b 15 2e b5 00 00 	mov    0xb52e(%rip),%rdx        # 173d0 <g_229>
    bea2:	48 8b 85 98 f2 ff ff 	mov    -0xd68(%rbp),%rax
    bea9:	48 8d 0c d5 00 00 00 	lea    0x0(,%rdx,8),%rcx
    beb0:	00 
    beb1:	48 8d 15 e8 cc 00 00 	lea    0xcce8(%rip),%rdx        # 18ba0 <g_409>
    beb8:	48 89 04 11          	mov    %rax,(%rcx,%rdx,1)
    bebc:	48 8b 05 0d b5 00 00 	mov    0xb50d(%rip),%rax        # 173d0 <g_229>
    bec3:	48 83 e8 01          	sub    $0x1,%rax
    bec7:	48 89 05 02 b5 00 00 	mov    %rax,0xb502(%rip)        # 173d0 <g_229>
    bece:	48 8b 05 fb b4 00 00 	mov    0xb4fb(%rip),%rax        # 173d0 <g_229>
    bed5:	48 85 c0             	test   %rax,%rax
    bed8:	0f 89 36 fe ff ff    	jns    bd14 <func_2+0x1499>
    bede:	0f b6 9d 9c f1 ff ff 	movzbl -0xe64(%rbp),%ebx
    bee5:	8b 85 d8 f1 ff ff    	mov    -0xe28(%rbp),%eax
    beeb:	44 0f b7 e0          	movzwl %ax,%r12d
    beef:	48 8b 85 68 f3 ff ff 	mov    -0xc98(%rbp),%rax
    bef6:	48 8b 00             	mov    (%rax),%rax
    bef9:	48 8d 50 01          	lea    0x1(%rax),%rdx
    befd:	48 8b 85 68 f3 ff ff 	mov    -0xc98(%rbp),%rax
    bf04:	48 89 10             	mov    %rdx,(%rax)
    bf07:	b9 00 00 00 00       	mov    $0x0,%ecx
    bf0c:	48 8b 85 70 f2 ff ff 	mov    -0xd90(%rbp),%rax
    bf13:	48 8b 00             	mov    (%rax),%rax
    bf16:	0f b7 00             	movzwl (%rax),%eax
    bf19:	89 c2                	mov    %eax,%edx
    bf1b:	89 c8                	mov    %ecx,%eax
    bf1d:	09 c2                	or     %eax,%edx
    bf1f:	48 8b 85 70 f2 ff ff 	mov    -0xd90(%rbp),%rax
    bf26:	48 8b 00             	mov    (%rax),%rax
    bf29:	66 89 10             	mov    %dx,(%rax)
    bf2c:	0f b7 10             	movzwl (%rax),%edx
    bf2f:	48 8b 85 20 f3 ff ff 	mov    -0xce0(%rbp),%rax
    bf36:	0f b7 00             	movzwl (%rax),%eax
    bf39:	21 c2                	and    %eax,%edx
    bf3b:	48 8b 85 20 f3 ff ff 	mov    -0xce0(%rbp),%rax
    bf42:	66 89 10             	mov    %dx,(%rax)
    bf45:	48 8b 85 20 f3 ff ff 	mov    -0xce0(%rbp),%rax
    bf4c:	0f b7 00             	movzwl (%rax),%eax
    bf4f:	0f b7 c0             	movzwl %ax,%eax
    bf52:	89 85 b0 fb ff ff    	mov    %eax,-0x450(%rbp)
    bf58:	8b 85 b0 fb ff ff    	mov    -0x450(%rbp),%eax
    bf5e:	89 85 90 f1 ff ff    	mov    %eax,-0xe70(%rbp)
    bf64:	8b 05 52 b3 00 00    	mov    0xb352(%rip),%eax        # 172bc <g_183>
    bf6a:	44 0f be e8          	movsbl %al,%r13d
    bf6e:	8b 05 38 b7 00 00    	mov    0xb738(%rip),%eax        # 176ac <g_866>
    bf74:	89 c2                	mov    %eax,%edx
    bf76:	0f b6 05 eb b3 00 00 	movzbl 0xb3eb(%rip),%eax        # 17368 <g_224>
    bf7d:	21 d0                	and    %edx,%eax
    bf7f:	88 05 e3 b3 00 00    	mov    %al,0xb3e3(%rip)        # 17368 <g_224>
    bf85:	8b 85 cc f1 ff ff    	mov    -0xe34(%rbp),%eax
    bf8b:	44 0f be f0          	movsbl %al,%r14d
    bf8f:	44 0f b6 bd 9c f1 ff 	movzbl -0xe64(%rbp),%r15d
    bf96:	ff 
    bf97:	8b 05 73 b7 00 00    	mov    0xb773(%rip),%eax        # 17710 <g_871+0x30>
    bf9d:	89 85 8c f1 ff ff    	mov    %eax,-0xe74(%rbp)
    bfa3:	8b 85 f8 f3 ff ff    	mov    -0xc08(%rbp),%eax
    bfa9:	48 63 d0             	movslq %eax,%rdx
    bfac:	48 8b 85 98 f2 ff ff 	mov    -0xd68(%rbp),%rax
    bfb3:	8b 00                	mov    (%rax),%eax
    bfb5:	85 c0                	test   %eax,%eax
    bfb7:	0f 95 c0             	setne  %al
    bfba:	0f b6 c0             	movzbl %al,%eax
    bfbd:	48 89 d6             	mov    %rdx,%rsi
    bfc0:	48 89 c7             	mov    %rax,%rdi
    bfc3:	e8 e7 a0 ff ff       	callq  60af <safe_div_func_uint64_t_u_u>
    bfc8:	8b 95 98 f1 ff ff    	mov    -0xe68(%rbp),%edx
    bfce:	48 39 d0             	cmp    %rdx,%rax
    bfd1:	76 11                	jbe    bfe4 <func_2+0x1769>
    bfd3:	8b 05 7b b7 00 00    	mov    0xb77b(%rip),%eax        # 17754 <g_871+0x74>
    bfd9:	85 c0                	test   %eax,%eax
    bfdb:	74 07                	je     bfe4 <func_2+0x1769>
    bfdd:	b8 01 00 00 00       	mov    $0x1,%eax
    bfe2:	eb 05                	jmp    bfe9 <func_2+0x176e>
    bfe4:	b8 00 00 00 00       	mov    $0x0,%eax
    bfe9:	8b b5 8c f1 ff ff    	mov    -0xe74(%rbp),%esi
    bfef:	89 c7                	mov    %eax,%edi
    bff1:	e8 da 9e ff ff       	callq  5ed0 <safe_sub_func_uint32_t_u_u>
    bff6:	44 89 fe             	mov    %r15d,%esi
    bff9:	bf 00 00 00 00       	mov    $0x0,%edi
    bffe:	e8 77 9e ff ff       	callq  5e7a <safe_rshift_func_uint16_t_u_u>
    c003:	0f be c0             	movsbl %al,%eax
    c006:	44 89 f6             	mov    %r14d,%esi
    c009:	89 c7                	mov    %eax,%edi
    c00b:	e8 02 92 ff ff       	callq  5212 <safe_mul_func_int8_t_s_s>
    c010:	0f be d0             	movsbl %al,%edx
    c013:	0f b6 85 9c f1 ff ff 	movzbl -0xe64(%rbp),%eax
    c01a:	39 c2                	cmp    %eax,%edx
    c01c:	0f 94 c0             	sete   %al
    c01f:	0f b6 c0             	movzbl %al,%eax
    c022:	44 89 ee             	mov    %r13d,%esi
    c025:	89 c7                	mov    %eax,%edi
    c027:	e8 3e 92 ff ff       	callq  526a <safe_div_func_int8_t_s_s>
    c02c:	0f be c0             	movsbl %al,%eax
    c02f:	8b 95 90 f1 ff ff    	mov    -0xe70(%rbp),%edx
    c035:	09 c2                	or     %eax,%edx
    c037:	0f b7 05 a0 b3 00 00 	movzwl 0xb3a0(%rip),%eax        # 173de <g_299>
    c03e:	98                   	cwtl   
    c03f:	21 d0                	and    %edx,%eax
    c041:	3d 87 dd 91 38       	cmp    $0x3891dd87,%eax
    c046:	74 0a                	je     c052 <func_2+0x17d7>
    c048:	8b 85 f8 f3 ff ff    	mov    -0xc08(%rbp),%eax
    c04e:	85 c0                	test   %eax,%eax
    c050:	74 07                	je     c059 <func_2+0x17de>
    c052:	b8 01 00 00 00       	mov    $0x1,%eax
    c057:	eb 05                	jmp    c05e <func_2+0x17e3>
    c059:	b8 00 00 00 00       	mov    $0x0,%eax
    c05e:	89 c2                	mov    %eax,%edx
    c060:	8b 85 94 f1 ff ff    	mov    -0xe6c(%rbp),%eax
    c066:	39 c2                	cmp    %eax,%edx
    c068:	0f 94 c0             	sete   %al
    c06b:	0f b6 c0             	movzbl %al,%eax
    c06e:	44 89 e6             	mov    %r12d,%esi
    c071:	89 c7                	mov    %eax,%edi
    c073:	e8 16 9d ff ff       	callq  5d8e <safe_div_func_uint16_t_u_u>
    c078:	0f be c0             	movsbl %al,%eax
    c07b:	89 c7                	mov    %eax,%edi
    c07d:	e8 3d 91 ff ff       	callq  51bf <safe_unary_minus_func_int8_t_s>
    c082:	48 0f be c0          	movsbq %al,%rax
    c086:	48 89 de             	mov    %rbx,%rsi
    c089:	48 89 c7             	mov    %rax,%rdi
    c08c:	e8 ba 9f ff ff       	callq  604b <safe_sub_func_uint64_t_u_u>
    c091:	48 ba 5f 98 b7 a6 b8 	movabs $0x582cb5b8a6b7985f,%rdx
    c098:	b5 2c 58 
    c09b:	48 39 d0             	cmp    %rdx,%rax
    c09e:	0f 84 2d 02 00 00    	je     c2d1 <func_2+0x1a56>
    c0a4:	48 8d 85 af f1 ff ff 	lea    -0xe51(%rbp),%rax
    c0ab:	48 89 85 78 f3 ff ff 	mov    %rax,-0xc88(%rbp)
    c0b2:	48 8d 05 ff cc 00 00 	lea    0xccff(%rip),%rax        # 18db8 <g_665>
    c0b9:	48 89 85 80 f3 ff ff 	mov    %rax,-0xc80(%rbp)
    c0c0:	48 8d 05 d9 ca 00 00 	lea    0xcad9(%rip),%rax        # 18ba0 <g_409>
    c0c7:	48 89 85 b8 f2 ff ff 	mov    %rax,-0xd48(%rbp)
    c0ce:	48 8d 85 b8 f2 ff ff 	lea    -0xd48(%rbp),%rax
    c0d5:	48 89 85 88 f3 ff ff 	mov    %rax,-0xc78(%rbp)
    c0dc:	48 c7 85 90 f3 ff ff 	movq   $0x0,-0xc70(%rbp)
    c0e3:	00 00 00 00 
    c0e7:	c7 85 d4 f1 ff ff 00 	movl   $0x0,-0xe2c(%rbp)
    c0ee:	00 00 00 
    c0f1:	eb 1e                	jmp    c111 <func_2+0x1896>
    c0f3:	8b 85 d4 f1 ff ff    	mov    -0xe2c(%rbp),%eax
    c0f9:	48 98                	cltq   
    c0fb:	48 8d 15 da b2 00 00 	lea    0xb2da(%rip),%rdx        # 173dc <g_234>
    c102:	48 89 94 c5 d0 fb ff 	mov    %rdx,-0x430(%rbp,%rax,8)
    c109:	ff 
    c10a:	83 85 d4 f1 ff ff 01 	addl   $0x1,-0xe2c(%rbp)
    c111:	83 bd d4 f1 ff ff 01 	cmpl   $0x1,-0xe2c(%rbp)
    c118:	7e d9                	jle    c0f3 <func_2+0x1878>
    c11a:	48 8b 85 88 f3 ff ff 	mov    -0xc78(%rbp),%rax
    c121:	48 8d 15 80 ca 00 00 	lea    0xca80(%rip),%rdx        # 18ba8 <g_409+0x8>
    c128:	48 89 10             	mov    %rdx,(%rax)
    c12b:	48 8b 85 80 f3 ff ff 	mov    -0xc80(%rbp),%rax
    c132:	48 8b 95 08 f3 ff ff 	mov    -0xcf8(%rbp),%rdx
    c139:	48 89 10             	mov    %rdx,(%rax)
    c13c:	48 8d 05 39 b5 00 00 	lea    0xb539(%rip),%rax        # 1767c <g_863>
    c143:	48 89 85 98 f3 ff ff 	mov    %rax,-0xc68(%rbp)
    c14a:	8b 05 e0 b4 00 00    	mov    0xb4e0(%rip),%eax        # 17630 <g_854>
    c150:	85 c0                	test   %eax,%eax
    c152:	0f 85 b9 08 00 00    	jne    ca11 <func_2+0x2196>
    c158:	48 8b 85 b8 f2 ff ff 	mov    -0xd48(%rbp),%rax
    c15f:	48 8b 95 98 f3 ff ff 	mov    -0xc68(%rbp),%rdx
    c166:	48 89 10             	mov    %rdx,(%rax)
    c169:	48 8b 15 10 d1 00 00 	mov    0xd110(%rip),%rdx        # 19280 <g_1274>
    c170:	48 8b 00             	mov    (%rax),%rax
    c173:	48 89 02             	mov    %rax,(%rdx)
    c176:	0f b6 9d 9c f1 ff ff 	movzbl -0xe64(%rbp),%ebx
    c17d:	44 8b a5 94 f1 ff ff 	mov    -0xe6c(%rbp),%r12d
    c184:	8b 85 94 f1 ff ff    	mov    -0xe6c(%rbp),%eax
    c18a:	89 c2                	mov    %eax,%edx
    c18c:	8b 85 94 f1 ff ff    	mov    -0xe6c(%rbp),%eax
    c192:	89 c0                	mov    %eax,%eax
    c194:	48 89 d6             	mov    %rdx,%rsi
    c197:	48 89 c7             	mov    %rax,%rdi
    c19a:	e8 a2 96 ff ff       	callq  5841 <safe_add_func_int64_t_s_s>
    c19f:	48 c7 c6 f7 ff ff ff 	mov    $0xfffffffffffffff7,%rsi
    c1a6:	48 89 c7             	mov    %rax,%rdi
    c1a9:	e8 80 9e ff ff       	callq  602e <safe_add_func_uint64_t_u_u>
    c1ae:	89 c1                	mov    %eax,%ecx
    c1b0:	0f b6 05 19 de 00 00 	movzbl 0xde19(%rip),%eax        # 19fd0 <g_194>
    c1b7:	0f be d0             	movsbl %al,%edx
    c1ba:	48 8b 85 98 f2 ff ff 	mov    -0xd68(%rbp),%rax
    c1c1:	8b 00                	mov    (%rax),%eax
    c1c3:	39 c2                	cmp    %eax,%edx
    c1c5:	0f 94 c0             	sete   %al
    c1c8:	0f b6 c0             	movzbl %al,%eax
    c1cb:	89 ce                	mov    %ecx,%esi
    c1cd:	89 c7                	mov    %eax,%edi
    c1cf:	e8 a6 9c ff ff       	callq  5e7a <safe_rshift_func_uint16_t_u_u>
    c1d4:	66 3d 8d 3b          	cmp    $0x3b8d,%ax
    c1d8:	0f 97 c0             	seta   %al
    c1db:	0f b6 c0             	movzbl %al,%eax
    c1de:	8b 95 f8 f3 ff ff    	mov    -0xc08(%rbp),%edx
    c1e4:	31 d0                	xor    %edx,%eax
    c1e6:	98                   	cwtl   
    c1e7:	44 89 e6             	mov    %r12d,%esi
    c1ea:	89 c7                	mov    %eax,%edi
    c1ec:	e8 72 93 ff ff       	callq  5563 <safe_rshift_func_int16_t_s_u>
    c1f1:	66 85 c0             	test   %ax,%ax
    c1f4:	74 10                	je     c206 <func_2+0x198b>
    c1f6:	80 bd b0 f1 ff ff 00 	cmpb   $0x0,-0xe50(%rbp)
    c1fd:	74 07                	je     c206 <func_2+0x198b>
    c1ff:	ba 01 00 00 00       	mov    $0x1,%edx
    c204:	eb 05                	jmp    c20b <func_2+0x1990>
    c206:	ba 00 00 00 00       	mov    $0x0,%edx
    c20b:	0f b6 85 9c f1 ff ff 	movzbl -0xe64(%rbp),%eax
    c212:	21 c2                	and    %eax,%edx
    c214:	8b 85 cc f1 ff ff    	mov    -0xe34(%rbp),%eax
    c21a:	89 c6                	mov    %eax,%esi
    c21c:	89 d7                	mov    %edx,%edi
    c21e:	e8 a9 94 ff ff       	callq  56cc <safe_mod_func_int32_t_s_s>
    c223:	89 c6                	mov    %eax,%esi
    c225:	bf 0d ff ff ff       	mov    $0xffffff0d,%edi
    c22a:	e8 34 93 ff ff       	callq  5563 <safe_rshift_func_int16_t_s_u>
    c22f:	0f be c0             	movsbl %al,%eax
    c232:	be a2 ff ff ff       	mov    $0xffffffa2,%esi
    c237:	89 c7                	mov    %eax,%edi
    c239:	e8 f3 8f ff ff       	callq  5231 <safe_mod_func_int8_t_s_s>
    c23e:	80 bd 9c f1 ff ff 00 	cmpb   $0x0,-0xe64(%rbp)
    c245:	48 83 bd 90 f3 ff ff 	cmpq   $0x0,-0xc70(%rbp)
    c24c:	00 
    c24d:	0f 94 c0             	sete   %al
    c250:	0f b6 c0             	movzbl %al,%eax
    c253:	be 05 00 00 00       	mov    $0x5,%esi
    c258:	89 c7                	mov    %eax,%edi
    c25a:	e8 0b 90 ff ff       	callq  526a <safe_div_func_int8_t_s_s>
    c25f:	0f be d0             	movsbl %al,%edx
    c262:	0f b6 05 5d bb 00 00 	movzbl 0xbb5d(%rip),%eax        # 17dc6 <g_1039+0x6>
    c269:	0f be c0             	movsbl %al,%eax
    c26c:	89 d6                	mov    %edx,%esi
    c26e:	89 c7                	mov    %eax,%edi
    c270:	e8 bc 8f ff ff       	callq  5231 <safe_mod_func_int8_t_s_s>
    c275:	48 8b 95 d0 fb ff ff 	mov    -0x430(%rbp),%rdx
    c27c:	48 8b 85 50 f2 ff ff 	mov    -0xdb0(%rbp),%rax
    c283:	48 8b 00             	mov    (%rax),%rax
    c286:	48 39 c2             	cmp    %rax,%rdx
    c289:	0f 95 c0             	setne  %al
    c28c:	0f b6 c0             	movzbl %al,%eax
    c28f:	89 de                	mov    %ebx,%esi
    c291:	89 c7                	mov    %eax,%edi
    c293:	e8 1e 93 ff ff       	callq  55b6 <safe_add_func_int32_t_s_s>
    c298:	3d 6e 12 0f 13       	cmp    $0x130f126e,%eax
    c29d:	0f 9e c0             	setle  %al
    c2a0:	0f b6 c8             	movzbl %al,%ecx
    c2a3:	48 8b 05 de dd 00 00 	mov    0xddde(%rip),%rax        # 1a088 <g_1275>
    c2aa:	8b 10                	mov    (%rax),%edx
    c2ac:	48 8b 05 d5 dd 00 00 	mov    0xddd5(%rip),%rax        # 1a088 <g_1275>
    c2b3:	31 ca                	xor    %ecx,%edx
    c2b5:	89 10                	mov    %edx,(%rax)
    c2b7:	48 8b 85 98 f2 ff ff 	mov    -0xd68(%rbp),%rax
    c2be:	8b 10                	mov    (%rax),%edx
    c2c0:	48 8b 85 98 f2 ff ff 	mov    -0xd68(%rbp),%rax
    c2c7:	83 f2 01             	xor    $0x1,%edx
    c2ca:	89 10                	mov    %edx,(%rax)
    c2cc:	e9 18 01 00 00       	jmpq   c3e9 <func_2+0x1b6e>
    c2d1:	c7 85 24 f2 ff ff fb 	movl   $0xfffffffb,-0xddc(%rbp)
    c2d8:	ff ff ff 
    c2db:	c7 85 28 f2 ff ff f7 	movl   $0xfffffff7,-0xdd8(%rbp)
    c2e2:	ff ff ff 
    c2e5:	c7 85 2c f2 ff ff 03 	movl   $0x3,-0xdd4(%rbp)
    c2ec:	00 00 00 
    c2ef:	c7 05 2b ad 00 00 00 	movl   $0x0,0xad2b(%rip)        # 17024 <g_11>
    c2f6:	00 00 00 
    c2f9:	e9 b8 00 00 00       	jmpq   c3b6 <func_2+0x1b3b>
    c2fe:	c6 85 b6 f1 ff ff 04 	movb   $0x4,-0xe4a(%rbp)
    c305:	c7 85 30 f2 ff ff 00 	movl   $0x0,-0xdd0(%rbp)
    c30c:	00 00 00 
    c30f:	48 8b 05 da cd 00 00 	mov    0xcdda(%rip),%rax        # 190f0 <g_731>
    c316:	48 8b 00             	mov    (%rax),%rax
    c319:	8b 00                	mov    (%rax),%eax
    c31b:	48 98                	cltq   
    c31d:	48 39 85 c8 f2 ff ff 	cmp    %rax,-0xd38(%rbp)
    c324:	0f 96 c2             	setbe  %dl
    c327:	48 8b 85 48 f2 ff ff 	mov    -0xdb8(%rbp),%rax
    c32e:	0f b6 d2             	movzbl %dl,%edx
    c331:	66 89 10             	mov    %dx,(%rax)
    c334:	0f b7 00             	movzwl (%rax),%eax
    c337:	0f b7 c0             	movzwl %ax,%eax
    c33a:	39 85 98 f1 ff ff    	cmp    %eax,-0xe68(%rbp)
    c340:	0f 93 c0             	setae  %al
    c343:	88 05 e8 ac 00 00    	mov    %al,0xace8(%rip)        # 17031 <g_27>
    c349:	0f b6 05 e1 ac 00 00 	movzbl 0xace1(%rip),%eax        # 17031 <g_27>
    c350:	0f be d0             	movsbl %al,%edx
    c353:	48 83 bd 70 f3 ff ff 	cmpq   $0x0,-0xc90(%rbp)
    c35a:	00 
    c35b:	0f 94 c0             	sete   %al
    c35e:	0f b6 c0             	movzbl %al,%eax
    c361:	39 c2                	cmp    %eax,%edx
    c363:	0f 95 c2             	setne  %dl
    c366:	48 8b 85 60 f2 ff ff 	mov    -0xda0(%rbp),%rax
    c36d:	0f b6 d2             	movzbl %dl,%edx
    c370:	89 10                	mov    %edx,(%rax)
    c372:	0f b7 05 5b ba 00 00 	movzwl 0xba5b(%rip),%eax        # 17dd4 <g_1326>
    c379:	83 c0 01             	add    $0x1,%eax
    c37c:	66 89 05 51 ba 00 00 	mov    %ax,0xba51(%rip)        # 17dd4 <g_1326>
    c383:	48 8b 85 98 f2 ff ff 	mov    -0xd68(%rbp),%rax
    c38a:	8b 10                	mov    (%rax),%edx
    c38c:	48 8b 85 98 f2 ff ff 	mov    -0xd68(%rbp),%rax
    c393:	83 e2 fe             	and    $0xfffffffe,%edx
    c396:	89 10                	mov    %edx,(%rax)
    c398:	8b 05 86 ac 00 00    	mov    0xac86(%rip),%eax        # 17024 <g_11>
    c39e:	0f b6 c0             	movzbl %al,%eax
    c3a1:	be 05 00 00 00       	mov    $0x5,%esi
    c3a6:	89 c7                	mov    %eax,%edi
    c3a8:	e8 cb 97 ff ff       	callq  5b78 <safe_sub_func_uint8_t_u_u>
    c3ad:	0f b6 c0             	movzbl %al,%eax
    c3b0:	89 05 6e ac 00 00    	mov    %eax,0xac6e(%rip)        # 17024 <g_11>
    c3b6:	8b 05 68 ac 00 00    	mov    0xac68(%rip),%eax        # 17024 <g_11>
    c3bc:	83 f8 e2             	cmp    $0xffffffe2,%eax
    c3bf:	0f 8c 39 ff ff ff    	jl     c2fe <func_2+0x1a83>
    c3c5:	66 c7 05 0e b0 00 00 	movw   $0x0,0xb00e(%rip)        # 173dc <g_234>
    c3cc:	00 00 
    c3ce:	90                   	nop
    c3cf:	0f b7 05 06 b0 00 00 	movzwl 0xb006(%rip),%eax        # 173dc <g_234>
    c3d6:	66 83 f8 35          	cmp    $0x35,%ax
    c3da:	76 0d                	jbe    c3e9 <func_2+0x1b6e>
    c3dc:	8b 85 94 f1 ff ff    	mov    -0xe6c(%rbp),%eax
    c3e2:	89 c0                	mov    %eax,%eax
    c3e4:	e9 a4 09 00 00       	jmpq   cd8d <func_2+0x2512>
    c3e9:	0f b6 9d 9c f1 ff ff 	movzbl -0xe64(%rbp),%ebx
    c3f0:	8b 05 0e b0 00 00    	mov    0xb00e(%rip),%eax        # 17404 <g_833>
    c3f6:	85 c0                	test   %eax,%eax
    c3f8:	0f 84 23 01 00 00    	je     c521 <func_2+0x1ca6>
    c3fe:	8b 85 94 f1 ff ff    	mov    -0xe6c(%rbp),%eax
    c404:	44 0f be e0          	movsbl %al,%r12d
    c408:	8b 05 fa b1 00 00    	mov    0xb1fa(%rip),%eax        # 17608 <g_842>
    c40e:	4c 63 e8             	movslq %eax,%r13
    c411:	8b 05 0d ad 00 00    	mov    0xad0d(%rip),%eax        # 17124 <g_72+0xa4>
    c417:	44 0f be f0          	movsbl %al,%r14d
    c41b:	48 8b 85 c8 f2 ff ff 	mov    -0xd38(%rbp),%rax
    c422:	44 0f bf f8          	movswl %ax,%r15d
    c426:	8b 05 f4 db 00 00    	mov    0xdbf4(%rip),%eax        # 1a020 <g_837>
    c42c:	89 c2                	mov    %eax,%edx
    c42e:	48 8b 85 98 f2 ff ff 	mov    -0xd68(%rbp),%rax
    c435:	8b 00                	mov    (%rax),%eax
    c437:	85 c0                	test   %eax,%eax
    c439:	74 11                	je     c44c <func_2+0x1bd1>
    c43b:	8b 85 fc f3 ff ff    	mov    -0xc04(%rbp),%eax
    c441:	85 c0                	test   %eax,%eax
    c443:	74 07                	je     c44c <func_2+0x1bd1>
    c445:	b8 01 00 00 00       	mov    $0x1,%eax
    c44a:	eb 05                	jmp    c451 <func_2+0x1bd6>
    c44c:	b8 00 00 00 00       	mov    $0x0,%eax
    c451:	85 c0                	test   %eax,%eax
    c453:	8b 85 94 f1 ff ff    	mov    -0xe6c(%rbp),%eax
    c459:	83 f0 01             	xor    $0x1,%eax
    c45c:	89 d6                	mov    %edx,%esi
    c45e:	89 c7                	mov    %eax,%edi
    c460:	e8 98 9a ff ff       	callq  5efd <safe_mod_func_uint32_t_u_u>
    c465:	0f be d0             	movsbl %al,%edx
    c468:	8b 85 98 f1 ff ff    	mov    -0xe68(%rbp),%eax
    c46e:	0f be c0             	movsbl %al,%eax
    c471:	89 d6                	mov    %edx,%esi
    c473:	89 c7                	mov    %eax,%edi
    c475:	e8 98 8d ff ff       	callq  5212 <safe_mul_func_int8_t_s_s>
    c47a:	3c ff                	cmp    $0xff,%al
    c47c:	0f 95 c0             	setne  %al
    c47f:	0f b6 c0             	movzbl %al,%eax
    c482:	44 89 fe             	mov    %r15d,%esi
    c485:	89 c7                	mov    %eax,%edi
    c487:	e8 8a 8f ff ff       	callq  5416 <safe_mod_func_int16_t_s_s>
    c48c:	0f be c0             	movsbl %al,%eax
    c48f:	44 89 f6             	mov    %r14d,%esi
    c492:	89 c7                	mov    %eax,%edi
    c494:	e8 98 8d ff ff       	callq  5231 <safe_mod_func_int8_t_s_s>
    c499:	48 0f be c0          	movsbq %al,%rax
    c49d:	48 89 c7             	mov    %rax,%rdi
    c4a0:	e8 71 93 ff ff       	callq  5816 <safe_unary_minus_func_int64_t_s>
    c4a5:	48 85 c0             	test   %rax,%rax
    c4a8:	75 07                	jne    c4b1 <func_2+0x1c36>
    c4aa:	80 bd 9c f1 ff ff 00 	cmpb   $0x0,-0xe64(%rbp)
    c4b1:	8b 85 98 f1 ff ff    	mov    -0xe68(%rbp),%eax
    c4b7:	89 c6                	mov    %eax,%esi
    c4b9:	bf 01 00 00 00       	mov    $0x1,%edi
    c4be:	e8 a9 8e ff ff       	callq  536c <safe_rshift_func_int8_t_s_u>
    c4c3:	4c 89 ee             	mov    %r13,%rsi
    c4c6:	bf 01 00 00 00       	mov    $0x1,%edi
    c4cb:	e8 d8 93 ff ff       	callq  58a8 <safe_sub_func_int64_t_s_s>
    c4d0:	0f b7 d0             	movzwl %ax,%edx
    c4d3:	48 8b 85 98 f2 ff ff 	mov    -0xd68(%rbp),%rax
    c4da:	8b 00                	mov    (%rax),%eax
    c4dc:	0f b7 c0             	movzwl %ax,%eax
    c4df:	89 d6                	mov    %edx,%esi
    c4e1:	89 c7                	mov    %eax,%edi
    c4e3:	e8 17 98 ff ff       	callq  5cff <safe_add_func_uint16_t_u_u>
    c4e8:	0f b7 c8             	movzwl %ax,%ecx
    c4eb:	48 8b 05 ce c8 00 00 	mov    0xc8ce(%rip),%rax        # 18dc0 <g_671>
    c4f2:	0f b6 10             	movzbl (%rax),%edx
    c4f5:	8d 72 ff             	lea    -0x1(%rdx),%esi
    c4f8:	40 88 30             	mov    %sil,(%rax)
    c4fb:	48 8b 05 b6 c8 00 00 	mov    0xc8b6(%rip),%rax        # 18db8 <g_665>
    c502:	88 10                	mov    %dl,(%rax)
    c504:	0f b6 00             	movzbl (%rax),%eax
    c507:	0f b6 c0             	movzbl %al,%eax
    c50a:	89 ce                	mov    %ecx,%esi
    c50c:	89 c7                	mov    %eax,%edi
    c50e:	e8 f2 96 ff ff       	callq  5c05 <safe_lshift_func_uint8_t_u_s>
    c513:	0f be c0             	movsbl %al,%eax
    c516:	44 89 e6             	mov    %r12d,%esi
    c519:	89 c7                	mov    %eax,%edi
    c51b:	e8 f2 8c ff ff       	callq  5212 <safe_mul_func_int8_t_s_s>
    c520:	90                   	nop
    c521:	48 8b 85 48 f2 ff ff 	mov    -0xdb8(%rbp),%rax
    c528:	66 c7 00 01 00       	movw   $0x1,(%rax)
    c52d:	0f b7 00             	movzwl (%rax),%eax
    c530:	66 89 05 ab ae 00 00 	mov    %ax,0xaeab(%rip)        # 173e2 <g_304+0x2>
    c537:	0f b6 85 9c f1 ff ff 	movzbl -0xe64(%rbp),%eax
    c53e:	be 0c 00 00 00       	mov    $0xc,%esi
    c543:	89 c7                	mov    %eax,%edi
    c545:	e8 74 98 ff ff       	callq  5dbe <safe_lshift_func_uint16_t_u_s>
    c54a:	66 85 c0             	test   %ax,%ax
    c54d:	0f 94 c0             	sete   %al
    c550:	0f b6 d0             	movzbl %al,%edx
    c553:	8b 05 57 b8 00 00    	mov    0xb857(%rip),%eax        # 17db0 <g_886>
    c559:	09 d0                	or     %edx,%eax
    c55b:	f7 d0                	not    %eax
    c55d:	48 98                	cltq   
    c55f:	48 89 de             	mov    %rbx,%rsi
    c562:	48 89 c7             	mov    %rax,%rdi
    c565:	e8 3e 93 ff ff       	callq  58a8 <safe_sub_func_int64_t_s_s>
    c56a:	8b 15 94 da 00 00    	mov    0xda94(%rip),%edx        # 1a004 <g_835+0x4>
    c570:	48 63 d2             	movslq %edx,%rdx
    c573:	48 39 d0             	cmp    %rdx,%rax
    c576:	0f 8d 32 04 00 00    	jge    c9ae <func_2+0x2133>
    c57c:	c7 85 b0 f2 ff ff 22 	movl   $0x5f737a22,-0xd50(%rbp)
    c583:	7a 73 5f 
    c586:	c7 85 34 f2 ff ff 00 	movl   $0x0,-0xdcc(%rbp)
    c58d:	00 00 00 
    c590:	48 8d 85 b0 f2 ff ff 	lea    -0xd50(%rbp),%rax
    c597:	48 89 85 a0 f3 ff ff 	mov    %rax,-0xc60(%rbp)
    c59e:	48 8d 05 33 b8 00 00 	lea    0xb833(%rip),%rax        # 17dd8 <g_1415>
    c5a5:	48 89 85 a8 f3 ff ff 	mov    %rax,-0xc58(%rbp)
    c5ac:	48 8b 85 98 f2 ff ff 	mov    -0xd68(%rbp),%rax
    c5b3:	44 8b 20             	mov    (%rax),%r12d
    c5b6:	8b 85 94 f1 ff ff    	mov    -0xe6c(%rbp),%eax
    c5bc:	98                   	cwtl   
    c5bd:	89 c7                	mov    %eax,%edi
    c5bf:	e8 d9 8d ff ff       	callq  539d <safe_unary_minus_func_int16_t_s>
    c5c4:	0f bf d0             	movswl %ax,%edx
    c5c7:	8b 85 98 f1 ff ff    	mov    -0xe68(%rbp),%eax
    c5cd:	98                   	cwtl   
    c5ce:	89 d6                	mov    %edx,%esi
    c5d0:	89 c7                	mov    %eax,%edi
    c5d2:	e8 fc 8d ff ff       	callq  53d3 <safe_sub_func_int16_t_s_s>
    c5d7:	83 f0 06             	xor    $0x6,%eax
    c5da:	4c 0f bf e8          	movswq %ax,%r13
    c5de:	0f b6 9d 9c f1 ff ff 	movzbl -0xe64(%rbp),%ebx
    c5e5:	48 8d 85 94 f1 ff ff 	lea    -0xe6c(%rbp),%rax
    c5ec:	48 39 85 28 f3 ff ff 	cmp    %rax,-0xcd8(%rbp)
    c5f3:	0f 94 c0             	sete   %al
    c5f6:	89 c2                	mov    %eax,%edx
    c5f8:	48 8b 85 08 f3 ff ff 	mov    -0xcf8(%rbp),%rax
    c5ff:	88 10                	mov    %dl,(%rax)
    c601:	48 8b 85 08 f3 ff ff 	mov    -0xcf8(%rbp),%rax
    c608:	0f b6 00             	movzbl (%rax),%eax
    c60b:	0f b6 c0             	movzbl %al,%eax
    c60e:	89 c6                	mov    %eax,%esi
    c610:	bf 36 00 00 00       	mov    $0x36,%edi
    c615:	e8 79 95 ff ff       	callq  5b93 <safe_mul_func_uint8_t_u_u>
    c61a:	0f b6 c0             	movzbl %al,%eax
    c61d:	89 de                	mov    %ebx,%esi
    c61f:	89 c7                	mov    %eax,%edi
    c621:	e8 6d 95 ff ff       	callq  5b93 <safe_mul_func_uint8_t_u_u>
    c626:	0f b6 c0             	movzbl %al,%eax
    c629:	49 39 c5             	cmp    %rax,%r13
    c62c:	0f 97 c0             	seta   %al
    c62f:	0f b6 d0             	movzbl %al,%edx
    c632:	0f be 85 b4 f1 ff ff 	movsbl -0xe4c(%rbp),%eax
    c639:	39 c2                	cmp    %eax,%edx
    c63b:	0f 95 c0             	setne  %al
    c63e:	0f b6 c0             	movzbl %al,%eax
    c641:	44 21 e0             	and    %r12d,%eax
    c644:	83 f8 01             	cmp    $0x1,%eax
    c647:	48 8b 85 78 f2 ff ff 	mov    -0xd88(%rbp),%rax
    c64e:	48 8b 00             	mov    (%rax),%rax
    c651:	0f b6 95 9c f1 ff ff 	movzbl -0xe64(%rbp),%edx
    c658:	89 10                	mov    %edx,(%rax)
    c65a:	8b 00                	mov    (%rax),%eax
    c65c:	85 c0                	test   %eax,%eax
    c65e:	74 12                	je     c672 <func_2+0x1df7>
    c660:	83 bd e0 f1 ff ff 00 	cmpl   $0x0,-0xe20(%rbp)
    c667:	0f 84 75 01 00 00    	je     c7e2 <func_2+0x1f67>
    c66d:	e9 14 07 00 00       	jmpq   cd86 <func_2+0x250b>
    c672:	c7 85 38 f2 ff ff 00 	movl   $0x0,-0xdc8(%rbp)
    c679:	00 00 00 
    c67c:	48 8d 05 4d ad 00 00 	lea    0xad4d(%rip),%rax        # 173d0 <g_229>
    c683:	48 89 85 b0 f3 ff ff 	mov    %rax,-0xc50(%rbp)
    c68a:	48 8d 85 bc f1 ff ff 	lea    -0xe44(%rbp),%rax
    c691:	48 89 85 b8 f2 ff ff 	mov    %rax,-0xd48(%rbp)
    c698:	48 8d 85 b8 f2 ff ff 	lea    -0xd48(%rbp),%rax
    c69f:	48 89 85 b8 f3 ff ff 	mov    %rax,-0xc48(%rbp)
    c6a6:	48 8b 85 78 f2 ff ff 	mov    -0xd88(%rbp),%rax
    c6ad:	48 8b 00             	mov    (%rax),%rax
    c6b0:	8b 00                	mov    (%rax),%eax
    c6b2:	89 c2                	mov    %eax,%edx
    c6b4:	8b 85 b0 f2 ff ff    	mov    -0xd50(%rbp),%eax
    c6ba:	31 c2                	xor    %eax,%edx
    c6bc:	48 8b 85 78 f2 ff ff 	mov    -0xd88(%rbp),%rax
    c6c3:	48 8b 00             	mov    (%rax),%rax
    c6c6:	89 10                	mov    %edx,(%rax)
    c6c8:	44 8b 20             	mov    (%rax),%r12d
    c6cb:	8b 85 38 f2 ff ff    	mov    -0xdc8(%rbp),%eax
    c6d1:	0f b6 d8             	movzbl %al,%ebx
    c6d4:	48 8b 85 68 f3 ff ff 	mov    -0xc98(%rbp),%rax
    c6db:	48 8b 10             	mov    (%rax),%rdx
    c6de:	8b 85 d8 f1 ff ff    	mov    -0xe28(%rbp),%eax
    c6e4:	48 98                	cltq   
    c6e6:	48 31 c2             	xor    %rax,%rdx
    c6e9:	48 8b 85 68 f3 ff ff 	mov    -0xc98(%rbp),%rax
    c6f0:	48 89 10             	mov    %rdx,(%rax)
    c6f3:	be 06 00 00 00       	mov    $0x6,%esi
    c6f8:	bf 00 00 00 00       	mov    $0x0,%edi
    c6fd:	e8 76 94 ff ff       	callq  5b78 <safe_sub_func_uint8_t_u_u>
    c702:	0f b6 c0             	movzbl %al,%eax
    c705:	48 be 8a bf 69 b1 2f 	movabs $0xe681f12fb169bf8a,%rsi
    c70c:	f1 81 e6 
    c70f:	48 89 c7             	mov    %rax,%rdi
    c712:	e8 34 99 ff ff       	callq  604b <safe_sub_func_uint64_t_u_u>
    c717:	0f b7 c0             	movzwl %ax,%eax
    c71a:	be 09 00 00 00       	mov    $0x9,%esi
    c71f:	89 c7                	mov    %eax,%edi
    c721:	e8 54 97 ff ff       	callq  5e7a <safe_rshift_func_uint16_t_u_u>
    c726:	0f b7 c0             	movzwl %ax,%eax
    c729:	39 85 e0 f1 ff ff    	cmp    %eax,-0xe20(%rbp)
    c72f:	0f 95 c0             	setne  %al
    c732:	0f b6 c8             	movzbl %al,%ecx
    c735:	48 8b 85 60 f2 ff ff 	mov    -0xda0(%rbp),%rax
    c73c:	8b 10                	mov    (%rax),%edx
    c73e:	48 8b 85 60 f2 ff ff 	mov    -0xda0(%rbp),%rax
    c745:	21 ca                	and    %ecx,%edx
    c747:	89 10                	mov    %edx,(%rax)
    c749:	8b 00                	mov    (%rax),%eax
    c74b:	0f bf d0             	movswl %ax,%edx
    c74e:	8b 85 94 f1 ff ff    	mov    -0xe6c(%rbp),%eax
    c754:	98                   	cwtl   
    c755:	89 d6                	mov    %edx,%esi
    c757:	89 c7                	mov    %eax,%edi
    c759:	e8 f7 8c ff ff       	callq  5455 <safe_div_func_int16_t_s_s>
    c75e:	48 0f bf c0          	movswq %ax,%rax
    c762:	48 39 85 c8 f2 ff ff 	cmp    %rax,-0xd38(%rbp)
    c769:	8b 85 94 f1 ff ff    	mov    -0xe6c(%rbp),%eax
    c76f:	85 c0                	test   %eax,%eax
    c771:	74 07                	je     c77a <func_2+0x1eff>
    c773:	ba 01 00 00 00       	mov    $0x1,%edx
    c778:	eb 05                	jmp    c77f <func_2+0x1f04>
    c77a:	ba 00 00 00 00       	mov    $0x0,%edx
    c77f:	48 8b 05 32 c6 00 00 	mov    0xc632(%rip),%rax        # 18db8 <g_665>
    c786:	88 10                	mov    %dl,(%rax)
    c788:	0f b6 00             	movzbl (%rax),%eax
    c78b:	0f b6 c0             	movzbl %al,%eax
    c78e:	89 de                	mov    %ebx,%esi
    c790:	89 c7                	mov    %eax,%edi
    c792:	e8 e1 93 ff ff       	callq  5b78 <safe_sub_func_uint8_t_u_u>
    c797:	0f b6 c0             	movzbl %al,%eax
    c79a:	41 39 c4             	cmp    %eax,%r12d
    c79d:	7d 0a                	jge    c7a9 <func_2+0x1f2e>
    c79f:	8b 05 3f ac 00 00    	mov    0xac3f(%rip),%eax        # 173e4 <g_326>
    c7a5:	85 c0                	test   %eax,%eax
    c7a7:	74 07                	je     c7b0 <func_2+0x1f35>
    c7a9:	ba 01 00 00 00       	mov    $0x1,%edx
    c7ae:	eb 05                	jmp    c7b5 <func_2+0x1f3a>
    c7b0:	ba 00 00 00 00       	mov    $0x0,%edx
    c7b5:	0f be 85 b4 f1 ff ff 	movsbl -0xe4c(%rbp),%eax
    c7bc:	39 c2                	cmp    %eax,%edx
    c7be:	0f 9c c0             	setl   %al
    c7c1:	0f b6 c0             	movzbl %al,%eax
    c7c4:	31 85 20 f2 ff ff    	xor    %eax,-0xde0(%rbp)
    c7ca:	8b 85 20 f2 ff ff    	mov    -0xde0(%rbp),%eax
    c7d0:	89 85 d8 f1 ff ff    	mov    %eax,-0xe28(%rbp)
    c7d6:	0f b6 85 9c f1 ff ff 	movzbl -0xe64(%rbp),%eax
    c7dd:	e9 ab 05 00 00       	jmpq   cd8d <func_2+0x2512>
    c7e2:	0f be 85 b1 f1 ff ff 	movsbl -0xe4f(%rbp),%eax
    c7e9:	be 04 00 00 00       	mov    $0x4,%esi
    c7ee:	89 c7                	mov    %eax,%edi
    c7f0:	e8 f9 8a ff ff       	callq  52ee <safe_lshift_func_int8_t_s_u>
    c7f5:	44 0f be e8          	movsbl %al,%r13d
    c7f9:	8b 85 b0 f2 ff ff    	mov    -0xd50(%rbp),%eax
    c7ff:	0f b7 d8             	movzwl %ax,%ebx
    c802:	8b 85 e4 f1 ff ff    	mov    -0xe1c(%rbp),%eax
    c808:	44 0f b7 e0          	movzwl %ax,%r12d
    c80c:	be 09 00 00 00       	mov    $0x9,%esi
    c811:	bf fe ff ff ff       	mov    $0xfffffffe,%edi
    c816:	e8 77 8c ff ff       	callq  5492 <safe_lshift_func_int16_t_s_s>
    c81b:	0f b7 c0             	movzwl %ax,%eax
    c81e:	44 89 e6             	mov    %r12d,%esi
    c821:	89 c7                	mov    %eax,%edi
    c823:	e8 15 95 ff ff       	callq  5d3d <safe_mul_func_uint16_t_u_u>
    c828:	66 85 c0             	test   %ax,%ax
    c82b:	75 4b                	jne    c878 <func_2+0x1ffd>
    c82d:	83 bd 98 f1 ff ff 00 	cmpl   $0x0,-0xe68(%rbp)
    c834:	0f 95 c0             	setne  %al
    c837:	0f b6 d0             	movzbl %al,%edx
    c83a:	48 8b 05 1f ab 00 00 	mov    0xab1f(%rip),%rax        # 17360 <g_214>
    c841:	48 31 d0             	xor    %rdx,%rax
    c844:	48 89 05 15 ab 00 00 	mov    %rax,0xab15(%rip)        # 17360 <g_214>
    c84b:	48 8b 15 0e ab 00 00 	mov    0xab0e(%rip),%rdx        # 17360 <g_214>
    c852:	48 8b 85 68 f3 ff ff 	mov    -0xc98(%rbp),%rax
    c859:	48 c7 00 05 00 00 00 	movq   $0x5,(%rax)
    c860:	48 8b 85 68 f3 ff ff 	mov    -0xc98(%rbp),%rax
    c867:	48 8b 00             	mov    (%rax),%rax
    c86a:	48 89 d6             	mov    %rdx,%rsi
    c86d:	48 89 c7             	mov    %rax,%rdi
    c870:	e8 3a 98 ff ff       	callq  60af <safe_div_func_uint64_t_u_u>
    c875:	48 85 c0             	test   %rax,%rax
    c878:	8b 85 94 f1 ff ff    	mov    -0xe6c(%rbp),%eax
    c87e:	85 c0                	test   %eax,%eax
    c880:	0f 95 c0             	setne  %al
    c883:	0f b6 c0             	movzbl %al,%eax
    c886:	89 de                	mov    %ebx,%esi
    c888:	89 c7                	mov    %eax,%edi
    c88a:	e8 cd 94 ff ff       	callq  5d5c <safe_mod_func_uint16_t_u_u>
    c88f:	0f b7 c0             	movzwl %ax,%eax
    c892:	41 39 c5             	cmp    %eax,%r13d
    c895:	0f 9c c0             	setl   %al
    c898:	0f b6 d0             	movzbl %al,%edx
    c89b:	48 8b 85 a0 f3 ff ff 	mov    -0xc60(%rbp),%rax
    c8a2:	89 10                	mov    %edx,(%rax)
    c8a4:	48 8b 85 20 f3 ff ff 	mov    -0xce0(%rbp),%rax
    c8ab:	0f b7 00             	movzwl (%rax),%eax
    c8ae:	8d 50 ff             	lea    -0x1(%rax),%edx
    c8b1:	48 8b 85 20 f3 ff ff 	mov    -0xce0(%rbp),%rax
    c8b8:	66 89 10             	mov    %dx,(%rax)
    c8bb:	48 8b 85 20 f3 ff ff 	mov    -0xce0(%rbp),%rax
    c8c2:	0f b7 00             	movzwl (%rax),%eax
    c8c5:	0f b7 c0             	movzwl %ax,%eax
    c8c8:	89 c7                	mov    %eax,%edi
    c8ca:	e8 1a 94 ff ff       	callq  5ce9 <safe_unary_minus_func_uint16_t_u>
    c8cf:	0f b7 c0             	movzwl %ax,%eax
    c8d2:	48 c7 c6 f7 ff ff ff 	mov    $0xfffffffffffffff7,%rsi
    c8d9:	48 89 c7             	mov    %rax,%rdi
    c8dc:	e8 6a 97 ff ff       	callq  604b <safe_sub_func_uint64_t_u_u>
    c8e1:	0f be c0             	movsbl %al,%eax
    c8e4:	be 00 00 00 00       	mov    $0x0,%esi
    c8e9:	89 c7                	mov    %eax,%edi
    c8eb:	e8 7c 8a ff ff       	callq  536c <safe_rshift_func_int8_t_s_u>
    c8f0:	0f b6 c0             	movzbl %al,%eax
    c8f3:	be 03 00 00 00       	mov    $0x3,%esi
    c8f8:	89 c7                	mov    %eax,%edi
    c8fa:	e8 8e 93 ff ff       	callq  5c8d <safe_rshift_func_uint8_t_u_s>
    c8ff:	89 c2                	mov    %eax,%edx
    c901:	0f b6 05 d2 aa 00 00 	movzbl 0xaad2(%rip),%eax        # 173da <g_233>
    c908:	21 d0                	and    %edx,%eax
    c90a:	88 05 ca aa 00 00    	mov    %al,0xaaca(%rip)        # 173da <g_233>
    c910:	48 0f be 95 b4 f1 ff 	movsbq -0xe4c(%rbp),%rdx
    c917:	ff 
    c918:	48 8b 85 a8 f3 ff ff 	mov    -0xc58(%rbp),%rax
    c91f:	48 89 10             	mov    %rdx,(%rax)
    c922:	48 8b 85 98 f2 ff ff 	mov    -0xd68(%rbp),%rax
    c929:	8b 18                	mov    (%rax),%ebx
    c92b:	8b 95 94 f1 ff ff    	mov    -0xe6c(%rbp),%edx
    c931:	48 8b 85 70 f2 ff ff 	mov    -0xd90(%rbp),%rax
    c938:	48 8b 00             	mov    (%rax),%rax
    c93b:	0f b7 08             	movzwl (%rax),%ecx
    c93e:	8b 85 98 f1 ff ff    	mov    -0xe68(%rbp),%eax
    c944:	89 c6                	mov    %eax,%esi
    c946:	48 8b 85 70 f2 ff ff 	mov    -0xd90(%rbp),%rax
    c94d:	48 8b 00             	mov    (%rax),%rax
    c950:	31 f1                	xor    %esi,%ecx
    c952:	66 89 08             	mov    %cx,(%rax)
    c955:	0f b7 00             	movzwl (%rax),%eax
    c958:	0f b7 c0             	movzwl %ax,%eax
    c95b:	89 d6                	mov    %edx,%esi
    c95d:	89 c7                	mov    %eax,%edi
    c95f:	e8 16 95 ff ff       	callq  5e7a <safe_rshift_func_uint16_t_u_u>
    c964:	0f b7 c0             	movzwl %ax,%eax
    c967:	39 c3                	cmp    %eax,%ebx
    c969:	0f 9e c0             	setle  %al
    c96c:	0f b6 c0             	movzbl %al,%eax
    c96f:	be 07 00 00 00       	mov    $0x7,%esi
    c974:	89 c7                	mov    %eax,%edi
    c976:	e8 f1 89 ff ff       	callq  536c <safe_rshift_func_int8_t_s_u>
    c97b:	48 8b 05 f6 c8 00 00 	mov    0xc8f6(%rip),%rax        # 19278 <g_1072>
    c982:	b9 00 00 00 00       	mov    $0x0,%ecx
    c987:	48 8b 85 60 f2 ff ff 	mov    -0xda0(%rbp),%rax
    c98e:	8b 10                	mov    (%rax),%edx
    c990:	48 8b 85 60 f2 ff ff 	mov    -0xda0(%rbp),%rax
    c997:	09 ca                	or     %ecx,%edx
    c999:	89 10                	mov    %edx,(%rax)
    c99b:	48 8b 05 e6 c8 00 00 	mov    0xc8e6(%rip),%rax        # 19288 <g_1416>
    c9a2:	48 8d 95 c0 f1 ff ff 	lea    -0xe40(%rbp),%rdx
    c9a9:	48 89 10             	mov    %rdx,(%rax)
    c9ac:	eb 0a                	jmp    c9b8 <func_2+0x213d>
    c9ae:	8b 05 70 d6 00 00    	mov    0xd670(%rip),%eax        # 1a024 <g_843>
    c9b4:	85 c0                	test   %eax,%eax
    c9b6:	75 5f                	jne    ca17 <func_2+0x219c>
    c9b8:	83 bd 98 f1 ff ff 00 	cmpl   $0x0,-0xe68(%rbp)
    c9bf:	0f 85 94 03 00 00    	jne    cd59 <func_2+0x24de>
    c9c5:	c7 05 c5 ad 00 00 00 	movl   $0x0,0xadc5(%rip)        # 17794 <g_872>
    c9cc:	00 00 00 
    c9cf:	eb 27                	jmp    c9f8 <func_2+0x217d>
    c9d1:	80 bd 9c f1 ff ff 00 	cmpb   $0x0,-0xe64(%rbp)
    c9d8:	75 43                	jne    ca1d <func_2+0x21a2>
    c9da:	8b 05 b4 ad 00 00    	mov    0xadb4(%rip),%eax        # 17794 <g_872>
    c9e0:	0f b6 c0             	movzbl %al,%eax
    c9e3:	be 08 00 00 00       	mov    $0x8,%esi
    c9e8:	89 c7                	mov    %eax,%edi
    c9ea:	e8 6b 91 ff ff       	callq  5b5a <safe_add_func_uint8_t_u_u>
    c9ef:	0f b6 c0             	movzbl %al,%eax
    c9f2:	89 05 9c ad 00 00    	mov    %eax,0xad9c(%rip)        # 17794 <g_872>
    c9f8:	8b 05 96 ad 00 00    	mov    0xad96(%rip),%eax        # 17794 <g_872>
    c9fe:	83 f8 17             	cmp    $0x17,%eax
    ca01:	7e ce                	jle    c9d1 <func_2+0x2156>
    ca03:	eb 19                	jmp    ca1e <func_2+0x21a3>
    ca05:	90                   	nop
    ca06:	e9 c2 df ff ff       	jmpq   a9cd <func_2+0x152>
    ca0b:	90                   	nop
    ca0c:	e9 bc df ff ff       	jmpq   a9cd <func_2+0x152>
    ca11:	90                   	nop
    ca12:	e9 b6 df ff ff       	jmpq   a9cd <func_2+0x152>
    ca17:	90                   	nop
    ca18:	e9 b0 df ff ff       	jmpq   a9cd <func_2+0x152>
    ca1d:	90                   	nop
    ca1e:	0f b6 9d 9c f1 ff ff 	movzbl -0xe64(%rbp),%ebx
    ca25:	48 8b 05 94 c3 00 00 	mov    0xc394(%rip),%rax        # 18dc0 <g_671>
    ca2c:	0f b6 00             	movzbl (%rax),%eax
    ca2f:	44 0f b6 e0          	movzbl %al,%r12d
    ca33:	8b 85 94 f1 ff ff    	mov    -0xe6c(%rbp),%eax
    ca39:	44 0f b7 e8          	movzwl %ax,%r13d
    ca3d:	0f be 85 b0 f1 ff ff 	movsbl -0xe50(%rbp),%eax
    ca44:	89 c6                	mov    %eax,%esi
    ca46:	bf f6 ff ff ff       	mov    $0xfffffff6,%edi
    ca4b:	e8 a5 89 ff ff       	callq  53f5 <safe_mul_func_int16_t_s_s>
    ca50:	44 0f b7 b5 ba f1 ff 	movzwl -0xe46(%rbp),%r14d
    ca57:	ff 
    ca58:	48 8b 85 90 f4 ff ff 	mov    -0xb70(%rbp),%rax
    ca5f:	48 89 85 90 f4 ff ff 	mov    %rax,-0xb70(%rbp)
    ca66:	48 8b 85 90 f4 ff ff 	mov    -0xb70(%rbp),%rax
    ca6d:	48 89 85 e0 f2 ff ff 	mov    %rax,-0xd20(%rbp)
    ca74:	48 8b 85 f8 f2 ff ff 	mov    -0xd08(%rbp),%rax
    ca7b:	48 8b 95 e0 f2 ff ff 	mov    -0xd20(%rbp),%rdx
    ca82:	48 89 10             	mov    %rdx,(%rax)
    ca85:	48 8b 85 f8 f2 ff ff 	mov    -0xd08(%rbp),%rax
    ca8c:	48 8b 00             	mov    (%rax),%rax
    ca8f:	48 85 c0             	test   %rax,%rax
    ca92:	0f 95 c0             	setne  %al
    ca95:	0f b6 c0             	movzbl %al,%eax
    ca98:	89 85 90 f1 ff ff    	mov    %eax,-0xe70(%rbp)
    ca9e:	48 8b 85 60 f2 ff ff 	mov    -0xda0(%rbp),%rax
    caa5:	8b 00                	mov    (%rax),%eax
    caa7:	44 0f b7 f8          	movzwl %ax,%r15d
    caab:	8b 05 f7 b2 00 00    	mov    0xb2f7(%rip),%eax        # 17da8 <g_884>
    cab1:	0f be c0             	movsbl %al,%eax
    cab4:	be 99 ff ff ff       	mov    $0xffffff99,%esi
    cab9:	89 c7                	mov    %eax,%edi
    cabb:	e8 14 87 ff ff       	callq  51d4 <safe_add_func_int8_t_s_s>
    cac0:	84 c0                	test   %al,%al
    cac2:	0f 95 c0             	setne  %al
    cac5:	0f b6 c0             	movzbl %al,%eax
    cac8:	44 89 fe             	mov    %r15d,%esi
    cacb:	89 c7                	mov    %eax,%edi
    cacd:	e8 6b 92 ff ff       	callq  5d3d <safe_mul_func_uint16_t_u_u>
    cad2:	0f b7 c0             	movzwl %ax,%eax
    cad5:	be 09 00 00 00       	mov    $0x9,%esi
    cada:	89 c7                	mov    %eax,%edi
    cadc:	e8 25 93 ff ff       	callq  5e06 <safe_lshift_func_uint16_t_u_u>
    cae1:	0f b7 c0             	movzwl %ax,%eax
    cae4:	33 85 90 f1 ff ff    	xor    -0xe70(%rbp),%eax
    caea:	89 c2                	mov    %eax,%edx
    caec:	8b 85 94 f1 ff ff    	mov    -0xe6c(%rbp),%eax
    caf2:	21 d0                	and    %edx,%eax
    caf4:	44 89 f6             	mov    %r14d,%esi
    caf7:	89 c7                	mov    %eax,%edi
    caf9:	e8 ce 8b ff ff       	callq  56cc <safe_mod_func_int32_t_s_s>
    cafe:	0f b6 c0             	movzbl %al,%eax
    cb01:	be e9 00 00 00       	mov    $0xe9,%esi
    cb06:	89 c7                	mov    %eax,%edi
    cb08:	e8 86 90 ff ff       	callq  5b93 <safe_mul_func_uint8_t_u_u>
    cb0d:	0f b6 d0             	movzbl %al,%edx
    cb10:	0f be 85 b3 f1 ff ff 	movsbl -0xe4d(%rbp),%eax
    cb17:	39 c2                	cmp    %eax,%edx
    cb19:	0f 9f c0             	setg   %al
    cb1c:	0f b6 d0             	movzbl %al,%edx
    cb1f:	0f b6 85 9c f1 ff ff 	movzbl -0xe64(%rbp),%eax
    cb26:	39 c2                	cmp    %eax,%edx
    cb28:	0f 9d c0             	setge  %al
    cb2b:	0f b6 d0             	movzbl %al,%edx
    cb2e:	0f b7 05 ab a8 00 00 	movzwl 0xa8ab(%rip),%eax        # 173e0 <g_304>
    cb35:	0f b7 c0             	movzwl %ax,%eax
    cb38:	48 89 d6             	mov    %rdx,%rsi
    cb3b:	48 89 c7             	mov    %rax,%rdi
    cb3e:	e8 08 95 ff ff       	callq  604b <safe_sub_func_uint64_t_u_u>
    cb43:	8b 95 94 f1 ff ff    	mov    -0xe6c(%rbp),%edx
    cb49:	89 d2                	mov    %edx,%edx
    cb4b:	48 39 d0             	cmp    %rdx,%rax
    cb4e:	0f 93 c0             	setae  %al
    cb51:	0f b6 c0             	movzbl %al,%eax
    cb54:	44 89 ee             	mov    %r13d,%esi
    cb57:	89 c7                	mov    %eax,%edi
    cb59:	e8 fe 91 ff ff       	callq  5d5c <safe_mod_func_uint16_t_u_u>
    cb5e:	be ff ff ff ff       	mov    $0xffffffff,%esi
    cb63:	bf 01 00 00 00       	mov    $0x1,%edi
    cb68:	e8 fd 86 ff ff       	callq  526a <safe_div_func_int8_t_s_s>
    cb6d:	0f be c0             	movsbl %al,%eax
    cb70:	44 89 e6             	mov    %r12d,%esi
    cb73:	89 c7                	mov    %eax,%edi
    cb75:	e8 f2 87 ff ff       	callq  536c <safe_rshift_func_int8_t_s_u>
    cb7a:	0f b6 c0             	movzbl %al,%eax
    cb7d:	be 00 00 00 00       	mov    $0x0,%esi
    cb82:	89 c7                	mov    %eax,%edi
    cb84:	e8 7c 90 ff ff       	callq  5c05 <safe_lshift_func_uint8_t_u_s>
    cb89:	0f b6 d0             	movzbl %al,%edx
    cb8c:	8b 85 94 f1 ff ff    	mov    -0xe6c(%rbp),%eax
    cb92:	39 c2                	cmp    %eax,%edx
    cb94:	0f 94 c0             	sete   %al
    cb97:	0f b6 c0             	movzbl %al,%eax
    cb9a:	89 de                	mov    %ebx,%esi
    cb9c:	89 c7                	mov    %eax,%edi
    cb9e:	e8 a9 90 ff ff       	callq  5c4c <safe_lshift_func_uint8_t_u_u>
    cba3:	89 c2                	mov    %eax,%edx
    cba5:	48 8b 05 14 c2 00 00 	mov    0xc214(%rip),%rax        # 18dc0 <g_671>
    cbac:	0f b6 00             	movzbl (%rax),%eax
    cbaf:	31 d0                	xor    %edx,%eax
    cbb1:	3c 07                	cmp    $0x7,%al
    cbb3:	0f 96 c0             	setbe  %al
    cbb6:	0f b6 c0             	movzbl %al,%eax
    cbb9:	be 00 00 00 00       	mov    $0x0,%esi
    cbbe:	48 89 c7             	mov    %rax,%rdi
    cbc1:	e8 7b 8c ff ff       	callq  5841 <safe_add_func_int64_t_s_s>
    cbc6:	0f b6 c0             	movzbl %al,%eax
    cbc9:	89 c7                	mov    %eax,%edi
    cbcb:	e8 75 8f ff ff       	callq  5b45 <safe_unary_minus_func_uint8_t_u>
    cbd0:	be 00 00 00 00       	mov    $0x0,%esi
    cbd5:	bf 01 00 00 00       	mov    $0x1,%edi
    cbda:	e8 99 8f ff ff       	callq  5b78 <safe_sub_func_uint8_t_u_u>
    cbdf:	84 c0                	test   %al,%al
    cbe1:	48 8b 15 08 c5 00 00 	mov    0xc508(%rip),%rdx        # 190f0 <g_731>
    cbe8:	48 8b 85 88 f2 ff ff 	mov    -0xd78(%rbp),%rax
    cbef:	48 8b 12             	mov    (%rdx),%rdx
    cbf2:	48 89 10             	mov    %rdx,(%rax)
    cbf5:	48 8b 05 8c d4 00 00 	mov    0xd48c(%rip),%rax        # 1a088 <g_1275>
    cbfc:	8b 18                	mov    (%rax),%ebx
    cbfe:	44 8b a5 98 f1 ff ff 	mov    -0xe68(%rbp),%r12d
    cc05:	48 83 bd e8 f2 ff ff 	cmpq   $0x0,-0xd18(%rbp)
    cc0c:	00 
    cc0d:	0f 94 c0             	sete   %al
    cc10:	44 0f b6 e8          	movzbl %al,%r13d
    cc14:	80 bd 9c f1 ff ff 00 	cmpb   $0x0,-0xe64(%rbp)
    cc1b:	74 1c                	je     cc39 <func_2+0x23be>
    cc1d:	0f b6 95 9c f1 ff ff 	movzbl -0xe64(%rbp),%edx
    cc24:	8b 85 94 f1 ff ff    	mov    -0xe6c(%rbp),%eax
    cc2a:	98                   	cwtl   
    cc2b:	89 d6                	mov    %edx,%esi
    cc2d:	89 c7                	mov    %eax,%edi
    cc2f:	e8 9f 87 ff ff       	callq  53d3 <safe_sub_func_int16_t_s_s>
    cc34:	66 85 c0             	test   %ax,%ax
    cc37:	74 07                	je     cc40 <func_2+0x23c5>
    cc39:	b8 01 00 00 00       	mov    $0x1,%eax
    cc3e:	eb 05                	jmp    cc45 <func_2+0x23ca>
    cc40:	b8 00 00 00 00       	mov    $0x0,%eax
    cc45:	0f be d0             	movsbl %al,%edx
    cc48:	48 8b 85 90 f2 ff ff 	mov    -0xd70(%rbp),%rax
    cc4f:	48 8b 00             	mov    (%rax),%rax
    cc52:	48 8b 00             	mov    (%rax),%rax
    cc55:	8b 00                	mov    (%rax),%eax
    cc57:	0f be c0             	movsbl %al,%eax
    cc5a:	89 d6                	mov    %edx,%esi
    cc5c:	89 c7                	mov    %eax,%edi
    cc5e:	e8 af 85 ff ff       	callq  5212 <safe_mul_func_int8_t_s_s>
    cc63:	66 98                	cbtw   
    cc65:	44 21 e8             	and    %r13d,%eax
    cc68:	0f b7 c0             	movzwl %ax,%eax
    cc6b:	44 89 e6             	mov    %r12d,%esi
    cc6e:	89 c7                	mov    %eax,%edi
    cc70:	e8 d3 91 ff ff       	callq  5e48 <safe_rshift_func_uint16_t_u_s>
    cc75:	0f b7 d0             	movzwl %ax,%edx
    cc78:	48 8b 05 71 c4 00 00 	mov    0xc471(%rip),%rax        # 190f0 <g_731>
    cc7f:	48 8b 00             	mov    (%rax),%rax
    cc82:	8b 00                	mov    (%rax),%eax
    cc84:	39 c2                	cmp    %eax,%edx
    cc86:	0f 94 c0             	sete   %al
    cc89:	0f b6 c0             	movzbl %al,%eax
    cc8c:	89 de                	mov    %ebx,%esi
    cc8e:	89 c7                	mov    %eax,%edi
    cc90:	e8 6a 8a ff ff       	callq  56ff <safe_div_func_int32_t_s_s>
    cc95:	8b 05 69 a9 00 00    	mov    0xa969(%rip),%eax        # 17604 <g_841>
    cc9b:	48 63 d0             	movslq %eax,%rdx
    cc9e:	48 8b 85 00 f3 ff ff 	mov    -0xd00(%rbp),%rax
    cca5:	48 89 10             	mov    %rdx,(%rax)
    cca8:	48 8b 85 00 f3 ff ff 	mov    -0xd00(%rbp),%rax
    ccaf:	48 8b 10             	mov    (%rax),%rdx
    ccb2:	8b 85 98 f1 ff ff    	mov    -0xe68(%rbp),%eax
    ccb8:	48 39 c2             	cmp    %rax,%rdx
    ccbb:	0f 93 c0             	setae  %al
    ccbe:	0f b6 d0             	movzbl %al,%edx
    ccc1:	48 8b 85 90 f2 ff ff 	mov    -0xd70(%rbp),%rax
    ccc8:	48 8b 00             	mov    (%rax),%rax
    cccb:	48 8b 00             	mov    (%rax),%rax
    ccce:	8b 00                	mov    (%rax),%eax
    ccd0:	31 c2                	xor    %eax,%edx
    ccd2:	48 8b 85 78 f2 ff ff 	mov    -0xd88(%rbp),%rax
    ccd9:	48 8b 00             	mov    (%rax),%rax
    ccdc:	8b 00                	mov    (%rax),%eax
    ccde:	39 c2                	cmp    %eax,%edx
    cce0:	74 09                	je     cceb <func_2+0x2470>
    cce2:	48 c7 c2 f7 ff ff ff 	mov    $0xfffffffffffffff7,%rdx
    cce9:	eb 07                	jmp    ccf2 <func_2+0x2477>
    cceb:	48 c7 c2 f6 ff ff ff 	mov    $0xfffffffffffffff6,%rdx
    ccf2:	48 8b 05 bf c0 00 00 	mov    0xc0bf(%rip),%rax        # 18db8 <g_665>
    ccf9:	0f b6 00             	movzbl (%rax),%eax
    ccfc:	89 c1                	mov    %eax,%ecx
    ccfe:	89 d0                	mov    %edx,%eax
    cd00:	09 c1                	or     %eax,%ecx
    cd02:	89 ca                	mov    %ecx,%edx
    cd04:	48 8b 05 ad c0 00 00 	mov    0xc0ad(%rip),%rax        # 18db8 <g_665>
    cd0b:	88 10                	mov    %dl,(%rax)
    cd0d:	0f b6 00             	movzbl (%rax),%eax
    cd10:	0f b6 c0             	movzbl %al,%eax
    cd13:	be 08 00 00 00       	mov    $0x8,%esi
    cd18:	89 c7                	mov    %eax,%edi
    cd1a:	e8 8f 8e ff ff       	callq  5bae <safe_mod_func_uint8_t_u_u>
    cd1f:	89 c2                	mov    %eax,%edx
    cd21:	48 8b 85 e0 f2 ff ff 	mov    -0xd20(%rbp),%rax
    cd28:	48 8b 00             	mov    (%rax),%rax
    cd2b:	48 8b 00             	mov    (%rax),%rax
    cd2e:	0f b6 d2             	movzbl %dl,%edx
    cd31:	89 10                	mov    %edx,(%rax)
    cd33:	48 8b 85 e0 f2 ff ff 	mov    -0xd20(%rbp),%rax
    cd3a:	48 8b 00             	mov    (%rax),%rax
    cd3d:	48 8b 00             	mov    (%rax),%rax
    cd40:	8b 00                	mov    (%rax),%eax
    cd42:	33 85 98 f1 ff ff    	xor    -0xe68(%rbp),%eax
    cd48:	89 c2                	mov    %eax,%edx
    cd4a:	48 8b 85 e0 f2 ff ff 	mov    -0xd20(%rbp),%rax
    cd51:	48 8b 00             	mov    (%rax),%rax
    cd54:	48 8b 00             	mov    (%rax),%rax
    cd57:	89 10                	mov    %edx,(%rax)
    cd59:	8b 05 41 ad 00 00    	mov    0xad41(%rip),%eax        # 17aa0 <g_874>
    cd5f:	0f b7 c0             	movzwl %ax,%eax
    cd62:	be 02 00 00 00       	mov    $0x2,%esi
    cd67:	89 c7                	mov    %eax,%edi
    cd69:	e8 b1 8f ff ff       	callq  5d1f <safe_sub_func_uint16_t_u_u>
    cd6e:	0f b7 c0             	movzwl %ax,%eax
    cd71:	89 05 29 ad 00 00    	mov    %eax,0xad29(%rip)        # 17aa0 <g_874>
    cd77:	8b 05 23 ad 00 00    	mov    0xad23(%rip),%eax        # 17aa0 <g_874>
    cd7d:	83 f8 ea             	cmp    $0xffffffea,%eax
    cd80:	0f 8c c1 dc ff ff    	jl     aa47 <func_2+0x1cc>
    cd86:	0f b6 85 9c f1 ff ff 	movzbl -0xe64(%rbp),%eax
    cd8d:	48 8b 5d c8          	mov    -0x38(%rbp),%rbx
    cd91:	64 48 33 1c 25 28 00 	xor    %fs:0x28,%rbx
    cd98:	00 00 
    cd9a:	74 05                	je     cda1 <func_2+0x2526>
    cd9c:	e8 cf 82 ff ff       	callq  5070 <__stack_chk_fail@plt>
    cda1:	48 81 c4 58 0e 00 00 	add    $0xe58,%rsp
    cda8:	5b                   	pop    %rbx
    cda9:	41 5c                	pop    %r12
    cdab:	41 5d                	pop    %r13
    cdad:	41 5e                	pop    %r14
    cdaf:	41 5f                	pop    %r15
    cdb1:	5d                   	pop    %rbp
    cdb2:	c3                   	retq   

000000000000cdb3 <func_8>:
    cdb3:	f3 0f 1e fa          	endbr64 
    cdb7:	55                   	push   %rbp
    cdb8:	48 89 e5             	mov    %rsp,%rbp
    cdbb:	48 81 ec 00 02 00 00 	sub    $0x200,%rsp
    cdc2:	89 bd 0c fe ff ff    	mov    %edi,-0x1f4(%rbp)
    cdc8:	89 b5 08 fe ff ff    	mov    %esi,-0x1f8(%rbp)
    cdce:	64 48 8b 04 25 28 00 	mov    %fs:0x28,%rax
    cdd5:	00 00 
    cdd7:	48 89 45 f8          	mov    %rax,-0x8(%rbp)
    cddb:	31 c0                	xor    %eax,%eax
    cddd:	66 c7 85 1c fe ff ff 	movw   $0x6038,-0x1e4(%rbp)
    cde4:	38 60 
    cde6:	48 8d 05 3b a2 00 00 	lea    0xa23b(%rip),%rax        # 17028 <g_14>
    cded:	48 89 85 28 fe ff ff 	mov    %rax,-0x1d8(%rbp)
    cdf4:	66 c7 85 36 fe ff ff 	movw   $0x5,-0x1ca(%rbp)
    cdfb:	05 00 
    cdfd:	66 c7 85 38 fe ff ff 	movw   $0x5,-0x1c8(%rbp)
    ce04:	05 00 
    ce06:	66 c7 85 3a fe ff ff 	movw   $0x5,-0x1c6(%rbp)
    ce0d:	05 00 
    ce0f:	66 c7 85 3c fe ff ff 	movw   $0x5,-0x1c4(%rbp)
    ce16:	05 00 
    ce18:	66 c7 85 3e fe ff ff 	movw   $0x5,-0x1c2(%rbp)
    ce1f:	05 00 
    ce21:	c7 85 20 fe ff ff 38 	movl   $0x716b5b38,-0x1e0(%rbp)
    ce28:	5b 6b 71 
    ce2b:	48 8d 85 70 fe ff ff 	lea    -0x190(%rbp),%rax
    ce32:	48 8d 15 e7 b3 00 00 	lea    0xb3e7(%rip),%rdx        # 18220 <g_1634+0x438>
    ce39:	b9 30 00 00 00       	mov    $0x30,%ecx
    ce3e:	48 89 c7             	mov    %rax,%rdi
    ce41:	48 89 d6             	mov    %rdx,%rsi
    ce44:	f3 48 a5             	rep movsq %ds:(%rsi),%es:(%rdi)
    ce47:	c6 85 1b fe ff ff f7 	movb   $0xf7,-0x1e5(%rbp)
    ce4e:	c7 85 24 fe ff ff 45 	movl   $0xbfd4aa45,-0x1dc(%rbp)
    ce55:	aa d4 bf 
    ce58:	0f bf 95 1c fe ff ff 	movswl -0x1e4(%rbp),%edx
    ce5f:	48 8b 85 28 fe ff ff 	mov    -0x1d8(%rbp),%rax
    ce66:	89 10                	mov    %edx,(%rax)
    ce68:	c7 05 b6 a1 00 00 00 	movl   $0x0,0xa1b6(%rip)        # 17028 <g_14>
    ce6f:	00 00 00 
    ce72:	e9 96 00 00 00       	jmpq   cf0d <func_8+0x15a>
    ce77:	48 8d 05 ae a1 00 00 	lea    0xa1ae(%rip),%rax        # 1702c <g_20>
    ce7e:	48 89 85 40 fe ff ff 	mov    %rax,-0x1c0(%rbp)
    ce85:	48 8d 05 9c a1 00 00 	lea    0xa19c(%rip),%rax        # 17028 <g_14>
    ce8c:	48 89 85 48 fe ff ff 	mov    %rax,-0x1b8(%rbp)
    ce93:	48 8d 05 8e a1 00 00 	lea    0xa18e(%rip),%rax        # 17028 <g_14>
    ce9a:	48 89 85 50 fe ff ff 	mov    %rax,-0x1b0(%rbp)
    cea1:	48 8d 05 80 a1 00 00 	lea    0xa180(%rip),%rax        # 17028 <g_14>
    cea8:	48 89 85 58 fe ff ff 	mov    %rax,-0x1a8(%rbp)
    ceaf:	48 8d 05 72 a1 00 00 	lea    0xa172(%rip),%rax        # 17028 <g_14>
    ceb6:	48 89 85 60 fe ff ff 	mov    %rax,-0x1a0(%rbp)
    cebd:	48 8d 05 64 a1 00 00 	lea    0xa164(%rip),%rax        # 17028 <g_14>
    cec4:	48 89 85 68 fe ff ff 	mov    %rax,-0x198(%rbp)
    cecb:	66 c7 85 1e fe ff ff 	movw   $0x3,-0x1e2(%rbp)
    ced2:	03 00 
    ced4:	66 83 bd 1c fe ff ff 	cmpw   $0x0,-0x1e4(%rbp)
    cedb:	00 
    cedc:	74 05                	je     cee3 <func_8+0x130>
    cede:	e9 75 ff ff ff       	jmpq   ce58 <func_8+0xa5>
    cee3:	66 83 85 1e fe ff ff 	addw   $0x1,-0x1e2(%rbp)
    ceea:	01 
    ceeb:	8b 05 37 a1 00 00    	mov    0xa137(%rip),%eax        # 17028 <g_14>
    cef1:	48 98                	cltq   
    cef3:	0f b7 84 45 36 fe ff 	movzwl -0x1ca(%rbp,%rax,2),%eax
    cefa:	ff 
    cefb:	66 85 c0             	test   %ax,%ax
    cefe:	8b 05 24 a1 00 00    	mov    0xa124(%rip),%eax        # 17028 <g_14>
    cf04:	83 c0 01             	add    $0x1,%eax
    cf07:	89 05 1b a1 00 00    	mov    %eax,0xa11b(%rip)        # 17028 <g_14>
    cf0d:	8b 05 15 a1 00 00    	mov    0xa115(%rip),%eax        # 17028 <g_14>
    cf13:	83 f8 04             	cmp    $0x4,%eax
    cf16:	0f 8e 5b ff ff ff    	jle    ce77 <func_8+0xc4>
    cf1c:	8b 05 3a a1 00 00    	mov    0xa13a(%rip),%eax        # 1705c <g_29+0x1c>
    cf22:	83 c0 01             	add    $0x1,%eax
    cf25:	89 05 31 a1 00 00    	mov    %eax,0xa131(%rip)        # 1705c <g_29+0x1c>
    cf2b:	48 8b 05 fe d0 00 00 	mov    0xd0fe(%rip),%rax        # 1a030 <g_949>
    cf32:	48 89 c2             	mov    %rax,%rdx
    cf35:	83 bd 08 fe ff ff 00 	cmpl   $0x0,-0x1f8(%rbp)
    cf3c:	74 10                	je     cf4e <func_8+0x19b>
    cf3e:	83 bd 08 fe ff ff 00 	cmpl   $0x0,-0x1f8(%rbp)
    cf45:	74 07                	je     cf4e <func_8+0x19b>
    cf47:	b8 01 00 00 00       	mov    $0x1,%eax
    cf4c:	eb 05                	jmp    cf53 <func_8+0x1a0>
    cf4e:	b8 00 00 00 00       	mov    $0x0,%eax
    cf53:	48 98                	cltq   
    cf55:	48 89 d6             	mov    %rdx,%rsi
    cf58:	48 89 c7             	mov    %rax,%rdi
    cf5b:	e8 97 8a ff ff       	callq  59f7 <safe_div_func_int64_t_s_s>
    cf60:	48 85 c0             	test   %rax,%rax
    cf63:	74 10                	je     cf75 <func_8+0x1c2>
    cf65:	83 bd 08 fe ff ff 00 	cmpl   $0x0,-0x1f8(%rbp)
    cf6c:	74 07                	je     cf75 <func_8+0x1c2>
    cf6e:	b8 01 00 00 00       	mov    $0x1,%eax
    cf73:	eb 05                	jmp    cf7a <func_8+0x1c7>
    cf75:	b8 00 00 00 00       	mov    $0x0,%eax
    cf7a:	89 c6                	mov    %eax,%esi
    cf7c:	bf fd ff ff ff       	mov    $0xfffffffd,%edi
    cf81:	e8 a4 85 ff ff       	callq  552a <safe_rshift_func_int16_t_s_s>
    cf86:	89 c2                	mov    %eax,%edx
    cf88:	48 8b 05 61 c1 00 00 	mov    0xc161(%rip),%rax        # 190f0 <g_731>
    cf8f:	48 8b 00             	mov    (%rax),%rax
    cf92:	0f bf d2             	movswl %dx,%edx
    cf95:	89 10                	mov    %edx,(%rax)
    cf97:	8b 00                	mov    (%rax),%eax
    cf99:	89 c6                	mov    %eax,%esi
    cf9b:	bf 03 00 00 00       	mov    $0x3,%edi
    cfa0:	e8 11 86 ff ff       	callq  55b6 <safe_add_func_int32_t_s_s>
    cfa5:	b8 43 9b 00 00       	mov    $0x9b43,%eax
    cfaa:	20 85 1b fe ff ff    	and    %al,-0x1e5(%rbp)
    cfb0:	48 8d 95 20 fe ff ff 	lea    -0x1e0(%rbp),%rdx
    cfb7:	8b 85 0c fe ff ff    	mov    -0x1f4(%rbp),%eax
    cfbd:	89 c6                	mov    %eax,%esi
    cfbf:	48 8d 3d 66 a0 00 00 	lea    0xa066(%rip),%rdi        # 1702c <g_20>
    cfc6:	e8 42 00 00 00       	callq  d00d <func_32>
    cfcb:	8b 15 17 d0 00 00    	mov    0xd017(%rip),%edx        # 19fe8 <g_832>
    cfd1:	48 63 d2             	movslq %edx,%rdx
    cfd4:	48 39 d0             	cmp    %rdx,%rax
    cfd7:	0f 94 c0             	sete   %al
    cfda:	0f b6 d0             	movzbl %al,%edx
    cfdd:	8b 05 5d ad 00 00    	mov    0xad5d(%rip),%eax        # 17d40 <g_880>
    cfe3:	39 c2                	cmp    %eax,%edx
    cfe5:	0f 94 c0             	sete   %al
    cfe8:	0f b6 c0             	movzbl %al,%eax
    cfeb:	31 85 24 fe ff ff    	xor    %eax,-0x1dc(%rbp)
    cff1:	8b 85 08 fe ff ff    	mov    -0x1f8(%rbp),%eax
    cff7:	48 8b 4d f8          	mov    -0x8(%rbp),%rcx
    cffb:	64 48 33 0c 25 28 00 	xor    %fs:0x28,%rcx
    d002:	00 00 
    d004:	74 05                	je     d00b <func_8+0x258>
    d006:	e8 65 80 ff ff       	callq  5070 <__stack_chk_fail@plt>
    d00b:	c9                   	leaveq 
    d00c:	c3                   	retq   

000000000000d00d <func_32>:
    d00d:	f3 0f 1e fa          	endbr64 
    d011:	55                   	push   %rbp
    d012:	48 89 e5             	mov    %rsp,%rbp
    d015:	48 81 ec e0 00 00 00 	sub    $0xe0,%rsp
    d01c:	48 89 bd 38 ff ff ff 	mov    %rdi,-0xc8(%rbp)
    d023:	89 b5 34 ff ff ff    	mov    %esi,-0xcc(%rbp)
    d029:	48 89 95 28 ff ff ff 	mov    %rdx,-0xd8(%rbp)
    d030:	64 48 8b 04 25 28 00 	mov    %fs:0x28,%rax
    d037:	00 00 
    d039:	48 89 45 f8          	mov    %rax,-0x8(%rbp)
    d03d:	31 c0                	xor    %eax,%eax
    d03f:	c7 85 50 ff ff ff 07 	movl   $0x7,-0xb0(%rbp)
    d046:	00 00 00 
    d049:	66 c7 85 46 ff ff ff 	movw   $0x0,-0xba(%rbp)
    d050:	00 00 
    d052:	48 8d 05 bf a2 00 00 	lea    0xa2bf(%rip),%rax        # 17318 <g_198+0x38>
    d059:	48 89 45 88          	mov    %rax,-0x78(%rbp)
    d05d:	c7 85 54 ff ff ff 14 	movl   $0xd2a78914,-0xac(%rbp)
    d064:	89 a7 d2 
    d067:	c7 85 58 ff ff ff 2f 	movl   $0xdfac672f,-0xa8(%rbp)
    d06e:	67 ac df 
    d071:	c7 85 5c ff ff ff f9 	movl   $0xfffffff9,-0xa4(%rbp)
    d078:	ff ff ff 
    d07b:	48 8d 05 0e bb 00 00 	lea    0xbb0e(%rip),%rax        # 18b90 <g_221+0x10>
    d082:	48 89 45 90          	mov    %rax,-0x70(%rbp)
    d086:	c7 85 48 ff ff ff 00 	movl   $0x0,-0xb8(%rbp)
    d08d:	00 00 00 
    d090:	eb 14                	jmp    d0a6 <func_32+0x99>
    d092:	8b 85 48 ff ff ff    	mov    -0xb8(%rbp),%eax
    d098:	48 98                	cltq   
    d09a:	c6 44 05 f7 fb       	movb   $0xfb,-0x9(%rbp,%rax,1)
    d09f:	83 85 48 ff ff ff 01 	addl   $0x1,-0xb8(%rbp)
    d0a6:	83 bd 48 ff ff ff 00 	cmpl   $0x0,-0xb8(%rbp)
    d0ad:	7e e3                	jle    d092 <func_32+0x85>
    d0af:	c6 05 7b 9f 00 00 00 	movb   $0x0,0x9f7b(%rip)        # 17031 <g_27>
    d0b6:	e9 67 01 00 00       	jmpq   d222 <func_32+0x215>
    d0bb:	c7 85 60 ff ff ff ff 	movl   $0xffffffff,-0xa0(%rbp)
    d0c2:	ff ff ff 
    d0c5:	c7 85 64 ff ff ff f8 	movl   $0xfffffff8,-0x9c(%rbp)
    d0cc:	ff ff ff 
    d0cf:	c7 45 d0 d3 bb bb d3 	movl   $0xd3bbbbd3,-0x30(%rbp)
    d0d6:	c6 45 d4 bb          	movb   $0xbb,-0x2c(%rbp)
    d0da:	c7 45 d5 ff 01 ff 01 	movl   $0x1ff01ff,-0x2b(%rbp)
    d0e1:	c6 45 d9 ff          	movb   $0xff,-0x27(%rbp)
    d0e5:	c7 45 da bb d3 bb bb 	movl   $0xbbbbd3bb,-0x26(%rbp)
    d0ec:	c6 45 de d3          	movb   $0xd3,-0x22(%rbp)
    d0f0:	c7 45 df ff 87 59 01 	movl   $0x15987ff,-0x21(%rbp)
    d0f7:	c6 45 e3 59          	movb   $0x59,-0x1d(%rbp)
    d0fb:	c7 45 e4 d3 d3 6d d3 	movl   $0xd36dd3d3,-0x1c(%rbp)
    d102:	c6 45 e8 d3          	movb   $0xd3,-0x18(%rbp)
    d106:	c7 45 e9 59 01 59 87 	movl   $0x87590159,-0x17(%rbp)
    d10d:	c6 45 ed ff          	movb   $0xff,-0x13(%rbp)
    d111:	c7 45 ee d3 bb bb d3 	movl   $0xd3bbbbd3,-0x12(%rbp)
    d118:	c6 45 f2 bb          	movb   $0xbb,-0xe(%rbp)
    d11c:	c7 85 68 ff ff ff ff 	movl   $0xffffffff,-0x98(%rbp)
    d123:	ff ff ff 
    d126:	48 8d 05 63 ba 00 00 	lea    0xba63(%rip),%rax        # 18b90 <g_221+0x10>
    d12d:	48 89 45 98          	mov    %rax,-0x68(%rbp)
    d131:	48 8d 05 90 a1 00 00 	lea    0xa190(%rip),%rax        # 172c8 <g_196+0x8>
    d138:	48 89 45 a0          	mov    %rax,-0x60(%rbp)
    d13c:	c7 85 6c ff ff ff fb 	movl   $0x21632efb,-0x94(%rbp)
    d143:	2e 63 21 
    d146:	c7 85 4c ff ff ff 00 	movl   $0x0,-0xb4(%rbp)
    d14d:	00 00 00 
    d150:	eb 18                	jmp    d16a <func_32+0x15d>
    d152:	8b 85 4c ff ff ff    	mov    -0xb4(%rbp),%eax
    d158:	48 98                	cltq   
    d15a:	48 c7 44 c5 c0 00 00 	movq   $0x0,-0x40(%rbp,%rax,8)
    d161:	00 00 
    d163:	83 85 4c ff ff ff 01 	addl   $0x1,-0xb4(%rbp)
    d16a:	83 bd 4c ff ff ff 01 	cmpl   $0x1,-0xb4(%rbp)
    d171:	7e df                	jle    d152 <func_32+0x145>
    d173:	c7 05 ab 9e 00 00 01 	movl   $0x1,0x9eab(%rip)        # 17028 <g_14>
    d17a:	00 00 00 
    d17d:	eb 59                	jmp    d1d8 <func_32+0x1cb>
    d17f:	c7 85 74 ff ff ff 37 	movl   $0x8385637,-0x8c(%rbp)
    d186:	56 38 08 
    d189:	48 8d 05 d4 9e 00 00 	lea    0x9ed4(%rip),%rax        # 17064 <g_66>
    d190:	48 89 45 a8          	mov    %rax,-0x58(%rbp)
    d194:	48 8d 05 cb 9e 00 00 	lea    0x9ecb(%rip),%rax        # 17066 <g_69>
    d19b:	48 89 45 b0          	mov    %rax,-0x50(%rbp)
    d19f:	c7 85 78 ff ff ff d2 	movl   $0xc0867ad2,-0x88(%rbp)
    d1a6:	7a 86 c0 
    d1a9:	c7 85 7c ff ff ff 01 	movl   $0x1,-0x84(%rbp)
    d1b0:	00 00 00 
    d1b3:	c7 45 80 db cb 1f 75 	movl   $0x751fcbdb,-0x80(%rbp)
    d1ba:	48 c7 45 b8 00 00 00 	movq   $0x0,-0x48(%rbp)
    d1c1:	00 
    d1c2:	c7 45 84 00 00 00 00 	movl   $0x0,-0x7c(%rbp)
    d1c9:	8b 05 59 9e 00 00    	mov    0x9e59(%rip),%eax        # 17028 <g_14>
    d1cf:	83 c0 01             	add    $0x1,%eax
    d1d2:	89 05 50 9e 00 00    	mov    %eax,0x9e50(%rip)        # 17028 <g_14>
    d1d8:	8b 05 4a 9e 00 00    	mov    0x9e4a(%rip),%eax        # 17028 <g_14>
    d1de:	83 f8 08             	cmp    $0x8,%eax
    d1e1:	7e 9c                	jle    d17f <func_32+0x172>
    d1e3:	c7 05 c3 ab 00 00 06 	movl   $0x6,0xabc3(%rip)        # 17db0 <g_886>
    d1ea:	00 00 00 
    d1ed:	eb 19                	jmp    d208 <func_32+0x1fb>
    d1ef:	c7 85 70 ff ff ff ff 	movl   $0xffffffff,-0x90(%rbp)
    d1f6:	ff ff ff 
    d1f9:	8b 05 b1 ab 00 00    	mov    0xabb1(%rip),%eax        # 17db0 <g_886>
    d1ff:	83 e8 01             	sub    $0x1,%eax
    d202:	89 05 a8 ab 00 00    	mov    %eax,0xaba8(%rip)        # 17db0 <g_886>
    d208:	8b 05 a2 ab 00 00    	mov    0xaba2(%rip),%eax        # 17db0 <g_886>
    d20e:	85 c0                	test   %eax,%eax
    d210:	79 dd                	jns    d1ef <func_32+0x1e2>
    d212:	0f b6 05 18 9e 00 00 	movzbl 0x9e18(%rip),%eax        # 17031 <g_27>
    d219:	83 c0 01             	add    $0x1,%eax
    d21c:	88 05 0f 9e 00 00    	mov    %al,0x9e0f(%rip)        # 17031 <g_27>
    d222:	0f b6 05 08 9e 00 00 	movzbl 0x9e08(%rip),%eax        # 17031 <g_27>
    d229:	3c 08                	cmp    $0x8,%al
    d22b:	0f 8e 8a fe ff ff    	jle    d0bb <func_32+0xae>
    d231:	8b 85 34 ff ff ff    	mov    -0xcc(%rbp),%eax
    d237:	48 8b 4d f8          	mov    -0x8(%rbp),%rcx
    d23b:	64 48 33 0c 25 28 00 	xor    %fs:0x28,%rcx
    d242:	00 00 
    d244:	74 05                	je     d24b <func_32+0x23e>
    d246:	e8 25 7e ff ff       	callq  5070 <__stack_chk_fail@plt>
    d24b:	c9                   	leaveq 
    d24c:	c3                   	retq   

000000000000d24d <func_36>:
    d24d:	f3 0f 1e fa          	endbr64 
    d251:	55                   	push   %rbp
    d252:	48 89 e5             	mov    %rsp,%rbp
    d255:	41 57                	push   %r15
    d257:	41 56                	push   %r14
    d259:	41 55                	push   %r13
    d25b:	41 54                	push   %r12
    d25d:	53                   	push   %rbx
    d25e:	48 81 ec 58 06 00 00 	sub    $0x658,%rsp
    d265:	89 f9                	mov    %edi,%ecx
    d267:	89 b5 88 f9 ff ff    	mov    %esi,-0x678(%rbp)
    d26d:	89 d0                	mov    %edx,%eax
    d26f:	89 ca                	mov    %ecx,%edx
    d271:	88 95 8c f9 ff ff    	mov    %dl,-0x674(%rbp)
    d277:	88 85 84 f9 ff ff    	mov    %al,-0x67c(%rbp)
    d27d:	64 48 8b 04 25 28 00 	mov    %fs:0x28,%rax
    d284:	00 00 
    d286:	48 89 45 c8          	mov    %rax,-0x38(%rbp)
    d28a:	31 c0                	xor    %eax,%eax
    d28c:	48 c7 85 00 fa ff ff 	movq   $0x9,-0x600(%rbp)
    d293:	09 00 00 00 
    d297:	48 c7 85 08 fa ff ff 	movq   $0x0,-0x5f8(%rbp)
    d29e:	00 00 00 00 
    d2a2:	48 8d 05 7b 9e 00 00 	lea    0x9e7b(%rip),%rax        # 17124 <g_72+0xa4>
    d2a9:	48 89 85 10 fa ff ff 	mov    %rax,-0x5f0(%rbp)
    d2b0:	c7 85 9c f9 ff ff 00 	movl   $0x0,-0x664(%rbp)
    d2b7:	00 00 00 
    d2ba:	c6 85 99 f9 ff ff 05 	movb   $0x5,-0x667(%rbp)
    d2c1:	48 8d 05 18 cd 00 00 	lea    0xcd18(%rip),%rax        # 19fe0 <g_582>
    d2c8:	48 89 85 a0 fb ff ff 	mov    %rax,-0x460(%rbp)
    d2cf:	48 8d 05 0a cd 00 00 	lea    0xcd0a(%rip),%rax        # 19fe0 <g_582>
    d2d6:	48 89 85 a8 fb ff ff 	mov    %rax,-0x458(%rbp)
    d2dd:	48 8d 05 fc cc 00 00 	lea    0xccfc(%rip),%rax        # 19fe0 <g_582>
    d2e4:	48 89 85 b0 fb ff ff 	mov    %rax,-0x450(%rbp)
    d2eb:	48 8d 05 ee cc 00 00 	lea    0xccee(%rip),%rax        # 19fe0 <g_582>
    d2f2:	48 89 85 b8 fb ff ff 	mov    %rax,-0x448(%rbp)
    d2f9:	48 8d 05 e0 cc 00 00 	lea    0xcce0(%rip),%rax        # 19fe0 <g_582>
    d300:	48 89 85 c0 fb ff ff 	mov    %rax,-0x440(%rbp)
    d307:	48 8d 05 d2 cc 00 00 	lea    0xccd2(%rip),%rax        # 19fe0 <g_582>
    d30e:	48 89 85 c8 fb ff ff 	mov    %rax,-0x438(%rbp)
    d315:	48 8d 05 c4 cc 00 00 	lea    0xccc4(%rip),%rax        # 19fe0 <g_582>
    d31c:	48 89 85 d0 fb ff ff 	mov    %rax,-0x430(%rbp)
    d323:	48 c7 85 18 fa ff ff 	movq   $0x0,-0x5e8(%rbp)
    d32a:	00 00 00 00 
    d32e:	48 8d 05 ab cc 00 00 	lea    0xccab(%rip),%rax        # 19fe0 <g_582>
    d335:	48 89 85 20 fa ff ff 	mov    %rax,-0x5e0(%rbp)
    d33c:	c7 85 a4 f9 ff ff 00 	movl   $0x0,-0x65c(%rbp)
    d343:	00 00 00 
    d346:	eb 1a                	jmp    d362 <func_36+0x115>
    d348:	8b 85 a4 f9 ff ff    	mov    -0x65c(%rbp),%eax
    d34e:	48 98                	cltq   
    d350:	c7 84 85 00 fb ff ff 	movl   $0x1,-0x500(%rbp,%rax,4)
    d357:	01 00 00 00 
    d35b:	83 85 a4 f9 ff ff 01 	addl   $0x1,-0x65c(%rbp)
    d362:	83 bd a4 f9 ff ff 06 	cmpl   $0x6,-0x65c(%rbp)
    d369:	7e dd                	jle    d348 <func_36+0xfb>
    d36b:	c7 85 a4 f9 ff ff 00 	movl   $0x0,-0x65c(%rbp)
    d372:	00 00 00 
    d375:	e9 8b 00 00 00       	jmpq   d405 <func_36+0x1b8>
    d37a:	c7 85 a8 f9 ff ff 00 	movl   $0x0,-0x658(%rbp)
    d381:	00 00 00 
    d384:	eb 6f                	jmp    d3f5 <func_36+0x1a8>
    d386:	c7 85 ac f9 ff ff 00 	movl   $0x0,-0x654(%rbp)
    d38d:	00 00 00 
    d390:	eb 53                	jmp    d3e5 <func_36+0x198>
    d392:	8b 85 ac f9 ff ff    	mov    -0x654(%rbp),%eax
    d398:	48 63 f0             	movslq %eax,%rsi
    d39b:	8b 85 a4 f9 ff ff    	mov    -0x65c(%rbp),%eax
    d3a1:	48 63 d0             	movslq %eax,%rdx
    d3a4:	8b 85 a8 f9 ff ff    	mov    -0x658(%rbp),%eax
    d3aa:	48 63 c8             	movslq %eax,%rcx
    d3ad:	48 89 d0             	mov    %rdx,%rax
    d3b0:	48 c1 e0 03          	shl    $0x3,%rax
    d3b4:	48 01 d0             	add    %rdx,%rax
    d3b7:	48 c1 e0 03          	shl    $0x3,%rax
    d3bb:	48 89 ca             	mov    %rcx,%rdx
    d3be:	48 c1 e2 03          	shl    $0x3,%rdx
    d3c2:	48 01 ca             	add    %rcx,%rdx
    d3c5:	48 01 d0             	add    %rdx,%rax
    d3c8:	48 01 f0             	add    %rsi,%rax
    d3cb:	48 8d 95 a0 fb ff ff 	lea    -0x460(%rbp),%rdx
    d3d2:	48 83 c2 28          	add    $0x28,%rdx
    d3d6:	48 89 94 c5 80 fd ff 	mov    %rdx,-0x280(%rbp,%rax,8)
    d3dd:	ff 
    d3de:	83 85 ac f9 ff ff 01 	addl   $0x1,-0x654(%rbp)
    d3e5:	83 bd ac f9 ff ff 08 	cmpl   $0x8,-0x654(%rbp)
    d3ec:	7e a4                	jle    d392 <func_36+0x145>
    d3ee:	83 85 a8 f9 ff ff 01 	addl   $0x1,-0x658(%rbp)
    d3f5:	83 bd a8 f9 ff ff 07 	cmpl   $0x7,-0x658(%rbp)
    d3fc:	7e 88                	jle    d386 <func_36+0x139>
    d3fe:	83 85 a4 f9 ff ff 01 	addl   $0x1,-0x65c(%rbp)
    d405:	83 bd a4 f9 ff ff 00 	cmpl   $0x0,-0x65c(%rbp)
    d40c:	0f 8e 68 ff ff ff    	jle    d37a <func_36+0x12d>
    d412:	0f b6 85 8c f9 ff ff 	movzbl -0x674(%rbp),%eax
    d419:	44 0f b6 e0          	movzbl %al,%r12d
    d41d:	48 8b 85 00 fa ff ff 	mov    -0x600(%rbp),%rax
    d424:	34 c5                	xor    $0xc5,%al
    d426:	48 89 c2             	mov    %rax,%rdx
    d429:	0f b6 85 84 f9 ff ff 	movzbl -0x67c(%rbp),%eax
    d430:	0f b6 c0             	movzbl %al,%eax
    d433:	48 89 d6             	mov    %rdx,%rsi
    d436:	48 89 c7             	mov    %rax,%rdi
    d439:	e8 6a 84 ff ff       	callq  58a8 <safe_sub_func_int64_t_s_s>
    d43e:	be 01 00 00 00       	mov    $0x1,%esi
    d443:	89 c7                	mov    %eax,%edi
    d445:	e8 b3 8a ff ff       	callq  5efd <safe_mod_func_uint32_t_u_u>
    d44a:	89 c3                	mov    %eax,%ebx
    d44c:	8b 05 da 9b 00 00    	mov    0x9bda(%rip),%eax        # 1702c <g_20>
    d452:	0f be c0             	movsbl %al,%eax
    d455:	be 06 00 00 00       	mov    $0x6,%esi
    d45a:	89 c7                	mov    %eax,%edi
    d45c:	e8 8d 7e ff ff       	callq  52ee <safe_lshift_func_int8_t_s_u>
    d461:	0f be c0             	movsbl %al,%eax
    d464:	39 c3                	cmp    %eax,%ebx
    d466:	0f 94 c0             	sete   %al
    d469:	0f b6 c0             	movzbl %al,%eax
    d46c:	41 39 c4             	cmp    %eax,%r12d
    d46f:	0f 8c ba 03 00 00    	jl     d82f <func_36+0x5e2>
    d475:	48 8b 85 00 fa ff ff 	mov    -0x600(%rbp),%rax
    d47c:	89 c1                	mov    %eax,%ecx
    d47e:	48 8b 85 10 fa ff ff 	mov    -0x5f0(%rbp),%rax
    d485:	8b 10                	mov    (%rax),%edx
    d487:	0f b6 05 a3 9b 00 00 	movzbl 0x9ba3(%rip),%eax        # 17031 <g_27>
    d48e:	0f be c0             	movsbl %al,%eax
    d491:	31 c2                	xor    %eax,%edx
    d493:	48 8b 85 10 fa ff ff 	mov    -0x5f0(%rbp),%rax
    d49a:	89 10                	mov    %edx,(%rax)
    d49c:	48 8b 85 10 fa ff ff 	mov    -0x5f0(%rbp),%rax
    d4a3:	8b 00                	mov    (%rax),%eax
    d4a5:	89 ce                	mov    %ecx,%esi
    d4a7:	89 c7                	mov    %eax,%edi
    d4a9:	e8 4f 8a ff ff       	callq  5efd <safe_mod_func_uint32_t_u_u>
    d4ae:	0f b7 c0             	movzwl %ax,%eax
    d4b1:	25 7d d2 00 00       	and    $0xd27d,%eax
    d4b6:	be f6 ff 00 00       	mov    $0xfff6,%esi
    d4bb:	89 c7                	mov    %eax,%edi
    d4bd:	e8 7b 88 ff ff       	callq  5d3d <safe_mul_func_uint16_t_u_u>
    d4c2:	66 85 c0             	test   %ax,%ax
    d4c5:	0f 84 64 03 00 00    	je     d82f <func_36+0x5e2>
    d4cb:	48 c7 85 28 fa ff ff 	movq   $0x1,-0x5d8(%rbp)
    d4d2:	01 00 00 00 
    d4d6:	48 c7 85 30 fa ff ff 	movq   $0x0,-0x5d0(%rbp)
    d4dd:	00 00 00 00 
    d4e1:	48 8d 05 03 9f 00 00 	lea    0x9f03(%rip),%rax        # 173eb <g_477+0x1>
    d4e8:	48 89 85 38 fa ff ff 	mov    %rax,-0x5c8(%rbp)
    d4ef:	48 8d 05 fb 9e 00 00 	lea    0x9efb(%rip),%rax        # 173f1 <g_653>
    d4f6:	48 89 85 40 fa ff ff 	mov    %rax,-0x5c0(%rbp)
    d4fd:	48 8d 05 dc 9e 00 00 	lea    0x9edc(%rip),%rax        # 173e0 <g_304>
    d504:	48 89 85 48 fa ff ff 	mov    %rax,-0x5b8(%rbp)
    d50b:	48 8d 85 60 fc ff ff 	lea    -0x3a0(%rbp),%rax
    d512:	48 8d 15 87 ae 00 00 	lea    0xae87(%rip),%rdx        # 183a0 <g_1634+0x5b8>
    d519:	b9 24 00 00 00       	mov    $0x24,%ecx
    d51e:	48 89 c7             	mov    %rax,%rdi
    d521:	48 89 d6             	mov    %rdx,%rsi
    d524:	f3 48 a5             	rep movsq %ds:(%rsi),%es:(%rdi)
    d527:	48 c7 85 20 fc ff ff 	movq   $0x0,-0x3e0(%rbp)
    d52e:	00 00 00 00 
    d532:	48 c7 85 28 fc ff ff 	movq   $0x0,-0x3d8(%rbp)
    d539:	00 00 00 00 
    d53d:	48 c7 85 30 fc ff ff 	movq   $0x0,-0x3d0(%rbp)
    d544:	00 00 00 00 
    d548:	48 c7 85 38 fc ff ff 	movq   $0x0,-0x3c8(%rbp)
    d54f:	00 00 00 00 
    d553:	48 c7 85 40 fc ff ff 	movq   $0x0,-0x3c0(%rbp)
    d55a:	00 00 00 00 
    d55e:	48 c7 85 48 fc ff ff 	movq   $0x0,-0x3b8(%rbp)
    d565:	00 00 00 00 
    d569:	48 8d 85 20 fc ff ff 	lea    -0x3e0(%rbp),%rax
    d570:	48 83 c0 28          	add    $0x28,%rax
    d574:	48 89 85 50 fa ff ff 	mov    %rax,-0x5b0(%rbp)
    d57b:	48 8d 85 80 fd ff ff 	lea    -0x280(%rbp),%rax
    d582:	48 05 90 01 00 00    	add    $0x190,%rax
    d588:	48 89 85 58 fa ff ff 	mov    %rax,-0x5a8(%rbp)
    d58f:	be cb 4f 00 00       	mov    $0x4fcb,%esi
    d594:	bf fd ff ff ff       	mov    $0xfffffffd,%edi
    d599:	e8 15 7e ff ff       	callq  53b3 <safe_add_func_int16_t_s_s>
    d59e:	98                   	cwtl   
    d59f:	89 c6                	mov    %eax,%esi
    d5a1:	bf 0d 11 f5 f9       	mov    $0xf9f5110d,%edi
    d5a6:	e8 0d 89 ff ff       	callq  5eb8 <safe_add_func_uint32_t_u_u>
    d5ab:	85 c0                	test   %eax,%eax
    d5ad:	0f 85 89 01 00 00    	jne    d73c <func_36+0x4ef>
    d5b3:	48 8b 85 28 fa ff ff 	mov    -0x5d8(%rbp),%rax
    d5ba:	0f b6 d8             	movzbl %al,%ebx
    d5bd:	48 8b 85 28 fa ff ff 	mov    -0x5d8(%rbp),%rax
    d5c4:	48 39 85 00 fa ff ff 	cmp    %rax,-0x600(%rbp)
    d5cb:	0f 93 c0             	setae  %al
    d5ce:	0f b6 d0             	movzbl %al,%edx
    d5d1:	0f b6 85 8c f9 ff ff 	movzbl -0x674(%rbp),%eax
    d5d8:	0f b6 c0             	movzbl %al,%eax
    d5db:	39 c2                	cmp    %eax,%edx
    d5dd:	0f 9e c0             	setle  %al
    d5e0:	44 0f b6 f8          	movzbl %al,%r15d
    d5e4:	48 8b 85 28 fa ff ff 	mov    -0x5d8(%rbp),%rax
    d5eb:	44 0f b7 e0          	movzwl %ax,%r12d
    d5ef:	44 8b ad 88 f9 ff ff 	mov    -0x678(%rbp),%r13d
    d5f6:	48 8b 85 00 fa ff ff 	mov    -0x600(%rbp),%rax
    d5fd:	44 0f b6 f0          	movzbl %al,%r14d
    d601:	be ff ff ff ff       	mov    $0xffffffff,%esi
    d606:	bf 3e 00 00 00       	mov    $0x3e,%edi
    d60b:	e8 5a 7c ff ff       	callq  526a <safe_div_func_int8_t_s_s>
    d610:	83 c8 01             	or     $0x1,%eax
    d613:	0f be c0             	movsbl %al,%eax
    d616:	be 07 00 00 00       	mov    $0x7,%esi
    d61b:	89 c7                	mov    %eax,%edi
    d61d:	e8 13 7d ff ff       	callq  5335 <safe_rshift_func_int8_t_s_s>
    d622:	48 0f be c0          	movsbq %al,%rax
    d626:	48 39 85 28 fa ff ff 	cmp    %rax,-0x5d8(%rbp)
    d62d:	0f 9d c0             	setge  %al
    d630:	0f b6 c0             	movzbl %al,%eax
    d633:	44 89 f6             	mov    %r14d,%esi
    d636:	89 c7                	mov    %eax,%edi
    d638:	e8 71 85 ff ff       	callq  5bae <safe_mod_func_uint8_t_u_u>
    d63d:	0f b6 c0             	movzbl %al,%eax
    d640:	be a7 00 00 00       	mov    $0xa7,%esi
    d645:	89 c7                	mov    %eax,%edi
    d647:	e8 47 85 ff ff       	callq  5b93 <safe_mul_func_uint8_t_u_u>
    d64c:	48 8b 95 38 fa ff ff 	mov    -0x5c8(%rbp),%rdx
    d653:	88 02                	mov    %al,(%rdx)
    d655:	48 8b 85 38 fa ff ff 	mov    -0x5c8(%rbp),%rax
    d65c:	0f b6 00             	movzbl (%rax),%eax
    d65f:	88 05 8b 9d 00 00    	mov    %al,0x9d8b(%rip)        # 173f0 <g_612>
    d665:	0f b6 15 84 9d 00 00 	movzbl 0x9d84(%rip),%edx        # 173f0 <g_612>
    d66c:	48 8b 85 40 fa ff ff 	mov    -0x5c0(%rbp),%rax
    d673:	0f b6 00             	movzbl (%rax),%eax
    d676:	09 c2                	or     %eax,%edx
    d678:	48 8b 85 40 fa ff ff 	mov    -0x5c0(%rbp),%rax
    d67f:	88 10                	mov    %dl,(%rax)
    d681:	48 8b 85 40 fa ff ff 	mov    -0x5c0(%rbp),%rax
    d688:	0f b6 00             	movzbl (%rax),%eax
    d68b:	0f b6 c0             	movzbl %al,%eax
    d68e:	44 89 ee             	mov    %r13d,%esi
    d691:	89 c7                	mov    %eax,%edi
    d693:	e8 26 86 ff ff       	callq  5cbe <safe_rshift_func_uint8_t_u_u>
    d698:	84 c0                	test   %al,%al
    d69a:	74 12                	je     d6ae <func_36+0x461>
    d69c:	0f b6 85 8c f9 ff ff 	movzbl -0x674(%rbp),%eax
    d6a3:	84 c0                	test   %al,%al
    d6a5:	74 07                	je     d6ae <func_36+0x461>
    d6a7:	b8 01 00 00 00       	mov    $0x1,%eax
    d6ac:	eb 05                	jmp    d6b3 <func_36+0x466>
    d6ae:	b8 00 00 00 00       	mov    $0x0,%eax
    d6b3:	3d e0 3b 00 00       	cmp    $0x3be0,%eax
    d6b8:	0f 95 c0             	setne  %al
    d6bb:	0f b6 d0             	movzbl %al,%edx
    d6be:	8b 85 88 f9 ff ff    	mov    -0x678(%rbp),%eax
    d6c4:	39 c2                	cmp    %eax,%edx
    d6c6:	0f 97 c0             	seta   %al
    d6c9:	0f b6 d0             	movzbl %al,%edx
    d6cc:	48 8b 85 48 fa ff ff 	mov    -0x5b8(%rbp),%rax
    d6d3:	66 89 10             	mov    %dx,(%rax)
    d6d6:	48 8b 85 48 fa ff ff 	mov    -0x5b8(%rbp),%rax
    d6dd:	0f b7 00             	movzwl (%rax),%eax
    d6e0:	0f b7 c0             	movzwl %ax,%eax
    d6e3:	44 89 e6             	mov    %r12d,%esi
    d6e6:	89 c7                	mov    %eax,%edi
    d6e8:	e8 50 86 ff ff       	callq  5d3d <safe_mul_func_uint16_t_u_u>
    d6ed:	0f b7 c0             	movzwl %ax,%eax
    d6f0:	89 85 9c f9 ff ff    	mov    %eax,-0x664(%rbp)
    d6f6:	8b 85 9c f9 ff ff    	mov    -0x664(%rbp),%eax
    d6fc:	41 39 c7             	cmp    %eax,%r15d
    d6ff:	0f 9d c0             	setge  %al
    d702:	0f b6 c0             	movzbl %al,%eax
    d705:	89 de                	mov    %ebx,%esi
    d707:	89 c7                	mov    %eax,%edi
    d709:	e8 cd 84 ff ff       	callq  5bdb <safe_div_func_uint8_t_u_u>
    d70e:	0a 85 99 f9 ff ff    	or     -0x667(%rbp),%al
    d714:	0f b6 d0             	movzbl %al,%edx
    d717:	8b 05 3f 99 00 00    	mov    0x993f(%rip),%eax        # 1705c <g_29+0x1c>
    d71d:	39 c2                	cmp    %eax,%edx
    d71f:	74 0a                	je     d72b <func_36+0x4de>
    d721:	48 83 bd 28 fa ff ff 	cmpq   $0x0,-0x5d8(%rbp)
    d728:	00 
    d729:	74 07                	je     d732 <func_36+0x4e5>
    d72b:	b8 01 00 00 00       	mov    $0x1,%eax
    d730:	eb 05                	jmp    d737 <func_36+0x4ea>
    d732:	b8 00 00 00 00       	mov    $0x0,%eax
    d737:	83 f8 09             	cmp    $0x9,%eax
    d73a:	76 07                	jbe    d743 <func_36+0x4f6>
    d73c:	ba 01 00 00 00       	mov    $0x1,%edx
    d741:	eb 05                	jmp    d748 <func_36+0x4fb>
    d743:	ba 00 00 00 00       	mov    $0x0,%edx
    d748:	8b 85 0c fb ff ff    	mov    -0x4f4(%rbp),%eax
    d74e:	09 d0                	or     %edx,%eax
    d750:	89 85 0c fb ff ff    	mov    %eax,-0x4f4(%rbp)
    d756:	0f b6 05 d4 98 00 00 	movzbl 0x98d4(%rip),%eax        # 17031 <g_27>
    d75d:	0f be d8             	movsbl %al,%ebx
    d760:	48 8b 95 10 fe ff ff 	mov    -0x1f0(%rbp),%rdx
    d767:	48 8b 85 58 fa ff ff 	mov    -0x5a8(%rbp),%rax
    d76e:	48 89 10             	mov    %rdx,(%rax)
    d771:	48 8d 05 73 9c 00 00 	lea    0x9c73(%rip),%rax        # 173eb <g_477+0x1>
    d778:	48 89 05 41 b6 00 00 	mov    %rax,0xb641(%rip)        # 18dc0 <g_671>
    d77f:	48 8b 15 3a b6 00 00 	mov    0xb63a(%rip),%rdx        # 18dc0 <g_671>
    d786:	48 8d 85 84 f9 ff ff 	lea    -0x67c(%rbp),%rax
    d78d:	48 39 c2             	cmp    %rax,%rdx
    d790:	0f 95 c0             	setne  %al
    d793:	0f b6 d0             	movzbl %al,%edx
    d796:	48 8d 85 8c f9 ff ff 	lea    -0x674(%rbp),%rax
    d79d:	48 89 05 14 b6 00 00 	mov    %rax,0xb614(%rip)        # 18db8 <g_665>
    d7a4:	48 8b 05 0d b6 00 00 	mov    0xb60d(%rip),%rax        # 18db8 <g_665>
    d7ab:	48 8d 0d 39 9c 00 00 	lea    0x9c39(%rip),%rcx        # 173eb <g_477+0x1>
    d7b2:	48 39 c8             	cmp    %rcx,%rax
    d7b5:	0f 95 c0             	setne  %al
    d7b8:	0f b6 c0             	movzbl %al,%eax
    d7bb:	48 89 d6             	mov    %rdx,%rsi
    d7be:	48 89 c7             	mov    %rax,%rdi
    d7c1:	e8 7b 80 ff ff       	callq  5841 <safe_add_func_int64_t_s_s>
    d7c6:	89 de                	mov    %ebx,%esi
    d7c8:	bf 01 00 00 00       	mov    $0x1,%edi
    d7cd:	e8 40 7a ff ff       	callq  5212 <safe_mul_func_int8_t_s_s>
    d7d2:	0f be c0             	movsbl %al,%eax
    d7d5:	89 85 0c fb ff ff    	mov    %eax,-0x4f4(%rbp)
    d7db:	8b 85 0c fb ff ff    	mov    -0x4f4(%rbp),%eax
    d7e1:	89 c2                	mov    %eax,%edx
    d7e3:	8b 85 88 f9 ff ff    	mov    -0x678(%rbp),%eax
    d7e9:	39 c2                	cmp    %eax,%edx
    d7eb:	0f 95 c0             	setne  %al
    d7ee:	0f b6 d0             	movzbl %al,%edx
    d7f1:	8b 85 88 f9 ff ff    	mov    -0x678(%rbp),%eax
    d7f7:	39 c2                	cmp    %eax,%edx
    d7f9:	0f 95 c0             	setne  %al
    d7fc:	0f b6 c0             	movzbl %al,%eax
    d7ff:	89 c6                	mov    %eax,%esi
    d801:	bf 01 00 00 00       	mov    $0x1,%edi
    d806:	e8 a8 7b ff ff       	callq  53b3 <safe_add_func_int16_t_s_s>
    d80b:	66 85 c0             	test   %ax,%ax
    d80e:	75 08                	jne    d818 <func_36+0x5cb>
    d810:	8b 05 be c7 00 00    	mov    0xc7be(%rip),%eax        # 19fd4 <g_231>
    d816:	85 c0                	test   %eax,%eax
    d818:	0f b6 85 84 f9 ff ff 	movzbl -0x67c(%rbp),%eax
    d81f:	3c 1d                	cmp    $0x1d,%al
    d821:	0f 97 c0             	seta   %al
    d824:	0f b6 c0             	movzbl %al,%eax
    d827:	89 85 9c f9 ff ff    	mov    %eax,-0x664(%rbp)
    d82d:	eb 1d                	jmp    d84c <func_36+0x5ff>
    d82f:	48 8d 85 00 fb ff ff 	lea    -0x500(%rbp),%rax
    d836:	48 83 c0 0c          	add    $0xc,%rax
    d83a:	48 89 85 18 fa ff ff 	mov    %rax,-0x5e8(%rbp)
    d841:	8b 85 88 f9 ff ff    	mov    -0x678(%rbp),%eax
    d847:	e9 a3 0e 00 00       	jmpq   e6ef <func_36+0x14a2>
    d84c:	c7 85 0c fb ff ff 6b 	movl   $0x6ec776b,-0x4f4(%rbp)
    d853:	77 ec 06 
    d856:	66 c7 05 89 9b 00 00 	movw   $0x2,0x9b89(%rip)        # 173e8 <g_449>
    d85d:	02 00 
    d85f:	e9 39 0e 00 00       	jmpq   e69d <func_36+0x1450>
    d864:	c7 85 70 fb ff ff fa 	movl   $0xfffffffa,-0x490(%rbp)
    d86b:	ff ff ff 
    d86e:	c7 85 74 fb ff ff ff 	movl   $0xffffffff,-0x48c(%rbp)
    d875:	ff ff ff 
    d878:	c7 85 78 fb ff ff 00 	movl   $0x0,-0x488(%rbp)
    d87f:	00 00 00 
    d882:	c7 85 7c fb ff ff ee 	movl   $0xc13270ee,-0x484(%rbp)
    d889:	70 32 c1 
    d88c:	c7 85 80 fb ff ff ff 	movl   $0xffffffff,-0x480(%rbp)
    d893:	ff ff ff 
    d896:	c7 85 84 fb ff ff ee 	movl   $0xc13270ee,-0x47c(%rbp)
    d89d:	70 32 c1 
    d8a0:	c7 85 88 fb ff ff 00 	movl   $0x0,-0x478(%rbp)
    d8a7:	00 00 00 
    d8aa:	c7 85 8c fb ff ff ff 	movl   $0xffffffff,-0x474(%rbp)
    d8b1:	ff ff ff 
    d8b4:	c7 85 90 fb ff ff fa 	movl   $0xfffffffa,-0x470(%rbp)
    d8bb:	ff ff ff 
    d8be:	c7 85 94 fb ff ff fa 	movl   $0xfffffffa,-0x46c(%rbp)
    d8c5:	ff ff ff 
    d8c8:	c7 85 98 fb ff ff fa 	movl   $0xfffffffa,-0x468(%rbp)
    d8cf:	ff ff ff 
    d8d2:	c7 85 9c fb ff ff ff 	movl   $0xffffffff,-0x464(%rbp)
    d8d9:	ff ff ff 
    d8dc:	48 8d 05 fd c6 00 00 	lea    0xc6fd(%rip),%rax        # 19fe0 <g_582>
    d8e3:	48 89 85 60 fa ff ff 	mov    %rax,-0x5a0(%rbp)
    d8ea:	c7 85 b0 f9 ff ff 06 	movl   $0x71866206,-0x650(%rbp)
    d8f1:	62 86 71 
    d8f4:	48 8d 05 e9 9a 00 00 	lea    0x9ae9(%rip),%rax        # 173e4 <g_326>
    d8fb:	48 89 85 e8 f9 ff ff 	mov    %rax,-0x618(%rbp)
    d902:	48 8d 85 e8 f9 ff ff 	lea    -0x618(%rbp),%rax
    d909:	48 89 85 68 fa ff ff 	mov    %rax,-0x598(%rbp)
    d910:	c7 85 d0 f9 ff ff ff 	movl   $0xffffffff,-0x630(%rbp)
    d917:	ff ff ff 
    d91a:	c7 85 b4 f9 ff ff 00 	movl   $0x0,-0x64c(%rbp)
    d921:	00 00 00 
    d924:	eb 1a                	jmp    d940 <func_36+0x6f3>
    d926:	8b 85 b4 f9 ff ff    	mov    -0x64c(%rbp),%eax
    d92c:	48 98                	cltq   
    d92e:	c7 84 85 f4 fa ff ff 	movl   $0xc6dee6a0,-0x50c(%rbp,%rax,4)
    d935:	a0 e6 de c6 
    d939:	83 85 b4 f9 ff ff 01 	addl   $0x1,-0x64c(%rbp)
    d940:	83 bd b4 f9 ff ff 02 	cmpl   $0x2,-0x64c(%rbp)
    d947:	7e dd                	jle    d926 <func_36+0x6d9>
    d949:	c7 05 d1 96 00 00 00 	movl   $0x0,0x96d1(%rip)        # 17024 <g_11>
    d950:	00 00 00 
    d953:	e9 17 0d 00 00       	jmpq   e66f <func_36+0x1422>
    d958:	48 c7 85 20 fc ff ff 	movq   $0x0,-0x3e0(%rbp)
    d95f:	00 00 00 00 
    d963:	48 8d 05 5e c6 00 00 	lea    0xc65e(%rip),%rax        # 19fc8 <g_28>
    d96a:	48 89 85 28 fc ff ff 	mov    %rax,-0x3d8(%rbp)
    d971:	48 8d 05 50 c6 00 00 	lea    0xc650(%rip),%rax        # 19fc8 <g_28>
    d978:	48 89 85 30 fc ff ff 	mov    %rax,-0x3d0(%rbp)
    d97f:	48 c7 85 38 fc ff ff 	movq   $0x0,-0x3c8(%rbp)
    d986:	00 00 00 00 
    d98a:	48 8d 05 37 c6 00 00 	lea    0xc637(%rip),%rax        # 19fc8 <g_28>
    d991:	48 89 85 40 fc ff ff 	mov    %rax,-0x3c0(%rbp)
    d998:	48 8d 05 29 c6 00 00 	lea    0xc629(%rip),%rax        # 19fc8 <g_28>
    d99f:	48 89 85 48 fc ff ff 	mov    %rax,-0x3b8(%rbp)
    d9a6:	48 c7 85 50 fc ff ff 	movq   $0x0,-0x3b0(%rbp)
    d9ad:	00 00 00 00 
    d9b1:	48 8d 05 10 c6 00 00 	lea    0xc610(%rip),%rax        # 19fc8 <g_28>
    d9b8:	48 89 85 58 fc ff ff 	mov    %rax,-0x3a8(%rbp)
    d9bf:	48 c7 85 70 fa ff ff 	movq   $0x0,-0x590(%rbp)
    d9c6:	00 00 00 00 
    d9ca:	48 c7 85 78 fa ff ff 	movq   $0x0,-0x588(%rbp)
    d9d1:	00 00 00 00 
    d9d5:	48 8d 05 00 9a 00 00 	lea    0x9a00(%rip),%rax        # 173dc <g_234>
    d9dc:	48 89 85 80 fa ff ff 	mov    %rax,-0x580(%rbp)
    d9e3:	c7 85 a0 f9 ff ff 9a 	movl   $0xb9367a9a,-0x660(%rbp)
    d9ea:	7a 36 b9 
    d9ed:	c7 85 60 fc ff ff 2d 	movl   $0x9401f02d,-0x3a0(%rbp)
    d9f4:	f0 01 94 
    d9f7:	66 c7 85 64 fc ff ff 	movw   $0x194,-0x39c(%rbp)
    d9fe:	94 01 
    da00:	c6 85 66 fc ff ff f0 	movb   $0xf0,-0x39a(%rbp)
    da07:	c7 85 67 fc ff ff ff 	movl   $0xfff908ff,-0x399(%rbp)
    da0e:	08 f9 ff 
    da11:	66 c7 85 6b fc ff ff 	movw   $0x3a3a,-0x395(%rbp)
    da18:	3a 3a 
    da1a:	c6 85 6d fc ff ff ff 	movb   $0xff,-0x393(%rbp)
    da21:	c7 85 6e fc ff ff 15 	movl   $0x9f15f015,-0x392(%rbp)
    da28:	f0 15 9f 
    da2b:	66 c7 85 72 fc ff ff 	movw   $0xfff0,-0x38e(%rbp)
    da32:	f0 ff 
    da34:	c6 85 74 fc ff ff ff 	movb   $0xff,-0x38c(%rbp)
    da3b:	c7 85 75 fc ff ff fd 	movl   $0xfffffffd,-0x38b(%rbp)
    da42:	ff ff ff 
    da45:	66 c7 85 79 fc ff ff 	movw   $0xfffd,-0x387(%rbp)
    da4c:	fd ff 
    da4e:	c6 85 7b fc ff ff 05 	movb   $0x5,-0x385(%rbp)
    da55:	c7 85 7c fc ff ff 94 	movl   $0x949fff94,-0x384(%rbp)
    da5c:	ff 9f 94 
    da5f:	66 c7 85 80 fc ff ff 	movw   $0xff9f,-0x380(%rbp)
    da66:	9f ff 
    da68:	c6 85 82 fc ff ff 94 	movb   $0x94,-0x37e(%rbp)
    da6f:	c7 85 83 fc ff ff f9 	movl   $0x3a0805f9,-0x37d(%rbp)
    da76:	05 08 3a 
    da79:	66 c7 85 87 fc ff ff 	movw   $0x3a05,-0x379(%rbp)
    da80:	05 3a 
    da82:	c6 85 89 fc ff ff 08 	movb   $0x8,-0x377(%rbp)
    da89:	c7 85 8a fc ff ff 94 	movl   $0xf0019494,-0x376(%rbp)
    da90:	94 01 f0 
    da93:	66 c7 85 8e fc ff ff 	movw   $0x12d,-0x372(%rbp)
    da9a:	2d 01 
    da9c:	c6 85 90 fc ff ff 2d 	movb   $0x2d,-0x370(%rbp)
    daa3:	c7 85 91 fc ff ff fd 	movl   $0xfd0808fd,-0x36f(%rbp)
    daaa:	08 08 fd 
    daad:	66 c7 85 95 fc ff ff 	movw   $0xf93a,-0x36b(%rbp)
    dab4:	3a f9 
    dab6:	c6 85 97 fc ff ff fd 	movb   $0xfd,-0x369(%rbp)
    dabd:	c7 85 98 fc ff ff 15 	movl   $0x9f9f2d15,-0x368(%rbp)
    dac4:	2d 9f 9f 
    dac7:	66 c7 85 9c fc ff ff 	movw   $0x152d,-0x364(%rbp)
    dace:	2d 15 
    dad0:	c6 85 9e fc ff ff ff 	movb   $0xff,-0x362(%rbp)
    dad7:	c7 85 9f fc ff ff ff 	movl   $0x5fffdff,-0x361(%rbp)
    dade:	fd ff 05 
    dae1:	66 c7 85 a3 fc ff ff 	movw   $0xff05,-0x35d(%rbp)
    dae8:	05 ff 
    daea:	c6 85 a5 fc ff ff fd 	movb   $0xfd,-0x35b(%rbp)
    daf1:	c7 85 a6 fc ff ff 2d 	movl   $0x2d15ff2d,-0x35a(%rbp)
    daf8:	ff 15 2d 
    dafb:	66 c7 85 aa fc ff ff 	movw   $0x9f9f,-0x356(%rbp)
    db02:	9f 9f 
    db04:	c6 85 ac fc ff ff 2d 	movb   $0x2d,-0x354(%rbp)
    db0b:	c7 85 ad fc ff ff f9 	movl   $0x3af9fdf9,-0x353(%rbp)
    db12:	fd f9 3a 
    db15:	66 c7 85 b1 fc ff ff 	movw   $0x8fd,-0x34f(%rbp)
    db1c:	fd 08 
    db1e:	c6 85 b3 fc ff ff ff 	movb   $0xff,-0x34d(%rbp)
    db25:	c7 85 b4 fc ff ff ff 	movl   $0x9f949fff,-0x34c(%rbp)
    db2c:	9f 94 9f 
    db2f:	66 c7 85 b8 fc ff ff 	movw   $0x94ff,-0x348(%rbp)
    db36:	ff 94 
    db38:	c6 85 ba fc ff ff 15 	movb   $0x15,-0x346(%rbp)
    db3f:	c7 85 bb fc ff ff f9 	movl   $0xf901fff9,-0x345(%rbp)
    db46:	ff 01 f9 
    db49:	66 c7 85 bf fc ff ff 	movw   $0xff01,-0x341(%rbp)
    db50:	01 ff 
    db52:	c6 85 c1 fc ff ff f9 	movb   $0xf9,-0x33f(%rbp)
    db59:	c7 85 c2 fc ff ff fa 	movl   $0xfd0115fa,-0x33e(%rbp)
    db60:	15 01 fd 
    db63:	66 c7 85 c6 fc ff ff 	movw   $0xfd15,-0x33a(%rbp)
    db6a:	15 fd 
    db6c:	c6 85 c8 fc ff ff 01 	movb   $0x1,-0x338(%rbp)
    db73:	c7 85 c9 fc ff ff f9 	movl   $0x805f9f9,-0x337(%rbp)
    db7a:	f9 05 08 
    db7d:	66 c7 85 cd fc ff ff 	movw   $0x53a,-0x333(%rbp)
    db84:	3a 05 
    db86:	c6 85 cf fc ff ff 3a 	movb   $0x3a,-0x331(%rbp)
    db8d:	c7 85 d0 fc ff ff ff 	movl   $0xff0101ff,-0x330(%rbp)
    db94:	01 01 ff 
    db97:	66 c7 85 d4 fc ff ff 	movw   $0xfafd,-0x32c(%rbp)
    db9e:	fd fa 
    dba0:	c6 85 d6 fc ff ff ff 	movb   $0xff,-0x32a(%rbp)
    dba7:	c7 85 d7 fc ff ff 3e 	movl   $0x1013a3e,-0x329(%rbp)
    dbae:	3a 01 01 
    dbb1:	66 c7 85 db fc ff ff 	movw   $0x3e3a,-0x325(%rbp)
    dbb8:	3a 3e 
    dbba:	c6 85 dd fc ff ff ff 	movb   $0xff,-0x323(%rbp)
    dbc1:	c7 85 de fc ff ff 9f 	movl   $0x1594ff9f,-0x322(%rbp)
    dbc8:	ff 94 15 
    dbcb:	66 c7 85 e2 fc ff ff 	movw   $0x9415,-0x31e(%rbp)
    dbd2:	15 94 
    dbd4:	c6 85 e4 fc ff ff ff 	movb   $0xff,-0x31c(%rbp)
    dbdb:	c7 85 e5 fc ff ff 3a 	movl   $0x3a3eff3a,-0x31b(%rbp)
    dbe2:	ff 3e 3a 
    dbe5:	66 c7 85 e9 fc ff ff 	movw   $0x101,-0x317(%rbp)
    dbec:	01 01 
    dbee:	c6 85 eb fc ff ff 3a 	movb   $0x3a,-0x315(%rbp)
    dbf5:	c7 85 ec fc ff ff fa 	movl   $0xfdfafffa,-0x314(%rbp)
    dbfc:	ff fa fd 
    dbff:	66 c7 85 f0 fc ff ff 	movw   $0x1ff,-0x310(%rbp)
    dc06:	ff 01 
    dc08:	c6 85 f2 fc ff ff 01 	movb   $0x1,-0x30e(%rbp)
    dc0f:	c7 85 f3 fc ff ff 08 	movl   $0x3a053a08,-0x30d(%rbp)
    dc16:	3a 05 3a 
    dc19:	66 c7 85 f7 fc ff ff 	movw   $0x508,-0x309(%rbp)
    dc20:	08 05 
    dc22:	c6 85 f9 fc ff ff f9 	movb   $0xf9,-0x307(%rbp)
    dc29:	c7 85 fa fc ff ff 15 	movl   $0x15fd0115,-0x306(%rbp)
    dc30:	01 fd 15 
    dc33:	66 c7 85 fe fc ff ff 	movw   $0x1fd,-0x302(%rbp)
    dc3a:	fd 01 
    dc3c:	c6 85 00 fd ff ff 15 	movb   $0x15,-0x300(%rbp)
    dc43:	c7 85 01 fd ff ff 3e 	movl   $0x1fff93e,-0x2ff(%rbp)
    dc4a:	f9 ff 01 
    dc4d:	66 c7 85 05 fd ff ff 	movw   $0x1f9,-0x2fb(%rbp)
    dc54:	f9 01 
    dc56:	c6 85 07 fd ff ff ff 	movb   $0xff,-0x2f9(%rbp)
    dc5d:	c7 85 08 fd ff ff 15 	movl   $0xff941515,-0x2f8(%rbp)
    dc64:	15 94 ff 
    dc67:	66 c7 85 0c fd ff ff 	movw   $0x949f,-0x2f4(%rbp)
    dc6e:	9f 94 
    dc70:	c6 85 0e fd ff ff 9f 	movb   $0x9f,-0x2f2(%rbp)
    dc77:	c7 85 0f fd ff ff 08 	movl   $0x8ffff08,-0x2f1(%rbp)
    dc7e:	ff ff 08 
    dc81:	66 c7 85 13 fd ff ff 	movw   $0x3e01,-0x2ed(%rbp)
    dc88:	01 3e 
    dc8a:	c6 85 15 fd ff ff 08 	movb   $0x8,-0x2eb(%rbp)
    dc91:	c7 85 16 fd ff ff fa 	movl   $0xfdfd9ffa,-0x2ea(%rbp)
    dc98:	9f fd fd 
    dc9b:	66 c7 85 1a fd ff ff 	movw   $0xfa9f,-0x2e6(%rbp)
    dca2:	9f fa 
    dca4:	c6 85 1c fd ff ff 01 	movb   $0x1,-0x2e4(%rbp)
    dcab:	c7 85 1d fd ff ff 3a 	movl   $0xf905083a,-0x2e3(%rbp)
    dcb2:	08 05 f9 
    dcb5:	66 c7 85 21 fd ff ff 	movw   $0x5f9,-0x2df(%rbp)
    dcbc:	f9 05 
    dcbe:	c6 85 23 fd ff ff 08 	movb   $0x8,-0x2dd(%rbp)
    dcc5:	c7 85 b8 f9 ff ff 00 	movl   $0x0,-0x648(%rbp)
    dccc:	00 00 00 
    dccf:	eb 1b                	jmp    dcec <func_36+0xa9f>
    dcd1:	8b 85 b8 f9 ff ff    	mov    -0x648(%rbp),%eax
    dcd7:	48 98                	cltq   
    dcd9:	48 c7 84 c5 40 fb ff 	movq   $0x0,-0x4c0(%rbp,%rax,8)
    dce0:	ff 00 00 00 00 
    dce5:	83 85 b8 f9 ff ff 01 	addl   $0x1,-0x648(%rbp)
    dcec:	83 bd b8 f9 ff ff 04 	cmpl   $0x4,-0x648(%rbp)
    dcf3:	7e dc                	jle    dcd1 <func_36+0xa84>
    dcf5:	0f b6 85 84 f9 ff ff 	movzbl -0x67c(%rbp),%eax
    dcfc:	0f b6 d8             	movzbl %al,%ebx
    dcff:	48 8b 15 ba b0 00 00 	mov    0xb0ba(%rip),%rdx        # 18dc0 <g_671>
    dd06:	48 8b 05 b3 b0 00 00 	mov    0xb0b3(%rip),%rax        # 18dc0 <g_671>
    dd0d:	0f b6 12             	movzbl (%rdx),%edx
    dd10:	88 10                	mov    %dl,(%rax)
    dd12:	44 0f b6 28          	movzbl (%rax),%r13d
    dd16:	8b 85 88 f9 ff ff    	mov    -0x678(%rbp),%eax
    dd1c:	44 0f bf e0          	movswl %ax,%r12d
    dd20:	8b 05 fe 92 00 00    	mov    0x92fe(%rip),%eax        # 17024 <g_11>
    dd26:	8b 15 f8 92 00 00    	mov    0x92f8(%rip),%edx        # 17024 <g_11>
    dd2c:	48 63 ca             	movslq %edx,%rcx
    dd2f:	48 63 d0             	movslq %eax,%rdx
    dd32:	48 89 d0             	mov    %rdx,%rax
    dd35:	48 c1 e0 03          	shl    $0x3,%rax
    dd39:	48 01 d0             	add    %rdx,%rax
    dd3c:	48 01 c8             	add    %rcx,%rax
    dd3f:	48 8d 14 00          	lea    (%rax,%rax,1),%rdx
    dd43:	48 8d 05 96 95 00 00 	lea    0x9596(%rip),%rax        # 172e0 <g_198>
    dd4a:	0f b7 04 02          	movzwl (%rdx,%rax,1),%eax
    dd4e:	0f b7 d0             	movzwl %ax,%edx
    dd51:	8b 85 18 fb ff ff    	mov    -0x4e8(%rbp),%eax
    dd57:	89 85 18 fb ff ff    	mov    %eax,-0x4e8(%rbp)
    dd5d:	8b 85 18 fb ff ff    	mov    -0x4e8(%rbp),%eax
    dd63:	85 c0                	test   %eax,%eax
    dd65:	0f 94 c0             	sete   %al
    dd68:	0f b6 c8             	movzbl %al,%ecx
    dd6b:	8b 85 78 fb ff ff    	mov    -0x488(%rbp),%eax
    dd71:	39 c1                	cmp    %eax,%ecx
    dd73:	0f 95 c0             	setne  %al
    dd76:	0f b6 c0             	movzbl %al,%eax
    dd79:	48 89 d6             	mov    %rdx,%rsi
    dd7c:	48 89 c7             	mov    %rax,%rdi
    dd7f:	e8 c7 82 ff ff       	callq  604b <safe_sub_func_uint64_t_u_u>
    dd84:	98                   	cwtl   
    dd85:	44 89 e6             	mov    %r12d,%esi
    dd88:	89 c7                	mov    %eax,%edi
    dd8a:	e8 c6 76 ff ff       	callq  5455 <safe_div_func_int16_t_s_s>
    dd8f:	66 83 f8 05          	cmp    $0x5,%ax
    dd93:	0f 95 c0             	setne  %al
    dd96:	0f b6 c0             	movzbl %al,%eax
    dd99:	be a5 ff ff ff       	mov    $0xffffffa5,%esi
    dd9e:	89 c7                	mov    %eax,%edi
    dda0:	e8 c5 74 ff ff       	callq  526a <safe_div_func_int8_t_s_s>
    dda5:	0f be d0             	movsbl %al,%edx
    dda8:	0f b7 05 b5 92 00 00 	movzwl 0x92b5(%rip),%eax        # 17064 <g_66>
    ddaf:	0f b7 c0             	movzwl %ax,%eax
    ddb2:	21 d0                	and    %edx,%eax
    ddb4:	85 c0                	test   %eax,%eax
    ddb6:	8b 05 68 92 00 00    	mov    0x9268(%rip),%eax        # 17024 <g_11>
    ddbc:	8b 15 62 92 00 00    	mov    0x9262(%rip),%edx        # 17024 <g_11>
    ddc2:	48 63 ca             	movslq %edx,%rcx
    ddc5:	48 63 d0             	movslq %eax,%rdx
    ddc8:	48 89 d0             	mov    %rdx,%rax
    ddcb:	48 c1 e0 03          	shl    $0x3,%rax
    ddcf:	48 01 d0             	add    %rdx,%rax
    ddd2:	48 01 c8             	add    %rcx,%rax
    ddd5:	48 8d 14 00          	lea    (%rax,%rax,1),%rdx
    ddd9:	48 8d 05 00 95 00 00 	lea    0x9500(%rip),%rax        # 172e0 <g_198>
    dde0:	0f b7 04 02          	movzwl (%rdx,%rax,1),%eax
    dde4:	66 25 de c5          	and    $0xc5de,%ax
    dde8:	83 c8 01             	or     $0x1,%eax
    ddeb:	89 c2                	mov    %eax,%edx
    dded:	48 8b 85 80 fa ff ff 	mov    -0x580(%rbp),%rax
    ddf4:	66 89 10             	mov    %dx,(%rax)
    ddf7:	48 83 bd 60 fa ff ff 	cmpq   $0x0,-0x5a0(%rbp)
    ddfe:	00 
    ddff:	0f 94 c2             	sete   %dl
    de02:	48 8b 05 af af 00 00 	mov    0xafaf(%rip),%rax        # 18db8 <g_665>
    de09:	88 10                	mov    %dl,(%rax)
    de0b:	0f b6 00             	movzbl (%rax),%eax
    de0e:	41 38 c5             	cmp    %al,%r13b
    de11:	0f 95 c0             	setne  %al
    de14:	0f b6 c0             	movzbl %al,%eax
    de17:	89 de                	mov    %ebx,%esi
    de19:	89 c7                	mov    %eax,%edi
    de1b:	e8 2c 7e ff ff       	callq  5c4c <safe_lshift_func_uint8_t_u_u>
    de20:	0f b6 c0             	movzbl %al,%eax
    de23:	89 c6                	mov    %eax,%esi
    de25:	bf 00 00 00 00       	mov    $0x0,%edi
    de2a:	e8 7f 7d ff ff       	callq  5bae <safe_mod_func_uint8_t_u_u>
    de2f:	0f b6 d0             	movzbl %al,%edx
    de32:	8b 85 70 fb ff ff    	mov    -0x490(%rbp),%eax
    de38:	39 c2                	cmp    %eax,%edx
    de3a:	0f 8e ec 03 00 00    	jle    e22c <func_36+0xfdf>
    de40:	48 b8 6f 4e 90 c9 03 	movabs $0xb5b80903c9904e6f,%rax
    de47:	09 b8 b5 
    de4a:	48 89 85 f8 f9 ff ff 	mov    %rax,-0x608(%rbp)
    de51:	8b 85 90 fb ff ff    	mov    -0x470(%rbp),%eax
    de57:	85 c0                	test   %eax,%eax
    de59:	0f 85 21 08 00 00    	jne    e680 <func_36+0x1433>
    de5f:	66 c7 05 50 94 00 00 	movw   $0x0,0x9450(%rip)        # 172b8 <g_162>
    de66:	00 00 
    de68:	e9 95 03 00 00       	jmpq   e202 <func_36+0xfb5>
    de6d:	48 8d 85 00 fb ff ff 	lea    -0x500(%rbp),%rax
    de74:	48 83 c0 0c          	add    $0xc,%rax
    de78:	48 89 85 c0 fa ff ff 	mov    %rax,-0x540(%rbp)
    de7f:	48 8d 85 9c f9 ff ff 	lea    -0x664(%rbp),%rax
    de86:	48 89 85 c8 fa ff ff 	mov    %rax,-0x538(%rbp)
    de8d:	48 8d 85 00 fb ff ff 	lea    -0x500(%rbp),%rax
    de94:	48 83 c0 0c          	add    $0xc,%rax
    de98:	48 89 85 d0 fa ff ff 	mov    %rax,-0x530(%rbp)
    de9f:	48 8d 85 9c f9 ff ff 	lea    -0x664(%rbp),%rax
    dea6:	48 89 85 d8 fa ff ff 	mov    %rax,-0x528(%rbp)
    dead:	48 8d 85 9c f9 ff ff 	lea    -0x664(%rbp),%rax
    deb4:	48 89 85 e0 fa ff ff 	mov    %rax,-0x520(%rbp)
    debb:	c7 85 bc f9 ff ff 00 	movl   $0x0,-0x644(%rbp)
    dec2:	00 00 00 
    dec5:	eb 1e                	jmp    dee5 <func_36+0xc98>
    dec7:	8b 85 bc f9 ff ff    	mov    -0x644(%rbp),%eax
    decd:	48 98                	cltq   
    decf:	48 8d 15 de 93 00 00 	lea    0x93de(%rip),%rdx        # 172b4 <g_159>
    ded6:	48 89 94 c5 e0 fb ff 	mov    %rdx,-0x420(%rbp,%rax,8)
    dedd:	ff 
    dede:	83 85 bc f9 ff ff 01 	addl   $0x1,-0x644(%rbp)
    dee5:	83 bd bc f9 ff ff 04 	cmpl   $0x4,-0x644(%rbp)
    deec:	7e d9                	jle    dec7 <func_36+0xc7a>
    deee:	48 83 85 f8 f9 ff ff 	addq   $0x1,-0x608(%rbp)
    def5:	01 
    def6:	c6 05 33 91 00 00 01 	movb   $0x1,0x9133(%rip)        # 17030 <g_26>
    defd:	e9 e0 02 00 00       	jmpq   e1e2 <func_36+0xf95>
    df02:	c7 85 f0 f9 ff ff e5 	movl   $0xd659b2e5,-0x610(%rbp)
    df09:	b2 59 d6 
    df0c:	48 c7 85 e8 fa ff ff 	movq   $0x0,-0x518(%rbp)
    df13:	00 00 00 00 
    df17:	0f b6 85 8c f9 ff ff 	movzbl -0x674(%rbp),%eax
    df1e:	84 c0                	test   %al,%al
    df20:	74 05                	je     df27 <func_36+0xcda>
    df22:	e9 25 f9 ff ff       	jmpq   d84c <func_36+0x5ff>
    df27:	8b 05 f7 90 00 00    	mov    0x90f7(%rip),%eax        # 17024 <g_11>
    df2d:	0f b7 15 84 93 00 00 	movzwl 0x9384(%rip),%edx        # 172b8 <g_162>
    df34:	0f b7 d2             	movzwl %dx,%edx
    df37:	8d 72 05             	lea    0x5(%rdx),%esi
    df3a:	0f b7 15 77 93 00 00 	movzwl 0x9377(%rip),%edx        # 172b8 <g_162>
    df41:	0f b7 d2             	movzwl %dx,%edx
    df44:	48 63 ca             	movslq %edx,%rcx
    df47:	48 63 d0             	movslq %eax,%rdx
    df4a:	48 63 f6             	movslq %esi,%rsi
    df4d:	48 89 d0             	mov    %rdx,%rax
    df50:	48 c1 e0 02          	shl    $0x2,%rax
    df54:	48 01 d0             	add    %rdx,%rax
    df57:	48 01 c0             	add    %rax,%rax
    df5a:	48 01 f0             	add    %rsi,%rax
    df5d:	48 01 c0             	add    %rax,%rax
    df60:	48 01 c8             	add    %rcx,%rax
    df63:	48 8d 14 85 00 00 00 	lea    0x0(,%rax,4),%rdx
    df6a:	00 
    df6b:	48 8d 05 0e 91 00 00 	lea    0x910e(%rip),%rax        # 17080 <g_72>
    df72:	8b 04 02             	mov    (%rdx,%rax,1),%eax
    df75:	85 c0                	test   %eax,%eax
    df77:	0f 85 54 02 00 00    	jne    e1d1 <func_36+0xf84>
    df7d:	c7 85 a0 f9 ff ff ff 	movl   $0xffffffff,-0x660(%rbp)
    df84:	ff ff ff 
    df87:	44 8b ad a0 f9 ff ff 	mov    -0x660(%rbp),%r13d
    df8e:	48 8b 05 23 ae 00 00 	mov    0xae23(%rip),%rax        # 18db8 <g_665>
    df95:	0f b6 00             	movzbl (%rax),%eax
    df98:	0f b6 d8             	movzbl %al,%ebx
    df9b:	48 8b 85 20 fa ff ff 	mov    -0x5e0(%rbp),%rax
    dfa2:	48 89 85 60 fa ff ff 	mov    %rax,-0x5a0(%rbp)
    dfa9:	48 8b 85 50 fb ff ff 	mov    -0x4b0(%rbp),%rax
    dfb0:	48 39 85 60 fa ff ff 	cmp    %rax,-0x5a0(%rbp)
    dfb7:	0f 94 c0             	sete   %al
    dfba:	0f b6 c0             	movzbl %al,%eax
    dfbd:	48 89 c6             	mov    %rax,%rsi
    dfc0:	48 bf 85 24 0a 11 18 	movabs $0xe4b19618110a2485,%rdi
    dfc7:	96 b1 e4 
    dfca:	e8 d9 78 ff ff       	callq  58a8 <safe_sub_func_int64_t_s_s>
    dfcf:	49 89 c6             	mov    %rax,%r14
    dfd2:	0f b6 85 8c f9 ff ff 	movzbl -0x674(%rbp),%eax
    dfd9:	44 0f b6 e0          	movzbl %al,%r12d
    dfdd:	8b 05 41 90 00 00    	mov    0x9041(%rip),%eax        # 17024 <g_11>
    dfe3:	8b 15 3b 90 00 00    	mov    0x903b(%rip),%edx        # 17024 <g_11>
    dfe9:	48 63 ca             	movslq %edx,%rcx
    dfec:	48 63 d0             	movslq %eax,%rdx
    dfef:	48 89 d0             	mov    %rdx,%rax
    dff2:	48 c1 e0 03          	shl    $0x3,%rax
    dff6:	48 01 d0             	add    %rdx,%rax
    dff9:	48 01 c8             	add    %rcx,%rax
    dffc:	48 8d 14 00          	lea    (%rax,%rax,1),%rdx
    e000:	48 8d 05 d9 92 00 00 	lea    0x92d9(%rip),%rax        # 172e0 <g_198>
    e007:	0f b7 04 02          	movzwl (%rdx,%rax,1),%eax
    e00b:	0f b6 c8             	movzbl %al,%ecx
    e00e:	8b 05 10 90 00 00    	mov    0x9010(%rip),%eax        # 17024 <g_11>
    e014:	8b 15 0a 90 00 00    	mov    0x900a(%rip),%edx        # 17024 <g_11>
    e01a:	48 63 f2             	movslq %edx,%rsi
    e01d:	48 63 d0             	movslq %eax,%rdx
    e020:	48 89 d0             	mov    %rdx,%rax
    e023:	48 c1 e0 03          	shl    $0x3,%rax
    e027:	48 01 d0             	add    %rdx,%rax
    e02a:	48 01 f0             	add    %rsi,%rax
    e02d:	48 8d 14 00          	lea    (%rax,%rax,1),%rdx
    e031:	48 8d 05 a8 92 00 00 	lea    0x92a8(%rip),%rax        # 172e0 <g_198>
    e038:	0f b7 04 02          	movzwl (%rdx,%rax,1),%eax
    e03c:	66 83 f8 01          	cmp    $0x1,%ax
    e040:	0f 97 c0             	seta   %al
    e043:	0f b6 c0             	movzbl %al,%eax
    e046:	89 ce                	mov    %ecx,%esi
    e048:	89 c7                	mov    %eax,%edi
    e04a:	e8 29 7b ff ff       	callq  5b78 <safe_sub_func_uint8_t_u_u>
    e04f:	8b 05 8f 93 00 00    	mov    0x938f(%rip),%eax        # 173e4 <g_326>
    e055:	89 85 f0 f9 ff ff    	mov    %eax,-0x610(%rbp)
    e05b:	8b 85 f0 f9 ff ff    	mov    -0x610(%rbp),%eax
    e061:	85 c0                	test   %eax,%eax
    e063:	75 0e                	jne    e073 <func_36+0xe26>
    e065:	48 8b 05 4c ad 00 00 	mov    0xad4c(%rip),%rax        # 18db8 <g_665>
    e06c:	0f b6 00             	movzbl (%rax),%eax
    e06f:	84 c0                	test   %al,%al
    e071:	74 07                	je     e07a <func_36+0xe2d>
    e073:	ba 01 00 00 00       	mov    $0x1,%edx
    e078:	eb 05                	jmp    e07f <func_36+0xe32>
    e07a:	ba 00 00 00 00       	mov    $0x0,%edx
    e07f:	0f b7 05 de 8f 00 00 	movzwl 0x8fde(%rip),%eax        # 17064 <g_66>
    e086:	0f b7 c0             	movzwl %ax,%eax
    e089:	39 c2                	cmp    %eax,%edx
    e08b:	0f 94 c0             	sete   %al
    e08e:	0f b6 d0             	movzbl %al,%edx
    e091:	0f b6 05 53 93 00 00 	movzbl 0x9353(%rip),%eax        # 173eb <g_477+0x1>
    e098:	0f b6 c0             	movzbl %al,%eax
    e09b:	39 c2                	cmp    %eax,%edx
    e09d:	0f 9e c0             	setle  %al
    e0a0:	0f b6 c0             	movzbl %al,%eax
    e0a3:	44 89 e6             	mov    %r12d,%esi
    e0a6:	89 c7                	mov    %eax,%edi
    e0a8:	e8 09 75 ff ff       	callq  55b6 <safe_add_func_int32_t_s_s>
    e0ad:	48 8b 95 d8 fa ff ff 	mov    -0x528(%rbp),%rdx
    e0b4:	89 02                	mov    %eax,(%rdx)
    e0b6:	0f b6 05 73 8f 00 00 	movzbl 0x8f73(%rip),%eax        # 17030 <g_26>
    e0bd:	0f be d0             	movsbl %al,%edx
    e0c0:	0f b6 05 69 8f 00 00 	movzbl 0x8f69(%rip),%eax        # 17030 <g_26>
    e0c7:	0f be c0             	movsbl %al,%eax
    e0ca:	0f b7 0d e7 91 00 00 	movzwl 0x91e7(%rip),%ecx        # 172b8 <g_162>
    e0d1:	0f b7 c9             	movzwl %cx,%ecx
    e0d4:	48 63 c9             	movslq %ecx,%rcx
    e0d7:	48 63 d2             	movslq %edx,%rdx
    e0da:	48 63 f0             	movslq %eax,%rsi
    e0dd:	48 89 d0             	mov    %rdx,%rax
    e0e0:	48 01 c0             	add    %rax,%rax
    e0e3:	48 01 d0             	add    %rdx,%rax
    e0e6:	48 01 f0             	add    %rsi,%rax
    e0e9:	48 01 c0             	add    %rax,%rax
    e0ec:	48 01 c8             	add    %rcx,%rax
    e0ef:	8b 84 85 70 fb ff ff 	mov    -0x490(%rbp,%rax,4),%eax
    e0f6:	0f b7 c0             	movzwl %ax,%eax
    e0f9:	be 44 c9 00 00       	mov    $0xc944,%esi
    e0fe:	89 c7                	mov    %eax,%edi
    e100:	e8 38 7c ff ff       	callq  5d3d <safe_mul_func_uint16_t_u_u>
    e105:	0f b7 c0             	movzwl %ax,%eax
    e108:	39 85 b0 f9 ff ff    	cmp    %eax,-0x650(%rbp)
    e10e:	0f 9c c2             	setl   %dl
    e111:	48 8b 05 a8 ac 00 00 	mov    0xaca8(%rip),%rax        # 18dc0 <g_671>
    e118:	88 10                	mov    %dl,(%rax)
    e11a:	0f b6 00             	movzbl (%rax),%eax
    e11d:	0f b6 c8             	movzbl %al,%ecx
    e120:	0f b7 05 91 91 00 00 	movzwl 0x9191(%rip),%eax        # 172b8 <g_162>
    e127:	0f b7 c0             	movzwl %ax,%eax
    e12a:	0f b6 15 ff 8e 00 00 	movzbl 0x8eff(%rip),%edx        # 17030 <g_26>
    e131:	0f be d2             	movsbl %dl,%edx
    e134:	83 c2 04             	add    $0x4,%edx
    e137:	48 63 f2             	movslq %edx,%rsi
    e13a:	48 63 d0             	movslq %eax,%rdx
    e13d:	48 89 d0             	mov    %rdx,%rax
    e140:	48 c1 e0 03          	shl    $0x3,%rax
    e144:	48 01 d0             	add    %rdx,%rax
    e147:	48 01 f0             	add    %rsi,%rax
    e14a:	48 8d 14 00          	lea    (%rax,%rax,1),%rdx
    e14e:	48 8d 05 8b 91 00 00 	lea    0x918b(%rip),%rax        # 172e0 <g_198>
    e155:	0f b7 04 02          	movzwl (%rdx,%rax,1),%eax
    e159:	0f b6 c0             	movzbl %al,%eax
    e15c:	89 ce                	mov    %ecx,%esi
    e15e:	89 c7                	mov    %eax,%edi
    e160:	e8 e7 7a ff ff       	callq  5c4c <safe_lshift_func_uint8_t_u_u>
    e165:	0f b6 c0             	movzbl %al,%eax
    e168:	4c 89 f2             	mov    %r14,%rdx
    e16b:	48 21 c2             	and    %rax,%rdx
    e16e:	48 8b 05 43 ac 00 00 	mov    0xac43(%rip),%rax        # 18db8 <g_665>
    e175:	0f b6 00             	movzbl (%rax),%eax
    e178:	0f b6 c0             	movzbl %al,%eax
    e17b:	48 39 c2             	cmp    %rax,%rdx
    e17e:	0f 9e c0             	setle  %al
    e181:	0f b6 c0             	movzbl %al,%eax
    e184:	89 de                	mov    %ebx,%esi
    e186:	89 c7                	mov    %eax,%edi
    e188:	e8 bf 7a ff ff       	callq  5c4c <safe_lshift_func_uint8_t_u_u>
    e18d:	84 c0                	test   %al,%al
    e18f:	0f 95 c0             	setne  %al
    e192:	0f b6 c0             	movzbl %al,%eax
    e195:	48 8b 95 f8 f9 ff ff 	mov    -0x608(%rbp),%rdx
    e19c:	21 d0                	and    %edx,%eax
    e19e:	98                   	cwtl   
    e19f:	be ff ff ff ff       	mov    $0xffffffff,%esi
    e1a4:	89 c7                	mov    %eax,%edi
    e1a6:	e8 28 72 ff ff       	callq  53d3 <safe_sub_func_int16_t_s_s>
    e1ab:	98                   	cwtl   
    e1ac:	89 85 b0 f9 ff ff    	mov    %eax,-0x650(%rbp)
    e1b2:	44 39 ad b0 f9 ff ff 	cmp    %r13d,-0x650(%rbp)
    e1b9:	48 8d 85 f0 f9 ff ff 	lea    -0x610(%rbp),%rax
    e1c0:	48 89 85 18 fa ff ff 	mov    %rax,-0x5e8(%rbp)
    e1c7:	8b 85 a0 f9 ff ff    	mov    -0x660(%rbp),%eax
    e1cd:	85 c0                	test   %eax,%eax
    e1cf:	eb 01                	jmp    e1d2 <func_36+0xf85>
    e1d1:	90                   	nop
    e1d2:	0f b6 05 57 8e 00 00 	movzbl 0x8e57(%rip),%eax        # 17030 <g_26>
    e1d9:	83 e8 01             	sub    $0x1,%eax
    e1dc:	88 05 4e 8e 00 00    	mov    %al,0x8e4e(%rip)        # 17030 <g_26>
    e1e2:	0f b6 05 47 8e 00 00 	movzbl 0x8e47(%rip),%eax        # 17030 <g_26>
    e1e9:	84 c0                	test   %al,%al
    e1eb:	0f 89 11 fd ff ff    	jns    df02 <func_36+0xcb5>
    e1f1:	0f b7 05 c0 90 00 00 	movzwl 0x90c0(%rip),%eax        # 172b8 <g_162>
    e1f8:	83 c0 01             	add    $0x1,%eax
    e1fb:	66 89 05 b6 90 00 00 	mov    %ax,0x90b6(%rip)        # 172b8 <g_162>
    e202:	0f b7 05 af 90 00 00 	movzwl 0x90af(%rip),%eax        # 172b8 <g_162>
    e209:	66 83 f8 01          	cmp    $0x1,%ax
    e20d:	0f 86 5a fc ff ff    	jbe    de6d <func_36+0xc20>
    e213:	8b 85 88 fb ff ff    	mov    -0x478(%rbp),%eax
    e219:	85 c0                	test   %eax,%eax
    e21b:	0f 85 62 04 00 00    	jne    e683 <func_36+0x1436>
    e221:	8b 85 a0 f9 ff ff    	mov    -0x660(%rbp),%eax
    e227:	e9 c3 04 00 00       	jmpq   e6ef <func_36+0x14a2>
    e22c:	48 8d 05 ed ac 00 00 	lea    0xaced(%rip),%rax        # 18f20 <g_728>
    e233:	48 89 85 88 fa ff ff 	mov    %rax,-0x578(%rbp)
    e23a:	48 c7 85 90 fa ff ff 	movq   $0x0,-0x570(%rbp)
    e241:	00 00 00 00 
    e245:	c7 85 d4 f9 ff ff 62 	movl   $0xeb4bbc62,-0x62c(%rbp)
    e24c:	bc 4b eb 
    e24f:	c7 85 d8 f9 ff ff 9c 	movl   $0xc32ba29c,-0x628(%rbp)
    e256:	a2 2b c3 
    e259:	c7 85 dc f9 ff ff 00 	movl   $0x0,-0x624(%rbp)
    e260:	00 00 00 
    e263:	c7 85 e0 fb ff ff 01 	movl   $0x1,-0x420(%rbp)
    e26a:	00 00 00 
    e26d:	c7 85 e4 fb ff ff 01 	movl   $0x1,-0x41c(%rbp)
    e274:	00 00 00 
    e277:	c7 85 e8 fb ff ff 01 	movl   $0x1,-0x418(%rbp)
    e27e:	00 00 00 
    e281:	c7 85 ec fb ff ff 01 	movl   $0x1,-0x414(%rbp)
    e288:	00 00 00 
    e28b:	c7 85 f0 fb ff ff 01 	movl   $0x1,-0x410(%rbp)
    e292:	00 00 00 
    e295:	c7 85 f4 fb ff ff 01 	movl   $0x1,-0x40c(%rbp)
    e29c:	00 00 00 
    e29f:	c7 85 f8 fb ff ff 01 	movl   $0x1,-0x408(%rbp)
    e2a6:	00 00 00 
    e2a9:	c7 85 fc fb ff ff 01 	movl   $0x1,-0x404(%rbp)
    e2b0:	00 00 00 
    e2b3:	c7 85 00 fc ff ff 01 	movl   $0x1,-0x400(%rbp)
    e2ba:	00 00 00 
    e2bd:	c7 85 04 fc ff ff 01 	movl   $0x1,-0x3fc(%rbp)
    e2c4:	00 00 00 
    e2c7:	c7 85 08 fc ff ff 01 	movl   $0x1,-0x3f8(%rbp)
    e2ce:	00 00 00 
    e2d1:	c7 85 0c fc ff ff 01 	movl   $0x1,-0x3f4(%rbp)
    e2d8:	00 00 00 
    e2db:	c7 85 10 fc ff ff 01 	movl   $0x1,-0x3f0(%rbp)
    e2e2:	00 00 00 
    e2e5:	c7 85 14 fc ff ff 01 	movl   $0x1,-0x3ec(%rbp)
    e2ec:	00 00 00 
    e2ef:	c7 85 c0 f9 ff ff 9f 	movl   $0x92c2509f,-0x640(%rbp)
    e2f6:	50 c2 92 
    e2f9:	48 c7 85 f0 f9 ff ff 	movq   $0x0,-0x610(%rbp)
    e300:	00 00 00 00 
    e304:	48 8d 85 f0 f9 ff ff 	lea    -0x610(%rbp),%rax
    e30b:	48 89 85 98 fa ff ff 	mov    %rax,-0x568(%rbp)
    e312:	48 8b 85 88 fa ff ff 	mov    -0x578(%rbp),%rax
    e319:	48 8b 95 68 fa ff ff 	mov    -0x598(%rbp),%rdx
    e320:	48 89 10             	mov    %rdx,(%rax)
    e323:	83 bd b0 f9 ff ff 00 	cmpl   $0x0,-0x650(%rbp)
    e32a:	74 14                	je     e340 <func_36+0x10f3>
    e32c:	8b 05 f2 8c 00 00    	mov    0x8cf2(%rip),%eax        # 17024 <g_11>
    e332:	83 c0 01             	add    $0x1,%eax
    e335:	89 05 e9 8c 00 00    	mov    %eax,0x8ce9(%rip)        # 17024 <g_11>
    e33b:	e9 2f 03 00 00       	jmpq   e66f <func_36+0x1422>
    e340:	c7 05 72 8f 00 00 00 	movl   $0x0,0x8f72(%rip)        # 172bc <g_183>
    e347:	00 00 00 
    e34a:	e9 04 03 00 00       	jmpq   e653 <func_36+0x1406>
    e34f:	c7 85 c4 f9 ff ff fd 	movl   $0xfffffffd,-0x63c(%rbp)
    e356:	ff ff ff 
    e359:	c7 85 e0 f9 ff ff f7 	movl   $0xfffffff7,-0x620(%rbp)
    e360:	ff ff ff 
    e363:	c7 85 e4 f9 ff ff 86 	movl   $0x4e26b286,-0x61c(%rbp)
    e36a:	b2 26 4e 
    e36d:	48 8d 05 2c a8 00 00 	lea    0xa82c(%rip),%rax        # 18ba0 <g_409>
    e374:	48 89 85 a0 fa ff ff 	mov    %rax,-0x560(%rbp)
    e37b:	8b 05 3b 8f 00 00    	mov    0x8f3b(%rip),%eax        # 172bc <g_183>
    e381:	8d 70 03             	lea    0x3(%rax),%esi
    e384:	8b 05 9a 8c 00 00    	mov    0x8c9a(%rip),%eax        # 17024 <g_11>
    e38a:	8b 15 2c 8f 00 00    	mov    0x8f2c(%rip),%edx        # 172bc <g_183>
    e390:	48 63 ca             	movslq %edx,%rcx
    e393:	48 63 d6             	movslq %esi,%rdx
    e396:	48 63 f0             	movslq %eax,%rsi
    e399:	48 89 d0             	mov    %rdx,%rax
    e39c:	48 c1 e0 02          	shl    $0x2,%rax
    e3a0:	48 01 d0             	add    %rdx,%rax
    e3a3:	48 01 c0             	add    %rax,%rax
    e3a6:	48 01 f0             	add    %rsi,%rax
    e3a9:	48 01 c0             	add    %rax,%rax
    e3ac:	48 01 c8             	add    %rcx,%rax
    e3af:	48 8d 14 85 00 00 00 	lea    0x0(,%rax,4),%rdx
    e3b6:	00 
    e3b7:	48 8d 05 c2 8c 00 00 	lea    0x8cc2(%rip),%rax        # 17080 <g_72>
    e3be:	8b 04 02             	mov    (%rdx,%rax,1),%eax
    e3c1:	88 85 84 f9 ff ff    	mov    %al,-0x67c(%rbp)
    e3c7:	0f b6 85 84 f9 ff ff 	movzbl -0x67c(%rbp),%eax
    e3ce:	0f b6 c0             	movzbl %al,%eax
    e3d1:	8b 8d 74 fb ff ff    	mov    -0x48c(%rbp),%ecx
    e3d7:	8b 95 a0 f9 ff ff    	mov    -0x660(%rbp),%edx
    e3dd:	21 ca                	and    %ecx,%edx
    e3df:	89 95 a0 f9 ff ff    	mov    %edx,-0x660(%rbp)
    e3e5:	8b 95 a0 f9 ff ff    	mov    -0x660(%rbp),%edx
    e3eb:	89 d1                	mov    %edx,%ecx
    e3ed:	8b 95 88 f9 ff ff    	mov    -0x678(%rbp),%edx
    e3f3:	39 d1                	cmp    %edx,%ecx
    e3f5:	0f 92 c2             	setb   %dl
    e3f8:	0f b6 d2             	movzbl %dl,%edx
    e3fb:	48 63 d2             	movslq %edx,%rdx
    e3fe:	b9 ff ff ff ff       	mov    $0xffffffff,%ecx
    e403:	48 31 ca             	xor    %rcx,%rdx
    e406:	48 39 d0             	cmp    %rdx,%rax
    e409:	0f 97 c0             	seta   %al
    e40c:	0f b6 d0             	movzbl %al,%edx
    e40f:	8b 05 47 8c 00 00    	mov    0x8c47(%rip),%eax        # 1705c <g_29+0x1c>
    e415:	21 d0                	and    %edx,%eax
    e417:	85 c0                	test   %eax,%eax
    e419:	0f 84 93 00 00 00    	je     e4b2 <func_36+0x1265>
    e41f:	48 c7 85 a8 fa ff ff 	movq   $0x0,-0x558(%rbp)
    e426:	00 00 00 00 
    e42a:	48 8d 85 a0 f9 ff ff 	lea    -0x660(%rbp),%rax
    e431:	48 89 85 b0 fa ff ff 	mov    %rax,-0x550(%rbp)
    e438:	48 8d 05 75 8e 00 00 	lea    0x8e75(%rip),%rax        # 172b4 <g_159>
    e43f:	48 89 85 b8 fa ff ff 	mov    %rax,-0x548(%rbp)
    e446:	c7 85 c8 f9 ff ff 00 	movl   $0x0,-0x638(%rbp)
    e44d:	00 00 00 
    e450:	eb 1e                	jmp    e470 <func_36+0x1223>
    e452:	8b 85 c8 f9 ff ff    	mov    -0x638(%rbp),%eax
    e458:	48 98                	cltq   
    e45a:	48 8d 15 53 8e 00 00 	lea    0x8e53(%rip),%rdx        # 172b4 <g_159>
    e461:	48 89 94 c5 20 fb ff 	mov    %rdx,-0x4e0(%rbp,%rax,8)
    e468:	ff 
    e469:	83 85 c8 f9 ff ff 01 	addl   $0x1,-0x638(%rbp)
    e470:	83 bd c8 f9 ff ff 03 	cmpl   $0x3,-0x638(%rbp)
    e477:	7e d9                	jle    e452 <func_36+0x1205>
    e479:	48 8b 05 70 ac 00 00 	mov    0xac70(%rip),%rax        # 190f0 <g_731>
    e480:	48 8d 95 a0 f9 ff ff 	lea    -0x660(%rbp),%rdx
    e487:	48 89 10             	mov    %rdx,(%rax)
    e48a:	8b 85 74 fb ff ff    	mov    -0x48c(%rbp),%eax
    e490:	85 c0                	test   %eax,%eax
    e492:	0f 85 cb 01 00 00    	jne    e663 <func_36+0x1416>
    e498:	48 8d 85 a0 f9 ff ff 	lea    -0x660(%rbp),%rax
    e49f:	48 89 85 90 fa ff ff 	mov    %rax,-0x570(%rbp)
    e4a6:	83 85 c0 f9 ff ff 01 	addl   $0x1,-0x640(%rbp)
    e4ad:	e9 24 01 00 00       	jmpq   e5d6 <func_36+0x1389>
    e4b2:	66 c7 85 9a f9 ff ff 	movw   $0x8e2c,-0x666(%rbp)
    e4b9:	2c 8e 
    e4bb:	c7 85 cc f9 ff ff 00 	movl   $0x0,-0x634(%rbp)
    e4c2:	00 00 00 
    e4c5:	eb 1b                	jmp    e4e2 <func_36+0x1295>
    e4c7:	8b 85 cc f9 ff ff    	mov    -0x634(%rbp),%eax
    e4cd:	48 98                	cltq   
    e4cf:	48 c7 84 c5 20 fb ff 	movq   $0x0,-0x4e0(%rbp,%rax,8)
    e4d6:	ff 00 00 00 00 
    e4db:	83 85 cc f9 ff ff 01 	addl   $0x1,-0x634(%rbp)
    e4e2:	83 bd cc f9 ff ff 03 	cmpl   $0x3,-0x634(%rbp)
    e4e9:	7e dc                	jle    e4c7 <func_36+0x127a>
    e4eb:	0f b7 85 9a f9 ff ff 	movzwl -0x666(%rbp),%eax
    e4f2:	83 e8 01             	sub    $0x1,%eax
    e4f5:	66 89 85 9a f9 ff ff 	mov    %ax,-0x666(%rbp)
    e4fc:	0f b6 85 09 fd ff ff 	movzbl -0x2f7(%rbp),%eax
    e503:	0f be d8             	movsbl %al,%ebx
    e506:	0f b7 05 ab 8d 00 00 	movzwl 0x8dab(%rip),%eax        # 172b8 <g_162>
    e50d:	0f b7 c0             	movzwl %ax,%eax
    e510:	48 89 c7             	mov    %rax,%rdi
    e513:	e8 01 7b ff ff       	callq  6019 <safe_unary_minus_func_uint64_t_u>
    e518:	49 89 c6             	mov    %rax,%r14
    e51b:	8b 85 88 f9 ff ff    	mov    -0x678(%rbp),%eax
    e521:	44 0f bf e0          	movswl %ax,%r12d
    e525:	c7 85 d0 f9 ff ff ff 	movl   $0xffffffff,-0x630(%rbp)
    e52c:	ff ff ff 
    e52f:	0f b6 85 84 f9 ff ff 	movzbl -0x67c(%rbp),%eax
    e536:	44 0f b6 e8          	movzbl %al,%r13d
    e53a:	8b 85 88 f9 ff ff    	mov    -0x678(%rbp),%eax
    e540:	98                   	cwtl   
    e541:	be 07 00 00 00       	mov    $0x7,%esi
    e546:	89 c7                	mov    %eax,%edi
    e548:	e8 dd 6f ff ff       	callq  552a <safe_rshift_func_int16_t_s_s>
    e54d:	48 8b 85 98 fa ff ff 	mov    -0x568(%rbp),%rax
    e554:	48 3b 85 60 fa ff ff 	cmp    -0x5a0(%rbp),%rax
    e55b:	0f 94 c0             	sete   %al
    e55e:	0f b6 c0             	movzbl %al,%eax
    e561:	44 89 ee             	mov    %r13d,%esi
    e564:	89 c7                	mov    %eax,%edi
    e566:	e8 65 79 ff ff       	callq  5ed0 <safe_sub_func_uint32_t_u_u>
    e56b:	0f b6 85 84 f9 ff ff 	movzbl -0x67c(%rbp),%eax
    e572:	83 c8 01             	or     $0x1,%eax
    e575:	0f b6 d0             	movzbl %al,%edx
    e578:	48 8b 05 39 a8 00 00 	mov    0xa839(%rip),%rax        # 18db8 <g_665>
    e57f:	0f b6 00             	movzbl (%rax),%eax
    e582:	89 c1                	mov    %eax,%ecx
    e584:	89 d0                	mov    %edx,%eax
    e586:	09 c1                	or     %eax,%ecx
    e588:	89 ca                	mov    %ecx,%edx
    e58a:	48 8b 05 27 a8 00 00 	mov    0xa827(%rip),%rax        # 18db8 <g_665>
    e591:	88 10                	mov    %dl,(%rax)
    e593:	44 89 e6             	mov    %r12d,%esi
    e596:	bf 01 00 00 00       	mov    $0x1,%edi
    e59b:	e8 76 6e ff ff       	callq  5416 <safe_mod_func_int16_t_s_s>
    e5a0:	48 0f bf c0          	movswq %ax,%rax
    e5a4:	49 39 c6             	cmp    %rax,%r14
    e5a7:	0f 94 c0             	sete   %al
    e5aa:	0f b6 c0             	movzbl %al,%eax
    e5ad:	be 0d 00 00 00       	mov    $0xd,%esi
    e5b2:	89 c7                	mov    %eax,%edi
    e5b4:	e8 05 78 ff ff       	callq  5dbe <safe_lshift_func_uint16_t_u_s>
    e5b9:	89 de                	mov    %ebx,%esi
    e5bb:	bf 05 00 00 00       	mov    $0x5,%edi
    e5c0:	e8 c8 76 ff ff       	callq  5c8d <safe_rshift_func_uint8_t_u_s>
    e5c5:	89 c2                	mov    %eax,%edx
    e5c7:	48 8b 05 22 ab 00 00 	mov    0xab22(%rip),%rax        # 190f0 <g_731>
    e5ce:	48 8b 00             	mov    (%rax),%rax
    e5d1:	0f b6 d2             	movzbl %dl,%edx
    e5d4:	89 10                	mov    %edx,(%rax)
    e5d6:	48 8b 05 13 ab 00 00 	mov    0xab13(%rip),%rax        # 190f0 <g_731>
    e5dd:	48 8b 10             	mov    (%rax),%rdx
    e5e0:	48 8b 85 a0 fa ff ff 	mov    -0x560(%rbp),%rax
    e5e7:	48 89 10             	mov    %rdx,(%rax)
    e5ea:	c7 85 c4 f9 ff ff 00 	movl   $0x0,-0x63c(%rbp)
    e5f1:	00 00 00 
    e5f4:	eb 45                	jmp    e63b <func_36+0x13ee>
    e5f6:	48 8b 05 93 ab 00 00 	mov    0xab93(%rip),%rax        # 19190 <g_773>
    e5fd:	48 8b 15 1c ab 00 00 	mov    0xab1c(%rip),%rdx        # 19120 <g_770>
    e604:	48 89 10             	mov    %rdx,(%rax)
    e607:	48 8b 85 a0 fa ff ff 	mov    -0x560(%rbp),%rax
    e60e:	48 8b 00             	mov    (%rax),%rax
    e611:	8b 08                	mov    (%rax),%ecx
    e613:	0f b6 85 8c f9 ff ff 	movzbl -0x674(%rbp),%eax
    e61a:	0f b6 d0             	movzbl %al,%edx
    e61d:	48 8b 85 a0 fa ff ff 	mov    -0x560(%rbp),%rax
    e624:	48 8b 00             	mov    (%rax),%rax
    e627:	21 ca                	and    %ecx,%edx
    e629:	89 10                	mov    %edx,(%rax)
    e62b:	0f b6 85 84 f9 ff ff 	movzbl -0x67c(%rbp),%eax
    e632:	84 c0                	test   %al,%al
    e634:	83 85 c4 f9 ff ff 01 	addl   $0x1,-0x63c(%rbp)
    e63b:	83 bd c4 f9 ff ff 00 	cmpl   $0x0,-0x63c(%rbp)
    e642:	7e b2                	jle    e5f6 <func_36+0x13a9>
    e644:	8b 05 72 8c 00 00    	mov    0x8c72(%rip),%eax        # 172bc <g_183>
    e64a:	83 e8 01             	sub    $0x1,%eax
    e64d:	89 05 69 8c 00 00    	mov    %eax,0x8c69(%rip)        # 172bc <g_183>
    e653:	8b 05 63 8c 00 00    	mov    0x8c63(%rip),%eax        # 172bc <g_183>
    e659:	85 c0                	test   %eax,%eax
    e65b:	0f 89 ee fc ff ff    	jns    e34f <func_36+0x1102>
    e661:	eb 01                	jmp    e664 <func_36+0x1417>
    e663:	90                   	nop
    e664:	8b 85 a0 f9 ff ff    	mov    -0x660(%rbp),%eax
    e66a:	e9 80 00 00 00       	jmpq   e6ef <func_36+0x14a2>
    e66f:	8b 05 af 89 00 00    	mov    0x89af(%rip),%eax        # 17024 <g_11>
    e675:	83 f8 06             	cmp    $0x6,%eax
    e678:	0f 8e da f2 ff ff    	jle    d958 <func_36+0x70b>
    e67e:	eb 04                	jmp    e684 <func_36+0x1437>
    e680:	90                   	nop
    e681:	eb 01                	jmp    e684 <func_36+0x1437>
    e683:	90                   	nop
    e684:	8b 85 74 fb ff ff    	mov    -0x48c(%rbp),%eax
    e68a:	85 c0                	test   %eax,%eax
    e68c:	0f b7 05 55 8d 00 00 	movzwl 0x8d55(%rip),%eax        # 173e8 <g_449>
    e693:	83 c0 01             	add    $0x1,%eax
    e696:	66 89 05 4b 8d 00 00 	mov    %ax,0x8d4b(%rip)        # 173e8 <g_449>
    e69d:	0f b7 05 44 8d 00 00 	movzwl 0x8d44(%rip),%eax        # 173e8 <g_449>
    e6a4:	66 83 f8 07          	cmp    $0x7,%ax
    e6a8:	0f 85 b6 f1 ff ff    	jne    d864 <func_36+0x617>
    e6ae:	c6 05 3b 8d 00 00 00 	movb   $0x0,0x8d3b(%rip)        # 173f0 <g_612>
    e6b5:	eb 27                	jmp    e6de <func_36+0x1491>
    e6b7:	0f b6 05 32 8d 00 00 	movzbl 0x8d32(%rip),%eax        # 173f0 <g_612>
    e6be:	0f b6 c0             	movzbl %al,%eax
    e6c1:	48 98                	cltq   
    e6c3:	c7 84 85 00 fb ff ff 	movl   $0x8,-0x500(%rbp,%rax,4)
    e6ca:	08 00 00 00 
    e6ce:	0f b6 05 1b 8d 00 00 	movzbl 0x8d1b(%rip),%eax        # 173f0 <g_612>
    e6d5:	83 c0 01             	add    $0x1,%eax
    e6d8:	88 05 12 8d 00 00    	mov    %al,0x8d12(%rip)        # 173f0 <g_612>
    e6de:	0f b6 05 0b 8d 00 00 	movzbl 0x8d0b(%rip),%eax        # 173f0 <g_612>
    e6e5:	3c 06                	cmp    $0x6,%al
    e6e7:	76 ce                	jbe    e6b7 <func_36+0x146a>
    e6e9:	8b 85 88 f9 ff ff    	mov    -0x678(%rbp),%eax
    e6ef:	48 8b 5d c8          	mov    -0x38(%rbp),%rbx
    e6f3:	64 48 33 1c 25 28 00 	xor    %fs:0x28,%rbx
    e6fa:	00 00 
    e6fc:	74 05                	je     e703 <func_36+0x14b6>
    e6fe:	e8 6d 69 ff ff       	callq  5070 <__stack_chk_fail@plt>
    e703:	48 81 c4 58 06 00 00 	add    $0x658,%rsp
    e70a:	5b                   	pop    %rbx
    e70b:	41 5c                	pop    %r12
    e70d:	41 5d                	pop    %r13
    e70f:	41 5e                	pop    %r14
    e711:	41 5f                	pop    %r15
    e713:	5d                   	pop    %rbp
    e714:	c3                   	retq   

000000000000e715 <func_51>:
    e715:	f3 0f 1e fa          	endbr64 
    e719:	55                   	push   %rbp
    e71a:	48 89 e5             	mov    %rsp,%rbp
    e71d:	41 57                	push   %r15
    e71f:	41 56                	push   %r14
    e721:	41 55                	push   %r13
    e723:	41 54                	push   %r12
    e725:	53                   	push   %rbx
    e726:	48 81 ec 88 00 00 00 	sub    $0x88,%rsp
    e72d:	89 bd 5c ff ff ff    	mov    %edi,-0xa4(%rbp)
    e733:	64 48 8b 04 25 28 00 	mov    %fs:0x28,%rax
    e73a:	00 00 
    e73c:	48 89 45 c8          	mov    %rax,-0x38(%rbp)
    e740:	31 c0                	xor    %eax,%eax
    e742:	c7 85 68 ff ff ff 01 	movl   $0x1,-0x98(%rbp)
    e749:	00 00 00 
    e74c:	c7 45 a0 27 fc 08 3e 	movl   $0x3e08fc27,-0x60(%rbp)
    e753:	c6 45 a4 08          	movb   $0x8,-0x5c(%rbp)
    e757:	c7 45 a5 3e 3e 3d 7a 	movl   $0x7a3d3e3e,-0x5b(%rbp)
    e75e:	c6 45 a9 f6          	movb   $0xf6,-0x57(%rbp)
    e762:	c7 45 aa bd 0e 3d ff 	movl   $0xff3d0ebd,-0x56(%rbp)
    e769:	c6 45 ae 27          	movb   $0x27,-0x52(%rbp)
    e76d:	c7 45 af 07 3d 08 3d 	movl   $0x3d083d07,-0x51(%rbp)
    e774:	c6 45 b3 07          	movb   $0x7,-0x4d(%rbp)
    e778:	c7 45 b4 7a 0e f6 07 	movl   $0x7f60e7a,-0x4c(%rbp)
    e77f:	c6 45 b8 3e          	movb   $0x3e,-0x48(%rbp)
    e783:	c7 45 b9 7a 3e 27 00 	movl   $0x273e7a,-0x47(%rbp)
    e78a:	c6 45 bd 00          	movb   $0x0,-0x43(%rbp)
    e78e:	c7 45 be 07 fc 07 0e 	movl   $0xe07fc07,-0x42(%rbp)
    e795:	c6 45 c2 3e          	movb   $0x3e,-0x3e(%rbp)
    e799:	c7 45 c3 bd 00 3e 0e 	movl   $0xe3e00bd,-0x3d(%rbp)
    e7a0:	c6 45 c7 07          	movb   $0x7,-0x39(%rbp)
    e7a4:	c7 85 64 ff ff ff 00 	movl   $0x0,-0x9c(%rbp)
    e7ab:	00 00 00 
    e7ae:	eb 1b                	jmp    e7cb <func_51+0xb6>
    e7b0:	8b 85 64 ff ff ff    	mov    -0x9c(%rbp),%eax
    e7b6:	48 98                	cltq   
    e7b8:	48 8d 15 31 8c 00 00 	lea    0x8c31(%rip),%rdx        # 173f0 <g_612>
    e7bf:	48 89 54 c5 80       	mov    %rdx,-0x80(%rbp,%rax,8)
    e7c4:	83 85 64 ff ff ff 01 	addl   $0x1,-0x9c(%rbp)
    e7cb:	83 bd 64 ff ff ff 02 	cmpl   $0x2,-0x9c(%rbp)
    e7d2:	7e dc                	jle    e7b0 <func_51+0x9b>
    e7d4:	66 c7 05 11 8c 00 00 	movw   $0x10,0x8c11(%rip)        # 173ee <g_511>
    e7db:	10 00 
    e7dd:	e9 af 01 00 00       	jmpq   e991 <func_51+0x27c>
    e7e2:	48 8d 05 02 8c 00 00 	lea    0x8c02(%rip),%rax        # 173eb <g_477+0x1>
    e7e9:	48 89 85 70 ff ff ff 	mov    %rax,-0x90(%rbp)
    e7f0:	c7 85 6c ff ff ff 03 	movl   $0x3,-0x94(%rbp)
    e7f7:	00 00 00 
    e7fa:	48 8d 05 2b 88 00 00 	lea    0x882b(%rip),%rax        # 1702c <g_20>
    e801:	48 89 85 78 ff ff ff 	mov    %rax,-0x88(%rbp)
    e808:	8b 05 1a 88 00 00    	mov    0x881a(%rip),%eax        # 17028 <g_14>
    e80e:	83 f8 01             	cmp    $0x1,%eax
    e811:	0f 86 2d 01 00 00    	jbe    e944 <func_51+0x22f>
    e817:	8b 85 6c ff ff ff    	mov    -0x94(%rbp),%eax
    e81d:	0f be d8             	movsbl %al,%ebx
    e820:	8b 85 68 ff ff ff    	mov    -0x98(%rbp),%eax
    e826:	44 0f be e0          	movsbl %al,%r12d
    e82a:	0f b6 05 9f b7 00 00 	movzbl 0xb79f(%rip),%eax        # 19fd0 <g_194>
    e831:	0f be d0             	movsbl %al,%edx
    e834:	48 8b 85 70 ff ff ff 	mov    -0x90(%rbp),%rax
    e83b:	0f b6 00             	movzbl (%rax),%eax
    e83e:	8d 70 ff             	lea    -0x1(%rax),%esi
    e841:	48 8b 8d 70 ff ff ff 	mov    -0x90(%rbp),%rcx
    e848:	40 88 31             	mov    %sil,(%rcx)
    e84b:	0f b6 c0             	movzbl %al,%eax
    e84e:	89 d6                	mov    %edx,%esi
    e850:	89 c7                	mov    %eax,%edi
    e852:	e8 67 74 ff ff       	callq  5cbe <safe_rshift_func_uint8_t_u_u>
    e857:	44 0f b6 f8          	movzbl %al,%r15d
    e85b:	44 8b ad 68 ff ff ff 	mov    -0x98(%rbp),%r13d
    e862:	8b 85 5c ff ff ff    	mov    -0xa4(%rbp),%eax
    e868:	44 0f b6 f0          	movzbl %al,%r14d
    e86c:	48 8d 05 5d 8b 00 00 	lea    0x8b5d(%rip),%rax        # 173d0 <g_229>
    e873:	48 89 05 f6 a4 00 00 	mov    %rax,0xa4f6(%rip)        # 18d70 <g_613+0x1b0>
    e87a:	48 8b 45 80          	mov    -0x80(%rbp),%rax
    e87e:	48 8d 15 6b 8b 00 00 	lea    0x8b6b(%rip),%rdx        # 173f0 <g_612>
    e885:	48 39 d0             	cmp    %rdx,%rax
    e888:	0f 95 c0             	setne  %al
    e88b:	0f b6 c0             	movzbl %al,%eax
    e88e:	be 01 00 00 00       	mov    $0x1,%esi
    e893:	48 89 c7             	mov    %rax,%rdi
    e896:	e8 a6 6f ff ff       	callq  5841 <safe_add_func_int64_t_s_s>
    e89b:	be d0 08 20 9e       	mov    $0x9e2008d0,%esi
    e8a0:	89 c7                	mov    %eax,%edi
    e8a2:	e8 0f 6d ff ff       	callq  55b6 <safe_add_func_int32_t_s_s>
    e8a7:	be 50 00 00 00       	mov    $0x50,%esi
    e8ac:	bf 01 00 00 00       	mov    $0x1,%edi
    e8b1:	e8 a4 72 ff ff       	callq  5b5a <safe_add_func_uint8_t_u_u>
    e8b6:	84 c0                	test   %al,%al
    e8b8:	74 13                	je     e8cd <func_51+0x1b8>
    e8ba:	48 8b 05 07 b7 00 00 	mov    0xb707(%rip),%rax        # 19fc8 <g_28>
    e8c1:	48 85 c0             	test   %rax,%rax
    e8c4:	74 07                	je     e8cd <func_51+0x1b8>
    e8c6:	b8 01 00 00 00       	mov    $0x1,%eax
    e8cb:	eb 05                	jmp    e8d2 <func_51+0x1bd>
    e8cd:	b8 00 00 00 00       	mov    $0x0,%eax
    e8d2:	0f b6 c0             	movzbl %al,%eax
    e8d5:	44 89 f6             	mov    %r14d,%esi
    e8d8:	89 c7                	mov    %eax,%edi
    e8da:	e8 99 72 ff ff       	callq  5b78 <safe_sub_func_uint8_t_u_u>
    e8df:	0f be c0             	movsbl %al,%eax
    e8e2:	44 89 ee             	mov    %r13d,%esi
    e8e5:	89 c7                	mov    %eax,%edi
    e8e7:	e8 02 6a ff ff       	callq  52ee <safe_lshift_func_int8_t_s_u>
    e8ec:	0f be c0             	movsbl %al,%eax
    e8ef:	41 39 c7             	cmp    %eax,%r15d
    e8f2:	0f 95 c0             	setne  %al
    e8f5:	0f b6 c0             	movzbl %al,%eax
    e8f8:	44 89 e6             	mov    %r12d,%esi
    e8fb:	89 c7                	mov    %eax,%edi
    e8fd:	e8 2f 69 ff ff       	callq  5231 <safe_mod_func_int8_t_s_s>
    e902:	be c8 15 f7 47       	mov    $0x47f715c8,%esi
    e907:	bf 00 7e 50 1c       	mov    $0x1c507e00,%edi
    e90c:	e8 f4 6c ff ff       	callq  5605 <safe_sub_func_int32_t_s_s>
    e911:	83 f8 04             	cmp    $0x4,%eax
    e914:	77 0b                	ja     e921 <func_51+0x20c>
    e916:	0f b6 05 d3 8a 00 00 	movzbl 0x8ad3(%rip),%eax        # 173f0 <g_612>
    e91d:	84 c0                	test   %al,%al
    e91f:	74 07                	je     e928 <func_51+0x213>
    e921:	b8 01 00 00 00       	mov    $0x1,%eax
    e926:	eb 05                	jmp    e92d <func_51+0x218>
    e928:	b8 00 00 00 00       	mov    $0x0,%eax
    e92d:	0f be c0             	movsbl %al,%eax
    e930:	89 de                	mov    %ebx,%esi
    e932:	89 c7                	mov    %eax,%edi
    e934:	e8 31 69 ff ff       	callq  526a <safe_div_func_int8_t_s_s>
    e939:	84 c0                	test   %al,%al
    e93b:	74 07                	je     e944 <func_51+0x22f>
    e93d:	ba 01 00 00 00       	mov    $0x1,%edx
    e942:	eb 05                	jmp    e949 <func_51+0x234>
    e944:	ba 00 00 00 00       	mov    $0x0,%edx
    e949:	0f b6 45 a9          	movzbl -0x57(%rbp),%eax
    e94d:	0f b6 c0             	movzbl %al,%eax
    e950:	39 c2                	cmp    %eax,%edx
    e952:	74 07                	je     e95b <func_51+0x246>
    e954:	ba 01 00 00 00       	mov    $0x1,%edx
    e959:	eb 05                	jmp    e960 <func_51+0x24b>
    e95b:	ba 00 00 00 00       	mov    $0x0,%edx
    e960:	48 8b 85 78 ff ff ff 	mov    -0x88(%rbp),%rax
    e967:	8b 00                	mov    (%rax),%eax
    e969:	21 c2                	and    %eax,%edx
    e96b:	48 8b 85 78 ff ff ff 	mov    -0x88(%rbp),%rax
    e972:	89 10                	mov    %edx,(%rax)
    e974:	0f b7 05 73 8a 00 00 	movzwl 0x8a73(%rip),%eax        # 173ee <g_511>
    e97b:	0f b7 c0             	movzwl %ax,%eax
    e97e:	be 03 00 00 00       	mov    $0x3,%esi
    e983:	89 c7                	mov    %eax,%edi
    e985:	e8 95 73 ff ff       	callq  5d1f <safe_sub_func_uint16_t_u_u>
    e98a:	66 89 05 5d 8a 00 00 	mov    %ax,0x8a5d(%rip)        # 173ee <g_511>
    e991:	0f b7 05 56 8a 00 00 	movzwl 0x8a56(%rip),%eax        # 173ee <g_511>
    e998:	66 83 f8 f8          	cmp    $0xfff8,%ax
    e99c:	0f 8c 40 fe ff ff    	jl     e7e2 <func_51+0xcd>
    e9a2:	0f b6 45 a8          	movzbl -0x58(%rbp),%eax
    e9a6:	0f b6 c0             	movzbl %al,%eax
    e9a9:	48 8b 4d c8          	mov    -0x38(%rbp),%rcx
    e9ad:	64 48 33 0c 25 28 00 	xor    %fs:0x28,%rcx
    e9b4:	00 00 
    e9b6:	74 05                	je     e9bd <func_51+0x2a8>
    e9b8:	e8 b3 66 ff ff       	callq  5070 <__stack_chk_fail@plt>
    e9bd:	48 81 c4 88 00 00 00 	add    $0x88,%rsp
    e9c4:	5b                   	pop    %rbx
    e9c5:	41 5c                	pop    %r12
    e9c7:	41 5d                	pop    %r13
    e9c9:	41 5e                	pop    %r14
    e9cb:	41 5f                	pop    %r15
    e9cd:	5d                   	pop    %rbp
    e9ce:	c3                   	retq   

000000000000e9cf <func_59>:
    e9cf:	f3 0f 1e fa          	endbr64 
    e9d3:	55                   	push   %rbp
    e9d4:	48 89 e5             	mov    %rsp,%rbp
    e9d7:	41 55                	push   %r13
    e9d9:	41 54                	push   %r12
    e9db:	53                   	push   %rbx
    e9dc:	48 81 ec 68 0c 00 00 	sub    $0xc68,%rsp
    e9e3:	89 bd 9c f3 ff ff    	mov    %edi,-0xc64(%rbp)
    e9e9:	48 89 b5 90 f3 ff ff 	mov    %rsi,-0xc70(%rbp)
    e9f0:	48 89 95 88 f3 ff ff 	mov    %rdx,-0xc78(%rbp)
    e9f7:	89 c8                	mov    %ecx,%eax
    e9f9:	88 85 98 f3 ff ff    	mov    %al,-0xc68(%rbp)
    e9ff:	64 48 8b 04 25 28 00 	mov    %fs:0x28,%rax
    ea06:	00 00 
    ea08:	48 89 45 d8          	mov    %rax,-0x28(%rbp)
    ea0c:	31 c0                	xor    %eax,%eax
    ea0e:	c6 85 a0 f3 ff ff 01 	movb   $0x1,-0xc60(%rbp)
    ea15:	c7 85 70 f5 ff ff 08 	movl   $0x8,-0xa90(%rbp)
    ea1c:	00 00 00 
    ea1f:	c7 85 74 f5 ff ff 08 	movl   $0x8,-0xa8c(%rbp)
    ea26:	00 00 00 
    ea29:	c7 85 78 f5 ff ff 08 	movl   $0x8,-0xa88(%rbp)
    ea30:	00 00 00 
    ea33:	c7 85 7c f5 ff ff 08 	movl   $0x8,-0xa84(%rbp)
    ea3a:	00 00 00 
    ea3d:	48 8d 05 10 46 00 00 	lea    0x4610(%rip),%rax        # 13054 <g_294>
    ea44:	48 89 85 18 f4 ff ff 	mov    %rax,-0xbe8(%rbp)
    ea4b:	48 8d 05 76 88 00 00 	lea    0x8876(%rip),%rax        # 172c8 <g_196+0x8>
    ea52:	48 89 85 20 f4 ff ff 	mov    %rax,-0xbe0(%rbp)
    ea59:	c7 85 b0 f6 ff ff 04 	movl   $0x4,-0x950(%rbp)
    ea60:	00 00 00 
    ea63:	c7 85 b4 f6 ff ff fe 	movl   $0xfffffffe,-0x94c(%rbp)
    ea6a:	ff ff ff 
    ea6d:	c7 85 b8 f6 ff ff 5b 	movl   $0xee8a465b,-0x948(%rbp)
    ea74:	46 8a ee 
    ea77:	c7 85 bc f6 ff ff 00 	movl   $0x0,-0x944(%rbp)
    ea7e:	00 00 00 
    ea81:	c7 85 c0 f6 ff ff 5b 	movl   $0xee8a465b,-0x940(%rbp)
    ea88:	46 8a ee 
    ea8b:	c7 85 c4 f6 ff ff 5b 	movl   $0xee8a465b,-0x93c(%rbp)
    ea92:	46 8a ee 
    ea95:	c7 85 c8 f6 ff ff 5b 	movl   $0xee8a465b,-0x938(%rbp)
    ea9c:	46 8a ee 
    ea9f:	c7 85 cc f6 ff ff cc 	movl   $0xc67b74cc,-0x934(%rbp)
    eaa6:	74 7b c6 
    eaa9:	c7 85 d0 f6 ff ff 00 	movl   $0x0,-0x930(%rbp)
    eab0:	00 00 00 
    eab3:	c7 85 d4 f6 ff ff 61 	movl   $0x76a15261,-0x92c(%rbp)
    eaba:	52 a1 76 
    eabd:	c7 85 d8 f6 ff ff fe 	movl   $0xfffffffe,-0x928(%rbp)
    eac4:	ff ff ff 
    eac7:	c7 85 dc f6 ff ff 04 	movl   $0x4,-0x924(%rbp)
    eace:	00 00 00 
    ead1:	c7 85 e0 f6 ff ff 04 	movl   $0x4,-0x920(%rbp)
    ead8:	00 00 00 
    eadb:	c7 85 e4 f6 ff ff fe 	movl   $0xfffffffe,-0x91c(%rbp)
    eae2:	ff ff ff 
    eae5:	c7 85 e8 f6 ff ff 5b 	movl   $0xee8a465b,-0x918(%rbp)
    eaec:	46 8a ee 
    eaef:	c7 85 ec f6 ff ff fe 	movl   $0xfffffffe,-0x914(%rbp)
    eaf6:	ff ff ff 
    eaf9:	c7 85 f0 f6 ff ff 00 	movl   $0x0,-0x910(%rbp)
    eb00:	00 00 00 
    eb03:	c7 85 f4 f6 ff ff a6 	movl   $0x28dfe8a6,-0x90c(%rbp)
    eb0a:	e8 df 28 
    eb0d:	c7 85 f8 f6 ff ff a6 	movl   $0x28dfe8a6,-0x908(%rbp)
    eb14:	e8 df 28 
    eb17:	c7 85 fc f6 ff ff 00 	movl   $0x0,-0x904(%rbp)
    eb1e:	00 00 00 
    eb21:	c7 85 00 f7 ff ff 61 	movl   $0x76a15261,-0x900(%rbp)
    eb28:	52 a1 76 
    eb2b:	c7 85 04 f7 ff ff 00 	movl   $0x0,-0x8fc(%rbp)
    eb32:	00 00 00 
    eb35:	c7 85 08 f7 ff ff cc 	movl   $0xc67b74cc,-0x8f8(%rbp)
    eb3c:	74 7b c6 
    eb3f:	c7 85 0c f7 ff ff 5b 	movl   $0xee8a465b,-0x8f4(%rbp)
    eb46:	46 8a ee 
    eb49:	c7 85 10 f7 ff ff 5b 	movl   $0xee8a465b,-0x8f0(%rbp)
    eb50:	46 8a ee 
    eb53:	c7 85 14 f7 ff ff 00 	movl   $0x0,-0x8ec(%rbp)
    eb5a:	00 00 00 
    eb5d:	c7 85 18 f7 ff ff 61 	movl   $0x76a15261,-0x8e8(%rbp)
    eb64:	52 a1 76 
    eb67:	c7 85 1c f7 ff ff 00 	movl   $0x0,-0x8e4(%rbp)
    eb6e:	00 00 00 
    eb71:	c7 85 20 f7 ff ff cc 	movl   $0xc67b74cc,-0x8e0(%rbp)
    eb78:	74 7b c6 
    eb7b:	c7 85 24 f7 ff ff 5b 	movl   $0xee8a465b,-0x8dc(%rbp)
    eb82:	46 8a ee 
    eb85:	66 c7 85 40 f6 ff ff 	movw   $0x1,-0x9c0(%rbp)
    eb8c:	01 00 
    eb8e:	66 c7 85 42 f6 ff ff 	movw   $0xfffd,-0x9be(%rbp)
    eb95:	fd ff 
    eb97:	66 c7 85 44 f6 ff ff 	movw   $0xfff9,-0x9bc(%rbp)
    eb9e:	f9 ff 
    eba0:	66 c7 85 46 f6 ff ff 	movw   $0x67ec,-0x9ba(%rbp)
    eba7:	ec 67 
    eba9:	66 c7 85 48 f6 ff ff 	movw   $0xfff9,-0x9b8(%rbp)
    ebb0:	f9 ff 
    ebb2:	66 c7 85 4a f6 ff ff 	movw   $0xfffd,-0x9b6(%rbp)
    ebb9:	fd ff 
    ebbb:	66 c7 85 4c f6 ff ff 	movw   $0x1,-0x9b4(%rbp)
    ebc2:	01 00 
    ebc4:	66 c7 85 4e f6 ff ff 	movw   $0xfff9,-0x9b2(%rbp)
    ebcb:	f9 ff 
    ebcd:	66 c7 85 50 f6 ff ff 	movw   $0xfffd,-0x9b0(%rbp)
    ebd4:	fd ff 
    ebd6:	66 c7 85 52 f6 ff ff 	movw   $0x67ec,-0x9ae(%rbp)
    ebdd:	ec 67 
    ebdf:	66 c7 85 54 f6 ff ff 	movw   $0xfffe,-0x9ac(%rbp)
    ebe6:	fe ff 
    ebe8:	66 c7 85 56 f6 ff ff 	movw   $0xfffe,-0x9aa(%rbp)
    ebef:	fe ff 
    ebf1:	66 c7 85 58 f6 ff ff 	movw   $0x1,-0x9a8(%rbp)
    ebf8:	01 00 
    ebfa:	66 c7 85 5a f6 ff ff 	movw   $0xfffe,-0x9a6(%rbp)
    ec01:	fe ff 
    ec03:	66 c7 85 5c f6 ff ff 	movw   $0xfffe,-0x9a4(%rbp)
    ec0a:	fe ff 
    ec0c:	66 c7 85 5e f6 ff ff 	movw   $0x67ec,-0x9a2(%rbp)
    ec13:	ec 67 
    ec15:	66 c7 85 60 f6 ff ff 	movw   $0xfffd,-0x9a0(%rbp)
    ec1c:	fd ff 
    ec1e:	66 c7 85 62 f6 ff ff 	movw   $0xfff9,-0x99e(%rbp)
    ec25:	f9 ff 
    ec27:	66 c7 85 64 f6 ff ff 	movw   $0x1,-0x99c(%rbp)
    ec2e:	01 00 
    ec30:	66 c7 85 66 f6 ff ff 	movw   $0xfffd,-0x99a(%rbp)
    ec37:	fd ff 
    ec39:	66 c7 85 68 f6 ff ff 	movw   $0xfff9,-0x998(%rbp)
    ec40:	f9 ff 
    ec42:	66 c7 85 6a f6 ff ff 	movw   $0x67ec,-0x996(%rbp)
    ec49:	ec 67 
    ec4b:	66 c7 85 6c f6 ff ff 	movw   $0xfff9,-0x994(%rbp)
    ec52:	f9 ff 
    ec54:	66 c7 85 6e f6 ff ff 	movw   $0xfffd,-0x992(%rbp)
    ec5b:	fd ff 
    ec5d:	66 c7 85 70 f6 ff ff 	movw   $0x1,-0x990(%rbp)
    ec64:	01 00 
    ec66:	66 c7 85 72 f6 ff ff 	movw   $0xfff9,-0x98e(%rbp)
    ec6d:	f9 ff 
    ec6f:	66 c7 85 74 f6 ff ff 	movw   $0xfffd,-0x98c(%rbp)
    ec76:	fd ff 
    ec78:	66 c7 85 76 f6 ff ff 	movw   $0x67ec,-0x98a(%rbp)
    ec7f:	ec 67 
    ec81:	66 c7 85 78 f6 ff ff 	movw   $0xfffe,-0x988(%rbp)
    ec88:	fe ff 
    ec8a:	66 c7 85 7a f6 ff ff 	movw   $0xfffe,-0x986(%rbp)
    ec91:	fe ff 
    ec93:	66 c7 85 7c f6 ff ff 	movw   $0x1,-0x984(%rbp)
    ec9a:	01 00 
    ec9c:	66 c7 85 7e f6 ff ff 	movw   $0xfffe,-0x982(%rbp)
    eca3:	fe ff 
    eca5:	66 c7 85 80 f6 ff ff 	movw   $0xfffe,-0x980(%rbp)
    ecac:	fe ff 
    ecae:	66 c7 85 82 f6 ff ff 	movw   $0x67ec,-0x97e(%rbp)
    ecb5:	ec 67 
    ecb7:	66 c7 85 84 f6 ff ff 	movw   $0xfffd,-0x97c(%rbp)
    ecbe:	fd ff 
    ecc0:	66 c7 85 86 f6 ff ff 	movw   $0xfff9,-0x97a(%rbp)
    ecc7:	f9 ff 
    ecc9:	66 c7 85 88 f6 ff ff 	movw   $0x1,-0x978(%rbp)
    ecd0:	01 00 
    ecd2:	66 c7 85 8a f6 ff ff 	movw   $0xfffd,-0x976(%rbp)
    ecd9:	fd ff 
    ecdb:	66 c7 85 8c f6 ff ff 	movw   $0xfff9,-0x974(%rbp)
    ece2:	f9 ff 
    ece4:	66 c7 85 8e f6 ff ff 	movw   $0x67ec,-0x972(%rbp)
    eceb:	ec 67 
    eced:	66 c7 85 90 f6 ff ff 	movw   $0xfff9,-0x970(%rbp)
    ecf4:	f9 ff 
    ecf6:	66 c7 85 92 f6 ff ff 	movw   $0xfffd,-0x96e(%rbp)
    ecfd:	fd ff 
    ecff:	66 c7 85 94 f6 ff ff 	movw   $0x1,-0x96c(%rbp)
    ed06:	01 00 
    ed08:	66 c7 85 96 f6 ff ff 	movw   $0xfff9,-0x96a(%rbp)
    ed0f:	f9 ff 
    ed11:	66 c7 85 98 f6 ff ff 	movw   $0xfffd,-0x968(%rbp)
    ed18:	fd ff 
    ed1a:	66 c7 85 9a f6 ff ff 	movw   $0x67ec,-0x966(%rbp)
    ed21:	ec 67 
    ed23:	66 c7 85 9c f6 ff ff 	movw   $0xfffe,-0x964(%rbp)
    ed2a:	fe ff 
    ed2c:	66 c7 85 9e f6 ff ff 	movw   $0xfffe,-0x962(%rbp)
    ed33:	fe ff 
    ed35:	66 c7 85 a0 f6 ff ff 	movw   $0x1,-0x960(%rbp)
    ed3c:	01 00 
    ed3e:	66 c7 85 a2 f6 ff ff 	movw   $0xfffe,-0x95e(%rbp)
    ed45:	fe ff 
    ed47:	66 c7 85 a4 f6 ff ff 	movw   $0xfffe,-0x95c(%rbp)
    ed4e:	fe ff 
    ed50:	66 c7 85 a6 f6 ff ff 	movw   $0x67ec,-0x95a(%rbp)
    ed57:	ec 67 
    ed59:	66 c7 85 a8 f6 ff ff 	movw   $0xfffd,-0x958(%rbp)
    ed60:	fd ff 
    ed62:	66 c7 85 aa f6 ff ff 	movw   $0xfff9,-0x956(%rbp)
    ed69:	f9 ff 
    ed6b:	48 c7 85 f8 f3 ff ff 	movq   $0x0,-0xc08(%rbp)
    ed72:	00 00 00 00 
    ed76:	48 8d 85 f8 f3 ff ff 	lea    -0xc08(%rbp),%rax
    ed7d:	48 89 85 28 f4 ff ff 	mov    %rax,-0xbd8(%rbp)
    ed84:	c6 85 a1 f3 ff ff 01 	movb   $0x1,-0xc5f(%rbp)
    ed8b:	48 8d 05 52 86 00 00 	lea    0x8652(%rip),%rax        # 173e4 <g_326>
    ed92:	48 89 85 00 f4 ff ff 	mov    %rax,-0xc00(%rbp)
    ed99:	48 8d 85 00 f4 ff ff 	lea    -0xc00(%rbp),%rax
    eda0:	48 89 85 08 f4 ff ff 	mov    %rax,-0xbf8(%rbp)
    eda7:	48 8d 85 08 f4 ff ff 	lea    -0xbf8(%rbp),%rax
    edae:	48 89 85 30 f4 ff ff 	mov    %rax,-0xbd0(%rbp)
    edb5:	c7 85 ac f3 ff ff 00 	movl   $0x0,-0xc54(%rbp)
    edbc:	00 00 00 
    edbf:	eb 1a                	jmp    eddb <func_59+0x40c>
    edc1:	8b 85 ac f3 ff ff    	mov    -0xc54(%rbp),%eax
    edc7:	48 98                	cltq   
    edc9:	c7 84 85 6c f5 ff ff 	movl   $0xffffffff,-0xa94(%rbp,%rax,4)
    edd0:	ff ff ff ff 
    edd4:	83 85 ac f3 ff ff 01 	addl   $0x1,-0xc54(%rbp)
    eddb:	83 bd ac f3 ff ff 00 	cmpl   $0x0,-0xc54(%rbp)
    ede2:	7e dd                	jle    edc1 <func_59+0x3f2>
    ede4:	48 8b 85 90 f3 ff ff 	mov    -0xc70(%rbp),%rax
    edeb:	8b 00                	mov    (%rax),%eax
    eded:	85 c0                	test   %eax,%eax
    edef:	0f 84 22 0a 00 00    	je     f817 <func_59+0xe48>
    edf5:	48 8d 85 50 f8 ff ff 	lea    -0x7b0(%rbp),%rax
    edfc:	48 8d 15 bd 96 00 00 	lea    0x96bd(%rip),%rdx        # 184c0 <g_1634+0x6d8>
    ee03:	b9 d8 00 00 00       	mov    $0xd8,%ecx
    ee08:	48 89 c7             	mov    %rax,%rdi
    ee0b:	48 89 d6             	mov    %rdx,%rsi
    ee0e:	f3 48 a5             	rep movsq %ds:(%rsi),%es:(%rdi)
    ee11:	48 8d 05 b8 85 00 00 	lea    0x85b8(%rip),%rax        # 173d0 <g_229>
    ee18:	48 89 85 b8 f4 ff ff 	mov    %rax,-0xb48(%rbp)
    ee1f:	0f b6 85 a0 f3 ff ff 	movzbl -0xc60(%rbp),%eax
    ee26:	83 e8 01             	sub    $0x1,%eax
    ee29:	88 85 a0 f3 ff ff    	mov    %al,-0xc60(%rbp)
    ee2f:	c6 05 fa 81 00 00 00 	movb   $0x0,0x81fa(%rip)        # 17030 <g_26>
    ee36:	e9 c8 09 00 00       	jmpq   f803 <func_59+0xe34>
    ee3b:	c7 85 e8 f3 ff ff be 	movl   $0xf9d4fcbe,-0xc18(%rbp)
    ee42:	fc d4 f9 
    ee45:	c7 85 b0 f3 ff ff 3b 	movl   $0x9f67763b,-0xc50(%rbp)
    ee4c:	76 67 9f 
    ee4f:	48 8d 05 62 84 00 00 	lea    0x8462(%rip),%rax        # 172b8 <g_162>
    ee56:	48 89 85 c0 f4 ff ff 	mov    %rax,-0xb40(%rbp)
    ee5d:	c7 85 b4 f3 ff ff 03 	movl   $0x3,-0xc4c(%rbp)
    ee64:	00 00 00 
    ee67:	48 8d 05 c2 81 00 00 	lea    0x81c2(%rip),%rax        # 17030 <g_26>
    ee6e:	48 89 85 c8 f4 ff ff 	mov    %rax,-0xb38(%rbp)
    ee75:	48 8d 85 a0 f3 ff ff 	lea    -0xc60(%rbp),%rax
    ee7c:	48 89 85 d0 f4 ff ff 	mov    %rax,-0xb30(%rbp)
    ee83:	48 8d 05 46 b1 00 00 	lea    0xb146(%rip),%rax        # 19fd0 <g_194>
    ee8a:	48 89 85 d8 f4 ff ff 	mov    %rax,-0xb28(%rbp)
    ee91:	c6 85 a0 f3 ff ff 00 	movb   $0x0,-0xc60(%rbp)
    ee98:	e9 47 08 00 00       	jmpq   f6e4 <func_59+0xd15>
    ee9d:	c7 85 30 f7 ff ff 6c 	movl   $0x4c85056c,-0x8d0(%rbp)
    eea4:	05 85 4c 
    eea7:	c7 85 34 f7 ff ff ff 	movl   $0xffffffff,-0x8cc(%rbp)
    eeae:	ff ff ff 
    eeb1:	c7 85 38 f7 ff ff 6c 	movl   $0x4c85056c,-0x8c8(%rbp)
    eeb8:	05 85 4c 
    eebb:	c7 85 3c f7 ff ff f6 	movl   $0xfffffff6,-0x8c4(%rbp)
    eec2:	ff ff ff 
    eec5:	c7 85 40 f7 ff ff 01 	movl   $0x1,-0x8c0(%rbp)
    eecc:	00 00 00 
    eecf:	c7 85 44 f7 ff ff 0a 	movl   $0x8e7a130a,-0x8bc(%rbp)
    eed6:	13 7a 8e 
    eed9:	c7 85 48 f7 ff ff 50 	movl   $0xaf0dce50,-0x8b8(%rbp)
    eee0:	ce 0d af 
    eee3:	c7 85 4c f7 ff ff f6 	movl   $0xfffffff6,-0x8b4(%rbp)
    eeea:	ff ff ff 
    eeed:	c7 85 50 f7 ff ff fb 	movl   $0xfffffffb,-0x8b0(%rbp)
    eef4:	ff ff ff 
    eef7:	c7 85 54 f7 ff ff 6c 	movl   $0x4c85056c,-0x8ac(%rbp)
    eefe:	05 85 4c 
    ef01:	c7 85 58 f7 ff ff 6c 	movl   $0x4c85056c,-0x8a8(%rbp)
    ef08:	05 85 4c 
    ef0b:	c7 85 5c f7 ff ff fb 	movl   $0xfffffffb,-0x8a4(%rbp)
    ef12:	ff ff ff 
    ef15:	c7 85 60 f7 ff ff f9 	movl   $0xfffffff9,-0x8a0(%rbp)
    ef1c:	ff ff ff 
    ef1f:	c7 85 64 f7 ff ff f9 	movl   $0xfffffff9,-0x89c(%rbp)
    ef26:	ff ff ff 
    ef29:	c7 85 68 f7 ff ff 9e 	movl   $0x72a3349e,-0x898(%rbp)
    ef30:	34 a3 72 
    ef33:	c7 85 6c f7 ff ff 6c 	movl   $0x4c85056c,-0x894(%rbp)
    ef3a:	05 85 4c 
    ef3d:	c7 85 70 f7 ff ff f6 	movl   $0xfffffff6,-0x890(%rbp)
    ef44:	ff ff ff 
    ef47:	c7 85 74 f7 ff ff f6 	movl   $0xfffffff6,-0x88c(%rbp)
    ef4e:	ff ff ff 
    ef51:	c7 85 78 f7 ff ff 50 	movl   $0xaf0dce50,-0x888(%rbp)
    ef58:	ce 0d af 
    ef5b:	c7 85 7c f7 ff ff 9e 	movl   $0x72a3349e,-0x884(%rbp)
    ef62:	34 a3 72 
    ef65:	c7 85 80 f7 ff ff 0a 	movl   $0x8e7a130a,-0x880(%rbp)
    ef6c:	13 7a 8e 
    ef6f:	c7 85 84 f7 ff ff f6 	movl   $0xfffffff6,-0x87c(%rbp)
    ef76:	ff ff ff 
    ef79:	c7 85 88 f7 ff ff 0a 	movl   $0x8e7a130a,-0x878(%rbp)
    ef80:	13 7a 8e 
    ef83:	c7 85 8c f7 ff ff 9e 	movl   $0x72a3349e,-0x874(%rbp)
    ef8a:	34 a3 72 
    ef8d:	48 c7 85 e0 f4 ff ff 	movq   $0x0,-0xb20(%rbp)
    ef94:	00 00 00 00 
    ef98:	c7 85 b8 f3 ff ff 00 	movl   $0x0,-0xc48(%rbp)
    ef9f:	00 00 00 
    efa2:	eb 1a                	jmp    efbe <func_59+0x5ef>
    efa4:	8b 85 b8 f3 ff ff    	mov    -0xc48(%rbp),%eax
    efaa:	48 98                	cltq   
    efac:	c7 84 85 b0 f5 ff ff 	movl   $0xffffffff,-0xa50(%rbp,%rax,4)
    efb3:	ff ff ff ff 
    efb7:	83 85 b8 f3 ff ff 01 	addl   $0x1,-0xc48(%rbp)
    efbe:	83 bd b8 f3 ff ff 01 	cmpl   $0x1,-0xc48(%rbp)
    efc5:	7e dd                	jle    efa4 <func_59+0x5d5>
    efc7:	48 c7 05 f6 af 00 00 	movq   $0x1,0xaff6(%rip)        # 19fc8 <g_28>
    efce:	01 00 00 00 
    efd2:	e9 be 01 00 00       	jmpq   f195 <func_59+0x7c6>
    efd7:	c6 85 a5 f3 ff ff 95 	movb   $0x95,-0xc5b(%rbp)
    efde:	48 c7 85 88 f3 ff ff 	movq   $0x0,-0xc78(%rbp)
    efe5:	00 00 00 00 
    efe9:	e9 87 01 00 00       	jmpq   f175 <func_59+0x7a6>
    efee:	48 c7 85 30 f5 ff ff 	movq   $0x0,-0xad0(%rbp)
    eff5:	00 00 00 00 
    eff9:	48 8d 05 c8 82 00 00 	lea    0x82c8(%rip),%rax        # 172c8 <g_196+0x8>
    f000:	48 89 85 38 f5 ff ff 	mov    %rax,-0xac8(%rbp)
    f007:	48 c7 85 40 f5 ff ff 	movq   $0x0,-0xac0(%rbp)
    f00e:	00 00 00 00 
    f012:	c7 85 bc f3 ff ff 00 	movl   $0x0,-0xc44(%rbp)
    f019:	00 00 00 
    f01c:	eb 1e                	jmp    f03c <func_59+0x66d>
    f01e:	8b 85 bc f3 ff ff    	mov    -0xc44(%rbp),%eax
    f024:	48 98                	cltq   
    f026:	48 8d 15 f7 7f 00 00 	lea    0x7ff7(%rip),%rdx        # 17024 <g_11>
    f02d:	48 89 94 c5 f0 f5 ff 	mov    %rdx,-0xa10(%rbp,%rax,8)
    f034:	ff 
    f035:	83 85 bc f3 ff ff 01 	addl   $0x1,-0xc44(%rbp)
    f03c:	83 bd bc f3 ff ff 00 	cmpl   $0x0,-0xc44(%rbp)
    f043:	7e d9                	jle    f01e <func_59+0x64f>
    f045:	8b 05 e1 7f 00 00    	mov    0x7fe1(%rip),%eax        # 1702c <g_20>
    f04b:	23 85 e8 f3 ff ff    	and    -0xc18(%rbp),%eax
    f051:	89 05 d5 7f 00 00    	mov    %eax,0x7fd5(%rip)        # 1702c <g_20>
    f057:	81 b5 b0 f3 ff ff 93 	xorl   $0xe90a8693,-0xc50(%rbp)
    f05e:	86 0a e9 
    f061:	8b 85 b0 f3 ff ff    	mov    -0xc50(%rbp),%eax
    f067:	89 05 bf 7f 00 00    	mov    %eax,0x7fbf(%rip)        # 1702c <g_20>
    f06d:	8b 15 b9 7f 00 00    	mov    0x7fb9(%rip),%edx        # 1702c <g_20>
    f073:	8b 85 9c f3 ff ff    	mov    -0xc64(%rbp),%eax
    f079:	21 d0                	and    %edx,%eax
    f07b:	89 85 9c f3 ff ff    	mov    %eax,-0xc64(%rbp)
    f081:	48 8b 85 88 f3 ff ff 	mov    -0xc78(%rbp),%rax
    f088:	41 89 c4             	mov    %eax,%r12d
    f08b:	0f b6 85 a5 f3 ff ff 	movzbl -0xc5b(%rbp),%eax
    f092:	0f be d8             	movsbl %al,%ebx
    f095:	48 8b 85 90 f3 ff ff 	mov    -0xc70(%rbp),%rax
    f09c:	8b 00                	mov    (%rax),%eax
    f09e:	89 c7                	mov    %eax,%edi
    f0a0:	e8 d7 22 00 00       	callq  1137c <func_96>
    f0a5:	48 8b 95 c0 f4 ff ff 	mov    -0xb40(%rbp),%rdx
    f0ac:	49 89 d0             	mov    %rdx,%r8
    f0af:	89 d9                	mov    %ebx,%ecx
    f0b1:	48 8d 15 70 7f 00 00 	lea    0x7f70(%rip),%rdx        # 17028 <g_14>
    f0b8:	48 8d 35 6d 7f 00 00 	lea    0x7f6d(%rip),%rsi        # 1702c <g_20>
    f0bf:	48 89 c7             	mov    %rax,%rdi
    f0c2:	e8 f7 1f 00 00       	callq  110be <func_90>
    f0c7:	48 85 c0             	test   %rax,%rax
    f0ca:	74 11                	je     f0dd <func_59+0x70e>
    f0cc:	8b 85 9c f3 ff ff    	mov    -0xc64(%rbp),%eax
    f0d2:	85 c0                	test   %eax,%eax
    f0d4:	74 07                	je     f0dd <func_59+0x70e>
    f0d6:	b8 01 00 00 00       	mov    $0x1,%eax
    f0db:	eb 05                	jmp    f0e2 <func_59+0x713>
    f0dd:	b8 00 00 00 00       	mov    $0x0,%eax
    f0e2:	89 c3                	mov    %eax,%ebx
    f0e4:	48 8b 05 dd ae 00 00 	mov    0xaedd(%rip),%rax        # 19fc8 <g_28>
    f0eb:	09 85 b0 f3 ff ff    	or     %eax,-0xc50(%rbp)
    f0f1:	8b 85 9c f3 ff ff    	mov    -0xc64(%rbp),%eax
    f0f7:	48 98                	cltq   
    f0f9:	8b 95 b0 f3 ff ff    	mov    -0xc50(%rbp),%edx
    f0ff:	89 d6                	mov    %edx,%esi
    f101:	48 89 c7             	mov    %rax,%rdi
    f104:	e8 9e 1f 00 00       	callq  110a7 <func_85>
    f109:	89 de                	mov    %ebx,%esi
    f10b:	89 c7                	mov    %eax,%edi
    f10d:	e8 a6 6d ff ff       	callq  5eb8 <safe_add_func_uint32_t_u_u>
    f112:	98                   	cwtl   
    f113:	44 89 e6             	mov    %r12d,%esi
    f116:	89 c7                	mov    %eax,%edi
    f118:	e8 c4 63 ff ff       	callq  54e1 <safe_lshift_func_int16_t_s_u>
    f11d:	48 0f bf d0          	movswq %ax,%rdx
    f121:	48 8b 85 38 f5 ff ff 	mov    -0xac8(%rbp),%rax
    f128:	48 89 10             	mov    %rdx,(%rax)
    f12b:	48 8b 85 38 f5 ff ff 	mov    -0xac8(%rbp),%rax
    f132:	48 8b 10             	mov    (%rax),%rdx
    f135:	0f b7 05 04 82 00 00 	movzwl 0x8204(%rip),%eax        # 17340 <g_198+0x60>
    f13c:	09 d0                	or     %edx,%eax
    f13e:	66 89 05 fb 81 00 00 	mov    %ax,0x81fb(%rip)        # 17340 <g_198+0x60>
    f145:	0f b7 05 f4 81 00 00 	movzwl 0x81f4(%rip),%eax        # 17340 <g_198+0x60>
    f14c:	66 85 c0             	test   %ax,%ax
    f14f:	74 11                	je     f162 <func_59+0x793>
    f151:	8b 05 d1 7e 00 00    	mov    0x7ed1(%rip),%eax        # 17028 <g_14>
    f157:	85 c0                	test   %eax,%eax
    f159:	74 07                	je     f162 <func_59+0x793>
    f15b:	b8 01 00 00 00       	mov    $0x1,%eax
    f160:	eb 05                	jmp    f167 <func_59+0x798>
    f162:	b8 00 00 00 00       	mov    $0x0,%eax
    f167:	09 85 b4 f3 ff ff    	or     %eax,-0xc4c(%rbp)
    f16d:	48 83 85 88 f3 ff ff 	addq   $0x1,-0xc78(%rbp)
    f174:	01 
    f175:	48 83 bd 88 f3 ff ff 	cmpq   $0x3,-0xc78(%rbp)
    f17c:	03 
    f17d:	0f 8e 6b fe ff ff    	jle    efee <func_59+0x61f>
    f183:	48 8b 05 3e ae 00 00 	mov    0xae3e(%rip),%rax        # 19fc8 <g_28>
    f18a:	48 83 e8 01          	sub    $0x1,%rax
    f18e:	48 89 05 33 ae 00 00 	mov    %rax,0xae33(%rip)        # 19fc8 <g_28>
    f195:	48 8b 05 2c ae 00 00 	mov    0xae2c(%rip),%rax        # 19fc8 <g_28>
    f19c:	48 85 c0             	test   %rax,%rax
    f19f:	0f 89 32 fe ff ff    	jns    efd7 <func_59+0x608>
    f1a5:	c7 05 7d 7e 00 00 00 	movl   $0x0,0x7e7d(%rip)        # 1702c <g_20>
    f1ac:	00 00 00 
    f1af:	e9 0b 05 00 00       	jmpq   f6bf <func_59+0xcf0>
    f1b4:	c7 85 ec f3 ff ff 05 	movl   $0x5,-0xc14(%rbp)
    f1bb:	00 00 00 
    f1be:	c7 85 f0 f3 ff ff a3 	movl   $0x51552ba3,-0xc10(%rbp)
    f1c5:	2b 55 51 
    f1c8:	48 8d 05 f9 ad 00 00 	lea    0xadf9(%rip),%rax        # 19fc8 <g_28>
    f1cf:	48 89 85 e8 f4 ff ff 	mov    %rax,-0xb18(%rbp)
    f1d6:	48 8d 05 fb 81 00 00 	lea    0x81fb(%rip),%rax        # 173d8 <g_232>
    f1dd:	48 89 85 f0 f4 ff ff 	mov    %rax,-0xb10(%rbp)
    f1e4:	48 8d 05 d5 80 00 00 	lea    0x80d5(%rip),%rax        # 172c0 <g_196>
    f1eb:	48 89 85 f8 f4 ff ff 	mov    %rax,-0xb08(%rbp)
    f1f2:	48 8d 85 b0 f5 ff ff 	lea    -0xa50(%rbp),%rax
    f1f9:	48 83 c0 04          	add    $0x4,%rax
    f1fd:	48 89 85 00 f5 ff ff 	mov    %rax,-0xb00(%rbp)
    f204:	48 c7 05 b9 ad 00 00 	movq   $0x1,0xadb9(%rip)        # 19fc8 <g_28>
    f20b:	01 00 00 00 
    f20f:	e9 ce 01 00 00       	jmpq   f3e2 <func_59+0xa13>
    f214:	48 8d 05 ad 80 00 00 	lea    0x80ad(%rip),%rax        # 172c8 <g_196+0x8>
    f21b:	48 89 85 20 f5 ff ff 	mov    %rax,-0xae0(%rbp)
    f222:	48 8d 05 37 81 00 00 	lea    0x8137(%rip),%rax        # 17360 <g_214>
    f229:	48 89 85 28 f5 ff ff 	mov    %rax,-0xad8(%rbp)
    f230:	48 8d 05 2f 7e 00 00 	lea    0x7e2f(%rip),%rax        # 17066 <g_69>
    f237:	48 89 85 10 f4 ff ff 	mov    %rax,-0xbf0(%rbp)
    f23e:	c7 85 c0 f3 ff ff 00 	movl   $0x0,-0xc40(%rbp)
    f245:	00 00 00 
    f248:	eb 1e                	jmp    f268 <func_59+0x899>
    f24a:	8b 85 c0 f3 ff ff    	mov    -0xc40(%rbp),%eax
    f250:	48 98                	cltq   
    f252:	48 8d 95 10 f4 ff ff 	lea    -0xbf0(%rbp),%rdx
    f259:	48 89 94 c5 f0 f5 ff 	mov    %rdx,-0xa10(%rbp,%rax,8)
    f260:	ff 
    f261:	83 85 c0 f3 ff ff 01 	addl   $0x1,-0xc40(%rbp)
    f268:	83 bd c0 f3 ff ff 08 	cmpl   $0x8,-0xc40(%rbp)
    f26f:	7e d9                	jle    f24a <func_59+0x87b>
    f271:	48 8d 05 38 80 00 00 	lea    0x8038(%rip),%rax        # 172b0 <g_156>
    f278:	48 89 05 11 99 00 00 	mov    %rax,0x9911(%rip)        # 18b90 <g_221+0x10>
    f27f:	8b 05 a3 7d 00 00    	mov    0x7da3(%rip),%eax        # 17028 <g_14>
    f285:	0f be c0             	movsbl %al,%eax
    f288:	be 58 00 00 00       	mov    $0x58,%esi
    f28d:	89 c7                	mov    %eax,%edi
    f28f:	e8 9d 5f ff ff       	callq  5231 <safe_mod_func_int8_t_s_s>
    f294:	89 c2                	mov    %eax,%edx
    f296:	48 8b 85 10 f4 ff ff 	mov    -0xbf0(%rbp),%rax
    f29d:	66 0f be d2          	movsbw %dl,%dx
    f2a1:	66 89 10             	mov    %dx,(%rax)
    f2a4:	0f b7 00             	movzwl (%rax),%eax
    f2a7:	98                   	cwtl   
    f2a8:	be f1 3e 00 00       	mov    $0x3ef1,%esi
    f2ad:	89 c7                	mov    %eax,%edi
    f2af:	e8 62 61 ff ff       	callq  5416 <safe_mod_func_int16_t_s_s>
    f2b4:	66 85 c0             	test   %ax,%ax
    f2b7:	75 0a                	jne    f2c3 <func_59+0x8f4>
    f2b9:	8b 85 50 f7 ff ff    	mov    -0x8b0(%rbp),%eax
    f2bf:	85 c0                	test   %eax,%eax
    f2c1:	74 07                	je     f2ca <func_59+0x8fb>
    f2c3:	b8 01 00 00 00       	mov    $0x1,%eax
    f2c8:	eb 05                	jmp    f2cf <func_59+0x900>
    f2ca:	b8 00 00 00 00       	mov    $0x0,%eax
    f2cf:	48 63 d0             	movslq %eax,%rdx
    f2d2:	8b b5 e8 f3 ff ff    	mov    -0xc18(%rbp),%esi
    f2d8:	0f b7 05 d9 7f 00 00 	movzwl 0x7fd9(%rip),%eax        # 172b8 <g_162>
    f2df:	66 85 c0             	test   %ax,%ax
    f2e2:	75 0b                	jne    f2ef <func_59+0x920>
    f2e4:	0f b6 85 98 f3 ff ff 	movzbl -0xc68(%rbp),%eax
    f2eb:	84 c0                	test   %al,%al
    f2ed:	74 07                	je     f2f6 <func_59+0x927>
    f2ef:	b8 01 00 00 00       	mov    $0x1,%eax
    f2f4:	eb 05                	jmp    f2fb <func_59+0x92c>
    f2f6:	b8 00 00 00 00       	mov    $0x0,%eax
    f2fb:	48 63 c8             	movslq %eax,%rcx
    f2fe:	48 8b 85 20 f5 ff ff 	mov    -0xae0(%rbp),%rax
    f305:	48 89 08             	mov    %rcx,(%rax)
    f308:	48 8b 85 20 f5 ff ff 	mov    -0xae0(%rbp),%rax
    f30f:	48 8b 00             	mov    (%rax),%rax
    f312:	48 39 c6             	cmp    %rax,%rsi
    f315:	0f 95 c0             	setne  %al
    f318:	0f b6 f0             	movzbl %al,%esi
    f31b:	48 8b 85 28 f5 ff ff 	mov    -0xad8(%rbp),%rax
    f322:	48 8b 08             	mov    (%rax),%rcx
    f325:	48 63 c6             	movslq %esi,%rax
    f328:	48 09 c1             	or     %rax,%rcx
    f32b:	48 8b 85 28 f5 ff ff 	mov    -0xad8(%rbp),%rax
    f332:	48 89 08             	mov    %rcx,(%rax)
    f335:	48 8b 85 28 f5 ff ff 	mov    -0xad8(%rbp),%rax
    f33c:	48 8b 00             	mov    (%rax),%rax
    f33f:	48 89 d6             	mov    %rdx,%rsi
    f342:	48 89 c7             	mov    %rax,%rdi
    f345:	e8 01 6d ff ff       	callq  604b <safe_sub_func_uint64_t_u_u>
    f34a:	48 8d 85 98 f3 ff ff 	lea    -0xc68(%rbp),%rax
    f351:	48 39 85 c8 f4 ff ff 	cmp    %rax,-0xb38(%rbp)
    f358:	0f 95 c0             	setne  %al
    f35b:	0f b6 c0             	movzbl %al,%eax
    f35e:	89 c6                	mov    %eax,%esi
    f360:	bf d5 00 00 00       	mov    $0xd5,%edi
    f365:	e8 0e 68 ff ff       	callq  5b78 <safe_sub_func_uint8_t_u_u>
    f36a:	0f b7 05 cf 7f 00 00 	movzwl 0x7fcf(%rip),%eax        # 17340 <g_198+0x60>
    f371:	66 85 c0             	test   %ax,%ax
    f374:	74 07                	je     f37d <func_59+0x9ae>
    f376:	b8 01 00 00 00       	mov    $0x1,%eax
    f37b:	eb 05                	jmp    f382 <func_59+0x9b3>
    f37d:	b8 00 00 00 00       	mov    $0x0,%eax
    f382:	be fe ff ff ff       	mov    $0xfffffffe,%esi
    f387:	89 c7                	mov    %eax,%edi
    f389:	e8 97 6b ff ff       	callq  5f25 <safe_div_func_uint32_t_u_u>
    f38e:	89 c6                	mov    %eax,%esi
    f390:	bf f9 f6 0f 14       	mov    $0x140ff6f9,%edi
    f395:	e8 1e 6b ff ff       	callq  5eb8 <safe_add_func_uint32_t_u_u>
    f39a:	be 00 00 00 00       	mov    $0x0,%esi
    f39f:	bf 3b 00 00 00       	mov    $0x3b,%edi
    f3a4:	e8 5c 68 ff ff       	callq  5c05 <safe_lshift_func_uint8_t_u_s>
    f3a9:	3c ee                	cmp    $0xee,%al
    f3ab:	0f 97 c0             	seta   %al
    f3ae:	0f b6 d0             	movzbl %al,%edx
    f3b1:	8b 85 9c f3 ff ff    	mov    -0xc64(%rbp),%eax
    f3b7:	21 d0                	and    %edx,%eax
    f3b9:	89 85 9c f3 ff ff    	mov    %eax,-0xc64(%rbp)
    f3bf:	0f b7 05 16 80 00 00 	movzwl 0x8016(%rip),%eax        # 173dc <g_234>
    f3c6:	83 e8 01             	sub    $0x1,%eax
    f3c9:	66 89 05 0c 80 00 00 	mov    %ax,0x800c(%rip)        # 173dc <g_234>
    f3d0:	48 8b 05 f1 ab 00 00 	mov    0xabf1(%rip),%rax        # 19fc8 <g_28>
    f3d7:	48 83 e8 01          	sub    $0x1,%rax
    f3db:	48 89 05 e6 ab 00 00 	mov    %rax,0xabe6(%rip)        # 19fc8 <g_28>
    f3e2:	48 8b 05 df ab 00 00 	mov    0xabdf(%rip),%rax        # 19fc8 <g_28>
    f3e9:	48 85 c0             	test   %rax,%rax
    f3ec:	0f 89 22 fe ff ff    	jns    f214 <func_59+0x845>
    f3f2:	8b 85 b4 f5 ff ff    	mov    -0xa4c(%rbp),%eax
    f3f8:	89 85 ec f3 ff ff    	mov    %eax,-0xc14(%rbp)
    f3fe:	83 bd ec f3 ff ff 00 	cmpl   $0x0,-0xc14(%rbp)
    f405:	74 10                	je     f417 <func_59+0xa48>
    f407:	0f b6 05 23 7c 00 00 	movzbl 0x7c23(%rip),%eax        # 17031 <g_27>
    f40e:	48 0f be c0          	movsbq %al,%rax
    f412:	e9 6e 1c 00 00       	jmpq   11085 <func_59+0x26b6>
    f417:	83 bd f0 f3 ff ff 00 	cmpl   $0x0,-0xc10(%rbp)
    f41e:	0f 85 ac 02 00 00    	jne    f6d0 <func_59+0xd01>
    f424:	0f b7 05 15 7f 00 00 	movzwl 0x7f15(%rip),%eax        # 17340 <g_198+0x60>
    f42b:	66 85 c0             	test   %ax,%ax
    f42e:	0f 85 9f 02 00 00    	jne    f6d3 <func_59+0xd04>
    f434:	83 bd ec f3 ff ff 58 	cmpl   $0x58,-0xc14(%rbp)
    f43b:	0f 94 c0             	sete   %al
    f43e:	0f b6 d0             	movzbl %al,%edx
    f441:	48 8b 85 e8 f4 ff ff 	mov    -0xb18(%rbp),%rax
    f448:	48 8b 00             	mov    (%rax),%rax
    f44b:	48 83 e0 fa          	and    $0xfffffffffffffffa,%rax
    f44f:	48 89 c1             	mov    %rax,%rcx
    f452:	48 8b 85 e8 f4 ff ff 	mov    -0xb18(%rbp),%rax
    f459:	48 89 08             	mov    %rcx,(%rax)
    f45c:	48 8b 85 e8 f4 ff ff 	mov    -0xb18(%rbp),%rax
    f463:	48 8b 00             	mov    (%rax),%rax
    f466:	48 39 c2             	cmp    %rax,%rdx
    f469:	0f 9c c0             	setl   %al
    f46c:	0f b6 d0             	movzbl %al,%edx
    f46f:	48 8b 85 f0 f4 ff ff 	mov    -0xb10(%rbp),%rax
    f476:	66 c7 00 01 00       	movw   $0x1,(%rax)
    f47b:	48 8b 85 c0 f4 ff ff 	mov    -0xb40(%rbp),%rax
    f482:	0f b7 00             	movzwl (%rax),%eax
    f485:	89 c1                	mov    %eax,%ecx
    f487:	89 d0                	mov    %edx,%eax
    f489:	21 c8                	and    %ecx,%eax
    f48b:	89 c2                	mov    %eax,%edx
    f48d:	48 8b 85 c0 f4 ff ff 	mov    -0xb40(%rbp),%rax
    f494:	66 89 10             	mov    %dx,(%rax)
    f497:	48 8b 85 c0 f4 ff ff 	mov    -0xb40(%rbp),%rax
    f49e:	0f b7 00             	movzwl (%rax),%eax
    f4a1:	0f b7 c0             	movzwl %ax,%eax
    f4a4:	83 e0 01             	and    $0x1,%eax
    f4a7:	be 0b 00 00 00       	mov    $0xb,%esi
    f4ac:	89 c7                	mov    %eax,%edi
    f4ae:	e8 0b 69 ff ff       	callq  5dbe <safe_lshift_func_uint16_t_u_s>
    f4b3:	0f b7 d8             	movzwl %ax,%ebx
    f4b6:	0f b7 05 f3 7d 00 00 	movzwl 0x7df3(%rip),%eax        # 172b0 <g_156>
    f4bd:	48 0f bf c0          	movswq %ax,%rax
    f4c1:	48 39 85 88 f3 ff ff 	cmp    %rax,-0xc78(%rbp)
    f4c8:	0f 9d c0             	setge  %al
    f4cb:	0f b6 c0             	movzbl %al,%eax
    f4ce:	89 c6                	mov    %eax,%esi
    f4d0:	bf 01 00 00 00       	mov    $0x1,%edi
    f4d5:	e8 fa 5c ff ff       	callq  51d4 <safe_add_func_int8_t_s_s>
    f4da:	0f be c0             	movsbl %al,%eax
    f4dd:	be 0f 00 00 00       	mov    $0xf,%esi
    f4e2:	89 c7                	mov    %eax,%edi
    f4e4:	e8 41 60 ff ff       	callq  552a <safe_rshift_func_int16_t_s_s>
    f4e9:	98                   	cwtl   
    f4ea:	39 85 ec f3 ff ff    	cmp    %eax,-0xc14(%rbp)
    f4f0:	0f 9c c0             	setl   %al
    f4f3:	0f b6 c0             	movzbl %al,%eax
    f4f6:	39 c3                	cmp    %eax,%ebx
    f4f8:	0f 9f c0             	setg   %al
    f4fb:	0f b6 c8             	movzbl %al,%ecx
    f4fe:	48 8b 85 f8 f4 ff ff 	mov    -0xb08(%rbp),%rax
    f505:	48 8b 10             	mov    (%rax),%rdx
    f508:	48 63 c1             	movslq %ecx,%rax
    f50b:	48 21 c2             	and    %rax,%rdx
    f50e:	48 8b 85 f8 f4 ff ff 	mov    -0xb08(%rbp),%rax
    f515:	48 89 10             	mov    %rdx,(%rax)
    f518:	48 8b 85 f8 f4 ff ff 	mov    -0xb08(%rbp),%rax
    f51f:	48 8b 10             	mov    (%rax),%rdx
    f522:	0f b6 85 98 f3 ff ff 	movzbl -0xc68(%rbp),%eax
    f529:	48 0f be c0          	movsbq %al,%rax
    f52d:	48 09 c2             	or     %rax,%rdx
    f530:	48 8b 85 88 f3 ff ff 	mov    -0xc78(%rbp),%rax
    f537:	48 39 c2             	cmp    %rax,%rdx
    f53a:	0f 95 c0             	setne  %al
    f53d:	0f b6 c0             	movzbl %al,%eax
    f540:	89 05 6e 7d 00 00    	mov    %eax,0x7d6e(%rip)        # 172b4 <g_159>
    f546:	c7 85 f0 f3 ff ff 01 	movl   $0x1,-0xc10(%rbp)
    f54d:	00 00 00 
    f550:	83 bd f0 f3 ff ff 00 	cmpl   $0x0,-0xc10(%rbp)
    f557:	0f 88 53 01 00 00    	js     f6b0 <func_59+0xce1>
    f55d:	48 b8 13 9e 00 b3 a4 	movabs $0x953b14a4b3009e13,%rax
    f564:	14 3b 95 
    f567:	48 89 85 08 f5 ff ff 	mov    %rax,-0xaf8(%rbp)
    f56e:	48 8d 85 70 f5 ff ff 	lea    -0xa90(%rbp),%rax
    f575:	48 83 c0 0c          	add    $0xc,%rax
    f579:	48 89 85 10 f5 ff ff 	mov    %rax,-0xaf0(%rbp)
    f580:	48 8d 05 49 7e 00 00 	lea    0x7e49(%rip),%rax        # 173d0 <g_229>
    f587:	48 89 85 18 f5 ff ff 	mov    %rax,-0xae8(%rbp)
    f58e:	48 83 85 08 f5 ff ff 	addq   $0x1,-0xaf8(%rbp)
    f595:	01 
    f596:	8b 85 b0 f3 ff ff    	mov    -0xc50(%rbp),%eax
    f59c:	0f bf d8             	movswl %ax,%ebx
    f59f:	48 83 bd 18 f5 ff ff 	cmpq   $0x0,-0xae8(%rbp)
    f5a6:	00 
    f5a7:	0f 94 c0             	sete   %al
    f5aa:	0f b6 c0             	movzbl %al,%eax
    f5ad:	be 01 00 00 00       	mov    $0x1,%esi
    f5b2:	89 c7                	mov    %eax,%edi
    f5b4:	e8 f5 65 ff ff       	callq  5bae <safe_mod_func_uint8_t_u_u>
    f5b9:	0f b6 c0             	movzbl %al,%eax
    f5bc:	89 de                	mov    %ebx,%esi
    f5be:	89 c7                	mov    %eax,%edi
    f5c0:	e8 0e 5e ff ff       	callq  53d3 <safe_sub_func_int16_t_s_s>
    f5c5:	0f bf d0             	movswl %ax,%edx
    f5c8:	8b 05 06 aa 00 00    	mov    0xaa06(%rip),%eax        # 19fd4 <g_231>
    f5ce:	39 c2                	cmp    %eax,%edx
    f5d0:	0f 95 c1             	setne  %cl
    f5d3:	8b 05 53 7a 00 00    	mov    0x7a53(%rip),%eax        # 1702c <g_20>
    f5d9:	8d 78 02             	lea    0x2(%rax),%edi
    f5dc:	0f b6 85 a0 f3 ff ff 	movzbl -0xc60(%rbp),%eax
    f5e3:	0f b6 c0             	movzbl %al,%eax
    f5e6:	8d 70 06             	lea    0x6(%rax),%esi
    f5e9:	8b 15 3d 7a 00 00    	mov    0x7a3d(%rip),%edx        # 1702c <g_20>
    f5ef:	44 0f b6 c1          	movzbl %cl,%r8d
    f5f3:	4c 63 ca             	movslq %edx,%r9
    f5f6:	48 63 cf             	movslq %edi,%rcx
    f5f9:	4c 63 d6             	movslq %esi,%r10
    f5fc:	48 89 c8             	mov    %rcx,%rax
    f5ff:	48 c1 e0 02          	shl    $0x2,%rax
    f603:	48 01 c8             	add    %rcx,%rax
    f606:	48 01 c0             	add    %rax,%rax
    f609:	4c 01 d0             	add    %r10,%rax
    f60c:	48 01 c0             	add    %rax,%rax
    f60f:	4c 01 c8             	add    %r9,%rax
    f612:	48 8d 0c 85 00 00 00 	lea    0x0(,%rax,4),%rcx
    f619:	00 
    f61a:	48 8d 05 5f 7a 00 00 	lea    0x7a5f(%rip),%rax        # 17080 <g_72>
    f621:	44 89 04 01          	mov    %r8d,(%rcx,%rax,1)
    f625:	48 63 ca             	movslq %edx,%rcx
    f628:	48 63 d7             	movslq %edi,%rdx
    f62b:	48 63 f6             	movslq %esi,%rsi
    f62e:	48 89 d0             	mov    %rdx,%rax
    f631:	48 c1 e0 02          	shl    $0x2,%rax
    f635:	48 01 d0             	add    %rdx,%rax
    f638:	48 01 c0             	add    %rax,%rax
    f63b:	48 01 f0             	add    %rsi,%rax
    f63e:	48 01 c0             	add    %rax,%rax
    f641:	48 01 c8             	add    %rcx,%rax
    f644:	48 8d 14 85 00 00 00 	lea    0x0(,%rax,4),%rdx
    f64b:	00 
    f64c:	48 8d 05 2d 7a 00 00 	lea    0x7a2d(%rip),%rax        # 17080 <g_72>
    f653:	8b 04 02             	mov    (%rdx,%rax,1),%eax
    f656:	89 c6                	mov    %eax,%esi
    f658:	bf 01 00 00 00       	mov    $0x1,%edi
    f65d:	e8 54 5f ff ff       	callq  55b6 <safe_add_func_int32_t_s_s>
    f662:	8b 95 9c f3 ff ff    	mov    -0xc64(%rbp),%edx
    f668:	39 d0                	cmp    %edx,%eax
    f66a:	0f 9d c0             	setge  %al
    f66d:	0f b6 d0             	movzbl %al,%edx
    f670:	48 8b 85 10 f5 ff ff 	mov    -0xaf0(%rbp),%rax
    f677:	8b 00                	mov    (%rax),%eax
    f679:	39 c2                	cmp    %eax,%edx
    f67b:	0f 9e c0             	setle  %al
    f67e:	0f b6 c0             	movzbl %al,%eax
    f681:	23 85 ec f3 ff ff    	and    -0xc14(%rbp),%eax
    f687:	89 c2                	mov    %eax,%edx
    f689:	48 8b 85 10 f5 ff ff 	mov    -0xaf0(%rbp),%rax
    f690:	89 10                	mov    %edx,(%rax)
    f692:	48 8d 05 1b 7c 00 00 	lea    0x7c1b(%rip),%rax        # 172b4 <g_159>
    f699:	48 89 85 00 f5 ff ff 	mov    %rax,-0xb00(%rbp)
    f6a0:	0f b6 85 98 f3 ff ff 	movzbl -0xc68(%rbp),%eax
    f6a7:	48 0f be c0          	movsbq %al,%rax
    f6ab:	e9 d5 19 00 00       	jmpq   11085 <func_59+0x26b6>
    f6b0:	8b 05 76 79 00 00    	mov    0x7976(%rip),%eax        # 1702c <g_20>
    f6b6:	83 c0 01             	add    $0x1,%eax
    f6b9:	89 05 6d 79 00 00    	mov    %eax,0x796d(%rip)        # 1702c <g_20>
    f6bf:	8b 05 67 79 00 00    	mov    0x7967(%rip),%eax        # 1702c <g_20>
    f6c5:	83 f8 01             	cmp    $0x1,%eax
    f6c8:	0f 8e e6 fa ff ff    	jle    f1b4 <func_59+0x7e5>
    f6ce:	eb 04                	jmp    f6d4 <func_59+0xd05>
    f6d0:	90                   	nop
    f6d1:	eb 01                	jmp    f6d4 <func_59+0xd05>
    f6d3:	90                   	nop
    f6d4:	0f b6 85 a0 f3 ff ff 	movzbl -0xc60(%rbp),%eax
    f6db:	83 c0 01             	add    $0x1,%eax
    f6de:	88 85 a0 f3 ff ff    	mov    %al,-0xc60(%rbp)
    f6e4:	0f b6 85 a0 f3 ff ff 	movzbl -0xc60(%rbp),%eax
    f6eb:	3c 03                	cmp    $0x3,%al
    f6ed:	0f 86 aa f7 ff ff    	jbe    ee9d <func_59+0x4ce>
    f6f3:	48 8b 85 d0 f4 ff ff 	mov    -0xb30(%rbp),%rax
    f6fa:	0f b6 00             	movzbl (%rax),%eax
    f6fd:	89 c2                	mov    %eax,%edx
    f6ff:	0f b6 05 2a 79 00 00 	movzbl 0x792a(%rip),%eax        # 17030 <g_26>
    f706:	21 d0                	and    %edx,%eax
    f708:	89 c2                	mov    %eax,%edx
    f70a:	48 8b 85 d0 f4 ff ff 	mov    -0xb30(%rbp),%rax
    f711:	88 10                	mov    %dl,(%rax)
    f713:	48 8b 85 d0 f4 ff ff 	mov    -0xb30(%rbp),%rax
    f71a:	0f b6 00             	movzbl (%rax),%eax
    f71d:	84 c0                	test   %al,%al
    f71f:	0f 84 c2 00 00 00    	je     f7e7 <func_59+0xe18>
    f725:	8b 85 74 f5 ff ff    	mov    -0xa8c(%rbp),%eax
    f72b:	0f b6 d8             	movzbl %al,%ebx
    f72e:	44 8b a5 9c f3 ff ff 	mov    -0xc64(%rbp),%r12d
    f735:	0f b7 05 28 79 00 00 	movzwl 0x7928(%rip),%eax        # 17064 <g_66>
    f73c:	44 0f b6 e8          	movzbl %al,%r13d
    f740:	8b 85 7c f5 ff ff    	mov    -0xa84(%rbp),%eax
    f746:	85 c0                	test   %eax,%eax
    f748:	75 0b                	jne    f755 <func_59+0xd86>
    f74a:	0f b6 85 98 f3 ff ff 	movzbl -0xc68(%rbp),%eax
    f751:	84 c0                	test   %al,%al
    f753:	74 07                	je     f75c <func_59+0xd8d>
    f755:	b8 01 00 00 00       	mov    $0x1,%eax
    f75a:	eb 05                	jmp    f761 <func_59+0xd92>
    f75c:	b8 00 00 00 00       	mov    $0x0,%eax
    f761:	89 c2                	mov    %eax,%edx
    f763:	8b 05 5f 7c 00 00    	mov    0x7c5f(%rip),%eax        # 173c8 <g_228>
    f769:	89 d6                	mov    %edx,%esi
    f76b:	89 c7                	mov    %eax,%edi
    f76d:	e8 5e 67 ff ff       	callq  5ed0 <safe_sub_func_uint32_t_u_u>
    f772:	48 8b 05 57 7c 00 00 	mov    0x7c57(%rip),%rax        # 173d0 <g_229>
    f779:	48 85 c0             	test   %rax,%rax
    f77c:	0f 9f c0             	setg   %al
    f77f:	0f b6 c0             	movzbl %al,%eax
    f782:	44 89 ee             	mov    %r13d,%esi
    f785:	89 c7                	mov    %eax,%edi
    f787:	e8 07 64 ff ff       	callq  5b93 <safe_mul_func_uint8_t_u_u>
    f78c:	0f b6 c0             	movzbl %al,%eax
    f78f:	44 89 e6             	mov    %r12d,%esi
    f792:	89 c7                	mov    %eax,%edi
    f794:	e8 25 66 ff ff       	callq  5dbe <safe_lshift_func_uint16_t_u_s>
    f799:	be 00 00 00 00       	mov    $0x0,%esi
    f79e:	bf ff 00 00 00       	mov    $0xff,%edi
    f7a3:	e8 b2 63 ff ff       	callq  5b5a <safe_add_func_uint8_t_u_u>
    f7a8:	c7 85 b4 f3 ff ff 01 	movl   $0x1,-0xc4c(%rbp)
    f7af:	00 00 00 
    f7b2:	8b 85 b4 f3 ff ff    	mov    -0xc4c(%rbp),%eax
    f7b8:	0f b6 c0             	movzbl %al,%eax
    f7bb:	89 de                	mov    %ebx,%esi
    f7bd:	89 c7                	mov    %eax,%edi
    f7bf:	e8 cf 63 ff ff       	callq  5b93 <safe_mul_func_uint8_t_u_u>
    f7c4:	89 c2                	mov    %eax,%edx
    f7c6:	48 8b 85 d8 f4 ff ff 	mov    -0xb28(%rbp),%rax
    f7cd:	0f b6 00             	movzbl (%rax),%eax
    f7d0:	31 c2                	xor    %eax,%edx
    f7d2:	48 8b 85 d8 f4 ff ff 	mov    -0xb28(%rbp),%rax
    f7d9:	88 10                	mov    %dl,(%rax)
    f7db:	48 8b 85 d8 f4 ff ff 	mov    -0xb28(%rbp),%rax
    f7e2:	0f b6 00             	movzbl (%rax),%eax
    f7e5:	3c 3d                	cmp    $0x3d,%al
    f7e7:	8b 05 e7 a7 00 00    	mov    0xa7e7(%rip),%eax        # 19fd4 <g_231>
    f7ed:	89 05 c1 7a 00 00    	mov    %eax,0x7ac1(%rip)        # 172b4 <g_159>
    f7f3:	0f b6 05 36 78 00 00 	movzbl 0x7836(%rip),%eax        # 17030 <g_26>
    f7fa:	83 e8 01             	sub    $0x1,%eax
    f7fd:	88 05 2d 78 00 00    	mov    %al,0x782d(%rip)        # 17030 <g_26>
    f803:	0f b6 05 26 78 00 00 	movzbl 0x7826(%rip),%eax        # 17030 <g_26>
    f80a:	3c f6                	cmp    $0xf6,%al
    f80c:	0f 85 29 f6 ff ff    	jne    ee3b <func_59+0x46c>
    f812:	e9 d0 09 00 00       	jmpq   101e7 <func_59+0x1818>
    f817:	66 c7 85 a6 f3 ff ff 	movw   $0x8,-0xc5a(%rbp)
    f81e:	08 00 
    f820:	48 8d 05 a1 7b 00 00 	lea    0x7ba1(%rip),%rax        # 173c8 <g_228>
    f827:	48 89 85 38 f4 ff ff 	mov    %rax,-0xbc8(%rbp)
    f82e:	48 8d 05 8b 7b 00 00 	lea    0x7b8b(%rip),%rax        # 173c0 <g_226+0x40>
    f835:	48 89 85 40 f4 ff ff 	mov    %rax,-0xbc0(%rbp)
    f83c:	48 c7 85 88 f3 ff ff 	movq   $0x0,-0xc78(%rbp)
    f843:	00 00 00 00 
    f847:	e9 dc 03 00 00       	jmpq   fc28 <func_59+0x1259>
    f84c:	66 c7 85 aa f3 ff ff 	movw   $0x1,-0xc56(%rbp)
    f853:	01 00 
    f855:	48 8d 05 0a 78 00 00 	lea    0x780a(%rip),%rax        # 17066 <g_69>
    f85c:	48 89 85 a0 f4 ff ff 	mov    %rax,-0xb60(%rbp)
    f863:	c7 85 dc f3 ff ff 3d 	movl   $0x7575213d,-0xc24(%rbp)
    f86a:	21 75 75 
    f86d:	c7 85 e0 f3 ff ff 01 	movl   $0x1,-0xc20(%rbp)
    f874:	00 00 00 
    f877:	c7 85 e4 f3 ff ff 04 	movl   $0x4,-0xc1c(%rbp)
    f87e:	00 00 00 
    f881:	c7 85 50 f8 ff ff 06 	movl   $0x6,-0x7b0(%rbp)
    f888:	00 00 00 
    f88b:	c7 85 54 f8 ff ff ff 	movl   $0xffffffff,-0x7ac(%rbp)
    f892:	ff ff ff 
    f895:	c7 85 58 f8 ff ff fe 	movl   $0xfffffffe,-0x7a8(%rbp)
    f89c:	ff ff ff 
    f89f:	c7 85 5c f8 ff ff ff 	movl   $0xffffffff,-0x7a4(%rbp)
    f8a6:	ff ff ff 
    f8a9:	c7 85 60 f8 ff ff ff 	movl   $0xffffffff,-0x7a0(%rbp)
    f8b0:	ff ff ff 
    f8b3:	c7 85 64 f8 ff ff 07 	movl   $0x7,-0x79c(%rbp)
    f8ba:	00 00 00 
    f8bd:	c7 85 68 f8 ff ff 07 	movl   $0x7,-0x798(%rbp)
    f8c4:	00 00 00 
    f8c7:	c7 85 6c f8 ff ff fe 	movl   $0xfffffffe,-0x794(%rbp)
    f8ce:	ff ff ff 
    f8d1:	c7 85 70 f8 ff ff ff 	movl   $0xffffffff,-0x790(%rbp)
    f8d8:	ff ff ff 
    f8db:	c7 85 74 f8 ff ff 06 	movl   $0x6,-0x78c(%rbp)
    f8e2:	00 00 00 
    f8e5:	c7 85 78 f8 ff ff ff 	movl   $0xffffffff,-0x788(%rbp)
    f8ec:	ff ff ff 
    f8ef:	c7 85 7c f8 ff ff fe 	movl   $0xfffffffe,-0x784(%rbp)
    f8f6:	ff ff ff 
    f8f9:	c7 85 80 f8 ff ff ff 	movl   $0xffffffff,-0x780(%rbp)
    f900:	ff ff ff 
    f903:	c7 85 84 f8 ff ff ff 	movl   $0xffffffff,-0x77c(%rbp)
    f90a:	ff ff ff 
    f90d:	c7 85 88 f8 ff ff 18 	movl   $0x30178618,-0x778(%rbp)
    f914:	86 17 30 
    f917:	c7 85 8c f8 ff ff 00 	movl   $0x0,-0x774(%rbp)
    f91e:	00 00 00 
    f921:	c7 85 90 f8 ff ff ff 	movl   $0xffffffff,-0x770(%rbp)
    f928:	ff ff ff 
    f92b:	c7 85 94 f8 ff ff ff 	movl   $0xffffffff,-0x76c(%rbp)
    f932:	ff ff ff 
    f935:	c7 85 98 f8 ff ff ff 	movl   $0xffffffff,-0x768(%rbp)
    f93c:	ff ff ff 
    f93f:	c7 85 9c f8 ff ff ff 	movl   $0xffffffff,-0x764(%rbp)
    f946:	ff ff ff 
    f949:	c7 85 a0 f8 ff ff ff 	movl   $0xffffffff,-0x760(%rbp)
    f950:	ff ff ff 
    f953:	c7 85 a4 f8 ff ff ff 	movl   $0xffffffff,-0x75c(%rbp)
    f95a:	ff ff ff 
    f95d:	c7 85 a8 f8 ff ff ff 	movl   $0xffffffff,-0x758(%rbp)
    f964:	ff ff ff 
    f967:	c7 85 ac f8 ff ff 8c 	movl   $0xaf96ab8c,-0x754(%rbp)
    f96e:	ab 96 af 
    f971:	c7 85 b0 f8 ff ff 06 	movl   $0x6,-0x750(%rbp)
    f978:	00 00 00 
    f97b:	c7 85 b4 f8 ff ff 00 	movl   $0x0,-0x74c(%rbp)
    f982:	00 00 00 
    f985:	c7 85 b8 f8 ff ff 07 	movl   $0x7,-0x748(%rbp)
    f98c:	00 00 00 
    f98f:	c7 85 bc f8 ff ff 18 	movl   $0x30178618,-0x744(%rbp)
    f996:	86 17 30 
    f999:	c7 85 c0 f8 ff ff 18 	movl   $0x30178618,-0x740(%rbp)
    f9a0:	86 17 30 
    f9a3:	c7 85 c4 f8 ff ff ff 	movl   $0xffffffff,-0x73c(%rbp)
    f9aa:	ff ff ff 
    f9ad:	c7 85 c8 f8 ff ff 8c 	movl   $0xaf96ab8c,-0x738(%rbp)
    f9b4:	ab 96 af 
    f9b7:	c7 85 cc f8 ff ff 8c 	movl   $0xaf96ab8c,-0x734(%rbp)
    f9be:	ab 96 af 
    f9c1:	c7 85 d0 f8 ff ff ff 	movl   $0xffffffff,-0x730(%rbp)
    f9c8:	ff ff ff 
    f9cb:	c7 85 d4 f8 ff ff 18 	movl   $0x30178618,-0x72c(%rbp)
    f9d2:	86 17 30 
    f9d5:	c7 85 d8 f8 ff ff ff 	movl   $0xffffffff,-0x728(%rbp)
    f9dc:	ff ff ff 
    f9df:	c7 85 dc f8 ff ff fe 	movl   $0xfffffffe,-0x724(%rbp)
    f9e6:	ff ff ff 
    f9e9:	c7 85 e0 f8 ff ff 8c 	movl   $0xaf96ab8c,-0x720(%rbp)
    f9f0:	ab 96 af 
    f9f3:	c7 85 e4 f8 ff ff ff 	movl   $0xffffffff,-0x71c(%rbp)
    f9fa:	ff ff ff 
    f9fd:	c7 85 e8 f8 ff ff ff 	movl   $0xffffffff,-0x718(%rbp)
    fa04:	ff ff ff 
    fa07:	c7 85 ec f8 ff ff 00 	movl   $0x0,-0x714(%rbp)
    fa0e:	00 00 00 
    fa11:	c7 85 f0 f8 ff ff 00 	movl   $0x0,-0x710(%rbp)
    fa18:	00 00 00 
    fa1b:	c7 85 f4 f8 ff ff ff 	movl   $0xffffffff,-0x70c(%rbp)
    fa22:	ff ff ff 
    fa25:	c7 85 c4 f3 ff ff 00 	movl   $0x0,-0xc3c(%rbp)
    fa2c:	00 00 00 
    fa2f:	eb 1b                	jmp    fa4c <func_59+0x107d>
    fa31:	8b 85 c4 f3 ff ff    	mov    -0xc3c(%rbp),%eax
    fa37:	48 98                	cltq   
    fa39:	48 c7 84 c5 f0 f5 ff 	movq   $0x0,-0xa10(%rbp,%rax,8)
    fa40:	ff 00 00 00 00 
    fa45:	83 85 c4 f3 ff ff 01 	addl   $0x1,-0xc3c(%rbp)
    fa4c:	83 bd c4 f3 ff ff 02 	cmpl   $0x2,-0xc3c(%rbp)
    fa53:	7e dc                	jle    fa31 <func_59+0x1062>
    fa55:	0f b6 85 98 f3 ff ff 	movzbl -0xc68(%rbp),%eax
    fa5c:	0f be d8             	movsbl %al,%ebx
    fa5f:	0f b7 85 a6 f3 ff ff 	movzwl -0xc5a(%rbp),%eax
    fa66:	48 89 c6             	mov    %rax,%rsi
    fa69:	48 bf 06 b3 09 22 e3 	movabs $0xaef56fe32209b306,%rdi
    fa70:	6f f5 ae 
    fa73:	e8 d3 65 ff ff       	callq  604b <safe_sub_func_uint64_t_u_u>
    fa78:	0f be c0             	movsbl %al,%eax
    fa7b:	89 de                	mov    %ebx,%esi
    fa7d:	89 c7                	mov    %eax,%edi
    fa7f:	e8 8e 57 ff ff       	callq  5212 <safe_mul_func_int8_t_s_s>
    fa84:	66 98                	cbtw   
    fa86:	0f b7 d0             	movzwl %ax,%edx
    fa89:	8b 8d 7c f5 ff ff    	mov    -0xa84(%rbp),%ecx
    fa8f:	0f bf 85 aa f3 ff ff 	movswl -0xc56(%rbp),%eax
    fa96:	39 c1                	cmp    %eax,%ecx
    fa98:	0f 95 c0             	setne  %al
    fa9b:	0f b6 c0             	movzbl %al,%eax
    fa9e:	89 d6                	mov    %edx,%esi
    faa0:	89 c7                	mov    %eax,%edi
    faa2:	e8 96 62 ff ff       	callq  5d3d <safe_mul_func_uint16_t_u_u>
    faa7:	f7 d0                	not    %eax
    faa9:	98                   	cwtl   
    faaa:	89 c6                	mov    %eax,%esi
    faac:	bf 7c f3 ff ff       	mov    $0xfffff37c,%edi
    fab1:	e8 9f 59 ff ff       	callq  5455 <safe_div_func_int16_t_s_s>
    fab6:	48 c7 85 18 f4 ff ff 	movq   $0x0,-0xbe8(%rbp)
    fabd:	00 00 00 00 
    fac1:	48 83 bd 18 f4 ff ff 	cmpq   $0x0,-0xbe8(%rbp)
    fac8:	00 
    fac9:	0f 94 c0             	sete   %al
    facc:	0f b6 d0             	movzbl %al,%edx
    facf:	0f b7 05 8e 75 00 00 	movzwl 0x758e(%rip),%eax        # 17064 <g_66>
    fad6:	0f b6 c0             	movzbl %al,%eax
    fad9:	89 d6                	mov    %edx,%esi
    fadb:	89 c7                	mov    %eax,%edi
    fadd:	e8 6a 61 ff ff       	callq  5c4c <safe_lshift_func_uint8_t_u_u>
    fae2:	8b 05 2c 76 00 00    	mov    0x762c(%rip),%eax        # 17114 <g_72+0x94>
    fae8:	85 c0                	test   %eax,%eax
    faea:	0f 94 c0             	sete   %al
    faed:	0f b6 d0             	movzbl %al,%edx
    faf0:	48 8b 85 a0 f4 ff ff 	mov    -0xb60(%rbp),%rax
    faf7:	0f b7 00             	movzwl (%rax),%eax
    fafa:	31 c2                	xor    %eax,%edx
    fafc:	48 8b 85 a0 f4 ff ff 	mov    -0xb60(%rbp),%rax
    fb03:	66 89 10             	mov    %dx,(%rax)
    fb06:	48 8b 85 a0 f4 ff ff 	mov    -0xb60(%rbp),%rax
    fb0d:	0f b7 00             	movzwl (%rax),%eax
    fb10:	0f b7 d0             	movzwl %ax,%edx
    fb13:	8b 05 bb a4 00 00    	mov    0xa4bb(%rip),%eax        # 19fd4 <g_231>
    fb19:	c1 e8 1f             	shr    $0x1f,%eax
    fb1c:	0f b6 c0             	movzbl %al,%eax
    fb1f:	89 d6                	mov    %edx,%esi
    fb21:	89 c7                	mov    %eax,%edi
    fb23:	e8 f7 61 ff ff       	callq  5d1f <safe_sub_func_uint16_t_u_u>
    fb28:	66 39 85 a6 f3 ff ff 	cmp    %ax,-0xc5a(%rbp)
    fb2f:	0f 95 c0             	setne  %al
    fb32:	0f b6 d0             	movzbl %al,%edx
    fb35:	8b 85 9c f3 ff ff    	mov    -0xc64(%rbp),%eax
    fb3b:	39 c2                	cmp    %eax,%edx
    fb3d:	7d 11                	jge    fb50 <func_59+0x1181>
    fb3f:	8b 85 70 f5 ff ff    	mov    -0xa90(%rbp),%eax
    fb45:	85 c0                	test   %eax,%eax
    fb47:	74 07                	je     fb50 <func_59+0x1181>
    fb49:	b8 01 00 00 00       	mov    $0x1,%eax
    fb4e:	eb 05                	jmp    fb55 <func_59+0x1186>
    fb50:	b8 00 00 00 00       	mov    $0x0,%eax
    fb55:	0f be c0             	movsbl %al,%eax
    fb58:	be fd ff ff ff       	mov    $0xfffffffd,%esi
    fb5d:	89 c7                	mov    %eax,%edi
    fb5f:	e8 70 56 ff ff       	callq  51d4 <safe_add_func_int8_t_s_s>
    fb64:	84 c0                	test   %al,%al
    fb66:	0f 84 95 00 00 00    	je     fc01 <func_59+0x1232>
    fb6c:	48 c7 85 b0 f4 ff ff 	movq   $0x0,-0xb50(%rbp)
    fb73:	00 00 00 00 
    fb77:	48 8d 05 3e 77 00 00 	lea    0x773e(%rip),%rax        # 172bc <g_183>
    fb7e:	48 89 85 30 f7 ff ff 	mov    %rax,-0x8d0(%rbp)
    fb85:	48 8d 05 30 77 00 00 	lea    0x7730(%rip),%rax        # 172bc <g_183>
    fb8c:	48 89 85 38 f7 ff ff 	mov    %rax,-0x8c8(%rbp)
    fb93:	48 8d 05 22 77 00 00 	lea    0x7722(%rip),%rax        # 172bc <g_183>
    fb9a:	48 89 85 40 f7 ff ff 	mov    %rax,-0x8c0(%rbp)
    fba1:	48 8d 05 14 77 00 00 	lea    0x7714(%rip),%rax        # 172bc <g_183>
    fba8:	48 89 85 48 f7 ff ff 	mov    %rax,-0x8b8(%rbp)
    fbaf:	48 8d 05 06 77 00 00 	lea    0x7706(%rip),%rax        # 172bc <g_183>
    fbb6:	48 89 85 50 f7 ff ff 	mov    %rax,-0x8b0(%rbp)
    fbbd:	48 8d 05 f8 76 00 00 	lea    0x76f8(%rip),%rax        # 172bc <g_183>
    fbc4:	48 89 85 58 f7 ff ff 	mov    %rax,-0x8a8(%rbp)
    fbcb:	48 8d 05 ea 76 00 00 	lea    0x76ea(%rip),%rax        # 172bc <g_183>
    fbd2:	48 89 85 60 f7 ff ff 	mov    %rax,-0x8a0(%rbp)
    fbd9:	48 8d 05 dc 76 00 00 	lea    0x76dc(%rip),%rax        # 172bc <g_183>
    fbe0:	48 89 85 68 f7 ff ff 	mov    %rax,-0x898(%rbp)
    fbe7:	c6 85 a4 f3 ff ff da 	movb   $0xda,-0xc5c(%rbp)
    fbee:	0f b7 05 ed 77 00 00 	movzwl 0x77ed(%rip),%eax        # 173e2 <g_304+0x2>
    fbf5:	83 c0 01             	add    $0x1,%eax
    fbf8:	66 89 05 e3 77 00 00 	mov    %ax,0x77e3(%rip)        # 173e2 <g_304+0x2>
    fbff:	eb 1f                	jmp    fc20 <func_59+0x1251>
    fc01:	c6 85 a3 f3 ff ff 67 	movb   $0x67,-0xc5d(%rbp)
    fc08:	48 c7 85 a8 f4 ff ff 	movq   $0x0,-0xb58(%rbp)
    fc0f:	00 00 00 00 
    fc13:	0f b6 85 a3 f3 ff ff 	movzbl -0xc5d(%rbp),%eax
    fc1a:	89 85 a0 f8 ff ff    	mov    %eax,-0x760(%rbp)
    fc20:	48 83 ad 88 f3 ff ff 	subq   $0x1,-0xc78(%rbp)
    fc27:	01 
    fc28:	48 83 bd 88 f3 ff ff 	cmpq   $0xffffffffffffffe6,-0xc78(%rbp)
    fc2f:	e6 
    fc30:	0f 85 16 fc ff ff    	jne    f84c <func_59+0xe7d>
    fc36:	48 c7 05 1f 77 00 00 	movq   $0x0,0x771f(%rip)        # 17360 <g_214>
    fc3d:	00 00 00 00 
    fc41:	90                   	nop
    fc42:	48 8b 05 17 77 00 00 	mov    0x7717(%rip),%rax        # 17360 <g_214>
    fc49:	48 83 f8 12          	cmp    $0x12,%rax
    fc4d:	0f 87 94 05 00 00    	ja     101e7 <func_59+0x1818>
    fc53:	c7 85 cc f3 ff ff fe 	movl   $0x2686b1fe,-0xc34(%rbp)
    fc5a:	b1 86 26 
    fc5d:	48 8d 05 6c 77 00 00 	lea    0x776c(%rip),%rax        # 173d0 <g_229>
    fc64:	48 89 85 48 f4 ff ff 	mov    %rax,-0xbb8(%rbp)
    fc6b:	48 8d 05 56 a3 00 00 	lea    0xa356(%rip),%rax        # 19fc8 <g_28>
    fc72:	48 89 85 50 f4 ff ff 	mov    %rax,-0xbb0(%rbp)
    fc79:	48 8d 05 64 77 00 00 	lea    0x7764(%rip),%rax        # 173e4 <g_326>
    fc80:	48 89 85 58 f4 ff ff 	mov    %rax,-0xba8(%rbp)
    fc87:	48 8d 85 50 f8 ff ff 	lea    -0x7b0(%rbp),%rax
    fc8e:	48 8d 15 8b 42 00 00 	lea    0x428b(%rip),%rdx        # 13f20 <g_1778+0xec4>
    fc95:	b9 36 00 00 00       	mov    $0x36,%ecx
    fc9a:	48 89 c7             	mov    %rax,%rdi
    fc9d:	48 89 d6             	mov    %rdx,%rsi
    fca0:	f3 48 a5             	rep movsq %ds:(%rsi),%es:(%rdi)
    fca3:	48 c7 85 60 f4 ff ff 	movq   $0x0,-0xba0(%rbp)
    fcaa:	00 00 00 00 
    fcae:	be 03 00 00 00       	mov    $0x3,%esi
    fcb3:	bf 35 00 00 00       	mov    $0x35,%edi
    fcb8:	e8 d0 5f ff ff       	callq  5c8d <safe_rshift_func_uint8_t_u_s>
    fcbd:	44 0f b6 e0          	movzbl %al,%r12d
    fcc1:	48 8b 85 88 f3 ff ff 	mov    -0xc78(%rbp),%rax
    fcc8:	88 85 98 f3 ff ff    	mov    %al,-0xc68(%rbp)
    fcce:	48 8b 85 48 f4 ff ff 	mov    -0xbb8(%rbp),%rax
    fcd5:	48 c7 00 00 00 00 00 	movq   $0x0,(%rax)
    fcdc:	48 8b 85 50 f4 ff ff 	mov    -0xbb0(%rbp),%rax
    fce3:	48 c7 00 00 00 00 00 	movq   $0x0,(%rax)
    fcea:	8b 05 34 73 00 00    	mov    0x7334(%rip),%eax        # 17024 <g_11>
    fcf0:	83 f0 01             	xor    $0x1,%eax
    fcf3:	0f be d8             	movsbl %al,%ebx
    fcf6:	8b 85 cc f3 ff ff    	mov    -0xc34(%rbp),%eax
    fcfc:	0f be c0             	movsbl %al,%eax
    fcff:	be 01 00 00 00       	mov    $0x1,%esi
    fd04:	89 c7                	mov    %eax,%edi
    fd06:	e8 61 56 ff ff       	callq  536c <safe_rshift_func_int8_t_s_u>
    fd0b:	0f be c0             	movsbl %al,%eax
    fd0e:	89 de                	mov    %ebx,%esi
    fd10:	89 c7                	mov    %eax,%edi
    fd12:	e8 53 55 ff ff       	callq  526a <safe_div_func_int8_t_s_s>
    fd17:	0f be c0             	movsbl %al,%eax
    fd1a:	44 89 e2             	mov    %r12d,%edx
    fd1d:	21 c2                	and    %eax,%edx
    fd1f:	0f b6 05 42 76 00 00 	movzbl 0x7642(%rip),%eax        # 17368 <g_224>
    fd26:	0f be c0             	movsbl %al,%eax
    fd29:	39 c2                	cmp    %eax,%edx
    fd2b:	0f 94 c0             	sete   %al
    fd2e:	0f b6 c0             	movzbl %al,%eax
    fd31:	be a7 ff ff ff       	mov    $0xffffffa7,%esi
    fd36:	89 c7                	mov    %eax,%edi
    fd38:	e8 d5 54 ff ff       	callq  5212 <safe_mul_func_int8_t_s_s>
    fd3d:	48 0f be d0          	movsbq %al,%rdx
    fd41:	48 8b 05 18 76 00 00 	mov    0x7618(%rip),%rax        # 17360 <g_214>
    fd48:	48 39 c2             	cmp    %rax,%rdx
    fd4b:	76 11                	jbe    fd5e <func_59+0x138f>
    fd4d:	8b 85 9c f3 ff ff    	mov    -0xc64(%rbp),%eax
    fd53:	85 c0                	test   %eax,%eax
    fd55:	74 07                	je     fd5e <func_59+0x138f>
    fd57:	b8 01 00 00 00       	mov    $0x1,%eax
    fd5c:	eb 05                	jmp    fd63 <func_59+0x1394>
    fd5e:	b8 00 00 00 00       	mov    $0x0,%eax
    fd63:	89 c2                	mov    %eax,%edx
    fd65:	48 8b 85 58 f4 ff ff 	mov    -0xba8(%rbp),%rax
    fd6c:	89 10                	mov    %edx,(%rax)
    fd6e:	0f b7 05 3b 75 00 00 	movzwl 0x753b(%rip),%eax        # 172b0 <g_156>
    fd75:	66 83 f8 01          	cmp    $0x1,%ax
    fd79:	48 8b 85 90 f3 ff ff 	mov    -0xc70(%rbp),%rax
    fd80:	8b 00                	mov    (%rax),%eax
    fd82:	85 c0                	test   %eax,%eax
    fd84:	74 13                	je     fd99 <func_59+0x13ca>
    fd86:	8b 05 30 75 00 00    	mov    0x7530(%rip),%eax        # 172bc <g_183>
    fd8c:	85 c0                	test   %eax,%eax
    fd8e:	0f 84 40 02 00 00    	je     ffd4 <func_59+0x1605>
    fd94:	e9 4e 04 00 00       	jmpq   101e7 <func_59+0x1818>
    fd99:	c7 85 d0 f3 ff ff 01 	movl   $0x1,-0xc30(%rbp)
    fda0:	00 00 00 
    fda3:	0f b6 05 be 75 00 00 	movzbl 0x75be(%rip),%eax        # 17368 <g_224>
    fdaa:	84 c0                	test   %al,%al
    fdac:	0f 85 29 04 00 00    	jne    101db <func_59+0x180c>
    fdb2:	66 c7 05 23 76 00 00 	movw   $0x0,0x7623(%rip)        # 173de <g_299>
    fdb9:	00 00 
    fdbb:	e9 ee 01 00 00       	jmpq   ffae <func_59+0x15df>
    fdc0:	48 8d 05 9d 72 00 00 	lea    0x729d(%rip),%rax        # 17064 <g_66>
    fdc7:	48 89 85 68 f4 ff ff 	mov    %rax,-0xb98(%rbp)
    fdce:	48 8d 85 70 f5 ff ff 	lea    -0xa90(%rbp),%rax
    fdd5:	48 83 c0 0c          	add    $0xc,%rax
    fdd9:	48 89 85 70 f4 ff ff 	mov    %rax,-0xb90(%rbp)
    fde0:	48 8d 05 a9 8d 00 00 	lea    0x8da9(%rip),%rax        # 18b90 <g_221+0x10>
    fde7:	48 89 85 10 f4 ff ff 	mov    %rax,-0xbf0(%rbp)
    fdee:	48 8d 85 10 f4 ff ff 	lea    -0xbf0(%rbp),%rax
    fdf5:	48 89 85 78 f4 ff ff 	mov    %rax,-0xb88(%rbp)
    fdfc:	c6 85 a2 f3 ff ff 04 	movb   $0x4,-0xc5e(%rbp)
    fe03:	c7 85 d4 f3 ff ff 01 	movl   $0x1,-0xc2c(%rbp)
    fe0a:	00 00 00 
    fe0d:	48 8b 05 b4 74 00 00 	mov    0x74b4(%rip),%rax        # 172c8 <g_196+0x8>
    fe14:	48 83 f8 01          	cmp    $0x1,%rax
    fe18:	0f 94 c0             	sete   %al
    fe1b:	0f b6 d0             	movzbl %al,%edx
    fe1e:	48 8b 85 90 f3 ff ff 	mov    -0xc70(%rbp),%rax
    fe25:	8b 00                	mov    (%rax),%eax
    fe27:	39 c2                	cmp    %eax,%edx
    fe29:	0f 95 c0             	setne  %al
    fe2c:	0f b6 d0             	movzbl %al,%edx
    fe2f:	48 8b 85 70 f4 ff ff 	mov    -0xb90(%rbp),%rax
    fe36:	89 10                	mov    %edx,(%rax)
    fe38:	48 8b 85 78 f4 ff ff 	mov    -0xb88(%rbp),%rax
    fe3f:	48 8d 15 3a 8d 00 00 	lea    0x8d3a(%rip),%rdx        # 18b80 <g_221>
    fe46:	48 89 10             	mov    %rdx,(%rax)
    fe49:	c7 05 61 74 00 00 00 	movl   $0x0,0x7461(%rip)        # 172b4 <g_159>
    fe50:	00 00 00 
    fe53:	e9 36 01 00 00       	jmpq   ff8e <func_59+0x15bf>
    fe58:	48 8d 85 a0 f3 ff ff 	lea    -0xc60(%rbp),%rax
    fe5f:	48 89 85 80 f4 ff ff 	mov    %rax,-0xb80(%rbp)
    fe66:	c7 85 d8 f3 ff ff fb 	movl   $0xfffffffb,-0xc28(%rbp)
    fe6d:	ff ff ff 
    fe70:	48 8b 85 80 f4 ff ff 	mov    -0xb80(%rbp),%rax
    fe77:	c6 00 ba             	movb   $0xba,(%rax)
    fe7a:	0f b6 85 98 f3 ff ff 	movzbl -0xc68(%rbp),%eax
    fe81:	0f be d8             	movsbl %al,%ebx
    fe84:	0f b6 05 a5 71 00 00 	movzbl 0x71a5(%rip),%eax        # 17030 <g_26>
    fe8b:	0f be d0             	movsbl %al,%edx
    fe8e:	0f b6 85 a2 f3 ff ff 	movzbl -0xc5e(%rbp),%eax
    fe95:	0f be c0             	movsbl %al,%eax
    fe98:	89 d6                	mov    %edx,%esi
    fe9a:	89 c7                	mov    %eax,%edi
    fe9c:	e8 cb 54 ff ff       	callq  536c <safe_rshift_func_int8_t_s_u>
    fea1:	0f be d0             	movsbl %al,%edx
    fea4:	48 8b 85 70 f4 ff ff 	mov    -0xb90(%rbp),%rax
    feab:	89 10                	mov    %edx,(%rax)
    fead:	48 c7 85 38 f4 ff ff 	movq   $0x0,-0xbc8(%rbp)
    feb4:	00 00 00 00 
    feb8:	48 8b 85 60 f4 ff ff 	mov    -0xba0(%rbp),%rax
    febf:	48 3b 85 40 f4 ff ff 	cmp    -0xbc0(%rbp),%rax
    fec6:	0f 94 c0             	sete   %al
    fec9:	0f b6 d0             	movzbl %al,%edx
    fecc:	8b 85 04 f9 ff ff    	mov    -0x6fc(%rbp),%eax
    fed2:	09 d0                	or     %edx,%eax
    fed4:	89 85 04 f9 ff ff    	mov    %eax,-0x6fc(%rbp)
    feda:	48 8b 85 88 f3 ff ff 	mov    -0xc78(%rbp),%rax
    fee1:	0f be c0             	movsbl %al,%eax
    fee4:	89 de                	mov    %ebx,%esi
    fee6:	89 c7                	mov    %eax,%edi
    fee8:	e8 25 53 ff ff       	callq  5212 <safe_mul_func_int8_t_s_s>
    feed:	0f be d0             	movsbl %al,%edx
    fef0:	48 8b 85 90 f3 ff ff 	mov    -0xc70(%rbp),%rax
    fef7:	8b 00                	mov    (%rax),%eax
    fef9:	89 c1                	mov    %eax,%ecx
    fefb:	48 8b 85 78 f4 ff ff 	mov    -0xb88(%rbp),%rax
    ff02:	48 8b 00             	mov    (%rax),%rax
    ff05:	48 8b 00             	mov    (%rax),%rax
    ff08:	f7 d1                	not    %ecx
    ff0a:	66 89 08             	mov    %cx,(%rax)
    ff0d:	0f b7 00             	movzwl (%rax),%eax
    ff10:	98                   	cwtl   
    ff11:	89 d6                	mov    %edx,%esi
    ff13:	89 c7                	mov    %eax,%edi
    ff15:	e8 fc 54 ff ff       	callq  5416 <safe_mod_func_int16_t_s_s>
    ff1a:	98                   	cwtl   
    ff1b:	8b 15 9b 73 00 00    	mov    0x739b(%rip),%edx        # 172bc <g_183>
    ff21:	89 c6                	mov    %eax,%esi
    ff23:	89 d7                	mov    %edx,%edi
    ff25:	e8 d3 5f ff ff       	callq  5efd <safe_mod_func_uint32_t_u_u>
    ff2a:	3d ba 00 00 00       	cmp    $0xba,%eax
    ff2f:	0f 97 c0             	seta   %al
    ff32:	0f b6 d0             	movzbl %al,%edx
    ff35:	0f b6 85 98 f3 ff ff 	movzbl -0xc68(%rbp),%eax
    ff3c:	48 0f be c0          	movsbq %al,%rax
    ff40:	48 39 c2             	cmp    %rax,%rdx
    ff43:	8b 85 d8 f3 ff ff    	mov    -0xc28(%rbp),%eax
    ff49:	98                   	cwtl   
    ff4a:	be 07 00 00 00       	mov    $0x7,%esi
    ff4f:	89 c7                	mov    %eax,%edi
    ff51:	e8 0d 56 ff ff       	callq  5563 <safe_rshift_func_int16_t_s_u>
    ff56:	8b 85 d4 f3 ff ff    	mov    -0xc2c(%rbp),%eax
    ff5c:	48 98                	cltq   
    ff5e:	48 39 85 88 f3 ff ff 	cmp    %rax,-0xc78(%rbp)
    ff65:	0f 94 c0             	sete   %al
    ff68:	0f b6 c0             	movzbl %al,%eax
    ff6b:	f7 d0                	not    %eax
    ff6d:	89 85 9c f3 ff ff    	mov    %eax,-0xc64(%rbp)
    ff73:	8b 05 3b 73 00 00    	mov    0x733b(%rip),%eax        # 172b4 <g_159>
    ff79:	48 98                	cltq   
    ff7b:	be 04 00 00 00       	mov    $0x4,%esi
    ff80:	48 89 c7             	mov    %rax,%rdi
    ff83:	e8 c3 60 ff ff       	callq  604b <safe_sub_func_uint64_t_u_u>
    ff88:	89 05 26 73 00 00    	mov    %eax,0x7326(%rip)        # 172b4 <g_159>
    ff8e:	8b 05 20 73 00 00    	mov    0x7320(%rip),%eax        # 172b4 <g_159>
    ff94:	83 f8 e4             	cmp    $0xffffffe4,%eax
    ff97:	0f 84 bb fe ff ff    	je     fe58 <func_59+0x1489>
    ff9d:	0f b7 05 3a 74 00 00 	movzwl 0x743a(%rip),%eax        # 173de <g_299>
    ffa4:	83 c0 01             	add    $0x1,%eax
    ffa7:	66 89 05 30 74 00 00 	mov    %ax,0x7430(%rip)        # 173de <g_299>
    ffae:	0f b7 05 29 74 00 00 	movzwl 0x7429(%rip),%eax        # 173de <g_299>
    ffb5:	66 83 f8 19          	cmp    $0x19,%ax
    ffb9:	0f 8f 01 fe ff ff    	jg     fdc0 <func_59+0x13f1>
    ffbf:	0f b7 95 a6 f3 ff ff 	movzwl -0xc5a(%rbp),%edx
    ffc6:	8b 05 60 70 00 00    	mov    0x7060(%rip),%eax        # 1702c <g_20>
    ffcc:	21 d0                	and    %edx,%eax
    ffce:	89 05 58 70 00 00    	mov    %eax,0x7058(%rip)        # 1702c <g_20>
    ffd4:	c7 85 9c f3 ff ff 00 	movl   $0x0,-0xc64(%rbp)
    ffdb:	00 00 00 
    ffde:	e9 d9 01 00 00       	jmpq   101bc <func_59+0x17ed>
    ffe3:	66 c7 85 a8 f3 ff ff 	movw   $0x4,-0xc58(%rbp)
    ffea:	04 00 
    ffec:	8b 05 ca 72 00 00    	mov    0x72ca(%rip),%eax        # 172bc <g_183>
    fff2:	85 c0                	test   %eax,%eax
    fff4:	0f 85 e7 01 00 00    	jne    101e1 <func_59+0x1812>
    fffa:	66 c7 05 d5 73 00 00 	movw   $0x0,0x73d5(%rip)        # 173d8 <g_232>
   10001:	00 00 
   10003:	e9 94 01 00 00       	jmpq   1019c <func_59+0x17cd>
   10008:	48 8d 85 70 f5 ff ff 	lea    -0xa90(%rbp),%rax
   1000f:	48 83 c0 0c          	add    $0xc,%rax
   10013:	48 89 85 88 f4 ff ff 	mov    %rax,-0xb78(%rbp)
   1001a:	c6 85 a0 f3 ff ff 09 	movb   $0x9,-0xc60(%rbp)
   10021:	e9 47 01 00 00       	jmpq   1016d <func_59+0x179e>
   10026:	48 8d 05 39 70 00 00 	lea    0x7039(%rip),%rax        # 17066 <g_69>
   1002d:	48 89 85 90 f4 ff ff 	mov    %rax,-0xb70(%rbp)
   10034:	48 8d 85 50 f8 ff ff 	lea    -0x7b0(%rbp),%rax
   1003b:	48 05 f4 00 00 00    	add    $0xf4,%rax
   10041:	48 89 85 10 f4 ff ff 	mov    %rax,-0xbf0(%rbp)
   10048:	48 8d 05 dd 6f 00 00 	lea    0x6fdd(%rip),%rax        # 1702c <g_20>
   1004f:	48 89 85 98 f4 ff ff 	mov    %rax,-0xb68(%rbp)
   10056:	48 8d 85 10 f4 ff ff 	lea    -0xbf0(%rbp),%rax
   1005d:	48 89 85 30 f7 ff ff 	mov    %rax,-0x8d0(%rbp)
   10064:	48 8d 85 10 f4 ff ff 	lea    -0xbf0(%rbp),%rax
   1006b:	48 89 85 38 f7 ff ff 	mov    %rax,-0x8c8(%rbp)
   10072:	48 8d 85 10 f4 ff ff 	lea    -0xbf0(%rbp),%rax
   10079:	48 89 85 40 f7 ff ff 	mov    %rax,-0x8c0(%rbp)
   10080:	48 8d 85 10 f4 ff ff 	lea    -0xbf0(%rbp),%rax
   10087:	48 89 85 48 f7 ff ff 	mov    %rax,-0x8b8(%rbp)
   1008e:	48 8b 85 90 f4 ff ff 	mov    -0xb70(%rbp),%rax
   10095:	66 c7 00 07 00       	movw   $0x7,(%rax)
   1009a:	8b 85 9c f3 ff ff    	mov    -0xc64(%rbp),%eax
   100a0:	48 63 d0             	movslq %eax,%rdx
   100a3:	48 83 bd 88 f4 ff ff 	cmpq   $0x0,-0xb78(%rbp)
   100aa:	00 
   100ab:	0f 94 c0             	sete   %al
   100ae:	0f b6 c8             	movzbl %al,%ecx
   100b1:	0f b7 85 a8 f3 ff ff 	movzwl -0xc58(%rbp),%eax
   100b8:	21 c8                	and    %ecx,%eax
   100ba:	48 98                	cltq   
   100bc:	48 89 d6             	mov    %rdx,%rsi
   100bf:	48 89 c7             	mov    %rax,%rdi
   100c2:	e8 84 5f ff ff       	callq  604b <safe_sub_func_uint64_t_u_u>
   100c7:	48 8b 85 88 f4 ff ff 	mov    -0xb78(%rbp),%rax
   100ce:	8b 00                	mov    (%rax),%eax
   100d0:	98                   	cwtl   
   100d1:	be 0a 00 00 00       	mov    $0xa,%esi
   100d6:	89 c7                	mov    %eax,%edi
   100d8:	e8 04 54 ff ff       	callq  54e1 <safe_lshift_func_int16_t_s_u>
   100dd:	66 83 f8 ff          	cmp    $0xffff,%ax
   100e1:	74 07                	je     100ea <func_59+0x171b>
   100e3:	b8 01 00 00 00       	mov    $0x1,%eax
   100e8:	eb 05                	jmp    100ef <func_59+0x1720>
   100ea:	b8 00 00 00 00       	mov    $0x0,%eax
   100ef:	98                   	cwtl   
   100f0:	be 07 00 00 00       	mov    $0x7,%esi
   100f5:	89 c7                	mov    %eax,%edi
   100f7:	e8 e5 53 ff ff       	callq  54e1 <safe_lshift_func_int16_t_s_u>
   100fc:	66 85 c0             	test   %ax,%ax
   100ff:	be 00 00 00 00       	mov    $0x0,%esi
   10104:	bf ff 00 00 00       	mov    $0xff,%edi
   10109:	e8 4c 5a ff ff       	callq  5b5a <safe_add_func_uint8_t_u_u>
   1010e:	0f b6 c0             	movzbl %al,%eax
   10111:	be 01 00 00 00       	mov    $0x1,%esi
   10116:	89 c7                	mov    %eax,%edi
   10118:	e8 af 55 ff ff       	callq  56cc <safe_mod_func_int32_t_s_s>
   1011d:	c1 e8 1f             	shr    $0x1f,%eax
   10120:	0f b6 d0             	movzbl %al,%edx
   10123:	8b 05 bb 72 00 00    	mov    0x72bb(%rip),%eax        # 173e4 <g_326>
   10129:	39 c2                	cmp    %eax,%edx
   1012b:	0f 95 c0             	setne  %al
   1012e:	0f b6 d0             	movzbl %al,%edx
   10131:	8b 05 f5 6e 00 00    	mov    0x6ef5(%rip),%eax        # 1702c <g_20>
   10137:	89 d1                	mov    %edx,%ecx
   10139:	21 c1                	and    %eax,%ecx
   1013b:	48 8b 85 10 f4 ff ff 	mov    -0xbf0(%rbp),%rax
   10142:	8b 10                	mov    (%rax),%edx
   10144:	48 8b 85 10 f4 ff ff 	mov    -0xbf0(%rbp),%rax
   1014b:	21 ca                	and    %ecx,%edx
   1014d:	89 10                	mov    %edx,(%rax)
   1014f:	48 8b 85 98 f4 ff ff 	mov    -0xb68(%rbp),%rax
   10156:	48 89 05 43 8a 00 00 	mov    %rax,0x8a43(%rip)        # 18ba0 <g_409>
   1015d:	0f b6 85 a0 f3 ff ff 	movzbl -0xc60(%rbp),%eax
   10164:	83 c0 01             	add    $0x1,%eax
   10167:	88 85 a0 f3 ff ff    	mov    %al,-0xc60(%rbp)
   1016d:	0f b6 85 a0 f3 ff ff 	movzbl -0xc60(%rbp),%eax
   10174:	3c 32                	cmp    $0x32,%al
   10176:	0f 87 aa fe ff ff    	ja     10026 <func_59+0x1657>
   1017c:	0f b7 05 55 72 00 00 	movzwl 0x7255(%rip),%eax        # 173d8 <g_232>
   10183:	0f b6 c0             	movzbl %al,%eax
   10186:	be 02 00 00 00       	mov    $0x2,%esi
   1018b:	89 c7                	mov    %eax,%edi
   1018d:	e8 c8 59 ff ff       	callq  5b5a <safe_add_func_uint8_t_u_u>
   10192:	0f b6 c0             	movzbl %al,%eax
   10195:	66 89 05 3c 72 00 00 	mov    %ax,0x723c(%rip)        # 173d8 <g_232>
   1019c:	0f b7 05 35 72 00 00 	movzwl 0x7235(%rip),%eax        # 173d8 <g_232>
   101a3:	66 83 f8 1a          	cmp    $0x1a,%ax
   101a7:	0f 85 5b fe ff ff    	jne    10008 <func_59+0x1639>
   101ad:	8b 85 9c f3 ff ff    	mov    -0xc64(%rbp),%eax
   101b3:	83 e8 01             	sub    $0x1,%eax
   101b6:	89 85 9c f3 ff ff    	mov    %eax,-0xc64(%rbp)
   101bc:	8b 85 9c f3 ff ff    	mov    -0xc64(%rbp),%eax
   101c2:	83 f8 fc             	cmp    $0xfffffffc,%eax
   101c5:	0f 85 18 fe ff ff    	jne    ffe3 <func_59+0x1614>
   101cb:	0f b6 85 98 f3 ff ff 	movzbl -0xc68(%rbp),%eax
   101d2:	48 0f be c0          	movsbq %al,%rax
   101d6:	e9 aa 0e 00 00       	jmpq   11085 <func_59+0x26b6>
   101db:	90                   	nop
   101dc:	e9 5b f6 ff ff       	jmpq   f83c <func_59+0xe6d>
   101e1:	90                   	nop
   101e2:	e9 55 f6 ff ff       	jmpq   f83c <func_59+0xe6d>
   101e7:	c6 85 a0 f3 ff ff 00 	movb   $0x0,-0xc60(%rbp)
   101ee:	e9 64 0e 00 00       	jmpq   11057 <func_59+0x2688>
   101f3:	48 8d 05 c2 70 00 00 	lea    0x70c2(%rip),%rax        # 172bc <g_183>
   101fa:	48 89 85 48 f5 ff ff 	mov    %rax,-0xab8(%rbp)
   10201:	48 8d 05 ac 70 00 00 	lea    0x70ac(%rip),%rax        # 172b4 <g_159>
   10208:	48 89 85 50 f5 ff ff 	mov    %rax,-0xab0(%rbp)
   1020f:	48 8d 05 16 6e 00 00 	lea    0x6e16(%rip),%rax        # 1702c <g_20>
   10216:	48 89 85 58 f5 ff ff 	mov    %rax,-0xaa8(%rbp)
   1021d:	48 8d 05 98 70 00 00 	lea    0x7098(%rip),%rax        # 172bc <g_183>
   10224:	48 89 85 b0 f5 ff ff 	mov    %rax,-0xa50(%rbp)
   1022b:	48 8d 05 8a 70 00 00 	lea    0x708a(%rip),%rax        # 172bc <g_183>
   10232:	48 89 85 b8 f5 ff ff 	mov    %rax,-0xa48(%rbp)
   10239:	48 8d 05 7c 70 00 00 	lea    0x707c(%rip),%rax        # 172bc <g_183>
   10240:	48 89 85 c0 f5 ff ff 	mov    %rax,-0xa40(%rbp)
   10247:	48 8d 05 6e 70 00 00 	lea    0x706e(%rip),%rax        # 172bc <g_183>
   1024e:	48 89 85 c8 f5 ff ff 	mov    %rax,-0xa38(%rbp)
   10255:	48 8d 05 60 70 00 00 	lea    0x7060(%rip),%rax        # 172bc <g_183>
   1025c:	48 89 85 d0 f5 ff ff 	mov    %rax,-0xa30(%rbp)
   10263:	48 8d 05 52 70 00 00 	lea    0x7052(%rip),%rax        # 172bc <g_183>
   1026a:	48 89 85 d8 f5 ff ff 	mov    %rax,-0xa28(%rbp)
   10271:	48 8d 05 44 70 00 00 	lea    0x7044(%rip),%rax        # 172bc <g_183>
   10278:	48 89 85 e0 f5 ff ff 	mov    %rax,-0xa20(%rbp)
   1027f:	48 8d 85 70 f5 ff ff 	lea    -0xa90(%rbp),%rax
   10286:	48 83 c0 0c          	add    $0xc,%rax
   1028a:	48 89 85 60 f5 ff ff 	mov    %rax,-0xaa0(%rbp)
   10291:	48 c7 85 10 f4 ff ff 	movq   $0x0,-0xbf0(%rbp)
   10298:	00 00 00 00 
   1029c:	48 8d 85 10 f4 ff ff 	lea    -0xbf0(%rbp),%rax
   102a3:	48 89 85 50 f8 ff ff 	mov    %rax,-0x7b0(%rbp)
   102aa:	48 8d 85 10 f4 ff ff 	lea    -0xbf0(%rbp),%rax
   102b1:	48 89 85 58 f8 ff ff 	mov    %rax,-0x7a8(%rbp)
   102b8:	48 8d 85 10 f4 ff ff 	lea    -0xbf0(%rbp),%rax
   102bf:	48 89 85 60 f8 ff ff 	mov    %rax,-0x7a0(%rbp)
   102c6:	48 8d 85 10 f4 ff ff 	lea    -0xbf0(%rbp),%rax
   102cd:	48 89 85 68 f8 ff ff 	mov    %rax,-0x798(%rbp)
   102d4:	48 8d 85 10 f4 ff ff 	lea    -0xbf0(%rbp),%rax
   102db:	48 89 85 70 f8 ff ff 	mov    %rax,-0x790(%rbp)
   102e2:	48 8d 85 10 f4 ff ff 	lea    -0xbf0(%rbp),%rax
   102e9:	48 89 85 78 f8 ff ff 	mov    %rax,-0x788(%rbp)
   102f0:	48 8d 85 10 f4 ff ff 	lea    -0xbf0(%rbp),%rax
   102f7:	48 89 85 80 f8 ff ff 	mov    %rax,-0x780(%rbp)
   102fe:	48 8d 85 10 f4 ff ff 	lea    -0xbf0(%rbp),%rax
   10305:	48 89 85 88 f8 ff ff 	mov    %rax,-0x778(%rbp)
   1030c:	48 c7 85 90 f8 ff ff 	movq   $0x0,-0x770(%rbp)
   10313:	00 00 00 00 
   10317:	48 8d 85 10 f4 ff ff 	lea    -0xbf0(%rbp),%rax
   1031e:	48 89 85 98 f8 ff ff 	mov    %rax,-0x768(%rbp)
   10325:	48 c7 85 a0 f8 ff ff 	movq   $0x0,-0x760(%rbp)
   1032c:	00 00 00 00 
   10330:	48 8d 85 10 f4 ff ff 	lea    -0xbf0(%rbp),%rax
   10337:	48 89 85 a8 f8 ff ff 	mov    %rax,-0x758(%rbp)
   1033e:	48 8d 85 10 f4 ff ff 	lea    -0xbf0(%rbp),%rax
   10345:	48 89 85 b0 f8 ff ff 	mov    %rax,-0x750(%rbp)
   1034c:	48 8d 85 10 f4 ff ff 	lea    -0xbf0(%rbp),%rax
   10353:	48 89 85 b8 f8 ff ff 	mov    %rax,-0x748(%rbp)
   1035a:	48 8d 85 10 f4 ff ff 	lea    -0xbf0(%rbp),%rax
   10361:	48 89 85 c0 f8 ff ff 	mov    %rax,-0x740(%rbp)
   10368:	48 8d 85 10 f4 ff ff 	lea    -0xbf0(%rbp),%rax
   1036f:	48 89 85 c8 f8 ff ff 	mov    %rax,-0x738(%rbp)
   10376:	48 c7 85 d0 f8 ff ff 	movq   $0x0,-0x730(%rbp)
   1037d:	00 00 00 00 
   10381:	48 c7 85 d8 f8 ff ff 	movq   $0x0,-0x728(%rbp)
   10388:	00 00 00 00 
   1038c:	48 8d 85 10 f4 ff ff 	lea    -0xbf0(%rbp),%rax
   10393:	48 89 85 e0 f8 ff ff 	mov    %rax,-0x720(%rbp)
   1039a:	48 8d 85 10 f4 ff ff 	lea    -0xbf0(%rbp),%rax
   103a1:	48 89 85 e8 f8 ff ff 	mov    %rax,-0x718(%rbp)
   103a8:	48 8d 85 10 f4 ff ff 	lea    -0xbf0(%rbp),%rax
   103af:	48 89 85 f0 f8 ff ff 	mov    %rax,-0x710(%rbp)
   103b6:	48 8d 85 10 f4 ff ff 	lea    -0xbf0(%rbp),%rax
   103bd:	48 89 85 f8 f8 ff ff 	mov    %rax,-0x708(%rbp)
   103c4:	48 8d 85 10 f4 ff ff 	lea    -0xbf0(%rbp),%rax
   103cb:	48 89 85 00 f9 ff ff 	mov    %rax,-0x700(%rbp)
   103d2:	48 8d 85 10 f4 ff ff 	lea    -0xbf0(%rbp),%rax
   103d9:	48 89 85 08 f9 ff ff 	mov    %rax,-0x6f8(%rbp)
   103e0:	48 8d 85 10 f4 ff ff 	lea    -0xbf0(%rbp),%rax
   103e7:	48 89 85 10 f9 ff ff 	mov    %rax,-0x6f0(%rbp)
   103ee:	48 8d 85 10 f4 ff ff 	lea    -0xbf0(%rbp),%rax
   103f5:	48 89 85 18 f9 ff ff 	mov    %rax,-0x6e8(%rbp)
   103fc:	48 8d 85 10 f4 ff ff 	lea    -0xbf0(%rbp),%rax
   10403:	48 89 85 20 f9 ff ff 	mov    %rax,-0x6e0(%rbp)
   1040a:	48 8d 85 10 f4 ff ff 	lea    -0xbf0(%rbp),%rax
   10411:	48 89 85 28 f9 ff ff 	mov    %rax,-0x6d8(%rbp)
   10418:	48 8d 85 10 f4 ff ff 	lea    -0xbf0(%rbp),%rax
   1041f:	48 89 85 30 f9 ff ff 	mov    %rax,-0x6d0(%rbp)
   10426:	48 8d 85 10 f4 ff ff 	lea    -0xbf0(%rbp),%rax
   1042d:	48 89 85 38 f9 ff ff 	mov    %rax,-0x6c8(%rbp)
   10434:	48 8d 85 10 f4 ff ff 	lea    -0xbf0(%rbp),%rax
   1043b:	48 89 85 40 f9 ff ff 	mov    %rax,-0x6c0(%rbp)
   10442:	48 8d 85 10 f4 ff ff 	lea    -0xbf0(%rbp),%rax
   10449:	48 89 85 48 f9 ff ff 	mov    %rax,-0x6b8(%rbp)
   10450:	48 8d 85 10 f4 ff ff 	lea    -0xbf0(%rbp),%rax
   10457:	48 89 85 50 f9 ff ff 	mov    %rax,-0x6b0(%rbp)
   1045e:	48 8d 85 10 f4 ff ff 	lea    -0xbf0(%rbp),%rax
   10465:	48 89 85 58 f9 ff ff 	mov    %rax,-0x6a8(%rbp)
   1046c:	48 8d 85 10 f4 ff ff 	lea    -0xbf0(%rbp),%rax
   10473:	48 89 85 60 f9 ff ff 	mov    %rax,-0x6a0(%rbp)
   1047a:	48 8d 85 10 f4 ff ff 	lea    -0xbf0(%rbp),%rax
   10481:	48 89 85 68 f9 ff ff 	mov    %rax,-0x698(%rbp)
   10488:	48 c7 85 70 f9 ff ff 	movq   $0x0,-0x690(%rbp)
   1048f:	00 00 00 00 
   10493:	48 8d 85 10 f4 ff ff 	lea    -0xbf0(%rbp),%rax
   1049a:	48 89 85 78 f9 ff ff 	mov    %rax,-0x688(%rbp)
   104a1:	48 8d 85 10 f4 ff ff 	lea    -0xbf0(%rbp),%rax
   104a8:	48 89 85 80 f9 ff ff 	mov    %rax,-0x680(%rbp)
   104af:	48 8d 85 10 f4 ff ff 	lea    -0xbf0(%rbp),%rax
   104b6:	48 89 85 88 f9 ff ff 	mov    %rax,-0x678(%rbp)
   104bd:	48 8d 85 10 f4 ff ff 	lea    -0xbf0(%rbp),%rax
   104c4:	48 89 85 90 f9 ff ff 	mov    %rax,-0x670(%rbp)
   104cb:	48 8d 85 10 f4 ff ff 	lea    -0xbf0(%rbp),%rax
   104d2:	48 89 85 98 f9 ff ff 	mov    %rax,-0x668(%rbp)
   104d9:	48 8d 85 10 f4 ff ff 	lea    -0xbf0(%rbp),%rax
   104e0:	48 89 85 a0 f9 ff ff 	mov    %rax,-0x660(%rbp)
   104e7:	48 8d 85 10 f4 ff ff 	lea    -0xbf0(%rbp),%rax
   104ee:	48 89 85 a8 f9 ff ff 	mov    %rax,-0x658(%rbp)
   104f5:	48 8d 85 10 f4 ff ff 	lea    -0xbf0(%rbp),%rax
   104fc:	48 89 85 b0 f9 ff ff 	mov    %rax,-0x650(%rbp)
   10503:	48 c7 85 b8 f9 ff ff 	movq   $0x0,-0x648(%rbp)
   1050a:	00 00 00 00 
   1050e:	48 c7 85 c0 f9 ff ff 	movq   $0x0,-0x640(%rbp)
   10515:	00 00 00 00 
   10519:	48 8d 85 10 f4 ff ff 	lea    -0xbf0(%rbp),%rax
   10520:	48 89 85 c8 f9 ff ff 	mov    %rax,-0x638(%rbp)
   10527:	48 c7 85 d0 f9 ff ff 	movq   $0x0,-0x630(%rbp)
   1052e:	00 00 00 00 
   10532:	48 8d 85 10 f4 ff ff 	lea    -0xbf0(%rbp),%rax
   10539:	48 89 85 d8 f9 ff ff 	mov    %rax,-0x628(%rbp)
   10540:	48 c7 85 e0 f9 ff ff 	movq   $0x0,-0x620(%rbp)
   10547:	00 00 00 00 
   1054b:	48 8d 85 10 f4 ff ff 	lea    -0xbf0(%rbp),%rax
   10552:	48 89 85 e8 f9 ff ff 	mov    %rax,-0x618(%rbp)
   10559:	48 8d 85 10 f4 ff ff 	lea    -0xbf0(%rbp),%rax
   10560:	48 89 85 f0 f9 ff ff 	mov    %rax,-0x610(%rbp)
   10567:	48 8d 85 10 f4 ff ff 	lea    -0xbf0(%rbp),%rax
   1056e:	48 89 85 f8 f9 ff ff 	mov    %rax,-0x608(%rbp)
   10575:	48 c7 85 00 fa ff ff 	movq   $0x0,-0x600(%rbp)
   1057c:	00 00 00 00 
   10580:	48 8d 85 10 f4 ff ff 	lea    -0xbf0(%rbp),%rax
   10587:	48 89 85 08 fa ff ff 	mov    %rax,-0x5f8(%rbp)
   1058e:	48 8d 85 10 f4 ff ff 	lea    -0xbf0(%rbp),%rax
   10595:	48 89 85 10 fa ff ff 	mov    %rax,-0x5f0(%rbp)
   1059c:	48 8d 85 10 f4 ff ff 	lea    -0xbf0(%rbp),%rax
   105a3:	48 89 85 18 fa ff ff 	mov    %rax,-0x5e8(%rbp)
   105aa:	48 8d 85 10 f4 ff ff 	lea    -0xbf0(%rbp),%rax
   105b1:	48 89 85 20 fa ff ff 	mov    %rax,-0x5e0(%rbp)
   105b8:	48 8d 85 10 f4 ff ff 	lea    -0xbf0(%rbp),%rax
   105bf:	48 89 85 28 fa ff ff 	mov    %rax,-0x5d8(%rbp)
   105c6:	48 8d 85 10 f4 ff ff 	lea    -0xbf0(%rbp),%rax
   105cd:	48 89 85 30 fa ff ff 	mov    %rax,-0x5d0(%rbp)
   105d4:	48 8d 85 10 f4 ff ff 	lea    -0xbf0(%rbp),%rax
   105db:	48 89 85 38 fa ff ff 	mov    %rax,-0x5c8(%rbp)
   105e2:	48 8d 85 10 f4 ff ff 	lea    -0xbf0(%rbp),%rax
   105e9:	48 89 85 40 fa ff ff 	mov    %rax,-0x5c0(%rbp)
   105f0:	48 8d 85 10 f4 ff ff 	lea    -0xbf0(%rbp),%rax
   105f7:	48 89 85 48 fa ff ff 	mov    %rax,-0x5b8(%rbp)
   105fe:	48 8d 85 10 f4 ff ff 	lea    -0xbf0(%rbp),%rax
   10605:	48 89 85 50 fa ff ff 	mov    %rax,-0x5b0(%rbp)
   1060c:	48 8d 85 10 f4 ff ff 	lea    -0xbf0(%rbp),%rax
   10613:	48 89 85 58 fa ff ff 	mov    %rax,-0x5a8(%rbp)
   1061a:	48 c7 85 60 fa ff ff 	movq   $0x0,-0x5a0(%rbp)
   10621:	00 00 00 00 
   10625:	48 8d 85 10 f4 ff ff 	lea    -0xbf0(%rbp),%rax
   1062c:	48 89 85 68 fa ff ff 	mov    %rax,-0x598(%rbp)
   10633:	48 8d 85 10 f4 ff ff 	lea    -0xbf0(%rbp),%rax
   1063a:	48 89 85 70 fa ff ff 	mov    %rax,-0x590(%rbp)
   10641:	48 8d 85 10 f4 ff ff 	lea    -0xbf0(%rbp),%rax
   10648:	48 89 85 78 fa ff ff 	mov    %rax,-0x588(%rbp)
   1064f:	48 c7 85 80 fa ff ff 	movq   $0x0,-0x580(%rbp)
   10656:	00 00 00 00 
   1065a:	48 8d 85 10 f4 ff ff 	lea    -0xbf0(%rbp),%rax
   10661:	48 89 85 88 fa ff ff 	mov    %rax,-0x578(%rbp)
   10668:	48 c7 85 90 fa ff ff 	movq   $0x0,-0x570(%rbp)
   1066f:	00 00 00 00 
   10673:	48 8d 85 10 f4 ff ff 	lea    -0xbf0(%rbp),%rax
   1067a:	48 89 85 98 fa ff ff 	mov    %rax,-0x568(%rbp)
   10681:	48 c7 85 a0 fa ff ff 	movq   $0x0,-0x560(%rbp)
   10688:	00 00 00 00 
   1068c:	48 c7 85 a8 fa ff ff 	movq   $0x0,-0x558(%rbp)
   10693:	00 00 00 00 
   10697:	48 8d 85 10 f4 ff ff 	lea    -0xbf0(%rbp),%rax
   1069e:	48 89 85 b0 fa ff ff 	mov    %rax,-0x550(%rbp)
   106a5:	48 8d 85 10 f4 ff ff 	lea    -0xbf0(%rbp),%rax
   106ac:	48 89 85 b8 fa ff ff 	mov    %rax,-0x548(%rbp)
   106b3:	48 8d 85 10 f4 ff ff 	lea    -0xbf0(%rbp),%rax
   106ba:	48 89 85 c0 fa ff ff 	mov    %rax,-0x540(%rbp)
   106c1:	48 c7 85 c8 fa ff ff 	movq   $0x0,-0x538(%rbp)
   106c8:	00 00 00 00 
   106cc:	48 8d 85 10 f4 ff ff 	lea    -0xbf0(%rbp),%rax
   106d3:	48 89 85 d0 fa ff ff 	mov    %rax,-0x530(%rbp)
   106da:	48 8d 85 10 f4 ff ff 	lea    -0xbf0(%rbp),%rax
   106e1:	48 89 85 d8 fa ff ff 	mov    %rax,-0x528(%rbp)
   106e8:	48 8d 85 10 f4 ff ff 	lea    -0xbf0(%rbp),%rax
   106ef:	48 89 85 e0 fa ff ff 	mov    %rax,-0x520(%rbp)
   106f6:	48 8d 85 10 f4 ff ff 	lea    -0xbf0(%rbp),%rax
   106fd:	48 89 85 e8 fa ff ff 	mov    %rax,-0x518(%rbp)
   10704:	48 c7 85 f0 fa ff ff 	movq   $0x0,-0x510(%rbp)
   1070b:	00 00 00 00 
   1070f:	48 8d 85 10 f4 ff ff 	lea    -0xbf0(%rbp),%rax
   10716:	48 89 85 f8 fa ff ff 	mov    %rax,-0x508(%rbp)
   1071d:	48 8d 85 10 f4 ff ff 	lea    -0xbf0(%rbp),%rax
   10724:	48 89 85 00 fb ff ff 	mov    %rax,-0x500(%rbp)
   1072b:	48 8d 85 10 f4 ff ff 	lea    -0xbf0(%rbp),%rax
   10732:	48 89 85 08 fb ff ff 	mov    %rax,-0x4f8(%rbp)
   10739:	48 8d 85 10 f4 ff ff 	lea    -0xbf0(%rbp),%rax
   10740:	48 89 85 10 fb ff ff 	mov    %rax,-0x4f0(%rbp)
   10747:	48 8d 85 10 f4 ff ff 	lea    -0xbf0(%rbp),%rax
   1074e:	48 89 85 18 fb ff ff 	mov    %rax,-0x4e8(%rbp)
   10755:	48 8d 85 10 f4 ff ff 	lea    -0xbf0(%rbp),%rax
   1075c:	48 89 85 20 fb ff ff 	mov    %rax,-0x4e0(%rbp)
   10763:	48 8d 85 10 f4 ff ff 	lea    -0xbf0(%rbp),%rax
   1076a:	48 89 85 28 fb ff ff 	mov    %rax,-0x4d8(%rbp)
   10771:	48 8d 85 10 f4 ff ff 	lea    -0xbf0(%rbp),%rax
   10778:	48 89 85 30 fb ff ff 	mov    %rax,-0x4d0(%rbp)
   1077f:	48 8d 85 10 f4 ff ff 	lea    -0xbf0(%rbp),%rax
   10786:	48 89 85 38 fb ff ff 	mov    %rax,-0x4c8(%rbp)
   1078d:	48 8d 85 10 f4 ff ff 	lea    -0xbf0(%rbp),%rax
   10794:	48 89 85 40 fb ff ff 	mov    %rax,-0x4c0(%rbp)
   1079b:	48 8d 85 10 f4 ff ff 	lea    -0xbf0(%rbp),%rax
   107a2:	48 89 85 48 fb ff ff 	mov    %rax,-0x4b8(%rbp)
   107a9:	48 8d 85 10 f4 ff ff 	lea    -0xbf0(%rbp),%rax
   107b0:	48 89 85 50 fb ff ff 	mov    %rax,-0x4b0(%rbp)
   107b7:	48 8d 85 10 f4 ff ff 	lea    -0xbf0(%rbp),%rax
   107be:	48 89 85 58 fb ff ff 	mov    %rax,-0x4a8(%rbp)
   107c5:	48 c7 85 60 fb ff ff 	movq   $0x0,-0x4a0(%rbp)
   107cc:	00 00 00 00 
   107d0:	48 8d 85 10 f4 ff ff 	lea    -0xbf0(%rbp),%rax
   107d7:	48 89 85 68 fb ff ff 	mov    %rax,-0x498(%rbp)
   107de:	48 8d 85 10 f4 ff ff 	lea    -0xbf0(%rbp),%rax
   107e5:	48 89 85 70 fb ff ff 	mov    %rax,-0x490(%rbp)
   107ec:	48 c7 85 78 fb ff ff 	movq   $0x0,-0x488(%rbp)
   107f3:	00 00 00 00 
   107f7:	48 8d 85 10 f4 ff ff 	lea    -0xbf0(%rbp),%rax
   107fe:	48 89 85 80 fb ff ff 	mov    %rax,-0x480(%rbp)
   10805:	48 8d 85 10 f4 ff ff 	lea    -0xbf0(%rbp),%rax
   1080c:	48 89 85 88 fb ff ff 	mov    %rax,-0x478(%rbp)
   10813:	48 8d 85 10 f4 ff ff 	lea    -0xbf0(%rbp),%rax
   1081a:	48 89 85 90 fb ff ff 	mov    %rax,-0x470(%rbp)
   10821:	48 8d 85 10 f4 ff ff 	lea    -0xbf0(%rbp),%rax
   10828:	48 89 85 98 fb ff ff 	mov    %rax,-0x468(%rbp)
   1082f:	48 8d 85 10 f4 ff ff 	lea    -0xbf0(%rbp),%rax
   10836:	48 89 85 a0 fb ff ff 	mov    %rax,-0x460(%rbp)
   1083d:	48 8d 85 10 f4 ff ff 	lea    -0xbf0(%rbp),%rax
   10844:	48 89 85 a8 fb ff ff 	mov    %rax,-0x458(%rbp)
   1084b:	48 8d 85 10 f4 ff ff 	lea    -0xbf0(%rbp),%rax
   10852:	48 89 85 b0 fb ff ff 	mov    %rax,-0x450(%rbp)
   10859:	48 8d 85 10 f4 ff ff 	lea    -0xbf0(%rbp),%rax
   10860:	48 89 85 b8 fb ff ff 	mov    %rax,-0x448(%rbp)
   10867:	48 8d 85 10 f4 ff ff 	lea    -0xbf0(%rbp),%rax
   1086e:	48 89 85 c0 fb ff ff 	mov    %rax,-0x440(%rbp)
   10875:	48 8d 85 10 f4 ff ff 	lea    -0xbf0(%rbp),%rax
   1087c:	48 89 85 c8 fb ff ff 	mov    %rax,-0x438(%rbp)
   10883:	48 8d 85 10 f4 ff ff 	lea    -0xbf0(%rbp),%rax
   1088a:	48 89 85 d0 fb ff ff 	mov    %rax,-0x430(%rbp)
   10891:	48 8d 85 10 f4 ff ff 	lea    -0xbf0(%rbp),%rax
   10898:	48 89 85 d8 fb ff ff 	mov    %rax,-0x428(%rbp)
   1089f:	48 8d 85 10 f4 ff ff 	lea    -0xbf0(%rbp),%rax
   108a6:	48 89 85 e0 fb ff ff 	mov    %rax,-0x420(%rbp)
   108ad:	48 c7 85 e8 fb ff ff 	movq   $0x0,-0x418(%rbp)
   108b4:	00 00 00 00 
   108b8:	48 8d 85 10 f4 ff ff 	lea    -0xbf0(%rbp),%rax
   108bf:	48 89 85 f0 fb ff ff 	mov    %rax,-0x410(%rbp)
   108c6:	48 8d 85 10 f4 ff ff 	lea    -0xbf0(%rbp),%rax
   108cd:	48 89 85 f8 fb ff ff 	mov    %rax,-0x408(%rbp)
   108d4:	48 c7 85 00 fc ff ff 	movq   $0x0,-0x400(%rbp)
   108db:	00 00 00 00 
   108df:	48 8d 85 10 f4 ff ff 	lea    -0xbf0(%rbp),%rax
   108e6:	48 89 85 08 fc ff ff 	mov    %rax,-0x3f8(%rbp)
   108ed:	48 8d 85 10 f4 ff ff 	lea    -0xbf0(%rbp),%rax
   108f4:	48 89 85 10 fc ff ff 	mov    %rax,-0x3f0(%rbp)
   108fb:	48 c7 85 18 fc ff ff 	movq   $0x0,-0x3e8(%rbp)
   10902:	00 00 00 00 
   10906:	48 8d 85 10 f4 ff ff 	lea    -0xbf0(%rbp),%rax
   1090d:	48 89 85 20 fc ff ff 	mov    %rax,-0x3e0(%rbp)
   10914:	48 8d 85 10 f4 ff ff 	lea    -0xbf0(%rbp),%rax
   1091b:	48 89 85 28 fc ff ff 	mov    %rax,-0x3d8(%rbp)
   10922:	48 8d 85 10 f4 ff ff 	lea    -0xbf0(%rbp),%rax
   10929:	48 89 85 30 fc ff ff 	mov    %rax,-0x3d0(%rbp)
   10930:	48 8d 85 10 f4 ff ff 	lea    -0xbf0(%rbp),%rax
   10937:	48 89 85 38 fc ff ff 	mov    %rax,-0x3c8(%rbp)
   1093e:	48 8d 85 10 f4 ff ff 	lea    -0xbf0(%rbp),%rax
   10945:	48 89 85 40 fc ff ff 	mov    %rax,-0x3c0(%rbp)
   1094c:	48 8d 85 10 f4 ff ff 	lea    -0xbf0(%rbp),%rax
   10953:	48 89 85 48 fc ff ff 	mov    %rax,-0x3b8(%rbp)
   1095a:	48 8d 85 10 f4 ff ff 	lea    -0xbf0(%rbp),%rax
   10961:	48 89 85 50 fc ff ff 	mov    %rax,-0x3b0(%rbp)
   10968:	48 8d 85 10 f4 ff ff 	lea    -0xbf0(%rbp),%rax
   1096f:	48 89 85 58 fc ff ff 	mov    %rax,-0x3a8(%rbp)
   10976:	48 8d 85 10 f4 ff ff 	lea    -0xbf0(%rbp),%rax
   1097d:	48 89 85 60 fc ff ff 	mov    %rax,-0x3a0(%rbp)
   10984:	48 c7 85 68 fc ff ff 	movq   $0x0,-0x398(%rbp)
   1098b:	00 00 00 00 
   1098f:	48 8d 85 10 f4 ff ff 	lea    -0xbf0(%rbp),%rax
   10996:	48 89 85 70 fc ff ff 	mov    %rax,-0x390(%rbp)
   1099d:	48 8d 85 10 f4 ff ff 	lea    -0xbf0(%rbp),%rax
   109a4:	48 89 85 78 fc ff ff 	mov    %rax,-0x388(%rbp)
   109ab:	48 8d 85 10 f4 ff ff 	lea    -0xbf0(%rbp),%rax
   109b2:	48 89 85 80 fc ff ff 	mov    %rax,-0x380(%rbp)
   109b9:	48 c7 85 88 fc ff ff 	movq   $0x0,-0x378(%rbp)
   109c0:	00 00 00 00 
   109c4:	48 8d 85 10 f4 ff ff 	lea    -0xbf0(%rbp),%rax
   109cb:	48 89 85 90 fc ff ff 	mov    %rax,-0x370(%rbp)
   109d2:	48 8d 85 10 f4 ff ff 	lea    -0xbf0(%rbp),%rax
   109d9:	48 89 85 98 fc ff ff 	mov    %rax,-0x368(%rbp)
   109e0:	48 c7 85 a0 fc ff ff 	movq   $0x0,-0x360(%rbp)
   109e7:	00 00 00 00 
   109eb:	48 8d 85 10 f4 ff ff 	lea    -0xbf0(%rbp),%rax
   109f2:	48 89 85 a8 fc ff ff 	mov    %rax,-0x358(%rbp)
   109f9:	48 8d 85 10 f4 ff ff 	lea    -0xbf0(%rbp),%rax
   10a00:	48 89 85 b0 fc ff ff 	mov    %rax,-0x350(%rbp)
   10a07:	48 8d 85 10 f4 ff ff 	lea    -0xbf0(%rbp),%rax
   10a0e:	48 89 85 b8 fc ff ff 	mov    %rax,-0x348(%rbp)
   10a15:	48 8d 85 10 f4 ff ff 	lea    -0xbf0(%rbp),%rax
   10a1c:	48 89 85 c0 fc ff ff 	mov    %rax,-0x340(%rbp)
   10a23:	48 8d 85 10 f4 ff ff 	lea    -0xbf0(%rbp),%rax
   10a2a:	48 89 85 c8 fc ff ff 	mov    %rax,-0x338(%rbp)
   10a31:	48 c7 85 d0 fc ff ff 	movq   $0x0,-0x330(%rbp)
   10a38:	00 00 00 00 
   10a3c:	48 8d 85 10 f4 ff ff 	lea    -0xbf0(%rbp),%rax
   10a43:	48 89 85 d8 fc ff ff 	mov    %rax,-0x328(%rbp)
   10a4a:	48 8d 85 10 f4 ff ff 	lea    -0xbf0(%rbp),%rax
   10a51:	48 89 85 e0 fc ff ff 	mov    %rax,-0x320(%rbp)
   10a58:	48 c7 85 e8 fc ff ff 	movq   $0x0,-0x318(%rbp)
   10a5f:	00 00 00 00 
   10a63:	48 8d 85 10 f4 ff ff 	lea    -0xbf0(%rbp),%rax
   10a6a:	48 89 85 f0 fc ff ff 	mov    %rax,-0x310(%rbp)
   10a71:	48 8d 85 10 f4 ff ff 	lea    -0xbf0(%rbp),%rax
   10a78:	48 89 85 f8 fc ff ff 	mov    %rax,-0x308(%rbp)
   10a7f:	48 c7 85 00 fd ff ff 	movq   $0x0,-0x300(%rbp)
   10a86:	00 00 00 00 
   10a8a:	48 8d 85 10 f4 ff ff 	lea    -0xbf0(%rbp),%rax
   10a91:	48 89 85 08 fd ff ff 	mov    %rax,-0x2f8(%rbp)
   10a98:	48 8d 85 10 f4 ff ff 	lea    -0xbf0(%rbp),%rax
   10a9f:	48 89 85 10 fd ff ff 	mov    %rax,-0x2f0(%rbp)
   10aa6:	48 8d 85 10 f4 ff ff 	lea    -0xbf0(%rbp),%rax
   10aad:	48 89 85 18 fd ff ff 	mov    %rax,-0x2e8(%rbp)
   10ab4:	48 8d 85 10 f4 ff ff 	lea    -0xbf0(%rbp),%rax
   10abb:	48 89 85 20 fd ff ff 	mov    %rax,-0x2e0(%rbp)
   10ac2:	48 8d 85 10 f4 ff ff 	lea    -0xbf0(%rbp),%rax
   10ac9:	48 89 85 28 fd ff ff 	mov    %rax,-0x2d8(%rbp)
   10ad0:	48 c7 85 30 fd ff ff 	movq   $0x0,-0x2d0(%rbp)
   10ad7:	00 00 00 00 
   10adb:	48 8d 85 10 f4 ff ff 	lea    -0xbf0(%rbp),%rax
   10ae2:	48 89 85 38 fd ff ff 	mov    %rax,-0x2c8(%rbp)
   10ae9:	48 8d 85 10 f4 ff ff 	lea    -0xbf0(%rbp),%rax
   10af0:	48 89 85 40 fd ff ff 	mov    %rax,-0x2c0(%rbp)
   10af7:	48 c7 85 48 fd ff ff 	movq   $0x0,-0x2b8(%rbp)
   10afe:	00 00 00 00 
   10b02:	48 c7 85 50 fd ff ff 	movq   $0x0,-0x2b0(%rbp)
   10b09:	00 00 00 00 
   10b0d:	48 8d 85 10 f4 ff ff 	lea    -0xbf0(%rbp),%rax
   10b14:	48 89 85 58 fd ff ff 	mov    %rax,-0x2a8(%rbp)
   10b1b:	48 c7 85 60 fd ff ff 	movq   $0x0,-0x2a0(%rbp)
   10b22:	00 00 00 00 
   10b26:	48 c7 85 68 fd ff ff 	movq   $0x0,-0x298(%rbp)
   10b2d:	00 00 00 00 
   10b31:	48 8d 85 10 f4 ff ff 	lea    -0xbf0(%rbp),%rax
   10b38:	48 89 85 70 fd ff ff 	mov    %rax,-0x290(%rbp)
   10b3f:	48 8d 85 10 f4 ff ff 	lea    -0xbf0(%rbp),%rax
   10b46:	48 89 85 78 fd ff ff 	mov    %rax,-0x288(%rbp)
   10b4d:	48 8d 85 10 f4 ff ff 	lea    -0xbf0(%rbp),%rax
   10b54:	48 89 85 80 fd ff ff 	mov    %rax,-0x280(%rbp)
   10b5b:	48 8d 85 10 f4 ff ff 	lea    -0xbf0(%rbp),%rax
   10b62:	48 89 85 88 fd ff ff 	mov    %rax,-0x278(%rbp)
   10b69:	48 8d 85 10 f4 ff ff 	lea    -0xbf0(%rbp),%rax
   10b70:	48 89 85 90 fd ff ff 	mov    %rax,-0x270(%rbp)
   10b77:	48 8d 85 10 f4 ff ff 	lea    -0xbf0(%rbp),%rax
   10b7e:	48 89 85 98 fd ff ff 	mov    %rax,-0x268(%rbp)
   10b85:	48 8d 85 10 f4 ff ff 	lea    -0xbf0(%rbp),%rax
   10b8c:	48 89 85 a0 fd ff ff 	mov    %rax,-0x260(%rbp)
   10b93:	48 8d 85 10 f4 ff ff 	lea    -0xbf0(%rbp),%rax
   10b9a:	48 89 85 a8 fd ff ff 	mov    %rax,-0x258(%rbp)
   10ba1:	48 8d 85 10 f4 ff ff 	lea    -0xbf0(%rbp),%rax
   10ba8:	48 89 85 b0 fd ff ff 	mov    %rax,-0x250(%rbp)
   10baf:	48 c7 85 b8 fd ff ff 	movq   $0x0,-0x248(%rbp)
   10bb6:	00 00 00 00 
   10bba:	48 8d 85 10 f4 ff ff 	lea    -0xbf0(%rbp),%rax
   10bc1:	48 89 85 c0 fd ff ff 	mov    %rax,-0x240(%rbp)
   10bc8:	48 8d 85 10 f4 ff ff 	lea    -0xbf0(%rbp),%rax
   10bcf:	48 89 85 c8 fd ff ff 	mov    %rax,-0x238(%rbp)
   10bd6:	48 8d 85 10 f4 ff ff 	lea    -0xbf0(%rbp),%rax
   10bdd:	48 89 85 d0 fd ff ff 	mov    %rax,-0x230(%rbp)
   10be4:	48 8d 85 10 f4 ff ff 	lea    -0xbf0(%rbp),%rax
   10beb:	48 89 85 d8 fd ff ff 	mov    %rax,-0x228(%rbp)
   10bf2:	48 8d 85 10 f4 ff ff 	lea    -0xbf0(%rbp),%rax
   10bf9:	48 89 85 e0 fd ff ff 	mov    %rax,-0x220(%rbp)
   10c00:	48 c7 85 e8 fd ff ff 	movq   $0x0,-0x218(%rbp)
   10c07:	00 00 00 00 
   10c0b:	48 8d 85 10 f4 ff ff 	lea    -0xbf0(%rbp),%rax
   10c12:	48 89 85 f0 fd ff ff 	mov    %rax,-0x210(%rbp)
   10c19:	48 8d 85 10 f4 ff ff 	lea    -0xbf0(%rbp),%rax
   10c20:	48 89 85 f8 fd ff ff 	mov    %rax,-0x208(%rbp)
   10c27:	48 8d 85 10 f4 ff ff 	lea    -0xbf0(%rbp),%rax
   10c2e:	48 89 85 00 fe ff ff 	mov    %rax,-0x200(%rbp)
   10c35:	48 8d 85 10 f4 ff ff 	lea    -0xbf0(%rbp),%rax
   10c3c:	48 89 85 08 fe ff ff 	mov    %rax,-0x1f8(%rbp)
   10c43:	48 8d 85 10 f4 ff ff 	lea    -0xbf0(%rbp),%rax
   10c4a:	48 89 85 10 fe ff ff 	mov    %rax,-0x1f0(%rbp)
   10c51:	48 8d 85 10 f4 ff ff 	lea    -0xbf0(%rbp),%rax
   10c58:	48 89 85 18 fe ff ff 	mov    %rax,-0x1e8(%rbp)
   10c5f:	48 8d 85 10 f4 ff ff 	lea    -0xbf0(%rbp),%rax
   10c66:	48 89 85 20 fe ff ff 	mov    %rax,-0x1e0(%rbp)
   10c6d:	48 8d 85 10 f4 ff ff 	lea    -0xbf0(%rbp),%rax
   10c74:	48 89 85 28 fe ff ff 	mov    %rax,-0x1d8(%rbp)
   10c7b:	48 8d 85 10 f4 ff ff 	lea    -0xbf0(%rbp),%rax
   10c82:	48 89 85 30 fe ff ff 	mov    %rax,-0x1d0(%rbp)
   10c89:	48 8d 85 10 f4 ff ff 	lea    -0xbf0(%rbp),%rax
   10c90:	48 89 85 38 fe ff ff 	mov    %rax,-0x1c8(%rbp)
   10c97:	48 c7 85 40 fe ff ff 	movq   $0x0,-0x1c0(%rbp)
   10c9e:	00 00 00 00 
   10ca2:	48 8d 85 10 f4 ff ff 	lea    -0xbf0(%rbp),%rax
   10ca9:	48 89 85 48 fe ff ff 	mov    %rax,-0x1b8(%rbp)
   10cb0:	48 c7 85 50 fe ff ff 	movq   $0x0,-0x1b0(%rbp)
   10cb7:	00 00 00 00 
   10cbb:	48 c7 85 58 fe ff ff 	movq   $0x0,-0x1a8(%rbp)
   10cc2:	00 00 00 00 
   10cc6:	48 8d 85 10 f4 ff ff 	lea    -0xbf0(%rbp),%rax
   10ccd:	48 89 85 60 fe ff ff 	mov    %rax,-0x1a0(%rbp)
   10cd4:	48 8d 85 10 f4 ff ff 	lea    -0xbf0(%rbp),%rax
   10cdb:	48 89 85 68 fe ff ff 	mov    %rax,-0x198(%rbp)
   10ce2:	48 c7 85 70 fe ff ff 	movq   $0x0,-0x190(%rbp)
   10ce9:	00 00 00 00 
   10ced:	48 8d 85 10 f4 ff ff 	lea    -0xbf0(%rbp),%rax
   10cf4:	48 89 85 78 fe ff ff 	mov    %rax,-0x188(%rbp)
   10cfb:	48 8d 85 10 f4 ff ff 	lea    -0xbf0(%rbp),%rax
   10d02:	48 89 85 80 fe ff ff 	mov    %rax,-0x180(%rbp)
   10d09:	48 8d 85 10 f4 ff ff 	lea    -0xbf0(%rbp),%rax
   10d10:	48 89 85 88 fe ff ff 	mov    %rax,-0x178(%rbp)
   10d17:	48 8d 85 10 f4 ff ff 	lea    -0xbf0(%rbp),%rax
   10d1e:	48 89 85 90 fe ff ff 	mov    %rax,-0x170(%rbp)
   10d25:	48 8d 85 10 f4 ff ff 	lea    -0xbf0(%rbp),%rax
   10d2c:	48 89 85 98 fe ff ff 	mov    %rax,-0x168(%rbp)
   10d33:	48 c7 85 a0 fe ff ff 	movq   $0x0,-0x160(%rbp)
   10d3a:	00 00 00 00 
   10d3e:	48 8d 85 10 f4 ff ff 	lea    -0xbf0(%rbp),%rax
   10d45:	48 89 85 a8 fe ff ff 	mov    %rax,-0x158(%rbp)
   10d4c:	48 8d 85 10 f4 ff ff 	lea    -0xbf0(%rbp),%rax
   10d53:	48 89 85 b0 fe ff ff 	mov    %rax,-0x150(%rbp)
   10d5a:	48 8d 85 10 f4 ff ff 	lea    -0xbf0(%rbp),%rax
   10d61:	48 89 85 b8 fe ff ff 	mov    %rax,-0x148(%rbp)
   10d68:	48 8d 85 10 f4 ff ff 	lea    -0xbf0(%rbp),%rax
   10d6f:	48 89 85 c0 fe ff ff 	mov    %rax,-0x140(%rbp)
   10d76:	48 8d 85 10 f4 ff ff 	lea    -0xbf0(%rbp),%rax
   10d7d:	48 89 85 c8 fe ff ff 	mov    %rax,-0x138(%rbp)
   10d84:	48 c7 85 d0 fe ff ff 	movq   $0x0,-0x130(%rbp)
   10d8b:	00 00 00 00 
   10d8f:	48 8d 85 10 f4 ff ff 	lea    -0xbf0(%rbp),%rax
   10d96:	48 89 85 d8 fe ff ff 	mov    %rax,-0x128(%rbp)
   10d9d:	48 8d 85 10 f4 ff ff 	lea    -0xbf0(%rbp),%rax
   10da4:	48 89 85 e0 fe ff ff 	mov    %rax,-0x120(%rbp)
   10dab:	48 8d 85 10 f4 ff ff 	lea    -0xbf0(%rbp),%rax
   10db2:	48 89 85 e8 fe ff ff 	mov    %rax,-0x118(%rbp)
   10db9:	48 8d 85 10 f4 ff ff 	lea    -0xbf0(%rbp),%rax
   10dc0:	48 89 85 f0 fe ff ff 	mov    %rax,-0x110(%rbp)
   10dc7:	48 8d 85 10 f4 ff ff 	lea    -0xbf0(%rbp),%rax
   10dce:	48 89 85 f8 fe ff ff 	mov    %rax,-0x108(%rbp)
   10dd5:	48 c7 85 00 ff ff ff 	movq   $0x0,-0x100(%rbp)
   10ddc:	00 00 00 00 
   10de0:	48 8d 85 10 f4 ff ff 	lea    -0xbf0(%rbp),%rax
   10de7:	48 89 85 08 ff ff ff 	mov    %rax,-0xf8(%rbp)
   10dee:	48 8d 85 10 f4 ff ff 	lea    -0xbf0(%rbp),%rax
   10df5:	48 89 85 10 ff ff ff 	mov    %rax,-0xf0(%rbp)
   10dfc:	48 c7 85 18 ff ff ff 	movq   $0x0,-0xe8(%rbp)
   10e03:	00 00 00 00 
   10e07:	48 8d 85 10 f4 ff ff 	lea    -0xbf0(%rbp),%rax
   10e0e:	48 89 85 20 ff ff ff 	mov    %rax,-0xe0(%rbp)
   10e15:	48 8d 85 10 f4 ff ff 	lea    -0xbf0(%rbp),%rax
   10e1c:	48 89 85 28 ff ff ff 	mov    %rax,-0xd8(%rbp)
   10e23:	48 8d 85 10 f4 ff ff 	lea    -0xbf0(%rbp),%rax
   10e2a:	48 89 85 30 ff ff ff 	mov    %rax,-0xd0(%rbp)
   10e31:	48 8d 85 10 f4 ff ff 	lea    -0xbf0(%rbp),%rax
   10e38:	48 89 85 38 ff ff ff 	mov    %rax,-0xc8(%rbp)
   10e3f:	48 8d 85 10 f4 ff ff 	lea    -0xbf0(%rbp),%rax
   10e46:	48 89 85 40 ff ff ff 	mov    %rax,-0xc0(%rbp)
   10e4d:	48 8d 85 10 f4 ff ff 	lea    -0xbf0(%rbp),%rax
   10e54:	48 89 85 48 ff ff ff 	mov    %rax,-0xb8(%rbp)
   10e5b:	48 8d 85 10 f4 ff ff 	lea    -0xbf0(%rbp),%rax
   10e62:	48 89 85 50 ff ff ff 	mov    %rax,-0xb0(%rbp)
   10e69:	48 8d 85 10 f4 ff ff 	lea    -0xbf0(%rbp),%rax
   10e70:	48 89 85 58 ff ff ff 	mov    %rax,-0xa8(%rbp)
   10e77:	48 8d 85 10 f4 ff ff 	lea    -0xbf0(%rbp),%rax
   10e7e:	48 89 85 60 ff ff ff 	mov    %rax,-0xa0(%rbp)
   10e85:	48 8d 85 10 f4 ff ff 	lea    -0xbf0(%rbp),%rax
   10e8c:	48 89 85 68 ff ff ff 	mov    %rax,-0x98(%rbp)
   10e93:	48 8d 85 10 f4 ff ff 	lea    -0xbf0(%rbp),%rax
   10e9a:	48 89 85 70 ff ff ff 	mov    %rax,-0x90(%rbp)
   10ea1:	48 8d 85 10 f4 ff ff 	lea    -0xbf0(%rbp),%rax
   10ea8:	48 89 85 78 ff ff ff 	mov    %rax,-0x88(%rbp)
   10eaf:	48 8d 85 10 f4 ff ff 	lea    -0xbf0(%rbp),%rax
   10eb6:	48 89 45 80          	mov    %rax,-0x80(%rbp)
   10eba:	48 c7 45 88 00 00 00 	movq   $0x0,-0x78(%rbp)
   10ec1:	00 
   10ec2:	48 8d 85 10 f4 ff ff 	lea    -0xbf0(%rbp),%rax
   10ec9:	48 89 45 90          	mov    %rax,-0x70(%rbp)
   10ecd:	48 8d 85 10 f4 ff ff 	lea    -0xbf0(%rbp),%rax
   10ed4:	48 89 45 98          	mov    %rax,-0x68(%rbp)
   10ed8:	48 c7 45 a0 00 00 00 	movq   $0x0,-0x60(%rbp)
   10edf:	00 
   10ee0:	48 8d 85 10 f4 ff ff 	lea    -0xbf0(%rbp),%rax
   10ee7:	48 89 45 a8          	mov    %rax,-0x58(%rbp)
   10eeb:	48 8d 85 10 f4 ff ff 	lea    -0xbf0(%rbp),%rax
   10ef2:	48 89 45 b0          	mov    %rax,-0x50(%rbp)
   10ef6:	48 c7 45 b8 00 00 00 	movq   $0x0,-0x48(%rbp)
   10efd:	00 
   10efe:	48 8d 85 10 f4 ff ff 	lea    -0xbf0(%rbp),%rax
   10f05:	48 89 45 c0          	mov    %rax,-0x40(%rbp)
   10f09:	48 8d 85 10 f4 ff ff 	lea    -0xbf0(%rbp),%rax
   10f10:	48 89 45 c8          	mov    %rax,-0x38(%rbp)
   10f14:	c7 85 f4 f3 ff ff 17 	movl   $0xe32a6517,-0xc0c(%rbp)
   10f1b:	65 2a e3 
   10f1e:	48 8d 85 30 f7 ff ff 	lea    -0x8d0(%rbp),%rax
   10f25:	48 8d 15 b4 31 00 00 	lea    0x31b4(%rip),%rdx        # 140e0 <g_1778+0x1084>
   10f2c:	b9 24 00 00 00       	mov    $0x24,%ecx
   10f31:	48 89 c7             	mov    %rax,%rdi
   10f34:	48 89 d6             	mov    %rdx,%rsi
   10f37:	f3 48 a5             	rep movsq %ds:(%rsi),%es:(%rdi)
   10f3a:	48 8d 05 67 7c 00 00 	lea    0x7c67(%rip),%rax        # 18ba8 <g_409+0x8>
   10f41:	48 89 85 f0 f5 ff ff 	mov    %rax,-0xa10(%rbp)
   10f48:	48 8d 05 59 7c 00 00 	lea    0x7c59(%rip),%rax        # 18ba8 <g_409+0x8>
   10f4f:	48 89 85 f8 f5 ff ff 	mov    %rax,-0xa08(%rbp)
   10f56:	48 8d 05 4b 7c 00 00 	lea    0x7c4b(%rip),%rax        # 18ba8 <g_409+0x8>
   10f5d:	48 89 85 00 f6 ff ff 	mov    %rax,-0xa00(%rbp)
   10f64:	48 8d 05 3d 7c 00 00 	lea    0x7c3d(%rip),%rax        # 18ba8 <g_409+0x8>
   10f6b:	48 89 85 08 f6 ff ff 	mov    %rax,-0x9f8(%rbp)
   10f72:	48 8d 05 2f 7c 00 00 	lea    0x7c2f(%rip),%rax        # 18ba8 <g_409+0x8>
   10f79:	48 89 85 10 f6 ff ff 	mov    %rax,-0x9f0(%rbp)
   10f80:	48 8d 05 21 7c 00 00 	lea    0x7c21(%rip),%rax        # 18ba8 <g_409+0x8>
   10f87:	48 89 85 18 f6 ff ff 	mov    %rax,-0x9e8(%rbp)
   10f8e:	48 8d 05 13 7c 00 00 	lea    0x7c13(%rip),%rax        # 18ba8 <g_409+0x8>
   10f95:	48 89 85 20 f6 ff ff 	mov    %rax,-0x9e0(%rbp)
   10f9c:	48 8d 05 05 7c 00 00 	lea    0x7c05(%rip),%rax        # 18ba8 <g_409+0x8>
   10fa3:	48 89 85 28 f6 ff ff 	mov    %rax,-0x9d8(%rbp)
   10faa:	48 8d 05 f7 7b 00 00 	lea    0x7bf7(%rip),%rax        # 18ba8 <g_409+0x8>
   10fb1:	48 89 85 30 f6 ff ff 	mov    %rax,-0x9d0(%rbp)
   10fb8:	c7 85 c8 f3 ff ff 00 	movl   $0x0,-0xc38(%rbp)
   10fbf:	00 00 00 
   10fc2:	eb 25                	jmp    10fe9 <func_59+0x261a>
   10fc4:	8b 85 c8 f3 ff ff    	mov    -0xc38(%rbp),%eax
   10fca:	48 98                	cltq   
   10fcc:	48 8d 95 50 f8 ff ff 	lea    -0x7b0(%rbp),%rdx
   10fd3:	48 81 c2 18 01 00 00 	add    $0x118,%rdx
   10fda:	48 89 94 c5 80 f5 ff 	mov    %rdx,-0xa80(%rbp,%rax,8)
   10fe1:	ff 
   10fe2:	83 85 c8 f3 ff ff 01 	addl   $0x1,-0xc38(%rbp)
   10fe9:	83 bd c8 f3 ff ff 01 	cmpl   $0x1,-0xc38(%rbp)
   10ff0:	7e d2                	jle    10fc4 <func_59+0x25f5>
   10ff2:	c7 85 c8 f3 ff ff 00 	movl   $0x0,-0xc38(%rbp)
   10ff9:	00 00 00 
   10ffc:	eb 1a                	jmp    11018 <func_59+0x2649>
   10ffe:	8b 85 c8 f3 ff ff    	mov    -0xc38(%rbp),%eax
   11004:	48 98                	cltq   
   11006:	c7 84 85 90 f5 ff ff 	movl   $0xfc83aa95,-0xa70(%rbp,%rax,4)
   1100d:	95 aa 83 fc 
   11011:	83 85 c8 f3 ff ff 01 	addl   $0x1,-0xc38(%rbp)
   11018:	83 bd c8 f3 ff ff 04 	cmpl   $0x4,-0xc38(%rbp)
   1101f:	7e dd                	jle    10ffe <func_59+0x262f>
   11021:	0f b6 85 a0 f3 ff ff 	movzbl -0xc60(%rbp),%eax
   11028:	84 c0                	test   %al,%al
   1102a:	75 3c                	jne    11068 <func_59+0x2699>
   1102c:	8b 85 d4 f6 ff ff    	mov    -0x92c(%rbp),%eax
   11032:	83 c0 01             	add    $0x1,%eax
   11035:	89 85 d4 f6 ff ff    	mov    %eax,-0x92c(%rbp)
   1103b:	0f b6 85 a0 f3 ff ff 	movzbl -0xc60(%rbp),%eax
   11042:	0f b6 c0             	movzbl %al,%eax
   11045:	be 01 00 00 00       	mov    $0x1,%esi
   1104a:	89 c7                	mov    %eax,%edi
   1104c:	e8 62 43 ff ff       	callq  53b3 <safe_add_func_int16_t_s_s>
   11051:	88 85 a0 f3 ff ff    	mov    %al,-0xc60(%rbp)
   11057:	0f b6 85 a0 f3 ff ff 	movzbl -0xc60(%rbp),%eax
   1105e:	3c 1c                	cmp    $0x1c,%al
   11060:	0f 87 8d f1 ff ff    	ja     101f3 <func_59+0x1824>
   11066:	eb 01                	jmp    11069 <func_59+0x269a>
   11068:	90                   	nop
   11069:	48 8b 95 08 f4 ff ff 	mov    -0xbf8(%rbp),%rdx
   11070:	48 8b 85 30 f4 ff ff 	mov    -0xbd0(%rbp),%rax
   11077:	48 89 10             	mov    %rdx,(%rax)
   1107a:	0f b6 05 4f 8f 00 00 	movzbl 0x8f4f(%rip),%eax        # 19fd0 <g_194>
   11081:	48 0f be c0          	movsbq %al,%rax
   11085:	48 8b 5d d8          	mov    -0x28(%rbp),%rbx
   11089:	64 48 33 1c 25 28 00 	xor    %fs:0x28,%rbx
   11090:	00 00 
   11092:	74 05                	je     11099 <func_59+0x26ca>
   11094:	e8 d7 3f ff ff       	callq  5070 <__stack_chk_fail@plt>
   11099:	48 81 c4 68 0c 00 00 	add    $0xc68,%rsp
   110a0:	5b                   	pop    %rbx
   110a1:	41 5c                	pop    %r12
   110a3:	41 5d                	pop    %r13
   110a5:	5d                   	pop    %rbp
   110a6:	c3                   	retq   

00000000000110a7 <func_85>:
   110a7:	f3 0f 1e fa          	endbr64 
   110ab:	55                   	push   %rbp
   110ac:	48 89 e5             	mov    %rsp,%rbp
   110af:	48 89 7d f8          	mov    %rdi,-0x8(%rbp)
   110b3:	89 75 f4             	mov    %esi,-0xc(%rbp)
   110b6:	8b 05 70 5f 00 00    	mov    0x5f70(%rip),%eax        # 1702c <g_20>
   110bc:	5d                   	pop    %rbp
   110bd:	c3                   	retq   

00000000000110be <func_90>:
   110be:	f3 0f 1e fa          	endbr64 
   110c2:	55                   	push   %rbp
   110c3:	48 89 e5             	mov    %rsp,%rbp
   110c6:	41 55                	push   %r13
   110c8:	41 54                	push   %r12
   110ca:	53                   	push   %rbx
   110cb:	48 81 ec 58 02 00 00 	sub    $0x258,%rsp
   110d2:	48 89 bd b8 fd ff ff 	mov    %rdi,-0x248(%rbp)
   110d9:	48 89 b5 b0 fd ff ff 	mov    %rsi,-0x250(%rbp)
   110e0:	48 89 95 a8 fd ff ff 	mov    %rdx,-0x258(%rbp)
   110e7:	89 c8                	mov    %ecx,%eax
   110e9:	4c 89 85 98 fd ff ff 	mov    %r8,-0x268(%rbp)
   110f0:	88 85 a4 fd ff ff    	mov    %al,-0x25c(%rbp)
   110f6:	64 48 8b 04 25 28 00 	mov    %fs:0x28,%rax
   110fd:	00 00 
   110ff:	48 89 45 d8          	mov    %rax,-0x28(%rbp)
   11103:	31 c0                	xor    %eax,%eax
   11105:	48 8d 85 20 fe ff ff 	lea    -0x1e0(%rbp),%rax
   1110c:	48 8d 15 ed 30 00 00 	lea    0x30ed(%rip),%rdx        # 14200 <g_1778+0x11a4>
   11113:	b9 36 00 00 00       	mov    $0x36,%ecx
   11118:	48 89 c7             	mov    %rax,%rdi
   1111b:	48 89 d6             	mov    %rdx,%rsi
   1111e:	f3 48 a5             	rep movsq %ds:(%rsi),%es:(%rdi)
   11121:	c7 85 c0 fd ff ff 00 	movl   $0x0,-0x240(%rbp)
   11128:	00 00 00 
   1112b:	eb 1e                	jmp    1114b <func_90+0x8d>
   1112d:	8b 85 c0 fd ff ff    	mov    -0x240(%rbp),%eax
   11133:	48 98                	cltq   
   11135:	48 8d 15 80 61 00 00 	lea    0x6180(%rip),%rdx        # 172bc <g_183>
   1113c:	48 89 94 c5 e0 fd ff 	mov    %rdx,-0x220(%rbp,%rax,8)
   11143:	ff 
   11144:	83 85 c0 fd ff ff 01 	addl   $0x1,-0x240(%rbp)
   1114b:	83 bd c0 fd ff ff 06 	cmpl   $0x6,-0x240(%rbp)
   11152:	7e d9                	jle    1112d <func_90+0x6f>
   11154:	48 8b 85 28 fe ff ff 	mov    -0x1d8(%rbp),%rax
   1115b:	41 89 c4             	mov    %eax,%r12d
   1115e:	48 8b 85 b8 fd ff ff 	mov    -0x248(%rbp),%rax
   11165:	98                   	cwtl   
   11166:	89 c6                	mov    %eax,%esi
   11168:	bf 6f c8 ff ff       	mov    $0xffffc86f,%edi
   1116d:	e8 41 42 ff ff       	callq  53b3 <safe_add_func_int16_t_s_s>
   11172:	48 8b 85 b8 fd ff ff 	mov    -0x248(%rbp),%rax
   11179:	41 89 c5             	mov    %eax,%r13d
   1117c:	48 0f be 9d a4 fd ff 	movsbq -0x25c(%rbp),%rbx
   11183:	ff 
   11184:	0f b7 05 2d 61 00 00 	movzwl 0x612d(%rip),%eax        # 172b8 <g_162>
   1118b:	0f be d0             	movsbl %al,%edx
   1118e:	48 8b 85 60 ff ff ff 	mov    -0xa0(%rbp),%rax
   11195:	48 85 c0             	test   %rax,%rax
   11198:	0f 95 c0             	setne  %al
   1119b:	0f b6 c0             	movzbl %al,%eax
   1119e:	89 d6                	mov    %edx,%esi
   111a0:	89 c7                	mov    %eax,%edi
   111a2:	e8 c3 40 ff ff       	callq  526a <safe_div_func_int8_t_s_s>
   111a7:	48 89 de             	mov    %rbx,%rsi
   111aa:	48 c7 c7 f8 ff ff ff 	mov    $0xfffffffffffffff8,%rdi
   111b1:	e8 ca 4e ff ff       	callq  6080 <safe_mod_func_uint64_t_u_u>
   111b6:	89 c2                	mov    %eax,%edx
   111b8:	0f b6 05 71 5e 00 00 	movzbl 0x5e71(%rip),%eax        # 17030 <g_26>
   111bf:	0f b6 c0             	movzbl %al,%eax
   111c2:	89 d6                	mov    %edx,%esi
   111c4:	89 c7                	mov    %eax,%edi
   111c6:	e8 c2 4a ff ff       	callq  5c8d <safe_rshift_func_uint8_t_u_s>
   111cb:	0f b6 d0             	movzbl %al,%edx
   111ce:	8b 05 e0 60 00 00    	mov    0x60e0(%rip),%eax        # 172b4 <g_159>
   111d4:	39 c2                	cmp    %eax,%edx
   111d6:	0f 9d c0             	setge  %al
   111d9:	0f b6 d0             	movzbl %al,%edx
   111dc:	48 8b 85 60 ff ff ff 	mov    -0xa0(%rbp),%rax
   111e3:	48 39 c2             	cmp    %rax,%rdx
   111e6:	0f 92 c0             	setb   %al
   111e9:	0f b6 c0             	movzbl %al,%eax
   111ec:	44 89 ee             	mov    %r13d,%esi
   111ef:	89 c7                	mov    %eax,%edi
   111f1:	e8 0f 44 ff ff       	callq  5605 <safe_sub_func_int32_t_s_s>
   111f6:	0f b7 c0             	movzwl %ax,%eax
   111f9:	be 12 50 00 00       	mov    $0x5012,%esi
   111fe:	89 c7                	mov    %eax,%edi
   11200:	e8 57 4b ff ff       	callq  5d5c <safe_mod_func_uint16_t_u_u>
   11205:	0f b7 d0             	movzwl %ax,%edx
   11208:	48 8b 85 60 ff ff ff 	mov    -0xa0(%rbp),%rax
   1120f:	48 39 c2             	cmp    %rax,%rdx
   11212:	0f 97 c0             	seta   %al
   11215:	0f b6 c0             	movzbl %al,%eax
   11218:	44 89 e6             	mov    %r12d,%esi
   1121b:	89 c7                	mov    %eax,%edi
   1121d:	e8 ae 4c ff ff       	callq  5ed0 <safe_sub_func_uint32_t_u_u>
   11222:	8b 15 8c 60 00 00    	mov    0x608c(%rip),%edx        # 172b4 <g_159>
   11228:	31 c2                	xor    %eax,%edx
   1122a:	0f b7 05 33 5e 00 00 	movzwl 0x5e33(%rip),%eax        # 17064 <g_66>
   11231:	0f b7 c0             	movzwl %ax,%eax
   11234:	39 c2                	cmp    %eax,%edx
   11236:	0f 94 c0             	sete   %al
   11239:	0f b6 c0             	movzbl %al,%eax
   1123c:	89 05 72 60 00 00    	mov    %eax,0x6072(%rip)        # 172b4 <g_159>
   11242:	8b 05 6c 60 00 00    	mov    0x606c(%rip),%eax        # 172b4 <g_159>
   11248:	89 05 6e 60 00 00    	mov    %eax,0x606e(%rip)        # 172bc <g_183>
   1124e:	c6 85 a4 fd ff ff 0d 	movb   $0xd,-0x25c(%rbp)
   11255:	e9 e5 00 00 00       	jmpq   1133f <func_90+0x281>
   1125a:	48 8d 05 6f 8d 00 00 	lea    0x8d6f(%rip),%rax        # 19fd0 <g_194>
   11261:	48 89 85 c8 fd ff ff 	mov    %rax,-0x238(%rbp)
   11268:	c7 85 c4 fd ff ff 00 	movl   $0x0,-0x23c(%rbp)
   1126f:	00 00 00 
   11272:	eb 1a                	jmp    1128e <func_90+0x1d0>
   11274:	8b 85 c4 fd ff ff    	mov    -0x23c(%rbp),%eax
   1127a:	48 98                	cltq   
   1127c:	c7 84 85 d0 fd ff ff 	movl   $0xffffffff,-0x230(%rbp,%rax,4)
   11283:	ff ff ff ff 
   11287:	83 85 c4 fd ff ff 01 	addl   $0x1,-0x23c(%rbp)
   1128e:	83 bd c4 fd ff ff 03 	cmpl   $0x3,-0x23c(%rbp)
   11295:	7e dd                	jle    11274 <func_90+0x1b6>
   11297:	48 8b 85 a8 fd ff ff 	mov    -0x258(%rbp),%rax
   1129e:	8b 00                	mov    (%rax),%eax
   112a0:	8b 95 d4 fd ff ff    	mov    -0x22c(%rbp),%edx
   112a6:	89 c6                	mov    %eax,%esi
   112a8:	89 d7                	mov    %edx,%edi
   112aa:	e8 07 43 ff ff       	callq  55b6 <safe_add_func_int32_t_s_s>
   112af:	89 c2                	mov    %eax,%edx
   112b1:	8b 05 49 5f 00 00    	mov    0x5f49(%rip),%eax        # 17200 <g_72+0x180>
   112b7:	39 c2                	cmp    %eax,%edx
   112b9:	8b 85 d4 fd ff ff    	mov    -0x22c(%rbp),%eax
   112bf:	89 c3                	mov    %eax,%ebx
   112c1:	48 8b 85 b0 fd ff ff 	mov    -0x250(%rbp),%rax
   112c8:	8b 00                	mov    (%rax),%eax
   112ca:	85 c0                	test   %eax,%eax
   112cc:	0f 94 c0             	sete   %al
   112cf:	0f b6 c0             	movzbl %al,%eax
   112d2:	be 0f 00 00 00       	mov    $0xf,%esi
   112d7:	89 c7                	mov    %eax,%edi
   112d9:	e8 9c 4b ff ff       	callq  5e7a <safe_rshift_func_uint16_t_u_u>
   112de:	0f b6 c0             	movzbl %al,%eax
   112e1:	89 de                	mov    %ebx,%esi
   112e3:	89 c7                	mov    %eax,%edi
   112e5:	e8 1b 49 ff ff       	callq  5c05 <safe_lshift_func_uint8_t_u_s>
   112ea:	83 f0 05             	xor    $0x5,%eax
   112ed:	89 c2                	mov    %eax,%edx
   112ef:	48 8b 85 c8 fd ff ff 	mov    -0x238(%rbp),%rax
   112f6:	88 10                	mov    %dl,(%rax)
   112f8:	48 8b 85 c8 fd ff ff 	mov    -0x238(%rbp),%rax
   112ff:	0f b6 10             	movzbl (%rax),%edx
   11302:	0f b6 05 28 5d 00 00 	movzbl 0x5d28(%rip),%eax        # 17031 <g_27>
   11309:	38 c2                	cmp    %al,%dl
   1130b:	48 8b 85 b0 fd ff ff 	mov    -0x250(%rbp),%rax
   11312:	48 89 85 a8 fd ff ff 	mov    %rax,-0x258(%rbp)
   11319:	c7 05 99 5f 00 00 00 	movl   $0x0,0x5f99(%rip)        # 172bc <g_183>
   11320:	00 00 00 
   11323:	48 8b 05 9e 8c 00 00 	mov    0x8c9e(%rip),%rax        # 19fc8 <g_28>
   1132a:	48 85 c0             	test   %rax,%rax
   1132d:	75 1f                	jne    1134e <func_90+0x290>
   1132f:	0f b6 85 a4 fd ff ff 	movzbl -0x25c(%rbp),%eax
   11336:	83 e8 01             	sub    $0x1,%eax
   11339:	88 85 a4 fd ff ff    	mov    %al,-0x25c(%rbp)
   1133f:	80 bd a4 fd ff ff ee 	cmpb   $0xee,-0x25c(%rbp)
   11346:	0f 84 0e ff ff ff    	je     1125a <func_90+0x19c>
   1134c:	eb 01                	jmp    1134f <func_90+0x291>
   1134e:	90                   	nop
   1134f:	0f b7 05 10 5d 00 00 	movzwl 0x5d10(%rip),%eax        # 17066 <g_69>
   11356:	48 0f bf c0          	movswq %ax,%rax
   1135a:	48 8b 4d d8          	mov    -0x28(%rbp),%rcx
   1135e:	64 48 33 0c 25 28 00 	xor    %fs:0x28,%rcx
   11365:	00 00 
   11367:	74 05                	je     1136e <func_90+0x2b0>
   11369:	e8 02 3d ff ff       	callq  5070 <__stack_chk_fail@plt>
   1136e:	48 81 c4 58 02 00 00 	add    $0x258,%rsp
   11375:	5b                   	pop    %rbx
   11376:	41 5c                	pop    %r12
   11378:	41 5d                	pop    %r13
   1137a:	5d                   	pop    %rbp
   1137b:	c3                   	retq   

000000000001137c <func_96>:
   1137c:	f3 0f 1e fa          	endbr64 
   11380:	55                   	push   %rbp
   11381:	48 89 e5             	mov    %rsp,%rbp
   11384:	41 57                	push   %r15
   11386:	41 56                	push   %r14
   11388:	41 55                	push   %r13
   1138a:	41 54                	push   %r12
   1138c:	53                   	push   %rbx
   1138d:	48 83 ec 58          	sub    $0x58,%rsp
   11391:	89 7d 8c             	mov    %edi,-0x74(%rbp)
   11394:	64 48 8b 04 25 28 00 	mov    %fs:0x28,%rax
   1139b:	00 00 
   1139d:	48 89 45 c8          	mov    %rax,-0x38(%rbp)
   113a1:	31 c0                	xor    %eax,%eax
   113a3:	c6 45 9a 0c          	movb   $0xc,-0x66(%rbp)
   113a7:	c7 45 a0 3b 49 31 54 	movl   $0x5431493b,-0x60(%rbp)
   113ae:	c7 45 8c 00 00 00 00 	movl   $0x0,-0x74(%rbp)
   113b5:	e9 10 03 00 00       	jmpq   116ca <func_96+0x34e>
   113ba:	c6 45 9b 00          	movb   $0x0,-0x65(%rbp)
   113be:	48 8d 05 9f 5c 00 00 	lea    0x5c9f(%rip),%rax        # 17064 <g_66>
   113c5:	48 89 45 a8          	mov    %rax,-0x58(%rbp)
   113c9:	c7 45 9c 01 00 00 00 	movl   $0x1,-0x64(%rbp)
   113d0:	48 8d 45 9c          	lea    -0x64(%rbp),%rax
   113d4:	48 89 45 b0          	mov    %rax,-0x50(%rbp)
   113d8:	48 c7 45 b8 00 00 00 	movq   $0x0,-0x48(%rbp)
   113df:	00 
   113e0:	c7 45 a4 02 00 00 00 	movl   $0x2,-0x5c(%rbp)
   113e7:	48 8d 05 c6 5e 00 00 	lea    0x5ec6(%rip),%rax        # 172b4 <g_159>
   113ee:	48 89 45 c0          	mov    %rax,-0x40(%rbp)
   113f2:	0f b6 05 38 5c 00 00 	movzbl 0x5c38(%rip),%eax        # 17031 <g_27>
   113f9:	0f be d8             	movsbl %al,%ebx
   113fc:	44 8b 65 9c          	mov    -0x64(%rbp),%r12d
   11400:	8b 05 1e 5d 00 00    	mov    0x5d1e(%rip),%eax        # 17124 <g_72+0xa4>
   11406:	44 0f be e8          	movsbl %al,%r13d
   1140a:	0f b7 05 55 5c 00 00 	movzwl 0x5c55(%rip),%eax        # 17066 <g_69>
   11411:	44 0f be f0          	movsbl %al,%r14d
   11415:	0f be 45 9a          	movsbl -0x66(%rbp),%eax
   11419:	89 45 88             	mov    %eax,-0x78(%rbp)
   1141c:	8b 45 8c             	mov    -0x74(%rbp),%eax
   1141f:	44 0f b6 f8          	movzbl %al,%r15d
   11423:	0f b7 05 3c 5c 00 00 	movzwl 0x5c3c(%rip),%eax        # 17066 <g_69>
   1142a:	0f b6 d0             	movzbl %al,%edx
   1142d:	0f b7 05 32 5c 00 00 	movzwl 0x5c32(%rip),%eax        # 17066 <g_69>
   11434:	0f b6 c0             	movzbl %al,%eax
   11437:	89 d6                	mov    %edx,%esi
   11439:	89 c7                	mov    %eax,%edi
   1143b:	e8 6e 47 ff ff       	callq  5bae <safe_mod_func_uint8_t_u_u>
   11440:	0f b6 c0             	movzbl %al,%eax
   11443:	44 89 fe             	mov    %r15d,%esi
   11446:	89 c7                	mov    %eax,%edi
   11448:	e8 46 47 ff ff       	callq  5b93 <safe_mul_func_uint8_t_u_u>
   1144d:	0f b6 c0             	movzbl %al,%eax
   11450:	39 45 88             	cmp    %eax,-0x78(%rbp)
   11453:	0f 94 c0             	sete   %al
   11456:	0f b6 c0             	movzbl %al,%eax
   11459:	89 45 88             	mov    %eax,-0x78(%rbp)
   1145c:	0f b6 05 ce 5b 00 00 	movzbl 0x5bce(%rip),%eax        # 17031 <g_27>
   11463:	44 0f be f8          	movsbl %al,%r15d
   11467:	8b 45 9c             	mov    -0x64(%rbp),%eax
   1146a:	89 c6                	mov    %eax,%esi
   1146c:	bf 01 00 00 00       	mov    $0x1,%edi
   11471:	e8 48 48 ff ff       	callq  5cbe <safe_rshift_func_uint8_t_u_u>
   11476:	0f be c0             	movsbl %al,%eax
   11479:	44 89 fe             	mov    %r15d,%esi
   1147c:	89 c7                	mov    %eax,%edi
   1147e:	e8 e9 3e ff ff       	callq  536c <safe_rshift_func_int8_t_s_u>
   11483:	66 98                	cbtw   
   11485:	0f b7 c0             	movzwl %ax,%eax
   11488:	be 00 00 00 00       	mov    $0x0,%esi
   1148d:	89 c7                	mov    %eax,%edi
   1148f:	e8 a9 48 ff ff       	callq  5d3d <safe_mul_func_uint16_t_u_u>
   11494:	0f b7 c0             	movzwl %ax,%eax
   11497:	39 45 88             	cmp    %eax,-0x78(%rbp)
   1149a:	0f 95 c0             	setne  %al
   1149d:	0f b6 c0             	movzbl %al,%eax
   114a0:	44 89 f6             	mov    %r14d,%esi
   114a3:	89 c7                	mov    %eax,%edi
   114a5:	e8 2a 3d ff ff       	callq  51d4 <safe_add_func_int8_t_s_s>
   114aa:	8b 45 8c             	mov    -0x74(%rbp),%eax
   114ad:	48 98                	cltq   
   114af:	48 be eb f2 0a 3d 52 	movabs $0xbd6c54523d0af2eb,%rsi
   114b6:	54 6c bd 
   114b9:	48 89 c7             	mov    %rax,%rdi
   114bc:	e8 6d 4b ff ff       	callq  602e <safe_add_func_uint64_t_u_u>
   114c1:	48 83 f8 ff          	cmp    $0xffffffffffffffff,%rax
   114c5:	0f 95 c0             	setne  %al
   114c8:	0f b6 c0             	movzbl %al,%eax
   114cb:	44 89 ee             	mov    %r13d,%esi
   114ce:	89 c7                	mov    %eax,%edi
   114d0:	e8 ff 3c ff ff       	callq  51d4 <safe_add_func_int8_t_s_s>
   114d5:	66 0f be 45 9a       	movsbw -0x66(%rbp),%ax
   114da:	8b 15 4c 5b 00 00    	mov    0x5b4c(%rip),%edx        # 1702c <g_20>
   114e0:	21 d0                	and    %edx,%eax
   114e2:	0f b7 c0             	movzwl %ax,%eax
   114e5:	44 89 e6             	mov    %r12d,%esi
   114e8:	89 c7                	mov    %eax,%edi
   114ea:	e8 cf 48 ff ff       	callq  5dbe <safe_lshift_func_uint16_t_u_s>
   114ef:	66 85 c0             	test   %ax,%ax
   114f2:	74 11                	je     11505 <func_96+0x189>
   114f4:	8b 05 56 5c 00 00    	mov    0x5c56(%rip),%eax        # 17150 <g_72+0xd0>
   114fa:	85 c0                	test   %eax,%eax
   114fc:	74 07                	je     11505 <func_96+0x189>
   114fe:	b8 01 00 00 00       	mov    $0x1,%eax
   11503:	eb 05                	jmp    1150a <func_96+0x18e>
   11505:	b8 00 00 00 00       	mov    $0x0,%eax
   1150a:	89 c2                	mov    %eax,%edx
   1150c:	0f b6 05 1d 5b 00 00 	movzbl 0x5b1d(%rip),%eax        # 17030 <g_26>
   11513:	f7 d0                	not    %eax
   11515:	21 d0                	and    %edx,%eax
   11517:	0f be c0             	movsbl %al,%eax
   1151a:	89 de                	mov    %ebx,%esi
   1151c:	89 c7                	mov    %eax,%edi
   1151e:	e8 0e 3d ff ff       	callq  5231 <safe_mod_func_int8_t_s_s>
   11523:	0f be d0             	movsbl %al,%edx
   11526:	48 8b 45 b0          	mov    -0x50(%rbp),%rax
   1152a:	89 10                	mov    %edx,(%rax)
   1152c:	48 8b 45 b0          	mov    -0x50(%rbp),%rax
   11530:	8b 00                	mov    (%rax),%eax
   11532:	21 45 a0             	and    %eax,-0x60(%rbp)
   11535:	8b 45 a4             	mov    -0x5c(%rbp),%eax
   11538:	0f bf d8             	movswl %ax,%ebx
   1153b:	8b 45 8c             	mov    -0x74(%rbp),%eax
   1153e:	44 0f be e0          	movsbl %al,%r12d
   11542:	8b 05 dc 5b 00 00    	mov    0x5bdc(%rip),%eax        # 17124 <g_72+0xa4>
   11548:	98                   	cwtl   
   11549:	89 c6                	mov    %eax,%esi
   1154b:	bf 01 00 00 00       	mov    $0x1,%edi
   11550:	e8 5e 3e ff ff       	callq  53b3 <safe_add_func_int16_t_s_s>
   11555:	8b 45 8c             	mov    -0x74(%rbp),%eax
   11558:	44 0f be e8          	movsbl %al,%r13d
   1155c:	66 0f be 45 9a       	movsbw -0x66(%rbp),%ax
   11561:	44 0f b7 f0          	movzwl %ax,%r14d
   11565:	48 8b 45 b0          	mov    -0x50(%rbp),%rax
   11569:	8b 00                	mov    (%rax),%eax
   1156b:	89 45 88             	mov    %eax,-0x78(%rbp)
   1156e:	8b 45 8c             	mov    -0x74(%rbp),%eax
   11571:	4c 63 f8             	movslq %eax,%r15
   11574:	8b 45 8c             	mov    -0x74(%rbp),%eax
   11577:	0f be c0             	movsbl %al,%eax
   1157a:	be 06 00 00 00       	mov    $0x6,%esi
   1157f:	89 c7                	mov    %eax,%edi
   11581:	e8 e6 3d ff ff       	callq  536c <safe_rshift_func_int8_t_s_u>
   11586:	48 0f be c0          	movsbq %al,%rax
   1158a:	4c 89 fe             	mov    %r15,%rsi
   1158d:	48 89 c7             	mov    %rax,%rdi
   11590:	e8 1f 44 ff ff       	callq  59b4 <safe_mod_func_int64_t_s_s>
   11595:	48 0f be 55 9a       	movsbq -0x66(%rbp),%rdx
   1159a:	48 39 d0             	cmp    %rdx,%rax
   1159d:	7c 08                	jl     115a7 <func_96+0x22b>
   1159f:	8b 05 7f 5a 00 00    	mov    0x5a7f(%rip),%eax        # 17024 <g_11>
   115a5:	85 c0                	test   %eax,%eax
   115a7:	48 8b 05 1a 8a 00 00 	mov    0x8a1a(%rip),%rax        # 19fc8 <g_28>
   115ae:	0f be c0             	movsbl %al,%eax
   115b1:	be 03 00 00 00       	mov    $0x3,%esi
   115b6:	89 c7                	mov    %eax,%edi
   115b8:	e8 e4 3c ff ff       	callq  52a1 <safe_lshift_func_int8_t_s_s>
   115bd:	0f be d0             	movsbl %al,%edx
   115c0:	8b 45 8c             	mov    -0x74(%rbp),%eax
   115c3:	39 c2                	cmp    %eax,%edx
   115c5:	0f 9e c0             	setle  %al
   115c8:	0f b6 c0             	movzbl %al,%eax
   115cb:	be 28 a2 ff ff       	mov    $0xffffa228,%esi
   115d0:	89 c7                	mov    %eax,%edi
   115d2:	e8 fc 3d ff ff       	callq  53d3 <safe_sub_func_int16_t_s_s>
   115d7:	0f b7 c0             	movzwl %ax,%eax
   115da:	8b 75 88             	mov    -0x78(%rbp),%esi
   115dd:	89 c7                	mov    %eax,%edi
   115df:	e8 22 48 ff ff       	callq  5e06 <safe_lshift_func_uint16_t_u_u>
   115e4:	48 8b 55 a8          	mov    -0x58(%rbp),%rdx
   115e8:	0f b7 12             	movzwl (%rdx),%edx
   115eb:	09 c2                	or     %eax,%edx
   115ed:	48 8b 45 a8          	mov    -0x58(%rbp),%rax
   115f1:	66 89 10             	mov    %dx,(%rax)
   115f4:	48 8b 45 a8          	mov    -0x58(%rbp),%rax
   115f8:	0f b7 00             	movzwl (%rax),%eax
   115fb:	0f b7 c0             	movzwl %ax,%eax
   115fe:	44 89 f6             	mov    %r14d,%esi
   11601:	89 c7                	mov    %eax,%edi
   11603:	e8 54 47 ff ff       	callq  5d5c <safe_mod_func_uint16_t_u_u>
   11608:	66 85 c0             	test   %ax,%ax
   1160b:	75 06                	jne    11613 <func_96+0x297>
   1160d:	80 7d 9a 00          	cmpb   $0x0,-0x66(%rbp)
   11611:	74 0d                	je     11620 <func_96+0x2a4>
   11613:	83 7d a0 00          	cmpl   $0x0,-0x60(%rbp)
   11617:	74 07                	je     11620 <func_96+0x2a4>
   11619:	b8 01 00 00 00       	mov    $0x1,%eax
   1161e:	eb 05                	jmp    11625 <func_96+0x2a9>
   11620:	b8 00 00 00 00       	mov    $0x0,%eax
   11625:	0f be d0             	movsbl %al,%edx
   11628:	0f b6 05 02 5a 00 00 	movzbl 0x5a02(%rip),%eax        # 17031 <g_27>
   1162f:	0f be c0             	movsbl %al,%eax
   11632:	89 d6                	mov    %edx,%esi
   11634:	89 c7                	mov    %eax,%edi
   11636:	e8 2f 3c ff ff       	callq  526a <safe_div_func_int8_t_s_s>
   1163b:	0f b6 c0             	movzbl %al,%eax
   1163e:	89 c7                	mov    %eax,%edi
   11640:	e8 00 45 ff ff       	callq  5b45 <safe_unary_minus_func_uint8_t_u>
   11645:	0f b6 05 e5 59 00 00 	movzbl 0x59e5(%rip),%eax        # 17031 <g_27>
   1164c:	0f be c0             	movsbl %al,%eax
   1164f:	44 89 ee             	mov    %r13d,%esi
   11652:	89 c7                	mov    %eax,%edi
   11654:	e8 b9 3b ff ff       	callq  5212 <safe_mul_func_int8_t_s_s>
   11659:	66 98                	cbtw   
   1165b:	66 89 05 4e 5c 00 00 	mov    %ax,0x5c4e(%rip)        # 172b0 <g_156>
   11662:	0f b7 05 47 5c 00 00 	movzwl 0x5c47(%rip),%eax        # 172b0 <g_156>
   11669:	48 0f bf c0          	movswq %ax,%rax
   1166d:	48 c7 c6 f9 ff ff ff 	mov    $0xfffffffffffffff9,%rsi
   11674:	48 89 c7             	mov    %rax,%rdi
   11677:	e8 7b 43 ff ff       	callq  59f7 <safe_div_func_int64_t_s_s>
   1167c:	0f be c0             	movsbl %al,%eax
   1167f:	44 89 e6             	mov    %r12d,%esi
   11682:	89 c7                	mov    %eax,%edi
   11684:	e8 e1 3b ff ff       	callq  526a <safe_div_func_int8_t_s_s>
   11689:	0f be c0             	movsbl %al,%eax
   1168c:	89 de                	mov    %ebx,%esi
   1168e:	89 c7                	mov    %eax,%edi
   11690:	e8 60 3d ff ff       	callq  53f5 <safe_mul_func_int16_t_s_s>
   11695:	89 c2                	mov    %eax,%edx
   11697:	8b 45 8c             	mov    -0x74(%rbp),%eax
   1169a:	21 d0                	and    %edx,%eax
   1169c:	0f b6 c0             	movzbl %al,%eax
   1169f:	be 03 00 00 00       	mov    $0x3,%esi
   116a4:	89 c7                	mov    %eax,%edi
   116a6:	e8 5a 45 ff ff       	callq  5c05 <safe_lshift_func_uint8_t_u_s>
   116ab:	3c 66                	cmp    $0x66,%al
   116ad:	0f 96 c0             	setbe  %al
   116b0:	0f b6 d0             	movzbl %al,%edx
   116b3:	48 8b 45 c0          	mov    -0x40(%rbp),%rax
   116b7:	8b 00                	mov    (%rax),%eax
   116b9:	09 c2                	or     %eax,%edx
   116bb:	48 8b 45 c0          	mov    -0x40(%rbp),%rax
   116bf:	89 10                	mov    %edx,(%rax)
   116c1:	8b 45 8c             	mov    -0x74(%rbp),%eax
   116c4:	83 c0 01             	add    $0x1,%eax
   116c7:	89 45 8c             	mov    %eax,-0x74(%rbp)
   116ca:	8b 45 8c             	mov    -0x74(%rbp),%eax
   116cd:	83 f8 09             	cmp    $0x9,%eax
   116d0:	0f 8f e4 fc ff ff    	jg     113ba <func_96+0x3e>
   116d6:	8b 45 a0             	mov    -0x60(%rbp),%eax
   116d9:	48 98                	cltq   
   116db:	48 8b 4d c8          	mov    -0x38(%rbp),%rcx
   116df:	64 48 33 0c 25 28 00 	xor    %fs:0x28,%rcx
   116e6:	00 00 
   116e8:	74 05                	je     116ef <func_96+0x373>
   116ea:	e8 81 39 ff ff       	callq  5070 <__stack_chk_fail@plt>
   116ef:	48 83 c4 58          	add    $0x58,%rsp
   116f3:	5b                   	pop    %rbx
   116f4:	41 5c                	pop    %r12
   116f6:	41 5d                	pop    %r13
   116f8:	41 5e                	pop    %r14
   116fa:	41 5f                	pop    %r15
   116fc:	5d                   	pop    %rbp
   116fd:	c3                   	retq   

00000000000116fe <main>:
   116fe:	f3 0f 1e fa          	endbr64 
   11702:	55                   	push   %rbp
   11703:	48 89 e5             	mov    %rsp,%rbp
   11706:	48 83 ec 20          	sub    $0x20,%rsp
   1170a:	89 7d ec             	mov    %edi,-0x14(%rbp)
   1170d:	48 89 75 e0          	mov    %rsi,-0x20(%rbp)
   11711:	c7 45 fc 00 00 00 00 	movl   $0x0,-0x4(%rbp)
   11718:	83 7d ec 02          	cmpl   $0x2,-0x14(%rbp)
   1171c:	75 25                	jne    11743 <main+0x45>
   1171e:	48 8b 45 e0          	mov    -0x20(%rbp),%rax
   11722:	48 83 c0 08          	add    $0x8,%rax
   11726:	48 8b 00             	mov    (%rax),%rax
   11729:	48 8d 35 80 2c 00 00 	lea    0x2c80(%rip),%rsi        # 143b0 <g_1778+0x1354>
   11730:	48 89 c7             	mov    %rax,%rdi
   11733:	e8 58 39 ff ff       	callq  5090 <strcmp@plt>
   11738:	85 c0                	test   %eax,%eax
   1173a:	75 07                	jne    11743 <main+0x45>
   1173c:	c7 45 fc 01 00 00 00 	movl   $0x1,-0x4(%rbp)
   11743:	e8 41 3a ff ff       	callq  5189 <platform_main_begin>
   11748:	e8 4b 4e ff ff       	callq  6598 <crc32_gentab>
   1174d:	e8 63 50 ff ff       	callq  67b5 <func_1>
   11752:	8b 05 cc 58 00 00    	mov    0x58cc(%rip),%eax        # 17024 <g_11>
   11758:	48 98                	cltq   
   1175a:	8b 55 fc             	mov    -0x4(%rbp),%edx
   1175d:	48 8d 35 4e 2c 00 00 	lea    0x2c4e(%rip),%rsi        # 143b2 <g_1778+0x1356>
   11764:	48 89 c7             	mov    %rax,%rdi
   11767:	e8 87 4f ff ff       	callq  66f3 <transparent_crc>
   1176c:	8b 05 b6 58 00 00    	mov    0x58b6(%rip),%eax        # 17028 <g_14>
   11772:	48 98                	cltq   
   11774:	8b 55 fc             	mov    -0x4(%rbp),%edx
   11777:	48 8d 35 39 2c 00 00 	lea    0x2c39(%rip),%rsi        # 143b7 <g_1778+0x135b>
   1177e:	48 89 c7             	mov    %rax,%rdi
   11781:	e8 6d 4f ff ff       	callq  66f3 <transparent_crc>
   11786:	8b 05 a0 58 00 00    	mov    0x58a0(%rip),%eax        # 1702c <g_20>
   1178c:	48 98                	cltq   
   1178e:	8b 55 fc             	mov    -0x4(%rbp),%edx
   11791:	48 8d 35 24 2c 00 00 	lea    0x2c24(%rip),%rsi        # 143bc <g_1778+0x1360>
   11798:	48 89 c7             	mov    %rax,%rdi
   1179b:	e8 53 4f ff ff       	callq  66f3 <transparent_crc>
   117a0:	0f b6 05 89 58 00 00 	movzbl 0x5889(%rip),%eax        # 17030 <g_26>
   117a7:	48 0f be c0          	movsbq %al,%rax
   117ab:	8b 55 fc             	mov    -0x4(%rbp),%edx
   117ae:	48 8d 35 0c 2c 00 00 	lea    0x2c0c(%rip),%rsi        # 143c1 <g_1778+0x1365>
   117b5:	48 89 c7             	mov    %rax,%rdi
   117b8:	e8 36 4f ff ff       	callq  66f3 <transparent_crc>
   117bd:	0f b6 05 6d 58 00 00 	movzbl 0x586d(%rip),%eax        # 17031 <g_27>
   117c4:	48 0f be c0          	movsbq %al,%rax
   117c8:	8b 55 fc             	mov    -0x4(%rbp),%edx
   117cb:	48 8d 35 f4 2b 00 00 	lea    0x2bf4(%rip),%rsi        # 143c6 <g_1778+0x136a>
   117d2:	48 89 c7             	mov    %rax,%rdi
   117d5:	e8 19 4f ff ff       	callq  66f3 <transparent_crc>
   117da:	48 8b 05 e7 87 00 00 	mov    0x87e7(%rip),%rax        # 19fc8 <g_28>
   117e1:	48 89 c1             	mov    %rax,%rcx
   117e4:	8b 45 fc             	mov    -0x4(%rbp),%eax
   117e7:	89 c2                	mov    %eax,%edx
   117e9:	48 8d 35 db 2b 00 00 	lea    0x2bdb(%rip),%rsi        # 143cb <g_1778+0x136f>
   117f0:	48 89 cf             	mov    %rcx,%rdi
   117f3:	e8 fb 4e ff ff       	callq  66f3 <transparent_crc>
   117f8:	c7 45 f0 00 00 00 00 	movl   $0x0,-0x10(%rbp)
   117ff:	eb 4d                	jmp    1184e <main+0x150>
   11801:	8b 45 f0             	mov    -0x10(%rbp),%eax
   11804:	48 98                	cltq   
   11806:	48 8d 14 85 00 00 00 	lea    0x0(,%rax,4),%rdx
   1180d:	00 
   1180e:	48 8d 05 2b 58 00 00 	lea    0x582b(%rip),%rax        # 17040 <g_29>
   11815:	8b 04 02             	mov    (%rdx,%rax,1),%eax
   11818:	89 c1                	mov    %eax,%ecx
   1181a:	8b 45 fc             	mov    -0x4(%rbp),%eax
   1181d:	89 c2                	mov    %eax,%edx
   1181f:	48 8d 35 aa 2b 00 00 	lea    0x2baa(%rip),%rsi        # 143d0 <g_1778+0x1374>
   11826:	48 89 cf             	mov    %rcx,%rdi
   11829:	e8 c5 4e ff ff       	callq  66f3 <transparent_crc>
   1182e:	83 7d fc 00          	cmpl   $0x0,-0x4(%rbp)
   11832:	74 16                	je     1184a <main+0x14c>
   11834:	8b 45 f0             	mov    -0x10(%rbp),%eax
   11837:	89 c6                	mov    %eax,%esi
   11839:	48 8d 3d 98 2b 00 00 	lea    0x2b98(%rip),%rdi        # 143d8 <g_1778+0x137c>
   11840:	b8 00 00 00 00       	mov    $0x0,%eax
   11845:	e8 36 38 ff ff       	callq  5080 <printf@plt>
   1184a:	83 45 f0 01          	addl   $0x1,-0x10(%rbp)
   1184e:	83 7d f0 08          	cmpl   $0x8,-0x10(%rbp)
   11852:	7e ad                	jle    11801 <main+0x103>
   11854:	0f b7 05 09 58 00 00 	movzwl 0x5809(%rip),%eax        # 17064 <g_66>
   1185b:	0f b7 c0             	movzwl %ax,%eax
   1185e:	8b 55 fc             	mov    -0x4(%rbp),%edx
   11861:	48 8d 35 7e 2b 00 00 	lea    0x2b7e(%rip),%rsi        # 143e6 <g_1778+0x138a>
   11868:	48 89 c7             	mov    %rax,%rdi
   1186b:	e8 83 4e ff ff       	callq  66f3 <transparent_crc>
   11870:	0f b7 05 ef 57 00 00 	movzwl 0x57ef(%rip),%eax        # 17066 <g_69>
   11877:	48 0f bf c0          	movswq %ax,%rax
   1187b:	8b 55 fc             	mov    -0x4(%rbp),%edx
   1187e:	48 8d 35 66 2b 00 00 	lea    0x2b66(%rip),%rsi        # 143eb <g_1778+0x138f>
   11885:	48 89 c7             	mov    %rax,%rdi
   11888:	e8 66 4e ff ff       	callq  66f3 <transparent_crc>
   1188d:	c7 45 f0 00 00 00 00 	movl   $0x0,-0x10(%rbp)
   11894:	e9 a3 00 00 00       	jmpq   1193c <main+0x23e>
   11899:	c7 45 f4 00 00 00 00 	movl   $0x0,-0xc(%rbp)
   118a0:	e9 89 00 00 00       	jmpq   1192e <main+0x230>
   118a5:	c7 45 f8 00 00 00 00 	movl   $0x0,-0x8(%rbp)
   118ac:	eb 76                	jmp    11924 <main+0x226>
   118ae:	8b 45 f8             	mov    -0x8(%rbp),%eax
   118b1:	48 63 c8             	movslq %eax,%rcx
   118b4:	8b 45 f0             	mov    -0x10(%rbp),%eax
   118b7:	48 63 d0             	movslq %eax,%rdx
   118ba:	8b 45 f4             	mov    -0xc(%rbp),%eax
   118bd:	48 63 f0             	movslq %eax,%rsi
   118c0:	48 89 d0             	mov    %rdx,%rax
   118c3:	48 c1 e0 02          	shl    $0x2,%rax
   118c7:	48 01 d0             	add    %rdx,%rax
   118ca:	48 01 c0             	add    %rax,%rax
   118cd:	48 01 f0             	add    %rsi,%rax
   118d0:	48 01 c0             	add    %rax,%rax
   118d3:	48 01 c8             	add    %rcx,%rax
   118d6:	48 8d 14 85 00 00 00 	lea    0x0(,%rax,4),%rdx
   118dd:	00 
   118de:	48 8d 05 9b 57 00 00 	lea    0x579b(%rip),%rax        # 17080 <g_72>
   118e5:	8b 04 02             	mov    (%rdx,%rax,1),%eax
   118e8:	89 c1                	mov    %eax,%ecx
   118ea:	8b 45 fc             	mov    -0x4(%rbp),%eax
   118ed:	89 c2                	mov    %eax,%edx
   118ef:	48 8d 35 fa 2a 00 00 	lea    0x2afa(%rip),%rsi        # 143f0 <g_1778+0x1394>
   118f6:	48 89 cf             	mov    %rcx,%rdi
   118f9:	e8 f5 4d ff ff       	callq  66f3 <transparent_crc>
   118fe:	83 7d fc 00          	cmpl   $0x0,-0x4(%rbp)
   11902:	74 1c                	je     11920 <main+0x222>
   11904:	8b 4d f8             	mov    -0x8(%rbp),%ecx
   11907:	8b 55 f4             	mov    -0xc(%rbp),%edx
   1190a:	8b 45 f0             	mov    -0x10(%rbp),%eax
   1190d:	89 c6                	mov    %eax,%esi
   1190f:	48 8d 3d e8 2a 00 00 	lea    0x2ae8(%rip),%rdi        # 143fe <g_1778+0x13a2>
   11916:	b8 00 00 00 00       	mov    $0x0,%eax
   1191b:	e8 60 37 ff ff       	callq  5080 <printf@plt>
   11920:	83 45 f8 01          	addl   $0x1,-0x8(%rbp)
   11924:	83 7d f8 01          	cmpl   $0x1,-0x8(%rbp)
   11928:	7e 84                	jle    118ae <main+0x1b0>
   1192a:	83 45 f4 01          	addl   $0x1,-0xc(%rbp)
   1192e:	83 7d f4 09          	cmpl   $0x9,-0xc(%rbp)
   11932:	0f 8e 6d ff ff ff    	jle    118a5 <main+0x1a7>
   11938:	83 45 f0 01          	addl   $0x1,-0x10(%rbp)
   1193c:	83 7d f0 06          	cmpl   $0x6,-0x10(%rbp)
   11940:	0f 8e 53 ff ff ff    	jle    11899 <main+0x19b>
   11946:	0f b7 05 63 59 00 00 	movzwl 0x5963(%rip),%eax        # 172b0 <g_156>
   1194d:	48 0f bf c0          	movswq %ax,%rax
   11951:	8b 55 fc             	mov    -0x4(%rbp),%edx
   11954:	48 8d 35 b9 2a 00 00 	lea    0x2ab9(%rip),%rsi        # 14414 <g_1778+0x13b8>
   1195b:	48 89 c7             	mov    %rax,%rdi
   1195e:	e8 90 4d ff ff       	callq  66f3 <transparent_crc>
   11963:	8b 05 4b 59 00 00    	mov    0x594b(%rip),%eax        # 172b4 <g_159>
   11969:	48 98                	cltq   
   1196b:	8b 55 fc             	mov    -0x4(%rbp),%edx
   1196e:	48 8d 35 a5 2a 00 00 	lea    0x2aa5(%rip),%rsi        # 1441a <g_1778+0x13be>
   11975:	48 89 c7             	mov    %rax,%rdi
   11978:	e8 76 4d ff ff       	callq  66f3 <transparent_crc>
   1197d:	0f b7 05 34 59 00 00 	movzwl 0x5934(%rip),%eax        # 172b8 <g_162>
   11984:	0f b7 c0             	movzwl %ax,%eax
   11987:	8b 55 fc             	mov    -0x4(%rbp),%edx
   1198a:	48 8d 35 8f 2a 00 00 	lea    0x2a8f(%rip),%rsi        # 14420 <g_1778+0x13c4>
   11991:	48 89 c7             	mov    %rax,%rdi
   11994:	e8 5a 4d ff ff       	callq  66f3 <transparent_crc>
   11999:	8b 05 1d 59 00 00    	mov    0x591d(%rip),%eax        # 172bc <g_183>
   1199f:	48 98                	cltq   
   119a1:	8b 55 fc             	mov    -0x4(%rbp),%edx
   119a4:	48 8d 35 7b 2a 00 00 	lea    0x2a7b(%rip),%rsi        # 14426 <g_1778+0x13ca>
   119ab:	48 89 c7             	mov    %rax,%rdi
   119ae:	e8 40 4d ff ff       	callq  66f3 <transparent_crc>
   119b3:	0f b6 05 16 86 00 00 	movzbl 0x8616(%rip),%eax        # 19fd0 <g_194>
   119ba:	48 0f be c0          	movsbq %al,%rax
   119be:	8b 55 fc             	mov    -0x4(%rbp),%edx
   119c1:	48 8d 35 64 2a 00 00 	lea    0x2a64(%rip),%rsi        # 1442c <g_1778+0x13d0>
   119c8:	48 89 c7             	mov    %rax,%rdi
   119cb:	e8 23 4d ff ff       	callq  66f3 <transparent_crc>
   119d0:	c7 45 f0 00 00 00 00 	movl   $0x0,-0x10(%rbp)
   119d7:	eb 4a                	jmp    11a23 <main+0x325>
   119d9:	8b 45 f0             	mov    -0x10(%rbp),%eax
   119dc:	48 98                	cltq   
   119de:	48 8d 14 c5 00 00 00 	lea    0x0(,%rax,8),%rdx
   119e5:	00 
   119e6:	48 8d 05 d3 58 00 00 	lea    0x58d3(%rip),%rax        # 172c0 <g_196>
   119ed:	48 8b 04 02          	mov    (%rdx,%rax,1),%rax
   119f1:	8b 55 fc             	mov    -0x4(%rbp),%edx
   119f4:	48 8d 35 37 2a 00 00 	lea    0x2a37(%rip),%rsi        # 14432 <g_1778+0x13d6>
   119fb:	48 89 c7             	mov    %rax,%rdi
   119fe:	e8 f0 4c ff ff       	callq  66f3 <transparent_crc>
   11a03:	83 7d fc 00          	cmpl   $0x0,-0x4(%rbp)
   11a07:	74 16                	je     11a1f <main+0x321>
   11a09:	8b 45 f0             	mov    -0x10(%rbp),%eax
   11a0c:	89 c6                	mov    %eax,%esi
   11a0e:	48 8d 3d c3 29 00 00 	lea    0x29c3(%rip),%rdi        # 143d8 <g_1778+0x137c>
   11a15:	b8 00 00 00 00       	mov    $0x0,%eax
   11a1a:	e8 61 36 ff ff       	callq  5080 <printf@plt>
   11a1f:	83 45 f0 01          	addl   $0x1,-0x10(%rbp)
   11a23:	83 7d f0 01          	cmpl   $0x1,-0x10(%rbp)
   11a27:	7e b0                	jle    119d9 <main+0x2db>
   11a29:	c7 45 f0 00 00 00 00 	movl   $0x0,-0x10(%rbp)
   11a30:	eb 73                	jmp    11aa5 <main+0x3a7>
   11a32:	c7 45 f4 00 00 00 00 	movl   $0x0,-0xc(%rbp)
   11a39:	eb 60                	jmp    11a9b <main+0x39d>
   11a3b:	8b 45 f4             	mov    -0xc(%rbp),%eax
   11a3e:	48 63 c8             	movslq %eax,%rcx
   11a41:	8b 45 f0             	mov    -0x10(%rbp),%eax
   11a44:	48 63 d0             	movslq %eax,%rdx
   11a47:	48 89 d0             	mov    %rdx,%rax
   11a4a:	48 c1 e0 03          	shl    $0x3,%rax
   11a4e:	48 01 d0             	add    %rdx,%rax
   11a51:	48 01 c8             	add    %rcx,%rax
   11a54:	48 8d 14 00          	lea    (%rax,%rax,1),%rdx
   11a58:	48 8d 05 81 58 00 00 	lea    0x5881(%rip),%rax        # 172e0 <g_198>
   11a5f:	0f b7 04 02          	movzwl (%rdx,%rax,1),%eax
   11a63:	0f b7 c0             	movzwl %ax,%eax
   11a66:	8b 55 fc             	mov    -0x4(%rbp),%edx
   11a69:	48 8d 35 cb 29 00 00 	lea    0x29cb(%rip),%rsi        # 1443b <g_1778+0x13df>
   11a70:	48 89 c7             	mov    %rax,%rdi
   11a73:	e8 7b 4c ff ff       	callq  66f3 <transparent_crc>
   11a78:	83 7d fc 00          	cmpl   $0x0,-0x4(%rbp)
   11a7c:	74 19                	je     11a97 <main+0x399>
   11a7e:	8b 55 f4             	mov    -0xc(%rbp),%edx
   11a81:	8b 45 f0             	mov    -0x10(%rbp),%eax
   11a84:	89 c6                	mov    %eax,%esi
   11a86:	48 8d 3d ba 29 00 00 	lea    0x29ba(%rip),%rdi        # 14447 <g_1778+0x13eb>
   11a8d:	b8 00 00 00 00       	mov    $0x0,%eax
   11a92:	e8 e9 35 ff ff       	callq  5080 <printf@plt>
   11a97:	83 45 f4 01          	addl   $0x1,-0xc(%rbp)
   11a9b:	83 7d f4 08          	cmpl   $0x8,-0xc(%rbp)
   11a9f:	7e 9a                	jle    11a3b <main+0x33d>
   11aa1:	83 45 f0 01          	addl   $0x1,-0x10(%rbp)
   11aa5:	83 7d f0 06          	cmpl   $0x6,-0x10(%rbp)
   11aa9:	7e 87                	jle    11a32 <main+0x334>
   11aab:	48 8b 05 ae 58 00 00 	mov    0x58ae(%rip),%rax        # 17360 <g_214>
   11ab2:	8b 55 fc             	mov    -0x4(%rbp),%edx
   11ab5:	48 8d 35 9d 29 00 00 	lea    0x299d(%rip),%rsi        # 14459 <g_1778+0x13fd>
   11abc:	48 89 c7             	mov    %rax,%rdi
   11abf:	e8 2f 4c ff ff       	callq  66f3 <transparent_crc>
   11ac4:	0f b6 05 9d 58 00 00 	movzbl 0x589d(%rip),%eax        # 17368 <g_224>
   11acb:	48 0f be c0          	movsbq %al,%rax
   11acf:	8b 55 fc             	mov    -0x4(%rbp),%edx
   11ad2:	48 8d 35 86 29 00 00 	lea    0x2986(%rip),%rsi        # 1445f <g_1778+0x1403>
   11ad9:	48 89 c7             	mov    %rax,%rdi
   11adc:	e8 12 4c ff ff       	callq  66f3 <transparent_crc>
   11ae1:	c7 45 f0 00 00 00 00 	movl   $0x0,-0x10(%rbp)
   11ae8:	eb 77                	jmp    11b61 <main+0x463>
   11aea:	c7 45 f4 00 00 00 00 	movl   $0x0,-0xc(%rbp)
   11af1:	eb 64                	jmp    11b57 <main+0x459>
   11af3:	8b 45 f4             	mov    -0xc(%rbp),%eax
   11af6:	48 63 c8             	movslq %eax,%rcx
   11af9:	8b 45 f0             	mov    -0x10(%rbp),%eax
   11afc:	48 63 d0             	movslq %eax,%rdx
   11aff:	48 89 d0             	mov    %rdx,%rax
   11b02:	48 01 c0             	add    %rax,%rax
   11b05:	48 01 d0             	add    %rdx,%rax
   11b08:	48 01 c0             	add    %rax,%rax
   11b0b:	48 01 c8             	add    %rcx,%rax
   11b0e:	48 8d 14 85 00 00 00 	lea    0x0(,%rax,4),%rdx
   11b15:	00 
   11b16:	48 8d 05 63 58 00 00 	lea    0x5863(%rip),%rax        # 17380 <g_226>
   11b1d:	8b 04 02             	mov    (%rdx,%rax,1),%eax
   11b20:	48 98                	cltq   
   11b22:	8b 55 fc             	mov    -0x4(%rbp),%edx
   11b25:	48 8d 35 39 29 00 00 	lea    0x2939(%rip),%rsi        # 14465 <g_1778+0x1409>
   11b2c:	48 89 c7             	mov    %rax,%rdi
   11b2f:	e8 bf 4b ff ff       	callq  66f3 <transparent_crc>
   11b34:	83 7d fc 00          	cmpl   $0x0,-0x4(%rbp)
   11b38:	74 19                	je     11b53 <main+0x455>
   11b3a:	8b 55 f4             	mov    -0xc(%rbp),%edx
   11b3d:	8b 45 f0             	mov    -0x10(%rbp),%eax
   11b40:	89 c6                	mov    %eax,%esi
   11b42:	48 8d 3d fe 28 00 00 	lea    0x28fe(%rip),%rdi        # 14447 <g_1778+0x13eb>
   11b49:	b8 00 00 00 00       	mov    $0x0,%eax
   11b4e:	e8 2d 35 ff ff       	callq  5080 <printf@plt>
   11b53:	83 45 f4 01          	addl   $0x1,-0xc(%rbp)
   11b57:	83 7d f4 05          	cmpl   $0x5,-0xc(%rbp)
   11b5b:	7e 96                	jle    11af3 <main+0x3f5>
   11b5d:	83 45 f0 01          	addl   $0x1,-0x10(%rbp)
   11b61:	83 7d f0 02          	cmpl   $0x2,-0x10(%rbp)
   11b65:	7e 83                	jle    11aea <main+0x3ec>
   11b67:	8b 05 5b 58 00 00    	mov    0x585b(%rip),%eax        # 173c8 <g_228>
   11b6d:	48 98                	cltq   
   11b6f:	8b 55 fc             	mov    -0x4(%rbp),%edx
   11b72:	48 8d 35 f8 28 00 00 	lea    0x28f8(%rip),%rsi        # 14471 <g_1778+0x1415>
   11b79:	48 89 c7             	mov    %rax,%rdi
   11b7c:	e8 72 4b ff ff       	callq  66f3 <transparent_crc>
   11b81:	48 8b 05 48 58 00 00 	mov    0x5848(%rip),%rax        # 173d0 <g_229>
   11b88:	48 89 c1             	mov    %rax,%rcx
   11b8b:	8b 45 fc             	mov    -0x4(%rbp),%eax
   11b8e:	89 c2                	mov    %eax,%edx
   11b90:	48 8d 35 e0 28 00 00 	lea    0x28e0(%rip),%rsi        # 14477 <g_1778+0x141b>
   11b97:	48 89 cf             	mov    %rcx,%rdi
   11b9a:	e8 54 4b ff ff       	callq  66f3 <transparent_crc>
   11b9f:	8b 05 2f 84 00 00    	mov    0x842f(%rip),%eax        # 19fd4 <g_231>
   11ba5:	48 98                	cltq   
   11ba7:	8b 55 fc             	mov    -0x4(%rbp),%edx
   11baa:	48 8d 35 cc 28 00 00 	lea    0x28cc(%rip),%rsi        # 1447d <g_1778+0x1421>
   11bb1:	48 89 c7             	mov    %rax,%rdi
   11bb4:	e8 3a 4b ff ff       	callq  66f3 <transparent_crc>
   11bb9:	0f b7 05 18 58 00 00 	movzwl 0x5818(%rip),%eax        # 173d8 <g_232>
   11bc0:	48 0f bf c0          	movswq %ax,%rax
   11bc4:	8b 55 fc             	mov    -0x4(%rbp),%edx
   11bc7:	48 8d 35 b5 28 00 00 	lea    0x28b5(%rip),%rsi        # 14483 <g_1778+0x1427>
   11bce:	48 89 c7             	mov    %rax,%rdi
   11bd1:	e8 1d 4b ff ff       	callq  66f3 <transparent_crc>
   11bd6:	0f b6 05 fd 57 00 00 	movzbl 0x57fd(%rip),%eax        # 173da <g_233>
   11bdd:	48 0f be c0          	movsbq %al,%rax
   11be1:	8b 55 fc             	mov    -0x4(%rbp),%edx
   11be4:	48 8d 35 9e 28 00 00 	lea    0x289e(%rip),%rsi        # 14489 <g_1778+0x142d>
   11beb:	48 89 c7             	mov    %rax,%rdi
   11bee:	e8 00 4b ff ff       	callq  66f3 <transparent_crc>
   11bf3:	0f b7 05 e2 57 00 00 	movzwl 0x57e2(%rip),%eax        # 173dc <g_234>
   11bfa:	0f b7 c0             	movzwl %ax,%eax
   11bfd:	8b 55 fc             	mov    -0x4(%rbp),%edx
   11c00:	48 8d 35 88 28 00 00 	lea    0x2888(%rip),%rsi        # 1448f <g_1778+0x1433>
   11c07:	48 89 c7             	mov    %rax,%rdi
   11c0a:	e8 e4 4a ff ff       	callq  66f3 <transparent_crc>
   11c0f:	b8 05 00 00 00       	mov    $0x5,%eax
   11c14:	0f b7 c0             	movzwl %ax,%eax
   11c17:	8b 55 fc             	mov    -0x4(%rbp),%edx
   11c1a:	48 8d 35 74 28 00 00 	lea    0x2874(%rip),%rsi        # 14495 <g_1778+0x1439>
   11c21:	48 89 c7             	mov    %rax,%rdi
   11c24:	e8 ca 4a ff ff       	callq  66f3 <transparent_crc>
   11c29:	0f b7 05 ae 57 00 00 	movzwl 0x57ae(%rip),%eax        # 173de <g_299>
   11c30:	48 0f bf c0          	movswq %ax,%rax
   11c34:	8b 55 fc             	mov    -0x4(%rbp),%edx
   11c37:	48 8d 35 5d 28 00 00 	lea    0x285d(%rip),%rsi        # 1449b <g_1778+0x143f>
   11c3e:	48 89 c7             	mov    %rax,%rdi
   11c41:	e8 ad 4a ff ff       	callq  66f3 <transparent_crc>
   11c46:	c7 45 f0 00 00 00 00 	movl   $0x0,-0x10(%rbp)
   11c4d:	eb 49                	jmp    11c98 <main+0x59a>
   11c4f:	8b 45 f0             	mov    -0x10(%rbp),%eax
   11c52:	48 98                	cltq   
   11c54:	48 8d 14 00          	lea    (%rax,%rax,1),%rdx
   11c58:	48 8d 05 81 57 00 00 	lea    0x5781(%rip),%rax        # 173e0 <g_304>
   11c5f:	0f b7 04 02          	movzwl (%rdx,%rax,1),%eax
   11c63:	0f b7 c0             	movzwl %ax,%eax
   11c66:	8b 55 fc             	mov    -0x4(%rbp),%edx
   11c69:	48 8d 35 31 28 00 00 	lea    0x2831(%rip),%rsi        # 144a1 <g_1778+0x1445>
   11c70:	48 89 c7             	mov    %rax,%rdi
   11c73:	e8 7b 4a ff ff       	callq  66f3 <transparent_crc>
   11c78:	83 7d fc 00          	cmpl   $0x0,-0x4(%rbp)
   11c7c:	74 16                	je     11c94 <main+0x596>
   11c7e:	8b 45 f0             	mov    -0x10(%rbp),%eax
   11c81:	89 c6                	mov    %eax,%esi
   11c83:	48 8d 3d 4e 27 00 00 	lea    0x274e(%rip),%rdi        # 143d8 <g_1778+0x137c>
   11c8a:	b8 00 00 00 00       	mov    $0x0,%eax
   11c8f:	e8 ec 33 ff ff       	callq  5080 <printf@plt>
   11c94:	83 45 f0 01          	addl   $0x1,-0x10(%rbp)
   11c98:	83 7d f0 01          	cmpl   $0x1,-0x10(%rbp)
   11c9c:	7e b1                	jle    11c4f <main+0x551>
   11c9e:	8b 05 40 57 00 00    	mov    0x5740(%rip),%eax        # 173e4 <g_326>
   11ca4:	89 c1                	mov    %eax,%ecx
   11ca6:	8b 45 fc             	mov    -0x4(%rbp),%eax
   11ca9:	89 c2                	mov    %eax,%edx
   11cab:	48 8d 35 f8 27 00 00 	lea    0x27f8(%rip),%rsi        # 144aa <g_1778+0x144e>
   11cb2:	48 89 cf             	mov    %rcx,%rdi
   11cb5:	e8 39 4a ff ff       	callq  66f3 <transparent_crc>
   11cba:	0f b7 05 27 57 00 00 	movzwl 0x5727(%rip),%eax        # 173e8 <g_449>
   11cc1:	48 0f bf c0          	movswq %ax,%rax
   11cc5:	8b 55 fc             	mov    -0x4(%rbp),%edx
   11cc8:	48 8d 35 e1 27 00 00 	lea    0x27e1(%rip),%rsi        # 144b0 <g_1778+0x1454>
   11ccf:	48 89 c7             	mov    %rax,%rdi
   11cd2:	e8 1c 4a ff ff       	callq  66f3 <transparent_crc>
   11cd7:	c7 45 f0 00 00 00 00 	movl   $0x0,-0x10(%rbp)
   11cde:	eb 45                	jmp    11d25 <main+0x627>
   11ce0:	8b 45 f0             	mov    -0x10(%rbp),%eax
   11ce3:	48 98                	cltq   
   11ce5:	48 8d 15 fe 56 00 00 	lea    0x56fe(%rip),%rdx        # 173ea <g_477>
   11cec:	0f b6 04 10          	movzbl (%rax,%rdx,1),%eax
   11cf0:	0f b6 c0             	movzbl %al,%eax
   11cf3:	8b 55 fc             	mov    -0x4(%rbp),%edx
   11cf6:	48 8d 35 b9 27 00 00 	lea    0x27b9(%rip),%rsi        # 144b6 <g_1778+0x145a>
   11cfd:	48 89 c7             	mov    %rax,%rdi
   11d00:	e8 ee 49 ff ff       	callq  66f3 <transparent_crc>
   11d05:	83 7d fc 00          	cmpl   $0x0,-0x4(%rbp)
   11d09:	74 16                	je     11d21 <main+0x623>
   11d0b:	8b 45 f0             	mov    -0x10(%rbp),%eax
   11d0e:	89 c6                	mov    %eax,%esi
   11d10:	48 8d 3d c1 26 00 00 	lea    0x26c1(%rip),%rdi        # 143d8 <g_1778+0x137c>
   11d17:	b8 00 00 00 00       	mov    $0x0,%eax
   11d1c:	e8 5f 33 ff ff       	callq  5080 <printf@plt>
   11d21:	83 45 f0 01          	addl   $0x1,-0x10(%rbp)
   11d25:	83 7d f0 03          	cmpl   $0x3,-0x10(%rbp)
   11d29:	7e b5                	jle    11ce0 <main+0x5e2>
   11d2b:	0f b7 05 bc 56 00 00 	movzwl 0x56bc(%rip),%eax        # 173ee <g_511>
   11d32:	48 0f bf c0          	movswq %ax,%rax
   11d36:	8b 55 fc             	mov    -0x4(%rbp),%edx
   11d39:	48 8d 35 7f 27 00 00 	lea    0x277f(%rip),%rsi        # 144bf <g_1778+0x1463>
   11d40:	48 89 c7             	mov    %rax,%rdi
   11d43:	e8 ab 49 ff ff       	callq  66f3 <transparent_crc>
   11d48:	0f b6 05 a1 56 00 00 	movzbl 0x56a1(%rip),%eax        # 173f0 <g_612>
   11d4f:	0f b6 c0             	movzbl %al,%eax
   11d52:	8b 55 fc             	mov    -0x4(%rbp),%edx
   11d55:	48 8d 35 69 27 00 00 	lea    0x2769(%rip),%rsi        # 144c5 <g_1778+0x1469>
   11d5c:	48 89 c7             	mov    %rax,%rdi
   11d5f:	e8 8f 49 ff ff       	callq  66f3 <transparent_crc>
   11d64:	0f b6 05 86 56 00 00 	movzbl 0x5686(%rip),%eax        # 173f1 <g_653>
   11d6b:	0f b6 c0             	movzbl %al,%eax
   11d6e:	8b 55 fc             	mov    -0x4(%rbp),%edx
   11d71:	48 8d 35 53 27 00 00 	lea    0x2753(%rip),%rsi        # 144cb <g_1778+0x146f>
   11d78:	48 89 c7             	mov    %rax,%rdi
   11d7b:	e8 73 49 ff ff       	callq  66f3 <transparent_crc>
   11d80:	8b 05 7a 56 00 00    	mov    0x567a(%rip),%eax        # 17400 <g_831>
   11d86:	48 98                	cltq   
   11d88:	8b 55 fc             	mov    -0x4(%rbp),%edx
   11d8b:	48 8d 35 3f 27 00 00 	lea    0x273f(%rip),%rsi        # 144d1 <g_1778+0x1475>
   11d92:	48 89 c7             	mov    %rax,%rdi
   11d95:	e8 59 49 ff ff       	callq  66f3 <transparent_crc>
   11d9a:	8b 05 48 82 00 00    	mov    0x8248(%rip),%eax        # 19fe8 <g_832>
   11da0:	48 98                	cltq   
   11da2:	8b 55 fc             	mov    -0x4(%rbp),%edx
   11da5:	48 8d 35 2b 27 00 00 	lea    0x272b(%rip),%rsi        # 144d7 <g_1778+0x147b>
   11dac:	48 89 c7             	mov    %rax,%rdi
   11daf:	e8 3f 49 ff ff       	callq  66f3 <transparent_crc>
   11db4:	8b 05 4a 56 00 00    	mov    0x564a(%rip),%eax        # 17404 <g_833>
   11dba:	48 98                	cltq   
   11dbc:	8b 55 fc             	mov    -0x4(%rbp),%edx
   11dbf:	48 8d 35 17 27 00 00 	lea    0x2717(%rip),%rsi        # 144dd <g_1778+0x1481>
   11dc6:	48 89 c7             	mov    %rax,%rdi
   11dc9:	e8 25 49 ff ff       	callq  66f3 <transparent_crc>
   11dce:	8b 05 34 56 00 00    	mov    0x5634(%rip),%eax        # 17408 <g_834>
   11dd4:	48 98                	cltq   
   11dd6:	8b 55 fc             	mov    -0x4(%rbp),%edx
   11dd9:	48 8d 35 03 27 00 00 	lea    0x2703(%rip),%rsi        # 144e3 <g_1778+0x1487>
   11de0:	48 89 c7             	mov    %rax,%rdi
   11de3:	e8 0b 49 ff ff       	callq  66f3 <transparent_crc>
   11de8:	c7 45 f0 00 00 00 00 	movl   $0x0,-0x10(%rbp)
   11def:	eb 4b                	jmp    11e3c <main+0x73e>
   11df1:	8b 45 f0             	mov    -0x10(%rbp),%eax
   11df4:	48 98                	cltq   
   11df6:	48 8d 14 85 00 00 00 	lea    0x0(,%rax,4),%rdx
   11dfd:	00 
   11dfe:	48 8d 05 fb 81 00 00 	lea    0x81fb(%rip),%rax        # 1a000 <g_835>
   11e05:	8b 04 02             	mov    (%rdx,%rax,1),%eax
   11e08:	48 98                	cltq   
   11e0a:	8b 55 fc             	mov    -0x4(%rbp),%edx
   11e0d:	48 8d 35 d5 26 00 00 	lea    0x26d5(%rip),%rsi        # 144e9 <g_1778+0x148d>
   11e14:	48 89 c7             	mov    %rax,%rdi
   11e17:	e8 d7 48 ff ff       	callq  66f3 <transparent_crc>
   11e1c:	83 7d fc 00          	cmpl   $0x0,-0x4(%rbp)
   11e20:	74 16                	je     11e38 <main+0x73a>
   11e22:	8b 45 f0             	mov    -0x10(%rbp),%eax
   11e25:	89 c6                	mov    %eax,%esi
   11e27:	48 8d 3d aa 25 00 00 	lea    0x25aa(%rip),%rdi        # 143d8 <g_1778+0x137c>
   11e2e:	b8 00 00 00 00       	mov    $0x0,%eax
   11e33:	e8 48 32 ff ff       	callq  5080 <printf@plt>
   11e38:	83 45 f0 01          	addl   $0x1,-0x10(%rbp)
   11e3c:	83 7d f0 07          	cmpl   $0x7,-0x10(%rbp)
   11e40:	7e af                	jle    11df1 <main+0x6f3>
   11e42:	8b 05 c4 55 00 00    	mov    0x55c4(%rip),%eax        # 1740c <g_836>
   11e48:	48 98                	cltq   
   11e4a:	8b 55 fc             	mov    -0x4(%rbp),%edx
   11e4d:	48 8d 35 9e 26 00 00 	lea    0x269e(%rip),%rsi        # 144f2 <g_1778+0x1496>
   11e54:	48 89 c7             	mov    %rax,%rdi
   11e57:	e8 97 48 ff ff       	callq  66f3 <transparent_crc>
   11e5c:	8b 05 be 81 00 00    	mov    0x81be(%rip),%eax        # 1a020 <g_837>
   11e62:	48 98                	cltq   
   11e64:	8b 55 fc             	mov    -0x4(%rbp),%edx
   11e67:	48 8d 35 8a 26 00 00 	lea    0x268a(%rip),%rsi        # 144f8 <g_1778+0x149c>
   11e6e:	48 89 c7             	mov    %rax,%rdi
   11e71:	e8 7d 48 ff ff       	callq  66f3 <transparent_crc>
   11e76:	c7 45 f0 00 00 00 00 	movl   $0x0,-0x10(%rbp)
   11e7d:	eb 6d                	jmp    11eec <main+0x7ee>
   11e7f:	c7 45 f4 00 00 00 00 	movl   $0x0,-0xc(%rbp)
   11e86:	eb 5a                	jmp    11ee2 <main+0x7e4>
   11e88:	8b 45 f4             	mov    -0xc(%rbp),%eax
   11e8b:	48 98                	cltq   
   11e8d:	8b 55 f0             	mov    -0x10(%rbp),%edx
   11e90:	48 63 d2             	movslq %edx,%rdx
   11e93:	48 01 d2             	add    %rdx,%rdx
   11e96:	48 01 d0             	add    %rdx,%rax
   11e99:	48 8d 14 85 00 00 00 	lea    0x0(,%rax,4),%rdx
   11ea0:	00 
   11ea1:	48 8d 05 78 55 00 00 	lea    0x5578(%rip),%rax        # 17420 <g_838>
   11ea8:	8b 04 02             	mov    (%rdx,%rax,1),%eax
   11eab:	48 98                	cltq   
   11ead:	8b 55 fc             	mov    -0x4(%rbp),%edx
   11eb0:	48 8d 35 47 26 00 00 	lea    0x2647(%rip),%rsi        # 144fe <g_1778+0x14a2>
   11eb7:	48 89 c7             	mov    %rax,%rdi
   11eba:	e8 34 48 ff ff       	callq  66f3 <transparent_crc>
   11ebf:	83 7d fc 00          	cmpl   $0x0,-0x4(%rbp)
   11ec3:	74 19                	je     11ede <main+0x7e0>
   11ec5:	8b 55 f4             	mov    -0xc(%rbp),%edx
   11ec8:	8b 45 f0             	mov    -0x10(%rbp),%eax
   11ecb:	89 c6                	mov    %eax,%esi
   11ecd:	48 8d 3d 73 25 00 00 	lea    0x2573(%rip),%rdi        # 14447 <g_1778+0x13eb>
   11ed4:	b8 00 00 00 00       	mov    $0x0,%eax
   11ed9:	e8 a2 31 ff ff       	callq  5080 <printf@plt>
   11ede:	83 45 f4 01          	addl   $0x1,-0xc(%rbp)
   11ee2:	83 7d f4 01          	cmpl   $0x1,-0xc(%rbp)
   11ee6:	7e a0                	jle    11e88 <main+0x78a>
   11ee8:	83 45 f0 01          	addl   $0x1,-0x10(%rbp)
   11eec:	83 7d f0 03          	cmpl   $0x3,-0x10(%rbp)
   11ef0:	7e 8d                	jle    11e7f <main+0x781>
   11ef2:	c7 45 f0 00 00 00 00 	movl   $0x0,-0x10(%rbp)
   11ef9:	e9 94 00 00 00       	jmpq   11f92 <main+0x894>
   11efe:	c7 45 f4 00 00 00 00 	movl   $0x0,-0xc(%rbp)
   11f05:	eb 7d                	jmp    11f84 <main+0x886>
   11f07:	c7 45 f8 00 00 00 00 	movl   $0x0,-0x8(%rbp)
   11f0e:	eb 6a                	jmp    11f7a <main+0x87c>
   11f10:	8b 45 f8             	mov    -0x8(%rbp),%eax
   11f13:	48 98                	cltq   
   11f15:	8b 55 f0             	mov    -0x10(%rbp),%edx
   11f18:	48 63 ca             	movslq %edx,%rcx
   11f1b:	8b 55 f4             	mov    -0xc(%rbp),%edx
   11f1e:	48 63 d2             	movslq %edx,%rdx
   11f21:	48 01 c9             	add    %rcx,%rcx
   11f24:	48 01 ca             	add    %rcx,%rdx
   11f27:	48 c1 e2 03          	shl    $0x3,%rdx
   11f2b:	48 01 d0             	add    %rdx,%rax
   11f2e:	48 8d 14 85 00 00 00 	lea    0x0(,%rax,4),%rdx
   11f35:	00 
   11f36:	48 8d 05 03 55 00 00 	lea    0x5503(%rip),%rax        # 17440 <g_839>
   11f3d:	8b 04 02             	mov    (%rdx,%rax,1),%eax
   11f40:	48 98                	cltq   
   11f42:	8b 55 fc             	mov    -0x4(%rbp),%edx
   11f45:	48 8d 35 be 25 00 00 	lea    0x25be(%rip),%rsi        # 1450a <g_1778+0x14ae>
   11f4c:	48 89 c7             	mov    %rax,%rdi
   11f4f:	e8 9f 47 ff ff       	callq  66f3 <transparent_crc>
   11f54:	83 7d fc 00          	cmpl   $0x0,-0x4(%rbp)
   11f58:	74 1c                	je     11f76 <main+0x878>
   11f5a:	8b 4d f8             	mov    -0x8(%rbp),%ecx
   11f5d:	8b 55 f4             	mov    -0xc(%rbp),%edx
   11f60:	8b 45 f0             	mov    -0x10(%rbp),%eax
   11f63:	89 c6                	mov    %eax,%esi
   11f65:	48 8d 3d 92 24 00 00 	lea    0x2492(%rip),%rdi        # 143fe <g_1778+0x13a2>
   11f6c:	b8 00 00 00 00       	mov    $0x0,%eax
   11f71:	e8 0a 31 ff ff       	callq  5080 <printf@plt>
   11f76:	83 45 f8 01          	addl   $0x1,-0x8(%rbp)
   11f7a:	83 7d f8 07          	cmpl   $0x7,-0x8(%rbp)
   11f7e:	7e 90                	jle    11f10 <main+0x812>
   11f80:	83 45 f4 01          	addl   $0x1,-0xc(%rbp)
   11f84:	83 7d f4 01          	cmpl   $0x1,-0xc(%rbp)
   11f88:	0f 8e 79 ff ff ff    	jle    11f07 <main+0x809>
   11f8e:	83 45 f0 01          	addl   $0x1,-0x10(%rbp)
   11f92:	83 7d f0 06          	cmpl   $0x6,-0x10(%rbp)
   11f96:	0f 8e 62 ff ff ff    	jle    11efe <main+0x800>
   11f9c:	8b 05 5e 56 00 00    	mov    0x565e(%rip),%eax        # 17600 <g_840>
   11fa2:	48 98                	cltq   
   11fa4:	8b 55 fc             	mov    -0x4(%rbp),%edx
   11fa7:	48 8d 35 6b 25 00 00 	lea    0x256b(%rip),%rsi        # 14519 <g_1778+0x14bd>
   11fae:	48 89 c7             	mov    %rax,%rdi
   11fb1:	e8 3d 47 ff ff       	callq  66f3 <transparent_crc>
   11fb6:	8b 05 48 56 00 00    	mov    0x5648(%rip),%eax        # 17604 <g_841>
   11fbc:	48 98                	cltq   
   11fbe:	8b 55 fc             	mov    -0x4(%rbp),%edx
   11fc1:	48 8d 35 57 25 00 00 	lea    0x2557(%rip),%rsi        # 1451f <g_1778+0x14c3>
   11fc8:	48 89 c7             	mov    %rax,%rdi
   11fcb:	e8 23 47 ff ff       	callq  66f3 <transparent_crc>
   11fd0:	8b 05 32 56 00 00    	mov    0x5632(%rip),%eax        # 17608 <g_842>
   11fd6:	48 98                	cltq   
   11fd8:	8b 55 fc             	mov    -0x4(%rbp),%edx
   11fdb:	48 8d 35 43 25 00 00 	lea    0x2543(%rip),%rsi        # 14525 <g_1778+0x14c9>
   11fe2:	48 89 c7             	mov    %rax,%rdi
   11fe5:	e8 09 47 ff ff       	callq  66f3 <transparent_crc>
   11fea:	8b 05 34 80 00 00    	mov    0x8034(%rip),%eax        # 1a024 <g_843>
   11ff0:	48 98                	cltq   
   11ff2:	8b 55 fc             	mov    -0x4(%rbp),%edx
   11ff5:	48 8d 35 2f 25 00 00 	lea    0x252f(%rip),%rsi        # 1452b <g_1778+0x14cf>
   11ffc:	48 89 c7             	mov    %rax,%rdi
   11fff:	e8 ef 46 ff ff       	callq  66f3 <transparent_crc>
   12004:	8b 05 02 56 00 00    	mov    0x5602(%rip),%eax        # 1760c <g_844>
   1200a:	48 98                	cltq   
   1200c:	8b 55 fc             	mov    -0x4(%rbp),%edx
   1200f:	48 8d 35 1b 25 00 00 	lea    0x251b(%rip),%rsi        # 14531 <g_1778+0x14d5>
   12016:	48 89 c7             	mov    %rax,%rdi
   12019:	e8 d5 46 ff ff       	callq  66f3 <transparent_crc>
   1201e:	8b 05 ec 55 00 00    	mov    0x55ec(%rip),%eax        # 17610 <g_845>
   12024:	48 98                	cltq   
   12026:	8b 55 fc             	mov    -0x4(%rbp),%edx
   12029:	48 8d 35 07 25 00 00 	lea    0x2507(%rip),%rsi        # 14537 <g_1778+0x14db>
   12030:	48 89 c7             	mov    %rax,%rdi
   12033:	e8 bb 46 ff ff       	callq  66f3 <transparent_crc>
   12038:	8b 05 d6 55 00 00    	mov    0x55d6(%rip),%eax        # 17614 <g_846>
   1203e:	48 98                	cltq   
   12040:	8b 55 fc             	mov    -0x4(%rbp),%edx
   12043:	48 8d 35 f3 24 00 00 	lea    0x24f3(%rip),%rsi        # 1453d <g_1778+0x14e1>
   1204a:	48 89 c7             	mov    %rax,%rdi
   1204d:	e8 a1 46 ff ff       	callq  66f3 <transparent_crc>
   12052:	8b 05 c0 55 00 00    	mov    0x55c0(%rip),%eax        # 17618 <g_847>
   12058:	48 98                	cltq   
   1205a:	8b 55 fc             	mov    -0x4(%rbp),%edx
   1205d:	48 8d 35 df 24 00 00 	lea    0x24df(%rip),%rsi        # 14543 <g_1778+0x14e7>
   12064:	48 89 c7             	mov    %rax,%rdi
   12067:	e8 87 46 ff ff       	callq  66f3 <transparent_crc>
   1206c:	8b 05 aa 55 00 00    	mov    0x55aa(%rip),%eax        # 1761c <g_848>
   12072:	48 98                	cltq   
   12074:	8b 55 fc             	mov    -0x4(%rbp),%edx
   12077:	48 8d 35 cb 24 00 00 	lea    0x24cb(%rip),%rsi        # 14549 <g_1778+0x14ed>
   1207e:	48 89 c7             	mov    %rax,%rdi
   12081:	e8 6d 46 ff ff       	callq  66f3 <transparent_crc>
   12086:	8b 05 94 55 00 00    	mov    0x5594(%rip),%eax        # 17620 <g_849>
   1208c:	48 98                	cltq   
   1208e:	8b 55 fc             	mov    -0x4(%rbp),%edx
   12091:	48 8d 35 b7 24 00 00 	lea    0x24b7(%rip),%rsi        # 1454f <g_1778+0x14f3>
   12098:	48 89 c7             	mov    %rax,%rdi
   1209b:	e8 53 46 ff ff       	callq  66f3 <transparent_crc>
   120a0:	8b 05 7e 55 00 00    	mov    0x557e(%rip),%eax        # 17624 <g_850>
   120a6:	48 98                	cltq   
   120a8:	8b 55 fc             	mov    -0x4(%rbp),%edx
   120ab:	48 8d 35 a3 24 00 00 	lea    0x24a3(%rip),%rsi        # 14555 <g_1778+0x14f9>
   120b2:	48 89 c7             	mov    %rax,%rdi
   120b5:	e8 39 46 ff ff       	callq  66f3 <transparent_crc>
   120ba:	8b 05 68 55 00 00    	mov    0x5568(%rip),%eax        # 17628 <g_851>
   120c0:	48 98                	cltq   
   120c2:	8b 55 fc             	mov    -0x4(%rbp),%edx
   120c5:	48 8d 35 8f 24 00 00 	lea    0x248f(%rip),%rsi        # 1455b <g_1778+0x14ff>
   120cc:	48 89 c7             	mov    %rax,%rdi
   120cf:	e8 1f 46 ff ff       	callq  66f3 <transparent_crc>
   120d4:	8b 05 4e 7f 00 00    	mov    0x7f4e(%rip),%eax        # 1a028 <g_852>
   120da:	48 98                	cltq   
   120dc:	8b 55 fc             	mov    -0x4(%rbp),%edx
   120df:	48 8d 35 7b 24 00 00 	lea    0x247b(%rip),%rsi        # 14561 <g_1778+0x1505>
   120e6:	48 89 c7             	mov    %rax,%rdi
   120e9:	e8 05 46 ff ff       	callq  66f3 <transparent_crc>
   120ee:	8b 05 38 55 00 00    	mov    0x5538(%rip),%eax        # 1762c <g_853>
   120f4:	48 98                	cltq   
   120f6:	8b 55 fc             	mov    -0x4(%rbp),%edx
   120f9:	48 8d 35 67 24 00 00 	lea    0x2467(%rip),%rsi        # 14567 <g_1778+0x150b>
   12100:	48 89 c7             	mov    %rax,%rdi
   12103:	e8 eb 45 ff ff       	callq  66f3 <transparent_crc>
   12108:	8b 05 22 55 00 00    	mov    0x5522(%rip),%eax        # 17630 <g_854>
   1210e:	48 98                	cltq   
   12110:	8b 55 fc             	mov    -0x4(%rbp),%edx
   12113:	48 8d 35 53 24 00 00 	lea    0x2453(%rip),%rsi        # 1456d <g_1778+0x1511>
   1211a:	48 89 c7             	mov    %rax,%rdi
   1211d:	e8 d1 45 ff ff       	callq  66f3 <transparent_crc>
   12122:	8b 05 0c 55 00 00    	mov    0x550c(%rip),%eax        # 17634 <g_855>
   12128:	48 98                	cltq   
   1212a:	8b 55 fc             	mov    -0x4(%rbp),%edx
   1212d:	48 8d 35 3f 24 00 00 	lea    0x243f(%rip),%rsi        # 14573 <g_1778+0x1517>
   12134:	48 89 c7             	mov    %rax,%rdi
   12137:	e8 b7 45 ff ff       	callq  66f3 <transparent_crc>
   1213c:	8b 05 ea 7e 00 00    	mov    0x7eea(%rip),%eax        # 1a02c <g_856>
   12142:	48 98                	cltq   
   12144:	8b 55 fc             	mov    -0x4(%rbp),%edx
   12147:	48 8d 35 2b 24 00 00 	lea    0x242b(%rip),%rsi        # 14579 <g_1778+0x151d>
   1214e:	48 89 c7             	mov    %rax,%rdi
   12151:	e8 9d 45 ff ff       	callq  66f3 <transparent_crc>
   12156:	c7 45 f0 00 00 00 00 	movl   $0x0,-0x10(%rbp)
   1215d:	eb 74                	jmp    121d3 <main+0xad5>
   1215f:	c7 45 f4 00 00 00 00 	movl   $0x0,-0xc(%rbp)
   12166:	eb 61                	jmp    121c9 <main+0xacb>
   12168:	8b 45 f4             	mov    -0xc(%rbp),%eax
   1216b:	48 63 c8             	movslq %eax,%rcx
   1216e:	8b 45 f0             	mov    -0x10(%rbp),%eax
   12171:	48 63 d0             	movslq %eax,%rdx
   12174:	48 89 d0             	mov    %rdx,%rax
   12177:	48 01 c0             	add    %rax,%rax
   1217a:	48 01 d0             	add    %rdx,%rax
   1217d:	48 01 c8             	add    %rcx,%rax
   12180:	48 8d 14 85 00 00 00 	lea    0x0(,%rax,4),%rdx
   12187:	00 
   12188:	48 8d 05 b1 54 00 00 	lea    0x54b1(%rip),%rax        # 17640 <g_857>
   1218f:	8b 04 02             	mov    (%rdx,%rax,1),%eax
   12192:	48 98                	cltq   
   12194:	8b 55 fc             	mov    -0x4(%rbp),%edx
   12197:	48 8d 35 e1 23 00 00 	lea    0x23e1(%rip),%rsi        # 1457f <g_1778+0x1523>
   1219e:	48 89 c7             	mov    %rax,%rdi
   121a1:	e8 4d 45 ff ff       	callq  66f3 <transparent_crc>
   121a6:	83 7d fc 00          	cmpl   $0x0,-0x4(%rbp)
   121aa:	74 19                	je     121c5 <main+0xac7>
   121ac:	8b 55 f4             	mov    -0xc(%rbp),%edx
   121af:	8b 45 f0             	mov    -0x10(%rbp),%eax
   121b2:	89 c6                	mov    %eax,%esi
   121b4:	48 8d 3d 8c 22 00 00 	lea    0x228c(%rip),%rdi        # 14447 <g_1778+0x13eb>
   121bb:	b8 00 00 00 00       	mov    $0x0,%eax
   121c0:	e8 bb 2e ff ff       	callq  5080 <printf@plt>
   121c5:	83 45 f4 01          	addl   $0x1,-0xc(%rbp)
   121c9:	83 7d f4 02          	cmpl   $0x2,-0xc(%rbp)
   121cd:	7e 99                	jle    12168 <main+0xa6a>
   121cf:	83 45 f0 01          	addl   $0x1,-0x10(%rbp)
   121d3:	83 7d f0 01          	cmpl   $0x1,-0x10(%rbp)
   121d7:	7e 86                	jle    1215f <main+0xa61>
   121d9:	8b 05 79 54 00 00    	mov    0x5479(%rip),%eax        # 17658 <g_858>
   121df:	48 98                	cltq   
   121e1:	8b 55 fc             	mov    -0x4(%rbp),%edx
   121e4:	48 8d 35 a0 23 00 00 	lea    0x23a0(%rip),%rsi        # 1458b <g_1778+0x152f>
   121eb:	48 89 c7             	mov    %rax,%rdi
   121ee:	e8 00 45 ff ff       	callq  66f3 <transparent_crc>
   121f3:	8b 05 63 54 00 00    	mov    0x5463(%rip),%eax        # 1765c <g_859>
   121f9:	48 98                	cltq   
   121fb:	8b 55 fc             	mov    -0x4(%rbp),%edx
   121fe:	48 8d 35 8c 23 00 00 	lea    0x238c(%rip),%rsi        # 14591 <g_1778+0x1535>
   12205:	48 89 c7             	mov    %rax,%rdi
   12208:	e8 e6 44 ff ff       	callq  66f3 <transparent_crc>
   1220d:	c7 45 f0 00 00 00 00 	movl   $0x0,-0x10(%rbp)
   12214:	eb 4b                	jmp    12261 <main+0xb63>
   12216:	8b 45 f0             	mov    -0x10(%rbp),%eax
   12219:	48 98                	cltq   
   1221b:	48 8d 14 85 00 00 00 	lea    0x0(,%rax,4),%rdx
   12222:	00 
   12223:	48 8d 05 36 54 00 00 	lea    0x5436(%rip),%rax        # 17660 <g_860>
   1222a:	8b 04 02             	mov    (%rdx,%rax,1),%eax
   1222d:	48 98                	cltq   
   1222f:	8b 55 fc             	mov    -0x4(%rbp),%edx
   12232:	48 8d 35 5e 23 00 00 	lea    0x235e(%rip),%rsi        # 14597 <g_1778+0x153b>
   12239:	48 89 c7             	mov    %rax,%rdi
   1223c:	e8 b2 44 ff ff       	callq  66f3 <transparent_crc>
   12241:	83 7d fc 00          	cmpl   $0x0,-0x4(%rbp)
   12245:	74 16                	je     1225d <main+0xb5f>
   12247:	8b 45 f0             	mov    -0x10(%rbp),%eax
   1224a:	89 c6                	mov    %eax,%esi
   1224c:	48 8d 3d 85 21 00 00 	lea    0x2185(%rip),%rdi        # 143d8 <g_1778+0x137c>
   12253:	b8 00 00 00 00       	mov    $0x0,%eax
   12258:	e8 23 2e ff ff       	callq  5080 <printf@plt>
   1225d:	83 45 f0 01          	addl   $0x1,-0x10(%rbp)
   12261:	83 7d f0 04          	cmpl   $0x4,-0x10(%rbp)
   12265:	7e af                	jle    12216 <main+0xb18>
   12267:	8b 05 07 54 00 00    	mov    0x5407(%rip),%eax        # 17674 <g_861>
   1226d:	48 98                	cltq   
   1226f:	8b 55 fc             	mov    -0x4(%rbp),%edx
   12272:	48 8d 35 27 23 00 00 	lea    0x2327(%rip),%rsi        # 145a0 <g_1778+0x1544>
   12279:	48 89 c7             	mov    %rax,%rdi
   1227c:	e8 72 44 ff ff       	callq  66f3 <transparent_crc>
   12281:	8b 05 f1 53 00 00    	mov    0x53f1(%rip),%eax        # 17678 <g_862>
   12287:	48 98                	cltq   
   12289:	8b 55 fc             	mov    -0x4(%rbp),%edx
   1228c:	48 8d 35 13 23 00 00 	lea    0x2313(%rip),%rsi        # 145a6 <g_1778+0x154a>
   12293:	48 89 c7             	mov    %rax,%rdi
   12296:	e8 58 44 ff ff       	callq  66f3 <transparent_crc>
   1229b:	8b 05 db 53 00 00    	mov    0x53db(%rip),%eax        # 1767c <g_863>
   122a1:	48 98                	cltq   
   122a3:	8b 55 fc             	mov    -0x4(%rbp),%edx
   122a6:	48 8d 35 ff 22 00 00 	lea    0x22ff(%rip),%rsi        # 145ac <g_1778+0x1550>
   122ad:	48 89 c7             	mov    %rax,%rdi
   122b0:	e8 3e 44 ff ff       	callq  66f3 <transparent_crc>
   122b5:	c7 45 f0 00 00 00 00 	movl   $0x0,-0x10(%rbp)
   122bc:	eb 4b                	jmp    12309 <main+0xc0b>
   122be:	8b 45 f0             	mov    -0x10(%rbp),%eax
   122c1:	48 98                	cltq   
   122c3:	48 8d 14 85 00 00 00 	lea    0x0(,%rax,4),%rdx
   122ca:	00 
   122cb:	48 8d 05 ae 53 00 00 	lea    0x53ae(%rip),%rax        # 17680 <g_864>
   122d2:	8b 04 02             	mov    (%rdx,%rax,1),%eax
   122d5:	48 98                	cltq   
   122d7:	8b 55 fc             	mov    -0x4(%rbp),%edx
   122da:	48 8d 35 d1 22 00 00 	lea    0x22d1(%rip),%rsi        # 145b2 <g_1778+0x1556>
   122e1:	48 89 c7             	mov    %rax,%rdi
   122e4:	e8 0a 44 ff ff       	callq  66f3 <transparent_crc>
   122e9:	83 7d fc 00          	cmpl   $0x0,-0x4(%rbp)
   122ed:	74 16                	je     12305 <main+0xc07>
   122ef:	8b 45 f0             	mov    -0x10(%rbp),%eax
   122f2:	89 c6                	mov    %eax,%esi
   122f4:	48 8d 3d dd 20 00 00 	lea    0x20dd(%rip),%rdi        # 143d8 <g_1778+0x137c>
   122fb:	b8 00 00 00 00       	mov    $0x0,%eax
   12300:	e8 7b 2d ff ff       	callq  5080 <printf@plt>
   12305:	83 45 f0 01          	addl   $0x1,-0x10(%rbp)
   12309:	83 7d f0 09          	cmpl   $0x9,-0x10(%rbp)
   1230d:	7e af                	jle    122be <main+0xbc0>
   1230f:	8b 05 93 53 00 00    	mov    0x5393(%rip),%eax        # 176a8 <g_865>
   12315:	48 98                	cltq   
   12317:	8b 55 fc             	mov    -0x4(%rbp),%edx
   1231a:	48 8d 35 9a 22 00 00 	lea    0x229a(%rip),%rsi        # 145bb <g_1778+0x155f>
   12321:	48 89 c7             	mov    %rax,%rdi
   12324:	e8 ca 43 ff ff       	callq  66f3 <transparent_crc>
   12329:	8b 05 7d 53 00 00    	mov    0x537d(%rip),%eax        # 176ac <g_866>
   1232f:	48 98                	cltq   
   12331:	8b 55 fc             	mov    -0x4(%rbp),%edx
   12334:	48 8d 35 86 22 00 00 	lea    0x2286(%rip),%rsi        # 145c1 <g_1778+0x1565>
   1233b:	48 89 c7             	mov    %rax,%rdi
   1233e:	e8 b0 43 ff ff       	callq  66f3 <transparent_crc>
   12343:	c7 45 f0 00 00 00 00 	movl   $0x0,-0x10(%rbp)
   1234a:	eb 4b                	jmp    12397 <main+0xc99>
   1234c:	8b 45 f0             	mov    -0x10(%rbp),%eax
   1234f:	48 98                	cltq   
   12351:	48 8d 14 85 00 00 00 	lea    0x0(,%rax,4),%rdx
   12358:	00 
   12359:	48 8d 05 50 53 00 00 	lea    0x5350(%rip),%rax        # 176b0 <g_867>
   12360:	8b 04 02             	mov    (%rdx,%rax,1),%eax
   12363:	48 98                	cltq   
   12365:	8b 55 fc             	mov    -0x4(%rbp),%edx
   12368:	48 8d 35 58 22 00 00 	lea    0x2258(%rip),%rsi        # 145c7 <g_1778+0x156b>
   1236f:	48 89 c7             	mov    %rax,%rdi
   12372:	e8 7c 43 ff ff       	callq  66f3 <transparent_crc>
   12377:	83 7d fc 00          	cmpl   $0x0,-0x4(%rbp)
   1237b:	74 16                	je     12393 <main+0xc95>
   1237d:	8b 45 f0             	mov    -0x10(%rbp),%eax
   12380:	89 c6                	mov    %eax,%esi
   12382:	48 8d 3d 4f 20 00 00 	lea    0x204f(%rip),%rdi        # 143d8 <g_1778+0x137c>
   12389:	b8 00 00 00 00       	mov    $0x0,%eax
   1238e:	e8 ed 2c ff ff       	callq  5080 <printf@plt>
   12393:	83 45 f0 01          	addl   $0x1,-0x10(%rbp)
   12397:	83 7d f0 06          	cmpl   $0x6,-0x10(%rbp)
   1239b:	7e af                	jle    1234c <main+0xc4e>
   1239d:	8b 05 29 53 00 00    	mov    0x5329(%rip),%eax        # 176cc <g_868>
   123a3:	48 98                	cltq   
   123a5:	8b 55 fc             	mov    -0x4(%rbp),%edx
   123a8:	48 8d 35 21 22 00 00 	lea    0x2221(%rip),%rsi        # 145d0 <g_1778+0x1574>
   123af:	48 89 c7             	mov    %rax,%rdi
   123b2:	e8 3c 43 ff ff       	callq  66f3 <transparent_crc>
   123b7:	8b 05 13 53 00 00    	mov    0x5313(%rip),%eax        # 176d0 <g_869>
   123bd:	48 98                	cltq   
   123bf:	8b 55 fc             	mov    -0x4(%rbp),%edx
   123c2:	48 8d 35 0d 22 00 00 	lea    0x220d(%rip),%rsi        # 145d6 <g_1778+0x157a>
   123c9:	48 89 c7             	mov    %rax,%rdi
   123cc:	e8 22 43 ff ff       	callq  66f3 <transparent_crc>
   123d1:	8b 05 fd 52 00 00    	mov    0x52fd(%rip),%eax        # 176d4 <g_870>
   123d7:	48 98                	cltq   
   123d9:	8b 55 fc             	mov    -0x4(%rbp),%edx
   123dc:	48 8d 35 f9 21 00 00 	lea    0x21f9(%rip),%rsi        # 145dc <g_1778+0x1580>
   123e3:	48 89 c7             	mov    %rax,%rdi
   123e6:	e8 08 43 ff ff       	callq  66f3 <transparent_crc>
   123eb:	c7 45 f0 00 00 00 00 	movl   $0x0,-0x10(%rbp)
   123f2:	eb 75                	jmp    12469 <main+0xd6b>
   123f4:	c7 45 f4 00 00 00 00 	movl   $0x0,-0xc(%rbp)
   123fb:	eb 62                	jmp    1245f <main+0xd61>
   123fd:	8b 45 f4             	mov    -0xc(%rbp),%eax
   12400:	48 63 c8             	movslq %eax,%rcx
   12403:	8b 45 f0             	mov    -0x10(%rbp),%eax
   12406:	48 63 d0             	movslq %eax,%rdx
   12409:	48 89 d0             	mov    %rdx,%rax
   1240c:	48 c1 e0 03          	shl    $0x3,%rax
   12410:	48 01 d0             	add    %rdx,%rax
   12413:	48 01 c8             	add    %rcx,%rax
   12416:	48 8d 14 85 00 00 00 	lea    0x0(,%rax,4),%rdx
   1241d:	00 
   1241e:	48 8d 05 bb 52 00 00 	lea    0x52bb(%rip),%rax        # 176e0 <g_871>
   12425:	8b 04 02             	mov    (%rdx,%rax,1),%eax
   12428:	48 98                	cltq   
   1242a:	8b 55 fc             	mov    -0x4(%rbp),%edx
   1242d:	48 8d 35 ae 21 00 00 	lea    0x21ae(%rip),%rsi        # 145e2 <g_1778+0x1586>
   12434:	48 89 c7             	mov    %rax,%rdi
   12437:	e8 b7 42 ff ff       	callq  66f3 <transparent_crc>
   1243c:	83 7d fc 00          	cmpl   $0x0,-0x4(%rbp)
   12440:	74 19                	je     1245b <main+0xd5d>
   12442:	8b 55 f4             	mov    -0xc(%rbp),%edx
   12445:	8b 45 f0             	mov    -0x10(%rbp),%eax
   12448:	89 c6                	mov    %eax,%esi
   1244a:	48 8d 3d f6 1f 00 00 	lea    0x1ff6(%rip),%rdi        # 14447 <g_1778+0x13eb>
   12451:	b8 00 00 00 00       	mov    $0x0,%eax
   12456:	e8 25 2c ff ff       	callq  5080 <printf@plt>
   1245b:	83 45 f4 01          	addl   $0x1,-0xc(%rbp)
   1245f:	83 7d f4 08          	cmpl   $0x8,-0xc(%rbp)
   12463:	7e 98                	jle    123fd <main+0xcff>
   12465:	83 45 f0 01          	addl   $0x1,-0x10(%rbp)
   12469:	83 7d f0 04          	cmpl   $0x4,-0x10(%rbp)
   1246d:	7e 85                	jle    123f4 <main+0xcf6>
   1246f:	8b 05 1f 53 00 00    	mov    0x531f(%rip),%eax        # 17794 <g_872>
   12475:	48 98                	cltq   
   12477:	8b 55 fc             	mov    -0x4(%rbp),%edx
   1247a:	48 8d 35 6d 21 00 00 	lea    0x216d(%rip),%rsi        # 145ee <g_1778+0x1592>
   12481:	48 89 c7             	mov    %rax,%rdi
   12484:	e8 6a 42 ff ff       	callq  66f3 <transparent_crc>
   12489:	c7 45 f0 00 00 00 00 	movl   $0x0,-0x10(%rbp)
   12490:	e9 a1 00 00 00       	jmpq   12536 <main+0xe38>
   12495:	c7 45 f4 00 00 00 00 	movl   $0x0,-0xc(%rbp)
   1249c:	e9 87 00 00 00       	jmpq   12528 <main+0xe2a>
   124a1:	c7 45 f8 00 00 00 00 	movl   $0x0,-0x8(%rbp)
   124a8:	eb 74                	jmp    1251e <main+0xe20>
   124aa:	8b 45 f8             	mov    -0x8(%rbp),%eax
   124ad:	48 63 c8             	movslq %eax,%rcx
   124b0:	8b 45 f0             	mov    -0x10(%rbp),%eax
   124b3:	48 63 d0             	movslq %eax,%rdx
   124b6:	8b 45 f4             	mov    -0xc(%rbp),%eax
   124b9:	48 63 f0             	movslq %eax,%rsi
   124bc:	48 89 d0             	mov    %rdx,%rax
   124bf:	48 01 c0             	add    %rax,%rax
   124c2:	48 01 d0             	add    %rdx,%rax
   124c5:	48 01 c0             	add    %rax,%rax
   124c8:	48 01 f0             	add    %rsi,%rax
   124cb:	48 c1 e0 02          	shl    $0x2,%rax
   124cf:	48 01 c8             	add    %rcx,%rax
   124d2:	48 8d 14 85 00 00 00 	lea    0x0(,%rax,4),%rdx
   124d9:	00 
   124da:	48 8d 05 bf 52 00 00 	lea    0x52bf(%rip),%rax        # 177a0 <g_873>
   124e1:	8b 04 02             	mov    (%rdx,%rax,1),%eax
   124e4:	48 98                	cltq   
   124e6:	8b 55 fc             	mov    -0x4(%rbp),%edx
   124e9:	48 8d 35 04 21 00 00 	lea    0x2104(%rip),%rsi        # 145f4 <g_1778+0x1598>
   124f0:	48 89 c7             	mov    %rax,%rdi
   124f3:	e8 fb 41 ff ff       	callq  66f3 <transparent_crc>
   124f8:	83 7d fc 00          	cmpl   $0x0,-0x4(%rbp)
   124fc:	74 1c                	je     1251a <main+0xe1c>
   124fe:	8b 4d f8             	mov    -0x8(%rbp),%ecx
   12501:	8b 55 f4             	mov    -0xc(%rbp),%edx
   12504:	8b 45 f0             	mov    -0x10(%rbp),%eax
   12507:	89 c6                	mov    %eax,%esi
   12509:	48 8d 3d ee 1e 00 00 	lea    0x1eee(%rip),%rdi        # 143fe <g_1778+0x13a2>
   12510:	b8 00 00 00 00       	mov    $0x0,%eax
   12515:	e8 66 2b ff ff       	callq  5080 <printf@plt>
   1251a:	83 45 f8 01          	addl   $0x1,-0x8(%rbp)
   1251e:	83 7d f8 03          	cmpl   $0x3,-0x8(%rbp)
   12522:	7e 86                	jle    124aa <main+0xdac>
   12524:	83 45 f4 01          	addl   $0x1,-0xc(%rbp)
   12528:	83 7d f4 05          	cmpl   $0x5,-0xc(%rbp)
   1252c:	0f 8e 6f ff ff ff    	jle    124a1 <main+0xda3>
   12532:	83 45 f0 01          	addl   $0x1,-0x10(%rbp)
   12536:	83 7d f0 07          	cmpl   $0x7,-0x10(%rbp)
   1253a:	0f 8e 55 ff ff ff    	jle    12495 <main+0xd97>
   12540:	8b 05 5a 55 00 00    	mov    0x555a(%rip),%eax        # 17aa0 <g_874>
   12546:	48 98                	cltq   
   12548:	8b 55 fc             	mov    -0x4(%rbp),%edx
   1254b:	48 8d 35 b1 20 00 00 	lea    0x20b1(%rip),%rsi        # 14603 <g_1778+0x15a7>
   12552:	48 89 c7             	mov    %rax,%rdi
   12555:	e8 99 41 ff ff       	callq  66f3 <transparent_crc>
   1255a:	c7 45 f0 00 00 00 00 	movl   $0x0,-0x10(%rbp)
   12561:	eb 4b                	jmp    125ae <main+0xeb0>
   12563:	8b 45 f0             	mov    -0x10(%rbp),%eax
   12566:	48 98                	cltq   
   12568:	48 8d 14 85 00 00 00 	lea    0x0(,%rax,4),%rdx
   1256f:	00 
   12570:	48 8d 05 49 55 00 00 	lea    0x5549(%rip),%rax        # 17ac0 <g_875>
   12577:	8b 04 02             	mov    (%rdx,%rax,1),%eax
   1257a:	48 98                	cltq   
   1257c:	8b 55 fc             	mov    -0x4(%rbp),%edx
   1257f:	48 8d 35 83 20 00 00 	lea    0x2083(%rip),%rsi        # 14609 <g_1778+0x15ad>
   12586:	48 89 c7             	mov    %rax,%rdi
   12589:	e8 65 41 ff ff       	callq  66f3 <transparent_crc>
   1258e:	83 7d fc 00          	cmpl   $0x0,-0x4(%rbp)
   12592:	74 16                	je     125aa <main+0xeac>
   12594:	8b 45 f0             	mov    -0x10(%rbp),%eax
   12597:	89 c6                	mov    %eax,%esi
   12599:	48 8d 3d 38 1e 00 00 	lea    0x1e38(%rip),%rdi        # 143d8 <g_1778+0x137c>
   125a0:	b8 00 00 00 00       	mov    $0x0,%eax
   125a5:	e8 d6 2a ff ff       	callq  5080 <printf@plt>
   125aa:	83 45 f0 01          	addl   $0x1,-0x10(%rbp)
   125ae:	83 7d f0 08          	cmpl   $0x8,-0x10(%rbp)
   125b2:	7e af                	jle    12563 <main+0xe65>
   125b4:	c7 45 f0 00 00 00 00 	movl   $0x0,-0x10(%rbp)
   125bb:	e9 a0 00 00 00       	jmpq   12660 <main+0xf62>
   125c0:	c7 45 f4 00 00 00 00 	movl   $0x0,-0xc(%rbp)
   125c7:	e9 86 00 00 00       	jmpq   12652 <main+0xf54>
   125cc:	c7 45 f8 00 00 00 00 	movl   $0x0,-0x8(%rbp)
   125d3:	eb 73                	jmp    12648 <main+0xf4a>
   125d5:	8b 45 f8             	mov    -0x8(%rbp),%eax
   125d8:	48 63 c8             	movslq %eax,%rcx
   125db:	8b 45 f0             	mov    -0x10(%rbp),%eax
   125de:	48 63 d0             	movslq %eax,%rdx
   125e1:	8b 45 f4             	mov    -0xc(%rbp),%eax
   125e4:	48 63 f0             	movslq %eax,%rsi
   125e7:	48 89 d0             	mov    %rdx,%rax
   125ea:	48 01 c0             	add    %rax,%rax
   125ed:	48 01 d0             	add    %rdx,%rax
   125f0:	48 01 c0             	add    %rax,%rax
   125f3:	48 01 f0             	add    %rsi,%rax
   125f6:	48 01 c0             	add    %rax,%rax
   125f9:	48 01 c8             	add    %rcx,%rax
   125fc:	48 8d 14 85 00 00 00 	lea    0x0(,%rax,4),%rdx
   12603:	00 
   12604:	48 8d 05 f5 54 00 00 	lea    0x54f5(%rip),%rax        # 17b00 <g_876>
   1260b:	8b 04 02             	mov    (%rdx,%rax,1),%eax
   1260e:	48 98                	cltq   
   12610:	8b 55 fc             	mov    -0x4(%rbp),%edx
   12613:	48 8d 35 f8 1f 00 00 	lea    0x1ff8(%rip),%rsi        # 14612 <g_1778+0x15b6>
   1261a:	48 89 c7             	mov    %rax,%rdi
   1261d:	e8 d1 40 ff ff       	callq  66f3 <transparent_crc>
   12622:	83 7d fc 00          	cmpl   $0x0,-0x4(%rbp)
   12626:	74 1c                	je     12644 <main+0xf46>
   12628:	8b 4d f8             	mov    -0x8(%rbp),%ecx
   1262b:	8b 55 f4             	mov    -0xc(%rbp),%edx
   1262e:	8b 45 f0             	mov    -0x10(%rbp),%eax
   12631:	89 c6                	mov    %eax,%esi
   12633:	48 8d 3d c4 1d 00 00 	lea    0x1dc4(%rip),%rdi        # 143fe <g_1778+0x13a2>
   1263a:	b8 00 00 00 00       	mov    $0x0,%eax
   1263f:	e8 3c 2a ff ff       	callq  5080 <printf@plt>
   12644:	83 45 f8 01          	addl   $0x1,-0x8(%rbp)
   12648:	83 7d f8 01          	cmpl   $0x1,-0x8(%rbp)
   1264c:	7e 87                	jle    125d5 <main+0xed7>
   1264e:	83 45 f4 01          	addl   $0x1,-0xc(%rbp)
   12652:	83 7d f4 05          	cmpl   $0x5,-0xc(%rbp)
   12656:	0f 8e 70 ff ff ff    	jle    125cc <main+0xece>
   1265c:	83 45 f0 01          	addl   $0x1,-0x10(%rbp)
   12660:	83 7d f0 07          	cmpl   $0x7,-0x10(%rbp)
   12664:	0f 8e 56 ff ff ff    	jle    125c0 <main+0xec2>
   1266a:	c7 45 f0 00 00 00 00 	movl   $0x0,-0x10(%rbp)
   12671:	eb 75                	jmp    126e8 <main+0xfea>
   12673:	c7 45 f4 00 00 00 00 	movl   $0x0,-0xc(%rbp)
   1267a:	eb 62                	jmp    126de <main+0xfe0>
   1267c:	8b 45 f4             	mov    -0xc(%rbp),%eax
   1267f:	48 63 c8             	movslq %eax,%rcx
   12682:	8b 45 f0             	mov    -0x10(%rbp),%eax
   12685:	48 63 d0             	movslq %eax,%rdx
   12688:	48 89 d0             	mov    %rdx,%rax
   1268b:	48 c1 e0 03          	shl    $0x3,%rax
   1268f:	48 29 d0             	sub    %rdx,%rax
   12692:	48 01 c8             	add    %rcx,%rax
   12695:	48 8d 14 85 00 00 00 	lea    0x0(,%rax,4),%rdx
   1269c:	00 
   1269d:	48 8d 05 dc 55 00 00 	lea    0x55dc(%rip),%rax        # 17c80 <g_877>
   126a4:	8b 04 02             	mov    (%rdx,%rax,1),%eax
   126a7:	48 98                	cltq   
   126a9:	8b 55 fc             	mov    -0x4(%rbp),%edx
   126ac:	48 8d 35 6e 1f 00 00 	lea    0x1f6e(%rip),%rsi        # 14621 <g_1778+0x15c5>
   126b3:	48 89 c7             	mov    %rax,%rdi
   126b6:	e8 38 40 ff ff       	callq  66f3 <transparent_crc>
   126bb:	83 7d fc 00          	cmpl   $0x0,-0x4(%rbp)
   126bf:	74 19                	je     126da <main+0xfdc>
   126c1:	8b 55 f4             	mov    -0xc(%rbp),%edx
   126c4:	8b 45 f0             	mov    -0x10(%rbp),%eax
   126c7:	89 c6                	mov    %eax,%esi
   126c9:	48 8d 3d 77 1d 00 00 	lea    0x1d77(%rip),%rdi        # 14447 <g_1778+0x13eb>
   126d0:	b8 00 00 00 00       	mov    $0x0,%eax
   126d5:	e8 a6 29 ff ff       	callq  5080 <printf@plt>
   126da:	83 45 f4 01          	addl   $0x1,-0xc(%rbp)
   126de:	83 7d f4 06          	cmpl   $0x6,-0xc(%rbp)
   126e2:	7e 98                	jle    1267c <main+0xf7e>
   126e4:	83 45 f0 01          	addl   $0x1,-0x10(%rbp)
   126e8:	83 7d f0 00          	cmpl   $0x0,-0x10(%rbp)
   126ec:	7e 85                	jle    12673 <main+0xf75>
   126ee:	c7 45 f0 00 00 00 00 	movl   $0x0,-0x10(%rbp)
   126f5:	eb 6e                	jmp    12765 <main+0x1067>
   126f7:	c7 45 f4 00 00 00 00 	movl   $0x0,-0xc(%rbp)
   126fe:	eb 5b                	jmp    1275b <main+0x105d>
   12700:	8b 45 f4             	mov    -0xc(%rbp),%eax
   12703:	48 98                	cltq   
   12705:	8b 55 f0             	mov    -0x10(%rbp),%edx
   12708:	48 63 d2             	movslq %edx,%rdx
   1270b:	48 c1 e2 02          	shl    $0x2,%rdx
   1270f:	48 01 d0             	add    %rdx,%rax
   12712:	48 8d 14 85 00 00 00 	lea    0x0(,%rax,4),%rdx
   12719:	00 
   1271a:	48 8d 05 7f 55 00 00 	lea    0x557f(%rip),%rax        # 17ca0 <g_878>
   12721:	8b 04 02             	mov    (%rdx,%rax,1),%eax
   12724:	48 98                	cltq   
   12726:	8b 55 fc             	mov    -0x4(%rbp),%edx
   12729:	48 8d 35 fd 1e 00 00 	lea    0x1efd(%rip),%rsi        # 1462d <g_1778+0x15d1>
   12730:	48 89 c7             	mov    %rax,%rdi
   12733:	e8 bb 3f ff ff       	callq  66f3 <transparent_crc>
   12738:	83 7d fc 00          	cmpl   $0x0,-0x4(%rbp)
   1273c:	74 19                	je     12757 <main+0x1059>
   1273e:	8b 55 f4             	mov    -0xc(%rbp),%edx
   12741:	8b 45 f0             	mov    -0x10(%rbp),%eax
   12744:	89 c6                	mov    %eax,%esi
   12746:	48 8d 3d fa 1c 00 00 	lea    0x1cfa(%rip),%rdi        # 14447 <g_1778+0x13eb>
   1274d:	b8 00 00 00 00       	mov    $0x0,%eax
   12752:	e8 29 29 ff ff       	callq  5080 <printf@plt>
   12757:	83 45 f4 01          	addl   $0x1,-0xc(%rbp)
   1275b:	83 7d f4 03          	cmpl   $0x3,-0xc(%rbp)
   1275f:	7e 9f                	jle    12700 <main+0x1002>
   12761:	83 45 f0 01          	addl   $0x1,-0x10(%rbp)
   12765:	83 7d f0 08          	cmpl   $0x8,-0x10(%rbp)
   12769:	7e 8c                	jle    126f7 <main+0xff9>
   1276b:	8b 05 bf 55 00 00    	mov    0x55bf(%rip),%eax        # 17d30 <g_879>
   12771:	48 98                	cltq   
   12773:	8b 55 fc             	mov    -0x4(%rbp),%edx
   12776:	48 8d 35 bc 1e 00 00 	lea    0x1ebc(%rip),%rsi        # 14639 <g_1778+0x15dd>
   1277d:	48 89 c7             	mov    %rax,%rdi
   12780:	e8 6e 3f ff ff       	callq  66f3 <transparent_crc>
   12785:	c7 45 f0 00 00 00 00 	movl   $0x0,-0x10(%rbp)
   1278c:	eb 4b                	jmp    127d9 <main+0x10db>
   1278e:	8b 45 f0             	mov    -0x10(%rbp),%eax
   12791:	48 98                	cltq   
   12793:	48 8d 14 85 00 00 00 	lea    0x0(,%rax,4),%rdx
   1279a:	00 
   1279b:	48 8d 05 9e 55 00 00 	lea    0x559e(%rip),%rax        # 17d40 <g_880>
   127a2:	8b 04 02             	mov    (%rdx,%rax,1),%eax
   127a5:	48 98                	cltq   
   127a7:	8b 55 fc             	mov    -0x4(%rbp),%edx
   127aa:	48 8d 35 8e 1e 00 00 	lea    0x1e8e(%rip),%rsi        # 1463f <g_1778+0x15e3>
   127b1:	48 89 c7             	mov    %rax,%rdi
   127b4:	e8 3a 3f ff ff       	callq  66f3 <transparent_crc>
   127b9:	83 7d fc 00          	cmpl   $0x0,-0x4(%rbp)
   127bd:	74 16                	je     127d5 <main+0x10d7>
   127bf:	8b 45 f0             	mov    -0x10(%rbp),%eax
   127c2:	89 c6                	mov    %eax,%esi
   127c4:	48 8d 3d 0d 1c 00 00 	lea    0x1c0d(%rip),%rdi        # 143d8 <g_1778+0x137c>
   127cb:	b8 00 00 00 00       	mov    $0x0,%eax
   127d0:	e8 ab 28 ff ff       	callq  5080 <printf@plt>
   127d5:	83 45 f0 01          	addl   $0x1,-0x10(%rbp)
   127d9:	83 7d f0 08          	cmpl   $0x8,-0x10(%rbp)
   127dd:	7e af                	jle    1278e <main+0x1090>
   127df:	c7 45 f0 00 00 00 00 	movl   $0x0,-0x10(%rbp)
   127e6:	eb 4b                	jmp    12833 <main+0x1135>
   127e8:	8b 45 f0             	mov    -0x10(%rbp),%eax
   127eb:	48 98                	cltq   
   127ed:	48 8d 14 85 00 00 00 	lea    0x0(,%rax,4),%rdx
   127f4:	00 
   127f5:	48 8d 05 84 55 00 00 	lea    0x5584(%rip),%rax        # 17d80 <g_881>
   127fc:	8b 04 02             	mov    (%rdx,%rax,1),%eax
   127ff:	48 98                	cltq   
   12801:	8b 55 fc             	mov    -0x4(%rbp),%edx
   12804:	48 8d 35 3d 1e 00 00 	lea    0x1e3d(%rip),%rsi        # 14648 <g_1778+0x15ec>
   1280b:	48 89 c7             	mov    %rax,%rdi
   1280e:	e8 e0 3e ff ff       	callq  66f3 <transparent_crc>
   12813:	83 7d fc 00          	cmpl   $0x0,-0x4(%rbp)
   12817:	74 16                	je     1282f <main+0x1131>
   12819:	8b 45 f0             	mov    -0x10(%rbp),%eax
   1281c:	89 c6                	mov    %eax,%esi
   1281e:	48 8d 3d b3 1b 00 00 	lea    0x1bb3(%rip),%rdi        # 143d8 <g_1778+0x137c>
   12825:	b8 00 00 00 00       	mov    $0x0,%eax
   1282a:	e8 51 28 ff ff       	callq  5080 <printf@plt>
   1282f:	83 45 f0 01          	addl   $0x1,-0x10(%rbp)
   12833:	83 7d f0 07          	cmpl   $0x7,-0x10(%rbp)
   12837:	7e af                	jle    127e8 <main+0x10ea>
   12839:	8b 05 61 55 00 00    	mov    0x5561(%rip),%eax        # 17da0 <g_882>
   1283f:	48 98                	cltq   
   12841:	8b 55 fc             	mov    -0x4(%rbp),%edx
   12844:	48 8d 35 06 1e 00 00 	lea    0x1e06(%rip),%rsi        # 14651 <g_1778+0x15f5>
   1284b:	48 89 c7             	mov    %rax,%rdi
   1284e:	e8 a0 3e ff ff       	callq  66f3 <transparent_crc>
   12853:	8b 05 4b 55 00 00    	mov    0x554b(%rip),%eax        # 17da4 <g_883>
   12859:	48 98                	cltq   
   1285b:	8b 55 fc             	mov    -0x4(%rbp),%edx
   1285e:	48 8d 35 f2 1d 00 00 	lea    0x1df2(%rip),%rsi        # 14657 <g_1778+0x15fb>
   12865:	48 89 c7             	mov    %rax,%rdi
   12868:	e8 86 3e ff ff       	callq  66f3 <transparent_crc>
   1286d:	8b 05 35 55 00 00    	mov    0x5535(%rip),%eax        # 17da8 <g_884>
   12873:	48 98                	cltq   
   12875:	8b 55 fc             	mov    -0x4(%rbp),%edx
   12878:	48 8d 35 de 1d 00 00 	lea    0x1dde(%rip),%rsi        # 1465d <g_1778+0x1601>
   1287f:	48 89 c7             	mov    %rax,%rdi
   12882:	e8 6c 3e ff ff       	callq  66f3 <transparent_crc>
   12887:	8b 05 1f 55 00 00    	mov    0x551f(%rip),%eax        # 17dac <g_885>
   1288d:	48 98                	cltq   
   1288f:	8b 55 fc             	mov    -0x4(%rbp),%edx
   12892:	48 8d 35 ca 1d 00 00 	lea    0x1dca(%rip),%rsi        # 14663 <g_1778+0x1607>
   12899:	48 89 c7             	mov    %rax,%rdi
   1289c:	e8 52 3e ff ff       	callq  66f3 <transparent_crc>
   128a1:	8b 05 09 55 00 00    	mov    0x5509(%rip),%eax        # 17db0 <g_886>
   128a7:	48 98                	cltq   
   128a9:	8b 55 fc             	mov    -0x4(%rbp),%edx
   128ac:	48 8d 35 b6 1d 00 00 	lea    0x1db6(%rip),%rsi        # 14669 <g_1778+0x160d>
   128b3:	48 89 c7             	mov    %rax,%rdi
   128b6:	e8 38 3e ff ff       	callq  66f3 <transparent_crc>
   128bb:	b8 ff ff ff ff       	mov    $0xffffffff,%eax
   128c0:	89 c1                	mov    %eax,%ecx
   128c2:	8b 45 fc             	mov    -0x4(%rbp),%eax
   128c5:	89 c2                	mov    %eax,%edx
   128c7:	48 8d 35 a1 1d 00 00 	lea    0x1da1(%rip),%rsi        # 1466f <g_1778+0x1613>
   128ce:	48 89 cf             	mov    %rcx,%rdi
   128d1:	e8 1d 3e ff ff       	callq  66f3 <transparent_crc>
   128d6:	c7 45 f0 00 00 00 00 	movl   $0x0,-0x10(%rbp)
   128dd:	eb 4a                	jmp    12929 <main+0x122b>
   128df:	8b 45 f0             	mov    -0x10(%rbp),%eax
   128e2:	48 98                	cltq   
   128e4:	48 8d 14 c5 00 00 00 	lea    0x0(,%rax,8),%rdx
   128eb:	00 
   128ec:	48 8d 05 3d 77 00 00 	lea    0x773d(%rip),%rax        # 1a030 <g_949>
   128f3:	48 8b 04 02          	mov    (%rdx,%rax,1),%rax
   128f7:	8b 55 fc             	mov    -0x4(%rbp),%edx
   128fa:	48 8d 35 74 1d 00 00 	lea    0x1d74(%rip),%rsi        # 14675 <g_1778+0x1619>
   12901:	48 89 c7             	mov    %rax,%rdi
   12904:	e8 ea 3d ff ff       	callq  66f3 <transparent_crc>
   12909:	83 7d fc 00          	cmpl   $0x0,-0x4(%rbp)
   1290d:	74 16                	je     12925 <main+0x1227>
   1290f:	8b 45 f0             	mov    -0x10(%rbp),%eax
   12912:	89 c6                	mov    %eax,%esi
   12914:	48 8d 3d bd 1a 00 00 	lea    0x1abd(%rip),%rdi        # 143d8 <g_1778+0x137c>
   1291b:	b8 00 00 00 00       	mov    $0x0,%eax
   12920:	e8 5b 27 ff ff       	callq  5080 <printf@plt>
   12925:	83 45 f0 01          	addl   $0x1,-0x10(%rbp)
   12929:	83 7d f0 02          	cmpl   $0x2,-0x10(%rbp)
   1292d:	7e b0                	jle    128df <main+0x11e1>
   1292f:	c7 45 f0 00 00 00 00 	movl   $0x0,-0x10(%rbp)
   12936:	eb 73                	jmp    129ab <main+0x12ad>
   12938:	c7 45 f4 00 00 00 00 	movl   $0x0,-0xc(%rbp)
   1293f:	eb 60                	jmp    129a1 <main+0x12a3>
   12941:	8b 45 f4             	mov    -0xc(%rbp),%eax
   12944:	48 63 c8             	movslq %eax,%rcx
   12947:	8b 45 f0             	mov    -0x10(%rbp),%eax
   1294a:	48 63 d0             	movslq %eax,%rdx
   1294d:	48 89 d0             	mov    %rdx,%rax
   12950:	48 c1 e0 02          	shl    $0x2,%rax
   12954:	48 01 d0             	add    %rdx,%rax
   12957:	48 8d 14 08          	lea    (%rax,%rcx,1),%rdx
   1295b:	48 8d 05 5e 54 00 00 	lea    0x545e(%rip),%rax        # 17dc0 <g_1039>
   12962:	48 01 d0             	add    %rdx,%rax
   12965:	0f b6 00             	movzbl (%rax),%eax
   12968:	48 0f be c0          	movsbq %al,%rax
   1296c:	8b 55 fc             	mov    -0x4(%rbp),%edx
   1296f:	48 8d 35 08 1d 00 00 	lea    0x1d08(%rip),%rsi        # 1467e <g_1778+0x1622>
   12976:	48 89 c7             	mov    %rax,%rdi
   12979:	e8 75 3d ff ff       	callq  66f3 <transparent_crc>
   1297e:	83 7d fc 00          	cmpl   $0x0,-0x4(%rbp)
   12982:	74 19                	je     1299d <main+0x129f>
   12984:	8b 55 f4             	mov    -0xc(%rbp),%edx
   12987:	8b 45 f0             	mov    -0x10(%rbp),%eax
   1298a:	89 c6                	mov    %eax,%esi
   1298c:	48 8d 3d b4 1a 00 00 	lea    0x1ab4(%rip),%rdi        # 14447 <g_1778+0x13eb>
   12993:	b8 00 00 00 00       	mov    $0x0,%eax
   12998:	e8 e3 26 ff ff       	callq  5080 <printf@plt>
   1299d:	83 45 f4 01          	addl   $0x1,-0xc(%rbp)
   129a1:	83 7d f4 04          	cmpl   $0x4,-0xc(%rbp)
   129a5:	7e 9a                	jle    12941 <main+0x1243>
   129a7:	83 45 f0 01          	addl   $0x1,-0x10(%rbp)
   129ab:	83 7d f0 03          	cmpl   $0x3,-0x10(%rbp)
   129af:	7e 87                	jle    12938 <main+0x123a>
   129b1:	8b 05 c9 76 00 00    	mov    0x76c9(%rip),%eax        # 1a080 <g_1239>
   129b7:	89 c1                	mov    %eax,%ecx
   129b9:	8b 45 fc             	mov    -0x4(%rbp),%eax
   129bc:	89 c2                	mov    %eax,%edx
   129be:	48 8d 35 c6 1c 00 00 	lea    0x1cc6(%rip),%rsi        # 1468b <g_1778+0x162f>
   129c5:	48 89 cf             	mov    %rcx,%rdi
   129c8:	e8 26 3d ff ff       	callq  66f3 <transparent_crc>
   129cd:	0f b7 05 00 54 00 00 	movzwl 0x5400(%rip),%eax        # 17dd4 <g_1326>
   129d4:	0f b7 c0             	movzwl %ax,%eax
   129d7:	8b 55 fc             	mov    -0x4(%rbp),%edx
   129da:	48 8d 35 b1 1c 00 00 	lea    0x1cb1(%rip),%rsi        # 14692 <g_1778+0x1636>
   129e1:	48 89 c7             	mov    %rax,%rdi
   129e4:	e8 0a 3d ff ff       	callq  66f3 <transparent_crc>
   129e9:	48 8b 05 e8 53 00 00 	mov    0x53e8(%rip),%rax        # 17dd8 <g_1415>
   129f0:	8b 55 fc             	mov    -0x4(%rbp),%edx
   129f3:	48 8d 35 9f 1c 00 00 	lea    0x1c9f(%rip),%rsi        # 14699 <g_1778+0x163d>
   129fa:	48 89 c7             	mov    %rax,%rdi
   129fd:	e8 f1 3c ff ff       	callq  66f3 <transparent_crc>
   12a02:	8b 05 d8 53 00 00    	mov    0x53d8(%rip),%eax        # 17de0 <g_1614>
   12a08:	89 c1                	mov    %eax,%ecx
   12a0a:	8b 45 fc             	mov    -0x4(%rbp),%eax
   12a0d:	89 c2                	mov    %eax,%edx
   12a0f:	48 8d 35 8a 1c 00 00 	lea    0x1c8a(%rip),%rsi        # 146a0 <g_1778+0x1644>
   12a16:	48 89 cf             	mov    %rcx,%rdi
   12a19:	e8 d5 3c ff ff       	callq  66f3 <transparent_crc>
   12a1e:	0f b7 05 bf 53 00 00 	movzwl 0x53bf(%rip),%eax        # 17de4 <g_1624>
   12a25:	0f b7 c0             	movzwl %ax,%eax
   12a28:	8b 55 fc             	mov    -0x4(%rbp),%edx
   12a2b:	48 8d 35 75 1c 00 00 	lea    0x1c75(%rip),%rsi        # 146a7 <g_1778+0x164b>
   12a32:	48 89 c7             	mov    %rax,%rdi
   12a35:	e8 b9 3c ff ff       	callq  66f3 <transparent_crc>
   12a3a:	c7 45 f0 00 00 00 00 	movl   $0x0,-0x10(%rbp)
   12a41:	eb 4a                	jmp    12a8d <main+0x138f>
   12a43:	8b 45 f0             	mov    -0x10(%rbp),%eax
   12a46:	48 98                	cltq   
   12a48:	48 8d 14 00          	lea    (%rax,%rax,1),%rdx
   12a4c:	48 8d 05 95 53 00 00 	lea    0x5395(%rip),%rax        # 17de8 <g_1634>
   12a53:	0f b7 04 02          	movzwl (%rdx,%rax,1),%eax
   12a57:	48 0f bf c0          	movswq %ax,%rax
   12a5b:	8b 55 fc             	mov    -0x4(%rbp),%edx
   12a5e:	48 8d 35 49 1c 00 00 	lea    0x1c49(%rip),%rsi        # 146ae <g_1778+0x1652>
   12a65:	48 89 c7             	mov    %rax,%rdi
   12a68:	e8 86 3c ff ff       	callq  66f3 <transparent_crc>
   12a6d:	83 7d fc 00          	cmpl   $0x0,-0x4(%rbp)
   12a71:	74 16                	je     12a89 <main+0x138b>
   12a73:	8b 45 f0             	mov    -0x10(%rbp),%eax
   12a76:	89 c6                	mov    %eax,%esi
   12a78:	48 8d 3d 59 19 00 00 	lea    0x1959(%rip),%rdi        # 143d8 <g_1778+0x137c>
   12a7f:	b8 00 00 00 00       	mov    $0x0,%eax
   12a84:	e8 f7 25 ff ff       	callq  5080 <printf@plt>
   12a89:	83 45 f0 01          	addl   $0x1,-0x10(%rbp)
   12a8d:	83 7d f0 06          	cmpl   $0x6,-0x10(%rbp)
   12a91:	7e b0                	jle    12a43 <main+0x1345>
   12a93:	b8 4c 00 00 00       	mov    $0x4c,%eax
   12a98:	0f b6 c0             	movzbl %al,%eax
   12a9b:	8b 55 fc             	mov    -0x4(%rbp),%edx
   12a9e:	48 8d 35 13 1c 00 00 	lea    0x1c13(%rip),%rsi        # 146b8 <g_1778+0x165c>
   12aa5:	48 89 c7             	mov    %rax,%rdi
   12aa8:	e8 46 3c ff ff       	callq  66f3 <transparent_crc>
   12aad:	c7 45 f0 00 00 00 00 	movl   $0x0,-0x10(%rbp)
   12ab4:	e9 93 00 00 00       	jmpq   12b4c <main+0x144e>
   12ab9:	c7 45 f4 00 00 00 00 	movl   $0x0,-0xc(%rbp)
   12ac0:	eb 7c                	jmp    12b3e <main+0x1440>
   12ac2:	c7 45 f8 00 00 00 00 	movl   $0x0,-0x8(%rbp)
   12ac9:	eb 69                	jmp    12b34 <main+0x1436>
   12acb:	8b 45 f8             	mov    -0x8(%rbp),%eax
   12ace:	48 98                	cltq   
   12ad0:	8b 55 f0             	mov    -0x10(%rbp),%edx
   12ad3:	48 63 ca             	movslq %edx,%rcx
   12ad6:	8b 55 f4             	mov    -0xc(%rbp),%edx
   12ad9:	48 63 d2             	movslq %edx,%rdx
   12adc:	48 c1 e1 02          	shl    $0x2,%rcx
   12ae0:	48 01 ca             	add    %rcx,%rdx
   12ae3:	48 01 d2             	add    %rdx,%rdx
   12ae6:	48 01 d0             	add    %rdx,%rax
   12ae9:	48 8d 14 00          	lea    (%rax,%rax,1),%rdx
   12aed:	48 8d 05 cc 75 00 00 	lea    0x75cc(%rip),%rax        # 1a0c0 <g_1904>
   12af4:	0f b7 04 02          	movzwl (%rdx,%rax,1),%eax
   12af8:	48 0f bf c0          	movswq %ax,%rax
   12afc:	8b 55 fc             	mov    -0x4(%rbp),%edx
   12aff:	48 8d 35 b9 1b 00 00 	lea    0x1bb9(%rip),%rsi        # 146bf <g_1778+0x1663>
   12b06:	48 89 c7             	mov    %rax,%rdi
   12b09:	e8 e5 3b ff ff       	callq  66f3 <transparent_crc>
   12b0e:	83 7d fc 00          	cmpl   $0x0,-0x4(%rbp)
   12b12:	74 1c                	je     12b30 <main+0x1432>
   12b14:	8b 4d f8             	mov    -0x8(%rbp),%ecx
   12b17:	8b 55 f4             	mov    -0xc(%rbp),%edx
   12b1a:	8b 45 f0             	mov    -0x10(%rbp),%eax
   12b1d:	89 c6                	mov    %eax,%esi
   12b1f:	48 8d 3d d8 18 00 00 	lea    0x18d8(%rip),%rdi        # 143fe <g_1778+0x13a2>
   12b26:	b8 00 00 00 00       	mov    $0x0,%eax
   12b2b:	e8 50 25 ff ff       	callq  5080 <printf@plt>
   12b30:	83 45 f8 01          	addl   $0x1,-0x8(%rbp)
   12b34:	83 7d f8 01          	cmpl   $0x1,-0x8(%rbp)
   12b38:	7e 91                	jle    12acb <main+0x13cd>
   12b3a:	83 45 f4 01          	addl   $0x1,-0xc(%rbp)
   12b3e:	83 7d f4 03          	cmpl   $0x3,-0xc(%rbp)
   12b42:	0f 8e 7a ff ff ff    	jle    12ac2 <main+0x13c4>
   12b48:	83 45 f0 01          	addl   $0x1,-0x10(%rbp)
   12b4c:	83 7d f0 07          	cmpl   $0x7,-0x10(%rbp)
   12b50:	0f 8e 63 ff ff ff    	jle    12ab9 <main+0x13bb>
   12b56:	8b 05 c4 44 00 00    	mov    0x44c4(%rip),%eax        # 17020 <crc32_context>
   12b5c:	f7 d0                	not    %eax
   12b5e:	89 c2                	mov    %eax,%edx
   12b60:	8b 45 fc             	mov    -0x4(%rbp),%eax
   12b63:	89 c6                	mov    %eax,%esi
   12b65:	89 d7                	mov    %edx,%edi
   12b67:	e8 28 26 ff ff       	callq  5194 <platform_main_end>
   12b6c:	b8 00 00 00 00       	mov    $0x0,%eax
   12b71:	c9                   	leaveq 
   12b72:	c3                   	retq   
   12b73:	66 2e 0f 1f 84 00 00 	nopw   %cs:0x0(%rax,%rax,1)
   12b7a:	00 00 00 
   12b7d:	0f 1f 00             	nopl   (%rax)

0000000000012b80 <__libc_csu_init>:
   12b80:	f3 0f 1e fa          	endbr64 
   12b84:	41 57                	push   %r15
   12b86:	4c 8d 3d 0b 42 00 00 	lea    0x420b(%rip),%r15        # 16d98 <__frame_dummy_init_array_entry>
   12b8d:	41 56                	push   %r14
   12b8f:	49 89 d6             	mov    %rdx,%r14
   12b92:	41 55                	push   %r13
   12b94:	49 89 f5             	mov    %rsi,%r13
   12b97:	41 54                	push   %r12
   12b99:	41 89 fc             	mov    %edi,%r12d
   12b9c:	55                   	push   %rbp
   12b9d:	48 8d 2d fc 41 00 00 	lea    0x41fc(%rip),%rbp        # 16da0 <__do_global_dtors_aux_fini_array_entry>
   12ba4:	53                   	push   %rbx
   12ba5:	4c 29 fd             	sub    %r15,%rbp
   12ba8:	48 83 ec 08          	sub    $0x8,%rsp
   12bac:	e8 4f 24 ff ff       	callq  5000 <_init>
   12bb1:	48 c1 fd 03          	sar    $0x3,%rbp
   12bb5:	74 1f                	je     12bd6 <__libc_csu_init+0x56>
   12bb7:	31 db                	xor    %ebx,%ebx
   12bb9:	0f 1f 80 00 00 00 00 	nopl   0x0(%rax)
   12bc0:	4c 89 f2             	mov    %r14,%rdx
   12bc3:	4c 89 ee             	mov    %r13,%rsi
   12bc6:	44 89 e7             	mov    %r12d,%edi
   12bc9:	41 ff 14 df          	callq  *(%r15,%rbx,8)
   12bcd:	48 83 c3 01          	add    $0x1,%rbx
   12bd1:	48 39 dd             	cmp    %rbx,%rbp
   12bd4:	75 ea                	jne    12bc0 <__libc_csu_init+0x40>
   12bd6:	48 83 c4 08          	add    $0x8,%rsp
   12bda:	5b                   	pop    %rbx
   12bdb:	5d                   	pop    %rbp
   12bdc:	41 5c                	pop    %r12
   12bde:	41 5d                	pop    %r13
   12be0:	41 5e                	pop    %r14
   12be2:	41 5f                	pop    %r15
   12be4:	c3                   	retq   
   12be5:	66 66 2e 0f 1f 84 00 	data16 nopw %cs:0x0(%rax,%rax,1)
   12bec:	00 00 00 00 

0000000000012bf0 <__libc_csu_fini>:
   12bf0:	f3 0f 1e fa          	endbr64 
   12bf4:	c3                   	retq   
