


Disassembly of section .text:

00000000000030a0 <_start>:
    30a0:	f3 0f 1e fa          	endbr64 
    30a4:	31 ed                	xor    %ebp,%ebp
    30a6:	49 89 d1             	mov    %rdx,%r9
    30a9:	5e                   	pop    %rsi
    30aa:	48 89 e2             	mov    %rsp,%rdx
    30ad:	48 83 e4 f0          	and    $0xfffffffffffffff0,%rsp
    30b1:	50                   	push   %rax
    30b2:	54                   	push   %rsp
    30b3:	4c 8d 05 e6 5b 00 00 	lea    0x5be6(%rip),%r8        # 8ca0 <__libc_csu_fini>
    30ba:	48 8d 0d 6f 5b 00 00 	lea    0x5b6f(%rip),%rcx        # 8c30 <__libc_csu_init>
    30c1:	48 8d 3d fe 56 00 00 	lea    0x56fe(%rip),%rdi        # 87c6 <main>
    30c8:	ff 15 0a 8f 00 00    	callq  *0x8f0a(%rip)        # bfd8 <__libc_start_main@GLIBC_2.2.5>
    30ce:	f4                   	hlt    
    30cf:	90                   	nop

00000000000030d0 <deregister_tm_clones>:
    30d0:	48 8d 3d 81 9e 00 00 	lea    0x9e81(%rip),%rdi        # cf58 <__TMC_END__>
    30d7:	48 8d 05 7a 9e 00 00 	lea    0x9e7a(%rip),%rax        # cf58 <__TMC_END__>
    30de:	48 39 f8             	cmp    %rdi,%rax
    30e1:	74 15                	je     30f8 <deregister_tm_clones+0x28>
    30e3:	48 8b 05 e6 8e 00 00 	mov    0x8ee6(%rip),%rax        # bfd0 <_ITM_deregisterTMCloneTable>
    30ea:	48 85 c0             	test   %rax,%rax
    30ed:	74 09                	je     30f8 <deregister_tm_clones+0x28>
    30ef:	ff e0                	jmpq   *%rax
    30f1:	0f 1f 80 00 00 00 00 	nopl   0x0(%rax)
    30f8:	c3                   	retq   
    30f9:	0f 1f 80 00 00 00 00 	nopl   0x0(%rax)

0000000000003100 <register_tm_clones>:
    3100:	48 8d 3d 51 9e 00 00 	lea    0x9e51(%rip),%rdi        # cf58 <__TMC_END__>
    3107:	48 8d 35 4a 9e 00 00 	lea    0x9e4a(%rip),%rsi        # cf58 <__TMC_END__>
    310e:	48 29 fe             	sub    %rdi,%rsi
    3111:	48 89 f0             	mov    %rsi,%rax
    3114:	48 c1 ee 3f          	shr    $0x3f,%rsi
    3118:	48 c1 f8 03          	sar    $0x3,%rax
    311c:	48 01 c6             	add    %rax,%rsi
    311f:	48 d1 fe             	sar    %rsi
    3122:	74 14                	je     3138 <register_tm_clones+0x38>
    3124:	48 8b 05 bd 8e 00 00 	mov    0x8ebd(%rip),%rax        # bfe8 <_ITM_registerTMCloneTable>
    312b:	48 85 c0             	test   %rax,%rax
    312e:	74 08                	je     3138 <register_tm_clones+0x38>
    3130:	ff e0                	jmpq   *%rax
    3132:	66 0f 1f 44 00 00    	nopw   0x0(%rax,%rax,1)
    3138:	c3                   	retq   
    3139:	0f 1f 80 00 00 00 00 	nopl   0x0(%rax)

0000000000003140 <__do_global_dtors_aux>:
    3140:	f3 0f 1e fa          	endbr64 
    3144:	80 3d 15 9e 00 00 00 	cmpb   $0x0,0x9e15(%rip)        # cf60 <completed.8061>
    314b:	75 2b                	jne    3178 <__do_global_dtors_aux+0x38>
    314d:	55                   	push   %rbp
    314e:	48 83 3d 9a 8e 00 00 	cmpq   $0x0,0x8e9a(%rip)        # bff0 <__cxa_finalize@GLIBC_2.2.5>
    3155:	00 
    3156:	48 89 e5             	mov    %rsp,%rbp
    3159:	74 0c                	je     3167 <__do_global_dtors_aux+0x27>
    315b:	48 8b 3d a6 8e 00 00 	mov    0x8ea6(%rip),%rdi        # c008 <__dso_handle>
    3162:	e8 f9 fe ff ff       	callq  3060 <__cxa_finalize@plt>
    3167:	e8 64 ff ff ff       	callq  30d0 <deregister_tm_clones>
    316c:	c6 05 ed 9d 00 00 01 	movb   $0x1,0x9ded(%rip)        # cf60 <completed.8061>
    3173:	5d                   	pop    %rbp
    3174:	c3                   	retq   
    3175:	0f 1f 00             	nopl   (%rax)
    3178:	c3                   	retq   
    3179:	0f 1f 80 00 00 00 00 	nopl   0x0(%rax)

0000000000003180 <frame_dummy>:
    3180:	f3 0f 1e fa          	endbr64 
    3184:	e9 77 ff ff ff       	jmpq   3100 <register_tm_clones>

0000000000003189 <platform_main_begin>:
    3189:	f3 0f 1e fa          	endbr64 
    318d:	55                   	push   %rbp
    318e:	48 89 e5             	mov    %rsp,%rbp
    3191:	90                   	nop
    3192:	5d                   	pop    %rbp
    3193:	c3                   	retq   

0000000000003194 <platform_main_end>:
    3194:	f3 0f 1e fa          	endbr64 
    3198:	55                   	push   %rbp
    3199:	48 89 e5             	mov    %rsp,%rbp
    319c:	48 83 ec 10          	sub    $0x10,%rsp
    31a0:	89 7d fc             	mov    %edi,-0x4(%rbp)
    31a3:	89 75 f8             	mov    %esi,-0x8(%rbp)
    31a6:	8b 45 fc             	mov    -0x4(%rbp),%eax
    31a9:	89 c6                	mov    %eax,%esi
    31ab:	48 8d 3d 6e 5e 00 00 	lea    0x5e6e(%rip),%rdi        # 9020 <_IO_stdin_used+0x20>
    31b2:	b8 00 00 00 00       	mov    $0x0,%eax
    31b7:	e8 c4 fe ff ff       	callq  3080 <printf@plt>
    31bc:	90                   	nop
    31bd:	c9                   	leaveq 
    31be:	c3                   	retq   

00000000000031bf <safe_unary_minus_func_int8_t_s>:
    31bf:	f3 0f 1e fa          	endbr64 
    31c3:	55                   	push   %rbp
    31c4:	48 89 e5             	mov    %rsp,%rbp
    31c7:	89 f8                	mov    %edi,%eax
    31c9:	88 45 fc             	mov    %al,-0x4(%rbp)
    31cc:	0f b6 45 fc          	movzbl -0x4(%rbp),%eax
    31d0:	f7 d8                	neg    %eax
    31d2:	5d                   	pop    %rbp
    31d3:	c3                   	retq   

00000000000031d4 <safe_add_func_int8_t_s_s>:
    31d4:	f3 0f 1e fa          	endbr64 
    31d8:	55                   	push   %rbp
    31d9:	48 89 e5             	mov    %rsp,%rbp
    31dc:	89 fa                	mov    %edi,%edx
    31de:	89 f0                	mov    %esi,%eax
    31e0:	88 55 fc             	mov    %dl,-0x4(%rbp)
    31e3:	88 45 f8             	mov    %al,-0x8(%rbp)
    31e6:	0f b6 55 fc          	movzbl -0x4(%rbp),%edx
    31ea:	0f b6 45 f8          	movzbl -0x8(%rbp),%eax
    31ee:	01 d0                	add    %edx,%eax
    31f0:	5d                   	pop    %rbp
    31f1:	c3                   	retq   

00000000000031f2 <safe_sub_func_int8_t_s_s>:
    31f2:	f3 0f 1e fa          	endbr64 
    31f6:	55                   	push   %rbp
    31f7:	48 89 e5             	mov    %rsp,%rbp
    31fa:	89 fa                	mov    %edi,%edx
    31fc:	89 f0                	mov    %esi,%eax
    31fe:	88 55 fc             	mov    %dl,-0x4(%rbp)
    3201:	88 45 f8             	mov    %al,-0x8(%rbp)
    3204:	0f b6 55 fc          	movzbl -0x4(%rbp),%edx
    3208:	0f b6 45 f8          	movzbl -0x8(%rbp),%eax
    320c:	29 c2                	sub    %eax,%edx
    320e:	89 d0                	mov    %edx,%eax
    3210:	5d                   	pop    %rbp
    3211:	c3                   	retq   

0000000000003212 <safe_mul_func_int8_t_s_s>:
    3212:	f3 0f 1e fa          	endbr64 
    3216:	55                   	push   %rbp
    3217:	48 89 e5             	mov    %rsp,%rbp
    321a:	89 fa                	mov    %edi,%edx
    321c:	89 f0                	mov    %esi,%eax
    321e:	88 55 fc             	mov    %dl,-0x4(%rbp)
    3221:	88 45 f8             	mov    %al,-0x8(%rbp)
    3224:	0f b6 45 fc          	movzbl -0x4(%rbp),%eax
    3228:	0f b6 55 f8          	movzbl -0x8(%rbp),%edx
    322c:	0f af c2             	imul   %edx,%eax
    322f:	5d                   	pop    %rbp
    3230:	c3                   	retq   

0000000000003231 <safe_mod_func_int8_t_s_s>:
    3231:	f3 0f 1e fa          	endbr64 
    3235:	55                   	push   %rbp
    3236:	48 89 e5             	mov    %rsp,%rbp
    3239:	89 fa                	mov    %edi,%edx
    323b:	89 f0                	mov    %esi,%eax
    323d:	88 55 fc             	mov    %dl,-0x4(%rbp)
    3240:	88 45 f8             	mov    %al,-0x8(%rbp)
    3243:	80 7d f8 00          	cmpb   $0x0,-0x8(%rbp)
    3247:	74 1b                	je     3264 <safe_mod_func_int8_t_s_s+0x33>
    3249:	80 7d fc 80          	cmpb   $0x80,-0x4(%rbp)
    324d:	75 06                	jne    3255 <safe_mod_func_int8_t_s_s+0x24>
    324f:	80 7d f8 ff          	cmpb   $0xff,-0x8(%rbp)
    3253:	74 0f                	je     3264 <safe_mod_func_int8_t_s_s+0x33>
    3255:	0f be 45 fc          	movsbl -0x4(%rbp),%eax
    3259:	0f be 4d f8          	movsbl -0x8(%rbp),%ecx
    325d:	99                   	cltd   
    325e:	f7 f9                	idiv   %ecx
    3260:	89 d0                	mov    %edx,%eax
    3262:	eb 04                	jmp    3268 <safe_mod_func_int8_t_s_s+0x37>
    3264:	0f b6 45 fc          	movzbl -0x4(%rbp),%eax
    3268:	5d                   	pop    %rbp
    3269:	c3                   	retq   

000000000000326a <safe_div_func_int8_t_s_s>:
    326a:	f3 0f 1e fa          	endbr64 
    326e:	55                   	push   %rbp
    326f:	48 89 e5             	mov    %rsp,%rbp
    3272:	89 fa                	mov    %edi,%edx
    3274:	89 f0                	mov    %esi,%eax
    3276:	88 55 fc             	mov    %dl,-0x4(%rbp)
    3279:	88 45 f8             	mov    %al,-0x8(%rbp)
    327c:	80 7d f8 00          	cmpb   $0x0,-0x8(%rbp)
    3280:	74 19                	je     329b <safe_div_func_int8_t_s_s+0x31>
    3282:	80 7d fc 80          	cmpb   $0x80,-0x4(%rbp)
    3286:	75 06                	jne    328e <safe_div_func_int8_t_s_s+0x24>
    3288:	80 7d f8 ff          	cmpb   $0xff,-0x8(%rbp)
    328c:	74 0d                	je     329b <safe_div_func_int8_t_s_s+0x31>
    328e:	0f be 45 fc          	movsbl -0x4(%rbp),%eax
    3292:	0f be 4d f8          	movsbl -0x8(%rbp),%ecx
    3296:	99                   	cltd   
    3297:	f7 f9                	idiv   %ecx
    3299:	eb 04                	jmp    329f <safe_div_func_int8_t_s_s+0x35>
    329b:	0f b6 45 fc          	movzbl -0x4(%rbp),%eax
    329f:	5d                   	pop    %rbp
    32a0:	c3                   	retq   

00000000000032a1 <safe_lshift_func_int8_t_s_s>:
    32a1:	f3 0f 1e fa          	endbr64 
    32a5:	55                   	push   %rbp
    32a6:	48 89 e5             	mov    %rsp,%rbp
    32a9:	89 f8                	mov    %edi,%eax
    32ab:	89 75 f8             	mov    %esi,-0x8(%rbp)
    32ae:	88 45 fc             	mov    %al,-0x4(%rbp)
    32b1:	80 7d fc 00          	cmpb   $0x0,-0x4(%rbp)
    32b5:	78 31                	js     32e8 <safe_lshift_func_int8_t_s_s+0x47>
    32b7:	83 7d f8 00          	cmpl   $0x0,-0x8(%rbp)
    32bb:	78 2b                	js     32e8 <safe_lshift_func_int8_t_s_s+0x47>
    32bd:	83 7d f8 1f          	cmpl   $0x1f,-0x8(%rbp)
    32c1:	7f 25                	jg     32e8 <safe_lshift_func_int8_t_s_s+0x47>
    32c3:	0f be 55 fc          	movsbl -0x4(%rbp),%edx
    32c7:	8b 45 f8             	mov    -0x8(%rbp),%eax
    32ca:	be 7f 00 00 00       	mov    $0x7f,%esi
    32cf:	89 c1                	mov    %eax,%ecx
    32d1:	d3 fe                	sar    %cl,%esi
    32d3:	89 f0                	mov    %esi,%eax
    32d5:	39 c2                	cmp    %eax,%edx
    32d7:	7f 0f                	jg     32e8 <safe_lshift_func_int8_t_s_s+0x47>
    32d9:	0f be 55 fc          	movsbl -0x4(%rbp),%edx
    32dd:	8b 45 f8             	mov    -0x8(%rbp),%eax
    32e0:	89 c1                	mov    %eax,%ecx
    32e2:	d3 e2                	shl    %cl,%edx
    32e4:	89 d0                	mov    %edx,%eax
    32e6:	eb 04                	jmp    32ec <safe_lshift_func_int8_t_s_s+0x4b>
    32e8:	0f b6 45 fc          	movzbl -0x4(%rbp),%eax
    32ec:	5d                   	pop    %rbp
    32ed:	c3                   	retq   

00000000000032ee <safe_lshift_func_int8_t_s_u>:
    32ee:	f3 0f 1e fa          	endbr64 
    32f2:	55                   	push   %rbp
    32f3:	48 89 e5             	mov    %rsp,%rbp
    32f6:	89 f8                	mov    %edi,%eax
    32f8:	89 75 f8             	mov    %esi,-0x8(%rbp)
    32fb:	88 45 fc             	mov    %al,-0x4(%rbp)
    32fe:	80 7d fc 00          	cmpb   $0x0,-0x4(%rbp)
    3302:	78 2b                	js     332f <safe_lshift_func_int8_t_s_u+0x41>
    3304:	83 7d f8 1f          	cmpl   $0x1f,-0x8(%rbp)
    3308:	77 25                	ja     332f <safe_lshift_func_int8_t_s_u+0x41>
    330a:	0f be 55 fc          	movsbl -0x4(%rbp),%edx
    330e:	8b 45 f8             	mov    -0x8(%rbp),%eax
    3311:	be 7f 00 00 00       	mov    $0x7f,%esi
    3316:	89 c1                	mov    %eax,%ecx
    3318:	d3 fe                	sar    %cl,%esi
    331a:	89 f0                	mov    %esi,%eax
    331c:	39 c2                	cmp    %eax,%edx
    331e:	7f 0f                	jg     332f <safe_lshift_func_int8_t_s_u+0x41>
    3320:	0f be 55 fc          	movsbl -0x4(%rbp),%edx
    3324:	8b 45 f8             	mov    -0x8(%rbp),%eax
    3327:	89 c1                	mov    %eax,%ecx
    3329:	d3 e2                	shl    %cl,%edx
    332b:	89 d0                	mov    %edx,%eax
    332d:	eb 04                	jmp    3333 <safe_lshift_func_int8_t_s_u+0x45>
    332f:	0f b6 45 fc          	movzbl -0x4(%rbp),%eax
    3333:	5d                   	pop    %rbp
    3334:	c3                   	retq   

0000000000003335 <safe_rshift_func_int8_t_s_s>:
    3335:	f3 0f 1e fa          	endbr64 
    3339:	55                   	push   %rbp
    333a:	48 89 e5             	mov    %rsp,%rbp
    333d:	89 f8                	mov    %edi,%eax
    333f:	89 75 f8             	mov    %esi,-0x8(%rbp)
    3342:	88 45 fc             	mov    %al,-0x4(%rbp)
    3345:	80 7d fc 00          	cmpb   $0x0,-0x4(%rbp)
    3349:	78 1b                	js     3366 <safe_rshift_func_int8_t_s_s+0x31>
    334b:	83 7d f8 00          	cmpl   $0x0,-0x8(%rbp)
    334f:	78 15                	js     3366 <safe_rshift_func_int8_t_s_s+0x31>
    3351:	83 7d f8 1f          	cmpl   $0x1f,-0x8(%rbp)
    3355:	7f 0f                	jg     3366 <safe_rshift_func_int8_t_s_s+0x31>
    3357:	0f be 55 fc          	movsbl -0x4(%rbp),%edx
    335b:	8b 45 f8             	mov    -0x8(%rbp),%eax
    335e:	89 c1                	mov    %eax,%ecx
    3360:	d3 fa                	sar    %cl,%edx
    3362:	89 d0                	mov    %edx,%eax
    3364:	eb 04                	jmp    336a <safe_rshift_func_int8_t_s_s+0x35>
    3366:	0f b6 45 fc          	movzbl -0x4(%rbp),%eax
    336a:	5d                   	pop    %rbp
    336b:	c3                   	retq   

000000000000336c <safe_rshift_func_int8_t_s_u>:
    336c:	f3 0f 1e fa          	endbr64 
    3370:	55                   	push   %rbp
    3371:	48 89 e5             	mov    %rsp,%rbp
    3374:	89 f8                	mov    %edi,%eax
    3376:	89 75 f8             	mov    %esi,-0x8(%rbp)
    3379:	88 45 fc             	mov    %al,-0x4(%rbp)
    337c:	80 7d fc 00          	cmpb   $0x0,-0x4(%rbp)
    3380:	78 15                	js     3397 <safe_rshift_func_int8_t_s_u+0x2b>
    3382:	83 7d f8 1f          	cmpl   $0x1f,-0x8(%rbp)
    3386:	77 0f                	ja     3397 <safe_rshift_func_int8_t_s_u+0x2b>
    3388:	0f be 55 fc          	movsbl -0x4(%rbp),%edx
    338c:	8b 45 f8             	mov    -0x8(%rbp),%eax
    338f:	89 c1                	mov    %eax,%ecx
    3391:	d3 fa                	sar    %cl,%edx
    3393:	89 d0                	mov    %edx,%eax
    3395:	eb 04                	jmp    339b <safe_rshift_func_int8_t_s_u+0x2f>
    3397:	0f b6 45 fc          	movzbl -0x4(%rbp),%eax
    339b:	5d                   	pop    %rbp
    339c:	c3                   	retq   

000000000000339d <safe_unary_minus_func_int16_t_s>:
    339d:	f3 0f 1e fa          	endbr64 
    33a1:	55                   	push   %rbp
    33a2:	48 89 e5             	mov    %rsp,%rbp
    33a5:	89 f8                	mov    %edi,%eax
    33a7:	66 89 45 fc          	mov    %ax,-0x4(%rbp)
    33ab:	0f b7 45 fc          	movzwl -0x4(%rbp),%eax
    33af:	f7 d8                	neg    %eax
    33b1:	5d                   	pop    %rbp
    33b2:	c3                   	retq   

00000000000033b3 <safe_add_func_int16_t_s_s>:
    33b3:	f3 0f 1e fa          	endbr64 
    33b7:	55                   	push   %rbp
    33b8:	48 89 e5             	mov    %rsp,%rbp
    33bb:	89 fa                	mov    %edi,%edx
    33bd:	89 f0                	mov    %esi,%eax
    33bf:	66 89 55 fc          	mov    %dx,-0x4(%rbp)
    33c3:	66 89 45 f8          	mov    %ax,-0x8(%rbp)
    33c7:	0f b7 55 fc          	movzwl -0x4(%rbp),%edx
    33cb:	0f b7 45 f8          	movzwl -0x8(%rbp),%eax
    33cf:	01 d0                	add    %edx,%eax
    33d1:	5d                   	pop    %rbp
    33d2:	c3                   	retq   

00000000000033d3 <safe_sub_func_int16_t_s_s>:
    33d3:	f3 0f 1e fa          	endbr64 
    33d7:	55                   	push   %rbp
    33d8:	48 89 e5             	mov    %rsp,%rbp
    33db:	89 fa                	mov    %edi,%edx
    33dd:	89 f0                	mov    %esi,%eax
    33df:	66 89 55 fc          	mov    %dx,-0x4(%rbp)
    33e3:	66 89 45 f8          	mov    %ax,-0x8(%rbp)
    33e7:	0f b7 55 fc          	movzwl -0x4(%rbp),%edx
    33eb:	0f b7 45 f8          	movzwl -0x8(%rbp),%eax
    33ef:	29 c2                	sub    %eax,%edx
    33f1:	89 d0                	mov    %edx,%eax
    33f3:	5d                   	pop    %rbp
    33f4:	c3                   	retq   

00000000000033f5 <safe_mul_func_int16_t_s_s>:
    33f5:	f3 0f 1e fa          	endbr64 
    33f9:	55                   	push   %rbp
    33fa:	48 89 e5             	mov    %rsp,%rbp
    33fd:	89 fa                	mov    %edi,%edx
    33ff:	89 f0                	mov    %esi,%eax
    3401:	66 89 55 fc          	mov    %dx,-0x4(%rbp)
    3405:	66 89 45 f8          	mov    %ax,-0x8(%rbp)
    3409:	0f b7 55 fc          	movzwl -0x4(%rbp),%edx
    340d:	0f b7 45 f8          	movzwl -0x8(%rbp),%eax
    3411:	0f af c2             	imul   %edx,%eax
    3414:	5d                   	pop    %rbp
    3415:	c3                   	retq   

0000000000003416 <safe_mod_func_int16_t_s_s>:
    3416:	f3 0f 1e fa          	endbr64 
    341a:	55                   	push   %rbp
    341b:	48 89 e5             	mov    %rsp,%rbp
    341e:	89 fa                	mov    %edi,%edx
    3420:	89 f0                	mov    %esi,%eax
    3422:	66 89 55 fc          	mov    %dx,-0x4(%rbp)
    3426:	66 89 45 f8          	mov    %ax,-0x8(%rbp)
    342a:	66 83 7d f8 00       	cmpw   $0x0,-0x8(%rbp)
    342f:	74 1e                	je     344f <safe_mod_func_int16_t_s_s+0x39>
    3431:	66 81 7d fc 00 80    	cmpw   $0x8000,-0x4(%rbp)
    3437:	75 07                	jne    3440 <safe_mod_func_int16_t_s_s+0x2a>
    3439:	66 83 7d f8 ff       	cmpw   $0xffff,-0x8(%rbp)
    343e:	74 0f                	je     344f <safe_mod_func_int16_t_s_s+0x39>
    3440:	0f bf 45 fc          	movswl -0x4(%rbp),%eax
    3444:	0f bf 4d f8          	movswl -0x8(%rbp),%ecx
    3448:	99                   	cltd   
    3449:	f7 f9                	idiv   %ecx
    344b:	89 d0                	mov    %edx,%eax
    344d:	eb 04                	jmp    3453 <safe_mod_func_int16_t_s_s+0x3d>
    344f:	0f b7 45 fc          	movzwl -0x4(%rbp),%eax
    3453:	5d                   	pop    %rbp
    3454:	c3                   	retq   

0000000000003455 <safe_div_func_int16_t_s_s>:
    3455:	f3 0f 1e fa          	endbr64 
    3459:	55                   	push   %rbp
    345a:	48 89 e5             	mov    %rsp,%rbp
    345d:	89 fa                	mov    %edi,%edx
    345f:	89 f0                	mov    %esi,%eax
    3461:	66 89 55 fc          	mov    %dx,-0x4(%rbp)
    3465:	66 89 45 f8          	mov    %ax,-0x8(%rbp)
    3469:	66 83 7d f8 00       	cmpw   $0x0,-0x8(%rbp)
    346e:	74 1c                	je     348c <safe_div_func_int16_t_s_s+0x37>
    3470:	66 81 7d fc 00 80    	cmpw   $0x8000,-0x4(%rbp)
    3476:	75 07                	jne    347f <safe_div_func_int16_t_s_s+0x2a>
    3478:	66 83 7d f8 ff       	cmpw   $0xffff,-0x8(%rbp)
    347d:	74 0d                	je     348c <safe_div_func_int16_t_s_s+0x37>
    347f:	0f bf 45 fc          	movswl -0x4(%rbp),%eax
    3483:	0f bf 4d f8          	movswl -0x8(%rbp),%ecx
    3487:	99                   	cltd   
    3488:	f7 f9                	idiv   %ecx
    348a:	eb 04                	jmp    3490 <safe_div_func_int16_t_s_s+0x3b>
    348c:	0f b7 45 fc          	movzwl -0x4(%rbp),%eax
    3490:	5d                   	pop    %rbp
    3491:	c3                   	retq   

0000000000003492 <safe_lshift_func_int16_t_s_s>:
    3492:	f3 0f 1e fa          	endbr64 
    3496:	55                   	push   %rbp
    3497:	48 89 e5             	mov    %rsp,%rbp
    349a:	89 f8                	mov    %edi,%eax
    349c:	89 75 f8             	mov    %esi,-0x8(%rbp)
    349f:	66 89 45 fc          	mov    %ax,-0x4(%rbp)
    34a3:	66 83 7d fc 00       	cmpw   $0x0,-0x4(%rbp)
    34a8:	78 31                	js     34db <safe_lshift_func_int16_t_s_s+0x49>
    34aa:	83 7d f8 00          	cmpl   $0x0,-0x8(%rbp)
    34ae:	78 2b                	js     34db <safe_lshift_func_int16_t_s_s+0x49>
    34b0:	83 7d f8 1f          	cmpl   $0x1f,-0x8(%rbp)
    34b4:	7f 25                	jg     34db <safe_lshift_func_int16_t_s_s+0x49>
    34b6:	0f bf 55 fc          	movswl -0x4(%rbp),%edx
    34ba:	8b 45 f8             	mov    -0x8(%rbp),%eax
    34bd:	be ff 7f 00 00       	mov    $0x7fff,%esi
    34c2:	89 c1                	mov    %eax,%ecx
    34c4:	d3 fe                	sar    %cl,%esi
    34c6:	89 f0                	mov    %esi,%eax
    34c8:	39 c2                	cmp    %eax,%edx
    34ca:	7f 0f                	jg     34db <safe_lshift_func_int16_t_s_s+0x49>
    34cc:	0f bf 55 fc          	movswl -0x4(%rbp),%edx
    34d0:	8b 45 f8             	mov    -0x8(%rbp),%eax
    34d3:	89 c1                	mov    %eax,%ecx
    34d5:	d3 e2                	shl    %cl,%edx
    34d7:	89 d0                	mov    %edx,%eax
    34d9:	eb 04                	jmp    34df <safe_lshift_func_int16_t_s_s+0x4d>
    34db:	0f b7 45 fc          	movzwl -0x4(%rbp),%eax
    34df:	5d                   	pop    %rbp
    34e0:	c3                   	retq   

00000000000034e1 <safe_lshift_func_int16_t_s_u>:
    34e1:	f3 0f 1e fa          	endbr64 
    34e5:	55                   	push   %rbp
    34e6:	48 89 e5             	mov    %rsp,%rbp
    34e9:	89 f8                	mov    %edi,%eax
    34eb:	89 75 f8             	mov    %esi,-0x8(%rbp)
    34ee:	66 89 45 fc          	mov    %ax,-0x4(%rbp)
    34f2:	66 83 7d fc 00       	cmpw   $0x0,-0x4(%rbp)
    34f7:	78 2b                	js     3524 <safe_lshift_func_int16_t_s_u+0x43>
    34f9:	83 7d f8 1f          	cmpl   $0x1f,-0x8(%rbp)
    34fd:	77 25                	ja     3524 <safe_lshift_func_int16_t_s_u+0x43>
    34ff:	0f bf 55 fc          	movswl -0x4(%rbp),%edx
    3503:	8b 45 f8             	mov    -0x8(%rbp),%eax
    3506:	be ff 7f 00 00       	mov    $0x7fff,%esi
    350b:	89 c1                	mov    %eax,%ecx
    350d:	d3 fe                	sar    %cl,%esi
    350f:	89 f0                	mov    %esi,%eax
    3511:	39 c2                	cmp    %eax,%edx
    3513:	7f 0f                	jg     3524 <safe_lshift_func_int16_t_s_u+0x43>
    3515:	0f bf 55 fc          	movswl -0x4(%rbp),%edx
    3519:	8b 45 f8             	mov    -0x8(%rbp),%eax
    351c:	89 c1                	mov    %eax,%ecx
    351e:	d3 e2                	shl    %cl,%edx
    3520:	89 d0                	mov    %edx,%eax
    3522:	eb 04                	jmp    3528 <safe_lshift_func_int16_t_s_u+0x47>
    3524:	0f b7 45 fc          	movzwl -0x4(%rbp),%eax
    3528:	5d                   	pop    %rbp
    3529:	c3                   	retq   

000000000000352a <safe_rshift_func_int16_t_s_s>:
    352a:	f3 0f 1e fa          	endbr64 
    352e:	55                   	push   %rbp
    352f:	48 89 e5             	mov    %rsp,%rbp
    3532:	89 f8                	mov    %edi,%eax
    3534:	89 75 f8             	mov    %esi,-0x8(%rbp)
    3537:	66 89 45 fc          	mov    %ax,-0x4(%rbp)
    353b:	66 83 7d fc 00       	cmpw   $0x0,-0x4(%rbp)
    3540:	78 1b                	js     355d <safe_rshift_func_int16_t_s_s+0x33>
    3542:	83 7d f8 00          	cmpl   $0x0,-0x8(%rbp)
    3546:	78 15                	js     355d <safe_rshift_func_int16_t_s_s+0x33>
    3548:	83 7d f8 1f          	cmpl   $0x1f,-0x8(%rbp)
    354c:	7f 0f                	jg     355d <safe_rshift_func_int16_t_s_s+0x33>
    354e:	0f bf 55 fc          	movswl -0x4(%rbp),%edx
    3552:	8b 45 f8             	mov    -0x8(%rbp),%eax
    3555:	89 c1                	mov    %eax,%ecx
    3557:	d3 fa                	sar    %cl,%edx
    3559:	89 d0                	mov    %edx,%eax
    355b:	eb 04                	jmp    3561 <safe_rshift_func_int16_t_s_s+0x37>
    355d:	0f b7 45 fc          	movzwl -0x4(%rbp),%eax
    3561:	5d                   	pop    %rbp
    3562:	c3                   	retq   

0000000000003563 <safe_rshift_func_int16_t_s_u>:
    3563:	f3 0f 1e fa          	endbr64 
    3567:	55                   	push   %rbp
    3568:	48 89 e5             	mov    %rsp,%rbp
    356b:	89 f8                	mov    %edi,%eax
    356d:	89 75 f8             	mov    %esi,-0x8(%rbp)
    3570:	66 89 45 fc          	mov    %ax,-0x4(%rbp)
    3574:	66 83 7d fc 00       	cmpw   $0x0,-0x4(%rbp)
    3579:	78 15                	js     3590 <safe_rshift_func_int16_t_s_u+0x2d>
    357b:	83 7d f8 1f          	cmpl   $0x1f,-0x8(%rbp)
    357f:	77 0f                	ja     3590 <safe_rshift_func_int16_t_s_u+0x2d>
    3581:	0f bf 55 fc          	movswl -0x4(%rbp),%edx
    3585:	8b 45 f8             	mov    -0x8(%rbp),%eax
    3588:	89 c1                	mov    %eax,%ecx
    358a:	d3 fa                	sar    %cl,%edx
    358c:	89 d0                	mov    %edx,%eax
    358e:	eb 04                	jmp    3594 <safe_rshift_func_int16_t_s_u+0x31>
    3590:	0f b7 45 fc          	movzwl -0x4(%rbp),%eax
    3594:	5d                   	pop    %rbp
    3595:	c3                   	retq   

0000000000003596 <safe_unary_minus_func_int32_t_s>:
    3596:	f3 0f 1e fa          	endbr64 
    359a:	55                   	push   %rbp
    359b:	48 89 e5             	mov    %rsp,%rbp
    359e:	89 7d fc             	mov    %edi,-0x4(%rbp)
    35a1:	81 7d fc 00 00 00 80 	cmpl   $0x80000000,-0x4(%rbp)
    35a8:	74 07                	je     35b1 <safe_unary_minus_func_int32_t_s+0x1b>
    35aa:	8b 45 fc             	mov    -0x4(%rbp),%eax
    35ad:	f7 d8                	neg    %eax
    35af:	eb 03                	jmp    35b4 <safe_unary_minus_func_int32_t_s+0x1e>
    35b1:	8b 45 fc             	mov    -0x4(%rbp),%eax
    35b4:	5d                   	pop    %rbp
    35b5:	c3                   	retq   

00000000000035b6 <safe_add_func_int32_t_s_s>:
    35b6:	f3 0f 1e fa          	endbr64 
    35ba:	55                   	push   %rbp
    35bb:	48 89 e5             	mov    %rsp,%rbp
    35be:	89 7d fc             	mov    %edi,-0x4(%rbp)
    35c1:	89 75 f8             	mov    %esi,-0x8(%rbp)
    35c4:	83 7d fc 00          	cmpl   $0x0,-0x4(%rbp)
    35c8:	7e 13                	jle    35dd <safe_add_func_int32_t_s_s+0x27>
    35ca:	83 7d f8 00          	cmpl   $0x0,-0x8(%rbp)
    35ce:	7e 0d                	jle    35dd <safe_add_func_int32_t_s_s+0x27>
    35d0:	b8 ff ff ff 7f       	mov    $0x7fffffff,%eax
    35d5:	2b 45 f8             	sub    -0x8(%rbp),%eax
    35d8:	39 45 fc             	cmp    %eax,-0x4(%rbp)
    35db:	7f 23                	jg     3600 <safe_add_func_int32_t_s_s+0x4a>
    35dd:	83 7d fc 00          	cmpl   $0x0,-0x4(%rbp)
    35e1:	79 13                	jns    35f6 <safe_add_func_int32_t_s_s+0x40>
    35e3:	83 7d f8 00          	cmpl   $0x0,-0x8(%rbp)
    35e7:	79 0d                	jns    35f6 <safe_add_func_int32_t_s_s+0x40>
    35e9:	b8 00 00 00 80       	mov    $0x80000000,%eax
    35ee:	2b 45 f8             	sub    -0x8(%rbp),%eax
    35f1:	39 45 fc             	cmp    %eax,-0x4(%rbp)
    35f4:	7c 0a                	jl     3600 <safe_add_func_int32_t_s_s+0x4a>
    35f6:	8b 55 fc             	mov    -0x4(%rbp),%edx
    35f9:	8b 45 f8             	mov    -0x8(%rbp),%eax
    35fc:	01 d0                	add    %edx,%eax
    35fe:	eb 03                	jmp    3603 <safe_add_func_int32_t_s_s+0x4d>
    3600:	8b 45 fc             	mov    -0x4(%rbp),%eax
    3603:	5d                   	pop    %rbp
    3604:	c3                   	retq   

0000000000003605 <safe_sub_func_int32_t_s_s>:
    3605:	f3 0f 1e fa          	endbr64 
    3609:	55                   	push   %rbp
    360a:	48 89 e5             	mov    %rsp,%rbp
    360d:	89 7d fc             	mov    %edi,-0x4(%rbp)
    3610:	89 75 f8             	mov    %esi,-0x8(%rbp)
    3613:	8b 45 fc             	mov    -0x4(%rbp),%eax
    3616:	33 45 f8             	xor    -0x8(%rbp),%eax
    3619:	89 c2                	mov    %eax,%edx
    361b:	8b 45 fc             	mov    -0x4(%rbp),%eax
    361e:	33 45 f8             	xor    -0x8(%rbp),%eax
    3621:	25 00 00 00 80       	and    $0x80000000,%eax
    3626:	33 45 fc             	xor    -0x4(%rbp),%eax
    3629:	2b 45 f8             	sub    -0x8(%rbp),%eax
    362c:	33 45 f8             	xor    -0x8(%rbp),%eax
    362f:	21 d0                	and    %edx,%eax
    3631:	85 c0                	test   %eax,%eax
    3633:	78 08                	js     363d <safe_sub_func_int32_t_s_s+0x38>
    3635:	8b 45 fc             	mov    -0x4(%rbp),%eax
    3638:	2b 45 f8             	sub    -0x8(%rbp),%eax
    363b:	eb 03                	jmp    3640 <safe_sub_func_int32_t_s_s+0x3b>
    363d:	8b 45 fc             	mov    -0x4(%rbp),%eax
    3640:	5d                   	pop    %rbp
    3641:	c3                   	retq   

0000000000003642 <safe_mul_func_int32_t_s_s>:
    3642:	f3 0f 1e fa          	endbr64 
    3646:	55                   	push   %rbp
    3647:	48 89 e5             	mov    %rsp,%rbp
    364a:	89 7d fc             	mov    %edi,-0x4(%rbp)
    364d:	89 75 f8             	mov    %esi,-0x8(%rbp)
    3650:	83 7d fc 00          	cmpl   $0x0,-0x4(%rbp)
    3654:	7e 14                	jle    366a <safe_mul_func_int32_t_s_s+0x28>
    3656:	83 7d f8 00          	cmpl   $0x0,-0x8(%rbp)
    365a:	7e 0e                	jle    366a <safe_mul_func_int32_t_s_s+0x28>
    365c:	b8 ff ff ff 7f       	mov    $0x7fffffff,%eax
    3661:	99                   	cltd   
    3662:	f7 7d f8             	idivl  -0x8(%rbp)
    3665:	39 45 fc             	cmp    %eax,-0x4(%rbp)
    3668:	7f 5d                	jg     36c7 <safe_mul_func_int32_t_s_s+0x85>
    366a:	83 7d fc 00          	cmpl   $0x0,-0x4(%rbp)
    366e:	7e 14                	jle    3684 <safe_mul_func_int32_t_s_s+0x42>
    3670:	83 7d f8 00          	cmpl   $0x0,-0x8(%rbp)
    3674:	7f 0e                	jg     3684 <safe_mul_func_int32_t_s_s+0x42>
    3676:	b8 00 00 00 80       	mov    $0x80000000,%eax
    367b:	99                   	cltd   
    367c:	f7 7d fc             	idivl  -0x4(%rbp)
    367f:	39 45 f8             	cmp    %eax,-0x8(%rbp)
    3682:	7c 43                	jl     36c7 <safe_mul_func_int32_t_s_s+0x85>
    3684:	83 7d fc 00          	cmpl   $0x0,-0x4(%rbp)
    3688:	7f 14                	jg     369e <safe_mul_func_int32_t_s_s+0x5c>
    368a:	83 7d f8 00          	cmpl   $0x0,-0x8(%rbp)
    368e:	7e 0e                	jle    369e <safe_mul_func_int32_t_s_s+0x5c>
    3690:	b8 00 00 00 80       	mov    $0x80000000,%eax
    3695:	99                   	cltd   
    3696:	f7 7d f8             	idivl  -0x8(%rbp)
    3699:	39 45 fc             	cmp    %eax,-0x4(%rbp)
    369c:	7c 29                	jl     36c7 <safe_mul_func_int32_t_s_s+0x85>
    369e:	83 7d fc 00          	cmpl   $0x0,-0x4(%rbp)
    36a2:	7f 1a                	jg     36be <safe_mul_func_int32_t_s_s+0x7c>
    36a4:	83 7d f8 00          	cmpl   $0x0,-0x8(%rbp)
    36a8:	7f 14                	jg     36be <safe_mul_func_int32_t_s_s+0x7c>
    36aa:	83 7d fc 00          	cmpl   $0x0,-0x4(%rbp)
    36ae:	74 0e                	je     36be <safe_mul_func_int32_t_s_s+0x7c>
    36b0:	b8 ff ff ff 7f       	mov    $0x7fffffff,%eax
    36b5:	99                   	cltd   
    36b6:	f7 7d fc             	idivl  -0x4(%rbp)
    36b9:	39 45 f8             	cmp    %eax,-0x8(%rbp)
    36bc:	7c 09                	jl     36c7 <safe_mul_func_int32_t_s_s+0x85>
    36be:	8b 45 fc             	mov    -0x4(%rbp),%eax
    36c1:	0f af 45 f8          	imul   -0x8(%rbp),%eax
    36c5:	eb 03                	jmp    36ca <safe_mul_func_int32_t_s_s+0x88>
    36c7:	8b 45 fc             	mov    -0x4(%rbp),%eax
    36ca:	5d                   	pop    %rbp
    36cb:	c3                   	retq   

00000000000036cc <safe_mod_func_int32_t_s_s>:
    36cc:	f3 0f 1e fa          	endbr64 
    36d0:	55                   	push   %rbp
    36d1:	48 89 e5             	mov    %rsp,%rbp
    36d4:	89 7d fc             	mov    %edi,-0x4(%rbp)
    36d7:	89 75 f8             	mov    %esi,-0x8(%rbp)
    36da:	83 7d f8 00          	cmpl   $0x0,-0x8(%rbp)
    36de:	74 1a                	je     36fa <safe_mod_func_int32_t_s_s+0x2e>
    36e0:	81 7d fc 00 00 00 80 	cmpl   $0x80000000,-0x4(%rbp)
    36e7:	75 06                	jne    36ef <safe_mod_func_int32_t_s_s+0x23>
    36e9:	83 7d f8 ff          	cmpl   $0xffffffff,-0x8(%rbp)
    36ed:	74 0b                	je     36fa <safe_mod_func_int32_t_s_s+0x2e>
    36ef:	8b 45 fc             	mov    -0x4(%rbp),%eax
    36f2:	99                   	cltd   
    36f3:	f7 7d f8             	idivl  -0x8(%rbp)
    36f6:	89 d0                	mov    %edx,%eax
    36f8:	eb 03                	jmp    36fd <safe_mod_func_int32_t_s_s+0x31>
    36fa:	8b 45 fc             	mov    -0x4(%rbp),%eax
    36fd:	5d                   	pop    %rbp
    36fe:	c3                   	retq   

00000000000036ff <safe_div_func_int32_t_s_s>:
    36ff:	f3 0f 1e fa          	endbr64 
    3703:	55                   	push   %rbp
    3704:	48 89 e5             	mov    %rsp,%rbp
    3707:	89 7d fc             	mov    %edi,-0x4(%rbp)
    370a:	89 75 f8             	mov    %esi,-0x8(%rbp)
    370d:	83 7d f8 00          	cmpl   $0x0,-0x8(%rbp)
    3711:	74 18                	je     372b <safe_div_func_int32_t_s_s+0x2c>
    3713:	81 7d fc 00 00 00 80 	cmpl   $0x80000000,-0x4(%rbp)
    371a:	75 06                	jne    3722 <safe_div_func_int32_t_s_s+0x23>
    371c:	83 7d f8 ff          	cmpl   $0xffffffff,-0x8(%rbp)
    3720:	74 09                	je     372b <safe_div_func_int32_t_s_s+0x2c>
    3722:	8b 45 fc             	mov    -0x4(%rbp),%eax
    3725:	99                   	cltd   
    3726:	f7 7d f8             	idivl  -0x8(%rbp)
    3729:	eb 03                	jmp    372e <safe_div_func_int32_t_s_s+0x2f>
    372b:	8b 45 fc             	mov    -0x4(%rbp),%eax
    372e:	5d                   	pop    %rbp
    372f:	c3                   	retq   

0000000000003730 <safe_lshift_func_int32_t_s_s>:
    3730:	f3 0f 1e fa          	endbr64 
    3734:	55                   	push   %rbp
    3735:	48 89 e5             	mov    %rsp,%rbp
    3738:	89 7d fc             	mov    %edi,-0x4(%rbp)
    373b:	89 75 f8             	mov    %esi,-0x8(%rbp)
    373e:	83 7d fc 00          	cmpl   $0x0,-0x4(%rbp)
    3742:	78 2d                	js     3771 <safe_lshift_func_int32_t_s_s+0x41>
    3744:	83 7d f8 00          	cmpl   $0x0,-0x8(%rbp)
    3748:	78 27                	js     3771 <safe_lshift_func_int32_t_s_s+0x41>
    374a:	83 7d f8 1f          	cmpl   $0x1f,-0x8(%rbp)
    374e:	7f 21                	jg     3771 <safe_lshift_func_int32_t_s_s+0x41>
    3750:	8b 45 f8             	mov    -0x8(%rbp),%eax
    3753:	ba ff ff ff 7f       	mov    $0x7fffffff,%edx
    3758:	89 c1                	mov    %eax,%ecx
    375a:	d3 fa                	sar    %cl,%edx
    375c:	89 d0                	mov    %edx,%eax
    375e:	39 45 fc             	cmp    %eax,-0x4(%rbp)
    3761:	7f 0e                	jg     3771 <safe_lshift_func_int32_t_s_s+0x41>
    3763:	8b 45 f8             	mov    -0x8(%rbp),%eax
    3766:	8b 55 fc             	mov    -0x4(%rbp),%edx
    3769:	89 c1                	mov    %eax,%ecx
    376b:	d3 e2                	shl    %cl,%edx
    376d:	89 d0                	mov    %edx,%eax
    376f:	eb 03                	jmp    3774 <safe_lshift_func_int32_t_s_s+0x44>
    3771:	8b 45 fc             	mov    -0x4(%rbp),%eax
    3774:	5d                   	pop    %rbp
    3775:	c3                   	retq   

0000000000003776 <safe_lshift_func_int32_t_s_u>:
    3776:	f3 0f 1e fa          	endbr64 
    377a:	55                   	push   %rbp
    377b:	48 89 e5             	mov    %rsp,%rbp
    377e:	89 7d fc             	mov    %edi,-0x4(%rbp)
    3781:	89 75 f8             	mov    %esi,-0x8(%rbp)
    3784:	83 7d fc 00          	cmpl   $0x0,-0x4(%rbp)
    3788:	78 27                	js     37b1 <safe_lshift_func_int32_t_s_u+0x3b>
    378a:	83 7d f8 1f          	cmpl   $0x1f,-0x8(%rbp)
    378e:	77 21                	ja     37b1 <safe_lshift_func_int32_t_s_u+0x3b>
    3790:	8b 45 f8             	mov    -0x8(%rbp),%eax
    3793:	ba ff ff ff 7f       	mov    $0x7fffffff,%edx
    3798:	89 c1                	mov    %eax,%ecx
    379a:	d3 fa                	sar    %cl,%edx
    379c:	89 d0                	mov    %edx,%eax
    379e:	39 45 fc             	cmp    %eax,-0x4(%rbp)
    37a1:	7f 0e                	jg     37b1 <safe_lshift_func_int32_t_s_u+0x3b>
    37a3:	8b 45 f8             	mov    -0x8(%rbp),%eax
    37a6:	8b 55 fc             	mov    -0x4(%rbp),%edx
    37a9:	89 c1                	mov    %eax,%ecx
    37ab:	d3 e2                	shl    %cl,%edx
    37ad:	89 d0                	mov    %edx,%eax
    37af:	eb 03                	jmp    37b4 <safe_lshift_func_int32_t_s_u+0x3e>
    37b1:	8b 45 fc             	mov    -0x4(%rbp),%eax
    37b4:	5d                   	pop    %rbp
    37b5:	c3                   	retq   

00000000000037b6 <safe_rshift_func_int32_t_s_s>:
    37b6:	f3 0f 1e fa          	endbr64 
    37ba:	55                   	push   %rbp
    37bb:	48 89 e5             	mov    %rsp,%rbp
    37be:	89 7d fc             	mov    %edi,-0x4(%rbp)
    37c1:	89 75 f8             	mov    %esi,-0x8(%rbp)
    37c4:	83 7d fc 00          	cmpl   $0x0,-0x4(%rbp)
    37c8:	78 1a                	js     37e4 <safe_rshift_func_int32_t_s_s+0x2e>
    37ca:	83 7d f8 00          	cmpl   $0x0,-0x8(%rbp)
    37ce:	78 14                	js     37e4 <safe_rshift_func_int32_t_s_s+0x2e>
    37d0:	83 7d f8 1f          	cmpl   $0x1f,-0x8(%rbp)
    37d4:	7f 0e                	jg     37e4 <safe_rshift_func_int32_t_s_s+0x2e>
    37d6:	8b 45 f8             	mov    -0x8(%rbp),%eax
    37d9:	8b 55 fc             	mov    -0x4(%rbp),%edx
    37dc:	89 c1                	mov    %eax,%ecx
    37de:	d3 fa                	sar    %cl,%edx
    37e0:	89 d0                	mov    %edx,%eax
    37e2:	eb 03                	jmp    37e7 <safe_rshift_func_int32_t_s_s+0x31>
    37e4:	8b 45 fc             	mov    -0x4(%rbp),%eax
    37e7:	5d                   	pop    %rbp
    37e8:	c3                   	retq   

00000000000037e9 <safe_rshift_func_int32_t_s_u>:
    37e9:	f3 0f 1e fa          	endbr64 
    37ed:	55                   	push   %rbp
    37ee:	48 89 e5             	mov    %rsp,%rbp
    37f1:	89 7d fc             	mov    %edi,-0x4(%rbp)
    37f4:	89 75 f8             	mov    %esi,-0x8(%rbp)
    37f7:	83 7d fc 00          	cmpl   $0x0,-0x4(%rbp)
    37fb:	78 14                	js     3811 <safe_rshift_func_int32_t_s_u+0x28>
    37fd:	83 7d f8 1f          	cmpl   $0x1f,-0x8(%rbp)
    3801:	77 0e                	ja     3811 <safe_rshift_func_int32_t_s_u+0x28>
    3803:	8b 45 f8             	mov    -0x8(%rbp),%eax
    3806:	8b 55 fc             	mov    -0x4(%rbp),%edx
    3809:	89 c1                	mov    %eax,%ecx
    380b:	d3 fa                	sar    %cl,%edx
    380d:	89 d0                	mov    %edx,%eax
    380f:	eb 03                	jmp    3814 <safe_rshift_func_int32_t_s_u+0x2b>
    3811:	8b 45 fc             	mov    -0x4(%rbp),%eax
    3814:	5d                   	pop    %rbp
    3815:	c3                   	retq   

0000000000003816 <safe_unary_minus_func_int64_t_s>:
    3816:	f3 0f 1e fa          	endbr64 
    381a:	55                   	push   %rbp
    381b:	48 89 e5             	mov    %rsp,%rbp
    381e:	48 89 7d f8          	mov    %rdi,-0x8(%rbp)
    3822:	48 b8 00 00 00 00 00 	movabs $0x8000000000000000,%rax
    3829:	00 00 80 
    382c:	48 39 45 f8          	cmp    %rax,-0x8(%rbp)
    3830:	74 09                	je     383b <safe_unary_minus_func_int64_t_s+0x25>
    3832:	48 8b 45 f8          	mov    -0x8(%rbp),%rax
    3836:	48 f7 d8             	neg    %rax
    3839:	eb 04                	jmp    383f <safe_unary_minus_func_int64_t_s+0x29>
    383b:	48 8b 45 f8          	mov    -0x8(%rbp),%rax
    383f:	5d                   	pop    %rbp
    3840:	c3                   	retq   

0000000000003841 <safe_add_func_int64_t_s_s>:
    3841:	f3 0f 1e fa          	endbr64 
    3845:	55                   	push   %rbp
    3846:	48 89 e5             	mov    %rsp,%rbp
    3849:	48 89 7d f8          	mov    %rdi,-0x8(%rbp)
    384d:	48 89 75 f0          	mov    %rsi,-0x10(%rbp)
    3851:	48 83 7d f8 00       	cmpq   $0x0,-0x8(%rbp)
    3856:	7e 1b                	jle    3873 <safe_add_func_int64_t_s_s+0x32>
    3858:	48 83 7d f0 00       	cmpq   $0x0,-0x10(%rbp)
    385d:	7e 14                	jle    3873 <safe_add_func_int64_t_s_s+0x32>
    385f:	48 b8 ff ff ff ff ff 	movabs $0x7fffffffffffffff,%rax
    3866:	ff ff 7f 
    3869:	48 2b 45 f0          	sub    -0x10(%rbp),%rax
    386d:	48 39 45 f8          	cmp    %rax,-0x8(%rbp)
    3871:	7f 2f                	jg     38a2 <safe_add_func_int64_t_s_s+0x61>
    3873:	48 83 7d f8 00       	cmpq   $0x0,-0x8(%rbp)
    3878:	79 1b                	jns    3895 <safe_add_func_int64_t_s_s+0x54>
    387a:	48 83 7d f0 00       	cmpq   $0x0,-0x10(%rbp)
    387f:	79 14                	jns    3895 <safe_add_func_int64_t_s_s+0x54>
    3881:	48 b8 00 00 00 00 00 	movabs $0x8000000000000000,%rax
    3888:	00 00 80 
    388b:	48 2b 45 f0          	sub    -0x10(%rbp),%rax
    388f:	48 39 45 f8          	cmp    %rax,-0x8(%rbp)
    3893:	7c 0d                	jl     38a2 <safe_add_func_int64_t_s_s+0x61>
    3895:	48 8b 55 f8          	mov    -0x8(%rbp),%rdx
    3899:	48 8b 45 f0          	mov    -0x10(%rbp),%rax
    389d:	48 01 d0             	add    %rdx,%rax
    38a0:	eb 04                	jmp    38a6 <safe_add_func_int64_t_s_s+0x65>
    38a2:	48 8b 45 f8          	mov    -0x8(%rbp),%rax
    38a6:	5d                   	pop    %rbp
    38a7:	c3                   	retq   

00000000000038a8 <safe_sub_func_int64_t_s_s>:
    38a8:	f3 0f 1e fa          	endbr64 
    38ac:	55                   	push   %rbp
    38ad:	48 89 e5             	mov    %rsp,%rbp
    38b0:	48 89 7d f8          	mov    %rdi,-0x8(%rbp)
    38b4:	48 89 75 f0          	mov    %rsi,-0x10(%rbp)
    38b8:	48 8b 45 f8          	mov    -0x8(%rbp),%rax
    38bc:	48 33 45 f0          	xor    -0x10(%rbp),%rax
    38c0:	48 89 c2             	mov    %rax,%rdx
    38c3:	48 8b 45 f8          	mov    -0x8(%rbp),%rax
    38c7:	48 33 45 f0          	xor    -0x10(%rbp),%rax
    38cb:	48 b9 00 00 00 00 00 	movabs $0x8000000000000000,%rcx
    38d2:	00 00 80 
    38d5:	48 21 c8             	and    %rcx,%rax
    38d8:	48 33 45 f8          	xor    -0x8(%rbp),%rax
    38dc:	48 2b 45 f0          	sub    -0x10(%rbp),%rax
    38e0:	48 33 45 f0          	xor    -0x10(%rbp),%rax
    38e4:	48 21 d0             	and    %rdx,%rax
    38e7:	48 85 c0             	test   %rax,%rax
    38ea:	78 0a                	js     38f6 <safe_sub_func_int64_t_s_s+0x4e>
    38ec:	48 8b 45 f8          	mov    -0x8(%rbp),%rax
    38f0:	48 2b 45 f0          	sub    -0x10(%rbp),%rax
    38f4:	eb 04                	jmp    38fa <safe_sub_func_int64_t_s_s+0x52>
    38f6:	48 8b 45 f8          	mov    -0x8(%rbp),%rax
    38fa:	5d                   	pop    %rbp
    38fb:	c3                   	retq   

00000000000038fc <safe_mul_func_int64_t_s_s>:
    38fc:	f3 0f 1e fa          	endbr64 
    3900:	55                   	push   %rbp
    3901:	48 89 e5             	mov    %rsp,%rbp
    3904:	48 89 7d f8          	mov    %rdi,-0x8(%rbp)
    3908:	48 89 75 f0          	mov    %rsi,-0x10(%rbp)
    390c:	48 83 7d f8 00       	cmpq   $0x0,-0x8(%rbp)
    3911:	7e 1d                	jle    3930 <safe_mul_func_int64_t_s_s+0x34>
    3913:	48 83 7d f0 00       	cmpq   $0x0,-0x10(%rbp)
    3918:	7e 16                	jle    3930 <safe_mul_func_int64_t_s_s+0x34>
    391a:	48 b8 ff ff ff ff ff 	movabs $0x7fffffffffffffff,%rax
    3921:	ff ff 7f 
    3924:	48 99                	cqto   
    3926:	48 f7 7d f0          	idivq  -0x10(%rbp)
    392a:	48 39 45 f8          	cmp    %rax,-0x8(%rbp)
    392e:	7f 7e                	jg     39ae <safe_mul_func_int64_t_s_s+0xb2>
    3930:	48 83 7d f8 00       	cmpq   $0x0,-0x8(%rbp)
    3935:	7e 1d                	jle    3954 <safe_mul_func_int64_t_s_s+0x58>
    3937:	48 83 7d f0 00       	cmpq   $0x0,-0x10(%rbp)
    393c:	7f 16                	jg     3954 <safe_mul_func_int64_t_s_s+0x58>
    393e:	48 b8 00 00 00 00 00 	movabs $0x8000000000000000,%rax
    3945:	00 00 80 
    3948:	48 99                	cqto   
    394a:	48 f7 7d f8          	idivq  -0x8(%rbp)
    394e:	48 39 45 f0          	cmp    %rax,-0x10(%rbp)
    3952:	7c 5a                	jl     39ae <safe_mul_func_int64_t_s_s+0xb2>
    3954:	48 83 7d f8 00       	cmpq   $0x0,-0x8(%rbp)
    3959:	7f 1d                	jg     3978 <safe_mul_func_int64_t_s_s+0x7c>
    395b:	48 83 7d f0 00       	cmpq   $0x0,-0x10(%rbp)
    3960:	7e 16                	jle    3978 <safe_mul_func_int64_t_s_s+0x7c>
    3962:	48 b8 00 00 00 00 00 	movabs $0x8000000000000000,%rax
    3969:	00 00 80 
    396c:	48 99                	cqto   
    396e:	48 f7 7d f0          	idivq  -0x10(%rbp)
    3972:	48 39 45 f8          	cmp    %rax,-0x8(%rbp)
    3976:	7c 36                	jl     39ae <safe_mul_func_int64_t_s_s+0xb2>
    3978:	48 83 7d f8 00       	cmpq   $0x0,-0x8(%rbp)
    397d:	7f 24                	jg     39a3 <safe_mul_func_int64_t_s_s+0xa7>
    397f:	48 83 7d f0 00       	cmpq   $0x0,-0x10(%rbp)
    3984:	7f 1d                	jg     39a3 <safe_mul_func_int64_t_s_s+0xa7>
    3986:	48 83 7d f8 00       	cmpq   $0x0,-0x8(%rbp)
    398b:	74 16                	je     39a3 <safe_mul_func_int64_t_s_s+0xa7>
    398d:	48 b8 ff ff ff ff ff 	movabs $0x7fffffffffffffff,%rax
    3994:	ff ff 7f 
    3997:	48 99                	cqto   
    3999:	48 f7 7d f8          	idivq  -0x8(%rbp)
    399d:	48 39 45 f0          	cmp    %rax,-0x10(%rbp)
    39a1:	7c 0b                	jl     39ae <safe_mul_func_int64_t_s_s+0xb2>
    39a3:	48 8b 45 f8          	mov    -0x8(%rbp),%rax
    39a7:	48 0f af 45 f0       	imul   -0x10(%rbp),%rax
    39ac:	eb 04                	jmp    39b2 <safe_mul_func_int64_t_s_s+0xb6>
    39ae:	48 8b 45 f8          	mov    -0x8(%rbp),%rax
    39b2:	5d                   	pop    %rbp
    39b3:	c3                   	retq   

00000000000039b4 <safe_mod_func_int64_t_s_s>:
    39b4:	f3 0f 1e fa          	endbr64 
    39b8:	55                   	push   %rbp
    39b9:	48 89 e5             	mov    %rsp,%rbp
    39bc:	48 89 7d f8          	mov    %rdi,-0x8(%rbp)
    39c0:	48 89 75 f0          	mov    %rsi,-0x10(%rbp)
    39c4:	48 83 7d f0 00       	cmpq   $0x0,-0x10(%rbp)
    39c9:	74 26                	je     39f1 <safe_mod_func_int64_t_s_s+0x3d>
    39cb:	48 b8 00 00 00 00 00 	movabs $0x8000000000000000,%rax
    39d2:	00 00 80 
    39d5:	48 39 45 f8          	cmp    %rax,-0x8(%rbp)
    39d9:	75 07                	jne    39e2 <safe_mod_func_int64_t_s_s+0x2e>
    39db:	48 83 7d f0 ff       	cmpq   $0xffffffffffffffff,-0x10(%rbp)
    39e0:	74 0f                	je     39f1 <safe_mod_func_int64_t_s_s+0x3d>
    39e2:	48 8b 45 f8          	mov    -0x8(%rbp),%rax
    39e6:	48 99                	cqto   
    39e8:	48 f7 7d f0          	idivq  -0x10(%rbp)
    39ec:	48 89 d0             	mov    %rdx,%rax
    39ef:	eb 04                	jmp    39f5 <safe_mod_func_int64_t_s_s+0x41>
    39f1:	48 8b 45 f8          	mov    -0x8(%rbp),%rax
    39f5:	5d                   	pop    %rbp
    39f6:	c3                   	retq   

00000000000039f7 <safe_div_func_int64_t_s_s>:
    39f7:	f3 0f 1e fa          	endbr64 
    39fb:	55                   	push   %rbp
    39fc:	48 89 e5             	mov    %rsp,%rbp
    39ff:	48 89 7d f8          	mov    %rdi,-0x8(%rbp)
    3a03:	48 89 75 f0          	mov    %rsi,-0x10(%rbp)
    3a07:	48 83 7d f0 00       	cmpq   $0x0,-0x10(%rbp)
    3a0c:	74 23                	je     3a31 <safe_div_func_int64_t_s_s+0x3a>
    3a0e:	48 b8 00 00 00 00 00 	movabs $0x8000000000000000,%rax
    3a15:	00 00 80 
    3a18:	48 39 45 f8          	cmp    %rax,-0x8(%rbp)
    3a1c:	75 07                	jne    3a25 <safe_div_func_int64_t_s_s+0x2e>
    3a1e:	48 83 7d f0 ff       	cmpq   $0xffffffffffffffff,-0x10(%rbp)
    3a23:	74 0c                	je     3a31 <safe_div_func_int64_t_s_s+0x3a>
    3a25:	48 8b 45 f8          	mov    -0x8(%rbp),%rax
    3a29:	48 99                	cqto   
    3a2b:	48 f7 7d f0          	idivq  -0x10(%rbp)
    3a2f:	eb 04                	jmp    3a35 <safe_div_func_int64_t_s_s+0x3e>
    3a31:	48 8b 45 f8          	mov    -0x8(%rbp),%rax
    3a35:	5d                   	pop    %rbp
    3a36:	c3                   	retq   

0000000000003a37 <safe_lshift_func_int64_t_s_s>:
    3a37:	f3 0f 1e fa          	endbr64 
    3a3b:	55                   	push   %rbp
    3a3c:	48 89 e5             	mov    %rsp,%rbp
    3a3f:	48 89 7d f8          	mov    %rdi,-0x8(%rbp)
    3a43:	89 75 f4             	mov    %esi,-0xc(%rbp)
    3a46:	48 83 7d f8 00       	cmpq   $0x0,-0x8(%rbp)
    3a4b:	78 38                	js     3a85 <safe_lshift_func_int64_t_s_s+0x4e>
    3a4d:	83 7d f4 00          	cmpl   $0x0,-0xc(%rbp)
    3a51:	78 32                	js     3a85 <safe_lshift_func_int64_t_s_s+0x4e>
    3a53:	83 7d f4 1f          	cmpl   $0x1f,-0xc(%rbp)
    3a57:	7f 2c                	jg     3a85 <safe_lshift_func_int64_t_s_s+0x4e>
    3a59:	8b 45 f4             	mov    -0xc(%rbp),%eax
    3a5c:	48 ba ff ff ff ff ff 	movabs $0x7fffffffffffffff,%rdx
    3a63:	ff ff 7f 
    3a66:	89 c1                	mov    %eax,%ecx
    3a68:	48 d3 fa             	sar    %cl,%rdx
    3a6b:	48 89 d0             	mov    %rdx,%rax
    3a6e:	48 39 45 f8          	cmp    %rax,-0x8(%rbp)
    3a72:	7f 11                	jg     3a85 <safe_lshift_func_int64_t_s_s+0x4e>
    3a74:	8b 45 f4             	mov    -0xc(%rbp),%eax
    3a77:	48 8b 55 f8          	mov    -0x8(%rbp),%rdx
    3a7b:	89 c1                	mov    %eax,%ecx
    3a7d:	48 d3 e2             	shl    %cl,%rdx
    3a80:	48 89 d0             	mov    %rdx,%rax
    3a83:	eb 04                	jmp    3a89 <safe_lshift_func_int64_t_s_s+0x52>
    3a85:	48 8b 45 f8          	mov    -0x8(%rbp),%rax
    3a89:	5d                   	pop    %rbp
    3a8a:	c3                   	retq   

0000000000003a8b <safe_lshift_func_int64_t_s_u>:
    3a8b:	f3 0f 1e fa          	endbr64 
    3a8f:	55                   	push   %rbp
    3a90:	48 89 e5             	mov    %rsp,%rbp
    3a93:	48 89 7d f8          	mov    %rdi,-0x8(%rbp)
    3a97:	89 75 f4             	mov    %esi,-0xc(%rbp)
    3a9a:	48 83 7d f8 00       	cmpq   $0x0,-0x8(%rbp)
    3a9f:	78 32                	js     3ad3 <safe_lshift_func_int64_t_s_u+0x48>
    3aa1:	83 7d f4 1f          	cmpl   $0x1f,-0xc(%rbp)
    3aa5:	77 2c                	ja     3ad3 <safe_lshift_func_int64_t_s_u+0x48>
    3aa7:	8b 45 f4             	mov    -0xc(%rbp),%eax
    3aaa:	48 ba ff ff ff ff ff 	movabs $0x7fffffffffffffff,%rdx
    3ab1:	ff ff 7f 
    3ab4:	89 c1                	mov    %eax,%ecx
    3ab6:	48 d3 fa             	sar    %cl,%rdx
    3ab9:	48 89 d0             	mov    %rdx,%rax
    3abc:	48 39 45 f8          	cmp    %rax,-0x8(%rbp)
    3ac0:	7f 11                	jg     3ad3 <safe_lshift_func_int64_t_s_u+0x48>
    3ac2:	8b 45 f4             	mov    -0xc(%rbp),%eax
    3ac5:	48 8b 55 f8          	mov    -0x8(%rbp),%rdx
    3ac9:	89 c1                	mov    %eax,%ecx
    3acb:	48 d3 e2             	shl    %cl,%rdx
    3ace:	48 89 d0             	mov    %rdx,%rax
    3ad1:	eb 04                	jmp    3ad7 <safe_lshift_func_int64_t_s_u+0x4c>
    3ad3:	48 8b 45 f8          	mov    -0x8(%rbp),%rax
    3ad7:	5d                   	pop    %rbp
    3ad8:	c3                   	retq   

0000000000003ad9 <safe_rshift_func_int64_t_s_s>:
    3ad9:	f3 0f 1e fa          	endbr64 
    3add:	55                   	push   %rbp
    3ade:	48 89 e5             	mov    %rsp,%rbp
    3ae1:	48 89 7d f8          	mov    %rdi,-0x8(%rbp)
    3ae5:	89 75 f4             	mov    %esi,-0xc(%rbp)
    3ae8:	48 83 7d f8 00       	cmpq   $0x0,-0x8(%rbp)
    3aed:	78 1d                	js     3b0c <safe_rshift_func_int64_t_s_s+0x33>
    3aef:	83 7d f4 00          	cmpl   $0x0,-0xc(%rbp)
    3af3:	78 17                	js     3b0c <safe_rshift_func_int64_t_s_s+0x33>
    3af5:	83 7d f4 1f          	cmpl   $0x1f,-0xc(%rbp)
    3af9:	7f 11                	jg     3b0c <safe_rshift_func_int64_t_s_s+0x33>
    3afb:	8b 45 f4             	mov    -0xc(%rbp),%eax
    3afe:	48 8b 55 f8          	mov    -0x8(%rbp),%rdx
    3b02:	89 c1                	mov    %eax,%ecx
    3b04:	48 d3 fa             	sar    %cl,%rdx
    3b07:	48 89 d0             	mov    %rdx,%rax
    3b0a:	eb 04                	jmp    3b10 <safe_rshift_func_int64_t_s_s+0x37>
    3b0c:	48 8b 45 f8          	mov    -0x8(%rbp),%rax
    3b10:	5d                   	pop    %rbp
    3b11:	c3                   	retq   

0000000000003b12 <safe_rshift_func_int64_t_s_u>:
    3b12:	f3 0f 1e fa          	endbr64 
    3b16:	55                   	push   %rbp
    3b17:	48 89 e5             	mov    %rsp,%rbp
    3b1a:	48 89 7d f8          	mov    %rdi,-0x8(%rbp)
    3b1e:	89 75 f4             	mov    %esi,-0xc(%rbp)
    3b21:	48 83 7d f8 00       	cmpq   $0x0,-0x8(%rbp)
    3b26:	78 17                	js     3b3f <safe_rshift_func_int64_t_s_u+0x2d>
    3b28:	83 7d f4 1f          	cmpl   $0x1f,-0xc(%rbp)
    3b2c:	77 11                	ja     3b3f <safe_rshift_func_int64_t_s_u+0x2d>
    3b2e:	8b 45 f4             	mov    -0xc(%rbp),%eax
    3b31:	48 8b 55 f8          	mov    -0x8(%rbp),%rdx
    3b35:	89 c1                	mov    %eax,%ecx
    3b37:	48 d3 fa             	sar    %cl,%rdx
    3b3a:	48 89 d0             	mov    %rdx,%rax
    3b3d:	eb 04                	jmp    3b43 <safe_rshift_func_int64_t_s_u+0x31>
    3b3f:	48 8b 45 f8          	mov    -0x8(%rbp),%rax
    3b43:	5d                   	pop    %rbp
    3b44:	c3                   	retq   

0000000000003b45 <safe_unary_minus_func_uint8_t_u>:
    3b45:	f3 0f 1e fa          	endbr64 
    3b49:	55                   	push   %rbp
    3b4a:	48 89 e5             	mov    %rsp,%rbp
    3b4d:	89 f8                	mov    %edi,%eax
    3b4f:	88 45 fc             	mov    %al,-0x4(%rbp)
    3b52:	0f b6 45 fc          	movzbl -0x4(%rbp),%eax
    3b56:	f7 d8                	neg    %eax
    3b58:	5d                   	pop    %rbp
    3b59:	c3                   	retq   

0000000000003b5a <safe_add_func_uint8_t_u_u>:
    3b5a:	f3 0f 1e fa          	endbr64 
    3b5e:	55                   	push   %rbp
    3b5f:	48 89 e5             	mov    %rsp,%rbp
    3b62:	89 fa                	mov    %edi,%edx
    3b64:	89 f0                	mov    %esi,%eax
    3b66:	88 55 fc             	mov    %dl,-0x4(%rbp)
    3b69:	88 45 f8             	mov    %al,-0x8(%rbp)
    3b6c:	0f b6 55 fc          	movzbl -0x4(%rbp),%edx
    3b70:	0f b6 45 f8          	movzbl -0x8(%rbp),%eax
    3b74:	01 d0                	add    %edx,%eax
    3b76:	5d                   	pop    %rbp
    3b77:	c3                   	retq   

0000000000003b78 <safe_sub_func_uint8_t_u_u>:
    3b78:	f3 0f 1e fa          	endbr64 
    3b7c:	55                   	push   %rbp
    3b7d:	48 89 e5             	mov    %rsp,%rbp
    3b80:	89 fa                	mov    %edi,%edx
    3b82:	89 f0                	mov    %esi,%eax
    3b84:	88 55 fc             	mov    %dl,-0x4(%rbp)
    3b87:	88 45 f8             	mov    %al,-0x8(%rbp)
    3b8a:	0f b6 45 fc          	movzbl -0x4(%rbp),%eax
    3b8e:	2a 45 f8             	sub    -0x8(%rbp),%al
    3b91:	5d                   	pop    %rbp
    3b92:	c3                   	retq   

0000000000003b93 <safe_mul_func_uint8_t_u_u>:
    3b93:	f3 0f 1e fa          	endbr64 
    3b97:	55                   	push   %rbp
    3b98:	48 89 e5             	mov    %rsp,%rbp
    3b9b:	89 fa                	mov    %edi,%edx
    3b9d:	89 f0                	mov    %esi,%eax
    3b9f:	88 55 fc             	mov    %dl,-0x4(%rbp)
    3ba2:	88 45 f8             	mov    %al,-0x8(%rbp)
    3ba5:	0f b6 45 fc          	movzbl -0x4(%rbp),%eax
    3ba9:	f6 65 f8             	mulb   -0x8(%rbp)
    3bac:	5d                   	pop    %rbp
    3bad:	c3                   	retq   

0000000000003bae <safe_mod_func_uint8_t_u_u>:
    3bae:	f3 0f 1e fa          	endbr64 
    3bb2:	55                   	push   %rbp
    3bb3:	48 89 e5             	mov    %rsp,%rbp
    3bb6:	89 fa                	mov    %edi,%edx
    3bb8:	89 f0                	mov    %esi,%eax
    3bba:	88 55 fc             	mov    %dl,-0x4(%rbp)
    3bbd:	88 45 f8             	mov    %al,-0x8(%rbp)
    3bc0:	80 7d f8 00          	cmpb   $0x0,-0x8(%rbp)
    3bc4:	74 0f                	je     3bd5 <safe_mod_func_uint8_t_u_u+0x27>
    3bc6:	0f b6 45 fc          	movzbl -0x4(%rbp),%eax
    3bca:	0f b6 c0             	movzbl %al,%eax
    3bcd:	f6 75 f8             	divb   -0x8(%rbp)
    3bd0:	0f b6 c4             	movzbl %ah,%eax
    3bd3:	eb 04                	jmp    3bd9 <safe_mod_func_uint8_t_u_u+0x2b>
    3bd5:	0f b6 45 fc          	movzbl -0x4(%rbp),%eax
    3bd9:	5d                   	pop    %rbp
    3bda:	c3                   	retq   

0000000000003bdb <safe_div_func_uint8_t_u_u>:
    3bdb:	f3 0f 1e fa          	endbr64 
    3bdf:	55                   	push   %rbp
    3be0:	48 89 e5             	mov    %rsp,%rbp
    3be3:	89 fa                	mov    %edi,%edx
    3be5:	89 f0                	mov    %esi,%eax
    3be7:	88 55 fc             	mov    %dl,-0x4(%rbp)
    3bea:	88 45 f8             	mov    %al,-0x8(%rbp)
    3bed:	80 7d f8 00          	cmpb   $0x0,-0x8(%rbp)
    3bf1:	74 0c                	je     3bff <safe_div_func_uint8_t_u_u+0x24>
    3bf3:	0f b6 45 fc          	movzbl -0x4(%rbp),%eax
    3bf7:	0f b6 c0             	movzbl %al,%eax
    3bfa:	f6 75 f8             	divb   -0x8(%rbp)
    3bfd:	eb 04                	jmp    3c03 <safe_div_func_uint8_t_u_u+0x28>
    3bff:	0f b6 45 fc          	movzbl -0x4(%rbp),%eax
    3c03:	5d                   	pop    %rbp
    3c04:	c3                   	retq   

0000000000003c05 <safe_lshift_func_uint8_t_u_s>:
    3c05:	f3 0f 1e fa          	endbr64 
    3c09:	55                   	push   %rbp
    3c0a:	48 89 e5             	mov    %rsp,%rbp
    3c0d:	89 f8                	mov    %edi,%eax
    3c0f:	89 75 f8             	mov    %esi,-0x8(%rbp)
    3c12:	88 45 fc             	mov    %al,-0x4(%rbp)
    3c15:	83 7d f8 00          	cmpl   $0x0,-0x8(%rbp)
    3c19:	78 2b                	js     3c46 <safe_lshift_func_uint8_t_u_s+0x41>
    3c1b:	83 7d f8 1f          	cmpl   $0x1f,-0x8(%rbp)
    3c1f:	7f 25                	jg     3c46 <safe_lshift_func_uint8_t_u_s+0x41>
    3c21:	0f b6 55 fc          	movzbl -0x4(%rbp),%edx
    3c25:	8b 45 f8             	mov    -0x8(%rbp),%eax
    3c28:	be ff 00 00 00       	mov    $0xff,%esi
    3c2d:	89 c1                	mov    %eax,%ecx
    3c2f:	d3 fe                	sar    %cl,%esi
    3c31:	89 f0                	mov    %esi,%eax
    3c33:	39 c2                	cmp    %eax,%edx
    3c35:	7f 0f                	jg     3c46 <safe_lshift_func_uint8_t_u_s+0x41>
    3c37:	0f b6 55 fc          	movzbl -0x4(%rbp),%edx
    3c3b:	8b 45 f8             	mov    -0x8(%rbp),%eax
    3c3e:	89 c1                	mov    %eax,%ecx
    3c40:	d3 e2                	shl    %cl,%edx
    3c42:	89 d0                	mov    %edx,%eax
    3c44:	eb 04                	jmp    3c4a <safe_lshift_func_uint8_t_u_s+0x45>
    3c46:	0f b6 45 fc          	movzbl -0x4(%rbp),%eax
    3c4a:	5d                   	pop    %rbp
    3c4b:	c3                   	retq   

0000000000003c4c <safe_lshift_func_uint8_t_u_u>:
    3c4c:	f3 0f 1e fa          	endbr64 
    3c50:	55                   	push   %rbp
    3c51:	48 89 e5             	mov    %rsp,%rbp
    3c54:	89 f8                	mov    %edi,%eax
    3c56:	89 75 f8             	mov    %esi,-0x8(%rbp)
    3c59:	88 45 fc             	mov    %al,-0x4(%rbp)
    3c5c:	83 7d f8 1f          	cmpl   $0x1f,-0x8(%rbp)
    3c60:	77 25                	ja     3c87 <safe_lshift_func_uint8_t_u_u+0x3b>
    3c62:	0f b6 55 fc          	movzbl -0x4(%rbp),%edx
    3c66:	8b 45 f8             	mov    -0x8(%rbp),%eax
    3c69:	be ff 00 00 00       	mov    $0xff,%esi
    3c6e:	89 c1                	mov    %eax,%ecx
    3c70:	d3 fe                	sar    %cl,%esi
    3c72:	89 f0                	mov    %esi,%eax
    3c74:	39 c2                	cmp    %eax,%edx
    3c76:	7f 0f                	jg     3c87 <safe_lshift_func_uint8_t_u_u+0x3b>
    3c78:	0f b6 55 fc          	movzbl -0x4(%rbp),%edx
    3c7c:	8b 45 f8             	mov    -0x8(%rbp),%eax
    3c7f:	89 c1                	mov    %eax,%ecx
    3c81:	d3 e2                	shl    %cl,%edx
    3c83:	89 d0                	mov    %edx,%eax
    3c85:	eb 04                	jmp    3c8b <safe_lshift_func_uint8_t_u_u+0x3f>
    3c87:	0f b6 45 fc          	movzbl -0x4(%rbp),%eax
    3c8b:	5d                   	pop    %rbp
    3c8c:	c3                   	retq   

0000000000003c8d <safe_rshift_func_uint8_t_u_s>:
    3c8d:	f3 0f 1e fa          	endbr64 
    3c91:	55                   	push   %rbp
    3c92:	48 89 e5             	mov    %rsp,%rbp
    3c95:	89 f8                	mov    %edi,%eax
    3c97:	89 75 f8             	mov    %esi,-0x8(%rbp)
    3c9a:	88 45 fc             	mov    %al,-0x4(%rbp)
    3c9d:	83 7d f8 00          	cmpl   $0x0,-0x8(%rbp)
    3ca1:	78 15                	js     3cb8 <safe_rshift_func_uint8_t_u_s+0x2b>
    3ca3:	83 7d f8 1f          	cmpl   $0x1f,-0x8(%rbp)
    3ca7:	7f 0f                	jg     3cb8 <safe_rshift_func_uint8_t_u_s+0x2b>
    3ca9:	0f b6 55 fc          	movzbl -0x4(%rbp),%edx
    3cad:	8b 45 f8             	mov    -0x8(%rbp),%eax
    3cb0:	89 c1                	mov    %eax,%ecx
    3cb2:	d3 fa                	sar    %cl,%edx
    3cb4:	89 d0                	mov    %edx,%eax
    3cb6:	eb 04                	jmp    3cbc <safe_rshift_func_uint8_t_u_s+0x2f>
    3cb8:	0f b6 45 fc          	movzbl -0x4(%rbp),%eax
    3cbc:	5d                   	pop    %rbp
    3cbd:	c3                   	retq   

0000000000003cbe <safe_rshift_func_uint8_t_u_u>:
    3cbe:	f3 0f 1e fa          	endbr64 
    3cc2:	55                   	push   %rbp
    3cc3:	48 89 e5             	mov    %rsp,%rbp
    3cc6:	89 f8                	mov    %edi,%eax
    3cc8:	89 75 f8             	mov    %esi,-0x8(%rbp)
    3ccb:	88 45 fc             	mov    %al,-0x4(%rbp)
    3cce:	83 7d f8 1f          	cmpl   $0x1f,-0x8(%rbp)
    3cd2:	77 0f                	ja     3ce3 <safe_rshift_func_uint8_t_u_u+0x25>
    3cd4:	0f b6 55 fc          	movzbl -0x4(%rbp),%edx
    3cd8:	8b 45 f8             	mov    -0x8(%rbp),%eax
    3cdb:	89 c1                	mov    %eax,%ecx
    3cdd:	d3 fa                	sar    %cl,%edx
    3cdf:	89 d0                	mov    %edx,%eax
    3ce1:	eb 04                	jmp    3ce7 <safe_rshift_func_uint8_t_u_u+0x29>
    3ce3:	0f b6 45 fc          	movzbl -0x4(%rbp),%eax
    3ce7:	5d                   	pop    %rbp
    3ce8:	c3                   	retq   

0000000000003ce9 <safe_unary_minus_func_uint16_t_u>:
    3ce9:	f3 0f 1e fa          	endbr64 
    3ced:	55                   	push   %rbp
    3cee:	48 89 e5             	mov    %rsp,%rbp
    3cf1:	89 f8                	mov    %edi,%eax
    3cf3:	66 89 45 fc          	mov    %ax,-0x4(%rbp)
    3cf7:	0f b7 45 fc          	movzwl -0x4(%rbp),%eax
    3cfb:	f7 d8                	neg    %eax
    3cfd:	5d                   	pop    %rbp
    3cfe:	c3                   	retq   

0000000000003cff <safe_add_func_uint16_t_u_u>:
    3cff:	f3 0f 1e fa          	endbr64 
    3d03:	55                   	push   %rbp
    3d04:	48 89 e5             	mov    %rsp,%rbp
    3d07:	89 fa                	mov    %edi,%edx
    3d09:	89 f0                	mov    %esi,%eax
    3d0b:	66 89 55 fc          	mov    %dx,-0x4(%rbp)
    3d0f:	66 89 45 f8          	mov    %ax,-0x8(%rbp)
    3d13:	0f b7 55 fc          	movzwl -0x4(%rbp),%edx
    3d17:	0f b7 45 f8          	movzwl -0x8(%rbp),%eax
    3d1b:	01 d0                	add    %edx,%eax
    3d1d:	5d                   	pop    %rbp
    3d1e:	c3                   	retq   

0000000000003d1f <safe_sub_func_uint16_t_u_u>:
    3d1f:	f3 0f 1e fa          	endbr64 
    3d23:	55                   	push   %rbp
    3d24:	48 89 e5             	mov    %rsp,%rbp
    3d27:	89 fa                	mov    %edi,%edx
    3d29:	89 f0                	mov    %esi,%eax
    3d2b:	66 89 55 fc          	mov    %dx,-0x4(%rbp)
    3d2f:	66 89 45 f8          	mov    %ax,-0x8(%rbp)
    3d33:	0f b7 45 fc          	movzwl -0x4(%rbp),%eax
    3d37:	66 2b 45 f8          	sub    -0x8(%rbp),%ax
    3d3b:	5d                   	pop    %rbp
    3d3c:	c3                   	retq   

0000000000003d3d <safe_mul_func_uint16_t_u_u>:
    3d3d:	f3 0f 1e fa          	endbr64 
    3d41:	55                   	push   %rbp
    3d42:	48 89 e5             	mov    %rsp,%rbp
    3d45:	89 fa                	mov    %edi,%edx
    3d47:	89 f0                	mov    %esi,%eax
    3d49:	66 89 55 fc          	mov    %dx,-0x4(%rbp)
    3d4d:	66 89 45 f8          	mov    %ax,-0x8(%rbp)
    3d51:	0f b7 45 fc          	movzwl -0x4(%rbp),%eax
    3d55:	66 0f af 45 f8       	imul   -0x8(%rbp),%ax
    3d5a:	5d                   	pop    %rbp
    3d5b:	c3                   	retq   

0000000000003d5c <safe_mod_func_uint16_t_u_u>:
    3d5c:	f3 0f 1e fa          	endbr64 
    3d60:	55                   	push   %rbp
    3d61:	48 89 e5             	mov    %rsp,%rbp
    3d64:	89 fa                	mov    %edi,%edx
    3d66:	89 f0                	mov    %esi,%eax
    3d68:	66 89 55 fc          	mov    %dx,-0x4(%rbp)
    3d6c:	66 89 45 f8          	mov    %ax,-0x8(%rbp)
    3d70:	66 83 7d f8 00       	cmpw   $0x0,-0x8(%rbp)
    3d75:	74 11                	je     3d88 <safe_mod_func_uint16_t_u_u+0x2c>
    3d77:	0f b7 45 fc          	movzwl -0x4(%rbp),%eax
    3d7b:	ba 00 00 00 00       	mov    $0x0,%edx
    3d80:	66 f7 75 f8          	divw   -0x8(%rbp)
    3d84:	89 d0                	mov    %edx,%eax
    3d86:	eb 04                	jmp    3d8c <safe_mod_func_uint16_t_u_u+0x30>
    3d88:	0f b7 45 fc          	movzwl -0x4(%rbp),%eax
    3d8c:	5d                   	pop    %rbp
    3d8d:	c3                   	retq   

0000000000003d8e <safe_div_func_uint16_t_u_u>:
    3d8e:	f3 0f 1e fa          	endbr64 
    3d92:	55                   	push   %rbp
    3d93:	48 89 e5             	mov    %rsp,%rbp
    3d96:	89 fa                	mov    %edi,%edx
    3d98:	89 f0                	mov    %esi,%eax
    3d9a:	66 89 55 fc          	mov    %dx,-0x4(%rbp)
    3d9e:	66 89 45 f8          	mov    %ax,-0x8(%rbp)
    3da2:	66 83 7d f8 00       	cmpw   $0x0,-0x8(%rbp)
    3da7:	74 0f                	je     3db8 <safe_div_func_uint16_t_u_u+0x2a>
    3da9:	0f b7 45 fc          	movzwl -0x4(%rbp),%eax
    3dad:	ba 00 00 00 00       	mov    $0x0,%edx
    3db2:	66 f7 75 f8          	divw   -0x8(%rbp)
    3db6:	eb 04                	jmp    3dbc <safe_div_func_uint16_t_u_u+0x2e>
    3db8:	0f b7 45 fc          	movzwl -0x4(%rbp),%eax
    3dbc:	5d                   	pop    %rbp
    3dbd:	c3                   	retq   

0000000000003dbe <safe_lshift_func_uint16_t_u_s>:
    3dbe:	f3 0f 1e fa          	endbr64 
    3dc2:	55                   	push   %rbp
    3dc3:	48 89 e5             	mov    %rsp,%rbp
    3dc6:	89 f8                	mov    %edi,%eax
    3dc8:	89 75 f8             	mov    %esi,-0x8(%rbp)
    3dcb:	66 89 45 fc          	mov    %ax,-0x4(%rbp)
    3dcf:	83 7d f8 00          	cmpl   $0x0,-0x8(%rbp)
    3dd3:	78 2b                	js     3e00 <safe_lshift_func_uint16_t_u_s+0x42>
    3dd5:	83 7d f8 1f          	cmpl   $0x1f,-0x8(%rbp)
    3dd9:	7f 25                	jg     3e00 <safe_lshift_func_uint16_t_u_s+0x42>
    3ddb:	0f b7 55 fc          	movzwl -0x4(%rbp),%edx
    3ddf:	8b 45 f8             	mov    -0x8(%rbp),%eax
    3de2:	be ff ff 00 00       	mov    $0xffff,%esi
    3de7:	89 c1                	mov    %eax,%ecx
    3de9:	d3 fe                	sar    %cl,%esi
    3deb:	89 f0                	mov    %esi,%eax
    3ded:	39 c2                	cmp    %eax,%edx
    3def:	7f 0f                	jg     3e00 <safe_lshift_func_uint16_t_u_s+0x42>
    3df1:	0f b7 55 fc          	movzwl -0x4(%rbp),%edx
    3df5:	8b 45 f8             	mov    -0x8(%rbp),%eax
    3df8:	89 c1                	mov    %eax,%ecx
    3dfa:	d3 e2                	shl    %cl,%edx
    3dfc:	89 d0                	mov    %edx,%eax
    3dfe:	eb 04                	jmp    3e04 <safe_lshift_func_uint16_t_u_s+0x46>
    3e00:	0f b7 45 fc          	movzwl -0x4(%rbp),%eax
    3e04:	5d                   	pop    %rbp
    3e05:	c3                   	retq   

0000000000003e06 <safe_lshift_func_uint16_t_u_u>:
    3e06:	f3 0f 1e fa          	endbr64 
    3e0a:	55                   	push   %rbp
    3e0b:	48 89 e5             	mov    %rsp,%rbp
    3e0e:	89 f8                	mov    %edi,%eax
    3e10:	89 75 f8             	mov    %esi,-0x8(%rbp)
    3e13:	66 89 45 fc          	mov    %ax,-0x4(%rbp)
    3e17:	83 7d f8 1f          	cmpl   $0x1f,-0x8(%rbp)
    3e1b:	77 25                	ja     3e42 <safe_lshift_func_uint16_t_u_u+0x3c>
    3e1d:	0f b7 55 fc          	movzwl -0x4(%rbp),%edx
    3e21:	8b 45 f8             	mov    -0x8(%rbp),%eax
    3e24:	be ff ff 00 00       	mov    $0xffff,%esi
    3e29:	89 c1                	mov    %eax,%ecx
    3e2b:	d3 fe                	sar    %cl,%esi
    3e2d:	89 f0                	mov    %esi,%eax
    3e2f:	39 c2                	cmp    %eax,%edx
    3e31:	7f 0f                	jg     3e42 <safe_lshift_func_uint16_t_u_u+0x3c>
    3e33:	0f b7 55 fc          	movzwl -0x4(%rbp),%edx
    3e37:	8b 45 f8             	mov    -0x8(%rbp),%eax
    3e3a:	89 c1                	mov    %eax,%ecx
    3e3c:	d3 e2                	shl    %cl,%edx
    3e3e:	89 d0                	mov    %edx,%eax
    3e40:	eb 04                	jmp    3e46 <safe_lshift_func_uint16_t_u_u+0x40>
    3e42:	0f b7 45 fc          	movzwl -0x4(%rbp),%eax
    3e46:	5d                   	pop    %rbp
    3e47:	c3                   	retq   

0000000000003e48 <safe_rshift_func_uint16_t_u_s>:
    3e48:	f3 0f 1e fa          	endbr64 
    3e4c:	55                   	push   %rbp
    3e4d:	48 89 e5             	mov    %rsp,%rbp
    3e50:	89 f8                	mov    %edi,%eax
    3e52:	89 75 f8             	mov    %esi,-0x8(%rbp)
    3e55:	66 89 45 fc          	mov    %ax,-0x4(%rbp)
    3e59:	83 7d f8 00          	cmpl   $0x0,-0x8(%rbp)
    3e5d:	78 15                	js     3e74 <safe_rshift_func_uint16_t_u_s+0x2c>
    3e5f:	83 7d f8 1f          	cmpl   $0x1f,-0x8(%rbp)
    3e63:	7f 0f                	jg     3e74 <safe_rshift_func_uint16_t_u_s+0x2c>
    3e65:	0f b7 55 fc          	movzwl -0x4(%rbp),%edx
    3e69:	8b 45 f8             	mov    -0x8(%rbp),%eax
    3e6c:	89 c1                	mov    %eax,%ecx
    3e6e:	d3 fa                	sar    %cl,%edx
    3e70:	89 d0                	mov    %edx,%eax
    3e72:	eb 04                	jmp    3e78 <safe_rshift_func_uint16_t_u_s+0x30>
    3e74:	0f b7 45 fc          	movzwl -0x4(%rbp),%eax
    3e78:	5d                   	pop    %rbp
    3e79:	c3                   	retq   

0000000000003e7a <safe_rshift_func_uint16_t_u_u>:
    3e7a:	f3 0f 1e fa          	endbr64 
    3e7e:	55                   	push   %rbp
    3e7f:	48 89 e5             	mov    %rsp,%rbp
    3e82:	89 f8                	mov    %edi,%eax
    3e84:	89 75 f8             	mov    %esi,-0x8(%rbp)
    3e87:	66 89 45 fc          	mov    %ax,-0x4(%rbp)
    3e8b:	83 7d f8 1f          	cmpl   $0x1f,-0x8(%rbp)
    3e8f:	77 0f                	ja     3ea0 <safe_rshift_func_uint16_t_u_u+0x26>
    3e91:	0f b7 55 fc          	movzwl -0x4(%rbp),%edx
    3e95:	8b 45 f8             	mov    -0x8(%rbp),%eax
    3e98:	89 c1                	mov    %eax,%ecx
    3e9a:	d3 fa                	sar    %cl,%edx
    3e9c:	89 d0                	mov    %edx,%eax
    3e9e:	eb 04                	jmp    3ea4 <safe_rshift_func_uint16_t_u_u+0x2a>
    3ea0:	0f b7 45 fc          	movzwl -0x4(%rbp),%eax
    3ea4:	5d                   	pop    %rbp
    3ea5:	c3                   	retq   

0000000000003ea6 <safe_unary_minus_func_uint32_t_u>:
    3ea6:	f3 0f 1e fa          	endbr64 
    3eaa:	55                   	push   %rbp
    3eab:	48 89 e5             	mov    %rsp,%rbp
    3eae:	89 7d fc             	mov    %edi,-0x4(%rbp)
    3eb1:	8b 45 fc             	mov    -0x4(%rbp),%eax
    3eb4:	f7 d8                	neg    %eax
    3eb6:	5d                   	pop    %rbp
    3eb7:	c3                   	retq   

0000000000003eb8 <safe_add_func_uint32_t_u_u>:
    3eb8:	f3 0f 1e fa          	endbr64 
    3ebc:	55                   	push   %rbp
    3ebd:	48 89 e5             	mov    %rsp,%rbp
    3ec0:	89 7d fc             	mov    %edi,-0x4(%rbp)
    3ec3:	89 75 f8             	mov    %esi,-0x8(%rbp)
    3ec6:	8b 55 fc             	mov    -0x4(%rbp),%edx
    3ec9:	8b 45 f8             	mov    -0x8(%rbp),%eax
    3ecc:	01 d0                	add    %edx,%eax
    3ece:	5d                   	pop    %rbp
    3ecf:	c3                   	retq   

0000000000003ed0 <safe_sub_func_uint32_t_u_u>:
    3ed0:	f3 0f 1e fa          	endbr64 
    3ed4:	55                   	push   %rbp
    3ed5:	48 89 e5             	mov    %rsp,%rbp
    3ed8:	89 7d fc             	mov    %edi,-0x4(%rbp)
    3edb:	89 75 f8             	mov    %esi,-0x8(%rbp)
    3ede:	8b 45 fc             	mov    -0x4(%rbp),%eax
    3ee1:	2b 45 f8             	sub    -0x8(%rbp),%eax
    3ee4:	5d                   	pop    %rbp
    3ee5:	c3                   	retq   

0000000000003ee6 <safe_mul_func_uint32_t_u_u>:
    3ee6:	f3 0f 1e fa          	endbr64 
    3eea:	55                   	push   %rbp
    3eeb:	48 89 e5             	mov    %rsp,%rbp
    3eee:	89 7d fc             	mov    %edi,-0x4(%rbp)
    3ef1:	89 75 f8             	mov    %esi,-0x8(%rbp)
    3ef4:	8b 45 fc             	mov    -0x4(%rbp),%eax
    3ef7:	0f af 45 f8          	imul   -0x8(%rbp),%eax
    3efb:	5d                   	pop    %rbp
    3efc:	c3                   	retq   

0000000000003efd <safe_mod_func_uint32_t_u_u>:
    3efd:	f3 0f 1e fa          	endbr64 
    3f01:	55                   	push   %rbp
    3f02:	48 89 e5             	mov    %rsp,%rbp
    3f05:	89 7d fc             	mov    %edi,-0x4(%rbp)
    3f08:	89 75 f8             	mov    %esi,-0x8(%rbp)
    3f0b:	83 7d f8 00          	cmpl   $0x0,-0x8(%rbp)
    3f0f:	74 0f                	je     3f20 <safe_mod_func_uint32_t_u_u+0x23>
    3f11:	8b 45 fc             	mov    -0x4(%rbp),%eax
    3f14:	ba 00 00 00 00       	mov    $0x0,%edx
    3f19:	f7 75 f8             	divl   -0x8(%rbp)
    3f1c:	89 d0                	mov    %edx,%eax
    3f1e:	eb 03                	jmp    3f23 <safe_mod_func_uint32_t_u_u+0x26>
    3f20:	8b 45 fc             	mov    -0x4(%rbp),%eax
    3f23:	5d                   	pop    %rbp
    3f24:	c3                   	retq   

0000000000003f25 <safe_div_func_uint32_t_u_u>:
    3f25:	f3 0f 1e fa          	endbr64 
    3f29:	55                   	push   %rbp
    3f2a:	48 89 e5             	mov    %rsp,%rbp
    3f2d:	89 7d fc             	mov    %edi,-0x4(%rbp)
    3f30:	89 75 f8             	mov    %esi,-0x8(%rbp)
    3f33:	83 7d f8 00          	cmpl   $0x0,-0x8(%rbp)
    3f37:	74 0d                	je     3f46 <safe_div_func_uint32_t_u_u+0x21>
    3f39:	8b 45 fc             	mov    -0x4(%rbp),%eax
    3f3c:	ba 00 00 00 00       	mov    $0x0,%edx
    3f41:	f7 75 f8             	divl   -0x8(%rbp)
    3f44:	eb 03                	jmp    3f49 <safe_div_func_uint32_t_u_u+0x24>
    3f46:	8b 45 fc             	mov    -0x4(%rbp),%eax
    3f49:	5d                   	pop    %rbp
    3f4a:	c3                   	retq   

0000000000003f4b <safe_lshift_func_uint32_t_u_s>:
    3f4b:	f3 0f 1e fa          	endbr64 
    3f4f:	55                   	push   %rbp
    3f50:	48 89 e5             	mov    %rsp,%rbp
    3f53:	89 7d fc             	mov    %edi,-0x4(%rbp)
    3f56:	89 75 f8             	mov    %esi,-0x8(%rbp)
    3f59:	83 7d f8 00          	cmpl   $0x0,-0x8(%rbp)
    3f5d:	78 27                	js     3f86 <safe_lshift_func_uint32_t_u_s+0x3b>
    3f5f:	83 7d f8 1f          	cmpl   $0x1f,-0x8(%rbp)
    3f63:	7f 21                	jg     3f86 <safe_lshift_func_uint32_t_u_s+0x3b>
    3f65:	8b 45 f8             	mov    -0x8(%rbp),%eax
    3f68:	ba ff ff ff ff       	mov    $0xffffffff,%edx
    3f6d:	89 c1                	mov    %eax,%ecx
    3f6f:	d3 ea                	shr    %cl,%edx
    3f71:	89 d0                	mov    %edx,%eax
    3f73:	39 45 fc             	cmp    %eax,-0x4(%rbp)
    3f76:	77 0e                	ja     3f86 <safe_lshift_func_uint32_t_u_s+0x3b>
    3f78:	8b 45 f8             	mov    -0x8(%rbp),%eax
    3f7b:	8b 55 fc             	mov    -0x4(%rbp),%edx
    3f7e:	89 c1                	mov    %eax,%ecx
    3f80:	d3 e2                	shl    %cl,%edx
    3f82:	89 d0                	mov    %edx,%eax
    3f84:	eb 03                	jmp    3f89 <safe_lshift_func_uint32_t_u_s+0x3e>
    3f86:	8b 45 fc             	mov    -0x4(%rbp),%eax
    3f89:	5d                   	pop    %rbp
    3f8a:	c3                   	retq   

0000000000003f8b <safe_lshift_func_uint32_t_u_u>:
    3f8b:	f3 0f 1e fa          	endbr64 
    3f8f:	55                   	push   %rbp
    3f90:	48 89 e5             	mov    %rsp,%rbp
    3f93:	89 7d fc             	mov    %edi,-0x4(%rbp)
    3f96:	89 75 f8             	mov    %esi,-0x8(%rbp)
    3f99:	83 7d f8 1f          	cmpl   $0x1f,-0x8(%rbp)
    3f9d:	77 21                	ja     3fc0 <safe_lshift_func_uint32_t_u_u+0x35>
    3f9f:	8b 45 f8             	mov    -0x8(%rbp),%eax
    3fa2:	ba ff ff ff ff       	mov    $0xffffffff,%edx
    3fa7:	89 c1                	mov    %eax,%ecx
    3fa9:	d3 ea                	shr    %cl,%edx
    3fab:	89 d0                	mov    %edx,%eax
    3fad:	39 45 fc             	cmp    %eax,-0x4(%rbp)
    3fb0:	77 0e                	ja     3fc0 <safe_lshift_func_uint32_t_u_u+0x35>
    3fb2:	8b 45 f8             	mov    -0x8(%rbp),%eax
    3fb5:	8b 55 fc             	mov    -0x4(%rbp),%edx
    3fb8:	89 c1                	mov    %eax,%ecx
    3fba:	d3 e2                	shl    %cl,%edx
    3fbc:	89 d0                	mov    %edx,%eax
    3fbe:	eb 03                	jmp    3fc3 <safe_lshift_func_uint32_t_u_u+0x38>
    3fc0:	8b 45 fc             	mov    -0x4(%rbp),%eax
    3fc3:	5d                   	pop    %rbp
    3fc4:	c3                   	retq   

0000000000003fc5 <safe_rshift_func_uint32_t_u_s>:
    3fc5:	f3 0f 1e fa          	endbr64 
    3fc9:	55                   	push   %rbp
    3fca:	48 89 e5             	mov    %rsp,%rbp
    3fcd:	89 7d fc             	mov    %edi,-0x4(%rbp)
    3fd0:	89 75 f8             	mov    %esi,-0x8(%rbp)
    3fd3:	83 7d f8 00          	cmpl   $0x0,-0x8(%rbp)
    3fd7:	78 14                	js     3fed <safe_rshift_func_uint32_t_u_s+0x28>
    3fd9:	83 7d f8 1f          	cmpl   $0x1f,-0x8(%rbp)
    3fdd:	7f 0e                	jg     3fed <safe_rshift_func_uint32_t_u_s+0x28>
    3fdf:	8b 45 f8             	mov    -0x8(%rbp),%eax
    3fe2:	8b 55 fc             	mov    -0x4(%rbp),%edx
    3fe5:	89 c1                	mov    %eax,%ecx
    3fe7:	d3 ea                	shr    %cl,%edx
    3fe9:	89 d0                	mov    %edx,%eax
    3feb:	eb 03                	jmp    3ff0 <safe_rshift_func_uint32_t_u_s+0x2b>
    3fed:	8b 45 fc             	mov    -0x4(%rbp),%eax
    3ff0:	5d                   	pop    %rbp
    3ff1:	c3                   	retq   

0000000000003ff2 <safe_rshift_func_uint32_t_u_u>:
    3ff2:	f3 0f 1e fa          	endbr64 
    3ff6:	55                   	push   %rbp
    3ff7:	48 89 e5             	mov    %rsp,%rbp
    3ffa:	89 7d fc             	mov    %edi,-0x4(%rbp)
    3ffd:	89 75 f8             	mov    %esi,-0x8(%rbp)
    4000:	83 7d f8 1f          	cmpl   $0x1f,-0x8(%rbp)
    4004:	77 0e                	ja     4014 <safe_rshift_func_uint32_t_u_u+0x22>
    4006:	8b 45 f8             	mov    -0x8(%rbp),%eax
    4009:	8b 55 fc             	mov    -0x4(%rbp),%edx
    400c:	89 c1                	mov    %eax,%ecx
    400e:	d3 ea                	shr    %cl,%edx
    4010:	89 d0                	mov    %edx,%eax
    4012:	eb 03                	jmp    4017 <safe_rshift_func_uint32_t_u_u+0x25>
    4014:	8b 45 fc             	mov    -0x4(%rbp),%eax
    4017:	5d                   	pop    %rbp
    4018:	c3                   	retq   

0000000000004019 <safe_unary_minus_func_uint64_t_u>:
    4019:	f3 0f 1e fa          	endbr64 
    401d:	55                   	push   %rbp
    401e:	48 89 e5             	mov    %rsp,%rbp
    4021:	48 89 7d f8          	mov    %rdi,-0x8(%rbp)
    4025:	48 8b 45 f8          	mov    -0x8(%rbp),%rax
    4029:	48 f7 d8             	neg    %rax
    402c:	5d                   	pop    %rbp
    402d:	c3                   	retq   

000000000000402e <safe_add_func_uint64_t_u_u>:
    402e:	f3 0f 1e fa          	endbr64 
    4032:	55                   	push   %rbp
    4033:	48 89 e5             	mov    %rsp,%rbp
    4036:	48 89 7d f8          	mov    %rdi,-0x8(%rbp)
    403a:	48 89 75 f0          	mov    %rsi,-0x10(%rbp)
    403e:	48 8b 55 f8          	mov    -0x8(%rbp),%rdx
    4042:	48 8b 45 f0          	mov    -0x10(%rbp),%rax
    4046:	48 01 d0             	add    %rdx,%rax
    4049:	5d                   	pop    %rbp
    404a:	c3                   	retq   

000000000000404b <safe_sub_func_uint64_t_u_u>:
    404b:	f3 0f 1e fa          	endbr64 
    404f:	55                   	push   %rbp
    4050:	48 89 e5             	mov    %rsp,%rbp
    4053:	48 89 7d f8          	mov    %rdi,-0x8(%rbp)
    4057:	48 89 75 f0          	mov    %rsi,-0x10(%rbp)
    405b:	48 8b 45 f8          	mov    -0x8(%rbp),%rax
    405f:	48 2b 45 f0          	sub    -0x10(%rbp),%rax
    4063:	5d                   	pop    %rbp
    4064:	c3                   	retq   

0000000000004065 <safe_mul_func_uint64_t_u_u>:
    4065:	f3 0f 1e fa          	endbr64 
    4069:	55                   	push   %rbp
    406a:	48 89 e5             	mov    %rsp,%rbp
    406d:	48 89 7d f8          	mov    %rdi,-0x8(%rbp)
    4071:	48 89 75 f0          	mov    %rsi,-0x10(%rbp)
    4075:	48 8b 45 f8          	mov    -0x8(%rbp),%rax
    4079:	48 0f af 45 f0       	imul   -0x10(%rbp),%rax
    407e:	5d                   	pop    %rbp
    407f:	c3                   	retq   

0000000000004080 <safe_mod_func_uint64_t_u_u>:
    4080:	f3 0f 1e fa          	endbr64 
    4084:	55                   	push   %rbp
    4085:	48 89 e5             	mov    %rsp,%rbp
    4088:	48 89 7d f8          	mov    %rdi,-0x8(%rbp)
    408c:	48 89 75 f0          	mov    %rsi,-0x10(%rbp)
    4090:	48 83 7d f0 00       	cmpq   $0x0,-0x10(%rbp)
    4095:	74 12                	je     40a9 <safe_mod_func_uint64_t_u_u+0x29>
    4097:	48 8b 45 f8          	mov    -0x8(%rbp),%rax
    409b:	ba 00 00 00 00       	mov    $0x0,%edx
    40a0:	48 f7 75 f0          	divq   -0x10(%rbp)
    40a4:	48 89 d0             	mov    %rdx,%rax
    40a7:	eb 04                	jmp    40ad <safe_mod_func_uint64_t_u_u+0x2d>
    40a9:	48 8b 45 f8          	mov    -0x8(%rbp),%rax
    40ad:	5d                   	pop    %rbp
    40ae:	c3                   	retq   

00000000000040af <safe_div_func_uint64_t_u_u>:
    40af:	f3 0f 1e fa          	endbr64 
    40b3:	55                   	push   %rbp
    40b4:	48 89 e5             	mov    %rsp,%rbp
    40b7:	48 89 7d f8          	mov    %rdi,-0x8(%rbp)
    40bb:	48 89 75 f0          	mov    %rsi,-0x10(%rbp)
    40bf:	48 83 7d f0 00       	cmpq   $0x0,-0x10(%rbp)
    40c4:	74 0f                	je     40d5 <safe_div_func_uint64_t_u_u+0x26>
    40c6:	48 8b 45 f8          	mov    -0x8(%rbp),%rax
    40ca:	ba 00 00 00 00       	mov    $0x0,%edx
    40cf:	48 f7 75 f0          	divq   -0x10(%rbp)
    40d3:	eb 04                	jmp    40d9 <safe_div_func_uint64_t_u_u+0x2a>
    40d5:	48 8b 45 f8          	mov    -0x8(%rbp),%rax
    40d9:	5d                   	pop    %rbp
    40da:	c3                   	retq   

00000000000040db <safe_lshift_func_uint64_t_u_s>:
    40db:	f3 0f 1e fa          	endbr64 
    40df:	55                   	push   %rbp
    40e0:	48 89 e5             	mov    %rsp,%rbp
    40e3:	48 89 7d f8          	mov    %rdi,-0x8(%rbp)
    40e7:	89 75 f4             	mov    %esi,-0xc(%rbp)
    40ea:	83 7d f4 00          	cmpl   $0x0,-0xc(%rbp)
    40ee:	78 2f                	js     411f <safe_lshift_func_uint64_t_u_s+0x44>
    40f0:	83 7d f4 1f          	cmpl   $0x1f,-0xc(%rbp)
    40f4:	7f 29                	jg     411f <safe_lshift_func_uint64_t_u_s+0x44>
    40f6:	8b 45 f4             	mov    -0xc(%rbp),%eax
    40f9:	48 c7 c2 ff ff ff ff 	mov    $0xffffffffffffffff,%rdx
    4100:	89 c1                	mov    %eax,%ecx
    4102:	48 d3 ea             	shr    %cl,%rdx
    4105:	48 89 d0             	mov    %rdx,%rax
    4108:	48 39 45 f8          	cmp    %rax,-0x8(%rbp)
    410c:	77 11                	ja     411f <safe_lshift_func_uint64_t_u_s+0x44>
    410e:	8b 45 f4             	mov    -0xc(%rbp),%eax
    4111:	48 8b 55 f8          	mov    -0x8(%rbp),%rdx
    4115:	89 c1                	mov    %eax,%ecx
    4117:	48 d3 e2             	shl    %cl,%rdx
    411a:	48 89 d0             	mov    %rdx,%rax
    411d:	eb 04                	jmp    4123 <safe_lshift_func_uint64_t_u_s+0x48>
    411f:	48 8b 45 f8          	mov    -0x8(%rbp),%rax
    4123:	5d                   	pop    %rbp
    4124:	c3                   	retq   

0000000000004125 <safe_lshift_func_uint64_t_u_u>:
    4125:	f3 0f 1e fa          	endbr64 
    4129:	55                   	push   %rbp
    412a:	48 89 e5             	mov    %rsp,%rbp
    412d:	48 89 7d f8          	mov    %rdi,-0x8(%rbp)
    4131:	89 75 f4             	mov    %esi,-0xc(%rbp)
    4134:	83 7d f4 1f          	cmpl   $0x1f,-0xc(%rbp)
    4138:	77 29                	ja     4163 <safe_lshift_func_uint64_t_u_u+0x3e>
    413a:	8b 45 f4             	mov    -0xc(%rbp),%eax
    413d:	48 c7 c2 ff ff ff ff 	mov    $0xffffffffffffffff,%rdx
    4144:	89 c1                	mov    %eax,%ecx
    4146:	48 d3 ea             	shr    %cl,%rdx
    4149:	48 89 d0             	mov    %rdx,%rax
    414c:	48 39 45 f8          	cmp    %rax,-0x8(%rbp)
    4150:	77 11                	ja     4163 <safe_lshift_func_uint64_t_u_u+0x3e>
    4152:	8b 45 f4             	mov    -0xc(%rbp),%eax
    4155:	48 8b 55 f8          	mov    -0x8(%rbp),%rdx
    4159:	89 c1                	mov    %eax,%ecx
    415b:	48 d3 e2             	shl    %cl,%rdx
    415e:	48 89 d0             	mov    %rdx,%rax
    4161:	eb 04                	jmp    4167 <safe_lshift_func_uint64_t_u_u+0x42>
    4163:	48 8b 45 f8          	mov    -0x8(%rbp),%rax
    4167:	5d                   	pop    %rbp
    4168:	c3                   	retq   

0000000000004169 <safe_rshift_func_uint64_t_u_s>:
    4169:	f3 0f 1e fa          	endbr64 
    416d:	55                   	push   %rbp
    416e:	48 89 e5             	mov    %rsp,%rbp
    4171:	48 89 7d f8          	mov    %rdi,-0x8(%rbp)
    4175:	89 75 f4             	mov    %esi,-0xc(%rbp)
    4178:	83 7d f4 00          	cmpl   $0x0,-0xc(%rbp)
    417c:	78 17                	js     4195 <safe_rshift_func_uint64_t_u_s+0x2c>
    417e:	83 7d f4 1f          	cmpl   $0x1f,-0xc(%rbp)
    4182:	7f 11                	jg     4195 <safe_rshift_func_uint64_t_u_s+0x2c>
    4184:	8b 45 f4             	mov    -0xc(%rbp),%eax
    4187:	48 8b 55 f8          	mov    -0x8(%rbp),%rdx
    418b:	89 c1                	mov    %eax,%ecx
    418d:	48 d3 ea             	shr    %cl,%rdx
    4190:	48 89 d0             	mov    %rdx,%rax
    4193:	eb 04                	jmp    4199 <safe_rshift_func_uint64_t_u_s+0x30>
    4195:	48 8b 45 f8          	mov    -0x8(%rbp),%rax
    4199:	5d                   	pop    %rbp
    419a:	c3                   	retq   

000000000000419b <safe_rshift_func_uint64_t_u_u>:
    419b:	f3 0f 1e fa          	endbr64 
    419f:	55                   	push   %rbp
    41a0:	48 89 e5             	mov    %rsp,%rbp
    41a3:	48 89 7d f8          	mov    %rdi,-0x8(%rbp)
    41a7:	89 75 f4             	mov    %esi,-0xc(%rbp)
    41aa:	83 7d f4 1f          	cmpl   $0x1f,-0xc(%rbp)
    41ae:	77 11                	ja     41c1 <safe_rshift_func_uint64_t_u_u+0x26>
    41b0:	8b 45 f4             	mov    -0xc(%rbp),%eax
    41b3:	48 8b 55 f8          	mov    -0x8(%rbp),%rdx
    41b7:	89 c1                	mov    %eax,%ecx
    41b9:	48 d3 ea             	shr    %cl,%rdx
    41bc:	48 89 d0             	mov    %rdx,%rax
    41bf:	eb 04                	jmp    41c5 <safe_rshift_func_uint64_t_u_u+0x2a>
    41c1:	48 8b 45 f8          	mov    -0x8(%rbp),%rax
    41c5:	5d                   	pop    %rbp
    41c6:	c3                   	retq   

00000000000041c7 <safe_add_func_float_f_f>:
    41c7:	f3 0f 1e fa          	endbr64 
    41cb:	55                   	push   %rbp
    41cc:	48 89 e5             	mov    %rsp,%rbp
    41cf:	f3 0f 11 45 fc       	movss  %xmm0,-0x4(%rbp)
    41d4:	f3 0f 11 4d f8       	movss  %xmm1,-0x8(%rbp)
    41d9:	f3 0f 10 4d fc       	movss  -0x4(%rbp),%xmm1
    41de:	f3 0f 10 05 c2 52 00 	movss  0x52c2(%rip),%xmm0        # 94a8 <_IO_stdin_used+0x4a8>
    41e5:	00 
    41e6:	f3 0f 59 c8          	mulss  %xmm0,%xmm1
    41ea:	f3 0f 10 55 f8       	movss  -0x8(%rbp),%xmm2
    41ef:	f3 0f 10 05 b1 52 00 	movss  0x52b1(%rip),%xmm0        # 94a8 <_IO_stdin_used+0x4a8>
    41f6:	00 
    41f7:	f3 0f 59 c2          	mulss  %xmm2,%xmm0
    41fb:	f3 0f 58 c1          	addss  %xmm1,%xmm0
    41ff:	f3 0f 10 0d a9 52 00 	movss  0x52a9(%rip),%xmm1        # 94b0 <_IO_stdin_used+0x4b0>
    4206:	00 
    4207:	0f 54 c1             	andps  %xmm1,%xmm0
    420a:	0f 2f 05 af 52 00 00 	comiss 0x52af(%rip),%xmm0        # 94c0 <_IO_stdin_used+0x4c0>
    4211:	76 07                	jbe    421a <safe_add_func_float_f_f+0x53>
    4213:	f3 0f 10 45 fc       	movss  -0x4(%rbp),%xmm0
    4218:	eb 0a                	jmp    4224 <safe_add_func_float_f_f+0x5d>
    421a:	f3 0f 10 45 fc       	movss  -0x4(%rbp),%xmm0
    421f:	f3 0f 58 45 f8       	addss  -0x8(%rbp),%xmm0
    4224:	5d                   	pop    %rbp
    4225:	c3                   	retq   

0000000000004226 <safe_sub_func_float_f_f>:
    4226:	f3 0f 1e fa          	endbr64 
    422a:	55                   	push   %rbp
    422b:	48 89 e5             	mov    %rsp,%rbp
    422e:	f3 0f 11 45 fc       	movss  %xmm0,-0x4(%rbp)
    4233:	f3 0f 11 4d f8       	movss  %xmm1,-0x8(%rbp)
    4238:	f3 0f 10 4d fc       	movss  -0x4(%rbp),%xmm1
    423d:	f3 0f 10 05 63 52 00 	movss  0x5263(%rip),%xmm0        # 94a8 <_IO_stdin_used+0x4a8>
    4244:	00 
    4245:	f3 0f 59 c1          	mulss  %xmm1,%xmm0
    4249:	f3 0f 10 55 f8       	movss  -0x8(%rbp),%xmm2
    424e:	f3 0f 10 0d 52 52 00 	movss  0x5252(%rip),%xmm1        # 94a8 <_IO_stdin_used+0x4a8>
    4255:	00 
    4256:	f3 0f 59 ca          	mulss  %xmm2,%xmm1
    425a:	f3 0f 5c c1          	subss  %xmm1,%xmm0
    425e:	f3 0f 10 0d 4a 52 00 	movss  0x524a(%rip),%xmm1        # 94b0 <_IO_stdin_used+0x4b0>
    4265:	00 
    4266:	0f 54 c1             	andps  %xmm1,%xmm0
    4269:	0f 2f 05 50 52 00 00 	comiss 0x5250(%rip),%xmm0        # 94c0 <_IO_stdin_used+0x4c0>
    4270:	76 07                	jbe    4279 <safe_sub_func_float_f_f+0x53>
    4272:	f3 0f 10 45 fc       	movss  -0x4(%rbp),%xmm0
    4277:	eb 0a                	jmp    4283 <safe_sub_func_float_f_f+0x5d>
    4279:	f3 0f 10 45 fc       	movss  -0x4(%rbp),%xmm0
    427e:	f3 0f 5c 45 f8       	subss  -0x8(%rbp),%xmm0
    4283:	5d                   	pop    %rbp
    4284:	c3                   	retq   

0000000000004285 <safe_mul_func_float_f_f>:
    4285:	f3 0f 1e fa          	endbr64 
    4289:	55                   	push   %rbp
    428a:	48 89 e5             	mov    %rsp,%rbp
    428d:	f3 0f 11 45 fc       	movss  %xmm0,-0x4(%rbp)
    4292:	f3 0f 11 4d f8       	movss  %xmm1,-0x8(%rbp)
    4297:	f3 0f 10 4d fc       	movss  -0x4(%rbp),%xmm1
    429c:	f3 0f 10 05 20 52 00 	movss  0x5220(%rip),%xmm0        # 94c4 <_IO_stdin_used+0x4c4>
    42a3:	00 
    42a4:	f3 0f 59 c8          	mulss  %xmm0,%xmm1
    42a8:	f3 0f 10 55 f8       	movss  -0x8(%rbp),%xmm2
    42ad:	f3 0f 10 05 13 52 00 	movss  0x5213(%rip),%xmm0        # 94c8 <_IO_stdin_used+0x4c8>
    42b4:	00 
    42b5:	f3 0f 59 c2          	mulss  %xmm2,%xmm0
    42b9:	f3 0f 59 c1          	mulss  %xmm1,%xmm0
    42bd:	f3 0f 10 0d eb 51 00 	movss  0x51eb(%rip),%xmm1        # 94b0 <_IO_stdin_used+0x4b0>
    42c4:	00 
    42c5:	0f 54 c1             	andps  %xmm1,%xmm0
    42c8:	0f 2f 05 fd 51 00 00 	comiss 0x51fd(%rip),%xmm0        # 94cc <_IO_stdin_used+0x4cc>
    42cf:	76 07                	jbe    42d8 <safe_mul_func_float_f_f+0x53>
    42d1:	f3 0f 10 45 fc       	movss  -0x4(%rbp),%xmm0
    42d6:	eb 0a                	jmp    42e2 <safe_mul_func_float_f_f+0x5d>
    42d8:	f3 0f 10 45 fc       	movss  -0x4(%rbp),%xmm0
    42dd:	f3 0f 59 45 f8       	mulss  -0x8(%rbp),%xmm0
    42e2:	5d                   	pop    %rbp
    42e3:	c3                   	retq   

00000000000042e4 <safe_div_func_float_f_f>:
    42e4:	f3 0f 1e fa          	endbr64 
    42e8:	55                   	push   %rbp
    42e9:	48 89 e5             	mov    %rsp,%rbp
    42ec:	f3 0f 11 45 fc       	movss  %xmm0,-0x4(%rbp)
    42f1:	f3 0f 11 4d f8       	movss  %xmm1,-0x8(%rbp)
    42f6:	f3 0f 10 45 f8       	movss  -0x8(%rbp),%xmm0
    42fb:	f3 0f 10 0d ad 51 00 	movss  0x51ad(%rip),%xmm1        # 94b0 <_IO_stdin_used+0x4b0>
    4302:	00 
    4303:	0f 54 c8             	andps  %xmm0,%xmm1
    4306:	f3 0f 10 05 c2 51 00 	movss  0x51c2(%rip),%xmm0        # 94d0 <_IO_stdin_used+0x4d0>
    430d:	00 
    430e:	0f 2f c1             	comiss %xmm1,%xmm0
    4311:	0f 97 c0             	seta   %al
    4314:	83 f0 01             	xor    $0x1,%eax
    4317:	84 c0                	test   %al,%al
    4319:	75 56                	jne    4371 <safe_div_func_float_f_f+0x8d>
    431b:	66 0f ef c0          	pxor   %xmm0,%xmm0
    431f:	0f 2e 45 f8          	ucomiss -0x8(%rbp),%xmm0
    4323:	7a 0a                	jp     432f <safe_div_func_float_f_f+0x4b>
    4325:	66 0f ef c0          	pxor   %xmm0,%xmm0
    4329:	0f 2e 45 f8          	ucomiss -0x8(%rbp),%xmm0
    432d:	74 4e                	je     437d <safe_div_func_float_f_f+0x99>
    432f:	f3 0f 10 4d fc       	movss  -0x4(%rbp),%xmm1
    4334:	f3 0f 10 05 98 51 00 	movss  0x5198(%rip),%xmm0        # 94d4 <_IO_stdin_used+0x4d4>
    433b:	00 
    433c:	f3 0f 59 c1          	mulss  %xmm1,%xmm0
    4340:	f3 0f 10 55 f8       	movss  -0x8(%rbp),%xmm2
    4345:	f3 0f 10 0d 8b 51 00 	movss  0x518b(%rip),%xmm1        # 94d8 <_IO_stdin_used+0x4d8>
    434c:	00 
    434d:	f3 0f 59 ca          	mulss  %xmm2,%xmm1
    4351:	f3 0f 5e c1          	divss  %xmm1,%xmm0
    4355:	f3 0f 10 0d 53 51 00 	movss  0x5153(%rip),%xmm1        # 94b0 <_IO_stdin_used+0x4b0>
    435c:	00 
    435d:	0f 54 c1             	andps  %xmm1,%xmm0
    4360:	0f 2f 05 75 51 00 00 	comiss 0x5175(%rip),%xmm0        # 94dc <_IO_stdin_used+0x4dc>
    4367:	0f 97 c0             	seta   %al
    436a:	83 f0 01             	xor    $0x1,%eax
    436d:	84 c0                	test   %al,%al
    436f:	74 0c                	je     437d <safe_div_func_float_f_f+0x99>
    4371:	f3 0f 10 45 fc       	movss  -0x4(%rbp),%xmm0
    4376:	f3 0f 5e 45 f8       	divss  -0x8(%rbp),%xmm0
    437b:	eb 05                	jmp    4382 <safe_div_func_float_f_f+0x9e>
    437d:	f3 0f 10 45 fc       	movss  -0x4(%rbp),%xmm0
    4382:	5d                   	pop    %rbp
    4383:	c3                   	retq   

0000000000004384 <safe_add_func_double_f_f>:
    4384:	f3 0f 1e fa          	endbr64 
    4388:	55                   	push   %rbp
    4389:	48 89 e5             	mov    %rsp,%rbp
    438c:	f2 0f 11 45 f8       	movsd  %xmm0,-0x8(%rbp)
    4391:	f2 0f 11 4d f0       	movsd  %xmm1,-0x10(%rbp)
    4396:	f2 0f 10 4d f8       	movsd  -0x8(%rbp),%xmm1
    439b:	f2 0f 10 05 3d 51 00 	movsd  0x513d(%rip),%xmm0        # 94e0 <_IO_stdin_used+0x4e0>
    43a2:	00 
    43a3:	f2 0f 59 c8          	mulsd  %xmm0,%xmm1
    43a7:	f2 0f 10 55 f0       	movsd  -0x10(%rbp),%xmm2
    43ac:	f2 0f 10 05 2c 51 00 	movsd  0x512c(%rip),%xmm0        # 94e0 <_IO_stdin_used+0x4e0>
    43b3:	00 
    43b4:	f2 0f 59 c2          	mulsd  %xmm2,%xmm0
    43b8:	f2 0f 58 c1          	addsd  %xmm1,%xmm0
    43bc:	f3 0f 7e 0d 2c 51 00 	movq   0x512c(%rip),%xmm1        # 94f0 <_IO_stdin_used+0x4f0>
    43c3:	00 
    43c4:	66 0f 54 c1          	andpd  %xmm1,%xmm0
    43c8:	66 0f 2f 05 30 51 00 	comisd 0x5130(%rip),%xmm0        # 9500 <_IO_stdin_used+0x500>
    43cf:	00 
    43d0:	76 07                	jbe    43d9 <safe_add_func_double_f_f+0x55>
    43d2:	f2 0f 10 45 f8       	movsd  -0x8(%rbp),%xmm0
    43d7:	eb 0a                	jmp    43e3 <safe_add_func_double_f_f+0x5f>
    43d9:	f2 0f 10 45 f8       	movsd  -0x8(%rbp),%xmm0
    43de:	f2 0f 58 45 f0       	addsd  -0x10(%rbp),%xmm0
    43e3:	5d                   	pop    %rbp
    43e4:	c3                   	retq   

00000000000043e5 <safe_sub_func_double_f_f>:
    43e5:	f3 0f 1e fa          	endbr64 
    43e9:	55                   	push   %rbp
    43ea:	48 89 e5             	mov    %rsp,%rbp
    43ed:	f2 0f 11 45 f8       	movsd  %xmm0,-0x8(%rbp)
    43f2:	f2 0f 11 4d f0       	movsd  %xmm1,-0x10(%rbp)
    43f7:	f2 0f 10 4d f8       	movsd  -0x8(%rbp),%xmm1
    43fc:	f2 0f 10 05 dc 50 00 	movsd  0x50dc(%rip),%xmm0        # 94e0 <_IO_stdin_used+0x4e0>
    4403:	00 
    4404:	f2 0f 59 c1          	mulsd  %xmm1,%xmm0
    4408:	f2 0f 10 55 f0       	movsd  -0x10(%rbp),%xmm2
    440d:	f2 0f 10 0d cb 50 00 	movsd  0x50cb(%rip),%xmm1        # 94e0 <_IO_stdin_used+0x4e0>
    4414:	00 
    4415:	f2 0f 59 ca          	mulsd  %xmm2,%xmm1
    4419:	f2 0f 5c c1          	subsd  %xmm1,%xmm0
    441d:	f3 0f 7e 0d cb 50 00 	movq   0x50cb(%rip),%xmm1        # 94f0 <_IO_stdin_used+0x4f0>
    4424:	00 
    4425:	66 0f 54 c1          	andpd  %xmm1,%xmm0
    4429:	66 0f 2f 05 cf 50 00 	comisd 0x50cf(%rip),%xmm0        # 9500 <_IO_stdin_used+0x500>
    4430:	00 
    4431:	76 07                	jbe    443a <safe_sub_func_double_f_f+0x55>
    4433:	f2 0f 10 45 f8       	movsd  -0x8(%rbp),%xmm0
    4438:	eb 0a                	jmp    4444 <safe_sub_func_double_f_f+0x5f>
    443a:	f2 0f 10 45 f8       	movsd  -0x8(%rbp),%xmm0
    443f:	f2 0f 5c 45 f0       	subsd  -0x10(%rbp),%xmm0
    4444:	5d                   	pop    %rbp
    4445:	c3                   	retq   

0000000000004446 <safe_mul_func_double_f_f>:
    4446:	f3 0f 1e fa          	endbr64 
    444a:	55                   	push   %rbp
    444b:	48 89 e5             	mov    %rsp,%rbp
    444e:	f2 0f 11 45 f8       	movsd  %xmm0,-0x8(%rbp)
    4453:	f2 0f 11 4d f0       	movsd  %xmm1,-0x10(%rbp)
    4458:	f2 0f 10 4d f8       	movsd  -0x8(%rbp),%xmm1
    445d:	f2 0f 10 05 a3 50 00 	movsd  0x50a3(%rip),%xmm0        # 9508 <_IO_stdin_used+0x508>
    4464:	00 
    4465:	f2 0f 59 c8          	mulsd  %xmm0,%xmm1
    4469:	f2 0f 10 55 f0       	movsd  -0x10(%rbp),%xmm2
    446e:	f2 0f 10 05 9a 50 00 	movsd  0x509a(%rip),%xmm0        # 9510 <_IO_stdin_used+0x510>
    4475:	00 
    4476:	f2 0f 59 c2          	mulsd  %xmm2,%xmm0
    447a:	f2 0f 59 c1          	mulsd  %xmm1,%xmm0
    447e:	f3 0f 7e 0d 6a 50 00 	movq   0x506a(%rip),%xmm1        # 94f0 <_IO_stdin_used+0x4f0>
    4485:	00 
    4486:	66 0f 54 c1          	andpd  %xmm1,%xmm0
    448a:	66 0f 2f 05 86 50 00 	comisd 0x5086(%rip),%xmm0        # 9518 <_IO_stdin_used+0x518>
    4491:	00 
    4492:	76 07                	jbe    449b <safe_mul_func_double_f_f+0x55>
    4494:	f2 0f 10 45 f8       	movsd  -0x8(%rbp),%xmm0
    4499:	eb 0a                	jmp    44a5 <safe_mul_func_double_f_f+0x5f>
    449b:	f2 0f 10 45 f8       	movsd  -0x8(%rbp),%xmm0
    44a0:	f2 0f 59 45 f0       	mulsd  -0x10(%rbp),%xmm0
    44a5:	5d                   	pop    %rbp
    44a6:	c3                   	retq   

00000000000044a7 <safe_div_func_double_f_f>:
    44a7:	f3 0f 1e fa          	endbr64 
    44ab:	55                   	push   %rbp
    44ac:	48 89 e5             	mov    %rsp,%rbp
    44af:	f2 0f 11 45 f8       	movsd  %xmm0,-0x8(%rbp)
    44b4:	f2 0f 11 4d f0       	movsd  %xmm1,-0x10(%rbp)
    44b9:	f2 0f 10 45 f0       	movsd  -0x10(%rbp),%xmm0
    44be:	f3 0f 7e 0d 2a 50 00 	movq   0x502a(%rip),%xmm1        # 94f0 <_IO_stdin_used+0x4f0>
    44c5:	00 
    44c6:	66 0f 54 c8          	andpd  %xmm0,%xmm1
    44ca:	f2 0f 10 05 4e 50 00 	movsd  0x504e(%rip),%xmm0        # 9520 <_IO_stdin_used+0x520>
    44d1:	00 
    44d2:	66 0f 2f c1          	comisd %xmm1,%xmm0
    44d6:	0f 97 c0             	seta   %al
    44d9:	83 f0 01             	xor    $0x1,%eax
    44dc:	84 c0                	test   %al,%al
    44de:	75 5a                	jne    453a <safe_div_func_double_f_f+0x93>
    44e0:	66 0f ef c0          	pxor   %xmm0,%xmm0
    44e4:	66 0f 2e 45 f0       	ucomisd -0x10(%rbp),%xmm0
    44e9:	7a 0b                	jp     44f6 <safe_div_func_double_f_f+0x4f>
    44eb:	66 0f ef c0          	pxor   %xmm0,%xmm0
    44ef:	66 0f 2e 45 f0       	ucomisd -0x10(%rbp),%xmm0
    44f4:	74 50                	je     4546 <safe_div_func_double_f_f+0x9f>
    44f6:	f2 0f 10 4d f8       	movsd  -0x8(%rbp),%xmm1
    44fb:	f2 0f 10 05 25 50 00 	movsd  0x5025(%rip),%xmm0        # 9528 <_IO_stdin_used+0x528>
    4502:	00 
    4503:	f2 0f 59 c1          	mulsd  %xmm1,%xmm0
    4507:	f2 0f 10 55 f0       	movsd  -0x10(%rbp),%xmm2
    450c:	f2 0f 10 0d 1c 50 00 	movsd  0x501c(%rip),%xmm1        # 9530 <_IO_stdin_used+0x530>
    4513:	00 
    4514:	f2 0f 59 ca          	mulsd  %xmm2,%xmm1
    4518:	f2 0f 5e c1          	divsd  %xmm1,%xmm0
    451c:	f3 0f 7e 0d cc 4f 00 	movq   0x4fcc(%rip),%xmm1        # 94f0 <_IO_stdin_used+0x4f0>
    4523:	00 
    4524:	66 0f 54 c1          	andpd  %xmm1,%xmm0
    4528:	66 0f 2f 05 08 50 00 	comisd 0x5008(%rip),%xmm0        # 9538 <_IO_stdin_used+0x538>
    452f:	00 
    4530:	0f 97 c0             	seta   %al
    4533:	83 f0 01             	xor    $0x1,%eax
    4536:	84 c0                	test   %al,%al
    4538:	74 0c                	je     4546 <safe_div_func_double_f_f+0x9f>
    453a:	f2 0f 10 45 f8       	movsd  -0x8(%rbp),%xmm0
    453f:	f2 0f 5e 45 f0       	divsd  -0x10(%rbp),%xmm0
    4544:	eb 05                	jmp    454b <safe_div_func_double_f_f+0xa4>
    4546:	f2 0f 10 45 f8       	movsd  -0x8(%rbp),%xmm0
    454b:	5d                   	pop    %rbp
    454c:	c3                   	retq   

000000000000454d <safe_convert_func_float_to_int32_t>:
    454d:	f3 0f 1e fa          	endbr64 
    4551:	55                   	push   %rbp
    4552:	48 89 e5             	mov    %rsp,%rbp
    4555:	f3 0f 11 45 fc       	movss  %xmm0,-0x4(%rbp)
    455a:	f3 0f 10 05 de 4f 00 	movss  0x4fde(%rip),%xmm0        # 9540 <_IO_stdin_used+0x540>
    4561:	00 
    4562:	0f 2f 45 fc          	comiss -0x4(%rbp),%xmm0
    4566:	0f 93 c0             	setae  %al
    4569:	83 f0 01             	xor    $0x1,%eax
    456c:	84 c0                	test   %al,%al
    456e:	74 21                	je     4591 <safe_convert_func_float_to_int32_t+0x44>
    4570:	f3 0f 10 45 fc       	movss  -0x4(%rbp),%xmm0
    4575:	0f 2f 05 c8 4f 00 00 	comiss 0x4fc8(%rip),%xmm0        # 9544 <_IO_stdin_used+0x544>
    457c:	0f 93 c0             	setae  %al
    457f:	83 f0 01             	xor    $0x1,%eax
    4582:	84 c0                	test   %al,%al
    4584:	74 0b                	je     4591 <safe_convert_func_float_to_int32_t+0x44>
    4586:	f3 0f 10 45 fc       	movss  -0x4(%rbp),%xmm0
    458b:	f3 0f 2c c0          	cvttss2si %xmm0,%eax
    458f:	eb 05                	jmp    4596 <safe_convert_func_float_to_int32_t+0x49>
    4591:	b8 ff ff ff 7f       	mov    $0x7fffffff,%eax
    4596:	5d                   	pop    %rbp
    4597:	c3                   	retq   

0000000000004598 <crc32_gentab>:
    4598:	f3 0f 1e fa          	endbr64 
    459c:	55                   	push   %rbp
    459d:	48 89 e5             	mov    %rsp,%rbp
    45a0:	c7 45 fc 20 83 b8 ed 	movl   $0xedb88320,-0x4(%rbp)
    45a7:	c7 45 f4 00 00 00 00 	movl   $0x0,-0xc(%rbp)
    45ae:	eb 51                	jmp    4601 <crc32_gentab+0x69>
    45b0:	8b 45 f4             	mov    -0xc(%rbp),%eax
    45b3:	89 45 f0             	mov    %eax,-0x10(%rbp)
    45b6:	c7 45 f8 08 00 00 00 	movl   $0x8,-0x8(%rbp)
    45bd:	eb 1e                	jmp    45dd <crc32_gentab+0x45>
    45bf:	8b 45 f0             	mov    -0x10(%rbp),%eax
    45c2:	83 e0 01             	and    $0x1,%eax
    45c5:	85 c0                	test   %eax,%eax
    45c7:	74 0d                	je     45d6 <crc32_gentab+0x3e>
    45c9:	8b 45 f0             	mov    -0x10(%rbp),%eax
    45cc:	d1 e8                	shr    %eax
    45ce:	33 45 fc             	xor    -0x4(%rbp),%eax
    45d1:	89 45 f0             	mov    %eax,-0x10(%rbp)
    45d4:	eb 03                	jmp    45d9 <crc32_gentab+0x41>
    45d6:	d1 6d f0             	shrl   -0x10(%rbp)
    45d9:	83 6d f8 01          	subl   $0x1,-0x8(%rbp)
    45dd:	83 7d f8 00          	cmpl   $0x0,-0x8(%rbp)
    45e1:	7f dc                	jg     45bf <crc32_gentab+0x27>
    45e3:	8b 45 f4             	mov    -0xc(%rbp),%eax
    45e6:	48 98                	cltq   
    45e8:	48 8d 0c 85 00 00 00 	lea    0x0(,%rax,4),%rcx
    45ef:	00 
    45f0:	48 8d 15 89 89 00 00 	lea    0x8989(%rip),%rdx        # cf80 <crc32_tab>
    45f7:	8b 45 f0             	mov    -0x10(%rbp),%eax
    45fa:	89 04 11             	mov    %eax,(%rcx,%rdx,1)
    45fd:	83 45 f4 01          	addl   $0x1,-0xc(%rbp)
    4601:	81 7d f4 ff 00 00 00 	cmpl   $0xff,-0xc(%rbp)
    4608:	7e a6                	jle    45b0 <crc32_gentab+0x18>
    460a:	90                   	nop
    460b:	90                   	nop
    460c:	5d                   	pop    %rbp
    460d:	c3                   	retq   

000000000000460e <crc32_byte>:
    460e:	f3 0f 1e fa          	endbr64 
    4612:	55                   	push   %rbp
    4613:	48 89 e5             	mov    %rsp,%rbp
    4616:	89 f8                	mov    %edi,%eax
    4618:	88 45 fc             	mov    %al,-0x4(%rbp)
    461b:	8b 05 ff 79 00 00    	mov    0x79ff(%rip),%eax        # c020 <crc32_context>
    4621:	c1 e8 08             	shr    $0x8,%eax
    4624:	89 c1                	mov    %eax,%ecx
    4626:	0f b6 55 fc          	movzbl -0x4(%rbp),%edx
    462a:	8b 05 f0 79 00 00    	mov    0x79f0(%rip),%eax        # c020 <crc32_context>
    4630:	31 d0                	xor    %edx,%eax
    4632:	0f b6 c0             	movzbl %al,%eax
    4635:	89 c0                	mov    %eax,%eax
    4637:	48 8d 14 85 00 00 00 	lea    0x0(,%rax,4),%rdx
    463e:	00 
    463f:	48 8d 05 3a 89 00 00 	lea    0x893a(%rip),%rax        # cf80 <crc32_tab>
    4646:	8b 04 02             	mov    (%rdx,%rax,1),%eax
    4649:	31 c8                	xor    %ecx,%eax
    464b:	89 05 cf 79 00 00    	mov    %eax,0x79cf(%rip)        # c020 <crc32_context>
    4651:	90                   	nop
    4652:	5d                   	pop    %rbp
    4653:	c3                   	retq   

0000000000004654 <crc32_8bytes>:
    4654:	f3 0f 1e fa          	endbr64 
    4658:	55                   	push   %rbp
    4659:	48 89 e5             	mov    %rsp,%rbp
    465c:	48 83 ec 08          	sub    $0x8,%rsp
    4660:	48 89 7d f8          	mov    %rdi,-0x8(%rbp)
    4664:	48 8b 45 f8          	mov    -0x8(%rbp),%rax
    4668:	0f b6 c0             	movzbl %al,%eax
    466b:	89 c7                	mov    %eax,%edi
    466d:	e8 9c ff ff ff       	callq  460e <crc32_byte>
    4672:	48 8b 45 f8          	mov    -0x8(%rbp),%rax
    4676:	48 c1 e8 08          	shr    $0x8,%rax
    467a:	0f b6 c0             	movzbl %al,%eax
    467d:	89 c7                	mov    %eax,%edi
    467f:	e8 8a ff ff ff       	callq  460e <crc32_byte>
    4684:	48 8b 45 f8          	mov    -0x8(%rbp),%rax
    4688:	48 c1 e8 10          	shr    $0x10,%rax
    468c:	0f b6 c0             	movzbl %al,%eax
    468f:	89 c7                	mov    %eax,%edi
    4691:	e8 78 ff ff ff       	callq  460e <crc32_byte>
    4696:	48 8b 45 f8          	mov    -0x8(%rbp),%rax
    469a:	48 c1 e8 18          	shr    $0x18,%rax
    469e:	0f b6 c0             	movzbl %al,%eax
    46a1:	89 c7                	mov    %eax,%edi
    46a3:	e8 66 ff ff ff       	callq  460e <crc32_byte>
    46a8:	48 8b 45 f8          	mov    -0x8(%rbp),%rax
    46ac:	48 c1 e8 20          	shr    $0x20,%rax
    46b0:	0f b6 c0             	movzbl %al,%eax
    46b3:	89 c7                	mov    %eax,%edi
    46b5:	e8 54 ff ff ff       	callq  460e <crc32_byte>
    46ba:	48 8b 45 f8          	mov    -0x8(%rbp),%rax
    46be:	48 c1 e8 28          	shr    $0x28,%rax
    46c2:	0f b6 c0             	movzbl %al,%eax
    46c5:	89 c7                	mov    %eax,%edi
    46c7:	e8 42 ff ff ff       	callq  460e <crc32_byte>
    46cc:	48 8b 45 f8          	mov    -0x8(%rbp),%rax
    46d0:	48 c1 e8 30          	shr    $0x30,%rax
    46d4:	0f b6 c0             	movzbl %al,%eax
    46d7:	89 c7                	mov    %eax,%edi
    46d9:	e8 30 ff ff ff       	callq  460e <crc32_byte>
    46de:	48 8b 45 f8          	mov    -0x8(%rbp),%rax
    46e2:	48 c1 e8 38          	shr    $0x38,%rax
    46e6:	0f b6 c0             	movzbl %al,%eax
    46e9:	89 c7                	mov    %eax,%edi
    46eb:	e8 1e ff ff ff       	callq  460e <crc32_byte>
    46f0:	90                   	nop
    46f1:	c9                   	leaveq 
    46f2:	c3                   	retq   

00000000000046f3 <transparent_crc>:
    46f3:	f3 0f 1e fa          	endbr64 
    46f7:	55                   	push   %rbp
    46f8:	48 89 e5             	mov    %rsp,%rbp
    46fb:	48 83 ec 20          	sub    $0x20,%rsp
    46ff:	48 89 7d f8          	mov    %rdi,-0x8(%rbp)
    4703:	48 89 75 f0          	mov    %rsi,-0x10(%rbp)
    4707:	89 55 ec             	mov    %edx,-0x14(%rbp)
    470a:	48 8b 45 f8          	mov    -0x8(%rbp),%rax
    470e:	48 89 c7             	mov    %rax,%rdi
    4711:	e8 3e ff ff ff       	callq  4654 <crc32_8bytes>
    4716:	83 7d ec 00          	cmpl   $0x0,-0x14(%rbp)
    471a:	74 22                	je     473e <transparent_crc+0x4b>
    471c:	8b 05 fe 78 00 00    	mov    0x78fe(%rip),%eax        # c020 <crc32_context>
    4722:	f7 d0                	not    %eax
    4724:	89 c2                	mov    %eax,%edx
    4726:	48 8b 45 f0          	mov    -0x10(%rbp),%rax
    472a:	48 89 c6             	mov    %rax,%rsi
    472d:	48 8d 3d fc 48 00 00 	lea    0x48fc(%rip),%rdi        # 9030 <_IO_stdin_used+0x30>
    4734:	b8 00 00 00 00       	mov    $0x0,%eax
    4739:	e8 42 e9 ff ff       	callq  3080 <printf@plt>
    473e:	90                   	nop
    473f:	c9                   	leaveq 
    4740:	c3                   	retq   

0000000000004741 <transparent_crc_bytes>:
    4741:	f3 0f 1e fa          	endbr64 
    4745:	55                   	push   %rbp
    4746:	48 89 e5             	mov    %rsp,%rbp
    4749:	48 83 ec 30          	sub    $0x30,%rsp
    474d:	48 89 7d e8          	mov    %rdi,-0x18(%rbp)
    4751:	89 75 e4             	mov    %esi,-0x1c(%rbp)
    4754:	48 89 55 d8          	mov    %rdx,-0x28(%rbp)
    4758:	89 4d e0             	mov    %ecx,-0x20(%rbp)
    475b:	c7 45 fc 00 00 00 00 	movl   $0x0,-0x4(%rbp)
    4762:	eb 1e                	jmp    4782 <transparent_crc_bytes+0x41>
    4764:	8b 45 fc             	mov    -0x4(%rbp),%eax
    4767:	48 63 d0             	movslq %eax,%rdx
    476a:	48 8b 45 e8          	mov    -0x18(%rbp),%rax
    476e:	48 01 d0             	add    %rdx,%rax
    4771:	0f b6 00             	movzbl (%rax),%eax
    4774:	0f b6 c0             	movzbl %al,%eax
    4777:	89 c7                	mov    %eax,%edi
    4779:	e8 90 fe ff ff       	callq  460e <crc32_byte>
    477e:	83 45 fc 01          	addl   $0x1,-0x4(%rbp)
    4782:	8b 45 fc             	mov    -0x4(%rbp),%eax
    4785:	3b 45 e4             	cmp    -0x1c(%rbp),%eax
    4788:	7c da                	jl     4764 <transparent_crc_bytes+0x23>
    478a:	83 7d e0 00          	cmpl   $0x0,-0x20(%rbp)
    478e:	74 22                	je     47b2 <transparent_crc_bytes+0x71>
    4790:	8b 05 8a 78 00 00    	mov    0x788a(%rip),%eax        # c020 <crc32_context>
    4796:	f7 d0                	not    %eax
    4798:	89 c2                	mov    %eax,%edx
    479a:	48 8b 45 d8          	mov    -0x28(%rbp),%rax
    479e:	48 89 c6             	mov    %rax,%rsi
    47a1:	48 8d 3d 88 48 00 00 	lea    0x4888(%rip),%rdi        # 9030 <_IO_stdin_used+0x30>
    47a8:	b8 00 00 00 00       	mov    $0x0,%eax
    47ad:	e8 ce e8 ff ff       	callq  3080 <printf@plt>
    47b2:	90                   	nop
    47b3:	c9                   	leaveq 
    47b4:	c3                   	retq   

00000000000047b5 <func_1>:
    47b5:	f3 0f 1e fa          	endbr64 
    47b9:	55                   	push   %rbp
    47ba:	48 89 e5             	mov    %rsp,%rbp
    47bd:	41 55                	push   %r13
    47bf:	41 54                	push   %r12
    47c1:	53                   	push   %rbx
    47c2:	48 83 ec 58          	sub    $0x58,%rsp
    47c6:	64 48 8b 04 25 28 00 	mov    %fs:0x28,%rax
    47cd:	00 00 
    47cf:	48 89 45 d8          	mov    %rax,-0x28(%rbp)
    47d3:	31 c0                	xor    %eax,%eax
    47d5:	48 c7 45 a8 ff ff ff 	movq   $0xffffffffffffffff,-0x58(%rbp)
    47dc:	ff 
    47dd:	48 c7 45 b0 00 00 00 	movq   $0x0,-0x50(%rbp)
    47e4:	00 
    47e5:	48 8d 05 38 78 00 00 	lea    0x7838(%rip),%rax        # c024 <g_17>
    47ec:	48 89 45 b8          	mov    %rax,-0x48(%rbp)
    47f0:	48 8d 05 fd 78 00 00 	lea    0x78fd(%rip),%rax        # c0f4 <g_790>
    47f7:	48 89 45 98          	mov    %rax,-0x68(%rbp)
    47fb:	48 c7 45 a0 00 00 00 	movq   $0x0,-0x60(%rbp)
    4802:	00 
    4803:	48 8d 45 a0          	lea    -0x60(%rbp),%rax
    4807:	48 89 45 c0          	mov    %rax,-0x40(%rbp)
    480b:	48 8d 05 7e 80 00 00 	lea    0x807e(%rip),%rax        # c890 <g_310>
    4812:	48 89 45 c8          	mov    %rax,-0x38(%rbp)
    4816:	48 8d 05 83 8b 00 00 	lea    0x8b83(%rip),%rax        # d3a0 <g_295>
    481d:	48 89 45 d0          	mov    %rax,-0x30(%rbp)
    4821:	8b 05 a1 78 00 00    	mov    0x78a1(%rip),%eax        # c0c8 <g_356>
    4827:	41 89 c5             	mov    %eax,%r13d
    482a:	48 8b 5d 98          	mov    -0x68(%rbp),%rbx
    482e:	0f b7 05 f1 77 00 00 	movzwl 0x77f1(%rip),%eax        # c026 <g_19>
    4835:	0f be d0             	movsbl %al,%edx
    4838:	48 8b 05 49 8b 00 00 	mov    0x8b49(%rip),%rax        # d388 <g_20>
    483f:	48 8b 4d b8          	mov    -0x48(%rbp),%rcx
    4843:	0f b7 09             	movzwl (%rcx),%ecx
    4846:	89 ce                	mov    %ecx,%esi
    4848:	48 8b 4d a8          	mov    -0x58(%rbp),%rcx
    484c:	31 f1                	xor    %esi,%ecx
    484e:	f7 d1                	not    %ecx
    4850:	89 ce                	mov    %ecx,%esi
    4852:	48 8b 4d b8          	mov    -0x48(%rbp),%rcx
    4856:	66 89 31             	mov    %si,(%rcx)
    4859:	48 8b 4d b8          	mov    -0x48(%rbp),%rcx
    485d:	0f b7 09             	movzwl (%rcx),%ecx
    4860:	0f bf c9             	movswl %cx,%ecx
    4863:	48 8b 75 a8          	mov    -0x58(%rbp),%rsi
    4867:	09 ce                	or     %ecx,%esi
    4869:	48 8b 0d f0 7f 00 00 	mov    0x7ff0(%rip),%rcx        # c860 <g_18>
    4870:	48 39 4d b0          	cmp    %rcx,-0x50(%rbp)
    4874:	0f 94 c1             	sete   %cl
    4877:	0f b6 c9             	movzbl %cl,%ecx
    487a:	21 f1                	and    %esi,%ecx
    487c:	48 89 c6             	mov    %rax,%rsi
    487f:	89 cf                	mov    %ecx,%edi
    4881:	e8 ad 0b 00 00       	callq  5433 <func_9>
    4886:	48 89 c7             	mov    %rax,%rdi
    4889:	e8 a7 01 00 00       	callq  4a35 <func_7>
    488e:	4c 8b 25 fb 7f 00 00 	mov    0x7ffb(%rip),%r12        # c890 <g_310>
    4895:	44 89 e9             	mov    %r13d,%ecx
    4898:	48 8d 15 55 78 00 00 	lea    0x7855(%rip),%rdx        # c0f4 <g_790>
    489f:	48 89 de             	mov    %rbx,%rsi
    48a2:	48 89 c7             	mov    %rax,%rdi
    48a5:	e8 15 01 00 00       	callq  49bf <func_2>
    48aa:	49 89 04 24          	mov    %rax,(%r12)
    48ae:	48 8b 45 98          	mov    -0x68(%rbp),%rax
    48b2:	8b 00                	mov    (%rax),%eax
    48b4:	89 c3                	mov    %eax,%ebx
    48b6:	48 8b 05 ab 7f 00 00 	mov    0x7fab(%rip),%rax        # c868 <g_22>
    48bd:	48 8b 00             	mov    (%rax),%rax
    48c0:	0f b7 10             	movzwl (%rax),%edx
    48c3:	48 8b 05 f6 7f 00 00 	mov    0x7ff6(%rip),%rax        # c8c0 <g_652>
    48ca:	48 8b 00             	mov    (%rax),%rax
    48cd:	48 8d 0d dc 7f 00 00 	lea    0x7fdc(%rip),%rcx        # c8b0 <g_654>
    48d4:	48 39 c8             	cmp    %rcx,%rax
    48d7:	0f 95 c0             	setne  %al
    48da:	0f b6 c0             	movzbl %al,%eax
    48dd:	31 d0                	xor    %edx,%eax
    48df:	0f bf d0             	movswl %ax,%edx
    48e2:	48 8b 4d a0          	mov    -0x60(%rbp),%rcx
    48e6:	48 8b 45 c0          	mov    -0x40(%rbp),%rax
    48ea:	48 89 08             	mov    %rcx,(%rax)
    48ed:	48 8b 45 c0          	mov    -0x40(%rbp),%rax
    48f1:	48 8b 08             	mov    (%rax),%rcx
    48f4:	48 8b 45 c8          	mov    -0x38(%rbp),%rax
    48f8:	48 89 08             	mov    %rcx,(%rax)
    48fb:	48 8b 45 c8          	mov    -0x38(%rbp),%rax
    48ff:	48 8b 08             	mov    (%rax),%rcx
    4902:	48 8d 45 98          	lea    -0x68(%rbp),%rax
    4906:	48 39 c1             	cmp    %rax,%rcx
    4909:	0f 95 c0             	setne  %al
    490c:	0f b6 c0             	movzbl %al,%eax
    490f:	89 d6                	mov    %edx,%esi
    4911:	89 c7                	mov    %eax,%edi
    4913:	e8 fe ea ff ff       	callq  3416 <safe_mod_func_int16_t_s_s>
    4918:	8b 05 aa 77 00 00    	mov    0x77aa(%rip),%eax        # c0c8 <g_356>
    491e:	0f be d0             	movsbl %al,%edx
    4921:	48 8b 45 98          	mov    -0x68(%rbp),%rax
    4925:	8b 00                	mov    (%rax),%eax
    4927:	0f be c0             	movsbl %al,%eax
    492a:	89 d6                	mov    %edx,%esi
    492c:	89 c7                	mov    %eax,%edi
    492e:	e8 a1 e8 ff ff       	callq  31d4 <safe_add_func_int8_t_s_s>
    4933:	84 c0                	test   %al,%al
    4935:	75 0a                	jne    4941 <func_1+0x18c>
    4937:	8b 05 1f 77 00 00    	mov    0x771f(%rip),%eax        # c05c <g_120+0x1c>
    493d:	85 c0                	test   %eax,%eax
    493f:	74 07                	je     4948 <func_1+0x193>
    4941:	b8 01 00 00 00       	mov    $0x1,%eax
    4946:	eb 05                	jmp    494d <func_1+0x198>
    4948:	b8 00 00 00 00       	mov    $0x0,%eax
    494d:	0f be c0             	movsbl %al,%eax
    4950:	89 de                	mov    %ebx,%esi
    4952:	89 c7                	mov    %eax,%edi
    4954:	e8 95 e9 ff ff       	callq  32ee <safe_lshift_func_int8_t_s_u>
    4959:	89 c2                	mov    %eax,%edx
    495b:	48 8b 45 d0          	mov    -0x30(%rbp),%rax
    495f:	88 10                	mov    %dl,(%rax)
    4961:	48 8b 45 d0          	mov    -0x30(%rbp),%rax
    4965:	0f b6 00             	movzbl (%rax),%eax
    4968:	0f b6 c0             	movzbl %al,%eax
    496b:	be 06 00 00 00       	mov    $0x6,%esi
    4970:	89 c7                	mov    %eax,%edi
    4972:	e8 8e f2 ff ff       	callq  3c05 <safe_lshift_func_uint8_t_u_s>
    4977:	0f b6 d0             	movzbl %al,%edx
    497a:	0f b7 05 51 77 00 00 	movzwl 0x7751(%rip),%eax        # c0d2 <g_358+0x2>
    4981:	0f b7 c0             	movzwl %ax,%eax
    4984:	89 d6                	mov    %edx,%esi
    4986:	89 c7                	mov    %eax,%edi
    4988:	e8 79 f4 ff ff       	callq  3e06 <safe_lshift_func_uint16_t_u_u>
    498d:	89 c2                	mov    %eax,%edx
    498f:	48 8b 45 98          	mov    -0x68(%rbp),%rax
    4993:	0f b7 d2             	movzwl %dx,%edx
    4996:	89 10                	mov    %edx,(%rax)
    4998:	48 8b 45 98          	mov    -0x68(%rbp),%rax
    499c:	8b 00                	mov    (%rax),%eax
    499e:	48 98                	cltq   
    49a0:	48 8b 5d d8          	mov    -0x28(%rbp),%rbx
    49a4:	64 48 33 1c 25 28 00 	xor    %fs:0x28,%rbx
    49ab:	00 00 
    49ad:	74 05                	je     49b4 <func_1+0x1ff>
    49af:	e8 bc e6 ff ff       	callq  3070 <__stack_chk_fail@plt>
    49b4:	48 83 c4 58          	add    $0x58,%rsp
    49b8:	5b                   	pop    %rbx
    49b9:	41 5c                	pop    %r12
    49bb:	41 5d                	pop    %r13
    49bd:	5d                   	pop    %rbp
    49be:	c3                   	retq   

00000000000049bf <func_2>:
    49bf:	f3 0f 1e fa          	endbr64 
    49c3:	55                   	push   %rbp
    49c4:	48 89 e5             	mov    %rsp,%rbp
    49c7:	48 83 ec 40          	sub    $0x40,%rsp
    49cb:	48 89 7d d8          	mov    %rdi,-0x28(%rbp)
    49cf:	48 89 75 d0          	mov    %rsi,-0x30(%rbp)
    49d3:	48 89 55 c8          	mov    %rdx,-0x38(%rbp)
    49d7:	89 4d c4             	mov    %ecx,-0x3c(%rbp)
    49da:	64 48 8b 04 25 28 00 	mov    %fs:0x28,%rax
    49e1:	00 00 
    49e3:	48 89 45 f8          	mov    %rax,-0x8(%rbp)
    49e7:	31 c0                	xor    %eax,%eax
    49e9:	48 c7 45 e8 00 00 00 	movq   $0x0,-0x18(%rbp)
    49f0:	00 
    49f1:	48 8d 45 e8          	lea    -0x18(%rbp),%rax
    49f5:	48 89 45 f0          	mov    %rax,-0x10(%rbp)
    49f9:	48 8b 45 d0          	mov    -0x30(%rbp),%rax
    49fd:	8b 10                	mov    (%rax),%edx
    49ff:	48 8d 45 e8          	lea    -0x18(%rbp),%rax
    4a03:	48 39 45 f0          	cmp    %rax,-0x10(%rbp)
    4a07:	0f 95 c0             	setne  %al
    4a0a:	0f b6 c0             	movzbl %al,%eax
    4a0d:	09 c2                	or     %eax,%edx
    4a0f:	48 8b 45 d0          	mov    -0x30(%rbp),%rax
    4a13:	89 10                	mov    %edx,(%rax)
    4a15:	48 8b 05 74 7e 00 00 	mov    0x7e74(%rip),%rax        # c890 <g_310>
    4a1c:	48 8b 00             	mov    (%rax),%rax
    4a1f:	48 8b 4d f8          	mov    -0x8(%rbp),%rcx
    4a23:	64 48 33 0c 25 28 00 	xor    %fs:0x28,%rcx
    4a2a:	00 00 
    4a2c:	74 05                	je     4a33 <func_2+0x74>
    4a2e:	e8 3d e6 ff ff       	callq  3070 <__stack_chk_fail@plt>
    4a33:	c9                   	leaveq 
    4a34:	c3                   	retq   

0000000000004a35 <func_7>:
    4a35:	f3 0f 1e fa          	endbr64 
    4a39:	55                   	push   %rbp
    4a3a:	48 89 e5             	mov    %rsp,%rbp
    4a3d:	41 57                	push   %r15
    4a3f:	41 56                	push   %r14
    4a41:	41 55                	push   %r13
    4a43:	41 54                	push   %r12
    4a45:	53                   	push   %rbx
    4a46:	48 81 ec d8 01 00 00 	sub    $0x1d8,%rsp
    4a4d:	48 89 bd 28 fe ff ff 	mov    %rdi,-0x1d8(%rbp)
    4a54:	64 48 8b 04 25 28 00 	mov    %fs:0x28,%rax
    4a5b:	00 00 
    4a5d:	48 89 45 c8          	mov    %rax,-0x38(%rbp)
    4a61:	31 c0                	xor    %eax,%eax
    4a63:	48 b8 e7 56 49 1b 19 	movabs $0xcc9ca3191b4956e7,%rax
    4a6a:	a3 9c cc 
    4a6d:	48 89 85 68 fe ff ff 	mov    %rax,-0x198(%rbp)
    4a74:	48 8d 05 15 89 00 00 	lea    0x8915(%rip),%rax        # d390 <g_24>
    4a7b:	48 89 85 50 fe ff ff 	mov    %rax,-0x1b0(%rbp)
    4a82:	48 c7 85 70 fe ff ff 	movq   $0x0,-0x190(%rbp)
    4a89:	00 00 00 00 
    4a8d:	c7 85 34 fe ff ff e0 	movl   $0xb36a3ae0,-0x1cc(%rbp)
    4a94:	3a 6a b3 
    4a97:	c7 85 40 fe ff ff f3 	movl   $0xa6d3a2f3,-0x1c0(%rbp)
    4a9e:	a2 d3 a6 
    4aa1:	48 c7 85 78 fe ff ff 	movq   $0x0,-0x188(%rbp)
    4aa8:	00 00 00 00 
    4aac:	c7 85 38 fe ff ff 00 	movl   $0x0,-0x1c8(%rbp)
    4ab3:	00 00 00 
    4ab6:	eb 1e                	jmp    4ad6 <func_7+0xa1>
    4ab8:	8b 85 38 fe ff ff    	mov    -0x1c8(%rbp),%eax
    4abe:	48 98                	cltq   
    4ac0:	48 8d 15 b9 7d 00 00 	lea    0x7db9(%rip),%rdx        # c880 <g_126>
    4ac7:	48 89 94 c5 e0 fe ff 	mov    %rdx,-0x120(%rbp,%rax,8)
    4ace:	ff 
    4acf:	83 85 38 fe ff ff 01 	addl   $0x1,-0x1c8(%rbp)
    4ad6:	83 bd 38 fe ff ff 03 	cmpl   $0x3,-0x1c8(%rbp)
    4add:	7e d9                	jle    4ab8 <func_7+0x83>
    4adf:	48 83 a5 68 fe ff ff 	andq   $0x1,-0x198(%rbp)
    4ae6:	01 
    4ae7:	48 8b 95 68 fe ff ff 	mov    -0x198(%rbp),%rdx
    4aee:	48 8b 85 28 fe ff ff 	mov    -0x1d8(%rbp),%rax
    4af5:	8b 00                	mov    (%rax),%eax
    4af7:	89 c1                	mov    %eax,%ecx
    4af9:	89 d0                	mov    %edx,%eax
    4afb:	09 c8                	or     %ecx,%eax
    4afd:	89 c2                	mov    %eax,%edx
    4aff:	48 8b 85 28 fe ff ff 	mov    -0x1d8(%rbp),%rax
    4b06:	89 10                	mov    %edx,(%rax)
    4b08:	48 c7 85 68 fe ff ff 	movq   $0x0,-0x198(%rbp)
    4b0f:	00 00 00 00 
    4b13:	e9 dc 08 00 00       	jmpq   53f4 <func_7+0x9bf>
    4b18:	48 b8 97 30 75 e1 f5 	movabs $0x681c37f5e1753097,%rax
    4b1f:	37 1c 68 
    4b22:	48 89 85 80 fe ff ff 	mov    %rax,-0x180(%rbp)
    4b29:	66 c7 85 32 fe ff ff 	movw   $0xfffd,-0x1ce(%rbp)
    4b30:	fd ff 
    4b32:	48 c7 85 88 fe ff ff 	movq   $0x0,-0x178(%rbp)
    4b39:	00 00 00 00 
    4b3d:	48 8d 05 1c 75 00 00 	lea    0x751c(%rip),%rax        # c060 <g_124>
    4b44:	48 89 85 90 fe ff ff 	mov    %rax,-0x170(%rbp)
    4b4b:	48 8d 85 50 fe ff ff 	lea    -0x1b0(%rbp),%rax
    4b52:	48 89 85 98 fe ff ff 	mov    %rax,-0x168(%rbp)
    4b59:	48 8d 05 7a 75 00 00 	lea    0x757a(%rip),%rax        # c0da <g_358+0xa>
    4b60:	48 89 85 a0 fe ff ff 	mov    %rax,-0x160(%rbp)
    4b67:	c7 85 20 ff ff ff 01 	movl   $0x1,-0xe0(%rbp)
    4b6e:	00 00 00 
    4b71:	c7 85 24 ff ff ff 01 	movl   $0x1,-0xdc(%rbp)
    4b78:	00 00 00 
    4b7b:	c7 85 28 ff ff ff 01 	movl   $0x1,-0xd8(%rbp)
    4b82:	00 00 00 
    4b85:	c7 85 2c ff ff ff 01 	movl   $0x1,-0xd4(%rbp)
    4b8c:	00 00 00 
    4b8f:	c7 85 30 ff ff ff 01 	movl   $0x1,-0xd0(%rbp)
    4b96:	00 00 00 
    4b99:	c7 85 34 ff ff ff 01 	movl   $0x1,-0xcc(%rbp)
    4ba0:	00 00 00 
    4ba3:	c7 85 38 ff ff ff 01 	movl   $0x1,-0xc8(%rbp)
    4baa:	00 00 00 
    4bad:	c7 85 3c ff ff ff 01 	movl   $0x1,-0xc4(%rbp)
    4bb4:	00 00 00 
    4bb7:	c7 85 40 ff ff ff 01 	movl   $0x1,-0xc0(%rbp)
    4bbe:	00 00 00 
    4bc1:	c7 85 44 ff ff ff 01 	movl   $0x1,-0xbc(%rbp)
    4bc8:	00 00 00 
    4bcb:	48 c7 85 a8 fe ff ff 	movq   $0xfffffffffffffff7,-0x158(%rbp)
    4bd2:	f7 ff ff ff 
    4bd6:	48 b8 a7 70 4f d6 1c 	movabs $0x62081c1cd64f70a7,%rax
    4bdd:	1c 08 62 
    4be0:	48 89 85 b0 fe ff ff 	mov    %rax,-0x150(%rbp)
    4be7:	4c 8b a5 e0 fe ff ff 	mov    -0x120(%rbp),%r12
    4bee:	48 8b 85 68 fe ff ff 	mov    -0x198(%rbp),%rax
    4bf5:	89 85 24 fe ff ff    	mov    %eax,-0x1dc(%rbp)
    4bfb:	4c 8b 3d 7e 7c 00 00 	mov    0x7c7e(%rip),%r15        # c880 <g_126>
    4c02:	0f b7 05 1b 74 00 00 	movzwl 0x741b(%rip),%eax        # c024 <g_17>
    4c09:	44 0f bf f0          	movswl %ax,%r14d
    4c0d:	0f b7 05 10 74 00 00 	movzwl 0x7410(%rip),%eax        # c024 <g_17>
    4c14:	44 0f b7 e8          	movzwl %ax,%r13d
    4c18:	48 8b 85 80 fe ff ff 	mov    -0x180(%rbp),%rax
    4c1f:	89 85 20 fe ff ff    	mov    %eax,-0x1e0(%rbp)
    4c25:	48 8b 85 80 fe ff ff 	mov    -0x180(%rbp),%rax
    4c2c:	0f b6 c0             	movzbl %al,%eax
    4c2f:	89 85 1c fe ff ff    	mov    %eax,-0x1e4(%rbp)
    4c35:	8b 05 55 87 00 00    	mov    0x8755(%rip),%eax        # d390 <g_24>
    4c3b:	48 98                	cltq   
    4c3d:	48 89 85 10 fe ff ff 	mov    %rax,-0x1f0(%rbp)
    4c44:	0f b7 85 32 fe ff ff 	movzwl -0x1ce(%rbp),%eax
    4c4b:	0f b6 c0             	movzbl %al,%eax
    4c4e:	89 85 18 fe ff ff    	mov    %eax,-0x1e8(%rbp)
    4c54:	0f b7 05 c9 73 00 00 	movzwl 0x73c9(%rip),%eax        # c024 <g_17>
    4c5b:	98                   	cwtl   
    4c5c:	89 85 0c fe ff ff    	mov    %eax,-0x1f4(%rbp)
    4c62:	0f b7 05 bb 73 00 00 	movzwl 0x73bb(%rip),%eax        # c024 <g_17>
    4c69:	0f b7 c0             	movzwl %ax,%eax
    4c6c:	89 85 08 fe ff ff    	mov    %eax,-0x1f8(%rbp)
    4c72:	48 83 bd 80 fe ff ff 	cmpq   $0x1,-0x180(%rbp)
    4c79:	01 
    4c7a:	0f 96 c0             	setbe  %al
    4c7d:	0f b6 d0             	movzbl %al,%edx
    4c80:	48 8b 85 28 fe ff ff 	mov    -0x1d8(%rbp),%rax
    4c87:	8b 08                	mov    (%rax),%ecx
    4c89:	8b 05 01 87 00 00    	mov    0x8701(%rip),%eax        # d390 <g_24>
    4c8f:	48 8b 1d d2 7b 00 00 	mov    0x7bd2(%rip),%rbx        # c868 <g_22>
    4c96:	89 ce                	mov    %ecx,%esi
    4c98:	89 c7                	mov    %eax,%edi
    4c9a:	e8 05 3b 00 00       	callq  87a4 <func_56>
    4c9f:	48 89 03             	mov    %rax,(%rbx)
    4ca2:	48 8b 03             	mov    (%rbx),%rax
    4ca5:	48 39 85 70 fe ff ff 	cmp    %rax,-0x190(%rbp)
    4cac:	74 14                	je     4cc2 <func_7+0x28d>
    4cae:	48 8b 85 50 fe ff ff 	mov    -0x1b0(%rbp),%rax
    4cb5:	8b 00                	mov    (%rax),%eax
    4cb7:	85 c0                	test   %eax,%eax
    4cb9:	74 07                	je     4cc2 <func_7+0x28d>
    4cbb:	b8 01 00 00 00       	mov    $0x1,%eax
    4cc0:	eb 05                	jmp    4cc7 <func_7+0x292>
    4cc2:	b8 00 00 00 00       	mov    $0x0,%eax
    4cc7:	0f b6 c0             	movzbl %al,%eax
    4cca:	48 8b 95 50 fe ff ff 	mov    -0x1b0(%rbp),%rdx
    4cd1:	48 85 d2             	test   %rdx,%rdx
    4cd4:	75 07                	jne    4cdd <func_7+0x2a8>
    4cd6:	ba 29 00 00 00       	mov    $0x29,%edx
    4cdb:	eb 05                	jmp    4ce2 <func_7+0x2ad>
    4cdd:	ba 28 00 00 00       	mov    $0x28,%edx
    4ce2:	89 c6                	mov    %eax,%esi
    4ce4:	89 d7                	mov    %edx,%edi
    4ce6:	e8 a8 ee ff ff       	callq  3b93 <safe_mul_func_uint8_t_u_u>
    4ceb:	48 8b 85 50 fe ff ff 	mov    -0x1b0(%rbp),%rax
    4cf2:	8b 00                	mov    (%rax),%eax
    4cf4:	4c 8b 85 10 fe ff ff 	mov    -0x1f0(%rbp),%r8
    4cfb:	8b 8d 18 fe ff ff    	mov    -0x1e8(%rbp),%ecx
    4d01:	8b 95 0c fe ff ff    	mov    -0x1f4(%rbp),%edx
    4d07:	8b b5 08 fe ff ff    	mov    -0x1f8(%rbp),%esi
    4d0d:	89 c7                	mov    %eax,%edi
    4d0f:	e8 b8 39 00 00       	callq  86cc <func_46>
    4d14:	8b 95 20 fe ff ff    	mov    -0x1e0(%rbp),%edx
    4d1a:	8b b5 1c fe ff ff    	mov    -0x1e4(%rbp),%esi
    4d20:	48 89 c7             	mov    %rax,%rdi
    4d23:	e8 db 35 00 00       	callq  8303 <func_42>
    4d28:	48 8b 95 90 fe ff ff 	mov    -0x170(%rbp),%rdx
    4d2f:	88 02                	mov    %al,(%rdx)
    4d31:	48 8b 85 90 fe ff ff 	mov    -0x170(%rbp),%rax
    4d38:	0f b6 00             	movzbl (%rax),%eax
    4d3b:	0f be d0             	movsbl %al,%edx
    4d3e:	0f b7 05 e1 72 00 00 	movzwl 0x72e1(%rip),%eax        # c026 <g_19>
    4d45:	98                   	cwtl   
    4d46:	48 8d 35 43 86 00 00 	lea    0x8643(%rip),%rsi        # d390 <g_24>
    4d4d:	89 c7                	mov    %eax,%edi
    4d4f:	e8 df 06 00 00       	callq  5433 <func_9>
    4d54:	48 8b 95 98 fe ff ff 	mov    -0x168(%rbp),%rdx
    4d5b:	48 89 02             	mov    %rax,(%rdx)
    4d5e:	48 8b 85 98 fe ff ff 	mov    -0x168(%rbp),%rax
    4d65:	48 8b 00             	mov    (%rax),%rax
    4d68:	48 39 85 28 fe ff ff 	cmp    %rax,-0x1d8(%rbp)
    4d6f:	0f 94 c0             	sete   %al
    4d72:	0f b6 c0             	movzbl %al,%eax
    4d75:	4c 8d 05 fc 7a 00 00 	lea    0x7afc(%rip),%r8        # c878 <g_127>
    4d7c:	4c 89 f9             	mov    %r15,%rcx
    4d7f:	44 89 f2             	mov    %r14d,%edx
    4d82:	44 89 ee             	mov    %r13d,%esi
    4d85:	89 c7                	mov    %eax,%edi
    4d87:	e8 fa 31 00 00       	callq  7f86 <func_36>
    4d8c:	48 89 c7             	mov    %rax,%rdi
    4d8f:	48 8b 85 a0 fe ff ff 	mov    -0x160(%rbp),%rax
    4d96:	48 89 c1             	mov    %rax,%rcx
    4d99:	4c 89 e2             	mov    %r12,%rdx
    4d9c:	8b b5 24 fe ff ff    	mov    -0x1dc(%rbp),%esi
    4da2:	e8 1e 07 00 00       	callq  54c5 <func_31>
    4da7:	48 89 c2             	mov    %rax,%rdx
    4daa:	48 8b 85 68 fe ff ff 	mov    -0x198(%rbp),%rax
    4db1:	48 89 c6             	mov    %rax,%rsi
    4db4:	48 89 d7             	mov    %rdx,%rdi
    4db7:	e8 b2 06 00 00       	callq  546e <func_28>
    4dbc:	48 89 05 25 86 00 00 	mov    %rax,0x8625(%rip)        # d3e8 <g_732+0x28>
    4dc3:	c6 05 22 73 00 00 00 	movb   $0x0,0x7322(%rip)        # c0ec <g_446>
    4dca:	e9 17 04 00 00       	jmpq   51e6 <func_7+0x7b1>
    4dcf:	c7 85 44 fe ff ff 06 	movl   $0xc8b5d006,-0x1bc(%rbp)
    4dd6:	d0 b5 c8 
    4dd9:	48 c7 85 58 fe ff ff 	movq   $0x0,-0x1a8(%rbp)
    4de0:	00 00 00 00 
    4de4:	48 8d 85 58 fe ff ff 	lea    -0x1a8(%rbp),%rax
    4deb:	48 89 85 50 ff ff ff 	mov    %rax,-0xb0(%rbp)
    4df2:	48 8d 85 58 fe ff ff 	lea    -0x1a8(%rbp),%rax
    4df9:	48 89 85 58 ff ff ff 	mov    %rax,-0xa8(%rbp)
    4e00:	48 c7 85 60 ff ff ff 	movq   $0x0,-0xa0(%rbp)
    4e07:	00 00 00 00 
    4e0b:	48 8d 85 58 fe ff ff 	lea    -0x1a8(%rbp),%rax
    4e12:	48 89 85 68 ff ff ff 	mov    %rax,-0x98(%rbp)
    4e19:	48 8d 85 58 fe ff ff 	lea    -0x1a8(%rbp),%rax
    4e20:	48 89 85 70 ff ff ff 	mov    %rax,-0x90(%rbp)
    4e27:	48 c7 85 78 ff ff ff 	movq   $0x0,-0x88(%rbp)
    4e2e:	00 00 00 00 
    4e32:	48 8b 85 98 fe ff ff 	mov    -0x168(%rbp),%rax
    4e39:	48 8b 10             	mov    (%rax),%rdx
    4e3c:	48 8b 05 45 85 00 00 	mov    0x8545(%rip),%rax        # d388 <g_20>
    4e43:	8b 12                	mov    (%rdx),%edx
    4e45:	89 10                	mov    %edx,(%rax)
    4e47:	48 8b 05 fa 80 00 00 	mov    0x80fa(%rip),%rax        # cf48 <g_723>
    4e4e:	48 8b 00             	mov    (%rax),%rax
    4e51:	48 85 c0             	test   %rax,%rax
    4e54:	0f 84 5f 03 00 00    	je     51b9 <func_7+0x784>
    4e5a:	48 8d 05 2f 85 00 00 	lea    0x852f(%rip),%rax        # d390 <g_24>
    4e61:	48 89 85 b8 fe ff ff 	mov    %rax,-0x148(%rbp)
    4e68:	c7 85 48 fe ff ff f7 	movl   $0xfffffff7,-0x1b8(%rbp)
    4e6f:	ff ff ff 
    4e72:	c7 85 4c fe ff ff 83 	movl   $0x89081483,-0x1b4(%rbp)
    4e79:	14 08 89 
    4e7c:	48 8d 05 ed 71 00 00 	lea    0x71ed(%rip),%rax        # c070 <g_173>
    4e83:	48 89 85 00 ff ff ff 	mov    %rax,-0x100(%rbp)
    4e8a:	48 8d 05 df 71 00 00 	lea    0x71df(%rip),%rax        # c070 <g_173>
    4e91:	48 89 85 08 ff ff ff 	mov    %rax,-0xf8(%rbp)
    4e98:	48 8d 05 d1 71 00 00 	lea    0x71d1(%rip),%rax        # c070 <g_173>
    4e9f:	48 89 85 10 ff ff ff 	mov    %rax,-0xf0(%rbp)
    4ea6:	48 8d 05 c3 71 00 00 	lea    0x71c3(%rip),%rax        # c070 <g_173>
    4ead:	48 89 85 18 ff ff ff 	mov    %rax,-0xe8(%rbp)
    4eb4:	c7 85 3c fe ff ff 00 	movl   $0x0,-0x1c4(%rbp)
    4ebb:	00 00 00 
    4ebe:	eb 1b                	jmp    4edb <func_7+0x4a6>
    4ec0:	8b 85 3c fe ff ff    	mov    -0x1c4(%rbp),%eax
    4ec6:	48 98                	cltq   
    4ec8:	48 8d 95 34 fe ff ff 	lea    -0x1cc(%rbp),%rdx
    4ecf:	48 89 54 c5 80       	mov    %rdx,-0x80(%rbp,%rax,8)
    4ed4:	83 85 3c fe ff ff 01 	addl   $0x1,-0x1c4(%rbp)
    4edb:	83 bd 3c fe ff ff 08 	cmpl   $0x8,-0x1c4(%rbp)
    4ee2:	7e dc                	jle    4ec0 <func_7+0x48b>
    4ee4:	83 85 44 fe ff ff 01 	addl   $0x1,-0x1bc(%rbp)
    4eeb:	48 c7 05 72 71 00 00 	movq   $0x0,0x7172(%rip)        # c068 <g_146>
    4ef2:	00 00 00 00 
    4ef6:	e9 ab 02 00 00       	jmpq   51a6 <func_7+0x771>
    4efb:	48 8d 05 9e 84 00 00 	lea    0x849e(%rip),%rax        # d3a0 <g_295>
    4f02:	48 89 85 c0 fe ff ff 	mov    %rax,-0x140(%rbp)
    4f09:	48 c7 85 60 fe ff ff 	movq   $0x0,-0x1a0(%rbp)
    4f10:	00 00 00 00 
    4f14:	48 8d 85 60 fe ff ff 	lea    -0x1a0(%rbp),%rax
    4f1b:	48 89 85 c8 fe ff ff 	mov    %rax,-0x138(%rbp)
    4f22:	48 8d 85 32 fe ff ff 	lea    -0x1ce(%rbp),%rax
    4f29:	48 89 85 d0 fe ff ff 	mov    %rax,-0x130(%rbp)
    4f30:	48 8d 05 b7 71 00 00 	lea    0x71b7(%rip),%rax        # c0ee <g_604>
    4f37:	48 89 85 d8 fe ff ff 	mov    %rax,-0x128(%rbp)
    4f3e:	48 8b 05 23 71 00 00 	mov    0x7123(%rip),%rax        # c068 <g_146>
    4f45:	48 8d 14 85 00 00 00 	lea    0x0(,%rax,4),%rdx
    4f4c:	00 
    4f4d:	48 8d 05 4c 71 00 00 	lea    0x714c(%rip),%rax        # c0a0 <g_326>
    4f54:	44 8b 34 02          	mov    (%rdx,%rax,1),%r14d
    4f58:	48 8b 05 09 71 00 00 	mov    0x7109(%rip),%rax        # c068 <g_146>
    4f5f:	48 8d 14 85 00 00 00 	lea    0x0(,%rax,4),%rdx
    4f66:	00 
    4f67:	48 8d 05 32 71 00 00 	lea    0x7132(%rip),%rax        # c0a0 <g_326>
    4f6e:	8b 1c 02             	mov    (%rdx,%rax,1),%ebx
    4f71:	0f b6 05 74 71 00 00 	movzbl 0x7174(%rip),%eax        # c0ec <g_446>
    4f78:	44 0f b6 e0          	movzbl %al,%r12d
    4f7c:	44 8b ad 44 fe ff ff 	mov    -0x1bc(%rbp),%r13d
    4f83:	48 8b 85 98 fe ff ff 	mov    -0x168(%rbp),%rax
    4f8a:	48 8b 00             	mov    (%rax),%rax
    4f8d:	8b 00                	mov    (%rax),%eax
    4f8f:	89 c6                	mov    %eax,%esi
    4f91:	48 8b 05 18 79 00 00 	mov    0x7918(%rip),%rax        # c8b0 <g_654>
    4f98:	48 8b 10             	mov    (%rax),%rdx
    4f9b:	48 8b 05 c6 70 00 00 	mov    0x70c6(%rip),%rax        # c068 <g_146>
    4fa2:	48 8d 0c 85 00 00 00 	lea    0x0(,%rax,4),%rcx
    4fa9:	00 
    4faa:	48 8d 05 ef 70 00 00 	lea    0x70ef(%rip),%rax        # c0a0 <g_326>
    4fb1:	8b 04 01             	mov    (%rcx,%rax,1),%eax
    4fb4:	48 98                	cltq   
    4fb6:	48 39 c2             	cmp    %rax,%rdx
    4fb9:	0f 9f c1             	setg   %cl
    4fbc:	48 8b 95 08 ff ff ff 	mov    -0xf8(%rbp),%rdx
    4fc3:	48 8b 05 d6 78 00 00 	mov    0x78d6(%rip),%rax        # c8a0 <g_537>
    4fca:	48 8b 00             	mov    (%rax),%rax
    4fcd:	48 39 c2             	cmp    %rax,%rdx
    4fd0:	0f 95 c0             	setne  %al
    4fd3:	31 c8                	xor    %ecx,%eax
    4fd5:	0f b6 c0             	movzbl %al,%eax
    4fd8:	89 c7                	mov    %eax,%edi
    4fda:	e8 0f e3 ff ff       	callq  32ee <safe_lshift_func_int8_t_s_u>
    4fdf:	48 0f be c0          	movsbq %al,%rax
    4fe3:	48 39 85 a8 fe ff ff 	cmp    %rax,-0x158(%rbp)
    4fea:	7d 09                	jge    4ff5 <func_7+0x5c0>
    4fec:	83 bd 44 fe ff ff 00 	cmpl   $0x0,-0x1bc(%rbp)
    4ff3:	74 2d                	je     5022 <func_7+0x5ed>
    4ff5:	48 8b 05 a4 78 00 00 	mov    0x78a4(%rip),%rax        # c8a0 <g_537>
    4ffc:	48 8b 00             	mov    (%rax),%rax
    4fff:	48 8b 00             	mov    (%rax),%rax
    5002:	48 85 c0             	test   %rax,%rax
    5005:	74 1b                	je     5022 <func_7+0x5ed>
    5007:	48 8b 05 5a 70 00 00 	mov    0x705a(%rip),%rax        # c068 <g_146>
    500e:	48 8d 14 85 00 00 00 	lea    0x0(,%rax,4),%rdx
    5015:	00 
    5016:	48 8d 05 83 70 00 00 	lea    0x7083(%rip),%rax        # c0a0 <g_326>
    501d:	8b 04 02             	mov    (%rdx,%rax,1),%eax
    5020:	85 c0                	test   %eax,%eax
    5022:	48 8b 85 98 fe ff ff 	mov    -0x168(%rbp),%rax
    5029:	48 8b 00             	mov    (%rax),%rax
    502c:	8b 00                	mov    (%rax),%eax
    502e:	89 c2                	mov    %eax,%edx
    5030:	8b 05 fe 6f 00 00    	mov    0x6ffe(%rip),%eax        # c034 <g_116>
    5036:	21 c2                	and    %eax,%edx
    5038:	48 8b 05 49 83 00 00 	mov    0x8349(%rip),%rax        # d388 <g_20>
    503f:	8b 00                	mov    (%rax),%eax
    5041:	39 c2                	cmp    %eax,%edx
    5043:	0f 95 c2             	setne  %dl
    5046:	48 8b 05 1b 78 00 00 	mov    0x781b(%rip),%rax        # c868 <g_22>
    504d:	48 8b 00             	mov    (%rax),%rax
    5050:	0f b6 d2             	movzbl %dl,%edx
    5053:	66 89 10             	mov    %dx,(%rax)
    5056:	48 8b 85 c0 fe ff ff 	mov    -0x140(%rbp),%rax
    505d:	c6 00 01             	movb   $0x1,(%rax)
    5060:	48 8b 85 c0 fe ff ff 	mov    -0x140(%rbp),%rax
    5067:	0f b6 00             	movzbl (%rax),%eax
    506a:	0f b6 c0             	movzbl %al,%eax
    506d:	44 89 ee             	mov    %r13d,%esi
    5070:	89 c7                	mov    %eax,%edi
    5072:	e8 8e eb ff ff       	callq  3c05 <safe_lshift_func_uint8_t_u_s>
    5077:	84 c0                	test   %al,%al
    5079:	74 10                	je     508b <func_7+0x656>
    507b:	83 bd 44 fe ff ff 00 	cmpl   $0x0,-0x1bc(%rbp)
    5082:	74 07                	je     508b <func_7+0x656>
    5084:	b8 01 00 00 00       	mov    $0x1,%eax
    5089:	eb 05                	jmp    5090 <func_7+0x65b>
    508b:	b8 00 00 00 00       	mov    $0x0,%eax
    5090:	0f b6 c0             	movzbl %al,%eax
    5093:	be 07 00 00 00       	mov    $0x7,%esi
    5098:	89 c7                	mov    %eax,%edi
    509a:	e8 66 eb ff ff       	callq  3c05 <safe_lshift_func_uint8_t_u_s>
    509f:	48 8b 85 b8 fe ff ff 	mov    -0x148(%rbp),%rax
    50a6:	8b 00                	mov    (%rax),%eax
    50a8:	85 c0                	test   %eax,%eax
    50aa:	48 83 bd c8 fe ff ff 	cmpq   $0x0,-0x138(%rbp)
    50b1:	00 
    50b2:	0f 94 c0             	sete   %al
    50b5:	0f b6 d0             	movzbl %al,%edx
    50b8:	48 8b 85 d0 fe ff ff 	mov    -0x130(%rbp),%rax
    50bf:	0f b7 00             	movzwl (%rax),%eax
    50c2:	89 c1                	mov    %eax,%ecx
    50c4:	89 d0                	mov    %edx,%eax
    50c6:	31 c8                	xor    %ecx,%eax
    50c8:	89 c2                	mov    %eax,%edx
    50ca:	48 8b 85 d0 fe ff ff 	mov    -0x130(%rbp),%rax
    50d1:	66 89 10             	mov    %dx,(%rax)
    50d4:	48 8b 85 d0 fe ff ff 	mov    -0x130(%rbp),%rax
    50db:	0f b7 10             	movzwl (%rax),%edx
    50de:	48 8b 85 d8 fe ff ff 	mov    -0x128(%rbp),%rax
    50e5:	66 89 10             	mov    %dx,(%rax)
    50e8:	48 8b 85 d8 fe ff ff 	mov    -0x128(%rbp),%rax
    50ef:	0f b7 00             	movzwl (%rax),%eax
    50f2:	0f b7 d0             	movzwl %ax,%edx
    50f5:	48 8b 05 7c 77 00 00 	mov    0x777c(%rip),%rax        # c878 <g_127>
    50fc:	0f b7 00             	movzwl (%rax),%eax
    50ff:	98                   	cwtl   
    5100:	31 d0                	xor    %edx,%eax
    5102:	44 89 e6             	mov    %r12d,%esi
    5105:	89 c7                	mov    %eax,%edi
    5107:	e8 f1 ed ff ff       	callq  3efd <safe_mod_func_uint32_t_u_u>
    510c:	89 de                	mov    %ebx,%esi
    510e:	89 c7                	mov    %eax,%edi
    5110:	e8 ea e5 ff ff       	callq  36ff <safe_div_func_int32_t_s_s>
    5115:	48 8b 85 b0 fe ff ff 	mov    -0x150(%rbp),%rax
    511c:	0f b7 d8             	movzwl %ax,%ebx
    511f:	8b 05 9f 6f 00 00    	mov    0x6f9f(%rip),%eax        # c0c4 <g_352>
    5125:	44 0f bf e0          	movswl %ax,%r12d
    5129:	48 8b 85 90 fe ff ff 	mov    -0x170(%rbp),%rax
    5130:	c6 00 00             	movb   $0x0,(%rax)
    5133:	be 00 00 00 00       	mov    $0x0,%esi
    5138:	bf 00 00 00 00       	mov    $0x0,%edi
    513d:	e8 92 e0 ff ff       	callq  31d4 <safe_add_func_int8_t_s_s>
    5142:	0f be c0             	movsbl %al,%eax
    5145:	44 89 e6             	mov    %r12d,%esi
    5148:	89 c7                	mov    %eax,%edi
    514a:	e8 a6 e2 ff ff       	callq  33f5 <safe_mul_func_int16_t_s_s>
    514f:	0f b7 c0             	movzwl %ax,%eax
    5152:	89 de                	mov    %ebx,%esi
    5154:	89 c7                	mov    %eax,%edi
    5156:	e8 01 ec ff ff       	callq  3d5c <safe_mod_func_uint16_t_u_u>
    515b:	0f b6 c0             	movzbl %al,%eax
    515e:	89 c6                	mov    %eax,%esi
    5160:	bf b8 00 00 00       	mov    $0xb8,%edi
    5165:	e8 f0 e9 ff ff       	callq  3b5a <safe_add_func_uint8_t_u_u>
    516a:	0f b6 c0             	movzbl %al,%eax
    516d:	41 39 c6             	cmp    %eax,%r14d
    5170:	0f 94 c0             	sete   %al
    5173:	0f b6 d0             	movzbl %al,%edx
    5176:	8b 85 38 ff ff ff    	mov    -0xc8(%rbp),%eax
    517c:	31 d0                	xor    %edx,%eax
    517e:	89 85 38 ff ff ff    	mov    %eax,-0xc8(%rbp)
    5184:	48 8b 85 98 fe ff ff 	mov    -0x168(%rbp),%rax
    518b:	48 8b 00             	mov    (%rax),%rax
    518e:	c7 00 00 00 00 00    	movl   $0x0,(%rax)
    5194:	48 8b 05 cd 6e 00 00 	mov    0x6ecd(%rip),%rax        # c068 <g_146>
    519b:	48 83 c0 01          	add    $0x1,%rax
    519f:	48 89 05 c2 6e 00 00 	mov    %rax,0x6ec2(%rip)        # c068 <g_146>
    51a6:	48 8b 05 bb 6e 00 00 	mov    0x6ebb(%rip),%rax        # c068 <g_146>
    51ad:	48 83 f8 08          	cmp    $0x8,%rax
    51b1:	0f 86 44 fd ff ff    	jbe    4efb <func_7+0x4c6>
    51b7:	eb 0f                	jmp    51c8 <func_7+0x793>
    51b9:	48 8b 05 f0 76 00 00 	mov    0x76f0(%rip),%rax        # c8b0 <g_654>
    51c0:	48 8b 00             	mov    (%rax),%rax
    51c3:	e9 45 02 00 00       	jmpq   540d <func_7+0x9d8>
    51c8:	48 8b 85 58 fe ff ff 	mov    -0x1a8(%rbp),%rax
    51cf:	48 89 85 78 fe ff ff 	mov    %rax,-0x188(%rbp)
    51d6:	0f b6 05 0f 6f 00 00 	movzbl 0x6f0f(%rip),%eax        # c0ec <g_446>
    51dd:	83 c0 01             	add    $0x1,%eax
    51e0:	88 05 06 6f 00 00    	mov    %al,0x6f06(%rip)        # c0ec <g_446>
    51e6:	0f b6 05 ff 6e 00 00 	movzbl 0x6eff(%rip),%eax        # c0ec <g_446>
    51ed:	3c 31                	cmp    $0x31,%al
    51ef:	0f 86 da fb ff ff    	jbe    4dcf <func_7+0x39a>
    51f5:	48 8b 85 50 fe ff ff 	mov    -0x1b0(%rbp),%rax
    51fc:	8b 00                	mov    (%rax),%eax
    51fe:	89 c3                	mov    %eax,%ebx
    5200:	be f7 ff ff ff       	mov    $0xfffffff7,%esi
    5205:	bf 01 00 00 00       	mov    $0x1,%edi
    520a:	e8 e6 e1 ff ff       	callq  33f5 <safe_mul_func_int16_t_s_s>
    520f:	48 8b 85 98 fe ff ff 	mov    -0x168(%rbp),%rax
    5216:	48 8b 00             	mov    (%rax),%rax
    5219:	8b 10                	mov    (%rax),%edx
    521b:	48 8b 85 98 fe ff ff 	mov    -0x168(%rbp),%rax
    5222:	48 8b 00             	mov    (%rax),%rax
    5225:	8b 08                	mov    (%rax),%ecx
    5227:	48 8b 85 50 fe ff ff 	mov    -0x1b0(%rbp),%rax
    522e:	8b 00                	mov    (%rax),%eax
    5230:	83 f8 01             	cmp    $0x1,%eax
    5233:	0f 9e c0             	setle  %al
    5236:	0f b6 c0             	movzbl %al,%eax
    5239:	89 85 40 ff ff ff    	mov    %eax,-0xc0(%rbp)
    523f:	8b 85 40 ff ff ff    	mov    -0xc0(%rbp),%eax
    5245:	39 c1                	cmp    %eax,%ecx
    5247:	0f 94 c0             	sete   %al
    524a:	0f b6 c8             	movzbl %al,%ecx
    524d:	48 8b 85 98 fe ff ff 	mov    -0x168(%rbp),%rax
    5254:	48 8b 00             	mov    (%rax),%rax
    5257:	8b 00                	mov    (%rax),%eax
    5259:	31 c8                	xor    %ecx,%eax
    525b:	3d d3 00 00 00       	cmp    $0xd3,%eax
    5260:	0f 9f c0             	setg   %al
    5263:	0f b6 c0             	movzbl %al,%eax
    5266:	39 c2                	cmp    %eax,%edx
    5268:	0f 9f c0             	setg   %al
    526b:	0f b6 c0             	movzbl %al,%eax
    526e:	89 de                	mov    %ebx,%esi
    5270:	89 c7                	mov    %eax,%edi
    5272:	e8 ec e2 ff ff       	callq  3563 <safe_rshift_func_int16_t_s_u>
    5277:	0f bf d0             	movswl %ax,%edx
    527a:	48 8b 85 50 fe ff ff 	mov    -0x1b0(%rbp),%rax
    5281:	8b 00                	mov    (%rax),%eax
    5283:	39 c2                	cmp    %eax,%edx
    5285:	0f 9c c0             	setl   %al
    5288:	0f b6 c0             	movzbl %al,%eax
    528b:	89 c2                	mov    %eax,%edx
    528d:	8b 05 a1 6d 00 00    	mov    0x6da1(%rip),%eax        # c034 <g_116>
    5293:	31 d0                	xor    %edx,%eax
    5295:	89 05 99 6d 00 00    	mov    %eax,0x6d99(%rip)        # c034 <g_116>
    529b:	8b 05 93 6d 00 00    	mov    0x6d93(%rip),%eax        # c034 <g_116>
    52a1:	85 c0                	test   %eax,%eax
    52a3:	0f 95 c0             	setne  %al
    52a6:	0f b6 d0             	movzbl %al,%edx
    52a9:	48 8b 05 f0 75 00 00 	mov    0x75f0(%rip),%rax        # c8a0 <g_537>
    52b0:	48 8b 00             	mov    (%rax),%rax
    52b3:	48 8b 00             	mov    (%rax),%rax
    52b6:	09 c2                	or     %eax,%edx
    52b8:	48 8b 85 98 fe ff ff 	mov    -0x168(%rbp),%rax
    52bf:	48 8b 00             	mov    (%rax),%rax
    52c2:	89 10                	mov    %edx,(%rax)
    52c4:	48 8b 85 98 fe ff ff 	mov    -0x168(%rbp),%rax
    52cb:	48 8b 00             	mov    (%rax),%rax
    52ce:	8b 00                	mov    (%rax),%eax
    52d0:	0f be c0             	movsbl %al,%eax
    52d3:	be 02 00 00 00       	mov    $0x2,%esi
    52d8:	89 c7                	mov    %eax,%edi
    52da:	e8 56 e0 ff ff       	callq  3335 <safe_rshift_func_int8_t_s_s>
    52df:	48 8b 85 50 fe ff ff 	mov    -0x1b0(%rbp),%rax
    52e6:	8b 00                	mov    (%rax),%eax
    52e8:	0f be d8             	movsbl %al,%ebx
    52eb:	48 8b 85 50 fe ff ff 	mov    -0x1b0(%rbp),%rax
    52f2:	8b 10                	mov    (%rax),%edx
    52f4:	48 8b 05 b5 75 00 00 	mov    0x75b5(%rip),%rax        # c8b0 <g_654>
    52fb:	48 63 d2             	movslq %edx,%rdx
    52fe:	48 89 10             	mov    %rdx,(%rax)
    5301:	48 8b 00             	mov    (%rax),%rax
    5304:	48 85 c0             	test   %rax,%rax
    5307:	75 34                	jne    533d <func_7+0x908>
    5309:	48 8b 85 98 fe ff ff 	mov    -0x168(%rbp),%rax
    5310:	48 8b 00             	mov    (%rax),%rax
    5313:	8b 00                	mov    (%rax),%eax
    5315:	3d ab 3e 00 00       	cmp    $0x3eab,%eax
    531a:	0f 9e c0             	setle  %al
    531d:	0f b6 d0             	movzbl %al,%edx
    5320:	48 8b 85 98 fe ff ff 	mov    -0x168(%rbp),%rax
    5327:	48 8b 00             	mov    (%rax),%rax
    532a:	8b 00                	mov    (%rax),%eax
    532c:	09 d0                	or     %edx,%eax
    532e:	48 98                	cltq   
    5330:	48 89 c6             	mov    %rax,%rsi
    5333:	bf 02 00 00 00       	mov    $0x2,%edi
    5338:	e8 04 e5 ff ff       	callq  3841 <safe_add_func_int64_t_s_s>
    533d:	ba 01 00 00 00       	mov    $0x1,%edx
    5342:	48 8b 85 28 fe ff ff 	mov    -0x1d8(%rbp),%rax
    5349:	8b 00                	mov    (%rax),%eax
    534b:	21 c2                	and    %eax,%edx
    534d:	48 8b 85 98 fe ff ff 	mov    -0x168(%rbp),%rax
    5354:	48 8b 00             	mov    (%rax),%rax
    5357:	8b 00                	mov    (%rax),%eax
    5359:	39 c2                	cmp    %eax,%edx
    535b:	0f 9c c0             	setl   %al
    535e:	0f b6 c0             	movzbl %al,%eax
    5361:	89 de                	mov    %ebx,%esi
    5363:	89 c7                	mov    %eax,%edi
    5365:	e8 c7 de ff ff       	callq  3231 <safe_mod_func_int8_t_s_s>
    536a:	89 c2                	mov    %eax,%edx
    536c:	48 8b 85 98 fe ff ff 	mov    -0x168(%rbp),%rax
    5373:	48 8b 00             	mov    (%rax),%rax
    5376:	0f be d2             	movsbl %dl,%edx
    5379:	89 10                	mov    %edx,(%rax)
    537b:	48 bf 16 8a b3 60 aa 	movabs $0xd7d9c9aa60b38a16,%rdi
    5382:	c9 d9 d7 
    5385:	e8 8c e4 ff ff       	callq  3816 <safe_unary_minus_func_int64_t_s>
    538a:	48 8b 15 d7 74 00 00 	mov    0x74d7(%rip),%rdx        # c868 <g_22>
    5391:	48 8b 12             	mov    (%rdx),%rdx
    5394:	0f b7 12             	movzwl (%rdx),%edx
    5397:	48 0f bf d2          	movswq %dx,%rdx
    539b:	48 09 c2             	or     %rax,%rdx
    539e:	48 8b 05 fb 74 00 00 	mov    0x74fb(%rip),%rax        # c8a0 <g_537>
    53a5:	48 8b 00             	mov    (%rax),%rax
    53a8:	48 89 10             	mov    %rdx,(%rax)
    53ab:	48 8b 00             	mov    (%rax),%rax
    53ae:	48 85 c0             	test   %rax,%rax
    53b1:	74 10                	je     53c3 <func_7+0x98e>
    53b3:	48 8b 05 ae 74 00 00 	mov    0x74ae(%rip),%rax        # c868 <g_22>
    53ba:	48 8b 00             	mov    (%rax),%rax
    53bd:	0f b7 00             	movzwl (%rax),%eax
    53c0:	66 85 c0             	test   %ax,%ax
    53c3:	48 8b 05 ae 75 00 00 	mov    0x75ae(%rip),%rax        # c978 <g_707>
    53ca:	48 8b 10             	mov    (%rax),%rdx
    53cd:	48 8b 05 7c 7b 00 00 	mov    0x7b7c(%rip),%rax        # cf50 <g_788>
    53d4:	8b 12                	mov    (%rdx),%edx
    53d6:	89 10                	mov    %edx,(%rax)
    53d8:	48 8b 85 68 fe ff ff 	mov    -0x198(%rbp),%rax
    53df:	be 04 00 00 00       	mov    $0x4,%esi
    53e4:	89 c7                	mov    %eax,%edi
    53e6:	e8 cd ea ff ff       	callq  3eb8 <safe_add_func_uint32_t_u_u>
    53eb:	89 c0                	mov    %eax,%eax
    53ed:	48 89 85 68 fe ff ff 	mov    %rax,-0x198(%rbp)
    53f4:	48 83 bd 68 fe ff ff 	cmpq   $0xf,-0x198(%rbp)
    53fb:	0f 
    53fc:	0f 87 16 f7 ff ff    	ja     4b18 <func_7+0xe3>
    5402:	48 8b 85 50 fe ff ff 	mov    -0x1b0(%rbp),%rax
    5409:	8b 00                	mov    (%rax),%eax
    540b:	48 98                	cltq   
    540d:	48 8b 5d c8          	mov    -0x38(%rbp),%rbx
    5411:	64 48 33 1c 25 28 00 	xor    %fs:0x28,%rbx
    5418:	00 00 
    541a:	74 05                	je     5421 <func_7+0x9ec>
    541c:	e8 4f dc ff ff       	callq  3070 <__stack_chk_fail@plt>
    5421:	48 81 c4 d8 01 00 00 	add    $0x1d8,%rsp
    5428:	5b                   	pop    %rbx
    5429:	41 5c                	pop    %r12
    542b:	41 5d                	pop    %r13
    542d:	41 5e                	pop    %r14
    542f:	41 5f                	pop    %r15
    5431:	5d                   	pop    %rbp
    5432:	c3                   	retq   

0000000000005433 <func_9>:
    5433:	f3 0f 1e fa          	endbr64 
    5437:	55                   	push   %rbp
    5438:	48 89 e5             	mov    %rsp,%rbp
    543b:	89 7d ec             	mov    %edi,-0x14(%rbp)
    543e:	48 89 75 e0          	mov    %rsi,-0x20(%rbp)
    5442:	89 d0                	mov    %edx,%eax
    5444:	88 45 e8             	mov    %al,-0x18(%rbp)
    5447:	48 8d 05 12 74 00 00 	lea    0x7412(%rip),%rax        # c860 <g_18>
    544e:	48 89 45 f0          	mov    %rax,-0x10(%rbp)
    5452:	48 8d 05 37 7f 00 00 	lea    0x7f37(%rip),%rax        # d390 <g_24>
    5459:	48 89 45 f8          	mov    %rax,-0x8(%rbp)
    545d:	48 8b 45 f0          	mov    -0x10(%rbp),%rax
    5461:	48 89 05 00 74 00 00 	mov    %rax,0x7400(%rip)        # c868 <g_22>
    5468:	48 8b 45 f8          	mov    -0x8(%rbp),%rax
    546c:	5d                   	pop    %rbp
    546d:	c3                   	retq   

000000000000546e <func_28>:
    546e:	f3 0f 1e fa          	endbr64 
    5472:	55                   	push   %rbp
    5473:	48 89 e5             	mov    %rsp,%rbp
    5476:	53                   	push   %rbx
    5477:	48 83 ec 20          	sub    $0x20,%rsp
    547b:	48 89 7d e0          	mov    %rdi,-0x20(%rbp)
    547f:	48 89 75 d8          	mov    %rsi,-0x28(%rbp)
    5483:	48 8d 05 f2 6b 00 00 	lea    0x6bf2(%rip),%rax        # c07c <g_192>
    548a:	48 89 45 f0          	mov    %rax,-0x10(%rbp)
    548e:	48 8b 45 f0          	mov    -0x10(%rbp),%rax
    5492:	8b 00                	mov    (%rax),%eax
    5494:	0f be d0             	movsbl %al,%edx
    5497:	8b 05 53 6c 00 00    	mov    0x6c53(%rip),%eax        # c0f0 <g_726>
    549d:	89 c1                	mov    %eax,%ecx
    549f:	48 8b 1d ea 73 00 00 	mov    0x73ea(%rip),%rbx        # c890 <g_310>
    54a6:	48 8b 45 f0          	mov    -0x10(%rbp),%rax
    54aa:	48 89 c6             	mov    %rax,%rsi
    54ad:	89 cf                	mov    %ecx,%edi
    54af:	e8 7f ff ff ff       	callq  5433 <func_9>
    54b4:	48 89 03             	mov    %rax,(%rbx)
    54b7:	48 8d 05 c2 73 00 00 	lea    0x73c2(%rip),%rax        # c880 <g_126>
    54be:	48 83 c4 20          	add    $0x20,%rsp
    54c2:	5b                   	pop    %rbx
    54c3:	5d                   	pop    %rbp
    54c4:	c3                   	retq   

00000000000054c5 <func_31>:
    54c5:	f3 0f 1e fa          	endbr64 
    54c9:	55                   	push   %rbp
    54ca:	48 89 e5             	mov    %rsp,%rbp
    54cd:	41 57                	push   %r15
    54cf:	41 56                	push   %r14
    54d1:	41 55                	push   %r13
    54d3:	41 54                	push   %r12
    54d5:	53                   	push   %rbx
    54d6:	48 81 ec 48 0a 00 00 	sub    $0xa48,%rsp
    54dd:	48 89 bd b8 f5 ff ff 	mov    %rdi,-0xa48(%rbp)
    54e4:	89 b5 b4 f5 ff ff    	mov    %esi,-0xa4c(%rbp)
    54ea:	48 89 95 a8 f5 ff ff 	mov    %rdx,-0xa58(%rbp)
    54f1:	48 89 8d a0 f5 ff ff 	mov    %rcx,-0xa60(%rbp)
    54f8:	64 48 8b 04 25 28 00 	mov    %fs:0x28,%rax
    54ff:	00 00 
    5501:	48 89 45 c8          	mov    %rax,-0x38(%rbp)
    5505:	31 c0                	xor    %eax,%eax
    5507:	48 c7 85 28 f6 ff ff 	movq   $0x5,-0x9d8(%rbp)
    550e:	05 00 00 00 
    5512:	c7 85 e0 f5 ff ff 34 	movl   $0x5190cc34,-0xa20(%rbp)
    5519:	cc 90 51 
    551c:	48 c7 85 50 f6 ff ff 	movq   $0x0,-0x9b0(%rbp)
    5523:	00 00 00 00 
    5527:	48 8d 05 52 73 00 00 	lea    0x7352(%rip),%rax        # c880 <g_126>
    552e:	48 89 85 58 f6 ff ff 	mov    %rax,-0x9a8(%rbp)
    5535:	c7 85 e4 f5 ff ff a5 	movl   $0x7da681a5,-0xa1c(%rbp)
    553c:	81 a6 7d 
    553f:	48 8d 85 e4 f5 ff ff 	lea    -0xa1c(%rbp),%rax
    5546:	48 89 85 60 f6 ff ff 	mov    %rax,-0x9a0(%rbp)
    554d:	48 8d 05 dc 6a 00 00 	lea    0x6adc(%rip),%rax        # c030 <g_93>
    5554:	48 89 85 68 f6 ff ff 	mov    %rax,-0x998(%rbp)
    555b:	48 8d 05 4e 6b 00 00 	lea    0x6b4e(%rip),%rax        # c0b0 <g_326+0x10>
    5562:	48 89 85 60 f8 ff ff 	mov    %rax,-0x7a0(%rbp)
    5569:	48 8d 05 58 6b 00 00 	lea    0x6b58(%rip),%rax        # c0c8 <g_356>
    5570:	48 89 85 68 f8 ff ff 	mov    %rax,-0x798(%rbp)
    5577:	48 8d 05 4a 6b 00 00 	lea    0x6b4a(%rip),%rax        # c0c8 <g_356>
    557e:	48 89 85 70 f8 ff ff 	mov    %rax,-0x790(%rbp)
    5585:	48 8d 05 3c 6b 00 00 	lea    0x6b3c(%rip),%rax        # c0c8 <g_356>
    558c:	48 89 85 78 f8 ff ff 	mov    %rax,-0x788(%rbp)
    5593:	48 8d 05 2e 6b 00 00 	lea    0x6b2e(%rip),%rax        # c0c8 <g_356>
    559a:	48 89 85 80 f8 ff ff 	mov    %rax,-0x780(%rbp)
    55a1:	48 8d 05 20 6b 00 00 	lea    0x6b20(%rip),%rax        # c0c8 <g_356>
    55a8:	48 89 85 88 f8 ff ff 	mov    %rax,-0x778(%rbp)
    55af:	48 8d 05 fa 6a 00 00 	lea    0x6afa(%rip),%rax        # c0b0 <g_326+0x10>
    55b6:	48 89 85 90 f8 ff ff 	mov    %rax,-0x770(%rbp)
    55bd:	48 8d 05 04 6b 00 00 	lea    0x6b04(%rip),%rax        # c0c8 <g_356>
    55c4:	48 89 85 98 f8 ff ff 	mov    %rax,-0x768(%rbp)
    55cb:	48 8d 05 f6 6a 00 00 	lea    0x6af6(%rip),%rax        # c0c8 <g_356>
    55d2:	48 89 85 a0 f8 ff ff 	mov    %rax,-0x760(%rbp)
    55d9:	48 8d 05 e8 6a 00 00 	lea    0x6ae8(%rip),%rax        # c0c8 <g_356>
    55e0:	48 89 85 a8 f8 ff ff 	mov    %rax,-0x758(%rbp)
    55e7:	48 8d 05 da 6a 00 00 	lea    0x6ada(%rip),%rax        # c0c8 <g_356>
    55ee:	48 89 85 b0 f8 ff ff 	mov    %rax,-0x750(%rbp)
    55f5:	48 8d 05 b4 6a 00 00 	lea    0x6ab4(%rip),%rax        # c0b0 <g_326+0x10>
    55fc:	48 89 85 b8 f8 ff ff 	mov    %rax,-0x748(%rbp)
    5603:	c7 85 fc f5 ff ff 00 	movl   $0x0,-0xa04(%rbp)
    560a:	00 00 00 
    560d:	eb 1b                	jmp    562a <func_31+0x165>
    560f:	8b 85 fc f5 ff ff    	mov    -0xa04(%rbp),%eax
    5615:	48 98                	cltq   
    5617:	48 c7 84 c5 d0 f7 ff 	movq   $0x0,-0x830(%rbp,%rax,8)
    561e:	ff 00 00 00 00 
    5623:	83 85 fc f5 ff ff 01 	addl   $0x1,-0xa04(%rbp)
    562a:	83 bd fc f5 ff ff 03 	cmpl   $0x3,-0xa04(%rbp)
    5631:	7e dc                	jle    560f <func_31+0x14a>
    5633:	48 8b 85 28 f6 ff ff 	mov    -0x9d8(%rbp),%rax
    563a:	89 c2                	mov    %eax,%edx
    563c:	48 8b 85 28 f6 ff ff 	mov    -0x9d8(%rbp),%rax
    5643:	0f be c0             	movsbl %al,%eax
    5646:	89 d6                	mov    %edx,%esi
    5648:	89 c7                	mov    %eax,%edi
    564a:	e8 9f dc ff ff       	callq  32ee <safe_lshift_func_int8_t_s_u>
    564f:	48 8b 85 28 f6 ff ff 	mov    -0x9d8(%rbp),%rax
    5656:	89 c6                	mov    %eax,%esi
    5658:	bf ff ff ff ff       	mov    $0xffffffff,%edi
    565d:	e8 01 df ff ff       	callq  3563 <safe_rshift_func_int16_t_s_u>
    5662:	66 83 f8 02          	cmp    $0x2,%ax
    5666:	0f 95 c0             	setne  %al
    5669:	88 05 31 7d 00 00    	mov    %al,0x7d31(%rip)        # d3a0 <g_295>
    566f:	0f b6 05 2a 7d 00 00 	movzbl 0x7d2a(%rip),%eax        # d3a0 <g_295>
    5676:	0f b6 c0             	movzbl %al,%eax
    5679:	be 01 00 00 00       	mov    $0x1,%esi
    567e:	89 c7                	mov    %eax,%edi
    5680:	e8 d5 e4 ff ff       	callq  3b5a <safe_add_func_uint8_t_u_u>
    5685:	84 c0                	test   %al,%al
    5687:	0f 84 9d 09 00 00    	je     602a <func_31+0xb65>
    568d:	66 c7 85 da f5 ff ff 	movw   $0xfffb,-0xa26(%rbp)
    5694:	fb ff 
    5696:	48 8d 05 8b 69 00 00 	lea    0x698b(%rip),%rax        # c028 <g_85>
    569d:	48 89 85 38 f7 ff ff 	mov    %rax,-0x8c8(%rbp)
    56a4:	48 8d 05 f5 7c 00 00 	lea    0x7cf5(%rip),%rax        # d3a0 <g_295>
    56ab:	48 89 85 40 f7 ff ff 	mov    %rax,-0x8c0(%rbp)
    56b2:	48 8d 05 33 6a 00 00 	lea    0x6a33(%rip),%rax        # c0ec <g_446>
    56b9:	48 89 85 48 f7 ff ff 	mov    %rax,-0x8b8(%rbp)
    56c0:	c7 85 14 f6 ff ff ff 	movl   $0xffffffff,-0x9ec(%rbp)
    56c7:	ff ff ff 
    56ca:	66 c7 85 dc f5 ff ff 	movw   $0x1db1,-0xa24(%rbp)
    56d1:	b1 1d 
    56d3:	c7 85 f0 f7 ff ff 05 	movl   $0x5,-0x810(%rbp)
    56da:	00 00 00 
    56dd:	c7 85 f4 f7 ff ff 01 	movl   $0x1,-0x80c(%rbp)
    56e4:	00 00 00 
    56e7:	c7 85 f8 f7 ff ff 01 	movl   $0x1,-0x808(%rbp)
    56ee:	00 00 00 
    56f1:	c7 85 fc f7 ff ff 05 	movl   $0x5,-0x804(%rbp)
    56f8:	00 00 00 
    56fb:	c7 85 00 f8 ff ff 01 	movl   $0x1,-0x800(%rbp)
    5702:	00 00 00 
    5705:	c7 85 04 f8 ff ff 01 	movl   $0x1,-0x7fc(%rbp)
    570c:	00 00 00 
    570f:	c7 85 08 f8 ff ff 05 	movl   $0x5,-0x7f8(%rbp)
    5716:	00 00 00 
    5719:	c7 85 0c f8 ff ff 01 	movl   $0x1,-0x7f4(%rbp)
    5720:	00 00 00 
    5723:	48 8d 85 f0 f7 ff ff 	lea    -0x810(%rbp),%rax
    572a:	48 83 c0 14          	add    $0x14,%rax
    572e:	48 89 85 50 f7 ff ff 	mov    %rax,-0x8b0(%rbp)
    5735:	48 c7 85 c0 f8 ff ff 	movq   $0x0,-0x740(%rbp)
    573c:	00 00 00 00 
    5740:	48 c7 85 c8 f8 ff ff 	movq   $0x0,-0x738(%rbp)
    5747:	00 00 00 00 
    574b:	48 c7 85 d0 f8 ff ff 	movq   $0x0,-0x730(%rbp)
    5752:	00 00 00 00 
    5756:	48 c7 85 d8 f8 ff ff 	movq   $0x0,-0x728(%rbp)
    575d:	00 00 00 00 
    5761:	48 c7 85 e0 f8 ff ff 	movq   $0x0,-0x720(%rbp)
    5768:	00 00 00 00 
    576c:	48 c7 85 e8 f8 ff ff 	movq   $0x0,-0x718(%rbp)
    5773:	00 00 00 00 
    5777:	48 c7 85 f0 f8 ff ff 	movq   $0x0,-0x710(%rbp)
    577e:	00 00 00 00 
    5782:	48 c7 85 f8 f8 ff ff 	movq   $0x0,-0x708(%rbp)
    5789:	00 00 00 00 
    578d:	48 8d 05 e8 68 00 00 	lea    0x68e8(%rip),%rax        # c07c <g_192>
    5794:	48 89 85 58 f7 ff ff 	mov    %rax,-0x8a8(%rbp)
    579b:	48 8d 05 df 68 00 00 	lea    0x68df(%rip),%rax        # c081 <g_275>
    57a2:	48 89 85 60 f7 ff ff 	mov    %rax,-0x8a0(%rbp)
    57a9:	48 8d 05 e0 7b 00 00 	lea    0x7be0(%rip),%rax        # d390 <g_24>
    57b0:	48 89 85 68 f7 ff ff 	mov    %rax,-0x898(%rbp)
    57b7:	8b 85 b4 f5 ff ff    	mov    -0xa4c(%rbp),%eax
    57bd:	48 63 d8             	movslq %eax,%rbx
    57c0:	48 8b 05 c1 70 00 00 	mov    0x70c1(%rip),%rax        # c888 <g_145>
    57c7:	48 8b 00             	mov    (%rax),%rax
    57ca:	48 85 c0             	test   %rax,%rax
    57cd:	75 46                	jne    5815 <func_31+0x350>
    57cf:	66 83 bd da f5 ff ff 	cmpw   $0x0,-0xa26(%rbp)
    57d6:	00 
    57d7:	74 11                	je     57ea <func_31+0x325>
    57d9:	8b 05 e5 68 00 00    	mov    0x68e5(%rip),%eax        # c0c4 <g_352>
    57df:	85 c0                	test   %eax,%eax
    57e1:	74 07                	je     57ea <func_31+0x325>
    57e3:	b8 01 00 00 00       	mov    $0x1,%eax
    57e8:	eb 05                	jmp    57ef <func_31+0x32a>
    57ea:	b8 00 00 00 00       	mov    $0x0,%eax
    57ef:	48 63 c8             	movslq %eax,%rcx
    57f2:	8b 85 b4 f5 ff ff    	mov    -0xa4c(%rbp),%eax
    57f8:	48 63 d0             	movslq %eax,%rdx
    57fb:	48 8b 85 38 f7 ff ff 	mov    -0x8c8(%rbp),%rax
    5802:	48 89 10             	mov    %rdx,(%rax)
    5805:	48 8b 85 38 f7 ff ff 	mov    -0x8c8(%rbp),%rax
    580c:	48 8b 00             	mov    (%rax),%rax
    580f:	48 21 c8             	and    %rcx,%rax
    5812:	48 85 c0             	test   %rax,%rax
    5815:	0f b7 05 b6 68 00 00 	movzwl 0x68b6(%rip),%eax        # c0d2 <g_358+0x2>
    581c:	44 0f bf e8          	movswl %ax,%r13d
    5820:	0f b7 05 ab 68 00 00 	movzwl 0x68ab(%rip),%eax        # c0d2 <g_358+0x2>
    5827:	44 0f bf e0          	movswl %ax,%r12d
    582b:	48 8b 85 28 f6 ff ff 	mov    -0x9d8(%rbp),%rax
    5832:	48 c7 c6 ff ff ff ff 	mov    $0xffffffffffffffff,%rsi
    5839:	48 89 c7             	mov    %rax,%rdi
    583c:	e8 6e e8 ff ff       	callq  40af <safe_div_func_uint64_t_u_u>
    5841:	be 01 00 00 00       	mov    $0x1,%esi
    5846:	48 89 c7             	mov    %rax,%rdi
    5849:	e8 f3 df ff ff       	callq  3841 <safe_add_func_int64_t_s_s>
    584e:	0f b7 85 da f5 ff ff 	movzwl -0xa26(%rbp),%eax
    5855:	0f b6 c0             	movzbl %al,%eax
    5858:	44 89 e6             	mov    %r12d,%esi
    585b:	89 c7                	mov    %eax,%edi
    585d:	e8 2b e4 ff ff       	callq  3c8d <safe_rshift_func_uint8_t_u_s>
    5862:	84 c0                	test   %al,%al
    5864:	0f 94 c0             	sete   %al
    5867:	0f b6 d0             	movzbl %al,%edx
    586a:	48 8b 05 ef 6f 00 00 	mov    0x6fef(%rip),%rax        # c860 <g_18>
    5871:	0f b7 00             	movzwl (%rax),%eax
    5874:	98                   	cwtl   
    5875:	09 d0                	or     %edx,%eax
    5877:	85 c0                	test   %eax,%eax
    5879:	75 09                	jne    5884 <func_31+0x3bf>
    587b:	83 bd b4 f5 ff ff 00 	cmpl   $0x0,-0xa4c(%rbp)
    5882:	74 07                	je     588b <func_31+0x3c6>
    5884:	b8 01 00 00 00       	mov    $0x1,%eax
    5889:	eb 05                	jmp    5890 <func_31+0x3cb>
    588b:	b8 00 00 00 00       	mov    $0x0,%eax
    5890:	89 c2                	mov    %eax,%edx
    5892:	48 8b 85 40 f7 ff ff 	mov    -0x8c0(%rbp),%rax
    5899:	88 10                	mov    %dl,(%rax)
    589b:	48 8b 85 40 f7 ff ff 	mov    -0x8c0(%rbp),%rax
    58a2:	0f b6 00             	movzbl (%rax),%eax
    58a5:	0f b6 c0             	movzbl %al,%eax
    58a8:	41 39 c5             	cmp    %eax,%r13d
    58ab:	0f 9e c0             	setle  %al
    58ae:	0f b6 c0             	movzbl %al,%eax
    58b1:	8b 95 b4 f5 ff ff    	mov    -0xa4c(%rbp),%edx
    58b7:	89 d6                	mov    %edx,%esi
    58b9:	89 c7                	mov    %eax,%edi
    58bb:	e8 75 da ff ff       	callq  3335 <safe_rshift_func_int8_t_s_s>
    58c0:	89 c2                	mov    %eax,%edx
    58c2:	48 8b 85 48 f7 ff ff 	mov    -0x8b8(%rbp),%rax
    58c9:	88 10                	mov    %dl,(%rax)
    58cb:	48 8b 85 48 f7 ff ff 	mov    -0x8b8(%rbp),%rax
    58d2:	0f b6 00             	movzbl (%rax),%eax
    58d5:	0f b6 c0             	movzbl %al,%eax
    58d8:	48 83 e0 f8          	and    $0xfffffffffffffff8,%rax
    58dc:	48 89 c2             	mov    %rax,%rdx
    58df:	48 0f bf 85 da f5 ff 	movswq -0xa26(%rbp),%rax
    58e6:	ff 
    58e7:	48 39 c2             	cmp    %rax,%rdx
    58ea:	0f b7 05 35 67 00 00 	movzwl 0x6735(%rip),%eax        # c026 <g_19>
    58f1:	0f be c0             	movsbl %al,%eax
    58f4:	be 00 00 00 00       	mov    $0x0,%esi
    58f9:	89 c7                	mov    %eax,%edi
    58fb:	e8 f2 d8 ff ff       	callq  31f2 <safe_sub_func_int8_t_s_s>
    5900:	0f b6 c0             	movzbl %al,%eax
    5903:	89 c7                	mov    %eax,%edi
    5905:	e8 3b e2 ff ff       	callq  3b45 <safe_unary_minus_func_uint8_t_u>
    590a:	0f b6 d0             	movzbl %al,%edx
    590d:	8b 85 b4 f5 ff ff    	mov    -0xa4c(%rbp),%eax
    5913:	48 98                	cltq   
    5915:	48 39 c2             	cmp    %rax,%rdx
    5918:	0f 93 c0             	setae  %al
    591b:	0f b6 c0             	movzbl %al,%eax
    591e:	39 85 b4 f5 ff ff    	cmp    %eax,-0xa4c(%rbp)
    5924:	0f 9e c0             	setle  %al
    5927:	0f b6 c0             	movzbl %al,%eax
    592a:	89 85 14 f6 ff ff    	mov    %eax,-0x9ec(%rbp)
    5930:	8b 85 14 f6 ff ff    	mov    -0x9ec(%rbp),%eax
    5936:	48 98                	cltq   
    5938:	48 c7 c6 ff ff ff ff 	mov    $0xffffffffffffffff,%rsi
    593f:	48 89 c7             	mov    %rax,%rdi
    5942:	e8 fa de ff ff       	callq  3841 <safe_add_func_int64_t_s_s>
    5947:	48 89 de             	mov    %rbx,%rsi
    594a:	48 89 c7             	mov    %rax,%rdi
    594d:	e8 ef de ff ff       	callq  3841 <safe_add_func_int64_t_s_s>
    5952:	be f9 ff ff ff       	mov    $0xfffffff9,%esi
    5957:	89 c7                	mov    %eax,%edi
    5959:	e8 9f e5 ff ff       	callq  3efd <safe_mod_func_uint32_t_u_u>
    595e:	0f b6 05 fb 66 00 00 	movzbl 0x66fb(%rip),%eax        # c060 <g_124>
    5965:	0f be d0             	movsbl %al,%edx
    5968:	0f bf 85 da f5 ff ff 	movswl -0xa26(%rbp),%eax
    596f:	21 d0                	and    %edx,%eax
    5971:	89 85 e0 f5 ff ff    	mov    %eax,-0xa20(%rbp)
    5977:	c6 05 22 7a 00 00 00 	movb   $0x0,0x7a22(%rip)        # d3a0 <g_295>
    597e:	e9 62 05 00 00       	jmpq   5ee5 <func_31+0xa20>
    5983:	c7 85 18 f6 ff ff 19 	movl   $0xad72819,-0x9e8(%rbp)
    598a:	28 d7 0a 
    598d:	66 c7 85 de f5 ff ff 	movw   $0xe684,-0xa22(%rbp)
    5994:	84 e6 
    5996:	48 c7 85 48 f6 ff ff 	movq   $0x0,-0x9b8(%rbp)
    599d:	00 00 00 00 
    59a1:	48 8d 85 48 f6 ff ff 	lea    -0x9b8(%rbp),%rax
    59a8:	48 89 85 70 f7 ff ff 	mov    %rax,-0x890(%rbp)
    59af:	48 8b 05 da 6e 00 00 	mov    0x6eda(%rip),%rax        # c890 <g_310>
    59b6:	48 8d 95 e0 f5 ff ff 	lea    -0xa20(%rbp),%rdx
    59bd:	48 89 10             	mov    %rdx,(%rax)
    59c0:	66 c7 05 5b 66 00 00 	movw   $0x0,0x665b(%rip)        # c024 <g_17>
    59c7:	00 00 
    59c9:	90                   	nop
    59ca:	0f b7 05 53 66 00 00 	movzwl 0x6653(%rip),%eax        # c024 <g_17>
    59d1:	66 83 f8 02          	cmp    $0x2,%ax
    59d5:	0f 8f ea 04 00 00    	jg     5ec5 <func_31+0xa00>
    59db:	48 c7 85 78 f7 ff ff 	movq   $0x0,-0x888(%rbp)
    59e2:	00 00 00 00 
    59e6:	48 8d 85 48 f6 ff ff 	lea    -0x9b8(%rbp),%rax
    59ed:	48 89 85 80 f7 ff ff 	mov    %rax,-0x880(%rbp)
    59f4:	c7 85 1c f6 ff ff b5 	movl   $0x903581b5,-0x9e4(%rbp)
    59fb:	81 35 90 
    59fe:	48 8b 05 83 79 00 00 	mov    0x7983(%rip),%rax        # d388 <g_20>
    5a05:	8b 08                	mov    (%rax),%ecx
    5a07:	48 8b 05 6a 63 00 00 	mov    0x636a(%rip),%rax        # bd78 <l_449.4196+0xb8>
    5a0e:	48 85 c0             	test   %rax,%rax
    5a11:	0f 94 c0             	sete   %al
    5a14:	0f b6 d0             	movzbl %al,%edx
    5a17:	48 8b 05 6a 79 00 00 	mov    0x796a(%rip),%rax        # d388 <g_20>
    5a1e:	21 ca                	and    %ecx,%edx
    5a20:	89 10                	mov    %edx,(%rax)
    5a22:	48 c7 05 3b 66 00 00 	movq   $0x0,0x663b(%rip)        # c068 <g_146>
    5a29:	00 00 00 00 
    5a2d:	e9 76 04 00 00       	jmpq   5ea8 <func_31+0x9e3>
    5a32:	48 8d 05 47 66 00 00 	lea    0x6647(%rip),%rax        # c080 <g_274>
    5a39:	48 89 85 20 f8 ff ff 	mov    %rax,-0x7e0(%rbp)
    5a40:	48 8d 05 39 66 00 00 	lea    0x6639(%rip),%rax        # c080 <g_274>
    5a47:	48 89 85 28 f8 ff ff 	mov    %rax,-0x7d8(%rbp)
    5a4e:	48 8d 05 2b 66 00 00 	lea    0x662b(%rip),%rax        # c080 <g_274>
    5a55:	48 89 85 30 f8 ff ff 	mov    %rax,-0x7d0(%rbp)
    5a5c:	48 8d 05 1d 66 00 00 	lea    0x661d(%rip),%rax        # c080 <g_274>
    5a63:	48 89 85 38 f8 ff ff 	mov    %rax,-0x7c8(%rbp)
    5a6a:	8b 05 08 66 00 00    	mov    0x6608(%rip),%eax        # c078 <g_175>
    5a70:	85 c0                	test   %eax,%eax
    5a72:	74 05                	je     5a79 <func_31+0x5b4>
    5a74:	e9 3e fd ff ff       	jmpq   57b7 <func_31+0x2f2>
    5a79:	48 8b 05 e8 65 00 00 	mov    0x65e8(%rip),%rax        # c068 <g_146>
    5a80:	48 8d 14 85 00 00 00 	lea    0x0(,%rax,4),%rdx
    5a87:	00 
    5a88:	48 8d 05 b1 65 00 00 	lea    0x65b1(%rip),%rax        # c040 <g_120>
    5a8f:	8b 04 02             	mov    (%rdx,%rax,1),%eax
    5a92:	85 c0                	test   %eax,%eax
    5a94:	0f 85 fb 03 00 00    	jne    5e95 <func_31+0x9d0>
    5a9a:	0f b6 05 bf 65 00 00 	movzbl 0x65bf(%rip),%eax        # c060 <g_124>
    5aa1:	0f be d8             	movsbl %al,%ebx
    5aa4:	8b 85 b4 f5 ff ff    	mov    -0xa4c(%rbp),%eax
    5aaa:	89 c2                	mov    %eax,%edx
    5aac:	0f b6 05 ce 65 00 00 	movzbl 0x65ce(%rip),%eax        # c081 <g_275>
    5ab3:	21 d0                	and    %edx,%eax
    5ab5:	88 05 c6 65 00 00    	mov    %al,0x65c6(%rip)        # c081 <g_275>
    5abb:	0f b6 05 bf 65 00 00 	movzbl 0x65bf(%rip),%eax        # c081 <g_275>
    5ac2:	0f be c0             	movsbl %al,%eax
    5ac5:	89 85 18 f6 ff ff    	mov    %eax,-0x9e8(%rbp)
    5acb:	8b 85 18 f6 ff ff    	mov    -0x9e8(%rbp),%eax
    5ad1:	83 c8 07             	or     $0x7,%eax
    5ad4:	89 c2                	mov    %eax,%edx
    5ad6:	0f b7 05 49 65 00 00 	movzwl 0x6549(%rip),%eax        # c026 <g_19>
    5add:	31 d0                	xor    %edx,%eax
    5adf:	0f b7 c0             	movzwl %ax,%eax
    5ae2:	be 01 00 00 00       	mov    $0x1,%esi
    5ae7:	89 c7                	mov    %eax,%edi
    5ae9:	e8 18 e3 ff ff       	callq  3e06 <safe_lshift_func_uint16_t_u_u>
    5aee:	0f b7 c8             	movzwl %ax,%ecx
    5af1:	0f b6 05 a8 78 00 00 	movzbl 0x78a8(%rip),%eax        # d3a0 <g_295>
    5af8:	0f b6 c0             	movzbl %al,%eax
    5afb:	0f b6 15 9e 78 00 00 	movzbl 0x789e(%rip),%edx        # d3a0 <g_295>
    5b02:	0f b6 d2             	movzbl %dl,%edx
    5b05:	48 63 f2             	movslq %edx,%rsi
    5b08:	48 63 d0             	movslq %eax,%rdx
    5b0b:	48 89 d0             	mov    %rdx,%rax
    5b0e:	48 01 c0             	add    %rax,%rax
    5b11:	48 01 d0             	add    %rdx,%rax
    5b14:	48 01 f0             	add    %rsi,%rax
    5b17:	48 8d 14 00          	lea    (%rax,%rax,1),%rdx
    5b1b:	48 8d 05 ae 65 00 00 	lea    0x65ae(%rip),%rax        # c0d0 <g_358>
    5b22:	0f b7 04 02          	movzwl (%rdx,%rax,1),%eax
    5b26:	98                   	cwtl   
    5b27:	89 ce                	mov    %ecx,%esi
    5b29:	89 c7                	mov    %eax,%edi
    5b2b:	e8 9c db ff ff       	callq  36cc <safe_mod_func_int32_t_s_s>
    5b30:	44 0f bf a5 de f5 ff 	movswl -0xa22(%rbp),%r12d
    5b37:	ff 
    5b38:	0f b7 85 dc f5 ff ff 	movzwl -0xa24(%rbp),%eax
    5b3f:	0f b6 c0             	movzbl %al,%eax
    5b42:	be 02 00 00 00       	mov    $0x2,%esi
    5b47:	89 c7                	mov    %eax,%edi
    5b49:	e8 70 e1 ff ff       	callq  3cbe <safe_rshift_func_uint8_t_u_u>
    5b4e:	0f b6 c0             	movzbl %al,%eax
    5b51:	44 31 e0             	xor    %r12d,%eax
    5b54:	41 89 c4             	mov    %eax,%r12d
    5b57:	48 8b 85 a8 f5 ff ff 	mov    -0xa58(%rbp),%rax
    5b5e:	48 8b 00             	mov    (%rax),%rax
    5b61:	48 8b 00             	mov    (%rax),%rax
    5b64:	0f b7 08             	movzwl (%rax),%ecx
    5b67:	0f b6 05 32 78 00 00 	movzbl 0x7832(%rip),%eax        # d3a0 <g_295>
    5b6e:	0f b6 c0             	movzbl %al,%eax
    5b71:	0f b6 15 28 78 00 00 	movzbl 0x7828(%rip),%edx        # d3a0 <g_295>
    5b78:	0f b6 d2             	movzbl %dl,%edx
    5b7b:	48 63 f2             	movslq %edx,%rsi
    5b7e:	48 63 d0             	movslq %eax,%rdx
    5b81:	48 89 d0             	mov    %rdx,%rax
    5b84:	48 01 c0             	add    %rax,%rax
    5b87:	48 01 d0             	add    %rdx,%rax
    5b8a:	48 01 f0             	add    %rsi,%rax
    5b8d:	48 8d 14 00          	lea    (%rax,%rax,1),%rdx
    5b91:	48 8d 05 38 65 00 00 	lea    0x6538(%rip),%rax        # c0d0 <g_358>
    5b98:	0f b7 14 02          	movzwl (%rdx,%rax,1),%edx
    5b9c:	48 8b 85 a8 f5 ff ff 	mov    -0xa58(%rbp),%rax
    5ba3:	48 8b 00             	mov    (%rax),%rax
    5ba6:	48 8b 00             	mov    (%rax),%rax
    5ba9:	09 ca                	or     %ecx,%edx
    5bab:	66 89 10             	mov    %dx,(%rax)
    5bae:	0f b7 00             	movzwl (%rax),%eax
    5bb1:	0f b6 c0             	movzbl %al,%eax
    5bb4:	89 c6                	mov    %eax,%esi
    5bb6:	bf de 00 00 00       	mov    $0xde,%edi
    5bbb:	e8 d3 df ff ff       	callq  3b93 <safe_mul_func_uint8_t_u_u>
    5bc0:	0f b6 c0             	movzbl %al,%eax
    5bc3:	44 89 e6             	mov    %r12d,%esi
    5bc6:	89 c7                	mov    %eax,%edi
    5bc8:	e8 14 d9 ff ff       	callq  34e1 <safe_lshift_func_int16_t_s_u>
    5bcd:	89 de                	mov    %ebx,%esi
    5bcf:	bf 2c 30 00 00       	mov    $0x302c,%edi
    5bd4:	e8 a1 e2 ff ff       	callq  3e7a <safe_rshift_func_uint16_t_u_u>
    5bd9:	83 bd b4 f5 ff ff 00 	cmpl   $0x0,-0xa4c(%rbp)
    5be0:	0f 84 21 01 00 00    	je     5d07 <func_31+0x842>
    5be6:	48 8b 05 a3 6c 00 00 	mov    0x6ca3(%rip),%rax        # c890 <g_310>
    5bed:	48 8d 95 e0 f5 ff ff 	lea    -0xa20(%rbp),%rdx
    5bf4:	48 89 10             	mov    %rdx,(%rax)
    5bf7:	48 8b 85 48 f7 ff ff 	mov    -0x8b8(%rbp),%rax
    5bfe:	c6 00 fe             	movb   $0xfe,(%rax)
    5c01:	bf fe 00 00 00       	mov    $0xfe,%edi
    5c06:	e8 3a df ff ff       	callq  3b45 <safe_unary_minus_func_uint8_t_u>
    5c0b:	0f b7 05 12 64 00 00 	movzwl 0x6412(%rip),%eax        # c024 <g_17>
    5c12:	98                   	cwtl   
    5c13:	83 c0 01             	add    $0x1,%eax
    5c16:	48 98                	cltq   
    5c18:	48 8d 14 85 00 00 00 	lea    0x0(,%rax,4),%rdx
    5c1f:	00 
    5c20:	48 8d 05 19 64 00 00 	lea    0x6419(%rip),%rax        # c040 <g_120>
    5c27:	8b 04 02             	mov    (%rdx,%rax,1),%eax
    5c2a:	0f b7 15 f3 63 00 00 	movzwl 0x63f3(%rip),%edx        # c024 <g_17>
    5c31:	0f bf d2             	movswl %dx,%edx
    5c34:	83 c2 01             	add    $0x1,%edx
    5c37:	0d 59 38 35 4c       	or     $0x4c353859,%eax
    5c3c:	89 c1                	mov    %eax,%ecx
    5c3e:	48 63 c2             	movslq %edx,%rax
    5c41:	48 8d 14 85 00 00 00 	lea    0x0(,%rax,4),%rdx
    5c48:	00 
    5c49:	48 8d 05 f0 63 00 00 	lea    0x63f0(%rip),%rax        # c040 <g_120>
    5c50:	89 0c 02             	mov    %ecx,(%rdx,%rax,1)
    5c53:	48 8b 85 70 f7 ff ff 	mov    -0x890(%rbp),%rax
    5c5a:	48 3b 85 80 f7 ff ff 	cmp    -0x880(%rbp),%rax
    5c61:	0f 95 c0             	setne  %al
    5c64:	0f b6 c0             	movzbl %al,%eax
    5c67:	4c 63 e8             	movslq %eax,%r13
    5c6a:	0f b6 05 0f 64 00 00 	movzbl 0x640f(%rip),%eax        # c080 <g_274>
    5c71:	0f be d8             	movsbl %al,%ebx
    5c74:	8b 85 1c f6 ff ff    	mov    -0x9e4(%rbp),%eax
    5c7a:	44 0f b7 e0          	movzwl %ax,%r12d
    5c7e:	48 8b 85 a0 f5 ff ff 	mov    -0xa60(%rbp),%rax
    5c85:	0f b7 00             	movzwl (%rax),%eax
    5c88:	98                   	cwtl   
    5c89:	25 b5 6c 00 00       	and    $0x6cb5,%eax
    5c8e:	89 c2                	mov    %eax,%edx
    5c90:	8b 85 b4 f5 ff ff    	mov    -0xa4c(%rbp),%eax
    5c96:	89 c6                	mov    %eax,%esi
    5c98:	89 d7                	mov    %edx,%edi
    5c9a:	e8 17 d9 ff ff       	callq  35b6 <safe_add_func_int32_t_s_s>
    5c9f:	83 f0 4b             	xor    $0x4b,%eax
    5ca2:	3d e8 00 00 00       	cmp    $0xe8,%eax
    5ca7:	0f 9e c0             	setle  %al
    5caa:	0f b6 c0             	movzbl %al,%eax
    5cad:	44 89 e6             	mov    %r12d,%esi
    5cb0:	89 c7                	mov    %eax,%edi
    5cb2:	e8 86 e0 ff ff       	callq  3d3d <safe_mul_func_uint16_t_u_u>
    5cb7:	be 02 00 00 00       	mov    $0x2,%esi
    5cbc:	bf 01 00 00 00       	mov    $0x1,%edi
    5cc1:	e8 c7 df ff ff       	callq  3c8d <safe_rshift_func_uint8_t_u_s>
    5cc6:	0f b6 c0             	movzbl %al,%eax
    5cc9:	33 85 b4 f5 ff ff    	xor    -0xa4c(%rbp),%eax
    5ccf:	39 85 14 f6 ff ff    	cmp    %eax,-0x9ec(%rbp)
    5cd5:	0f 9c c0             	setl   %al
    5cd8:	0f b6 c0             	movzbl %al,%eax
    5cdb:	89 de                	mov    %ebx,%esi
    5cdd:	89 c7                	mov    %eax,%edi
    5cdf:	e8 86 d5 ff ff       	callq  326a <safe_div_func_int8_t_s_s>
    5ce4:	48 0f be c0          	movsbq %al,%rax
    5ce8:	25 a3 e5 00 00       	and    $0xe5a3,%eax
    5ced:	49 39 c5             	cmp    %rax,%r13
    5cf0:	48 8b 05 99 6b 00 00 	mov    0x6b99(%rip),%rax        # c890 <g_310>
    5cf7:	48 8b 00             	mov    (%rax),%rax
    5cfa:	8b 95 b4 f5 ff ff    	mov    -0xa4c(%rbp),%edx
    5d00:	89 10                	mov    %edx,(%rax)
    5d02:	e9 8f 01 00 00       	jmpq   5e96 <func_31+0x9d1>
    5d07:	c7 85 20 f6 ff ff c1 	movl   $0xba7764c1,-0x9e0(%rbp)
    5d0e:	64 77 ba 
    5d11:	8b 05 79 76 00 00    	mov    0x7679(%rip),%eax        # d390 <g_24>
    5d17:	85 c0                	test   %eax,%eax
    5d19:	0f 84 3d 01 00 00    	je     5e5c <func_31+0x997>
    5d1f:	8b 9d b4 f5 ff ff    	mov    -0xa4c(%rbp),%ebx
    5d25:	44 8b a5 18 f6 ff ff 	mov    -0x9e8(%rbp),%r12d
    5d2c:	48 8b 05 55 6b 00 00 	mov    0x6b55(%rip),%rax        # c888 <g_145>
    5d33:	0f b6 05 66 76 00 00 	movzbl 0x7666(%rip),%eax        # d3a0 <g_295>
    5d3a:	0f b6 c0             	movzbl %al,%eax
    5d3d:	0f b6 15 5c 76 00 00 	movzbl 0x765c(%rip),%edx        # d3a0 <g_295>
    5d44:	0f b6 d2             	movzbl %dl,%edx
    5d47:	48 63 ca             	movslq %edx,%rcx
    5d4a:	48 63 d0             	movslq %eax,%rdx
    5d4d:	48 89 d0             	mov    %rdx,%rax
    5d50:	48 01 c0             	add    %rax,%rax
    5d53:	48 01 d0             	add    %rdx,%rax
    5d56:	48 01 c8             	add    %rcx,%rax
    5d59:	48 8d 14 00          	lea    (%rax,%rax,1),%rdx
    5d5d:	48 8d 05 6c 63 00 00 	lea    0x636c(%rip),%rax        # c0d0 <g_358>
    5d64:	0f b7 04 02          	movzwl (%rdx,%rax,1),%eax
    5d68:	0f bf d0             	movswl %ax,%edx
    5d6b:	48 8b 05 f6 62 00 00 	mov    0x62f6(%rip),%rax        # c068 <g_146>
    5d72:	48 8d 0c 85 00 00 00 	lea    0x0(,%rax,4),%rcx
    5d79:	00 
    5d7a:	48 8d 05 bf 62 00 00 	lea    0x62bf(%rip),%rax        # c040 <g_120>
    5d81:	8b 04 01             	mov    (%rcx,%rax,1),%eax
    5d84:	98                   	cwtl   
    5d85:	89 d6                	mov    %edx,%esi
    5d87:	89 c7                	mov    %eax,%edi
    5d89:	e8 53 d7 ff ff       	callq  34e1 <safe_lshift_func_int16_t_s_u>
    5d8e:	8b 85 b4 f5 ff ff    	mov    -0xa4c(%rbp),%eax
    5d94:	be cd 36 b9 62       	mov    $0x62b936cd,%esi
    5d99:	89 c7                	mov    %eax,%edi
    5d9b:	e8 85 e1 ff ff       	callq  3f25 <safe_div_func_uint32_t_u_u>
    5da0:	0f b7 d0             	movzwl %ax,%edx
    5da3:	48 8b 05 be 62 00 00 	mov    0x62be(%rip),%rax        # c068 <g_146>
    5daa:	0f b7 c0             	movzwl %ax,%eax
    5dad:	89 d6                	mov    %edx,%esi
    5daf:	89 c7                	mov    %eax,%edi
    5db1:	e8 d8 df ff ff       	callq  3d8e <safe_div_func_uint16_t_u_u>
    5db6:	0f b7 d0             	movzwl %ax,%edx
    5db9:	8b 85 04 f8 ff ff    	mov    -0x7fc(%rbp),%eax
    5dbf:	39 c2                	cmp    %eax,%edx
    5dc1:	0f 9f c0             	setg   %al
    5dc4:	0f b6 c0             	movzbl %al,%eax
    5dc7:	44 89 e6             	mov    %r12d,%esi
    5dca:	89 c7                	mov    %eax,%edi
    5dcc:	e8 a9 e0 ff ff       	callq  3e7a <safe_rshift_func_uint16_t_u_u>
    5dd1:	66 83 f8 01          	cmp    $0x1,%ax
    5dd5:	0f 95 c0             	setne  %al
    5dd8:	0f b6 d0             	movzbl %al,%edx
    5ddb:	48 8b 85 a0 f5 ff ff 	mov    -0xa60(%rbp),%rax
    5de2:	66 89 10             	mov    %dx,(%rax)
    5de5:	b8 01 00 00 00       	mov    $0x1,%eax
    5dea:	48 63 d0             	movslq %eax,%rdx
    5ded:	48 8b 05 84 6a 00 00 	mov    0x6a84(%rip),%rax        # c878 <g_127>
    5df4:	0f b7 00             	movzwl (%rax),%eax
    5df7:	98                   	cwtl   
    5df8:	89 85 1c f6 ff ff    	mov    %eax,-0x9e4(%rbp)
    5dfe:	83 bd 1c f6 ff ff 00 	cmpl   $0x0,-0x9e4(%rbp)
    5e05:	74 16                	je     5e1d <func_31+0x958>
    5e07:	48 8b 05 6a 6a 00 00 	mov    0x6a6a(%rip),%rax        # c878 <g_127>
    5e0e:	0f b7 00             	movzwl (%rax),%eax
    5e11:	66 85 c0             	test   %ax,%ax
    5e14:	74 07                	je     5e1d <func_31+0x958>
    5e16:	b8 01 00 00 00       	mov    $0x1,%eax
    5e1b:	eb 05                	jmp    5e22 <func_31+0x95d>
    5e1d:	b8 00 00 00 00       	mov    $0x0,%eax
    5e22:	48 98                	cltq   
    5e24:	48 89 d6             	mov    %rdx,%rsi
    5e27:	48 89 c7             	mov    %rax,%rdi
    5e2a:	e8 ff e1 ff ff       	callq  402e <safe_add_func_uint64_t_u_u>
    5e2f:	48 89 c2             	mov    %rax,%rdx
    5e32:	48 8b 05 57 6a 00 00 	mov    0x6a57(%rip),%rax        # c890 <g_310>
    5e39:	48 8b 00             	mov    (%rax),%rax
    5e3c:	89 10                	mov    %edx,(%rax)
    5e3e:	8b 00                	mov    (%rax),%eax
    5e40:	be 9e d6 8a 22       	mov    $0x228ad69e,%esi
    5e45:	89 c7                	mov    %eax,%edi
    5e47:	e8 b9 d7 ff ff       	callq  3605 <safe_sub_func_int32_t_s_s>
    5e4c:	89 de                	mov    %ebx,%esi
    5e4e:	89 c7                	mov    %eax,%edi
    5e50:	e8 7b e0 ff ff       	callq  3ed0 <safe_sub_func_uint32_t_u_u>
    5e55:	b8 01 00 00 00       	mov    $0x1,%eax
    5e5a:	eb 05                	jmp    5e61 <func_31+0x99c>
    5e5c:	b8 00 00 00 00       	mov    $0x0,%eax
    5e61:	0f b6 c0             	movzbl %al,%eax
    5e64:	be 02 00 00 00       	mov    $0x2,%esi
    5e69:	89 c7                	mov    %eax,%edi
    5e6b:	e8 4e de ff ff       	callq  3cbe <safe_rshift_func_uint8_t_u_u>
    5e70:	0f b6 c0             	movzbl %al,%eax
    5e73:	89 85 20 f6 ff ff    	mov    %eax,-0x9e0(%rbp)
    5e79:	48 8b 05 10 6a 00 00 	mov    0x6a10(%rip),%rax        # c890 <g_310>
    5e80:	48 8b 00             	mov    (%rax),%rax
    5e83:	c7 00 21 72 1c c4    	movl   $0xc41c7221,(%rax)
    5e89:	48 8b 85 50 f6 ff ff 	mov    -0x9b0(%rbp),%rax
    5e90:	e9 cb 20 00 00       	jmpq   7f60 <func_31+0x2a9b>
    5e95:	90                   	nop
    5e96:	48 8b 05 cb 61 00 00 	mov    0x61cb(%rip),%rax        # c068 <g_146>
    5e9d:	48 83 c0 01          	add    $0x1,%rax
    5ea1:	48 89 05 c0 61 00 00 	mov    %rax,0x61c0(%rip)        # c068 <g_146>
    5ea8:	48 8b 05 b9 61 00 00 	mov    0x61b9(%rip),%rax        # c068 <g_146>
    5eaf:	48 83 f8 07          	cmp    $0x7,%rax
    5eb3:	0f 86 79 fb ff ff    	jbe    5a32 <func_31+0x56d>
    5eb9:	48 8b 85 58 f6 ff ff 	mov    -0x9a8(%rbp),%rax
    5ec0:	e9 9b 20 00 00       	jmpq   7f60 <func_31+0x2a9b>
    5ec5:	48 8b 05 c4 69 00 00 	mov    0x69c4(%rip),%rax        # c890 <g_310>
    5ecc:	48 8b 00             	mov    (%rax),%rax
    5ecf:	8b 00                	mov    (%rax),%eax
    5ed1:	85 c0                	test   %eax,%eax
    5ed3:	75 21                	jne    5ef6 <func_31+0xa31>
    5ed5:	0f b6 05 c4 74 00 00 	movzbl 0x74c4(%rip),%eax        # d3a0 <g_295>
    5edc:	83 c0 01             	add    $0x1,%eax
    5edf:	88 05 bb 74 00 00    	mov    %al,0x74bb(%rip)        # d3a0 <g_295>
    5ee5:	0f b6 05 b4 74 00 00 	movzbl 0x74b4(%rip),%eax        # d3a0 <g_295>
    5eec:	3c 02                	cmp    $0x2,%al
    5eee:	0f 86 8f fa ff ff    	jbe    5983 <func_31+0x4be>
    5ef4:	eb 01                	jmp    5ef7 <func_31+0xa32>
    5ef6:	90                   	nop
    5ef7:	48 8b 85 50 f7 ff ff 	mov    -0x8b0(%rbp),%rax
    5efe:	c7 00 00 00 00 00    	movl   $0x0,(%rax)
    5f04:	8b 1d 4e 61 00 00    	mov    0x614e(%rip),%ebx        # c058 <g_120+0x18>
    5f0a:	48 8b 05 77 69 00 00 	mov    0x6977(%rip),%rax        # c888 <g_145>
    5f11:	48 8b 10             	mov    (%rax),%rdx
    5f14:	48 8d 4a 01          	lea    0x1(%rdx),%rcx
    5f18:	48 89 08             	mov    %rcx,(%rax)
    5f1b:	48 8b 85 50 f7 ff ff 	mov    -0x8b0(%rbp),%rax
    5f22:	8b 00                	mov    (%rax),%eax
    5f24:	89 c1                	mov    %eax,%ecx
    5f26:	89 d0                	mov    %edx,%eax
    5f28:	31 c8                	xor    %ecx,%eax
    5f2a:	89 c2                	mov    %eax,%edx
    5f2c:	48 8b 85 50 f7 ff ff 	mov    -0x8b0(%rbp),%rax
    5f33:	89 10                	mov    %edx,(%rax)
    5f35:	48 8b 85 50 f7 ff ff 	mov    -0x8b0(%rbp),%rax
    5f3c:	44 8b 20             	mov    (%rax),%r12d
    5f3f:	48 8b 85 28 f6 ff ff 	mov    -0x9d8(%rbp),%rax
    5f46:	0f bf d0             	movswl %ax,%edx
    5f49:	48 8b 85 58 f7 ff ff 	mov    -0x8a8(%rbp),%rax
    5f50:	8b 8d b4 f5 ff ff    	mov    -0xa4c(%rbp),%ecx
    5f56:	89 08                	mov    %ecx,(%rax)
    5f58:	48 8b 85 58 f7 ff ff 	mov    -0x8a8(%rbp),%rax
    5f5f:	8b 00                	mov    (%rax),%eax
    5f61:	85 c0                	test   %eax,%eax
    5f63:	0f 95 c0             	setne  %al
    5f66:	0f b6 c0             	movzbl %al,%eax
    5f69:	89 d6                	mov    %edx,%esi
    5f6b:	89 c7                	mov    %eax,%edi
    5f6d:	e8 83 d4 ff ff       	callq  33f5 <safe_mul_func_int16_t_s_s>
    5f72:	0f bf d0             	movswl %ax,%edx
    5f75:	48 8b 85 28 f6 ff ff 	mov    -0x9d8(%rbp),%rax
    5f7c:	89 85 e0 f5 ff ff    	mov    %eax,-0xa20(%rbp)
    5f82:	8b 85 e0 f5 ff ff    	mov    -0xa20(%rbp),%eax
    5f88:	48 63 c8             	movslq %eax,%rcx
    5f8b:	48 8b 85 28 f6 ff ff 	mov    -0x9d8(%rbp),%rax
    5f92:	48 39 c1             	cmp    %rax,%rcx
    5f95:	0f 94 c0             	sete   %al
    5f98:	0f b6 c0             	movzbl %al,%eax
    5f9b:	39 c2                	cmp    %eax,%edx
    5f9d:	0f 95 c0             	setne  %al
    5fa0:	0f b6 c0             	movzbl %al,%eax
    5fa3:	f7 d0                	not    %eax
    5fa5:	89 c2                	mov    %eax,%edx
    5fa7:	48 8b 85 60 f7 ff ff 	mov    -0x8a0(%rbp),%rax
    5fae:	0f b6 00             	movzbl (%rax),%eax
    5fb1:	21 c2                	and    %eax,%edx
    5fb3:	48 8b 85 60 f7 ff ff 	mov    -0x8a0(%rbp),%rax
    5fba:	88 10                	mov    %dl,(%rax)
    5fbc:	48 8b 85 60 f7 ff ff 	mov    -0x8a0(%rbp),%rax
    5fc3:	0f b6 00             	movzbl (%rax),%eax
    5fc6:	0f be d0             	movsbl %al,%edx
    5fc9:	8b 85 b4 f5 ff ff    	mov    -0xa4c(%rbp),%eax
    5fcf:	48 63 c8             	movslq %eax,%rcx
    5fd2:	48 8b 85 28 f6 ff ff 	mov    -0x9d8(%rbp),%rax
    5fd9:	48 39 c1             	cmp    %rax,%rcx
    5fdc:	0f 93 c0             	setae  %al
    5fdf:	0f b6 c0             	movzbl %al,%eax
    5fe2:	31 d0                	xor    %edx,%eax
    5fe4:	89 85 e4 f5 ff ff    	mov    %eax,-0xa1c(%rbp)
    5fea:	be 15 2f 00 00       	mov    $0x2f15,%esi
    5fef:	bf 19 bd 00 00       	mov    $0xbd19,%edi
    5ff4:	e8 26 dd ff ff       	callq  3d1f <safe_sub_func_uint16_t_u_u>
    5ff9:	0f b7 c0             	movzwl %ax,%eax
    5ffc:	41 39 c4             	cmp    %eax,%r12d
    5fff:	0f 9c c0             	setl   %al
    6002:	0f b6 c0             	movzbl %al,%eax
    6005:	89 de                	mov    %ebx,%esi
    6007:	89 c7                	mov    %eax,%edi
    6009:	e8 5e d3 ff ff       	callq  336c <safe_rshift_func_int8_t_s_u>
    600e:	48 8b 95 68 f7 ff ff 	mov    -0x898(%rbp),%rdx
    6015:	8b 12                	mov    (%rdx),%edx
    6017:	0f be c0             	movsbl %al,%eax
    601a:	21 c2                	and    %eax,%edx
    601c:	48 8b 85 68 f7 ff ff 	mov    -0x898(%rbp),%rax
    6023:	89 10                	mov    %edx,(%rax)
    6025:	e9 2b 1c 00 00       	jmpq   7c55 <func_31+0x2790>
    602a:	c7 85 00 f6 ff ff 01 	movl   $0x1,-0xa00(%rbp)
    6031:	00 00 00 
    6034:	48 8d 05 5d 68 00 00 	lea    0x685d(%rip),%rax        # c898 <g_538>
    603b:	48 89 85 70 f6 ff ff 	mov    %rax,-0x990(%rbp)
    6042:	c7 85 04 f6 ff ff ff 	movl   $0xffffffff,-0x9fc(%rbp)
    6049:	ff ff ff 
    604c:	66 c7 85 d6 f5 ff ff 	movw   $0xffff,-0xa2a(%rbp)
    6053:	ff ff 
    6055:	c7 85 e8 f5 ff ff b1 	movl   $0x39b72b1,-0xa18(%rbp)
    605c:	72 9b 03 
    605f:	48 8d 85 60 f8 ff ff 	lea    -0x7a0(%rbp),%rax
    6066:	48 83 c0 40          	add    $0x40,%rax
    606a:	48 89 85 78 f6 ff ff 	mov    %rax,-0x988(%rbp)
    6071:	66 c7 05 b6 5f 00 00 	movw   $0xffe4,0x5fb6(%rip)        # c030 <g_93>
    6078:	e4 ff 
    607a:	e9 c5 1b 00 00       	jmpq   7c44 <func_31+0x277f>
    607f:	48 8d 85 28 f6 ff ff 	lea    -0x9d8(%rbp),%rax
    6086:	48 89 85 30 f6 ff ff 	mov    %rax,-0x9d0(%rbp)
    608d:	48 8d 05 e4 5f 00 00 	lea    0x5fe4(%rip),%rax        # c078 <g_175>
    6094:	48 89 85 80 f6 ff ff 	mov    %rax,-0x980(%rbp)
    609b:	c7 85 ec f5 ff ff 01 	movl   $0x1,-0xa14(%rbp)
    60a2:	00 00 00 
    60a5:	48 8d 05 40 60 00 00 	lea    0x6040(%rip),%rax        # c0ec <g_446>
    60ac:	48 89 85 f0 f7 ff ff 	mov    %rax,-0x810(%rbp)
    60b3:	48 8d 05 32 60 00 00 	lea    0x6032(%rip),%rax        # c0ec <g_446>
    60ba:	48 89 85 f8 f7 ff ff 	mov    %rax,-0x808(%rbp)
    60c1:	48 8d 05 d8 72 00 00 	lea    0x72d8(%rip),%rax        # d3a0 <g_295>
    60c8:	48 89 85 00 f8 ff ff 	mov    %rax,-0x800(%rbp)
    60cf:	48 8d 05 16 60 00 00 	lea    0x6016(%rip),%rax        # c0ec <g_446>
    60d6:	48 89 85 08 f8 ff ff 	mov    %rax,-0x7f8(%rbp)
    60dd:	48 8d 05 08 60 00 00 	lea    0x6008(%rip),%rax        # c0ec <g_446>
    60e4:	48 89 85 10 f8 ff ff 	mov    %rax,-0x7f0(%rbp)
    60eb:	48 8d 05 ae 72 00 00 	lea    0x72ae(%rip),%rax        # d3a0 <g_295>
    60f2:	48 89 85 18 f8 ff ff 	mov    %rax,-0x7e8(%rbp)
    60f9:	48 c7 85 38 f6 ff ff 	movq   $0x0,-0x9c8(%rbp)
    6100:	00 00 00 00 
    6104:	48 c7 85 88 f6 ff ff 	movq   $0x0,-0x978(%rbp)
    610b:	00 00 00 00 
    610f:	c6 85 cf f5 ff ff 07 	movb   $0x7,-0xa31(%rbp)
    6116:	48 c7 85 90 f6 ff ff 	movq   $0x0,-0x970(%rbp)
    611d:	00 00 00 00 
    6121:	c7 85 b0 f7 ff ff 9a 	movl   $0x93b7df9a,-0x850(%rbp)
    6128:	df b7 93 
    612b:	c7 85 b4 f7 ff ff 9a 	movl   $0x93b7df9a,-0x84c(%rbp)
    6132:	df b7 93 
    6135:	c7 85 b8 f7 ff ff 9a 	movl   $0x93b7df9a,-0x848(%rbp)
    613c:	df b7 93 
    613f:	c7 85 bc f7 ff ff 9a 	movl   $0x93b7df9a,-0x844(%rbp)
    6146:	df b7 93 
    6149:	c7 85 c0 f7 ff ff 9a 	movl   $0x93b7df9a,-0x840(%rbp)
    6150:	df b7 93 
    6153:	c7 85 c4 f7 ff ff 9a 	movl   $0x93b7df9a,-0x83c(%rbp)
    615a:	df b7 93 
    615d:	c6 85 d0 f5 ff ff ff 	movb   $0xff,-0xa30(%rbp)
    6164:	8b 85 b4 f5 ff ff    	mov    -0xa4c(%rbp),%eax
    616a:	44 0f be e0          	movsbl %al,%r12d
    616e:	48 8b 05 1b 67 00 00 	mov    0x671b(%rip),%rax        # c890 <g_310>
    6175:	48 8b 18             	mov    (%rax),%rbx
    6178:	8b 85 b4 f5 ff ff    	mov    -0xa4c(%rbp),%eax
    617e:	0f be c0             	movsbl %al,%eax
    6181:	be 03 00 00 00       	mov    $0x3,%esi
    6186:	89 c7                	mov    %eax,%edi
    6188:	e8 61 d1 ff ff       	callq  32ee <safe_lshift_func_int8_t_s_u>
    618d:	44 0f be e8          	movsbl %al,%r13d
    6191:	48 8b 05 10 72 00 00 	mov    0x7210(%rip),%rax        # d3a8 <g_353>
    6198:	c7 85 00 f6 ff ff c3 	movl   $0xc5057fc3,-0xa00(%rbp)
    619f:	7f 05 c5 
    61a2:	8b 85 e4 f5 ff ff    	mov    -0xa1c(%rbp),%eax
    61a8:	48 98                	cltq   
    61aa:	48 c7 c6 c3 7f 05 c5 	mov    $0xffffffffc5057fc3,%rsi
    61b1:	48 89 c7             	mov    %rax,%rdi
    61b4:	e8 75 de ff ff       	callq  402e <safe_add_func_uint64_t_u_u>
    61b9:	48 8b 15 d8 71 00 00 	mov    0x71d8(%rip),%rdx        # d398 <g_179>
    61c0:	48 89 15 d1 71 00 00 	mov    %rdx,0x71d1(%rip)        # d398 <g_179>
    61c7:	48 8b 0d ca 71 00 00 	mov    0x71ca(%rip),%rcx        # d398 <g_179>
    61ce:	48 8b 15 cb 66 00 00 	mov    0x66cb(%rip),%rdx        # c8a0 <g_537>
    61d5:	48 39 d1             	cmp    %rdx,%rcx
    61d8:	0f 95 c2             	setne  %dl
    61db:	0f b6 ca             	movzbl %dl,%ecx
    61de:	8b 95 e4 f5 ff ff    	mov    -0xa1c(%rbp),%edx
    61e4:	31 ca                	xor    %ecx,%edx
    61e6:	48 63 d2             	movslq %edx,%rdx
    61e9:	83 e2 01             	and    $0x1,%edx
    61ec:	48 31 c2             	xor    %rax,%rdx
    61ef:	48 8b 85 30 f6 ff ff 	mov    -0x9d0(%rbp),%rax
    61f6:	48 b9 09 5f 5b 6b e1 	movabs $0xa2f085e16b5b5f09,%rcx
    61fd:	85 f0 a2 
    6200:	48 89 08             	mov    %rcx,(%rax)
    6203:	48 8b 00             	mov    (%rax),%rax
    6206:	48 89 d6             	mov    %rdx,%rsi
    6209:	48 89 c7             	mov    %rax,%rdi
    620c:	e8 1d de ff ff       	callq  402e <safe_add_func_uint64_t_u_u>
    6211:	44 89 ea             	mov    %r13d,%edx
    6214:	21 c2                	and    %eax,%edx
    6216:	48 8b 85 80 f6 ff ff 	mov    -0x980(%rbp),%rax
    621d:	89 10                	mov    %edx,(%rax)
    621f:	48 8b 85 80 f6 ff ff 	mov    -0x980(%rbp),%rax
    6226:	8b 00                	mov    (%rax),%eax
    6228:	4c 8b 2d 61 66 00 00 	mov    0x6661(%rip),%r13        # c890 <g_310>
    622f:	44 89 e2             	mov    %r12d,%edx
    6232:	48 89 de             	mov    %rbx,%rsi
    6235:	89 c7                	mov    %eax,%edi
    6237:	e8 f7 f1 ff ff       	callq  5433 <func_9>
    623c:	49 89 45 00          	mov    %rax,0x0(%r13)
    6240:	0f b7 05 8b 5e 00 00 	movzwl 0x5e8b(%rip),%eax        # c0d2 <g_358+0x2>
    6247:	44 0f bf e0          	movswl %ax,%r12d
    624b:	0f b7 05 98 5e 00 00 	movzwl 0x5e98(%rip),%eax        # c0ea <g_359+0x2>
    6252:	44 0f b7 e8          	movzwl %ax,%r13d
    6256:	0f b7 05 77 5e 00 00 	movzwl 0x5e77(%rip),%eax        # c0d4 <g_358+0x4>
    625d:	0f be d8             	movsbl %al,%ebx
    6260:	48 8b 05 f9 65 00 00 	mov    0x65f9(%rip),%rax        # c860 <g_18>
    6267:	0f b7 00             	movzwl (%rax),%eax
    626a:	66 85 c0             	test   %ax,%ax
    626d:	75 14                	jne    6283 <func_31+0xdbe>
    626f:	be 4e 6c 00 00       	mov    $0x6c4e,%esi
    6274:	bf fa 86 ff ff       	mov    $0xffff86fa,%edi
    6279:	e8 77 d1 ff ff       	callq  33f5 <safe_mul_func_int16_t_s_s>
    627e:	66 85 c0             	test   %ax,%ax
    6281:	74 07                	je     628a <func_31+0xdc5>
    6283:	b8 01 00 00 00       	mov    $0x1,%eax
    6288:	eb 05                	jmp    628f <func_31+0xdca>
    628a:	b8 00 00 00 00       	mov    $0x0,%eax
    628f:	0f b7 c0             	movzwl %ax,%eax
    6292:	89 c6                	mov    %eax,%esi
    6294:	bf f8 ff 00 00       	mov    $0xfff8,%edi
    6299:	e8 9f da ff ff       	callq  3d3d <safe_mul_func_uint16_t_u_u>
    629e:	0f b7 d0             	movzwl %ax,%edx
    62a1:	8b 85 ec f5 ff ff    	mov    -0xa14(%rbp),%eax
    62a7:	39 c2                	cmp    %eax,%edx
    62a9:	0f 95 c0             	setne  %al
    62ac:	0f b6 c0             	movzbl %al,%eax
    62af:	89 de                	mov    %ebx,%esi
    62b1:	89 c7                	mov    %eax,%edi
    62b3:	e8 1c cf ff ff       	callq  31d4 <safe_add_func_int8_t_s_s>
    62b8:	88 05 e2 70 00 00    	mov    %al,0x70e2(%rip)        # d3a0 <g_295>
    62be:	0f b6 05 db 70 00 00 	movzbl 0x70db(%rip),%eax        # d3a0 <g_295>
    62c5:	0f b6 c0             	movzbl %al,%eax
    62c8:	be 01 00 00 00       	mov    $0x1,%esi
    62cd:	89 c7                	mov    %eax,%edi
    62cf:	e8 86 d8 ff ff       	callq  3b5a <safe_add_func_uint8_t_u_u>
    62d4:	0f b6 d0             	movzbl %al,%edx
    62d7:	48 8b 05 82 65 00 00 	mov    0x6582(%rip),%rax        # c860 <g_18>
    62de:	0f b7 00             	movzwl (%rax),%eax
    62e1:	98                   	cwtl   
    62e2:	39 c2                	cmp    %eax,%edx
    62e4:	0f 9e c0             	setle  %al
    62e7:	0f b6 c0             	movzbl %al,%eax
    62ea:	44 21 e8             	and    %r13d,%eax
    62ed:	89 85 ec f5 ff ff    	mov    %eax,-0xa14(%rbp)
    62f3:	8b 85 ec f5 ff ff    	mov    -0xa14(%rbp),%eax
    62f9:	41 39 c4             	cmp    %eax,%r12d
    62fc:	0f 95 c0             	setne  %al
    62ff:	0f b6 c0             	movzbl %al,%eax
    6302:	39 85 b4 f5 ff ff    	cmp    %eax,-0xa4c(%rbp)
    6308:	48 8b 05 81 65 00 00 	mov    0x6581(%rip),%rax        # c890 <g_310>
    630f:	48 8b 10             	mov    (%rax),%rdx
    6312:	48 8b 05 77 65 00 00 	mov    0x6577(%rip),%rax        # c890 <g_310>
    6319:	48 8b 00             	mov    (%rax),%rax
    631c:	8b 12                	mov    (%rdx),%edx
    631e:	89 10                	mov    %edx,(%rax)
    6320:	8b 00                	mov    (%rax),%eax
    6322:	85 c0                	test   %eax,%eax
    6324:	0f 84 d9 14 00 00    	je     7803 <func_31+0x233e>
    632a:	48 8d 85 30 f6 ff ff 	lea    -0x9d0(%rbp),%rax
    6331:	48 89 85 10 f7 ff ff 	mov    %rax,-0x8f0(%rbp)
    6338:	48 8d 05 7d 5d 00 00 	lea    0x5d7d(%rip),%rax        # c0bc <g_326+0x1c>
    633f:	48 89 85 40 f6 ff ff 	mov    %rax,-0x9c0(%rbp)
    6346:	c6 85 d1 f5 ff ff d2 	movb   $0xd2,-0xa2f(%rbp)
    634d:	c7 85 f4 f5 ff ff 00 	movl   $0x0,-0xa0c(%rbp)
    6354:	00 00 00 
    6357:	eb 1a                	jmp    6373 <func_31+0xeae>
    6359:	8b 85 f4 f5 ff ff    	mov    -0xa0c(%rbp),%eax
    635f:	48 98                	cltq   
    6361:	c7 84 85 a4 f7 ff ff 	movl   $0x375b232,-0x85c(%rbp,%rax,4)
    6368:	32 b2 75 03 
    636c:	83 85 f4 f5 ff ff 01 	addl   $0x1,-0xa0c(%rbp)
    6373:	83 bd f4 f5 ff ff 02 	cmpl   $0x2,-0xa0c(%rbp)
    637a:	7e dd                	jle    6359 <func_31+0xe94>
    637c:	8b 85 e0 f5 ff ff    	mov    -0xa20(%rbp),%eax
    6382:	0f b7 d8             	movzwl %ax,%ebx
    6385:	c7 85 ec f5 ff ff 01 	movl   $0x1,-0xa14(%rbp)
    638c:	00 00 00 
    638f:	48 8b 05 0a 65 00 00 	mov    0x650a(%rip),%rax        # c8a0 <g_537>
    6396:	48 8b 00             	mov    (%rax),%rax
    6399:	4c 8b 20             	mov    (%rax),%r12
    639c:	8b 85 00 f6 ff ff    	mov    -0xa00(%rbp),%eax
    63a2:	44 0f b6 e8          	movzbl %al,%r13d
    63a6:	0f b7 05 77 5c 00 00 	movzwl 0x5c77(%rip),%eax        # c024 <g_17>
    63ad:	0f be d0             	movsbl %al,%edx
    63b0:	0f b7 05 31 5d 00 00 	movzwl 0x5d31(%rip),%eax        # c0e8 <g_359>
    63b7:	66 85 c0             	test   %ax,%ax
    63ba:	74 07                	je     63c3 <func_31+0xefe>
    63bc:	b8 01 00 00 00       	mov    $0x1,%eax
    63c1:	eb 05                	jmp    63c8 <func_31+0xf03>
    63c3:	b8 00 00 00 00       	mov    $0x0,%eax
    63c8:	83 e0 fe             	and    $0xfffffffe,%eax
    63cb:	0f be c0             	movsbl %al,%eax
    63ce:	89 d6                	mov    %edx,%esi
    63d0:	89 c7                	mov    %eax,%edi
    63d2:	e8 1b ce ff ff       	callq  31f2 <safe_sub_func_int8_t_s_s>
    63d7:	0f b6 c0             	movzbl %al,%eax
    63da:	44 89 ee             	mov    %r13d,%esi
    63dd:	89 c7                	mov    %eax,%edi
    63df:	e8 76 d7 ff ff       	callq  3b5a <safe_add_func_uint8_t_u_u>
    63e4:	8b 05 da 5c 00 00    	mov    0x5cda(%rip),%eax        # c0c4 <g_352>
    63ea:	89 c2                	mov    %eax,%edx
    63ec:	8b 85 b4 f5 ff ff    	mov    -0xa4c(%rbp),%eax
    63f2:	21 d0                	and    %edx,%eax
    63f4:	0f b6 c0             	movzbl %al,%eax
    63f7:	89 c7                	mov    %eax,%edi
    63f9:	e8 47 d7 ff ff       	callq  3b45 <safe_unary_minus_func_uint8_t_u>
    63fe:	3c 8a                	cmp    $0x8a,%al
    6400:	0f 96 c0             	setbe  %al
    6403:	0f b6 c0             	movzbl %al,%eax
    6406:	4c 89 e6             	mov    %r12,%rsi
    6409:	48 89 c7             	mov    %rax,%rdi
    640c:	e8 6f dc ff ff       	callq  4080 <safe_mod_func_uint64_t_u_u>
    6411:	48 ba 50 ef 09 4c 9f 	movabs $0xd080039f4c09ef50,%rdx
    6418:	03 80 d0 
    641b:	48 39 d0             	cmp    %rdx,%rax
    641e:	0f 97 c0             	seta   %al
    6421:	0f b6 d0             	movzbl %al,%edx
    6424:	48 83 bd 10 f7 ff ff 	cmpq   $0x0,-0x8f0(%rbp)
    642b:	00 
    642c:	0f 95 c1             	setne  %cl
    642f:	48 8b 85 40 f6 ff ff 	mov    -0x9c0(%rbp),%rax
    6436:	0f b6 c9             	movzbl %cl,%ecx
    6439:	89 08                	mov    %ecx,(%rax)
    643b:	0f b7 05 e2 5b 00 00 	movzwl 0x5be2(%rip),%eax        # c024 <g_17>
    6442:	88 05 58 6f 00 00    	mov    %al,0x6f58(%rip)        # d3a0 <g_295>
    6448:	8b 05 7a 5c 00 00    	mov    0x5c7a(%rip),%eax        # c0c8 <g_356>
    644e:	0f be c0             	movsbl %al,%eax
    6451:	89 d6                	mov    %edx,%esi
    6453:	89 c7                	mov    %eax,%edi
    6455:	e8 98 cd ff ff       	callq  31f2 <safe_sub_func_int8_t_s_s>
    645a:	66 98                	cbtw   
    645c:	0f b7 c0             	movzwl %ax,%eax
    645f:	89 de                	mov    %ebx,%esi
    6461:	89 c7                	mov    %eax,%edi
    6463:	e8 d5 d8 ff ff       	callq  3d3d <safe_mul_func_uint16_t_u_u>
    6468:	66 85 c0             	test   %ax,%ax
    646b:	75 45                	jne    64b2 <func_31+0xfed>
    646d:	48 8b 05 14 64 00 00 	mov    0x6414(%rip),%rax        # c888 <g_145>
    6474:	48 8b 08             	mov    (%rax),%rcx
    6477:	8b 95 b4 f5 ff ff    	mov    -0xa4c(%rbp),%edx
    647d:	48 63 d2             	movslq %edx,%rdx
    6480:	48 09 ca             	or     %rcx,%rdx
    6483:	48 89 10             	mov    %rdx,(%rax)
    6486:	48 8b 00             	mov    (%rax),%rax
    6489:	48 85 c0             	test   %rax,%rax
    648c:	74 11                	je     649f <func_31+0xfda>
    648e:	8b 85 ac f7 ff ff    	mov    -0x854(%rbp),%eax
    6494:	85 c0                	test   %eax,%eax
    6496:	74 07                	je     649f <func_31+0xfda>
    6498:	ba 01 00 00 00       	mov    $0x1,%edx
    649d:	eb 05                	jmp    64a4 <func_31+0xfdf>
    649f:	ba 00 00 00 00       	mov    $0x0,%edx
    64a4:	48 8b 05 dd 6e 00 00 	mov    0x6edd(%rip),%rax        # d388 <g_20>
    64ab:	89 10                	mov    %edx,(%rax)
    64ad:	e9 ac 16 00 00       	jmpq   7b5e <func_31+0x2699>
    64b2:	48 8d 05 7b 5b 00 00 	lea    0x5b7b(%rip),%rax        # c034 <g_116>
    64b9:	48 89 85 18 f7 ff ff 	mov    %rax,-0x8e8(%rbp)
    64c0:	48 c7 85 c0 f8 ff ff 	movq   $0x0,-0x740(%rbp)
    64c7:	00 00 00 00 
    64cb:	48 8d 05 aa 5b 00 00 	lea    0x5baa(%rip),%rax        # c07c <g_192>
    64d2:	48 89 85 c8 f8 ff ff 	mov    %rax,-0x738(%rbp)
    64d9:	48 8d 85 a4 f7 ff ff 	lea    -0x85c(%rbp),%rax
    64e0:	48 83 c0 08          	add    $0x8,%rax
    64e4:	48 89 85 d0 f8 ff ff 	mov    %rax,-0x730(%rbp)
    64eb:	48 8d 85 a4 f7 ff ff 	lea    -0x85c(%rbp),%rax
    64f2:	48 83 c0 08          	add    $0x8,%rax
    64f6:	48 89 85 d8 f8 ff ff 	mov    %rax,-0x728(%rbp)
    64fd:	48 8d 85 e0 f5 ff ff 	lea    -0xa20(%rbp),%rax
    6504:	48 89 85 e0 f8 ff ff 	mov    %rax,-0x720(%rbp)
    650b:	48 8d 85 e4 f5 ff ff 	lea    -0xa1c(%rbp),%rax
    6512:	48 89 85 e8 f8 ff ff 	mov    %rax,-0x718(%rbp)
    6519:	48 8d 05 5c 5b 00 00 	lea    0x5b5c(%rip),%rax        # c07c <g_192>
    6520:	48 89 85 f0 f8 ff ff 	mov    %rax,-0x710(%rbp)
    6527:	48 8d 85 ec f5 ff ff 	lea    -0xa14(%rbp),%rax
    652e:	48 89 85 f8 f8 ff ff 	mov    %rax,-0x708(%rbp)
    6535:	48 8d 85 ec f5 ff ff 	lea    -0xa14(%rbp),%rax
    653c:	48 89 85 00 f9 ff ff 	mov    %rax,-0x700(%rbp)
    6543:	48 c7 85 08 f9 ff ff 	movq   $0x0,-0x6f8(%rbp)
    654a:	00 00 00 00 
    654e:	48 8d 85 ec f5 ff ff 	lea    -0xa14(%rbp),%rax
    6555:	48 89 85 10 f9 ff ff 	mov    %rax,-0x6f0(%rbp)
    655c:	48 8d 85 ec f5 ff ff 	lea    -0xa14(%rbp),%rax
    6563:	48 89 85 18 f9 ff ff 	mov    %rax,-0x6e8(%rbp)
    656a:	48 c7 85 20 f9 ff ff 	movq   $0x0,-0x6e0(%rbp)
    6571:	00 00 00 00 
    6575:	48 8d 85 a4 f7 ff ff 	lea    -0x85c(%rbp),%rax
    657c:	48 83 c0 08          	add    $0x8,%rax
    6580:	48 89 85 28 f9 ff ff 	mov    %rax,-0x6d8(%rbp)
    6587:	48 8d 85 a4 f7 ff ff 	lea    -0x85c(%rbp),%rax
    658e:	48 83 c0 08          	add    $0x8,%rax
    6592:	48 89 85 30 f9 ff ff 	mov    %rax,-0x6d0(%rbp)
    6599:	48 8d 85 ec f5 ff ff 	lea    -0xa14(%rbp),%rax
    65a0:	48 89 85 38 f9 ff ff 	mov    %rax,-0x6c8(%rbp)
    65a7:	48 8d 05 ce 5a 00 00 	lea    0x5ace(%rip),%rax        # c07c <g_192>
    65ae:	48 89 85 40 f9 ff ff 	mov    %rax,-0x6c0(%rbp)
    65b5:	48 8d 85 e0 f5 ff ff 	lea    -0xa20(%rbp),%rax
    65bc:	48 89 85 48 f9 ff ff 	mov    %rax,-0x6b8(%rbp)
    65c3:	48 8d 05 b2 5a 00 00 	lea    0x5ab2(%rip),%rax        # c07c <g_192>
    65ca:	48 89 85 50 f9 ff ff 	mov    %rax,-0x6b0(%rbp)
    65d1:	48 8d 85 a4 f7 ff ff 	lea    -0x85c(%rbp),%rax
    65d8:	48 83 c0 08          	add    $0x8,%rax
    65dc:	48 89 85 58 f9 ff ff 	mov    %rax,-0x6a8(%rbp)
    65e3:	48 8d 85 e0 f5 ff ff 	lea    -0xa20(%rbp),%rax
    65ea:	48 89 85 60 f9 ff ff 	mov    %rax,-0x6a0(%rbp)
    65f1:	48 c7 85 68 f9 ff ff 	movq   $0x0,-0x698(%rbp)
    65f8:	00 00 00 00 
    65fc:	48 8d 85 e4 f5 ff ff 	lea    -0xa1c(%rbp),%rax
    6603:	48 89 85 70 f9 ff ff 	mov    %rax,-0x690(%rbp)
    660a:	48 8d 05 7f 6d 00 00 	lea    0x6d7f(%rip),%rax        # d390 <g_24>
    6611:	48 89 85 78 f9 ff ff 	mov    %rax,-0x688(%rbp)
    6618:	48 8d 85 e0 f5 ff ff 	lea    -0xa20(%rbp),%rax
    661f:	48 89 85 80 f9 ff ff 	mov    %rax,-0x680(%rbp)
    6626:	48 8d 85 e0 f5 ff ff 	lea    -0xa20(%rbp),%rax
    662d:	48 89 85 88 f9 ff ff 	mov    %rax,-0x678(%rbp)
    6634:	48 8d 85 e0 f5 ff ff 	lea    -0xa20(%rbp),%rax
    663b:	48 89 85 90 f9 ff ff 	mov    %rax,-0x670(%rbp)
    6642:	48 8d 85 a4 f7 ff ff 	lea    -0x85c(%rbp),%rax
    6649:	48 83 c0 04          	add    $0x4,%rax
    664d:	48 89 85 98 f9 ff ff 	mov    %rax,-0x668(%rbp)
    6654:	48 8d 85 a4 f7 ff ff 	lea    -0x85c(%rbp),%rax
    665b:	48 83 c0 08          	add    $0x8,%rax
    665f:	48 89 85 a0 f9 ff ff 	mov    %rax,-0x660(%rbp)
    6666:	48 8d 85 e0 f5 ff ff 	lea    -0xa20(%rbp),%rax
    666d:	48 89 85 a8 f9 ff ff 	mov    %rax,-0x658(%rbp)
    6674:	48 8d 85 a4 f7 ff ff 	lea    -0x85c(%rbp),%rax
    667b:	48 83 c0 08          	add    $0x8,%rax
    667f:	48 89 85 b0 f9 ff ff 	mov    %rax,-0x650(%rbp)
    6686:	48 8d 85 e0 f5 ff ff 	lea    -0xa20(%rbp),%rax
    668d:	48 89 85 b8 f9 ff ff 	mov    %rax,-0x648(%rbp)
    6694:	48 8d 85 a4 f7 ff ff 	lea    -0x85c(%rbp),%rax
    669b:	48 83 c0 04          	add    $0x4,%rax
    669f:	48 89 85 c0 f9 ff ff 	mov    %rax,-0x640(%rbp)
    66a6:	48 8d 85 ec f5 ff ff 	lea    -0xa14(%rbp),%rax
    66ad:	48 89 85 c8 f9 ff ff 	mov    %rax,-0x638(%rbp)
    66b4:	48 8d 85 e0 f5 ff ff 	lea    -0xa20(%rbp),%rax
    66bb:	48 89 85 d0 f9 ff ff 	mov    %rax,-0x630(%rbp)
    66c2:	48 8d 85 a4 f7 ff ff 	lea    -0x85c(%rbp),%rax
    66c9:	48 83 c0 08          	add    $0x8,%rax
    66cd:	48 89 85 d8 f9 ff ff 	mov    %rax,-0x628(%rbp)
    66d4:	48 8d 85 e0 f5 ff ff 	lea    -0xa20(%rbp),%rax
    66db:	48 89 85 e0 f9 ff ff 	mov    %rax,-0x620(%rbp)
    66e2:	48 8d 85 ec f5 ff ff 	lea    -0xa14(%rbp),%rax
    66e9:	48 89 85 e8 f9 ff ff 	mov    %rax,-0x618(%rbp)
    66f0:	48 c7 85 f0 f9 ff ff 	movq   $0x0,-0x610(%rbp)
    66f7:	00 00 00 00 
    66fb:	48 c7 85 f8 f9 ff ff 	movq   $0x0,-0x608(%rbp)
    6702:	00 00 00 00 
    6706:	48 8d 05 83 6c 00 00 	lea    0x6c83(%rip),%rax        # d390 <g_24>
    670d:	48 89 85 00 fa ff ff 	mov    %rax,-0x600(%rbp)
    6714:	48 8d 85 e0 f5 ff ff 	lea    -0xa20(%rbp),%rax
    671b:	48 89 85 08 fa ff ff 	mov    %rax,-0x5f8(%rbp)
    6722:	48 c7 85 10 fa ff ff 	movq   $0x0,-0x5f0(%rbp)
    6729:	00 00 00 00 
    672d:	48 8d 05 48 59 00 00 	lea    0x5948(%rip),%rax        # c07c <g_192>
    6734:	48 89 85 18 fa ff ff 	mov    %rax,-0x5e8(%rbp)
    673b:	48 8d 85 e4 f5 ff ff 	lea    -0xa1c(%rbp),%rax
    6742:	48 89 85 20 fa ff ff 	mov    %rax,-0x5e0(%rbp)
    6749:	48 8d 85 ec f5 ff ff 	lea    -0xa14(%rbp),%rax
    6750:	48 89 85 28 fa ff ff 	mov    %rax,-0x5d8(%rbp)
    6757:	48 8d 85 a4 f7 ff ff 	lea    -0x85c(%rbp),%rax
    675e:	48 83 c0 08          	add    $0x8,%rax
    6762:	48 89 85 30 fa ff ff 	mov    %rax,-0x5d0(%rbp)
    6769:	48 8d 85 e4 f5 ff ff 	lea    -0xa1c(%rbp),%rax
    6770:	48 89 85 38 fa ff ff 	mov    %rax,-0x5c8(%rbp)
    6777:	48 8d 05 fe 58 00 00 	lea    0x58fe(%rip),%rax        # c07c <g_192>
    677e:	48 89 85 40 fa ff ff 	mov    %rax,-0x5c0(%rbp)
    6785:	48 c7 85 48 fa ff ff 	movq   $0x0,-0x5b8(%rbp)
    678c:	00 00 00 00 
    6790:	48 8d 05 f9 6b 00 00 	lea    0x6bf9(%rip),%rax        # d390 <g_24>
    6797:	48 89 85 50 fa ff ff 	mov    %rax,-0x5b0(%rbp)
    679e:	48 8d 85 e4 f5 ff ff 	lea    -0xa1c(%rbp),%rax
    67a5:	48 89 85 58 fa ff ff 	mov    %rax,-0x5a8(%rbp)
    67ac:	48 8d 85 a4 f7 ff ff 	lea    -0x85c(%rbp),%rax
    67b3:	48 83 c0 08          	add    $0x8,%rax
    67b7:	48 89 85 60 fa ff ff 	mov    %rax,-0x5a0(%rbp)
    67be:	48 c7 85 68 fa ff ff 	movq   $0x0,-0x598(%rbp)
    67c5:	00 00 00 00 
    67c9:	48 8d 85 a4 f7 ff ff 	lea    -0x85c(%rbp),%rax
    67d0:	48 83 c0 04          	add    $0x4,%rax
    67d4:	48 89 85 70 fa ff ff 	mov    %rax,-0x590(%rbp)
    67db:	48 8d 85 ec f5 ff ff 	lea    -0xa14(%rbp),%rax
    67e2:	48 89 85 78 fa ff ff 	mov    %rax,-0x588(%rbp)
    67e9:	48 8d 85 a4 f7 ff ff 	lea    -0x85c(%rbp),%rax
    67f0:	48 83 c0 08          	add    $0x8,%rax
    67f4:	48 89 85 80 fa ff ff 	mov    %rax,-0x580(%rbp)
    67fb:	48 8d 05 7a 58 00 00 	lea    0x587a(%rip),%rax        # c07c <g_192>
    6802:	48 89 85 88 fa ff ff 	mov    %rax,-0x578(%rbp)
    6809:	48 8d 85 ec f5 ff ff 	lea    -0xa14(%rbp),%rax
    6810:	48 89 85 90 fa ff ff 	mov    %rax,-0x570(%rbp)
    6817:	48 c7 85 98 fa ff ff 	movq   $0x0,-0x568(%rbp)
    681e:	00 00 00 00 
    6822:	48 c7 85 a0 fa ff ff 	movq   $0x0,-0x560(%rbp)
    6829:	00 00 00 00 
    682d:	48 8d 05 48 58 00 00 	lea    0x5848(%rip),%rax        # c07c <g_192>
    6834:	48 89 85 a8 fa ff ff 	mov    %rax,-0x558(%rbp)
    683b:	48 8d 85 e4 f5 ff ff 	lea    -0xa1c(%rbp),%rax
    6842:	48 89 85 b0 fa ff ff 	mov    %rax,-0x550(%rbp)
    6849:	48 8d 85 a4 f7 ff ff 	lea    -0x85c(%rbp),%rax
    6850:	48 83 c0 08          	add    $0x8,%rax
    6854:	48 89 85 b8 fa ff ff 	mov    %rax,-0x548(%rbp)
    685b:	48 8d 85 e0 f5 ff ff 	lea    -0xa20(%rbp),%rax
    6862:	48 89 85 c0 fa ff ff 	mov    %rax,-0x540(%rbp)
    6869:	48 8d 05 0c 58 00 00 	lea    0x580c(%rip),%rax        # c07c <g_192>
    6870:	48 89 85 c8 fa ff ff 	mov    %rax,-0x538(%rbp)
    6877:	48 8d 85 e4 f5 ff ff 	lea    -0xa1c(%rbp),%rax
    687e:	48 89 85 d0 fa ff ff 	mov    %rax,-0x530(%rbp)
    6885:	48 8d 85 e4 f5 ff ff 	lea    -0xa1c(%rbp),%rax
    688c:	48 89 85 d8 fa ff ff 	mov    %rax,-0x528(%rbp)
    6893:	48 8d 05 f6 6a 00 00 	lea    0x6af6(%rip),%rax        # d390 <g_24>
    689a:	48 89 85 e0 fa ff ff 	mov    %rax,-0x520(%rbp)
    68a1:	48 8d 85 e0 f5 ff ff 	lea    -0xa20(%rbp),%rax
    68a8:	48 89 85 e8 fa ff ff 	mov    %rax,-0x518(%rbp)
    68af:	48 8d 05 c6 57 00 00 	lea    0x57c6(%rip),%rax        # c07c <g_192>
    68b6:	48 89 85 f0 fa ff ff 	mov    %rax,-0x510(%rbp)
    68bd:	48 8d 85 ec f5 ff ff 	lea    -0xa14(%rbp),%rax
    68c4:	48 89 85 f8 fa ff ff 	mov    %rax,-0x508(%rbp)
    68cb:	48 c7 85 00 fb ff ff 	movq   $0x0,-0x500(%rbp)
    68d2:	00 00 00 00 
    68d6:	48 8d 05 9f 57 00 00 	lea    0x579f(%rip),%rax        # c07c <g_192>
    68dd:	48 89 85 08 fb ff ff 	mov    %rax,-0x4f8(%rbp)
    68e4:	48 8d 85 a4 f7 ff ff 	lea    -0x85c(%rbp),%rax
    68eb:	48 83 c0 08          	add    $0x8,%rax
    68ef:	48 89 85 10 fb ff ff 	mov    %rax,-0x4f0(%rbp)
    68f6:	48 8d 85 a4 f7 ff ff 	lea    -0x85c(%rbp),%rax
    68fd:	48 83 c0 08          	add    $0x8,%rax
    6901:	48 89 85 18 fb ff ff 	mov    %rax,-0x4e8(%rbp)
    6908:	48 8d 05 81 6a 00 00 	lea    0x6a81(%rip),%rax        # d390 <g_24>
    690f:	48 89 85 20 fb ff ff 	mov    %rax,-0x4e0(%rbp)
    6916:	48 8d 05 5f 57 00 00 	lea    0x575f(%rip),%rax        # c07c <g_192>
    691d:	48 89 85 28 fb ff ff 	mov    %rax,-0x4d8(%rbp)
    6924:	48 8d 85 a4 f7 ff ff 	lea    -0x85c(%rbp),%rax
    692b:	48 83 c0 08          	add    $0x8,%rax
    692f:	48 89 85 30 fb ff ff 	mov    %rax,-0x4d0(%rbp)
    6936:	48 8d 05 3f 57 00 00 	lea    0x573f(%rip),%rax        # c07c <g_192>
    693d:	48 89 85 38 fb ff ff 	mov    %rax,-0x4c8(%rbp)
    6944:	48 c7 85 40 fb ff ff 	movq   $0x0,-0x4c0(%rbp)
    694b:	00 00 00 00 
    694f:	48 8d 85 e0 f5 ff ff 	lea    -0xa20(%rbp),%rax
    6956:	48 89 85 48 fb ff ff 	mov    %rax,-0x4b8(%rbp)
    695d:	48 8d 85 ec f5 ff ff 	lea    -0xa14(%rbp),%rax
    6964:	48 89 85 50 fb ff ff 	mov    %rax,-0x4b0(%rbp)
    696b:	48 8d 85 ec f5 ff ff 	lea    -0xa14(%rbp),%rax
    6972:	48 89 85 58 fb ff ff 	mov    %rax,-0x4a8(%rbp)
    6979:	48 8d 05 fc 56 00 00 	lea    0x56fc(%rip),%rax        # c07c <g_192>
    6980:	48 89 85 60 fb ff ff 	mov    %rax,-0x4a0(%rbp)
    6987:	48 8d 05 ee 56 00 00 	lea    0x56ee(%rip),%rax        # c07c <g_192>
    698e:	48 89 85 68 fb ff ff 	mov    %rax,-0x498(%rbp)
    6995:	48 c7 85 70 fb ff ff 	movq   $0x0,-0x490(%rbp)
    699c:	00 00 00 00 
    69a0:	48 8d 85 a4 f7 ff ff 	lea    -0x85c(%rbp),%rax
    69a7:	48 83 c0 08          	add    $0x8,%rax
    69ab:	48 89 85 78 fb ff ff 	mov    %rax,-0x488(%rbp)
    69b2:	48 8d 85 a4 f7 ff ff 	lea    -0x85c(%rbp),%rax
    69b9:	48 83 c0 08          	add    $0x8,%rax
    69bd:	48 89 85 80 fb ff ff 	mov    %rax,-0x480(%rbp)
    69c4:	48 c7 85 88 fb ff ff 	movq   $0x0,-0x478(%rbp)
    69cb:	00 00 00 00 
    69cf:	48 8d 85 e0 f5 ff ff 	lea    -0xa20(%rbp),%rax
    69d6:	48 89 85 90 fb ff ff 	mov    %rax,-0x470(%rbp)
    69dd:	48 8d 05 ac 69 00 00 	lea    0x69ac(%rip),%rax        # d390 <g_24>
    69e4:	48 89 85 98 fb ff ff 	mov    %rax,-0x468(%rbp)
    69eb:	48 c7 85 a0 fb ff ff 	movq   $0x0,-0x460(%rbp)
    69f2:	00 00 00 00 
    69f6:	48 8d 85 e4 f5 ff ff 	lea    -0xa1c(%rbp),%rax
    69fd:	48 89 85 a8 fb ff ff 	mov    %rax,-0x458(%rbp)
    6a04:	48 8d 05 85 69 00 00 	lea    0x6985(%rip),%rax        # d390 <g_24>
    6a0b:	48 89 85 b0 fb ff ff 	mov    %rax,-0x450(%rbp)
    6a12:	48 8d 85 a4 f7 ff ff 	lea    -0x85c(%rbp),%rax
    6a19:	48 83 c0 08          	add    $0x8,%rax
    6a1d:	48 89 85 b8 fb ff ff 	mov    %rax,-0x448(%rbp)
    6a24:	48 8d 85 e4 f5 ff ff 	lea    -0xa1c(%rbp),%rax
    6a2b:	48 89 85 c0 fb ff ff 	mov    %rax,-0x440(%rbp)
    6a32:	48 8d 85 e4 f5 ff ff 	lea    -0xa1c(%rbp),%rax
    6a39:	48 89 85 c8 fb ff ff 	mov    %rax,-0x438(%rbp)
    6a40:	48 c7 85 d0 fb ff ff 	movq   $0x0,-0x430(%rbp)
    6a47:	00 00 00 00 
    6a4b:	48 8d 85 a4 f7 ff ff 	lea    -0x85c(%rbp),%rax
    6a52:	48 83 c0 04          	add    $0x4,%rax
    6a56:	48 89 85 d8 fb ff ff 	mov    %rax,-0x428(%rbp)
    6a5d:	48 8d 85 ec f5 ff ff 	lea    -0xa14(%rbp),%rax
    6a64:	48 89 85 e0 fb ff ff 	mov    %rax,-0x420(%rbp)
    6a6b:	48 8d 85 a4 f7 ff ff 	lea    -0x85c(%rbp),%rax
    6a72:	48 83 c0 08          	add    $0x8,%rax
    6a76:	48 89 85 e8 fb ff ff 	mov    %rax,-0x418(%rbp)
    6a7d:	48 8d 85 ec f5 ff ff 	lea    -0xa14(%rbp),%rax
    6a84:	48 89 85 f0 fb ff ff 	mov    %rax,-0x410(%rbp)
    6a8b:	48 8d 05 fe 68 00 00 	lea    0x68fe(%rip),%rax        # d390 <g_24>
    6a92:	48 89 85 f8 fb ff ff 	mov    %rax,-0x408(%rbp)
    6a99:	48 8d 85 ec f5 ff ff 	lea    -0xa14(%rbp),%rax
    6aa0:	48 89 85 00 fc ff ff 	mov    %rax,-0x400(%rbp)
    6aa7:	48 8d 85 a4 f7 ff ff 	lea    -0x85c(%rbp),%rax
    6aae:	48 83 c0 08          	add    $0x8,%rax
    6ab2:	48 89 85 08 fc ff ff 	mov    %rax,-0x3f8(%rbp)
    6ab9:	48 8d 85 e0 f5 ff ff 	lea    -0xa20(%rbp),%rax
    6ac0:	48 89 85 10 fc ff ff 	mov    %rax,-0x3f0(%rbp)
    6ac7:	48 8d 85 a4 f7 ff ff 	lea    -0x85c(%rbp),%rax
    6ace:	48 83 c0 08          	add    $0x8,%rax
    6ad2:	48 89 85 18 fc ff ff 	mov    %rax,-0x3e8(%rbp)
    6ad9:	48 8d 05 9c 55 00 00 	lea    0x559c(%rip),%rax        # c07c <g_192>
    6ae0:	48 89 85 20 fc ff ff 	mov    %rax,-0x3e0(%rbp)
    6ae7:	48 8d 05 a2 68 00 00 	lea    0x68a2(%rip),%rax        # d390 <g_24>
    6aee:	48 89 85 28 fc ff ff 	mov    %rax,-0x3d8(%rbp)
    6af5:	48 8d 05 80 55 00 00 	lea    0x5580(%rip),%rax        # c07c <g_192>
    6afc:	48 89 85 30 fc ff ff 	mov    %rax,-0x3d0(%rbp)
    6b03:	48 c7 85 38 fc ff ff 	movq   $0x0,-0x3c8(%rbp)
    6b0a:	00 00 00 00 
    6b0e:	48 8d 85 ec f5 ff ff 	lea    -0xa14(%rbp),%rax
    6b15:	48 89 85 40 fc ff ff 	mov    %rax,-0x3c0(%rbp)
    6b1c:	48 c7 85 48 fc ff ff 	movq   $0x0,-0x3b8(%rbp)
    6b23:	00 00 00 00 
    6b27:	48 c7 85 50 fc ff ff 	movq   $0x0,-0x3b0(%rbp)
    6b2e:	00 00 00 00 
    6b32:	48 8d 85 ec f5 ff ff 	lea    -0xa14(%rbp),%rax
    6b39:	48 89 85 58 fc ff ff 	mov    %rax,-0x3a8(%rbp)
    6b40:	48 c7 85 60 fc ff ff 	movq   $0x0,-0x3a0(%rbp)
    6b47:	00 00 00 00 
    6b4b:	48 8d 05 2a 55 00 00 	lea    0x552a(%rip),%rax        # c07c <g_192>
    6b52:	48 89 85 68 fc ff ff 	mov    %rax,-0x398(%rbp)
    6b59:	48 8d 85 e0 f5 ff ff 	lea    -0xa20(%rbp),%rax
    6b60:	48 89 85 70 fc ff ff 	mov    %rax,-0x390(%rbp)
    6b67:	48 8d 85 e0 f5 ff ff 	lea    -0xa20(%rbp),%rax
    6b6e:	48 89 85 78 fc ff ff 	mov    %rax,-0x388(%rbp)
    6b75:	48 c7 85 80 fc ff ff 	movq   $0x0,-0x380(%rbp)
    6b7c:	00 00 00 00 
    6b80:	48 8d 85 ec f5 ff ff 	lea    -0xa14(%rbp),%rax
    6b87:	48 89 85 88 fc ff ff 	mov    %rax,-0x378(%rbp)
    6b8e:	48 8d 05 fb 67 00 00 	lea    0x67fb(%rip),%rax        # d390 <g_24>
    6b95:	48 89 85 90 fc ff ff 	mov    %rax,-0x370(%rbp)
    6b9c:	48 8d 85 e4 f5 ff ff 	lea    -0xa1c(%rbp),%rax
    6ba3:	48 89 85 98 fc ff ff 	mov    %rax,-0x368(%rbp)
    6baa:	48 8d 05 df 67 00 00 	lea    0x67df(%rip),%rax        # d390 <g_24>
    6bb1:	48 89 85 a0 fc ff ff 	mov    %rax,-0x360(%rbp)
    6bb8:	48 c7 85 a8 fc ff ff 	movq   $0x0,-0x358(%rbp)
    6bbf:	00 00 00 00 
    6bc3:	48 8d 05 c6 67 00 00 	lea    0x67c6(%rip),%rax        # d390 <g_24>
    6bca:	48 89 85 b0 fc ff ff 	mov    %rax,-0x350(%rbp)
    6bd1:	48 8d 85 e4 f5 ff ff 	lea    -0xa1c(%rbp),%rax
    6bd8:	48 89 85 b8 fc ff ff 	mov    %rax,-0x348(%rbp)
    6bdf:	48 8d 85 a4 f7 ff ff 	lea    -0x85c(%rbp),%rax
    6be6:	48 83 c0 08          	add    $0x8,%rax
    6bea:	48 89 85 c0 fc ff ff 	mov    %rax,-0x340(%rbp)
    6bf1:	48 8d 85 ec f5 ff ff 	lea    -0xa14(%rbp),%rax
    6bf8:	48 89 85 c8 fc ff ff 	mov    %rax,-0x338(%rbp)
    6bff:	48 8d 05 76 54 00 00 	lea    0x5476(%rip),%rax        # c07c <g_192>
    6c06:	48 89 85 d0 fc ff ff 	mov    %rax,-0x330(%rbp)
    6c0d:	48 8d 05 68 54 00 00 	lea    0x5468(%rip),%rax        # c07c <g_192>
    6c14:	48 89 85 d8 fc ff ff 	mov    %rax,-0x328(%rbp)
    6c1b:	48 8d 05 5a 54 00 00 	lea    0x545a(%rip),%rax        # c07c <g_192>
    6c22:	48 89 85 e0 fc ff ff 	mov    %rax,-0x320(%rbp)
    6c29:	48 8d 05 60 67 00 00 	lea    0x6760(%rip),%rax        # d390 <g_24>
    6c30:	48 89 85 e8 fc ff ff 	mov    %rax,-0x318(%rbp)
    6c37:	48 8d 85 e4 f5 ff ff 	lea    -0xa1c(%rbp),%rax
    6c3e:	48 89 85 f0 fc ff ff 	mov    %rax,-0x310(%rbp)
    6c45:	48 8d 85 ec f5 ff ff 	lea    -0xa14(%rbp),%rax
    6c4c:	48 89 85 f8 fc ff ff 	mov    %rax,-0x308(%rbp)
    6c53:	48 8d 85 e4 f5 ff ff 	lea    -0xa1c(%rbp),%rax
    6c5a:	48 89 85 00 fd ff ff 	mov    %rax,-0x300(%rbp)
    6c61:	48 8d 85 ec f5 ff ff 	lea    -0xa14(%rbp),%rax
    6c68:	48 89 85 08 fd ff ff 	mov    %rax,-0x2f8(%rbp)
    6c6f:	48 8d 85 a4 f7 ff ff 	lea    -0x85c(%rbp),%rax
    6c76:	48 83 c0 08          	add    $0x8,%rax
    6c7a:	48 89 85 10 fd ff ff 	mov    %rax,-0x2f0(%rbp)
    6c81:	48 8d 05 f4 53 00 00 	lea    0x53f4(%rip),%rax        # c07c <g_192>
    6c88:	48 89 85 18 fd ff ff 	mov    %rax,-0x2e8(%rbp)
    6c8f:	48 c7 85 20 fd ff ff 	movq   $0x0,-0x2e0(%rbp)
    6c96:	00 00 00 00 
    6c9a:	48 8d 05 db 53 00 00 	lea    0x53db(%rip),%rax        # c07c <g_192>
    6ca1:	48 89 85 28 fd ff ff 	mov    %rax,-0x2d8(%rbp)
    6ca8:	48 c7 85 30 fd ff ff 	movq   $0x0,-0x2d0(%rbp)
    6caf:	00 00 00 00 
    6cb3:	48 8d 85 ec f5 ff ff 	lea    -0xa14(%rbp),%rax
    6cba:	48 89 85 38 fd ff ff 	mov    %rax,-0x2c8(%rbp)
    6cc1:	48 8d 85 a4 f7 ff ff 	lea    -0x85c(%rbp),%rax
    6cc8:	48 83 c0 08          	add    $0x8,%rax
    6ccc:	48 89 85 40 fd ff ff 	mov    %rax,-0x2c0(%rbp)
    6cd3:	48 8d 85 e0 f5 ff ff 	lea    -0xa20(%rbp),%rax
    6cda:	48 89 85 48 fd ff ff 	mov    %rax,-0x2b8(%rbp)
    6ce1:	48 8d 85 e0 f5 ff ff 	lea    -0xa20(%rbp),%rax
    6ce8:	48 89 85 50 fd ff ff 	mov    %rax,-0x2b0(%rbp)
    6cef:	48 c7 85 58 fd ff ff 	movq   $0x0,-0x2a8(%rbp)
    6cf6:	00 00 00 00 
    6cfa:	48 8d 85 a4 f7 ff ff 	lea    -0x85c(%rbp),%rax
    6d01:	48 83 c0 08          	add    $0x8,%rax
    6d05:	48 89 85 60 fd ff ff 	mov    %rax,-0x2a0(%rbp)
    6d0c:	48 8d 85 e4 f5 ff ff 	lea    -0xa1c(%rbp),%rax
    6d13:	48 89 85 68 fd ff ff 	mov    %rax,-0x298(%rbp)
    6d1a:	48 8d 05 6f 66 00 00 	lea    0x666f(%rip),%rax        # d390 <g_24>
    6d21:	48 89 85 70 fd ff ff 	mov    %rax,-0x290(%rbp)
    6d28:	48 8d 05 4d 53 00 00 	lea    0x534d(%rip),%rax        # c07c <g_192>
    6d2f:	48 89 85 78 fd ff ff 	mov    %rax,-0x288(%rbp)
    6d36:	48 8d 05 53 66 00 00 	lea    0x6653(%rip),%rax        # d390 <g_24>
    6d3d:	48 89 85 80 fd ff ff 	mov    %rax,-0x280(%rbp)
    6d44:	48 8d 85 e0 f5 ff ff 	lea    -0xa20(%rbp),%rax
    6d4b:	48 89 85 88 fd ff ff 	mov    %rax,-0x278(%rbp)
    6d52:	48 8d 85 a4 f7 ff ff 	lea    -0x85c(%rbp),%rax
    6d59:	48 83 c0 08          	add    $0x8,%rax
    6d5d:	48 89 85 90 fd ff ff 	mov    %rax,-0x270(%rbp)
    6d64:	48 8d 05 11 53 00 00 	lea    0x5311(%rip),%rax        # c07c <g_192>
    6d6b:	48 89 85 98 fd ff ff 	mov    %rax,-0x268(%rbp)
    6d72:	48 8d 85 ec f5 ff ff 	lea    -0xa14(%rbp),%rax
    6d79:	48 89 85 a0 fd ff ff 	mov    %rax,-0x260(%rbp)
    6d80:	48 8d 05 09 66 00 00 	lea    0x6609(%rip),%rax        # d390 <g_24>
    6d87:	48 89 85 a8 fd ff ff 	mov    %rax,-0x258(%rbp)
    6d8e:	48 8d 85 e0 f5 ff ff 	lea    -0xa20(%rbp),%rax
    6d95:	48 89 85 b0 fd ff ff 	mov    %rax,-0x250(%rbp)
    6d9c:	48 8d 85 e0 f5 ff ff 	lea    -0xa20(%rbp),%rax
    6da3:	48 89 85 b8 fd ff ff 	mov    %rax,-0x248(%rbp)
    6daa:	48 8d 85 ec f5 ff ff 	lea    -0xa14(%rbp),%rax
    6db1:	48 89 85 c0 fd ff ff 	mov    %rax,-0x240(%rbp)
    6db8:	48 c7 85 c8 fd ff ff 	movq   $0x0,-0x238(%rbp)
    6dbf:	00 00 00 00 
    6dc3:	48 c7 85 d0 fd ff ff 	movq   $0x0,-0x230(%rbp)
    6dca:	00 00 00 00 
    6dce:	48 8d 05 a7 52 00 00 	lea    0x52a7(%rip),%rax        # c07c <g_192>
    6dd5:	48 89 85 d8 fd ff ff 	mov    %rax,-0x228(%rbp)
    6ddc:	48 8d 85 e0 f5 ff ff 	lea    -0xa20(%rbp),%rax
    6de3:	48 89 85 e0 fd ff ff 	mov    %rax,-0x220(%rbp)
    6dea:	48 8d 85 a4 f7 ff ff 	lea    -0x85c(%rbp),%rax
    6df1:	48 83 c0 08          	add    $0x8,%rax
    6df5:	48 89 85 e8 fd ff ff 	mov    %rax,-0x218(%rbp)
    6dfc:	48 8d 05 8d 65 00 00 	lea    0x658d(%rip),%rax        # d390 <g_24>
    6e03:	48 89 85 f0 fd ff ff 	mov    %rax,-0x210(%rbp)
    6e0a:	48 c7 85 f8 fd ff ff 	movq   $0x0,-0x208(%rbp)
    6e11:	00 00 00 00 
    6e15:	48 8d 05 60 52 00 00 	lea    0x5260(%rip),%rax        # c07c <g_192>
    6e1c:	48 89 85 00 fe ff ff 	mov    %rax,-0x200(%rbp)
    6e23:	48 8d 85 e0 f5 ff ff 	lea    -0xa20(%rbp),%rax
    6e2a:	48 89 85 08 fe ff ff 	mov    %rax,-0x1f8(%rbp)
    6e31:	48 c7 85 10 fe ff ff 	movq   $0x0,-0x1f0(%rbp)
    6e38:	00 00 00 00 
    6e3c:	48 8d 85 ec f5 ff ff 	lea    -0xa14(%rbp),%rax
    6e43:	48 89 85 18 fe ff ff 	mov    %rax,-0x1e8(%rbp)
    6e4a:	48 8d 85 ec f5 ff ff 	lea    -0xa14(%rbp),%rax
    6e51:	48 89 85 20 fe ff ff 	mov    %rax,-0x1e0(%rbp)
    6e58:	48 8d 85 e0 f5 ff ff 	lea    -0xa20(%rbp),%rax
    6e5f:	48 89 85 28 fe ff ff 	mov    %rax,-0x1d8(%rbp)
    6e66:	48 8d 85 e0 f5 ff ff 	lea    -0xa20(%rbp),%rax
    6e6d:	48 89 85 30 fe ff ff 	mov    %rax,-0x1d0(%rbp)
    6e74:	48 8d 85 e0 f5 ff ff 	lea    -0xa20(%rbp),%rax
    6e7b:	48 89 85 38 fe ff ff 	mov    %rax,-0x1c8(%rbp)
    6e82:	48 c7 85 40 fe ff ff 	movq   $0x0,-0x1c0(%rbp)
    6e89:	00 00 00 00 
    6e8d:	48 8d 05 e8 51 00 00 	lea    0x51e8(%rip),%rax        # c07c <g_192>
    6e94:	48 89 85 48 fe ff ff 	mov    %rax,-0x1b8(%rbp)
    6e9b:	48 8d 85 a4 f7 ff ff 	lea    -0x85c(%rbp),%rax
    6ea2:	48 83 c0 08          	add    $0x8,%rax
    6ea6:	48 89 85 50 fe ff ff 	mov    %rax,-0x1b0(%rbp)
    6ead:	48 c7 85 58 fe ff ff 	movq   $0x0,-0x1a8(%rbp)
    6eb4:	00 00 00 00 
    6eb8:	48 8d 05 d1 64 00 00 	lea    0x64d1(%rip),%rax        # d390 <g_24>
    6ebf:	48 89 85 60 fe ff ff 	mov    %rax,-0x1a0(%rbp)
    6ec6:	48 8d 85 e0 f5 ff ff 	lea    -0xa20(%rbp),%rax
    6ecd:	48 89 85 68 fe ff ff 	mov    %rax,-0x198(%rbp)
    6ed4:	48 8d 85 e4 f5 ff ff 	lea    -0xa1c(%rbp),%rax
    6edb:	48 89 85 70 fe ff ff 	mov    %rax,-0x190(%rbp)
    6ee2:	48 8d 05 93 51 00 00 	lea    0x5193(%rip),%rax        # c07c <g_192>
    6ee9:	48 89 85 78 fe ff ff 	mov    %rax,-0x188(%rbp)
    6ef0:	48 8d 05 85 51 00 00 	lea    0x5185(%rip),%rax        # c07c <g_192>
    6ef7:	48 89 85 80 fe ff ff 	mov    %rax,-0x180(%rbp)
    6efe:	48 c7 85 88 fe ff ff 	movq   $0x0,-0x178(%rbp)
    6f05:	00 00 00 00 
    6f09:	48 8d 05 6c 51 00 00 	lea    0x516c(%rip),%rax        # c07c <g_192>
    6f10:	48 89 85 90 fe ff ff 	mov    %rax,-0x170(%rbp)
    6f17:	48 8d 05 72 64 00 00 	lea    0x6472(%rip),%rax        # d390 <g_24>
    6f1e:	48 89 85 98 fe ff ff 	mov    %rax,-0x168(%rbp)
    6f25:	48 c7 85 a0 fe ff ff 	movq   $0x0,-0x160(%rbp)
    6f2c:	00 00 00 00 
    6f30:	48 8d 85 ec f5 ff ff 	lea    -0xa14(%rbp),%rax
    6f37:	48 89 85 a8 fe ff ff 	mov    %rax,-0x158(%rbp)
    6f3e:	48 8d 85 ec f5 ff ff 	lea    -0xa14(%rbp),%rax
    6f45:	48 89 85 b0 fe ff ff 	mov    %rax,-0x150(%rbp)
    6f4c:	48 8d 05 3d 64 00 00 	lea    0x643d(%rip),%rax        # d390 <g_24>
    6f53:	48 89 85 b8 fe ff ff 	mov    %rax,-0x148(%rbp)
    6f5a:	48 8d 05 1b 51 00 00 	lea    0x511b(%rip),%rax        # c07c <g_192>
    6f61:	48 89 85 c0 fe ff ff 	mov    %rax,-0x140(%rbp)
    6f68:	48 8d 85 a4 f7 ff ff 	lea    -0x85c(%rbp),%rax
    6f6f:	48 83 c0 04          	add    $0x4,%rax
    6f73:	48 89 85 c8 fe ff ff 	mov    %rax,-0x138(%rbp)
    6f7a:	48 8d 05 fb 50 00 00 	lea    0x50fb(%rip),%rax        # c07c <g_192>
    6f81:	48 89 85 d0 fe ff ff 	mov    %rax,-0x130(%rbp)
    6f88:	48 8d 05 ed 50 00 00 	lea    0x50ed(%rip),%rax        # c07c <g_192>
    6f8f:	48 89 85 d8 fe ff ff 	mov    %rax,-0x128(%rbp)
    6f96:	48 8d 85 a4 f7 ff ff 	lea    -0x85c(%rbp),%rax
    6f9d:	48 89 85 e0 fe ff ff 	mov    %rax,-0x120(%rbp)
    6fa4:	48 8d 85 ec f5 ff ff 	lea    -0xa14(%rbp),%rax
    6fab:	48 89 85 e8 fe ff ff 	mov    %rax,-0x118(%rbp)
    6fb2:	48 8d 85 a4 f7 ff ff 	lea    -0x85c(%rbp),%rax
    6fb9:	48 89 85 f0 fe ff ff 	mov    %rax,-0x110(%rbp)
    6fc0:	48 8d 05 b5 50 00 00 	lea    0x50b5(%rip),%rax        # c07c <g_192>
    6fc7:	48 89 85 f8 fe ff ff 	mov    %rax,-0x108(%rbp)
    6fce:	48 8d 85 a4 f7 ff ff 	lea    -0x85c(%rbp),%rax
    6fd5:	48 89 85 00 ff ff ff 	mov    %rax,-0x100(%rbp)
    6fdc:	48 8d 05 99 50 00 00 	lea    0x5099(%rip),%rax        # c07c <g_192>
    6fe3:	48 89 85 08 ff ff ff 	mov    %rax,-0xf8(%rbp)
    6fea:	48 8d 85 a4 f7 ff ff 	lea    -0x85c(%rbp),%rax
    6ff1:	48 83 c0 08          	add    $0x8,%rax
    6ff5:	48 89 85 10 ff ff ff 	mov    %rax,-0xf0(%rbp)
    6ffc:	48 8d 85 ec f5 ff ff 	lea    -0xa14(%rbp),%rax
    7003:	48 89 85 18 ff ff ff 	mov    %rax,-0xe8(%rbp)
    700a:	48 8d 85 e4 f5 ff ff 	lea    -0xa1c(%rbp),%rax
    7011:	48 89 85 20 ff ff ff 	mov    %rax,-0xe0(%rbp)
    7018:	48 8d 85 e4 f5 ff ff 	lea    -0xa1c(%rbp),%rax
    701f:	48 89 85 28 ff ff ff 	mov    %rax,-0xd8(%rbp)
    7026:	48 8d 85 a4 f7 ff ff 	lea    -0x85c(%rbp),%rax
    702d:	48 83 c0 04          	add    $0x4,%rax
    7031:	48 89 85 30 ff ff ff 	mov    %rax,-0xd0(%rbp)
    7038:	48 8d 85 ec f5 ff ff 	lea    -0xa14(%rbp),%rax
    703f:	48 89 85 38 ff ff ff 	mov    %rax,-0xc8(%rbp)
    7046:	48 8d 85 a4 f7 ff ff 	lea    -0x85c(%rbp),%rax
    704d:	48 83 c0 08          	add    $0x8,%rax
    7051:	48 89 85 40 ff ff ff 	mov    %rax,-0xc0(%rbp)
    7058:	48 8d 85 a4 f7 ff ff 	lea    -0x85c(%rbp),%rax
    705f:	48 83 c0 08          	add    $0x8,%rax
    7063:	48 89 85 48 ff ff ff 	mov    %rax,-0xb8(%rbp)
    706a:	48 8d 05 0b 50 00 00 	lea    0x500b(%rip),%rax        # c07c <g_192>
    7071:	48 89 85 50 ff ff ff 	mov    %rax,-0xb0(%rbp)
    7078:	48 8d 85 a4 f7 ff ff 	lea    -0x85c(%rbp),%rax
    707f:	48 83 c0 08          	add    $0x8,%rax
    7083:	48 89 85 58 ff ff ff 	mov    %rax,-0xa8(%rbp)
    708a:	48 8d 85 e4 f5 ff ff 	lea    -0xa1c(%rbp),%rax
    7091:	48 89 85 60 ff ff ff 	mov    %rax,-0xa0(%rbp)
    7098:	48 8d 05 dd 4f 00 00 	lea    0x4fdd(%rip),%rax        # c07c <g_192>
    709f:	48 89 85 68 ff ff ff 	mov    %rax,-0x98(%rbp)
    70a6:	48 8d 85 e4 f5 ff ff 	lea    -0xa1c(%rbp),%rax
    70ad:	48 89 85 70 ff ff ff 	mov    %rax,-0x90(%rbp)
    70b4:	48 c7 85 78 ff ff ff 	movq   $0x0,-0x88(%rbp)
    70bb:	00 00 00 00 
    70bf:	48 8d 85 a4 f7 ff ff 	lea    -0x85c(%rbp),%rax
    70c6:	48 83 c0 08          	add    $0x8,%rax
    70ca:	48 89 45 80          	mov    %rax,-0x80(%rbp)
    70ce:	48 c7 45 88 00 00 00 	movq   $0x0,-0x78(%rbp)
    70d5:	00 
    70d6:	48 8d 05 b3 62 00 00 	lea    0x62b3(%rip),%rax        # d390 <g_24>
    70dd:	48 89 45 90          	mov    %rax,-0x70(%rbp)
    70e1:	48 8d 05 94 4f 00 00 	lea    0x4f94(%rip),%rax        # c07c <g_192>
    70e8:	48 89 45 98          	mov    %rax,-0x68(%rbp)
    70ec:	48 8d 85 e4 f5 ff ff 	lea    -0xa1c(%rbp),%rax
    70f3:	48 89 45 a0          	mov    %rax,-0x60(%rbp)
    70f7:	48 8d 85 a4 f7 ff ff 	lea    -0x85c(%rbp),%rax
    70fe:	48 83 c0 04          	add    $0x4,%rax
    7102:	48 89 45 a8          	mov    %rax,-0x58(%rbp)
    7106:	48 c7 45 b0 00 00 00 	movq   $0x0,-0x50(%rbp)
    710d:	00 
    710e:	48 c7 45 b8 00 00 00 	movq   $0x0,-0x48(%rbp)
    7115:	00 
    7116:	48 8d 05 5f 4f 00 00 	lea    0x4f5f(%rip),%rax        # c07c <g_192>
    711d:	48 89 45 c0          	mov    %rax,-0x40(%rbp)
    7121:	48 8d 05 00 4f 00 00 	lea    0x4f00(%rip),%rax        # c028 <g_85>
    7128:	48 89 85 48 f6 ff ff 	mov    %rax,-0x9b8(%rbp)
    712f:	48 8d 85 38 f6 ff ff 	lea    -0x9c8(%rbp),%rax
    7136:	48 89 85 20 f7 ff ff 	mov    %rax,-0x8e0(%rbp)
    713d:	48 8d 05 aa 4f 00 00 	lea    0x4faa(%rip),%rax        # c0ee <g_604>
    7144:	48 89 85 28 f7 ff ff 	mov    %rax,-0x8d8(%rbp)
    714b:	c6 85 d2 f5 ff ff 01 	movb   $0x1,-0xa2e(%rbp)
    7152:	c6 85 d3 f5 ff ff db 	movb   $0xdb,-0xa2d(%rbp)
    7159:	48 8b 05 30 57 00 00 	mov    0x5730(%rip),%rax        # c890 <g_310>
    7160:	48 8b 00             	mov    (%rax),%rax
    7163:	8b 10                	mov    (%rax),%edx
    7165:	48 8b 05 24 57 00 00 	mov    0x5724(%rip),%rax        # c890 <g_310>
    716c:	48 8b 00             	mov    (%rax),%rax
    716f:	81 f2 00 57 4d a9    	xor    $0xa94d5700,%edx
    7175:	89 10                	mov    %edx,(%rax)
    7177:	0f b7 05 b2 4e 00 00 	movzwl 0x4eb2(%rip),%eax        # c030 <g_93>
    717e:	0f bf d8             	movswl %ax,%ebx
    7181:	0f b6 05 18 62 00 00 	movzbl 0x6218(%rip),%eax        # d3a0 <g_295>
    7188:	8d 50 01             	lea    0x1(%rax),%edx
    718b:	88 15 0f 62 00 00    	mov    %dl,0x620f(%rip)        # d3a0 <g_295>
    7191:	89 c2                	mov    %eax,%edx
    7193:	8b 85 b4 f5 ff ff    	mov    -0xa4c(%rbp),%eax
    7199:	21 d0                	and    %edx,%eax
    719b:	0f b6 c0             	movzbl %al,%eax
    719e:	89 c6                	mov    %eax,%esi
    71a0:	bf 69 00 00 00       	mov    $0x69,%edi
    71a5:	e8 b0 c9 ff ff       	callq  3b5a <safe_add_func_uint8_t_u_u>
    71aa:	84 c0                	test   %al,%al
    71ac:	48 8b 05 dd 56 00 00 	mov    0x56dd(%rip),%rax        # c890 <g_310>
    71b3:	48 8b 00             	mov    (%rax),%rax
    71b6:	8b 10                	mov    (%rax),%edx
    71b8:	48 8b 05 c9 61 00 00 	mov    0x61c9(%rip),%rax        # d388 <g_20>
    71bf:	8b 00                	mov    (%rax),%eax
    71c1:	39 c2                	cmp    %eax,%edx
    71c3:	0f 94 c0             	sete   %al
    71c6:	0f b6 d0             	movzbl %al,%edx
    71c9:	8b 85 e0 f5 ff ff    	mov    -0xa20(%rbp),%eax
    71cf:	31 d0                	xor    %edx,%eax
    71d1:	89 85 e0 f5 ff ff    	mov    %eax,-0xa20(%rbp)
    71d7:	8b 95 ac f7 ff ff    	mov    -0x854(%rbp),%edx
    71dd:	48 8b 85 48 f6 ff ff 	mov    -0x9b8(%rbp),%rax
    71e4:	48 63 d2             	movslq %edx,%rdx
    71e7:	48 89 10             	mov    %rdx,(%rax)
    71ea:	48 8b 00             	mov    (%rax),%rax
    71ed:	89 c2                	mov    %eax,%edx
    71ef:	8b 85 b4 f5 ff ff    	mov    -0xa4c(%rbp),%eax
    71f5:	21 d0                	and    %edx,%eax
    71f7:	0f b7 c0             	movzwl %ax,%eax
    71fa:	be 04 00 00 00       	mov    $0x4,%esi
    71ff:	89 c7                	mov    %eax,%edi
    7201:	e8 74 cc ff ff       	callq  3e7a <safe_rshift_func_uint16_t_u_u>
    7206:	98                   	cwtl   
    7207:	89 de                	mov    %ebx,%esi
    7209:	89 c7                	mov    %eax,%edi
    720b:	e8 a3 c1 ff ff       	callq  33b3 <safe_add_func_int16_t_s_s>
    7210:	0f bf d8             	movswl %ax,%ebx
    7213:	8b 85 00 f6 ff ff    	mov    -0xa00(%rbp),%eax
    7219:	0f b7 d0             	movzwl %ax,%edx
    721c:	8b 85 ec f5 ff ff    	mov    -0xa14(%rbp),%eax
    7222:	0f b7 c0             	movzwl %ax,%eax
    7225:	89 d6                	mov    %edx,%esi
    7227:	89 c7                	mov    %eax,%edi
    7229:	e8 d1 ca ff ff       	callq  3cff <safe_add_func_uint16_t_u_u>
    722e:	98                   	cwtl   
    722f:	89 de                	mov    %ebx,%esi
    7231:	89 c7                	mov    %eax,%edi
    7233:	e8 f2 c2 ff ff       	callq  352a <safe_rshift_func_int16_t_s_s>
    7238:	83 bd b4 f5 ff ff 00 	cmpl   $0x0,-0xa4c(%rbp)
    723f:	75 10                	jne    7251 <func_31+0x1d8c>
    7241:	83 bd b4 f5 ff ff 00 	cmpl   $0x0,-0xa4c(%rbp)
    7248:	74 07                	je     7251 <func_31+0x1d8c>
    724a:	b8 01 00 00 00       	mov    $0x1,%eax
    724f:	eb 05                	jmp    7256 <func_31+0x1d91>
    7251:	b8 00 00 00 00       	mov    $0x0,%eax
    7256:	89 c1                	mov    %eax,%ecx
    7258:	48 8b 15 49 61 00 00 	mov    0x6149(%rip),%rdx        # d3a8 <g_353>
    725f:	48 8b 85 18 f7 ff ff 	mov    -0x8e8(%rbp),%rax
    7266:	8b 00                	mov    (%rax),%eax
    7268:	89 c6                	mov    %eax,%esi
    726a:	89 d0                	mov    %edx,%eax
    726c:	31 f0                	xor    %esi,%eax
    726e:	89 c2                	mov    %eax,%edx
    7270:	48 8b 85 18 f7 ff ff 	mov    -0x8e8(%rbp),%rax
    7277:	89 10                	mov    %edx,(%rax)
    7279:	48 8b 85 18 f7 ff ff 	mov    -0x8e8(%rbp),%rax
    7280:	8b 00                	mov    (%rax),%eax
    7282:	89 ce                	mov    %ecx,%esi
    7284:	89 c7                	mov    %eax,%edi
    7286:	e8 72 cc ff ff       	callq  3efd <safe_mod_func_uint32_t_u_u>
    728b:	48 83 bd 60 f6 ff ff 	cmpq   $0x0,-0x9a0(%rbp)
    7292:	00 
    7293:	0f 95 c0             	setne  %al
    7296:	0f b6 d0             	movzbl %al,%edx
    7299:	8b 05 29 4e 00 00    	mov    0x4e29(%rip),%eax        # c0c8 <g_356>
    729f:	39 c2                	cmp    %eax,%edx
    72a1:	0f 9c c0             	setl   %al
    72a4:	0f b6 d0             	movzbl %al,%edx
    72a7:	8b 85 a4 f7 ff ff    	mov    -0x85c(%rbp),%eax
    72ad:	39 c2                	cmp    %eax,%edx
    72af:	0f 94 c0             	sete   %al
    72b2:	0f b6 c0             	movzbl %al,%eax
    72b5:	be 02 00 00 00       	mov    $0x2,%esi
    72ba:	89 c7                	mov    %eax,%edi
    72bc:	e8 74 c0 ff ff       	callq  3335 <safe_rshift_func_int8_t_s_s>
    72c1:	48 0f be c0          	movsbq %al,%rax
    72c5:	48 be a6 9f 61 e0 dd 	movabs $0x8f0bcdde0619fa6,%rsi
    72cc:	bc f0 08 
    72cf:	48 89 c7             	mov    %rax,%rdi
    72d2:	e8 d1 c5 ff ff       	callq  38a8 <safe_sub_func_int64_t_s_s>
    72d7:	89 c2                	mov    %eax,%edx
    72d9:	48 8b 85 60 f6 ff ff 	mov    -0x9a0(%rbp),%rax
    72e0:	89 10                	mov    %edx,(%rax)
    72e2:	48 8b 85 20 f7 ff ff 	mov    -0x8e0(%rbp),%rax
    72e9:	48 8d 15 40 4d 00 00 	lea    0x4d40(%rip),%rdx        # c030 <g_93>
    72f0:	48 89 10             	mov    %rdx,(%rax)
    72f3:	48 8d 05 36 4d 00 00 	lea    0x4d36(%rip),%rax        # c030 <g_93>
    72fa:	48 39 85 a0 f5 ff ff 	cmp    %rax,-0xa60(%rbp)
    7301:	0f 95 c0             	setne  %al
    7304:	0f b6 d8             	movzbl %al,%ebx
    7307:	83 bd b4 f5 ff ff 00 	cmpl   $0x0,-0xa4c(%rbp)
    730e:	0f 84 84 00 00 00    	je     7398 <func_31+0x1ed3>
    7314:	8b 85 b4 f5 ff ff    	mov    -0xa4c(%rbp),%eax
    731a:	48 63 d0             	movslq %eax,%rdx
    731d:	48 8b 05 84 55 00 00 	mov    0x5584(%rip),%rax        # c8a8 <g_601>
    7324:	48 85 c0             	test   %rax,%rax
    7327:	48 8b 85 48 f6 ff ff 	mov    -0x9b8(%rbp),%rax
    732e:	48 c7 00 00 00 00 00 	movq   $0x0,(%rax)
    7335:	48 8b 00             	mov    (%rax),%rax
    7338:	48 39 c2             	cmp    %rax,%rdx
    733b:	0f 9f c0             	setg   %al
    733e:	0f b6 c0             	movzbl %al,%eax
    7341:	39 85 b4 f5 ff ff    	cmp    %eax,-0xa4c(%rbp)
    7347:	0f 94 c0             	sete   %al
    734a:	0f b6 d0             	movzbl %al,%edx
    734d:	0f b6 85 d1 f5 ff ff 	movzbl -0xa2f(%rbp),%eax
    7354:	83 e0 ae             	and    $0xffffffae,%eax
    7357:	0f be c0             	movsbl %al,%eax
    735a:	89 d6                	mov    %edx,%esi
    735c:	89 c7                	mov    %eax,%edi
    735e:	e8 8f be ff ff       	callq  31f2 <safe_sub_func_int8_t_s_s>
    7363:	0f be c0             	movsbl %al,%eax
    7366:	be 05 00 00 00       	mov    $0x5,%esi
    736b:	89 c7                	mov    %eax,%edi
    736d:	e8 fa bf ff ff       	callq  336c <safe_rshift_func_int8_t_s_u>
    7372:	48 8b 85 60 f6 ff ff 	mov    -0x9a0(%rbp),%rax
    7379:	8b 00                	mov    (%rax),%eax
    737b:	83 c8 01             	or     $0x1,%eax
    737e:	0f b6 c0             	movzbl %al,%eax
    7381:	be 00 00 00 00       	mov    $0x0,%esi
    7386:	89 c7                	mov    %eax,%edi
    7388:	e8 06 c8 ff ff       	callq  3b93 <safe_mul_func_uint8_t_u_u>
    738d:	84 c0                	test   %al,%al
    738f:	74 07                	je     7398 <func_31+0x1ed3>
    7391:	b8 01 00 00 00       	mov    $0x1,%eax
    7396:	eb 05                	jmp    739d <func_31+0x1ed8>
    7398:	b8 00 00 00 00       	mov    $0x0,%eax
    739d:	89 c2                	mov    %eax,%edx
    739f:	8b 85 b4 f5 ff ff    	mov    -0xa4c(%rbp),%eax
    73a5:	21 d0                	and    %edx,%eax
    73a7:	89 c2                	mov    %eax,%edx
    73a9:	48 8b 85 28 f7 ff ff 	mov    -0x8d8(%rbp),%rax
    73b0:	66 89 10             	mov    %dx,(%rax)
    73b3:	48 8b 85 28 f7 ff ff 	mov    -0x8d8(%rbp),%rax
    73ba:	0f b7 00             	movzwl (%rax),%eax
    73bd:	0f b7 c0             	movzwl %ax,%eax
    73c0:	39 c3                	cmp    %eax,%ebx
    73c2:	0f 9e c0             	setle  %al
    73c5:	0f b6 d0             	movzbl %al,%edx
    73c8:	0f b6 05 91 4c 00 00 	movzbl 0x4c91(%rip),%eax        # c060 <g_124>
    73cf:	0f be c0             	movsbl %al,%eax
    73d2:	39 c2                	cmp    %eax,%edx
    73d4:	0f 9d c0             	setge  %al
    73d7:	0f b6 d0             	movzbl %al,%edx
    73da:	48 8b 85 18 f7 ff ff 	mov    -0x8e8(%rbp),%rax
    73e1:	89 10                	mov    %edx,(%rax)
    73e3:	48 8b 85 18 f7 ff ff 	mov    -0x8e8(%rbp),%rax
    73ea:	8b 00                	mov    (%rax),%eax
    73ec:	8b 95 ec f5 ff ff    	mov    -0xa14(%rbp),%edx
    73f2:	39 d0                	cmp    %edx,%eax
    73f4:	0f 95 c0             	setne  %al
    73f7:	0f b6 d0             	movzbl %al,%edx
    73fa:	0f b6 05 7f 4c 00 00 	movzbl 0x4c7f(%rip),%eax        # c080 <g_274>
    7401:	0f be c0             	movsbl %al,%eax
    7404:	39 c2                	cmp    %eax,%edx
    7406:	0f 9c c0             	setl   %al
    7409:	0f b6 d0             	movzbl %al,%edx
    740c:	48 8b 05 65 54 00 00 	mov    0x5465(%rip),%rax        # c878 <g_127>
    7413:	0f b7 00             	movzwl (%rax),%eax
    7416:	98                   	cwtl   
    7417:	89 d6                	mov    %edx,%esi
    7419:	89 c7                	mov    %eax,%edi
    741b:	e8 72 c0 ff ff       	callq  3492 <safe_lshift_func_int16_t_s_s>
    7420:	0f bf d0             	movswl %ax,%edx
    7423:	8b 05 2b 4c 00 00    	mov    0x4c2b(%rip),%eax        # c054 <g_120+0x14>
    7429:	31 c2                	xor    %eax,%edx
    742b:	48 8b 05 5e 54 00 00 	mov    0x545e(%rip),%rax        # c890 <g_310>
    7432:	48 8b 00             	mov    (%rax),%rax
    7435:	8b 00                	mov    (%rax),%eax
    7437:	39 c2                	cmp    %eax,%edx
    7439:	0f 95 c2             	setne  %dl
    743c:	48 8b 05 4d 54 00 00 	mov    0x544d(%rip),%rax        # c890 <g_310>
    7443:	48 8b 00             	mov    (%rax),%rax
    7446:	0f b6 d2             	movzbl %dl,%edx
    7449:	89 10                	mov    %edx,(%rax)
    744b:	48 8b 05 36 5f 00 00 	mov    0x5f36(%rip),%rax        # d388 <g_20>
    7452:	8b 00                	mov    (%rax),%eax
    7454:	85 c0                	test   %eax,%eax
    7456:	0f 84 88 00 00 00    	je     74e4 <func_31+0x201f>
    745c:	c6 85 d5 f5 ff ff 49 	movb   $0x49,-0xa2b(%rbp)
    7463:	8b 85 b4 f5 ff ff    	mov    -0xa4c(%rbp),%eax
    7469:	0f be d8             	movsbl %al,%ebx
    746c:	80 bd d5 f5 ff ff 00 	cmpb   $0x0,-0xa2b(%rbp)
    7473:	0f 95 c0             	setne  %al
    7476:	0f b6 d0             	movzbl %al,%edx
    7479:	48 83 bd 68 f6 ff ff 	cmpq   $0x0,-0x998(%rbp)
    7480:	00 
    7481:	0f 95 c0             	setne  %al
    7484:	0f b6 c0             	movzbl %al,%eax
    7487:	c1 e8 1f             	shr    $0x1f,%eax
    748a:	0f b6 c0             	movzbl %al,%eax
    748d:	48 89 d6             	mov    %rdx,%rsi
    7490:	48 89 c7             	mov    %rax,%rdi
    7493:	e8 96 cb ff ff       	callq  402e <safe_add_func_uint64_t_u_u>
    7498:	0f be c0             	movsbl %al,%eax
    749b:	89 de                	mov    %ebx,%esi
    749d:	89 c7                	mov    %eax,%edi
    749f:	e8 c6 bd ff ff       	callq  326a <safe_div_func_int8_t_s_s>
    74a4:	0f be d0             	movsbl %al,%edx
    74a7:	48 8b 05 c2 4b 00 00 	mov    0x4bc2(%rip),%rax        # c070 <g_173>
    74ae:	89 c1                	mov    %eax,%ecx
    74b0:	48 8b 1d d9 53 00 00 	mov    0x53d9(%rip),%rbx        # c890 <g_310>
    74b7:	48 8d 85 ec f5 ff ff 	lea    -0xa14(%rbp),%rax
    74be:	48 89 c6             	mov    %rax,%rsi
    74c1:	89 cf                	mov    %ecx,%edi
    74c3:	e8 6b df ff ff       	callq  5433 <func_9>
    74c8:	48 89 03             	mov    %rax,(%rbx)
    74cb:	83 bd b4 f5 ff ff 00 	cmpl   $0x0,-0xa4c(%rbp)
    74d2:	0f 85 4f 07 00 00    	jne    7c27 <func_31+0x2762>
    74d8:	48 8d 05 a1 53 00 00 	lea    0x53a1(%rip),%rax        # c880 <g_126>
    74df:	e9 7c 0a 00 00       	jmpq   7f60 <func_31+0x2a9b>
    74e4:	c7 85 0c f6 ff ff ff 	movl   $0xffffffff,-0x9f4(%rbp)
    74eb:	ff ff ff 
    74ee:	c7 85 10 f6 ff ff 36 	movl   $0xa9525236,-0x9f0(%rbp)
    74f5:	52 52 a9 
    74f8:	48 8d 85 48 f6 ff ff 	lea    -0x9b8(%rbp),%rax
    74ff:	48 89 85 30 f7 ff ff 	mov    %rax,-0x8d0(%rbp)
    7506:	c6 85 d4 f5 ff ff 37 	movb   $0x37,-0xa2c(%rbp)
    750d:	48 c7 85 20 f8 ff ff 	movq   $0x0,-0x7e0(%rbp)
    7514:	00 00 00 00 
    7518:	48 c7 85 28 f8 ff ff 	movq   $0x0,-0x7d8(%rbp)
    751f:	00 00 00 00 
    7523:	48 8d 85 40 f6 ff ff 	lea    -0x9c0(%rbp),%rax
    752a:	48 89 85 30 f8 ff ff 	mov    %rax,-0x7d0(%rbp)
    7531:	48 c7 85 38 f8 ff ff 	movq   $0x0,-0x7c8(%rbp)
    7538:	00 00 00 00 
    753c:	48 c7 85 40 f8 ff ff 	movq   $0x0,-0x7c0(%rbp)
    7543:	00 00 00 00 
    7547:	48 8d 85 40 f6 ff ff 	lea    -0x9c0(%rbp),%rax
    754e:	48 89 85 48 f8 ff ff 	mov    %rax,-0x7b8(%rbp)
    7555:	48 c7 85 50 f8 ff ff 	movq   $0x0,-0x7b0(%rbp)
    755c:	00 00 00 00 
    7560:	48 c7 85 58 f8 ff ff 	movq   $0x0,-0x7a8(%rbp)
    7567:	00 00 00 00 
    756b:	83 ad 0c f6 ff ff 01 	subl   $0x1,-0x9f4(%rbp)
    7572:	0f b6 85 d4 f5 ff ff 	movzbl -0xa2c(%rbp),%eax
    7579:	44 0f be e0          	movsbl %al,%r12d
    757d:	48 8b 9d d8 fa ff ff 	mov    -0x528(%rbp),%rbx
    7584:	48 8b 85 10 f7 ff ff 	mov    -0x8f0(%rbp),%rax
    758b:	48 8b 00             	mov    (%rax),%rax
    758e:	48 8b 10             	mov    (%rax),%rdx
    7591:	48 83 c2 01          	add    $0x1,%rdx
    7595:	48 89 10             	mov    %rdx,(%rax)
    7598:	44 8b 2d 95 4a 00 00 	mov    0x4a95(%rip),%r13d        # c034 <g_116>
    759f:	8b 85 b4 f5 ff ff    	mov    -0xa4c(%rbp),%eax
    75a5:	98                   	cwtl   
    75a6:	89 c6                	mov    %eax,%esi
    75a8:	bf 37 ff ff ff       	mov    $0xffffff37,%edi
    75ad:	e8 43 be ff ff       	callq  33f5 <safe_mul_func_int16_t_s_s>
    75b2:	48 8b 05 b7 52 00 00 	mov    0x52b7(%rip),%rax        # c870 <g_64>
    75b9:	8b 00                	mov    (%rax),%eax
    75bb:	85 c0                	test   %eax,%eax
    75bd:	0f 85 2b 01 00 00    	jne    76ee <func_31+0x2229>
    75c3:	8b 85 b4 f5 ff ff    	mov    -0xa4c(%rbp),%eax
    75c9:	4c 63 f0             	movslq %eax,%r14
    75cc:	8b 85 04 f6 ff ff    	mov    -0x9fc(%rbp),%eax
    75d2:	44 0f bf f8          	movswl %ax,%r15d
    75d6:	8b 85 b4 f5 ff ff    	mov    -0xa4c(%rbp),%eax
    75dc:	98                   	cwtl   
    75dd:	89 85 b0 f5 ff ff    	mov    %eax,-0xa50(%rbp)
    75e3:	48 8b 15 76 52 00 00 	mov    0x5276(%rip),%rdx        # c860 <g_18>
    75ea:	48 8b 05 77 52 00 00 	mov    0x5277(%rip),%rax        # c868 <g_22>
    75f1:	48 8b 00             	mov    (%rax),%rax
    75f4:	0f b7 12             	movzwl (%rdx),%edx
    75f7:	66 89 10             	mov    %dx,(%rax)
    75fa:	0f b7 00             	movzwl (%rax),%eax
    75fd:	98                   	cwtl   
    75fe:	be 07 00 00 00       	mov    $0x7,%esi
    7603:	89 c7                	mov    %eax,%edi
    7605:	e8 59 bf ff ff       	callq  3563 <safe_rshift_func_int16_t_s_u>
    760a:	98                   	cwtl   
    760b:	89 85 9c f5 ff ff    	mov    %eax,-0xa64(%rbp)
    7611:	48 8b 05 90 5d 00 00 	mov    0x5d90(%rip),%rax        # d3a8 <g_353>
    7618:	48 85 c0             	test   %rax,%rax
    761b:	0f 9e c0             	setle  %al
    761e:	0f b6 c0             	movzbl %al,%eax
    7621:	be b8 ff ff ff       	mov    $0xffffffb8,%esi
    7626:	89 c7                	mov    %eax,%edi
    7628:	e8 c5 bb ff ff       	callq  31f2 <safe_sub_func_int8_t_s_s>
    762d:	0f be c0             	movsbl %al,%eax
    7630:	8b 95 9c f5 ff ff    	mov    -0xa64(%rbp),%edx
    7636:	21 c2                	and    %eax,%edx
    7638:	48 8b 85 48 f6 ff ff 	mov    -0x9b8(%rbp),%rax
    763f:	48 63 d2             	movslq %edx,%rdx
    7642:	48 89 10             	mov    %rdx,(%rax)
    7645:	48 8b 00             	mov    (%rax),%rax
    7648:	48 be 31 be c7 24 bf 	movabs $0x24c4abf24c7be31,%rsi
    764f:	4a 4c 02 
    7652:	48 89 c7             	mov    %rax,%rdi
    7655:	e8 4e c2 ff ff       	callq  38a8 <safe_sub_func_int64_t_s_s>
    765a:	48 85 c0             	test   %rax,%rax
    765d:	74 11                	je     7670 <func_31+0x21ab>
    765f:	66 83 bd d6 f5 ff ff 	cmpw   $0x0,-0xa2a(%rbp)
    7666:	00 
    7667:	74 07                	je     7670 <func_31+0x21ab>
    7669:	ba 01 00 00 00       	mov    $0x1,%edx
    766e:	eb 05                	jmp    7675 <func_31+0x21b0>
    7670:	ba 00 00 00 00       	mov    $0x0,%edx
    7675:	0f b6 85 d3 f5 ff ff 	movzbl -0xa2d(%rbp),%eax
    767c:	39 c2                	cmp    %eax,%edx
    767e:	0f 95 c0             	setne  %al
    7681:	0f b6 c0             	movzbl %al,%eax
    7684:	be 03 00 00 00       	mov    $0x3,%esi
    7689:	89 c7                	mov    %eax,%edi
    768b:	e8 9a be ff ff       	callq  352a <safe_rshift_func_int16_t_s_s>
    7690:	98                   	cwtl   
    7691:	8b b5 b0 f5 ff ff    	mov    -0xa50(%rbp),%esi
    7697:	89 c7                	mov    %eax,%edi
    7699:	e8 35 bd ff ff       	callq  33d3 <safe_sub_func_int16_t_s_s>
    769e:	66 85 c0             	test   %ax,%ax
    76a1:	0f 95 c0             	setne  %al
    76a4:	0f b6 c0             	movzbl %al,%eax
    76a7:	44 89 fe             	mov    %r15d,%esi
    76aa:	89 c7                	mov    %eax,%edi
    76ac:	e8 02 bd ff ff       	callq  33b3 <safe_add_func_int16_t_s_s>
    76b1:	0f bf d0             	movswl %ax,%edx
    76b4:	8b 85 b4 f5 ff ff    	mov    -0xa4c(%rbp),%eax
    76ba:	89 d6                	mov    %edx,%esi
    76bc:	89 c7                	mov    %eax,%edi
    76be:	e8 3a c8 ff ff       	callq  3efd <safe_mod_func_uint32_t_u_u>
    76c3:	89 c2                	mov    %eax,%edx
    76c5:	48 8b 05 ac 51 00 00 	mov    0x51ac(%rip),%rax        # c878 <g_127>
    76cc:	66 89 10             	mov    %dx,(%rax)
    76cf:	0f b7 00             	movzwl (%rax),%eax
    76d2:	66 3d d8 3e          	cmp    $0x3ed8,%ax
    76d6:	0f 9e c0             	setle  %al
    76d9:	0f b6 c0             	movzbl %al,%eax
    76dc:	4c 89 f6             	mov    %r14,%rsi
    76df:	48 89 c7             	mov    %rax,%rdi
    76e2:	e8 47 c9 ff ff       	callq  402e <safe_add_func_uint64_t_u_u>
    76e7:	b8 00 00 00 00       	mov    $0x0,%eax
    76ec:	eb 05                	jmp    76f3 <func_31+0x222e>
    76ee:	b8 01 00 00 00       	mov    $0x1,%eax
    76f3:	88 05 a7 5c 00 00    	mov    %al,0x5ca7(%rip)        # d3a0 <g_295>
    76f9:	0f b6 05 a0 5c 00 00 	movzbl 0x5ca0(%rip),%eax        # d3a0 <g_295>
    7700:	0f b6 c0             	movzbl %al,%eax
    7703:	be 05 00 00 00       	mov    $0x5,%esi
    7708:	89 c7                	mov    %eax,%edi
    770a:	e8 af c5 ff ff       	callq  3cbe <safe_rshift_func_uint8_t_u_u>
    770f:	0f b6 c0             	movzbl %al,%eax
    7712:	89 85 10 f6 ff ff    	mov    %eax,-0x9f0(%rbp)
    7718:	8b 85 b4 f5 ff ff    	mov    -0xa4c(%rbp),%eax
    771e:	88 85 cf f5 ff ff    	mov    %al,-0xa31(%rbp)
    7724:	0f b6 85 cf f5 ff ff 	movzbl -0xa31(%rbp),%eax
    772b:	0f be c0             	movsbl %al,%eax
    772e:	39 85 b4 f5 ff ff    	cmp    %eax,-0xa4c(%rbp)
    7734:	0f 94 c0             	sete   %al
    7737:	0f b6 c0             	movzbl %al,%eax
    773a:	48 c7 c6 ff ff ff ff 	mov    $0xffffffffffffffff,%rsi
    7741:	48 89 c7             	mov    %rax,%rdi
    7744:	e8 f8 c0 ff ff       	callq  3841 <safe_add_func_int64_t_s_s>
    7749:	89 c2                	mov    %eax,%edx
    774b:	48 8b 85 a0 f5 ff ff 	mov    -0xa60(%rbp),%rax
    7752:	66 89 10             	mov    %dx,(%rax)
    7755:	81 bd 0c f6 ff ff 2c 	cmpl   $0x266e282c,-0x9f4(%rbp)
    775c:	28 6e 26 
    775f:	0f 96 c0             	setbe  %al
    7762:	0f b6 c0             	movzbl %al,%eax
    7765:	44 89 ee             	mov    %r13d,%esi
    7768:	89 c7                	mov    %eax,%edi
    776a:	e8 dd c4 ff ff       	callq  3c4c <safe_lshift_func_uint8_t_u_u>
    776f:	48 8b 95 d0 f7 ff ff 	mov    -0x830(%rbp),%rdx
    7776:	48 8b 85 30 f7 ff ff 	mov    -0x8d0(%rbp),%rax
    777d:	48 89 10             	mov    %rdx,(%rax)
    7780:	8b 85 b4 f5 ff ff    	mov    -0xa4c(%rbp),%eax
    7786:	48 98                	cltq   
    7788:	48 83 f8 ff          	cmp    $0xffffffffffffffff,%rax
    778c:	0f 95 c0             	setne  %al
    778f:	0f b6 c0             	movzbl %al,%eax
    7792:	44 89 e2             	mov    %r12d,%edx
    7795:	48 89 de             	mov    %rbx,%rsi
    7798:	89 c7                	mov    %eax,%edi
    779a:	e8 94 dc ff ff       	callq  5433 <func_9>
    779f:	48 89 85 98 f8 ff ff 	mov    %rax,-0x768(%rbp)
    77a6:	48 8b 85 98 f8 ff ff 	mov    -0x768(%rbp),%rax
    77ad:	48 85 c0             	test   %rax,%rax
    77b0:	0f 94 c0             	sete   %al
    77b3:	0f b6 d0             	movzbl %al,%edx
    77b6:	48 8b 85 60 f6 ff ff 	mov    -0x9a0(%rbp),%rax
    77bd:	8b 00                	mov    (%rax),%eax
    77bf:	39 c2                	cmp    %eax,%edx
    77c1:	0f 9f c0             	setg   %al
    77c4:	0f b6 d0             	movzbl %al,%edx
    77c7:	8b 85 ec f5 ff ff    	mov    -0xa14(%rbp),%eax
    77cd:	21 d0                	and    %edx,%eax
    77cf:	89 85 ec f5 ff ff    	mov    %eax,-0xa14(%rbp)
    77d5:	48 8b 05 e4 50 00 00 	mov    0x50e4(%rip),%rax        # c8c0 <g_652>
    77dc:	48 8b 95 90 f6 ff ff 	mov    -0x970(%rbp),%rdx
    77e3:	48 89 10             	mov    %rdx,(%rax)
    77e6:	48 8b 05 9b 5b 00 00 	mov    0x5b9b(%rip),%rax        # d388 <g_20>
    77ed:	8b 10                	mov    (%rax),%edx
    77ef:	48 8b 05 92 5b 00 00 	mov    0x5b92(%rip),%rax        # d388 <g_20>
    77f6:	81 ca 28 8f d0 52    	or     $0x52d08f28,%edx
    77fc:	89 10                	mov    %edx,(%rax)
    77fe:	e9 5b 03 00 00       	jmpq   7b5e <func_31+0x2699>
    7803:	66 c7 85 d8 f5 ff ff 	movw   $0x7967,-0xa28(%rbp)
    780a:	67 79 
    780c:	66 c7 85 d6 f5 ff ff 	movw   $0xfff9,-0xa2a(%rbp)
    7813:	f9 ff 
    7815:	e9 36 03 00 00       	jmpq   7b50 <func_31+0x268b>
    781a:	48 8d 85 e4 f5 ff ff 	lea    -0xa1c(%rbp),%rax
    7821:	48 89 85 98 f6 ff ff 	mov    %rax,-0x968(%rbp)
    7828:	48 8d 85 e0 f5 ff ff 	lea    -0xa20(%rbp),%rax
    782f:	48 89 85 a0 f6 ff ff 	mov    %rax,-0x960(%rbp)
    7836:	48 8d 85 e0 f5 ff ff 	lea    -0xa20(%rbp),%rax
    783d:	48 89 85 a8 f6 ff ff 	mov    %rax,-0x958(%rbp)
    7844:	48 8d 05 31 48 00 00 	lea    0x4831(%rip),%rax        # c07c <g_192>
    784b:	48 89 85 b0 f6 ff ff 	mov    %rax,-0x950(%rbp)
    7852:	48 8d 05 37 5b 00 00 	lea    0x5b37(%rip),%rax        # d390 <g_24>
    7859:	48 89 85 b8 f6 ff ff 	mov    %rax,-0x948(%rbp)
    7860:	48 c7 85 c0 f6 ff ff 	movq   $0x0,-0x940(%rbp)
    7867:	00 00 00 00 
    786b:	48 8d 05 0a 48 00 00 	lea    0x480a(%rip),%rax        # c07c <g_192>
    7872:	48 89 85 c8 f6 ff ff 	mov    %rax,-0x938(%rbp)
    7879:	48 8d 85 ec f5 ff ff 	lea    -0xa14(%rbp),%rax
    7880:	48 89 85 d0 f6 ff ff 	mov    %rax,-0x930(%rbp)
    7887:	48 c7 85 d8 f6 ff ff 	movq   $0x0,-0x928(%rbp)
    788e:	00 00 00 00 
    7892:	48 8d 05 e3 47 00 00 	lea    0x47e3(%rip),%rax        # c07c <g_192>
    7899:	48 89 85 e0 f6 ff ff 	mov    %rax,-0x920(%rbp)
    78a0:	48 c7 85 e8 f6 ff ff 	movq   $0x0,-0x918(%rbp)
    78a7:	00 00 00 00 
    78ab:	48 8d 85 e0 f5 ff ff 	lea    -0xa20(%rbp),%rax
    78b2:	48 89 85 f0 f6 ff ff 	mov    %rax,-0x910(%rbp)
    78b9:	48 c7 85 f8 f6 ff ff 	movq   $0x0,-0x908(%rbp)
    78c0:	00 00 00 00 
    78c4:	48 c7 85 48 f6 ff ff 	movq   $0x0,-0x9b8(%rbp)
    78cb:	00 00 00 00 
    78cf:	48 8d 85 48 f6 ff ff 	lea    -0x9b8(%rbp),%rax
    78d6:	48 89 85 00 f7 ff ff 	mov    %rax,-0x900(%rbp)
    78dd:	c7 85 f8 f5 ff ff 00 	movl   $0x0,-0xa08(%rbp)
    78e4:	00 00 00 
    78e7:	eb 1e                	jmp    7907 <func_31+0x2442>
    78e9:	8b 85 f8 f5 ff ff    	mov    -0xa08(%rbp),%eax
    78ef:	48 98                	cltq   
    78f1:	48 8d 95 e8 f5 ff ff 	lea    -0xa18(%rbp),%rdx
    78f8:	48 89 94 c5 c0 f8 ff 	mov    %rdx,-0x740(%rbp,%rax,8)
    78ff:	ff 
    7900:	83 85 f8 f5 ff ff 01 	addl   $0x1,-0xa08(%rbp)
    7907:	83 bd f8 f5 ff ff 03 	cmpl   $0x3,-0xa08(%rbp)
    790e:	7e d9                	jle    78e9 <func_31+0x2424>
    7910:	0f b7 85 d8 f5 ff ff 	movzwl -0xa28(%rbp),%eax
    7917:	83 e8 01             	sub    $0x1,%eax
    791a:	66 89 85 d8 f5 ff ff 	mov    %ax,-0xa28(%rbp)
    7921:	c6 05 38 47 00 00 00 	movb   $0x0,0x4738(%rip)        # c060 <g_124>
    7928:	e9 a2 01 00 00       	jmpq   7acf <func_31+0x260a>
    792d:	c7 85 08 f6 ff ff eb 	movl   $0x1304d4eb,-0x9f8(%rbp)
    7934:	d4 04 13 
    7937:	48 8d 85 cf f5 ff ff 	lea    -0xa31(%rbp),%rax
    793e:	48 89 85 08 f7 ff ff 	mov    %rax,-0x8f8(%rbp)
    7945:	0f b6 05 14 47 00 00 	movzbl 0x4714(%rip),%eax        # c060 <g_124>
    794c:	0f be c0             	movsbl %al,%eax
    794f:	8d 50 01             	lea    0x1(%rax),%edx
    7952:	0f b6 05 07 47 00 00 	movzbl 0x4707(%rip),%eax        # c060 <g_124>
    7959:	0f be c0             	movsbl %al,%eax
    795c:	48 63 c8             	movslq %eax,%rcx
    795f:	48 63 d2             	movslq %edx,%rdx
    7962:	48 89 d0             	mov    %rdx,%rax
    7965:	48 01 c0             	add    %rax,%rax
    7968:	48 01 d0             	add    %rdx,%rax
    796b:	48 01 c8             	add    %rcx,%rax
    796e:	48 8d 14 00          	lea    (%rax,%rax,1),%rdx
    7972:	48 8d 05 57 47 00 00 	lea    0x4757(%rip),%rax        # c0d0 <g_358>
    7979:	0f b7 04 02          	movzwl (%rdx,%rax,1),%eax
    797d:	0f bf d0             	movswl %ax,%edx
    7980:	48 8d 85 60 f8 ff ff 	lea    -0x7a0(%rbp),%rax
    7987:	48 83 c0 38          	add    $0x38,%rax
    798b:	48 39 85 78 f6 ff ff 	cmp    %rax,-0x988(%rbp)
    7992:	0f 95 c0             	setne  %al
    7995:	0f b6 c0             	movzbl %al,%eax
    7998:	39 c2                	cmp    %eax,%edx
    799a:	0f 9d c0             	setge  %al
    799d:	0f b6 c8             	movzbl %al,%ecx
    79a0:	0f b6 05 b9 46 00 00 	movzbl 0x46b9(%rip),%eax        # c060 <g_124>
    79a7:	0f be c0             	movsbl %al,%eax
    79aa:	0f b6 15 af 46 00 00 	movzbl 0x46af(%rip),%edx        # c060 <g_124>
    79b1:	0f be d2             	movsbl %dl,%edx
    79b4:	48 63 f2             	movslq %edx,%rsi
    79b7:	48 63 d0             	movslq %eax,%rdx
    79ba:	48 89 d0             	mov    %rdx,%rax
    79bd:	48 01 c0             	add    %rax,%rax
    79c0:	48 01 d0             	add    %rdx,%rax
    79c3:	48 01 f0             	add    %rsi,%rax
    79c6:	48 8d 14 00          	lea    (%rax,%rax,1),%rdx
    79ca:	48 8d 05 ff 46 00 00 	lea    0x46ff(%rip),%rax        # c0d0 <g_358>
    79d1:	0f b7 04 02          	movzwl (%rdx,%rax,1),%eax
    79d5:	98                   	cwtl   
    79d6:	39 c1                	cmp    %eax,%ecx
    79d8:	0f 9f c0             	setg   %al
    79db:	0f b6 c0             	movzbl %al,%eax
    79de:	31 85 08 f6 ff ff    	xor    %eax,-0x9f8(%rbp)
    79e4:	0f b6 05 75 46 00 00 	movzbl 0x4675(%rip),%eax        # c060 <g_124>
    79eb:	0f be c0             	movsbl %al,%eax
    79ee:	0f b6 15 6b 46 00 00 	movzbl 0x466b(%rip),%edx        # c060 <g_124>
    79f5:	0f be d2             	movsbl %dl,%edx
    79f8:	48 63 ca             	movslq %edx,%rcx
    79fb:	48 63 d0             	movslq %eax,%rdx
    79fe:	48 89 d0             	mov    %rdx,%rax
    7a01:	48 01 c0             	add    %rax,%rax
    7a04:	48 01 d0             	add    %rdx,%rax
    7a07:	48 01 c8             	add    %rcx,%rax
    7a0a:	48 8d 14 00          	lea    (%rax,%rax,1),%rdx
    7a0e:	48 8d 05 bb 46 00 00 	lea    0x46bb(%rip),%rax        # c0d0 <g_358>
    7a15:	0f b7 04 02          	movzwl (%rdx,%rax,1),%eax
    7a19:	66 85 c0             	test   %ax,%ax
    7a1c:	0f 85 9c 00 00 00    	jne    7abe <func_31+0x25f9>
    7a22:	0f b6 05 37 46 00 00 	movzbl 0x4637(%rip),%eax        # c060 <g_124>
    7a29:	0f be c0             	movsbl %al,%eax
    7a2c:	0f b6 15 2d 46 00 00 	movzbl 0x462d(%rip),%edx        # c060 <g_124>
    7a33:	0f be d2             	movsbl %dl,%edx
    7a36:	48 63 ca             	movslq %edx,%rcx
    7a39:	48 63 d0             	movslq %eax,%rdx
    7a3c:	48 89 d0             	mov    %rdx,%rax
    7a3f:	48 01 c0             	add    %rax,%rax
    7a42:	48 01 d0             	add    %rdx,%rax
    7a45:	48 01 c8             	add    %rcx,%rax
    7a48:	48 8d 14 00          	lea    (%rax,%rax,1),%rdx
    7a4c:	48 8d 05 7d 46 00 00 	lea    0x467d(%rip),%rax        # c0d0 <g_358>
    7a53:	0f b7 1c 02          	movzwl (%rdx,%rax,1),%ebx
    7a57:	0f b6 05 02 46 00 00 	movzbl 0x4602(%rip),%eax        # c060 <g_124>
    7a5e:	0f be c0             	movsbl %al,%eax
    7a61:	0f b6 15 f8 45 00 00 	movzbl 0x45f8(%rip),%edx        # c060 <g_124>
    7a68:	0f be d2             	movsbl %dl,%edx
    7a6b:	48 63 ca             	movslq %edx,%rcx
    7a6e:	48 63 d0             	movslq %eax,%rdx
    7a71:	48 89 d0             	mov    %rdx,%rax
    7a74:	48 01 c0             	add    %rax,%rax
    7a77:	48 01 d0             	add    %rdx,%rax
    7a7a:	48 01 c8             	add    %rcx,%rax
    7a7d:	48 8d 14 00          	lea    (%rax,%rax,1),%rdx
    7a81:	48 8d 05 48 46 00 00 	lea    0x4648(%rip),%rax        # c0d0 <g_358>
    7a88:	0f b7 04 02          	movzwl (%rdx,%rax,1),%eax
    7a8c:	0f be c0             	movsbl %al,%eax
    7a8f:	48 8b 95 08 f7 ff ff 	mov    -0x8f8(%rbp),%rdx
    7a96:	c6 02 ff             	movb   $0xff,(%rdx)
    7a99:	89 c6                	mov    %eax,%esi
    7a9b:	bf ff ff ff ff       	mov    $0xffffffff,%edi
    7aa0:	e8 8c b7 ff ff       	callq  3231 <safe_mod_func_int8_t_s_s>
    7aa5:	66 98                	cbtw   
    7aa7:	66 39 c3             	cmp    %ax,%bx
    7aaa:	0f 9d c2             	setge  %dl
    7aad:	48 8b 05 dc 4d 00 00 	mov    0x4ddc(%rip),%rax        # c890 <g_310>
    7ab4:	48 8b 00             	mov    (%rax),%rax
    7ab7:	0f b6 d2             	movzbl %dl,%edx
    7aba:	89 10                	mov    %edx,(%rax)
    7abc:	eb 01                	jmp    7abf <func_31+0x25fa>
    7abe:	90                   	nop
    7abf:	0f b6 05 9a 45 00 00 	movzbl 0x459a(%rip),%eax        # c060 <g_124>
    7ac6:	83 c0 01             	add    $0x1,%eax
    7ac9:	88 05 91 45 00 00    	mov    %al,0x4591(%rip)        # c060 <g_124>
    7acf:	0f b6 05 8a 45 00 00 	movzbl 0x458a(%rip),%eax        # c060 <g_124>
    7ad6:	3c 02                	cmp    $0x2,%al
    7ad8:	0f 8e 4f fe ff ff    	jle    792d <func_31+0x2468>
    7ade:	83 bd b4 f5 ff ff 00 	cmpl   $0x0,-0xa4c(%rbp)
    7ae5:	75 49                	jne    7b30 <func_31+0x266b>
    7ae7:	48 8b 85 00 f7 ff ff 	mov    -0x900(%rbp),%rax
    7aee:	48 8d 95 60 f8 ff ff 	lea    -0x7a0(%rbp),%rdx
    7af5:	48 89 10             	mov    %rdx,(%rax)
    7af8:	48 8b 85 00 f7 ff ff 	mov    -0x900(%rbp),%rax
    7aff:	48 8b 00             	mov    (%rax),%rax
    7b02:	48 8d 95 60 f8 ff ff 	lea    -0x7a0(%rbp),%rdx
    7b09:	48 83 c2 38          	add    $0x38,%rdx
    7b0d:	48 39 d0             	cmp    %rdx,%rax
    7b10:	0f 94 c0             	sete   %al
    7b13:	0f b6 c0             	movzbl %al,%eax
    7b16:	be 07 00 00 00       	mov    $0x7,%esi
    7b1b:	89 c7                	mov    %eax,%edi
    7b1d:	e8 58 c3 ff ff       	callq  3e7a <safe_rshift_func_uint16_t_u_u>
    7b22:	0f b7 d0             	movzwl %ax,%edx
    7b25:	48 8b 85 e0 f6 ff ff 	mov    -0x920(%rbp),%rax
    7b2c:	89 10                	mov    %edx,(%rax)
    7b2e:	eb 01                	jmp    7b31 <func_31+0x266c>
    7b30:	90                   	nop
    7b31:	0f b7 85 d6 f5 ff ff 	movzwl -0xa2a(%rbp),%eax
    7b38:	0f be c0             	movsbl %al,%eax
    7b3b:	be 01 00 00 00       	mov    $0x1,%esi
    7b40:	89 c7                	mov    %eax,%edi
    7b42:	e8 8d b6 ff ff       	callq  31d4 <safe_add_func_int8_t_s_s>
    7b47:	66 98                	cbtw   
    7b49:	66 89 85 d6 f5 ff ff 	mov    %ax,-0xa2a(%rbp)
    7b50:	66 83 bd d6 f5 ff ff 	cmpw   $0x4,-0xa2a(%rbp)
    7b57:	04 
    7b58:	0f 85 bc fc ff ff    	jne    781a <func_31+0x2355>
    7b5e:	8b 05 5c 45 00 00    	mov    0x455c(%rip),%eax        # c0c0 <g_326+0x20>
    7b64:	0f be d8             	movsbl %al,%ebx
    7b67:	48 8b 05 f2 4c 00 00 	mov    0x4cf2(%rip),%rax        # c860 <g_18>
    7b6e:	0f b7 00             	movzwl (%rax),%eax
    7b71:	98                   	cwtl   
    7b72:	89 c6                	mov    %eax,%esi
    7b74:	bf ff ff ff ff       	mov    $0xffffffff,%edi
    7b79:	e8 14 b9 ff ff       	callq  3492 <safe_lshift_func_int16_t_s_s>
    7b7e:	48 8b 05 3b 4d 00 00 	mov    0x4d3b(%rip),%rax        # c8c0 <g_652>
    7b85:	44 0f b6 a5 d0 f5 ff 	movzbl -0xa30(%rbp),%r12d
    7b8c:	ff 
    7b8d:	8b 85 b4 f5 ff ff    	mov    -0xa4c(%rbp),%eax
    7b93:	0f be d0             	movsbl %al,%edx
    7b96:	8b 05 dc 44 00 00    	mov    0x44dc(%rip),%eax        # c078 <g_175>
    7b9c:	0f be c0             	movsbl %al,%eax
    7b9f:	89 d6                	mov    %edx,%esi
    7ba1:	89 c7                	mov    %eax,%edi
    7ba3:	e8 c2 b6 ff ff       	callq  326a <safe_div_func_int8_t_s_s>
    7ba8:	8b 85 b4 f7 ff ff    	mov    -0x84c(%rbp),%eax
    7bae:	39 85 b4 f5 ff ff    	cmp    %eax,-0xa4c(%rbp)
    7bb4:	0f 94 c0             	sete   %al
    7bb7:	0f b6 c0             	movzbl %al,%eax
    7bba:	be 01 00 00 00       	mov    $0x1,%esi
    7bbf:	89 c7                	mov    %eax,%edi
    7bc1:	e8 86 c0 ff ff       	callq  3c4c <safe_lshift_func_uint8_t_u_u>
    7bc6:	0f b6 c0             	movzbl %al,%eax
    7bc9:	44 89 e6             	mov    %r12d,%esi
    7bcc:	89 c7                	mov    %eax,%edi
    7bce:	e8 c0 bf ff ff       	callq  3b93 <safe_mul_func_uint8_t_u_u>
    7bd3:	88 05 a8 44 00 00    	mov    %al,0x44a8(%rip)        # c081 <g_275>
    7bd9:	0f b6 05 a1 44 00 00 	movzbl 0x44a1(%rip),%eax        # c081 <g_275>
    7be0:	0f be d0             	movsbl %al,%edx
    7be3:	48 8b 05 a6 4c 00 00 	mov    0x4ca6(%rip),%rax        # c890 <g_310>
    7bea:	48 8b 00             	mov    (%rax),%rax
    7bed:	48 8b 8d 60 f6 ff ff 	mov    -0x9a0(%rbp),%rcx
    7bf4:	8b 09                	mov    (%rcx),%ecx
    7bf6:	48 89 c6             	mov    %rax,%rsi
    7bf9:	89 cf                	mov    %ecx,%edi
    7bfb:	e8 33 d8 ff ff       	callq  5433 <func_9>
    7c00:	48 89 c1             	mov    %rax,%rcx
    7c03:	48 8b 85 a0 f5 ff ff 	mov    -0xa60(%rbp),%rax
    7c0a:	0f b7 00             	movzwl (%rax),%eax
    7c0d:	98                   	cwtl   
    7c0e:	f7 d0                	not    %eax
    7c10:	4c 8b 25 79 4c 00 00 	mov    0x4c79(%rip),%r12        # c890 <g_310>
    7c17:	89 da                	mov    %ebx,%edx
    7c19:	48 89 ce             	mov    %rcx,%rsi
    7c1c:	89 c7                	mov    %eax,%edi
    7c1e:	e8 10 d8 ff ff       	callq  5433 <func_9>
    7c23:	49 89 04 24          	mov    %rax,(%r12)
    7c27:	0f b7 05 02 44 00 00 	movzwl 0x4402(%rip),%eax        # c030 <g_93>
    7c2e:	0f b7 c0             	movzwl %ax,%eax
    7c31:	be 02 00 00 00       	mov    $0x2,%esi
    7c36:	89 c7                	mov    %eax,%edi
    7c38:	e8 7b c2 ff ff       	callq  3eb8 <safe_add_func_uint32_t_u_u>
    7c3d:	66 89 05 ec 43 00 00 	mov    %ax,0x43ec(%rip)        # c030 <g_93>
    7c44:	0f b7 05 e5 43 00 00 	movzwl 0x43e5(%rip),%eax        # c030 <g_93>
    7c4b:	66 83 f8 0d          	cmp    $0xd,%ax
    7c4f:	0f 86 2a e4 ff ff    	jbe    607f <func_31+0xbba>
    7c55:	8b 85 b4 f5 ff ff    	mov    -0xa4c(%rbp),%eax
    7c5b:	44 0f be e0          	movsbl %al,%r12d
    7c5f:	8b 85 b4 f5 ff ff    	mov    -0xa4c(%rbp),%eax
    7c65:	0f be d8             	movsbl %al,%ebx
    7c68:	48 8b 05 f1 4b 00 00 	mov    0x4bf1(%rip),%rax        # c860 <g_18>
    7c6f:	48 8b 95 a0 f5 ff ff 	mov    -0xa60(%rbp),%rdx
    7c76:	0f b7 12             	movzwl (%rdx),%edx
    7c79:	66 89 10             	mov    %dx,(%rax)
    7c7c:	0f b7 00             	movzwl (%rax),%eax
    7c7f:	0f bf d0             	movswl %ax,%edx
    7c82:	48 8b 85 a8 f5 ff ff 	mov    -0xa58(%rbp),%rax
    7c89:	48 8b 00             	mov    (%rax),%rax
    7c8c:	48 8b 00             	mov    (%rax),%rax
    7c8f:	0f b7 00             	movzwl (%rax),%eax
    7c92:	98                   	cwtl   
    7c93:	89 d6                	mov    %edx,%esi
    7c95:	89 c7                	mov    %eax,%edi
    7c97:	e8 37 b7 ff ff       	callq  33d3 <safe_sub_func_int16_t_s_s>
    7c9c:	4c 0f bf e8          	movswq %ax,%r13
    7ca0:	48 8b 85 60 f6 ff ff 	mov    -0x9a0(%rbp),%rax
    7ca7:	44 8b 30             	mov    (%rax),%r14d
    7caa:	48 8b 05 b7 43 00 00 	mov    0x43b7(%rip),%rax        # c068 <g_146>
    7cb1:	89 c6                	mov    %eax,%esi
    7cb3:	bf de b9 de 6b       	mov    $0x6bdeb9de,%edi
    7cb8:	e8 48 b9 ff ff       	callq  3605 <safe_sub_func_int32_t_s_s>
    7cbd:	41 39 c6             	cmp    %eax,%r14d
    7cc0:	0f 9c c0             	setl   %al
    7cc3:	0f b6 c0             	movzbl %al,%eax
    7cc6:	4c 89 ee             	mov    %r13,%rsi
    7cc9:	48 89 c7             	mov    %rax,%rdi
    7ccc:	e8 5d c3 ff ff       	callq  402e <safe_add_func_uint64_t_u_u>
    7cd1:	48 8b 85 60 f6 ff ff 	mov    -0x9a0(%rbp),%rax
    7cd8:	8b 00                	mov    (%rax),%eax
    7cda:	98                   	cwtl   
    7cdb:	89 c6                	mov    %eax,%esi
    7cdd:	bf 00 00 00 00       	mov    $0x0,%edi
    7ce2:	e8 cc b6 ff ff       	callq  33b3 <safe_add_func_int16_t_s_s>
    7ce7:	0f be c0             	movsbl %al,%eax
    7cea:	89 de                	mov    %ebx,%esi
    7cec:	89 c7                	mov    %eax,%edi
    7cee:	e8 ff b4 ff ff       	callq  31f2 <safe_sub_func_int8_t_s_s>
    7cf3:	0f be c0             	movsbl %al,%eax
    7cf6:	39 85 b4 f5 ff ff    	cmp    %eax,-0xa4c(%rbp)
    7cfc:	0f 9d c0             	setge  %al
    7cff:	0f b6 c0             	movzbl %al,%eax
    7d02:	48 8b 1d 87 4b 00 00 	mov    0x4b87(%rip),%rbx        # c890 <g_310>
    7d09:	48 8d 8d e4 f5 ff ff 	lea    -0xa1c(%rbp),%rcx
    7d10:	44 89 e2             	mov    %r12d,%edx
    7d13:	48 89 ce             	mov    %rcx,%rsi
    7d16:	89 c7                	mov    %eax,%edi
    7d18:	e8 16 d7 ff ff       	callq  5433 <func_9>
    7d1d:	48 89 03             	mov    %rax,(%rbx)
    7d20:	48 8b 05 51 4c 00 00 	mov    0x4c51(%rip),%rax        # c978 <g_707>
    7d27:	48 8b 13             	mov    (%rbx),%rdx
    7d2a:	48 89 10             	mov    %rdx,(%rax)
    7d2d:	c6 05 6c 56 00 00 00 	movb   $0x0,0x566c(%rip)        # d3a0 <g_295>
    7d34:	e9 11 02 00 00       	jmpq   7f4a <func_31+0x2a85>
    7d39:	48 b8 65 7a c0 18 76 	movabs $0x503b107618c07a65,%rax
    7d40:	10 3b 50 
    7d43:	48 89 85 88 f7 ff ff 	mov    %rax,-0x878(%rbp)
    7d4a:	48 c7 85 90 f7 ff ff 	movq   $0x0,-0x870(%rbp)
    7d51:	00 00 00 00 
    7d55:	48 8d 85 c0 f8 ff ff 	lea    -0x740(%rbp),%rax
    7d5c:	48 8d 15 9d 43 00 00 	lea    0x439d(%rip),%rdx        # c100 <g_790+0xc>
    7d63:	b9 50 00 00 00       	mov    $0x50,%ecx
    7d68:	48 89 c7             	mov    %rax,%rdi
    7d6b:	48 89 d6             	mov    %rdx,%rsi
    7d6e:	f3 48 a5             	rep movsq %ds:(%rsi),%es:(%rdi)
    7d71:	c7 85 24 f6 ff ff 00 	movl   $0x0,-0x9dc(%rbp)
    7d78:	00 00 00 
    7d7b:	48 8d 05 0e 56 00 00 	lea    0x560e(%rip),%rax        # d390 <g_24>
    7d82:	48 89 85 98 f7 ff ff 	mov    %rax,-0x868(%rbp)
    7d89:	c7 85 f0 f5 ff ff 00 	movl   $0x0,-0xa10(%rbp)
    7d90:	00 00 00 
    7d93:	eb 1b                	jmp    7db0 <func_31+0x28eb>
    7d95:	8b 85 f0 f5 ff ff    	mov    -0xa10(%rbp),%eax
    7d9b:	48 98                	cltq   
    7d9d:	48 c7 84 c5 20 f8 ff 	movq   $0x0,-0x7e0(%rbp,%rax,8)
    7da4:	ff 00 00 00 00 
    7da9:	83 85 f0 f5 ff ff 01 	addl   $0x1,-0xa10(%rbp)
    7db0:	83 bd f0 f5 ff ff 06 	cmpl   $0x6,-0xa10(%rbp)
    7db7:	7e dc                	jle    7d95 <func_31+0x28d0>
    7db9:	c7 85 f0 f5 ff ff 00 	movl   $0x0,-0xa10(%rbp)
    7dc0:	00 00 00 
    7dc3:	eb 19                	jmp    7dde <func_31+0x2919>
    7dc5:	8b 85 f0 f5 ff ff    	mov    -0xa10(%rbp),%eax
    7dcb:	48 98                	cltq   
    7dcd:	66 c7 84 45 f0 f7 ff 	movw   $0x0,-0x810(%rbp,%rax,2)
    7dd4:	ff 00 00 
    7dd7:	83 85 f0 f5 ff ff 01 	addl   $0x1,-0xa10(%rbp)
    7dde:	83 bd f0 f5 ff ff 01 	cmpl   $0x1,-0xa10(%rbp)
    7de5:	7e de                	jle    7dc5 <func_31+0x2900>
    7de7:	48 8b 05 a2 4a 00 00 	mov    0x4aa2(%rip),%rax        # c890 <g_310>
    7dee:	48 c7 00 00 00 00 00 	movq   $0x0,(%rax)
    7df5:	48 83 85 88 f7 ff ff 	addq   $0x1,-0x878(%rbp)
    7dfc:	01 
    7dfd:	48 8b 85 60 f6 ff ff 	mov    -0x9a0(%rbp),%rax
    7e04:	8b 00                	mov    (%rax),%eax
    7e06:	0f b7 c0             	movzwl %ax,%eax
    7e09:	89 c6                	mov    %eax,%esi
    7e0b:	bf a3 d5 00 00       	mov    $0xd5a3,%edi
    7e10:	e8 28 bf ff ff       	callq  3d3d <safe_mul_func_uint16_t_u_u>
    7e15:	0f b6 c0             	movzbl %al,%eax
    7e18:	be 04 00 00 00       	mov    $0x4,%esi
    7e1d:	89 c7                	mov    %eax,%edi
    7e1f:	e8 e1 bd ff ff       	callq  3c05 <safe_lshift_func_uint8_t_u_s>
    7e24:	0f b7 85 f0 f7 ff ff 	movzwl -0x810(%rbp),%eax
    7e2b:	48 0f bf d8          	movswq %ax,%rbx
    7e2f:	8b 85 b4 f5 ff ff    	mov    -0xa4c(%rbp),%eax
    7e35:	89 c2                	mov    %eax,%edx
    7e37:	48 8b 85 68 f6 ff ff 	mov    -0x998(%rbp),%rax
    7e3e:	66 89 10             	mov    %dx,(%rax)
    7e41:	48 8b 85 68 f6 ff ff 	mov    -0x998(%rbp),%rax
    7e48:	0f b7 00             	movzwl (%rax),%eax
    7e4b:	44 0f b7 e0          	movzwl %ax,%r12d
    7e4f:	48 8b 05 da 50 00 00 	mov    0x50da(%rip),%rax        # cf30 <g_717+0x10>
    7e56:	48 89 05 d3 50 00 00 	mov    %rax,0x50d3(%rip)        # cf30 <g_717+0x10>
    7e5d:	48 8b 05 cc 50 00 00 	mov    0x50cc(%rip),%rax        # cf30 <g_717+0x10>
    7e64:	48 8d 15 3d 4f 00 00 	lea    0x4f3d(%rip),%rdx        # cda8 <g_718+0x428>
    7e6b:	48 39 d0             	cmp    %rdx,%rax
    7e6e:	41 0f 94 c5          	sete   %r13b
    7e72:	48 8d 85 e0 f5 ff ff 	lea    -0xa20(%rbp),%rax
    7e79:	48 39 85 90 f7 ff ff 	cmp    %rax,-0x870(%rbp)
    7e80:	0f 94 c0             	sete   %al
    7e83:	0f b6 c0             	movzbl %al,%eax
    7e86:	be 04 00 00 00       	mov    $0x4,%esi
    7e8b:	89 c7                	mov    %eax,%edi
    7e8d:	e8 a3 b4 ff ff       	callq  3335 <safe_rshift_func_int8_t_s_s>
    7e92:	0f be d0             	movsbl %al,%edx
    7e95:	48 8b 85 60 f6 ff ff 	mov    -0x9a0(%rbp),%rax
    7e9c:	89 10                	mov    %edx,(%rax)
    7e9e:	48 8b 85 60 f6 ff ff 	mov    -0x9a0(%rbp),%rax
    7ea5:	8b 00                	mov    (%rax),%eax
    7ea7:	85 c0                	test   %eax,%eax
    7ea9:	74 20                	je     7ecb <func_31+0x2a06>
    7eab:	48 8b 05 96 50 00 00 	mov    0x5096(%rip),%rax        # cf48 <g_723>
    7eb2:	48 85 c0             	test   %rax,%rax
    7eb5:	75 14                	jne    7ecb <func_31+0x2a06>
    7eb7:	48 8b 85 60 f6 ff ff 	mov    -0x9a0(%rbp),%rax
    7ebe:	8b 00                	mov    (%rax),%eax
    7ec0:	85 c0                	test   %eax,%eax
    7ec2:	74 07                	je     7ecb <func_31+0x2a06>
    7ec4:	b8 01 00 00 00       	mov    $0x1,%eax
    7ec9:	eb 05                	jmp    7ed0 <func_31+0x2a0b>
    7ecb:	b8 00 00 00 00       	mov    $0x0,%eax
    7ed0:	3b 85 b4 f5 ff ff    	cmp    -0xa4c(%rbp),%eax
    7ed6:	0f 9c c0             	setl   %al
    7ed9:	44 21 e8             	and    %r13d,%eax
    7edc:	0f b6 c0             	movzbl %al,%eax
    7edf:	89 85 24 f6 ff ff    	mov    %eax,-0x9dc(%rbp)
    7ee5:	8b 85 b4 f5 ff ff    	mov    -0xa4c(%rbp),%eax
    7eeb:	23 85 24 f6 ff ff    	and    -0x9dc(%rbp),%eax
    7ef1:	41 39 c4             	cmp    %eax,%r12d
    7ef4:	0f 92 c0             	setb   %al
    7ef7:	0f b6 c0             	movzbl %al,%eax
    7efa:	48 89 de             	mov    %rbx,%rsi
    7efd:	48 89 c7             	mov    %rax,%rdi
    7f00:	e8 29 c1 ff ff       	callq  402e <safe_add_func_uint64_t_u_u>
    7f05:	ba 00 00 00 00       	mov    $0x0,%edx
    7f0a:	48 8b 85 98 f7 ff ff 	mov    -0x868(%rbp),%rax
    7f11:	8b 00                	mov    (%rax),%eax
    7f13:	31 c2                	xor    %eax,%edx
    7f15:	48 8b 85 98 f7 ff ff 	mov    -0x868(%rbp),%rax
    7f1c:	89 10                	mov    %edx,(%rax)
    7f1e:	c6 05 5b 41 00 00 00 	movb   $0x0,0x415b(%rip)        # c080 <g_274>
    7f25:	90                   	nop
    7f26:	0f b6 05 53 41 00 00 	movzbl 0x4153(%rip),%eax        # c080 <g_274>
    7f2d:	84 c0                	test   %al,%al
    7f2f:	78 09                	js     7f3a <func_31+0x2a75>
    7f31:	48 8b 85 58 f6 ff ff 	mov    -0x9a8(%rbp),%rax
    7f38:	eb 26                	jmp    7f60 <func_31+0x2a9b>
    7f3a:	0f b6 05 5f 54 00 00 	movzbl 0x545f(%rip),%eax        # d3a0 <g_295>
    7f41:	83 c0 01             	add    $0x1,%eax
    7f44:	88 05 56 54 00 00    	mov    %al,0x5456(%rip)        # d3a0 <g_295>
    7f4a:	0f b6 05 4f 54 00 00 	movzbl 0x544f(%rip),%eax        # d3a0 <g_295>
    7f51:	84 c0                	test   %al,%al
    7f53:	0f 84 e0 fd ff ff    	je     7d39 <func_31+0x2874>
    7f59:	48 8d 05 08 49 00 00 	lea    0x4908(%rip),%rax        # c868 <g_22>
    7f60:	48 8b 5d c8          	mov    -0x38(%rbp),%rbx
    7f64:	64 48 33 1c 25 28 00 	xor    %fs:0x28,%rbx
    7f6b:	00 00 
    7f6d:	74 05                	je     7f74 <func_31+0x2aaf>
    7f6f:	e8 fc b0 ff ff       	callq  3070 <__stack_chk_fail@plt>
    7f74:	48 81 c4 48 0a 00 00 	add    $0xa48,%rsp
    7f7b:	5b                   	pop    %rbx
    7f7c:	41 5c                	pop    %r12
    7f7e:	41 5d                	pop    %r13
    7f80:	41 5e                	pop    %r14
    7f82:	41 5f                	pop    %r15
    7f84:	5d                   	pop    %rbp
    7f85:	c3                   	retq   

0000000000007f86 <func_36>:
    7f86:	f3 0f 1e fa          	endbr64 
    7f8a:	55                   	push   %rbp
    7f8b:	48 89 e5             	mov    %rsp,%rbp
    7f8e:	41 54                	push   %r12
    7f90:	53                   	push   %rbx
    7f91:	48 81 ec 00 09 00 00 	sub    $0x900,%rsp
    7f98:	89 f0                	mov    %esi,%eax
    7f9a:	89 95 04 f7 ff ff    	mov    %edx,-0x8fc(%rbp)
    7fa0:	48 89 8d f8 f6 ff ff 	mov    %rcx,-0x908(%rbp)
    7fa7:	4c 89 85 f0 f6 ff ff 	mov    %r8,-0x910(%rbp)
    7fae:	89 fa                	mov    %edi,%edx
    7fb0:	88 95 0c f7 ff ff    	mov    %dl,-0x8f4(%rbp)
    7fb6:	66 89 85 08 f7 ff ff 	mov    %ax,-0x8f8(%rbp)
    7fbd:	64 48 8b 04 25 28 00 	mov    %fs:0x28,%rax
    7fc4:	00 00 
    7fc6:	48 89 45 e8          	mov    %rax,-0x18(%rbp)
    7fca:	31 c0                	xor    %eax,%eax
    7fcc:	48 8d 05 95 40 00 00 	lea    0x4095(%rip),%rax        # c068 <g_146>
    7fd3:	48 89 85 38 f7 ff ff 	mov    %rax,-0x8c8(%rbp)
    7fda:	48 c7 85 40 f7 ff ff 	movq   $0x7,-0x8c0(%rbp)
    7fe1:	07 00 00 00 
    7fe5:	48 8d 85 70 f7 ff ff 	lea    -0x890(%rbp),%rax
    7fec:	48 83 c0 08          	add    $0x8,%rax
    7ff0:	48 89 85 30 f7 ff ff 	mov    %rax,-0x8d0(%rbp)
    7ff7:	48 8d 85 30 f7 ff ff 	lea    -0x8d0(%rbp),%rax
    7ffe:	48 89 85 48 f7 ff ff 	mov    %rax,-0x8b8(%rbp)
    8005:	48 8d 85 e0 f9 ff ff 	lea    -0x620(%rbp),%rax
    800c:	48 8d 15 6d 43 00 00 	lea    0x436d(%rip),%rdx        # c380 <g_790+0x28c>
    8013:	b9 50 00 00 00       	mov    $0x50,%ecx
    8018:	48 89 c7             	mov    %rax,%rdi
    801b:	48 89 d6             	mov    %rdx,%rsi
    801e:	f3 48 a5             	rep movsq %ds:(%rsi),%es:(%rdi)
    8021:	48 8d 85 80 f7 ff ff 	lea    -0x880(%rbp),%rax
    8028:	48 8d 15 d1 45 00 00 	lea    0x45d1(%rip),%rdx        # c600 <g_790+0x50c>
    802f:	b9 4b 00 00 00       	mov    $0x4b,%ecx
    8034:	48 89 c7             	mov    %rax,%rdi
    8037:	48 89 d6             	mov    %rdx,%rsi
    803a:	f3 48 a5             	rep movsq %ds:(%rsi),%es:(%rdi)
    803d:	48 c7 85 50 f7 ff ff 	movq   $0x0,-0x8b0(%rbp)
    8044:	00 00 00 00 
    8048:	66 c7 85 1a f7 ff ff 	movw   $0x8567,-0x8e6(%rbp)
    804f:	67 85 
    8051:	48 8d 85 60 fc ff ff 	lea    -0x3a0(%rbp),%rax
    8058:	48 8d 15 01 10 00 00 	lea    0x1001(%rip),%rdx        # 9060 <_IO_stdin_used+0x60>
    805f:	b9 70 00 00 00       	mov    $0x70,%ecx
    8064:	48 89 c7             	mov    %rax,%rdi
    8067:	48 89 d6             	mov    %rdx,%rsi
    806a:	f3 48 a5             	rep movsq %ds:(%rsi),%es:(%rdi)
    806d:	48 c7 85 58 f7 ff ff 	movq   $0x0,-0x8a8(%rbp)
    8074:	00 00 00 00 
    8078:	c7 85 1c f7 ff ff 00 	movl   $0x0,-0x8e4(%rbp)
    807f:	00 00 00 
    8082:	eb 1e                	jmp    80a2 <func_36+0x11c>
    8084:	8b 85 1c f7 ff ff    	mov    -0x8e4(%rbp),%eax
    808a:	48 98                	cltq   
    808c:	48 8d 15 d5 3f 00 00 	lea    0x3fd5(%rip),%rdx        # c068 <g_146>
    8093:	48 89 94 c5 70 f7 ff 	mov    %rdx,-0x890(%rbp,%rax,8)
    809a:	ff 
    809b:	83 85 1c f7 ff ff 01 	addl   $0x1,-0x8e4(%rbp)
    80a2:	83 bd 1c f7 ff ff 01 	cmpl   $0x1,-0x8e4(%rbp)
    80a9:	7e d9                	jle    8084 <func_36+0xfe>
    80ab:	44 8b 25 a6 3f 00 00 	mov    0x3fa6(%rip),%r12d        # c058 <g_120+0x18>
    80b2:	48 8b 05 6f 3f 00 00 	mov    0x3f6f(%rip),%rax        # c028 <g_85>
    80b9:	0f be d8             	movsbl %al,%ebx
    80bc:	48 8b 85 40 f7 ff ff 	mov    -0x8c0(%rbp),%rax
    80c3:	89 c2                	mov    %eax,%edx
    80c5:	48 8b 05 bc 47 00 00 	mov    0x47bc(%rip),%rax        # c888 <g_145>
    80cc:	48 39 85 38 f7 ff ff 	cmp    %rax,-0x8c8(%rbp)
    80d3:	0f 95 c0             	setne  %al
    80d6:	0f b6 c0             	movzbl %al,%eax
    80d9:	89 d6                	mov    %edx,%esi
    80db:	89 c7                	mov    %eax,%edi
    80dd:	e8 ee bd ff ff       	callq  3ed0 <safe_sub_func_uint32_t_u_u>
    80e2:	83 f0 06             	xor    $0x6,%eax
    80e5:	0f be d0             	movsbl %al,%edx
    80e8:	8b 05 46 3f 00 00    	mov    0x3f46(%rip),%eax        # c034 <g_116>
    80ee:	0f be c0             	movsbl %al,%eax
    80f1:	89 d6                	mov    %edx,%esi
    80f3:	89 c7                	mov    %eax,%edi
    80f5:	e8 f8 b0 ff ff       	callq  31f2 <safe_sub_func_int8_t_s_s>
    80fa:	66 98                	cbtw   
    80fc:	0f b7 c0             	movzwl %ax,%eax
    80ff:	be 00 00 00 00       	mov    $0x0,%esi
    8104:	89 c7                	mov    %eax,%edi
    8106:	e8 32 bc ff ff       	callq  3d3d <safe_mul_func_uint16_t_u_u>
    810b:	48 8b 85 40 f7 ff ff 	mov    -0x8c0(%rbp),%rax
    8112:	0f be c0             	movsbl %al,%eax
    8115:	89 de                	mov    %ebx,%esi
    8117:	89 c7                	mov    %eax,%edi
    8119:	e8 f4 b0 ff ff       	callq  3212 <safe_mul_func_int8_t_s_s>
    811e:	66 98                	cbtw   
    8120:	0f b7 d0             	movzwl %ax,%edx
    8123:	0f b7 85 08 f7 ff ff 	movzwl -0x8f8(%rbp),%eax
    812a:	89 d6                	mov    %edx,%esi
    812c:	89 c7                	mov    %eax,%edi
    812e:	e8 5b bc ff ff       	callq  3d8e <safe_div_func_uint16_t_u_u>
    8133:	0f b7 c0             	movzwl %ax,%eax
    8136:	39 85 04 f7 ff ff    	cmp    %eax,-0x8fc(%rbp)
    813c:	0f 94 c0             	sete   %al
    813f:	0f b6 c0             	movzbl %al,%eax
    8142:	41 39 c4             	cmp    %eax,%r12d
    8145:	0f 92 c0             	setb   %al
    8148:	0f b6 c0             	movzbl %al,%eax
    814b:	39 85 04 f7 ff ff    	cmp    %eax,-0x8fc(%rbp)
    8151:	0f 9c c0             	setl   %al
    8154:	0f b6 d8             	movzbl %al,%ebx
    8157:	0f b6 05 02 3f 00 00 	movzbl 0x3f02(%rip),%eax        # c060 <g_124>
    815e:	66 98                	cbtw   
    8160:	0f b7 c0             	movzwl %ax,%eax
    8163:	be 0d 00 00 00       	mov    $0xd,%esi
    8168:	89 c7                	mov    %eax,%edi
    816a:	e8 97 bc ff ff       	callq  3e06 <safe_lshift_func_uint16_t_u_u>
    816f:	0f b7 c0             	movzwl %ax,%eax
    8172:	89 de                	mov    %ebx,%esi
    8174:	89 c7                	mov    %eax,%edi
    8176:	e8 ff bc ff ff       	callq  3e7a <safe_rshift_func_uint16_t_u_u>
    817b:	0f be c0             	movsbl %al,%eax
    817e:	be de ff ff ff       	mov    $0xffffffde,%esi
    8183:	89 c7                	mov    %eax,%edi
    8185:	e8 88 b0 ff ff       	callq  3212 <safe_mul_func_int8_t_s_s>
    818a:	48 8b 85 48 f7 ff ff 	mov    -0x8b8(%rbp),%rax
    8191:	48 c7 00 00 00 00 00 	movq   $0x0,(%rax)
    8198:	48 8b 05 d1 46 00 00 	mov    0x46d1(%rip),%rax        # c870 <g_64>
    819f:	48 8b 95 40 f7 ff ff 	mov    -0x8c0(%rbp),%rdx
    81a6:	89 10                	mov    %edx,(%rax)
    81a8:	48 8b 05 b9 3e 00 00 	mov    0x3eb9(%rip),%rax        # c068 <g_146>
    81af:	0f b6 d8             	movzbl %al,%ebx
    81b2:	48 8b 85 f0 f6 ff ff 	mov    -0x910(%rbp),%rax
    81b9:	48 8b 00             	mov    (%rax),%rax
    81bc:	0f b7 00             	movzwl (%rax),%eax
    81bf:	44 0f bf e0          	movswl %ax,%r12d
    81c3:	48 8b 05 96 46 00 00 	mov    0x4696(%rip),%rax        # c860 <g_18>
    81ca:	0f b7 00             	movzwl (%rax),%eax
    81cd:	98                   	cwtl   
    81ce:	89 c6                	mov    %eax,%esi
    81d0:	bf 00 00 00 00       	mov    $0x0,%edi
    81d5:	e8 50 b3 ff ff       	callq  352a <safe_rshift_func_int16_t_s_s>
    81da:	8b 15 78 3e 00 00    	mov    0x3e78(%rip),%edx        # c058 <g_120+0x18>
    81e0:	8b 85 04 f7 ff ff    	mov    -0x8fc(%rbp),%eax
    81e6:	39 c2                	cmp    %eax,%edx
    81e8:	0f 95 c0             	setne  %al
    81eb:	0f b6 c0             	movzbl %al,%eax
    81ee:	44 89 e6             	mov    %r12d,%esi
    81f1:	89 c7                	mov    %eax,%edi
    81f3:	e8 32 b3 ff ff       	callq  352a <safe_rshift_func_int16_t_s_s>
    81f8:	0f b6 c0             	movzbl %al,%eax
    81fb:	89 de                	mov    %ebx,%esi
    81fd:	89 c7                	mov    %eax,%edi
    81ff:	e8 8f b9 ff ff       	callq  3b93 <safe_mul_func_uint8_t_u_u>
    8204:	0f b6 c0             	movzbl %al,%eax
    8207:	be b3 06 12 05       	mov    $0x51206b3,%esi
    820c:	89 c7                	mov    %eax,%edi
    820e:	e8 f2 b3 ff ff       	callq  3605 <safe_sub_func_int32_t_s_s>
    8213:	8b 05 3f 3e 00 00    	mov    0x3e3f(%rip),%eax        # c058 <g_120+0x18>
    8219:	83 f0 01             	xor    $0x1,%eax
    821c:	0f be c0             	movsbl %al,%eax
    821f:	89 c7                	mov    %eax,%edi
    8221:	e8 99 af ff ff       	callq  31bf <safe_unary_minus_func_int8_t_s>
    8226:	0f b6 15 33 3e 00 00 	movzbl 0x3e33(%rip),%edx        # c060 <g_124>
    822d:	31 d0                	xor    %edx,%eax
    822f:	88 05 2b 3e 00 00    	mov    %al,0x3e2b(%rip)        # c060 <g_124>
    8235:	0f b6 05 24 3e 00 00 	movzbl 0x3e24(%rip),%eax        # c060 <g_124>
    823c:	84 c0                	test   %al,%al
    823e:	75 0c                	jne    824c <func_36+0x2c6>
    8240:	0f b7 05 dd 3d 00 00 	movzwl 0x3ddd(%rip),%eax        # c024 <g_17>
    8247:	66 85 c0             	test   %ax,%ax
    824a:	74 07                	je     8253 <func_36+0x2cd>
    824c:	b8 01 00 00 00       	mov    $0x1,%eax
    8251:	eb 05                	jmp    8258 <func_36+0x2d2>
    8253:	b8 00 00 00 00       	mov    $0x0,%eax
    8258:	89 05 1a 3e 00 00    	mov    %eax,0x3e1a(%rip)        # c078 <g_175>
    825e:	c6 05 fb 3d 00 00 e2 	movb   $0xe2,0x3dfb(%rip)        # c060 <g_124>
    8265:	eb 67                	jmp    82ce <func_36+0x348>
    8267:	48 8d 85 70 f7 ff ff 	lea    -0x890(%rbp),%rax
    826e:	48 83 c0 08          	add    $0x8,%rax
    8272:	48 89 85 60 f7 ff ff 	mov    %rax,-0x8a0(%rbp)
    8279:	c7 85 20 f7 ff ff 00 	movl   $0x0,-0x8e0(%rbp)
    8280:	00 00 00 
    8283:	c7 85 24 f7 ff ff f8 	movl   $0xfffffff8,-0x8dc(%rbp)
    828a:	ff ff ff 
    828d:	48 8d 85 e0 f9 ff ff 	lea    -0x620(%rbp),%rax
    8294:	48 05 40 01 00 00    	add    $0x140,%rax
    829a:	48 89 85 68 f7 ff ff 	mov    %rax,-0x898(%rbp)
    82a1:	c7 85 28 f7 ff ff 8a 	movl   $0x818798a,-0x8d8(%rbp)
    82a8:	79 18 08 
    82ab:	c7 85 2c f7 ff ff ac 	movl   $0x4ef1c2ac,-0x8d4(%rbp)
    82b2:	c2 f1 4e 
    82b5:	80 bd 0c f7 ff ff 00 	cmpb   $0x0,-0x8f4(%rbp)
    82bc:	75 1d                	jne    82db <func_36+0x355>
    82be:	0f b6 05 9b 3d 00 00 	movzbl 0x3d9b(%rip),%eax        # c060 <g_124>
    82c5:	83 c0 01             	add    $0x1,%eax
    82c8:	88 05 92 3d 00 00    	mov    %al,0x3d92(%rip)        # c060 <g_124>
    82ce:	0f b6 05 8b 3d 00 00 	movzbl 0x3d8b(%rip),%eax        # c060 <g_124>
    82d5:	3c 15                	cmp    $0x15,%al
    82d7:	7e 8e                	jle    8267 <func_36+0x2e1>
    82d9:	eb 01                	jmp    82dc <func_36+0x356>
    82db:	90                   	nop
    82dc:	48 8b 85 58 f7 ff ff 	mov    -0x8a8(%rbp),%rax
    82e3:	48 8b 5d e8          	mov    -0x18(%rbp),%rbx
    82e7:	64 48 33 1c 25 28 00 	xor    %fs:0x28,%rbx
    82ee:	00 00 
    82f0:	74 05                	je     82f7 <func_36+0x371>
    82f2:	e8 79 ad ff ff       	callq  3070 <__stack_chk_fail@plt>
    82f7:	48 81 c4 00 09 00 00 	add    $0x900,%rsp
    82fe:	5b                   	pop    %rbx
    82ff:	41 5c                	pop    %r12
    8301:	5d                   	pop    %rbp
    8302:	c3                   	retq   

0000000000008303 <func_42>:
    8303:	f3 0f 1e fa          	endbr64 
    8307:	55                   	push   %rbp
    8308:	48 89 e5             	mov    %rsp,%rbp
    830b:	41 55                	push   %r13
    830d:	41 54                	push   %r12
    830f:	53                   	push   %rbx
    8310:	48 81 ec 98 00 00 00 	sub    $0x98,%rsp
    8317:	48 89 bd 58 ff ff ff 	mov    %rdi,-0xa8(%rbp)
    831e:	89 f0                	mov    %esi,%eax
    8320:	89 95 50 ff ff ff    	mov    %edx,-0xb0(%rbp)
    8326:	88 85 54 ff ff ff    	mov    %al,-0xac(%rbp)
    832c:	64 48 8b 04 25 28 00 	mov    %fs:0x28,%rax
    8333:	00 00 
    8335:	48 89 45 d8          	mov    %rax,-0x28(%rbp)
    8339:	31 c0                	xor    %eax,%eax
    833b:	48 8d 05 e2 3c 00 00 	lea    0x3ce2(%rip),%rax        # c024 <g_17>
    8342:	48 89 85 78 ff ff ff 	mov    %rax,-0x88(%rbp)
    8349:	c7 85 68 ff ff ff ba 	movl   $0x3ffb38ba,-0x98(%rbp)
    8350:	38 fb 3f 
    8353:	c7 45 b0 b4 86 33 60 	movl   $0x603386b4,-0x50(%rbp)
    835a:	c7 45 b4 dd 35 4f df 	movl   $0xdf4f35dd,-0x4c(%rbp)
    8361:	c7 45 b8 b4 86 33 60 	movl   $0x603386b4,-0x48(%rbp)
    8368:	c7 45 bc b4 86 33 60 	movl   $0x603386b4,-0x44(%rbp)
    836f:	c7 45 c0 dd 35 4f df 	movl   $0xdf4f35dd,-0x40(%rbp)
    8376:	c7 45 c4 b4 86 33 60 	movl   $0x603386b4,-0x3c(%rbp)
    837d:	c7 45 c8 b4 86 33 60 	movl   $0x603386b4,-0x38(%rbp)
    8384:	c7 45 cc dd 35 4f df 	movl   $0xdf4f35dd,-0x34(%rbp)
    838b:	c7 45 d0 b4 86 33 60 	movl   $0x603386b4,-0x30(%rbp)
    8392:	c7 45 d4 b4 86 33 60 	movl   $0x603386b4,-0x2c(%rbp)
    8399:	48 c7 85 70 ff ff ff 	movq   $0xfffffffffffffff6,-0x90(%rbp)
    83a0:	f6 ff ff ff 
    83a4:	48 8d 05 7d 3c 00 00 	lea    0x3c7d(%rip),%rax        # c028 <g_85>
    83ab:	48 89 45 80          	mov    %rax,-0x80(%rbp)
    83af:	48 c7 45 88 00 00 00 	movq   $0x0,-0x78(%rbp)
    83b6:	00 
    83b7:	c7 85 64 ff ff ff 00 	movl   $0x0,-0x9c(%rbp)
    83be:	00 00 00 
    83c1:	eb 18                	jmp    83db <func_42+0xd8>
    83c3:	8b 85 64 ff ff ff    	mov    -0x9c(%rbp),%eax
    83c9:	48 98                	cltq   
    83cb:	48 c7 44 c5 a0 00 00 	movq   $0x0,-0x60(%rbp,%rax,8)
    83d2:	00 00 
    83d4:	83 85 64 ff ff ff 01 	addl   $0x1,-0x9c(%rbp)
    83db:	83 bd 64 ff ff ff 01 	cmpl   $0x1,-0x9c(%rbp)
    83e2:	7e df                	jle    83c3 <func_42+0xc0>
    83e4:	48 83 bd 78 ff ff ff 	cmpq   $0x0,-0x88(%rbp)
    83eb:	00 
    83ec:	0f 95 c2             	setne  %dl
    83ef:	48 8b 05 7a 44 00 00 	mov    0x447a(%rip),%rax        # c870 <g_64>
    83f6:	0f b6 d2             	movzbl %dl,%edx
    83f9:	89 10                	mov    %edx,(%rax)
    83fb:	8b 5d b0             	mov    -0x50(%rbp),%ebx
    83fe:	8b 45 bc             	mov    -0x44(%rbp),%eax
    8401:	4c 63 e0             	movslq %eax,%r12
    8404:	0f b6 95 54 ff ff ff 	movzbl -0xac(%rbp),%edx
    840b:	48 83 ad 70 ff ff ff 	subq   $0x1,-0x90(%rbp)
    8412:	01 
    8413:	48 83 bd 70 ff ff ff 	cmpq   $0x0,-0x90(%rbp)
    841a:	00 
    841b:	0f 94 c0             	sete   %al
    841e:	0f b6 c8             	movzbl %al,%ecx
    8421:	8b 45 d0             	mov    -0x30(%rbp),%eax
    8424:	39 c1                	cmp    %eax,%ecx
    8426:	0f 9f c0             	setg   %al
    8429:	0f b6 f0             	movzbl %al,%esi
    842c:	48 8b 45 80          	mov    -0x80(%rbp),%rax
    8430:	48 8b 08             	mov    (%rax),%rcx
    8433:	48 63 c6             	movslq %esi,%rax
    8436:	48 31 c1             	xor    %rax,%rcx
    8439:	48 8b 45 80          	mov    -0x80(%rbp),%rax
    843d:	48 89 08             	mov    %rcx,(%rax)
    8440:	48 8b 45 80          	mov    -0x80(%rbp),%rax
    8444:	48 8b 00             	mov    (%rax),%rax
    8447:	48 89 d6             	mov    %rdx,%rsi
    844a:	48 89 c7             	mov    %rax,%rdi
    844d:	e8 56 b4 ff ff       	callq  38a8 <safe_sub_func_int64_t_s_s>
    8452:	bf 01 00 00 00       	mov    $0x1,%edi
    8457:	e8 e9 b6 ff ff       	callq  3b45 <safe_unary_minus_func_uint8_t_u>
    845c:	8b 45 bc             	mov    -0x44(%rbp),%eax
    845f:	c1 e8 1f             	shr    $0x1f,%eax
    8462:	0f b6 d0             	movzbl %al,%edx
    8465:	0f b7 05 ba 3b 00 00 	movzwl 0x3bba(%rip),%eax        # c026 <g_19>
    846c:	98                   	cwtl   
    846d:	39 c2                	cmp    %eax,%edx
    846f:	4c 89 e6             	mov    %r12,%rsi
    8472:	48 bf 90 58 51 ad 56 	movabs $0x6ea38556ad515890,%rdi
    8479:	85 a3 6e 
    847c:	e8 27 b4 ff ff       	callq  38a8 <safe_sub_func_int64_t_s_s>
    8481:	0f b6 85 54 ff ff ff 	movzbl -0xac(%rbp),%eax
    8488:	89 c6                	mov    %eax,%esi
    848a:	bf 3e b1 5e d3       	mov    $0xd35eb13e,%edi
    848f:	e8 3c ba ff ff       	callq  3ed0 <safe_sub_func_uint32_t_u_u>
    8494:	98                   	cwtl   
    8495:	89 de                	mov    %ebx,%esi
    8497:	89 c7                	mov    %eax,%edi
    8499:	e8 8c b0 ff ff       	callq  352a <safe_rshift_func_int16_t_s_s>
    849e:	66 85 c0             	test   %ax,%ax
    84a1:	74 13                	je     84b6 <func_42+0x1b3>
    84a3:	48 8b 05 7e 3b 00 00 	mov    0x3b7e(%rip),%rax        # c028 <g_85>
    84aa:	48 85 c0             	test   %rax,%rax
    84ad:	74 07                	je     84b6 <func_42+0x1b3>
    84af:	ba 01 00 00 00       	mov    $0x1,%edx
    84b4:	eb 05                	jmp    84bb <func_42+0x1b8>
    84b6:	ba 00 00 00 00       	mov    $0x0,%edx
    84bb:	8b 85 68 ff ff ff    	mov    -0x98(%rbp),%eax
    84c1:	89 c6                	mov    %eax,%esi
    84c3:	89 d7                	mov    %edx,%edi
    84c5:	e8 35 b2 ff ff       	callq  36ff <safe_div_func_int32_t_s_s>
    84ca:	0f b6 c0             	movzbl %al,%eax
    84cd:	89 c6                	mov    %eax,%esi
    84cf:	bf 84 00 00 00       	mov    $0x84,%edi
    84d4:	e8 ba b6 ff ff       	callq  3b93 <safe_mul_func_uint8_t_u_u>
    84d9:	48 8b 05 88 43 00 00 	mov    0x4388(%rip),%rax        # c868 <g_22>
    84e0:	48 8b 00             	mov    (%rax),%rax
    84e3:	48 39 85 78 ff ff ff 	cmp    %rax,-0x88(%rbp)
    84ea:	0f 95 c0             	setne  %al
    84ed:	0f b6 c0             	movzbl %al,%eax
    84f0:	39 85 68 ff ff ff    	cmp    %eax,-0x98(%rbp)
    84f6:	0f 94 c0             	sete   %al
    84f9:	0f b6 c0             	movzbl %al,%eax
    84fc:	89 c2                	mov    %eax,%edx
    84fe:	0f b7 05 2b 3b 00 00 	movzwl 0x3b2b(%rip),%eax        # c030 <g_93>
    8505:	21 d0                	and    %edx,%eax
    8507:	66 89 05 22 3b 00 00 	mov    %ax,0x3b22(%rip)        # c030 <g_93>
    850e:	48 c7 85 70 ff ff ff 	movq   $0x0,-0x90(%rbp)
    8515:	00 00 00 00 
    8519:	e9 78 01 00 00       	jmpq   8696 <func_42+0x393>
    851e:	c7 85 6c ff ff ff 04 	movl   $0x4,-0x94(%rbp)
    8525:	00 00 00 
    8528:	48 8d 05 05 3b 00 00 	lea    0x3b05(%rip),%rax        # c034 <g_116>
    852f:	48 89 45 90          	mov    %rax,-0x70(%rbp)
    8533:	48 8d 05 ea 3a 00 00 	lea    0x3aea(%rip),%rax        # c024 <g_17>
    853a:	48 89 45 98          	mov    %rax,-0x68(%rbp)
    853e:	8b 05 4c 4e 00 00    	mov    0x4e4c(%rip),%eax        # d390 <g_24>
    8544:	48 63 d8             	movslq %eax,%rbx
    8547:	8b 85 6c ff ff ff    	mov    -0x94(%rbp),%eax
    854d:	44 0f b6 e0          	movzbl %al,%r12d
    8551:	48 8b 05 08 43 00 00 	mov    0x4308(%rip),%rax        # c860 <g_18>
    8558:	0f b7 00             	movzwl (%rax),%eax
    855b:	66 85 c0             	test   %ax,%ax
    855e:	75 3b                	jne    859b <func_42+0x298>
    8560:	48 8b 05 01 43 00 00 	mov    0x4301(%rip),%rax        # c868 <g_22>
    8567:	48 8b 00             	mov    (%rax),%rax
    856a:	0f b7 00             	movzwl (%rax),%eax
    856d:	0f b7 d0             	movzwl %ax,%edx
    8570:	8b 85 6c ff ff ff    	mov    -0x94(%rbp),%eax
    8576:	0f b7 c0             	movzwl %ax,%eax
    8579:	89 d6                	mov    %edx,%esi
    857b:	89 c7                	mov    %eax,%edi
    857d:	e8 0c b8 ff ff       	callq  3d8e <safe_div_func_uint16_t_u_u>
    8582:	66 85 c0             	test   %ax,%ax
    8585:	75 14                	jne    859b <func_42+0x298>
    8587:	0f b7 05 96 3a 00 00 	movzwl 0x3a96(%rip),%eax        # c024 <g_17>
    858e:	66 85 c0             	test   %ax,%ax
    8591:	74 09                	je     859c <func_42+0x299>
    8593:	8b 05 f7 4d 00 00    	mov    0x4df7(%rip),%eax        # d390 <g_24>
    8599:	85 c0                	test   %eax,%eax
    859b:	90                   	nop
    859c:	48 8b 05 c5 42 00 00 	mov    0x42c5(%rip),%rax        # c868 <g_22>
    85a3:	48 8b 00             	mov    (%rax),%rax
    85a6:	0f b7 00             	movzwl (%rax),%eax
    85a9:	44 0f bf e8          	movswl %ax,%r13d
    85ad:	48 8b 45 90          	mov    -0x70(%rbp),%rax
    85b1:	8b 00                	mov    (%rax),%eax
    85b3:	8d 48 ff             	lea    -0x1(%rax),%ecx
    85b6:	48 8b 55 90          	mov    -0x70(%rbp),%rdx
    85ba:	89 0a                	mov    %ecx,(%rdx)
    85bc:	85 c0                	test   %eax,%eax
    85be:	74 2d                	je     85ed <func_42+0x2ea>
    85c0:	48 83 7d 98 00       	cmpq   $0x0,-0x68(%rbp)
    85c5:	0f 95 c0             	setne  %al
    85c8:	0f b6 c0             	movzbl %al,%eax
    85cb:	89 05 87 3a 00 00    	mov    %eax,0x3a87(%rip)        # c058 <g_120+0x18>
    85d1:	8b 85 50 ff ff ff    	mov    -0xb0(%rbp),%eax
    85d7:	89 c7                	mov    %eax,%edi
    85d9:	e8 b8 af ff ff       	callq  3596 <safe_unary_minus_func_int32_t_s>
    85de:	39 85 50 ff ff ff    	cmp    %eax,-0xb0(%rbp)
    85e4:	72 07                	jb     85ed <func_42+0x2ea>
    85e6:	b8 01 00 00 00       	mov    $0x1,%eax
    85eb:	eb 05                	jmp    85f2 <func_42+0x2ef>
    85ed:	b8 00 00 00 00       	mov    $0x0,%eax
    85f2:	98                   	cwtl   
    85f3:	44 89 ee             	mov    %r13d,%esi
    85f6:	89 c7                	mov    %eax,%edi
    85f8:	e8 b6 ad ff ff       	callq  33b3 <safe_add_func_int16_t_s_s>
    85fd:	0f bf d0             	movswl %ax,%edx
    8600:	0f b7 05 29 3a 00 00 	movzwl 0x3a29(%rip),%eax        # c030 <g_93>
    8607:	0f b7 c0             	movzwl %ax,%eax
    860a:	39 c2                	cmp    %eax,%edx
    860c:	48 8b 05 55 42 00 00 	mov    0x4255(%rip),%rax        # c868 <g_22>
    8613:	48 8b 00             	mov    (%rax),%rax
    8616:	0f b7 00             	movzwl (%rax),%eax
    8619:	48 0f bf d0          	movswq %ax,%rdx
    861d:	48 8b 45 80          	mov    -0x80(%rbp),%rax
    8621:	48 89 10             	mov    %rdx,(%rax)
    8624:	be 30 73 00 00       	mov    $0x7330,%esi
    8629:	bf 01 00 00 00       	mov    $0x1,%edi
    862e:	e8 29 b7 ff ff       	callq  3d5c <safe_mod_func_uint16_t_u_u>
    8633:	0f b6 c0             	movzbl %al,%eax
    8636:	44 89 e6             	mov    %r12d,%esi
    8639:	89 c7                	mov    %eax,%edi
    863b:	e8 9b b5 ff ff       	callq  3bdb <safe_div_func_uint8_t_u_u>
    8640:	0f b6 c0             	movzbl %al,%eax
    8643:	48 89 de             	mov    %rbx,%rsi
    8646:	48 89 c7             	mov    %rax,%rdi
    8649:	e8 fd b9 ff ff       	callq  404b <safe_sub_func_uint64_t_u_u>
    864e:	8b 95 6c ff ff ff    	mov    -0x94(%rbp),%edx
    8654:	48 63 d2             	movslq %edx,%rdx
    8657:	48 39 d0             	cmp    %rdx,%rax
    865a:	0f 92 c0             	setb   %al
    865d:	0f b6 c0             	movzbl %al,%eax
    8660:	48 8b 1d 09 42 00 00 	mov    0x4209(%rip),%rbx        # c870 <g_64>
    8667:	89 c6                	mov    %eax,%esi
    8669:	bf f7 ff ff ff       	mov    $0xfffffff7,%edi
    866e:	e8 43 af ff ff       	callq  35b6 <safe_add_func_int32_t_s_s>
    8673:	89 03                	mov    %eax,(%rbx)
    8675:	48 8b 85 70 ff ff ff 	mov    -0x90(%rbp),%rax
    867c:	0f be c0             	movsbl %al,%eax
    867f:	be 09 00 00 00       	mov    $0x9,%esi
    8684:	89 c7                	mov    %eax,%edi
    8686:	e8 49 ab ff ff       	callq  31d4 <safe_add_func_int8_t_s_s>
    868b:	48 0f be c0          	movsbq %al,%rax
    868f:	48 89 85 70 ff ff ff 	mov    %rax,-0x90(%rbp)
    8696:	48 83 bd 70 ff ff ff 	cmpq   $0x15,-0x90(%rbp)
    869d:	15 
    869e:	0f 84 7a fe ff ff    	je     851e <func_42+0x21b>
    86a4:	8b 85 50 ff ff ff    	mov    -0xb0(%rbp),%eax
    86aa:	48 8b 5d d8          	mov    -0x28(%rbp),%rbx
    86ae:	64 48 33 1c 25 28 00 	xor    %fs:0x28,%rbx
    86b5:	00 00 
    86b7:	74 05                	je     86be <func_42+0x3bb>
    86b9:	e8 b2 a9 ff ff       	callq  3070 <__stack_chk_fail@plt>
    86be:	48 81 c4 98 00 00 00 	add    $0x98,%rsp
    86c5:	5b                   	pop    %rbx
    86c6:	41 5c                	pop    %r12
    86c8:	41 5d                	pop    %r13
    86ca:	5d                   	pop    %rbp
    86cb:	c3                   	retq   

00000000000086cc <func_46>:
    86cc:	f3 0f 1e fa          	endbr64 
    86d0:	55                   	push   %rbp
    86d1:	48 89 e5             	mov    %rsp,%rbp
    86d4:	48 83 ec 70          	sub    $0x70,%rsp
    86d8:	89 7d ac             	mov    %edi,-0x54(%rbp)
    86db:	89 f0                	mov    %esi,%eax
    86dd:	89 55 a4             	mov    %edx,-0x5c(%rbp)
    86e0:	89 ca                	mov    %ecx,%edx
    86e2:	4c 89 45 98          	mov    %r8,-0x68(%rbp)
    86e6:	66 89 45 a8          	mov    %ax,-0x58(%rbp)
    86ea:	89 d0                	mov    %edx,%eax
    86ec:	88 45 a0             	mov    %al,-0x60(%rbp)
    86ef:	64 48 8b 04 25 28 00 	mov    %fs:0x28,%rax
    86f6:	00 00 
    86f8:	48 89 45 f8          	mov    %rax,-0x8(%rbp)
    86fc:	31 c0                	xor    %eax,%eax
    86fe:	48 8d 05 21 39 00 00 	lea    0x3921(%rip),%rax        # c026 <g_19>
    8705:	48 89 45 c0          	mov    %rax,-0x40(%rbp)
    8709:	48 8d 45 d8          	lea    -0x28(%rbp),%rax
    870d:	48 89 45 c8          	mov    %rax,-0x38(%rbp)
    8711:	48 c7 45 d0 00 00 00 	movq   $0x0,-0x30(%rbp)
    8718:	00 
    8719:	c7 45 b8 00 00 00 00 	movl   $0x0,-0x48(%rbp)
    8720:	eb 18                	jmp    873a <func_46+0x6e>
    8722:	8b 45 b8             	mov    -0x48(%rbp),%eax
    8725:	48 98                	cltq   
    8727:	48 b9 c5 ff 7d ec 28 	movabs $0xd4463028ec7dffc5,%rcx
    872e:	30 46 d4 
    8731:	48 89 4c c5 e0       	mov    %rcx,-0x20(%rbp,%rax,8)
    8736:	83 45 b8 01          	addl   $0x1,-0x48(%rbp)
    873a:	83 7d b8 02          	cmpl   $0x2,-0x48(%rbp)
    873e:	7e e2                	jle    8722 <func_46+0x56>
    8740:	c7 45 b8 00 00 00 00 	movl   $0x0,-0x48(%rbp)
    8747:	eb 2e                	jmp    8777 <func_46+0xab>
    8749:	c7 45 bc 00 00 00 00 	movl   $0x0,-0x44(%rbp)
    8750:	eb 1b                	jmp    876d <func_46+0xa1>
    8752:	8b 45 bc             	mov    -0x44(%rbp),%eax
    8755:	48 63 d0             	movslq %eax,%rdx
    8758:	8b 45 b8             	mov    -0x48(%rbp),%eax
    875b:	48 98                	cltq   
    875d:	48 01 c2             	add    %rax,%rdx
    8760:	48 8d 45 c0          	lea    -0x40(%rbp),%rax
    8764:	48 89 44 d5 d8       	mov    %rax,-0x28(%rbp,%rdx,8)
    8769:	83 45 bc 01          	addl   $0x1,-0x44(%rbp)
    876d:	83 7d bc 00          	cmpl   $0x0,-0x44(%rbp)
    8771:	7e df                	jle    8752 <func_46+0x86>
    8773:	83 45 b8 01          	addl   $0x1,-0x48(%rbp)
    8777:	83 7d b8 00          	cmpl   $0x0,-0x48(%rbp)
    877b:	7e cc                	jle    8749 <func_46+0x7d>
    877d:	48 8b 55 e8          	mov    -0x18(%rbp),%rdx
    8781:	48 8b 05 e8 40 00 00 	mov    0x40e8(%rip),%rax        # c870 <g_64>
    8788:	89 10                	mov    %edx,(%rax)
    878a:	48 8b 45 d0          	mov    -0x30(%rbp),%rax
    878e:	48 8b 75 f8          	mov    -0x8(%rbp),%rsi
    8792:	64 48 33 34 25 28 00 	xor    %fs:0x28,%rsi
    8799:	00 00 
    879b:	74 05                	je     87a2 <func_46+0xd6>
    879d:	e8 ce a8 ff ff       	callq  3070 <__stack_chk_fail@plt>
    87a2:	c9                   	leaveq 
    87a3:	c3                   	retq   

00000000000087a4 <func_56>:
    87a4:	f3 0f 1e fa          	endbr64 
    87a8:	55                   	push   %rbp
    87a9:	48 89 e5             	mov    %rsp,%rbp
    87ac:	89 7d ec             	mov    %edi,-0x14(%rbp)
    87af:	89 75 e8             	mov    %esi,-0x18(%rbp)
    87b2:	89 55 e4             	mov    %edx,-0x1c(%rbp)
    87b5:	48 8d 05 68 38 00 00 	lea    0x3868(%rip),%rax        # c024 <g_17>
    87bc:	48 89 45 f8          	mov    %rax,-0x8(%rbp)
    87c0:	48 8b 45 f8          	mov    -0x8(%rbp),%rax
    87c4:	5d                   	pop    %rbp
    87c5:	c3                   	retq   

00000000000087c6 <main>:
    87c6:	f3 0f 1e fa          	endbr64 
    87ca:	55                   	push   %rbp
    87cb:	48 89 e5             	mov    %rsp,%rbp
    87ce:	48 83 ec 20          	sub    $0x20,%rsp
    87d2:	89 7d ec             	mov    %edi,-0x14(%rbp)
    87d5:	48 89 75 e0          	mov    %rsi,-0x20(%rbp)
    87d9:	c7 45 fc 00 00 00 00 	movl   $0x0,-0x4(%rbp)
    87e0:	83 7d ec 02          	cmpl   $0x2,-0x14(%rbp)
    87e4:	75 25                	jne    880b <main+0x45>
    87e6:	48 8b 45 e0          	mov    -0x20(%rbp),%rax
    87ea:	48 83 c0 08          	add    $0x8,%rax
    87ee:	48 8b 00             	mov    (%rax),%rax
    87f1:	48 8d 35 e8 0b 00 00 	lea    0xbe8(%rip),%rsi        # 93e0 <_IO_stdin_used+0x3e0>
    87f8:	48 89 c7             	mov    %rax,%rdi
    87fb:	e8 90 a8 ff ff       	callq  3090 <strcmp@plt>
    8800:	85 c0                	test   %eax,%eax
    8802:	75 07                	jne    880b <main+0x45>
    8804:	c7 45 fc 01 00 00 00 	movl   $0x1,-0x4(%rbp)
    880b:	e8 79 a9 ff ff       	callq  3189 <platform_main_begin>
    8810:	e8 83 bd ff ff       	callq  4598 <crc32_gentab>
    8815:	e8 9b bf ff ff       	callq  47b5 <func_1>
    881a:	0f b7 05 03 38 00 00 	movzwl 0x3803(%rip),%eax        # c024 <g_17>
    8821:	48 0f bf c0          	movswq %ax,%rax
    8825:	8b 55 fc             	mov    -0x4(%rbp),%edx
    8828:	48 8d 35 b3 0b 00 00 	lea    0xbb3(%rip),%rsi        # 93e2 <_IO_stdin_used+0x3e2>
    882f:	48 89 c7             	mov    %rax,%rdi
    8832:	e8 bc be ff ff       	callq  46f3 <transparent_crc>
    8837:	0f b7 05 e8 37 00 00 	movzwl 0x37e8(%rip),%eax        # c026 <g_19>
    883e:	48 0f bf c0          	movswq %ax,%rax
    8842:	8b 55 fc             	mov    -0x4(%rbp),%edx
    8845:	48 8d 35 9b 0b 00 00 	lea    0xb9b(%rip),%rsi        # 93e7 <_IO_stdin_used+0x3e7>
    884c:	48 89 c7             	mov    %rax,%rdi
    884f:	e8 9f be ff ff       	callq  46f3 <transparent_crc>
    8854:	8b 05 36 4b 00 00    	mov    0x4b36(%rip),%eax        # d390 <g_24>
    885a:	48 98                	cltq   
    885c:	8b 55 fc             	mov    -0x4(%rbp),%edx
    885f:	48 8d 35 86 0b 00 00 	lea    0xb86(%rip),%rsi        # 93ec <_IO_stdin_used+0x3ec>
    8866:	48 89 c7             	mov    %rax,%rdi
    8869:	e8 85 be ff ff       	callq  46f3 <transparent_crc>
    886e:	48 8b 05 b3 37 00 00 	mov    0x37b3(%rip),%rax        # c028 <g_85>
    8875:	48 89 c1             	mov    %rax,%rcx
    8878:	8b 45 fc             	mov    -0x4(%rbp),%eax
    887b:	89 c2                	mov    %eax,%edx
    887d:	48 8d 35 6d 0b 00 00 	lea    0xb6d(%rip),%rsi        # 93f1 <_IO_stdin_used+0x3f1>
    8884:	48 89 cf             	mov    %rcx,%rdi
    8887:	e8 67 be ff ff       	callq  46f3 <transparent_crc>
    888c:	0f b7 05 9d 37 00 00 	movzwl 0x379d(%rip),%eax        # c030 <g_93>
    8893:	0f b7 c0             	movzwl %ax,%eax
    8896:	8b 55 fc             	mov    -0x4(%rbp),%edx
    8899:	48 8d 35 56 0b 00 00 	lea    0xb56(%rip),%rsi        # 93f6 <_IO_stdin_used+0x3f6>
    88a0:	48 89 c7             	mov    %rax,%rdi
    88a3:	e8 4b be ff ff       	callq  46f3 <transparent_crc>
    88a8:	8b 05 86 37 00 00    	mov    0x3786(%rip),%eax        # c034 <g_116>
    88ae:	89 c1                	mov    %eax,%ecx
    88b0:	8b 45 fc             	mov    -0x4(%rbp),%eax
    88b3:	89 c2                	mov    %eax,%edx
    88b5:	48 8d 35 3f 0b 00 00 	lea    0xb3f(%rip),%rsi        # 93fb <_IO_stdin_used+0x3fb>
    88bc:	48 89 cf             	mov    %rcx,%rdi
    88bf:	e8 2f be ff ff       	callq  46f3 <transparent_crc>
    88c4:	c7 45 f4 00 00 00 00 	movl   $0x0,-0xc(%rbp)
    88cb:	eb 4d                	jmp    891a <main+0x154>
    88cd:	8b 45 f4             	mov    -0xc(%rbp),%eax
    88d0:	48 98                	cltq   
    88d2:	48 8d 14 85 00 00 00 	lea    0x0(,%rax,4),%rdx
    88d9:	00 
    88da:	48 8d 05 5f 37 00 00 	lea    0x375f(%rip),%rax        # c040 <g_120>
    88e1:	8b 04 02             	mov    (%rdx,%rax,1),%eax
    88e4:	89 c1                	mov    %eax,%ecx
    88e6:	8b 45 fc             	mov    -0x4(%rbp),%eax
    88e9:	89 c2                	mov    %eax,%edx
    88eb:	48 8d 35 0f 0b 00 00 	lea    0xb0f(%rip),%rsi        # 9401 <_IO_stdin_used+0x401>
    88f2:	48 89 cf             	mov    %rcx,%rdi
    88f5:	e8 f9 bd ff ff       	callq  46f3 <transparent_crc>
    88fa:	83 7d fc 00          	cmpl   $0x0,-0x4(%rbp)
    88fe:	74 16                	je     8916 <main+0x150>
    8900:	8b 45 f4             	mov    -0xc(%rbp),%eax
    8903:	89 c6                	mov    %eax,%esi
    8905:	48 8d 3d fe 0a 00 00 	lea    0xafe(%rip),%rdi        # 940a <_IO_stdin_used+0x40a>
    890c:	b8 00 00 00 00       	mov    $0x0,%eax
    8911:	e8 6a a7 ff ff       	callq  3080 <printf@plt>
    8916:	83 45 f4 01          	addl   $0x1,-0xc(%rbp)
    891a:	83 7d f4 07          	cmpl   $0x7,-0xc(%rbp)
    891e:	7e ad                	jle    88cd <main+0x107>
    8920:	0f b6 05 39 37 00 00 	movzbl 0x3739(%rip),%eax        # c060 <g_124>
    8927:	48 0f be c0          	movsbq %al,%rax
    892b:	8b 55 fc             	mov    -0x4(%rbp),%edx
    892e:	48 8d 35 e3 0a 00 00 	lea    0xae3(%rip),%rsi        # 9418 <_IO_stdin_used+0x418>
    8935:	48 89 c7             	mov    %rax,%rdi
    8938:	e8 b6 bd ff ff       	callq  46f3 <transparent_crc>
    893d:	48 8b 05 24 37 00 00 	mov    0x3724(%rip),%rax        # c068 <g_146>
    8944:	8b 55 fc             	mov    -0x4(%rbp),%edx
    8947:	48 8d 35 d0 0a 00 00 	lea    0xad0(%rip),%rsi        # 941e <_IO_stdin_used+0x41e>
    894e:	48 89 c7             	mov    %rax,%rdi
    8951:	e8 9d bd ff ff       	callq  46f3 <transparent_crc>
    8956:	48 8b 05 13 37 00 00 	mov    0x3713(%rip),%rax        # c070 <g_173>
    895d:	8b 55 fc             	mov    -0x4(%rbp),%edx
    8960:	48 8d 35 bd 0a 00 00 	lea    0xabd(%rip),%rsi        # 9424 <_IO_stdin_used+0x424>
    8967:	48 89 c7             	mov    %rax,%rdi
    896a:	e8 84 bd ff ff       	callq  46f3 <transparent_crc>
    896f:	8b 05 03 37 00 00    	mov    0x3703(%rip),%eax        # c078 <g_175>
    8975:	89 c1                	mov    %eax,%ecx
    8977:	8b 45 fc             	mov    -0x4(%rbp),%eax
    897a:	89 c2                	mov    %eax,%edx
    897c:	48 8d 35 a7 0a 00 00 	lea    0xaa7(%rip),%rsi        # 942a <_IO_stdin_used+0x42a>
    8983:	48 89 cf             	mov    %rcx,%rdi
    8986:	e8 68 bd ff ff       	callq  46f3 <transparent_crc>
    898b:	8b 05 eb 36 00 00    	mov    0x36eb(%rip),%eax        # c07c <g_192>
    8991:	48 98                	cltq   
    8993:	8b 55 fc             	mov    -0x4(%rbp),%edx
    8996:	48 8d 35 93 0a 00 00 	lea    0xa93(%rip),%rsi        # 9430 <_IO_stdin_used+0x430>
    899d:	48 89 c7             	mov    %rax,%rdi
    89a0:	e8 4e bd ff ff       	callq  46f3 <transparent_crc>
    89a5:	0f b6 05 d4 36 00 00 	movzbl 0x36d4(%rip),%eax        # c080 <g_274>
    89ac:	48 0f be c0          	movsbq %al,%rax
    89b0:	8b 55 fc             	mov    -0x4(%rbp),%edx
    89b3:	48 8d 35 7c 0a 00 00 	lea    0xa7c(%rip),%rsi        # 9436 <_IO_stdin_used+0x436>
    89ba:	48 89 c7             	mov    %rax,%rdi
    89bd:	e8 31 bd ff ff       	callq  46f3 <transparent_crc>
    89c2:	0f b6 05 b8 36 00 00 	movzbl 0x36b8(%rip),%eax        # c081 <g_275>
    89c9:	48 0f be c0          	movsbq %al,%rax
    89cd:	8b 55 fc             	mov    -0x4(%rbp),%edx
    89d0:	48 8d 35 65 0a 00 00 	lea    0xa65(%rip),%rsi        # 943c <_IO_stdin_used+0x43c>
    89d7:	48 89 c7             	mov    %rax,%rdi
    89da:	e8 14 bd ff ff       	callq  46f3 <transparent_crc>
    89df:	0f b6 05 ba 49 00 00 	movzbl 0x49ba(%rip),%eax        # d3a0 <g_295>
    89e6:	0f b6 c0             	movzbl %al,%eax
    89e9:	8b 55 fc             	mov    -0x4(%rbp),%edx
    89ec:	48 8d 35 4f 0a 00 00 	lea    0xa4f(%rip),%rsi        # 9442 <_IO_stdin_used+0x442>
    89f3:	48 89 c7             	mov    %rax,%rdi
    89f6:	e8 f8 bc ff ff       	callq  46f3 <transparent_crc>
    89fb:	c7 45 f4 00 00 00 00 	movl   $0x0,-0xc(%rbp)
    8a02:	eb 4b                	jmp    8a4f <main+0x289>
    8a04:	8b 45 f4             	mov    -0xc(%rbp),%eax
    8a07:	48 98                	cltq   
    8a09:	48 8d 14 85 00 00 00 	lea    0x0(,%rax,4),%rdx
    8a10:	00 
    8a11:	48 8d 05 88 36 00 00 	lea    0x3688(%rip),%rax        # c0a0 <g_326>
    8a18:	8b 04 02             	mov    (%rdx,%rax,1),%eax
    8a1b:	48 98                	cltq   
    8a1d:	8b 55 fc             	mov    -0x4(%rbp),%edx
    8a20:	48 8d 35 21 0a 00 00 	lea    0xa21(%rip),%rsi        # 9448 <_IO_stdin_used+0x448>
    8a27:	48 89 c7             	mov    %rax,%rdi
    8a2a:	e8 c4 bc ff ff       	callq  46f3 <transparent_crc>
    8a2f:	83 7d fc 00          	cmpl   $0x0,-0x4(%rbp)
    8a33:	74 16                	je     8a4b <main+0x285>
    8a35:	8b 45 f4             	mov    -0xc(%rbp),%eax
    8a38:	89 c6                	mov    %eax,%esi
    8a3a:	48 8d 3d c9 09 00 00 	lea    0x9c9(%rip),%rdi        # 940a <_IO_stdin_used+0x40a>
    8a41:	b8 00 00 00 00       	mov    $0x0,%eax
    8a46:	e8 35 a6 ff ff       	callq  3080 <printf@plt>
    8a4b:	83 45 f4 01          	addl   $0x1,-0xc(%rbp)
    8a4f:	83 7d f4 08          	cmpl   $0x8,-0xc(%rbp)
    8a53:	7e af                	jle    8a04 <main+0x23e>
    8a55:	8b 05 69 36 00 00    	mov    0x3669(%rip),%eax        # c0c4 <g_352>
    8a5b:	48 98                	cltq   
    8a5d:	8b 55 fc             	mov    -0x4(%rbp),%edx
    8a60:	48 8d 35 ea 09 00 00 	lea    0x9ea(%rip),%rsi        # 9451 <_IO_stdin_used+0x451>
    8a67:	48 89 c7             	mov    %rax,%rdi
    8a6a:	e8 84 bc ff ff       	callq  46f3 <transparent_crc>
    8a6f:	48 8b 05 32 49 00 00 	mov    0x4932(%rip),%rax        # d3a8 <g_353>
    8a76:	48 89 c1             	mov    %rax,%rcx
    8a79:	8b 45 fc             	mov    -0x4(%rbp),%eax
    8a7c:	89 c2                	mov    %eax,%edx
    8a7e:	48 8d 35 d2 09 00 00 	lea    0x9d2(%rip),%rsi        # 9457 <_IO_stdin_used+0x457>
    8a85:	48 89 cf             	mov    %rcx,%rdi
    8a88:	e8 66 bc ff ff       	callq  46f3 <transparent_crc>
    8a8d:	8b 05 35 36 00 00    	mov    0x3635(%rip),%eax        # c0c8 <g_356>
    8a93:	48 98                	cltq   
    8a95:	8b 55 fc             	mov    -0x4(%rbp),%edx
    8a98:	48 8d 35 be 09 00 00 	lea    0x9be(%rip),%rsi        # 945d <_IO_stdin_used+0x45d>
    8a9f:	48 89 c7             	mov    %rax,%rdi
    8aa2:	e8 4c bc ff ff       	callq  46f3 <transparent_crc>
    8aa7:	c7 45 f4 00 00 00 00 	movl   $0x0,-0xc(%rbp)
    8aae:	eb 73                	jmp    8b23 <main+0x35d>
    8ab0:	c7 45 f8 00 00 00 00 	movl   $0x0,-0x8(%rbp)
    8ab7:	eb 60                	jmp    8b19 <main+0x353>
    8ab9:	8b 45 f8             	mov    -0x8(%rbp),%eax
    8abc:	48 63 c8             	movslq %eax,%rcx
    8abf:	8b 45 f4             	mov    -0xc(%rbp),%eax
    8ac2:	48 63 d0             	movslq %eax,%rdx
    8ac5:	48 89 d0             	mov    %rdx,%rax
    8ac8:	48 01 c0             	add    %rax,%rax
    8acb:	48 01 d0             	add    %rdx,%rax
    8ace:	48 01 c8             	add    %rcx,%rax
    8ad1:	48 8d 14 00          	lea    (%rax,%rax,1),%rdx
    8ad5:	48 8d 05 f4 35 00 00 	lea    0x35f4(%rip),%rax        # c0d0 <g_358>
    8adc:	0f b7 04 02          	movzwl (%rdx,%rax,1),%eax
    8ae0:	48 0f bf c0          	movswq %ax,%rax
    8ae4:	8b 55 fc             	mov    -0x4(%rbp),%edx
    8ae7:	48 8d 35 75 09 00 00 	lea    0x975(%rip),%rsi        # 9463 <_IO_stdin_used+0x463>
    8aee:	48 89 c7             	mov    %rax,%rdi
    8af1:	e8 fd bb ff ff       	callq  46f3 <transparent_crc>
    8af6:	83 7d fc 00          	cmpl   $0x0,-0x4(%rbp)
    8afa:	74 19                	je     8b15 <main+0x34f>
    8afc:	8b 55 f8             	mov    -0x8(%rbp),%edx
    8aff:	8b 45 f4             	mov    -0xc(%rbp),%eax
    8b02:	89 c6                	mov    %eax,%esi
    8b04:	48 8d 3d 64 09 00 00 	lea    0x964(%rip),%rdi        # 946f <_IO_stdin_used+0x46f>
    8b0b:	b8 00 00 00 00       	mov    $0x0,%eax
    8b10:	e8 6b a5 ff ff       	callq  3080 <printf@plt>
    8b15:	83 45 f8 01          	addl   $0x1,-0x8(%rbp)
    8b19:	83 7d f8 02          	cmpl   $0x2,-0x8(%rbp)
    8b1d:	7e 9a                	jle    8ab9 <main+0x2f3>
    8b1f:	83 45 f4 01          	addl   $0x1,-0xc(%rbp)
    8b23:	83 7d f4 03          	cmpl   $0x3,-0xc(%rbp)
    8b27:	7e 87                	jle    8ab0 <main+0x2ea>
    8b29:	c7 45 f4 00 00 00 00 	movl   $0x0,-0xc(%rbp)
    8b30:	eb 6b                	jmp    8b9d <main+0x3d7>
    8b32:	c7 45 f8 00 00 00 00 	movl   $0x0,-0x8(%rbp)
    8b39:	eb 58                	jmp    8b93 <main+0x3cd>
    8b3b:	8b 45 f8             	mov    -0x8(%rbp),%eax
    8b3e:	48 98                	cltq   
    8b40:	8b 55 f4             	mov    -0xc(%rbp),%edx
    8b43:	48 63 d2             	movslq %edx,%rdx
    8b46:	48 01 d2             	add    %rdx,%rdx
    8b49:	48 01 d0             	add    %rdx,%rax
    8b4c:	48 8d 14 00          	lea    (%rax,%rax,1),%rdx
    8b50:	48 8d 05 91 35 00 00 	lea    0x3591(%rip),%rax        # c0e8 <g_359>
    8b57:	0f b7 04 02          	movzwl (%rdx,%rax,1),%eax
    8b5b:	0f b7 c0             	movzwl %ax,%eax
    8b5e:	8b 55 fc             	mov    -0x4(%rbp),%edx
    8b61:	48 8d 35 19 09 00 00 	lea    0x919(%rip),%rsi        # 9481 <_IO_stdin_used+0x481>
    8b68:	48 89 c7             	mov    %rax,%rdi
    8b6b:	e8 83 bb ff ff       	callq  46f3 <transparent_crc>
    8b70:	83 7d fc 00          	cmpl   $0x0,-0x4(%rbp)
    8b74:	74 19                	je     8b8f <main+0x3c9>
    8b76:	8b 55 f8             	mov    -0x8(%rbp),%edx
    8b79:	8b 45 f4             	mov    -0xc(%rbp),%eax
    8b7c:	89 c6                	mov    %eax,%esi
    8b7e:	48 8d 3d ea 08 00 00 	lea    0x8ea(%rip),%rdi        # 946f <_IO_stdin_used+0x46f>
    8b85:	b8 00 00 00 00       	mov    $0x0,%eax
    8b8a:	e8 f1 a4 ff ff       	callq  3080 <printf@plt>
    8b8f:	83 45 f8 01          	addl   $0x1,-0x8(%rbp)
    8b93:	83 7d f8 01          	cmpl   $0x1,-0x8(%rbp)
    8b97:	7e a2                	jle    8b3b <main+0x375>
    8b99:	83 45 f4 01          	addl   $0x1,-0xc(%rbp)
    8b9d:	83 7d f4 00          	cmpl   $0x0,-0xc(%rbp)
    8ba1:	7e 8f                	jle    8b32 <main+0x36c>
    8ba3:	0f b6 05 42 35 00 00 	movzbl 0x3542(%rip),%eax        # c0ec <g_446>
    8baa:	0f b6 c0             	movzbl %al,%eax
    8bad:	8b 55 fc             	mov    -0x4(%rbp),%edx
    8bb0:	48 8d 35 d6 08 00 00 	lea    0x8d6(%rip),%rsi        # 948d <_IO_stdin_used+0x48d>
    8bb7:	48 89 c7             	mov    %rax,%rdi
    8bba:	e8 34 bb ff ff       	callq  46f3 <transparent_crc>
    8bbf:	0f b7 05 28 35 00 00 	movzwl 0x3528(%rip),%eax        # c0ee <g_604>
    8bc6:	0f b7 c0             	movzwl %ax,%eax
    8bc9:	8b 55 fc             	mov    -0x4(%rbp),%edx
    8bcc:	48 8d 35 c0 08 00 00 	lea    0x8c0(%rip),%rsi        # 9493 <_IO_stdin_used+0x493>
    8bd3:	48 89 c7             	mov    %rax,%rdi
    8bd6:	e8 18 bb ff ff       	callq  46f3 <transparent_crc>
    8bdb:	8b 05 0f 35 00 00    	mov    0x350f(%rip),%eax        # c0f0 <g_726>
    8be1:	48 98                	cltq   
    8be3:	8b 55 fc             	mov    -0x4(%rbp),%edx
    8be6:	48 8d 35 ac 08 00 00 	lea    0x8ac(%rip),%rsi        # 9499 <_IO_stdin_used+0x499>
    8bed:	48 89 c7             	mov    %rax,%rdi
    8bf0:	e8 fe ba ff ff       	callq  46f3 <transparent_crc>
    8bf5:	8b 05 f9 34 00 00    	mov    0x34f9(%rip),%eax        # c0f4 <g_790>
    8bfb:	48 98                	cltq   
    8bfd:	8b 55 fc             	mov    -0x4(%rbp),%edx
    8c00:	48 8d 35 98 08 00 00 	lea    0x898(%rip),%rsi        # 949f <_IO_stdin_used+0x49f>
    8c07:	48 89 c7             	mov    %rax,%rdi
    8c0a:	e8 e4 ba ff ff       	callq  46f3 <transparent_crc>
    8c0f:	8b 05 0b 34 00 00    	mov    0x340b(%rip),%eax        # c020 <crc32_context>
    8c15:	f7 d0                	not    %eax
    8c17:	89 c2                	mov    %eax,%edx
    8c19:	8b 45 fc             	mov    -0x4(%rbp),%eax
    8c1c:	89 c6                	mov    %eax,%esi
    8c1e:	89 d7                	mov    %edx,%edi
    8c20:	e8 6f a5 ff ff       	callq  3194 <platform_main_end>
    8c25:	b8 00 00 00 00       	mov    $0x0,%eax
    8c2a:	c9                   	leaveq 
    8c2b:	c3                   	retq   
    8c2c:	0f 1f 40 00          	nopl   0x0(%rax)

0000000000008c30 <__libc_csu_init>:
    8c30:	f3 0f 1e fa          	endbr64 
    8c34:	41 57                	push   %r15
    8c36:	4c 8d 3d 73 30 00 00 	lea    0x3073(%rip),%r15        # bcb0 <__frame_dummy_init_array_entry>
    8c3d:	41 56                	push   %r14
    8c3f:	49 89 d6             	mov    %rdx,%r14
    8c42:	41 55                	push   %r13
    8c44:	49 89 f5             	mov    %rsi,%r13
    8c47:	41 54                	push   %r12
    8c49:	41 89 fc             	mov    %edi,%r12d
    8c4c:	55                   	push   %rbp
    8c4d:	48 8d 2d 64 30 00 00 	lea    0x3064(%rip),%rbp        # bcb8 <__do_global_dtors_aux_fini_array_entry>
    8c54:	53                   	push   %rbx
    8c55:	4c 29 fd             	sub    %r15,%rbp
    8c58:	48 83 ec 08          	sub    $0x8,%rsp
    8c5c:	e8 9f a3 ff ff       	callq  3000 <_init>
    8c61:	48 c1 fd 03          	sar    $0x3,%rbp
    8c65:	74 1f                	je     8c86 <__libc_csu_init+0x56>
    8c67:	31 db                	xor    %ebx,%ebx
    8c69:	0f 1f 80 00 00 00 00 	nopl   0x0(%rax)
    8c70:	4c 89 f2             	mov    %r14,%rdx
    8c73:	4c 89 ee             	mov    %r13,%rsi
    8c76:	44 89 e7             	mov    %r12d,%edi
    8c79:	41 ff 14 df          	callq  *(%r15,%rbx,8)
    8c7d:	48 83 c3 01          	add    $0x1,%rbx
    8c81:	48 39 dd             	cmp    %rbx,%rbp
    8c84:	75 ea                	jne    8c70 <__libc_csu_init+0x40>
    8c86:	48 83 c4 08          	add    $0x8,%rsp
    8c8a:	5b                   	pop    %rbx
    8c8b:	5d                   	pop    %rbp
    8c8c:	41 5c                	pop    %r12
    8c8e:	41 5d                	pop    %r13
    8c90:	41 5e                	pop    %r14
    8c92:	41 5f                	pop    %r15
    8c94:	c3                   	retq   
    8c95:	66 66 2e 0f 1f 84 00 	data16 nopw %cs:0x0(%rax,%rax,1)
    8c9c:	00 00 00 00 

0000000000008ca0 <__libc_csu_fini>:
    8ca0:	f3 0f 1e fa          	endbr64 
    8ca4:	c3                   	retq   
