


Disassembly of section .text:

000000000000a0a0 <_start>:
    a0a0:	f3 0f 1e fa          	endbr64 
    a0a4:	31 ed                	xor    %ebp,%ebp
    a0a6:	49 89 d1             	mov    %rdx,%r9
    a0a9:	5e                   	pop    %rsi
    a0aa:	48 89 e2             	mov    %rsp,%rdx
    a0ad:	48 83 e4 f0          	and    $0xfffffffffffffff0,%rsp
    a0b1:	50                   	push   %rax
    a0b2:	54                   	push   %rsp
    a0b3:	4c 8d 05 66 97 00 00 	lea    0x9766(%rip),%r8        # 13820 <__libc_csu_fini>
    a0ba:	48 8d 0d ef 96 00 00 	lea    0x96ef(%rip),%rcx        # 137b0 <__libc_csu_init>
    a0c1:	48 8d 3d 70 79 00 00 	lea    0x7970(%rip),%rdi        # 11a38 <main>
    a0c8:	ff 15 fa de 00 00    	callq  *0xdefa(%rip)        # 17fc8 <__libc_start_main@GLIBC_2.2.5>
    a0ce:	f4                   	hlt    
    a0cf:	90                   	nop

000000000000a0d0 <deregister_tm_clones>:
    a0d0:	48 8d 3d 59 38 01 00 	lea    0x13859(%rip),%rdi        # 1d930 <__TMC_END__>
    a0d7:	48 8d 05 52 38 01 00 	lea    0x13852(%rip),%rax        # 1d930 <__TMC_END__>
    a0de:	48 39 f8             	cmp    %rdi,%rax
    a0e1:	74 15                	je     a0f8 <deregister_tm_clones+0x28>
    a0e3:	48 8b 05 d6 de 00 00 	mov    0xded6(%rip),%rax        # 17fc0 <_ITM_deregisterTMCloneTable>
    a0ea:	48 85 c0             	test   %rax,%rax
    a0ed:	74 09                	je     a0f8 <deregister_tm_clones+0x28>
    a0ef:	ff e0                	jmpq   *%rax
    a0f1:	0f 1f 80 00 00 00 00 	nopl   0x0(%rax)
    a0f8:	c3                   	retq   
    a0f9:	0f 1f 80 00 00 00 00 	nopl   0x0(%rax)

000000000000a100 <register_tm_clones>:
    a100:	48 8d 3d 29 38 01 00 	lea    0x13829(%rip),%rdi        # 1d930 <__TMC_END__>
    a107:	48 8d 35 22 38 01 00 	lea    0x13822(%rip),%rsi        # 1d930 <__TMC_END__>
    a10e:	48 29 fe             	sub    %rdi,%rsi
    a111:	48 89 f0             	mov    %rsi,%rax
    a114:	48 c1 ee 3f          	shr    $0x3f,%rsi
    a118:	48 c1 f8 03          	sar    $0x3,%rax
    a11c:	48 01 c6             	add    %rax,%rsi
    a11f:	48 d1 fe             	sar    %rsi
    a122:	74 14                	je     a138 <register_tm_clones+0x38>
    a124:	48 8b 05 ad de 00 00 	mov    0xdead(%rip),%rax        # 17fd8 <_ITM_registerTMCloneTable>
    a12b:	48 85 c0             	test   %rax,%rax
    a12e:	74 08                	je     a138 <register_tm_clones+0x38>
    a130:	ff e0                	jmpq   *%rax
    a132:	66 0f 1f 44 00 00    	nopw   0x0(%rax,%rax,1)
    a138:	c3                   	retq   
    a139:	0f 1f 80 00 00 00 00 	nopl   0x0(%rax)

000000000000a140 <__do_global_dtors_aux>:
    a140:	f3 0f 1e fa          	endbr64 
    a144:	80 3d f5 37 01 00 00 	cmpb   $0x0,0x137f5(%rip)        # 1d940 <completed.8061>
    a14b:	75 2b                	jne    a178 <__do_global_dtors_aux+0x38>
    a14d:	55                   	push   %rbp
    a14e:	48 83 3d 8a de 00 00 	cmpq   $0x0,0xde8a(%rip)        # 17fe0 <__cxa_finalize@GLIBC_2.2.5>
    a155:	00 
    a156:	48 89 e5             	mov    %rsp,%rbp
    a159:	74 0c                	je     a167 <__do_global_dtors_aux+0x27>
    a15b:	48 8b 3d a6 de 00 00 	mov    0xdea6(%rip),%rdi        # 18008 <__dso_handle>
    a162:	e8 f9 fe ff ff       	callq  a060 <__cxa_finalize@plt>
    a167:	e8 64 ff ff ff       	callq  a0d0 <deregister_tm_clones>
    a16c:	c6 05 cd 37 01 00 01 	movb   $0x1,0x137cd(%rip)        # 1d940 <completed.8061>
    a173:	5d                   	pop    %rbp
    a174:	c3                   	retq   
    a175:	0f 1f 00             	nopl   (%rax)
    a178:	c3                   	retq   
    a179:	0f 1f 80 00 00 00 00 	nopl   0x0(%rax)

000000000000a180 <frame_dummy>:
    a180:	f3 0f 1e fa          	endbr64 
    a184:	e9 77 ff ff ff       	jmpq   a100 <register_tm_clones>

000000000000a189 <platform_main_begin>:
    a189:	f3 0f 1e fa          	endbr64 
    a18d:	55                   	push   %rbp
    a18e:	48 89 e5             	mov    %rsp,%rbp
    a191:	90                   	nop
    a192:	5d                   	pop    %rbp
    a193:	c3                   	retq   

000000000000a194 <platform_main_end>:
    a194:	f3 0f 1e fa          	endbr64 
    a198:	55                   	push   %rbp
    a199:	48 89 e5             	mov    %rsp,%rbp
    a19c:	48 83 ec 10          	sub    $0x10,%rsp
    a1a0:	89 7d fc             	mov    %edi,-0x4(%rbp)
    a1a3:	89 75 f8             	mov    %esi,-0x8(%rbp)
    a1a6:	8b 45 fc             	mov    -0x4(%rbp),%eax
    a1a9:	89 c6                	mov    %eax,%esi
    a1ab:	48 8d 3d 6e 9e 00 00 	lea    0x9e6e(%rip),%rdi        # 14020 <_IO_stdin_used+0x20>
    a1b2:	b8 00 00 00 00       	mov    $0x0,%eax
    a1b7:	e8 c4 fe ff ff       	callq  a080 <printf@plt>
    a1bc:	90                   	nop
    a1bd:	c9                   	leaveq 
    a1be:	c3                   	retq   

000000000000a1bf <safe_unary_minus_func_int8_t_s>:
    a1bf:	f3 0f 1e fa          	endbr64 
    a1c3:	55                   	push   %rbp
    a1c4:	48 89 e5             	mov    %rsp,%rbp
    a1c7:	89 f8                	mov    %edi,%eax
    a1c9:	88 45 fc             	mov    %al,-0x4(%rbp)
    a1cc:	0f b6 45 fc          	movzbl -0x4(%rbp),%eax
    a1d0:	f7 d8                	neg    %eax
    a1d2:	5d                   	pop    %rbp
    a1d3:	c3                   	retq   

000000000000a1d4 <safe_add_func_int8_t_s_s>:
    a1d4:	f3 0f 1e fa          	endbr64 
    a1d8:	55                   	push   %rbp
    a1d9:	48 89 e5             	mov    %rsp,%rbp
    a1dc:	89 fa                	mov    %edi,%edx
    a1de:	89 f0                	mov    %esi,%eax
    a1e0:	88 55 fc             	mov    %dl,-0x4(%rbp)
    a1e3:	88 45 f8             	mov    %al,-0x8(%rbp)
    a1e6:	0f b6 55 fc          	movzbl -0x4(%rbp),%edx
    a1ea:	0f b6 45 f8          	movzbl -0x8(%rbp),%eax
    a1ee:	01 d0                	add    %edx,%eax
    a1f0:	5d                   	pop    %rbp
    a1f1:	c3                   	retq   

000000000000a1f2 <safe_sub_func_int8_t_s_s>:
    a1f2:	f3 0f 1e fa          	endbr64 
    a1f6:	55                   	push   %rbp
    a1f7:	48 89 e5             	mov    %rsp,%rbp
    a1fa:	89 fa                	mov    %edi,%edx
    a1fc:	89 f0                	mov    %esi,%eax
    a1fe:	88 55 fc             	mov    %dl,-0x4(%rbp)
    a201:	88 45 f8             	mov    %al,-0x8(%rbp)
    a204:	0f b6 55 fc          	movzbl -0x4(%rbp),%edx
    a208:	0f b6 45 f8          	movzbl -0x8(%rbp),%eax
    a20c:	29 c2                	sub    %eax,%edx
    a20e:	89 d0                	mov    %edx,%eax
    a210:	5d                   	pop    %rbp
    a211:	c3                   	retq   

000000000000a212 <safe_mul_func_int8_t_s_s>:
    a212:	f3 0f 1e fa          	endbr64 
    a216:	55                   	push   %rbp
    a217:	48 89 e5             	mov    %rsp,%rbp
    a21a:	89 fa                	mov    %edi,%edx
    a21c:	89 f0                	mov    %esi,%eax
    a21e:	88 55 fc             	mov    %dl,-0x4(%rbp)
    a221:	88 45 f8             	mov    %al,-0x8(%rbp)
    a224:	0f b6 45 fc          	movzbl -0x4(%rbp),%eax
    a228:	0f b6 55 f8          	movzbl -0x8(%rbp),%edx
    a22c:	0f af c2             	imul   %edx,%eax
    a22f:	5d                   	pop    %rbp
    a230:	c3                   	retq   

000000000000a231 <safe_mod_func_int8_t_s_s>:
    a231:	f3 0f 1e fa          	endbr64 
    a235:	55                   	push   %rbp
    a236:	48 89 e5             	mov    %rsp,%rbp
    a239:	89 fa                	mov    %edi,%edx
    a23b:	89 f0                	mov    %esi,%eax
    a23d:	88 55 fc             	mov    %dl,-0x4(%rbp)
    a240:	88 45 f8             	mov    %al,-0x8(%rbp)
    a243:	80 7d f8 00          	cmpb   $0x0,-0x8(%rbp)
    a247:	74 1b                	je     a264 <safe_mod_func_int8_t_s_s+0x33>
    a249:	80 7d fc 80          	cmpb   $0x80,-0x4(%rbp)
    a24d:	75 06                	jne    a255 <safe_mod_func_int8_t_s_s+0x24>
    a24f:	80 7d f8 ff          	cmpb   $0xff,-0x8(%rbp)
    a253:	74 0f                	je     a264 <safe_mod_func_int8_t_s_s+0x33>
    a255:	0f be 45 fc          	movsbl -0x4(%rbp),%eax
    a259:	0f be 4d f8          	movsbl -0x8(%rbp),%ecx
    a25d:	99                   	cltd   
    a25e:	f7 f9                	idiv   %ecx
    a260:	89 d0                	mov    %edx,%eax
    a262:	eb 04                	jmp    a268 <safe_mod_func_int8_t_s_s+0x37>
    a264:	0f b6 45 fc          	movzbl -0x4(%rbp),%eax
    a268:	5d                   	pop    %rbp
    a269:	c3                   	retq   

000000000000a26a <safe_div_func_int8_t_s_s>:
    a26a:	f3 0f 1e fa          	endbr64 
    a26e:	55                   	push   %rbp
    a26f:	48 89 e5             	mov    %rsp,%rbp
    a272:	89 fa                	mov    %edi,%edx
    a274:	89 f0                	mov    %esi,%eax
    a276:	88 55 fc             	mov    %dl,-0x4(%rbp)
    a279:	88 45 f8             	mov    %al,-0x8(%rbp)
    a27c:	80 7d f8 00          	cmpb   $0x0,-0x8(%rbp)
    a280:	74 19                	je     a29b <safe_div_func_int8_t_s_s+0x31>
    a282:	80 7d fc 80          	cmpb   $0x80,-0x4(%rbp)
    a286:	75 06                	jne    a28e <safe_div_func_int8_t_s_s+0x24>
    a288:	80 7d f8 ff          	cmpb   $0xff,-0x8(%rbp)
    a28c:	74 0d                	je     a29b <safe_div_func_int8_t_s_s+0x31>
    a28e:	0f be 45 fc          	movsbl -0x4(%rbp),%eax
    a292:	0f be 4d f8          	movsbl -0x8(%rbp),%ecx
    a296:	99                   	cltd   
    a297:	f7 f9                	idiv   %ecx
    a299:	eb 04                	jmp    a29f <safe_div_func_int8_t_s_s+0x35>
    a29b:	0f b6 45 fc          	movzbl -0x4(%rbp),%eax
    a29f:	5d                   	pop    %rbp
    a2a0:	c3                   	retq   

000000000000a2a1 <safe_lshift_func_int8_t_s_s>:
    a2a1:	f3 0f 1e fa          	endbr64 
    a2a5:	55                   	push   %rbp
    a2a6:	48 89 e5             	mov    %rsp,%rbp
    a2a9:	89 f8                	mov    %edi,%eax
    a2ab:	89 75 f8             	mov    %esi,-0x8(%rbp)
    a2ae:	88 45 fc             	mov    %al,-0x4(%rbp)
    a2b1:	80 7d fc 00          	cmpb   $0x0,-0x4(%rbp)
    a2b5:	78 31                	js     a2e8 <safe_lshift_func_int8_t_s_s+0x47>
    a2b7:	83 7d f8 00          	cmpl   $0x0,-0x8(%rbp)
    a2bb:	78 2b                	js     a2e8 <safe_lshift_func_int8_t_s_s+0x47>
    a2bd:	83 7d f8 1f          	cmpl   $0x1f,-0x8(%rbp)
    a2c1:	7f 25                	jg     a2e8 <safe_lshift_func_int8_t_s_s+0x47>
    a2c3:	0f be 55 fc          	movsbl -0x4(%rbp),%edx
    a2c7:	8b 45 f8             	mov    -0x8(%rbp),%eax
    a2ca:	be 7f 00 00 00       	mov    $0x7f,%esi
    a2cf:	89 c1                	mov    %eax,%ecx
    a2d1:	d3 fe                	sar    %cl,%esi
    a2d3:	89 f0                	mov    %esi,%eax
    a2d5:	39 c2                	cmp    %eax,%edx
    a2d7:	7f 0f                	jg     a2e8 <safe_lshift_func_int8_t_s_s+0x47>
    a2d9:	0f be 55 fc          	movsbl -0x4(%rbp),%edx
    a2dd:	8b 45 f8             	mov    -0x8(%rbp),%eax
    a2e0:	89 c1                	mov    %eax,%ecx
    a2e2:	d3 e2                	shl    %cl,%edx
    a2e4:	89 d0                	mov    %edx,%eax
    a2e6:	eb 04                	jmp    a2ec <safe_lshift_func_int8_t_s_s+0x4b>
    a2e8:	0f b6 45 fc          	movzbl -0x4(%rbp),%eax
    a2ec:	5d                   	pop    %rbp
    a2ed:	c3                   	retq   

000000000000a2ee <safe_lshift_func_int8_t_s_u>:
    a2ee:	f3 0f 1e fa          	endbr64 
    a2f2:	55                   	push   %rbp
    a2f3:	48 89 e5             	mov    %rsp,%rbp
    a2f6:	89 f8                	mov    %edi,%eax
    a2f8:	89 75 f8             	mov    %esi,-0x8(%rbp)
    a2fb:	88 45 fc             	mov    %al,-0x4(%rbp)
    a2fe:	80 7d fc 00          	cmpb   $0x0,-0x4(%rbp)
    a302:	78 2b                	js     a32f <safe_lshift_func_int8_t_s_u+0x41>
    a304:	83 7d f8 1f          	cmpl   $0x1f,-0x8(%rbp)
    a308:	77 25                	ja     a32f <safe_lshift_func_int8_t_s_u+0x41>
    a30a:	0f be 55 fc          	movsbl -0x4(%rbp),%edx
    a30e:	8b 45 f8             	mov    -0x8(%rbp),%eax
    a311:	be 7f 00 00 00       	mov    $0x7f,%esi
    a316:	89 c1                	mov    %eax,%ecx
    a318:	d3 fe                	sar    %cl,%esi
    a31a:	89 f0                	mov    %esi,%eax
    a31c:	39 c2                	cmp    %eax,%edx
    a31e:	7f 0f                	jg     a32f <safe_lshift_func_int8_t_s_u+0x41>
    a320:	0f be 55 fc          	movsbl -0x4(%rbp),%edx
    a324:	8b 45 f8             	mov    -0x8(%rbp),%eax
    a327:	89 c1                	mov    %eax,%ecx
    a329:	d3 e2                	shl    %cl,%edx
    a32b:	89 d0                	mov    %edx,%eax
    a32d:	eb 04                	jmp    a333 <safe_lshift_func_int8_t_s_u+0x45>
    a32f:	0f b6 45 fc          	movzbl -0x4(%rbp),%eax
    a333:	5d                   	pop    %rbp
    a334:	c3                   	retq   

000000000000a335 <safe_rshift_func_int8_t_s_s>:
    a335:	f3 0f 1e fa          	endbr64 
    a339:	55                   	push   %rbp
    a33a:	48 89 e5             	mov    %rsp,%rbp
    a33d:	89 f8                	mov    %edi,%eax
    a33f:	89 75 f8             	mov    %esi,-0x8(%rbp)
    a342:	88 45 fc             	mov    %al,-0x4(%rbp)
    a345:	80 7d fc 00          	cmpb   $0x0,-0x4(%rbp)
    a349:	78 1b                	js     a366 <safe_rshift_func_int8_t_s_s+0x31>
    a34b:	83 7d f8 00          	cmpl   $0x0,-0x8(%rbp)
    a34f:	78 15                	js     a366 <safe_rshift_func_int8_t_s_s+0x31>
    a351:	83 7d f8 1f          	cmpl   $0x1f,-0x8(%rbp)
    a355:	7f 0f                	jg     a366 <safe_rshift_func_int8_t_s_s+0x31>
    a357:	0f be 55 fc          	movsbl -0x4(%rbp),%edx
    a35b:	8b 45 f8             	mov    -0x8(%rbp),%eax
    a35e:	89 c1                	mov    %eax,%ecx
    a360:	d3 fa                	sar    %cl,%edx
    a362:	89 d0                	mov    %edx,%eax
    a364:	eb 04                	jmp    a36a <safe_rshift_func_int8_t_s_s+0x35>
    a366:	0f b6 45 fc          	movzbl -0x4(%rbp),%eax
    a36a:	5d                   	pop    %rbp
    a36b:	c3                   	retq   

000000000000a36c <safe_rshift_func_int8_t_s_u>:
    a36c:	f3 0f 1e fa          	endbr64 
    a370:	55                   	push   %rbp
    a371:	48 89 e5             	mov    %rsp,%rbp
    a374:	89 f8                	mov    %edi,%eax
    a376:	89 75 f8             	mov    %esi,-0x8(%rbp)
    a379:	88 45 fc             	mov    %al,-0x4(%rbp)
    a37c:	80 7d fc 00          	cmpb   $0x0,-0x4(%rbp)
    a380:	78 15                	js     a397 <safe_rshift_func_int8_t_s_u+0x2b>
    a382:	83 7d f8 1f          	cmpl   $0x1f,-0x8(%rbp)
    a386:	77 0f                	ja     a397 <safe_rshift_func_int8_t_s_u+0x2b>
    a388:	0f be 55 fc          	movsbl -0x4(%rbp),%edx
    a38c:	8b 45 f8             	mov    -0x8(%rbp),%eax
    a38f:	89 c1                	mov    %eax,%ecx
    a391:	d3 fa                	sar    %cl,%edx
    a393:	89 d0                	mov    %edx,%eax
    a395:	eb 04                	jmp    a39b <safe_rshift_func_int8_t_s_u+0x2f>
    a397:	0f b6 45 fc          	movzbl -0x4(%rbp),%eax
    a39b:	5d                   	pop    %rbp
    a39c:	c3                   	retq   

000000000000a39d <safe_unary_minus_func_int16_t_s>:
    a39d:	f3 0f 1e fa          	endbr64 
    a3a1:	55                   	push   %rbp
    a3a2:	48 89 e5             	mov    %rsp,%rbp
    a3a5:	89 f8                	mov    %edi,%eax
    a3a7:	66 89 45 fc          	mov    %ax,-0x4(%rbp)
    a3ab:	0f b7 45 fc          	movzwl -0x4(%rbp),%eax
    a3af:	f7 d8                	neg    %eax
    a3b1:	5d                   	pop    %rbp
    a3b2:	c3                   	retq   

000000000000a3b3 <safe_add_func_int16_t_s_s>:
    a3b3:	f3 0f 1e fa          	endbr64 
    a3b7:	55                   	push   %rbp
    a3b8:	48 89 e5             	mov    %rsp,%rbp
    a3bb:	89 fa                	mov    %edi,%edx
    a3bd:	89 f0                	mov    %esi,%eax
    a3bf:	66 89 55 fc          	mov    %dx,-0x4(%rbp)
    a3c3:	66 89 45 f8          	mov    %ax,-0x8(%rbp)
    a3c7:	0f b7 55 fc          	movzwl -0x4(%rbp),%edx
    a3cb:	0f b7 45 f8          	movzwl -0x8(%rbp),%eax
    a3cf:	01 d0                	add    %edx,%eax
    a3d1:	5d                   	pop    %rbp
    a3d2:	c3                   	retq   

000000000000a3d3 <safe_sub_func_int16_t_s_s>:
    a3d3:	f3 0f 1e fa          	endbr64 
    a3d7:	55                   	push   %rbp
    a3d8:	48 89 e5             	mov    %rsp,%rbp
    a3db:	89 fa                	mov    %edi,%edx
    a3dd:	89 f0                	mov    %esi,%eax
    a3df:	66 89 55 fc          	mov    %dx,-0x4(%rbp)
    a3e3:	66 89 45 f8          	mov    %ax,-0x8(%rbp)
    a3e7:	0f b7 55 fc          	movzwl -0x4(%rbp),%edx
    a3eb:	0f b7 45 f8          	movzwl -0x8(%rbp),%eax
    a3ef:	29 c2                	sub    %eax,%edx
    a3f1:	89 d0                	mov    %edx,%eax
    a3f3:	5d                   	pop    %rbp
    a3f4:	c3                   	retq   

000000000000a3f5 <safe_mul_func_int16_t_s_s>:
    a3f5:	f3 0f 1e fa          	endbr64 
    a3f9:	55                   	push   %rbp
    a3fa:	48 89 e5             	mov    %rsp,%rbp
    a3fd:	89 fa                	mov    %edi,%edx
    a3ff:	89 f0                	mov    %esi,%eax
    a401:	66 89 55 fc          	mov    %dx,-0x4(%rbp)
    a405:	66 89 45 f8          	mov    %ax,-0x8(%rbp)
    a409:	0f b7 55 fc          	movzwl -0x4(%rbp),%edx
    a40d:	0f b7 45 f8          	movzwl -0x8(%rbp),%eax
    a411:	0f af c2             	imul   %edx,%eax
    a414:	5d                   	pop    %rbp
    a415:	c3                   	retq   

000000000000a416 <safe_mod_func_int16_t_s_s>:
    a416:	f3 0f 1e fa          	endbr64 
    a41a:	55                   	push   %rbp
    a41b:	48 89 e5             	mov    %rsp,%rbp
    a41e:	89 fa                	mov    %edi,%edx
    a420:	89 f0                	mov    %esi,%eax
    a422:	66 89 55 fc          	mov    %dx,-0x4(%rbp)
    a426:	66 89 45 f8          	mov    %ax,-0x8(%rbp)
    a42a:	66 83 7d f8 00       	cmpw   $0x0,-0x8(%rbp)
    a42f:	74 1e                	je     a44f <safe_mod_func_int16_t_s_s+0x39>
    a431:	66 81 7d fc 00 80    	cmpw   $0x8000,-0x4(%rbp)
    a437:	75 07                	jne    a440 <safe_mod_func_int16_t_s_s+0x2a>
    a439:	66 83 7d f8 ff       	cmpw   $0xffff,-0x8(%rbp)
    a43e:	74 0f                	je     a44f <safe_mod_func_int16_t_s_s+0x39>
    a440:	0f bf 45 fc          	movswl -0x4(%rbp),%eax
    a444:	0f bf 4d f8          	movswl -0x8(%rbp),%ecx
    a448:	99                   	cltd   
    a449:	f7 f9                	idiv   %ecx
    a44b:	89 d0                	mov    %edx,%eax
    a44d:	eb 04                	jmp    a453 <safe_mod_func_int16_t_s_s+0x3d>
    a44f:	0f b7 45 fc          	movzwl -0x4(%rbp),%eax
    a453:	5d                   	pop    %rbp
    a454:	c3                   	retq   

000000000000a455 <safe_div_func_int16_t_s_s>:
    a455:	f3 0f 1e fa          	endbr64 
    a459:	55                   	push   %rbp
    a45a:	48 89 e5             	mov    %rsp,%rbp
    a45d:	89 fa                	mov    %edi,%edx
    a45f:	89 f0                	mov    %esi,%eax
    a461:	66 89 55 fc          	mov    %dx,-0x4(%rbp)
    a465:	66 89 45 f8          	mov    %ax,-0x8(%rbp)
    a469:	66 83 7d f8 00       	cmpw   $0x0,-0x8(%rbp)
    a46e:	74 1c                	je     a48c <safe_div_func_int16_t_s_s+0x37>
    a470:	66 81 7d fc 00 80    	cmpw   $0x8000,-0x4(%rbp)
    a476:	75 07                	jne    a47f <safe_div_func_int16_t_s_s+0x2a>
    a478:	66 83 7d f8 ff       	cmpw   $0xffff,-0x8(%rbp)
    a47d:	74 0d                	je     a48c <safe_div_func_int16_t_s_s+0x37>
    a47f:	0f bf 45 fc          	movswl -0x4(%rbp),%eax
    a483:	0f bf 4d f8          	movswl -0x8(%rbp),%ecx
    a487:	99                   	cltd   
    a488:	f7 f9                	idiv   %ecx
    a48a:	eb 04                	jmp    a490 <safe_div_func_int16_t_s_s+0x3b>
    a48c:	0f b7 45 fc          	movzwl -0x4(%rbp),%eax
    a490:	5d                   	pop    %rbp
    a491:	c3                   	retq   

000000000000a492 <safe_lshift_func_int16_t_s_s>:
    a492:	f3 0f 1e fa          	endbr64 
    a496:	55                   	push   %rbp
    a497:	48 89 e5             	mov    %rsp,%rbp
    a49a:	89 f8                	mov    %edi,%eax
    a49c:	89 75 f8             	mov    %esi,-0x8(%rbp)
    a49f:	66 89 45 fc          	mov    %ax,-0x4(%rbp)
    a4a3:	66 83 7d fc 00       	cmpw   $0x0,-0x4(%rbp)
    a4a8:	78 31                	js     a4db <safe_lshift_func_int16_t_s_s+0x49>
    a4aa:	83 7d f8 00          	cmpl   $0x0,-0x8(%rbp)
    a4ae:	78 2b                	js     a4db <safe_lshift_func_int16_t_s_s+0x49>
    a4b0:	83 7d f8 1f          	cmpl   $0x1f,-0x8(%rbp)
    a4b4:	7f 25                	jg     a4db <safe_lshift_func_int16_t_s_s+0x49>
    a4b6:	0f bf 55 fc          	movswl -0x4(%rbp),%edx
    a4ba:	8b 45 f8             	mov    -0x8(%rbp),%eax
    a4bd:	be ff 7f 00 00       	mov    $0x7fff,%esi
    a4c2:	89 c1                	mov    %eax,%ecx
    a4c4:	d3 fe                	sar    %cl,%esi
    a4c6:	89 f0                	mov    %esi,%eax
    a4c8:	39 c2                	cmp    %eax,%edx
    a4ca:	7f 0f                	jg     a4db <safe_lshift_func_int16_t_s_s+0x49>
    a4cc:	0f bf 55 fc          	movswl -0x4(%rbp),%edx
    a4d0:	8b 45 f8             	mov    -0x8(%rbp),%eax
    a4d3:	89 c1                	mov    %eax,%ecx
    a4d5:	d3 e2                	shl    %cl,%edx
    a4d7:	89 d0                	mov    %edx,%eax
    a4d9:	eb 04                	jmp    a4df <safe_lshift_func_int16_t_s_s+0x4d>
    a4db:	0f b7 45 fc          	movzwl -0x4(%rbp),%eax
    a4df:	5d                   	pop    %rbp
    a4e0:	c3                   	retq   

000000000000a4e1 <safe_lshift_func_int16_t_s_u>:
    a4e1:	f3 0f 1e fa          	endbr64 
    a4e5:	55                   	push   %rbp
    a4e6:	48 89 e5             	mov    %rsp,%rbp
    a4e9:	89 f8                	mov    %edi,%eax
    a4eb:	89 75 f8             	mov    %esi,-0x8(%rbp)
    a4ee:	66 89 45 fc          	mov    %ax,-0x4(%rbp)
    a4f2:	66 83 7d fc 00       	cmpw   $0x0,-0x4(%rbp)
    a4f7:	78 2b                	js     a524 <safe_lshift_func_int16_t_s_u+0x43>
    a4f9:	83 7d f8 1f          	cmpl   $0x1f,-0x8(%rbp)
    a4fd:	77 25                	ja     a524 <safe_lshift_func_int16_t_s_u+0x43>
    a4ff:	0f bf 55 fc          	movswl -0x4(%rbp),%edx
    a503:	8b 45 f8             	mov    -0x8(%rbp),%eax
    a506:	be ff 7f 00 00       	mov    $0x7fff,%esi
    a50b:	89 c1                	mov    %eax,%ecx
    a50d:	d3 fe                	sar    %cl,%esi
    a50f:	89 f0                	mov    %esi,%eax
    a511:	39 c2                	cmp    %eax,%edx
    a513:	7f 0f                	jg     a524 <safe_lshift_func_int16_t_s_u+0x43>
    a515:	0f bf 55 fc          	movswl -0x4(%rbp),%edx
    a519:	8b 45 f8             	mov    -0x8(%rbp),%eax
    a51c:	89 c1                	mov    %eax,%ecx
    a51e:	d3 e2                	shl    %cl,%edx
    a520:	89 d0                	mov    %edx,%eax
    a522:	eb 04                	jmp    a528 <safe_lshift_func_int16_t_s_u+0x47>
    a524:	0f b7 45 fc          	movzwl -0x4(%rbp),%eax
    a528:	5d                   	pop    %rbp
    a529:	c3                   	retq   

000000000000a52a <safe_rshift_func_int16_t_s_s>:
    a52a:	f3 0f 1e fa          	endbr64 
    a52e:	55                   	push   %rbp
    a52f:	48 89 e5             	mov    %rsp,%rbp
    a532:	89 f8                	mov    %edi,%eax
    a534:	89 75 f8             	mov    %esi,-0x8(%rbp)
    a537:	66 89 45 fc          	mov    %ax,-0x4(%rbp)
    a53b:	66 83 7d fc 00       	cmpw   $0x0,-0x4(%rbp)
    a540:	78 1b                	js     a55d <safe_rshift_func_int16_t_s_s+0x33>
    a542:	83 7d f8 00          	cmpl   $0x0,-0x8(%rbp)
    a546:	78 15                	js     a55d <safe_rshift_func_int16_t_s_s+0x33>
    a548:	83 7d f8 1f          	cmpl   $0x1f,-0x8(%rbp)
    a54c:	7f 0f                	jg     a55d <safe_rshift_func_int16_t_s_s+0x33>
    a54e:	0f bf 55 fc          	movswl -0x4(%rbp),%edx
    a552:	8b 45 f8             	mov    -0x8(%rbp),%eax
    a555:	89 c1                	mov    %eax,%ecx
    a557:	d3 fa                	sar    %cl,%edx
    a559:	89 d0                	mov    %edx,%eax
    a55b:	eb 04                	jmp    a561 <safe_rshift_func_int16_t_s_s+0x37>
    a55d:	0f b7 45 fc          	movzwl -0x4(%rbp),%eax
    a561:	5d                   	pop    %rbp
    a562:	c3                   	retq   

000000000000a563 <safe_rshift_func_int16_t_s_u>:
    a563:	f3 0f 1e fa          	endbr64 
    a567:	55                   	push   %rbp
    a568:	48 89 e5             	mov    %rsp,%rbp
    a56b:	89 f8                	mov    %edi,%eax
    a56d:	89 75 f8             	mov    %esi,-0x8(%rbp)
    a570:	66 89 45 fc          	mov    %ax,-0x4(%rbp)
    a574:	66 83 7d fc 00       	cmpw   $0x0,-0x4(%rbp)
    a579:	78 15                	js     a590 <safe_rshift_func_int16_t_s_u+0x2d>
    a57b:	83 7d f8 1f          	cmpl   $0x1f,-0x8(%rbp)
    a57f:	77 0f                	ja     a590 <safe_rshift_func_int16_t_s_u+0x2d>
    a581:	0f bf 55 fc          	movswl -0x4(%rbp),%edx
    a585:	8b 45 f8             	mov    -0x8(%rbp),%eax
    a588:	89 c1                	mov    %eax,%ecx
    a58a:	d3 fa                	sar    %cl,%edx
    a58c:	89 d0                	mov    %edx,%eax
    a58e:	eb 04                	jmp    a594 <safe_rshift_func_int16_t_s_u+0x31>
    a590:	0f b7 45 fc          	movzwl -0x4(%rbp),%eax
    a594:	5d                   	pop    %rbp
    a595:	c3                   	retq   

000000000000a596 <safe_unary_minus_func_int32_t_s>:
    a596:	f3 0f 1e fa          	endbr64 
    a59a:	55                   	push   %rbp
    a59b:	48 89 e5             	mov    %rsp,%rbp
    a59e:	89 7d fc             	mov    %edi,-0x4(%rbp)
    a5a1:	81 7d fc 00 00 00 80 	cmpl   $0x80000000,-0x4(%rbp)
    a5a8:	74 07                	je     a5b1 <safe_unary_minus_func_int32_t_s+0x1b>
    a5aa:	8b 45 fc             	mov    -0x4(%rbp),%eax
    a5ad:	f7 d8                	neg    %eax
    a5af:	eb 03                	jmp    a5b4 <safe_unary_minus_func_int32_t_s+0x1e>
    a5b1:	8b 45 fc             	mov    -0x4(%rbp),%eax
    a5b4:	5d                   	pop    %rbp
    a5b5:	c3                   	retq   

000000000000a5b6 <safe_add_func_int32_t_s_s>:
    a5b6:	f3 0f 1e fa          	endbr64 
    a5ba:	55                   	push   %rbp
    a5bb:	48 89 e5             	mov    %rsp,%rbp
    a5be:	89 7d fc             	mov    %edi,-0x4(%rbp)
    a5c1:	89 75 f8             	mov    %esi,-0x8(%rbp)
    a5c4:	83 7d fc 00          	cmpl   $0x0,-0x4(%rbp)
    a5c8:	7e 13                	jle    a5dd <safe_add_func_int32_t_s_s+0x27>
    a5ca:	83 7d f8 00          	cmpl   $0x0,-0x8(%rbp)
    a5ce:	7e 0d                	jle    a5dd <safe_add_func_int32_t_s_s+0x27>
    a5d0:	b8 ff ff ff 7f       	mov    $0x7fffffff,%eax
    a5d5:	2b 45 f8             	sub    -0x8(%rbp),%eax
    a5d8:	39 45 fc             	cmp    %eax,-0x4(%rbp)
    a5db:	7f 23                	jg     a600 <safe_add_func_int32_t_s_s+0x4a>
    a5dd:	83 7d fc 00          	cmpl   $0x0,-0x4(%rbp)
    a5e1:	79 13                	jns    a5f6 <safe_add_func_int32_t_s_s+0x40>
    a5e3:	83 7d f8 00          	cmpl   $0x0,-0x8(%rbp)
    a5e7:	79 0d                	jns    a5f6 <safe_add_func_int32_t_s_s+0x40>
    a5e9:	b8 00 00 00 80       	mov    $0x80000000,%eax
    a5ee:	2b 45 f8             	sub    -0x8(%rbp),%eax
    a5f1:	39 45 fc             	cmp    %eax,-0x4(%rbp)
    a5f4:	7c 0a                	jl     a600 <safe_add_func_int32_t_s_s+0x4a>
    a5f6:	8b 55 fc             	mov    -0x4(%rbp),%edx
    a5f9:	8b 45 f8             	mov    -0x8(%rbp),%eax
    a5fc:	01 d0                	add    %edx,%eax
    a5fe:	eb 03                	jmp    a603 <safe_add_func_int32_t_s_s+0x4d>
    a600:	8b 45 fc             	mov    -0x4(%rbp),%eax
    a603:	5d                   	pop    %rbp
    a604:	c3                   	retq   

000000000000a605 <safe_sub_func_int32_t_s_s>:
    a605:	f3 0f 1e fa          	endbr64 
    a609:	55                   	push   %rbp
    a60a:	48 89 e5             	mov    %rsp,%rbp
    a60d:	89 7d fc             	mov    %edi,-0x4(%rbp)
    a610:	89 75 f8             	mov    %esi,-0x8(%rbp)
    a613:	8b 45 fc             	mov    -0x4(%rbp),%eax
    a616:	33 45 f8             	xor    -0x8(%rbp),%eax
    a619:	89 c2                	mov    %eax,%edx
    a61b:	8b 45 fc             	mov    -0x4(%rbp),%eax
    a61e:	33 45 f8             	xor    -0x8(%rbp),%eax
    a621:	25 00 00 00 80       	and    $0x80000000,%eax
    a626:	33 45 fc             	xor    -0x4(%rbp),%eax
    a629:	2b 45 f8             	sub    -0x8(%rbp),%eax
    a62c:	33 45 f8             	xor    -0x8(%rbp),%eax
    a62f:	21 d0                	and    %edx,%eax
    a631:	85 c0                	test   %eax,%eax
    a633:	78 08                	js     a63d <safe_sub_func_int32_t_s_s+0x38>
    a635:	8b 45 fc             	mov    -0x4(%rbp),%eax
    a638:	2b 45 f8             	sub    -0x8(%rbp),%eax
    a63b:	eb 03                	jmp    a640 <safe_sub_func_int32_t_s_s+0x3b>
    a63d:	8b 45 fc             	mov    -0x4(%rbp),%eax
    a640:	5d                   	pop    %rbp
    a641:	c3                   	retq   

000000000000a642 <safe_mul_func_int32_t_s_s>:
    a642:	f3 0f 1e fa          	endbr64 
    a646:	55                   	push   %rbp
    a647:	48 89 e5             	mov    %rsp,%rbp
    a64a:	89 7d fc             	mov    %edi,-0x4(%rbp)
    a64d:	89 75 f8             	mov    %esi,-0x8(%rbp)
    a650:	83 7d fc 00          	cmpl   $0x0,-0x4(%rbp)
    a654:	7e 14                	jle    a66a <safe_mul_func_int32_t_s_s+0x28>
    a656:	83 7d f8 00          	cmpl   $0x0,-0x8(%rbp)
    a65a:	7e 0e                	jle    a66a <safe_mul_func_int32_t_s_s+0x28>
    a65c:	b8 ff ff ff 7f       	mov    $0x7fffffff,%eax
    a661:	99                   	cltd   
    a662:	f7 7d f8             	idivl  -0x8(%rbp)
    a665:	39 45 fc             	cmp    %eax,-0x4(%rbp)
    a668:	7f 5d                	jg     a6c7 <safe_mul_func_int32_t_s_s+0x85>
    a66a:	83 7d fc 00          	cmpl   $0x0,-0x4(%rbp)
    a66e:	7e 14                	jle    a684 <safe_mul_func_int32_t_s_s+0x42>
    a670:	83 7d f8 00          	cmpl   $0x0,-0x8(%rbp)
    a674:	7f 0e                	jg     a684 <safe_mul_func_int32_t_s_s+0x42>
    a676:	b8 00 00 00 80       	mov    $0x80000000,%eax
    a67b:	99                   	cltd   
    a67c:	f7 7d fc             	idivl  -0x4(%rbp)
    a67f:	39 45 f8             	cmp    %eax,-0x8(%rbp)
    a682:	7c 43                	jl     a6c7 <safe_mul_func_int32_t_s_s+0x85>
    a684:	83 7d fc 00          	cmpl   $0x0,-0x4(%rbp)
    a688:	7f 14                	jg     a69e <safe_mul_func_int32_t_s_s+0x5c>
    a68a:	83 7d f8 00          	cmpl   $0x0,-0x8(%rbp)
    a68e:	7e 0e                	jle    a69e <safe_mul_func_int32_t_s_s+0x5c>
    a690:	b8 00 00 00 80       	mov    $0x80000000,%eax
    a695:	99                   	cltd   
    a696:	f7 7d f8             	idivl  -0x8(%rbp)
    a699:	39 45 fc             	cmp    %eax,-0x4(%rbp)
    a69c:	7c 29                	jl     a6c7 <safe_mul_func_int32_t_s_s+0x85>
    a69e:	83 7d fc 00          	cmpl   $0x0,-0x4(%rbp)
    a6a2:	7f 1a                	jg     a6be <safe_mul_func_int32_t_s_s+0x7c>
    a6a4:	83 7d f8 00          	cmpl   $0x0,-0x8(%rbp)
    a6a8:	7f 14                	jg     a6be <safe_mul_func_int32_t_s_s+0x7c>
    a6aa:	83 7d fc 00          	cmpl   $0x0,-0x4(%rbp)
    a6ae:	74 0e                	je     a6be <safe_mul_func_int32_t_s_s+0x7c>
    a6b0:	b8 ff ff ff 7f       	mov    $0x7fffffff,%eax
    a6b5:	99                   	cltd   
    a6b6:	f7 7d fc             	idivl  -0x4(%rbp)
    a6b9:	39 45 f8             	cmp    %eax,-0x8(%rbp)
    a6bc:	7c 09                	jl     a6c7 <safe_mul_func_int32_t_s_s+0x85>
    a6be:	8b 45 fc             	mov    -0x4(%rbp),%eax
    a6c1:	0f af 45 f8          	imul   -0x8(%rbp),%eax
    a6c5:	eb 03                	jmp    a6ca <safe_mul_func_int32_t_s_s+0x88>
    a6c7:	8b 45 fc             	mov    -0x4(%rbp),%eax
    a6ca:	5d                   	pop    %rbp
    a6cb:	c3                   	retq   

000000000000a6cc <safe_mod_func_int32_t_s_s>:
    a6cc:	f3 0f 1e fa          	endbr64 
    a6d0:	55                   	push   %rbp
    a6d1:	48 89 e5             	mov    %rsp,%rbp
    a6d4:	89 7d fc             	mov    %edi,-0x4(%rbp)
    a6d7:	89 75 f8             	mov    %esi,-0x8(%rbp)
    a6da:	83 7d f8 00          	cmpl   $0x0,-0x8(%rbp)
    a6de:	74 1a                	je     a6fa <safe_mod_func_int32_t_s_s+0x2e>
    a6e0:	81 7d fc 00 00 00 80 	cmpl   $0x80000000,-0x4(%rbp)
    a6e7:	75 06                	jne    a6ef <safe_mod_func_int32_t_s_s+0x23>
    a6e9:	83 7d f8 ff          	cmpl   $0xffffffff,-0x8(%rbp)
    a6ed:	74 0b                	je     a6fa <safe_mod_func_int32_t_s_s+0x2e>
    a6ef:	8b 45 fc             	mov    -0x4(%rbp),%eax
    a6f2:	99                   	cltd   
    a6f3:	f7 7d f8             	idivl  -0x8(%rbp)
    a6f6:	89 d0                	mov    %edx,%eax
    a6f8:	eb 03                	jmp    a6fd <safe_mod_func_int32_t_s_s+0x31>
    a6fa:	8b 45 fc             	mov    -0x4(%rbp),%eax
    a6fd:	5d                   	pop    %rbp
    a6fe:	c3                   	retq   

000000000000a6ff <safe_div_func_int32_t_s_s>:
    a6ff:	f3 0f 1e fa          	endbr64 
    a703:	55                   	push   %rbp
    a704:	48 89 e5             	mov    %rsp,%rbp
    a707:	89 7d fc             	mov    %edi,-0x4(%rbp)
    a70a:	89 75 f8             	mov    %esi,-0x8(%rbp)
    a70d:	83 7d f8 00          	cmpl   $0x0,-0x8(%rbp)
    a711:	74 18                	je     a72b <safe_div_func_int32_t_s_s+0x2c>
    a713:	81 7d fc 00 00 00 80 	cmpl   $0x80000000,-0x4(%rbp)
    a71a:	75 06                	jne    a722 <safe_div_func_int32_t_s_s+0x23>
    a71c:	83 7d f8 ff          	cmpl   $0xffffffff,-0x8(%rbp)
    a720:	74 09                	je     a72b <safe_div_func_int32_t_s_s+0x2c>
    a722:	8b 45 fc             	mov    -0x4(%rbp),%eax
    a725:	99                   	cltd   
    a726:	f7 7d f8             	idivl  -0x8(%rbp)
    a729:	eb 03                	jmp    a72e <safe_div_func_int32_t_s_s+0x2f>
    a72b:	8b 45 fc             	mov    -0x4(%rbp),%eax
    a72e:	5d                   	pop    %rbp
    a72f:	c3                   	retq   

000000000000a730 <safe_lshift_func_int32_t_s_s>:
    a730:	f3 0f 1e fa          	endbr64 
    a734:	55                   	push   %rbp
    a735:	48 89 e5             	mov    %rsp,%rbp
    a738:	89 7d fc             	mov    %edi,-0x4(%rbp)
    a73b:	89 75 f8             	mov    %esi,-0x8(%rbp)
    a73e:	83 7d fc 00          	cmpl   $0x0,-0x4(%rbp)
    a742:	78 2d                	js     a771 <safe_lshift_func_int32_t_s_s+0x41>
    a744:	83 7d f8 00          	cmpl   $0x0,-0x8(%rbp)
    a748:	78 27                	js     a771 <safe_lshift_func_int32_t_s_s+0x41>
    a74a:	83 7d f8 1f          	cmpl   $0x1f,-0x8(%rbp)
    a74e:	7f 21                	jg     a771 <safe_lshift_func_int32_t_s_s+0x41>
    a750:	8b 45 f8             	mov    -0x8(%rbp),%eax
    a753:	ba ff ff ff 7f       	mov    $0x7fffffff,%edx
    a758:	89 c1                	mov    %eax,%ecx
    a75a:	d3 fa                	sar    %cl,%edx
    a75c:	89 d0                	mov    %edx,%eax
    a75e:	39 45 fc             	cmp    %eax,-0x4(%rbp)
    a761:	7f 0e                	jg     a771 <safe_lshift_func_int32_t_s_s+0x41>
    a763:	8b 45 f8             	mov    -0x8(%rbp),%eax
    a766:	8b 55 fc             	mov    -0x4(%rbp),%edx
    a769:	89 c1                	mov    %eax,%ecx
    a76b:	d3 e2                	shl    %cl,%edx
    a76d:	89 d0                	mov    %edx,%eax
    a76f:	eb 03                	jmp    a774 <safe_lshift_func_int32_t_s_s+0x44>
    a771:	8b 45 fc             	mov    -0x4(%rbp),%eax
    a774:	5d                   	pop    %rbp
    a775:	c3                   	retq   

000000000000a776 <safe_lshift_func_int32_t_s_u>:
    a776:	f3 0f 1e fa          	endbr64 
    a77a:	55                   	push   %rbp
    a77b:	48 89 e5             	mov    %rsp,%rbp
    a77e:	89 7d fc             	mov    %edi,-0x4(%rbp)
    a781:	89 75 f8             	mov    %esi,-0x8(%rbp)
    a784:	83 7d fc 00          	cmpl   $0x0,-0x4(%rbp)
    a788:	78 27                	js     a7b1 <safe_lshift_func_int32_t_s_u+0x3b>
    a78a:	83 7d f8 1f          	cmpl   $0x1f,-0x8(%rbp)
    a78e:	77 21                	ja     a7b1 <safe_lshift_func_int32_t_s_u+0x3b>
    a790:	8b 45 f8             	mov    -0x8(%rbp),%eax
    a793:	ba ff ff ff 7f       	mov    $0x7fffffff,%edx
    a798:	89 c1                	mov    %eax,%ecx
    a79a:	d3 fa                	sar    %cl,%edx
    a79c:	89 d0                	mov    %edx,%eax
    a79e:	39 45 fc             	cmp    %eax,-0x4(%rbp)
    a7a1:	7f 0e                	jg     a7b1 <safe_lshift_func_int32_t_s_u+0x3b>
    a7a3:	8b 45 f8             	mov    -0x8(%rbp),%eax
    a7a6:	8b 55 fc             	mov    -0x4(%rbp),%edx
    a7a9:	89 c1                	mov    %eax,%ecx
    a7ab:	d3 e2                	shl    %cl,%edx
    a7ad:	89 d0                	mov    %edx,%eax
    a7af:	eb 03                	jmp    a7b4 <safe_lshift_func_int32_t_s_u+0x3e>
    a7b1:	8b 45 fc             	mov    -0x4(%rbp),%eax
    a7b4:	5d                   	pop    %rbp
    a7b5:	c3                   	retq   

000000000000a7b6 <safe_rshift_func_int32_t_s_s>:
    a7b6:	f3 0f 1e fa          	endbr64 
    a7ba:	55                   	push   %rbp
    a7bb:	48 89 e5             	mov    %rsp,%rbp
    a7be:	89 7d fc             	mov    %edi,-0x4(%rbp)
    a7c1:	89 75 f8             	mov    %esi,-0x8(%rbp)
    a7c4:	83 7d fc 00          	cmpl   $0x0,-0x4(%rbp)
    a7c8:	78 1a                	js     a7e4 <safe_rshift_func_int32_t_s_s+0x2e>
    a7ca:	83 7d f8 00          	cmpl   $0x0,-0x8(%rbp)
    a7ce:	78 14                	js     a7e4 <safe_rshift_func_int32_t_s_s+0x2e>
    a7d0:	83 7d f8 1f          	cmpl   $0x1f,-0x8(%rbp)
    a7d4:	7f 0e                	jg     a7e4 <safe_rshift_func_int32_t_s_s+0x2e>
    a7d6:	8b 45 f8             	mov    -0x8(%rbp),%eax
    a7d9:	8b 55 fc             	mov    -0x4(%rbp),%edx
    a7dc:	89 c1                	mov    %eax,%ecx
    a7de:	d3 fa                	sar    %cl,%edx
    a7e0:	89 d0                	mov    %edx,%eax
    a7e2:	eb 03                	jmp    a7e7 <safe_rshift_func_int32_t_s_s+0x31>
    a7e4:	8b 45 fc             	mov    -0x4(%rbp),%eax
    a7e7:	5d                   	pop    %rbp
    a7e8:	c3                   	retq   

000000000000a7e9 <safe_rshift_func_int32_t_s_u>:
    a7e9:	f3 0f 1e fa          	endbr64 
    a7ed:	55                   	push   %rbp
    a7ee:	48 89 e5             	mov    %rsp,%rbp
    a7f1:	89 7d fc             	mov    %edi,-0x4(%rbp)
    a7f4:	89 75 f8             	mov    %esi,-0x8(%rbp)
    a7f7:	83 7d fc 00          	cmpl   $0x0,-0x4(%rbp)
    a7fb:	78 14                	js     a811 <safe_rshift_func_int32_t_s_u+0x28>
    a7fd:	83 7d f8 1f          	cmpl   $0x1f,-0x8(%rbp)
    a801:	77 0e                	ja     a811 <safe_rshift_func_int32_t_s_u+0x28>
    a803:	8b 45 f8             	mov    -0x8(%rbp),%eax
    a806:	8b 55 fc             	mov    -0x4(%rbp),%edx
    a809:	89 c1                	mov    %eax,%ecx
    a80b:	d3 fa                	sar    %cl,%edx
    a80d:	89 d0                	mov    %edx,%eax
    a80f:	eb 03                	jmp    a814 <safe_rshift_func_int32_t_s_u+0x2b>
    a811:	8b 45 fc             	mov    -0x4(%rbp),%eax
    a814:	5d                   	pop    %rbp
    a815:	c3                   	retq   

000000000000a816 <safe_unary_minus_func_int64_t_s>:
    a816:	f3 0f 1e fa          	endbr64 
    a81a:	55                   	push   %rbp
    a81b:	48 89 e5             	mov    %rsp,%rbp
    a81e:	48 89 7d f8          	mov    %rdi,-0x8(%rbp)
    a822:	48 b8 00 00 00 00 00 	movabs $0x8000000000000000,%rax
    a829:	00 00 80 
    a82c:	48 39 45 f8          	cmp    %rax,-0x8(%rbp)
    a830:	74 09                	je     a83b <safe_unary_minus_func_int64_t_s+0x25>
    a832:	48 8b 45 f8          	mov    -0x8(%rbp),%rax
    a836:	48 f7 d8             	neg    %rax
    a839:	eb 04                	jmp    a83f <safe_unary_minus_func_int64_t_s+0x29>
    a83b:	48 8b 45 f8          	mov    -0x8(%rbp),%rax
    a83f:	5d                   	pop    %rbp
    a840:	c3                   	retq   

000000000000a841 <safe_add_func_int64_t_s_s>:
    a841:	f3 0f 1e fa          	endbr64 
    a845:	55                   	push   %rbp
    a846:	48 89 e5             	mov    %rsp,%rbp
    a849:	48 89 7d f8          	mov    %rdi,-0x8(%rbp)
    a84d:	48 89 75 f0          	mov    %rsi,-0x10(%rbp)
    a851:	48 83 7d f8 00       	cmpq   $0x0,-0x8(%rbp)
    a856:	7e 1b                	jle    a873 <safe_add_func_int64_t_s_s+0x32>
    a858:	48 83 7d f0 00       	cmpq   $0x0,-0x10(%rbp)
    a85d:	7e 14                	jle    a873 <safe_add_func_int64_t_s_s+0x32>
    a85f:	48 b8 ff ff ff ff ff 	movabs $0x7fffffffffffffff,%rax
    a866:	ff ff 7f 
    a869:	48 2b 45 f0          	sub    -0x10(%rbp),%rax
    a86d:	48 39 45 f8          	cmp    %rax,-0x8(%rbp)
    a871:	7f 2f                	jg     a8a2 <safe_add_func_int64_t_s_s+0x61>
    a873:	48 83 7d f8 00       	cmpq   $0x0,-0x8(%rbp)
    a878:	79 1b                	jns    a895 <safe_add_func_int64_t_s_s+0x54>
    a87a:	48 83 7d f0 00       	cmpq   $0x0,-0x10(%rbp)
    a87f:	79 14                	jns    a895 <safe_add_func_int64_t_s_s+0x54>
    a881:	48 b8 00 00 00 00 00 	movabs $0x8000000000000000,%rax
    a888:	00 00 80 
    a88b:	48 2b 45 f0          	sub    -0x10(%rbp),%rax
    a88f:	48 39 45 f8          	cmp    %rax,-0x8(%rbp)
    a893:	7c 0d                	jl     a8a2 <safe_add_func_int64_t_s_s+0x61>
    a895:	48 8b 55 f8          	mov    -0x8(%rbp),%rdx
    a899:	48 8b 45 f0          	mov    -0x10(%rbp),%rax
    a89d:	48 01 d0             	add    %rdx,%rax
    a8a0:	eb 04                	jmp    a8a6 <safe_add_func_int64_t_s_s+0x65>
    a8a2:	48 8b 45 f8          	mov    -0x8(%rbp),%rax
    a8a6:	5d                   	pop    %rbp
    a8a7:	c3                   	retq   

000000000000a8a8 <safe_sub_func_int64_t_s_s>:
    a8a8:	f3 0f 1e fa          	endbr64 
    a8ac:	55                   	push   %rbp
    a8ad:	48 89 e5             	mov    %rsp,%rbp
    a8b0:	48 89 7d f8          	mov    %rdi,-0x8(%rbp)
    a8b4:	48 89 75 f0          	mov    %rsi,-0x10(%rbp)
    a8b8:	48 8b 45 f8          	mov    -0x8(%rbp),%rax
    a8bc:	48 33 45 f0          	xor    -0x10(%rbp),%rax
    a8c0:	48 89 c2             	mov    %rax,%rdx
    a8c3:	48 8b 45 f8          	mov    -0x8(%rbp),%rax
    a8c7:	48 33 45 f0          	xor    -0x10(%rbp),%rax
    a8cb:	48 b9 00 00 00 00 00 	movabs $0x8000000000000000,%rcx
    a8d2:	00 00 80 
    a8d5:	48 21 c8             	and    %rcx,%rax
    a8d8:	48 33 45 f8          	xor    -0x8(%rbp),%rax
    a8dc:	48 2b 45 f0          	sub    -0x10(%rbp),%rax
    a8e0:	48 33 45 f0          	xor    -0x10(%rbp),%rax
    a8e4:	48 21 d0             	and    %rdx,%rax
    a8e7:	48 85 c0             	test   %rax,%rax
    a8ea:	78 0a                	js     a8f6 <safe_sub_func_int64_t_s_s+0x4e>
    a8ec:	48 8b 45 f8          	mov    -0x8(%rbp),%rax
    a8f0:	48 2b 45 f0          	sub    -0x10(%rbp),%rax
    a8f4:	eb 04                	jmp    a8fa <safe_sub_func_int64_t_s_s+0x52>
    a8f6:	48 8b 45 f8          	mov    -0x8(%rbp),%rax
    a8fa:	5d                   	pop    %rbp
    a8fb:	c3                   	retq   

000000000000a8fc <safe_mul_func_int64_t_s_s>:
    a8fc:	f3 0f 1e fa          	endbr64 
    a900:	55                   	push   %rbp
    a901:	48 89 e5             	mov    %rsp,%rbp
    a904:	48 89 7d f8          	mov    %rdi,-0x8(%rbp)
    a908:	48 89 75 f0          	mov    %rsi,-0x10(%rbp)
    a90c:	48 83 7d f8 00       	cmpq   $0x0,-0x8(%rbp)
    a911:	7e 1d                	jle    a930 <safe_mul_func_int64_t_s_s+0x34>
    a913:	48 83 7d f0 00       	cmpq   $0x0,-0x10(%rbp)
    a918:	7e 16                	jle    a930 <safe_mul_func_int64_t_s_s+0x34>
    a91a:	48 b8 ff ff ff ff ff 	movabs $0x7fffffffffffffff,%rax
    a921:	ff ff 7f 
    a924:	48 99                	cqto   
    a926:	48 f7 7d f0          	idivq  -0x10(%rbp)
    a92a:	48 39 45 f8          	cmp    %rax,-0x8(%rbp)
    a92e:	7f 7e                	jg     a9ae <safe_mul_func_int64_t_s_s+0xb2>
    a930:	48 83 7d f8 00       	cmpq   $0x0,-0x8(%rbp)
    a935:	7e 1d                	jle    a954 <safe_mul_func_int64_t_s_s+0x58>
    a937:	48 83 7d f0 00       	cmpq   $0x0,-0x10(%rbp)
    a93c:	7f 16                	jg     a954 <safe_mul_func_int64_t_s_s+0x58>
    a93e:	48 b8 00 00 00 00 00 	movabs $0x8000000000000000,%rax
    a945:	00 00 80 
    a948:	48 99                	cqto   
    a94a:	48 f7 7d f8          	idivq  -0x8(%rbp)
    a94e:	48 39 45 f0          	cmp    %rax,-0x10(%rbp)
    a952:	7c 5a                	jl     a9ae <safe_mul_func_int64_t_s_s+0xb2>
    a954:	48 83 7d f8 00       	cmpq   $0x0,-0x8(%rbp)
    a959:	7f 1d                	jg     a978 <safe_mul_func_int64_t_s_s+0x7c>
    a95b:	48 83 7d f0 00       	cmpq   $0x0,-0x10(%rbp)
    a960:	7e 16                	jle    a978 <safe_mul_func_int64_t_s_s+0x7c>
    a962:	48 b8 00 00 00 00 00 	movabs $0x8000000000000000,%rax
    a969:	00 00 80 
    a96c:	48 99                	cqto   
    a96e:	48 f7 7d f0          	idivq  -0x10(%rbp)
    a972:	48 39 45 f8          	cmp    %rax,-0x8(%rbp)
    a976:	7c 36                	jl     a9ae <safe_mul_func_int64_t_s_s+0xb2>
    a978:	48 83 7d f8 00       	cmpq   $0x0,-0x8(%rbp)
    a97d:	7f 24                	jg     a9a3 <safe_mul_func_int64_t_s_s+0xa7>
    a97f:	48 83 7d f0 00       	cmpq   $0x0,-0x10(%rbp)
    a984:	7f 1d                	jg     a9a3 <safe_mul_func_int64_t_s_s+0xa7>
    a986:	48 83 7d f8 00       	cmpq   $0x0,-0x8(%rbp)
    a98b:	74 16                	je     a9a3 <safe_mul_func_int64_t_s_s+0xa7>
    a98d:	48 b8 ff ff ff ff ff 	movabs $0x7fffffffffffffff,%rax
    a994:	ff ff 7f 
    a997:	48 99                	cqto   
    a999:	48 f7 7d f8          	idivq  -0x8(%rbp)
    a99d:	48 39 45 f0          	cmp    %rax,-0x10(%rbp)
    a9a1:	7c 0b                	jl     a9ae <safe_mul_func_int64_t_s_s+0xb2>
    a9a3:	48 8b 45 f8          	mov    -0x8(%rbp),%rax
    a9a7:	48 0f af 45 f0       	imul   -0x10(%rbp),%rax
    a9ac:	eb 04                	jmp    a9b2 <safe_mul_func_int64_t_s_s+0xb6>
    a9ae:	48 8b 45 f8          	mov    -0x8(%rbp),%rax
    a9b2:	5d                   	pop    %rbp
    a9b3:	c3                   	retq   

000000000000a9b4 <safe_mod_func_int64_t_s_s>:
    a9b4:	f3 0f 1e fa          	endbr64 
    a9b8:	55                   	push   %rbp
    a9b9:	48 89 e5             	mov    %rsp,%rbp
    a9bc:	48 89 7d f8          	mov    %rdi,-0x8(%rbp)
    a9c0:	48 89 75 f0          	mov    %rsi,-0x10(%rbp)
    a9c4:	48 83 7d f0 00       	cmpq   $0x0,-0x10(%rbp)
    a9c9:	74 26                	je     a9f1 <safe_mod_func_int64_t_s_s+0x3d>
    a9cb:	48 b8 00 00 00 00 00 	movabs $0x8000000000000000,%rax
    a9d2:	00 00 80 
    a9d5:	48 39 45 f8          	cmp    %rax,-0x8(%rbp)
    a9d9:	75 07                	jne    a9e2 <safe_mod_func_int64_t_s_s+0x2e>
    a9db:	48 83 7d f0 ff       	cmpq   $0xffffffffffffffff,-0x10(%rbp)
    a9e0:	74 0f                	je     a9f1 <safe_mod_func_int64_t_s_s+0x3d>
    a9e2:	48 8b 45 f8          	mov    -0x8(%rbp),%rax
    a9e6:	48 99                	cqto   
    a9e8:	48 f7 7d f0          	idivq  -0x10(%rbp)
    a9ec:	48 89 d0             	mov    %rdx,%rax
    a9ef:	eb 04                	jmp    a9f5 <safe_mod_func_int64_t_s_s+0x41>
    a9f1:	48 8b 45 f8          	mov    -0x8(%rbp),%rax
    a9f5:	5d                   	pop    %rbp
    a9f6:	c3                   	retq   

000000000000a9f7 <safe_div_func_int64_t_s_s>:
    a9f7:	f3 0f 1e fa          	endbr64 
    a9fb:	55                   	push   %rbp
    a9fc:	48 89 e5             	mov    %rsp,%rbp
    a9ff:	48 89 7d f8          	mov    %rdi,-0x8(%rbp)
    aa03:	48 89 75 f0          	mov    %rsi,-0x10(%rbp)
    aa07:	48 83 7d f0 00       	cmpq   $0x0,-0x10(%rbp)
    aa0c:	74 23                	je     aa31 <safe_div_func_int64_t_s_s+0x3a>
    aa0e:	48 b8 00 00 00 00 00 	movabs $0x8000000000000000,%rax
    aa15:	00 00 80 
    aa18:	48 39 45 f8          	cmp    %rax,-0x8(%rbp)
    aa1c:	75 07                	jne    aa25 <safe_div_func_int64_t_s_s+0x2e>
    aa1e:	48 83 7d f0 ff       	cmpq   $0xffffffffffffffff,-0x10(%rbp)
    aa23:	74 0c                	je     aa31 <safe_div_func_int64_t_s_s+0x3a>
    aa25:	48 8b 45 f8          	mov    -0x8(%rbp),%rax
    aa29:	48 99                	cqto   
    aa2b:	48 f7 7d f0          	idivq  -0x10(%rbp)
    aa2f:	eb 04                	jmp    aa35 <safe_div_func_int64_t_s_s+0x3e>
    aa31:	48 8b 45 f8          	mov    -0x8(%rbp),%rax
    aa35:	5d                   	pop    %rbp
    aa36:	c3                   	retq   

000000000000aa37 <safe_lshift_func_int64_t_s_s>:
    aa37:	f3 0f 1e fa          	endbr64 
    aa3b:	55                   	push   %rbp
    aa3c:	48 89 e5             	mov    %rsp,%rbp
    aa3f:	48 89 7d f8          	mov    %rdi,-0x8(%rbp)
    aa43:	89 75 f4             	mov    %esi,-0xc(%rbp)
    aa46:	48 83 7d f8 00       	cmpq   $0x0,-0x8(%rbp)
    aa4b:	78 38                	js     aa85 <safe_lshift_func_int64_t_s_s+0x4e>
    aa4d:	83 7d f4 00          	cmpl   $0x0,-0xc(%rbp)
    aa51:	78 32                	js     aa85 <safe_lshift_func_int64_t_s_s+0x4e>
    aa53:	83 7d f4 1f          	cmpl   $0x1f,-0xc(%rbp)
    aa57:	7f 2c                	jg     aa85 <safe_lshift_func_int64_t_s_s+0x4e>
    aa59:	8b 45 f4             	mov    -0xc(%rbp),%eax
    aa5c:	48 ba ff ff ff ff ff 	movabs $0x7fffffffffffffff,%rdx
    aa63:	ff ff 7f 
    aa66:	89 c1                	mov    %eax,%ecx
    aa68:	48 d3 fa             	sar    %cl,%rdx
    aa6b:	48 89 d0             	mov    %rdx,%rax
    aa6e:	48 39 45 f8          	cmp    %rax,-0x8(%rbp)
    aa72:	7f 11                	jg     aa85 <safe_lshift_func_int64_t_s_s+0x4e>
    aa74:	8b 45 f4             	mov    -0xc(%rbp),%eax
    aa77:	48 8b 55 f8          	mov    -0x8(%rbp),%rdx
    aa7b:	89 c1                	mov    %eax,%ecx
    aa7d:	48 d3 e2             	shl    %cl,%rdx
    aa80:	48 89 d0             	mov    %rdx,%rax
    aa83:	eb 04                	jmp    aa89 <safe_lshift_func_int64_t_s_s+0x52>
    aa85:	48 8b 45 f8          	mov    -0x8(%rbp),%rax
    aa89:	5d                   	pop    %rbp
    aa8a:	c3                   	retq   

000000000000aa8b <safe_lshift_func_int64_t_s_u>:
    aa8b:	f3 0f 1e fa          	endbr64 
    aa8f:	55                   	push   %rbp
    aa90:	48 89 e5             	mov    %rsp,%rbp
    aa93:	48 89 7d f8          	mov    %rdi,-0x8(%rbp)
    aa97:	89 75 f4             	mov    %esi,-0xc(%rbp)
    aa9a:	48 83 7d f8 00       	cmpq   $0x0,-0x8(%rbp)
    aa9f:	78 32                	js     aad3 <safe_lshift_func_int64_t_s_u+0x48>
    aaa1:	83 7d f4 1f          	cmpl   $0x1f,-0xc(%rbp)
    aaa5:	77 2c                	ja     aad3 <safe_lshift_func_int64_t_s_u+0x48>
    aaa7:	8b 45 f4             	mov    -0xc(%rbp),%eax
    aaaa:	48 ba ff ff ff ff ff 	movabs $0x7fffffffffffffff,%rdx
    aab1:	ff ff 7f 
    aab4:	89 c1                	mov    %eax,%ecx
    aab6:	48 d3 fa             	sar    %cl,%rdx
    aab9:	48 89 d0             	mov    %rdx,%rax
    aabc:	48 39 45 f8          	cmp    %rax,-0x8(%rbp)
    aac0:	7f 11                	jg     aad3 <safe_lshift_func_int64_t_s_u+0x48>
    aac2:	8b 45 f4             	mov    -0xc(%rbp),%eax
    aac5:	48 8b 55 f8          	mov    -0x8(%rbp),%rdx
    aac9:	89 c1                	mov    %eax,%ecx
    aacb:	48 d3 e2             	shl    %cl,%rdx
    aace:	48 89 d0             	mov    %rdx,%rax
    aad1:	eb 04                	jmp    aad7 <safe_lshift_func_int64_t_s_u+0x4c>
    aad3:	48 8b 45 f8          	mov    -0x8(%rbp),%rax
    aad7:	5d                   	pop    %rbp
    aad8:	c3                   	retq   

000000000000aad9 <safe_rshift_func_int64_t_s_s>:
    aad9:	f3 0f 1e fa          	endbr64 
    aadd:	55                   	push   %rbp
    aade:	48 89 e5             	mov    %rsp,%rbp
    aae1:	48 89 7d f8          	mov    %rdi,-0x8(%rbp)
    aae5:	89 75 f4             	mov    %esi,-0xc(%rbp)
    aae8:	48 83 7d f8 00       	cmpq   $0x0,-0x8(%rbp)
    aaed:	78 1d                	js     ab0c <safe_rshift_func_int64_t_s_s+0x33>
    aaef:	83 7d f4 00          	cmpl   $0x0,-0xc(%rbp)
    aaf3:	78 17                	js     ab0c <safe_rshift_func_int64_t_s_s+0x33>
    aaf5:	83 7d f4 1f          	cmpl   $0x1f,-0xc(%rbp)
    aaf9:	7f 11                	jg     ab0c <safe_rshift_func_int64_t_s_s+0x33>
    aafb:	8b 45 f4             	mov    -0xc(%rbp),%eax
    aafe:	48 8b 55 f8          	mov    -0x8(%rbp),%rdx
    ab02:	89 c1                	mov    %eax,%ecx
    ab04:	48 d3 fa             	sar    %cl,%rdx
    ab07:	48 89 d0             	mov    %rdx,%rax
    ab0a:	eb 04                	jmp    ab10 <safe_rshift_func_int64_t_s_s+0x37>
    ab0c:	48 8b 45 f8          	mov    -0x8(%rbp),%rax
    ab10:	5d                   	pop    %rbp
    ab11:	c3                   	retq   

000000000000ab12 <safe_rshift_func_int64_t_s_u>:
    ab12:	f3 0f 1e fa          	endbr64 
    ab16:	55                   	push   %rbp
    ab17:	48 89 e5             	mov    %rsp,%rbp
    ab1a:	48 89 7d f8          	mov    %rdi,-0x8(%rbp)
    ab1e:	89 75 f4             	mov    %esi,-0xc(%rbp)
    ab21:	48 83 7d f8 00       	cmpq   $0x0,-0x8(%rbp)
    ab26:	78 17                	js     ab3f <safe_rshift_func_int64_t_s_u+0x2d>
    ab28:	83 7d f4 1f          	cmpl   $0x1f,-0xc(%rbp)
    ab2c:	77 11                	ja     ab3f <safe_rshift_func_int64_t_s_u+0x2d>
    ab2e:	8b 45 f4             	mov    -0xc(%rbp),%eax
    ab31:	48 8b 55 f8          	mov    -0x8(%rbp),%rdx
    ab35:	89 c1                	mov    %eax,%ecx
    ab37:	48 d3 fa             	sar    %cl,%rdx
    ab3a:	48 89 d0             	mov    %rdx,%rax
    ab3d:	eb 04                	jmp    ab43 <safe_rshift_func_int64_t_s_u+0x31>
    ab3f:	48 8b 45 f8          	mov    -0x8(%rbp),%rax
    ab43:	5d                   	pop    %rbp
    ab44:	c3                   	retq   

000000000000ab45 <safe_unary_minus_func_uint8_t_u>:
    ab45:	f3 0f 1e fa          	endbr64 
    ab49:	55                   	push   %rbp
    ab4a:	48 89 e5             	mov    %rsp,%rbp
    ab4d:	89 f8                	mov    %edi,%eax
    ab4f:	88 45 fc             	mov    %al,-0x4(%rbp)
    ab52:	0f b6 45 fc          	movzbl -0x4(%rbp),%eax
    ab56:	f7 d8                	neg    %eax
    ab58:	5d                   	pop    %rbp
    ab59:	c3                   	retq   

000000000000ab5a <safe_add_func_uint8_t_u_u>:
    ab5a:	f3 0f 1e fa          	endbr64 
    ab5e:	55                   	push   %rbp
    ab5f:	48 89 e5             	mov    %rsp,%rbp
    ab62:	89 fa                	mov    %edi,%edx
    ab64:	89 f0                	mov    %esi,%eax
    ab66:	88 55 fc             	mov    %dl,-0x4(%rbp)
    ab69:	88 45 f8             	mov    %al,-0x8(%rbp)
    ab6c:	0f b6 55 fc          	movzbl -0x4(%rbp),%edx
    ab70:	0f b6 45 f8          	movzbl -0x8(%rbp),%eax
    ab74:	01 d0                	add    %edx,%eax
    ab76:	5d                   	pop    %rbp
    ab77:	c3                   	retq   

000000000000ab78 <safe_sub_func_uint8_t_u_u>:
    ab78:	f3 0f 1e fa          	endbr64 
    ab7c:	55                   	push   %rbp
    ab7d:	48 89 e5             	mov    %rsp,%rbp
    ab80:	89 fa                	mov    %edi,%edx
    ab82:	89 f0                	mov    %esi,%eax
    ab84:	88 55 fc             	mov    %dl,-0x4(%rbp)
    ab87:	88 45 f8             	mov    %al,-0x8(%rbp)
    ab8a:	0f b6 45 fc          	movzbl -0x4(%rbp),%eax
    ab8e:	2a 45 f8             	sub    -0x8(%rbp),%al
    ab91:	5d                   	pop    %rbp
    ab92:	c3                   	retq   

000000000000ab93 <safe_mul_func_uint8_t_u_u>:
    ab93:	f3 0f 1e fa          	endbr64 
    ab97:	55                   	push   %rbp
    ab98:	48 89 e5             	mov    %rsp,%rbp
    ab9b:	89 fa                	mov    %edi,%edx
    ab9d:	89 f0                	mov    %esi,%eax
    ab9f:	88 55 fc             	mov    %dl,-0x4(%rbp)
    aba2:	88 45 f8             	mov    %al,-0x8(%rbp)
    aba5:	0f b6 45 fc          	movzbl -0x4(%rbp),%eax
    aba9:	f6 65 f8             	mulb   -0x8(%rbp)
    abac:	5d                   	pop    %rbp
    abad:	c3                   	retq   

000000000000abae <safe_mod_func_uint8_t_u_u>:
    abae:	f3 0f 1e fa          	endbr64 
    abb2:	55                   	push   %rbp
    abb3:	48 89 e5             	mov    %rsp,%rbp
    abb6:	89 fa                	mov    %edi,%edx
    abb8:	89 f0                	mov    %esi,%eax
    abba:	88 55 fc             	mov    %dl,-0x4(%rbp)
    abbd:	88 45 f8             	mov    %al,-0x8(%rbp)
    abc0:	80 7d f8 00          	cmpb   $0x0,-0x8(%rbp)
    abc4:	74 0f                	je     abd5 <safe_mod_func_uint8_t_u_u+0x27>
    abc6:	0f b6 45 fc          	movzbl -0x4(%rbp),%eax
    abca:	0f b6 c0             	movzbl %al,%eax
    abcd:	f6 75 f8             	divb   -0x8(%rbp)
    abd0:	0f b6 c4             	movzbl %ah,%eax
    abd3:	eb 04                	jmp    abd9 <safe_mod_func_uint8_t_u_u+0x2b>
    abd5:	0f b6 45 fc          	movzbl -0x4(%rbp),%eax
    abd9:	5d                   	pop    %rbp
    abda:	c3                   	retq   

000000000000abdb <safe_div_func_uint8_t_u_u>:
    abdb:	f3 0f 1e fa          	endbr64 
    abdf:	55                   	push   %rbp
    abe0:	48 89 e5             	mov    %rsp,%rbp
    abe3:	89 fa                	mov    %edi,%edx
    abe5:	89 f0                	mov    %esi,%eax
    abe7:	88 55 fc             	mov    %dl,-0x4(%rbp)
    abea:	88 45 f8             	mov    %al,-0x8(%rbp)
    abed:	80 7d f8 00          	cmpb   $0x0,-0x8(%rbp)
    abf1:	74 0c                	je     abff <safe_div_func_uint8_t_u_u+0x24>
    abf3:	0f b6 45 fc          	movzbl -0x4(%rbp),%eax
    abf7:	0f b6 c0             	movzbl %al,%eax
    abfa:	f6 75 f8             	divb   -0x8(%rbp)
    abfd:	eb 04                	jmp    ac03 <safe_div_func_uint8_t_u_u+0x28>
    abff:	0f b6 45 fc          	movzbl -0x4(%rbp),%eax
    ac03:	5d                   	pop    %rbp
    ac04:	c3                   	retq   

000000000000ac05 <safe_lshift_func_uint8_t_u_s>:
    ac05:	f3 0f 1e fa          	endbr64 
    ac09:	55                   	push   %rbp
    ac0a:	48 89 e5             	mov    %rsp,%rbp
    ac0d:	89 f8                	mov    %edi,%eax
    ac0f:	89 75 f8             	mov    %esi,-0x8(%rbp)
    ac12:	88 45 fc             	mov    %al,-0x4(%rbp)
    ac15:	83 7d f8 00          	cmpl   $0x0,-0x8(%rbp)
    ac19:	78 2b                	js     ac46 <safe_lshift_func_uint8_t_u_s+0x41>
    ac1b:	83 7d f8 1f          	cmpl   $0x1f,-0x8(%rbp)
    ac1f:	7f 25                	jg     ac46 <safe_lshift_func_uint8_t_u_s+0x41>
    ac21:	0f b6 55 fc          	movzbl -0x4(%rbp),%edx
    ac25:	8b 45 f8             	mov    -0x8(%rbp),%eax
    ac28:	be ff 00 00 00       	mov    $0xff,%esi
    ac2d:	89 c1                	mov    %eax,%ecx
    ac2f:	d3 fe                	sar    %cl,%esi
    ac31:	89 f0                	mov    %esi,%eax
    ac33:	39 c2                	cmp    %eax,%edx
    ac35:	7f 0f                	jg     ac46 <safe_lshift_func_uint8_t_u_s+0x41>
    ac37:	0f b6 55 fc          	movzbl -0x4(%rbp),%edx
    ac3b:	8b 45 f8             	mov    -0x8(%rbp),%eax
    ac3e:	89 c1                	mov    %eax,%ecx
    ac40:	d3 e2                	shl    %cl,%edx
    ac42:	89 d0                	mov    %edx,%eax
    ac44:	eb 04                	jmp    ac4a <safe_lshift_func_uint8_t_u_s+0x45>
    ac46:	0f b6 45 fc          	movzbl -0x4(%rbp),%eax
    ac4a:	5d                   	pop    %rbp
    ac4b:	c3                   	retq   

000000000000ac4c <safe_lshift_func_uint8_t_u_u>:
    ac4c:	f3 0f 1e fa          	endbr64 
    ac50:	55                   	push   %rbp
    ac51:	48 89 e5             	mov    %rsp,%rbp
    ac54:	89 f8                	mov    %edi,%eax
    ac56:	89 75 f8             	mov    %esi,-0x8(%rbp)
    ac59:	88 45 fc             	mov    %al,-0x4(%rbp)
    ac5c:	83 7d f8 1f          	cmpl   $0x1f,-0x8(%rbp)
    ac60:	77 25                	ja     ac87 <safe_lshift_func_uint8_t_u_u+0x3b>
    ac62:	0f b6 55 fc          	movzbl -0x4(%rbp),%edx
    ac66:	8b 45 f8             	mov    -0x8(%rbp),%eax
    ac69:	be ff 00 00 00       	mov    $0xff,%esi
    ac6e:	89 c1                	mov    %eax,%ecx
    ac70:	d3 fe                	sar    %cl,%esi
    ac72:	89 f0                	mov    %esi,%eax
    ac74:	39 c2                	cmp    %eax,%edx
    ac76:	7f 0f                	jg     ac87 <safe_lshift_func_uint8_t_u_u+0x3b>
    ac78:	0f b6 55 fc          	movzbl -0x4(%rbp),%edx
    ac7c:	8b 45 f8             	mov    -0x8(%rbp),%eax
    ac7f:	89 c1                	mov    %eax,%ecx
    ac81:	d3 e2                	shl    %cl,%edx
    ac83:	89 d0                	mov    %edx,%eax
    ac85:	eb 04                	jmp    ac8b <safe_lshift_func_uint8_t_u_u+0x3f>
    ac87:	0f b6 45 fc          	movzbl -0x4(%rbp),%eax
    ac8b:	5d                   	pop    %rbp
    ac8c:	c3                   	retq   

000000000000ac8d <safe_rshift_func_uint8_t_u_s>:
    ac8d:	f3 0f 1e fa          	endbr64 
    ac91:	55                   	push   %rbp
    ac92:	48 89 e5             	mov    %rsp,%rbp
    ac95:	89 f8                	mov    %edi,%eax
    ac97:	89 75 f8             	mov    %esi,-0x8(%rbp)
    ac9a:	88 45 fc             	mov    %al,-0x4(%rbp)
    ac9d:	83 7d f8 00          	cmpl   $0x0,-0x8(%rbp)
    aca1:	78 15                	js     acb8 <safe_rshift_func_uint8_t_u_s+0x2b>
    aca3:	83 7d f8 1f          	cmpl   $0x1f,-0x8(%rbp)
    aca7:	7f 0f                	jg     acb8 <safe_rshift_func_uint8_t_u_s+0x2b>
    aca9:	0f b6 55 fc          	movzbl -0x4(%rbp),%edx
    acad:	8b 45 f8             	mov    -0x8(%rbp),%eax
    acb0:	89 c1                	mov    %eax,%ecx
    acb2:	d3 fa                	sar    %cl,%edx
    acb4:	89 d0                	mov    %edx,%eax
    acb6:	eb 04                	jmp    acbc <safe_rshift_func_uint8_t_u_s+0x2f>
    acb8:	0f b6 45 fc          	movzbl -0x4(%rbp),%eax
    acbc:	5d                   	pop    %rbp
    acbd:	c3                   	retq   

000000000000acbe <safe_rshift_func_uint8_t_u_u>:
    acbe:	f3 0f 1e fa          	endbr64 
    acc2:	55                   	push   %rbp
    acc3:	48 89 e5             	mov    %rsp,%rbp
    acc6:	89 f8                	mov    %edi,%eax
    acc8:	89 75 f8             	mov    %esi,-0x8(%rbp)
    accb:	88 45 fc             	mov    %al,-0x4(%rbp)
    acce:	83 7d f8 1f          	cmpl   $0x1f,-0x8(%rbp)
    acd2:	77 0f                	ja     ace3 <safe_rshift_func_uint8_t_u_u+0x25>
    acd4:	0f b6 55 fc          	movzbl -0x4(%rbp),%edx
    acd8:	8b 45 f8             	mov    -0x8(%rbp),%eax
    acdb:	89 c1                	mov    %eax,%ecx
    acdd:	d3 fa                	sar    %cl,%edx
    acdf:	89 d0                	mov    %edx,%eax
    ace1:	eb 04                	jmp    ace7 <safe_rshift_func_uint8_t_u_u+0x29>
    ace3:	0f b6 45 fc          	movzbl -0x4(%rbp),%eax
    ace7:	5d                   	pop    %rbp
    ace8:	c3                   	retq   

000000000000ace9 <safe_unary_minus_func_uint16_t_u>:
    ace9:	f3 0f 1e fa          	endbr64 
    aced:	55                   	push   %rbp
    acee:	48 89 e5             	mov    %rsp,%rbp
    acf1:	89 f8                	mov    %edi,%eax
    acf3:	66 89 45 fc          	mov    %ax,-0x4(%rbp)
    acf7:	0f b7 45 fc          	movzwl -0x4(%rbp),%eax
    acfb:	f7 d8                	neg    %eax
    acfd:	5d                   	pop    %rbp
    acfe:	c3                   	retq   

000000000000acff <safe_add_func_uint16_t_u_u>:
    acff:	f3 0f 1e fa          	endbr64 
    ad03:	55                   	push   %rbp
    ad04:	48 89 e5             	mov    %rsp,%rbp
    ad07:	89 fa                	mov    %edi,%edx
    ad09:	89 f0                	mov    %esi,%eax
    ad0b:	66 89 55 fc          	mov    %dx,-0x4(%rbp)
    ad0f:	66 89 45 f8          	mov    %ax,-0x8(%rbp)
    ad13:	0f b7 55 fc          	movzwl -0x4(%rbp),%edx
    ad17:	0f b7 45 f8          	movzwl -0x8(%rbp),%eax
    ad1b:	01 d0                	add    %edx,%eax
    ad1d:	5d                   	pop    %rbp
    ad1e:	c3                   	retq   

000000000000ad1f <safe_sub_func_uint16_t_u_u>:
    ad1f:	f3 0f 1e fa          	endbr64 
    ad23:	55                   	push   %rbp
    ad24:	48 89 e5             	mov    %rsp,%rbp
    ad27:	89 fa                	mov    %edi,%edx
    ad29:	89 f0                	mov    %esi,%eax
    ad2b:	66 89 55 fc          	mov    %dx,-0x4(%rbp)
    ad2f:	66 89 45 f8          	mov    %ax,-0x8(%rbp)
    ad33:	0f b7 45 fc          	movzwl -0x4(%rbp),%eax
    ad37:	66 2b 45 f8          	sub    -0x8(%rbp),%ax
    ad3b:	5d                   	pop    %rbp
    ad3c:	c3                   	retq   

000000000000ad3d <safe_mul_func_uint16_t_u_u>:
    ad3d:	f3 0f 1e fa          	endbr64 
    ad41:	55                   	push   %rbp
    ad42:	48 89 e5             	mov    %rsp,%rbp
    ad45:	89 fa                	mov    %edi,%edx
    ad47:	89 f0                	mov    %esi,%eax
    ad49:	66 89 55 fc          	mov    %dx,-0x4(%rbp)
    ad4d:	66 89 45 f8          	mov    %ax,-0x8(%rbp)
    ad51:	0f b7 45 fc          	movzwl -0x4(%rbp),%eax
    ad55:	66 0f af 45 f8       	imul   -0x8(%rbp),%ax
    ad5a:	5d                   	pop    %rbp
    ad5b:	c3                   	retq   

000000000000ad5c <safe_mod_func_uint16_t_u_u>:
    ad5c:	f3 0f 1e fa          	endbr64 
    ad60:	55                   	push   %rbp
    ad61:	48 89 e5             	mov    %rsp,%rbp
    ad64:	89 fa                	mov    %edi,%edx
    ad66:	89 f0                	mov    %esi,%eax
    ad68:	66 89 55 fc          	mov    %dx,-0x4(%rbp)
    ad6c:	66 89 45 f8          	mov    %ax,-0x8(%rbp)
    ad70:	66 83 7d f8 00       	cmpw   $0x0,-0x8(%rbp)
    ad75:	74 11                	je     ad88 <safe_mod_func_uint16_t_u_u+0x2c>
    ad77:	0f b7 45 fc          	movzwl -0x4(%rbp),%eax
    ad7b:	ba 00 00 00 00       	mov    $0x0,%edx
    ad80:	66 f7 75 f8          	divw   -0x8(%rbp)
    ad84:	89 d0                	mov    %edx,%eax
    ad86:	eb 04                	jmp    ad8c <safe_mod_func_uint16_t_u_u+0x30>
    ad88:	0f b7 45 fc          	movzwl -0x4(%rbp),%eax
    ad8c:	5d                   	pop    %rbp
    ad8d:	c3                   	retq   

000000000000ad8e <safe_div_func_uint16_t_u_u>:
    ad8e:	f3 0f 1e fa          	endbr64 
    ad92:	55                   	push   %rbp
    ad93:	48 89 e5             	mov    %rsp,%rbp
    ad96:	89 fa                	mov    %edi,%edx
    ad98:	89 f0                	mov    %esi,%eax
    ad9a:	66 89 55 fc          	mov    %dx,-0x4(%rbp)
    ad9e:	66 89 45 f8          	mov    %ax,-0x8(%rbp)
    ada2:	66 83 7d f8 00       	cmpw   $0x0,-0x8(%rbp)
    ada7:	74 0f                	je     adb8 <safe_div_func_uint16_t_u_u+0x2a>
    ada9:	0f b7 45 fc          	movzwl -0x4(%rbp),%eax
    adad:	ba 00 00 00 00       	mov    $0x0,%edx
    adb2:	66 f7 75 f8          	divw   -0x8(%rbp)
    adb6:	eb 04                	jmp    adbc <safe_div_func_uint16_t_u_u+0x2e>
    adb8:	0f b7 45 fc          	movzwl -0x4(%rbp),%eax
    adbc:	5d                   	pop    %rbp
    adbd:	c3                   	retq   

000000000000adbe <safe_lshift_func_uint16_t_u_s>:
    adbe:	f3 0f 1e fa          	endbr64 
    adc2:	55                   	push   %rbp
    adc3:	48 89 e5             	mov    %rsp,%rbp
    adc6:	89 f8                	mov    %edi,%eax
    adc8:	89 75 f8             	mov    %esi,-0x8(%rbp)
    adcb:	66 89 45 fc          	mov    %ax,-0x4(%rbp)
    adcf:	83 7d f8 00          	cmpl   $0x0,-0x8(%rbp)
    add3:	78 2b                	js     ae00 <safe_lshift_func_uint16_t_u_s+0x42>
    add5:	83 7d f8 1f          	cmpl   $0x1f,-0x8(%rbp)
    add9:	7f 25                	jg     ae00 <safe_lshift_func_uint16_t_u_s+0x42>
    addb:	0f b7 55 fc          	movzwl -0x4(%rbp),%edx
    addf:	8b 45 f8             	mov    -0x8(%rbp),%eax
    ade2:	be ff ff 00 00       	mov    $0xffff,%esi
    ade7:	89 c1                	mov    %eax,%ecx
    ade9:	d3 fe                	sar    %cl,%esi
    adeb:	89 f0                	mov    %esi,%eax
    aded:	39 c2                	cmp    %eax,%edx
    adef:	7f 0f                	jg     ae00 <safe_lshift_func_uint16_t_u_s+0x42>
    adf1:	0f b7 55 fc          	movzwl -0x4(%rbp),%edx
    adf5:	8b 45 f8             	mov    -0x8(%rbp),%eax
    adf8:	89 c1                	mov    %eax,%ecx
    adfa:	d3 e2                	shl    %cl,%edx
    adfc:	89 d0                	mov    %edx,%eax
    adfe:	eb 04                	jmp    ae04 <safe_lshift_func_uint16_t_u_s+0x46>
    ae00:	0f b7 45 fc          	movzwl -0x4(%rbp),%eax
    ae04:	5d                   	pop    %rbp
    ae05:	c3                   	retq   

000000000000ae06 <safe_lshift_func_uint16_t_u_u>:
    ae06:	f3 0f 1e fa          	endbr64 
    ae0a:	55                   	push   %rbp
    ae0b:	48 89 e5             	mov    %rsp,%rbp
    ae0e:	89 f8                	mov    %edi,%eax
    ae10:	89 75 f8             	mov    %esi,-0x8(%rbp)
    ae13:	66 89 45 fc          	mov    %ax,-0x4(%rbp)
    ae17:	83 7d f8 1f          	cmpl   $0x1f,-0x8(%rbp)
    ae1b:	77 25                	ja     ae42 <safe_lshift_func_uint16_t_u_u+0x3c>
    ae1d:	0f b7 55 fc          	movzwl -0x4(%rbp),%edx
    ae21:	8b 45 f8             	mov    -0x8(%rbp),%eax
    ae24:	be ff ff 00 00       	mov    $0xffff,%esi
    ae29:	89 c1                	mov    %eax,%ecx
    ae2b:	d3 fe                	sar    %cl,%esi
    ae2d:	89 f0                	mov    %esi,%eax
    ae2f:	39 c2                	cmp    %eax,%edx
    ae31:	7f 0f                	jg     ae42 <safe_lshift_func_uint16_t_u_u+0x3c>
    ae33:	0f b7 55 fc          	movzwl -0x4(%rbp),%edx
    ae37:	8b 45 f8             	mov    -0x8(%rbp),%eax
    ae3a:	89 c1                	mov    %eax,%ecx
    ae3c:	d3 e2                	shl    %cl,%edx
    ae3e:	89 d0                	mov    %edx,%eax
    ae40:	eb 04                	jmp    ae46 <safe_lshift_func_uint16_t_u_u+0x40>
    ae42:	0f b7 45 fc          	movzwl -0x4(%rbp),%eax
    ae46:	5d                   	pop    %rbp
    ae47:	c3                   	retq   

000000000000ae48 <safe_rshift_func_uint16_t_u_s>:
    ae48:	f3 0f 1e fa          	endbr64 
    ae4c:	55                   	push   %rbp
    ae4d:	48 89 e5             	mov    %rsp,%rbp
    ae50:	89 f8                	mov    %edi,%eax
    ae52:	89 75 f8             	mov    %esi,-0x8(%rbp)
    ae55:	66 89 45 fc          	mov    %ax,-0x4(%rbp)
    ae59:	83 7d f8 00          	cmpl   $0x0,-0x8(%rbp)
    ae5d:	78 15                	js     ae74 <safe_rshift_func_uint16_t_u_s+0x2c>
    ae5f:	83 7d f8 1f          	cmpl   $0x1f,-0x8(%rbp)
    ae63:	7f 0f                	jg     ae74 <safe_rshift_func_uint16_t_u_s+0x2c>
    ae65:	0f b7 55 fc          	movzwl -0x4(%rbp),%edx
    ae69:	8b 45 f8             	mov    -0x8(%rbp),%eax
    ae6c:	89 c1                	mov    %eax,%ecx
    ae6e:	d3 fa                	sar    %cl,%edx
    ae70:	89 d0                	mov    %edx,%eax
    ae72:	eb 04                	jmp    ae78 <safe_rshift_func_uint16_t_u_s+0x30>
    ae74:	0f b7 45 fc          	movzwl -0x4(%rbp),%eax
    ae78:	5d                   	pop    %rbp
    ae79:	c3                   	retq   

000000000000ae7a <safe_rshift_func_uint16_t_u_u>:
    ae7a:	f3 0f 1e fa          	endbr64 
    ae7e:	55                   	push   %rbp
    ae7f:	48 89 e5             	mov    %rsp,%rbp
    ae82:	89 f8                	mov    %edi,%eax
    ae84:	89 75 f8             	mov    %esi,-0x8(%rbp)
    ae87:	66 89 45 fc          	mov    %ax,-0x4(%rbp)
    ae8b:	83 7d f8 1f          	cmpl   $0x1f,-0x8(%rbp)
    ae8f:	77 0f                	ja     aea0 <safe_rshift_func_uint16_t_u_u+0x26>
    ae91:	0f b7 55 fc          	movzwl -0x4(%rbp),%edx
    ae95:	8b 45 f8             	mov    -0x8(%rbp),%eax
    ae98:	89 c1                	mov    %eax,%ecx
    ae9a:	d3 fa                	sar    %cl,%edx
    ae9c:	89 d0                	mov    %edx,%eax
    ae9e:	eb 04                	jmp    aea4 <safe_rshift_func_uint16_t_u_u+0x2a>
    aea0:	0f b7 45 fc          	movzwl -0x4(%rbp),%eax
    aea4:	5d                   	pop    %rbp
    aea5:	c3                   	retq   

000000000000aea6 <safe_unary_minus_func_uint32_t_u>:
    aea6:	f3 0f 1e fa          	endbr64 
    aeaa:	55                   	push   %rbp
    aeab:	48 89 e5             	mov    %rsp,%rbp
    aeae:	89 7d fc             	mov    %edi,-0x4(%rbp)
    aeb1:	8b 45 fc             	mov    -0x4(%rbp),%eax
    aeb4:	f7 d8                	neg    %eax
    aeb6:	5d                   	pop    %rbp
    aeb7:	c3                   	retq   

000000000000aeb8 <safe_add_func_uint32_t_u_u>:
    aeb8:	f3 0f 1e fa          	endbr64 
    aebc:	55                   	push   %rbp
    aebd:	48 89 e5             	mov    %rsp,%rbp
    aec0:	89 7d fc             	mov    %edi,-0x4(%rbp)
    aec3:	89 75 f8             	mov    %esi,-0x8(%rbp)
    aec6:	8b 55 fc             	mov    -0x4(%rbp),%edx
    aec9:	8b 45 f8             	mov    -0x8(%rbp),%eax
    aecc:	01 d0                	add    %edx,%eax
    aece:	5d                   	pop    %rbp
    aecf:	c3                   	retq   

000000000000aed0 <safe_sub_func_uint32_t_u_u>:
    aed0:	f3 0f 1e fa          	endbr64 
    aed4:	55                   	push   %rbp
    aed5:	48 89 e5             	mov    %rsp,%rbp
    aed8:	89 7d fc             	mov    %edi,-0x4(%rbp)
    aedb:	89 75 f8             	mov    %esi,-0x8(%rbp)
    aede:	8b 45 fc             	mov    -0x4(%rbp),%eax
    aee1:	2b 45 f8             	sub    -0x8(%rbp),%eax
    aee4:	5d                   	pop    %rbp
    aee5:	c3                   	retq   

000000000000aee6 <safe_mul_func_uint32_t_u_u>:
    aee6:	f3 0f 1e fa          	endbr64 
    aeea:	55                   	push   %rbp
    aeeb:	48 89 e5             	mov    %rsp,%rbp
    aeee:	89 7d fc             	mov    %edi,-0x4(%rbp)
    aef1:	89 75 f8             	mov    %esi,-0x8(%rbp)
    aef4:	8b 45 fc             	mov    -0x4(%rbp),%eax
    aef7:	0f af 45 f8          	imul   -0x8(%rbp),%eax
    aefb:	5d                   	pop    %rbp
    aefc:	c3                   	retq   

000000000000aefd <safe_mod_func_uint32_t_u_u>:
    aefd:	f3 0f 1e fa          	endbr64 
    af01:	55                   	push   %rbp
    af02:	48 89 e5             	mov    %rsp,%rbp
    af05:	89 7d fc             	mov    %edi,-0x4(%rbp)
    af08:	89 75 f8             	mov    %esi,-0x8(%rbp)
    af0b:	83 7d f8 00          	cmpl   $0x0,-0x8(%rbp)
    af0f:	74 0f                	je     af20 <safe_mod_func_uint32_t_u_u+0x23>
    af11:	8b 45 fc             	mov    -0x4(%rbp),%eax
    af14:	ba 00 00 00 00       	mov    $0x0,%edx
    af19:	f7 75 f8             	divl   -0x8(%rbp)
    af1c:	89 d0                	mov    %edx,%eax
    af1e:	eb 03                	jmp    af23 <safe_mod_func_uint32_t_u_u+0x26>
    af20:	8b 45 fc             	mov    -0x4(%rbp),%eax
    af23:	5d                   	pop    %rbp
    af24:	c3                   	retq   

000000000000af25 <safe_div_func_uint32_t_u_u>:
    af25:	f3 0f 1e fa          	endbr64 
    af29:	55                   	push   %rbp
    af2a:	48 89 e5             	mov    %rsp,%rbp
    af2d:	89 7d fc             	mov    %edi,-0x4(%rbp)
    af30:	89 75 f8             	mov    %esi,-0x8(%rbp)
    af33:	83 7d f8 00          	cmpl   $0x0,-0x8(%rbp)
    af37:	74 0d                	je     af46 <safe_div_func_uint32_t_u_u+0x21>
    af39:	8b 45 fc             	mov    -0x4(%rbp),%eax
    af3c:	ba 00 00 00 00       	mov    $0x0,%edx
    af41:	f7 75 f8             	divl   -0x8(%rbp)
    af44:	eb 03                	jmp    af49 <safe_div_func_uint32_t_u_u+0x24>
    af46:	8b 45 fc             	mov    -0x4(%rbp),%eax
    af49:	5d                   	pop    %rbp
    af4a:	c3                   	retq   

000000000000af4b <safe_lshift_func_uint32_t_u_s>:
    af4b:	f3 0f 1e fa          	endbr64 
    af4f:	55                   	push   %rbp
    af50:	48 89 e5             	mov    %rsp,%rbp
    af53:	89 7d fc             	mov    %edi,-0x4(%rbp)
    af56:	89 75 f8             	mov    %esi,-0x8(%rbp)
    af59:	83 7d f8 00          	cmpl   $0x0,-0x8(%rbp)
    af5d:	78 27                	js     af86 <safe_lshift_func_uint32_t_u_s+0x3b>
    af5f:	83 7d f8 1f          	cmpl   $0x1f,-0x8(%rbp)
    af63:	7f 21                	jg     af86 <safe_lshift_func_uint32_t_u_s+0x3b>
    af65:	8b 45 f8             	mov    -0x8(%rbp),%eax
    af68:	ba ff ff ff ff       	mov    $0xffffffff,%edx
    af6d:	89 c1                	mov    %eax,%ecx
    af6f:	d3 ea                	shr    %cl,%edx
    af71:	89 d0                	mov    %edx,%eax
    af73:	39 45 fc             	cmp    %eax,-0x4(%rbp)
    af76:	77 0e                	ja     af86 <safe_lshift_func_uint32_t_u_s+0x3b>
    af78:	8b 45 f8             	mov    -0x8(%rbp),%eax
    af7b:	8b 55 fc             	mov    -0x4(%rbp),%edx
    af7e:	89 c1                	mov    %eax,%ecx
    af80:	d3 e2                	shl    %cl,%edx
    af82:	89 d0                	mov    %edx,%eax
    af84:	eb 03                	jmp    af89 <safe_lshift_func_uint32_t_u_s+0x3e>
    af86:	8b 45 fc             	mov    -0x4(%rbp),%eax
    af89:	5d                   	pop    %rbp
    af8a:	c3                   	retq   

000000000000af8b <safe_lshift_func_uint32_t_u_u>:
    af8b:	f3 0f 1e fa          	endbr64 
    af8f:	55                   	push   %rbp
    af90:	48 89 e5             	mov    %rsp,%rbp
    af93:	89 7d fc             	mov    %edi,-0x4(%rbp)
    af96:	89 75 f8             	mov    %esi,-0x8(%rbp)
    af99:	83 7d f8 1f          	cmpl   $0x1f,-0x8(%rbp)
    af9d:	77 21                	ja     afc0 <safe_lshift_func_uint32_t_u_u+0x35>
    af9f:	8b 45 f8             	mov    -0x8(%rbp),%eax
    afa2:	ba ff ff ff ff       	mov    $0xffffffff,%edx
    afa7:	89 c1                	mov    %eax,%ecx
    afa9:	d3 ea                	shr    %cl,%edx
    afab:	89 d0                	mov    %edx,%eax
    afad:	39 45 fc             	cmp    %eax,-0x4(%rbp)
    afb0:	77 0e                	ja     afc0 <safe_lshift_func_uint32_t_u_u+0x35>
    afb2:	8b 45 f8             	mov    -0x8(%rbp),%eax
    afb5:	8b 55 fc             	mov    -0x4(%rbp),%edx
    afb8:	89 c1                	mov    %eax,%ecx
    afba:	d3 e2                	shl    %cl,%edx
    afbc:	89 d0                	mov    %edx,%eax
    afbe:	eb 03                	jmp    afc3 <safe_lshift_func_uint32_t_u_u+0x38>
    afc0:	8b 45 fc             	mov    -0x4(%rbp),%eax
    afc3:	5d                   	pop    %rbp
    afc4:	c3                   	retq   

000000000000afc5 <safe_rshift_func_uint32_t_u_s>:
    afc5:	f3 0f 1e fa          	endbr64 
    afc9:	55                   	push   %rbp
    afca:	48 89 e5             	mov    %rsp,%rbp
    afcd:	89 7d fc             	mov    %edi,-0x4(%rbp)
    afd0:	89 75 f8             	mov    %esi,-0x8(%rbp)
    afd3:	83 7d f8 00          	cmpl   $0x0,-0x8(%rbp)
    afd7:	78 14                	js     afed <safe_rshift_func_uint32_t_u_s+0x28>
    afd9:	83 7d f8 1f          	cmpl   $0x1f,-0x8(%rbp)
    afdd:	7f 0e                	jg     afed <safe_rshift_func_uint32_t_u_s+0x28>
    afdf:	8b 45 f8             	mov    -0x8(%rbp),%eax
    afe2:	8b 55 fc             	mov    -0x4(%rbp),%edx
    afe5:	89 c1                	mov    %eax,%ecx
    afe7:	d3 ea                	shr    %cl,%edx
    afe9:	89 d0                	mov    %edx,%eax
    afeb:	eb 03                	jmp    aff0 <safe_rshift_func_uint32_t_u_s+0x2b>
    afed:	8b 45 fc             	mov    -0x4(%rbp),%eax
    aff0:	5d                   	pop    %rbp
    aff1:	c3                   	retq   

000000000000aff2 <safe_rshift_func_uint32_t_u_u>:
    aff2:	f3 0f 1e fa          	endbr64 
    aff6:	55                   	push   %rbp
    aff7:	48 89 e5             	mov    %rsp,%rbp
    affa:	89 7d fc             	mov    %edi,-0x4(%rbp)
    affd:	89 75 f8             	mov    %esi,-0x8(%rbp)
    b000:	83 7d f8 1f          	cmpl   $0x1f,-0x8(%rbp)
    b004:	77 0e                	ja     b014 <safe_rshift_func_uint32_t_u_u+0x22>
    b006:	8b 45 f8             	mov    -0x8(%rbp),%eax
    b009:	8b 55 fc             	mov    -0x4(%rbp),%edx
    b00c:	89 c1                	mov    %eax,%ecx
    b00e:	d3 ea                	shr    %cl,%edx
    b010:	89 d0                	mov    %edx,%eax
    b012:	eb 03                	jmp    b017 <safe_rshift_func_uint32_t_u_u+0x25>
    b014:	8b 45 fc             	mov    -0x4(%rbp),%eax
    b017:	5d                   	pop    %rbp
    b018:	c3                   	retq   

000000000000b019 <safe_unary_minus_func_uint64_t_u>:
    b019:	f3 0f 1e fa          	endbr64 
    b01d:	55                   	push   %rbp
    b01e:	48 89 e5             	mov    %rsp,%rbp
    b021:	48 89 7d f8          	mov    %rdi,-0x8(%rbp)
    b025:	48 8b 45 f8          	mov    -0x8(%rbp),%rax
    b029:	48 f7 d8             	neg    %rax
    b02c:	5d                   	pop    %rbp
    b02d:	c3                   	retq   

000000000000b02e <safe_add_func_uint64_t_u_u>:
    b02e:	f3 0f 1e fa          	endbr64 
    b032:	55                   	push   %rbp
    b033:	48 89 e5             	mov    %rsp,%rbp
    b036:	48 89 7d f8          	mov    %rdi,-0x8(%rbp)
    b03a:	48 89 75 f0          	mov    %rsi,-0x10(%rbp)
    b03e:	48 8b 55 f8          	mov    -0x8(%rbp),%rdx
    b042:	48 8b 45 f0          	mov    -0x10(%rbp),%rax
    b046:	48 01 d0             	add    %rdx,%rax
    b049:	5d                   	pop    %rbp
    b04a:	c3                   	retq   

000000000000b04b <safe_sub_func_uint64_t_u_u>:
    b04b:	f3 0f 1e fa          	endbr64 
    b04f:	55                   	push   %rbp
    b050:	48 89 e5             	mov    %rsp,%rbp
    b053:	48 89 7d f8          	mov    %rdi,-0x8(%rbp)
    b057:	48 89 75 f0          	mov    %rsi,-0x10(%rbp)
    b05b:	48 8b 45 f8          	mov    -0x8(%rbp),%rax
    b05f:	48 2b 45 f0          	sub    -0x10(%rbp),%rax
    b063:	5d                   	pop    %rbp
    b064:	c3                   	retq   

000000000000b065 <safe_mul_func_uint64_t_u_u>:
    b065:	f3 0f 1e fa          	endbr64 
    b069:	55                   	push   %rbp
    b06a:	48 89 e5             	mov    %rsp,%rbp
    b06d:	48 89 7d f8          	mov    %rdi,-0x8(%rbp)
    b071:	48 89 75 f0          	mov    %rsi,-0x10(%rbp)
    b075:	48 8b 45 f8          	mov    -0x8(%rbp),%rax
    b079:	48 0f af 45 f0       	imul   -0x10(%rbp),%rax
    b07e:	5d                   	pop    %rbp
    b07f:	c3                   	retq   

000000000000b080 <safe_mod_func_uint64_t_u_u>:
    b080:	f3 0f 1e fa          	endbr64 
    b084:	55                   	push   %rbp
    b085:	48 89 e5             	mov    %rsp,%rbp
    b088:	48 89 7d f8          	mov    %rdi,-0x8(%rbp)
    b08c:	48 89 75 f0          	mov    %rsi,-0x10(%rbp)
    b090:	48 83 7d f0 00       	cmpq   $0x0,-0x10(%rbp)
    b095:	74 12                	je     b0a9 <safe_mod_func_uint64_t_u_u+0x29>
    b097:	48 8b 45 f8          	mov    -0x8(%rbp),%rax
    b09b:	ba 00 00 00 00       	mov    $0x0,%edx
    b0a0:	48 f7 75 f0          	divq   -0x10(%rbp)
    b0a4:	48 89 d0             	mov    %rdx,%rax
    b0a7:	eb 04                	jmp    b0ad <safe_mod_func_uint64_t_u_u+0x2d>
    b0a9:	48 8b 45 f8          	mov    -0x8(%rbp),%rax
    b0ad:	5d                   	pop    %rbp
    b0ae:	c3                   	retq   

000000000000b0af <safe_div_func_uint64_t_u_u>:
    b0af:	f3 0f 1e fa          	endbr64 
    b0b3:	55                   	push   %rbp
    b0b4:	48 89 e5             	mov    %rsp,%rbp
    b0b7:	48 89 7d f8          	mov    %rdi,-0x8(%rbp)
    b0bb:	48 89 75 f0          	mov    %rsi,-0x10(%rbp)
    b0bf:	48 83 7d f0 00       	cmpq   $0x0,-0x10(%rbp)
    b0c4:	74 0f                	je     b0d5 <safe_div_func_uint64_t_u_u+0x26>
    b0c6:	48 8b 45 f8          	mov    -0x8(%rbp),%rax
    b0ca:	ba 00 00 00 00       	mov    $0x0,%edx
    b0cf:	48 f7 75 f0          	divq   -0x10(%rbp)
    b0d3:	eb 04                	jmp    b0d9 <safe_div_func_uint64_t_u_u+0x2a>
    b0d5:	48 8b 45 f8          	mov    -0x8(%rbp),%rax
    b0d9:	5d                   	pop    %rbp
    b0da:	c3                   	retq   

000000000000b0db <safe_lshift_func_uint64_t_u_s>:
    b0db:	f3 0f 1e fa          	endbr64 
    b0df:	55                   	push   %rbp
    b0e0:	48 89 e5             	mov    %rsp,%rbp
    b0e3:	48 89 7d f8          	mov    %rdi,-0x8(%rbp)
    b0e7:	89 75 f4             	mov    %esi,-0xc(%rbp)
    b0ea:	83 7d f4 00          	cmpl   $0x0,-0xc(%rbp)
    b0ee:	78 2f                	js     b11f <safe_lshift_func_uint64_t_u_s+0x44>
    b0f0:	83 7d f4 1f          	cmpl   $0x1f,-0xc(%rbp)
    b0f4:	7f 29                	jg     b11f <safe_lshift_func_uint64_t_u_s+0x44>
    b0f6:	8b 45 f4             	mov    -0xc(%rbp),%eax
    b0f9:	48 c7 c2 ff ff ff ff 	mov    $0xffffffffffffffff,%rdx
    b100:	89 c1                	mov    %eax,%ecx
    b102:	48 d3 ea             	shr    %cl,%rdx
    b105:	48 89 d0             	mov    %rdx,%rax
    b108:	48 39 45 f8          	cmp    %rax,-0x8(%rbp)
    b10c:	77 11                	ja     b11f <safe_lshift_func_uint64_t_u_s+0x44>
    b10e:	8b 45 f4             	mov    -0xc(%rbp),%eax
    b111:	48 8b 55 f8          	mov    -0x8(%rbp),%rdx
    b115:	89 c1                	mov    %eax,%ecx
    b117:	48 d3 e2             	shl    %cl,%rdx
    b11a:	48 89 d0             	mov    %rdx,%rax
    b11d:	eb 04                	jmp    b123 <safe_lshift_func_uint64_t_u_s+0x48>
    b11f:	48 8b 45 f8          	mov    -0x8(%rbp),%rax
    b123:	5d                   	pop    %rbp
    b124:	c3                   	retq   

000000000000b125 <safe_lshift_func_uint64_t_u_u>:
    b125:	f3 0f 1e fa          	endbr64 
    b129:	55                   	push   %rbp
    b12a:	48 89 e5             	mov    %rsp,%rbp
    b12d:	48 89 7d f8          	mov    %rdi,-0x8(%rbp)
    b131:	89 75 f4             	mov    %esi,-0xc(%rbp)
    b134:	83 7d f4 1f          	cmpl   $0x1f,-0xc(%rbp)
    b138:	77 29                	ja     b163 <safe_lshift_func_uint64_t_u_u+0x3e>
    b13a:	8b 45 f4             	mov    -0xc(%rbp),%eax
    b13d:	48 c7 c2 ff ff ff ff 	mov    $0xffffffffffffffff,%rdx
    b144:	89 c1                	mov    %eax,%ecx
    b146:	48 d3 ea             	shr    %cl,%rdx
    b149:	48 89 d0             	mov    %rdx,%rax
    b14c:	48 39 45 f8          	cmp    %rax,-0x8(%rbp)
    b150:	77 11                	ja     b163 <safe_lshift_func_uint64_t_u_u+0x3e>
    b152:	8b 45 f4             	mov    -0xc(%rbp),%eax
    b155:	48 8b 55 f8          	mov    -0x8(%rbp),%rdx
    b159:	89 c1                	mov    %eax,%ecx
    b15b:	48 d3 e2             	shl    %cl,%rdx
    b15e:	48 89 d0             	mov    %rdx,%rax
    b161:	eb 04                	jmp    b167 <safe_lshift_func_uint64_t_u_u+0x42>
    b163:	48 8b 45 f8          	mov    -0x8(%rbp),%rax
    b167:	5d                   	pop    %rbp
    b168:	c3                   	retq   

000000000000b169 <safe_rshift_func_uint64_t_u_s>:
    b169:	f3 0f 1e fa          	endbr64 
    b16d:	55                   	push   %rbp
    b16e:	48 89 e5             	mov    %rsp,%rbp
    b171:	48 89 7d f8          	mov    %rdi,-0x8(%rbp)
    b175:	89 75 f4             	mov    %esi,-0xc(%rbp)
    b178:	83 7d f4 00          	cmpl   $0x0,-0xc(%rbp)
    b17c:	78 17                	js     b195 <safe_rshift_func_uint64_t_u_s+0x2c>
    b17e:	83 7d f4 1f          	cmpl   $0x1f,-0xc(%rbp)
    b182:	7f 11                	jg     b195 <safe_rshift_func_uint64_t_u_s+0x2c>
    b184:	8b 45 f4             	mov    -0xc(%rbp),%eax
    b187:	48 8b 55 f8          	mov    -0x8(%rbp),%rdx
    b18b:	89 c1                	mov    %eax,%ecx
    b18d:	48 d3 ea             	shr    %cl,%rdx
    b190:	48 89 d0             	mov    %rdx,%rax
    b193:	eb 04                	jmp    b199 <safe_rshift_func_uint64_t_u_s+0x30>
    b195:	48 8b 45 f8          	mov    -0x8(%rbp),%rax
    b199:	5d                   	pop    %rbp
    b19a:	c3                   	retq   

000000000000b19b <safe_rshift_func_uint64_t_u_u>:
    b19b:	f3 0f 1e fa          	endbr64 
    b19f:	55                   	push   %rbp
    b1a0:	48 89 e5             	mov    %rsp,%rbp
    b1a3:	48 89 7d f8          	mov    %rdi,-0x8(%rbp)
    b1a7:	89 75 f4             	mov    %esi,-0xc(%rbp)
    b1aa:	83 7d f4 1f          	cmpl   $0x1f,-0xc(%rbp)
    b1ae:	77 11                	ja     b1c1 <safe_rshift_func_uint64_t_u_u+0x26>
    b1b0:	8b 45 f4             	mov    -0xc(%rbp),%eax
    b1b3:	48 8b 55 f8          	mov    -0x8(%rbp),%rdx
    b1b7:	89 c1                	mov    %eax,%ecx
    b1b9:	48 d3 ea             	shr    %cl,%rdx
    b1bc:	48 89 d0             	mov    %rdx,%rax
    b1bf:	eb 04                	jmp    b1c5 <safe_rshift_func_uint64_t_u_u+0x2a>
    b1c1:	48 8b 45 f8          	mov    -0x8(%rbp),%rax
    b1c5:	5d                   	pop    %rbp
    b1c6:	c3                   	retq   

000000000000b1c7 <safe_add_func_float_f_f>:
    b1c7:	f3 0f 1e fa          	endbr64 
    b1cb:	55                   	push   %rbp
    b1cc:	48 89 e5             	mov    %rsp,%rbp
    b1cf:	f3 0f 11 45 fc       	movss  %xmm0,-0x4(%rbp)
    b1d4:	f3 0f 11 4d f8       	movss  %xmm1,-0x8(%rbp)
    b1d9:	f3 0f 10 4d fc       	movss  -0x4(%rbp),%xmm1
    b1de:	f3 0f 10 05 82 96 00 	movss  0x9682(%rip),%xmm0        # 14868 <l_2098.4326+0x168>
    b1e5:	00 
    b1e6:	f3 0f 59 c8          	mulss  %xmm0,%xmm1
    b1ea:	f3 0f 10 55 f8       	movss  -0x8(%rbp),%xmm2
    b1ef:	f3 0f 10 05 71 96 00 	movss  0x9671(%rip),%xmm0        # 14868 <l_2098.4326+0x168>
    b1f6:	00 
    b1f7:	f3 0f 59 c2          	mulss  %xmm2,%xmm0
    b1fb:	f3 0f 58 c1          	addss  %xmm1,%xmm0
    b1ff:	f3 0f 10 0d 69 96 00 	movss  0x9669(%rip),%xmm1        # 14870 <l_2098.4326+0x170>
    b206:	00 
    b207:	0f 54 c1             	andps  %xmm1,%xmm0
    b20a:	0f 2f 05 6f 96 00 00 	comiss 0x966f(%rip),%xmm0        # 14880 <l_2098.4326+0x180>
    b211:	76 07                	jbe    b21a <safe_add_func_float_f_f+0x53>
    b213:	f3 0f 10 45 fc       	movss  -0x4(%rbp),%xmm0
    b218:	eb 0a                	jmp    b224 <safe_add_func_float_f_f+0x5d>
    b21a:	f3 0f 10 45 fc       	movss  -0x4(%rbp),%xmm0
    b21f:	f3 0f 58 45 f8       	addss  -0x8(%rbp),%xmm0
    b224:	5d                   	pop    %rbp
    b225:	c3                   	retq   

000000000000b226 <safe_sub_func_float_f_f>:
    b226:	f3 0f 1e fa          	endbr64 
    b22a:	55                   	push   %rbp
    b22b:	48 89 e5             	mov    %rsp,%rbp
    b22e:	f3 0f 11 45 fc       	movss  %xmm0,-0x4(%rbp)
    b233:	f3 0f 11 4d f8       	movss  %xmm1,-0x8(%rbp)
    b238:	f3 0f 10 4d fc       	movss  -0x4(%rbp),%xmm1
    b23d:	f3 0f 10 05 23 96 00 	movss  0x9623(%rip),%xmm0        # 14868 <l_2098.4326+0x168>
    b244:	00 
    b245:	f3 0f 59 c1          	mulss  %xmm1,%xmm0
    b249:	f3 0f 10 55 f8       	movss  -0x8(%rbp),%xmm2
    b24e:	f3 0f 10 0d 12 96 00 	movss  0x9612(%rip),%xmm1        # 14868 <l_2098.4326+0x168>
    b255:	00 
    b256:	f3 0f 59 ca          	mulss  %xmm2,%xmm1
    b25a:	f3 0f 5c c1          	subss  %xmm1,%xmm0
    b25e:	f3 0f 10 0d 0a 96 00 	movss  0x960a(%rip),%xmm1        # 14870 <l_2098.4326+0x170>
    b265:	00 
    b266:	0f 54 c1             	andps  %xmm1,%xmm0
    b269:	0f 2f 05 10 96 00 00 	comiss 0x9610(%rip),%xmm0        # 14880 <l_2098.4326+0x180>
    b270:	76 07                	jbe    b279 <safe_sub_func_float_f_f+0x53>
    b272:	f3 0f 10 45 fc       	movss  -0x4(%rbp),%xmm0
    b277:	eb 0a                	jmp    b283 <safe_sub_func_float_f_f+0x5d>
    b279:	f3 0f 10 45 fc       	movss  -0x4(%rbp),%xmm0
    b27e:	f3 0f 5c 45 f8       	subss  -0x8(%rbp),%xmm0
    b283:	5d                   	pop    %rbp
    b284:	c3                   	retq   

000000000000b285 <safe_mul_func_float_f_f>:
    b285:	f3 0f 1e fa          	endbr64 
    b289:	55                   	push   %rbp
    b28a:	48 89 e5             	mov    %rsp,%rbp
    b28d:	f3 0f 11 45 fc       	movss  %xmm0,-0x4(%rbp)
    b292:	f3 0f 11 4d f8       	movss  %xmm1,-0x8(%rbp)
    b297:	f3 0f 10 4d fc       	movss  -0x4(%rbp),%xmm1
    b29c:	f3 0f 10 05 e0 95 00 	movss  0x95e0(%rip),%xmm0        # 14884 <l_2098.4326+0x184>
    b2a3:	00 
    b2a4:	f3 0f 59 c8          	mulss  %xmm0,%xmm1
    b2a8:	f3 0f 10 55 f8       	movss  -0x8(%rbp),%xmm2
    b2ad:	f3 0f 10 05 d3 95 00 	movss  0x95d3(%rip),%xmm0        # 14888 <l_2098.4326+0x188>
    b2b4:	00 
    b2b5:	f3 0f 59 c2          	mulss  %xmm2,%xmm0
    b2b9:	f3 0f 59 c1          	mulss  %xmm1,%xmm0
    b2bd:	f3 0f 10 0d ab 95 00 	movss  0x95ab(%rip),%xmm1        # 14870 <l_2098.4326+0x170>
    b2c4:	00 
    b2c5:	0f 54 c1             	andps  %xmm1,%xmm0
    b2c8:	0f 2f 05 bd 95 00 00 	comiss 0x95bd(%rip),%xmm0        # 1488c <l_2098.4326+0x18c>
    b2cf:	76 07                	jbe    b2d8 <safe_mul_func_float_f_f+0x53>
    b2d1:	f3 0f 10 45 fc       	movss  -0x4(%rbp),%xmm0
    b2d6:	eb 0a                	jmp    b2e2 <safe_mul_func_float_f_f+0x5d>
    b2d8:	f3 0f 10 45 fc       	movss  -0x4(%rbp),%xmm0
    b2dd:	f3 0f 59 45 f8       	mulss  -0x8(%rbp),%xmm0
    b2e2:	5d                   	pop    %rbp
    b2e3:	c3                   	retq   

000000000000b2e4 <safe_div_func_float_f_f>:
    b2e4:	f3 0f 1e fa          	endbr64 
    b2e8:	55                   	push   %rbp
    b2e9:	48 89 e5             	mov    %rsp,%rbp
    b2ec:	f3 0f 11 45 fc       	movss  %xmm0,-0x4(%rbp)
    b2f1:	f3 0f 11 4d f8       	movss  %xmm1,-0x8(%rbp)
    b2f6:	f3 0f 10 45 f8       	movss  -0x8(%rbp),%xmm0
    b2fb:	f3 0f 10 0d 6d 95 00 	movss  0x956d(%rip),%xmm1        # 14870 <l_2098.4326+0x170>
    b302:	00 
    b303:	0f 54 c8             	andps  %xmm0,%xmm1
    b306:	f3 0f 10 05 82 95 00 	movss  0x9582(%rip),%xmm0        # 14890 <l_2098.4326+0x190>
    b30d:	00 
    b30e:	0f 2f c1             	comiss %xmm1,%xmm0
    b311:	0f 97 c0             	seta   %al
    b314:	83 f0 01             	xor    $0x1,%eax
    b317:	84 c0                	test   %al,%al
    b319:	75 56                	jne    b371 <safe_div_func_float_f_f+0x8d>
    b31b:	66 0f ef c0          	pxor   %xmm0,%xmm0
    b31f:	0f 2e 45 f8          	ucomiss -0x8(%rbp),%xmm0
    b323:	7a 0a                	jp     b32f <safe_div_func_float_f_f+0x4b>
    b325:	66 0f ef c0          	pxor   %xmm0,%xmm0
    b329:	0f 2e 45 f8          	ucomiss -0x8(%rbp),%xmm0
    b32d:	74 4e                	je     b37d <safe_div_func_float_f_f+0x99>
    b32f:	f3 0f 10 4d fc       	movss  -0x4(%rbp),%xmm1
    b334:	f3 0f 10 05 58 95 00 	movss  0x9558(%rip),%xmm0        # 14894 <l_2098.4326+0x194>
    b33b:	00 
    b33c:	f3 0f 59 c1          	mulss  %xmm1,%xmm0
    b340:	f3 0f 10 55 f8       	movss  -0x8(%rbp),%xmm2
    b345:	f3 0f 10 0d 4b 95 00 	movss  0x954b(%rip),%xmm1        # 14898 <l_2098.4326+0x198>
    b34c:	00 
    b34d:	f3 0f 59 ca          	mulss  %xmm2,%xmm1
    b351:	f3 0f 5e c1          	divss  %xmm1,%xmm0
    b355:	f3 0f 10 0d 13 95 00 	movss  0x9513(%rip),%xmm1        # 14870 <l_2098.4326+0x170>
    b35c:	00 
    b35d:	0f 54 c1             	andps  %xmm1,%xmm0
    b360:	0f 2f 05 35 95 00 00 	comiss 0x9535(%rip),%xmm0        # 1489c <l_2098.4326+0x19c>
    b367:	0f 97 c0             	seta   %al
    b36a:	83 f0 01             	xor    $0x1,%eax
    b36d:	84 c0                	test   %al,%al
    b36f:	74 0c                	je     b37d <safe_div_func_float_f_f+0x99>
    b371:	f3 0f 10 45 fc       	movss  -0x4(%rbp),%xmm0
    b376:	f3 0f 5e 45 f8       	divss  -0x8(%rbp),%xmm0
    b37b:	eb 05                	jmp    b382 <safe_div_func_float_f_f+0x9e>
    b37d:	f3 0f 10 45 fc       	movss  -0x4(%rbp),%xmm0
    b382:	5d                   	pop    %rbp
    b383:	c3                   	retq   

000000000000b384 <safe_add_func_double_f_f>:
    b384:	f3 0f 1e fa          	endbr64 
    b388:	55                   	push   %rbp
    b389:	48 89 e5             	mov    %rsp,%rbp
    b38c:	f2 0f 11 45 f8       	movsd  %xmm0,-0x8(%rbp)
    b391:	f2 0f 11 4d f0       	movsd  %xmm1,-0x10(%rbp)
    b396:	f2 0f 10 4d f8       	movsd  -0x8(%rbp),%xmm1
    b39b:	f2 0f 10 05 fd 94 00 	movsd  0x94fd(%rip),%xmm0        # 148a0 <l_2098.4326+0x1a0>
    b3a2:	00 
    b3a3:	f2 0f 59 c8          	mulsd  %xmm0,%xmm1
    b3a7:	f2 0f 10 55 f0       	movsd  -0x10(%rbp),%xmm2
    b3ac:	f2 0f 10 05 ec 94 00 	movsd  0x94ec(%rip),%xmm0        # 148a0 <l_2098.4326+0x1a0>
    b3b3:	00 
    b3b4:	f2 0f 59 c2          	mulsd  %xmm2,%xmm0
    b3b8:	f2 0f 58 c1          	addsd  %xmm1,%xmm0
    b3bc:	f3 0f 7e 0d ec 94 00 	movq   0x94ec(%rip),%xmm1        # 148b0 <l_2098.4326+0x1b0>
    b3c3:	00 
    b3c4:	66 0f 54 c1          	andpd  %xmm1,%xmm0
    b3c8:	66 0f 2f 05 f0 94 00 	comisd 0x94f0(%rip),%xmm0        # 148c0 <l_2098.4326+0x1c0>
    b3cf:	00 
    b3d0:	76 07                	jbe    b3d9 <safe_add_func_double_f_f+0x55>
    b3d2:	f2 0f 10 45 f8       	movsd  -0x8(%rbp),%xmm0
    b3d7:	eb 0a                	jmp    b3e3 <safe_add_func_double_f_f+0x5f>
    b3d9:	f2 0f 10 45 f8       	movsd  -0x8(%rbp),%xmm0
    b3de:	f2 0f 58 45 f0       	addsd  -0x10(%rbp),%xmm0
    b3e3:	5d                   	pop    %rbp
    b3e4:	c3                   	retq   

000000000000b3e5 <safe_sub_func_double_f_f>:
    b3e5:	f3 0f 1e fa          	endbr64 
    b3e9:	55                   	push   %rbp
    b3ea:	48 89 e5             	mov    %rsp,%rbp
    b3ed:	f2 0f 11 45 f8       	movsd  %xmm0,-0x8(%rbp)
    b3f2:	f2 0f 11 4d f0       	movsd  %xmm1,-0x10(%rbp)
    b3f7:	f2 0f 10 4d f8       	movsd  -0x8(%rbp),%xmm1
    b3fc:	f2 0f 10 05 9c 94 00 	movsd  0x949c(%rip),%xmm0        # 148a0 <l_2098.4326+0x1a0>
    b403:	00 
    b404:	f2 0f 59 c1          	mulsd  %xmm1,%xmm0
    b408:	f2 0f 10 55 f0       	movsd  -0x10(%rbp),%xmm2
    b40d:	f2 0f 10 0d 8b 94 00 	movsd  0x948b(%rip),%xmm1        # 148a0 <l_2098.4326+0x1a0>
    b414:	00 
    b415:	f2 0f 59 ca          	mulsd  %xmm2,%xmm1
    b419:	f2 0f 5c c1          	subsd  %xmm1,%xmm0
    b41d:	f3 0f 7e 0d 8b 94 00 	movq   0x948b(%rip),%xmm1        # 148b0 <l_2098.4326+0x1b0>
    b424:	00 
    b425:	66 0f 54 c1          	andpd  %xmm1,%xmm0
    b429:	66 0f 2f 05 8f 94 00 	comisd 0x948f(%rip),%xmm0        # 148c0 <l_2098.4326+0x1c0>
    b430:	00 
    b431:	76 07                	jbe    b43a <safe_sub_func_double_f_f+0x55>
    b433:	f2 0f 10 45 f8       	movsd  -0x8(%rbp),%xmm0
    b438:	eb 0a                	jmp    b444 <safe_sub_func_double_f_f+0x5f>
    b43a:	f2 0f 10 45 f8       	movsd  -0x8(%rbp),%xmm0
    b43f:	f2 0f 5c 45 f0       	subsd  -0x10(%rbp),%xmm0
    b444:	5d                   	pop    %rbp
    b445:	c3                   	retq   

000000000000b446 <safe_mul_func_double_f_f>:
    b446:	f3 0f 1e fa          	endbr64 
    b44a:	55                   	push   %rbp
    b44b:	48 89 e5             	mov    %rsp,%rbp
    b44e:	f2 0f 11 45 f8       	movsd  %xmm0,-0x8(%rbp)
    b453:	f2 0f 11 4d f0       	movsd  %xmm1,-0x10(%rbp)
    b458:	f2 0f 10 4d f8       	movsd  -0x8(%rbp),%xmm1
    b45d:	f2 0f 10 05 63 94 00 	movsd  0x9463(%rip),%xmm0        # 148c8 <l_2098.4326+0x1c8>
    b464:	00 
    b465:	f2 0f 59 c8          	mulsd  %xmm0,%xmm1
    b469:	f2 0f 10 55 f0       	movsd  -0x10(%rbp),%xmm2
    b46e:	f2 0f 10 05 5a 94 00 	movsd  0x945a(%rip),%xmm0        # 148d0 <l_2098.4326+0x1d0>
    b475:	00 
    b476:	f2 0f 59 c2          	mulsd  %xmm2,%xmm0
    b47a:	f2 0f 59 c1          	mulsd  %xmm1,%xmm0
    b47e:	f3 0f 7e 0d 2a 94 00 	movq   0x942a(%rip),%xmm1        # 148b0 <l_2098.4326+0x1b0>
    b485:	00 
    b486:	66 0f 54 c1          	andpd  %xmm1,%xmm0
    b48a:	66 0f 2f 05 46 94 00 	comisd 0x9446(%rip),%xmm0        # 148d8 <l_2098.4326+0x1d8>
    b491:	00 
    b492:	76 07                	jbe    b49b <safe_mul_func_double_f_f+0x55>
    b494:	f2 0f 10 45 f8       	movsd  -0x8(%rbp),%xmm0
    b499:	eb 0a                	jmp    b4a5 <safe_mul_func_double_f_f+0x5f>
    b49b:	f2 0f 10 45 f8       	movsd  -0x8(%rbp),%xmm0
    b4a0:	f2 0f 59 45 f0       	mulsd  -0x10(%rbp),%xmm0
    b4a5:	5d                   	pop    %rbp
    b4a6:	c3                   	retq   

000000000000b4a7 <safe_div_func_double_f_f>:
    b4a7:	f3 0f 1e fa          	endbr64 
    b4ab:	55                   	push   %rbp
    b4ac:	48 89 e5             	mov    %rsp,%rbp
    b4af:	f2 0f 11 45 f8       	movsd  %xmm0,-0x8(%rbp)
    b4b4:	f2 0f 11 4d f0       	movsd  %xmm1,-0x10(%rbp)
    b4b9:	f2 0f 10 45 f0       	movsd  -0x10(%rbp),%xmm0
    b4be:	f3 0f 7e 0d ea 93 00 	movq   0x93ea(%rip),%xmm1        # 148b0 <l_2098.4326+0x1b0>
    b4c5:	00 
    b4c6:	66 0f 54 c8          	andpd  %xmm0,%xmm1
    b4ca:	f2 0f 10 05 0e 94 00 	movsd  0x940e(%rip),%xmm0        # 148e0 <l_2098.4326+0x1e0>
    b4d1:	00 
    b4d2:	66 0f 2f c1          	comisd %xmm1,%xmm0
    b4d6:	0f 97 c0             	seta   %al
    b4d9:	83 f0 01             	xor    $0x1,%eax
    b4dc:	84 c0                	test   %al,%al
    b4de:	75 5a                	jne    b53a <safe_div_func_double_f_f+0x93>
    b4e0:	66 0f ef c0          	pxor   %xmm0,%xmm0
    b4e4:	66 0f 2e 45 f0       	ucomisd -0x10(%rbp),%xmm0
    b4e9:	7a 0b                	jp     b4f6 <safe_div_func_double_f_f+0x4f>
    b4eb:	66 0f ef c0          	pxor   %xmm0,%xmm0
    b4ef:	66 0f 2e 45 f0       	ucomisd -0x10(%rbp),%xmm0
    b4f4:	74 50                	je     b546 <safe_div_func_double_f_f+0x9f>
    b4f6:	f2 0f 10 4d f8       	movsd  -0x8(%rbp),%xmm1
    b4fb:	f2 0f 10 05 e5 93 00 	movsd  0x93e5(%rip),%xmm0        # 148e8 <l_2098.4326+0x1e8>
    b502:	00 
    b503:	f2 0f 59 c1          	mulsd  %xmm1,%xmm0
    b507:	f2 0f 10 55 f0       	movsd  -0x10(%rbp),%xmm2
    b50c:	f2 0f 10 0d dc 93 00 	movsd  0x93dc(%rip),%xmm1        # 148f0 <l_2098.4326+0x1f0>
    b513:	00 
    b514:	f2 0f 59 ca          	mulsd  %xmm2,%xmm1
    b518:	f2 0f 5e c1          	divsd  %xmm1,%xmm0
    b51c:	f3 0f 7e 0d 8c 93 00 	movq   0x938c(%rip),%xmm1        # 148b0 <l_2098.4326+0x1b0>
    b523:	00 
    b524:	66 0f 54 c1          	andpd  %xmm1,%xmm0
    b528:	66 0f 2f 05 c8 93 00 	comisd 0x93c8(%rip),%xmm0        # 148f8 <l_2098.4326+0x1f8>
    b52f:	00 
    b530:	0f 97 c0             	seta   %al
    b533:	83 f0 01             	xor    $0x1,%eax
    b536:	84 c0                	test   %al,%al
    b538:	74 0c                	je     b546 <safe_div_func_double_f_f+0x9f>
    b53a:	f2 0f 10 45 f8       	movsd  -0x8(%rbp),%xmm0
    b53f:	f2 0f 5e 45 f0       	divsd  -0x10(%rbp),%xmm0
    b544:	eb 05                	jmp    b54b <safe_div_func_double_f_f+0xa4>
    b546:	f2 0f 10 45 f8       	movsd  -0x8(%rbp),%xmm0
    b54b:	5d                   	pop    %rbp
    b54c:	c3                   	retq   

000000000000b54d <safe_convert_func_float_to_int32_t>:
    b54d:	f3 0f 1e fa          	endbr64 
    b551:	55                   	push   %rbp
    b552:	48 89 e5             	mov    %rsp,%rbp
    b555:	f3 0f 11 45 fc       	movss  %xmm0,-0x4(%rbp)
    b55a:	f3 0f 10 05 9e 93 00 	movss  0x939e(%rip),%xmm0        # 14900 <l_2098.4326+0x200>
    b561:	00 
    b562:	0f 2f 45 fc          	comiss -0x4(%rbp),%xmm0
    b566:	0f 93 c0             	setae  %al
    b569:	83 f0 01             	xor    $0x1,%eax
    b56c:	84 c0                	test   %al,%al
    b56e:	74 21                	je     b591 <safe_convert_func_float_to_int32_t+0x44>
    b570:	f3 0f 10 45 fc       	movss  -0x4(%rbp),%xmm0
    b575:	0f 2f 05 88 93 00 00 	comiss 0x9388(%rip),%xmm0        # 14904 <l_2098.4326+0x204>
    b57c:	0f 93 c0             	setae  %al
    b57f:	83 f0 01             	xor    $0x1,%eax
    b582:	84 c0                	test   %al,%al
    b584:	74 0b                	je     b591 <safe_convert_func_float_to_int32_t+0x44>
    b586:	f3 0f 10 45 fc       	movss  -0x4(%rbp),%xmm0
    b58b:	f3 0f 2c c0          	cvttss2si %xmm0,%eax
    b58f:	eb 05                	jmp    b596 <safe_convert_func_float_to_int32_t+0x49>
    b591:	b8 ff ff ff 7f       	mov    $0x7fffffff,%eax
    b596:	5d                   	pop    %rbp
    b597:	c3                   	retq   

000000000000b598 <crc32_gentab>:
    b598:	f3 0f 1e fa          	endbr64 
    b59c:	55                   	push   %rbp
    b59d:	48 89 e5             	mov    %rsp,%rbp
    b5a0:	c7 45 fc 20 83 b8 ed 	movl   $0xedb88320,-0x4(%rbp)
    b5a7:	c7 45 f4 00 00 00 00 	movl   $0x0,-0xc(%rbp)
    b5ae:	eb 51                	jmp    b601 <crc32_gentab+0x69>
    b5b0:	8b 45 f4             	mov    -0xc(%rbp),%eax
    b5b3:	89 45 f0             	mov    %eax,-0x10(%rbp)
    b5b6:	c7 45 f8 08 00 00 00 	movl   $0x8,-0x8(%rbp)
    b5bd:	eb 1e                	jmp    b5dd <crc32_gentab+0x45>
    b5bf:	8b 45 f0             	mov    -0x10(%rbp),%eax
    b5c2:	83 e0 01             	and    $0x1,%eax
    b5c5:	85 c0                	test   %eax,%eax
    b5c7:	74 0d                	je     b5d6 <crc32_gentab+0x3e>
    b5c9:	8b 45 f0             	mov    -0x10(%rbp),%eax
    b5cc:	d1 e8                	shr    %eax
    b5ce:	33 45 fc             	xor    -0x4(%rbp),%eax
    b5d1:	89 45 f0             	mov    %eax,-0x10(%rbp)
    b5d4:	eb 03                	jmp    b5d9 <crc32_gentab+0x41>
    b5d6:	d1 6d f0             	shrl   -0x10(%rbp)
    b5d9:	83 6d f8 01          	subl   $0x1,-0x8(%rbp)
    b5dd:	83 7d f8 00          	cmpl   $0x0,-0x8(%rbp)
    b5e1:	7f dc                	jg     b5bf <crc32_gentab+0x27>
    b5e3:	8b 45 f4             	mov    -0xc(%rbp),%eax
    b5e6:	48 98                	cltq   
    b5e8:	48 8d 0c 85 00 00 00 	lea    0x0(,%rax,4),%rcx
    b5ef:	00 
    b5f0:	48 8d 15 69 23 01 00 	lea    0x12369(%rip),%rdx        # 1d960 <crc32_tab>
    b5f7:	8b 45 f0             	mov    -0x10(%rbp),%eax
    b5fa:	89 04 11             	mov    %eax,(%rcx,%rdx,1)
    b5fd:	83 45 f4 01          	addl   $0x1,-0xc(%rbp)
    b601:	81 7d f4 ff 00 00 00 	cmpl   $0xff,-0xc(%rbp)
    b608:	7e a6                	jle    b5b0 <crc32_gentab+0x18>
    b60a:	90                   	nop
    b60b:	90                   	nop
    b60c:	5d                   	pop    %rbp
    b60d:	c3                   	retq   

000000000000b60e <crc32_byte>:
    b60e:	f3 0f 1e fa          	endbr64 
    b612:	55                   	push   %rbp
    b613:	48 89 e5             	mov    %rsp,%rbp
    b616:	89 f8                	mov    %edi,%eax
    b618:	88 45 fc             	mov    %al,-0x4(%rbp)
    b61b:	8b 05 ff c9 00 00    	mov    0xc9ff(%rip),%eax        # 18020 <crc32_context>
    b621:	c1 e8 08             	shr    $0x8,%eax
    b624:	89 c1                	mov    %eax,%ecx
    b626:	0f b6 55 fc          	movzbl -0x4(%rbp),%edx
    b62a:	8b 05 f0 c9 00 00    	mov    0xc9f0(%rip),%eax        # 18020 <crc32_context>
    b630:	31 d0                	xor    %edx,%eax
    b632:	0f b6 c0             	movzbl %al,%eax
    b635:	89 c0                	mov    %eax,%eax
    b637:	48 8d 14 85 00 00 00 	lea    0x0(,%rax,4),%rdx
    b63e:	00 
    b63f:	48 8d 05 1a 23 01 00 	lea    0x1231a(%rip),%rax        # 1d960 <crc32_tab>
    b646:	8b 04 02             	mov    (%rdx,%rax,1),%eax
    b649:	31 c8                	xor    %ecx,%eax
    b64b:	89 05 cf c9 00 00    	mov    %eax,0xc9cf(%rip)        # 18020 <crc32_context>
    b651:	90                   	nop
    b652:	5d                   	pop    %rbp
    b653:	c3                   	retq   

000000000000b654 <crc32_8bytes>:
    b654:	f3 0f 1e fa          	endbr64 
    b658:	55                   	push   %rbp
    b659:	48 89 e5             	mov    %rsp,%rbp
    b65c:	48 83 ec 08          	sub    $0x8,%rsp
    b660:	48 89 7d f8          	mov    %rdi,-0x8(%rbp)
    b664:	48 8b 45 f8          	mov    -0x8(%rbp),%rax
    b668:	0f b6 c0             	movzbl %al,%eax
    b66b:	89 c7                	mov    %eax,%edi
    b66d:	e8 9c ff ff ff       	callq  b60e <crc32_byte>
    b672:	48 8b 45 f8          	mov    -0x8(%rbp),%rax
    b676:	48 c1 e8 08          	shr    $0x8,%rax
    b67a:	0f b6 c0             	movzbl %al,%eax
    b67d:	89 c7                	mov    %eax,%edi
    b67f:	e8 8a ff ff ff       	callq  b60e <crc32_byte>
    b684:	48 8b 45 f8          	mov    -0x8(%rbp),%rax
    b688:	48 c1 e8 10          	shr    $0x10,%rax
    b68c:	0f b6 c0             	movzbl %al,%eax
    b68f:	89 c7                	mov    %eax,%edi
    b691:	e8 78 ff ff ff       	callq  b60e <crc32_byte>
    b696:	48 8b 45 f8          	mov    -0x8(%rbp),%rax
    b69a:	48 c1 e8 18          	shr    $0x18,%rax
    b69e:	0f b6 c0             	movzbl %al,%eax
    b6a1:	89 c7                	mov    %eax,%edi
    b6a3:	e8 66 ff ff ff       	callq  b60e <crc32_byte>
    b6a8:	48 8b 45 f8          	mov    -0x8(%rbp),%rax
    b6ac:	48 c1 e8 20          	shr    $0x20,%rax
    b6b0:	0f b6 c0             	movzbl %al,%eax
    b6b3:	89 c7                	mov    %eax,%edi
    b6b5:	e8 54 ff ff ff       	callq  b60e <crc32_byte>
    b6ba:	48 8b 45 f8          	mov    -0x8(%rbp),%rax
    b6be:	48 c1 e8 28          	shr    $0x28,%rax
    b6c2:	0f b6 c0             	movzbl %al,%eax
    b6c5:	89 c7                	mov    %eax,%edi
    b6c7:	e8 42 ff ff ff       	callq  b60e <crc32_byte>
    b6cc:	48 8b 45 f8          	mov    -0x8(%rbp),%rax
    b6d0:	48 c1 e8 30          	shr    $0x30,%rax
    b6d4:	0f b6 c0             	movzbl %al,%eax
    b6d7:	89 c7                	mov    %eax,%edi
    b6d9:	e8 30 ff ff ff       	callq  b60e <crc32_byte>
    b6de:	48 8b 45 f8          	mov    -0x8(%rbp),%rax
    b6e2:	48 c1 e8 38          	shr    $0x38,%rax
    b6e6:	0f b6 c0             	movzbl %al,%eax
    b6e9:	89 c7                	mov    %eax,%edi
    b6eb:	e8 1e ff ff ff       	callq  b60e <crc32_byte>
    b6f0:	90                   	nop
    b6f1:	c9                   	leaveq 
    b6f2:	c3                   	retq   

000000000000b6f3 <transparent_crc>:
    b6f3:	f3 0f 1e fa          	endbr64 
    b6f7:	55                   	push   %rbp
    b6f8:	48 89 e5             	mov    %rsp,%rbp
    b6fb:	48 83 ec 20          	sub    $0x20,%rsp
    b6ff:	48 89 7d f8          	mov    %rdi,-0x8(%rbp)
    b703:	48 89 75 f0          	mov    %rsi,-0x10(%rbp)
    b707:	89 55 ec             	mov    %edx,-0x14(%rbp)
    b70a:	48 8b 45 f8          	mov    -0x8(%rbp),%rax
    b70e:	48 89 c7             	mov    %rax,%rdi
    b711:	e8 3e ff ff ff       	callq  b654 <crc32_8bytes>
    b716:	83 7d ec 00          	cmpl   $0x0,-0x14(%rbp)
    b71a:	74 22                	je     b73e <transparent_crc+0x4b>
    b71c:	8b 05 fe c8 00 00    	mov    0xc8fe(%rip),%eax        # 18020 <crc32_context>
    b722:	f7 d0                	not    %eax
    b724:	89 c2                	mov    %eax,%edx
    b726:	48 8b 45 f0          	mov    -0x10(%rbp),%rax
    b72a:	48 89 c6             	mov    %rax,%rsi
    b72d:	48 8d 3d fc 88 00 00 	lea    0x88fc(%rip),%rdi        # 14030 <_IO_stdin_used+0x30>
    b734:	b8 00 00 00 00       	mov    $0x0,%eax
    b739:	e8 42 e9 ff ff       	callq  a080 <printf@plt>
    b73e:	90                   	nop
    b73f:	c9                   	leaveq 
    b740:	c3                   	retq   

000000000000b741 <transparent_crc_bytes>:
    b741:	f3 0f 1e fa          	endbr64 
    b745:	55                   	push   %rbp
    b746:	48 89 e5             	mov    %rsp,%rbp
    b749:	48 83 ec 30          	sub    $0x30,%rsp
    b74d:	48 89 7d e8          	mov    %rdi,-0x18(%rbp)
    b751:	89 75 e4             	mov    %esi,-0x1c(%rbp)
    b754:	48 89 55 d8          	mov    %rdx,-0x28(%rbp)
    b758:	89 4d e0             	mov    %ecx,-0x20(%rbp)
    b75b:	c7 45 fc 00 00 00 00 	movl   $0x0,-0x4(%rbp)
    b762:	eb 1e                	jmp    b782 <transparent_crc_bytes+0x41>
    b764:	8b 45 fc             	mov    -0x4(%rbp),%eax
    b767:	48 63 d0             	movslq %eax,%rdx
    b76a:	48 8b 45 e8          	mov    -0x18(%rbp),%rax
    b76e:	48 01 d0             	add    %rdx,%rax
    b771:	0f b6 00             	movzbl (%rax),%eax
    b774:	0f b6 c0             	movzbl %al,%eax
    b777:	89 c7                	mov    %eax,%edi
    b779:	e8 90 fe ff ff       	callq  b60e <crc32_byte>
    b77e:	83 45 fc 01          	addl   $0x1,-0x4(%rbp)
    b782:	8b 45 fc             	mov    -0x4(%rbp),%eax
    b785:	3b 45 e4             	cmp    -0x1c(%rbp),%eax
    b788:	7c da                	jl     b764 <transparent_crc_bytes+0x23>
    b78a:	83 7d e0 00          	cmpl   $0x0,-0x20(%rbp)
    b78e:	74 22                	je     b7b2 <transparent_crc_bytes+0x71>
    b790:	8b 05 8a c8 00 00    	mov    0xc88a(%rip),%eax        # 18020 <crc32_context>
    b796:	f7 d0                	not    %eax
    b798:	89 c2                	mov    %eax,%edx
    b79a:	48 8b 45 d8          	mov    -0x28(%rbp),%rax
    b79e:	48 89 c6             	mov    %rax,%rsi
    b7a1:	48 8d 3d 88 88 00 00 	lea    0x8888(%rip),%rdi        # 14030 <_IO_stdin_used+0x30>
    b7a8:	b8 00 00 00 00       	mov    $0x0,%eax
    b7ad:	e8 ce e8 ff ff       	callq  a080 <printf@plt>
    b7b2:	90                   	nop
    b7b3:	c9                   	leaveq 
    b7b4:	c3                   	retq   

000000000000b7b5 <func_1>:
    b7b5:	f3 0f 1e fa          	endbr64 
    b7b9:	55                   	push   %rbp
    b7ba:	48 89 e5             	mov    %rsp,%rbp
    b7bd:	41 57                	push   %r15
    b7bf:	41 56                	push   %r14
    b7c1:	41 55                	push   %r13
    b7c3:	41 54                	push   %r12
    b7c5:	53                   	push   %rbx
    b7c6:	48 81 ec e8 09 00 00 	sub    $0x9e8,%rsp
    b7cd:	64 48 8b 04 25 28 00 	mov    %fs:0x28,%rax
    b7d4:	00 00 
    b7d6:	48 89 45 c8          	mov    %rax,-0x38(%rbp)
    b7da:	31 c0                	xor    %eax,%eax
    b7dc:	48 c7 85 68 f6 ff ff 	movq   $0x0,-0x998(%rbp)
    b7e3:	00 00 00 00 
    b7e7:	c7 85 08 f6 ff ff ff 	movl   $0xffffffff,-0x9f8(%rbp)
    b7ee:	ff ff ff 
    b7f1:	c7 85 0c f6 ff ff a9 	movl   $0x432408a9,-0x9f4(%rbp)
    b7f8:	08 24 43 
    b7fb:	66 c7 85 02 f6 ff ff 	movw   $0xffff,-0x9fe(%rbp)
    b802:	ff ff 
    b804:	66 c7 85 40 f8 ff ff 	movw   $0xa7f7,-0x7c0(%rbp)
    b80b:	f7 a7 
    b80d:	66 c7 85 42 f8 ff ff 	movw   $0x57d8,-0x7be(%rbp)
    b814:	d8 57 
    b816:	66 c7 85 44 f8 ff ff 	movw   $0xfb00,-0x7bc(%rbp)
    b81d:	00 fb 
    b81f:	66 c7 85 46 f8 ff ff 	movw   $0x3a,-0x7ba(%rbp)
    b826:	3a 00 
    b828:	66 c7 85 48 f8 ff ff 	movw   $0x1786,-0x7b8(%rbp)
    b82f:	86 17 
    b831:	66 c7 85 4a f8 ff ff 	movw   $0x9b00,-0x7b6(%rbp)
    b838:	00 9b 
    b83a:	66 c7 85 4c f8 ff ff 	movw   $0x9b58,-0x7b4(%rbp)
    b841:	58 9b 
    b843:	66 c7 85 4e f8 ff ff 	movw   $0x1700,-0x7b2(%rbp)
    b84a:	00 17 
    b84c:	66 c7 85 50 f8 ff ff 	movw   $0x86,-0x7b0(%rbp)
    b853:	86 00 
    b855:	66 c7 85 52 f8 ff ff 	movw   $0xfb3a,-0x7ae(%rbp)
    b85c:	3a fb 
    b85e:	66 c7 85 54 f8 ff ff 	movw   $0x5700,-0x7ac(%rbp)
    b865:	00 57 
    b867:	66 c7 85 56 f8 ff ff 	movw   $0xa7d8,-0x7aa(%rbp)
    b86e:	d8 a7 
    b870:	66 c7 85 58 f8 ff ff 	movw   $0xf7,-0x7a8(%rbp)
    b877:	f7 00 
    b879:	66 c7 85 5a f8 ff ff 	movw   $0xfab6,-0x7a6(%rbp)
    b880:	b6 fa 
    b882:	66 c7 85 5c f8 ff ff 	movw   $0x58fb,-0x7a4(%rbp)
    b889:	fb 58 
    b88b:	66 c7 85 5e f8 ff ff 	movw   $0xb600,-0x7a2(%rbp)
    b892:	00 b6 
    b894:	66 c7 85 60 f8 ff ff 	movw   $0x2727,-0x7a0(%rbp)
    b89b:	27 27 
    b89d:	66 c7 85 62 f8 ff ff 	movw   $0xff69,-0x79e(%rbp)
    b8a4:	69 ff 
    b8a6:	66 c7 85 64 f8 ff ff 	movw   $0x71a7,-0x79c(%rbp)
    b8ad:	a7 71 
    b8af:	66 c7 85 66 f8 ff ff 	movw   $0xf6,-0x79a(%rbp)
    b8b6:	f6 00 
    b8b8:	66 c7 85 68 f8 ff ff 	movw   $0xf657,-0x798(%rbp)
    b8bf:	57 f6 
    b8c1:	66 c7 85 6a f8 ff ff 	movw   $0x1000,-0x796(%rbp)
    b8c8:	00 10 
    b8ca:	66 c7 85 6c f8 ff ff 	movw   $0xf600,-0x794(%rbp)
    b8d1:	00 f6 
    b8d3:	66 c7 85 6e f8 ff ff 	movw   $0x57,-0x792(%rbp)
    b8da:	57 00 
    b8dc:	66 c7 85 70 f8 ff ff 	movw   $0x71f6,-0x790(%rbp)
    b8e3:	f6 71 
    b8e5:	66 c7 85 72 f8 ff ff 	movw   $0xffa7,-0x78e(%rbp)
    b8ec:	a7 ff 
    b8ee:	66 c7 85 74 f8 ff ff 	movw   $0x2769,-0x78c(%rbp)
    b8f5:	69 27 
    b8f7:	66 c7 85 76 f8 ff ff 	movw   $0xb627,-0x78a(%rbp)
    b8fe:	27 b6 
    b900:	66 c7 85 78 f8 ff ff 	movw   $0x5800,-0x788(%rbp)
    b907:	00 58 
    b909:	66 c7 85 7a f8 ff ff 	movw   $0xfafb,-0x786(%rbp)
    b910:	fb fa 
    b912:	66 c7 85 7c f8 ff ff 	movw   $0xb6,-0x784(%rbp)
    b919:	b6 00 
    b91b:	66 c7 85 7e f8 ff ff 	movw   $0xa7f7,-0x782(%rbp)
    b922:	f7 a7 
    b924:	66 c7 85 80 f8 ff ff 	movw   $0x57d8,-0x780(%rbp)
    b92b:	d8 57 
    b92d:	66 c7 85 82 f8 ff ff 	movw   $0xfb00,-0x77e(%rbp)
    b934:	00 fb 
    b936:	66 c7 85 84 f8 ff ff 	movw   $0x3a,-0x77c(%rbp)
    b93d:	3a 00 
    b93f:	66 c7 85 86 f8 ff ff 	movw   $0x1786,-0x77a(%rbp)
    b946:	86 17 
    b948:	66 c7 85 88 f8 ff ff 	movw   $0x9b00,-0x778(%rbp)
    b94f:	00 9b 
    b951:	66 c7 85 8a f8 ff ff 	movw   $0x9b58,-0x776(%rbp)
    b958:	58 9b 
    b95a:	66 c7 85 8c f8 ff ff 	movw   $0x1700,-0x774(%rbp)
    b961:	00 17 
    b963:	66 c7 85 8e f8 ff ff 	movw   $0x86,-0x772(%rbp)
    b96a:	86 00 
    b96c:	c7 85 38 f6 ff ff fb 	movl   $0xfffffffb,-0x9c8(%rbp)
    b973:	ff ff ff 
    b976:	48 8d 05 f3 23 01 00 	lea    0x123f3(%rip),%rax        # 1dd70 <g_136>
    b97d:	48 89 85 58 f6 ff ff 	mov    %rax,-0x9a8(%rbp)
    b984:	48 8d 85 58 f6 ff ff 	lea    -0x9a8(%rbp),%rax
    b98b:	48 89 85 70 f6 ff ff 	mov    %rax,-0x990(%rbp)
    b992:	48 b8 3f ca ba 3f b8 	movabs $0xd84f0eb83fbaca3f,%rax
    b999:	0e 4f d8 
    b99c:	48 89 85 78 f6 ff ff 	mov    %rax,-0x988(%rbp)
    b9a3:	c7 85 3c f6 ff ff 52 	movl   $0x9a834c52,-0x9c4(%rbp)
    b9aa:	4c 83 9a 
    b9ad:	c6 85 ff f5 ff ff 06 	movb   $0x6,-0xa01(%rbp)
    b9b4:	c7 85 40 f6 ff ff 05 	movl   $0x5,-0x9c0(%rbp)
    b9bb:	00 00 00 
    b9be:	c7 85 24 f6 ff ff 00 	movl   $0x0,-0x9dc(%rbp)
    b9c5:	00 00 00 
    b9c8:	eb 1b                	jmp    b9e5 <func_1+0x230>
    b9ca:	8b 85 24 f6 ff ff    	mov    -0x9dc(%rbp),%eax
    b9d0:	48 98                	cltq   
    b9d2:	48 c7 84 c5 10 f8 ff 	movq   $0x3,-0x7f0(%rbp,%rax,8)
    b9d9:	ff 03 00 00 00 
    b9de:	83 85 24 f6 ff ff 01 	addl   $0x1,-0x9dc(%rbp)
    b9e5:	83 bd 24 f6 ff ff 04 	cmpl   $0x4,-0x9dc(%rbp)
    b9ec:	7e dc                	jle    b9ca <func_1+0x215>
    b9ee:	c7 85 24 f6 ff ff 00 	movl   $0x0,-0x9dc(%rbp)
    b9f5:	00 00 00 
    b9f8:	eb 1a                	jmp    ba14 <func_1+0x25f>
    b9fa:	8b 85 24 f6 ff ff    	mov    -0x9dc(%rbp),%eax
    ba00:	48 98                	cltq   
    ba02:	c7 84 85 e0 f7 ff ff 	movl   $0x3a2b1bb2,-0x820(%rbp,%rax,4)
    ba09:	b2 1b 2b 3a 
    ba0d:	83 85 24 f6 ff ff 01 	addl   $0x1,-0x9dc(%rbp)
    ba14:	83 bd 24 f6 ff ff 03 	cmpl   $0x3,-0x9dc(%rbp)
    ba1b:	7e dd                	jle    b9fa <func_1+0x245>
    ba1d:	c7 05 09 c6 00 00 06 	movl   $0x6,0xc609(%rip)        # 18030 <g_6>
    ba24:	00 00 00 
    ba27:	90                   	nop
    ba28:	8b 05 02 c6 00 00    	mov    0xc602(%rip),%eax        # 18030 <g_6>
    ba2e:	83 f8 ee             	cmp    $0xffffffee,%eax
    ba31:	0f 8d 0f 02 00 00    	jge    bc46 <func_1+0x491>
    ba37:	66 c7 85 06 f6 ff ff 	movw   $0xd6a5,-0x9fa(%rbp)
    ba3e:	a5 d6 
    ba40:	48 8d 05 ed c5 00 00 	lea    0xc5ed(%rip),%rax        # 18034 <g_32>
    ba47:	48 89 85 a0 f7 ff ff 	mov    %rax,-0x860(%rbp)
    ba4e:	48 8d 05 23 23 01 00 	lea    0x12323(%rip),%rax        # 1dd78 <g_356>
    ba55:	48 89 85 a8 f7 ff ff 	mov    %rax,-0x858(%rbp)
    ba5c:	48 8d 05 3d cd 00 00 	lea    0xcd3d(%rip),%rax        # 187a0 <g_364>
    ba63:	48 89 85 b0 f7 ff ff 	mov    %rax,-0x850(%rbp)
    ba6a:	48 8d 05 f7 cc 00 00 	lea    0xccf7(%rip),%rax        # 18768 <g_357>
    ba71:	48 89 85 b8 f7 ff ff 	mov    %rax,-0x848(%rbp)
    ba78:	48 c7 85 c0 f7 ff ff 	movq   $0x0,-0x840(%rbp)
    ba7f:	00 00 00 00 
    ba83:	48 8d 05 b6 d7 00 00 	lea    0xd7b6(%rip),%rax        # 19240 <g_390>
    ba8a:	48 89 85 c8 f7 ff ff 	mov    %rax,-0x838(%rbp)
    ba91:	48 8d 85 30 f9 ff ff 	lea    -0x6d0(%rbp),%rax
    ba98:	48 8d 15 a1 ea 00 00 	lea    0xeaa1(%rip),%rdx        # 1a540 <g_1994+0x10>
    ba9f:	b9 90 00 00 00       	mov    $0x90,%ecx
    baa4:	48 89 c7             	mov    %rax,%rdi
    baa7:	48 89 d6             	mov    %rdx,%rsi
    baaa:	f3 48 a5             	rep movsq %ds:(%rsi),%es:(%rdi)
    baad:	48 8d 05 8c c5 00 00 	lea    0xc58c(%rip),%rax        # 18040 <g_92>
    bab4:	48 89 85 d0 f7 ff ff 	mov    %rax,-0x830(%rbp)
    babb:	c7 85 28 f6 ff ff 00 	movl   $0x0,-0x9d8(%rbp)
    bac2:	00 00 00 
    bac5:	eb 1e                	jmp    bae5 <func_1+0x330>
    bac7:	8b 85 28 f6 ff ff    	mov    -0x9d8(%rbp),%eax
    bacd:	48 98                	cltq   
    bacf:	48 8d 15 82 d8 00 00 	lea    0xd882(%rip),%rdx        # 19358 <g_614>
    bad6:	48 89 94 c5 e0 f8 ff 	mov    %rdx,-0x720(%rbp,%rax,8)
    badd:	ff 
    bade:	83 85 28 f6 ff ff 01 	addl   $0x1,-0x9d8(%rbp)
    bae5:	83 bd 28 f6 ff ff 01 	cmpl   $0x1,-0x9d8(%rbp)
    baec:	7e d9                	jle    bac7 <func_1+0x312>
    baee:	0f bf 9d 06 f6 ff ff 	movswl -0x9fa(%rbp),%ebx
    baf5:	48 8b 05 cc 17 01 00 	mov    0x117cc(%rip),%rax        # 1d2c8 <g_1509>
    bafc:	44 8b 20             	mov    (%rax),%r12d
    baff:	8b 05 2b c5 00 00    	mov    0xc52b(%rip),%eax        # 18030 <g_6>
    bb05:	4c 63 f0             	movslq %eax,%r14
    bb08:	8b 05 22 c5 00 00    	mov    0xc522(%rip),%eax        # 18030 <g_6>
    bb0e:	44 0f bf e8          	movswl %ax,%r13d
    bb12:	8b 05 10 c5 00 00    	mov    0xc510(%rip),%eax        # 18028 <g_4>
    bb18:	0f b7 85 06 f6 ff ff 	movzwl -0x9fa(%rbp),%eax
    bb1f:	89 c2                	mov    %eax,%edx
    bb21:	48 8b 85 a0 f7 ff ff 	mov    -0x860(%rbp),%rax
    bb28:	88 10                	mov    %dl,(%rax)
    bb2a:	48 8b 85 a0 f7 ff ff 	mov    -0x860(%rbp),%rax
    bb31:	0f b6 00             	movzbl (%rax),%eax
    bb34:	0f be c0             	movsbl %al,%eax
    bb37:	be fa ff ff ff       	mov    $0xfffffffa,%esi
    bb3c:	89 c7                	mov    %eax,%edi
    bb3e:	e8 27 e7 ff ff       	callq  a26a <safe_div_func_int8_t_s_s>
    bb43:	0f be c0             	movsbl %al,%eax
    bb46:	48 8b 95 68 f6 ff ff 	mov    -0x998(%rbp),%rdx
    bb4d:	4c 89 f1             	mov    %r14,%rcx
    bb50:	44 89 ee             	mov    %r13d,%esi
    bb53:	89 c7                	mov    %eax,%edi
    bb55:	e8 45 1c 00 00       	callq  d79f <func_24>
    bb5a:	84 c0                	test   %al,%al
    bb5c:	0f 94 c0             	sete   %al
    bb5f:	0f b6 c0             	movzbl %al,%eax
    bb62:	89 c7                	mov    %eax,%edi
    bb64:	e8 11 1b 00 00       	callq  d67a <func_22>
    bb69:	44 89 e6             	mov    %r12d,%esi
    bb6c:	89 c7                	mov    %eax,%edi
    bb6e:	e8 8c eb ff ff       	callq  a6ff <safe_div_func_int32_t_s_s>
    bb73:	48 8b 85 18 f8 ff ff 	mov    -0x7e8(%rbp),%rax
    bb7a:	48 85 c0             	test   %rax,%rax
    bb7d:	75 0a                	jne    bb89 <func_1+0x3d4>
    bb7f:	66 83 bd 06 f6 ff ff 	cmpw   $0x0,-0x9fa(%rbp)
    bb86:	00 
    bb87:	74 07                	je     bb90 <func_1+0x3db>
    bb89:	b8 01 00 00 00       	mov    $0x1,%eax
    bb8e:	eb 05                	jmp    bb95 <func_1+0x3e0>
    bb90:	b8 00 00 00 00       	mov    $0x0,%eax
    bb95:	48 63 d0             	movslq %eax,%rdx
    bb98:	48 8b 85 20 f8 ff ff 	mov    -0x7e0(%rbp),%rax
    bb9f:	48 21 d0             	and    %rdx,%rax
    bba2:	89 c2                	mov    %eax,%edx
    bba4:	8b 85 08 f6 ff ff    	mov    -0x9f8(%rbp),%eax
    bbaa:	09 d0                	or     %edx,%eax
    bbac:	89 85 08 f6 ff ff    	mov    %eax,-0x9f8(%rbp)
    bbb2:	8b 85 08 f6 ff ff    	mov    -0x9f8(%rbp),%eax
    bbb8:	0f be c0             	movsbl %al,%eax
    bbbb:	89 de                	mov    %ebx,%esi
    bbbd:	89 c7                	mov    %eax,%edi
    bbbf:	e8 a8 e7 ff ff       	callq  a36c <safe_rshift_func_int8_t_s_u>
    bbc4:	89 c3                	mov    %eax,%ebx
    bbc6:	48 8b 85 20 f8 ff ff 	mov    -0x7e0(%rbp),%rax
    bbcd:	89 c6                	mov    %eax,%esi
    bbcf:	bf 00 00 00 00       	mov    $0x0,%edi
    bbd4:	e8 f7 f2 ff ff       	callq  aed0 <safe_sub_func_uint32_t_u_u>
    bbd9:	0f b6 c0             	movzbl %al,%eax
    bbdc:	89 c6                	mov    %eax,%esi
    bbde:	bf 01 00 00 00       	mov    $0x1,%edi
    bbe3:	e8 c6 ef ff ff       	callq  abae <safe_mod_func_uint8_t_u_u>
    bbe8:	0f b6 d0             	movzbl %al,%edx
    bbeb:	0f be cb             	movsbl %bl,%ecx
    bbee:	8b 85 0c f6 ff ff    	mov    -0x9f4(%rbp),%eax
    bbf4:	09 c8                	or     %ecx,%eax
    bbf6:	89 85 0c f6 ff ff    	mov    %eax,-0x9f4(%rbp)
    bbfc:	8b 85 0c f6 ff ff    	mov    -0x9f4(%rbp),%eax
    bc02:	39 c2                	cmp    %eax,%edx
    bc04:	0f 9e c0             	setle  %al
    bc07:	0f b6 d0             	movzbl %al,%edx
    bc0a:	48 8b 85 d0 f7 ff ff 	mov    -0x830(%rbp),%rax
    bc11:	48 89 10             	mov    %rdx,(%rax)
    bc14:	8b 05 d6 c7 00 00    	mov    0xc7d6(%rip),%eax        # 183f0 <g_215>
    bc1a:	98                   	cwtl   
    bc1b:	48 8b 1d 4e 03 01 00 	mov    0x1034e(%rip),%rbx        # 1bf70 <g_131>
    bc22:	89 c7                	mov    %eax,%edi
    bc24:	e8 fc 16 00 00       	callq  d325 <func_9>
    bc29:	89 03                	mov    %eax,(%rbx)
    bc2b:	48 8b 05 ae 16 01 00 	mov    0x116ae(%rip),%rax        # 1d2e0 <g_1602>
    bc32:	8b 95 08 f6 ff ff    	mov    -0x9f8(%rbp),%edx
    bc38:	89 10                	mov    %edx,(%rax)
    bc3a:	0f b7 85 02 f6 ff ff 	movzwl -0x9fe(%rbp),%eax
    bc41:	e9 b9 16 00 00       	jmpq   d2ff <func_1+0x1b4a>
    bc46:	48 8b 05 13 03 01 00 	mov    0x10313(%rip),%rax        # 1bf60 <g_110>
    bc4d:	8b 00                	mov    (%rax),%eax
    bc4f:	89 85 0c f6 ff ff    	mov    %eax,-0x9f4(%rbp)
    bc55:	c6 05 56 c4 00 00 00 	movb   $0x0,0xc456(%rip)        # 180b2 <g_134>
    bc5c:	e9 88 16 00 00       	jmpq   d2e9 <func_1+0x1b34>
    bc61:	c7 85 44 f6 ff ff 01 	movl   $0x1,-0x9bc(%rbp)
    bc68:	00 00 00 
    bc6b:	48 8d 05 d8 c3 00 00 	lea    0xc3d8(%rip),%rax        # 1804a <g_94>
    bc72:	48 89 85 80 f6 ff ff 	mov    %rax,-0x980(%rbp)
    bc79:	48 8d 05 f0 15 01 00 	lea    0x115f0(%rip),%rax        # 1d270 <g_1018>
    bc80:	48 89 85 88 f6 ff ff 	mov    %rax,-0x978(%rbp)
    bc87:	c6 85 00 f6 ff ff 79 	movb   $0x79,-0xa00(%rbp)
    bc8e:	c7 85 10 f6 ff ff 1a 	movl   $0x87de5d1a,-0x9f0(%rbp)
    bc95:	5d de 87 
    bc98:	48 8d 05 91 e8 00 00 	lea    0xe891(%rip),%rax        # 1a530 <g_1994>
    bc9f:	48 89 85 90 f6 ff ff 	mov    %rax,-0x970(%rbp)
    bca6:	48 8d 05 13 d5 00 00 	lea    0xd513(%rip),%rax        # 191c0 <g_378>
    bcad:	48 89 85 98 f6 ff ff 	mov    %rax,-0x968(%rbp)
    bcb4:	48 c7 85 a0 f6 ff ff 	movq   $0x0,-0x960(%rbp)
    bcbb:	00 00 00 00 
    bcbf:	c7 85 14 f6 ff ff 00 	movl   $0x0,-0x9ec(%rbp)
    bcc6:	00 00 00 
    bcc9:	c7 85 48 f6 ff ff cb 	movl   $0x799078cb,-0x9b8(%rbp)
    bcd0:	78 90 79 
    bcd3:	c7 85 4c f6 ff ff ff 	movl   $0xffffffff,-0x9b4(%rbp)
    bcda:	ff ff ff 
    bcdd:	48 8d 05 e4 20 01 00 	lea    0x120e4(%rip),%rax        # 1ddc8 <g_890>
    bce4:	48 89 85 a8 f6 ff ff 	mov    %rax,-0x958(%rbp)
    bceb:	48 c7 85 b0 f6 ff ff 	movq   $0xffffffffffffffff,-0x950(%rbp)
    bcf2:	ff ff ff ff 
    bcf6:	48 8b 05 8b 15 01 00 	mov    0x1158b(%rip),%rax        # 1d288 <g_1389>
    bcfd:	48 8b 00             	mov    (%rax),%rax
    bd00:	48 89 c6             	mov    %rax,%rsi
    bd03:	bf 01 00 00 00       	mov    $0x1,%edi
    bd08:	e8 a2 f3 ff ff       	callq  b0af <safe_div_func_uint64_t_u_u>
    bd0d:	48 ba f3 1e a2 5a 2e 	movabs $0x10537a2e5aa21ef3,%rdx
    bd14:	7a 53 10 
    bd17:	48 39 d0             	cmp    %rdx,%rax
    bd1a:	0f 97 c0             	seta   %al
    bd1d:	89 c2                	mov    %eax,%edx
    bd1f:	48 8b 85 98 f6 ff ff 	mov    -0x968(%rbp),%rax
    bd26:	88 10                	mov    %dl,(%rax)
    bd28:	48 8b 85 98 f6 ff ff 	mov    -0x968(%rbp),%rax
    bd2f:	0f b6 00             	movzbl (%rax),%eax
    bd32:	0f be c0             	movsbl %al,%eax
    bd35:	be 00 00 00 00       	mov    $0x0,%esi
    bd3a:	89 c7                	mov    %eax,%edi
    bd3c:	e8 60 e5 ff ff       	callq  a2a1 <safe_lshift_func_int8_t_s_s>
    bd41:	84 c0                	test   %al,%al
    bd43:	0f 84 f5 11 00 00    	je     cf3e <func_1+0x1789>
    bd49:	c7 85 18 f6 ff ff 00 	movl   $0x0,-0x9e8(%rbp)
    bd50:	00 00 00 
    bd53:	c7 85 50 f6 ff ff 08 	movl   $0x3e023b08,-0x9b0(%rbp)
    bd5a:	3b 02 3e 
    bd5d:	c7 85 1c f6 ff ff d7 	movl   $0xfa4bd2d7,-0x9e4(%rbp)
    bd64:	d2 4b fa 
    bd67:	48 8d 05 e6 d5 00 00 	lea    0xd5e6(%rip),%rax        # 19354 <g_567>
    bd6e:	48 89 85 e0 f6 ff ff 	mov    %rax,-0x920(%rbp)
    bd75:	48 b8 1d 5b 82 80 d5 	movabs $0x954f86d580825b1d,%rax
    bd7c:	86 4f 95 
    bd7f:	48 89 85 e8 f6 ff ff 	mov    %rax,-0x918(%rbp)
    bd86:	c6 85 01 f6 ff ff ff 	movb   $0xff,-0x9ff(%rbp)
    bd8d:	48 8d 85 d8 f7 ff ff 	lea    -0x828(%rbp),%rax
    bd94:	48 89 85 f0 f6 ff ff 	mov    %rax,-0x910(%rbp)
    bd9b:	c7 85 2c f6 ff ff 00 	movl   $0x0,-0x9d4(%rbp)
    bda2:	00 00 00 
    bda5:	eb 1a                	jmp    bdc1 <func_1+0x60c>
    bda7:	8b 85 2c f6 ff ff    	mov    -0x9d4(%rbp),%eax
    bdad:	48 98                	cltq   
    bdaf:	c7 84 85 f0 f7 ff ff 	movl   $0x1,-0x810(%rbp,%rax,4)
    bdb6:	01 00 00 00 
    bdba:	83 85 2c f6 ff ff 01 	addl   $0x1,-0x9d4(%rbp)
    bdc1:	83 bd 2c f6 ff ff 05 	cmpl   $0x5,-0x9d4(%rbp)
    bdc8:	7e dd                	jle    bda7 <func_1+0x5f2>
    bdca:	c7 85 2c f6 ff ff 00 	movl   $0x0,-0x9d4(%rbp)
    bdd1:	00 00 00 
    bdd4:	eb 1b                	jmp    bdf1 <func_1+0x63c>
    bdd6:	8b 85 2c f6 ff ff    	mov    -0x9d4(%rbp),%eax
    bddc:	48 98                	cltq   
    bdde:	48 c7 84 c5 d8 f7 ff 	movq   $0x0,-0x828(%rbp,%rax,8)
    bde5:	ff 00 00 00 00 
    bdea:	83 85 2c f6 ff ff 01 	addl   $0x1,-0x9d4(%rbp)
    bdf1:	83 bd 2c f6 ff ff 00 	cmpl   $0x0,-0x9d4(%rbp)
    bdf8:	7e dc                	jle    bdd6 <func_1+0x621>
    bdfa:	66 c7 05 2d e7 00 00 	movw   $0x3,0xe72d(%rip)        # 1a530 <g_1994>
    be01:	03 00 
    be03:	e9 9a 0e 00 00       	jmpq   cca2 <func_1+0x14ed>
    be08:	48 8d 05 61 01 01 00 	lea    0x10161(%rip),%rax        # 1bf70 <g_131>
    be0f:	48 89 85 f8 f6 ff ff 	mov    %rax,-0x908(%rbp)
    be16:	48 c7 85 00 f7 ff ff 	movq   $0x0,-0x900(%rbp)
    be1d:	00 00 00 00 
    be21:	c7 85 20 f6 ff ff 47 	movl   $0x4f7b747,-0x9e0(%rbp)
    be28:	b7 f7 04 
    be2b:	c7 85 60 f6 ff ff f9 	movl   $0x53eb20f9,-0x9a0(%rbp)
    be32:	20 eb 53 
    be35:	66 c7 85 04 f6 ff ff 	movw   $0xbd3c,-0x9fc(%rbp)
    be3c:	3c bd 
    be3e:	c7 85 54 f6 ff ff 0a 	movl   $0x68c4e0a,-0x9ac(%rbp)
    be45:	4e 8c 06 
    be48:	48 8b 15 21 01 01 00 	mov    0x10121(%rip),%rdx        # 1bf70 <g_131>
    be4f:	48 8b 05 1a 01 01 00 	mov    0x1011a(%rip),%rax        # 1bf70 <g_131>
    be56:	8b 12                	mov    (%rdx),%edx
    be58:	89 10                	mov    %edx,(%rax)
    be5a:	8b 00                	mov    (%rax),%eax
    be5c:	89 85 10 f6 ff ff    	mov    %eax,-0x9f0(%rbp)
    be62:	8b 05 00 c7 00 00    	mov    0xc700(%rip),%eax        # 18568 <g_228>
    be68:	0f be d0             	movsbl %al,%edx
    be6b:	48 8b 05 2e 14 01 00 	mov    0x1142e(%rip),%rax        # 1d2a0 <g_1386>
    be72:	48 8b 00             	mov    (%rax),%rax
    be75:	48 39 85 00 f7 ff ff 	cmp    %rax,-0x900(%rbp)
    be7c:	75 0e                	jne    be8c <func_1+0x6d7>
    be7e:	48 8d 05 43 1f 01 00 	lea    0x11f43(%rip),%rax        # 1ddc8 <g_890>
    be85:	48 89 05 84 15 01 00 	mov    %rax,0x11584(%rip)        # 1d410 <g_2007>
    be8c:	b8 00 00 00 00       	mov    $0x0,%eax
    be91:	0f be c0             	movsbl %al,%eax
    be94:	89 d6                	mov    %edx,%esi
    be96:	89 c7                	mov    %eax,%edi
    be98:	e8 75 e3 ff ff       	callq  a212 <safe_mul_func_int8_t_s_s>
    be9d:	0f be c0             	movsbl %al,%eax
    bea0:	89 c6                	mov    %eax,%esi
    bea2:	bf 14 27 00 00       	mov    $0x2714,%edi
    bea7:	e8 b7 e6 ff ff       	callq  a563 <safe_rshift_func_int16_t_s_u>
    beac:	0f bf d0             	movswl %ax,%edx
    beaf:	8b 85 18 f6 ff ff    	mov    -0x9e8(%rbp),%eax
    beb5:	39 c2                	cmp    %eax,%edx
    beb7:	0f 9c c2             	setl   %dl
    beba:	48 8d 05 af 00 01 00 	lea    0x100af(%rip),%rax        # 1bf70 <g_131>
    bec1:	48 8b 00             	mov    (%rax),%rax
    bec4:	0f b6 d2             	movzbl %dl,%edx
    bec7:	89 10                	mov    %edx,(%rax)
    bec9:	48 8b 85 f8 f6 ff ff 	mov    -0x908(%rbp),%rax
    bed0:	48 8b 00             	mov    (%rax),%rax
    bed3:	c7 00 01 00 00 00    	movl   $0x1,(%rax)
    bed9:	66 83 bd 02 f6 ff ff 	cmpw   $0x0,-0x9fe(%rbp)
    bee0:	00 
    bee1:	74 11                	je     bef4 <func_1+0x73f>
    bee3:	48 83 bd 70 f6 ff ff 	cmpq   $0x0,-0x990(%rbp)
    beea:	00 
    beeb:	75 07                	jne    bef4 <func_1+0x73f>
    beed:	bb 01 00 00 00       	mov    $0x1,%ebx
    bef2:	eb 05                	jmp    bef9 <func_1+0x744>
    bef4:	bb 00 00 00 00       	mov    $0x0,%ebx
    bef9:	48 8b 85 20 f8 ff ff 	mov    -0x7e0(%rbp),%rax
    bf00:	0f b6 d0             	movzbl %al,%edx
    bf03:	48 8b 85 f8 f6 ff ff 	mov    -0x908(%rbp),%rax
    bf0a:	48 8b 00             	mov    (%rax),%rax
    bf0d:	8b 00                	mov    (%rax),%eax
    bf0f:	0f b6 c0             	movzbl %al,%eax
    bf12:	89 d6                	mov    %edx,%esi
    bf14:	89 c7                	mov    %eax,%edi
    bf16:	e8 5d ec ff ff       	callq  ab78 <safe_sub_func_uint8_t_u_u>
    bf1b:	0f b6 c0             	movzbl %al,%eax
    bf1e:	39 c3                	cmp    %eax,%ebx
    bf20:	0f 8e b9 01 00 00    	jle    c0df <func_1+0x92a>
    bf26:	48 8d 05 3f 1e 01 00 	lea    0x11e3f(%rip),%rax        # 1dd6c <g_91>
    bf2d:	48 89 85 88 f7 ff ff 	mov    %rax,-0x878(%rbp)
    bf34:	48 8d 85 18 f6 ff ff 	lea    -0x9e8(%rbp),%rax
    bf3b:	48 89 85 90 f7 ff ff 	mov    %rax,-0x870(%rbp)
    bf42:	48 8d 05 23 1e 01 00 	lea    0x11e23(%rip),%rax        # 1dd6c <g_91>
    bf49:	48 89 85 98 f7 ff ff 	mov    %rax,-0x868(%rbp)
    bf50:	48 8d 85 0c f6 ff ff 	lea    -0x9f4(%rbp),%rax
    bf57:	48 89 85 30 f9 ff ff 	mov    %rax,-0x6d0(%rbp)
    bf5e:	48 8d 85 0c f6 ff ff 	lea    -0x9f4(%rbp),%rax
    bf65:	48 89 85 38 f9 ff ff 	mov    %rax,-0x6c8(%rbp)
    bf6c:	48 8d 85 10 f6 ff ff 	lea    -0x9f0(%rbp),%rax
    bf73:	48 89 85 40 f9 ff ff 	mov    %rax,-0x6c0(%rbp)
    bf7a:	48 8d 85 10 f6 ff ff 	lea    -0x9f0(%rbp),%rax
    bf81:	48 89 85 48 f9 ff ff 	mov    %rax,-0x6b8(%rbp)
    bf88:	48 8d 85 08 f6 ff ff 	lea    -0x9f8(%rbp),%rax
    bf8f:	48 89 85 50 f9 ff ff 	mov    %rax,-0x6b0(%rbp)
    bf96:	48 8d 85 18 f6 ff ff 	lea    -0x9e8(%rbp),%rax
    bf9d:	48 89 85 58 f9 ff ff 	mov    %rax,-0x6a8(%rbp)
    bfa4:	48 8d 85 18 f6 ff ff 	lea    -0x9e8(%rbp),%rax
    bfab:	48 89 85 60 f9 ff ff 	mov    %rax,-0x6a0(%rbp)
    bfb2:	48 8d 85 10 f6 ff ff 	lea    -0x9f0(%rbp),%rax
    bfb9:	48 89 85 68 f9 ff ff 	mov    %rax,-0x698(%rbp)
    bfc0:	48 8d 85 0c f6 ff ff 	lea    -0x9f4(%rbp),%rax
    bfc7:	48 89 85 70 f9 ff ff 	mov    %rax,-0x690(%rbp)
    bfce:	48 c7 85 78 f9 ff ff 	movq   $0x0,-0x688(%rbp)
    bfd5:	00 00 00 00 
    bfd9:	48 8d 85 18 f6 ff ff 	lea    -0x9e8(%rbp),%rax
    bfe0:	48 89 85 80 f9 ff ff 	mov    %rax,-0x680(%rbp)
    bfe7:	48 8d 85 18 f6 ff ff 	lea    -0x9e8(%rbp),%rax
    bfee:	48 89 85 88 f9 ff ff 	mov    %rax,-0x678(%rbp)
    bff5:	48 c7 85 90 f9 ff ff 	movq   $0x0,-0x670(%rbp)
    bffc:	00 00 00 00 
    c000:	48 8d 85 0c f6 ff ff 	lea    -0x9f4(%rbp),%rax
    c007:	48 89 85 98 f9 ff ff 	mov    %rax,-0x668(%rbp)
    c00e:	48 c7 85 a0 f9 ff ff 	movq   $0x0,-0x660(%rbp)
    c015:	00 00 00 00 
    c019:	48 8d 05 10 c0 00 00 	lea    0xc010(%rip),%rax        # 18030 <g_6>
    c020:	48 89 85 a8 f9 ff ff 	mov    %rax,-0x658(%rbp)
    c027:	48 8d 85 0c f6 ff ff 	lea    -0x9f4(%rbp),%rax
    c02e:	48 89 85 b0 f9 ff ff 	mov    %rax,-0x650(%rbp)
    c035:	48 8d 05 9c 1d 01 00 	lea    0x11d9c(%rip),%rax        # 1ddd8 <g_1003>
    c03c:	48 89 85 b8 f9 ff ff 	mov    %rax,-0x648(%rbp)
    c043:	48 8d 85 08 f6 ff ff 	lea    -0x9f8(%rbp),%rax
    c04a:	48 89 85 c0 f9 ff ff 	mov    %rax,-0x640(%rbp)
    c051:	48 8d 05 d8 bf 00 00 	lea    0xbfd8(%rip),%rax        # 18030 <g_6>
    c058:	48 89 85 c8 f9 ff ff 	mov    %rax,-0x638(%rbp)
    c05f:	48 8d 85 10 f6 ff ff 	lea    -0x9f0(%rbp),%rax
    c066:	48 89 85 d0 f9 ff ff 	mov    %rax,-0x630(%rbp)
    c06d:	48 c7 85 d8 f9 ff ff 	movq   $0x0,-0x628(%rbp)
    c074:	00 00 00 00 
    c078:	48 8d 85 18 f6 ff ff 	lea    -0x9e8(%rbp),%rax
    c07f:	48 89 85 e0 f9 ff ff 	mov    %rax,-0x620(%rbp)
    c086:	48 8d 85 10 f6 ff ff 	lea    -0x9f0(%rbp),%rax
    c08d:	48 89 85 e8 f9 ff ff 	mov    %rax,-0x618(%rbp)
    c094:	48 8d 85 0c f6 ff ff 	lea    -0x9f4(%rbp),%rax
    c09b:	48 89 85 f0 f9 ff ff 	mov    %rax,-0x610(%rbp)
    c0a2:	48 8d 85 10 f6 ff ff 	lea    -0x9f0(%rbp),%rax
    c0a9:	48 89 85 f8 f9 ff ff 	mov    %rax,-0x608(%rbp)
    c0b0:	48 8d 85 18 f6 ff ff 	lea    -0x9e8(%rbp),%rax
    c0b7:	48 89 85 00 fa ff ff 	mov    %rax,-0x600(%rbp)
    c0be:	48 c7 85 08 fa ff ff 	movq   $0x0,-0x5f8(%rbp)
    c0c5:	00 00 00 00 
    c0c9:	0f b7 85 04 f6 ff ff 	movzwl -0x9fc(%rbp),%eax
    c0d0:	83 c0 01             	add    $0x1,%eax
    c0d3:	66 89 85 04 f6 ff ff 	mov    %ax,-0x9fc(%rbp)
    c0da:	e9 b2 0b 00 00       	jmpq   cc91 <func_1+0x14dc>
    c0df:	48 8d 05 4a bf 00 00 	lea    0xbf4a(%rip),%rax        # 18030 <g_6>
    c0e6:	48 89 85 08 f7 ff ff 	mov    %rax,-0x8f8(%rbp)
    c0ed:	48 c7 85 10 f7 ff ff 	movq   $0x0,-0x8f0(%rbp)
    c0f4:	00 00 00 00 
    c0f8:	48 8d 85 08 f6 ff ff 	lea    -0x9f8(%rbp),%rax
    c0ff:	48 89 85 18 f7 ff ff 	mov    %rax,-0x8e8(%rbp)
    c106:	48 8d 85 14 f6 ff ff 	lea    -0x9ec(%rbp),%rax
    c10d:	48 89 85 20 f7 ff ff 	mov    %rax,-0x8e0(%rbp)
    c114:	48 8d 05 15 bf 00 00 	lea    0xbf15(%rip),%rax        # 18030 <g_6>
    c11b:	48 89 85 28 f7 ff ff 	mov    %rax,-0x8d8(%rbp)
    c122:	48 8d 05 07 bf 00 00 	lea    0xbf07(%rip),%rax        # 18030 <g_6>
    c129:	48 89 85 30 f7 ff ff 	mov    %rax,-0x8d0(%rbp)
    c130:	48 8d 05 a1 1c 01 00 	lea    0x11ca1(%rip),%rax        # 1ddd8 <g_1003>
    c137:	48 89 85 38 f7 ff ff 	mov    %rax,-0x8c8(%rbp)
    c13e:	48 8d 05 0b d2 00 00 	lea    0xd20b(%rip),%rax        # 19350 <g_503+0x8>
    c145:	48 89 85 40 f7 ff ff 	mov    %rax,-0x8c0(%rbp)
    c14c:	48 8d 85 14 f6 ff ff 	lea    -0x9ec(%rbp),%rax
    c153:	48 89 85 48 f7 ff ff 	mov    %rax,-0x8b8(%rbp)
    c15a:	48 c7 85 50 f7 ff ff 	movq   $0x0,-0x8b0(%rbp)
    c161:	00 00 00 00 
    c165:	48 8d 85 60 f6 ff ff 	lea    -0x9a0(%rbp),%rax
    c16c:	48 89 85 58 f7 ff ff 	mov    %rax,-0x8a8(%rbp)
    c173:	48 8d 85 18 f6 ff ff 	lea    -0x9e8(%rbp),%rax
    c17a:	48 89 85 60 f7 ff ff 	mov    %rax,-0x8a0(%rbp)
    c181:	48 c7 85 68 f7 ff ff 	movq   $0x0,-0x898(%rbp)
    c188:	00 00 00 00 
    c18c:	48 c7 85 70 f7 ff ff 	movq   $0x0,-0x890(%rbp)
    c193:	00 00 00 00 
    c197:	48 8d 05 ce 1b 01 00 	lea    0x11bce(%rip),%rax        # 1dd6c <g_91>
    c19e:	48 89 85 78 f7 ff ff 	mov    %rax,-0x888(%rbp)
    c1a5:	48 8d 85 10 f6 ff ff 	lea    -0x9f0(%rbp),%rax
    c1ac:	48 89 85 80 f7 ff ff 	mov    %rax,-0x880(%rbp)
    c1b3:	48 8d 05 92 d1 00 00 	lea    0xd192(%rip),%rax        # 1934c <g_503+0x4>
    c1ba:	48 89 85 30 f9 ff ff 	mov    %rax,-0x6d0(%rbp)
    c1c1:	48 8d 05 f0 da 00 00 	lea    0xdaf0(%rip),%rax        # 19cb8 <g_1105>
    c1c8:	48 89 85 38 f9 ff ff 	mov    %rax,-0x6c8(%rbp)
    c1cf:	48 8d 05 62 be 00 00 	lea    0xbe62(%rip),%rax        # 18038 <g_35>
    c1d6:	48 89 85 40 f9 ff ff 	mov    %rax,-0x6c0(%rbp)
    c1dd:	48 8d 05 88 1b 01 00 	lea    0x11b88(%rip),%rax        # 1dd6c <g_91>
    c1e4:	48 89 85 48 f9 ff ff 	mov    %rax,-0x6b8(%rbp)
    c1eb:	48 8d 05 3e be 00 00 	lea    0xbe3e(%rip),%rax        # 18030 <g_6>
    c1f2:	48 89 85 50 f9 ff ff 	mov    %rax,-0x6b0(%rbp)
    c1f9:	48 c7 85 58 f9 ff ff 	movq   $0x0,-0x6a8(%rbp)
    c200:	00 00 00 00 
    c204:	48 8d 05 45 d1 00 00 	lea    0xd145(%rip),%rax        # 19350 <g_503+0x8>
    c20b:	48 89 85 60 f9 ff ff 	mov    %rax,-0x6a0(%rbp)
    c212:	48 8d 05 17 be 00 00 	lea    0xbe17(%rip),%rax        # 18030 <g_6>
    c219:	48 89 85 68 f9 ff ff 	mov    %rax,-0x698(%rbp)
    c220:	48 8d 85 20 f6 ff ff 	lea    -0x9e0(%rbp),%rax
    c227:	48 89 85 70 f9 ff ff 	mov    %rax,-0x690(%rbp)
    c22e:	48 8d 85 0c f6 ff ff 	lea    -0x9f4(%rbp),%rax
    c235:	48 89 85 78 f9 ff ff 	mov    %rax,-0x688(%rbp)
    c23c:	48 c7 85 80 f9 ff ff 	movq   $0x0,-0x680(%rbp)
    c243:	00 00 00 00 
    c247:	48 8d 85 08 f6 ff ff 	lea    -0x9f8(%rbp),%rax
    c24e:	48 89 85 88 f9 ff ff 	mov    %rax,-0x678(%rbp)
    c255:	48 c7 85 90 f9 ff ff 	movq   $0x0,-0x670(%rbp)
    c25c:	00 00 00 00 
    c260:	48 8d 85 60 f6 ff ff 	lea    -0x9a0(%rbp),%rax
    c267:	48 89 85 98 f9 ff ff 	mov    %rax,-0x668(%rbp)
    c26e:	48 c7 85 a0 f9 ff ff 	movq   $0x0,-0x660(%rbp)
    c275:	00 00 00 00 
    c279:	48 8d 85 08 f6 ff ff 	lea    -0x9f8(%rbp),%rax
    c280:	48 89 85 a8 f9 ff ff 	mov    %rax,-0x658(%rbp)
    c287:	48 c7 85 b0 f9 ff ff 	movq   $0x0,-0x650(%rbp)
    c28e:	00 00 00 00 
    c292:	48 8d 85 18 f6 ff ff 	lea    -0x9e8(%rbp),%rax
    c299:	48 89 85 b8 f9 ff ff 	mov    %rax,-0x648(%rbp)
    c2a0:	48 8d 85 10 f6 ff ff 	lea    -0x9f0(%rbp),%rax
    c2a7:	48 89 85 c0 f9 ff ff 	mov    %rax,-0x640(%rbp)
    c2ae:	48 8d 05 b7 1a 01 00 	lea    0x11ab7(%rip),%rax        # 1dd6c <g_91>
    c2b5:	48 89 85 c8 f9 ff ff 	mov    %rax,-0x638(%rbp)
    c2bc:	48 8d 05 a9 1a 01 00 	lea    0x11aa9(%rip),%rax        # 1dd6c <g_91>
    c2c3:	48 89 85 d0 f9 ff ff 	mov    %rax,-0x630(%rbp)
    c2ca:	48 8d 85 08 f6 ff ff 	lea    -0x9f8(%rbp),%rax
    c2d1:	48 89 85 d8 f9 ff ff 	mov    %rax,-0x628(%rbp)
    c2d8:	48 8d 05 71 d0 00 00 	lea    0xd071(%rip),%rax        # 19350 <g_503+0x8>
    c2df:	48 89 85 e0 f9 ff ff 	mov    %rax,-0x620(%rbp)
    c2e6:	48 8d 85 18 f6 ff ff 	lea    -0x9e8(%rbp),%rax
    c2ed:	48 89 85 e8 f9 ff ff 	mov    %rax,-0x618(%rbp)
    c2f4:	48 8d 85 18 f6 ff ff 	lea    -0x9e8(%rbp),%rax
    c2fb:	48 89 85 f0 f9 ff ff 	mov    %rax,-0x610(%rbp)
    c302:	48 8d 05 47 d0 00 00 	lea    0xd047(%rip),%rax        # 19350 <g_503+0x8>
    c309:	48 89 85 f8 f9 ff ff 	mov    %rax,-0x608(%rbp)
    c310:	48 8d 85 08 f6 ff ff 	lea    -0x9f8(%rbp),%rax
    c317:	48 89 85 00 fa ff ff 	mov    %rax,-0x600(%rbp)
    c31e:	48 8d 85 60 f6 ff ff 	lea    -0x9a0(%rbp),%rax
    c325:	48 89 85 08 fa ff ff 	mov    %rax,-0x5f8(%rbp)
    c32c:	48 8d 05 1d d0 00 00 	lea    0xd01d(%rip),%rax        # 19350 <g_503+0x8>
    c333:	48 89 85 10 fa ff ff 	mov    %rax,-0x5f0(%rbp)
    c33a:	48 8d 85 08 f6 ff ff 	lea    -0x9f8(%rbp),%rax
    c341:	48 89 85 18 fa ff ff 	mov    %rax,-0x5e8(%rbp)
    c348:	48 8d 05 21 c2 00 00 	lea    0xc221(%rip),%rax        # 18570 <g_256>
    c34f:	48 89 85 20 fa ff ff 	mov    %rax,-0x5e0(%rbp)
    c356:	48 c7 85 28 fa ff ff 	movq   $0x0,-0x5d8(%rbp)
    c35d:	00 00 00 00 
    c361:	48 c7 85 30 fa ff ff 	movq   $0x0,-0x5d0(%rbp)
    c368:	00 00 00 00 
    c36c:	48 c7 85 38 fa ff ff 	movq   $0x0,-0x5c8(%rbp)
    c373:	00 00 00 00 
    c377:	48 8d 85 1c f6 ff ff 	lea    -0x9e4(%rbp),%rax
    c37e:	48 89 85 40 fa ff ff 	mov    %rax,-0x5c0(%rbp)
    c385:	48 c7 85 48 fa ff ff 	movq   $0x0,-0x5b8(%rbp)
    c38c:	00 00 00 00 
    c390:	48 c7 85 50 fa ff ff 	movq   $0x0,-0x5b0(%rbp)
    c397:	00 00 00 00 
    c39b:	48 8d 85 0c f6 ff ff 	lea    -0x9f4(%rbp),%rax
    c3a2:	48 89 85 58 fa ff ff 	mov    %rax,-0x5a8(%rbp)
    c3a9:	48 8d 05 bc 19 01 00 	lea    0x119bc(%rip),%rax        # 1dd6c <g_91>
    c3b0:	48 89 85 60 fa ff ff 	mov    %rax,-0x5a0(%rbp)
    c3b7:	48 8d 05 9a cf 00 00 	lea    0xcf9a(%rip),%rax        # 19358 <g_614>
    c3be:	48 89 85 68 fa ff ff 	mov    %rax,-0x598(%rbp)
    c3c5:	48 8d 85 10 f6 ff ff 	lea    -0x9f0(%rbp),%rax
    c3cc:	48 89 85 70 fa ff ff 	mov    %rax,-0x590(%rbp)
    c3d3:	48 c7 85 78 fa ff ff 	movq   $0x0,-0x588(%rbp)
    c3da:	00 00 00 00 
    c3de:	48 8d 85 1c f6 ff ff 	lea    -0x9e4(%rbp),%rax
    c3e5:	48 89 85 80 fa ff ff 	mov    %rax,-0x580(%rbp)
    c3ec:	48 8d 85 08 f6 ff ff 	lea    -0x9f8(%rbp),%rax
    c3f3:	48 89 85 88 fa ff ff 	mov    %rax,-0x578(%rbp)
    c3fa:	48 8d 85 18 f6 ff ff 	lea    -0x9e8(%rbp),%rax
    c401:	48 89 85 90 fa ff ff 	mov    %rax,-0x570(%rbp)
    c408:	48 c7 85 98 fa ff ff 	movq   $0x0,-0x568(%rbp)
    c40f:	00 00 00 00 
    c413:	48 c7 85 a0 fa ff ff 	movq   $0x0,-0x560(%rbp)
    c41a:	00 00 00 00 
    c41e:	48 8d 85 0c f6 ff ff 	lea    -0x9f4(%rbp),%rax
    c425:	48 89 85 a8 fa ff ff 	mov    %rax,-0x558(%rbp)
    c42c:	48 c7 85 b0 fa ff ff 	movq   $0x0,-0x550(%rbp)
    c433:	00 00 00 00 
    c437:	48 8d 85 0c f6 ff ff 	lea    -0x9f4(%rbp),%rax
    c43e:	48 89 85 b8 fa ff ff 	mov    %rax,-0x548(%rbp)
    c445:	48 8d 05 04 cf 00 00 	lea    0xcf04(%rip),%rax        # 19350 <g_503+0x8>
    c44c:	48 89 85 c0 fa ff ff 	mov    %rax,-0x540(%rbp)
    c453:	48 c7 85 c8 fa ff ff 	movq   $0x0,-0x538(%rbp)
    c45a:	00 00 00 00 
    c45e:	48 8d 85 18 f6 ff ff 	lea    -0x9e8(%rbp),%rax
    c465:	48 89 85 d0 fa ff ff 	mov    %rax,-0x530(%rbp)
    c46c:	48 8d 85 1c f6 ff ff 	lea    -0x9e4(%rbp),%rax
    c473:	48 89 85 d8 fa ff ff 	mov    %rax,-0x528(%rbp)
    c47a:	48 8d 85 18 f6 ff ff 	lea    -0x9e8(%rbp),%rax
    c481:	48 89 85 e0 fa ff ff 	mov    %rax,-0x520(%rbp)
    c488:	48 c7 85 e8 fa ff ff 	movq   $0x0,-0x518(%rbp)
    c48f:	00 00 00 00 
    c493:	48 8d 85 08 f6 ff ff 	lea    -0x9f8(%rbp),%rax
    c49a:	48 89 85 f0 fa ff ff 	mov    %rax,-0x510(%rbp)
    c4a1:	48 8d 85 08 f6 ff ff 	lea    -0x9f8(%rbp),%rax
    c4a8:	48 89 85 f8 fa ff ff 	mov    %rax,-0x508(%rbp)
    c4af:	48 c7 85 00 fb ff ff 	movq   $0x0,-0x500(%rbp)
    c4b6:	00 00 00 00 
    c4ba:	48 8d 05 ab 18 01 00 	lea    0x118ab(%rip),%rax        # 1dd6c <g_91>
    c4c1:	48 89 85 08 fb ff ff 	mov    %rax,-0x4f8(%rbp)
    c4c8:	48 c7 85 10 fb ff ff 	movq   $0x0,-0x4f0(%rbp)
    c4cf:	00 00 00 00 
    c4d3:	48 8d 05 de d7 00 00 	lea    0xd7de(%rip),%rax        # 19cb8 <g_1105>
    c4da:	48 89 85 18 fb ff ff 	mov    %rax,-0x4e8(%rbp)
    c4e1:	48 c7 85 20 fb ff ff 	movq   $0x0,-0x4e0(%rbp)
    c4e8:	00 00 00 00 
    c4ec:	48 8d 85 10 f6 ff ff 	lea    -0x9f0(%rbp),%rax
    c4f3:	48 89 85 28 fb ff ff 	mov    %rax,-0x4d8(%rbp)
    c4fa:	48 8d 85 20 f6 ff ff 	lea    -0x9e0(%rbp),%rax
    c501:	48 89 85 30 fb ff ff 	mov    %rax,-0x4d0(%rbp)
    c508:	48 8d 85 1c f6 ff ff 	lea    -0x9e4(%rbp),%rax
    c50f:	48 89 85 38 fb ff ff 	mov    %rax,-0x4c8(%rbp)
    c516:	48 8d 05 13 bb 00 00 	lea    0xbb13(%rip),%rax        # 18030 <g_6>
    c51d:	48 89 85 40 fb ff ff 	mov    %rax,-0x4c0(%rbp)
    c524:	48 8d 85 20 f6 ff ff 	lea    -0x9e0(%rbp),%rax
    c52b:	48 89 85 48 fb ff ff 	mov    %rax,-0x4b8(%rbp)
    c532:	48 8d 85 0c f6 ff ff 	lea    -0x9f4(%rbp),%rax
    c539:	48 89 85 50 fb ff ff 	mov    %rax,-0x4b0(%rbp)
    c540:	48 c7 85 58 fb ff ff 	movq   $0x0,-0x4a8(%rbp)
    c547:	00 00 00 00 
    c54b:	48 8d 85 1c f6 ff ff 	lea    -0x9e4(%rbp),%rax
    c552:	48 89 85 60 fb ff ff 	mov    %rax,-0x4a0(%rbp)
    c559:	48 8d 05 f0 cd 00 00 	lea    0xcdf0(%rip),%rax        # 19350 <g_503+0x8>
    c560:	48 89 85 68 fb ff ff 	mov    %rax,-0x498(%rbp)
    c567:	48 8d 85 60 f6 ff ff 	lea    -0x9a0(%rbp),%rax
    c56e:	48 89 85 70 fb ff ff 	mov    %rax,-0x490(%rbp)
    c575:	48 8d 85 08 f6 ff ff 	lea    -0x9f8(%rbp),%rax
    c57c:	48 89 85 78 fb ff ff 	mov    %rax,-0x488(%rbp)
    c583:	48 8d 85 10 f6 ff ff 	lea    -0x9f0(%rbp),%rax
    c58a:	48 89 85 80 fb ff ff 	mov    %rax,-0x480(%rbp)
    c591:	48 8d 85 20 f6 ff ff 	lea    -0x9e0(%rbp),%rax
    c598:	48 89 85 88 fb ff ff 	mov    %rax,-0x478(%rbp)
    c59f:	48 8d 85 10 f6 ff ff 	lea    -0x9f0(%rbp),%rax
    c5a6:	48 89 85 90 fb ff ff 	mov    %rax,-0x470(%rbp)
    c5ad:	48 8d 85 60 f6 ff ff 	lea    -0x9a0(%rbp),%rax
    c5b4:	48 89 85 98 fb ff ff 	mov    %rax,-0x468(%rbp)
    c5bb:	48 8d 85 0c f6 ff ff 	lea    -0x9f4(%rbp),%rax
    c5c2:	48 89 85 a0 fb ff ff 	mov    %rax,-0x460(%rbp)
    c5c9:	48 8d 85 0c f6 ff ff 	lea    -0x9f4(%rbp),%rax
    c5d0:	48 89 85 a8 fb ff ff 	mov    %rax,-0x458(%rbp)
    c5d7:	48 8d 85 10 f6 ff ff 	lea    -0x9f0(%rbp),%rax
    c5de:	48 89 85 b0 fb ff ff 	mov    %rax,-0x450(%rbp)
    c5e5:	48 8d 05 80 17 01 00 	lea    0x11780(%rip),%rax        # 1dd6c <g_91>
    c5ec:	48 89 85 b8 fb ff ff 	mov    %rax,-0x448(%rbp)
    c5f3:	48 8d 85 1c f6 ff ff 	lea    -0x9e4(%rbp),%rax
    c5fa:	48 89 85 c0 fb ff ff 	mov    %rax,-0x440(%rbp)
    c601:	48 8d 85 1c f6 ff ff 	lea    -0x9e4(%rbp),%rax
    c608:	48 89 85 c8 fb ff ff 	mov    %rax,-0x438(%rbp)
    c60f:	48 8d 05 a2 d6 00 00 	lea    0xd6a2(%rip),%rax        # 19cb8 <g_1105>
    c616:	48 89 85 d0 fb ff ff 	mov    %rax,-0x430(%rbp)
    c61d:	48 8d 05 2c cd 00 00 	lea    0xcd2c(%rip),%rax        # 19350 <g_503+0x8>
    c624:	48 89 85 d8 fb ff ff 	mov    %rax,-0x428(%rbp)
    c62b:	48 8d 85 0c f6 ff ff 	lea    -0x9f4(%rbp),%rax
    c632:	48 89 85 e0 fb ff ff 	mov    %rax,-0x420(%rbp)
    c639:	48 8d 05 10 cd 00 00 	lea    0xcd10(%rip),%rax        # 19350 <g_503+0x8>
    c640:	48 89 85 e8 fb ff ff 	mov    %rax,-0x418(%rbp)
    c647:	48 8d 05 6a d6 00 00 	lea    0xd66a(%rip),%rax        # 19cb8 <g_1105>
    c64e:	48 89 85 f0 fb ff ff 	mov    %rax,-0x410(%rbp)
    c655:	48 8d 85 10 f6 ff ff 	lea    -0x9f0(%rbp),%rax
    c65c:	48 89 85 f8 fb ff ff 	mov    %rax,-0x408(%rbp)
    c663:	48 8d 85 20 f6 ff ff 	lea    -0x9e0(%rbp),%rax
    c66a:	48 89 85 00 fc ff ff 	mov    %rax,-0x400(%rbp)
    c671:	48 8d 85 0c f6 ff ff 	lea    -0x9f4(%rbp),%rax
    c678:	48 89 85 08 fc ff ff 	mov    %rax,-0x3f8(%rbp)
    c67f:	48 8d 05 b2 b9 00 00 	lea    0xb9b2(%rip),%rax        # 18038 <g_35>
    c686:	48 89 85 10 fc ff ff 	mov    %rax,-0x3f0(%rbp)
    c68d:	48 8d 85 60 f6 ff ff 	lea    -0x9a0(%rbp),%rax
    c694:	48 89 85 18 fc ff ff 	mov    %rax,-0x3e8(%rbp)
    c69b:	48 c7 85 20 fc ff ff 	movq   $0x0,-0x3e0(%rbp)
    c6a2:	00 00 00 00 
    c6a6:	48 8d 85 08 f6 ff ff 	lea    -0x9f8(%rbp),%rax
    c6ad:	48 89 85 28 fc ff ff 	mov    %rax,-0x3d8(%rbp)
    c6b4:	48 c7 85 30 fc ff ff 	movq   $0x0,-0x3d0(%rbp)
    c6bb:	00 00 00 00 
    c6bf:	48 8d 85 0c f6 ff ff 	lea    -0x9f4(%rbp),%rax
    c6c6:	48 89 85 38 fc ff ff 	mov    %rax,-0x3c8(%rbp)
    c6cd:	48 8d 85 18 f6 ff ff 	lea    -0x9e8(%rbp),%rax
    c6d4:	48 89 85 40 fc ff ff 	mov    %rax,-0x3c0(%rbp)
    c6db:	48 8d 05 8e be 00 00 	lea    0xbe8e(%rip),%rax        # 18570 <g_256>
    c6e2:	48 89 85 48 fc ff ff 	mov    %rax,-0x3b8(%rbp)
    c6e9:	48 8d 85 1c f6 ff ff 	lea    -0x9e4(%rbp),%rax
    c6f0:	48 89 85 50 fc ff ff 	mov    %rax,-0x3b0(%rbp)
    c6f7:	48 8d 05 5a cc 00 00 	lea    0xcc5a(%rip),%rax        # 19358 <g_614>
    c6fe:	48 89 85 58 fc ff ff 	mov    %rax,-0x3a8(%rbp)
    c705:	48 8d 85 18 f6 ff ff 	lea    -0x9e8(%rbp),%rax
    c70c:	48 89 85 60 fc ff ff 	mov    %rax,-0x3a0(%rbp)
    c713:	48 8d 05 1e b9 00 00 	lea    0xb91e(%rip),%rax        # 18038 <g_35>
    c71a:	48 89 85 68 fc ff ff 	mov    %rax,-0x398(%rbp)
    c721:	48 8d 05 28 cc 00 00 	lea    0xcc28(%rip),%rax        # 19350 <g_503+0x8>
    c728:	48 89 85 70 fc ff ff 	mov    %rax,-0x390(%rbp)
    c72f:	48 8d 85 0c f6 ff ff 	lea    -0x9f4(%rbp),%rax
    c736:	48 89 85 78 fc ff ff 	mov    %rax,-0x388(%rbp)
    c73d:	48 c7 85 80 fc ff ff 	movq   $0x0,-0x380(%rbp)
    c744:	00 00 00 00 
    c748:	48 8d 85 08 f6 ff ff 	lea    -0x9f8(%rbp),%rax
    c74f:	48 89 85 88 fc ff ff 	mov    %rax,-0x378(%rbp)
    c756:	48 c7 85 90 fc ff ff 	movq   $0x0,-0x370(%rbp)
    c75d:	00 00 00 00 
    c761:	48 8d 85 18 f6 ff ff 	lea    -0x9e8(%rbp),%rax
    c768:	48 89 85 98 fc ff ff 	mov    %rax,-0x368(%rbp)
    c76f:	48 8d 85 10 f6 ff ff 	lea    -0x9f0(%rbp),%rax
    c776:	48 89 85 a0 fc ff ff 	mov    %rax,-0x360(%rbp)
    c77d:	48 8d 05 e8 15 01 00 	lea    0x115e8(%rip),%rax        # 1dd6c <g_91>
    c784:	48 89 85 a8 fc ff ff 	mov    %rax,-0x358(%rbp)
    c78b:	48 8d 05 26 d5 00 00 	lea    0xd526(%rip),%rax        # 19cb8 <g_1105>
    c792:	48 89 85 b0 fc ff ff 	mov    %rax,-0x350(%rbp)
    c799:	48 8d 05 ac cb 00 00 	lea    0xcbac(%rip),%rax        # 1934c <g_503+0x4>
    c7a0:	48 89 85 b8 fc ff ff 	mov    %rax,-0x348(%rbp)
    c7a7:	48 8d 85 10 f6 ff ff 	lea    -0x9f0(%rbp),%rax
    c7ae:	48 89 85 c0 fc ff ff 	mov    %rax,-0x340(%rbp)
    c7b5:	48 8d 85 1c f6 ff ff 	lea    -0x9e4(%rbp),%rax
    c7bc:	48 89 85 c8 fc ff ff 	mov    %rax,-0x338(%rbp)
    c7c3:	48 8d 85 1c f6 ff ff 	lea    -0x9e4(%rbp),%rax
    c7ca:	48 89 85 d0 fc ff ff 	mov    %rax,-0x330(%rbp)
    c7d1:	48 8d 85 10 f6 ff ff 	lea    -0x9f0(%rbp),%rax
    c7d8:	48 89 85 d8 fc ff ff 	mov    %rax,-0x328(%rbp)
    c7df:	48 8d 05 66 cb 00 00 	lea    0xcb66(%rip),%rax        # 1934c <g_503+0x4>
    c7e6:	48 89 85 e0 fc ff ff 	mov    %rax,-0x320(%rbp)
    c7ed:	48 8d 85 60 f6 ff ff 	lea    -0x9a0(%rbp),%rax
    c7f4:	48 89 85 e8 fc ff ff 	mov    %rax,-0x318(%rbp)
    c7fb:	48 8d 85 1c f6 ff ff 	lea    -0x9e4(%rbp),%rax
    c802:	48 89 85 f0 fc ff ff 	mov    %rax,-0x310(%rbp)
    c809:	48 8d 05 5c 15 01 00 	lea    0x1155c(%rip),%rax        # 1dd6c <g_91>
    c810:	48 89 85 f8 fc ff ff 	mov    %rax,-0x308(%rbp)
    c817:	48 c7 85 00 fd ff ff 	movq   $0x0,-0x300(%rbp)
    c81e:	00 00 00 00 
    c822:	48 8d 05 07 b8 00 00 	lea    0xb807(%rip),%rax        # 18030 <g_6>
    c829:	48 89 85 08 fd ff ff 	mov    %rax,-0x2f8(%rbp)
    c830:	48 8d 05 01 b8 00 00 	lea    0xb801(%rip),%rax        # 18038 <g_35>
    c837:	48 89 85 10 fd ff ff 	mov    %rax,-0x2f0(%rbp)
    c83e:	48 8d 85 1c f6 ff ff 	lea    -0x9e4(%rbp),%rax
    c845:	48 89 85 18 fd ff ff 	mov    %rax,-0x2e8(%rbp)
    c84c:	48 8d 85 1c f6 ff ff 	lea    -0x9e4(%rbp),%rax
    c853:	48 89 85 20 fd ff ff 	mov    %rax,-0x2e0(%rbp)
    c85a:	48 c7 85 28 fd ff ff 	movq   $0x0,-0x2d8(%rbp)
    c861:	00 00 00 00 
    c865:	48 c7 85 30 fd ff ff 	movq   $0x0,-0x2d0(%rbp)
    c86c:	00 00 00 00 
    c870:	48 8d 85 60 f6 ff ff 	lea    -0x9a0(%rbp),%rax
    c877:	48 89 85 38 fd ff ff 	mov    %rax,-0x2c8(%rbp)
    c87e:	48 8d 05 cb ca 00 00 	lea    0xcacb(%rip),%rax        # 19350 <g_503+0x8>
    c885:	48 89 85 40 fd ff ff 	mov    %rax,-0x2c0(%rbp)
    c88c:	48 c7 85 48 fd ff ff 	movq   $0x0,-0x2b8(%rbp)
    c893:	00 00 00 00 
    c897:	48 8d 05 1a d4 00 00 	lea    0xd41a(%rip),%rax        # 19cb8 <g_1105>
    c89e:	48 89 85 50 fd ff ff 	mov    %rax,-0x2b0(%rbp)
    c8a5:	48 8d 05 ac ca 00 00 	lea    0xcaac(%rip),%rax        # 19358 <g_614>
    c8ac:	48 89 85 58 fd ff ff 	mov    %rax,-0x2a8(%rbp)
    c8b3:	48 8d 05 b2 14 01 00 	lea    0x114b2(%rip),%rax        # 1dd6c <g_91>
    c8ba:	48 89 85 60 fd ff ff 	mov    %rax,-0x2a0(%rbp)
    c8c1:	48 8d 85 0c f6 ff ff 	lea    -0x9f4(%rbp),%rax
    c8c8:	48 89 85 68 fd ff ff 	mov    %rax,-0x298(%rbp)
    c8cf:	48 c7 85 70 fd ff ff 	movq   $0x0,-0x290(%rbp)
    c8d6:	00 00 00 00 
    c8da:	48 c7 85 78 fd ff ff 	movq   $0x0,-0x288(%rbp)
    c8e1:	00 00 00 00 
    c8e5:	48 8d 85 10 f6 ff ff 	lea    -0x9f0(%rbp),%rax
    c8ec:	48 89 85 80 fd ff ff 	mov    %rax,-0x280(%rbp)
    c8f3:	48 8d 05 36 b7 00 00 	lea    0xb736(%rip),%rax        # 18030 <g_6>
    c8fa:	48 89 85 88 fd ff ff 	mov    %rax,-0x278(%rbp)
    c901:	48 8d 05 50 ca 00 00 	lea    0xca50(%rip),%rax        # 19358 <g_614>
    c908:	48 89 85 90 fd ff ff 	mov    %rax,-0x270(%rbp)
    c90f:	48 8d 05 a2 d3 00 00 	lea    0xd3a2(%rip),%rax        # 19cb8 <g_1105>
    c916:	48 89 85 98 fd ff ff 	mov    %rax,-0x268(%rbp)
    c91d:	48 c7 85 a0 fd ff ff 	movq   $0x0,-0x260(%rbp)
    c924:	00 00 00 00 
    c928:	48 8d 85 1c f6 ff ff 	lea    -0x9e4(%rbp),%rax
    c92f:	48 89 85 a8 fd ff ff 	mov    %rax,-0x258(%rbp)
    c936:	48 c7 85 b0 fd ff ff 	movq   $0x0,-0x250(%rbp)
    c93d:	00 00 00 00 
    c941:	48 8d 85 1c f6 ff ff 	lea    -0x9e4(%rbp),%rax
    c948:	48 89 85 b8 fd ff ff 	mov    %rax,-0x248(%rbp)
    c94f:	48 c7 85 c0 fd ff ff 	movq   $0x0,-0x240(%rbp)
    c956:	00 00 00 00 
    c95a:	48 c7 85 c8 fd ff ff 	movq   $0x0,-0x238(%rbp)
    c961:	00 00 00 00 
    c965:	48 8d 05 4c d3 00 00 	lea    0xd34c(%rip),%rax        # 19cb8 <g_1105>
    c96c:	48 89 85 d0 fd ff ff 	mov    %rax,-0x230(%rbp)
    c973:	48 8d 05 3e d3 00 00 	lea    0xd33e(%rip),%rax        # 19cb8 <g_1105>
    c97a:	48 89 85 d8 fd ff ff 	mov    %rax,-0x228(%rbp)
    c981:	48 c7 85 e0 fd ff ff 	movq   $0x0,-0x220(%rbp)
    c988:	00 00 00 00 
    c98c:	48 8d 05 dd bb 00 00 	lea    0xbbdd(%rip),%rax        # 18570 <g_256>
    c993:	48 89 85 e8 fd ff ff 	mov    %rax,-0x218(%rbp)
    c99a:	48 8d 85 20 f6 ff ff 	lea    -0x9e0(%rbp),%rax
    c9a1:	48 89 85 f0 fd ff ff 	mov    %rax,-0x210(%rbp)
    c9a8:	48 8d 85 18 f6 ff ff 	lea    -0x9e8(%rbp),%rax
    c9af:	48 89 85 f8 fd ff ff 	mov    %rax,-0x208(%rbp)
    c9b6:	48 c7 85 00 fe ff ff 	movq   $0x0,-0x200(%rbp)
    c9bd:	00 00 00 00 
    c9c1:	48 8d 05 a4 13 01 00 	lea    0x113a4(%rip),%rax        # 1dd6c <g_91>
    c9c8:	48 89 85 08 fe ff ff 	mov    %rax,-0x1f8(%rbp)
    c9cf:	48 8d 05 76 c9 00 00 	lea    0xc976(%rip),%rax        # 1934c <g_503+0x4>
    c9d6:	48 89 85 10 fe ff ff 	mov    %rax,-0x1f0(%rbp)
    c9dd:	48 8d 05 74 c9 00 00 	lea    0xc974(%rip),%rax        # 19358 <g_614>
    c9e4:	48 89 85 18 fe ff ff 	mov    %rax,-0x1e8(%rbp)
    c9eb:	48 8d 85 60 f6 ff ff 	lea    -0x9a0(%rbp),%rax
    c9f2:	48 89 85 20 fe ff ff 	mov    %rax,-0x1e0(%rbp)
    c9f9:	48 8d 85 0c f6 ff ff 	lea    -0x9f4(%rbp),%rax
    ca00:	48 89 85 28 fe ff ff 	mov    %rax,-0x1d8(%rbp)
    ca07:	48 8d 85 08 f6 ff ff 	lea    -0x9f8(%rbp),%rax
    ca0e:	48 89 85 30 fe ff ff 	mov    %rax,-0x1d0(%rbp)
    ca15:	48 8d 85 08 f6 ff ff 	lea    -0x9f8(%rbp),%rax
    ca1c:	48 89 85 38 fe ff ff 	mov    %rax,-0x1c8(%rbp)
    ca23:	48 c7 85 40 fe ff ff 	movq   $0x0,-0x1c0(%rbp)
    ca2a:	00 00 00 00 
    ca2e:	48 8d 05 3b bb 00 00 	lea    0xbb3b(%rip),%rax        # 18570 <g_256>
    ca35:	48 89 85 48 fe ff ff 	mov    %rax,-0x1b8(%rbp)
    ca3c:	48 c7 85 50 fe ff ff 	movq   $0x0,-0x1b0(%rbp)
    ca43:	00 00 00 00 
    ca47:	48 8d 05 0a c9 00 00 	lea    0xc90a(%rip),%rax        # 19358 <g_614>
    ca4e:	48 89 85 58 fe ff ff 	mov    %rax,-0x1a8(%rbp)
    ca55:	48 8d 05 f4 c8 00 00 	lea    0xc8f4(%rip),%rax        # 19350 <g_503+0x8>
    ca5c:	48 89 85 60 fe ff ff 	mov    %rax,-0x1a0(%rbp)
    ca63:	48 8d 85 18 f6 ff ff 	lea    -0x9e8(%rbp),%rax
    ca6a:	48 89 85 68 fe ff ff 	mov    %rax,-0x198(%rbp)
    ca71:	48 8d 85 0c f6 ff ff 	lea    -0x9f4(%rbp),%rax
    ca78:	48 89 85 70 fe ff ff 	mov    %rax,-0x190(%rbp)
    ca7f:	48 8d 85 1c f6 ff ff 	lea    -0x9e4(%rbp),%rax
    ca86:	48 89 85 78 fe ff ff 	mov    %rax,-0x188(%rbp)
    ca8d:	48 8d 85 10 f6 ff ff 	lea    -0x9f0(%rbp),%rax
    ca94:	48 89 85 80 fe ff ff 	mov    %rax,-0x180(%rbp)
    ca9b:	48 8d 05 ae c8 00 00 	lea    0xc8ae(%rip),%rax        # 19350 <g_503+0x8>
    caa2:	48 89 85 88 fe ff ff 	mov    %rax,-0x178(%rbp)
    caa9:	48 c7 85 90 fe ff ff 	movq   $0x0,-0x170(%rbp)
    cab0:	00 00 00 00 
    cab4:	48 8d 05 b1 12 01 00 	lea    0x112b1(%rip),%rax        # 1dd6c <g_91>
    cabb:	48 89 85 98 fe ff ff 	mov    %rax,-0x168(%rbp)
    cac2:	48 c7 85 a0 fe ff ff 	movq   $0x0,-0x160(%rbp)
    cac9:	00 00 00 00 
    cacd:	48 8d 05 5c b5 00 00 	lea    0xb55c(%rip),%rax        # 18030 <g_6>
    cad4:	48 89 85 a8 fe ff ff 	mov    %rax,-0x158(%rbp)
    cadb:	48 8d 05 6a c8 00 00 	lea    0xc86a(%rip),%rax        # 1934c <g_503+0x4>
    cae2:	48 89 85 b0 fe ff ff 	mov    %rax,-0x150(%rbp)
    cae9:	48 c7 85 b8 fe ff ff 	movq   $0x0,-0x148(%rbp)
    caf0:	00 00 00 00 
    caf4:	48 8d 85 10 f6 ff ff 	lea    -0x9f0(%rbp),%rax
    cafb:	48 89 85 c0 fe ff ff 	mov    %rax,-0x140(%rbp)
    cb02:	48 c7 85 c8 fe ff ff 	movq   $0x0,-0x138(%rbp)
    cb09:	00 00 00 00 
    cb0d:	48 8d 05 38 c8 00 00 	lea    0xc838(%rip),%rax        # 1934c <g_503+0x4>
    cb14:	48 89 85 d0 fe ff ff 	mov    %rax,-0x130(%rbp)
    cb1b:	48 8d 05 0e b5 00 00 	lea    0xb50e(%rip),%rax        # 18030 <g_6>
    cb22:	48 89 85 d8 fe ff ff 	mov    %rax,-0x128(%rbp)
    cb29:	48 8d 85 18 f6 ff ff 	lea    -0x9e8(%rbp),%rax
    cb30:	48 89 85 e0 fe ff ff 	mov    %rax,-0x120(%rbp)
    cb37:	48 c7 85 e8 fe ff ff 	movq   $0x0,-0x118(%rbp)
    cb3e:	00 00 00 00 
    cb42:	48 8d 85 18 f6 ff ff 	lea    -0x9e8(%rbp),%rax
    cb49:	48 89 85 f0 fe ff ff 	mov    %rax,-0x110(%rbp)
    cb50:	48 8d 85 08 f6 ff ff 	lea    -0x9f8(%rbp),%rax
    cb57:	48 89 85 f8 fe ff ff 	mov    %rax,-0x108(%rbp)
    cb5e:	48 8d 05 f3 c7 00 00 	lea    0xc7f3(%rip),%rax        # 19358 <g_614>
    cb65:	48 89 85 00 ff ff ff 	mov    %rax,-0x100(%rbp)
    cb6c:	48 8d 85 1c f6 ff ff 	lea    -0x9e4(%rbp),%rax
    cb73:	48 89 85 08 ff ff ff 	mov    %rax,-0xf8(%rbp)
    cb7a:	48 8d 05 37 d1 00 00 	lea    0xd137(%rip),%rax        # 19cb8 <g_1105>
    cb81:	48 89 85 10 ff ff ff 	mov    %rax,-0xf0(%rbp)
    cb88:	48 8d 05 c1 c7 00 00 	lea    0xc7c1(%rip),%rax        # 19350 <g_503+0x8>
    cb8f:	48 89 85 18 ff ff ff 	mov    %rax,-0xe8(%rbp)
    cb96:	48 8d 05 d3 b9 00 00 	lea    0xb9d3(%rip),%rax        # 18570 <g_256>
    cb9d:	48 89 85 20 ff ff ff 	mov    %rax,-0xe0(%rbp)
    cba4:	48 8d 05 c1 11 01 00 	lea    0x111c1(%rip),%rax        # 1dd6c <g_91>
    cbab:	48 89 85 28 ff ff ff 	mov    %rax,-0xd8(%rbp)
    cbb2:	48 8d 05 77 b4 00 00 	lea    0xb477(%rip),%rax        # 18030 <g_6>
    cbb9:	48 89 85 30 ff ff ff 	mov    %rax,-0xd0(%rbp)
    cbc0:	48 8d 85 60 f6 ff ff 	lea    -0x9a0(%rbp),%rax
    cbc7:	48 89 85 38 ff ff ff 	mov    %rax,-0xc8(%rbp)
    cbce:	48 8d 05 e3 d0 00 00 	lea    0xd0e3(%rip),%rax        # 19cb8 <g_1105>
    cbd5:	48 89 85 40 ff ff ff 	mov    %rax,-0xc0(%rbp)
    cbdc:	48 8d 85 1c f6 ff ff 	lea    -0x9e4(%rbp),%rax
    cbe3:	48 89 85 48 ff ff ff 	mov    %rax,-0xb8(%rbp)
    cbea:	48 c7 85 50 ff ff ff 	movq   $0x0,-0xb0(%rbp)
    cbf1:	00 00 00 00 
    cbf5:	48 8d 05 3c b4 00 00 	lea    0xb43c(%rip),%rax        # 18038 <g_35>
    cbfc:	48 89 85 58 ff ff ff 	mov    %rax,-0xa8(%rbp)
    cc03:	48 8d 85 18 f6 ff ff 	lea    -0x9e8(%rbp),%rax
    cc0a:	48 89 85 60 ff ff ff 	mov    %rax,-0xa0(%rbp)
    cc11:	48 8d 85 1c f6 ff ff 	lea    -0x9e4(%rbp),%rax
    cc18:	48 89 85 68 ff ff ff 	mov    %rax,-0x98(%rbp)
    cc1f:	48 8d 05 4a b9 00 00 	lea    0xb94a(%rip),%rax        # 18570 <g_256>
    cc26:	48 89 85 70 ff ff ff 	mov    %rax,-0x90(%rbp)
    cc2d:	48 8d 05 fc b3 00 00 	lea    0xb3fc(%rip),%rax        # 18030 <g_6>
    cc34:	48 89 85 78 ff ff ff 	mov    %rax,-0x88(%rbp)
    cc3b:	48 8d 05 0a c7 00 00 	lea    0xc70a(%rip),%rax        # 1934c <g_503+0x4>
    cc42:	48 89 45 80          	mov    %rax,-0x80(%rbp)
    cc46:	48 8d 85 10 f6 ff ff 	lea    -0x9f0(%rbp),%rax
    cc4d:	48 89 45 88          	mov    %rax,-0x78(%rbp)
    cc51:	48 8d 05 f8 c6 00 00 	lea    0xc6f8(%rip),%rax        # 19350 <g_503+0x8>
    cc58:	48 89 45 90          	mov    %rax,-0x70(%rbp)
    cc5c:	48 c7 45 98 00 00 00 	movq   $0x0,-0x68(%rbp)
    cc63:	00 
    cc64:	48 8d 05 01 11 01 00 	lea    0x11101(%rip),%rax        # 1dd6c <g_91>
    cc6b:	48 89 45 a0          	mov    %rax,-0x60(%rbp)
    cc6f:	48 c7 45 a8 00 00 00 	movq   $0x0,-0x58(%rbp)
    cc76:	00 
    cc77:	48 c7 45 b0 00 00 00 	movq   $0x0,-0x50(%rbp)
    cc7e:	00 
    cc7f:	48 8d 05 e6 10 01 00 	lea    0x110e6(%rip),%rax        # 1dd6c <g_91>
    cc86:	48 89 45 b8          	mov    %rax,-0x48(%rbp)
    cc8a:	80 85 ff f5 ff ff 01 	addb   $0x1,-0xa01(%rbp)
    cc91:	0f b7 05 98 d8 00 00 	movzwl 0xd898(%rip),%eax        # 1a530 <g_1994>
    cc98:	83 e8 01             	sub    $0x1,%eax
    cc9b:	66 89 05 8e d8 00 00 	mov    %ax,0xd88e(%rip)        # 1a530 <g_1994>
    cca2:	0f b7 05 87 d8 00 00 	movzwl 0xd887(%rip),%eax        # 1a530 <g_1994>
    cca9:	66 85 c0             	test   %ax,%ax
    ccac:	0f 89 56 f1 ff ff    	jns    be08 <func_1+0x653>
    ccb2:	48 be ed a0 0e 0b 3f 	movabs $0x3b33be3f0b0ea0ed,%rsi
    ccb9:	be 33 3b 
    ccbc:	bf 08 00 00 00       	mov    $0x8,%edi
    ccc1:	e8 31 dd ff ff       	callq  a9f7 <safe_div_func_int64_t_s_s>
    ccc6:	48 85 c0             	test   %rax,%rax
    ccc9:	0f 94 c0             	sete   %al
    cccc:	0f b6 d0             	movzbl %al,%edx
    cccf:	8b 85 fc f7 ff ff    	mov    -0x804(%rbp),%eax
    ccd5:	48 98                	cltq   
    ccd7:	48 89 d6             	mov    %rdx,%rsi
    ccda:	48 89 c7             	mov    %rax,%rdi
    ccdd:	e8 c6 db ff ff       	callq  a8a8 <safe_sub_func_int64_t_s_s>
    cce2:	49 89 c6             	mov    %rax,%r14
    cce5:	8b 05 2d b7 00 00    	mov    0xb72d(%rip),%eax        # 18418 <g_217+0x18>
    cceb:	0f b6 d8             	movzbl %al,%ebx
    ccee:	8b 85 50 f6 ff ff    	mov    -0x9b0(%rbp),%eax
    ccf4:	4c 63 e0             	movslq %eax,%r12
    ccf7:	be 0a 00 00 00       	mov    $0xa,%esi
    ccfc:	bf f6 ff ff ff       	mov    $0xfffffff6,%edi
    cd01:	e8 db d7 ff ff       	callq  a4e1 <safe_lshift_func_int16_t_s_u>
    cd06:	66 83 f8 ff          	cmp    $0xffff,%ax
    cd0a:	0f 84 ae 00 00 00    	je     cdbe <func_1+0x1609>
    cd10:	48 8b 85 78 f6 ff ff 	mov    -0x988(%rbp),%rax
    cd17:	44 0f b7 e8          	movzwl %ax,%r13d
    cd1b:	48 8b 05 b6 05 01 00 	mov    0x105b6(%rip),%rax        # 1d2d8 <g_1577>
    cd22:	48 8b 10             	mov    (%rax),%rdx
    cd25:	48 8b 05 ac 05 01 00 	mov    0x105ac(%rip),%rax        # 1d2d8 <g_1577>
    cd2c:	48 8b 00             	mov    (%rax),%rax
    cd2f:	48 8b 12             	mov    (%rdx),%rdx
    cd32:	48 89 10             	mov    %rdx,(%rax)
    cd35:	4c 8b 38             	mov    (%rax),%r15
    cd38:	8b 85 50 f6 ff ff    	mov    -0x9b0(%rbp),%eax
    cd3e:	0f bf d0             	movswl %ax,%edx
    cd41:	48 8b 85 10 f8 ff ff 	mov    -0x7f0(%rbp),%rax
    cd48:	48 85 c0             	test   %rax,%rax
    cd4b:	75 11                	jne    cd5e <func_1+0x15a9>
    cd4d:	8b 85 50 f6 ff ff    	mov    -0x9b0(%rbp),%eax
    cd53:	48 98                	cltq   
    cd55:	48 39 85 78 f6 ff ff 	cmp    %rax,-0x988(%rbp)
    cd5c:	7f 07                	jg     cd65 <func_1+0x15b0>
    cd5e:	b8 01 00 00 00       	mov    $0x1,%eax
    cd63:	eb 05                	jmp    cd6a <func_1+0x15b5>
    cd65:	b8 00 00 00 00       	mov    $0x0,%eax
    cd6a:	98                   	cwtl   
    cd6b:	89 d6                	mov    %edx,%esi
    cd6d:	89 c7                	mov    %eax,%edi
    cd6f:	e8 5f d6 ff ff       	callq  a3d3 <safe_sub_func_int16_t_s_s>
    cd74:	48 0f bf c0          	movswq %ax,%rax
    cd78:	48 39 85 e8 f6 ff ff 	cmp    %rax,-0x918(%rbp)
    cd7f:	0f 9f c0             	setg   %al
    cd82:	0f b6 c0             	movzbl %al,%eax
    cd85:	48 98                	cltq   
    cd87:	4c 09 f8             	or     %r15,%rax
    cd8a:	48 85 c0             	test   %rax,%rax
    cd8d:	75 09                	jne    cd98 <func_1+0x15e3>
    cd8f:	0f b6 85 70 f8 ff ff 	movzbl -0x790(%rbp),%eax
    cd96:	84 c0                	test   %al,%al
    cd98:	8b 85 4c f6 ff ff    	mov    -0x9b4(%rbp),%eax
    cd9e:	f7 d0                	not    %eax
    cda0:	0f b7 c0             	movzwl %ax,%eax
    cda3:	44 89 ee             	mov    %r13d,%esi
    cda6:	89 c7                	mov    %eax,%edi
    cda8:	e8 90 df ff ff       	callq  ad3d <safe_mul_func_uint16_t_u_u>
    cdad:	48 83 bd e8 f6 ff ff 	cmpq   $0x8,-0x918(%rbp)
    cdb4:	08 
    cdb5:	75 07                	jne    cdbe <func_1+0x1609>
    cdb7:	b8 01 00 00 00       	mov    $0x1,%eax
    cdbc:	eb 05                	jmp    cdc3 <func_1+0x160e>
    cdbe:	b8 00 00 00 00       	mov    $0x0,%eax
    cdc3:	88 05 7b b9 00 00    	mov    %al,0xb97b(%rip)        # 18744 <g_337>
    cdc9:	0f b6 05 74 b9 00 00 	movzbl 0xb974(%rip),%eax        # 18744 <g_337>
    cdd0:	84 c0                	test   %al,%al
    cdd2:	74 10                	je     cde4 <func_1+0x162f>
    cdd4:	80 bd ff f5 ff ff 00 	cmpb   $0x0,-0xa01(%rbp)
    cddb:	74 07                	je     cde4 <func_1+0x162f>
    cddd:	ba 01 00 00 00       	mov    $0x1,%edx
    cde2:	eb 05                	jmp    cde9 <func_1+0x1634>
    cde4:	ba 00 00 00 00       	mov    $0x0,%edx
    cde9:	8b 85 fc f7 ff ff    	mov    -0x804(%rbp),%eax
    cdef:	39 c2                	cmp    %eax,%edx
    cdf1:	0f 9e c0             	setle  %al
    cdf4:	0f b6 c0             	movzbl %al,%eax
    cdf7:	be b2 75 48 96       	mov    $0x964875b2,%esi
    cdfc:	89 c7                	mov    %eax,%edi
    cdfe:	e8 22 e1 ff ff       	callq  af25 <safe_div_func_uint32_t_u_u>
    ce03:	8b 95 3c f6 ff ff    	mov    -0x9c4(%rbp),%edx
    ce09:	39 d0                	cmp    %edx,%eax
    ce0b:	0f 96 c0             	setbe  %al
    ce0e:	0f b6 c0             	movzbl %al,%eax
    ce11:	4c 89 e6             	mov    %r12,%rsi
    ce14:	48 89 c7             	mov    %rax,%rdi
    ce17:	e8 93 e2 ff ff       	callq  b0af <safe_div_func_uint64_t_u_u>
    ce1c:	48 85 c0             	test   %rax,%rax
    ce1f:	75 0a                	jne    ce2b <func_1+0x1676>
    ce21:	48 83 bd e8 f6 ff ff 	cmpq   $0x0,-0x918(%rbp)
    ce28:	00 
    ce29:	74 07                	je     ce32 <func_1+0x167d>
    ce2b:	b8 01 00 00 00       	mov    $0x1,%eax
    ce30:	eb 05                	jmp    ce37 <func_1+0x1682>
    ce32:	b8 00 00 00 00       	mov    $0x0,%eax
    ce37:	3b 85 50 f6 ff ff    	cmp    -0x9b0(%rbp),%eax
    ce3d:	0f 9c c0             	setl   %al
    ce40:	0f b6 d0             	movzbl %al,%edx
    ce43:	48 8b 05 46 04 01 00 	mov    0x10446(%rip),%rax        # 1d290 <g_1388>
    ce4a:	48 8b 00             	mov    (%rax),%rax
    ce4d:	48 8b 00             	mov    (%rax),%rax
    ce50:	31 d0                	xor    %edx,%eax
    ce52:	89 85 40 f6 ff ff    	mov    %eax,-0x9c0(%rbp)
    ce58:	83 bd 40 f6 ff ff 00 	cmpl   $0x0,-0x9c0(%rbp)
    ce5f:	74 07                	je     ce68 <func_1+0x16b3>
    ce61:	b8 01 00 00 00       	mov    $0x1,%eax
    ce66:	eb 05                	jmp    ce6d <func_1+0x16b8>
    ce68:	b8 00 00 00 00       	mov    $0x0,%eax
    ce6d:	48 98                	cltq   
    ce6f:	48 be 71 40 9c 4d 59 	movabs $0x56fb3594d9c4071,%rsi
    ce76:	b3 6f 05 
    ce79:	48 89 c7             	mov    %rax,%rdi
    ce7c:	e8 76 db ff ff       	callq  a9f7 <safe_div_func_int64_t_s_s>
    ce81:	0f b6 c0             	movzbl %al,%eax
    ce84:	89 de                	mov    %ebx,%esi
    ce86:	89 c7                	mov    %eax,%edi
    ce88:	e8 eb dc ff ff       	callq  ab78 <safe_sub_func_uint8_t_u_u>
    ce8d:	0f b6 d0             	movzbl %al,%edx
    ce90:	0f be 85 01 f6 ff ff 	movsbl -0x9ff(%rbp),%eax
    ce97:	39 c2                	cmp    %eax,%edx
    ce99:	0f 9c c0             	setl   %al
    ce9c:	0f b6 c0             	movzbl %al,%eax
    ce9f:	4c 21 f0             	and    %r14,%rax
    cea2:	be 01 00 00 00       	mov    $0x1,%esi
    cea7:	48 89 c7             	mov    %rax,%rdi
    ceaa:	e8 d1 e1 ff ff       	callq  b080 <safe_mod_func_uint64_t_u_u>
    ceaf:	89 c3                	mov    %eax,%ebx
    ceb1:	48 8b 85 e0 f6 ff ff 	mov    -0x920(%rbp),%rax
    ceb8:	0f b6 00             	movzbl (%rax),%eax
    cebb:	8d 50 01             	lea    0x1(%rax),%edx
    cebe:	48 8b 85 e0 f6 ff ff 	mov    -0x920(%rbp),%rax
    cec5:	88 10                	mov    %dl,(%rax)
    cec7:	48 8b 85 e0 f6 ff ff 	mov    -0x920(%rbp),%rax
    cece:	0f b6 00             	movzbl (%rax),%eax
    ced1:	0f be d0             	movsbl %al,%edx
    ced4:	8b 85 18 f6 ff ff    	mov    -0x9e8(%rbp),%eax
    ceda:	0f be c0             	movsbl %al,%eax
    cedd:	89 d6                	mov    %edx,%esi
    cedf:	89 c7                	mov    %eax,%edi
    cee1:	e8 2c d3 ff ff       	callq  a212 <safe_mul_func_int8_t_s_s>
    cee6:	66 98                	cbtw   
    cee8:	0f b7 c0             	movzwl %ax,%eax
    ceeb:	be 03 00 00 00       	mov    $0x3,%esi
    cef0:	89 c7                	mov    %eax,%edi
    cef2:	e8 83 df ff ff       	callq  ae7a <safe_rshift_func_uint16_t_u_u>
    cef7:	0f b7 c0             	movzwl %ax,%eax
    cefa:	89 de                	mov    %ebx,%esi
    cefc:	89 c7                	mov    %eax,%edi
    cefe:	e8 b3 d6 ff ff       	callq  a5b6 <safe_add_func_int32_t_s_s>
    cf03:	48 8b 05 56 f0 00 00 	mov    0xf056(%rip),%rax        # 1bf60 <g_110>
    cf0a:	8b 00                	mov    (%rax),%eax
    cf0c:	35 0e d3 4c 3c       	xor    $0x3c4cd30e,%eax
    cf11:	89 c1                	mov    %eax,%ecx
    cf13:	0f be 95 01 f6 ff ff 	movsbl -0x9ff(%rbp),%edx
    cf1a:	48 8b 05 3f f0 00 00 	mov    0xf03f(%rip),%rax        # 1bf60 <g_110>
    cf21:	31 ca                	xor    %ecx,%edx
    cf23:	89 10                	mov    %edx,(%rax)
    cf25:	48 8b 05 dc 04 01 00 	mov    0x104dc(%rip),%rax        # 1d408 <g_1926>
    cf2c:	48 8b 10             	mov    (%rax),%rdx
    cf2f:	48 8b 85 f0 f6 ff ff 	mov    -0x910(%rbp),%rax
    cf36:	48 89 10             	mov    %rdx,(%rax)
    cf39:	e9 9b 03 00 00       	jmpq   d2d9 <func_1+0x1b24>
    cf3e:	48 c7 85 60 f6 ff ff 	movq   $0x0,-0x9a0(%rbp)
    cf45:	00 00 00 00 
    cf49:	48 8d 85 60 f6 ff ff 	lea    -0x9a0(%rbp),%rax
    cf50:	48 89 85 e0 f8 ff ff 	mov    %rax,-0x720(%rbp)
    cf57:	48 8d 85 60 f6 ff ff 	lea    -0x9a0(%rbp),%rax
    cf5e:	48 89 85 e8 f8 ff ff 	mov    %rax,-0x718(%rbp)
    cf65:	48 8d 85 60 f6 ff ff 	lea    -0x9a0(%rbp),%rax
    cf6c:	48 89 85 f0 f8 ff ff 	mov    %rax,-0x710(%rbp)
    cf73:	48 8d 85 60 f6 ff ff 	lea    -0x9a0(%rbp),%rax
    cf7a:	48 89 85 f8 f8 ff ff 	mov    %rax,-0x708(%rbp)
    cf81:	48 8d 85 60 f6 ff ff 	lea    -0x9a0(%rbp),%rax
    cf88:	48 89 85 00 f9 ff ff 	mov    %rax,-0x700(%rbp)
    cf8f:	48 8d 85 60 f6 ff ff 	lea    -0x9a0(%rbp),%rax
    cf96:	48 89 85 08 f9 ff ff 	mov    %rax,-0x6f8(%rbp)
    cf9d:	48 8d 85 60 f6 ff ff 	lea    -0x9a0(%rbp),%rax
    cfa4:	48 89 85 10 f9 ff ff 	mov    %rax,-0x6f0(%rbp)
    cfab:	48 8d 85 60 f6 ff ff 	lea    -0x9a0(%rbp),%rax
    cfb2:	48 89 85 18 f9 ff ff 	mov    %rax,-0x6e8(%rbp)
    cfb9:	48 8d 85 60 f6 ff ff 	lea    -0x9a0(%rbp),%rax
    cfc0:	48 89 85 20 f9 ff ff 	mov    %rax,-0x6e0(%rbp)
    cfc7:	48 8d 85 60 f6 ff ff 	lea    -0x9a0(%rbp),%rax
    cfce:	48 89 85 28 f9 ff ff 	mov    %rax,-0x6d8(%rbp)
    cfd5:	48 8b 85 e0 f8 ff ff 	mov    -0x720(%rbp),%rax
    cfdc:	48 8b 95 e8 f8 ff ff 	mov    -0x718(%rbp),%rdx
    cfe3:	48 89 85 90 f8 ff ff 	mov    %rax,-0x770(%rbp)
    cfea:	48 89 95 98 f8 ff ff 	mov    %rdx,-0x768(%rbp)
    cff1:	48 8b 85 f0 f8 ff ff 	mov    -0x710(%rbp),%rax
    cff8:	48 8b 95 f8 f8 ff ff 	mov    -0x708(%rbp),%rdx
    cfff:	48 89 85 a0 f8 ff ff 	mov    %rax,-0x760(%rbp)
    d006:	48 89 95 a8 f8 ff ff 	mov    %rdx,-0x758(%rbp)
    d00d:	48 8b 85 00 f9 ff ff 	mov    -0x700(%rbp),%rax
    d014:	48 8b 95 08 f9 ff ff 	mov    -0x6f8(%rbp),%rdx
    d01b:	48 89 85 b0 f8 ff ff 	mov    %rax,-0x750(%rbp)
    d022:	48 89 95 b8 f8 ff ff 	mov    %rdx,-0x748(%rbp)
    d029:	48 8b 85 10 f9 ff ff 	mov    -0x6f0(%rbp),%rax
    d030:	48 8b 95 18 f9 ff ff 	mov    -0x6e8(%rbp),%rdx
    d037:	48 89 85 c0 f8 ff ff 	mov    %rax,-0x740(%rbp)
    d03e:	48 89 95 c8 f8 ff ff 	mov    %rdx,-0x738(%rbp)
    d045:	48 8b 85 20 f9 ff ff 	mov    -0x6e0(%rbp),%rax
    d04c:	48 8b 95 28 f9 ff ff 	mov    -0x6d8(%rbp),%rdx
    d053:	48 89 85 d0 f8 ff ff 	mov    %rax,-0x730(%rbp)
    d05a:	48 89 95 d8 f8 ff ff 	mov    %rdx,-0x728(%rbp)
    d061:	48 8d 05 e4 c2 00 00 	lea    0xc2e4(%rip),%rax        # 1934c <g_503+0x4>
    d068:	48 89 85 b8 f6 ff ff 	mov    %rax,-0x948(%rbp)
    d06f:	48 8d 05 fa b4 00 00 	lea    0xb4fa(%rip),%rax        # 18570 <g_256>
    d076:	48 89 85 c0 f6 ff ff 	mov    %rax,-0x940(%rbp)
    d07d:	48 8d 85 14 f6 ff ff 	lea    -0x9ec(%rbp),%rax
    d084:	48 89 85 c8 f6 ff ff 	mov    %rax,-0x938(%rbp)
    d08b:	48 8d 05 be c2 00 00 	lea    0xc2be(%rip),%rax        # 19350 <g_503+0x8>
    d092:	48 89 85 d0 f6 ff ff 	mov    %rax,-0x930(%rbp)
    d099:	c7 85 30 f6 ff ff 00 	movl   $0x0,-0x9d0(%rbp)
    d0a0:	00 00 00 
    d0a3:	eb 1b                	jmp    d0c0 <func_1+0x190b>
    d0a5:	8b 85 30 f6 ff ff    	mov    -0x9d0(%rbp),%eax
    d0ab:	48 98                	cltq   
    d0ad:	48 c7 84 c5 d8 f7 ff 	movq   $0x0,-0x828(%rbp,%rax,8)
    d0b4:	ff 00 00 00 00 
    d0b9:	83 85 30 f6 ff ff 01 	addl   $0x1,-0x9d0(%rbp)
    d0c0:	83 bd 30 f6 ff ff 00 	cmpl   $0x0,-0x9d0(%rbp)
    d0c7:	7e dc                	jle    d0a5 <func_1+0x18f0>
    d0c9:	c7 85 30 f6 ff ff 00 	movl   $0x0,-0x9d0(%rbp)
    d0d0:	00 00 00 
    d0d3:	eb 1a                	jmp    d0ef <func_1+0x193a>
    d0d5:	8b 85 30 f6 ff ff    	mov    -0x9d0(%rbp),%eax
    d0db:	48 98                	cltq   
    d0dd:	c7 84 85 f0 f7 ff ff 	movl   $0xffffffff,-0x810(%rbp,%rax,4)
    d0e4:	ff ff ff ff 
    d0e8:	83 85 30 f6 ff ff 01 	addl   $0x1,-0x9d0(%rbp)
    d0ef:	83 bd 30 f6 ff ff 02 	cmpl   $0x2,-0x9d0(%rbp)
    d0f6:	7e dd                	jle    d0d5 <func_1+0x1920>
    d0f8:	c6 85 ff f5 ff ff 02 	movb   $0x2,-0xa01(%rbp)
    d0ff:	e9 a4 01 00 00       	jmpq   d2a8 <func_1+0x1af3>
    d104:	48 8b 05 1d 0d 01 00 	mov    0x10d1d(%rip),%rax        # 1de28 <g_2090>
    d10b:	48 89 85 b0 f8 ff ff 	mov    %rax,-0x750(%rbp)
    d112:	48 c7 05 fb 0c 01 00 	movq   $0x0,0x10cfb(%rip)        # 1de18 <g_1480>
    d119:	00 00 00 00 
    d11d:	e9 6e 01 00 00       	jmpq   d290 <func_1+0x1adb>
    d122:	48 8b 05 ef 0c 01 00 	mov    0x10cef(%rip),%rax        # 1de18 <g_1480>
    d129:	48 8d 50 05          	lea    0x5(%rax),%rdx
    d12d:	48 8d 05 a4 cb 00 00 	lea    0xcba4(%rip),%rax        # 19cd8 <g_1376>
    d134:	0f b6 04 02          	movzbl (%rdx,%rax,1),%eax
    d138:	84 c0                	test   %al,%al
    d13a:	0f 84 b5 00 00 00    	je     d1f5 <func_1+0x1a40>
    d140:	48 8b 05 d1 0c 01 00 	mov    0x10cd1(%rip),%rax        # 1de18 <g_1480>
    d147:	48 8d 15 8a cb 00 00 	lea    0xcb8a(%rip),%rdx        # 19cd8 <g_1376>
    d14e:	0f b6 04 10          	movzbl (%rax,%rdx,1),%eax
    d152:	0f be d8             	movsbl %al,%ebx
    d155:	48 8b 85 a8 f6 ff ff 	mov    -0x958(%rbp),%rax
    d15c:	48 89 05 ad 02 01 00 	mov    %rax,0x102ad(%rip)        # 1d410 <g_2007>
    d163:	48 8b 05 a6 02 01 00 	mov    0x102a6(%rip),%rax        # 1d410 <g_2007>
    d16a:	48 85 c0             	test   %rax,%rax
    d16d:	0f 95 c0             	setne  %al
    d170:	0f b6 d0             	movzbl %al,%edx
    d173:	48 8b 05 9e 0c 01 00 	mov    0x10c9e(%rip),%rax        # 1de18 <g_1480>
    d17a:	48 8d 48 05          	lea    0x5(%rax),%rcx
    d17e:	48 8d 05 53 cb 00 00 	lea    0xcb53(%rip),%rax        # 19cd8 <g_1376>
    d185:	0f b6 04 01          	movzbl (%rcx,%rax,1),%eax
    d189:	0f be c0             	movsbl %al,%eax
    d18c:	89 d6                	mov    %edx,%esi
    d18e:	89 c7                	mov    %eax,%edi
    d190:	e8 3b dd ff ff       	callq  aed0 <safe_sub_func_uint32_t_u_u>
    d195:	8b 95 3c f6 ff ff    	mov    -0x9c4(%rbp),%edx
    d19b:	39 d0                	cmp    %edx,%eax
    d19d:	0f 97 c0             	seta   %al
    d1a0:	0f b6 d0             	movzbl %al,%edx
    d1a3:	8b 05 db 75 00 00    	mov    0x75db(%rip),%eax        # 14784 <l_2098.4326+0x84>
    d1a9:	98                   	cwtl   
    d1aa:	89 d6                	mov    %edx,%esi
    d1ac:	89 c7                	mov    %eax,%edi
    d1ae:	e8 20 d2 ff ff       	callq  a3d3 <safe_sub_func_int16_t_s_s>
    d1b3:	48 8b 95 90 f6 ff ff 	mov    -0x970(%rbp),%rdx
    d1ba:	66 89 02             	mov    %ax,(%rdx)
    d1bd:	48 8b 85 90 f6 ff ff 	mov    -0x970(%rbp),%rax
    d1c4:	0f b7 00             	movzwl (%rax),%eax
    d1c7:	98                   	cwtl   
    d1c8:	31 d8                	xor    %ebx,%eax
    d1ca:	89 c1                	mov    %eax,%ecx
    d1cc:	0f b6 85 ff f5 ff ff 	movzbl -0xa01(%rbp),%eax
    d1d3:	48 98                	cltq   
    d1d5:	48 8d 15 fc ca 00 00 	lea    0xcafc(%rip),%rdx        # 19cd8 <g_1376>
    d1dc:	0f b6 04 10          	movzbl (%rax,%rdx,1),%eax
    d1e0:	66 98                	cbtw   
    d1e2:	0f b7 c0             	movzwl %ax,%eax
    d1e5:	89 ce                	mov    %ecx,%esi
    d1e7:	89 c7                	mov    %eax,%edi
    d1e9:	e8 18 dc ff ff       	callq  ae06 <safe_lshift_func_uint16_t_u_u>
    d1ee:	b9 01 00 00 00       	mov    $0x1,%ecx
    d1f3:	eb 05                	jmp    d1fa <func_1+0x1a45>
    d1f5:	b9 00 00 00 00       	mov    $0x0,%ecx
    d1fa:	48 8b 05 6f ed 00 00 	mov    0xed6f(%rip),%rax        # 1bf70 <g_131>
    d201:	8b 10                	mov    (%rax),%edx
    d203:	48 8b 05 66 ed 00 00 	mov    0xed66(%rip),%rax        # 1bf70 <g_131>
    d20a:	31 ca                	xor    %ecx,%edx
    d20c:	89 10                	mov    %edx,(%rax)
    d20e:	66 c7 05 25 ae 00 00 	movw   $0x0,0xae25(%rip)        # 1803c <g_64>
    d215:	00 00 
    d217:	90                   	nop
    d218:	0f b7 05 1d ae 00 00 	movzwl 0xae1d(%rip),%eax        # 1803c <g_64>
    d21f:	66 83 f8 01          	cmp    $0x1,%ax
    d223:	77 59                	ja     d27e <func_1+0x1ac9>
    d225:	48 8d 05 0c 00 01 00 	lea    0x1000c(%rip),%rax        # 1d238 <g_705+0x18>
    d22c:	48 89 85 d8 f6 ff ff 	mov    %rax,-0x928(%rbp)
    d233:	c7 85 34 f6 ff ff 00 	movl   $0x0,-0x9cc(%rbp)
    d23a:	00 00 00 
    d23d:	eb 19                	jmp    d258 <func_1+0x1aa3>
    d23f:	8b 85 34 f6 ff ff    	mov    -0x9cc(%rbp),%eax
    d245:	48 98                	cltq   
    d247:	66 c7 84 45 30 f9 ff 	movw   $0x2e11,-0x6d0(%rbp,%rax,2)
    d24e:	ff 11 2e 
    d251:	83 85 34 f6 ff ff 01 	addl   $0x1,-0x9cc(%rbp)
    d258:	83 bd 34 f6 ff ff 09 	cmpl   $0x9,-0x9cc(%rbp)
    d25f:	7e de                	jle    d23f <func_1+0x1a8a>
    d261:	48 8b 15 a0 a3 00 00 	mov    0xa3a0(%rip),%rdx        # 17608 <l_2102.4229+0x8>
    d268:	48 8b 85 d8 f6 ff ff 	mov    -0x928(%rbp),%rax
    d26f:	48 89 10             	mov    %rdx,(%rax)
    d272:	0f b7 85 3e f9 ff ff 	movzwl -0x6c2(%rbp),%eax
    d279:	e9 81 00 00 00       	jmpq   d2ff <func_1+0x1b4a>
    d27e:	48 8b 05 93 0b 01 00 	mov    0x10b93(%rip),%rax        # 1de18 <g_1480>
    d285:	48 83 c0 01          	add    $0x1,%rax
    d289:	48 89 05 88 0b 01 00 	mov    %rax,0x10b88(%rip)        # 1de18 <g_1480>
    d290:	48 8b 05 81 0b 01 00 	mov    0x10b81(%rip),%rax        # 1de18 <g_1480>
    d297:	48 83 f8 03          	cmp    $0x3,%rax
    d29b:	0f 86 81 fe ff ff    	jbe    d122 <func_1+0x196d>
    d2a1:	80 85 ff f5 ff ff 01 	addb   $0x1,-0xa01(%rbp)
    d2a8:	80 bd ff f5 ff ff 08 	cmpb   $0x8,-0xa01(%rbp)
    d2af:	0f 86 4f fe ff ff    	jbe    d104 <func_1+0x194f>
    d2b5:	48 8b 05 a4 ec 00 00 	mov    0xeca4(%rip),%rax        # 1bf60 <g_110>
    d2bc:	8b 00                	mov    (%rax),%eax
    d2be:	85 c0                	test   %eax,%eax
    d2c0:	75 36                	jne    d2f8 <func_1+0x1b43>
    d2c2:	48 83 85 b0 f6 ff ff 	addq   $0x1,-0x950(%rbp)
    d2c9:	01 
    d2ca:	8b 85 e8 f7 ff ff    	mov    -0x818(%rbp),%eax
    d2d0:	83 c0 01             	add    $0x1,%eax
    d2d3:	89 85 e8 f7 ff ff    	mov    %eax,-0x818(%rbp)
    d2d9:	0f b6 05 d2 ad 00 00 	movzbl 0xadd2(%rip),%eax        # 180b2 <g_134>
    d2e0:	83 e8 01             	sub    $0x1,%eax
    d2e3:	88 05 c9 ad 00 00    	mov    %al,0xadc9(%rip)        # 180b2 <g_134>
    d2e9:	0f b6 05 c2 ad 00 00 	movzbl 0xadc2(%rip),%eax        # 180b2 <g_134>
    d2f0:	3c ff                	cmp    $0xff,%al
    d2f2:	0f 8c 69 e9 ff ff    	jl     bc61 <func_1+0x4ac>
    d2f8:	0f b6 85 ff f5 ff ff 	movzbl -0xa01(%rbp),%eax
    d2ff:	48 8b 4d c8          	mov    -0x38(%rbp),%rcx
    d303:	64 48 33 0c 25 28 00 	xor    %fs:0x28,%rcx
    d30a:	00 00 
    d30c:	74 05                	je     d313 <func_1+0x1b5e>
    d30e:	e8 5d cd ff ff       	callq  a070 <__stack_chk_fail@plt>
    d313:	48 81 c4 e8 09 00 00 	add    $0x9e8,%rsp
    d31a:	5b                   	pop    %rbx
    d31b:	41 5c                	pop    %r12
    d31d:	41 5d                	pop    %r13
    d31f:	41 5e                	pop    %r14
    d321:	41 5f                	pop    %r15
    d323:	5d                   	pop    %rbp
    d324:	c3                   	retq   

000000000000d325 <func_9>:
    d325:	f3 0f 1e fa          	endbr64 
    d329:	55                   	push   %rbp
    d32a:	48 89 e5             	mov    %rsp,%rbp
    d32d:	41 56                	push   %r14
    d32f:	41 55                	push   %r13
    d331:	41 54                	push   %r12
    d333:	53                   	push   %rbx
    d334:	48 81 ec d0 00 00 00 	sub    $0xd0,%rsp
    d33b:	89 f8                	mov    %edi,%eax
    d33d:	66 89 85 1c ff ff ff 	mov    %ax,-0xe4(%rbp)
    d344:	64 48 8b 04 25 28 00 	mov    %fs:0x28,%rax
    d34b:	00 00 
    d34d:	48 89 45 d8          	mov    %rax,-0x28(%rbp)
    d351:	31 c0                	xor    %eax,%eax
    d353:	c6 85 2b ff ff ff ff 	movb   $0xff,-0xd5(%rbp)
    d35a:	48 c7 85 38 ff ff ff 	movq   $0x0,-0xc8(%rbp)
    d361:	00 00 00 00 
    d365:	48 8d 85 38 ff ff ff 	lea    -0xc8(%rbp),%rax
    d36c:	48 89 45 80          	mov    %rax,-0x80(%rbp)
    d370:	48 8d 85 38 ff ff ff 	lea    -0xc8(%rbp),%rax
    d377:	48 89 45 88          	mov    %rax,-0x78(%rbp)
    d37b:	48 8d 85 38 ff ff ff 	lea    -0xc8(%rbp),%rax
    d382:	48 89 45 90          	mov    %rax,-0x70(%rbp)
    d386:	48 8d 85 38 ff ff ff 	lea    -0xc8(%rbp),%rax
    d38d:	48 89 45 98          	mov    %rax,-0x68(%rbp)
    d391:	48 8d 85 38 ff ff ff 	lea    -0xc8(%rbp),%rax
    d398:	48 89 45 a0          	mov    %rax,-0x60(%rbp)
    d39c:	48 8d 85 38 ff ff ff 	lea    -0xc8(%rbp),%rax
    d3a3:	48 89 45 a8          	mov    %rax,-0x58(%rbp)
    d3a7:	48 8d 85 38 ff ff ff 	lea    -0xc8(%rbp),%rax
    d3ae:	48 89 45 b0          	mov    %rax,-0x50(%rbp)
    d3b2:	48 8d 85 38 ff ff ff 	lea    -0xc8(%rbp),%rax
    d3b9:	48 89 45 b8          	mov    %rax,-0x48(%rbp)
    d3bd:	48 8d 85 38 ff ff ff 	lea    -0xc8(%rbp),%rax
    d3c4:	48 89 45 c0          	mov    %rax,-0x40(%rbp)
    d3c8:	48 8d 85 38 ff ff ff 	lea    -0xc8(%rbp),%rax
    d3cf:	48 89 45 c8          	mov    %rax,-0x38(%rbp)
    d3d3:	48 c7 85 40 ff ff ff 	movq   $0x0,-0xc0(%rbp)
    d3da:	00 00 00 00 
    d3de:	c7 85 30 ff ff ff 6e 	movl   $0xfd1e856e,-0xd0(%rbp)
    d3e5:	85 1e fd 
    d3e8:	48 8d 05 71 ac 00 00 	lea    0xac71(%rip),%rax        # 18060 <g_95>
    d3ef:	48 89 85 50 ff ff ff 	mov    %rax,-0xb0(%rbp)
    d3f6:	48 8d 05 63 ac 00 00 	lea    0xac63(%rip),%rax        # 18060 <g_95>
    d3fd:	48 89 85 58 ff ff ff 	mov    %rax,-0xa8(%rbp)
    d404:	48 8d 05 55 ac 00 00 	lea    0xac55(%rip),%rax        # 18060 <g_95>
    d40b:	48 89 85 60 ff ff ff 	mov    %rax,-0xa0(%rbp)
    d412:	48 8d 05 47 ac 00 00 	lea    0xac47(%rip),%rax        # 18060 <g_95>
    d419:	48 89 85 68 ff ff ff 	mov    %rax,-0x98(%rbp)
    d420:	48 8d 05 39 ac 00 00 	lea    0xac39(%rip),%rax        # 18060 <g_95>
    d427:	48 89 85 70 ff ff ff 	mov    %rax,-0x90(%rbp)
    d42e:	48 8d 05 2b ac 00 00 	lea    0xac2b(%rip),%rax        # 18060 <g_95>
    d435:	48 89 85 78 ff ff ff 	mov    %rax,-0x88(%rbp)
    d43c:	c7 85 34 ff ff ff b7 	movl   $0x89c28ab7,-0xcc(%rbp)
    d443:	8a c2 89 
    d446:	c7 85 2c ff ff ff 00 	movl   $0x0,-0xd4(%rbp)
    d44d:	00 00 00 
    d450:	eb 1a                	jmp    d46c <func_9+0x147>
    d452:	8b 85 2c ff ff ff    	mov    -0xd4(%rbp),%eax
    d458:	48 98                	cltq   
    d45a:	c7 84 85 4c ff ff ff 	movl   $0x0,-0xb4(%rbp,%rax,4)
    d461:	00 00 00 00 
    d465:	83 85 2c ff ff ff 01 	addl   $0x1,-0xd4(%rbp)
    d46c:	83 bd 2c ff ff ff 00 	cmpl   $0x0,-0xd4(%rbp)
    d473:	7e dd                	jle    d452 <func_9+0x12d>
    d475:	0f be 9d 2b ff ff ff 	movsbl -0xd5(%rbp),%ebx
    d47c:	44 0f bf a5 1c ff ff 	movswl -0xe4(%rbp),%r12d
    d483:	ff 
    d484:	48 8b 05 dd ea 00 00 	mov    0xeadd(%rip),%rax        # 1bf68 <g_129>
    d48b:	0f b7 00             	movzwl (%rax),%eax
    d48e:	44 0f b7 e8          	movzwl %ax,%r13d
    d492:	48 8b 05 3f fe 00 00 	mov    0xfe3f(%rip),%rax        # 1d2d8 <g_1577>
    d499:	48 8b 10             	mov    (%rax),%rdx
    d49c:	48 8b 02             	mov    (%rdx),%rax
    d49f:	48 8d 48 ff          	lea    -0x1(%rax),%rcx
    d4a3:	48 89 0a             	mov    %rcx,(%rdx)
    d4a6:	48 85 c0             	test   %rax,%rax
    d4a9:	74 36                	je     d4e1 <func_9+0x1bc>
    d4ab:	0f be 95 2b ff ff ff 	movsbl -0xd5(%rbp),%edx
    d4b2:	0f b7 85 1c ff ff ff 	movzwl -0xe4(%rbp),%eax
    d4b9:	0f be c0             	movsbl %al,%eax
    d4bc:	89 d6                	mov    %edx,%esi
    d4be:	89 c7                	mov    %eax,%edi
    d4c0:	e8 dc cd ff ff       	callq  a2a1 <safe_lshift_func_int8_t_s_s>
    d4c5:	0f be c0             	movsbl %al,%eax
    d4c8:	be ca 67 00 00       	mov    $0x67ca,%esi
    d4cd:	89 c7                	mov    %eax,%edi
    d4cf:	e8 df ce ff ff       	callq  a3b3 <safe_add_func_int16_t_s_s>
    d4d4:	66 85 c0             	test   %ax,%ax
    d4d7:	74 08                	je     d4e1 <func_9+0x1bc>
    d4d9:	41 be 01 00 00 00    	mov    $0x1,%r14d
    d4df:	eb 06                	jmp    d4e7 <func_9+0x1c2>
    d4e1:	41 be 00 00 00 00    	mov    $0x0,%r14d
    d4e7:	48 0f bf 95 1c ff ff 	movswq -0xe4(%rbp),%rdx
    d4ee:	ff 
    d4ef:	48 0f bf 85 1c ff ff 	movswq -0xe4(%rbp),%rax
    d4f6:	ff 
    d4f7:	48 89 d6             	mov    %rdx,%rsi
    d4fa:	48 89 c7             	mov    %rax,%rdi
    d4fd:	e8 a6 d3 ff ff       	callq  a8a8 <safe_sub_func_int64_t_s_s>
    d502:	44 89 f6             	mov    %r14d,%esi
    d505:	89 c7                	mov    %eax,%edi
    d507:	e8 f3 d1 ff ff       	callq  a6ff <safe_div_func_int32_t_s_s>
    d50c:	85 c0                	test   %eax,%eax
    d50e:	74 16                	je     d526 <func_9+0x201>
    d510:	48 8b 05 b9 fd 00 00 	mov    0xfdb9(%rip),%rax        # 1d2d0 <g_1578>
    d517:	48 8b 00             	mov    (%rax),%rax
    d51a:	48 85 c0             	test   %rax,%rax
    d51d:	74 07                	je     d526 <func_9+0x201>
    d51f:	b8 01 00 00 00       	mov    $0x1,%eax
    d524:	eb 05                	jmp    d52b <func_9+0x206>
    d526:	b8 00 00 00 00       	mov    $0x0,%eax
    d52b:	98                   	cwtl   
    d52c:	be 06 00 00 00       	mov    $0x6,%esi
    d531:	89 c7                	mov    %eax,%edi
    d533:	e8 5a cf ff ff       	callq  a492 <safe_lshift_func_int16_t_s_s>
    d538:	98                   	cwtl   
    d539:	39 85 34 ff ff ff    	cmp    %eax,-0xcc(%rbp)
    d53f:	7f 08                	jg     d549 <func_9+0x224>
    d541:	66 83 bd 1c ff ff ff 	cmpw   $0x0,-0xe4(%rbp)
    d548:	00 
    d549:	48 8b 05 18 ea 00 00 	mov    0xea18(%rip),%rax        # 1bf68 <g_129>
    d550:	0f b7 00             	movzwl (%rax),%eax
    d553:	0f b7 d0             	movzwl %ax,%edx
    d556:	48 8b 85 58 ff ff ff 	mov    -0xa8(%rbp),%rax
    d55d:	48 85 c0             	test   %rax,%rax
    d560:	0f 95 c0             	setne  %al
    d563:	0f b6 c0             	movzbl %al,%eax
    d566:	89 d6                	mov    %edx,%esi
    d568:	89 c7                	mov    %eax,%edi
    d56a:	e8 ed d7 ff ff       	callq  ad5c <safe_mod_func_uint16_t_u_u>
    d56f:	0f b7 d0             	movzwl %ax,%edx
    d572:	8b 05 ac aa 00 00    	mov    0xaaac(%rip),%eax        # 18024 <g_2>
    d578:	39 c2                	cmp    %eax,%edx
    d57a:	0f 94 c0             	sete   %al
    d57d:	0f b6 d0             	movzbl %al,%edx
    d580:	0f bf 85 1c ff ff ff 	movswl -0xe4(%rbp),%eax
    d587:	39 c2                	cmp    %eax,%edx
    d589:	0f 94 c0             	sete   %al
    d58c:	0f b6 c0             	movzbl %al,%eax
    d58f:	89 85 34 ff ff ff    	mov    %eax,-0xcc(%rbp)
    d595:	8b 85 34 ff ff ff    	mov    -0xcc(%rbp),%eax
    d59b:	0f b7 c0             	movzwl %ax,%eax
    d59e:	44 89 ee             	mov    %r13d,%esi
    d5a1:	89 c7                	mov    %eax,%edi
    d5a3:	e8 e6 d7 ff ff       	callq  ad8e <safe_div_func_uint16_t_u_u>
    d5a8:	0f be d0             	movsbl %al,%edx
    d5ab:	0f bf 85 1c ff ff ff 	movswl -0xe4(%rbp),%eax
    d5b2:	09 85 30 ff ff ff    	or     %eax,-0xd0(%rbp)
    d5b8:	8b 85 30 ff ff ff    	mov    -0xd0(%rbp),%eax
    d5be:	0f be c0             	movsbl %al,%eax
    d5c1:	89 d6                	mov    %edx,%esi
    d5c3:	89 c7                	mov    %eax,%edi
    d5c5:	e8 67 cc ff ff       	callq  a231 <safe_mod_func_int8_t_s_s>
    d5ca:	48 0f be d0          	movsbq %al,%rdx
    d5ce:	48 8b 85 38 ff ff ff 	mov    -0xc8(%rbp),%rax
    d5d5:	48 89 05 2c fe 00 00 	mov    %rax,0xfe2c(%rip)        # 1d408 <g_1926>
    d5dc:	48 8b 05 25 fe 00 00 	mov    0xfe25(%rip),%rax        # 1d408 <g_1926>
    d5e3:	48 39 85 40 ff ff ff 	cmp    %rax,-0xc0(%rbp)
    d5ea:	0f 95 c0             	setne  %al
    d5ed:	0f b6 c0             	movzbl %al,%eax
    d5f0:	48 89 d6             	mov    %rdx,%rsi
    d5f3:	48 89 c7             	mov    %rax,%rdi
    d5f6:	e8 50 da ff ff       	callq  b04b <safe_sub_func_uint64_t_u_u>
    d5fb:	44 89 e6             	mov    %r12d,%esi
    d5fe:	bf fe ff ff ff       	mov    $0xfffffffe,%edi
    d603:	e8 ed cd ff ff       	callq  a3f5 <safe_mul_func_int16_t_s_s>
    d608:	0f b7 d0             	movzwl %ax,%edx
    d60b:	66 0f be 85 2b ff ff 	movsbw -0xd5(%rbp),%ax
    d612:	ff 
    d613:	0f b7 c0             	movzwl %ax,%eax
    d616:	89 d6                	mov    %edx,%esi
    d618:	89 c7                	mov    %eax,%edi
    d61a:	e8 3d d7 ff ff       	callq  ad5c <safe_mod_func_uint16_t_u_u>
    d61f:	34 c9                	xor    $0xc9,%al
    d621:	0f b7 c0             	movzwl %ax,%eax
    d624:	89 de                	mov    %ebx,%esi
    d626:	89 c7                	mov    %eax,%edi
    d628:	e8 a3 d8 ff ff       	callq  aed0 <safe_sub_func_uint32_t_u_u>
    d62d:	48 8d 15 3c e9 00 00 	lea    0xe93c(%rip),%rdx        # 1bf70 <g_131>
    d634:	48 8b 12             	mov    (%rdx),%rdx
    d637:	8b 12                	mov    (%rdx),%edx
    d639:	39 d0                	cmp    %edx,%eax
    d63b:	0f 94 c0             	sete   %al
    d63e:	0f b6 d0             	movzbl %al,%edx
    d641:	8b 85 4c ff ff ff    	mov    -0xb4(%rbp),%eax
    d647:	09 d0                	or     %edx,%eax
    d649:	89 85 4c ff ff ff    	mov    %eax,-0xb4(%rbp)
    d64f:	0f bf 85 1c ff ff ff 	movswl -0xe4(%rbp),%eax
    d656:	48 8b 4d d8          	mov    -0x28(%rbp),%rcx
    d65a:	64 48 33 0c 25 28 00 	xor    %fs:0x28,%rcx
    d661:	00 00 
    d663:	74 05                	je     d66a <func_9+0x345>
    d665:	e8 06 ca ff ff       	callq  a070 <__stack_chk_fail@plt>
    d66a:	48 81 c4 d0 00 00 00 	add    $0xd0,%rsp
    d671:	5b                   	pop    %rbx
    d672:	41 5c                	pop    %r12
    d674:	41 5d                	pop    %r13
    d676:	41 5e                	pop    %r14
    d678:	5d                   	pop    %rbp
    d679:	c3                   	retq   

000000000000d67a <func_22>:
    d67a:	f3 0f 1e fa          	endbr64 
    d67e:	55                   	push   %rbp
    d67f:	48 89 e5             	mov    %rsp,%rbp
    d682:	41 55                	push   %r13
    d684:	41 54                	push   %r12
    d686:	53                   	push   %rbx
    d687:	48 83 ec 28          	sub    $0x28,%rsp
    d68b:	89 f8                	mov    %edi,%eax
    d68d:	66 89 45 c4          	mov    %ax,-0x3c(%rbp)
    d691:	c7 45 d8 fd ff ff ff 	movl   $0xfffffffd,-0x28(%rbp)
    d698:	48 8d 05 c1 a9 00 00 	lea    0xa9c1(%rip),%rax        # 18060 <g_95>
    d69f:	48 89 45 e0          	mov    %rax,-0x20(%rbp)
    d6a3:	c6 45 d7 22          	movb   $0x22,-0x29(%rbp)
    d6a7:	c7 45 dc 6f 0a 2e 11 	movl   $0x112e0a6f,-0x24(%rbp)
    d6ae:	0f b6 5d d7          	movzbl -0x29(%rbp),%ebx
    d6b2:	0f b7 45 c4          	movzwl -0x3c(%rbp),%eax
    d6b6:	44 0f bf e0          	movswl %ax,%r12d
    d6ba:	44 0f b6 6d d7       	movzbl -0x29(%rbp),%r13d
    d6bf:	48 8b 05 da cd 00 00 	mov    0xcdda(%rip),%rax        # 1a4a0 <g_1896+0x100>
    d6c6:	0f b7 55 c4          	movzwl -0x3c(%rbp),%edx
    d6ca:	48 8b 45 e0          	mov    -0x20(%rbp),%rax
    d6ce:	48 8b 08             	mov    (%rax),%rcx
    d6d1:	48 8b 05 f8 fb 00 00 	mov    0xfbf8(%rip),%rax        # 1d2d0 <g_1578>
    d6d8:	48 8b 00             	mov    (%rax),%rax
    d6db:	48 09 c1             	or     %rax,%rcx
    d6de:	48 8b 45 e0          	mov    -0x20(%rbp),%rax
    d6e2:	48 89 08             	mov    %rcx,(%rax)
    d6e5:	8b 45 d8             	mov    -0x28(%rbp),%eax
    d6e8:	0f b7 c0             	movzwl %ax,%eax
    d6eb:	89 d6                	mov    %edx,%esi
    d6ed:	89 c7                	mov    %eax,%edi
    d6ef:	e8 49 d6 ff ff       	callq  ad3d <safe_mul_func_uint16_t_u_u>
    d6f4:	98                   	cwtl   
    d6f5:	be 0c 00 00 00       	mov    $0xc,%esi
    d6fa:	89 c7                	mov    %eax,%edi
    d6fc:	e8 e0 cd ff ff       	callq  a4e1 <safe_lshift_func_int16_t_s_u>
    d701:	98                   	cwtl   
    d702:	44 89 ee             	mov    %r13d,%esi
    d705:	89 c7                	mov    %eax,%edi
    d707:	e8 0a cd ff ff       	callq  a416 <safe_mod_func_int16_t_s_s>
    d70c:	44 89 e6             	mov    %r12d,%esi
    d70f:	bf 01 00 00 00       	mov    $0x1,%edi
    d714:	e8 dc cc ff ff       	callq  a3f5 <safe_mul_func_int16_t_s_s>
    d719:	98                   	cwtl   
    d71a:	be 85 8a ff ff       	mov    $0xffff8a85,%esi
    d71f:	89 c7                	mov    %eax,%edi
    d721:	e8 cf cc ff ff       	callq  a3f5 <safe_mul_func_int16_t_s_s>
    d726:	0f b7 c0             	movzwl %ax,%eax
    d729:	89 de                	mov    %ebx,%esi
    d72b:	89 c7                	mov    %eax,%edi
    d72d:	e8 0b d6 ff ff       	callq  ad3d <safe_mul_func_uint16_t_u_u>
    d732:	0f b6 55 d7          	movzbl -0x29(%rbp),%edx
    d736:	66 39 d0             	cmp    %dx,%ax
    d739:	0f 95 c0             	setne  %al
    d73c:	0f b6 c0             	movzbl %al,%eax
    d73f:	be 04 00 00 00       	mov    $0x4,%esi
    d744:	89 c7                	mov    %eax,%edi
    d746:	e8 18 ce ff ff       	callq  a563 <safe_rshift_func_int16_t_s_u>
    d74b:	48 0f bf d8          	movswq %ax,%rbx
    d74f:	8b 45 d8             	mov    -0x28(%rbp),%eax
    d752:	0f b7 d0             	movzwl %ax,%edx
    d755:	48 8b 05 34 fb 00 00 	mov    0xfb34(%rip),%rax        # 1d290 <g_1388>
    d75c:	48 8b 00             	mov    (%rax),%rax
    d75f:	48 8b 00             	mov    (%rax),%rax
    d762:	f7 d0                	not    %eax
    d764:	0f b7 c0             	movzwl %ax,%eax
    d767:	89 d6                	mov    %edx,%esi
    d769:	89 c7                	mov    %eax,%edi
    d76b:	e8 cd d5 ff ff       	callq  ad3d <safe_mul_func_uint16_t_u_u>
    d770:	0f b7 c0             	movzwl %ax,%eax
    d773:	48 89 de             	mov    %rbx,%rsi
    d776:	48 89 c7             	mov    %rax,%rdi
    d779:	e8 cd d8 ff ff       	callq  b04b <safe_sub_func_uint64_t_u_u>
    d77e:	89 c2                	mov    %eax,%edx
    d780:	8b 45 dc             	mov    -0x24(%rbp),%eax
    d783:	09 d0                	or     %edx,%eax
    d785:	89 45 dc             	mov    %eax,-0x24(%rbp)
    d788:	48 8b 05 d1 fa 00 00 	mov    0xfad1(%rip),%rax        # 1d260 <g_737>
    d78f:	48 8b 00             	mov    (%rax),%rax
    d792:	8b 00                	mov    (%rax),%eax
    d794:	48 83 c4 28          	add    $0x28,%rsp
    d798:	5b                   	pop    %rbx
    d799:	41 5c                	pop    %r12
    d79b:	41 5d                	pop    %r13
    d79d:	5d                   	pop    %rbp
    d79e:	c3                   	retq   

000000000000d79f <func_24>:
    d79f:	f3 0f 1e fa          	endbr64 
    d7a3:	55                   	push   %rbp
    d7a4:	48 89 e5             	mov    %rsp,%rbp
    d7a7:	48 81 ec 10 0d 00 00 	sub    $0xd10,%rsp
    d7ae:	89 f0                	mov    %esi,%eax
    d7b0:	48 89 95 00 f3 ff ff 	mov    %rdx,-0xd00(%rbp)
    d7b7:	48 89 8d f8 f2 ff ff 	mov    %rcx,-0xd08(%rbp)
    d7be:	89 fa                	mov    %edi,%edx
    d7c0:	66 89 95 0c f3 ff ff 	mov    %dx,-0xcf4(%rbp)
    d7c7:	66 89 85 08 f3 ff ff 	mov    %ax,-0xcf8(%rbp)
    d7ce:	64 48 8b 04 25 28 00 	mov    %fs:0x28,%rax
    d7d5:	00 00 
    d7d7:	48 89 45 f8          	mov    %rax,-0x8(%rbp)
    d7db:	31 c0                	xor    %eax,%eax
    d7dd:	48 8d 05 54 a8 00 00 	lea    0xa854(%rip),%rax        # 18038 <g_35>
    d7e4:	48 89 85 38 f3 ff ff 	mov    %rax,-0xcc8(%rbp)
    d7eb:	48 c7 85 60 f3 ff ff 	movq   $0x0,-0xca0(%rbp)
    d7f2:	00 00 00 00 
    d7f6:	48 8d 85 70 f8 ff ff 	lea    -0x790(%rbp),%rax
    d7fd:	48 8d 15 bc d1 00 00 	lea    0xd1bc(%rip),%rdx        # 1a9c0 <g_1994+0x490>
    d804:	b9 f0 00 00 00       	mov    $0xf0,%ecx
    d809:	48 89 c7             	mov    %rax,%rdi
    d80c:	48 89 d6             	mov    %rdx,%rsi
    d80f:	f3 48 a5             	rep movsq %ds:(%rsi),%es:(%rdi)
    d812:	48 8d 05 23 a8 00 00 	lea    0xa823(%rip),%rax        # 1803c <g_64>
    d819:	48 89 85 68 f3 ff ff 	mov    %rax,-0xc98(%rbp)
    d820:	48 c7 85 40 f4 ff ff 	movq   $0x0,-0xbc0(%rbp)
    d827:	00 00 00 00 
    d82b:	48 8d 85 38 f3 ff ff 	lea    -0xcc8(%rbp),%rax
    d832:	48 89 85 48 f4 ff ff 	mov    %rax,-0xbb8(%rbp)
    d839:	48 c7 85 50 f4 ff ff 	movq   $0x0,-0xbb0(%rbp)
    d840:	00 00 00 00 
    d844:	48 8d 85 38 f3 ff ff 	lea    -0xcc8(%rbp),%rax
    d84b:	48 89 85 58 f4 ff ff 	mov    %rax,-0xba8(%rbp)
    d852:	48 c7 85 60 f4 ff ff 	movq   $0x0,-0xba0(%rbp)
    d859:	00 00 00 00 
    d85d:	48 8d 85 38 f3 ff ff 	lea    -0xcc8(%rbp),%rax
    d864:	48 89 85 68 f4 ff ff 	mov    %rax,-0xb98(%rbp)
    d86b:	48 c7 85 70 f4 ff ff 	movq   $0x0,-0xb90(%rbp)
    d872:	00 00 00 00 
    d876:	48 8d 85 38 f3 ff ff 	lea    -0xcc8(%rbp),%rax
    d87d:	48 89 85 78 f4 ff ff 	mov    %rax,-0xb88(%rbp)
    d884:	48 8d 05 bf a7 00 00 	lea    0xa7bf(%rip),%rax        # 1804a <g_94>
    d88b:	48 89 85 70 f3 ff ff 	mov    %rax,-0xc90(%rbp)
    d892:	c7 85 28 f3 ff ff 01 	movl   $0x1,-0xcd8(%rbp)
    d899:	00 00 00 
    d89c:	48 b8 25 62 71 0b 88 	movabs $0xc9e8c6880b716225,%rax
    d8a3:	c6 e8 c9 
    d8a6:	48 89 85 78 f3 ff ff 	mov    %rax,-0xc88(%rbp)
    d8ad:	66 c7 85 20 f3 ff ff 	movw   $0x1ded,-0xce0(%rbp)
    d8b4:	ed 1d 
    d8b6:	48 8d 05 9b ba 00 00 	lea    0xba9b(%rip),%rax        # 19358 <g_614>
    d8bd:	48 89 85 80 f3 ff ff 	mov    %rax,-0xc80(%rbp)
    d8c4:	48 8d 05 7f a7 00 00 	lea    0xa77f(%rip),%rax        # 1804a <g_94>
    d8cb:	48 89 85 00 f4 ff ff 	mov    %rax,-0xc00(%rbp)
    d8d2:	48 8d 05 71 a7 00 00 	lea    0xa771(%rip),%rax        # 1804a <g_94>
    d8d9:	48 89 85 08 f4 ff ff 	mov    %rax,-0xbf8(%rbp)
    d8e0:	48 8d 05 63 a7 00 00 	lea    0xa763(%rip),%rax        # 1804a <g_94>
    d8e7:	48 89 85 10 f4 ff ff 	mov    %rax,-0xbf0(%rbp)
    d8ee:	48 8d 85 00 f4 ff ff 	lea    -0xc00(%rbp),%rax
    d8f5:	48 83 c0 08          	add    $0x8,%rax
    d8f9:	48 89 85 88 f3 ff ff 	mov    %rax,-0xc78(%rbp)
    d900:	c7 85 2c f3 ff ff 80 	movl   $0x19b49b80,-0xcd4(%rbp)
    d907:	9b b4 19 
    d90a:	c7 85 30 f3 ff ff a6 	movl   $0x49d3aaa6,-0xcd0(%rbp)
    d911:	aa d3 49 
    d914:	48 b8 20 a7 a3 77 db 	movabs $0x9ab7bcdb77a3a720,%rax
    d91b:	bc b7 9a 
    d91e:	48 89 85 30 f5 ff ff 	mov    %rax,-0xad0(%rbp)
    d925:	48 89 85 38 f5 ff ff 	mov    %rax,-0xac8(%rbp)
    d92c:	48 89 85 40 f5 ff ff 	mov    %rax,-0xac0(%rbp)
    d933:	48 89 85 48 f5 ff ff 	mov    %rax,-0xab8(%rbp)
    d93a:	48 89 85 50 f5 ff ff 	mov    %rax,-0xab0(%rbp)
    d941:	48 89 85 58 f5 ff ff 	mov    %rax,-0xaa8(%rbp)
    d948:	48 89 85 60 f5 ff ff 	mov    %rax,-0xaa0(%rbp)
    d94f:	48 89 85 68 f5 ff ff 	mov    %rax,-0xa98(%rbp)
    d956:	48 89 85 70 f5 ff ff 	mov    %rax,-0xa90(%rbp)
    d95d:	48 89 85 78 f5 ff ff 	mov    %rax,-0xa88(%rbp)
    d964:	48 89 85 80 f5 ff ff 	mov    %rax,-0xa80(%rbp)
    d96b:	48 89 85 88 f5 ff ff 	mov    %rax,-0xa78(%rbp)
    d972:	48 89 85 90 f5 ff ff 	mov    %rax,-0xa70(%rbp)
    d979:	48 89 85 98 f5 ff ff 	mov    %rax,-0xa68(%rbp)
    d980:	48 89 85 a0 f5 ff ff 	mov    %rax,-0xa60(%rbp)
    d987:	48 89 85 a8 f5 ff ff 	mov    %rax,-0xa58(%rbp)
    d98e:	48 89 85 b0 f5 ff ff 	mov    %rax,-0xa50(%rbp)
    d995:	48 89 85 b8 f5 ff ff 	mov    %rax,-0xa48(%rbp)
    d99c:	48 89 85 c0 f5 ff ff 	mov    %rax,-0xa40(%rbp)
    d9a3:	48 89 85 c8 f5 ff ff 	mov    %rax,-0xa38(%rbp)
    d9aa:	48 b8 b4 e3 7c 24 47 	movabs $0xd1b0c947247ce3b4,%rax
    d9b1:	c9 b0 d1 
    d9b4:	48 89 85 d0 f4 ff ff 	mov    %rax,-0xb30(%rbp)
    d9bb:	48 89 85 d8 f4 ff ff 	mov    %rax,-0xb28(%rbp)
    d9c2:	48 89 85 e0 f4 ff ff 	mov    %rax,-0xb20(%rbp)
    d9c9:	48 89 85 e8 f4 ff ff 	mov    %rax,-0xb18(%rbp)
    d9d0:	48 89 85 f0 f4 ff ff 	mov    %rax,-0xb10(%rbp)
    d9d7:	48 89 85 f8 f4 ff ff 	mov    %rax,-0xb08(%rbp)
    d9de:	48 89 85 00 f5 ff ff 	mov    %rax,-0xb00(%rbp)
    d9e5:	48 89 85 08 f5 ff ff 	mov    %rax,-0xaf8(%rbp)
    d9ec:	48 89 85 10 f5 ff ff 	mov    %rax,-0xaf0(%rbp)
    d9f3:	48 89 85 18 f5 ff ff 	mov    %rax,-0xae8(%rbp)
    d9fa:	48 89 85 20 f5 ff ff 	mov    %rax,-0xae0(%rbp)
    da01:	48 89 85 28 f5 ff ff 	mov    %rax,-0xad8(%rbp)
    da08:	48 8d 05 95 a6 00 00 	lea    0xa695(%rip),%rax        # 180a4 <g_111+0x24>
    da0f:	48 89 85 90 f3 ff ff 	mov    %rax,-0xc70(%rbp)
    da16:	66 c7 85 22 f3 ff ff 	movw   $0x0,-0xcde(%rbp)
    da1d:	00 00 
    da1f:	c6 85 1d f3 ff ff 75 	movb   $0x75,-0xce3(%rbp)
    da26:	48 8d 05 e3 eb 00 00 	lea    0xebe3(%rip),%rax        # 1c610 <g_155>
    da2d:	48 89 85 98 f3 ff ff 	mov    %rax,-0xc68(%rbp)
    da34:	c6 85 1e f3 ff ff 01 	movb   $0x1,-0xce2(%rbp)
    da3b:	48 8d 05 0e c5 00 00 	lea    0xc50e(%rip),%rax        # 19f50 <g_1600>
    da42:	48 89 85 40 f3 ff ff 	mov    %rax,-0xcc0(%rbp)
    da49:	48 8d 85 40 f3 ff ff 	lea    -0xcc0(%rbp),%rax
    da50:	48 89 85 48 f3 ff ff 	mov    %rax,-0xcb8(%rbp)
    da57:	48 8d 85 48 f3 ff ff 	lea    -0xcb8(%rbp),%rax
    da5e:	48 89 85 d0 f5 ff ff 	mov    %rax,-0xa30(%rbp)
    da65:	48 8d 85 48 f3 ff ff 	lea    -0xcb8(%rbp),%rax
    da6c:	48 89 85 d8 f5 ff ff 	mov    %rax,-0xa28(%rbp)
    da73:	48 8d 85 48 f3 ff ff 	lea    -0xcb8(%rbp),%rax
    da7a:	48 89 85 e0 f5 ff ff 	mov    %rax,-0xa20(%rbp)
    da81:	48 8d 85 48 f3 ff ff 	lea    -0xcb8(%rbp),%rax
    da88:	48 89 85 e8 f5 ff ff 	mov    %rax,-0xa18(%rbp)
    da8f:	48 8d 85 48 f3 ff ff 	lea    -0xcb8(%rbp),%rax
    da96:	48 89 85 f0 f5 ff ff 	mov    %rax,-0xa10(%rbp)
    da9d:	48 8d 85 48 f3 ff ff 	lea    -0xcb8(%rbp),%rax
    daa4:	48 89 85 f8 f5 ff ff 	mov    %rax,-0xa08(%rbp)
    daab:	48 8d 85 48 f3 ff ff 	lea    -0xcb8(%rbp),%rax
    dab2:	48 89 85 00 f6 ff ff 	mov    %rax,-0xa00(%rbp)
    dab9:	48 8d 85 48 f3 ff ff 	lea    -0xcb8(%rbp),%rax
    dac0:	48 89 85 08 f6 ff ff 	mov    %rax,-0x9f8(%rbp)
    dac7:	48 8d 85 48 f3 ff ff 	lea    -0xcb8(%rbp),%rax
    dace:	48 89 85 10 f6 ff ff 	mov    %rax,-0x9f0(%rbp)
    dad5:	48 8d 85 48 f3 ff ff 	lea    -0xcb8(%rbp),%rax
    dadc:	48 89 85 18 f6 ff ff 	mov    %rax,-0x9e8(%rbp)
    dae3:	48 8d 85 48 f3 ff ff 	lea    -0xcb8(%rbp),%rax
    daea:	48 89 85 20 f6 ff ff 	mov    %rax,-0x9e0(%rbp)
    daf1:	48 8d 85 48 f3 ff ff 	lea    -0xcb8(%rbp),%rax
    daf8:	48 89 85 28 f6 ff ff 	mov    %rax,-0x9d8(%rbp)
    daff:	48 c7 85 30 f6 ff ff 	movq   $0x0,-0x9d0(%rbp)
    db06:	00 00 00 00 
    db0a:	48 8d 85 48 f3 ff ff 	lea    -0xcb8(%rbp),%rax
    db11:	48 89 85 38 f6 ff ff 	mov    %rax,-0x9c8(%rbp)
    db18:	48 8d 85 48 f3 ff ff 	lea    -0xcb8(%rbp),%rax
    db1f:	48 89 85 40 f6 ff ff 	mov    %rax,-0x9c0(%rbp)
    db26:	48 8d 85 48 f3 ff ff 	lea    -0xcb8(%rbp),%rax
    db2d:	48 89 85 48 f6 ff ff 	mov    %rax,-0x9b8(%rbp)
    db34:	48 8d 85 48 f3 ff ff 	lea    -0xcb8(%rbp),%rax
    db3b:	48 89 85 50 f6 ff ff 	mov    %rax,-0x9b0(%rbp)
    db42:	48 8d 85 48 f3 ff ff 	lea    -0xcb8(%rbp),%rax
    db49:	48 89 85 58 f6 ff ff 	mov    %rax,-0x9a8(%rbp)
    db50:	48 8d 85 48 f3 ff ff 	lea    -0xcb8(%rbp),%rax
    db57:	48 89 85 60 f6 ff ff 	mov    %rax,-0x9a0(%rbp)
    db5e:	48 c7 85 68 f6 ff ff 	movq   $0x0,-0x998(%rbp)
    db65:	00 00 00 00 
    db69:	48 8d 85 48 f3 ff ff 	lea    -0xcb8(%rbp),%rax
    db70:	48 89 85 70 f6 ff ff 	mov    %rax,-0x990(%rbp)
    db77:	48 8d 85 48 f3 ff ff 	lea    -0xcb8(%rbp),%rax
    db7e:	48 89 85 78 f6 ff ff 	mov    %rax,-0x988(%rbp)
    db85:	48 8d 85 48 f3 ff ff 	lea    -0xcb8(%rbp),%rax
    db8c:	48 89 85 80 f6 ff ff 	mov    %rax,-0x980(%rbp)
    db93:	48 8d 85 48 f3 ff ff 	lea    -0xcb8(%rbp),%rax
    db9a:	48 89 85 88 f6 ff ff 	mov    %rax,-0x978(%rbp)
    dba1:	48 8d 85 48 f3 ff ff 	lea    -0xcb8(%rbp),%rax
    dba8:	48 89 85 90 f6 ff ff 	mov    %rax,-0x970(%rbp)
    dbaf:	48 8d 85 48 f3 ff ff 	lea    -0xcb8(%rbp),%rax
    dbb6:	48 89 85 98 f6 ff ff 	mov    %rax,-0x968(%rbp)
    dbbd:	48 8d 85 48 f3 ff ff 	lea    -0xcb8(%rbp),%rax
    dbc4:	48 89 85 a0 f6 ff ff 	mov    %rax,-0x960(%rbp)
    dbcb:	48 8d 85 48 f3 ff ff 	lea    -0xcb8(%rbp),%rax
    dbd2:	48 89 85 a8 f6 ff ff 	mov    %rax,-0x958(%rbp)
    dbd9:	48 8d 85 48 f3 ff ff 	lea    -0xcb8(%rbp),%rax
    dbe0:	48 89 85 b0 f6 ff ff 	mov    %rax,-0x950(%rbp)
    dbe7:	48 8d 85 48 f3 ff ff 	lea    -0xcb8(%rbp),%rax
    dbee:	48 89 85 b8 f6 ff ff 	mov    %rax,-0x948(%rbp)
    dbf5:	48 8d 85 48 f3 ff ff 	lea    -0xcb8(%rbp),%rax
    dbfc:	48 89 85 c0 f6 ff ff 	mov    %rax,-0x940(%rbp)
    dc03:	48 c7 85 c8 f6 ff ff 	movq   $0x0,-0x938(%rbp)
    dc0a:	00 00 00 00 
    dc0e:	48 8d 85 48 f3 ff ff 	lea    -0xcb8(%rbp),%rax
    dc15:	48 89 85 d0 f6 ff ff 	mov    %rax,-0x930(%rbp)
    dc1c:	48 8d 85 48 f3 ff ff 	lea    -0xcb8(%rbp),%rax
    dc23:	48 89 85 d8 f6 ff ff 	mov    %rax,-0x928(%rbp)
    dc2a:	48 8d 85 48 f3 ff ff 	lea    -0xcb8(%rbp),%rax
    dc31:	48 89 85 e0 f6 ff ff 	mov    %rax,-0x920(%rbp)
    dc38:	48 8d 85 48 f3 ff ff 	lea    -0xcb8(%rbp),%rax
    dc3f:	48 89 85 e8 f6 ff ff 	mov    %rax,-0x918(%rbp)
    dc46:	48 8d 85 48 f3 ff ff 	lea    -0xcb8(%rbp),%rax
    dc4d:	48 89 85 f0 f6 ff ff 	mov    %rax,-0x910(%rbp)
    dc54:	48 8d 85 48 f3 ff ff 	lea    -0xcb8(%rbp),%rax
    dc5b:	48 89 85 f8 f6 ff ff 	mov    %rax,-0x908(%rbp)
    dc62:	48 8d 85 48 f3 ff ff 	lea    -0xcb8(%rbp),%rax
    dc69:	48 89 85 00 f7 ff ff 	mov    %rax,-0x900(%rbp)
    dc70:	48 8d 85 48 f3 ff ff 	lea    -0xcb8(%rbp),%rax
    dc77:	48 89 85 08 f7 ff ff 	mov    %rax,-0x8f8(%rbp)
    dc7e:	48 8d 85 48 f3 ff ff 	lea    -0xcb8(%rbp),%rax
    dc85:	48 89 85 10 f7 ff ff 	mov    %rax,-0x8f0(%rbp)
    dc8c:	48 8d 85 48 f3 ff ff 	lea    -0xcb8(%rbp),%rax
    dc93:	48 89 85 18 f7 ff ff 	mov    %rax,-0x8e8(%rbp)
    dc9a:	48 c7 85 20 f7 ff ff 	movq   $0x0,-0x8e0(%rbp)
    dca1:	00 00 00 00 
    dca5:	48 8d 85 48 f3 ff ff 	lea    -0xcb8(%rbp),%rax
    dcac:	48 89 85 28 f7 ff ff 	mov    %rax,-0x8d8(%rbp)
    dcb3:	48 c7 85 30 f7 ff ff 	movq   $0x0,-0x8d0(%rbp)
    dcba:	00 00 00 00 
    dcbe:	48 8d 85 48 f3 ff ff 	lea    -0xcb8(%rbp),%rax
    dcc5:	48 89 85 38 f7 ff ff 	mov    %rax,-0x8c8(%rbp)
    dccc:	48 8d 85 48 f3 ff ff 	lea    -0xcb8(%rbp),%rax
    dcd3:	48 89 85 40 f7 ff ff 	mov    %rax,-0x8c0(%rbp)
    dcda:	48 8d 85 48 f3 ff ff 	lea    -0xcb8(%rbp),%rax
    dce1:	48 89 85 48 f7 ff ff 	mov    %rax,-0x8b8(%rbp)
    dce8:	48 8d 85 48 f3 ff ff 	lea    -0xcb8(%rbp),%rax
    dcef:	48 89 85 50 f7 ff ff 	mov    %rax,-0x8b0(%rbp)
    dcf6:	48 c7 85 58 f7 ff ff 	movq   $0x0,-0x8a8(%rbp)
    dcfd:	00 00 00 00 
    dd01:	48 c7 85 60 f7 ff ff 	movq   $0x0,-0x8a0(%rbp)
    dd08:	00 00 00 00 
    dd0c:	48 8d 85 48 f3 ff ff 	lea    -0xcb8(%rbp),%rax
    dd13:	48 89 85 68 f7 ff ff 	mov    %rax,-0x898(%rbp)
    dd1a:	48 8d 85 48 f3 ff ff 	lea    -0xcb8(%rbp),%rax
    dd21:	48 89 85 70 f7 ff ff 	mov    %rax,-0x890(%rbp)
    dd28:	48 8d 85 48 f3 ff ff 	lea    -0xcb8(%rbp),%rax
    dd2f:	48 89 85 78 f7 ff ff 	mov    %rax,-0x888(%rbp)
    dd36:	48 8d 85 48 f3 ff ff 	lea    -0xcb8(%rbp),%rax
    dd3d:	48 89 85 80 f7 ff ff 	mov    %rax,-0x880(%rbp)
    dd44:	48 8d 85 48 f3 ff ff 	lea    -0xcb8(%rbp),%rax
    dd4b:	48 89 85 88 f7 ff ff 	mov    %rax,-0x878(%rbp)
    dd52:	48 8d 85 48 f3 ff ff 	lea    -0xcb8(%rbp),%rax
    dd59:	48 89 85 90 f7 ff ff 	mov    %rax,-0x870(%rbp)
    dd60:	48 8d 85 48 f3 ff ff 	lea    -0xcb8(%rbp),%rax
    dd67:	48 89 85 98 f7 ff ff 	mov    %rax,-0x868(%rbp)
    dd6e:	48 8d 85 48 f3 ff ff 	lea    -0xcb8(%rbp),%rax
    dd75:	48 89 85 a0 f7 ff ff 	mov    %rax,-0x860(%rbp)
    dd7c:	48 8d 85 48 f3 ff ff 	lea    -0xcb8(%rbp),%rax
    dd83:	48 89 85 a8 f7 ff ff 	mov    %rax,-0x858(%rbp)
    dd8a:	48 8d 85 48 f3 ff ff 	lea    -0xcb8(%rbp),%rax
    dd91:	48 89 85 b0 f7 ff ff 	mov    %rax,-0x850(%rbp)
    dd98:	48 8d 85 48 f3 ff ff 	lea    -0xcb8(%rbp),%rax
    dd9f:	48 89 85 b8 f7 ff ff 	mov    %rax,-0x848(%rbp)
    dda6:	48 8d 85 48 f3 ff ff 	lea    -0xcb8(%rbp),%rax
    ddad:	48 89 85 c0 f7 ff ff 	mov    %rax,-0x840(%rbp)
    ddb4:	48 8d 85 48 f3 ff ff 	lea    -0xcb8(%rbp),%rax
    ddbb:	48 89 85 c8 f7 ff ff 	mov    %rax,-0x838(%rbp)
    ddc2:	48 8d 85 48 f3 ff ff 	lea    -0xcb8(%rbp),%rax
    ddc9:	48 89 85 d0 f7 ff ff 	mov    %rax,-0x830(%rbp)
    ddd0:	48 8d 85 48 f3 ff ff 	lea    -0xcb8(%rbp),%rax
    ddd7:	48 89 85 d8 f7 ff ff 	mov    %rax,-0x828(%rbp)
    ddde:	48 c7 85 e0 f7 ff ff 	movq   $0x0,-0x820(%rbp)
    dde5:	00 00 00 00 
    dde9:	48 8d 85 48 f3 ff ff 	lea    -0xcb8(%rbp),%rax
    ddf0:	48 89 85 e8 f7 ff ff 	mov    %rax,-0x818(%rbp)
    ddf7:	48 8d 85 48 f3 ff ff 	lea    -0xcb8(%rbp),%rax
    ddfe:	48 89 85 f0 f7 ff ff 	mov    %rax,-0x810(%rbp)
    de05:	48 8d 85 48 f3 ff ff 	lea    -0xcb8(%rbp),%rax
    de0c:	48 89 85 f8 f7 ff ff 	mov    %rax,-0x808(%rbp)
    de13:	48 8d 85 48 f3 ff ff 	lea    -0xcb8(%rbp),%rax
    de1a:	48 89 85 00 f8 ff ff 	mov    %rax,-0x800(%rbp)
    de21:	48 8d 85 48 f3 ff ff 	lea    -0xcb8(%rbp),%rax
    de28:	48 89 85 08 f8 ff ff 	mov    %rax,-0x7f8(%rbp)
    de2f:	48 8d 85 48 f3 ff ff 	lea    -0xcb8(%rbp),%rax
    de36:	48 89 85 10 f8 ff ff 	mov    %rax,-0x7f0(%rbp)
    de3d:	48 c7 85 18 f8 ff ff 	movq   $0x0,-0x7e8(%rbp)
    de44:	00 00 00 00 
    de48:	48 8d 85 48 f3 ff ff 	lea    -0xcb8(%rbp),%rax
    de4f:	48 89 85 20 f8 ff ff 	mov    %rax,-0x7e0(%rbp)
    de56:	48 8d 85 48 f3 ff ff 	lea    -0xcb8(%rbp),%rax
    de5d:	48 89 85 28 f8 ff ff 	mov    %rax,-0x7d8(%rbp)
    de64:	48 8d 85 48 f3 ff ff 	lea    -0xcb8(%rbp),%rax
    de6b:	48 89 85 30 f8 ff ff 	mov    %rax,-0x7d0(%rbp)
    de72:	48 8d 85 48 f3 ff ff 	lea    -0xcb8(%rbp),%rax
    de79:	48 89 85 38 f8 ff ff 	mov    %rax,-0x7c8(%rbp)
    de80:	48 8d 85 48 f3 ff ff 	lea    -0xcb8(%rbp),%rax
    de87:	48 89 85 40 f8 ff ff 	mov    %rax,-0x7c0(%rbp)
    de8e:	48 8d 85 48 f3 ff ff 	lea    -0xcb8(%rbp),%rax
    de95:	48 89 85 48 f8 ff ff 	mov    %rax,-0x7b8(%rbp)
    de9c:	48 8d 85 48 f3 ff ff 	lea    -0xcb8(%rbp),%rax
    dea3:	48 89 85 50 f8 ff ff 	mov    %rax,-0x7b0(%rbp)
    deaa:	48 8d 85 48 f3 ff ff 	lea    -0xcb8(%rbp),%rax
    deb1:	48 89 85 58 f8 ff ff 	mov    %rax,-0x7a8(%rbp)
    deb8:	48 8d 85 48 f3 ff ff 	lea    -0xcb8(%rbp),%rax
    debf:	48 89 85 60 f8 ff ff 	mov    %rax,-0x7a0(%rbp)
    dec6:	48 8d 85 48 f3 ff ff 	lea    -0xcb8(%rbp),%rax
    decd:	48 89 85 68 f8 ff ff 	mov    %rax,-0x798(%rbp)
    ded4:	c6 85 1f f3 ff ff c0 	movb   $0xc0,-0xce1(%rbp)
    dedb:	48 c7 85 a0 f3 ff ff 	movq   $0x0,-0xc60(%rbp)
    dee2:	00 00 00 00 
    dee6:	48 8d 05 eb e7 00 00 	lea    0xe7eb(%rip),%rax        # 1c6d8 <g_581>
    deed:	48 89 85 a8 f3 ff ff 	mov    %rax,-0xc58(%rbp)
    def4:	48 c7 85 b0 f3 ff ff 	movq   $0xffffffffffffffff,-0xc50(%rbp)
    defb:	ff ff ff ff 
    deff:	48 c7 85 50 f3 ff ff 	movq   $0x0,-0xcb0(%rbp)
    df06:	00 00 00 00 
    df0a:	48 8d 85 50 f3 ff ff 	lea    -0xcb0(%rbp),%rax
    df11:	48 89 85 b8 f3 ff ff 	mov    %rax,-0xc48(%rbp)
    df18:	48 c7 85 c0 f3 ff ff 	movq   $0xffffffffffffffff,-0xc40(%rbp)
    df1f:	ff ff ff ff 
    df23:	48 8d 05 06 f3 00 00 	lea    0xf306(%rip),%rax        # 1d230 <g_705+0x10>
    df2a:	48 89 85 58 f3 ff ff 	mov    %rax,-0xca8(%rbp)
    df31:	48 8d 85 58 f3 ff ff 	lea    -0xca8(%rbp),%rax
    df38:	48 89 85 c8 f3 ff ff 	mov    %rax,-0xc38(%rbp)
    df3f:	48 c7 85 d0 f3 ff ff 	movq   $0x0,-0xc30(%rbp)
    df46:	00 00 00 00 
    df4a:	c7 85 34 f3 ff ff ab 	movl   $0xb79fd8ab,-0xccc(%rbp)
    df51:	d8 9f b7 
    df54:	48 c7 85 d8 f3 ff ff 	movq   $0x1,-0xc28(%rbp)
    df5b:	01 00 00 00 
    df5f:	48 c7 85 e0 f3 ff ff 	movq   $0x0,-0xc20(%rbp)
    df66:	00 00 00 00 
    df6a:	48 c7 85 e8 f3 ff ff 	movq   $0x0,-0xc18(%rbp)
    df71:	00 00 00 00 
    df75:	48 8d 05 4c fe 00 00 	lea    0xfe4c(%rip),%rax        # 1ddc8 <g_890>
    df7c:	48 89 85 f0 f3 ff ff 	mov    %rax,-0xc10(%rbp)
    df83:	48 8d 05 66 fe 00 00 	lea    0xfe66(%rip),%rax        # 1ddf0 <g_1154>
    df8a:	48 89 85 80 f4 ff ff 	mov    %rax,-0xb80(%rbp)
    df91:	48 8d 05 58 fe 00 00 	lea    0xfe58(%rip),%rax        # 1ddf0 <g_1154>
    df98:	48 89 85 88 f4 ff ff 	mov    %rax,-0xb78(%rbp)
    df9f:	48 8d 05 4a fe 00 00 	lea    0xfe4a(%rip),%rax        # 1ddf0 <g_1154>
    dfa6:	48 89 85 90 f4 ff ff 	mov    %rax,-0xb70(%rbp)
    dfad:	48 8d 05 3c fe 00 00 	lea    0xfe3c(%rip),%rax        # 1ddf0 <g_1154>
    dfb4:	48 89 85 98 f4 ff ff 	mov    %rax,-0xb68(%rbp)
    dfbb:	48 8d 05 2e fe 00 00 	lea    0xfe2e(%rip),%rax        # 1ddf0 <g_1154>
    dfc2:	48 89 85 a0 f4 ff ff 	mov    %rax,-0xb60(%rbp)
    dfc9:	48 8d 05 20 fe 00 00 	lea    0xfe20(%rip),%rax        # 1ddf0 <g_1154>
    dfd0:	48 89 85 a8 f4 ff ff 	mov    %rax,-0xb58(%rbp)
    dfd7:	48 8d 05 12 fe 00 00 	lea    0xfe12(%rip),%rax        # 1ddf0 <g_1154>
    dfde:	48 89 85 b0 f4 ff ff 	mov    %rax,-0xb50(%rbp)
    dfe5:	48 8d 05 04 fe 00 00 	lea    0xfe04(%rip),%rax        # 1ddf0 <g_1154>
    dfec:	48 89 85 b8 f4 ff ff 	mov    %rax,-0xb48(%rbp)
    dff3:	48 8d 05 f6 fd 00 00 	lea    0xfdf6(%rip),%rax        # 1ddf0 <g_1154>
    dffa:	48 89 85 c0 f4 ff ff 	mov    %rax,-0xb40(%rbp)
    e001:	48 8d 05 e8 fd 00 00 	lea    0xfde8(%rip),%rax        # 1ddf0 <g_1154>
    e008:	48 89 85 c8 f4 ff ff 	mov    %rax,-0xb38(%rbp)
    e00f:	48 8d 85 80 f4 ff ff 	lea    -0xb80(%rbp),%rax
    e016:	48 83 c0 38          	add    $0x38,%rax
    e01a:	48 89 85 f8 f3 ff ff 	mov    %rax,-0xc08(%rbp)
    e021:	c7 85 24 f3 ff ff 00 	movl   $0x0,-0xcdc(%rbp)
    e028:	00 00 00 
    e02b:	eb 1e                	jmp    e04b <func_24+0x8ac>
    e02d:	8b 85 24 f3 ff ff    	mov    -0xcdc(%rbp),%eax
    e033:	48 98                	cltq   
    e035:	48 8d 15 dc e5 00 00 	lea    0xe5dc(%rip),%rdx        # 1c618 <g_194>
    e03c:	48 89 94 c5 20 f4 ff 	mov    %rdx,-0xbe0(%rbp,%rax,8)
    e043:	ff 
    e044:	83 85 24 f3 ff ff 01 	addl   $0x1,-0xcdc(%rbp)
    e04b:	83 bd 24 f3 ff ff 02 	cmpl   $0x2,-0xcdc(%rbp)
    e052:	7e d9                	jle    e02d <func_24+0x88e>
    e054:	8b 0d 0e fd 00 00    	mov    0xfd0e(%rip),%ecx        # 1dd68 <g_3>
    e05a:	48 8b 85 38 f3 ff ff 	mov    -0xcc8(%rbp),%rax
    e061:	8b 10                	mov    (%rax),%edx
    e063:	48 8b 85 38 f3 ff ff 	mov    -0xcc8(%rbp),%rax
    e06a:	31 ca                	xor    %ecx,%edx
    e06c:	89 10                	mov    %edx,(%rax)
    e06e:	48 8b 85 38 f3 ff ff 	mov    -0xcc8(%rbp),%rax
    e075:	8b 00                	mov    (%rax),%eax
    e077:	48 8b 75 f8          	mov    -0x8(%rbp),%rsi
    e07b:	64 48 33 34 25 28 00 	xor    %fs:0x28,%rsi
    e082:	00 00 
    e084:	74 05                	je     e08b <func_24+0x8ec>
    e086:	e8 e5 bf ff ff       	callq  a070 <__stack_chk_fail@plt>
    e08b:	c9                   	leaveq 
    e08c:	c3                   	retq   

000000000000e08d <func_40>:
    e08d:	f3 0f 1e fa          	endbr64 
    e091:	55                   	push   %rbp
    e092:	48 89 e5             	mov    %rsp,%rbp
    e095:	41 57                	push   %r15
    e097:	41 56                	push   %r14
    e099:	41 55                	push   %r13
    e09b:	41 54                	push   %r12
    e09d:	53                   	push   %rbx
    e09e:	48 81 ec d8 03 00 00 	sub    $0x3d8,%rsp
    e0a5:	89 bd 1c fc ff ff    	mov    %edi,-0x3e4(%rbp)
    e0ab:	89 f0                	mov    %esi,%eax
    e0ad:	48 89 95 10 fc ff ff 	mov    %rdx,-0x3f0(%rbp)
    e0b4:	88 85 18 fc ff ff    	mov    %al,-0x3e8(%rbp)
    e0ba:	64 48 8b 04 25 28 00 	mov    %fs:0x28,%rax
    e0c1:	00 00 
    e0c3:	48 89 45 c8          	mov    %rax,-0x38(%rbp)
    e0c7:	31 c0                	xor    %eax,%eax
    e0c9:	c7 85 38 fc ff ff 01 	movl   $0x1,-0x3c8(%rbp)
    e0d0:	00 00 00 
    e0d3:	48 8d 05 5a 9f 00 00 	lea    0x9f5a(%rip),%rax        # 18034 <g_32>
    e0da:	48 89 85 a0 fc ff ff 	mov    %rax,-0x360(%rbp)
    e0e1:	c7 85 48 fc ff ff 05 	movl   $0x5,-0x3b8(%rbp)
    e0e8:	00 00 00 
    e0eb:	66 c7 85 30 fc ff ff 	movw   $0x470c,-0x3d0(%rbp)
    e0f2:	0c 47 
    e0f4:	c7 85 40 fc ff ff 02 	movl   $0x2,-0x3c0(%rbp)
    e0fb:	00 00 00 
    e0fe:	48 8d 05 d3 e5 00 00 	lea    0xe5d3(%rip),%rax        # 1c6d8 <g_581>
    e105:	48 89 85 78 fc ff ff 	mov    %rax,-0x388(%rbp)
    e10c:	48 c7 85 80 fc ff ff 	movq   $0x1,-0x380(%rbp)
    e113:	01 00 00 00 
    e117:	66 c7 85 34 fc ff ff 	movw   $0xffff,-0x3cc(%rbp)
    e11e:	ff ff 
    e120:	48 8d 05 29 b2 00 00 	lea    0xb229(%rip),%rax        # 19350 <g_503+0x8>
    e127:	48 89 85 88 fc ff ff 	mov    %rax,-0x378(%rbp)
    e12e:	c7 85 44 fc ff ff ff 	movl   $0xffffffff,-0x3bc(%rbp)
    e135:	ff ff ff 
    e138:	8b 15 2a fc 00 00    	mov    0xfc2a(%rip),%edx        # 1dd68 <g_3>
    e13e:	8b 05 f4 9e 00 00    	mov    0x9ef4(%rip),%eax        # 18038 <g_35>
    e144:	21 d0                	and    %edx,%eax
    e146:	89 05 ec 9e 00 00    	mov    %eax,0x9eec(%rip)        # 18038 <g_35>
    e14c:	8b 85 38 fc ff ff    	mov    -0x3c8(%rbp),%eax
    e152:	85 c0                	test   %eax,%eax
    e154:	0f 84 ea 01 00 00    	je     e344 <func_40+0x2b7>
    e15a:	48 8d 05 db 9e 00 00 	lea    0x9edb(%rip),%rax        # 1803c <g_64>
    e161:	48 89 85 a8 fc ff ff 	mov    %rax,-0x358(%rbp)
    e168:	48 8d 05 c5 9e 00 00 	lea    0x9ec5(%rip),%rax        # 18034 <g_32>
    e16f:	48 89 85 70 fc ff ff 	mov    %rax,-0x390(%rbp)
    e176:	48 8d 85 70 fc ff ff 	lea    -0x390(%rbp),%rax
    e17d:	48 89 85 b0 fc ff ff 	mov    %rax,-0x350(%rbp)
    e184:	c7 85 54 fc ff ff 18 	movl   $0xa55a4118,-0x3ac(%rbp)
    e18b:	41 5a a5 
    e18e:	48 8d 85 38 fc ff ff 	lea    -0x3c8(%rbp),%rax
    e195:	48 89 85 b8 fc ff ff 	mov    %rax,-0x348(%rbp)
    e19c:	48 c7 85 c0 fc ff ff 	movq   $0x0,-0x340(%rbp)
    e1a3:	00 00 00 00 
    e1a7:	48 8d 05 aa b1 00 00 	lea    0xb1aa(%rip),%rax        # 19358 <g_614>
    e1ae:	48 89 85 c8 fc ff ff 	mov    %rax,-0x338(%rbp)
    e1b5:	8b 05 ad a3 00 00    	mov    0xa3ad(%rip),%eax        # 18568 <g_228>
    e1bb:	0f bf d8             	movswl %ax,%ebx
    e1be:	8b 05 6c 9e 00 00    	mov    0x9e6c(%rip),%eax        # 18030 <g_6>
    e1c4:	44 0f b6 f0          	movzbl %al,%r14d
    e1c8:	4c 0f be ad 18 fc ff 	movsbq -0x3e8(%rbp),%r13
    e1cf:	ff 
    e1d0:	8b 85 1c fc ff ff    	mov    -0x3e4(%rbp),%eax
    e1d6:	44 0f b6 e0          	movzbl %al,%r12d
    e1da:	0f b6 05 53 9e 00 00 	movzbl 0x9e53(%rip),%eax        # 18034 <g_32>
    e1e1:	0f b6 c0             	movzbl %al,%eax
    e1e4:	89 c6                	mov    %eax,%esi
    e1e6:	bf 00 00 00 00       	mov    $0x0,%edi
    e1eb:	e8 a3 c9 ff ff       	callq  ab93 <safe_mul_func_uint8_t_u_u>
    e1f0:	8b 05 3a 9e 00 00    	mov    0x9e3a(%rip),%eax        # 18030 <g_6>
    e1f6:	48 63 c8             	movslq %eax,%rcx
    e1f9:	48 8b 95 70 fc ff ff 	mov    -0x390(%rbp),%rdx
    e200:	48 8b 85 b0 fc ff ff 	mov    -0x350(%rbp),%rax
    e207:	48 89 10             	mov    %rdx,(%rax)
    e20a:	48 8b 85 b0 fc ff ff 	mov    -0x350(%rbp),%rax
    e211:	48 8b 00             	mov    (%rax),%rax
    e214:	48 8b 95 10 fc ff ff 	mov    -0x3f0(%rbp),%rdx
    e21b:	48 89 ce             	mov    %rcx,%rsi
    e21e:	48 89 c7             	mov    %rax,%rdi
    e221:	e8 d1 35 00 00       	callq  117f7 <func_74>
    e226:	48 89 c7             	mov    %rax,%rdi
    e229:	e8 88 32 00 00       	callq  114b6 <func_72>
    e22e:	8b 95 54 fc ff ff    	mov    -0x3ac(%rbp),%edx
    e234:	48 63 d2             	movslq %edx,%rdx
    e237:	48 39 d0             	cmp    %rdx,%rax
    e23a:	77 11                	ja     e24d <func_40+0x1c0>
    e23c:	8b 85 38 fc ff ff    	mov    -0x3c8(%rbp),%eax
    e242:	85 c0                	test   %eax,%eax
    e244:	74 07                	je     e24d <func_40+0x1c0>
    e246:	b8 01 00 00 00       	mov    $0x1,%eax
    e24b:	eb 05                	jmp    e252 <func_40+0x1c5>
    e24d:	b8 00 00 00 00       	mov    $0x0,%eax
    e252:	48 98                	cltq   
    e254:	44 89 f1             	mov    %r14d,%ecx
    e257:	4c 89 ea             	mov    %r13,%rdx
    e25a:	44 89 e6             	mov    %r12d,%esi
    e25d:	48 89 c7             	mov    %rax,%rdi
    e260:	e8 d7 1e 00 00       	callq  1013c <func_67>
    e265:	44 0f b6 e0          	movzbl %al,%r12d
    e269:	48 8b 85 a8 fc ff ff 	mov    -0x358(%rbp),%rax
    e270:	0f b7 00             	movzwl (%rax),%eax
    e273:	8d 50 ff             	lea    -0x1(%rax),%edx
    e276:	48 8b 85 a8 fc ff ff 	mov    -0x358(%rbp),%rax
    e27d:	66 89 10             	mov    %dx,(%rax)
    e280:	48 8b 85 a8 fc ff ff 	mov    -0x358(%rbp),%rax
    e287:	0f b7 00             	movzwl (%rax),%eax
    e28a:	0f b7 d0             	movzwl %ax,%edx
    e28d:	8b 05 9d 9d 00 00    	mov    0x9d9d(%rip),%eax        # 18030 <g_6>
    e293:	09 d0                	or     %edx,%eax
    e295:	89 c6                	mov    %eax,%esi
    e297:	bf 01 00 00 00       	mov    $0x1,%edi
    e29c:	e8 1d ca ff ff       	callq  acbe <safe_rshift_func_uint8_t_u_u>
    e2a1:	0f b6 c0             	movzbl %al,%eax
    e2a4:	be 05 00 00 00       	mov    $0x5,%esi
    e2a9:	89 c7                	mov    %eax,%edi
    e2ab:	e8 b3 c2 ff ff       	callq  a563 <safe_rshift_func_int16_t_s_u>
    e2b0:	0f b6 c0             	movzbl %al,%eax
    e2b3:	44 89 e6             	mov    %r12d,%esi
    e2b6:	89 c7                	mov    %eax,%edi
    e2b8:	e8 bb c8 ff ff       	callq  ab78 <safe_sub_func_uint8_t_u_u>
    e2bd:	0f b6 d0             	movzbl %al,%edx
    e2c0:	48 83 bd a0 fc ff ff 	cmpq   $0x0,-0x360(%rbp)
    e2c7:	00 
    e2c8:	0f 94 c0             	sete   %al
    e2cb:	0f b6 c0             	movzbl %al,%eax
    e2ce:	89 d6                	mov    %edx,%esi
    e2d0:	89 c7                	mov    %eax,%edi
    e2d2:	e8 bc c8 ff ff       	callq  ab93 <safe_mul_func_uint8_t_u_u>
    e2d7:	0f b6 c0             	movzbl %al,%eax
    e2da:	89 de                	mov    %ebx,%esi
    e2dc:	89 c7                	mov    %eax,%edi
    e2de:	e8 f0 c0 ff ff       	callq  a3d3 <safe_sub_func_int16_t_s_s>
    e2e3:	0f b6 c0             	movzbl %al,%eax
    e2e6:	48 8d 35 43 9d 00 00 	lea    0x9d43(%rip),%rsi        # 18030 <g_6>
    e2ed:	89 c7                	mov    %eax,%edi
    e2ef:	e8 23 1e 00 00       	callq  10117 <func_49>
    e2f4:	8b 85 54 fc ff ff    	mov    -0x3ac(%rbp),%eax
    e2fa:	89 c7                	mov    %eax,%edi
    e2fc:	e8 08 0e 00 00       	callq  f109 <func_47>
    e301:	48 8b 85 b8 fc ff ff 	mov    -0x348(%rbp),%rax
    e308:	c7 00 01 00 00 00    	movl   $0x1,(%rax)
    e30e:	8b 05 10 9d 00 00    	mov    0x9d10(%rip),%eax        # 18024 <g_2>
    e314:	98                   	cwtl   
    e315:	be 05 00 00 00       	mov    $0x5,%esi
    e31a:	89 c7                	mov    %eax,%edi
    e31c:	e8 c0 c1 ff ff       	callq  a4e1 <safe_lshift_func_int16_t_s_u>
    e321:	66 83 f8 01          	cmp    $0x1,%ax
    e325:	0f 9e c0             	setle  %al
    e328:	0f b6 d0             	movzbl %al,%edx
    e32b:	48 8b 85 c8 fc ff ff 	mov    -0x338(%rbp),%rax
    e332:	8b 00                	mov    (%rax),%eax
    e334:	31 c2                	xor    %eax,%edx
    e336:	48 8b 85 c8 fc ff ff 	mov    -0x338(%rbp),%rax
    e33d:	89 10                	mov    %edx,(%rax)
    e33f:	e9 27 02 00 00       	jmpq   e56b <func_40+0x4de>
    e344:	48 8d 05 55 dc 00 00 	lea    0xdc55(%rip),%rax        # 1bfa0 <g_156+0x20>
    e34b:	48 89 85 68 fc ff ff 	mov    %rax,-0x398(%rbp)
    e352:	48 8d 85 68 fc ff ff 	lea    -0x398(%rbp),%rax
    e359:	48 89 85 90 fc ff ff 	mov    %rax,-0x370(%rbp)
    e360:	48 8d 85 c0 fd ff ff 	lea    -0x240(%rbp),%rax
    e367:	48 83 c0 10          	add    $0x10,%rax
    e36b:	48 89 85 70 fc ff ff 	mov    %rax,-0x390(%rbp)
    e372:	48 8d 85 70 fc ff ff 	lea    -0x390(%rbp),%rax
    e379:	48 89 85 98 fc ff ff 	mov    %rax,-0x368(%rbp)
    e380:	c7 85 3c fc ff ff 00 	movl   $0x0,-0x3c4(%rbp)
    e387:	00 00 00 
    e38a:	eb 1e                	jmp    e3aa <func_40+0x31d>
    e38c:	8b 85 3c fc ff ff    	mov    -0x3c4(%rbp),%eax
    e392:	48 98                	cltq   
    e394:	48 8d 15 bd af 00 00 	lea    0xafbd(%rip),%rdx        # 19358 <g_614>
    e39b:	48 89 94 c5 c0 fd ff 	mov    %rdx,-0x240(%rbp,%rax,8)
    e3a2:	ff 
    e3a3:	83 85 3c fc ff ff 01 	addl   $0x1,-0x3c4(%rbp)
    e3aa:	83 bd 3c fc ff ff 03 	cmpl   $0x3,-0x3c4(%rbp)
    e3b1:	7e d9                	jle    e38c <func_40+0x2ff>
    e3b3:	48 8b 05 ae db 00 00 	mov    0xdbae(%rip),%rax        # 1bf68 <g_129>
    e3ba:	0f b7 00             	movzwl (%rax),%eax
    e3bd:	66 3d 5e e2          	cmp    $0xe25e,%ax
    e3c1:	0f 87 a5 00 00 00    	ja     e46c <func_40+0x3df>
    e3c7:	66 c7 85 30 fc ff ff 	movw   $0xffff,-0x3d0(%rbp)
    e3ce:	ff ff 
    e3d0:	83 bd 48 fc ff ff 00 	cmpl   $0x0,-0x3b8(%rbp)
    e3d7:	75 09                	jne    e3e2 <func_40+0x355>
    e3d9:	80 bd 18 fc ff ff 00 	cmpb   $0x0,-0x3e8(%rbp)
    e3e0:	74 07                	je     e3e9 <func_40+0x35c>
    e3e2:	80 bd 18 fc ff ff 00 	cmpb   $0x0,-0x3e8(%rbp)
    e3e9:	8b 85 48 fc ff ff    	mov    -0x3b8(%rbp),%eax
    e3ef:	0f be c0             	movsbl %al,%eax
    e3f2:	89 c7                	mov    %eax,%edi
    e3f4:	e8 c6 bd ff ff       	callq  a1bf <safe_unary_minus_func_int8_t_s>
    e3f9:	84 c0                	test   %al,%al
    e3fb:	0f 9f c0             	setg   %al
    e3fe:	0f b6 c0             	movzbl %al,%eax
    e401:	be e7 00 00 00       	mov    $0xe7,%esi
    e406:	89 c7                	mov    %eax,%edi
    e408:	e8 4d c7 ff ff       	callq  ab5a <safe_add_func_uint8_t_u_u>
    e40d:	0f b6 d0             	movzbl %al,%edx
    e410:	48 8b 05 59 db 00 00 	mov    0xdb59(%rip),%rax        # 1bf70 <g_131>
    e417:	8b 30                	mov    (%rax),%esi
    e419:	48 8b 8d 68 fc ff ff 	mov    -0x398(%rbp),%rcx
    e420:	48 8b 85 90 fc ff ff 	mov    -0x370(%rbp),%rax
    e427:	48 89 08             	mov    %rcx,(%rax)
    e42a:	48 8b 85 90 fc ff ff 	mov    -0x370(%rbp),%rax
    e431:	48 8b 00             	mov    (%rax),%rax
    e434:	48 8d 0d 65 dd 00 00 	lea    0xdd65(%rip),%rcx        # 1c1a0 <g_156+0x220>
    e43b:	48 39 c8             	cmp    %rcx,%rax
    e43e:	0f 95 c0             	setne  %al
    e441:	0f b6 c0             	movzbl %al,%eax
    e444:	39 c6                	cmp    %eax,%esi
    e446:	0f 9f c0             	setg   %al
    e449:	0f b6 c0             	movzbl %al,%eax
    e44c:	48 89 d6             	mov    %rdx,%rsi
    e44f:	48 89 c7             	mov    %rax,%rdi
    e452:	e8 58 cc ff ff       	callq  b0af <safe_div_func_uint64_t_u_u>
    e457:	89 c2                	mov    %eax,%edx
    e459:	8b 85 48 fc ff ff    	mov    -0x3b8(%rbp),%eax
    e45f:	89 d6                	mov    %edx,%esi
    e461:	89 c7                	mov    %eax,%edi
    e463:	e8 95 ca ff ff       	callq  aefd <safe_mod_func_uint32_t_u_u>
    e468:	85 c0                	test   %eax,%eax
    e46a:	74 07                	je     e473 <func_40+0x3e6>
    e46c:	ba 01 00 00 00       	mov    $0x1,%edx
    e471:	eb 05                	jmp    e478 <func_40+0x3eb>
    e473:	ba 00 00 00 00       	mov    $0x0,%edx
    e478:	0f b7 05 f9 f8 00 00 	movzwl 0xf8f9(%rip),%eax        # 1dd78 <g_356>
    e47f:	0f b7 c0             	movzwl %ax,%eax
    e482:	39 c2                	cmp    %eax,%edx
    e484:	0f 95 c2             	setne  %dl
    e487:	48 8b 05 e2 da 00 00 	mov    0xdae2(%rip),%rax        # 1bf70 <g_131>
    e48e:	0f b6 d2             	movzbl %dl,%edx
    e491:	89 10                	mov    %edx,(%rax)
    e493:	0f b7 05 f6 a2 00 00 	movzwl 0xa2f6(%rip),%eax        # 18790 <g_362>
    e49a:	0f b6 c0             	movzbl %al,%eax
    e49d:	be 02 00 00 00       	mov    $0x2,%esi
    e4a2:	89 c7                	mov    %eax,%edi
    e4a4:	e8 32 c7 ff ff       	callq  abdb <safe_div_func_uint8_t_u_u>
    e4a9:	0f b6 c0             	movzbl %al,%eax
    e4ac:	be 17 06 00 00       	mov    $0x617,%esi
    e4b1:	89 c7                	mov    %eax,%edi
    e4b3:	e8 85 c8 ff ff       	callq  ad3d <safe_mul_func_uint16_t_u_u>
    e4b8:	48 8b 05 59 ae 00 00 	mov    0xae59(%rip),%rax        # 19318 <g_443+0x18>
    e4bf:	89 c3                	mov    %eax,%ebx
    e4c1:	48 8b 05 a0 da 00 00 	mov    0xdaa0(%rip),%rax        # 1bf68 <g_129>
    e4c8:	0f b7 00             	movzwl (%rax),%eax
    e4cb:	66 0d c3 2a          	or     $0x2ac3,%ax
    e4cf:	98                   	cwtl   
    e4d0:	be 05 00 00 00       	mov    $0x5,%esi
    e4d5:	89 c7                	mov    %eax,%edi
    e4d7:	e8 05 c0 ff ff       	callq  a4e1 <safe_lshift_func_int16_t_s_u>
    e4dc:	48 8b 05 85 da 00 00 	mov    0xda85(%rip),%rax        # 1bf68 <g_129>
    e4e3:	0f b7 00             	movzwl (%rax),%eax
    e4e6:	0f bf d0             	movswl %ax,%edx
    e4e9:	48 8b 85 70 fc ff ff 	mov    -0x390(%rbp),%rax
    e4f0:	48 8b 00             	mov    (%rax),%rax
    e4f3:	8b 00                	mov    (%rax),%eax
    e4f5:	98                   	cwtl   
    e4f6:	89 d6                	mov    %edx,%esi
    e4f8:	89 c7                	mov    %eax,%edi
    e4fa:	e8 f6 be ff ff       	callq  a3f5 <safe_mul_func_int16_t_s_s>
    e4ff:	66 0f be 95 18 fc ff 	movsbw -0x3e8(%rbp),%dx
    e506:	ff 
    e507:	66 39 d0             	cmp    %dx,%ax
    e50a:	be 01 00 00 00       	mov    $0x1,%esi
    e50f:	bf 01 00 00 00       	mov    $0x1,%edi
    e514:	e8 61 c9 ff ff       	callq  ae7a <safe_rshift_func_uint16_t_u_u>
    e519:	0f b7 d0             	movzwl %ax,%edx
    e51c:	8b 05 66 9f 00 00    	mov    0x9f66(%rip),%eax        # 18488 <g_222+0x8>
    e522:	39 c2                	cmp    %eax,%edx
    e524:	0f 9c c0             	setl   %al
    e527:	0f b6 c0             	movzbl %al,%eax
    e52a:	89 de                	mov    %ebx,%esi
    e52c:	89 c7                	mov    %eax,%edi
    e52e:	e8 85 c9 ff ff       	callq  aeb8 <safe_add_func_uint32_t_u_u>
    e533:	48 8d 85 70 fc ff ff 	lea    -0x390(%rbp),%rax
    e53a:	48 39 85 98 fc ff ff 	cmp    %rax,-0x368(%rbp)
    e541:	0f 94 c0             	sete   %al
    e544:	0f b6 d0             	movzbl %al,%edx
    e547:	48 8b 05 f2 9a 00 00 	mov    0x9af2(%rip),%rax        # 18040 <g_92>
    e54e:	48 39 c2             	cmp    %rax,%rdx
    e551:	0f 9f c0             	setg   %al
    e554:	0f b6 c8             	movzbl %al,%ecx
    e557:	48 8b 05 12 da 00 00 	mov    0xda12(%rip),%rax        # 1bf70 <g_131>
    e55e:	8b 10                	mov    (%rax),%edx
    e560:	48 8b 05 09 da 00 00 	mov    0xda09(%rip),%rax        # 1bf70 <g_131>
    e567:	09 ca                	or     %ecx,%edx
    e569:	89 10                	mov    %edx,(%rax)
    e56b:	c6 85 18 fc ff ff f4 	movb   $0xf4,-0x3e8(%rbp)
    e572:	e9 3c 0b 00 00       	jmpq   f0b3 <func_40+0x1026>
    e577:	48 c7 85 d0 fc ff ff 	movq   $0xffffffffffffffff,-0x330(%rbp)
    e57e:	ff ff ff ff 
    e582:	c7 85 58 fc ff ff 05 	movl   $0x5,-0x3a8(%rbp)
    e589:	00 00 00 
    e58c:	48 b8 81 ed 90 6d 0d 	movabs $0xf294660d6d90ed81,%rax
    e593:	66 94 f2 
    e596:	48 89 85 d8 fc ff ff 	mov    %rax,-0x328(%rbp)
    e59d:	48 8d 05 34 e1 00 00 	lea    0xe134(%rip),%rax        # 1c6d8 <g_581>
    e5a4:	48 89 85 60 fc ff ff 	mov    %rax,-0x3a0(%rbp)
    e5ab:	c6 85 2f fc ff ff cb 	movb   $0xcb,-0x3d1(%rbp)
    e5b2:	48 c7 85 e0 fc ff ff 	movq   $0x0,-0x320(%rbp)
    e5b9:	00 00 00 00 
    e5bd:	c7 85 4c fc ff ff 00 	movl   $0x0,-0x3b4(%rbp)
    e5c4:	00 00 00 
    e5c7:	eb 1e                	jmp    e5e7 <func_40+0x55a>
    e5c9:	8b 85 4c fc ff ff    	mov    -0x3b4(%rbp),%eax
    e5cf:	48 98                	cltq   
    e5d1:	48 8d 15 94 f7 00 00 	lea    0xf794(%rip),%rdx        # 1dd6c <g_91>
    e5d8:	48 89 94 c5 70 fd ff 	mov    %rdx,-0x290(%rbp,%rax,8)
    e5df:	ff 
    e5e0:	83 85 4c fc ff ff 01 	addl   $0x1,-0x3b4(%rbp)
    e5e7:	83 bd 4c fc ff ff 09 	cmpl   $0x9,-0x3b4(%rbp)
    e5ee:	7e d9                	jle    e5c9 <func_40+0x53c>
    e5f0:	c7 05 76 9f 00 00 00 	movl   $0x0,0x9f76(%rip)        # 18570 <g_256>
    e5f7:	00 00 00 
    e5fa:	90                   	nop
    e5fb:	8b 05 6f 9f 00 00    	mov    0x9f6f(%rip),%eax        # 18570 <g_256>
    e601:	83 f8 16             	cmp    $0x16,%eax
    e604:	0f 8e 7b 0a 00 00    	jle    f085 <func_40+0xff8>
    e60a:	66 c7 85 32 fc ff ff 	movw   $0x5e29,-0x3ce(%rbp)
    e611:	29 5e 
    e613:	48 8d 05 1e 9a 00 00 	lea    0x9a1e(%rip),%rax        # 18038 <g_35>
    e61a:	48 89 85 e8 fc ff ff 	mov    %rax,-0x318(%rbp)
    e621:	48 8d 05 2c a0 00 00 	lea    0xa02c(%rip),%rax        # 18654 <g_284+0xd4>
    e628:	48 89 85 f0 fc ff ff 	mov    %rax,-0x310(%rbp)
    e62f:	c7 85 40 fd ff ff ff 	movl   $0xff0000ff,-0x2c0(%rbp)
    e636:	00 00 ff 
    e639:	66 c7 85 44 fd ff ff 	movw   $0x0,-0x2bc(%rbp)
    e640:	00 00 
    e642:	c6 85 46 fd ff ff ff 	movb   $0xff,-0x2ba(%rbp)
    e649:	c7 85 47 fd ff ff 01 	movl   $0x101ff01,-0x2b9(%rbp)
    e650:	ff 01 01 
    e653:	66 c7 85 4b fd ff ff 	movw   $0x109,-0x2b5(%rbp)
    e65a:	09 01 
    e65c:	c6 85 4d fd ff ff 01 	movb   $0x1,-0x2b3(%rbp)
    e663:	c7 85 4e fd ff ff ff 	movl   $0xff09ffff,-0x2b2(%rbp)
    e66a:	ff 09 ff 
    e66d:	66 c7 85 52 fd ff ff 	movw   $0x9ff,-0x2ae(%rbp)
    e674:	ff 09 
    e676:	c6 85 54 fd ff ff ff 	movb   $0xff,-0x2ac(%rbp)
    e67d:	c7 85 55 fd ff ff 09 	movl   $0xff010109,-0x2ab(%rbp)
    e684:	01 01 ff 
    e687:	66 c7 85 59 fd ff ff 	movw   $0x101,-0x2a7(%rbp)
    e68e:	01 01 
    e690:	c6 85 5b fd ff ff 09 	movb   $0x9,-0x2a5(%rbp)
    e697:	c7 85 5c fd ff ff 00 	movl   $0xff00,-0x2a4(%rbp)
    e69e:	ff 00 00 
    e6a1:	66 c7 85 60 fd ff ff 	movw   $0xff,-0x2a0(%rbp)
    e6a8:	ff 00 
    e6aa:	c6 85 62 fd ff ff 00 	movb   $0x0,-0x29e(%rbp)
    e6b1:	48 8d 05 78 ab 00 00 	lea    0xab78(%rip),%rax        # 19230 <g_388>
    e6b8:	48 89 85 68 fc ff ff 	mov    %rax,-0x398(%rbp)
    e6bf:	c7 85 50 fc ff ff 00 	movl   $0x0,-0x3b0(%rbp)
    e6c6:	00 00 00 
    e6c9:	eb 14                	jmp    e6df <func_40+0x652>
    e6cb:	8b 85 50 fc ff ff    	mov    -0x3b0(%rbp),%eax
    e6d1:	48 98                	cltq   
    e6d3:	c6 44 05 c7 94       	movb   $0x94,-0x39(%rbp,%rax,1)
    e6d8:	83 85 50 fc ff ff 01 	addl   $0x1,-0x3b0(%rbp)
    e6df:	83 bd 50 fc ff ff 00 	cmpl   $0x0,-0x3b0(%rbp)
    e6e6:	7e e3                	jle    e6cb <func_40+0x63e>
    e6e8:	8b 05 ca 99 00 00    	mov    0x99ca(%rip),%eax        # 180b8 <g_195>
    e6ee:	0f be d8             	movsbl %al,%ebx
    e6f1:	44 8b 25 40 9d 00 00 	mov    0x9d40(%rip),%r12d        # 18438 <g_218>
    e6f8:	44 0f be ad 18 fc ff 	movsbl -0x3e8(%rbp),%r13d
    e6ff:	ff 
    e700:	48 8b 85 d0 fc ff ff 	mov    -0x330(%rbp),%rax
    e707:	44 0f be f0          	movsbl %al,%r14d
    e70b:	8b 85 1c fc ff ff    	mov    -0x3e4(%rbp),%eax
    e711:	0f b7 d0             	movzwl %ax,%edx
    e714:	8b 05 fe 9c 00 00    	mov    0x9cfe(%rip),%eax        # 18418 <g_217+0x18>
    e71a:	85 c0                	test   %eax,%eax
    e71c:	74 21                	je     e73f <func_40+0x6b2>
    e71e:	48 8b 85 e8 fc ff ff 	mov    -0x318(%rbp),%rax
    e725:	c7 00 00 00 00 00    	movl   $0x0,(%rax)
    e72b:	48 8b 85 e8 fc ff ff 	mov    -0x318(%rbp),%rax
    e732:	8b 00                	mov    (%rax),%eax
    e734:	85 c0                	test   %eax,%eax
    e736:	74 07                	je     e73f <func_40+0x6b2>
    e738:	b9 01 00 00 00       	mov    $0x1,%ecx
    e73d:	eb 05                	jmp    e744 <func_40+0x6b7>
    e73f:	b9 00 00 00 00       	mov    $0x0,%ecx
    e744:	48 8b 85 f0 fc ff ff 	mov    -0x310(%rbp),%rax
    e74b:	0f b7 00             	movzwl (%rax),%eax
    e74e:	89 c6                	mov    %eax,%esi
    e750:	89 c8                	mov    %ecx,%eax
    e752:	31 f0                	xor    %esi,%eax
    e754:	89 c1                	mov    %eax,%ecx
    e756:	48 8b 85 f0 fc ff ff 	mov    -0x310(%rbp),%rax
    e75d:	66 89 08             	mov    %cx,(%rax)
    e760:	48 8b 85 f0 fc ff ff 	mov    -0x310(%rbp),%rax
    e767:	0f b7 00             	movzwl (%rax),%eax
    e76a:	0f b7 c0             	movzwl %ax,%eax
    e76d:	89 d6                	mov    %edx,%esi
    e76f:	89 c7                	mov    %eax,%edi
    e771:	e8 c7 c5 ff ff       	callq  ad3d <safe_mul_func_uint16_t_u_u>
    e776:	0f b7 95 32 fc ff ff 	movzwl -0x3ce(%rbp),%edx
    e77d:	48 8b 05 e4 d7 00 00 	mov    0xd7e4(%rip),%rax        # 1bf68 <g_129>
    e784:	66 89 10             	mov    %dx,(%rax)
    e787:	0f b7 00             	movzwl (%rax),%eax
    e78a:	0c f2                	or     $0xf2,%al
    e78c:	0f b7 c0             	movzwl %ax,%eax
    e78f:	89 85 40 fc ff ff    	mov    %eax,-0x3c0(%rbp)
    e795:	81 bd 40 fc ff ff 9c 	cmpl   $0x5dbbeb9c,-0x3c0(%rbp)
    e79c:	eb bb 5d 
    e79f:	0f 9f c0             	setg   %al
    e7a2:	0f b6 c0             	movzbl %al,%eax
    e7a5:	be a9 72 00 00       	mov    $0x72a9,%esi
    e7aa:	89 c7                	mov    %eax,%edi
    e7ac:	e8 a4 bc ff ff       	callq  a455 <safe_div_func_int16_t_s_s>
    e7b1:	66 85 c0             	test   %ax,%ax
    e7b4:	0f 94 c0             	sete   %al
    e7b7:	0f b6 c0             	movzbl %al,%eax
    e7ba:	48 be e0 0d f2 51 ca 	movabs $0xdd6598ca51f20de0,%rsi
    e7c1:	98 65 dd 
    e7c4:	48 89 c7             	mov    %rax,%rdi
    e7c7:	e8 e3 c8 ff ff       	callq  b0af <safe_div_func_uint64_t_u_u>
    e7cc:	0f b7 d0             	movzwl %ax,%edx
    e7cf:	48 8b 85 d0 fc ff ff 	mov    -0x330(%rbp),%rax
    e7d6:	0f b7 c0             	movzwl %ax,%eax
    e7d9:	89 d6                	mov    %edx,%esi
    e7db:	89 c7                	mov    %eax,%edi
    e7dd:	e8 5b c5 ff ff       	callq  ad3d <safe_mul_func_uint16_t_u_u>
    e7e2:	0f b7 d0             	movzwl %ax,%edx
    e7e5:	48 8b 05 44 ab 00 00 	mov    0xab44(%rip),%rax        # 19330 <g_443+0x30>
    e7ec:	48 39 c2             	cmp    %rax,%rdx
    e7ef:	0f 95 c0             	setne  %al
    e7f2:	0f b6 d0             	movzbl %al,%edx
    e7f5:	8b 05 31 98 00 00    	mov    0x9831(%rip),%eax        # 1802c <g_5>
    e7fb:	39 c2                	cmp    %eax,%edx
    e7fd:	0f 9c c0             	setl   %al
    e800:	0f b6 c0             	movzbl %al,%eax
    e803:	44 89 f6             	mov    %r14d,%esi
    e806:	89 c7                	mov    %eax,%edi
    e808:	e8 05 ba ff ff       	callq  a212 <safe_mul_func_int8_t_s_s>
    e80d:	38 85 18 fc ff ff    	cmp    %al,-0x3e8(%rbp)
    e813:	7c 07                	jl     e81c <func_40+0x78f>
    e815:	83 bd 58 fc ff ff 00 	cmpl   $0x0,-0x3a8(%rbp)
    e81c:	0f b7 85 30 fc ff ff 	movzwl -0x3d0(%rbp),%eax
    e823:	0f bf d0             	movswl %ax,%edx
    e826:	0f b6 85 55 fd ff ff 	movzbl -0x2ab(%rbp),%eax
    e82d:	0f b6 c0             	movzbl %al,%eax
    e830:	39 c2                	cmp    %eax,%edx
    e832:	0f 9e c0             	setle  %al
    e835:	89 c2                	mov    %eax,%edx
    e837:	48 8b 85 a0 fc ff ff 	mov    -0x360(%rbp),%rax
    e83e:	88 10                	mov    %dl,(%rax)
    e840:	48 8b 85 a0 fc ff ff 	mov    -0x360(%rbp),%rax
    e847:	0f b6 00             	movzbl (%rax),%eax
    e84a:	0f be d0             	movsbl %al,%edx
    e84d:	b8 05 9b ff ff       	mov    $0xffff9b05,%eax
    e852:	0f b7 c0             	movzwl %ax,%eax
    e855:	39 c2                	cmp    %eax,%edx
    e857:	0f 95 c0             	setne  %al
    e85a:	0f b6 d0             	movzbl %al,%edx
    e85d:	48 8b 05 fc aa 00 00 	mov    0xaafc(%rip),%rax        # 19360 <g_675>
    e864:	48 39 c2             	cmp    %rax,%rdx
    e867:	0f 9e c0             	setle  %al
    e86a:	0f b6 c0             	movzbl %al,%eax
    e86d:	89 85 58 fc ff ff    	mov    %eax,-0x3a8(%rbp)
    e873:	83 bd 48 fc ff ff 00 	cmpl   $0x0,-0x3b8(%rbp)
    e87a:	0f 9e c0             	setle  %al
    e87d:	0f b6 c0             	movzbl %al,%eax
    e880:	44 89 ee             	mov    %r13d,%esi
    e883:	89 c7                	mov    %eax,%edi
    e885:	e8 64 ba ff ff       	callq  a2ee <safe_lshift_func_int8_t_s_u>
    e88a:	0f b6 c0             	movzbl %al,%eax
    e88d:	44 89 e6             	mov    %r12d,%esi
    e890:	89 c7                	mov    %eax,%edi
    e892:	e8 6e c3 ff ff       	callq  ac05 <safe_lshift_func_uint8_t_u_s>
    e897:	8b 95 38 fc ff ff    	mov    -0x3c8(%rbp),%edx
    e89d:	31 c2                	xor    %eax,%edx
    e89f:	48 8b 85 d8 fc ff ff 	mov    -0x328(%rbp),%rax
    e8a6:	31 d0                	xor    %edx,%eax
    e8a8:	0f b6 c0             	movzbl %al,%eax
    e8ab:	be 04 00 00 00       	mov    $0x4,%esi
    e8b0:	89 c7                	mov    %eax,%edi
    e8b2:	e8 d6 c3 ff ff       	callq  ac8d <safe_rshift_func_uint8_t_u_s>
    e8b7:	b8 05 9b ff ff       	mov    $0xffff9b05,%eax
    e8bc:	0f be c0             	movsbl %al,%eax
    e8bf:	89 de                	mov    %ebx,%esi
    e8c1:	89 c7                	mov    %eax,%edi
    e8c3:	e8 4a b9 ff ff       	callq  a212 <safe_mul_func_int8_t_s_s>
    e8c8:	c7 85 5c fc ff ff 01 	movl   $0x1,-0x3a4(%rbp)
    e8cf:	00 00 00 
    e8d2:	48 8d 05 db 97 00 00 	lea    0x97db(%rip),%rax        # 180b4 <g_182>
    e8d9:	48 89 85 70 fc ff ff 	mov    %rax,-0x390(%rbp)
    e8e0:	48 8d 85 70 fc ff ff 	lea    -0x390(%rbp),%rax
    e8e7:	48 89 85 f8 fc ff ff 	mov    %rax,-0x308(%rbp)
    e8ee:	66 c7 85 36 fc ff ff 	movw   $0x2944,-0x3ca(%rbp)
    e8f5:	44 29 
    e8f7:	0f b6 45 c7          	movzbl -0x39(%rbp),%eax
    e8fb:	83 c8 13             	or     $0x13,%eax
    e8fe:	88 45 c7             	mov    %al,-0x39(%rbp)
    e901:	48 c7 05 34 97 00 00 	movq   $0x0,0x9734(%rip)        # 18040 <g_92>
    e908:	00 00 00 00 
    e90c:	e9 58 07 00 00       	jmpq   f069 <func_40+0xfdc>
    e911:	48 c7 85 00 fd ff ff 	movq   $0x0,-0x300(%rbp)
    e918:	00 00 00 00 
    e91c:	48 c7 85 08 fd ff ff 	movq   $0x0,-0x2f8(%rbp)
    e923:	00 00 00 00 
    e927:	48 8d 85 32 fc ff ff 	lea    -0x3ce(%rbp),%rax
    e92e:	48 89 85 10 fd ff ff 	mov    %rax,-0x2f0(%rbp)
    e935:	48 c7 85 18 fd ff ff 	movq   $0x0,-0x2e8(%rbp)
    e93c:	00 00 00 00 
    e940:	48 8d 85 60 fc ff ff 	lea    -0x3a0(%rbp),%rax
    e947:	48 89 85 c0 fd ff ff 	mov    %rax,-0x240(%rbp)
    e94e:	48 8d 85 60 fc ff ff 	lea    -0x3a0(%rbp),%rax
    e955:	48 89 85 c8 fd ff ff 	mov    %rax,-0x238(%rbp)
    e95c:	48 8d 85 60 fc ff ff 	lea    -0x3a0(%rbp),%rax
    e963:	48 89 85 d0 fd ff ff 	mov    %rax,-0x230(%rbp)
    e96a:	48 8d 85 60 fc ff ff 	lea    -0x3a0(%rbp),%rax
    e971:	48 89 85 d8 fd ff ff 	mov    %rax,-0x228(%rbp)
    e978:	48 8d 85 60 fc ff ff 	lea    -0x3a0(%rbp),%rax
    e97f:	48 89 85 e0 fd ff ff 	mov    %rax,-0x220(%rbp)
    e986:	48 8d 85 60 fc ff ff 	lea    -0x3a0(%rbp),%rax
    e98d:	48 89 85 e8 fd ff ff 	mov    %rax,-0x218(%rbp)
    e994:	48 8d 85 60 fc ff ff 	lea    -0x3a0(%rbp),%rax
    e99b:	48 89 85 f0 fd ff ff 	mov    %rax,-0x210(%rbp)
    e9a2:	48 8d 85 60 fc ff ff 	lea    -0x3a0(%rbp),%rax
    e9a9:	48 89 85 f8 fd ff ff 	mov    %rax,-0x208(%rbp)
    e9b0:	48 8d 85 60 fc ff ff 	lea    -0x3a0(%rbp),%rax
    e9b7:	48 89 85 00 fe ff ff 	mov    %rax,-0x200(%rbp)
    e9be:	48 8d 85 60 fc ff ff 	lea    -0x3a0(%rbp),%rax
    e9c5:	48 89 85 08 fe ff ff 	mov    %rax,-0x1f8(%rbp)
    e9cc:	48 8d 85 60 fc ff ff 	lea    -0x3a0(%rbp),%rax
    e9d3:	48 89 85 10 fe ff ff 	mov    %rax,-0x1f0(%rbp)
    e9da:	48 8d 85 60 fc ff ff 	lea    -0x3a0(%rbp),%rax
    e9e1:	48 89 85 18 fe ff ff 	mov    %rax,-0x1e8(%rbp)
    e9e8:	48 8d 85 60 fc ff ff 	lea    -0x3a0(%rbp),%rax
    e9ef:	48 89 85 20 fe ff ff 	mov    %rax,-0x1e0(%rbp)
    e9f6:	48 8d 85 60 fc ff ff 	lea    -0x3a0(%rbp),%rax
    e9fd:	48 89 85 28 fe ff ff 	mov    %rax,-0x1d8(%rbp)
    ea04:	48 8d 85 60 fc ff ff 	lea    -0x3a0(%rbp),%rax
    ea0b:	48 89 85 30 fe ff ff 	mov    %rax,-0x1d0(%rbp)
    ea12:	48 8d 85 60 fc ff ff 	lea    -0x3a0(%rbp),%rax
    ea19:	48 89 85 38 fe ff ff 	mov    %rax,-0x1c8(%rbp)
    ea20:	48 8d 85 60 fc ff ff 	lea    -0x3a0(%rbp),%rax
    ea27:	48 89 85 40 fe ff ff 	mov    %rax,-0x1c0(%rbp)
    ea2e:	48 8d 85 60 fc ff ff 	lea    -0x3a0(%rbp),%rax
    ea35:	48 89 85 48 fe ff ff 	mov    %rax,-0x1b8(%rbp)
    ea3c:	48 8d 85 60 fc ff ff 	lea    -0x3a0(%rbp),%rax
    ea43:	48 89 85 50 fe ff ff 	mov    %rax,-0x1b0(%rbp)
    ea4a:	48 8d 85 60 fc ff ff 	lea    -0x3a0(%rbp),%rax
    ea51:	48 89 85 58 fe ff ff 	mov    %rax,-0x1a8(%rbp)
    ea58:	48 8d 85 60 fc ff ff 	lea    -0x3a0(%rbp),%rax
    ea5f:	48 89 85 60 fe ff ff 	mov    %rax,-0x1a0(%rbp)
    ea66:	48 8d 85 60 fc ff ff 	lea    -0x3a0(%rbp),%rax
    ea6d:	48 89 85 68 fe ff ff 	mov    %rax,-0x198(%rbp)
    ea74:	48 8d 85 60 fc ff ff 	lea    -0x3a0(%rbp),%rax
    ea7b:	48 89 85 70 fe ff ff 	mov    %rax,-0x190(%rbp)
    ea82:	48 8d 85 60 fc ff ff 	lea    -0x3a0(%rbp),%rax
    ea89:	48 89 85 78 fe ff ff 	mov    %rax,-0x188(%rbp)
    ea90:	48 8d 85 60 fc ff ff 	lea    -0x3a0(%rbp),%rax
    ea97:	48 89 85 80 fe ff ff 	mov    %rax,-0x180(%rbp)
    ea9e:	48 8d 85 60 fc ff ff 	lea    -0x3a0(%rbp),%rax
    eaa5:	48 89 85 88 fe ff ff 	mov    %rax,-0x178(%rbp)
    eaac:	48 8d 85 60 fc ff ff 	lea    -0x3a0(%rbp),%rax
    eab3:	48 89 85 90 fe ff ff 	mov    %rax,-0x170(%rbp)
    eaba:	48 8d 85 60 fc ff ff 	lea    -0x3a0(%rbp),%rax
    eac1:	48 89 85 98 fe ff ff 	mov    %rax,-0x168(%rbp)
    eac8:	48 8d 85 60 fc ff ff 	lea    -0x3a0(%rbp),%rax
    eacf:	48 89 85 a0 fe ff ff 	mov    %rax,-0x160(%rbp)
    ead6:	48 8d 85 60 fc ff ff 	lea    -0x3a0(%rbp),%rax
    eadd:	48 89 85 a8 fe ff ff 	mov    %rax,-0x158(%rbp)
    eae4:	48 8d 85 60 fc ff ff 	lea    -0x3a0(%rbp),%rax
    eaeb:	48 89 85 b0 fe ff ff 	mov    %rax,-0x150(%rbp)
    eaf2:	48 8d 85 60 fc ff ff 	lea    -0x3a0(%rbp),%rax
    eaf9:	48 89 85 b8 fe ff ff 	mov    %rax,-0x148(%rbp)
    eb00:	48 8d 85 60 fc ff ff 	lea    -0x3a0(%rbp),%rax
    eb07:	48 89 85 c0 fe ff ff 	mov    %rax,-0x140(%rbp)
    eb0e:	48 8d 85 60 fc ff ff 	lea    -0x3a0(%rbp),%rax
    eb15:	48 89 85 c8 fe ff ff 	mov    %rax,-0x138(%rbp)
    eb1c:	48 8d 85 60 fc ff ff 	lea    -0x3a0(%rbp),%rax
    eb23:	48 89 85 d0 fe ff ff 	mov    %rax,-0x130(%rbp)
    eb2a:	48 8d 85 60 fc ff ff 	lea    -0x3a0(%rbp),%rax
    eb31:	48 89 85 d8 fe ff ff 	mov    %rax,-0x128(%rbp)
    eb38:	48 8d 85 60 fc ff ff 	lea    -0x3a0(%rbp),%rax
    eb3f:	48 89 85 e0 fe ff ff 	mov    %rax,-0x120(%rbp)
    eb46:	48 8d 85 60 fc ff ff 	lea    -0x3a0(%rbp),%rax
    eb4d:	48 89 85 e8 fe ff ff 	mov    %rax,-0x118(%rbp)
    eb54:	48 8d 85 60 fc ff ff 	lea    -0x3a0(%rbp),%rax
    eb5b:	48 89 85 f0 fe ff ff 	mov    %rax,-0x110(%rbp)
    eb62:	48 8d 85 60 fc ff ff 	lea    -0x3a0(%rbp),%rax
    eb69:	48 89 85 f8 fe ff ff 	mov    %rax,-0x108(%rbp)
    eb70:	48 8d 85 60 fc ff ff 	lea    -0x3a0(%rbp),%rax
    eb77:	48 89 85 00 ff ff ff 	mov    %rax,-0x100(%rbp)
    eb7e:	48 8d 85 60 fc ff ff 	lea    -0x3a0(%rbp),%rax
    eb85:	48 89 85 08 ff ff ff 	mov    %rax,-0xf8(%rbp)
    eb8c:	48 8d 85 60 fc ff ff 	lea    -0x3a0(%rbp),%rax
    eb93:	48 89 85 10 ff ff ff 	mov    %rax,-0xf0(%rbp)
    eb9a:	48 8d 85 60 fc ff ff 	lea    -0x3a0(%rbp),%rax
    eba1:	48 89 85 18 ff ff ff 	mov    %rax,-0xe8(%rbp)
    eba8:	48 8d 85 60 fc ff ff 	lea    -0x3a0(%rbp),%rax
    ebaf:	48 89 85 20 ff ff ff 	mov    %rax,-0xe0(%rbp)
    ebb6:	48 8d 85 60 fc ff ff 	lea    -0x3a0(%rbp),%rax
    ebbd:	48 89 85 28 ff ff ff 	mov    %rax,-0xd8(%rbp)
    ebc4:	48 8d 85 60 fc ff ff 	lea    -0x3a0(%rbp),%rax
    ebcb:	48 89 85 30 ff ff ff 	mov    %rax,-0xd0(%rbp)
    ebd2:	48 8d 85 60 fc ff ff 	lea    -0x3a0(%rbp),%rax
    ebd9:	48 89 85 38 ff ff ff 	mov    %rax,-0xc8(%rbp)
    ebe0:	48 8d 85 60 fc ff ff 	lea    -0x3a0(%rbp),%rax
    ebe7:	48 89 85 40 ff ff ff 	mov    %rax,-0xc0(%rbp)
    ebee:	48 8d 85 60 fc ff ff 	lea    -0x3a0(%rbp),%rax
    ebf5:	48 89 85 48 ff ff ff 	mov    %rax,-0xb8(%rbp)
    ebfc:	48 8d 85 60 fc ff ff 	lea    -0x3a0(%rbp),%rax
    ec03:	48 89 85 50 ff ff ff 	mov    %rax,-0xb0(%rbp)
    ec0a:	48 8d 85 60 fc ff ff 	lea    -0x3a0(%rbp),%rax
    ec11:	48 89 85 58 ff ff ff 	mov    %rax,-0xa8(%rbp)
    ec18:	48 8d 85 60 fc ff ff 	lea    -0x3a0(%rbp),%rax
    ec1f:	48 89 85 60 ff ff ff 	mov    %rax,-0xa0(%rbp)
    ec26:	48 8d 85 60 fc ff ff 	lea    -0x3a0(%rbp),%rax
    ec2d:	48 89 85 68 ff ff ff 	mov    %rax,-0x98(%rbp)
    ec34:	48 8d 85 60 fc ff ff 	lea    -0x3a0(%rbp),%rax
    ec3b:	48 89 85 70 ff ff ff 	mov    %rax,-0x90(%rbp)
    ec42:	48 8d 85 60 fc ff ff 	lea    -0x3a0(%rbp),%rax
    ec49:	48 89 85 78 ff ff ff 	mov    %rax,-0x88(%rbp)
    ec50:	48 8d 85 60 fc ff ff 	lea    -0x3a0(%rbp),%rax
    ec57:	48 89 45 80          	mov    %rax,-0x80(%rbp)
    ec5b:	48 8d 85 60 fc ff ff 	lea    -0x3a0(%rbp),%rax
    ec62:	48 89 45 88          	mov    %rax,-0x78(%rbp)
    ec66:	48 8d 85 60 fc ff ff 	lea    -0x3a0(%rbp),%rax
    ec6d:	48 89 45 90          	mov    %rax,-0x70(%rbp)
    ec71:	48 8d 85 60 fc ff ff 	lea    -0x3a0(%rbp),%rax
    ec78:	48 89 45 98          	mov    %rax,-0x68(%rbp)
    ec7c:	48 8d 85 60 fc ff ff 	lea    -0x3a0(%rbp),%rax
    ec83:	48 89 45 a0          	mov    %rax,-0x60(%rbp)
    ec87:	48 8d 85 60 fc ff ff 	lea    -0x3a0(%rbp),%rax
    ec8e:	48 89 45 a8          	mov    %rax,-0x58(%rbp)
    ec92:	48 8d 85 60 fc ff ff 	lea    -0x3a0(%rbp),%rax
    ec99:	48 89 45 b0          	mov    %rax,-0x50(%rbp)
    ec9d:	48 8d 85 60 fc ff ff 	lea    -0x3a0(%rbp),%rax
    eca4:	48 89 45 b8          	mov    %rax,-0x48(%rbp)
    eca8:	48 8d 85 30 fc ff ff 	lea    -0x3d0(%rbp),%rax
    ecaf:	48 89 85 20 fd ff ff 	mov    %rax,-0x2e0(%rbp)
    ecb6:	8b 85 5c fc ff ff    	mov    -0x3a4(%rbp),%eax
    ecbc:	0f b7 c0             	movzwl %ax,%eax
    ecbf:	be 01 00 00 00       	mov    $0x1,%esi
    ecc4:	89 c7                	mov    %eax,%edi
    ecc6:	e8 54 c0 ff ff       	callq  ad1f <safe_sub_func_uint16_t_u_u>
    eccb:	89 c3                	mov    %eax,%ebx
    eccd:	48 8b 05 94 d2 00 00 	mov    0xd294(%rip),%rax        # 1bf68 <g_129>
    ecd4:	44 0f b7 20          	movzwl (%rax),%r12d
    ecd8:	8b 85 5c fc ff ff    	mov    -0x3a4(%rbp),%eax
    ecde:	0f b7 c0             	movzwl %ax,%eax
    ece1:	be 06 00 00 00       	mov    $0x6,%esi
    ece6:	89 c7                	mov    %eax,%edi
    ece8:	e8 8d c1 ff ff       	callq  ae7a <safe_rshift_func_uint16_t_u_u>
    eced:	44 89 e2             	mov    %r12d,%edx
    ecf0:	31 c2                	xor    %eax,%edx
    ecf2:	48 8b 85 f0 fc ff ff 	mov    -0x310(%rbp),%rax
    ecf9:	66 89 10             	mov    %dx,(%rax)
    ecfc:	48 8b 85 f0 fc ff ff 	mov    -0x310(%rbp),%rax
    ed03:	0f b7 00             	movzwl (%rax),%eax
    ed06:	66 39 c3             	cmp    %ax,%bx
    ed09:	74 2b                	je     ed36 <func_40+0xca9>
    ed0b:	48 8b 85 60 fc ff ff 	mov    -0x3a0(%rbp),%rax
    ed12:	48 89 85 78 fc ff ff 	mov    %rax,-0x388(%rbp)
    ed19:	bf ff 00 00 00       	mov    $0xff,%edi
    ed1e:	e8 22 be ff ff       	callq  ab45 <safe_unary_minus_func_uint8_t_u>
    ed23:	48 8b 85 20 fd ff ff 	mov    -0x2e0(%rbp),%rax
    ed2a:	66 c7 00 03 00       	movw   $0x3,(%rax)
    ed2f:	b8 01 00 00 00       	mov    $0x1,%eax
    ed34:	eb 05                	jmp    ed3b <func_40+0xcae>
    ed36:	b8 00 00 00 00       	mov    $0x0,%eax
    ed3b:	0f bf d0             	movswl %ax,%edx
    ed3e:	48 8b 85 10 fd ff ff 	mov    -0x2f0(%rbp),%rax
    ed45:	0f b7 00             	movzwl (%rax),%eax
    ed48:	83 f0 f7             	xor    $0xfffffff7,%eax
    ed4b:	89 c1                	mov    %eax,%ecx
    ed4d:	48 8b 85 10 fd ff ff 	mov    -0x2f0(%rbp),%rax
    ed54:	66 89 08             	mov    %cx,(%rax)
    ed57:	48 8b 85 10 fd ff ff 	mov    -0x2f0(%rbp),%rax
    ed5e:	0f b7 00             	movzwl (%rax),%eax
    ed61:	98                   	cwtl   
    ed62:	89 d6                	mov    %edx,%esi
    ed64:	89 c7                	mov    %eax,%edi
    ed66:	e8 ea b6 ff ff       	callq  a455 <safe_div_func_int16_t_s_s>
    ed6b:	66 85 c0             	test   %ax,%ax
    ed6e:	74 0b                	je     ed7b <func_40+0xcee>
    ed70:	8b 05 ea 96 00 00    	mov    0x96ea(%rip),%eax        # 18460 <g_221+0x10>
    ed76:	e9 68 03 00 00       	jmpq   f0e3 <func_40+0x1056>
    ed7b:	83 bd 5c fc ff ff 00 	cmpl   $0x0,-0x3a4(%rbp)
    ed82:	0f 85 f4 02 00 00    	jne    f07c <func_40+0xfef>
    ed88:	48 c7 05 ad e1 00 00 	movq   $0x0,0xe1ad(%rip)        # 1cf40 <g_697+0x4c0>
    ed8f:	00 00 00 00 
    ed93:	c6 05 aa 99 00 00 00 	movb   $0x0,0x99aa(%rip)        # 18744 <g_337>
    ed9a:	e9 a9 02 00 00       	jmpq   f048 <func_40+0xfbb>
    ed9f:	48 8d 85 68 fc ff ff 	lea    -0x398(%rbp),%rax
    eda6:	48 89 85 28 fd ff ff 	mov    %rax,-0x2d8(%rbp)
    edad:	48 8d 05 9c a5 00 00 	lea    0xa59c(%rip),%rax        # 19350 <g_503+0x8>
    edb4:	48 89 85 30 fd ff ff 	mov    %rax,-0x2d0(%rbp)
    edbb:	48 8d 85 40 fd ff ff 	lea    -0x2c0(%rbp),%rax
    edc2:	48 83 c0 15          	add    $0x15,%rax
    edc6:	48 89 85 38 fd ff ff 	mov    %rax,-0x2c8(%rbp)
    edcd:	8b 05 15 96 00 00    	mov    0x9615(%rip),%eax        # 183e8 <g_214>
    edd3:	0f be d8             	movsbl %al,%ebx
    edd6:	66 83 bd 36 fc ff ff 	cmpw   $0x0,-0x3ca(%rbp)
    eddd:	00 
    edde:	0f 84 9a 01 00 00    	je     ef7e <func_40+0xef1>
    ede4:	8b 05 e6 95 00 00    	mov    0x95e6(%rip),%eax        # 183d0 <g_211>
    edea:	44 0f b7 e0          	movzwl %ax,%r12d
    edee:	8b 85 38 fc ff ff    	mov    -0x3c8(%rbp),%eax
    edf4:	44 0f b7 e8          	movzwl %ax,%r13d
    edf8:	8b 85 1c fc ff ff    	mov    -0x3e4(%rbp),%eax
    edfe:	44 0f bf f0          	movswl %ax,%r14d
    ee02:	48 83 bd 30 fd ff ff 	cmpq   $0x0,-0x2d0(%rbp)
    ee09:	00 
    ee0a:	0f 95 c0             	setne  %al
    ee0d:	0f b6 c0             	movzbl %al,%eax
    ee10:	89 85 0c fc ff ff    	mov    %eax,-0x3f4(%rbp)
    ee16:	48 8b 85 d0 fc ff ff 	mov    -0x330(%rbp),%rax
    ee1d:	89 85 08 fc ff ff    	mov    %eax,-0x3f8(%rbp)
    ee23:	8b 05 9f 95 00 00    	mov    0x959f(%rip),%eax        # 183c8 <g_202+0x48>
    ee29:	44 0f be f8          	movsbl %al,%r15d
    ee2d:	48 8b 85 e8 fc ff ff 	mov    -0x318(%rbp),%rax
    ee34:	8b 00                	mov    (%rax),%eax
    ee36:	0f b6 d0             	movzbl %al,%edx
    ee39:	48 8b 85 38 fd ff ff 	mov    -0x2c8(%rbp),%rax
    ee40:	c6 00 7e             	movb   $0x7e,(%rax)
    ee43:	0f b6 85 18 fc ff ff 	movzbl -0x3e8(%rbp),%eax
    ee4a:	83 c8 7e             	or     $0x7e,%eax
    ee4d:	0f b6 c0             	movzbl %al,%eax
    ee50:	89 d6                	mov    %edx,%esi
    ee52:	89 c7                	mov    %eax,%edi
    ee54:	e8 01 bd ff ff       	callq  ab5a <safe_add_func_uint8_t_u_u>
    ee59:	48 8b 05 10 d1 00 00 	mov    0xd110(%rip),%rax        # 1bf70 <g_131>
    ee60:	8b 00                	mov    (%rax),%eax
    ee62:	85 c0                	test   %eax,%eax
    ee64:	0f 9e c0             	setle  %al
    ee67:	89 c2                	mov    %eax,%edx
    ee69:	48 8b 85 a0 fc ff ff 	mov    -0x360(%rbp),%rax
    ee70:	88 10                	mov    %dl,(%rax)
    ee72:	48 8b 85 a0 fc ff ff 	mov    -0x360(%rbp),%rax
    ee79:	0f b6 00             	movzbl (%rax),%eax
    ee7c:	0f be c0             	movsbl %al,%eax
    ee7f:	be 47 00 00 00       	mov    $0x47,%esi
    ee84:	89 c7                	mov    %eax,%edi
    ee86:	e8 67 b3 ff ff       	callq  a1f2 <safe_sub_func_int8_t_s_s>
    ee8b:	66 0f be d0          	movsbw %al,%dx
    ee8f:	48 8b 85 20 fd ff ff 	mov    -0x2e0(%rbp),%rax
    ee96:	66 89 10             	mov    %dx,(%rax)
    ee99:	48 8b 85 20 fd ff ff 	mov    -0x2e0(%rbp),%rax
    eea0:	0f b7 00             	movzwl (%rax),%eax
    eea3:	0f b7 c8             	movzwl %ax,%ecx
    eea6:	48 8b 05 bb d0 00 00 	mov    0xd0bb(%rip),%rax        # 1bf68 <g_129>
    eead:	0f b7 10             	movzwl (%rax),%edx
    eeb0:	8d 72 ff             	lea    -0x1(%rdx),%esi
    eeb3:	66 89 30             	mov    %si,(%rax)
    eeb6:	0f b7 c2             	movzwl %dx,%eax
    eeb9:	89 ce                	mov    %ecx,%esi
    eebb:	89 c7                	mov    %eax,%edi
    eebd:	e8 9a be ff ff       	callq  ad5c <safe_mod_func_uint16_t_u_u>
    eec2:	0f b7 d0             	movzwl %ax,%edx
    eec5:	8b 85 1c fc ff ff    	mov    -0x3e4(%rbp),%eax
    eecb:	39 c2                	cmp    %eax,%edx
    eecd:	0f 97 c0             	seta   %al
    eed0:	0f b6 c0             	movzbl %al,%eax
    eed3:	44 89 fe             	mov    %r15d,%esi
    eed6:	89 c7                	mov    %eax,%edi
    eed8:	e8 35 b3 ff ff       	callq  a212 <safe_mul_func_int8_t_s_s>
    eedd:	8b b5 08 fc ff ff    	mov    -0x3f8(%rbp),%esi
    eee3:	bf fe ff ff ff       	mov    $0xfffffffe,%edi
    eee8:	e8 b4 b3 ff ff       	callq  a2a1 <safe_lshift_func_int8_t_s_s>
    eeed:	0f be c0             	movsbl %al,%eax
    eef0:	23 85 5c fc ff ff    	and    -0x3a4(%rbp),%eax
    eef6:	39 85 0c fc ff ff    	cmp    %eax,-0x3f4(%rbp)
    eefc:	0f 97 c0             	seta   %al
    eeff:	0f b6 d0             	movzbl %al,%edx
    ef02:	48 8b 85 10 fd ff ff 	mov    -0x2f0(%rbp),%rax
    ef09:	0f b7 00             	movzwl (%rax),%eax
    ef0c:	31 c2                	xor    %eax,%edx
    ef0e:	48 8b 85 10 fd ff ff 	mov    -0x2f0(%rbp),%rax
    ef15:	66 89 10             	mov    %dx,(%rax)
    ef18:	48 8b 85 10 fd ff ff 	mov    -0x2f0(%rbp),%rax
    ef1f:	0f b7 10             	movzwl (%rax),%edx
    ef22:	0f b7 05 21 91 00 00 	movzwl 0x9121(%rip),%eax        # 1804a <g_94>
    ef29:	09 d0                	or     %edx,%eax
    ef2b:	66 89 05 18 91 00 00 	mov    %ax,0x9118(%rip)        # 1804a <g_94>
    ef32:	0f b7 05 11 91 00 00 	movzwl 0x9111(%rip),%eax        # 1804a <g_94>
    ef39:	98                   	cwtl   
    ef3a:	44 89 f6             	mov    %r14d,%esi
    ef3d:	89 c7                	mov    %eax,%edi
    ef3f:	e8 b1 b4 ff ff       	callq  a3f5 <safe_mul_func_int16_t_s_s>
    ef44:	0f b7 c0             	movzwl %ax,%eax
    ef47:	44 89 ee             	mov    %r13d,%esi
    ef4a:	89 c7                	mov    %eax,%edi
    ef4c:	e8 ae bd ff ff       	callq  acff <safe_add_func_uint16_t_u_u>
    ef51:	48 8b 95 f0 fc ff ff 	mov    -0x310(%rbp),%rdx
    ef58:	66 89 02             	mov    %ax,(%rdx)
    ef5b:	48 8b 85 f0 fc ff ff 	mov    -0x310(%rbp),%rax
    ef62:	0f b7 00             	movzwl (%rax),%eax
    ef65:	0f b7 c0             	movzwl %ax,%eax
    ef68:	44 89 e6             	mov    %r12d,%esi
    ef6b:	89 c7                	mov    %eax,%edi
    ef6d:	e8 cb bd ff ff       	callq  ad3d <safe_mul_func_uint16_t_u_u>
    ef72:	66 85 c0             	test   %ax,%ax
    ef75:	74 07                	je     ef7e <func_40+0xef1>
    ef77:	b8 01 00 00 00       	mov    $0x1,%eax
    ef7c:	eb 05                	jmp    ef83 <func_40+0xef6>
    ef7e:	b8 00 00 00 00       	mov    $0x0,%eax
    ef83:	0f b6 c0             	movzbl %al,%eax
    ef86:	be 07 00 00 00       	mov    $0x7,%esi
    ef8b:	89 c7                	mov    %eax,%edi
    ef8d:	e8 49 bc ff ff       	callq  abdb <safe_div_func_uint8_t_u_u>
    ef92:	0f b7 05 5f a2 00 00 	movzwl 0xa25f(%rip),%eax        # 191f8 <g_381+0x18>
    ef99:	8b 85 1c fc ff ff    	mov    -0x3e4(%rbp),%eax
    ef9f:	0f b6 c0             	movzbl %al,%eax
    efa2:	83 e0 01             	and    $0x1,%eax
    efa5:	89 c2                	mov    %eax,%edx
    efa7:	48 8b 05 92 90 00 00 	mov    0x9092(%rip),%rax        # 18040 <g_92>
    efae:	0f b6 c0             	movzbl %al,%eax
    efb1:	89 d6                	mov    %edx,%esi
    efb3:	89 c7                	mov    %eax,%edi
    efb5:	e8 a0 bb ff ff       	callq  ab5a <safe_add_func_uint8_t_u_u>
    efba:	0f be c0             	movsbl %al,%eax
    efbd:	89 de                	mov    %ebx,%esi
    efbf:	89 c7                	mov    %eax,%edi
    efc1:	e8 4c b2 ff ff       	callq  a212 <safe_mul_func_int8_t_s_s>
    efc6:	0f be d0             	movsbl %al,%edx
    efc9:	48 8b 8d 68 fc ff ff 	mov    -0x398(%rbp),%rcx
    efd0:	48 8b 85 28 fd ff ff 	mov    -0x2d8(%rbp),%rax
    efd7:	48 89 08             	mov    %rcx,(%rax)
    efda:	48 8b 85 28 fd ff ff 	mov    -0x2d8(%rbp),%rax
    efe1:	48 8b 00             	mov    (%rax),%rax
    efe4:	48 89 05 4d e2 00 00 	mov    %rax,0xe24d(%rip)        # 1d238 <g_705+0x18>
    efeb:	48 8b 05 46 e2 00 00 	mov    0xe246(%rip),%rax        # 1d238 <g_705+0x18>
    eff2:	48 8d 0d 07 a2 00 00 	lea    0xa207(%rip),%rcx        # 19200 <g_382>
    eff9:	48 39 c8             	cmp    %rcx,%rax
    effc:	0f 94 c0             	sete   %al
    efff:	0f b6 c0             	movzbl %al,%eax
    f002:	89 d6                	mov    %edx,%esi
    f004:	89 c7                	mov    %eax,%edi
    f006:	e8 fa b5 ff ff       	callq  a605 <safe_sub_func_int32_t_s_s>
    f00b:	85 c0                	test   %eax,%eax
    f00d:	75 09                	jne    f018 <func_40+0xf8b>
    f00f:	80 bd 18 fc ff ff 00 	cmpb   $0x0,-0x3e8(%rbp)
    f016:	74 07                	je     f01f <func_40+0xf92>
    f018:	ba 01 00 00 00       	mov    $0x1,%edx
    f01d:	eb 05                	jmp    f024 <func_40+0xf97>
    f01f:	ba 00 00 00 00       	mov    $0x0,%edx
    f024:	48 8b 85 30 fd ff ff 	mov    -0x2d0(%rbp),%rax
    f02b:	8b 00                	mov    (%rax),%eax
    f02d:	09 c2                	or     %eax,%edx
    f02f:	48 8b 85 30 fd ff ff 	mov    -0x2d0(%rbp),%rax
    f036:	89 10                	mov    %edx,(%rax)
    f038:	0f b6 05 05 97 00 00 	movzbl 0x9705(%rip),%eax        # 18744 <g_337>
    f03f:	83 c0 01             	add    $0x1,%eax
    f042:	88 05 fc 96 00 00    	mov    %al,0x96fc(%rip)        # 18744 <g_337>
    f048:	0f b6 05 f5 96 00 00 	movzbl 0x96f5(%rip),%eax        # 18744 <g_337>
    f04f:	3c 04                	cmp    $0x4,%al
    f051:	0f 86 48 fd ff ff    	jbe    ed9f <func_40+0xd12>
    f057:	48 8b 05 e2 8f 00 00 	mov    0x8fe2(%rip),%rax        # 18040 <g_92>
    f05e:	48 83 c0 01          	add    $0x1,%rax
    f062:	48 89 05 d7 8f 00 00 	mov    %rax,0x8fd7(%rip)        # 18040 <g_92>
    f069:	48 8b 05 d0 8f 00 00 	mov    0x8fd0(%rip),%rax        # 18040 <g_92>
    f070:	48 83 f8 04          	cmp    $0x4,%rax
    f074:	0f 8e 97 f8 ff ff    	jle    e911 <func_40+0x884>
    f07a:	eb 01                	jmp    f07d <func_40+0xff0>
    f07c:	90                   	nop
    f07d:	8b 05 6d 93 00 00    	mov    0x936d(%rip),%eax        # 183f0 <g_215>
    f083:	eb 5e                	jmp    f0e3 <func_40+0x1056>
    f085:	66 c7 85 34 fc ff ff 	movw   $0x6,-0x3cc(%rbp)
    f08c:	06 00 
    f08e:	c7 85 40 fc ff ff 06 	movl   $0x6,-0x3c0(%rbp)
    f095:	00 00 00 
    f098:	48 0f be 85 18 fc ff 	movsbq -0x3e8(%rbp),%rax
    f09f:	ff 
    f0a0:	be 01 00 00 00       	mov    $0x1,%esi
    f0a5:	48 89 c7             	mov    %rax,%rdi
    f0a8:	e8 94 b7 ff ff       	callq  a841 <safe_add_func_int64_t_s_s>
    f0ad:	88 85 18 fc ff ff    	mov    %al,-0x3e8(%rbp)
    f0b3:	80 bd 18 fc ff ff f7 	cmpb   $0xf7,-0x3e8(%rbp)
    f0ba:	0f 8d b7 f4 ff ff    	jge    e577 <func_40+0x4ea>
    f0c0:	48 8b 85 88 fc ff ff 	mov    -0x378(%rbp),%rax
    f0c7:	8b 10                	mov    (%rax),%edx
    f0c9:	48 8b 05 a0 ce 00 00 	mov    0xcea0(%rip),%rax        # 1bf70 <g_131>
    f0d0:	8b 00                	mov    (%rax),%eax
    f0d2:	09 c2                	or     %eax,%edx
    f0d4:	48 8b 85 88 fc ff ff 	mov    -0x378(%rbp),%rax
    f0db:	89 10                	mov    %edx,(%rax)
    f0dd:	8b 85 44 fc ff ff    	mov    -0x3bc(%rbp),%eax
    f0e3:	48 8b 5d c8          	mov    -0x38(%rbp),%rbx
    f0e7:	64 48 33 1c 25 28 00 	xor    %fs:0x28,%rbx
    f0ee:	00 00 
    f0f0:	74 05                	je     f0f7 <func_40+0x106a>
    f0f2:	e8 79 af ff ff       	callq  a070 <__stack_chk_fail@plt>
    f0f7:	48 81 c4 d8 03 00 00 	add    $0x3d8,%rsp
    f0fe:	5b                   	pop    %rbx
    f0ff:	41 5c                	pop    %r12
    f101:	41 5d                	pop    %r13
    f103:	41 5e                	pop    %r14
    f105:	41 5f                	pop    %r15
    f107:	5d                   	pop    %rbp
    f108:	c3                   	retq   

000000000000f109 <func_47>:
    f109:	f3 0f 1e fa          	endbr64 
    f10d:	55                   	push   %rbp
    f10e:	48 89 e5             	mov    %rsp,%rbp
    f111:	53                   	push   %rbx
    f112:	48 81 ec 18 09 00 00 	sub    $0x918,%rsp
    f119:	89 bd ec f6 ff ff    	mov    %edi,-0x914(%rbp)
    f11f:	64 48 8b 04 25 28 00 	mov    %fs:0x28,%rax
    f126:	00 00 
    f128:	48 89 45 e8          	mov    %rax,-0x18(%rbp)
    f12c:	31 c0                	xor    %eax,%eax
    f12e:	c7 85 14 f7 ff ff 08 	movl   $0x8,-0x8ec(%rbp)
    f135:	00 00 00 
    f138:	48 8d 05 05 96 00 00 	lea    0x9605(%rip),%rax        # 18744 <g_337>
    f13f:	48 89 85 b0 f7 ff ff 	mov    %rax,-0x850(%rbp)
    f146:	48 8d 05 f7 95 00 00 	lea    0x95f7(%rip),%rax        # 18744 <g_337>
    f14d:	48 89 85 b8 f7 ff ff 	mov    %rax,-0x848(%rbp)
    f154:	48 8d 05 e9 95 00 00 	lea    0x95e9(%rip),%rax        # 18744 <g_337>
    f15b:	48 89 85 c0 f7 ff ff 	mov    %rax,-0x840(%rbp)
    f162:	48 8d 05 db 95 00 00 	lea    0x95db(%rip),%rax        # 18744 <g_337>
    f169:	48 89 85 c8 f7 ff ff 	mov    %rax,-0x838(%rbp)
    f170:	48 8d 05 cd 95 00 00 	lea    0x95cd(%rip),%rax        # 18744 <g_337>
    f177:	48 89 85 d0 f7 ff ff 	mov    %rax,-0x830(%rbp)
    f17e:	48 8d 05 bf 95 00 00 	lea    0x95bf(%rip),%rax        # 18744 <g_337>
    f185:	48 89 85 d8 f7 ff ff 	mov    %rax,-0x828(%rbp)
    f18c:	48 8d 05 b1 95 00 00 	lea    0x95b1(%rip),%rax        # 18744 <g_337>
    f193:	48 89 85 e0 f7 ff ff 	mov    %rax,-0x820(%rbp)
    f19a:	48 8d 05 a3 95 00 00 	lea    0x95a3(%rip),%rax        # 18744 <g_337>
    f1a1:	48 89 85 e8 f7 ff ff 	mov    %rax,-0x818(%rbp)
    f1a8:	48 8d 05 95 95 00 00 	lea    0x9595(%rip),%rax        # 18744 <g_337>
    f1af:	48 89 85 f0 f7 ff ff 	mov    %rax,-0x810(%rbp)
    f1b6:	48 8d 05 87 95 00 00 	lea    0x9587(%rip),%rax        # 18744 <g_337>
    f1bd:	48 89 85 f8 f7 ff ff 	mov    %rax,-0x808(%rbp)
    f1c4:	c7 85 f4 f6 ff ff 01 	movl   $0x1,-0x90c(%rbp)
    f1cb:	00 00 00 
    f1ce:	c7 85 18 f7 ff ff 01 	movl   $0x1,-0x8e8(%rbp)
    f1d5:	00 00 00 
    f1d8:	48 c7 85 20 f7 ff ff 	movq   $0x1,-0x8e0(%rbp)
    f1df:	01 00 00 00 
    f1e3:	c6 85 f2 f6 ff ff 05 	movb   $0x5,-0x90e(%rbp)
    f1ea:	c7 85 10 f7 ff ff fd 	movl   $0x3a076fd,-0x8f0(%rbp)
    f1f1:	76 a0 03 
    f1f4:	48 8d 05 75 93 00 00 	lea    0x9375(%rip),%rax        # 18570 <g_256>
    f1fb:	48 89 85 28 f7 ff ff 	mov    %rax,-0x8d8(%rbp)
    f202:	48 8d 85 f4 f6 ff ff 	lea    -0x90c(%rbp),%rax
    f209:	48 89 85 30 f7 ff ff 	mov    %rax,-0x8d0(%rbp)
    f210:	48 8d 85 18 f7 ff ff 	lea    -0x8e8(%rbp),%rax
    f217:	48 89 85 38 f7 ff ff 	mov    %rax,-0x8c8(%rbp)
    f21e:	48 c7 85 40 f7 ff ff 	movq   $0x0,-0x8c0(%rbp)
    f225:	00 00 00 00 
    f229:	48 8d 05 20 a1 00 00 	lea    0xa120(%rip),%rax        # 19350 <g_503+0x8>
    f230:	48 89 85 00 f8 ff ff 	mov    %rax,-0x800(%rbp)
    f237:	48 8d 05 32 93 00 00 	lea    0x9332(%rip),%rax        # 18570 <g_256>
    f23e:	48 89 85 08 f8 ff ff 	mov    %rax,-0x7f8(%rbp)
    f245:	48 8d 05 24 93 00 00 	lea    0x9324(%rip),%rax        # 18570 <g_256>
    f24c:	48 89 85 10 f8 ff ff 	mov    %rax,-0x7f0(%rbp)
    f253:	48 8d 05 f6 a0 00 00 	lea    0xa0f6(%rip),%rax        # 19350 <g_503+0x8>
    f25a:	48 89 85 18 f8 ff ff 	mov    %rax,-0x7e8(%rbp)
    f261:	48 c7 85 20 f8 ff ff 	movq   $0x0,-0x7e0(%rbp)
    f268:	00 00 00 00 
    f26c:	48 c7 85 28 f8 ff ff 	movq   $0x0,-0x7d8(%rbp)
    f273:	00 00 00 00 
    f277:	48 8d 05 ba 8d 00 00 	lea    0x8dba(%rip),%rax        # 18038 <g_35>
    f27e:	48 89 85 30 f8 ff ff 	mov    %rax,-0x7d0(%rbp)
    f285:	48 8d 05 bc a0 00 00 	lea    0xa0bc(%rip),%rax        # 19348 <g_503>
    f28c:	48 89 85 38 f8 ff ff 	mov    %rax,-0x7c8(%rbp)
    f293:	48 c7 85 40 f8 ff ff 	movq   $0x0,-0x7c0(%rbp)
    f29a:	00 00 00 00 
    f29e:	48 8d 85 18 f7 ff ff 	lea    -0x8e8(%rbp),%rax
    f2a5:	48 89 85 48 f8 ff ff 	mov    %rax,-0x7b8(%rbp)
    f2ac:	48 c7 85 50 f8 ff ff 	movq   $0x0,-0x7b0(%rbp)
    f2b3:	00 00 00 00 
    f2b7:	48 8d 85 18 f7 ff ff 	lea    -0x8e8(%rbp),%rax
    f2be:	48 89 85 58 f8 ff ff 	mov    %rax,-0x7a8(%rbp)
    f2c5:	48 c7 85 60 f8 ff ff 	movq   $0x0,-0x7a0(%rbp)
    f2cc:	00 00 00 00 
    f2d0:	48 8d 05 99 92 00 00 	lea    0x9299(%rip),%rax        # 18570 <g_256>
    f2d7:	48 89 85 68 f8 ff ff 	mov    %rax,-0x798(%rbp)
    f2de:	48 8d 05 4b 8d 00 00 	lea    0x8d4b(%rip),%rax        # 18030 <g_6>
    f2e5:	48 89 85 70 f8 ff ff 	mov    %rax,-0x790(%rbp)
    f2ec:	48 8d 05 45 8d 00 00 	lea    0x8d45(%rip),%rax        # 18038 <g_35>
    f2f3:	48 89 85 78 f8 ff ff 	mov    %rax,-0x788(%rbp)
    f2fa:	48 8d 05 4f a0 00 00 	lea    0xa04f(%rip),%rax        # 19350 <g_503+0x8>
    f301:	48 89 85 80 f8 ff ff 	mov    %rax,-0x780(%rbp)
    f308:	48 8d 05 39 a0 00 00 	lea    0xa039(%rip),%rax        # 19348 <g_503>
    f30f:	48 89 85 88 f8 ff ff 	mov    %rax,-0x778(%rbp)
    f316:	48 c7 85 90 f8 ff ff 	movq   $0x0,-0x770(%rbp)
    f31d:	00 00 00 00 
    f321:	48 c7 85 98 f8 ff ff 	movq   $0x0,-0x768(%rbp)
    f328:	00 00 00 00 
    f32c:	48 8d 05 15 a0 00 00 	lea    0xa015(%rip),%rax        # 19348 <g_503>
    f333:	48 89 85 a0 f8 ff ff 	mov    %rax,-0x760(%rbp)
    f33a:	48 8d 05 2b ea 00 00 	lea    0xea2b(%rip),%rax        # 1dd6c <g_91>
    f341:	48 89 85 a8 f8 ff ff 	mov    %rax,-0x758(%rbp)
    f348:	48 8d 05 e1 8c 00 00 	lea    0x8ce1(%rip),%rax        # 18030 <g_6>
    f34f:	48 89 85 b0 f8 ff ff 	mov    %rax,-0x750(%rbp)
    f356:	48 8d 85 f4 f6 ff ff 	lea    -0x90c(%rbp),%rax
    f35d:	48 89 85 b8 f8 ff ff 	mov    %rax,-0x748(%rbp)
    f364:	48 c7 85 c0 f8 ff ff 	movq   $0x0,-0x740(%rbp)
    f36b:	00 00 00 00 
    f36f:	48 8d 05 fa 91 00 00 	lea    0x91fa(%rip),%rax        # 18570 <g_256>
    f376:	48 89 85 c8 f8 ff ff 	mov    %rax,-0x738(%rbp)
    f37d:	48 8d 85 18 f7 ff ff 	lea    -0x8e8(%rbp),%rax
    f384:	48 89 85 d0 f8 ff ff 	mov    %rax,-0x730(%rbp)
    f38b:	48 8d 85 18 f7 ff ff 	lea    -0x8e8(%rbp),%rax
    f392:	48 89 85 d8 f8 ff ff 	mov    %rax,-0x728(%rbp)
    f399:	48 8d 85 18 f7 ff ff 	lea    -0x8e8(%rbp),%rax
    f3a0:	48 89 85 e0 f8 ff ff 	mov    %rax,-0x720(%rbp)
    f3a7:	48 8d 85 18 f7 ff ff 	lea    -0x8e8(%rbp),%rax
    f3ae:	48 89 85 e8 f8 ff ff 	mov    %rax,-0x718(%rbp)
    f3b5:	48 8d 05 7c 8c 00 00 	lea    0x8c7c(%rip),%rax        # 18038 <g_35>
    f3bc:	48 89 85 f0 f8 ff ff 	mov    %rax,-0x710(%rbp)
    f3c3:	48 8d 05 86 9f 00 00 	lea    0x9f86(%rip),%rax        # 19350 <g_503+0x8>
    f3ca:	48 89 85 f8 f8 ff ff 	mov    %rax,-0x708(%rbp)
    f3d1:	48 8d 05 94 e9 00 00 	lea    0xe994(%rip),%rax        # 1dd6c <g_91>
    f3d8:	48 89 85 00 f9 ff ff 	mov    %rax,-0x700(%rbp)
    f3df:	48 8d 05 6a 9f 00 00 	lea    0x9f6a(%rip),%rax        # 19350 <g_503+0x8>
    f3e6:	48 89 85 08 f9 ff ff 	mov    %rax,-0x6f8(%rbp)
    f3ed:	48 c7 85 10 f9 ff ff 	movq   $0x0,-0x6f0(%rbp)
    f3f4:	00 00 00 00 
    f3f8:	48 8d 05 4d 9f 00 00 	lea    0x9f4d(%rip),%rax        # 1934c <g_503+0x4>
    f3ff:	48 89 85 18 f9 ff ff 	mov    %rax,-0x6e8(%rbp)
    f406:	48 8d 05 3b 9f 00 00 	lea    0x9f3b(%rip),%rax        # 19348 <g_503>
    f40d:	48 89 85 20 f9 ff ff 	mov    %rax,-0x6e0(%rbp)
    f414:	48 8d 05 1d 8c 00 00 	lea    0x8c1d(%rip),%rax        # 18038 <g_35>
    f41b:	48 89 85 28 f9 ff ff 	mov    %rax,-0x6d8(%rbp)
    f422:	48 c7 85 30 f9 ff ff 	movq   $0x0,-0x6d0(%rbp)
    f429:	00 00 00 00 
    f42d:	48 c7 85 38 f9 ff ff 	movq   $0x0,-0x6c8(%rbp)
    f434:	00 00 00 00 
    f438:	48 8d 05 31 91 00 00 	lea    0x9131(%rip),%rax        # 18570 <g_256>
    f43f:	48 89 85 40 f9 ff ff 	mov    %rax,-0x6c0(%rbp)
    f446:	48 8d 05 eb 8b 00 00 	lea    0x8beb(%rip),%rax        # 18038 <g_35>
    f44d:	48 89 85 48 f9 ff ff 	mov    %rax,-0x6b8(%rbp)
    f454:	48 c7 85 50 f9 ff ff 	movq   $0x0,-0x6b0(%rbp)
    f45b:	00 00 00 00 
    f45f:	48 8d 05 e6 9e 00 00 	lea    0x9ee6(%rip),%rax        # 1934c <g_503+0x4>
    f466:	48 89 85 58 f9 ff ff 	mov    %rax,-0x6a8(%rbp)
    f46d:	48 8d 05 c4 8b 00 00 	lea    0x8bc4(%rip),%rax        # 18038 <g_35>
    f474:	48 89 85 60 f9 ff ff 	mov    %rax,-0x6a0(%rbp)
    f47b:	48 8d 05 ce 9e 00 00 	lea    0x9ece(%rip),%rax        # 19350 <g_503+0x8>
    f482:	48 89 85 68 f9 ff ff 	mov    %rax,-0x698(%rbp)
    f489:	48 8d 05 a8 8b 00 00 	lea    0x8ba8(%rip),%rax        # 18038 <g_35>
    f490:	48 89 85 70 f9 ff ff 	mov    %rax,-0x690(%rbp)
    f497:	48 8d 05 b2 9e 00 00 	lea    0x9eb2(%rip),%rax        # 19350 <g_503+0x8>
    f49e:	48 89 85 78 f9 ff ff 	mov    %rax,-0x688(%rbp)
    f4a5:	48 8d 85 f4 f6 ff ff 	lea    -0x90c(%rbp),%rax
    f4ac:	48 89 85 80 f9 ff ff 	mov    %rax,-0x680(%rbp)
    f4b3:	48 8d 85 18 f7 ff ff 	lea    -0x8e8(%rbp),%rax
    f4ba:	48 89 85 88 f9 ff ff 	mov    %rax,-0x678(%rbp)
    f4c1:	48 8d 05 a8 90 00 00 	lea    0x90a8(%rip),%rax        # 18570 <g_256>
    f4c8:	48 89 85 90 f9 ff ff 	mov    %rax,-0x670(%rbp)
    f4cf:	48 8d 85 18 f7 ff ff 	lea    -0x8e8(%rbp),%rax
    f4d6:	48 89 85 98 f9 ff ff 	mov    %rax,-0x668(%rbp)
    f4dd:	48 8d 85 18 f7 ff ff 	lea    -0x8e8(%rbp),%rax
    f4e4:	48 89 85 a0 f9 ff ff 	mov    %rax,-0x660(%rbp)
    f4eb:	48 8d 05 7e 90 00 00 	lea    0x907e(%rip),%rax        # 18570 <g_256>
    f4f2:	48 89 85 a8 f9 ff ff 	mov    %rax,-0x658(%rbp)
    f4f9:	48 8d 05 38 8b 00 00 	lea    0x8b38(%rip),%rax        # 18038 <g_35>
    f500:	48 89 85 b0 f9 ff ff 	mov    %rax,-0x650(%rbp)
    f507:	48 8d 85 f4 f6 ff ff 	lea    -0x90c(%rbp),%rax
    f50e:	48 89 85 b8 f9 ff ff 	mov    %rax,-0x648(%rbp)
    f515:	48 c7 85 c0 f9 ff ff 	movq   $0x0,-0x640(%rbp)
    f51c:	00 00 00 00 
    f520:	48 8d 05 45 e8 00 00 	lea    0xe845(%rip),%rax        # 1dd6c <g_91>
    f527:	48 89 85 c8 f9 ff ff 	mov    %rax,-0x638(%rbp)
    f52e:	48 8d 85 f4 f6 ff ff 	lea    -0x90c(%rbp),%rax
    f535:	48 89 85 d0 f9 ff ff 	mov    %rax,-0x630(%rbp)
    f53c:	48 c7 85 d8 f9 ff ff 	movq   $0x0,-0x628(%rbp)
    f543:	00 00 00 00 
    f547:	48 8d 05 fe 9d 00 00 	lea    0x9dfe(%rip),%rax        # 1934c <g_503+0x4>
    f54e:	48 89 85 e0 f9 ff ff 	mov    %rax,-0x620(%rbp)
    f555:	48 8d 05 ec 9d 00 00 	lea    0x9dec(%rip),%rax        # 19348 <g_503>
    f55c:	48 89 85 e8 f9 ff ff 	mov    %rax,-0x618(%rbp)
    f563:	48 8d 05 e2 9d 00 00 	lea    0x9de2(%rip),%rax        # 1934c <g_503+0x4>
    f56a:	48 89 85 f0 f9 ff ff 	mov    %rax,-0x610(%rbp)
    f571:	48 8d 05 c0 8a 00 00 	lea    0x8ac0(%rip),%rax        # 18038 <g_35>
    f578:	48 89 85 f8 f9 ff ff 	mov    %rax,-0x608(%rbp)
    f57f:	48 8d 05 ea 8f 00 00 	lea    0x8fea(%rip),%rax        # 18570 <g_256>
    f586:	48 89 85 00 fa ff ff 	mov    %rax,-0x600(%rbp)
    f58d:	48 8d 05 dc 8f 00 00 	lea    0x8fdc(%rip),%rax        # 18570 <g_256>
    f594:	48 89 85 08 fa ff ff 	mov    %rax,-0x5f8(%rbp)
    f59b:	48 8d 05 ae 9d 00 00 	lea    0x9dae(%rip),%rax        # 19350 <g_503+0x8>
    f5a2:	48 89 85 10 fa ff ff 	mov    %rax,-0x5f0(%rbp)
    f5a9:	48 8d 85 18 f7 ff ff 	lea    -0x8e8(%rbp),%rax
    f5b0:	48 89 85 18 fa ff ff 	mov    %rax,-0x5e8(%rbp)
    f5b7:	48 c7 85 20 fa ff ff 	movq   $0x0,-0x5e0(%rbp)
    f5be:	00 00 00 00 
    f5c2:	48 8d 85 18 f7 ff ff 	lea    -0x8e8(%rbp),%rax
    f5c9:	48 89 85 28 fa ff ff 	mov    %rax,-0x5d8(%rbp)
    f5d0:	48 8d 05 61 8a 00 00 	lea    0x8a61(%rip),%rax        # 18038 <g_35>
    f5d7:	48 89 85 30 fa ff ff 	mov    %rax,-0x5d0(%rbp)
    f5de:	48 8d 05 63 9d 00 00 	lea    0x9d63(%rip),%rax        # 19348 <g_503>
    f5e5:	48 89 85 38 fa ff ff 	mov    %rax,-0x5c8(%rbp)
    f5ec:	48 8d 05 3d 8a 00 00 	lea    0x8a3d(%rip),%rax        # 18030 <g_6>
    f5f3:	48 89 85 40 fa ff ff 	mov    %rax,-0x5c0(%rbp)
    f5fa:	48 c7 85 48 fa ff ff 	movq   $0x0,-0x5b8(%rbp)
    f601:	00 00 00 00 
    f605:	48 8d 05 60 e7 00 00 	lea    0xe760(%rip),%rax        # 1dd6c <g_91>
    f60c:	48 89 85 50 fa ff ff 	mov    %rax,-0x5b0(%rbp)
    f613:	48 8d 05 36 9d 00 00 	lea    0x9d36(%rip),%rax        # 19350 <g_503+0x8>
    f61a:	48 89 85 58 fa ff ff 	mov    %rax,-0x5a8(%rbp)
    f621:	48 8d 05 28 9d 00 00 	lea    0x9d28(%rip),%rax        # 19350 <g_503+0x8>
    f628:	48 89 85 60 fa ff ff 	mov    %rax,-0x5a0(%rbp)
    f62f:	48 8d 05 3a 8f 00 00 	lea    0x8f3a(%rip),%rax        # 18570 <g_256>
    f636:	48 89 85 68 fa ff ff 	mov    %rax,-0x598(%rbp)
    f63d:	48 8d 05 28 e7 00 00 	lea    0xe728(%rip),%rax        # 1dd6c <g_91>
    f644:	48 89 85 70 fa ff ff 	mov    %rax,-0x590(%rbp)
    f64b:	48 8d 05 1e 8f 00 00 	lea    0x8f1e(%rip),%rax        # 18570 <g_256>
    f652:	48 89 85 78 fa ff ff 	mov    %rax,-0x588(%rbp)
    f659:	48 8d 05 10 8f 00 00 	lea    0x8f10(%rip),%rax        # 18570 <g_256>
    f660:	48 89 85 80 fa ff ff 	mov    %rax,-0x580(%rbp)
    f667:	48 c7 85 88 fa ff ff 	movq   $0x0,-0x578(%rbp)
    f66e:	00 00 00 00 
    f672:	48 8d 05 f7 8e 00 00 	lea    0x8ef7(%rip),%rax        # 18570 <g_256>
    f679:	48 89 85 90 fa ff ff 	mov    %rax,-0x570(%rbp)
    f680:	48 c7 85 98 fa ff ff 	movq   $0x0,-0x568(%rbp)
    f687:	00 00 00 00 
    f68b:	48 8d 05 a6 89 00 00 	lea    0x89a6(%rip),%rax        # 18038 <g_35>
    f692:	48 89 85 a0 fa ff ff 	mov    %rax,-0x560(%rbp)
    f699:	48 8d 05 d0 8e 00 00 	lea    0x8ed0(%rip),%rax        # 18570 <g_256>
    f6a0:	48 89 85 a8 fa ff ff 	mov    %rax,-0x558(%rbp)
    f6a7:	48 8d 05 a2 9c 00 00 	lea    0x9ca2(%rip),%rax        # 19350 <g_503+0x8>
    f6ae:	48 89 85 b0 fa ff ff 	mov    %rax,-0x550(%rbp)
    f6b5:	48 8d 85 18 f7 ff ff 	lea    -0x8e8(%rbp),%rax
    f6bc:	48 89 85 b8 fa ff ff 	mov    %rax,-0x548(%rbp)
    f6c3:	48 8d 05 a6 8e 00 00 	lea    0x8ea6(%rip),%rax        # 18570 <g_256>
    f6ca:	48 89 85 c0 fa ff ff 	mov    %rax,-0x540(%rbp)
    f6d1:	48 8d 85 f4 f6 ff ff 	lea    -0x90c(%rbp),%rax
    f6d8:	48 89 85 c8 fa ff ff 	mov    %rax,-0x538(%rbp)
    f6df:	48 8d 05 8a 8e 00 00 	lea    0x8e8a(%rip),%rax        # 18570 <g_256>
    f6e6:	48 89 85 d0 fa ff ff 	mov    %rax,-0x530(%rbp)
    f6ed:	48 8d 05 3c 89 00 00 	lea    0x893c(%rip),%rax        # 18030 <g_6>
    f6f4:	48 89 85 d8 fa ff ff 	mov    %rax,-0x528(%rbp)
    f6fb:	48 8d 05 36 89 00 00 	lea    0x8936(%rip),%rax        # 18038 <g_35>
    f702:	48 89 85 e0 fa ff ff 	mov    %rax,-0x520(%rbp)
    f709:	48 8d 05 38 9c 00 00 	lea    0x9c38(%rip),%rax        # 19348 <g_503>
    f710:	48 89 85 e8 fa ff ff 	mov    %rax,-0x518(%rbp)
    f717:	48 8d 05 1a 89 00 00 	lea    0x891a(%rip),%rax        # 18038 <g_35>
    f71e:	48 89 85 f0 fa ff ff 	mov    %rax,-0x510(%rbp)
    f725:	48 8d 05 20 9c 00 00 	lea    0x9c20(%rip),%rax        # 1934c <g_503+0x4>
    f72c:	48 89 85 f8 fa ff ff 	mov    %rax,-0x508(%rbp)
    f733:	48 c7 85 00 fb ff ff 	movq   $0x0,-0x500(%rbp)
    f73a:	00 00 00 00 
    f73e:	48 8d 85 18 f7 ff ff 	lea    -0x8e8(%rbp),%rax
    f745:	48 89 85 08 fb ff ff 	mov    %rax,-0x4f8(%rbp)
    f74c:	48 c7 85 10 fb ff ff 	movq   $0x0,-0x4f0(%rbp)
    f753:	00 00 00 00 
    f757:	48 8d 05 ea 9b 00 00 	lea    0x9bea(%rip),%rax        # 19348 <g_503>
    f75e:	48 89 85 18 fb ff ff 	mov    %rax,-0x4e8(%rbp)
    f765:	48 8d 05 04 8e 00 00 	lea    0x8e04(%rip),%rax        # 18570 <g_256>
    f76c:	48 89 85 20 fb ff ff 	mov    %rax,-0x4e0(%rbp)
    f773:	48 8d 05 f6 8d 00 00 	lea    0x8df6(%rip),%rax        # 18570 <g_256>
    f77a:	48 89 85 28 fb ff ff 	mov    %rax,-0x4d8(%rbp)
    f781:	48 c7 85 30 fb ff ff 	movq   $0x0,-0x4d0(%rbp)
    f788:	00 00 00 00 
    f78c:	48 8d 05 b5 9b 00 00 	lea    0x9bb5(%rip),%rax        # 19348 <g_503>
    f793:	48 89 85 38 fb ff ff 	mov    %rax,-0x4c8(%rbp)
    f79a:	48 c7 85 40 fb ff ff 	movq   $0x0,-0x4c0(%rbp)
    f7a1:	00 00 00 00 
    f7a5:	48 c7 85 48 fb ff ff 	movq   $0x0,-0x4b8(%rbp)
    f7ac:	00 00 00 00 
    f7b0:	48 8d 05 81 88 00 00 	lea    0x8881(%rip),%rax        # 18038 <g_35>
    f7b7:	48 89 85 50 fb ff ff 	mov    %rax,-0x4b0(%rbp)
    f7be:	48 8d 05 8b 9b 00 00 	lea    0x9b8b(%rip),%rax        # 19350 <g_503+0x8>
    f7c5:	48 89 85 58 fb ff ff 	mov    %rax,-0x4a8(%rbp)
    f7cc:	48 8d 05 65 88 00 00 	lea    0x8865(%rip),%rax        # 18038 <g_35>
    f7d3:	48 89 85 60 fb ff ff 	mov    %rax,-0x4a0(%rbp)
    f7da:	48 8d 05 6f 9b 00 00 	lea    0x9b6f(%rip),%rax        # 19350 <g_503+0x8>
    f7e1:	48 89 85 68 fb ff ff 	mov    %rax,-0x498(%rbp)
    f7e8:	48 8d 05 81 8d 00 00 	lea    0x8d81(%rip),%rax        # 18570 <g_256>
    f7ef:	48 89 85 70 fb ff ff 	mov    %rax,-0x490(%rbp)
    f7f6:	48 8d 05 33 88 00 00 	lea    0x8833(%rip),%rax        # 18030 <g_6>
    f7fd:	48 89 85 78 fb ff ff 	mov    %rax,-0x488(%rbp)
    f804:	48 8d 05 65 8d 00 00 	lea    0x8d65(%rip),%rax        # 18570 <g_256>
    f80b:	48 89 85 80 fb ff ff 	mov    %rax,-0x480(%rbp)
    f812:	48 8d 05 17 88 00 00 	lea    0x8817(%rip),%rax        # 18030 <g_6>
    f819:	48 89 85 88 fb ff ff 	mov    %rax,-0x478(%rbp)
    f820:	48 8d 05 29 9b 00 00 	lea    0x9b29(%rip),%rax        # 19350 <g_503+0x8>
    f827:	48 89 85 90 fb ff ff 	mov    %rax,-0x470(%rbp)
    f82e:	48 c7 85 98 fb ff ff 	movq   $0x0,-0x468(%rbp)
    f835:	00 00 00 00 
    f839:	48 8d 05 f8 87 00 00 	lea    0x87f8(%rip),%rax        # 18038 <g_35>
    f840:	48 89 85 a0 fb ff ff 	mov    %rax,-0x460(%rbp)
    f847:	48 c7 85 a8 fb ff ff 	movq   $0x0,-0x458(%rbp)
    f84e:	00 00 00 00 
    f852:	48 8d 05 17 8d 00 00 	lea    0x8d17(%rip),%rax        # 18570 <g_256>
    f859:	48 89 85 b0 fb ff ff 	mov    %rax,-0x450(%rbp)
    f860:	48 8d 05 d1 87 00 00 	lea    0x87d1(%rip),%rax        # 18038 <g_35>
    f867:	48 89 85 b8 fb ff ff 	mov    %rax,-0x448(%rbp)
    f86e:	48 8d 05 fb 8c 00 00 	lea    0x8cfb(%rip),%rax        # 18570 <g_256>
    f875:	48 89 85 c0 fb ff ff 	mov    %rax,-0x440(%rbp)
    f87c:	48 8d 05 b5 87 00 00 	lea    0x87b5(%rip),%rax        # 18038 <g_35>
    f883:	48 89 85 c8 fb ff ff 	mov    %rax,-0x438(%rbp)
    f88a:	48 8d 05 db e4 00 00 	lea    0xe4db(%rip),%rax        # 1dd6c <g_91>
    f891:	48 89 85 d0 fb ff ff 	mov    %rax,-0x430(%rbp)
    f898:	48 8d 05 cd e4 00 00 	lea    0xe4cd(%rip),%rax        # 1dd6c <g_91>
    f89f:	48 89 85 d8 fb ff ff 	mov    %rax,-0x428(%rbp)
    f8a6:	48 8d 05 a3 9a 00 00 	lea    0x9aa3(%rip),%rax        # 19350 <g_503+0x8>
    f8ad:	48 89 85 e0 fb ff ff 	mov    %rax,-0x420(%rbp)
    f8b4:	48 8d 05 b1 e4 00 00 	lea    0xe4b1(%rip),%rax        # 1dd6c <g_91>
    f8bb:	48 89 85 e8 fb ff ff 	mov    %rax,-0x418(%rbp)
    f8c2:	48 8d 05 a3 e4 00 00 	lea    0xe4a3(%rip),%rax        # 1dd6c <g_91>
    f8c9:	48 89 85 f0 fb ff ff 	mov    %rax,-0x410(%rbp)
    f8d0:	48 c7 85 f8 fb ff ff 	movq   $0x0,-0x408(%rbp)
    f8d7:	00 00 00 00 
    f8db:	48 8d 05 4e 87 00 00 	lea    0x874e(%rip),%rax        # 18030 <g_6>
    f8e2:	48 89 85 00 fc ff ff 	mov    %rax,-0x400(%rbp)
    f8e9:	48 c7 85 08 fc ff ff 	movq   $0x0,-0x3f8(%rbp)
    f8f0:	00 00 00 00 
    f8f4:	48 8d 05 3d 87 00 00 	lea    0x873d(%rip),%rax        # 18038 <g_35>
    f8fb:	48 89 85 10 fc ff ff 	mov    %rax,-0x3f0(%rbp)
    f902:	48 8d 85 18 f7 ff ff 	lea    -0x8e8(%rbp),%rax
    f909:	48 89 85 18 fc ff ff 	mov    %rax,-0x3e8(%rbp)
    f910:	48 c7 85 20 fc ff ff 	movq   $0x0,-0x3e0(%rbp)
    f917:	00 00 00 00 
    f91b:	48 8d 05 16 87 00 00 	lea    0x8716(%rip),%rax        # 18038 <g_35>
    f922:	48 89 85 28 fc ff ff 	mov    %rax,-0x3d8(%rbp)
    f929:	48 8d 05 20 9a 00 00 	lea    0x9a20(%rip),%rax        # 19350 <g_503+0x8>
    f930:	48 89 85 30 fc ff ff 	mov    %rax,-0x3d0(%rbp)
    f937:	48 8d 85 18 f7 ff ff 	lea    -0x8e8(%rbp),%rax
    f93e:	48 89 85 38 fc ff ff 	mov    %rax,-0x3c8(%rbp)
    f945:	48 8d 05 24 8c 00 00 	lea    0x8c24(%rip),%rax        # 18570 <g_256>
    f94c:	48 89 85 40 fc ff ff 	mov    %rax,-0x3c0(%rbp)
    f953:	48 c7 85 48 fc ff ff 	movq   $0x0,-0x3b8(%rbp)
    f95a:	00 00 00 00 
    f95e:	48 8d 05 e7 99 00 00 	lea    0x99e7(%rip),%rax        # 1934c <g_503+0x4>
    f965:	48 89 85 50 fc ff ff 	mov    %rax,-0x3b0(%rbp)
    f96c:	48 8d 05 bd 86 00 00 	lea    0x86bd(%rip),%rax        # 18030 <g_6>
    f973:	48 89 85 58 fc ff ff 	mov    %rax,-0x3a8(%rbp)
    f97a:	48 8d 05 cb 99 00 00 	lea    0x99cb(%rip),%rax        # 1934c <g_503+0x4>
    f981:	48 89 85 60 fc ff ff 	mov    %rax,-0x3a0(%rbp)
    f988:	48 8d 85 18 f7 ff ff 	lea    -0x8e8(%rbp),%rax
    f98f:	48 89 85 68 fc ff ff 	mov    %rax,-0x398(%rbp)
    f996:	48 8d 85 f4 f6 ff ff 	lea    -0x90c(%rbp),%rax
    f99d:	48 89 85 70 fc ff ff 	mov    %rax,-0x390(%rbp)
    f9a4:	48 8d 05 a5 99 00 00 	lea    0x99a5(%rip),%rax        # 19350 <g_503+0x8>
    f9ab:	48 89 85 78 fc ff ff 	mov    %rax,-0x388(%rbp)
    f9b2:	48 c7 85 80 fc ff ff 	movq   $0x0,-0x380(%rbp)
    f9b9:	00 00 00 00 
    f9bd:	48 8d 05 88 99 00 00 	lea    0x9988(%rip),%rax        # 1934c <g_503+0x4>
    f9c4:	48 89 85 88 fc ff ff 	mov    %rax,-0x378(%rbp)
    f9cb:	48 8d 05 66 86 00 00 	lea    0x8666(%rip),%rax        # 18038 <g_35>
    f9d2:	48 89 85 90 fc ff ff 	mov    %rax,-0x370(%rbp)
    f9d9:	48 8d 05 8c e3 00 00 	lea    0xe38c(%rip),%rax        # 1dd6c <g_91>
    f9e0:	48 89 85 98 fc ff ff 	mov    %rax,-0x368(%rbp)
    f9e7:	48 8d 85 18 f7 ff ff 	lea    -0x8e8(%rbp),%rax
    f9ee:	48 89 85 a0 fc ff ff 	mov    %rax,-0x360(%rbp)
    f9f5:	48 8d 05 74 8b 00 00 	lea    0x8b74(%rip),%rax        # 18570 <g_256>
    f9fc:	48 89 85 a8 fc ff ff 	mov    %rax,-0x358(%rbp)
    fa03:	48 8d 05 66 8b 00 00 	lea    0x8b66(%rip),%rax        # 18570 <g_256>
    fa0a:	48 89 85 b0 fc ff ff 	mov    %rax,-0x350(%rbp)
    fa11:	48 8d 85 18 f7 ff ff 	lea    -0x8e8(%rbp),%rax
    fa18:	48 89 85 b8 fc ff ff 	mov    %rax,-0x348(%rbp)
    fa1f:	48 8d 85 f4 f6 ff ff 	lea    -0x90c(%rbp),%rax
    fa26:	48 89 85 c0 fc ff ff 	mov    %rax,-0x340(%rbp)
    fa2d:	48 8d 05 18 99 00 00 	lea    0x9918(%rip),%rax        # 1934c <g_503+0x4>
    fa34:	48 89 85 c8 fc ff ff 	mov    %rax,-0x338(%rbp)
    fa3b:	48 8d 05 f6 85 00 00 	lea    0x85f6(%rip),%rax        # 18038 <g_35>
    fa42:	48 89 85 d0 fc ff ff 	mov    %rax,-0x330(%rbp)
    fa49:	48 8d 05 1c e3 00 00 	lea    0xe31c(%rip),%rax        # 1dd6c <g_91>
    fa50:	48 89 85 d8 fc ff ff 	mov    %rax,-0x328(%rbp)
    fa57:	48 8d 05 da 85 00 00 	lea    0x85da(%rip),%rax        # 18038 <g_35>
    fa5e:	48 89 85 e0 fc ff ff 	mov    %rax,-0x320(%rbp)
    fa65:	48 8d 05 c4 85 00 00 	lea    0x85c4(%rip),%rax        # 18030 <g_6>
    fa6c:	48 89 85 e8 fc ff ff 	mov    %rax,-0x318(%rbp)
    fa73:	48 8d 05 d6 98 00 00 	lea    0x98d6(%rip),%rax        # 19350 <g_503+0x8>
    fa7a:	48 89 85 f0 fc ff ff 	mov    %rax,-0x310(%rbp)
    fa81:	48 c7 85 f8 fc ff ff 	movq   $0x0,-0x308(%rbp)
    fa88:	00 00 00 00 
    fa8c:	48 c7 85 00 fd ff ff 	movq   $0x0,-0x300(%rbp)
    fa93:	00 00 00 00 
    fa97:	48 8d 05 9a 85 00 00 	lea    0x859a(%rip),%rax        # 18038 <g_35>
    fa9e:	48 89 85 08 fd ff ff 	mov    %rax,-0x2f8(%rbp)
    faa5:	48 8d 05 c0 e2 00 00 	lea    0xe2c0(%rip),%rax        # 1dd6c <g_91>
    faac:	48 89 85 10 fd ff ff 	mov    %rax,-0x2f0(%rbp)
    fab3:	48 c7 85 18 fd ff ff 	movq   $0x0,-0x2e8(%rbp)
    faba:	00 00 00 00 
    fabe:	48 8d 85 18 f7 ff ff 	lea    -0x8e8(%rbp),%rax
    fac5:	48 89 85 20 fd ff ff 	mov    %rax,-0x2e0(%rbp)
    facc:	48 8d 05 7d 98 00 00 	lea    0x987d(%rip),%rax        # 19350 <g_503+0x8>
    fad3:	48 89 85 28 fd ff ff 	mov    %rax,-0x2d8(%rbp)
    fada:	48 8d 05 57 85 00 00 	lea    0x8557(%rip),%rax        # 18038 <g_35>
    fae1:	48 89 85 30 fd ff ff 	mov    %rax,-0x2d0(%rbp)
    fae8:	48 c7 85 38 fd ff ff 	movq   $0x0,-0x2c8(%rbp)
    faef:	00 00 00 00 
    faf3:	48 c7 85 40 fd ff ff 	movq   $0x0,-0x2c0(%rbp)
    fafa:	00 00 00 00 
    fafe:	48 8d 05 2b 85 00 00 	lea    0x852b(%rip),%rax        # 18030 <g_6>
    fb05:	48 89 85 48 fd ff ff 	mov    %rax,-0x2b8(%rbp)
    fb0c:	48 8d 05 1d 85 00 00 	lea    0x851d(%rip),%rax        # 18030 <g_6>
    fb13:	48 89 85 50 fd ff ff 	mov    %rax,-0x2b0(%rbp)
    fb1a:	48 8d 05 0f 85 00 00 	lea    0x850f(%rip),%rax        # 18030 <g_6>
    fb21:	48 89 85 58 fd ff ff 	mov    %rax,-0x2a8(%rbp)
    fb28:	48 8d 05 09 85 00 00 	lea    0x8509(%rip),%rax        # 18038 <g_35>
    fb2f:	48 89 85 60 fd ff ff 	mov    %rax,-0x2a0(%rbp)
    fb36:	48 8d 85 18 f7 ff ff 	lea    -0x8e8(%rbp),%rax
    fb3d:	48 89 85 68 fd ff ff 	mov    %rax,-0x298(%rbp)
    fb44:	48 8d 05 25 8a 00 00 	lea    0x8a25(%rip),%rax        # 18570 <g_256>
    fb4b:	48 89 85 70 fd ff ff 	mov    %rax,-0x290(%rbp)
    fb52:	48 8d 05 df 84 00 00 	lea    0x84df(%rip),%rax        # 18038 <g_35>
    fb59:	48 89 85 78 fd ff ff 	mov    %rax,-0x288(%rbp)
    fb60:	48 c7 85 80 fd ff ff 	movq   $0x0,-0x280(%rbp)
    fb67:	00 00 00 00 
    fb6b:	48 8d 05 be 84 00 00 	lea    0x84be(%rip),%rax        # 18030 <g_6>
    fb72:	48 89 85 88 fd ff ff 	mov    %rax,-0x278(%rbp)
    fb79:	48 8d 05 b8 84 00 00 	lea    0x84b8(%rip),%rax        # 18038 <g_35>
    fb80:	48 89 85 90 fd ff ff 	mov    %rax,-0x270(%rbp)
    fb87:	48 c7 85 98 fd ff ff 	movq   $0x0,-0x268(%rbp)
    fb8e:	00 00 00 00 
    fb92:	48 8d 85 18 f7 ff ff 	lea    -0x8e8(%rbp),%rax
    fb99:	48 89 85 a0 fd ff ff 	mov    %rax,-0x260(%rbp)
    fba0:	48 8d 05 89 84 00 00 	lea    0x8489(%rip),%rax        # 18030 <g_6>
    fba7:	48 89 85 a8 fd ff ff 	mov    %rax,-0x258(%rbp)
    fbae:	48 8d 05 bb 89 00 00 	lea    0x89bb(%rip),%rax        # 18570 <g_256>
    fbb5:	48 89 85 b0 fd ff ff 	mov    %rax,-0x250(%rbp)
    fbbc:	48 c7 85 b8 fd ff ff 	movq   $0x0,-0x248(%rbp)
    fbc3:	00 00 00 00 
    fbc7:	48 c7 85 c0 fd ff ff 	movq   $0x0,-0x240(%rbp)
    fbce:	00 00 00 00 
    fbd2:	48 8d 05 57 84 00 00 	lea    0x8457(%rip),%rax        # 18030 <g_6>
    fbd9:	48 89 85 c8 fd ff ff 	mov    %rax,-0x238(%rbp)
    fbe0:	48 8d 05 89 89 00 00 	lea    0x8989(%rip),%rax        # 18570 <g_256>
    fbe7:	48 89 85 d0 fd ff ff 	mov    %rax,-0x230(%rbp)
    fbee:	48 8d 05 53 97 00 00 	lea    0x9753(%rip),%rax        # 19348 <g_503>
    fbf5:	48 89 85 d8 fd ff ff 	mov    %rax,-0x228(%rbp)
    fbfc:	48 8d 05 6d 89 00 00 	lea    0x896d(%rip),%rax        # 18570 <g_256>
    fc03:	48 89 85 e0 fd ff ff 	mov    %rax,-0x220(%rbp)
    fc0a:	48 c7 85 e8 fd ff ff 	movq   $0x0,-0x218(%rbp)
    fc11:	00 00 00 00 
    fc15:	48 8d 05 1c 84 00 00 	lea    0x841c(%rip),%rax        # 18038 <g_35>
    fc1c:	48 89 85 f0 fd ff ff 	mov    %rax,-0x210(%rbp)
    fc23:	48 c7 85 f8 fd ff ff 	movq   $0x0,-0x208(%rbp)
    fc2a:	00 00 00 00 
    fc2e:	48 c7 85 00 fe ff ff 	movq   $0x0,-0x200(%rbp)
    fc35:	00 00 00 00 
    fc39:	48 8d 05 f8 83 00 00 	lea    0x83f8(%rip),%rax        # 18038 <g_35>
    fc40:	48 89 85 08 fe ff ff 	mov    %rax,-0x1f8(%rbp)
    fc47:	48 8d 85 f4 f6 ff ff 	lea    -0x90c(%rbp),%rax
    fc4e:	48 89 85 10 fe ff ff 	mov    %rax,-0x1f0(%rbp)
    fc55:	48 8d 05 ec 96 00 00 	lea    0x96ec(%rip),%rax        # 19348 <g_503>
    fc5c:	48 89 85 18 fe ff ff 	mov    %rax,-0x1e8(%rbp)
    fc63:	48 8d 05 de 96 00 00 	lea    0x96de(%rip),%rax        # 19348 <g_503>
    fc6a:	48 89 85 20 fe ff ff 	mov    %rax,-0x1e0(%rbp)
    fc71:	48 8d 05 f4 e0 00 00 	lea    0xe0f4(%rip),%rax        # 1dd6c <g_91>
    fc78:	48 89 85 28 fe ff ff 	mov    %rax,-0x1d8(%rbp)
    fc7f:	48 8d 05 c6 96 00 00 	lea    0x96c6(%rip),%rax        # 1934c <g_503+0x4>
    fc86:	48 89 85 30 fe ff ff 	mov    %rax,-0x1d0(%rbp)
    fc8d:	48 c7 85 38 fe ff ff 	movq   $0x0,-0x1c8(%rbp)
    fc94:	00 00 00 00 
    fc98:	48 8d 05 d1 88 00 00 	lea    0x88d1(%rip),%rax        # 18570 <g_256>
    fc9f:	48 89 85 40 fe ff ff 	mov    %rax,-0x1c0(%rbp)
    fca6:	48 8d 85 f4 f6 ff ff 	lea    -0x90c(%rbp),%rax
    fcad:	48 89 85 48 fe ff ff 	mov    %rax,-0x1b8(%rbp)
    fcb4:	48 8d 05 b1 e0 00 00 	lea    0xe0b1(%rip),%rax        # 1dd6c <g_91>
    fcbb:	48 89 85 50 fe ff ff 	mov    %rax,-0x1b0(%rbp)
    fcc2:	48 8d 05 67 83 00 00 	lea    0x8367(%rip),%rax        # 18030 <g_6>
    fcc9:	48 89 85 58 fe ff ff 	mov    %rax,-0x1a8(%rbp)
    fcd0:	48 8d 05 79 96 00 00 	lea    0x9679(%rip),%rax        # 19350 <g_503+0x8>
    fcd7:	48 89 85 60 fe ff ff 	mov    %rax,-0x1a0(%rbp)
    fcde:	48 8d 05 63 96 00 00 	lea    0x9663(%rip),%rax        # 19348 <g_503>
    fce5:	48 89 85 68 fe ff ff 	mov    %rax,-0x198(%rbp)
    fcec:	48 8d 85 18 f7 ff ff 	lea    -0x8e8(%rbp),%rax
    fcf3:	48 89 85 70 fe ff ff 	mov    %rax,-0x190(%rbp)
    fcfa:	48 8d 85 18 f7 ff ff 	lea    -0x8e8(%rbp),%rax
    fd01:	48 89 85 78 fe ff ff 	mov    %rax,-0x188(%rbp)
    fd08:	48 8d 05 39 96 00 00 	lea    0x9639(%rip),%rax        # 19348 <g_503>
    fd0f:	48 89 85 80 fe ff ff 	mov    %rax,-0x180(%rbp)
    fd16:	48 8d 05 33 96 00 00 	lea    0x9633(%rip),%rax        # 19350 <g_503+0x8>
    fd1d:	48 89 85 88 fe ff ff 	mov    %rax,-0x178(%rbp)
    fd24:	48 8d 05 1d 96 00 00 	lea    0x961d(%rip),%rax        # 19348 <g_503>
    fd2b:	48 89 85 90 fe ff ff 	mov    %rax,-0x170(%rbp)
    fd32:	48 8d 05 17 96 00 00 	lea    0x9617(%rip),%rax        # 19350 <g_503+0x8>
    fd39:	48 89 85 98 fe ff ff 	mov    %rax,-0x168(%rbp)
    fd40:	48 8d 05 29 88 00 00 	lea    0x8829(%rip),%rax        # 18570 <g_256>
    fd47:	48 89 85 a0 fe ff ff 	mov    %rax,-0x160(%rbp)
    fd4e:	48 c7 85 a8 fe ff ff 	movq   $0x0,-0x158(%rbp)
    fd55:	00 00 00 00 
    fd59:	48 8d 05 d0 82 00 00 	lea    0x82d0(%rip),%rax        # 18030 <g_6>
    fd60:	48 89 85 b0 fe ff ff 	mov    %rax,-0x150(%rbp)
    fd67:	48 8d 05 02 88 00 00 	lea    0x8802(%rip),%rax        # 18570 <g_256>
    fd6e:	48 89 85 b8 fe ff ff 	mov    %rax,-0x148(%rbp)
    fd75:	48 8d 05 f0 df 00 00 	lea    0xdff0(%rip),%rax        # 1dd6c <g_91>
    fd7c:	48 89 85 c0 fe ff ff 	mov    %rax,-0x140(%rbp)
    fd83:	48 c7 85 c8 fe ff ff 	movq   $0x0,-0x138(%rbp)
    fd8a:	00 00 00 00 
    fd8e:	48 8d 05 a3 82 00 00 	lea    0x82a3(%rip),%rax        # 18038 <g_35>
    fd95:	48 89 85 d0 fe ff ff 	mov    %rax,-0x130(%rbp)
    fd9c:	48 8d 05 c9 df 00 00 	lea    0xdfc9(%rip),%rax        # 1dd6c <g_91>
    fda3:	48 89 85 d8 fe ff ff 	mov    %rax,-0x128(%rbp)
    fdaa:	48 c7 85 e0 fe ff ff 	movq   $0x0,-0x120(%rbp)
    fdb1:	00 00 00 00 
    fdb5:	48 8d 05 b4 87 00 00 	lea    0x87b4(%rip),%rax        # 18570 <g_256>
    fdbc:	48 89 85 e8 fe ff ff 	mov    %rax,-0x118(%rbp)
    fdc3:	48 c7 85 f0 fe ff ff 	movq   $0x0,-0x110(%rbp)
    fdca:	00 00 00 00 
    fdce:	48 8d 85 18 f7 ff ff 	lea    -0x8e8(%rbp),%rax
    fdd5:	48 89 85 f8 fe ff ff 	mov    %rax,-0x108(%rbp)
    fddc:	48 c7 85 00 ff ff ff 	movq   $0x0,-0x100(%rbp)
    fde3:	00 00 00 00 
    fde7:	48 8d 05 82 87 00 00 	lea    0x8782(%rip),%rax        # 18570 <g_256>
    fdee:	48 89 85 08 ff ff ff 	mov    %rax,-0xf8(%rbp)
    fdf5:	48 8d 05 3c 82 00 00 	lea    0x823c(%rip),%rax        # 18038 <g_35>
    fdfc:	48 89 85 10 ff ff ff 	mov    %rax,-0xf0(%rbp)
    fe03:	48 8d 05 26 82 00 00 	lea    0x8226(%rip),%rax        # 18030 <g_6>
    fe0a:	48 89 85 18 ff ff ff 	mov    %rax,-0xe8(%rbp)
    fe11:	48 8d 05 54 df 00 00 	lea    0xdf54(%rip),%rax        # 1dd6c <g_91>
    fe18:	48 89 85 20 ff ff ff 	mov    %rax,-0xe0(%rbp)
    fe1f:	48 8d 85 18 f7 ff ff 	lea    -0x8e8(%rbp),%rax
    fe26:	48 89 85 28 ff ff ff 	mov    %rax,-0xd8(%rbp)
    fe2d:	48 8d 05 fc 81 00 00 	lea    0x81fc(%rip),%rax        # 18030 <g_6>
    fe34:	48 89 85 30 ff ff ff 	mov    %rax,-0xd0(%rbp)
    fe3b:	48 8d 05 f6 81 00 00 	lea    0x81f6(%rip),%rax        # 18038 <g_35>
    fe42:	48 89 85 38 ff ff ff 	mov    %rax,-0xc8(%rbp)
    fe49:	48 8d 05 20 87 00 00 	lea    0x8720(%rip),%rax        # 18570 <g_256>
    fe50:	48 89 85 40 ff ff ff 	mov    %rax,-0xc0(%rbp)
    fe57:	48 8d 05 ee 94 00 00 	lea    0x94ee(%rip),%rax        # 1934c <g_503+0x4>
    fe5e:	48 89 85 48 ff ff ff 	mov    %rax,-0xb8(%rbp)
    fe65:	48 8d 05 dc 94 00 00 	lea    0x94dc(%rip),%rax        # 19348 <g_503>
    fe6c:	48 89 85 50 ff ff ff 	mov    %rax,-0xb0(%rbp)
    fe73:	48 8d 05 b6 81 00 00 	lea    0x81b6(%rip),%rax        # 18030 <g_6>
    fe7a:	48 89 85 58 ff ff ff 	mov    %rax,-0xa8(%rbp)
    fe81:	48 8d 05 c0 94 00 00 	lea    0x94c0(%rip),%rax        # 19348 <g_503>
    fe88:	48 89 85 60 ff ff ff 	mov    %rax,-0xa0(%rbp)
    fe8f:	48 8d 85 18 f7 ff ff 	lea    -0x8e8(%rbp),%rax
    fe96:	48 89 85 68 ff ff ff 	mov    %rax,-0x98(%rbp)
    fe9d:	48 8d 85 18 f7 ff ff 	lea    -0x8e8(%rbp),%rax
    fea4:	48 89 85 70 ff ff ff 	mov    %rax,-0x90(%rbp)
    feab:	48 8d 05 9e 94 00 00 	lea    0x949e(%rip),%rax        # 19350 <g_503+0x8>
    feb2:	48 89 85 78 ff ff ff 	mov    %rax,-0x88(%rbp)
    feb9:	48 8d 05 90 94 00 00 	lea    0x9490(%rip),%rax        # 19350 <g_503+0x8>
    fec0:	48 89 45 80          	mov    %rax,-0x80(%rbp)
    fec4:	48 8d 85 f4 f6 ff ff 	lea    -0x90c(%rbp),%rax
    fecb:	48 89 45 88          	mov    %rax,-0x78(%rbp)
    fecf:	48 8d 05 96 de 00 00 	lea    0xde96(%rip),%rax        # 1dd6c <g_91>
    fed6:	48 89 45 90          	mov    %rax,-0x70(%rbp)
    feda:	48 8d 05 8f 86 00 00 	lea    0x868f(%rip),%rax        # 18570 <g_256>
    fee1:	48 89 45 98          	mov    %rax,-0x68(%rbp)
    fee5:	48 8d 05 84 86 00 00 	lea    0x8684(%rip),%rax        # 18570 <g_256>
    feec:	48 89 45 a0          	mov    %rax,-0x60(%rbp)
    fef0:	48 c7 45 a8 00 00 00 	movq   $0x0,-0x58(%rbp)
    fef7:	00 
    fef8:	48 8d 05 4d 94 00 00 	lea    0x944d(%rip),%rax        # 1934c <g_503+0x4>
    feff:	48 89 45 b0          	mov    %rax,-0x50(%rbp)
    ff03:	48 8d 05 46 94 00 00 	lea    0x9446(%rip),%rax        # 19350 <g_503+0x8>
    ff0a:	48 89 45 b8          	mov    %rax,-0x48(%rbp)
    ff0e:	48 8d 05 33 94 00 00 	lea    0x9433(%rip),%rax        # 19348 <g_503>
    ff15:	48 89 45 c0          	mov    %rax,-0x40(%rbp)
    ff19:	48 8d 05 50 86 00 00 	lea    0x8650(%rip),%rax        # 18570 <g_256>
    ff20:	48 89 45 c8          	mov    %rax,-0x38(%rbp)
    ff24:	48 8d 85 f4 f6 ff ff 	lea    -0x90c(%rbp),%rax
    ff2b:	48 89 45 d0          	mov    %rax,-0x30(%rbp)
    ff2f:	48 8d 85 18 f7 ff ff 	lea    -0x8e8(%rbp),%rax
    ff36:	48 89 45 d8          	mov    %rax,-0x28(%rbp)
    ff3a:	c7 85 0c f7 ff ff e7 	movl   $0x8b6eb9e7,-0x8f4(%rbp)
    ff41:	b9 6e 8b 
    ff44:	c7 85 04 f7 ff ff 70 	movl   $0xb8312e70,-0x8fc(%rbp)
    ff4b:	2e 31 b8 
    ff4e:	c6 85 f3 f6 ff ff 03 	movb   $0x3,-0x90d(%rbp)
    ff55:	c7 85 08 f7 ff ff fb 	movl   $0xfffffffb,-0x8f8(%rbp)
    ff5c:	ff ff ff 
    ff5f:	c7 85 fc f6 ff ff 00 	movl   $0x0,-0x904(%rbp)
    ff66:	00 00 00 
    ff69:	eb 47                	jmp    ffb2 <func_47+0xea9>
    ff6b:	c7 85 00 f7 ff ff 00 	movl   $0x0,-0x900(%rbp)
    ff72:	00 00 00 
    ff75:	eb 2b                	jmp    ffa2 <func_47+0xe99>
    ff77:	8b 85 00 f7 ff ff    	mov    -0x900(%rbp),%eax
    ff7d:	48 63 d0             	movslq %eax,%rdx
    ff80:	8b 85 fc f6 ff ff    	mov    -0x904(%rbp),%eax
    ff86:	48 98                	cltq   
    ff88:	48 8d 4d f0          	lea    -0x10(%rbp),%rcx
    ff8c:	48 01 ca             	add    %rcx,%rdx
    ff8f:	48 01 d0             	add    %rdx,%rax
    ff92:	48 2d a4 08 00 00    	sub    $0x8a4,%rax
    ff98:	c6 00 00             	movb   $0x0,(%rax)
    ff9b:	83 85 00 f7 ff ff 01 	addl   $0x1,-0x900(%rbp)
    ffa2:	83 bd 00 f7 ff ff 00 	cmpl   $0x0,-0x900(%rbp)
    ffa9:	7e cc                	jle    ff77 <func_47+0xe6e>
    ffab:	83 85 fc f6 ff ff 01 	addl   $0x1,-0x904(%rbp)
    ffb2:	83 bd fc f6 ff ff 03 	cmpl   $0x3,-0x904(%rbp)
    ffb9:	7e b0                	jle    ff6b <func_47+0xe62>
    ffbb:	c7 85 fc f6 ff ff 00 	movl   $0x0,-0x904(%rbp)
    ffc2:	00 00 00 
    ffc5:	eb 1b                	jmp    ffe2 <func_47+0xed9>
    ffc7:	8b 85 fc f6 ff ff    	mov    -0x904(%rbp),%eax
    ffcd:	48 98                	cltq   
    ffcf:	48 c7 84 c5 70 f7 ff 	movq   $0x0,-0x890(%rbp,%rax,8)
    ffd6:	ff 00 00 00 00 
    ffdb:	83 85 fc f6 ff ff 01 	addl   $0x1,-0x904(%rbp)
    ffe2:	83 bd fc f6 ff ff 07 	cmpl   $0x7,-0x904(%rbp)
    ffe9:	7e dc                	jle    ffc7 <func_47+0xebe>
    ffeb:	8b 85 14 f7 ff ff    	mov    -0x8ec(%rbp),%eax
    fff1:	0f bf d8             	movswl %ax,%ebx
    fff4:	48 8b 05 6d bf 00 00 	mov    0xbf6d(%rip),%rax        # 1bf68 <g_129>
    fffb:	0f b7 00             	movzwl (%rax),%eax
    fffe:	89 c2                	mov    %eax,%edx
   10000:	8b 85 ec f6 ff ff    	mov    -0x914(%rbp),%eax
   10006:	31 d0                	xor    %edx,%eax
   10008:	0f b6 c0             	movzbl %al,%eax
   1000b:	be 7c 00 00 00       	mov    $0x7c,%esi
   10010:	89 c7                	mov    %eax,%edi
   10012:	e8 7c ab ff ff       	callq  ab93 <safe_mul_func_uint8_t_u_u>
   10017:	ba 01 00 00 00       	mov    $0x1,%edx
   1001c:	8b 85 18 f7 ff ff    	mov    -0x8e8(%rbp),%eax
   10022:	09 d0                	or     %edx,%eax
   10024:	89 85 18 f7 ff ff    	mov    %eax,-0x8e8(%rbp)
   1002a:	8b 85 14 f7 ff ff    	mov    -0x8ec(%rbp),%eax
   10030:	0d 13 ef 50 b6       	or     $0xb650ef13,%eax
   10035:	89 85 f4 f6 ff ff    	mov    %eax,-0x90c(%rbp)
   1003b:	8b 85 f4 f6 ff ff    	mov    -0x90c(%rbp),%eax
   10041:	88 05 6b 80 00 00    	mov    %al,0x806b(%rip)        # 180b2 <g_134>
   10047:	0f b6 05 64 80 00 00 	movzbl 0x8064(%rip),%eax        # 180b2 <g_134>
   1004e:	0f b6 c0             	movzbl %al,%eax
   10051:	89 c6                	mov    %eax,%esi
   10053:	bf 00 00 00 00       	mov    $0x0,%edi
   10058:	e8 51 ab ff ff       	callq  abae <safe_mod_func_uint8_t_u_u>
   1005d:	0f b6 c0             	movzbl %al,%eax
   10060:	89 de                	mov    %ebx,%esi
   10062:	89 c7                	mov    %eax,%edi
   10064:	e8 ad a3 ff ff       	callq  a416 <safe_mod_func_int16_t_s_s>
   10069:	66 85 c0             	test   %ax,%ax
   1006c:	75 07                	jne    10075 <func_47+0xf6c>
   1006e:	83 bd ec f6 ff ff 00 	cmpl   $0x0,-0x914(%rbp)
   10075:	c7 85 f8 f6 ff ff 00 	movl   $0x0,-0x908(%rbp)
   1007c:	00 00 00 
   1007f:	eb 1e                	jmp    1009f <func_47+0xf96>
   10081:	8b 85 f8 f6 ff ff    	mov    -0x908(%rbp),%eax
   10087:	48 98                	cltq   
   10089:	48 8d 15 e0 be 00 00 	lea    0xbee0(%rip),%rdx        # 1bf70 <g_131>
   10090:	48 89 94 c5 50 f7 ff 	mov    %rdx,-0x8b0(%rbp,%rax,8)
   10097:	ff 
   10098:	83 85 f8 f6 ff ff 01 	addl   $0x1,-0x908(%rbp)
   1009f:	83 bd f8 f6 ff ff 02 	cmpl   $0x2,-0x908(%rbp)
   100a6:	7e d9                	jle    10081 <func_47+0xf78>
   100a8:	48 8b 85 d8 f7 ff ff 	mov    -0x828(%rbp),%rax
   100af:	48 8b 8d 20 f7 ff ff 	mov    -0x8e0(%rbp),%rcx
   100b6:	48 8d 15 73 7f 00 00 	lea    0x7f73(%rip),%rdx        # 18030 <g_6>
   100bd:	48 89 ce             	mov    %rcx,%rsi
   100c0:	48 89 c7             	mov    %rax,%rdi
   100c3:	e8 2f 17 00 00       	callq  117f7 <func_74>
   100c8:	48 89 05 a1 be 00 00 	mov    %rax,0xbea1(%rip)        # 1bf70 <g_131>
   100cf:	80 85 f3 f6 ff ff 01 	addb   $0x1,-0x90d(%rbp)
   100d6:	48 8b 85 30 f7 ff ff 	mov    -0x8d0(%rbp),%rax
   100dd:	8b 10                	mov    (%rax),%edx
   100df:	48 8b 85 38 f7 ff ff 	mov    -0x8c8(%rbp),%rax
   100e6:	8b 00                	mov    (%rax),%eax
   100e8:	09 c2                	or     %eax,%edx
   100ea:	48 8b 85 30 f7 ff ff 	mov    -0x8d0(%rbp),%rax
   100f1:	89 10                	mov    %edx,(%rax)
   100f3:	8b 85 08 f7 ff ff    	mov    -0x8f8(%rbp),%eax
   100f9:	48 8b 5d e8          	mov    -0x18(%rbp),%rbx
   100fd:	64 48 33 1c 25 28 00 	xor    %fs:0x28,%rbx
   10104:	00 00 
   10106:	74 05                	je     1010d <func_47+0x1004>
   10108:	e8 63 9f ff ff       	callq  a070 <__stack_chk_fail@plt>
   1010d:	48 81 c4 18 09 00 00 	add    $0x918,%rsp
   10114:	5b                   	pop    %rbx
   10115:	5d                   	pop    %rbp
   10116:	c3                   	retq   

0000000000010117 <func_49>:
   10117:	f3 0f 1e fa          	endbr64 
   1011b:	55                   	push   %rbp
   1011c:	48 89 e5             	mov    %rsp,%rbp
   1011f:	89 f8                	mov    %edi,%eax
   10121:	48 89 75 e0          	mov    %rsi,-0x20(%rbp)
   10125:	88 45 ec             	mov    %al,-0x14(%rbp)
   10128:	48 b8 aa cc b2 84 5a 	movabs $0xb6f0a05a84b2ccaa,%rax
   1012f:	a0 f0 b6 
   10132:	48 89 45 f8          	mov    %rax,-0x8(%rbp)
   10136:	48 8b 45 f8          	mov    -0x8(%rbp),%rax
   1013a:	5d                   	pop    %rbp
   1013b:	c3                   	retq   

000000000001013c <func_67>:
   1013c:	f3 0f 1e fa          	endbr64 
   10140:	55                   	push   %rbp
   10141:	48 89 e5             	mov    %rsp,%rbp
   10144:	41 57                	push   %r15
   10146:	41 56                	push   %r14
   10148:	41 55                	push   %r13
   1014a:	41 54                	push   %r12
   1014c:	53                   	push   %rbx
   1014d:	48 81 ec 68 0d 00 00 	sub    $0xd68,%rsp
   10154:	48 89 bd 88 f2 ff ff 	mov    %rdi,-0xd78(%rbp)
   1015b:	48 89 95 78 f2 ff ff 	mov    %rdx,-0xd88(%rbp)
   10162:	89 c8                	mov    %ecx,%eax
   10164:	89 f2                	mov    %esi,%edx
   10166:	88 95 84 f2 ff ff    	mov    %dl,-0xd7c(%rbp)
   1016c:	88 85 80 f2 ff ff    	mov    %al,-0xd80(%rbp)
   10172:	64 48 8b 04 25 28 00 	mov    %fs:0x28,%rax
   10179:	00 00 
   1017b:	48 89 45 c8          	mov    %rax,-0x38(%rbp)
   1017f:	31 c0                	xor    %eax,%eax
   10181:	48 8d 85 f0 f7 ff ff 	lea    -0x810(%rbp),%rax
   10188:	48 8d 15 b1 af 00 00 	lea    0xafb1(%rip),%rdx        # 1b140 <g_1994+0xc10>
   1018f:	b9 46 00 00 00       	mov    $0x46,%ecx
   10194:	48 89 c7             	mov    %rax,%rdi
   10197:	48 89 d6             	mov    %rdx,%rsi
   1019a:	f3 48 a5             	rep movsq %ds:(%rsi),%es:(%rdi)
   1019d:	48 8d 05 a6 7e 00 00 	lea    0x7ea6(%rip),%rax        # 1804a <g_94>
   101a4:	48 89 85 f8 f2 ff ff 	mov    %rax,-0xd08(%rbp)
   101ab:	48 8d 05 00 7f 00 00 	lea    0x7f00(%rip),%rax        # 180b2 <g_134>
   101b2:	48 89 85 d8 f2 ff ff 	mov    %rax,-0xd28(%rbp)
   101b9:	48 8d 85 d8 f2 ff ff 	lea    -0xd28(%rbp),%rax
   101c0:	48 89 85 00 f3 ff ff 	mov    %rax,-0xd00(%rbp)
   101c7:	c7 85 10 f4 ff ff 01 	movl   $0x1,-0xbf0(%rbp)
   101ce:	00 00 00 
   101d1:	c7 85 14 f4 ff ff 01 	movl   $0x1,-0xbec(%rbp)
   101d8:	00 00 00 
   101db:	c7 85 18 f4 ff ff 01 	movl   $0x1,-0xbe8(%rbp)
   101e2:	00 00 00 
   101e5:	c7 85 1c f4 ff ff 01 	movl   $0x1,-0xbe4(%rbp)
   101ec:	00 00 00 
   101ef:	c7 85 20 f4 ff ff 01 	movl   $0x1,-0xbe0(%rbp)
   101f6:	00 00 00 
   101f9:	c7 85 24 f4 ff ff 01 	movl   $0x1,-0xbdc(%rbp)
   10200:	00 00 00 
   10203:	c7 85 28 f4 ff ff 01 	movl   $0x1,-0xbd8(%rbp)
   1020a:	00 00 00 
   1020d:	c7 85 2c f4 ff ff 01 	movl   $0x1,-0xbd4(%rbp)
   10214:	00 00 00 
   10217:	c7 85 30 f4 ff ff 01 	movl   $0x1,-0xbd0(%rbp)
   1021e:	00 00 00 
   10221:	c7 85 34 f4 ff ff 01 	movl   $0x1,-0xbcc(%rbp)
   10228:	00 00 00 
   1022b:	48 b8 a0 b7 4e 5d 19 	movabs $0xe333c0195d4eb7a0,%rax
   10232:	c0 33 e3 
   10235:	48 89 85 08 f3 ff ff 	mov    %rax,-0xcf8(%rbp)
   1023c:	48 8d 05 7d 7e 00 00 	lea    0x7e7d(%rip),%rax        # 180c0 <g_198>
   10243:	48 89 85 10 f3 ff ff 	mov    %rax,-0xcf0(%rbp)
   1024a:	48 8d 05 77 81 00 00 	lea    0x8177(%rip),%rax        # 183c8 <g_202+0x48>
   10251:	48 89 85 80 f4 ff ff 	mov    %rax,-0xb80(%rbp)
   10258:	48 8d 05 a9 7f 00 00 	lea    0x7fa9(%rip),%rax        # 18208 <g_200+0x128>
   1025f:	48 89 85 88 f4 ff ff 	mov    %rax,-0xb78(%rbp)
   10266:	48 8d 05 5b 81 00 00 	lea    0x815b(%rip),%rax        # 183c8 <g_202+0x48>
   1026d:	48 89 85 90 f4 ff ff 	mov    %rax,-0xb70(%rbp)
   10274:	48 8d 05 8d 7f 00 00 	lea    0x7f8d(%rip),%rax        # 18208 <g_200+0x128>
   1027b:	48 89 85 98 f4 ff ff 	mov    %rax,-0xb68(%rbp)
   10282:	48 8d 05 3f 81 00 00 	lea    0x813f(%rip),%rax        # 183c8 <g_202+0x48>
   10289:	48 89 85 a0 f4 ff ff 	mov    %rax,-0xb60(%rbp)
   10290:	48 8d 05 71 7f 00 00 	lea    0x7f71(%rip),%rax        # 18208 <g_200+0x128>
   10297:	48 89 85 a8 f4 ff ff 	mov    %rax,-0xb58(%rbp)
   1029e:	48 8d 05 23 81 00 00 	lea    0x8123(%rip),%rax        # 183c8 <g_202+0x48>
   102a5:	48 89 85 b0 f4 ff ff 	mov    %rax,-0xb50(%rbp)
   102ac:	48 8d 05 55 7f 00 00 	lea    0x7f55(%rip),%rax        # 18208 <g_200+0x128>
   102b3:	48 89 85 b8 f4 ff ff 	mov    %rax,-0xb48(%rbp)
   102ba:	48 8d 05 07 81 00 00 	lea    0x8107(%rip),%rax        # 183c8 <g_202+0x48>
   102c1:	48 89 85 c0 f4 ff ff 	mov    %rax,-0xb40(%rbp)
   102c8:	48 8d 05 39 7f 00 00 	lea    0x7f39(%rip),%rax        # 18208 <g_200+0x128>
   102cf:	48 89 85 c8 f4 ff ff 	mov    %rax,-0xb38(%rbp)
   102d6:	c6 85 91 f2 ff ff a9 	movb   $0xa9,-0xd6f(%rbp)
   102dd:	48 8d 85 10 f4 ff ff 	lea    -0xbf0(%rbp),%rax
   102e4:	48 83 c0 04          	add    $0x4,%rax
   102e8:	48 89 85 f0 f2 ff ff 	mov    %rax,-0xd10(%rbp)
   102ef:	c7 85 98 f2 ff ff 00 	movl   $0x0,-0xd68(%rbp)
   102f6:	00 00 00 
   102f9:	c7 85 b0 f2 ff ff 59 	movl   $0x10a02059,-0xd50(%rbp)
   10300:	20 a0 10 
   10303:	66 c7 05 3e 7d 00 00 	movw   $0x0,0x7d3e(%rip)        # 1804a <g_94>
   1030a:	00 00 
   1030c:	eb 73                	jmp    10381 <func_67+0x245>
   1030e:	48 8d 05 23 7d 00 00 	lea    0x7d23(%rip),%rax        # 18038 <g_35>
   10315:	48 89 85 a8 f3 ff ff 	mov    %rax,-0xc58(%rbp)
   1031c:	48 8d 05 15 7d 00 00 	lea    0x7d15(%rip),%rax        # 18038 <g_35>
   10323:	48 89 85 b0 f3 ff ff 	mov    %rax,-0xc50(%rbp)
   1032a:	48 c7 85 b8 f3 ff ff 	movq   $0x0,-0xc48(%rbp)
   10331:	00 00 00 00 
   10335:	48 8d 05 fc 7c 00 00 	lea    0x7cfc(%rip),%rax        # 18038 <g_35>
   1033c:	48 89 85 c0 f3 ff ff 	mov    %rax,-0xc40(%rbp)
   10343:	48 8d 05 ee 7c 00 00 	lea    0x7cee(%rip),%rax        # 18038 <g_35>
   1034a:	48 89 85 c8 f3 ff ff 	mov    %rax,-0xc38(%rbp)
   10351:	c7 85 d4 f2 ff ff 73 	movl   $0x38d5f573,-0xd2c(%rbp)
   10358:	f5 d5 38 
   1035b:	83 85 d4 f2 ff ff 01 	addl   $0x1,-0xd2c(%rbp)
   10362:	0f b7 05 e1 7c 00 00 	movzwl 0x7ce1(%rip),%eax        # 1804a <g_94>
   10369:	48 0f bf c0          	movswq %ax,%rax
   1036d:	be 01 00 00 00       	mov    $0x1,%esi
   10372:	48 89 c7             	mov    %rax,%rdi
   10375:	e8 b4 ac ff ff       	callq  b02e <safe_add_func_uint64_t_u_u>
   1037a:	66 89 05 c9 7c 00 00 	mov    %ax,0x7cc9(%rip)        # 1804a <g_94>
   10381:	0f b7 05 c2 7c 00 00 	movzwl 0x7cc2(%rip),%eax        # 1804a <g_94>
   10388:	66 83 f8 06          	cmp    $0x6,%ax
   1038c:	74 80                	je     1030e <func_67+0x1d2>
   1038e:	48 8b 05 7b c2 00 00 	mov    0xc27b(%rip),%rax        # 1c610 <g_155>
   10395:	48 89 05 74 c2 00 00 	mov    %rax,0xc274(%rip)        # 1c610 <g_155>
   1039c:	48 8b 05 6d c2 00 00 	mov    0xc26d(%rip),%rax        # 1c610 <g_155>
   103a3:	48 85 c0             	test   %rax,%rax
   103a6:	0f 95 c0             	setne  %al
   103a9:	44 0f b6 e8          	movzbl %al,%r13d
   103ad:	0f b7 05 fc 7c 00 00 	movzwl 0x7cfc(%rip),%eax        # 180b0 <g_130>
   103b4:	0f b7 d8             	movzwl %ax,%ebx
   103b7:	8b 05 af d9 00 00    	mov    0xd9af(%rip),%eax        # 1dd6c <g_91>
   103bd:	44 0f b6 e0          	movzbl %al,%r12d
   103c1:	8b 85 18 f4 ff ff    	mov    -0xbe8(%rbp),%eax
   103c7:	41 89 c6             	mov    %eax,%r14d
   103ca:	48 8b 85 f8 f2 ff ff 	mov    -0xd08(%rbp),%rax
   103d1:	66 c7 00 f7 ff       	movw   $0xfff7,(%rax)
   103d6:	0f b6 85 80 f2 ff ff 	movzbl -0xd80(%rbp),%eax
   103dd:	89 c6                	mov    %eax,%esi
   103df:	bf 00 00 00 00       	mov    $0x0,%edi
   103e4:	e8 a5 a9 ff ff       	callq  ad8e <safe_div_func_uint16_t_u_u>
   103e9:	48 8b 05 b8 7c 00 00 	mov    0x7cb8(%rip),%rax        # 180a8 <g_127>
   103f0:	41 89 c7             	mov    %eax,%r15d
   103f3:	48 83 bd 00 f3 ff ff 	cmpq   $0x0,-0xd00(%rbp)
   103fa:	00 
   103fb:	0f 94 c0             	sete   %al
   103fe:	0f b6 d0             	movzbl %al,%edx
   10401:	8b 85 18 f4 ff ff    	mov    -0xbe8(%rbp),%eax
   10407:	21 c2                	and    %eax,%edx
   10409:	0f b6 05 a2 7c 00 00 	movzbl 0x7ca2(%rip),%eax        # 180b2 <g_134>
   10410:	0f be c0             	movsbl %al,%eax
   10413:	89 d6                	mov    %edx,%esi
   10415:	89 c7                	mov    %eax,%edi
   10417:	e8 19 9f ff ff       	callq  a335 <safe_rshift_func_int8_t_s_s>
   1041c:	0f be c0             	movsbl %al,%eax
   1041f:	44 89 fe             	mov    %r15d,%esi
   10422:	89 c7                	mov    %eax,%edi
   10424:	e8 a7 aa ff ff       	callq  aed0 <safe_sub_func_uint32_t_u_u>
   10429:	48 83 bd 08 f3 ff ff 	cmpq   $0xfffffffffffffff7,-0xcf8(%rbp)
   10430:	f7 
   10431:	0f 9d c0             	setge  %al
   10434:	0f b6 c0             	movzbl %al,%eax
   10437:	44 89 f6             	mov    %r14d,%esi
   1043a:	89 c7                	mov    %eax,%edi
   1043c:	e8 bc aa ff ff       	callq  aefd <safe_mod_func_uint32_t_u_u>
   10441:	be 07 00 00 00       	mov    $0x7,%esi
   10446:	bf 00 00 00 00       	mov    $0x0,%edi
   1044b:	e8 9e 9e ff ff       	callq  a2ee <safe_lshift_func_int8_t_s_u>
   10450:	84 c0                	test   %al,%al
   10452:	75 0a                	jne    1045e <func_67+0x322>
   10454:	8b 85 10 f4 ff ff    	mov    -0xbf0(%rbp),%eax
   1045a:	85 c0                	test   %eax,%eax
   1045c:	74 07                	je     10465 <func_67+0x329>
   1045e:	b8 01 00 00 00       	mov    $0x1,%eax
   10463:	eb 05                	jmp    1046a <func_67+0x32e>
   10465:	b8 00 00 00 00       	mov    $0x0,%eax
   1046a:	48 98                	cltq   
   1046c:	48 89 c7             	mov    %rax,%rdi
   1046f:	e8 a2 a3 ff ff       	callq  a816 <safe_unary_minus_func_int64_t_s>
   10474:	0f b6 c0             	movzbl %al,%eax
   10477:	44 89 e6             	mov    %r12d,%esi
   1047a:	89 c7                	mov    %eax,%edi
   1047c:	e8 12 a7 ff ff       	callq  ab93 <safe_mul_func_uint8_t_u_u>
   10481:	89 c2                	mov    %eax,%edx
   10483:	0f b6 05 aa 7b 00 00 	movzbl 0x7baa(%rip),%eax        # 18034 <g_32>
   1048a:	31 d0                	xor    %edx,%eax
   1048c:	88 05 a2 7b 00 00    	mov    %al,0x7ba2(%rip)        # 18034 <g_32>
   10492:	0f b6 05 9b 7b 00 00 	movzbl 0x7b9b(%rip),%eax        # 18034 <g_32>
   10499:	0f be c0             	movsbl %al,%eax
   1049c:	be 01 00 00 00       	mov    $0x1,%esi
   104a1:	89 c7                	mov    %eax,%edi
   104a3:	e8 46 9e ff ff       	callq  a2ee <safe_lshift_func_int8_t_s_u>
   104a8:	66 98                	cbtw   
   104aa:	0f b7 c0             	movzwl %ax,%eax
   104ad:	89 de                	mov    %ebx,%esi
   104af:	89 c7                	mov    %eax,%edi
   104b1:	e8 69 a8 ff ff       	callq  ad1f <safe_sub_func_uint16_t_u_u>
   104b6:	0f b7 c0             	movzwl %ax,%eax
   104b9:	44 09 e8             	or     %r13d,%eax
   104bc:	85 c0                	test   %eax,%eax
   104be:	0f 84 10 05 00 00    	je     109d4 <func_67+0x898>
   104c4:	48 8d 85 10 f4 ff ff 	lea    -0xbf0(%rbp),%rax
   104cb:	48 83 c0 24          	add    $0x24,%rax
   104cf:	48 89 85 a0 f3 ff ff 	mov    %rax,-0xc60(%rbp)
   104d6:	48 8d 05 5b 7b 00 00 	lea    0x7b5b(%rip),%rax        # 18038 <g_35>
   104dd:	48 89 85 20 fa ff ff 	mov    %rax,-0x5e0(%rbp)
   104e4:	48 8d 05 45 7b 00 00 	lea    0x7b45(%rip),%rax        # 18030 <g_6>
   104eb:	48 89 85 28 fa ff ff 	mov    %rax,-0x5d8(%rbp)
   104f2:	48 8d 85 10 f4 ff ff 	lea    -0xbf0(%rbp),%rax
   104f9:	48 83 c0 08          	add    $0x8,%rax
   104fd:	48 89 85 30 fa ff ff 	mov    %rax,-0x5d0(%rbp)
   10504:	48 8d 05 25 7b 00 00 	lea    0x7b25(%rip),%rax        # 18030 <g_6>
   1050b:	48 89 85 38 fa ff ff 	mov    %rax,-0x5c8(%rbp)
   10512:	48 c7 85 40 fa ff ff 	movq   $0x0,-0x5c0(%rbp)
   10519:	00 00 00 00 
   1051d:	48 c7 85 48 fa ff ff 	movq   $0x0,-0x5b8(%rbp)
   10524:	00 00 00 00 
   10528:	48 8d 85 10 f4 ff ff 	lea    -0xbf0(%rbp),%rax
   1052f:	48 83 c0 08          	add    $0x8,%rax
   10533:	48 89 85 50 fa ff ff 	mov    %rax,-0x5b0(%rbp)
   1053a:	48 8d 05 ef 7a 00 00 	lea    0x7aef(%rip),%rax        # 18030 <g_6>
   10541:	48 89 85 58 fa ff ff 	mov    %rax,-0x5a8(%rbp)
   10548:	48 8d 05 e9 7a 00 00 	lea    0x7ae9(%rip),%rax        # 18038 <g_35>
   1054f:	48 89 85 60 fa ff ff 	mov    %rax,-0x5a0(%rbp)
   10556:	48 8d 05 0f d8 00 00 	lea    0xd80f(%rip),%rax        # 1dd6c <g_91>
   1055d:	48 89 85 68 fa ff ff 	mov    %rax,-0x598(%rbp)
   10564:	48 c7 85 70 fa ff ff 	movq   $0x0,-0x590(%rbp)
   1056b:	00 00 00 00 
   1056f:	48 8d 05 ba 7a 00 00 	lea    0x7aba(%rip),%rax        # 18030 <g_6>
   10576:	48 89 85 78 fa ff ff 	mov    %rax,-0x588(%rbp)
   1057d:	48 c7 85 80 fa ff ff 	movq   $0x0,-0x580(%rbp)
   10584:	00 00 00 00 
   10588:	48 8d 05 a1 7a 00 00 	lea    0x7aa1(%rip),%rax        # 18030 <g_6>
   1058f:	48 89 85 88 fa ff ff 	mov    %rax,-0x578(%rbp)
   10596:	48 c7 85 90 fa ff ff 	movq   $0x0,-0x570(%rbp)
   1059d:	00 00 00 00 
   105a1:	48 c7 85 98 fa ff ff 	movq   $0x0,-0x568(%rbp)
   105a8:	00 00 00 00 
   105ac:	48 8d 05 b9 d7 00 00 	lea    0xd7b9(%rip),%rax        # 1dd6c <g_91>
   105b3:	48 89 85 a0 fa ff ff 	mov    %rax,-0x560(%rbp)
   105ba:	48 8d 85 10 f4 ff ff 	lea    -0xbf0(%rbp),%rax
   105c1:	48 83 c0 08          	add    $0x8,%rax
   105c5:	48 89 85 a8 fa ff ff 	mov    %rax,-0x558(%rbp)
   105cc:	48 c7 85 b0 fa ff ff 	movq   $0x0,-0x550(%rbp)
   105d3:	00 00 00 00 
   105d7:	48 8d 85 10 f4 ff ff 	lea    -0xbf0(%rbp),%rax
   105de:	48 83 c0 08          	add    $0x8,%rax
   105e2:	48 89 85 b8 fa ff ff 	mov    %rax,-0x548(%rbp)
   105e9:	48 c7 85 c0 fa ff ff 	movq   $0x0,-0x540(%rbp)
   105f0:	00 00 00 00 
   105f4:	48 8d 85 10 f4 ff ff 	lea    -0xbf0(%rbp),%rax
   105fb:	48 83 c0 08          	add    $0x8,%rax
   105ff:	48 89 85 c8 fa ff ff 	mov    %rax,-0x538(%rbp)
   10606:	48 8d 05 23 7a 00 00 	lea    0x7a23(%rip),%rax        # 18030 <g_6>
   1060d:	48 89 85 d0 fa ff ff 	mov    %rax,-0x530(%rbp)
   10614:	48 8d 05 51 d7 00 00 	lea    0xd751(%rip),%rax        # 1dd6c <g_91>
   1061b:	48 89 85 d8 fa ff ff 	mov    %rax,-0x528(%rbp)
   10622:	48 8d 05 07 7a 00 00 	lea    0x7a07(%rip),%rax        # 18030 <g_6>
   10629:	48 89 85 e0 fa ff ff 	mov    %rax,-0x520(%rbp)
   10630:	48 8d 85 10 f4 ff ff 	lea    -0xbf0(%rbp),%rax
   10637:	48 83 c0 08          	add    $0x8,%rax
   1063b:	48 89 85 e8 fa ff ff 	mov    %rax,-0x518(%rbp)
   10642:	48 c7 85 f0 fa ff ff 	movq   $0x0,-0x510(%rbp)
   10649:	00 00 00 00 
   1064d:	48 8d 05 e4 79 00 00 	lea    0x79e4(%rip),%rax        # 18038 <g_35>
   10654:	48 89 85 f8 fa ff ff 	mov    %rax,-0x508(%rbp)
   1065b:	48 8d 05 0a d7 00 00 	lea    0xd70a(%rip),%rax        # 1dd6c <g_91>
   10662:	48 89 85 00 fb ff ff 	mov    %rax,-0x500(%rbp)
   10669:	48 c7 85 08 fb ff ff 	movq   $0x0,-0x4f8(%rbp)
   10670:	00 00 00 00 
   10674:	48 8d 05 bd 79 00 00 	lea    0x79bd(%rip),%rax        # 18038 <g_35>
   1067b:	48 89 85 10 fb ff ff 	mov    %rax,-0x4f0(%rbp)
   10682:	48 8d 05 af 79 00 00 	lea    0x79af(%rip),%rax        # 18038 <g_35>
   10689:	48 89 85 18 fb ff ff 	mov    %rax,-0x4e8(%rbp)
   10690:	48 c7 85 20 fb ff ff 	movq   $0x0,-0x4e0(%rbp)
   10697:	00 00 00 00 
   1069b:	48 8d 05 8e 79 00 00 	lea    0x798e(%rip),%rax        # 18030 <g_6>
   106a2:	48 89 85 28 fb ff ff 	mov    %rax,-0x4d8(%rbp)
   106a9:	48 8d 05 88 79 00 00 	lea    0x7988(%rip),%rax        # 18038 <g_35>
   106b0:	48 89 85 30 fb ff ff 	mov    %rax,-0x4d0(%rbp)
   106b7:	48 8d 05 ae d6 00 00 	lea    0xd6ae(%rip),%rax        # 1dd6c <g_91>
   106be:	48 89 85 38 fb ff ff 	mov    %rax,-0x4c8(%rbp)
   106c5:	48 8d 05 6c 79 00 00 	lea    0x796c(%rip),%rax        # 18038 <g_35>
   106cc:	48 89 85 40 fb ff ff 	mov    %rax,-0x4c0(%rbp)
   106d3:	48 c7 85 48 fb ff ff 	movq   $0x0,-0x4b8(%rbp)
   106da:	00 00 00 00 
   106de:	48 8d 85 10 f4 ff ff 	lea    -0xbf0(%rbp),%rax
   106e5:	48 83 c0 08          	add    $0x8,%rax
   106e9:	48 89 85 50 fb ff ff 	mov    %rax,-0x4b0(%rbp)
   106f0:	48 8d 05 41 79 00 00 	lea    0x7941(%rip),%rax        # 18038 <g_35>
   106f7:	48 89 85 58 fb ff ff 	mov    %rax,-0x4a8(%rbp)
   106fe:	48 8d 05 67 d6 00 00 	lea    0xd667(%rip),%rax        # 1dd6c <g_91>
   10705:	48 89 85 60 fb ff ff 	mov    %rax,-0x4a0(%rbp)
   1070c:	48 8d 05 25 79 00 00 	lea    0x7925(%rip),%rax        # 18038 <g_35>
   10713:	48 89 85 68 fb ff ff 	mov    %rax,-0x498(%rbp)
   1071a:	48 c7 85 70 fb ff ff 	movq   $0x0,-0x490(%rbp)
   10721:	00 00 00 00 
   10725:	48 8d 85 10 f4 ff ff 	lea    -0xbf0(%rbp),%rax
   1072c:	48 83 c0 08          	add    $0x8,%rax
   10730:	48 89 85 78 fb ff ff 	mov    %rax,-0x488(%rbp)
   10737:	48 8d 05 f2 78 00 00 	lea    0x78f2(%rip),%rax        # 18030 <g_6>
   1073e:	48 89 85 80 fb ff ff 	mov    %rax,-0x480(%rbp)
   10745:	48 c7 85 88 fb ff ff 	movq   $0x0,-0x478(%rbp)
   1074c:	00 00 00 00 
   10750:	48 c7 85 90 fb ff ff 	movq   $0x0,-0x470(%rbp)
   10757:	00 00 00 00 
   1075b:	48 c7 85 98 fb ff ff 	movq   $0x0,-0x468(%rbp)
   10762:	00 00 00 00 
   10766:	48 c7 85 a0 fb ff ff 	movq   $0x0,-0x460(%rbp)
   1076d:	00 00 00 00 
   10771:	48 8d 05 b8 78 00 00 	lea    0x78b8(%rip),%rax        # 18030 <g_6>
   10778:	48 89 85 a8 fb ff ff 	mov    %rax,-0x458(%rbp)
   1077f:	48 8d 85 10 f4 ff ff 	lea    -0xbf0(%rbp),%rax
   10786:	48 83 c0 08          	add    $0x8,%rax
   1078a:	48 89 85 b0 fb ff ff 	mov    %rax,-0x450(%rbp)
   10791:	48 8d 85 10 f4 ff ff 	lea    -0xbf0(%rbp),%rax
   10798:	48 83 c0 08          	add    $0x8,%rax
   1079c:	48 89 85 b8 fb ff ff 	mov    %rax,-0x448(%rbp)
   107a3:	48 8d 85 10 f4 ff ff 	lea    -0xbf0(%rbp),%rax
   107aa:	48 83 c0 08          	add    $0x8,%rax
   107ae:	48 89 85 c0 fb ff ff 	mov    %rax,-0x440(%rbp)
   107b5:	48 8d 85 10 f4 ff ff 	lea    -0xbf0(%rbp),%rax
   107bc:	48 83 c0 08          	add    $0x8,%rax
   107c0:	48 89 85 c8 fb ff ff 	mov    %rax,-0x438(%rbp)
   107c7:	48 8d 85 10 f4 ff ff 	lea    -0xbf0(%rbp),%rax
   107ce:	48 83 c0 08          	add    $0x8,%rax
   107d2:	48 89 85 d0 fb ff ff 	mov    %rax,-0x430(%rbp)
   107d9:	48 8d 05 58 78 00 00 	lea    0x7858(%rip),%rax        # 18038 <g_35>
   107e0:	48 89 85 d8 fb ff ff 	mov    %rax,-0x428(%rbp)
   107e7:	48 8d 05 7e d5 00 00 	lea    0xd57e(%rip),%rax        # 1dd6c <g_91>
   107ee:	48 89 85 e0 fb ff ff 	mov    %rax,-0x420(%rbp)
   107f5:	48 8d 05 3c 78 00 00 	lea    0x783c(%rip),%rax        # 18038 <g_35>
   107fc:	48 89 85 e8 fb ff ff 	mov    %rax,-0x418(%rbp)
   10803:	48 c7 85 f0 fb ff ff 	movq   $0x0,-0x410(%rbp)
   1080a:	00 00 00 00 
   1080e:	48 8d 85 10 f4 ff ff 	lea    -0xbf0(%rbp),%rax
   10815:	48 83 c0 08          	add    $0x8,%rax
   10819:	48 89 85 f8 fb ff ff 	mov    %rax,-0x408(%rbp)
   10820:	48 8d 05 11 78 00 00 	lea    0x7811(%rip),%rax        # 18038 <g_35>
   10827:	48 89 85 00 fc ff ff 	mov    %rax,-0x400(%rbp)
   1082e:	48 8d 05 fb 77 00 00 	lea    0x77fb(%rip),%rax        # 18030 <g_6>
   10835:	48 89 85 08 fc ff ff 	mov    %rax,-0x3f8(%rbp)
   1083c:	48 c7 85 10 fc ff ff 	movq   $0x0,-0x3f0(%rbp)
   10843:	00 00 00 00 
   10847:	48 8d 05 1e d5 00 00 	lea    0xd51e(%rip),%rax        # 1dd6c <g_91>
   1084e:	48 89 85 18 fc ff ff 	mov    %rax,-0x3e8(%rbp)
   10855:	48 8d 05 dc 77 00 00 	lea    0x77dc(%rip),%rax        # 18038 <g_35>
   1085c:	48 89 85 20 fc ff ff 	mov    %rax,-0x3e0(%rbp)
   10863:	48 c7 85 28 fc ff ff 	movq   $0x0,-0x3d8(%rbp)
   1086a:	00 00 00 00 
   1086e:	48 c7 85 30 fc ff ff 	movq   $0x0,-0x3d0(%rbp)
   10875:	00 00 00 00 
   10879:	48 8d 05 b8 77 00 00 	lea    0x77b8(%rip),%rax        # 18038 <g_35>
   10880:	48 89 85 38 fc ff ff 	mov    %rax,-0x3c8(%rbp)
   10887:	48 8d 05 aa 77 00 00 	lea    0x77aa(%rip),%rax        # 18038 <g_35>
   1088e:	48 89 85 40 fc ff ff 	mov    %rax,-0x3c0(%rbp)
   10895:	48 8d 05 d0 d4 00 00 	lea    0xd4d0(%rip),%rax        # 1dd6c <g_91>
   1089c:	48 89 85 48 fc ff ff 	mov    %rax,-0x3b8(%rbp)
   108a3:	48 8d 05 8e 77 00 00 	lea    0x778e(%rip),%rax        # 18038 <g_35>
   108aa:	48 89 85 50 fc ff ff 	mov    %rax,-0x3b0(%rbp)
   108b1:	48 8d 05 80 77 00 00 	lea    0x7780(%rip),%rax        # 18038 <g_35>
   108b8:	48 89 85 58 fc ff ff 	mov    %rax,-0x3a8(%rbp)
   108bf:	48 8d 05 a6 d4 00 00 	lea    0xd4a6(%rip),%rax        # 1dd6c <g_91>
   108c6:	48 89 85 60 fc ff ff 	mov    %rax,-0x3a0(%rbp)
   108cd:	48 8d 85 10 f4 ff ff 	lea    -0xbf0(%rbp),%rax
   108d4:	48 83 c0 08          	add    $0x8,%rax
   108d8:	48 89 85 68 fc ff ff 	mov    %rax,-0x398(%rbp)
   108df:	48 c7 85 70 fc ff ff 	movq   $0x0,-0x390(%rbp)
   108e6:	00 00 00 00 
   108ea:	48 8d 05 3f 77 00 00 	lea    0x773f(%rip),%rax        # 18030 <g_6>
   108f1:	48 89 85 78 fc ff ff 	mov    %rax,-0x388(%rbp)
   108f8:	48 c7 85 80 fc ff ff 	movq   $0x0,-0x380(%rbp)
   108ff:	00 00 00 00 
   10903:	48 8d 85 10 f4 ff ff 	lea    -0xbf0(%rbp),%rax
   1090a:	48 83 c0 08          	add    $0x8,%rax
   1090e:	48 89 85 88 fc ff ff 	mov    %rax,-0x378(%rbp)
   10915:	48 8d 05 50 d4 00 00 	lea    0xd450(%rip),%rax        # 1dd6c <g_91>
   1091c:	48 89 85 90 fc ff ff 	mov    %rax,-0x370(%rbp)
   10923:	48 8d 05 0e 77 00 00 	lea    0x770e(%rip),%rax        # 18038 <g_35>
   1092a:	48 89 85 98 fc ff ff 	mov    %rax,-0x368(%rbp)
   10931:	48 8d 05 f8 76 00 00 	lea    0x76f8(%rip),%rax        # 18030 <g_6>
   10938:	48 89 85 a0 fc ff ff 	mov    %rax,-0x360(%rbp)
   1093f:	48 c7 85 a8 fc ff ff 	movq   $0x0,-0x358(%rbp)
   10946:	00 00 00 00 
   1094a:	48 8d 05 1b d4 00 00 	lea    0xd41b(%rip),%rax        # 1dd6c <g_91>
   10951:	48 89 85 b0 fc ff ff 	mov    %rax,-0x350(%rbp)
   10958:	48 8d 85 10 f4 ff ff 	lea    -0xbf0(%rbp),%rax
   1095f:	48 83 c0 08          	add    $0x8,%rax
   10963:	48 89 85 b8 fc ff ff 	mov    %rax,-0x348(%rbp)
   1096a:	48 c7 85 c0 fc ff ff 	movq   $0x0,-0x340(%rbp)
   10971:	00 00 00 00 
   10975:	48 8d 05 f0 d3 00 00 	lea    0xd3f0(%rip),%rax        # 1dd6c <g_91>
   1097c:	48 89 85 c8 fc ff ff 	mov    %rax,-0x338(%rbp)
   10983:	48 8d 85 10 f4 ff ff 	lea    -0xbf0(%rbp),%rax
   1098a:	48 83 c0 08          	add    $0x8,%rax
   1098e:	48 89 85 d0 fc ff ff 	mov    %rax,-0x330(%rbp)
   10995:	48 8d 85 10 f4 ff ff 	lea    -0xbf0(%rbp),%rax
   1099c:	48 83 c0 20          	add    $0x20,%rax
   109a0:	48 89 85 d8 fc ff ff 	mov    %rax,-0x328(%rbp)
   109a7:	48 c7 85 e0 fc ff ff 	movq   $0x0,-0x320(%rbp)
   109ae:	00 00 00 00 
   109b2:	48 8d 05 77 76 00 00 	lea    0x7677(%rip),%rax        # 18030 <g_6>
   109b9:	48 89 85 e8 fc ff ff 	mov    %rax,-0x318(%rbp)
   109c0:	8b 05 ee 76 00 00    	mov    0x76ee(%rip),%eax        # 180b4 <g_182>
   109c6:	83 c0 01             	add    $0x1,%eax
   109c9:	89 05 e5 76 00 00    	mov    %eax,0x76e5(%rip)        # 180b4 <g_182>
   109cf:	e9 ab 0a 00 00       	jmpq   1147f <func_67+0x1343>
   109d4:	48 8d 05 35 bc 00 00 	lea    0xbc35(%rip),%rax        # 1c610 <g_155>
   109db:	48 89 85 18 f3 ff ff 	mov    %rax,-0xce8(%rbp)
   109e2:	48 8d 05 4f 76 00 00 	lea    0x764f(%rip),%rax        # 18038 <g_35>
   109e9:	48 89 85 40 f4 ff ff 	mov    %rax,-0xbc0(%rbp)
   109f0:	48 8d 85 10 f4 ff ff 	lea    -0xbf0(%rbp),%rax
   109f7:	48 83 c0 08          	add    $0x8,%rax
   109fb:	48 89 85 48 f4 ff ff 	mov    %rax,-0xbb8(%rbp)
   10a02:	48 8d 05 2f 76 00 00 	lea    0x762f(%rip),%rax        # 18038 <g_35>
   10a09:	48 89 85 50 f4 ff ff 	mov    %rax,-0xbb0(%rbp)
   10a10:	48 8d 85 10 f4 ff ff 	lea    -0xbf0(%rbp),%rax
   10a17:	48 83 c0 08          	add    $0x8,%rax
   10a1b:	48 89 85 58 f4 ff ff 	mov    %rax,-0xba8(%rbp)
   10a22:	48 8d 05 0f 76 00 00 	lea    0x760f(%rip),%rax        # 18038 <g_35>
   10a29:	48 89 85 60 f4 ff ff 	mov    %rax,-0xba0(%rbp)
   10a30:	48 8d 85 10 f4 ff ff 	lea    -0xbf0(%rbp),%rax
   10a37:	48 83 c0 08          	add    $0x8,%rax
   10a3b:	48 89 85 68 f4 ff ff 	mov    %rax,-0xb98(%rbp)
   10a42:	48 8d 05 ef 75 00 00 	lea    0x75ef(%rip),%rax        # 18038 <g_35>
   10a49:	48 89 85 70 f4 ff ff 	mov    %rax,-0xb90(%rbp)
   10a50:	48 8d 85 10 f4 ff ff 	lea    -0xbf0(%rbp),%rax
   10a57:	48 83 c0 08          	add    $0x8,%rax
   10a5b:	48 89 85 78 f4 ff ff 	mov    %rax,-0xb88(%rbp)
   10a62:	48 8d 05 df 75 00 00 	lea    0x75df(%rip),%rax        # 18048 <g_93>
   10a69:	48 89 85 20 f3 ff ff 	mov    %rax,-0xce0(%rbp)
   10a70:	66 c7 85 f0 f3 ff ff 	movw   $0xfffa,-0xc10(%rbp)
   10a77:	fa ff 
   10a79:	66 c7 85 f2 f3 ff ff 	movw   $0xfffe,-0xc0e(%rbp)
   10a80:	fe ff 
   10a82:	66 c7 85 f4 f3 ff ff 	movw   $0xfffa,-0xc0c(%rbp)
   10a89:	fa ff 
   10a8b:	66 c7 85 f6 f3 ff ff 	movw   $0xfffe,-0xc0a(%rbp)
   10a92:	fe ff 
   10a94:	66 c7 85 f8 f3 ff ff 	movw   $0xfffa,-0xc08(%rbp)
   10a9b:	fa ff 
   10a9d:	66 c7 85 fa f3 ff ff 	movw   $0xfffe,-0xc06(%rbp)
   10aa4:	fe ff 
   10aa6:	66 c7 85 fc f3 ff ff 	movw   $0xfffa,-0xc04(%rbp)
   10aad:	fa ff 
   10aaf:	66 c7 85 fe f3 ff ff 	movw   $0xfffe,-0xc02(%rbp)
   10ab6:	fe ff 
   10ab8:	66 c7 85 00 f4 ff ff 	movw   $0xfffa,-0xc00(%rbp)
   10abf:	fa ff 
   10ac1:	66 c7 85 02 f4 ff ff 	movw   $0xfffe,-0xbfe(%rbp)
   10ac8:	fe ff 
   10aca:	66 c7 85 04 f4 ff ff 	movw   $0xfffa,-0xbfc(%rbp)
   10ad1:	fa ff 
   10ad3:	66 c7 85 06 f4 ff ff 	movw   $0xfffe,-0xbfa(%rbp)
   10ada:	fe ff 
   10adc:	66 c7 85 08 f4 ff ff 	movw   $0xfffa,-0xbf8(%rbp)
   10ae3:	fa ff 
   10ae5:	66 c7 85 0a f4 ff ff 	movw   $0xfffe,-0xbf6(%rbp)
   10aec:	fe ff 
   10aee:	48 8d 85 20 fa ff ff 	lea    -0x5e0(%rbp),%rax
   10af5:	48 8d 15 84 a8 00 00 	lea    0xa884(%rip),%rdx        # 1b380 <g_1994+0xe50>
   10afc:	b9 b4 00 00 00       	mov    $0xb4,%ecx
   10b01:	48 89 c7             	mov    %rax,%rdi
   10b04:	48 89 d6             	mov    %rdx,%rsi
   10b07:	f3 48 a5             	rep movsq %ds:(%rsi),%es:(%rdi)
   10b0a:	0f b6 85 84 f2 ff ff 	movzbl -0xd7c(%rbp),%eax
   10b11:	83 f0 01             	xor    $0x1,%eax
   10b14:	0f b6 c0             	movzbl %al,%eax
   10b17:	89 05 1b 75 00 00    	mov    %eax,0x751b(%rip)        # 18038 <g_35>
   10b1d:	48 8b 95 58 f4 ff ff 	mov    -0xba8(%rbp),%rdx
   10b24:	48 8b 85 20 f3 ff ff 	mov    -0xce0(%rbp),%rax
   10b2b:	48 c7 c6 fd ff ff ff 	mov    $0xfffffffffffffffd,%rsi
   10b32:	48 89 c7             	mov    %rax,%rdi
   10b35:	e8 bd 0c 00 00       	callq  117f7 <func_74>
   10b3a:	48 89 85 50 f4 ff ff 	mov    %rax,-0xbb0(%rbp)
   10b41:	0f b7 05 68 75 00 00 	movzwl 0x7568(%rip),%eax        # 180b0 <g_130>
   10b48:	0f b7 c0             	movzwl %ax,%eax
   10b4b:	48 39 85 78 f2 ff ff 	cmp    %rax,-0xd88(%rbp)
   10b52:	0f 95 c0             	setne  %al
   10b55:	0f b6 c0             	movzbl %al,%eax
   10b58:	48 89 c6             	mov    %rax,%rsi
   10b5b:	48 c7 c7 f7 ff ff ff 	mov    $0xfffffffffffffff7,%rdi
   10b62:	e8 da 9c ff ff       	callq  a841 <safe_add_func_int64_t_s_s>
   10b67:	48 8b 05 02 b4 00 00 	mov    0xb402(%rip),%rax        # 1bf70 <g_131>
   10b6e:	8b 10                	mov    (%rax),%edx
   10b70:	0f b7 85 fe f3 ff ff 	movzwl -0xc02(%rbp),%eax
   10b77:	21 d0                	and    %edx,%eax
   10b79:	66 89 85 fe f3 ff ff 	mov    %ax,-0xc02(%rbp)
   10b80:	c7 05 e6 d1 00 00 00 	movl   $0x0,0xd1e6(%rip)        # 1dd70 <g_136>
   10b87:	00 00 00 
   10b8a:	e9 e1 08 00 00       	jmpq   11470 <func_67+0x1334>
   10b8f:	48 8d 85 10 f6 ff ff 	lea    -0x9f0(%rbp),%rax
   10b96:	48 8d 15 83 ad 00 00 	lea    0xad83(%rip),%rdx        # 1b920 <g_1994+0x13f0>
   10b9d:	b9 3c 00 00 00       	mov    $0x3c,%ecx
   10ba2:	48 89 c7             	mov    %rax,%rdi
   10ba5:	48 89 d6             	mov    %rdx,%rsi
   10ba8:	f3 48 a5             	rep movsq %ds:(%rsi),%es:(%rdi)
   10bab:	c7 85 b4 f2 ff ff 0d 	movl   $0x80b90f0d,-0xd4c(%rbp)
   10bb2:	0f b9 80 
   10bb5:	48 c7 85 28 f3 ff ff 	movq   $0x0,-0xcd8(%rbp)
   10bbc:	00 00 00 00 
   10bc0:	c7 85 b8 f2 ff ff ff 	movl   $0xffffffff,-0xd48(%rbp)
   10bc7:	ff ff ff 
   10bca:	c7 85 94 f2 ff ff ff 	movl   $0xffffffff,-0xd6c(%rbp)
   10bd1:	ff ff ff 
   10bd4:	c7 85 bc f2 ff ff 05 	movl   $0x5,-0xd44(%rbp)
   10bdb:	00 00 00 
   10bde:	c7 85 c0 f2 ff ff 46 	movl   $0xaab47b46,-0xd40(%rbp)
   10be5:	7b b4 aa 
   10be8:	48 b8 ce f6 5e f6 eb 	movabs $0x3759ebebf65ef6ce,%rax
   10bef:	eb 59 37 
   10bf2:	48 89 85 30 f3 ff ff 	mov    %rax,-0xcd0(%rbp)
   10bf9:	48 8b 05 18 ba 00 00 	mov    0xba18(%rip),%rax        # 1c618 <g_194>
   10c00:	48 89 05 11 ba 00 00 	mov    %rax,0xba11(%rip)        # 1c618 <g_194>
   10c07:	48 8b 05 0a ba 00 00 	mov    0xba0a(%rip),%rax        # 1c618 <g_194>
   10c0e:	48 89 85 10 f3 ff ff 	mov    %rax,-0xcf0(%rbp)
   10c15:	48 8b 85 10 f3 ff ff 	mov    -0xcf0(%rbp),%rax
   10c1c:	48 89 85 b8 f4 ff ff 	mov    %rax,-0xb48(%rbp)
   10c23:	48 c7 05 12 74 00 00 	movq   $0x12,0x7412(%rip)        # 18040 <g_92>
   10c2a:	12 00 00 00 
   10c2e:	90                   	nop
   10c2f:	48 8b 05 0a 74 00 00 	mov    0x740a(%rip),%rax        # 18040 <g_92>
   10c36:	48 83 f8 04          	cmp    $0x4,%rax
   10c3a:	7e 0b                	jle    10c47 <func_67+0xb0b>
   10c3c:	8b 05 c6 75 00 00    	mov    0x75c6(%rip),%eax        # 18208 <g_200+0x128>
   10c42:	e9 49 08 00 00       	jmpq   11490 <func_67+0x1354>
   10c47:	c7 05 e7 73 00 00 fb 	movl   $0xfffffffb,0x73e7(%rip)        # 18038 <g_35>
   10c4e:	ff ff ff 
   10c51:	e9 93 02 00 00       	jmpq   10ee9 <func_67+0xdad>
   10c56:	48 c7 85 90 f3 ff ff 	movq   $0x0,-0xc70(%rbp)
   10c5d:	00 00 00 00 
   10c61:	48 8d 85 d0 f4 ff ff 	lea    -0xb30(%rbp),%rax
   10c68:	48 8d 15 91 ae 00 00 	lea    0xae91(%rip),%rdx        # 1bb00 <g_1994+0x15d0>
   10c6f:	b9 28 00 00 00       	mov    $0x28,%ecx
   10c74:	48 89 c7             	mov    %rax,%rdi
   10c77:	48 89 d6             	mov    %rdx,%rsi
   10c7a:	f3 48 a5             	rep movsq %ds:(%rsi),%es:(%rdi)
   10c7d:	c6 85 80 f2 ff ff 00 	movb   $0x0,-0xd80(%rbp)
   10c84:	e9 60 01 00 00       	jmpq   10de9 <func_67+0xcad>
   10c89:	c7 85 9c f2 ff ff 1c 	movl   $0x5445221c,-0xd64(%rbp)
   10c90:	22 45 54 
   10c93:	c7 85 a0 f2 ff ff 00 	movl   $0x0,-0xd60(%rbp)
   10c9a:	00 00 00 
   10c9d:	eb 1b                	jmp    10cba <func_67+0xb7e>
   10c9f:	8b 85 a0 f2 ff ff    	mov    -0xd60(%rbp),%eax
   10ca5:	48 98                	cltq   
   10ca7:	48 c7 84 c5 d0 f3 ff 	movq   $0x0,-0xc30(%rbp,%rax,8)
   10cae:	ff 00 00 00 00 
   10cb3:	83 85 a0 f2 ff ff 01 	addl   $0x1,-0xd60(%rbp)
   10cba:	83 bd a0 f2 ff ff 02 	cmpl   $0x2,-0xd60(%rbp)
   10cc1:	7e dc                	jle    10c9f <func_67+0xb63>
   10cc3:	48 8b 95 e0 f3 ff ff 	mov    -0xc20(%rbp),%rdx
   10cca:	48 8b 85 c0 fc ff ff 	mov    -0x340(%rbp),%rax
   10cd1:	48 89 05 40 b9 00 00 	mov    %rax,0xb940(%rip)        # 1c618 <g_194>
   10cd8:	48 8b 05 39 b9 00 00 	mov    0xb939(%rip),%rax        # 1c618 <g_194>
   10cdf:	48 39 c2             	cmp    %rax,%rdx
   10ce2:	0f 95 c0             	setne  %al
   10ce5:	0f b6 c0             	movzbl %al,%eax
   10ce8:	89 85 9c f2 ff ff    	mov    %eax,-0xd64(%rbp)
   10cee:	48 8b 05 7b b2 00 00 	mov    0xb27b(%rip),%rax        # 1bf70 <g_131>
   10cf5:	8b 00                	mov    (%rax),%eax
   10cf7:	85 c0                	test   %eax,%eax
   10cf9:	0f 85 d9 00 00 00    	jne    10dd8 <func_67+0xc9c>
   10cff:	48 8b 85 88 f2 ff ff 	mov    -0xd78(%rbp),%rax
   10d06:	89 05 60 d0 00 00    	mov    %eax,0xd060(%rip)        # 1dd6c <g_91>
   10d0c:	8b 05 5a d0 00 00    	mov    0xd05a(%rip),%eax        # 1dd6c <g_91>
   10d12:	85 c0                	test   %eax,%eax
   10d14:	74 11                	je     10d27 <func_67+0xbeb>
   10d16:	48 8b 05 53 b2 00 00 	mov    0xb253(%rip),%rax        # 1bf70 <g_131>
   10d1d:	8b 00                	mov    (%rax),%eax
   10d1f:	89 05 47 d0 00 00    	mov    %eax,0xd047(%rip)        # 1dd6c <g_91>
   10d25:	eb 17                	jmp    10d3e <func_67+0xc02>
   10d27:	48 8b 85 78 f2 ff ff 	mov    -0xd88(%rbp),%rax
   10d2e:	89 c2                	mov    %eax,%edx
   10d30:	8b 05 36 d0 00 00    	mov    0xd036(%rip),%eax        # 1dd6c <g_91>
   10d36:	21 d0                	and    %edx,%eax
   10d38:	89 05 2e d0 00 00    	mov    %eax,0xd02e(%rip)        # 1dd6c <g_91>
   10d3e:	48 c7 85 78 f2 ff ff 	movq   $0x0,-0xd88(%rbp)
   10d45:	00 00 00 00 
   10d49:	eb 7d                	jmp    10dc8 <func_67+0xc8c>
   10d4b:	48 8d 85 40 f4 ff ff 	lea    -0xbc0(%rbp),%rax
   10d52:	48 83 c0 28          	add    $0x28,%rax
   10d56:	48 89 85 98 f3 ff ff 	mov    %rax,-0xc68(%rbp)
   10d5d:	48 8b 85 78 f2 ff ff 	mov    -0xd88(%rbp),%rax
   10d64:	48 83 c0 02          	add    $0x2,%rax
   10d68:	c7 84 85 10 f4 ff ff 	movl   $0x1,-0xbf0(%rbp,%rax,4)
   10d6f:	01 00 00 00 
   10d73:	48 8b 85 78 f2 ff ff 	mov    -0xd88(%rbp),%rax
   10d7a:	48 8d 50 02          	lea    0x2(%rax),%rdx
   10d7e:	48 8d 85 10 f4 ff ff 	lea    -0xbf0(%rbp),%rax
   10d85:	48 c1 e2 02          	shl    $0x2,%rdx
   10d89:	48 01 c2             	add    %rax,%rdx
   10d8c:	48 8b 85 98 f3 ff ff 	mov    -0xc68(%rbp),%rax
   10d93:	48 89 10             	mov    %rdx,(%rax)
   10d96:	48 8b 85 78 f2 ff ff 	mov    -0xd88(%rbp),%rax
   10d9d:	48 83 c0 01          	add    $0x1,%rax
   10da1:	8b 84 85 10 f4 ff ff 	mov    -0xbf0(%rbp,%rax,4),%eax
   10da8:	0f b6 c0             	movzbl %al,%eax
   10dab:	be 04 00 00 00       	mov    $0x4,%esi
   10db0:	89 c7                	mov    %eax,%edi
   10db2:	e8 07 9f ff ff       	callq  acbe <safe_rshift_func_uint8_t_u_u>
   10db7:	0f b6 c0             	movzbl %al,%eax
   10dba:	31 85 9c f2 ff ff    	xor    %eax,-0xd64(%rbp)
   10dc0:	48 83 85 78 f2 ff ff 	addq   $0x1,-0xd88(%rbp)
   10dc7:	01 
   10dc8:	48 83 bd 78 f2 ff ff 	cmpq   $0x3,-0xd88(%rbp)
   10dcf:	03 
   10dd0:	0f 8e 75 ff ff ff    	jle    10d4b <func_67+0xc0f>
   10dd6:	eb 01                	jmp    10dd9 <func_67+0xc9d>
   10dd8:	90                   	nop
   10dd9:	0f b6 85 80 f2 ff ff 	movzbl -0xd80(%rbp),%eax
   10de0:	83 c0 01             	add    $0x1,%eax
   10de3:	88 85 80 f2 ff ff    	mov    %al,-0xd80(%rbp)
   10de9:	80 bd 80 f2 ff ff 39 	cmpb   $0x39,-0xd80(%rbp)
   10df0:	0f 84 93 fe ff ff    	je     10c89 <func_67+0xb4d>
   10df6:	48 8b 9d 48 f5 ff ff 	mov    -0xab8(%rbp),%rbx
   10dfd:	8b 85 b4 f2 ff ff    	mov    -0xd4c(%rbp),%eax
   10e03:	44 0f b7 e0          	movzwl %ax,%r12d
   10e07:	48 8b 05 5a b1 00 00 	mov    0xb15a(%rip),%rax        # 1bf68 <g_129>
   10e0e:	0f b7 00             	movzwl (%rax),%eax
   10e11:	44 0f b7 e8          	movzwl %ax,%r13d
   10e15:	48 8b 05 54 b1 00 00 	mov    0xb154(%rip),%rax        # 1bf70 <g_131>
   10e1c:	44 8b 30             	mov    (%rax),%r14d
   10e1f:	0f b6 05 8c 72 00 00 	movzbl 0x728c(%rip),%eax        # 180b2 <g_134>
   10e26:	44 0f be f8          	movsbl %al,%r15d
   10e2a:	0f b6 85 80 f2 ff ff 	movzbl -0xd80(%rbp),%eax
   10e31:	89 85 74 f2 ff ff    	mov    %eax,-0xd8c(%rbp)
   10e37:	bf 01 00 00 00       	mov    $0x1,%edi
   10e3c:	e8 7e 93 ff ff       	callq  a1bf <safe_unary_minus_func_int8_t_s>
   10e41:	0f be c0             	movsbl %al,%eax
   10e44:	39 85 74 f2 ff ff    	cmp    %eax,-0xd8c(%rbp)
   10e4a:	0f 9c c0             	setl   %al
   10e4d:	0f b6 c0             	movzbl %al,%eax
   10e50:	41 39 c7             	cmp    %eax,%r15d
   10e53:	0f 9c c0             	setl   %al
   10e56:	0f b6 c0             	movzbl %al,%eax
   10e59:	44 89 f6             	mov    %r14d,%esi
   10e5c:	89 c7                	mov    %eax,%edi
   10e5e:	e8 69 98 ff ff       	callq  a6cc <safe_mod_func_int32_t_s_s>
   10e63:	0f b6 85 91 f2 ff ff 	movzbl -0xd6f(%rbp),%eax
   10e6a:	84 c0                	test   %al,%al
   10e6c:	0f 95 c0             	setne  %al
   10e6f:	0f b6 c0             	movzbl %al,%eax
   10e72:	44 89 ee             	mov    %r13d,%esi
   10e75:	89 c7                	mov    %eax,%edi
   10e77:	e8 12 9f ff ff       	callq  ad8e <safe_div_func_uint16_t_u_u>
   10e7c:	0f b7 d0             	movzwl %ax,%edx
   10e7f:	8b 05 e3 76 00 00    	mov    0x76e3(%rip),%eax        # 18568 <g_228>
   10e85:	39 c2                	cmp    %eax,%edx
   10e87:	0f 9f c0             	setg   %al
   10e8a:	0f b6 d0             	movzbl %al,%edx
   10e8d:	8b 85 18 f4 ff ff    	mov    -0xbe8(%rbp),%eax
   10e93:	31 d0                	xor    %edx,%eax
   10e95:	89 85 18 f4 ff ff    	mov    %eax,-0xbe8(%rbp)
   10e9b:	8b 95 18 f4 ff ff    	mov    -0xbe8(%rbp),%edx
   10ea1:	48 8b 05 c8 b0 00 00 	mov    0xb0c8(%rip),%rax        # 1bf70 <g_131>
   10ea8:	8b 00                	mov    (%rax),%eax
   10eaa:	39 c2                	cmp    %eax,%edx
   10eac:	0f 9f c0             	setg   %al
   10eaf:	0f b6 c0             	movzbl %al,%eax
   10eb2:	44 89 e6             	mov    %r12d,%esi
   10eb5:	89 c7                	mov    %eax,%edi
   10eb7:	e8 81 9e ff ff       	callq  ad3d <safe_mul_func_uint16_t_u_u>
   10ebc:	48 8b 85 20 f3 ff ff 	mov    -0xce0(%rbp),%rax
   10ec3:	48 89 da             	mov    %rbx,%rdx
   10ec6:	be 01 00 00 00       	mov    $0x1,%esi
   10ecb:	48 89 c7             	mov    %rax,%rdi
   10ece:	e8 24 09 00 00       	callq  117f7 <func_74>
   10ed3:	48 89 85 f0 f2 ff ff 	mov    %rax,-0xd10(%rbp)
   10eda:	8b 05 58 71 00 00    	mov    0x7158(%rip),%eax        # 18038 <g_35>
   10ee0:	83 c0 01             	add    $0x1,%eax
   10ee3:	89 05 4f 71 00 00    	mov    %eax,0x714f(%rip)        # 18038 <g_35>
   10ee9:	8b 05 49 71 00 00    	mov    0x7149(%rip),%eax        # 18038 <g_35>
   10eef:	83 f8 05             	cmp    $0x5,%eax
   10ef2:	0f 8f 5e fd ff ff    	jg     10c56 <func_67+0xb1a>
   10ef8:	66 c7 05 af 71 00 00 	movw   $0x0,0x71af(%rip)        # 180b0 <g_130>
   10eff:	00 00 
   10f01:	e9 3c 05 00 00       	jmpq   11442 <func_67+0x1306>
   10f06:	c7 85 c4 f2 ff ff fa 	movl   $0x2f4319fa,-0xd3c(%rbp)
   10f0d:	19 43 2f 
   10f10:	c7 85 c8 f2 ff ff 00 	movl   $0x0,-0xd38(%rbp)
   10f17:	00 00 00 
   10f1a:	48 c7 85 e0 f2 ff ff 	movq   $0x0,-0xd20(%rbp)
   10f21:	00 00 00 00 
   10f25:	48 8d 85 e0 f2 ff ff 	lea    -0xd20(%rbp),%rax
   10f2c:	48 89 85 e8 f2 ff ff 	mov    %rax,-0xd18(%rbp)
   10f33:	48 8d 05 3a 76 00 00 	lea    0x763a(%rip),%rax        # 18574 <g_267>
   10f3a:	48 89 85 38 f3 ff ff 	mov    %rax,-0xcc8(%rbp)
   10f41:	48 8d 85 40 f4 ff ff 	lea    -0xbc0(%rbp),%rax
   10f48:	48 83 c0 10          	add    $0x10,%rax
   10f4c:	48 89 85 40 f3 ff ff 	mov    %rax,-0xcc0(%rbp)
   10f53:	0f b7 05 56 71 00 00 	movzwl 0x7156(%rip),%eax        # 180b0 <g_130>
   10f5a:	0f b7 c0             	movzwl %ax,%eax
   10f5d:	8d 50 01             	lea    0x1(%rax),%edx
   10f60:	0f b7 05 49 71 00 00 	movzwl 0x7149(%rip),%eax        # 180b0 <g_130>
   10f67:	0f b7 c0             	movzwl %ax,%eax
   10f6a:	48 98                	cltq   
   10f6c:	48 63 d2             	movslq %edx,%rdx
   10f6f:	48 01 d2             	add    %rdx,%rdx
   10f72:	48 01 d0             	add    %rdx,%rax
   10f75:	0f b7 84 45 f0 f3 ff 	movzwl -0xc10(%rbp,%rax,2),%eax
   10f7c:	ff 
   10f7d:	66 85 c0             	test   %ax,%ax
   10f80:	0f 84 61 01 00 00    	je     110e7 <func_67+0xfab>
   10f86:	48 8d 05 23 71 00 00 	lea    0x7123(%rip),%rax        # 180b0 <g_130>
   10f8d:	48 89 85 70 f3 ff ff 	mov    %rax,-0xc90(%rbp)
   10f94:	48 8d 85 91 f2 ff ff 	lea    -0xd6f(%rbp),%rax
   10f9b:	48 89 85 78 f3 ff ff 	mov    %rax,-0xc88(%rbp)
   10fa2:	48 8d 05 cb 75 00 00 	lea    0x75cb(%rip),%rax        # 18574 <g_267>
   10fa9:	48 89 85 80 f3 ff ff 	mov    %rax,-0xc80(%rbp)
   10fb0:	48 8d 05 9d 76 00 00 	lea    0x769d(%rip),%rax        # 18654 <g_284+0xd4>
   10fb7:	48 89 85 88 f3 ff ff 	mov    %rax,-0xc78(%rbp)
   10fbe:	c7 85 d0 f2 ff ff 01 	movl   $0x1,-0xd30(%rbp)
   10fc5:	00 00 00 
   10fc8:	48 8b 85 78 f2 ff ff 	mov    -0xd88(%rbp),%rax
   10fcf:	0f be d8             	movsbl %al,%ebx
   10fd2:	48 8b 85 28 f3 ff ff 	mov    -0xcd8(%rbp),%rax
   10fd9:	48 3b 85 70 f3 ff ff 	cmp    -0xc90(%rbp),%rax
   10fe0:	8b 05 d2 70 00 00    	mov    0x70d2(%rip),%eax        # 180b8 <g_195>
   10fe6:	0f b6 c0             	movzbl %al,%eax
   10fe9:	be 02 00 00 00       	mov    $0x2,%esi
   10fee:	89 c7                	mov    %eax,%edi
   10ff0:	e8 10 9c ff ff       	callq  ac05 <safe_lshift_func_uint8_t_u_s>
   10ff5:	48 8b 85 78 f3 ff ff 	mov    -0xc88(%rbp),%rax
   10ffc:	0f b6 00             	movzbl (%rax),%eax
   10fff:	8d 50 ff             	lea    -0x1(%rax),%edx
   11002:	48 8b 85 78 f3 ff ff 	mov    -0xc88(%rbp),%rax
   11009:	88 10                	mov    %dl,(%rax)
   1100b:	48 8b 85 78 f3 ff ff 	mov    -0xc88(%rbp),%rax
   11012:	0f b6 00             	movzbl (%rax),%eax
   11015:	0f b6 c0             	movzbl %al,%eax
   11018:	be fa 00 00 00       	mov    $0xfa,%esi
   1101d:	89 c7                	mov    %eax,%edi
   1101f:	e8 36 9b ff ff       	callq  ab5a <safe_add_func_uint8_t_u_u>
   11024:	0f b6 c0             	movzbl %al,%eax
   11027:	be 07 00 00 00       	mov    $0x7,%esi
   1102c:	89 c7                	mov    %eax,%edi
   1102e:	e8 8b 9d ff ff       	callq  adbe <safe_lshift_func_uint16_t_u_s>
   11033:	0f b7 05 76 70 00 00 	movzwl 0x7076(%rip),%eax        # 180b0 <g_130>
   1103a:	0f b7 c0             	movzwl %ax,%eax
   1103d:	8d 50 01             	lea    0x1(%rax),%edx
   11040:	0f b7 05 69 70 00 00 	movzwl 0x7069(%rip),%eax        # 180b0 <g_130>
   11047:	0f b7 c0             	movzwl %ax,%eax
   1104a:	48 98                	cltq   
   1104c:	48 63 d2             	movslq %edx,%rdx
   1104f:	48 01 d2             	add    %rdx,%rdx
   11052:	48 01 d0             	add    %rdx,%rax
   11055:	0f b7 84 45 f0 f3 ff 	movzwl -0xc10(%rbp,%rax,2),%eax
   1105c:	ff 
   1105d:	44 0f b6 e0          	movzbl %al,%r12d
   11061:	48 8b 85 f0 f2 ff ff 	mov    -0xd10(%rbp),%rax
   11068:	8b 00                	mov    (%rax),%eax
   1106a:	83 f8 03             	cmp    $0x3,%eax
   1106d:	0f 9f c0             	setg   %al
   11070:	0f b6 c0             	movzbl %al,%eax
   11073:	be 05 00 00 00       	mov    $0x5,%esi
   11078:	89 c7                	mov    %eax,%edi
   1107a:	e8 0e 9c ff ff       	callq  ac8d <safe_rshift_func_uint8_t_u_s>
   1107f:	0f b6 d0             	movzbl %al,%edx
   11082:	48 8b 85 80 f3 ff ff 	mov    -0xc80(%rbp),%rax
   11089:	0f b7 00             	movzwl (%rax),%eax
   1108c:	8d 48 01             	lea    0x1(%rax),%ecx
   1108f:	48 8b 85 80 f3 ff ff 	mov    -0xc80(%rbp),%rax
   11096:	66 89 08             	mov    %cx,(%rax)
   11099:	48 8b 85 80 f3 ff ff 	mov    -0xc80(%rbp),%rax
   110a0:	0f b7 00             	movzwl (%rax),%eax
   110a3:	0f b7 c0             	movzwl %ax,%eax
   110a6:	89 d6                	mov    %edx,%esi
   110a8:	89 c7                	mov    %eax,%edi
   110aa:	e8 8e 9c ff ff       	callq  ad3d <safe_mul_func_uint16_t_u_u>
   110af:	0f b6 c0             	movzbl %al,%eax
   110b2:	44 89 e6             	mov    %r12d,%esi
   110b5:	89 c7                	mov    %eax,%edi
   110b7:	e8 9e 9a ff ff       	callq  ab5a <safe_add_func_uint8_t_u_u>
   110bc:	bf 00 00 00 00       	mov    $0x0,%edi
   110c1:	e8 d7 92 ff ff       	callq  a39d <safe_unary_minus_func_int16_t_s>
   110c6:	48 8b 85 88 f2 ff ff 	mov    -0xd78(%rbp),%rax
   110cd:	0f be c0             	movsbl %al,%eax
   110d0:	89 de                	mov    %ebx,%esi
   110d2:	89 c7                	mov    %eax,%edi
   110d4:	e8 fb 90 ff ff       	callq  a1d4 <safe_add_func_int8_t_s_s>
   110d9:	0f be c0             	movsbl %al,%eax
   110dc:	31 85 98 f2 ff ff    	xor    %eax,-0xd68(%rbp)
   110e2:	e9 e1 02 00 00       	jmpq   113c8 <func_67+0x128c>
   110e7:	c6 85 92 f2 ff ff 51 	movb   $0x51,-0xd6e(%rbp)
   110ee:	48 8d 85 e8 f2 ff ff 	lea    -0xd18(%rbp),%rax
   110f5:	48 89 85 48 f3 ff ff 	mov    %rax,-0xcb8(%rbp)
   110fc:	48 8d 85 f0 f7 ff ff 	lea    -0x810(%rbp),%rax
   11103:	48 05 a0 01 00 00    	add    $0x1a0,%rax
   11109:	48 89 85 50 f3 ff ff 	mov    %rax,-0xcb0(%rbp)
   11110:	c6 85 93 f2 ff ff a1 	movb   $0xa1,-0xd6d(%rbp)
   11117:	c7 85 a4 f2 ff ff 00 	movl   $0x0,-0xd5c(%rbp)
   1111e:	00 00 00 
   11121:	eb 72                	jmp    11195 <func_67+0x1059>
   11123:	c7 85 a8 f2 ff ff 00 	movl   $0x0,-0xd58(%rbp)
   1112a:	00 00 00 
   1112d:	eb 56                	jmp    11185 <func_67+0x1049>
   1112f:	c7 85 ac f2 ff ff 00 	movl   $0x0,-0xd54(%rbp)
   11136:	00 00 00 
   11139:	eb 3a                	jmp    11175 <func_67+0x1039>
   1113b:	8b 85 ac f2 ff ff    	mov    -0xd54(%rbp),%eax
   11141:	48 63 c8             	movslq %eax,%rcx
   11144:	8b 85 a8 f2 ff ff    	mov    -0xd58(%rbp),%eax
   1114a:	48 63 d0             	movslq %eax,%rdx
   1114d:	8b 85 a4 f2 ff ff    	mov    -0xd5c(%rbp),%eax
   11153:	48 98                	cltq   
   11155:	48 01 ca             	add    %rcx,%rdx
   11158:	48 01 d0             	add    %rdx,%rax
   1115b:	48 8d 95 10 f6 ff ff 	lea    -0x9f0(%rbp),%rdx
   11162:	48 83 c2 08          	add    $0x8,%rdx
   11166:	48 89 94 c5 d0 f4 ff 	mov    %rdx,-0xb30(%rbp,%rax,8)
   1116d:	ff 
   1116e:	83 85 ac f2 ff ff 01 	addl   $0x1,-0xd54(%rbp)
   11175:	83 bd ac f2 ff ff 00 	cmpl   $0x0,-0xd54(%rbp)
   1117c:	7e bd                	jle    1113b <func_67+0xfff>
   1117e:	83 85 a8 f2 ff ff 01 	addl   $0x1,-0xd58(%rbp)
   11185:	83 bd a8 f2 ff ff 00 	cmpl   $0x0,-0xd58(%rbp)
   1118c:	7e a1                	jle    1112f <func_67+0xff3>
   1118e:	83 85 a4 f2 ff ff 01 	addl   $0x1,-0xd5c(%rbp)
   11195:	83 bd a4 f2 ff ff 01 	cmpl   $0x1,-0xd5c(%rbp)
   1119c:	7e 85                	jle    11123 <func_67+0xfe7>
   1119e:	0f b7 05 e3 74 00 00 	movzwl 0x74e3(%rip),%eax        # 18688 <g_295>
   111a5:	83 e8 01             	sub    $0x1,%eax
   111a8:	66 89 05 d9 74 00 00 	mov    %ax,0x74d9(%rip)        # 18688 <g_295>
   111af:	66 c7 05 92 6e 00 00 	movw   $0x0,0x6e92(%rip)        # 1804a <g_94>
   111b6:	00 00 
   111b8:	eb 65                	jmp    1121f <func_67+0x10e3>
   111ba:	48 8d 85 d0 f4 ff ff 	lea    -0xb30(%rbp),%rax
   111c1:	48 89 85 60 f3 ff ff 	mov    %rax,-0xca0(%rbp)
   111c8:	c7 85 cc f2 ff ff 15 	movl   $0x18572215,-0xd34(%rbp)
   111cf:	22 57 18 
   111d2:	48 8d 85 94 f2 ff ff 	lea    -0xd6c(%rbp),%rax
   111d9:	48 89 85 68 f3 ff ff 	mov    %rax,-0xc98(%rbp)
   111e0:	48 8b 95 d0 f4 ff ff 	mov    -0xb30(%rbp),%rdx
   111e7:	48 8b 85 60 f3 ff ff 	mov    -0xca0(%rbp),%rax
   111ee:	48 89 10             	mov    %rdx,(%rax)
   111f1:	8b 05 49 75 00 00    	mov    0x7549(%rip),%eax        # 18740 <g_303>
   111f7:	83 e8 01             	sub    $0x1,%eax
   111fa:	89 05 40 75 00 00    	mov    %eax,0x7540(%rip)        # 18740 <g_303>
   11200:	48 8d 85 94 f2 ff ff 	lea    -0xd6c(%rbp),%rax
   11207:	48 89 85 68 f3 ff ff 	mov    %rax,-0xc98(%rbp)
   1120e:	0f b7 05 35 6e 00 00 	movzwl 0x6e35(%rip),%eax        # 1804a <g_94>
   11215:	83 c0 01             	add    $0x1,%eax
   11218:	66 89 05 2b 6e 00 00 	mov    %ax,0x6e2b(%rip)        # 1804a <g_94>
   1121f:	0f b7 05 24 6e 00 00 	movzwl 0x6e24(%rip),%eax        # 1804a <g_94>
   11226:	66 83 f8 01          	cmp    $0x1,%ax
   1122a:	7e 8e                	jle    111ba <func_67+0x107e>
   1122c:	c6 05 7f 6e 00 00 00 	movb   $0x0,0x6e7f(%rip)        # 180b2 <g_134>
   11233:	eb 33                	jmp    11268 <func_67+0x112c>
   11235:	48 8d 85 40 f4 ff ff 	lea    -0xbc0(%rbp),%rax
   1123c:	48 83 c0 18          	add    $0x18,%rax
   11240:	48 89 85 58 f3 ff ff 	mov    %rax,-0xca8(%rbp)
   11247:	48 8b 95 58 f4 ff ff 	mov    -0xba8(%rbp),%rdx
   1124e:	48 8b 85 58 f3 ff ff 	mov    -0xca8(%rbp),%rax
   11255:	48 89 10             	mov    %rdx,(%rax)
   11258:	0f b6 05 53 6e 00 00 	movzbl 0x6e53(%rip),%eax        # 180b2 <g_134>
   1125f:	83 c0 01             	add    $0x1,%eax
   11262:	88 05 4a 6e 00 00    	mov    %al,0x6e4a(%rip)        # 180b2 <g_134>
   11268:	0f b6 05 43 6e 00 00 	movzbl 0x6e43(%rip),%eax        # 180b2 <g_134>
   1126f:	3c 01                	cmp    $0x1,%al
   11271:	7e c2                	jle    11235 <func_67+0x10f9>
   11273:	8b 05 6f 71 00 00    	mov    0x716f(%rip),%eax        # 183e8 <g_214>
   11279:	0f be d8             	movsbl %al,%ebx
   1127c:	0f b6 85 80 f2 ff ff 	movzbl -0xd80(%rbp),%eax
   11283:	89 c7                	mov    %eax,%edi
   11285:	e8 13 91 ff ff       	callq  a39d <safe_unary_minus_func_int16_t_s>
   1128a:	41 89 c4             	mov    %eax,%r12d
   1128d:	48 8b 85 50 f3 ff ff 	mov    -0xcb0(%rbp),%rax
   11294:	48 8d 15 75 b3 00 00 	lea    0xb375(%rip),%rdx        # 1c610 <g_155>
   1129b:	48 89 10             	mov    %rdx,(%rax)
   1129e:	48 8b 95 e8 f2 ff ff 	mov    -0xd18(%rbp),%rdx
   112a5:	48 8b 85 48 f3 ff ff 	mov    -0xcb8(%rbp),%rax
   112ac:	48 89 10             	mov    %rdx,(%rax)
   112af:	0f b6 85 92 f2 ff ff 	movzbl -0xd6e(%rbp),%eax
   112b6:	0f b7 15 f3 6d 00 00 	movzwl 0x6df3(%rip),%edx        # 180b0 <g_130>
   112bd:	0f b7 d2             	movzwl %dx,%edx
   112c0:	8d 4a 04             	lea    0x4(%rdx),%ecx
   112c3:	0f b7 15 e6 6d 00 00 	movzwl 0x6de6(%rip),%edx        # 180b0 <g_130>
   112ca:	0f b7 d2             	movzwl %dx,%edx
   112cd:	48 63 d2             	movslq %edx,%rdx
   112d0:	48 63 c9             	movslq %ecx,%rcx
   112d3:	48 01 c9             	add    %rcx,%rcx
   112d6:	48 01 ca             	add    %rcx,%rdx
   112d9:	0f b7 b4 55 f0 f3 ff 	movzwl -0xc10(%rbp,%rdx,2),%esi
   112e0:	ff 
   112e1:	66 0f be c8          	movsbw %al,%cx
   112e5:	0f b7 05 c4 6d 00 00 	movzwl 0x6dc4(%rip),%eax        # 180b0 <g_130>
   112ec:	0f b7 c0             	movzwl %ax,%eax
   112ef:	8d 50 04             	lea    0x4(%rax),%edx
   112f2:	0f b7 05 b7 6d 00 00 	movzwl 0x6db7(%rip),%eax        # 180b0 <g_130>
   112f9:	0f b7 c0             	movzwl %ax,%eax
   112fc:	31 ce                	xor    %ecx,%esi
   112fe:	48 63 c8             	movslq %eax,%rcx
   11301:	48 63 fa             	movslq %edx,%rdi
   11304:	48 01 ff             	add    %rdi,%rdi
   11307:	48 01 f9             	add    %rdi,%rcx
   1130a:	66 89 b4 4d f0 f3 ff 	mov    %si,-0xc10(%rbp,%rcx,2)
   11311:	ff 
   11312:	48 98                	cltq   
   11314:	48 63 d2             	movslq %edx,%rdx
   11317:	48 01 d2             	add    %rdx,%rdx
   1131a:	48 01 d0             	add    %rdx,%rax
   1131d:	0f b7 84 45 f0 f3 ff 	movzwl -0xc10(%rbp,%rax,2),%eax
   11324:	ff 
   11325:	0f bf d0             	movswl %ax,%edx
   11328:	8b 05 b2 70 00 00    	mov    0x70b2(%rip),%eax        # 183e0 <g_213>
   1132e:	98                   	cwtl   
   1132f:	89 d6                	mov    %edx,%esi
   11331:	89 c7                	mov    %eax,%edi
   11333:	e8 de 90 ff ff       	callq  a416 <safe_mod_func_int16_t_s_s>
   11338:	66 41 39 c4          	cmp    %ax,%r12w
   1133c:	0f 9c c0             	setl   %al
   1133f:	0f b6 c0             	movzbl %al,%eax
   11342:	89 de                	mov    %ebx,%esi
   11344:	89 c7                	mov    %eax,%edi
   11346:	e8 89 8e ff ff       	callq  a1d4 <safe_add_func_int8_t_s_s>
   1134b:	0f be 9d 93 f2 ff ff 	movsbl -0xd6d(%rbp),%ebx
   11352:	48 8b 85 78 f2 ff ff 	mov    -0xd88(%rbp),%rax
   11359:	98                   	cwtl   
   1135a:	89 c6                	mov    %eax,%esi
   1135c:	bf ae ee ff ff       	mov    $0xffffeeae,%edi
   11361:	e8 6d 90 ff ff       	callq  a3d3 <safe_sub_func_int16_t_s_s>
   11366:	48 0f bf c0          	movswq %ax,%rax
   1136a:	48 39 85 30 f3 ff ff 	cmp    %rax,-0xcd0(%rbp)
   11371:	0f 9d c0             	setge  %al
   11374:	0f b6 c0             	movzbl %al,%eax
   11377:	39 c3                	cmp    %eax,%ebx
   11379:	0f b7 05 30 6d 00 00 	movzwl 0x6d30(%rip),%eax        # 180b0 <g_130>
   11380:	0f b7 c0             	movzwl %ax,%eax
   11383:	8d 50 01             	lea    0x1(%rax),%edx
   11386:	0f b7 05 23 6d 00 00 	movzwl 0x6d23(%rip),%eax        # 180b0 <g_130>
   1138d:	0f b7 c0             	movzwl %ax,%eax
   11390:	48 98                	cltq   
   11392:	48 63 d2             	movslq %edx,%rdx
   11395:	48 01 d2             	add    %rdx,%rdx
   11398:	48 01 d0             	add    %rdx,%rax
   1139b:	0f b7 84 45 f0 f3 ff 	movzwl -0xc10(%rbp,%rax,2),%eax
   113a2:	ff 
   113a3:	66 83 f8 06          	cmp    $0x6,%ax
   113a7:	0f 9e c0             	setle  %al
   113aa:	0f b6 c0             	movzbl %al,%eax
   113ad:	89 c6                	mov    %eax,%esi
   113af:	bf 00 00 00 00       	mov    $0x0,%edi
   113b4:	e8 71 91 ff ff       	callq  a52a <safe_rshift_func_int16_t_s_s>
   113b9:	83 f0 01             	xor    $0x1,%eax
   113bc:	0f bf d0             	movswl %ax,%edx
   113bf:	48 8b 85 f0 f2 ff ff 	mov    -0xd10(%rbp),%rax
   113c6:	89 10                	mov    %edx,(%rax)
   113c8:	83 bd b8 f2 ff ff 00 	cmpl   $0x0,-0xd48(%rbp)
   113cf:	0f 85 80 00 00 00    	jne    11455 <func_67+0x1319>
   113d5:	48 8b 85 38 f3 ff ff 	mov    -0xcc8(%rbp),%rax
   113dc:	0f b7 00             	movzwl (%rax),%eax
   113df:	8d 50 01             	lea    0x1(%rax),%edx
   113e2:	48 8b 85 38 f3 ff ff 	mov    -0xcc8(%rbp),%rax
   113e9:	66 89 10             	mov    %dx,(%rax)
   113ec:	48 8b 85 38 f3 ff ff 	mov    -0xcc8(%rbp),%rax
   113f3:	0f b7 00             	movzwl (%rax),%eax
   113f6:	0f b7 d8             	movzwl %ax,%ebx
   113f9:	8b 85 c8 f2 ff ff    	mov    -0xd38(%rbp),%eax
   113ff:	48 98                	cltq   
   11401:	48 89 c7             	mov    %rax,%rdi
   11404:	e8 0d 94 ff ff       	callq  a816 <safe_unary_minus_func_int64_t_s>
   11409:	48 39 c3             	cmp    %rax,%rbx
   1140c:	0f 9f c0             	setg   %al
   1140f:	0f b6 d0             	movzbl %al,%edx
   11412:	8b 05 20 6c 00 00    	mov    0x6c20(%rip),%eax        # 18038 <g_35>
   11418:	21 d0                	and    %edx,%eax
   1141a:	89 05 18 6c 00 00    	mov    %eax,0x6c18(%rip)        # 18038 <g_35>
   11420:	48 8b 95 68 f4 ff ff 	mov    -0xb98(%rbp),%rdx
   11427:	48 8b 85 40 f3 ff ff 	mov    -0xcc0(%rbp),%rax
   1142e:	48 89 10             	mov    %rdx,(%rax)
   11431:	0f b7 05 78 6c 00 00 	movzwl 0x6c78(%rip),%eax        # 180b0 <g_130>
   11438:	83 c0 01             	add    $0x1,%eax
   1143b:	66 89 05 6e 6c 00 00 	mov    %ax,0x6c6e(%rip)        # 180b0 <g_130>
   11442:	0f b7 05 67 6c 00 00 	movzwl 0x6c67(%rip),%eax        # 180b0 <g_130>
   11449:	66 83 f8 01          	cmp    $0x1,%ax
   1144d:	0f 86 b3 fa ff ff    	jbe    10f06 <func_67+0xdca>
   11453:	eb 01                	jmp    11456 <func_67+0x131a>
   11455:	90                   	nop
   11456:	8b 05 14 c9 00 00    	mov    0xc914(%rip),%eax        # 1dd70 <g_136>
   1145c:	98                   	cwtl   
   1145d:	be 03 00 00 00       	mov    $0x3,%esi
   11462:	89 c7                	mov    %eax,%edi
   11464:	e8 4a 8f ff ff       	callq  a3b3 <safe_add_func_int16_t_s_s>
   11469:	98                   	cwtl   
   1146a:	89 05 00 c9 00 00    	mov    %eax,0xc900(%rip)        # 1dd70 <g_136>
   11470:	8b 05 fa c8 00 00    	mov    0xc8fa(%rip),%eax        # 1dd70 <g_136>
   11476:	83 f8 17             	cmp    $0x17,%eax
   11479:	0f 86 10 f7 ff ff    	jbe    10b8f <func_67+0xa53>
   1147f:	48 c7 05 86 b1 00 00 	movq   $0x0,0xb186(%rip)        # 1c610 <g_155>
   11486:	00 00 00 00 
   1148a:	8b 05 d0 6f 00 00    	mov    0x6fd0(%rip),%eax        # 18460 <g_221+0x10>
   11490:	48 8b 5d c8          	mov    -0x38(%rbp),%rbx
   11494:	64 48 33 1c 25 28 00 	xor    %fs:0x28,%rbx
   1149b:	00 00 
   1149d:	74 05                	je     114a4 <func_67+0x1368>
   1149f:	e8 cc 8b ff ff       	callq  a070 <__stack_chk_fail@plt>
   114a4:	48 81 c4 68 0d 00 00 	add    $0xd68,%rsp
   114ab:	5b                   	pop    %rbx
   114ac:	41 5c                	pop    %r12
   114ae:	41 5d                	pop    %r13
   114b0:	41 5e                	pop    %r14
   114b2:	41 5f                	pop    %r15
   114b4:	5d                   	pop    %rbp
   114b5:	c3                   	retq   

00000000000114b6 <func_72>:
   114b6:	f3 0f 1e fa          	endbr64 
   114ba:	55                   	push   %rbp
   114bb:	48 89 e5             	mov    %rsp,%rbp
   114be:	41 55                	push   %r13
   114c0:	41 54                	push   %r12
   114c2:	53                   	push   %rbx
   114c3:	48 81 ec 88 03 00 00 	sub    $0x388,%rsp
   114ca:	48 89 bd 68 fc ff ff 	mov    %rdi,-0x398(%rbp)
   114d1:	64 48 8b 04 25 28 00 	mov    %fs:0x28,%rax
   114d8:	00 00 
   114da:	48 89 45 d8          	mov    %rax,-0x28(%rbp)
   114de:	31 c0                	xor    %eax,%eax
   114e0:	c7 85 70 fc ff ff 01 	movl   $0x1,-0x390(%rbp)
   114e7:	00 00 00 
   114ea:	48 c7 85 88 fc ff ff 	movq   $0x0,-0x378(%rbp)
   114f1:	00 00 00 00 
   114f5:	48 8d 05 4e 6b 00 00 	lea    0x6b4e(%rip),%rax        # 1804a <g_94>
   114fc:	48 89 85 90 fc ff ff 	mov    %rax,-0x370(%rbp)
   11503:	48 8d 05 36 6b 00 00 	lea    0x6b36(%rip),%rax        # 18040 <g_92>
   1150a:	48 89 85 98 fc ff ff 	mov    %rax,-0x368(%rbp)
   11511:	48 8d 05 9a 6b 00 00 	lea    0x6b9a(%rip),%rax        # 180b2 <g_134>
   11518:	48 89 85 78 fc ff ff 	mov    %rax,-0x388(%rbp)
   1151f:	48 8d 85 b0 fc ff ff 	lea    -0x350(%rbp),%rax
   11526:	48 8d 15 13 a7 00 00 	lea    0xa713(%rip),%rdx        # 1bc40 <g_1994+0x1710>
   1152d:	b9 64 00 00 00       	mov    $0x64,%ecx
   11532:	48 89 c7             	mov    %rax,%rdi
   11535:	48 89 d6             	mov    %rdx,%rsi
   11538:	f3 48 a5             	rep movsq %ds:(%rsi),%es:(%rdi)
   1153b:	c7 85 74 fc ff ff 7c 	movl   $0xd293fb7c,-0x38c(%rbp)
   11542:	fb 93 d2 
   11545:	48 8d 85 78 fc ff ff 	lea    -0x388(%rbp),%rax
   1154c:	48 89 85 a0 fc ff ff 	mov    %rax,-0x360(%rbp)
   11553:	48 8d 05 ee 6a 00 00 	lea    0x6aee(%rip),%rax        # 18048 <g_93>
   1155a:	48 89 85 80 fc ff ff 	mov    %rax,-0x380(%rbp)
   11561:	48 8d 85 80 fc ff ff 	lea    -0x380(%rbp),%rax
   11568:	48 89 85 a8 fc ff ff 	mov    %rax,-0x358(%rbp)
   1156f:	f3 0f 1e fa          	endbr64 
   11573:	48 c7 05 e2 a9 00 00 	movq   $0x0,0xa9e2(%rip)        # 1bf60 <g_110>
   1157a:	00 00 00 00 
   1157e:	8b 9d 70 fc ff ff    	mov    -0x390(%rbp),%ebx
   11584:	4c 8b 2d ed 6a 00 00 	mov    0x6aed(%rip),%r13        # 18078 <g_95+0x18>
   1158b:	44 8b a5 70 fc ff ff 	mov    -0x390(%rbp),%r12d
   11592:	48 8b 85 68 fc ff ff 	mov    -0x398(%rbp),%rax
   11599:	8b 10                	mov    (%rax),%edx
   1159b:	48 8b 0d be 6a 00 00 	mov    0x6abe(%rip),%rcx        # 18060 <g_95>
   115a2:	0f b6 05 9f 6a 00 00 	movzbl 0x6a9f(%rip),%eax        # 18048 <g_93>
   115a9:	48 0f be c0          	movsbq %al,%rax
   115ad:	48 89 05 f4 6a 00 00 	mov    %rax,0x6af4(%rip)        # 180a8 <g_127>
   115b4:	48 8b 05 ed 6a 00 00 	mov    0x6aed(%rip),%rax        # 180a8 <g_127>
   115bb:	48 39 c1             	cmp    %rax,%rcx
   115be:	0f 92 c0             	setb   %al
   115c1:	0f b6 c0             	movzbl %al,%eax
   115c4:	89 d6                	mov    %edx,%esi
   115c6:	89 c7                	mov    %eax,%edi
   115c8:	e8 ff 90 ff ff       	callq  a6cc <safe_mod_func_int32_t_s_s>
   115cd:	89 c2                	mov    %eax,%edx
   115cf:	48 8b 85 90 fc ff ff 	mov    -0x370(%rbp),%rax
   115d6:	66 89 10             	mov    %dx,(%rax)
   115d9:	48 8d 05 50 6a 00 00 	lea    0x6a50(%rip),%rax        # 18030 <g_6>
   115e0:	48 89 05 89 a9 00 00 	mov    %rax,0xa989(%rip)        # 1bf70 <g_131>
   115e7:	be a9 ff ff ff       	mov    $0xffffffa9,%esi
   115ec:	bf 03 00 00 00       	mov    $0x3,%edi
   115f1:	e8 3b 8c ff ff       	callq  a231 <safe_mod_func_int8_t_s_s>
   115f6:	0f be c0             	movsbl %al,%eax
   115f9:	f7 d0                	not    %eax
   115fb:	44 89 e6             	mov    %r12d,%esi
   115fe:	89 c7                	mov    %eax,%edi
   11600:	e8 cb 98 ff ff       	callq  aed0 <safe_sub_func_uint32_t_u_u>
   11605:	0f b6 15 28 6a 00 00 	movzbl 0x6a28(%rip),%edx        # 18034 <g_32>
   1160c:	0f be d2             	movsbl %dl,%edx
   1160f:	21 c2                	and    %eax,%edx
   11611:	8b 85 70 fc ff ff    	mov    -0x390(%rbp),%eax
   11617:	21 d0                	and    %edx,%eax
   11619:	85 c0                	test   %eax,%eax
   1161b:	74 07                	je     11624 <func_72+0x16e>
   1161d:	b8 01 00 00 00       	mov    $0x1,%eax
   11622:	eb 05                	jmp    11629 <func_72+0x173>
   11624:	b8 00 00 00 00       	mov    $0x0,%eax
   11629:	48 63 d0             	movslq %eax,%rdx
   1162c:	48 8b 85 98 fc ff ff 	mov    -0x368(%rbp),%rax
   11633:	48 89 10             	mov    %rdx,(%rax)
   11636:	48 8b 85 98 fc ff ff 	mov    -0x368(%rbp),%rax
   1163d:	48 8b 10             	mov    (%rax),%rdx
   11640:	8b 85 70 fc ff ff    	mov    -0x390(%rbp),%eax
   11646:	48 98                	cltq   
   11648:	48 39 c2             	cmp    %rax,%rdx
   1164b:	0f 9c c0             	setl   %al
   1164e:	0f b6 c0             	movzbl %al,%eax
   11651:	39 85 70 fc ff ff    	cmp    %eax,-0x390(%rbp)
   11657:	0f 95 c0             	setne  %al
   1165a:	44 0f b6 e0          	movzbl %al,%r12d
   1165e:	8b 85 70 fc ff ff    	mov    -0x390(%rbp),%eax
   11664:	0f be c0             	movsbl %al,%eax
   11667:	be 02 00 00 00       	mov    $0x2,%esi
   1166c:	89 c7                	mov    %eax,%edi
   1166e:	e8 2e 8c ff ff       	callq  a2a1 <safe_lshift_func_int8_t_s_s>
   11673:	0f be c0             	movsbl %al,%eax
   11676:	89 c7                	mov    %eax,%edi
   11678:	e8 20 8d ff ff       	callq  a39d <safe_unary_minus_func_int16_t_s>
   1167d:	98                   	cwtl   
   1167e:	44 89 e6             	mov    %r12d,%esi
   11681:	89 c7                	mov    %eax,%edi
   11683:	e8 7d 8f ff ff       	callq  a605 <safe_sub_func_int32_t_s_s>
   11688:	b9 bb 00 00 00       	mov    $0xbb,%ecx
   1168d:	48 8b 85 78 fc ff ff 	mov    -0x388(%rbp),%rax
   11694:	0f b6 10             	movzbl (%rax),%edx
   11697:	48 8b 85 78 fc ff ff 	mov    -0x388(%rbp),%rax
   1169e:	21 ca                	and    %ecx,%edx
   116a0:	88 10                	mov    %dl,(%rax)
   116a2:	0f b6 00             	movzbl (%rax),%eax
   116a5:	84 c0                	test   %al,%al
   116a7:	75 09                	jne    116b2 <func_72+0x1fc>
   116a9:	83 bd 70 fc ff ff 00 	cmpl   $0x0,-0x390(%rbp)
   116b0:	74 07                	je     116b9 <func_72+0x203>
   116b2:	b8 01 00 00 00       	mov    $0x1,%eax
   116b7:	eb 05                	jmp    116be <func_72+0x208>
   116b9:	b8 00 00 00 00       	mov    $0x0,%eax
   116be:	48 98                	cltq   
   116c0:	49 39 c5             	cmp    %rax,%r13
   116c3:	0f 96 c0             	setbe  %al
   116c6:	0f b6 c0             	movzbl %al,%eax
   116c9:	89 de                	mov    %ebx,%esi
   116cb:	89 c7                	mov    %eax,%edi
   116cd:	e8 7a 95 ff ff       	callq  ac4c <safe_lshift_func_uint8_t_u_u>
   116d2:	0f b6 d0             	movzbl %al,%edx
   116d5:	48 8b 85 68 fc ff ff 	mov    -0x398(%rbp),%rax
   116dc:	89 10                	mov    %edx,(%rax)
   116de:	8b 85 70 fc ff ff    	mov    -0x390(%rbp),%eax
   116e4:	89 85 74 fc ff ff    	mov    %eax,-0x38c(%rbp)
   116ea:	8b 85 74 fc ff ff    	mov    -0x38c(%rbp),%eax
   116f0:	3b 85 70 fc ff ff    	cmp    -0x390(%rbp),%eax
   116f6:	0f 9d c0             	setge  %al
   116f9:	0f b6 d0             	movzbl %al,%edx
   116fc:	8b 05 6a c6 00 00    	mov    0xc66a(%rip),%eax        # 1dd6c <g_91>
   11702:	39 c2                	cmp    %eax,%edx
   11704:	48 8b 85 a0 fc ff ff 	mov    -0x360(%rbp),%rax
   1170b:	48 8d 15 a0 69 00 00 	lea    0x69a0(%rip),%rdx        # 180b2 <g_134>
   11712:	48 89 10             	mov    %rdx,(%rax)
   11715:	48 8b 85 a0 fc ff ff 	mov    -0x360(%rbp),%rax
   1171c:	48 8b 10             	mov    (%rax),%rdx
   1171f:	48 8b 85 a8 fc ff ff 	mov    -0x358(%rbp),%rax
   11726:	48 8d 0d 85 69 00 00 	lea    0x6985(%rip),%rcx        # 180b2 <g_134>
   1172d:	48 89 08             	mov    %rcx,(%rax)
   11730:	48 8b 85 a8 fc ff ff 	mov    -0x358(%rbp),%rax
   11737:	48 8b 00             	mov    (%rax),%rax
   1173a:	48 39 c2             	cmp    %rax,%rdx
   1173d:	0f 95 c0             	setne  %al
   11740:	0f b6 c0             	movzbl %al,%eax
   11743:	be 02 00 00 00       	mov    $0x2,%esi
   11748:	89 c7                	mov    %eax,%edi
   1174a:	e8 f9 96 ff ff       	callq  ae48 <safe_rshift_func_uint16_t_u_s>
   1174f:	c7 05 17 c6 00 00 00 	movl   $0x0,0xc617(%rip)        # 1dd70 <g_136>
   11756:	00 00 00 
   11759:	eb 64                	jmp    117bf <func_72+0x309>
   1175b:	8b 05 0f c6 00 00    	mov    0xc60f(%rip),%eax        # 1dd70 <g_136>
   11761:	89 c0                	mov    %eax,%eax
   11763:	48 8d 14 c5 00 00 00 	lea    0x0(,%rax,8),%rdx
   1176a:	00 
   1176b:	48 8d 05 ee 68 00 00 	lea    0x68ee(%rip),%rax        # 18060 <g_95>
   11772:	48 8b 04 02          	mov    (%rdx,%rax,1),%rax
   11776:	89 c2                	mov    %eax,%edx
   11778:	48 8b 85 68 fc ff ff 	mov    -0x398(%rbp),%rax
   1177f:	89 10                	mov    %edx,(%rax)
   11781:	48 8b 85 68 fc ff ff 	mov    -0x398(%rbp),%rax
   11788:	8b 00                	mov    (%rax),%eax
   1178a:	89 05 dc c5 00 00    	mov    %eax,0xc5dc(%rip)        # 1dd6c <g_91>
   11790:	48 8b 85 68 fc ff ff 	mov    -0x398(%rbp),%rax
   11797:	8b 00                	mov    (%rax),%eax
   11799:	83 e0 fd             	and    $0xfffffffd,%eax
   1179c:	89 c2                	mov    %eax,%edx
   1179e:	48 8b 85 68 fc ff ff 	mov    -0x398(%rbp),%rax
   117a5:	89 10                	mov    %edx,(%rax)
   117a7:	83 bd 74 fc ff ff 00 	cmpl   $0x0,-0x38c(%rbp)
   117ae:	75 1c                	jne    117cc <func_72+0x316>
   117b0:	8b 05 ba c5 00 00    	mov    0xc5ba(%rip),%eax        # 1dd70 <g_136>
   117b6:	83 c0 01             	add    $0x1,%eax
   117b9:	89 05 b1 c5 00 00    	mov    %eax,0xc5b1(%rip)        # 1dd70 <g_136>
   117bf:	8b 05 ab c5 00 00    	mov    0xc5ab(%rip),%eax        # 1dd70 <g_136>
   117c5:	83 f8 03             	cmp    $0x3,%eax
   117c8:	76 91                	jbe    1175b <func_72+0x2a5>
   117ca:	eb 01                	jmp    117cd <func_72+0x317>
   117cc:	90                   	nop
   117cd:	8b 85 74 fc ff ff    	mov    -0x38c(%rbp),%eax
   117d3:	48 98                	cltq   
   117d5:	48 8b 5d d8          	mov    -0x28(%rbp),%rbx
   117d9:	64 48 33 1c 25 28 00 	xor    %fs:0x28,%rbx
   117e0:	00 00 
   117e2:	74 05                	je     117e9 <func_72+0x333>
   117e4:	e8 87 88 ff ff       	callq  a070 <__stack_chk_fail@plt>
   117e9:	48 81 c4 88 03 00 00 	add    $0x388,%rsp
   117f0:	5b                   	pop    %rbx
   117f1:	41 5c                	pop    %r12
   117f3:	41 5d                	pop    %r13
   117f5:	5d                   	pop    %rbp
   117f6:	c3                   	retq   

00000000000117f7 <func_74>:
   117f7:	f3 0f 1e fa          	endbr64 
   117fb:	55                   	push   %rbp
   117fc:	48 89 e5             	mov    %rsp,%rbp
   117ff:	48 81 ec 00 01 00 00 	sub    $0x100,%rsp
   11806:	48 89 bd 18 ff ff ff 	mov    %rdi,-0xe8(%rbp)
   1180d:	48 89 b5 10 ff ff ff 	mov    %rsi,-0xf0(%rbp)
   11814:	48 89 95 08 ff ff ff 	mov    %rdx,-0xf8(%rbp)
   1181b:	64 48 8b 04 25 28 00 	mov    %fs:0x28,%rax
   11822:	00 00 
   11824:	48 89 45 f8          	mov    %rax,-0x8(%rbp)
   11828:	31 c0                	xor    %eax,%eax
   1182a:	48 8d 05 07 68 00 00 	lea    0x6807(%rip),%rax        # 18038 <g_35>
   11831:	48 89 85 30 ff ff ff 	mov    %rax,-0xd0(%rbp)
   11838:	48 c7 85 38 ff ff ff 	movq   $0x0,-0xc8(%rbp)
   1183f:	00 00 00 00 
   11843:	48 8d 05 ee 67 00 00 	lea    0x67ee(%rip),%rax        # 18038 <g_35>
   1184a:	48 89 85 40 ff ff ff 	mov    %rax,-0xc0(%rbp)
   11851:	48 8d 05 e0 67 00 00 	lea    0x67e0(%rip),%rax        # 18038 <g_35>
   11858:	48 89 85 48 ff ff ff 	mov    %rax,-0xb8(%rbp)
   1185f:	48 8d 05 d2 67 00 00 	lea    0x67d2(%rip),%rax        # 18038 <g_35>
   11866:	48 89 85 50 ff ff ff 	mov    %rax,-0xb0(%rbp)
   1186d:	48 8d 05 c4 67 00 00 	lea    0x67c4(%rip),%rax        # 18038 <g_35>
   11874:	48 89 85 58 ff ff ff 	mov    %rax,-0xa8(%rbp)
   1187b:	48 8d 05 ae 67 00 00 	lea    0x67ae(%rip),%rax        # 18030 <g_6>
   11882:	48 89 45 80          	mov    %rax,-0x80(%rbp)
   11886:	48 8d 05 a3 67 00 00 	lea    0x67a3(%rip),%rax        # 18030 <g_6>
   1188d:	48 89 45 88          	mov    %rax,-0x78(%rbp)
   11891:	48 c7 45 90 00 00 00 	movq   $0x0,-0x70(%rbp)
   11898:	00 
   11899:	48 8d 05 98 67 00 00 	lea    0x6798(%rip),%rax        # 18038 <g_35>
   118a0:	48 89 45 98          	mov    %rax,-0x68(%rbp)
   118a4:	48 8d 05 8d 67 00 00 	lea    0x678d(%rip),%rax        # 18038 <g_35>
   118ab:	48 89 45 a0          	mov    %rax,-0x60(%rbp)
   118af:	48 8d 05 82 67 00 00 	lea    0x6782(%rip),%rax        # 18038 <g_35>
   118b6:	48 89 45 a8          	mov    %rax,-0x58(%rbp)
   118ba:	48 c7 45 b0 00 00 00 	movq   $0x0,-0x50(%rbp)
   118c1:	00 
   118c2:	48 8d 05 67 67 00 00 	lea    0x6767(%rip),%rax        # 18030 <g_6>
   118c9:	48 89 45 b8          	mov    %rax,-0x48(%rbp)
   118cd:	48 8d 05 5c 67 00 00 	lea    0x675c(%rip),%rax        # 18030 <g_6>
   118d4:	48 89 45 c0          	mov    %rax,-0x40(%rbp)
   118d8:	48 c7 45 c8 00 00 00 	movq   $0x0,-0x38(%rbp)
   118df:	00 
   118e0:	48 8d 05 51 67 00 00 	lea    0x6751(%rip),%rax        # 18038 <g_35>
   118e7:	48 89 45 d0          	mov    %rax,-0x30(%rbp)
   118eb:	48 8d 05 46 67 00 00 	lea    0x6746(%rip),%rax        # 18038 <g_35>
   118f2:	48 89 45 d8          	mov    %rax,-0x28(%rbp)
   118f6:	48 8d 05 3b 67 00 00 	lea    0x673b(%rip),%rax        # 18038 <g_35>
   118fd:	48 89 45 e0          	mov    %rax,-0x20(%rbp)
   11901:	48 c7 45 e8 00 00 00 	movq   $0x0,-0x18(%rbp)
   11908:	00 
   11909:	48 8d 05 20 67 00 00 	lea    0x6720(%rip),%rax        # 18030 <g_6>
   11910:	48 89 45 f0          	mov    %rax,-0x10(%rbp)
   11914:	48 c7 85 28 ff ff ff 	movq   $0x0,-0xd8(%rbp)
   1191b:	00 00 00 00 
   1191f:	48 8b 05 3a 67 00 00 	mov    0x673a(%rip),%rax        # 18060 <g_95>
   11926:	48 83 c0 01          	add    $0x1,%rax
   1192a:	48 89 05 2f 67 00 00 	mov    %rax,0x672f(%rip)        # 18060 <g_95>
   11931:	c6 05 fc 66 00 00 00 	movb   $0x0,0x66fc(%rip)        # 18034 <g_32>
   11938:	e9 cf 00 00 00       	jmpq   11a0c <func_74+0x215>
   1193d:	48 c7 85 60 ff ff ff 	movq   $0x2,-0xa0(%rbp)
   11944:	02 00 00 00 
   11948:	48 8d 05 f1 66 00 00 	lea    0x66f1(%rip),%rax        # 18040 <g_92>
   1194f:	48 89 85 68 ff ff ff 	mov    %rax,-0x98(%rbp)
   11956:	48 c7 85 70 ff ff ff 	movq   $0x0,-0x90(%rbp)
   1195d:	00 00 00 00 
   11961:	48 8d 85 28 ff ff ff 	lea    -0xd8(%rbp),%rax
   11968:	48 89 85 78 ff ff ff 	mov    %rax,-0x88(%rbp)
   1196f:	c7 85 24 ff ff ff 73 	movl   $0xfa619a73,-0xdc(%rbp)
   11976:	9a 61 fa 
   11979:	48 8b 85 68 ff ff ff 	mov    -0x98(%rbp),%rax
   11980:	48 c7 00 01 00 00 00 	movq   $0x1,(%rax)
   11987:	48 8d 05 b2 66 00 00 	lea    0x66b2(%rip),%rax        # 18040 <g_92>
   1198e:	48 89 85 68 ff ff ff 	mov    %rax,-0x98(%rbp)
   11995:	48 8b 95 28 ff ff ff 	mov    -0xd8(%rbp),%rdx
   1199c:	48 8b 85 78 ff ff ff 	mov    -0x88(%rbp),%rax
   119a3:	48 89 10             	mov    %rdx,(%rax)
   119a6:	48 8b 85 78 ff ff ff 	mov    -0x88(%rbp),%rax
   119ad:	48 8b 00             	mov    (%rax),%rax
   119b0:	48 39 85 68 ff ff ff 	cmp    %rax,-0x98(%rbp)
   119b7:	48 8b 85 58 ff ff ff 	mov    -0xa8(%rbp),%rax
   119be:	8b 00                	mov    (%rax),%eax
   119c0:	85 c0                	test   %eax,%eax
   119c2:	be 0c 00 00 00       	mov    $0xc,%esi
   119c7:	bf 79 f2 00 00       	mov    $0xf279,%edi
   119cc:	e8 35 94 ff ff       	callq  ae06 <safe_lshift_func_uint16_t_u_u>
   119d1:	66 85 c0             	test   %ax,%ax
   119d4:	48 83 bd 60 ff ff ff 	cmpq   $0x0,-0xa0(%rbp)
   119db:	00 
   119dc:	0f 9e c0             	setle  %al
   119df:	0f b6 d0             	movzbl %al,%edx
   119e2:	8b 05 84 c3 00 00    	mov    0xc384(%rip),%eax        # 1dd6c <g_91>
   119e8:	09 d0                	or     %edx,%eax
   119ea:	89 05 7c c3 00 00    	mov    %eax,0xc37c(%rip)        # 1dd6c <g_91>
   119f0:	0f b6 05 3d 66 00 00 	movzbl 0x663d(%rip),%eax        # 18034 <g_32>
   119f7:	0f be c0             	movsbl %al,%eax
   119fa:	be 07 00 00 00       	mov    $0x7,%esi
   119ff:	89 c7                	mov    %eax,%edi
   11a01:	e8 cd 89 ff ff       	callq  a3d3 <safe_sub_func_int16_t_s_s>
   11a06:	88 05 28 66 00 00    	mov    %al,0x6628(%rip)        # 18034 <g_32>
   11a0c:	0f b6 05 21 66 00 00 	movzbl 0x6621(%rip),%eax        # 18034 <g_32>
   11a13:	3c f2                	cmp    $0xf2,%al
   11a15:	0f 85 22 ff ff ff    	jne    1193d <func_74+0x146>
   11a1b:	48 8d 05 16 66 00 00 	lea    0x6616(%rip),%rax        # 18038 <g_35>
   11a22:	48 8b 4d f8          	mov    -0x8(%rbp),%rcx
   11a26:	64 48 33 0c 25 28 00 	xor    %fs:0x28,%rcx
   11a2d:	00 00 
   11a2f:	74 05                	je     11a36 <func_74+0x23f>
   11a31:	e8 3a 86 ff ff       	callq  a070 <__stack_chk_fail@plt>
   11a36:	c9                   	leaveq 
   11a37:	c3                   	retq   

0000000000011a38 <main>:
   11a38:	f3 0f 1e fa          	endbr64 
   11a3c:	55                   	push   %rbp
   11a3d:	48 89 e5             	mov    %rsp,%rbp
   11a40:	48 83 ec 20          	sub    $0x20,%rsp
   11a44:	89 7d ec             	mov    %edi,-0x14(%rbp)
   11a47:	48 89 75 e0          	mov    %rsi,-0x20(%rbp)
   11a4b:	c7 45 fc 00 00 00 00 	movl   $0x0,-0x4(%rbp)
   11a52:	83 7d ec 02          	cmpl   $0x2,-0x14(%rbp)
   11a56:	75 25                	jne    11a7d <main+0x45>
   11a58:	48 8b 45 e0          	mov    -0x20(%rbp),%rax
   11a5c:	48 83 c0 08          	add    $0x8,%rax
   11a60:	48 8b 00             	mov    (%rax),%rax
   11a63:	48 8d 35 36 26 00 00 	lea    0x2636(%rip),%rsi        # 140a0 <g_1927+0x8>
   11a6a:	48 89 c7             	mov    %rax,%rdi
   11a6d:	e8 1e 86 ff ff       	callq  a090 <strcmp@plt>
   11a72:	85 c0                	test   %eax,%eax
   11a74:	75 07                	jne    11a7d <main+0x45>
   11a76:	c7 45 fc 01 00 00 00 	movl   $0x1,-0x4(%rbp)
   11a7d:	e8 07 87 ff ff       	callq  a189 <platform_main_begin>
   11a82:	e8 11 9b ff ff       	callq  b598 <crc32_gentab>
   11a87:	e8 29 9d ff ff       	callq  b7b5 <func_1>
   11a8c:	8b 05 92 65 00 00    	mov    0x6592(%rip),%eax        # 18024 <g_2>
   11a92:	48 98                	cltq   
   11a94:	8b 55 fc             	mov    -0x4(%rbp),%edx
   11a97:	48 8d 35 04 26 00 00 	lea    0x2604(%rip),%rsi        # 140a2 <g_1927+0xa>
   11a9e:	48 89 c7             	mov    %rax,%rdi
   11aa1:	e8 4d 9c ff ff       	callq  b6f3 <transparent_crc>
   11aa6:	8b 05 bc c2 00 00    	mov    0xc2bc(%rip),%eax        # 1dd68 <g_3>
   11aac:	48 98                	cltq   
   11aae:	8b 55 fc             	mov    -0x4(%rbp),%edx
   11ab1:	48 8d 35 ee 25 00 00 	lea    0x25ee(%rip),%rsi        # 140a6 <g_1927+0xe>
   11ab8:	48 89 c7             	mov    %rax,%rdi
   11abb:	e8 33 9c ff ff       	callq  b6f3 <transparent_crc>
   11ac0:	8b 05 62 65 00 00    	mov    0x6562(%rip),%eax        # 18028 <g_4>
   11ac6:	48 98                	cltq   
   11ac8:	8b 55 fc             	mov    -0x4(%rbp),%edx
   11acb:	48 8d 35 d8 25 00 00 	lea    0x25d8(%rip),%rsi        # 140aa <g_1927+0x12>
   11ad2:	48 89 c7             	mov    %rax,%rdi
   11ad5:	e8 19 9c ff ff       	callq  b6f3 <transparent_crc>
   11ada:	8b 05 4c 65 00 00    	mov    0x654c(%rip),%eax        # 1802c <g_5>
   11ae0:	48 98                	cltq   
   11ae2:	8b 55 fc             	mov    -0x4(%rbp),%edx
   11ae5:	48 8d 35 c2 25 00 00 	lea    0x25c2(%rip),%rsi        # 140ae <g_1927+0x16>
   11aec:	48 89 c7             	mov    %rax,%rdi
   11aef:	e8 ff 9b ff ff       	callq  b6f3 <transparent_crc>
   11af4:	8b 05 36 65 00 00    	mov    0x6536(%rip),%eax        # 18030 <g_6>
   11afa:	48 98                	cltq   
   11afc:	8b 55 fc             	mov    -0x4(%rbp),%edx
   11aff:	48 8d 35 ac 25 00 00 	lea    0x25ac(%rip),%rsi        # 140b2 <g_1927+0x1a>
   11b06:	48 89 c7             	mov    %rax,%rdi
   11b09:	e8 e5 9b ff ff       	callq  b6f3 <transparent_crc>
   11b0e:	0f b6 05 1f 65 00 00 	movzbl 0x651f(%rip),%eax        # 18034 <g_32>
   11b15:	48 0f be c0          	movsbq %al,%rax
   11b19:	8b 55 fc             	mov    -0x4(%rbp),%edx
   11b1c:	48 8d 35 93 25 00 00 	lea    0x2593(%rip),%rsi        # 140b6 <g_1927+0x1e>
   11b23:	48 89 c7             	mov    %rax,%rdi
   11b26:	e8 c8 9b ff ff       	callq  b6f3 <transparent_crc>
   11b2b:	8b 05 07 65 00 00    	mov    0x6507(%rip),%eax        # 18038 <g_35>
   11b31:	48 98                	cltq   
   11b33:	8b 55 fc             	mov    -0x4(%rbp),%edx
   11b36:	48 8d 35 7e 25 00 00 	lea    0x257e(%rip),%rsi        # 140bb <g_1927+0x23>
   11b3d:	48 89 c7             	mov    %rax,%rdi
   11b40:	e8 ae 9b ff ff       	callq  b6f3 <transparent_crc>
   11b45:	0f b7 05 f0 64 00 00 	movzwl 0x64f0(%rip),%eax        # 1803c <g_64>
   11b4c:	0f b7 c0             	movzwl %ax,%eax
   11b4f:	8b 55 fc             	mov    -0x4(%rbp),%edx
   11b52:	48 8d 35 67 25 00 00 	lea    0x2567(%rip),%rsi        # 140c0 <g_1927+0x28>
   11b59:	48 89 c7             	mov    %rax,%rdi
   11b5c:	e8 92 9b ff ff       	callq  b6f3 <transparent_crc>
   11b61:	8b 05 05 c2 00 00    	mov    0xc205(%rip),%eax        # 1dd6c <g_91>
   11b67:	48 98                	cltq   
   11b69:	8b 55 fc             	mov    -0x4(%rbp),%edx
   11b6c:	48 8d 35 52 25 00 00 	lea    0x2552(%rip),%rsi        # 140c5 <g_1927+0x2d>
   11b73:	48 89 c7             	mov    %rax,%rdi
   11b76:	e8 78 9b ff ff       	callq  b6f3 <transparent_crc>
   11b7b:	48 8b 05 be 64 00 00 	mov    0x64be(%rip),%rax        # 18040 <g_92>
   11b82:	48 89 c1             	mov    %rax,%rcx
   11b85:	8b 45 fc             	mov    -0x4(%rbp),%eax
   11b88:	89 c2                	mov    %eax,%edx
   11b8a:	48 8d 35 39 25 00 00 	lea    0x2539(%rip),%rsi        # 140ca <g_1927+0x32>
   11b91:	48 89 cf             	mov    %rcx,%rdi
   11b94:	e8 5a 9b ff ff       	callq  b6f3 <transparent_crc>
   11b99:	0f b6 05 a8 64 00 00 	movzbl 0x64a8(%rip),%eax        # 18048 <g_93>
   11ba0:	48 0f be c0          	movsbq %al,%rax
   11ba4:	8b 55 fc             	mov    -0x4(%rbp),%edx
   11ba7:	48 8d 35 21 25 00 00 	lea    0x2521(%rip),%rsi        # 140cf <g_1927+0x37>
   11bae:	48 89 c7             	mov    %rax,%rdi
   11bb1:	e8 3d 9b ff ff       	callq  b6f3 <transparent_crc>
   11bb6:	0f b7 05 8d 64 00 00 	movzwl 0x648d(%rip),%eax        # 1804a <g_94>
   11bbd:	48 0f bf c0          	movswq %ax,%rax
   11bc1:	8b 55 fc             	mov    -0x4(%rbp),%edx
   11bc4:	48 8d 35 09 25 00 00 	lea    0x2509(%rip),%rsi        # 140d4 <g_1927+0x3c>
   11bcb:	48 89 c7             	mov    %rax,%rdi
   11bce:	e8 20 9b ff ff       	callq  b6f3 <transparent_crc>
   11bd3:	c7 45 f0 00 00 00 00 	movl   $0x0,-0x10(%rbp)
   11bda:	eb 4a                	jmp    11c26 <main+0x1ee>
   11bdc:	8b 45 f0             	mov    -0x10(%rbp),%eax
   11bdf:	48 98                	cltq   
   11be1:	48 8d 14 c5 00 00 00 	lea    0x0(,%rax,8),%rdx
   11be8:	00 
   11be9:	48 8d 05 70 64 00 00 	lea    0x6470(%rip),%rax        # 18060 <g_95>
   11bf0:	48 8b 04 02          	mov    (%rdx,%rax,1),%rax
   11bf4:	8b 55 fc             	mov    -0x4(%rbp),%edx
   11bf7:	48 8d 35 db 24 00 00 	lea    0x24db(%rip),%rsi        # 140d9 <g_1927+0x41>
   11bfe:	48 89 c7             	mov    %rax,%rdi
   11c01:	e8 ed 9a ff ff       	callq  b6f3 <transparent_crc>
   11c06:	83 7d fc 00          	cmpl   $0x0,-0x4(%rbp)
   11c0a:	74 16                	je     11c22 <main+0x1ea>
   11c0c:	8b 45 f0             	mov    -0x10(%rbp),%eax
   11c0f:	89 c6                	mov    %eax,%esi
   11c11:	48 8d 3d c9 24 00 00 	lea    0x24c9(%rip),%rdi        # 140e1 <g_1927+0x49>
   11c18:	b8 00 00 00 00       	mov    $0x0,%eax
   11c1d:	e8 5e 84 ff ff       	callq  a080 <printf@plt>
   11c22:	83 45 f0 01          	addl   $0x1,-0x10(%rbp)
   11c26:	83 7d f0 03          	cmpl   $0x3,-0x10(%rbp)
   11c2a:	7e b0                	jle    11bdc <main+0x1a4>
   11c2c:	c7 45 f0 00 00 00 00 	movl   $0x0,-0x10(%rbp)
   11c33:	eb 4b                	jmp    11c80 <main+0x248>
   11c35:	8b 45 f0             	mov    -0x10(%rbp),%eax
   11c38:	48 98                	cltq   
   11c3a:	48 8d 14 85 00 00 00 	lea    0x0(,%rax,4),%rdx
   11c41:	00 
   11c42:	48 8d 05 37 64 00 00 	lea    0x6437(%rip),%rax        # 18080 <g_111>
   11c49:	8b 04 02             	mov    (%rdx,%rax,1),%eax
   11c4c:	48 98                	cltq   
   11c4e:	8b 55 fc             	mov    -0x4(%rbp),%edx
   11c51:	48 8d 35 97 24 00 00 	lea    0x2497(%rip),%rsi        # 140ef <g_1927+0x57>
   11c58:	48 89 c7             	mov    %rax,%rdi
   11c5b:	e8 93 9a ff ff       	callq  b6f3 <transparent_crc>
   11c60:	83 7d fc 00          	cmpl   $0x0,-0x4(%rbp)
   11c64:	74 16                	je     11c7c <main+0x244>
   11c66:	8b 45 f0             	mov    -0x10(%rbp),%eax
   11c69:	89 c6                	mov    %eax,%esi
   11c6b:	48 8d 3d 6f 24 00 00 	lea    0x246f(%rip),%rdi        # 140e1 <g_1927+0x49>
   11c72:	b8 00 00 00 00       	mov    $0x0,%eax
   11c77:	e8 04 84 ff ff       	callq  a080 <printf@plt>
   11c7c:	83 45 f0 01          	addl   $0x1,-0x10(%rbp)
   11c80:	83 7d f0 09          	cmpl   $0x9,-0x10(%rbp)
   11c84:	7e af                	jle    11c35 <main+0x1fd>
   11c86:	48 8b 05 1b 64 00 00 	mov    0x641b(%rip),%rax        # 180a8 <g_127>
   11c8d:	48 89 c1             	mov    %rax,%rcx
   11c90:	8b 45 fc             	mov    -0x4(%rbp),%eax
   11c93:	89 c2                	mov    %eax,%edx
   11c95:	48 8d 35 5c 24 00 00 	lea    0x245c(%rip),%rsi        # 140f8 <g_1927+0x60>
   11c9c:	48 89 cf             	mov    %rcx,%rdi
   11c9f:	e8 4f 9a ff ff       	callq  b6f3 <transparent_crc>
   11ca4:	0f b7 05 05 64 00 00 	movzwl 0x6405(%rip),%eax        # 180b0 <g_130>
   11cab:	0f b7 c0             	movzwl %ax,%eax
   11cae:	8b 55 fc             	mov    -0x4(%rbp),%edx
   11cb1:	48 8d 35 46 24 00 00 	lea    0x2446(%rip),%rsi        # 140fe <g_1927+0x66>
   11cb8:	48 89 c7             	mov    %rax,%rdi
   11cbb:	e8 33 9a ff ff       	callq  b6f3 <transparent_crc>
   11cc0:	0f b6 05 eb 63 00 00 	movzbl 0x63eb(%rip),%eax        # 180b2 <g_134>
   11cc7:	48 0f be c0          	movsbq %al,%rax
   11ccb:	8b 55 fc             	mov    -0x4(%rbp),%edx
   11cce:	48 8d 35 2f 24 00 00 	lea    0x242f(%rip),%rsi        # 14104 <g_1927+0x6c>
   11cd5:	48 89 c7             	mov    %rax,%rdi
   11cd8:	e8 16 9a ff ff       	callq  b6f3 <transparent_crc>
   11cdd:	8b 05 8d c0 00 00    	mov    0xc08d(%rip),%eax        # 1dd70 <g_136>
   11ce3:	89 c1                	mov    %eax,%ecx
   11ce5:	8b 45 fc             	mov    -0x4(%rbp),%eax
   11ce8:	89 c2                	mov    %eax,%edx
   11cea:	48 8d 35 19 24 00 00 	lea    0x2419(%rip),%rsi        # 1410a <g_1927+0x72>
   11cf1:	48 89 cf             	mov    %rcx,%rdi
   11cf4:	e8 fa 99 ff ff       	callq  b6f3 <transparent_crc>
   11cf9:	8b 05 b5 63 00 00    	mov    0x63b5(%rip),%eax        # 180b4 <g_182>
   11cff:	89 c1                	mov    %eax,%ecx
   11d01:	8b 45 fc             	mov    -0x4(%rbp),%eax
   11d04:	89 c2                	mov    %eax,%edx
   11d06:	48 8d 35 03 24 00 00 	lea    0x2403(%rip),%rsi        # 14110 <g_1927+0x78>
   11d0d:	48 89 cf             	mov    %rcx,%rdi
   11d10:	e8 de 99 ff ff       	callq  b6f3 <transparent_crc>
   11d15:	8b 05 9d 63 00 00    	mov    0x639d(%rip),%eax        # 180b8 <g_195>
   11d1b:	48 98                	cltq   
   11d1d:	8b 55 fc             	mov    -0x4(%rbp),%edx
   11d20:	48 8d 35 ef 23 00 00 	lea    0x23ef(%rip),%rsi        # 14116 <g_1927+0x7e>
   11d27:	48 89 c7             	mov    %rax,%rdi
   11d2a:	e8 c4 99 ff ff       	callq  b6f3 <transparent_crc>
   11d2f:	8b 05 83 63 00 00    	mov    0x6383(%rip),%eax        # 180b8 <g_195>
   11d35:	89 c1                	mov    %eax,%ecx
   11d37:	8b 45 fc             	mov    -0x4(%rbp),%eax
   11d3a:	89 c2                	mov    %eax,%edx
   11d3c:	48 8d 35 dc 23 00 00 	lea    0x23dc(%rip),%rsi        # 1411f <g_1927+0x87>
   11d43:	48 89 cf             	mov    %rcx,%rdi
   11d46:	e8 a8 99 ff ff       	callq  b6f3 <transparent_crc>
   11d4b:	8b 05 6f 63 00 00    	mov    0x636f(%rip),%eax        # 180c0 <g_198>
   11d51:	48 98                	cltq   
   11d53:	8b 55 fc             	mov    -0x4(%rbp),%edx
   11d56:	48 8d 35 cb 23 00 00 	lea    0x23cb(%rip),%rsi        # 14128 <g_1927+0x90>
   11d5d:	48 89 c7             	mov    %rax,%rdi
   11d60:	e8 8e 99 ff ff       	callq  b6f3 <transparent_crc>
   11d65:	8b 05 55 63 00 00    	mov    0x6355(%rip),%eax        # 180c0 <g_198>
   11d6b:	89 c1                	mov    %eax,%ecx
   11d6d:	8b 45 fc             	mov    -0x4(%rbp),%eax
   11d70:	89 c2                	mov    %eax,%edx
   11d72:	48 8d 35 b8 23 00 00 	lea    0x23b8(%rip),%rsi        # 14131 <g_1927+0x99>
   11d79:	48 89 cf             	mov    %rcx,%rdi
   11d7c:	e8 72 99 ff ff       	callq  b6f3 <transparent_crc>
   11d81:	c7 45 f0 00 00 00 00 	movl   $0x0,-0x10(%rbp)
   11d88:	e9 bd 00 00 00       	jmpq   11e4a <main+0x412>
   11d8d:	c7 45 f4 00 00 00 00 	movl   $0x0,-0xc(%rbp)
   11d94:	e9 a3 00 00 00       	jmpq   11e3c <main+0x404>
   11d99:	8b 45 f4             	mov    -0xc(%rbp),%eax
   11d9c:	48 63 c8             	movslq %eax,%rcx
   11d9f:	8b 45 f0             	mov    -0x10(%rbp),%eax
   11da2:	48 63 d0             	movslq %eax,%rdx
   11da5:	48 89 d0             	mov    %rdx,%rax
   11da8:	48 c1 e0 03          	shl    $0x3,%rax
   11dac:	48 01 d0             	add    %rdx,%rax
   11daf:	48 01 c8             	add    %rcx,%rax
   11db2:	48 8d 14 c5 00 00 00 	lea    0x0(,%rax,8),%rdx
   11db9:	00 
   11dba:	48 8d 05 1f 63 00 00 	lea    0x631f(%rip),%rax        # 180e0 <g_200>
   11dc1:	8b 04 02             	mov    (%rdx,%rax,1),%eax
   11dc4:	48 98                	cltq   
   11dc6:	8b 55 fc             	mov    -0x4(%rbp),%edx
   11dc9:	48 8d 35 6a 23 00 00 	lea    0x236a(%rip),%rsi        # 1413a <g_1927+0xa2>
   11dd0:	48 89 c7             	mov    %rax,%rdi
   11dd3:	e8 1b 99 ff ff       	callq  b6f3 <transparent_crc>
   11dd8:	8b 45 f4             	mov    -0xc(%rbp),%eax
   11ddb:	48 63 c8             	movslq %eax,%rcx
   11dde:	8b 45 f0             	mov    -0x10(%rbp),%eax
   11de1:	48 63 d0             	movslq %eax,%rdx
   11de4:	48 89 d0             	mov    %rdx,%rax
   11de7:	48 c1 e0 03          	shl    $0x3,%rax
   11deb:	48 01 d0             	add    %rdx,%rax
   11dee:	48 01 c8             	add    %rcx,%rax
   11df1:	48 8d 14 c5 00 00 00 	lea    0x0(,%rax,8),%rdx
   11df8:	00 
   11df9:	48 8d 05 e0 62 00 00 	lea    0x62e0(%rip),%rax        # 180e0 <g_200>
   11e00:	8b 04 02             	mov    (%rdx,%rax,1),%eax
   11e03:	89 c1                	mov    %eax,%ecx
   11e05:	8b 45 fc             	mov    -0x4(%rbp),%eax
   11e08:	89 c2                	mov    %eax,%edx
   11e0a:	48 8d 35 38 23 00 00 	lea    0x2338(%rip),%rsi        # 14149 <g_1927+0xb1>
   11e11:	48 89 cf             	mov    %rcx,%rdi
   11e14:	e8 da 98 ff ff       	callq  b6f3 <transparent_crc>
   11e19:	83 7d fc 00          	cmpl   $0x0,-0x4(%rbp)
   11e1d:	74 19                	je     11e38 <main+0x400>
   11e1f:	8b 55 f4             	mov    -0xc(%rbp),%edx
   11e22:	8b 45 f0             	mov    -0x10(%rbp),%eax
   11e25:	89 c6                	mov    %eax,%esi
   11e27:	48 8d 3d 2a 23 00 00 	lea    0x232a(%rip),%rdi        # 14158 <g_1927+0xc0>
   11e2e:	b8 00 00 00 00       	mov    $0x0,%eax
   11e33:	e8 48 82 ff ff       	callq  a080 <printf@plt>
   11e38:	83 45 f4 01          	addl   $0x1,-0xc(%rbp)
   11e3c:	83 7d f4 08          	cmpl   $0x8,-0xc(%rbp)
   11e40:	0f 8e 53 ff ff ff    	jle    11d99 <main+0x361>
   11e46:	83 45 f0 01          	addl   $0x1,-0x10(%rbp)
   11e4a:	83 7d f0 08          	cmpl   $0x8,-0x10(%rbp)
   11e4e:	0f 8e 39 ff ff ff    	jle    11d8d <main+0x355>
   11e54:	8b 05 0e 65 00 00    	mov    0x650e(%rip),%eax        # 18368 <g_201>
   11e5a:	48 98                	cltq   
   11e5c:	8b 55 fc             	mov    -0x4(%rbp),%edx
   11e5f:	48 8d 35 04 23 00 00 	lea    0x2304(%rip),%rsi        # 1416a <g_1927+0xd2>
   11e66:	48 89 c7             	mov    %rax,%rdi
   11e69:	e8 85 98 ff ff       	callq  b6f3 <transparent_crc>
   11e6e:	8b 05 f4 64 00 00    	mov    0x64f4(%rip),%eax        # 18368 <g_201>
   11e74:	89 c1                	mov    %eax,%ecx
   11e76:	8b 45 fc             	mov    -0x4(%rbp),%eax
   11e79:	89 c2                	mov    %eax,%edx
   11e7b:	48 8d 35 f1 22 00 00 	lea    0x22f1(%rip),%rsi        # 14173 <g_1927+0xdb>
   11e82:	48 89 cf             	mov    %rcx,%rdi
   11e85:	e8 69 98 ff ff       	callq  b6f3 <transparent_crc>
   11e8a:	c7 45 f0 00 00 00 00 	movl   $0x0,-0x10(%rbp)
   11e91:	eb 78                	jmp    11f0b <main+0x4d3>
   11e93:	8b 45 f0             	mov    -0x10(%rbp),%eax
   11e96:	48 98                	cltq   
   11e98:	48 8d 14 c5 00 00 00 	lea    0x0(,%rax,8),%rdx
   11e9f:	00 
   11ea0:	48 8d 05 d9 64 00 00 	lea    0x64d9(%rip),%rax        # 18380 <g_202>
   11ea7:	8b 04 02             	mov    (%rdx,%rax,1),%eax
   11eaa:	48 98                	cltq   
   11eac:	8b 55 fc             	mov    -0x4(%rbp),%edx
   11eaf:	48 8d 35 c6 22 00 00 	lea    0x22c6(%rip),%rsi        # 1417c <g_1927+0xe4>
   11eb6:	48 89 c7             	mov    %rax,%rdi
   11eb9:	e8 35 98 ff ff       	callq  b6f3 <transparent_crc>
   11ebe:	8b 45 f0             	mov    -0x10(%rbp),%eax
   11ec1:	48 98                	cltq   
   11ec3:	48 8d 14 c5 00 00 00 	lea    0x0(,%rax,8),%rdx
   11eca:	00 
   11ecb:	48 8d 05 ae 64 00 00 	lea    0x64ae(%rip),%rax        # 18380 <g_202>
   11ed2:	8b 04 02             	mov    (%rdx,%rax,1),%eax
   11ed5:	89 c1                	mov    %eax,%ecx
   11ed7:	8b 45 fc             	mov    -0x4(%rbp),%eax
   11eda:	89 c2                	mov    %eax,%edx
   11edc:	48 8d 35 a5 22 00 00 	lea    0x22a5(%rip),%rsi        # 14188 <g_1927+0xf0>
   11ee3:	48 89 cf             	mov    %rcx,%rdi
   11ee6:	e8 08 98 ff ff       	callq  b6f3 <transparent_crc>
   11eeb:	83 7d fc 00          	cmpl   $0x0,-0x4(%rbp)
   11eef:	74 16                	je     11f07 <main+0x4cf>
   11ef1:	8b 45 f0             	mov    -0x10(%rbp),%eax
   11ef4:	89 c6                	mov    %eax,%esi
   11ef6:	48 8d 3d e4 21 00 00 	lea    0x21e4(%rip),%rdi        # 140e1 <g_1927+0x49>
   11efd:	b8 00 00 00 00       	mov    $0x0,%eax
   11f02:	e8 79 81 ff ff       	callq  a080 <printf@plt>
   11f07:	83 45 f0 01          	addl   $0x1,-0x10(%rbp)
   11f0b:	83 7d f0 09          	cmpl   $0x9,-0x10(%rbp)
   11f0f:	7e 82                	jle    11e93 <main+0x45b>
   11f11:	8b 05 b9 64 00 00    	mov    0x64b9(%rip),%eax        # 183d0 <g_211>
   11f17:	48 98                	cltq   
   11f19:	8b 55 fc             	mov    -0x4(%rbp),%edx
   11f1c:	48 8d 35 71 22 00 00 	lea    0x2271(%rip),%rsi        # 14194 <g_1927+0xfc>
   11f23:	48 89 c7             	mov    %rax,%rdi
   11f26:	e8 c8 97 ff ff       	callq  b6f3 <transparent_crc>
   11f2b:	8b 05 9f 64 00 00    	mov    0x649f(%rip),%eax        # 183d0 <g_211>
   11f31:	89 c1                	mov    %eax,%ecx
   11f33:	8b 45 fc             	mov    -0x4(%rbp),%eax
   11f36:	89 c2                	mov    %eax,%edx
   11f38:	48 8d 35 5e 22 00 00 	lea    0x225e(%rip),%rsi        # 1419d <g_1927+0x105>
   11f3f:	48 89 cf             	mov    %rcx,%rdi
   11f42:	e8 ac 97 ff ff       	callq  b6f3 <transparent_crc>
   11f47:	8b 05 8b 64 00 00    	mov    0x648b(%rip),%eax        # 183d8 <g_212>
   11f4d:	48 98                	cltq   
   11f4f:	8b 55 fc             	mov    -0x4(%rbp),%edx
   11f52:	48 8d 35 4d 22 00 00 	lea    0x224d(%rip),%rsi        # 141a6 <g_1927+0x10e>
   11f59:	48 89 c7             	mov    %rax,%rdi
   11f5c:	e8 92 97 ff ff       	callq  b6f3 <transparent_crc>
   11f61:	8b 05 71 64 00 00    	mov    0x6471(%rip),%eax        # 183d8 <g_212>
   11f67:	89 c1                	mov    %eax,%ecx
   11f69:	8b 45 fc             	mov    -0x4(%rbp),%eax
   11f6c:	89 c2                	mov    %eax,%edx
   11f6e:	48 8d 35 3a 22 00 00 	lea    0x223a(%rip),%rsi        # 141af <g_1927+0x117>
   11f75:	48 89 cf             	mov    %rcx,%rdi
   11f78:	e8 76 97 ff ff       	callq  b6f3 <transparent_crc>
   11f7d:	8b 05 5d 64 00 00    	mov    0x645d(%rip),%eax        # 183e0 <g_213>
   11f83:	48 98                	cltq   
   11f85:	8b 55 fc             	mov    -0x4(%rbp),%edx
   11f88:	48 8d 35 29 22 00 00 	lea    0x2229(%rip),%rsi        # 141b8 <g_1927+0x120>
   11f8f:	48 89 c7             	mov    %rax,%rdi
   11f92:	e8 5c 97 ff ff       	callq  b6f3 <transparent_crc>
   11f97:	8b 05 43 64 00 00    	mov    0x6443(%rip),%eax        # 183e0 <g_213>
   11f9d:	89 c1                	mov    %eax,%ecx
   11f9f:	8b 45 fc             	mov    -0x4(%rbp),%eax
   11fa2:	89 c2                	mov    %eax,%edx
   11fa4:	48 8d 35 16 22 00 00 	lea    0x2216(%rip),%rsi        # 141c1 <g_1927+0x129>
   11fab:	48 89 cf             	mov    %rcx,%rdi
   11fae:	e8 40 97 ff ff       	callq  b6f3 <transparent_crc>
   11fb3:	8b 05 2f 64 00 00    	mov    0x642f(%rip),%eax        # 183e8 <g_214>
   11fb9:	48 98                	cltq   
   11fbb:	8b 55 fc             	mov    -0x4(%rbp),%edx
   11fbe:	48 8d 35 05 22 00 00 	lea    0x2205(%rip),%rsi        # 141ca <g_1927+0x132>
   11fc5:	48 89 c7             	mov    %rax,%rdi
   11fc8:	e8 26 97 ff ff       	callq  b6f3 <transparent_crc>
   11fcd:	8b 05 15 64 00 00    	mov    0x6415(%rip),%eax        # 183e8 <g_214>
   11fd3:	89 c1                	mov    %eax,%ecx
   11fd5:	8b 45 fc             	mov    -0x4(%rbp),%eax
   11fd8:	89 c2                	mov    %eax,%edx
   11fda:	48 8d 35 f2 21 00 00 	lea    0x21f2(%rip),%rsi        # 141d3 <g_1927+0x13b>
   11fe1:	48 89 cf             	mov    %rcx,%rdi
   11fe4:	e8 0a 97 ff ff       	callq  b6f3 <transparent_crc>
   11fe9:	8b 05 01 64 00 00    	mov    0x6401(%rip),%eax        # 183f0 <g_215>
   11fef:	48 98                	cltq   
   11ff1:	8b 55 fc             	mov    -0x4(%rbp),%edx
   11ff4:	48 8d 35 e1 21 00 00 	lea    0x21e1(%rip),%rsi        # 141dc <g_1927+0x144>
   11ffb:	48 89 c7             	mov    %rax,%rdi
   11ffe:	e8 f0 96 ff ff       	callq  b6f3 <transparent_crc>
   12003:	8b 05 e7 63 00 00    	mov    0x63e7(%rip),%eax        # 183f0 <g_215>
   12009:	89 c1                	mov    %eax,%ecx
   1200b:	8b 45 fc             	mov    -0x4(%rbp),%eax
   1200e:	89 c2                	mov    %eax,%edx
   12010:	48 8d 35 ce 21 00 00 	lea    0x21ce(%rip),%rsi        # 141e5 <g_1927+0x14d>
   12017:	48 89 cf             	mov    %rcx,%rdi
   1201a:	e8 d4 96 ff ff       	callq  b6f3 <transparent_crc>
   1201f:	8b 05 d3 63 00 00    	mov    0x63d3(%rip),%eax        # 183f8 <g_216>
   12025:	48 98                	cltq   
   12027:	8b 55 fc             	mov    -0x4(%rbp),%edx
   1202a:	48 8d 35 bd 21 00 00 	lea    0x21bd(%rip),%rsi        # 141ee <g_1927+0x156>
   12031:	48 89 c7             	mov    %rax,%rdi
   12034:	e8 ba 96 ff ff       	callq  b6f3 <transparent_crc>
   12039:	8b 05 b9 63 00 00    	mov    0x63b9(%rip),%eax        # 183f8 <g_216>
   1203f:	89 c1                	mov    %eax,%ecx
   12041:	8b 45 fc             	mov    -0x4(%rbp),%eax
   12044:	89 c2                	mov    %eax,%edx
   12046:	48 8d 35 aa 21 00 00 	lea    0x21aa(%rip),%rsi        # 141f7 <g_1927+0x15f>
   1204d:	48 89 cf             	mov    %rcx,%rdi
   12050:	e8 9e 96 ff ff       	callq  b6f3 <transparent_crc>
   12055:	c7 45 f0 00 00 00 00 	movl   $0x0,-0x10(%rbp)
   1205c:	eb 78                	jmp    120d6 <main+0x69e>
   1205e:	8b 45 f0             	mov    -0x10(%rbp),%eax
   12061:	48 98                	cltq   
   12063:	48 8d 14 c5 00 00 00 	lea    0x0(,%rax,8),%rdx
   1206a:	00 
   1206b:	48 8d 05 8e 63 00 00 	lea    0x638e(%rip),%rax        # 18400 <g_217>
   12072:	8b 04 02             	mov    (%rdx,%rax,1),%eax
   12075:	48 98                	cltq   
   12077:	8b 55 fc             	mov    -0x4(%rbp),%edx
   1207a:	48 8d 35 7f 21 00 00 	lea    0x217f(%rip),%rsi        # 14200 <g_1927+0x168>
   12081:	48 89 c7             	mov    %rax,%rdi
   12084:	e8 6a 96 ff ff       	callq  b6f3 <transparent_crc>
   12089:	8b 45 f0             	mov    -0x10(%rbp),%eax
   1208c:	48 98                	cltq   
   1208e:	48 8d 14 c5 00 00 00 	lea    0x0(,%rax,8),%rdx
   12095:	00 
   12096:	48 8d 05 63 63 00 00 	lea    0x6363(%rip),%rax        # 18400 <g_217>
   1209d:	8b 04 02             	mov    (%rdx,%rax,1),%eax
   120a0:	89 c1                	mov    %eax,%ecx
   120a2:	8b 45 fc             	mov    -0x4(%rbp),%eax
   120a5:	89 c2                	mov    %eax,%edx
   120a7:	48 8d 35 5e 21 00 00 	lea    0x215e(%rip),%rsi        # 1420c <g_1927+0x174>
   120ae:	48 89 cf             	mov    %rcx,%rdi
   120b1:	e8 3d 96 ff ff       	callq  b6f3 <transparent_crc>
   120b6:	83 7d fc 00          	cmpl   $0x0,-0x4(%rbp)
   120ba:	74 16                	je     120d2 <main+0x69a>
   120bc:	8b 45 f0             	mov    -0x10(%rbp),%eax
   120bf:	89 c6                	mov    %eax,%esi
   120c1:	48 8d 3d 19 20 00 00 	lea    0x2019(%rip),%rdi        # 140e1 <g_1927+0x49>
   120c8:	b8 00 00 00 00       	mov    $0x0,%eax
   120cd:	e8 ae 7f ff ff       	callq  a080 <printf@plt>
   120d2:	83 45 f0 01          	addl   $0x1,-0x10(%rbp)
   120d6:	83 7d f0 06          	cmpl   $0x6,-0x10(%rbp)
   120da:	7e 82                	jle    1205e <main+0x626>
   120dc:	8b 05 56 63 00 00    	mov    0x6356(%rip),%eax        # 18438 <g_218>
   120e2:	48 98                	cltq   
   120e4:	8b 55 fc             	mov    -0x4(%rbp),%edx
   120e7:	48 8d 35 2a 21 00 00 	lea    0x212a(%rip),%rsi        # 14218 <g_1927+0x180>
   120ee:	48 89 c7             	mov    %rax,%rdi
   120f1:	e8 fd 95 ff ff       	callq  b6f3 <transparent_crc>
   120f6:	8b 05 3c 63 00 00    	mov    0x633c(%rip),%eax        # 18438 <g_218>
   120fc:	89 c1                	mov    %eax,%ecx
   120fe:	8b 45 fc             	mov    -0x4(%rbp),%eax
   12101:	89 c2                	mov    %eax,%edx
   12103:	48 8d 35 17 21 00 00 	lea    0x2117(%rip),%rsi        # 14221 <g_1927+0x189>
   1210a:	48 89 cf             	mov    %rcx,%rdi
   1210d:	e8 e1 95 ff ff       	callq  b6f3 <transparent_crc>
   12112:	8b 05 28 63 00 00    	mov    0x6328(%rip),%eax        # 18440 <g_219>
   12118:	48 98                	cltq   
   1211a:	8b 55 fc             	mov    -0x4(%rbp),%edx
   1211d:	48 8d 35 06 21 00 00 	lea    0x2106(%rip),%rsi        # 1422a <g_1927+0x192>
   12124:	48 89 c7             	mov    %rax,%rdi
   12127:	e8 c7 95 ff ff       	callq  b6f3 <transparent_crc>
   1212c:	8b 05 0e 63 00 00    	mov    0x630e(%rip),%eax        # 18440 <g_219>
   12132:	89 c1                	mov    %eax,%ecx
   12134:	8b 45 fc             	mov    -0x4(%rbp),%eax
   12137:	89 c2                	mov    %eax,%edx
   12139:	48 8d 35 f3 20 00 00 	lea    0x20f3(%rip),%rsi        # 14233 <g_1927+0x19b>
   12140:	48 89 cf             	mov    %rcx,%rdi
   12143:	e8 ab 95 ff ff       	callq  b6f3 <transparent_crc>
   12148:	8b 05 fa 62 00 00    	mov    0x62fa(%rip),%eax        # 18448 <g_220>
   1214e:	48 98                	cltq   
   12150:	8b 55 fc             	mov    -0x4(%rbp),%edx
   12153:	48 8d 35 e2 20 00 00 	lea    0x20e2(%rip),%rsi        # 1423c <g_1927+0x1a4>
   1215a:	48 89 c7             	mov    %rax,%rdi
   1215d:	e8 91 95 ff ff       	callq  b6f3 <transparent_crc>
   12162:	8b 05 e0 62 00 00    	mov    0x62e0(%rip),%eax        # 18448 <g_220>
   12168:	89 c1                	mov    %eax,%ecx
   1216a:	8b 45 fc             	mov    -0x4(%rbp),%eax
   1216d:	89 c2                	mov    %eax,%edx
   1216f:	48 8d 35 cf 20 00 00 	lea    0x20cf(%rip),%rsi        # 14245 <g_1927+0x1ad>
   12176:	48 89 cf             	mov    %rcx,%rdi
   12179:	e8 75 95 ff ff       	callq  b6f3 <transparent_crc>
   1217e:	c7 45 f0 00 00 00 00 	movl   $0x0,-0x10(%rbp)
   12185:	eb 78                	jmp    121ff <main+0x7c7>
   12187:	8b 45 f0             	mov    -0x10(%rbp),%eax
   1218a:	48 98                	cltq   
   1218c:	48 8d 14 c5 00 00 00 	lea    0x0(,%rax,8),%rdx
   12193:	00 
   12194:	48 8d 05 b5 62 00 00 	lea    0x62b5(%rip),%rax        # 18450 <g_221>
   1219b:	8b 04 02             	mov    (%rdx,%rax,1),%eax
   1219e:	48 98                	cltq   
   121a0:	8b 55 fc             	mov    -0x4(%rbp),%edx
   121a3:	48 8d 35 a4 20 00 00 	lea    0x20a4(%rip),%rsi        # 1424e <g_1927+0x1b6>
   121aa:	48 89 c7             	mov    %rax,%rdi
   121ad:	e8 41 95 ff ff       	callq  b6f3 <transparent_crc>
   121b2:	8b 45 f0             	mov    -0x10(%rbp),%eax
   121b5:	48 98                	cltq   
   121b7:	48 8d 14 c5 00 00 00 	lea    0x0(,%rax,8),%rdx
   121be:	00 
   121bf:	48 8d 05 8a 62 00 00 	lea    0x628a(%rip),%rax        # 18450 <g_221>
   121c6:	8b 04 02             	mov    (%rdx,%rax,1),%eax
   121c9:	89 c1                	mov    %eax,%ecx
   121cb:	8b 45 fc             	mov    -0x4(%rbp),%eax
   121ce:	89 c2                	mov    %eax,%edx
   121d0:	48 8d 35 83 20 00 00 	lea    0x2083(%rip),%rsi        # 1425a <g_1927+0x1c2>
   121d7:	48 89 cf             	mov    %rcx,%rdi
   121da:	e8 14 95 ff ff       	callq  b6f3 <transparent_crc>
   121df:	83 7d fc 00          	cmpl   $0x0,-0x4(%rbp)
   121e3:	74 16                	je     121fb <main+0x7c3>
   121e5:	8b 45 f0             	mov    -0x10(%rbp),%eax
   121e8:	89 c6                	mov    %eax,%esi
   121ea:	48 8d 3d f0 1e 00 00 	lea    0x1ef0(%rip),%rdi        # 140e1 <g_1927+0x49>
   121f1:	b8 00 00 00 00       	mov    $0x0,%eax
   121f6:	e8 85 7e ff ff       	callq  a080 <printf@plt>
   121fb:	83 45 f0 01          	addl   $0x1,-0x10(%rbp)
   121ff:	83 7d f0 02          	cmpl   $0x2,-0x10(%rbp)
   12203:	7e 82                	jle    12187 <main+0x74f>
   12205:	c7 45 f0 00 00 00 00 	movl   $0x0,-0x10(%rbp)
   1220c:	eb 78                	jmp    12286 <main+0x84e>
   1220e:	8b 45 f0             	mov    -0x10(%rbp),%eax
   12211:	48 98                	cltq   
   12213:	48 8d 14 c5 00 00 00 	lea    0x0(,%rax,8),%rdx
   1221a:	00 
   1221b:	48 8d 05 5e 62 00 00 	lea    0x625e(%rip),%rax        # 18480 <g_222>
   12222:	8b 04 02             	mov    (%rdx,%rax,1),%eax
   12225:	48 98                	cltq   
   12227:	8b 55 fc             	mov    -0x4(%rbp),%edx
   1222a:	48 8d 35 35 20 00 00 	lea    0x2035(%rip),%rsi        # 14266 <g_1927+0x1ce>
   12231:	48 89 c7             	mov    %rax,%rdi
   12234:	e8 ba 94 ff ff       	callq  b6f3 <transparent_crc>
   12239:	8b 45 f0             	mov    -0x10(%rbp),%eax
   1223c:	48 98                	cltq   
   1223e:	48 8d 14 c5 00 00 00 	lea    0x0(,%rax,8),%rdx
   12245:	00 
   12246:	48 8d 05 33 62 00 00 	lea    0x6233(%rip),%rax        # 18480 <g_222>
   1224d:	8b 04 02             	mov    (%rdx,%rax,1),%eax
   12250:	89 c1                	mov    %eax,%ecx
   12252:	8b 45 fc             	mov    -0x4(%rbp),%eax
   12255:	89 c2                	mov    %eax,%edx
   12257:	48 8d 35 14 20 00 00 	lea    0x2014(%rip),%rsi        # 14272 <g_1927+0x1da>
   1225e:	48 89 cf             	mov    %rcx,%rdi
   12261:	e8 8d 94 ff ff       	callq  b6f3 <transparent_crc>
   12266:	83 7d fc 00          	cmpl   $0x0,-0x4(%rbp)
   1226a:	74 16                	je     12282 <main+0x84a>
   1226c:	8b 45 f0             	mov    -0x10(%rbp),%eax
   1226f:	89 c6                	mov    %eax,%esi
   12271:	48 8d 3d 69 1e 00 00 	lea    0x1e69(%rip),%rdi        # 140e1 <g_1927+0x49>
   12278:	b8 00 00 00 00       	mov    $0x0,%eax
   1227d:	e8 fe 7d ff ff       	callq  a080 <printf@plt>
   12282:	83 45 f0 01          	addl   $0x1,-0x10(%rbp)
   12286:	83 7d f0 04          	cmpl   $0x4,-0x10(%rbp)
   1228a:	7e 82                	jle    1220e <main+0x7d6>
   1228c:	8b 05 16 62 00 00    	mov    0x6216(%rip),%eax        # 184a8 <g_223>
   12292:	48 98                	cltq   
   12294:	8b 55 fc             	mov    -0x4(%rbp),%edx
   12297:	48 8d 35 e0 1f 00 00 	lea    0x1fe0(%rip),%rsi        # 1427e <g_1927+0x1e6>
   1229e:	48 89 c7             	mov    %rax,%rdi
   122a1:	e8 4d 94 ff ff       	callq  b6f3 <transparent_crc>
   122a6:	8b 05 fc 61 00 00    	mov    0x61fc(%rip),%eax        # 184a8 <g_223>
   122ac:	89 c1                	mov    %eax,%ecx
   122ae:	8b 45 fc             	mov    -0x4(%rbp),%eax
   122b1:	89 c2                	mov    %eax,%edx
   122b3:	48 8d 35 cd 1f 00 00 	lea    0x1fcd(%rip),%rsi        # 14287 <g_1927+0x1ef>
   122ba:	48 89 cf             	mov    %rcx,%rdi
   122bd:	e8 31 94 ff ff       	callq  b6f3 <transparent_crc>
   122c2:	c7 45 f0 00 00 00 00 	movl   $0x0,-0x10(%rbp)
   122c9:	e9 c1 00 00 00       	jmpq   1238f <main+0x957>
   122ce:	c7 45 f4 00 00 00 00 	movl   $0x0,-0xc(%rbp)
   122d5:	e9 a7 00 00 00       	jmpq   12381 <main+0x949>
   122da:	8b 45 f4             	mov    -0xc(%rbp),%eax
   122dd:	48 63 c8             	movslq %eax,%rcx
   122e0:	8b 45 f0             	mov    -0x10(%rbp),%eax
   122e3:	48 63 d0             	movslq %eax,%rdx
   122e6:	48 89 d0             	mov    %rdx,%rax
   122e9:	48 01 c0             	add    %rax,%rax
   122ec:	48 01 d0             	add    %rdx,%rax
   122ef:	48 01 c0             	add    %rax,%rax
   122f2:	48 01 c8             	add    %rcx,%rax
   122f5:	48 8d 14 c5 00 00 00 	lea    0x0(,%rax,8),%rdx
   122fc:	00 
   122fd:	48 8d 05 bc 61 00 00 	lea    0x61bc(%rip),%rax        # 184c0 <g_224>
   12304:	8b 04 02             	mov    (%rdx,%rax,1),%eax
   12307:	48 98                	cltq   
   12309:	8b 55 fc             	mov    -0x4(%rbp),%edx
   1230c:	48 8d 35 7d 1f 00 00 	lea    0x1f7d(%rip),%rsi        # 14290 <g_1927+0x1f8>
   12313:	48 89 c7             	mov    %rax,%rdi
   12316:	e8 d8 93 ff ff       	callq  b6f3 <transparent_crc>
   1231b:	8b 45 f4             	mov    -0xc(%rbp),%eax
   1231e:	48 63 c8             	movslq %eax,%rcx
   12321:	8b 45 f0             	mov    -0x10(%rbp),%eax
   12324:	48 63 d0             	movslq %eax,%rdx
   12327:	48 89 d0             	mov    %rdx,%rax
   1232a:	48 01 c0             	add    %rax,%rax
   1232d:	48 01 d0             	add    %rdx,%rax
   12330:	48 01 c0             	add    %rax,%rax
   12333:	48 01 c8             	add    %rcx,%rax
   12336:	48 8d 14 c5 00 00 00 	lea    0x0(,%rax,8),%rdx
   1233d:	00 
   1233e:	48 8d 05 7b 61 00 00 	lea    0x617b(%rip),%rax        # 184c0 <g_224>
   12345:	8b 04 02             	mov    (%rdx,%rax,1),%eax
   12348:	89 c1                	mov    %eax,%ecx
   1234a:	8b 45 fc             	mov    -0x4(%rbp),%eax
   1234d:	89 c2                	mov    %eax,%edx
   1234f:	48 8d 35 49 1f 00 00 	lea    0x1f49(%rip),%rsi        # 1429f <g_1927+0x207>
   12356:	48 89 cf             	mov    %rcx,%rdi
   12359:	e8 95 93 ff ff       	callq  b6f3 <transparent_crc>
   1235e:	83 7d fc 00          	cmpl   $0x0,-0x4(%rbp)
   12362:	74 19                	je     1237d <main+0x945>
   12364:	8b 55 f4             	mov    -0xc(%rbp),%edx
   12367:	8b 45 f0             	mov    -0x10(%rbp),%eax
   1236a:	89 c6                	mov    %eax,%esi
   1236c:	48 8d 3d e5 1d 00 00 	lea    0x1de5(%rip),%rdi        # 14158 <g_1927+0xc0>
   12373:	b8 00 00 00 00       	mov    $0x0,%eax
   12378:	e8 03 7d ff ff       	callq  a080 <printf@plt>
   1237d:	83 45 f4 01          	addl   $0x1,-0xc(%rbp)
   12381:	83 7d f4 05          	cmpl   $0x5,-0xc(%rbp)
   12385:	0f 8e 4f ff ff ff    	jle    122da <main+0x8a2>
   1238b:	83 45 f0 01          	addl   $0x1,-0x10(%rbp)
   1238f:	83 7d f0 02          	cmpl   $0x2,-0x10(%rbp)
   12393:	0f 8e 35 ff ff ff    	jle    122ce <main+0x896>
   12399:	8b 05 b1 61 00 00    	mov    0x61b1(%rip),%eax        # 18550 <g_225>
   1239f:	48 98                	cltq   
   123a1:	8b 55 fc             	mov    -0x4(%rbp),%edx
   123a4:	48 8d 35 03 1f 00 00 	lea    0x1f03(%rip),%rsi        # 142ae <g_1927+0x216>
   123ab:	48 89 c7             	mov    %rax,%rdi
   123ae:	e8 40 93 ff ff       	callq  b6f3 <transparent_crc>
   123b3:	8b 05 97 61 00 00    	mov    0x6197(%rip),%eax        # 18550 <g_225>
   123b9:	89 c1                	mov    %eax,%ecx
   123bb:	8b 45 fc             	mov    -0x4(%rbp),%eax
   123be:	89 c2                	mov    %eax,%edx
   123c0:	48 8d 35 f0 1e 00 00 	lea    0x1ef0(%rip),%rsi        # 142b7 <g_1927+0x21f>
   123c7:	48 89 cf             	mov    %rcx,%rdi
   123ca:	e8 24 93 ff ff       	callq  b6f3 <transparent_crc>
   123cf:	8b 05 83 61 00 00    	mov    0x6183(%rip),%eax        # 18558 <g_226>
   123d5:	48 98                	cltq   
   123d7:	8b 55 fc             	mov    -0x4(%rbp),%edx
   123da:	48 8d 35 df 1e 00 00 	lea    0x1edf(%rip),%rsi        # 142c0 <g_1927+0x228>
   123e1:	48 89 c7             	mov    %rax,%rdi
   123e4:	e8 0a 93 ff ff       	callq  b6f3 <transparent_crc>
   123e9:	8b 05 69 61 00 00    	mov    0x6169(%rip),%eax        # 18558 <g_226>
   123ef:	89 c1                	mov    %eax,%ecx
   123f1:	8b 45 fc             	mov    -0x4(%rbp),%eax
   123f4:	89 c2                	mov    %eax,%edx
   123f6:	48 8d 35 cc 1e 00 00 	lea    0x1ecc(%rip),%rsi        # 142c9 <g_1927+0x231>
   123fd:	48 89 cf             	mov    %rcx,%rdi
   12400:	e8 ee 92 ff ff       	callq  b6f3 <transparent_crc>
   12405:	8b 05 55 61 00 00    	mov    0x6155(%rip),%eax        # 18560 <g_227>
   1240b:	48 98                	cltq   
   1240d:	8b 55 fc             	mov    -0x4(%rbp),%edx
   12410:	48 8d 35 bb 1e 00 00 	lea    0x1ebb(%rip),%rsi        # 142d2 <g_1927+0x23a>
   12417:	48 89 c7             	mov    %rax,%rdi
   1241a:	e8 d4 92 ff ff       	callq  b6f3 <transparent_crc>
   1241f:	8b 05 3b 61 00 00    	mov    0x613b(%rip),%eax        # 18560 <g_227>
   12425:	89 c1                	mov    %eax,%ecx
   12427:	8b 45 fc             	mov    -0x4(%rbp),%eax
   1242a:	89 c2                	mov    %eax,%edx
   1242c:	48 8d 35 a8 1e 00 00 	lea    0x1ea8(%rip),%rsi        # 142db <g_1927+0x243>
   12433:	48 89 cf             	mov    %rcx,%rdi
   12436:	e8 b8 92 ff ff       	callq  b6f3 <transparent_crc>
   1243b:	8b 05 27 61 00 00    	mov    0x6127(%rip),%eax        # 18568 <g_228>
   12441:	48 98                	cltq   
   12443:	8b 55 fc             	mov    -0x4(%rbp),%edx
   12446:	48 8d 35 97 1e 00 00 	lea    0x1e97(%rip),%rsi        # 142e4 <g_1927+0x24c>
   1244d:	48 89 c7             	mov    %rax,%rdi
   12450:	e8 9e 92 ff ff       	callq  b6f3 <transparent_crc>
   12455:	8b 05 0d 61 00 00    	mov    0x610d(%rip),%eax        # 18568 <g_228>
   1245b:	89 c1                	mov    %eax,%ecx
   1245d:	8b 45 fc             	mov    -0x4(%rbp),%eax
   12460:	89 c2                	mov    %eax,%edx
   12462:	48 8d 35 84 1e 00 00 	lea    0x1e84(%rip),%rsi        # 142ed <g_1927+0x255>
   12469:	48 89 cf             	mov    %rcx,%rdi
   1246c:	e8 82 92 ff ff       	callq  b6f3 <transparent_crc>
   12471:	8b 05 f9 60 00 00    	mov    0x60f9(%rip),%eax        # 18570 <g_256>
   12477:	48 98                	cltq   
   12479:	8b 55 fc             	mov    -0x4(%rbp),%edx
   1247c:	48 8d 35 73 1e 00 00 	lea    0x1e73(%rip),%rsi        # 142f6 <g_1927+0x25e>
   12483:	48 89 c7             	mov    %rax,%rdi
   12486:	e8 68 92 ff ff       	callq  b6f3 <transparent_crc>
   1248b:	0f b7 05 e2 60 00 00 	movzwl 0x60e2(%rip),%eax        # 18574 <g_267>
   12492:	0f b7 c0             	movzwl %ax,%eax
   12495:	8b 55 fc             	mov    -0x4(%rbp),%edx
   12498:	48 8d 35 5d 1e 00 00 	lea    0x1e5d(%rip),%rsi        # 142fc <g_1927+0x264>
   1249f:	48 89 c7             	mov    %rax,%rdi
   124a2:	e8 4c 92 ff ff       	callq  b6f3 <transparent_crc>
   124a7:	c7 45 f0 00 00 00 00 	movl   $0x0,-0x10(%rbp)
   124ae:	e9 ad 00 00 00       	jmpq   12560 <main+0xb28>
   124b3:	c7 45 f4 00 00 00 00 	movl   $0x0,-0xc(%rbp)
   124ba:	e9 93 00 00 00       	jmpq   12552 <main+0xb1a>
   124bf:	c7 45 f8 00 00 00 00 	movl   $0x0,-0x8(%rbp)
   124c6:	eb 7c                	jmp    12544 <main+0xb0c>
   124c8:	8b 45 f8             	mov    -0x8(%rbp),%eax
   124cb:	48 63 f0             	movslq %eax,%rsi
   124ce:	8b 45 f0             	mov    -0x10(%rbp),%eax
   124d1:	48 63 d0             	movslq %eax,%rdx
   124d4:	8b 45 f4             	mov    -0xc(%rbp),%eax
   124d7:	48 63 c8             	movslq %eax,%rcx
   124da:	48 89 d0             	mov    %rdx,%rax
   124dd:	48 c1 e0 02          	shl    $0x2,%rax
   124e1:	48 01 d0             	add    %rdx,%rax
   124e4:	48 c1 e0 02          	shl    $0x2,%rax
   124e8:	48 01 d0             	add    %rdx,%rax
   124eb:	48 89 ca             	mov    %rcx,%rdx
   124ee:	48 01 d2             	add    %rdx,%rdx
   124f1:	48 01 ca             	add    %rcx,%rdx
   124f4:	48 01 d0             	add    %rdx,%rax
   124f7:	48 01 f0             	add    %rsi,%rax
   124fa:	48 8d 14 00          	lea    (%rax,%rax,1),%rdx
   124fe:	48 8d 05 7b 60 00 00 	lea    0x607b(%rip),%rax        # 18580 <g_284>
   12505:	0f b7 04 02          	movzwl (%rdx,%rax,1),%eax
   12509:	0f b7 c0             	movzwl %ax,%eax
   1250c:	8b 55 fc             	mov    -0x4(%rbp),%edx
   1250f:	48 8d 35 ec 1d 00 00 	lea    0x1dec(%rip),%rsi        # 14302 <g_1927+0x26a>
   12516:	48 89 c7             	mov    %rax,%rdi
   12519:	e8 d5 91 ff ff       	callq  b6f3 <transparent_crc>
   1251e:	83 7d fc 00          	cmpl   $0x0,-0x4(%rbp)
   12522:	74 1c                	je     12540 <main+0xb08>
   12524:	8b 4d f8             	mov    -0x8(%rbp),%ecx
   12527:	8b 55 f4             	mov    -0xc(%rbp),%edx
   1252a:	8b 45 f0             	mov    -0x10(%rbp),%eax
   1252d:	89 c6                	mov    %eax,%esi
   1252f:	48 8d 3d db 1d 00 00 	lea    0x1ddb(%rip),%rdi        # 14311 <g_1927+0x279>
   12536:	b8 00 00 00 00       	mov    $0x0,%eax
   1253b:	e8 40 7b ff ff       	callq  a080 <printf@plt>
   12540:	83 45 f8 01          	addl   $0x1,-0x8(%rbp)
   12544:	83 7d f8 02          	cmpl   $0x2,-0x8(%rbp)
   12548:	0f 8e 7a ff ff ff    	jle    124c8 <main+0xa90>
   1254e:	83 45 f4 01          	addl   $0x1,-0xc(%rbp)
   12552:	83 7d f4 06          	cmpl   $0x6,-0xc(%rbp)
   12556:	0f 8e 63 ff ff ff    	jle    124bf <main+0xa87>
   1255c:	83 45 f0 01          	addl   $0x1,-0x10(%rbp)
   12560:	83 7d f0 05          	cmpl   $0x5,-0x10(%rbp)
   12564:	0f 8e 49 ff ff ff    	jle    124b3 <main+0xa7b>
   1256a:	48 8b 05 0f 61 00 00 	mov    0x610f(%rip),%rax        # 18680 <g_294>
   12571:	48 89 c1             	mov    %rax,%rcx
   12574:	8b 45 fc             	mov    -0x4(%rbp),%eax
   12577:	89 c2                	mov    %eax,%edx
   12579:	48 8d 35 a7 1d 00 00 	lea    0x1da7(%rip),%rsi        # 14327 <g_1927+0x28f>
   12580:	48 89 cf             	mov    %rcx,%rdi
   12583:	e8 6b 91 ff ff       	callq  b6f3 <transparent_crc>
   12588:	0f b7 05 f9 60 00 00 	movzwl 0x60f9(%rip),%eax        # 18688 <g_295>
   1258f:	0f b7 c0             	movzwl %ax,%eax
   12592:	8b 55 fc             	mov    -0x4(%rbp),%edx
   12595:	48 8d 35 91 1d 00 00 	lea    0x1d91(%rip),%rsi        # 1432d <g_1927+0x295>
   1259c:	48 89 c7             	mov    %rax,%rdi
   1259f:	e8 4f 91 ff ff       	callq  b6f3 <transparent_crc>
   125a4:	c7 45 f0 00 00 00 00 	movl   $0x0,-0x10(%rbp)
   125ab:	eb 7c                	jmp    12629 <main+0xbf1>
   125ad:	c7 45 f4 00 00 00 00 	movl   $0x0,-0xc(%rbp)
   125b4:	eb 69                	jmp    1261f <main+0xbe7>
   125b6:	8b 45 f4             	mov    -0xc(%rbp),%eax
   125b9:	48 63 c8             	movslq %eax,%rcx
   125bc:	8b 45 f0             	mov    -0x10(%rbp),%eax
   125bf:	48 63 d0             	movslq %eax,%rdx
   125c2:	48 89 d0             	mov    %rdx,%rax
   125c5:	48 c1 e0 02          	shl    $0x2,%rax
   125c9:	48 01 d0             	add    %rdx,%rax
   125cc:	48 01 c0             	add    %rax,%rax
   125cf:	48 01 c8             	add    %rcx,%rax
   125d2:	48 8d 14 c5 00 00 00 	lea    0x0(,%rax,8),%rdx
   125d9:	00 
   125da:	48 8d 05 bf 60 00 00 	lea    0x60bf(%rip),%rax        # 186a0 <g_302>
   125e1:	48 8b 04 02          	mov    (%rdx,%rax,1),%rax
   125e5:	48 89 c1             	mov    %rax,%rcx
   125e8:	8b 45 fc             	mov    -0x4(%rbp),%eax
   125eb:	89 c2                	mov    %eax,%edx
   125ed:	48 8d 35 3f 1d 00 00 	lea    0x1d3f(%rip),%rsi        # 14333 <g_1927+0x29b>
   125f4:	48 89 cf             	mov    %rcx,%rdi
   125f7:	e8 f7 90 ff ff       	callq  b6f3 <transparent_crc>
   125fc:	83 7d fc 00          	cmpl   $0x0,-0x4(%rbp)
   12600:	74 19                	je     1261b <main+0xbe3>
   12602:	8b 55 f4             	mov    -0xc(%rbp),%edx
   12605:	8b 45 f0             	mov    -0x10(%rbp),%eax
   12608:	89 c6                	mov    %eax,%esi
   1260a:	48 8d 3d 47 1b 00 00 	lea    0x1b47(%rip),%rdi        # 14158 <g_1927+0xc0>
   12611:	b8 00 00 00 00       	mov    $0x0,%eax
   12616:	e8 65 7a ff ff       	callq  a080 <printf@plt>
   1261b:	83 45 f4 01          	addl   $0x1,-0xc(%rbp)
   1261f:	83 7d f4 09          	cmpl   $0x9,-0xc(%rbp)
   12623:	7e 91                	jle    125b6 <main+0xb7e>
   12625:	83 45 f0 01          	addl   $0x1,-0x10(%rbp)
   12629:	83 7d f0 01          	cmpl   $0x1,-0x10(%rbp)
   1262d:	0f 8e 7a ff ff ff    	jle    125ad <main+0xb75>
   12633:	8b 05 07 61 00 00    	mov    0x6107(%rip),%eax        # 18740 <g_303>
   12639:	89 c1                	mov    %eax,%ecx
   1263b:	8b 45 fc             	mov    -0x4(%rbp),%eax
   1263e:	89 c2                	mov    %eax,%edx
   12640:	48 8d 35 f8 1c 00 00 	lea    0x1cf8(%rip),%rsi        # 1433f <g_1927+0x2a7>
   12647:	48 89 cf             	mov    %rcx,%rdi
   1264a:	e8 a4 90 ff ff       	callq  b6f3 <transparent_crc>
   1264f:	0f b6 05 ee 60 00 00 	movzbl 0x60ee(%rip),%eax        # 18744 <g_337>
   12656:	0f b6 c0             	movzbl %al,%eax
   12659:	8b 55 fc             	mov    -0x4(%rbp),%edx
   1265c:	48 8d 35 e2 1c 00 00 	lea    0x1ce2(%rip),%rsi        # 14345 <g_1927+0x2ad>
   12663:	48 89 c7             	mov    %rax,%rdi
   12666:	e8 88 90 ff ff       	callq  b6f3 <transparent_crc>
   1266b:	0f b7 05 d6 60 00 00 	movzwl 0x60d6(%rip),%eax        # 18748 <g_352>
   12672:	0f b7 c0             	movzwl %ax,%eax
   12675:	8b 55 fc             	mov    -0x4(%rbp),%edx
   12678:	48 8d 35 cc 1c 00 00 	lea    0x1ccc(%rip),%rsi        # 1434b <g_1927+0x2b3>
   1267f:	48 89 c7             	mov    %rax,%rdi
   12682:	e8 6c 90 ff ff       	callq  b6f3 <transparent_crc>
   12687:	0f b7 05 c2 60 00 00 	movzwl 0x60c2(%rip),%eax        # 18750 <g_353>
   1268e:	0f b7 c0             	movzwl %ax,%eax
   12691:	8b 55 fc             	mov    -0x4(%rbp),%edx
   12694:	48 8d 35 b9 1c 00 00 	lea    0x1cb9(%rip),%rsi        # 14354 <g_1927+0x2bc>
   1269b:	48 89 c7             	mov    %rax,%rdi
   1269e:	e8 50 90 ff ff       	callq  b6f3 <transparent_crc>
   126a3:	0f b7 05 ae 60 00 00 	movzwl 0x60ae(%rip),%eax        # 18758 <g_354>
   126aa:	0f b7 c0             	movzwl %ax,%eax
   126ad:	8b 55 fc             	mov    -0x4(%rbp),%edx
   126b0:	48 8d 35 a6 1c 00 00 	lea    0x1ca6(%rip),%rsi        # 1435d <g_1927+0x2c5>
   126b7:	48 89 c7             	mov    %rax,%rdi
   126ba:	e8 34 90 ff ff       	callq  b6f3 <transparent_crc>
   126bf:	0f b7 05 9a 60 00 00 	movzwl 0x609a(%rip),%eax        # 18760 <g_355>
   126c6:	0f b7 c0             	movzwl %ax,%eax
   126c9:	8b 55 fc             	mov    -0x4(%rbp),%edx
   126cc:	48 8d 35 93 1c 00 00 	lea    0x1c93(%rip),%rsi        # 14366 <g_1927+0x2ce>
   126d3:	48 89 c7             	mov    %rax,%rdi
   126d6:	e8 18 90 ff ff       	callq  b6f3 <transparent_crc>
   126db:	0f b7 05 96 b6 00 00 	movzwl 0xb696(%rip),%eax        # 1dd78 <g_356>
   126e2:	0f b7 c0             	movzwl %ax,%eax
   126e5:	8b 55 fc             	mov    -0x4(%rbp),%edx
   126e8:	48 8d 35 80 1c 00 00 	lea    0x1c80(%rip),%rsi        # 1436f <g_1927+0x2d7>
   126ef:	48 89 c7             	mov    %rax,%rdi
   126f2:	e8 fc 8f ff ff       	callq  b6f3 <transparent_crc>
   126f7:	0f b7 05 6a 60 00 00 	movzwl 0x606a(%rip),%eax        # 18768 <g_357>
   126fe:	0f b7 c0             	movzwl %ax,%eax
   12701:	8b 55 fc             	mov    -0x4(%rbp),%edx
   12704:	48 8d 35 6d 1c 00 00 	lea    0x1c6d(%rip),%rsi        # 14378 <g_1927+0x2e0>
   1270b:	48 89 c7             	mov    %rax,%rdi
   1270e:	e8 e0 8f ff ff       	callq  b6f3 <transparent_crc>
   12713:	0f b7 05 56 60 00 00 	movzwl 0x6056(%rip),%eax        # 18770 <g_358>
   1271a:	0f b7 c0             	movzwl %ax,%eax
   1271d:	8b 55 fc             	mov    -0x4(%rbp),%edx
   12720:	48 8d 35 5a 1c 00 00 	lea    0x1c5a(%rip),%rsi        # 14381 <g_1927+0x2e9>
   12727:	48 89 c7             	mov    %rax,%rdi
   1272a:	e8 c4 8f ff ff       	callq  b6f3 <transparent_crc>
   1272f:	0f b7 05 4a 60 00 00 	movzwl 0x604a(%rip),%eax        # 18780 <g_360>
   12736:	0f b7 c0             	movzwl %ax,%eax
   12739:	8b 55 fc             	mov    -0x4(%rbp),%edx
   1273c:	48 8d 35 47 1c 00 00 	lea    0x1c47(%rip),%rsi        # 1438a <g_1927+0x2f2>
   12743:	48 89 c7             	mov    %rax,%rdi
   12746:	e8 a8 8f ff ff       	callq  b6f3 <transparent_crc>
   1274b:	0f b7 05 36 60 00 00 	movzwl 0x6036(%rip),%eax        # 18788 <g_361>
   12752:	0f b7 c0             	movzwl %ax,%eax
   12755:	8b 55 fc             	mov    -0x4(%rbp),%edx
   12758:	48 8d 35 34 1c 00 00 	lea    0x1c34(%rip),%rsi        # 14393 <g_1927+0x2fb>
   1275f:	48 89 c7             	mov    %rax,%rdi
   12762:	e8 8c 8f ff ff       	callq  b6f3 <transparent_crc>
   12767:	0f b7 05 22 60 00 00 	movzwl 0x6022(%rip),%eax        # 18790 <g_362>
   1276e:	0f b7 c0             	movzwl %ax,%eax
   12771:	8b 55 fc             	mov    -0x4(%rbp),%edx
   12774:	48 8d 35 21 1c 00 00 	lea    0x1c21(%rip),%rsi        # 1439c <g_1927+0x304>
   1277b:	48 89 c7             	mov    %rax,%rdi
   1277e:	e8 70 8f ff ff       	callq  b6f3 <transparent_crc>
   12783:	0f b7 05 0e 60 00 00 	movzwl 0x600e(%rip),%eax        # 18798 <g_363>
   1278a:	0f b7 c0             	movzwl %ax,%eax
   1278d:	8b 55 fc             	mov    -0x4(%rbp),%edx
   12790:	48 8d 35 0e 1c 00 00 	lea    0x1c0e(%rip),%rsi        # 143a5 <g_1927+0x30d>
   12797:	48 89 c7             	mov    %rax,%rdi
   1279a:	e8 54 8f ff ff       	callq  b6f3 <transparent_crc>
   1279f:	0f b7 05 fa 5f 00 00 	movzwl 0x5ffa(%rip),%eax        # 187a0 <g_364>
   127a6:	0f b7 c0             	movzwl %ax,%eax
   127a9:	8b 55 fc             	mov    -0x4(%rbp),%edx
   127ac:	48 8d 35 fb 1b 00 00 	lea    0x1bfb(%rip),%rsi        # 143ae <g_1927+0x316>
   127b3:	48 89 c7             	mov    %rax,%rdi
   127b6:	e8 38 8f ff ff       	callq  b6f3 <transparent_crc>
   127bb:	0f b7 05 e6 5f 00 00 	movzwl 0x5fe6(%rip),%eax        # 187a8 <g_365>
   127c2:	0f b7 c0             	movzwl %ax,%eax
   127c5:	8b 55 fc             	mov    -0x4(%rbp),%edx
   127c8:	48 8d 35 e8 1b 00 00 	lea    0x1be8(%rip),%rsi        # 143b7 <g_1927+0x31f>
   127cf:	48 89 c7             	mov    %rax,%rdi
   127d2:	e8 1c 8f ff ff       	callq  b6f3 <transparent_crc>
   127d7:	0f b7 05 d2 5f 00 00 	movzwl 0x5fd2(%rip),%eax        # 187b0 <g_366>
   127de:	0f b7 c0             	movzwl %ax,%eax
   127e1:	8b 55 fc             	mov    -0x4(%rbp),%edx
   127e4:	48 8d 35 d5 1b 00 00 	lea    0x1bd5(%rip),%rsi        # 143c0 <g_1927+0x328>
   127eb:	48 89 c7             	mov    %rax,%rdi
   127ee:	e8 00 8f ff ff       	callq  b6f3 <transparent_crc>
   127f3:	0f b7 05 be 5f 00 00 	movzwl 0x5fbe(%rip),%eax        # 187b8 <g_367>
   127fa:	0f b7 c0             	movzwl %ax,%eax
   127fd:	8b 55 fc             	mov    -0x4(%rbp),%edx
   12800:	48 8d 35 c2 1b 00 00 	lea    0x1bc2(%rip),%rsi        # 143c9 <g_1927+0x331>
   12807:	48 89 c7             	mov    %rax,%rdi
   1280a:	e8 e4 8e ff ff       	callq  b6f3 <transparent_crc>
   1280f:	c7 45 f0 00 00 00 00 	movl   $0x0,-0x10(%rbp)
   12816:	eb 70                	jmp    12888 <main+0xe50>
   12818:	c7 45 f4 00 00 00 00 	movl   $0x0,-0xc(%rbp)
   1281f:	eb 5d                	jmp    1287e <main+0xe46>
   12821:	8b 45 f4             	mov    -0xc(%rbp),%eax
   12824:	48 98                	cltq   
   12826:	8b 55 f0             	mov    -0x10(%rbp),%edx
   12829:	48 63 d2             	movslq %edx,%rdx
   1282c:	48 c1 e2 03          	shl    $0x3,%rdx
   12830:	48 01 d0             	add    %rdx,%rax
   12833:	48 8d 14 c5 00 00 00 	lea    0x0(,%rax,8),%rdx
   1283a:	00 
   1283b:	48 8d 05 7e 5f 00 00 	lea    0x5f7e(%rip),%rax        # 187c0 <g_368>
   12842:	0f b7 04 02          	movzwl (%rdx,%rax,1),%eax
   12846:	0f b7 c0             	movzwl %ax,%eax
   12849:	8b 55 fc             	mov    -0x4(%rbp),%edx
   1284c:	48 8d 35 7f 1b 00 00 	lea    0x1b7f(%rip),%rsi        # 143d2 <g_1927+0x33a>
   12853:	48 89 c7             	mov    %rax,%rdi
   12856:	e8 98 8e ff ff       	callq  b6f3 <transparent_crc>
   1285b:	83 7d fc 00          	cmpl   $0x0,-0x4(%rbp)
   1285f:	74 19                	je     1287a <main+0xe42>
   12861:	8b 55 f4             	mov    -0xc(%rbp),%edx
   12864:	8b 45 f0             	mov    -0x10(%rbp),%eax
   12867:	89 c6                	mov    %eax,%esi
   12869:	48 8d 3d e8 18 00 00 	lea    0x18e8(%rip),%rdi        # 14158 <g_1927+0xc0>
   12870:	b8 00 00 00 00       	mov    $0x0,%eax
   12875:	e8 06 78 ff ff       	callq  a080 <printf@plt>
   1287a:	83 45 f4 01          	addl   $0x1,-0xc(%rbp)
   1287e:	83 7d f4 07          	cmpl   $0x7,-0xc(%rbp)
   12882:	7e 9d                	jle    12821 <main+0xde9>
   12884:	83 45 f0 01          	addl   $0x1,-0x10(%rbp)
   12888:	83 7d f0 08          	cmpl   $0x8,-0x10(%rbp)
   1288c:	7e 8a                	jle    12818 <main+0xde0>
   1288e:	0f b7 05 6b 61 00 00 	movzwl 0x616b(%rip),%eax        # 18a00 <g_369>
   12895:	0f b7 c0             	movzwl %ax,%eax
   12898:	8b 55 fc             	mov    -0x4(%rbp),%edx
   1289b:	48 8d 35 3f 1b 00 00 	lea    0x1b3f(%rip),%rsi        # 143e1 <g_1927+0x349>
   128a2:	48 89 c7             	mov    %rax,%rdi
   128a5:	e8 49 8e ff ff       	callq  b6f3 <transparent_crc>
   128aa:	0f b7 05 57 61 00 00 	movzwl 0x6157(%rip),%eax        # 18a08 <g_370>
   128b1:	0f b7 c0             	movzwl %ax,%eax
   128b4:	8b 55 fc             	mov    -0x4(%rbp),%edx
   128b7:	48 8d 35 2c 1b 00 00 	lea    0x1b2c(%rip),%rsi        # 143ea <g_1927+0x352>
   128be:	48 89 c7             	mov    %rax,%rdi
   128c1:	e8 2d 8e ff ff       	callq  b6f3 <transparent_crc>
   128c6:	c7 45 f0 00 00 00 00 	movl   $0x0,-0x10(%rbp)
   128cd:	e9 b6 00 00 00       	jmpq   12988 <main+0xf50>
   128d2:	c7 45 f4 00 00 00 00 	movl   $0x0,-0xc(%rbp)
   128d9:	e9 9c 00 00 00       	jmpq   1297a <main+0xf42>
   128de:	c7 45 f8 00 00 00 00 	movl   $0x0,-0x8(%rbp)
   128e5:	e9 82 00 00 00       	jmpq   1296c <main+0xf34>
   128ea:	8b 45 f8             	mov    -0x8(%rbp),%eax
   128ed:	48 63 f0             	movslq %eax,%rsi
   128f0:	8b 45 f0             	mov    -0x10(%rbp),%eax
   128f3:	48 98                	cltq   
   128f5:	8b 55 f4             	mov    -0xc(%rbp),%edx
   128f8:	48 63 ca             	movslq %edx,%rcx
   128fb:	48 89 c2             	mov    %rax,%rdx
   128fe:	48 c1 e2 04          	shl    $0x4,%rdx
   12902:	48 29 c2             	sub    %rax,%rdx
   12905:	48 8d 04 12          	lea    (%rdx,%rdx,1),%rax
   12909:	48 89 c2             	mov    %rax,%rdx
   1290c:	48 89 c8             	mov    %rcx,%rax
   1290f:	48 01 c0             	add    %rax,%rax
   12912:	48 01 c8             	add    %rcx,%rax
   12915:	48 01 c0             	add    %rax,%rax
   12918:	48 01 d0             	add    %rdx,%rax
   1291b:	48 01 f0             	add    %rsi,%rax
   1291e:	48 8d 14 c5 00 00 00 	lea    0x0(,%rax,8),%rdx
   12925:	00 
   12926:	48 8d 05 f3 60 00 00 	lea    0x60f3(%rip),%rax        # 18a20 <g_371>
   1292d:	0f b7 04 02          	movzwl (%rdx,%rax,1),%eax
   12931:	0f b7 c0             	movzwl %ax,%eax
   12934:	8b 55 fc             	mov    -0x4(%rbp),%edx
   12937:	48 8d 35 b5 1a 00 00 	lea    0x1ab5(%rip),%rsi        # 143f3 <g_1927+0x35b>
   1293e:	48 89 c7             	mov    %rax,%rdi
   12941:	e8 ad 8d ff ff       	callq  b6f3 <transparent_crc>
   12946:	83 7d fc 00          	cmpl   $0x0,-0x4(%rbp)
   1294a:	74 1c                	je     12968 <main+0xf30>
   1294c:	8b 4d f8             	mov    -0x8(%rbp),%ecx
   1294f:	8b 55 f4             	mov    -0xc(%rbp),%edx
   12952:	8b 45 f0             	mov    -0x10(%rbp),%eax
   12955:	89 c6                	mov    %eax,%esi
   12957:	48 8d 3d b3 19 00 00 	lea    0x19b3(%rip),%rdi        # 14311 <g_1927+0x279>
   1295e:	b8 00 00 00 00       	mov    $0x0,%eax
   12963:	e8 18 77 ff ff       	callq  a080 <printf@plt>
   12968:	83 45 f8 01          	addl   $0x1,-0x8(%rbp)
   1296c:	83 7d f8 05          	cmpl   $0x5,-0x8(%rbp)
   12970:	0f 8e 74 ff ff ff    	jle    128ea <main+0xeb2>
   12976:	83 45 f4 01          	addl   $0x1,-0xc(%rbp)
   1297a:	83 7d f4 04          	cmpl   $0x4,-0xc(%rbp)
   1297e:	0f 8e 5a ff ff ff    	jle    128de <main+0xea6>
   12984:	83 45 f0 01          	addl   $0x1,-0x10(%rbp)
   12988:	83 7d f0 07          	cmpl   $0x7,-0x10(%rbp)
   1298c:	0f 8e 40 ff ff ff    	jle    128d2 <main+0xe9a>
   12992:	0f b7 05 07 68 00 00 	movzwl 0x6807(%rip),%eax        # 191a0 <g_372>
   12999:	0f b7 c0             	movzwl %ax,%eax
   1299c:	8b 55 fc             	mov    -0x4(%rbp),%edx
   1299f:	48 8d 35 5f 1a 00 00 	lea    0x1a5f(%rip),%rsi        # 14405 <g_1927+0x36d>
   129a6:	48 89 c7             	mov    %rax,%rdi
   129a9:	e8 45 8d ff ff       	callq  b6f3 <transparent_crc>
   129ae:	0f b7 05 f3 67 00 00 	movzwl 0x67f3(%rip),%eax        # 191a8 <g_373>
   129b5:	0f b7 c0             	movzwl %ax,%eax
   129b8:	8b 55 fc             	mov    -0x4(%rbp),%edx
   129bb:	48 8d 35 4c 1a 00 00 	lea    0x1a4c(%rip),%rsi        # 1440e <g_1927+0x376>
   129c2:	48 89 c7             	mov    %rax,%rdi
   129c5:	e8 29 8d ff ff       	callq  b6f3 <transparent_crc>
   129ca:	0f b7 05 df 67 00 00 	movzwl 0x67df(%rip),%eax        # 191b0 <g_374>
   129d1:	0f b7 c0             	movzwl %ax,%eax
   129d4:	8b 55 fc             	mov    -0x4(%rbp),%edx
   129d7:	48 8d 35 39 1a 00 00 	lea    0x1a39(%rip),%rsi        # 14417 <g_1927+0x37f>
   129de:	48 89 c7             	mov    %rax,%rdi
   129e1:	e8 0d 8d ff ff       	callq  b6f3 <transparent_crc>
   129e6:	0f b7 05 cb 67 00 00 	movzwl 0x67cb(%rip),%eax        # 191b8 <g_375>
   129ed:	0f b7 c0             	movzwl %ax,%eax
   129f0:	8b 55 fc             	mov    -0x4(%rbp),%edx
   129f3:	48 8d 35 26 1a 00 00 	lea    0x1a26(%rip),%rsi        # 14420 <g_1927+0x388>
   129fa:	48 89 c7             	mov    %rax,%rdi
   129fd:	e8 f1 8c ff ff       	callq  b6f3 <transparent_crc>
   12a02:	0f b7 05 bf 67 00 00 	movzwl 0x67bf(%rip),%eax        # 191c8 <g_379>
   12a09:	0f b7 c0             	movzwl %ax,%eax
   12a0c:	8b 55 fc             	mov    -0x4(%rbp),%edx
   12a0f:	48 8d 35 13 1a 00 00 	lea    0x1a13(%rip),%rsi        # 14429 <g_1927+0x391>
   12a16:	48 89 c7             	mov    %rax,%rdi
   12a19:	e8 d5 8c ff ff       	callq  b6f3 <transparent_crc>
   12a1e:	0f b7 05 ab 67 00 00 	movzwl 0x67ab(%rip),%eax        # 191d0 <g_380>
   12a25:	0f b7 c0             	movzwl %ax,%eax
   12a28:	8b 55 fc             	mov    -0x4(%rbp),%edx
   12a2b:	48 8d 35 00 1a 00 00 	lea    0x1a00(%rip),%rsi        # 14432 <g_1927+0x39a>
   12a32:	48 89 c7             	mov    %rax,%rdi
   12a35:	e8 b9 8c ff ff       	callq  b6f3 <transparent_crc>
   12a3a:	c7 45 f0 00 00 00 00 	movl   $0x0,-0x10(%rbp)
   12a41:	eb 4d                	jmp    12a90 <main+0x1058>
   12a43:	8b 45 f0             	mov    -0x10(%rbp),%eax
   12a46:	48 98                	cltq   
   12a48:	48 8d 14 c5 00 00 00 	lea    0x0(,%rax,8),%rdx
   12a4f:	00 
   12a50:	48 8d 05 89 67 00 00 	lea    0x6789(%rip),%rax        # 191e0 <g_381>
   12a57:	0f b7 04 02          	movzwl (%rdx,%rax,1),%eax
   12a5b:	0f b7 c0             	movzwl %ax,%eax
   12a5e:	8b 55 fc             	mov    -0x4(%rbp),%edx
   12a61:	48 8d 35 d3 19 00 00 	lea    0x19d3(%rip),%rsi        # 1443b <g_1927+0x3a3>
   12a68:	48 89 c7             	mov    %rax,%rdi
   12a6b:	e8 83 8c ff ff       	callq  b6f3 <transparent_crc>
   12a70:	83 7d fc 00          	cmpl   $0x0,-0x4(%rbp)
   12a74:	74 16                	je     12a8c <main+0x1054>
   12a76:	8b 45 f0             	mov    -0x10(%rbp),%eax
   12a79:	89 c6                	mov    %eax,%esi
   12a7b:	48 8d 3d 5f 16 00 00 	lea    0x165f(%rip),%rdi        # 140e1 <g_1927+0x49>
   12a82:	b8 00 00 00 00       	mov    $0x0,%eax
   12a87:	e8 f4 75 ff ff       	callq  a080 <printf@plt>
   12a8c:	83 45 f0 01          	addl   $0x1,-0x10(%rbp)
   12a90:	83 7d f0 03          	cmpl   $0x3,-0x10(%rbp)
   12a94:	7e ad                	jle    12a43 <main+0x100b>
   12a96:	0f b7 05 63 67 00 00 	movzwl 0x6763(%rip),%eax        # 19200 <g_382>
   12a9d:	0f b7 c0             	movzwl %ax,%eax
   12aa0:	8b 55 fc             	mov    -0x4(%rbp),%edx
   12aa3:	48 8d 35 9d 19 00 00 	lea    0x199d(%rip),%rsi        # 14447 <g_1927+0x3af>
   12aaa:	48 89 c7             	mov    %rax,%rdi
   12aad:	e8 41 8c ff ff       	callq  b6f3 <transparent_crc>
   12ab2:	0f b7 05 4f 67 00 00 	movzwl 0x674f(%rip),%eax        # 19208 <g_383>
   12ab9:	0f b7 c0             	movzwl %ax,%eax
   12abc:	8b 55 fc             	mov    -0x4(%rbp),%edx
   12abf:	48 8d 35 8a 19 00 00 	lea    0x198a(%rip),%rsi        # 14450 <g_1927+0x3b8>
   12ac6:	48 89 c7             	mov    %rax,%rdi
   12ac9:	e8 25 8c ff ff       	callq  b6f3 <transparent_crc>
   12ace:	0f b7 05 3b 67 00 00 	movzwl 0x673b(%rip),%eax        # 19210 <g_384>
   12ad5:	0f b7 c0             	movzwl %ax,%eax
   12ad8:	8b 55 fc             	mov    -0x4(%rbp),%edx
   12adb:	48 8d 35 77 19 00 00 	lea    0x1977(%rip),%rsi        # 14459 <g_1927+0x3c1>
   12ae2:	48 89 c7             	mov    %rax,%rdi
   12ae5:	e8 09 8c ff ff       	callq  b6f3 <transparent_crc>
   12aea:	0f b7 05 27 67 00 00 	movzwl 0x6727(%rip),%eax        # 19218 <g_385>
   12af1:	0f b7 c0             	movzwl %ax,%eax
   12af4:	8b 55 fc             	mov    -0x4(%rbp),%edx
   12af7:	48 8d 35 64 19 00 00 	lea    0x1964(%rip),%rsi        # 14462 <g_1927+0x3ca>
   12afe:	48 89 c7             	mov    %rax,%rdi
   12b01:	e8 ed 8b ff ff       	callq  b6f3 <transparent_crc>
   12b06:	0f b7 05 13 67 00 00 	movzwl 0x6713(%rip),%eax        # 19220 <g_386>
   12b0d:	0f b7 c0             	movzwl %ax,%eax
   12b10:	8b 55 fc             	mov    -0x4(%rbp),%edx
   12b13:	48 8d 35 51 19 00 00 	lea    0x1951(%rip),%rsi        # 1446b <g_1927+0x3d3>
   12b1a:	48 89 c7             	mov    %rax,%rdi
   12b1d:	e8 d1 8b ff ff       	callq  b6f3 <transparent_crc>
   12b22:	0f b7 05 ff 66 00 00 	movzwl 0x66ff(%rip),%eax        # 19228 <g_387>
   12b29:	0f b7 c0             	movzwl %ax,%eax
   12b2c:	8b 55 fc             	mov    -0x4(%rbp),%edx
   12b2f:	48 8d 35 3e 19 00 00 	lea    0x193e(%rip),%rsi        # 14474 <g_1927+0x3dc>
   12b36:	48 89 c7             	mov    %rax,%rdi
   12b39:	e8 b5 8b ff ff       	callq  b6f3 <transparent_crc>
   12b3e:	0f b7 05 eb 66 00 00 	movzwl 0x66eb(%rip),%eax        # 19230 <g_388>
   12b45:	0f b7 c0             	movzwl %ax,%eax
   12b48:	8b 55 fc             	mov    -0x4(%rbp),%edx
   12b4b:	48 8d 35 2b 19 00 00 	lea    0x192b(%rip),%rsi        # 1447d <g_1927+0x3e5>
   12b52:	48 89 c7             	mov    %rax,%rdi
   12b55:	e8 99 8b ff ff       	callq  b6f3 <transparent_crc>
   12b5a:	0f b7 05 d7 66 00 00 	movzwl 0x66d7(%rip),%eax        # 19238 <g_389>
   12b61:	0f b7 c0             	movzwl %ax,%eax
   12b64:	8b 55 fc             	mov    -0x4(%rbp),%edx
   12b67:	48 8d 35 18 19 00 00 	lea    0x1918(%rip),%rsi        # 14486 <g_1927+0x3ee>
   12b6e:	48 89 c7             	mov    %rax,%rdi
   12b71:	e8 7d 8b ff ff       	callq  b6f3 <transparent_crc>
   12b76:	0f b7 05 c3 66 00 00 	movzwl 0x66c3(%rip),%eax        # 19240 <g_390>
   12b7d:	0f b7 c0             	movzwl %ax,%eax
   12b80:	8b 55 fc             	mov    -0x4(%rbp),%edx
   12b83:	48 8d 35 05 19 00 00 	lea    0x1905(%rip),%rsi        # 1448f <g_1927+0x3f7>
   12b8a:	48 89 c7             	mov    %rax,%rdi
   12b8d:	e8 61 8b ff ff       	callq  b6f3 <transparent_crc>
   12b92:	0f b7 05 af 66 00 00 	movzwl 0x66af(%rip),%eax        # 19248 <g_391>
   12b99:	0f b7 c0             	movzwl %ax,%eax
   12b9c:	8b 55 fc             	mov    -0x4(%rbp),%edx
   12b9f:	48 8d 35 f2 18 00 00 	lea    0x18f2(%rip),%rsi        # 14498 <g_1927+0x400>
   12ba6:	48 89 c7             	mov    %rax,%rdi
   12ba9:	e8 45 8b ff ff       	callq  b6f3 <transparent_crc>
   12bae:	0f b7 05 9b 66 00 00 	movzwl 0x669b(%rip),%eax        # 19250 <g_392>
   12bb5:	0f b7 c0             	movzwl %ax,%eax
   12bb8:	8b 55 fc             	mov    -0x4(%rbp),%edx
   12bbb:	48 8d 35 df 18 00 00 	lea    0x18df(%rip),%rsi        # 144a1 <g_1927+0x409>
   12bc2:	48 89 c7             	mov    %rax,%rdi
   12bc5:	e8 29 8b ff ff       	callq  b6f3 <transparent_crc>
   12bca:	c7 45 f0 00 00 00 00 	movl   $0x0,-0x10(%rbp)
   12bd1:	eb 76                	jmp    12c49 <main+0x1211>
   12bd3:	c7 45 f4 00 00 00 00 	movl   $0x0,-0xc(%rbp)
   12bda:	eb 63                	jmp    12c3f <main+0x1207>
   12bdc:	8b 45 f4             	mov    -0xc(%rbp),%eax
   12bdf:	48 63 c8             	movslq %eax,%rcx
   12be2:	8b 45 f0             	mov    -0x10(%rbp),%eax
   12be5:	48 63 d0             	movslq %eax,%rdx
   12be8:	48 89 d0             	mov    %rdx,%rax
   12beb:	48 01 c0             	add    %rax,%rax
   12bee:	48 01 d0             	add    %rdx,%rax
   12bf1:	48 01 c8             	add    %rcx,%rax
   12bf4:	48 8d 14 c5 00 00 00 	lea    0x0(,%rax,8),%rdx
   12bfb:	00 
   12bfc:	48 8d 05 5d 66 00 00 	lea    0x665d(%rip),%rax        # 19260 <g_393>
   12c03:	0f b7 04 02          	movzwl (%rdx,%rax,1),%eax
   12c07:	0f b7 c0             	movzwl %ax,%eax
   12c0a:	8b 55 fc             	mov    -0x4(%rbp),%edx
   12c0d:	48 8d 35 96 18 00 00 	lea    0x1896(%rip),%rsi        # 144aa <g_1927+0x412>
   12c14:	48 89 c7             	mov    %rax,%rdi
   12c17:	e8 d7 8a ff ff       	callq  b6f3 <transparent_crc>
   12c1c:	83 7d fc 00          	cmpl   $0x0,-0x4(%rbp)
   12c20:	74 19                	je     12c3b <main+0x1203>
   12c22:	8b 55 f4             	mov    -0xc(%rbp),%edx
   12c25:	8b 45 f0             	mov    -0x10(%rbp),%eax
   12c28:	89 c6                	mov    %eax,%esi
   12c2a:	48 8d 3d 27 15 00 00 	lea    0x1527(%rip),%rdi        # 14158 <g_1927+0xc0>
   12c31:	b8 00 00 00 00       	mov    $0x0,%eax
   12c36:	e8 45 74 ff ff       	callq  a080 <printf@plt>
   12c3b:	83 45 f4 01          	addl   $0x1,-0xc(%rbp)
   12c3f:	83 7d f4 02          	cmpl   $0x2,-0xc(%rbp)
   12c43:	7e 97                	jle    12bdc <main+0x11a4>
   12c45:	83 45 f0 01          	addl   $0x1,-0x10(%rbp)
   12c49:	83 7d f0 04          	cmpl   $0x4,-0x10(%rbp)
   12c4d:	7e 84                	jle    12bd3 <main+0x119b>
   12c4f:	0f b7 05 82 66 00 00 	movzwl 0x6682(%rip),%eax        # 192d8 <g_394>
   12c56:	0f b7 c0             	movzwl %ax,%eax
   12c59:	8b 55 fc             	mov    -0x4(%rbp),%edx
   12c5c:	48 8d 35 56 18 00 00 	lea    0x1856(%rip),%rsi        # 144b9 <g_1927+0x421>
   12c63:	48 89 c7             	mov    %rax,%rdi
   12c66:	e8 88 8a ff ff       	callq  b6f3 <transparent_crc>
   12c6b:	0f b7 05 6e 66 00 00 	movzwl 0x666e(%rip),%eax        # 192e0 <g_395>
   12c72:	0f b7 c0             	movzwl %ax,%eax
   12c75:	8b 55 fc             	mov    -0x4(%rbp),%edx
   12c78:	48 8d 35 43 18 00 00 	lea    0x1843(%rip),%rsi        # 144c2 <g_1927+0x42a>
   12c7f:	48 89 c7             	mov    %rax,%rdi
   12c82:	e8 6c 8a ff ff       	callq  b6f3 <transparent_crc>
   12c87:	0f b7 05 5a 66 00 00 	movzwl 0x665a(%rip),%eax        # 192e8 <g_396>
   12c8e:	0f b7 c0             	movzwl %ax,%eax
   12c91:	8b 55 fc             	mov    -0x4(%rbp),%edx
   12c94:	48 8d 35 30 18 00 00 	lea    0x1830(%rip),%rsi        # 144cb <g_1927+0x433>
   12c9b:	48 89 c7             	mov    %rax,%rdi
   12c9e:	e8 50 8a ff ff       	callq  b6f3 <transparent_crc>
   12ca3:	c7 45 f0 00 00 00 00 	movl   $0x0,-0x10(%rbp)
   12caa:	eb 6c                	jmp    12d18 <main+0x12e0>
   12cac:	c7 45 f4 00 00 00 00 	movl   $0x0,-0xc(%rbp)
   12cb3:	eb 59                	jmp    12d0e <main+0x12d6>
   12cb5:	8b 45 f4             	mov    -0xc(%rbp),%eax
   12cb8:	48 98                	cltq   
   12cba:	8b 55 f0             	mov    -0x10(%rbp),%edx
   12cbd:	48 63 d2             	movslq %edx,%rdx
   12cc0:	48 01 d2             	add    %rdx,%rdx
   12cc3:	48 01 d0             	add    %rdx,%rax
   12cc6:	48 8d 14 c5 00 00 00 	lea    0x0(,%rax,8),%rdx
   12ccd:	00 
   12cce:	48 8d 05 2b 66 00 00 	lea    0x662b(%rip),%rax        # 19300 <g_443>
   12cd5:	48 8b 04 02          	mov    (%rdx,%rax,1),%rax
   12cd9:	8b 55 fc             	mov    -0x4(%rbp),%edx
   12cdc:	48 8d 35 f1 17 00 00 	lea    0x17f1(%rip),%rsi        # 144d4 <g_1927+0x43c>
   12ce3:	48 89 c7             	mov    %rax,%rdi
   12ce6:	e8 08 8a ff ff       	callq  b6f3 <transparent_crc>
   12ceb:	83 7d fc 00          	cmpl   $0x0,-0x4(%rbp)
   12cef:	74 19                	je     12d0a <main+0x12d2>
   12cf1:	8b 55 f4             	mov    -0xc(%rbp),%edx
   12cf4:	8b 45 f0             	mov    -0x10(%rbp),%eax
   12cf7:	89 c6                	mov    %eax,%esi
   12cf9:	48 8d 3d 58 14 00 00 	lea    0x1458(%rip),%rdi        # 14158 <g_1927+0xc0>
   12d00:	b8 00 00 00 00       	mov    $0x0,%eax
   12d05:	e8 76 73 ff ff       	callq  a080 <printf@plt>
   12d0a:	83 45 f4 01          	addl   $0x1,-0xc(%rbp)
   12d0e:	83 7d f4 01          	cmpl   $0x1,-0xc(%rbp)
   12d12:	7e a1                	jle    12cb5 <main+0x127d>
   12d14:	83 45 f0 01          	addl   $0x1,-0x10(%rbp)
   12d18:	83 7d f0 03          	cmpl   $0x3,-0x10(%rbp)
   12d1c:	7e 8e                	jle    12cac <main+0x1274>
   12d1e:	8b 05 1c 66 00 00    	mov    0x661c(%rip),%eax        # 19340 <g_470>
   12d24:	48 98                	cltq   
   12d26:	8b 55 fc             	mov    -0x4(%rbp),%edx
   12d29:	48 8d 35 b0 17 00 00 	lea    0x17b0(%rip),%rsi        # 144e0 <g_1927+0x448>
   12d30:	48 89 c7             	mov    %rax,%rdi
   12d33:	e8 bb 89 ff ff       	callq  b6f3 <transparent_crc>
   12d38:	8b 05 02 66 00 00    	mov    0x6602(%rip),%eax        # 19340 <g_470>
   12d3e:	89 c1                	mov    %eax,%ecx
   12d40:	8b 45 fc             	mov    -0x4(%rbp),%eax
   12d43:	89 c2                	mov    %eax,%edx
   12d45:	48 8d 35 9d 17 00 00 	lea    0x179d(%rip),%rsi        # 144e9 <g_1927+0x451>
   12d4c:	48 89 cf             	mov    %rcx,%rdi
   12d4f:	e8 9f 89 ff ff       	callq  b6f3 <transparent_crc>
   12d54:	c7 45 f0 00 00 00 00 	movl   $0x0,-0x10(%rbp)
   12d5b:	eb 4b                	jmp    12da8 <main+0x1370>
   12d5d:	8b 45 f0             	mov    -0x10(%rbp),%eax
   12d60:	48 98                	cltq   
   12d62:	48 8d 14 85 00 00 00 	lea    0x0(,%rax,4),%rdx
   12d69:	00 
   12d6a:	48 8d 05 d7 65 00 00 	lea    0x65d7(%rip),%rax        # 19348 <g_503>
   12d71:	8b 04 02             	mov    (%rdx,%rax,1),%eax
   12d74:	48 98                	cltq   
   12d76:	8b 55 fc             	mov    -0x4(%rbp),%edx
   12d79:	48 8d 35 72 17 00 00 	lea    0x1772(%rip),%rsi        # 144f2 <g_1927+0x45a>
   12d80:	48 89 c7             	mov    %rax,%rdi
   12d83:	e8 6b 89 ff ff       	callq  b6f3 <transparent_crc>
   12d88:	83 7d fc 00          	cmpl   $0x0,-0x4(%rbp)
   12d8c:	74 16                	je     12da4 <main+0x136c>
   12d8e:	8b 45 f0             	mov    -0x10(%rbp),%eax
   12d91:	89 c6                	mov    %eax,%esi
   12d93:	48 8d 3d 47 13 00 00 	lea    0x1347(%rip),%rdi        # 140e1 <g_1927+0x49>
   12d9a:	b8 00 00 00 00       	mov    $0x0,%eax
   12d9f:	e8 dc 72 ff ff       	callq  a080 <printf@plt>
   12da4:	83 45 f0 01          	addl   $0x1,-0x10(%rbp)
   12da8:	83 7d f0 02          	cmpl   $0x2,-0x10(%rbp)
   12dac:	7e af                	jle    12d5d <main+0x1325>
   12dae:	0f b6 05 9f 65 00 00 	movzbl 0x659f(%rip),%eax        # 19354 <g_567>
   12db5:	0f b6 c0             	movzbl %al,%eax
   12db8:	8b 55 fc             	mov    -0x4(%rbp),%edx
   12dbb:	48 8d 35 39 17 00 00 	lea    0x1739(%rip),%rsi        # 144fb <g_1927+0x463>
   12dc2:	48 89 c7             	mov    %rax,%rdi
   12dc5:	e8 29 89 ff ff       	callq  b6f3 <transparent_crc>
   12dca:	8b 05 88 65 00 00    	mov    0x6588(%rip),%eax        # 19358 <g_614>
   12dd0:	48 98                	cltq   
   12dd2:	8b 55 fc             	mov    -0x4(%rbp),%edx
   12dd5:	48 8d 35 25 17 00 00 	lea    0x1725(%rip),%rsi        # 14501 <g_1927+0x469>
   12ddc:	48 89 c7             	mov    %rax,%rdi
   12ddf:	e8 0f 89 ff ff       	callq  b6f3 <transparent_crc>
   12de4:	b8 05 9b ff ff       	mov    $0xffff9b05,%eax
   12de9:	0f b7 c0             	movzwl %ax,%eax
   12dec:	8b 55 fc             	mov    -0x4(%rbp),%edx
   12def:	48 8d 35 11 17 00 00 	lea    0x1711(%rip),%rsi        # 14507 <g_1927+0x46f>
   12df6:	48 89 c7             	mov    %rax,%rdi
   12df9:	e8 f5 88 ff ff       	callq  b6f3 <transparent_crc>
   12dfe:	48 8b 05 5b 65 00 00 	mov    0x655b(%rip),%rax        # 19360 <g_675>
   12e05:	48 89 c1             	mov    %rax,%rcx
   12e08:	8b 45 fc             	mov    -0x4(%rbp),%eax
   12e0b:	89 c2                	mov    %eax,%edx
   12e0d:	48 8d 35 f9 16 00 00 	lea    0x16f9(%rip),%rsi        # 1450d <g_1927+0x475>
   12e14:	48 89 cf             	mov    %rcx,%rdi
   12e17:	e8 d7 88 ff ff       	callq  b6f3 <transparent_crc>
   12e1c:	8b 05 46 65 00 00    	mov    0x6546(%rip),%eax        # 19368 <g_773>
   12e22:	48 98                	cltq   
   12e24:	8b 55 fc             	mov    -0x4(%rbp),%edx
   12e27:	48 8d 35 e5 16 00 00 	lea    0x16e5(%rip),%rsi        # 14513 <g_1927+0x47b>
   12e2e:	48 89 c7             	mov    %rax,%rdi
   12e31:	e8 bd 88 ff ff       	callq  b6f3 <transparent_crc>
   12e36:	8b 05 2c 65 00 00    	mov    0x652c(%rip),%eax        # 19368 <g_773>
   12e3c:	89 c1                	mov    %eax,%ecx
   12e3e:	8b 45 fc             	mov    -0x4(%rbp),%eax
   12e41:	89 c2                	mov    %eax,%edx
   12e43:	48 8d 35 d2 16 00 00 	lea    0x16d2(%rip),%rsi        # 1451c <g_1927+0x484>
   12e4a:	48 89 cf             	mov    %rcx,%rdi
   12e4d:	e8 a1 88 ff ff       	callq  b6f3 <transparent_crc>
   12e52:	0f b7 05 17 65 00 00 	movzwl 0x6517(%rip),%eax        # 19370 <g_796>
   12e59:	48 0f bf c0          	movswq %ax,%rax
   12e5d:	8b 55 fc             	mov    -0x4(%rbp),%edx
   12e60:	48 8d 35 be 16 00 00 	lea    0x16be(%rip),%rsi        # 14525 <g_1927+0x48d>
   12e67:	48 89 c7             	mov    %rax,%rdi
   12e6a:	e8 84 88 ff ff       	callq  b6f3 <transparent_crc>
   12e6f:	48 8b 05 02 65 00 00 	mov    0x6502(%rip),%rax        # 19378 <g_798>
   12e76:	8b 55 fc             	mov    -0x4(%rbp),%edx
   12e79:	48 8d 35 ab 16 00 00 	lea    0x16ab(%rip),%rsi        # 1452b <g_1927+0x493>
   12e80:	48 89 c7             	mov    %rax,%rdi
   12e83:	e8 6b 88 ff ff       	callq  b6f3 <transparent_crc>
   12e88:	0f b7 05 f1 64 00 00 	movzwl 0x64f1(%rip),%eax        # 19380 <g_802>
   12e8f:	0f b7 c0             	movzwl %ax,%eax
   12e92:	8b 55 fc             	mov    -0x4(%rbp),%edx
   12e95:	48 8d 35 95 16 00 00 	lea    0x1695(%rip),%rsi        # 14531 <g_1927+0x499>
   12e9c:	48 89 c7             	mov    %rax,%rdi
   12e9f:	e8 4f 88 ff ff       	callq  b6f3 <transparent_crc>
   12ea4:	8b 05 de 64 00 00    	mov    0x64de(%rip),%eax        # 19388 <g_905>
   12eaa:	48 98                	cltq   
   12eac:	8b 55 fc             	mov    -0x4(%rbp),%edx
   12eaf:	48 8d 35 84 16 00 00 	lea    0x1684(%rip),%rsi        # 1453a <g_1927+0x4a2>
   12eb6:	48 89 c7             	mov    %rax,%rdi
   12eb9:	e8 35 88 ff ff       	callq  b6f3 <transparent_crc>
   12ebe:	8b 05 c4 64 00 00    	mov    0x64c4(%rip),%eax        # 19388 <g_905>
   12ec4:	89 c1                	mov    %eax,%ecx
   12ec6:	8b 45 fc             	mov    -0x4(%rbp),%eax
   12ec9:	89 c2                	mov    %eax,%edx
   12ecb:	48 8d 35 71 16 00 00 	lea    0x1671(%rip),%rsi        # 14543 <g_1927+0x4ab>
   12ed2:	48 89 cf             	mov    %rcx,%rdi
   12ed5:	e8 19 88 ff ff       	callq  b6f3 <transparent_crc>
   12eda:	8b 05 b0 64 00 00    	mov    0x64b0(%rip),%eax        # 19390 <g_969>
   12ee0:	48 98                	cltq   
   12ee2:	8b 55 fc             	mov    -0x4(%rbp),%edx
   12ee5:	48 8d 35 60 16 00 00 	lea    0x1660(%rip),%rsi        # 1454c <g_1927+0x4b4>
   12eec:	48 89 c7             	mov    %rax,%rdi
   12eef:	e8 ff 87 ff ff       	callq  b6f3 <transparent_crc>
   12ef4:	8b 05 96 64 00 00    	mov    0x6496(%rip),%eax        # 19390 <g_969>
   12efa:	89 c1                	mov    %eax,%ecx
   12efc:	8b 45 fc             	mov    -0x4(%rbp),%eax
   12eff:	89 c2                	mov    %eax,%edx
   12f01:	48 8d 35 4d 16 00 00 	lea    0x164d(%rip),%rsi        # 14555 <g_1927+0x4bd>
   12f08:	48 89 cf             	mov    %rcx,%rdi
   12f0b:	e8 e3 87 ff ff       	callq  b6f3 <transparent_crc>
   12f10:	8b 05 82 64 00 00    	mov    0x6482(%rip),%eax        # 19398 <g_983>
   12f16:	48 98                	cltq   
   12f18:	8b 55 fc             	mov    -0x4(%rbp),%edx
   12f1b:	48 8d 35 3c 16 00 00 	lea    0x163c(%rip),%rsi        # 1455e <g_1927+0x4c6>
   12f22:	48 89 c7             	mov    %rax,%rdi
   12f25:	e8 c9 87 ff ff       	callq  b6f3 <transparent_crc>
   12f2a:	8b 05 68 64 00 00    	mov    0x6468(%rip),%eax        # 19398 <g_983>
   12f30:	89 c1                	mov    %eax,%ecx
   12f32:	8b 45 fc             	mov    -0x4(%rbp),%eax
   12f35:	89 c2                	mov    %eax,%edx
   12f37:	48 8d 35 29 16 00 00 	lea    0x1629(%rip),%rsi        # 14567 <g_1927+0x4cf>
   12f3e:	48 89 cf             	mov    %rcx,%rdi
   12f41:	e8 ad 87 ff ff       	callq  b6f3 <transparent_crc>
   12f46:	8b 05 8c ae 00 00    	mov    0xae8c(%rip),%eax        # 1ddd8 <g_1003>
   12f4c:	48 98                	cltq   
   12f4e:	8b 55 fc             	mov    -0x4(%rbp),%edx
   12f51:	48 8d 35 18 16 00 00 	lea    0x1618(%rip),%rsi        # 14570 <g_1927+0x4d8>
   12f58:	48 89 c7             	mov    %rax,%rdi
   12f5b:	e8 93 87 ff ff       	callq  b6f3 <transparent_crc>
   12f60:	c7 45 f0 00 00 00 00 	movl   $0x0,-0x10(%rbp)
   12f67:	e9 fa 00 00 00       	jmpq   13066 <main+0x162e>
   12f6c:	c7 45 f4 00 00 00 00 	movl   $0x0,-0xc(%rbp)
   12f73:	e9 e0 00 00 00       	jmpq   13058 <main+0x1620>
   12f78:	c7 45 f8 00 00 00 00 	movl   $0x0,-0x8(%rbp)
   12f7f:	e9 c6 00 00 00       	jmpq   1304a <main+0x1612>
   12f84:	8b 45 f8             	mov    -0x8(%rbp),%eax
   12f87:	48 63 c8             	movslq %eax,%rcx
   12f8a:	8b 45 f0             	mov    -0x10(%rbp),%eax
   12f8d:	48 63 d0             	movslq %eax,%rdx
   12f90:	8b 45 f4             	mov    -0xc(%rbp),%eax
   12f93:	48 63 f0             	movslq %eax,%rsi
   12f96:	48 89 d0             	mov    %rdx,%rax
   12f99:	48 c1 e0 02          	shl    $0x2,%rax
   12f9d:	48 01 d0             	add    %rdx,%rax
   12fa0:	48 01 c0             	add    %rax,%rax
   12fa3:	48 01 f0             	add    %rsi,%rax
   12fa6:	48 c1 e0 02          	shl    $0x2,%rax
   12faa:	48 01 c8             	add    %rcx,%rax
   12fad:	48 8d 14 c5 00 00 00 	lea    0x0(,%rax,8),%rdx
   12fb4:	00 
   12fb5:	48 8d 05 e4 63 00 00 	lea    0x63e4(%rip),%rax        # 193a0 <g_1010>
   12fbc:	8b 04 02             	mov    (%rdx,%rax,1),%eax
   12fbf:	48 98                	cltq   
   12fc1:	8b 55 fc             	mov    -0x4(%rbp),%edx
   12fc4:	48 8d 35 ac 15 00 00 	lea    0x15ac(%rip),%rsi        # 14577 <g_1927+0x4df>
   12fcb:	48 89 c7             	mov    %rax,%rdi
   12fce:	e8 20 87 ff ff       	callq  b6f3 <transparent_crc>
   12fd3:	8b 45 f8             	mov    -0x8(%rbp),%eax
   12fd6:	48 63 c8             	movslq %eax,%rcx
   12fd9:	8b 45 f0             	mov    -0x10(%rbp),%eax
   12fdc:	48 63 d0             	movslq %eax,%rdx
   12fdf:	8b 45 f4             	mov    -0xc(%rbp),%eax
   12fe2:	48 63 f0             	movslq %eax,%rsi
   12fe5:	48 89 d0             	mov    %rdx,%rax
   12fe8:	48 c1 e0 02          	shl    $0x2,%rax
   12fec:	48 01 d0             	add    %rdx,%rax
   12fef:	48 01 c0             	add    %rax,%rax
   12ff2:	48 01 f0             	add    %rsi,%rax
   12ff5:	48 c1 e0 02          	shl    $0x2,%rax
   12ff9:	48 01 c8             	add    %rcx,%rax
   12ffc:	48 8d 14 c5 00 00 00 	lea    0x0(,%rax,8),%rdx
   13003:	00 
   13004:	48 8d 05 95 63 00 00 	lea    0x6395(%rip),%rax        # 193a0 <g_1010>
   1300b:	8b 04 02             	mov    (%rdx,%rax,1),%eax
   1300e:	89 c1                	mov    %eax,%ecx
   13010:	8b 45 fc             	mov    -0x4(%rbp),%eax
   13013:	89 c2                	mov    %eax,%edx
   13015:	48 8d 35 6e 15 00 00 	lea    0x156e(%rip),%rsi        # 1458a <g_1927+0x4f2>
   1301c:	48 89 cf             	mov    %rcx,%rdi
   1301f:	e8 cf 86 ff ff       	callq  b6f3 <transparent_crc>
   13024:	83 7d fc 00          	cmpl   $0x0,-0x4(%rbp)
   13028:	74 1c                	je     13046 <main+0x160e>
   1302a:	8b 4d f8             	mov    -0x8(%rbp),%ecx
   1302d:	8b 55 f4             	mov    -0xc(%rbp),%edx
   13030:	8b 45 f0             	mov    -0x10(%rbp),%eax
   13033:	89 c6                	mov    %eax,%esi
   13035:	48 8d 3d d5 12 00 00 	lea    0x12d5(%rip),%rdi        # 14311 <g_1927+0x279>
   1303c:	b8 00 00 00 00       	mov    $0x0,%eax
   13041:	e8 3a 70 ff ff       	callq  a080 <printf@plt>
   13046:	83 45 f8 01          	addl   $0x1,-0x8(%rbp)
   1304a:	83 7d f8 03          	cmpl   $0x3,-0x8(%rbp)
   1304e:	0f 8e 30 ff ff ff    	jle    12f84 <main+0x154c>
   13054:	83 45 f4 01          	addl   $0x1,-0xc(%rbp)
   13058:	83 7d f4 09          	cmpl   $0x9,-0xc(%rbp)
   1305c:	0f 8e 16 ff ff ff    	jle    12f78 <main+0x1540>
   13062:	83 45 f0 01          	addl   $0x1,-0x10(%rbp)
   13066:	83 7d f0 05          	cmpl   $0x5,-0x10(%rbp)
   1306a:	0f 8e fc fe ff ff    	jle    12f6c <main+0x1534>
   13070:	48 8b 05 69 ad 00 00 	mov    0xad69(%rip),%rax        # 1dde0 <g_1032>
   13077:	48 89 c1             	mov    %rax,%rcx
   1307a:	8b 45 fc             	mov    -0x4(%rbp),%eax
   1307d:	89 c2                	mov    %eax,%edx
   1307f:	48 8d 35 17 15 00 00 	lea    0x1517(%rip),%rsi        # 1459d <g_1927+0x505>
   13086:	48 89 cf             	mov    %rcx,%rdi
   13089:	e8 65 86 ff ff       	callq  b6f3 <transparent_crc>
   1308e:	c7 45 f0 00 00 00 00 	movl   $0x0,-0x10(%rbp)
   13095:	e9 ea 00 00 00       	jmpq   13184 <main+0x174c>
   1309a:	c7 45 f4 00 00 00 00 	movl   $0x0,-0xc(%rbp)
   130a1:	e9 d0 00 00 00       	jmpq   13176 <main+0x173e>
   130a6:	c7 45 f8 00 00 00 00 	movl   $0x0,-0x8(%rbp)
   130ad:	e9 b6 00 00 00       	jmpq   13168 <main+0x1730>
   130b2:	8b 45 f8             	mov    -0x8(%rbp),%eax
   130b5:	48 63 c8             	movslq %eax,%rcx
   130b8:	8b 45 f0             	mov    -0x10(%rbp),%eax
   130bb:	48 63 d0             	movslq %eax,%rdx
   130be:	8b 45 f4             	mov    -0xc(%rbp),%eax
   130c1:	48 98                	cltq   
   130c3:	48 01 c2             	add    %rax,%rdx
   130c6:	48 89 d0             	mov    %rdx,%rax
   130c9:	48 c1 e0 03          	shl    $0x3,%rax
   130cd:	48 29 d0             	sub    %rdx,%rax
   130d0:	48 01 c8             	add    %rcx,%rax
   130d3:	48 8d 14 c5 00 00 00 	lea    0x0(,%rax,8),%rdx
   130da:	00 
   130db:	48 8d 05 3e 6a 00 00 	lea    0x6a3e(%rip),%rax        # 19b20 <g_1059>
   130e2:	8b 04 02             	mov    (%rdx,%rax,1),%eax
   130e5:	48 98                	cltq   
   130e7:	8b 55 fc             	mov    -0x4(%rbp),%edx
   130ea:	48 8d 35 b3 14 00 00 	lea    0x14b3(%rip),%rsi        # 145a4 <g_1927+0x50c>
   130f1:	48 89 c7             	mov    %rax,%rdi
   130f4:	e8 fa 85 ff ff       	callq  b6f3 <transparent_crc>
   130f9:	8b 45 f8             	mov    -0x8(%rbp),%eax
   130fc:	48 63 c8             	movslq %eax,%rcx
   130ff:	8b 45 f0             	mov    -0x10(%rbp),%eax
   13102:	48 63 d0             	movslq %eax,%rdx
   13105:	8b 45 f4             	mov    -0xc(%rbp),%eax
   13108:	48 98                	cltq   
   1310a:	48 01 c2             	add    %rax,%rdx
   1310d:	48 89 d0             	mov    %rdx,%rax
   13110:	48 c1 e0 03          	shl    $0x3,%rax
   13114:	48 29 d0             	sub    %rdx,%rax
   13117:	48 01 c8             	add    %rcx,%rax
   1311a:	48 8d 14 c5 00 00 00 	lea    0x0(,%rax,8),%rdx
   13121:	00 
   13122:	48 8d 05 f7 69 00 00 	lea    0x69f7(%rip),%rax        # 19b20 <g_1059>
   13129:	8b 04 02             	mov    (%rdx,%rax,1),%eax
   1312c:	89 c1                	mov    %eax,%ecx
   1312e:	8b 45 fc             	mov    -0x4(%rbp),%eax
   13131:	89 c2                	mov    %eax,%edx
   13133:	48 8d 35 7d 14 00 00 	lea    0x147d(%rip),%rsi        # 145b7 <g_1927+0x51f>
   1313a:	48 89 cf             	mov    %rcx,%rdi
   1313d:	e8 b1 85 ff ff       	callq  b6f3 <transparent_crc>
   13142:	83 7d fc 00          	cmpl   $0x0,-0x4(%rbp)
   13146:	74 1c                	je     13164 <main+0x172c>
   13148:	8b 4d f8             	mov    -0x8(%rbp),%ecx
   1314b:	8b 55 f4             	mov    -0xc(%rbp),%edx
   1314e:	8b 45 f0             	mov    -0x10(%rbp),%eax
   13151:	89 c6                	mov    %eax,%esi
   13153:	48 8d 3d b7 11 00 00 	lea    0x11b7(%rip),%rdi        # 14311 <g_1927+0x279>
   1315a:	b8 00 00 00 00       	mov    $0x0,%eax
   1315f:	e8 1c 6f ff ff       	callq  a080 <printf@plt>
   13164:	83 45 f8 01          	addl   $0x1,-0x8(%rbp)
   13168:	83 7d f8 06          	cmpl   $0x6,-0x8(%rbp)
   1316c:	0f 8e 40 ff ff ff    	jle    130b2 <main+0x167a>
   13172:	83 45 f4 01          	addl   $0x1,-0xc(%rbp)
   13176:	83 7d f4 00          	cmpl   $0x0,-0xc(%rbp)
   1317a:	0f 8e 26 ff ff ff    	jle    130a6 <main+0x166e>
   13180:	83 45 f0 01          	addl   $0x1,-0x10(%rbp)
   13184:	83 7d f0 06          	cmpl   $0x6,-0x10(%rbp)
   13188:	0f 8e 0c ff ff ff    	jle    1309a <main+0x1662>
   1318e:	0f b7 05 13 6b 00 00 	movzwl 0x6b13(%rip),%eax        # 19ca8 <g_1080>
   13195:	0f b7 c0             	movzwl %ax,%eax
   13198:	8b 55 fc             	mov    -0x4(%rbp),%edx
   1319b:	48 8d 35 28 14 00 00 	lea    0x1428(%rip),%rsi        # 145ca <g_1927+0x532>
   131a2:	48 89 c7             	mov    %rax,%rdi
   131a5:	e8 49 85 ff ff       	callq  b6f3 <transparent_crc>
   131aa:	0f b7 05 ff 6a 00 00 	movzwl 0x6aff(%rip),%eax        # 19cb0 <g_1101>
   131b1:	0f b7 c0             	movzwl %ax,%eax
   131b4:	8b 55 fc             	mov    -0x4(%rbp),%edx
   131b7:	48 8d 35 16 14 00 00 	lea    0x1416(%rip),%rsi        # 145d4 <g_1927+0x53c>
   131be:	48 89 c7             	mov    %rax,%rdi
   131c1:	e8 2d 85 ff ff       	callq  b6f3 <transparent_crc>
   131c6:	8b 05 ec 6a 00 00    	mov    0x6aec(%rip),%eax        # 19cb8 <g_1105>
   131cc:	48 98                	cltq   
   131ce:	8b 55 fc             	mov    -0x4(%rbp),%edx
   131d1:	48 8d 35 06 14 00 00 	lea    0x1406(%rip),%rsi        # 145de <g_1927+0x546>
   131d8:	48 89 c7             	mov    %rax,%rdi
   131db:	e8 13 85 ff ff       	callq  b6f3 <transparent_crc>
   131e0:	0f b7 05 d9 6a 00 00 	movzwl 0x6ad9(%rip),%eax        # 19cc0 <g_1178>
   131e7:	0f b7 c0             	movzwl %ax,%eax
   131ea:	8b 55 fc             	mov    -0x4(%rbp),%edx
   131ed:	48 8d 35 f1 13 00 00 	lea    0x13f1(%rip),%rsi        # 145e5 <g_1927+0x54d>
   131f4:	48 89 c7             	mov    %rax,%rdi
   131f7:	e8 f7 84 ff ff       	callq  b6f3 <transparent_crc>
   131fc:	0f b7 05 f5 ab 00 00 	movzwl 0xabf5(%rip),%eax        # 1ddf8 <g_1222>
   13203:	0f b7 c0             	movzwl %ax,%eax
   13206:	8b 55 fc             	mov    -0x4(%rbp),%edx
   13209:	48 8d 35 df 13 00 00 	lea    0x13df(%rip),%rsi        # 145ef <g_1927+0x557>
   13210:	48 89 c7             	mov    %rax,%rdi
   13213:	e8 db 84 ff ff       	callq  b6f3 <transparent_crc>
   13218:	8b 05 aa 6a 00 00    	mov    0x6aaa(%rip),%eax        # 19cc8 <g_1333>
   1321e:	89 c1                	mov    %eax,%ecx
   13220:	8b 45 fc             	mov    -0x4(%rbp),%eax
   13223:	89 c2                	mov    %eax,%edx
   13225:	48 8d 35 cd 13 00 00 	lea    0x13cd(%rip),%rsi        # 145f9 <g_1927+0x561>
   1322c:	48 89 cf             	mov    %rcx,%rdi
   1322f:	e8 bf 84 ff ff       	callq  b6f3 <transparent_crc>
   13234:	0f b7 05 95 6a 00 00 	movzwl 0x6a95(%rip),%eax        # 19cd0 <g_1354>
   1323b:	0f b7 c0             	movzwl %ax,%eax
   1323e:	8b 55 fc             	mov    -0x4(%rbp),%edx
   13241:	48 8d 35 b8 13 00 00 	lea    0x13b8(%rip),%rsi        # 14600 <g_1927+0x568>
   13248:	48 89 c7             	mov    %rax,%rdi
   1324b:	e8 a3 84 ff ff       	callq  b6f3 <transparent_crc>
   13250:	c7 45 f0 00 00 00 00 	movl   $0x0,-0x10(%rbp)
   13257:	eb 46                	jmp    1329f <main+0x1867>
   13259:	8b 45 f0             	mov    -0x10(%rbp),%eax
   1325c:	48 98                	cltq   
   1325e:	48 8d 15 73 6a 00 00 	lea    0x6a73(%rip),%rdx        # 19cd8 <g_1376>
   13265:	0f b6 04 10          	movzbl (%rax,%rdx,1),%eax
   13269:	48 0f be c0          	movsbq %al,%rax
   1326d:	8b 55 fc             	mov    -0x4(%rbp),%edx
   13270:	48 8d 35 93 13 00 00 	lea    0x1393(%rip),%rsi        # 1460a <g_1927+0x572>
   13277:	48 89 c7             	mov    %rax,%rdi
   1327a:	e8 74 84 ff ff       	callq  b6f3 <transparent_crc>
   1327f:	83 7d fc 00          	cmpl   $0x0,-0x4(%rbp)
   13283:	74 16                	je     1329b <main+0x1863>
   13285:	8b 45 f0             	mov    -0x10(%rbp),%eax
   13288:	89 c6                	mov    %eax,%esi
   1328a:	48 8d 3d 50 0e 00 00 	lea    0xe50(%rip),%rdi        # 140e1 <g_1927+0x49>
   13291:	b8 00 00 00 00       	mov    $0x0,%eax
   13296:	e8 e5 6d ff ff       	callq  a080 <printf@plt>
   1329b:	83 45 f0 01          	addl   $0x1,-0x10(%rbp)
   1329f:	83 7d f0 08          	cmpl   $0x8,-0x10(%rbp)
   132a3:	7e b4                	jle    13259 <main+0x1821>
   132a5:	c7 45 f0 00 00 00 00 	movl   $0x0,-0x10(%rbp)
   132ac:	e9 06 01 00 00       	jmpq   133b7 <main+0x197f>
   132b1:	c7 45 f4 00 00 00 00 	movl   $0x0,-0xc(%rbp)
   132b8:	e9 ec 00 00 00       	jmpq   133a9 <main+0x1971>
   132bd:	c7 45 f8 00 00 00 00 	movl   $0x0,-0x8(%rbp)
   132c4:	e9 d2 00 00 00       	jmpq   1339b <main+0x1963>
   132c9:	8b 45 f8             	mov    -0x8(%rbp),%eax
   132cc:	48 63 f0             	movslq %eax,%rsi
   132cf:	8b 45 f0             	mov    -0x10(%rbp),%eax
   132d2:	48 63 d0             	movslq %eax,%rdx
   132d5:	8b 45 f4             	mov    -0xc(%rbp),%eax
   132d8:	48 63 c8             	movslq %eax,%rcx
   132db:	48 89 d0             	mov    %rdx,%rax
   132de:	48 c1 e0 03          	shl    $0x3,%rax
   132e2:	48 01 d0             	add    %rdx,%rax
   132e5:	48 01 c0             	add    %rax,%rax
   132e8:	48 89 ca             	mov    %rcx,%rdx
   132eb:	48 c1 e2 03          	shl    $0x3,%rdx
   132ef:	48 01 ca             	add    %rcx,%rdx
   132f2:	48 01 d0             	add    %rdx,%rax
   132f5:	48 01 f0             	add    %rsi,%rax
   132f8:	48 8d 14 c5 00 00 00 	lea    0x0(,%rax,8),%rdx
   132ff:	00 
   13300:	48 8d 05 f9 69 00 00 	lea    0x69f9(%rip),%rax        # 19d00 <g_1397>
   13307:	8b 04 02             	mov    (%rdx,%rax,1),%eax
   1330a:	48 98                	cltq   
   1330c:	8b 55 fc             	mov    -0x4(%rbp),%edx
   1330f:	48 8d 35 fe 12 00 00 	lea    0x12fe(%rip),%rsi        # 14614 <g_1927+0x57c>
   13316:	48 89 c7             	mov    %rax,%rdi
   13319:	e8 d5 83 ff ff       	callq  b6f3 <transparent_crc>
   1331e:	8b 45 f8             	mov    -0x8(%rbp),%eax
   13321:	48 63 f0             	movslq %eax,%rsi
   13324:	8b 45 f0             	mov    -0x10(%rbp),%eax
   13327:	48 63 d0             	movslq %eax,%rdx
   1332a:	8b 45 f4             	mov    -0xc(%rbp),%eax
   1332d:	48 63 c8             	movslq %eax,%rcx
   13330:	48 89 d0             	mov    %rdx,%rax
   13333:	48 c1 e0 03          	shl    $0x3,%rax
   13337:	48 01 d0             	add    %rdx,%rax
   1333a:	48 01 c0             	add    %rax,%rax
   1333d:	48 89 ca             	mov    %rcx,%rdx
   13340:	48 c1 e2 03          	shl    $0x3,%rdx
   13344:	48 01 ca             	add    %rcx,%rdx
   13347:	48 01 d0             	add    %rdx,%rax
   1334a:	48 01 f0             	add    %rsi,%rax
   1334d:	48 8d 14 c5 00 00 00 	lea    0x0(,%rax,8),%rdx
   13354:	00 
   13355:	48 8d 05 a4 69 00 00 	lea    0x69a4(%rip),%rax        # 19d00 <g_1397>
   1335c:	8b 04 02             	mov    (%rdx,%rax,1),%eax
   1335f:	89 c1                	mov    %eax,%ecx
   13361:	8b 45 fc             	mov    -0x4(%rbp),%eax
   13364:	89 c2                	mov    %eax,%edx
   13366:	48 8d 35 ba 12 00 00 	lea    0x12ba(%rip),%rsi        # 14627 <g_1927+0x58f>
   1336d:	48 89 cf             	mov    %rcx,%rdi
   13370:	e8 7e 83 ff ff       	callq  b6f3 <transparent_crc>
   13375:	83 7d fc 00          	cmpl   $0x0,-0x4(%rbp)
   13379:	74 1c                	je     13397 <main+0x195f>
   1337b:	8b 4d f8             	mov    -0x8(%rbp),%ecx
   1337e:	8b 55 f4             	mov    -0xc(%rbp),%edx
   13381:	8b 45 f0             	mov    -0x10(%rbp),%eax
   13384:	89 c6                	mov    %eax,%esi
   13386:	48 8d 3d 84 0f 00 00 	lea    0xf84(%rip),%rdi        # 14311 <g_1927+0x279>
   1338d:	b8 00 00 00 00       	mov    $0x0,%eax
   13392:	e8 e9 6c ff ff       	callq  a080 <printf@plt>
   13397:	83 45 f8 01          	addl   $0x1,-0x8(%rbp)
   1339b:	83 7d f8 08          	cmpl   $0x8,-0x8(%rbp)
   1339f:	0f 8e 24 ff ff ff    	jle    132c9 <main+0x1891>
   133a5:	83 45 f4 01          	addl   $0x1,-0xc(%rbp)
   133a9:	83 7d f4 01          	cmpl   $0x1,-0xc(%rbp)
   133ad:	0f 8e 0a ff ff ff    	jle    132bd <main+0x1885>
   133b3:	83 45 f0 01          	addl   $0x1,-0x10(%rbp)
   133b7:	83 7d f0 03          	cmpl   $0x3,-0x10(%rbp)
   133bb:	0f 8e f0 fe ff ff    	jle    132b1 <main+0x1879>
   133c1:	0f b7 05 78 6b 00 00 	movzwl 0x6b78(%rip),%eax        # 19f40 <g_1421>
   133c8:	0f b7 c0             	movzwl %ax,%eax
   133cb:	8b 55 fc             	mov    -0x4(%rbp),%edx
   133ce:	48 8d 35 65 12 00 00 	lea    0x1265(%rip),%rsi        # 1463a <g_1927+0x5a2>
   133d5:	48 89 c7             	mov    %rax,%rdi
   133d8:	e8 16 83 ff ff       	callq  b6f3 <transparent_crc>
   133dd:	48 8b 05 34 aa 00 00 	mov    0xaa34(%rip),%rax        # 1de18 <g_1480>
   133e4:	8b 55 fc             	mov    -0x4(%rbp),%edx
   133e7:	48 8d 35 56 12 00 00 	lea    0x1256(%rip),%rsi        # 14644 <g_1927+0x5ac>
   133ee:	48 89 c7             	mov    %rax,%rdi
   133f1:	e8 fd 82 ff ff       	callq  b6f3 <transparent_crc>
   133f6:	b8 f4 a2 ba d6       	mov    $0xd6baa2f4,%eax
   133fb:	48 98                	cltq   
   133fd:	8b 55 fc             	mov    -0x4(%rbp),%edx
   13400:	48 8d 35 44 12 00 00 	lea    0x1244(%rip),%rsi        # 1464b <g_1927+0x5b3>
   13407:	48 89 c7             	mov    %rax,%rdi
   1340a:	e8 e4 82 ff ff       	callq  b6f3 <transparent_crc>
   1340f:	c7 45 f0 00 00 00 00 	movl   $0x0,-0x10(%rbp)
   13416:	eb 4b                	jmp    13463 <main+0x1a2b>
   13418:	8b 45 f0             	mov    -0x10(%rbp),%eax
   1341b:	48 98                	cltq   
   1341d:	48 8d 14 85 00 00 00 	lea    0x0(,%rax,4),%rdx
   13424:	00 
   13425:	48 8d 05 34 0c 00 00 	lea    0xc34(%rip),%rax        # 14060 <g_1512>
   1342c:	8b 04 02             	mov    (%rdx,%rax,1),%eax
   1342f:	48 98                	cltq   
   13431:	8b 55 fc             	mov    -0x4(%rbp),%edx
   13434:	48 8d 35 17 12 00 00 	lea    0x1217(%rip),%rsi        # 14652 <g_1927+0x5ba>
   1343b:	48 89 c7             	mov    %rax,%rdi
   1343e:	e8 b0 82 ff ff       	callq  b6f3 <transparent_crc>
   13443:	83 7d fc 00          	cmpl   $0x0,-0x4(%rbp)
   13447:	74 16                	je     1345f <main+0x1a27>
   13449:	8b 45 f0             	mov    -0x10(%rbp),%eax
   1344c:	89 c6                	mov    %eax,%esi
   1344e:	48 8d 3d 8c 0c 00 00 	lea    0xc8c(%rip),%rdi        # 140e1 <g_1927+0x49>
   13455:	b8 00 00 00 00       	mov    $0x0,%eax
   1345a:	e8 21 6c ff ff       	callq  a080 <printf@plt>
   1345f:	83 45 f0 01          	addl   $0x1,-0x10(%rbp)
   13463:	83 7d f0 06          	cmpl   $0x6,-0x10(%rbp)
   13467:	7e af                	jle    13418 <main+0x19e0>
   13469:	b9 09 00 00 00       	mov    $0x9,%ecx
   1346e:	8b 45 fc             	mov    -0x4(%rbp),%eax
   13471:	89 c2                	mov    %eax,%edx
   13473:	48 8d 35 e2 11 00 00 	lea    0x11e2(%rip),%rsi        # 1465c <g_1927+0x5c4>
   1347a:	48 89 cf             	mov    %rcx,%rdi
   1347d:	e8 71 82 ff ff       	callq  b6f3 <transparent_crc>
   13482:	8b 05 c0 6a 00 00    	mov    0x6ac0(%rip),%eax        # 19f48 <g_1534>
   13488:	89 c1                	mov    %eax,%ecx
   1348a:	8b 45 fc             	mov    -0x4(%rbp),%eax
   1348d:	89 c2                	mov    %eax,%edx
   1348f:	48 8d 35 cd 11 00 00 	lea    0x11cd(%rip),%rsi        # 14663 <g_1927+0x5cb>
   13496:	48 89 cf             	mov    %rcx,%rdi
   13499:	e8 55 82 ff ff       	callq  b6f3 <transparent_crc>
   1349e:	b8 77 51 e0 77       	mov    $0x77e05177,%eax
   134a3:	48 98                	cltq   
   134a5:	8b 55 fc             	mov    -0x4(%rbp),%edx
   134a8:	48 8d 35 bb 11 00 00 	lea    0x11bb(%rip),%rsi        # 1466a <g_1927+0x5d2>
   134af:	48 89 c7             	mov    %rax,%rdi
   134b2:	e8 3c 82 ff ff       	callq  b6f3 <transparent_crc>
   134b7:	b8 77 51 e0 77       	mov    $0x77e05177,%eax
   134bc:	89 c1                	mov    %eax,%ecx
   134be:	8b 45 fc             	mov    -0x4(%rbp),%eax
   134c1:	89 c2                	mov    %eax,%edx
   134c3:	48 8d 35 aa 11 00 00 	lea    0x11aa(%rip),%rsi        # 14674 <g_1927+0x5dc>
   134ca:	48 89 cf             	mov    %rcx,%rdi
   134cd:	e8 21 82 ff ff       	callq  b6f3 <transparent_crc>
   134d2:	0f b7 05 77 6a 00 00 	movzwl 0x6a77(%rip),%eax        # 19f50 <g_1600>
   134d9:	0f b7 c0             	movzwl %ax,%eax
   134dc:	8b 55 fc             	mov    -0x4(%rbp),%edx
   134df:	48 8d 35 98 11 00 00 	lea    0x1198(%rip),%rsi        # 1467e <g_1927+0x5e6>
   134e6:	48 89 c7             	mov    %rax,%rdi
   134e9:	e8 05 82 ff ff       	callq  b6f3 <transparent_crc>
   134ee:	c7 45 f0 00 00 00 00 	movl   $0x0,-0x10(%rbp)
   134f5:	e9 a2 00 00 00       	jmpq   1359c <main+0x1b64>
   134fa:	c7 45 f4 00 00 00 00 	movl   $0x0,-0xc(%rbp)
   13501:	e9 88 00 00 00       	jmpq   1358e <main+0x1b56>
   13506:	c7 45 f8 00 00 00 00 	movl   $0x0,-0x8(%rbp)
   1350d:	eb 75                	jmp    13584 <main+0x1b4c>
   1350f:	8b 45 f8             	mov    -0x8(%rbp),%eax
   13512:	48 63 c8             	movslq %eax,%rcx
   13515:	8b 45 f0             	mov    -0x10(%rbp),%eax
   13518:	48 98                	cltq   
   1351a:	8b 55 f4             	mov    -0xc(%rbp),%edx
   1351d:	48 63 d2             	movslq %edx,%rdx
   13520:	48 6b f0 5a          	imul   $0x5a,%rax,%rsi
   13524:	48 89 d0             	mov    %rdx,%rax
   13527:	48 c1 e0 03          	shl    $0x3,%rax
   1352b:	48 01 d0             	add    %rdx,%rax
   1352e:	48 01 f0             	add    %rsi,%rax
   13531:	48 01 c8             	add    %rcx,%rax
   13534:	48 8d 14 c5 00 00 00 	lea    0x0(,%rax,8),%rdx
   1353b:	00 
   1353c:	48 8d 05 1d 6a 00 00 	lea    0x6a1d(%rip),%rax        # 19f60 <g_1673>
   13543:	48 8b 04 02          	mov    (%rdx,%rax,1),%rax
   13547:	48 89 c1             	mov    %rax,%rcx
   1354a:	8b 45 fc             	mov    -0x4(%rbp),%eax
   1354d:	89 c2                	mov    %eax,%edx
   1354f:	48 8d 35 32 11 00 00 	lea    0x1132(%rip),%rsi        # 14688 <g_1927+0x5f0>
   13556:	48 89 cf             	mov    %rcx,%rdi
   13559:	e8 95 81 ff ff       	callq  b6f3 <transparent_crc>
   1355e:	83 7d fc 00          	cmpl   $0x0,-0x4(%rbp)
   13562:	74 1c                	je     13580 <main+0x1b48>
   13564:	8b 4d f8             	mov    -0x8(%rbp),%ecx
   13567:	8b 55 f4             	mov    -0xc(%rbp),%edx
   1356a:	8b 45 f0             	mov    -0x10(%rbp),%eax
   1356d:	89 c6                	mov    %eax,%esi
   1356f:	48 8d 3d 9b 0d 00 00 	lea    0xd9b(%rip),%rdi        # 14311 <g_1927+0x279>
   13576:	b8 00 00 00 00       	mov    $0x0,%eax
   1357b:	e8 00 6b ff ff       	callq  a080 <printf@plt>
   13580:	83 45 f8 01          	addl   $0x1,-0x8(%rbp)
   13584:	83 7d f8 08          	cmpl   $0x8,-0x8(%rbp)
   13588:	7e 85                	jle    1350f <main+0x1ad7>
   1358a:	83 45 f4 01          	addl   $0x1,-0xc(%rbp)
   1358e:	83 7d f4 09          	cmpl   $0x9,-0xc(%rbp)
   13592:	0f 8e 6e ff ff ff    	jle    13506 <main+0x1ace>
   13598:	83 45 f0 01          	addl   $0x1,-0x10(%rbp)
   1359c:	83 7d f0 00          	cmpl   $0x0,-0x10(%rbp)
   135a0:	0f 8e 54 ff ff ff    	jle    134fa <main+0x1ac2>
   135a6:	b8 f6 ba 8b 02       	mov    $0x28bbaf6,%eax
   135ab:	48 98                	cltq   
   135ad:	8b 55 fc             	mov    -0x4(%rbp),%edx
   135b0:	48 8d 35 e1 10 00 00 	lea    0x10e1(%rip),%rsi        # 14698 <g_1927+0x600>
   135b7:	48 89 c7             	mov    %rax,%rdi
   135ba:	e8 34 81 ff ff       	callq  b6f3 <transparent_crc>
   135bf:	b8 f6 ba 8b 02       	mov    $0x28bbaf6,%eax
   135c4:	89 c1                	mov    %eax,%ecx
   135c6:	8b 45 fc             	mov    -0x4(%rbp),%eax
   135c9:	89 c2                	mov    %eax,%edx
   135cb:	48 8d 35 d0 10 00 00 	lea    0x10d0(%rip),%rsi        # 146a2 <g_1927+0x60a>
   135d2:	48 89 cf             	mov    %rcx,%rdi
   135d5:	e8 19 81 ff ff       	callq  b6f3 <transparent_crc>
   135da:	c7 45 f0 00 00 00 00 	movl   $0x0,-0x10(%rbp)
   135e1:	e9 bb 00 00 00       	jmpq   136a1 <main+0x1c69>
   135e6:	c7 45 f4 00 00 00 00 	movl   $0x0,-0xc(%rbp)
   135ed:	e9 a1 00 00 00       	jmpq   13693 <main+0x1c5b>
   135f2:	c7 45 f8 00 00 00 00 	movl   $0x0,-0x8(%rbp)
   135f9:	e9 87 00 00 00       	jmpq   13685 <main+0x1c4d>
   135fe:	8b 45 f8             	mov    -0x8(%rbp),%eax
   13601:	48 63 f0             	movslq %eax,%rsi
   13604:	8b 45 f0             	mov    -0x10(%rbp),%eax
   13607:	48 98                	cltq   
   13609:	8b 55 f4             	mov    -0xc(%rbp),%edx
   1360c:	48 63 ca             	movslq %edx,%rcx
   1360f:	48 89 c2             	mov    %rax,%rdx
   13612:	48 c1 e2 02          	shl    $0x2,%rdx
   13616:	48 01 c2             	add    %rax,%rdx
   13619:	48 8d 04 95 00 00 00 	lea    0x0(,%rdx,4),%rax
   13620:	00 
   13621:	48 89 c2             	mov    %rax,%rdx
   13624:	48 89 c8             	mov    %rcx,%rax
   13627:	48 c1 e0 02          	shl    $0x2,%rax
   1362b:	48 01 c8             	add    %rcx,%rax
   1362e:	48 01 c0             	add    %rax,%rax
   13631:	48 01 d0             	add    %rdx,%rax
   13634:	48 01 f0             	add    %rsi,%rax
   13637:	48 8d 14 85 00 00 00 	lea    0x0(,%rax,4),%rdx
   1363e:	00 
   1363f:	48 8d 05 fa 6b 00 00 	lea    0x6bfa(%rip),%rax        # 1a240 <g_1875>
   13646:	8b 04 02             	mov    (%rdx,%rax,1),%eax
   13649:	89 c1                	mov    %eax,%ecx
   1364b:	8b 45 fc             	mov    -0x4(%rbp),%eax
   1364e:	89 c2                	mov    %eax,%edx
   13650:	48 8d 35 55 10 00 00 	lea    0x1055(%rip),%rsi        # 146ac <g_1927+0x614>
   13657:	48 89 cf             	mov    %rcx,%rdi
   1365a:	e8 94 80 ff ff       	callq  b6f3 <transparent_crc>
   1365f:	83 7d fc 00          	cmpl   $0x0,-0x4(%rbp)
   13663:	74 1c                	je     13681 <main+0x1c49>
   13665:	8b 4d f8             	mov    -0x8(%rbp),%ecx
   13668:	8b 55 f4             	mov    -0xc(%rbp),%edx
   1366b:	8b 45 f0             	mov    -0x10(%rbp),%eax
   1366e:	89 c6                	mov    %eax,%esi
   13670:	48 8d 3d 9a 0c 00 00 	lea    0xc9a(%rip),%rdi        # 14311 <g_1927+0x279>
   13677:	b8 00 00 00 00       	mov    $0x0,%eax
   1367c:	e8 ff 69 ff ff       	callq  a080 <printf@plt>
   13681:	83 45 f8 01          	addl   $0x1,-0x8(%rbp)
   13685:	83 7d f8 09          	cmpl   $0x9,-0x8(%rbp)
   13689:	0f 8e 6f ff ff ff    	jle    135fe <main+0x1bc6>
   1368f:	83 45 f4 01          	addl   $0x1,-0xc(%rbp)
   13693:	83 7d f4 01          	cmpl   $0x1,-0xc(%rbp)
   13697:	0f 8e 55 ff ff ff    	jle    135f2 <main+0x1bba>
   1369d:	83 45 f0 01          	addl   $0x1,-0x10(%rbp)
   136a1:	83 7d f0 03          	cmpl   $0x3,-0x10(%rbp)
   136a5:	0f 8e 3b ff ff ff    	jle    135e6 <main+0x1bae>
   136ab:	8b 05 cf 6c 00 00    	mov    0x6ccf(%rip),%eax        # 1a380 <g_1888>
   136b1:	48 98                	cltq   
   136b3:	8b 55 fc             	mov    -0x4(%rbp),%edx
   136b6:	48 8d 35 ff 0f 00 00 	lea    0xfff(%rip),%rsi        # 146bc <g_1927+0x624>
   136bd:	48 89 c7             	mov    %rax,%rdi
   136c0:	e8 2e 80 ff ff       	callq  b6f3 <transparent_crc>
   136c5:	8b 05 b5 6c 00 00    	mov    0x6cb5(%rip),%eax        # 1a380 <g_1888>
   136cb:	89 c1                	mov    %eax,%ecx
   136cd:	8b 45 fc             	mov    -0x4(%rbp),%eax
   136d0:	89 c2                	mov    %eax,%edx
   136d2:	48 8d 35 ed 0f 00 00 	lea    0xfed(%rip),%rsi        # 146c6 <g_1927+0x62e>
   136d9:	48 89 cf             	mov    %rcx,%rdi
   136dc:	e8 12 80 ff ff       	callq  b6f3 <transparent_crc>
   136e1:	c7 45 f0 00 00 00 00 	movl   $0x0,-0x10(%rbp)
   136e8:	eb 7a                	jmp    13764 <main+0x1d2c>
   136ea:	c7 45 f4 00 00 00 00 	movl   $0x0,-0xc(%rbp)
   136f1:	eb 67                	jmp    1375a <main+0x1d22>
   136f3:	8b 45 f4             	mov    -0xc(%rbp),%eax
   136f6:	48 63 c8             	movslq %eax,%rcx
   136f9:	8b 45 f0             	mov    -0x10(%rbp),%eax
   136fc:	48 63 d0             	movslq %eax,%rdx
   136ff:	48 89 d0             	mov    %rdx,%rax
   13702:	48 c1 e0 02          	shl    $0x2,%rax
   13706:	48 01 d0             	add    %rdx,%rax
   13709:	48 01 c0             	add    %rax,%rax
   1370c:	48 01 c8             	add    %rcx,%rax
   1370f:	48 8d 14 c5 00 00 00 	lea    0x0(,%rax,8),%rdx
   13716:	00 
   13717:	48 8d 05 82 6c 00 00 	lea    0x6c82(%rip),%rax        # 1a3a0 <g_1896>
   1371e:	0f b7 04 02          	movzwl (%rdx,%rax,1),%eax
   13722:	0f b7 c0             	movzwl %ax,%eax
   13725:	8b 55 fc             	mov    -0x4(%rbp),%edx
   13728:	48 8d 35 a1 0f 00 00 	lea    0xfa1(%rip),%rsi        # 146d0 <g_1927+0x638>
   1372f:	48 89 c7             	mov    %rax,%rdi
   13732:	e8 bc 7f ff ff       	callq  b6f3 <transparent_crc>
   13737:	83 7d fc 00          	cmpl   $0x0,-0x4(%rbp)
   1373b:	74 19                	je     13756 <main+0x1d1e>
   1373d:	8b 55 f4             	mov    -0xc(%rbp),%edx
   13740:	8b 45 f0             	mov    -0x10(%rbp),%eax
   13743:	89 c6                	mov    %eax,%esi
   13745:	48 8d 3d 0c 0a 00 00 	lea    0xa0c(%rip),%rdi        # 14158 <g_1927+0xc0>
   1374c:	b8 00 00 00 00       	mov    $0x0,%eax
   13751:	e8 2a 69 ff ff       	callq  a080 <printf@plt>
   13756:	83 45 f4 01          	addl   $0x1,-0xc(%rbp)
   1375a:	83 7d f4 09          	cmpl   $0x9,-0xc(%rbp)
   1375e:	7e 93                	jle    136f3 <main+0x1cbb>
   13760:	83 45 f0 01          	addl   $0x1,-0x10(%rbp)
   13764:	83 7d f0 04          	cmpl   $0x4,-0x10(%rbp)
   13768:	7e 80                	jle    136ea <main+0x1cb2>
   1376a:	0f b7 05 bf 6d 00 00 	movzwl 0x6dbf(%rip),%eax        # 1a530 <g_1994>
   13771:	48 0f bf c0          	movswq %ax,%rax
   13775:	8b 55 fc             	mov    -0x4(%rbp),%edx
   13778:	48 8d 35 61 0f 00 00 	lea    0xf61(%rip),%rsi        # 146e0 <g_1927+0x648>
   1377f:	48 89 c7             	mov    %rax,%rdi
   13782:	e8 6c 7f ff ff       	callq  b6f3 <transparent_crc>
   13787:	8b 05 93 48 00 00    	mov    0x4893(%rip),%eax        # 18020 <crc32_context>
   1378d:	f7 d0                	not    %eax
   1378f:	89 c2                	mov    %eax,%edx
   13791:	8b 45 fc             	mov    -0x4(%rbp),%eax
   13794:	89 c6                	mov    %eax,%esi
   13796:	89 d7                	mov    %edx,%edi
   13798:	e8 f7 69 ff ff       	callq  a194 <platform_main_end>
   1379d:	b8 00 00 00 00       	mov    $0x0,%eax
   137a2:	c9                   	leaveq 
   137a3:	c3                   	retq   
   137a4:	66 2e 0f 1f 84 00 00 	nopw   %cs:0x0(%rax,%rax,1)
   137ab:	00 00 00 
   137ae:	66 90                	xchg   %ax,%ax

00000000000137b0 <__libc_csu_init>:
   137b0:	f3 0f 1e fa          	endbr64 
   137b4:	41 57                	push   %r15
   137b6:	4c 8d 3d 13 3e 00 00 	lea    0x3e13(%rip),%r15        # 175d0 <__frame_dummy_init_array_entry>
   137bd:	41 56                	push   %r14
   137bf:	49 89 d6             	mov    %rdx,%r14
   137c2:	41 55                	push   %r13
   137c4:	49 89 f5             	mov    %rsi,%r13
   137c7:	41 54                	push   %r12
   137c9:	41 89 fc             	mov    %edi,%r12d
   137cc:	55                   	push   %rbp
   137cd:	48 8d 2d 04 3e 00 00 	lea    0x3e04(%rip),%rbp        # 175d8 <__do_global_dtors_aux_fini_array_entry>
   137d4:	53                   	push   %rbx
   137d5:	4c 29 fd             	sub    %r15,%rbp
   137d8:	48 83 ec 08          	sub    $0x8,%rsp
   137dc:	e8 1f 68 ff ff       	callq  a000 <_init>
   137e1:	48 c1 fd 03          	sar    $0x3,%rbp
   137e5:	74 1f                	je     13806 <__libc_csu_init+0x56>
   137e7:	31 db                	xor    %ebx,%ebx
   137e9:	0f 1f 80 00 00 00 00 	nopl   0x0(%rax)
   137f0:	4c 89 f2             	mov    %r14,%rdx
   137f3:	4c 89 ee             	mov    %r13,%rsi
   137f6:	44 89 e7             	mov    %r12d,%edi
   137f9:	41 ff 14 df          	callq  *(%r15,%rbx,8)
   137fd:	48 83 c3 01          	add    $0x1,%rbx
   13801:	48 39 dd             	cmp    %rbx,%rbp
   13804:	75 ea                	jne    137f0 <__libc_csu_init+0x40>
   13806:	48 83 c4 08          	add    $0x8,%rsp
   1380a:	5b                   	pop    %rbx
   1380b:	5d                   	pop    %rbp
   1380c:	41 5c                	pop    %r12
   1380e:	41 5d                	pop    %r13
   13810:	41 5e                	pop    %r14
   13812:	41 5f                	pop    %r15
   13814:	c3                   	retq   
   13815:	66 66 2e 0f 1f 84 00 	data16 nopw %cs:0x0(%rax,%rax,1)
   1381c:	00 00 00 00 

0000000000013820 <__libc_csu_fini>:
   13820:	f3 0f 1e fa          	endbr64 
   13824:	c3                   	retq   
