


Disassembly of section .text:

000000000000a0a0 <_start>:
    a0a0:	f3 0f 1e fa          	endbr64 
    a0a4:	31 ed                	xor    %ebp,%ebp
    a0a6:	49 89 d1             	mov    %rdx,%r9
    a0a9:	5e                   	pop    %rsi
    a0aa:	48 89 e2             	mov    %rsp,%rdx
    a0ad:	48 83 e4 f0          	and    $0xfffffffffffffff0,%rsp
    a0b1:	50                   	push   %rax
    a0b2:	54                   	push   %rsp
    a0b3:	4c 8d 05 c6 eb 00 00 	lea    0xebc6(%rip),%r8        # 18c80 <__libc_csu_fini>
    a0ba:	48 8d 0d 4f eb 00 00 	lea    0xeb4f(%rip),%rcx        # 18c10 <__libc_csu_init>
    a0c1:	48 8d 3d b9 b0 00 00 	lea    0xb0b9(%rip),%rdi        # 15181 <main>
    a0c8:	ff 15 fa 5e 01 00    	callq  *0x15efa(%rip)        # 1ffc8 <__libc_start_main@GLIBC_2.2.5>
    a0ce:	f4                   	hlt    
    a0cf:	90                   	nop

000000000000a0d0 <deregister_tm_clones>:
    a0d0:	48 8d 3d 29 d2 01 00 	lea    0x1d229(%rip),%rdi        # 27300 <__TMC_END__>
    a0d7:	48 8d 05 22 d2 01 00 	lea    0x1d222(%rip),%rax        # 27300 <__TMC_END__>
    a0de:	48 39 f8             	cmp    %rdi,%rax
    a0e1:	74 15                	je     a0f8 <deregister_tm_clones+0x28>
    a0e3:	48 8b 05 d6 5e 01 00 	mov    0x15ed6(%rip),%rax        # 1ffc0 <_ITM_deregisterTMCloneTable>
    a0ea:	48 85 c0             	test   %rax,%rax
    a0ed:	74 09                	je     a0f8 <deregister_tm_clones+0x28>
    a0ef:	ff e0                	jmpq   *%rax
    a0f1:	0f 1f 80 00 00 00 00 	nopl   0x0(%rax)
    a0f8:	c3                   	retq   
    a0f9:	0f 1f 80 00 00 00 00 	nopl   0x0(%rax)

000000000000a100 <register_tm_clones>:
    a100:	48 8d 3d f9 d1 01 00 	lea    0x1d1f9(%rip),%rdi        # 27300 <__TMC_END__>
    a107:	48 8d 35 f2 d1 01 00 	lea    0x1d1f2(%rip),%rsi        # 27300 <__TMC_END__>
    a10e:	48 29 fe             	sub    %rdi,%rsi
    a111:	48 89 f0             	mov    %rsi,%rax
    a114:	48 c1 ee 3f          	shr    $0x3f,%rsi
    a118:	48 c1 f8 03          	sar    $0x3,%rax
    a11c:	48 01 c6             	add    %rax,%rsi
    a11f:	48 d1 fe             	sar    %rsi
    a122:	74 14                	je     a138 <register_tm_clones+0x38>
    a124:	48 8b 05 ad 5e 01 00 	mov    0x15ead(%rip),%rax        # 1ffd8 <_ITM_registerTMCloneTable>
    a12b:	48 85 c0             	test   %rax,%rax
    a12e:	74 08                	je     a138 <register_tm_clones+0x38>
    a130:	ff e0                	jmpq   *%rax
    a132:	66 0f 1f 44 00 00    	nopw   0x0(%rax,%rax,1)
    a138:	c3                   	retq   
    a139:	0f 1f 80 00 00 00 00 	nopl   0x0(%rax)

000000000000a140 <__do_global_dtors_aux>:
    a140:	f3 0f 1e fa          	endbr64 
    a144:	80 3d b5 d1 01 00 00 	cmpb   $0x0,0x1d1b5(%rip)        # 27300 <__TMC_END__>
    a14b:	75 2b                	jne    a178 <__do_global_dtors_aux+0x38>
    a14d:	55                   	push   %rbp
    a14e:	48 83 3d 8a 5e 01 00 	cmpq   $0x0,0x15e8a(%rip)        # 1ffe0 <__cxa_finalize@GLIBC_2.2.5>
    a155:	00 
    a156:	48 89 e5             	mov    %rsp,%rbp
    a159:	74 0c                	je     a167 <__do_global_dtors_aux+0x27>
    a15b:	48 8b 3d a6 5e 01 00 	mov    0x15ea6(%rip),%rdi        # 20008 <__dso_handle>
    a162:	e8 f9 fe ff ff       	callq  a060 <__cxa_finalize@plt>
    a167:	e8 64 ff ff ff       	callq  a0d0 <deregister_tm_clones>
    a16c:	c6 05 8d d1 01 00 01 	movb   $0x1,0x1d18d(%rip)        # 27300 <__TMC_END__>
    a173:	5d                   	pop    %rbp
    a174:	c3                   	retq   
    a175:	0f 1f 00             	nopl   (%rax)
    a178:	c3                   	retq   
    a179:	0f 1f 80 00 00 00 00 	nopl   0x0(%rax)

000000000000a180 <frame_dummy>:
    a180:	f3 0f 1e fa          	endbr64 
    a184:	e9 77 ff ff ff       	jmpq   a100 <register_tm_clones>

000000000000a189 <platform_main_begin>:
    a189:	f3 0f 1e fa          	endbr64 
    a18d:	55                   	push   %rbp
    a18e:	48 89 e5             	mov    %rsp,%rbp
    a191:	90                   	nop
    a192:	5d                   	pop    %rbp
    a193:	c3                   	retq   

000000000000a194 <platform_main_end>:
    a194:	f3 0f 1e fa          	endbr64 
    a198:	55                   	push   %rbp
    a199:	48 89 e5             	mov    %rsp,%rbp
    a19c:	48 83 ec 10          	sub    $0x10,%rsp
    a1a0:	89 7d fc             	mov    %edi,-0x4(%rbp)
    a1a3:	89 75 f8             	mov    %esi,-0x8(%rbp)
    a1a6:	8b 45 fc             	mov    -0x4(%rbp),%eax
    a1a9:	89 c6                	mov    %eax,%esi
    a1ab:	48 8d 3d 6e ee 00 00 	lea    0xee6e(%rip),%rdi        # 19020 <_IO_stdin_used+0x20>
    a1b2:	b8 00 00 00 00       	mov    $0x0,%eax
    a1b7:	e8 c4 fe ff ff       	callq  a080 <printf@plt>
    a1bc:	90                   	nop
    a1bd:	c9                   	leaveq 
    a1be:	c3                   	retq   

000000000000a1bf <safe_unary_minus_func_int8_t_s>:
    a1bf:	f3 0f 1e fa          	endbr64 
    a1c3:	55                   	push   %rbp
    a1c4:	48 89 e5             	mov    %rsp,%rbp
    a1c7:	89 f8                	mov    %edi,%eax
    a1c9:	88 45 fc             	mov    %al,-0x4(%rbp)
    a1cc:	0f b6 45 fc          	movzbl -0x4(%rbp),%eax
    a1d0:	f7 d8                	neg    %eax
    a1d2:	5d                   	pop    %rbp
    a1d3:	c3                   	retq   

000000000000a1d4 <safe_add_func_int8_t_s_s>:
    a1d4:	f3 0f 1e fa          	endbr64 
    a1d8:	55                   	push   %rbp
    a1d9:	48 89 e5             	mov    %rsp,%rbp
    a1dc:	89 fa                	mov    %edi,%edx
    a1de:	89 f0                	mov    %esi,%eax
    a1e0:	88 55 fc             	mov    %dl,-0x4(%rbp)
    a1e3:	88 45 f8             	mov    %al,-0x8(%rbp)
    a1e6:	0f b6 55 fc          	movzbl -0x4(%rbp),%edx
    a1ea:	0f b6 45 f8          	movzbl -0x8(%rbp),%eax
    a1ee:	01 d0                	add    %edx,%eax
    a1f0:	5d                   	pop    %rbp
    a1f1:	c3                   	retq   

000000000000a1f2 <safe_sub_func_int8_t_s_s>:
    a1f2:	f3 0f 1e fa          	endbr64 
    a1f6:	55                   	push   %rbp
    a1f7:	48 89 e5             	mov    %rsp,%rbp
    a1fa:	89 fa                	mov    %edi,%edx
    a1fc:	89 f0                	mov    %esi,%eax
    a1fe:	88 55 fc             	mov    %dl,-0x4(%rbp)
    a201:	88 45 f8             	mov    %al,-0x8(%rbp)
    a204:	0f b6 55 fc          	movzbl -0x4(%rbp),%edx
    a208:	0f b6 45 f8          	movzbl -0x8(%rbp),%eax
    a20c:	29 c2                	sub    %eax,%edx
    a20e:	89 d0                	mov    %edx,%eax
    a210:	5d                   	pop    %rbp
    a211:	c3                   	retq   

000000000000a212 <safe_mul_func_int8_t_s_s>:
    a212:	f3 0f 1e fa          	endbr64 
    a216:	55                   	push   %rbp
    a217:	48 89 e5             	mov    %rsp,%rbp
    a21a:	89 fa                	mov    %edi,%edx
    a21c:	89 f0                	mov    %esi,%eax
    a21e:	88 55 fc             	mov    %dl,-0x4(%rbp)
    a221:	88 45 f8             	mov    %al,-0x8(%rbp)
    a224:	0f b6 45 fc          	movzbl -0x4(%rbp),%eax
    a228:	0f b6 55 f8          	movzbl -0x8(%rbp),%edx
    a22c:	0f af c2             	imul   %edx,%eax
    a22f:	5d                   	pop    %rbp
    a230:	c3                   	retq   

000000000000a231 <safe_mod_func_int8_t_s_s>:
    a231:	f3 0f 1e fa          	endbr64 
    a235:	55                   	push   %rbp
    a236:	48 89 e5             	mov    %rsp,%rbp
    a239:	89 fa                	mov    %edi,%edx
    a23b:	89 f0                	mov    %esi,%eax
    a23d:	88 55 fc             	mov    %dl,-0x4(%rbp)
    a240:	88 45 f8             	mov    %al,-0x8(%rbp)
    a243:	80 7d f8 00          	cmpb   $0x0,-0x8(%rbp)
    a247:	74 1b                	je     a264 <safe_mod_func_int8_t_s_s+0x33>
    a249:	80 7d fc 80          	cmpb   $0x80,-0x4(%rbp)
    a24d:	75 06                	jne    a255 <safe_mod_func_int8_t_s_s+0x24>
    a24f:	80 7d f8 ff          	cmpb   $0xff,-0x8(%rbp)
    a253:	74 0f                	je     a264 <safe_mod_func_int8_t_s_s+0x33>
    a255:	0f be 45 fc          	movsbl -0x4(%rbp),%eax
    a259:	0f be 4d f8          	movsbl -0x8(%rbp),%ecx
    a25d:	99                   	cltd   
    a25e:	f7 f9                	idiv   %ecx
    a260:	89 d0                	mov    %edx,%eax
    a262:	eb 04                	jmp    a268 <safe_mod_func_int8_t_s_s+0x37>
    a264:	0f b6 45 fc          	movzbl -0x4(%rbp),%eax
    a268:	5d                   	pop    %rbp
    a269:	c3                   	retq   

000000000000a26a <safe_div_func_int8_t_s_s>:
    a26a:	f3 0f 1e fa          	endbr64 
    a26e:	55                   	push   %rbp
    a26f:	48 89 e5             	mov    %rsp,%rbp
    a272:	89 fa                	mov    %edi,%edx
    a274:	89 f0                	mov    %esi,%eax
    a276:	88 55 fc             	mov    %dl,-0x4(%rbp)
    a279:	88 45 f8             	mov    %al,-0x8(%rbp)
    a27c:	80 7d f8 00          	cmpb   $0x0,-0x8(%rbp)
    a280:	74 19                	je     a29b <safe_div_func_int8_t_s_s+0x31>
    a282:	80 7d fc 80          	cmpb   $0x80,-0x4(%rbp)
    a286:	75 06                	jne    a28e <safe_div_func_int8_t_s_s+0x24>
    a288:	80 7d f8 ff          	cmpb   $0xff,-0x8(%rbp)
    a28c:	74 0d                	je     a29b <safe_div_func_int8_t_s_s+0x31>
    a28e:	0f be 45 fc          	movsbl -0x4(%rbp),%eax
    a292:	0f be 4d f8          	movsbl -0x8(%rbp),%ecx
    a296:	99                   	cltd   
    a297:	f7 f9                	idiv   %ecx
    a299:	eb 04                	jmp    a29f <safe_div_func_int8_t_s_s+0x35>
    a29b:	0f b6 45 fc          	movzbl -0x4(%rbp),%eax
    a29f:	5d                   	pop    %rbp
    a2a0:	c3                   	retq   

000000000000a2a1 <safe_lshift_func_int8_t_s_s>:
    a2a1:	f3 0f 1e fa          	endbr64 
    a2a5:	55                   	push   %rbp
    a2a6:	48 89 e5             	mov    %rsp,%rbp
    a2a9:	89 f8                	mov    %edi,%eax
    a2ab:	89 75 f8             	mov    %esi,-0x8(%rbp)
    a2ae:	88 45 fc             	mov    %al,-0x4(%rbp)
    a2b1:	80 7d fc 00          	cmpb   $0x0,-0x4(%rbp)
    a2b5:	78 31                	js     a2e8 <safe_lshift_func_int8_t_s_s+0x47>
    a2b7:	83 7d f8 00          	cmpl   $0x0,-0x8(%rbp)
    a2bb:	78 2b                	js     a2e8 <safe_lshift_func_int8_t_s_s+0x47>
    a2bd:	83 7d f8 1f          	cmpl   $0x1f,-0x8(%rbp)
    a2c1:	7f 25                	jg     a2e8 <safe_lshift_func_int8_t_s_s+0x47>
    a2c3:	0f be 55 fc          	movsbl -0x4(%rbp),%edx
    a2c7:	8b 45 f8             	mov    -0x8(%rbp),%eax
    a2ca:	be 7f 00 00 00       	mov    $0x7f,%esi
    a2cf:	89 c1                	mov    %eax,%ecx
    a2d1:	d3 fe                	sar    %cl,%esi
    a2d3:	89 f0                	mov    %esi,%eax
    a2d5:	39 c2                	cmp    %eax,%edx
    a2d7:	7f 0f                	jg     a2e8 <safe_lshift_func_int8_t_s_s+0x47>
    a2d9:	0f be 55 fc          	movsbl -0x4(%rbp),%edx
    a2dd:	8b 45 f8             	mov    -0x8(%rbp),%eax
    a2e0:	89 c1                	mov    %eax,%ecx
    a2e2:	d3 e2                	shl    %cl,%edx
    a2e4:	89 d0                	mov    %edx,%eax
    a2e6:	eb 04                	jmp    a2ec <safe_lshift_func_int8_t_s_s+0x4b>
    a2e8:	0f b6 45 fc          	movzbl -0x4(%rbp),%eax
    a2ec:	5d                   	pop    %rbp
    a2ed:	c3                   	retq   

000000000000a2ee <safe_lshift_func_int8_t_s_u>:
    a2ee:	f3 0f 1e fa          	endbr64 
    a2f2:	55                   	push   %rbp
    a2f3:	48 89 e5             	mov    %rsp,%rbp
    a2f6:	89 f8                	mov    %edi,%eax
    a2f8:	89 75 f8             	mov    %esi,-0x8(%rbp)
    a2fb:	88 45 fc             	mov    %al,-0x4(%rbp)
    a2fe:	80 7d fc 00          	cmpb   $0x0,-0x4(%rbp)
    a302:	78 2b                	js     a32f <safe_lshift_func_int8_t_s_u+0x41>
    a304:	83 7d f8 1f          	cmpl   $0x1f,-0x8(%rbp)
    a308:	77 25                	ja     a32f <safe_lshift_func_int8_t_s_u+0x41>
    a30a:	0f be 55 fc          	movsbl -0x4(%rbp),%edx
    a30e:	8b 45 f8             	mov    -0x8(%rbp),%eax
    a311:	be 7f 00 00 00       	mov    $0x7f,%esi
    a316:	89 c1                	mov    %eax,%ecx
    a318:	d3 fe                	sar    %cl,%esi
    a31a:	89 f0                	mov    %esi,%eax
    a31c:	39 c2                	cmp    %eax,%edx
    a31e:	7f 0f                	jg     a32f <safe_lshift_func_int8_t_s_u+0x41>
    a320:	0f be 55 fc          	movsbl -0x4(%rbp),%edx
    a324:	8b 45 f8             	mov    -0x8(%rbp),%eax
    a327:	89 c1                	mov    %eax,%ecx
    a329:	d3 e2                	shl    %cl,%edx
    a32b:	89 d0                	mov    %edx,%eax
    a32d:	eb 04                	jmp    a333 <safe_lshift_func_int8_t_s_u+0x45>
    a32f:	0f b6 45 fc          	movzbl -0x4(%rbp),%eax
    a333:	5d                   	pop    %rbp
    a334:	c3                   	retq   

000000000000a335 <safe_rshift_func_int8_t_s_s>:
    a335:	f3 0f 1e fa          	endbr64 
    a339:	55                   	push   %rbp
    a33a:	48 89 e5             	mov    %rsp,%rbp
    a33d:	89 f8                	mov    %edi,%eax
    a33f:	89 75 f8             	mov    %esi,-0x8(%rbp)
    a342:	88 45 fc             	mov    %al,-0x4(%rbp)
    a345:	80 7d fc 00          	cmpb   $0x0,-0x4(%rbp)
    a349:	78 1b                	js     a366 <safe_rshift_func_int8_t_s_s+0x31>
    a34b:	83 7d f8 00          	cmpl   $0x0,-0x8(%rbp)
    a34f:	78 15                	js     a366 <safe_rshift_func_int8_t_s_s+0x31>
    a351:	83 7d f8 1f          	cmpl   $0x1f,-0x8(%rbp)
    a355:	7f 0f                	jg     a366 <safe_rshift_func_int8_t_s_s+0x31>
    a357:	0f be 55 fc          	movsbl -0x4(%rbp),%edx
    a35b:	8b 45 f8             	mov    -0x8(%rbp),%eax
    a35e:	89 c1                	mov    %eax,%ecx
    a360:	d3 fa                	sar    %cl,%edx
    a362:	89 d0                	mov    %edx,%eax
    a364:	eb 04                	jmp    a36a <safe_rshift_func_int8_t_s_s+0x35>
    a366:	0f b6 45 fc          	movzbl -0x4(%rbp),%eax
    a36a:	5d                   	pop    %rbp
    a36b:	c3                   	retq   

000000000000a36c <safe_rshift_func_int8_t_s_u>:
    a36c:	f3 0f 1e fa          	endbr64 
    a370:	55                   	push   %rbp
    a371:	48 89 e5             	mov    %rsp,%rbp
    a374:	89 f8                	mov    %edi,%eax
    a376:	89 75 f8             	mov    %esi,-0x8(%rbp)
    a379:	88 45 fc             	mov    %al,-0x4(%rbp)
    a37c:	80 7d fc 00          	cmpb   $0x0,-0x4(%rbp)
    a380:	78 15                	js     a397 <safe_rshift_func_int8_t_s_u+0x2b>
    a382:	83 7d f8 1f          	cmpl   $0x1f,-0x8(%rbp)
    a386:	77 0f                	ja     a397 <safe_rshift_func_int8_t_s_u+0x2b>
    a388:	0f be 55 fc          	movsbl -0x4(%rbp),%edx
    a38c:	8b 45 f8             	mov    -0x8(%rbp),%eax
    a38f:	89 c1                	mov    %eax,%ecx
    a391:	d3 fa                	sar    %cl,%edx
    a393:	89 d0                	mov    %edx,%eax
    a395:	eb 04                	jmp    a39b <safe_rshift_func_int8_t_s_u+0x2f>
    a397:	0f b6 45 fc          	movzbl -0x4(%rbp),%eax
    a39b:	5d                   	pop    %rbp
    a39c:	c3                   	retq   

000000000000a39d <safe_unary_minus_func_int16_t_s>:
    a39d:	f3 0f 1e fa          	endbr64 
    a3a1:	55                   	push   %rbp
    a3a2:	48 89 e5             	mov    %rsp,%rbp
    a3a5:	89 f8                	mov    %edi,%eax
    a3a7:	66 89 45 fc          	mov    %ax,-0x4(%rbp)
    a3ab:	0f b7 45 fc          	movzwl -0x4(%rbp),%eax
    a3af:	f7 d8                	neg    %eax
    a3b1:	5d                   	pop    %rbp
    a3b2:	c3                   	retq   

000000000000a3b3 <safe_add_func_int16_t_s_s>:
    a3b3:	f3 0f 1e fa          	endbr64 
    a3b7:	55                   	push   %rbp
    a3b8:	48 89 e5             	mov    %rsp,%rbp
    a3bb:	89 fa                	mov    %edi,%edx
    a3bd:	89 f0                	mov    %esi,%eax
    a3bf:	66 89 55 fc          	mov    %dx,-0x4(%rbp)
    a3c3:	66 89 45 f8          	mov    %ax,-0x8(%rbp)
    a3c7:	0f b7 55 fc          	movzwl -0x4(%rbp),%edx
    a3cb:	0f b7 45 f8          	movzwl -0x8(%rbp),%eax
    a3cf:	01 d0                	add    %edx,%eax
    a3d1:	5d                   	pop    %rbp
    a3d2:	c3                   	retq   

000000000000a3d3 <safe_sub_func_int16_t_s_s>:
    a3d3:	f3 0f 1e fa          	endbr64 
    a3d7:	55                   	push   %rbp
    a3d8:	48 89 e5             	mov    %rsp,%rbp
    a3db:	89 fa                	mov    %edi,%edx
    a3dd:	89 f0                	mov    %esi,%eax
    a3df:	66 89 55 fc          	mov    %dx,-0x4(%rbp)
    a3e3:	66 89 45 f8          	mov    %ax,-0x8(%rbp)
    a3e7:	0f b7 55 fc          	movzwl -0x4(%rbp),%edx
    a3eb:	0f b7 45 f8          	movzwl -0x8(%rbp),%eax
    a3ef:	29 c2                	sub    %eax,%edx
    a3f1:	89 d0                	mov    %edx,%eax
    a3f3:	5d                   	pop    %rbp
    a3f4:	c3                   	retq   

000000000000a3f5 <safe_mul_func_int16_t_s_s>:
    a3f5:	f3 0f 1e fa          	endbr64 
    a3f9:	55                   	push   %rbp
    a3fa:	48 89 e5             	mov    %rsp,%rbp
    a3fd:	89 fa                	mov    %edi,%edx
    a3ff:	89 f0                	mov    %esi,%eax
    a401:	66 89 55 fc          	mov    %dx,-0x4(%rbp)
    a405:	66 89 45 f8          	mov    %ax,-0x8(%rbp)
    a409:	0f b7 55 fc          	movzwl -0x4(%rbp),%edx
    a40d:	0f b7 45 f8          	movzwl -0x8(%rbp),%eax
    a411:	0f af c2             	imul   %edx,%eax
    a414:	5d                   	pop    %rbp
    a415:	c3                   	retq   

000000000000a416 <safe_mod_func_int16_t_s_s>:
    a416:	f3 0f 1e fa          	endbr64 
    a41a:	55                   	push   %rbp
    a41b:	48 89 e5             	mov    %rsp,%rbp
    a41e:	89 fa                	mov    %edi,%edx
    a420:	89 f0                	mov    %esi,%eax
    a422:	66 89 55 fc          	mov    %dx,-0x4(%rbp)
    a426:	66 89 45 f8          	mov    %ax,-0x8(%rbp)
    a42a:	66 83 7d f8 00       	cmpw   $0x0,-0x8(%rbp)
    a42f:	74 1e                	je     a44f <safe_mod_func_int16_t_s_s+0x39>
    a431:	66 81 7d fc 00 80    	cmpw   $0x8000,-0x4(%rbp)
    a437:	75 07                	jne    a440 <safe_mod_func_int16_t_s_s+0x2a>
    a439:	66 83 7d f8 ff       	cmpw   $0xffff,-0x8(%rbp)
    a43e:	74 0f                	je     a44f <safe_mod_func_int16_t_s_s+0x39>
    a440:	0f bf 45 fc          	movswl -0x4(%rbp),%eax
    a444:	0f bf 4d f8          	movswl -0x8(%rbp),%ecx
    a448:	99                   	cltd   
    a449:	f7 f9                	idiv   %ecx
    a44b:	89 d0                	mov    %edx,%eax
    a44d:	eb 04                	jmp    a453 <safe_mod_func_int16_t_s_s+0x3d>
    a44f:	0f b7 45 fc          	movzwl -0x4(%rbp),%eax
    a453:	5d                   	pop    %rbp
    a454:	c3                   	retq   

000000000000a455 <safe_div_func_int16_t_s_s>:
    a455:	f3 0f 1e fa          	endbr64 
    a459:	55                   	push   %rbp
    a45a:	48 89 e5             	mov    %rsp,%rbp
    a45d:	89 fa                	mov    %edi,%edx
    a45f:	89 f0                	mov    %esi,%eax
    a461:	66 89 55 fc          	mov    %dx,-0x4(%rbp)
    a465:	66 89 45 f8          	mov    %ax,-0x8(%rbp)
    a469:	66 83 7d f8 00       	cmpw   $0x0,-0x8(%rbp)
    a46e:	74 1c                	je     a48c <safe_div_func_int16_t_s_s+0x37>
    a470:	66 81 7d fc 00 80    	cmpw   $0x8000,-0x4(%rbp)
    a476:	75 07                	jne    a47f <safe_div_func_int16_t_s_s+0x2a>
    a478:	66 83 7d f8 ff       	cmpw   $0xffff,-0x8(%rbp)
    a47d:	74 0d                	je     a48c <safe_div_func_int16_t_s_s+0x37>
    a47f:	0f bf 45 fc          	movswl -0x4(%rbp),%eax
    a483:	0f bf 4d f8          	movswl -0x8(%rbp),%ecx
    a487:	99                   	cltd   
    a488:	f7 f9                	idiv   %ecx
    a48a:	eb 04                	jmp    a490 <safe_div_func_int16_t_s_s+0x3b>
    a48c:	0f b7 45 fc          	movzwl -0x4(%rbp),%eax
    a490:	5d                   	pop    %rbp
    a491:	c3                   	retq   

000000000000a492 <safe_lshift_func_int16_t_s_s>:
    a492:	f3 0f 1e fa          	endbr64 
    a496:	55                   	push   %rbp
    a497:	48 89 e5             	mov    %rsp,%rbp
    a49a:	89 f8                	mov    %edi,%eax
    a49c:	89 75 f8             	mov    %esi,-0x8(%rbp)
    a49f:	66 89 45 fc          	mov    %ax,-0x4(%rbp)
    a4a3:	66 83 7d fc 00       	cmpw   $0x0,-0x4(%rbp)
    a4a8:	78 31                	js     a4db <safe_lshift_func_int16_t_s_s+0x49>
    a4aa:	83 7d f8 00          	cmpl   $0x0,-0x8(%rbp)
    a4ae:	78 2b                	js     a4db <safe_lshift_func_int16_t_s_s+0x49>
    a4b0:	83 7d f8 1f          	cmpl   $0x1f,-0x8(%rbp)
    a4b4:	7f 25                	jg     a4db <safe_lshift_func_int16_t_s_s+0x49>
    a4b6:	0f bf 55 fc          	movswl -0x4(%rbp),%edx
    a4ba:	8b 45 f8             	mov    -0x8(%rbp),%eax
    a4bd:	be ff 7f 00 00       	mov    $0x7fff,%esi
    a4c2:	89 c1                	mov    %eax,%ecx
    a4c4:	d3 fe                	sar    %cl,%esi
    a4c6:	89 f0                	mov    %esi,%eax
    a4c8:	39 c2                	cmp    %eax,%edx
    a4ca:	7f 0f                	jg     a4db <safe_lshift_func_int16_t_s_s+0x49>
    a4cc:	0f bf 55 fc          	movswl -0x4(%rbp),%edx
    a4d0:	8b 45 f8             	mov    -0x8(%rbp),%eax
    a4d3:	89 c1                	mov    %eax,%ecx
    a4d5:	d3 e2                	shl    %cl,%edx
    a4d7:	89 d0                	mov    %edx,%eax
    a4d9:	eb 04                	jmp    a4df <safe_lshift_func_int16_t_s_s+0x4d>
    a4db:	0f b7 45 fc          	movzwl -0x4(%rbp),%eax
    a4df:	5d                   	pop    %rbp
    a4e0:	c3                   	retq   

000000000000a4e1 <safe_lshift_func_int16_t_s_u>:
    a4e1:	f3 0f 1e fa          	endbr64 
    a4e5:	55                   	push   %rbp
    a4e6:	48 89 e5             	mov    %rsp,%rbp
    a4e9:	89 f8                	mov    %edi,%eax
    a4eb:	89 75 f8             	mov    %esi,-0x8(%rbp)
    a4ee:	66 89 45 fc          	mov    %ax,-0x4(%rbp)
    a4f2:	66 83 7d fc 00       	cmpw   $0x0,-0x4(%rbp)
    a4f7:	78 2b                	js     a524 <safe_lshift_func_int16_t_s_u+0x43>
    a4f9:	83 7d f8 1f          	cmpl   $0x1f,-0x8(%rbp)
    a4fd:	77 25                	ja     a524 <safe_lshift_func_int16_t_s_u+0x43>
    a4ff:	0f bf 55 fc          	movswl -0x4(%rbp),%edx
    a503:	8b 45 f8             	mov    -0x8(%rbp),%eax
    a506:	be ff 7f 00 00       	mov    $0x7fff,%esi
    a50b:	89 c1                	mov    %eax,%ecx
    a50d:	d3 fe                	sar    %cl,%esi
    a50f:	89 f0                	mov    %esi,%eax
    a511:	39 c2                	cmp    %eax,%edx
    a513:	7f 0f                	jg     a524 <safe_lshift_func_int16_t_s_u+0x43>
    a515:	0f bf 55 fc          	movswl -0x4(%rbp),%edx
    a519:	8b 45 f8             	mov    -0x8(%rbp),%eax
    a51c:	89 c1                	mov    %eax,%ecx
    a51e:	d3 e2                	shl    %cl,%edx
    a520:	89 d0                	mov    %edx,%eax
    a522:	eb 04                	jmp    a528 <safe_lshift_func_int16_t_s_u+0x47>
    a524:	0f b7 45 fc          	movzwl -0x4(%rbp),%eax
    a528:	5d                   	pop    %rbp
    a529:	c3                   	retq   

000000000000a52a <safe_rshift_func_int16_t_s_s>:
    a52a:	f3 0f 1e fa          	endbr64 
    a52e:	55                   	push   %rbp
    a52f:	48 89 e5             	mov    %rsp,%rbp
    a532:	89 f8                	mov    %edi,%eax
    a534:	89 75 f8             	mov    %esi,-0x8(%rbp)
    a537:	66 89 45 fc          	mov    %ax,-0x4(%rbp)
    a53b:	66 83 7d fc 00       	cmpw   $0x0,-0x4(%rbp)
    a540:	78 1b                	js     a55d <safe_rshift_func_int16_t_s_s+0x33>
    a542:	83 7d f8 00          	cmpl   $0x0,-0x8(%rbp)
    a546:	78 15                	js     a55d <safe_rshift_func_int16_t_s_s+0x33>
    a548:	83 7d f8 1f          	cmpl   $0x1f,-0x8(%rbp)
    a54c:	7f 0f                	jg     a55d <safe_rshift_func_int16_t_s_s+0x33>
    a54e:	0f bf 55 fc          	movswl -0x4(%rbp),%edx
    a552:	8b 45 f8             	mov    -0x8(%rbp),%eax
    a555:	89 c1                	mov    %eax,%ecx
    a557:	d3 fa                	sar    %cl,%edx
    a559:	89 d0                	mov    %edx,%eax
    a55b:	eb 04                	jmp    a561 <safe_rshift_func_int16_t_s_s+0x37>
    a55d:	0f b7 45 fc          	movzwl -0x4(%rbp),%eax
    a561:	5d                   	pop    %rbp
    a562:	c3                   	retq   

000000000000a563 <safe_rshift_func_int16_t_s_u>:
    a563:	f3 0f 1e fa          	endbr64 
    a567:	55                   	push   %rbp
    a568:	48 89 e5             	mov    %rsp,%rbp
    a56b:	89 f8                	mov    %edi,%eax
    a56d:	89 75 f8             	mov    %esi,-0x8(%rbp)
    a570:	66 89 45 fc          	mov    %ax,-0x4(%rbp)
    a574:	66 83 7d fc 00       	cmpw   $0x0,-0x4(%rbp)
    a579:	78 15                	js     a590 <safe_rshift_func_int16_t_s_u+0x2d>
    a57b:	83 7d f8 1f          	cmpl   $0x1f,-0x8(%rbp)
    a57f:	77 0f                	ja     a590 <safe_rshift_func_int16_t_s_u+0x2d>
    a581:	0f bf 55 fc          	movswl -0x4(%rbp),%edx
    a585:	8b 45 f8             	mov    -0x8(%rbp),%eax
    a588:	89 c1                	mov    %eax,%ecx
    a58a:	d3 fa                	sar    %cl,%edx
    a58c:	89 d0                	mov    %edx,%eax
    a58e:	eb 04                	jmp    a594 <safe_rshift_func_int16_t_s_u+0x31>
    a590:	0f b7 45 fc          	movzwl -0x4(%rbp),%eax
    a594:	5d                   	pop    %rbp
    a595:	c3                   	retq   

000000000000a596 <safe_unary_minus_func_int32_t_s>:
    a596:	f3 0f 1e fa          	endbr64 
    a59a:	55                   	push   %rbp
    a59b:	48 89 e5             	mov    %rsp,%rbp
    a59e:	89 7d fc             	mov    %edi,-0x4(%rbp)
    a5a1:	81 7d fc 00 00 00 80 	cmpl   $0x80000000,-0x4(%rbp)
    a5a8:	74 07                	je     a5b1 <safe_unary_minus_func_int32_t_s+0x1b>
    a5aa:	8b 45 fc             	mov    -0x4(%rbp),%eax
    a5ad:	f7 d8                	neg    %eax
    a5af:	eb 03                	jmp    a5b4 <safe_unary_minus_func_int32_t_s+0x1e>
    a5b1:	8b 45 fc             	mov    -0x4(%rbp),%eax
    a5b4:	5d                   	pop    %rbp
    a5b5:	c3                   	retq   

000000000000a5b6 <safe_add_func_int32_t_s_s>:
    a5b6:	f3 0f 1e fa          	endbr64 
    a5ba:	55                   	push   %rbp
    a5bb:	48 89 e5             	mov    %rsp,%rbp
    a5be:	89 7d fc             	mov    %edi,-0x4(%rbp)
    a5c1:	89 75 f8             	mov    %esi,-0x8(%rbp)
    a5c4:	83 7d fc 00          	cmpl   $0x0,-0x4(%rbp)
    a5c8:	7e 13                	jle    a5dd <safe_add_func_int32_t_s_s+0x27>
    a5ca:	83 7d f8 00          	cmpl   $0x0,-0x8(%rbp)
    a5ce:	7e 0d                	jle    a5dd <safe_add_func_int32_t_s_s+0x27>
    a5d0:	b8 ff ff ff 7f       	mov    $0x7fffffff,%eax
    a5d5:	2b 45 f8             	sub    -0x8(%rbp),%eax
    a5d8:	39 45 fc             	cmp    %eax,-0x4(%rbp)
    a5db:	7f 23                	jg     a600 <safe_add_func_int32_t_s_s+0x4a>
    a5dd:	83 7d fc 00          	cmpl   $0x0,-0x4(%rbp)
    a5e1:	79 13                	jns    a5f6 <safe_add_func_int32_t_s_s+0x40>
    a5e3:	83 7d f8 00          	cmpl   $0x0,-0x8(%rbp)
    a5e7:	79 0d                	jns    a5f6 <safe_add_func_int32_t_s_s+0x40>
    a5e9:	b8 00 00 00 80       	mov    $0x80000000,%eax
    a5ee:	2b 45 f8             	sub    -0x8(%rbp),%eax
    a5f1:	39 45 fc             	cmp    %eax,-0x4(%rbp)
    a5f4:	7c 0a                	jl     a600 <safe_add_func_int32_t_s_s+0x4a>
    a5f6:	8b 55 fc             	mov    -0x4(%rbp),%edx
    a5f9:	8b 45 f8             	mov    -0x8(%rbp),%eax
    a5fc:	01 d0                	add    %edx,%eax
    a5fe:	eb 03                	jmp    a603 <safe_add_func_int32_t_s_s+0x4d>
    a600:	8b 45 fc             	mov    -0x4(%rbp),%eax
    a603:	5d                   	pop    %rbp
    a604:	c3                   	retq   

000000000000a605 <safe_sub_func_int32_t_s_s>:
    a605:	f3 0f 1e fa          	endbr64 
    a609:	55                   	push   %rbp
    a60a:	48 89 e5             	mov    %rsp,%rbp
    a60d:	89 7d fc             	mov    %edi,-0x4(%rbp)
    a610:	89 75 f8             	mov    %esi,-0x8(%rbp)
    a613:	8b 45 fc             	mov    -0x4(%rbp),%eax
    a616:	33 45 f8             	xor    -0x8(%rbp),%eax
    a619:	89 c2                	mov    %eax,%edx
    a61b:	8b 45 fc             	mov    -0x4(%rbp),%eax
    a61e:	33 45 f8             	xor    -0x8(%rbp),%eax
    a621:	25 00 00 00 80       	and    $0x80000000,%eax
    a626:	33 45 fc             	xor    -0x4(%rbp),%eax
    a629:	2b 45 f8             	sub    -0x8(%rbp),%eax
    a62c:	33 45 f8             	xor    -0x8(%rbp),%eax
    a62f:	21 d0                	and    %edx,%eax
    a631:	85 c0                	test   %eax,%eax
    a633:	78 08                	js     a63d <safe_sub_func_int32_t_s_s+0x38>
    a635:	8b 45 fc             	mov    -0x4(%rbp),%eax
    a638:	2b 45 f8             	sub    -0x8(%rbp),%eax
    a63b:	eb 03                	jmp    a640 <safe_sub_func_int32_t_s_s+0x3b>
    a63d:	8b 45 fc             	mov    -0x4(%rbp),%eax
    a640:	5d                   	pop    %rbp
    a641:	c3                   	retq   

000000000000a642 <safe_mul_func_int32_t_s_s>:
    a642:	f3 0f 1e fa          	endbr64 
    a646:	55                   	push   %rbp
    a647:	48 89 e5             	mov    %rsp,%rbp
    a64a:	89 7d fc             	mov    %edi,-0x4(%rbp)
    a64d:	89 75 f8             	mov    %esi,-0x8(%rbp)
    a650:	83 7d fc 00          	cmpl   $0x0,-0x4(%rbp)
    a654:	7e 14                	jle    a66a <safe_mul_func_int32_t_s_s+0x28>
    a656:	83 7d f8 00          	cmpl   $0x0,-0x8(%rbp)
    a65a:	7e 0e                	jle    a66a <safe_mul_func_int32_t_s_s+0x28>
    a65c:	b8 ff ff ff 7f       	mov    $0x7fffffff,%eax
    a661:	99                   	cltd   
    a662:	f7 7d f8             	idivl  -0x8(%rbp)
    a665:	39 45 fc             	cmp    %eax,-0x4(%rbp)
    a668:	7f 5d                	jg     a6c7 <safe_mul_func_int32_t_s_s+0x85>
    a66a:	83 7d fc 00          	cmpl   $0x0,-0x4(%rbp)
    a66e:	7e 14                	jle    a684 <safe_mul_func_int32_t_s_s+0x42>
    a670:	83 7d f8 00          	cmpl   $0x0,-0x8(%rbp)
    a674:	7f 0e                	jg     a684 <safe_mul_func_int32_t_s_s+0x42>
    a676:	b8 00 00 00 80       	mov    $0x80000000,%eax
    a67b:	99                   	cltd   
    a67c:	f7 7d fc             	idivl  -0x4(%rbp)
    a67f:	39 45 f8             	cmp    %eax,-0x8(%rbp)
    a682:	7c 43                	jl     a6c7 <safe_mul_func_int32_t_s_s+0x85>
    a684:	83 7d fc 00          	cmpl   $0x0,-0x4(%rbp)
    a688:	7f 14                	jg     a69e <safe_mul_func_int32_t_s_s+0x5c>
    a68a:	83 7d f8 00          	cmpl   $0x0,-0x8(%rbp)
    a68e:	7e 0e                	jle    a69e <safe_mul_func_int32_t_s_s+0x5c>
    a690:	b8 00 00 00 80       	mov    $0x80000000,%eax
    a695:	99                   	cltd   
    a696:	f7 7d f8             	idivl  -0x8(%rbp)
    a699:	39 45 fc             	cmp    %eax,-0x4(%rbp)
    a69c:	7c 29                	jl     a6c7 <safe_mul_func_int32_t_s_s+0x85>
    a69e:	83 7d fc 00          	cmpl   $0x0,-0x4(%rbp)
    a6a2:	7f 1a                	jg     a6be <safe_mul_func_int32_t_s_s+0x7c>
    a6a4:	83 7d f8 00          	cmpl   $0x0,-0x8(%rbp)
    a6a8:	7f 14                	jg     a6be <safe_mul_func_int32_t_s_s+0x7c>
    a6aa:	83 7d fc 00          	cmpl   $0x0,-0x4(%rbp)
    a6ae:	74 0e                	je     a6be <safe_mul_func_int32_t_s_s+0x7c>
    a6b0:	b8 ff ff ff 7f       	mov    $0x7fffffff,%eax
    a6b5:	99                   	cltd   
    a6b6:	f7 7d fc             	idivl  -0x4(%rbp)
    a6b9:	39 45 f8             	cmp    %eax,-0x8(%rbp)
    a6bc:	7c 09                	jl     a6c7 <safe_mul_func_int32_t_s_s+0x85>
    a6be:	8b 45 fc             	mov    -0x4(%rbp),%eax
    a6c1:	0f af 45 f8          	imul   -0x8(%rbp),%eax
    a6c5:	eb 03                	jmp    a6ca <safe_mul_func_int32_t_s_s+0x88>
    a6c7:	8b 45 fc             	mov    -0x4(%rbp),%eax
    a6ca:	5d                   	pop    %rbp
    a6cb:	c3                   	retq   

000000000000a6cc <safe_mod_func_int32_t_s_s>:
    a6cc:	f3 0f 1e fa          	endbr64 
    a6d0:	55                   	push   %rbp
    a6d1:	48 89 e5             	mov    %rsp,%rbp
    a6d4:	89 7d fc             	mov    %edi,-0x4(%rbp)
    a6d7:	89 75 f8             	mov    %esi,-0x8(%rbp)
    a6da:	83 7d f8 00          	cmpl   $0x0,-0x8(%rbp)
    a6de:	74 1a                	je     a6fa <safe_mod_func_int32_t_s_s+0x2e>
    a6e0:	81 7d fc 00 00 00 80 	cmpl   $0x80000000,-0x4(%rbp)
    a6e7:	75 06                	jne    a6ef <safe_mod_func_int32_t_s_s+0x23>
    a6e9:	83 7d f8 ff          	cmpl   $0xffffffff,-0x8(%rbp)
    a6ed:	74 0b                	je     a6fa <safe_mod_func_int32_t_s_s+0x2e>
    a6ef:	8b 45 fc             	mov    -0x4(%rbp),%eax
    a6f2:	99                   	cltd   
    a6f3:	f7 7d f8             	idivl  -0x8(%rbp)
    a6f6:	89 d0                	mov    %edx,%eax
    a6f8:	eb 03                	jmp    a6fd <safe_mod_func_int32_t_s_s+0x31>
    a6fa:	8b 45 fc             	mov    -0x4(%rbp),%eax
    a6fd:	5d                   	pop    %rbp
    a6fe:	c3                   	retq   

000000000000a6ff <safe_div_func_int32_t_s_s>:
    a6ff:	f3 0f 1e fa          	endbr64 
    a703:	55                   	push   %rbp
    a704:	48 89 e5             	mov    %rsp,%rbp
    a707:	89 7d fc             	mov    %edi,-0x4(%rbp)
    a70a:	89 75 f8             	mov    %esi,-0x8(%rbp)
    a70d:	83 7d f8 00          	cmpl   $0x0,-0x8(%rbp)
    a711:	74 18                	je     a72b <safe_div_func_int32_t_s_s+0x2c>
    a713:	81 7d fc 00 00 00 80 	cmpl   $0x80000000,-0x4(%rbp)
    a71a:	75 06                	jne    a722 <safe_div_func_int32_t_s_s+0x23>
    a71c:	83 7d f8 ff          	cmpl   $0xffffffff,-0x8(%rbp)
    a720:	74 09                	je     a72b <safe_div_func_int32_t_s_s+0x2c>
    a722:	8b 45 fc             	mov    -0x4(%rbp),%eax
    a725:	99                   	cltd   
    a726:	f7 7d f8             	idivl  -0x8(%rbp)
    a729:	eb 03                	jmp    a72e <safe_div_func_int32_t_s_s+0x2f>
    a72b:	8b 45 fc             	mov    -0x4(%rbp),%eax
    a72e:	5d                   	pop    %rbp
    a72f:	c3                   	retq   

000000000000a730 <safe_lshift_func_int32_t_s_s>:
    a730:	f3 0f 1e fa          	endbr64 
    a734:	55                   	push   %rbp
    a735:	48 89 e5             	mov    %rsp,%rbp
    a738:	89 7d fc             	mov    %edi,-0x4(%rbp)
    a73b:	89 75 f8             	mov    %esi,-0x8(%rbp)
    a73e:	83 7d fc 00          	cmpl   $0x0,-0x4(%rbp)
    a742:	78 2d                	js     a771 <safe_lshift_func_int32_t_s_s+0x41>
    a744:	83 7d f8 00          	cmpl   $0x0,-0x8(%rbp)
    a748:	78 27                	js     a771 <safe_lshift_func_int32_t_s_s+0x41>
    a74a:	83 7d f8 1f          	cmpl   $0x1f,-0x8(%rbp)
    a74e:	7f 21                	jg     a771 <safe_lshift_func_int32_t_s_s+0x41>
    a750:	8b 45 f8             	mov    -0x8(%rbp),%eax
    a753:	ba ff ff ff 7f       	mov    $0x7fffffff,%edx
    a758:	89 c1                	mov    %eax,%ecx
    a75a:	d3 fa                	sar    %cl,%edx
    a75c:	89 d0                	mov    %edx,%eax
    a75e:	39 45 fc             	cmp    %eax,-0x4(%rbp)
    a761:	7f 0e                	jg     a771 <safe_lshift_func_int32_t_s_s+0x41>
    a763:	8b 45 f8             	mov    -0x8(%rbp),%eax
    a766:	8b 55 fc             	mov    -0x4(%rbp),%edx
    a769:	89 c1                	mov    %eax,%ecx
    a76b:	d3 e2                	shl    %cl,%edx
    a76d:	89 d0                	mov    %edx,%eax
    a76f:	eb 03                	jmp    a774 <safe_lshift_func_int32_t_s_s+0x44>
    a771:	8b 45 fc             	mov    -0x4(%rbp),%eax
    a774:	5d                   	pop    %rbp
    a775:	c3                   	retq   

000000000000a776 <safe_lshift_func_int32_t_s_u>:
    a776:	f3 0f 1e fa          	endbr64 
    a77a:	55                   	push   %rbp
    a77b:	48 89 e5             	mov    %rsp,%rbp
    a77e:	89 7d fc             	mov    %edi,-0x4(%rbp)
    a781:	89 75 f8             	mov    %esi,-0x8(%rbp)
    a784:	83 7d fc 00          	cmpl   $0x0,-0x4(%rbp)
    a788:	78 27                	js     a7b1 <safe_lshift_func_int32_t_s_u+0x3b>
    a78a:	83 7d f8 1f          	cmpl   $0x1f,-0x8(%rbp)
    a78e:	77 21                	ja     a7b1 <safe_lshift_func_int32_t_s_u+0x3b>
    a790:	8b 45 f8             	mov    -0x8(%rbp),%eax
    a793:	ba ff ff ff 7f       	mov    $0x7fffffff,%edx
    a798:	89 c1                	mov    %eax,%ecx
    a79a:	d3 fa                	sar    %cl,%edx
    a79c:	89 d0                	mov    %edx,%eax
    a79e:	39 45 fc             	cmp    %eax,-0x4(%rbp)
    a7a1:	7f 0e                	jg     a7b1 <safe_lshift_func_int32_t_s_u+0x3b>
    a7a3:	8b 45 f8             	mov    -0x8(%rbp),%eax
    a7a6:	8b 55 fc             	mov    -0x4(%rbp),%edx
    a7a9:	89 c1                	mov    %eax,%ecx
    a7ab:	d3 e2                	shl    %cl,%edx
    a7ad:	89 d0                	mov    %edx,%eax
    a7af:	eb 03                	jmp    a7b4 <safe_lshift_func_int32_t_s_u+0x3e>
    a7b1:	8b 45 fc             	mov    -0x4(%rbp),%eax
    a7b4:	5d                   	pop    %rbp
    a7b5:	c3                   	retq   

000000000000a7b6 <safe_rshift_func_int32_t_s_s>:
    a7b6:	f3 0f 1e fa          	endbr64 
    a7ba:	55                   	push   %rbp
    a7bb:	48 89 e5             	mov    %rsp,%rbp
    a7be:	89 7d fc             	mov    %edi,-0x4(%rbp)
    a7c1:	89 75 f8             	mov    %esi,-0x8(%rbp)
    a7c4:	83 7d fc 00          	cmpl   $0x0,-0x4(%rbp)
    a7c8:	78 1a                	js     a7e4 <safe_rshift_func_int32_t_s_s+0x2e>
    a7ca:	83 7d f8 00          	cmpl   $0x0,-0x8(%rbp)
    a7ce:	78 14                	js     a7e4 <safe_rshift_func_int32_t_s_s+0x2e>
    a7d0:	83 7d f8 1f          	cmpl   $0x1f,-0x8(%rbp)
    a7d4:	7f 0e                	jg     a7e4 <safe_rshift_func_int32_t_s_s+0x2e>
    a7d6:	8b 45 f8             	mov    -0x8(%rbp),%eax
    a7d9:	8b 55 fc             	mov    -0x4(%rbp),%edx
    a7dc:	89 c1                	mov    %eax,%ecx
    a7de:	d3 fa                	sar    %cl,%edx
    a7e0:	89 d0                	mov    %edx,%eax
    a7e2:	eb 03                	jmp    a7e7 <safe_rshift_func_int32_t_s_s+0x31>
    a7e4:	8b 45 fc             	mov    -0x4(%rbp),%eax
    a7e7:	5d                   	pop    %rbp
    a7e8:	c3                   	retq   

000000000000a7e9 <safe_rshift_func_int32_t_s_u>:
    a7e9:	f3 0f 1e fa          	endbr64 
    a7ed:	55                   	push   %rbp
    a7ee:	48 89 e5             	mov    %rsp,%rbp
    a7f1:	89 7d fc             	mov    %edi,-0x4(%rbp)
    a7f4:	89 75 f8             	mov    %esi,-0x8(%rbp)
    a7f7:	83 7d fc 00          	cmpl   $0x0,-0x4(%rbp)
    a7fb:	78 14                	js     a811 <safe_rshift_func_int32_t_s_u+0x28>
    a7fd:	83 7d f8 1f          	cmpl   $0x1f,-0x8(%rbp)
    a801:	77 0e                	ja     a811 <safe_rshift_func_int32_t_s_u+0x28>
    a803:	8b 45 f8             	mov    -0x8(%rbp),%eax
    a806:	8b 55 fc             	mov    -0x4(%rbp),%edx
    a809:	89 c1                	mov    %eax,%ecx
    a80b:	d3 fa                	sar    %cl,%edx
    a80d:	89 d0                	mov    %edx,%eax
    a80f:	eb 03                	jmp    a814 <safe_rshift_func_int32_t_s_u+0x2b>
    a811:	8b 45 fc             	mov    -0x4(%rbp),%eax
    a814:	5d                   	pop    %rbp
    a815:	c3                   	retq   

000000000000a816 <safe_unary_minus_func_int64_t_s>:
    a816:	f3 0f 1e fa          	endbr64 
    a81a:	55                   	push   %rbp
    a81b:	48 89 e5             	mov    %rsp,%rbp
    a81e:	48 89 7d f8          	mov    %rdi,-0x8(%rbp)
    a822:	48 b8 00 00 00 00 00 	movabs $0x8000000000000000,%rax
    a829:	00 00 80 
    a82c:	48 39 45 f8          	cmp    %rax,-0x8(%rbp)
    a830:	74 09                	je     a83b <safe_unary_minus_func_int64_t_s+0x25>
    a832:	48 8b 45 f8          	mov    -0x8(%rbp),%rax
    a836:	48 f7 d8             	neg    %rax
    a839:	eb 04                	jmp    a83f <safe_unary_minus_func_int64_t_s+0x29>
    a83b:	48 8b 45 f8          	mov    -0x8(%rbp),%rax
    a83f:	5d                   	pop    %rbp
    a840:	c3                   	retq   

000000000000a841 <safe_add_func_int64_t_s_s>:
    a841:	f3 0f 1e fa          	endbr64 
    a845:	55                   	push   %rbp
    a846:	48 89 e5             	mov    %rsp,%rbp
    a849:	48 89 7d f8          	mov    %rdi,-0x8(%rbp)
    a84d:	48 89 75 f0          	mov    %rsi,-0x10(%rbp)
    a851:	48 83 7d f8 00       	cmpq   $0x0,-0x8(%rbp)
    a856:	7e 1b                	jle    a873 <safe_add_func_int64_t_s_s+0x32>
    a858:	48 83 7d f0 00       	cmpq   $0x0,-0x10(%rbp)
    a85d:	7e 14                	jle    a873 <safe_add_func_int64_t_s_s+0x32>
    a85f:	48 b8 ff ff ff ff ff 	movabs $0x7fffffffffffffff,%rax
    a866:	ff ff 7f 
    a869:	48 2b 45 f0          	sub    -0x10(%rbp),%rax
    a86d:	48 39 45 f8          	cmp    %rax,-0x8(%rbp)
    a871:	7f 2f                	jg     a8a2 <safe_add_func_int64_t_s_s+0x61>
    a873:	48 83 7d f8 00       	cmpq   $0x0,-0x8(%rbp)
    a878:	79 1b                	jns    a895 <safe_add_func_int64_t_s_s+0x54>
    a87a:	48 83 7d f0 00       	cmpq   $0x0,-0x10(%rbp)
    a87f:	79 14                	jns    a895 <safe_add_func_int64_t_s_s+0x54>
    a881:	48 b8 00 00 00 00 00 	movabs $0x8000000000000000,%rax
    a888:	00 00 80 
    a88b:	48 2b 45 f0          	sub    -0x10(%rbp),%rax
    a88f:	48 39 45 f8          	cmp    %rax,-0x8(%rbp)
    a893:	7c 0d                	jl     a8a2 <safe_add_func_int64_t_s_s+0x61>
    a895:	48 8b 55 f8          	mov    -0x8(%rbp),%rdx
    a899:	48 8b 45 f0          	mov    -0x10(%rbp),%rax
    a89d:	48 01 d0             	add    %rdx,%rax
    a8a0:	eb 04                	jmp    a8a6 <safe_add_func_int64_t_s_s+0x65>
    a8a2:	48 8b 45 f8          	mov    -0x8(%rbp),%rax
    a8a6:	5d                   	pop    %rbp
    a8a7:	c3                   	retq   

000000000000a8a8 <safe_sub_func_int64_t_s_s>:
    a8a8:	f3 0f 1e fa          	endbr64 
    a8ac:	55                   	push   %rbp
    a8ad:	48 89 e5             	mov    %rsp,%rbp
    a8b0:	48 89 7d f8          	mov    %rdi,-0x8(%rbp)
    a8b4:	48 89 75 f0          	mov    %rsi,-0x10(%rbp)
    a8b8:	48 8b 45 f8          	mov    -0x8(%rbp),%rax
    a8bc:	48 33 45 f0          	xor    -0x10(%rbp),%rax
    a8c0:	48 89 c2             	mov    %rax,%rdx
    a8c3:	48 8b 45 f8          	mov    -0x8(%rbp),%rax
    a8c7:	48 33 45 f0          	xor    -0x10(%rbp),%rax
    a8cb:	48 b9 00 00 00 00 00 	movabs $0x8000000000000000,%rcx
    a8d2:	00 00 80 
    a8d5:	48 21 c8             	and    %rcx,%rax
    a8d8:	48 33 45 f8          	xor    -0x8(%rbp),%rax
    a8dc:	48 2b 45 f0          	sub    -0x10(%rbp),%rax
    a8e0:	48 33 45 f0          	xor    -0x10(%rbp),%rax
    a8e4:	48 21 d0             	and    %rdx,%rax
    a8e7:	48 85 c0             	test   %rax,%rax
    a8ea:	78 0a                	js     a8f6 <safe_sub_func_int64_t_s_s+0x4e>
    a8ec:	48 8b 45 f8          	mov    -0x8(%rbp),%rax
    a8f0:	48 2b 45 f0          	sub    -0x10(%rbp),%rax
    a8f4:	eb 04                	jmp    a8fa <safe_sub_func_int64_t_s_s+0x52>
    a8f6:	48 8b 45 f8          	mov    -0x8(%rbp),%rax
    a8fa:	5d                   	pop    %rbp
    a8fb:	c3                   	retq   

000000000000a8fc <safe_mul_func_int64_t_s_s>:
    a8fc:	f3 0f 1e fa          	endbr64 
    a900:	55                   	push   %rbp
    a901:	48 89 e5             	mov    %rsp,%rbp
    a904:	48 89 7d f8          	mov    %rdi,-0x8(%rbp)
    a908:	48 89 75 f0          	mov    %rsi,-0x10(%rbp)
    a90c:	48 83 7d f8 00       	cmpq   $0x0,-0x8(%rbp)
    a911:	7e 1d                	jle    a930 <safe_mul_func_int64_t_s_s+0x34>
    a913:	48 83 7d f0 00       	cmpq   $0x0,-0x10(%rbp)
    a918:	7e 16                	jle    a930 <safe_mul_func_int64_t_s_s+0x34>
    a91a:	48 b8 ff ff ff ff ff 	movabs $0x7fffffffffffffff,%rax
    a921:	ff ff 7f 
    a924:	48 99                	cqto   
    a926:	48 f7 7d f0          	idivq  -0x10(%rbp)
    a92a:	48 39 45 f8          	cmp    %rax,-0x8(%rbp)
    a92e:	7f 7e                	jg     a9ae <safe_mul_func_int64_t_s_s+0xb2>
    a930:	48 83 7d f8 00       	cmpq   $0x0,-0x8(%rbp)
    a935:	7e 1d                	jle    a954 <safe_mul_func_int64_t_s_s+0x58>
    a937:	48 83 7d f0 00       	cmpq   $0x0,-0x10(%rbp)
    a93c:	7f 16                	jg     a954 <safe_mul_func_int64_t_s_s+0x58>
    a93e:	48 b8 00 00 00 00 00 	movabs $0x8000000000000000,%rax
    a945:	00 00 80 
    a948:	48 99                	cqto   
    a94a:	48 f7 7d f8          	idivq  -0x8(%rbp)
    a94e:	48 39 45 f0          	cmp    %rax,-0x10(%rbp)
    a952:	7c 5a                	jl     a9ae <safe_mul_func_int64_t_s_s+0xb2>
    a954:	48 83 7d f8 00       	cmpq   $0x0,-0x8(%rbp)
    a959:	7f 1d                	jg     a978 <safe_mul_func_int64_t_s_s+0x7c>
    a95b:	48 83 7d f0 00       	cmpq   $0x0,-0x10(%rbp)
    a960:	7e 16                	jle    a978 <safe_mul_func_int64_t_s_s+0x7c>
    a962:	48 b8 00 00 00 00 00 	movabs $0x8000000000000000,%rax
    a969:	00 00 80 
    a96c:	48 99                	cqto   
    a96e:	48 f7 7d f0          	idivq  -0x10(%rbp)
    a972:	48 39 45 f8          	cmp    %rax,-0x8(%rbp)
    a976:	7c 36                	jl     a9ae <safe_mul_func_int64_t_s_s+0xb2>
    a978:	48 83 7d f8 00       	cmpq   $0x0,-0x8(%rbp)
    a97d:	7f 24                	jg     a9a3 <safe_mul_func_int64_t_s_s+0xa7>
    a97f:	48 83 7d f0 00       	cmpq   $0x0,-0x10(%rbp)
    a984:	7f 1d                	jg     a9a3 <safe_mul_func_int64_t_s_s+0xa7>
    a986:	48 83 7d f8 00       	cmpq   $0x0,-0x8(%rbp)
    a98b:	74 16                	je     a9a3 <safe_mul_func_int64_t_s_s+0xa7>
    a98d:	48 b8 ff ff ff ff ff 	movabs $0x7fffffffffffffff,%rax
    a994:	ff ff 7f 
    a997:	48 99                	cqto   
    a999:	48 f7 7d f8          	idivq  -0x8(%rbp)
    a99d:	48 39 45 f0          	cmp    %rax,-0x10(%rbp)
    a9a1:	7c 0b                	jl     a9ae <safe_mul_func_int64_t_s_s+0xb2>
    a9a3:	48 8b 45 f8          	mov    -0x8(%rbp),%rax
    a9a7:	48 0f af 45 f0       	imul   -0x10(%rbp),%rax
    a9ac:	eb 04                	jmp    a9b2 <safe_mul_func_int64_t_s_s+0xb6>
    a9ae:	48 8b 45 f8          	mov    -0x8(%rbp),%rax
    a9b2:	5d                   	pop    %rbp
    a9b3:	c3                   	retq   

000000000000a9b4 <safe_mod_func_int64_t_s_s>:
    a9b4:	f3 0f 1e fa          	endbr64 
    a9b8:	55                   	push   %rbp
    a9b9:	48 89 e5             	mov    %rsp,%rbp
    a9bc:	48 89 7d f8          	mov    %rdi,-0x8(%rbp)
    a9c0:	48 89 75 f0          	mov    %rsi,-0x10(%rbp)
    a9c4:	48 83 7d f0 00       	cmpq   $0x0,-0x10(%rbp)
    a9c9:	74 26                	je     a9f1 <safe_mod_func_int64_t_s_s+0x3d>
    a9cb:	48 b8 00 00 00 00 00 	movabs $0x8000000000000000,%rax
    a9d2:	00 00 80 
    a9d5:	48 39 45 f8          	cmp    %rax,-0x8(%rbp)
    a9d9:	75 07                	jne    a9e2 <safe_mod_func_int64_t_s_s+0x2e>
    a9db:	48 83 7d f0 ff       	cmpq   $0xffffffffffffffff,-0x10(%rbp)
    a9e0:	74 0f                	je     a9f1 <safe_mod_func_int64_t_s_s+0x3d>
    a9e2:	48 8b 45 f8          	mov    -0x8(%rbp),%rax
    a9e6:	48 99                	cqto   
    a9e8:	48 f7 7d f0          	idivq  -0x10(%rbp)
    a9ec:	48 89 d0             	mov    %rdx,%rax
    a9ef:	eb 04                	jmp    a9f5 <safe_mod_func_int64_t_s_s+0x41>
    a9f1:	48 8b 45 f8          	mov    -0x8(%rbp),%rax
    a9f5:	5d                   	pop    %rbp
    a9f6:	c3                   	retq   

000000000000a9f7 <safe_div_func_int64_t_s_s>:
    a9f7:	f3 0f 1e fa          	endbr64 
    a9fb:	55                   	push   %rbp
    a9fc:	48 89 e5             	mov    %rsp,%rbp
    a9ff:	48 89 7d f8          	mov    %rdi,-0x8(%rbp)
    aa03:	48 89 75 f0          	mov    %rsi,-0x10(%rbp)
    aa07:	48 83 7d f0 00       	cmpq   $0x0,-0x10(%rbp)
    aa0c:	74 23                	je     aa31 <safe_div_func_int64_t_s_s+0x3a>
    aa0e:	48 b8 00 00 00 00 00 	movabs $0x8000000000000000,%rax
    aa15:	00 00 80 
    aa18:	48 39 45 f8          	cmp    %rax,-0x8(%rbp)
    aa1c:	75 07                	jne    aa25 <safe_div_func_int64_t_s_s+0x2e>
    aa1e:	48 83 7d f0 ff       	cmpq   $0xffffffffffffffff,-0x10(%rbp)
    aa23:	74 0c                	je     aa31 <safe_div_func_int64_t_s_s+0x3a>
    aa25:	48 8b 45 f8          	mov    -0x8(%rbp),%rax
    aa29:	48 99                	cqto   
    aa2b:	48 f7 7d f0          	idivq  -0x10(%rbp)
    aa2f:	eb 04                	jmp    aa35 <safe_div_func_int64_t_s_s+0x3e>
    aa31:	48 8b 45 f8          	mov    -0x8(%rbp),%rax
    aa35:	5d                   	pop    %rbp
    aa36:	c3                   	retq   

000000000000aa37 <safe_lshift_func_int64_t_s_s>:
    aa37:	f3 0f 1e fa          	endbr64 
    aa3b:	55                   	push   %rbp
    aa3c:	48 89 e5             	mov    %rsp,%rbp
    aa3f:	48 89 7d f8          	mov    %rdi,-0x8(%rbp)
    aa43:	89 75 f4             	mov    %esi,-0xc(%rbp)
    aa46:	48 83 7d f8 00       	cmpq   $0x0,-0x8(%rbp)
    aa4b:	78 38                	js     aa85 <safe_lshift_func_int64_t_s_s+0x4e>
    aa4d:	83 7d f4 00          	cmpl   $0x0,-0xc(%rbp)
    aa51:	78 32                	js     aa85 <safe_lshift_func_int64_t_s_s+0x4e>
    aa53:	83 7d f4 1f          	cmpl   $0x1f,-0xc(%rbp)
    aa57:	7f 2c                	jg     aa85 <safe_lshift_func_int64_t_s_s+0x4e>
    aa59:	8b 45 f4             	mov    -0xc(%rbp),%eax
    aa5c:	48 ba ff ff ff ff ff 	movabs $0x7fffffffffffffff,%rdx
    aa63:	ff ff 7f 
    aa66:	89 c1                	mov    %eax,%ecx
    aa68:	48 d3 fa             	sar    %cl,%rdx
    aa6b:	48 89 d0             	mov    %rdx,%rax
    aa6e:	48 39 45 f8          	cmp    %rax,-0x8(%rbp)
    aa72:	7f 11                	jg     aa85 <safe_lshift_func_int64_t_s_s+0x4e>
    aa74:	8b 45 f4             	mov    -0xc(%rbp),%eax
    aa77:	48 8b 55 f8          	mov    -0x8(%rbp),%rdx
    aa7b:	89 c1                	mov    %eax,%ecx
    aa7d:	48 d3 e2             	shl    %cl,%rdx
    aa80:	48 89 d0             	mov    %rdx,%rax
    aa83:	eb 04                	jmp    aa89 <safe_lshift_func_int64_t_s_s+0x52>
    aa85:	48 8b 45 f8          	mov    -0x8(%rbp),%rax
    aa89:	5d                   	pop    %rbp
    aa8a:	c3                   	retq   

000000000000aa8b <safe_lshift_func_int64_t_s_u>:
    aa8b:	f3 0f 1e fa          	endbr64 
    aa8f:	55                   	push   %rbp
    aa90:	48 89 e5             	mov    %rsp,%rbp
    aa93:	48 89 7d f8          	mov    %rdi,-0x8(%rbp)
    aa97:	89 75 f4             	mov    %esi,-0xc(%rbp)
    aa9a:	48 83 7d f8 00       	cmpq   $0x0,-0x8(%rbp)
    aa9f:	78 32                	js     aad3 <safe_lshift_func_int64_t_s_u+0x48>
    aaa1:	83 7d f4 1f          	cmpl   $0x1f,-0xc(%rbp)
    aaa5:	77 2c                	ja     aad3 <safe_lshift_func_int64_t_s_u+0x48>
    aaa7:	8b 45 f4             	mov    -0xc(%rbp),%eax
    aaaa:	48 ba ff ff ff ff ff 	movabs $0x7fffffffffffffff,%rdx
    aab1:	ff ff 7f 
    aab4:	89 c1                	mov    %eax,%ecx
    aab6:	48 d3 fa             	sar    %cl,%rdx
    aab9:	48 89 d0             	mov    %rdx,%rax
    aabc:	48 39 45 f8          	cmp    %rax,-0x8(%rbp)
    aac0:	7f 11                	jg     aad3 <safe_lshift_func_int64_t_s_u+0x48>
    aac2:	8b 45 f4             	mov    -0xc(%rbp),%eax
    aac5:	48 8b 55 f8          	mov    -0x8(%rbp),%rdx
    aac9:	89 c1                	mov    %eax,%ecx
    aacb:	48 d3 e2             	shl    %cl,%rdx
    aace:	48 89 d0             	mov    %rdx,%rax
    aad1:	eb 04                	jmp    aad7 <safe_lshift_func_int64_t_s_u+0x4c>
    aad3:	48 8b 45 f8          	mov    -0x8(%rbp),%rax
    aad7:	5d                   	pop    %rbp
    aad8:	c3                   	retq   

000000000000aad9 <safe_rshift_func_int64_t_s_s>:
    aad9:	f3 0f 1e fa          	endbr64 
    aadd:	55                   	push   %rbp
    aade:	48 89 e5             	mov    %rsp,%rbp
    aae1:	48 89 7d f8          	mov    %rdi,-0x8(%rbp)
    aae5:	89 75 f4             	mov    %esi,-0xc(%rbp)
    aae8:	48 83 7d f8 00       	cmpq   $0x0,-0x8(%rbp)
    aaed:	78 1d                	js     ab0c <safe_rshift_func_int64_t_s_s+0x33>
    aaef:	83 7d f4 00          	cmpl   $0x0,-0xc(%rbp)
    aaf3:	78 17                	js     ab0c <safe_rshift_func_int64_t_s_s+0x33>
    aaf5:	83 7d f4 1f          	cmpl   $0x1f,-0xc(%rbp)
    aaf9:	7f 11                	jg     ab0c <safe_rshift_func_int64_t_s_s+0x33>
    aafb:	8b 45 f4             	mov    -0xc(%rbp),%eax
    aafe:	48 8b 55 f8          	mov    -0x8(%rbp),%rdx
    ab02:	89 c1                	mov    %eax,%ecx
    ab04:	48 d3 fa             	sar    %cl,%rdx
    ab07:	48 89 d0             	mov    %rdx,%rax
    ab0a:	eb 04                	jmp    ab10 <safe_rshift_func_int64_t_s_s+0x37>
    ab0c:	48 8b 45 f8          	mov    -0x8(%rbp),%rax
    ab10:	5d                   	pop    %rbp
    ab11:	c3                   	retq   

000000000000ab12 <safe_rshift_func_int64_t_s_u>:
    ab12:	f3 0f 1e fa          	endbr64 
    ab16:	55                   	push   %rbp
    ab17:	48 89 e5             	mov    %rsp,%rbp
    ab1a:	48 89 7d f8          	mov    %rdi,-0x8(%rbp)
    ab1e:	89 75 f4             	mov    %esi,-0xc(%rbp)
    ab21:	48 83 7d f8 00       	cmpq   $0x0,-0x8(%rbp)
    ab26:	78 17                	js     ab3f <safe_rshift_func_int64_t_s_u+0x2d>
    ab28:	83 7d f4 1f          	cmpl   $0x1f,-0xc(%rbp)
    ab2c:	77 11                	ja     ab3f <safe_rshift_func_int64_t_s_u+0x2d>
    ab2e:	8b 45 f4             	mov    -0xc(%rbp),%eax
    ab31:	48 8b 55 f8          	mov    -0x8(%rbp),%rdx
    ab35:	89 c1                	mov    %eax,%ecx
    ab37:	48 d3 fa             	sar    %cl,%rdx
    ab3a:	48 89 d0             	mov    %rdx,%rax
    ab3d:	eb 04                	jmp    ab43 <safe_rshift_func_int64_t_s_u+0x31>
    ab3f:	48 8b 45 f8          	mov    -0x8(%rbp),%rax
    ab43:	5d                   	pop    %rbp
    ab44:	c3                   	retq   

000000000000ab45 <safe_unary_minus_func_uint8_t_u>:
    ab45:	f3 0f 1e fa          	endbr64 
    ab49:	55                   	push   %rbp
    ab4a:	48 89 e5             	mov    %rsp,%rbp
    ab4d:	89 f8                	mov    %edi,%eax
    ab4f:	88 45 fc             	mov    %al,-0x4(%rbp)
    ab52:	0f b6 45 fc          	movzbl -0x4(%rbp),%eax
    ab56:	f7 d8                	neg    %eax
    ab58:	5d                   	pop    %rbp
    ab59:	c3                   	retq   

000000000000ab5a <safe_add_func_uint8_t_u_u>:
    ab5a:	f3 0f 1e fa          	endbr64 
    ab5e:	55                   	push   %rbp
    ab5f:	48 89 e5             	mov    %rsp,%rbp
    ab62:	89 fa                	mov    %edi,%edx
    ab64:	89 f0                	mov    %esi,%eax
    ab66:	88 55 fc             	mov    %dl,-0x4(%rbp)
    ab69:	88 45 f8             	mov    %al,-0x8(%rbp)
    ab6c:	0f b6 55 fc          	movzbl -0x4(%rbp),%edx
    ab70:	0f b6 45 f8          	movzbl -0x8(%rbp),%eax
    ab74:	01 d0                	add    %edx,%eax
    ab76:	5d                   	pop    %rbp
    ab77:	c3                   	retq   

000000000000ab78 <safe_sub_func_uint8_t_u_u>:
    ab78:	f3 0f 1e fa          	endbr64 
    ab7c:	55                   	push   %rbp
    ab7d:	48 89 e5             	mov    %rsp,%rbp
    ab80:	89 fa                	mov    %edi,%edx
    ab82:	89 f0                	mov    %esi,%eax
    ab84:	88 55 fc             	mov    %dl,-0x4(%rbp)
    ab87:	88 45 f8             	mov    %al,-0x8(%rbp)
    ab8a:	0f b6 45 fc          	movzbl -0x4(%rbp),%eax
    ab8e:	2a 45 f8             	sub    -0x8(%rbp),%al
    ab91:	5d                   	pop    %rbp
    ab92:	c3                   	retq   

000000000000ab93 <safe_mul_func_uint8_t_u_u>:
    ab93:	f3 0f 1e fa          	endbr64 
    ab97:	55                   	push   %rbp
    ab98:	48 89 e5             	mov    %rsp,%rbp
    ab9b:	89 fa                	mov    %edi,%edx
    ab9d:	89 f0                	mov    %esi,%eax
    ab9f:	88 55 fc             	mov    %dl,-0x4(%rbp)
    aba2:	88 45 f8             	mov    %al,-0x8(%rbp)
    aba5:	0f b6 45 fc          	movzbl -0x4(%rbp),%eax
    aba9:	f6 65 f8             	mulb   -0x8(%rbp)
    abac:	5d                   	pop    %rbp
    abad:	c3                   	retq   

000000000000abae <safe_mod_func_uint8_t_u_u>:
    abae:	f3 0f 1e fa          	endbr64 
    abb2:	55                   	push   %rbp
    abb3:	48 89 e5             	mov    %rsp,%rbp
    abb6:	89 fa                	mov    %edi,%edx
    abb8:	89 f0                	mov    %esi,%eax
    abba:	88 55 fc             	mov    %dl,-0x4(%rbp)
    abbd:	88 45 f8             	mov    %al,-0x8(%rbp)
    abc0:	80 7d f8 00          	cmpb   $0x0,-0x8(%rbp)
    abc4:	74 0f                	je     abd5 <safe_mod_func_uint8_t_u_u+0x27>
    abc6:	0f b6 45 fc          	movzbl -0x4(%rbp),%eax
    abca:	0f b6 c0             	movzbl %al,%eax
    abcd:	f6 75 f8             	divb   -0x8(%rbp)
    abd0:	0f b6 c4             	movzbl %ah,%eax
    abd3:	eb 04                	jmp    abd9 <safe_mod_func_uint8_t_u_u+0x2b>
    abd5:	0f b6 45 fc          	movzbl -0x4(%rbp),%eax
    abd9:	5d                   	pop    %rbp
    abda:	c3                   	retq   

000000000000abdb <safe_div_func_uint8_t_u_u>:
    abdb:	f3 0f 1e fa          	endbr64 
    abdf:	55                   	push   %rbp
    abe0:	48 89 e5             	mov    %rsp,%rbp
    abe3:	89 fa                	mov    %edi,%edx
    abe5:	89 f0                	mov    %esi,%eax
    abe7:	88 55 fc             	mov    %dl,-0x4(%rbp)
    abea:	88 45 f8             	mov    %al,-0x8(%rbp)
    abed:	80 7d f8 00          	cmpb   $0x0,-0x8(%rbp)
    abf1:	74 0c                	je     abff <safe_div_func_uint8_t_u_u+0x24>
    abf3:	0f b6 45 fc          	movzbl -0x4(%rbp),%eax
    abf7:	0f b6 c0             	movzbl %al,%eax
    abfa:	f6 75 f8             	divb   -0x8(%rbp)
    abfd:	eb 04                	jmp    ac03 <safe_div_func_uint8_t_u_u+0x28>
    abff:	0f b6 45 fc          	movzbl -0x4(%rbp),%eax
    ac03:	5d                   	pop    %rbp
    ac04:	c3                   	retq   

000000000000ac05 <safe_lshift_func_uint8_t_u_s>:
    ac05:	f3 0f 1e fa          	endbr64 
    ac09:	55                   	push   %rbp
    ac0a:	48 89 e5             	mov    %rsp,%rbp
    ac0d:	89 f8                	mov    %edi,%eax
    ac0f:	89 75 f8             	mov    %esi,-0x8(%rbp)
    ac12:	88 45 fc             	mov    %al,-0x4(%rbp)
    ac15:	83 7d f8 00          	cmpl   $0x0,-0x8(%rbp)
    ac19:	78 2b                	js     ac46 <safe_lshift_func_uint8_t_u_s+0x41>
    ac1b:	83 7d f8 1f          	cmpl   $0x1f,-0x8(%rbp)
    ac1f:	7f 25                	jg     ac46 <safe_lshift_func_uint8_t_u_s+0x41>
    ac21:	0f b6 55 fc          	movzbl -0x4(%rbp),%edx
    ac25:	8b 45 f8             	mov    -0x8(%rbp),%eax
    ac28:	be ff 00 00 00       	mov    $0xff,%esi
    ac2d:	89 c1                	mov    %eax,%ecx
    ac2f:	d3 fe                	sar    %cl,%esi
    ac31:	89 f0                	mov    %esi,%eax
    ac33:	39 c2                	cmp    %eax,%edx
    ac35:	7f 0f                	jg     ac46 <safe_lshift_func_uint8_t_u_s+0x41>
    ac37:	0f b6 55 fc          	movzbl -0x4(%rbp),%edx
    ac3b:	8b 45 f8             	mov    -0x8(%rbp),%eax
    ac3e:	89 c1                	mov    %eax,%ecx
    ac40:	d3 e2                	shl    %cl,%edx
    ac42:	89 d0                	mov    %edx,%eax
    ac44:	eb 04                	jmp    ac4a <safe_lshift_func_uint8_t_u_s+0x45>
    ac46:	0f b6 45 fc          	movzbl -0x4(%rbp),%eax
    ac4a:	5d                   	pop    %rbp
    ac4b:	c3                   	retq   

000000000000ac4c <safe_lshift_func_uint8_t_u_u>:
    ac4c:	f3 0f 1e fa          	endbr64 
    ac50:	55                   	push   %rbp
    ac51:	48 89 e5             	mov    %rsp,%rbp
    ac54:	89 f8                	mov    %edi,%eax
    ac56:	89 75 f8             	mov    %esi,-0x8(%rbp)
    ac59:	88 45 fc             	mov    %al,-0x4(%rbp)
    ac5c:	83 7d f8 1f          	cmpl   $0x1f,-0x8(%rbp)
    ac60:	77 25                	ja     ac87 <safe_lshift_func_uint8_t_u_u+0x3b>
    ac62:	0f b6 55 fc          	movzbl -0x4(%rbp),%edx
    ac66:	8b 45 f8             	mov    -0x8(%rbp),%eax
    ac69:	be ff 00 00 00       	mov    $0xff,%esi
    ac6e:	89 c1                	mov    %eax,%ecx
    ac70:	d3 fe                	sar    %cl,%esi
    ac72:	89 f0                	mov    %esi,%eax
    ac74:	39 c2                	cmp    %eax,%edx
    ac76:	7f 0f                	jg     ac87 <safe_lshift_func_uint8_t_u_u+0x3b>
    ac78:	0f b6 55 fc          	movzbl -0x4(%rbp),%edx
    ac7c:	8b 45 f8             	mov    -0x8(%rbp),%eax
    ac7f:	89 c1                	mov    %eax,%ecx
    ac81:	d3 e2                	shl    %cl,%edx
    ac83:	89 d0                	mov    %edx,%eax
    ac85:	eb 04                	jmp    ac8b <safe_lshift_func_uint8_t_u_u+0x3f>
    ac87:	0f b6 45 fc          	movzbl -0x4(%rbp),%eax
    ac8b:	5d                   	pop    %rbp
    ac8c:	c3                   	retq   

000000000000ac8d <safe_rshift_func_uint8_t_u_s>:
    ac8d:	f3 0f 1e fa          	endbr64 
    ac91:	55                   	push   %rbp
    ac92:	48 89 e5             	mov    %rsp,%rbp
    ac95:	89 f8                	mov    %edi,%eax
    ac97:	89 75 f8             	mov    %esi,-0x8(%rbp)
    ac9a:	88 45 fc             	mov    %al,-0x4(%rbp)
    ac9d:	83 7d f8 00          	cmpl   $0x0,-0x8(%rbp)
    aca1:	78 15                	js     acb8 <safe_rshift_func_uint8_t_u_s+0x2b>
    aca3:	83 7d f8 1f          	cmpl   $0x1f,-0x8(%rbp)
    aca7:	7f 0f                	jg     acb8 <safe_rshift_func_uint8_t_u_s+0x2b>
    aca9:	0f b6 55 fc          	movzbl -0x4(%rbp),%edx
    acad:	8b 45 f8             	mov    -0x8(%rbp),%eax
    acb0:	89 c1                	mov    %eax,%ecx
    acb2:	d3 fa                	sar    %cl,%edx
    acb4:	89 d0                	mov    %edx,%eax
    acb6:	eb 04                	jmp    acbc <safe_rshift_func_uint8_t_u_s+0x2f>
    acb8:	0f b6 45 fc          	movzbl -0x4(%rbp),%eax
    acbc:	5d                   	pop    %rbp
    acbd:	c3                   	retq   

000000000000acbe <safe_rshift_func_uint8_t_u_u>:
    acbe:	f3 0f 1e fa          	endbr64 
    acc2:	55                   	push   %rbp
    acc3:	48 89 e5             	mov    %rsp,%rbp
    acc6:	89 f8                	mov    %edi,%eax
    acc8:	89 75 f8             	mov    %esi,-0x8(%rbp)
    accb:	88 45 fc             	mov    %al,-0x4(%rbp)
    acce:	83 7d f8 1f          	cmpl   $0x1f,-0x8(%rbp)
    acd2:	77 0f                	ja     ace3 <safe_rshift_func_uint8_t_u_u+0x25>
    acd4:	0f b6 55 fc          	movzbl -0x4(%rbp),%edx
    acd8:	8b 45 f8             	mov    -0x8(%rbp),%eax
    acdb:	89 c1                	mov    %eax,%ecx
    acdd:	d3 fa                	sar    %cl,%edx
    acdf:	89 d0                	mov    %edx,%eax
    ace1:	eb 04                	jmp    ace7 <safe_rshift_func_uint8_t_u_u+0x29>
    ace3:	0f b6 45 fc          	movzbl -0x4(%rbp),%eax
    ace7:	5d                   	pop    %rbp
    ace8:	c3                   	retq   

000000000000ace9 <safe_unary_minus_func_uint16_t_u>:
    ace9:	f3 0f 1e fa          	endbr64 
    aced:	55                   	push   %rbp
    acee:	48 89 e5             	mov    %rsp,%rbp
    acf1:	89 f8                	mov    %edi,%eax
    acf3:	66 89 45 fc          	mov    %ax,-0x4(%rbp)
    acf7:	0f b7 45 fc          	movzwl -0x4(%rbp),%eax
    acfb:	f7 d8                	neg    %eax
    acfd:	5d                   	pop    %rbp
    acfe:	c3                   	retq   

000000000000acff <safe_add_func_uint16_t_u_u>:
    acff:	f3 0f 1e fa          	endbr64 
    ad03:	55                   	push   %rbp
    ad04:	48 89 e5             	mov    %rsp,%rbp
    ad07:	89 fa                	mov    %edi,%edx
    ad09:	89 f0                	mov    %esi,%eax
    ad0b:	66 89 55 fc          	mov    %dx,-0x4(%rbp)
    ad0f:	66 89 45 f8          	mov    %ax,-0x8(%rbp)
    ad13:	0f b7 55 fc          	movzwl -0x4(%rbp),%edx
    ad17:	0f b7 45 f8          	movzwl -0x8(%rbp),%eax
    ad1b:	01 d0                	add    %edx,%eax
    ad1d:	5d                   	pop    %rbp
    ad1e:	c3                   	retq   

000000000000ad1f <safe_sub_func_uint16_t_u_u>:
    ad1f:	f3 0f 1e fa          	endbr64 
    ad23:	55                   	push   %rbp
    ad24:	48 89 e5             	mov    %rsp,%rbp
    ad27:	89 fa                	mov    %edi,%edx
    ad29:	89 f0                	mov    %esi,%eax
    ad2b:	66 89 55 fc          	mov    %dx,-0x4(%rbp)
    ad2f:	66 89 45 f8          	mov    %ax,-0x8(%rbp)
    ad33:	0f b7 45 fc          	movzwl -0x4(%rbp),%eax
    ad37:	66 2b 45 f8          	sub    -0x8(%rbp),%ax
    ad3b:	5d                   	pop    %rbp
    ad3c:	c3                   	retq   

000000000000ad3d <safe_mul_func_uint16_t_u_u>:
    ad3d:	f3 0f 1e fa          	endbr64 
    ad41:	55                   	push   %rbp
    ad42:	48 89 e5             	mov    %rsp,%rbp
    ad45:	89 fa                	mov    %edi,%edx
    ad47:	89 f0                	mov    %esi,%eax
    ad49:	66 89 55 fc          	mov    %dx,-0x4(%rbp)
    ad4d:	66 89 45 f8          	mov    %ax,-0x8(%rbp)
    ad51:	0f b7 45 fc          	movzwl -0x4(%rbp),%eax
    ad55:	66 0f af 45 f8       	imul   -0x8(%rbp),%ax
    ad5a:	5d                   	pop    %rbp
    ad5b:	c3                   	retq   

000000000000ad5c <safe_mod_func_uint16_t_u_u>:
    ad5c:	f3 0f 1e fa          	endbr64 
    ad60:	55                   	push   %rbp
    ad61:	48 89 e5             	mov    %rsp,%rbp
    ad64:	89 fa                	mov    %edi,%edx
    ad66:	89 f0                	mov    %esi,%eax
    ad68:	66 89 55 fc          	mov    %dx,-0x4(%rbp)
    ad6c:	66 89 45 f8          	mov    %ax,-0x8(%rbp)
    ad70:	66 83 7d f8 00       	cmpw   $0x0,-0x8(%rbp)
    ad75:	74 11                	je     ad88 <safe_mod_func_uint16_t_u_u+0x2c>
    ad77:	0f b7 45 fc          	movzwl -0x4(%rbp),%eax
    ad7b:	ba 00 00 00 00       	mov    $0x0,%edx
    ad80:	66 f7 75 f8          	divw   -0x8(%rbp)
    ad84:	89 d0                	mov    %edx,%eax
    ad86:	eb 04                	jmp    ad8c <safe_mod_func_uint16_t_u_u+0x30>
    ad88:	0f b7 45 fc          	movzwl -0x4(%rbp),%eax
    ad8c:	5d                   	pop    %rbp
    ad8d:	c3                   	retq   

000000000000ad8e <safe_div_func_uint16_t_u_u>:
    ad8e:	f3 0f 1e fa          	endbr64 
    ad92:	55                   	push   %rbp
    ad93:	48 89 e5             	mov    %rsp,%rbp
    ad96:	89 fa                	mov    %edi,%edx
    ad98:	89 f0                	mov    %esi,%eax
    ad9a:	66 89 55 fc          	mov    %dx,-0x4(%rbp)
    ad9e:	66 89 45 f8          	mov    %ax,-0x8(%rbp)
    ada2:	66 83 7d f8 00       	cmpw   $0x0,-0x8(%rbp)
    ada7:	74 0f                	je     adb8 <safe_div_func_uint16_t_u_u+0x2a>
    ada9:	0f b7 45 fc          	movzwl -0x4(%rbp),%eax
    adad:	ba 00 00 00 00       	mov    $0x0,%edx
    adb2:	66 f7 75 f8          	divw   -0x8(%rbp)
    adb6:	eb 04                	jmp    adbc <safe_div_func_uint16_t_u_u+0x2e>
    adb8:	0f b7 45 fc          	movzwl -0x4(%rbp),%eax
    adbc:	5d                   	pop    %rbp
    adbd:	c3                   	retq   

000000000000adbe <safe_lshift_func_uint16_t_u_s>:
    adbe:	f3 0f 1e fa          	endbr64 
    adc2:	55                   	push   %rbp
    adc3:	48 89 e5             	mov    %rsp,%rbp
    adc6:	89 f8                	mov    %edi,%eax
    adc8:	89 75 f8             	mov    %esi,-0x8(%rbp)
    adcb:	66 89 45 fc          	mov    %ax,-0x4(%rbp)
    adcf:	83 7d f8 00          	cmpl   $0x0,-0x8(%rbp)
    add3:	78 2b                	js     ae00 <safe_lshift_func_uint16_t_u_s+0x42>
    add5:	83 7d f8 1f          	cmpl   $0x1f,-0x8(%rbp)
    add9:	7f 25                	jg     ae00 <safe_lshift_func_uint16_t_u_s+0x42>
    addb:	0f b7 55 fc          	movzwl -0x4(%rbp),%edx
    addf:	8b 45 f8             	mov    -0x8(%rbp),%eax
    ade2:	be ff ff 00 00       	mov    $0xffff,%esi
    ade7:	89 c1                	mov    %eax,%ecx
    ade9:	d3 fe                	sar    %cl,%esi
    adeb:	89 f0                	mov    %esi,%eax
    aded:	39 c2                	cmp    %eax,%edx
    adef:	7f 0f                	jg     ae00 <safe_lshift_func_uint16_t_u_s+0x42>
    adf1:	0f b7 55 fc          	movzwl -0x4(%rbp),%edx
    adf5:	8b 45 f8             	mov    -0x8(%rbp),%eax
    adf8:	89 c1                	mov    %eax,%ecx
    adfa:	d3 e2                	shl    %cl,%edx
    adfc:	89 d0                	mov    %edx,%eax
    adfe:	eb 04                	jmp    ae04 <safe_lshift_func_uint16_t_u_s+0x46>
    ae00:	0f b7 45 fc          	movzwl -0x4(%rbp),%eax
    ae04:	5d                   	pop    %rbp
    ae05:	c3                   	retq   

000000000000ae06 <safe_lshift_func_uint16_t_u_u>:
    ae06:	f3 0f 1e fa          	endbr64 
    ae0a:	55                   	push   %rbp
    ae0b:	48 89 e5             	mov    %rsp,%rbp
    ae0e:	89 f8                	mov    %edi,%eax
    ae10:	89 75 f8             	mov    %esi,-0x8(%rbp)
    ae13:	66 89 45 fc          	mov    %ax,-0x4(%rbp)
    ae17:	83 7d f8 1f          	cmpl   $0x1f,-0x8(%rbp)
    ae1b:	77 25                	ja     ae42 <safe_lshift_func_uint16_t_u_u+0x3c>
    ae1d:	0f b7 55 fc          	movzwl -0x4(%rbp),%edx
    ae21:	8b 45 f8             	mov    -0x8(%rbp),%eax
    ae24:	be ff ff 00 00       	mov    $0xffff,%esi
    ae29:	89 c1                	mov    %eax,%ecx
    ae2b:	d3 fe                	sar    %cl,%esi
    ae2d:	89 f0                	mov    %esi,%eax
    ae2f:	39 c2                	cmp    %eax,%edx
    ae31:	7f 0f                	jg     ae42 <safe_lshift_func_uint16_t_u_u+0x3c>
    ae33:	0f b7 55 fc          	movzwl -0x4(%rbp),%edx
    ae37:	8b 45 f8             	mov    -0x8(%rbp),%eax
    ae3a:	89 c1                	mov    %eax,%ecx
    ae3c:	d3 e2                	shl    %cl,%edx
    ae3e:	89 d0                	mov    %edx,%eax
    ae40:	eb 04                	jmp    ae46 <safe_lshift_func_uint16_t_u_u+0x40>
    ae42:	0f b7 45 fc          	movzwl -0x4(%rbp),%eax
    ae46:	5d                   	pop    %rbp
    ae47:	c3                   	retq   

000000000000ae48 <safe_rshift_func_uint16_t_u_s>:
    ae48:	f3 0f 1e fa          	endbr64 
    ae4c:	55                   	push   %rbp
    ae4d:	48 89 e5             	mov    %rsp,%rbp
    ae50:	89 f8                	mov    %edi,%eax
    ae52:	89 75 f8             	mov    %esi,-0x8(%rbp)
    ae55:	66 89 45 fc          	mov    %ax,-0x4(%rbp)
    ae59:	83 7d f8 00          	cmpl   $0x0,-0x8(%rbp)
    ae5d:	78 15                	js     ae74 <safe_rshift_func_uint16_t_u_s+0x2c>
    ae5f:	83 7d f8 1f          	cmpl   $0x1f,-0x8(%rbp)
    ae63:	7f 0f                	jg     ae74 <safe_rshift_func_uint16_t_u_s+0x2c>
    ae65:	0f b7 55 fc          	movzwl -0x4(%rbp),%edx
    ae69:	8b 45 f8             	mov    -0x8(%rbp),%eax
    ae6c:	89 c1                	mov    %eax,%ecx
    ae6e:	d3 fa                	sar    %cl,%edx
    ae70:	89 d0                	mov    %edx,%eax
    ae72:	eb 04                	jmp    ae78 <safe_rshift_func_uint16_t_u_s+0x30>
    ae74:	0f b7 45 fc          	movzwl -0x4(%rbp),%eax
    ae78:	5d                   	pop    %rbp
    ae79:	c3                   	retq   

000000000000ae7a <safe_rshift_func_uint16_t_u_u>:
    ae7a:	f3 0f 1e fa          	endbr64 
    ae7e:	55                   	push   %rbp
    ae7f:	48 89 e5             	mov    %rsp,%rbp
    ae82:	89 f8                	mov    %edi,%eax
    ae84:	89 75 f8             	mov    %esi,-0x8(%rbp)
    ae87:	66 89 45 fc          	mov    %ax,-0x4(%rbp)
    ae8b:	83 7d f8 1f          	cmpl   $0x1f,-0x8(%rbp)
    ae8f:	77 0f                	ja     aea0 <safe_rshift_func_uint16_t_u_u+0x26>
    ae91:	0f b7 55 fc          	movzwl -0x4(%rbp),%edx
    ae95:	8b 45 f8             	mov    -0x8(%rbp),%eax
    ae98:	89 c1                	mov    %eax,%ecx
    ae9a:	d3 fa                	sar    %cl,%edx
    ae9c:	89 d0                	mov    %edx,%eax
    ae9e:	eb 04                	jmp    aea4 <safe_rshift_func_uint16_t_u_u+0x2a>
    aea0:	0f b7 45 fc          	movzwl -0x4(%rbp),%eax
    aea4:	5d                   	pop    %rbp
    aea5:	c3                   	retq   

000000000000aea6 <safe_unary_minus_func_uint32_t_u>:
    aea6:	f3 0f 1e fa          	endbr64 
    aeaa:	55                   	push   %rbp
    aeab:	48 89 e5             	mov    %rsp,%rbp
    aeae:	89 7d fc             	mov    %edi,-0x4(%rbp)
    aeb1:	8b 45 fc             	mov    -0x4(%rbp),%eax
    aeb4:	f7 d8                	neg    %eax
    aeb6:	5d                   	pop    %rbp
    aeb7:	c3                   	retq   

000000000000aeb8 <safe_add_func_uint32_t_u_u>:
    aeb8:	f3 0f 1e fa          	endbr64 
    aebc:	55                   	push   %rbp
    aebd:	48 89 e5             	mov    %rsp,%rbp
    aec0:	89 7d fc             	mov    %edi,-0x4(%rbp)
    aec3:	89 75 f8             	mov    %esi,-0x8(%rbp)
    aec6:	8b 55 fc             	mov    -0x4(%rbp),%edx
    aec9:	8b 45 f8             	mov    -0x8(%rbp),%eax
    aecc:	01 d0                	add    %edx,%eax
    aece:	5d                   	pop    %rbp
    aecf:	c3                   	retq   

000000000000aed0 <safe_sub_func_uint32_t_u_u>:
    aed0:	f3 0f 1e fa          	endbr64 
    aed4:	55                   	push   %rbp
    aed5:	48 89 e5             	mov    %rsp,%rbp
    aed8:	89 7d fc             	mov    %edi,-0x4(%rbp)
    aedb:	89 75 f8             	mov    %esi,-0x8(%rbp)
    aede:	8b 45 fc             	mov    -0x4(%rbp),%eax
    aee1:	2b 45 f8             	sub    -0x8(%rbp),%eax
    aee4:	5d                   	pop    %rbp
    aee5:	c3                   	retq   

000000000000aee6 <safe_mul_func_uint32_t_u_u>:
    aee6:	f3 0f 1e fa          	endbr64 
    aeea:	55                   	push   %rbp
    aeeb:	48 89 e5             	mov    %rsp,%rbp
    aeee:	89 7d fc             	mov    %edi,-0x4(%rbp)
    aef1:	89 75 f8             	mov    %esi,-0x8(%rbp)
    aef4:	8b 45 fc             	mov    -0x4(%rbp),%eax
    aef7:	0f af 45 f8          	imul   -0x8(%rbp),%eax
    aefb:	5d                   	pop    %rbp
    aefc:	c3                   	retq   

000000000000aefd <safe_mod_func_uint32_t_u_u>:
    aefd:	f3 0f 1e fa          	endbr64 
    af01:	55                   	push   %rbp
    af02:	48 89 e5             	mov    %rsp,%rbp
    af05:	89 7d fc             	mov    %edi,-0x4(%rbp)
    af08:	89 75 f8             	mov    %esi,-0x8(%rbp)
    af0b:	83 7d f8 00          	cmpl   $0x0,-0x8(%rbp)
    af0f:	74 0f                	je     af20 <safe_mod_func_uint32_t_u_u+0x23>
    af11:	8b 45 fc             	mov    -0x4(%rbp),%eax
    af14:	ba 00 00 00 00       	mov    $0x0,%edx
    af19:	f7 75 f8             	divl   -0x8(%rbp)
    af1c:	89 d0                	mov    %edx,%eax
    af1e:	eb 03                	jmp    af23 <safe_mod_func_uint32_t_u_u+0x26>
    af20:	8b 45 fc             	mov    -0x4(%rbp),%eax
    af23:	5d                   	pop    %rbp
    af24:	c3                   	retq   

000000000000af25 <safe_div_func_uint32_t_u_u>:
    af25:	f3 0f 1e fa          	endbr64 
    af29:	55                   	push   %rbp
    af2a:	48 89 e5             	mov    %rsp,%rbp
    af2d:	89 7d fc             	mov    %edi,-0x4(%rbp)
    af30:	89 75 f8             	mov    %esi,-0x8(%rbp)
    af33:	83 7d f8 00          	cmpl   $0x0,-0x8(%rbp)
    af37:	74 0d                	je     af46 <safe_div_func_uint32_t_u_u+0x21>
    af39:	8b 45 fc             	mov    -0x4(%rbp),%eax
    af3c:	ba 00 00 00 00       	mov    $0x0,%edx
    af41:	f7 75 f8             	divl   -0x8(%rbp)
    af44:	eb 03                	jmp    af49 <safe_div_func_uint32_t_u_u+0x24>
    af46:	8b 45 fc             	mov    -0x4(%rbp),%eax
    af49:	5d                   	pop    %rbp
    af4a:	c3                   	retq   

000000000000af4b <safe_lshift_func_uint32_t_u_s>:
    af4b:	f3 0f 1e fa          	endbr64 
    af4f:	55                   	push   %rbp
    af50:	48 89 e5             	mov    %rsp,%rbp
    af53:	89 7d fc             	mov    %edi,-0x4(%rbp)
    af56:	89 75 f8             	mov    %esi,-0x8(%rbp)
    af59:	83 7d f8 00          	cmpl   $0x0,-0x8(%rbp)
    af5d:	78 27                	js     af86 <safe_lshift_func_uint32_t_u_s+0x3b>
    af5f:	83 7d f8 1f          	cmpl   $0x1f,-0x8(%rbp)
    af63:	7f 21                	jg     af86 <safe_lshift_func_uint32_t_u_s+0x3b>
    af65:	8b 45 f8             	mov    -0x8(%rbp),%eax
    af68:	ba ff ff ff ff       	mov    $0xffffffff,%edx
    af6d:	89 c1                	mov    %eax,%ecx
    af6f:	d3 ea                	shr    %cl,%edx
    af71:	89 d0                	mov    %edx,%eax
    af73:	39 45 fc             	cmp    %eax,-0x4(%rbp)
    af76:	77 0e                	ja     af86 <safe_lshift_func_uint32_t_u_s+0x3b>
    af78:	8b 45 f8             	mov    -0x8(%rbp),%eax
    af7b:	8b 55 fc             	mov    -0x4(%rbp),%edx
    af7e:	89 c1                	mov    %eax,%ecx
    af80:	d3 e2                	shl    %cl,%edx
    af82:	89 d0                	mov    %edx,%eax
    af84:	eb 03                	jmp    af89 <safe_lshift_func_uint32_t_u_s+0x3e>
    af86:	8b 45 fc             	mov    -0x4(%rbp),%eax
    af89:	5d                   	pop    %rbp
    af8a:	c3                   	retq   

000000000000af8b <safe_lshift_func_uint32_t_u_u>:
    af8b:	f3 0f 1e fa          	endbr64 
    af8f:	55                   	push   %rbp
    af90:	48 89 e5             	mov    %rsp,%rbp
    af93:	89 7d fc             	mov    %edi,-0x4(%rbp)
    af96:	89 75 f8             	mov    %esi,-0x8(%rbp)
    af99:	83 7d f8 1f          	cmpl   $0x1f,-0x8(%rbp)
    af9d:	77 21                	ja     afc0 <safe_lshift_func_uint32_t_u_u+0x35>
    af9f:	8b 45 f8             	mov    -0x8(%rbp),%eax
    afa2:	ba ff ff ff ff       	mov    $0xffffffff,%edx
    afa7:	89 c1                	mov    %eax,%ecx
    afa9:	d3 ea                	shr    %cl,%edx
    afab:	89 d0                	mov    %edx,%eax
    afad:	39 45 fc             	cmp    %eax,-0x4(%rbp)
    afb0:	77 0e                	ja     afc0 <safe_lshift_func_uint32_t_u_u+0x35>
    afb2:	8b 45 f8             	mov    -0x8(%rbp),%eax
    afb5:	8b 55 fc             	mov    -0x4(%rbp),%edx
    afb8:	89 c1                	mov    %eax,%ecx
    afba:	d3 e2                	shl    %cl,%edx
    afbc:	89 d0                	mov    %edx,%eax
    afbe:	eb 03                	jmp    afc3 <safe_lshift_func_uint32_t_u_u+0x38>
    afc0:	8b 45 fc             	mov    -0x4(%rbp),%eax
    afc3:	5d                   	pop    %rbp
    afc4:	c3                   	retq   

000000000000afc5 <safe_rshift_func_uint32_t_u_s>:
    afc5:	f3 0f 1e fa          	endbr64 
    afc9:	55                   	push   %rbp
    afca:	48 89 e5             	mov    %rsp,%rbp
    afcd:	89 7d fc             	mov    %edi,-0x4(%rbp)
    afd0:	89 75 f8             	mov    %esi,-0x8(%rbp)
    afd3:	83 7d f8 00          	cmpl   $0x0,-0x8(%rbp)
    afd7:	78 14                	js     afed <safe_rshift_func_uint32_t_u_s+0x28>
    afd9:	83 7d f8 1f          	cmpl   $0x1f,-0x8(%rbp)
    afdd:	7f 0e                	jg     afed <safe_rshift_func_uint32_t_u_s+0x28>
    afdf:	8b 45 f8             	mov    -0x8(%rbp),%eax
    afe2:	8b 55 fc             	mov    -0x4(%rbp),%edx
    afe5:	89 c1                	mov    %eax,%ecx
    afe7:	d3 ea                	shr    %cl,%edx
    afe9:	89 d0                	mov    %edx,%eax
    afeb:	eb 03                	jmp    aff0 <safe_rshift_func_uint32_t_u_s+0x2b>
    afed:	8b 45 fc             	mov    -0x4(%rbp),%eax
    aff0:	5d                   	pop    %rbp
    aff1:	c3                   	retq   

000000000000aff2 <safe_rshift_func_uint32_t_u_u>:
    aff2:	f3 0f 1e fa          	endbr64 
    aff6:	55                   	push   %rbp
    aff7:	48 89 e5             	mov    %rsp,%rbp
    affa:	89 7d fc             	mov    %edi,-0x4(%rbp)
    affd:	89 75 f8             	mov    %esi,-0x8(%rbp)
    b000:	83 7d f8 1f          	cmpl   $0x1f,-0x8(%rbp)
    b004:	77 0e                	ja     b014 <safe_rshift_func_uint32_t_u_u+0x22>
    b006:	8b 45 f8             	mov    -0x8(%rbp),%eax
    b009:	8b 55 fc             	mov    -0x4(%rbp),%edx
    b00c:	89 c1                	mov    %eax,%ecx
    b00e:	d3 ea                	shr    %cl,%edx
    b010:	89 d0                	mov    %edx,%eax
    b012:	eb 03                	jmp    b017 <safe_rshift_func_uint32_t_u_u+0x25>
    b014:	8b 45 fc             	mov    -0x4(%rbp),%eax
    b017:	5d                   	pop    %rbp
    b018:	c3                   	retq   

000000000000b019 <safe_unary_minus_func_uint64_t_u>:
    b019:	f3 0f 1e fa          	endbr64 
    b01d:	55                   	push   %rbp
    b01e:	48 89 e5             	mov    %rsp,%rbp
    b021:	48 89 7d f8          	mov    %rdi,-0x8(%rbp)
    b025:	48 8b 45 f8          	mov    -0x8(%rbp),%rax
    b029:	48 f7 d8             	neg    %rax
    b02c:	5d                   	pop    %rbp
    b02d:	c3                   	retq   

000000000000b02e <safe_add_func_uint64_t_u_u>:
    b02e:	f3 0f 1e fa          	endbr64 
    b032:	55                   	push   %rbp
    b033:	48 89 e5             	mov    %rsp,%rbp
    b036:	48 89 7d f8          	mov    %rdi,-0x8(%rbp)
    b03a:	48 89 75 f0          	mov    %rsi,-0x10(%rbp)
    b03e:	48 8b 55 f8          	mov    -0x8(%rbp),%rdx
    b042:	48 8b 45 f0          	mov    -0x10(%rbp),%rax
    b046:	48 01 d0             	add    %rdx,%rax
    b049:	5d                   	pop    %rbp
    b04a:	c3                   	retq   

000000000000b04b <safe_sub_func_uint64_t_u_u>:
    b04b:	f3 0f 1e fa          	endbr64 
    b04f:	55                   	push   %rbp
    b050:	48 89 e5             	mov    %rsp,%rbp
    b053:	48 89 7d f8          	mov    %rdi,-0x8(%rbp)
    b057:	48 89 75 f0          	mov    %rsi,-0x10(%rbp)
    b05b:	48 8b 45 f8          	mov    -0x8(%rbp),%rax
    b05f:	48 2b 45 f0          	sub    -0x10(%rbp),%rax
    b063:	5d                   	pop    %rbp
    b064:	c3                   	retq   

000000000000b065 <safe_mul_func_uint64_t_u_u>:
    b065:	f3 0f 1e fa          	endbr64 
    b069:	55                   	push   %rbp
    b06a:	48 89 e5             	mov    %rsp,%rbp
    b06d:	48 89 7d f8          	mov    %rdi,-0x8(%rbp)
    b071:	48 89 75 f0          	mov    %rsi,-0x10(%rbp)
    b075:	48 8b 45 f8          	mov    -0x8(%rbp),%rax
    b079:	48 0f af 45 f0       	imul   -0x10(%rbp),%rax
    b07e:	5d                   	pop    %rbp
    b07f:	c3                   	retq   

000000000000b080 <safe_mod_func_uint64_t_u_u>:
    b080:	f3 0f 1e fa          	endbr64 
    b084:	55                   	push   %rbp
    b085:	48 89 e5             	mov    %rsp,%rbp
    b088:	48 89 7d f8          	mov    %rdi,-0x8(%rbp)
    b08c:	48 89 75 f0          	mov    %rsi,-0x10(%rbp)
    b090:	48 83 7d f0 00       	cmpq   $0x0,-0x10(%rbp)
    b095:	74 12                	je     b0a9 <safe_mod_func_uint64_t_u_u+0x29>
    b097:	48 8b 45 f8          	mov    -0x8(%rbp),%rax
    b09b:	ba 00 00 00 00       	mov    $0x0,%edx
    b0a0:	48 f7 75 f0          	divq   -0x10(%rbp)
    b0a4:	48 89 d0             	mov    %rdx,%rax
    b0a7:	eb 04                	jmp    b0ad <safe_mod_func_uint64_t_u_u+0x2d>
    b0a9:	48 8b 45 f8          	mov    -0x8(%rbp),%rax
    b0ad:	5d                   	pop    %rbp
    b0ae:	c3                   	retq   

000000000000b0af <safe_div_func_uint64_t_u_u>:
    b0af:	f3 0f 1e fa          	endbr64 
    b0b3:	55                   	push   %rbp
    b0b4:	48 89 e5             	mov    %rsp,%rbp
    b0b7:	48 89 7d f8          	mov    %rdi,-0x8(%rbp)
    b0bb:	48 89 75 f0          	mov    %rsi,-0x10(%rbp)
    b0bf:	48 83 7d f0 00       	cmpq   $0x0,-0x10(%rbp)
    b0c4:	74 0f                	je     b0d5 <safe_div_func_uint64_t_u_u+0x26>
    b0c6:	48 8b 45 f8          	mov    -0x8(%rbp),%rax
    b0ca:	ba 00 00 00 00       	mov    $0x0,%edx
    b0cf:	48 f7 75 f0          	divq   -0x10(%rbp)
    b0d3:	eb 04                	jmp    b0d9 <safe_div_func_uint64_t_u_u+0x2a>
    b0d5:	48 8b 45 f8          	mov    -0x8(%rbp),%rax
    b0d9:	5d                   	pop    %rbp
    b0da:	c3                   	retq   

000000000000b0db <safe_lshift_func_uint64_t_u_s>:
    b0db:	f3 0f 1e fa          	endbr64 
    b0df:	55                   	push   %rbp
    b0e0:	48 89 e5             	mov    %rsp,%rbp
    b0e3:	48 89 7d f8          	mov    %rdi,-0x8(%rbp)
    b0e7:	89 75 f4             	mov    %esi,-0xc(%rbp)
    b0ea:	83 7d f4 00          	cmpl   $0x0,-0xc(%rbp)
    b0ee:	78 2f                	js     b11f <safe_lshift_func_uint64_t_u_s+0x44>
    b0f0:	83 7d f4 1f          	cmpl   $0x1f,-0xc(%rbp)
    b0f4:	7f 29                	jg     b11f <safe_lshift_func_uint64_t_u_s+0x44>
    b0f6:	8b 45 f4             	mov    -0xc(%rbp),%eax
    b0f9:	48 c7 c2 ff ff ff ff 	mov    $0xffffffffffffffff,%rdx
    b100:	89 c1                	mov    %eax,%ecx
    b102:	48 d3 ea             	shr    %cl,%rdx
    b105:	48 89 d0             	mov    %rdx,%rax
    b108:	48 39 45 f8          	cmp    %rax,-0x8(%rbp)
    b10c:	77 11                	ja     b11f <safe_lshift_func_uint64_t_u_s+0x44>
    b10e:	8b 45 f4             	mov    -0xc(%rbp),%eax
    b111:	48 8b 55 f8          	mov    -0x8(%rbp),%rdx
    b115:	89 c1                	mov    %eax,%ecx
    b117:	48 d3 e2             	shl    %cl,%rdx
    b11a:	48 89 d0             	mov    %rdx,%rax
    b11d:	eb 04                	jmp    b123 <safe_lshift_func_uint64_t_u_s+0x48>
    b11f:	48 8b 45 f8          	mov    -0x8(%rbp),%rax
    b123:	5d                   	pop    %rbp
    b124:	c3                   	retq   

000000000000b125 <safe_lshift_func_uint64_t_u_u>:
    b125:	f3 0f 1e fa          	endbr64 
    b129:	55                   	push   %rbp
    b12a:	48 89 e5             	mov    %rsp,%rbp
    b12d:	48 89 7d f8          	mov    %rdi,-0x8(%rbp)
    b131:	89 75 f4             	mov    %esi,-0xc(%rbp)
    b134:	83 7d f4 1f          	cmpl   $0x1f,-0xc(%rbp)
    b138:	77 29                	ja     b163 <safe_lshift_func_uint64_t_u_u+0x3e>
    b13a:	8b 45 f4             	mov    -0xc(%rbp),%eax
    b13d:	48 c7 c2 ff ff ff ff 	mov    $0xffffffffffffffff,%rdx
    b144:	89 c1                	mov    %eax,%ecx
    b146:	48 d3 ea             	shr    %cl,%rdx
    b149:	48 89 d0             	mov    %rdx,%rax
    b14c:	48 39 45 f8          	cmp    %rax,-0x8(%rbp)
    b150:	77 11                	ja     b163 <safe_lshift_func_uint64_t_u_u+0x3e>
    b152:	8b 45 f4             	mov    -0xc(%rbp),%eax
    b155:	48 8b 55 f8          	mov    -0x8(%rbp),%rdx
    b159:	89 c1                	mov    %eax,%ecx
    b15b:	48 d3 e2             	shl    %cl,%rdx
    b15e:	48 89 d0             	mov    %rdx,%rax
    b161:	eb 04                	jmp    b167 <safe_lshift_func_uint64_t_u_u+0x42>
    b163:	48 8b 45 f8          	mov    -0x8(%rbp),%rax
    b167:	5d                   	pop    %rbp
    b168:	c3                   	retq   

000000000000b169 <safe_rshift_func_uint64_t_u_s>:
    b169:	f3 0f 1e fa          	endbr64 
    b16d:	55                   	push   %rbp
    b16e:	48 89 e5             	mov    %rsp,%rbp
    b171:	48 89 7d f8          	mov    %rdi,-0x8(%rbp)
    b175:	89 75 f4             	mov    %esi,-0xc(%rbp)
    b178:	83 7d f4 00          	cmpl   $0x0,-0xc(%rbp)
    b17c:	78 17                	js     b195 <safe_rshift_func_uint64_t_u_s+0x2c>
    b17e:	83 7d f4 1f          	cmpl   $0x1f,-0xc(%rbp)
    b182:	7f 11                	jg     b195 <safe_rshift_func_uint64_t_u_s+0x2c>
    b184:	8b 45 f4             	mov    -0xc(%rbp),%eax
    b187:	48 8b 55 f8          	mov    -0x8(%rbp),%rdx
    b18b:	89 c1                	mov    %eax,%ecx
    b18d:	48 d3 ea             	shr    %cl,%rdx
    b190:	48 89 d0             	mov    %rdx,%rax
    b193:	eb 04                	jmp    b199 <safe_rshift_func_uint64_t_u_s+0x30>
    b195:	48 8b 45 f8          	mov    -0x8(%rbp),%rax
    b199:	5d                   	pop    %rbp
    b19a:	c3                   	retq   

000000000000b19b <safe_rshift_func_uint64_t_u_u>:
    b19b:	f3 0f 1e fa          	endbr64 
    b19f:	55                   	push   %rbp
    b1a0:	48 89 e5             	mov    %rsp,%rbp
    b1a3:	48 89 7d f8          	mov    %rdi,-0x8(%rbp)
    b1a7:	89 75 f4             	mov    %esi,-0xc(%rbp)
    b1aa:	83 7d f4 1f          	cmpl   $0x1f,-0xc(%rbp)
    b1ae:	77 11                	ja     b1c1 <safe_rshift_func_uint64_t_u_u+0x26>
    b1b0:	8b 45 f4             	mov    -0xc(%rbp),%eax
    b1b3:	48 8b 55 f8          	mov    -0x8(%rbp),%rdx
    b1b7:	89 c1                	mov    %eax,%ecx
    b1b9:	48 d3 ea             	shr    %cl,%rdx
    b1bc:	48 89 d0             	mov    %rdx,%rax
    b1bf:	eb 04                	jmp    b1c5 <safe_rshift_func_uint64_t_u_u+0x2a>
    b1c1:	48 8b 45 f8          	mov    -0x8(%rbp),%rax
    b1c5:	5d                   	pop    %rbp
    b1c6:	c3                   	retq   

000000000000b1c7 <safe_add_func_float_f_f>:
    b1c7:	f3 0f 1e fa          	endbr64 
    b1cb:	55                   	push   %rbp
    b1cc:	48 89 e5             	mov    %rsp,%rbp
    b1cf:	f3 0f 11 45 fc       	movss  %xmm0,-0x4(%rbp)
    b1d4:	f3 0f 11 4d f8       	movss  %xmm1,-0x8(%rbp)
    b1d9:	f3 0f 10 4d fc       	movss  -0x4(%rbp),%xmm1
    b1de:	f3 0f 10 05 92 19 01 	movss  0x11992(%rip),%xmm0        # 1cb78 <l_735.4822+0xd8>
    b1e5:	00 
    b1e6:	f3 0f 59 c8          	mulss  %xmm0,%xmm1
    b1ea:	f3 0f 10 55 f8       	movss  -0x8(%rbp),%xmm2
    b1ef:	f3 0f 10 05 81 19 01 	movss  0x11981(%rip),%xmm0        # 1cb78 <l_735.4822+0xd8>
    b1f6:	00 
    b1f7:	f3 0f 59 c2          	mulss  %xmm2,%xmm0
    b1fb:	f3 0f 58 c1          	addss  %xmm1,%xmm0
    b1ff:	f3 0f 10 0d 79 19 01 	movss  0x11979(%rip),%xmm1        # 1cb80 <l_735.4822+0xe0>
    b206:	00 
    b207:	0f 54 c1             	andps  %xmm1,%xmm0
    b20a:	0f 2f 05 7f 19 01 00 	comiss 0x1197f(%rip),%xmm0        # 1cb90 <l_735.4822+0xf0>
    b211:	76 07                	jbe    b21a <safe_add_func_float_f_f+0x53>
    b213:	f3 0f 10 45 fc       	movss  -0x4(%rbp),%xmm0
    b218:	eb 0a                	jmp    b224 <safe_add_func_float_f_f+0x5d>
    b21a:	f3 0f 10 45 fc       	movss  -0x4(%rbp),%xmm0
    b21f:	f3 0f 58 45 f8       	addss  -0x8(%rbp),%xmm0
    b224:	5d                   	pop    %rbp
    b225:	c3                   	retq   

000000000000b226 <safe_sub_func_float_f_f>:
    b226:	f3 0f 1e fa          	endbr64 
    b22a:	55                   	push   %rbp
    b22b:	48 89 e5             	mov    %rsp,%rbp
    b22e:	f3 0f 11 45 fc       	movss  %xmm0,-0x4(%rbp)
    b233:	f3 0f 11 4d f8       	movss  %xmm1,-0x8(%rbp)
    b238:	f3 0f 10 4d fc       	movss  -0x4(%rbp),%xmm1
    b23d:	f3 0f 10 05 33 19 01 	movss  0x11933(%rip),%xmm0        # 1cb78 <l_735.4822+0xd8>
    b244:	00 
    b245:	f3 0f 59 c1          	mulss  %xmm1,%xmm0
    b249:	f3 0f 10 55 f8       	movss  -0x8(%rbp),%xmm2
    b24e:	f3 0f 10 0d 22 19 01 	movss  0x11922(%rip),%xmm1        # 1cb78 <l_735.4822+0xd8>
    b255:	00 
    b256:	f3 0f 59 ca          	mulss  %xmm2,%xmm1
    b25a:	f3 0f 5c c1          	subss  %xmm1,%xmm0
    b25e:	f3 0f 10 0d 1a 19 01 	movss  0x1191a(%rip),%xmm1        # 1cb80 <l_735.4822+0xe0>
    b265:	00 
    b266:	0f 54 c1             	andps  %xmm1,%xmm0
    b269:	0f 2f 05 20 19 01 00 	comiss 0x11920(%rip),%xmm0        # 1cb90 <l_735.4822+0xf0>
    b270:	76 07                	jbe    b279 <safe_sub_func_float_f_f+0x53>
    b272:	f3 0f 10 45 fc       	movss  -0x4(%rbp),%xmm0
    b277:	eb 0a                	jmp    b283 <safe_sub_func_float_f_f+0x5d>
    b279:	f3 0f 10 45 fc       	movss  -0x4(%rbp),%xmm0
    b27e:	f3 0f 5c 45 f8       	subss  -0x8(%rbp),%xmm0
    b283:	5d                   	pop    %rbp
    b284:	c3                   	retq   

000000000000b285 <safe_mul_func_float_f_f>:
    b285:	f3 0f 1e fa          	endbr64 
    b289:	55                   	push   %rbp
    b28a:	48 89 e5             	mov    %rsp,%rbp
    b28d:	f3 0f 11 45 fc       	movss  %xmm0,-0x4(%rbp)
    b292:	f3 0f 11 4d f8       	movss  %xmm1,-0x8(%rbp)
    b297:	f3 0f 10 4d fc       	movss  -0x4(%rbp),%xmm1
    b29c:	f3 0f 10 05 f0 18 01 	movss  0x118f0(%rip),%xmm0        # 1cb94 <l_735.4822+0xf4>
    b2a3:	00 
    b2a4:	f3 0f 59 c8          	mulss  %xmm0,%xmm1
    b2a8:	f3 0f 10 55 f8       	movss  -0x8(%rbp),%xmm2
    b2ad:	f3 0f 10 05 e3 18 01 	movss  0x118e3(%rip),%xmm0        # 1cb98 <l_735.4822+0xf8>
    b2b4:	00 
    b2b5:	f3 0f 59 c2          	mulss  %xmm2,%xmm0
    b2b9:	f3 0f 59 c1          	mulss  %xmm1,%xmm0
    b2bd:	f3 0f 10 0d bb 18 01 	movss  0x118bb(%rip),%xmm1        # 1cb80 <l_735.4822+0xe0>
    b2c4:	00 
    b2c5:	0f 54 c1             	andps  %xmm1,%xmm0
    b2c8:	0f 2f 05 cd 18 01 00 	comiss 0x118cd(%rip),%xmm0        # 1cb9c <l_735.4822+0xfc>
    b2cf:	76 07                	jbe    b2d8 <safe_mul_func_float_f_f+0x53>
    b2d1:	f3 0f 10 45 fc       	movss  -0x4(%rbp),%xmm0
    b2d6:	eb 0a                	jmp    b2e2 <safe_mul_func_float_f_f+0x5d>
    b2d8:	f3 0f 10 45 fc       	movss  -0x4(%rbp),%xmm0
    b2dd:	f3 0f 59 45 f8       	mulss  -0x8(%rbp),%xmm0
    b2e2:	5d                   	pop    %rbp
    b2e3:	c3                   	retq   

000000000000b2e4 <safe_div_func_float_f_f>:
    b2e4:	f3 0f 1e fa          	endbr64 
    b2e8:	55                   	push   %rbp
    b2e9:	48 89 e5             	mov    %rsp,%rbp
    b2ec:	f3 0f 11 45 fc       	movss  %xmm0,-0x4(%rbp)
    b2f1:	f3 0f 11 4d f8       	movss  %xmm1,-0x8(%rbp)
    b2f6:	f3 0f 10 45 f8       	movss  -0x8(%rbp),%xmm0
    b2fb:	f3 0f 10 0d 7d 18 01 	movss  0x1187d(%rip),%xmm1        # 1cb80 <l_735.4822+0xe0>
    b302:	00 
    b303:	0f 54 c8             	andps  %xmm0,%xmm1
    b306:	f3 0f 10 05 92 18 01 	movss  0x11892(%rip),%xmm0        # 1cba0 <l_735.4822+0x100>
    b30d:	00 
    b30e:	0f 2f c1             	comiss %xmm1,%xmm0
    b311:	0f 97 c0             	seta   %al
    b314:	83 f0 01             	xor    $0x1,%eax
    b317:	84 c0                	test   %al,%al
    b319:	75 56                	jne    b371 <safe_div_func_float_f_f+0x8d>
    b31b:	66 0f ef c0          	pxor   %xmm0,%xmm0
    b31f:	0f 2e 45 f8          	ucomiss -0x8(%rbp),%xmm0
    b323:	7a 0a                	jp     b32f <safe_div_func_float_f_f+0x4b>
    b325:	66 0f ef c0          	pxor   %xmm0,%xmm0
    b329:	0f 2e 45 f8          	ucomiss -0x8(%rbp),%xmm0
    b32d:	74 4e                	je     b37d <safe_div_func_float_f_f+0x99>
    b32f:	f3 0f 10 4d fc       	movss  -0x4(%rbp),%xmm1
    b334:	f3 0f 10 05 68 18 01 	movss  0x11868(%rip),%xmm0        # 1cba4 <l_735.4822+0x104>
    b33b:	00 
    b33c:	f3 0f 59 c1          	mulss  %xmm1,%xmm0
    b340:	f3 0f 10 55 f8       	movss  -0x8(%rbp),%xmm2
    b345:	f3 0f 10 0d 5b 18 01 	movss  0x1185b(%rip),%xmm1        # 1cba8 <l_735.4822+0x108>
    b34c:	00 
    b34d:	f3 0f 59 ca          	mulss  %xmm2,%xmm1
    b351:	f3 0f 5e c1          	divss  %xmm1,%xmm0
    b355:	f3 0f 10 0d 23 18 01 	movss  0x11823(%rip),%xmm1        # 1cb80 <l_735.4822+0xe0>
    b35c:	00 
    b35d:	0f 54 c1             	andps  %xmm1,%xmm0
    b360:	0f 2f 05 45 18 01 00 	comiss 0x11845(%rip),%xmm0        # 1cbac <l_735.4822+0x10c>
    b367:	0f 97 c0             	seta   %al
    b36a:	83 f0 01             	xor    $0x1,%eax
    b36d:	84 c0                	test   %al,%al
    b36f:	74 0c                	je     b37d <safe_div_func_float_f_f+0x99>
    b371:	f3 0f 10 45 fc       	movss  -0x4(%rbp),%xmm0
    b376:	f3 0f 5e 45 f8       	divss  -0x8(%rbp),%xmm0
    b37b:	eb 05                	jmp    b382 <safe_div_func_float_f_f+0x9e>
    b37d:	f3 0f 10 45 fc       	movss  -0x4(%rbp),%xmm0
    b382:	5d                   	pop    %rbp
    b383:	c3                   	retq   

000000000000b384 <safe_add_func_double_f_f>:
    b384:	f3 0f 1e fa          	endbr64 
    b388:	55                   	push   %rbp
    b389:	48 89 e5             	mov    %rsp,%rbp
    b38c:	f2 0f 11 45 f8       	movsd  %xmm0,-0x8(%rbp)
    b391:	f2 0f 11 4d f0       	movsd  %xmm1,-0x10(%rbp)
    b396:	f2 0f 10 4d f8       	movsd  -0x8(%rbp),%xmm1
    b39b:	f2 0f 10 05 0d 18 01 	movsd  0x1180d(%rip),%xmm0        # 1cbb0 <l_735.4822+0x110>
    b3a2:	00 
    b3a3:	f2 0f 59 c8          	mulsd  %xmm0,%xmm1
    b3a7:	f2 0f 10 55 f0       	movsd  -0x10(%rbp),%xmm2
    b3ac:	f2 0f 10 05 fc 17 01 	movsd  0x117fc(%rip),%xmm0        # 1cbb0 <l_735.4822+0x110>
    b3b3:	00 
    b3b4:	f2 0f 59 c2          	mulsd  %xmm2,%xmm0
    b3b8:	f2 0f 58 c1          	addsd  %xmm1,%xmm0
    b3bc:	f3 0f 7e 0d fc 17 01 	movq   0x117fc(%rip),%xmm1        # 1cbc0 <l_735.4822+0x120>
    b3c3:	00 
    b3c4:	66 0f 54 c1          	andpd  %xmm1,%xmm0
    b3c8:	66 0f 2f 05 00 18 01 	comisd 0x11800(%rip),%xmm0        # 1cbd0 <l_735.4822+0x130>
    b3cf:	00 
    b3d0:	76 07                	jbe    b3d9 <safe_add_func_double_f_f+0x55>
    b3d2:	f2 0f 10 45 f8       	movsd  -0x8(%rbp),%xmm0
    b3d7:	eb 0a                	jmp    b3e3 <safe_add_func_double_f_f+0x5f>
    b3d9:	f2 0f 10 45 f8       	movsd  -0x8(%rbp),%xmm0
    b3de:	f2 0f 58 45 f0       	addsd  -0x10(%rbp),%xmm0
    b3e3:	5d                   	pop    %rbp
    b3e4:	c3                   	retq   

000000000000b3e5 <safe_sub_func_double_f_f>:
    b3e5:	f3 0f 1e fa          	endbr64 
    b3e9:	55                   	push   %rbp
    b3ea:	48 89 e5             	mov    %rsp,%rbp
    b3ed:	f2 0f 11 45 f8       	movsd  %xmm0,-0x8(%rbp)
    b3f2:	f2 0f 11 4d f0       	movsd  %xmm1,-0x10(%rbp)
    b3f7:	f2 0f 10 4d f8       	movsd  -0x8(%rbp),%xmm1
    b3fc:	f2 0f 10 05 ac 17 01 	movsd  0x117ac(%rip),%xmm0        # 1cbb0 <l_735.4822+0x110>
    b403:	00 
    b404:	f2 0f 59 c1          	mulsd  %xmm1,%xmm0
    b408:	f2 0f 10 55 f0       	movsd  -0x10(%rbp),%xmm2
    b40d:	f2 0f 10 0d 9b 17 01 	movsd  0x1179b(%rip),%xmm1        # 1cbb0 <l_735.4822+0x110>
    b414:	00 
    b415:	f2 0f 59 ca          	mulsd  %xmm2,%xmm1
    b419:	f2 0f 5c c1          	subsd  %xmm1,%xmm0
    b41d:	f3 0f 7e 0d 9b 17 01 	movq   0x1179b(%rip),%xmm1        # 1cbc0 <l_735.4822+0x120>
    b424:	00 
    b425:	66 0f 54 c1          	andpd  %xmm1,%xmm0
    b429:	66 0f 2f 05 9f 17 01 	comisd 0x1179f(%rip),%xmm0        # 1cbd0 <l_735.4822+0x130>
    b430:	00 
    b431:	76 07                	jbe    b43a <safe_sub_func_double_f_f+0x55>
    b433:	f2 0f 10 45 f8       	movsd  -0x8(%rbp),%xmm0
    b438:	eb 0a                	jmp    b444 <safe_sub_func_double_f_f+0x5f>
    b43a:	f2 0f 10 45 f8       	movsd  -0x8(%rbp),%xmm0
    b43f:	f2 0f 5c 45 f0       	subsd  -0x10(%rbp),%xmm0
    b444:	5d                   	pop    %rbp
    b445:	c3                   	retq   

000000000000b446 <safe_mul_func_double_f_f>:
    b446:	f3 0f 1e fa          	endbr64 
    b44a:	55                   	push   %rbp
    b44b:	48 89 e5             	mov    %rsp,%rbp
    b44e:	f2 0f 11 45 f8       	movsd  %xmm0,-0x8(%rbp)
    b453:	f2 0f 11 4d f0       	movsd  %xmm1,-0x10(%rbp)
    b458:	f2 0f 10 4d f8       	movsd  -0x8(%rbp),%xmm1
    b45d:	f2 0f 10 05 73 17 01 	movsd  0x11773(%rip),%xmm0        # 1cbd8 <l_735.4822+0x138>
    b464:	00 
    b465:	f2 0f 59 c8          	mulsd  %xmm0,%xmm1
    b469:	f2 0f 10 55 f0       	movsd  -0x10(%rbp),%xmm2
    b46e:	f2 0f 10 05 6a 17 01 	movsd  0x1176a(%rip),%xmm0        # 1cbe0 <l_735.4822+0x140>
    b475:	00 
    b476:	f2 0f 59 c2          	mulsd  %xmm2,%xmm0
    b47a:	f2 0f 59 c1          	mulsd  %xmm1,%xmm0
    b47e:	f3 0f 7e 0d 3a 17 01 	movq   0x1173a(%rip),%xmm1        # 1cbc0 <l_735.4822+0x120>
    b485:	00 
    b486:	66 0f 54 c1          	andpd  %xmm1,%xmm0
    b48a:	66 0f 2f 05 56 17 01 	comisd 0x11756(%rip),%xmm0        # 1cbe8 <l_735.4822+0x148>
    b491:	00 
    b492:	76 07                	jbe    b49b <safe_mul_func_double_f_f+0x55>
    b494:	f2 0f 10 45 f8       	movsd  -0x8(%rbp),%xmm0
    b499:	eb 0a                	jmp    b4a5 <safe_mul_func_double_f_f+0x5f>
    b49b:	f2 0f 10 45 f8       	movsd  -0x8(%rbp),%xmm0
    b4a0:	f2 0f 59 45 f0       	mulsd  -0x10(%rbp),%xmm0
    b4a5:	5d                   	pop    %rbp
    b4a6:	c3                   	retq   

000000000000b4a7 <safe_div_func_double_f_f>:
    b4a7:	f3 0f 1e fa          	endbr64 
    b4ab:	55                   	push   %rbp
    b4ac:	48 89 e5             	mov    %rsp,%rbp
    b4af:	f2 0f 11 45 f8       	movsd  %xmm0,-0x8(%rbp)
    b4b4:	f2 0f 11 4d f0       	movsd  %xmm1,-0x10(%rbp)
    b4b9:	f2 0f 10 45 f0       	movsd  -0x10(%rbp),%xmm0
    b4be:	f3 0f 7e 0d fa 16 01 	movq   0x116fa(%rip),%xmm1        # 1cbc0 <l_735.4822+0x120>
    b4c5:	00 
    b4c6:	66 0f 54 c8          	andpd  %xmm0,%xmm1
    b4ca:	f2 0f 10 05 1e 17 01 	movsd  0x1171e(%rip),%xmm0        # 1cbf0 <l_735.4822+0x150>
    b4d1:	00 
    b4d2:	66 0f 2f c1          	comisd %xmm1,%xmm0
    b4d6:	0f 97 c0             	seta   %al
    b4d9:	83 f0 01             	xor    $0x1,%eax
    b4dc:	84 c0                	test   %al,%al
    b4de:	75 5a                	jne    b53a <safe_div_func_double_f_f+0x93>
    b4e0:	66 0f ef c0          	pxor   %xmm0,%xmm0
    b4e4:	66 0f 2e 45 f0       	ucomisd -0x10(%rbp),%xmm0
    b4e9:	7a 0b                	jp     b4f6 <safe_div_func_double_f_f+0x4f>
    b4eb:	66 0f ef c0          	pxor   %xmm0,%xmm0
    b4ef:	66 0f 2e 45 f0       	ucomisd -0x10(%rbp),%xmm0
    b4f4:	74 50                	je     b546 <safe_div_func_double_f_f+0x9f>
    b4f6:	f2 0f 10 4d f8       	movsd  -0x8(%rbp),%xmm1
    b4fb:	f2 0f 10 05 f5 16 01 	movsd  0x116f5(%rip),%xmm0        # 1cbf8 <l_735.4822+0x158>
    b502:	00 
    b503:	f2 0f 59 c1          	mulsd  %xmm1,%xmm0
    b507:	f2 0f 10 55 f0       	movsd  -0x10(%rbp),%xmm2
    b50c:	f2 0f 10 0d ec 16 01 	movsd  0x116ec(%rip),%xmm1        # 1cc00 <l_735.4822+0x160>
    b513:	00 
    b514:	f2 0f 59 ca          	mulsd  %xmm2,%xmm1
    b518:	f2 0f 5e c1          	divsd  %xmm1,%xmm0
    b51c:	f3 0f 7e 0d 9c 16 01 	movq   0x1169c(%rip),%xmm1        # 1cbc0 <l_735.4822+0x120>
    b523:	00 
    b524:	66 0f 54 c1          	andpd  %xmm1,%xmm0
    b528:	66 0f 2f 05 d8 16 01 	comisd 0x116d8(%rip),%xmm0        # 1cc08 <l_735.4822+0x168>
    b52f:	00 
    b530:	0f 97 c0             	seta   %al
    b533:	83 f0 01             	xor    $0x1,%eax
    b536:	84 c0                	test   %al,%al
    b538:	74 0c                	je     b546 <safe_div_func_double_f_f+0x9f>
    b53a:	f2 0f 10 45 f8       	movsd  -0x8(%rbp),%xmm0
    b53f:	f2 0f 5e 45 f0       	divsd  -0x10(%rbp),%xmm0
    b544:	eb 05                	jmp    b54b <safe_div_func_double_f_f+0xa4>
    b546:	f2 0f 10 45 f8       	movsd  -0x8(%rbp),%xmm0
    b54b:	5d                   	pop    %rbp
    b54c:	c3                   	retq   

000000000000b54d <safe_convert_func_float_to_int32_t>:
    b54d:	f3 0f 1e fa          	endbr64 
    b551:	55                   	push   %rbp
    b552:	48 89 e5             	mov    %rsp,%rbp
    b555:	f3 0f 11 45 fc       	movss  %xmm0,-0x4(%rbp)
    b55a:	f3 0f 10 05 ae 16 01 	movss  0x116ae(%rip),%xmm0        # 1cc10 <l_735.4822+0x170>
    b561:	00 
    b562:	0f 2f 45 fc          	comiss -0x4(%rbp),%xmm0
    b566:	0f 93 c0             	setae  %al
    b569:	83 f0 01             	xor    $0x1,%eax
    b56c:	84 c0                	test   %al,%al
    b56e:	74 21                	je     b591 <safe_convert_func_float_to_int32_t+0x44>
    b570:	f3 0f 10 45 fc       	movss  -0x4(%rbp),%xmm0
    b575:	0f 2f 05 98 16 01 00 	comiss 0x11698(%rip),%xmm0        # 1cc14 <l_735.4822+0x174>
    b57c:	0f 93 c0             	setae  %al
    b57f:	83 f0 01             	xor    $0x1,%eax
    b582:	84 c0                	test   %al,%al
    b584:	74 0b                	je     b591 <safe_convert_func_float_to_int32_t+0x44>
    b586:	f3 0f 10 45 fc       	movss  -0x4(%rbp),%xmm0
    b58b:	f3 0f 2c c0          	cvttss2si %xmm0,%eax
    b58f:	eb 05                	jmp    b596 <safe_convert_func_float_to_int32_t+0x49>
    b591:	b8 ff ff ff 7f       	mov    $0x7fffffff,%eax
    b596:	5d                   	pop    %rbp
    b597:	c3                   	retq   

000000000000b598 <crc32_gentab>:
    b598:	f3 0f 1e fa          	endbr64 
    b59c:	55                   	push   %rbp
    b59d:	48 89 e5             	mov    %rsp,%rbp
    b5a0:	c7 45 fc 20 83 b8 ed 	movl   $0xedb88320,-0x4(%rbp)
    b5a7:	c7 45 f4 00 00 00 00 	movl   $0x0,-0xc(%rbp)
    b5ae:	eb 51                	jmp    b601 <crc32_gentab+0x69>
    b5b0:	8b 45 f4             	mov    -0xc(%rbp),%eax
    b5b3:	89 45 f0             	mov    %eax,-0x10(%rbp)
    b5b6:	c7 45 f8 08 00 00 00 	movl   $0x8,-0x8(%rbp)
    b5bd:	eb 1e                	jmp    b5dd <crc32_gentab+0x45>
    b5bf:	8b 45 f0             	mov    -0x10(%rbp),%eax
    b5c2:	83 e0 01             	and    $0x1,%eax
    b5c5:	85 c0                	test   %eax,%eax
    b5c7:	74 0d                	je     b5d6 <crc32_gentab+0x3e>
    b5c9:	8b 45 f0             	mov    -0x10(%rbp),%eax
    b5cc:	d1 e8                	shr    %eax
    b5ce:	33 45 fc             	xor    -0x4(%rbp),%eax
    b5d1:	89 45 f0             	mov    %eax,-0x10(%rbp)
    b5d4:	eb 03                	jmp    b5d9 <crc32_gentab+0x41>
    b5d6:	d1 6d f0             	shrl   -0x10(%rbp)
    b5d9:	83 6d f8 01          	subl   $0x1,-0x8(%rbp)
    b5dd:	83 7d f8 00          	cmpl   $0x0,-0x8(%rbp)
    b5e1:	7f dc                	jg     b5bf <crc32_gentab+0x27>
    b5e3:	8b 45 f4             	mov    -0xc(%rbp),%eax
    b5e6:	48 98                	cltq   
    b5e8:	48 8d 0c 85 00 00 00 	lea    0x0(,%rax,4),%rcx
    b5ef:	00 
    b5f0:	48 8d 15 29 bd 01 00 	lea    0x1bd29(%rip),%rdx        # 27320 <crc32_tab>
    b5f7:	8b 45 f0             	mov    -0x10(%rbp),%eax
    b5fa:	89 04 11             	mov    %eax,(%rcx,%rdx,1)
    b5fd:	83 45 f4 01          	addl   $0x1,-0xc(%rbp)
    b601:	81 7d f4 ff 00 00 00 	cmpl   $0xff,-0xc(%rbp)
    b608:	7e a6                	jle    b5b0 <crc32_gentab+0x18>
    b60a:	90                   	nop
    b60b:	90                   	nop
    b60c:	5d                   	pop    %rbp
    b60d:	c3                   	retq   

000000000000b60e <crc32_byte>:
    b60e:	f3 0f 1e fa          	endbr64 
    b612:	55                   	push   %rbp
    b613:	48 89 e5             	mov    %rsp,%rbp
    b616:	89 f8                	mov    %edi,%eax
    b618:	88 45 fc             	mov    %al,-0x4(%rbp)
    b61b:	8b 05 ff 49 01 00    	mov    0x149ff(%rip),%eax        # 20020 <crc32_context>
    b621:	c1 e8 08             	shr    $0x8,%eax
    b624:	89 c1                	mov    %eax,%ecx
    b626:	0f b6 55 fc          	movzbl -0x4(%rbp),%edx
    b62a:	8b 05 f0 49 01 00    	mov    0x149f0(%rip),%eax        # 20020 <crc32_context>
    b630:	31 d0                	xor    %edx,%eax
    b632:	0f b6 c0             	movzbl %al,%eax
    b635:	89 c0                	mov    %eax,%eax
    b637:	48 8d 14 85 00 00 00 	lea    0x0(,%rax,4),%rdx
    b63e:	00 
    b63f:	48 8d 05 da bc 01 00 	lea    0x1bcda(%rip),%rax        # 27320 <crc32_tab>
    b646:	8b 04 02             	mov    (%rdx,%rax,1),%eax
    b649:	31 c8                	xor    %ecx,%eax
    b64b:	89 05 cf 49 01 00    	mov    %eax,0x149cf(%rip)        # 20020 <crc32_context>
    b651:	90                   	nop
    b652:	5d                   	pop    %rbp
    b653:	c3                   	retq   

000000000000b654 <crc32_8bytes>:
    b654:	f3 0f 1e fa          	endbr64 
    b658:	55                   	push   %rbp
    b659:	48 89 e5             	mov    %rsp,%rbp
    b65c:	48 83 ec 08          	sub    $0x8,%rsp
    b660:	48 89 7d f8          	mov    %rdi,-0x8(%rbp)
    b664:	48 8b 45 f8          	mov    -0x8(%rbp),%rax
    b668:	0f b6 c0             	movzbl %al,%eax
    b66b:	89 c7                	mov    %eax,%edi
    b66d:	e8 9c ff ff ff       	callq  b60e <crc32_byte>
    b672:	48 8b 45 f8          	mov    -0x8(%rbp),%rax
    b676:	48 c1 e8 08          	shr    $0x8,%rax
    b67a:	0f b6 c0             	movzbl %al,%eax
    b67d:	89 c7                	mov    %eax,%edi
    b67f:	e8 8a ff ff ff       	callq  b60e <crc32_byte>
    b684:	48 8b 45 f8          	mov    -0x8(%rbp),%rax
    b688:	48 c1 e8 10          	shr    $0x10,%rax
    b68c:	0f b6 c0             	movzbl %al,%eax
    b68f:	89 c7                	mov    %eax,%edi
    b691:	e8 78 ff ff ff       	callq  b60e <crc32_byte>
    b696:	48 8b 45 f8          	mov    -0x8(%rbp),%rax
    b69a:	48 c1 e8 18          	shr    $0x18,%rax
    b69e:	0f b6 c0             	movzbl %al,%eax
    b6a1:	89 c7                	mov    %eax,%edi
    b6a3:	e8 66 ff ff ff       	callq  b60e <crc32_byte>
    b6a8:	48 8b 45 f8          	mov    -0x8(%rbp),%rax
    b6ac:	48 c1 e8 20          	shr    $0x20,%rax
    b6b0:	0f b6 c0             	movzbl %al,%eax
    b6b3:	89 c7                	mov    %eax,%edi
    b6b5:	e8 54 ff ff ff       	callq  b60e <crc32_byte>
    b6ba:	48 8b 45 f8          	mov    -0x8(%rbp),%rax
    b6be:	48 c1 e8 28          	shr    $0x28,%rax
    b6c2:	0f b6 c0             	movzbl %al,%eax
    b6c5:	89 c7                	mov    %eax,%edi
    b6c7:	e8 42 ff ff ff       	callq  b60e <crc32_byte>
    b6cc:	48 8b 45 f8          	mov    -0x8(%rbp),%rax
    b6d0:	48 c1 e8 30          	shr    $0x30,%rax
    b6d4:	0f b6 c0             	movzbl %al,%eax
    b6d7:	89 c7                	mov    %eax,%edi
    b6d9:	e8 30 ff ff ff       	callq  b60e <crc32_byte>
    b6de:	48 8b 45 f8          	mov    -0x8(%rbp),%rax
    b6e2:	48 c1 e8 38          	shr    $0x38,%rax
    b6e6:	0f b6 c0             	movzbl %al,%eax
    b6e9:	89 c7                	mov    %eax,%edi
    b6eb:	e8 1e ff ff ff       	callq  b60e <crc32_byte>
    b6f0:	90                   	nop
    b6f1:	c9                   	leaveq 
    b6f2:	c3                   	retq   

000000000000b6f3 <transparent_crc>:
    b6f3:	f3 0f 1e fa          	endbr64 
    b6f7:	55                   	push   %rbp
    b6f8:	48 89 e5             	mov    %rsp,%rbp
    b6fb:	48 83 ec 20          	sub    $0x20,%rsp
    b6ff:	48 89 7d f8          	mov    %rdi,-0x8(%rbp)
    b703:	48 89 75 f0          	mov    %rsi,-0x10(%rbp)
    b707:	89 55 ec             	mov    %edx,-0x14(%rbp)
    b70a:	48 8b 45 f8          	mov    -0x8(%rbp),%rax
    b70e:	48 89 c7             	mov    %rax,%rdi
    b711:	e8 3e ff ff ff       	callq  b654 <crc32_8bytes>
    b716:	83 7d ec 00          	cmpl   $0x0,-0x14(%rbp)
    b71a:	74 22                	je     b73e <transparent_crc+0x4b>
    b71c:	8b 05 fe 48 01 00    	mov    0x148fe(%rip),%eax        # 20020 <crc32_context>
    b722:	f7 d0                	not    %eax
    b724:	89 c2                	mov    %eax,%edx
    b726:	48 8b 45 f0          	mov    -0x10(%rbp),%rax
    b72a:	48 89 c6             	mov    %rax,%rsi
    b72d:	48 8d 3d fc d8 00 00 	lea    0xd8fc(%rip),%rdi        # 19030 <_IO_stdin_used+0x30>
    b734:	b8 00 00 00 00       	mov    $0x0,%eax
    b739:	e8 42 e9 ff ff       	callq  a080 <printf@plt>
    b73e:	90                   	nop
    b73f:	c9                   	leaveq 
    b740:	c3                   	retq   

000000000000b741 <transparent_crc_bytes>:
    b741:	f3 0f 1e fa          	endbr64 
    b745:	55                   	push   %rbp
    b746:	48 89 e5             	mov    %rsp,%rbp
    b749:	48 83 ec 30          	sub    $0x30,%rsp
    b74d:	48 89 7d e8          	mov    %rdi,-0x18(%rbp)
    b751:	89 75 e4             	mov    %esi,-0x1c(%rbp)
    b754:	48 89 55 d8          	mov    %rdx,-0x28(%rbp)
    b758:	89 4d e0             	mov    %ecx,-0x20(%rbp)
    b75b:	c7 45 fc 00 00 00 00 	movl   $0x0,-0x4(%rbp)
    b762:	eb 1e                	jmp    b782 <transparent_crc_bytes+0x41>
    b764:	8b 45 fc             	mov    -0x4(%rbp),%eax
    b767:	48 63 d0             	movslq %eax,%rdx
    b76a:	48 8b 45 e8          	mov    -0x18(%rbp),%rax
    b76e:	48 01 d0             	add    %rdx,%rax
    b771:	0f b6 00             	movzbl (%rax),%eax
    b774:	0f b6 c0             	movzbl %al,%eax
    b777:	89 c7                	mov    %eax,%edi
    b779:	e8 90 fe ff ff       	callq  b60e <crc32_byte>
    b77e:	83 45 fc 01          	addl   $0x1,-0x4(%rbp)
    b782:	8b 45 fc             	mov    -0x4(%rbp),%eax
    b785:	3b 45 e4             	cmp    -0x1c(%rbp),%eax
    b788:	7c da                	jl     b764 <transparent_crc_bytes+0x23>
    b78a:	83 7d e0 00          	cmpl   $0x0,-0x20(%rbp)
    b78e:	74 22                	je     b7b2 <transparent_crc_bytes+0x71>
    b790:	8b 05 8a 48 01 00    	mov    0x1488a(%rip),%eax        # 20020 <crc32_context>
    b796:	f7 d0                	not    %eax
    b798:	89 c2                	mov    %eax,%edx
    b79a:	48 8b 45 d8          	mov    -0x28(%rbp),%rax
    b79e:	48 89 c6             	mov    %rax,%rsi
    b7a1:	48 8d 3d 88 d8 00 00 	lea    0xd888(%rip),%rdi        # 19030 <_IO_stdin_used+0x30>
    b7a8:	b8 00 00 00 00       	mov    $0x0,%eax
    b7ad:	e8 ce e8 ff ff       	callq  a080 <printf@plt>
    b7b2:	90                   	nop
    b7b3:	c9                   	leaveq 
    b7b4:	c3                   	retq   

000000000000b7b5 <func_1>:
    b7b5:	f3 0f 1e fa          	endbr64 
    b7b9:	55                   	push   %rbp
    b7ba:	48 89 e5             	mov    %rsp,%rbp
    b7bd:	41 56                	push   %r14
    b7bf:	41 55                	push   %r13
    b7c1:	41 54                	push   %r12
    b7c3:	53                   	push   %rbx
    b7c4:	48 83 ec 20          	sub    $0x20,%rsp
    b7c8:	64 48 8b 04 25 28 00 	mov    %fs:0x28,%rax
    b7cf:	00 00 
    b7d1:	48 89 45 d8          	mov    %rax,-0x28(%rbp)
    b7d5:	31 c0                	xor    %eax,%eax
    b7d7:	c6 45 d3 fa          	movb   $0xfa,-0x2d(%rbp)
    b7db:	c6 45 d4 00          	movb   $0x0,-0x2c(%rbp)
    b7df:	c6 45 d5 fa          	movb   $0xfa,-0x2b(%rbp)
    b7e3:	c6 45 d6 00          	movb   $0x0,-0x2a(%rbp)
    b7e7:	c6 45 d7 fa          	movb   $0xfa,-0x29(%rbp)
    b7eb:	c7 45 cc 08 00 00 00 	movl   $0x8,-0x34(%rbp)
    b7f2:	0f b6 45 d3          	movzbl -0x2d(%rbp),%eax
    b7f6:	0f be d8             	movsbl %al,%ebx
    b7f9:	0f b6 45 d6          	movzbl -0x2a(%rbp),%eax
    b7fd:	44 0f be f0          	movsbl %al,%r14d
    b801:	0f b6 45 d6          	movzbl -0x2a(%rbp),%eax
    b805:	44 0f be e0          	movsbl %al,%r12d
    b809:	8b 05 19 48 01 00    	mov    0x14819(%rip),%eax        # 20028 <g_10>
    b80f:	85 c0                	test   %eax,%eax
    b811:	0f 84 8d 00 00 00    	je     b8a4 <func_1+0xef>
    b817:	0f b6 45 d4          	movzbl -0x2c(%rbp),%eax
    b81b:	44 0f be e8          	movsbl %al,%r13d
    b81f:	8b 05 03 48 01 00    	mov    0x14803(%rip),%eax        # 20028 <g_10>
    b825:	0f be d0             	movsbl %al,%edx
    b828:	8b 05 fe 47 01 00    	mov    0x147fe(%rip),%eax        # 2002c <g_10+0x4>
    b82e:	25 ff ff ff 3f       	and    $0x3fffffff,%eax
    b833:	0f b6 c8             	movzbl %al,%ecx
    b836:	0f b6 45 d6          	movzbl -0x2a(%rbp),%eax
    b83a:	0f be c0             	movsbl %al,%eax
    b83d:	89 ce                	mov    %ecx,%esi
    b83f:	89 c7                	mov    %eax,%edi
    b841:	e8 f0 08 00 00       	callq  c136 <func_21>
    b846:	0f b6 d0             	movzbl %al,%edx
    b849:	48 8b 05 98 ba 01 00 	mov    0x1ba98(%rip),%rax        # 272e8 <g_1783>
    b850:	48 8b 00             	mov    (%rax),%rax
    b853:	0f b6 00             	movzbl (%rax),%eax
    b856:	0f be c0             	movsbl %al,%eax
    b859:	39 c2                	cmp    %eax,%edx
    b85b:	0f 9e c0             	setle  %al
    b85e:	0f b6 c0             	movzbl %al,%eax
    b861:	89 c6                	mov    %eax,%esi
    b863:	bf ff ff ff ff       	mov    $0xffffffff,%edi
    b868:	e8 85 e9 ff ff       	callq  a1f2 <safe_sub_func_int8_t_s_s>
    b86d:	3c fc                	cmp    $0xfc,%al
    b86f:	0f 95 c0             	setne  %al
    b872:	0f b6 c0             	movzbl %al,%eax
    b875:	89 c6                	mov    %eax,%esi
    b877:	bf 01 00 00 00       	mov    $0x1,%edi
    b87c:	e8 53 e9 ff ff       	callq  a1d4 <safe_add_func_int8_t_s_s>
    b881:	0f be c0             	movsbl %al,%eax
    b884:	44 89 ee             	mov    %r13d,%esi
    b887:	89 c7                	mov    %eax,%edi
    b889:	e8 a7 ea ff ff       	callq  a335 <safe_rshift_func_int8_t_s_s>
    b88e:	0f b6 c0             	movzbl %al,%eax
    b891:	be 01 00 00 00       	mov    $0x1,%esi
    b896:	89 c7                	mov    %eax,%edi
    b898:	e8 f0 f3 ff ff       	callq  ac8d <safe_rshift_func_uint8_t_u_s>
    b89d:	b8 01 00 00 00       	mov    $0x1,%eax
    b8a2:	eb 05                	jmp    b8a9 <func_1+0xf4>
    b8a4:	b8 00 00 00 00       	mov    $0x0,%eax
    b8a9:	be ff ff ff ff       	mov    $0xffffffff,%esi
    b8ae:	89 c7                	mov    %eax,%edi
    b8b0:	e8 1b f6 ff ff       	callq  aed0 <safe_sub_func_uint32_t_u_u>
    b8b5:	8b 05 71 47 01 00    	mov    0x14771(%rip),%eax        # 2002c <g_10+0x4>
    b8bb:	25 ff ff ff 3f       	and    $0x3fffffff,%eax
    b8c0:	89 c6                	mov    %eax,%esi
    b8c2:	48 8b 05 5f 47 01 00 	mov    0x1475f(%rip),%rax        # 20028 <g_10>
    b8c9:	45 89 f0             	mov    %r14d,%r8d
    b8cc:	44 89 e1             	mov    %r12d,%ecx
    b8cf:	48 ba 68 cb 4e bc 7a 	movabs $0x182c97abc4ecb68,%rdx
    b8d6:	c9 82 01 
    b8d9:	48 89 c7             	mov    %rax,%rdi
    b8dc:	e8 3c 00 00 00       	callq  b91d <func_4>
    b8e1:	89 de                	mov    %ebx,%esi
    b8e3:	89 c7                	mov    %eax,%edi
    b8e5:	e8 3b f6 ff ff       	callq  af25 <safe_div_func_uint32_t_u_u>
    b8ea:	8b 55 cc             	mov    -0x34(%rbp),%edx
    b8ed:	09 d0                	or     %edx,%eax
    b8ef:	89 45 cc             	mov    %eax,-0x34(%rbp)
    b8f2:	48 8b 05 37 b7 01 00 	mov    0x1b737(%rip),%rax        # 27030 <g_302>
    b8f9:	0f b7 00             	movzwl (%rax),%eax
    b8fc:	48 8b 5d d8          	mov    -0x28(%rbp),%rbx
    b900:	64 48 33 1c 25 28 00 	xor    %fs:0x28,%rbx
    b907:	00 00 
    b909:	74 05                	je     b910 <func_1+0x15b>
    b90b:	e8 60 e7 ff ff       	callq  a070 <__stack_chk_fail@plt>
    b910:	48 83 c4 20          	add    $0x20,%rsp
    b914:	5b                   	pop    %rbx
    b915:	41 5c                	pop    %r12
    b917:	41 5d                	pop    %r13
    b919:	41 5e                	pop    %r14
    b91b:	5d                   	pop    %rbp
    b91c:	c3                   	retq   

000000000000b91d <func_4>:
    b91d:	f3 0f 1e fa          	endbr64 
    b921:	55                   	push   %rbp
    b922:	48 89 e5             	mov    %rsp,%rbp
    b925:	53                   	push   %rbx
    b926:	48 81 ec d8 08 00 00 	sub    $0x8d8,%rsp
    b92d:	48 89 bd 38 f7 ff ff 	mov    %rdi,-0x8c8(%rbp)
    b934:	89 b5 34 f7 ff ff    	mov    %esi,-0x8cc(%rbp)
    b93a:	48 89 95 28 f7 ff ff 	mov    %rdx,-0x8d8(%rbp)
    b941:	89 c8                	mov    %ecx,%eax
    b943:	44 89 c2             	mov    %r8d,%edx
    b946:	66 89 85 30 f7 ff ff 	mov    %ax,-0x8d0(%rbp)
    b94d:	89 d0                	mov    %edx,%eax
    b94f:	88 85 24 f7 ff ff    	mov    %al,-0x8dc(%rbp)
    b955:	64 48 8b 04 25 28 00 	mov    %fs:0x28,%rax
    b95c:	00 00 
    b95e:	48 89 45 e8          	mov    %rax,-0x18(%rbp)
    b962:	31 c0                	xor    %eax,%eax
    b964:	48 b8 ab ab ab ab ab 	movabs $0xabababababababab,%rax
    b96b:	ab ab ab 
    b96e:	48 89 45 df          	mov    %rax,-0x21(%rbp)
    b972:	c6 45 e7 ab          	movb   $0xab,-0x19(%rbp)
    b976:	c7 85 60 f7 ff ff c0 	movl   $0x804437c0,-0x8a0(%rbp)
    b97d:	37 44 80 
    b980:	c7 85 64 f7 ff ff ed 	movl   $0x8f07deed,-0x89c(%rbp)
    b987:	de 07 8f 
    b98a:	c7 85 68 f7 ff ff ff 	movl   $0xffffffff,-0x898(%rbp)
    b991:	ff ff ff 
    b994:	c7 85 6c f7 ff ff 05 	movl   $0x5,-0x894(%rbp)
    b99b:	00 00 00 
    b99e:	48 8d 85 30 fa ff ff 	lea    -0x5d0(%rbp),%rax
    b9a5:	48 8d 15 d4 eb 00 00 	lea    0xebd4(%rip),%rdx        # 1a580 <g_1979+0x1c>
    b9ac:	b9 b4 00 00 00       	mov    $0xb4,%ecx
    b9b1:	48 89 c7             	mov    %rax,%rdi
    b9b4:	48 89 d6             	mov    %rdx,%rsi
    b9b7:	f3 48 a5             	rep movsq %ds:(%rsi),%es:(%rdi)
    b9ba:	48 c7 85 90 f7 ff ff 	movq   $0x8,-0x870(%rbp)
    b9c1:	08 00 00 00 
    b9c5:	c7 85 50 f8 ff ff 00 	movl   $0x0,-0x7b0(%rbp)
    b9cc:	00 00 00 
    b9cf:	c7 85 54 f8 ff ff 00 	movl   $0x0,-0x7ac(%rbp)
    b9d6:	00 00 00 
    b9d9:	c7 85 58 f8 ff ff 00 	movl   $0x0,-0x7a8(%rbp)
    b9e0:	00 00 00 
    b9e3:	c7 85 5c f8 ff ff 00 	movl   $0x0,-0x7a4(%rbp)
    b9ea:	00 00 00 
    b9ed:	c7 85 60 f8 ff ff 00 	movl   $0x0,-0x7a0(%rbp)
    b9f4:	00 00 00 
    b9f7:	c7 85 64 f8 ff ff 00 	movl   $0x0,-0x79c(%rbp)
    b9fe:	00 00 00 
    ba01:	c7 85 70 f7 ff ff cd 	movl   $0x54dbedcd,-0x890(%rbp)
    ba08:	ed db 54 
    ba0b:	66 c7 85 30 f8 ff ff 	movw   $0x5,-0x7d0(%rbp)
    ba12:	05 00 
    ba14:	66 c7 85 32 f8 ff ff 	movw   $0x5,-0x7ce(%rbp)
    ba1b:	05 00 
    ba1d:	66 c7 85 34 f8 ff ff 	movw   $0x5,-0x7cc(%rbp)
    ba24:	05 00 
    ba26:	66 c7 85 36 f8 ff ff 	movw   $0x5,-0x7ca(%rbp)
    ba2d:	05 00 
    ba2f:	66 c7 85 38 f8 ff ff 	movw   $0x5,-0x7c8(%rbp)
    ba36:	05 00 
    ba38:	66 c7 85 3a f8 ff ff 	movw   $0x5,-0x7c6(%rbp)
    ba3f:	05 00 
    ba41:	66 c7 85 3c f8 ff ff 	movw   $0x5,-0x7c4(%rbp)
    ba48:	05 00 
    ba4a:	66 c7 85 3e f8 ff ff 	movw   $0x5,-0x7c2(%rbp)
    ba51:	05 00 
    ba53:	66 c7 85 40 f8 ff ff 	movw   $0x5,-0x7c0(%rbp)
    ba5a:	05 00 
    ba5c:	66 c7 85 42 f8 ff ff 	movw   $0x5,-0x7be(%rbp)
    ba63:	05 00 
    ba65:	48 8d 05 b4 b5 01 00 	lea    0x1b5b4(%rip),%rax        # 27020 <g_213>
    ba6c:	48 89 85 98 f7 ff ff 	mov    %rax,-0x868(%rbp)
    ba73:	48 8d 05 36 62 01 00 	lea    0x16236(%rip),%rax        # 21cb0 <g_637>
    ba7a:	48 89 85 a0 f7 ff ff 	mov    %rax,-0x860(%rbp)
    ba81:	48 b8 ca 17 5a 2e 0c 	movabs $0xdb2db10c2e5a17ca,%rax
    ba88:	b1 2d db 
    ba8b:	48 89 85 a8 f7 ff ff 	mov    %rax,-0x858(%rbp)
    ba92:	c7 85 50 f7 ff ff 00 	movl   $0x0,-0x8b0(%rbp)
    ba99:	00 00 00 
    ba9c:	eb 1a                	jmp    bab8 <func_4+0x19b>
    ba9e:	8b 85 50 f7 ff ff    	mov    -0x8b0(%rbp),%eax
    baa4:	48 98                	cltq   
    baa6:	c7 84 85 18 f8 ff ff 	movl   $0x7,-0x7e8(%rbp,%rax,4)
    baad:	07 00 00 00 
    bab1:	83 85 50 f7 ff ff 01 	addl   $0x1,-0x8b0(%rbp)
    bab8:	83 bd 50 f7 ff ff 02 	cmpl   $0x2,-0x8b0(%rbp)
    babf:	7e dd                	jle    ba9e <func_4+0x181>
    bac1:	66 c7 05 8e 47 01 00 	movw   $0x1,0x1478e(%rip)        # 20258 <g_210>
    bac8:	01 00 
    baca:	e9 32 06 00 00       	jmpq   c101 <func_4+0x7e4>
    bacf:	48 8d 05 06 5e 01 00 	lea    0x15e06(%rip),%rax        # 218dc <g_552+0x3c>
    bad6:	48 89 85 b0 f7 ff ff 	mov    %rax,-0x850(%rbp)
    badd:	48 8d 05 f8 60 01 00 	lea    0x160f8(%rip),%rax        # 21bdc <g_552+0x33c>
    bae4:	48 89 85 b8 f7 ff ff 	mov    %rax,-0x848(%rbp)
    baeb:	48 c7 85 c0 f7 ff ff 	movq   $0x0,-0x840(%rbp)
    baf2:	00 00 00 00 
    baf6:	48 8d 05 df 60 01 00 	lea    0x160df(%rip),%rax        # 21bdc <g_552+0x33c>
    bafd:	48 89 85 c8 f7 ff ff 	mov    %rax,-0x838(%rbp)
    bb04:	48 c7 85 d0 f7 ff ff 	movq   $0x0,-0x830(%rbp)
    bb0b:	00 00 00 00 
    bb0f:	48 8d 05 ce 5d 01 00 	lea    0x15dce(%rip),%rax        # 218e4 <g_552+0x44>
    bb16:	48 89 85 d8 f7 ff ff 	mov    %rax,-0x828(%rbp)
    bb1d:	c6 85 4b f7 ff ff ff 	movb   $0xff,-0x8b5(%rbp)
    bb24:	c7 85 70 f9 ff ff 5b 	movl   $0xe7e2c05b,-0x690(%rbp)
    bb2b:	c0 e2 e7 
    bb2e:	c7 85 74 f9 ff ff fb 	movl   $0xfffffffb,-0x68c(%rbp)
    bb35:	ff ff ff 
    bb38:	c7 85 78 f9 ff ff 33 	movl   $0x723f5333,-0x688(%rbp)
    bb3f:	53 3f 72 
    bb42:	c7 85 7c f9 ff ff 7b 	movl   $0xec31677b,-0x684(%rbp)
    bb49:	67 31 ec 
    bb4c:	c7 85 80 f9 ff ff 99 	movl   $0xa22e8499,-0x680(%rbp)
    bb53:	84 2e a2 
    bb56:	c7 85 84 f9 ff ff c0 	movl   $0x3148a1c0,-0x67c(%rbp)
    bb5d:	a1 48 31 
    bb60:	c7 85 88 f9 ff ff 00 	movl   $0x0,-0x678(%rbp)
    bb67:	00 00 00 
    bb6a:	c7 85 8c f9 ff ff e2 	movl   $0x519789e2,-0x674(%rbp)
    bb71:	89 97 51 
    bb74:	c7 85 90 f9 ff ff 78 	movl   $0x86eb6f78,-0x670(%rbp)
    bb7b:	6f eb 86 
    bb7e:	c7 85 94 f9 ff ff 00 	movl   $0x0,-0x66c(%rbp)
    bb85:	00 00 00 
    bb88:	c7 85 98 f9 ff ff 78 	movl   $0x86eb6f78,-0x668(%rbp)
    bb8f:	6f eb 86 
    bb92:	c7 85 9c f9 ff ff 33 	movl   $0x723f5333,-0x664(%rbp)
    bb99:	53 3f 72 
    bb9c:	c7 85 a0 f9 ff ff e2 	movl   $0x815a22e2,-0x660(%rbp)
    bba3:	22 5a 81 
    bba6:	c7 85 a4 f9 ff ff 00 	movl   $0x0,-0x65c(%rbp)
    bbad:	00 00 00 
    bbb0:	c7 85 a8 f9 ff ff be 	movl   $0xee9eeebe,-0x658(%rbp)
    bbb7:	ee 9e ee 
    bbba:	c7 85 ac f9 ff ff 7b 	movl   $0xec31677b,-0x654(%rbp)
    bbc1:	67 31 ec 
    bbc4:	c7 85 b0 f9 ff ff 90 	movl   $0x7d653e90,-0x650(%rbp)
    bbcb:	3e 65 7d 
    bbce:	c7 85 b4 f9 ff ff ff 	movl   $0xffffffff,-0x64c(%rbp)
    bbd5:	ff ff ff 
    bbd8:	c7 85 b8 f9 ff ff 7b 	movl   $0xec31677b,-0x648(%rbp)
    bbdf:	67 31 ec 
    bbe2:	c7 85 bc f9 ff ff 00 	movl   $0x0,-0x644(%rbp)
    bbe9:	00 00 00 
    bbec:	c7 85 c0 f9 ff ff ff 	movl   $0xffffffff,-0x640(%rbp)
    bbf3:	ff ff ff 
    bbf6:	c7 85 c4 f9 ff ff 01 	movl   $0x1,-0x63c(%rbp)
    bbfd:	00 00 00 
    bc00:	c7 85 c8 f9 ff ff 7b 	movl   $0xec31677b,-0x638(%rbp)
    bc07:	67 31 ec 
    bc0a:	c7 85 cc f9 ff ff fd 	movl   $0xfffffffd,-0x634(%rbp)
    bc11:	ff ff ff 
    bc14:	c7 85 d0 f9 ff ff 90 	movl   $0x7d653e90,-0x630(%rbp)
    bc1b:	3e 65 7d 
    bc1e:	c7 85 d4 f9 ff ff ff 	movl   $0xffffffff,-0x62c(%rbp)
    bc25:	ff ff ff 
    bc28:	c7 85 d8 f9 ff ff be 	movl   $0xee9eeebe,-0x628(%rbp)
    bc2f:	ee 9e ee 
    bc32:	c7 85 dc f9 ff ff fb 	movl   $0xfffffffb,-0x624(%rbp)
    bc39:	ff ff ff 
    bc3c:	c7 85 e0 f9 ff ff e2 	movl   $0x815a22e2,-0x620(%rbp)
    bc43:	22 5a 81 
    bc46:	c7 85 e4 f9 ff ff 00 	movl   $0x0,-0x61c(%rbp)
    bc4d:	00 00 00 
    bc50:	c7 85 e8 f9 ff ff 78 	movl   $0x86eb6f78,-0x618(%rbp)
    bc57:	6f eb 86 
    bc5a:	c7 85 ec f9 ff ff 78 	movl   $0x86eb6f78,-0x614(%rbp)
    bc61:	6f eb 86 
    bc64:	c7 85 f0 f9 ff ff 78 	movl   $0x86eb6f78,-0x610(%rbp)
    bc6b:	6f eb 86 
    bc6e:	c7 85 f4 f9 ff ff 78 	movl   $0x86eb6f78,-0x60c(%rbp)
    bc75:	6f eb 86 
    bc78:	c7 85 f8 f9 ff ff 00 	movl   $0x0,-0x608(%rbp)
    bc7f:	00 00 00 
    bc82:	c7 85 fc f9 ff ff e2 	movl   $0x815a22e2,-0x604(%rbp)
    bc89:	22 5a 81 
    bc8c:	c7 85 00 fa ff ff fb 	movl   $0xfffffffb,-0x600(%rbp)
    bc93:	ff ff ff 
    bc96:	c7 85 04 fa ff ff be 	movl   $0xee9eeebe,-0x5fc(%rbp)
    bc9d:	ee 9e ee 
    bca0:	c7 85 08 fa ff ff ff 	movl   $0xffffffff,-0x5f8(%rbp)
    bca7:	ff ff ff 
    bcaa:	c7 85 0c fa ff ff 90 	movl   $0x7d653e90,-0x5f4(%rbp)
    bcb1:	3e 65 7d 
    bcb4:	c7 85 10 fa ff ff fd 	movl   $0xfffffffd,-0x5f0(%rbp)
    bcbb:	ff ff ff 
    bcbe:	c7 85 14 fa ff ff 7b 	movl   $0xec31677b,-0x5ec(%rbp)
    bcc5:	67 31 ec 
    bcc8:	c7 85 18 fa ff ff 01 	movl   $0x1,-0x5e8(%rbp)
    bccf:	00 00 00 
    bcd2:	c7 85 1c fa ff ff ff 	movl   $0xffffffff,-0x5e4(%rbp)
    bcd9:	ff ff ff 
    bcdc:	c7 85 20 fa ff ff 00 	movl   $0x0,-0x5e0(%rbp)
    bce3:	00 00 00 
    bce6:	c7 85 24 fa ff ff 7b 	movl   $0xec31677b,-0x5dc(%rbp)
    bced:	67 31 ec 
    bcf0:	c7 85 28 fa ff ff ff 	movl   $0xffffffff,-0x5d8(%rbp)
    bcf7:	ff ff ff 
    bcfa:	c7 85 2c fa ff ff 90 	movl   $0x7d653e90,-0x5d4(%rbp)
    bd01:	3e 65 7d 
    bd04:	c7 85 74 f7 ff ff 1f 	movl   $0x62ad741f,-0x88c(%rbp)
    bd0b:	74 ad 62 
    bd0e:	48 8d 85 70 f8 ff ff 	lea    -0x790(%rbp),%rax
    bd15:	48 89 85 e0 f7 ff ff 	mov    %rax,-0x820(%rbp)
    bd1c:	66 c7 85 4c f7 ff ff 	movw   $0x5,-0x8b4(%rbp)
    bd23:	05 00 
    bd25:	48 c7 85 e8 f7 ff ff 	movq   $0xfffffffffffffffa,-0x818(%rbp)
    bd2c:	fa ff ff ff 
    bd30:	c7 85 00 f9 ff ff 01 	movl   $0x1,-0x700(%rbp)
    bd37:	00 00 00 
    bd3a:	c7 85 04 f9 ff ff 01 	movl   $0x1,-0x6fc(%rbp)
    bd41:	00 00 00 
    bd44:	c7 85 08 f9 ff ff 6e 	movl   $0xbc5a2a6e,-0x6f8(%rbp)
    bd4b:	2a 5a bc 
    bd4e:	c7 85 0c f9 ff ff 05 	movl   $0x5,-0x6f4(%rbp)
    bd55:	00 00 00 
    bd58:	c7 85 10 f9 ff ff 6e 	movl   $0xbc5a2a6e,-0x6f0(%rbp)
    bd5f:	2a 5a bc 
    bd62:	c7 85 14 f9 ff ff 01 	movl   $0x1,-0x6ec(%rbp)
    bd69:	00 00 00 
    bd6c:	c7 85 18 f9 ff ff 01 	movl   $0x1,-0x6e8(%rbp)
    bd73:	00 00 00 
    bd76:	c7 85 1c f9 ff ff e2 	movl   $0x7bcfd6e2,-0x6e4(%rbp)
    bd7d:	d6 cf 7b 
    bd80:	c7 85 20 f9 ff ff e2 	movl   $0x30b843e2,-0x6e0(%rbp)
    bd87:	43 b8 30 
    bd8a:	c7 85 24 f9 ff ff 00 	movl   $0x0,-0x6dc(%rbp)
    bd91:	00 00 00 
    bd94:	c7 85 28 f9 ff ff e2 	movl   $0x30b843e2,-0x6d8(%rbp)
    bd9b:	43 b8 30 
    bd9e:	c7 85 2c f9 ff ff e2 	movl   $0x7bcfd6e2,-0x6d4(%rbp)
    bda5:	d6 cf 7b 
    bda8:	c7 85 30 f9 ff ff e2 	movl   $0x7bcfd6e2,-0x6d0(%rbp)
    bdaf:	d6 cf 7b 
    bdb2:	c7 85 34 f9 ff ff e2 	movl   $0x30b843e2,-0x6cc(%rbp)
    bdb9:	43 b8 30 
    bdbc:	c7 85 38 f9 ff ff 12 	movl   $0x7620eb12,-0x6c8(%rbp)
    bdc3:	eb 20 76 
    bdc6:	c7 85 3c f9 ff ff 03 	movl   $0x3,-0x6c4(%rbp)
    bdcd:	00 00 00 
    bdd0:	c7 85 40 f9 ff ff 12 	movl   $0x7620eb12,-0x6c0(%rbp)
    bdd7:	eb 20 76 
    bdda:	c7 85 44 f9 ff ff 6e 	movl   $0xbc5a2a6e,-0x6bc(%rbp)
    bde1:	2a 5a bc 
    bde4:	c7 85 48 f9 ff ff 6e 	movl   $0xbc5a2a6e,-0x6b8(%rbp)
    bdeb:	2a 5a bc 
    bdee:	c7 85 4c f9 ff ff 12 	movl   $0x7620eb12,-0x6b4(%rbp)
    bdf5:	eb 20 76 
    bdf8:	c7 85 50 f9 ff ff 03 	movl   $0x3,-0x6b0(%rbp)
    bdff:	00 00 00 
    be02:	c7 85 54 f9 ff ff e2 	movl   $0x30b843e2,-0x6ac(%rbp)
    be09:	43 b8 30 
    be0c:	c7 85 58 f9 ff ff fb 	movl   $0xfffffffb,-0x6a8(%rbp)
    be13:	ff ff ff 
    be16:	c7 85 5c f9 ff ff 00 	movl   $0x0,-0x6a4(%rbp)
    be1d:	00 00 00 
    be20:	c7 85 60 f9 ff ff 00 	movl   $0x0,-0x6a0(%rbp)
    be27:	00 00 00 
    be2a:	c7 85 64 f9 ff ff fb 	movl   $0xfffffffb,-0x69c(%rbp)
    be31:	ff ff ff 
    be34:	c7 85 68 f9 ff ff e2 	movl   $0x30b843e2,-0x698(%rbp)
    be3b:	43 b8 30 
    be3e:	c7 85 6c f9 ff ff fb 	movl   $0xfffffffb,-0x694(%rbp)
    be45:	ff ff ff 
    be48:	48 c7 85 f0 f7 ff ff 	movq   $0x0,-0x810(%rbp)
    be4f:	00 00 00 00 
    be53:	c7 85 54 f7 ff ff 00 	movl   $0x0,-0x8ac(%rbp)
    be5a:	00 00 00 
    be5d:	eb 1b                	jmp    be7a <func_4+0x55d>
    be5f:	8b 85 54 f7 ff ff    	mov    -0x8ac(%rbp),%eax
    be65:	48 98                	cltq   
    be67:	48 c7 84 c5 b0 f8 ff 	movq   $0x0,-0x750(%rbp,%rax,8)
    be6e:	ff 00 00 00 00 
    be73:	83 85 54 f7 ff ff 01 	addl   $0x1,-0x8ac(%rbp)
    be7a:	83 bd 54 f7 ff ff 09 	cmpl   $0x9,-0x8ac(%rbp)
    be81:	7e dc                	jle    be5f <func_4+0x542>
    be83:	c7 85 54 f7 ff ff 00 	movl   $0x0,-0x8ac(%rbp)
    be8a:	00 00 00 
    be8d:	eb 50                	jmp    bedf <func_4+0x5c2>
    be8f:	c7 85 58 f7 ff ff 00 	movl   $0x0,-0x8a8(%rbp)
    be96:	00 00 00 
    be99:	eb 34                	jmp    becf <func_4+0x5b2>
    be9b:	8b 85 58 f7 ff ff    	mov    -0x8a8(%rbp),%eax
    bea1:	48 63 c8             	movslq %eax,%rcx
    bea4:	8b 85 54 f7 ff ff    	mov    -0x8ac(%rbp),%eax
    beaa:	48 63 d0             	movslq %eax,%rdx
    bead:	48 89 d0             	mov    %rdx,%rax
    beb0:	48 01 c0             	add    %rax,%rax
    beb3:	48 01 d0             	add    %rdx,%rax
    beb6:	48 01 c8             	add    %rcx,%rax
    beb9:	48 8d 15 fc 78 01 00 	lea    0x178fc(%rip),%rdx        # 237bc <g_1097>
    bec0:	48 89 94 c5 70 f8 ff 	mov    %rdx,-0x790(%rbp,%rax,8)
    bec7:	ff 
    bec8:	83 85 58 f7 ff ff 01 	addl   $0x1,-0x8a8(%rbp)
    becf:	83 bd 58 f7 ff ff 02 	cmpl   $0x2,-0x8a8(%rbp)
    bed6:	7e c3                	jle    be9b <func_4+0x57e>
    bed8:	83 85 54 f7 ff ff 01 	addl   $0x1,-0x8ac(%rbp)
    bedf:	83 bd 54 f7 ff ff 00 	cmpl   $0x0,-0x8ac(%rbp)
    bee6:	7e a7                	jle    be8f <func_4+0x572>
    bee8:	48 83 85 90 f7 ff ff 	addq   $0x1,-0x870(%rbp)
    beef:	01 
    bef0:	66 c7 05 5b 79 01 00 	movw   $0x0,0x1795b(%rip)        # 23854 <g_1389>
    bef7:	00 00 
    bef9:	e9 e1 01 00 00       	jmpq   c0df <func_4+0x7c2>
    befe:	48 c7 85 f8 f7 ff ff 	movq   $0x1,-0x808(%rbp)
    bf05:	01 00 00 00 
    bf09:	48 8d 05 44 5e 01 00 	lea    0x15e44(%rip),%rax        # 21d54 <g_987>
    bf10:	48 89 85 00 f8 ff ff 	mov    %rax,-0x800(%rbp)
    bf17:	c7 85 78 f7 ff ff df 	movl   $0x86d5e3df,-0x888(%rbp)
    bf1e:	e3 d5 86 
    bf21:	c7 85 7c f7 ff ff 08 	movl   $0x8,-0x884(%rbp)
    bf28:	00 00 00 
    bf2b:	66 c7 85 4e f7 ff ff 	movw   $0xb2b6,-0x8b2(%rbp)
    bf32:	b6 b2 
    bf34:	48 c7 85 08 f8 ff ff 	movq   $0x0,-0x7f8(%rbp)
    bf3b:	00 00 00 00 
    bf3f:	c7 85 80 f7 ff ff 01 	movl   $0x1,-0x880(%rbp)
    bf46:	00 00 00 
    bf49:	c7 85 84 f7 ff ff ff 	movl   $0xffffffff,-0x87c(%rbp)
    bf50:	ff ff ff 
    bf53:	c7 85 88 f7 ff ff a4 	movl   $0x110674a4,-0x878(%rbp)
    bf5a:	74 06 11 
    bf5d:	48 8d 05 5c 7a 01 00 	lea    0x17a5c(%rip),%rax        # 239c0 <g_2110>
    bf64:	48 89 85 90 f8 ff ff 	mov    %rax,-0x770(%rbp)
    bf6b:	48 8d 05 4e 7a 01 00 	lea    0x17a4e(%rip),%rax        # 239c0 <g_2110>
    bf72:	48 89 85 98 f8 ff ff 	mov    %rax,-0x768(%rbp)
    bf79:	48 8d 05 40 7a 01 00 	lea    0x17a40(%rip),%rax        # 239c0 <g_2110>
    bf80:	48 89 85 a0 f8 ff ff 	mov    %rax,-0x760(%rbp)
    bf87:	48 8d 05 32 7a 01 00 	lea    0x17a32(%rip),%rax        # 239c0 <g_2110>
    bf8e:	48 89 85 a8 f8 ff ff 	mov    %rax,-0x758(%rbp)
    bf95:	48 8d 05 b4 b1 01 00 	lea    0x1b1b4(%rip),%rax        # 27150 <g_1168>
    bf9c:	48 89 85 10 f8 ff ff 	mov    %rax,-0x7f0(%rbp)
    bfa3:	c7 85 8c f7 ff ff 00 	movl   $0x0,-0x874(%rbp)
    bfaa:	00 00 00 
    bfad:	c7 85 5c f7 ff ff 00 	movl   $0x0,-0x8a4(%rbp)
    bfb4:	00 00 00 
    bfb7:	eb 1a                	jmp    bfd3 <func_4+0x6b6>
    bfb9:	8b 85 5c f7 ff ff    	mov    -0x8a4(%rbp),%eax
    bfbf:	48 98                	cltq   
    bfc1:	c7 84 85 24 f8 ff ff 	movl   $0xa69023ea,-0x7dc(%rbp,%rax,4)
    bfc8:	ea 23 90 a6 
    bfcc:	83 85 5c f7 ff ff 01 	addl   $0x1,-0x8a4(%rbp)
    bfd3:	83 bd 5c f7 ff ff 02 	cmpl   $0x2,-0x8a4(%rbp)
    bfda:	7e dd                	jle    bfb9 <func_4+0x69c>
    bfdc:	8b 05 d6 b7 01 00    	mov    0x1b7d6(%rip),%eax        # 277b8 <g_1945>
    bfe2:	89 c3                	mov    %eax,%ebx
    bfe4:	48 8b 85 f8 f7 ff ff 	mov    -0x808(%rbp),%rax
    bfeb:	83 e0 05             	and    $0x5,%eax
    bfee:	48 83 f8 1a          	cmp    $0x1a,%rax
    bff2:	0f b7 85 30 f7 ff ff 	movzwl -0x8d0(%rbp),%eax
    bff9:	0f b7 c0             	movzwl %ax,%eax
    bffc:	be 32 4f 00 00       	mov    $0x4f32,%esi
    c001:	89 c7                	mov    %eax,%edi
    c003:	e8 35 ed ff ff       	callq  ad3d <safe_mul_func_uint16_t_u_u>
    c008:	48 8b 85 f8 f7 ff ff 	mov    -0x808(%rbp),%rax
    c00f:	48 f7 d0             	not    %rax
    c012:	48 39 85 90 f7 ff ff 	cmp    %rax,-0x870(%rbp)
    c019:	0f 92 c0             	setb   %al
    c01c:	0f b6 d0             	movzbl %al,%edx
    c01f:	48 8b 85 28 f7 ff ff 	mov    -0x8d8(%rbp),%rax
    c026:	89 c1                	mov    %eax,%ecx
    c028:	48 8b 85 00 f8 ff ff 	mov    -0x800(%rbp),%rax
    c02f:	89 08                	mov    %ecx,(%rax)
    c031:	48 8b 85 00 f8 ff ff 	mov    -0x800(%rbp),%rax
    c038:	8b 00                	mov    (%rax),%eax
    c03a:	39 c2                	cmp    %eax,%edx
    c03c:	0f 97 c0             	seta   %al
    c03f:	0f b6 c0             	movzbl %al,%eax
    c042:	89 c6                	mov    %eax,%esi
    c044:	bf f7 ff ff ff       	mov    $0xfffffff7,%edi
    c049:	e8 6a ee ff ff       	callq  aeb8 <safe_add_func_uint32_t_u_u>
    c04e:	48 8b 05 23 b2 01 00 	mov    0x1b223(%rip),%rax        # 27278 <g_1486>
    c055:	48 8b 00             	mov    (%rax),%rax
    c058:	48 8b 00             	mov    (%rax),%rax
    c05b:	48 8b 00             	mov    (%rax),%rax
    c05e:	0f b7 00             	movzwl (%rax),%eax
    c061:	83 c8 01             	or     $0x1,%eax
    c064:	0f b7 c0             	movzwl %ax,%eax
    c067:	48 89 de             	mov    %rbx,%rsi
    c06a:	48 89 c7             	mov    %rax,%rdi
    c06d:	e8 42 e9 ff ff       	callq  a9b4 <safe_mod_func_int64_t_s_s>
    c072:	0f b6 d0             	movzbl %al,%edx
    c075:	8b 85 60 f7 ff ff    	mov    -0x8a0(%rbp),%eax
    c07b:	0f b6 c0             	movzbl %al,%eax
    c07e:	89 d6                	mov    %edx,%esi
    c080:	89 c7                	mov    %eax,%edi
    c082:	e8 54 eb ff ff       	callq  abdb <safe_div_func_uint8_t_u_u>
    c087:	0f b6 c0             	movzbl %al,%eax
    c08a:	89 c6                	mov    %eax,%esi
    c08c:	bf 01 00 00 00       	mov    $0x1,%edi
    c091:	e8 bf e3 ff ff       	callq  a455 <safe_div_func_int16_t_s_s>
    c096:	48 8b 05 4b b2 01 00 	mov    0x1b24b(%rip),%rax        # 272e8 <g_1783>
    c09d:	48 8b 10             	mov    (%rax),%rdx
    c0a0:	48 8d 85 24 f7 ff ff 	lea    -0x8dc(%rbp),%rax
    c0a7:	48 39 c2             	cmp    %rax,%rdx
    c0aa:	0f 95 c0             	setne  %al
    c0ad:	0f b6 c8             	movzbl %al,%ecx
    c0b0:	48 8b 05 a9 af 01 00 	mov    0x1afa9(%rip),%rax        # 27060 <g_592>
    c0b7:	8b 10                	mov    (%rax),%edx
    c0b9:	48 8b 05 a0 af 01 00 	mov    0x1afa0(%rip),%rax        # 27060 <g_592>
    c0c0:	09 ca                	or     %ecx,%edx
    c0c2:	89 10                	mov    %edx,(%rax)
    c0c4:	0f b7 05 89 77 01 00 	movzwl 0x17789(%rip),%eax        # 23854 <g_1389>
    c0cb:	98                   	cwtl   
    c0cc:	be 03 00 00 00       	mov    $0x3,%esi
    c0d1:	89 c7                	mov    %eax,%edi
    c0d3:	e8 fb e2 ff ff       	callq  a3d3 <safe_sub_func_int16_t_s_s>
    c0d8:	66 89 05 75 77 01 00 	mov    %ax,0x17775(%rip)        # 23854 <g_1389>
    c0df:	0f b7 05 6e 77 01 00 	movzwl 0x1776e(%rip),%eax        # 23854 <g_1389>
    c0e6:	66 83 f8 ea          	cmp    $0xffea,%ax
    c0ea:	0f 8d 0e fe ff ff    	jge    befe <func_4+0x5e1>
    c0f0:	0f b7 05 61 41 01 00 	movzwl 0x14161(%rip),%eax        # 20258 <g_210>
    c0f7:	83 c0 01             	add    $0x1,%eax
    c0fa:	66 89 05 57 41 01 00 	mov    %ax,0x14157(%rip)        # 20258 <g_210>
    c101:	0f b7 05 50 41 01 00 	movzwl 0x14150(%rip),%eax        # 20258 <g_210>
    c108:	66 83 f8 13          	cmp    $0x13,%ax
    c10c:	0f 86 bd f9 ff ff    	jbe    bacf <func_4+0x1b2>
    c112:	8b 85 38 f7 ff ff    	mov    -0x8c8(%rbp),%eax
    c118:	48 8b 5d e8          	mov    -0x18(%rbp),%rbx
    c11c:	64 48 33 1c 25 28 00 	xor    %fs:0x28,%rbx
    c123:	00 00 
    c125:	74 05                	je     c12c <func_4+0x80f>
    c127:	e8 44 df ff ff       	callq  a070 <__stack_chk_fail@plt>
    c12c:	48 81 c4 d8 08 00 00 	add    $0x8d8,%rsp
    c133:	5b                   	pop    %rbx
    c134:	5d                   	pop    %rbp
    c135:	c3                   	retq   

000000000000c136 <func_21>:
    c136:	f3 0f 1e fa          	endbr64 
    c13a:	55                   	push   %rbp
    c13b:	48 89 e5             	mov    %rsp,%rbp
    c13e:	48 83 ec 60          	sub    $0x60,%rsp
    c142:	89 f1                	mov    %esi,%ecx
    c144:	89 d0                	mov    %edx,%eax
    c146:	89 fa                	mov    %edi,%edx
    c148:	88 55 ac             	mov    %dl,-0x54(%rbp)
    c14b:	89 ca                	mov    %ecx,%edx
    c14d:	88 55 a8             	mov    %dl,-0x58(%rbp)
    c150:	88 45 a4             	mov    %al,-0x5c(%rbp)
    c153:	64 48 8b 04 25 28 00 	mov    %fs:0x28,%rax
    c15a:	00 00 
    c15c:	48 89 45 f8          	mov    %rax,-0x8(%rbp)
    c160:	31 c0                	xor    %eax,%eax
    c162:	c7 45 b0 f8 7c 8f 0e 	movl   $0xe8f7cf8,-0x50(%rbp)
    c169:	48 c7 45 b8 00 00 00 	movq   $0x0,-0x48(%rbp)
    c170:	00 
    c171:	48 8d 05 b8 3e 01 00 	lea    0x13eb8(%rip),%rax        # 20030 <g_35>
    c178:	48 89 45 c0          	mov    %rax,-0x40(%rbp)
    c17c:	c7 45 b4 2c a7 4c d1 	movl   $0xd14ca72c,-0x4c(%rbp)
    c183:	48 8d 05 36 77 01 00 	lea    0x17736(%rip),%rax        # 238c0 <g_1666>
    c18a:	48 89 45 c8          	mov    %rax,-0x38(%rbp)
    c18e:	48 8d 05 8f 77 01 00 	lea    0x1778f(%rip),%rax        # 23924 <g_1801>
    c195:	48 89 45 d0          	mov    %rax,-0x30(%rbp)
    c199:	c7 45 e0 0f b4 83 d8 	movl   $0xd883b40f,-0x20(%rbp)
    c1a0:	c7 45 e4 ff ff ff ff 	movl   $0xffffffff,-0x1c(%rbp)
    c1a7:	c7 45 e8 0f b4 83 d8 	movl   $0xd883b40f,-0x18(%rbp)
    c1ae:	c7 45 ec 0f b4 83 d8 	movl   $0xd883b40f,-0x14(%rbp)
    c1b5:	c7 45 f0 ff ff ff ff 	movl   $0xffffffff,-0x10(%rbp)
    c1bc:	c7 45 f4 0f b4 83 d8 	movl   $0xd883b40f,-0xc(%rbp)
    c1c3:	48 8d 05 82 3e 01 00 	lea    0x13e82(%rip),%rax        # 2004c <g_139>
    c1ca:	48 89 45 d8          	mov    %rax,-0x28(%rbp)
    c1ce:	8b 05 c8 76 01 00    	mov    0x176c8(%rip),%eax        # 2389c <g_1573+0xc>
    c1d4:	48 8b 75 f8          	mov    -0x8(%rbp),%rsi
    c1d8:	64 48 33 34 25 28 00 	xor    %fs:0x28,%rsi
    c1df:	00 00 
    c1e1:	74 05                	je     c1e8 <func_21+0xb2>
    c1e3:	e8 88 de ff ff       	callq  a070 <__stack_chk_fail@plt>
    c1e8:	c9                   	leaveq 
    c1e9:	c3                   	retq   

000000000000c1ea <func_28>:
    c1ea:	f3 0f 1e fa          	endbr64 
    c1ee:	55                   	push   %rbp
    c1ef:	48 89 e5             	mov    %rsp,%rbp
    c1f2:	41 56                	push   %r14
    c1f4:	41 55                	push   %r13
    c1f6:	41 54                	push   %r12
    c1f8:	53                   	push   %rbx
    c1f9:	48 81 ec 00 10 00 00 	sub    $0x1000,%rsp
    c200:	48 83 0c 24 00       	orq    $0x0,(%rsp)
    c205:	48 81 ec b0 00 00 00 	sub    $0xb0,%rsp
    c20c:	89 fa                	mov    %edi,%edx
    c20e:	89 f0                	mov    %esi,%eax
    c210:	66 89 95 3c ef ff ff 	mov    %dx,-0x10c4(%rbp)
    c217:	66 89 85 38 ef ff ff 	mov    %ax,-0x10c8(%rbp)
    c21e:	64 48 8b 04 25 28 00 	mov    %fs:0x28,%rax
    c225:	00 00 
    c227:	48 89 45 d8          	mov    %rax,-0x28(%rbp)
    c22b:	31 c0                	xor    %eax,%eax
    c22d:	48 8d 05 44 ae 01 00 	lea    0x1ae44(%rip),%rax        # 27078 <g_739>
    c234:	48 89 85 78 ef ff ff 	mov    %rax,-0x1088(%rbp)
    c23b:	48 8d 85 78 ef ff ff 	lea    -0x1088(%rbp),%rax
    c242:	48 89 85 50 f0 ff ff 	mov    %rax,-0xfb0(%rbp)
    c249:	48 8d 85 78 ef ff ff 	lea    -0x1088(%rbp),%rax
    c250:	48 89 85 58 f0 ff ff 	mov    %rax,-0xfa8(%rbp)
    c257:	48 8d 85 78 ef ff ff 	lea    -0x1088(%rbp),%rax
    c25e:	48 89 85 60 f0 ff ff 	mov    %rax,-0xfa0(%rbp)
    c265:	48 8d 85 78 ef ff ff 	lea    -0x1088(%rbp),%rax
    c26c:	48 89 85 68 f0 ff ff 	mov    %rax,-0xf98(%rbp)
    c273:	48 c7 85 70 f0 ff ff 	movq   $0x0,-0xf90(%rbp)
    c27a:	00 00 00 00 
    c27e:	48 8d 85 78 ef ff ff 	lea    -0x1088(%rbp),%rax
    c285:	48 89 85 78 f0 ff ff 	mov    %rax,-0xf88(%rbp)
    c28c:	48 8d 85 78 ef ff ff 	lea    -0x1088(%rbp),%rax
    c293:	48 89 85 80 f0 ff ff 	mov    %rax,-0xf80(%rbp)
    c29a:	48 8d 85 78 ef ff ff 	lea    -0x1088(%rbp),%rax
    c2a1:	48 89 85 88 f0 ff ff 	mov    %rax,-0xf78(%rbp)
    c2a8:	48 8d 85 78 ef ff ff 	lea    -0x1088(%rbp),%rax
    c2af:	48 89 85 90 f0 ff ff 	mov    %rax,-0xf70(%rbp)
    c2b6:	48 8d 85 78 ef ff ff 	lea    -0x1088(%rbp),%rax
    c2bd:	48 89 85 98 f0 ff ff 	mov    %rax,-0xf68(%rbp)
    c2c4:	48 c7 85 a0 f0 ff ff 	movq   $0x0,-0xf60(%rbp)
    c2cb:	00 00 00 00 
    c2cf:	48 8d 85 78 ef ff ff 	lea    -0x1088(%rbp),%rax
    c2d6:	48 89 85 a8 f0 ff ff 	mov    %rax,-0xf58(%rbp)
    c2dd:	48 8d 85 78 ef ff ff 	lea    -0x1088(%rbp),%rax
    c2e4:	48 89 85 b0 f0 ff ff 	mov    %rax,-0xf50(%rbp)
    c2eb:	48 8d 85 78 ef ff ff 	lea    -0x1088(%rbp),%rax
    c2f2:	48 89 85 b8 f0 ff ff 	mov    %rax,-0xf48(%rbp)
    c2f9:	48 c7 85 c0 f0 ff ff 	movq   $0x0,-0xf40(%rbp)
    c300:	00 00 00 00 
    c304:	48 8d 85 78 ef ff ff 	lea    -0x1088(%rbp),%rax
    c30b:	48 89 85 c8 f0 ff ff 	mov    %rax,-0xf38(%rbp)
    c312:	48 8d 85 78 ef ff ff 	lea    -0x1088(%rbp),%rax
    c319:	48 89 85 d0 f0 ff ff 	mov    %rax,-0xf30(%rbp)
    c320:	48 8d 85 78 ef ff ff 	lea    -0x1088(%rbp),%rax
    c327:	48 89 85 d8 f0 ff ff 	mov    %rax,-0xf28(%rbp)
    c32e:	48 c7 85 e0 f0 ff ff 	movq   $0x0,-0xf20(%rbp)
    c335:	00 00 00 00 
    c339:	48 c7 85 e8 f0 ff ff 	movq   $0x0,-0xf18(%rbp)
    c340:	00 00 00 00 
    c344:	48 8d 85 78 ef ff ff 	lea    -0x1088(%rbp),%rax
    c34b:	48 89 85 f0 f0 ff ff 	mov    %rax,-0xf10(%rbp)
    c352:	48 8d 05 1f ad 01 00 	lea    0x1ad1f(%rip),%rax        # 27078 <g_739>
    c359:	48 89 85 80 ef ff ff 	mov    %rax,-0x1080(%rbp)
    c360:	48 8d 85 80 ef ff ff 	lea    -0x1080(%rbp),%rax
    c367:	48 89 85 88 ef ff ff 	mov    %rax,-0x1078(%rbp)
    c36e:	48 8d 05 2b 59 01 00 	lea    0x1592b(%rip),%rax        # 21ca0 <g_627>
    c375:	48 89 85 90 ef ff ff 	mov    %rax,-0x1070(%rbp)
    c37c:	48 8d 05 4d 75 01 00 	lea    0x1754d(%rip),%rax        # 238d0 <g_1690>
    c383:	48 89 85 c0 ef ff ff 	mov    %rax,-0x1040(%rbp)
    c38a:	48 8d 05 c7 58 01 00 	lea    0x158c7(%rip),%rax        # 21c58 <g_552+0x3b8>
    c391:	48 89 85 98 ef ff ff 	mov    %rax,-0x1068(%rbp)
    c398:	48 8d 85 98 ef ff ff 	lea    -0x1068(%rbp),%rax
    c39f:	48 89 85 a0 ef ff ff 	mov    %rax,-0x1060(%rbp)
    c3a6:	c7 85 64 ef ff ff e3 	movl   $0x727f9fe3,-0x109c(%rbp)
    c3ad:	9f 7f 72 
    c3b0:	66 c7 85 46 ef ff ff 	movw   $0x6dec,-0x10ba(%rbp)
    c3b7:	ec 6d 
    c3b9:	48 c7 85 c8 ef ff ff 	movq   $0x0,-0x1038(%rbp)
    c3c0:	00 00 00 00 
    c3c4:	48 8d 05 6d 39 01 00 	lea    0x1396d(%rip),%rax        # 1fd38 <g_964+0x38>
    c3cb:	48 89 85 a8 ef ff ff 	mov    %rax,-0x1058(%rbp)
    c3d2:	66 c7 85 48 ef ff ff 	movw   $0x9,-0x10b8(%rbp)
    c3d9:	09 00 
    c3db:	c7 85 54 ef ff ff 00 	movl   $0x0,-0x10ac(%rbp)
    c3e2:	00 00 00 
    c3e5:	eb 46                	jmp    c42d <func_28+0x243>
    c3e7:	c7 85 58 ef ff ff 00 	movl   $0x0,-0x10a8(%rbp)
    c3ee:	00 00 00 
    c3f1:	eb 2a                	jmp    c41d <func_28+0x233>
    c3f3:	8b 85 58 ef ff ff    	mov    -0x10a8(%rbp),%eax
    c3f9:	48 63 d0             	movslq %eax,%rdx
    c3fc:	8b 85 54 ef ff ff    	mov    -0x10ac(%rbp),%eax
    c402:	48 98                	cltq   
    c404:	48 01 c2             	add    %rax,%rdx
    c407:	48 8d 85 88 ef ff ff 	lea    -0x1078(%rbp),%rax
    c40e:	48 89 84 d5 28 f0 ff 	mov    %rax,-0xfd8(%rbp,%rdx,8)
    c415:	ff 
    c416:	83 85 58 ef ff ff 01 	addl   $0x1,-0x10a8(%rbp)
    c41d:	83 bd 58 ef ff ff 00 	cmpl   $0x0,-0x10a8(%rbp)
    c424:	7e cd                	jle    c3f3 <func_28+0x209>
    c426:	83 85 54 ef ff ff 01 	addl   $0x1,-0x10ac(%rbp)
    c42d:	83 bd 54 ef ff ff 00 	cmpl   $0x0,-0x10ac(%rbp)
    c434:	7e b1                	jle    c3e7 <func_28+0x1fd>
    c436:	48 8b 05 6b ab 01 00 	mov    0x1ab6b(%rip),%rax        # 26fa8 <g_104>
    c43d:	0f b7 00             	movzwl (%rax),%eax
    c440:	0f bf d8             	movswl %ax,%ebx
    c443:	48 8b 05 46 ac 01 00 	mov    0x1ac46(%rip),%rax        # 27090 <g_955>
    c44a:	44 0f bf a5 38 ef ff 	movswl -0x10c8(%rbp),%r12d
    c451:	ff 
    c452:	0f bf 95 38 ef ff ff 	movswl -0x10c8(%rbp),%edx
    c459:	48 8b 8d 80 f0 ff ff 	mov    -0xf80(%rbp),%rcx
    c460:	48 8b 85 88 ef ff ff 	mov    -0x1078(%rbp),%rax
    c467:	48 89 05 fa b2 01 00 	mov    %rax,0x1b2fa(%rip)        # 27768 <g_1680+0x8>
    c46e:	48 8b 05 f3 b2 01 00 	mov    0x1b2f3(%rip),%rax        # 27768 <g_1680+0x8>
    c475:	48 39 c1             	cmp    %rax,%rcx
    c478:	0f 95 c0             	setne  %al
    c47b:	0f b6 c0             	movzbl %al,%eax
    c47e:	89 d6                	mov    %edx,%esi
    c480:	89 c7                	mov    %eax,%edi
    c482:	e8 f3 e9 ff ff       	callq  ae7a <safe_rshift_func_uint16_t_u_u>
    c487:	66 85 c0             	test   %ax,%ax
    c48a:	74 74                	je     c500 <func_28+0x316>
    c48c:	44 0f bf ad 3c ef ff 	movswl -0x10c4(%rbp),%r13d
    c493:	ff 
    c494:	48 8b 05 55 ac 01 00 	mov    0x1ac55(%rip),%rax        # 270f0 <g_1055>
    c49b:	48 8b 00             	mov    (%rax),%rax
    c49e:	48 8b 10             	mov    (%rax),%rdx
    c4a1:	48 8b 05 48 ac 01 00 	mov    0x1ac48(%rip),%rax        # 270f0 <g_1055>
    c4a8:	48 8b 00             	mov    (%rax),%rax
    c4ab:	48 8b 00             	mov    (%rax),%rax
    c4ae:	48 8b 12             	mov    (%rdx),%rdx
    c4b1:	48 89 10             	mov    %rdx,(%rax)
    c4b4:	66 83 bd 38 ef ff ff 	cmpw   $0x0,-0x10c8(%rbp)
    c4bb:	00 
    c4bc:	0f 9f c0             	setg   %al
    c4bf:	0f b6 d0             	movzbl %al,%edx
    c4c2:	0f b7 05 13 51 01 00 	movzwl 0x15113(%rip),%eax        # 215dc <g_312+0xc>
    c4c9:	98                   	cwtl   
    c4ca:	09 d0                	or     %edx,%eax
    c4cc:	48 98                	cltq   
    c4ce:	48 c7 c6 ff ff ff ff 	mov    $0xffffffffffffffff,%rsi
    c4d5:	48 89 c7             	mov    %rax,%rdi
    c4d8:	e8 a3 eb ff ff       	callq  b080 <safe_mod_func_uint64_t_u_u>
    c4dd:	98                   	cwtl   
    c4de:	be dd 2f 00 00       	mov    $0x2fdd,%esi
    c4e3:	89 c7                	mov    %eax,%edi
    c4e5:	e8 0b df ff ff       	callq  a3f5 <safe_mul_func_int16_t_s_s>
    c4ea:	98                   	cwtl   
    c4eb:	44 89 ee             	mov    %r13d,%esi
    c4ee:	89 c7                	mov    %eax,%edi
    c4f0:	e8 08 ea ff ff       	callq  aefd <safe_mod_func_uint32_t_u_u>
    c4f5:	85 c0                	test   %eax,%eax
    c4f7:	74 07                	je     c500 <func_28+0x316>
    c4f9:	b8 01 00 00 00       	mov    $0x1,%eax
    c4fe:	eb 05                	jmp    c505 <func_28+0x31b>
    c500:	b8 00 00 00 00       	mov    $0x0,%eax
    c505:	44 89 e6             	mov    %r12d,%esi
    c508:	89 c7                	mov    %eax,%edi
    c50a:	e8 a9 e9 ff ff       	callq  aeb8 <safe_add_func_uint32_t_u_u>
    c50f:	0f b7 15 5c 73 01 00 	movzwl 0x1735c(%rip),%edx        # 23872 <g_1406+0x12>
    c516:	66 c1 fa 06          	sar    $0x6,%dx
    c51a:	21 d0                	and    %edx,%eax
    c51c:	c1 e0 06             	shl    $0x6,%eax
    c51f:	66 c1 f8 06          	sar    $0x6,%ax
    c523:	c1 e0 06             	shl    $0x6,%eax
    c526:	89 c2                	mov    %eax,%edx
    c528:	0f b7 05 43 73 01 00 	movzwl 0x17343(%rip),%eax        # 23872 <g_1406+0x12>
    c52f:	83 e0 3f             	and    $0x3f,%eax
    c532:	09 d0                	or     %edx,%eax
    c534:	66 89 05 37 73 01 00 	mov    %ax,0x17337(%rip)        # 23872 <g_1406+0x12>
    c53b:	89 de                	mov    %ebx,%esi
    c53d:	bf df 86 00 00       	mov    $0x86df,%edi
    c542:	e8 77 e8 ff ff       	callq  adbe <safe_lshift_func_uint16_t_u_s>
    c547:	66 85 c0             	test   %ax,%ax
    c54a:	0f 84 f2 01 00 00    	je     c742 <func_28+0x558>
    c550:	48 8d 85 a0 ef ff ff 	lea    -0x1060(%rbp),%rax
    c557:	48 89 85 18 f0 ff ff 	mov    %rax,-0xfe8(%rbp)
    c55e:	c7 05 48 57 01 00 02 	movl   $0x2,0x15748(%rip)        # 21cb0 <g_637>
    c565:	00 00 00 
    c568:	eb 4d                	jmp    c5b7 <func_28+0x3cd>
    c56a:	48 8d 85 50 f8 ff ff 	lea    -0x7b0(%rbp),%rax
    c571:	48 8d 15 28 75 01 00 	lea    0x17528(%rip),%rdx        # 23aa0 <g_2144+0xa0>
    c578:	b9 24 00 00 00       	mov    $0x24,%ecx
    c57d:	48 89 c7             	mov    %rax,%rdi
    c580:	48 89 d6             	mov    %rdx,%rsi
    c583:	f3 48 a5             	rep movsq %ds:(%rsi),%es:(%rdi)
    c586:	48 8b 05 9b aa 01 00 	mov    0x1aa9b(%rip),%rax        # 27028 <g_215>
    c58d:	48 8b 00             	mov    (%rax),%rax
    c590:	48 89 85 c0 ef ff ff 	mov    %rax,-0x1040(%rbp)
    c597:	48 8b 05 8a aa 01 00 	mov    0x1aa8a(%rip),%rax        # 27028 <g_215>
    c59e:	48 8b 95 c0 ef ff ff 	mov    -0x1040(%rbp),%rdx
    c5a5:	48 89 10             	mov    %rdx,(%rax)
    c5a8:	8b 05 02 57 01 00    	mov    0x15702(%rip),%eax        # 21cb0 <g_637>
    c5ae:	83 c0 01             	add    $0x1,%eax
    c5b1:	89 05 f9 56 01 00    	mov    %eax,0x156f9(%rip)        # 21cb0 <g_637>
    c5b7:	8b 05 f3 56 01 00    	mov    0x156f3(%rip),%eax        # 21cb0 <g_637>
    c5bd:	83 f8 08             	cmp    $0x8,%eax
    c5c0:	76 a8                	jbe    c56a <func_28+0x380>
    c5c2:	0f b7 85 38 ef ff ff 	movzwl -0x10c8(%rbp),%eax
    c5c9:	0f b6 d8             	movzbl %al,%ebx
    c5cc:	0f b7 85 3c ef ff ff 	movzwl -0x10c4(%rbp),%eax
    c5d3:	44 0f be e0          	movsbl %al,%r12d
    c5d7:	48 8b 05 3a aa 01 00 	mov    0x1aa3a(%rip),%rax        # 27018 <g_200>
    c5de:	48 8b 08             	mov    (%rax),%rcx
    c5e1:	48 8b 95 a0 ef ff ff 	mov    -0x1060(%rbp),%rdx
    c5e8:	48 8b 85 18 f0 ff ff 	mov    -0xfe8(%rbp),%rax
    c5ef:	48 89 10             	mov    %rdx,(%rax)
    c5f2:	48 8b 85 18 f0 ff ff 	mov    -0xfe8(%rbp),%rax
    c5f9:	48 8b 00             	mov    (%rax),%rax
    c5fc:	48 39 c1             	cmp    %rax,%rcx
    c5ff:	0f 95 c0             	setne  %al
    c602:	44 0f b6 e8          	movzbl %al,%r13d
    c606:	48 8b 05 63 ac 01 00 	mov    0x1ac63(%rip),%rax        # 27270 <g_1487>
    c60d:	48 8b 00             	mov    (%rax),%rax
    c610:	48 8b 00             	mov    (%rax),%rax
    c613:	0f b7 00             	movzwl (%rax),%eax
    c616:	0f b7 c0             	movzwl %ax,%eax
    c619:	be 00 00 00 00       	mov    $0x0,%esi
    c61e:	89 c7                	mov    %eax,%edi
    c620:	e8 da e6 ff ff       	callq  acff <safe_add_func_uint16_t_u_u>
    c625:	98                   	cwtl   
    c626:	89 c6                	mov    %eax,%esi
    c628:	bf 00 00 00 00       	mov    $0x0,%edi
    c62d:	e8 81 dd ff ff       	callq  a3b3 <safe_add_func_int16_t_s_s>
    c632:	0f bf d0             	movswl %ax,%edx
    c635:	0f b6 05 9f 71 01 00 	movzbl 0x1719f(%rip),%eax        # 237db <g_1156+0xb>
    c63c:	0f b6 c0             	movzbl %al,%eax
    c63f:	21 c2                	and    %eax,%edx
    c641:	0f b7 05 9a 72 01 00 	movzwl 0x1729a(%rip),%eax        # 238e2 <g_1690+0x12>
    c648:	66 c1 f8 06          	sar    $0x6,%ax
    c64c:	98                   	cwtl   
    c64d:	21 d0                	and    %edx,%eax
    c64f:	39 85 64 ef ff ff    	cmp    %eax,-0x109c(%rbp)
    c655:	0f 9f c0             	setg   %al
    c658:	0f b6 c0             	movzbl %al,%eax
    c65b:	41 39 c5             	cmp    %eax,%r13d
    c65e:	0f 9c c0             	setl   %al
    c661:	0f b6 c0             	movzbl %al,%eax
    c664:	44 89 e6             	mov    %r12d,%esi
    c667:	89 c7                	mov    %eax,%edi
    c669:	e8 a4 db ff ff       	callq  a212 <safe_mul_func_int8_t_s_s>
    c66e:	0f b6 c0             	movzbl %al,%eax
    c671:	89 de                	mov    %ebx,%esi
    c673:	89 c7                	mov    %eax,%edi
    c675:	e8 fe e4 ff ff       	callq  ab78 <safe_sub_func_uint8_t_u_u>
    c67a:	0f b6 d0             	movzbl %al,%edx
    c67d:	0f bf 85 3c ef ff ff 	movswl -0x10c4(%rbp),%eax
    c684:	21 c2                	and    %eax,%edx
    c686:	48 8b 05 1b a9 01 00 	mov    0x1a91b(%rip),%rax        # 26fa8 <g_104>
    c68d:	0f b7 00             	movzwl (%rax),%eax
    c690:	98                   	cwtl   
    c691:	21 d0                	and    %edx,%eax
    c693:	48 63 d0             	movslq %eax,%rdx
    c696:	48 0f bf 85 3c ef ff 	movswq -0x10c4(%rbp),%rax
    c69d:	ff 
    c69e:	48 89 d6             	mov    %rdx,%rsi
    c6a1:	48 89 c7             	mov    %rax,%rdi
    c6a4:	e8 4e e3 ff ff       	callq  a9f7 <safe_div_func_int64_t_s_s>
    c6a9:	48 85 c0             	test   %rax,%rax
    c6ac:	74 1a                	je     c6c8 <func_28+0x4de>
    c6ae:	48 8b 85 18 f0 ff ff 	mov    -0xfe8(%rbp),%rax
    c6b5:	48 8b 00             	mov    (%rax),%rax
    c6b8:	48 8b 00             	mov    (%rax),%rax
    c6bb:	8b 00                	mov    (%rax),%eax
    c6bd:	85 c0                	test   %eax,%eax
    c6bf:	74 07                	je     c6c8 <func_28+0x4de>
    c6c1:	b8 01 00 00 00       	mov    $0x1,%eax
    c6c6:	eb 05                	jmp    c6cd <func_28+0x4e3>
    c6c8:	b8 00 00 00 00       	mov    $0x0,%eax
    c6cd:	83 f8 05             	cmp    $0x5,%eax
    c6d0:	0f 9e c0             	setle  %al
    c6d3:	0f b6 d0             	movzbl %al,%edx
    c6d6:	0f bf 85 38 ef ff ff 	movswl -0x10c8(%rbp),%eax
    c6dd:	21 c2                	and    %eax,%edx
    c6df:	0f bf 85 3c ef ff ff 	movswl -0x10c4(%rbp),%eax
    c6e6:	89 d3                	mov    %edx,%ebx
    c6e8:	09 c3                	or     %eax,%ebx
    c6ea:	48 0f bf 85 38 ef ff 	movswq -0x10c8(%rbp),%rax
    c6f1:	ff 
    c6f2:	48 89 c7             	mov    %rax,%rdi
    c6f5:	e8 1f e9 ff ff       	callq  b019 <safe_unary_minus_func_uint64_t_u>
    c6fa:	48 0f bf 95 38 ef ff 	movswq -0x10c8(%rbp),%rdx
    c701:	ff 
    c702:	48 39 d0             	cmp    %rdx,%rax
    c705:	0f 94 c0             	sete   %al
    c708:	0f b6 c0             	movzbl %al,%eax
    c70b:	89 de                	mov    %ebx,%esi
    c70d:	89 c7                	mov    %eax,%edi
    c70f:	e8 a2 de ff ff       	callq  a5b6 <safe_add_func_int32_t_s_s>
    c714:	0f bf 95 3c ef ff ff 	movswl -0x10c4(%rbp),%edx
    c71b:	39 d0                	cmp    %edx,%eax
    c71d:	7e 0e                	jle    c72d <func_28+0x543>
    c71f:	48 8b 85 a0 ef ff ff 	mov    -0x1060(%rbp),%rax
    c726:	48 8b 00             	mov    (%rax),%rax
    c729:	8b 00                	mov    (%rax),%eax
    c72b:	85 c0                	test   %eax,%eax
    c72d:	48 8b 05 2c a9 01 00 	mov    0x1a92c(%rip),%rax        # 27060 <g_592>
    c734:	0f bf 95 3c ef ff ff 	movswl -0x10c4(%rbp),%edx
    c73b:	89 10                	mov    %edx,(%rax)
    c73d:	e9 49 08 00 00       	jmpq   cf8b <func_28+0xda1>
    c742:	48 8d 85 50 f8 ff ff 	lea    -0x7b0(%rbp),%rax
    c749:	48 8d 15 70 74 01 00 	lea    0x17470(%rip),%rdx        # 23bc0 <g_2144+0x1c0>
    c750:	b9 f0 00 00 00       	mov    $0xf0,%ecx
    c755:	48 89 c7             	mov    %rax,%rdi
    c758:	48 89 d6             	mov    %rdx,%rsi
    c75b:	f3 48 a5             	rep movsq %ds:(%rsi),%es:(%rdi)
    c75e:	c7 85 68 ef ff ff 05 	movl   $0x5,-0x1098(%rbp)
    c765:	00 00 00 
    c768:	c6 85 44 ef ff ff c5 	movb   $0xc5,-0x10bc(%rbp)
    c76f:	c7 85 6c ef ff ff 97 	movl   $0xf8bb4a97,-0x1094(%rbp)
    c776:	4a bb f8 
    c779:	c7 85 4c ef ff ff 00 	movl   $0x0,-0x10b4(%rbp)
    c780:	00 00 00 
    c783:	48 8d 85 c0 f4 ff ff 	lea    -0xb40(%rbp),%rax
    c78a:	48 8d 15 8f e3 00 00 	lea    0xe38f(%rip),%rdx        # 1ab20 <g_1979+0x5bc>
    c791:	b9 70 00 00 00       	mov    $0x70,%ecx
    c796:	48 89 c7             	mov    %rax,%rdi
    c799:	48 89 d6             	mov    %rdx,%rsi
    c79c:	f3 48 a5             	rep movsq %ds:(%rsi),%es:(%rdi)
    c79f:	48 89 f2             	mov    %rsi,%rdx
    c7a2:	48 89 f8             	mov    %rdi,%rax
    c7a5:	8b 0a                	mov    (%rdx),%ecx
    c7a7:	89 08                	mov    %ecx,(%rax)
    c7a9:	48 8d 40 04          	lea    0x4(%rax),%rax
    c7ad:	48 8d 52 04          	lea    0x4(%rdx),%rdx
    c7b1:	66 c7 85 4a ef ff ff 	movw   $0xffff,-0x10b6(%rbp)
    c7b8:	ff ff 
    c7ba:	c6 85 45 ef ff ff 8c 	movb   $0x8c,-0x10bb(%rbp)
    c7c1:	48 8d 05 88 38 01 00 	lea    0x13888(%rip),%rax        # 20050 <g_147>
    c7c8:	48 89 85 d0 ef ff ff 	mov    %rax,-0x1030(%rbp)
    c7cf:	48 8d 05 8a aa 01 00 	lea    0x1aa8a(%rip),%rax        # 27260 <g_1489>
    c7d6:	48 89 85 d8 ef ff ff 	mov    %rax,-0x1028(%rbp)
    c7dd:	48 8d 85 c0 f1 ff ff 	lea    -0xe40(%rbp),%rax
    c7e4:	48 8d 15 d5 e6 00 00 	lea    0xe6d5(%rip),%rdx        # 1aec0 <g_1979+0x95c>
    c7eb:	b9 28 00 00 00       	mov    $0x28,%ecx
    c7f0:	48 89 c7             	mov    %rax,%rdi
    c7f3:	48 89 d6             	mov    %rdx,%rsi
    c7f6:	f3 48 a5             	rep movsq %ds:(%rsi),%es:(%rdi)
    c7f9:	48 c7 85 b0 ef ff ff 	movq   $0x0,-0x1050(%rbp)
    c800:	00 00 00 00 
    c804:	48 8d 85 b0 ef ff ff 	lea    -0x1050(%rbp),%rax
    c80b:	48 89 85 e0 ef ff ff 	mov    %rax,-0x1020(%rbp)
    c812:	48 c7 85 e8 ef ff ff 	movq   $0x0,-0x1018(%rbp)
    c819:	00 00 00 00 
    c81d:	44 0f bf a5 3c ef ff 	movswl -0x10c4(%rbp),%r12d
    c824:	ff 
    c825:	48 8b 85 a0 ef ff ff 	mov    -0x1060(%rbp),%rax
    c82c:	48 8b 00             	mov    (%rax),%rax
    c82f:	8b 00                	mov    (%rax),%eax
    c831:	41 89 c5             	mov    %eax,%r13d
    c834:	48 8b 05 6d a7 01 00 	mov    0x1a76d(%rip),%rax        # 26fa8 <g_104>
    c83b:	0f b7 00             	movzwl (%rax),%eax
    c83e:	0f b7 d8             	movzwl %ax,%ebx
    c841:	be 01 00 00 00       	mov    $0x1,%esi
    c846:	bf 01 00 00 00       	mov    $0x1,%edi
    c84b:	e8 1c db ff ff       	callq  a36c <safe_rshift_func_int8_t_s_u>
    c850:	0f be c0             	movsbl %al,%eax
    c853:	39 85 68 ef ff ff    	cmp    %eax,-0x1098(%rbp)
    c859:	74 11                	je     c86c <func_28+0x682>
    c85b:	66 83 bd 38 ef ff ff 	cmpw   $0x0,-0x10c8(%rbp)
    c862:	00 
    c863:	74 07                	je     c86c <func_28+0x682>
    c865:	b8 01 00 00 00       	mov    $0x1,%eax
    c86a:	eb 05                	jmp    c871 <func_28+0x687>
    c86c:	b8 00 00 00 00       	mov    $0x0,%eax
    c871:	0f b6 c0             	movzbl %al,%eax
    c874:	be 04 00 00 00       	mov    $0x4,%esi
    c879:	89 c7                	mov    %eax,%edi
    c87b:	e8 85 e3 ff ff       	callq  ac05 <safe_lshift_func_uint8_t_u_s>
    c880:	0f b6 c0             	movzbl %al,%eax
    c883:	89 de                	mov    %ebx,%esi
    c885:	89 c7                	mov    %eax,%edi
    c887:	e8 d0 e4 ff ff       	callq  ad5c <safe_mod_func_uint16_t_u_u>
    c88c:	0f b7 c0             	movzwl %ax,%eax
    c88f:	89 c6                	mov    %eax,%esi
    c891:	bf 01 00 00 00       	mov    $0x1,%edi
    c896:	e8 62 e6 ff ff       	callq  aefd <safe_mod_func_uint32_t_u_u>
    c89b:	44 89 ee             	mov    %r13d,%esi
    c89e:	89 c7                	mov    %eax,%edi
    c8a0:	e8 13 e6 ff ff       	callq  aeb8 <safe_add_func_uint32_t_u_u>
    c8a5:	8b 95 68 ef ff ff    	mov    -0x1098(%rbp),%edx
    c8ab:	09 d0                	or     %edx,%eax
    c8ad:	44 89 e2             	mov    %r12d,%edx
    c8b0:	21 c2                	and    %eax,%edx
    c8b2:	0f bf 85 3c ef ff ff 	movswl -0x10c4(%rbp),%eax
    c8b9:	39 c2                	cmp    %eax,%edx
    c8bb:	76 0f                	jbe    c8cc <func_28+0x6e2>
    c8bd:	48 8b 05 c4 a7 01 00 	mov    0x1a7c4(%rip),%rax        # 27088 <g_956>
    c8c4:	48 8b 00             	mov    (%rax),%rax
    c8c7:	48 85 c0             	test   %rax,%rax
    c8ca:	74 07                	je     c8d3 <func_28+0x6e9>
    c8cc:	b8 01 00 00 00       	mov    $0x1,%eax
    c8d1:	eb 05                	jmp    c8d8 <func_28+0x6ee>
    c8d3:	b8 00 00 00 00       	mov    $0x0,%eax
    c8d8:	83 f0 01             	xor    $0x1,%eax
    c8db:	89 c2                	mov    %eax,%edx
    c8dd:	0f bf 85 3c ef ff ff 	movswl -0x10c4(%rbp),%eax
    c8e4:	39 c2                	cmp    %eax,%edx
    c8e6:	66 83 bd 3c ef ff ff 	cmpw   $0x0,-0x10c4(%rbp)
    c8ed:	00 
    c8ee:	0f 95 c0             	setne  %al
    c8f1:	0f b6 d0             	movzbl %al,%edx
    c8f4:	0f bf 85 3c ef ff ff 	movswl -0x10c4(%rbp),%eax
    c8fb:	39 c2                	cmp    %eax,%edx
    c8fd:	0f 9f c0             	setg   %al
    c900:	0f b6 c0             	movzbl %al,%eax
    c903:	be 04 00 00 00       	mov    $0x4,%esi
    c908:	89 c7                	mov    %eax,%edi
    c90a:	e8 26 da ff ff       	callq  a335 <safe_rshift_func_int8_t_s_s>
    c90f:	66 98                	cbtw   
    c911:	66 39 85 3c ef ff ff 	cmp    %ax,-0x10c4(%rbp)
    c918:	0f 9c c0             	setl   %al
    c91b:	0f b6 c0             	movzbl %al,%eax
    c91e:	89 c2                	mov    %eax,%edx
    c920:	0f b6 05 f9 6f 01 00 	movzbl 0x16ff9(%rip),%eax        # 23920 <g_1725>
    c927:	21 d0                	and    %edx,%eax
    c929:	88 05 f1 6f 01 00    	mov    %al,0x16ff1(%rip)        # 23920 <g_1725>
    c92f:	83 bd 64 ef ff ff 00 	cmpl   $0x0,-0x109c(%rbp)
    c936:	90                   	nop
    c937:	f3 0f 1e fa          	endbr64 
    c93b:	80 ad 45 ef ff ff 01 	subb   $0x1,-0x10bb(%rbp)
    c942:	66 c7 85 46 ef ff ff 	movw   $0xfffb,-0x10ba(%rbp)
    c949:	fb ff 
    c94b:	e9 2d 06 00 00       	jmpq   cf7d <func_28+0xd93>
    c950:	c7 85 50 ef ff ff ff 	movl   $0xffffffff,-0x10b0(%rbp)
    c957:	ff ff ff 
    c95a:	48 8d 05 f3 53 01 00 	lea    0x153f3(%rip),%rax        # 21d54 <g_987>
    c961:	48 89 85 f0 ef ff ff 	mov    %rax,-0x1010(%rbp)
    c968:	c7 85 5c ef ff ff 00 	movl   $0x0,-0x10a4(%rbp)
    c96f:	00 00 00 
    c972:	eb 1e                	jmp    c992 <func_28+0x7a8>
    c974:	8b 85 5c ef ff ff    	mov    -0x10a4(%rbp),%eax
    c97a:	48 98                	cltq   
    c97c:	48 8d 15 85 a8 01 00 	lea    0x1a885(%rip),%rdx        # 27208 <g_1411+0x8>
    c983:	48 89 94 c5 30 f0 ff 	mov    %rdx,-0xfd0(%rbp,%rax,8)
    c98a:	ff 
    c98b:	83 85 5c ef ff ff 01 	addl   $0x1,-0x10a4(%rbp)
    c992:	83 bd 5c ef ff ff 02 	cmpl   $0x2,-0x10a4(%rbp)
    c999:	7e d9                	jle    c974 <func_28+0x78a>
    c99b:	0f bf 9d 4a ef ff ff 	movswl -0x10b6(%rbp),%ebx
    c9a2:	48 8b 85 c8 ef ff ff 	mov    -0x1038(%rbp),%rax
    c9a9:	48 3b 85 d8 ef ff ff 	cmp    -0x1028(%rbp),%rax
    c9b0:	0f 94 c0             	sete   %al
    c9b3:	0f b6 c0             	movzbl %al,%eax
    c9b6:	89 c7                	mov    %eax,%edi
    c9b8:	e8 88 e1 ff ff       	callq  ab45 <safe_unary_minus_func_uint8_t_u>
    c9bd:	84 c0                	test   %al,%al
    c9bf:	74 11                	je     c9d2 <func_28+0x7e8>
    c9c1:	8b 85 50 ef ff ff    	mov    -0x10b0(%rbp),%eax
    c9c7:	85 c0                	test   %eax,%eax
    c9c9:	74 07                	je     c9d2 <func_28+0x7e8>
    c9cb:	b8 01 00 00 00       	mov    $0x1,%eax
    c9d0:	eb 05                	jmp    c9d7 <func_28+0x7ed>
    c9d2:	b8 00 00 00 00       	mov    $0x0,%eax
    c9d7:	44 0f be e0          	movsbl %al,%r12d
    c9db:	48 8b 85 38 f0 ff ff 	mov    -0xfc8(%rbp),%rax
    c9e2:	48 85 c0             	test   %rax,%rax
    c9e5:	41 0f 94 c6          	sete   %r14b
    c9e9:	48 83 bd d0 ef ff ff 	cmpq   $0x0,-0x1030(%rbp)
    c9f0:	00 
    c9f1:	0f 94 c0             	sete   %al
    c9f4:	44 0f b6 e8          	movzbl %al,%r13d
    c9f8:	8b 85 4c ef ff ff    	mov    -0x10b4(%rbp),%eax
    c9fe:	0f be d0             	movsbl %al,%edx
    ca01:	48 8b 05 10 a6 01 00 	mov    0x1a610(%rip),%rax        # 27018 <g_200>
    ca08:	48 8b 00             	mov    (%rax),%rax
    ca0b:	48 85 c0             	test   %rax,%rax
    ca0e:	0f 94 c0             	sete   %al
    ca11:	0f b6 c0             	movzbl %al,%eax
    ca14:	89 d6                	mov    %edx,%esi
    ca16:	89 c7                	mov    %eax,%edi
    ca18:	e8 14 d8 ff ff       	callq  a231 <safe_mod_func_int8_t_s_s>
    ca1d:	89 c2                	mov    %eax,%edx
    ca1f:	48 8b 05 3a a8 01 00 	mov    0x1a83a(%rip),%rax        # 27260 <g_1489>
    ca26:	66 0f be d2          	movsbw %dl,%dx
    ca2a:	66 89 10             	mov    %dx,(%rax)
    ca2d:	0f b7 00             	movzwl (%rax),%eax
    ca30:	0f b7 c0             	movzwl %ax,%eax
    ca33:	41 39 c5             	cmp    %eax,%r13d
    ca36:	0f 94 c0             	sete   %al
    ca39:	44 31 f0             	xor    %r14d,%eax
    ca3c:	0f b6 c0             	movzbl %al,%eax
    ca3f:	89 c7                	mov    %eax,%edi
    ca41:	e8 57 d9 ff ff       	callq  a39d <safe_unary_minus_func_int16_t_s>
    ca46:	0f be c0             	movsbl %al,%eax
    ca49:	44 89 e6             	mov    %r12d,%esi
    ca4c:	89 c7                	mov    %eax,%edi
    ca4e:	e8 81 d7 ff ff       	callq  a1d4 <safe_add_func_int8_t_s_s>
    ca53:	66 98                	cbtw   
    ca55:	66 39 85 3c ef ff ff 	cmp    %ax,-0x10c4(%rbp)
    ca5c:	0f 95 c0             	setne  %al
    ca5f:	0f b6 c0             	movzbl %al,%eax
    ca62:	89 de                	mov    %ebx,%esi
    ca64:	89 c7                	mov    %eax,%edi
    ca66:	e8 92 e4 ff ff       	callq  aefd <safe_mod_func_uint32_t_u_u>
    ca6b:	89 85 6c f7 ff ff    	mov    %eax,-0x894(%rbp)
    ca71:	8b 85 6c f7 ff ff    	mov    -0x894(%rbp),%eax
    ca77:	66 0d 62 b6          	or     $0xb662,%ax
    ca7b:	98                   	cwtl   
    ca7c:	be 6b 31 00 00       	mov    $0x316b,%esi
    ca81:	89 c7                	mov    %eax,%edi
    ca83:	e8 8e d9 ff ff       	callq  a416 <safe_mod_func_int16_t_s_s>
    ca88:	89 c2                	mov    %eax,%edx
    ca8a:	0f b6 05 e3 37 01 00 	movzbl 0x137e3(%rip),%eax        # 20274 <g_214+0x14>
    ca91:	c1 e0 06             	shl    $0x6,%eax
    ca94:	c0 f8 06             	sar    $0x6,%al
    ca97:	66 98                	cbtw   
    ca99:	66 39 c2             	cmp    %ax,%dx
    ca9c:	0f 95 c0             	setne  %al
    ca9f:	0f b6 d0             	movzbl %al,%edx
    caa2:	48 8b 85 f0 ef ff ff 	mov    -0x1010(%rbp),%rax
    caa9:	89 10                	mov    %edx,(%rax)
    caab:	48 8b 85 f0 ef ff ff 	mov    -0x1010(%rbp),%rax
    cab2:	8b 00                	mov    (%rax),%eax
    cab4:	be da 8a a4 df       	mov    $0xdfa48ada,%esi
    cab9:	89 c7                	mov    %eax,%edi
    cabb:	e8 3d e4 ff ff       	callq  aefd <safe_mod_func_uint32_t_u_u>
    cac0:	85 c0                	test   %eax,%eax
    cac2:	0f 84 5b 01 00 00    	je     cc23 <func_28+0xa39>
    cac8:	48 8d 05 b1 a6 01 00 	lea    0x1a6b1(%rip),%rax        # 27180 <g_1398>
    cacf:	48 89 85 b8 ef ff ff 	mov    %rax,-0x1048(%rbp)
    cad6:	48 8d 85 b8 ef ff ff 	lea    -0x1048(%rbp),%rax
    cadd:	48 89 85 08 f0 ff ff 	mov    %rax,-0xff8(%rbp)
    cae4:	c7 85 70 ef ff ff 08 	movl   $0x8,-0x1090(%rbp)
    caeb:	00 00 00 
    caee:	48 c7 85 10 f0 ff ff 	movq   $0x5,-0xff0(%rbp)
    caf5:	05 00 00 00 
    caf9:	c7 85 74 ef ff ff 86 	movl   $0xf3b92c86,-0x108c(%rbp)
    cb00:	2c b9 f3 
    cb03:	48 8d 05 7e a6 01 00 	lea    0x1a67e(%rip),%rax        # 27188 <g_1397>
    cb0a:	48 39 85 08 f0 ff ff 	cmp    %rax,-0xff8(%rbp)
    cb11:	0f 94 c0             	sete   %al
    cb14:	44 0f b6 e8          	movzbl %al,%r13d
    cb18:	48 8d 05 1b 35 01 00 	lea    0x1351b(%rip),%rax        # 2003a <g_96>
    cb1f:	0f b7 00             	movzwl (%rax),%eax
    cb22:	0f b7 d8             	movzwl %ax,%ebx
    cb25:	44 0f bf a5 3c ef ff 	movswl -0x10c4(%rbp),%r12d
    cb2c:	ff 
    cb2d:	8b 85 70 ef ff ff    	mov    -0x1090(%rbp),%eax
    cb33:	0f bf d0             	movswl %ax,%edx
    cb36:	0f bf 85 38 ef ff ff 	movswl -0x10c8(%rbp),%eax
    cb3d:	89 d6                	mov    %edx,%esi
    cb3f:	89 c7                	mov    %eax,%edi
    cb41:	e8 d0 d8 ff ff       	callq  a416 <safe_mod_func_int16_t_s_s>
    cb46:	98                   	cwtl   
    cb47:	44 89 e6             	mov    %r12d,%esi
    cb4a:	89 c7                	mov    %eax,%edi
    cb4c:	e8 c5 d8 ff ff       	callq  a416 <safe_mod_func_int16_t_s_s>
    cb51:	48 8b 05 90 a5 01 00 	mov    0x1a590(%rip),%rax        # 270e8 <g_1041>
    cb58:	48 8b 00             	mov    (%rax),%rax
    cb5b:	48 8b 00             	mov    (%rax),%rax
    cb5e:	48 8b 10             	mov    (%rax),%rdx
    cb61:	48 8b 85 d0 ef ff ff 	mov    -0x1030(%rbp),%rax
    cb68:	48 89 10             	mov    %rdx,(%rax)
    cb6b:	48 8b 85 d0 ef ff ff 	mov    -0x1030(%rbp),%rax
    cb72:	4c 8b 20             	mov    (%rax),%r12
    cb75:	0f b6 05 e3 49 01 00 	movzbl 0x149e3(%rip),%eax        # 2155f <g_264+0xf>
    cb7c:	c0 e8 07             	shr    $0x7,%al
    cb7f:	0f b6 c0             	movzbl %al,%eax
    cb82:	0f b7 15 d7 49 01 00 	movzwl 0x149d7(%rip),%edx        # 21560 <g_264+0x10>
    cb89:	81 e2 ff 3f 00 00    	and    $0x3fff,%edx
    cb8f:	48 01 d2             	add    %rdx,%rdx
    cb92:	48 09 d0             	or     %rdx,%rax
    cb95:	f7 d0                	not    %eax
    cb97:	0f be c0             	movsbl %al,%eax
    cb9a:	be 05 00 00 00       	mov    $0x5,%esi
    cb9f:	89 c7                	mov    %eax,%edi
    cba1:	e8 8f d7 ff ff       	callq  a335 <safe_rshift_func_int8_t_s_s>
    cba6:	48 0f be c0          	movsbq %al,%rax
    cbaa:	48 35 fe ff 00 00    	xor    $0xfffe,%rax
    cbb0:	49 39 c4             	cmp    %rax,%r12
    cbb3:	0f 93 c0             	setae  %al
    cbb6:	0f b6 d0             	movzbl %al,%edx
    cbb9:	8b 85 10 f8 ff ff    	mov    -0x7f0(%rbp),%eax
    cbbf:	39 c2                	cmp    %eax,%edx
    cbc1:	0f 9d c0             	setge  %al
    cbc4:	0f b6 d0             	movzbl %al,%edx
    cbc7:	48 0f bf 85 38 ef ff 	movswq -0x10c8(%rbp),%rax
    cbce:	ff 
    cbcf:	48 23 85 10 f0 ff ff 	and    -0xff0(%rbp),%rax
    cbd6:	48 b9 9b 83 1d 7d 0a 	movabs $0x3514260a7d1d839b,%rcx
    cbdd:	26 14 35 
    cbe0:	48 31 c8             	xor    %rcx,%rax
    cbe3:	48 39 c2             	cmp    %rax,%rdx
    cbe6:	0f 9c c0             	setl   %al
    cbe9:	0f b6 c0             	movzbl %al,%eax
    cbec:	89 de                	mov    %ebx,%esi
    cbee:	89 c7                	mov    %eax,%edi
    cbf0:	e8 ec d8 ff ff       	callq  a4e1 <safe_lshift_func_int16_t_s_u>
    cbf5:	98                   	cwtl   
    cbf6:	0d bf 81 00 00       	or     $0x81bf,%eax
    cbfb:	89 c2                	mov    %eax,%edx
    cbfd:	8b 85 50 ef ff ff    	mov    -0x10b0(%rbp),%eax
    cc03:	0f b6 c0             	movzbl %al,%eax
    cc06:	89 d6                	mov    %edx,%esi
    cc08:	89 c7                	mov    %eax,%edi
    cc0a:	e8 3d e0 ff ff       	callq  ac4c <safe_lshift_func_uint8_t_u_u>
    cc0f:	0f b6 c0             	movzbl %al,%eax
    cc12:	83 e0 08             	and    $0x8,%eax
    cc15:	4c 31 e8             	xor    %r13,%rax
    cc18:	09 85 74 ef ff ff    	or     %eax,-0x108c(%rbp)
    cc1e:	e9 2d 03 00 00       	jmpq   cf50 <func_28+0xd66>
    cc23:	48 8d 85 a8 ef ff ff 	lea    -0x1058(%rbp),%rax
    cc2a:	48 89 85 f8 ef ff ff 	mov    %rax,-0x1008(%rbp)
    cc31:	48 8d 85 00 f3 ff ff 	lea    -0xd00(%rbp),%rax
    cc38:	48 8d 15 01 77 01 00 	lea    0x17701(%rip),%rdx        # 24340 <g_2144+0x940>
    cc3f:	b9 38 00 00 00       	mov    $0x38,%ecx
    cc44:	48 89 c7             	mov    %rax,%rdi
    cc47:	48 89 d6             	mov    %rdx,%rsi
    cc4a:	f3 48 a5             	rep movsq %ds:(%rsi),%es:(%rdi)
    cc4d:	48 8d 85 00 f3 ff ff 	lea    -0xd00(%rbp),%rax
    cc54:	48 05 a0 01 00 00    	add    $0x1a0,%rax
    cc5a:	48 89 85 00 f1 ff ff 	mov    %rax,-0xf00(%rbp)
    cc61:	48 8d 85 00 f3 ff ff 	lea    -0xd00(%rbp),%rax
    cc68:	48 05 a0 01 00 00    	add    $0x1a0,%rax
    cc6e:	48 89 85 08 f1 ff ff 	mov    %rax,-0xef8(%rbp)
    cc75:	48 8d 85 00 f3 ff ff 	lea    -0xd00(%rbp),%rax
    cc7c:	48 05 a0 01 00 00    	add    $0x1a0,%rax
    cc82:	48 89 85 10 f1 ff ff 	mov    %rax,-0xef0(%rbp)
    cc89:	48 8d 85 00 f3 ff ff 	lea    -0xd00(%rbp),%rax
    cc90:	48 05 a0 01 00 00    	add    $0x1a0,%rax
    cc96:	48 89 85 18 f1 ff ff 	mov    %rax,-0xee8(%rbp)
    cc9d:	48 8d 85 00 f3 ff ff 	lea    -0xd00(%rbp),%rax
    cca4:	48 05 a0 01 00 00    	add    $0x1a0,%rax
    ccaa:	48 89 85 20 f1 ff ff 	mov    %rax,-0xee0(%rbp)
    ccb1:	48 8d 85 00 f3 ff ff 	lea    -0xd00(%rbp),%rax
    ccb8:	48 05 a0 01 00 00    	add    $0x1a0,%rax
    ccbe:	48 89 85 28 f1 ff ff 	mov    %rax,-0xed8(%rbp)
    ccc5:	48 8d 85 00 f3 ff ff 	lea    -0xd00(%rbp),%rax
    cccc:	48 05 a0 01 00 00    	add    $0x1a0,%rax
    ccd2:	48 89 85 30 f1 ff ff 	mov    %rax,-0xed0(%rbp)
    ccd9:	48 8d 85 00 f3 ff ff 	lea    -0xd00(%rbp),%rax
    cce0:	48 05 a0 01 00 00    	add    $0x1a0,%rax
    cce6:	48 89 85 38 f1 ff ff 	mov    %rax,-0xec8(%rbp)
    cced:	48 8d 85 00 f3 ff ff 	lea    -0xd00(%rbp),%rax
    ccf4:	48 05 a0 01 00 00    	add    $0x1a0,%rax
    ccfa:	48 89 85 40 f1 ff ff 	mov    %rax,-0xec0(%rbp)
    cd01:	48 8d 85 00 f3 ff ff 	lea    -0xd00(%rbp),%rax
    cd08:	48 05 a0 01 00 00    	add    $0x1a0,%rax
    cd0e:	48 89 85 48 f1 ff ff 	mov    %rax,-0xeb8(%rbp)
    cd15:	48 8d 85 00 f3 ff ff 	lea    -0xd00(%rbp),%rax
    cd1c:	48 05 a0 01 00 00    	add    $0x1a0,%rax
    cd22:	48 89 85 50 f1 ff ff 	mov    %rax,-0xeb0(%rbp)
    cd29:	48 8d 85 00 f3 ff ff 	lea    -0xd00(%rbp),%rax
    cd30:	48 05 a0 01 00 00    	add    $0x1a0,%rax
    cd36:	48 89 85 58 f1 ff ff 	mov    %rax,-0xea8(%rbp)
    cd3d:	48 8d 85 00 f3 ff ff 	lea    -0xd00(%rbp),%rax
    cd44:	48 05 a0 01 00 00    	add    $0x1a0,%rax
    cd4a:	48 89 85 60 f1 ff ff 	mov    %rax,-0xea0(%rbp)
    cd51:	48 8d 85 00 f3 ff ff 	lea    -0xd00(%rbp),%rax
    cd58:	48 05 a0 01 00 00    	add    $0x1a0,%rax
    cd5e:	48 89 85 68 f1 ff ff 	mov    %rax,-0xe98(%rbp)
    cd65:	48 8d 85 00 f3 ff ff 	lea    -0xd00(%rbp),%rax
    cd6c:	48 05 a0 01 00 00    	add    $0x1a0,%rax
    cd72:	48 89 85 70 f1 ff ff 	mov    %rax,-0xe90(%rbp)
    cd79:	48 8d 85 00 f3 ff ff 	lea    -0xd00(%rbp),%rax
    cd80:	48 05 a0 01 00 00    	add    $0x1a0,%rax
    cd86:	48 89 85 78 f1 ff ff 	mov    %rax,-0xe88(%rbp)
    cd8d:	48 8d 85 00 f3 ff ff 	lea    -0xd00(%rbp),%rax
    cd94:	48 05 a0 01 00 00    	add    $0x1a0,%rax
    cd9a:	48 89 85 80 f1 ff ff 	mov    %rax,-0xe80(%rbp)
    cda1:	48 8d 85 00 f3 ff ff 	lea    -0xd00(%rbp),%rax
    cda8:	48 05 a0 01 00 00    	add    $0x1a0,%rax
    cdae:	48 89 85 88 f1 ff ff 	mov    %rax,-0xe78(%rbp)
    cdb5:	48 8d 85 00 f3 ff ff 	lea    -0xd00(%rbp),%rax
    cdbc:	48 05 a0 01 00 00    	add    $0x1a0,%rax
    cdc2:	48 89 85 90 f1 ff ff 	mov    %rax,-0xe70(%rbp)
    cdc9:	48 8d 85 00 f3 ff ff 	lea    -0xd00(%rbp),%rax
    cdd0:	48 05 a0 01 00 00    	add    $0x1a0,%rax
    cdd6:	48 89 85 98 f1 ff ff 	mov    %rax,-0xe68(%rbp)
    cddd:	48 8d 85 00 f3 ff ff 	lea    -0xd00(%rbp),%rax
    cde4:	48 05 a0 01 00 00    	add    $0x1a0,%rax
    cdea:	48 89 85 a0 f1 ff ff 	mov    %rax,-0xe60(%rbp)
    cdf1:	48 8d 85 00 f3 ff ff 	lea    -0xd00(%rbp),%rax
    cdf8:	48 05 a0 01 00 00    	add    $0x1a0,%rax
    cdfe:	48 89 85 a8 f1 ff ff 	mov    %rax,-0xe58(%rbp)
    ce05:	48 8d 85 00 f3 ff ff 	lea    -0xd00(%rbp),%rax
    ce0c:	48 05 a0 01 00 00    	add    $0x1a0,%rax
    ce12:	48 89 85 b0 f1 ff ff 	mov    %rax,-0xe50(%rbp)
    ce19:	48 8d 85 00 f3 ff ff 	lea    -0xd00(%rbp),%rax
    ce20:	48 05 a0 01 00 00    	add    $0x1a0,%rax
    ce26:	48 89 85 b8 f1 ff ff 	mov    %rax,-0xe48(%rbp)
    ce2d:	48 c7 85 00 f0 ff ff 	movq   $0x0,-0x1000(%rbp)
    ce34:	00 00 00 00 
    ce38:	c7 85 60 ef ff ff 00 	movl   $0x0,-0x10a0(%rbp)
    ce3f:	00 00 00 
    ce42:	eb 1a                	jmp    ce5e <func_28+0xc74>
    ce44:	8b 85 60 ef ff ff    	mov    -0x10a0(%rbp),%eax
    ce4a:	48 98                	cltq   
    ce4c:	c7 84 85 24 f0 ff ff 	movl   $0x8ac98ae9,-0xfdc(%rbp,%rax,4)
    ce53:	e9 8a c9 8a 
    ce57:	83 85 60 ef ff ff 01 	addl   $0x1,-0x10a0(%rbp)
    ce5e:	83 bd 60 ef ff ff 00 	cmpl   $0x0,-0x10a0(%rbp)
    ce65:	7e dd                	jle    ce44 <func_28+0xc5a>
    ce67:	48 8b 05 f2 a1 01 00 	mov    0x1a1f2(%rip),%rax        # 27060 <g_592>
    ce6e:	0f bf 95 3c ef ff ff 	movswl -0x10c4(%rbp),%edx
    ce75:	89 10                	mov    %edx,(%rax)
    ce77:	0f b7 85 38 ef ff ff 	movzwl -0x10c8(%rbp),%eax
    ce7e:	0f be d8             	movsbl %al,%ebx
    ce81:	66 83 bd 38 ef ff ff 	cmpw   $0x1,-0x10c8(%rbp)
    ce88:	01 
    ce89:	48 83 bd e0 ef ff ff 	cmpq   $0x0,-0x1020(%rbp)
    ce90:	00 
    ce91:	0f 94 c0             	sete   %al
    ce94:	0f b6 c0             	movzbl %al,%eax
    ce97:	48 89 c7             	mov    %rax,%rdi
    ce9a:	e8 7a e1 ff ff       	callq  b019 <safe_unary_minus_func_uint64_t_u>
    ce9f:	89 c7                	mov    %eax,%edi
    cea1:	e8 f0 d6 ff ff       	callq  a596 <safe_unary_minus_func_int32_t_s>
    cea6:	48 8b 15 23 69 01 00 	mov    0x16923(%rip),%rdx        # 237d0 <g_1156>
    cead:	48 c1 e2 09          	shl    $0x9,%rdx
    ceb1:	48 c1 fa 28          	sar    $0x28,%rdx
    ceb5:	39 d0                	cmp    %edx,%eax
    ceb7:	48 8b 95 a8 ef ff ff 	mov    -0x1058(%rbp),%rdx
    cebe:	48 8b 85 f8 ef ff ff 	mov    -0x1008(%rbp),%rax
    cec5:	48 89 10             	mov    %rdx,(%rax)
    cec8:	48 8b 85 f8 ef ff ff 	mov    -0x1008(%rbp),%rax
    cecf:	48 8b 10             	mov    (%rax),%rdx
    ced2:	48 8b 85 68 f1 ff ff 	mov    -0xe98(%rbp),%rax
    ced9:	48 89 05 08 a4 01 00 	mov    %rax,0x1a408(%rip)        # 272e8 <g_1783>
    cee0:	48 8b 05 01 a4 01 00 	mov    0x1a401(%rip),%rax        # 272e8 <g_1783>
    cee7:	48 39 c2             	cmp    %rax,%rdx
    ceea:	48 8b 05 97 a1 01 00 	mov    0x1a197(%rip),%rax        # 27088 <g_956>
    cef1:	48 8b 10             	mov    (%rax),%rdx
    cef4:	48 8b 85 50 f2 ff ff 	mov    -0xdb0(%rbp),%rax
    cefb:	48 39 c2             	cmp    %rax,%rdx
    cefe:	ba 00 00 00 00       	mov    $0x0,%edx
    cf03:	48 8b 05 7e a1 01 00 	mov    0x1a17e(%rip),%rax        # 27088 <g_956>
    cf0a:	48 63 d2             	movslq %edx,%rdx
    cf0d:	48 89 10             	mov    %rdx,(%rax)
    cf10:	48 8b 00             	mov    (%rax),%rax
    cf13:	48 be 6e 80 c2 17 28 	movabs $0xac86802817c2806e,%rsi
    cf1a:	80 86 ac 
    cf1d:	48 89 c7             	mov    %rax,%rdi
    cf20:	e8 8f da ff ff       	callq  a9b4 <safe_mod_func_int64_t_s_s>
    cf25:	f7 d0                	not    %eax
    cf27:	89 85 24 f0 ff ff    	mov    %eax,-0xfdc(%rbp)
    cf2d:	8b 85 24 f0 ff ff    	mov    -0xfdc(%rbp),%eax
    cf33:	0f be c0             	movsbl %al,%eax
    cf36:	89 de                	mov    %ebx,%esi
    cf38:	89 c7                	mov    %eax,%edi
    cf3a:	e8 f2 d2 ff ff       	callq  a231 <safe_mod_func_int8_t_s_s>
    cf3f:	0f be d0             	movsbl %al,%edx
    cf42:	8b 85 50 ef ff ff    	mov    -0x10b0(%rbp),%eax
    cf48:	09 d0                	or     %edx,%eax
    cf4a:	89 85 50 ef ff ff    	mov    %eax,-0x10b0(%rbp)
    cf50:	48 8d 85 50 ef ff ff 	lea    -0x10b0(%rbp),%rax
    cf57:	48 89 85 e8 ef ff ff 	mov    %rax,-0x1018(%rbp)
    cf5e:	48 8d 85 4c ef ff ff 	lea    -0x10b4(%rbp),%rax
    cf65:	48 89 85 e8 ef ff ff 	mov    %rax,-0x1018(%rbp)
    cf6c:	0f b7 85 46 ef ff ff 	movzwl -0x10ba(%rbp),%eax
    cf73:	83 e8 01             	sub    $0x1,%eax
    cf76:	66 89 85 46 ef ff ff 	mov    %ax,-0x10ba(%rbp)
    cf7d:	66 83 bd 46 ef ff ff 	cmpw   $0xffe9,-0x10ba(%rbp)
    cf84:	e9 
    cf85:	0f 8c c5 f9 ff ff    	jl     c950 <func_28+0x766>
    cf8b:	66 83 85 48 ef ff ff 	addw   $0x1,-0x10b8(%rbp)
    cf92:	01 
    cf93:	c6 05 b0 30 01 00 00 	movb   $0x0,0x130b0(%rip)        # 2004a <g_111>
    cf9a:	eb 1a                	jmp    cfb6 <func_28+0xdcc>
    cf9c:	66 83 bd 38 ef ff ff 	cmpw   $0x0,-0x10c8(%rbp)
    cfa3:	00 
    cfa4:	75 1d                	jne    cfc3 <func_28+0xdd9>
    cfa6:	0f b6 05 9d 30 01 00 	movzbl 0x1309d(%rip),%eax        # 2004a <g_111>
    cfad:	83 c0 01             	add    $0x1,%eax
    cfb0:	88 05 94 30 01 00    	mov    %al,0x13094(%rip)        # 2004a <g_111>
    cfb6:	0f b6 05 8d 30 01 00 	movzbl 0x1308d(%rip),%eax        # 2004a <g_111>
    cfbd:	3c 2b                	cmp    $0x2b,%al
    cfbf:	76 db                	jbe    cf9c <func_28+0xdb2>
    cfc1:	eb 01                	jmp    cfc4 <func_28+0xdda>
    cfc3:	90                   	nop
    cfc4:	48 8b 05 bd a2 01 00 	mov    0x1a2bd(%rip),%rax        # 27288 <g_1584>
    cfcb:	48 8b 50 08          	mov    0x8(%rax),%rdx
    cfcf:	48 8b 00             	mov    (%rax),%rax
    cfd2:	48 8b 5d d8          	mov    -0x28(%rbp),%rbx
    cfd6:	64 48 33 1c 25 28 00 	xor    %fs:0x28,%rbx
    cfdd:	00 00 
    cfdf:	74 05                	je     cfe6 <func_28+0xdfc>
    cfe1:	e8 8a d0 ff ff       	callq  a070 <__stack_chk_fail@plt>
    cfe6:	48 81 c4 b0 10 00 00 	add    $0x10b0,%rsp
    cfed:	5b                   	pop    %rbx
    cfee:	41 5c                	pop    %r12
    cff0:	41 5d                	pop    %r13
    cff2:	41 5e                	pop    %r14
    cff4:	5d                   	pop    %rbp
    cff5:	c3                   	retq   

000000000000cff6 <func_38>:
    cff6:	f3 0f 1e fa          	endbr64 
    cffa:	55                   	push   %rbp
    cffb:	48 89 e5             	mov    %rsp,%rbp
    cffe:	48 81 ec e0 02 00 00 	sub    $0x2e0,%rsp
    d005:	89 f8                	mov    %edi,%eax
    d007:	66 89 85 2c fd ff ff 	mov    %ax,-0x2d4(%rbp)
    d00e:	64 48 8b 04 25 28 00 	mov    %fs:0x28,%rax
    d015:	00 00 
    d017:	48 89 45 f8          	mov    %rax,-0x8(%rbp)
    d01b:	31 c0                	xor    %eax,%eax
    d01d:	48 c7 85 48 fd ff ff 	movq   $0x0,-0x2b8(%rbp)
    d024:	00 00 00 00 
    d028:	c7 85 40 fd ff ff 00 	movl   $0x0,-0x2c0(%rbp)
    d02f:	00 00 00 
    d032:	48 8d 85 b0 fd ff ff 	lea    -0x250(%rbp),%rax
    d039:	48 8d 15 c0 df 00 00 	lea    0xdfc0(%rip),%rdx        # 1b000 <g_1979+0xa9c>
    d040:	b9 48 00 00 00       	mov    $0x48,%ecx
    d045:	48 89 c7             	mov    %rax,%rdi
    d048:	48 89 d6             	mov    %rdx,%rsi
    d04b:	f3 48 a5             	rep movsq %ds:(%rsi),%es:(%rdi)
    d04e:	48 8d 85 b0 fd ff ff 	lea    -0x250(%rbp),%rax
    d055:	48 89 85 50 fd ff ff 	mov    %rax,-0x2b0(%rbp)
    d05c:	48 8d 05 79 4b 01 00 	lea    0x14b79(%rip),%rax        # 21bdc <g_552+0x33c>
    d063:	48 89 85 58 fd ff ff 	mov    %rax,-0x2a8(%rbp)
    d06a:	48 8d 05 c3 2f 01 00 	lea    0x12fc3(%rip),%rax        # 20034 <g_74>
    d071:	48 89 85 60 fd ff ff 	mov    %rax,-0x2a0(%rbp)
    d078:	48 8d 85 40 fd ff ff 	lea    -0x2c0(%rbp),%rax
    d07f:	48 89 85 68 fd ff ff 	mov    %rax,-0x298(%rbp)
    d086:	48 8d 05 5b 49 01 00 	lea    0x1495b(%rip),%rax        # 219e8 <g_552+0x148>
    d08d:	48 89 85 70 fd ff ff 	mov    %rax,-0x290(%rbp)
    d094:	48 8d 05 99 2f 01 00 	lea    0x12f99(%rip),%rax        # 20034 <g_74>
    d09b:	48 89 85 78 fd ff ff 	mov    %rax,-0x288(%rbp)
    d0a2:	48 c7 85 80 fd ff ff 	movq   $0xffffffffffffffff,-0x280(%rbp)
    d0a9:	ff ff ff ff 
    d0ad:	48 c7 85 88 fd ff ff 	movq   $0x0,-0x278(%rbp)
    d0b4:	00 00 00 00 
    d0b8:	66 c7 85 3c fd ff ff 	movw   $0x6411,-0x2c4(%rbp)
    d0bf:	11 64 
    d0c1:	c6 85 3b fd ff ff e7 	movb   $0xe7,-0x2c5(%rbp)
    d0c8:	66 c7 85 3e fd ff ff 	movw   $0x3,-0x2c2(%rbp)
    d0cf:	03 00 
    d0d1:	c7 85 44 fd ff ff 00 	movl   $0x0,-0x2bc(%rbp)
    d0d8:	00 00 00 
    d0db:	eb 1b                	jmp    d0f8 <func_38+0x102>
    d0dd:	8b 85 44 fd ff ff    	mov    -0x2bc(%rbp),%eax
    d0e3:	48 98                	cltq   
    d0e5:	48 c7 84 c5 90 fd ff 	movq   $0x0,-0x270(%rbp,%rax,8)
    d0ec:	ff 00 00 00 00 
    d0f1:	83 85 44 fd ff ff 01 	addl   $0x1,-0x2bc(%rbp)
    d0f8:	83 bd 44 fd ff ff 03 	cmpl   $0x3,-0x2bc(%rbp)
    d0ff:	7e dc                	jle    d0dd <func_38+0xe7>
    d101:	48 8b 05 d0 a1 01 00 	mov    0x1a1d0(%rip),%rax        # 272d8 <g_1648>
    d108:	48 8b 95 48 fd ff ff 	mov    -0x2b8(%rbp),%rdx
    d10f:	48 89 10             	mov    %rdx,(%rax)
    d112:	66 83 85 3e fd ff ff 	addw   $0x1,-0x2c2(%rbp)
    d119:	01 
    d11a:	0f b7 85 2c fd ff ff 	movzwl -0x2d4(%rbp),%eax
    d121:	48 8b 4d f8          	mov    -0x8(%rbp),%rcx
    d125:	64 48 33 0c 25 28 00 	xor    %fs:0x28,%rcx
    d12c:	00 00 
    d12e:	74 05                	je     d135 <func_38+0x13f>
    d130:	e8 3b cf ff ff       	callq  a070 <__stack_chk_fail@plt>
    d135:	c9                   	leaveq 
    d136:	c3                   	retq   

000000000000d137 <func_44>:
    d137:	f3 0f 1e fa          	endbr64 
    d13b:	55                   	push   %rbp
    d13c:	48 89 e5             	mov    %rsp,%rbp
    d13f:	41 57                	push   %r15
    d141:	41 56                	push   %r14
    d143:	41 55                	push   %r13
    d145:	41 54                	push   %r12
    d147:	53                   	push   %rbx
    d148:	48 81 ec 00 10 00 00 	sub    $0x1000,%rsp
    d14f:	48 83 0c 24 00       	orq    $0x0,(%rsp)
    d154:	48 81 ec 68 07 00 00 	sub    $0x768,%rsp
    d15b:	89 bd 7c e8 ff ff    	mov    %edi,-0x1784(%rbp)
    d161:	64 48 8b 04 25 28 00 	mov    %fs:0x28,%rax
    d168:	00 00 
    d16a:	48 89 45 c8          	mov    %rax,-0x38(%rbp)
    d16e:	31 c0                	xor    %eax,%eax
    d170:	c7 85 a4 e8 ff ff ff 	movl   $0xffffffff,-0x175c(%rbp)
    d177:	ff ff ff 
    d17a:	48 8d 05 b0 2e 01 00 	lea    0x12eb0(%rip),%rax        # 20031 <g_72>
    d181:	48 89 85 50 e9 ff ff 	mov    %rax,-0x16b0(%rbp)
    d188:	c6 85 8f e8 ff ff 78 	movb   $0x78,-0x1771(%rbp)
    d18f:	48 8d 05 a2 32 01 00 	lea    0x132a2(%rip),%rax        # 20438 <g_251+0x8>
    d196:	48 89 85 58 e9 ff ff 	mov    %rax,-0x16a8(%rbp)
    d19d:	c7 85 a8 e8 ff ff 03 	movl   $0x3,-0x1758(%rbp)
    d1a4:	00 00 00 
    d1a7:	48 8d 05 42 66 01 00 	lea    0x16642(%rip),%rax        # 237f0 <g_1166>
    d1ae:	48 89 85 60 e9 ff ff 	mov    %rax,-0x16a0(%rbp)
    d1b5:	48 8d 85 60 e9 ff ff 	lea    -0x16a0(%rbp),%rax
    d1bc:	48 89 85 d0 e9 ff ff 	mov    %rax,-0x1630(%rbp)
    d1c3:	c7 85 ac e8 ff ff f8 	movl   $0xfffffff8,-0x1754(%rbp)
    d1ca:	ff ff ff 
    d1cd:	48 8d 05 84 30 01 00 	lea    0x13084(%rip),%rax        # 20258 <g_210>
    d1d4:	48 89 85 68 e9 ff ff 	mov    %rax,-0x1698(%rbp)
    d1db:	48 8d 85 68 e9 ff ff 	lea    -0x1698(%rbp),%rax
    d1e2:	48 89 85 d8 e9 ff ff 	mov    %rax,-0x1628(%rbp)
    d1e9:	48 8d 05 cc 65 01 00 	lea    0x165cc(%rip),%rax        # 237bc <g_1097>
    d1f0:	48 89 85 e0 e9 ff ff 	mov    %rax,-0x1620(%rbp)
    d1f7:	c7 85 98 eb ff ff ff 	movl   $0xffffffff,-0x1468(%rbp)
    d1fe:	ff ff ff 
    d201:	8b 85 9c eb ff ff    	mov    -0x1464(%rbp),%eax
    d207:	25 00 00 00 c0       	and    $0xc0000000,%eax
    d20c:	0d d6 5b 00 00       	or     $0x5bd6,%eax
    d211:	89 85 9c eb ff ff    	mov    %eax,-0x1464(%rbp)
    d217:	48 8d 05 16 2e 01 00 	lea    0x12e16(%rip),%rax        # 20034 <g_74>
    d21e:	48 89 85 e8 e9 ff ff 	mov    %rax,-0x1618(%rbp)
    d225:	c7 85 b0 e8 ff ff fc 	movl   $0xfffffffc,-0x1750(%rbp)
    d22c:	ff ff ff 
    d22f:	c7 85 f0 eb ff ff 62 	movl   $0x4a4fd462,-0x1410(%rbp)
    d236:	d4 4f 4a 
    d239:	c7 85 f4 eb ff ff 6c 	movl   $0x5d0c6d6c,-0x140c(%rbp)
    d240:	6d 0c 5d 
    d243:	c7 85 f8 eb ff ff 6c 	movl   $0x5d0c6d6c,-0x1408(%rbp)
    d24a:	6d 0c 5d 
    d24d:	c7 85 fc eb ff ff 62 	movl   $0x4a4fd462,-0x1404(%rbp)
    d254:	d4 4f 4a 
    d257:	c7 85 00 ec ff ff 6c 	movl   $0x5d0c6d6c,-0x1400(%rbp)
    d25e:	6d 0c 5d 
    d261:	c7 85 04 ec ff ff 6c 	movl   $0x5d0c6d6c,-0x13fc(%rbp)
    d268:	6d 0c 5d 
    d26b:	c7 85 08 ec ff ff 62 	movl   $0x4a4fd462,-0x13f8(%rbp)
    d272:	d4 4f 4a 
    d275:	c7 85 0c ec ff ff 6c 	movl   $0x5d0c6d6c,-0x13f4(%rbp)
    d27c:	6d 0c 5d 
    d27f:	48 8d 05 f2 9d 01 00 	lea    0x19df2(%rip),%rax        # 27078 <g_739>
    d286:	48 89 85 70 e9 ff ff 	mov    %rax,-0x1690(%rbp)
    d28d:	48 8d 85 70 e9 ff ff 	lea    -0x1690(%rbp),%rax
    d294:	48 89 85 f0 e9 ff ff 	mov    %rax,-0x1610(%rbp)
    d29b:	c6 85 8e e8 ff ff 40 	movb   $0x40,-0x1772(%rbp)
    d2a2:	c7 85 f0 e8 ff ff 81 	movl   $0x8f345e81,-0x1710(%rbp)
    d2a9:	5e 34 8f 
    d2ac:	48 c7 85 f8 e9 ff ff 	movq   $0x0,-0x1608(%rbp)
    d2b3:	00 00 00 00 
    d2b7:	66 c7 85 a2 eb ff ff 	movw   $0xf912,-0x145e(%rbp)
    d2be:	12 f9 
    d2c0:	66 c7 85 a4 eb ff ff 	movw   $0xf912,-0x145c(%rbp)
    d2c7:	12 f9 
    d2c9:	66 c7 85 a6 eb ff ff 	movw   $0xa939,-0x145a(%rbp)
    d2d0:	39 a9 
    d2d2:	66 c7 85 a8 eb ff ff 	movw   $0xf912,-0x1458(%rbp)
    d2d9:	12 f9 
    d2db:	66 c7 85 aa eb ff ff 	movw   $0xf912,-0x1456(%rbp)
    d2e2:	12 f9 
    d2e4:	66 c7 85 ac eb ff ff 	movw   $0xa939,-0x1454(%rbp)
    d2eb:	39 a9 
    d2ed:	66 c7 85 ae eb ff ff 	movw   $0xf912,-0x1452(%rbp)
    d2f4:	12 f9 
    d2f6:	c7 85 b4 e8 ff ff 01 	movl   $0x1,-0x174c(%rbp)
    d2fd:	00 00 00 
    d300:	c7 85 f4 e8 ff ff fd 	movl   $0xfffffffd,-0x170c(%rbp)
    d307:	ff ff ff 
    d30a:	c7 85 20 ee ff ff fe 	movl   $0xfffffffe,-0x11e0(%rbp)
    d311:	ff ff ff 
    d314:	c7 85 24 ee ff ff e6 	movl   $0x75011ee6,-0x11dc(%rbp)
    d31b:	1e 01 75 
    d31e:	c7 85 28 ee ff ff a2 	movl   $0xc5a223a2,-0x11d8(%rbp)
    d325:	23 a2 c5 
    d328:	c7 85 2c ee ff ff 7b 	movl   $0xc177077b,-0x11d4(%rbp)
    d32f:	07 77 c1 
    d332:	c7 85 30 ee ff ff ff 	movl   $0xffffffff,-0x11d0(%rbp)
    d339:	ff ff ff 
    d33c:	c7 85 34 ee ff ff fe 	movl   $0xfffffffe,-0x11cc(%rbp)
    d343:	ff ff ff 
    d346:	c7 85 38 ee ff ff 7b 	movl   $0xc177077b,-0x11c8(%rbp)
    d34d:	07 77 c1 
    d350:	c7 85 3c ee ff ff 01 	movl   $0x1,-0x11c4(%rbp)
    d357:	00 00 00 
    d35a:	c7 85 40 ee ff ff 7b 	movl   $0xc177077b,-0x11c0(%rbp)
    d361:	07 77 c1 
    d364:	c7 85 44 ee ff ff fe 	movl   $0xfffffffe,-0x11bc(%rbp)
    d36b:	ff ff ff 
    d36e:	c7 85 48 ee ff ff ff 	movl   $0xffffffff,-0x11b8(%rbp)
    d375:	ff ff ff 
    d378:	c7 85 4c ee ff ff 7b 	movl   $0xc177077b,-0x11b4(%rbp)
    d37f:	07 77 c1 
    d382:	c7 85 50 ee ff ff a2 	movl   $0xc5a223a2,-0x11b0(%rbp)
    d389:	23 a2 c5 
    d38c:	c7 85 54 ee ff ff e6 	movl   $0x75011ee6,-0x11ac(%rbp)
    d393:	1e 01 75 
    d396:	c7 85 58 ee ff ff fe 	movl   $0xfffffffe,-0x11a8(%rbp)
    d39d:	ff ff ff 
    d3a0:	c7 85 5c ee ff ff fe 	movl   $0xfffffffe,-0x11a4(%rbp)
    d3a7:	ff ff ff 
    d3aa:	c7 85 60 ee ff ff e6 	movl   $0x75011ee6,-0x11a0(%rbp)
    d3b1:	1e 01 75 
    d3b4:	c7 85 64 ee ff ff a2 	movl   $0xc5a223a2,-0x119c(%rbp)
    d3bb:	23 a2 c5 
    d3be:	c7 85 68 ee ff ff 7b 	movl   $0xc177077b,-0x1198(%rbp)
    d3c5:	07 77 c1 
    d3c8:	c7 85 6c ee ff ff ff 	movl   $0xffffffff,-0x1194(%rbp)
    d3cf:	ff ff ff 
    d3d2:	c7 85 70 ee ff ff fe 	movl   $0xfffffffe,-0x1190(%rbp)
    d3d9:	ff ff ff 
    d3dc:	c7 85 74 ee ff ff 7b 	movl   $0xc177077b,-0x118c(%rbp)
    d3e3:	07 77 c1 
    d3e6:	c7 85 78 ee ff ff 01 	movl   $0x1,-0x1188(%rbp)
    d3ed:	00 00 00 
    d3f0:	c7 85 7c ee ff ff 7b 	movl   $0xc177077b,-0x1184(%rbp)
    d3f7:	07 77 c1 
    d3fa:	c7 85 80 ee ff ff fe 	movl   $0xfffffffe,-0x1180(%rbp)
    d401:	ff ff ff 
    d404:	c7 85 84 ee ff ff ff 	movl   $0xffffffff,-0x117c(%rbp)
    d40b:	ff ff ff 
    d40e:	c7 85 88 ee ff ff 7b 	movl   $0xc177077b,-0x1178(%rbp)
    d415:	07 77 c1 
    d418:	c7 85 8c ee ff ff a2 	movl   $0xc5a223a2,-0x1174(%rbp)
    d41f:	23 a2 c5 
    d422:	c7 85 90 ee ff ff e6 	movl   $0x75011ee6,-0x1170(%rbp)
    d429:	1e 01 75 
    d42c:	c7 85 94 ee ff ff fe 	movl   $0xfffffffe,-0x116c(%rbp)
    d433:	ff ff ff 
    d436:	c7 85 98 ee ff ff fe 	movl   $0xfffffffe,-0x1168(%rbp)
    d43d:	ff ff ff 
    d440:	c7 85 9c ee ff ff e6 	movl   $0x75011ee6,-0x1164(%rbp)
    d447:	1e 01 75 
    d44a:	48 c7 85 78 e9 ff ff 	movq   $0xffffffffffffffff,-0x1688(%rbp)
    d451:	ff ff ff ff 
    d455:	66 c7 85 10 ec ff ff 	movw   $0x4,-0x13f0(%rbp)
    d45c:	04 00 
    d45e:	66 c7 85 12 ec ff ff 	movw   $0x0,-0x13ee(%rbp)
    d465:	00 00 
    d467:	66 c7 85 14 ec ff ff 	movw   $0x4,-0x13ec(%rbp)
    d46e:	04 00 
    d470:	66 c7 85 16 ec ff ff 	movw   $0xffff,-0x13ea(%rbp)
    d477:	ff ff 
    d479:	66 c7 85 18 ec ff ff 	movw   $0x678c,-0x13e8(%rbp)
    d480:	8c 67 
    d482:	66 c7 85 1a ec ff ff 	movw   $0x678c,-0x13e6(%rbp)
    d489:	8c 67 
    d48b:	66 c7 85 1c ec ff ff 	movw   $0x7a38,-0x13e4(%rbp)
    d492:	38 7a 
    d494:	66 c7 85 1e ec ff ff 	movw   $0x0,-0x13e2(%rbp)
    d49b:	00 00 
    d49d:	66 c7 85 20 ec ff ff 	movw   $0x7a38,-0x13e0(%rbp)
    d4a4:	38 7a 
    d4a6:	66 c7 85 22 ec ff ff 	movw   $0xffff,-0x13de(%rbp)
    d4ad:	ff ff 
    d4af:	66 c7 85 24 ec ff ff 	movw   $0xffff,-0x13dc(%rbp)
    d4b6:	ff ff 
    d4b8:	66 c7 85 26 ec ff ff 	movw   $0x678c,-0x13da(%rbp)
    d4bf:	8c 67 
    d4c1:	66 c7 85 28 ec ff ff 	movw   $0x4,-0x13d8(%rbp)
    d4c8:	04 00 
    d4ca:	66 c7 85 2a ec ff ff 	movw   $0x0,-0x13d6(%rbp)
    d4d1:	00 00 
    d4d3:	66 c7 85 2c ec ff ff 	movw   $0x4,-0x13d4(%rbp)
    d4da:	04 00 
    d4dc:	66 c7 85 2e ec ff ff 	movw   $0xffff,-0x13d2(%rbp)
    d4e3:	ff ff 
    d4e5:	66 c7 85 30 ec ff ff 	movw   $0x678c,-0x13d0(%rbp)
    d4ec:	8c 67 
    d4ee:	66 c7 85 32 ec ff ff 	movw   $0x678c,-0x13ce(%rbp)
    d4f5:	8c 67 
    d4f7:	66 c7 85 34 ec ff ff 	movw   $0x7a38,-0x13cc(%rbp)
    d4fe:	38 7a 
    d500:	66 c7 85 36 ec ff ff 	movw   $0x0,-0x13ca(%rbp)
    d507:	00 00 
    d509:	66 c7 85 38 ec ff ff 	movw   $0x7a38,-0x13c8(%rbp)
    d510:	38 7a 
    d512:	48 8d 05 31 2b 01 00 	lea    0x12b31(%rip),%rax        # 2004a <g_111>
    d519:	48 89 85 00 ea ff ff 	mov    %rax,-0x1600(%rbp)
    d520:	48 8d 05 29 2b 01 00 	lea    0x12b29(%rip),%rax        # 20050 <g_147>
    d527:	48 89 85 08 ea ff ff 	mov    %rax,-0x15f8(%rbp)
    d52e:	c7 85 f8 e8 ff ff 00 	movl   $0x0,-0x1708(%rbp)
    d535:	00 00 00 
    d538:	0f b6 9d 8f e8 ff ff 	movzbl -0x1771(%rbp),%ebx
    d53f:	41 bf 00 00 00 00    	mov    $0x0,%r15d
    d545:	8b 85 a4 e8 ff ff    	mov    -0x175c(%rbp),%eax
    d54b:	44 0f be f0          	movsbl %al,%r14d
    d54f:	44 0f b6 a5 8f e8 ff 	movzbl -0x1771(%rbp),%r12d
    d556:	ff 
    d557:	48 8b 95 50 e9 ff ff 	mov    -0x16b0(%rbp),%rdx
    d55e:	8b 85 a4 e8 ff ff    	mov    -0x175c(%rbp),%eax
    d564:	48 89 d6             	mov    %rdx,%rsi
    d567:	89 c7                	mov    %eax,%edi
    d569:	e8 2e 62 00 00       	callq  1379c <func_68>
    d56e:	48 89 c2             	mov    %rax,%rdx
    d571:	8b 05 b1 2a 01 00    	mov    0x12ab1(%rip),%eax        # 20028 <g_10>
    d577:	48 89 d6             	mov    %rdx,%rsi
    d57a:	89 c7                	mov    %eax,%edi
    d57c:	e8 54 4b 00 00       	callq  120d5 <func_65>
    d581:	8b 85 a4 e8 ff ff    	mov    -0x175c(%rbp),%eax
    d587:	98                   	cwtl   
    d588:	44 89 e6             	mov    %r12d,%esi
    d58b:	89 c7                	mov    %eax,%edi
    d58d:	e8 d1 cf ff ff       	callq  a563 <safe_rshift_func_int16_t_s_u>
    d592:	44 0f b6 e8          	movzbl %al,%r13d
    d596:	8b 85 a4 e8 ff ff    	mov    -0x175c(%rbp),%eax
    d59c:	44 0f b6 e0          	movzbl %al,%r12d
    d5a0:	be 06 00 00 00       	mov    $0x6,%esi
    d5a5:	bf ff 00 00 00       	mov    $0xff,%edi
    d5aa:	e8 0f d7 ff ff       	callq  acbe <safe_rshift_func_uint8_t_u_u>
    d5af:	0f b6 d0             	movzbl %al,%edx
    d5b2:	8b 05 70 2a 01 00    	mov    0x12a70(%rip),%eax        # 20028 <g_10>
    d5b8:	39 c2                	cmp    %eax,%edx
    d5ba:	0f 97 c0             	seta   %al
    d5bd:	0f b6 c0             	movzbl %al,%eax
    d5c0:	4d 89 f8             	mov    %r15,%r8
    d5c3:	44 89 f1             	mov    %r14d,%ecx
    d5c6:	44 89 ea             	mov    %r13d,%edx
    d5c9:	44 89 e6             	mov    %r12d,%esi
    d5cc:	48 89 c7             	mov    %rax,%rdi
    d5cf:	e8 91 48 00 00       	callq  11e65 <func_54>
    d5d4:	48 8b 05 4d 2a 01 00 	mov    0x12a4d(%rip),%rax        # 20028 <g_10>
    d5db:	48 8d 35 70 47 01 00 	lea    0x14770(%rip),%rsi        # 21d52 <g_965>
    d5e2:	48 89 c7             	mov    %rax,%rdi
    d5e5:	e8 47 3d 00 00       	callq  11331 <func_51>
    d5ea:	0f b7 c0             	movzwl %ax,%eax
    d5ed:	89 c6                	mov    %eax,%esi
    d5ef:	bf b5 f2 00 00       	mov    $0xf2b5,%edi
    d5f4:	e8 44 d7 ff ff       	callq  ad3d <safe_mul_func_uint16_t_u_u>
    d5f9:	0f b6 c0             	movzbl %al,%eax
    d5fc:	89 de                	mov    %ebx,%esi
    d5fe:	89 c7                	mov    %eax,%edi
    d600:	e8 88 d6 ff ff       	callq  ac8d <safe_rshift_func_uint8_t_u_s>
    d605:	84 c0                	test   %al,%al
    d607:	0f 84 2d 29 00 00    	je     ff3a <func_44+0x2e03>
    d60d:	48 8d 95 c0 ed ff ff 	lea    -0x1240(%rbp),%rdx
    d614:	b8 00 00 00 00       	mov    $0x0,%eax
    d619:	b9 0c 00 00 00       	mov    $0xc,%ecx
    d61e:	48 89 d7             	mov    %rdx,%rdi
    d621:	f3 48 ab             	rep stos %rax,%es:(%rdi)
    d624:	48 8d 05 91 61 01 00 	lea    0x16191(%rip),%rax        # 237bc <g_1097>
    d62b:	48 89 85 e0 ed ff ff 	mov    %rax,-0x1220(%rbp)
    d632:	48 8d 05 83 61 01 00 	lea    0x16183(%rip),%rax        # 237bc <g_1097>
    d639:	48 89 85 10 ee ff ff 	mov    %rax,-0x11f0(%rbp)
    d640:	48 c7 85 20 ea ff ff 	movq   $0x0,-0x15e0(%rbp)
    d647:	00 00 00 00 
    d64b:	c7 85 c0 e8 ff ff ff 	movl   $0xffffffff,-0x1740(%rbp)
    d652:	ff ff ff 
    d655:	c7 85 b8 e8 ff ff e6 	movl   $0xfcde31e6,-0x1748(%rbp)
    d65c:	31 de fc 
    d65f:	c7 85 20 ed ff ff ff 	movl   $0xffffffff,-0x12e0(%rbp)
    d666:	ff ff ff 
    d669:	c7 85 24 ed ff ff ff 	movl   $0xffffffff,-0x12dc(%rbp)
    d670:	ff ff ff 
    d673:	c7 85 28 ed ff ff ff 	movl   $0xffffffff,-0x12d8(%rbp)
    d67a:	ff ff ff 
    d67d:	c7 85 2c ed ff ff ff 	movl   $0xffffffff,-0x12d4(%rbp)
    d684:	ff ff ff 
    d687:	c7 85 30 ed ff ff ff 	movl   $0xffffffff,-0x12d0(%rbp)
    d68e:	ff ff ff 
    d691:	c7 85 34 ed ff ff ff 	movl   $0xffffffff,-0x12cc(%rbp)
    d698:	ff ff ff 
    d69b:	c7 85 38 ed ff ff ff 	movl   $0xffffffff,-0x12c8(%rbp)
    d6a2:	ff ff ff 
    d6a5:	c7 85 3c ed ff ff ff 	movl   $0xffffffff,-0x12c4(%rbp)
    d6ac:	ff ff ff 
    d6af:	c7 85 40 ed ff ff fd 	movl   $0xfffffffd,-0x12c0(%rbp)
    d6b6:	ff ff ff 
    d6b9:	c7 85 44 ed ff ff ff 	movl   $0xffffffff,-0x12bc(%rbp)
    d6c0:	ff ff ff 
    d6c3:	c7 85 48 ed ff ff ff 	movl   $0xffffffff,-0x12b8(%rbp)
    d6ca:	ff ff ff 
    d6cd:	c7 85 4c ed ff ff fd 	movl   $0xfffffffd,-0x12b4(%rbp)
    d6d4:	ff ff ff 
    d6d7:	c7 85 50 ed ff ff ff 	movl   $0xffffffff,-0x12b0(%rbp)
    d6de:	ff ff ff 
    d6e1:	c7 85 54 ed ff ff ff 	movl   $0xffffffff,-0x12ac(%rbp)
    d6e8:	ff ff ff 
    d6eb:	c7 85 58 ed ff ff fd 	movl   $0xfffffffd,-0x12a8(%rbp)
    d6f2:	ff ff ff 
    d6f5:	c7 85 5c ed ff ff ff 	movl   $0xffffffff,-0x12a4(%rbp)
    d6fc:	ff ff ff 
    d6ff:	c7 85 60 ed ff ff ff 	movl   $0xffffffff,-0x12a0(%rbp)
    d706:	ff ff ff 
    d709:	c7 85 64 ed ff ff fd 	movl   $0xfffffffd,-0x129c(%rbp)
    d710:	ff ff ff 
    d713:	c7 85 68 ed ff ff ff 	movl   $0xffffffff,-0x1298(%rbp)
    d71a:	ff ff ff 
    d71d:	c7 85 6c ed ff ff ff 	movl   $0xffffffff,-0x1294(%rbp)
    d724:	ff ff ff 
    d727:	48 c7 85 80 e9 ff ff 	movq   $0x0,-0x1680(%rbp)
    d72e:	00 00 00 00 
    d732:	48 8d 05 07 46 01 00 	lea    0x14607(%rip),%rax        # 21d40 <g_806>
    d739:	48 89 85 88 e9 ff ff 	mov    %rax,-0x1678(%rbp)
    d740:	48 c7 85 28 ea ff ff 	movq   $0x0,-0x15d8(%rbp)
    d747:	00 00 00 00 
    d74b:	c7 85 c4 e8 ff ff c9 	movl   $0x60f026c9,-0x173c(%rbp)
    d752:	26 f0 60 
    d755:	48 c7 85 a0 ee ff ff 	movq   $0x0,-0x1160(%rbp)
    d75c:	00 00 00 00 
    d760:	48 8d 05 11 99 01 00 	lea    0x19911(%rip),%rax        # 27078 <g_739>
    d767:	48 89 85 a8 ee ff ff 	mov    %rax,-0x1158(%rbp)
    d76e:	48 c7 85 b0 ee ff ff 	movq   $0x0,-0x1150(%rbp)
    d775:	00 00 00 00 
    d779:	48 8d 05 f8 98 01 00 	lea    0x198f8(%rip),%rax        # 27078 <g_739>
    d780:	48 89 85 b8 ee ff ff 	mov    %rax,-0x1148(%rbp)
    d787:	48 c7 85 c0 ee ff ff 	movq   $0x0,-0x1140(%rbp)
    d78e:	00 00 00 00 
    d792:	48 c7 85 c8 ee ff ff 	movq   $0x0,-0x1138(%rbp)
    d799:	00 00 00 00 
    d79d:	48 8d 05 d4 98 01 00 	lea    0x198d4(%rip),%rax        # 27078 <g_739>
    d7a4:	48 89 85 d0 ee ff ff 	mov    %rax,-0x1130(%rbp)
    d7ab:	48 8d 05 c6 98 01 00 	lea    0x198c6(%rip),%rax        # 27078 <g_739>
    d7b2:	48 89 85 d8 ee ff ff 	mov    %rax,-0x1128(%rbp)
    d7b9:	48 8d 05 b8 98 01 00 	lea    0x198b8(%rip),%rax        # 27078 <g_739>
    d7c0:	48 89 85 e0 ee ff ff 	mov    %rax,-0x1120(%rbp)
    d7c7:	48 c7 85 e8 ee ff ff 	movq   $0x0,-0x1118(%rbp)
    d7ce:	00 00 00 00 
    d7d2:	48 c7 85 f0 ee ff ff 	movq   $0x0,-0x1110(%rbp)
    d7d9:	00 00 00 00 
    d7dd:	48 8d 05 94 98 01 00 	lea    0x19894(%rip),%rax        # 27078 <g_739>
    d7e4:	48 89 85 f8 ee ff ff 	mov    %rax,-0x1108(%rbp)
    d7eb:	48 c7 85 00 ef ff ff 	movq   $0x0,-0x1100(%rbp)
    d7f2:	00 00 00 00 
    d7f6:	48 8d 05 7b 98 01 00 	lea    0x1987b(%rip),%rax        # 27078 <g_739>
    d7fd:	48 89 85 08 ef ff ff 	mov    %rax,-0x10f8(%rbp)
    d804:	48 c7 85 10 ef ff ff 	movq   $0x0,-0x10f0(%rbp)
    d80b:	00 00 00 00 
    d80f:	48 c7 85 18 ef ff ff 	movq   $0x0,-0x10e8(%rbp)
    d816:	00 00 00 00 
    d81a:	48 8d 05 57 98 01 00 	lea    0x19857(%rip),%rax        # 27078 <g_739>
    d821:	48 89 85 20 ef ff ff 	mov    %rax,-0x10e0(%rbp)
    d828:	48 8d 05 49 98 01 00 	lea    0x19849(%rip),%rax        # 27078 <g_739>
    d82f:	48 89 85 28 ef ff ff 	mov    %rax,-0x10d8(%rbp)
    d836:	48 8d 85 a0 ee ff ff 	lea    -0x1160(%rbp),%rax
    d83d:	48 83 c0 08          	add    $0x8,%rax
    d841:	48 89 85 30 ef ff ff 	mov    %rax,-0x10d0(%rbp)
    d848:	48 8d 85 a0 ee ff ff 	lea    -0x1160(%rbp),%rax
    d84f:	48 83 e8 80          	sub    $0xffffffffffffff80,%rax
    d853:	48 89 85 38 ef ff ff 	mov    %rax,-0x10c8(%rbp)
    d85a:	48 8d 85 a0 ee ff ff 	lea    -0x1160(%rbp),%rax
    d861:	48 83 c0 08          	add    $0x8,%rax
    d865:	48 89 85 40 ef ff ff 	mov    %rax,-0x10c0(%rbp)
    d86c:	48 8d 85 a0 ee ff ff 	lea    -0x1160(%rbp),%rax
    d873:	48 83 c0 08          	add    $0x8,%rax
    d877:	48 89 85 48 ef ff ff 	mov    %rax,-0x10b8(%rbp)
    d87e:	48 8d 85 a0 ee ff ff 	lea    -0x1160(%rbp),%rax
    d885:	48 83 e8 80          	sub    $0xffffffffffffff80,%rax
    d889:	48 89 85 50 ef ff ff 	mov    %rax,-0x10b0(%rbp)
    d890:	48 8d 85 a0 ee ff ff 	lea    -0x1160(%rbp),%rax
    d897:	48 83 e8 80          	sub    $0xffffffffffffff80,%rax
    d89b:	48 89 85 58 ef ff ff 	mov    %rax,-0x10a8(%rbp)
    d8a2:	48 8d 85 a0 ee ff ff 	lea    -0x1160(%rbp),%rax
    d8a9:	48 05 88 00 00 00    	add    $0x88,%rax
    d8af:	48 89 85 60 ef ff ff 	mov    %rax,-0x10a0(%rbp)
    d8b6:	48 8d 85 a0 ee ff ff 	lea    -0x1160(%rbp),%rax
    d8bd:	48 83 e8 80          	sub    $0xffffffffffffff80,%rax
    d8c1:	48 89 85 68 ef ff ff 	mov    %rax,-0x1098(%rbp)
    d8c8:	48 8d 85 a0 ee ff ff 	lea    -0x1160(%rbp),%rax
    d8cf:	48 83 e8 80          	sub    $0xffffffffffffff80,%rax
    d8d3:	48 89 85 70 ef ff ff 	mov    %rax,-0x1090(%rbp)
    d8da:	48 8d 85 a0 ee ff ff 	lea    -0x1160(%rbp),%rax
    d8e1:	48 83 c0 08          	add    $0x8,%rax
    d8e5:	48 89 85 78 ef ff ff 	mov    %rax,-0x1088(%rbp)
    d8ec:	48 8d 85 a0 ee ff ff 	lea    -0x1160(%rbp),%rax
    d8f3:	48 83 c0 08          	add    $0x8,%rax
    d8f7:	48 89 85 80 ef ff ff 	mov    %rax,-0x1080(%rbp)
    d8fe:	48 8d 85 a0 ee ff ff 	lea    -0x1160(%rbp),%rax
    d905:	48 83 e8 80          	sub    $0xffffffffffffff80,%rax
    d909:	48 89 85 88 ef ff ff 	mov    %rax,-0x1078(%rbp)
    d910:	48 8d 85 a0 ee ff ff 	lea    -0x1160(%rbp),%rax
    d917:	48 83 c0 08          	add    $0x8,%rax
    d91b:	48 89 85 90 ef ff ff 	mov    %rax,-0x1070(%rbp)
    d922:	48 8d 85 a0 ee ff ff 	lea    -0x1160(%rbp),%rax
    d929:	48 83 e8 80          	sub    $0xffffffffffffff80,%rax
    d92d:	48 89 85 98 ef ff ff 	mov    %rax,-0x1068(%rbp)
    d934:	48 8d 85 a0 ee ff ff 	lea    -0x1160(%rbp),%rax
    d93b:	48 83 c0 08          	add    $0x8,%rax
    d93f:	48 89 85 a0 ef ff ff 	mov    %rax,-0x1060(%rbp)
    d946:	48 8d 85 a0 ee ff ff 	lea    -0x1160(%rbp),%rax
    d94d:	48 83 c0 08          	add    $0x8,%rax
    d951:	48 89 85 a8 ef ff ff 	mov    %rax,-0x1058(%rbp)
    d958:	48 8d 85 a0 ee ff ff 	lea    -0x1160(%rbp),%rax
    d95f:	48 83 e8 80          	sub    $0xffffffffffffff80,%rax
    d963:	48 89 85 b0 ef ff ff 	mov    %rax,-0x1050(%rbp)
    d96a:	48 8d 85 a0 ee ff ff 	lea    -0x1160(%rbp),%rax
    d971:	48 83 e8 80          	sub    $0xffffffffffffff80,%rax
    d975:	48 89 85 b8 ef ff ff 	mov    %rax,-0x1048(%rbp)
    d97c:	48 8d 85 a0 ee ff ff 	lea    -0x1160(%rbp),%rax
    d983:	48 05 88 00 00 00    	add    $0x88,%rax
    d989:	48 89 85 c0 ef ff ff 	mov    %rax,-0x1040(%rbp)
    d990:	48 8d 85 a0 ee ff ff 	lea    -0x1160(%rbp),%rax
    d997:	48 83 e8 80          	sub    $0xffffffffffffff80,%rax
    d99b:	48 89 85 c8 ef ff ff 	mov    %rax,-0x1038(%rbp)
    d9a2:	48 8d 85 a0 ee ff ff 	lea    -0x1160(%rbp),%rax
    d9a9:	48 83 e8 80          	sub    $0xffffffffffffff80,%rax
    d9ad:	48 89 85 d0 ef ff ff 	mov    %rax,-0x1030(%rbp)
    d9b4:	48 8d 85 a0 ee ff ff 	lea    -0x1160(%rbp),%rax
    d9bb:	48 83 c0 08          	add    $0x8,%rax
    d9bf:	48 89 85 d8 ef ff ff 	mov    %rax,-0x1028(%rbp)
    d9c6:	48 8d 85 a0 ee ff ff 	lea    -0x1160(%rbp),%rax
    d9cd:	48 83 c0 08          	add    $0x8,%rax
    d9d1:	48 89 85 e0 ef ff ff 	mov    %rax,-0x1020(%rbp)
    d9d8:	48 8d 85 a0 ee ff ff 	lea    -0x1160(%rbp),%rax
    d9df:	48 83 e8 80          	sub    $0xffffffffffffff80,%rax
    d9e3:	48 89 85 e8 ef ff ff 	mov    %rax,-0x1018(%rbp)
    d9ea:	48 8d 85 a0 ee ff ff 	lea    -0x1160(%rbp),%rax
    d9f1:	48 83 c0 08          	add    $0x8,%rax
    d9f5:	48 89 85 f0 ef ff ff 	mov    %rax,-0x1010(%rbp)
    d9fc:	48 8d 85 a0 ee ff ff 	lea    -0x1160(%rbp),%rax
    da03:	48 83 e8 80          	sub    $0xffffffffffffff80,%rax
    da07:	48 89 85 f8 ef ff ff 	mov    %rax,-0x1008(%rbp)
    da0e:	48 8d 85 a0 ee ff ff 	lea    -0x1160(%rbp),%rax
    da15:	48 83 c0 08          	add    $0x8,%rax
    da19:	48 89 85 00 f0 ff ff 	mov    %rax,-0x1000(%rbp)
    da20:	48 8d 85 a0 ee ff ff 	lea    -0x1160(%rbp),%rax
    da27:	48 83 c0 08          	add    $0x8,%rax
    da2b:	48 89 85 08 f0 ff ff 	mov    %rax,-0xff8(%rbp)
    da32:	48 8d 85 a0 ee ff ff 	lea    -0x1160(%rbp),%rax
    da39:	48 83 e8 80          	sub    $0xffffffffffffff80,%rax
    da3d:	48 89 85 10 f0 ff ff 	mov    %rax,-0xff0(%rbp)
    da44:	48 8d 85 a0 ee ff ff 	lea    -0x1160(%rbp),%rax
    da4b:	48 83 e8 80          	sub    $0xffffffffffffff80,%rax
    da4f:	48 89 85 18 f0 ff ff 	mov    %rax,-0xfe8(%rbp)
    da56:	48 8d 85 a0 ee ff ff 	lea    -0x1160(%rbp),%rax
    da5d:	48 05 88 00 00 00    	add    $0x88,%rax
    da63:	48 89 85 20 f0 ff ff 	mov    %rax,-0xfe0(%rbp)
    da6a:	48 8d 85 a0 ee ff ff 	lea    -0x1160(%rbp),%rax
    da71:	48 83 e8 80          	sub    $0xffffffffffffff80,%rax
    da75:	48 89 85 28 f0 ff ff 	mov    %rax,-0xfd8(%rbp)
    da7c:	48 8d 85 a0 ee ff ff 	lea    -0x1160(%rbp),%rax
    da83:	48 83 e8 80          	sub    $0xffffffffffffff80,%rax
    da87:	48 89 85 30 f0 ff ff 	mov    %rax,-0xfd0(%rbp)
    da8e:	48 8d 85 a0 ee ff ff 	lea    -0x1160(%rbp),%rax
    da95:	48 83 c0 08          	add    $0x8,%rax
    da99:	48 89 85 38 f0 ff ff 	mov    %rax,-0xfc8(%rbp)
    daa0:	48 8d 85 a0 ee ff ff 	lea    -0x1160(%rbp),%rax
    daa7:	48 83 c0 08          	add    $0x8,%rax
    daab:	48 89 85 40 f0 ff ff 	mov    %rax,-0xfc0(%rbp)
    dab2:	48 8d 85 a0 ee ff ff 	lea    -0x1160(%rbp),%rax
    dab9:	48 83 e8 80          	sub    $0xffffffffffffff80,%rax
    dabd:	48 89 85 48 f0 ff ff 	mov    %rax,-0xfb8(%rbp)
    dac4:	48 8d 85 a0 ee ff ff 	lea    -0x1160(%rbp),%rax
    dacb:	48 83 c0 08          	add    $0x8,%rax
    dacf:	48 89 85 50 f0 ff ff 	mov    %rax,-0xfb0(%rbp)
    dad6:	48 8d 85 a0 ee ff ff 	lea    -0x1160(%rbp),%rax
    dadd:	48 83 e8 80          	sub    $0xffffffffffffff80,%rax
    dae1:	48 89 85 58 f0 ff ff 	mov    %rax,-0xfa8(%rbp)
    dae8:	48 8d 85 a0 ee ff ff 	lea    -0x1160(%rbp),%rax
    daef:	48 83 c0 08          	add    $0x8,%rax
    daf3:	48 89 85 60 f0 ff ff 	mov    %rax,-0xfa0(%rbp)
    dafa:	48 8d 85 a0 ee ff ff 	lea    -0x1160(%rbp),%rax
    db01:	48 83 c0 08          	add    $0x8,%rax
    db05:	48 89 85 68 f0 ff ff 	mov    %rax,-0xf98(%rbp)
    db0c:	48 c7 85 80 ec ff ff 	movq   $0x0,-0x1380(%rbp)
    db13:	00 00 00 00 
    db17:	48 c7 85 88 ec ff ff 	movq   $0x0,-0x1378(%rbp)
    db1e:	00 00 00 00 
    db22:	48 c7 85 90 ec ff ff 	movq   $0x0,-0x1370(%rbp)
    db29:	00 00 00 00 
    db2d:	48 c7 85 98 ec ff ff 	movq   $0x0,-0x1368(%rbp)
    db34:	00 00 00 00 
    db38:	48 c7 85 a0 ec ff ff 	movq   $0x0,-0x1360(%rbp)
    db3f:	00 00 00 00 
    db43:	48 c7 85 a8 ec ff ff 	movq   $0x0,-0x1358(%rbp)
    db4a:	00 00 00 00 
    db4e:	48 c7 85 b0 ec ff ff 	movq   $0x0,-0x1350(%rbp)
    db55:	00 00 00 00 
    db59:	48 c7 85 b8 ec ff ff 	movq   $0x0,-0x1348(%rbp)
    db60:	00 00 00 00 
    db64:	48 c7 85 c0 ec ff ff 	movq   $0x0,-0x1340(%rbp)
    db6b:	00 00 00 00 
    db6f:	48 c7 85 70 ed ff ff 	movq   $0xffffffffffffffff,-0x1290(%rbp)
    db76:	ff ff ff ff 
    db7a:	48 b8 f4 b1 f2 3d 94 	movabs $0xd56d18943df2b1f4,%rax
    db81:	18 6d d5 
    db84:	48 89 85 78 ed ff ff 	mov    %rax,-0x1288(%rbp)
    db8b:	48 c7 85 80 ed ff ff 	movq   $0xffffffffffffffff,-0x1280(%rbp)
    db92:	ff ff ff ff 
    db96:	48 89 85 88 ed ff ff 	mov    %rax,-0x1278(%rbp)
    db9d:	48 c7 85 90 ed ff ff 	movq   $0xffffffffffffffff,-0x1270(%rbp)
    dba4:	ff ff ff ff 
    dba8:	48 89 85 98 ed ff ff 	mov    %rax,-0x1268(%rbp)
    dbaf:	48 c7 85 a0 ed ff ff 	movq   $0xffffffffffffffff,-0x1260(%rbp)
    dbb6:	ff ff ff ff 
    dbba:	48 89 85 a8 ed ff ff 	mov    %rax,-0x1258(%rbp)
    dbc1:	48 c7 85 b0 ed ff ff 	movq   $0xffffffffffffffff,-0x1250(%rbp)
    dbc8:	ff ff ff ff 
    dbcc:	48 89 85 b8 ed ff ff 	mov    %rax,-0x1248(%rbp)
    dbd3:	c6 85 90 e8 ff ff 42 	movb   $0x42,-0x1770(%rbp)
    dbda:	c7 85 00 e9 ff ff fb 	movl   $0xfffffffb,-0x1700(%rbp)
    dbe1:	ff ff ff 
    dbe4:	8b 85 7c e8 ff ff    	mov    -0x1784(%rbp),%eax
    dbea:	0f b7 d8             	movzwl %ax,%ebx
    dbed:	bf 00 00 00 00       	mov    $0x0,%edi
    dbf2:	e8 4e cf ff ff       	callq  ab45 <safe_unary_minus_func_uint8_t_u>
    dbf7:	84 c0                	test   %al,%al
    dbf9:	0f 84 95 00 00 00    	je     dc94 <func_44+0xb5d>
    dbff:	8b 05 b7 5b 01 00    	mov    0x15bb7(%rip),%eax        # 237bc <g_1097>
    dc05:	0d a4 48 44 70       	or     $0x704448a4,%eax
    dc0a:	89 05 ac 5b 01 00    	mov    %eax,0x15bac(%rip)        # 237bc <g_1097>
    dc10:	8b 85 c0 e8 ff ff    	mov    -0x1740(%rbp),%eax
    dc16:	44 0f bf e0          	movswl %ax,%r12d
    dc1a:	48 8d 05 63 3c 01 00 	lea    0x13c63(%rip),%rax        # 21884 <g_460>
    dc21:	48 39 85 20 ea ff ff 	cmp    %rax,-0x15e0(%rbp)
    dc28:	0f 94 c0             	sete   %al
    dc2b:	0f b6 d0             	movzbl %al,%edx
    dc2e:	8b 85 7c e8 ff ff    	mov    -0x1784(%rbp),%eax
    dc34:	98                   	cwtl   
    dc35:	89 d6                	mov    %edx,%esi
    dc37:	89 c7                	mov    %eax,%edi
    dc39:	e8 95 c7 ff ff       	callq  a3d3 <safe_sub_func_int16_t_s_s>
    dc3e:	83 e0 f7             	and    $0xfffffff7,%eax
    dc41:	98                   	cwtl   
    dc42:	44 89 e6             	mov    %r12d,%esi
    dc45:	89 c7                	mov    %eax,%edi
    dc47:	e8 ca c7 ff ff       	callq  a416 <safe_mod_func_int16_t_s_s>
    dc4c:	98                   	cwtl   
    dc4d:	0b 85 c0 e8 ff ff    	or     -0x1740(%rbp),%eax
    dc53:	89 c6                	mov    %eax,%esi
    dc55:	bf fa ff ff ff       	mov    $0xfffffffa,%edi
    dc5a:	e8 c6 d2 ff ff       	callq  af25 <safe_div_func_uint32_t_u_u>
    dc5f:	0f be c0             	movsbl %al,%eax
    dc62:	be 3c 00 00 00       	mov    $0x3c,%esi
    dc67:	89 c7                	mov    %eax,%edi
    dc69:	e8 a4 c5 ff ff       	callq  a212 <safe_mul_func_int8_t_s_s>
    dc6e:	0f be c0             	movsbl %al,%eax
    dc71:	39 85 7c e8 ff ff    	cmp    %eax,-0x1784(%rbp)
    dc77:	72 07                	jb     dc80 <func_44+0xb49>
    dc79:	ba 01 00 00 00       	mov    $0x1,%edx
    dc7e:	eb 05                	jmp    dc85 <func_44+0xb4e>
    dc80:	ba 00 00 00 00       	mov    $0x0,%edx
    dc85:	8b 85 a4 e8 ff ff    	mov    -0x175c(%rbp),%eax
    dc8b:	39 c2                	cmp    %eax,%edx
    dc8d:	83 bd 7c e8 ff ff 00 	cmpl   $0x0,-0x1784(%rbp)
    dc94:	83 bd 7c e8 ff ff 00 	cmpl   $0x0,-0x1784(%rbp)
    dc9b:	74 07                	je     dca4 <func_44+0xb6d>
    dc9d:	b8 01 00 00 00       	mov    $0x1,%eax
    dca2:	eb 05                	jmp    dca9 <func_44+0xb72>
    dca4:	b8 00 00 00 00       	mov    $0x0,%eax
    dca9:	0f b7 c0             	movzwl %ax,%eax
    dcac:	89 de                	mov    %ebx,%esi
    dcae:	89 c7                	mov    %eax,%edi
    dcb0:	e8 a7 d0 ff ff       	callq  ad5c <safe_mod_func_uint16_t_u_u>
    dcb5:	66 85 c0             	test   %ax,%ax
    dcb8:	0f 84 02 0b 00 00    	je     e7c0 <func_44+0x1689>
    dcbe:	48 8d 05 f5 30 01 00 	lea    0x130f5(%rip),%rax        # 20dba <g_252+0x95a>
    dcc5:	48 89 85 c0 e9 ff ff 	mov    %rax,-0x1640(%rbp)
    dccc:	c7 85 70 f0 ff ff 78 	movl   $0x74416778,-0xf90(%rbp)
    dcd3:	67 41 74 
    dcd6:	c7 85 74 f0 ff ff 09 	movl   $0x77588009,-0xf8c(%rbp)
    dcdd:	80 58 77 
    dce0:	c7 85 78 f0 ff ff 01 	movl   $0x1,-0xf88(%rbp)
    dce7:	00 00 00 
    dcea:	c7 85 7c f0 ff ff 00 	movl   $0x0,-0xf84(%rbp)
    dcf1:	00 00 00 
    dcf4:	c7 85 80 f0 ff ff 01 	movl   $0x1,-0xf80(%rbp)
    dcfb:	00 00 00 
    dcfe:	c7 85 84 f0 ff ff 01 	movl   $0x1,-0xf7c(%rbp)
    dd05:	00 00 00 
    dd08:	c7 85 88 f0 ff ff 01 	movl   $0x1,-0xf78(%rbp)
    dd0f:	00 00 00 
    dd12:	c7 85 8c f0 ff ff e8 	movl   $0x6c1c86e8,-0xf74(%rbp)
    dd19:	86 1c 6c 
    dd1c:	c7 85 90 f0 ff ff 00 	movl   $0x0,-0xf70(%rbp)
    dd23:	00 00 00 
    dd26:	c7 85 94 f0 ff ff fd 	movl   $0xfffffffd,-0xf6c(%rbp)
    dd2d:	ff ff ff 
    dd30:	c7 85 98 f0 ff ff 09 	movl   $0x77588009,-0xf68(%rbp)
    dd37:	80 58 77 
    dd3a:	c7 85 9c f0 ff ff 78 	movl   $0x74416778,-0xf64(%rbp)
    dd41:	67 41 74 
    dd44:	c7 85 a0 f0 ff ff 78 	movl   $0x74416778,-0xf60(%rbp)
    dd4b:	67 41 74 
    dd4e:	c7 85 a4 f0 ff ff 09 	movl   $0x77588009,-0xf5c(%rbp)
    dd55:	80 58 77 
    dd58:	c7 85 a8 f0 ff ff 01 	movl   $0x1,-0xf58(%rbp)
    dd5f:	00 00 00 
    dd62:	c7 85 ac f0 ff ff 09 	movl   $0x77588009,-0xf54(%rbp)
    dd69:	80 58 77 
    dd6c:	c7 85 b0 f0 ff ff 00 	movl   $0x0,-0xf50(%rbp)
    dd73:	00 00 00 
    dd76:	c7 85 b4 f0 ff ff f8 	movl   $0xfffffff8,-0xf4c(%rbp)
    dd7d:	ff ff ff 
    dd80:	c7 85 b8 f0 ff ff f8 	movl   $0xfffffff8,-0xf48(%rbp)
    dd87:	ff ff ff 
    dd8a:	c7 85 bc f0 ff ff 00 	movl   $0x0,-0xf44(%rbp)
    dd91:	00 00 00 
    dd94:	c7 85 c0 f0 ff ff 01 	movl   $0x1,-0xf40(%rbp)
    dd9b:	00 00 00 
    dd9e:	c7 85 c4 f0 ff ff 78 	movl   $0x74416778,-0xf3c(%rbp)
    dda5:	67 41 74 
    dda8:	c7 85 c8 f0 ff ff f8 	movl   $0xfffffff8,-0xf38(%rbp)
    ddaf:	ff ff ff 
    ddb2:	c7 85 cc f0 ff ff e8 	movl   $0x6c1c86e8,-0xf34(%rbp)
    ddb9:	86 1c 6c 
    ddbc:	c7 85 d0 f0 ff ff e8 	movl   $0x6c1c86e8,-0xf30(%rbp)
    ddc3:	86 1c 6c 
    ddc6:	c7 85 d4 f0 ff ff 78 	movl   $0x74416778,-0xf2c(%rbp)
    ddcd:	67 41 74 
    ddd0:	c7 85 d8 f0 ff ff 01 	movl   $0x1,-0xf28(%rbp)
    ddd7:	00 00 00 
    ddda:	c7 85 dc f0 ff ff 78 	movl   $0x74416778,-0xf24(%rbp)
    dde1:	67 41 74 
    dde4:	c7 85 e0 f0 ff ff f8 	movl   $0xfffffff8,-0xf20(%rbp)
    ddeb:	ff ff ff 
    ddee:	c7 85 e4 f0 ff ff e8 	movl   $0x6c1c86e8,-0xf1c(%rbp)
    ddf5:	86 1c 6c 
    ddf8:	48 8d 05 71 92 01 00 	lea    0x19271(%rip),%rax        # 27070 <g_740>
    ddff:	48 89 85 b8 ea ff ff 	mov    %rax,-0x1548(%rbp)
    de06:	48 8d 05 bb 59 01 00 	lea    0x159bb(%rip),%rax        # 237c8 <g_1149>
    de0d:	48 89 85 c0 ea ff ff 	mov    %rax,-0x1540(%rbp)
    de14:	48 8d 05 6d 92 01 00 	lea    0x1926d(%rip),%rax        # 27088 <g_956>
    de1b:	48 89 85 f0 f7 ff ff 	mov    %rax,-0x810(%rbp)
    de22:	48 8d 85 58 e9 ff ff 	lea    -0x16a8(%rbp),%rax
    de29:	48 89 85 f8 f7 ff ff 	mov    %rax,-0x808(%rbp)
    de30:	48 8d 05 51 92 01 00 	lea    0x19251(%rip),%rax        # 27088 <g_956>
    de37:	48 89 85 00 f8 ff ff 	mov    %rax,-0x800(%rbp)
    de3e:	48 c7 85 08 f8 ff ff 	movq   $0x0,-0x7f8(%rbp)
    de45:	00 00 00 00 
    de49:	48 c7 85 10 f8 ff ff 	movq   $0x0,-0x7f0(%rbp)
    de50:	00 00 00 00 
    de54:	48 8d 85 58 e9 ff ff 	lea    -0x16a8(%rbp),%rax
    de5b:	48 89 85 18 f8 ff ff 	mov    %rax,-0x7e8(%rbp)
    de62:	48 8d 85 58 e9 ff ff 	lea    -0x16a8(%rbp),%rax
    de69:	48 89 85 20 f8 ff ff 	mov    %rax,-0x7e0(%rbp)
    de70:	48 8d 85 58 e9 ff ff 	lea    -0x16a8(%rbp),%rax
    de77:	48 89 85 28 f8 ff ff 	mov    %rax,-0x7d8(%rbp)
    de7e:	48 8d 05 03 92 01 00 	lea    0x19203(%rip),%rax        # 27088 <g_956>
    de85:	48 89 85 30 f8 ff ff 	mov    %rax,-0x7d0(%rbp)
    de8c:	48 c7 85 38 f8 ff ff 	movq   $0x0,-0x7c8(%rbp)
    de93:	00 00 00 00 
    de97:	48 8d 05 ea 91 01 00 	lea    0x191ea(%rip),%rax        # 27088 <g_956>
    de9e:	48 89 85 40 f8 ff ff 	mov    %rax,-0x7c0(%rbp)
    dea5:	48 c7 85 48 f8 ff ff 	movq   $0x0,-0x7b8(%rbp)
    deac:	00 00 00 00 
    deb0:	48 8d 05 d1 91 01 00 	lea    0x191d1(%rip),%rax        # 27088 <g_956>
    deb7:	48 89 85 50 f8 ff ff 	mov    %rax,-0x7b0(%rbp)
    debe:	48 8d 85 58 e9 ff ff 	lea    -0x16a8(%rbp),%rax
    dec5:	48 89 85 58 f8 ff ff 	mov    %rax,-0x7a8(%rbp)
    decc:	48 8d 85 58 e9 ff ff 	lea    -0x16a8(%rbp),%rax
    ded3:	48 89 85 60 f8 ff ff 	mov    %rax,-0x7a0(%rbp)
    deda:	48 8d 05 a7 91 01 00 	lea    0x191a7(%rip),%rax        # 27088 <g_956>
    dee1:	48 89 85 68 f8 ff ff 	mov    %rax,-0x798(%rbp)
    dee8:	48 c7 85 70 f8 ff ff 	movq   $0x0,-0x790(%rbp)
    deef:	00 00 00 00 
    def3:	48 c7 85 78 f8 ff ff 	movq   $0x0,-0x788(%rbp)
    defa:	00 00 00 00 
    defe:	48 8d 05 83 91 01 00 	lea    0x19183(%rip),%rax        # 27088 <g_956>
    df05:	48 89 85 80 f8 ff ff 	mov    %rax,-0x780(%rbp)
    df0c:	48 8d 85 58 e9 ff ff 	lea    -0x16a8(%rbp),%rax
    df13:	48 89 85 88 f8 ff ff 	mov    %rax,-0x778(%rbp)
    df1a:	48 8d 85 58 e9 ff ff 	lea    -0x16a8(%rbp),%rax
    df21:	48 89 85 90 f8 ff ff 	mov    %rax,-0x770(%rbp)
    df28:	48 8d 85 58 e9 ff ff 	lea    -0x16a8(%rbp),%rax
    df2f:	48 89 85 98 f8 ff ff 	mov    %rax,-0x768(%rbp)
    df36:	48 8d 05 4b 91 01 00 	lea    0x1914b(%rip),%rax        # 27088 <g_956>
    df3d:	48 89 85 a0 f8 ff ff 	mov    %rax,-0x760(%rbp)
    df44:	48 8d 05 3d 91 01 00 	lea    0x1913d(%rip),%rax        # 27088 <g_956>
    df4b:	48 89 85 a8 f8 ff ff 	mov    %rax,-0x758(%rbp)
    df52:	48 8d 05 2f 91 01 00 	lea    0x1912f(%rip),%rax        # 27088 <g_956>
    df59:	48 89 85 b0 f8 ff ff 	mov    %rax,-0x750(%rbp)
    df60:	48 8d 85 58 e9 ff ff 	lea    -0x16a8(%rbp),%rax
    df67:	48 89 85 b8 f8 ff ff 	mov    %rax,-0x748(%rbp)
    df6e:	48 8d 85 58 e9 ff ff 	lea    -0x16a8(%rbp),%rax
    df75:	48 89 85 c0 f8 ff ff 	mov    %rax,-0x740(%rbp)
    df7c:	48 8d 85 58 e9 ff ff 	lea    -0x16a8(%rbp),%rax
    df83:	48 89 85 c8 f8 ff ff 	mov    %rax,-0x738(%rbp)
    df8a:	48 8d 85 58 e9 ff ff 	lea    -0x16a8(%rbp),%rax
    df91:	48 89 85 d0 f8 ff ff 	mov    %rax,-0x730(%rbp)
    df98:	48 8d 85 58 e9 ff ff 	lea    -0x16a8(%rbp),%rax
    df9f:	48 89 85 d8 f8 ff ff 	mov    %rax,-0x728(%rbp)
    dfa6:	48 8d 05 db 90 01 00 	lea    0x190db(%rip),%rax        # 27088 <g_956>
    dfad:	48 89 85 e0 f8 ff ff 	mov    %rax,-0x720(%rbp)
    dfb4:	48 8d 05 cd 90 01 00 	lea    0x190cd(%rip),%rax        # 27088 <g_956>
    dfbb:	48 89 85 e8 f8 ff ff 	mov    %rax,-0x718(%rbp)
    dfc2:	48 8d 05 bf 90 01 00 	lea    0x190bf(%rip),%rax        # 27088 <g_956>
    dfc9:	48 89 85 f0 f8 ff ff 	mov    %rax,-0x710(%rbp)
    dfd0:	48 8d 05 b1 90 01 00 	lea    0x190b1(%rip),%rax        # 27088 <g_956>
    dfd7:	48 89 85 f8 f8 ff ff 	mov    %rax,-0x708(%rbp)
    dfde:	48 8d 85 58 e9 ff ff 	lea    -0x16a8(%rbp),%rax
    dfe5:	48 89 85 00 f9 ff ff 	mov    %rax,-0x700(%rbp)
    dfec:	48 8d 05 95 90 01 00 	lea    0x19095(%rip),%rax        # 27088 <g_956>
    dff3:	48 89 85 08 f9 ff ff 	mov    %rax,-0x6f8(%rbp)
    dffa:	48 8d 85 58 e9 ff ff 	lea    -0x16a8(%rbp),%rax
    e001:	48 89 85 10 f9 ff ff 	mov    %rax,-0x6f0(%rbp)
    e008:	48 8d 05 79 90 01 00 	lea    0x19079(%rip),%rax        # 27088 <g_956>
    e00f:	48 89 85 18 f9 ff ff 	mov    %rax,-0x6e8(%rbp)
    e016:	48 c7 85 20 f9 ff ff 	movq   $0x0,-0x6e0(%rbp)
    e01d:	00 00 00 00 
    e021:	48 c7 85 28 f9 ff ff 	movq   $0x0,-0x6d8(%rbp)
    e028:	00 00 00 00 
    e02c:	48 8d 85 58 e9 ff ff 	lea    -0x16a8(%rbp),%rax
    e033:	48 89 85 30 f9 ff ff 	mov    %rax,-0x6d0(%rbp)
    e03a:	48 8d 85 58 e9 ff ff 	lea    -0x16a8(%rbp),%rax
    e041:	48 89 85 38 f9 ff ff 	mov    %rax,-0x6c8(%rbp)
    e048:	48 8d 85 58 e9 ff ff 	lea    -0x16a8(%rbp),%rax
    e04f:	48 89 85 40 f9 ff ff 	mov    %rax,-0x6c0(%rbp)
    e056:	48 8d 05 2b 90 01 00 	lea    0x1902b(%rip),%rax        # 27088 <g_956>
    e05d:	48 89 85 48 f9 ff ff 	mov    %rax,-0x6b8(%rbp)
    e064:	48 c7 85 50 f9 ff ff 	movq   $0x0,-0x6b0(%rbp)
    e06b:	00 00 00 00 
    e06f:	48 8d 05 12 90 01 00 	lea    0x19012(%rip),%rax        # 27088 <g_956>
    e076:	48 89 85 58 f9 ff ff 	mov    %rax,-0x6a8(%rbp)
    e07d:	48 c7 85 60 f9 ff ff 	movq   $0x0,-0x6a0(%rbp)
    e084:	00 00 00 00 
    e088:	48 8d 05 f9 8f 01 00 	lea    0x18ff9(%rip),%rax        # 27088 <g_956>
    e08f:	48 89 85 68 f9 ff ff 	mov    %rax,-0x698(%rbp)
    e096:	48 8d 85 58 e9 ff ff 	lea    -0x16a8(%rbp),%rax
    e09d:	48 89 85 70 f9 ff ff 	mov    %rax,-0x690(%rbp)
    e0a4:	48 8d 85 58 e9 ff ff 	lea    -0x16a8(%rbp),%rax
    e0ab:	48 89 85 78 f9 ff ff 	mov    %rax,-0x688(%rbp)
    e0b2:	48 8d 05 cf 8f 01 00 	lea    0x18fcf(%rip),%rax        # 27088 <g_956>
    e0b9:	48 89 85 80 f9 ff ff 	mov    %rax,-0x680(%rbp)
    e0c0:	48 c7 85 88 f9 ff ff 	movq   $0x0,-0x678(%rbp)
    e0c7:	00 00 00 00 
    e0cb:	48 c7 85 90 f9 ff ff 	movq   $0x0,-0x670(%rbp)
    e0d2:	00 00 00 00 
    e0d6:	48 8d 05 ab 8f 01 00 	lea    0x18fab(%rip),%rax        # 27088 <g_956>
    e0dd:	48 89 85 98 f9 ff ff 	mov    %rax,-0x668(%rbp)
    e0e4:	48 8d 85 58 e9 ff ff 	lea    -0x16a8(%rbp),%rax
    e0eb:	48 89 85 a0 f9 ff ff 	mov    %rax,-0x660(%rbp)
    e0f2:	48 8d 85 58 e9 ff ff 	lea    -0x16a8(%rbp),%rax
    e0f9:	48 89 85 a8 f9 ff ff 	mov    %rax,-0x658(%rbp)
    e100:	48 8d 85 58 e9 ff ff 	lea    -0x16a8(%rbp),%rax
    e107:	48 89 85 b0 f9 ff ff 	mov    %rax,-0x650(%rbp)
    e10e:	48 8d 05 73 8f 01 00 	lea    0x18f73(%rip),%rax        # 27088 <g_956>
    e115:	48 89 85 b8 f9 ff ff 	mov    %rax,-0x648(%rbp)
    e11c:	48 8d 05 65 8f 01 00 	lea    0x18f65(%rip),%rax        # 27088 <g_956>
    e123:	48 89 85 c0 f9 ff ff 	mov    %rax,-0x640(%rbp)
    e12a:	48 8d 05 57 8f 01 00 	lea    0x18f57(%rip),%rax        # 27088 <g_956>
    e131:	48 89 85 c8 f9 ff ff 	mov    %rax,-0x638(%rbp)
    e138:	48 8d 85 58 e9 ff ff 	lea    -0x16a8(%rbp),%rax
    e13f:	48 89 85 d0 f9 ff ff 	mov    %rax,-0x630(%rbp)
    e146:	48 8d 85 58 e9 ff ff 	lea    -0x16a8(%rbp),%rax
    e14d:	48 89 85 d8 f9 ff ff 	mov    %rax,-0x628(%rbp)
    e154:	48 8d 85 58 e9 ff ff 	lea    -0x16a8(%rbp),%rax
    e15b:	48 89 85 e0 f9 ff ff 	mov    %rax,-0x620(%rbp)
    e162:	48 8d 85 58 e9 ff ff 	lea    -0x16a8(%rbp),%rax
    e169:	48 89 85 e8 f9 ff ff 	mov    %rax,-0x618(%rbp)
    e170:	48 8d 85 58 e9 ff ff 	lea    -0x16a8(%rbp),%rax
    e177:	48 89 85 f0 f9 ff ff 	mov    %rax,-0x610(%rbp)
    e17e:	48 8d 05 03 8f 01 00 	lea    0x18f03(%rip),%rax        # 27088 <g_956>
    e185:	48 89 85 f8 f9 ff ff 	mov    %rax,-0x608(%rbp)
    e18c:	48 8d 05 f5 8e 01 00 	lea    0x18ef5(%rip),%rax        # 27088 <g_956>
    e193:	48 89 85 00 fa ff ff 	mov    %rax,-0x600(%rbp)
    e19a:	48 8d 05 e7 8e 01 00 	lea    0x18ee7(%rip),%rax        # 27088 <g_956>
    e1a1:	48 89 85 08 fa ff ff 	mov    %rax,-0x5f8(%rbp)
    e1a8:	48 8d 05 d9 8e 01 00 	lea    0x18ed9(%rip),%rax        # 27088 <g_956>
    e1af:	48 89 85 10 fa ff ff 	mov    %rax,-0x5f0(%rbp)
    e1b6:	48 8d 85 58 e9 ff ff 	lea    -0x16a8(%rbp),%rax
    e1bd:	48 89 85 18 fa ff ff 	mov    %rax,-0x5e8(%rbp)
    e1c4:	48 8d 85 f0 f7 ff ff 	lea    -0x810(%rbp),%rax
    e1cb:	48 83 c0 50          	add    $0x50,%rax
    e1cf:	48 89 85 c8 ea ff ff 	mov    %rax,-0x1538(%rbp)
    e1d6:	48 8b 05 33 8f 01 00 	mov    0x18f33(%rip),%rax        # 27110 <g_1106>
    e1dd:	48 8b 95 c0 e9 ff ff 	mov    -0x1640(%rbp),%rdx
    e1e4:	48 89 10             	mov    %rdx,(%rax)
    e1e7:	c6 05 43 1e 01 00 00 	movb   $0x0,0x11e43(%rip)        # 20031 <g_72>
    e1ee:	e9 89 02 00 00       	jmpq   e47c <func_44+0x1345>
    e1f3:	48 c7 85 d0 ea ff ff 	movq   $0xfffffffffffffffe,-0x1530(%rbp)
    e1fa:	fe ff ff ff 
    e1fe:	48 8d 85 80 e9 ff ff 	lea    -0x1680(%rbp),%rax
    e205:	48 89 85 d0 ec ff ff 	mov    %rax,-0x1330(%rbp)
    e20c:	48 8d 85 80 e9 ff ff 	lea    -0x1680(%rbp),%rax
    e213:	48 89 85 d8 ec ff ff 	mov    %rax,-0x1328(%rbp)
    e21a:	48 8d 05 ff 8d 01 00 	lea    0x18dff(%rip),%rax        # 27020 <g_213>
    e221:	48 89 85 e0 ec ff ff 	mov    %rax,-0x1320(%rbp)
    e228:	48 8d 05 f1 8d 01 00 	lea    0x18df1(%rip),%rax        # 27020 <g_213>
    e22f:	48 89 85 e8 ec ff ff 	mov    %rax,-0x1318(%rbp)
    e236:	48 8d 85 80 e9 ff ff 	lea    -0x1680(%rbp),%rax
    e23d:	48 89 85 f0 ec ff ff 	mov    %rax,-0x1310(%rbp)
    e244:	48 8d 05 d5 8d 01 00 	lea    0x18dd5(%rip),%rax        # 27020 <g_213>
    e24b:	48 89 85 f8 ec ff ff 	mov    %rax,-0x1308(%rbp)
    e252:	48 8d 05 c7 8d 01 00 	lea    0x18dc7(%rip),%rax        # 27020 <g_213>
    e259:	48 89 85 00 ed ff ff 	mov    %rax,-0x1300(%rbp)
    e260:	48 8d 85 80 e9 ff ff 	lea    -0x1680(%rbp),%rax
    e267:	48 89 85 08 ed ff ff 	mov    %rax,-0x12f8(%rbp)
    e26e:	c7 85 c8 e8 ff ff 00 	movl   $0x0,-0x1738(%rbp)
    e275:	00 00 00 
    e278:	eb 51                	jmp    e2cb <func_44+0x1194>
    e27a:	c7 85 cc e8 ff ff 00 	movl   $0x0,-0x1734(%rbp)
    e281:	00 00 00 
    e284:	eb 35                	jmp    e2bb <func_44+0x1184>
    e286:	8b 85 cc e8 ff ff    	mov    -0x1734(%rbp),%eax
    e28c:	48 63 c8             	movslq %eax,%rcx
    e28f:	8b 85 c8 e8 ff ff    	mov    -0x1738(%rbp),%eax
    e295:	48 63 d0             	movslq %eax,%rdx
    e298:	48 89 d0             	mov    %rdx,%rax
    e29b:	48 01 c0             	add    %rax,%rax
    e29e:	48 01 d0             	add    %rdx,%rax
    e2a1:	48 8d 14 08          	lea    (%rax,%rcx,1),%rdx
    e2a5:	48 8d 85 a4 e8 ff ff 	lea    -0x175c(%rbp),%rax
    e2ac:	48 89 84 d5 40 ec ff 	mov    %rax,-0x13c0(%rbp,%rdx,8)
    e2b3:	ff 
    e2b4:	83 85 cc e8 ff ff 01 	addl   $0x1,-0x1734(%rbp)
    e2bb:	83 bd cc e8 ff ff 02 	cmpl   $0x2,-0x1734(%rbp)
    e2c2:	7e c2                	jle    e286 <func_44+0x114f>
    e2c4:	83 85 c8 e8 ff ff 01 	addl   $0x1,-0x1738(%rbp)
    e2cb:	83 bd c8 e8 ff ff 01 	cmpl   $0x1,-0x1738(%rbp)
    e2d2:	7e a6                	jle    e27a <func_44+0x1143>
    e2d4:	83 bd 7c e8 ff ff 00 	cmpl   $0x0,-0x1784(%rbp)
    e2db:	0f 85 ac 01 00 00    	jne    e48d <func_44+0x1356>
    e2e1:	48 83 ad d0 ea ff ff 	subq   $0x1,-0x1530(%rbp)
    e2e8:	01 
    e2e9:	c7 05 41 1d 01 00 00 	movl   $0x0,0x11d41(%rip)        # 20034 <g_74>
    e2f0:	00 00 00 
    e2f3:	e9 42 01 00 00       	jmpq   e43a <func_44+0x1303>
    e2f8:	48 8b 85 80 e9 ff ff 	mov    -0x1680(%rbp),%rax
    e2ff:	48 85 c0             	test   %rax,%rax
    e302:	75 73                	jne    e377 <func_44+0x1240>
    e304:	8b 15 2a 1d 01 00    	mov    0x11d2a(%rip),%edx        # 20034 <g_74>
    e30a:	8b 05 24 1d 01 00    	mov    0x11d24(%rip),%eax        # 20034 <g_74>
    e310:	48 63 d2             	movslq %edx,%rdx
    e313:	48 8d 0d 26 32 01 00 	lea    0x13226(%rip),%rcx        # 21540 <g_259>
    e31a:	0f b6 0c 0a          	movzbl (%rdx,%rcx,1),%ecx
    e31e:	48 63 d0             	movslq %eax,%rdx
    e321:	48 8d 35 18 32 01 00 	lea    0x13218(%rip),%rsi        # 21540 <g_259>
    e328:	88 0c 32             	mov    %cl,(%rdx,%rsi,1)
    e32b:	48 98                	cltq   
    e32d:	48 8d 15 0c 32 01 00 	lea    0x1320c(%rip),%rdx        # 21540 <g_259>
    e334:	0f b6 04 10          	movzbl (%rax,%rdx,1),%eax
    e338:	0f be d8             	movsbl %al,%ebx
    e33b:	48 83 bd b8 ea ff ff 	cmpq   $0x0,-0x1548(%rbp)
    e342:	00 
    e343:	0f 94 c0             	sete   %al
    e346:	0f b6 c0             	movzbl %al,%eax
    e349:	89 c6                	mov    %eax,%esi
    e34b:	bf fa ff ff ff       	mov    $0xfffffffa,%edi
    e350:	e8 e0 bf ff ff       	callq  a335 <safe_rshift_func_int8_t_s_s>
    e355:	0f be c0             	movsbl %al,%eax
    e358:	89 de                	mov    %ebx,%esi
    e35a:	89 c7                	mov    %eax,%edi
    e35c:	e8 b1 be ff ff       	callq  a212 <safe_mul_func_int8_t_s_s>
    e361:	48 0f be c0          	movsbq %al,%rax
    e365:	48 89 c6             	mov    %rax,%rsi
    e368:	bf 00 00 00 00       	mov    $0x0,%edi
    e36d:	e8 cf c4 ff ff       	callq  a841 <safe_add_func_int64_t_s_s>
    e372:	48 85 c0             	test   %rax,%rax
    e375:	74 2f                	je     e3a6 <func_44+0x126f>
    e377:	83 bd 7c e8 ff ff 00 	cmpl   $0x0,-0x1784(%rbp)
    e37e:	0f 85 c7 00 00 00    	jne    e44b <func_44+0x1314>
    e384:	be 00 00 00 00       	mov    $0x0,%esi
    e389:	bf e1 d6 ff ff       	mov    $0xffffd6e1,%edi
    e38e:	e8 40 c0 ff ff       	callq  a3d3 <safe_sub_func_int16_t_s_s>
    e393:	89 c2                	mov    %eax,%edx
    e395:	48 8b 05 d4 8c 01 00 	mov    0x18cd4(%rip),%rax        # 27070 <g_740>
    e39c:	0f bf d2             	movswl %dx,%edx
    e39f:	89 10                	mov    %edx,(%rax)
    e3a1:	e9 85 00 00 00       	jmpq   e42b <func_44+0x12f4>
    e3a6:	48 8d 85 40 ec ff ff 	lea    -0x13c0(%rbp),%rax
    e3ad:	48 89 85 d8 ea ff ff 	mov    %rax,-0x1528(%rbp)
    e3b4:	48 8b 05 a5 8c 01 00 	mov    0x18ca5(%rip),%rax        # 27060 <g_592>
    e3bb:	8b 08                	mov    (%rax),%ecx
    e3bd:	83 bd 7c e8 ff ff 00 	cmpl   $0x0,-0x1784(%rbp)
    e3c4:	0f 95 c0             	setne  %al
    e3c7:	0f b6 d0             	movzbl %al,%edx
    e3ca:	48 8b 05 8f 8c 01 00 	mov    0x18c8f(%rip),%rax        # 27060 <g_592>
    e3d1:	31 ca                	xor    %ecx,%edx
    e3d3:	89 10                	mov    %edx,(%rax)
    e3d5:	48 8d 85 b8 e8 ff ff 	lea    -0x1748(%rbp),%rax
    e3dc:	48 89 85 40 ec ff ff 	mov    %rax,-0x13c0(%rbp)
    e3e3:	48 8b 95 68 ec ff ff 	mov    -0x1398(%rbp),%rdx
    e3ea:	48 8b 85 b8 ea ff ff 	mov    -0x1548(%rbp),%rax
    e3f1:	48 89 10             	mov    %rdx,(%rax)
    e3f4:	48 8b 85 b8 ea ff ff 	mov    -0x1548(%rbp),%rax
    e3fb:	48 8b 10             	mov    (%rax),%rdx
    e3fe:	48 8b 85 d8 ea ff ff 	mov    -0x1528(%rbp),%rax
    e405:	48 89 10             	mov    %rdx,(%rax)
    e408:	48 8b 05 09 8d 01 00 	mov    0x18d09(%rip),%rax        # 27118 <g_1140>
    e40f:	48 8b 95 d8 ea ff ff 	mov    -0x1528(%rbp),%rdx
    e416:	48 8b 12             	mov    (%rdx),%rdx
    e419:	48 89 10             	mov    %rdx,(%rax)
    e41c:	48 8b 05 3d 8c 01 00 	mov    0x18c3d(%rip),%rax        # 27060 <g_592>
    e423:	8b 95 7c e8 ff ff    	mov    -0x1784(%rbp),%edx
    e429:	89 10                	mov    %edx,(%rax)
    e42b:	8b 05 03 1c 01 00    	mov    0x11c03(%rip),%eax        # 20034 <g_74>
    e431:	83 c0 01             	add    $0x1,%eax
    e434:	89 05 fa 1b 01 00    	mov    %eax,0x11bfa(%rip)        # 20034 <g_74>
    e43a:	8b 05 f4 1b 01 00    	mov    0x11bf4(%rip),%eax        # 20034 <g_74>
    e440:	83 f8 08             	cmp    $0x8,%eax
    e443:	0f 8e af fe ff ff    	jle    e2f8 <func_44+0x11c1>
    e449:	eb 01                	jmp    e44c <func_44+0x1315>
    e44b:	90                   	nop
    e44c:	48 8b 15 d5 8b 01 00 	mov    0x18bd5(%rip),%rdx        # 27028 <g_215>
    e453:	48 8b 05 ce 8b 01 00 	mov    0x18bce(%rip),%rax        # 27028 <g_215>
    e45a:	48 8b 12             	mov    (%rdx),%rdx
    e45d:	48 89 10             	mov    %rdx,(%rax)
    e460:	0f b6 05 ca 1b 01 00 	movzbl 0x11bca(%rip),%eax        # 20031 <g_72>
    e467:	0f be c0             	movsbl %al,%eax
    e46a:	be 05 00 00 00       	mov    $0x5,%esi
    e46f:	89 c7                	mov    %eax,%edi
    e471:	e8 42 ca ff ff       	callq  aeb8 <safe_add_func_uint32_t_u_u>
    e476:	88 05 b5 1b 01 00    	mov    %al,0x11bb5(%rip)        # 20031 <g_72>
    e47c:	0f b6 05 ae 1b 01 00 	movzbl 0x11bae(%rip),%eax        # 20031 <g_72>
    e483:	84 c0                	test   %al,%al
    e485:	0f 8f 68 fd ff ff    	jg     e1f3 <func_44+0x10bc>
    e48b:	eb 01                	jmp    e48e <func_44+0x1357>
    e48d:	90                   	nop
    e48e:	c7 05 b4 1b 01 00 03 	movl   $0x3,0x11bb4(%rip)        # 2004c <g_139>
    e495:	00 00 00 
    e498:	e9 10 03 00 00       	jmpq   e7ad <func_44+0x1676>
    e49d:	48 8d 85 88 e9 ff ff 	lea    -0x1678(%rbp),%rax
    e4a4:	48 89 85 e0 ea ff ff 	mov    %rax,-0x1520(%rbp)
    e4ab:	48 c7 85 e8 ea ff ff 	movq   $0x0,-0x1518(%rbp)
    e4b2:	00 00 00 00 
    e4b6:	c7 85 1c e9 ff ff b9 	movl   $0xe3ee7db9,-0x16e4(%rbp)
    e4bd:	7d ee e3 
    e4c0:	48 8b 95 88 e9 ff ff 	mov    -0x1678(%rbp),%rdx
    e4c7:	48 8b 85 e0 ea ff ff 	mov    -0x1520(%rbp),%rax
    e4ce:	48 89 10             	mov    %rdx,(%rax)
    e4d1:	8b 85 a4 e8 ff ff    	mov    -0x175c(%rbp),%eax
    e4d7:	85 c0                	test   %eax,%eax
    e4d9:	0f 85 be 02 00 00    	jne    e79d <func_44+0x1666>
    e4df:	66 c7 05 90 33 01 00 	movw   $0x0,0x13390(%rip)        # 21878 <g_393>
    e4e6:	00 00 
    e4e8:	e9 9d 02 00 00       	jmpq   e78a <func_44+0x1653>
    e4ed:	48 c7 85 f0 ea ff ff 	movq   $0x0,-0x1510(%rbp)
    e4f4:	00 00 00 00 
    e4f8:	c7 85 b8 e9 ff ff 04 	movl   $0x4,-0x1648(%rbp)
    e4ff:	00 00 00 
    e502:	48 8d 05 31 1b 01 00 	lea    0x11b31(%rip),%rax        # 2003a <g_96>
    e509:	48 89 85 c8 e9 ff ff 	mov    %rax,-0x1638(%rbp)
    e510:	48 8d 85 c8 e9 ff ff 	lea    -0x1638(%rbp),%rax
    e517:	48 89 85 f8 ea ff ff 	mov    %rax,-0x1508(%rbp)
    e51e:	48 8b 85 e8 ea ff ff 	mov    -0x1518(%rbp),%rax
    e525:	48 89 85 c0 ea ff ff 	mov    %rax,-0x1540(%rbp)
    e52c:	66 c7 05 03 1b 01 00 	movw   $0x3,0x11b03(%rip)        # 20038 <g_85>
    e533:	03 00 
    e535:	e9 2f 02 00 00       	jmpq   e769 <func_44+0x1632>
    e53a:	48 8d 85 80 e9 ff ff 	lea    -0x1680(%rbp),%rax
    e541:	48 89 85 00 eb ff ff 	mov    %rax,-0x1500(%rbp)
    e548:	48 8d 05 01 1b 01 00 	lea    0x11b01(%rip),%rax        # 20050 <g_147>
    e54f:	48 89 85 08 eb ff ff 	mov    %rax,-0x14f8(%rbp)
    e556:	48 8d 85 b8 e8 ff ff 	lea    -0x1748(%rbp),%rax
    e55d:	48 89 85 10 eb ff ff 	mov    %rax,-0x14f0(%rbp)
    e564:	48 8d 85 a8 e8 ff ff 	lea    -0x1758(%rbp),%rax
    e56b:	48 89 85 18 eb ff ff 	mov    %rax,-0x14e8(%rbp)
    e572:	48 8d 85 70 f0 ff ff 	lea    -0xf90(%rbp),%rax
    e579:	48 83 c0 10          	add    $0x10,%rax
    e57d:	48 89 85 20 eb ff ff 	mov    %rax,-0x14e0(%rbp)
    e584:	48 8d 85 b8 e9 ff ff 	lea    -0x1648(%rbp),%rax
    e58b:	48 89 85 28 eb ff ff 	mov    %rax,-0x14d8(%rbp)
    e592:	48 8d 85 20 ed ff ff 	lea    -0x12e0(%rbp),%rax
    e599:	48 83 c0 2c          	add    $0x2c,%rax
    e59d:	48 89 85 30 eb ff ff 	mov    %rax,-0x14d0(%rbp)
    e5a4:	48 8b 05 c5 8a 01 00 	mov    0x18ac5(%rip),%rax        # 27070 <g_740>
    e5ab:	8b 18                	mov    (%rax),%ebx
    e5ad:	8b 85 7c e8 ff ff    	mov    -0x1784(%rbp),%eax
    e5b3:	44 0f b6 e0          	movzbl %al,%r12d
    e5b7:	48 8b 05 7a 8a 01 00 	mov    0x18a7a(%rip),%rax        # 27038 <g_301>
    e5be:	48 8b 00             	mov    (%rax),%rax
    e5c1:	0f b7 00             	movzwl (%rax),%eax
    e5c4:	44 8b ad 7c e8 ff ff 	mov    -0x1784(%rbp),%r13d
    e5cb:	8b 95 1c e9 ff ff    	mov    -0x16e4(%rbp),%edx
    e5d1:	48 8b 85 d0 e9 ff ff 	mov    -0x1630(%rbp),%rax
    e5d8:	48 89 05 81 8b 01 00 	mov    %rax,0x18b81(%rip)        # 27160 <g_1167>
    e5df:	48 83 bd 00 eb ff ff 	cmpq   $0x0,-0x1500(%rbp)
    e5e6:	00 
    e5e7:	0f 95 c0             	setne  %al
    e5ea:	0f b6 c0             	movzbl %al,%eax
    e5ed:	89 d6                	mov    %edx,%esi
    e5ef:	89 c7                	mov    %eax,%edi
    e5f1:	e8 56 c6 ff ff       	callq  ac4c <safe_lshift_func_uint8_t_u_u>
    e5f6:	0f b6 d0             	movzbl %al,%edx
    e5f9:	48 8b 85 08 eb ff ff 	mov    -0x14f8(%rbp),%rax
    e600:	48 89 10             	mov    %rdx,(%rax)
    e603:	48 8b 85 08 eb ff ff 	mov    -0x14f8(%rbp),%rax
    e60a:	48 8b 00             	mov    (%rax),%rax
    e60d:	4c 89 ee             	mov    %r13,%rsi
    e610:	48 89 c7             	mov    %rax,%rdi
    e613:	e8 68 ca ff ff       	callq  b080 <safe_mod_func_uint64_t_u_u>
    e618:	48 8d 05 71 8a 01 00 	lea    0x18a71(%rip),%rax        # 27090 <g_955>
    e61f:	48 39 85 c8 ea ff ff 	cmp    %rax,-0x1538(%rbp)
    e626:	0f 94 c0             	sete   %al
    e629:	0f b6 c0             	movzbl %al,%eax
    e62c:	44 89 e6             	mov    %r12d,%esi
    e62f:	89 c7                	mov    %eax,%edi
    e631:	e8 24 c5 ff ff       	callq  ab5a <safe_add_func_uint8_t_u_u>
    e636:	81 bd c0 e8 ff ff f8 	cmpl   $0xf8,-0x1740(%rbp)
    e63d:	00 00 00 
    e640:	0f 94 c0             	sete   %al
    e643:	0f b6 d0             	movzbl %al,%edx
    e646:	48 8d 05 ed 19 01 00 	lea    0x119ed(%rip),%rax        # 2003a <g_96>
    e64d:	0f b7 00             	movzwl (%rax),%eax
    e650:	0f b7 c0             	movzwl %ax,%eax
    e653:	39 c2                	cmp    %eax,%edx
    e655:	0f 9f c2             	setg   %dl
    e658:	48 8b 85 50 e9 ff ff 	mov    -0x16b0(%rbp),%rax
    e65f:	88 10                	mov    %dl,(%rax)
    e661:	0f b6 00             	movzbl (%rax),%eax
    e664:	0f be d0             	movsbl %al,%edx
    e667:	8b 85 a8 e8 ff ff    	mov    -0x1758(%rbp),%eax
    e66d:	39 c2                	cmp    %eax,%edx
    e66f:	0f 95 c0             	setne  %al
    e672:	0f b6 c0             	movzbl %al,%eax
    e675:	ba 46 01 00 00       	mov    $0x146,%edx
    e67a:	39 d0                	cmp    %edx,%eax
    e67c:	0f 94 c0             	sete   %al
    e67f:	0f b6 d0             	movzbl %al,%edx
    e682:	48 8b 85 b8 ea ff ff 	mov    -0x1548(%rbp),%rax
    e689:	48 8b 00             	mov    (%rax),%rax
    e68c:	8b 00                	mov    (%rax),%eax
    e68e:	39 c2                	cmp    %eax,%edx
    e690:	0f 95 c0             	setne  %al
    e693:	0f b6 c0             	movzbl %al,%eax
    e696:	0b 85 1c e9 ff ff    	or     -0x16e4(%rbp),%eax
    e69c:	48 98                	cltq   
    e69e:	be 01 00 00 00       	mov    $0x1,%esi
    e6a3:	48 89 c7             	mov    %rax,%rdi
    e6a6:	e8 04 ca ff ff       	callq  b0af <safe_div_func_uint64_t_u_u>
    e6ab:	8b 85 7c e8 ff ff    	mov    -0x1784(%rbp),%eax
    e6b1:	83 f0 01             	xor    $0x1,%eax
    e6b4:	89 de                	mov    %ebx,%esi
    e6b6:	89 c7                	mov    %eax,%edi
    e6b8:	e8 48 bf ff ff       	callq  a605 <safe_sub_func_int32_t_s_s>
    e6bd:	be 00 00 00 00       	mov    $0x0,%esi
    e6c2:	0f b7 05 af 31 01 00 	movzwl 0x131af(%rip),%eax        # 21878 <g_393>
    e6c9:	98                   	cwtl   
    e6ca:	48 98                	cltq   
    e6cc:	48 8d 14 c5 00 00 00 	lea    0x0(,%rax,8),%rdx
    e6d3:	00 
    e6d4:	48 8d 05 55 1d 01 00 	lea    0x11d55(%rip),%rax        # 20430 <g_251>
    e6db:	48 8b 0c 02          	mov    (%rdx,%rax,1),%rcx
    e6df:	48 63 d6             	movslq %esi,%rdx
    e6e2:	0f b7 05 8f 31 01 00 	movzwl 0x1318f(%rip),%eax        # 21878 <g_393>
    e6e9:	98                   	cwtl   
    e6ea:	48 09 d1             	or     %rdx,%rcx
    e6ed:	48 89 ce             	mov    %rcx,%rsi
    e6f0:	48 63 d0             	movslq %eax,%rdx
    e6f3:	48 8d 0c d5 00 00 00 	lea    0x0(,%rdx,8),%rcx
    e6fa:	00 
    e6fb:	48 8d 15 2e 1d 01 00 	lea    0x11d2e(%rip),%rdx        # 20430 <g_251>
    e702:	48 89 34 11          	mov    %rsi,(%rcx,%rdx,1)
    e706:	48 98                	cltq   
    e708:	48 8d 14 c5 00 00 00 	lea    0x0(,%rax,8),%rdx
    e70f:	00 
    e710:	48 8d 05 19 1d 01 00 	lea    0x11d19(%rip),%rax        # 20430 <g_251>
    e717:	48 8b 04 02          	mov    (%rdx,%rax,1),%rax
    e71b:	48 ba 5e db 52 93 f8 	movabs $0xada49af89352db5e,%rdx
    e722:	9a a4 ad 
    e725:	48 39 d0             	cmp    %rdx,%rax
    e728:	48 8d 05 b1 15 01 00 	lea    0x115b1(%rip),%rax        # 1fce0 <g_575>
    e72f:	48 39 85 f8 ea ff ff 	cmp    %rax,-0x1508(%rbp)
    e736:	0f 94 c0             	sete   %al
    e739:	0f b6 c0             	movzbl %al,%eax
    e73c:	89 85 b8 e9 ff ff    	mov    %eax,-0x1648(%rbp)
    e742:	8b 85 ac e8 ff ff    	mov    -0x1754(%rbp),%eax
    e748:	83 c0 01             	add    $0x1,%eax
    e74b:	89 85 ac e8 ff ff    	mov    %eax,-0x1754(%rbp)
    e751:	83 bd 7c e8 ff ff 00 	cmpl   $0x0,-0x1784(%rbp)
    e758:	0f b7 05 d9 18 01 00 	movzwl 0x118d9(%rip),%eax        # 20038 <g_85>
    e75f:	83 e8 01             	sub    $0x1,%eax
    e762:	66 89 05 cf 18 01 00 	mov    %ax,0x118cf(%rip)        # 20038 <g_85>
    e769:	0f b7 05 c8 18 01 00 	movzwl 0x118c8(%rip),%eax        # 20038 <g_85>
    e770:	66 85 c0             	test   %ax,%ax
    e773:	0f 89 c1 fd ff ff    	jns    e53a <func_44+0x1403>
    e779:	0f b7 05 f8 30 01 00 	movzwl 0x130f8(%rip),%eax        # 21878 <g_393>
    e780:	83 c0 01             	add    $0x1,%eax
    e783:	66 89 05 ee 30 01 00 	mov    %ax,0x130ee(%rip)        # 21878 <g_393>
    e78a:	0f b7 05 e7 30 01 00 	movzwl 0x130e7(%rip),%eax        # 21878 <g_393>
    e791:	66 83 f8 01          	cmp    $0x1,%ax
    e795:	0f 8e 52 fd ff ff    	jle    e4ed <func_44+0x13b6>
    e79b:	eb 01                	jmp    e79e <func_44+0x1667>
    e79d:	90                   	nop
    e79e:	8b 05 a8 18 01 00    	mov    0x118a8(%rip),%eax        # 2004c <g_139>
    e7a4:	83 e8 01             	sub    $0x1,%eax
    e7a7:	89 05 9f 18 01 00    	mov    %eax,0x1189f(%rip)        # 2004c <g_139>
    e7ad:	8b 05 99 18 01 00    	mov    0x11899(%rip),%eax        # 2004c <g_139>
    e7b3:	85 c0                	test   %eax,%eax
    e7b5:	0f 89 e2 fc ff ff    	jns    e49d <func_44+0x1366>
    e7bb:	e9 32 17 00 00       	jmpq   fef2 <func_44+0x2dbb>
    e7c0:	66 c7 85 40 ec ff ff 	movw   $0xfffd,-0x13c0(%rbp)
    e7c7:	fd ff 
    e7c9:	66 c7 85 42 ec ff ff 	movw   $0x1,-0x13be(%rbp)
    e7d0:	01 00 
    e7d2:	66 c7 85 44 ec ff ff 	movw   $0xffff,-0x13bc(%rbp)
    e7d9:	ff ff 
    e7db:	66 c7 85 46 ec ff ff 	movw   $0x727f,-0x13ba(%rbp)
    e7e2:	7f 72 
    e7e4:	66 c7 85 48 ec ff ff 	movw   $0x287a,-0x13b8(%rbp)
    e7eb:	7a 28 
    e7ed:	66 c7 85 4a ec ff ff 	movw   $0xffff,-0x13b6(%rbp)
    e7f4:	ff ff 
    e7f6:	66 c7 85 4c ec ff ff 	movw   $0x727f,-0x13b4(%rbp)
    e7fd:	7f 72 
    e7ff:	66 c7 85 4e ec ff ff 	movw   $0x1,-0x13b2(%rbp)
    e806:	01 00 
    e808:	66 c7 85 50 ec ff ff 	movw   $0x727f,-0x13b0(%rbp)
    e80f:	7f 72 
    e811:	66 c7 85 52 ec ff ff 	movw   $0xffff,-0x13ae(%rbp)
    e818:	ff ff 
    e81a:	66 c7 85 54 ec ff ff 	movw   $0x287a,-0x13ac(%rbp)
    e821:	7a 28 
    e823:	66 c7 85 56 ec ff ff 	movw   $0x727f,-0x13aa(%rbp)
    e82a:	7f 72 
    e82c:	66 c7 85 58 ec ff ff 	movw   $0xffff,-0x13a8(%rbp)
    e833:	ff ff 
    e835:	66 c7 85 5a ec ff ff 	movw   $0x1,-0x13a6(%rbp)
    e83c:	01 00 
    e83e:	66 c7 85 5c ec ff ff 	movw   $0xfffd,-0x13a4(%rbp)
    e845:	fd ff 
    e847:	66 c7 85 5e ec ff ff 	movw   $0xfffd,-0x13a2(%rbp)
    e84e:	fd ff 
    e850:	66 c7 85 60 ec ff ff 	movw   $0x287a,-0x13a0(%rbp)
    e857:	7a 28 
    e859:	66 c7 85 62 ec ff ff 	movw   $0xfffd,-0x139e(%rbp)
    e860:	fd ff 
    e862:	66 c7 85 64 ec ff ff 	movw   $0xfffd,-0x139c(%rbp)
    e869:	fd ff 
    e86b:	66 c7 85 66 ec ff ff 	movw   $0x1,-0x139a(%rbp)
    e872:	01 00 
    e874:	66 c7 85 68 ec ff ff 	movw   $0xffff,-0x1398(%rbp)
    e87b:	ff ff 
    e87d:	66 c7 85 6a ec ff ff 	movw   $0x727f,-0x1396(%rbp)
    e884:	7f 72 
    e886:	66 c7 85 6c ec ff ff 	movw   $0x287a,-0x1394(%rbp)
    e88d:	7a 28 
    e88f:	66 c7 85 6e ec ff ff 	movw   $0xffff,-0x1392(%rbp)
    e896:	ff ff 
    e898:	66 c7 85 70 ec ff ff 	movw   $0x727f,-0x1390(%rbp)
    e89f:	7f 72 
    e8a1:	66 c7 85 72 ec ff ff 	movw   $0x1,-0x138e(%rbp)
    e8a8:	01 00 
    e8aa:	66 c7 85 74 ec ff ff 	movw   $0x727f,-0x138c(%rbp)
    e8b1:	7f 72 
    e8b3:	66 c7 85 76 ec ff ff 	movw   $0xffff,-0x138a(%rbp)
    e8ba:	ff ff 
    e8bc:	66 c7 85 78 ec ff ff 	movw   $0x287a,-0x1388(%rbp)
    e8c3:	7a 28 
    e8c5:	66 c7 85 7a ec ff ff 	movw   $0x727f,-0x1386(%rbp)
    e8cc:	7f 72 
    e8ce:	48 8d 85 68 e9 ff ff 	lea    -0x1698(%rbp),%rax
    e8d5:	48 89 85 30 ea ff ff 	mov    %rax,-0x15d0(%rbp)
    e8dc:	48 c7 85 38 ea ff ff 	movq   $0x0,-0x15c8(%rbp)
    e8e3:	00 00 00 00 
    e8e7:	c7 85 d0 e8 ff ff a3 	movl   $0xf839c5a3,-0x1730(%rbp)
    e8ee:	c5 39 f8 
    e8f1:	c7 85 04 e9 ff ff 9f 	movl   $0x285c5a9f,-0x16fc(%rbp)
    e8f8:	5a 5c 28 
    e8fb:	c7 85 bc e8 ff ff ff 	movl   $0xffffffff,-0x1744(%rbp)
    e902:	ff ff ff 
    e905:	66 c7 85 96 e8 ff ff 	movw   $0x1,-0x176a(%rbp)
    e90c:	01 00 
    e90e:	48 8d 05 37 17 01 00 	lea    0x11737(%rip),%rax        # 2004c <g_139>
    e915:	48 89 85 40 ea ff ff 	mov    %rax,-0x15c0(%rbp)
    e91c:	48 c7 85 90 e9 ff ff 	movq   $0x0,-0x1670(%rbp)
    e923:	00 00 00 00 
    e927:	48 8d 85 90 e9 ff ff 	lea    -0x1670(%rbp),%rax
    e92e:	48 89 85 48 ea ff ff 	mov    %rax,-0x15b8(%rbp)
    e935:	48 8d 85 50 e9 ff ff 	lea    -0x16b0(%rbp),%rax
    e93c:	48 89 85 50 ea ff ff 	mov    %rax,-0x15b0(%rbp)
    e943:	0f b7 85 40 ec ff ff 	movzwl -0x13c0(%rbp),%eax
    e94a:	0f bf d8             	movswl %ax,%ebx
    e94d:	be 0d 00 00 00       	mov    $0xd,%esi
    e952:	bf 1f 05 00 00       	mov    $0x51f,%edi
    e957:	e8 36 bb ff ff       	callq  a492 <safe_lshift_func_int16_t_s_s>
    e95c:	48 8b 05 05 87 01 00 	mov    0x18705(%rip),%rax        # 27068 <g_591>
    e963:	48 8b 00             	mov    (%rax),%rax
    e966:	8b 00                	mov    (%rax),%eax
    e968:	89 de                	mov    %ebx,%esi
    e96a:	bf 00 00 00 00       	mov    $0x0,%edi
    e96f:	e8 42 bc ff ff       	callq  a5b6 <safe_add_func_int32_t_s_s>
    e974:	85 c0                	test   %eax,%eax
    e976:	0f 84 91 14 00 00    	je     fe0d <func_44+0x2cd6>
    e97c:	c7 85 08 e9 ff ff 01 	movl   $0x1,-0x16f8(%rbp)
    e983:	00 00 00 
    e986:	c7 85 0c e9 ff ff 6f 	movl   $0xbed3126f,-0x16f4(%rbp)
    e98d:	12 d3 be 
    e990:	48 8d 05 b9 86 01 00 	lea    0x186b9(%rip),%rax        # 27050 <g_461>
    e997:	48 89 85 98 e9 ff ff 	mov    %rax,-0x1668(%rbp)
    e99e:	48 8d 85 98 e9 ff ff 	lea    -0x1668(%rbp),%rax
    e9a5:	48 89 85 70 ea ff ff 	mov    %rax,-0x1590(%rbp)
    e9ac:	48 8d 05 d5 86 01 00 	lea    0x186d5(%rip),%rax        # 27088 <g_956>
    e9b3:	48 89 85 a0 e9 ff ff 	mov    %rax,-0x1660(%rbp)
    e9ba:	48 8d 85 a0 e9 ff ff 	lea    -0x1660(%rbp),%rax
    e9c1:	48 89 85 78 ea ff ff 	mov    %rax,-0x1588(%rbp)
    e9c8:	48 8d 85 60 e9 ff ff 	lea    -0x16a0(%rbp),%rax
    e9cf:	48 89 85 80 ea ff ff 	mov    %rax,-0x1580(%rbp)
    e9d6:	48 b8 bc 58 12 f2 d8 	movabs $0x11bcacd8f21258bc,%rax
    e9dd:	ac bc 11 
    e9e0:	48 89 85 a8 e9 ff ff 	mov    %rax,-0x1658(%rbp)
    e9e7:	48 8d 05 8a 86 01 00 	lea    0x1868a(%rip),%rax        # 27078 <g_739>
    e9ee:	48 89 85 b0 e9 ff ff 	mov    %rax,-0x1650(%rbp)
    e9f5:	48 8d 85 b0 e9 ff ff 	lea    -0x1650(%rbp),%rax
    e9fc:	48 89 85 f0 f7 ff ff 	mov    %rax,-0x810(%rbp)
    ea03:	48 c7 85 f8 f7 ff ff 	movq   $0x0,-0x808(%rbp)
    ea0a:	00 00 00 00 
    ea0e:	48 8d 85 b0 e9 ff ff 	lea    -0x1650(%rbp),%rax
    ea15:	48 89 85 00 f8 ff ff 	mov    %rax,-0x800(%rbp)
    ea1c:	48 c7 85 08 f8 ff ff 	movq   $0x0,-0x7f8(%rbp)
    ea23:	00 00 00 00 
    ea27:	48 c7 85 10 f8 ff ff 	movq   $0x0,-0x7f0(%rbp)
    ea2e:	00 00 00 00 
    ea32:	48 c7 85 18 f8 ff ff 	movq   $0x0,-0x7e8(%rbp)
    ea39:	00 00 00 00 
    ea3d:	48 8d 85 b0 e9 ff ff 	lea    -0x1650(%rbp),%rax
    ea44:	48 89 85 20 f8 ff ff 	mov    %rax,-0x7e0(%rbp)
    ea4b:	48 c7 85 28 f8 ff ff 	movq   $0x0,-0x7d8(%rbp)
    ea52:	00 00 00 00 
    ea56:	48 8d 85 b0 e9 ff ff 	lea    -0x1650(%rbp),%rax
    ea5d:	48 89 85 30 f8 ff ff 	mov    %rax,-0x7d0(%rbp)
    ea64:	48 8d 85 b0 e9 ff ff 	lea    -0x1650(%rbp),%rax
    ea6b:	48 89 85 38 f8 ff ff 	mov    %rax,-0x7c8(%rbp)
    ea72:	48 8d 85 b0 e9 ff ff 	lea    -0x1650(%rbp),%rax
    ea79:	48 89 85 40 f8 ff ff 	mov    %rax,-0x7c0(%rbp)
    ea80:	48 c7 85 48 f8 ff ff 	movq   $0x0,-0x7b8(%rbp)
    ea87:	00 00 00 00 
    ea8b:	48 c7 85 50 f8 ff ff 	movq   $0x0,-0x7b0(%rbp)
    ea92:	00 00 00 00 
    ea96:	48 c7 85 58 f8 ff ff 	movq   $0x0,-0x7a8(%rbp)
    ea9d:	00 00 00 00 
    eaa1:	48 8d 85 b0 e9 ff ff 	lea    -0x1650(%rbp),%rax
    eaa8:	48 89 85 60 f8 ff ff 	mov    %rax,-0x7a0(%rbp)
    eaaf:	48 8d 85 b0 e9 ff ff 	lea    -0x1650(%rbp),%rax
    eab6:	48 89 85 68 f8 ff ff 	mov    %rax,-0x798(%rbp)
    eabd:	48 c7 85 70 f8 ff ff 	movq   $0x0,-0x790(%rbp)
    eac4:	00 00 00 00 
    eac8:	48 c7 85 78 f8 ff ff 	movq   $0x0,-0x788(%rbp)
    eacf:	00 00 00 00 
    ead3:	48 8d 85 b0 e9 ff ff 	lea    -0x1650(%rbp),%rax
    eada:	48 89 85 80 f8 ff ff 	mov    %rax,-0x780(%rbp)
    eae1:	48 c7 85 88 f8 ff ff 	movq   $0x0,-0x778(%rbp)
    eae8:	00 00 00 00 
    eaec:	48 8d 85 b0 e9 ff ff 	lea    -0x1650(%rbp),%rax
    eaf3:	48 89 85 90 f8 ff ff 	mov    %rax,-0x770(%rbp)
    eafa:	48 c7 85 98 f8 ff ff 	movq   $0x0,-0x768(%rbp)
    eb01:	00 00 00 00 
    eb05:	48 8d 85 b0 e9 ff ff 	lea    -0x1650(%rbp),%rax
    eb0c:	48 89 85 a0 f8 ff ff 	mov    %rax,-0x760(%rbp)
    eb13:	48 c7 85 a8 f8 ff ff 	movq   $0x0,-0x758(%rbp)
    eb1a:	00 00 00 00 
    eb1e:	48 8d 85 b0 e9 ff ff 	lea    -0x1650(%rbp),%rax
    eb25:	48 89 85 b0 f8 ff ff 	mov    %rax,-0x750(%rbp)
    eb2c:	48 c7 85 b8 f8 ff ff 	movq   $0x0,-0x748(%rbp)
    eb33:	00 00 00 00 
    eb37:	48 c7 85 c0 f8 ff ff 	movq   $0x0,-0x740(%rbp)
    eb3e:	00 00 00 00 
    eb42:	48 c7 85 c8 f8 ff ff 	movq   $0x0,-0x738(%rbp)
    eb49:	00 00 00 00 
    eb4d:	48 c7 85 d0 f8 ff ff 	movq   $0x0,-0x730(%rbp)
    eb54:	00 00 00 00 
    eb58:	48 c7 85 d8 f8 ff ff 	movq   $0x0,-0x728(%rbp)
    eb5f:	00 00 00 00 
    eb63:	48 8d 85 b0 e9 ff ff 	lea    -0x1650(%rbp),%rax
    eb6a:	48 89 85 e0 f8 ff ff 	mov    %rax,-0x720(%rbp)
    eb71:	48 c7 85 e8 f8 ff ff 	movq   $0x0,-0x718(%rbp)
    eb78:	00 00 00 00 
    eb7c:	48 8d 85 b0 e9 ff ff 	lea    -0x1650(%rbp),%rax
    eb83:	48 89 85 f0 f8 ff ff 	mov    %rax,-0x710(%rbp)
    eb8a:	48 c7 85 f8 f8 ff ff 	movq   $0x0,-0x708(%rbp)
    eb91:	00 00 00 00 
    eb95:	48 8d 85 b0 e9 ff ff 	lea    -0x1650(%rbp),%rax
    eb9c:	48 89 85 00 f9 ff ff 	mov    %rax,-0x700(%rbp)
    eba3:	48 c7 85 08 f9 ff ff 	movq   $0x0,-0x6f8(%rbp)
    ebaa:	00 00 00 00 
    ebae:	48 c7 85 10 f9 ff ff 	movq   $0x0,-0x6f0(%rbp)
    ebb5:	00 00 00 00 
    ebb9:	48 c7 85 18 f9 ff ff 	movq   $0x0,-0x6e8(%rbp)
    ebc0:	00 00 00 00 
    ebc4:	48 c7 85 20 f9 ff ff 	movq   $0x0,-0x6e0(%rbp)
    ebcb:	00 00 00 00 
    ebcf:	48 8d 85 b0 e9 ff ff 	lea    -0x1650(%rbp),%rax
    ebd6:	48 89 85 28 f9 ff ff 	mov    %rax,-0x6d8(%rbp)
    ebdd:	48 c7 85 30 f9 ff ff 	movq   $0x0,-0x6d0(%rbp)
    ebe4:	00 00 00 00 
    ebe8:	48 c7 85 38 f9 ff ff 	movq   $0x0,-0x6c8(%rbp)
    ebef:	00 00 00 00 
    ebf3:	48 8d 85 b0 e9 ff ff 	lea    -0x1650(%rbp),%rax
    ebfa:	48 89 85 40 f9 ff ff 	mov    %rax,-0x6c0(%rbp)
    ec01:	48 c7 85 48 f9 ff ff 	movq   $0x0,-0x6b8(%rbp)
    ec08:	00 00 00 00 
    ec0c:	48 8d 85 b0 e9 ff ff 	lea    -0x1650(%rbp),%rax
    ec13:	48 89 85 50 f9 ff ff 	mov    %rax,-0x6b0(%rbp)
    ec1a:	48 8d 85 b0 e9 ff ff 	lea    -0x1650(%rbp),%rax
    ec21:	48 89 85 58 f9 ff ff 	mov    %rax,-0x6a8(%rbp)
    ec28:	48 c7 85 60 f9 ff ff 	movq   $0x0,-0x6a0(%rbp)
    ec2f:	00 00 00 00 
    ec33:	48 c7 85 68 f9 ff ff 	movq   $0x0,-0x698(%rbp)
    ec3a:	00 00 00 00 
    ec3e:	48 c7 85 70 f9 ff ff 	movq   $0x0,-0x690(%rbp)
    ec45:	00 00 00 00 
    ec49:	48 c7 85 78 f9 ff ff 	movq   $0x0,-0x688(%rbp)
    ec50:	00 00 00 00 
    ec54:	48 8d 85 b0 e9 ff ff 	lea    -0x1650(%rbp),%rax
    ec5b:	48 89 85 80 f9 ff ff 	mov    %rax,-0x680(%rbp)
    ec62:	48 c7 85 88 f9 ff ff 	movq   $0x0,-0x678(%rbp)
    ec69:	00 00 00 00 
    ec6d:	48 c7 85 90 f9 ff ff 	movq   $0x0,-0x670(%rbp)
    ec74:	00 00 00 00 
    ec78:	48 c7 85 98 f9 ff ff 	movq   $0x0,-0x668(%rbp)
    ec7f:	00 00 00 00 
    ec83:	48 8d 85 b0 e9 ff ff 	lea    -0x1650(%rbp),%rax
    ec8a:	48 89 85 a0 f9 ff ff 	mov    %rax,-0x660(%rbp)
    ec91:	48 c7 85 a8 f9 ff ff 	movq   $0x0,-0x658(%rbp)
    ec98:	00 00 00 00 
    ec9c:	48 8d 85 b0 e9 ff ff 	lea    -0x1650(%rbp),%rax
    eca3:	48 89 85 b0 f9 ff ff 	mov    %rax,-0x650(%rbp)
    ecaa:	48 c7 85 b8 f9 ff ff 	movq   $0x0,-0x648(%rbp)
    ecb1:	00 00 00 00 
    ecb5:	48 c7 85 c0 f9 ff ff 	movq   $0x0,-0x640(%rbp)
    ecbc:	00 00 00 00 
    ecc0:	48 c7 85 c8 f9 ff ff 	movq   $0x0,-0x638(%rbp)
    ecc7:	00 00 00 00 
    eccb:	48 8d 85 b0 e9 ff ff 	lea    -0x1650(%rbp),%rax
    ecd2:	48 89 85 d0 f9 ff ff 	mov    %rax,-0x630(%rbp)
    ecd9:	48 c7 85 d8 f9 ff ff 	movq   $0x0,-0x628(%rbp)
    ece0:	00 00 00 00 
    ece4:	48 8d 85 b0 e9 ff ff 	lea    -0x1650(%rbp),%rax
    eceb:	48 89 85 e0 f9 ff ff 	mov    %rax,-0x620(%rbp)
    ecf2:	48 c7 85 e8 f9 ff ff 	movq   $0x0,-0x618(%rbp)
    ecf9:	00 00 00 00 
    ecfd:	48 c7 85 f0 f9 ff ff 	movq   $0x0,-0x610(%rbp)
    ed04:	00 00 00 00 
    ed08:	48 c7 85 f8 f9 ff ff 	movq   $0x0,-0x608(%rbp)
    ed0f:	00 00 00 00 
    ed13:	48 8d 85 b0 e9 ff ff 	lea    -0x1650(%rbp),%rax
    ed1a:	48 89 85 00 fa ff ff 	mov    %rax,-0x600(%rbp)
    ed21:	48 c7 85 08 fa ff ff 	movq   $0x0,-0x5f8(%rbp)
    ed28:	00 00 00 00 
    ed2c:	48 8d 85 b0 e9 ff ff 	lea    -0x1650(%rbp),%rax
    ed33:	48 89 85 10 fa ff ff 	mov    %rax,-0x5f0(%rbp)
    ed3a:	48 8d 85 b0 e9 ff ff 	lea    -0x1650(%rbp),%rax
    ed41:	48 89 85 18 fa ff ff 	mov    %rax,-0x5e8(%rbp)
    ed48:	48 8d 85 b0 e9 ff ff 	lea    -0x1650(%rbp),%rax
    ed4f:	48 89 85 20 fa ff ff 	mov    %rax,-0x5e0(%rbp)
    ed56:	48 c7 85 28 fa ff ff 	movq   $0x0,-0x5d8(%rbp)
    ed5d:	00 00 00 00 
    ed61:	48 c7 85 30 fa ff ff 	movq   $0x0,-0x5d0(%rbp)
    ed68:	00 00 00 00 
    ed6c:	48 c7 85 38 fa ff ff 	movq   $0x0,-0x5c8(%rbp)
    ed73:	00 00 00 00 
    ed77:	48 8d 85 b0 e9 ff ff 	lea    -0x1650(%rbp),%rax
    ed7e:	48 89 85 40 fa ff ff 	mov    %rax,-0x5c0(%rbp)
    ed85:	48 8d 85 b0 e9 ff ff 	lea    -0x1650(%rbp),%rax
    ed8c:	48 89 85 48 fa ff ff 	mov    %rax,-0x5b8(%rbp)
    ed93:	48 c7 85 50 fa ff ff 	movq   $0x0,-0x5b0(%rbp)
    ed9a:	00 00 00 00 
    ed9e:	48 c7 85 58 fa ff ff 	movq   $0x0,-0x5a8(%rbp)
    eda5:	00 00 00 00 
    eda9:	48 8d 85 b0 e9 ff ff 	lea    -0x1650(%rbp),%rax
    edb0:	48 89 85 60 fa ff ff 	mov    %rax,-0x5a0(%rbp)
    edb7:	48 c7 85 68 fa ff ff 	movq   $0x0,-0x598(%rbp)
    edbe:	00 00 00 00 
    edc2:	48 8d 85 b0 e9 ff ff 	lea    -0x1650(%rbp),%rax
    edc9:	48 89 85 70 fa ff ff 	mov    %rax,-0x590(%rbp)
    edd0:	48 c7 85 78 fa ff ff 	movq   $0x0,-0x588(%rbp)
    edd7:	00 00 00 00 
    eddb:	48 8d 85 b0 e9 ff ff 	lea    -0x1650(%rbp),%rax
    ede2:	48 89 85 80 fa ff ff 	mov    %rax,-0x580(%rbp)
    ede9:	48 c7 85 88 fa ff ff 	movq   $0x0,-0x578(%rbp)
    edf0:	00 00 00 00 
    edf4:	48 8d 85 b0 e9 ff ff 	lea    -0x1650(%rbp),%rax
    edfb:	48 89 85 90 fa ff ff 	mov    %rax,-0x570(%rbp)
    ee02:	48 c7 85 98 fa ff ff 	movq   $0x0,-0x568(%rbp)
    ee09:	00 00 00 00 
    ee0d:	48 c7 85 a0 fa ff ff 	movq   $0x0,-0x560(%rbp)
    ee14:	00 00 00 00 
    ee18:	48 c7 85 a8 fa ff ff 	movq   $0x0,-0x558(%rbp)
    ee1f:	00 00 00 00 
    ee23:	48 c7 85 b0 fa ff ff 	movq   $0x0,-0x550(%rbp)
    ee2a:	00 00 00 00 
    ee2e:	48 c7 85 b8 fa ff ff 	movq   $0x0,-0x548(%rbp)
    ee35:	00 00 00 00 
    ee39:	48 8d 85 b0 e9 ff ff 	lea    -0x1650(%rbp),%rax
    ee40:	48 89 85 c0 fa ff ff 	mov    %rax,-0x540(%rbp)
    ee47:	48 c7 85 c8 fa ff ff 	movq   $0x0,-0x538(%rbp)
    ee4e:	00 00 00 00 
    ee52:	48 8d 85 b0 e9 ff ff 	lea    -0x1650(%rbp),%rax
    ee59:	48 89 85 d0 fa ff ff 	mov    %rax,-0x530(%rbp)
    ee60:	48 c7 85 d8 fa ff ff 	movq   $0x0,-0x528(%rbp)
    ee67:	00 00 00 00 
    ee6b:	48 8d 85 b0 e9 ff ff 	lea    -0x1650(%rbp),%rax
    ee72:	48 89 85 e0 fa ff ff 	mov    %rax,-0x520(%rbp)
    ee79:	48 c7 85 e8 fa ff ff 	movq   $0x0,-0x518(%rbp)
    ee80:	00 00 00 00 
    ee84:	48 c7 85 f0 fa ff ff 	movq   $0x0,-0x510(%rbp)
    ee8b:	00 00 00 00 
    ee8f:	48 c7 85 f8 fa ff ff 	movq   $0x0,-0x508(%rbp)
    ee96:	00 00 00 00 
    ee9a:	48 c7 85 00 fb ff ff 	movq   $0x0,-0x500(%rbp)
    eea1:	00 00 00 00 
    eea5:	48 8d 85 b0 e9 ff ff 	lea    -0x1650(%rbp),%rax
    eeac:	48 89 85 08 fb ff ff 	mov    %rax,-0x4f8(%rbp)
    eeb3:	48 c7 85 10 fb ff ff 	movq   $0x0,-0x4f0(%rbp)
    eeba:	00 00 00 00 
    eebe:	48 c7 85 18 fb ff ff 	movq   $0x0,-0x4e8(%rbp)
    eec5:	00 00 00 00 
    eec9:	48 8d 85 b0 e9 ff ff 	lea    -0x1650(%rbp),%rax
    eed0:	48 89 85 20 fb ff ff 	mov    %rax,-0x4e0(%rbp)
    eed7:	48 c7 85 28 fb ff ff 	movq   $0x0,-0x4d8(%rbp)
    eede:	00 00 00 00 
    eee2:	48 8d 85 b0 e9 ff ff 	lea    -0x1650(%rbp),%rax
    eee9:	48 89 85 30 fb ff ff 	mov    %rax,-0x4d0(%rbp)
    eef0:	48 8d 85 b0 e9 ff ff 	lea    -0x1650(%rbp),%rax
    eef7:	48 89 85 38 fb ff ff 	mov    %rax,-0x4c8(%rbp)
    eefe:	48 c7 85 40 fb ff ff 	movq   $0x0,-0x4c0(%rbp)
    ef05:	00 00 00 00 
    ef09:	48 c7 85 48 fb ff ff 	movq   $0x0,-0x4b8(%rbp)
    ef10:	00 00 00 00 
    ef14:	48 c7 85 50 fb ff ff 	movq   $0x0,-0x4b0(%rbp)
    ef1b:	00 00 00 00 
    ef1f:	48 c7 85 58 fb ff ff 	movq   $0x0,-0x4a8(%rbp)
    ef26:	00 00 00 00 
    ef2a:	48 8d 85 b0 e9 ff ff 	lea    -0x1650(%rbp),%rax
    ef31:	48 89 85 60 fb ff ff 	mov    %rax,-0x4a0(%rbp)
    ef38:	48 c7 85 68 fb ff ff 	movq   $0x0,-0x498(%rbp)
    ef3f:	00 00 00 00 
    ef43:	48 c7 85 70 fb ff ff 	movq   $0x0,-0x490(%rbp)
    ef4a:	00 00 00 00 
    ef4e:	48 c7 85 78 fb ff ff 	movq   $0x0,-0x488(%rbp)
    ef55:	00 00 00 00 
    ef59:	48 8d 85 b0 e9 ff ff 	lea    -0x1650(%rbp),%rax
    ef60:	48 89 85 80 fb ff ff 	mov    %rax,-0x480(%rbp)
    ef67:	48 c7 85 88 fb ff ff 	movq   $0x0,-0x478(%rbp)
    ef6e:	00 00 00 00 
    ef72:	48 8d 85 b0 e9 ff ff 	lea    -0x1650(%rbp),%rax
    ef79:	48 89 85 90 fb ff ff 	mov    %rax,-0x470(%rbp)
    ef80:	48 c7 85 98 fb ff ff 	movq   $0x0,-0x468(%rbp)
    ef87:	00 00 00 00 
    ef8b:	48 c7 85 a0 fb ff ff 	movq   $0x0,-0x460(%rbp)
    ef92:	00 00 00 00 
    ef96:	48 c7 85 a8 fb ff ff 	movq   $0x0,-0x458(%rbp)
    ef9d:	00 00 00 00 
    efa1:	48 8d 85 b0 e9 ff ff 	lea    -0x1650(%rbp),%rax
    efa8:	48 89 85 b0 fb ff ff 	mov    %rax,-0x450(%rbp)
    efaf:	48 c7 85 b8 fb ff ff 	movq   $0x0,-0x448(%rbp)
    efb6:	00 00 00 00 
    efba:	48 8d 85 b0 e9 ff ff 	lea    -0x1650(%rbp),%rax
    efc1:	48 89 85 c0 fb ff ff 	mov    %rax,-0x440(%rbp)
    efc8:	48 c7 85 c8 fb ff ff 	movq   $0x0,-0x438(%rbp)
    efcf:	00 00 00 00 
    efd3:	48 c7 85 d0 fb ff ff 	movq   $0x0,-0x430(%rbp)
    efda:	00 00 00 00 
    efde:	48 c7 85 d8 fb ff ff 	movq   $0x0,-0x428(%rbp)
    efe5:	00 00 00 00 
    efe9:	48 8d 85 b0 e9 ff ff 	lea    -0x1650(%rbp),%rax
    eff0:	48 89 85 e0 fb ff ff 	mov    %rax,-0x420(%rbp)
    eff7:	48 c7 85 e8 fb ff ff 	movq   $0x0,-0x418(%rbp)
    effe:	00 00 00 00 
    f002:	48 8d 85 b0 e9 ff ff 	lea    -0x1650(%rbp),%rax
    f009:	48 89 85 f0 fb ff ff 	mov    %rax,-0x410(%rbp)
    f010:	48 8d 85 b0 e9 ff ff 	lea    -0x1650(%rbp),%rax
    f017:	48 89 85 f8 fb ff ff 	mov    %rax,-0x408(%rbp)
    f01e:	48 8d 85 b0 e9 ff ff 	lea    -0x1650(%rbp),%rax
    f025:	48 89 85 00 fc ff ff 	mov    %rax,-0x400(%rbp)
    f02c:	48 c7 85 08 fc ff ff 	movq   $0x0,-0x3f8(%rbp)
    f033:	00 00 00 00 
    f037:	48 c7 85 10 fc ff ff 	movq   $0x0,-0x3f0(%rbp)
    f03e:	00 00 00 00 
    f042:	48 c7 85 18 fc ff ff 	movq   $0x0,-0x3e8(%rbp)
    f049:	00 00 00 00 
    f04d:	48 8d 85 b0 e9 ff ff 	lea    -0x1650(%rbp),%rax
    f054:	48 89 85 20 fc ff ff 	mov    %rax,-0x3e0(%rbp)
    f05b:	48 8d 85 b0 e9 ff ff 	lea    -0x1650(%rbp),%rax
    f062:	48 89 85 28 fc ff ff 	mov    %rax,-0x3d8(%rbp)
    f069:	48 c7 85 30 fc ff ff 	movq   $0x0,-0x3d0(%rbp)
    f070:	00 00 00 00 
    f074:	48 c7 85 38 fc ff ff 	movq   $0x0,-0x3c8(%rbp)
    f07b:	00 00 00 00 
    f07f:	48 8d 85 b0 e9 ff ff 	lea    -0x1650(%rbp),%rax
    f086:	48 89 85 40 fc ff ff 	mov    %rax,-0x3c0(%rbp)
    f08d:	48 c7 85 48 fc ff ff 	movq   $0x0,-0x3b8(%rbp)
    f094:	00 00 00 00 
    f098:	48 8d 85 b0 e9 ff ff 	lea    -0x1650(%rbp),%rax
    f09f:	48 89 85 50 fc ff ff 	mov    %rax,-0x3b0(%rbp)
    f0a6:	48 c7 85 58 fc ff ff 	movq   $0x0,-0x3a8(%rbp)
    f0ad:	00 00 00 00 
    f0b1:	48 8d 85 b0 e9 ff ff 	lea    -0x1650(%rbp),%rax
    f0b8:	48 89 85 60 fc ff ff 	mov    %rax,-0x3a0(%rbp)
    f0bf:	48 c7 85 68 fc ff ff 	movq   $0x0,-0x398(%rbp)
    f0c6:	00 00 00 00 
    f0ca:	c7 85 d4 e8 ff ff 00 	movl   $0x0,-0x172c(%rbp)
    f0d1:	00 00 00 
    f0d4:	eb 1a                	jmp    f0f0 <func_44+0x1fb9>
    f0d6:	8b 85 d4 e8 ff ff    	mov    -0x172c(%rbp),%eax
    f0dc:	48 98                	cltq   
    f0de:	c7 84 85 b0 eb ff ff 	movl   $0xffffffff,-0x1450(%rbp,%rax,4)
    f0e5:	ff ff ff ff 
    f0e9:	83 85 d4 e8 ff ff 01 	addl   $0x1,-0x172c(%rbp)
    f0f0:	83 bd d4 e8 ff ff 04 	cmpl   $0x4,-0x172c(%rbp)
    f0f7:	7e dd                	jle    f0d6 <func_44+0x1f9f>
    f0f9:	48 83 bd 28 ea ff ff 	cmpq   $0x0,-0x15d8(%rbp)
    f100:	00 
    f101:	0f 95 c0             	setne  %al
    f104:	44 0f b6 e0          	movzbl %al,%r12d
    f108:	48 8b 05 d9 7f 01 00 	mov    0x17fd9(%rip),%rax        # 270e8 <g_1041>
    f10f:	48 8b 00             	mov    (%rax),%rax
    f112:	48 8b 00             	mov    (%rax),%rax
    f115:	48 39 85 38 ea ff ff 	cmp    %rax,-0x15c8(%rbp)
    f11c:	0f 95 c0             	setne  %al
    f11f:	0f b6 d0             	movzbl %al,%edx
    f122:	48 8b 85 d8 e9 ff ff 	mov    -0x1628(%rbp),%rax
    f129:	48 3b 85 30 ea ff ff 	cmp    -0x15d0(%rbp),%rax
    f130:	0f 95 c0             	setne  %al
    f133:	0f b6 c0             	movzbl %al,%eax
    f136:	39 85 7c e8 ff ff    	cmp    %eax,-0x1784(%rbp)
    f13c:	0f 92 c0             	setb   %al
    f13f:	0f b6 c0             	movzbl %al,%eax
    f142:	89 d6                	mov    %edx,%esi
    f144:	89 c7                	mov    %eax,%edi
    f146:	e8 a7 b0 ff ff       	callq  a1f2 <safe_sub_func_int8_t_s_s>
    f14b:	84 c0                	test   %al,%al
    f14d:	74 78                	je     f1c7 <func_44+0x2090>
    f14f:	48 8b 05 32 11 01 00 	mov    0x11132(%rip),%rax        # 20288 <g_223+0x8>
    f156:	48 c1 e8 0a          	shr    $0xa,%rax
    f15a:	66 25 ff 1f          	and    $0x1fff,%ax
    f15e:	0f b7 d8             	movzwl %ax,%ebx
    f161:	48 8b 05 20 7f 01 00 	mov    0x17f20(%rip),%rax        # 27088 <g_956>
    f168:	48 8b 00             	mov    (%rax),%rax
    f16b:	48 c7 c6 fb ff ff ff 	mov    $0xfffffffffffffffb,%rsi
    f172:	48 89 c7             	mov    %rax,%rdi
    f175:	e8 2e b7 ff ff       	callq  a8a8 <safe_sub_func_int64_t_s_s>
    f17a:	0f b6 c0             	movzbl %al,%eax
    f17d:	89 de                	mov    %ebx,%esi
    f17f:	89 c7                	mov    %eax,%edi
    f181:	e8 38 bb ff ff       	callq  acbe <safe_rshift_func_uint8_t_u_u>
    f186:	b8 00 00 00 00       	mov    $0x0,%eax
    f18b:	33 85 7c e8 ff ff    	xor    -0x1784(%rbp),%eax
    f191:	48 8d 15 a2 0e 01 00 	lea    0x10ea2(%rip),%rdx        # 2003a <g_96>
    f198:	0f b7 12             	movzwl (%rdx),%edx
    f19b:	89 c1                	mov    %eax,%ecx
    f19d:	48 8d 05 96 0e 01 00 	lea    0x10e96(%rip),%rax        # 2003a <g_96>
    f1a4:	21 ca                	and    %ecx,%edx
    f1a6:	66 89 10             	mov    %dx,(%rax)
    f1a9:	0f b7 00             	movzwl (%rax),%eax
    f1ac:	0f b7 c0             	movzwl %ax,%eax
    f1af:	be e9 41 00 00       	mov    $0x41e9,%esi
    f1b4:	89 c7                	mov    %eax,%edi
    f1b6:	e8 a1 bb ff ff       	callq  ad5c <safe_mod_func_uint16_t_u_u>
    f1bb:	66 85 c0             	test   %ax,%ax
    f1be:	74 07                	je     f1c7 <func_44+0x2090>
    f1c0:	b8 01 00 00 00       	mov    $0x1,%eax
    f1c5:	eb 05                	jmp    f1cc <func_44+0x2095>
    f1c7:	b8 00 00 00 00       	mov    $0x0,%eax
    f1cc:	39 85 08 e9 ff ff    	cmp    %eax,-0x16f8(%rbp)
    f1d2:	0f 92 c0             	setb   %al
    f1d5:	0f b6 c0             	movzbl %al,%eax
    f1d8:	be cf 4b 00 00       	mov    $0x4bcf,%esi
    f1dd:	89 c7                	mov    %eax,%edi
    f1df:	e8 78 bb ff ff       	callq  ad5c <safe_mod_func_uint16_t_u_u>
    f1e4:	0f b7 c0             	movzwl %ax,%eax
    f1e7:	41 39 c4             	cmp    %eax,%r12d
    f1ea:	0f 84 fb 02 00 00    	je     f4eb <func_44+0x23b4>
    f1f0:	c6 85 91 e8 ff ff ff 	movb   $0xff,-0x176f(%rbp)
    f1f7:	48 8d 85 20 ed ff ff 	lea    -0x12e0(%rbp),%rax
    f1fe:	48 89 85 90 ea ff ff 	mov    %rax,-0x1570(%rbp)
    f205:	c6 05 3e 0e 01 00 00 	movb   $0x0,0x10e3e(%rip)        # 2004a <g_111>
    f20c:	90                   	nop
    f20d:	0f b6 05 36 0e 01 00 	movzbl 0x10e36(%rip),%eax        # 2004a <g_111>
    f214:	3c 3b                	cmp    $0x3b,%al
    f216:	75 0b                	jne    f223 <func_44+0x20ec>
    f218:	8b 85 7c e8 ff ff    	mov    -0x1784(%rbp),%eax
    f21e:	e9 e8 20 00 00       	jmpq   1130b <func_44+0x41d4>
    f223:	90                   	nop
    f224:	66 c7 05 4b 26 01 00 	movw   $0x0,0x1264b(%rip)        # 21878 <g_393>
    f22b:	00 00 
    f22d:	e9 61 01 00 00       	jmpq   f393 <func_44+0x225c>
    f232:	c7 85 d8 e8 ff ff 00 	movl   $0x0,-0x1728(%rbp)
    f239:	00 00 00 
    f23c:	eb 1e                	jmp    f25c <func_44+0x2125>
    f23e:	8b 85 d8 e8 ff ff    	mov    -0x1728(%rbp),%eax
    f244:	48 98                	cltq   
    f246:	48 8d 15 ff 0d 01 00 	lea    0x10dff(%rip),%rdx        # 2004c <g_139>
    f24d:	48 89 94 c5 70 f0 ff 	mov    %rdx,-0xf90(%rbp,%rax,8)
    f254:	ff 
    f255:	83 85 d8 e8 ff ff 01 	addl   $0x1,-0x1728(%rbp)
    f25c:	83 bd d8 e8 ff ff 01 	cmpl   $0x1,-0x1728(%rbp)
    f263:	7e d9                	jle    f23e <func_44+0x2107>
    f265:	83 ad c4 e8 ff ff 01 	subl   $0x1,-0x173c(%rbp)
    f26c:	83 bd 7c e8 ff ff 00 	cmpl   $0x0,-0x1784(%rbp)
    f273:	0f 85 08 01 00 00    	jne    f381 <func_44+0x224a>
    f279:	8b 85 a4 e8 ff ff    	mov    -0x175c(%rbp),%eax
    f27f:	48 63 d8             	movslq %eax,%rbx
    f282:	48 8b 05 cf 7d 01 00 	mov    0x17dcf(%rip),%rax        # 27058 <g_574>
    f289:	48 8b 00             	mov    (%rax),%rax
    f28c:	0f b7 00             	movzwl (%rax),%eax
    f28f:	44 0f b7 f0          	movzwl %ax,%r14d
    f293:	8b 85 28 ed ff ff    	mov    -0x12d8(%rbp),%eax
    f299:	44 0f bf e0          	movswl %ax,%r12d
    f29d:	8b 85 d0 e8 ff ff    	mov    -0x1730(%rbp),%eax
    f2a3:	44 0f be e8          	movsbl %al,%r13d
    f2a7:	8b 85 a4 e8 ff ff    	mov    -0x175c(%rbp),%eax
    f2ad:	98                   	cwtl   
    f2ae:	be fc f6 ff ff       	mov    $0xfffff6fc,%esi
    f2b3:	89 c7                	mov    %eax,%edi
    f2b5:	e8 9b b1 ff ff       	callq  a455 <safe_div_func_int16_t_s_s>
    f2ba:	0f be c0             	movsbl %al,%eax
    f2bd:	be b0 ff ff ff       	mov    $0xffffffb0,%esi
    f2c2:	89 c7                	mov    %eax,%edi
    f2c4:	e8 68 af ff ff       	callq  a231 <safe_mod_func_int8_t_s_s>
    f2c9:	0f be c0             	movsbl %al,%eax
    f2cc:	44 89 ee             	mov    %r13d,%esi
    f2cf:	89 c7                	mov    %eax,%edi
    f2d1:	e8 5b af ff ff       	callq  a231 <safe_mod_func_int8_t_s_s>
    f2d6:	8b 85 7c e8 ff ff    	mov    -0x1784(%rbp),%eax
    f2dc:	48 c7 c6 ff ff ff ff 	mov    $0xffffffffffffffff,%rsi
    f2e3:	48 89 c7             	mov    %rax,%rdi
    f2e6:	e8 60 bd ff ff       	callq  b04b <safe_sub_func_uint64_t_u_u>
    f2eb:	0f be 85 91 e8 ff ff 	movsbl -0x176f(%rbp),%eax
    f2f2:	44 89 e6             	mov    %r12d,%esi
    f2f5:	89 c7                	mov    %eax,%edi
    f2f7:	e8 b7 b0 ff ff       	callq  a3b3 <safe_add_func_int16_t_s_s>
    f2fc:	0f bf d0             	movswl %ax,%edx
    f2ff:	48 8b 35 3a 45 01 00 	mov    0x1453a(%rip),%rsi        # 23840 <g_1227>
    f306:	48 8b 3d 3b 45 01 00 	mov    0x1453b(%rip),%rdi        # 23848 <g_1227+0x8>
    f30d:	48 8d 05 14 7e 01 00 	lea    0x17e14(%rip),%rax        # 27128 <g_1147+0x8>
    f314:	48 39 85 70 ea ff ff 	cmp    %rax,-0x1590(%rbp)
    f31b:	0f 94 c0             	sete   %al
    f31e:	0f b6 c0             	movzbl %al,%eax
    f321:	89 d6                	mov    %edx,%esi
    f323:	89 c7                	mov    %eax,%edi
    f325:	e8 a9 b0 ff ff       	callq  a3d3 <safe_sub_func_int16_t_s_s>
    f32a:	98                   	cwtl   
    f32b:	44 09 f0             	or     %r14d,%eax
    f32e:	48 98                	cltq   
    f330:	48 89 de             	mov    %rbx,%rsi
    f333:	48 89 c7             	mov    %rax,%rdi
    f336:	e8 06 b5 ff ff       	callq  a841 <safe_add_func_int64_t_s_s>
    f33b:	89 85 d0 e8 ff ff    	mov    %eax,-0x1730(%rbp)
    f341:	0f b7 85 96 e8 ff ff 	movzwl -0x176a(%rbp),%eax
    f348:	8b 95 d0 e8 ff ff    	mov    -0x1730(%rbp),%edx
    f34e:	89 d6                	mov    %edx,%esi
    f350:	89 c7                	mov    %eax,%edi
    f352:	e8 ae b2 ff ff       	callq  a605 <safe_sub_func_int32_t_s_s>
    f357:	85 c0                	test   %eax,%eax
    f359:	0f 95 c0             	setne  %al
    f35c:	0f b6 c0             	movzbl %al,%eax
    f35f:	33 85 7c e8 ff ff    	xor    -0x1784(%rbp),%eax
    f365:	89 c2                	mov    %eax,%edx
    f367:	8b 85 c0 e8 ff ff    	mov    -0x1740(%rbp),%eax
    f36d:	21 d0                	and    %edx,%eax
    f36f:	89 85 c0 e8 ff ff    	mov    %eax,-0x1740(%rbp)
    f375:	8b 85 b4 eb ff ff    	mov    -0x144c(%rbp),%eax
    f37b:	85 c0                	test   %eax,%eax
    f37d:	75 27                	jne    f3a6 <func_44+0x226f>
    f37f:	eb 01                	jmp    f382 <func_44+0x224b>
    f381:	90                   	nop
    f382:	0f b7 05 ef 24 01 00 	movzwl 0x124ef(%rip),%eax        # 21878 <g_393>
    f389:	83 c0 01             	add    $0x1,%eax
    f38c:	66 89 05 e5 24 01 00 	mov    %ax,0x124e5(%rip)        # 21878 <g_393>
    f393:	0f b7 05 de 24 01 00 	movzwl 0x124de(%rip),%eax        # 21878 <g_393>
    f39a:	66 83 f8 09          	cmp    $0x9,%ax
    f39e:	0f 8e 8e fe ff ff    	jle    f232 <func_44+0x20fb>
    f3a4:	eb 01                	jmp    f3a7 <func_44+0x2270>
    f3a6:	90                   	nop
    f3a7:	8b 85 7c e8 ff ff    	mov    -0x1784(%rbp),%eax
    f3ad:	0f b6 d8             	movzbl %al,%ebx
    f3b0:	48 8b 05 b9 7c 01 00 	mov    0x17cb9(%rip),%rax        # 27070 <g_740>
    f3b7:	c7 00 c8 76 33 22    	movl   $0x223376c8,(%rax)
    f3bd:	44 8b 20             	mov    (%rax),%r12d
    f3c0:	48 8d 15 73 0c 01 00 	lea    0x10c73(%rip),%rdx        # 2003a <g_96>
    f3c7:	48 8d 05 6c 0c 01 00 	lea    0x10c6c(%rip),%rax        # 2003a <g_96>
    f3ce:	0f b7 12             	movzwl (%rdx),%edx
    f3d1:	66 89 10             	mov    %dx,(%rax)
    f3d4:	0f b7 00             	movzwl (%rax),%eax
    f3d7:	0f b7 d0             	movzwl %ax,%edx
    f3da:	48 8b 85 30 ea ff ff 	mov    -0x15d0(%rbp),%rax
    f3e1:	48 8b 00             	mov    (%rax),%rax
    f3e4:	0f b7 08             	movzwl (%rax),%ecx
    f3e7:	83 e9 01             	sub    $0x1,%ecx
    f3ea:	66 89 08             	mov    %cx,(%rax)
    f3ed:	0f b7 00             	movzwl (%rax),%eax
    f3f0:	0f b7 c0             	movzwl %ax,%eax
    f3f3:	89 d6                	mov    %edx,%esi
    f3f5:	89 c7                	mov    %eax,%edi
    f3f7:	e8 23 b9 ff ff       	callq  ad1f <safe_sub_func_uint16_t_u_u>
    f3fc:	0f be c0             	movsbl %al,%eax
    f3ff:	89 c6                	mov    %eax,%esi
    f401:	bf 00 00 00 00       	mov    $0x0,%edi
    f406:	e8 07 ae ff ff       	callq  a212 <safe_mul_func_int8_t_s_s>
    f40b:	48 83 bd 78 ea ff ff 	cmpq   $0x0,-0x1588(%rbp)
    f412:	00 
    f413:	0f 95 c0             	setne  %al
    f416:	0f b6 c0             	movzbl %al,%eax
    f419:	be 03 00 00 00       	mov    $0x3,%esi
    f41e:	89 c7                	mov    %eax,%edi
    f420:	e8 e1 b9 ff ff       	callq  ae06 <safe_lshift_func_uint16_t_u_u>
    f425:	0f b7 c0             	movzwl %ax,%eax
    f428:	44 89 e6             	mov    %r12d,%esi
    f42b:	89 c7                	mov    %eax,%edi
    f42d:	e8 84 b1 ff ff       	callq  a5b6 <safe_add_func_int32_t_s_s>
    f432:	0f b6 c0             	movzbl %al,%eax
    f435:	89 de                	mov    %ebx,%esi
    f437:	89 c7                	mov    %eax,%edi
    f439:	e8 9d b7 ff ff       	callq  abdb <safe_div_func_uint8_t_u_u>
    f43e:	89 c2                	mov    %eax,%edx
    f440:	48 8b 85 58 e9 ff ff 	mov    -0x16a8(%rbp),%rax
    f447:	0f b6 d2             	movzbl %dl,%edx
    f44a:	48 89 10             	mov    %rdx,(%rax)
    f44d:	48 8b 00             	mov    (%rax),%rax
    f450:	48 85 c0             	test   %rax,%rax
    f453:	75 08                	jne    f45d <func_44+0x2326>
    f455:	8b 85 98 eb ff ff    	mov    -0x1468(%rbp),%eax
    f45b:	85 c0                	test   %eax,%eax
    f45d:	66 c7 85 70 f0 ff ff 	movw   $0x69fc,-0xf90(%rbp)
    f464:	fc 69 
    f466:	66 c7 85 72 f0 ff ff 	movw   $0x1,-0xf8e(%rbp)
    f46d:	01 00 
    f46f:	66 c7 85 74 f0 ff ff 	movw   $0x69fc,-0xf8c(%rbp)
    f476:	fc 69 
    f478:	66 c7 85 76 f0 ff ff 	movw   $0x1,-0xf8a(%rbp)
    f47f:	01 00 
    f481:	66 c7 85 78 f0 ff ff 	movw   $0x69fc,-0xf88(%rbp)
    f488:	fc 69 
    f48a:	66 c7 85 7a f0 ff ff 	movw   $0x1,-0xf86(%rbp)
    f491:	01 00 
    f493:	66 c7 85 7c f0 ff ff 	movw   $0x69fc,-0xf84(%rbp)
    f49a:	fc 69 
    f49c:	66 c7 85 7e f0 ff ff 	movw   $0x1,-0xf82(%rbp)
    f4a3:	01 00 
    f4a5:	66 c7 85 80 f0 ff ff 	movw   $0x69fc,-0xf80(%rbp)
    f4ac:	fc 69 
    f4ae:	8b 05 98 0b 01 00    	mov    0x10b98(%rip),%eax        # 2004c <g_139>
    f4b4:	85 c0                	test   %eax,%eax
    f4b6:	74 05                	je     f4bd <func_44+0x2386>
    f4b8:	e9 67 fd ff ff       	jmpq   f224 <func_44+0x20ed>
    f4bd:	0f b7 85 7a f0 ff ff 	movzwl -0xf86(%rbp),%eax
    f4c4:	83 c0 01             	add    $0x1,%eax
    f4c7:	66 89 85 7a f0 ff ff 	mov    %ax,-0xf86(%rbp)
    f4ce:	48 8b 85 90 ea ff ff 	mov    -0x1570(%rbp),%rax
    f4d5:	48 89 85 40 ea ff ff 	mov    %rax,-0x15c0(%rbp)
    f4dc:	c7 05 d6 42 01 00 f3 	movl   $0xfffffff3,0x142d6(%rip)        # 237bc <g_1097>
    f4e3:	ff ff ff 
    f4e6:	e9 0e 09 00 00       	jmpq   fdf9 <func_44+0x2cc2>
    f4eb:	48 b8 d6 2d ee 64 46 	movabs $0x4a8cc54664ee2dd6,%rax
    f4f2:	c5 8c 4a 
    f4f5:	48 89 85 88 ea ff ff 	mov    %rax,-0x1578(%rbp)
    f4fc:	48 c7 85 70 f0 ff ff 	movq   $0x0,-0xf90(%rbp)
    f503:	00 00 00 00 
    f507:	48 c7 85 78 f0 ff ff 	movq   $0x0,-0xf88(%rbp)
    f50e:	00 00 00 00 
    f512:	48 c7 85 80 f0 ff ff 	movq   $0x0,-0xf80(%rbp)
    f519:	00 00 00 00 
    f51d:	48 c7 85 88 f0 ff ff 	movq   $0x0,-0xf78(%rbp)
    f524:	00 00 00 00 
    f528:	48 8b 05 29 7b 01 00 	mov    0x17b29(%rip),%rax        # 27058 <g_574>
    f52f:	48 8b 10             	mov    (%rax),%rdx
    f532:	0f b7 02             	movzwl (%rdx),%eax
    f535:	8d 48 01             	lea    0x1(%rax),%ecx
    f538:	66 89 0a             	mov    %cx,(%rdx)
    f53b:	66 85 c0             	test   %ax,%ax
    f53e:	0f 85 a8 00 00 00    	jne    f5ec <func_44+0x24b5>
    f544:	48 8b 85 88 ea ff ff 	mov    -0x1578(%rbp),%rax
    f54b:	89 c3                	mov    %eax,%ebx
    f54d:	8b 85 7c e8 ff ff    	mov    -0x1784(%rbp),%eax
    f553:	0f bf d0             	movswl %ax,%edx
    f556:	48 8b 05 cb 7a 01 00 	mov    0x17acb(%rip),%rax        # 27028 <g_215>
    f55d:	48 8b 08             	mov    (%rax),%rcx
    f560:	48 8b 05 b9 7a 01 00 	mov    0x17ab9(%rip),%rax        # 27020 <g_213>
    f567:	48 39 c1             	cmp    %rax,%rcx
    f56a:	0f 95 c0             	setne  %al
    f56d:	0f b6 c0             	movzbl %al,%eax
    f570:	89 d6                	mov    %edx,%esi
    f572:	89 c7                	mov    %eax,%edi
    f574:	e8 5a ae ff ff       	callq  a3d3 <safe_sub_func_int16_t_s_s>
    f579:	66 85 c0             	test   %ax,%ax
    f57c:	75 0f                	jne    f58d <func_44+0x2456>
    f57e:	48 8b 05 03 7b 01 00 	mov    0x17b03(%rip),%rax        # 27088 <g_956>
    f585:	48 8b 00             	mov    (%rax),%rax
    f588:	48 85 c0             	test   %rax,%rax
    f58b:	74 07                	je     f594 <func_44+0x245d>
    f58d:	b8 01 00 00 00       	mov    $0x1,%eax
    f592:	eb 05                	jmp    f599 <func_44+0x2462>
    f594:	b8 00 00 00 00       	mov    $0x0,%eax
    f599:	89 c2                	mov    %eax,%edx
    f59b:	48 8b 85 68 e9 ff ff 	mov    -0x1698(%rbp),%rax
    f5a2:	66 81 e2 4f c6       	and    $0xc64f,%dx
    f5a7:	66 89 10             	mov    %dx,(%rax)
    f5aa:	0f b7 00             	movzwl (%rax),%eax
    f5ad:	0f b7 c0             	movzwl %ax,%eax
    f5b0:	be 04 00 00 00       	mov    $0x4,%esi
    f5b5:	89 c7                	mov    %eax,%edi
    f5b7:	e8 4a b8 ff ff       	callq  ae06 <safe_lshift_func_uint16_t_u_u>
    f5bc:	48 be e3 67 a2 df a3 	movabs $0x3d1abaa3dfa267e3,%rsi
    f5c3:	ba 1a 3d 
    f5c6:	bf 01 00 00 00       	mov    $0x1,%edi
    f5cb:	e8 df ba ff ff       	callq  b0af <safe_div_func_uint64_t_u_u>
    f5d0:	89 de                	mov    %ebx,%esi
    f5d2:	bf 01 00 00 00       	mov    $0x1,%edi
    f5d7:	e8 59 ad ff ff       	callq  a335 <safe_rshift_func_int8_t_s_s>
    f5dc:	89 c2                	mov    %eax,%edx
    f5de:	48 8b 05 c3 79 01 00 	mov    0x179c3(%rip),%rax        # 26fa8 <g_104>
    f5e5:	66 0f be d2          	movsbw %dl,%dx
    f5e9:	66 89 10             	mov    %dx,(%rax)
    f5ec:	8b 85 7c e8 ff ff    	mov    -0x1784(%rbp),%eax
    f5f2:	48 39 85 88 ea ff ff 	cmp    %rax,-0x1578(%rbp)
    f5f9:	0f 9d c0             	setge  %al
    f5fc:	0f b6 c0             	movzbl %al,%eax
    f5ff:	39 85 7c e8 ff ff    	cmp    %eax,-0x1784(%rbp)
    f605:	0f 92 c0             	setb   %al
    f608:	0f b6 d0             	movzbl %al,%edx
    f60b:	48 8b 85 40 ea ff ff 	mov    -0x15c0(%rbp),%rax
    f612:	89 10                	mov    %edx,(%rax)
    f614:	48 8b 85 40 ea ff ff 	mov    -0x15c0(%rbp),%rax
    f61b:	8b 00                	mov    (%rax),%eax
    f61d:	85 c0                	test   %eax,%eax
    f61f:	74 16                	je     f637 <func_44+0x2500>
    f621:	48 8b 05 80 79 01 00 	mov    0x17980(%rip),%rax        # 26fa8 <g_104>
    f628:	0f b7 00             	movzwl (%rax),%eax
    f62b:	66 85 c0             	test   %ax,%ax
    f62e:	74 07                	je     f637 <func_44+0x2500>
    f630:	ba 01 00 00 00       	mov    $0x1,%edx
    f635:	eb 05                	jmp    f63c <func_44+0x2505>
    f637:	ba 00 00 00 00       	mov    $0x0,%edx
    f63c:	48 8b 85 e8 e9 ff ff 	mov    -0x1618(%rbp),%rax
    f643:	89 10                	mov    %edx,(%rax)
    f645:	48 8b 05 34 0c 01 00 	mov    0x10c34(%rip),%rax        # 20280 <g_223>
    f64c:	66 25 ff 7f          	and    $0x7fff,%ax
    f650:	0f b7 d8             	movzwl %ax,%ebx
    f653:	b8 a3 07 00 00       	mov    $0x7a3,%eax
    f658:	41 89 c5             	mov    %eax,%r13d
    f65b:	48 8b 85 d8 e9 ff ff 	mov    -0x1628(%rbp),%rax
    f662:	48 8b 00             	mov    (%rax),%rax
    f665:	48 85 c0             	test   %rax,%rax
    f668:	0f 94 c0             	sete   %al
    f66b:	44 0f b6 e0          	movzbl %al,%r12d
    f66f:	8b 85 7c e8 ff ff    	mov    -0x1784(%rbp),%eax
    f675:	0f b7 d0             	movzwl %ax,%edx
    f678:	8b 85 7c e8 ff ff    	mov    -0x1784(%rbp),%eax
    f67e:	83 f0 01             	xor    $0x1,%eax
    f681:	0f b7 c0             	movzwl %ax,%eax
    f684:	89 d6                	mov    %edx,%esi
    f686:	89 c7                	mov    %eax,%edi
    f688:	e8 b0 b6 ff ff       	callq  ad3d <safe_mul_func_uint16_t_u_u>
    f68d:	44 21 e0             	and    %r12d,%eax
    f690:	f7 d0                	not    %eax
    f692:	98                   	cwtl   
    f693:	be f7 ff ff ff       	mov    $0xfffffff7,%esi
    f698:	89 c7                	mov    %eax,%edi
    f69a:	e8 77 ad ff ff       	callq  a416 <safe_mod_func_int16_t_s_s>
    f69f:	98                   	cwtl   
    f6a0:	44 21 e8             	and    %r13d,%eax
    f6a3:	3d f6 ff 00 00       	cmp    $0xfff6,%eax
    f6a8:	0f 95 c0             	setne  %al
    f6ab:	0f b6 c0             	movzbl %al,%eax
    f6ae:	39 c3                	cmp    %eax,%ebx
    f6b0:	0f 9e c0             	setle  %al
    f6b3:	0f b6 d0             	movzbl %al,%edx
    f6b6:	48 8b 85 88 ec ff ff 	mov    -0x1378(%rbp),%rax
    f6bd:	48 85 c0             	test   %rax,%rax
    f6c0:	0f 95 c0             	setne  %al
    f6c3:	0f b6 c0             	movzbl %al,%eax
    f6c6:	89 d6                	mov    %edx,%esi
    f6c8:	89 c7                	mov    %eax,%edi
    f6ca:	e8 d2 ab ff ff       	callq  a2a1 <safe_lshift_func_int8_t_s_s>
    f6cf:	0f b6 c0             	movzbl %al,%eax
    f6d2:	be 06 00 00 00       	mov    $0x6,%esi
    f6d7:	89 c7                	mov    %eax,%edi
    f6d9:	e8 e0 b5 ff ff       	callq  acbe <safe_rshift_func_uint8_t_u_u>
    f6de:	0f b6 c0             	movzbl %al,%eax
    f6e1:	33 85 7c e8 ff ff    	xor    -0x1784(%rbp),%eax
    f6e7:	89 c6                	mov    %eax,%esi
    f6e9:	bf 7c 5b 00 00       	mov    $0x5b7c,%edi
    f6ee:	e8 87 b7 ff ff       	callq  ae7a <safe_rshift_func_uint16_t_u_u>
    f6f3:	66 85 c0             	test   %ax,%ax
    f6f6:	74 2d                	je     f725 <func_44+0x25ee>
    f6f8:	c7 85 14 e9 ff ff ff 	movl   $0xffffffff,-0x16ec(%rbp)
    f6ff:	ff ff ff 
    f702:	48 8b 85 a8 ed ff ff 	mov    -0x1258(%rbp),%rax
    f709:	48 83 e8 01          	sub    $0x1,%rax
    f70d:	48 89 85 a8 ed ff ff 	mov    %rax,-0x1258(%rbp)
    f714:	48 8b 05 45 79 01 00 	mov    0x17945(%rip),%rax        # 27060 <g_592>
    f71b:	8b 95 7c e8 ff ff    	mov    -0x1784(%rbp),%edx
    f721:	89 10                	mov    %edx,(%rax)
    f723:	eb 39                	jmp    f75e <func_44+0x2627>
    f725:	c7 85 10 e9 ff ff 00 	movl   $0x0,-0x16f0(%rbp)
    f72c:	00 00 00 
    f72f:	8b 85 a8 e8 ff ff    	mov    -0x1758(%rbp),%eax
    f735:	85 c0                	test   %eax,%eax
    f737:	74 05                	je     f73e <func_44+0x2607>
    f739:	e9 ea fd ff ff       	jmpq   f528 <func_44+0x23f1>
    f73e:	83 ad 10 e9 ff ff 01 	subl   $0x1,-0x16f0(%rbp)
    f745:	48 8b 85 40 ea ff ff 	mov    -0x15c0(%rbp),%rax
    f74c:	8b 00                	mov    (%rax),%eax
    f74e:	0d 25 ca d9 d1       	or     $0xd1d9ca25,%eax
    f753:	89 c2                	mov    %eax,%edx
    f755:	48 8b 85 40 ea ff ff 	mov    -0x15c0(%rbp),%rax
    f75c:	89 10                	mov    %edx,(%rax)
    f75e:	8b 85 b0 e8 ff ff    	mov    -0x1750(%rbp),%eax
    f764:	e9 a2 1b 00 00       	jmpq   1130b <func_44+0x41d4>
    f769:	48 8d 85 f0 f7 ff ff 	lea    -0x810(%rbp),%rax
    f770:	48 05 48 03 00 00    	add    $0x348,%rax
    f776:	48 89 85 98 ea ff ff 	mov    %rax,-0x1568(%rbp)
    f77d:	48 8d 05 fc 78 01 00 	lea    0x178fc(%rip),%rax        # 27080 <g_910>
    f784:	48 89 85 b8 e9 ff ff 	mov    %rax,-0x1648(%rbp)
    f78b:	48 8d 85 b8 e9 ff ff 	lea    -0x1648(%rbp),%rax
    f792:	48 89 85 c0 e9 ff ff 	mov    %rax,-0x1640(%rbp)
    f799:	48 8d 85 c0 e9 ff ff 	lea    -0x1640(%rbp),%rax
    f7a0:	48 89 85 c8 e9 ff ff 	mov    %rax,-0x1638(%rbp)
    f7a7:	48 8d 85 c8 e9 ff ff 	lea    -0x1638(%rbp),%rax
    f7ae:	48 89 85 a0 ea ff ff 	mov    %rax,-0x1560(%rbp)
    f7b5:	66 c7 85 98 e8 ff ff 	movw   $0xfff7,-0x1768(%rbp)
    f7bc:	f7 ff 
    f7be:	c7 85 18 e9 ff ff d9 	movl   $0x9e866fd9,-0x16e8(%rbp)
    f7c5:	6f 86 9e 
    f7c8:	48 8b 85 40 ea ff ff 	mov    -0x15c0(%rbp),%rax
    f7cf:	8b 10                	mov    (%rax),%edx
    f7d1:	48 8b 05 d0 77 01 00 	mov    0x177d0(%rip),%rax        # 26fa8 <g_104>
    f7d8:	0f b7 00             	movzwl (%rax),%eax
    f7db:	89 c1                	mov    %eax,%ecx
    f7dd:	8b 85 7c e8 ff ff    	mov    -0x1784(%rbp),%eax
    f7e3:	09 c1                	or     %eax,%ecx
    f7e5:	48 8b 05 bc 77 01 00 	mov    0x177bc(%rip),%rax        # 26fa8 <g_104>
    f7ec:	66 89 08             	mov    %cx,(%rax)
    f7ef:	0f b7 00             	movzwl (%rax),%eax
    f7f2:	98                   	cwtl   
    f7f3:	39 c2                	cmp    %eax,%edx
    f7f5:	0f 9e c0             	setle  %al
    f7f8:	0f b6 d8             	movzbl %al,%ebx
    f7fb:	be 01 00 00 00       	mov    $0x1,%esi
    f800:	bf fc 00 00 00       	mov    $0xfc,%edi
    f805:	e8 42 b4 ff ff       	callq  ac4c <safe_lshift_func_uint8_t_u_u>
    f80a:	0f b6 c0             	movzbl %al,%eax
    f80d:	f7 d0                	not    %eax
    f80f:	39 c3                	cmp    %eax,%ebx
    f811:	0f 9c c0             	setl   %al
    f814:	0f b6 d8             	movzbl %al,%ebx
    f817:	48 8d 05 f2 04 01 00 	lea    0x104f2(%rip),%rax        # 1fd10 <g_964+0x10>
    f81e:	48 39 85 50 ea ff ff 	cmp    %rax,-0x15b0(%rbp)
    f825:	48 8b 95 98 fb ff ff 	mov    -0x468(%rbp),%rdx
    f82c:	48 8b 85 98 ea ff ff 	mov    -0x1568(%rbp),%rax
    f833:	48 89 10             	mov    %rdx,(%rax)
    f836:	48 8b 85 a0 ea ff ff 	mov    -0x1560(%rbp),%rax
    f83d:	48 c7 00 00 00 00 00 	movq   $0x0,(%rax)
    f844:	ba 00 00 00 00       	mov    $0x0,%edx
    f849:	48 8b 05 38 78 01 00 	mov    0x17838(%rip),%rax        # 27088 <g_956>
    f850:	48 8b 08             	mov    (%rax),%rcx
    f853:	48 63 d2             	movslq %edx,%rdx
    f856:	48 8b 05 2b 78 01 00 	mov    0x1782b(%rip),%rax        # 27088 <g_956>
    f85d:	48 09 ca             	or     %rcx,%rdx
    f860:	48 89 10             	mov    %rdx,(%rax)
    f863:	48 8b 10             	mov    (%rax),%rdx
    f866:	48 8b 85 e8 e9 ff ff 	mov    -0x1618(%rbp),%rax
    f86d:	8b 00                	mov    (%rax),%eax
    f86f:	21 c2                	and    %eax,%edx
    f871:	48 8b 85 e8 e9 ff ff 	mov    -0x1618(%rbp),%rax
    f878:	89 10                	mov    %edx,(%rax)
    f87a:	48 8b 85 e8 e9 ff ff 	mov    -0x1618(%rbp),%rax
    f881:	8b 00                	mov    (%rax),%eax
    f883:	48 98                	cltq   
    f885:	48 8b 95 a8 e9 ff ff 	mov    -0x1658(%rbp),%rdx
    f88c:	48 89 c6             	mov    %rax,%rsi
    f88f:	48 89 d7             	mov    %rdx,%rdi
    f892:	e8 97 b7 ff ff       	callq  b02e <safe_add_func_uint64_t_u_u>
    f897:	98                   	cwtl   
    f898:	be 05 00 00 00       	mov    $0x5,%esi
    f89d:	89 c7                	mov    %eax,%edi
    f89f:	e8 bf ac ff ff       	callq  a563 <safe_rshift_func_int16_t_s_u>
    f8a4:	98                   	cwtl   
    f8a5:	39 c3                	cmp    %eax,%ebx
    f8a7:	0f 9f c0             	setg   %al
    f8aa:	0f b6 c0             	movzbl %al,%eax
    f8ad:	39 85 7c e8 ff ff    	cmp    %eax,-0x1784(%rbp)
    f8b3:	0f 94 c0             	sete   %al
    f8b6:	0f b6 c0             	movzbl %al,%eax
    f8b9:	39 85 7c e8 ff ff    	cmp    %eax,-0x1784(%rbp)
    f8bf:	0f 84 0c 05 00 00    	je     fdd1 <func_44+0x2c9a>
    f8c5:	66 c7 85 92 e8 ff ff 	movw   $0x0,-0x176e(%rbp)
    f8cc:	00 00 
    f8ce:	48 c7 85 b0 ea ff ff 	movq   $0x0,-0x1550(%rbp)
    f8d5:	00 00 00 00 
    f8d9:	48 8d 85 a8 e9 ff ff 	lea    -0x1658(%rbp),%rax
    f8e0:	48 89 85 d0 ec ff ff 	mov    %rax,-0x1330(%rbp)
    f8e7:	48 8d 85 a8 e9 ff ff 	lea    -0x1658(%rbp),%rax
    f8ee:	48 89 85 d8 ec ff ff 	mov    %rax,-0x1328(%rbp)
    f8f5:	48 8d 85 a8 e9 ff ff 	lea    -0x1658(%rbp),%rax
    f8fc:	48 89 85 e0 ec ff ff 	mov    %rax,-0x1320(%rbp)
    f903:	48 8d 85 a8 e9 ff ff 	lea    -0x1658(%rbp),%rax
    f90a:	48 89 85 e8 ec ff ff 	mov    %rax,-0x1318(%rbp)
    f911:	48 8d 85 a8 e9 ff ff 	lea    -0x1658(%rbp),%rax
    f918:	48 89 85 f0 ec ff ff 	mov    %rax,-0x1310(%rbp)
    f91f:	48 8d 85 a8 e9 ff ff 	lea    -0x1658(%rbp),%rax
    f926:	48 89 85 f8 ec ff ff 	mov    %rax,-0x1308(%rbp)
    f92d:	48 8d 85 a8 e9 ff ff 	lea    -0x1658(%rbp),%rax
    f934:	48 89 85 00 ed ff ff 	mov    %rax,-0x1300(%rbp)
    f93b:	48 8d 85 a8 e9 ff ff 	lea    -0x1658(%rbp),%rax
    f942:	48 89 85 08 ed ff ff 	mov    %rax,-0x12f8(%rbp)
    f949:	48 8d 85 a8 e9 ff ff 	lea    -0x1658(%rbp),%rax
    f950:	48 89 85 10 ed ff ff 	mov    %rax,-0x12f0(%rbp)
    f957:	48 8d 85 70 f0 ff ff 	lea    -0xf90(%rbp),%rax
    f95e:	48 8d 15 db b8 00 00 	lea    0xb8db(%rip),%rdx        # 1b240 <g_1979+0xcdc>
    f965:	b9 5a 00 00 00       	mov    $0x5a,%ecx
    f96a:	48 89 c7             	mov    %rax,%rdi
    f96d:	48 89 d6             	mov    %rdx,%rsi
    f970:	f3 48 a5             	rep movsq %ds:(%rsi),%es:(%rdi)
    f973:	c7 85 dc e8 ff ff 00 	movl   $0x0,-0x1724(%rbp)
    f97a:	00 00 00 
    f97d:	eb 1a                	jmp    f999 <func_44+0x2862>
    f97f:	8b 85 dc e8 ff ff    	mov    -0x1724(%rbp),%eax
    f985:	48 98                	cltq   
    f987:	c7 84 85 d0 eb ff ff 	movl   $0xc0e99efb,-0x1430(%rbp,%rax,4)
    f98e:	fb 9e e9 c0 
    f992:	83 85 dc e8 ff ff 01 	addl   $0x1,-0x1724(%rbp)
    f999:	83 bd dc e8 ff ff 05 	cmpl   $0x5,-0x1724(%rbp)
    f9a0:	7e dd                	jle    f97f <func_44+0x2848>
    f9a2:	8b 85 7c e8 ff ff    	mov    -0x1784(%rbp),%eax
    f9a8:	0f b6 d8             	movzbl %al,%ebx
    f9ab:	48 8b 05 d6 76 01 00 	mov    0x176d6(%rip),%rax        # 27088 <g_956>
    f9b2:	4c 8b 20             	mov    (%rax),%r12
    f9b5:	48 8b 85 e8 e9 ff ff 	mov    -0x1618(%rbp),%rax
    f9bc:	8b 00                	mov    (%rax),%eax
    f9be:	83 c8 1a             	or     $0x1a,%eax
    f9c1:	0f b6 d0             	movzbl %al,%edx
    f9c4:	0f b6 05 7b 1b 01 00 	movzbl 0x11b7b(%rip),%eax        # 21546 <g_259+0x6>
    f9cb:	0f b6 c0             	movzbl %al,%eax
    f9ce:	89 d6                	mov    %edx,%esi
    f9d0:	89 c7                	mov    %eax,%edi
    f9d2:	e8 83 b1 ff ff       	callq  ab5a <safe_add_func_uint8_t_u_u>
    f9d7:	84 c0                	test   %al,%al
    f9d9:	0f 84 0d 01 00 00    	je     faec <func_44+0x29b5>
    f9df:	0f b6 05 39 3e 01 00 	movzbl 0x13e39(%rip),%eax        # 2381f <g_1169+0xf>
    f9e6:	c0 e8 07             	shr    $0x7,%al
    f9e9:	0f b6 c0             	movzbl %al,%eax
    f9ec:	0f b7 15 2d 3e 01 00 	movzwl 0x13e2d(%rip),%edx        # 23820 <g_1169+0x10>
    f9f3:	81 e2 ff 3f 00 00    	and    $0x3fff,%edx
    f9f9:	48 01 d2             	add    %rdx,%rdx
    f9fc:	48 09 d0             	or     %rdx,%rax
    f9ff:	44 0f be e8          	movsbl %al,%r13d
    fa03:	be fb ff ff ff       	mov    $0xfffffffb,%esi
    fa08:	bf f7 ff ff ff       	mov    $0xfffffff7,%edi
    fa0d:	e8 e0 a7 ff ff       	callq  a1f2 <safe_sub_func_int8_t_s_s>
    fa12:	0f b6 c0             	movzbl %al,%eax
    fa15:	be 03 00 00 00       	mov    $0x3,%esi
    fa1a:	89 c7                	mov    %eax,%edi
    fa1c:	e8 39 b1 ff ff       	callq  ab5a <safe_add_func_uint8_t_u_u>
    fa21:	0f b6 c0             	movzbl %al,%eax
    fa24:	be 35 06 00 00       	mov    $0x635,%esi
    fa29:	89 c7                	mov    %eax,%edi
    fa2b:	e8 e6 a9 ff ff       	callq  a416 <safe_mod_func_int16_t_s_s>
    fa30:	0f bf d0             	movswl %ax,%edx
    fa33:	8b 85 00 e9 ff ff    	mov    -0x1700(%rbp),%eax
    fa39:	0f be c0             	movsbl %al,%eax
    fa3c:	89 d6                	mov    %edx,%esi
    fa3e:	89 c7                	mov    %eax,%edi
    fa40:	e8 27 a9 ff ff       	callq  a36c <safe_rshift_func_int8_t_s_u>
    fa45:	0f be c0             	movsbl %al,%eax
    fa48:	23 85 7c e8 ff ff    	and    -0x1784(%rbp),%eax
    fa4e:	be ff ff ff ff       	mov    $0xffffffff,%esi
    fa53:	89 c7                	mov    %eax,%edi
    fa55:	e8 cb b4 ff ff       	callq  af25 <safe_div_func_uint32_t_u_u>
    fa5a:	8b 85 7c e8 ff ff    	mov    -0x1784(%rbp),%eax
    fa60:	89 c6                	mov    %eax,%esi
    fa62:	bf 3b 00 00 00       	mov    $0x3b,%edi
    fa67:	e8 e0 b1 ff ff       	callq  ac4c <safe_lshift_func_uint8_t_u_u>
    fa6c:	8b 85 7c e8 ff ff    	mov    -0x1784(%rbp),%eax
    fa72:	66 21 85 92 e8 ff ff 	and    %ax,-0x176e(%rbp)
    fa79:	48 8b 85 e8 e9 ff ff 	mov    -0x1618(%rbp),%rax
    fa80:	8b 00                	mov    (%rax),%eax
    fa82:	0f be c0             	movsbl %al,%eax
    fa85:	44 89 ee             	mov    %r13d,%esi
    fa88:	89 c7                	mov    %eax,%edi
    fa8a:	e8 a2 a7 ff ff       	callq  a231 <safe_mod_func_int8_t_s_s>
    fa8f:	0f b7 95 92 e8 ff ff 	movzwl -0x176e(%rbp),%edx
    fa96:	48 8b 05 0b 75 01 00 	mov    0x1750b(%rip),%rax        # 26fa8 <g_104>
    fa9d:	0f b7 00             	movzwl (%rax),%eax
    faa0:	98                   	cwtl   
    faa1:	39 c2                	cmp    %eax,%edx
    faa3:	0f 9e c0             	setle  %al
    faa6:	0f b6 c0             	movzbl %al,%eax
    faa9:	be 27 30 b6 70       	mov    $0x70b63027,%esi
    faae:	89 c7                	mov    %eax,%edi
    fab0:	e8 50 ab ff ff       	callq  a605 <safe_sub_func_int32_t_s_s>
    fab5:	83 f8 06             	cmp    $0x6,%eax
    fab8:	0f 9e c0             	setle  %al
    fabb:	0f b6 c0             	movzbl %al,%eax
    fabe:	48 c7 c6 ff ff ff ff 	mov    $0xffffffffffffffff,%rsi
    fac5:	48 89 c7             	mov    %rax,%rdi
    fac8:	e8 74 ad ff ff       	callq  a841 <safe_add_func_int64_t_s_s>
    facd:	89 c2                	mov    %eax,%edx
    facf:	48 8b 85 40 ea ff ff 	mov    -0x15c0(%rbp),%rax
    fad6:	89 10                	mov    %edx,(%rax)
    fad8:	48 8b 85 40 ea ff ff 	mov    -0x15c0(%rbp),%rax
    fadf:	8b 00                	mov    (%rax),%eax
    fae1:	85 c0                	test   %eax,%eax
    fae3:	74 07                	je     faec <func_44+0x29b5>
    fae5:	ba 01 00 00 00       	mov    $0x1,%edx
    faea:	eb 05                	jmp    faf1 <func_44+0x29ba>
    faec:	ba 00 00 00 00       	mov    $0x0,%edx
    faf1:	48 8b 05 b0 74 01 00 	mov    0x174b0(%rip),%rax        # 26fa8 <g_104>
    faf8:	0f b7 00             	movzwl (%rax),%eax
    fafb:	98                   	cwtl   
    fafc:	39 c2                	cmp    %eax,%edx
    fafe:	7e 07                	jle    fb07 <func_44+0x29d0>
    fb00:	b8 01 00 00 00       	mov    $0x1,%eax
    fb05:	eb 05                	jmp    fb0c <func_44+0x29d5>
    fb07:	b8 00 00 00 00       	mov    $0x0,%eax
    fb0c:	89 c2                	mov    %eax,%edx
    fb0e:	8b 05 38 22 01 00    	mov    0x12238(%rip),%eax        # 21d4c <g_806+0xc>
    fb14:	01 c0                	add    %eax,%eax
    fb16:	d1 f8                	sar    %eax
    fb18:	21 d0                	and    %edx,%eax
    fb1a:	0f b6 c0             	movzbl %al,%eax
    fb1d:	be c7 00 00 00       	mov    $0xc7,%esi
    fb22:	89 c7                	mov    %eax,%edi
    fb24:	e8 b2 b0 ff ff       	callq  abdb <safe_div_func_uint8_t_u_u>
    fb29:	0f b6 c0             	movzbl %al,%eax
    fb2c:	33 85 7c e8 ff ff    	xor    -0x1784(%rbp),%eax
    fb32:	89 c0                	mov    %eax,%eax
    fb34:	4c 89 e6             	mov    %r12,%rsi
    fb37:	48 89 c7             	mov    %rax,%rdi
    fb3a:	e8 b8 ae ff ff       	callq  a9f7 <safe_div_func_int64_t_s_s>
    fb3f:	48 89 c2             	mov    %rax,%rdx
    fb42:	8b 8d 7c e8 ff ff    	mov    -0x1784(%rbp),%ecx
    fb48:	48 8b 05 39 75 01 00 	mov    0x17539(%rip),%rax        # 27088 <g_956>
    fb4f:	48 09 ca             	or     %rcx,%rdx
    fb52:	48 89 10             	mov    %rdx,(%rax)
    fb55:	83 bd 7c e8 ff ff 00 	cmpl   $0x0,-0x1784(%rbp)
    fb5c:	0f 95 c0             	setne  %al
    fb5f:	0f b6 c0             	movzbl %al,%eax
    fb62:	48 89 c7             	mov    %rax,%rdi
    fb65:	e8 af b4 ff ff       	callq  b019 <safe_unary_minus_func_uint64_t_u>
    fb6a:	8b 95 d4 eb ff ff    	mov    -0x142c(%rbp),%edx
    fb70:	21 d0                	and    %edx,%eax
    fb72:	89 85 d4 eb ff ff    	mov    %eax,-0x142c(%rbp)
    fb78:	8b 85 d4 eb ff ff    	mov    -0x142c(%rbp),%eax
    fb7e:	8b 15 3c 1a 01 00    	mov    0x11a3c(%rip),%edx        # 215c0 <g_298+0x10>
    fb84:	81 e2 ff ff 3f 00    	and    $0x3fffff,%edx
    fb8a:	39 d0                	cmp    %edx,%eax
    fb8c:	0f 9d c2             	setge  %dl
    fb8f:	48 8b 05 12 74 01 00 	mov    0x17412(%rip),%rax        # 26fa8 <g_104>
    fb96:	0f b6 d2             	movzbl %dl,%edx
    fb99:	66 89 10             	mov    %dx,(%rax)
    fb9c:	8b 85 7c e8 ff ff    	mov    -0x1784(%rbp),%eax
    fba2:	89 c6                	mov    %eax,%esi
    fba4:	bf 01 00 00 00       	mov    $0x1,%edi
    fba9:	e8 22 b3 ff ff       	callq  aed0 <safe_sub_func_uint32_t_u_u>
    fbae:	0f b6 c0             	movzbl %al,%eax
    fbb1:	be 06 00 00 00       	mov    $0x6,%esi
    fbb6:	89 c7                	mov    %eax,%edi
    fbb8:	e8 d6 af ff ff       	callq  ab93 <safe_mul_func_uint8_t_u_u>
    fbbd:	0f b6 c0             	movzbl %al,%eax
    fbc0:	39 85 7c e8 ff ff    	cmp    %eax,-0x1784(%rbp)
    fbc6:	0f 93 c0             	setae  %al
    fbc9:	89 c2                	mov    %eax,%edx
    fbcb:	8b 85 7c e8 ff ff    	mov    -0x1784(%rbp),%eax
    fbd1:	21 d0                	and    %edx,%eax
    fbd3:	0f b6 c0             	movzbl %al,%eax
    fbd6:	be 05 00 00 00       	mov    $0x5,%esi
    fbdb:	89 c7                	mov    %eax,%edi
    fbdd:	e8 23 b0 ff ff       	callq  ac05 <safe_lshift_func_uint8_t_u_s>
    fbe2:	48 8b 85 e8 e9 ff ff 	mov    -0x1618(%rbp),%rax
    fbe9:	8b 00                	mov    (%rax),%eax
    fbeb:	89 c2                	mov    %eax,%edx
    fbed:	48 8b 05 8c 06 01 00 	mov    0x1068c(%rip),%rax        # 20280 <g_223>
    fbf4:	48 c1 e8 0f          	shr    $0xf,%rax
    fbf8:	66 25 ff 03          	and    $0x3ff,%ax
    fbfc:	09 d0                	or     %edx,%eax
    fbfe:	0f b6 c0             	movzbl %al,%eax
    fc01:	89 de                	mov    %ebx,%esi
    fc03:	89 c7                	mov    %eax,%edi
    fc05:	e8 d1 af ff ff       	callq  abdb <safe_div_func_uint8_t_u_u>
    fc0a:	48 8b 85 e8 e9 ff ff 	mov    -0x1618(%rbp),%rax
    fc11:	c7 00 fa 9b f1 9d    	movl   $0x9df19bfa,(%rax)
    fc17:	48 8b 85 40 ea ff ff 	mov    -0x15c0(%rbp),%rax
    fc1e:	8b 00                	mov    (%rax),%eax
    fc20:	0f b7 d8             	movzwl %ax,%ebx
    fc23:	48 8b 85 40 ea ff ff 	mov    -0x15c0(%rbp),%rax
    fc2a:	8b 00                	mov    (%rax),%eax
    fc2c:	4c 63 e0             	movslq %eax,%r12
    fc2f:	48 8b 85 40 ea ff ff 	mov    -0x15c0(%rbp),%rax
    fc36:	44 8b 28             	mov    (%rax),%r13d
    fc39:	48 8b 05 48 74 01 00 	mov    0x17448(%rip),%rax        # 27088 <g_956>
    fc40:	48 8b 00             	mov    (%rax),%rax
    fc43:	89 c2                	mov    %eax,%edx
    fc45:	8b 05 05 3c 01 00    	mov    0x13c05(%rip),%eax        # 23850 <g_1383>
    fc4b:	21 d0                	and    %edx,%eax
    fc4d:	89 05 fd 3b 01 00    	mov    %eax,0x13bfd(%rip)        # 23850 <g_1383>
    fc53:	48 8d 05 e0 03 01 00 	lea    0x103e0(%rip),%rax        # 2003a <g_96>
    fc5a:	0f b7 00             	movzwl (%rax),%eax
    fc5d:	0f b7 d0             	movzwl %ax,%edx
    fc60:	0f bf 85 98 e8 ff ff 	movswl -0x1768(%rbp),%eax
    fc67:	39 85 7c e8 ff ff    	cmp    %eax,-0x1784(%rbp)
    fc6d:	0f 96 c0             	setbe  %al
    fc70:	0f b6 c0             	movzbl %al,%eax
    fc73:	89 d6                	mov    %edx,%esi
    fc75:	89 c7                	mov    %eax,%edi
    fc77:	e8 c1 b0 ff ff       	callq  ad3d <safe_mul_func_uint16_t_u_u>
    fc7c:	98                   	cwtl   
    fc7d:	be 86 fb ff ff       	mov    $0xfffffb86,%esi
    fc82:	89 c7                	mov    %eax,%edi
    fc84:	e8 8d a7 ff ff       	callq  a416 <safe_mod_func_int16_t_s_s>
    fc89:	48 8b 05 40 3b 01 00 	mov    0x13b40(%rip),%rax        # 237d0 <g_1156>
    fc90:	48 c1 e0 09          	shl    $0x9,%rax
    fc94:	48 c1 f8 28          	sar    $0x28,%rax
    fc98:	89 c2                	mov    %eax,%edx
    fc9a:	48 8b 85 40 ea ff ff 	mov    -0x15c0(%rbp),%rax
    fca1:	8b 00                	mov    (%rax),%eax
    fca3:	39 c2                	cmp    %eax,%edx
    fca5:	0f 9f c0             	setg   %al
    fca8:	0f b6 d0             	movzbl %al,%edx
    fcab:	0f b7 05 a2 3b 01 00 	movzwl 0x13ba2(%rip),%eax        # 23854 <g_1389>
    fcb2:	98                   	cwtl   
    fcb3:	39 c2                	cmp    %eax,%edx
    fcb5:	0f 9f c0             	setg   %al
    fcb8:	0f b6 c0             	movzbl %al,%eax
    fcbb:	89 c6                	mov    %eax,%esi
    fcbd:	bf ff ff ff ff       	mov    $0xffffffff,%edi
    fcc2:	e8 0c a7 ff ff       	callq  a3d3 <safe_sub_func_int16_t_s_s>
    fcc7:	89 c2                	mov    %eax,%edx
    fcc9:	48 8b 85 30 ea ff ff 	mov    -0x15d0(%rbp),%rax
    fcd0:	48 8b 00             	mov    (%rax),%rax
    fcd3:	66 89 10             	mov    %dx,(%rax)
    fcd6:	48 8d 05 5d 03 01 00 	lea    0x1035d(%rip),%rax        # 2003a <g_96>
    fcdd:	0f b7 00             	movzwl (%rax),%eax
    fce0:	0f b7 c0             	movzwl %ax,%eax
    fce3:	be 0c 00 00 00       	mov    $0xc,%esi
    fce8:	89 c7                	mov    %eax,%edi
    fcea:	e8 59 b1 ff ff       	callq  ae48 <safe_rshift_func_uint16_t_u_s>
    fcef:	0f b7 c0             	movzwl %ax,%eax
    fcf2:	be 01 00 00 00       	mov    $0x1,%esi
    fcf7:	89 c7                	mov    %eax,%edi
    fcf9:	e8 44 a9 ff ff       	callq  a642 <safe_mul_func_int32_t_s_s>
    fcfe:	44 89 ee             	mov    %r13d,%esi
    fd01:	89 c7                	mov    %eax,%edi
    fd03:	e8 f7 a9 ff ff       	callq  a6ff <safe_div_func_int32_t_s_s>
    fd08:	0f b6 c0             	movzbl %al,%eax
    fd0b:	89 c6                	mov    %eax,%esi
    fd0d:	bf ff 00 00 00       	mov    $0xff,%edi
    fd12:	e8 c4 ae ff ff       	callq  abdb <safe_div_func_uint8_t_u_u>
    fd17:	0f b6 c0             	movzbl %al,%eax
    fd1a:	4c 89 e6             	mov    %r12,%rsi
    fd1d:	48 89 c7             	mov    %rax,%rdi
    fd20:	e8 d2 ac ff ff       	callq  a9f7 <safe_div_func_int64_t_s_s>
    fd25:	89 c2                	mov    %eax,%edx
    fd27:	48 8b 85 b8 f0 ff ff 	mov    -0xf48(%rbp),%rax
    fd2e:	31 c2                	xor    %eax,%edx
    fd30:	48 8b 85 40 ea ff ff 	mov    -0x15c0(%rbp),%rax
    fd37:	8b 00                	mov    (%rax),%eax
    fd39:	09 d0                	or     %edx,%eax
    fd3b:	66 23 85 92 e8 ff ff 	and    -0x176e(%rbp),%ax
    fd42:	0f b7 c0             	movzwl %ax,%eax
    fd45:	89 de                	mov    %ebx,%esi
    fd47:	89 c7                	mov    %eax,%edi
    fd49:	e8 0e b0 ff ff       	callq  ad5c <safe_mod_func_uint16_t_u_u>
    fd4e:	48 8b 95 e8 e9 ff ff 	mov    -0x1618(%rbp),%rdx
    fd55:	8b 12                	mov    (%rdx),%edx
    fd57:	0f b7 c0             	movzwl %ax,%eax
    fd5a:	09 c2                	or     %eax,%edx
    fd5c:	48 8b 85 e8 e9 ff ff 	mov    -0x1618(%rbp),%rax
    fd63:	89 10                	mov    %edx,(%rax)
    fd65:	8b 85 d4 eb ff ff    	mov    -0x142c(%rbp),%eax
    fd6b:	0f be c0             	movsbl %al,%eax
    fd6e:	be 06 00 00 00       	mov    $0x6,%esi
    fd73:	89 c7                	mov    %eax,%edi
    fd75:	e8 bb a5 ff ff       	callq  a335 <safe_rshift_func_int8_t_s_s>
    fd7a:	0f be c0             	movsbl %al,%eax
    fd7d:	39 85 7c e8 ff ff    	cmp    %eax,-0x1784(%rbp)
    fd83:	0f 96 c0             	setbe  %al
    fd86:	0f b6 c0             	movzbl %al,%eax
    fd89:	be 0f 00 00 00       	mov    $0xf,%esi
    fd8e:	89 c7                	mov    %eax,%edi
    fd90:	e8 4c a7 ff ff       	callq  a4e1 <safe_lshift_func_int16_t_s_u>
    fd95:	89 c2                	mov    %eax,%edx
    fd97:	48 8b 05 ea 72 01 00 	mov    0x172ea(%rip),%rax        # 27088 <g_956>
    fd9e:	48 0f bf d2          	movswq %dx,%rdx
    fda2:	48 89 10             	mov    %rdx,(%rax)
    fda5:	48 8b 00             	mov    (%rax),%rax
    fda8:	89 c2                	mov    %eax,%edx
    fdaa:	8b 85 7c e8 ff ff    	mov    -0x1784(%rbp),%eax
    fdb0:	31 d0                	xor    %edx,%eax
    fdb2:	0f b6 c0             	movzbl %al,%eax
    fdb5:	be 01 00 00 00       	mov    $0x1,%esi
    fdba:	89 c7                	mov    %eax,%edi
    fdbc:	e8 fd ae ff ff       	callq  acbe <safe_rshift_func_uint8_t_u_u>
    fdc1:	89 c2                	mov    %eax,%edx
    fdc3:	48 8b 05 96 72 01 00 	mov    0x17296(%rip),%rax        # 27060 <g_592>
    fdca:	0f b6 d2             	movzbl %dl,%edx
    fdcd:	89 10                	mov    %edx,(%rax)
    fdcf:	eb 19                	jmp    fdea <func_44+0x2cb3>
    fdd1:	48 b8 1d a1 12 01 65 	movabs $0xd1e21f650112a11d,%rax
    fdd8:	1f e2 d1 
    fddb:	48 89 85 a8 ea ff ff 	mov    %rax,-0x1558(%rbp)
    fde2:	48 83 85 a8 ea ff ff 	addq   $0x1,-0x1558(%rbp)
    fde9:	01 
    fdea:	8b 05 cc 39 01 00    	mov    0x139cc(%rip),%eax        # 237bc <g_1097>
    fdf0:	83 c0 01             	add    $0x1,%eax
    fdf3:	89 05 c3 39 01 00    	mov    %eax,0x139c3(%rip)        # 237bc <g_1097>
    fdf9:	8b 05 bd 39 01 00    	mov    0x139bd(%rip),%eax        # 237bc <g_1097>
    fdff:	83 f8 f3             	cmp    $0xfffffff3,%eax
    fe02:	0f 85 61 f9 ff ff    	jne    f769 <func_44+0x2632>
    fe08:	e9 e5 00 00 00       	jmpq   fef2 <func_44+0x2dbb>
    fe0d:	48 8d 85 c0 ed ff ff 	lea    -0x1240(%rbp),%rax
    fe14:	48 83 c0 28          	add    $0x28,%rax
    fe18:	48 89 85 58 ea ff ff 	mov    %rax,-0x15a8(%rbp)
    fe1f:	c7 05 87 1e 01 00 00 	movl   $0x0,0x11e87(%rip)        # 21cb0 <g_637>
    fe26:	00 00 00 
    fe29:	eb 37                	jmp    fe62 <func_44+0x2d2b>
    fe2b:	48 8d 05 56 73 01 00 	lea    0x17356(%rip),%rax        # 27188 <g_1397>
    fe32:	48 89 85 68 ea ff ff 	mov    %rax,-0x1598(%rbp)
    fe39:	48 8b 15 48 73 01 00 	mov    0x17348(%rip),%rdx        # 27188 <g_1397>
    fe40:	48 8b 85 68 ea ff ff 	mov    -0x1598(%rbp),%rax
    fe47:	48 89 10             	mov    %rdx,(%rax)
    fe4a:	8b 05 60 1e 01 00    	mov    0x11e60(%rip),%eax        # 21cb0 <g_637>
    fe50:	be 01 00 00 00       	mov    $0x1,%esi
    fe55:	89 c7                	mov    %eax,%edi
    fe57:	e8 5a a7 ff ff       	callq  a5b6 <safe_add_func_int32_t_s_s>
    fe5c:	89 05 4e 1e 01 00    	mov    %eax,0x11e4e(%rip)        # 21cb0 <g_637>
    fe62:	8b 05 48 1e 01 00    	mov    0x11e48(%rip),%eax        # 21cb0 <g_637>
    fe68:	83 f8 03             	cmp    $0x3,%eax
    fe6b:	74 be                	je     fe2b <func_44+0x2cf4>
    fe6d:	c6 05 d6 01 01 00 09 	movb   $0x9,0x101d6(%rip)        # 2004a <g_111>
    fe74:	eb 66                	jmp    fedc <func_44+0x2da5>
    fe76:	48 c7 85 60 ea ff ff 	movq   $0x0,-0x15a0(%rbp)
    fe7d:	00 00 00 00 
    fe81:	48 8d 85 bc e8 ff ff 	lea    -0x1744(%rbp),%rax
    fe88:	48 89 85 e8 e9 ff ff 	mov    %rax,-0x1618(%rbp)
    fe8f:	48 8b 05 82 72 01 00 	mov    0x17282(%rip),%rax        # 27118 <g_1140>
    fe96:	48 8b 95 e8 e9 ff ff 	mov    -0x1618(%rbp),%rdx
    fe9d:	48 89 10             	mov    %rdx,(%rax)
    fea0:	48 8b 00             	mov    (%rax),%rax
    fea3:	48 89 85 40 ea ff ff 	mov    %rax,-0x15c0(%rbp)
    feaa:	48 8b 05 3f 73 01 00 	mov    0x1733f(%rip),%rax        # 271f0 <g_1405>
    feb1:	48 8b 15 30 73 01 00 	mov    0x17330(%rip),%rdx        # 271e8 <g_1403>
    feb8:	48 89 10             	mov    %rdx,(%rax)
    febb:	48 8b 05 96 73 01 00 	mov    0x17396(%rip),%rax        # 27258 <g_1409>
    fec2:	48 8b 95 58 ea ff ff 	mov    -0x15a8(%rbp),%rdx
    fec9:	48 89 10             	mov    %rdx,(%rax)
    fecc:	0f b6 05 77 01 01 00 	movzbl 0x10177(%rip),%eax        # 2004a <g_111>
    fed3:	83 e8 01             	sub    $0x1,%eax
    fed6:	88 05 6e 01 01 00    	mov    %al,0x1016e(%rip)        # 2004a <g_111>
    fedc:	0f b6 05 67 01 01 00 	movzbl 0x10167(%rip),%eax        # 2004a <g_111>
    fee3:	3c 02                	cmp    $0x2,%al
    fee5:	75 8f                	jne    fe76 <func_44+0x2d3f>
    fee7:	8b 85 0c ec ff ff    	mov    -0x13f4(%rbp),%eax
    feed:	e9 19 14 00 00       	jmpq   1130b <func_44+0x41d4>
    fef2:	c6 85 90 e8 ff ff 00 	movb   $0x0,-0x1770(%rbp)
    fef9:	eb 31                	jmp    ff2c <func_44+0x2df5>
    fefb:	48 b8 fa a1 0c 1e 2a 	movabs $0xd3e32b2a1e0ca1fa,%rax
    ff02:	2b e3 d3 
    ff05:	48 89 85 90 eb ff ff 	mov    %rax,-0x1470(%rbp)
    ff0c:	48 8b 05 4d 71 01 00 	mov    0x1714d(%rip),%rax        # 27060 <g_592>
    ff13:	48 8b 95 90 eb ff ff 	mov    -0x1470(%rbp),%rdx
    ff1a:	89 10                	mov    %edx,(%rax)
    ff1c:	0f b6 85 90 e8 ff ff 	movzbl -0x1770(%rbp),%eax
    ff23:	83 e8 01             	sub    $0x1,%eax
    ff26:	88 85 90 e8 ff ff    	mov    %al,-0x1770(%rbp)
    ff2c:	80 bd 90 e8 ff ff e2 	cmpb   $0xe2,-0x1770(%rbp)
    ff33:	7d c6                	jge    fefb <func_44+0x2dc4>
    ff35:	e9 2b 08 00 00       	jmpq   10765 <func_44+0x362e>
    ff3a:	66 c7 85 94 e8 ff ff 	movw   $0x2966,-0x176c(%rbp)
    ff41:	66 29 
    ff43:	48 c7 85 f0 f7 ff ff 	movq   $0x0,-0x810(%rbp)
    ff4a:	00 00 00 00 
    ff4e:	48 8d 85 50 e9 ff ff 	lea    -0x16b0(%rbp),%rax
    ff55:	48 89 85 f8 f7 ff ff 	mov    %rax,-0x808(%rbp)
    ff5c:	48 8d 85 50 e9 ff ff 	lea    -0x16b0(%rbp),%rax
    ff63:	48 89 85 00 f8 ff ff 	mov    %rax,-0x800(%rbp)
    ff6a:	48 8d 85 50 e9 ff ff 	lea    -0x16b0(%rbp),%rax
    ff71:	48 89 85 08 f8 ff ff 	mov    %rax,-0x7f8(%rbp)
    ff78:	48 c7 85 10 f8 ff ff 	movq   $0x0,-0x7f0(%rbp)
    ff7f:	00 00 00 00 
    ff83:	48 8d 85 50 e9 ff ff 	lea    -0x16b0(%rbp),%rax
    ff8a:	48 89 85 18 f8 ff ff 	mov    %rax,-0x7e8(%rbp)
    ff91:	48 8d 85 50 e9 ff ff 	lea    -0x16b0(%rbp),%rax
    ff98:	48 89 85 20 f8 ff ff 	mov    %rax,-0x7e0(%rbp)
    ff9f:	48 8d 85 50 e9 ff ff 	lea    -0x16b0(%rbp),%rax
    ffa6:	48 89 85 28 f8 ff ff 	mov    %rax,-0x7d8(%rbp)
    ffad:	48 8d 85 50 e9 ff ff 	lea    -0x16b0(%rbp),%rax
    ffb4:	48 89 85 30 f8 ff ff 	mov    %rax,-0x7d0(%rbp)
    ffbb:	48 8d 85 50 e9 ff ff 	lea    -0x16b0(%rbp),%rax
    ffc2:	48 89 85 38 f8 ff ff 	mov    %rax,-0x7c8(%rbp)
    ffc9:	48 8d 85 50 e9 ff ff 	lea    -0x16b0(%rbp),%rax
    ffd0:	48 89 85 40 f8 ff ff 	mov    %rax,-0x7c0(%rbp)
    ffd7:	48 8d 85 50 e9 ff ff 	lea    -0x16b0(%rbp),%rax
    ffde:	48 89 85 48 f8 ff ff 	mov    %rax,-0x7b8(%rbp)
    ffe5:	48 8d 85 50 e9 ff ff 	lea    -0x16b0(%rbp),%rax
    ffec:	48 89 85 50 f8 ff ff 	mov    %rax,-0x7b0(%rbp)
    fff3:	48 c7 85 58 f8 ff ff 	movq   $0x0,-0x7a8(%rbp)
    fffa:	00 00 00 00 
    fffe:	48 8d 85 50 e9 ff ff 	lea    -0x16b0(%rbp),%rax
   10005:	48 89 85 60 f8 ff ff 	mov    %rax,-0x7a0(%rbp)
   1000c:	48 8d 85 50 e9 ff ff 	lea    -0x16b0(%rbp),%rax
   10013:	48 89 85 68 f8 ff ff 	mov    %rax,-0x798(%rbp)
   1001a:	48 c7 85 70 f8 ff ff 	movq   $0x0,-0x790(%rbp)
   10021:	00 00 00 00 
   10025:	48 8d 85 50 e9 ff ff 	lea    -0x16b0(%rbp),%rax
   1002c:	48 89 85 78 f8 ff ff 	mov    %rax,-0x788(%rbp)
   10033:	48 8d 85 50 e9 ff ff 	lea    -0x16b0(%rbp),%rax
   1003a:	48 89 85 80 f8 ff ff 	mov    %rax,-0x780(%rbp)
   10041:	48 8d 85 50 e9 ff ff 	lea    -0x16b0(%rbp),%rax
   10048:	48 89 85 88 f8 ff ff 	mov    %rax,-0x778(%rbp)
   1004f:	48 8d 85 50 e9 ff ff 	lea    -0x16b0(%rbp),%rax
   10056:	48 89 85 90 f8 ff ff 	mov    %rax,-0x770(%rbp)
   1005d:	48 c7 85 98 f8 ff ff 	movq   $0x0,-0x768(%rbp)
   10064:	00 00 00 00 
   10068:	48 8d 85 50 e9 ff ff 	lea    -0x16b0(%rbp),%rax
   1006f:	48 89 85 a0 f8 ff ff 	mov    %rax,-0x760(%rbp)
   10076:	48 8d 85 50 e9 ff ff 	lea    -0x16b0(%rbp),%rax
   1007d:	48 89 85 a8 f8 ff ff 	mov    %rax,-0x758(%rbp)
   10084:	48 c7 85 b0 f8 ff ff 	movq   $0x0,-0x750(%rbp)
   1008b:	00 00 00 00 
   1008f:	48 8d 85 50 e9 ff ff 	lea    -0x16b0(%rbp),%rax
   10096:	48 89 85 b8 f8 ff ff 	mov    %rax,-0x748(%rbp)
   1009d:	48 8d 85 50 e9 ff ff 	lea    -0x16b0(%rbp),%rax
   100a4:	48 89 85 c0 f8 ff ff 	mov    %rax,-0x740(%rbp)
   100ab:	48 8d 85 50 e9 ff ff 	lea    -0x16b0(%rbp),%rax
   100b2:	48 89 85 c8 f8 ff ff 	mov    %rax,-0x738(%rbp)
   100b9:	48 8d 85 50 e9 ff ff 	lea    -0x16b0(%rbp),%rax
   100c0:	48 89 85 d0 f8 ff ff 	mov    %rax,-0x730(%rbp)
   100c7:	48 8d 85 50 e9 ff ff 	lea    -0x16b0(%rbp),%rax
   100ce:	48 89 85 d8 f8 ff ff 	mov    %rax,-0x728(%rbp)
   100d5:	48 8d 85 50 e9 ff ff 	lea    -0x16b0(%rbp),%rax
   100dc:	48 89 85 e0 f8 ff ff 	mov    %rax,-0x720(%rbp)
   100e3:	48 c7 85 e8 f8 ff ff 	movq   $0x0,-0x718(%rbp)
   100ea:	00 00 00 00 
   100ee:	48 8d 85 50 e9 ff ff 	lea    -0x16b0(%rbp),%rax
   100f5:	48 89 85 f0 f8 ff ff 	mov    %rax,-0x710(%rbp)
   100fc:	48 8d 85 50 e9 ff ff 	lea    -0x16b0(%rbp),%rax
   10103:	48 89 85 f8 f8 ff ff 	mov    %rax,-0x708(%rbp)
   1010a:	48 8d 85 50 e9 ff ff 	lea    -0x16b0(%rbp),%rax
   10111:	48 89 85 00 f9 ff ff 	mov    %rax,-0x700(%rbp)
   10118:	48 8d 85 50 e9 ff ff 	lea    -0x16b0(%rbp),%rax
   1011f:	48 89 85 08 f9 ff ff 	mov    %rax,-0x6f8(%rbp)
   10126:	48 8d 85 50 e9 ff ff 	lea    -0x16b0(%rbp),%rax
   1012d:	48 89 85 10 f9 ff ff 	mov    %rax,-0x6f0(%rbp)
   10134:	48 8d 85 50 e9 ff ff 	lea    -0x16b0(%rbp),%rax
   1013b:	48 89 85 18 f9 ff ff 	mov    %rax,-0x6e8(%rbp)
   10142:	48 8d 85 50 e9 ff ff 	lea    -0x16b0(%rbp),%rax
   10149:	48 89 85 20 f9 ff ff 	mov    %rax,-0x6e0(%rbp)
   10150:	48 8d 85 50 e9 ff ff 	lea    -0x16b0(%rbp),%rax
   10157:	48 89 85 28 f9 ff ff 	mov    %rax,-0x6d8(%rbp)
   1015e:	48 8d 85 50 e9 ff ff 	lea    -0x16b0(%rbp),%rax
   10165:	48 89 85 30 f9 ff ff 	mov    %rax,-0x6d0(%rbp)
   1016c:	48 8d 85 50 e9 ff ff 	lea    -0x16b0(%rbp),%rax
   10173:	48 89 85 38 f9 ff ff 	mov    %rax,-0x6c8(%rbp)
   1017a:	48 8d 85 50 e9 ff ff 	lea    -0x16b0(%rbp),%rax
   10181:	48 89 85 40 f9 ff ff 	mov    %rax,-0x6c0(%rbp)
   10188:	48 8d 85 50 e9 ff ff 	lea    -0x16b0(%rbp),%rax
   1018f:	48 89 85 48 f9 ff ff 	mov    %rax,-0x6b8(%rbp)
   10196:	48 8d 85 50 e9 ff ff 	lea    -0x16b0(%rbp),%rax
   1019d:	48 89 85 50 f9 ff ff 	mov    %rax,-0x6b0(%rbp)
   101a4:	48 8d 85 50 e9 ff ff 	lea    -0x16b0(%rbp),%rax
   101ab:	48 89 85 58 f9 ff ff 	mov    %rax,-0x6a8(%rbp)
   101b2:	48 8d 85 50 e9 ff ff 	lea    -0x16b0(%rbp),%rax
   101b9:	48 89 85 60 f9 ff ff 	mov    %rax,-0x6a0(%rbp)
   101c0:	48 8d 85 50 e9 ff ff 	lea    -0x16b0(%rbp),%rax
   101c7:	48 89 85 68 f9 ff ff 	mov    %rax,-0x698(%rbp)
   101ce:	48 8d 85 50 e9 ff ff 	lea    -0x16b0(%rbp),%rax
   101d5:	48 89 85 70 f9 ff ff 	mov    %rax,-0x690(%rbp)
   101dc:	48 8d 85 50 e9 ff ff 	lea    -0x16b0(%rbp),%rax
   101e3:	48 89 85 78 f9 ff ff 	mov    %rax,-0x688(%rbp)
   101ea:	48 8d 85 50 e9 ff ff 	lea    -0x16b0(%rbp),%rax
   101f1:	48 89 85 80 f9 ff ff 	mov    %rax,-0x680(%rbp)
   101f8:	48 8d 85 50 e9 ff ff 	lea    -0x16b0(%rbp),%rax
   101ff:	48 89 85 88 f9 ff ff 	mov    %rax,-0x678(%rbp)
   10206:	48 8d 85 50 e9 ff ff 	lea    -0x16b0(%rbp),%rax
   1020d:	48 89 85 90 f9 ff ff 	mov    %rax,-0x670(%rbp)
   10214:	48 8d 85 50 e9 ff ff 	lea    -0x16b0(%rbp),%rax
   1021b:	48 89 85 98 f9 ff ff 	mov    %rax,-0x668(%rbp)
   10222:	48 8d 85 50 e9 ff ff 	lea    -0x16b0(%rbp),%rax
   10229:	48 89 85 a0 f9 ff ff 	mov    %rax,-0x660(%rbp)
   10230:	48 8d 85 50 e9 ff ff 	lea    -0x16b0(%rbp),%rax
   10237:	48 89 85 a8 f9 ff ff 	mov    %rax,-0x658(%rbp)
   1023e:	48 8d 85 50 e9 ff ff 	lea    -0x16b0(%rbp),%rax
   10245:	48 89 85 b0 f9 ff ff 	mov    %rax,-0x650(%rbp)
   1024c:	48 8d 85 50 e9 ff ff 	lea    -0x16b0(%rbp),%rax
   10253:	48 89 85 b8 f9 ff ff 	mov    %rax,-0x648(%rbp)
   1025a:	48 8d 85 50 e9 ff ff 	lea    -0x16b0(%rbp),%rax
   10261:	48 89 85 c0 f9 ff ff 	mov    %rax,-0x640(%rbp)
   10268:	48 8d 85 50 e9 ff ff 	lea    -0x16b0(%rbp),%rax
   1026f:	48 89 85 c8 f9 ff ff 	mov    %rax,-0x638(%rbp)
   10276:	48 8d 85 50 e9 ff ff 	lea    -0x16b0(%rbp),%rax
   1027d:	48 89 85 d0 f9 ff ff 	mov    %rax,-0x630(%rbp)
   10284:	48 8d 85 50 e9 ff ff 	lea    -0x16b0(%rbp),%rax
   1028b:	48 89 85 d8 f9 ff ff 	mov    %rax,-0x628(%rbp)
   10292:	48 c7 85 e0 f9 ff ff 	movq   $0x0,-0x620(%rbp)
   10299:	00 00 00 00 
   1029d:	48 8d 85 50 e9 ff ff 	lea    -0x16b0(%rbp),%rax
   102a4:	48 89 85 e8 f9 ff ff 	mov    %rax,-0x618(%rbp)
   102ab:	48 8d 85 50 e9 ff ff 	lea    -0x16b0(%rbp),%rax
   102b2:	48 89 85 f0 f9 ff ff 	mov    %rax,-0x610(%rbp)
   102b9:	48 8d 85 50 e9 ff ff 	lea    -0x16b0(%rbp),%rax
   102c0:	48 89 85 f8 f9 ff ff 	mov    %rax,-0x608(%rbp)
   102c7:	48 8d 85 50 e9 ff ff 	lea    -0x16b0(%rbp),%rax
   102ce:	48 89 85 00 fa ff ff 	mov    %rax,-0x600(%rbp)
   102d5:	48 8d 85 50 e9 ff ff 	lea    -0x16b0(%rbp),%rax
   102dc:	48 89 85 08 fa ff ff 	mov    %rax,-0x5f8(%rbp)
   102e3:	48 8d 85 50 e9 ff ff 	lea    -0x16b0(%rbp),%rax
   102ea:	48 89 85 10 fa ff ff 	mov    %rax,-0x5f0(%rbp)
   102f1:	48 8d 85 50 e9 ff ff 	lea    -0x16b0(%rbp),%rax
   102f8:	48 89 85 18 fa ff ff 	mov    %rax,-0x5e8(%rbp)
   102ff:	48 8d 85 50 e9 ff ff 	lea    -0x16b0(%rbp),%rax
   10306:	48 89 85 20 fa ff ff 	mov    %rax,-0x5e0(%rbp)
   1030d:	48 8d 85 50 e9 ff ff 	lea    -0x16b0(%rbp),%rax
   10314:	48 89 85 28 fa ff ff 	mov    %rax,-0x5d8(%rbp)
   1031b:	48 c7 85 30 fa ff ff 	movq   $0x0,-0x5d0(%rbp)
   10322:	00 00 00 00 
   10326:	48 8d 85 50 e9 ff ff 	lea    -0x16b0(%rbp),%rax
   1032d:	48 89 85 38 fa ff ff 	mov    %rax,-0x5c8(%rbp)
   10334:	48 8d 85 50 e9 ff ff 	lea    -0x16b0(%rbp),%rax
   1033b:	48 89 85 40 fa ff ff 	mov    %rax,-0x5c0(%rbp)
   10342:	48 8d 85 50 e9 ff ff 	lea    -0x16b0(%rbp),%rax
   10349:	48 89 85 48 fa ff ff 	mov    %rax,-0x5b8(%rbp)
   10350:	48 8d 85 50 e9 ff ff 	lea    -0x16b0(%rbp),%rax
   10357:	48 89 85 50 fa ff ff 	mov    %rax,-0x5b0(%rbp)
   1035e:	48 8d 85 50 e9 ff ff 	lea    -0x16b0(%rbp),%rax
   10365:	48 89 85 58 fa ff ff 	mov    %rax,-0x5a8(%rbp)
   1036c:	48 8d 85 50 e9 ff ff 	lea    -0x16b0(%rbp),%rax
   10373:	48 89 85 60 fa ff ff 	mov    %rax,-0x5a0(%rbp)
   1037a:	48 8d 85 50 e9 ff ff 	lea    -0x16b0(%rbp),%rax
   10381:	48 89 85 68 fa ff ff 	mov    %rax,-0x598(%rbp)
   10388:	48 8d 85 50 e9 ff ff 	lea    -0x16b0(%rbp),%rax
   1038f:	48 89 85 70 fa ff ff 	mov    %rax,-0x590(%rbp)
   10396:	48 8d 85 50 e9 ff ff 	lea    -0x16b0(%rbp),%rax
   1039d:	48 89 85 78 fa ff ff 	mov    %rax,-0x588(%rbp)
   103a4:	48 8d 85 50 e9 ff ff 	lea    -0x16b0(%rbp),%rax
   103ab:	48 89 85 80 fa ff ff 	mov    %rax,-0x580(%rbp)
   103b2:	48 8d 85 50 e9 ff ff 	lea    -0x16b0(%rbp),%rax
   103b9:	48 89 85 88 fa ff ff 	mov    %rax,-0x578(%rbp)
   103c0:	48 8d 85 50 e9 ff ff 	lea    -0x16b0(%rbp),%rax
   103c7:	48 89 85 90 fa ff ff 	mov    %rax,-0x570(%rbp)
   103ce:	48 8d 85 50 e9 ff ff 	lea    -0x16b0(%rbp),%rax
   103d5:	48 89 85 98 fa ff ff 	mov    %rax,-0x568(%rbp)
   103dc:	48 8d 85 50 e9 ff ff 	lea    -0x16b0(%rbp),%rax
   103e3:	48 89 85 a0 fa ff ff 	mov    %rax,-0x560(%rbp)
   103ea:	48 c7 85 a8 fa ff ff 	movq   $0x0,-0x558(%rbp)
   103f1:	00 00 00 00 
   103f5:	48 8d 85 50 e9 ff ff 	lea    -0x16b0(%rbp),%rax
   103fc:	48 89 85 b0 fa ff ff 	mov    %rax,-0x550(%rbp)
   10403:	48 8d 85 50 e9 ff ff 	lea    -0x16b0(%rbp),%rax
   1040a:	48 89 85 b8 fa ff ff 	mov    %rax,-0x548(%rbp)
   10411:	48 8d 85 50 e9 ff ff 	lea    -0x16b0(%rbp),%rax
   10418:	48 89 85 c0 fa ff ff 	mov    %rax,-0x540(%rbp)
   1041f:	48 c7 85 c8 fa ff ff 	movq   $0x0,-0x538(%rbp)
   10426:	00 00 00 00 
   1042a:	48 8d 85 50 e9 ff ff 	lea    -0x16b0(%rbp),%rax
   10431:	48 89 85 d0 fa ff ff 	mov    %rax,-0x530(%rbp)
   10438:	48 8d 85 50 e9 ff ff 	lea    -0x16b0(%rbp),%rax
   1043f:	48 89 85 d8 fa ff ff 	mov    %rax,-0x528(%rbp)
   10446:	48 8d 85 50 e9 ff ff 	lea    -0x16b0(%rbp),%rax
   1044d:	48 89 85 e0 fa ff ff 	mov    %rax,-0x520(%rbp)
   10454:	48 c7 85 e8 fa ff ff 	movq   $0x0,-0x518(%rbp)
   1045b:	00 00 00 00 
   1045f:	48 8d 85 50 e9 ff ff 	lea    -0x16b0(%rbp),%rax
   10466:	48 89 85 f0 fa ff ff 	mov    %rax,-0x510(%rbp)
   1046d:	48 c7 85 f8 fa ff ff 	movq   $0x0,-0x508(%rbp)
   10474:	00 00 00 00 
   10478:	48 c7 85 00 fb ff ff 	movq   $0x0,-0x500(%rbp)
   1047f:	00 00 00 00 
   10483:	48 8d 85 50 e9 ff ff 	lea    -0x16b0(%rbp),%rax
   1048a:	48 89 85 08 fb ff ff 	mov    %rax,-0x4f8(%rbp)
   10491:	48 8d 85 50 e9 ff ff 	lea    -0x16b0(%rbp),%rax
   10498:	48 89 85 10 fb ff ff 	mov    %rax,-0x4f0(%rbp)
   1049f:	48 8d 85 50 e9 ff ff 	lea    -0x16b0(%rbp),%rax
   104a6:	48 89 85 18 fb ff ff 	mov    %rax,-0x4e8(%rbp)
   104ad:	48 c7 85 20 fb ff ff 	movq   $0x0,-0x4e0(%rbp)
   104b4:	00 00 00 00 
   104b8:	48 8d 85 50 e9 ff ff 	lea    -0x16b0(%rbp),%rax
   104bf:	48 89 85 28 fb ff ff 	mov    %rax,-0x4d8(%rbp)
   104c6:	48 8d 85 50 e9 ff ff 	lea    -0x16b0(%rbp),%rax
   104cd:	48 89 85 30 fb ff ff 	mov    %rax,-0x4d0(%rbp)
   104d4:	48 8d 85 50 e9 ff ff 	lea    -0x16b0(%rbp),%rax
   104db:	48 89 85 38 fb ff ff 	mov    %rax,-0x4c8(%rbp)
   104e2:	48 8d 85 50 e9 ff ff 	lea    -0x16b0(%rbp),%rax
   104e9:	48 89 85 40 fb ff ff 	mov    %rax,-0x4c0(%rbp)
   104f0:	48 8d 85 50 e9 ff ff 	lea    -0x16b0(%rbp),%rax
   104f7:	48 89 85 48 fb ff ff 	mov    %rax,-0x4b8(%rbp)
   104fe:	48 c7 85 50 fb ff ff 	movq   $0x0,-0x4b0(%rbp)
   10505:	00 00 00 00 
   10509:	48 8d 85 50 e9 ff ff 	lea    -0x16b0(%rbp),%rax
   10510:	48 89 85 58 fb ff ff 	mov    %rax,-0x4a8(%rbp)
   10517:	48 8d 85 50 e9 ff ff 	lea    -0x16b0(%rbp),%rax
   1051e:	48 89 85 60 fb ff ff 	mov    %rax,-0x4a0(%rbp)
   10525:	48 8d 85 50 e9 ff ff 	lea    -0x16b0(%rbp),%rax
   1052c:	48 89 85 68 fb ff ff 	mov    %rax,-0x498(%rbp)
   10533:	48 c7 85 70 fb ff ff 	movq   $0x0,-0x490(%rbp)
   1053a:	00 00 00 00 
   1053e:	48 8d 85 50 e9 ff ff 	lea    -0x16b0(%rbp),%rax
   10545:	48 89 85 78 fb ff ff 	mov    %rax,-0x488(%rbp)
   1054c:	48 8d 85 50 e9 ff ff 	lea    -0x16b0(%rbp),%rax
   10553:	48 89 85 80 fb ff ff 	mov    %rax,-0x480(%rbp)
   1055a:	48 8d 85 50 e9 ff ff 	lea    -0x16b0(%rbp),%rax
   10561:	48 89 85 88 fb ff ff 	mov    %rax,-0x478(%rbp)
   10568:	48 8d 85 50 e9 ff ff 	lea    -0x16b0(%rbp),%rax
   1056f:	48 89 85 90 fb ff ff 	mov    %rax,-0x470(%rbp)
   10576:	48 8d 85 50 e9 ff ff 	lea    -0x16b0(%rbp),%rax
   1057d:	48 89 85 98 fb ff ff 	mov    %rax,-0x468(%rbp)
   10584:	48 8d 85 50 e9 ff ff 	lea    -0x16b0(%rbp),%rax
   1058b:	48 89 85 a0 fb ff ff 	mov    %rax,-0x460(%rbp)
   10592:	48 c7 85 a8 fb ff ff 	movq   $0x0,-0x458(%rbp)
   10599:	00 00 00 00 
   1059d:	48 8d 85 f0 f7 ff ff 	lea    -0x810(%rbp),%rax
   105a4:	48 05 98 02 00 00    	add    $0x298,%rax
   105aa:	48 89 85 70 f0 ff ff 	mov    %rax,-0xf90(%rbp)
   105b1:	48 8d 85 f0 f7 ff ff 	lea    -0x810(%rbp),%rax
   105b8:	48 05 98 02 00 00    	add    $0x298,%rax
   105be:	48 89 85 78 f0 ff ff 	mov    %rax,-0xf88(%rbp)
   105c5:	48 8d 85 f0 f7 ff ff 	lea    -0x810(%rbp),%rax
   105cc:	48 05 c0 02 00 00    	add    $0x2c0,%rax
   105d2:	48 89 85 80 f0 ff ff 	mov    %rax,-0xf80(%rbp)
   105d9:	48 8d 85 f0 f7 ff ff 	lea    -0x810(%rbp),%rax
   105e0:	48 05 98 02 00 00    	add    $0x298,%rax
   105e6:	48 89 85 88 f0 ff ff 	mov    %rax,-0xf78(%rbp)
   105ed:	48 8d 85 f0 f7 ff ff 	lea    -0x810(%rbp),%rax
   105f4:	48 05 98 02 00 00    	add    $0x298,%rax
   105fa:	48 89 85 90 f0 ff ff 	mov    %rax,-0xf70(%rbp)
   10601:	48 8d 85 f0 f7 ff ff 	lea    -0x810(%rbp),%rax
   10608:	48 05 c0 02 00 00    	add    $0x2c0,%rax
   1060e:	48 89 85 98 f0 ff ff 	mov    %rax,-0xf68(%rbp)
   10615:	48 8d 85 f0 f7 ff ff 	lea    -0x810(%rbp),%rax
   1061c:	48 05 98 02 00 00    	add    $0x298,%rax
   10622:	48 89 85 a0 f0 ff ff 	mov    %rax,-0xf60(%rbp)
   10629:	48 8d 85 f0 f7 ff ff 	lea    -0x810(%rbp),%rax
   10630:	48 05 98 02 00 00    	add    $0x298,%rax
   10636:	48 89 85 a8 f0 ff ff 	mov    %rax,-0xf58(%rbp)
   1063d:	48 8d 85 f0 f7 ff ff 	lea    -0x810(%rbp),%rax
   10644:	48 05 c0 02 00 00    	add    $0x2c0,%rax
   1064a:	48 89 85 b0 f0 ff ff 	mov    %rax,-0xf50(%rbp)
   10651:	48 8d 85 f0 f7 ff ff 	lea    -0x810(%rbp),%rax
   10658:	48 05 98 02 00 00    	add    $0x298,%rax
   1065e:	48 89 85 b8 f0 ff ff 	mov    %rax,-0xf48(%rbp)
   10665:	48 c7 85 10 ea ff ff 	movq   $0x0,-0x15f0(%rbp)
   1066c:	00 00 00 00 
   10670:	0f bf 95 94 e8 ff ff 	movswl -0x176c(%rbp),%edx
   10677:	48 8b 85 e8 e9 ff ff 	mov    -0x1618(%rbp),%rax
   1067e:	8b 00                	mov    (%rax),%eax
   10680:	39 c2                	cmp    %eax,%edx
   10682:	0f 94 c0             	sete   %al
   10685:	0f b6 d0             	movzbl %al,%edx
   10688:	48 8b 85 78 f0 ff ff 	mov    -0xf88(%rbp),%rax
   1068f:	48 85 c0             	test   %rax,%rax
   10692:	0f 94 c0             	sete   %al
   10695:	0f b6 c8             	movzbl %al,%ecx
   10698:	48 8b 05 51 6b 01 00 	mov    0x16b51(%rip),%rax        # 271f0 <g_1405>
   1069f:	48 8b 00             	mov    (%rax),%rax
   106a2:	48 8b 00             	mov    (%rax),%rax
   106a5:	48 8b 00             	mov    (%rax),%rax
   106a8:	48 39 85 10 ea ff ff 	cmp    %rax,-0x15f0(%rbp)
   106af:	0f 95 c0             	setne  %al
   106b2:	0f b6 f0             	movzbl %al,%esi
   106b5:	48 8b 85 e8 e9 ff ff 	mov    -0x1618(%rbp),%rax
   106bc:	8b 00                	mov    (%rax),%eax
   106be:	31 f0                	xor    %esi,%eax
   106c0:	39 c1                	cmp    %eax,%ecx
   106c2:	0f 9e c0             	setle  %al
   106c5:	0f b6 c0             	movzbl %al,%eax
   106c8:	89 d6                	mov    %edx,%esi
   106ca:	89 c7                	mov    %eax,%edi
   106cc:	e8 c1 9d ff ff       	callq  a492 <safe_lshift_func_int16_t_s_s>
   106d1:	66 39 85 94 e8 ff ff 	cmp    %ax,-0x176c(%rbp)
   106d8:	74 15                	je     106ef <func_44+0x35b8>
   106da:	c7 85 fc e8 ff ff 46 	movl   $0x3fec0c46,-0x1704(%rbp)
   106e1:	0c ec 3f 
   106e4:	8b 85 fc e8 ff ff    	mov    -0x1704(%rbp),%eax
   106ea:	e9 1c 0c 00 00       	jmpq   1130b <func_44+0x41d4>
   106ef:	48 8d 85 ac e8 ff ff 	lea    -0x1754(%rbp),%rax
   106f6:	48 89 85 18 ea ff ff 	mov    %rax,-0x15e8(%rbp)
   106fd:	48 8b 05 a4 68 01 00 	mov    0x168a4(%rip),%rax        # 26fa8 <g_104>
   10704:	0f b7 00             	movzwl (%rax),%eax
   10707:	66 83 f8 ff          	cmp    $0xffff,%ax
   1070b:	0f 94 c0             	sete   %al
   1070e:	0f b6 c0             	movzbl %al,%eax
   10711:	89 c6                	mov    %eax,%esi
   10713:	bf 00 00 00 00       	mov    $0x0,%edi
   10718:	e8 b6 9c ff ff       	callq  a3d3 <safe_sub_func_int16_t_s_s>
   1071d:	48 0f bf c0          	movswq %ax,%rax
   10721:	48 89 c6             	mov    %rax,%rsi
   10724:	48 c7 c7 ff ff ff ff 	mov    $0xffffffffffffffff,%rdi
   1072b:	e8 7f a9 ff ff       	callq  b0af <safe_div_func_uint64_t_u_u>
   10730:	48 8d 05 e1 68 01 00 	lea    0x168e1(%rip),%rax        # 27018 <g_200>
   10737:	48 39 85 f0 e9 ff ff 	cmp    %rax,-0x1610(%rbp)
   1073e:	0f 95 c0             	setne  %al
   10741:	0f b6 c8             	movzbl %al,%ecx
   10744:	48 8b 05 25 69 01 00 	mov    0x16925(%rip),%rax        # 27070 <g_740>
   1074b:	8b 10                	mov    (%rax),%edx
   1074d:	48 8b 05 1c 69 01 00 	mov    0x1691c(%rip),%rax        # 27070 <g_740>
   10754:	31 ca                	xor    %ecx,%edx
   10756:	89 10                	mov    %edx,(%rax)
   10758:	0f b7 05 d1 30 01 00 	movzwl 0x130d1(%rip),%eax        # 23830 <g_1174>
   1075f:	98                   	cwtl   
   10760:	e9 a6 0b 00 00       	jmpq   1130b <func_44+0x41d4>
   10765:	c7 05 dd f8 00 00 00 	movl   $0x0,0xf8dd(%rip)        # 2004c <g_139>
   1076c:	00 00 00 
   1076f:	e9 39 08 00 00       	jmpq   10fad <func_44+0x3e76>
   10774:	48 8d 85 a8 e8 ff ff 	lea    -0x1758(%rbp),%rax
   1077b:	48 89 85 40 eb ff ff 	mov    %rax,-0x14c0(%rbp)
   10782:	c7 85 80 ec ff ff 04 	movl   $0x4,-0x1380(%rbp)
   10789:	00 00 00 
   1078c:	c7 85 84 ec ff ff 04 	movl   $0x4,-0x137c(%rbp)
   10793:	00 00 00 
   10796:	c7 85 88 ec ff ff 04 	movl   $0x4,-0x1378(%rbp)
   1079d:	00 00 00 
   107a0:	c7 85 8c ec ff ff 04 	movl   $0x4,-0x1374(%rbp)
   107a7:	00 00 00 
   107aa:	c7 85 90 ec ff ff 04 	movl   $0x4,-0x1370(%rbp)
   107b1:	00 00 00 
   107b4:	c7 85 94 ec ff ff 04 	movl   $0x4,-0x136c(%rbp)
   107bb:	00 00 00 
   107be:	c7 85 98 ec ff ff 04 	movl   $0x4,-0x1368(%rbp)
   107c5:	00 00 00 
   107c8:	48 8d 85 70 f0 ff ff 	lea    -0xf90(%rbp),%rax
   107cf:	48 8d 15 2a 3d 01 00 	lea    0x13d2a(%rip),%rdx        # 24500 <g_2144+0xb00>
   107d6:	b9 f0 00 00 00       	mov    $0xf0,%ecx
   107db:	48 89 c7             	mov    %rax,%rdi
   107de:	48 89 d6             	mov    %rdx,%rsi
   107e1:	f3 48 a5             	rep movsq %ds:(%rsi),%es:(%rdi)
   107e4:	48 c7 85 48 eb ff ff 	movq   $0x0,-0x14b8(%rbp)
   107eb:	00 00 00 00 
   107ef:	48 8d 85 8e e8 ff ff 	lea    -0x1772(%rbp),%rax
   107f6:	48 89 85 50 eb ff ff 	mov    %rax,-0x14b0(%rbp)
   107fd:	48 8d 05 46 f8 00 00 	lea    0xf846(%rip),%rax        # 2004a <g_111>
   10804:	48 89 85 58 eb ff ff 	mov    %rax,-0x14a8(%rbp)
   1080b:	48 8d 85 60 e9 ff ff 	lea    -0x16a0(%rbp),%rax
   10812:	48 89 85 60 eb ff ff 	mov    %rax,-0x14a0(%rbp)
   10819:	48 8d 85 b4 e8 ff ff 	lea    -0x174c(%rbp),%rax
   10820:	48 89 85 68 eb ff ff 	mov    %rax,-0x1498(%rbp)
   10827:	48 8d 85 b0 e8 ff ff 	lea    -0x1750(%rbp),%rax
   1082e:	48 89 85 40 eb ff ff 	mov    %rax,-0x14c0(%rbp)
   10835:	0f b6 85 8e e8 ff ff 	movzbl -0x1772(%rbp),%eax
   1083c:	0f be d8             	movsbl %al,%ebx
   1083f:	44 8b a5 7c e8 ff ff 	mov    -0x1784(%rbp),%r12d
   10846:	48 8b 85 40 eb ff ff 	mov    -0x14c0(%rbp),%rax
   1084d:	8b 10                	mov    (%rax),%edx
   1084f:	48 83 bd 40 eb ff ff 	cmpq   $0x0,-0x14c0(%rbp)
   10856:	00 
   10857:	0f 94 c0             	sete   %al
   1085a:	0f b6 c0             	movzbl %al,%eax
   1085d:	39 85 7c e8 ff ff    	cmp    %eax,-0x1784(%rbp)
   10863:	0f 97 c0             	seta   %al
   10866:	0f b6 c0             	movzbl %al,%eax
   10869:	39 85 7c e8 ff ff    	cmp    %eax,-0x1784(%rbp)
   1086f:	0f 92 c0             	setb   %al
   10872:	0f b6 c0             	movzbl %al,%eax
   10875:	21 d0                	and    %edx,%eax
   10877:	48 98                	cltq   
   10879:	48 89 c6             	mov    %rax,%rsi
   1087c:	48 bf 93 a7 f2 ea e9 	movabs $0x804e35e9eaf2a793,%rdi
   10883:	35 4e 80 
   10886:	e8 24 a8 ff ff       	callq  b0af <safe_div_func_uint64_t_u_u>
   1088b:	98                   	cwtl   
   1088c:	89 c7                	mov    %eax,%edi
   1088e:	e8 0a 9b ff ff       	callq  a39d <safe_unary_minus_func_int16_t_s>
   10893:	0f bf d0             	movswl %ax,%edx
   10896:	48 8b 85 40 eb ff ff 	mov    -0x14c0(%rbp),%rax
   1089d:	8b 00                	mov    (%rax),%eax
   1089f:	39 c2                	cmp    %eax,%edx
   108a1:	0f 9c c0             	setl   %al
   108a4:	0f b6 c0             	movzbl %al,%eax
   108a7:	39 85 7c e8 ff ff    	cmp    %eax,-0x1784(%rbp)
   108ad:	0f 94 c0             	sete   %al
   108b0:	0f b6 d0             	movzbl %al,%edx
   108b3:	48 8b 05 36 69 01 00 	mov    0x16936(%rip),%rax        # 271f0 <g_1405>
   108ba:	48 8b 00             	mov    (%rax),%rax
   108bd:	48 8d 0d 0c 69 01 00 	lea    0x1690c(%rip),%rcx        # 271d0 <g_1404+0x30>
   108c4:	48 39 c8             	cmp    %rcx,%rax
   108c7:	0f 94 c0             	sete   %al
   108ca:	0f b6 c0             	movzbl %al,%eax
   108cd:	48 89 d6             	mov    %rdx,%rsi
   108d0:	48 89 c7             	mov    %rax,%rdi
   108d3:	e8 56 a7 ff ff       	callq  b02e <safe_add_func_uint64_t_u_u>
   108d8:	ba f7 ff ff ff       	mov    $0xfffffff7,%edx
   108dd:	48 0f bf d2          	movswq %dx,%rdx
   108e1:	48 39 d0             	cmp    %rdx,%rax
   108e4:	0f 97 c0             	seta   %al
   108e7:	0f b6 d0             	movzbl %al,%edx
   108ea:	0f b6 05 b3 0c 01 00 	movzbl 0x10cb3(%rip),%eax        # 215a4 <g_296+0x14>
   108f1:	c1 e0 06             	shl    $0x6,%eax
   108f4:	c0 f8 06             	sar    $0x6,%al
   108f7:	0f be c0             	movsbl %al,%eax
   108fa:	39 c2                	cmp    %eax,%edx
   108fc:	0f 9e c0             	setle  %al
   108ff:	0f b6 c0             	movzbl %al,%eax
   10902:	4c 89 e6             	mov    %r12,%rsi
   10905:	48 89 c7             	mov    %rax,%rdi
   10908:	e8 73 a7 ff ff       	callq  b080 <safe_mod_func_uint64_t_u_u>
   1090d:	8b 95 7c e8 ff ff    	mov    -0x1784(%rbp),%edx
   10913:	48 39 d0             	cmp    %rdx,%rax
   10916:	0f 93 c0             	setae  %al
   10919:	0f b6 c0             	movzbl %al,%eax
   1091c:	89 de                	mov    %ebx,%esi
   1091e:	89 c7                	mov    %eax,%edi
   10920:	e8 da 9d ff ff       	callq  a6ff <safe_div_func_int32_t_s_s>
   10925:	3d b9 b0 a0 12       	cmp    $0x12a0b0b9,%eax
   1092a:	0f 9e c0             	setle  %al
   1092d:	0f b6 c0             	movzbl %al,%eax
   10930:	89 c7                	mov    %eax,%edi
   10932:	e8 6f a5 ff ff       	callq  aea6 <safe_unary_minus_func_uint32_t_u>
   10937:	3d 9c 90 b2 20       	cmp    $0x20b2909c,%eax
   1093c:	0f 87 e3 04 00 00    	ja     10e25 <func_44+0x3cee>
   10942:	c7 85 24 e9 ff ff 49 	movl   $0x8eadf949,-0x16dc(%rbp)
   10949:	f9 ad 8e 
   1094c:	48 8d 05 01 87 00 00 	lea    0x8701(%rip),%rax        # 19054 <g_307>
   10953:	48 89 85 70 ed ff ff 	mov    %rax,-0x1290(%rbp)
   1095a:	48 8d 05 f3 86 00 00 	lea    0x86f3(%rip),%rax        # 19054 <g_307>
   10961:	48 89 85 78 ed ff ff 	mov    %rax,-0x1288(%rbp)
   10968:	48 8d 05 e5 86 00 00 	lea    0x86e5(%rip),%rax        # 19054 <g_307>
   1096f:	48 89 85 80 ed ff ff 	mov    %rax,-0x1280(%rbp)
   10976:	48 8d 05 d7 86 00 00 	lea    0x86d7(%rip),%rax        # 19054 <g_307>
   1097d:	48 89 85 88 ed ff ff 	mov    %rax,-0x1278(%rbp)
   10984:	48 8d 05 c9 86 00 00 	lea    0x86c9(%rip),%rax        # 19054 <g_307>
   1098b:	48 89 85 90 ed ff ff 	mov    %rax,-0x1270(%rbp)
   10992:	48 8d 85 70 ed ff ff 	lea    -0x1290(%rbp),%rax
   10999:	48 83 c0 08          	add    $0x8,%rax
   1099d:	48 89 85 c0 e9 ff ff 	mov    %rax,-0x1640(%rbp)
   109a4:	48 8d 85 c0 e9 ff ff 	lea    -0x1640(%rbp),%rax
   109ab:	48 89 85 78 eb ff ff 	mov    %rax,-0x1488(%rbp)
   109b2:	c7 85 28 e9 ff ff d5 	movl   $0x9e3a9fd5,-0x16d8(%rbp)
   109b9:	9f 3a 9e 
   109bc:	c7 85 2c e9 ff ff 01 	movl   $0x1,-0x16d4(%rbp)
   109c3:	00 00 00 
   109c6:	c7 85 30 e9 ff ff ab 	movl   $0xc8cbf8ab,-0x16d0(%rbp)
   109cd:	f8 cb c8 
   109d0:	66 c7 85 9a e8 ff ff 	movw   $0x5,-0x1766(%rbp)
   109d7:	05 00 
   109d9:	c7 85 e0 e8 ff ff 00 	movl   $0x0,-0x1720(%rbp)
   109e0:	00 00 00 
   109e3:	eb 1b                	jmp    10a00 <func_44+0x38c9>
   109e5:	8b 85 e0 e8 ff ff    	mov    -0x1720(%rbp),%eax
   109eb:	48 98                	cltq   
   109ed:	48 c7 84 c5 a0 ee ff 	movq   $0x0,-0x1160(%rbp,%rax,8)
   109f4:	ff 00 00 00 00 
   109f9:	83 85 e0 e8 ff ff 01 	addl   $0x1,-0x1720(%rbp)
   10a00:	83 bd e0 e8 ff ff 05 	cmpl   $0x5,-0x1720(%rbp)
   10a07:	7e dc                	jle    109e5 <func_44+0x38ae>
   10a09:	c7 85 e0 e8 ff ff 00 	movl   $0x0,-0x1720(%rbp)
   10a10:	00 00 00 
   10a13:	eb 22                	jmp    10a37 <func_44+0x3900>
   10a15:	8b 85 e0 e8 ff ff    	mov    -0x1720(%rbp),%eax
   10a1b:	48 98                	cltq   
   10a1d:	48 8d 95 a0 ee ff ff 	lea    -0x1160(%rbp),%rdx
   10a24:	48 83 c2 10          	add    $0x10,%rdx
   10a28:	48 89 94 c5 40 ec ff 	mov    %rdx,-0x13c0(%rbp,%rax,8)
   10a2f:	ff 
   10a30:	83 85 e0 e8 ff ff 01 	addl   $0x1,-0x1720(%rbp)
   10a37:	83 bd e0 e8 ff ff 01 	cmpl   $0x1,-0x1720(%rbp)
   10a3e:	7e d5                	jle    10a15 <func_44+0x38de>
   10a40:	c7 85 e0 e8 ff ff 00 	movl   $0x0,-0x1720(%rbp)
   10a47:	00 00 00 
   10a4a:	eb 1a                	jmp    10a66 <func_44+0x392f>
   10a4c:	8b 85 e0 e8 ff ff    	mov    -0x1720(%rbp),%eax
   10a52:	48 98                	cltq   
   10a54:	c7 84 85 20 ed ff ff 	movl   $0x3341210b,-0x12e0(%rbp,%rax,4)
   10a5b:	0b 21 41 33 
   10a5f:	83 85 e0 e8 ff ff 01 	addl   $0x1,-0x1720(%rbp)
   10a66:	83 bd e0 e8 ff ff 08 	cmpl   $0x8,-0x1720(%rbp)
   10a6d:	7e dd                	jle    10a4c <func_44+0x3915>
   10a6f:	c7 05 43 2d 01 00 00 	movl   $0x0,0x12d43(%rip)        # 237bc <g_1097>
   10a76:	00 00 00 
   10a79:	e9 8a 03 00 00       	jmpq   10e08 <func_44+0x3cd1>
   10a7e:	66 c7 85 9c e8 ff ff 	movw   $0x7024,-0x1764(%rbp)
   10a85:	24 70 
   10a87:	c7 85 34 e9 ff ff 11 	movl   $0x32cbb511,-0x16cc(%rbp)
   10a8e:	b5 cb 32 
   10a91:	c7 85 38 e9 ff ff fc 	movl   $0xfffffffc,-0x16c8(%rbp)
   10a98:	ff ff ff 
   10a9b:	c7 85 3c e9 ff ff 40 	movl   $0x2d981c40,-0x16c4(%rbp)
   10aa2:	1c 98 2d 
   10aa5:	c7 85 40 e9 ff ff 01 	movl   $0x1,-0x16c0(%rbp)
   10aac:	00 00 00 
   10aaf:	66 c7 85 9e e8 ff ff 	movw   $0x8,-0x1762(%rbp)
   10ab6:	08 00 
   10ab8:	c7 85 44 e9 ff ff 05 	movl   $0x5,-0x16bc(%rbp)
   10abf:	00 00 00 
   10ac2:	48 8d 85 68 e9 ff ff 	lea    -0x1698(%rbp),%rax
   10ac9:	48 89 85 c8 e9 ff ff 	mov    %rax,-0x1638(%rbp)
   10ad0:	48 8d 85 c8 e9 ff ff 	lea    -0x1638(%rbp),%rax
   10ad7:	48 89 85 80 eb ff ff 	mov    %rax,-0x1480(%rbp)
   10ade:	66 c7 85 a0 e8 ff ff 	movw   $0x1,-0x1760(%rbp)
   10ae5:	01 00 
   10ae7:	c7 85 48 e9 ff ff d4 	movl   $0x33fe23d4,-0x16b8(%rbp)
   10aee:	23 fe 33 
   10af1:	c7 85 d0 ec ff ff 44 	movl   $0x98e05544,-0x1330(%rbp)
   10af8:	55 e0 98 
   10afb:	c7 85 d4 ec ff ff f8 	movl   $0xfffffff8,-0x132c(%rbp)
   10b02:	ff ff ff 
   10b05:	c7 85 d8 ec ff ff 44 	movl   $0x98e05544,-0x1328(%rbp)
   10b0c:	55 e0 98 
   10b0f:	c7 85 dc ec ff ff f8 	movl   $0xfffffff8,-0x1324(%rbp)
   10b16:	ff ff ff 
   10b19:	c7 85 e0 ec ff ff 44 	movl   $0x98e05544,-0x1320(%rbp)
   10b20:	55 e0 98 
   10b23:	c7 85 e4 ec ff ff f8 	movl   $0xfffffff8,-0x131c(%rbp)
   10b2a:	ff ff ff 
   10b2d:	c7 85 e8 ec ff ff 44 	movl   $0x98e05544,-0x1318(%rbp)
   10b34:	55 e0 98 
   10b37:	c7 85 ec ec ff ff f8 	movl   $0xfffffff8,-0x1314(%rbp)
   10b3e:	ff ff ff 
   10b41:	c7 85 30 ef ff ff 04 	movl   $0x4,-0x10d0(%rbp)
   10b48:	00 00 00 
   10b4b:	8b 85 34 ef ff ff    	mov    -0x10cc(%rbp),%eax
   10b51:	25 00 00 00 c0       	and    $0xc0000000,%eax
   10b56:	0d fa 4b 00 00       	or     $0x4bfa,%eax
   10b5b:	89 85 34 ef ff ff    	mov    %eax,-0x10cc(%rbp)
   10b61:	c7 85 38 ef ff ff 04 	movl   $0x4,-0x10c8(%rbp)
   10b68:	00 00 00 
   10b6b:	8b 85 3c ef ff ff    	mov    -0x10c4(%rbp),%eax
   10b71:	25 00 00 00 c0       	and    $0xc0000000,%eax
   10b76:	0d fa 4b 00 00       	or     $0x4bfa,%eax
   10b7b:	89 85 3c ef ff ff    	mov    %eax,-0x10c4(%rbp)
   10b81:	c7 85 40 ef ff ff 04 	movl   $0x4,-0x10c0(%rbp)
   10b88:	00 00 00 
   10b8b:	8b 85 44 ef ff ff    	mov    -0x10bc(%rbp),%eax
   10b91:	25 00 00 00 c0       	and    $0xc0000000,%eax
   10b96:	0d fa 4b 00 00       	or     $0x4bfa,%eax
   10b9b:	89 85 44 ef ff ff    	mov    %eax,-0x10bc(%rbp)
   10ba1:	c7 85 48 ef ff ff 04 	movl   $0x4,-0x10b8(%rbp)
   10ba8:	00 00 00 
   10bab:	8b 85 4c ef ff ff    	mov    -0x10b4(%rbp),%eax
   10bb1:	25 00 00 00 c0       	and    $0xc0000000,%eax
   10bb6:	0d fa 4b 00 00       	or     $0x4bfa,%eax
   10bbb:	89 85 4c ef ff ff    	mov    %eax,-0x10b4(%rbp)
   10bc1:	c7 85 50 ef ff ff 04 	movl   $0x4,-0x10b0(%rbp)
   10bc8:	00 00 00 
   10bcb:	8b 85 54 ef ff ff    	mov    -0x10ac(%rbp),%eax
   10bd1:	25 00 00 00 c0       	and    $0xc0000000,%eax
   10bd6:	0d fa 4b 00 00       	or     $0x4bfa,%eax
   10bdb:	89 85 54 ef ff ff    	mov    %eax,-0x10ac(%rbp)
   10be1:	c7 85 58 ef ff ff 04 	movl   $0x4,-0x10a8(%rbp)
   10be8:	00 00 00 
   10beb:	8b 85 5c ef ff ff    	mov    -0x10a4(%rbp),%eax
   10bf1:	25 00 00 00 c0       	and    $0xc0000000,%eax
   10bf6:	0d fa 4b 00 00       	or     $0x4bfa,%eax
   10bfb:	89 85 5c ef ff ff    	mov    %eax,-0x10a4(%rbp)
   10c01:	c7 85 60 ef ff ff 04 	movl   $0x4,-0x10a0(%rbp)
   10c08:	00 00 00 
   10c0b:	8b 85 64 ef ff ff    	mov    -0x109c(%rbp),%eax
   10c11:	25 00 00 00 c0       	and    $0xc0000000,%eax
   10c16:	0d fa 4b 00 00       	or     $0x4bfa,%eax
   10c1b:	89 85 64 ef ff ff    	mov    %eax,-0x109c(%rbp)
   10c21:	c7 85 68 ef ff ff 04 	movl   $0x4,-0x1098(%rbp)
   10c28:	00 00 00 
   10c2b:	8b 85 6c ef ff ff    	mov    -0x1094(%rbp),%eax
   10c31:	25 00 00 00 c0       	and    $0xc0000000,%eax
   10c36:	0d fa 4b 00 00       	or     $0x4bfa,%eax
   10c3b:	89 85 6c ef ff ff    	mov    %eax,-0x1094(%rbp)
   10c41:	c7 85 4c e9 ff ff 00 	movl   $0x0,-0x16b4(%rbp)
   10c48:	00 00 00 
   10c4b:	c7 85 e4 e8 ff ff 00 	movl   $0x0,-0x171c(%rbp)
   10c52:	00 00 00 
   10c55:	eb 14                	jmp    10c6b <func_44+0x3b34>
   10c57:	8b 85 e4 e8 ff ff    	mov    -0x171c(%rbp),%eax
   10c5d:	48 98                	cltq   
   10c5f:	c6 44 05 c2 07       	movb   $0x7,-0x3e(%rbp,%rax,1)
   10c64:	83 85 e4 e8 ff ff 01 	addl   $0x1,-0x171c(%rbp)
   10c6b:	83 bd e4 e8 ff ff 05 	cmpl   $0x5,-0x171c(%rbp)
   10c72:	7e e3                	jle    10c57 <func_44+0x3b20>
   10c74:	c6 85 8f e8 ff ff 03 	movb   $0x3,-0x1771(%rbp)
   10c7b:	e9 9e 00 00 00       	jmpq   10d1e <func_44+0x3be7>
   10c80:	48 8d 85 f0 f7 ff ff 	lea    -0x810(%rbp),%rax
   10c87:	48 8d 15 f2 3f 01 00 	lea    0x13ff2(%rip),%rdx        # 24c80 <g_2144+0x1280>
   10c8e:	b9 fa 00 00 00       	mov    $0xfa,%ecx
   10c93:	48 89 c7             	mov    %rax,%rdi
   10c96:	48 89 d6             	mov    %rdx,%rsi
   10c99:	f3 48 a5             	rep movsq %ds:(%rsi),%es:(%rdi)
   10c9c:	48 8d 85 f0 f7 ff ff 	lea    -0x810(%rbp),%rax
   10ca3:	48 05 68 04 00 00    	add    $0x468,%rax
   10ca9:	48 89 85 88 eb ff ff 	mov    %rax,-0x1478(%rbp)
   10cb0:	66 c7 85 a2 e8 ff ff 	movw   $0x9c1d,-0x175e(%rbp)
   10cb7:	1d 9c 
   10cb9:	c7 85 e8 e8 ff ff 00 	movl   $0x0,-0x1718(%rbp)
   10cc0:	00 00 00 
   10cc3:	eb 1a                	jmp    10cdf <func_44+0x3ba8>
   10cc5:	8b 85 e8 e8 ff ff    	mov    -0x1718(%rbp),%eax
   10ccb:	48 98                	cltq   
   10ccd:	c7 84 85 d0 eb ff ff 	movl   $0xfffffffa,-0x1430(%rbp,%rax,4)
   10cd4:	fa ff ff ff 
   10cd8:	83 85 e8 e8 ff ff 01 	addl   $0x1,-0x1718(%rbp)
   10cdf:	83 bd e8 e8 ff ff 01 	cmpl   $0x1,-0x1718(%rbp)
   10ce6:	7e dd                	jle    10cc5 <func_44+0x3b8e>
   10ce8:	c7 85 e8 e8 ff ff 00 	movl   $0x0,-0x1718(%rbp)
   10cef:	00 00 00 
   10cf2:	eb 1a                	jmp    10d0e <func_44+0x3bd7>
   10cf4:	8b 85 e8 e8 ff ff    	mov    -0x1718(%rbp),%eax
   10cfa:	48 98                	cltq   
   10cfc:	c7 84 85 c0 ed ff ff 	movl   $0x96938c21,-0x1240(%rbp,%rax,4)
   10d03:	21 8c 93 96 
   10d07:	83 85 e8 e8 ff ff 01 	addl   $0x1,-0x1718(%rbp)
   10d0e:	83 bd e8 e8 ff ff 09 	cmpl   $0x9,-0x1718(%rbp)
   10d15:	7e dd                	jle    10cf4 <func_44+0x3bbd>
   10d17:	80 85 8f e8 ff ff 01 	addb   $0x1,-0x1771(%rbp)
   10d1e:	80 bd 8f e8 ff ff 08 	cmpb   $0x8,-0x1771(%rbp)
   10d25:	0f 86 55 ff ff ff    	jbe    10c80 <func_44+0x3b49>
   10d2b:	83 bd 7c e8 ff ff 00 	cmpl   $0x0,-0x1784(%rbp)
   10d32:	0f 85 e1 00 00 00    	jne    10e19 <func_44+0x3ce2>
   10d38:	48 8b 85 40 eb ff ff 	mov    -0x14c0(%rbp),%rax
   10d3f:	8b 00                	mov    (%rax),%eax
   10d41:	89 c3                	mov    %eax,%ebx
   10d43:	48 8b 05 ee 62 01 00 	mov    0x162ee(%rip),%rax        # 27038 <g_301>
   10d4a:	48 8b 00             	mov    (%rax),%rax
   10d4d:	0f b7 00             	movzwl (%rax),%eax
   10d50:	98                   	cwtl   
   10d51:	48 8b 15 50 62 01 00 	mov    0x16250(%rip),%rdx        # 26fa8 <g_104>
   10d58:	66 c7 02 00 00       	movw   $0x0,(%rdx)
   10d5d:	89 c6                	mov    %eax,%esi
   10d5f:	bf 00 00 00 00       	mov    $0x0,%edi
   10d64:	e8 4a 96 ff ff       	callq  a3b3 <safe_add_func_int16_t_s_s>
   10d69:	0f b7 05 c2 0f 01 00 	movzwl 0x10fc2(%rip),%eax        # 21d32 <g_755+0x12>
   10d70:	66 c1 f8 06          	sar    $0x6,%ax
   10d74:	98                   	cwtl   
   10d75:	39 85 7c e8 ff ff    	cmp    %eax,-0x1784(%rbp)
   10d7b:	0f 96 c0             	setbe  %al
   10d7e:	0f b6 d0             	movzbl %al,%edx
   10d81:	48 8b 85 78 e9 ff ff 	mov    -0x1688(%rbp),%rax
   10d88:	48 39 c2             	cmp    %rax,%rdx
   10d8b:	0f 92 c0             	setb   %al
   10d8e:	89 c2                	mov    %eax,%edx
   10d90:	8b 85 7c e8 ff ff    	mov    -0x1784(%rbp),%eax
   10d96:	21 d0                	and    %edx,%eax
   10d98:	0f b6 d0             	movzbl %al,%edx
   10d9b:	8b 85 7c e8 ff ff    	mov    -0x1784(%rbp),%eax
   10da1:	0f b6 c0             	movzbl %al,%eax
   10da4:	89 d6                	mov    %edx,%esi
   10da6:	89 c7                	mov    %eax,%edi
   10da8:	e8 e6 9d ff ff       	callq  ab93 <safe_mul_func_uint8_t_u_u>
   10dad:	84 c0                	test   %al,%al
   10daf:	75 09                	jne    10dba <func_44+0x3c83>
   10db1:	83 bd 7c e8 ff ff 00 	cmpl   $0x0,-0x1784(%rbp)
   10db8:	74 07                	je     10dc1 <func_44+0x3c8a>
   10dba:	b8 01 00 00 00       	mov    $0x1,%eax
   10dbf:	eb 05                	jmp    10dc6 <func_44+0x3c8f>
   10dc1:	b8 00 00 00 00       	mov    $0x0,%eax
   10dc6:	31 d8                	xor    %ebx,%eax
   10dc8:	0f b6 c0             	movzbl %al,%eax
   10dcb:	be e5 00 00 00       	mov    $0xe5,%esi
   10dd0:	89 c7                	mov    %eax,%edi
   10dd2:	e8 a1 9d ff ff       	callq  ab78 <safe_sub_func_uint8_t_u_u>
   10dd7:	48 8b 95 e8 e9 ff ff 	mov    -0x1618(%rbp),%rdx
   10dde:	8b 12                	mov    (%rdx),%edx
   10de0:	0f b6 c0             	movzbl %al,%eax
   10de3:	21 c2                	and    %eax,%edx
   10de5:	48 8b 85 e8 e9 ff ff 	mov    -0x1618(%rbp),%rax
   10dec:	89 10                	mov    %edx,(%rax)
   10dee:	8b 05 c8 29 01 00    	mov    0x129c8(%rip),%eax        # 237bc <g_1097>
   10df4:	98                   	cwtl   
   10df5:	be 09 00 00 00       	mov    $0x9,%esi
   10dfa:	89 c7                	mov    %eax,%edi
   10dfc:	e8 b2 95 ff ff       	callq  a3b3 <safe_add_func_int16_t_s_s>
   10e01:	98                   	cwtl   
   10e02:	89 05 b4 29 01 00    	mov    %eax,0x129b4(%rip)        # 237bc <g_1097>
   10e08:	8b 05 ae 29 01 00    	mov    0x129ae(%rip),%eax        # 237bc <g_1097>
   10e0e:	83 f8 12             	cmp    $0x12,%eax
   10e11:	0f 85 67 fc ff ff    	jne    10a7e <func_44+0x3947>
   10e17:	eb 01                	jmp    10e1a <func_44+0x3ce3>
   10e19:	90                   	nop
   10e1a:	8b 85 34 ed ff ff    	mov    -0x12cc(%rbp),%eax
   10e20:	e9 e6 04 00 00       	jmpq   1130b <func_44+0x41d4>
   10e25:	48 b8 ff a8 d3 38 58 	movabs $0x2785145838d3a8ff,%rax
   10e2c:	14 85 27 
   10e2f:	48 89 85 70 eb ff ff 	mov    %rax,-0x1490(%rbp)
   10e36:	48 8d 05 3b 64 01 00 	lea    0x1643b(%rip),%rax        # 27278 <g_1486>
   10e3d:	48 89 05 3c 64 01 00 	mov    %rax,0x1643c(%rip)        # 27280 <g_1576>
   10e44:	c7 05 62 0e 01 00 00 	movl   $0x0,0x10e62(%rip)        # 21cb0 <g_637>
   10e4b:	00 00 00 
   10e4e:	90                   	nop
   10e4f:	8b 05 5b 0e 01 00    	mov    0x10e5b(%rip),%eax        # 21cb0 <g_637>
   10e55:	83 f8 31             	cmp    $0x31,%eax
   10e58:	74 0c                	je     10e66 <func_44+0x3d2f>
   10e5a:	48 8b 85 70 eb ff ff 	mov    -0x1490(%rbp),%rax
   10e61:	e9 a5 04 00 00       	jmpq   1130b <func_44+0x41d4>
   10e66:	66 c7 05 c1 29 01 00 	movw   $0x17,0x129c1(%rip)        # 23830 <g_1174>
   10e6d:	17 00 
   10e6f:	eb 33                	jmp    10ea4 <func_44+0x3d6d>
   10e71:	48 8b 85 68 f4 ff ff 	mov    -0xb98(%rbp),%rax
   10e78:	48 89 85 20 f2 ff ff 	mov    %rax,-0xde0(%rbp)
   10e7f:	48 8b 15 e2 61 01 00 	mov    0x161e2(%rip),%rdx        # 27068 <g_591>
   10e86:	48 8b 05 3b 64 01 00 	mov    0x1643b(%rip),%rax        # 272c8 <g_1585>
   10e8d:	48 8b 12             	mov    (%rdx),%rdx
   10e90:	48 89 10             	mov    %rdx,(%rax)
   10e93:	0f b7 05 96 29 01 00 	movzwl 0x12996(%rip),%eax        # 23830 <g_1174>
   10e9a:	83 e8 01             	sub    $0x1,%eax
   10e9d:	66 89 05 8c 29 01 00 	mov    %ax,0x1298c(%rip)        # 23830 <g_1174>
   10ea4:	0f b7 05 85 29 01 00 	movzwl 0x12985(%rip),%eax        # 23830 <g_1174>
   10eab:	66 83 f8 f8          	cmp    $0xfff8,%ax
   10eaf:	7c c0                	jl     10e71 <func_44+0x3d3a>
   10eb1:	48 8b 05 18 64 01 00 	mov    0x16418(%rip),%rax        # 272d0 <g_1587>
   10eb8:	48 8b 95 48 eb ff ff 	mov    -0x14b8(%rbp),%rdx
   10ebf:	48 89 10             	mov    %rdx,(%rax)
   10ec2:	48 8b 85 e8 e9 ff ff 	mov    -0x1618(%rbp),%rax
   10ec9:	44 8b 20             	mov    (%rax),%r12d
   10ecc:	48 8b 05 bd 61 01 00 	mov    0x161bd(%rip),%rax        # 27090 <g_955>
   10ed3:	48 8b 00             	mov    (%rax),%rax
   10ed6:	48 8b 00             	mov    (%rax),%rax
   10ed9:	48 85 c0             	test   %rax,%rax
   10edc:	0f 84 89 00 00 00    	je     10f6b <func_44+0x3e34>
   10ee2:	48 8b 85 40 eb ff ff 	mov    -0x14c0(%rbp),%rax
   10ee9:	8b 18                	mov    (%rax),%ebx
   10eeb:	8b 05 bb 29 01 00    	mov    0x129bb(%rip),%eax        # 238ac <g_1592>
   10ef1:	48 83 bd 50 eb ff ff 	cmpq   $0x0,-0x14b0(%rbp)
   10ef8:	00 
   10ef9:	0f 95 c0             	setne  %al
   10efc:	0f b6 c0             	movzbl %al,%eax
   10eff:	be 02 00 00 00       	mov    $0x2,%esi
   10f04:	89 c7                	mov    %eax,%edi
   10f06:	e8 fb 9e ff ff       	callq  ae06 <safe_lshift_func_uint16_t_u_u>
   10f0b:	89 c2                	mov    %eax,%edx
   10f0d:	48 8b 85 58 eb ff ff 	mov    -0x14a8(%rbp),%rax
   10f14:	88 10                	mov    %dl,(%rax)
   10f16:	48 8b 85 40 eb ff ff 	mov    -0x14c0(%rbp),%rax
   10f1d:	8b 10                	mov    (%rax),%edx
   10f1f:	48 83 bd 60 eb ff ff 	cmpq   $0x0,-0x14a0(%rbp)
   10f26:	00 
   10f27:	0f 95 c0             	setne  %al
   10f2a:	0f b6 c0             	movzbl %al,%eax
   10f2d:	39 c2                	cmp    %eax,%edx
   10f2f:	0f 9d c0             	setge  %al
   10f32:	89 c2                	mov    %eax,%edx
   10f34:	48 8b 85 40 eb ff ff 	mov    -0x14c0(%rbp),%rax
   10f3b:	8b 00                	mov    (%rax),%eax
   10f3d:	09 d0                	or     %edx,%eax
   10f3f:	0f be c0             	movsbl %al,%eax
   10f42:	89 de                	mov    %ebx,%esi
   10f44:	89 c7                	mov    %eax,%edi
   10f46:	e8 56 93 ff ff       	callq  a2a1 <safe_lshift_func_int8_t_s_s>
   10f4b:	48 0f be c0          	movsbq %al,%rax
   10f4f:	83 e0 6a             	and    $0x6a,%eax
   10f52:	be 01 00 00 00       	mov    $0x1,%esi
   10f57:	48 89 c7             	mov    %rax,%rdi
   10f5a:	e8 e2 98 ff ff       	callq  a841 <safe_add_func_int64_t_s_s>
   10f5f:	48 85 c0             	test   %rax,%rax
   10f62:	74 07                	je     10f6b <func_44+0x3e34>
   10f64:	b8 01 00 00 00       	mov    $0x1,%eax
   10f69:	eb 05                	jmp    10f70 <func_44+0x3e39>
   10f6b:	b8 00 00 00 00       	mov    $0x0,%eax
   10f70:	34 b6                	xor    $0xb6,%al
   10f72:	41 39 c4             	cmp    %eax,%r12d
   10f75:	0f 9c c0             	setl   %al
   10f78:	0f b6 c0             	movzbl %al,%eax
   10f7b:	89 c2                	mov    %eax,%edx
   10f7d:	48 8b 05 04 61 01 00 	mov    0x16104(%rip),%rax        # 27088 <g_956>
   10f84:	48 8b 00             	mov    (%rax),%rax
   10f87:	48 31 c2             	xor    %rax,%rdx
   10f8a:	48 8b 85 68 eb ff ff 	mov    -0x1498(%rbp),%rax
   10f91:	8b 00                	mov    (%rax),%eax
   10f93:	31 c2                	xor    %eax,%edx
   10f95:	48 8b 85 68 eb ff ff 	mov    -0x1498(%rbp),%rax
   10f9c:	89 10                	mov    %edx,(%rax)
   10f9e:	8b 05 a8 f0 00 00    	mov    0xf0a8(%rip),%eax        # 2004c <g_139>
   10fa4:	83 e8 01             	sub    $0x1,%eax
   10fa7:	89 05 9f f0 00 00    	mov    %eax,0xf09f(%rip)        # 2004c <g_139>
   10fad:	8b 05 99 f0 00 00    	mov    0xf099(%rip),%eax        # 2004c <g_139>
   10fb3:	83 f8 fa             	cmp    $0xfffffffa,%eax
   10fb6:	0f 85 b8 f7 ff ff    	jne    10774 <func_44+0x363d>
   10fbc:	48 8b 85 e8 e9 ff ff 	mov    -0x1618(%rbp),%rax
   10fc3:	8b 00                	mov    (%rax),%eax
   10fc5:	0d 3a 5f ff 59       	or     $0x59ff5f3a,%eax
   10fca:	89 c2                	mov    %eax,%edx
   10fcc:	48 8b 85 e8 e9 ff ff 	mov    -0x1618(%rbp),%rax
   10fd3:	89 10                	mov    %edx,(%rax)
   10fd5:	48 8b 05 8c f2 00 00 	mov    0xf28c(%rip),%rax        # 20268 <g_214+0x8>
   10fdc:	c1 e0 06             	shl    $0x6,%eax
   10fdf:	66 c1 f8 06          	sar    $0x6,%ax
   10fe3:	0f bf d8             	movswl %ax,%ebx
   10fe6:	8b 85 7c e8 ff ff    	mov    -0x1784(%rbp),%eax
   10fec:	0f b7 d0             	movzwl %ax,%edx
   10fef:	8b 85 7c e8 ff ff    	mov    -0x1784(%rbp),%eax
   10ff5:	0f b7 c0             	movzwl %ax,%eax
   10ff8:	89 d6                	mov    %edx,%esi
   10ffa:	89 c7                	mov    %eax,%edi
   10ffc:	e8 fe 9c ff ff       	callq  acff <safe_add_func_uint16_t_u_u>
   11001:	0f b7 c0             	movzwl %ax,%eax
   11004:	39 85 7c e8 ff ff    	cmp    %eax,-0x1784(%rbp)
   1100a:	72 09                	jb     11015 <func_44+0x3ede>
   1100c:	83 bd 7c e8 ff ff 00 	cmpl   $0x0,-0x1784(%rbp)
   11013:	74 07                	je     1101c <func_44+0x3ee5>
   11015:	b8 01 00 00 00       	mov    $0x1,%eax
   1101a:	eb 05                	jmp    11021 <func_44+0x3eea>
   1101c:	b8 00 00 00 00       	mov    $0x0,%eax
   11021:	0f b6 c0             	movzbl %al,%eax
   11024:	89 c6                	mov    %eax,%esi
   11026:	bf 01 00 00 00       	mov    $0x1,%edi
   1102b:	e8 7e 9b ff ff       	callq  abae <safe_mod_func_uint8_t_u_u>
   11030:	89 de                	mov    %ebx,%esi
   11032:	bf 00 00 00 00       	mov    $0x0,%edi
   11037:	e8 7a 95 ff ff       	callq  a5b6 <safe_add_func_int32_t_s_s>
   1103c:	85 c0                	test   %eax,%eax
   1103e:	74 10                	je     11050 <func_44+0x3f19>
   11040:	83 bd 7c e8 ff ff 00 	cmpl   $0x0,-0x1784(%rbp)
   11047:	74 07                	je     11050 <func_44+0x3f19>
   11049:	b8 01 00 00 00       	mov    $0x1,%eax
   1104e:	eb 05                	jmp    11055 <func_44+0x3f1e>
   11050:	b8 00 00 00 00       	mov    $0x0,%eax
   11055:	39 85 7c e8 ff ff    	cmp    %eax,-0x1784(%rbp)
   1105b:	0f 94 c0             	sete   %al
   1105e:	0f b6 d8             	movzbl %al,%ebx
   11061:	48 8b 85 e8 e9 ff ff 	mov    -0x1618(%rbp),%rax
   11068:	8b 00                	mov    (%rax),%eax
   1106a:	0f bf d0             	movswl %ax,%edx
   1106d:	48 8b 05 34 5f 01 00 	mov    0x15f34(%rip),%rax        # 26fa8 <g_104>
   11074:	0f b7 00             	movzwl (%rax),%eax
   11077:	98                   	cwtl   
   11078:	89 d6                	mov    %edx,%esi
   1107a:	89 c7                	mov    %eax,%edi
   1107c:	e8 74 93 ff ff       	callq  a3f5 <safe_mul_func_int16_t_s_s>
   11081:	98                   	cwtl   
   11082:	89 de                	mov    %ebx,%esi
   11084:	89 c7                	mov    %eax,%edi
   11086:	e8 6a 93 ff ff       	callq  a3f5 <safe_mul_func_int16_t_s_s>
   1108b:	48 8b 85 e8 e9 ff ff 	mov    -0x1618(%rbp),%rax
   11092:	8b 00                	mov    (%rax),%eax
   11094:	0f be d0             	movsbl %al,%edx
   11097:	8b 85 7c e8 ff ff    	mov    -0x1784(%rbp),%eax
   1109d:	0f be c0             	movsbl %al,%eax
   110a0:	89 d6                	mov    %edx,%esi
   110a2:	89 c7                	mov    %eax,%edi
   110a4:	e8 2b 91 ff ff       	callq  a1d4 <safe_add_func_int8_t_s_s>
   110a9:	48 8b 15 a8 5f 01 00 	mov    0x15fa8(%rip),%rdx        # 27058 <g_574>
   110b0:	48 8b 12             	mov    (%rdx),%rdx
   110b3:	0f b7 12             	movzwl (%rdx),%edx
   110b6:	66 98                	cbtw   
   110b8:	31 c2                	xor    %eax,%edx
   110ba:	48 8b 05 97 5f 01 00 	mov    0x15f97(%rip),%rax        # 27058 <g_574>
   110c1:	48 8b 00             	mov    (%rax),%rax
   110c4:	66 89 10             	mov    %dx,(%rax)
   110c7:	0f b7 00             	movzwl (%rax),%eax
   110ca:	0f b7 d0             	movzwl %ax,%edx
   110cd:	48 8b 05 8c 61 01 00 	mov    0x1618c(%rip),%rax        # 27260 <g_1489>
   110d4:	0f b7 00             	movzwl (%rax),%eax
   110d7:	0f b7 c0             	movzwl %ax,%eax
   110da:	89 d6                	mov    %edx,%esi
   110dc:	89 c7                	mov    %eax,%edi
   110de:	e8 3c 9c ff ff       	callq  ad1f <safe_sub_func_uint16_t_u_u>
   110e3:	0f b6 c0             	movzbl %al,%eax
   110e6:	be 00 00 00 00       	mov    $0x0,%esi
   110eb:	89 c7                	mov    %eax,%edi
   110ed:	e8 13 9b ff ff       	callq  ac05 <safe_lshift_func_uint8_t_u_s>
   110f2:	0f b6 d0             	movzbl %al,%edx
   110f5:	48 8b 85 00 ea ff ff 	mov    -0x1600(%rbp),%rax
   110fc:	0f b6 00             	movzbl (%rax),%eax
   110ff:	8d 48 01             	lea    0x1(%rax),%ecx
   11102:	48 8b 85 00 ea ff ff 	mov    -0x1600(%rbp),%rax
   11109:	88 08                	mov    %cl,(%rax)
   1110b:	48 8b 85 00 ea ff ff 	mov    -0x1600(%rbp),%rax
   11112:	0f b6 00             	movzbl (%rax),%eax
   11115:	0f b6 c0             	movzbl %al,%eax
   11118:	89 d6                	mov    %edx,%esi
   1111a:	89 c7                	mov    %eax,%edi
   1111c:	e8 ba 9a ff ff       	callq  abdb <safe_div_func_uint8_t_u_u>
   11121:	0f b6 c0             	movzbl %al,%eax
   11124:	be 0d 00 00 00       	mov    $0xd,%esi
   11129:	89 c7                	mov    %eax,%edi
   1112b:	e8 18 9d ff ff       	callq  ae48 <safe_rshift_func_uint16_t_u_s>
   11130:	be ff ff ff ff       	mov    $0xffffffff,%esi
   11135:	bf 00 00 00 00       	mov    $0x0,%edi
   1113a:	e8 95 90 ff ff       	callq  a1d4 <safe_add_func_int8_t_s_s>
   1113f:	48 8b 95 08 ea ff ff 	mov    -0x15f8(%rbp),%rdx
   11146:	48 8b 12             	mov    (%rdx),%rdx
   11149:	48 0f be c0          	movsbq %al,%rax
   1114d:	48 21 c2             	and    %rax,%rdx
   11150:	48 8b 85 08 ea ff ff 	mov    -0x15f8(%rbp),%rax
   11157:	48 89 10             	mov    %rdx,(%rax)
   1115a:	48 8b 85 08 ea ff ff 	mov    -0x15f8(%rbp),%rax
   11161:	48 8b 00             	mov    (%rax),%rax
   11164:	48 85 c0             	test   %rax,%rax
   11167:	0f 94 c0             	sete   %al
   1116a:	0f b6 d0             	movzbl %al,%edx
   1116d:	48 8b 85 e8 e9 ff ff 	mov    -0x1618(%rbp),%rax
   11174:	89 10                	mov    %edx,(%rax)
   11176:	48 8b 85 e8 e9 ff ff 	mov    -0x1618(%rbp),%rax
   1117d:	8b 00                	mov    (%rax),%eax
   1117f:	21 85 f8 e8 ff ff    	and    %eax,-0x1708(%rbp)
   11185:	83 bd f8 e8 ff ff 00 	cmpl   $0x0,-0x1708(%rbp)
   1118c:	74 46                	je     111d4 <func_44+0x409d>
   1118e:	c7 85 ec e8 ff ff 00 	movl   $0x0,-0x1714(%rbp)
   11195:	00 00 00 
   11198:	eb 1b                	jmp    111b5 <func_44+0x407e>
   1119a:	8b 85 ec e8 ff ff    	mov    -0x1714(%rbp),%eax
   111a0:	48 98                	cltq   
   111a2:	48 c7 84 c5 f0 f7 ff 	movq   $0x0,-0x810(%rbp,%rax,8)
   111a9:	ff 00 00 00 00 
   111ae:	83 85 ec e8 ff ff 01 	addl   $0x1,-0x1714(%rbp)
   111b5:	83 bd ec e8 ff ff 00 	cmpl   $0x0,-0x1714(%rbp)
   111bc:	7e dc                	jle    1119a <func_44+0x4063>
   111be:	48 8b 05 53 5f 01 00 	mov    0x15f53(%rip),%rax        # 27118 <g_1140>
   111c5:	48 8b 95 f0 f7 ff ff 	mov    -0x810(%rbp),%rdx
   111cc:	48 89 10             	mov    %rdx,(%rax)
   111cf:	e9 31 01 00 00       	jmpq   11305 <func_44+0x41ce>
   111d4:	48 8d 05 15 26 01 00 	lea    0x12615(%rip),%rax        # 237f0 <g_1166>
   111db:	48 89 85 38 eb ff ff 	mov    %rax,-0x14c8(%rbp)
   111e2:	c7 85 20 e9 ff ff 19 	movl   $0x42be2a19,-0x16e0(%rbp)
   111e9:	2a be 42 
   111ec:	44 8b a5 7c e8 ff ff 	mov    -0x1784(%rbp),%r12d
   111f3:	8b 85 7c e8 ff ff    	mov    -0x1784(%rbp),%eax
   111f9:	44 0f b7 e8          	movzwl %ax,%r13d
   111fd:	8b 1d 8d b8 00 00    	mov    0xb88d(%rip),%ebx        # 1ca90 <l_1637.4696+0x10>
   11203:	be 08 00 00 00       	mov    $0x8,%esi
   11208:	bf 29 19 00 00       	mov    $0x1929,%edi
   1120d:	e8 ac 9b ff ff       	callq  adbe <safe_lshift_func_uint16_t_u_s>
   11212:	0f b7 c0             	movzwl %ax,%eax
   11215:	39 c3                	cmp    %eax,%ebx
   11217:	0f 8c 81 00 00 00    	jl     1129e <func_44+0x4167>
   1121d:	8b 05 5d b8 00 00    	mov    0xb85d(%rip),%eax        # 1ca80 <l_1637.4696>
   11223:	48 63 d0             	movslq %eax,%rdx
   11226:	8b 85 7c e8 ff ff    	mov    -0x1784(%rbp),%eax
   1122c:	48 8b 1d 55 5e 01 00 	mov    0x15e55(%rip),%rbx        # 27088 <g_956>
   11233:	48 89 d6             	mov    %rdx,%rsi
   11236:	48 89 c7             	mov    %rax,%rdi
   11239:	e8 b9 97 ff ff       	callq  a9f7 <safe_div_func_int64_t_s_s>
   1123e:	48 89 03             	mov    %rax,(%rbx)
   11241:	48 8b 33             	mov    (%rbx),%rsi
   11244:	48 8b 05 0d 5e 01 00 	mov    0x15e0d(%rip),%rax        # 27058 <g_574>
   1124b:	48 8b 00             	mov    (%rax),%rax
   1124e:	0f b7 10             	movzwl (%rax),%edx
   11251:	8d 4a ff             	lea    -0x1(%rdx),%ecx
   11254:	66 89 08             	mov    %cx,(%rax)
   11257:	48 8b 85 68 e9 ff ff 	mov    -0x1698(%rbp),%rax
   1125e:	0f b7 08             	movzwl (%rax),%ecx
   11261:	8b 85 7c e8 ff ff    	mov    -0x1784(%rbp),%eax
   11267:	89 c7                	mov    %eax,%edi
   11269:	48 8b 85 68 e9 ff ff 	mov    -0x1698(%rbp),%rax
   11270:	31 f9                	xor    %edi,%ecx
   11272:	66 89 08             	mov    %cx,(%rax)
   11275:	0f b7 00             	movzwl (%rax),%eax
   11278:	66 39 c2             	cmp    %ax,%dx
   1127b:	0f 96 c0             	setbe  %al
   1127e:	0f b6 c0             	movzbl %al,%eax
   11281:	48 39 c6             	cmp    %rax,%rsi
   11284:	0f 9d c0             	setge  %al
   11287:	0f b6 c0             	movzbl %al,%eax
   1128a:	be 9b ef a8 03       	mov    $0x3a8ef9b,%esi
   1128f:	89 c7                	mov    %eax,%edi
   11291:	e8 3a 9c ff ff       	callq  aed0 <safe_sub_func_uint32_t_u_u>
   11296:	0b 85 7c e8 ff ff    	or     -0x1784(%rbp),%eax
   1129c:	85 c0                	test   %eax,%eax
   1129e:	be fd b0 ff ff       	mov    $0xffffb0fd,%esi
   112a3:	bf 01 00 00 00       	mov    $0x1,%edi
   112a8:	e8 69 91 ff ff       	callq  a416 <safe_mod_func_int16_t_s_s>
   112ad:	48 8b 95 e8 e9 ff ff 	mov    -0x1618(%rbp),%rdx
   112b4:	8b 12                	mov    (%rdx),%edx
   112b6:	09 d0                	or     %edx,%eax
   112b8:	0f b7 c0             	movzwl %ax,%eax
   112bb:	44 89 ee             	mov    %r13d,%esi
   112be:	89 c7                	mov    %eax,%edi
   112c0:	e8 5a 9a ff ff       	callq  ad1f <safe_sub_func_uint16_t_u_u>
   112c5:	8b 05 c5 b7 00 00    	mov    0xb7c5(%rip),%eax        # 1ca90 <l_1637.4696+0x10>
   112cb:	48 98                	cltq   
   112cd:	4c 89 e6             	mov    %r12,%rsi
   112d0:	48 89 c7             	mov    %rax,%rdi
   112d3:	e8 a8 9d ff ff       	callq  b080 <safe_mod_func_uint64_t_u_u>
   112d8:	48 83 bd 38 eb ff ff 	cmpq   $0x0,-0x14c8(%rbp)
   112df:	00 
   112e0:	0f 95 c0             	setne  %al
   112e3:	0f b6 c0             	movzbl %al,%eax
   112e6:	48 89 c7             	mov    %rax,%rdi
   112e9:	e8 2b 9d ff ff       	callq  b019 <safe_unary_minus_func_uint64_t_u>
   112ee:	48 85 c0             	test   %rax,%rax
   112f1:	74 07                	je     112fa <func_44+0x41c3>
   112f3:	b8 01 00 00 00       	mov    $0x1,%eax
   112f8:	eb 05                	jmp    112ff <func_44+0x41c8>
   112fa:	b8 00 00 00 00       	mov    $0x0,%eax
   112ff:	89 85 20 e9 ff ff    	mov    %eax,-0x16e0(%rbp)
   11305:	8b 85 7c e8 ff ff    	mov    -0x1784(%rbp),%eax
   1130b:	48 8b 5d c8          	mov    -0x38(%rbp),%rbx
   1130f:	64 48 33 1c 25 28 00 	xor    %fs:0x28,%rbx
   11316:	00 00 
   11318:	74 05                	je     1131f <func_44+0x41e8>
   1131a:	e8 51 8d ff ff       	callq  a070 <__stack_chk_fail@plt>
   1131f:	48 81 c4 68 17 00 00 	add    $0x1768,%rsp
   11326:	5b                   	pop    %rbx
   11327:	41 5c                	pop    %r12
   11329:	41 5d                	pop    %r13
   1132b:	41 5e                	pop    %r14
   1132d:	41 5f                	pop    %r15
   1132f:	5d                   	pop    %rbp
   11330:	c3                   	retq   

0000000000011331 <func_51>:
   11331:	f3 0f 1e fa          	endbr64 
   11335:	55                   	push   %rbp
   11336:	48 89 e5             	mov    %rsp,%rbp
   11339:	41 57                	push   %r15
   1133b:	41 56                	push   %r14
   1133d:	41 55                	push   %r13
   1133f:	41 54                	push   %r12
   11341:	53                   	push   %rbx
   11342:	48 81 ec f8 09 00 00 	sub    $0x9f8,%rsp
   11349:	48 89 bd e8 f5 ff ff 	mov    %rdi,-0xa18(%rbp)
   11350:	48 89 b5 e0 f5 ff ff 	mov    %rsi,-0xa20(%rbp)
   11357:	64 48 8b 04 25 28 00 	mov    %fs:0x28,%rax
   1135e:	00 00 
   11360:	48 89 45 c8          	mov    %rax,-0x38(%rbp)
   11364:	31 c0                	xor    %eax,%eax
   11366:	c7 85 08 f6 ff ff 00 	movl   $0x0,-0x9f8(%rbp)
   1136d:	00 00 00 
   11370:	48 8d 05 69 02 01 00 	lea    0x10269(%rip),%rax        # 215e0 <g_335>
   11377:	48 89 85 20 f6 ff ff 	mov    %rax,-0x9e0(%rbp)
   1137e:	48 8d 85 40 f8 ff ff 	lea    -0x7c0(%rbp),%rax
   11385:	48 8d 15 d4 40 01 00 	lea    0x140d4(%rip),%rdx        # 25460 <g_2144+0x1a60>
   1138c:	b9 f0 00 00 00       	mov    $0xf0,%ecx
   11391:	48 89 c7             	mov    %rax,%rdi
   11394:	48 89 d6             	mov    %rdx,%rsi
   11397:	f3 48 a5             	rep movsq %ds:(%rsi),%es:(%rdi)
   1139a:	48 8d 85 40 f8 ff ff 	lea    -0x7c0(%rbp),%rax
   113a1:	48 05 b0 06 00 00    	add    $0x6b0,%rax
   113a7:	48 89 85 28 f6 ff ff 	mov    %rax,-0x9d8(%rbp)
   113ae:	c7 85 fc f5 ff ff f6 	movl   $0xfffffff6,-0xa04(%rbp)
   113b5:	ff ff ff 
   113b8:	48 8d 05 79 ec 00 00 	lea    0xec79(%rip),%rax        # 20038 <g_85>
   113bf:	48 89 85 30 f6 ff ff 	mov    %rax,-0x9d0(%rbp)
   113c6:	48 8d 05 73 01 01 00 	lea    0x10173(%rip),%rax        # 21540 <g_259>
   113cd:	48 89 85 38 f6 ff ff 	mov    %rax,-0x9c8(%rbp)
   113d4:	48 8d 85 fc f5 ff ff 	lea    -0xa04(%rbp),%rax
   113db:	48 89 85 d0 f6 ff ff 	mov    %rax,-0x930(%rbp)
   113e2:	48 8d 85 fc f5 ff ff 	lea    -0xa04(%rbp),%rax
   113e9:	48 89 85 d8 f6 ff ff 	mov    %rax,-0x928(%rbp)
   113f0:	48 c7 85 e0 f6 ff ff 	movq   $0x0,-0x920(%rbp)
   113f7:	00 00 00 00 
   113fb:	48 c7 85 e8 f6 ff ff 	movq   $0x0,-0x918(%rbp)
   11402:	00 00 00 00 
   11406:	48 c7 85 f0 f6 ff ff 	movq   $0x0,-0x910(%rbp)
   1140d:	00 00 00 00 
   11411:	48 8d 85 fc f5 ff ff 	lea    -0xa04(%rbp),%rax
   11418:	48 89 85 f8 f6 ff ff 	mov    %rax,-0x908(%rbp)
   1141f:	48 8d 85 fc f5 ff ff 	lea    -0xa04(%rbp),%rax
   11426:	48 89 85 00 f7 ff ff 	mov    %rax,-0x900(%rbp)
   1142d:	48 c7 85 08 f7 ff ff 	movq   $0x0,-0x8f8(%rbp)
   11434:	00 00 00 00 
   11438:	48 c7 85 10 f7 ff ff 	movq   $0x0,-0x8f0(%rbp)
   1143f:	00 00 00 00 
   11443:	48 c7 85 18 f7 ff ff 	movq   $0x0,-0x8e8(%rbp)
   1144a:	00 00 00 00 
   1144e:	48 8d 85 fc f5 ff ff 	lea    -0xa04(%rbp),%rax
   11455:	48 89 85 20 f7 ff ff 	mov    %rax,-0x8e0(%rbp)
   1145c:	48 8d 85 fc f5 ff ff 	lea    -0xa04(%rbp),%rax
   11463:	48 89 85 28 f7 ff ff 	mov    %rax,-0x8d8(%rbp)
   1146a:	48 c7 85 30 f7 ff ff 	movq   $0x0,-0x8d0(%rbp)
   11471:	00 00 00 00 
   11475:	48 c7 85 38 f7 ff ff 	movq   $0x0,-0x8c8(%rbp)
   1147c:	00 00 00 00 
   11480:	48 c7 85 40 f7 ff ff 	movq   $0x0,-0x8c0(%rbp)
   11487:	00 00 00 00 
   1148b:	48 8d 85 fc f5 ff ff 	lea    -0xa04(%rbp),%rax
   11492:	48 89 85 48 f7 ff ff 	mov    %rax,-0x8b8(%rbp)
   11499:	48 8d 85 fc f5 ff ff 	lea    -0xa04(%rbp),%rax
   114a0:	48 89 85 50 f7 ff ff 	mov    %rax,-0x8b0(%rbp)
   114a7:	48 c7 85 58 f7 ff ff 	movq   $0x0,-0x8a8(%rbp)
   114ae:	00 00 00 00 
   114b2:	48 c7 85 60 f7 ff ff 	movq   $0x0,-0x8a0(%rbp)
   114b9:	00 00 00 00 
   114bd:	48 c7 85 68 f7 ff ff 	movq   $0x0,-0x898(%rbp)
   114c4:	00 00 00 00 
   114c8:	48 8d 85 fc f5 ff ff 	lea    -0xa04(%rbp),%rax
   114cf:	48 89 85 70 f7 ff ff 	mov    %rax,-0x890(%rbp)
   114d6:	48 8d 85 fc f5 ff ff 	lea    -0xa04(%rbp),%rax
   114dd:	48 89 85 78 f7 ff ff 	mov    %rax,-0x888(%rbp)
   114e4:	48 c7 85 80 f7 ff ff 	movq   $0x0,-0x880(%rbp)
   114eb:	00 00 00 00 
   114ef:	48 c7 85 88 f7 ff ff 	movq   $0x0,-0x878(%rbp)
   114f6:	00 00 00 00 
   114fa:	48 c7 85 90 f7 ff ff 	movq   $0x0,-0x870(%rbp)
   11501:	00 00 00 00 
   11505:	48 8d 85 fc f5 ff ff 	lea    -0xa04(%rbp),%rax
   1150c:	48 89 85 98 f7 ff ff 	mov    %rax,-0x868(%rbp)
   11513:	48 8d 85 fc f5 ff ff 	lea    -0xa04(%rbp),%rax
   1151a:	48 89 85 a0 f7 ff ff 	mov    %rax,-0x860(%rbp)
   11521:	48 c7 85 a8 f7 ff ff 	movq   $0x0,-0x858(%rbp)
   11528:	00 00 00 00 
   1152c:	48 c7 85 b0 f7 ff ff 	movq   $0x0,-0x850(%rbp)
   11533:	00 00 00 00 
   11537:	48 c7 85 b8 f7 ff ff 	movq   $0x0,-0x848(%rbp)
   1153e:	00 00 00 00 
   11542:	48 8d 85 fc f5 ff ff 	lea    -0xa04(%rbp),%rax
   11549:	48 89 85 c0 f7 ff ff 	mov    %rax,-0x840(%rbp)
   11550:	48 8d 85 fc f5 ff ff 	lea    -0xa04(%rbp),%rax
   11557:	48 89 85 c8 f7 ff ff 	mov    %rax,-0x838(%rbp)
   1155e:	48 c7 85 d0 f7 ff ff 	movq   $0x0,-0x830(%rbp)
   11565:	00 00 00 00 
   11569:	48 c7 85 d8 f7 ff ff 	movq   $0x0,-0x828(%rbp)
   11570:	00 00 00 00 
   11574:	48 c7 85 e0 f7 ff ff 	movq   $0x0,-0x820(%rbp)
   1157b:	00 00 00 00 
   1157f:	48 8d 85 fc f5 ff ff 	lea    -0xa04(%rbp),%rax
   11586:	48 89 85 e8 f7 ff ff 	mov    %rax,-0x818(%rbp)
   1158d:	48 8d 85 fc f5 ff ff 	lea    -0xa04(%rbp),%rax
   11594:	48 89 85 f0 f7 ff ff 	mov    %rax,-0x810(%rbp)
   1159b:	48 c7 85 f8 f7 ff ff 	movq   $0x0,-0x808(%rbp)
   115a2:	00 00 00 00 
   115a6:	48 c7 85 00 f8 ff ff 	movq   $0x0,-0x800(%rbp)
   115ad:	00 00 00 00 
   115b1:	48 c7 85 08 f8 ff ff 	movq   $0x0,-0x7f8(%rbp)
   115b8:	00 00 00 00 
   115bc:	48 8d 85 fc f5 ff ff 	lea    -0xa04(%rbp),%rax
   115c3:	48 89 85 10 f8 ff ff 	mov    %rax,-0x7f0(%rbp)
   115ca:	48 8d 85 fc f5 ff ff 	lea    -0xa04(%rbp),%rax
   115d1:	48 89 85 18 f8 ff ff 	mov    %rax,-0x7e8(%rbp)
   115d8:	48 c7 85 20 f8 ff ff 	movq   $0x0,-0x7e0(%rbp)
   115df:	00 00 00 00 
   115e3:	48 c7 85 28 f8 ff ff 	movq   $0x0,-0x7d8(%rbp)
   115ea:	00 00 00 00 
   115ee:	48 c7 85 30 f8 ff ff 	movq   $0x0,-0x7d0(%rbp)
   115f5:	00 00 00 00 
   115f9:	66 c7 85 fa f5 ff ff 	movw   $0x24a4,-0xa06(%rbp)
   11600:	a4 24 
   11602:	48 8d 05 49 07 01 00 	lea    0x10749(%rip),%rax        # 21d52 <g_965>
   11609:	48 89 85 10 f6 ff ff 	mov    %rax,-0x9f0(%rbp)
   11610:	48 8d 85 10 f6 ff ff 	lea    -0x9f0(%rbp),%rax
   11617:	48 89 85 18 f6 ff ff 	mov    %rax,-0x9e8(%rbp)
   1161e:	48 8d 85 18 f6 ff ff 	lea    -0x9e8(%rbp),%rax
   11625:	48 89 85 40 f6 ff ff 	mov    %rax,-0x9c0(%rbp)
   1162c:	66 c7 05 05 ea 00 00 	movw   $0xfff0,0xea05(%rip)        # 2003a <g_96>
   11633:	f0 ff 
   11635:	e9 74 01 00 00       	jmpq   117ae <func_51+0x47d>
   1163a:	c7 85 04 f6 ff ff 00 	movl   $0x0,-0x9fc(%rbp)
   11641:	00 00 00 
   11644:	eb 1a                	jmp    11660 <func_51+0x32f>
   11646:	8b 85 04 f6 ff ff    	mov    -0x9fc(%rbp),%eax
   1164c:	48 98                	cltq   
   1164e:	c7 84 85 a0 f6 ff ff 	movl   $0x0,-0x960(%rbp,%rax,4)
   11655:	00 00 00 00 
   11659:	83 85 04 f6 ff ff 01 	addl   $0x1,-0x9fc(%rbp)
   11660:	83 bd 04 f6 ff ff 07 	cmpl   $0x7,-0x9fc(%rbp)
   11667:	7e dd                	jle    11646 <func_51+0x315>
   11669:	8b 85 a0 f6 ff ff    	mov    -0x960(%rbp),%eax
   1166f:	85 c0                	test   %eax,%eax
   11671:	0f 85 4a 01 00 00    	jne    117c1 <func_51+0x490>
   11677:	c6 05 b3 e9 00 00 12 	movb   $0x12,0xe9b3(%rip)        # 20031 <g_72>
   1167e:	e9 f9 00 00 00       	jmpq   1177c <func_51+0x44b>
   11683:	48 c7 85 80 f6 ff ff 	movq   $0xffffffffffffffff,-0x980(%rbp)
   1168a:	ff ff ff ff 
   1168e:	66 c7 85 88 f6 ff ff 	movw   $0xffff,-0x978(%rbp)
   11695:	ff ff 
   11697:	48 c7 85 8a f6 ff ff 	movq   $0xffffffffffffffff,-0x976(%rbp)
   1169e:	ff ff ff ff 
   116a2:	66 c7 85 92 f6 ff ff 	movw   $0xffff,-0x96e(%rbp)
   116a9:	ff ff 
   116ab:	48 c7 85 94 f6 ff ff 	movq   $0xffffffffffffffff,-0x96c(%rbp)
   116b2:	ff ff ff ff 
   116b6:	66 c7 85 9c f6 ff ff 	movw   $0xffff,-0x964(%rbp)
   116bd:	ff ff 
   116bf:	48 8d 05 b0 01 01 00 	lea    0x101b0(%rip),%rax        # 21876 <g_357>
   116c6:	48 89 85 48 f6 ff ff 	mov    %rax,-0x9b8(%rbp)
   116cd:	48 8b 05 9c 59 01 00 	mov    0x1599c(%rip),%rax        # 27070 <g_740>
   116d4:	8b 00                	mov    (%rax),%eax
   116d6:	85 c0                	test   %eax,%eax
   116d8:	0f 85 af 00 00 00    	jne    1178d <func_51+0x45c>
   116de:	8b 85 ac f6 ff ff    	mov    -0x954(%rbp),%eax
   116e4:	0f b7 c0             	movzwl %ax,%eax
   116e7:	89 c6                	mov    %eax,%esi
   116e9:	bf 01 00 00 00       	mov    $0x1,%edi
   116ee:	e8 2c 96 ff ff       	callq  ad1f <safe_sub_func_uint16_t_u_u>
   116f3:	0f b6 85 82 f6 ff ff 	movzbl -0x97e(%rbp),%eax
   116fa:	0f b6 c0             	movzbl %al,%eax
   116fd:	89 c7                	mov    %eax,%edi
   116ff:	e8 92 8e ff ff       	callq  a596 <safe_unary_minus_func_int32_t_s>
   11704:	48 8b 85 48 f6 ff ff 	mov    -0x9b8(%rbp),%rax
   1170b:	0f b6 00             	movzbl (%rax),%eax
   1170e:	83 c8 01             	or     $0x1,%eax
   11711:	89 c2                	mov    %eax,%edx
   11713:	48 8b 85 48 f6 ff ff 	mov    -0x9b8(%rbp),%rax
   1171a:	88 10                	mov    %dl,(%rax)
   1171c:	be 00 00 00 00       	mov    $0x0,%esi
   11721:	bf fd 00 00 00       	mov    $0xfd,%edi
   11726:	e8 93 95 ff ff       	callq  acbe <safe_rshift_func_uint8_t_u_u>
   1172b:	0f b6 c0             	movzbl %al,%eax
   1172e:	be 04 00 00 00       	mov    $0x4,%esi
   11733:	89 c7                	mov    %eax,%edi
   11735:	e8 f0 8d ff ff       	callq  a52a <safe_rshift_func_int16_t_s_s>
   1173a:	be 04 00 00 00       	mov    $0x4,%esi
   1173f:	bf 01 00 00 00       	mov    $0x1,%edi
   11744:	e8 e1 8d ff ff       	callq  a52a <safe_rshift_func_int16_t_s_s>
   11749:	48 8b 15 20 59 01 00 	mov    0x15920(%rip),%rdx        # 27070 <g_740>
   11750:	8b 0a                	mov    (%rdx),%ecx
   11752:	0f bf d0             	movswl %ax,%edx
   11755:	48 8b 05 14 59 01 00 	mov    0x15914(%rip),%rax        # 27070 <g_740>
   1175c:	09 ca                	or     %ecx,%edx
   1175e:	89 10                	mov    %edx,(%rax)
   11760:	0f b6 05 ca e8 00 00 	movzbl 0xe8ca(%rip),%eax        # 20031 <g_72>
   11767:	0f be c0             	movsbl %al,%eax
   1176a:	be 05 00 00 00       	mov    $0x5,%esi
   1176f:	89 c7                	mov    %eax,%edi
   11771:	e8 5e 8a ff ff       	callq  a1d4 <safe_add_func_int8_t_s_s>
   11776:	88 05 b5 e8 00 00    	mov    %al,0xe8b5(%rip)        # 20031 <g_72>
   1177c:	0f b6 05 ae e8 00 00 	movzbl 0xe8ae(%rip),%eax        # 20031 <g_72>
   11783:	3c 12                	cmp    $0x12,%al
   11785:	0f 8f f8 fe ff ff    	jg     11683 <func_51+0x352>
   1178b:	eb 01                	jmp    1178e <func_51+0x45d>
   1178d:	90                   	nop
   1178e:	0f b7 05 a5 e8 00 00 	movzwl 0xe8a5(%rip),%eax        # 2003a <g_96>
   11795:	0f b6 c0             	movzbl %al,%eax
   11798:	be 09 00 00 00       	mov    $0x9,%esi
   1179d:	89 c7                	mov    %eax,%edi
   1179f:	e8 b6 93 ff ff       	callq  ab5a <safe_add_func_uint8_t_u_u>
   117a4:	0f b6 c0             	movzbl %al,%eax
   117a7:	66 89 05 8c e8 00 00 	mov    %ax,0xe88c(%rip)        # 2003a <g_96>
   117ae:	0f b7 05 85 e8 00 00 	movzwl 0xe885(%rip),%eax        # 2003a <g_96>
   117b5:	66 83 f8 38          	cmp    $0x38,%ax
   117b9:	0f 85 7b fe ff ff    	jne    1163a <func_51+0x309>
   117bf:	eb 01                	jmp    117c2 <func_51+0x491>
   117c1:	90                   	nop
   117c2:	48 8b 85 20 f6 ff ff 	mov    -0x9e0(%rbp),%rax
   117c9:	c7 00 00 00 00 00    	movl   $0x0,(%rax)
   117cf:	48 8b 85 20 f6 ff ff 	mov    -0x9e0(%rbp),%rax
   117d6:	8b 00                	mov    (%rax),%eax
   117d8:	89 c7                	mov    %eax,%edi
   117da:	e8 c7 96 ff ff       	callq  aea6 <safe_unary_minus_func_uint32_t_u>
   117df:	85 c0                	test   %eax,%eax
   117e1:	74 0b                	je     117ee <func_51+0x4bd>
   117e3:	8b 85 e8 f5 ff ff    	mov    -0xa18(%rbp),%eax
   117e9:	e9 51 06 00 00       	jmpq   11e3f <func_51+0xb0e>
   117ee:	48 8d 05 81 00 01 00 	lea    0x10081(%rip),%rax        # 21876 <g_357>
   117f5:	48 89 85 50 f6 ff ff 	mov    %rax,-0x9b0(%rbp)
   117fc:	c7 85 0c f6 ff ff fe 	movl   $0xfffffffe,-0x9f4(%rbp)
   11803:	ff ff ff 
   11806:	48 8d 05 63 58 01 00 	lea    0x15863(%rip),%rax        # 27070 <g_740>
   1180d:	48 89 85 58 f6 ff ff 	mov    %rax,-0x9a8(%rbp)
   11814:	48 8d 05 35 e8 00 00 	lea    0xe835(%rip),%rax        # 20050 <g_147>
   1181b:	48 89 85 60 f6 ff ff 	mov    %rax,-0x9a0(%rbp)
   11822:	48 8b 05 47 58 01 00 	mov    0x15847(%rip),%rax        # 27070 <g_740>
   11829:	c7 00 f6 ff ff ff    	movl   $0xfffffff6,(%rax)
   1182f:	8b 85 08 f6 ff ff    	mov    -0x9f8(%rbp),%eax
   11835:	0f bf d8             	movswl %ax,%ebx
   11838:	48 8b 85 e0 f5 ff ff 	mov    -0xa20(%rbp),%rax
   1183f:	0f b6 00             	movzbl (%rax),%eax
   11842:	0f b6 d0             	movzbl %al,%edx
   11845:	48 83 bd 28 f6 ff ff 	cmpq   $0x0,-0x9d8(%rbp)
   1184c:	00 
   1184d:	0f 94 c0             	sete   %al
   11850:	0f b6 c0             	movzbl %al,%eax
   11853:	89 d6                	mov    %edx,%esi
   11855:	89 c7                	mov    %eax,%edi
   11857:	e8 7f 93 ff ff       	callq  abdb <safe_div_func_uint8_t_u_u>
   1185c:	48 8b 95 50 f6 ff ff 	mov    -0x9b0(%rbp),%rdx
   11863:	88 02                	mov    %al,(%rdx)
   11865:	48 8b 85 50 f6 ff ff 	mov    -0x9b0(%rbp),%rax
   1186c:	0f b6 00             	movzbl (%rax),%eax
   1186f:	0f b6 c0             	movzbl %al,%eax
   11872:	be 07 00 00 00       	mov    $0x7,%esi
   11877:	89 c7                	mov    %eax,%edi
   11879:	e8 ce 93 ff ff       	callq  ac4c <safe_lshift_func_uint8_t_u_u>
   1187e:	8b 85 0c f6 ff ff    	mov    -0x9f4(%rbp),%eax
   11884:	44 0f b6 e0          	movzbl %al,%r12d
   11888:	8b 85 ec f5 ff ff    	mov    -0xa14(%rbp),%eax
   1188e:	25 ff ff ff 3f       	and    $0x3fffffff,%eax
   11893:	41 89 c5             	mov    %eax,%r13d
   11896:	8b 95 0c f6 ff ff    	mov    -0x9f4(%rbp),%edx
   1189c:	8b 85 0c f6 ff ff    	mov    -0x9f4(%rbp),%eax
   118a2:	98                   	cwtl   
   118a3:	89 d6                	mov    %edx,%esi
   118a5:	89 c7                	mov    %eax,%edi
   118a7:	e8 35 8c ff ff       	callq  a4e1 <safe_lshift_func_int16_t_s_u>
   118ac:	98                   	cwtl   
   118ad:	41 39 c5             	cmp    %eax,%r13d
   118b0:	0f 9d c2             	setge  %dl
   118b3:	48 8b 05 b6 fc 00 00 	mov    0xfcb6(%rip),%rax        # 21570 <g_293>
   118ba:	48 c1 e8 37          	shr    $0x37,%rax
   118be:	48 89 c1             	mov    %rax,%rcx
   118c1:	48 8b 05 b0 fc 00 00 	mov    0xfcb0(%rip),%rax        # 21578 <g_293+0x8>
   118c8:	25 ff ff 01 00       	and    $0x1ffff,%eax
   118cd:	48 c1 e0 09          	shl    $0x9,%rax
   118d1:	48 09 c8             	or     %rcx,%rax
   118d4:	48 c1 e0 26          	shl    $0x26,%rax
   118d8:	48 c1 f8 26          	sar    $0x26,%rax
   118dc:	83 f8 ff             	cmp    $0xffffffff,%eax
   118df:	74 07                	je     118e8 <func_51+0x5b7>
   118e1:	b8 01 00 00 00       	mov    $0x1,%eax
   118e6:	eb 05                	jmp    118ed <func_51+0x5bc>
   118e8:	b8 00 00 00 00       	mov    $0x0,%eax
   118ed:	83 e0 01             	and    $0x1,%eax
   118f0:	21 d0                	and    %edx,%eax
   118f2:	0f b6 c0             	movzbl %al,%eax
   118f5:	44 89 e6             	mov    %r12d,%esi
   118f8:	89 c7                	mov    %eax,%edi
   118fa:	e8 94 92 ff ff       	callq  ab93 <safe_mul_func_uint8_t_u_u>
   118ff:	48 8b 05 82 57 01 00 	mov    0x15782(%rip),%rax        # 27088 <g_956>
   11906:	b9 a3 25 5b cc       	mov    $0xcc5b25a3,%ecx
   1190b:	48 89 08             	mov    %rcx,(%rax)
   1190e:	8b 85 ec f5 ff ff    	mov    -0xa14(%rbp),%eax
   11914:	25 ff ff ff 3f       	and    $0x3fffffff,%eax
   11919:	89 c2                	mov    %eax,%edx
   1191b:	8b 85 e8 f5 ff ff    	mov    -0xa18(%rbp),%eax
   11921:	89 c0                	mov    %eax,%eax
   11923:	48 89 d6             	mov    %rdx,%rsi
   11926:	48 89 c7             	mov    %rax,%rdi
   11929:	e8 c9 90 ff ff       	callq  a9f7 <safe_div_func_int64_t_s_s>
   1192e:	98                   	cwtl   
   1192f:	89 de                	mov    %ebx,%esi
   11931:	89 c7                	mov    %eax,%edi
   11933:	e8 de 8a ff ff       	callq  a416 <safe_mod_func_int16_t_s_s>
   11938:	89 c2                	mov    %eax,%edx
   1193a:	48 8b 05 1f 57 01 00 	mov    0x1571f(%rip),%rax        # 27060 <g_592>
   11941:	0f bf d2             	movswl %dx,%edx
   11944:	89 10                	mov    %edx,(%rax)
   11946:	8b 85 ec f5 ff ff    	mov    -0xa14(%rbp),%eax
   1194c:	25 ff ff ff 3f       	and    $0x3fffffff,%eax
   11951:	41 89 c4             	mov    %eax,%r12d
   11954:	48 8b 85 58 f6 ff ff 	mov    -0x9a8(%rbp),%rax
   1195b:	48 8b 00             	mov    (%rax),%rax
   1195e:	8b 00                	mov    (%rax),%eax
   11960:	0f b6 d8             	movzbl %al,%ebx
   11963:	8b 85 e8 f5 ff ff    	mov    -0xa18(%rbp),%eax
   11969:	0f b7 d0             	movzwl %ax,%edx
   1196c:	48 8b 85 e0 f5 ff ff 	mov    -0xa20(%rbp),%rax
   11973:	0f b6 00             	movzbl (%rax),%eax
   11976:	84 c0                	test   %al,%al
   11978:	74 17                	je     11991 <func_51+0x660>
   1197a:	48 8b 85 58 f6 ff ff 	mov    -0x9a8(%rbp),%rax
   11981:	48 8b 00             	mov    (%rax),%rax
   11984:	8b 00                	mov    (%rax),%eax
   11986:	85 c0                	test   %eax,%eax
   11988:	74 07                	je     11991 <func_51+0x660>
   1198a:	b8 01 00 00 00       	mov    $0x1,%eax
   1198f:	eb 05                	jmp    11996 <func_51+0x665>
   11991:	b8 00 00 00 00       	mov    $0x0,%eax
   11996:	0f b7 c0             	movzwl %ax,%eax
   11999:	89 d6                	mov    %edx,%esi
   1199b:	89 c7                	mov    %eax,%edi
   1199d:	e8 9b 93 ff ff       	callq  ad3d <safe_mul_func_uint16_t_u_u>
   119a2:	be 00 00 00 00       	mov    $0x0,%esi
   119a7:	bf 07 00 00 00       	mov    $0x7,%edi
   119ac:	e8 07 95 ff ff       	callq  aeb8 <safe_add_func_uint32_t_u_u>
   119b1:	89 c2                	mov    %eax,%edx
   119b3:	48 8b 85 50 f6 ff ff 	mov    -0x9b0(%rbp),%rax
   119ba:	88 10                	mov    %dl,(%rax)
   119bc:	48 8b 85 50 f6 ff ff 	mov    -0x9b0(%rbp),%rax
   119c3:	0f b6 00             	movzbl (%rax),%eax
   119c6:	0f b6 c0             	movzbl %al,%eax
   119c9:	89 de                	mov    %ebx,%esi
   119cb:	89 c7                	mov    %eax,%edi
   119cd:	e8 09 92 ff ff       	callq  abdb <safe_div_func_uint8_t_u_u>
   119d2:	0f b6 c0             	movzbl %al,%eax
   119d5:	44 89 e1             	mov    %r12d,%ecx
   119d8:	21 c1                	and    %eax,%ecx
   119da:	48 8b 85 60 f6 ff ff 	mov    -0x9a0(%rbp),%rax
   119e1:	48 8b 10             	mov    (%rax),%rdx
   119e4:	48 63 c1             	movslq %ecx,%rax
   119e7:	48 09 c2             	or     %rax,%rdx
   119ea:	48 8b 85 60 f6 ff ff 	mov    -0x9a0(%rbp),%rax
   119f1:	48 89 10             	mov    %rdx,(%rax)
   119f4:	48 8b 85 60 f6 ff ff 	mov    -0x9a0(%rbp),%rax
   119fb:	48 8b 10             	mov    (%rax),%rdx
   119fe:	48 8b 05 83 56 01 00 	mov    0x15683(%rip),%rax        # 27088 <g_956>
   11a05:	48 8b 00             	mov    (%rax),%rax
   11a08:	48 09 d0             	or     %rdx,%rax
   11a0b:	48 85 c0             	test   %rax,%rax
   11a0e:	75 0f                	jne    11a1f <func_51+0x6ee>
   11a10:	48 8b 05 91 55 01 00 	mov    0x15591(%rip),%rax        # 26fa8 <g_104>
   11a17:	0f b7 00             	movzwl (%rax),%eax
   11a1a:	66 85 c0             	test   %ax,%ax
   11a1d:	74 07                	je     11a26 <func_51+0x6f5>
   11a1f:	b8 01 00 00 00       	mov    $0x1,%eax
   11a24:	eb 05                	jmp    11a2b <func_51+0x6fa>
   11a26:	b8 00 00 00 00       	mov    $0x0,%eax
   11a2b:	89 c2                	mov    %eax,%edx
   11a2d:	8b 85 e8 f5 ff ff    	mov    -0xa18(%rbp),%eax
   11a33:	39 c2                	cmp    %eax,%edx
   11a35:	76 0c                	jbe    11a43 <func_51+0x712>
   11a37:	48 8b 85 e0 f5 ff ff 	mov    -0xa20(%rbp),%rax
   11a3e:	0f b6 00             	movzbl (%rax),%eax
   11a41:	84 c0                	test   %al,%al
   11a43:	48 8b 05 46 56 01 00 	mov    0x15646(%rip),%rax        # 27090 <g_955>
   11a4a:	48 8b 00             	mov    (%rax),%rax
   11a4d:	48 8b 00             	mov    (%rax),%rax
   11a50:	48 85 c0             	test   %rax,%rax
   11a53:	75 09                	jne    11a5e <func_51+0x72d>
   11a55:	83 bd 08 f6 ff ff 00 	cmpl   $0x0,-0x9f8(%rbp)
   11a5c:	74 07                	je     11a65 <func_51+0x734>
   11a5e:	b8 01 00 00 00       	mov    $0x1,%eax
   11a63:	eb 05                	jmp    11a6a <func_51+0x739>
   11a65:	b8 00 00 00 00       	mov    $0x0,%eax
   11a6a:	98                   	cwtl   
   11a6b:	be 0c 00 00 00       	mov    $0xc,%esi
   11a70:	89 c7                	mov    %eax,%edi
   11a72:	e8 1b 8a ff ff       	callq  a492 <safe_lshift_func_int16_t_s_s>
   11a77:	0f bf d0             	movswl %ax,%edx
   11a7a:	8b 85 fc f5 ff ff    	mov    -0xa04(%rbp),%eax
   11a80:	21 d0                	and    %edx,%eax
   11a82:	89 85 fc f5 ff ff    	mov    %eax,-0xa04(%rbp)
   11a88:	48 8b 05 59 56 01 00 	mov    0x15659(%rip),%rax        # 270e8 <g_1041>
   11a8f:	48 8d 15 6a 55 01 00 	lea    0x1556a(%rip),%rdx        # 27000 <g_146+0x40>
   11a96:	48 89 10             	mov    %rdx,(%rax)
   11a99:	8b 85 ec f5 ff ff    	mov    -0xa14(%rbp),%eax
   11a9f:	25 ff ff ff 3f       	and    $0x3fffffff,%eax
   11aa4:	41 89 c5             	mov    %eax,%r13d
   11aa7:	48 8b 85 e0 f5 ff ff 	mov    -0xa20(%rbp),%rax
   11aae:	0f b6 00             	movzbl (%rax),%eax
   11ab1:	44 0f be e0          	movsbl %al,%r12d
   11ab5:	8b 05 a9 e7 00 00    	mov    0xe7a9(%rip),%eax        # 20264 <g_214+0x4>
   11abb:	c1 e0 09             	shl    $0x9,%eax
   11abe:	c1 f8 09             	sar    $0x9,%eax
   11ac1:	0f b6 d8             	movzbl %al,%ebx
   11ac4:	8b 85 e8 f5 ff ff    	mov    -0xa18(%rbp),%eax
   11aca:	41 89 c6             	mov    %eax,%r14d
   11acd:	48 8b 05 bc 55 01 00 	mov    0x155bc(%rip),%rax        # 27090 <g_955>
   11ad4:	48 8b 00             	mov    (%rax),%rax
   11ad7:	48 8b 00             	mov    (%rax),%rax
   11ada:	49 89 c7             	mov    %rax,%r15
   11add:	48 8b 05 c4 54 01 00 	mov    0x154c4(%rip),%rax        # 26fa8 <g_104>
   11ae4:	0f b7 00             	movzwl (%rax),%eax
   11ae7:	98                   	cwtl   
   11ae8:	be 03 00 00 00       	mov    $0x3,%esi
   11aed:	89 c7                	mov    %eax,%edi
   11aef:	e8 ed 89 ff ff       	callq  a4e1 <safe_lshift_func_int16_t_s_u>
   11af4:	0f bf d0             	movswl %ax,%edx
   11af7:	48 8b 85 20 f6 ff ff 	mov    -0x9e0(%rbp),%rax
   11afe:	8b 00                	mov    (%rax),%eax
   11b00:	8b 8d fc f5 ff ff    	mov    -0xa04(%rbp),%ecx
   11b06:	09 c1                	or     %eax,%ecx
   11b08:	48 8b 85 20 f6 ff ff 	mov    -0x9e0(%rbp),%rax
   11b0f:	89 08                	mov    %ecx,(%rax)
   11b11:	48 8b 85 20 f6 ff ff 	mov    -0x9e0(%rbp),%rax
   11b18:	8b 00                	mov    (%rax),%eax
   11b1a:	85 c0                	test   %eax,%eax
   11b1c:	75 09                	jne    11b27 <func_51+0x7f6>
   11b1e:	83 bd 08 f6 ff ff 00 	cmpl   $0x0,-0x9f8(%rbp)
   11b25:	74 1a                	je     11b41 <func_51+0x810>
   11b27:	83 bd 08 f6 ff ff 00 	cmpl   $0x0,-0x9f8(%rbp)
   11b2e:	7f 11                	jg     11b41 <func_51+0x810>
   11b30:	8b 85 fc f5 ff ff    	mov    -0xa04(%rbp),%eax
   11b36:	85 c0                	test   %eax,%eax
   11b38:	74 07                	je     11b41 <func_51+0x810>
   11b3a:	b8 01 00 00 00       	mov    $0x1,%eax
   11b3f:	eb 05                	jmp    11b46 <func_51+0x815>
   11b41:	b8 00 00 00 00       	mov    $0x0,%eax
   11b46:	39 d0                	cmp    %edx,%eax
   11b48:	0f 9d c0             	setge  %al
   11b4b:	0f b6 c0             	movzbl %al,%eax
   11b4e:	48 f7 d0             	not    %rax
   11b51:	48 89 c2             	mov    %rax,%rdx
   11b54:	48 8b 05 4d 54 01 00 	mov    0x1544d(%rip),%rax        # 26fa8 <g_104>
   11b5b:	0f b7 00             	movzwl (%rax),%eax
   11b5e:	48 0f bf c0          	movswq %ax,%rax
   11b62:	48 39 c2             	cmp    %rax,%rdx
   11b65:	0f 9e c0             	setle  %al
   11b68:	0f b6 c0             	movzbl %al,%eax
   11b6b:	4c 89 fe             	mov    %r15,%rsi
   11b6e:	48 89 c7             	mov    %rax,%rdi
   11b71:	e8 39 95 ff ff       	callq  b0af <safe_div_func_uint64_t_u_u>
   11b76:	48 8b 95 30 f6 ff ff 	mov    -0x9d0(%rbp),%rdx
   11b7d:	0f b7 12             	movzwl (%rdx),%edx
   11b80:	21 d0                	and    %edx,%eax
   11b82:	89 c2                	mov    %eax,%edx
   11b84:	48 8b 85 30 f6 ff ff 	mov    -0x9d0(%rbp),%rax
   11b8b:	66 89 10             	mov    %dx,(%rax)
   11b8e:	48 8b 85 30 f6 ff ff 	mov    -0x9d0(%rbp),%rax
   11b95:	0f b7 00             	movzwl (%rax),%eax
   11b98:	98                   	cwtl   
   11b99:	be 01 00 00 00       	mov    $0x1,%esi
   11b9e:	89 c7                	mov    %eax,%edi
   11ba0:	e8 3c 89 ff ff       	callq  a4e1 <safe_lshift_func_int16_t_s_u>
   11ba5:	98                   	cwtl   
   11ba6:	44 89 f6             	mov    %r14d,%esi
   11ba9:	89 c7                	mov    %eax,%edi
   11bab:	e8 06 8a ff ff       	callq  a5b6 <safe_add_func_int32_t_s_s>
   11bb0:	8b 85 ec f5 ff ff    	mov    -0xa14(%rbp),%eax
   11bb6:	25 ff ff ff 3f       	and    $0x3fffffff,%eax
   11bbb:	89 c7                	mov    %eax,%edi
   11bbd:	48 8b 85 38 f6 ff ff 	mov    -0x9c8(%rbp),%rax
   11bc4:	49 89 c0             	mov    %rax,%r8
   11bc7:	44 89 e1             	mov    %r12d,%ecx
   11bca:	89 da                	mov    %ebx,%edx
   11bcc:	be 7b 00 00 00       	mov    $0x7b,%esi
   11bd1:	e8 8f 02 00 00       	callq  11e65 <func_54>
   11bd6:	48 8b 05 cb 53 01 00 	mov    0x153cb(%rip),%rax        # 26fa8 <g_104>
   11bdd:	0f b7 00             	movzwl (%rax),%eax
   11be0:	0f bf d0             	movswl %ax,%edx
   11be3:	48 8b 05 6e 54 01 00 	mov    0x1546e(%rip),%rax        # 27058 <g_574>
   11bea:	48 8b 00             	mov    (%rax),%rax
   11bed:	0f b7 00             	movzwl (%rax),%eax
   11bf0:	0f b7 c0             	movzwl %ax,%eax
   11bf3:	39 c2                	cmp    %eax,%edx
   11bf5:	7e 07                	jle    11bfe <func_51+0x8cd>
   11bf7:	b8 c8 ff ff ff       	mov    $0xffffffc8,%eax
   11bfc:	eb 05                	jmp    11c03 <func_51+0x8d2>
   11bfe:	b8 c9 ff ff ff       	mov    $0xffffffc9,%eax
   11c03:	44 89 ee             	mov    %r13d,%esi
   11c06:	89 c7                	mov    %eax,%edi
   11c08:	e8 5f 87 ff ff       	callq  a36c <safe_rshift_func_int8_t_s_u>
   11c0d:	0f be c0             	movsbl %al,%eax
   11c10:	8b 95 ec f5 ff ff    	mov    -0xa14(%rbp),%edx
   11c16:	81 e2 ff ff ff 3f    	and    $0x3fffffff,%edx
   11c1c:	39 d0                	cmp    %edx,%eax
   11c1e:	0f 9d c0             	setge  %al
   11c21:	0f b6 d0             	movzbl %al,%edx
   11c24:	48 8b 85 e0 f5 ff ff 	mov    -0xa20(%rbp),%rax
   11c2b:	0f b6 00             	movzbl (%rax),%eax
   11c2e:	0f be c0             	movsbl %al,%eax
   11c31:	39 c2                	cmp    %eax,%edx
   11c33:	0f 8e 83 00 00 00    	jle    11cbc <func_51+0x98b>
   11c39:	c6 05 36 fc 00 00 00 	movb   $0x0,0xfc36(%rip)        # 21876 <g_357>
   11c40:	90                   	nop
   11c41:	0f b6 05 2e fc 00 00 	movzbl 0xfc2e(%rip),%eax        # 21876 <g_357>
   11c48:	3c 02                	cmp    $0x2,%al
   11c4a:	77 5e                	ja     11caa <func_51+0x979>
   11c4c:	66 c7 05 23 fc 00 00 	movw   $0x0,0xfc23(%rip)        # 21878 <g_393>
   11c53:	00 00 
   11c55:	eb 25                	jmp    11c7c <func_51+0x94b>
   11c57:	48 8b 15 8a 54 01 00 	mov    0x1548a(%rip),%rdx        # 270e8 <g_1041>
   11c5e:	48 8b 05 8b 54 01 00 	mov    0x1548b(%rip),%rax        # 270f0 <g_1055>
   11c65:	48 8b 12             	mov    (%rdx),%rdx
   11c68:	48 89 10             	mov    %rdx,(%rax)
   11c6b:	0f b7 05 06 fc 00 00 	movzwl 0xfc06(%rip),%eax        # 21878 <g_393>
   11c72:	83 c0 01             	add    $0x1,%eax
   11c75:	66 89 05 fc fb 00 00 	mov    %ax,0xfbfc(%rip)        # 21878 <g_393>
   11c7c:	0f b7 05 f5 fb 00 00 	movzwl 0xfbf5(%rip),%eax        # 21878 <g_393>
   11c83:	66 83 f8 02          	cmp    $0x2,%ax
   11c87:	7e ce                	jle    11c57 <func_51+0x926>
   11c89:	0f b6 05 e6 fb 00 00 	movzbl 0xfbe6(%rip),%eax        # 21876 <g_357>
   11c90:	0f b6 c0             	movzbl %al,%eax
   11c93:	83 c0 04             	add    $0x4,%eax
   11c96:	48 98                	cltq   
   11c98:	48 8d 15 a1 f8 00 00 	lea    0xf8a1(%rip),%rdx        # 21540 <g_259>
   11c9f:	0f b6 04 10          	movzbl (%rax,%rdx,1),%eax
   11ca3:	66 98                	cbtw   
   11ca5:	e9 95 01 00 00       	jmpq   11e3f <func_51+0xb0e>
   11caa:	48 8b 05 5f 53 01 00 	mov    0x1535f(%rip),%rax        # 27010 <g_164>
   11cb1:	c7 00 01 00 00 00    	movl   $0x1,(%rax)
   11cb7:	e9 5d 01 00 00       	jmpq   11e19 <func_51+0xae8>
   11cbc:	48 c7 85 68 f6 ff ff 	movq   $0x0,-0x998(%rbp)
   11cc3:	00 00 00 00 
   11cc7:	48 8d 05 52 53 01 00 	lea    0x15352(%rip),%rax        # 27020 <g_213>
   11cce:	48 89 85 70 f6 ff ff 	mov    %rax,-0x990(%rbp)
   11cd5:	c7 85 00 f6 ff ff af 	movl   $0xf07cf8af,-0xa00(%rbp)
   11cdc:	f8 7c f0 
   11cdf:	48 8d 05 4a e7 00 00 	lea    0xe74a(%rip),%rax        # 20430 <g_251>
   11ce6:	48 89 85 78 f6 ff ff 	mov    %rax,-0x988(%rbp)
   11ced:	48 8d 05 82 fb 00 00 	lea    0xfb82(%rip),%rax        # 21876 <g_357>
   11cf4:	48 89 85 a0 f6 ff ff 	mov    %rax,-0x960(%rbp)
   11cfb:	48 8d 05 74 fb 00 00 	lea    0xfb74(%rip),%rax        # 21876 <g_357>
   11d02:	48 89 85 a8 f6 ff ff 	mov    %rax,-0x958(%rbp)
   11d09:	48 8d 05 66 fb 00 00 	lea    0xfb66(%rip),%rax        # 21876 <g_357>
   11d10:	48 89 85 b0 f6 ff ff 	mov    %rax,-0x950(%rbp)
   11d17:	48 8d 05 58 fb 00 00 	lea    0xfb58(%rip),%rax        # 21876 <g_357>
   11d1e:	48 89 85 b8 f6 ff ff 	mov    %rax,-0x948(%rbp)
   11d25:	48 8d 05 4a fb 00 00 	lea    0xfb4a(%rip),%rax        # 21876 <g_357>
   11d2c:	48 89 85 c0 f6 ff ff 	mov    %rax,-0x940(%rbp)
   11d33:	48 8d 05 3c fb 00 00 	lea    0xfb3c(%rip),%rax        # 21876 <g_357>
   11d3a:	48 89 85 c8 f6 ff ff 	mov    %rax,-0x938(%rbp)
   11d41:	48 8d 85 fc f5 ff ff 	lea    -0xa04(%rbp),%rax
   11d48:	48 89 85 98 f7 ff ff 	mov    %rax,-0x868(%rbp)
   11d4f:	48 8b 85 70 f6 ff ff 	mov    -0x990(%rbp),%rax
   11d56:	48 8b 95 68 f6 ff ff 	mov    -0x998(%rbp),%rdx
   11d5d:	48 89 10             	mov    %rdx,(%rax)
   11d60:	48 8b 85 70 f6 ff ff 	mov    -0x990(%rbp),%rax
   11d67:	48 8b 00             	mov    (%rax),%rax
   11d6a:	48 8d 15 af ff 00 00 	lea    0xffaf(%rip),%rdx        # 21d20 <g_755>
   11d71:	48 39 d0             	cmp    %rdx,%rax
   11d74:	0f 94 c0             	sete   %al
   11d77:	0f b6 d8             	movzbl %al,%ebx
   11d7a:	48 8d 05 b9 e2 00 00 	lea    0xe2b9(%rip),%rax        # 2003a <g_96>
   11d81:	0f b7 10             	movzwl (%rax),%edx
   11d84:	83 c2 01             	add    $0x1,%edx
   11d87:	66 89 10             	mov    %dx,(%rax)
   11d8a:	48 8b 05 17 52 01 00 	mov    0x15217(%rip),%rax        # 26fa8 <g_104>
   11d91:	0f b7 00             	movzwl (%rax),%eax
   11d94:	98                   	cwtl   
   11d95:	be 0a 00 00 00       	mov    $0xa,%esi
   11d9a:	89 c7                	mov    %eax,%edi
   11d9c:	e8 f1 86 ff ff       	callq  a492 <safe_lshift_func_int16_t_s_s>
   11da1:	8b 85 e8 f5 ff ff    	mov    -0xa18(%rbp),%eax
   11da7:	83 e0 01             	and    $0x1,%eax
   11daa:	89 c2                	mov    %eax,%edx
   11dac:	8b 85 e8 f5 ff ff    	mov    -0xa18(%rbp),%eax
   11db2:	39 c2                	cmp    %eax,%edx
   11db4:	0f 95 c0             	setne  %al
   11db7:	0f b6 c0             	movzbl %al,%eax
   11dba:	be 31 de 00 00       	mov    $0xde31,%esi
   11dbf:	89 c7                	mov    %eax,%edi
   11dc1:	e8 96 8f ff ff       	callq  ad5c <safe_mod_func_uint16_t_u_u>
   11dc6:	0f b7 d0             	movzwl %ax,%edx
   11dc9:	8b 85 e8 f5 ff ff    	mov    -0xa18(%rbp),%eax
   11dcf:	09 c2                	or     %eax,%edx
   11dd1:	8b 85 00 f6 ff ff    	mov    -0xa00(%rbp),%eax
   11dd7:	39 c2                	cmp    %eax,%edx
   11dd9:	0f 93 c0             	setae  %al
   11ddc:	0f b6 c0             	movzbl %al,%eax
   11ddf:	be 9f 00 00 00       	mov    $0x9f,%esi
   11de4:	89 c7                	mov    %eax,%edi
   11de6:	e8 6f 8d ff ff       	callq  ab5a <safe_add_func_uint8_t_u_u>
   11deb:	84 c0                	test   %al,%al
   11ded:	0f 94 c0             	sete   %al
   11df0:	0f b6 c0             	movzbl %al,%eax
   11df3:	89 c7                	mov    %eax,%edi
   11df5:	e8 c5 83 ff ff       	callq  a1bf <safe_unary_minus_func_int8_t_s>
   11dfa:	0f be c0             	movsbl %al,%eax
   11dfd:	39 c3                	cmp    %eax,%ebx
   11dff:	0f 94 c0             	sete   %al
   11e02:	0f b6 c8             	movzbl %al,%ecx
   11e05:	48 8b 05 64 52 01 00 	mov    0x15264(%rip),%rax        # 27070 <g_740>
   11e0c:	8b 10                	mov    (%rax),%edx
   11e0e:	48 8b 05 5b 52 01 00 	mov    0x1525b(%rip),%rax        # 27070 <g_740>
   11e15:	31 ca                	xor    %ecx,%edx
   11e17:	89 10                	mov    %edx,(%rax)
   11e19:	48 8d 05 20 59 01 00 	lea    0x15920(%rip),%rax        # 27740 <g_837>
   11e20:	48 39 85 40 f6 ff ff 	cmp    %rax,-0x9c0(%rbp)
   11e27:	0f 94 c2             	sete   %dl
   11e2a:	48 8b 05 37 52 01 00 	mov    0x15237(%rip),%rax        # 27068 <g_591>
   11e31:	48 8b 00             	mov    (%rax),%rax
   11e34:	0f b6 d2             	movzbl %dl,%edx
   11e37:	89 10                	mov    %edx,(%rax)
   11e39:	8b 85 e8 f5 ff ff    	mov    -0xa18(%rbp),%eax
   11e3f:	48 8b 5d c8          	mov    -0x38(%rbp),%rbx
   11e43:	64 48 33 1c 25 28 00 	xor    %fs:0x28,%rbx
   11e4a:	00 00 
   11e4c:	74 05                	je     11e53 <func_51+0xb22>
   11e4e:	e8 1d 82 ff ff       	callq  a070 <__stack_chk_fail@plt>
   11e53:	48 81 c4 f8 09 00 00 	add    $0x9f8,%rsp
   11e5a:	5b                   	pop    %rbx
   11e5b:	41 5c                	pop    %r12
   11e5d:	41 5d                	pop    %r13
   11e5f:	41 5e                	pop    %r14
   11e61:	41 5f                	pop    %r15
   11e63:	5d                   	pop    %rbp
   11e64:	c3                   	retq   

0000000000011e65 <func_54>:
   11e65:	f3 0f 1e fa          	endbr64 
   11e69:	55                   	push   %rbp
   11e6a:	48 89 e5             	mov    %rsp,%rbp
   11e6d:	41 56                	push   %r14
   11e6f:	41 55                	push   %r13
   11e71:	41 54                	push   %r12
   11e73:	53                   	push   %rbx
   11e74:	48 81 ec a0 08 00 00 	sub    $0x8a0,%rsp
   11e7b:	48 89 bd 58 f7 ff ff 	mov    %rdi,-0x8a8(%rbp)
   11e82:	89 c8                	mov    %ecx,%eax
   11e84:	4c 89 85 40 f7 ff ff 	mov    %r8,-0x8c0(%rbp)
   11e8b:	89 f1                	mov    %esi,%ecx
   11e8d:	88 8d 54 f7 ff ff    	mov    %cl,-0x8ac(%rbp)
   11e93:	88 95 50 f7 ff ff    	mov    %dl,-0x8b0(%rbp)
   11e99:	88 85 4c f7 ff ff    	mov    %al,-0x8b4(%rbp)
   11e9f:	64 48 8b 04 25 28 00 	mov    %fs:0x28,%rax
   11ea6:	00 00 
   11ea8:	48 89 45 d8          	mov    %rax,-0x28(%rbp)
   11eac:	31 c0                	xor    %eax,%eax
   11eae:	48 c7 85 68 f7 ff ff 	movq   $0x8,-0x898(%rbp)
   11eb5:	08 00 00 00 
   11eb9:	48 8d 05 90 51 01 00 	lea    0x15190(%rip),%rax        # 27050 <g_461>
   11ec0:	48 89 85 70 f7 ff ff 	mov    %rax,-0x890(%rbp)
   11ec7:	48 8d 05 42 e4 00 00 	lea    0xe442(%rip),%rax        # 20310 <g_235+0x70>
   11ece:	48 89 85 78 f7 ff ff 	mov    %rax,-0x888(%rbp)
   11ed5:	48 8d 05 44 51 01 00 	lea    0x15144(%rip),%rax        # 27020 <g_213>
   11edc:	48 89 85 80 f7 ff ff 	mov    %rax,-0x880(%rbp)
   11ee3:	48 8d 85 d0 f7 ff ff 	lea    -0x830(%rbp),%rax
   11eea:	48 8d 15 ef 3c 01 00 	lea    0x13cef(%rip),%rdx        # 25be0 <g_2144+0x21e0>
   11ef1:	b9 00 01 00 00       	mov    $0x100,%ecx
   11ef6:	48 89 c7             	mov    %rax,%rdi
   11ef9:	48 89 d6             	mov    %rdx,%rsi
   11efc:	f3 48 a5             	rep movsq %ds:(%rsi),%es:(%rdi)
   11eff:	c7 85 60 f7 ff ff ff 	movl   $0xffffffff,-0x8a0(%rbp)
   11f06:	ff ff ff 
   11f09:	48 8d 05 24 e1 00 00 	lea    0xe124(%rip),%rax        # 20034 <g_74>
   11f10:	48 89 85 90 f7 ff ff 	mov    %rax,-0x870(%rbp)
   11f17:	48 8d 05 16 e1 00 00 	lea    0xe116(%rip),%rax        # 20034 <g_74>
   11f1e:	48 89 85 98 f7 ff ff 	mov    %rax,-0x868(%rbp)
   11f25:	48 8d 05 b0 fc 00 00 	lea    0xfcb0(%rip),%rax        # 21bdc <g_552+0x33c>
   11f2c:	48 89 85 a0 f7 ff ff 	mov    %rax,-0x860(%rbp)
   11f33:	48 8d 05 fa e0 00 00 	lea    0xe0fa(%rip),%rax        # 20034 <g_74>
   11f3a:	48 89 85 a8 f7 ff ff 	mov    %rax,-0x858(%rbp)
   11f41:	48 8d 05 ec e0 00 00 	lea    0xe0ec(%rip),%rax        # 20034 <g_74>
   11f48:	48 89 85 b0 f7 ff ff 	mov    %rax,-0x850(%rbp)
   11f4f:	48 8d 05 86 fc 00 00 	lea    0xfc86(%rip),%rax        # 21bdc <g_552+0x33c>
   11f56:	48 89 85 b8 f7 ff ff 	mov    %rax,-0x848(%rbp)
   11f5d:	48 8d 05 d0 e0 00 00 	lea    0xe0d0(%rip),%rax        # 20034 <g_74>
   11f64:	48 89 85 c0 f7 ff ff 	mov    %rax,-0x840(%rbp)
   11f6b:	c7 85 64 f7 ff ff 00 	movl   $0x0,-0x89c(%rbp)
   11f72:	00 00 00 
   11f75:	48 c7 85 88 f7 ff ff 	movq   $0xfffffffffffffffb,-0x878(%rbp)
   11f7c:	fb ff ff ff 
   11f80:	48 83 bd 70 f7 ff ff 	cmpq   $0x0,-0x890(%rbp)
   11f87:	00 
   11f88:	0f 95 c0             	setne  %al
   11f8b:	0f b6 c0             	movzbl %al,%eax
   11f8e:	89 c6                	mov    %eax,%esi
   11f90:	bf 56 00 00 00       	mov    $0x56,%edi
   11f95:	e8 54 83 ff ff       	callq  a2ee <safe_lshift_func_int8_t_s_u>
   11f9a:	48 0f be c0          	movsbq %al,%rax
   11f9e:	48 23 85 68 f7 ff ff 	and    -0x898(%rbp),%rax
   11fa5:	49 89 c4             	mov    %rax,%r12
   11fa8:	0f b6 85 54 f7 ff ff 	movzbl -0x8ac(%rbp),%eax
   11faf:	be 06 00 00 00       	mov    $0x6,%esi
   11fb4:	89 c7                	mov    %eax,%edi
   11fb6:	e8 a8 85 ff ff       	callq  a563 <safe_rshift_func_int16_t_s_u>
   11fbb:	41 89 c6             	mov    %eax,%r14d
   11fbe:	48 8b 9d 68 f7 ff ff 	mov    -0x898(%rbp),%rbx
   11fc5:	48 8b 85 68 f7 ff ff 	mov    -0x898(%rbp),%rax
   11fcc:	41 89 c5             	mov    %eax,%r13d
   11fcf:	48 8b 85 80 f7 ff ff 	mov    -0x880(%rbp),%rax
   11fd6:	48 8b 95 78 f7 ff ff 	mov    -0x888(%rbp),%rdx
   11fdd:	48 89 10             	mov    %rdx,(%rax)
   11fe0:	48 8b 85 80 f7 ff ff 	mov    -0x880(%rbp),%rax
   11fe7:	48 8b 00             	mov    (%rax),%rax
   11fea:	48 8d 15 af 83 00 00 	lea    0x83af(%rip),%rdx        # 1a3a0 <g_402+0x1340>
   11ff1:	48 39 d0             	cmp    %rdx,%rax
   11ff4:	0f 95 c0             	setne  %al
   11ff7:	f7 d0                	not    %eax
   11ff9:	0f b6 c0             	movzbl %al,%eax
   11ffc:	be 00 00 00 00       	mov    $0x0,%esi
   12001:	89 c7                	mov    %eax,%edi
   12003:	e8 44 8c ff ff       	callq  ac4c <safe_lshift_func_uint8_t_u_u>
   12008:	0f b6 c0             	movzbl %al,%eax
   1200b:	48 8b 95 68 f7 ff ff 	mov    -0x898(%rbp),%rdx
   12012:	89 c6                	mov    %eax,%esi
   12014:	89 d7                	mov    %edx,%edi
   12016:	e8 9d 8e ff ff       	callq  aeb8 <safe_add_func_uint32_t_u_u>
   1201b:	0f be c0             	movsbl %al,%eax
   1201e:	44 89 ee             	mov    %r13d,%esi
   12021:	89 c7                	mov    %eax,%edi
   12023:	e8 0d 83 ff ff       	callq  a335 <safe_rshift_func_int8_t_s_s>
   12028:	48 0f be c0          	movsbq %al,%rax
   1202c:	48 31 85 58 f7 ff ff 	xor    %rax,-0x8a8(%rbp)
   12033:	48 8b 85 58 f7 ff ff 	mov    -0x8a8(%rbp),%rax
   1203a:	89 05 14 fd 00 00    	mov    %eax,0xfd14(%rip)        # 21d54 <g_987>
   12040:	8b 05 0e fd 00 00    	mov    0xfd0e(%rip),%eax        # 21d54 <g_987>
   12046:	89 c0                	mov    %eax,%eax
   12048:	48 89 de             	mov    %rbx,%rsi
   1204b:	48 89 c7             	mov    %rax,%rdi
   1204e:	e8 f8 8f ff ff       	callq  b04b <safe_sub_func_uint64_t_u_u>
   12053:	44 09 f0             	or     %r14d,%eax
   12056:	0f b6 c0             	movzbl %al,%eax
   12059:	be 03 00 00 00       	mov    $0x3,%esi
   1205e:	89 c7                	mov    %eax,%edi
   12060:	e8 59 8c ff ff       	callq  acbe <safe_rshift_func_uint8_t_u_u>
   12065:	0f b6 c0             	movzbl %al,%eax
   12068:	48 33 85 68 f7 ff ff 	xor    -0x898(%rbp),%rax
   1206f:	48 f7 d0             	not    %rax
   12072:	48 39 85 68 f7 ff ff 	cmp    %rax,-0x898(%rbp)
   12079:	0f 95 c0             	setne  %al
   1207c:	0f b6 d0             	movzbl %al,%edx
   1207f:	0f b6 85 54 f7 ff ff 	movzbl -0x8ac(%rbp),%eax
   12086:	39 c2                	cmp    %eax,%edx
   12088:	0f 95 c0             	setne  %al
   1208b:	0f b6 c0             	movzbl %al,%eax
   1208e:	49 39 c4             	cmp    %rax,%r12
   12091:	0f 9c c0             	setl   %al
   12094:	0f b6 c0             	movzbl %al,%eax
   12097:	31 85 60 f7 ff ff    	xor    %eax,-0x8a0(%rbp)
   1209d:	48 83 85 88 f7 ff ff 	addq   $0x1,-0x878(%rbp)
   120a4:	01 
   120a5:	48 8b 85 70 f7 ff ff 	mov    -0x890(%rbp),%rax
   120ac:	48 8b 00             	mov    (%rax),%rax
   120af:	8b 00                	mov    (%rax),%eax
   120b1:	48 8b 5d d8          	mov    -0x28(%rbp),%rbx
   120b5:	64 48 33 1c 25 28 00 	xor    %fs:0x28,%rbx
   120bc:	00 00 
   120be:	74 05                	je     120c5 <func_54+0x260>
   120c0:	e8 ab 7f ff ff       	callq  a070 <__stack_chk_fail@plt>
   120c5:	48 81 c4 a0 08 00 00 	add    $0x8a0,%rsp
   120cc:	5b                   	pop    %rbx
   120cd:	41 5c                	pop    %r12
   120cf:	41 5d                	pop    %r13
   120d1:	41 5e                	pop    %r14
   120d3:	5d                   	pop    %rbp
   120d4:	c3                   	retq   

00000000000120d5 <func_65>:
   120d5:	f3 0f 1e fa          	endbr64 
   120d9:	55                   	push   %rbp
   120da:	48 89 e5             	mov    %rsp,%rbp
   120dd:	41 57                	push   %r15
   120df:	41 56                	push   %r14
   120e1:	41 55                	push   %r13
   120e3:	41 54                	push   %r12
   120e5:	53                   	push   %rbx
   120e6:	48 81 ec 98 0d 00 00 	sub    $0xd98,%rsp
   120ed:	89 bd 5c f2 ff ff    	mov    %edi,-0xda4(%rbp)
   120f3:	48 89 b5 50 f2 ff ff 	mov    %rsi,-0xdb0(%rbp)
   120fa:	64 48 8b 04 25 28 00 	mov    %fs:0x28,%rax
   12101:	00 00 
   12103:	48 89 45 c8          	mov    %rax,-0x38(%rbp)
   12107:	31 c0                	xor    %eax,%eax
   12109:	48 c7 85 e8 f2 ff ff 	movq   $0x8,-0xd18(%rbp)
   12110:	08 00 00 00 
   12114:	48 8d 05 95 f4 00 00 	lea    0xf495(%rip),%rax        # 215b0 <g_298>
   1211b:	48 89 85 f0 f2 ff ff 	mov    %rax,-0xd10(%rbp)
   12122:	c7 85 b0 f6 ff ff 05 	movl   $0x5,-0x950(%rbp)
   12129:	00 00 00 
   1212c:	c7 85 b4 f6 ff ff 00 	movl   $0x0,-0x94c(%rbp)
   12133:	00 00 00 
   12136:	c7 85 b8 f6 ff ff 28 	movl   $0xe3d8b528,-0x948(%rbp)
   1213d:	b5 d8 e3 
   12140:	c7 85 bc f6 ff ff 44 	movl   $0x441e9944,-0x944(%rbp)
   12147:	99 1e 44 
   1214a:	c7 85 c0 f6 ff ff 28 	movl   $0xe3d8b528,-0x940(%rbp)
   12151:	b5 d8 e3 
   12154:	c7 85 c4 f6 ff ff 00 	movl   $0x0,-0x93c(%rbp)
   1215b:	00 00 00 
   1215e:	c7 85 c8 f6 ff ff 05 	movl   $0x5,-0x938(%rbp)
   12165:	00 00 00 
   12168:	c7 85 cc f6 ff ff ff 	movl   $0xffffffff,-0x934(%rbp)
   1216f:	ff ff ff 
   12172:	c7 85 d0 f6 ff ff d6 	movl   $0x7fa378d6,-0x930(%rbp)
   12179:	78 a3 7f 
   1217c:	c7 85 d4 f6 ff ff 44 	movl   $0x441e9944,-0x92c(%rbp)
   12183:	99 1e 44 
   12186:	c7 85 d8 f6 ff ff ad 	movl   $0x5cca39ad,-0x928(%rbp)
   1218d:	39 ca 5c 
   12190:	c7 85 dc f6 ff ff 77 	movl   $0xb94f0977,-0x924(%rbp)
   12197:	09 4f b9 
   1219a:	c7 85 e0 f6 ff ff be 	movl   $0x1bbe4be,-0x920(%rbp)
   121a1:	e4 bb 01 
   121a4:	c7 85 e4 f6 ff ff 00 	movl   $0x0,-0x91c(%rbp)
   121ab:	00 00 00 
   121ae:	c7 85 e8 f6 ff ff 46 	movl   $0x62dd2e46,-0x918(%rbp)
   121b5:	2e dd 62 
   121b8:	c7 85 ec f6 ff ff 00 	movl   $0x0,-0x914(%rbp)
   121bf:	00 00 00 
   121c2:	c7 85 f0 f6 ff ff be 	movl   $0x1bbe4be,-0x910(%rbp)
   121c9:	e4 bb 01 
   121cc:	c7 85 f4 f6 ff ff 00 	movl   $0x0,-0x90c(%rbp)
   121d3:	00 00 00 
   121d6:	c7 85 f8 f6 ff ff 46 	movl   $0x62dd2e46,-0x908(%rbp)
   121dd:	2e dd 62 
   121e0:	c7 85 fc f6 ff ff 00 	movl   $0x0,-0x904(%rbp)
   121e7:	00 00 00 
   121ea:	c7 85 00 f7 ff ff be 	movl   $0x1bbe4be,-0x900(%rbp)
   121f1:	e4 bb 01 
   121f4:	c7 85 04 f7 ff ff 77 	movl   $0xb94f0977,-0x8fc(%rbp)
   121fb:	09 4f b9 
   121fe:	c7 85 08 f7 ff ff ad 	movl   $0x5cca39ad,-0x8f8(%rbp)
   12205:	39 ca 5c 
   12208:	c7 85 0c f7 ff ff 44 	movl   $0x441e9944,-0x8f4(%rbp)
   1220f:	99 1e 44 
   12212:	c7 85 10 f7 ff ff d6 	movl   $0x7fa378d6,-0x8f0(%rbp)
   12219:	78 a3 7f 
   1221c:	c7 85 14 f7 ff ff ff 	movl   $0xffffffff,-0x8ec(%rbp)
   12223:	ff ff ff 
   12226:	c7 85 18 f7 ff ff 05 	movl   $0x5,-0x8e8(%rbp)
   1222d:	00 00 00 
   12230:	c7 85 1c f7 ff ff 00 	movl   $0x0,-0x8e4(%rbp)
   12237:	00 00 00 
   1223a:	c7 85 20 f7 ff ff 28 	movl   $0xe3d8b528,-0x8e0(%rbp)
   12241:	b5 d8 e3 
   12244:	c7 85 24 f7 ff ff 44 	movl   $0x441e9944,-0x8dc(%rbp)
   1224b:	99 1e 44 
   1224e:	c7 85 28 f7 ff ff 28 	movl   $0xe3d8b528,-0x8d8(%rbp)
   12255:	b5 d8 e3 
   12258:	c7 85 2c f7 ff ff 00 	movl   $0x0,-0x8d4(%rbp)
   1225f:	00 00 00 
   12262:	c7 85 30 f7 ff ff 05 	movl   $0x5,-0x8d0(%rbp)
   12269:	00 00 00 
   1226c:	c7 85 34 f7 ff ff f4 	movl   $0x69067ef4,-0x8cc(%rbp)
   12273:	7e 06 69 
   12276:	c7 85 38 f7 ff ff 05 	movl   $0x5,-0x8c8(%rbp)
   1227d:	00 00 00 
   12280:	c7 85 3c f7 ff ff 77 	movl   $0xb94f0977,-0x8c4(%rbp)
   12287:	09 4f b9 
   1228a:	c7 85 40 f7 ff ff 46 	movl   $0x62dd2e46,-0x8c0(%rbp)
   12291:	2e dd 62 
   12294:	c7 85 44 f7 ff ff d2 	movl   $0x52aa74d2,-0x8bc(%rbp)
   1229b:	74 aa 52 
   1229e:	c7 85 48 f7 ff ff ad 	movl   $0x5cca39ad,-0x8b8(%rbp)
   122a5:	39 ca 5c 
   122a8:	c7 85 4c f7 ff ff ff 	movl   $0xffffffff,-0x8b4(%rbp)
   122af:	ff ff ff 
   122b2:	c7 85 50 f7 ff ff 28 	movl   $0xe3d8b528,-0x8b0(%rbp)
   122b9:	b5 d8 e3 
   122bc:	c7 85 54 f7 ff ff f4 	movl   $0x69067ef4,-0x8ac(%rbp)
   122c3:	7e 06 69 
   122c6:	c7 85 58 f7 ff ff 46 	movl   $0x62dd2e46,-0x8a8(%rbp)
   122cd:	2e dd 62 
   122d0:	c7 85 5c f7 ff ff 44 	movl   $0x441e9944,-0x8a4(%rbp)
   122d7:	99 1e 44 
   122da:	c7 85 60 f7 ff ff 11 	movl   $0x7b71f311,-0x8a0(%rbp)
   122e1:	f3 71 7b 
   122e4:	c7 85 64 f7 ff ff 44 	movl   $0x441e9944,-0x89c(%rbp)
   122eb:	99 1e 44 
   122ee:	c7 85 68 f7 ff ff 46 	movl   $0x62dd2e46,-0x898(%rbp)
   122f5:	2e dd 62 
   122f8:	c7 85 6c f7 ff ff f4 	movl   $0x69067ef4,-0x894(%rbp)
   122ff:	7e 06 69 
   12302:	c7 85 70 f7 ff ff 28 	movl   $0xe3d8b528,-0x890(%rbp)
   12309:	b5 d8 e3 
   1230c:	c7 85 74 f7 ff ff ff 	movl   $0xffffffff,-0x88c(%rbp)
   12313:	ff ff ff 
   12316:	c7 85 78 f7 ff ff ad 	movl   $0x5cca39ad,-0x888(%rbp)
   1231d:	39 ca 5c 
   12320:	c7 85 7c f7 ff ff d2 	movl   $0x52aa74d2,-0x884(%rbp)
   12327:	74 aa 52 
   1232a:	c7 85 80 f7 ff ff 46 	movl   $0x62dd2e46,-0x880(%rbp)
   12331:	2e dd 62 
   12334:	c7 85 84 f7 ff ff 77 	movl   $0xb94f0977,-0x87c(%rbp)
   1233b:	09 4f b9 
   1233e:	c7 85 88 f7 ff ff 05 	movl   $0x5,-0x878(%rbp)
   12345:	00 00 00 
   12348:	c7 85 8c f7 ff ff f4 	movl   $0x69067ef4,-0x874(%rbp)
   1234f:	7e 06 69 
   12352:	48 8d 85 b0 f6 ff ff 	lea    -0x950(%rbp),%rax
   12359:	48 83 c0 38          	add    $0x38,%rax
   1235d:	48 89 85 30 f5 ff ff 	mov    %rax,-0xad0(%rbp)
   12364:	48 8d 85 b0 f6 ff ff 	lea    -0x950(%rbp),%rax
   1236b:	48 83 c0 38          	add    $0x38,%rax
   1236f:	48 89 85 38 f5 ff ff 	mov    %rax,-0xac8(%rbp)
   12376:	48 8d 85 b0 f6 ff ff 	lea    -0x950(%rbp),%rax
   1237d:	48 83 c0 38          	add    $0x38,%rax
   12381:	48 89 85 40 f5 ff ff 	mov    %rax,-0xac0(%rbp)
   12388:	48 8d 85 b0 f6 ff ff 	lea    -0x950(%rbp),%rax
   1238f:	48 83 c0 38          	add    $0x38,%rax
   12393:	48 89 85 48 f5 ff ff 	mov    %rax,-0xab8(%rbp)
   1239a:	48 8d 85 b0 f6 ff ff 	lea    -0x950(%rbp),%rax
   123a1:	48 83 c0 38          	add    $0x38,%rax
   123a5:	48 89 85 50 f5 ff ff 	mov    %rax,-0xab0(%rbp)
   123ac:	48 8d 85 b0 f6 ff ff 	lea    -0x950(%rbp),%rax
   123b3:	48 83 c0 38          	add    $0x38,%rax
   123b7:	48 89 85 58 f5 ff ff 	mov    %rax,-0xaa8(%rbp)
   123be:	48 8d 85 b0 f6 ff ff 	lea    -0x950(%rbp),%rax
   123c5:	48 83 c0 38          	add    $0x38,%rax
   123c9:	48 89 85 60 f5 ff ff 	mov    %rax,-0xaa0(%rbp)
   123d0:	48 8d 85 b0 f6 ff ff 	lea    -0x950(%rbp),%rax
   123d7:	48 83 c0 38          	add    $0x38,%rax
   123db:	48 89 85 68 f5 ff ff 	mov    %rax,-0xa98(%rbp)
   123e2:	48 8d 85 b0 f6 ff ff 	lea    -0x950(%rbp),%rax
   123e9:	48 83 c0 38          	add    $0x38,%rax
   123ed:	48 89 85 70 f5 ff ff 	mov    %rax,-0xa90(%rbp)
   123f4:	48 8d 85 b0 f6 ff ff 	lea    -0x950(%rbp),%rax
   123fb:	48 83 c0 38          	add    $0x38,%rax
   123ff:	48 89 85 78 f5 ff ff 	mov    %rax,-0xa88(%rbp)
   12406:	48 8d 85 30 f5 ff ff 	lea    -0xad0(%rbp),%rax
   1240d:	48 89 85 c0 f2 ff ff 	mov    %rax,-0xd40(%rbp)
   12414:	48 8d 85 c0 f2 ff ff 	lea    -0xd40(%rbp),%rax
   1241b:	48 89 85 80 f5 ff ff 	mov    %rax,-0xa80(%rbp)
   12422:	48 8d 85 c0 f2 ff ff 	lea    -0xd40(%rbp),%rax
   12429:	48 89 85 88 f5 ff ff 	mov    %rax,-0xa78(%rbp)
   12430:	48 8d 85 c0 f2 ff ff 	lea    -0xd40(%rbp),%rax
   12437:	48 89 85 90 f5 ff ff 	mov    %rax,-0xa70(%rbp)
   1243e:	48 8d 85 c0 f2 ff ff 	lea    -0xd40(%rbp),%rax
   12445:	48 89 85 98 f5 ff ff 	mov    %rax,-0xa68(%rbp)
   1244c:	48 8d 85 c0 f2 ff ff 	lea    -0xd40(%rbp),%rax
   12453:	48 89 85 a0 f5 ff ff 	mov    %rax,-0xa60(%rbp)
   1245a:	48 8d 85 c0 f2 ff ff 	lea    -0xd40(%rbp),%rax
   12461:	48 89 85 a8 f5 ff ff 	mov    %rax,-0xa58(%rbp)
   12468:	48 8d 85 c0 f2 ff ff 	lea    -0xd40(%rbp),%rax
   1246f:	48 89 85 b0 f5 ff ff 	mov    %rax,-0xa50(%rbp)
   12476:	48 8d 85 c0 f2 ff ff 	lea    -0xd40(%rbp),%rax
   1247d:	48 89 85 b8 f5 ff ff 	mov    %rax,-0xa48(%rbp)
   12484:	48 8d 85 c0 f2 ff ff 	lea    -0xd40(%rbp),%rax
   1248b:	48 89 85 c0 f5 ff ff 	mov    %rax,-0xa40(%rbp)
   12492:	48 8d 85 c0 f2 ff ff 	lea    -0xd40(%rbp),%rax
   12499:	48 89 85 c8 f5 ff ff 	mov    %rax,-0xa38(%rbp)
   124a0:	48 c7 85 c8 f2 ff ff 	movq   $0x0,-0xd38(%rbp)
   124a7:	00 00 00 00 
   124ab:	48 8d 05 95 f0 00 00 	lea    0xf095(%rip),%rax        # 21547 <g_259+0x7>
   124b2:	48 89 85 d0 f2 ff ff 	mov    %rax,-0xd30(%rbp)
   124b9:	48 8d 85 d0 f2 ff ff 	lea    -0xd30(%rbp),%rax
   124c0:	48 89 85 f8 f2 ff ff 	mov    %rax,-0xd08(%rbp)
   124c7:	66 c7 85 6e f2 ff ff 	movw   $0xd06c,-0xd92(%rbp)
   124ce:	6c d0 
   124d0:	c7 85 94 f3 ff ff fc 	movl   $0xfffffffc,-0xc6c(%rbp)
   124d7:	ff ff ff 
   124da:	8b 85 98 f3 ff ff    	mov    -0xc68(%rbp),%eax
   124e0:	25 00 00 00 c0       	and    $0xc0000000,%eax
   124e5:	0d e1 5c 00 00       	or     $0x5ce1,%eax
   124ea:	89 85 98 f3 ff ff    	mov    %eax,-0xc68(%rbp)
   124f0:	c7 85 94 f2 ff ff 2b 	movl   $0x3c67d62b,-0xd6c(%rbp)
   124f7:	d6 67 3c 
   124fa:	c7 85 98 f2 ff ff 00 	movl   $0x0,-0xd68(%rbp)
   12501:	00 00 00 
   12504:	c7 85 74 f2 ff ff f7 	movl   $0xfffffff7,-0xd8c(%rbp)
   1250b:	ff ff ff 
   1250e:	48 8d 05 3b db 00 00 	lea    0xdb3b(%rip),%rax        # 20050 <g_147>
   12515:	48 89 85 00 f3 ff ff 	mov    %rax,-0xd00(%rbp)
   1251c:	c6 85 6c f2 ff ff ed 	movb   $0xed,-0xd94(%rbp)
   12523:	c7 85 78 f2 ff ff 00 	movl   $0x0,-0xd88(%rbp)
   1252a:	00 00 00 
   1252d:	eb 1a                	jmp    12549 <func_65+0x474>
   1252f:	8b 85 78 f2 ff ff    	mov    -0xd88(%rbp),%eax
   12535:	48 98                	cltq   
   12537:	c7 84 85 e0 f3 ff ff 	movl   $0x7eae149a,-0xc20(%rbp,%rax,4)
   1253e:	9a 14 ae 7e 
   12542:	83 85 78 f2 ff ff 01 	addl   $0x1,-0xd88(%rbp)
   12549:	83 bd 78 f2 ff ff 07 	cmpl   $0x7,-0xd88(%rbp)
   12550:	7e dd                	jle    1252f <func_65+0x45a>
   12552:	c7 85 78 f2 ff ff 00 	movl   $0x0,-0xd88(%rbp)
   12559:	00 00 00 
   1255c:	eb 1e                	jmp    1257c <func_65+0x4a7>
   1255e:	8b 85 78 f2 ff ff    	mov    -0xd88(%rbp),%eax
   12564:	48 98                	cltq   
   12566:	48 8d 15 13 f3 00 00 	lea    0xf313(%rip),%rdx        # 21880 <g_457>
   1256d:	48 89 94 c5 40 f4 ff 	mov    %rdx,-0xbc0(%rbp,%rax,8)
   12574:	ff 
   12575:	83 85 78 f2 ff ff 01 	addl   $0x1,-0xd88(%rbp)
   1257c:	83 bd 78 f2 ff ff 08 	cmpl   $0x8,-0xd88(%rbp)
   12583:	7e d9                	jle    1255e <func_65+0x489>
   12585:	c7 85 78 f2 ff ff 00 	movl   $0x0,-0xd88(%rbp)
   1258c:	00 00 00 
   1258f:	eb 42                	jmp    125d3 <func_65+0x4fe>
   12591:	c7 85 7c f2 ff ff 00 	movl   $0x0,-0xd84(%rbp)
   12598:	00 00 00 
   1259b:	eb 26                	jmp    125c3 <func_65+0x4ee>
   1259d:	8b 85 7c f2 ff ff    	mov    -0xd84(%rbp),%eax
   125a3:	48 63 d0             	movslq %eax,%rdx
   125a6:	8b 85 78 f2 ff ff    	mov    -0xd88(%rbp),%eax
   125ac:	48 98                	cltq   
   125ae:	48 01 d0             	add    %rdx,%rax
   125b1:	c7 84 85 c0 f3 ff ff 	movl   $0xfffffff7,-0xc40(%rbp,%rax,4)
   125b8:	f7 ff ff ff 
   125bc:	83 85 7c f2 ff ff 01 	addl   $0x1,-0xd84(%rbp)
   125c3:	83 bd 7c f2 ff ff 00 	cmpl   $0x0,-0xd84(%rbp)
   125ca:	7e d1                	jle    1259d <func_65+0x4c8>
   125cc:	83 85 78 f2 ff ff 01 	addl   $0x1,-0xd88(%rbp)
   125d3:	83 bd 78 f2 ff ff 04 	cmpl   $0x4,-0xd88(%rbp)
   125da:	7e b5                	jle    12591 <func_65+0x4bc>
   125dc:	90                   	nop
   125dd:	c7 85 5c f2 ff ff e5 	movl   $0xffffffe5,-0xda4(%rbp)
   125e4:	ff ff ff 
   125e7:	e9 b7 01 00 00       	jmpq   127a3 <func_65+0x6ce>
   125ec:	48 8d 85 b0 f8 ff ff 	lea    -0x750(%rbp),%rax
   125f3:	48 8d 15 26 8f 00 00 	lea    0x8f26(%rip),%rdx        # 1b520 <g_1979+0xfbc>
   125fa:	b9 e1 00 00 00       	mov    $0xe1,%ecx
   125ff:	48 89 c7             	mov    %rax,%rdi
   12602:	48 89 d6             	mov    %rdx,%rsi
   12605:	f3 48 a5             	rep movsq %ds:(%rsi),%es:(%rdi)
   12608:	48 8d 05 81 ef 00 00 	lea    0xef81(%rip),%rax        # 21590 <g_296>
   1260f:	48 89 85 50 f3 ff ff 	mov    %rax,-0xcb0(%rbp)
   12616:	c7 85 9c f3 ff ff 84 	movl   $0x586cf684,-0xc64(%rbp)
   1261d:	f6 6c 58 
   12620:	8b 85 a0 f3 ff ff    	mov    -0xc60(%rbp),%eax
   12626:	25 00 00 00 c0       	and    $0xc0000000,%eax
   1262b:	0d b0 6e 00 00       	or     $0x6eb0,%eax
   12630:	89 85 a0 f3 ff ff    	mov    %eax,-0xc60(%rbp)
   12636:	48 8d 05 f7 d9 00 00 	lea    0xd9f7(%rip),%rax        # 20034 <g_74>
   1263d:	48 89 85 58 f3 ff ff 	mov    %rax,-0xca8(%rbp)
   12644:	c7 85 b4 f2 ff ff 06 	movl   $0x6,-0xd4c(%rbp)
   1264b:	00 00 00 
   1264e:	c7 85 b8 f2 ff ff 06 	movl   $0x6,-0xd48(%rbp)
   12655:	00 00 00 
   12658:	c6 85 6d f2 ff ff 0b 	movb   $0xb,-0xd93(%rbp)
   1265f:	48 c7 85 60 f3 ff ff 	movq   $0x0,-0xca0(%rbp)
   12666:	00 00 00 00 
   1266a:	48 8d 05 bf dd 00 00 	lea    0xddbf(%rip),%rax        # 20430 <g_251>
   12671:	48 89 85 68 f3 ff ff 	mov    %rax,-0xc98(%rbp)
   12678:	48 8d 05 b1 dd 00 00 	lea    0xddb1(%rip),%rax        # 20430 <g_251>
   1267f:	48 89 85 70 f3 ff ff 	mov    %rax,-0xc90(%rbp)
   12686:	48 8d 85 6e f2 ff ff 	lea    -0xd92(%rbp),%rax
   1268d:	48 89 85 78 f3 ff ff 	mov    %rax,-0xc88(%rbp)
   12694:	48 b8 37 c7 05 d0 7b 	movabs $0x133deb7bd005c737,%rax
   1269b:	eb 3d 13 
   1269e:	48 89 85 80 f3 ff ff 	mov    %rax,-0xc80(%rbp)
   126a5:	c7 85 bc f2 ff ff 74 	movl   $0x6203cd74,-0xd44(%rbp)
   126ac:	cd 03 62 
   126af:	48 8d 85 90 f7 ff ff 	lea    -0x870(%rbp),%rax
   126b6:	48 83 c0 10          	add    $0x10,%rax
   126ba:	48 89 85 88 f3 ff ff 	mov    %rax,-0xc78(%rbp)
   126c1:	c7 85 80 f2 ff ff 00 	movl   $0x0,-0xd80(%rbp)
   126c8:	00 00 00 
   126cb:	eb 1a                	jmp    126e7 <func_65+0x612>
   126cd:	8b 85 80 f2 ff ff    	mov    -0xd80(%rbp),%eax
   126d3:	48 98                	cltq   
   126d5:	c7 84 85 90 f4 ff ff 	movl   $0xffffffff,-0xb70(%rbp,%rax,4)
   126dc:	ff ff ff ff 
   126e0:	83 85 80 f2 ff ff 01 	addl   $0x1,-0xd80(%rbp)
   126e7:	83 bd 80 f2 ff ff 01 	cmpl   $0x1,-0xd80(%rbp)
   126ee:	7e dd                	jle    126cd <func_65+0x5f8>
   126f0:	c7 85 80 f2 ff ff 00 	movl   $0x0,-0xd80(%rbp)
   126f7:	00 00 00 
   126fa:	eb 1a                	jmp    12716 <func_65+0x641>
   126fc:	8b 85 80 f2 ff ff    	mov    -0xd80(%rbp),%eax
   12702:	48 98                	cltq   
   12704:	c7 84 85 e0 f4 ff ff 	movl   $0xfffffff7,-0xb20(%rbp,%rax,4)
   1270b:	f7 ff ff ff 
   1270f:	83 85 80 f2 ff ff 01 	addl   $0x1,-0xd80(%rbp)
   12716:	83 bd 80 f2 ff ff 01 	cmpl   $0x1,-0xd80(%rbp)
   1271d:	7e dd                	jle    126fc <func_65+0x627>
   1271f:	c7 85 80 f2 ff ff 00 	movl   $0x0,-0xd80(%rbp)
   12726:	00 00 00 
   12729:	eb 1a                	jmp    12745 <func_65+0x670>
   1272b:	8b 85 80 f2 ff ff    	mov    -0xd80(%rbp),%eax
   12731:	48 98                	cltq   
   12733:	c7 84 85 d0 f5 ff ff 	movl   $0xfffffff6,-0xa30(%rbp,%rax,4)
   1273a:	f6 ff ff ff 
   1273e:	83 85 80 f2 ff ff 01 	addl   $0x1,-0xd80(%rbp)
   12745:	83 bd 80 f2 ff ff 04 	cmpl   $0x4,-0xd80(%rbp)
   1274c:	7e dd                	jle    1272b <func_65+0x656>
   1274e:	c7 85 80 f2 ff ff 00 	movl   $0x0,-0xd80(%rbp)
   12755:	00 00 00 
   12758:	eb 22                	jmp    1277c <func_65+0x6a7>
   1275a:	8b 85 80 f2 ff ff    	mov    -0xd80(%rbp),%eax
   12760:	48 98                	cltq   
   12762:	48 8d 95 40 f4 ff ff 	lea    -0xbc0(%rbp),%rdx
   12769:	48 83 c2 10          	add    $0x10,%rdx
   1276d:	48 89 94 c5 90 f7 ff 	mov    %rdx,-0x870(%rbp,%rax,8)
   12774:	ff 
   12775:	83 85 80 f2 ff ff 01 	addl   $0x1,-0xd80(%rbp)
   1277c:	83 bd 80 f2 ff ff 03 	cmpl   $0x3,-0xd80(%rbp)
   12783:	7e d5                	jle    1275a <func_65+0x685>
   12785:	8b 85 5c f2 ff ff    	mov    -0xda4(%rbp),%eax
   1278b:	0f b7 c0             	movzwl %ax,%eax
   1278e:	be 02 00 00 00       	mov    $0x2,%esi
   12793:	89 c7                	mov    %eax,%edi
   12795:	e8 65 85 ff ff       	callq  acff <safe_add_func_uint16_t_u_u>
   1279a:	0f b7 c0             	movzwl %ax,%eax
   1279d:	89 85 5c f2 ff ff    	mov    %eax,-0xda4(%rbp)
   127a3:	83 bd 5c f2 ff ff 2d 	cmpl   $0x2d,-0xda4(%rbp)
   127aa:	0f 87 3c fe ff ff    	ja     125ec <func_65+0x517>
   127b0:	48 c7 05 95 d8 00 00 	movq   $0xfffffffffffffff6,0xd895(%rip)        # 20050 <g_147>
   127b7:	f6 ff ff ff 
   127bb:	90                   	nop
   127bc:	48 8b 05 8d d8 00 00 	mov    0xd88d(%rip),%rax        # 20050 <g_147>
   127c3:	48 83 f8 21          	cmp    $0x21,%rax
   127c7:	0f 86 a2 0f 00 00    	jbe    1376f <func_65+0x169a>
   127cd:	c7 85 9c f2 ff ff b4 	movl   $0x5cf284b4,-0xd64(%rbp)
   127d4:	84 f2 5c 
   127d7:	c7 85 84 f2 ff ff b8 	movl   $0xe92cd0b8,-0xd7c(%rbp)
   127de:	d0 2c e9 
   127e1:	48 8d 05 52 d8 00 00 	lea    0xd852(%rip),%rax        # 2003a <g_96>
   127e8:	48 89 85 d8 f2 ff ff 	mov    %rax,-0xd28(%rbp)
   127ef:	48 8d 85 d8 f2 ff ff 	lea    -0xd28(%rbp),%rax
   127f6:	48 89 85 08 f3 ff ff 	mov    %rax,-0xcf8(%rbp)
   127fd:	c7 85 d0 f5 ff ff 42 	movl   $0xbce2f342,-0xa30(%rbp)
   12804:	f3 e2 bc 
   12807:	c7 85 d4 f5 ff ff a1 	movl   $0x797bbba1,-0xa2c(%rbp)
   1280e:	bb 7b 79 
   12811:	c7 85 d8 f5 ff ff 91 	movl   $0x1220d091,-0xa28(%rbp)
   12818:	d0 20 12 
   1281b:	c7 85 dc f5 ff ff 05 	movl   $0x689eb205,-0xa24(%rbp)
   12822:	b2 9e 68 
   12825:	c7 85 e0 f5 ff ff db 	movl   $0x2e66a2db,-0xa20(%rbp)
   1282c:	a2 66 2e 
   1282f:	c7 85 e4 f5 ff ff 05 	movl   $0x689eb205,-0xa1c(%rbp)
   12836:	b2 9e 68 
   12839:	c7 85 e8 f5 ff ff f9 	movl   $0xe6364bf9,-0xa18(%rbp)
   12840:	4b 36 e6 
   12843:	c7 85 ec f5 ff ff 05 	movl   $0x689eb205,-0xa14(%rbp)
   1284a:	b2 9e 68 
   1284d:	c7 85 f0 f5 ff ff f9 	movl   $0xe6364bf9,-0xa10(%rbp)
   12854:	4b 36 e6 
   12857:	c7 85 f4 f5 ff ff 35 	movl   $0xed720c35,-0xa0c(%rbp)
   1285e:	0c 72 ed 
   12861:	c7 85 f8 f5 ff ff 07 	movl   $0x7,-0xa08(%rbp)
   12868:	00 00 00 
   1286b:	c7 85 fc f5 ff ff c0 	movl   $0x8e722fc0,-0xa04(%rbp)
   12872:	2f 72 8e 
   12875:	c7 85 00 f6 ff ff 35 	movl   $0xed720c35,-0xa00(%rbp)
   1287c:	0c 72 ed 
   1287f:	c7 85 04 f6 ff ff 07 	movl   $0x7,-0x9fc(%rbp)
   12886:	00 00 00 
   12889:	c7 85 08 f6 ff ff c0 	movl   $0x8e722fc0,-0x9f8(%rbp)
   12890:	2f 72 8e 
   12893:	c7 85 0c f6 ff ff 09 	movl   $0x9,-0x9f4(%rbp)
   1289a:	00 00 00 
   1289d:	c7 85 10 f6 ff ff ee 	movl   $0xa2e878ee,-0x9f0(%rbp)
   128a4:	78 e8 a2 
   128a7:	c7 85 14 f6 ff ff 20 	movl   $0xab230620,-0x9ec(%rbp)
   128ae:	06 23 ab 
   128b1:	c7 85 18 f6 ff ff 64 	movl   $0xe8808764,-0x9e8(%rbp)
   128b8:	87 80 e8 
   128bb:	c7 85 1c f6 ff ff c0 	movl   $0x8e722fc0,-0x9e4(%rbp)
   128c2:	2f 72 8e 
   128c5:	c7 85 20 f6 ff ff 0a 	movl   $0x58066d0a,-0x9e0(%rbp)
   128cc:	6d 06 58 
   128cf:	c7 85 24 f6 ff ff 09 	movl   $0x9,-0x9dc(%rbp)
   128d6:	00 00 00 
   128d9:	c7 85 28 f6 ff ff 35 	movl   $0xed720c35,-0x9d8(%rbp)
   128e0:	0c 72 ed 
   128e3:	c7 85 2c f6 ff ff 35 	movl   $0xed720c35,-0x9d4(%rbp)
   128ea:	0c 72 ed 
   128ed:	c7 85 30 f6 ff ff 35 	movl   $0xed720c35,-0x9d0(%rbp)
   128f4:	0c 72 ed 
   128f7:	c7 85 34 f6 ff ff 01 	movl   $0x1,-0x9cc(%rbp)
   128fe:	00 00 00 
   12901:	c7 85 38 f6 ff ff 01 	movl   $0x1,-0x9c8(%rbp)
   12908:	00 00 00 
   1290b:	c7 85 3c f6 ff ff 35 	movl   $0xed720c35,-0x9c4(%rbp)
   12912:	0c 72 ed 
   12915:	c7 85 40 f6 ff ff a1 	movl   $0x797bbba1,-0x9c0(%rbp)
   1291c:	bb 7b 79 
   1291f:	c7 85 44 f6 ff ff fc 	movl   $0xfffffffc,-0x9bc(%rbp)
   12926:	ff ff ff 
   12929:	c7 85 48 f6 ff ff f9 	movl   $0xe6364bf9,-0x9b8(%rbp)
   12930:	4b 36 e6 
   12933:	c7 85 4c f6 ff ff 64 	movl   $0xe8808764,-0x9b4(%rbp)
   1293a:	87 80 e8 
   1293d:	c7 85 50 f6 ff ff 20 	movl   $0xab230620,-0x9b0(%rbp)
   12944:	06 23 ab 
   12947:	c7 85 54 f6 ff ff 05 	movl   $0x689eb205,-0x9ac(%rbp)
   1294e:	b2 9e 68 
   12951:	c7 85 58 f6 ff ff 0a 	movl   $0x58066d0a,-0x9a8(%rbp)
   12958:	6d 06 58 
   1295b:	c7 85 5c f6 ff ff 91 	movl   $0x1220d091,-0x9a4(%rbp)
   12962:	d0 20 12 
   12965:	c7 85 60 f6 ff ff 42 	movl   $0xbce2f342,-0x9a0(%rbp)
   1296c:	f3 e2 bc 
   1296f:	c7 85 64 f6 ff ff 09 	movl   $0x9,-0x99c(%rbp)
   12976:	00 00 00 
   12979:	c7 85 68 f6 ff ff db 	movl   $0x2e66a2db,-0x998(%rbp)
   12980:	a2 66 2e 
   12983:	c7 85 6c f6 ff ff ff 	movl   $0xffffffff,-0x994(%rbp)
   1298a:	ff ff ff 
   1298d:	c7 85 70 f6 ff ff 0a 	movl   $0x58066d0a,-0x990(%rbp)
   12994:	6d 06 58 
   12997:	c7 85 74 f6 ff ff 07 	movl   $0x7,-0x98c(%rbp)
   1299e:	00 00 00 
   129a1:	c7 85 78 f6 ff ff a1 	movl   $0x797bbba1,-0x988(%rbp)
   129a8:	bb 7b 79 
   129ab:	c7 85 7c f6 ff ff 64 	movl   $0xe8808764,-0x984(%rbp)
   129b2:	87 80 e8 
   129b5:	c7 85 80 f6 ff ff 35 	movl   $0xed720c35,-0x980(%rbp)
   129bc:	0c 72 ed 
   129bf:	c7 85 84 f6 ff ff 64 	movl   $0xe8808764,-0x97c(%rbp)
   129c6:	87 80 e8 
   129c9:	c7 85 88 f6 ff ff a1 	movl   $0x797bbba1,-0x978(%rbp)
   129d0:	bb 7b 79 
   129d3:	c7 85 8c f6 ff ff ff 	movl   $0xffffffff,-0x974(%rbp)
   129da:	ff ff ff 
   129dd:	c7 85 90 f6 ff ff db 	movl   $0x2e66a2db,-0x970(%rbp)
   129e4:	a2 66 2e 
   129e7:	c7 85 94 f6 ff ff 01 	movl   $0x1,-0x96c(%rbp)
   129ee:	00 00 00 
   129f1:	c7 85 98 f6 ff ff 06 	movl   $0x6,-0x968(%rbp)
   129f8:	00 00 00 
   129fb:	c7 85 9c f6 ff ff fc 	movl   $0xfffffffc,-0x964(%rbp)
   12a02:	ff ff ff 
   12a05:	c7 85 a0 f6 ff ff 35 	movl   $0xed720c35,-0x960(%rbp)
   12a0c:	0c 72 ed 
   12a0f:	c7 85 a4 f6 ff ff 42 	movl   $0xbce2f342,-0x95c(%rbp)
   12a16:	f3 e2 bc 
   12a19:	c7 45 c3 00 00 00 00 	movl   $0x0,-0x3d(%rbp)
   12a20:	c6 45 c7 00          	movb   $0x0,-0x39(%rbp)
   12a24:	48 8d 05 21 d6 00 00 	lea    0xd621(%rip),%rax        # 2004c <g_139>
   12a2b:	48 89 85 90 f4 ff ff 	mov    %rax,-0xb70(%rbp)
   12a32:	48 8d 05 13 d6 00 00 	lea    0xd613(%rip),%rax        # 2004c <g_139>
   12a39:	48 89 85 98 f4 ff ff 	mov    %rax,-0xb68(%rbp)
   12a40:	48 8d 05 05 d6 00 00 	lea    0xd605(%rip),%rax        # 2004c <g_139>
   12a47:	48 89 85 a0 f4 ff ff 	mov    %rax,-0xb60(%rbp)
   12a4e:	48 8d 05 f7 d5 00 00 	lea    0xd5f7(%rip),%rax        # 2004c <g_139>
   12a55:	48 89 85 a8 f4 ff ff 	mov    %rax,-0xb58(%rbp)
   12a5c:	48 8d 05 e9 d5 00 00 	lea    0xd5e9(%rip),%rax        # 2004c <g_139>
   12a63:	48 89 85 b0 f4 ff ff 	mov    %rax,-0xb50(%rbp)
   12a6a:	48 8d 05 db d5 00 00 	lea    0xd5db(%rip),%rax        # 2004c <g_139>
   12a71:	48 89 85 b8 f4 ff ff 	mov    %rax,-0xb48(%rbp)
   12a78:	48 8d 05 cd d5 00 00 	lea    0xd5cd(%rip),%rax        # 2004c <g_139>
   12a7f:	48 89 85 c0 f4 ff ff 	mov    %rax,-0xb40(%rbp)
   12a86:	48 8d 05 bf d5 00 00 	lea    0xd5bf(%rip),%rax        # 2004c <g_139>
   12a8d:	48 89 85 c8 f4 ff ff 	mov    %rax,-0xb38(%rbp)
   12a94:	48 8d 05 b1 d5 00 00 	lea    0xd5b1(%rip),%rax        # 2004c <g_139>
   12a9b:	48 89 85 d0 f4 ff ff 	mov    %rax,-0xb30(%rbp)
   12aa2:	83 bd 9c f2 ff ff 00 	cmpl   $0x0,-0xd64(%rbp)
   12aa9:	0f 84 96 00 00 00    	je     12b45 <func_65+0xa70>
   12aaf:	c7 85 b0 f2 ff ff f6 	movl   $0xfffffff6,-0xd50(%rbp)
   12ab6:	ff ff ff 
   12ab9:	c7 85 5c f2 ff ff f1 	movl   $0xfffffff1,-0xda4(%rbp)
   12ac0:	ff ff ff 
   12ac3:	83 bd 5c f2 ff ff 1d 	cmpl   $0x1d,-0xda4(%rbp)
   12aca:	76 2c                	jbe    12af8 <func_65+0xa23>
   12acc:	c7 85 9c f3 ff ff 63 	movl   $0x25826163,-0xc64(%rbp)
   12ad3:	61 82 25 
   12ad6:	8b 85 a0 f3 ff ff    	mov    -0xc60(%rbp),%eax
   12adc:	25 00 00 00 c0       	and    $0xc0000000,%eax
   12ae1:	0d bd 3f 00 00       	or     $0x3fbd,%eax
   12ae6:	89 85 a0 f3 ff ff    	mov    %eax,-0xc60(%rbp)
   12aec:	48 8b 85 9c f3 ff ff 	mov    -0xc64(%rbp),%rax
   12af3:	e9 7e 0c 00 00       	jmpq   13776 <func_65+0x16a1>
   12af8:	83 ad b0 f2 ff ff 01 	subl   $0x1,-0xd50(%rbp)
   12aff:	c7 85 74 f2 ff ff 00 	movl   $0x0,-0xd8c(%rbp)
   12b06:	00 00 00 
   12b09:	eb 2c                	jmp    12b37 <func_65+0xa62>
   12b0b:	8b 85 74 f2 ff ff    	mov    -0xd8c(%rbp),%eax
   12b11:	48 98                	cltq   
   12b13:	48 8d 14 c5 00 00 00 	lea    0x0(,%rax,8),%rdx
   12b1a:	00 
   12b1b:	48 8d 05 0e d9 00 00 	lea    0xd90e(%rip),%rax        # 20430 <g_251>
   12b22:	48 b9 85 e1 cf b1 4d 	movabs $0xcae664db1cfe185,%rcx
   12b29:	66 ae 0c 
   12b2c:	48 89 0c 02          	mov    %rcx,(%rdx,%rax,1)
   12b30:	83 85 74 f2 ff ff 01 	addl   $0x1,-0xd8c(%rbp)
   12b37:	83 bd 74 f2 ff ff 02 	cmpl   $0x2,-0xd8c(%rbp)
   12b3e:	7e cb                	jle    12b0b <func_65+0xa36>
   12b40:	e9 21 0c 00 00       	jmpq   13766 <func_65+0x1691>
   12b45:	48 8d 05 04 d5 00 00 	lea    0xd504(%rip),%rax        # 20050 <g_147>
   12b4c:	48 89 85 e0 f4 ff ff 	mov    %rax,-0xb20(%rbp)
   12b53:	48 8d 05 f6 d4 00 00 	lea    0xd4f6(%rip),%rax        # 20050 <g_147>
   12b5a:	48 89 85 e8 f4 ff ff 	mov    %rax,-0xb18(%rbp)
   12b61:	48 8d 05 e8 d4 00 00 	lea    0xd4e8(%rip),%rax        # 20050 <g_147>
   12b68:	48 89 85 f0 f4 ff ff 	mov    %rax,-0xb10(%rbp)
   12b6f:	48 8d 05 da d4 00 00 	lea    0xd4da(%rip),%rax        # 20050 <g_147>
   12b76:	48 89 85 f8 f4 ff ff 	mov    %rax,-0xb08(%rbp)
   12b7d:	48 8d 05 cc d4 00 00 	lea    0xd4cc(%rip),%rax        # 20050 <g_147>
   12b84:	48 89 85 00 f5 ff ff 	mov    %rax,-0xb00(%rbp)
   12b8b:	48 8d 05 be d4 00 00 	lea    0xd4be(%rip),%rax        # 20050 <g_147>
   12b92:	48 89 85 08 f5 ff ff 	mov    %rax,-0xaf8(%rbp)
   12b99:	48 8d 05 b0 d4 00 00 	lea    0xd4b0(%rip),%rax        # 20050 <g_147>
   12ba0:	48 89 85 10 f5 ff ff 	mov    %rax,-0xaf0(%rbp)
   12ba7:	48 8d 05 a2 d4 00 00 	lea    0xd4a2(%rip),%rax        # 20050 <g_147>
   12bae:	48 89 85 18 f5 ff ff 	mov    %rax,-0xae8(%rbp)
   12bb5:	48 8d 05 94 d4 00 00 	lea    0xd494(%rip),%rax        # 20050 <g_147>
   12bbc:	48 89 85 20 f5 ff ff 	mov    %rax,-0xae0(%rbp)
   12bc3:	c7 85 a0 f2 ff ff 00 	movl   $0x0,-0xd60(%rbp)
   12bca:	00 00 00 
   12bcd:	c7 85 a4 f2 ff ff ce 	movl   $0xf8aa69ce,-0xd5c(%rbp)
   12bd4:	69 aa f8 
   12bd7:	c7 85 70 f2 ff ff 48 	movl   $0x3554ce48,-0xd90(%rbp)
   12bde:	ce 54 35 
   12be1:	c7 85 a8 f2 ff ff b8 	movl   $0xb4481fb8,-0xd58(%rbp)
   12be8:	1f 48 b4 
   12beb:	48 c7 85 10 f3 ff ff 	movq   $0xfffffffffffffff7,-0xcf0(%rbp)
   12bf2:	f7 ff ff ff 
   12bf6:	c7 85 ac f2 ff ff 17 	movl   $0x6af1d017,-0xd54(%rbp)
   12bfd:	d0 f1 6a 
   12c00:	48 8d 85 70 f2 ff ff 	lea    -0xd90(%rbp),%rax
   12c07:	48 89 85 18 f3 ff ff 	mov    %rax,-0xce8(%rbp)
   12c0e:	48 8d 85 90 f7 ff ff 	lea    -0x870(%rbp),%rax
   12c15:	48 8d 15 24 90 00 00 	lea    0x9024(%rip),%rdx        # 1bc40 <g_1979+0x16dc>
   12c1c:	b9 23 00 00 00       	mov    $0x23,%ecx
   12c21:	48 89 c7             	mov    %rax,%rdi
   12c24:	48 89 d6             	mov    %rdx,%rsi
   12c27:	f3 48 a5             	rep movsq %ds:(%rsi),%es:(%rdi)
   12c2a:	c7 85 88 f2 ff ff 00 	movl   $0x0,-0xd78(%rbp)
   12c31:	00 00 00 
   12c34:	eb 1a                	jmp    12c50 <func_65+0xb7b>
   12c36:	8b 85 88 f2 ff ff    	mov    -0xd78(%rbp),%eax
   12c3c:	48 98                	cltq   
   12c3e:	c7 84 85 a4 f3 ff ff 	movl   $0xffffffff,-0xc5c(%rbp,%rax,4)
   12c45:	ff ff ff ff 
   12c49:	83 85 88 f2 ff ff 01 	addl   $0x1,-0xd78(%rbp)
   12c50:	83 bd 88 f2 ff ff 02 	cmpl   $0x2,-0xd78(%rbp)
   12c57:	7e dd                	jle    12c36 <func_65+0xb61>
   12c59:	c7 85 88 f2 ff ff 00 	movl   $0x0,-0xd78(%rbp)
   12c60:	00 00 00 
   12c63:	eb 1e                	jmp    12c83 <func_65+0xbae>
   12c65:	8b 85 88 f2 ff ff    	mov    -0xd78(%rbp),%eax
   12c6b:	48 98                	cltq   
   12c6d:	48 8d 15 f0 e8 00 00 	lea    0xe8f0(%rip),%rdx        # 21564 <g_291>
   12c74:	48 89 94 c5 00 f4 ff 	mov    %rdx,-0xc00(%rbp,%rax,8)
   12c7b:	ff 
   12c7c:	83 85 88 f2 ff ff 01 	addl   $0x1,-0xd78(%rbp)
   12c83:	83 bd 88 f2 ff ff 06 	cmpl   $0x6,-0xd78(%rbp)
   12c8a:	7e d9                	jle    12c65 <func_65+0xb90>
   12c8c:	66 c7 85 6e f2 ff ff 	movw   $0x0,-0xd92(%rbp)
   12c93:	00 00 
   12c95:	e9 e1 02 00 00       	jmpq   12f7b <func_65+0xea6>
   12c9a:	48 8d 85 c8 f2 ff ff 	lea    -0xd38(%rbp),%rax
   12ca1:	48 89 85 40 f3 ff ff 	mov    %rax,-0xcc0(%rbp)
   12ca8:	c7 85 b0 f8 ff ff bd 	movl   $0x3a0565bd,-0x750(%rbp)
   12caf:	65 05 3a 
   12cb2:	c7 85 b4 f8 ff ff bd 	movl   $0x3a0565bd,-0x74c(%rbp)
   12cb9:	65 05 3a 
   12cbc:	c7 85 b8 f8 ff ff 01 	movl   $0x1,-0x748(%rbp)
   12cc3:	00 00 00 
   12cc6:	c7 85 bc f8 ff ff 01 	movl   $0x1,-0x744(%rbp)
   12ccd:	00 00 00 
   12cd0:	c7 85 c0 f8 ff ff bd 	movl   $0x3a0565bd,-0x740(%rbp)
   12cd7:	65 05 3a 
   12cda:	c7 85 c4 f8 ff ff bd 	movl   $0x3a0565bd,-0x73c(%rbp)
   12ce1:	65 05 3a 
   12ce4:	c7 85 c8 f8 ff ff 01 	movl   $0x1,-0x738(%rbp)
   12ceb:	00 00 00 
   12cee:	c7 85 cc f8 ff ff 01 	movl   $0x1,-0x734(%rbp)
   12cf5:	00 00 00 
   12cf8:	c7 85 d0 f8 ff ff bd 	movl   $0x3a0565bd,-0x730(%rbp)
   12cff:	65 05 3a 
   12d02:	c7 85 d4 f8 ff ff 00 	movl   $0x0,-0x72c(%rbp)
   12d09:	00 00 00 
   12d0c:	c7 85 d8 f8 ff ff 31 	movl   $0x8c83c131,-0x728(%rbp)
   12d13:	c1 83 8c 
   12d16:	c7 85 dc f8 ff ff 00 	movl   $0x0,-0x724(%rbp)
   12d1d:	00 00 00 
   12d20:	c7 85 e0 f8 ff ff 31 	movl   $0x8c83c131,-0x720(%rbp)
   12d27:	c1 83 8c 
   12d2a:	c7 85 e4 f8 ff ff 00 	movl   $0x0,-0x71c(%rbp)
   12d31:	00 00 00 
   12d34:	c7 85 e8 f8 ff ff 31 	movl   $0x8c83c131,-0x718(%rbp)
   12d3b:	c1 83 8c 
   12d3e:	c7 85 ec f8 ff ff 00 	movl   $0x0,-0x714(%rbp)
   12d45:	00 00 00 
   12d48:	c7 85 f0 f8 ff ff 31 	movl   $0x8c83c131,-0x710(%rbp)
   12d4f:	c1 83 8c 
   12d52:	c7 85 f4 f8 ff ff 00 	movl   $0x0,-0x70c(%rbp)
   12d59:	00 00 00 
   12d5c:	c7 85 f8 f8 ff ff bd 	movl   $0x3a0565bd,-0x708(%rbp)
   12d63:	65 05 3a 
   12d66:	c7 85 fc f8 ff ff 01 	movl   $0x1,-0x704(%rbp)
   12d6d:	00 00 00 
   12d70:	c7 85 00 f9 ff ff 01 	movl   $0x1,-0x700(%rbp)
   12d77:	00 00 00 
   12d7a:	c7 85 04 f9 ff ff bd 	movl   $0x3a0565bd,-0x6fc(%rbp)
   12d81:	65 05 3a 
   12d84:	c7 85 08 f9 ff ff bd 	movl   $0x3a0565bd,-0x6f8(%rbp)
   12d8b:	65 05 3a 
   12d8e:	c7 85 0c f9 ff ff 01 	movl   $0x1,-0x6f4(%rbp)
   12d95:	00 00 00 
   12d98:	c7 85 10 f9 ff ff 01 	movl   $0x1,-0x6f0(%rbp)
   12d9f:	00 00 00 
   12da2:	c7 85 14 f9 ff ff bd 	movl   $0x3a0565bd,-0x6ec(%rbp)
   12da9:	65 05 3a 
   12dac:	c7 85 18 f9 ff ff bd 	movl   $0x3a0565bd,-0x6e8(%rbp)
   12db3:	65 05 3a 
   12db6:	c7 85 1c f9 ff ff f7 	movl   $0xfffffff7,-0x6e4(%rbp)
   12dbd:	ff ff ff 
   12dc0:	c7 85 20 f9 ff ff 31 	movl   $0x8c83c131,-0x6e0(%rbp)
   12dc7:	c1 83 8c 
   12dca:	c7 85 24 f9 ff ff f7 	movl   $0xfffffff7,-0x6dc(%rbp)
   12dd1:	ff ff ff 
   12dd4:	c7 85 28 f9 ff ff 31 	movl   $0x8c83c131,-0x6d8(%rbp)
   12ddb:	c1 83 8c 
   12dde:	c7 85 2c f9 ff ff f7 	movl   $0xfffffff7,-0x6d4(%rbp)
   12de5:	ff ff ff 
   12de8:	c7 85 30 f9 ff ff 31 	movl   $0x8c83c131,-0x6d0(%rbp)
   12def:	c1 83 8c 
   12df2:	c7 85 34 f9 ff ff f7 	movl   $0xfffffff7,-0x6cc(%rbp)
   12df9:	ff ff ff 
   12dfc:	c7 85 38 f9 ff ff 31 	movl   $0x8c83c131,-0x6c8(%rbp)
   12e03:	c1 83 8c 
   12e06:	c7 85 3c f9 ff ff f7 	movl   $0xfffffff7,-0x6c4(%rbp)
   12e0d:	ff ff ff 
   12e10:	c7 85 40 f9 ff ff bd 	movl   $0x3a0565bd,-0x6c0(%rbp)
   12e17:	65 05 3a 
   12e1a:	c7 85 44 f9 ff ff bd 	movl   $0x3a0565bd,-0x6bc(%rbp)
   12e21:	65 05 3a 
   12e24:	c7 85 48 f9 ff ff 01 	movl   $0x1,-0x6b8(%rbp)
   12e2b:	00 00 00 
   12e2e:	c7 85 4c f9 ff ff 01 	movl   $0x1,-0x6b4(%rbp)
   12e35:	00 00 00 
   12e38:	c7 85 50 f9 ff ff bd 	movl   $0x3a0565bd,-0x6b0(%rbp)
   12e3f:	65 05 3a 
   12e42:	c7 85 54 f9 ff ff bd 	movl   $0x3a0565bd,-0x6ac(%rbp)
   12e49:	65 05 3a 
   12e4c:	c7 85 58 f9 ff ff 01 	movl   $0x1,-0x6a8(%rbp)
   12e53:	00 00 00 
   12e56:	c7 85 5c f9 ff ff 01 	movl   $0x1,-0x6a4(%rbp)
   12e5d:	00 00 00 
   12e60:	c7 85 60 f9 ff ff bd 	movl   $0x3a0565bd,-0x6a0(%rbp)
   12e67:	65 05 3a 
   12e6a:	48 8d 05 c3 d1 00 00 	lea    0xd1c3(%rip),%rax        # 20034 <g_74>
   12e71:	48 89 85 48 f3 ff ff 	mov    %rax,-0xcb8(%rbp)
   12e78:	48 8b 05 a1 ee 00 00 	mov    0xeea1(%rip),%rax        # 21d20 <g_755>
   12e7f:	48 8b 95 c8 f2 ff ff 	mov    -0xd38(%rbp),%rdx
   12e86:	48 8b 85 40 f3 ff ff 	mov    -0xcc0(%rbp),%rax
   12e8d:	48 89 10             	mov    %rdx,(%rax)
   12e90:	48 8b 85 40 f3 ff ff 	mov    -0xcc0(%rbp),%rax
   12e97:	48 8b 00             	mov    (%rax),%rax
   12e9a:	48 39 85 08 f3 ff ff 	cmp    %rax,-0xcf8(%rbp)
   12ea1:	48 8b 05 b0 41 01 00 	mov    0x141b0(%rip),%rax        # 27058 <g_574>
   12ea8:	48 8b 00             	mov    (%rax),%rax
   12eab:	0f b7 00             	movzwl (%rax),%eax
   12eae:	44 0f b7 e0          	movzwl %ax,%r12d
   12eb2:	8b 05 f0 e6 00 00    	mov    0xe6f0(%rip),%eax        # 215a8 <g_296+0x18>
   12eb8:	25 ff ff ff 7f       	and    $0x7fffffff,%eax
   12ebd:	41 89 c5             	mov    %eax,%r13d
   12ec0:	8b 85 5c f2 ff ff    	mov    -0xda4(%rbp),%eax
   12ec6:	0f bf d8             	movswl %ax,%ebx
   12ec9:	48 8b 85 50 f2 ff ff 	mov    -0xdb0(%rbp),%rax
   12ed0:	0f b6 00             	movzbl (%rax),%eax
   12ed3:	0f b6 c0             	movzbl %al,%eax
   12ed6:	c6 05 6d d1 00 00 00 	movb   $0x0,0xd16d(%rip)        # 2004a <g_111>
   12edd:	89 c6                	mov    %eax,%esi
   12edf:	bf 00 00 00 00       	mov    $0x0,%edi
   12ee4:	e8 f2 7c ff ff       	callq  abdb <safe_div_func_uint8_t_u_u>
   12ee9:	0f b6 c0             	movzbl %al,%eax
   12eec:	89 de                	mov    %ebx,%esi
   12eee:	89 c7                	mov    %eax,%edi
   12ef0:	e8 00 75 ff ff       	callq  a3f5 <safe_mul_func_int16_t_s_s>
   12ef5:	98                   	cwtl   
   12ef6:	8b 95 a0 f2 ff ff    	mov    -0xd60(%rbp),%edx
   12efc:	89 d6                	mov    %edx,%esi
   12efe:	89 c7                	mov    %eax,%edi
   12f00:	e8 fa 77 ff ff       	callq  a6ff <safe_div_func_int32_t_s_s>
   12f05:	4c 89 ee             	mov    %r13,%rsi
   12f08:	bf 01 00 00 00       	mov    $0x1,%edi
   12f0d:	e8 9d 81 ff ff       	callq  b0af <safe_div_func_uint64_t_u_u>
   12f12:	48 8b 15 8f 40 01 00 	mov    0x1408f(%rip),%rdx        # 26fa8 <g_104>
   12f19:	0f b7 12             	movzwl (%rdx),%edx
   12f1c:	31 c2                	xor    %eax,%edx
   12f1e:	48 8b 05 83 40 01 00 	mov    0x14083(%rip),%rax        # 26fa8 <g_104>
   12f25:	66 89 10             	mov    %dx,(%rax)
   12f28:	0f b7 00             	movzwl (%rax),%eax
   12f2b:	66 3d 07 73          	cmp    $0x7307,%ax
   12f2f:	7e 11                	jle    12f42 <func_65+0xe6d>
   12f31:	8b 85 44 f9 ff ff    	mov    -0x6bc(%rbp),%eax
   12f37:	85 c0                	test   %eax,%eax
   12f39:	74 07                	je     12f42 <func_65+0xe6d>
   12f3b:	b8 01 00 00 00       	mov    $0x1,%eax
   12f40:	eb 05                	jmp    12f47 <func_65+0xe72>
   12f42:	b8 00 00 00 00       	mov    $0x0,%eax
   12f47:	44 39 e0             	cmp    %r12d,%eax
   12f4a:	0f 9c c0             	setl   %al
   12f4d:	0f b6 c0             	movzbl %al,%eax
   12f50:	48 c7 c6 ff ff ff ff 	mov    $0xffffffffffffffff,%rsi
   12f57:	48 89 c7             	mov    %rax,%rdi
   12f5a:	e8 98 7a ff ff       	callq  a9f7 <safe_div_func_int64_t_s_s>
   12f5f:	48 c7 85 48 f3 ff ff 	movq   $0x0,-0xcb8(%rbp)
   12f66:	00 00 00 00 
   12f6a:	0f b7 85 6e f2 ff ff 	movzwl -0xd92(%rbp),%eax
   12f71:	83 c0 01             	add    $0x1,%eax
   12f74:	66 89 85 6e f2 ff ff 	mov    %ax,-0xd92(%rbp)
   12f7b:	0f b7 85 6e f2 ff ff 	movzwl -0xd92(%rbp),%eax
   12f82:	66 83 f8 34          	cmp    $0x34,%ax
   12f86:	0f 86 0e fd ff ff    	jbe    12c9a <func_65+0xbc5>
   12f8c:	48 83 ad 10 f3 ff ff 	subq   $0x1,-0xcf0(%rbp)
   12f93:	01 
   12f94:	c7 85 84 f2 ff ff 00 	movl   $0x0,-0xd7c(%rbp)
   12f9b:	00 00 00 
   12f9e:	e9 b6 07 00 00       	jmpq   13759 <func_65+0x1684>
   12fa3:	48 8d 05 c6 40 01 00 	lea    0x140c6(%rip),%rax        # 27070 <g_740>
   12faa:	48 89 85 e0 f2 ff ff 	mov    %rax,-0xd20(%rbp)
   12fb1:	48 8d 05 d0 e8 00 00 	lea    0xe8d0(%rip),%rax        # 21888 <g_462>
   12fb8:	48 89 85 20 f3 ff ff 	mov    %rax,-0xce0(%rbp)
   12fbf:	c7 85 8c f2 ff ff 00 	movl   $0x0,-0xd74(%rbp)
   12fc6:	00 00 00 
   12fc9:	eb 45                	jmp    13010 <func_65+0xf3b>
   12fcb:	c7 85 90 f2 ff ff 00 	movl   $0x0,-0xd70(%rbp)
   12fd2:	00 00 00 
   12fd5:	eb 29                	jmp    13000 <func_65+0xf2b>
   12fd7:	8b 85 90 f2 ff ff    	mov    -0xd70(%rbp),%eax
   12fdd:	48 98                	cltq   
   12fdf:	8b 95 8c f2 ff ff    	mov    -0xd74(%rbp),%edx
   12fe5:	48 63 d2             	movslq %edx,%rdx
   12fe8:	48 01 d2             	add    %rdx,%rdx
   12feb:	48 01 d0             	add    %rdx,%rax
   12fee:	c7 84 85 b0 f3 ff ff 	movl   $0xffffffff,-0xc50(%rbp,%rax,4)
   12ff5:	ff ff ff ff 
   12ff9:	83 85 90 f2 ff ff 01 	addl   $0x1,-0xd70(%rbp)
   13000:	83 bd 90 f2 ff ff 01 	cmpl   $0x1,-0xd70(%rbp)
   13007:	7e ce                	jle    12fd7 <func_65+0xf02>
   13009:	83 85 8c f2 ff ff 01 	addl   $0x1,-0xd74(%rbp)
   13010:	83 bd 8c f2 ff ff 01 	cmpl   $0x1,-0xd74(%rbp)
   13017:	7e b2                	jle    12fcb <func_65+0xef6>
   13019:	c6 05 11 d0 00 00 00 	movb   $0x0,0xd011(%rip)        # 20031 <g_72>
   13020:	e9 07 07 00 00       	jmpq   1372c <func_65+0x1657>
   13025:	48 8d 85 a4 f3 ff ff 	lea    -0xc5c(%rbp),%rax
   1302c:	48 83 c0 08          	add    $0x8,%rax
   13030:	48 89 85 b0 f8 ff ff 	mov    %rax,-0x750(%rbp)
   13037:	48 8d 05 0e d0 00 00 	lea    0xd00e(%rip),%rax        # 2004c <g_139>
   1303e:	48 89 85 b8 f8 ff ff 	mov    %rax,-0x748(%rbp)
   13045:	48 c7 85 c0 f8 ff ff 	movq   $0x0,-0x740(%rbp)
   1304c:	00 00 00 00 
   13050:	48 8d 05 a5 e8 00 00 	lea    0xe8a5(%rip),%rax        # 218fc <g_552+0x5c>
   13057:	48 89 85 c8 f8 ff ff 	mov    %rax,-0x738(%rbp)
   1305e:	48 8d 05 eb eb 00 00 	lea    0xebeb(%rip),%rax        # 21c50 <g_552+0x3b0>
   13065:	48 89 85 d0 f8 ff ff 	mov    %rax,-0x730(%rbp)
   1306c:	48 8d 05 dd eb 00 00 	lea    0xebdd(%rip),%rax        # 21c50 <g_552+0x3b0>
   13073:	48 89 85 d8 f8 ff ff 	mov    %rax,-0x728(%rbp)
   1307a:	48 c7 85 e0 f8 ff ff 	movq   $0x0,-0x720(%rbp)
   13081:	00 00 00 00 
   13085:	48 8d 85 a4 f3 ff ff 	lea    -0xc5c(%rbp),%rax
   1308c:	48 83 c0 08          	add    $0x8,%rax
   13090:	48 89 85 e8 f8 ff ff 	mov    %rax,-0x718(%rbp)
   13097:	48 c7 85 f0 f8 ff ff 	movq   $0x0,-0x710(%rbp)
   1309e:	00 00 00 00 
   130a2:	48 8d 05 2b ea 00 00 	lea    0xea2b(%rip),%rax        # 21ad4 <g_552+0x234>
   130a9:	48 89 85 f8 f8 ff ff 	mov    %rax,-0x708(%rbp)
   130b0:	48 8d 05 45 e8 00 00 	lea    0xe845(%rip),%rax        # 218fc <g_552+0x5c>
   130b7:	48 89 85 00 f9 ff ff 	mov    %rax,-0x700(%rbp)
   130be:	48 c7 85 08 f9 ff ff 	movq   $0x0,-0x6f8(%rbp)
   130c5:	00 00 00 00 
   130c9:	48 c7 85 10 f9 ff ff 	movq   $0x0,-0x6f0(%rbp)
   130d0:	00 00 00 00 
   130d4:	48 c7 85 18 f9 ff ff 	movq   $0x0,-0x6e8(%rbp)
   130db:	00 00 00 00 
   130df:	48 8d 85 b0 f6 ff ff 	lea    -0x950(%rbp),%rax
   130e6:	48 83 c0 10          	add    $0x10,%rax
   130ea:	48 89 85 20 f9 ff ff 	mov    %rax,-0x6e0(%rbp)
   130f1:	48 8d 05 04 e8 00 00 	lea    0xe804(%rip),%rax        # 218fc <g_552+0x5c>
   130f8:	48 89 85 28 f9 ff ff 	mov    %rax,-0x6d8(%rbp)
   130ff:	48 8d 05 ce e9 00 00 	lea    0xe9ce(%rip),%rax        # 21ad4 <g_552+0x234>
   13106:	48 89 85 30 f9 ff ff 	mov    %rax,-0x6d0(%rbp)
   1310d:	48 c7 85 38 f9 ff ff 	movq   $0x0,-0x6c8(%rbp)
   13114:	00 00 00 00 
   13118:	48 8d 85 a4 f3 ff ff 	lea    -0xc5c(%rbp),%rax
   1311f:	48 83 c0 08          	add    $0x8,%rax
   13123:	48 89 85 40 f9 ff ff 	mov    %rax,-0x6c0(%rbp)
   1312a:	48 c7 85 48 f9 ff ff 	movq   $0x0,-0x6b8(%rbp)
   13131:	00 00 00 00 
   13135:	48 8d 85 a4 f3 ff ff 	lea    -0xc5c(%rbp),%rax
   1313c:	48 83 c0 08          	add    $0x8,%rax
   13140:	48 89 85 50 f9 ff ff 	mov    %rax,-0x6b0(%rbp)
   13147:	48 8d 05 02 eb 00 00 	lea    0xeb02(%rip),%rax        # 21c50 <g_552+0x3b0>
   1314e:	48 89 85 58 f9 ff ff 	mov    %rax,-0x6a8(%rbp)
   13155:	48 8d 05 a0 e7 00 00 	lea    0xe7a0(%rip),%rax        # 218fc <g_552+0x5c>
   1315c:	48 89 85 60 f9 ff ff 	mov    %rax,-0x6a0(%rbp)
   13163:	48 c7 85 68 f9 ff ff 	movq   $0x0,-0x698(%rbp)
   1316a:	00 00 00 00 
   1316e:	48 8d 05 d7 ce 00 00 	lea    0xced7(%rip),%rax        # 2004c <g_139>
   13175:	48 89 85 70 f9 ff ff 	mov    %rax,-0x690(%rbp)
   1317c:	48 8d 85 a4 f3 ff ff 	lea    -0xc5c(%rbp),%rax
   13183:	48 83 c0 08          	add    $0x8,%rax
   13187:	48 89 85 78 f9 ff ff 	mov    %rax,-0x688(%rbp)
   1318e:	48 8d 85 a4 f3 ff ff 	lea    -0xc5c(%rbp),%rax
   13195:	48 83 c0 08          	add    $0x8,%rax
   13199:	48 89 85 80 f9 ff ff 	mov    %rax,-0x680(%rbp)
   131a0:	48 c7 85 88 f9 ff ff 	movq   $0x0,-0x678(%rbp)
   131a7:	00 00 00 00 
   131ab:	48 8d 05 9e ea 00 00 	lea    0xea9e(%rip),%rax        # 21c50 <g_552+0x3b0>
   131b2:	48 89 85 90 f9 ff ff 	mov    %rax,-0x670(%rbp)
   131b9:	48 c7 85 98 f9 ff ff 	movq   $0x0,-0x668(%rbp)
   131c0:	00 00 00 00 
   131c4:	48 c7 85 a0 f9 ff ff 	movq   $0x0,-0x660(%rbp)
   131cb:	00 00 00 00 
   131cf:	48 8d 05 76 ce 00 00 	lea    0xce76(%rip),%rax        # 2004c <g_139>
   131d6:	48 89 85 a8 f9 ff ff 	mov    %rax,-0x658(%rbp)
   131dd:	48 8d 85 b0 f6 ff ff 	lea    -0x950(%rbp),%rax
   131e4:	48 83 c0 10          	add    $0x10,%rax
   131e8:	48 89 85 b0 f9 ff ff 	mov    %rax,-0x650(%rbp)
   131ef:	48 c7 85 b8 f9 ff ff 	movq   $0x0,-0x648(%rbp)
   131f6:	00 00 00 00 
   131fa:	48 c7 85 c0 f9 ff ff 	movq   $0x0,-0x640(%rbp)
   13201:	00 00 00 00 
   13205:	48 c7 85 c8 f9 ff ff 	movq   $0x0,-0x638(%rbp)
   1320c:	00 00 00 00 
   13210:	48 8d 05 35 ce 00 00 	lea    0xce35(%rip),%rax        # 2004c <g_139>
   13217:	48 89 85 d0 f9 ff ff 	mov    %rax,-0x630(%rbp)
   1321e:	48 c7 85 d8 f9 ff ff 	movq   $0x0,-0x628(%rbp)
   13225:	00 00 00 00 
   13229:	48 c7 85 e0 f9 ff ff 	movq   $0x0,-0x620(%rbp)
   13230:	00 00 00 00 
   13234:	48 8d 05 15 ea 00 00 	lea    0xea15(%rip),%rax        # 21c50 <g_552+0x3b0>
   1323b:	48 89 85 e8 f9 ff ff 	mov    %rax,-0x618(%rbp)
   13242:	48 c7 85 f0 f9 ff ff 	movq   $0x0,-0x610(%rbp)
   13249:	00 00 00 00 
   1324d:	48 8d 05 fc e9 00 00 	lea    0xe9fc(%rip),%rax        # 21c50 <g_552+0x3b0>
   13254:	48 89 85 f8 f9 ff ff 	mov    %rax,-0x608(%rbp)
   1325b:	48 8d 85 a4 f3 ff ff 	lea    -0xc5c(%rbp),%rax
   13262:	48 83 c0 08          	add    $0x8,%rax
   13266:	48 89 85 00 fa ff ff 	mov    %rax,-0x600(%rbp)
   1326d:	48 8d 05 d8 cd 00 00 	lea    0xcdd8(%rip),%rax        # 2004c <g_139>
   13274:	48 89 85 08 fa ff ff 	mov    %rax,-0x5f8(%rbp)
   1327b:	48 c7 85 10 fa ff ff 	movq   $0x0,-0x5f0(%rbp)
   13282:	00 00 00 00 
   13286:	48 8d 05 6f e6 00 00 	lea    0xe66f(%rip),%rax        # 218fc <g_552+0x5c>
   1328d:	48 89 85 18 fa ff ff 	mov    %rax,-0x5e8(%rbp)
   13294:	48 8d 05 b5 e9 00 00 	lea    0xe9b5(%rip),%rax        # 21c50 <g_552+0x3b0>
   1329b:	48 89 85 20 fa ff ff 	mov    %rax,-0x5e0(%rbp)
   132a2:	48 8d 05 a7 e9 00 00 	lea    0xe9a7(%rip),%rax        # 21c50 <g_552+0x3b0>
   132a9:	48 89 85 28 fa ff ff 	mov    %rax,-0x5d8(%rbp)
   132b0:	48 c7 85 30 fa ff ff 	movq   $0x0,-0x5d0(%rbp)
   132b7:	00 00 00 00 
   132bb:	48 8d 85 a4 f3 ff ff 	lea    -0xc5c(%rbp),%rax
   132c2:	48 83 c0 08          	add    $0x8,%rax
   132c6:	48 89 85 38 fa ff ff 	mov    %rax,-0x5c8(%rbp)
   132cd:	48 c7 85 40 fa ff ff 	movq   $0x0,-0x5c0(%rbp)
   132d4:	00 00 00 00 
   132d8:	48 8d 05 f5 e7 00 00 	lea    0xe7f5(%rip),%rax        # 21ad4 <g_552+0x234>
   132df:	48 89 85 48 fa ff ff 	mov    %rax,-0x5b8(%rbp)
   132e6:	48 8d 05 0f e6 00 00 	lea    0xe60f(%rip),%rax        # 218fc <g_552+0x5c>
   132ed:	48 89 85 50 fa ff ff 	mov    %rax,-0x5b0(%rbp)
   132f4:	48 c7 85 58 fa ff ff 	movq   $0x0,-0x5a8(%rbp)
   132fb:	00 00 00 00 
   132ff:	48 c7 85 60 fa ff ff 	movq   $0x0,-0x5a0(%rbp)
   13306:	00 00 00 00 
   1330a:	48 c7 85 68 fa ff ff 	movq   $0x0,-0x598(%rbp)
   13311:	00 00 00 00 
   13315:	48 8d 85 b0 f6 ff ff 	lea    -0x950(%rbp),%rax
   1331c:	48 83 c0 10          	add    $0x10,%rax
   13320:	48 89 85 70 fa ff ff 	mov    %rax,-0x590(%rbp)
   13327:	48 8d 05 ce e5 00 00 	lea    0xe5ce(%rip),%rax        # 218fc <g_552+0x5c>
   1332e:	48 89 85 78 fa ff ff 	mov    %rax,-0x588(%rbp)
   13335:	48 8d 05 98 e7 00 00 	lea    0xe798(%rip),%rax        # 21ad4 <g_552+0x234>
   1333c:	48 89 85 80 fa ff ff 	mov    %rax,-0x580(%rbp)
   13343:	48 c7 85 88 fa ff ff 	movq   $0x0,-0x578(%rbp)
   1334a:	00 00 00 00 
   1334e:	c7 85 9c f3 ff ff 05 	movl   $0x5,-0xc64(%rbp)
   13355:	00 00 00 
   13358:	8b 85 a0 f3 ff ff    	mov    -0xc60(%rbp),%eax
   1335e:	25 00 00 00 c0       	and    $0xc0000000,%eax
   13363:	0d 53 62 00 00       	or     $0x6253,%eax
   13368:	89 85 a0 f3 ff ff    	mov    %eax,-0xc60(%rbp)
   1336e:	0f b6 45 c3          	movzbl -0x3d(%rbp),%eax
   13372:	84 c0                	test   %al,%al
   13374:	0f 84 9a 00 00 00    	je     13414 <func_65+0x133f>
   1337a:	48 8d 85 30 f5 ff ff 	lea    -0xad0(%rbp),%rax
   13381:	48 83 c0 08          	add    $0x8,%rax
   13385:	48 89 85 30 f3 ff ff 	mov    %rax,-0xcd0(%rbp)
   1338c:	48 8b 85 a8 f9 ff ff 	mov    -0x658(%rbp),%rax
   13393:	48 89 05 e6 3c 01 00 	mov    %rax,0x13ce6(%rip)        # 27080 <g_910>
   1339a:	48 8b 85 30 f3 ff ff 	mov    -0xcd0(%rbp),%rax
   133a1:	48 89 85 e0 f2 ff ff 	mov    %rax,-0xd20(%rbp)
   133a8:	48 8b 85 e0 f2 ff ff 	mov    -0xd20(%rbp),%rax
   133af:	48 89 05 c2 3c 01 00 	mov    %rax,0x13cc2(%rip)        # 27078 <g_739>
   133b6:	48 8b 15 bb 3c 01 00 	mov    0x13cbb(%rip),%rdx        # 27078 <g_739>
   133bd:	48 8b 05 54 3c 01 00 	mov    0x13c54(%rip),%rax        # 27018 <g_200>
   133c4:	48 8b 00             	mov    (%rax),%rax
   133c7:	48 39 c2             	cmp    %rax,%rdx
   133ca:	0f 94 c0             	sete   %al
   133cd:	0f b6 c8             	movzbl %al,%ecx
   133d0:	48 8b 85 30 f3 ff ff 	mov    -0xcd0(%rbp),%rax
   133d7:	48 8b 00             	mov    (%rax),%rax
   133da:	8b 10                	mov    (%rax),%edx
   133dc:	48 8b 85 30 f3 ff ff 	mov    -0xcd0(%rbp),%rax
   133e3:	48 8b 00             	mov    (%rax),%rax
   133e6:	31 ca                	xor    %ecx,%edx
   133e8:	89 10                	mov    %edx,(%rax)
   133ea:	48 8b 85 e0 f2 ff ff 	mov    -0xd20(%rbp),%rax
   133f1:	48 8b 10             	mov    (%rax),%rdx
   133f4:	48 8b 85 30 f3 ff ff 	mov    -0xcd0(%rbp),%rax
   133fb:	48 89 10             	mov    %rdx,(%rax)
   133fe:	48 8b 85 30 f3 ff ff 	mov    -0xcd0(%rbp),%rax
   13405:	48 8b 00             	mov    (%rax),%rax
   13408:	48 89 85 c8 f4 ff ff 	mov    %rax,-0xb38(%rbp)
   1340f:	e9 ef 01 00 00       	jmpq   13603 <func_65+0x152e>
   13414:	48 8d 05 15 d0 00 00 	lea    0xd015(%rip),%rax        # 20430 <g_251>
   1341b:	48 89 85 28 f3 ff ff 	mov    %rax,-0xcd8(%rbp)
   13422:	44 8b a5 5c f2 ff ff 	mov    -0xda4(%rbp),%r12d
   13429:	8b 85 5c f2 ff ff    	mov    -0xda4(%rbp),%eax
   1342f:	44 0f b6 e8          	movzbl %al,%r13d
   13433:	8b 9d 5c f2 ff ff    	mov    -0xda4(%rbp),%ebx
   13439:	48 8b 85 50 f2 ff ff 	mov    -0xdb0(%rbp),%rax
   13440:	0f b6 00             	movzbl (%rax),%eax
   13443:	0f be c0             	movsbl %al,%eax
   13446:	be 05 00 00 00       	mov    $0x5,%esi
   1344b:	89 c7                	mov    %eax,%edi
   1344d:	e8 1a 6f ff ff       	callq  a36c <safe_rshift_func_int8_t_s_u>
   13452:	44 0f be f8          	movsbl %al,%r15d
   13456:	44 8b b5 5c f2 ff ff 	mov    -0xda4(%rbp),%r14d
   1345d:	48 8b 85 c0 f2 ff ff 	mov    -0xd40(%rbp),%rax
   13464:	48 8b 00             	mov    (%rax),%rax
   13467:	8b 00                	mov    (%rax),%eax
   13469:	89 85 58 f2 ff ff    	mov    %eax,-0xda8(%rbp)
   1346f:	48 8b 85 28 f3 ff ff 	mov    -0xcd8(%rbp),%rax
   13476:	48 8b 10             	mov    (%rax),%rdx
   13479:	8b 85 ac f2 ff ff    	mov    -0xd54(%rbp),%eax
   1347f:	48 98                	cltq   
   13481:	48 21 c2             	and    %rax,%rdx
   13484:	48 8b 85 28 f3 ff ff 	mov    -0xcd8(%rbp),%rax
   1348b:	48 89 10             	mov    %rdx,(%rax)
   1348e:	48 8b 85 28 f3 ff ff 	mov    -0xcd8(%rbp),%rax
   13495:	48 8b 00             	mov    (%rax),%rax
   13498:	48 89 85 48 f2 ff ff 	mov    %rax,-0xdb8(%rbp)
   1349f:	8b 05 7b ce 00 00    	mov    0xce7b(%rip),%eax        # 20320 <g_235+0x80>
   134a5:	25 ff ff 3f 00       	and    $0x3fffff,%eax
   134aa:	89 c2                	mov    %eax,%edx
   134ac:	48 8b 05 f5 3a 01 00 	mov    0x13af5(%rip),%rax        # 26fa8 <g_104>
   134b3:	0f b7 00             	movzwl (%rax),%eax
   134b6:	98                   	cwtl   
   134b7:	23 85 5c f2 ff ff    	and    -0xda4(%rbp),%eax
   134bd:	89 d6                	mov    %edx,%esi
   134bf:	89 c7                	mov    %eax,%edi
   134c1:	e8 3f 71 ff ff       	callq  a605 <safe_sub_func_int32_t_s_s>
   134c6:	48 8b 05 93 c8 00 00 	mov    0xc893(%rip),%rax        # 1fd60 <l_942.4892>
   134cd:	48 39 85 00 f3 ff ff 	cmp    %rax,-0xd00(%rbp)
   134d4:	0f 95 c0             	setne  %al
   134d7:	0f b6 c0             	movzbl %al,%eax
   134da:	be 03 00 00 00       	mov    $0x3,%esi
   134df:	89 c7                	mov    %eax,%edi
   134e1:	e8 44 70 ff ff       	callq  a52a <safe_rshift_func_int16_t_s_s>
   134e6:	be f8 ff ff ff       	mov    $0xfffffff8,%esi
   134eb:	bf 00 00 00 00       	mov    $0x0,%edi
   134f0:	e8 75 6d ff ff       	callq  a26a <safe_div_func_int8_t_s_s>
   134f5:	48 8b 05 44 3b 01 00 	mov    0x13b44(%rip),%rax        # 27040 <g_425>
   134fc:	8b 00                	mov    (%rax),%eax
   134fe:	48 8b 05 a3 3a 01 00 	mov    0x13aa3(%rip),%rax        # 26fa8 <g_104>
   13505:	0f b7 00             	movzwl (%rax),%eax
   13508:	0f bf d0             	movswl %ax,%edx
   1350b:	48 8d 05 28 cb 00 00 	lea    0xcb28(%rip),%rax        # 2003a <g_96>
   13512:	0f b7 00             	movzwl (%rax),%eax
   13515:	0f b7 c0             	movzwl %ax,%eax
   13518:	39 c2                	cmp    %eax,%edx
   1351a:	7d 11                	jge    1352d <func_65+0x1458>
   1351c:	8b 05 7e e6 00 00    	mov    0xe67e(%rip),%eax        # 21ba0 <g_552+0x300>
   13522:	85 c0                	test   %eax,%eax
   13524:	74 07                	je     1352d <func_65+0x1458>
   13526:	b8 01 00 00 00       	mov    $0x1,%eax
   1352b:	eb 05                	jmp    13532 <func_65+0x145d>
   1352d:	b8 00 00 00 00       	mov    $0x0,%eax
   13532:	48 98                	cltq   
   13534:	48 0b 85 48 f2 ff ff 	or     -0xdb8(%rbp),%rax
   1353b:	48 85 c0             	test   %rax,%rax
   1353e:	0f 94 c0             	sete   %al
   13541:	0f b6 c0             	movzbl %al,%eax
   13544:	39 85 58 f2 ff ff    	cmp    %eax,-0xda8(%rbp)
   1354a:	0f 9c c0             	setl   %al
   1354d:	0f b6 c0             	movzbl %al,%eax
   13550:	44 89 f6             	mov    %r14d,%esi
   13553:	89 c7                	mov    %eax,%edi
   13555:	e8 5c 70 ff ff       	callq  a5b6 <safe_add_func_int32_t_s_s>
   1355a:	41 39 c7             	cmp    %eax,%r15d
   1355d:	75 16                	jne    13575 <func_65+0x14a0>
   1355f:	48 8b 05 42 3a 01 00 	mov    0x13a42(%rip),%rax        # 26fa8 <g_104>
   13566:	0f b7 00             	movzwl (%rax),%eax
   13569:	66 85 c0             	test   %ax,%ax
   1356c:	74 07                	je     13575 <func_65+0x14a0>
   1356e:	b8 01 00 00 00       	mov    $0x1,%eax
   13573:	eb 05                	jmp    1357a <func_65+0x14a5>
   13575:	b8 00 00 00 00       	mov    $0x0,%eax
   1357a:	48 98                	cltq   
   1357c:	48 89 de             	mov    %rbx,%rsi
   1357f:	48 89 c7             	mov    %rax,%rdi
   13582:	e8 21 73 ff ff       	callq  a8a8 <safe_sub_func_int64_t_s_s>
   13587:	44 0f be f0          	movsbl %al,%r14d
   1358b:	48 8b 85 28 f4 ff ff 	mov    -0xbd8(%rbp),%rax
   13592:	48 39 85 20 f3 ff ff 	cmp    %rax,-0xce0(%rbp)
   13599:	0f 95 c0             	setne  %al
   1359c:	0f b6 c0             	movzbl %al,%eax
   1359f:	89 c6                	mov    %eax,%esi
   135a1:	bf 01 00 00 00       	mov    $0x1,%edi
   135a6:	e8 13 77 ff ff       	callq  acbe <safe_rshift_func_uint8_t_u_u>
   135ab:	0f be c0             	movsbl %al,%eax
   135ae:	48 8b 9d d0 f2 ff ff 	mov    -0xd30(%rbp),%rbx
   135b5:	44 89 f6             	mov    %r14d,%esi
   135b8:	89 c7                	mov    %eax,%edi
   135ba:	e8 15 6c ff ff       	callq  a1d4 <safe_add_func_int8_t_s_s>
   135bf:	88 03                	mov    %al,(%rbx)
   135c1:	0f b6 03             	movzbl (%rbx),%eax
   135c4:	84 c0                	test   %al,%al
   135c6:	0f 94 c0             	sete   %al
   135c9:	0f b6 c0             	movzbl %al,%eax
   135cc:	44 89 ee             	mov    %r13d,%esi
   135cf:	89 c7                	mov    %eax,%edi
   135d1:	e8 a2 75 ff ff       	callq  ab78 <safe_sub_func_uint8_t_u_u>
   135d6:	0f b6 d0             	movzbl %al,%edx
   135d9:	48 8b 85 e0 f2 ff ff 	mov    -0xd20(%rbp),%rax
   135e0:	48 8b 00             	mov    (%rax),%rax
   135e3:	8b 00                	mov    (%rax),%eax
   135e5:	48 98                	cltq   
   135e7:	48 09 d0             	or     %rdx,%rax
   135ea:	4c 89 e6             	mov    %r12,%rsi
   135ed:	48 89 c7             	mov    %rax,%rdi
   135f0:	e8 8b 7a ff ff       	callq  b080 <safe_mod_func_uint64_t_u_u>
   135f5:	8b 95 bc f3 ff ff    	mov    -0xc44(%rbp),%edx
   135fb:	31 d0                	xor    %edx,%eax
   135fd:	89 85 bc f3 ff ff    	mov    %eax,-0xc44(%rbp)
   13603:	48 8b 05 4e 3a 01 00 	mov    0x13a4e(%rip),%rax        # 27058 <g_574>
   1360a:	48 8b 00             	mov    (%rax),%rax
   1360d:	0f b7 00             	movzwl (%rax),%eax
   13610:	0f b7 d8             	movzwl %ax,%ebx
   13613:	48 8b 05 5e 3a 01 00 	mov    0x13a5e(%rip),%rax        # 27078 <g_739>
   1361a:	48 8b 00             	mov    (%rax),%rax
   1361d:	8b 00                	mov    (%rax),%eax
   1361f:	89 c2                	mov    %eax,%edx
   13621:	8b 85 5c f2 ff ff    	mov    -0xda4(%rbp),%eax
   13627:	89 d6                	mov    %edx,%esi
   13629:	89 c7                	mov    %eax,%edi
   1362b:	e8 88 78 ff ff       	callq  aeb8 <safe_add_func_uint32_t_u_u>
   13630:	89 c2                	mov    %eax,%edx
   13632:	b8 03 00 00 00       	mov    $0x3,%eax
   13637:	21 d0                	and    %edx,%eax
   13639:	98                   	cwtl   
   1363a:	be 01 00 00 00       	mov    $0x1,%esi
   1363f:	89 c7                	mov    %eax,%edi
   13641:	e8 4c 6e ff ff       	callq  a492 <safe_lshift_func_int16_t_s_s>
   13646:	98                   	cwtl   
   13647:	89 de                	mov    %ebx,%esi
   13649:	89 c7                	mov    %eax,%edi
   1364b:	e8 91 6e ff ff       	callq  a4e1 <safe_lshift_func_int16_t_s_u>
   13650:	98                   	cwtl   
   13651:	c1 e0 04             	shl    $0x4,%eax
   13654:	c1 f8 04             	sar    $0x4,%eax
   13657:	8b 15 4b e6 00 00    	mov    0xe64b(%rip),%edx        # 21ca8 <g_627+0x8>
   1365d:	c1 e2 04             	shl    $0x4,%edx
   13660:	c1 fa 04             	sar    $0x4,%edx
   13663:	39 d0                	cmp    %edx,%eax
   13665:	0f 94 c0             	sete   %al
   13668:	0f b6 c0             	movzbl %al,%eax
   1366b:	8b 95 5c f2 ff ff    	mov    -0xda4(%rbp),%edx
   13671:	31 d0                	xor    %edx,%eax
   13673:	0f b7 d0             	movzwl %ax,%edx
   13676:	48 8b 05 b3 39 01 00 	mov    0x139b3(%rip),%rax        # 27030 <g_302>
   1367d:	0f b7 00             	movzwl (%rax),%eax
   13680:	0f b7 c0             	movzwl %ax,%eax
   13683:	89 d6                	mov    %edx,%esi
   13685:	89 c7                	mov    %eax,%edi
   13687:	e8 73 76 ff ff       	callq  acff <safe_add_func_uint16_t_u_u>
   1368c:	8b 85 5c f2 ff ff    	mov    -0xda4(%rbp),%eax
   13692:	48 89 c7             	mov    %rax,%rdi
   13695:	e8 7c 71 ff ff       	callq  a816 <safe_unary_minus_func_int64_t_s>
   1369a:	b8 c9 aa 00 00       	mov    $0xaac9,%eax
   1369f:	89 c2                	mov    %eax,%edx
   136a1:	0f b6 05 ce e1 00 00 	movzbl 0xe1ce(%rip),%eax        # 21876 <g_357>
   136a8:	3c c5                	cmp    $0xc5,%al
   136aa:	0f 95 c0             	setne  %al
   136ad:	0f b6 c0             	movzbl %al,%eax
   136b0:	39 c2                	cmp    %eax,%edx
   136b2:	74 23                	je     136d7 <func_65+0x1602>
   136b4:	48 8b 85 e0 f2 ff ff 	mov    -0xd20(%rbp),%rax
   136bb:	48 8b 00             	mov    (%rax),%rax
   136be:	48 89 85 18 f3 ff ff 	mov    %rax,-0xce8(%rbp)
   136c5:	48 8b 05 ac 39 01 00 	mov    0x139ac(%rip),%rax        # 27078 <g_739>
   136cc:	48 8b 00             	mov    (%rax),%rax
   136cf:	8b 00                	mov    (%rax),%eax
   136d1:	85 c0                	test   %eax,%eax
   136d3:	74 47                	je     1371c <func_65+0x1647>
   136d5:	eb 64                	jmp    1373b <func_65+0x1666>
   136d7:	48 8d 05 b2 39 01 00 	lea    0x139b2(%rip),%rax        # 27090 <g_955>
   136de:	48 89 85 38 f3 ff ff 	mov    %rax,-0xcc8(%rbp)
   136e5:	48 8b 15 a4 39 01 00 	mov    0x139a4(%rip),%rdx        # 27090 <g_955>
   136ec:	48 8b 85 38 f3 ff ff 	mov    -0xcc8(%rbp),%rax
   136f3:	48 89 10             	mov    %rdx,(%rax)
   136f6:	8b 05 ac e5 00 00    	mov    0xe5ac(%rip),%eax        # 21ca8 <g_627+0x8>
   136fc:	25 ff ff ff 0f       	and    $0xfffffff,%eax
   13701:	85 c0                	test   %eax,%eax
   13703:	74 05                	je     1370a <func_65+0x1635>
   13705:	e9 d3 ee ff ff       	jmpq   125dd <func_65+0x508>
   1370a:	48 8b 85 d8 f7 ff ff 	mov    -0x828(%rbp),%rax
   13711:	48 83 c0 01          	add    $0x1,%rax
   13715:	48 89 85 d8 f7 ff ff 	mov    %rax,-0x828(%rbp)
   1371c:	0f b6 05 0e c9 00 00 	movzbl 0xc90e(%rip),%eax        # 20031 <g_72>
   13723:	83 c0 01             	add    $0x1,%eax
   13726:	88 05 05 c9 00 00    	mov    %al,0xc905(%rip)        # 20031 <g_72>
   1372c:	0f b6 05 fe c8 00 00 	movzbl 0xc8fe(%rip),%eax        # 20031 <g_72>
   13733:	3c 03                	cmp    $0x3,%al
   13735:	0f 85 ea f8 ff ff    	jne    13025 <func_65+0xf50>
   1373b:	8b 85 84 f2 ff ff    	mov    -0xd7c(%rbp),%eax
   13741:	0f b7 c0             	movzwl %ax,%eax
   13744:	be 03 00 00 00       	mov    $0x3,%esi
   13749:	89 c7                	mov    %eax,%edi
   1374b:	e8 af 75 ff ff       	callq  acff <safe_add_func_uint16_t_u_u>
   13750:	0f b7 c0             	movzwl %ax,%eax
   13753:	89 85 84 f2 ff ff    	mov    %eax,-0xd7c(%rbp)
   13759:	83 bd 84 f2 ff ff 0c 	cmpl   $0xc,-0xd7c(%rbp)
   13760:	0f 85 3d f8 ff ff    	jne    12fa3 <func_65+0xece>
   13766:	48 8b 05 bb c8 00 00 	mov    0xc8bb(%rip),%rax        # 20028 <g_10>
   1376d:	eb 07                	jmp    13776 <func_65+0x16a1>
   1376f:	48 8b 05 b2 c8 00 00 	mov    0xc8b2(%rip),%rax        # 20028 <g_10>
   13776:	48 8b 5d c8          	mov    -0x38(%rbp),%rbx
   1377a:	64 48 33 1c 25 28 00 	xor    %fs:0x28,%rbx
   13781:	00 00 
   13783:	74 05                	je     1378a <func_65+0x16b5>
   13785:	e8 e6 68 ff ff       	callq  a070 <__stack_chk_fail@plt>
   1378a:	48 81 c4 98 0d 00 00 	add    $0xd98,%rsp
   13791:	5b                   	pop    %rbx
   13792:	41 5c                	pop    %r12
   13794:	41 5d                	pop    %r13
   13796:	41 5e                	pop    %r14
   13798:	41 5f                	pop    %r15
   1379a:	5d                   	pop    %rbp
   1379b:	c3                   	retq   

000000000001379c <func_68>:
   1379c:	f3 0f 1e fa          	endbr64 
   137a0:	55                   	push   %rbp
   137a1:	48 89 e5             	mov    %rsp,%rbp
   137a4:	41 57                	push   %r15
   137a6:	41 56                	push   %r14
   137a8:	41 55                	push   %r13
   137aa:	41 54                	push   %r12
   137ac:	53                   	push   %rbx
   137ad:	48 81 ec d8 0d 00 00 	sub    $0xdd8,%rsp
   137b4:	89 bd 0c f2 ff ff    	mov    %edi,-0xdf4(%rbp)
   137ba:	48 89 b5 00 f2 ff ff 	mov    %rsi,-0xe00(%rbp)
   137c1:	64 48 8b 04 25 28 00 	mov    %fs:0x28,%rax
   137c8:	00 00 
   137ca:	48 89 45 c8          	mov    %rax,-0x38(%rbp)
   137ce:	31 c0                	xor    %eax,%eax
   137d0:	48 c7 85 50 f2 ff ff 	movq   $0x0,-0xdb0(%rbp)
   137d7:	00 00 00 00 
   137db:	48 8d 05 5e c8 00 00 	lea    0xc85e(%rip),%rax        # 20040 <g_105>
   137e2:	48 89 85 98 f2 ff ff 	mov    %rax,-0xd68(%rbp)
   137e9:	48 8d 05 5a c8 00 00 	lea    0xc85a(%rip),%rax        # 2004a <g_111>
   137f0:	48 89 85 a0 f2 ff ff 	mov    %rax,-0xd60(%rbp)
   137f7:	48 8d 85 40 f8 ff ff 	lea    -0x7c0(%rbp),%rax
   137fe:	48 8d 15 db 2b 01 00 	lea    0x12bdb(%rip),%rdx        # 263e0 <g_2144+0x29e0>
   13805:	b9 f0 00 00 00       	mov    $0xf0,%ecx
   1380a:	48 89 c7             	mov    %rax,%rdi
   1380d:	48 89 d6             	mov    %rdx,%rsi
   13810:	f3 48 a5             	rep movsq %ds:(%rsi),%es:(%rdi)
   13813:	48 8d 85 5c f3 ff ff 	lea    -0xca4(%rbp),%rax
   1381a:	48 89 85 58 f2 ff ff 	mov    %rax,-0xda8(%rbp)
   13821:	c7 85 30 f2 ff ff f6 	movl   $0xb33fcdf6,-0xdd0(%rbp)
   13828:	cd 3f b3 
   1382b:	c7 85 34 f2 ff ff 05 	movl   $0x5,-0xdcc(%rbp)
   13832:	00 00 00 
   13835:	48 8d 85 58 f2 ff ff 	lea    -0xda8(%rbp),%rax
   1383c:	48 89 85 60 f2 ff ff 	mov    %rax,-0xda0(%rbp)
   13843:	48 8d 85 60 f2 ff ff 	lea    -0xda0(%rbp),%rax
   1384a:	48 89 85 68 f2 ff ff 	mov    %rax,-0xd98(%rbp)
   13851:	48 8d 85 60 f2 ff ff 	lea    -0xda0(%rbp),%rax
   13858:	48 89 85 a8 f2 ff ff 	mov    %rax,-0xd58(%rbp)
   1385f:	c7 85 38 f2 ff ff 00 	movl   $0x0,-0xdc8(%rbp)
   13866:	00 00 00 
   13869:	c7 85 24 f2 ff ff 00 	movl   $0x0,-0xddc(%rbp)
   13870:	00 00 00 
   13873:	eb 1a                	jmp    1388f <func_68+0xf3>
   13875:	8b 85 24 f2 ff ff    	mov    -0xddc(%rbp),%eax
   1387b:	48 98                	cltq   
   1387d:	c7 84 85 5c f3 ff ff 	movl   $0x85f8785d,-0xca4(%rbp,%rax,4)
   13884:	5d 78 f8 85 
   13888:	83 85 24 f2 ff ff 01 	addl   $0x1,-0xddc(%rbp)
   1388f:	83 bd 24 f2 ff ff 00 	cmpl   $0x0,-0xddc(%rbp)
   13896:	7e dd                	jle    13875 <func_68+0xd9>
   13898:	48 83 bd 00 f2 ff ff 	cmpq   $0x0,-0xe00(%rbp)
   1389f:	00 
   138a0:	0f 95 c2             	setne  %dl
   138a3:	48 8b 05 f6 36 01 00 	mov    0x136f6(%rip),%rax        # 26fa0 <g_73>
   138aa:	0f b6 d2             	movzbl %dl,%edx
   138ad:	89 10                	mov    %edx,(%rax)
   138af:	c6 05 7b c7 00 00 f9 	movb   $0xf9,0xc77b(%rip)        # 20031 <g_72>
   138b6:	e9 42 02 00 00       	jmpq   13afd <func_68+0x361>
   138bb:	48 8d 05 76 c7 00 00 	lea    0xc776(%rip),%rax        # 20038 <g_85>
   138c2:	48 89 85 b0 f2 ff ff 	mov    %rax,-0xd50(%rbp)
   138c9:	48 8d 05 6a c7 00 00 	lea    0xc76a(%rip),%rax        # 2003a <g_96>
   138d0:	48 89 85 b8 f2 ff ff 	mov    %rax,-0xd48(%rbp)
   138d7:	48 8d 85 50 f2 ff ff 	lea    -0xdb0(%rbp),%rax
   138de:	48 89 85 c0 f2 ff ff 	mov    %rax,-0xd40(%rbp)
   138e5:	c7 85 3c f2 ff ff ff 	movl   $0xffffffff,-0xdc4(%rbp)
   138ec:	ff ff ff 
   138ef:	48 b8 d0 82 e5 e9 47 	movabs $0xd30cd947e9e582d0,%rax
   138f6:	d9 0c d3 
   138f9:	48 89 85 c8 f2 ff ff 	mov    %rax,-0xd38(%rbp)
   13900:	48 8d 85 20 f5 ff ff 	lea    -0xae0(%rbp),%rax
   13907:	48 8d 15 52 32 01 00 	lea    0x13252(%rip),%rdx        # 26b60 <g_2144+0x3160>
   1390e:	b9 64 00 00 00       	mov    $0x64,%ecx
   13913:	48 89 c7             	mov    %rax,%rdi
   13916:	48 89 d6             	mov    %rdx,%rsi
   13919:	f3 48 a5             	rep movsq %ds:(%rsi),%es:(%rdi)
   1391c:	48 8d 05 11 c7 00 00 	lea    0xc711(%rip),%rax        # 20034 <g_74>
   13923:	48 89 85 d0 f2 ff ff 	mov    %rax,-0xd30(%rbp)
   1392a:	48 8b 85 50 f2 ff ff 	mov    -0xdb0(%rbp),%rax
   13931:	48 85 c0             	test   %rax,%rax
   13934:	0f 85 d4 01 00 00    	jne    13b0e <func_68+0x372>
   1393a:	8b 85 3c f2 ff ff    	mov    -0xdc4(%rbp),%eax
   13940:	0f be d8             	movsbl %al,%ebx
   13943:	8b 85 0c f2 ff ff    	mov    -0xdf4(%rbp),%eax
   13949:	44 0f b7 e0          	movzwl %ax,%r12d
   1394d:	8b 85 3c f2 ff ff    	mov    -0xdc4(%rbp),%eax
   13953:	4c 63 e8             	movslq %eax,%r13
   13956:	8b 85 0c f2 ff ff    	mov    -0xdf4(%rbp),%eax
   1395c:	44 0f b7 f0          	movzwl %ax,%r14d
   13960:	8b 85 0c f2 ff ff    	mov    -0xdf4(%rbp),%eax
   13966:	48 63 d0             	movslq %eax,%rdx
   13969:	48 8b 85 c0 f2 ff ff 	mov    -0xd40(%rbp),%rax
   13970:	48 8b 00             	mov    (%rax),%rax
   13973:	48 8d 48 ff          	lea    -0x1(%rax),%rcx
   13977:	48 8b 85 c0 f2 ff ff 	mov    -0xd40(%rbp),%rax
   1397e:	48 89 08             	mov    %rcx,(%rax)
   13981:	48 8b 85 c0 f2 ff ff 	mov    -0xd40(%rbp),%rax
   13988:	48 8b 00             	mov    (%rax),%rax
   1398b:	48 89 d6             	mov    %rdx,%rsi
   1398e:	48 89 c7             	mov    %rax,%rdi
   13991:	e8 ea 76 ff ff       	callq  b080 <safe_mod_func_uint64_t_u_u>
   13996:	48 85 c0             	test   %rax,%rax
   13999:	75 54                	jne    139ef <func_68+0x253>
   1399b:	48 8b 05 06 36 01 00 	mov    0x13606(%rip),%rax        # 26fa8 <g_104>
   139a2:	48 85 c0             	test   %rax,%rax
   139a5:	0f 94 85 0b f2 ff ff 	sete   -0xdf5(%rbp)
   139ac:	8b 85 3c f2 ff ff    	mov    -0xdc4(%rbp),%eax
   139b2:	48 98                	cltq   
   139b4:	48 89 85 c8 f2 ff ff 	mov    %rax,-0xd38(%rbp)
   139bb:	4c 8b bd c8 f2 ff ff 	mov    -0xd38(%rbp),%r15
   139c2:	0f b7 05 7d c6 00 00 	movzwl 0xc67d(%rip),%eax        # 20046 <g_105+0x6>
   139c9:	48 0f bf c0          	movswq %ax,%rax
   139cd:	48 be 67 e5 d1 d2 3a 	movabs $0x422e233ad2d1e567,%rsi
   139d4:	23 2e 42 
   139d7:	48 89 c7             	mov    %rax,%rdi
   139da:	e8 a1 76 ff ff       	callq  b080 <safe_mod_func_uint64_t_u_u>
   139df:	49 39 c7             	cmp    %rax,%r15
   139e2:	0f 97 c0             	seta   %al
   139e5:	32 85 0b f2 ff ff    	xor    -0xdf5(%rbp),%al
   139eb:	84 c0                	test   %al,%al
   139ed:	74 07                	je     139f6 <func_68+0x25a>
   139ef:	b8 01 00 00 00       	mov    $0x1,%eax
   139f4:	eb 05                	jmp    139fb <func_68+0x25f>
   139f6:	b8 00 00 00 00       	mov    $0x0,%eax
   139fb:	89 c1                	mov    %eax,%ecx
   139fd:	48 8b 85 b8 f2 ff ff 	mov    -0xd48(%rbp),%rax
   13a04:	0f b7 00             	movzwl (%rax),%eax
   13a07:	8d 50 01             	lea    0x1(%rax),%edx
   13a0a:	48 8b 85 b8 f2 ff ff 	mov    -0xd48(%rbp),%rax
   13a11:	66 89 10             	mov    %dx,(%rax)
   13a14:	48 8b 85 b8 f2 ff ff 	mov    -0xd48(%rbp),%rax
   13a1b:	0f b7 00             	movzwl (%rax),%eax
   13a1e:	0f b7 c0             	movzwl %ax,%eax
   13a21:	89 ce                	mov    %ecx,%esi
   13a23:	89 c7                	mov    %eax,%edi
   13a25:	e8 dc 73 ff ff       	callq  ae06 <safe_lshift_func_uint16_t_u_u>
   13a2a:	0f b7 05 0f c6 00 00 	movzwl 0xc60f(%rip),%eax        # 20040 <g_105>
   13a31:	66 85 c0             	test   %ax,%ax
   13a34:	79 07                	jns    13a3d <func_68+0x2a1>
   13a36:	b8 01 00 00 00       	mov    $0x1,%eax
   13a3b:	eb 05                	jmp    13a42 <func_68+0x2a6>
   13a3d:	b8 00 00 00 00       	mov    $0x0,%eax
   13a42:	89 c2                	mov    %eax,%edx
   13a44:	0f b7 05 f7 c5 00 00 	movzwl 0xc5f7(%rip),%eax        # 20042 <g_105+0x2>
   13a4b:	09 d0                	or     %edx,%eax
   13a4d:	0f b7 c0             	movzwl %ax,%eax
   13a50:	44 89 f6             	mov    %r14d,%esi
   13a53:	89 c7                	mov    %eax,%edi
   13a55:	e8 02 73 ff ff       	callq  ad5c <safe_mod_func_uint16_t_u_u>
   13a5a:	0f b7 c0             	movzwl %ax,%eax
   13a5d:	4c 89 ee             	mov    %r13,%rsi
   13a60:	48 89 c7             	mov    %rax,%rdi
   13a63:	e8 4c 6f ff ff       	callq  a9b4 <safe_mod_func_int64_t_s_s>
   13a68:	48 8b 15 39 35 01 00 	mov    0x13539(%rip),%rdx        # 26fa8 <g_104>
   13a6f:	0f b7 12             	movzwl (%rdx),%edx
   13a72:	48 0f bf d2          	movswq %dx,%rdx
   13a76:	48 39 d0             	cmp    %rdx,%rax
   13a79:	0f 9d c0             	setge  %al
   13a7c:	0f b6 c0             	movzbl %al,%eax
   13a7f:	48 be 12 aa 36 ef ec 	movabs $0x18a503ecef36aa12,%rsi
   13a86:	03 a5 18 
   13a89:	48 89 c7             	mov    %rax,%rdi
   13a8c:	e8 b0 6d ff ff       	callq  a841 <safe_add_func_int64_t_s_s>
   13a91:	8b 85 0c f2 ff ff    	mov    -0xdf4(%rbp),%eax
   13a97:	89 c2                	mov    %eax,%edx
   13a99:	8b 85 0c f2 ff ff    	mov    -0xdf4(%rbp),%eax
   13a9f:	89 c1                	mov    %eax,%ecx
   13aa1:	48 8b 85 b0 f2 ff ff 	mov    -0xd50(%rbp),%rax
   13aa8:	66 89 08             	mov    %cx,(%rax)
   13aab:	48 8b 85 b0 f2 ff ff 	mov    -0xd50(%rbp),%rax
   13ab2:	0f b7 00             	movzwl (%rax),%eax
   13ab5:	98                   	cwtl   
   13ab6:	89 d6                	mov    %edx,%esi
   13ab8:	89 c7                	mov    %eax,%edi
   13aba:	e8 a4 6a ff ff       	callq  a563 <safe_rshift_func_int16_t_s_u>
   13abf:	0f b7 c0             	movzwl %ax,%eax
   13ac2:	44 89 e6             	mov    %r12d,%esi
   13ac5:	89 c7                	mov    %eax,%edi
   13ac7:	e8 c2 72 ff ff       	callq  ad8e <safe_div_func_uint16_t_u_u>
   13acc:	0f b7 c0             	movzwl %ax,%eax
   13acf:	89 85 5c f3 ff ff    	mov    %eax,-0xca4(%rbp)
   13ad5:	89 de                	mov    %ebx,%esi
   13ad7:	bf 00 00 00 00       	mov    $0x0,%edi
   13adc:	e8 89 67 ff ff       	callq  a26a <safe_div_func_int8_t_s_s>
   13ae1:	0f be d0             	movsbl %al,%edx
   13ae4:	48 8b 85 d0 f2 ff ff 	mov    -0xd30(%rbp),%rax
   13aeb:	89 10                	mov    %edx,(%rax)
   13aed:	0f b6 05 3d c5 00 00 	movzbl 0xc53d(%rip),%eax        # 20031 <g_72>
   13af4:	83 c0 01             	add    $0x1,%eax
   13af7:	88 05 34 c5 00 00    	mov    %al,0xc534(%rip)        # 20031 <g_72>
   13afd:	0f b6 05 2d c5 00 00 	movzbl 0xc52d(%rip),%eax        # 20031 <g_72>
   13b04:	3c 03                	cmp    $0x3,%al
   13b06:	0f 8e af fd ff ff    	jle    138bb <func_68+0x11f>
   13b0c:	eb 01                	jmp    13b0f <func_68+0x373>
   13b0e:	90                   	nop
   13b0f:	8b 85 0c f2 ff ff    	mov    -0xdf4(%rbp),%eax
   13b15:	89 c3                	mov    %eax,%ebx
   13b17:	8b 85 0c f2 ff ff    	mov    -0xdf4(%rbp),%eax
   13b1d:	41 89 c4             	mov    %eax,%r12d
   13b20:	48 8b 85 a0 f2 ff ff 	mov    -0xd60(%rbp),%rax
   13b27:	c6 00 4b             	movb   $0x4b,(%rax)
   13b2a:	be 00 00 00 00       	mov    $0x0,%esi
   13b2f:	bf 4b 00 00 00       	mov    $0x4b,%edi
   13b34:	e8 85 71 ff ff       	callq  acbe <safe_rshift_func_uint8_t_u_u>
   13b39:	0f b6 d0             	movzbl %al,%edx
   13b3c:	0f b7 05 f7 c4 00 00 	movzwl 0xc4f7(%rip),%eax        # 2003a <g_96>
   13b43:	66 3d c7 00          	cmp    $0xc7,%ax
   13b47:	0f 96 c0             	setbe  %al
   13b4a:	0f b6 c0             	movzbl %al,%eax
   13b4d:	39 c2                	cmp    %eax,%edx
   13b4f:	0f 9c c0             	setl   %al
   13b52:	0f b6 c0             	movzbl %al,%eax
   13b55:	44 89 e6             	mov    %r12d,%esi
   13b58:	89 c7                	mov    %eax,%edi
   13b5a:	e8 9e 73 ff ff       	callq  aefd <safe_mod_func_uint32_t_u_u>
   13b5f:	0f bf d0             	movswl %ax,%edx
   13b62:	48 83 bd 98 f2 ff ff 	cmpq   $0x0,-0xd68(%rbp)
   13b69:	00 
   13b6a:	0f 94 c0             	sete   %al
   13b6d:	0f b6 c0             	movzbl %al,%eax
   13b70:	89 d6                	mov    %edx,%esi
   13b72:	89 c7                	mov    %eax,%edi
   13b74:	e8 7c 68 ff ff       	callq  a3f5 <safe_mul_func_int16_t_s_s>
   13b79:	8b 95 5c f3 ff ff    	mov    -0xca4(%rbp),%edx
   13b7f:	98                   	cwtl   
   13b80:	21 d0                	and    %edx,%eax
   13b82:	89 85 5c f3 ff ff    	mov    %eax,-0xca4(%rbp)
   13b88:	0f b7 05 99 3b 01 00 	movzwl 0x13b99(%rip),%eax        # 27728 <g_125>
   13b8f:	0f b7 c0             	movzwl %ax,%eax
   13b92:	89 de                	mov    %ebx,%esi
   13b94:	89 c7                	mov    %eax,%edi
   13b96:	e8 35 73 ff ff       	callq  aed0 <safe_sub_func_uint32_t_u_u>
   13b9b:	48 8b 15 06 34 01 00 	mov    0x13406(%rip),%rdx        # 26fa8 <g_104>
   13ba2:	0f b7 12             	movzwl (%rdx),%edx
   13ba5:	0f bf d2             	movswl %dx,%edx
   13ba8:	39 d0                	cmp    %edx,%eax
   13baa:	0f 85 91 00 00 00    	jne    13c41 <func_68+0x4a5>
   13bb0:	48 8d 85 5c f3 ff ff 	lea    -0xca4(%rbp),%rax
   13bb7:	48 89 85 50 f3 ff ff 	mov    %rax,-0xcb0(%rbp)
   13bbe:	48 8d 85 50 f3 ff ff 	lea    -0xcb0(%rbp),%rax
   13bc5:	48 89 85 20 f5 ff ff 	mov    %rax,-0xae0(%rbp)
   13bcc:	48 8d 85 50 f3 ff ff 	lea    -0xcb0(%rbp),%rax
   13bd3:	48 89 85 28 f5 ff ff 	mov    %rax,-0xad8(%rbp)
   13bda:	48 8d 85 50 f3 ff ff 	lea    -0xcb0(%rbp),%rax
   13be1:	48 89 85 30 f5 ff ff 	mov    %rax,-0xad0(%rbp)
   13be8:	48 8d 85 50 f3 ff ff 	lea    -0xcb0(%rbp),%rax
   13bef:	48 89 85 38 f5 ff ff 	mov    %rax,-0xac8(%rbp)
   13bf6:	48 8d 85 50 f3 ff ff 	lea    -0xcb0(%rbp),%rax
   13bfd:	48 89 85 40 f5 ff ff 	mov    %rax,-0xac0(%rbp)
   13c04:	48 8d 85 50 f3 ff ff 	lea    -0xcb0(%rbp),%rax
   13c0b:	48 89 85 48 f5 ff ff 	mov    %rax,-0xab8(%rbp)
   13c12:	48 8b 85 a0 f2 ff ff 	mov    -0xd60(%rbp),%rax
   13c19:	0f b6 00             	movzbl (%rax),%eax
   13c1c:	48 8b 95 50 f2 ff ff 	mov    -0xdb0(%rbp),%rdx
   13c23:	31 c2                	xor    %eax,%edx
   13c25:	48 8b 85 a0 f2 ff ff 	mov    -0xd60(%rbp),%rax
   13c2c:	88 10                	mov    %dl,(%rax)
   13c2e:	48 8d 05 ff c3 00 00 	lea    0xc3ff(%rip),%rax        # 20034 <g_74>
   13c35:	48 89 85 58 f2 ff ff 	mov    %rax,-0xda8(%rbp)
   13c3c:	e9 13 15 00 00       	jmpq   15154 <func_68+0x19b8>
   13c41:	48 8d 05 e9 c3 00 00 	lea    0xc3e9(%rip),%rax        # 20031 <g_72>
   13c48:	48 89 85 70 f2 ff ff 	mov    %rax,-0xd90(%rbp)
   13c4f:	c7 85 18 f2 ff ff b4 	movl   $0x28f08ab4,-0xde8(%rbp)
   13c56:	8a f0 28 
   13c59:	c7 85 1c f2 ff ff 2b 	movl   $0x22c1772b,-0xde4(%rbp)
   13c60:	77 c1 22 
   13c63:	48 8d 85 00 f4 ff ff 	lea    -0xc00(%rbp),%rax
   13c6a:	48 8d 15 0f 32 01 00 	lea    0x1320f(%rip),%rdx        # 26e80 <g_2144+0x3480>
   13c71:	b9 24 00 00 00       	mov    $0x24,%ecx
   13c76:	48 89 c7             	mov    %rax,%rdi
   13c79:	48 89 d6             	mov    %rdx,%rsi
   13c7c:	f3 48 a5             	rep movsq %ds:(%rsi),%es:(%rdi)
   13c7f:	c7 85 a0 f3 ff ff 43 	movl   $0xcfc11943,-0xc60(%rbp)
   13c86:	19 c1 cf 
   13c89:	c7 85 a4 f3 ff ff 43 	movl   $0xcfc11943,-0xc5c(%rbp)
   13c90:	19 c1 cf 
   13c93:	c7 85 a8 f3 ff ff 43 	movl   $0xcfc11943,-0xc58(%rbp)
   13c9a:	19 c1 cf 
   13c9d:	c7 85 ac f3 ff ff f6 	movl   $0xfffffff6,-0xc54(%rbp)
   13ca4:	ff ff ff 
   13ca7:	c7 85 b0 f3 ff ff f6 	movl   $0xfffffff6,-0xc50(%rbp)
   13cae:	ff ff ff 
   13cb1:	c7 85 b4 f3 ff ff f6 	movl   $0xfffffff6,-0xc4c(%rbp)
   13cb8:	ff ff ff 
   13cbb:	c7 85 b8 f3 ff ff 43 	movl   $0xcfc11943,-0xc48(%rbp)
   13cc2:	19 c1 cf 
   13cc5:	c7 85 bc f3 ff ff 43 	movl   $0xcfc11943,-0xc44(%rbp)
   13ccc:	19 c1 cf 
   13ccf:	c7 85 c0 f3 ff ff 43 	movl   $0xcfc11943,-0xc40(%rbp)
   13cd6:	19 c1 cf 
   13cd9:	c7 85 c4 f3 ff ff f6 	movl   $0xfffffff6,-0xc3c(%rbp)
   13ce0:	ff ff ff 
   13ce3:	c7 85 c8 f3 ff ff f6 	movl   $0xfffffff6,-0xc38(%rbp)
   13cea:	ff ff ff 
   13ced:	c7 85 cc f3 ff ff f6 	movl   $0xfffffff6,-0xc34(%rbp)
   13cf4:	ff ff ff 
   13cf7:	48 8d 85 5c f3 ff ff 	lea    -0xca4(%rbp),%rax
   13cfe:	48 89 85 90 f2 ff ff 	mov    %rax,-0xd70(%rbp)
   13d05:	48 b8 54 24 51 b3 5a 	movabs $0xf5ecd5ab3512454,%rax
   13d0c:	cd 5e 0f 
   13d0f:	48 89 85 d8 f2 ff ff 	mov    %rax,-0xd28(%rbp)
   13d16:	66 c7 05 19 c3 00 00 	movw   $0x0,0xc319(%rip)        # 20038 <g_85>
   13d1d:	00 00 
   13d1f:	e9 37 11 00 00       	jmpq   14e5b <func_68+0x16bf>
   13d24:	48 8d 05 25 c3 00 00 	lea    0xc325(%rip),%rax        # 20050 <g_147>
   13d2b:	48 89 85 00 f3 ff ff 	mov    %rax,-0xd00(%rbp)
   13d32:	48 8d 85 1c f2 ff ff 	lea    -0xde4(%rbp),%rax
   13d39:	48 89 85 78 f2 ff ff 	mov    %rax,-0xd88(%rbp)
   13d40:	c7 85 40 f2 ff ff 04 	movl   $0x4,-0xdc0(%rbp)
   13d47:	00 00 00 
   13d4a:	c7 85 44 f2 ff ff f7 	movl   $0xfffffff7,-0xdbc(%rbp)
   13d51:	ff ff ff 
   13d54:	c6 85 16 f2 ff ff 01 	movb   $0x1,-0xdea(%rbp)
   13d5b:	c7 85 20 f2 ff ff ff 	movl   $0xffffffff,-0xde0(%rbp)
   13d62:	ff ff ff 
   13d65:	c7 85 48 f2 ff ff fb 	movl   $0x81b76bfb,-0xdb8(%rbp)
   13d6c:	6b b7 81 
   13d6f:	c7 85 4c f2 ff ff 01 	movl   $0x1,-0xdb4(%rbp)
   13d76:	00 00 00 
   13d79:	48 b8 9e 35 2e f1 87 	movabs $0xe6f76b87f12e359e,%rax
   13d80:	6b f7 e6 
   13d83:	48 89 85 88 f2 ff ff 	mov    %rax,-0xd78(%rbp)
   13d8a:	c6 85 17 f2 ff ff 4e 	movb   $0x4e,-0xde9(%rbp)
   13d91:	48 8d 85 5c f3 ff ff 	lea    -0xca4(%rbp),%rax
   13d98:	48 89 85 08 f3 ff ff 	mov    %rax,-0xcf8(%rbp)
   13d9f:	c7 85 28 f2 ff ff 00 	movl   $0x0,-0xdd8(%rbp)
   13da6:	00 00 00 
   13da9:	eb 1e                	jmp    13dc9 <func_68+0x62d>
   13dab:	8b 85 28 f2 ff ff    	mov    -0xdd8(%rbp),%eax
   13db1:	48 98                	cltq   
   13db3:	48 8d 95 60 f2 ff ff 	lea    -0xda0(%rbp),%rdx
   13dba:	48 89 94 c5 80 f3 ff 	mov    %rdx,-0xc80(%rbp,%rax,8)
   13dc1:	ff 
   13dc2:	83 85 28 f2 ff ff 01 	addl   $0x1,-0xdd8(%rbp)
   13dc9:	83 bd 28 f2 ff ff 02 	cmpl   $0x2,-0xdd8(%rbp)
   13dd0:	7e d9                	jle    13dab <func_68+0x60f>
   13dd2:	c7 85 28 f2 ff ff 00 	movl   $0x0,-0xdd8(%rbp)
   13dd9:	00 00 00 
   13ddc:	eb 19                	jmp    13df7 <func_68+0x65b>
   13dde:	8b 85 28 f2 ff ff    	mov    -0xdd8(%rbp),%eax
   13de4:	48 98                	cltq   
   13de6:	66 c7 84 45 62 f3 ff 	movw   $0x1ac8,-0xc9e(%rbp,%rax,2)
   13ded:	ff c8 1a 
   13df0:	83 85 28 f2 ff ff 01 	addl   $0x1,-0xdd8(%rbp)
   13df7:	83 bd 28 f2 ff ff 06 	cmpl   $0x6,-0xdd8(%rbp)
   13dfe:	7e de                	jle    13dde <func_68+0x642>
   13e00:	0f b7 05 31 c2 00 00 	movzwl 0xc231(%rip),%eax        # 20038 <g_85>
   13e07:	98                   	cwtl   
   13e08:	48 98                	cltq   
   13e0a:	8b 84 85 5c f3 ff ff 	mov    -0xca4(%rbp,%rax,4),%eax
   13e11:	85 c0                	test   %eax,%eax
   13e13:	0f 84 24 09 00 00    	je     1473d <func_68+0xfa1>
   13e19:	48 c7 85 20 f3 ff ff 	movq   $0x0,-0xce0(%rbp)
   13e20:	00 00 00 00 
   13e24:	48 8d 05 21 c2 00 00 	lea    0xc221(%rip),%rax        # 2004c <g_139>
   13e2b:	48 89 85 20 f5 ff ff 	mov    %rax,-0xae0(%rbp)
   13e32:	48 8d 85 5c f3 ff ff 	lea    -0xca4(%rbp),%rax
   13e39:	48 89 85 28 f5 ff ff 	mov    %rax,-0xad8(%rbp)
   13e40:	48 8d 05 ed c1 00 00 	lea    0xc1ed(%rip),%rax        # 20034 <g_74>
   13e47:	48 89 85 30 f5 ff ff 	mov    %rax,-0xad0(%rbp)
   13e4e:	48 8d 05 df c1 00 00 	lea    0xc1df(%rip),%rax        # 20034 <g_74>
   13e55:	48 89 85 38 f5 ff ff 	mov    %rax,-0xac8(%rbp)
   13e5c:	48 8d 85 5c f3 ff ff 	lea    -0xca4(%rbp),%rax
   13e63:	48 89 85 40 f5 ff ff 	mov    %rax,-0xac0(%rbp)
   13e6a:	0f b7 05 c7 c1 00 00 	movzwl 0xc1c7(%rip),%eax        # 20038 <g_85>
   13e71:	0f bf d0             	movswl %ax,%edx
   13e74:	48 8d 85 5c f3 ff ff 	lea    -0xca4(%rbp),%rax
   13e7b:	48 63 d2             	movslq %edx,%rdx
   13e7e:	48 c1 e2 02          	shl    $0x2,%rdx
   13e82:	48 01 d0             	add    %rdx,%rax
   13e85:	48 89 85 48 f5 ff ff 	mov    %rax,-0xab8(%rbp)
   13e8c:	48 8d 05 b9 c1 00 00 	lea    0xc1b9(%rip),%rax        # 2004c <g_139>
   13e93:	48 89 85 50 f5 ff ff 	mov    %rax,-0xab0(%rbp)
   13e9a:	48 c7 85 58 f5 ff ff 	movq   $0x0,-0xaa8(%rbp)
   13ea1:	00 00 00 00 
   13ea5:	48 c7 85 60 f5 ff ff 	movq   $0x0,-0xaa0(%rbp)
   13eac:	00 00 00 00 
   13eb0:	0f b7 05 81 c1 00 00 	movzwl 0xc181(%rip),%eax        # 20038 <g_85>
   13eb7:	0f bf d0             	movswl %ax,%edx
   13eba:	48 8d 85 5c f3 ff ff 	lea    -0xca4(%rbp),%rax
   13ec1:	48 63 d2             	movslq %edx,%rdx
   13ec4:	48 c1 e2 02          	shl    $0x2,%rdx
   13ec8:	48 01 d0             	add    %rdx,%rax
   13ecb:	48 89 85 68 f5 ff ff 	mov    %rax,-0xa98(%rbp)
   13ed2:	48 8d 05 73 c1 00 00 	lea    0xc173(%rip),%rax        # 2004c <g_139>
   13ed9:	48 89 85 70 f5 ff ff 	mov    %rax,-0xa90(%rbp)
   13ee0:	48 8d 85 5c f3 ff ff 	lea    -0xca4(%rbp),%rax
   13ee7:	48 89 85 78 f5 ff ff 	mov    %rax,-0xa88(%rbp)
   13eee:	0f b7 05 43 c1 00 00 	movzwl 0xc143(%rip),%eax        # 20038 <g_85>
   13ef5:	0f bf d0             	movswl %ax,%edx
   13ef8:	48 8d 85 5c f3 ff ff 	lea    -0xca4(%rbp),%rax
   13eff:	48 63 d2             	movslq %edx,%rdx
   13f02:	48 c1 e2 02          	shl    $0x2,%rdx
   13f06:	48 01 d0             	add    %rdx,%rax
   13f09:	48 89 85 80 f5 ff ff 	mov    %rax,-0xa80(%rbp)
   13f10:	48 c7 85 88 f5 ff ff 	movq   $0x0,-0xa78(%rbp)
   13f17:	00 00 00 00 
   13f1b:	0f b7 05 16 c1 00 00 	movzwl 0xc116(%rip),%eax        # 20038 <g_85>
   13f22:	0f bf d0             	movswl %ax,%edx
   13f25:	48 8d 85 5c f3 ff ff 	lea    -0xca4(%rbp),%rax
   13f2c:	48 63 d2             	movslq %edx,%rdx
   13f2f:	48 c1 e2 02          	shl    $0x2,%rdx
   13f33:	48 01 d0             	add    %rdx,%rax
   13f36:	48 89 85 90 f5 ff ff 	mov    %rax,-0xa70(%rbp)
   13f3d:	48 c7 85 98 f5 ff ff 	movq   $0x0,-0xa68(%rbp)
   13f44:	00 00 00 00 
   13f48:	48 c7 85 a0 f5 ff ff 	movq   $0x0,-0xa60(%rbp)
   13f4f:	00 00 00 00 
   13f53:	0f b7 05 de c0 00 00 	movzwl 0xc0de(%rip),%eax        # 20038 <g_85>
   13f5a:	0f bf d0             	movswl %ax,%edx
   13f5d:	48 8d 85 5c f3 ff ff 	lea    -0xca4(%rbp),%rax
   13f64:	48 63 d2             	movslq %edx,%rdx
   13f67:	48 c1 e2 02          	shl    $0x2,%rdx
   13f6b:	48 01 d0             	add    %rdx,%rax
   13f6e:	48 89 85 a8 f5 ff ff 	mov    %rax,-0xa58(%rbp)
   13f75:	48 c7 85 b0 f5 ff ff 	movq   $0x0,-0xa50(%rbp)
   13f7c:	00 00 00 00 
   13f80:	0f b7 05 b1 c0 00 00 	movzwl 0xc0b1(%rip),%eax        # 20038 <g_85>
   13f87:	0f bf d0             	movswl %ax,%edx
   13f8a:	48 8d 85 5c f3 ff ff 	lea    -0xca4(%rbp),%rax
   13f91:	48 63 d2             	movslq %edx,%rdx
   13f94:	48 c1 e2 02          	shl    $0x2,%rdx
   13f98:	48 01 d0             	add    %rdx,%rax
   13f9b:	48 89 85 b8 f5 ff ff 	mov    %rax,-0xa48(%rbp)
   13fa2:	48 8d 05 a3 c0 00 00 	lea    0xc0a3(%rip),%rax        # 2004c <g_139>
   13fa9:	48 89 85 c0 f5 ff ff 	mov    %rax,-0xa40(%rbp)
   13fb0:	48 8d 05 95 c0 00 00 	lea    0xc095(%rip),%rax        # 2004c <g_139>
   13fb7:	48 89 85 c8 f5 ff ff 	mov    %rax,-0xa38(%rbp)
   13fbe:	0f b7 05 73 c0 00 00 	movzwl 0xc073(%rip),%eax        # 20038 <g_85>
   13fc5:	0f bf d0             	movswl %ax,%edx
   13fc8:	48 8d 85 5c f3 ff ff 	lea    -0xca4(%rbp),%rax
   13fcf:	48 63 d2             	movslq %edx,%rdx
   13fd2:	48 c1 e2 02          	shl    $0x2,%rdx
   13fd6:	48 01 d0             	add    %rdx,%rax
   13fd9:	48 89 85 d0 f5 ff ff 	mov    %rax,-0xa30(%rbp)
   13fe0:	48 c7 85 d8 f5 ff ff 	movq   $0x0,-0xa28(%rbp)
   13fe7:	00 00 00 00 
   13feb:	48 c7 85 e0 f5 ff ff 	movq   $0x0,-0xa20(%rbp)
   13ff2:	00 00 00 00 
   13ff6:	48 8d 05 4f c0 00 00 	lea    0xc04f(%rip),%rax        # 2004c <g_139>
   13ffd:	48 89 85 e8 f5 ff ff 	mov    %rax,-0xa18(%rbp)
   14004:	0f b7 05 2d c0 00 00 	movzwl 0xc02d(%rip),%eax        # 20038 <g_85>
   1400b:	0f bf d0             	movswl %ax,%edx
   1400e:	48 8d 85 5c f3 ff ff 	lea    -0xca4(%rbp),%rax
   14015:	48 63 d2             	movslq %edx,%rdx
   14018:	48 c1 e2 02          	shl    $0x2,%rdx
   1401c:	48 01 d0             	add    %rdx,%rax
   1401f:	48 89 85 f0 f5 ff ff 	mov    %rax,-0xa10(%rbp)
   14026:	48 8d 85 5c f3 ff ff 	lea    -0xca4(%rbp),%rax
   1402d:	48 89 85 f8 f5 ff ff 	mov    %rax,-0xa08(%rbp)
   14034:	48 8d 05 f9 bf 00 00 	lea    0xbff9(%rip),%rax        # 20034 <g_74>
   1403b:	48 89 85 00 f6 ff ff 	mov    %rax,-0xa00(%rbp)
   14042:	48 8d 05 eb bf 00 00 	lea    0xbfeb(%rip),%rax        # 20034 <g_74>
   14049:	48 89 85 08 f6 ff ff 	mov    %rax,-0x9f8(%rbp)
   14050:	0f b7 05 e1 bf 00 00 	movzwl 0xbfe1(%rip),%eax        # 20038 <g_85>
   14057:	0f bf d0             	movswl %ax,%edx
   1405a:	48 8d 85 5c f3 ff ff 	lea    -0xca4(%rbp),%rax
   14061:	48 63 d2             	movslq %edx,%rdx
   14064:	48 c1 e2 02          	shl    $0x2,%rdx
   14068:	48 01 d0             	add    %rdx,%rax
   1406b:	48 89 85 10 f6 ff ff 	mov    %rax,-0x9f0(%rbp)
   14072:	48 c7 85 18 f6 ff ff 	movq   $0x0,-0x9e8(%rbp)
   14079:	00 00 00 00 
   1407d:	48 8d 85 5c f3 ff ff 	lea    -0xca4(%rbp),%rax
   14084:	48 89 85 20 f6 ff ff 	mov    %rax,-0x9e0(%rbp)
   1408b:	48 8d 05 a2 bf 00 00 	lea    0xbfa2(%rip),%rax        # 20034 <g_74>
   14092:	48 89 85 28 f6 ff ff 	mov    %rax,-0x9d8(%rbp)
   14099:	48 8d 05 ac bf 00 00 	lea    0xbfac(%rip),%rax        # 2004c <g_139>
   140a0:	48 89 85 30 f6 ff ff 	mov    %rax,-0x9d0(%rbp)
   140a7:	48 8d 05 86 bf 00 00 	lea    0xbf86(%rip),%rax        # 20034 <g_74>
   140ae:	48 89 85 38 f6 ff ff 	mov    %rax,-0x9c8(%rbp)
   140b5:	0f b7 05 7c bf 00 00 	movzwl 0xbf7c(%rip),%eax        # 20038 <g_85>
   140bc:	0f bf d0             	movswl %ax,%edx
   140bf:	48 8d 85 5c f3 ff ff 	lea    -0xca4(%rbp),%rax
   140c6:	48 63 d2             	movslq %edx,%rdx
   140c9:	48 c1 e2 02          	shl    $0x2,%rdx
   140cd:	48 01 d0             	add    %rdx,%rax
   140d0:	48 89 85 40 f6 ff ff 	mov    %rax,-0x9c0(%rbp)
   140d7:	48 8d 85 5c f3 ff ff 	lea    -0xca4(%rbp),%rax
   140de:	48 89 85 48 f6 ff ff 	mov    %rax,-0x9b8(%rbp)
   140e5:	48 c7 85 50 f6 ff ff 	movq   $0x0,-0x9b0(%rbp)
   140ec:	00 00 00 00 
   140f0:	0f b7 05 41 bf 00 00 	movzwl 0xbf41(%rip),%eax        # 20038 <g_85>
   140f7:	0f bf d0             	movswl %ax,%edx
   140fa:	48 8d 85 5c f3 ff ff 	lea    -0xca4(%rbp),%rax
   14101:	48 63 d2             	movslq %edx,%rdx
   14104:	48 c1 e2 02          	shl    $0x2,%rdx
   14108:	48 01 d0             	add    %rdx,%rax
   1410b:	48 89 85 58 f6 ff ff 	mov    %rax,-0x9a8(%rbp)
   14112:	48 8d 85 5c f3 ff ff 	lea    -0xca4(%rbp),%rax
   14119:	48 89 85 60 f6 ff ff 	mov    %rax,-0x9a0(%rbp)
   14120:	48 8d 05 25 bf 00 00 	lea    0xbf25(%rip),%rax        # 2004c <g_139>
   14127:	48 89 85 68 f6 ff ff 	mov    %rax,-0x998(%rbp)
   1412e:	0f b7 05 03 bf 00 00 	movzwl 0xbf03(%rip),%eax        # 20038 <g_85>
   14135:	0f bf d0             	movswl %ax,%edx
   14138:	48 8d 85 5c f3 ff ff 	lea    -0xca4(%rbp),%rax
   1413f:	48 63 d2             	movslq %edx,%rdx
   14142:	48 c1 e2 02          	shl    $0x2,%rdx
   14146:	48 01 d0             	add    %rdx,%rax
   14149:	48 89 85 70 f6 ff ff 	mov    %rax,-0x990(%rbp)
   14150:	48 8d 85 5c f3 ff ff 	lea    -0xca4(%rbp),%rax
   14157:	48 89 85 78 f6 ff ff 	mov    %rax,-0x988(%rbp)
   1415e:	48 8d 05 cf be 00 00 	lea    0xbecf(%rip),%rax        # 20034 <g_74>
   14165:	48 89 85 80 f6 ff ff 	mov    %rax,-0x980(%rbp)
   1416c:	48 8d 05 c1 be 00 00 	lea    0xbec1(%rip),%rax        # 20034 <g_74>
   14173:	48 89 85 88 f6 ff ff 	mov    %rax,-0x978(%rbp)
   1417a:	48 c7 85 90 f6 ff ff 	movq   $0x0,-0x970(%rbp)
   14181:	00 00 00 00 
   14185:	48 8d 05 a8 be 00 00 	lea    0xbea8(%rip),%rax        # 20034 <g_74>
   1418c:	48 89 85 98 f6 ff ff 	mov    %rax,-0x968(%rbp)
   14193:	48 8d 05 9a be 00 00 	lea    0xbe9a(%rip),%rax        # 20034 <g_74>
   1419a:	48 89 85 a0 f6 ff ff 	mov    %rax,-0x960(%rbp)
   141a1:	48 8d 85 5c f3 ff ff 	lea    -0xca4(%rbp),%rax
   141a8:	48 89 85 a8 f6 ff ff 	mov    %rax,-0x958(%rbp)
   141af:	48 8d 05 7e be 00 00 	lea    0xbe7e(%rip),%rax        # 20034 <g_74>
   141b6:	48 89 85 b0 f6 ff ff 	mov    %rax,-0x950(%rbp)
   141bd:	48 8d 85 5c f3 ff ff 	lea    -0xca4(%rbp),%rax
   141c4:	48 89 85 b8 f6 ff ff 	mov    %rax,-0x948(%rbp)
   141cb:	48 8d 05 62 be 00 00 	lea    0xbe62(%rip),%rax        # 20034 <g_74>
   141d2:	48 89 85 c0 f6 ff ff 	mov    %rax,-0x940(%rbp)
   141d9:	0f b7 05 58 be 00 00 	movzwl 0xbe58(%rip),%eax        # 20038 <g_85>
   141e0:	0f bf d0             	movswl %ax,%edx
   141e3:	48 8d 85 5c f3 ff ff 	lea    -0xca4(%rbp),%rax
   141ea:	48 63 d2             	movslq %edx,%rdx
   141ed:	48 c1 e2 02          	shl    $0x2,%rdx
   141f1:	48 01 d0             	add    %rdx,%rax
   141f4:	48 89 85 c8 f6 ff ff 	mov    %rax,-0x938(%rbp)
   141fb:	48 8d 05 4a be 00 00 	lea    0xbe4a(%rip),%rax        # 2004c <g_139>
   14202:	48 89 85 d0 f6 ff ff 	mov    %rax,-0x930(%rbp)
   14209:	48 8d 85 5c f3 ff ff 	lea    -0xca4(%rbp),%rax
   14210:	48 89 85 d8 f6 ff ff 	mov    %rax,-0x928(%rbp)
   14217:	48 8d 05 2e be 00 00 	lea    0xbe2e(%rip),%rax        # 2004c <g_139>
   1421e:	48 89 85 e0 f6 ff ff 	mov    %rax,-0x920(%rbp)
   14225:	48 8d 05 20 be 00 00 	lea    0xbe20(%rip),%rax        # 2004c <g_139>
   1422c:	48 89 85 e8 f6 ff ff 	mov    %rax,-0x918(%rbp)
   14233:	48 8d 05 12 be 00 00 	lea    0xbe12(%rip),%rax        # 2004c <g_139>
   1423a:	48 89 85 f0 f6 ff ff 	mov    %rax,-0x910(%rbp)
   14241:	48 8d 85 5c f3 ff ff 	lea    -0xca4(%rbp),%rax
   14248:	48 89 85 f8 f6 ff ff 	mov    %rax,-0x908(%rbp)
   1424f:	0f b7 05 e2 bd 00 00 	movzwl 0xbde2(%rip),%eax        # 20038 <g_85>
   14256:	0f bf d0             	movswl %ax,%edx
   14259:	48 8d 85 5c f3 ff ff 	lea    -0xca4(%rbp),%rax
   14260:	48 63 d2             	movslq %edx,%rdx
   14263:	48 c1 e2 02          	shl    $0x2,%rdx
   14267:	48 01 d0             	add    %rdx,%rax
   1426a:	48 89 85 00 f7 ff ff 	mov    %rax,-0x900(%rbp)
   14271:	48 8d 85 5c f3 ff ff 	lea    -0xca4(%rbp),%rax
   14278:	48 89 85 08 f7 ff ff 	mov    %rax,-0x8f8(%rbp)
   1427f:	0f b7 05 b2 bd 00 00 	movzwl 0xbdb2(%rip),%eax        # 20038 <g_85>
   14286:	0f bf d0             	movswl %ax,%edx
   14289:	48 8d 85 5c f3 ff ff 	lea    -0xca4(%rbp),%rax
   14290:	48 63 d2             	movslq %edx,%rdx
   14293:	48 c1 e2 02          	shl    $0x2,%rdx
   14297:	48 01 d0             	add    %rdx,%rax
   1429a:	48 89 85 10 f7 ff ff 	mov    %rax,-0x8f0(%rbp)
   142a1:	48 8d 85 5c f3 ff ff 	lea    -0xca4(%rbp),%rax
   142a8:	48 89 85 18 f7 ff ff 	mov    %rax,-0x8e8(%rbp)
   142af:	48 8d 05 96 bd 00 00 	lea    0xbd96(%rip),%rax        # 2004c <g_139>
   142b6:	48 89 85 20 f7 ff ff 	mov    %rax,-0x8e0(%rbp)
   142bd:	0f b7 05 74 bd 00 00 	movzwl 0xbd74(%rip),%eax        # 20038 <g_85>
   142c4:	0f bf d0             	movswl %ax,%edx
   142c7:	48 8d 85 5c f3 ff ff 	lea    -0xca4(%rbp),%rax
   142ce:	48 63 d2             	movslq %edx,%rdx
   142d1:	48 c1 e2 02          	shl    $0x2,%rdx
   142d5:	48 01 d0             	add    %rdx,%rax
   142d8:	48 89 85 28 f7 ff ff 	mov    %rax,-0x8d8(%rbp)
   142df:	48 8d 05 4e bd 00 00 	lea    0xbd4e(%rip),%rax        # 20034 <g_74>
   142e6:	48 89 85 30 f7 ff ff 	mov    %rax,-0x8d0(%rbp)
   142ed:	48 8d 05 58 bd 00 00 	lea    0xbd58(%rip),%rax        # 2004c <g_139>
   142f4:	48 89 85 38 f7 ff ff 	mov    %rax,-0x8c8(%rbp)
   142fb:	48 8d 05 4a bd 00 00 	lea    0xbd4a(%rip),%rax        # 2004c <g_139>
   14302:	48 89 85 40 f7 ff ff 	mov    %rax,-0x8c0(%rbp)
   14309:	48 8d 05 3c bd 00 00 	lea    0xbd3c(%rip),%rax        # 2004c <g_139>
   14310:	48 89 85 48 f7 ff ff 	mov    %rax,-0x8b8(%rbp)
   14317:	0f b7 05 1a bd 00 00 	movzwl 0xbd1a(%rip),%eax        # 20038 <g_85>
   1431e:	0f bf d0             	movswl %ax,%edx
   14321:	48 8d 85 5c f3 ff ff 	lea    -0xca4(%rbp),%rax
   14328:	48 63 d2             	movslq %edx,%rdx
   1432b:	48 c1 e2 02          	shl    $0x2,%rdx
   1432f:	48 01 d0             	add    %rdx,%rax
   14332:	48 89 85 50 f7 ff ff 	mov    %rax,-0x8b0(%rbp)
   14339:	48 c7 85 58 f7 ff ff 	movq   $0x0,-0x8a8(%rbp)
   14340:	00 00 00 00 
   14344:	48 8d 05 e9 bc 00 00 	lea    0xbce9(%rip),%rax        # 20034 <g_74>
   1434b:	48 89 85 60 f7 ff ff 	mov    %rax,-0x8a0(%rbp)
   14352:	0f b7 05 df bc 00 00 	movzwl 0xbcdf(%rip),%eax        # 20038 <g_85>
   14359:	0f bf d0             	movswl %ax,%edx
   1435c:	48 8d 85 5c f3 ff ff 	lea    -0xca4(%rbp),%rax
   14363:	48 63 d2             	movslq %edx,%rdx
   14366:	48 c1 e2 02          	shl    $0x2,%rdx
   1436a:	48 01 d0             	add    %rdx,%rax
   1436d:	48 89 85 68 f7 ff ff 	mov    %rax,-0x898(%rbp)
   14374:	48 8d 05 d1 bc 00 00 	lea    0xbcd1(%rip),%rax        # 2004c <g_139>
   1437b:	48 89 85 70 f7 ff ff 	mov    %rax,-0x890(%rbp)
   14382:	0f b7 05 af bc 00 00 	movzwl 0xbcaf(%rip),%eax        # 20038 <g_85>
   14389:	0f bf d0             	movswl %ax,%edx
   1438c:	48 8d 85 5c f3 ff ff 	lea    -0xca4(%rbp),%rax
   14393:	48 63 d2             	movslq %edx,%rdx
   14396:	48 c1 e2 02          	shl    $0x2,%rdx
   1439a:	48 01 d0             	add    %rdx,%rax
   1439d:	48 89 85 78 f7 ff ff 	mov    %rax,-0x888(%rbp)
   143a4:	48 8d 05 89 bc 00 00 	lea    0xbc89(%rip),%rax        # 20034 <g_74>
   143ab:	48 89 85 80 f7 ff ff 	mov    %rax,-0x880(%rbp)
   143b2:	48 8d 05 7b bc 00 00 	lea    0xbc7b(%rip),%rax        # 20034 <g_74>
   143b9:	48 89 85 88 f7 ff ff 	mov    %rax,-0x878(%rbp)
   143c0:	0f b7 05 71 bc 00 00 	movzwl 0xbc71(%rip),%eax        # 20038 <g_85>
   143c7:	0f bf d0             	movswl %ax,%edx
   143ca:	48 8d 85 5c f3 ff ff 	lea    -0xca4(%rbp),%rax
   143d1:	48 63 d2             	movslq %edx,%rdx
   143d4:	48 c1 e2 02          	shl    $0x2,%rdx
   143d8:	48 01 d0             	add    %rdx,%rax
   143db:	48 89 85 90 f7 ff ff 	mov    %rax,-0x870(%rbp)
   143e2:	48 8d 05 63 bc 00 00 	lea    0xbc63(%rip),%rax        # 2004c <g_139>
   143e9:	48 89 85 98 f7 ff ff 	mov    %rax,-0x868(%rbp)
   143f0:	48 8d 85 5c f3 ff ff 	lea    -0xca4(%rbp),%rax
   143f7:	48 89 85 a0 f7 ff ff 	mov    %rax,-0x860(%rbp)
   143fe:	0f b7 05 33 bc 00 00 	movzwl 0xbc33(%rip),%eax        # 20038 <g_85>
   14405:	0f bf d0             	movswl %ax,%edx
   14408:	48 8d 85 5c f3 ff ff 	lea    -0xca4(%rbp),%rax
   1440f:	48 63 d2             	movslq %edx,%rdx
   14412:	48 c1 e2 02          	shl    $0x2,%rdx
   14416:	48 01 d0             	add    %rdx,%rax
   14419:	48 89 85 a8 f7 ff ff 	mov    %rax,-0x858(%rbp)
   14420:	0f b7 05 11 bc 00 00 	movzwl 0xbc11(%rip),%eax        # 20038 <g_85>
   14427:	0f bf d0             	movswl %ax,%edx
   1442a:	48 8d 85 5c f3 ff ff 	lea    -0xca4(%rbp),%rax
   14431:	48 63 d2             	movslq %edx,%rdx
   14434:	48 c1 e2 02          	shl    $0x2,%rdx
   14438:	48 01 d0             	add    %rdx,%rax
   1443b:	48 89 85 b0 f7 ff ff 	mov    %rax,-0x850(%rbp)
   14442:	48 8d 85 5c f3 ff ff 	lea    -0xca4(%rbp),%rax
   14449:	48 89 85 b8 f7 ff ff 	mov    %rax,-0x848(%rbp)
   14450:	48 8d 85 5c f3 ff ff 	lea    -0xca4(%rbp),%rax
   14457:	48 89 85 c0 f7 ff ff 	mov    %rax,-0x840(%rbp)
   1445e:	0f b7 05 d3 bb 00 00 	movzwl 0xbbd3(%rip),%eax        # 20038 <g_85>
   14465:	0f bf d0             	movswl %ax,%edx
   14468:	48 8d 85 5c f3 ff ff 	lea    -0xca4(%rbp),%rax
   1446f:	48 63 d2             	movslq %edx,%rdx
   14472:	48 c1 e2 02          	shl    $0x2,%rdx
   14476:	48 01 d0             	add    %rdx,%rax
   14479:	48 89 85 c8 f7 ff ff 	mov    %rax,-0x838(%rbp)
   14480:	48 8d 85 5c f3 ff ff 	lea    -0xca4(%rbp),%rax
   14487:	48 89 85 d0 f7 ff ff 	mov    %rax,-0x830(%rbp)
   1448e:	48 8d 85 5c f3 ff ff 	lea    -0xca4(%rbp),%rax
   14495:	48 89 85 d8 f7 ff ff 	mov    %rax,-0x828(%rbp)
   1449c:	0f b7 05 95 bb 00 00 	movzwl 0xbb95(%rip),%eax        # 20038 <g_85>
   144a3:	0f bf d0             	movswl %ax,%edx
   144a6:	48 8d 85 5c f3 ff ff 	lea    -0xca4(%rbp),%rax
   144ad:	48 63 d2             	movslq %edx,%rdx
   144b0:	48 c1 e2 02          	shl    $0x2,%rdx
   144b4:	48 01 d0             	add    %rdx,%rax
   144b7:	48 89 85 e0 f7 ff ff 	mov    %rax,-0x820(%rbp)
   144be:	0f b7 05 73 bb 00 00 	movzwl 0xbb73(%rip),%eax        # 20038 <g_85>
   144c5:	0f bf d0             	movswl %ax,%edx
   144c8:	48 8d 85 5c f3 ff ff 	lea    -0xca4(%rbp),%rax
   144cf:	48 63 d2             	movslq %edx,%rdx
   144d2:	48 c1 e2 02          	shl    $0x2,%rdx
   144d6:	48 01 d0             	add    %rdx,%rax
   144d9:	48 89 85 e8 f7 ff ff 	mov    %rax,-0x818(%rbp)
   144e0:	48 c7 85 f0 f7 ff ff 	movq   $0x0,-0x810(%rbp)
   144e7:	00 00 00 00 
   144eb:	48 c7 85 f8 f7 ff ff 	movq   $0x0,-0x808(%rbp)
   144f2:	00 00 00 00 
   144f6:	48 8d 85 5c f3 ff ff 	lea    -0xca4(%rbp),%rax
   144fd:	48 89 85 00 f8 ff ff 	mov    %rax,-0x800(%rbp)
   14504:	48 8d 05 41 bb 00 00 	lea    0xbb41(%rip),%rax        # 2004c <g_139>
   1450b:	48 89 85 08 f8 ff ff 	mov    %rax,-0x7f8(%rbp)
   14512:	0f b7 05 1f bb 00 00 	movzwl 0xbb1f(%rip),%eax        # 20038 <g_85>
   14519:	0f bf d0             	movswl %ax,%edx
   1451c:	48 8d 85 5c f3 ff ff 	lea    -0xca4(%rbp),%rax
   14523:	48 63 d2             	movslq %edx,%rdx
   14526:	48 c1 e2 02          	shl    $0x2,%rdx
   1452a:	48 01 d0             	add    %rdx,%rax
   1452d:	48 89 85 10 f8 ff ff 	mov    %rax,-0x7f0(%rbp)
   14534:	48 8d 05 11 bb 00 00 	lea    0xbb11(%rip),%rax        # 2004c <g_139>
   1453b:	48 89 85 18 f8 ff ff 	mov    %rax,-0x7e8(%rbp)
   14542:	0f b7 05 ef ba 00 00 	movzwl 0xbaef(%rip),%eax        # 20038 <g_85>
   14549:	0f bf d0             	movswl %ax,%edx
   1454c:	48 8d 85 5c f3 ff ff 	lea    -0xca4(%rbp),%rax
   14553:	48 63 d2             	movslq %edx,%rdx
   14556:	48 c1 e2 02          	shl    $0x2,%rdx
   1455a:	48 01 d0             	add    %rdx,%rax
   1455d:	48 89 85 20 f8 ff ff 	mov    %rax,-0x7e0(%rbp)
   14564:	48 8d 85 5c f3 ff ff 	lea    -0xca4(%rbp),%rax
   1456b:	48 89 85 28 f8 ff ff 	mov    %rax,-0x7d8(%rbp)
   14572:	0f b7 05 bf ba 00 00 	movzwl 0xbabf(%rip),%eax        # 20038 <g_85>
   14579:	0f bf d0             	movswl %ax,%edx
   1457c:	48 8d 85 5c f3 ff ff 	lea    -0xca4(%rbp),%rax
   14583:	48 63 d2             	movslq %edx,%rdx
   14586:	48 c1 e2 02          	shl    $0x2,%rdx
   1458a:	48 01 d0             	add    %rdx,%rax
   1458d:	48 89 85 30 f8 ff ff 	mov    %rax,-0x7d0(%rbp)
   14594:	48 8d 85 5c f3 ff ff 	lea    -0xca4(%rbp),%rax
   1459b:	48 89 85 38 f8 ff ff 	mov    %rax,-0x7c8(%rbp)
   145a2:	0f b7 05 8f ba 00 00 	movzwl 0xba8f(%rip),%eax        # 20038 <g_85>
   145a9:	98                   	cwtl   
   145aa:	48 98                	cltq   
   145ac:	8b 94 85 5c f3 ff ff 	mov    -0xca4(%rbp,%rax,4),%edx
   145b3:	c7 85 30 f2 ff ff 01 	movl   $0x1,-0xdd0(%rbp)
   145ba:	00 00 00 
   145bd:	8b 85 0c f2 ff ff    	mov    -0xdf4(%rbp),%eax
   145c3:	39 85 30 f2 ff ff    	cmp    %eax,-0xdd0(%rbp)
   145c9:	0f 9e c0             	setle  %al
   145cc:	0f b6 c0             	movzbl %al,%eax
   145cf:	39 c2                	cmp    %eax,%edx
   145d1:	0f 95 c0             	setne  %al
   145d4:	0f b6 d0             	movzbl %al,%edx
   145d7:	0f b6 05 6c ba 00 00 	movzbl 0xba6c(%rip),%eax        # 2004a <g_111>
   145de:	0f b6 c0             	movzbl %al,%eax
   145e1:	89 d6                	mov    %edx,%esi
   145e3:	89 c7                	mov    %eax,%edi
   145e5:	e8 5e 68 ff ff       	callq  ae48 <safe_rshift_func_uint16_t_u_s>
   145ea:	0f b7 d0             	movzwl %ax,%edx
   145ed:	8b 05 41 ba 00 00    	mov    0xba41(%rip),%eax        # 20034 <g_74>
   145f3:	09 c2                	or     %eax,%edx
   145f5:	0f b7 05 3c ba 00 00 	movzwl 0xba3c(%rip),%eax        # 20038 <g_85>
   145fc:	98                   	cwtl   
   145fd:	48 98                	cltq   
   145ff:	8b 84 85 5c f3 ff ff 	mov    -0xca4(%rbp,%rax,4),%eax
   14606:	39 c2                	cmp    %eax,%edx
   14608:	0f 9d c0             	setge  %al
   1460b:	0f b6 d0             	movzbl %al,%edx
   1460e:	48 8b 05 8b 29 01 00 	mov    0x1298b(%rip),%rax        # 26fa0 <g_73>
   14615:	8b 00                	mov    (%rax),%eax
   14617:	39 c2                	cmp    %eax,%edx
   14619:	0f 9c c0             	setl   %al
   1461c:	0f b6 d0             	movzbl %al,%edx
   1461f:	8b 05 0f ba 00 00    	mov    0xba0f(%rip),%eax        # 20034 <g_74>
   14625:	0f b7 c0             	movzwl %ax,%eax
   14628:	89 d6                	mov    %edx,%esi
   1462a:	89 c7                	mov    %eax,%edi
   1462c:	e8 8d 67 ff ff       	callq  adbe <safe_lshift_func_uint16_t_u_s>
   14631:	98                   	cwtl   
   14632:	be 00 00 00 00       	mov    $0x0,%esi
   14637:	89 c7                	mov    %eax,%edi
   14639:	e8 54 5e ff ff       	callq  a492 <safe_lshift_func_int16_t_s_s>
   1463e:	89 c2                	mov    %eax,%edx
   14640:	48 8b 85 58 f2 ff ff 	mov    -0xda8(%rbp),%rax
   14647:	0f bf d2             	movswl %dx,%edx
   1464a:	89 10                	mov    %edx,(%rax)
   1464c:	48 8b 85 58 f2 ff ff 	mov    -0xda8(%rbp),%rax
   14653:	8b 10                	mov    (%rax),%edx
   14655:	48 8b 85 58 f2 ff ff 	mov    -0xda8(%rbp),%rax
   1465c:	83 e2 fb             	and    $0xfffffffb,%edx
   1465f:	89 10                	mov    %edx,(%rax)
   14661:	66 c7 05 be 30 01 00 	movw   $0x0,0x130be(%rip)        # 27728 <g_125>
   14668:	00 00 
   1466a:	90                   	nop
   1466b:	0f b7 05 b6 30 01 00 	movzwl 0x130b6(%rip),%eax        # 27728 <g_125>
   14672:	66 85 c0             	test   %ax,%ax
   14675:	75 0c                	jne    14683 <func_68+0xee7>
   14677:	48 8b 85 70 f2 ff ff 	mov    -0xd90(%rbp),%rax
   1467e:	e9 d8 0a 00 00       	jmpq   1515b <func_68+0x19bf>
   14683:	c7 85 18 f2 ff ff 06 	movl   $0x6,-0xde8(%rbp)
   1468a:	00 00 00 
   1468d:	48 8b 85 00 f2 ff ff 	mov    -0xe00(%rbp),%rax
   14694:	c6 00 07             	movb   $0x7,(%rax)
   14697:	48 8b 05 62 29 01 00 	mov    0x12962(%rip),%rax        # 27000 <g_146+0x40>
   1469e:	48 89 85 00 f3 ff ff 	mov    %rax,-0xd00(%rbp)
   146a5:	48 8d 05 a4 b9 00 00 	lea    0xb9a4(%rip),%rax        # 20050 <g_147>
   146ac:	48 39 85 00 f3 ff ff 	cmp    %rax,-0xd00(%rbp)
   146b3:	0f 94 c0             	sete   %al
   146b6:	89 c2                	mov    %eax,%edx
   146b8:	8b 85 1c f2 ff ff    	mov    -0xde4(%rbp),%eax
   146be:	21 d0                	and    %edx,%eax
   146c0:	0f be c0             	movsbl %al,%eax
   146c3:	89 c7                	mov    %eax,%edi
   146c5:	e8 f5 5a ff ff       	callq  a1bf <safe_unary_minus_func_int8_t_s>
   146ca:	0f be c0             	movsbl %al,%eax
   146cd:	89 c7                	mov    %eax,%edi
   146cf:	e8 c2 5e ff ff       	callq  a596 <safe_unary_minus_func_int32_t_s>
   146d4:	f7 d0                	not    %eax
   146d6:	83 e0 07             	and    $0x7,%eax
   146d9:	89 c3                	mov    %eax,%ebx
   146db:	48 8b 05 c6 28 01 00 	mov    0x128c6(%rip),%rax        # 26fa8 <g_104>
   146e2:	0f b7 00             	movzwl (%rax),%eax
   146e5:	0f b7 d0             	movzwl %ax,%edx
   146e8:	0f b7 05 49 b9 00 00 	movzwl 0xb949(%rip),%eax        # 20038 <g_85>
   146ef:	98                   	cwtl   
   146f0:	48 98                	cltq   
   146f2:	c7 84 85 5c f3 ff ff 	movl   $0x3f,-0xca4(%rbp,%rax,4)
   146f9:	3f 00 00 00 
   146fd:	0f b7 05 40 b9 00 00 	movzwl 0xb940(%rip),%eax        # 20044 <g_105+0x4>
   14704:	66 83 f8 3f          	cmp    $0x3f,%ax
   14708:	0f 9e c0             	setle  %al
   1470b:	0f b6 c0             	movzbl %al,%eax
   1470e:	89 d6                	mov    %edx,%esi
   14710:	89 c7                	mov    %eax,%edi
   14712:	e8 45 66 ff ff       	callq  ad5c <safe_mod_func_uint16_t_u_u>
   14717:	0f b7 c0             	movzwl %ax,%eax
   1471a:	21 d8                	and    %ebx,%eax
   1471c:	85 c0                	test   %eax,%eax
   1471e:	74 0b                	je     1472b <func_68+0xf8f>
   14720:	48 8b 85 58 f2 ff ff 	mov    -0xda8(%rbp),%rax
   14727:	8b 00                	mov    (%rax),%eax
   14729:	85 c0                	test   %eax,%eax
   1472b:	48 8b 05 6e 28 01 00 	mov    0x1286e(%rip),%rax        # 26fa0 <g_73>
   14732:	c7 00 01 00 00 00    	movl   $0x1,(%rax)
   14738:	e9 bf 01 00 00       	jmpq   148fc <func_68+0x1160>
   1473d:	48 c7 85 50 f2 ff ff 	movq   $0x0,-0xdb0(%rbp)
   14744:	00 00 00 00 
   14748:	e9 93 01 00 00       	jmpq   148e0 <func_68+0x1144>
   1474d:	48 8d 85 70 f2 ff ff 	lea    -0xd90(%rbp),%rax
   14754:	48 89 85 10 f3 ff ff 	mov    %rax,-0xcf0(%rbp)
   1475b:	48 8d 85 60 f2 ff ff 	lea    -0xda0(%rbp),%rax
   14762:	48 89 85 18 f3 ff ff 	mov    %rax,-0xce8(%rbp)
   14769:	8b 85 0c f2 ff ff    	mov    -0xdf4(%rbp),%eax
   1476f:	0f b7 d8             	movzwl %ax,%ebx
   14772:	8b 85 34 f2 ff ff    	mov    -0xdcc(%rbp),%eax
   14778:	44 0f bf e0          	movswl %ax,%r12d
   1477c:	48 8b 85 10 f3 ff ff 	mov    -0xcf0(%rbp),%rax
   14783:	48 8d 15 a7 b8 00 00 	lea    0xb8a7(%rip),%rdx        # 20031 <g_72>
   1478a:	48 89 10             	mov    %rdx,(%rax)
   1478d:	0f b7 05 a4 b8 00 00 	movzwl 0xb8a4(%rip),%eax        # 20038 <g_85>
   14794:	98                   	cwtl   
   14795:	48 98                	cltq   
   14797:	8b 84 85 5c f3 ff ff 	mov    -0xca4(%rbp,%rax,4),%eax
   1479e:	0d 1b 2b a4 74       	or     $0x74a42b1b,%eax
   147a3:	89 c2                	mov    %eax,%edx
   147a5:	48 8b 05 fc 27 01 00 	mov    0x127fc(%rip),%rax        # 26fa8 <g_104>
   147ac:	0f b7 00             	movzwl (%rax),%eax
   147af:	98                   	cwtl   
   147b0:	39 c2                	cmp    %eax,%edx
   147b2:	0f 9e c0             	setle  %al
   147b5:	0f b6 c0             	movzbl %al,%eax
   147b8:	be 03 00 00 00       	mov    $0x3,%esi
   147bd:	89 c7                	mov    %eax,%edi
   147bf:	e8 1d 5d ff ff       	callq  a4e1 <safe_lshift_func_int16_t_s_u>
   147c4:	0f bf d0             	movswl %ax,%edx
   147c7:	0f b7 05 6a b8 00 00 	movzwl 0xb86a(%rip),%eax        # 20038 <g_85>
   147ce:	98                   	cwtl   
   147cf:	48 98                	cltq   
   147d1:	8b 84 85 5c f3 ff ff 	mov    -0xca4(%rbp,%rax,4),%eax
   147d8:	31 c2                	xor    %eax,%edx
   147da:	8b 05 54 b8 00 00    	mov    0xb854(%rip),%eax        # 20034 <g_74>
   147e0:	09 d0                	or     %edx,%eax
   147e2:	83 f8 01             	cmp    $0x1,%eax
   147e5:	7e 0b                	jle    147f2 <func_68+0x1056>
   147e7:	48 8b 85 58 f2 ff ff 	mov    -0xda8(%rbp),%rax
   147ee:	8b 00                	mov    (%rax),%eax
   147f0:	85 c0                	test   %eax,%eax
   147f2:	0f b7 05 3f b8 00 00 	movzwl 0xb83f(%rip),%eax        # 20038 <g_85>
   147f9:	98                   	cwtl   
   147fa:	83 c0 02             	add    $0x2,%eax
   147fd:	48 98                	cltq   
   147ff:	48 8d 14 00          	lea    (%rax,%rax,1),%rdx
   14803:	48 8d 05 36 b8 00 00 	lea    0xb836(%rip),%rax        # 20040 <g_105>
   1480a:	48 01 c2             	add    %rax,%rdx
   1480d:	48 8b 85 00 f5 ff ff 	mov    -0xb00(%rbp),%rax
   14814:	48 39 c2             	cmp    %rax,%rdx
   14817:	0f 94 c0             	sete   %al
   1481a:	0f b6 d0             	movzbl %al,%edx
   1481d:	0f b7 05 1c b8 00 00 	movzwl 0xb81c(%rip),%eax        # 20040 <g_105>
   14824:	98                   	cwtl   
   14825:	39 c2                	cmp    %eax,%edx
   14827:	7c 07                	jl     14830 <func_68+0x1094>
   14829:	b8 01 00 00 00       	mov    $0x1,%eax
   1482e:	eb 05                	jmp    14835 <func_68+0x1099>
   14830:	b8 00 00 00 00       	mov    $0x0,%eax
   14835:	f7 d0                	not    %eax
   14837:	89 c2                	mov    %eax,%edx
   14839:	0f b6 05 0a b8 00 00 	movzbl 0xb80a(%rip),%eax        # 2004a <g_111>
   14840:	0f b6 c0             	movzbl %al,%eax
   14843:	09 d0                	or     %edx,%eax
   14845:	98                   	cwtl   
   14846:	44 89 e6             	mov    %r12d,%esi
   14849:	89 c7                	mov    %eax,%edi
   1484b:	e8 a5 5b ff ff       	callq  a3f5 <safe_mul_func_int16_t_s_s>
   14850:	0f bf d0             	movswl %ax,%edx
   14853:	8b 85 0c f2 ff ff    	mov    -0xdf4(%rbp),%eax
   14859:	39 c2                	cmp    %eax,%edx
   1485b:	0f 9e c0             	setle  %al
   1485e:	0f b6 c0             	movzbl %al,%eax
   14861:	89 de                	mov    %ebx,%esi
   14863:	89 c7                	mov    %eax,%edi
   14865:	e8 d3 64 ff ff       	callq  ad3d <safe_mul_func_uint16_t_u_u>
   1486a:	48 8b 85 58 f2 ff ff 	mov    -0xda8(%rbp),%rax
   14871:	c7 00 00 00 00 00    	movl   $0x0,(%rax)
   14877:	8b 08                	mov    (%rax),%ecx
   14879:	48 8b 05 90 27 01 00 	mov    0x12790(%rip),%rax        # 27010 <g_164>
   14880:	8b 10                	mov    (%rax),%edx
   14882:	31 ca                	xor    %ecx,%edx
   14884:	89 10                	mov    %edx,(%rax)
   14886:	48 8b 85 58 f2 ff ff 	mov    -0xda8(%rbp),%rax
   1488d:	8b 10                	mov    (%rax),%edx
   1488f:	48 8b 85 58 f2 ff ff 	mov    -0xda8(%rbp),%rax
   14896:	81 e2 5f 8b a2 03    	and    $0x3a28b5f,%edx
   1489c:	89 10                	mov    %edx,(%rax)
   1489e:	c7 85 18 f2 ff ff 00 	movl   $0x0,-0xde8(%rbp)
   148a5:	00 00 00 
   148a8:	90                   	nop
   148a9:	8b 85 18 f2 ff ff    	mov    -0xde8(%rbp),%eax
   148af:	83 f8 03             	cmp    $0x3,%eax
   148b2:	7f 1a                	jg     148ce <func_68+0x1132>
   148b4:	48 8b 85 68 f2 ff ff 	mov    -0xd98(%rbp),%rax
   148bb:	48 89 85 18 f3 ff ff 	mov    %rax,-0xce8(%rbp)
   148c2:	48 8b 85 00 f2 ff ff 	mov    -0xe00(%rbp),%rax
   148c9:	e9 8d 08 00 00       	jmpq   1515b <func_68+0x19bf>
   148ce:	48 8b 85 50 f2 ff ff 	mov    -0xdb0(%rbp),%rax
   148d5:	48 83 c0 01          	add    $0x1,%rax
   148d9:	48 89 85 50 f2 ff ff 	mov    %rax,-0xdb0(%rbp)
   148e0:	48 8b 85 50 f2 ff ff 	mov    -0xdb0(%rbp),%rax
   148e7:	48 83 f8 04          	cmp    $0x4,%rax
   148eb:	0f 86 5c fe ff ff    	jbe    1474d <func_68+0xfb1>
   148f1:	48 c7 85 78 f2 ff ff 	movq   $0x0,-0xd88(%rbp)
   148f8:	00 00 00 00 
   148fc:	0f b7 05 25 2e 01 00 	movzwl 0x12e25(%rip),%eax        # 27728 <g_125>
   14903:	66 85 c0             	test   %ax,%ax
   14906:	74 05                	je     1490d <func_68+0x1171>
   14908:	e9 a2 ef ff ff       	jmpq   138af <func_68+0x113>
   1490d:	8b 85 0c f2 ff ff    	mov    -0xdf4(%rbp),%eax
   14913:	85 c0                	test   %eax,%eax
   14915:	0f 85 2e 05 00 00    	jne    14e49 <func_68+0x16ad>
   1491b:	48 8b 05 86 26 01 00 	mov    0x12686(%rip),%rax        # 26fa8 <g_104>
   14922:	0f b7 00             	movzwl (%rax),%eax
   14925:	0f bf d0             	movswl %ax,%edx
   14928:	48 8b 05 e1 26 01 00 	mov    0x126e1(%rip),%rax        # 27010 <g_164>
   1492f:	8b 08                	mov    (%rax),%ecx
   14931:	8b 85 0c f2 ff ff    	mov    -0xdf4(%rbp),%eax
   14937:	39 c1                	cmp    %eax,%ecx
   14939:	0f 95 c0             	setne  %al
   1493c:	0f b6 c0             	movzbl %al,%eax
   1493f:	89 d6                	mov    %edx,%esi
   14941:	89 c7                	mov    %eax,%edi
   14943:	e8 8b 5a ff ff       	callq  a3d3 <safe_sub_func_int16_t_s_s>
   14948:	0f bf d0             	movswl %ax,%edx
   1494b:	8b 85 0c f2 ff ff    	mov    -0xdf4(%rbp),%eax
   14951:	09 d0                	or     %edx,%eax
   14953:	89 85 18 f2 ff ff    	mov    %eax,-0xde8(%rbp)
   14959:	c7 85 1c f2 ff ff 00 	movl   $0x0,-0xde4(%rbp)
   14960:	00 00 00 
   14963:	e9 d0 04 00 00       	jmpq   14e38 <func_68+0x169c>
   14968:	0f b7 05 c9 b6 00 00 	movzwl 0xb6c9(%rip),%eax        # 20038 <g_85>
   1496f:	0f bf d0             	movswl %ax,%edx
   14972:	48 8d 85 5c f3 ff ff 	lea    -0xca4(%rbp),%rax
   14979:	48 63 d2             	movslq %edx,%rdx
   1497c:	48 c1 e2 02          	shl    $0x2,%rdx
   14980:	48 01 d0             	add    %rdx,%rax
   14983:	48 89 85 28 f3 ff ff 	mov    %rax,-0xcd8(%rbp)
   1498a:	48 8d 85 18 f2 ff ff 	lea    -0xde8(%rbp),%rax
   14991:	48 89 85 30 f3 ff ff 	mov    %rax,-0xcd0(%rbp)
   14998:	48 8d 05 ad b6 00 00 	lea    0xb6ad(%rip),%rax        # 2004c <g_139>
   1499f:	48 89 85 d0 f3 ff ff 	mov    %rax,-0xc30(%rbp)
   149a6:	48 8d 05 87 b6 00 00 	lea    0xb687(%rip),%rax        # 20034 <g_74>
   149ad:	48 89 85 d8 f3 ff ff 	mov    %rax,-0xc28(%rbp)
   149b4:	48 8d 05 79 b6 00 00 	lea    0xb679(%rip),%rax        # 20034 <g_74>
   149bb:	48 89 85 e0 f3 ff ff 	mov    %rax,-0xc20(%rbp)
   149c2:	48 8d 05 83 b6 00 00 	lea    0xb683(%rip),%rax        # 2004c <g_139>
   149c9:	48 89 85 e8 f3 ff ff 	mov    %rax,-0xc18(%rbp)
   149d0:	48 8d 05 5d b6 00 00 	lea    0xb65d(%rip),%rax        # 20034 <g_74>
   149d7:	48 89 85 f0 f3 ff ff 	mov    %rax,-0xc10(%rbp)
   149de:	48 8d 05 4f b6 00 00 	lea    0xb64f(%rip),%rax        # 20034 <g_74>
   149e5:	48 89 85 f8 f3 ff ff 	mov    %rax,-0xc08(%rbp)
   149ec:	48 8d 85 a0 f3 ff ff 	lea    -0xc60(%rbp),%rax
   149f3:	48 83 c0 14          	add    $0x14,%rax
   149f7:	48 89 85 80 f2 ff ff 	mov    %rax,-0xd80(%rbp)
   149fe:	48 8d 85 68 f2 ff ff 	lea    -0xd98(%rbp),%rax
   14a05:	48 89 85 38 f3 ff ff 	mov    %rax,-0xcc8(%rbp)
   14a0c:	48 8d 85 80 f3 ff ff 	lea    -0xc80(%rbp),%rax
   14a13:	48 89 85 40 f3 ff ff 	mov    %rax,-0xcc0(%rbp)
   14a1a:	c7 85 2c f2 ff ff 00 	movl   $0x0,-0xdd4(%rbp)
   14a21:	00 00 00 
   14a24:	eb 1e                	jmp    14a44 <func_68+0x12a8>
   14a26:	8b 85 2c f2 ff ff    	mov    -0xdd4(%rbp),%eax
   14a2c:	48 98                	cltq   
   14a2e:	48 8d 95 80 f2 ff ff 	lea    -0xd80(%rbp),%rdx
   14a35:	48 89 94 c5 70 f3 ff 	mov    %rdx,-0xc90(%rbp,%rax,8)
   14a3c:	ff 
   14a3d:	83 85 2c f2 ff ff 01 	addl   $0x1,-0xdd4(%rbp)
   14a44:	83 bd 2c f2 ff ff 01 	cmpl   $0x1,-0xdd4(%rbp)
   14a4b:	7e d9                	jle    14a26 <func_68+0x128a>
   14a4d:	0f b7 05 38 b6 00 00 	movzwl 0xb638(%rip),%eax        # 2008c <g_182+0x2c>
   14a54:	83 e8 01             	sub    $0x1,%eax
   14a57:	66 89 05 2e b6 00 00 	mov    %ax,0xb62e(%rip)        # 2008c <g_182+0x2c>
   14a5e:	48 8d 85 0c f2 ff ff 	lea    -0xdf4(%rbp),%rax
   14a65:	48 89 85 90 f2 ff ff 	mov    %rax,-0xd70(%rbp)
   14a6c:	8b 85 0c f2 ff ff    	mov    -0xdf4(%rbp),%eax
   14a72:	48 98                	cltq   
   14a74:	48 c7 c6 fa ff ff ff 	mov    $0xfffffffffffffffa,%rsi
   14a7b:	48 89 c7             	mov    %rax,%rdi
   14a7e:	e8 74 5f ff ff       	callq  a9f7 <safe_div_func_int64_t_s_s>
   14a83:	0f b6 d8             	movzbl %al,%ebx
   14a86:	48 8b 85 28 f3 ff ff 	mov    -0xcd8(%rbp),%rax
   14a8d:	8b 10                	mov    (%rax),%edx
   14a8f:	8b 05 9f b5 00 00    	mov    0xb59f(%rip),%eax        # 20034 <g_74>
   14a95:	39 c2                	cmp    %eax,%edx
   14a97:	40 0f 95 c6          	setne  %sil
   14a9b:	48 8b 85 38 f3 ff ff 	mov    -0xcc8(%rbp),%rax
   14aa2:	48 8b 95 a8 f2 ff ff 	mov    -0xd58(%rbp),%rdx
   14aa9:	48 89 10             	mov    %rdx,(%rax)
   14aac:	48 8b 85 38 f3 ff ff 	mov    -0xcc8(%rbp),%rax
   14ab3:	48 8b 08             	mov    (%rax),%rcx
   14ab6:	48 8b 95 80 f3 ff ff 	mov    -0xc80(%rbp),%rdx
   14abd:	48 8b 85 40 f3 ff ff 	mov    -0xcc0(%rbp),%rax
   14ac4:	48 89 10             	mov    %rdx,(%rax)
   14ac7:	48 8b 85 40 f3 ff ff 	mov    -0xcc0(%rbp),%rax
   14ace:	48 8b 00             	mov    (%rax),%rax
   14ad1:	48 39 c1             	cmp    %rax,%rcx
   14ad4:	0f 95 c0             	setne  %al
   14ad7:	21 f0                	and    %esi,%eax
   14ad9:	0f b6 d0             	movzbl %al,%edx
   14adc:	48 8b 05 6d b5 00 00 	mov    0xb56d(%rip),%rax        # 20050 <g_147>
   14ae3:	48 39 c2             	cmp    %rax,%rdx
   14ae6:	0f 92 c0             	setb   %al
   14ae9:	0f b6 c0             	movzbl %al,%eax
   14aec:	be 08 00 00 00       	mov    $0x8,%esi
   14af1:	89 c7                	mov    %eax,%edi
   14af3:	e8 32 5a ff ff       	callq  a52a <safe_rshift_func_int16_t_s_s>
   14af8:	89 c2                	mov    %eax,%edx
   14afa:	48 8b 05 17 25 01 00 	mov    0x12517(%rip),%rax        # 27018 <g_200>
   14b01:	48 85 c0             	test   %rax,%rax
   14b04:	0f 94 c0             	sete   %al
   14b07:	31 d0                	xor    %edx,%eax
   14b09:	0f b6 c0             	movzbl %al,%eax
   14b0c:	89 de                	mov    %ebx,%esi
   14b0e:	89 c7                	mov    %eax,%edi
   14b10:	e8 45 60 ff ff       	callq  ab5a <safe_add_func_uint8_t_u_u>
   14b15:	84 c0                	test   %al,%al
   14b17:	74 11                	je     14b2a <func_68+0x138e>
   14b19:	8b 85 0c f2 ff ff    	mov    -0xdf4(%rbp),%eax
   14b1f:	85 c0                	test   %eax,%eax
   14b21:	74 07                	je     14b2a <func_68+0x138e>
   14b23:	b8 01 00 00 00       	mov    $0x1,%eax
   14b28:	eb 05                	jmp    14b2f <func_68+0x1393>
   14b2a:	b8 00 00 00 00       	mov    $0x0,%eax
   14b2f:	85 c0                	test   %eax,%eax
   14b31:	0f 94 c0             	sete   %al
   14b34:	0f b6 c0             	movzbl %al,%eax
   14b37:	be 18 00 00 00       	mov    $0x18,%esi
   14b3c:	89 c7                	mov    %eax,%edi
   14b3e:	e8 91 56 ff ff       	callq  a1d4 <safe_add_func_int8_t_s_s>
   14b43:	48 8b 85 28 f3 ff ff 	mov    -0xcd8(%rbp),%rax
   14b4a:	8b 00                	mov    (%rax),%eax
   14b4c:	89 85 bc f3 ff ff    	mov    %eax,-0xc44(%rbp)
   14b52:	8b 85 bc f3 ff ff    	mov    -0xc44(%rbp),%eax
   14b58:	0f b7 c0             	movzwl %ax,%eax
   14b5b:	be 01 00 00 00       	mov    $0x1,%esi
   14b60:	89 c7                	mov    %eax,%edi
   14b62:	e8 f5 61 ff ff       	callq  ad5c <safe_mod_func_uint16_t_u_u>
   14b67:	0f b7 c8             	movzwl %ax,%ecx
   14b6a:	48 8b 85 90 f2 ff ff 	mov    -0xd70(%rbp),%rax
   14b71:	8b 10                	mov    (%rax),%edx
   14b73:	48 8b 85 60 f2 ff ff 	mov    -0xda0(%rbp),%rax
   14b7a:	48 8b 00             	mov    (%rax),%rax
   14b7d:	21 ca                	and    %ecx,%edx
   14b7f:	89 10                	mov    %edx,(%rax)
   14b81:	48 83 85 88 f2 ff ff 	addq   $0x1,-0xd78(%rbp)
   14b88:	01 
   14b89:	66 c7 05 a8 b4 00 00 	movw   $0x0,0xb4a8(%rip)        # 2003a <g_96>
   14b90:	00 00 
   14b92:	90                   	nop
   14b93:	0f b7 05 a0 b4 00 00 	movzwl 0xb4a0(%rip),%eax        # 2003a <g_96>
   14b9a:	66 83 f8 03          	cmp    $0x3,%ax
   14b9e:	0f 87 85 02 00 00    	ja     14e29 <func_68+0x168d>
   14ba4:	48 c7 85 20 f5 ff ff 	movq   $0x0,-0xae0(%rbp)
   14bab:	00 00 00 00 
   14baf:	48 c7 85 28 f5 ff ff 	movq   $0x0,-0xad8(%rbp)
   14bb6:	00 00 00 00 
   14bba:	48 c7 85 30 f5 ff ff 	movq   $0x5,-0xad0(%rbp)
   14bc1:	05 00 00 00 
   14bc5:	48 c7 85 38 f5 ff ff 	movq   $0x0,-0xac8(%rbp)
   14bcc:	00 00 00 00 
   14bd0:	48 c7 85 40 f5 ff ff 	movq   $0x0,-0xac0(%rbp)
   14bd7:	00 00 00 00 
   14bdb:	48 b8 22 a0 20 ea 66 	movabs $0x810b9f66ea20a022,%rax
   14be2:	9f 0b 81 
   14be5:	48 89 85 48 f5 ff ff 	mov    %rax,-0xab8(%rbp)
   14bec:	48 89 85 50 f5 ff ff 	mov    %rax,-0xab0(%rbp)
   14bf3:	48 c7 85 58 f5 ff ff 	movq   $0x0,-0xaa8(%rbp)
   14bfa:	00 00 00 00 
   14bfe:	48 c7 85 60 f5 ff ff 	movq   $0x0,-0xaa0(%rbp)
   14c05:	00 00 00 00 
   14c09:	48 c7 85 68 f5 ff ff 	movq   $0x5,-0xa98(%rbp)
   14c10:	05 00 00 00 
   14c14:	48 c7 85 70 f5 ff ff 	movq   $0x0,-0xa90(%rbp)
   14c1b:	00 00 00 00 
   14c1f:	48 c7 85 78 f5 ff ff 	movq   $0x0,-0xa88(%rbp)
   14c26:	00 00 00 00 
   14c2a:	48 89 85 80 f5 ff ff 	mov    %rax,-0xa80(%rbp)
   14c31:	48 89 85 88 f5 ff ff 	mov    %rax,-0xa78(%rbp)
   14c38:	48 c7 85 90 f5 ff ff 	movq   $0x0,-0xa70(%rbp)
   14c3f:	00 00 00 00 
   14c43:	48 c7 85 98 f5 ff ff 	movq   $0x0,-0xa68(%rbp)
   14c4a:	00 00 00 00 
   14c4e:	48 c7 85 a0 f5 ff ff 	movq   $0x5,-0xa60(%rbp)
   14c55:	05 00 00 00 
   14c59:	48 c7 85 a8 f5 ff ff 	movq   $0x0,-0xa58(%rbp)
   14c60:	00 00 00 00 
   14c64:	48 c7 85 b0 f5 ff ff 	movq   $0x0,-0xa50(%rbp)
   14c6b:	00 00 00 00 
   14c6f:	48 89 85 b8 f5 ff ff 	mov    %rax,-0xa48(%rbp)
   14c76:	48 8d 85 78 f2 ff ff 	lea    -0xd88(%rbp),%rax
   14c7d:	48 89 85 50 f3 ff ff 	mov    %rax,-0xcb0(%rbp)
   14c84:	48 8d 85 50 f3 ff ff 	lea    -0xcb0(%rbp),%rax
   14c8b:	48 89 85 48 f3 ff ff 	mov    %rax,-0xcb8(%rbp)
   14c92:	0f b7 05 bf b5 00 00 	movzwl 0xb5bf(%rip),%eax        # 20258 <g_210>
   14c99:	83 e8 01             	sub    $0x1,%eax
   14c9c:	66 89 05 b5 b5 00 00 	mov    %ax,0xb5b5(%rip)        # 20258 <g_210>
   14ca3:	66 c7 05 ac b5 00 00 	movw   $0x0,0xb5ac(%rip)        # 20258 <g_210>
   14caa:	00 00 
   14cac:	eb 46                	jmp    14cf4 <func_68+0x1558>
   14cae:	48 8b 95 60 f2 ff ff 	mov    -0xda0(%rbp),%rdx
   14cb5:	48 8b 85 40 f3 ff ff 	mov    -0xcc0(%rbp),%rax
   14cbc:	48 8b 00             	mov    (%rax),%rax
   14cbf:	48 8b 00             	mov    (%rax),%rax
   14cc2:	48 8b 12             	mov    (%rdx),%rdx
   14cc5:	48 89 10             	mov    %rdx,(%rax)
   14cc8:	48 8b 05 41 23 01 00 	mov    0x12341(%rip),%rax        # 27010 <g_164>
   14ccf:	8b 00                	mov    (%rax),%eax
   14cd1:	85 c0                	test   %eax,%eax
   14cd3:	75 0d                	jne    14ce2 <func_68+0x1546>
   14cd5:	48 8b 05 34 23 01 00 	mov    0x12334(%rip),%rax        # 27010 <g_164>
   14cdc:	8b 00                	mov    (%rax),%eax
   14cde:	85 c0                	test   %eax,%eax
   14ce0:	eb 01                	jmp    14ce3 <func_68+0x1547>
   14ce2:	90                   	nop
   14ce3:	0f b7 05 6e b5 00 00 	movzwl 0xb56e(%rip),%eax        # 20258 <g_210>
   14cea:	83 c0 01             	add    $0x1,%eax
   14ced:	66 89 05 64 b5 00 00 	mov    %ax,0xb564(%rip)        # 20258 <g_210>
   14cf4:	0f b7 05 5d b5 00 00 	movzwl 0xb55d(%rip),%eax        # 20258 <g_210>
   14cfb:	66 83 f8 01          	cmp    $0x1,%ax
   14cff:	76 ad                	jbe    14cae <func_68+0x1512>
   14d01:	c7 85 20 f2 ff ff 00 	movl   $0x0,-0xde0(%rbp)
   14d08:	00 00 00 
   14d0b:	e9 00 01 00 00       	jmpq   14e10 <func_68+0x1674>
   14d10:	48 8b 05 11 23 01 00 	mov    0x12311(%rip),%rax        # 27028 <g_215>
   14d17:	48 8b 15 02 23 01 00 	mov    0x12302(%rip),%rdx        # 27020 <g_213>
   14d1e:	48 89 10             	mov    %rdx,(%rax)
   14d21:	48 8b 85 68 f2 ff ff 	mov    -0xd98(%rbp),%rax
   14d28:	48 8b 00             	mov    (%rax),%rax
   14d2b:	48 8b 95 08 f3 ff ff 	mov    -0xcf8(%rbp),%rdx
   14d32:	48 89 10             	mov    %rdx,(%rax)
   14d35:	48 8b 85 58 f2 ff ff 	mov    -0xda8(%rbp),%rax
   14d3c:	8b 08                	mov    (%rax),%ecx
   14d3e:	8b 95 0c f2 ff ff    	mov    -0xdf4(%rbp),%edx
   14d44:	48 8b 85 58 f2 ff ff 	mov    -0xda8(%rbp),%rax
   14d4b:	21 ca                	and    %ecx,%edx
   14d4d:	89 10                	mov    %edx,(%rax)
   14d4f:	8b 85 0c f2 ff ff    	mov    -0xdf4(%rbp),%eax
   14d55:	0f b7 d8             	movzwl %ax,%ebx
   14d58:	8b 85 0c f2 ff ff    	mov    -0xdf4(%rbp),%eax
   14d5e:	41 89 c5             	mov    %eax,%r13d
   14d61:	8b 85 0c f2 ff ff    	mov    -0xdf4(%rbp),%eax
   14d67:	44 0f bf e0          	movswl %ax,%r12d
   14d6b:	8b 85 0c f2 ff ff    	mov    -0xdf4(%rbp),%eax
   14d71:	0f b7 d0             	movzwl %ax,%edx
   14d74:	8b 85 0c f2 ff ff    	mov    -0xdf4(%rbp),%eax
   14d7a:	0f b7 c0             	movzwl %ax,%eax
   14d7d:	89 d6                	mov    %edx,%esi
   14d7f:	89 c7                	mov    %eax,%edi
   14d81:	e8 b7 5f ff ff       	callq  ad3d <safe_mul_func_uint16_t_u_u>
   14d86:	98                   	cwtl   
   14d87:	44 89 e6             	mov    %r12d,%esi
   14d8a:	89 c7                	mov    %eax,%edi
   14d8c:	e8 64 56 ff ff       	callq  a3f5 <safe_mul_func_int16_t_s_s>
   14d91:	66 85 c0             	test   %ax,%ax
   14d94:	48 8b 05 f5 b4 00 00 	mov    0xb4f5(%rip),%rax        # 20290 <g_223+0x10>
   14d9b:	c1 f8 16             	sar    $0x16,%eax
   14d9e:	0f b7 c0             	movzwl %ax,%eax
   14da1:	89 c6                	mov    %eax,%esi
   14da3:	bf ff ff 00 00       	mov    $0xffff,%edi
   14da8:	e8 90 5f ff ff       	callq  ad3d <safe_mul_func_uint16_t_u_u>
   14dad:	48 83 bd 00 f2 ff ff 	cmpq   $0x0,-0xe00(%rbp)
   14db4:	00 
   14db5:	0f 94 c0             	sete   %al
   14db8:	0f b6 d0             	movzbl %al,%edx
   14dbb:	48 8b 85 80 f2 ff ff 	mov    -0xd80(%rbp),%rax
   14dc2:	8b 00                	mov    (%rax),%eax
   14dc4:	09 d0                	or     %edx,%eax
   14dc6:	98                   	cwtl   
   14dc7:	44 89 ee             	mov    %r13d,%esi
   14dca:	89 c7                	mov    %eax,%edi
   14dcc:	e8 10 57 ff ff       	callq  a4e1 <safe_lshift_func_int16_t_s_u>
   14dd1:	89 de                	mov    %ebx,%esi
   14dd3:	bf ff ff 00 00       	mov    $0xffff,%edi
   14dd8:	e8 60 5f ff ff       	callq  ad3d <safe_mul_func_uint16_t_u_u>
   14ddd:	48 8b 85 38 f3 ff ff 	mov    -0xcc8(%rbp),%rax
   14de4:	48 8b 00             	mov    (%rax),%rax
   14de7:	48 8b 00             	mov    (%rax),%rax
   14dea:	48 8b 00             	mov    (%rax),%rax
   14ded:	c7 00 00 00 00 00    	movl   $0x0,(%rax)
   14df3:	8b 10                	mov    (%rax),%edx
   14df5:	48 8b 85 30 f3 ff ff 	mov    -0xcd0(%rbp),%rax
   14dfc:	8b 00                	mov    (%rax),%eax
   14dfe:	21 c2                	and    %eax,%edx
   14e00:	48 8b 85 30 f3 ff ff 	mov    -0xcd0(%rbp),%rax
   14e07:	89 10                	mov    %edx,(%rax)
   14e09:	83 85 20 f2 ff ff 01 	addl   $0x1,-0xde0(%rbp)
   14e10:	83 bd 20 f2 ff ff 03 	cmpl   $0x3,-0xde0(%rbp)
   14e17:	0f 8e f3 fe ff ff    	jle    14d10 <func_68+0x1574>
   14e1d:	48 8d 05 0d b2 00 00 	lea    0xb20d(%rip),%rax        # 20031 <g_72>
   14e24:	e9 32 03 00 00       	jmpq   1515b <func_68+0x19bf>
   14e29:	8b 85 1c f2 ff ff    	mov    -0xde4(%rbp),%eax
   14e2f:	83 c0 01             	add    $0x1,%eax
   14e32:	89 85 1c f2 ff ff    	mov    %eax,-0xde4(%rbp)
   14e38:	8b 85 1c f2 ff ff    	mov    -0xde4(%rbp),%eax
   14e3e:	83 f8 03             	cmp    $0x3,%eax
   14e41:	0f 8e 21 fb ff ff    	jle    14968 <func_68+0x11cc>
   14e47:	eb 01                	jmp    14e4a <func_68+0x16ae>
   14e49:	90                   	nop
   14e4a:	0f b7 05 e7 b1 00 00 	movzwl 0xb1e7(%rip),%eax        # 20038 <g_85>
   14e51:	83 e8 01             	sub    $0x1,%eax
   14e54:	66 89 05 dd b1 00 00 	mov    %ax,0xb1dd(%rip)        # 20038 <g_85>
   14e5b:	0f b7 05 d6 b1 00 00 	movzwl 0xb1d6(%rip),%eax        # 20038 <g_85>
   14e62:	66 85 c0             	test   %ax,%ax
   14e65:	0f 89 b9 ee ff ff    	jns    13d24 <func_68+0x588>
   14e6b:	66 c7 05 b4 28 01 00 	movw   $0x16,0x128b4(%rip)        # 27728 <g_125>
   14e72:	16 00 
   14e74:	e9 ca 02 00 00       	jmpq   15143 <func_68+0x19a7>
   14e79:	c7 85 50 f3 ff ff ff 	movl   $0xffffffff,-0xcb0(%rbp)
   14e80:	ff ff ff 
   14e83:	8b 85 54 f3 ff ff    	mov    -0xcac(%rbp),%eax
   14e89:	25 00 00 00 c0       	and    $0xc0000000,%eax
   14e8e:	0d 8c 73 00 00       	or     $0x738c,%eax
   14e93:	89 85 54 f3 ff ff    	mov    %eax,-0xcac(%rbp)
   14e99:	48 c7 85 e0 f2 ff ff 	movq   $0x0,-0xd20(%rbp)
   14ea0:	00 00 00 00 
   14ea4:	48 c7 85 e8 f2 ff ff 	movq   $0x0,-0xd18(%rbp)
   14eab:	00 00 00 00 
   14eaf:	48 8d 05 7a b5 00 00 	lea    0xb57a(%rip),%rax        # 20430 <g_251>
   14eb6:	48 89 85 f0 f2 ff ff 	mov    %rax,-0xd10(%rbp)
   14ebd:	48 8d 05 83 c6 00 00 	lea    0xc683(%rip),%rax        # 21547 <g_259+0x7>
   14ec4:	48 89 85 f8 f2 ff ff 	mov    %rax,-0xd08(%rbp)
   14ecb:	48 8b 85 00 f2 ff ff 	mov    -0xe00(%rbp),%rax
   14ed2:	0f b6 00             	movzbl (%rax),%eax
   14ed5:	0f be c0             	movsbl %al,%eax
   14ed8:	be 03 00 00 00       	mov    $0x3,%esi
   14edd:	89 c7                	mov    %eax,%edi
   14edf:	e8 0a 54 ff ff       	callq  a2ee <safe_lshift_func_int8_t_s_u>
   14ee4:	84 c0                	test   %al,%al
   14ee6:	0f 85 f8 00 00 00    	jne    14fe4 <func_68+0x1848>
   14eec:	48 8b 85 60 f2 ff ff 	mov    -0xda0(%rbp),%rax
   14ef3:	48 8b 00             	mov    (%rax),%rax
   14ef6:	8b 00                	mov    (%rax),%eax
   14ef8:	0f be d8             	movsbl %al,%ebx
   14efb:	0f b7 05 38 b1 00 00 	movzwl 0xb138(%rip),%eax        # 2003a <g_96>
   14f02:	8d 50 01             	lea    0x1(%rax),%edx
   14f05:	66 89 15 2e b1 00 00 	mov    %dx,0xb12e(%rip)        # 2003a <g_96>
   14f0c:	98                   	cwtl   
   14f0d:	89 c6                	mov    %eax,%esi
   14f0f:	bf fe ff ff ff       	mov    $0xfffffffe,%edi
   14f14:	e8 9a 54 ff ff       	callq  a3b3 <safe_add_func_int16_t_s_s>
   14f19:	0f b7 c0             	movzwl %ax,%eax
   14f1c:	be 07 00 00 00       	mov    $0x7,%esi
   14f21:	89 c7                	mov    %eax,%edi
   14f23:	e8 de 5e ff ff       	callq  ae06 <safe_lshift_func_uint16_t_u_u>
   14f28:	0f b7 d0             	movzwl %ax,%edx
   14f2b:	48 8b 85 f0 f2 ff ff 	mov    -0xd10(%rbp),%rax
   14f32:	48 89 10             	mov    %rdx,(%rax)
   14f35:	48 8b 85 f0 f2 ff ff 	mov    -0xd10(%rbp),%rax
   14f3c:	48 8b 00             	mov    (%rax),%rax
   14f3f:	41 89 c5             	mov    %eax,%r13d
   14f42:	48 8b 85 90 f2 ff ff 	mov    -0xd70(%rbp),%rax
   14f49:	8b 00                	mov    (%rax),%eax
   14f4b:	98                   	cwtl   
   14f4c:	be 0e 00 00 00       	mov    $0xe,%esi
   14f51:	89 c7                	mov    %eax,%edi
   14f53:	e8 3a 55 ff ff       	callq  a492 <safe_lshift_func_int16_t_s_s>
   14f58:	44 0f bf e0          	movswl %ax,%r12d
   14f5c:	48 8b 85 00 f2 ff ff 	mov    -0xe00(%rbp),%rax
   14f63:	0f b6 00             	movzbl (%rax),%eax
   14f66:	0f be c0             	movsbl %al,%eax
   14f69:	89 c6                	mov    %eax,%esi
   14f6b:	bf ff 00 00 00       	mov    $0xff,%edi
   14f70:	e8 90 5c ff ff       	callq  ac05 <safe_lshift_func_uint8_t_u_s>
   14f75:	0f b6 d0             	movzbl %al,%edx
   14f78:	8b 85 0c f2 ff ff    	mov    -0xdf4(%rbp),%eax
   14f7e:	39 c2                	cmp    %eax,%edx
   14f80:	0f 9f c0             	setg   %al
   14f83:	0f b6 c0             	movzbl %al,%eax
   14f86:	44 31 e0             	xor    %r12d,%eax
   14f89:	83 f8 fc             	cmp    $0xfffffffc,%eax
   14f8c:	0f 95 c0             	setne  %al
   14f8f:	0f b6 c0             	movzbl %al,%eax
   14f92:	48 39 85 d8 f2 ff ff 	cmp    %rax,-0xd28(%rbp)
   14f99:	0f 9e c0             	setle  %al
   14f9c:	44 31 e8             	xor    %r13d,%eax
   14f9f:	0f be c0             	movsbl %al,%eax
   14fa2:	89 de                	mov    %ebx,%esi
   14fa4:	89 c7                	mov    %eax,%edi
   14fa6:	e8 86 52 ff ff       	callq  a231 <safe_mod_func_int8_t_s_s>
   14fab:	0f b6 c0             	movzbl %al,%eax
   14fae:	89 c6                	mov    %eax,%esi
   14fb0:	bf 8f 00 00 00       	mov    $0x8f,%edi
   14fb5:	e8 f4 5b ff ff       	callq  abae <safe_mod_func_uint8_t_u_u>
   14fba:	3c c4                	cmp    $0xc4,%al
   14fbc:	76 14                	jbe    14fd2 <func_68+0x1836>
   14fbe:	48 8b 05 4b 20 01 00 	mov    0x1204b(%rip),%rax        # 27010 <g_164>
   14fc5:	8b 00                	mov    (%rax),%eax
   14fc7:	85 c0                	test   %eax,%eax
   14fc9:	74 07                	je     14fd2 <func_68+0x1836>
   14fcb:	ba 01 00 00 00       	mov    $0x1,%edx
   14fd0:	eb 05                	jmp    14fd7 <func_68+0x183b>
   14fd2:	ba 00 00 00 00       	mov    $0x0,%edx
   14fd7:	8b 85 54 f3 ff ff    	mov    -0xcac(%rbp),%eax
   14fdd:	25 ff ff ff 3f       	and    $0x3fffffff,%eax
   14fe2:	39 c2                	cmp    %eax,%edx
   14fe4:	ba 01 00 00 00       	mov    $0x1,%edx
   14fe9:	48 8b 85 f8 f2 ff ff 	mov    -0xd08(%rbp),%rax
   14ff0:	0f b6 00             	movzbl (%rax),%eax
   14ff3:	31 c2                	xor    %eax,%edx
   14ff5:	48 8b 85 f8 f2 ff ff 	mov    -0xd08(%rbp),%rax
   14ffc:	88 10                	mov    %dl,(%rax)
   14ffe:	48 8b 05 9b 1f 01 00 	mov    0x11f9b(%rip),%rax        # 26fa0 <g_73>
   15005:	8b 00                	mov    (%rax),%eax
   15007:	85 c0                	test   %eax,%eax
   15009:	0f 84 2b 01 00 00    	je     1513a <func_68+0x199e>
   1500f:	c6 85 15 f2 ff ff ff 	movb   $0xff,-0xdeb(%rbp)
   15016:	0f b7 05 d7 b1 00 00 	movzwl 0xb1d7(%rip),%eax        # 201f4 <g_182+0x194>
   1501d:	66 85 c0             	test   %ax,%ax
   15020:	0f 85 e0 00 00 00    	jne    15106 <func_68+0x196a>
   15026:	0f b6 05 1d b0 00 00 	movzbl 0xb01d(%rip),%eax        # 2004a <g_111>
   1502d:	0f b6 d8             	movzbl %al,%ebx
   15030:	48 8b 05 71 1f 01 00 	mov    0x11f71(%rip),%rax        # 26fa8 <g_104>
   15037:	0f b7 00             	movzwl (%rax),%eax
   1503a:	66 85 c0             	test   %ax,%ax
   1503d:	74 2d                	je     1506c <func_68+0x18d0>
   1503f:	48 8b 05 fa b3 00 00 	mov    0xb3fa(%rip),%rax        # 20440 <g_251+0x10>
   15046:	48 85 c0             	test   %rax,%rax
   15049:	74 10                	je     1505b <func_68+0x18bf>
   1504b:	80 bd 15 f2 ff ff 00 	cmpb   $0x0,-0xdeb(%rbp)
   15052:	74 07                	je     1505b <func_68+0x18bf>
   15054:	b8 01 00 00 00       	mov    $0x1,%eax
   15059:	eb 05                	jmp    15060 <func_68+0x18c4>
   1505b:	b8 00 00 00 00       	mov    $0x0,%eax
   15060:	83 f8 ff             	cmp    $0xffffffff,%eax
   15063:	7d 07                	jge    1506c <func_68+0x18d0>
   15065:	b8 01 00 00 00       	mov    $0x1,%eax
   1506a:	eb 05                	jmp    15071 <func_68+0x18d5>
   1506c:	b8 00 00 00 00       	mov    $0x0,%eax
   15071:	83 f0 46             	xor    $0x46,%eax
   15074:	89 c2                	mov    %eax,%edx
   15076:	48 8b 85 90 f2 ff ff 	mov    -0xd70(%rbp),%rax
   1507d:	8b 00                	mov    (%rax),%eax
   1507f:	89 d6                	mov    %edx,%esi
   15081:	89 c7                	mov    %eax,%edi
   15083:	e8 75 5e ff ff       	callq  aefd <safe_mod_func_uint32_t_u_u>
   15088:	0f be c0             	movsbl %al,%eax
   1508b:	be 03 00 00 00       	mov    $0x3,%esi
   15090:	89 c7                	mov    %eax,%edi
   15092:	e8 0a 52 ff ff       	callq  a2a1 <safe_lshift_func_int8_t_s_s>
   15097:	84 c0                	test   %al,%al
   15099:	75 07                	jne    150a2 <func_68+0x1906>
   1509b:	83 bd 38 f2 ff ff 00 	cmpl   $0x0,-0xdc8(%rbp)
   150a2:	0f b6 05 a1 af 00 00 	movzbl 0xafa1(%rip),%eax        # 2004a <g_111>
   150a9:	0f b6 c0             	movzbl %al,%eax
   150ac:	89 c6                	mov    %eax,%esi
   150ae:	bf 01 00 00 00       	mov    $0x1,%edi
   150b3:	e8 4d 55 ff ff       	callq  a605 <safe_sub_func_int32_t_s_s>
   150b8:	8b 85 0c f2 ff ff    	mov    -0xdf4(%rbp),%eax
   150be:	89 c2                	mov    %eax,%edx
   150c0:	48 8b 85 00 f5 ff ff 	mov    -0xb00(%rbp),%rax
   150c7:	48 85 c0             	test   %rax,%rax
   150ca:	0f 95 c0             	setne  %al
   150cd:	0f b6 c0             	movzbl %al,%eax
   150d0:	89 d6                	mov    %edx,%esi
   150d2:	89 c7                	mov    %eax,%edi
   150d4:	e8 8a 54 ff ff       	callq  a563 <safe_rshift_func_int16_t_s_u>
   150d9:	66 0f be 95 15 f2 ff 	movsbw -0xdeb(%rbp),%dx
   150e0:	ff 
   150e1:	66 39 d0             	cmp    %dx,%ax
   150e4:	0f 95 c0             	setne  %al
   150e7:	0f b6 d0             	movzbl %al,%edx
   150ea:	8b 85 0c f2 ff ff    	mov    -0xdf4(%rbp),%eax
   150f0:	39 c2                	cmp    %eax,%edx
   150f2:	0f 95 c0             	setne  %al
   150f5:	0f b6 c0             	movzbl %al,%eax
   150f8:	89 de                	mov    %ebx,%esi
   150fa:	89 c7                	mov    %eax,%edi
   150fc:	e8 79 5d ff ff       	callq  ae7a <safe_rshift_func_uint16_t_u_u>
   15101:	66 85 c0             	test   %ax,%ax
   15104:	74 07                	je     1510d <func_68+0x1971>
   15106:	ba 01 00 00 00       	mov    $0x1,%edx
   1510b:	eb 05                	jmp    15112 <func_68+0x1976>
   1510d:	ba 00 00 00 00       	mov    $0x0,%edx
   15112:	48 8b 85 58 f2 ff ff 	mov    -0xda8(%rbp),%rax
   15119:	89 10                	mov    %edx,(%rax)
   1511b:	0f b7 05 06 26 01 00 	movzwl 0x12606(%rip),%eax        # 27728 <g_125>
   15122:	0f b7 c0             	movzwl %ax,%eax
   15125:	be 01 00 00 00       	mov    $0x1,%esi
   1512a:	89 c7                	mov    %eax,%edi
   1512c:	e8 87 5d ff ff       	callq  aeb8 <safe_add_func_uint32_t_u_u>
   15131:	66 89 05 f0 25 01 00 	mov    %ax,0x125f0(%rip)        # 27728 <g_125>
   15138:	eb 09                	jmp    15143 <func_68+0x19a7>
   1513a:	48 8b 85 f8 f2 ff ff 	mov    -0xd08(%rbp),%rax
   15141:	eb 18                	jmp    1515b <func_68+0x19bf>
   15143:	0f b7 05 de 25 01 00 	movzwl 0x125de(%rip),%eax        # 27728 <g_125>
   1514a:	66 83 f8 36          	cmp    $0x36,%ax
   1514e:	0f 87 25 fd ff ff    	ja     14e79 <func_68+0x16dd>
   15154:	48 8b 85 00 f2 ff ff 	mov    -0xe00(%rbp),%rax
   1515b:	48 8b 5d c8          	mov    -0x38(%rbp),%rbx
   1515f:	64 48 33 1c 25 28 00 	xor    %fs:0x28,%rbx
   15166:	00 00 
   15168:	74 05                	je     1516f <func_68+0x19d3>
   1516a:	e8 01 4f ff ff       	callq  a070 <__stack_chk_fail@plt>
   1516f:	48 81 c4 d8 0d 00 00 	add    $0xdd8,%rsp
   15176:	5b                   	pop    %rbx
   15177:	41 5c                	pop    %r12
   15179:	41 5d                	pop    %r13
   1517b:	41 5e                	pop    %r14
   1517d:	41 5f                	pop    %r15
   1517f:	5d                   	pop    %rbp
   15180:	c3                   	retq   

0000000000015181 <main>:
   15181:	f3 0f 1e fa          	endbr64 
   15185:	55                   	push   %rbp
   15186:	48 89 e5             	mov    %rsp,%rbp
   15189:	48 83 ec 20          	sub    $0x20,%rsp
   1518d:	89 7d ec             	mov    %edi,-0x14(%rbp)
   15190:	48 89 75 e0          	mov    %rsi,-0x20(%rbp)
   15194:	c7 45 fc 00 00 00 00 	movl   $0x0,-0x4(%rbp)
   1519b:	83 7d ec 02          	cmpl   $0x2,-0x14(%rbp)
   1519f:	75 25                	jne    151c6 <main+0x45>
   151a1:	48 8b 45 e0          	mov    -0x20(%rbp),%rax
   151a5:	48 83 c0 08          	add    $0x8,%rax
   151a9:	48 8b 00             	mov    (%rax),%rax
   151ac:	48 8d 35 a5 6b 00 00 	lea    0x6ba5(%rip),%rsi        # 1bd58 <g_1979+0x17f4>
   151b3:	48 89 c7             	mov    %rax,%rdi
   151b6:	e8 d5 4e ff ff       	callq  a090 <strcmp@plt>
   151bb:	85 c0                	test   %eax,%eax
   151bd:	75 07                	jne    151c6 <main+0x45>
   151bf:	c7 45 fc 01 00 00 00 	movl   $0x1,-0x4(%rbp)
   151c6:	e8 be 4f ff ff       	callq  a189 <platform_main_begin>
   151cb:	e8 c8 63 ff ff       	callq  b598 <crc32_gentab>
   151d0:	e8 e0 65 ff ff       	callq  b7b5 <func_1>
   151d5:	8b 05 4d ae 00 00    	mov    0xae4d(%rip),%eax        # 20028 <g_10>
   151db:	89 c1                	mov    %eax,%ecx
   151dd:	8b 45 fc             	mov    -0x4(%rbp),%eax
   151e0:	89 c2                	mov    %eax,%edx
   151e2:	48 8d 35 71 6b 00 00 	lea    0x6b71(%rip),%rsi        # 1bd5a <g_1979+0x17f6>
   151e9:	48 89 cf             	mov    %rcx,%rdi
   151ec:	e8 02 65 ff ff       	callq  b6f3 <transparent_crc>
   151f1:	8b 05 35 ae 00 00    	mov    0xae35(%rip),%eax        # 2002c <g_10+0x4>
   151f7:	25 ff ff ff 3f       	and    $0x3fffffff,%eax
   151fc:	89 c1                	mov    %eax,%ecx
   151fe:	8b 45 fc             	mov    -0x4(%rbp),%eax
   15201:	89 c2                	mov    %eax,%edx
   15203:	48 8d 35 58 6b 00 00 	lea    0x6b58(%rip),%rsi        # 1bd62 <g_1979+0x17fe>
   1520a:	48 89 cf             	mov    %rcx,%rdi
   1520d:	e8 e1 64 ff ff       	callq  b6f3 <transparent_crc>
   15212:	0f b6 05 17 ae 00 00 	movzbl 0xae17(%rip),%eax        # 20030 <g_35>
   15219:	48 0f be c0          	movsbq %al,%rax
   1521d:	8b 55 fc             	mov    -0x4(%rbp),%edx
   15220:	48 8d 35 43 6b 00 00 	lea    0x6b43(%rip),%rsi        # 1bd6a <g_1979+0x1806>
   15227:	48 89 c7             	mov    %rax,%rdi
   1522a:	e8 c4 64 ff ff       	callq  b6f3 <transparent_crc>
   1522f:	0f b6 05 fb ad 00 00 	movzbl 0xadfb(%rip),%eax        # 20031 <g_72>
   15236:	48 0f be c0          	movsbq %al,%rax
   1523a:	8b 55 fc             	mov    -0x4(%rbp),%edx
   1523d:	48 8d 35 2b 6b 00 00 	lea    0x6b2b(%rip),%rsi        # 1bd6f <g_1979+0x180b>
   15244:	48 89 c7             	mov    %rax,%rdi
   15247:	e8 a7 64 ff ff       	callq  b6f3 <transparent_crc>
   1524c:	8b 05 e2 ad 00 00    	mov    0xade2(%rip),%eax        # 20034 <g_74>
   15252:	48 98                	cltq   
   15254:	8b 55 fc             	mov    -0x4(%rbp),%edx
   15257:	48 8d 35 16 6b 00 00 	lea    0x6b16(%rip),%rsi        # 1bd74 <g_1979+0x1810>
   1525e:	48 89 c7             	mov    %rax,%rdi
   15261:	e8 8d 64 ff ff       	callq  b6f3 <transparent_crc>
   15266:	0f b7 05 cb ad 00 00 	movzwl 0xadcb(%rip),%eax        # 20038 <g_85>
   1526d:	48 0f bf c0          	movswq %ax,%rax
   15271:	8b 55 fc             	mov    -0x4(%rbp),%edx
   15274:	48 8d 35 fe 6a 00 00 	lea    0x6afe(%rip),%rsi        # 1bd79 <g_1979+0x1815>
   1527b:	48 89 c7             	mov    %rax,%rdi
   1527e:	e8 70 64 ff ff       	callq  b6f3 <transparent_crc>
   15283:	0f b7 05 b0 ad 00 00 	movzwl 0xadb0(%rip),%eax        # 2003a <g_96>
   1528a:	0f b7 c0             	movzwl %ax,%eax
   1528d:	8b 55 fc             	mov    -0x4(%rbp),%edx
   15290:	48 8d 35 e7 6a 00 00 	lea    0x6ae7(%rip),%rsi        # 1bd7e <g_1979+0x181a>
   15297:	48 89 c7             	mov    %rax,%rdi
   1529a:	e8 54 64 ff ff       	callq  b6f3 <transparent_crc>
   1529f:	c7 45 f0 00 00 00 00 	movl   $0x0,-0x10(%rbp)
   152a6:	eb 4a                	jmp    152f2 <main+0x171>
   152a8:	8b 45 f0             	mov    -0x10(%rbp),%eax
   152ab:	48 98                	cltq   
   152ad:	48 8d 14 00          	lea    (%rax,%rax,1),%rdx
   152b1:	48 8d 05 88 ad 00 00 	lea    0xad88(%rip),%rax        # 20040 <g_105>
   152b8:	0f b7 04 02          	movzwl (%rdx,%rax,1),%eax
   152bc:	48 0f bf c0          	movswq %ax,%rax
   152c0:	8b 55 fc             	mov    -0x4(%rbp),%edx
   152c3:	48 8d 35 b9 6a 00 00 	lea    0x6ab9(%rip),%rsi        # 1bd83 <g_1979+0x181f>
   152ca:	48 89 c7             	mov    %rax,%rdi
   152cd:	e8 21 64 ff ff       	callq  b6f3 <transparent_crc>
   152d2:	83 7d fc 00          	cmpl   $0x0,-0x4(%rbp)
   152d6:	74 16                	je     152ee <main+0x16d>
   152d8:	8b 45 f0             	mov    -0x10(%rbp),%eax
   152db:	89 c6                	mov    %eax,%esi
   152dd:	48 8d 3d a8 6a 00 00 	lea    0x6aa8(%rip),%rdi        # 1bd8c <g_1979+0x1828>
   152e4:	b8 00 00 00 00       	mov    $0x0,%eax
   152e9:	e8 92 4d ff ff       	callq  a080 <printf@plt>
   152ee:	83 45 f0 01          	addl   $0x1,-0x10(%rbp)
   152f2:	83 7d f0 04          	cmpl   $0x4,-0x10(%rbp)
   152f6:	7e b0                	jle    152a8 <main+0x127>
   152f8:	0f b6 05 4b ad 00 00 	movzbl 0xad4b(%rip),%eax        # 2004a <g_111>
   152ff:	0f b6 c0             	movzbl %al,%eax
   15302:	8b 55 fc             	mov    -0x4(%rbp),%edx
   15305:	48 8d 35 8e 6a 00 00 	lea    0x6a8e(%rip),%rsi        # 1bd9a <g_1979+0x1836>
   1530c:	48 89 c7             	mov    %rax,%rdi
   1530f:	e8 df 63 ff ff       	callq  b6f3 <transparent_crc>
   15314:	0f b7 05 0d 24 01 00 	movzwl 0x1240d(%rip),%eax        # 27728 <g_125>
   1531b:	0f b7 c0             	movzwl %ax,%eax
   1531e:	8b 55 fc             	mov    -0x4(%rbp),%edx
   15321:	48 8d 35 78 6a 00 00 	lea    0x6a78(%rip),%rsi        # 1bda0 <g_1979+0x183c>
   15328:	48 89 c7             	mov    %rax,%rdi
   1532b:	e8 c3 63 ff ff       	callq  b6f3 <transparent_crc>
   15330:	8b 05 16 ad 00 00    	mov    0xad16(%rip),%eax        # 2004c <g_139>
   15336:	48 98                	cltq   
   15338:	8b 55 fc             	mov    -0x4(%rbp),%edx
   1533b:	48 8d 35 64 6a 00 00 	lea    0x6a64(%rip),%rsi        # 1bda6 <g_1979+0x1842>
   15342:	48 89 c7             	mov    %rax,%rdi
   15345:	e8 a9 63 ff ff       	callq  b6f3 <transparent_crc>
   1534a:	48 8b 05 ff ac 00 00 	mov    0xacff(%rip),%rax        # 20050 <g_147>
   15351:	8b 55 fc             	mov    -0x4(%rbp),%edx
   15354:	48 8d 35 51 6a 00 00 	lea    0x6a51(%rip),%rsi        # 1bdac <g_1979+0x1848>
   1535b:	48 89 c7             	mov    %rax,%rdi
   1535e:	e8 90 63 ff ff       	callq  b6f3 <transparent_crc>
   15363:	c7 45 f0 00 00 00 00 	movl   $0x0,-0x10(%rbp)
   1536a:	e9 a7 00 00 00       	jmpq   15416 <main+0x295>
   1536f:	c7 45 f4 00 00 00 00 	movl   $0x0,-0xc(%rbp)
   15376:	e9 8d 00 00 00       	jmpq   15408 <main+0x287>
   1537b:	c7 45 f8 00 00 00 00 	movl   $0x0,-0x8(%rbp)
   15382:	eb 7a                	jmp    153fe <main+0x27d>
   15384:	8b 45 f8             	mov    -0x8(%rbp),%eax
   15387:	48 63 f0             	movslq %eax,%rsi
   1538a:	8b 45 f0             	mov    -0x10(%rbp),%eax
   1538d:	48 63 d0             	movslq %eax,%rdx
   15390:	8b 45 f4             	mov    -0xc(%rbp),%eax
   15393:	48 63 c8             	movslq %eax,%rcx
   15396:	48 89 d0             	mov    %rdx,%rax
   15399:	48 c1 e0 03          	shl    $0x3,%rax
   1539d:	48 29 d0             	sub    %rdx,%rax
   153a0:	48 c1 e0 02          	shl    $0x2,%rax
   153a4:	48 89 ca             	mov    %rcx,%rdx
   153a7:	48 c1 e2 03          	shl    $0x3,%rdx
   153ab:	48 29 ca             	sub    %rcx,%rdx
   153ae:	48 01 d0             	add    %rdx,%rax
   153b1:	48 01 f0             	add    %rsi,%rax
   153b4:	48 8d 14 00          	lea    (%rax,%rax,1),%rdx
   153b8:	48 8d 05 a1 ac 00 00 	lea    0xaca1(%rip),%rax        # 20060 <g_182>
   153bf:	0f b7 04 02          	movzwl (%rdx,%rax,1),%eax
   153c3:	0f b7 c0             	movzwl %ax,%eax
   153c6:	8b 55 fc             	mov    -0x4(%rbp),%edx
   153c9:	48 8d 35 e2 69 00 00 	lea    0x69e2(%rip),%rsi        # 1bdb2 <g_1979+0x184e>
   153d0:	48 89 c7             	mov    %rax,%rdi
   153d3:	e8 1b 63 ff ff       	callq  b6f3 <transparent_crc>
   153d8:	83 7d fc 00          	cmpl   $0x0,-0x4(%rbp)
   153dc:	74 1c                	je     153fa <main+0x279>
   153de:	8b 4d f8             	mov    -0x8(%rbp),%ecx
   153e1:	8b 55 f4             	mov    -0xc(%rbp),%edx
   153e4:	8b 45 f0             	mov    -0x10(%rbp),%eax
   153e7:	89 c6                	mov    %eax,%esi
   153e9:	48 8d 3d d1 69 00 00 	lea    0x69d1(%rip),%rdi        # 1bdc1 <g_1979+0x185d>
   153f0:	b8 00 00 00 00       	mov    $0x0,%eax
   153f5:	e8 86 4c ff ff       	callq  a080 <printf@plt>
   153fa:	83 45 f8 01          	addl   $0x1,-0x8(%rbp)
   153fe:	83 7d f8 06          	cmpl   $0x6,-0x8(%rbp)
   15402:	7e 80                	jle    15384 <main+0x203>
   15404:	83 45 f4 01          	addl   $0x1,-0xc(%rbp)
   15408:	83 7d f4 03          	cmpl   $0x3,-0xc(%rbp)
   1540c:	0f 8e 69 ff ff ff    	jle    1537b <main+0x1fa>
   15412:	83 45 f0 01          	addl   $0x1,-0x10(%rbp)
   15416:	83 7d f0 08          	cmpl   $0x8,-0x10(%rbp)
   1541a:	0f 8e 4f ff ff ff    	jle    1536f <main+0x1ee>
   15420:	0f b7 05 31 ae 00 00 	movzwl 0xae31(%rip),%eax        # 20258 <g_210>
   15427:	0f b7 c0             	movzwl %ax,%eax
   1542a:	8b 55 fc             	mov    -0x4(%rbp),%edx
   1542d:	48 8d 35 a3 69 00 00 	lea    0x69a3(%rip),%rsi        # 1bdd7 <g_1979+0x1873>
   15434:	48 89 c7             	mov    %rax,%rdi
   15437:	e8 b7 62 ff ff       	callq  b6f3 <transparent_crc>
   1543c:	48 8b 05 1d ae 00 00 	mov    0xae1d(%rip),%rax        # 20260 <g_214>
   15443:	66 25 ff 7f          	and    $0x7fff,%ax
   15447:	0f b7 c0             	movzwl %ax,%eax
   1544a:	8b 55 fc             	mov    -0x4(%rbp),%edx
   1544d:	48 8d 35 89 69 00 00 	lea    0x6989(%rip),%rsi        # 1bddd <g_1979+0x1879>
   15454:	48 89 c7             	mov    %rax,%rdi
   15457:	e8 97 62 ff ff       	callq  b6f3 <transparent_crc>
   1545c:	8b 05 fe ad 00 00    	mov    0xadfe(%rip),%eax        # 20260 <g_214>
   15462:	c1 e8 0f             	shr    $0xf,%eax
   15465:	66 25 ff 03          	and    $0x3ff,%ax
   15469:	0f b7 c0             	movzwl %ax,%eax
   1546c:	8b 55 fc             	mov    -0x4(%rbp),%edx
   1546f:	48 8d 35 70 69 00 00 	lea    0x6970(%rip),%rsi        # 1bde6 <g_1979+0x1882>
   15476:	48 89 c7             	mov    %rax,%rdi
   15479:	e8 75 62 ff ff       	callq  b6f3 <transparent_crc>
   1547e:	8b 05 e0 ad 00 00    	mov    0xade0(%rip),%eax        # 20264 <g_214+0x4>
   15484:	c1 e0 09             	shl    $0x9,%eax
   15487:	c1 f8 09             	sar    $0x9,%eax
   1548a:	48 98                	cltq   
   1548c:	8b 55 fc             	mov    -0x4(%rbp),%edx
   1548f:	48 8d 35 59 69 00 00 	lea    0x6959(%rip),%rsi        # 1bdef <g_1979+0x188b>
   15496:	48 89 c7             	mov    %rax,%rdi
   15499:	e8 55 62 ff ff       	callq  b6f3 <transparent_crc>
   1549e:	48 8b 05 c3 ad 00 00 	mov    0xadc3(%rip),%rax        # 20268 <g_214+0x8>
   154a5:	c1 e0 06             	shl    $0x6,%eax
   154a8:	66 c1 f8 06          	sar    $0x6,%ax
   154ac:	48 0f bf c0          	movswq %ax,%rax
   154b0:	8b 55 fc             	mov    -0x4(%rbp),%edx
   154b3:	48 8d 35 3e 69 00 00 	lea    0x693e(%rip),%rsi        # 1bdf8 <g_1979+0x1894>
   154ba:	48 89 c7             	mov    %rax,%rdi
   154bd:	e8 31 62 ff ff       	callq  b6f3 <transparent_crc>
   154c2:	8b 05 a0 ad 00 00    	mov    0xada0(%rip),%eax        # 20268 <g_214+0x8>
   154c8:	c1 e8 0a             	shr    $0xa,%eax
   154cb:	66 25 ff 1f          	and    $0x1fff,%ax
   154cf:	0f b7 c0             	movzwl %ax,%eax
   154d2:	8b 55 fc             	mov    -0x4(%rbp),%edx
   154d5:	48 8d 35 25 69 00 00 	lea    0x6925(%rip),%rsi        # 1be01 <g_1979+0x189d>
   154dc:	48 89 c7             	mov    %rax,%rdi
   154df:	e8 0f 62 ff ff       	callq  b6f3 <transparent_crc>
   154e4:	8b 05 82 ad 00 00    	mov    0xad82(%rip),%eax        # 2026c <g_214+0xc>
   154ea:	89 c1                	mov    %eax,%ecx
   154ec:	8b 45 fc             	mov    -0x4(%rbp),%eax
   154ef:	89 c2                	mov    %eax,%edx
   154f1:	48 8d 35 12 69 00 00 	lea    0x6912(%rip),%rsi        # 1be0a <g_1979+0x18a6>
   154f8:	48 89 cf             	mov    %rcx,%rdi
   154fb:	e8 f3 61 ff ff       	callq  b6f3 <transparent_crc>
   15500:	8b 05 6a ad 00 00    	mov    0xad6a(%rip),%eax        # 20270 <g_214+0x10>
   15506:	25 ff ff 3f 00       	and    $0x3fffff,%eax
   1550b:	89 c1                	mov    %eax,%ecx
   1550d:	8b 45 fc             	mov    -0x4(%rbp),%eax
   15510:	89 c2                	mov    %eax,%edx
   15512:	48 8d 35 fa 68 00 00 	lea    0x68fa(%rip),%rsi        # 1be13 <g_1979+0x18af>
   15519:	48 89 cf             	mov    %rcx,%rdi
   1551c:	e8 d2 61 ff ff       	callq  b6f3 <transparent_crc>
   15521:	0f b7 05 4a ad 00 00 	movzwl 0xad4a(%rip),%eax        # 20272 <g_214+0x12>
   15528:	66 c1 f8 06          	sar    $0x6,%ax
   1552c:	48 0f bf c0          	movswq %ax,%rax
   15530:	8b 55 fc             	mov    -0x4(%rbp),%edx
   15533:	48 8d 35 e2 68 00 00 	lea    0x68e2(%rip),%rsi        # 1be1c <g_1979+0x18b8>
   1553a:	48 89 c7             	mov    %rax,%rdi
   1553d:	e8 b1 61 ff ff       	callq  b6f3 <transparent_crc>
   15542:	0f b6 05 2b ad 00 00 	movzbl 0xad2b(%rip),%eax        # 20274 <g_214+0x14>
   15549:	c1 e0 06             	shl    $0x6,%eax
   1554c:	c0 f8 06             	sar    $0x6,%al
   1554f:	48 0f be c0          	movsbq %al,%rax
   15553:	8b 55 fc             	mov    -0x4(%rbp),%edx
   15556:	48 8d 35 c8 68 00 00 	lea    0x68c8(%rip),%rsi        # 1be25 <g_1979+0x18c1>
   1555d:	48 89 c7             	mov    %rax,%rdi
   15560:	e8 8e 61 ff ff       	callq  b6f3 <transparent_crc>
   15565:	8b 05 0d ad 00 00    	mov    0xad0d(%rip),%eax        # 20278 <g_214+0x18>
   1556b:	25 ff ff ff 7f       	and    $0x7fffffff,%eax
   15570:	89 c1                	mov    %eax,%ecx
   15572:	8b 45 fc             	mov    -0x4(%rbp),%eax
   15575:	89 c2                	mov    %eax,%edx
   15577:	48 8d 35 b0 68 00 00 	lea    0x68b0(%rip),%rsi        # 1be2e <g_1979+0x18ca>
   1557e:	48 89 cf             	mov    %rcx,%rdi
   15581:	e8 6d 61 ff ff       	callq  b6f3 <transparent_crc>
   15586:	48 8b 05 f3 ac 00 00 	mov    0xacf3(%rip),%rax        # 20280 <g_223>
   1558d:	66 25 ff 7f          	and    $0x7fff,%ax
   15591:	0f b7 c0             	movzwl %ax,%eax
   15594:	8b 55 fc             	mov    -0x4(%rbp),%edx
   15597:	48 8d 35 99 68 00 00 	lea    0x6899(%rip),%rsi        # 1be37 <g_1979+0x18d3>
   1559e:	48 89 c7             	mov    %rax,%rdi
   155a1:	e8 4d 61 ff ff       	callq  b6f3 <transparent_crc>
   155a6:	48 8b 05 d3 ac 00 00 	mov    0xacd3(%rip),%rax        # 20280 <g_223>
   155ad:	48 c1 e8 0f          	shr    $0xf,%rax
   155b1:	66 25 ff 03          	and    $0x3ff,%ax
   155b5:	0f b7 c0             	movzwl %ax,%eax
   155b8:	8b 55 fc             	mov    -0x4(%rbp),%edx
   155bb:	48 8d 35 7e 68 00 00 	lea    0x687e(%rip),%rsi        # 1be40 <g_1979+0x18dc>
   155c2:	48 89 c7             	mov    %rax,%rdi
   155c5:	e8 29 61 ff ff       	callq  b6f3 <transparent_crc>
   155ca:	48 8b 05 af ac 00 00 	mov    0xacaf(%rip),%rax        # 20280 <g_223>
   155d1:	48 c1 e0 09          	shl    $0x9,%rax
   155d5:	48 c1 f8 29          	sar    $0x29,%rax
   155d9:	48 98                	cltq   
   155db:	8b 55 fc             	mov    -0x4(%rbp),%edx
   155de:	48 8d 35 64 68 00 00 	lea    0x6864(%rip),%rsi        # 1be49 <g_1979+0x18e5>
   155e5:	48 89 c7             	mov    %rax,%rdi
   155e8:	e8 06 61 ff ff       	callq  b6f3 <transparent_crc>
   155ed:	48 8b 05 94 ac 00 00 	mov    0xac94(%rip),%rax        # 20288 <g_223+0x8>
   155f4:	c1 e0 06             	shl    $0x6,%eax
   155f7:	66 c1 f8 06          	sar    $0x6,%ax
   155fb:	48 0f bf c0          	movswq %ax,%rax
   155ff:	8b 55 fc             	mov    -0x4(%rbp),%edx
   15602:	48 8d 35 49 68 00 00 	lea    0x6849(%rip),%rsi        # 1be52 <g_1979+0x18ee>
   15609:	48 89 c7             	mov    %rax,%rdi
   1560c:	e8 e2 60 ff ff       	callq  b6f3 <transparent_crc>
   15611:	48 8b 05 70 ac 00 00 	mov    0xac70(%rip),%rax        # 20288 <g_223+0x8>
   15618:	48 c1 e8 0a          	shr    $0xa,%rax
   1561c:	66 25 ff 1f          	and    $0x1fff,%ax
   15620:	0f b7 c0             	movzwl %ax,%eax
   15623:	8b 55 fc             	mov    -0x4(%rbp),%edx
   15626:	48 8d 35 2e 68 00 00 	lea    0x682e(%rip),%rsi        # 1be5b <g_1979+0x18f7>
   1562d:	48 89 c7             	mov    %rax,%rdi
   15630:	e8 be 60 ff ff       	callq  b6f3 <transparent_crc>
   15635:	8b 05 51 ac 00 00    	mov    0xac51(%rip),%eax        # 2028c <g_223+0xc>
   1563b:	89 c1                	mov    %eax,%ecx
   1563d:	8b 45 fc             	mov    -0x4(%rbp),%eax
   15640:	89 c2                	mov    %eax,%edx
   15642:	48 8d 35 1b 68 00 00 	lea    0x681b(%rip),%rsi        # 1be64 <g_1979+0x1900>
   15649:	48 89 cf             	mov    %rcx,%rdi
   1564c:	e8 a2 60 ff ff       	callq  b6f3 <transparent_crc>
   15651:	48 8b 05 38 ac 00 00 	mov    0xac38(%rip),%rax        # 20290 <g_223+0x10>
   15658:	25 ff ff 3f 00       	and    $0x3fffff,%eax
   1565d:	89 c1                	mov    %eax,%ecx
   1565f:	8b 45 fc             	mov    -0x4(%rbp),%eax
   15662:	89 c2                	mov    %eax,%edx
   15664:	48 8d 35 02 68 00 00 	lea    0x6802(%rip),%rsi        # 1be6d <g_1979+0x1909>
   1566b:	48 89 cf             	mov    %rcx,%rdi
   1566e:	e8 80 60 ff ff       	callq  b6f3 <transparent_crc>
   15673:	48 8b 05 16 ac 00 00 	mov    0xac16(%rip),%rax        # 20290 <g_223+0x10>
   1567a:	c1 f8 16             	sar    $0x16,%eax
   1567d:	48 0f bf c0          	movswq %ax,%rax
   15681:	8b 55 fc             	mov    -0x4(%rbp),%edx
   15684:	48 8d 35 eb 67 00 00 	lea    0x67eb(%rip),%rsi        # 1be76 <g_1979+0x1912>
   1568b:	48 89 c7             	mov    %rax,%rdi
   1568e:	e8 60 60 ff ff       	callq  b6f3 <transparent_crc>
   15693:	48 8b 05 f6 ab 00 00 	mov    0xabf6(%rip),%rax        # 20290 <g_223+0x10>
   1569a:	48 c1 e0 1e          	shl    $0x1e,%rax
   1569e:	48 c1 f8 3e          	sar    $0x3e,%rax
   156a2:	48 0f be c0          	movsbq %al,%rax
   156a6:	8b 55 fc             	mov    -0x4(%rbp),%edx
   156a9:	48 8d 35 cf 67 00 00 	lea    0x67cf(%rip),%rsi        # 1be7f <g_1979+0x191b>
   156b0:	48 89 c7             	mov    %rax,%rdi
   156b3:	e8 3b 60 ff ff       	callq  b6f3 <transparent_crc>
   156b8:	48 8b 05 d9 ab 00 00 	mov    0xabd9(%rip),%rax        # 20298 <g_223+0x18>
   156bf:	25 ff ff ff 7f       	and    $0x7fffffff,%eax
   156c4:	89 c1                	mov    %eax,%ecx
   156c6:	8b 45 fc             	mov    -0x4(%rbp),%eax
   156c9:	89 c2                	mov    %eax,%edx
   156cb:	48 8d 35 b6 67 00 00 	lea    0x67b6(%rip),%rsi        # 1be88 <g_1979+0x1924>
   156d2:	48 89 cf             	mov    %rcx,%rdi
   156d5:	e8 19 60 ff ff       	callq  b6f3 <transparent_crc>
   156da:	c7 45 f0 00 00 00 00 	movl   $0x0,-0x10(%rbp)
   156e1:	e9 b1 03 00 00       	jmpq   15a97 <main+0x916>
   156e6:	c7 45 f4 00 00 00 00 	movl   $0x0,-0xc(%rbp)
   156ed:	e9 97 03 00 00       	jmpq   15a89 <main+0x908>
   156f2:	8b 45 f4             	mov    -0xc(%rbp),%eax
   156f5:	48 98                	cltq   
   156f7:	8b 55 f0             	mov    -0x10(%rbp),%edx
   156fa:	48 63 ca             	movslq %edx,%rcx
   156fd:	48 89 c2             	mov    %rax,%rdx
   15700:	48 c1 e2 03          	shl    $0x3,%rdx
   15704:	48 29 c2             	sub    %rax,%rdx
   15707:	48 8d 04 95 00 00 00 	lea    0x0(,%rdx,4),%rax
   1570e:	00 
   1570f:	48 89 c2             	mov    %rax,%rdx
   15712:	48 89 c8             	mov    %rcx,%rax
   15715:	48 c1 e0 03          	shl    $0x3,%rax
   15719:	48 29 c8             	sub    %rcx,%rax
   1571c:	48 c1 e0 03          	shl    $0x3,%rax
   15720:	48 01 c2             	add    %rax,%rdx
   15723:	48 8d 05 76 ab 00 00 	lea    0xab76(%rip),%rax        # 202a0 <g_235>
   1572a:	48 01 d0             	add    %rdx,%rax
   1572d:	8b 00                	mov    (%rax),%eax
   1572f:	66 25 ff 7f          	and    $0x7fff,%ax
   15733:	0f b7 c0             	movzwl %ax,%eax
   15736:	8b 55 fc             	mov    -0x4(%rbp),%edx
   15739:	48 8d 35 51 67 00 00 	lea    0x6751(%rip),%rsi        # 1be91 <g_1979+0x192d>
   15740:	48 89 c7             	mov    %rax,%rdi
   15743:	e8 ab 5f ff ff       	callq  b6f3 <transparent_crc>
   15748:	8b 45 f4             	mov    -0xc(%rbp),%eax
   1574b:	48 98                	cltq   
   1574d:	8b 55 f0             	mov    -0x10(%rbp),%edx
   15750:	48 63 ca             	movslq %edx,%rcx
   15753:	48 89 c2             	mov    %rax,%rdx
   15756:	48 c1 e2 03          	shl    $0x3,%rdx
   1575a:	48 29 c2             	sub    %rax,%rdx
   1575d:	48 8d 04 95 00 00 00 	lea    0x0(,%rdx,4),%rax
   15764:	00 
   15765:	48 89 c2             	mov    %rax,%rdx
   15768:	48 89 c8             	mov    %rcx,%rax
   1576b:	48 c1 e0 03          	shl    $0x3,%rax
   1576f:	48 29 c8             	sub    %rcx,%rax
   15772:	48 c1 e0 03          	shl    $0x3,%rax
   15776:	48 01 c2             	add    %rax,%rdx
   15779:	48 8d 05 20 ab 00 00 	lea    0xab20(%rip),%rax        # 202a0 <g_235>
   15780:	48 01 d0             	add    %rdx,%rax
   15783:	8b 00                	mov    (%rax),%eax
   15785:	c1 e8 0f             	shr    $0xf,%eax
   15788:	66 25 ff 03          	and    $0x3ff,%ax
   1578c:	0f b7 c0             	movzwl %ax,%eax
   1578f:	8b 55 fc             	mov    -0x4(%rbp),%edx
   15792:	48 8d 35 07 67 00 00 	lea    0x6707(%rip),%rsi        # 1bea0 <g_1979+0x193c>
   15799:	48 89 c7             	mov    %rax,%rdi
   1579c:	e8 52 5f ff ff       	callq  b6f3 <transparent_crc>
   157a1:	8b 45 f4             	mov    -0xc(%rbp),%eax
   157a4:	48 98                	cltq   
   157a6:	8b 55 f0             	mov    -0x10(%rbp),%edx
   157a9:	48 63 ca             	movslq %edx,%rcx
   157ac:	48 89 c2             	mov    %rax,%rdx
   157af:	48 c1 e2 03          	shl    $0x3,%rdx
   157b3:	48 29 c2             	sub    %rax,%rdx
   157b6:	48 8d 04 95 00 00 00 	lea    0x0(,%rdx,4),%rax
   157bd:	00 
   157be:	48 89 c2             	mov    %rax,%rdx
   157c1:	48 89 c8             	mov    %rcx,%rax
   157c4:	48 c1 e0 03          	shl    $0x3,%rax
   157c8:	48 29 c8             	sub    %rcx,%rax
   157cb:	48 c1 e0 03          	shl    $0x3,%rax
   157cf:	48 01 c2             	add    %rax,%rdx
   157d2:	48 8d 05 c7 aa 00 00 	lea    0xaac7(%rip),%rax        # 202a0 <g_235>
   157d9:	48 01 d0             	add    %rdx,%rax
   157dc:	8b 40 04             	mov    0x4(%rax),%eax
   157df:	c1 e0 09             	shl    $0x9,%eax
   157e2:	c1 f8 09             	sar    $0x9,%eax
   157e5:	48 98                	cltq   
   157e7:	8b 55 fc             	mov    -0x4(%rbp),%edx
   157ea:	48 8d 35 be 66 00 00 	lea    0x66be(%rip),%rsi        # 1beaf <g_1979+0x194b>
   157f1:	48 89 c7             	mov    %rax,%rdi
   157f4:	e8 fa 5e ff ff       	callq  b6f3 <transparent_crc>
   157f9:	8b 45 f4             	mov    -0xc(%rbp),%eax
   157fc:	48 98                	cltq   
   157fe:	8b 55 f0             	mov    -0x10(%rbp),%edx
   15801:	48 63 ca             	movslq %edx,%rcx
   15804:	48 89 c2             	mov    %rax,%rdx
   15807:	48 c1 e2 03          	shl    $0x3,%rdx
   1580b:	48 29 c2             	sub    %rax,%rdx
   1580e:	48 8d 04 95 00 00 00 	lea    0x0(,%rdx,4),%rax
   15815:	00 
   15816:	48 89 c2             	mov    %rax,%rdx
   15819:	48 89 c8             	mov    %rcx,%rax
   1581c:	48 c1 e0 03          	shl    $0x3,%rax
   15820:	48 29 c8             	sub    %rcx,%rax
   15823:	48 c1 e0 03          	shl    $0x3,%rax
   15827:	48 01 c2             	add    %rax,%rdx
   1582a:	48 8d 05 6f aa 00 00 	lea    0xaa6f(%rip),%rax        # 202a0 <g_235>
   15831:	48 01 d0             	add    %rdx,%rax
   15834:	8b 40 08             	mov    0x8(%rax),%eax
   15837:	c1 e0 06             	shl    $0x6,%eax
   1583a:	66 c1 f8 06          	sar    $0x6,%ax
   1583e:	48 0f bf c0          	movswq %ax,%rax
   15842:	8b 55 fc             	mov    -0x4(%rbp),%edx
   15845:	48 8d 35 72 66 00 00 	lea    0x6672(%rip),%rsi        # 1bebe <g_1979+0x195a>
   1584c:	48 89 c7             	mov    %rax,%rdi
   1584f:	e8 9f 5e ff ff       	callq  b6f3 <transparent_crc>
   15854:	8b 45 f4             	mov    -0xc(%rbp),%eax
   15857:	48 98                	cltq   
   15859:	8b 55 f0             	mov    -0x10(%rbp),%edx
   1585c:	48 63 ca             	movslq %edx,%rcx
   1585f:	48 89 c2             	mov    %rax,%rdx
   15862:	48 c1 e2 03          	shl    $0x3,%rdx
   15866:	48 29 c2             	sub    %rax,%rdx
   15869:	48 8d 04 95 00 00 00 	lea    0x0(,%rdx,4),%rax
   15870:	00 
   15871:	48 89 c2             	mov    %rax,%rdx
   15874:	48 89 c8             	mov    %rcx,%rax
   15877:	48 c1 e0 03          	shl    $0x3,%rax
   1587b:	48 29 c8             	sub    %rcx,%rax
   1587e:	48 c1 e0 03          	shl    $0x3,%rax
   15882:	48 01 c2             	add    %rax,%rdx
   15885:	48 8d 05 14 aa 00 00 	lea    0xaa14(%rip),%rax        # 202a0 <g_235>
   1588c:	48 01 d0             	add    %rdx,%rax
   1588f:	8b 40 08             	mov    0x8(%rax),%eax
   15892:	c1 e8 0a             	shr    $0xa,%eax
   15895:	66 25 ff 1f          	and    $0x1fff,%ax
   15899:	0f b7 c0             	movzwl %ax,%eax
   1589c:	8b 55 fc             	mov    -0x4(%rbp),%edx
   1589f:	48 8d 35 27 66 00 00 	lea    0x6627(%rip),%rsi        # 1becd <g_1979+0x1969>
   158a6:	48 89 c7             	mov    %rax,%rdi
   158a9:	e8 45 5e ff ff       	callq  b6f3 <transparent_crc>
   158ae:	8b 45 f4             	mov    -0xc(%rbp),%eax
   158b1:	48 98                	cltq   
   158b3:	8b 55 f0             	mov    -0x10(%rbp),%edx
   158b6:	48 63 ca             	movslq %edx,%rcx
   158b9:	48 89 c2             	mov    %rax,%rdx
   158bc:	48 c1 e2 03          	shl    $0x3,%rdx
   158c0:	48 29 c2             	sub    %rax,%rdx
   158c3:	48 8d 04 95 00 00 00 	lea    0x0(,%rdx,4),%rax
   158ca:	00 
   158cb:	48 89 c2             	mov    %rax,%rdx
   158ce:	48 89 c8             	mov    %rcx,%rax
   158d1:	48 c1 e0 03          	shl    $0x3,%rax
   158d5:	48 29 c8             	sub    %rcx,%rax
   158d8:	48 c1 e0 03          	shl    $0x3,%rax
   158dc:	48 01 c2             	add    %rax,%rdx
   158df:	48 8d 05 c6 a9 00 00 	lea    0xa9c6(%rip),%rax        # 202ac <g_235+0xc>
   158e6:	48 01 d0             	add    %rdx,%rax
   158e9:	8b 00                	mov    (%rax),%eax
   158eb:	89 c1                	mov    %eax,%ecx
   158ed:	8b 45 fc             	mov    -0x4(%rbp),%eax
   158f0:	89 c2                	mov    %eax,%edx
   158f2:	48 8d 35 e3 65 00 00 	lea    0x65e3(%rip),%rsi        # 1bedc <g_1979+0x1978>
   158f9:	48 89 cf             	mov    %rcx,%rdi
   158fc:	e8 f2 5d ff ff       	callq  b6f3 <transparent_crc>
   15901:	8b 45 f4             	mov    -0xc(%rbp),%eax
   15904:	48 98                	cltq   
   15906:	8b 55 f0             	mov    -0x10(%rbp),%edx
   15909:	48 63 ca             	movslq %edx,%rcx
   1590c:	48 89 c2             	mov    %rax,%rdx
   1590f:	48 c1 e2 03          	shl    $0x3,%rdx
   15913:	48 29 c2             	sub    %rax,%rdx
   15916:	48 8d 04 95 00 00 00 	lea    0x0(,%rdx,4),%rax
   1591d:	00 
   1591e:	48 89 c2             	mov    %rax,%rdx
   15921:	48 89 c8             	mov    %rcx,%rax
   15924:	48 c1 e0 03          	shl    $0x3,%rax
   15928:	48 29 c8             	sub    %rcx,%rax
   1592b:	48 c1 e0 03          	shl    $0x3,%rax
   1592f:	48 01 c2             	add    %rax,%rdx
   15932:	48 8d 05 77 a9 00 00 	lea    0xa977(%rip),%rax        # 202b0 <g_235+0x10>
   15939:	48 01 d0             	add    %rdx,%rax
   1593c:	8b 00                	mov    (%rax),%eax
   1593e:	25 ff ff 3f 00       	and    $0x3fffff,%eax
   15943:	89 c1                	mov    %eax,%ecx
   15945:	8b 45 fc             	mov    -0x4(%rbp),%eax
   15948:	89 c2                	mov    %eax,%edx
   1594a:	48 8d 35 9a 65 00 00 	lea    0x659a(%rip),%rsi        # 1beeb <g_1979+0x1987>
   15951:	48 89 cf             	mov    %rcx,%rdi
   15954:	e8 9a 5d ff ff       	callq  b6f3 <transparent_crc>
   15959:	8b 45 f4             	mov    -0xc(%rbp),%eax
   1595c:	48 98                	cltq   
   1595e:	8b 55 f0             	mov    -0x10(%rbp),%edx
   15961:	48 63 ca             	movslq %edx,%rcx
   15964:	48 89 c2             	mov    %rax,%rdx
   15967:	48 c1 e2 03          	shl    $0x3,%rdx
   1596b:	48 29 c2             	sub    %rax,%rdx
   1596e:	48 8d 04 95 00 00 00 	lea    0x0(,%rdx,4),%rax
   15975:	00 
   15976:	48 89 c2             	mov    %rax,%rdx
   15979:	48 89 c8             	mov    %rcx,%rax
   1597c:	48 c1 e0 03          	shl    $0x3,%rax
   15980:	48 29 c8             	sub    %rcx,%rax
   15983:	48 c1 e0 03          	shl    $0x3,%rax
   15987:	48 01 c2             	add    %rax,%rdx
   1598a:	48 8d 05 1f a9 00 00 	lea    0xa91f(%rip),%rax        # 202b0 <g_235+0x10>
   15991:	48 01 d0             	add    %rdx,%rax
   15994:	0f b7 40 02          	movzwl 0x2(%rax),%eax
   15998:	66 c1 f8 06          	sar    $0x6,%ax
   1599c:	48 0f bf c0          	movswq %ax,%rax
   159a0:	8b 55 fc             	mov    -0x4(%rbp),%edx
   159a3:	48 8d 35 50 65 00 00 	lea    0x6550(%rip),%rsi        # 1befa <g_1979+0x1996>
   159aa:	48 89 c7             	mov    %rax,%rdi
   159ad:	e8 41 5d ff ff       	callq  b6f3 <transparent_crc>
   159b2:	8b 45 f4             	mov    -0xc(%rbp),%eax
   159b5:	48 98                	cltq   
   159b7:	8b 55 f0             	mov    -0x10(%rbp),%edx
   159ba:	48 63 ca             	movslq %edx,%rcx
   159bd:	48 89 c2             	mov    %rax,%rdx
   159c0:	48 c1 e2 03          	shl    $0x3,%rdx
   159c4:	48 29 c2             	sub    %rax,%rdx
   159c7:	48 8d 04 95 00 00 00 	lea    0x0(,%rdx,4),%rax
   159ce:	00 
   159cf:	48 89 c2             	mov    %rax,%rdx
   159d2:	48 89 c8             	mov    %rcx,%rax
   159d5:	48 c1 e0 03          	shl    $0x3,%rax
   159d9:	48 29 c8             	sub    %rcx,%rax
   159dc:	48 c1 e0 03          	shl    $0x3,%rax
   159e0:	48 01 c2             	add    %rax,%rdx
   159e3:	48 8d 05 c6 a8 00 00 	lea    0xa8c6(%rip),%rax        # 202b0 <g_235+0x10>
   159ea:	48 01 d0             	add    %rdx,%rax
   159ed:	0f b6 40 04          	movzbl 0x4(%rax),%eax
   159f1:	c1 e0 06             	shl    $0x6,%eax
   159f4:	c0 f8 06             	sar    $0x6,%al
   159f7:	48 0f be c0          	movsbq %al,%rax
   159fb:	8b 55 fc             	mov    -0x4(%rbp),%edx
   159fe:	48 8d 35 04 65 00 00 	lea    0x6504(%rip),%rsi        # 1bf09 <g_1979+0x19a5>
   15a05:	48 89 c7             	mov    %rax,%rdi
   15a08:	e8 e6 5c ff ff       	callq  b6f3 <transparent_crc>
   15a0d:	8b 45 f4             	mov    -0xc(%rbp),%eax
   15a10:	48 98                	cltq   
   15a12:	8b 55 f0             	mov    -0x10(%rbp),%edx
   15a15:	48 63 ca             	movslq %edx,%rcx
   15a18:	48 89 c2             	mov    %rax,%rdx
   15a1b:	48 c1 e2 03          	shl    $0x3,%rdx
   15a1f:	48 29 c2             	sub    %rax,%rdx
   15a22:	48 8d 04 95 00 00 00 	lea    0x0(,%rdx,4),%rax
   15a29:	00 
   15a2a:	48 89 c2             	mov    %rax,%rdx
   15a2d:	48 89 c8             	mov    %rcx,%rax
   15a30:	48 c1 e0 03          	shl    $0x3,%rax
   15a34:	48 29 c8             	sub    %rcx,%rax
   15a37:	48 c1 e0 03          	shl    $0x3,%rax
   15a3b:	48 01 c2             	add    %rax,%rdx
   15a3e:	48 8d 05 6b a8 00 00 	lea    0xa86b(%rip),%rax        # 202b0 <g_235+0x10>
   15a45:	48 01 d0             	add    %rdx,%rax
   15a48:	8b 40 08             	mov    0x8(%rax),%eax
   15a4b:	25 ff ff ff 7f       	and    $0x7fffffff,%eax
   15a50:	89 c1                	mov    %eax,%ecx
   15a52:	8b 45 fc             	mov    -0x4(%rbp),%eax
   15a55:	89 c2                	mov    %eax,%edx
   15a57:	48 8d 35 ba 64 00 00 	lea    0x64ba(%rip),%rsi        # 1bf18 <g_1979+0x19b4>
   15a5e:	48 89 cf             	mov    %rcx,%rdi
   15a61:	e8 8d 5c ff ff       	callq  b6f3 <transparent_crc>
   15a66:	83 7d fc 00          	cmpl   $0x0,-0x4(%rbp)
   15a6a:	74 19                	je     15a85 <main+0x904>
   15a6c:	8b 55 f4             	mov    -0xc(%rbp),%edx
   15a6f:	8b 45 f0             	mov    -0x10(%rbp),%eax
   15a72:	89 c6                	mov    %eax,%esi
   15a74:	48 8d 3d ac 64 00 00 	lea    0x64ac(%rip),%rdi        # 1bf27 <g_1979+0x19c3>
   15a7b:	b8 00 00 00 00       	mov    $0x0,%eax
   15a80:	e8 fb 45 ff ff       	callq  a080 <printf@plt>
   15a85:	83 45 f4 01          	addl   $0x1,-0xc(%rbp)
   15a89:	83 7d f4 01          	cmpl   $0x1,-0xc(%rbp)
   15a8d:	0f 8e 5f fc ff ff    	jle    156f2 <main+0x571>
   15a93:	83 45 f0 01          	addl   $0x1,-0x10(%rbp)
   15a97:	83 7d f0 06          	cmpl   $0x6,-0x10(%rbp)
   15a9b:	0f 8e 45 fc ff ff    	jle    156e6 <main+0x565>
   15aa1:	c7 45 f0 00 00 00 00 	movl   $0x0,-0x10(%rbp)
   15aa8:	eb 4f                	jmp    15af9 <main+0x978>
   15aaa:	8b 45 f0             	mov    -0x10(%rbp),%eax
   15aad:	48 98                	cltq   
   15aaf:	48 8d 14 c5 00 00 00 	lea    0x0(,%rax,8),%rdx
   15ab6:	00 
   15ab7:	48 8d 05 72 a9 00 00 	lea    0xa972(%rip),%rax        # 20430 <g_251>
   15abe:	48 8b 04 02          	mov    (%rdx,%rax,1),%rax
   15ac2:	48 89 c1             	mov    %rax,%rcx
   15ac5:	8b 45 fc             	mov    -0x4(%rbp),%eax
   15ac8:	89 c2                	mov    %eax,%edx
   15aca:	48 8d 35 68 64 00 00 	lea    0x6468(%rip),%rsi        # 1bf39 <g_1979+0x19d5>
   15ad1:	48 89 cf             	mov    %rcx,%rdi
   15ad4:	e8 1a 5c ff ff       	callq  b6f3 <transparent_crc>
   15ad9:	83 7d fc 00          	cmpl   $0x0,-0x4(%rbp)
   15add:	74 16                	je     15af5 <main+0x974>
   15adf:	8b 45 f0             	mov    -0x10(%rbp),%eax
   15ae2:	89 c6                	mov    %eax,%esi
   15ae4:	48 8d 3d a1 62 00 00 	lea    0x62a1(%rip),%rdi        # 1bd8c <g_1979+0x1828>
   15aeb:	b8 00 00 00 00       	mov    $0x0,%eax
   15af0:	e8 8b 45 ff ff       	callq  a080 <printf@plt>
   15af5:	83 45 f0 01          	addl   $0x1,-0x10(%rbp)
   15af9:	83 7d f0 02          	cmpl   $0x2,-0x10(%rbp)
   15afd:	7e ab                	jle    15aaa <main+0x929>
   15aff:	c7 45 f0 00 00 00 00 	movl   $0x0,-0x10(%rbp)
   15b06:	e9 eb 02 00 00       	jmpq   15df6 <main+0xc75>
   15b0b:	c7 45 f4 00 00 00 00 	movl   $0x0,-0xc(%rbp)
   15b12:	e9 d1 02 00 00       	jmpq   15de8 <main+0xc67>
   15b17:	c7 45 f8 00 00 00 00 	movl   $0x0,-0x8(%rbp)
   15b1e:	e9 b7 02 00 00       	jmpq   15dda <main+0xc59>
   15b23:	8b 45 f8             	mov    -0x8(%rbp),%eax
   15b26:	48 63 d0             	movslq %eax,%rdx
   15b29:	8b 45 f4             	mov    -0xc(%rbp),%eax
   15b2c:	48 63 f0             	movslq %eax,%rsi
   15b2f:	8b 45 f0             	mov    -0x10(%rbp),%eax
   15b32:	48 63 c8             	movslq %eax,%rcx
   15b35:	48 89 d0             	mov    %rdx,%rax
   15b38:	48 c1 e0 03          	shl    $0x3,%rax
   15b3c:	48 01 d0             	add    %rdx,%rax
   15b3f:	48 01 c0             	add    %rax,%rax
   15b42:	48 69 d6 b4 00 00 00 	imul   $0xb4,%rsi,%rdx
   15b49:	48 01 c2             	add    %rax,%rdx
   15b4c:	48 69 c1 a0 05 00 00 	imul   $0x5a0,%rcx,%rax
   15b53:	48 01 c2             	add    %rax,%rdx
   15b56:	48 8d 05 03 a9 00 00 	lea    0xa903(%rip),%rax        # 20460 <g_252>
   15b5d:	48 01 d0             	add    %rdx,%rax
   15b60:	0f b7 10             	movzwl (%rax),%edx
   15b63:	0f b7 40 02          	movzwl 0x2(%rax),%eax
   15b67:	25 ff 7f 00 00       	and    $0x7fff,%eax
   15b6c:	48 c1 e0 10          	shl    $0x10,%rax
   15b70:	48 09 d0             	or     %rdx,%rax
   15b73:	89 c1                	mov    %eax,%ecx
   15b75:	8b 45 fc             	mov    -0x4(%rbp),%eax
   15b78:	89 c2                	mov    %eax,%edx
   15b7a:	48 8d 35 c1 63 00 00 	lea    0x63c1(%rip),%rsi        # 1bf42 <g_1979+0x19de>
   15b81:	48 89 cf             	mov    %rcx,%rdi
   15b84:	e8 6a 5b ff ff       	callq  b6f3 <transparent_crc>
   15b89:	8b 45 f8             	mov    -0x8(%rbp),%eax
   15b8c:	48 63 d0             	movslq %eax,%rdx
   15b8f:	8b 45 f4             	mov    -0xc(%rbp),%eax
   15b92:	48 63 f0             	movslq %eax,%rsi
   15b95:	8b 45 f0             	mov    -0x10(%rbp),%eax
   15b98:	48 63 c8             	movslq %eax,%rcx
   15b9b:	48 89 d0             	mov    %rdx,%rax
   15b9e:	48 c1 e0 03          	shl    $0x3,%rax
   15ba2:	48 01 d0             	add    %rdx,%rax
   15ba5:	48 01 c0             	add    %rax,%rax
   15ba8:	48 69 d6 b4 00 00 00 	imul   $0xb4,%rsi,%rdx
   15baf:	48 01 c2             	add    %rax,%rdx
   15bb2:	48 69 c1 a0 05 00 00 	imul   $0x5a0,%rcx,%rax
   15bb9:	48 01 c2             	add    %rax,%rdx
   15bbc:	48 8d 05 9d a8 00 00 	lea    0xa89d(%rip),%rax        # 20460 <g_252>
   15bc3:	48 01 d0             	add    %rdx,%rax
   15bc6:	0f b6 50 03          	movzbl 0x3(%rax),%edx
   15bca:	c0 ea 07             	shr    $0x7,%dl
   15bcd:	0f b6 d2             	movzbl %dl,%edx
   15bd0:	0f b7 48 04          	movzwl 0x4(%rax),%ecx
   15bd4:	48 01 c9             	add    %rcx,%rcx
   15bd7:	48 09 ca             	or     %rcx,%rdx
   15bda:	0f b6 40 06          	movzbl 0x6(%rax),%eax
   15bde:	83 e0 7f             	and    $0x7f,%eax
   15be1:	48 c1 e0 11          	shl    $0x11,%rax
   15be5:	48 09 d0             	or     %rdx,%rax
   15be8:	48 c1 e0 28          	shl    $0x28,%rax
   15bec:	48 c1 f8 28          	sar    $0x28,%rax
   15bf0:	48 98                	cltq   
   15bf2:	8b 55 fc             	mov    -0x4(%rbp),%edx
   15bf5:	48 8d 35 58 63 00 00 	lea    0x6358(%rip),%rsi        # 1bf54 <g_1979+0x19f0>
   15bfc:	48 89 c7             	mov    %rax,%rdi
   15bff:	e8 ef 5a ff ff       	callq  b6f3 <transparent_crc>
   15c04:	8b 45 f8             	mov    -0x8(%rbp),%eax
   15c07:	48 63 d0             	movslq %eax,%rdx
   15c0a:	8b 45 f4             	mov    -0xc(%rbp),%eax
   15c0d:	48 63 f0             	movslq %eax,%rsi
   15c10:	8b 45 f0             	mov    -0x10(%rbp),%eax
   15c13:	48 63 c8             	movslq %eax,%rcx
   15c16:	48 89 d0             	mov    %rdx,%rax
   15c19:	48 c1 e0 03          	shl    $0x3,%rax
   15c1d:	48 01 d0             	add    %rdx,%rax
   15c20:	48 01 c0             	add    %rax,%rax
   15c23:	48 69 d6 b4 00 00 00 	imul   $0xb4,%rsi,%rdx
   15c2a:	48 01 c2             	add    %rax,%rdx
   15c2d:	48 69 c1 a0 05 00 00 	imul   $0x5a0,%rcx,%rax
   15c34:	48 01 c2             	add    %rax,%rdx
   15c37:	48 8d 05 22 a8 00 00 	lea    0xa822(%rip),%rax        # 20460 <g_252>
   15c3e:	48 01 d0             	add    %rdx,%rax
   15c41:	0f b7 50 06          	movzwl 0x6(%rax),%edx
   15c45:	66 c1 ea 07          	shr    $0x7,%dx
   15c49:	0f b7 d2             	movzwl %dx,%edx
   15c4c:	0f b7 48 08          	movzwl 0x8(%rax),%ecx
   15c50:	0f b7 c9             	movzwl %cx,%ecx
   15c53:	48 c1 e1 09          	shl    $0x9,%rcx
   15c57:	48 09 ca             	or     %rcx,%rdx
   15c5a:	0f b7 40 0a          	movzwl 0xa(%rax),%eax
   15c5e:	0f b7 c0             	movzwl %ax,%eax
   15c61:	83 e0 01             	and    $0x1,%eax
   15c64:	48 c1 e0 19          	shl    $0x19,%rax
   15c68:	48 09 d0             	or     %rdx,%rax
   15c6b:	48 c1 e0 26          	shl    $0x26,%rax
   15c6f:	48 c1 f8 26          	sar    $0x26,%rax
   15c73:	48 98                	cltq   
   15c75:	8b 55 fc             	mov    -0x4(%rbp),%edx
   15c78:	48 8d 35 e7 62 00 00 	lea    0x62e7(%rip),%rsi        # 1bf66 <g_1979+0x1a02>
   15c7f:	48 89 c7             	mov    %rax,%rdi
   15c82:	e8 6c 5a ff ff       	callq  b6f3 <transparent_crc>
   15c87:	8b 45 f8             	mov    -0x8(%rbp),%eax
   15c8a:	48 63 d0             	movslq %eax,%rdx
   15c8d:	8b 45 f4             	mov    -0xc(%rbp),%eax
   15c90:	48 63 f0             	movslq %eax,%rsi
   15c93:	8b 45 f0             	mov    -0x10(%rbp),%eax
   15c96:	48 63 c8             	movslq %eax,%rcx
   15c99:	48 89 d0             	mov    %rdx,%rax
   15c9c:	48 c1 e0 03          	shl    $0x3,%rax
   15ca0:	48 01 d0             	add    %rdx,%rax
   15ca3:	48 01 c0             	add    %rax,%rax
   15ca6:	48 69 d6 b4 00 00 00 	imul   $0xb4,%rsi,%rdx
   15cad:	48 01 c2             	add    %rax,%rdx
   15cb0:	48 69 c1 a0 05 00 00 	imul   $0x5a0,%rcx,%rax
   15cb7:	48 01 c2             	add    %rax,%rdx
   15cba:	48 8d 05 aa a7 00 00 	lea    0xa7aa(%rip),%rax        # 2046b <g_252+0xb>
   15cc1:	48 01 d0             	add    %rdx,%rax
   15cc4:	0f b6 00             	movzbl (%rax),%eax
   15cc7:	0f b6 c0             	movzbl %al,%eax
   15cca:	8b 55 fc             	mov    -0x4(%rbp),%edx
   15ccd:	48 8d 35 a4 62 00 00 	lea    0x62a4(%rip),%rsi        # 1bf78 <g_1979+0x1a14>
   15cd4:	48 89 c7             	mov    %rax,%rdi
   15cd7:	e8 17 5a ff ff       	callq  b6f3 <transparent_crc>
   15cdc:	8b 45 f8             	mov    -0x8(%rbp),%eax
   15cdf:	48 63 d0             	movslq %eax,%rdx
   15ce2:	8b 45 f4             	mov    -0xc(%rbp),%eax
   15ce5:	48 63 f0             	movslq %eax,%rsi
   15ce8:	8b 45 f0             	mov    -0x10(%rbp),%eax
   15ceb:	48 63 c8             	movslq %eax,%rcx
   15cee:	48 89 d0             	mov    %rdx,%rax
   15cf1:	48 c1 e0 03          	shl    $0x3,%rax
   15cf5:	48 01 d0             	add    %rdx,%rax
   15cf8:	48 01 c0             	add    %rax,%rax
   15cfb:	48 69 d6 b4 00 00 00 	imul   $0xb4,%rsi,%rdx
   15d02:	48 01 c2             	add    %rax,%rdx
   15d05:	48 69 c1 a0 05 00 00 	imul   $0x5a0,%rcx,%rax
   15d0c:	48 01 c2             	add    %rax,%rdx
   15d0f:	48 8d 05 4a a7 00 00 	lea    0xa74a(%rip),%rax        # 20460 <g_252>
   15d16:	48 01 d0             	add    %rdx,%rax
   15d19:	0f b7 50 0c          	movzwl 0xc(%rax),%edx
   15d1d:	0f b7 40 0e          	movzwl 0xe(%rax),%eax
   15d21:	25 ff 7f 00 00       	and    $0x7fff,%eax
   15d26:	48 c1 e0 10          	shl    $0x10,%rax
   15d2a:	48 09 d0             	or     %rdx,%rax
   15d2d:	48 c1 e0 21          	shl    $0x21,%rax
   15d31:	48 c1 f8 21          	sar    $0x21,%rax
   15d35:	48 98                	cltq   
   15d37:	8b 55 fc             	mov    -0x4(%rbp),%edx
   15d3a:	48 8d 35 49 62 00 00 	lea    0x6249(%rip),%rsi        # 1bf8a <g_1979+0x1a26>
   15d41:	48 89 c7             	mov    %rax,%rdi
   15d44:	e8 aa 59 ff ff       	callq  b6f3 <transparent_crc>
   15d49:	8b 45 f8             	mov    -0x8(%rbp),%eax
   15d4c:	48 63 d0             	movslq %eax,%rdx
   15d4f:	8b 45 f4             	mov    -0xc(%rbp),%eax
   15d52:	48 63 f0             	movslq %eax,%rsi
   15d55:	8b 45 f0             	mov    -0x10(%rbp),%eax
   15d58:	48 63 c8             	movslq %eax,%rcx
   15d5b:	48 89 d0             	mov    %rdx,%rax
   15d5e:	48 c1 e0 03          	shl    $0x3,%rax
   15d62:	48 01 d0             	add    %rdx,%rax
   15d65:	48 01 c0             	add    %rax,%rax
   15d68:	48 69 d6 b4 00 00 00 	imul   $0xb4,%rsi,%rdx
   15d6f:	48 01 c2             	add    %rax,%rdx
   15d72:	48 69 c1 a0 05 00 00 	imul   $0x5a0,%rcx,%rax
   15d79:	48 01 c2             	add    %rax,%rdx
   15d7c:	48 8d 05 dd a6 00 00 	lea    0xa6dd(%rip),%rax        # 20460 <g_252>
   15d83:	48 01 d0             	add    %rdx,%rax
   15d86:	0f b6 50 0f          	movzbl 0xf(%rax),%edx
   15d8a:	c0 ea 07             	shr    $0x7,%dl
   15d8d:	0f b6 d2             	movzbl %dl,%edx
   15d90:	0f b7 40 10          	movzwl 0x10(%rax),%eax
   15d94:	25 ff 3f 00 00       	and    $0x3fff,%eax
   15d99:	48 01 c0             	add    %rax,%rax
   15d9c:	48 09 d0             	or     %rdx,%rax
   15d9f:	0f b7 c0             	movzwl %ax,%eax
   15da2:	8b 55 fc             	mov    -0x4(%rbp),%edx
   15da5:	48 8d 35 f0 61 00 00 	lea    0x61f0(%rip),%rsi        # 1bf9c <g_1979+0x1a38>
   15dac:	48 89 c7             	mov    %rax,%rdi
   15daf:	e8 3f 59 ff ff       	callq  b6f3 <transparent_crc>
   15db4:	83 7d fc 00          	cmpl   $0x0,-0x4(%rbp)
   15db8:	74 1c                	je     15dd6 <main+0xc55>
   15dba:	8b 4d f8             	mov    -0x8(%rbp),%ecx
   15dbd:	8b 55 f4             	mov    -0xc(%rbp),%edx
   15dc0:	8b 45 f0             	mov    -0x10(%rbp),%eax
   15dc3:	89 c6                	mov    %eax,%esi
   15dc5:	48 8d 3d f5 5f 00 00 	lea    0x5ff5(%rip),%rdi        # 1bdc1 <g_1979+0x185d>
   15dcc:	b8 00 00 00 00       	mov    $0x0,%eax
   15dd1:	e8 aa 42 ff ff       	callq  a080 <printf@plt>
   15dd6:	83 45 f8 01          	addl   $0x1,-0x8(%rbp)
   15dda:	83 7d f8 09          	cmpl   $0x9,-0x8(%rbp)
   15dde:	0f 8e 3f fd ff ff    	jle    15b23 <main+0x9a2>
   15de4:	83 45 f4 01          	addl   $0x1,-0xc(%rbp)
   15de8:	83 7d f4 07          	cmpl   $0x7,-0xc(%rbp)
   15dec:	0f 8e 25 fd ff ff    	jle    15b17 <main+0x996>
   15df2:	83 45 f0 01          	addl   $0x1,-0x10(%rbp)
   15df6:	83 7d f0 02          	cmpl   $0x2,-0x10(%rbp)
   15dfa:	0f 8e 0b fd ff ff    	jle    15b0b <main+0x98a>
   15e00:	c7 45 f0 00 00 00 00 	movl   $0x0,-0x10(%rbp)
   15e07:	eb 46                	jmp    15e4f <main+0xcce>
   15e09:	8b 45 f0             	mov    -0x10(%rbp),%eax
   15e0c:	48 98                	cltq   
   15e0e:	48 8d 15 2b b7 00 00 	lea    0xb72b(%rip),%rdx        # 21540 <g_259>
   15e15:	0f b6 04 10          	movzbl (%rax,%rdx,1),%eax
   15e19:	48 0f be c0          	movsbq %al,%rax
   15e1d:	8b 55 fc             	mov    -0x4(%rbp),%edx
   15e20:	48 8d 35 87 61 00 00 	lea    0x6187(%rip),%rsi        # 1bfae <g_1979+0x1a4a>
   15e27:	48 89 c7             	mov    %rax,%rdi
   15e2a:	e8 c4 58 ff ff       	callq  b6f3 <transparent_crc>
   15e2f:	83 7d fc 00          	cmpl   $0x0,-0x4(%rbp)
   15e33:	74 16                	je     15e4b <main+0xcca>
   15e35:	8b 45 f0             	mov    -0x10(%rbp),%eax
   15e38:	89 c6                	mov    %eax,%esi
   15e3a:	48 8d 3d 4b 5f 00 00 	lea    0x5f4b(%rip),%rdi        # 1bd8c <g_1979+0x1828>
   15e41:	b8 00 00 00 00       	mov    $0x0,%eax
   15e46:	e8 35 42 ff ff       	callq  a080 <printf@plt>
   15e4b:	83 45 f0 01          	addl   $0x1,-0x10(%rbp)
   15e4f:	83 7d f0 08          	cmpl   $0x8,-0x10(%rbp)
   15e53:	7e b4                	jle    15e09 <main+0xc88>
   15e55:	8b 05 f5 b6 00 00    	mov    0xb6f5(%rip),%eax        # 21550 <g_264>
   15e5b:	25 ff ff ff 7f       	and    $0x7fffffff,%eax
   15e60:	89 c1                	mov    %eax,%ecx
   15e62:	8b 45 fc             	mov    -0x4(%rbp),%eax
   15e65:	89 c2                	mov    %eax,%edx
   15e67:	48 8d 35 49 61 00 00 	lea    0x6149(%rip),%rsi        # 1bfb7 <g_1979+0x1a53>
   15e6e:	48 89 cf             	mov    %rcx,%rdi
   15e71:	e8 7d 58 ff ff       	callq  b6f3 <transparent_crc>
   15e76:	48 8b 05 d3 b6 00 00 	mov    0xb6d3(%rip),%rax        # 21550 <g_264>
   15e7d:	48 c1 e0 09          	shl    $0x9,%rax
   15e81:	48 c1 f8 28          	sar    $0x28,%rax
   15e85:	48 98                	cltq   
   15e87:	8b 55 fc             	mov    -0x4(%rbp),%edx
   15e8a:	48 8d 35 2f 61 00 00 	lea    0x612f(%rip),%rsi        # 1bfc0 <g_1979+0x1a5c>
   15e91:	48 89 c7             	mov    %rax,%rdi
   15e94:	e8 5a 58 ff ff       	callq  b6f3 <transparent_crc>
   15e99:	48 8b 05 b0 b6 00 00 	mov    0xb6b0(%rip),%rax        # 21550 <g_264>
   15ea0:	48 c1 e8 37          	shr    $0x37,%rax
   15ea4:	48 89 c2             	mov    %rax,%rdx
   15ea7:	48 8b 05 aa b6 00 00 	mov    0xb6aa(%rip),%rax        # 21558 <g_264+0x8>
   15eae:	25 ff ff 01 00       	and    $0x1ffff,%eax
   15eb3:	48 c1 e0 09          	shl    $0x9,%rax
   15eb7:	48 09 d0             	or     %rdx,%rax
   15eba:	48 c1 e0 26          	shl    $0x26,%rax
   15ebe:	48 c1 f8 26          	sar    $0x26,%rax
   15ec2:	48 98                	cltq   
   15ec4:	8b 55 fc             	mov    -0x4(%rbp),%edx
   15ec7:	48 8d 35 fb 60 00 00 	lea    0x60fb(%rip),%rsi        # 1bfc9 <g_1979+0x1a65>
   15ece:	48 89 c7             	mov    %rax,%rdi
   15ed1:	e8 1d 58 ff ff       	callq  b6f3 <transparent_crc>
   15ed6:	0f b6 05 7e b6 00 00 	movzbl 0xb67e(%rip),%eax        # 2155b <g_264+0xb>
   15edd:	0f b6 c0             	movzbl %al,%eax
   15ee0:	8b 55 fc             	mov    -0x4(%rbp),%edx
   15ee3:	48 8d 35 e8 60 00 00 	lea    0x60e8(%rip),%rsi        # 1bfd2 <g_1979+0x1a6e>
   15eea:	48 89 c7             	mov    %rax,%rdi
   15eed:	e8 01 58 ff ff       	callq  b6f3 <transparent_crc>
   15ef2:	8b 05 64 b6 00 00    	mov    0xb664(%rip),%eax        # 2155c <g_264+0xc>
   15ef8:	01 c0                	add    %eax,%eax
   15efa:	d1 f8                	sar    %eax
   15efc:	48 98                	cltq   
   15efe:	8b 55 fc             	mov    -0x4(%rbp),%edx
   15f01:	48 8d 35 d3 60 00 00 	lea    0x60d3(%rip),%rsi        # 1bfdb <g_1979+0x1a77>
   15f08:	48 89 c7             	mov    %rax,%rdi
   15f0b:	e8 e3 57 ff ff       	callq  b6f3 <transparent_crc>
   15f10:	0f b6 05 48 b6 00 00 	movzbl 0xb648(%rip),%eax        # 2155f <g_264+0xf>
   15f17:	c0 e8 07             	shr    $0x7,%al
   15f1a:	0f b6 c0             	movzbl %al,%eax
   15f1d:	0f b7 15 3c b6 00 00 	movzwl 0xb63c(%rip),%edx        # 21560 <g_264+0x10>
   15f24:	81 e2 ff 3f 00 00    	and    $0x3fff,%edx
   15f2a:	48 01 d2             	add    %rdx,%rdx
   15f2d:	48 09 d0             	or     %rdx,%rax
   15f30:	0f b7 c0             	movzwl %ax,%eax
   15f33:	8b 55 fc             	mov    -0x4(%rbp),%edx
   15f36:	48 8d 35 a7 60 00 00 	lea    0x60a7(%rip),%rsi        # 1bfe4 <g_1979+0x1a80>
   15f3d:	48 89 c7             	mov    %rax,%rdi
   15f40:	e8 ae 57 ff ff       	callq  b6f3 <transparent_crc>
   15f45:	8b 05 19 b6 00 00    	mov    0xb619(%rip),%eax        # 21564 <g_291>
   15f4b:	48 98                	cltq   
   15f4d:	8b 55 fc             	mov    -0x4(%rbp),%edx
   15f50:	48 8d 35 96 60 00 00 	lea    0x6096(%rip),%rsi        # 1bfed <g_1979+0x1a89>
   15f57:	48 89 c7             	mov    %rax,%rdi
   15f5a:	e8 94 57 ff ff       	callq  b6f3 <transparent_crc>
   15f5f:	48 8b 05 0a b6 00 00 	mov    0xb60a(%rip),%rax        # 21570 <g_293>
   15f66:	25 ff ff ff 7f       	and    $0x7fffffff,%eax
   15f6b:	89 c1                	mov    %eax,%ecx
   15f6d:	8b 45 fc             	mov    -0x4(%rbp),%eax
   15f70:	89 c2                	mov    %eax,%edx
   15f72:	48 8d 35 7d 60 00 00 	lea    0x607d(%rip),%rsi        # 1bff6 <g_1979+0x1a92>
   15f79:	48 89 cf             	mov    %rcx,%rdi
   15f7c:	e8 72 57 ff ff       	callq  b6f3 <transparent_crc>
   15f81:	48 8b 05 e8 b5 00 00 	mov    0xb5e8(%rip),%rax        # 21570 <g_293>
   15f88:	48 c1 e0 09          	shl    $0x9,%rax
   15f8c:	48 c1 f8 28          	sar    $0x28,%rax
   15f90:	48 98                	cltq   
   15f92:	8b 55 fc             	mov    -0x4(%rbp),%edx
   15f95:	48 8d 35 63 60 00 00 	lea    0x6063(%rip),%rsi        # 1bfff <g_1979+0x1a9b>
   15f9c:	48 89 c7             	mov    %rax,%rdi
   15f9f:	e8 4f 57 ff ff       	callq  b6f3 <transparent_crc>
   15fa4:	48 8b 05 c5 b5 00 00 	mov    0xb5c5(%rip),%rax        # 21570 <g_293>
   15fab:	48 c1 e8 37          	shr    $0x37,%rax
   15faf:	48 89 c2             	mov    %rax,%rdx
   15fb2:	48 8b 05 bf b5 00 00 	mov    0xb5bf(%rip),%rax        # 21578 <g_293+0x8>
   15fb9:	25 ff ff 01 00       	and    $0x1ffff,%eax
   15fbe:	48 c1 e0 09          	shl    $0x9,%rax
   15fc2:	48 09 d0             	or     %rdx,%rax
   15fc5:	48 c1 e0 26          	shl    $0x26,%rax
   15fc9:	48 c1 f8 26          	sar    $0x26,%rax
   15fcd:	48 98                	cltq   
   15fcf:	8b 55 fc             	mov    -0x4(%rbp),%edx
   15fd2:	48 8d 35 2f 60 00 00 	lea    0x602f(%rip),%rsi        # 1c008 <g_1979+0x1aa4>
   15fd9:	48 89 c7             	mov    %rax,%rdi
   15fdc:	e8 12 57 ff ff       	callq  b6f3 <transparent_crc>
   15fe1:	0f b6 05 93 b5 00 00 	movzbl 0xb593(%rip),%eax        # 2157b <g_293+0xb>
   15fe8:	0f b6 c0             	movzbl %al,%eax
   15feb:	8b 55 fc             	mov    -0x4(%rbp),%edx
   15fee:	48 8d 35 1c 60 00 00 	lea    0x601c(%rip),%rsi        # 1c011 <g_1979+0x1aad>
   15ff5:	48 89 c7             	mov    %rax,%rdi
   15ff8:	e8 f6 56 ff ff       	callq  b6f3 <transparent_crc>
   15ffd:	48 8b 05 74 b5 00 00 	mov    0xb574(%rip),%rax        # 21578 <g_293+0x8>
   16004:	48 01 c0             	add    %rax,%rax
   16007:	48 c1 f8 21          	sar    $0x21,%rax
   1600b:	48 98                	cltq   
   1600d:	8b 55 fc             	mov    -0x4(%rbp),%edx
   16010:	48 8d 35 03 60 00 00 	lea    0x6003(%rip),%rsi        # 1c01a <g_1979+0x1ab6>
   16017:	48 89 c7             	mov    %rax,%rdi
   1601a:	e8 d4 56 ff ff       	callq  b6f3 <transparent_crc>
   1601f:	48 8b 05 52 b5 00 00 	mov    0xb552(%rip),%rax        # 21578 <g_293+0x8>
   16026:	48 c1 e8 3f          	shr    $0x3f,%rax
   1602a:	48 89 c2             	mov    %rax,%rdx
   1602d:	48 8b 05 4c b5 00 00 	mov    0xb54c(%rip),%rax        # 21580 <g_293+0x10>
   16034:	25 ff 3f 00 00       	and    $0x3fff,%eax
   16039:	48 01 c0             	add    %rax,%rax
   1603c:	48 09 d0             	or     %rdx,%rax
   1603f:	0f b7 c0             	movzwl %ax,%eax
   16042:	8b 55 fc             	mov    -0x4(%rbp),%edx
   16045:	48 8d 35 d7 5f 00 00 	lea    0x5fd7(%rip),%rsi        # 1c023 <g_1979+0x1abf>
   1604c:	48 89 c7             	mov    %rax,%rdi
   1604f:	e8 9f 56 ff ff       	callq  b6f3 <transparent_crc>
   16054:	48 8b 05 2d b5 00 00 	mov    0xb52d(%rip),%rax        # 21588 <g_294>
   1605b:	8b 55 fc             	mov    -0x4(%rbp),%edx
   1605e:	48 8d 35 c7 5f 00 00 	lea    0x5fc7(%rip),%rsi        # 1c02c <g_1979+0x1ac8>
   16065:	48 89 c7             	mov    %rax,%rdi
   16068:	e8 86 56 ff ff       	callq  b6f3 <transparent_crc>
   1606d:	48 8b 05 1c b5 00 00 	mov    0xb51c(%rip),%rax        # 21590 <g_296>
   16074:	66 25 ff 7f          	and    $0x7fff,%ax
   16078:	0f b7 c0             	movzwl %ax,%eax
   1607b:	8b 55 fc             	mov    -0x4(%rbp),%edx
   1607e:	48 8d 35 ad 5f 00 00 	lea    0x5fad(%rip),%rsi        # 1c032 <g_1979+0x1ace>
   16085:	48 89 c7             	mov    %rax,%rdi
   16088:	e8 66 56 ff ff       	callq  b6f3 <transparent_crc>
   1608d:	8b 05 fd b4 00 00    	mov    0xb4fd(%rip),%eax        # 21590 <g_296>
   16093:	c1 e8 0f             	shr    $0xf,%eax
   16096:	66 25 ff 03          	and    $0x3ff,%ax
   1609a:	0f b7 c0             	movzwl %ax,%eax
   1609d:	8b 55 fc             	mov    -0x4(%rbp),%edx
   160a0:	48 8d 35 94 5f 00 00 	lea    0x5f94(%rip),%rsi        # 1c03b <g_1979+0x1ad7>
   160a7:	48 89 c7             	mov    %rax,%rdi
   160aa:	e8 44 56 ff ff       	callq  b6f3 <transparent_crc>
   160af:	8b 05 df b4 00 00    	mov    0xb4df(%rip),%eax        # 21594 <g_296+0x4>
   160b5:	c1 e0 09             	shl    $0x9,%eax
   160b8:	c1 f8 09             	sar    $0x9,%eax
   160bb:	48 98                	cltq   
   160bd:	8b 55 fc             	mov    -0x4(%rbp),%edx
   160c0:	48 8d 35 7d 5f 00 00 	lea    0x5f7d(%rip),%rsi        # 1c044 <g_1979+0x1ae0>
   160c7:	48 89 c7             	mov    %rax,%rdi
   160ca:	e8 24 56 ff ff       	callq  b6f3 <transparent_crc>
   160cf:	48 8b 05 c2 b4 00 00 	mov    0xb4c2(%rip),%rax        # 21598 <g_296+0x8>
   160d6:	c1 e0 06             	shl    $0x6,%eax
   160d9:	66 c1 f8 06          	sar    $0x6,%ax
   160dd:	48 0f bf c0          	movswq %ax,%rax
   160e1:	8b 55 fc             	mov    -0x4(%rbp),%edx
   160e4:	48 8d 35 62 5f 00 00 	lea    0x5f62(%rip),%rsi        # 1c04d <g_1979+0x1ae9>
   160eb:	48 89 c7             	mov    %rax,%rdi
   160ee:	e8 00 56 ff ff       	callq  b6f3 <transparent_crc>
   160f3:	8b 05 9f b4 00 00    	mov    0xb49f(%rip),%eax        # 21598 <g_296+0x8>
   160f9:	c1 e8 0a             	shr    $0xa,%eax
   160fc:	66 25 ff 1f          	and    $0x1fff,%ax
   16100:	0f b7 c0             	movzwl %ax,%eax
   16103:	8b 55 fc             	mov    -0x4(%rbp),%edx
   16106:	48 8d 35 49 5f 00 00 	lea    0x5f49(%rip),%rsi        # 1c056 <g_1979+0x1af2>
   1610d:	48 89 c7             	mov    %rax,%rdi
   16110:	e8 de 55 ff ff       	callq  b6f3 <transparent_crc>
   16115:	8b 05 81 b4 00 00    	mov    0xb481(%rip),%eax        # 2159c <g_296+0xc>
   1611b:	89 c1                	mov    %eax,%ecx
   1611d:	8b 45 fc             	mov    -0x4(%rbp),%eax
   16120:	89 c2                	mov    %eax,%edx
   16122:	48 8d 35 36 5f 00 00 	lea    0x5f36(%rip),%rsi        # 1c05f <g_1979+0x1afb>
   16129:	48 89 cf             	mov    %rcx,%rdi
   1612c:	e8 c2 55 ff ff       	callq  b6f3 <transparent_crc>
   16131:	8b 05 69 b4 00 00    	mov    0xb469(%rip),%eax        # 215a0 <g_296+0x10>
   16137:	25 ff ff 3f 00       	and    $0x3fffff,%eax
   1613c:	89 c1                	mov    %eax,%ecx
   1613e:	8b 45 fc             	mov    -0x4(%rbp),%eax
   16141:	89 c2                	mov    %eax,%edx
   16143:	48 8d 35 1e 5f 00 00 	lea    0x5f1e(%rip),%rsi        # 1c068 <g_1979+0x1b04>
   1614a:	48 89 cf             	mov    %rcx,%rdi
   1614d:	e8 a1 55 ff ff       	callq  b6f3 <transparent_crc>
   16152:	0f b7 05 49 b4 00 00 	movzwl 0xb449(%rip),%eax        # 215a2 <g_296+0x12>
   16159:	66 c1 f8 06          	sar    $0x6,%ax
   1615d:	48 0f bf c0          	movswq %ax,%rax
   16161:	8b 55 fc             	mov    -0x4(%rbp),%edx
   16164:	48 8d 35 06 5f 00 00 	lea    0x5f06(%rip),%rsi        # 1c071 <g_1979+0x1b0d>
   1616b:	48 89 c7             	mov    %rax,%rdi
   1616e:	e8 80 55 ff ff       	callq  b6f3 <transparent_crc>
   16173:	0f b6 05 2a b4 00 00 	movzbl 0xb42a(%rip),%eax        # 215a4 <g_296+0x14>
   1617a:	c1 e0 06             	shl    $0x6,%eax
   1617d:	c0 f8 06             	sar    $0x6,%al
   16180:	48 0f be c0          	movsbq %al,%rax
   16184:	8b 55 fc             	mov    -0x4(%rbp),%edx
   16187:	48 8d 35 ec 5e 00 00 	lea    0x5eec(%rip),%rsi        # 1c07a <g_1979+0x1b16>
   1618e:	48 89 c7             	mov    %rax,%rdi
   16191:	e8 5d 55 ff ff       	callq  b6f3 <transparent_crc>
   16196:	8b 05 0c b4 00 00    	mov    0xb40c(%rip),%eax        # 215a8 <g_296+0x18>
   1619c:	25 ff ff ff 7f       	and    $0x7fffffff,%eax
   161a1:	89 c1                	mov    %eax,%ecx
   161a3:	8b 45 fc             	mov    -0x4(%rbp),%eax
   161a6:	89 c2                	mov    %eax,%edx
   161a8:	48 8d 35 d4 5e 00 00 	lea    0x5ed4(%rip),%rsi        # 1c083 <g_1979+0x1b1f>
   161af:	48 89 cf             	mov    %rcx,%rdi
   161b2:	e8 3c 55 ff ff       	callq  b6f3 <transparent_crc>
   161b7:	48 8b 05 f2 b3 00 00 	mov    0xb3f2(%rip),%rax        # 215b0 <g_298>
   161be:	66 25 ff 7f          	and    $0x7fff,%ax
   161c2:	0f b7 c0             	movzwl %ax,%eax
   161c5:	8b 55 fc             	mov    -0x4(%rbp),%edx
   161c8:	48 8d 35 bd 5e 00 00 	lea    0x5ebd(%rip),%rsi        # 1c08c <g_1979+0x1b28>
   161cf:	48 89 c7             	mov    %rax,%rdi
   161d2:	e8 1c 55 ff ff       	callq  b6f3 <transparent_crc>
   161d7:	8b 05 d3 b3 00 00    	mov    0xb3d3(%rip),%eax        # 215b0 <g_298>
   161dd:	c1 e8 0f             	shr    $0xf,%eax
   161e0:	66 25 ff 03          	and    $0x3ff,%ax
   161e4:	0f b7 c0             	movzwl %ax,%eax
   161e7:	8b 55 fc             	mov    -0x4(%rbp),%edx
   161ea:	48 8d 35 a4 5e 00 00 	lea    0x5ea4(%rip),%rsi        # 1c095 <g_1979+0x1b31>
   161f1:	48 89 c7             	mov    %rax,%rdi
   161f4:	e8 fa 54 ff ff       	callq  b6f3 <transparent_crc>
   161f9:	8b 05 b5 b3 00 00    	mov    0xb3b5(%rip),%eax        # 215b4 <g_298+0x4>
   161ff:	c1 e0 09             	shl    $0x9,%eax
   16202:	c1 f8 09             	sar    $0x9,%eax
   16205:	48 98                	cltq   
   16207:	8b 55 fc             	mov    -0x4(%rbp),%edx
   1620a:	48 8d 35 8d 5e 00 00 	lea    0x5e8d(%rip),%rsi        # 1c09e <g_1979+0x1b3a>
   16211:	48 89 c7             	mov    %rax,%rdi
   16214:	e8 da 54 ff ff       	callq  b6f3 <transparent_crc>
   16219:	48 8b 05 98 b3 00 00 	mov    0xb398(%rip),%rax        # 215b8 <g_298+0x8>
   16220:	c1 e0 06             	shl    $0x6,%eax
   16223:	66 c1 f8 06          	sar    $0x6,%ax
   16227:	48 0f bf c0          	movswq %ax,%rax
   1622b:	8b 55 fc             	mov    -0x4(%rbp),%edx
   1622e:	48 8d 35 72 5e 00 00 	lea    0x5e72(%rip),%rsi        # 1c0a7 <g_1979+0x1b43>
   16235:	48 89 c7             	mov    %rax,%rdi
   16238:	e8 b6 54 ff ff       	callq  b6f3 <transparent_crc>
   1623d:	8b 05 75 b3 00 00    	mov    0xb375(%rip),%eax        # 215b8 <g_298+0x8>
   16243:	c1 e8 0a             	shr    $0xa,%eax
   16246:	66 25 ff 1f          	and    $0x1fff,%ax
   1624a:	0f b7 c0             	movzwl %ax,%eax
   1624d:	8b 55 fc             	mov    -0x4(%rbp),%edx
   16250:	48 8d 35 59 5e 00 00 	lea    0x5e59(%rip),%rsi        # 1c0b0 <g_1979+0x1b4c>
   16257:	48 89 c7             	mov    %rax,%rdi
   1625a:	e8 94 54 ff ff       	callq  b6f3 <transparent_crc>
   1625f:	8b 05 57 b3 00 00    	mov    0xb357(%rip),%eax        # 215bc <g_298+0xc>
   16265:	89 c1                	mov    %eax,%ecx
   16267:	8b 45 fc             	mov    -0x4(%rbp),%eax
   1626a:	89 c2                	mov    %eax,%edx
   1626c:	48 8d 35 46 5e 00 00 	lea    0x5e46(%rip),%rsi        # 1c0b9 <g_1979+0x1b55>
   16273:	48 89 cf             	mov    %rcx,%rdi
   16276:	e8 78 54 ff ff       	callq  b6f3 <transparent_crc>
   1627b:	8b 05 3f b3 00 00    	mov    0xb33f(%rip),%eax        # 215c0 <g_298+0x10>
   16281:	25 ff ff 3f 00       	and    $0x3fffff,%eax
   16286:	89 c1                	mov    %eax,%ecx
   16288:	8b 45 fc             	mov    -0x4(%rbp),%eax
   1628b:	89 c2                	mov    %eax,%edx
   1628d:	48 8d 35 2e 5e 00 00 	lea    0x5e2e(%rip),%rsi        # 1c0c2 <g_1979+0x1b5e>
   16294:	48 89 cf             	mov    %rcx,%rdi
   16297:	e8 57 54 ff ff       	callq  b6f3 <transparent_crc>
   1629c:	0f b7 05 1f b3 00 00 	movzwl 0xb31f(%rip),%eax        # 215c2 <g_298+0x12>
   162a3:	66 c1 f8 06          	sar    $0x6,%ax
   162a7:	48 0f bf c0          	movswq %ax,%rax
   162ab:	8b 55 fc             	mov    -0x4(%rbp),%edx
   162ae:	48 8d 35 16 5e 00 00 	lea    0x5e16(%rip),%rsi        # 1c0cb <g_1979+0x1b67>
   162b5:	48 89 c7             	mov    %rax,%rdi
   162b8:	e8 36 54 ff ff       	callq  b6f3 <transparent_crc>
   162bd:	0f b6 05 00 b3 00 00 	movzbl 0xb300(%rip),%eax        # 215c4 <g_298+0x14>
   162c4:	c1 e0 06             	shl    $0x6,%eax
   162c7:	c0 f8 06             	sar    $0x6,%al
   162ca:	48 0f be c0          	movsbq %al,%rax
   162ce:	8b 55 fc             	mov    -0x4(%rbp),%edx
   162d1:	48 8d 35 fc 5d 00 00 	lea    0x5dfc(%rip),%rsi        # 1c0d4 <g_1979+0x1b70>
   162d8:	48 89 c7             	mov    %rax,%rdi
   162db:	e8 13 54 ff ff       	callq  b6f3 <transparent_crc>
   162e0:	8b 05 e2 b2 00 00    	mov    0xb2e2(%rip),%eax        # 215c8 <g_298+0x18>
   162e6:	25 ff ff ff 7f       	and    $0x7fffffff,%eax
   162eb:	89 c1                	mov    %eax,%ecx
   162ed:	8b 45 fc             	mov    -0x4(%rbp),%eax
   162f0:	89 c2                	mov    %eax,%edx
   162f2:	48 8d 35 e4 5d 00 00 	lea    0x5de4(%rip),%rsi        # 1c0dd <g_1979+0x1b79>
   162f9:	48 89 cf             	mov    %rcx,%rdi
   162fc:	e8 f2 53 ff ff       	callq  b6f3 <transparent_crc>
   16301:	b8 ad 3a 81 41       	mov    $0x41813aad,%eax
   16306:	89 c1                	mov    %eax,%ecx
   16308:	8b 45 fc             	mov    -0x4(%rbp),%eax
   1630b:	89 c2                	mov    %eax,%edx
   1630d:	48 8d 35 d2 5d 00 00 	lea    0x5dd2(%rip),%rsi        # 1c0e6 <g_1979+0x1b82>
   16314:	48 89 cf             	mov    %rcx,%rdi
   16317:	e8 d7 53 ff ff       	callq  b6f3 <transparent_crc>
   1631c:	0f b7 05 ad b2 00 00 	movzwl 0xb2ad(%rip),%eax        # 215d0 <g_312>
   16323:	48 0f bf c0          	movswq %ax,%rax
   16327:	8b 55 fc             	mov    -0x4(%rbp),%edx
   1632a:	48 8d 35 bb 5d 00 00 	lea    0x5dbb(%rip),%rsi        # 1c0ec <g_1979+0x1b88>
   16331:	48 89 c7             	mov    %rax,%rdi
   16334:	e8 ba 53 ff ff       	callq  b6f3 <transparent_crc>
   16339:	48 8b 05 90 b2 00 00 	mov    0xb290(%rip),%rax        # 215d0 <g_312>
   16340:	48 01 c0             	add    %rax,%rax
   16343:	48 c1 f8 21          	sar    $0x21,%rax
   16347:	48 98                	cltq   
   16349:	8b 55 fc             	mov    -0x4(%rbp),%edx
   1634c:	48 8d 35 a2 5d 00 00 	lea    0x5da2(%rip),%rsi        # 1c0f5 <g_1979+0x1b91>
   16353:	48 89 c7             	mov    %rax,%rdi
   16356:	e8 98 53 ff ff       	callq  b6f3 <transparent_crc>
   1635b:	48 8b 05 76 b2 00 00 	mov    0xb276(%rip),%rax        # 215d8 <g_312+0x8>
   16362:	c1 e0 04             	shl    $0x4,%eax
   16365:	c1 f8 04             	sar    $0x4,%eax
   16368:	48 98                	cltq   
   1636a:	8b 55 fc             	mov    -0x4(%rbp),%edx
   1636d:	48 8d 35 8a 5d 00 00 	lea    0x5d8a(%rip),%rsi        # 1c0fe <g_1979+0x1b9a>
   16374:	48 89 c7             	mov    %rax,%rdi
   16377:	e8 77 53 ff ff       	callq  b6f3 <transparent_crc>
   1637c:	0f b7 05 59 b2 00 00 	movzwl 0xb259(%rip),%eax        # 215dc <g_312+0xc>
   16383:	48 0f bf c0          	movswq %ax,%rax
   16387:	8b 55 fc             	mov    -0x4(%rbp),%edx
   1638a:	48 8d 35 76 5d 00 00 	lea    0x5d76(%rip),%rsi        # 1c107 <g_1979+0x1ba3>
   16391:	48 89 c7             	mov    %rax,%rdi
   16394:	e8 5a 53 ff ff       	callq  b6f3 <transparent_crc>
   16399:	8b 05 41 b2 00 00    	mov    0xb241(%rip),%eax        # 215e0 <g_335>
   1639f:	89 c1                	mov    %eax,%ecx
   163a1:	8b 45 fc             	mov    -0x4(%rbp),%eax
   163a4:	89 c2                	mov    %eax,%edx
   163a6:	48 8d 35 63 5d 00 00 	lea    0x5d63(%rip),%rsi        # 1c110 <g_1979+0x1bac>
   163ad:	48 89 cf             	mov    %rcx,%rdi
   163b0:	e8 3e 53 ff ff       	callq  b6f3 <transparent_crc>
   163b5:	c7 45 f0 00 00 00 00 	movl   $0x0,-0x10(%rbp)
   163bc:	e9 c0 02 00 00       	jmpq   16681 <main+0x1500>
   163c1:	c7 45 f4 00 00 00 00 	movl   $0x0,-0xc(%rbp)
   163c8:	e9 a6 02 00 00       	jmpq   16673 <main+0x14f2>
   163cd:	c7 45 f8 00 00 00 00 	movl   $0x0,-0x8(%rbp)
   163d4:	e9 8c 02 00 00       	jmpq   16665 <main+0x14e4>
   163d9:	8b 45 f8             	mov    -0x8(%rbp),%eax
   163dc:	48 63 d0             	movslq %eax,%rdx
   163df:	8b 45 f4             	mov    -0xc(%rbp),%eax
   163e2:	48 98                	cltq   
   163e4:	48 01 c2             	add    %rax,%rdx
   163e7:	8b 45 f0             	mov    -0x10(%rbp),%eax
   163ea:	48 63 c8             	movslq %eax,%rcx
   163ed:	48 89 d0             	mov    %rdx,%rax
   163f0:	48 c1 e0 03          	shl    $0x3,%rax
   163f4:	48 01 d0             	add    %rdx,%rax
   163f7:	48 01 c0             	add    %rax,%rax
   163fa:	48 6b d1 5a          	imul   $0x5a,%rcx,%rdx
   163fe:	48 01 c2             	add    %rax,%rdx
   16401:	48 8d 05 f8 b1 00 00 	lea    0xb1f8(%rip),%rax        # 21600 <g_351>
   16408:	48 01 d0             	add    %rdx,%rax
   1640b:	0f b7 10             	movzwl (%rax),%edx
   1640e:	0f b7 d2             	movzwl %dx,%edx
   16411:	0f b7 40 02          	movzwl 0x2(%rax),%eax
   16415:	0f b7 c0             	movzwl %ax,%eax
   16418:	25 ff 7f 00 00       	and    $0x7fff,%eax
   1641d:	48 c1 e0 10          	shl    $0x10,%rax
   16421:	48 09 d0             	or     %rdx,%rax
   16424:	89 c1                	mov    %eax,%ecx
   16426:	8b 45 fc             	mov    -0x4(%rbp),%eax
   16429:	89 c2                	mov    %eax,%edx
   1642b:	48 8d 35 e4 5c 00 00 	lea    0x5ce4(%rip),%rsi        # 1c116 <g_1979+0x1bb2>
   16432:	48 89 cf             	mov    %rcx,%rdi
   16435:	e8 b9 52 ff ff       	callq  b6f3 <transparent_crc>
   1643a:	8b 45 f8             	mov    -0x8(%rbp),%eax
   1643d:	48 63 d0             	movslq %eax,%rdx
   16440:	8b 45 f4             	mov    -0xc(%rbp),%eax
   16443:	48 98                	cltq   
   16445:	48 01 c2             	add    %rax,%rdx
   16448:	8b 45 f0             	mov    -0x10(%rbp),%eax
   1644b:	48 63 c8             	movslq %eax,%rcx
   1644e:	48 89 d0             	mov    %rdx,%rax
   16451:	48 c1 e0 03          	shl    $0x3,%rax
   16455:	48 01 d0             	add    %rdx,%rax
   16458:	48 01 c0             	add    %rax,%rax
   1645b:	48 6b d1 5a          	imul   $0x5a,%rcx,%rdx
   1645f:	48 01 c2             	add    %rax,%rdx
   16462:	48 8d 05 97 b1 00 00 	lea    0xb197(%rip),%rax        # 21600 <g_351>
   16469:	48 01 d0             	add    %rdx,%rax
   1646c:	0f b7 50 02          	movzwl 0x2(%rax),%edx
   16470:	66 c1 ea 0f          	shr    $0xf,%dx
   16474:	0f b7 d2             	movzwl %dx,%edx
   16477:	0f b7 48 04          	movzwl 0x4(%rax),%ecx
   1647b:	0f b7 c9             	movzwl %cx,%ecx
   1647e:	48 01 c9             	add    %rcx,%rcx
   16481:	48 09 ca             	or     %rcx,%rdx
   16484:	0f b7 40 06          	movzwl 0x6(%rax),%eax
   16488:	0f b7 c0             	movzwl %ax,%eax
   1648b:	83 e0 7f             	and    $0x7f,%eax
   1648e:	48 c1 e0 11          	shl    $0x11,%rax
   16492:	48 09 d0             	or     %rdx,%rax
   16495:	48 c1 e0 28          	shl    $0x28,%rax
   16499:	48 c1 f8 28          	sar    $0x28,%rax
   1649d:	48 98                	cltq   
   1649f:	8b 55 fc             	mov    -0x4(%rbp),%edx
   164a2:	48 8d 35 7f 5c 00 00 	lea    0x5c7f(%rip),%rsi        # 1c128 <g_1979+0x1bc4>
   164a9:	48 89 c7             	mov    %rax,%rdi
   164ac:	e8 42 52 ff ff       	callq  b6f3 <transparent_crc>
   164b1:	8b 45 f8             	mov    -0x8(%rbp),%eax
   164b4:	48 63 d0             	movslq %eax,%rdx
   164b7:	8b 45 f4             	mov    -0xc(%rbp),%eax
   164ba:	48 98                	cltq   
   164bc:	48 01 c2             	add    %rax,%rdx
   164bf:	8b 45 f0             	mov    -0x10(%rbp),%eax
   164c2:	48 63 c8             	movslq %eax,%rcx
   164c5:	48 89 d0             	mov    %rdx,%rax
   164c8:	48 c1 e0 03          	shl    $0x3,%rax
   164cc:	48 01 d0             	add    %rdx,%rax
   164cf:	48 01 c0             	add    %rax,%rax
   164d2:	48 6b d1 5a          	imul   $0x5a,%rcx,%rdx
   164d6:	48 01 c2             	add    %rax,%rdx
   164d9:	48 8d 05 20 b1 00 00 	lea    0xb120(%rip),%rax        # 21600 <g_351>
   164e0:	48 01 d0             	add    %rdx,%rax
   164e3:	0f b7 50 06          	movzwl 0x6(%rax),%edx
   164e7:	66 c1 ea 07          	shr    $0x7,%dx
   164eb:	0f b7 d2             	movzwl %dx,%edx
   164ee:	0f b7 48 08          	movzwl 0x8(%rax),%ecx
   164f2:	0f b7 c9             	movzwl %cx,%ecx
   164f5:	48 c1 e1 09          	shl    $0x9,%rcx
   164f9:	48 09 ca             	or     %rcx,%rdx
   164fc:	0f b7 40 0a          	movzwl 0xa(%rax),%eax
   16500:	0f b7 c0             	movzwl %ax,%eax
   16503:	83 e0 01             	and    $0x1,%eax
   16506:	48 c1 e0 19          	shl    $0x19,%rax
   1650a:	48 09 d0             	or     %rdx,%rax
   1650d:	48 c1 e0 26          	shl    $0x26,%rax
   16511:	48 c1 f8 26          	sar    $0x26,%rax
   16515:	48 98                	cltq   
   16517:	8b 55 fc             	mov    -0x4(%rbp),%edx
   1651a:	48 8d 35 19 5c 00 00 	lea    0x5c19(%rip),%rsi        # 1c13a <g_1979+0x1bd6>
   16521:	48 89 c7             	mov    %rax,%rdi
   16524:	e8 ca 51 ff ff       	callq  b6f3 <transparent_crc>
   16529:	8b 45 f8             	mov    -0x8(%rbp),%eax
   1652c:	48 63 d0             	movslq %eax,%rdx
   1652f:	8b 45 f4             	mov    -0xc(%rbp),%eax
   16532:	48 98                	cltq   
   16534:	48 01 c2             	add    %rax,%rdx
   16537:	8b 45 f0             	mov    -0x10(%rbp),%eax
   1653a:	48 63 c8             	movslq %eax,%rcx
   1653d:	48 89 d0             	mov    %rdx,%rax
   16540:	48 c1 e0 03          	shl    $0x3,%rax
   16544:	48 01 d0             	add    %rdx,%rax
   16547:	48 01 c0             	add    %rax,%rax
   1654a:	48 6b d1 5a          	imul   $0x5a,%rcx,%rdx
   1654e:	48 01 c2             	add    %rax,%rdx
   16551:	48 8d 05 b3 b0 00 00 	lea    0xb0b3(%rip),%rax        # 2160b <g_351+0xb>
   16558:	48 01 d0             	add    %rdx,%rax
   1655b:	0f b6 00             	movzbl (%rax),%eax
   1655e:	0f b6 c0             	movzbl %al,%eax
   16561:	8b 55 fc             	mov    -0x4(%rbp),%edx
   16564:	48 8d 35 e1 5b 00 00 	lea    0x5be1(%rip),%rsi        # 1c14c <g_1979+0x1be8>
   1656b:	48 89 c7             	mov    %rax,%rdi
   1656e:	e8 80 51 ff ff       	callq  b6f3 <transparent_crc>
   16573:	8b 45 f8             	mov    -0x8(%rbp),%eax
   16576:	48 63 d0             	movslq %eax,%rdx
   16579:	8b 45 f4             	mov    -0xc(%rbp),%eax
   1657c:	48 98                	cltq   
   1657e:	48 01 c2             	add    %rax,%rdx
   16581:	8b 45 f0             	mov    -0x10(%rbp),%eax
   16584:	48 63 c8             	movslq %eax,%rcx
   16587:	48 89 d0             	mov    %rdx,%rax
   1658a:	48 c1 e0 03          	shl    $0x3,%rax
   1658e:	48 01 d0             	add    %rdx,%rax
   16591:	48 01 c0             	add    %rax,%rax
   16594:	48 6b d1 5a          	imul   $0x5a,%rcx,%rdx
   16598:	48 01 c2             	add    %rax,%rdx
   1659b:	48 8d 05 5e b0 00 00 	lea    0xb05e(%rip),%rax        # 21600 <g_351>
   165a2:	48 01 d0             	add    %rdx,%rax
   165a5:	0f b7 50 0c          	movzwl 0xc(%rax),%edx
   165a9:	0f b7 d2             	movzwl %dx,%edx
   165ac:	0f b7 40 0e          	movzwl 0xe(%rax),%eax
   165b0:	0f b7 c0             	movzwl %ax,%eax
   165b3:	25 ff 7f 00 00       	and    $0x7fff,%eax
   165b8:	48 c1 e0 10          	shl    $0x10,%rax
   165bc:	48 09 d0             	or     %rdx,%rax
   165bf:	48 c1 e0 21          	shl    $0x21,%rax
   165c3:	48 c1 f8 21          	sar    $0x21,%rax
   165c7:	48 98                	cltq   
   165c9:	8b 55 fc             	mov    -0x4(%rbp),%edx
   165cc:	48 8d 35 8b 5b 00 00 	lea    0x5b8b(%rip),%rsi        # 1c15e <g_1979+0x1bfa>
   165d3:	48 89 c7             	mov    %rax,%rdi
   165d6:	e8 18 51 ff ff       	callq  b6f3 <transparent_crc>
   165db:	8b 45 f8             	mov    -0x8(%rbp),%eax
   165de:	48 63 d0             	movslq %eax,%rdx
   165e1:	8b 45 f4             	mov    -0xc(%rbp),%eax
   165e4:	48 98                	cltq   
   165e6:	48 01 c2             	add    %rax,%rdx
   165e9:	8b 45 f0             	mov    -0x10(%rbp),%eax
   165ec:	48 63 c8             	movslq %eax,%rcx
   165ef:	48 89 d0             	mov    %rdx,%rax
   165f2:	48 c1 e0 03          	shl    $0x3,%rax
   165f6:	48 01 d0             	add    %rdx,%rax
   165f9:	48 01 c0             	add    %rax,%rax
   165fc:	48 6b d1 5a          	imul   $0x5a,%rcx,%rdx
   16600:	48 01 c2             	add    %rax,%rdx
   16603:	48 8d 05 f6 af 00 00 	lea    0xaff6(%rip),%rax        # 21600 <g_351>
   1660a:	48 01 d0             	add    %rdx,%rax
   1660d:	0f b7 50 0e          	movzwl 0xe(%rax),%edx
   16611:	66 c1 ea 0f          	shr    $0xf,%dx
   16615:	0f b7 d2             	movzwl %dx,%edx
   16618:	0f b7 40 10          	movzwl 0x10(%rax),%eax
   1661c:	0f b7 c0             	movzwl %ax,%eax
   1661f:	25 ff 3f 00 00       	and    $0x3fff,%eax
   16624:	48 01 c0             	add    %rax,%rax
   16627:	48 09 d0             	or     %rdx,%rax
   1662a:	0f b7 c0             	movzwl %ax,%eax
   1662d:	8b 55 fc             	mov    -0x4(%rbp),%edx
   16630:	48 8d 35 39 5b 00 00 	lea    0x5b39(%rip),%rsi        # 1c170 <g_1979+0x1c0c>
   16637:	48 89 c7             	mov    %rax,%rdi
   1663a:	e8 b4 50 ff ff       	callq  b6f3 <transparent_crc>
   1663f:	83 7d fc 00          	cmpl   $0x0,-0x4(%rbp)
   16643:	74 1c                	je     16661 <main+0x14e0>
   16645:	8b 4d f8             	mov    -0x8(%rbp),%ecx
   16648:	8b 55 f4             	mov    -0xc(%rbp),%edx
   1664b:	8b 45 f0             	mov    -0x10(%rbp),%eax
   1664e:	89 c6                	mov    %eax,%esi
   16650:	48 8d 3d 6a 57 00 00 	lea    0x576a(%rip),%rdi        # 1bdc1 <g_1979+0x185d>
   16657:	b8 00 00 00 00       	mov    $0x0,%eax
   1665c:	e8 1f 3a ff ff       	callq  a080 <printf@plt>
   16661:	83 45 f8 01          	addl   $0x1,-0x8(%rbp)
   16665:	83 7d f8 00          	cmpl   $0x0,-0x8(%rbp)
   16669:	0f 8e 6a fd ff ff    	jle    163d9 <main+0x1258>
   1666f:	83 45 f4 01          	addl   $0x1,-0xc(%rbp)
   16673:	83 7d f4 04          	cmpl   $0x4,-0xc(%rbp)
   16677:	0f 8e 50 fd ff ff    	jle    163cd <main+0x124c>
   1667d:	83 45 f0 01          	addl   $0x1,-0x10(%rbp)
   16681:	83 7d f0 06          	cmpl   $0x6,-0x10(%rbp)
   16685:	0f 8e 36 fd ff ff    	jle    163c1 <main+0x1240>
   1668b:	0f b6 05 e4 b1 00 00 	movzbl 0xb1e4(%rip),%eax        # 21876 <g_357>
   16692:	0f b6 c0             	movzbl %al,%eax
   16695:	8b 55 fc             	mov    -0x4(%rbp),%edx
   16698:	48 8d 35 e3 5a 00 00 	lea    0x5ae3(%rip),%rsi        # 1c182 <g_1979+0x1c1e>
   1669f:	48 89 c7             	mov    %rax,%rdi
   166a2:	e8 4c 50 ff ff       	callq  b6f3 <transparent_crc>
   166a7:	0f b7 05 ca b1 00 00 	movzwl 0xb1ca(%rip),%eax        # 21878 <g_393>
   166ae:	48 0f bf c0          	movswq %ax,%rax
   166b2:	8b 55 fc             	mov    -0x4(%rbp),%edx
   166b5:	48 8d 35 cc 5a 00 00 	lea    0x5acc(%rip),%rsi        # 1c188 <g_1979+0x1c24>
   166bc:	48 89 c7             	mov    %rax,%rdi
   166bf:	e8 2f 50 ff ff       	callq  b6f3 <transparent_crc>
   166c4:	c7 45 f0 00 00 00 00 	movl   $0x0,-0x10(%rbp)
   166cb:	e9 fa 04 00 00       	jmpq   16bca <main+0x1a49>
   166d0:	c7 45 f4 00 00 00 00 	movl   $0x0,-0xc(%rbp)
   166d7:	e9 e0 04 00 00       	jmpq   16bbc <main+0x1a3b>
   166dc:	c7 45 f8 00 00 00 00 	movl   $0x0,-0x8(%rbp)
   166e3:	e9 c6 04 00 00       	jmpq   16bae <main+0x1a2d>
   166e8:	8b 45 f8             	mov    -0x8(%rbp),%eax
   166eb:	48 98                	cltq   
   166ed:	8b 55 f4             	mov    -0xc(%rbp),%edx
   166f0:	48 63 f2             	movslq %edx,%rsi
   166f3:	8b 55 f0             	mov    -0x10(%rbp),%edx
   166f6:	48 63 ca             	movslq %edx,%rcx
   166f9:	48 89 c2             	mov    %rax,%rdx
   166fc:	48 c1 e2 03          	shl    $0x3,%rdx
   16700:	48 29 c2             	sub    %rax,%rdx
   16703:	48 8d 04 95 00 00 00 	lea    0x0(,%rdx,4),%rax
   1670a:	00 
   1670b:	48 89 c2             	mov    %rax,%rdx
   1670e:	48 89 f0             	mov    %rsi,%rax
   16711:	48 c1 e0 03          	shl    $0x3,%rax
   16715:	48 29 f0             	sub    %rsi,%rax
   16718:	48 c1 e0 04          	shl    $0x4,%rax
   1671c:	48 01 c2             	add    %rax,%rdx
   1671f:	48 89 c8             	mov    %rcx,%rax
   16722:	48 c1 e0 02          	shl    $0x2,%rax
   16726:	48 01 c8             	add    %rcx,%rax
   16729:	48 c1 e0 02          	shl    $0x2,%rax
   1672d:	48 01 c8             	add    %rcx,%rax
   16730:	48 c1 e0 05          	shl    $0x5,%rax
   16734:	48 01 c2             	add    %rax,%rdx
   16737:	48 8d 05 22 29 00 00 	lea    0x2922(%rip),%rax        # 19060 <g_402>
   1673e:	48 01 d0             	add    %rdx,%rax
   16741:	8b 00                	mov    (%rax),%eax
   16743:	66 25 ff 7f          	and    $0x7fff,%ax
   16747:	0f b7 c0             	movzwl %ax,%eax
   1674a:	8b 55 fc             	mov    -0x4(%rbp),%edx
   1674d:	48 8d 35 3a 5a 00 00 	lea    0x5a3a(%rip),%rsi        # 1c18e <g_1979+0x1c2a>
   16754:	48 89 c7             	mov    %rax,%rdi
   16757:	e8 97 4f ff ff       	callq  b6f3 <transparent_crc>
   1675c:	8b 45 f8             	mov    -0x8(%rbp),%eax
   1675f:	48 98                	cltq   
   16761:	8b 55 f4             	mov    -0xc(%rbp),%edx
   16764:	48 63 f2             	movslq %edx,%rsi
   16767:	8b 55 f0             	mov    -0x10(%rbp),%edx
   1676a:	48 63 ca             	movslq %edx,%rcx
   1676d:	48 89 c2             	mov    %rax,%rdx
   16770:	48 c1 e2 03          	shl    $0x3,%rdx
   16774:	48 29 c2             	sub    %rax,%rdx
   16777:	48 8d 04 95 00 00 00 	lea    0x0(,%rdx,4),%rax
   1677e:	00 
   1677f:	48 89 c2             	mov    %rax,%rdx
   16782:	48 89 f0             	mov    %rsi,%rax
   16785:	48 c1 e0 03          	shl    $0x3,%rax
   16789:	48 29 f0             	sub    %rsi,%rax
   1678c:	48 c1 e0 04          	shl    $0x4,%rax
   16790:	48 01 c2             	add    %rax,%rdx
   16793:	48 89 c8             	mov    %rcx,%rax
   16796:	48 c1 e0 02          	shl    $0x2,%rax
   1679a:	48 01 c8             	add    %rcx,%rax
   1679d:	48 c1 e0 02          	shl    $0x2,%rax
   167a1:	48 01 c8             	add    %rcx,%rax
   167a4:	48 c1 e0 05          	shl    $0x5,%rax
   167a8:	48 01 c2             	add    %rax,%rdx
   167ab:	48 8d 05 ae 28 00 00 	lea    0x28ae(%rip),%rax        # 19060 <g_402>
   167b2:	48 01 d0             	add    %rdx,%rax
   167b5:	8b 00                	mov    (%rax),%eax
   167b7:	c1 e8 0f             	shr    $0xf,%eax
   167ba:	66 25 ff 03          	and    $0x3ff,%ax
   167be:	0f b7 c0             	movzwl %ax,%eax
   167c1:	8b 55 fc             	mov    -0x4(%rbp),%edx
   167c4:	48 8d 35 d5 59 00 00 	lea    0x59d5(%rip),%rsi        # 1c1a0 <g_1979+0x1c3c>
   167cb:	48 89 c7             	mov    %rax,%rdi
   167ce:	e8 20 4f ff ff       	callq  b6f3 <transparent_crc>
   167d3:	8b 45 f8             	mov    -0x8(%rbp),%eax
   167d6:	48 98                	cltq   
   167d8:	8b 55 f4             	mov    -0xc(%rbp),%edx
   167db:	48 63 f2             	movslq %edx,%rsi
   167de:	8b 55 f0             	mov    -0x10(%rbp),%edx
   167e1:	48 63 ca             	movslq %edx,%rcx
   167e4:	48 89 c2             	mov    %rax,%rdx
   167e7:	48 c1 e2 03          	shl    $0x3,%rdx
   167eb:	48 29 c2             	sub    %rax,%rdx
   167ee:	48 8d 04 95 00 00 00 	lea    0x0(,%rdx,4),%rax
   167f5:	00 
   167f6:	48 89 c2             	mov    %rax,%rdx
   167f9:	48 89 f0             	mov    %rsi,%rax
   167fc:	48 c1 e0 03          	shl    $0x3,%rax
   16800:	48 29 f0             	sub    %rsi,%rax
   16803:	48 c1 e0 04          	shl    $0x4,%rax
   16807:	48 01 c2             	add    %rax,%rdx
   1680a:	48 89 c8             	mov    %rcx,%rax
   1680d:	48 c1 e0 02          	shl    $0x2,%rax
   16811:	48 01 c8             	add    %rcx,%rax
   16814:	48 c1 e0 02          	shl    $0x2,%rax
   16818:	48 01 c8             	add    %rcx,%rax
   1681b:	48 c1 e0 05          	shl    $0x5,%rax
   1681f:	48 01 c2             	add    %rax,%rdx
   16822:	48 8d 05 37 28 00 00 	lea    0x2837(%rip),%rax        # 19060 <g_402>
   16829:	48 01 d0             	add    %rdx,%rax
   1682c:	8b 40 04             	mov    0x4(%rax),%eax
   1682f:	c1 e0 09             	shl    $0x9,%eax
   16832:	c1 f8 09             	sar    $0x9,%eax
   16835:	48 98                	cltq   
   16837:	8b 55 fc             	mov    -0x4(%rbp),%edx
   1683a:	48 8d 35 71 59 00 00 	lea    0x5971(%rip),%rsi        # 1c1b2 <g_1979+0x1c4e>
   16841:	48 89 c7             	mov    %rax,%rdi
   16844:	e8 aa 4e ff ff       	callq  b6f3 <transparent_crc>
   16849:	8b 45 f8             	mov    -0x8(%rbp),%eax
   1684c:	48 98                	cltq   
   1684e:	8b 55 f4             	mov    -0xc(%rbp),%edx
   16851:	48 63 f2             	movslq %edx,%rsi
   16854:	8b 55 f0             	mov    -0x10(%rbp),%edx
   16857:	48 63 ca             	movslq %edx,%rcx
   1685a:	48 89 c2             	mov    %rax,%rdx
   1685d:	48 c1 e2 03          	shl    $0x3,%rdx
   16861:	48 29 c2             	sub    %rax,%rdx
   16864:	48 8d 04 95 00 00 00 	lea    0x0(,%rdx,4),%rax
   1686b:	00 
   1686c:	48 89 c2             	mov    %rax,%rdx
   1686f:	48 89 f0             	mov    %rsi,%rax
   16872:	48 c1 e0 03          	shl    $0x3,%rax
   16876:	48 29 f0             	sub    %rsi,%rax
   16879:	48 c1 e0 04          	shl    $0x4,%rax
   1687d:	48 01 c2             	add    %rax,%rdx
   16880:	48 89 c8             	mov    %rcx,%rax
   16883:	48 c1 e0 02          	shl    $0x2,%rax
   16887:	48 01 c8             	add    %rcx,%rax
   1688a:	48 c1 e0 02          	shl    $0x2,%rax
   1688e:	48 01 c8             	add    %rcx,%rax
   16891:	48 c1 e0 05          	shl    $0x5,%rax
   16895:	48 01 c2             	add    %rax,%rdx
   16898:	48 8d 05 c1 27 00 00 	lea    0x27c1(%rip),%rax        # 19060 <g_402>
   1689f:	48 01 d0             	add    %rdx,%rax
   168a2:	8b 40 08             	mov    0x8(%rax),%eax
   168a5:	c1 e0 06             	shl    $0x6,%eax
   168a8:	66 c1 f8 06          	sar    $0x6,%ax
   168ac:	48 0f bf c0          	movswq %ax,%rax
   168b0:	8b 55 fc             	mov    -0x4(%rbp),%edx
   168b3:	48 8d 35 0a 59 00 00 	lea    0x590a(%rip),%rsi        # 1c1c4 <g_1979+0x1c60>
   168ba:	48 89 c7             	mov    %rax,%rdi
   168bd:	e8 31 4e ff ff       	callq  b6f3 <transparent_crc>
   168c2:	8b 45 f8             	mov    -0x8(%rbp),%eax
   168c5:	48 98                	cltq   
   168c7:	8b 55 f4             	mov    -0xc(%rbp),%edx
   168ca:	48 63 f2             	movslq %edx,%rsi
   168cd:	8b 55 f0             	mov    -0x10(%rbp),%edx
   168d0:	48 63 ca             	movslq %edx,%rcx
   168d3:	48 89 c2             	mov    %rax,%rdx
   168d6:	48 c1 e2 03          	shl    $0x3,%rdx
   168da:	48 29 c2             	sub    %rax,%rdx
   168dd:	48 8d 04 95 00 00 00 	lea    0x0(,%rdx,4),%rax
   168e4:	00 
   168e5:	48 89 c2             	mov    %rax,%rdx
   168e8:	48 89 f0             	mov    %rsi,%rax
   168eb:	48 c1 e0 03          	shl    $0x3,%rax
   168ef:	48 29 f0             	sub    %rsi,%rax
   168f2:	48 c1 e0 04          	shl    $0x4,%rax
   168f6:	48 01 c2             	add    %rax,%rdx
   168f9:	48 89 c8             	mov    %rcx,%rax
   168fc:	48 c1 e0 02          	shl    $0x2,%rax
   16900:	48 01 c8             	add    %rcx,%rax
   16903:	48 c1 e0 02          	shl    $0x2,%rax
   16907:	48 01 c8             	add    %rcx,%rax
   1690a:	48 c1 e0 05          	shl    $0x5,%rax
   1690e:	48 01 c2             	add    %rax,%rdx
   16911:	48 8d 05 48 27 00 00 	lea    0x2748(%rip),%rax        # 19060 <g_402>
   16918:	48 01 d0             	add    %rdx,%rax
   1691b:	8b 40 08             	mov    0x8(%rax),%eax
   1691e:	c1 e8 0a             	shr    $0xa,%eax
   16921:	66 25 ff 1f          	and    $0x1fff,%ax
   16925:	0f b7 c0             	movzwl %ax,%eax
   16928:	8b 55 fc             	mov    -0x4(%rbp),%edx
   1692b:	48 8d 35 a4 58 00 00 	lea    0x58a4(%rip),%rsi        # 1c1d6 <g_1979+0x1c72>
   16932:	48 89 c7             	mov    %rax,%rdi
   16935:	e8 b9 4d ff ff       	callq  b6f3 <transparent_crc>
   1693a:	8b 45 f8             	mov    -0x8(%rbp),%eax
   1693d:	48 98                	cltq   
   1693f:	8b 55 f4             	mov    -0xc(%rbp),%edx
   16942:	48 63 f2             	movslq %edx,%rsi
   16945:	8b 55 f0             	mov    -0x10(%rbp),%edx
   16948:	48 63 ca             	movslq %edx,%rcx
   1694b:	48 89 c2             	mov    %rax,%rdx
   1694e:	48 c1 e2 03          	shl    $0x3,%rdx
   16952:	48 29 c2             	sub    %rax,%rdx
   16955:	48 8d 04 95 00 00 00 	lea    0x0(,%rdx,4),%rax
   1695c:	00 
   1695d:	48 89 c2             	mov    %rax,%rdx
   16960:	48 89 f0             	mov    %rsi,%rax
   16963:	48 c1 e0 03          	shl    $0x3,%rax
   16967:	48 29 f0             	sub    %rsi,%rax
   1696a:	48 c1 e0 04          	shl    $0x4,%rax
   1696e:	48 01 c2             	add    %rax,%rdx
   16971:	48 89 c8             	mov    %rcx,%rax
   16974:	48 c1 e0 02          	shl    $0x2,%rax
   16978:	48 01 c8             	add    %rcx,%rax
   1697b:	48 c1 e0 02          	shl    $0x2,%rax
   1697f:	48 01 c8             	add    %rcx,%rax
   16982:	48 c1 e0 05          	shl    $0x5,%rax
   16986:	48 01 c2             	add    %rax,%rdx
   16989:	48 8d 05 dc 26 00 00 	lea    0x26dc(%rip),%rax        # 1906c <g_402+0xc>
   16990:	48 01 d0             	add    %rdx,%rax
   16993:	8b 00                	mov    (%rax),%eax
   16995:	89 c1                	mov    %eax,%ecx
   16997:	8b 45 fc             	mov    -0x4(%rbp),%eax
   1699a:	89 c2                	mov    %eax,%edx
   1699c:	48 8d 35 45 58 00 00 	lea    0x5845(%rip),%rsi        # 1c1e8 <g_1979+0x1c84>
   169a3:	48 89 cf             	mov    %rcx,%rdi
   169a6:	e8 48 4d ff ff       	callq  b6f3 <transparent_crc>
   169ab:	8b 45 f8             	mov    -0x8(%rbp),%eax
   169ae:	48 98                	cltq   
   169b0:	8b 55 f4             	mov    -0xc(%rbp),%edx
   169b3:	48 63 f2             	movslq %edx,%rsi
   169b6:	8b 55 f0             	mov    -0x10(%rbp),%edx
   169b9:	48 63 ca             	movslq %edx,%rcx
   169bc:	48 89 c2             	mov    %rax,%rdx
   169bf:	48 c1 e2 03          	shl    $0x3,%rdx
   169c3:	48 29 c2             	sub    %rax,%rdx
   169c6:	48 8d 04 95 00 00 00 	lea    0x0(,%rdx,4),%rax
   169cd:	00 
   169ce:	48 89 c2             	mov    %rax,%rdx
   169d1:	48 89 c8             	mov    %rcx,%rax
   169d4:	48 c1 e0 02          	shl    $0x2,%rax
   169d8:	48 01 c8             	add    %rcx,%rax
   169db:	48 c1 e0 02          	shl    $0x2,%rax
   169df:	48 01 c8             	add    %rcx,%rax
   169e2:	48 c1 e0 05          	shl    $0x5,%rax
   169e6:	48 01 c2             	add    %rax,%rdx
   169e9:	48 89 f0             	mov    %rsi,%rax
   169ec:	48 c1 e0 03          	shl    $0x3,%rax
   169f0:	48 29 f0             	sub    %rsi,%rax
   169f3:	48 c1 e0 04          	shl    $0x4,%rax
   169f7:	48 01 c2             	add    %rax,%rdx
   169fa:	48 8d 05 6f 26 00 00 	lea    0x266f(%rip),%rax        # 19070 <g_402+0x10>
   16a01:	48 01 d0             	add    %rdx,%rax
   16a04:	8b 00                	mov    (%rax),%eax
   16a06:	25 ff ff 3f 00       	and    $0x3fffff,%eax
   16a0b:	89 c1                	mov    %eax,%ecx
   16a0d:	8b 45 fc             	mov    -0x4(%rbp),%eax
   16a10:	89 c2                	mov    %eax,%edx
   16a12:	48 8d 35 e1 57 00 00 	lea    0x57e1(%rip),%rsi        # 1c1fa <g_1979+0x1c96>
   16a19:	48 89 cf             	mov    %rcx,%rdi
   16a1c:	e8 d2 4c ff ff       	callq  b6f3 <transparent_crc>
   16a21:	8b 45 f8             	mov    -0x8(%rbp),%eax
   16a24:	48 98                	cltq   
   16a26:	8b 55 f4             	mov    -0xc(%rbp),%edx
   16a29:	48 63 f2             	movslq %edx,%rsi
   16a2c:	8b 55 f0             	mov    -0x10(%rbp),%edx
   16a2f:	48 63 ca             	movslq %edx,%rcx
   16a32:	48 89 c2             	mov    %rax,%rdx
   16a35:	48 c1 e2 03          	shl    $0x3,%rdx
   16a39:	48 29 c2             	sub    %rax,%rdx
   16a3c:	48 8d 04 95 00 00 00 	lea    0x0(,%rdx,4),%rax
   16a43:	00 
   16a44:	48 89 c2             	mov    %rax,%rdx
   16a47:	48 89 c8             	mov    %rcx,%rax
   16a4a:	48 c1 e0 02          	shl    $0x2,%rax
   16a4e:	48 01 c8             	add    %rcx,%rax
   16a51:	48 c1 e0 02          	shl    $0x2,%rax
   16a55:	48 01 c8             	add    %rcx,%rax
   16a58:	48 c1 e0 05          	shl    $0x5,%rax
   16a5c:	48 01 c2             	add    %rax,%rdx
   16a5f:	48 89 f0             	mov    %rsi,%rax
   16a62:	48 c1 e0 03          	shl    $0x3,%rax
   16a66:	48 29 f0             	sub    %rsi,%rax
   16a69:	48 c1 e0 04          	shl    $0x4,%rax
   16a6d:	48 01 c2             	add    %rax,%rdx
   16a70:	48 8d 05 f9 25 00 00 	lea    0x25f9(%rip),%rax        # 19070 <g_402+0x10>
   16a77:	48 01 d0             	add    %rdx,%rax
   16a7a:	0f b7 40 02          	movzwl 0x2(%rax),%eax
   16a7e:	66 c1 f8 06          	sar    $0x6,%ax
   16a82:	48 0f bf c0          	movswq %ax,%rax
   16a86:	8b 55 fc             	mov    -0x4(%rbp),%edx
   16a89:	48 8d 35 7c 57 00 00 	lea    0x577c(%rip),%rsi        # 1c20c <g_1979+0x1ca8>
   16a90:	48 89 c7             	mov    %rax,%rdi
   16a93:	e8 5b 4c ff ff       	callq  b6f3 <transparent_crc>
   16a98:	8b 45 f8             	mov    -0x8(%rbp),%eax
   16a9b:	48 98                	cltq   
   16a9d:	8b 55 f4             	mov    -0xc(%rbp),%edx
   16aa0:	48 63 f2             	movslq %edx,%rsi
   16aa3:	8b 55 f0             	mov    -0x10(%rbp),%edx
   16aa6:	48 63 ca             	movslq %edx,%rcx
   16aa9:	48 89 c2             	mov    %rax,%rdx
   16aac:	48 c1 e2 03          	shl    $0x3,%rdx
   16ab0:	48 29 c2             	sub    %rax,%rdx
   16ab3:	48 8d 04 95 00 00 00 	lea    0x0(,%rdx,4),%rax
   16aba:	00 
   16abb:	48 89 c2             	mov    %rax,%rdx
   16abe:	48 89 c8             	mov    %rcx,%rax
   16ac1:	48 c1 e0 02          	shl    $0x2,%rax
   16ac5:	48 01 c8             	add    %rcx,%rax
   16ac8:	48 c1 e0 02          	shl    $0x2,%rax
   16acc:	48 01 c8             	add    %rcx,%rax
   16acf:	48 c1 e0 05          	shl    $0x5,%rax
   16ad3:	48 01 c2             	add    %rax,%rdx
   16ad6:	48 89 f0             	mov    %rsi,%rax
   16ad9:	48 c1 e0 03          	shl    $0x3,%rax
   16add:	48 29 f0             	sub    %rsi,%rax
   16ae0:	48 c1 e0 04          	shl    $0x4,%rax
   16ae4:	48 01 c2             	add    %rax,%rdx
   16ae7:	48 8d 05 82 25 00 00 	lea    0x2582(%rip),%rax        # 19070 <g_402+0x10>
   16aee:	48 01 d0             	add    %rdx,%rax
   16af1:	0f b6 40 04          	movzbl 0x4(%rax),%eax
   16af5:	c1 e0 06             	shl    $0x6,%eax
   16af8:	c0 f8 06             	sar    $0x6,%al
   16afb:	48 0f be c0          	movsbq %al,%rax
   16aff:	8b 55 fc             	mov    -0x4(%rbp),%edx
   16b02:	48 8d 35 15 57 00 00 	lea    0x5715(%rip),%rsi        # 1c21e <g_1979+0x1cba>
   16b09:	48 89 c7             	mov    %rax,%rdi
   16b0c:	e8 e2 4b ff ff       	callq  b6f3 <transparent_crc>
   16b11:	8b 45 f8             	mov    -0x8(%rbp),%eax
   16b14:	48 98                	cltq   
   16b16:	8b 55 f4             	mov    -0xc(%rbp),%edx
   16b19:	48 63 f2             	movslq %edx,%rsi
   16b1c:	8b 55 f0             	mov    -0x10(%rbp),%edx
   16b1f:	48 63 ca             	movslq %edx,%rcx
   16b22:	48 89 c2             	mov    %rax,%rdx
   16b25:	48 c1 e2 03          	shl    $0x3,%rdx
   16b29:	48 29 c2             	sub    %rax,%rdx
   16b2c:	48 8d 04 95 00 00 00 	lea    0x0(,%rdx,4),%rax
   16b33:	00 
   16b34:	48 89 c2             	mov    %rax,%rdx
   16b37:	48 89 c8             	mov    %rcx,%rax
   16b3a:	48 c1 e0 02          	shl    $0x2,%rax
   16b3e:	48 01 c8             	add    %rcx,%rax
   16b41:	48 c1 e0 02          	shl    $0x2,%rax
   16b45:	48 01 c8             	add    %rcx,%rax
   16b48:	48 c1 e0 05          	shl    $0x5,%rax
   16b4c:	48 01 c2             	add    %rax,%rdx
   16b4f:	48 89 f0             	mov    %rsi,%rax
   16b52:	48 c1 e0 03          	shl    $0x3,%rax
   16b56:	48 29 f0             	sub    %rsi,%rax
   16b59:	48 c1 e0 04          	shl    $0x4,%rax
   16b5d:	48 01 c2             	add    %rax,%rdx
   16b60:	48 8d 05 09 25 00 00 	lea    0x2509(%rip),%rax        # 19070 <g_402+0x10>
   16b67:	48 01 d0             	add    %rdx,%rax
   16b6a:	8b 40 08             	mov    0x8(%rax),%eax
   16b6d:	25 ff ff ff 7f       	and    $0x7fffffff,%eax
   16b72:	89 c1                	mov    %eax,%ecx
   16b74:	8b 45 fc             	mov    -0x4(%rbp),%eax
   16b77:	89 c2                	mov    %eax,%edx
   16b79:	48 8d 35 b0 56 00 00 	lea    0x56b0(%rip),%rsi        # 1c230 <g_1979+0x1ccc>
   16b80:	48 89 cf             	mov    %rcx,%rdi
   16b83:	e8 6b 4b ff ff       	callq  b6f3 <transparent_crc>
   16b88:	83 7d fc 00          	cmpl   $0x0,-0x4(%rbp)
   16b8c:	74 1c                	je     16baa <main+0x1a29>
   16b8e:	8b 4d f8             	mov    -0x8(%rbp),%ecx
   16b91:	8b 55 f4             	mov    -0xc(%rbp),%edx
   16b94:	8b 45 f0             	mov    -0x10(%rbp),%eax
   16b97:	89 c6                	mov    %eax,%esi
   16b99:	48 8d 3d 21 52 00 00 	lea    0x5221(%rip),%rdi        # 1bdc1 <g_1979+0x185d>
   16ba0:	b8 00 00 00 00       	mov    $0x0,%eax
   16ba5:	e8 d6 34 ff ff       	callq  a080 <printf@plt>
   16baa:	83 45 f8 01          	addl   $0x1,-0x8(%rbp)
   16bae:	83 7d f8 03          	cmpl   $0x3,-0x8(%rbp)
   16bb2:	0f 8e 30 fb ff ff    	jle    166e8 <main+0x1567>
   16bb8:	83 45 f4 01          	addl   $0x1,-0xc(%rbp)
   16bbc:	83 7d f4 05          	cmpl   $0x5,-0xc(%rbp)
   16bc0:	0f 8e 16 fb ff ff    	jle    166dc <main+0x155b>
   16bc6:	83 45 f0 01          	addl   $0x1,-0x10(%rbp)
   16bca:	83 7d f0 07          	cmpl   $0x7,-0x10(%rbp)
   16bce:	0f 8e fc fa ff ff    	jle    166d0 <main+0x154f>
   16bd4:	8b 05 a2 ac 00 00    	mov    0xaca2(%rip),%eax        # 2187c <g_426>
   16bda:	48 98                	cltq   
   16bdc:	8b 55 fc             	mov    -0x4(%rbp),%edx
   16bdf:	48 8d 35 5c 56 00 00 	lea    0x565c(%rip),%rsi        # 1c242 <g_1979+0x1cde>
   16be6:	48 89 c7             	mov    %rax,%rdi
   16be9:	e8 05 4b ff ff       	callq  b6f3 <transparent_crc>
   16bee:	8b 05 8c ac 00 00    	mov    0xac8c(%rip),%eax        # 21880 <g_457>
   16bf4:	48 98                	cltq   
   16bf6:	8b 55 fc             	mov    -0x4(%rbp),%edx
   16bf9:	48 8d 35 4b 56 00 00 	lea    0x564b(%rip),%rsi        # 1c24b <g_1979+0x1ce7>
   16c00:	48 89 c7             	mov    %rax,%rdi
   16c03:	e8 eb 4a ff ff       	callq  b6f3 <transparent_crc>
   16c08:	8b 05 76 ac 00 00    	mov    0xac76(%rip),%eax        # 21884 <g_460>
   16c0e:	48 98                	cltq   
   16c10:	8b 55 fc             	mov    -0x4(%rbp),%edx
   16c13:	48 8d 35 3a 56 00 00 	lea    0x563a(%rip),%rsi        # 1c254 <g_1979+0x1cf0>
   16c1a:	48 89 c7             	mov    %rax,%rdi
   16c1d:	e8 d1 4a ff ff       	callq  b6f3 <transparent_crc>
   16c22:	8b 05 60 ac 00 00    	mov    0xac60(%rip),%eax        # 21888 <g_462>
   16c28:	48 98                	cltq   
   16c2a:	8b 55 fc             	mov    -0x4(%rbp),%edx
   16c2d:	48 8d 35 29 56 00 00 	lea    0x5629(%rip),%rsi        # 1c25d <g_1979+0x1cf9>
   16c34:	48 89 c7             	mov    %rax,%rdi
   16c37:	e8 b7 4a ff ff       	callq  b6f3 <transparent_crc>
   16c3c:	c7 45 f0 00 00 00 00 	movl   $0x0,-0x10(%rbp)
   16c43:	e9 9f 00 00 00       	jmpq   16ce7 <main+0x1b66>
   16c48:	c7 45 f4 00 00 00 00 	movl   $0x0,-0xc(%rbp)
   16c4f:	e9 85 00 00 00       	jmpq   16cd9 <main+0x1b58>
   16c54:	c7 45 f8 00 00 00 00 	movl   $0x0,-0x8(%rbp)
   16c5b:	eb 72                	jmp    16ccf <main+0x1b4e>
   16c5d:	8b 45 f8             	mov    -0x8(%rbp),%eax
   16c60:	48 63 c8             	movslq %eax,%rcx
   16c63:	8b 45 f0             	mov    -0x10(%rbp),%eax
   16c66:	48 63 d0             	movslq %eax,%rdx
   16c69:	8b 45 f4             	mov    -0xc(%rbp),%eax
   16c6c:	48 63 f0             	movslq %eax,%rsi
   16c6f:	48 89 d0             	mov    %rdx,%rax
   16c72:	48 c1 e0 03          	shl    $0x3,%rax
   16c76:	48 01 d0             	add    %rdx,%rax
   16c79:	48 01 f0             	add    %rsi,%rax
   16c7c:	48 c1 e0 02          	shl    $0x2,%rax
   16c80:	48 01 c8             	add    %rcx,%rax
   16c83:	48 8d 14 85 00 00 00 	lea    0x0(,%rax,4),%rdx
   16c8a:	00 
   16c8b:	48 8d 05 0e ac 00 00 	lea    0xac0e(%rip),%rax        # 218a0 <g_552>
   16c92:	8b 04 02             	mov    (%rdx,%rax,1),%eax
   16c95:	48 98                	cltq   
   16c97:	8b 55 fc             	mov    -0x4(%rbp),%edx
   16c9a:	48 8d 35 c5 55 00 00 	lea    0x55c5(%rip),%rsi        # 1c266 <g_1979+0x1d02>
   16ca1:	48 89 c7             	mov    %rax,%rdi
   16ca4:	e8 4a 4a ff ff       	callq  b6f3 <transparent_crc>
   16ca9:	83 7d fc 00          	cmpl   $0x0,-0x4(%rbp)
   16cad:	74 1c                	je     16ccb <main+0x1b4a>
   16caf:	8b 4d f8             	mov    -0x8(%rbp),%ecx
   16cb2:	8b 55 f4             	mov    -0xc(%rbp),%edx
   16cb5:	8b 45 f0             	mov    -0x10(%rbp),%eax
   16cb8:	89 c6                	mov    %eax,%esi
   16cba:	48 8d 3d 00 51 00 00 	lea    0x5100(%rip),%rdi        # 1bdc1 <g_1979+0x185d>
   16cc1:	b8 00 00 00 00       	mov    $0x0,%eax
   16cc6:	e8 b5 33 ff ff       	callq  a080 <printf@plt>
   16ccb:	83 45 f8 01          	addl   $0x1,-0x8(%rbp)
   16ccf:	83 7d f8 03          	cmpl   $0x3,-0x8(%rbp)
   16cd3:	7e 88                	jle    16c5d <main+0x1adc>
   16cd5:	83 45 f4 01          	addl   $0x1,-0xc(%rbp)
   16cd9:	83 7d f4 08          	cmpl   $0x8,-0xc(%rbp)
   16cdd:	0f 8e 71 ff ff ff    	jle    16c54 <main+0x1ad3>
   16ce3:	83 45 f0 01          	addl   $0x1,-0x10(%rbp)
   16ce7:	83 7d f0 06          	cmpl   $0x6,-0x10(%rbp)
   16ceb:	0f 8e 57 ff ff ff    	jle    16c48 <main+0x1ac7>
   16cf1:	c7 45 f0 00 00 00 00 	movl   $0x0,-0x10(%rbp)
   16cf8:	eb 4b                	jmp    16d45 <main+0x1bc4>
   16cfa:	8b 45 f0             	mov    -0x10(%rbp),%eax
   16cfd:	48 98                	cltq   
   16cff:	48 8d 14 85 00 00 00 	lea    0x0(,%rax,4),%rdx
   16d06:	00 
   16d07:	48 8d 05 82 af 00 00 	lea    0xaf82(%rip),%rax        # 21c90 <g_593>
   16d0e:	8b 04 02             	mov    (%rdx,%rax,1),%eax
   16d11:	48 98                	cltq   
   16d13:	8b 55 fc             	mov    -0x4(%rbp),%edx
   16d16:	48 8d 35 58 55 00 00 	lea    0x5558(%rip),%rsi        # 1c275 <g_1979+0x1d11>
   16d1d:	48 89 c7             	mov    %rax,%rdi
   16d20:	e8 ce 49 ff ff       	callq  b6f3 <transparent_crc>
   16d25:	83 7d fc 00          	cmpl   $0x0,-0x4(%rbp)
   16d29:	74 16                	je     16d41 <main+0x1bc0>
   16d2b:	8b 45 f0             	mov    -0x10(%rbp),%eax
   16d2e:	89 c6                	mov    %eax,%esi
   16d30:	48 8d 3d 55 50 00 00 	lea    0x5055(%rip),%rdi        # 1bd8c <g_1979+0x1828>
   16d37:	b8 00 00 00 00       	mov    $0x0,%eax
   16d3c:	e8 3f 33 ff ff       	callq  a080 <printf@plt>
   16d41:	83 45 f0 01          	addl   $0x1,-0x10(%rbp)
   16d45:	83 7d f0 02          	cmpl   $0x2,-0x10(%rbp)
   16d49:	7e af                	jle    16cfa <main+0x1b79>
   16d4b:	0f b7 05 4e af 00 00 	movzwl 0xaf4e(%rip),%eax        # 21ca0 <g_627>
   16d52:	48 0f bf c0          	movswq %ax,%rax
   16d56:	8b 55 fc             	mov    -0x4(%rbp),%edx
   16d59:	48 8d 35 1e 55 00 00 	lea    0x551e(%rip),%rsi        # 1c27e <g_1979+0x1d1a>
   16d60:	48 89 c7             	mov    %rax,%rdi
   16d63:	e8 8b 49 ff ff       	callq  b6f3 <transparent_crc>
   16d68:	8b 05 36 af 00 00    	mov    0xaf36(%rip),%eax        # 21ca4 <g_627+0x4>
   16d6e:	01 c0                	add    %eax,%eax
   16d70:	d1 f8                	sar    %eax
   16d72:	48 98                	cltq   
   16d74:	8b 55 fc             	mov    -0x4(%rbp),%edx
   16d77:	48 8d 35 09 55 00 00 	lea    0x5509(%rip),%rsi        # 1c287 <g_1979+0x1d23>
   16d7e:	48 89 c7             	mov    %rax,%rdi
   16d81:	e8 6d 49 ff ff       	callq  b6f3 <transparent_crc>
   16d86:	8b 05 1c af 00 00    	mov    0xaf1c(%rip),%eax        # 21ca8 <g_627+0x8>
   16d8c:	c1 e0 04             	shl    $0x4,%eax
   16d8f:	c1 f8 04             	sar    $0x4,%eax
   16d92:	48 98                	cltq   
   16d94:	8b 55 fc             	mov    -0x4(%rbp),%edx
   16d97:	48 8d 35 f2 54 00 00 	lea    0x54f2(%rip),%rsi        # 1c290 <g_1979+0x1d2c>
   16d9e:	48 89 c7             	mov    %rax,%rdi
   16da1:	e8 4d 49 ff ff       	callq  b6f3 <transparent_crc>
   16da6:	0f b7 05 ff ae 00 00 	movzwl 0xaeff(%rip),%eax        # 21cac <g_627+0xc>
   16dad:	48 0f bf c0          	movswq %ax,%rax
   16db1:	8b 55 fc             	mov    -0x4(%rbp),%edx
   16db4:	48 8d 35 de 54 00 00 	lea    0x54de(%rip),%rsi        # 1c299 <g_1979+0x1d35>
   16dbb:	48 89 c7             	mov    %rax,%rdi
   16dbe:	e8 30 49 ff ff       	callq  b6f3 <transparent_crc>
   16dc3:	8b 05 e7 ae 00 00    	mov    0xaee7(%rip),%eax        # 21cb0 <g_637>
   16dc9:	89 c1                	mov    %eax,%ecx
   16dcb:	8b 45 fc             	mov    -0x4(%rbp),%eax
   16dce:	89 c2                	mov    %eax,%edx
   16dd0:	48 8d 35 cb 54 00 00 	lea    0x54cb(%rip),%rsi        # 1c2a2 <g_1979+0x1d3e>
   16dd7:	48 89 cf             	mov    %rcx,%rdi
   16dda:	e8 14 49 ff ff       	callq  b6f3 <transparent_crc>
   16ddf:	c7 45 f0 00 00 00 00 	movl   $0x0,-0x10(%rbp)
   16de6:	eb 77                	jmp    16e5f <main+0x1cde>
   16de8:	c7 45 f4 00 00 00 00 	movl   $0x0,-0xc(%rbp)
   16def:	eb 64                	jmp    16e55 <main+0x1cd4>
   16df1:	8b 45 f4             	mov    -0xc(%rbp),%eax
   16df4:	48 63 c8             	movslq %eax,%rcx
   16df7:	8b 45 f0             	mov    -0x10(%rbp),%eax
   16dfa:	48 63 d0             	movslq %eax,%rdx
   16dfd:	48 89 d0             	mov    %rdx,%rax
   16e00:	48 01 c0             	add    %rax,%rax
   16e03:	48 01 d0             	add    %rdx,%rax
   16e06:	48 01 c0             	add    %rax,%rax
   16e09:	48 01 c8             	add    %rcx,%rax
   16e0c:	48 8d 14 85 00 00 00 	lea    0x0(,%rax,4),%rdx
   16e13:	00 
   16e14:	48 8d 05 a5 ae 00 00 	lea    0xaea5(%rip),%rax        # 21cc0 <g_723>
   16e1b:	8b 04 02             	mov    (%rdx,%rax,1),%eax
   16e1e:	48 98                	cltq   
   16e20:	8b 55 fc             	mov    -0x4(%rbp),%edx
   16e23:	48 8d 35 7e 54 00 00 	lea    0x547e(%rip),%rsi        # 1c2a8 <g_1979+0x1d44>
   16e2a:	48 89 c7             	mov    %rax,%rdi
   16e2d:	e8 c1 48 ff ff       	callq  b6f3 <transparent_crc>
   16e32:	83 7d fc 00          	cmpl   $0x0,-0x4(%rbp)
   16e36:	74 19                	je     16e51 <main+0x1cd0>
   16e38:	8b 55 f4             	mov    -0xc(%rbp),%edx
   16e3b:	8b 45 f0             	mov    -0x10(%rbp),%eax
   16e3e:	89 c6                	mov    %eax,%esi
   16e40:	48 8d 3d e0 50 00 00 	lea    0x50e0(%rip),%rdi        # 1bf27 <g_1979+0x19c3>
   16e47:	b8 00 00 00 00       	mov    $0x0,%eax
   16e4c:	e8 2f 32 ff ff       	callq  a080 <printf@plt>
   16e51:	83 45 f4 01          	addl   $0x1,-0xc(%rbp)
   16e55:	83 7d f4 05          	cmpl   $0x5,-0xc(%rbp)
   16e59:	7e 96                	jle    16df1 <main+0x1c70>
   16e5b:	83 45 f0 01          	addl   $0x1,-0x10(%rbp)
   16e5f:	83 7d f0 03          	cmpl   $0x3,-0x10(%rbp)
   16e63:	7e 83                	jle    16de8 <main+0x1c67>
   16e65:	48 8b 05 b4 ae 00 00 	mov    0xaeb4(%rip),%rax        # 21d20 <g_755>
   16e6c:	66 25 ff 7f          	and    $0x7fff,%ax
   16e70:	0f b7 c0             	movzwl %ax,%eax
   16e73:	8b 55 fc             	mov    -0x4(%rbp),%edx
   16e76:	48 8d 35 3a 54 00 00 	lea    0x543a(%rip),%rsi        # 1c2b7 <g_1979+0x1d53>
   16e7d:	48 89 c7             	mov    %rax,%rdi
   16e80:	e8 6e 48 ff ff       	callq  b6f3 <transparent_crc>
   16e85:	8b 05 95 ae 00 00    	mov    0xae95(%rip),%eax        # 21d20 <g_755>
   16e8b:	c1 e8 0f             	shr    $0xf,%eax
   16e8e:	66 25 ff 03          	and    $0x3ff,%ax
   16e92:	0f b7 c0             	movzwl %ax,%eax
   16e95:	8b 55 fc             	mov    -0x4(%rbp),%edx
   16e98:	48 8d 35 21 54 00 00 	lea    0x5421(%rip),%rsi        # 1c2c0 <g_1979+0x1d5c>
   16e9f:	48 89 c7             	mov    %rax,%rdi
   16ea2:	e8 4c 48 ff ff       	callq  b6f3 <transparent_crc>
   16ea7:	8b 05 77 ae 00 00    	mov    0xae77(%rip),%eax        # 21d24 <g_755+0x4>
   16ead:	c1 e0 09             	shl    $0x9,%eax
   16eb0:	c1 f8 09             	sar    $0x9,%eax
   16eb3:	48 98                	cltq   
   16eb5:	8b 55 fc             	mov    -0x4(%rbp),%edx
   16eb8:	48 8d 35 0a 54 00 00 	lea    0x540a(%rip),%rsi        # 1c2c9 <g_1979+0x1d65>
   16ebf:	48 89 c7             	mov    %rax,%rdi
   16ec2:	e8 2c 48 ff ff       	callq  b6f3 <transparent_crc>
   16ec7:	48 8b 05 5a ae 00 00 	mov    0xae5a(%rip),%rax        # 21d28 <g_755+0x8>
   16ece:	c1 e0 06             	shl    $0x6,%eax
   16ed1:	66 c1 f8 06          	sar    $0x6,%ax
   16ed5:	48 0f bf c0          	movswq %ax,%rax
   16ed9:	8b 55 fc             	mov    -0x4(%rbp),%edx
   16edc:	48 8d 35 ef 53 00 00 	lea    0x53ef(%rip),%rsi        # 1c2d2 <g_1979+0x1d6e>
   16ee3:	48 89 c7             	mov    %rax,%rdi
   16ee6:	e8 08 48 ff ff       	callq  b6f3 <transparent_crc>
   16eeb:	8b 05 37 ae 00 00    	mov    0xae37(%rip),%eax        # 21d28 <g_755+0x8>
   16ef1:	c1 e8 0a             	shr    $0xa,%eax
   16ef4:	66 25 ff 1f          	and    $0x1fff,%ax
   16ef8:	0f b7 c0             	movzwl %ax,%eax
   16efb:	8b 55 fc             	mov    -0x4(%rbp),%edx
   16efe:	48 8d 35 d6 53 00 00 	lea    0x53d6(%rip),%rsi        # 1c2db <g_1979+0x1d77>
   16f05:	48 89 c7             	mov    %rax,%rdi
   16f08:	e8 e6 47 ff ff       	callq  b6f3 <transparent_crc>
   16f0d:	8b 05 19 ae 00 00    	mov    0xae19(%rip),%eax        # 21d2c <g_755+0xc>
   16f13:	89 c1                	mov    %eax,%ecx
   16f15:	8b 45 fc             	mov    -0x4(%rbp),%eax
   16f18:	89 c2                	mov    %eax,%edx
   16f1a:	48 8d 35 c3 53 00 00 	lea    0x53c3(%rip),%rsi        # 1c2e4 <g_1979+0x1d80>
   16f21:	48 89 cf             	mov    %rcx,%rdi
   16f24:	e8 ca 47 ff ff       	callq  b6f3 <transparent_crc>
   16f29:	8b 05 01 ae 00 00    	mov    0xae01(%rip),%eax        # 21d30 <g_755+0x10>
   16f2f:	25 ff ff 3f 00       	and    $0x3fffff,%eax
   16f34:	89 c1                	mov    %eax,%ecx
   16f36:	8b 45 fc             	mov    -0x4(%rbp),%eax
   16f39:	89 c2                	mov    %eax,%edx
   16f3b:	48 8d 35 ab 53 00 00 	lea    0x53ab(%rip),%rsi        # 1c2ed <g_1979+0x1d89>
   16f42:	48 89 cf             	mov    %rcx,%rdi
   16f45:	e8 a9 47 ff ff       	callq  b6f3 <transparent_crc>
   16f4a:	0f b7 05 e1 ad 00 00 	movzwl 0xade1(%rip),%eax        # 21d32 <g_755+0x12>
   16f51:	66 c1 f8 06          	sar    $0x6,%ax
   16f55:	48 0f bf c0          	movswq %ax,%rax
   16f59:	8b 55 fc             	mov    -0x4(%rbp),%edx
   16f5c:	48 8d 35 93 53 00 00 	lea    0x5393(%rip),%rsi        # 1c2f6 <g_1979+0x1d92>
   16f63:	48 89 c7             	mov    %rax,%rdi
   16f66:	e8 88 47 ff ff       	callq  b6f3 <transparent_crc>
   16f6b:	0f b6 05 c2 ad 00 00 	movzbl 0xadc2(%rip),%eax        # 21d34 <g_755+0x14>
   16f72:	c1 e0 06             	shl    $0x6,%eax
   16f75:	c0 f8 06             	sar    $0x6,%al
   16f78:	48 0f be c0          	movsbq %al,%rax
   16f7c:	8b 55 fc             	mov    -0x4(%rbp),%edx
   16f7f:	48 8d 35 79 53 00 00 	lea    0x5379(%rip),%rsi        # 1c2ff <g_1979+0x1d9b>
   16f86:	48 89 c7             	mov    %rax,%rdi
   16f89:	e8 65 47 ff ff       	callq  b6f3 <transparent_crc>
   16f8e:	8b 05 a4 ad 00 00    	mov    0xada4(%rip),%eax        # 21d38 <g_755+0x18>
   16f94:	25 ff ff ff 7f       	and    $0x7fffffff,%eax
   16f99:	89 c1                	mov    %eax,%ecx
   16f9b:	8b 45 fc             	mov    -0x4(%rbp),%eax
   16f9e:	89 c2                	mov    %eax,%edx
   16fa0:	48 8d 35 61 53 00 00 	lea    0x5361(%rip),%rsi        # 1c308 <g_1979+0x1da4>
   16fa7:	48 89 cf             	mov    %rcx,%rdi
   16faa:	e8 44 47 ff ff       	callq  b6f3 <transparent_crc>
   16faf:	8b 05 8b ad 00 00    	mov    0xad8b(%rip),%eax        # 21d40 <g_806>
   16fb5:	25 ff ff ff 7f       	and    $0x7fffffff,%eax
   16fba:	89 c1                	mov    %eax,%ecx
   16fbc:	8b 45 fc             	mov    -0x4(%rbp),%eax
   16fbf:	89 c2                	mov    %eax,%edx
   16fc1:	48 8d 35 49 53 00 00 	lea    0x5349(%rip),%rsi        # 1c311 <g_1979+0x1dad>
   16fc8:	48 89 cf             	mov    %rcx,%rdi
   16fcb:	e8 23 47 ff ff       	callq  b6f3 <transparent_crc>
   16fd0:	48 8b 05 69 ad 00 00 	mov    0xad69(%rip),%rax        # 21d40 <g_806>
   16fd7:	48 c1 e0 09          	shl    $0x9,%rax
   16fdb:	48 c1 f8 28          	sar    $0x28,%rax
   16fdf:	48 98                	cltq   
   16fe1:	8b 55 fc             	mov    -0x4(%rbp),%edx
   16fe4:	48 8d 35 2f 53 00 00 	lea    0x532f(%rip),%rsi        # 1c31a <g_1979+0x1db6>
   16feb:	48 89 c7             	mov    %rax,%rdi
   16fee:	e8 00 47 ff ff       	callq  b6f3 <transparent_crc>
   16ff3:	48 8b 05 46 ad 00 00 	mov    0xad46(%rip),%rax        # 21d40 <g_806>
   16ffa:	48 c1 e8 37          	shr    $0x37,%rax
   16ffe:	48 89 c2             	mov    %rax,%rdx
   17001:	48 8b 05 40 ad 00 00 	mov    0xad40(%rip),%rax        # 21d48 <g_806+0x8>
   17008:	25 ff ff 01 00       	and    $0x1ffff,%eax
   1700d:	48 c1 e0 09          	shl    $0x9,%rax
   17011:	48 09 d0             	or     %rdx,%rax
   17014:	48 c1 e0 26          	shl    $0x26,%rax
   17018:	48 c1 f8 26          	sar    $0x26,%rax
   1701c:	48 98                	cltq   
   1701e:	8b 55 fc             	mov    -0x4(%rbp),%edx
   17021:	48 8d 35 fb 52 00 00 	lea    0x52fb(%rip),%rsi        # 1c323 <g_1979+0x1dbf>
   17028:	48 89 c7             	mov    %rax,%rdi
   1702b:	e8 c3 46 ff ff       	callq  b6f3 <transparent_crc>
   17030:	0f b6 05 14 ad 00 00 	movzbl 0xad14(%rip),%eax        # 21d4b <g_806+0xb>
   17037:	0f b6 c0             	movzbl %al,%eax
   1703a:	8b 55 fc             	mov    -0x4(%rbp),%edx
   1703d:	48 8d 35 e8 52 00 00 	lea    0x52e8(%rip),%rsi        # 1c32c <g_1979+0x1dc8>
   17044:	48 89 c7             	mov    %rax,%rdi
   17047:	e8 a7 46 ff ff       	callq  b6f3 <transparent_crc>
   1704c:	8b 05 fa ac 00 00    	mov    0xacfa(%rip),%eax        # 21d4c <g_806+0xc>
   17052:	01 c0                	add    %eax,%eax
   17054:	d1 f8                	sar    %eax
   17056:	48 98                	cltq   
   17058:	8b 55 fc             	mov    -0x4(%rbp),%edx
   1705b:	48 8d 35 d3 52 00 00 	lea    0x52d3(%rip),%rsi        # 1c335 <g_1979+0x1dd1>
   17062:	48 89 c7             	mov    %rax,%rdi
   17065:	e8 89 46 ff ff       	callq  b6f3 <transparent_crc>
   1706a:	0f b6 05 de ac 00 00 	movzbl 0xacde(%rip),%eax        # 21d4f <g_806+0xf>
   17071:	c0 e8 07             	shr    $0x7,%al
   17074:	0f b6 c0             	movzbl %al,%eax
   17077:	0f b7 15 d2 ac 00 00 	movzwl 0xacd2(%rip),%edx        # 21d50 <g_806+0x10>
   1707e:	81 e2 ff 3f 00 00    	and    $0x3fff,%edx
   17084:	48 01 d2             	add    %rdx,%rdx
   17087:	48 09 d0             	or     %rdx,%rax
   1708a:	0f b7 c0             	movzwl %ax,%eax
   1708d:	8b 55 fc             	mov    -0x4(%rbp),%edx
   17090:	48 8d 35 a7 52 00 00 	lea    0x52a7(%rip),%rsi        # 1c33e <g_1979+0x1dda>
   17097:	48 89 c7             	mov    %rax,%rdi
   1709a:	e8 54 46 ff ff       	callq  b6f3 <transparent_crc>
   1709f:	0f b6 05 ac ac 00 00 	movzbl 0xacac(%rip),%eax        # 21d52 <g_965>
   170a6:	48 0f be c0          	movsbq %al,%rax
   170aa:	8b 55 fc             	mov    -0x4(%rbp),%edx
   170ad:	48 8d 35 93 52 00 00 	lea    0x5293(%rip),%rsi        # 1c347 <g_1979+0x1de3>
   170b4:	48 89 c7             	mov    %rax,%rdi
   170b7:	e8 37 46 ff ff       	callq  b6f3 <transparent_crc>
   170bc:	8b 05 92 ac 00 00    	mov    0xac92(%rip),%eax        # 21d54 <g_987>
   170c2:	89 c1                	mov    %eax,%ecx
   170c4:	8b 45 fc             	mov    -0x4(%rbp),%eax
   170c7:	89 c2                	mov    %eax,%edx
   170c9:	48 8d 35 7d 52 00 00 	lea    0x527d(%rip),%rsi        # 1c34d <g_1979+0x1de9>
   170d0:	48 89 cf             	mov    %rcx,%rdi
   170d3:	e8 1b 46 ff ff       	callq  b6f3 <transparent_crc>
   170d8:	8b 05 7a ac 00 00    	mov    0xac7a(%rip),%eax        # 21d58 <g_1075>
   170de:	48 98                	cltq   
   170e0:	8b 55 fc             	mov    -0x4(%rbp),%edx
   170e3:	48 8d 35 69 52 00 00 	lea    0x5269(%rip),%rsi        # 1c353 <g_1979+0x1def>
   170ea:	48 89 c7             	mov    %rax,%rdi
   170ed:	e8 01 46 ff ff       	callq  b6f3 <transparent_crc>
   170f2:	c7 45 f0 00 00 00 00 	movl   $0x0,-0x10(%rbp)
   170f9:	e9 a0 04 00 00       	jmpq   1759e <main+0x241d>
   170fe:	c7 45 f4 00 00 00 00 	movl   $0x0,-0xc(%rbp)
   17105:	e9 86 04 00 00       	jmpq   17590 <main+0x240f>
   1710a:	c7 45 f8 00 00 00 00 	movl   $0x0,-0x8(%rbp)
   17111:	e9 6c 04 00 00       	jmpq   17582 <main+0x2401>
   17116:	8b 45 f8             	mov    -0x8(%rbp),%eax
   17119:	48 98                	cltq   
   1711b:	8b 55 f4             	mov    -0xc(%rbp),%edx
   1711e:	48 63 ca             	movslq %edx,%rcx
   17121:	8b 55 f0             	mov    -0x10(%rbp),%edx
   17124:	48 63 f2             	movslq %edx,%rsi
   17127:	48 89 c2             	mov    %rax,%rdx
   1712a:	48 c1 e2 03          	shl    $0x3,%rdx
   1712e:	48 29 c2             	sub    %rax,%rdx
   17131:	48 8d 04 95 00 00 00 	lea    0x0(,%rdx,4),%rax
   17138:	00 
   17139:	48 89 c2             	mov    %rax,%rdx
   1713c:	48 89 c8             	mov    %rcx,%rax
   1713f:	48 c1 e0 02          	shl    $0x2,%rax
   17143:	48 01 c8             	add    %rcx,%rax
   17146:	48 c1 e0 02          	shl    $0x2,%rax
   1714a:	48 01 c8             	add    %rcx,%rax
   1714d:	48 c1 e0 03          	shl    $0x3,%rax
   17151:	48 01 c2             	add    %rax,%rdx
   17154:	48 69 c6 90 06 00 00 	imul   $0x690,%rsi,%rax
   1715b:	48 01 c2             	add    %rax,%rdx
   1715e:	48 8d 05 fb ab 00 00 	lea    0xabfb(%rip),%rax        # 21d60 <g_1083>
   17165:	48 01 d0             	add    %rdx,%rax
   17168:	8b 00                	mov    (%rax),%eax
   1716a:	66 25 ff 7f          	and    $0x7fff,%ax
   1716e:	0f b7 c0             	movzwl %ax,%eax
   17171:	8b 55 fc             	mov    -0x4(%rbp),%edx
   17174:	48 8d 35 e2 51 00 00 	lea    0x51e2(%rip),%rsi        # 1c35d <g_1979+0x1df9>
   1717b:	48 89 c7             	mov    %rax,%rdi
   1717e:	e8 70 45 ff ff       	callq  b6f3 <transparent_crc>
   17183:	8b 45 f8             	mov    -0x8(%rbp),%eax
   17186:	48 98                	cltq   
   17188:	8b 55 f4             	mov    -0xc(%rbp),%edx
   1718b:	48 63 ca             	movslq %edx,%rcx
   1718e:	8b 55 f0             	mov    -0x10(%rbp),%edx
   17191:	48 63 f2             	movslq %edx,%rsi
   17194:	48 89 c2             	mov    %rax,%rdx
   17197:	48 c1 e2 03          	shl    $0x3,%rdx
   1719b:	48 29 c2             	sub    %rax,%rdx
   1719e:	48 8d 04 95 00 00 00 	lea    0x0(,%rdx,4),%rax
   171a5:	00 
   171a6:	48 89 c2             	mov    %rax,%rdx
   171a9:	48 89 c8             	mov    %rcx,%rax
   171ac:	48 c1 e0 02          	shl    $0x2,%rax
   171b0:	48 01 c8             	add    %rcx,%rax
   171b3:	48 c1 e0 02          	shl    $0x2,%rax
   171b7:	48 01 c8             	add    %rcx,%rax
   171ba:	48 c1 e0 03          	shl    $0x3,%rax
   171be:	48 01 c2             	add    %rax,%rdx
   171c1:	48 69 c6 90 06 00 00 	imul   $0x690,%rsi,%rax
   171c8:	48 01 c2             	add    %rax,%rdx
   171cb:	48 8d 05 8e ab 00 00 	lea    0xab8e(%rip),%rax        # 21d60 <g_1083>
   171d2:	48 01 d0             	add    %rdx,%rax
   171d5:	8b 00                	mov    (%rax),%eax
   171d7:	c1 e8 0f             	shr    $0xf,%eax
   171da:	66 25 ff 03          	and    $0x3ff,%ax
   171de:	0f b7 c0             	movzwl %ax,%eax
   171e1:	8b 55 fc             	mov    -0x4(%rbp),%edx
   171e4:	48 8d 35 85 51 00 00 	lea    0x5185(%rip),%rsi        # 1c370 <g_1979+0x1e0c>
   171eb:	48 89 c7             	mov    %rax,%rdi
   171ee:	e8 00 45 ff ff       	callq  b6f3 <transparent_crc>
   171f3:	8b 45 f8             	mov    -0x8(%rbp),%eax
   171f6:	48 98                	cltq   
   171f8:	8b 55 f4             	mov    -0xc(%rbp),%edx
   171fb:	48 63 ca             	movslq %edx,%rcx
   171fe:	8b 55 f0             	mov    -0x10(%rbp),%edx
   17201:	48 63 f2             	movslq %edx,%rsi
   17204:	48 89 c2             	mov    %rax,%rdx
   17207:	48 c1 e2 03          	shl    $0x3,%rdx
   1720b:	48 29 c2             	sub    %rax,%rdx
   1720e:	48 8d 04 95 00 00 00 	lea    0x0(,%rdx,4),%rax
   17215:	00 
   17216:	48 89 c2             	mov    %rax,%rdx
   17219:	48 89 c8             	mov    %rcx,%rax
   1721c:	48 c1 e0 02          	shl    $0x2,%rax
   17220:	48 01 c8             	add    %rcx,%rax
   17223:	48 c1 e0 02          	shl    $0x2,%rax
   17227:	48 01 c8             	add    %rcx,%rax
   1722a:	48 c1 e0 03          	shl    $0x3,%rax
   1722e:	48 01 c2             	add    %rax,%rdx
   17231:	48 69 c6 90 06 00 00 	imul   $0x690,%rsi,%rax
   17238:	48 01 c2             	add    %rax,%rdx
   1723b:	48 8d 05 1e ab 00 00 	lea    0xab1e(%rip),%rax        # 21d60 <g_1083>
   17242:	48 01 d0             	add    %rdx,%rax
   17245:	8b 40 04             	mov    0x4(%rax),%eax
   17248:	c1 e0 09             	shl    $0x9,%eax
   1724b:	c1 f8 09             	sar    $0x9,%eax
   1724e:	48 98                	cltq   
   17250:	8b 55 fc             	mov    -0x4(%rbp),%edx
   17253:	48 8d 35 29 51 00 00 	lea    0x5129(%rip),%rsi        # 1c383 <g_1979+0x1e1f>
   1725a:	48 89 c7             	mov    %rax,%rdi
   1725d:	e8 91 44 ff ff       	callq  b6f3 <transparent_crc>
   17262:	8b 45 f8             	mov    -0x8(%rbp),%eax
   17265:	48 98                	cltq   
   17267:	8b 55 f4             	mov    -0xc(%rbp),%edx
   1726a:	48 63 ca             	movslq %edx,%rcx
   1726d:	8b 55 f0             	mov    -0x10(%rbp),%edx
   17270:	48 63 f2             	movslq %edx,%rsi
   17273:	48 89 c2             	mov    %rax,%rdx
   17276:	48 c1 e2 03          	shl    $0x3,%rdx
   1727a:	48 29 c2             	sub    %rax,%rdx
   1727d:	48 8d 04 95 00 00 00 	lea    0x0(,%rdx,4),%rax
   17284:	00 
   17285:	48 89 c2             	mov    %rax,%rdx
   17288:	48 89 c8             	mov    %rcx,%rax
   1728b:	48 c1 e0 02          	shl    $0x2,%rax
   1728f:	48 01 c8             	add    %rcx,%rax
   17292:	48 c1 e0 02          	shl    $0x2,%rax
   17296:	48 01 c8             	add    %rcx,%rax
   17299:	48 c1 e0 03          	shl    $0x3,%rax
   1729d:	48 01 c2             	add    %rax,%rdx
   172a0:	48 69 c6 90 06 00 00 	imul   $0x690,%rsi,%rax
   172a7:	48 01 c2             	add    %rax,%rdx
   172aa:	48 8d 05 af aa 00 00 	lea    0xaaaf(%rip),%rax        # 21d60 <g_1083>
   172b1:	48 01 d0             	add    %rdx,%rax
   172b4:	8b 40 08             	mov    0x8(%rax),%eax
   172b7:	c1 e0 06             	shl    $0x6,%eax
   172ba:	66 c1 f8 06          	sar    $0x6,%ax
   172be:	48 0f bf c0          	movswq %ax,%rax
   172c2:	8b 55 fc             	mov    -0x4(%rbp),%edx
   172c5:	48 8d 35 ca 50 00 00 	lea    0x50ca(%rip),%rsi        # 1c396 <g_1979+0x1e32>
   172cc:	48 89 c7             	mov    %rax,%rdi
   172cf:	e8 1f 44 ff ff       	callq  b6f3 <transparent_crc>
   172d4:	8b 45 f8             	mov    -0x8(%rbp),%eax
   172d7:	48 98                	cltq   
   172d9:	8b 55 f4             	mov    -0xc(%rbp),%edx
   172dc:	48 63 ca             	movslq %edx,%rcx
   172df:	8b 55 f0             	mov    -0x10(%rbp),%edx
   172e2:	48 63 f2             	movslq %edx,%rsi
   172e5:	48 89 c2             	mov    %rax,%rdx
   172e8:	48 c1 e2 03          	shl    $0x3,%rdx
   172ec:	48 29 c2             	sub    %rax,%rdx
   172ef:	48 8d 04 95 00 00 00 	lea    0x0(,%rdx,4),%rax
   172f6:	00 
   172f7:	48 89 c2             	mov    %rax,%rdx
   172fa:	48 89 c8             	mov    %rcx,%rax
   172fd:	48 c1 e0 02          	shl    $0x2,%rax
   17301:	48 01 c8             	add    %rcx,%rax
   17304:	48 c1 e0 02          	shl    $0x2,%rax
   17308:	48 01 c8             	add    %rcx,%rax
   1730b:	48 c1 e0 03          	shl    $0x3,%rax
   1730f:	48 01 c2             	add    %rax,%rdx
   17312:	48 69 c6 90 06 00 00 	imul   $0x690,%rsi,%rax
   17319:	48 01 c2             	add    %rax,%rdx
   1731c:	48 8d 05 3d aa 00 00 	lea    0xaa3d(%rip),%rax        # 21d60 <g_1083>
   17323:	48 01 d0             	add    %rdx,%rax
   17326:	8b 40 08             	mov    0x8(%rax),%eax
   17329:	c1 e8 0a             	shr    $0xa,%eax
   1732c:	66 25 ff 1f          	and    $0x1fff,%ax
   17330:	0f b7 c0             	movzwl %ax,%eax
   17333:	8b 55 fc             	mov    -0x4(%rbp),%edx
   17336:	48 8d 35 6c 50 00 00 	lea    0x506c(%rip),%rsi        # 1c3a9 <g_1979+0x1e45>
   1733d:	48 89 c7             	mov    %rax,%rdi
   17340:	e8 ae 43 ff ff       	callq  b6f3 <transparent_crc>
   17345:	8b 45 f8             	mov    -0x8(%rbp),%eax
   17348:	48 98                	cltq   
   1734a:	8b 55 f4             	mov    -0xc(%rbp),%edx
   1734d:	48 63 ca             	movslq %edx,%rcx
   17350:	8b 55 f0             	mov    -0x10(%rbp),%edx
   17353:	48 63 f2             	movslq %edx,%rsi
   17356:	48 89 c2             	mov    %rax,%rdx
   17359:	48 c1 e2 03          	shl    $0x3,%rdx
   1735d:	48 29 c2             	sub    %rax,%rdx
   17360:	48 8d 04 95 00 00 00 	lea    0x0(,%rdx,4),%rax
   17367:	00 
   17368:	48 89 c2             	mov    %rax,%rdx
   1736b:	48 89 c8             	mov    %rcx,%rax
   1736e:	48 c1 e0 02          	shl    $0x2,%rax
   17372:	48 01 c8             	add    %rcx,%rax
   17375:	48 c1 e0 02          	shl    $0x2,%rax
   17379:	48 01 c8             	add    %rcx,%rax
   1737c:	48 c1 e0 03          	shl    $0x3,%rax
   17380:	48 01 c2             	add    %rax,%rdx
   17383:	48 69 c6 90 06 00 00 	imul   $0x690,%rsi,%rax
   1738a:	48 01 c2             	add    %rax,%rdx
   1738d:	48 8d 05 d8 a9 00 00 	lea    0xa9d8(%rip),%rax        # 21d6c <g_1083+0xc>
   17394:	48 01 d0             	add    %rdx,%rax
   17397:	8b 00                	mov    (%rax),%eax
   17399:	89 c1                	mov    %eax,%ecx
   1739b:	8b 45 fc             	mov    -0x4(%rbp),%eax
   1739e:	89 c2                	mov    %eax,%edx
   173a0:	48 8d 35 15 50 00 00 	lea    0x5015(%rip),%rsi        # 1c3bc <g_1979+0x1e58>
   173a7:	48 89 cf             	mov    %rcx,%rdi
   173aa:	e8 44 43 ff ff       	callq  b6f3 <transparent_crc>
   173af:	8b 45 f8             	mov    -0x8(%rbp),%eax
   173b2:	48 63 c8             	movslq %eax,%rcx
   173b5:	8b 45 f4             	mov    -0xc(%rbp),%eax
   173b8:	48 63 d0             	movslq %eax,%rdx
   173bb:	8b 45 f0             	mov    -0x10(%rbp),%eax
   173be:	48 63 f0             	movslq %eax,%rsi
   173c1:	48 89 c8             	mov    %rcx,%rax
   173c4:	48 c1 e0 03          	shl    $0x3,%rax
   173c8:	48 29 c8             	sub    %rcx,%rax
   173cb:	48 c1 e0 02          	shl    $0x2,%rax
   173cf:	48 69 ce 90 06 00 00 	imul   $0x690,%rsi,%rcx
   173d6:	48 01 c1             	add    %rax,%rcx
   173d9:	48 89 d0             	mov    %rdx,%rax
   173dc:	48 c1 e0 02          	shl    $0x2,%rax
   173e0:	48 01 d0             	add    %rdx,%rax
   173e3:	48 c1 e0 02          	shl    $0x2,%rax
   173e7:	48 01 d0             	add    %rdx,%rax
   173ea:	48 c1 e0 03          	shl    $0x3,%rax
   173ee:	48 8d 14 01          	lea    (%rcx,%rax,1),%rdx
   173f2:	48 8d 05 77 a9 00 00 	lea    0xa977(%rip),%rax        # 21d70 <g_1083+0x10>
   173f9:	48 01 d0             	add    %rdx,%rax
   173fc:	8b 00                	mov    (%rax),%eax
   173fe:	25 ff ff 3f 00       	and    $0x3fffff,%eax
   17403:	89 c1                	mov    %eax,%ecx
   17405:	8b 45 fc             	mov    -0x4(%rbp),%eax
   17408:	89 c2                	mov    %eax,%edx
   1740a:	48 8d 35 be 4f 00 00 	lea    0x4fbe(%rip),%rsi        # 1c3cf <g_1979+0x1e6b>
   17411:	48 89 cf             	mov    %rcx,%rdi
   17414:	e8 da 42 ff ff       	callq  b6f3 <transparent_crc>
   17419:	8b 45 f8             	mov    -0x8(%rbp),%eax
   1741c:	48 63 c8             	movslq %eax,%rcx
   1741f:	8b 45 f4             	mov    -0xc(%rbp),%eax
   17422:	48 63 d0             	movslq %eax,%rdx
   17425:	8b 45 f0             	mov    -0x10(%rbp),%eax
   17428:	48 63 f0             	movslq %eax,%rsi
   1742b:	48 89 c8             	mov    %rcx,%rax
   1742e:	48 c1 e0 03          	shl    $0x3,%rax
   17432:	48 29 c8             	sub    %rcx,%rax
   17435:	48 c1 e0 02          	shl    $0x2,%rax
   17439:	48 69 ce 90 06 00 00 	imul   $0x690,%rsi,%rcx
   17440:	48 01 c1             	add    %rax,%rcx
   17443:	48 89 d0             	mov    %rdx,%rax
   17446:	48 c1 e0 02          	shl    $0x2,%rax
   1744a:	48 01 d0             	add    %rdx,%rax
   1744d:	48 c1 e0 02          	shl    $0x2,%rax
   17451:	48 01 d0             	add    %rdx,%rax
   17454:	48 c1 e0 03          	shl    $0x3,%rax
   17458:	48 8d 14 01          	lea    (%rcx,%rax,1),%rdx
   1745c:	48 8d 05 0d a9 00 00 	lea    0xa90d(%rip),%rax        # 21d70 <g_1083+0x10>
   17463:	48 01 d0             	add    %rdx,%rax
   17466:	0f b7 40 02          	movzwl 0x2(%rax),%eax
   1746a:	66 c1 f8 06          	sar    $0x6,%ax
   1746e:	48 0f bf c0          	movswq %ax,%rax
   17472:	8b 55 fc             	mov    -0x4(%rbp),%edx
   17475:	48 8d 35 66 4f 00 00 	lea    0x4f66(%rip),%rsi        # 1c3e2 <g_1979+0x1e7e>
   1747c:	48 89 c7             	mov    %rax,%rdi
   1747f:	e8 6f 42 ff ff       	callq  b6f3 <transparent_crc>
   17484:	8b 45 f8             	mov    -0x8(%rbp),%eax
   17487:	48 63 c8             	movslq %eax,%rcx
   1748a:	8b 45 f4             	mov    -0xc(%rbp),%eax
   1748d:	48 63 d0             	movslq %eax,%rdx
   17490:	8b 45 f0             	mov    -0x10(%rbp),%eax
   17493:	48 63 f0             	movslq %eax,%rsi
   17496:	48 89 c8             	mov    %rcx,%rax
   17499:	48 c1 e0 03          	shl    $0x3,%rax
   1749d:	48 29 c8             	sub    %rcx,%rax
   174a0:	48 c1 e0 02          	shl    $0x2,%rax
   174a4:	48 69 ce 90 06 00 00 	imul   $0x690,%rsi,%rcx
   174ab:	48 01 c1             	add    %rax,%rcx
   174ae:	48 89 d0             	mov    %rdx,%rax
   174b1:	48 c1 e0 02          	shl    $0x2,%rax
   174b5:	48 01 d0             	add    %rdx,%rax
   174b8:	48 c1 e0 02          	shl    $0x2,%rax
   174bc:	48 01 d0             	add    %rdx,%rax
   174bf:	48 c1 e0 03          	shl    $0x3,%rax
   174c3:	48 8d 14 01          	lea    (%rcx,%rax,1),%rdx
   174c7:	48 8d 05 a2 a8 00 00 	lea    0xa8a2(%rip),%rax        # 21d70 <g_1083+0x10>
   174ce:	48 01 d0             	add    %rdx,%rax
   174d1:	0f b6 40 04          	movzbl 0x4(%rax),%eax
   174d5:	c1 e0 06             	shl    $0x6,%eax
   174d8:	c0 f8 06             	sar    $0x6,%al
   174db:	48 0f be c0          	movsbq %al,%rax
   174df:	8b 55 fc             	mov    -0x4(%rbp),%edx
   174e2:	48 8d 35 0c 4f 00 00 	lea    0x4f0c(%rip),%rsi        # 1c3f5 <g_1979+0x1e91>
   174e9:	48 89 c7             	mov    %rax,%rdi
   174ec:	e8 02 42 ff ff       	callq  b6f3 <transparent_crc>
   174f1:	8b 45 f8             	mov    -0x8(%rbp),%eax
   174f4:	48 63 c8             	movslq %eax,%rcx
   174f7:	8b 45 f4             	mov    -0xc(%rbp),%eax
   174fa:	48 63 d0             	movslq %eax,%rdx
   174fd:	8b 45 f0             	mov    -0x10(%rbp),%eax
   17500:	48 63 f0             	movslq %eax,%rsi
   17503:	48 89 c8             	mov    %rcx,%rax
   17506:	48 c1 e0 03          	shl    $0x3,%rax
   1750a:	48 29 c8             	sub    %rcx,%rax
   1750d:	48 c1 e0 02          	shl    $0x2,%rax
   17511:	48 69 ce 90 06 00 00 	imul   $0x690,%rsi,%rcx
   17518:	48 01 c1             	add    %rax,%rcx
   1751b:	48 89 d0             	mov    %rdx,%rax
   1751e:	48 c1 e0 02          	shl    $0x2,%rax
   17522:	48 01 d0             	add    %rdx,%rax
   17525:	48 c1 e0 02          	shl    $0x2,%rax
   17529:	48 01 d0             	add    %rdx,%rax
   1752c:	48 c1 e0 03          	shl    $0x3,%rax
   17530:	48 8d 14 01          	lea    (%rcx,%rax,1),%rdx
   17534:	48 8d 05 35 a8 00 00 	lea    0xa835(%rip),%rax        # 21d70 <g_1083+0x10>
   1753b:	48 01 d0             	add    %rdx,%rax
   1753e:	8b 40 08             	mov    0x8(%rax),%eax
   17541:	25 ff ff ff 7f       	and    $0x7fffffff,%eax
   17546:	89 c1                	mov    %eax,%ecx
   17548:	8b 45 fc             	mov    -0x4(%rbp),%eax
   1754b:	89 c2                	mov    %eax,%edx
   1754d:	48 8d 35 b4 4e 00 00 	lea    0x4eb4(%rip),%rsi        # 1c408 <g_1979+0x1ea4>
   17554:	48 89 cf             	mov    %rcx,%rdi
   17557:	e8 97 41 ff ff       	callq  b6f3 <transparent_crc>
   1755c:	83 7d fc 00          	cmpl   $0x0,-0x4(%rbp)
   17560:	74 1c                	je     1757e <main+0x23fd>
   17562:	8b 4d f8             	mov    -0x8(%rbp),%ecx
   17565:	8b 55 f4             	mov    -0xc(%rbp),%edx
   17568:	8b 45 f0             	mov    -0x10(%rbp),%eax
   1756b:	89 c6                	mov    %eax,%esi
   1756d:	48 8d 3d 4d 48 00 00 	lea    0x484d(%rip),%rdi        # 1bdc1 <g_1979+0x185d>
   17574:	b8 00 00 00 00       	mov    $0x0,%eax
   17579:	e8 02 2b ff ff       	callq  a080 <printf@plt>
   1757e:	83 45 f8 01          	addl   $0x1,-0x8(%rbp)
   17582:	83 7d f8 05          	cmpl   $0x5,-0x8(%rbp)
   17586:	0f 8e 8a fb ff ff    	jle    17116 <main+0x1f95>
   1758c:	83 45 f4 01          	addl   $0x1,-0xc(%rbp)
   17590:	83 7d f4 09          	cmpl   $0x9,-0xc(%rbp)
   17594:	0f 8e 70 fb ff ff    	jle    1710a <main+0x1f89>
   1759a:	83 45 f0 01          	addl   $0x1,-0x10(%rbp)
   1759e:	83 7d f0 03          	cmpl   $0x3,-0x10(%rbp)
   175a2:	0f 8e 56 fb ff ff    	jle    170fe <main+0x1f7d>
   175a8:	48 8b 05 f1 c1 00 00 	mov    0xc1f1(%rip),%rax        # 237a0 <g_1091>
   175af:	66 25 ff 7f          	and    $0x7fff,%ax
   175b3:	0f b7 c0             	movzwl %ax,%eax
   175b6:	8b 55 fc             	mov    -0x4(%rbp),%edx
   175b9:	48 8d 35 5b 4e 00 00 	lea    0x4e5b(%rip),%rsi        # 1c41b <g_1979+0x1eb7>
   175c0:	48 89 c7             	mov    %rax,%rdi
   175c3:	e8 2b 41 ff ff       	callq  b6f3 <transparent_crc>
   175c8:	8b 05 d2 c1 00 00    	mov    0xc1d2(%rip),%eax        # 237a0 <g_1091>
   175ce:	c1 e8 0f             	shr    $0xf,%eax
   175d1:	66 25 ff 03          	and    $0x3ff,%ax
   175d5:	0f b7 c0             	movzwl %ax,%eax
   175d8:	8b 55 fc             	mov    -0x4(%rbp),%edx
   175db:	48 8d 35 43 4e 00 00 	lea    0x4e43(%rip),%rsi        # 1c425 <g_1979+0x1ec1>
   175e2:	48 89 c7             	mov    %rax,%rdi
   175e5:	e8 09 41 ff ff       	callq  b6f3 <transparent_crc>
   175ea:	8b 05 b4 c1 00 00    	mov    0xc1b4(%rip),%eax        # 237a4 <g_1091+0x4>
   175f0:	c1 e0 09             	shl    $0x9,%eax
   175f3:	c1 f8 09             	sar    $0x9,%eax
   175f6:	48 98                	cltq   
   175f8:	8b 55 fc             	mov    -0x4(%rbp),%edx
   175fb:	48 8d 35 2d 4e 00 00 	lea    0x4e2d(%rip),%rsi        # 1c42f <g_1979+0x1ecb>
   17602:	48 89 c7             	mov    %rax,%rdi
   17605:	e8 e9 40 ff ff       	callq  b6f3 <transparent_crc>
   1760a:	48 8b 05 97 c1 00 00 	mov    0xc197(%rip),%rax        # 237a8 <g_1091+0x8>
   17611:	c1 e0 06             	shl    $0x6,%eax
   17614:	66 c1 f8 06          	sar    $0x6,%ax
   17618:	48 0f bf c0          	movswq %ax,%rax
   1761c:	8b 55 fc             	mov    -0x4(%rbp),%edx
   1761f:	48 8d 35 13 4e 00 00 	lea    0x4e13(%rip),%rsi        # 1c439 <g_1979+0x1ed5>
   17626:	48 89 c7             	mov    %rax,%rdi
   17629:	e8 c5 40 ff ff       	callq  b6f3 <transparent_crc>
   1762e:	8b 05 74 c1 00 00    	mov    0xc174(%rip),%eax        # 237a8 <g_1091+0x8>
   17634:	c1 e8 0a             	shr    $0xa,%eax
   17637:	66 25 ff 1f          	and    $0x1fff,%ax
   1763b:	0f b7 c0             	movzwl %ax,%eax
   1763e:	8b 55 fc             	mov    -0x4(%rbp),%edx
   17641:	48 8d 35 fb 4d 00 00 	lea    0x4dfb(%rip),%rsi        # 1c443 <g_1979+0x1edf>
   17648:	48 89 c7             	mov    %rax,%rdi
   1764b:	e8 a3 40 ff ff       	callq  b6f3 <transparent_crc>
   17650:	8b 05 56 c1 00 00    	mov    0xc156(%rip),%eax        # 237ac <g_1091+0xc>
   17656:	89 c1                	mov    %eax,%ecx
   17658:	8b 45 fc             	mov    -0x4(%rbp),%eax
   1765b:	89 c2                	mov    %eax,%edx
   1765d:	48 8d 35 e9 4d 00 00 	lea    0x4de9(%rip),%rsi        # 1c44d <g_1979+0x1ee9>
   17664:	48 89 cf             	mov    %rcx,%rdi
   17667:	e8 87 40 ff ff       	callq  b6f3 <transparent_crc>
   1766c:	8b 05 3e c1 00 00    	mov    0xc13e(%rip),%eax        # 237b0 <g_1091+0x10>
   17672:	25 ff ff 3f 00       	and    $0x3fffff,%eax
   17677:	89 c1                	mov    %eax,%ecx
   17679:	8b 45 fc             	mov    -0x4(%rbp),%eax
   1767c:	89 c2                	mov    %eax,%edx
   1767e:	48 8d 35 d2 4d 00 00 	lea    0x4dd2(%rip),%rsi        # 1c457 <g_1979+0x1ef3>
   17685:	48 89 cf             	mov    %rcx,%rdi
   17688:	e8 66 40 ff ff       	callq  b6f3 <transparent_crc>
   1768d:	0f b7 05 1e c1 00 00 	movzwl 0xc11e(%rip),%eax        # 237b2 <g_1091+0x12>
   17694:	66 c1 f8 06          	sar    $0x6,%ax
   17698:	48 0f bf c0          	movswq %ax,%rax
   1769c:	8b 55 fc             	mov    -0x4(%rbp),%edx
   1769f:	48 8d 35 bb 4d 00 00 	lea    0x4dbb(%rip),%rsi        # 1c461 <g_1979+0x1efd>
   176a6:	48 89 c7             	mov    %rax,%rdi
   176a9:	e8 45 40 ff ff       	callq  b6f3 <transparent_crc>
   176ae:	0f b6 05 ff c0 00 00 	movzbl 0xc0ff(%rip),%eax        # 237b4 <g_1091+0x14>
   176b5:	c1 e0 06             	shl    $0x6,%eax
   176b8:	c0 f8 06             	sar    $0x6,%al
   176bb:	48 0f be c0          	movsbq %al,%rax
   176bf:	8b 55 fc             	mov    -0x4(%rbp),%edx
   176c2:	48 8d 35 a2 4d 00 00 	lea    0x4da2(%rip),%rsi        # 1c46b <g_1979+0x1f07>
   176c9:	48 89 c7             	mov    %rax,%rdi
   176cc:	e8 22 40 ff ff       	callq  b6f3 <transparent_crc>
   176d1:	8b 05 e1 c0 00 00    	mov    0xc0e1(%rip),%eax        # 237b8 <g_1091+0x18>
   176d7:	25 ff ff ff 7f       	and    $0x7fffffff,%eax
   176dc:	89 c1                	mov    %eax,%ecx
   176de:	8b 45 fc             	mov    -0x4(%rbp),%eax
   176e1:	89 c2                	mov    %eax,%edx
   176e3:	48 8d 35 8b 4d 00 00 	lea    0x4d8b(%rip),%rsi        # 1c475 <g_1979+0x1f11>
   176ea:	48 89 cf             	mov    %rcx,%rdi
   176ed:	e8 01 40 ff ff       	callq  b6f3 <transparent_crc>
   176f2:	8b 05 c4 c0 00 00    	mov    0xc0c4(%rip),%eax        # 237bc <g_1097>
   176f8:	48 98                	cltq   
   176fa:	8b 55 fc             	mov    -0x4(%rbp),%edx
   176fd:	48 8d 35 7b 4d 00 00 	lea    0x4d7b(%rip),%rsi        # 1c47f <g_1979+0x1f1b>
   17704:	48 89 c7             	mov    %rax,%rdi
   17707:	e8 e7 3f ff ff       	callq  b6f3 <transparent_crc>
   1770c:	8b 05 b6 c0 00 00    	mov    0xc0b6(%rip),%eax        # 237c8 <g_1149>
   17712:	48 98                	cltq   
   17714:	8b 55 fc             	mov    -0x4(%rbp),%edx
   17717:	48 8d 35 68 4d 00 00 	lea    0x4d68(%rip),%rsi        # 1c486 <g_1979+0x1f22>
   1771e:	48 89 c7             	mov    %rax,%rdi
   17721:	e8 cd 3f ff ff       	callq  b6f3 <transparent_crc>
   17726:	48 8b 05 a3 c0 00 00 	mov    0xc0a3(%rip),%rax        # 237d0 <g_1156>
   1772d:	25 ff ff ff 7f       	and    $0x7fffffff,%eax
   17732:	89 c1                	mov    %eax,%ecx
   17734:	8b 45 fc             	mov    -0x4(%rbp),%eax
   17737:	89 c2                	mov    %eax,%edx
   17739:	48 8d 35 50 4d 00 00 	lea    0x4d50(%rip),%rsi        # 1c490 <g_1979+0x1f2c>
   17740:	48 89 cf             	mov    %rcx,%rdi
   17743:	e8 ab 3f ff ff       	callq  b6f3 <transparent_crc>
   17748:	48 8b 05 81 c0 00 00 	mov    0xc081(%rip),%rax        # 237d0 <g_1156>
   1774f:	48 c1 e0 09          	shl    $0x9,%rax
   17753:	48 c1 f8 28          	sar    $0x28,%rax
   17757:	48 98                	cltq   
   17759:	8b 55 fc             	mov    -0x4(%rbp),%edx
   1775c:	48 8d 35 37 4d 00 00 	lea    0x4d37(%rip),%rsi        # 1c49a <g_1979+0x1f36>
   17763:	48 89 c7             	mov    %rax,%rdi
   17766:	e8 88 3f ff ff       	callq  b6f3 <transparent_crc>
   1776b:	48 8b 05 5e c0 00 00 	mov    0xc05e(%rip),%rax        # 237d0 <g_1156>
   17772:	48 c1 e8 37          	shr    $0x37,%rax
   17776:	48 89 c2             	mov    %rax,%rdx
   17779:	48 8b 05 58 c0 00 00 	mov    0xc058(%rip),%rax        # 237d8 <g_1156+0x8>
   17780:	25 ff ff 01 00       	and    $0x1ffff,%eax
   17785:	48 c1 e0 09          	shl    $0x9,%rax
   17789:	48 09 d0             	or     %rdx,%rax
   1778c:	48 c1 e0 26          	shl    $0x26,%rax
   17790:	48 c1 f8 26          	sar    $0x26,%rax
   17794:	48 98                	cltq   
   17796:	8b 55 fc             	mov    -0x4(%rbp),%edx
   17799:	48 8d 35 04 4d 00 00 	lea    0x4d04(%rip),%rsi        # 1c4a4 <g_1979+0x1f40>
   177a0:	48 89 c7             	mov    %rax,%rdi
   177a3:	e8 4b 3f ff ff       	callq  b6f3 <transparent_crc>
   177a8:	0f b6 05 2c c0 00 00 	movzbl 0xc02c(%rip),%eax        # 237db <g_1156+0xb>
   177af:	0f b6 c0             	movzbl %al,%eax
   177b2:	8b 55 fc             	mov    -0x4(%rbp),%edx
   177b5:	48 8d 35 f2 4c 00 00 	lea    0x4cf2(%rip),%rsi        # 1c4ae <g_1979+0x1f4a>
   177bc:	48 89 c7             	mov    %rax,%rdi
   177bf:	e8 2f 3f ff ff       	callq  b6f3 <transparent_crc>
   177c4:	48 8b 05 0d c0 00 00 	mov    0xc00d(%rip),%rax        # 237d8 <g_1156+0x8>
   177cb:	48 01 c0             	add    %rax,%rax
   177ce:	48 c1 f8 21          	sar    $0x21,%rax
   177d2:	48 98                	cltq   
   177d4:	8b 55 fc             	mov    -0x4(%rbp),%edx
   177d7:	48 8d 35 da 4c 00 00 	lea    0x4cda(%rip),%rsi        # 1c4b8 <g_1979+0x1f54>
   177de:	48 89 c7             	mov    %rax,%rdi
   177e1:	e8 0d 3f ff ff       	callq  b6f3 <transparent_crc>
   177e6:	48 8b 05 eb bf 00 00 	mov    0xbfeb(%rip),%rax        # 237d8 <g_1156+0x8>
   177ed:	48 c1 e8 3f          	shr    $0x3f,%rax
   177f1:	48 89 c2             	mov    %rax,%rdx
   177f4:	48 8b 05 e5 bf 00 00 	mov    0xbfe5(%rip),%rax        # 237e0 <g_1156+0x10>
   177fb:	25 ff 3f 00 00       	and    $0x3fff,%eax
   17800:	48 01 c0             	add    %rax,%rax
   17803:	48 09 d0             	or     %rdx,%rax
   17806:	0f b7 c0             	movzwl %ax,%eax
   17809:	8b 55 fc             	mov    -0x4(%rbp),%edx
   1780c:	48 8d 35 af 4c 00 00 	lea    0x4caf(%rip),%rsi        # 1c4c2 <g_1979+0x1f5e>
   17813:	48 89 c7             	mov    %rax,%rdi
   17816:	e8 d8 3e ff ff       	callq  b6f3 <transparent_crc>
   1781b:	8b 05 cf bf 00 00    	mov    0xbfcf(%rip),%eax        # 237f0 <g_1166>
   17821:	25 ff ff ff 7f       	and    $0x7fffffff,%eax
   17826:	89 c1                	mov    %eax,%ecx
   17828:	8b 45 fc             	mov    -0x4(%rbp),%eax
   1782b:	89 c2                	mov    %eax,%edx
   1782d:	48 8d 35 98 4c 00 00 	lea    0x4c98(%rip),%rsi        # 1c4cc <g_1979+0x1f68>
   17834:	48 89 cf             	mov    %rcx,%rdi
   17837:	e8 b7 3e ff ff       	callq  b6f3 <transparent_crc>
   1783c:	48 8b 05 ad bf 00 00 	mov    0xbfad(%rip),%rax        # 237f0 <g_1166>
   17843:	48 c1 e0 09          	shl    $0x9,%rax
   17847:	48 c1 f8 28          	sar    $0x28,%rax
   1784b:	48 98                	cltq   
   1784d:	8b 55 fc             	mov    -0x4(%rbp),%edx
   17850:	48 8d 35 7f 4c 00 00 	lea    0x4c7f(%rip),%rsi        # 1c4d6 <g_1979+0x1f72>
   17857:	48 89 c7             	mov    %rax,%rdi
   1785a:	e8 94 3e ff ff       	callq  b6f3 <transparent_crc>
   1785f:	48 8b 05 8a bf 00 00 	mov    0xbf8a(%rip),%rax        # 237f0 <g_1166>
   17866:	48 c1 e8 37          	shr    $0x37,%rax
   1786a:	48 89 c2             	mov    %rax,%rdx
   1786d:	48 8b 05 84 bf 00 00 	mov    0xbf84(%rip),%rax        # 237f8 <g_1166+0x8>
   17874:	25 ff ff 01 00       	and    $0x1ffff,%eax
   17879:	48 c1 e0 09          	shl    $0x9,%rax
   1787d:	48 09 d0             	or     %rdx,%rax
   17880:	48 c1 e0 26          	shl    $0x26,%rax
   17884:	48 c1 f8 26          	sar    $0x26,%rax
   17888:	48 98                	cltq   
   1788a:	8b 55 fc             	mov    -0x4(%rbp),%edx
   1788d:	48 8d 35 4c 4c 00 00 	lea    0x4c4c(%rip),%rsi        # 1c4e0 <g_1979+0x1f7c>
   17894:	48 89 c7             	mov    %rax,%rdi
   17897:	e8 57 3e ff ff       	callq  b6f3 <transparent_crc>
   1789c:	0f b6 05 58 bf 00 00 	movzbl 0xbf58(%rip),%eax        # 237fb <g_1166+0xb>
   178a3:	0f b6 c0             	movzbl %al,%eax
   178a6:	8b 55 fc             	mov    -0x4(%rbp),%edx
   178a9:	48 8d 35 3a 4c 00 00 	lea    0x4c3a(%rip),%rsi        # 1c4ea <g_1979+0x1f86>
   178b0:	48 89 c7             	mov    %rax,%rdi
   178b3:	e8 3b 3e ff ff       	callq  b6f3 <transparent_crc>
   178b8:	8b 05 3e bf 00 00    	mov    0xbf3e(%rip),%eax        # 237fc <g_1166+0xc>
   178be:	01 c0                	add    %eax,%eax
   178c0:	d1 f8                	sar    %eax
   178c2:	48 98                	cltq   
   178c4:	8b 55 fc             	mov    -0x4(%rbp),%edx
   178c7:	48 8d 35 26 4c 00 00 	lea    0x4c26(%rip),%rsi        # 1c4f4 <g_1979+0x1f90>
   178ce:	48 89 c7             	mov    %rax,%rdi
   178d1:	e8 1d 3e ff ff       	callq  b6f3 <transparent_crc>
   178d6:	0f b6 05 22 bf 00 00 	movzbl 0xbf22(%rip),%eax        # 237ff <g_1166+0xf>
   178dd:	c0 e8 07             	shr    $0x7,%al
   178e0:	0f b6 c0             	movzbl %al,%eax
   178e3:	0f b7 15 16 bf 00 00 	movzwl 0xbf16(%rip),%edx        # 23800 <g_1166+0x10>
   178ea:	81 e2 ff 3f 00 00    	and    $0x3fff,%edx
   178f0:	48 01 d2             	add    %rdx,%rdx
   178f3:	48 09 d0             	or     %rdx,%rax
   178f6:	0f b7 c0             	movzwl %ax,%eax
   178f9:	8b 55 fc             	mov    -0x4(%rbp),%edx
   178fc:	48 8d 35 fb 4b 00 00 	lea    0x4bfb(%rip),%rsi        # 1c4fe <g_1979+0x1f9a>
   17903:	48 89 c7             	mov    %rax,%rdi
   17906:	e8 e8 3d ff ff       	callq  b6f3 <transparent_crc>
   1790b:	8b 05 ff be 00 00    	mov    0xbeff(%rip),%eax        # 23810 <g_1169>
   17911:	25 ff ff ff 7f       	and    $0x7fffffff,%eax
   17916:	89 c1                	mov    %eax,%ecx
   17918:	8b 45 fc             	mov    -0x4(%rbp),%eax
   1791b:	89 c2                	mov    %eax,%edx
   1791d:	48 8d 35 e4 4b 00 00 	lea    0x4be4(%rip),%rsi        # 1c508 <g_1979+0x1fa4>
   17924:	48 89 cf             	mov    %rcx,%rdi
   17927:	e8 c7 3d ff ff       	callq  b6f3 <transparent_crc>
   1792c:	48 8b 05 dd be 00 00 	mov    0xbedd(%rip),%rax        # 23810 <g_1169>
   17933:	48 c1 e0 09          	shl    $0x9,%rax
   17937:	48 c1 f8 28          	sar    $0x28,%rax
   1793b:	48 98                	cltq   
   1793d:	8b 55 fc             	mov    -0x4(%rbp),%edx
   17940:	48 8d 35 cb 4b 00 00 	lea    0x4bcb(%rip),%rsi        # 1c512 <g_1979+0x1fae>
   17947:	48 89 c7             	mov    %rax,%rdi
   1794a:	e8 a4 3d ff ff       	callq  b6f3 <transparent_crc>
   1794f:	48 8b 05 ba be 00 00 	mov    0xbeba(%rip),%rax        # 23810 <g_1169>
   17956:	48 c1 e8 37          	shr    $0x37,%rax
   1795a:	48 89 c2             	mov    %rax,%rdx
   1795d:	48 8b 05 b4 be 00 00 	mov    0xbeb4(%rip),%rax        # 23818 <g_1169+0x8>
   17964:	25 ff ff 01 00       	and    $0x1ffff,%eax
   17969:	48 c1 e0 09          	shl    $0x9,%rax
   1796d:	48 09 d0             	or     %rdx,%rax
   17970:	48 c1 e0 26          	shl    $0x26,%rax
   17974:	48 c1 f8 26          	sar    $0x26,%rax
   17978:	48 98                	cltq   
   1797a:	8b 55 fc             	mov    -0x4(%rbp),%edx
   1797d:	48 8d 35 98 4b 00 00 	lea    0x4b98(%rip),%rsi        # 1c51c <g_1979+0x1fb8>
   17984:	48 89 c7             	mov    %rax,%rdi
   17987:	e8 67 3d ff ff       	callq  b6f3 <transparent_crc>
   1798c:	0f b6 05 88 be 00 00 	movzbl 0xbe88(%rip),%eax        # 2381b <g_1169+0xb>
   17993:	0f b6 c0             	movzbl %al,%eax
   17996:	8b 55 fc             	mov    -0x4(%rbp),%edx
   17999:	48 8d 35 86 4b 00 00 	lea    0x4b86(%rip),%rsi        # 1c526 <g_1979+0x1fc2>
   179a0:	48 89 c7             	mov    %rax,%rdi
   179a3:	e8 4b 3d ff ff       	callq  b6f3 <transparent_crc>
   179a8:	8b 05 6e be 00 00    	mov    0xbe6e(%rip),%eax        # 2381c <g_1169+0xc>
   179ae:	01 c0                	add    %eax,%eax
   179b0:	d1 f8                	sar    %eax
   179b2:	48 98                	cltq   
   179b4:	8b 55 fc             	mov    -0x4(%rbp),%edx
   179b7:	48 8d 35 72 4b 00 00 	lea    0x4b72(%rip),%rsi        # 1c530 <g_1979+0x1fcc>
   179be:	48 89 c7             	mov    %rax,%rdi
   179c1:	e8 2d 3d ff ff       	callq  b6f3 <transparent_crc>
   179c6:	0f b6 05 52 be 00 00 	movzbl 0xbe52(%rip),%eax        # 2381f <g_1169+0xf>
   179cd:	c0 e8 07             	shr    $0x7,%al
   179d0:	0f b6 c0             	movzbl %al,%eax
   179d3:	0f b7 15 46 be 00 00 	movzwl 0xbe46(%rip),%edx        # 23820 <g_1169+0x10>
   179da:	81 e2 ff 3f 00 00    	and    $0x3fff,%edx
   179e0:	48 01 d2             	add    %rdx,%rdx
   179e3:	48 09 d0             	or     %rdx,%rax
   179e6:	0f b7 c0             	movzwl %ax,%eax
   179e9:	8b 55 fc             	mov    -0x4(%rbp),%edx
   179ec:	48 8d 35 47 4b 00 00 	lea    0x4b47(%rip),%rsi        # 1c53a <g_1979+0x1fd6>
   179f3:	48 89 c7             	mov    %rax,%rdi
   179f6:	e8 f8 3c ff ff       	callq  b6f3 <transparent_crc>
   179fb:	0f b7 05 2e be 00 00 	movzwl 0xbe2e(%rip),%eax        # 23830 <g_1174>
   17a02:	48 0f bf c0          	movswq %ax,%rax
   17a06:	8b 55 fc             	mov    -0x4(%rbp),%edx
   17a09:	48 8d 35 34 4b 00 00 	lea    0x4b34(%rip),%rsi        # 1c544 <g_1979+0x1fe0>
   17a10:	48 89 c7             	mov    %rax,%rdi
   17a13:	e8 db 3c ff ff       	callq  b6f3 <transparent_crc>
   17a18:	8b 05 16 be 00 00    	mov    0xbe16(%rip),%eax        # 23834 <g_1174+0x4>
   17a1e:	01 c0                	add    %eax,%eax
   17a20:	d1 f8                	sar    %eax
   17a22:	48 98                	cltq   
   17a24:	8b 55 fc             	mov    -0x4(%rbp),%edx
   17a27:	48 8d 35 20 4b 00 00 	lea    0x4b20(%rip),%rsi        # 1c54e <g_1979+0x1fea>
   17a2e:	48 89 c7             	mov    %rax,%rdi
   17a31:	e8 bd 3c ff ff       	callq  b6f3 <transparent_crc>
   17a36:	8b 05 fc bd 00 00    	mov    0xbdfc(%rip),%eax        # 23838 <g_1174+0x8>
   17a3c:	c1 e0 04             	shl    $0x4,%eax
   17a3f:	c1 f8 04             	sar    $0x4,%eax
   17a42:	48 98                	cltq   
   17a44:	8b 55 fc             	mov    -0x4(%rbp),%edx
   17a47:	48 8d 35 0a 4b 00 00 	lea    0x4b0a(%rip),%rsi        # 1c558 <g_1979+0x1ff4>
   17a4e:	48 89 c7             	mov    %rax,%rdi
   17a51:	e8 9d 3c ff ff       	callq  b6f3 <transparent_crc>
   17a56:	0f b7 05 df bd 00 00 	movzwl 0xbddf(%rip),%eax        # 2383c <g_1174+0xc>
   17a5d:	48 0f bf c0          	movswq %ax,%rax
   17a61:	8b 55 fc             	mov    -0x4(%rbp),%edx
   17a64:	48 8d 35 f7 4a 00 00 	lea    0x4af7(%rip),%rsi        # 1c562 <g_1979+0x1ffe>
   17a6b:	48 89 c7             	mov    %rax,%rdi
   17a6e:	e8 80 3c ff ff       	callq  b6f3 <transparent_crc>
   17a73:	0f b7 05 c6 bd 00 00 	movzwl 0xbdc6(%rip),%eax        # 23840 <g_1227>
   17a7a:	48 0f bf c0          	movswq %ax,%rax
   17a7e:	8b 55 fc             	mov    -0x4(%rbp),%edx
   17a81:	48 8d 35 e4 4a 00 00 	lea    0x4ae4(%rip),%rsi        # 1c56c <g_1979+0x2008>
   17a88:	48 89 c7             	mov    %rax,%rdi
   17a8b:	e8 63 3c ff ff       	callq  b6f3 <transparent_crc>
   17a90:	48 8b 05 a9 bd 00 00 	mov    0xbda9(%rip),%rax        # 23840 <g_1227>
   17a97:	48 01 c0             	add    %rax,%rax
   17a9a:	48 c1 f8 21          	sar    $0x21,%rax
   17a9e:	48 98                	cltq   
   17aa0:	8b 55 fc             	mov    -0x4(%rbp),%edx
   17aa3:	48 8d 35 cc 4a 00 00 	lea    0x4acc(%rip),%rsi        # 1c576 <g_1979+0x2012>
   17aaa:	48 89 c7             	mov    %rax,%rdi
   17aad:	e8 41 3c ff ff       	callq  b6f3 <transparent_crc>
   17ab2:	48 8b 05 8f bd 00 00 	mov    0xbd8f(%rip),%rax        # 23848 <g_1227+0x8>
   17ab9:	c1 e0 04             	shl    $0x4,%eax
   17abc:	c1 f8 04             	sar    $0x4,%eax
   17abf:	48 98                	cltq   
   17ac1:	8b 55 fc             	mov    -0x4(%rbp),%edx
   17ac4:	48 8d 35 b5 4a 00 00 	lea    0x4ab5(%rip),%rsi        # 1c580 <g_1979+0x201c>
   17acb:	48 89 c7             	mov    %rax,%rdi
   17ace:	e8 20 3c ff ff       	callq  b6f3 <transparent_crc>
   17ad3:	0f b7 05 72 bd 00 00 	movzwl 0xbd72(%rip),%eax        # 2384c <g_1227+0xc>
   17ada:	48 0f bf c0          	movswq %ax,%rax
   17ade:	8b 55 fc             	mov    -0x4(%rbp),%edx
   17ae1:	48 8d 35 a2 4a 00 00 	lea    0x4aa2(%rip),%rsi        # 1c58a <g_1979+0x2026>
   17ae8:	48 89 c7             	mov    %rax,%rdi
   17aeb:	e8 03 3c ff ff       	callq  b6f3 <transparent_crc>
   17af0:	8b 05 6a 2a 00 00    	mov    0x2a6a(%rip),%eax        # 1a560 <g_1348>
   17af6:	48 98                	cltq   
   17af8:	8b 55 fc             	mov    -0x4(%rbp),%edx
   17afb:	48 8d 35 92 4a 00 00 	lea    0x4a92(%rip),%rsi        # 1c594 <g_1979+0x2030>
   17b02:	48 89 c7             	mov    %rax,%rdi
   17b05:	e8 e9 3b ff ff       	callq  b6f3 <transparent_crc>
   17b0a:	8b 05 40 bd 00 00    	mov    0xbd40(%rip),%eax        # 23850 <g_1383>
   17b10:	89 c1                	mov    %eax,%ecx
   17b12:	8b 45 fc             	mov    -0x4(%rbp),%eax
   17b15:	89 c2                	mov    %eax,%edx
   17b17:	48 8d 35 80 4a 00 00 	lea    0x4a80(%rip),%rsi        # 1c59e <g_1979+0x203a>
   17b1e:	48 89 cf             	mov    %rcx,%rdi
   17b21:	e8 cd 3b ff ff       	callq  b6f3 <transparent_crc>
   17b26:	0f b7 05 27 bd 00 00 	movzwl 0xbd27(%rip),%eax        # 23854 <g_1389>
   17b2d:	48 0f bf c0          	movswq %ax,%rax
   17b31:	8b 55 fc             	mov    -0x4(%rbp),%edx
   17b34:	48 8d 35 6a 4a 00 00 	lea    0x4a6a(%rip),%rsi        # 1c5a5 <g_1979+0x2041>
   17b3b:	48 89 c7             	mov    %rax,%rdi
   17b3e:	e8 b0 3b ff ff       	callq  b6f3 <transparent_crc>
   17b43:	48 8b 05 16 bd 00 00 	mov    0xbd16(%rip),%rax        # 23860 <g_1406>
   17b4a:	66 25 ff 7f          	and    $0x7fff,%ax
   17b4e:	0f b7 c0             	movzwl %ax,%eax
   17b51:	8b 55 fc             	mov    -0x4(%rbp),%edx
   17b54:	48 8d 35 51 4a 00 00 	lea    0x4a51(%rip),%rsi        # 1c5ac <g_1979+0x2048>
   17b5b:	48 89 c7             	mov    %rax,%rdi
   17b5e:	e8 90 3b ff ff       	callq  b6f3 <transparent_crc>
   17b63:	8b 05 f7 bc 00 00    	mov    0xbcf7(%rip),%eax        # 23860 <g_1406>
   17b69:	c1 e8 0f             	shr    $0xf,%eax
   17b6c:	66 25 ff 03          	and    $0x3ff,%ax
   17b70:	0f b7 c0             	movzwl %ax,%eax
   17b73:	8b 55 fc             	mov    -0x4(%rbp),%edx
   17b76:	48 8d 35 39 4a 00 00 	lea    0x4a39(%rip),%rsi        # 1c5b6 <g_1979+0x2052>
   17b7d:	48 89 c7             	mov    %rax,%rdi
   17b80:	e8 6e 3b ff ff       	callq  b6f3 <transparent_crc>
   17b85:	8b 05 d9 bc 00 00    	mov    0xbcd9(%rip),%eax        # 23864 <g_1406+0x4>
   17b8b:	c1 e0 09             	shl    $0x9,%eax
   17b8e:	c1 f8 09             	sar    $0x9,%eax
   17b91:	48 98                	cltq   
   17b93:	8b 55 fc             	mov    -0x4(%rbp),%edx
   17b96:	48 8d 35 23 4a 00 00 	lea    0x4a23(%rip),%rsi        # 1c5c0 <g_1979+0x205c>
   17b9d:	48 89 c7             	mov    %rax,%rdi
   17ba0:	e8 4e 3b ff ff       	callq  b6f3 <transparent_crc>
   17ba5:	48 8b 05 bc bc 00 00 	mov    0xbcbc(%rip),%rax        # 23868 <g_1406+0x8>
   17bac:	c1 e0 06             	shl    $0x6,%eax
   17baf:	66 c1 f8 06          	sar    $0x6,%ax
   17bb3:	48 0f bf c0          	movswq %ax,%rax
   17bb7:	8b 55 fc             	mov    -0x4(%rbp),%edx
   17bba:	48 8d 35 09 4a 00 00 	lea    0x4a09(%rip),%rsi        # 1c5ca <g_1979+0x2066>
   17bc1:	48 89 c7             	mov    %rax,%rdi
   17bc4:	e8 2a 3b ff ff       	callq  b6f3 <transparent_crc>
   17bc9:	8b 05 99 bc 00 00    	mov    0xbc99(%rip),%eax        # 23868 <g_1406+0x8>
   17bcf:	c1 e8 0a             	shr    $0xa,%eax
   17bd2:	66 25 ff 1f          	and    $0x1fff,%ax
   17bd6:	0f b7 c0             	movzwl %ax,%eax
   17bd9:	8b 55 fc             	mov    -0x4(%rbp),%edx
   17bdc:	48 8d 35 f1 49 00 00 	lea    0x49f1(%rip),%rsi        # 1c5d4 <g_1979+0x2070>
   17be3:	48 89 c7             	mov    %rax,%rdi
   17be6:	e8 08 3b ff ff       	callq  b6f3 <transparent_crc>
   17beb:	8b 05 7b bc 00 00    	mov    0xbc7b(%rip),%eax        # 2386c <g_1406+0xc>
   17bf1:	89 c1                	mov    %eax,%ecx
   17bf3:	8b 45 fc             	mov    -0x4(%rbp),%eax
   17bf6:	89 c2                	mov    %eax,%edx
   17bf8:	48 8d 35 df 49 00 00 	lea    0x49df(%rip),%rsi        # 1c5de <g_1979+0x207a>
   17bff:	48 89 cf             	mov    %rcx,%rdi
   17c02:	e8 ec 3a ff ff       	callq  b6f3 <transparent_crc>
   17c07:	8b 05 63 bc 00 00    	mov    0xbc63(%rip),%eax        # 23870 <g_1406+0x10>
   17c0d:	25 ff ff 3f 00       	and    $0x3fffff,%eax
   17c12:	89 c1                	mov    %eax,%ecx
   17c14:	8b 45 fc             	mov    -0x4(%rbp),%eax
   17c17:	89 c2                	mov    %eax,%edx
   17c19:	48 8d 35 c8 49 00 00 	lea    0x49c8(%rip),%rsi        # 1c5e8 <g_1979+0x2084>
   17c20:	48 89 cf             	mov    %rcx,%rdi
   17c23:	e8 cb 3a ff ff       	callq  b6f3 <transparent_crc>
   17c28:	0f b7 05 43 bc 00 00 	movzwl 0xbc43(%rip),%eax        # 23872 <g_1406+0x12>
   17c2f:	66 c1 f8 06          	sar    $0x6,%ax
   17c33:	48 0f bf c0          	movswq %ax,%rax
   17c37:	8b 55 fc             	mov    -0x4(%rbp),%edx
   17c3a:	48 8d 35 b1 49 00 00 	lea    0x49b1(%rip),%rsi        # 1c5f2 <g_1979+0x208e>
   17c41:	48 89 c7             	mov    %rax,%rdi
   17c44:	e8 aa 3a ff ff       	callq  b6f3 <transparent_crc>
   17c49:	0f b6 05 24 bc 00 00 	movzbl 0xbc24(%rip),%eax        # 23874 <g_1406+0x14>
   17c50:	c1 e0 06             	shl    $0x6,%eax
   17c53:	c0 f8 06             	sar    $0x6,%al
   17c56:	48 0f be c0          	movsbq %al,%rax
   17c5a:	8b 55 fc             	mov    -0x4(%rbp),%edx
   17c5d:	48 8d 35 98 49 00 00 	lea    0x4998(%rip),%rsi        # 1c5fc <g_1979+0x2098>
   17c64:	48 89 c7             	mov    %rax,%rdi
   17c67:	e8 87 3a ff ff       	callq  b6f3 <transparent_crc>
   17c6c:	8b 05 06 bc 00 00    	mov    0xbc06(%rip),%eax        # 23878 <g_1406+0x18>
   17c72:	25 ff ff ff 7f       	and    $0x7fffffff,%eax
   17c77:	89 c1                	mov    %eax,%ecx
   17c79:	8b 45 fc             	mov    -0x4(%rbp),%eax
   17c7c:	89 c2                	mov    %eax,%edx
   17c7e:	48 8d 35 81 49 00 00 	lea    0x4981(%rip),%rsi        # 1c606 <g_1979+0x20a2>
   17c85:	48 89 cf             	mov    %rcx,%rdi
   17c88:	e8 66 3a ff ff       	callq  b6f3 <transparent_crc>
   17c8d:	8b 05 e9 bb 00 00    	mov    0xbbe9(%rip),%eax        # 2387c <g_1499>
   17c93:	48 98                	cltq   
   17c95:	8b 55 fc             	mov    -0x4(%rbp),%edx
   17c98:	48 8d 35 71 49 00 00 	lea    0x4971(%rip),%rsi        # 1c610 <g_1979+0x20ac>
   17c9f:	48 89 c7             	mov    %rax,%rdi
   17ca2:	e8 4c 3a ff ff       	callq  b6f3 <transparent_crc>
   17ca7:	0f b7 05 d2 bb 00 00 	movzwl 0xbbd2(%rip),%eax        # 23880 <g_1509>
   17cae:	48 0f bf c0          	movswq %ax,%rax
   17cb2:	8b 55 fc             	mov    -0x4(%rbp),%edx
   17cb5:	48 8d 35 5e 49 00 00 	lea    0x495e(%rip),%rsi        # 1c61a <g_1979+0x20b6>
   17cbc:	48 89 c7             	mov    %rax,%rdi
   17cbf:	e8 2f 3a ff ff       	callq  b6f3 <transparent_crc>
   17cc4:	48 8b 05 b5 bb 00 00 	mov    0xbbb5(%rip),%rax        # 23880 <g_1509>
   17ccb:	48 01 c0             	add    %rax,%rax
   17cce:	48 c1 f8 21          	sar    $0x21,%rax
   17cd2:	48 98                	cltq   
   17cd4:	8b 55 fc             	mov    -0x4(%rbp),%edx
   17cd7:	48 8d 35 46 49 00 00 	lea    0x4946(%rip),%rsi        # 1c624 <g_1979+0x20c0>
   17cde:	48 89 c7             	mov    %rax,%rdi
   17ce1:	e8 0d 3a ff ff       	callq  b6f3 <transparent_crc>
   17ce6:	48 8b 05 9b bb 00 00 	mov    0xbb9b(%rip),%rax        # 23888 <g_1509+0x8>
   17ced:	c1 e0 04             	shl    $0x4,%eax
   17cf0:	c1 f8 04             	sar    $0x4,%eax
   17cf3:	48 98                	cltq   
   17cf5:	8b 55 fc             	mov    -0x4(%rbp),%edx
   17cf8:	48 8d 35 2f 49 00 00 	lea    0x492f(%rip),%rsi        # 1c62e <g_1979+0x20ca>
   17cff:	48 89 c7             	mov    %rax,%rdi
   17d02:	e8 ec 39 ff ff       	callq  b6f3 <transparent_crc>
   17d07:	0f b7 05 7e bb 00 00 	movzwl 0xbb7e(%rip),%eax        # 2388c <g_1509+0xc>
   17d0e:	48 0f bf c0          	movswq %ax,%rax
   17d12:	8b 55 fc             	mov    -0x4(%rbp),%edx
   17d15:	48 8d 35 1c 49 00 00 	lea    0x491c(%rip),%rsi        # 1c638 <g_1979+0x20d4>
   17d1c:	48 89 c7             	mov    %rax,%rdi
   17d1f:	e8 cf 39 ff ff       	callq  b6f3 <transparent_crc>
   17d24:	48 8b 05 65 bb 00 00 	mov    0xbb65(%rip),%rax        # 23890 <g_1573>
   17d2b:	66 25 ff 7f          	and    $0x7fff,%ax
   17d2f:	0f b7 c0             	movzwl %ax,%eax
   17d32:	8b 55 fc             	mov    -0x4(%rbp),%edx
   17d35:	48 8d 35 06 49 00 00 	lea    0x4906(%rip),%rsi        # 1c642 <g_1979+0x20de>
   17d3c:	48 89 c7             	mov    %rax,%rdi
   17d3f:	e8 af 39 ff ff       	callq  b6f3 <transparent_crc>
   17d44:	8b 05 46 bb 00 00    	mov    0xbb46(%rip),%eax        # 23890 <g_1573>
   17d4a:	c1 e8 0f             	shr    $0xf,%eax
   17d4d:	66 25 ff 03          	and    $0x3ff,%ax
   17d51:	0f b7 c0             	movzwl %ax,%eax
   17d54:	8b 55 fc             	mov    -0x4(%rbp),%edx
   17d57:	48 8d 35 ee 48 00 00 	lea    0x48ee(%rip),%rsi        # 1c64c <g_1979+0x20e8>
   17d5e:	48 89 c7             	mov    %rax,%rdi
   17d61:	e8 8d 39 ff ff       	callq  b6f3 <transparent_crc>
   17d66:	8b 05 28 bb 00 00    	mov    0xbb28(%rip),%eax        # 23894 <g_1573+0x4>
   17d6c:	c1 e0 09             	shl    $0x9,%eax
   17d6f:	c1 f8 09             	sar    $0x9,%eax
   17d72:	48 98                	cltq   
   17d74:	8b 55 fc             	mov    -0x4(%rbp),%edx
   17d77:	48 8d 35 d8 48 00 00 	lea    0x48d8(%rip),%rsi        # 1c656 <g_1979+0x20f2>
   17d7e:	48 89 c7             	mov    %rax,%rdi
   17d81:	e8 6d 39 ff ff       	callq  b6f3 <transparent_crc>
   17d86:	48 8b 05 0b bb 00 00 	mov    0xbb0b(%rip),%rax        # 23898 <g_1573+0x8>
   17d8d:	c1 e0 06             	shl    $0x6,%eax
   17d90:	66 c1 f8 06          	sar    $0x6,%ax
   17d94:	48 0f bf c0          	movswq %ax,%rax
   17d98:	8b 55 fc             	mov    -0x4(%rbp),%edx
   17d9b:	48 8d 35 be 48 00 00 	lea    0x48be(%rip),%rsi        # 1c660 <g_1979+0x20fc>
   17da2:	48 89 c7             	mov    %rax,%rdi
   17da5:	e8 49 39 ff ff       	callq  b6f3 <transparent_crc>
   17daa:	8b 05 e8 ba 00 00    	mov    0xbae8(%rip),%eax        # 23898 <g_1573+0x8>
   17db0:	c1 e8 0a             	shr    $0xa,%eax
   17db3:	66 25 ff 1f          	and    $0x1fff,%ax
   17db7:	0f b7 c0             	movzwl %ax,%eax
   17dba:	8b 55 fc             	mov    -0x4(%rbp),%edx
   17dbd:	48 8d 35 a6 48 00 00 	lea    0x48a6(%rip),%rsi        # 1c66a <g_1979+0x2106>
   17dc4:	48 89 c7             	mov    %rax,%rdi
   17dc7:	e8 27 39 ff ff       	callq  b6f3 <transparent_crc>
   17dcc:	8b 05 ca ba 00 00    	mov    0xbaca(%rip),%eax        # 2389c <g_1573+0xc>
   17dd2:	89 c1                	mov    %eax,%ecx
   17dd4:	8b 45 fc             	mov    -0x4(%rbp),%eax
   17dd7:	89 c2                	mov    %eax,%edx
   17dd9:	48 8d 35 94 48 00 00 	lea    0x4894(%rip),%rsi        # 1c674 <g_1979+0x2110>
   17de0:	48 89 cf             	mov    %rcx,%rdi
   17de3:	e8 0b 39 ff ff       	callq  b6f3 <transparent_crc>
   17de8:	8b 05 b2 ba 00 00    	mov    0xbab2(%rip),%eax        # 238a0 <g_1573+0x10>
   17dee:	25 ff ff 3f 00       	and    $0x3fffff,%eax
   17df3:	89 c1                	mov    %eax,%ecx
   17df5:	8b 45 fc             	mov    -0x4(%rbp),%eax
   17df8:	89 c2                	mov    %eax,%edx
   17dfa:	48 8d 35 7d 48 00 00 	lea    0x487d(%rip),%rsi        # 1c67e <g_1979+0x211a>
   17e01:	48 89 cf             	mov    %rcx,%rdi
   17e04:	e8 ea 38 ff ff       	callq  b6f3 <transparent_crc>
   17e09:	0f b7 05 92 ba 00 00 	movzwl 0xba92(%rip),%eax        # 238a2 <g_1573+0x12>
   17e10:	66 c1 f8 06          	sar    $0x6,%ax
   17e14:	48 0f bf c0          	movswq %ax,%rax
   17e18:	8b 55 fc             	mov    -0x4(%rbp),%edx
   17e1b:	48 8d 35 66 48 00 00 	lea    0x4866(%rip),%rsi        # 1c688 <g_1979+0x2124>
   17e22:	48 89 c7             	mov    %rax,%rdi
   17e25:	e8 c9 38 ff ff       	callq  b6f3 <transparent_crc>
   17e2a:	0f b6 05 73 ba 00 00 	movzbl 0xba73(%rip),%eax        # 238a4 <g_1573+0x14>
   17e31:	c1 e0 06             	shl    $0x6,%eax
   17e34:	c0 f8 06             	sar    $0x6,%al
   17e37:	48 0f be c0          	movsbq %al,%rax
   17e3b:	8b 55 fc             	mov    -0x4(%rbp),%edx
   17e3e:	48 8d 35 4d 48 00 00 	lea    0x484d(%rip),%rsi        # 1c692 <g_1979+0x212e>
   17e45:	48 89 c7             	mov    %rax,%rdi
   17e48:	e8 a6 38 ff ff       	callq  b6f3 <transparent_crc>
   17e4d:	8b 05 55 ba 00 00    	mov    0xba55(%rip),%eax        # 238a8 <g_1573+0x18>
   17e53:	25 ff ff ff 7f       	and    $0x7fffffff,%eax
   17e58:	89 c1                	mov    %eax,%ecx
   17e5a:	8b 45 fc             	mov    -0x4(%rbp),%eax
   17e5d:	89 c2                	mov    %eax,%edx
   17e5f:	48 8d 35 36 48 00 00 	lea    0x4836(%rip),%rsi        # 1c69c <g_1979+0x2138>
   17e66:	48 89 cf             	mov    %rcx,%rdi
   17e69:	e8 85 38 ff ff       	callq  b6f3 <transparent_crc>
   17e6e:	8b 05 38 ba 00 00    	mov    0xba38(%rip),%eax        # 238ac <g_1592>
   17e74:	48 98                	cltq   
   17e76:	8b 55 fc             	mov    -0x4(%rbp),%edx
   17e79:	48 8d 35 26 48 00 00 	lea    0x4826(%rip),%rsi        # 1c6a6 <g_1979+0x2142>
   17e80:	48 89 c7             	mov    %rax,%rdi
   17e83:	e8 6b 38 ff ff       	callq  b6f3 <transparent_crc>
   17e88:	0f b7 05 21 ba 00 00 	movzwl 0xba21(%rip),%eax        # 238b0 <g_1629>
   17e8f:	48 0f bf c0          	movswq %ax,%rax
   17e93:	8b 55 fc             	mov    -0x4(%rbp),%edx
   17e96:	48 8d 35 13 48 00 00 	lea    0x4813(%rip),%rsi        # 1c6b0 <g_1979+0x214c>
   17e9d:	48 89 c7             	mov    %rax,%rdi
   17ea0:	e8 4e 38 ff ff       	callq  b6f3 <transparent_crc>
   17ea5:	8b 05 09 ba 00 00    	mov    0xba09(%rip),%eax        # 238b4 <g_1629+0x4>
   17eab:	01 c0                	add    %eax,%eax
   17ead:	d1 f8                	sar    %eax
   17eaf:	48 98                	cltq   
   17eb1:	8b 55 fc             	mov    -0x4(%rbp),%edx
   17eb4:	48 8d 35 ff 47 00 00 	lea    0x47ff(%rip),%rsi        # 1c6ba <g_1979+0x2156>
   17ebb:	48 89 c7             	mov    %rax,%rdi
   17ebe:	e8 30 38 ff ff       	callq  b6f3 <transparent_crc>
   17ec3:	8b 05 ef b9 00 00    	mov    0xb9ef(%rip),%eax        # 238b8 <g_1629+0x8>
   17ec9:	c1 e0 04             	shl    $0x4,%eax
   17ecc:	c1 f8 04             	sar    $0x4,%eax
   17ecf:	48 98                	cltq   
   17ed1:	8b 55 fc             	mov    -0x4(%rbp),%edx
   17ed4:	48 8d 35 e9 47 00 00 	lea    0x47e9(%rip),%rsi        # 1c6c4 <g_1979+0x2160>
   17edb:	48 89 c7             	mov    %rax,%rdi
   17ede:	e8 10 38 ff ff       	callq  b6f3 <transparent_crc>
   17ee3:	0f b7 05 d2 b9 00 00 	movzwl 0xb9d2(%rip),%eax        # 238bc <g_1629+0xc>
   17eea:	48 0f bf c0          	movswq %ax,%rax
   17eee:	8b 55 fc             	mov    -0x4(%rbp),%edx
   17ef1:	48 8d 35 d6 47 00 00 	lea    0x47d6(%rip),%rsi        # 1c6ce <g_1979+0x216a>
   17ef8:	48 89 c7             	mov    %rax,%rdi
   17efb:	e8 f3 37 ff ff       	callq  b6f3 <transparent_crc>
   17f00:	0f b6 05 b9 b9 00 00 	movzbl 0xb9b9(%rip),%eax        # 238c0 <g_1666>
   17f07:	48 0f be c0          	movsbq %al,%rax
   17f0b:	8b 55 fc             	mov    -0x4(%rbp),%edx
   17f0e:	48 8d 35 c3 47 00 00 	lea    0x47c3(%rip),%rsi        # 1c6d8 <g_1979+0x2174>
   17f15:	48 89 c7             	mov    %rax,%rdi
   17f18:	e8 d6 37 ff ff       	callq  b6f3 <transparent_crc>
   17f1d:	48 8b 05 ac b9 00 00 	mov    0xb9ac(%rip),%rax        # 238d0 <g_1690>
   17f24:	66 25 ff 7f          	and    $0x7fff,%ax
   17f28:	0f b7 c0             	movzwl %ax,%eax
   17f2b:	8b 55 fc             	mov    -0x4(%rbp),%edx
   17f2e:	48 8d 35 aa 47 00 00 	lea    0x47aa(%rip),%rsi        # 1c6df <g_1979+0x217b>
   17f35:	48 89 c7             	mov    %rax,%rdi
   17f38:	e8 b6 37 ff ff       	callq  b6f3 <transparent_crc>
   17f3d:	8b 05 8d b9 00 00    	mov    0xb98d(%rip),%eax        # 238d0 <g_1690>
   17f43:	c1 e8 0f             	shr    $0xf,%eax
   17f46:	66 25 ff 03          	and    $0x3ff,%ax
   17f4a:	0f b7 c0             	movzwl %ax,%eax
   17f4d:	8b 55 fc             	mov    -0x4(%rbp),%edx
   17f50:	48 8d 35 92 47 00 00 	lea    0x4792(%rip),%rsi        # 1c6e9 <g_1979+0x2185>
   17f57:	48 89 c7             	mov    %rax,%rdi
   17f5a:	e8 94 37 ff ff       	callq  b6f3 <transparent_crc>
   17f5f:	8b 05 6f b9 00 00    	mov    0xb96f(%rip),%eax        # 238d4 <g_1690+0x4>
   17f65:	c1 e0 09             	shl    $0x9,%eax
   17f68:	c1 f8 09             	sar    $0x9,%eax
   17f6b:	48 98                	cltq   
   17f6d:	8b 55 fc             	mov    -0x4(%rbp),%edx
   17f70:	48 8d 35 7c 47 00 00 	lea    0x477c(%rip),%rsi        # 1c6f3 <g_1979+0x218f>
   17f77:	48 89 c7             	mov    %rax,%rdi
   17f7a:	e8 74 37 ff ff       	callq  b6f3 <transparent_crc>
   17f7f:	48 8b 05 52 b9 00 00 	mov    0xb952(%rip),%rax        # 238d8 <g_1690+0x8>
   17f86:	c1 e0 06             	shl    $0x6,%eax
   17f89:	66 c1 f8 06          	sar    $0x6,%ax
   17f8d:	48 0f bf c0          	movswq %ax,%rax
   17f91:	8b 55 fc             	mov    -0x4(%rbp),%edx
   17f94:	48 8d 35 62 47 00 00 	lea    0x4762(%rip),%rsi        # 1c6fd <g_1979+0x2199>
   17f9b:	48 89 c7             	mov    %rax,%rdi
   17f9e:	e8 50 37 ff ff       	callq  b6f3 <transparent_crc>
   17fa3:	8b 05 2f b9 00 00    	mov    0xb92f(%rip),%eax        # 238d8 <g_1690+0x8>
   17fa9:	c1 e8 0a             	shr    $0xa,%eax
   17fac:	66 25 ff 1f          	and    $0x1fff,%ax
   17fb0:	0f b7 c0             	movzwl %ax,%eax
   17fb3:	8b 55 fc             	mov    -0x4(%rbp),%edx
   17fb6:	48 8d 35 4a 47 00 00 	lea    0x474a(%rip),%rsi        # 1c707 <g_1979+0x21a3>
   17fbd:	48 89 c7             	mov    %rax,%rdi
   17fc0:	e8 2e 37 ff ff       	callq  b6f3 <transparent_crc>
   17fc5:	8b 05 11 b9 00 00    	mov    0xb911(%rip),%eax        # 238dc <g_1690+0xc>
   17fcb:	89 c1                	mov    %eax,%ecx
   17fcd:	8b 45 fc             	mov    -0x4(%rbp),%eax
   17fd0:	89 c2                	mov    %eax,%edx
   17fd2:	48 8d 35 38 47 00 00 	lea    0x4738(%rip),%rsi        # 1c711 <g_1979+0x21ad>
   17fd9:	48 89 cf             	mov    %rcx,%rdi
   17fdc:	e8 12 37 ff ff       	callq  b6f3 <transparent_crc>
   17fe1:	8b 05 f9 b8 00 00    	mov    0xb8f9(%rip),%eax        # 238e0 <g_1690+0x10>
   17fe7:	25 ff ff 3f 00       	and    $0x3fffff,%eax
   17fec:	89 c1                	mov    %eax,%ecx
   17fee:	8b 45 fc             	mov    -0x4(%rbp),%eax
   17ff1:	89 c2                	mov    %eax,%edx
   17ff3:	48 8d 35 21 47 00 00 	lea    0x4721(%rip),%rsi        # 1c71b <g_1979+0x21b7>
   17ffa:	48 89 cf             	mov    %rcx,%rdi
   17ffd:	e8 f1 36 ff ff       	callq  b6f3 <transparent_crc>
   18002:	0f b7 05 d9 b8 00 00 	movzwl 0xb8d9(%rip),%eax        # 238e2 <g_1690+0x12>
   18009:	66 c1 f8 06          	sar    $0x6,%ax
   1800d:	48 0f bf c0          	movswq %ax,%rax
   18011:	8b 55 fc             	mov    -0x4(%rbp),%edx
   18014:	48 8d 35 0a 47 00 00 	lea    0x470a(%rip),%rsi        # 1c725 <g_1979+0x21c1>
   1801b:	48 89 c7             	mov    %rax,%rdi
   1801e:	e8 d0 36 ff ff       	callq  b6f3 <transparent_crc>
   18023:	0f b6 05 ba b8 00 00 	movzbl 0xb8ba(%rip),%eax        # 238e4 <g_1690+0x14>
   1802a:	c1 e0 06             	shl    $0x6,%eax
   1802d:	c0 f8 06             	sar    $0x6,%al
   18030:	48 0f be c0          	movsbq %al,%rax
   18034:	8b 55 fc             	mov    -0x4(%rbp),%edx
   18037:	48 8d 35 f1 46 00 00 	lea    0x46f1(%rip),%rsi        # 1c72f <g_1979+0x21cb>
   1803e:	48 89 c7             	mov    %rax,%rdi
   18041:	e8 ad 36 ff ff       	callq  b6f3 <transparent_crc>
   18046:	8b 05 9c b8 00 00    	mov    0xb89c(%rip),%eax        # 238e8 <g_1690+0x18>
   1804c:	25 ff ff ff 7f       	and    $0x7fffffff,%eax
   18051:	89 c1                	mov    %eax,%ecx
   18053:	8b 45 fc             	mov    -0x4(%rbp),%eax
   18056:	89 c2                	mov    %eax,%edx
   18058:	48 8d 35 da 46 00 00 	lea    0x46da(%rip),%rsi        # 1c739 <g_1979+0x21d5>
   1805f:	48 89 cf             	mov    %rcx,%rdi
   18062:	e8 8c 36 ff ff       	callq  b6f3 <transparent_crc>
   18067:	48 8b 05 82 b8 00 00 	mov    0xb882(%rip),%rax        # 238f0 <g_1691>
   1806e:	66 25 ff 7f          	and    $0x7fff,%ax
   18072:	0f b7 c0             	movzwl %ax,%eax
   18075:	8b 55 fc             	mov    -0x4(%rbp),%edx
   18078:	48 8d 35 c4 46 00 00 	lea    0x46c4(%rip),%rsi        # 1c743 <g_1979+0x21df>
   1807f:	48 89 c7             	mov    %rax,%rdi
   18082:	e8 6c 36 ff ff       	callq  b6f3 <transparent_crc>
   18087:	48 8b 05 62 b8 00 00 	mov    0xb862(%rip),%rax        # 238f0 <g_1691>
   1808e:	48 c1 e8 0f          	shr    $0xf,%rax
   18092:	66 25 ff 03          	and    $0x3ff,%ax
   18096:	0f b7 c0             	movzwl %ax,%eax
   18099:	8b 55 fc             	mov    -0x4(%rbp),%edx
   1809c:	48 8d 35 aa 46 00 00 	lea    0x46aa(%rip),%rsi        # 1c74d <g_1979+0x21e9>
   180a3:	48 89 c7             	mov    %rax,%rdi
   180a6:	e8 48 36 ff ff       	callq  b6f3 <transparent_crc>
   180ab:	48 8b 05 3e b8 00 00 	mov    0xb83e(%rip),%rax        # 238f0 <g_1691>
   180b2:	48 c1 e0 09          	shl    $0x9,%rax
   180b6:	48 c1 f8 29          	sar    $0x29,%rax
   180ba:	48 98                	cltq   
   180bc:	8b 55 fc             	mov    -0x4(%rbp),%edx
   180bf:	48 8d 35 91 46 00 00 	lea    0x4691(%rip),%rsi        # 1c757 <g_1979+0x21f3>
   180c6:	48 89 c7             	mov    %rax,%rdi
   180c9:	e8 25 36 ff ff       	callq  b6f3 <transparent_crc>
   180ce:	48 8b 05 23 b8 00 00 	mov    0xb823(%rip),%rax        # 238f8 <g_1691+0x8>
   180d5:	c1 e0 06             	shl    $0x6,%eax
   180d8:	66 c1 f8 06          	sar    $0x6,%ax
   180dc:	48 0f bf c0          	movswq %ax,%rax
   180e0:	8b 55 fc             	mov    -0x4(%rbp),%edx
   180e3:	48 8d 35 77 46 00 00 	lea    0x4677(%rip),%rsi        # 1c761 <g_1979+0x21fd>
   180ea:	48 89 c7             	mov    %rax,%rdi
   180ed:	e8 01 36 ff ff       	callq  b6f3 <transparent_crc>
   180f2:	48 8b 05 ff b7 00 00 	mov    0xb7ff(%rip),%rax        # 238f8 <g_1691+0x8>
   180f9:	48 c1 e8 0a          	shr    $0xa,%rax
   180fd:	66 25 ff 1f          	and    $0x1fff,%ax
   18101:	0f b7 c0             	movzwl %ax,%eax
   18104:	8b 55 fc             	mov    -0x4(%rbp),%edx
   18107:	48 8d 35 5d 46 00 00 	lea    0x465d(%rip),%rsi        # 1c76b <g_1979+0x2207>
   1810e:	48 89 c7             	mov    %rax,%rdi
   18111:	e8 dd 35 ff ff       	callq  b6f3 <transparent_crc>
   18116:	8b 05 e0 b7 00 00    	mov    0xb7e0(%rip),%eax        # 238fc <g_1691+0xc>
   1811c:	89 c1                	mov    %eax,%ecx
   1811e:	8b 45 fc             	mov    -0x4(%rbp),%eax
   18121:	89 c2                	mov    %eax,%edx
   18123:	48 8d 35 4b 46 00 00 	lea    0x464b(%rip),%rsi        # 1c775 <g_1979+0x2211>
   1812a:	48 89 cf             	mov    %rcx,%rdi
   1812d:	e8 c1 35 ff ff       	callq  b6f3 <transparent_crc>
   18132:	48 8b 05 c7 b7 00 00 	mov    0xb7c7(%rip),%rax        # 23900 <g_1691+0x10>
   18139:	25 ff ff 3f 00       	and    $0x3fffff,%eax
   1813e:	89 c1                	mov    %eax,%ecx
   18140:	8b 45 fc             	mov    -0x4(%rbp),%eax
   18143:	89 c2                	mov    %eax,%edx
   18145:	48 8d 35 33 46 00 00 	lea    0x4633(%rip),%rsi        # 1c77f <g_1979+0x221b>
   1814c:	48 89 cf             	mov    %rcx,%rdi
   1814f:	e8 9f 35 ff ff       	callq  b6f3 <transparent_crc>
   18154:	48 8b 05 a5 b7 00 00 	mov    0xb7a5(%rip),%rax        # 23900 <g_1691+0x10>
   1815b:	c1 f8 16             	sar    $0x16,%eax
   1815e:	48 0f bf c0          	movswq %ax,%rax
   18162:	8b 55 fc             	mov    -0x4(%rbp),%edx
   18165:	48 8d 35 1d 46 00 00 	lea    0x461d(%rip),%rsi        # 1c789 <g_1979+0x2225>
   1816c:	48 89 c7             	mov    %rax,%rdi
   1816f:	e8 7f 35 ff ff       	callq  b6f3 <transparent_crc>
   18174:	48 8b 05 85 b7 00 00 	mov    0xb785(%rip),%rax        # 23900 <g_1691+0x10>
   1817b:	48 c1 e0 1e          	shl    $0x1e,%rax
   1817f:	48 c1 f8 3e          	sar    $0x3e,%rax
   18183:	48 0f be c0          	movsbq %al,%rax
   18187:	8b 55 fc             	mov    -0x4(%rbp),%edx
   1818a:	48 8d 35 02 46 00 00 	lea    0x4602(%rip),%rsi        # 1c793 <g_1979+0x222f>
   18191:	48 89 c7             	mov    %rax,%rdi
   18194:	e8 5a 35 ff ff       	callq  b6f3 <transparent_crc>
   18199:	48 8b 05 68 b7 00 00 	mov    0xb768(%rip),%rax        # 23908 <g_1691+0x18>
   181a0:	25 ff ff ff 7f       	and    $0x7fffffff,%eax
   181a5:	89 c1                	mov    %eax,%ecx
   181a7:	8b 45 fc             	mov    -0x4(%rbp),%eax
   181aa:	89 c2                	mov    %eax,%edx
   181ac:	48 8d 35 ea 45 00 00 	lea    0x45ea(%rip),%rsi        # 1c79d <g_1979+0x2239>
   181b3:	48 89 cf             	mov    %rcx,%rdi
   181b6:	e8 38 35 ff ff       	callq  b6f3 <transparent_crc>
   181bb:	0f b7 05 4e b7 00 00 	movzwl 0xb74e(%rip),%eax        # 23910 <g_1712>
   181c2:	48 0f bf c0          	movswq %ax,%rax
   181c6:	8b 55 fc             	mov    -0x4(%rbp),%edx
   181c9:	48 8d 35 d7 45 00 00 	lea    0x45d7(%rip),%rsi        # 1c7a7 <g_1979+0x2243>
   181d0:	48 89 c7             	mov    %rax,%rdi
   181d3:	e8 1b 35 ff ff       	callq  b6f3 <transparent_crc>
   181d8:	8b 05 36 b7 00 00    	mov    0xb736(%rip),%eax        # 23914 <g_1712+0x4>
   181de:	01 c0                	add    %eax,%eax
   181e0:	d1 f8                	sar    %eax
   181e2:	48 98                	cltq   
   181e4:	8b 55 fc             	mov    -0x4(%rbp),%edx
   181e7:	48 8d 35 c3 45 00 00 	lea    0x45c3(%rip),%rsi        # 1c7b1 <g_1979+0x224d>
   181ee:	48 89 c7             	mov    %rax,%rdi
   181f1:	e8 fd 34 ff ff       	callq  b6f3 <transparent_crc>
   181f6:	8b 05 1c b7 00 00    	mov    0xb71c(%rip),%eax        # 23918 <g_1712+0x8>
   181fc:	c1 e0 04             	shl    $0x4,%eax
   181ff:	c1 f8 04             	sar    $0x4,%eax
   18202:	48 98                	cltq   
   18204:	8b 55 fc             	mov    -0x4(%rbp),%edx
   18207:	48 8d 35 ad 45 00 00 	lea    0x45ad(%rip),%rsi        # 1c7bb <g_1979+0x2257>
   1820e:	48 89 c7             	mov    %rax,%rdi
   18211:	e8 dd 34 ff ff       	callq  b6f3 <transparent_crc>
   18216:	0f b7 05 ff b6 00 00 	movzwl 0xb6ff(%rip),%eax        # 2391c <g_1712+0xc>
   1821d:	48 0f bf c0          	movswq %ax,%rax
   18221:	8b 55 fc             	mov    -0x4(%rbp),%edx
   18224:	48 8d 35 9a 45 00 00 	lea    0x459a(%rip),%rsi        # 1c7c5 <g_1979+0x2261>
   1822b:	48 89 c7             	mov    %rax,%rdi
   1822e:	e8 c0 34 ff ff       	callq  b6f3 <transparent_crc>
   18233:	0f b6 05 e6 b6 00 00 	movzbl 0xb6e6(%rip),%eax        # 23920 <g_1725>
   1823a:	48 0f be c0          	movsbq %al,%rax
   1823e:	8b 55 fc             	mov    -0x4(%rbp),%edx
   18241:	48 8d 35 87 45 00 00 	lea    0x4587(%rip),%rsi        # 1c7cf <g_1979+0x226b>
   18248:	48 89 c7             	mov    %rax,%rdi
   1824b:	e8 a3 34 ff ff       	callq  b6f3 <transparent_crc>
   18250:	8b 05 ce b6 00 00    	mov    0xb6ce(%rip),%eax        # 23924 <g_1801>
   18256:	89 c1                	mov    %eax,%ecx
   18258:	8b 45 fc             	mov    -0x4(%rbp),%eax
   1825b:	89 c2                	mov    %eax,%edx
   1825d:	48 8d 35 72 45 00 00 	lea    0x4572(%rip),%rsi        # 1c7d6 <g_1979+0x2272>
   18264:	48 89 cf             	mov    %rcx,%rdi
   18267:	e8 87 34 ff ff       	callq  b6f3 <transparent_crc>
   1826c:	48 8b 05 bd b6 00 00 	mov    0xb6bd(%rip),%rax        # 23930 <g_1827>
   18273:	66 25 ff 7f          	and    $0x7fff,%ax
   18277:	0f b7 c0             	movzwl %ax,%eax
   1827a:	8b 55 fc             	mov    -0x4(%rbp),%edx
   1827d:	48 8d 35 59 45 00 00 	lea    0x4559(%rip),%rsi        # 1c7dd <g_1979+0x2279>
   18284:	48 89 c7             	mov    %rax,%rdi
   18287:	e8 67 34 ff ff       	callq  b6f3 <transparent_crc>
   1828c:	48 8b 05 9d b6 00 00 	mov    0xb69d(%rip),%rax        # 23930 <g_1827>
   18293:	48 c1 e8 0f          	shr    $0xf,%rax
   18297:	66 25 ff 03          	and    $0x3ff,%ax
   1829b:	0f b7 c0             	movzwl %ax,%eax
   1829e:	8b 55 fc             	mov    -0x4(%rbp),%edx
   182a1:	48 8d 35 3f 45 00 00 	lea    0x453f(%rip),%rsi        # 1c7e7 <g_1979+0x2283>
   182a8:	48 89 c7             	mov    %rax,%rdi
   182ab:	e8 43 34 ff ff       	callq  b6f3 <transparent_crc>
   182b0:	48 8b 05 79 b6 00 00 	mov    0xb679(%rip),%rax        # 23930 <g_1827>
   182b7:	48 c1 e0 09          	shl    $0x9,%rax
   182bb:	48 c1 f8 29          	sar    $0x29,%rax
   182bf:	48 98                	cltq   
   182c1:	8b 55 fc             	mov    -0x4(%rbp),%edx
   182c4:	48 8d 35 26 45 00 00 	lea    0x4526(%rip),%rsi        # 1c7f1 <g_1979+0x228d>
   182cb:	48 89 c7             	mov    %rax,%rdi
   182ce:	e8 20 34 ff ff       	callq  b6f3 <transparent_crc>
   182d3:	48 8b 05 5e b6 00 00 	mov    0xb65e(%rip),%rax        # 23938 <g_1827+0x8>
   182da:	c1 e0 06             	shl    $0x6,%eax
   182dd:	66 c1 f8 06          	sar    $0x6,%ax
   182e1:	48 0f bf c0          	movswq %ax,%rax
   182e5:	8b 55 fc             	mov    -0x4(%rbp),%edx
   182e8:	48 8d 35 0c 45 00 00 	lea    0x450c(%rip),%rsi        # 1c7fb <g_1979+0x2297>
   182ef:	48 89 c7             	mov    %rax,%rdi
   182f2:	e8 fc 33 ff ff       	callq  b6f3 <transparent_crc>
   182f7:	48 8b 05 3a b6 00 00 	mov    0xb63a(%rip),%rax        # 23938 <g_1827+0x8>
   182fe:	48 c1 e8 0a          	shr    $0xa,%rax
   18302:	66 25 ff 1f          	and    $0x1fff,%ax
   18306:	0f b7 c0             	movzwl %ax,%eax
   18309:	8b 55 fc             	mov    -0x4(%rbp),%edx
   1830c:	48 8d 35 f2 44 00 00 	lea    0x44f2(%rip),%rsi        # 1c805 <g_1979+0x22a1>
   18313:	48 89 c7             	mov    %rax,%rdi
   18316:	e8 d8 33 ff ff       	callq  b6f3 <transparent_crc>
   1831b:	8b 05 1b b6 00 00    	mov    0xb61b(%rip),%eax        # 2393c <g_1827+0xc>
   18321:	89 c1                	mov    %eax,%ecx
   18323:	8b 45 fc             	mov    -0x4(%rbp),%eax
   18326:	89 c2                	mov    %eax,%edx
   18328:	48 8d 35 e0 44 00 00 	lea    0x44e0(%rip),%rsi        # 1c80f <g_1979+0x22ab>
   1832f:	48 89 cf             	mov    %rcx,%rdi
   18332:	e8 bc 33 ff ff       	callq  b6f3 <transparent_crc>
   18337:	48 8b 05 02 b6 00 00 	mov    0xb602(%rip),%rax        # 23940 <g_1827+0x10>
   1833e:	25 ff ff 3f 00       	and    $0x3fffff,%eax
   18343:	89 c1                	mov    %eax,%ecx
   18345:	8b 45 fc             	mov    -0x4(%rbp),%eax
   18348:	89 c2                	mov    %eax,%edx
   1834a:	48 8d 35 c8 44 00 00 	lea    0x44c8(%rip),%rsi        # 1c819 <g_1979+0x22b5>
   18351:	48 89 cf             	mov    %rcx,%rdi
   18354:	e8 9a 33 ff ff       	callq  b6f3 <transparent_crc>
   18359:	48 8b 05 e0 b5 00 00 	mov    0xb5e0(%rip),%rax        # 23940 <g_1827+0x10>
   18360:	c1 f8 16             	sar    $0x16,%eax
   18363:	48 0f bf c0          	movswq %ax,%rax
   18367:	8b 55 fc             	mov    -0x4(%rbp),%edx
   1836a:	48 8d 35 b2 44 00 00 	lea    0x44b2(%rip),%rsi        # 1c823 <g_1979+0x22bf>
   18371:	48 89 c7             	mov    %rax,%rdi
   18374:	e8 7a 33 ff ff       	callq  b6f3 <transparent_crc>
   18379:	48 8b 05 c0 b5 00 00 	mov    0xb5c0(%rip),%rax        # 23940 <g_1827+0x10>
   18380:	48 c1 e0 1e          	shl    $0x1e,%rax
   18384:	48 c1 f8 3e          	sar    $0x3e,%rax
   18388:	48 0f be c0          	movsbq %al,%rax
   1838c:	8b 55 fc             	mov    -0x4(%rbp),%edx
   1838f:	48 8d 35 97 44 00 00 	lea    0x4497(%rip),%rsi        # 1c82d <g_1979+0x22c9>
   18396:	48 89 c7             	mov    %rax,%rdi
   18399:	e8 55 33 ff ff       	callq  b6f3 <transparent_crc>
   1839e:	48 8b 05 a3 b5 00 00 	mov    0xb5a3(%rip),%rax        # 23948 <g_1827+0x18>
   183a5:	25 ff ff ff 7f       	and    $0x7fffffff,%eax
   183aa:	89 c1                	mov    %eax,%ecx
   183ac:	8b 45 fc             	mov    -0x4(%rbp),%eax
   183af:	89 c2                	mov    %eax,%edx
   183b1:	48 8d 35 7f 44 00 00 	lea    0x447f(%rip),%rsi        # 1c837 <g_1979+0x22d3>
   183b8:	48 89 cf             	mov    %rcx,%rdi
   183bb:	e8 33 33 ff ff       	callq  b6f3 <transparent_crc>
   183c0:	48 8b 05 89 b5 00 00 	mov    0xb589(%rip),%rax        # 23950 <g_1846>
   183c7:	66 25 ff 7f          	and    $0x7fff,%ax
   183cb:	0f b7 c0             	movzwl %ax,%eax
   183ce:	8b 55 fc             	mov    -0x4(%rbp),%edx
   183d1:	48 8d 35 69 44 00 00 	lea    0x4469(%rip),%rsi        # 1c841 <g_1979+0x22dd>
   183d8:	48 89 c7             	mov    %rax,%rdi
   183db:	e8 13 33 ff ff       	callq  b6f3 <transparent_crc>
   183e0:	48 8b 05 69 b5 00 00 	mov    0xb569(%rip),%rax        # 23950 <g_1846>
   183e7:	48 c1 e8 0f          	shr    $0xf,%rax
   183eb:	66 25 ff 03          	and    $0x3ff,%ax
   183ef:	0f b7 c0             	movzwl %ax,%eax
   183f2:	8b 55 fc             	mov    -0x4(%rbp),%edx
   183f5:	48 8d 35 4f 44 00 00 	lea    0x444f(%rip),%rsi        # 1c84b <g_1979+0x22e7>
   183fc:	48 89 c7             	mov    %rax,%rdi
   183ff:	e8 ef 32 ff ff       	callq  b6f3 <transparent_crc>
   18404:	48 8b 05 45 b5 00 00 	mov    0xb545(%rip),%rax        # 23950 <g_1846>
   1840b:	48 c1 e0 09          	shl    $0x9,%rax
   1840f:	48 c1 f8 29          	sar    $0x29,%rax
   18413:	48 98                	cltq   
   18415:	8b 55 fc             	mov    -0x4(%rbp),%edx
   18418:	48 8d 35 36 44 00 00 	lea    0x4436(%rip),%rsi        # 1c855 <g_1979+0x22f1>
   1841f:	48 89 c7             	mov    %rax,%rdi
   18422:	e8 cc 32 ff ff       	callq  b6f3 <transparent_crc>
   18427:	48 8b 05 2a b5 00 00 	mov    0xb52a(%rip),%rax        # 23958 <g_1846+0x8>
   1842e:	c1 e0 06             	shl    $0x6,%eax
   18431:	66 c1 f8 06          	sar    $0x6,%ax
   18435:	48 0f bf c0          	movswq %ax,%rax
   18439:	8b 55 fc             	mov    -0x4(%rbp),%edx
   1843c:	48 8d 35 1c 44 00 00 	lea    0x441c(%rip),%rsi        # 1c85f <g_1979+0x22fb>
   18443:	48 89 c7             	mov    %rax,%rdi
   18446:	e8 a8 32 ff ff       	callq  b6f3 <transparent_crc>
   1844b:	48 8b 05 06 b5 00 00 	mov    0xb506(%rip),%rax        # 23958 <g_1846+0x8>
   18452:	48 c1 e8 0a          	shr    $0xa,%rax
   18456:	66 25 ff 1f          	and    $0x1fff,%ax
   1845a:	0f b7 c0             	movzwl %ax,%eax
   1845d:	8b 55 fc             	mov    -0x4(%rbp),%edx
   18460:	48 8d 35 02 44 00 00 	lea    0x4402(%rip),%rsi        # 1c869 <g_1979+0x2305>
   18467:	48 89 c7             	mov    %rax,%rdi
   1846a:	e8 84 32 ff ff       	callq  b6f3 <transparent_crc>
   1846f:	8b 05 e7 b4 00 00    	mov    0xb4e7(%rip),%eax        # 2395c <g_1846+0xc>
   18475:	89 c1                	mov    %eax,%ecx
   18477:	8b 45 fc             	mov    -0x4(%rbp),%eax
   1847a:	89 c2                	mov    %eax,%edx
   1847c:	48 8d 35 f0 43 00 00 	lea    0x43f0(%rip),%rsi        # 1c873 <g_1979+0x230f>
   18483:	48 89 cf             	mov    %rcx,%rdi
   18486:	e8 68 32 ff ff       	callq  b6f3 <transparent_crc>
   1848b:	48 8b 05 ce b4 00 00 	mov    0xb4ce(%rip),%rax        # 23960 <g_1846+0x10>
   18492:	25 ff ff 3f 00       	and    $0x3fffff,%eax
   18497:	89 c1                	mov    %eax,%ecx
   18499:	8b 45 fc             	mov    -0x4(%rbp),%eax
   1849c:	89 c2                	mov    %eax,%edx
   1849e:	48 8d 35 d8 43 00 00 	lea    0x43d8(%rip),%rsi        # 1c87d <g_1979+0x2319>
   184a5:	48 89 cf             	mov    %rcx,%rdi
   184a8:	e8 46 32 ff ff       	callq  b6f3 <transparent_crc>
   184ad:	48 8b 05 ac b4 00 00 	mov    0xb4ac(%rip),%rax        # 23960 <g_1846+0x10>
   184b4:	c1 f8 16             	sar    $0x16,%eax
   184b7:	48 0f bf c0          	movswq %ax,%rax
   184bb:	8b 55 fc             	mov    -0x4(%rbp),%edx
   184be:	48 8d 35 c2 43 00 00 	lea    0x43c2(%rip),%rsi        # 1c887 <g_1979+0x2323>
   184c5:	48 89 c7             	mov    %rax,%rdi
   184c8:	e8 26 32 ff ff       	callq  b6f3 <transparent_crc>
   184cd:	48 8b 05 8c b4 00 00 	mov    0xb48c(%rip),%rax        # 23960 <g_1846+0x10>
   184d4:	48 c1 e0 1e          	shl    $0x1e,%rax
   184d8:	48 c1 f8 3e          	sar    $0x3e,%rax
   184dc:	48 0f be c0          	movsbq %al,%rax
   184e0:	8b 55 fc             	mov    -0x4(%rbp),%edx
   184e3:	48 8d 35 a7 43 00 00 	lea    0x43a7(%rip),%rsi        # 1c891 <g_1979+0x232d>
   184ea:	48 89 c7             	mov    %rax,%rdi
   184ed:	e8 01 32 ff ff       	callq  b6f3 <transparent_crc>
   184f2:	48 8b 05 6f b4 00 00 	mov    0xb46f(%rip),%rax        # 23968 <g_1846+0x18>
   184f9:	25 ff ff ff 7f       	and    $0x7fffffff,%eax
   184fe:	89 c1                	mov    %eax,%ecx
   18500:	8b 45 fc             	mov    -0x4(%rbp),%eax
   18503:	89 c2                	mov    %eax,%edx
   18505:	48 8d 35 8f 43 00 00 	lea    0x438f(%rip),%rsi        # 1c89b <g_1979+0x2337>
   1850c:	48 89 cf             	mov    %rcx,%rdi
   1850f:	e8 df 31 ff ff       	callq  b6f3 <transparent_crc>
   18514:	8b 05 52 b4 00 00    	mov    0xb452(%rip),%eax        # 2396c <g_1849>
   1851a:	48 98                	cltq   
   1851c:	8b 55 fc             	mov    -0x4(%rbp),%edx
   1851f:	48 8d 35 7f 43 00 00 	lea    0x437f(%rip),%rsi        # 1c8a5 <g_1979+0x2341>
   18526:	48 89 c7             	mov    %rax,%rdi
   18529:	e8 c5 31 ff ff       	callq  b6f3 <transparent_crc>
   1852e:	8b 05 3c b4 00 00    	mov    0xb43c(%rip),%eax        # 23970 <g_1851>
   18534:	89 c1                	mov    %eax,%ecx
   18536:	8b 45 fc             	mov    -0x4(%rbp),%eax
   18539:	89 c2                	mov    %eax,%edx
   1853b:	48 8d 35 6d 43 00 00 	lea    0x436d(%rip),%rsi        # 1c8af <g_1979+0x234b>
   18542:	48 89 cf             	mov    %rcx,%rdi
   18545:	e8 a9 31 ff ff       	callq  b6f3 <transparent_crc>
   1854a:	8b 05 24 b4 00 00    	mov    0xb424(%rip),%eax        # 23974 <g_1864>
   18550:	48 98                	cltq   
   18552:	8b 55 fc             	mov    -0x4(%rbp),%edx
   18555:	48 8d 35 5a 43 00 00 	lea    0x435a(%rip),%rsi        # 1c8b6 <g_1979+0x2352>
   1855c:	48 89 c7             	mov    %rax,%rdi
   1855f:	e8 8f 31 ff ff       	callq  b6f3 <transparent_crc>
   18564:	0f b7 05 15 b4 00 00 	movzwl 0xb415(%rip),%eax        # 23980 <g_1888>
   1856b:	48 0f bf c0          	movswq %ax,%rax
   1856f:	8b 55 fc             	mov    -0x4(%rbp),%edx
   18572:	48 8d 35 47 43 00 00 	lea    0x4347(%rip),%rsi        # 1c8c0 <g_1979+0x235c>
   18579:	48 89 c7             	mov    %rax,%rdi
   1857c:	e8 72 31 ff ff       	callq  b6f3 <transparent_crc>
   18581:	8b 05 fd b3 00 00    	mov    0xb3fd(%rip),%eax        # 23984 <g_1888+0x4>
   18587:	01 c0                	add    %eax,%eax
   18589:	d1 f8                	sar    %eax
   1858b:	48 98                	cltq   
   1858d:	8b 55 fc             	mov    -0x4(%rbp),%edx
   18590:	48 8d 35 33 43 00 00 	lea    0x4333(%rip),%rsi        # 1c8ca <g_1979+0x2366>
   18597:	48 89 c7             	mov    %rax,%rdi
   1859a:	e8 54 31 ff ff       	callq  b6f3 <transparent_crc>
   1859f:	8b 05 e3 b3 00 00    	mov    0xb3e3(%rip),%eax        # 23988 <g_1888+0x8>
   185a5:	c1 e0 04             	shl    $0x4,%eax
   185a8:	c1 f8 04             	sar    $0x4,%eax
   185ab:	48 98                	cltq   
   185ad:	8b 55 fc             	mov    -0x4(%rbp),%edx
   185b0:	48 8d 35 1d 43 00 00 	lea    0x431d(%rip),%rsi        # 1c8d4 <g_1979+0x2370>
   185b7:	48 89 c7             	mov    %rax,%rdi
   185ba:	e8 34 31 ff ff       	callq  b6f3 <transparent_crc>
   185bf:	0f b7 05 c6 b3 00 00 	movzwl 0xb3c6(%rip),%eax        # 2398c <g_1888+0xc>
   185c6:	48 0f bf c0          	movswq %ax,%rax
   185ca:	8b 55 fc             	mov    -0x4(%rbp),%edx
   185cd:	48 8d 35 0a 43 00 00 	lea    0x430a(%rip),%rsi        # 1c8de <g_1979+0x237a>
   185d4:	48 89 c7             	mov    %rax,%rdi
   185d7:	e8 17 31 ff ff       	callq  b6f3 <transparent_crc>
   185dc:	8b 05 d6 f1 00 00    	mov    0xf1d6(%rip),%eax        # 277b8 <g_1945>
   185e2:	89 c1                	mov    %eax,%ecx
   185e4:	8b 45 fc             	mov    -0x4(%rbp),%eax
   185e7:	89 c2                	mov    %eax,%edx
   185e9:	48 8d 35 f8 42 00 00 	lea    0x42f8(%rip),%rsi        # 1c8e8 <g_1979+0x2384>
   185f0:	48 89 cf             	mov    %rcx,%rdi
   185f3:	e8 fb 30 ff ff       	callq  b6f3 <transparent_crc>
   185f8:	48 8b 05 91 b3 00 00 	mov    0xb391(%rip),%rax        # 23990 <g_1978>
   185ff:	66 25 ff 7f          	and    $0x7fff,%ax
   18603:	0f b7 c0             	movzwl %ax,%eax
   18606:	8b 55 fc             	mov    -0x4(%rbp),%edx
   18609:	48 8d 35 df 42 00 00 	lea    0x42df(%rip),%rsi        # 1c8ef <g_1979+0x238b>
   18610:	48 89 c7             	mov    %rax,%rdi
   18613:	e8 db 30 ff ff       	callq  b6f3 <transparent_crc>
   18618:	8b 05 72 b3 00 00    	mov    0xb372(%rip),%eax        # 23990 <g_1978>
   1861e:	c1 e8 0f             	shr    $0xf,%eax
   18621:	66 25 ff 03          	and    $0x3ff,%ax
   18625:	0f b7 c0             	movzwl %ax,%eax
   18628:	8b 55 fc             	mov    -0x4(%rbp),%edx
   1862b:	48 8d 35 c7 42 00 00 	lea    0x42c7(%rip),%rsi        # 1c8f9 <g_1979+0x2395>
   18632:	48 89 c7             	mov    %rax,%rdi
   18635:	e8 b9 30 ff ff       	callq  b6f3 <transparent_crc>
   1863a:	8b 05 54 b3 00 00    	mov    0xb354(%rip),%eax        # 23994 <g_1978+0x4>
   18640:	c1 e0 09             	shl    $0x9,%eax
   18643:	c1 f8 09             	sar    $0x9,%eax
   18646:	48 98                	cltq   
   18648:	8b 55 fc             	mov    -0x4(%rbp),%edx
   1864b:	48 8d 35 b1 42 00 00 	lea    0x42b1(%rip),%rsi        # 1c903 <g_1979+0x239f>
   18652:	48 89 c7             	mov    %rax,%rdi
   18655:	e8 99 30 ff ff       	callq  b6f3 <transparent_crc>
   1865a:	48 8b 05 37 b3 00 00 	mov    0xb337(%rip),%rax        # 23998 <g_1978+0x8>
   18661:	c1 e0 06             	shl    $0x6,%eax
   18664:	66 c1 f8 06          	sar    $0x6,%ax
   18668:	48 0f bf c0          	movswq %ax,%rax
   1866c:	8b 55 fc             	mov    -0x4(%rbp),%edx
   1866f:	48 8d 35 97 42 00 00 	lea    0x4297(%rip),%rsi        # 1c90d <g_1979+0x23a9>
   18676:	48 89 c7             	mov    %rax,%rdi
   18679:	e8 75 30 ff ff       	callq  b6f3 <transparent_crc>
   1867e:	8b 05 14 b3 00 00    	mov    0xb314(%rip),%eax        # 23998 <g_1978+0x8>
   18684:	c1 e8 0a             	shr    $0xa,%eax
   18687:	66 25 ff 1f          	and    $0x1fff,%ax
   1868b:	0f b7 c0             	movzwl %ax,%eax
   1868e:	8b 55 fc             	mov    -0x4(%rbp),%edx
   18691:	48 8d 35 7f 42 00 00 	lea    0x427f(%rip),%rsi        # 1c917 <g_1979+0x23b3>
   18698:	48 89 c7             	mov    %rax,%rdi
   1869b:	e8 53 30 ff ff       	callq  b6f3 <transparent_crc>
   186a0:	8b 05 f6 b2 00 00    	mov    0xb2f6(%rip),%eax        # 2399c <g_1978+0xc>
   186a6:	89 c1                	mov    %eax,%ecx
   186a8:	8b 45 fc             	mov    -0x4(%rbp),%eax
   186ab:	89 c2                	mov    %eax,%edx
   186ad:	48 8d 35 6d 42 00 00 	lea    0x426d(%rip),%rsi        # 1c921 <g_1979+0x23bd>
   186b4:	48 89 cf             	mov    %rcx,%rdi
   186b7:	e8 37 30 ff ff       	callq  b6f3 <transparent_crc>
   186bc:	8b 05 de b2 00 00    	mov    0xb2de(%rip),%eax        # 239a0 <g_1978+0x10>
   186c2:	25 ff ff 3f 00       	and    $0x3fffff,%eax
   186c7:	89 c1                	mov    %eax,%ecx
   186c9:	8b 45 fc             	mov    -0x4(%rbp),%eax
   186cc:	89 c2                	mov    %eax,%edx
   186ce:	48 8d 35 56 42 00 00 	lea    0x4256(%rip),%rsi        # 1c92b <g_1979+0x23c7>
   186d5:	48 89 cf             	mov    %rcx,%rdi
   186d8:	e8 16 30 ff ff       	callq  b6f3 <transparent_crc>
   186dd:	0f b7 05 be b2 00 00 	movzwl 0xb2be(%rip),%eax        # 239a2 <g_1978+0x12>
   186e4:	66 c1 f8 06          	sar    $0x6,%ax
   186e8:	48 0f bf c0          	movswq %ax,%rax
   186ec:	8b 55 fc             	mov    -0x4(%rbp),%edx
   186ef:	48 8d 35 3f 42 00 00 	lea    0x423f(%rip),%rsi        # 1c935 <g_1979+0x23d1>
   186f6:	48 89 c7             	mov    %rax,%rdi
   186f9:	e8 f5 2f ff ff       	callq  b6f3 <transparent_crc>
   186fe:	0f b6 05 9f b2 00 00 	movzbl 0xb29f(%rip),%eax        # 239a4 <g_1978+0x14>
   18705:	c1 e0 06             	shl    $0x6,%eax
   18708:	c0 f8 06             	sar    $0x6,%al
   1870b:	48 0f be c0          	movsbq %al,%rax
   1870f:	8b 55 fc             	mov    -0x4(%rbp),%edx
   18712:	48 8d 35 26 42 00 00 	lea    0x4226(%rip),%rsi        # 1c93f <g_1979+0x23db>
   18719:	48 89 c7             	mov    %rax,%rdi
   1871c:	e8 d2 2f ff ff       	callq  b6f3 <transparent_crc>
   18721:	8b 05 81 b2 00 00    	mov    0xb281(%rip),%eax        # 239a8 <g_1978+0x18>
   18727:	25 ff ff ff 7f       	and    $0x7fffffff,%eax
   1872c:	89 c1                	mov    %eax,%ecx
   1872e:	8b 45 fc             	mov    -0x4(%rbp),%eax
   18731:	89 c2                	mov    %eax,%edx
   18733:	48 8d 35 0f 42 00 00 	lea    0x420f(%rip),%rsi        # 1c949 <g_1979+0x23e5>
   1873a:	48 89 cf             	mov    %rcx,%rdi
   1873d:	e8 b1 2f ff ff       	callq  b6f3 <transparent_crc>
   18742:	8b 05 1c 1e 00 00    	mov    0x1e1c(%rip),%eax        # 1a564 <g_1979>
   18748:	48 98                	cltq   
   1874a:	8b 55 fc             	mov    -0x4(%rbp),%edx
   1874d:	48 8d 35 ff 41 00 00 	lea    0x41ff(%rip),%rsi        # 1c953 <g_1979+0x23ef>
   18754:	48 89 c7             	mov    %rax,%rdi
   18757:	e8 97 2f ff ff       	callq  b6f3 <transparent_crc>
   1875c:	8b 05 4a b2 00 00    	mov    0xb24a(%rip),%eax        # 239ac <g_2037>
   18762:	89 c1                	mov    %eax,%ecx
   18764:	8b 45 fc             	mov    -0x4(%rbp),%eax
   18767:	89 c2                	mov    %eax,%edx
   18769:	48 8d 35 ed 41 00 00 	lea    0x41ed(%rip),%rsi        # 1c95d <g_1979+0x23f9>
   18770:	48 89 cf             	mov    %rcx,%rdi
   18773:	e8 7b 2f ff ff       	callq  b6f3 <transparent_crc>
   18778:	0f b7 05 31 b2 00 00 	movzwl 0xb231(%rip),%eax        # 239b0 <g_2086>
   1877f:	48 0f bf c0          	movswq %ax,%rax
   18783:	8b 55 fc             	mov    -0x4(%rbp),%edx
   18786:	48 8d 35 d7 41 00 00 	lea    0x41d7(%rip),%rsi        # 1c964 <g_1979+0x2400>
   1878d:	48 89 c7             	mov    %rax,%rdi
   18790:	e8 5e 2f ff ff       	callq  b6f3 <transparent_crc>
   18795:	48 8b 05 14 b2 00 00 	mov    0xb214(%rip),%rax        # 239b0 <g_2086>
   1879c:	48 01 c0             	add    %rax,%rax
   1879f:	48 c1 f8 21          	sar    $0x21,%rax
   187a3:	48 98                	cltq   
   187a5:	8b 55 fc             	mov    -0x4(%rbp),%edx
   187a8:	48 8d 35 bf 41 00 00 	lea    0x41bf(%rip),%rsi        # 1c96e <g_1979+0x240a>
   187af:	48 89 c7             	mov    %rax,%rdi
   187b2:	e8 3c 2f ff ff       	callq  b6f3 <transparent_crc>
   187b7:	48 8b 05 fa b1 00 00 	mov    0xb1fa(%rip),%rax        # 239b8 <g_2086+0x8>
   187be:	c1 e0 04             	shl    $0x4,%eax
   187c1:	c1 f8 04             	sar    $0x4,%eax
   187c4:	48 98                	cltq   
   187c6:	8b 55 fc             	mov    -0x4(%rbp),%edx
   187c9:	48 8d 35 a8 41 00 00 	lea    0x41a8(%rip),%rsi        # 1c978 <g_1979+0x2414>
   187d0:	48 89 c7             	mov    %rax,%rdi
   187d3:	e8 1b 2f ff ff       	callq  b6f3 <transparent_crc>
   187d8:	0f b7 05 dd b1 00 00 	movzwl 0xb1dd(%rip),%eax        # 239bc <g_2086+0xc>
   187df:	48 0f bf c0          	movswq %ax,%rax
   187e3:	8b 55 fc             	mov    -0x4(%rbp),%edx
   187e6:	48 8d 35 95 41 00 00 	lea    0x4195(%rip),%rsi        # 1c982 <g_1979+0x241e>
   187ed:	48 89 c7             	mov    %rax,%rdi
   187f0:	e8 fe 2e ff ff       	callq  b6f3 <transparent_crc>
   187f5:	0f b7 05 c4 b1 00 00 	movzwl 0xb1c4(%rip),%eax        # 239c0 <g_2110>
   187fc:	48 0f bf c0          	movswq %ax,%rax
   18800:	8b 55 fc             	mov    -0x4(%rbp),%edx
   18803:	48 8d 35 82 41 00 00 	lea    0x4182(%rip),%rsi        # 1c98c <g_1979+0x2428>
   1880a:	48 89 c7             	mov    %rax,%rdi
   1880d:	e8 e1 2e ff ff       	callq  b6f3 <transparent_crc>
   18812:	8b 05 ac b1 00 00    	mov    0xb1ac(%rip),%eax        # 239c4 <g_2110+0x4>
   18818:	01 c0                	add    %eax,%eax
   1881a:	d1 f8                	sar    %eax
   1881c:	48 98                	cltq   
   1881e:	8b 55 fc             	mov    -0x4(%rbp),%edx
   18821:	48 8d 35 6e 41 00 00 	lea    0x416e(%rip),%rsi        # 1c996 <g_1979+0x2432>
   18828:	48 89 c7             	mov    %rax,%rdi
   1882b:	e8 c3 2e ff ff       	callq  b6f3 <transparent_crc>
   18830:	8b 05 92 b1 00 00    	mov    0xb192(%rip),%eax        # 239c8 <g_2110+0x8>
   18836:	c1 e0 04             	shl    $0x4,%eax
   18839:	c1 f8 04             	sar    $0x4,%eax
   1883c:	48 98                	cltq   
   1883e:	8b 55 fc             	mov    -0x4(%rbp),%edx
   18841:	48 8d 35 58 41 00 00 	lea    0x4158(%rip),%rsi        # 1c9a0 <g_1979+0x243c>
   18848:	48 89 c7             	mov    %rax,%rdi
   1884b:	e8 a3 2e ff ff       	callq  b6f3 <transparent_crc>
   18850:	0f b7 05 75 b1 00 00 	movzwl 0xb175(%rip),%eax        # 239cc <g_2110+0xc>
   18857:	48 0f bf c0          	movswq %ax,%rax
   1885b:	8b 55 fc             	mov    -0x4(%rbp),%edx
   1885e:	48 8d 35 45 41 00 00 	lea    0x4145(%rip),%rsi        # 1c9aa <g_1979+0x2446>
   18865:	48 89 c7             	mov    %rax,%rdi
   18868:	e8 86 2e ff ff       	callq  b6f3 <transparent_crc>
   1886d:	0f b7 05 5c b1 00 00 	movzwl 0xb15c(%rip),%eax        # 239d0 <g_2111>
   18874:	48 0f bf c0          	movswq %ax,%rax
   18878:	8b 55 fc             	mov    -0x4(%rbp),%edx
   1887b:	48 8d 35 32 41 00 00 	lea    0x4132(%rip),%rsi        # 1c9b4 <g_1979+0x2450>
   18882:	48 89 c7             	mov    %rax,%rdi
   18885:	e8 69 2e ff ff       	callq  b6f3 <transparent_crc>
   1888a:	8b 05 44 b1 00 00    	mov    0xb144(%rip),%eax        # 239d4 <g_2111+0x4>
   18890:	01 c0                	add    %eax,%eax
   18892:	d1 f8                	sar    %eax
   18894:	48 98                	cltq   
   18896:	8b 55 fc             	mov    -0x4(%rbp),%edx
   18899:	48 8d 35 1e 41 00 00 	lea    0x411e(%rip),%rsi        # 1c9be <g_1979+0x245a>
   188a0:	48 89 c7             	mov    %rax,%rdi
   188a3:	e8 4b 2e ff ff       	callq  b6f3 <transparent_crc>
   188a8:	8b 05 2a b1 00 00    	mov    0xb12a(%rip),%eax        # 239d8 <g_2111+0x8>
   188ae:	c1 e0 04             	shl    $0x4,%eax
   188b1:	c1 f8 04             	sar    $0x4,%eax
   188b4:	48 98                	cltq   
   188b6:	8b 55 fc             	mov    -0x4(%rbp),%edx
   188b9:	48 8d 35 08 41 00 00 	lea    0x4108(%rip),%rsi        # 1c9c8 <g_1979+0x2464>
   188c0:	48 89 c7             	mov    %rax,%rdi
   188c3:	e8 2b 2e ff ff       	callq  b6f3 <transparent_crc>
   188c8:	0f b7 05 0d b1 00 00 	movzwl 0xb10d(%rip),%eax        # 239dc <g_2111+0xc>
   188cf:	48 0f bf c0          	movswq %ax,%rax
   188d3:	8b 55 fc             	mov    -0x4(%rbp),%edx
   188d6:	48 8d 35 f5 40 00 00 	lea    0x40f5(%rip),%rsi        # 1c9d2 <g_1979+0x246e>
   188dd:	48 89 c7             	mov    %rax,%rdi
   188e0:	e8 0e 2e ff ff       	callq  b6f3 <transparent_crc>
   188e5:	48 8b 05 f4 b0 00 00 	mov    0xb0f4(%rip),%rax        # 239e0 <g_2124>
   188ec:	25 ff ff ff 7f       	and    $0x7fffffff,%eax
   188f1:	89 c1                	mov    %eax,%ecx
   188f3:	8b 45 fc             	mov    -0x4(%rbp),%eax
   188f6:	89 c2                	mov    %eax,%edx
   188f8:	48 8d 35 dd 40 00 00 	lea    0x40dd(%rip),%rsi        # 1c9dc <g_1979+0x2478>
   188ff:	48 89 cf             	mov    %rcx,%rdi
   18902:	e8 ec 2d ff ff       	callq  b6f3 <transparent_crc>
   18907:	48 8b 05 d2 b0 00 00 	mov    0xb0d2(%rip),%rax        # 239e0 <g_2124>
   1890e:	48 c1 e0 09          	shl    $0x9,%rax
   18912:	48 c1 f8 28          	sar    $0x28,%rax
   18916:	48 98                	cltq   
   18918:	8b 55 fc             	mov    -0x4(%rbp),%edx
   1891b:	48 8d 35 c4 40 00 00 	lea    0x40c4(%rip),%rsi        # 1c9e6 <g_1979+0x2482>
   18922:	48 89 c7             	mov    %rax,%rdi
   18925:	e8 c9 2d ff ff       	callq  b6f3 <transparent_crc>
   1892a:	48 8b 05 af b0 00 00 	mov    0xb0af(%rip),%rax        # 239e0 <g_2124>
   18931:	48 c1 e8 37          	shr    $0x37,%rax
   18935:	48 89 c2             	mov    %rax,%rdx
   18938:	48 8b 05 a9 b0 00 00 	mov    0xb0a9(%rip),%rax        # 239e8 <g_2124+0x8>
   1893f:	25 ff ff 01 00       	and    $0x1ffff,%eax
   18944:	48 c1 e0 09          	shl    $0x9,%rax
   18948:	48 09 d0             	or     %rdx,%rax
   1894b:	48 c1 e0 26          	shl    $0x26,%rax
   1894f:	48 c1 f8 26          	sar    $0x26,%rax
   18953:	48 98                	cltq   
   18955:	8b 55 fc             	mov    -0x4(%rbp),%edx
   18958:	48 8d 35 91 40 00 00 	lea    0x4091(%rip),%rsi        # 1c9f0 <g_1979+0x248c>
   1895f:	48 89 c7             	mov    %rax,%rdi
   18962:	e8 8c 2d ff ff       	callq  b6f3 <transparent_crc>
   18967:	0f b6 05 7d b0 00 00 	movzbl 0xb07d(%rip),%eax        # 239eb <g_2124+0xb>
   1896e:	0f b6 c0             	movzbl %al,%eax
   18971:	8b 55 fc             	mov    -0x4(%rbp),%edx
   18974:	48 8d 35 7f 40 00 00 	lea    0x407f(%rip),%rsi        # 1c9fa <g_1979+0x2496>
   1897b:	48 89 c7             	mov    %rax,%rdi
   1897e:	e8 70 2d ff ff       	callq  b6f3 <transparent_crc>
   18983:	48 8b 05 5e b0 00 00 	mov    0xb05e(%rip),%rax        # 239e8 <g_2124+0x8>
   1898a:	48 01 c0             	add    %rax,%rax
   1898d:	48 c1 f8 21          	sar    $0x21,%rax
   18991:	48 98                	cltq   
   18993:	8b 55 fc             	mov    -0x4(%rbp),%edx
   18996:	48 8d 35 67 40 00 00 	lea    0x4067(%rip),%rsi        # 1ca04 <g_1979+0x24a0>
   1899d:	48 89 c7             	mov    %rax,%rdi
   189a0:	e8 4e 2d ff ff       	callq  b6f3 <transparent_crc>
   189a5:	48 8b 05 3c b0 00 00 	mov    0xb03c(%rip),%rax        # 239e8 <g_2124+0x8>
   189ac:	48 c1 e8 3f          	shr    $0x3f,%rax
   189b0:	48 89 c2             	mov    %rax,%rdx
   189b3:	48 8b 05 36 b0 00 00 	mov    0xb036(%rip),%rax        # 239f0 <g_2124+0x10>
   189ba:	25 ff 3f 00 00       	and    $0x3fff,%eax
   189bf:	48 01 c0             	add    %rax,%rax
   189c2:	48 09 d0             	or     %rdx,%rax
   189c5:	0f b7 c0             	movzwl %ax,%eax
   189c8:	8b 55 fc             	mov    -0x4(%rbp),%edx
   189cb:	48 8d 35 3c 40 00 00 	lea    0x403c(%rip),%rsi        # 1ca0e <g_1979+0x24aa>
   189d2:	48 89 c7             	mov    %rax,%rdi
   189d5:	e8 19 2d ff ff       	callq  b6f3 <transparent_crc>
   189da:	c7 45 f0 00 00 00 00 	movl   $0x0,-0x10(%rbp)
   189e1:	e9 fe 01 00 00       	jmpq   18be4 <main+0x3a63>
   189e6:	8b 45 f0             	mov    -0x10(%rbp),%eax
   189e9:	48 63 d0             	movslq %eax,%rdx
   189ec:	48 89 d0             	mov    %rdx,%rax
   189ef:	48 c1 e0 03          	shl    $0x3,%rax
   189f3:	48 01 d0             	add    %rdx,%rax
   189f6:	48 01 c0             	add    %rax,%rax
   189f9:	48 89 c2             	mov    %rax,%rdx
   189fc:	48 8d 05 fd af 00 00 	lea    0xaffd(%rip),%rax        # 23a00 <g_2144>
   18a03:	0f b7 0c 02          	movzwl (%rdx,%rax,1),%ecx
   18a07:	0f b7 44 02 02       	movzwl 0x2(%rdx,%rax,1),%eax
   18a0c:	25 ff 7f 00 00       	and    $0x7fff,%eax
   18a11:	48 c1 e0 10          	shl    $0x10,%rax
   18a15:	48 09 c8             	or     %rcx,%rax
   18a18:	89 c1                	mov    %eax,%ecx
   18a1a:	8b 45 fc             	mov    -0x4(%rbp),%eax
   18a1d:	89 c2                	mov    %eax,%edx
   18a1f:	48 8d 35 f2 3f 00 00 	lea    0x3ff2(%rip),%rsi        # 1ca18 <g_1979+0x24b4>
   18a26:	48 89 cf             	mov    %rcx,%rdi
   18a29:	e8 c5 2c ff ff       	callq  b6f3 <transparent_crc>
   18a2e:	8b 45 f0             	mov    -0x10(%rbp),%eax
   18a31:	48 63 d0             	movslq %eax,%rdx
   18a34:	48 89 d0             	mov    %rdx,%rax
   18a37:	48 c1 e0 03          	shl    $0x3,%rax
   18a3b:	48 01 d0             	add    %rdx,%rax
   18a3e:	48 01 c0             	add    %rax,%rax
   18a41:	48 89 c2             	mov    %rax,%rdx
   18a44:	48 8d 05 b5 af 00 00 	lea    0xafb5(%rip),%rax        # 23a00 <g_2144>
   18a4b:	0f b6 4c 02 03       	movzbl 0x3(%rdx,%rax,1),%ecx
   18a50:	c0 e9 07             	shr    $0x7,%cl
   18a53:	0f b6 c9             	movzbl %cl,%ecx
   18a56:	0f b7 74 02 04       	movzwl 0x4(%rdx,%rax,1),%esi
   18a5b:	48 01 f6             	add    %rsi,%rsi
   18a5e:	48 09 f1             	or     %rsi,%rcx
   18a61:	0f b6 44 02 06       	movzbl 0x6(%rdx,%rax,1),%eax
   18a66:	83 e0 7f             	and    $0x7f,%eax
   18a69:	48 c1 e0 11          	shl    $0x11,%rax
   18a6d:	48 09 c8             	or     %rcx,%rax
   18a70:	48 c1 e0 28          	shl    $0x28,%rax
   18a74:	48 c1 f8 28          	sar    $0x28,%rax
   18a78:	48 98                	cltq   
   18a7a:	8b 55 fc             	mov    -0x4(%rbp),%edx
   18a7d:	48 8d 35 a1 3f 00 00 	lea    0x3fa1(%rip),%rsi        # 1ca25 <g_1979+0x24c1>
   18a84:	48 89 c7             	mov    %rax,%rdi
   18a87:	e8 67 2c ff ff       	callq  b6f3 <transparent_crc>
   18a8c:	8b 45 f0             	mov    -0x10(%rbp),%eax
   18a8f:	48 63 d0             	movslq %eax,%rdx
   18a92:	48 89 d0             	mov    %rdx,%rax
   18a95:	48 c1 e0 03          	shl    $0x3,%rax
   18a99:	48 01 d0             	add    %rdx,%rax
   18a9c:	48 01 c0             	add    %rax,%rax
   18a9f:	48 89 c2             	mov    %rax,%rdx
   18aa2:	48 8d 05 57 af 00 00 	lea    0xaf57(%rip),%rax        # 23a00 <g_2144>
   18aa9:	0f b7 4c 02 06       	movzwl 0x6(%rdx,%rax,1),%ecx
   18aae:	66 c1 e9 07          	shr    $0x7,%cx
   18ab2:	0f b7 c9             	movzwl %cx,%ecx
   18ab5:	0f b7 74 02 08       	movzwl 0x8(%rdx,%rax,1),%esi
   18aba:	0f b7 f6             	movzwl %si,%esi
   18abd:	48 c1 e6 09          	shl    $0x9,%rsi
   18ac1:	48 09 f1             	or     %rsi,%rcx
   18ac4:	0f b7 44 02 0a       	movzwl 0xa(%rdx,%rax,1),%eax
   18ac9:	0f b7 c0             	movzwl %ax,%eax
   18acc:	83 e0 01             	and    $0x1,%eax
   18acf:	48 c1 e0 19          	shl    $0x19,%rax
   18ad3:	48 09 c8             	or     %rcx,%rax
   18ad6:	48 c1 e0 26          	shl    $0x26,%rax
   18ada:	48 c1 f8 26          	sar    $0x26,%rax
   18ade:	48 98                	cltq   
   18ae0:	8b 55 fc             	mov    -0x4(%rbp),%edx
   18ae3:	48 8d 35 48 3f 00 00 	lea    0x3f48(%rip),%rsi        # 1ca32 <g_1979+0x24ce>
   18aea:	48 89 c7             	mov    %rax,%rdi
   18aed:	e8 01 2c ff ff       	callq  b6f3 <transparent_crc>
   18af2:	8b 45 f0             	mov    -0x10(%rbp),%eax
   18af5:	48 63 d0             	movslq %eax,%rdx
   18af8:	48 89 d0             	mov    %rdx,%rax
   18afb:	48 c1 e0 03          	shl    $0x3,%rax
   18aff:	48 01 d0             	add    %rdx,%rax
   18b02:	48 01 c0             	add    %rax,%rax
   18b05:	48 89 c2             	mov    %rax,%rdx
   18b08:	48 8d 05 fc ae 00 00 	lea    0xaefc(%rip),%rax        # 23a0b <g_2144+0xb>
   18b0f:	0f b6 04 02          	movzbl (%rdx,%rax,1),%eax
   18b13:	0f b6 c0             	movzbl %al,%eax
   18b16:	8b 55 fc             	mov    -0x4(%rbp),%edx
   18b19:	48 8d 35 1f 3f 00 00 	lea    0x3f1f(%rip),%rsi        # 1ca3f <g_1979+0x24db>
   18b20:	48 89 c7             	mov    %rax,%rdi
   18b23:	e8 cb 2b ff ff       	callq  b6f3 <transparent_crc>
   18b28:	8b 45 f0             	mov    -0x10(%rbp),%eax
   18b2b:	48 63 d0             	movslq %eax,%rdx
   18b2e:	48 89 d0             	mov    %rdx,%rax
   18b31:	48 c1 e0 03          	shl    $0x3,%rax
   18b35:	48 01 d0             	add    %rdx,%rax
   18b38:	48 01 c0             	add    %rax,%rax
   18b3b:	48 89 c2             	mov    %rax,%rdx
   18b3e:	48 8d 05 bb ae 00 00 	lea    0xaebb(%rip),%rax        # 23a00 <g_2144>
   18b45:	0f b7 4c 02 0c       	movzwl 0xc(%rdx,%rax,1),%ecx
   18b4a:	0f b7 44 02 0e       	movzwl 0xe(%rdx,%rax,1),%eax
   18b4f:	25 ff 7f 00 00       	and    $0x7fff,%eax
   18b54:	48 c1 e0 10          	shl    $0x10,%rax
   18b58:	48 09 c8             	or     %rcx,%rax
   18b5b:	48 c1 e0 21          	shl    $0x21,%rax
   18b5f:	48 c1 f8 21          	sar    $0x21,%rax
   18b63:	48 98                	cltq   
   18b65:	8b 55 fc             	mov    -0x4(%rbp),%edx
   18b68:	48 8d 35 dd 3e 00 00 	lea    0x3edd(%rip),%rsi        # 1ca4c <g_1979+0x24e8>
   18b6f:	48 89 c7             	mov    %rax,%rdi
   18b72:	e8 7c 2b ff ff       	callq  b6f3 <transparent_crc>
   18b77:	8b 45 f0             	mov    -0x10(%rbp),%eax
   18b7a:	48 63 d0             	movslq %eax,%rdx
   18b7d:	48 89 d0             	mov    %rdx,%rax
   18b80:	48 c1 e0 03          	shl    $0x3,%rax
   18b84:	48 01 d0             	add    %rdx,%rax
   18b87:	48 01 c0             	add    %rax,%rax
   18b8a:	48 89 c2             	mov    %rax,%rdx
   18b8d:	48 8d 05 6c ae 00 00 	lea    0xae6c(%rip),%rax        # 23a00 <g_2144>
   18b94:	0f b6 4c 02 0f       	movzbl 0xf(%rdx,%rax,1),%ecx
   18b99:	c0 e9 07             	shr    $0x7,%cl
   18b9c:	0f b6 c9             	movzbl %cl,%ecx
   18b9f:	0f b7 44 02 10       	movzwl 0x10(%rdx,%rax,1),%eax
   18ba4:	25 ff 3f 00 00       	and    $0x3fff,%eax
   18ba9:	48 01 c0             	add    %rax,%rax
   18bac:	48 09 c8             	or     %rcx,%rax
   18baf:	0f b7 c0             	movzwl %ax,%eax
   18bb2:	8b 55 fc             	mov    -0x4(%rbp),%edx
   18bb5:	48 8d 35 9d 3e 00 00 	lea    0x3e9d(%rip),%rsi        # 1ca59 <g_1979+0x24f5>
   18bbc:	48 89 c7             	mov    %rax,%rdi
   18bbf:	e8 2f 2b ff ff       	callq  b6f3 <transparent_crc>
   18bc4:	83 7d fc 00          	cmpl   $0x0,-0x4(%rbp)
   18bc8:	74 16                	je     18be0 <main+0x3a5f>
   18bca:	8b 45 f0             	mov    -0x10(%rbp),%eax
   18bcd:	89 c6                	mov    %eax,%esi
   18bcf:	48 8d 3d b6 31 00 00 	lea    0x31b6(%rip),%rdi        # 1bd8c <g_1979+0x1828>
   18bd6:	b8 00 00 00 00       	mov    $0x0,%eax
   18bdb:	e8 a0 14 ff ff       	callq  a080 <printf@plt>
   18be0:	83 45 f0 01          	addl   $0x1,-0x10(%rbp)
   18be4:	83 7d f0 07          	cmpl   $0x7,-0x10(%rbp)
   18be8:	0f 8e f8 fd ff ff    	jle    189e6 <main+0x3865>
   18bee:	8b 05 2c 74 00 00    	mov    0x742c(%rip),%eax        # 20020 <crc32_context>
   18bf4:	f7 d0                	not    %eax
   18bf6:	89 c2                	mov    %eax,%edx
   18bf8:	8b 45 fc             	mov    -0x4(%rbp),%eax
   18bfb:	89 c6                	mov    %eax,%esi
   18bfd:	89 d7                	mov    %edx,%edi
   18bff:	e8 90 15 ff ff       	callq  a194 <platform_main_end>
   18c04:	b8 00 00 00 00       	mov    $0x0,%eax
   18c09:	c9                   	leaveq 
   18c0a:	c3                   	retq   
   18c0b:	0f 1f 44 00 00       	nopl   0x0(%rax,%rax,1)

0000000000018c10 <__libc_csu_init>:
   18c10:	f3 0f 1e fa          	endbr64 
   18c14:	41 57                	push   %r15
   18c16:	4c 8d 3d b3 70 00 00 	lea    0x70b3(%rip),%r15        # 1fcd0 <__frame_dummy_init_array_entry>
   18c1d:	41 56                	push   %r14
   18c1f:	49 89 d6             	mov    %rdx,%r14
   18c22:	41 55                	push   %r13
   18c24:	49 89 f5             	mov    %rsi,%r13
   18c27:	41 54                	push   %r12
   18c29:	41 89 fc             	mov    %edi,%r12d
   18c2c:	55                   	push   %rbp
   18c2d:	48 8d 2d a4 70 00 00 	lea    0x70a4(%rip),%rbp        # 1fcd8 <__do_global_dtors_aux_fini_array_entry>
   18c34:	53                   	push   %rbx
   18c35:	4c 29 fd             	sub    %r15,%rbp
   18c38:	48 83 ec 08          	sub    $0x8,%rsp
   18c3c:	e8 bf 13 ff ff       	callq  a000 <_init>
   18c41:	48 c1 fd 03          	sar    $0x3,%rbp
   18c45:	74 1f                	je     18c66 <__libc_csu_init+0x56>
   18c47:	31 db                	xor    %ebx,%ebx
   18c49:	0f 1f 80 00 00 00 00 	nopl   0x0(%rax)
   18c50:	4c 89 f2             	mov    %r14,%rdx
   18c53:	4c 89 ee             	mov    %r13,%rsi
   18c56:	44 89 e7             	mov    %r12d,%edi
   18c59:	41 ff 14 df          	callq  *(%r15,%rbx,8)
   18c5d:	48 83 c3 01          	add    $0x1,%rbx
   18c61:	48 39 dd             	cmp    %rbx,%rbp
   18c64:	75 ea                	jne    18c50 <__libc_csu_init+0x40>
   18c66:	48 83 c4 08          	add    $0x8,%rsp
   18c6a:	5b                   	pop    %rbx
   18c6b:	5d                   	pop    %rbp
   18c6c:	41 5c                	pop    %r12
   18c6e:	41 5d                	pop    %r13
   18c70:	41 5e                	pop    %r14
   18c72:	41 5f                	pop    %r15
   18c74:	c3                   	retq   
   18c75:	66 66 2e 0f 1f 84 00 	data16 nopw %cs:0x0(%rax,%rax,1)
   18c7c:	00 00 00 00 

0000000000018c80 <__libc_csu_fini>:
   18c80:	f3 0f 1e fa          	endbr64 
   18c84:	c3                   	retq   
